../git/linux-firmware/./ath6k/AR6003/hw1.0/otp.bin.z77:     file format binary


Disassembly of section .data:

00000000 <.data>:
   0:	2e          	.byte 0x2e
   1:	540000        	extui	a0, a0, 0, 6
   4:	4c0000        	excw
   7:	a80056        	bnez	a0, 0xfffffa8b
   a:	4e          	.byte 0x4e
   b:	000056        	bnez	a0, 0xf
   e:	2e5406        	j	0xb962
  11:	4c0806        	j	0x13035
  14:	580056        	bnez	a0, 0x598
  17:	4e          	.byte 0x4e
  18:	7c0056        	bnez	a0, 0x7dc
  1b:	4e          	.byte 0x4e
  1c:	100056        	bnez	a0, 0x120
  1f:	2e          	.byte 0x2e
  20:	421004        	excw
  23:	000000        	ill
  26:	4f5a      	add.n	a4, a15, a5
  28:	0e0000        	excw
  2b:	310003        	excw
  2e:	4f5b      	addi.n	a4, a15, 5
  30:	100000        	and	a0, a0, a0
  33:	2c0003        	excw
  36:	009450        	excw
  39:	5048      	l32i.n	a4, a0, 20
  3b:	180094        	excw
  3e:	009450        	excw
  41:	4fbc      	beqz.n	a15, 0x79
  43:	e40094        	excw
  46:	4e          	.byte 0x4e
  47:	740094        	excw
  4a:	4f          	.byte 0x4f
  4b:	5c0094        	excw
  4e:	4e          	.byte 0x4e
  4f:	740056        	bnez	a0, 0x793
  52:	4e          	.byte 0x4e
  53:	800056        	bnez	a0, 0xfffff857
  56:	4e          	.byte 0x4e
  57:	840056        	bnez	a0, 0xfffff89b
  5a:	009450        	excw
  5d:	9450b0        	extui	a5, a11, 0, 10
  60:	50c000        	idtlb	a0
  63:	0c0094        	excw
  66:	009451        	l32r	a5, 0xfffc02b8
  69:	50e8      	l32i.n	a14, a0, 20
  6b:	052e94        	excw
  6e:	2e5c      	movi.n	a14, 82
  70:	2e0404        	excw
  73:	7409      	s32i.n	a0, a4, 28
  75:	2e0000        	excw
  78:	2e0404        	excw
  7b:	0808      	l32i.n	a0, a8, 0
  7d:	2e          	.byte 0x2e
  7e:	2e1010        	excw
  81:	2e2020        	excw
  84:	2e4040        	excw
  87:	810081        	l32r	a8, 0xfffe0488
  8a:	822e00        	mull	a2, a14, a0
  8d:	008200        	excw
  90:	2e          	.byte 0x2e
  91:	840084        	excw
  94:	882e00        	excw
  97:	008800        	excw
  9a:	2e          	.byte 0x2e
  9b:	900090        	addx2	a0, a0, a9
  9e:	a02e00        	addx4	a2, a14, a0
  a1:	00a000        	excw
  a4:	2e          	.byte 0x2e
  a5:	870187        	bnone	a1, a8, 0x30
  a8:	613601        	l32r	a0, 0xfffd8580
  ab:	002100        	excw
  ae:	a1aa      	add.n	a10, a1, a10
  b0:	88aa01        	l32r	a0, 0xfffe2358
  b3:	02b112        	excw
  b6:	a7aa      	add.n	a10, a7, a10
  b8:	0f18      	l32i.n	a1, a15, 0
  ba:	0a9d      	mov.n	a9, a10
  bc:	c0bba0        	sub	a11, a11, a10
  bf:	00a0a2        	movi	a10, 0
  c2:	04ab76        	excw
  c5:	0049a2        	s8i	a10, a9, 0
  c8:	991b      	addi.n	a9, a9, 1
  ca:	002282        	l32i	a8, a2, 0
  cd:	aa03a1        	l32r	a10, 0xfffea8dc
  d0:	aa0491        	l32r	a9, 0xfffea8e0
  d3:	20a4c2        	movi	a12, 0x420
  d6:	04a0b2        	movi	a11, 4
  d9:	0061b2        	s32i	a11, a1, 0
  dc:	11c9      	s32i.n	a12, a1, 4
  de:	01bd      	mov.n	a11, a1
  e0:	266a92        	s32i	a9, a10, 152
  e3:	8a0c      	movi.n	a10, 8
  e5:	0008e0        	excw
  e8:	ba8c      	beqz.n	a10, 0xf7
  ea:	612282        	l32i	a8, a2, 0x184
  ed:	6a0c      	movi.n	a10, 6
  ef:	0008e0        	excw
  f2:	000065        	excw
  f5:	0a2d      	mov.n	a2, a10
  f7:	f01d      	excw
  f9:	004136        	excw
  fc:	aa0381        	l32r	a8, 0xfffea908
  ff:	aa0531        	l32r	a3, 0xfffea914
 102:	162882        	l32i	a8, a8, 88
 105:	01a022        	movi	a2, 1
 108:	589c      	beqz.n	a8, 0x121
 10a:	aa06a1        	l32r	a10, 0xfffea924
 10d:	0aa8      	l32i.n	a10, a10, 0
 10f:	003f25        	excw
 112:	aa07a1        	l32r	a10, 0xfffea930
 115:	0aa8      	l32i.n	a10, a10, 0
 117:	005ce5        	excw
 11a:	002165        	excw
 11d:	1328      	l32i.n	a2, a3, 4
 11f:	f01d      	excw
 121:	1329      	s32i.n	a2, a3, 4
 123:	2e          	.byte 0x2e
 124:	002c06        	j	0x1d8
 127:	88aa      	add.n	a8, a8, a10
 129:	e078      	l32i.n	a7, a0, 56
 12b:	0008      	l32i.n	a0, a0, 0
 12d:	0abd      	mov.n	a11, a10
 12f:	090c      	movi.n	a9, 0
 131:	ff7c      	movi.n	a15, -1
 133:	00a2c2        	movi	a12, 0x200
 136:	00a0d2        	movi	a13, 0
 139:	044ad2        	s8i	a13, a10, 4
 13c:	054ad2        	s8i	a13, a10, 5
 13f:	07ac76        	excw
 142:	001be2        	l16ui	a14, a11, 0
 145:	bb2b      	addi.n	a11, a11, 2
 147:	309e90        	xor	a9, a14, a9
 14a:	30f9f0        	xor	a15, a9, a15
 14d:	044af2        	s8i	a15, a10, 4
 150:	4188f0        	srli	a8, a15, 8
 153:	054a82        	s8i	a8, a10, 5
 156:	f01d      	excw
 158:	360000        	excw
 15b:	410041        	l32r	a4, 0xfffd055c
 15e:	88aa00        	excw
 161:	08e074        	excw
 164:	091c00        	excw
 167:	03b937        	bgeu	a9, a3, 0x16e
 16a:	f27c      	movi.n	a2, -1
 16c:	f01d      	excw
 16e:	03cd      	mov.n	a12, a3
 170:	02bd      	mov.n	a11, a2
 172:	3a2482        	l32i	a8, a4, 232
 175:	25caa2        	addi	a10, a10, 37
 178:	0008e0        	excw
 17b:	020c      	movi.n	a2, 0
 17d:	2e          	.byte 0x2e
 17e:	002704        	excw
 181:	006136        	excw
 184:	0139      	s32i.n	a3, a1, 0
 186:	aa0031        	l32r	a3, 0xfffea988
 189:	7388      	l32i.n	a8, a3, 28
 18b:	0008e0        	excw
 18e:	0a5d      	mov.n	a5, a10
 190:	040c      	movi.n	a4, 0
 192:	0b0c      	movi.n	a11, 0
 194:	c8a072        	movi	a7, 200
 197:	ffa062        	movi	a6, 255
 19a:	0c0c      	movi.n	a12, 0
 19c:	3d0c      	movi.n	a13, 3
 19e:	890c      	movi.n	a9, 8
 1a0:	0fa976        	excw
 1a3:	a54a      	add.n	a10, a5, a4
 1a5:	aa7a      	add.n	a10, a10, a7
 1a7:	7c0aa2        	l8ui	a10, a10, 124
 1aa:	441b      	addi.n	a4, a4, 1
 1ac:	011a67        	beq	a10, a6, 0x1b1
 1af:	bb1b      	addi.n	a11, a11, 1
 1b1:	f03d      	nop.n
 1b3:	01a8      	l32i.n	a10, a1, 0
 1b5:	040c      	movi.n	a4, 0
 1b7:	0fad76        	excw
 1ba:	e54a      	add.n	a14, a5, a4
 1bc:	ee7a      	add.n	a14, a14, a7
 1be:	840ee2        	l8ui	a14, a14, 132
 1c1:	441b      	addi.n	a4, a4, 1
 1c3:	011e67        	beq	a14, a6, 0x1c8
 1c6:	cc1b      	addi.n	a12, a12, 1
 1c8:	f03d      	nop.n
 1ca:	fcba      	add.n	a15, a12, a11
 1cc:	11ffe0        	slli	a15, a15, 2
 1cf:	2ebaf7        	bgeu	a10, a15, 0x201
 1d2:	0c6905        	call0	0xc864
 1d5:	a13204        	excw
 1d8:	353a50        	extui	a3, a5, 26, 4
 1db:	854a      	add.n	a8, a5, a4
 1dd:	887a      	add.n	a8, a8, a7
 1df:	7c0882        	l8ui	a8, a8, 124
 1e2:	101867        	beq	a8, a6, 0x1f6
 1e5:	03ad      	mov.n	a10, a3
 1e7:	aa0081        	l32r	a8, 0xfffea9e8
 1ea:	02bd      	mov.n	a11, a2
 1ec:	3a2882        	l32i	a8, a8, 232
 1ef:	4c0c      	movi.n	a12, 4
 1f1:	0008e0        	excw
 1f4:	224b      	addi.n	a2, a2, 4
 1f6:	334b      	addi.n	a3, a3, 4
 1f8:	441b      	addi.n	a4, a4, 1
 1fa:	dd8466        	bnei	a4, 8, 0x1db
 1fd:	2e          	.byte 0x2e
 1fe:	702904        	excw
 201:	2e          	.byte 0x2e
 202:	2908      	l32i.n	a0, a9, 8
 204:	192e84        	excw
 207:	3429      	s32i.n	a2, a4, 12
 209:	2edd      	excw
 20b:	2e8105        	call0	0x2ea1c
 20e:	006136        	excw
 211:	1a0c      	movi.n	a10, 1
 213:	150c      	movi.n	a5, 1
 215:	0002b2        	l8ui	a11, a2, 0
 218:	0459      	s32i.n	a5, a4, 0
 21a:	5450b0        	extui	a5, a11, 0, 6
 21d:	459c      	beqz.n	a5, 0x235
 21f:	830b      	addi.n	a8, a3, -1
 221:	143857        	bltu	a8, a5, 0x239
 224:	1496b0        	extui	a9, a11, 6, 2
 227:	121926        	beqi	a9, 1, 0x23d
 22a:	1b2926        	beqi	a9, 2, 0x249
 22d:	020c      	movi.n	a2, 0
 22f:	9a5a      	add.n	a9, a10, a5
 231:	0499      	s32i.n	a9, a4, 0
 233:	f01d      	excw
 235:	0128      	l32i.n	a2, a1, 0
 237:	f01d      	excw
 239:	f27c      	movi.n	a2, -1
 23b:	f01d      	excw
 23d:	a21b      	addi.n	a10, a2, 1
 23f:	05bd      	mov.n	a11, a5
 241:	fff225        	excw
 244:	0a2d      	mov.n	a2, a10
 246:	000206        	j	0x252
 249:	2e          	.byte 0x2e
 24a:	e50c04        	excw
 24d:	ee          	.byte 0xee
 24e:	ff          	.byte 0xff
 24f:	0a2d      	mov.n	a2, a10
 251:	04a8      	l32i.n	a10, a4, 0
 253:	fff5c6        	j	0x22e
 256:	052e00        	extui	a2, a0, 30, 1
 259:	1c2082        	l32i	a8, a0, 112
 25c:	3708      	l32i.n	a0, a7, 12
 25e:	2e38      	l32i.n	a3, a14, 8
 260:	2f8105        	call0	0x2fa74
 263:	aa0051        	l32r	a5, 0xfffeaa64
 266:	7588      	l32i.n	a8, a5, 28
 268:	0008e0        	excw
 26b:	b21b      	addi.n	a11, a2, 1
 26d:	4c0c      	movi.n	a12, 4
 26f:	0a3d      	mov.n	a3, a10
 271:	3a2582        	l32i	a8, a5, 232
 274:	aacb      	addi.n	a10, a10, 12
 276:	0008e0        	excw
 279:	16c3a2        	addi	a10, a3, 22
 27c:	b25b      	addi.n	a11, a2, 5
 27e:	3a2582        	l32i	a8, a5, 232
 281:	6c0c      	movi.n	a12, 6
 283:	2e          	.byte 0x2e
 284:	1c0d05        	call0	0x1c358
 287:	2ebb      	addi.n	a2, a14, 11
 289:	0d09      	s32i.n	a0, a13, 0
 28b:	020c      	movi.n	a2, 0
 28d:	191c      	movi.n	a9, 17
 28f:	2e          	.byte 0x2e
 290:	366904        	excw
 293:	610061        	l32r	a6, 0xfffd8694
 296:	0caa05        	call0	0xcd38
 299:	068804        	excw
 29c:	050c      	movi.n	a5, 0
 29e:	881b      	addi.n	a8, a8, 1
 2a0:	0689      	s32i.n	a8, a6, 0
 2a2:	d3ac      	beqz.n	a3, 0x2d3
 2a4:	441b      	addi.n	a4, a4, 1
 2a6:	0698      	l32i.n	a9, a6, 0
 2a8:	0159      	s32i.n	a5, a1, 0
 2aa:	0e1966        	bnei	a9, 1, 0x2bc
 2ad:	0b1466        	bnei	a4, 1, 0x2bc
 2b0:	02ad      	mov.n	a10, a2
 2b2:	03bd      	mov.n	a11, a3
 2b4:	01cd      	mov.n	a12, a1
 2b6:	fff965        	excw
 2b9:	000206        	j	0x2c5
 2bc:	2e          	.byte 0x2e
 2bd:	e50c06        	j	0xffff96f1
 2c0:	ccfff3        	excw
 2c3:	b8aa      	add.n	a11, a8, a10
 2c5:	441b01        	l32r	a0, 0xfffd1334
 2c8:	22ba      	add.n	a2, a2, a11
 2ca:	c033b0        	sub	a3, a3, a11
 2cd:	fd2356        	bnez	a3, 0x2a3
 2d0:	0a2d      	mov.n	a2, a10
 2d2:	2e          	.byte 0x2e
 2d3:	048306        	j	0x14e3
 2d6:	310041        	l32r	a4, 0xfffcc6d8
 2d9:	88aa07        	bge	a10, a0, 0x265
 2dc:	088803        	excw
 2df:	0008e0        	excw
 2e2:	0388      	l32i.n	a8, a3, 0
 2e4:	2888      	l32i.n	a8, a8, 8
 2e6:	02ad      	mov.n	a10, a2
 2e8:	0008e0        	excw
 2eb:	2e          	.byte 0x2e
 2ec:	7c8306        	j	0x1f4fc
 2ef:	88aa07        	bge	a10, a0, 0x27b
 2f2:	8808      	l32i.n	a0, a8, 32
 2f4:	2e18      	l32i.n	a1, a14, 8
 2f6:	2e0f05        	call0	0x2e3e8
 2f9:	008206        	j	0x505
 2fc:	fffd25        	excw
 2ff:	aa0771        	l32r	a7, 0xfffeab1c
 302:	160c      	movi.n	a6, 1
 304:	aa0541        	l32r	a4, 0xfffeab18
 307:	030c      	movi.n	a3, 0
 309:	032d      	mov.n	a2, a3
 30b:	0439      	s32i.n	a3, a4, 0
 30d:	10c452        	addi	a5, a4, 16
 310:	0000c6        	j	0x317
 313:	01b8      	l32i.n	a11, a1, 0
 315:	5bec      	bnez.n	a11, 0x33e
 317:	05ad      	mov.n	a10, a5
 319:	0788      	l32i.n	a8, a7, 0
 31b:	00a2b2        	movi	a11, 0x200
 31e:	3888      	l32i.n	a8, a8, 12
 320:	01cd      	mov.n	a12, a1
 322:	0008e0        	excw
 325:	f2ca92        	addi	a9, a10, -14
 328:	832690        	moveqz	a2, a6, a9
 32b:	fe4a16        	beqz	a10, 0x313
 32e:	729c      	beqz.n	a2, 0x349
 330:	04a8      	l32i.n	a10, a4, 0
 332:	3a9c      	beqz.n	a10, 0x349
 334:	ffdb65        	excw
 337:	1439      	s32i.n	a3, a4, 4
 339:	fffae5        	excw
 33c:	f01d      	excw
 33e:	05ad      	mov.n	a10, a5
 340:	fff465        	excw
 343:	fd0a16        	beqz	a10, 0x317
 346:	fff906        	j	0x32e
 349:	2b0c      	movi.n	a11, 2
 34b:	330c      	movi.n	a3, 3
 34d:	933b20        	movnez	a3, a11, a2
 350:	fff8c6        	j	0x337
 353:	004136        	excw
 356:	120c      	movi.n	a2, 1
 358:	aa0841        	l32r	a4, 0xfffeab78
 35b:	aa0051        	l32r	a5, 0xfffeab5c
 35e:	122492        	l32i	a9, a4, 72
 361:	242582        	l32i	a8, a5, 144
 364:	9929      	s32i.n	a2, a9, 36
 366:	2e          	.byte 0x2e
 367:	244404        	excw
 36a:	a9a912        	movi	a1, 0xfffff9a9
 36d:	172582        	l32i	a8, a5, 92
 370:	0008e0        	excw
 373:	1224c2        	l32i	a12, a4, 72
 376:	cca9      	s32i.n	a10, a12, 48
 378:	dcb9      	s32i.n	a11, a12, 52
 37a:	aa0931        	l32r	a3, 0xfffeaba0
 37d:	0020c0        	memw
 380:	2c6322        	s32i	a2, a3, 176
 383:	2e0a61        	l32r	a6, 0xfffcbbac
 386:	f80904        	excw
 389:	22ec      	bnez.n	a2, 0x3af
 38b:	162d23        	excw
 38e:	1f          	.byte 0x1f
 38f:	092e04        	excw
 392:	ec7824        	excw
 395:	dcf8      	l32i.n	a15, a12, 52
 397:	cce8      	l32i.n	a14, a12, 48
 399:	c0dbf0        	sub	a13, a11, a15
 39c:	c0eae0        	sub	a14, a10, a14
 39f:	31ff70        	srai	a15, a7, 31
 3a2:	01bae7        	bgeu	a10, a14, 0x3a7
 3a5:	dd0b      	addi.n	a13, a13, -1
 3a7:	0a0c      	movi.n	a10, 0
 3a9:	073df7        	bltu	a13, a15, 0x3b4
 3ac:	029fd7        	bne	a15, a13, 0x3b2
 3af:	01b7e7        	bgeu	a7, a14, 0x3b4
 3b2:	1a0c      	movi.n	a10, 1
 3b4:	4a9c      	beqz.n	a10, 0x3cc
 3b6:	7c88      	l32i.n	a8, a12, 28
 3b8:	2e          	.byte 0x2e
 3b9:	d65a04        	excw
 3bc:	c99201        	l32r	a0, 0xffff2a04
 3bf:	20c031        	l32r	a3, 0xfffc86c0
 3c2:	099800        	excw
 3c5:	2e20c0        	excw
 3c8:	073904        	excw
 3cb:	a8af62        	movi	a6, -88
 3ce:	a09c      	beqz.n	a0, 0x3ec
 3d0:	a960a0        	excw
 3d3:	2e9c      	beqz.n	a14, 0x3e9
 3d5:	8208      	l32i.n	a0, a2, 32
 3d7:	082114        	excw
 3da:	b2aa      	add.n	a11, a2, a10
 3dc:	0c1222        	l16ui	a2, a2, 24
 3df:	c92c      	movi.n	a9, 44
 3e1:	919b      	addi.n	a9, a1, 9
 3e3:	aa09      	s32i.n	a0, a10, 40
 3e5:	080c      	movi.n	a8, 0
 3e7:	2e0ba1        	l32r	a10, 0xfffcbc14
 3ea:	827104        	excw
 3ed:	806a      	add.n	a8, a0, a6
 3ef:	2e          	.byte 0x2e
 3f0:	690604        	excw
 3f3:	c02c      	movi.n	a0, 44
 3f5:	d20020        	excw
 3f8:	2d29      	s32i.n	a2, a13, 8
 3fa:	ff6d56        	bnez	a13, 0x3f4
 3fd:	aba8      	l32i.n	a10, a11, 40
 3ff:	090c      	movi.n	a9, 0
 401:	aa0081        	l32r	a8, 0xfffeac04
 404:	db99      	s32i.n	a9, a11, 52
 406:	252882        	l32i	a8, a8, 148
 409:	cb99      	s32i.n	a9, a11, 48
 40b:	0008e0        	excw
 40e:	1222b2        	l32i	a11, a2, 72
 411:	9ba8      	l32i.n	a10, a11, 36
 413:	2e          	.byte 0x2e
 414:	9b4a04        	excw
 417:	f01d      	excw
 419:	2e          	.byte 0x2e
 41a:	514804        	excw
 41d:	aa08      	l32i.n	a0, a10, 40
 41f:	122582        	l32i	a8, a5, 72
 422:	5888      	l32i.n	a8, a8, 20
 424:	0008e0        	excw
 427:	b42a      	add.n	a11, a4, a2
 429:	1225a2        	l32i	a10, a5, 72
 42c:	3c0c      	movi.n	a12, 3
 42e:	fa98      	l32i.n	a9, a10, 60
 430:	9ac9      	s32i.n	a12, a10, 36
 432:	11b9b7        	bgeu	a9, a11, 0x447
 435:	072a82        	l32i	a8, a10, 28
 438:	0008e0        	excw
 43b:	2e0c91        	l32r	a9, 0xfffcbc6c
 43e:	925804        	excw
 441:	0029      	s32i.n	a2, a0, 0
 443:	0020c0        	memw
 446:	aa0d91        	l32r	a9, 0xfffeac7c
 449:	149476        	excw
 44c:	11a2e0        	slli	a10, a2, 2
 44f:	08daa2        	addmi	a10, a10, 0x800
 452:	20aa90        	or	a10, a10, a9
 455:	0020c0        	memw
 458:	0aa8      	l32i.n	a10, a10, 0
 45a:	221b      	addi.n	a2, a2, 1
 45c:	0043a2        	s8i	a10, a3, 0
 45f:	331b      	addi.n	a3, a3, 1
 461:	1225a2        	l32i	a10, a5, 72
 464:	9a98      	l32i.n	a9, a10, 36
 466:	7a88      	l32i.n	a8, a10, 28
 468:	609090        	neg	a9, a9
 46b:	9a99      	s32i.n	a9, a10, 36
 46d:	2e          	.byte 0x2e
 46e:	0f8306        	j	0x427e
 471:	2e          	.byte 0x2e
 472:	248107        	bany	a1, a0, 0x49a
 475:	122222        	l32i	a2, a2, 72
 478:	102232        	l32i	a3, a2, 64
 47b:	f228      	l32i.n	a2, a2, 60
 47d:	c02230        	sub	a2, a2, a3
 480:	2e          	.byte 0x2e
 481:	227006        	j	0x8e45
 484:	1ce8a3        	excw
 487:	3108      	l32i.n	a0, a1, 12
 489:	aa08      	l32i.n	a0, a10, 40
 48b:	00a292        	movi	a9, 0x200
 48e:	122332        	l32i	a3, a3, 72
 491:	106382        	s32i	a8, a3, 64
 494:	e329      	s32i.n	a2, a3, 56
 496:	f399      	s32i.n	a9, a3, 60
 498:	2e          	.byte 0x2e
 499:	813007        	bltu	a0, a0, 0x41e
 49c:	aa08      	l32i.n	a0, a10, 40
 49e:	122882        	l32i	a8, a8, 72
 4a1:	2e          	.byte 0x2e
 4a2:	4f8705        	call0	0x4fd14
 4a5:	2e          	.byte 0x2e
 4a6:	608305        	call0	0x60cd8
 4a9:	aa1331        	l32r	a3, 0xfffeacf8
 4ac:	aa1281        	l32r	a8, 0xfffeacf4
 4af:	aa1191        	l32r	a9, 0xfffeacf4
 4b2:	aa10a1        	l32r	a10, 0xfffeacf4
 4b5:	aa0fb1        	l32r	a11, 0xfffeacf4
 4b8:	aa0ec1        	l32r	a12, 0xfffeacf0
 4bb:	42cc      	bnez.n	a2, 0x4c3
 4bd:	2e          	.byte 0x2e
 4be:	625404        	excw
 4c1:	723912        	excw
 4c4:	5289      	s32i.n	a8, a2, 20
 4c6:	3299      	s32i.n	a9, a2, 12
 4c8:	22a9      	s32i.n	a10, a2, 8
 4ca:	12b9      	s32i.n	a11, a2, 4
 4cc:	2ec9      	s32i.n	a12, a14, 8
 4ce:	7c8505        	call0	0x7cd20
 4d1:	310041        	l32r	a4, 0xfffcc8d4
 4d4:	082e06        	j	0x2590
 4d7:	212484        	excw
 4da:	88aa14        	excw
 4dd:	090c03        	excw
 4e0:	2888      	l32i.n	a8, a8, 8
 4e2:	3299      	s32i.n	a9, a2, 12
 4e4:	0008e0        	excw
 4e7:	9a0b      	addi.n	a9, a10, -1
 4e9:	8288      	l32i.n	a8, a2, 32
 4eb:	2299      	s32i.n	a9, a2, 8
 4ed:	2888      	l32i.n	a8, a8, 8
 4ef:	1a0c      	movi.n	a10, 1
 4f1:	2e          	.byte 0x2e
 4f2:	810a      	add.n	a8, a1, a0
 4f4:	8118      	l32i.n	a1, a1, 32
 4f6:	0c2e06        	j	0x35b2
 4f9:	413884        	excw
 4fc:	143100        	extui	a3, a0, 1, 2
 4ff:	29aa      	add.n	a2, a9, a10
 501:	122603        	excw
 504:	222607        	blt	a6, a0, 0x52a
 507:	980c      	movi.n	a8, 9
 509:	00c613        	excw
 50c:	090c00        	excw
 50f:	1399      	s32i.n	a9, a3, 4
 511:	4399      	s32i.n	a9, a3, 16
 513:	f01d      	excw
 515:	8388      	l32i.n	a8, a3, 32
 517:	8888      	l32i.n	a8, a8, 32
 519:	0008e0        	excw
 51c:	2efa06        	j	0xc108
 51f:	148607        	bany	a6, a0, 0x537
 522:	80a072        	movi	a7, 128
 525:	092c      	movi.n	a9, 32
 527:	084c      	movi.n	a8, 64
 529:	446020        	extui	a6, a2, 0, 5
 52c:	208680        	or	a8, a6, a8
 52f:	209690        	or	a9, a6, a9
 532:	004392        	s8i	a9, a3, 0
 535:	206670        	or	a6, a6, a7
 538:	004482        	s8i	a8, a4, 0
 53b:	2e4562        	s8i	a6, a5, 46
 53e:	005b05        	call0	0xaf0
 541:	006136        	excw
 544:	aa1451        	l32r	a5, 0xfffead94
 547:	0588      	l32i.n	a8, a5, 0
 549:	aa0ca1        	l32r	a10, 0xfffead7c
 54c:	071826        	beqi	a8, 1, 0x557
 54f:	2e          	.byte 0x2e
 550:	218205        	call0	0x21d74
 553:	0020c0        	memw
 556:	060c      	movi.n	a6, 0
 558:	170c      	movi.n	a7, 1
 55a:	15e8      	l32i.n	a14, a5, 4
 55c:	45e9      	s32i.n	a14, a5, 16
 55e:	25a8      	l32i.n	a10, a5, 8
 560:	03bae7        	bgeu	a10, a14, 0x567
 563:	e20c      	movi.n	a2, 14
 565:	f01d      	excw
 567:	aa0681        	l32r	a8, 0xfffead80
 56a:	0ead      	mov.n	a10, a14
 56c:	0888      	l32i.n	a8, a8, 0
 56e:	01bd      	mov.n	a11, a1
 570:	3888      	l32i.n	a8, a8, 12
 572:	1c0c      	movi.n	a12, 1
 574:	0008e0        	excw
 577:	15e8      	l32i.n	a14, a5, 4
 579:	ee1b      	addi.n	a14, a14, 1
 57b:	15e9      	s32i.n	a14, a5, 4
 57d:	0cf716        	beqz	a7, 0x650
 580:	f70b      	addi.n	a15, a7, -1
 582:	0b1f16        	beqz	a15, 0x637
 585:	742726        	beqi	a7, 2, 0x5fd
 588:	463726        	beqi	a7, 3, 0x5d2
 58b:	274726        	beqi	a7, 4, 0x5b6
 58e:	135726        	beqi	a7, 5, 0x5a5
 591:	c96766        	bnei	a7, 6, 0x55e
 594:	0001a2        	l8ui	a10, a1, 0
 597:	180592        	l8ui	a9, a5, 24
 59a:	380c      	movi.n	a8, 3
 59c:	c099a0        	sub	a9, a9, a10
 59f:	837890        	moveqz	a7, a8, a9
 5a2:	ffee06        	j	0x55e
 5a5:	0001d2        	l8ui	a13, a1, 0
 5a8:	1805c2        	l8ui	a12, a5, 24
 5ab:	4b0c      	movi.n	a11, 4
 5ad:	c0ccd0        	sub	a12, a12, a13
 5b0:	837bc0        	moveqz	a7, a11, a12
 5b3:	ffe9c6        	j	0x55e
 5b6:	0001a2        	l8ui	a10, a1, 0
 5b9:	1a05f2        	l8ui	a15, a5, 26
 5bc:	280c      	movi.n	a8, 2
 5be:	c0ffa0        	sub	a15, a15, a10
 5c1:	09df16        	beqz	a15, 0x662
 5c4:	2e          	.byte 0x2e
 5c5:	572d04        	excw
 5c8:	2e          	.byte 0x2e
 5c9:	c62d06        	j	0xffff1e81
 5cc:	042ee2        	l32i	a14, a14, 16
 5cf:	b21c      	movi.n	a2, 27
 5d1:	c21a05        	call0	0xfffc2774
 5d4:	a71805        	call0	0xfffa7758
 5d7:	0d1b      	addi.n	a0, a13, 1
 5d9:	0a1ca7        	beq	a12, a10, 0x5e7
 5dc:	1905d2        	l8ui	a13, a5, 25
 5df:	041da7        	beq	a13, a10, 0x5e7
 5e2:	670c      	movi.n	a7, 6
 5e4:	0002c6        	j	0x5f3
 5e7:	270c      	movi.n	a7, 2
 5e9:	04b637        	bgeu	a6, a3, 0x5f1
 5ec:	e62a      	add.n	a14, a6, a2
 5ee:	004ea2        	s8i	a10, a14, 0
 5f1:	661b      	addi.n	a6, a6, 1
 5f3:	15e8      	l32i.n	a14, a5, 4
 5f5:	2ed806        	j	0xc159
 5f8:	194706        	j	0x6b18
 5fb:	180582        	l8ui	a8, a5, 24
 5fe:	049fa7        	bne	a15, a10, 0x606
 601:	370c      	movi.n	a7, 3
 603:	fffa46        	j	0x5f0
 606:	0d98a7        	bne	a8, a10, 0x617
 609:	568c      	beqz.n	a6, 0x612
 60b:	270c      	movi.n	a7, 2
 60d:	660b      	addi.n	a6, a6, -1
 60f:	fff746        	j	0x5f0
 612:	170c      	movi.n	a7, 1
 614:	fff606        	j	0x5f0
 617:	1a0592        	l8ui	a9, a5, 26
 61a:	0499a7        	bne	a9, a10, 0x622
 61d:	470c      	movi.n	a7, 4
 61f:	fff346        	j	0x5f0
 622:	2e          	.byte 0x2e
 623:	b63c04        	excw
 626:	004ba2        	s8i	a10, a11, 0
 629:	661b      	addi.n	a6, a6, 1
 62b:	2ef006        	j	0xc1ef
 62e:	163a04        	excw
 631:	fbaa      	add.n	a15, a11, a10
 633:	aa15b1        	l32r	a11, 0xfffeae88
 636:	8588      	l32i.n	a8, a5, 32
 638:	cb1b      	addi.n	a12, a11, 1
 63a:	7888      	l32i.n	a8, a8, 28
 63c:	db2b      	addi.n	a13, a11, 2
 63e:	0008e0        	excw
 641:	270c      	movi.n	a7, 2
 643:	ffe9c6        	j	0x5ee
 646:	2e          	.byte 0x2e
 647:	3e8406        	j	0x1005b
 64a:	2e          	.byte 0x2e
 64b:	458505        	call0	0x45e9c
 64e:	ffbfc6        	j	0x551
 651:	220c      	movi.n	a2, 2
 653:	f01d      	excw
 655:	048c      	beqz.n	a4, 0x659
 657:	0469      	s32i.n	a6, a4, 0
 659:	f43367        	bltu	a3, a6, 0x651
 65c:	2e          	.byte 0x2e
 65d:	8a08      	l32i.n	a0, a10, 32
 65f:	004160        	break	1, 6
 662:	aa1b81        	l32r	a8, 0xfffeaed0
 665:	aa1a91        	l32r	a9, 0xfffeaed0
 668:	aa19a1        	l32r	a10, 0xfffeaecc
 66b:	aa18b1        	l32r	a11, 0xfffeaecc
 66e:	aa17c1        	l32r	a12, 0xfffeaecc
 671:	62cc      	bnez.n	a2, 0x67b
 673:	aa1621        	l32r	a2, 0xfffeaecc
 676:	dcc232        	addi	a3, a2, -36
 679:	8329      	s32i.n	a2, a3, 32
 67b:	7289      	s32i.n	a8, a2, 28
 67d:	2e          	.byte 0x2e
 67e:	830a      	add.n	a8, a3, a0
 680:	61          	.byte 0x61