../git/linux-firmware/./ar3k/AthrBT_0x01020201.dfu:     file format binary


Disassembly of section .data:

00000000 <.data>:
       0:	594000        	excw
       3:	530000        	excw
       6:	0099      	s32i.n	a9, a0, 0
       8:	bc28      	l32i.n	a2, a12, 44
       a:	970000        	excw
       d:	bf3a      	add.n	a11, a15, a3
       f:	000463        	excw
	...
      1e:	000000        	ill
      21:	009953        	excw
	...
      2c:	594894        	excw
      2f:	7c9c00        	excw
      32:	0058      	l32i.n	a5, a0, 0
      34:	534c      	movi.n	a3, 69
      36:	0099      	s32i.n	a9, a0, 0
      38:	594890        	excw
      3b:	fc2800        	excw
      3e:	0059      	s32i.n	a5, a0, 0
      40:	586494        	excw
      43:	50d800        	pdtlb	a0, a8
      46:	0059      	s32i.n	a5, a0, 0
      48:	003e00        	excw
      4b:	838800        	moveqz	a8, a8, a0
      4e:	0058      	l32i.n	a5, a0, 0
      50:	580b80        	excw
      53:	9c2000        	excw
      56:	ff          	.byte 0xff
      57:	5e0000        	excw
      5a:	000002        	l8ui	a0, a0, 0
      5d:	ffffc0        	excw
      60:	995360        	excw
      63:	108c00        	and	a8, a12, a0
      66:	0058      	l32i.n	a5, a0, 0
      68:	5378      	l32i.n	a7, a3, 20
      6a:	0099      	s32i.n	a9, a0, 0
      6c:	995400        	excw
      6f:	18d000        	excw
      72:	0058      	l32i.n	a5, a0, 0
      74:	484c      	movi.n	a8, 68
      76:	0059      	s32i.n	a5, a0, 0
      78:	5a98      	l32i.n	a9, a10, 20
      7a:	0058      	l32i.n	a5, a0, 0
      7c:	0738      	l32i.n	a3, a7, 0
      7e:	0058      	l32i.n	a5, a0, 0
      80:	040000        	extui	a0, a0, 0, 1
      83:	201100        	or	a1, a1, a0
      86:	120000        	excw
      89:	000020        	excw
      8c:	002010        	rsync
      8f:	17d000        	excw
      92:	0058      	l32i.n	a5, a0, 0
      94:	254b      	addi.n	a2, a5, 4
      96:	0058      	l32i.n	a5, a0, 0
      98:	009c40        	excw
      9b:	50e000        	wdtlb	a0, a0
      9e:	0059      	s32i.n	a5, a0, 0
      a0:	00fff7        	bbsi	a15, 31, 0xa4
      a3:	881000        	excw
      a6:	0058      	l32i.n	a5, a0, 0
      a8:	586024        	excw
      ab:	195000        	excw
      ae:	0058      	l32i.n	a5, a0, 0
      b0:	581114        	excw
      b3:	feff00        	excw
      b6:	980000        	excw
      b9:	005854        	excw
      bc:	581cd0        	excw
      bf:	ffff00        	excw
      c2:	ff          	.byte 0xff
      c3:	535007        	bbc	a0, a0, 0x11a
      c6:	0058      	l32i.n	a5, a0, 0
      c8:	581e50        	excw
      cb:	fffe00        	excw
      ce:	000000        	ill
      d1:	be          	.byte 0xbe
      d2:	540002        	l8ui	a0, a0, 84
      d5:	5948      	l32i.n	a4, a9, 20
      d7:	0fff00        	excw
      da:	810000        	src	a0, a0, a0
      dd:	00fc      	bnez.n	a0, 0x111
      df:	201e00        	or	a1, a14, a0
      e2:	500000        	excw
      e5:	581c      	movi.n	a8, 21
      e7:	1c5400        	excw
      ea:	0058      	l32i.n	a5, a0, 0
      ec:	5819a4        	excw
      ef:	9e0000        	excw
      f2:	ff0002        	l8ui	a0, a0, 255
      f5:	7f          	.byte 0x7f
      f6:	380000        	excw
      f9:	005806        	j	0x25d
      fc:	5d68      	l32i.n	a6, a13, 20
      fe:	0099      	s32i.n	a9, a0, 0
     100:	995d20        	excw
     103:	5bb000        	excw
     106:	0099      	s32i.n	a9, a0, 0
     108:	995aa4        	excw
     10b:	5a5000        	excw
     10e:	0099      	s32i.n	a9, a0, 0
     110:	995884        	excw
     113:	570000        	excw
     116:	0099      	s32i.n	a9, a0, 0
     118:	995804        	excw
     11b:	58c800        	excw
     11e:	0099      	s32i.n	a9, a0, 0
     120:	995990        	excw
     123:	551800        	extui	a1, a0, 24, 6
     126:	0099      	s32i.n	a9, a0, 0
     128:	548c      	beqz.n	a4, 0x131
     12a:	0099      	s32i.n	a9, a0, 0
     12c:	996594        	excw
     12f:	5e6000        	excw
     132:	0099      	s32i.n	a9, a0, 0
     134:	5808a0        	excw
     137:	636400        	excw
     13a:	0099      	s32i.n	a9, a0, 0
     13c:	9960c4        	excw
     13f:	63d800        	excw
     142:	0099      	s32i.n	a9, a0, 0
     144:	9963c0        	excw
     147:	69f400        	excw
     14a:	0099      	s32i.n	a9, a0, 0
     14c:	995f70        	excw
     14f:	63f000        	excw
     152:	0099      	s32i.n	a9, a0, 0
     154:	6448      	l32i.n	a4, a4, 24
     156:	0099      	s32i.n	a9, a0, 0
     158:	6678      	l32i.n	a7, a6, 24
     15a:	0099      	s32i.n	a9, a0, 0
     15c:	66dc      	bnez.n	a6, 0x176
     15e:	0099      	s32i.n	a9, a0, 0
     160:	996824        	excw
     163:	69ac00        	excw
     166:	0099      	s32i.n	a9, a0, 0
     168:	8ecc      	bnez.n	a14, 0x174
     16a:	0058      	l32i.n	a5, a0, 0
     16c:	951c84        	excw
     16f:	8d0800        	excw
     172:	0058      	l32i.n	a5, a0, 0
     174:	0e18      	l32i.n	a1, a14, 0
     176:	0058      	l32i.n	a5, a0, 0
     178:	996b04        	excw
     17b:	23d800        	excw
     17e:	0058      	l32i.n	a5, a0, 0
     180:	004000        	break	0, 0
     183:	484c00        	excw
     186:	0059      	s32i.n	a5, a0, 0
     188:	254a      	add.n	a2, a5, a4
     18a:	0058      	l32i.n	a5, a0, 0
     18c:	5846d0        	excw
     18f:	a51000        	extui	a1, a0, 16, 11
     192:	0058      	l32i.n	a5, a0, 0
     194:	01fe00        	slli	a15, a14, 32
     197:	569800        	excw
     19a:	0058      	l32i.n	a5, a0, 0
     19c:	020200        	excw
     19f:	e0ff00        	subx4	a15, a15, a0
     1a2:	ff          	.byte 0xff
     1a3:	ff          	.byte 0xff
     1a4:	001000        	excw
     1a7:	131800        	excw
     1aa:	0058      	l32i.n	a5, a0, 0
     1ac:	5823d0        	excw
     1af:	256400        	extui	a6, a0, 20, 3
     1b2:	0058      	l32i.n	a5, a0, 0
     1b4:	ff          	.byte 0xff
     1b5:	ff          	.byte 0xff
     1b6:	ff          	.byte 0xff
     1b7:	22d003        	excw
     1ba:	0058      	l32i.n	a5, a0, 0
     1bc:	582701        	l32r	a0, 0xfffd6258
     1bf:	255700        	extui	a5, a0, 23, 3
     1c2:	0058      	l32i.n	a5, a0, 0
     1c4:	582750        	excw
     1c7:	26ac00        	excw
     1ca:	0058      	l32i.n	a5, a0, 0
     1cc:	26da      	add.n	a2, a6, a13
     1ce:	0058      	l32i.n	a5, a0, 0
     1d0:	582594        	excw
     1d3:	26dc00        	excw
     1d6:	0058      	l32i.n	a5, a0, 0
     1d8:	595104        	excw
     1db:	24d000        	extui	a13, a0, 0, 3
     1de:	0058      	l32i.n	a5, a0, 0
     1e0:	000000        	ill
     1e3:	25e410        	extui	a14, a1, 20, 3
     1e6:	0058      	l32i.n	a5, a0, 0
     1e8:	254c      	movi.n	a5, 66
     1ea:	0058      	l32i.n	a5, a0, 0
     1ec:	584d50        	excw
     1ef:	1ed000        	excw
     1f2:	0058      	l32i.n	a5, a0, 0
     1f4:	582561        	l32r	a6, 0xfffd6288
     1f7:	08f800        	excw
     1fa:	280000        	excw
     1fd:	7e          	.byte 0x7e
     1fe:	0058      	l32i.n	a5, a0, 0
     200:	fe          	.byte 0xfe
     201:	581d      	excw
     203:	52d000        	excw
     206:	0058      	l32i.n	a5, a0, 0
     208:	180e00        	excw
     20b:	4a5000        	excw
     20e:	0058      	l32i.n	a5, a0, 0
     210:	584dd0        	excw
     213:	1d5000        	excw
     216:	0058      	l32i.n	a5, a0, 0
     218:	582550        	excw
     21b:	255800        	extui	a5, a0, 24, 3
     21e:	0058      	l32i.n	a5, a0, 0
     220:	1e2b      	addi.n	a1, a14, 2
     222:	0058      	l32i.n	a5, a0, 0
     224:	5826e5        	excw
     227:	26e400        	excw
     22a:	0058      	l32i.n	a5, a0, 0
     22c:	584ad0        	excw
     22f:	49d000        	excw
     232:	0058      	l32i.n	a5, a0, 0
     234:	586dd0        	excw
     237:	8a7800        	excw
     23a:	0058      	l32i.n	a5, a0, 0
     23c:	5826c2        	l32i	a12, a6, 0x160
     23f:	256a00        	extui	a6, a0, 26, 3
     242:	0058      	l32i.n	a5, a0, 0
     244:	582570        	excw
     247:	256000        	extui	a6, a0, 16, 3
     24a:	0058      	l32i.n	a5, a0, 0
     24c:	271c      	movi.n	a7, 18
     24e:	0058      	l32i.n	a5, a0, 0
     250:	581dd0        	excw
     253:	5d2000        	excw
     256:	0058      	l32i.n	a5, a0, 0
     258:	5d1c      	movi.n	a13, 21
     25a:	0058      	l32i.n	a5, a0, 0
     25c:	585d24        	excw
     25f:	5d1400        	excw
     262:	0058      	l32i.n	a5, a0, 0
     264:	600000        	neg	a0, a0
     267:	5d1800        	excw
     26a:	0058      	l32i.n	a5, a0, 0
     26c:	64b8      	l32i.n	a11, a4, 24
     26e:	0058      	l32i.n	a5, a0, 0
     270:	01be00        	slli	a11, a14, 32
     273:	255d00        	extui	a5, a0, 29, 3
     276:	0058      	l32i.n	a5, a0, 0
     278:	595080        	excw
     27b:	a49000        	extui	a9, a0, 0, 11
     27e:	0058      	l32i.n	a5, a0, 0
     280:	001f40        	excw
     283:	66b800        	excw
     286:	0058      	l32i.n	a5, a0, 0
     288:	be          	.byte 0xbe
     289:	005826        	beqi	a8, 5, 0x28d
     28c:	594770        	excw
     28f:	77d000        	excw
     292:	0058      	l32i.n	a5, a0, 0
     294:	8af8      	l32i.n	a15, a10, 32
     296:	0058      	l32i.n	a5, a0, 0
     298:	000000        	ill
     29b:	000040        	excw
     29e:	008000        	excw
     2a1:	0ffc00        	excw
     2a4:	3f          	.byte 0x3f
     2a5:	ffffc0        	excw
     2a8:	003ff0        	excw
     2ab:	800000        	add	a0, a0, a0
     2ae:	000003        	excw
     2b1:	001c00        	excw
     2b4:	ffc000        	excw
     2b7:	1f          	.byte 0x1f
     2b8:	000800        	excw
     2bb:	000000        	ill
     2be:	000080        	ret
     2c1:	ffff80        	excw
     2c4:	03c000        	rsr.depc	a0
     2c7:	300000        	xor	a0, a0, a0
     2ca:	300005        	call0	0x302cc
     2cd:	005812        	s16i	a1, a8, 0
     2d0:	200000        	or	a0, a0, a0
     2d3:	000000        	ill
     2d6:	000040        	excw
     2d9:	200000        	or	a0, a0, a0
     2dc:	fe          	.byte 0xfe
     2dd:	ff          	.byte 0xff
     2de:	ff          	.byte 0xff
     2df:	000007        	bnone	a0, a0, 0x2e3
     2e2:	001fe0        	excw
     2e5:	600000        	neg	a0, a0
     2e8:	ff          	.byte 0xff
     2e9:	ff          	.byte 0xff
     2ea:	00f003        	excw
     2ed:	fffc      	bnez.n	a15, 0x330
     2ef:	000003        	excw
     2f2:	0f          	.byte 0xf
     2f3:	000000        	ill
     2f6:	000010        	excw
     2f9:	0000c0        	callx0	a0
     2fc:	003000        	rfe
     2ff:	000000        	ill
     302:	e01e00        	subx4	a1, a14, a0
     305:	584a      	add.n	a5, a8, a4
     307:	200000        	or	a0, a0, a0
     30a:	300000        	xor	a0, a0, a0
     30d:	5849      	s32i.n	a4, a8, 20
     30f:	660000        	excw
     312:	780002        	l8ui	a0, a0, 120
     315:	588c      	beqz.n	a8, 0x31e
     317:	000000        	ill
     31a:	ff          	.byte 0xff
     31b:	1f          	.byte 0x1f
     31c:	00fc00        	excw
     31f:	8978e0        	excw
     322:	0058      	l32i.n	a5, a0, 0
     324:	8a8d      	excw
     326:	0058      	l32i.n	a5, a0, 0
     328:	51c8      	l32i.n	a12, a1, 20
     32a:	0059      	s32i.n	a5, a0, 0
     32c:	5848d0        	excw
     32f:	ffff00        	excw
     332:	180000        	excw
     335:	000015        	excw
     338:	5851d0        	excw
     33b:	ffc000        	excw
     33e:	3f          	.byte 0x3f
     33f:	fff800        	excw
     342:	0b0000        	excw
     345:	200000        	or	a0, a0, a0
     348:	002bf2        	l32i	a15, a11, 0
     34b:	4ab000        	excw
     34e:	0058      	l32i.n	a5, a0, 0
     350:	594790        	excw
     353:	47c000        	excw
     356:	0059      	s32i.n	a5, a0, 0
     358:	581f27        	beq	a15, a2, 0x3b4
     35b:	555500        	extui	a5, a0, 21, 6
     35e:	a75555        	excw
     361:	1e          	.byte 0x1e
     362:	0058      	l32i.n	a5, a0, 0
     364:	581f50        	excw
     367:	1fd200        	excw
     36a:	0058      	l32i.n	a5, a0, 0
     36c:	581fa1        	l32r	a10, 0xfffd63e8
     36f:	202100        	or	a2, a1, a0
     372:	0058      	l32i.n	a5, a0, 0
     374:	5825e2        	l32i	a14, a5, 0x160
     377:	898600        	excw
     37a:	0058      	l32i.n	a5, a0, 0
     37c:	582050        	excw
     37f:	0a6000        	excw
     382:	0058      	l32i.n	a5, a0, 0
     384:	581fd0        	excw
     387:	255900        	extui	a5, a0, 25, 3
     38a:	0058      	l32i.n	a5, a0, 0
     38c:	1db8      	l32i.n	a11, a13, 4
     38e:	0058      	l32i.n	a5, a0, 0
     390:	582690        	excw
     393:	7e9000        	excw
     396:	0058      	l32i.n	a5, a0, 0
     398:	00bb80        	excw
     39b:	3e8000        	excw
     39e:	000000        	ill
     3a1:	007d      	mov.n	a7, a0
     3a3:	ac4400        	excw
     3a6:	600000        	neg	a0, a0
     3a9:	00ea      	add.n	a0, a0, a14
     3ab:	271000        	excw
     3ae:	000000        	ill
     3b1:	005950        	excw
     3b4:	513c      	movi.n	a1, 53
     3b6:	0059      	s32i.n	a5, a0, 0
     3b8:	000960        	excw
     3bb:	26c300        	excw
     3be:	0058      	l32i.n	a5, a0, 0
     3c0:	08fa      	add.n	a0, a8, a15
     3c2:	000000        	ill
     3c5:	a00000        	addx4	a0, a0, a0
     3c8:	010000        	slli	a0, a0, 32
     3cb:	000000        	ill
     3ce:	d00002        	l8ui	a0, a0, 208
     3d1:	005826        	beqi	a8, 5, 0x3d5
     3d4:	000c80        	ret
     3d7:	99ec00        	excw
     3da:	0099      	s32i.n	a9, a0, 0
     3dc:	9998a4        	excw
     3df:	96a000        	excw
     3e2:	0099      	s32i.n	a9, a0, 0
     3e4:	9808      	l32i.n	a0, a8, 36
     3e6:	0099      	s32i.n	a9, a0, 0
     3e8:	99a124        	excw
     3eb:	a10000        	sll	a0, a0
     3ee:	0099      	s32i.n	a9, a0, 0
     3f0:	9fac      	beqz.n	a15, 0x41d
     3f2:	0099      	s32i.n	a9, a0, 0
     3f4:	a14c      	movi.n	a1, 74
     3f6:	0099      	s32i.n	a9, a0, 0
     3f8:	99a884        	excw
     3fb:	a7f000        	excw
     3fe:	0099      	s32i.n	a9, a0, 0
     400:	99a7d4        	excw
     403:	a09c00        	addx4	a9, a12, a0
     406:	0099      	s32i.n	a9, a0, 0
     408:	999130        	excw
     40b:	948c00        	extui	a8, a0, 12, 10
     40e:	0099      	s32i.n	a9, a0, 0
     410:	9986e0        	excw
     413:	73e400        	excw
     416:	0099      	s32i.n	a9, a0, 0
     418:	996c80        	excw
     41b:	864800        	excw
     41e:	0099      	s32i.n	a9, a0, 0
     420:	8edc      	bnez.n	a14, 0x43c
     422:	0099      	s32i.n	a9, a0, 0
     424:	997c90        	excw
     427:	6d1400        	excw
     42a:	0099      	s32i.n	a9, a0, 0
     42c:	997cb0        	excw
     42f:	09a000        	excw
     432:	0058      	l32i.n	a5, a0, 0
     434:	9985c0        	excw
     437:	7d1c00        	excw
     43a:	0099      	s32i.n	a9, a0, 0
     43c:	90ec      	bnez.n	a0, 0x469
     43e:	0099      	s32i.n	a9, a0, 0
     440:	8f0c      	movi.n	a15, 8
     442:	0099      	s32i.n	a9, a0, 0
     444:	997cc4        	excw
     447:	9cf400        	excw
     44a:	0099      	s32i.n	a9, a0, 0
     44c:	999c94        	excw
     44f:	a91400        	excw
     452:	0099      	s32i.n	a9, a0, 0
     454:	99abb4        	excw
     457:	acd000        	excw
     45a:	0099      	s32i.n	a9, a0, 0
     45c:	595020        	excw
     45f:	000000        	ill
     462:	300100        	xor	a0, a1, a0
     465:	000075        	excw
     468:	5951a4        	excw
     46b:	6ed000        	excw
     46e:	0058      	l32i.n	a5, a0, 0
     470:	ff          	.byte 0xff
     471:	ff          	.byte 0xff
     472:	fe          	.byte 0xfe
     473:	ff          	.byte 0xff
     474:	000000        	ill
     477:	6ab804        	excw
     47a:	0058      	l32i.n	a5, a0, 0
     47c:	00f000        	excw
     47f:	6e5000        	excw
     482:	0058      	l32i.n	a5, a0, 0
     484:	000100        	excw
     487:	5c08      	l32i.n	a0, a12, 20
     489:	581c      	movi.n	a8, 21
     48b:	ffff00        	excw
     48e:	fffd      	excw
     490:	0f          	.byte 0xf
     491:	000027        	bnone	a0, a2, 0x495
     494:	ff          	.byte 0xff
     495:	ff          	.byte 0xff
     496:	ff          	.byte 0xff
     497:	fe          	.byte 0xfe
     498:	ff          	.byte 0xff
     499:	ff          	.byte 0xff
     49a:	ef          	.byte 0xef
     49b:	ff          	.byte 0xff
     49c:	594800        	excw
     49f:	f00100        	subx8	a0, a1, a0
     4a2:	ac0000        	excw
     4a5:	6f          	.byte 0x6f
     4a6:	0058      	l32i.n	a5, a0, 0
     4a8:	484c      	movi.n	a8, 68
     4aa:	0059      	s32i.n	a5, a0, 0
     4ac:	ff          	.byte 0xff
     4ad:	ff          	.byte 0xff
     4ae:	ff          	.byte 0xff
     4af:	24fd      	excw
     4b1:	587b      	addi.n	a5, a8, 7
     4b3:	77ac00        	excw
     4b6:	0058      	l32i.n	a5, a0, 0
     4b8:	5875d0        	excw
     4bb:	ffff00        	excw
     4be:	00fff3        	excw
     4c1:	000080        	ret
     4c4:	df          	.byte 0xdf
     4c5:	ff          	.byte 0xff
     4c6:	ff0000        	excw
     4c9:	ff          	.byte 0xff
     4ca:	fffc      	bnez.n	a15, 0x50d
     4cc:	ff          	.byte 0xff
     4cd:	fffff7        	bbsi	a15, 31, 0x4d0
     4d0:	ff          	.byte 0xff
     4d1:	ff          	.byte 0xff
     4d2:	ff          	.byte 0xff
     4d3:	bf          	.byte 0xbf
     4d4:	79ba      	add.n	a7, a9, a11
     4d6:	0058      	l32i.n	a5, a0, 0
     4d8:	595010        	excw
     4db:	c29400        	excw
     4de:	0099      	s32i.n	a9, a0, 0
     4e0:	594884        	excw
     4e3:	505000        	pitlb	a0, a0
     4e6:	0059      	s32i.n	a5, a0, 0
     4e8:	003306        	j	0x5b8
     4eb:	6fb400        	excw
     4ee:	0058      	l32i.n	a5, a0, 0
     4f0:	595070        	excw
     4f3:	fffb00        	excw
     4f6:	af0000        	excw
     4f9:	6f          	.byte 0x6f
     4fa:	0058      	l32i.n	a5, a0, 0
     4fc:	595204        	excw
     4ff:	77c000        	excw
     502:	0058      	l32i.n	a5, a0, 0
     504:	587082        	excw
     507:	ce9800        	excw
     50a:	0099      	s32i.n	a9, a0, 0
     50c:	702c      	movi.n	a0, 39
     50e:	0058      	l32i.n	a5, a0, 0
     510:	5878b6        	bltui	a8, 7, 0x56c
     513:	6e5900        	excw
     516:	0058      	l32i.n	a5, a0, 0
     518:	1eb000        	excw
     51b:	6e5404        	excw
     51e:	0058      	l32i.n	a5, a0, 0
     520:	74ec      	bnez.n	a4, 0x54b
     522:	0058      	l32i.n	a5, a0, 0
     524:	586cd0        	excw
     527:	700000        	excw
     52a:	0058      	l32i.n	a5, a0, 0
     52c:	594810        	excw
     52f:	482000        	excw
     532:	0059      	s32i.n	a5, a0, 0
     534:	594830        	excw
     537:	484000        	excw
     53a:	0059      	s32i.n	a5, a0, 0
     53c:	587014        	excw
     53f:	6f8a00        	excw
     542:	0058      	l32i.n	a5, a0, 0
     544:	ff          	.byte 0xff
     545:	ff          	.byte 0xff
     546:	ff          	.byte 0xff
     547:	ef          	.byte 0xef
     548:	586fc0        	excw
     54b:	6fb800        	excw
     54e:	0058      	l32i.n	a5, a0, 0
     550:	582673        	excw
     553:	77ff00        	excw
     556:	0058      	l32i.n	a5, a0, 0
     558:	ff          	.byte 0xff
     559:	ff          	.byte 0xff
     55a:	ff          	.byte 0xff
     55b:	df          	.byte 0xdf
     55c:	fffd      	excw
     55e:	b80000        	excw
     561:	005865        	excw
     564:	99bd00        	excw
     567:	c31000        	excw
     56a:	0099      	s32i.n	a9, a0, 0
     56c:	d76c      	movi.n	a7, -19
     56e:	0099      	s32i.n	a9, a0, 0
     570:	99cf74        	excw
     573:	d9a400        	excw
     576:	0099      	s32i.n	a9, a0, 0
     578:	bbfc      	bnez.n	a11, 0x5b7
     57a:	0099      	s32i.n	a9, a0, 0
     57c:	99dad0        	excw
     57f:	b9bc00        	excw
     582:	0099      	s32i.n	a9, a0, 0
     584:	d6ec      	bnez.n	a6, 0x5b5
     586:	0099      	s32i.n	a9, a0, 0
     588:	99bdd0        	excw
     58b:	bd4400        	excw
     58e:	0099      	s32i.n	a9, a0, 0
     590:	99c544        	excw
     593:	c60c00        	excw
     596:	0099      	s32i.n	a9, a0, 0
     598:	dd6c      	movi.n	a13, -19
     59a:	0099      	s32i.n	a9, a0, 0
     59c:	99ae20        	excw
     59f:	b0c800        	addx8	a12, a8, a0
     5a2:	0099      	s32i.n	a9, a0, 0
     5a4:	99b0e0        	excw
     5a7:	b76c00        	excw
     5aa:	0099      	s32i.n	a9, a0, 0
     5ac:	99b7b0        	excw
     5af:	b8d000        	excw
     5b2:	0099      	s32i.n	a9, a0, 0
     5b4:	c83c      	movi.n	a8, 60
     5b6:	0099      	s32i.n	a9, a0, 0
     5b8:	99c960        	excw
     5bb:	cd0000        	excw
     5be:	0099      	s32i.n	a9, a0, 0
     5c0:	99cff4        	excw
     5c3:	d79800        	excw
     5c6:	0099      	s32i.n	a9, a0, 0
     5c8:	99da80        	excw
     5cb:	da5400        	excw
     5ce:	0099      	s32i.n	a9, a0, 0
     5d0:	db2c      	movi.n	a11, 45
     5d2:	0099      	s32i.n	a9, a0, 0
     5d4:	99db70        	excw
     5d7:	dc7c00        	excw
     5da:	0099      	s32i.n	a9, a0, 0
     5dc:	99dca4        	excw
     5df:	dd2800        	excw
     5e2:	0099      	s32i.n	a9, a0, 0
     5e4:	99df80        	excw
     5e7:	d74800        	excw
     5ea:	0099      	s32i.n	a9, a0, 0
     5ec:	99cb70        	excw
     5ef:	cecc00        	excw
     5f2:	0099      	s32i.n	a9, a0, 0
     5f4:	99cfa4        	excw
     5f7:	c7c000        	excw
     5fa:	0099      	s32i.n	a9, a0, 0
     5fc:	99bec4        	excw
     5ff:	c08000        	sub	a8, a0, a0
     602:	0099      	s32i.n	a9, a0, 0
     604:	99b850        	excw
     607:	cc8000        	excw
     60a:	0099      	s32i.n	a9, a0, 0
     60c:	99cd90        	excw
     60f:	c52c00        	extui	a2, a0, 28, 13
     612:	0099      	s32i.n	a9, a0, 0
     614:	de4c      	movi.n	a14, 77
     616:	0099      	s32i.n	a9, a0, 0
     618:	5208      	l32i.n	a0, a2, 20
     61a:	0059      	s32i.n	a5, a0, 0
     61c:	86ec      	bnez.n	a6, 0x648
     61e:	0058      	l32i.n	a5, a0, 0
     620:	e148      	l32i.n	a4, a1, 56
     622:	0099      	s32i.n	a9, a0, 0
     624:	013e00        	slli	a3, a14, 32
     627:	520c00        	excw
     62a:	0059      	s32i.n	a5, a0, 0
     62c:	001800        	excw
     62f:	92d000        	excw
     632:	0058      	l32i.n	a5, a0, 0
     634:	e17c      	movi.n	a1, -2
     636:	0099      	s32i.n	a9, a0, 0
     638:	595210        	excw
     63b:	0d1800        	excw
     63e:	0058      	l32i.n	a5, a0, 0
     640:	99e1d0        	excw
     643:	fc5700        	excw
     646:	540000        	extui	a0, a0, 0, 6
     649:	00fc      	bnez.n	a0, 0x67d
     64b:	fc5500        	excw
     64e:	560000        	excw
     651:	00fc      	bnez.n	a0, 0x685
     653:	521400        	excw
     656:	0059      	s32i.n	a5, a0, 0
     658:	001234        	excw
     65b:	5edc00        	excw
     65e:	0058      	l32i.n	a5, a0, 0
     660:	02a8      	l32i.n	a10, a2, 0
     662:	0058      	l32i.n	a5, a0, 0
     664:	6f58      	l32i.n	a5, a15, 24
     666:	0058      	l32i.n	a5, a0, 0
     668:	00fc61        	l32r	a6, 0xfffc0a58
     66b:	fc6200        	excw
     66e:	720000        	excw
     671:	00fc      	bnez.n	a0, 0x6a5
     673:	fc7300        	excw
     676:	910000        	srl	a0, a0
     679:	00fc      	bnez.n	a0, 0x6ad
     67b:	fc9a00        	excw
     67e:	9b0000        	excw
     681:	00fc      	bnez.n	a0, 0x6b5
     683:	fca000        	excw
     686:	0c0000        	excw
     689:	005863        	excw
     68c:	fc0b      	addi.n	a15, a12, -1
     68e:	140000        	extui	a0, a0, 0, 2
     691:	00fc      	bnez.n	a0, 0x6c5
     693:	fc3000        	excw
     696:	650000        	extui	a0, a0, 16, 7
     699:	00fc      	bnez.n	a0, 0x6cd
     69b:	fc3600        	excw
     69e:	4c0000        	excw
     6a1:	5948      	l32i.n	a4, a9, 20
     6a3:	7d3400        	excw
     6a6:	0058      	l32i.n	a5, a0, 0
     6a8:	5ec837        	bnall	a8, a3, 0x70a
     6ab:	9b0ca1        	l32r	a10, 0xfffe72dc
     6ae:	0058      	l32i.n	a5, a0, 0
     6b0:	00fc04        	excw
     6b3:	fc0000        	excw
     6b6:	380000        	excw
     6b9:	587c      	movi.n	a8, -11
     6bb:	50b000        	rdtlb0	a0, a0
     6be:	0059      	s32i.n	a5, a0, 0
     6c0:	5826e7        	blt	a6, a14, 0x71c
     6c3:	5f5c00        	excw
     6c6:	0058      	l32i.n	a5, a0, 0
     6c8:	26e9      	s32i.n	a14, a6, 8
     6ca:	0058      	l32i.n	a5, a0, 0
     6cc:	595084        	excw
     6cf:	e26800        	excw
     6d2:	0099      	s32i.n	a9, a0, 0
     6d4:	640c      	movi.n	a4, 6
     6d6:	0058      	l32i.n	a5, a0, 0
     6d8:	e678      	l32i.n	a7, a6, 56
     6da:	0099      	s32i.n	a9, a0, 0
     6dc:	99e710        	excw
     6df:	e9b000        	excw
     6e2:	0099      	s32i.n	a9, a0, 0
     6e4:	ea08      	l32i.n	a0, a10, 56
     6e6:	0099      	s32i.n	a9, a0, 0
     6e8:	99e824        	excw
     6eb:	e42c00        	extui	a2, a0, 12, 15
     6ee:	0099      	s32i.n	a9, a0, 0
     6f0:	99e900        	excw
     6f3:	e1fc00        	excw
     6f6:	0099      	s32i.n	a9, a0, 0
     6f8:	99e910        	excw
     6fb:	e92c00        	excw
     6fe:	0099      	s32i.n	a9, a0, 0
     700:	ead8      	l32i.n	a13, a10, 56
     702:	0099      	s32i.n	a9, a0, 0
     704:	eb2c      	movi.n	a11, 46
     706:	0099      	s32i.n	a9, a0, 0
     708:	e818      	l32i.n	a1, a8, 56
     70a:	0099      	s32i.n	a9, a0, 0
     70c:	eba8      	l32i.n	a10, a11, 56
     70e:	0099      	s32i.n	a9, a0, 0
     710:	58a590        	excw
     713:	a71000        	excw
     716:	0058      	l32i.n	a5, a0, 0
     718:	484c      	movi.n	a8, 68
     71a:	0059      	s32i.n	a5, a0, 0
     71c:	ff          	.byte 0xff
     71d:	ff          	.byte 0xff
     71e:	3f          	.byte 0x3f
     71f:	000000        	ill
     722:	808400        	add	a8, a4, a0
     725:	ff          	.byte 0xff
     726:	00fff7        	bbsi	a15, 31, 0x72a
     729:	000800        	excw
     72c:	030600        	excw
     72f:	a31000        	movltz	a1, a0, a0
     732:	0058      	l32i.n	a5, a0, 0
     734:	58a610        	excw
     737:	a7d400        	excw
     73a:	0058      	l32i.n	a5, a0, 0
     73c:	58a690        	excw
     73f:	0a0000        	excw
     742:	380003        	excw
     745:	005952        	s16i	a5, a9, 0
     748:	000c03        	excw
     74b:	a7dc00        	excw
     74e:	0058      	l32i.n	a5, a0, 0
     750:	a7da      	add.n	a10, a7, a13
     752:	0058      	l32i.n	a5, a0, 0
     754:	01a8      	l32i.n	a10, a1, 0
     756:	0058      	l32i.n	a5, a0, 0
     758:	99ef10        	excw
     75b:	f19400        	excw
     75e:	0099      	s32i.n	a9, a0, 0
     760:	99f1e4        	excw
     763:	f33400        	excw
     766:	0099      	s32i.n	a9, a0, 0
     768:	99f374        	excw
     76b:	f4e000        	extui	a14, a0, 0, 16
     76e:	0099      	s32i.n	a9, a0, 0
     770:	f598      	l32i.n	a9, a5, 60
     772:	0099      	s32i.n	a9, a0, 0
     774:	99f620        	excw
     777:	f74c00        	excw
     77a:	0099      	s32i.n	a9, a0, 0
     77c:	f81c      	movi.n	a8, 31
     77e:	0099      	s32i.n	a9, a0, 0
     780:	99f830        	excw
	...
     803:	03e800        	rsr.exccause	a0
	...
     816:	000001        	l32r	a0, 0xfffc0818
     819:	000101        	l32r	a0, 0xfffc0820
     81c:	010101        	l32r	a0, 0xfffc0c20
	...
     85f:	534100        	excw
     862:	524553        	excw
     865:	000054        	excw
     868:	4e          	.byte 0x4e
     869:	6f          	.byte 0x6f
     86a:	412074        	excw
     86d:	6c6c      	movi.n	a12, -26
     86f:	6f          	.byte 0x6f
     870:	646577        	bbci	a5, 7, 0x8d8
     873:	0a0d      	mov.n	a0, a10
     875:	000000        	ill
     878:	696d      	excw
     87a:	705f64        	excw
     87d:	007277        	bbci	a2, 23, 0x881
     880:	616d      	excw
     882:	5f78      	l32i.n	a7, a15, 20
     884:	727770        	excw
     887:	696d00        	excw
     88a:	6e          	.byte 0x6e
     88b:	5f          	.byte 0x5f
     88c:	727770        	excw
     88f:	6f4e00        	excw
     892:	4e          	.byte 0x4e
     893:	656d61        	l32r	a6, 0xfffd9e48
     896:	680000        	excw
     899:	676e61        	l32r	a6, 0xfffda654
     89c:	5f          	.byte 0x5f
     89d:	257830        	extui	a7, a3, 24, 3
     8a0:	0078      	l32i.n	a7, a0, 0
     8a2:	000000        	ill
     8a5:	005c00        	excw
     8a8:	50d8      	l32i.n	a13, a0, 20
     8aa:	0059      	s32i.n	a5, a0, 0
     8ac:	5268      	l32i.n	a6, a2, 20
     8ae:	0059      	s32i.n	a5, a0, 0
	...
    1014:	ff          	.byte 0xff
    1015:	ff          	.byte 0xff
    1016:	ff          	.byte 0xff
    1017:	ff          	.byte 0xff
	...
    1024:	ff          	.byte 0xff
    1025:	000000        	ill
    1028:	487c      	movi.n	a8, -12
    102a:	0059      	s32i.n	a5, a0, 0
    102c:	487c      	movi.n	a8, -12
    102e:	0059      	s32i.n	a5, a0, 0
	...
    1074:	594864        	excw
    1077:	486c00        	excw
    107a:	0059      	s32i.n	a5, a0, 0
    107c:	594874        	excw
	...
    1093:	00ff00        	excw
    1096:	ff0000        	excw
    1099:	373723        	excw
    109c:	1e          	.byte 0x1e
    109d:	2d2d      	excw
    109f:	ff          	.byte 0xff
    10a0:	ff          	.byte 0xff
    10a1:	ff          	.byte 0xff
    10a2:	4b4641        	l32r	a4, 0xfffd3dbc
    10a5:	322d32        	l32i	a3, a13, 200
    10a8:	ff0504        	excw
    10ab:	ff          	.byte 0xff
    10ac:	111111        	l32r	a1, 0xfffc54f0
    10af:	111111        	l32r	a1, 0xfffc54f4
    10b2:	190001        	l32r	a0, 0xfffc74b4
	...
    10d5:	000000        	ill
    10d8:	100112        	l8ui	a1, a1, 16
    10db:	02ef01        	l32r	a0, 0xfffc1c98
    10de:	f34001        	l32r	a0, 0xffffdde0
    10e1:	040c      	movi.n	a4, 0
    10e3:	000130        	excw
    10e6:	030201        	l32r	a0, 0xfffc1cf0
    10e9:	000001        	l32r	a0, 0xfffc10ec
	...
    1314:	004136        	excw
    1317:	8406b1        	l32r	a11, 0xfffe2330
    131a:	1ba8      	l32i.n	a10, a11, 4
    131c:	0bb8      	l32i.n	a11, a11, 0
    131e:	12bba7        	bgeu	a11, a10, 0x1334
    1321:	0b9d      	mov.n	a9, a11
    1323:	c0cab0        	sub	a12, a10, a11
    1326:	0a0c      	movi.n	a10, 0
    1328:	cc3b      	addi.n	a12, a12, 3
    132a:	41c2c0        	srli	a12, a12, 2
    132d:	039c76        	excw
    1330:	09a9      	s32i.n	a10, a9, 0
    1332:	994b      	addi.n	a9, a9, 4
    1334:	8407e1        	l32r	a14, 0xfffe2350
    1337:	8408d1        	l32r	a13, 0xfffe2358
    133a:	1a6ed2        	s32i	a13, a14, 104
    133d:	0010a5        	excw
    1340:	08c865        	excw
    1343:	016de5        	excw
    1346:	0182e5        	excw
    1349:	059c25        	excw
    134c:	09b3e5        	excw
    134f:	08e2a5        	excw
    1352:	08e7a5        	excw
    1355:	08ea65        	excw
    1358:	0a5625        	excw
    135b:	0a5e25        	excw
    135e:	f01d      	excw
    1360:	004136        	excw
    1363:	840941        	l32r	a4, 0xfffe2388
    1366:	840a51        	l32r	a5, 0xfffe2390
    1369:	0259      	s32i.n	a5, a2, 0
    136b:	0448      	l32i.n	a4, a4, 0
    136d:	0349      	s32i.n	a4, a3, 0
    136f:	f01d      	excw
    1371:	000000        	ill
    1374:	004136        	excw
    1377:	840ba1        	l32r	a10, 0xfffe23a4
    137a:	840c81        	l32r	a8, 0xfffe23ac
    137d:	aaa092        	movi	a9, 170
    1380:	0888      	l32i.n	a8, a8, 0
    1382:	7a99      	s32i.n	a9, a10, 28
    1384:	0008e0        	excw
    1387:	f01d      	excw
    1389:	000000        	ill
    138c:	004136        	excw
    138f:	068256        	bnez	a2, 0x13fb
    1392:	840e41        	l32r	a4, 0xfffe23cc
    1395:	050c      	movi.n	a5, 0
    1397:	840d21        	l32r	a2, 0xfffe23cc
    139a:	0020c0        	memw
    139d:	956252        	s32i	a5, a2, 0x254
    13a0:	0020c0        	memw
    13a3:	1498      	l32i.n	a9, a4, 4
    13a5:	966252        	s32i	a5, a2, 0x258
    13a8:	a99c      	beqz.n	a9, 0x13c6
    13aa:	59c8      	l32i.n	a12, a9, 20
    13ac:	0988      	l32i.n	a8, a9, 0
    13ae:	0438      	l32i.n	a3, a4, 0
    13b0:	1489      	s32i.n	a8, a4, 4
    13b2:	0939      	s32i.n	a3, a9, 0
    13b4:	1938      	l32i.n	a3, a9, 4
    13b6:	0499      	s32i.n	a9, a4, 0
    13b8:	041c16        	beqz	a12, 0x13fd
    13bb:	0619a2        	l16ui	a10, a9, 12
    13be:	29b8      	l32i.n	a11, a9, 8
    13c0:	000ce0        	excw
    13c3:	0011c6        	j	0x140e
    13c6:	030c      	movi.n	a3, 0
    13c8:	f9ac      	beqz.n	a9, 0x13fb
    13ca:	19c8      	l32i.n	a12, a9, 4
    13cc:	0020c0        	memw
    13cf:	9362c2        	s32i	a12, a2, 0x24c
    13d2:	0020c0        	memw
    13d5:	966252        	s32i	a5, a2, 0x258
    13d8:	4b0c      	movi.n	a11, 4
    13da:	0020c0        	memw
    13dd:	9562b2        	s32i	a11, a2, 0x254
    13e0:	14a8      	l32i.n	a10, a4, 4
    13e2:	1aa8      	l32i.n	a10, a10, 4
    13e4:	0020c0        	memw
    13e7:	9422b2        	l32i	a11, a2, 0x250
    13ea:	1d0c      	movi.n	a13, 1
    13ec:	c0bab0        	sub	a11, a10, a11
    13ef:	021ba6        	blti	a11, 1, 0x13f5
    13f2:	059a37        	bne	a10, a3, 0x13fb
    13f5:	0020c0        	memw
    13f8:	9662d2        	s32i	a13, a2, 0x258
    13fb:	f01d      	excw
    13fd:	0819a2        	l16ui	a10, a9, 16
    1400:	c98b      	addi.n	a12, a9, 8
    1402:	840f81        	l32r	a8, 0xfffe2440
    1405:	0b5c      	movi.n	a11, 80
    1407:	7888      	l32i.n	a8, a8, 28
    1409:	8d0c      	movi.n	a13, 8
    140b:	0008e0        	excw
    140e:	1498      	l32i.n	a9, a4, 4
    1410:	ffed06        	j	0x13c8
    1413:	413600        	srli	a3, a0, 6
    1416:	0c8100        	excw
    1419:	188884        	excw
    141c:	02ad      	mov.n	a10, a2
    141e:	0008e0        	excw
    1421:	8410c1        	l32r	a12, 0xfffe2464
    1424:	8411a1        	l32r	a10, 0xfffe2468
    1427:	0020c0        	memw
    142a:	a06ac2        	s32i	a12, a10, 0x280
    142d:	0020c0        	memw
    1430:	8412b1        	l32r	a11, 0xfffe2478
    1433:	872a92        	l32i	a9, a10, 0x21c
    1436:	1099b0        	and	a9, a9, a11
    1439:	80a7b2        	movi	a11, 0x780
    143c:	2099b0        	or	a9, a9, a11
    143f:	0020c0        	memw
    1442:	876a92        	s32i	a9, a10, 0x21c
    1445:	f01d      	excw
    1447:	413600        	srli	a3, a0, 6
    144a:	162100        	excw
    144d:	13a184        	excw
    1450:	154184        	excw
    1453:	148184        	excw
    1456:	0b3184        	excw
    1459:	0fb184        	excw
    145c:	433884        	excw
    145f:	9849      	s32i.n	a4, a8, 36
    1461:	0b98      	l32i.n	a9, a11, 0
    1463:	840c81        	l32r	a8, 0xfffe2494
    1466:	0ba9      	s32i.n	a10, a11, 0
    1468:	0899      	s32i.n	a9, a8, 0
    146a:	1f2342        	l32i	a4, a3, 124
    146d:	1849      	s32i.n	a4, a8, 4
    146f:	1f6322        	s32i	a2, a3, 124
    1472:	f01d      	excw
    1474:	004136        	excw
    1477:	023d      	mov.n	a3, a2
    1479:	841721        	l32r	a2, 0xfffe24d8
    147c:	0102a2        	l8ui	a10, a2, 1
    147f:	000282        	l8ui	a8, a2, 0
    1482:	0433a7        	bltu	a3, a10, 0x148a
    1485:	88aa      	add.n	a8, a8, a10
    1487:	0a2387        	blt	a3, a8, 0x1495
    148a:	8418a1        	l32r	a10, 0xfffe24ec
    148d:	0b0c      	movi.n	a11, 0
    148f:	b63865        	excw
    1492:	0102a2        	l8ui	a10, a2, 1
    1495:	c023a0        	sub	a2, a3, a10
    1498:	20c222        	addi	a2, a2, 32
    149b:	742020        	extui	a2, a2, 0, 8
    149e:	f01d      	excw
    14a0:	004136        	excw
    14a3:	841741        	l32r	a4, 0xfffe2500
    14a6:	ffa092        	movi	a9, 255
    14a9:	4c0482        	l8ui	a8, a4, 76
    14ac:	600432        	l8ui	a3, a4, 96
    14af:	03e847        	bbsi	a8, 4, 0x14b6
    14b2:	c20c      	movi.n	a2, 12
    14b4:	f01d      	excw
    14b6:	0a9397        	bne	a3, a9, 0x14c4
    14b9:	8418a1        	l32r	a10, 0xfffe251c
    14bc:	0b0c      	movi.n	a11, 0
    14be:	b63565        	excw
    14c1:	600432        	l8ui	a3, a4, 96
    14c4:	03e620        	rsr.ps	a2
    14c7:	2c0c      	movi.n	a12, 2
    14c9:	34b020        	extui	a11, a2, 0, 4
    14cc:	022cb7        	blt	a12, a11, 0x14d2
    14cf:	006220        	rsil	a2, 2
    14d2:	efa0a2        	movi	a10, 239
    14d5:	4c0492        	l8ui	a9, a4, 76
    14d8:	841981        	l32r	a8, 0xfffe253c
    14db:	03bd      	mov.n	a11, a3
    14dd:	322882        	l32i	a8, a8, 200
    14e0:	1099a0        	and	a9, a9, a10
    14e3:	4c4492        	s8i	a9, a4, 76
    14e6:	ba0c      	movi.n	a10, 11
    14e8:	0008e0        	excw
    14eb:	841a41        	l32r	a4, 0xfffe2554
    14ee:	5adc      	bnez.n	a10, 0x1507
    14f0:	342482        	l32i	a8, a4, 208
    14f3:	03ad      	mov.n	a10, a3
    14f5:	0008e0        	excw
    14f8:	03ad      	mov.n	a10, a3
    14fa:	2b0c      	movi.n	a11, 2
    14fc:	152482        	l32i	a8, a4, 84
    14ff:	0c0c      	movi.n	a12, 0
    1501:	0008e0        	excw
    1504:	000386        	j	0x1516
    1507:	152a66        	bnei	a10, 2, 0x1520
    150a:	03ad      	mov.n	a10, a3
    150c:	2b0c      	movi.n	a11, 2
    150e:	152482        	l32i	a8, a4, 84
    1511:	0c0c      	movi.n	a12, 0
    1513:	0008e0        	excw
    1516:	13e620        	wsr.ps	a2
    1519:	002010        	rsync
    151c:	020c      	movi.n	a2, 0
    151e:	f01d      	excw
    1520:	13e620        	wsr.ps	a2
    1523:	002010        	rsync
    1526:	124c      	movi.n	a2, 65
    1528:	f01d      	excw
    152a:	360000        	excw
    152d:	510061        	l32r	a6, 0xfffd5930
    1530:	cd8417        	bany	a4, a1, 0x1501
    1533:	058202        	excw
    1536:	922c      	movi.n	a2, 41
    1538:	074305        	call0	0x896c
    153b:	0268      	l32i.n	a6, a2, 0
    153d:	0e3956        	bnez	a9, 0x1624
    1540:	4c0592        	l8ui	a9, a5, 76
    1543:	5e05a2        	l8ui	a10, a5, 94
    1546:	046907        	bbci	a9, 0, 0x154e
    1549:	aa0b      	addi.n	a10, a10, -1
    154b:	0d5a16        	beqz	a10, 0x1624
    154e:	076947        	bbci	a9, 4, 0x1559
    1551:	6e05b2        	l8ui	a11, a5, 110
    1554:	bb0b      	addi.n	a11, a11, -1
    1556:	0cab16        	beqz	a11, 0x1624
    1559:	841aa1        	l32r	a10, 0xfffe25c4
    155c:	170c      	movi.n	a7, 1
    155e:	841cd1        	l32r	a13, 0xfffe25d0
    1561:	841b61        	l32r	a6, 0xfffe25d0
    1564:	379cd7        	bne	a12, a13, 0x159f
    1567:	0e0c      	movi.n	a14, 0
    1569:	020c      	movi.n	a2, 0
    156b:	05bd      	mov.n	a11, a5
    156d:	9f1c      	movi.n	a15, 25
    156f:	27af76        	excw
    1572:	080c      	movi.n	a8, 0
    1574:	1f0c      	movi.n	a15, 1
    1576:	090c      	movi.n	a9, 0
    1578:	3e2bc2        	l32i	a12, a11, 248
    157b:	3f2bd2        	l32i	a13, a11, 252
    157e:	10cce0        	and	a12, a12, a14
    1581:	10dd60        	and	a13, a13, a6
    1584:	839fd0        	moveqz	a9, a15, a13
    1587:	838fc0        	moveqz	a8, a15, a12
    158a:	080897        	bnone	a8, a9, 0x1596
    158d:	0f9d      	mov.n	a9, a15
    158f:	095956        	bnez	a9, 0x1628
    1592:	720c      	movi.n	a2, 7
    1594:	f01d      	excw
    1596:	bb8b      	addi.n	a11, a11, 8
    1598:	221b      	addi.n	a2, a2, 1
    159a:	090c      	movi.n	a9, 0
    159c:	fffbc6        	j	0x158f
    159f:	0b0c      	movi.n	a11, 0
    15a1:	841d81        	l32r	a8, 0xfffe2618
    15a4:	0b2d      	mov.n	a2, a11
    15a6:	c08c80        	sub	a8, a12, a8
    15a9:	0d8856        	bnez	a8, 0x1685
    15ac:	170c      	movi.n	a7, 1
    15ae:	01ad      	mov.n	a10, a1
    15b0:	8c0c      	movi.n	a12, 8
    15b2:	020c      	movi.n	a2, 0
    15b4:	02bd      	mov.n	a11, a2
    15b6:	0a62e5        	excw
    15b9:	04bd      	mov.n	a11, a4
    15bb:	01ad      	mov.n	a10, a1
    15bd:	6c0c      	movi.n	a12, 6
    15bf:	0a5065        	excw
    15c2:	f47c      	movi.n	a4, -1
    15c4:	eb7c      	movi.n	a11, -2
    15c6:	05ad      	mov.n	a10, a5
    15c8:	0c0c      	movi.n	a12, 0
    15ca:	404e10        	ssai	30
    15cd:	01f8      	l32i.n	a15, a1, 0
    15cf:	1188      	l32i.n	a8, a1, 4
    15d1:	04d030        	extui	a13, a3, 0, 1
    15d4:	11ddf0        	slli	a13, a13, 1
    15d7:	31efd0        	srai	a14, a13, 31
    15da:	8188f0        	src	a8, a8, a15
    15dd:	11ffe0        	slli	a15, a15, 2
    15e0:	20ee80        	or	a14, a14, a8
    15e3:	20ee60        	or	a14, a14, a6
    15e6:	20ddf0        	or	a13, a13, a15
    15e9:	20dd70        	or	a13, a13, a7
    15ec:	9f1c      	movi.n	a15, 25
    15ee:	2faf76        	excw
    15f1:	180c      	movi.n	a8, 1
    15f3:	060c      	movi.n	a6, 0
    15f5:	3f2a32        	l32i	a3, a10, 252
    15f8:	3e2af2        	l32i	a15, a10, 248
    15fb:	103340        	and	a3, a3, a4
    15fe:	109fb0        	and	a9, a15, a11
    1601:	c099d0        	sub	a9, a9, a13
    1604:	c033e0        	sub	a3, a3, a14
    1607:	836830        	moveqz	a6, a8, a3
    160a:	030c      	movi.n	a3, 0
    160c:	833890        	moveqz	a3, a8, a9
    160f:	040367        	bnone	a3, a6, 0x1617
    1612:	190c      	movi.n	a9, 1
    1614:	0025c6        	j	0x16af
    1617:	020f77        	bnone	a15, a7, 0x161d
    161a:	0023c6        	j	0x16ad
    161d:	aa8b      	addi.n	a10, a10, 8
    161f:	cc1b      	addi.n	a12, a12, 1
    1621:	002206        	j	0x16ad
    1624:	c20c      	movi.n	a2, 12
    1626:	f01d      	excw
    1628:	01ad      	mov.n	a10, a1
    162a:	0b0c      	movi.n	a11, 0
    162c:	8c0c      	movi.n	a12, 8
    162e:	0a5b65        	excw
    1631:	04bd      	mov.n	a11, a4
    1633:	01ad      	mov.n	a10, a1
    1635:	6c0c      	movi.n	a12, 6
    1637:	0a48e5        	excw
    163a:	b0b250        	addx8	a11, a2, a5
    163d:	404e10        	ssai	30
    1640:	0198      	l32i.n	a9, a1, 0
    1642:	11c8      	l32i.n	a12, a1, 4
    1644:	048030        	extui	a8, a3, 0, 1
    1647:	1188f0        	slli	a8, a8, 1
    164a:	31af80        	srai	a10, a8, 31
    164d:	81cc90        	src	a12, a12, a9
    1650:	20aac0        	or	a10, a10, a12
    1653:	1199e0        	slli	a9, a9, 2
    1656:	208890        	or	a8, a8, a9
    1659:	20aa60        	or	a10, a10, a6
    165c:	3f6ba2        	s32i	a10, a11, 252
    165f:	208870        	or	a8, a8, a7
    1662:	3e6b82        	s32i	a8, a11, 248
    1665:	1012a6        	blti	a2, 1, 0x1679
    1668:	ec7c      	movi.n	a12, -2
    166a:	3d2ba2        	l32i	a10, a11, 244
    166d:	3c2b92        	l32i	a9, a11, 240
    1670:	3d6ba2        	s32i	a10, a11, 244
    1673:	1099c0        	and	a9, a9, a12
    1676:	3c6b92        	s32i	a9, a11, 240
    1679:	841a81        	l32r	a8, 0xfffe26e4
    167c:	b888      	l32i.n	a8, a8, 44
    167e:	0008e0        	excw
    1681:	020c      	movi.n	a2, 0
    1683:	f01d      	excw
    1685:	841e91        	l32r	a9, 0xfffe2700
    1688:	170c      	movi.n	a7, 1
    168a:	f59c97        	bne	a12, a9, 0x1683
    168d:	020c      	movi.n	a2, 0
    168f:	9c1c      	movi.n	a12, 25
    1691:	07ac76        	excw
    1694:	3f65b2        	s32i	a11, a5, 252
    1697:	3e6522        	s32i	a2, a5, 248
    169a:	558b      	addi.n	a5, a5, 8
    169c:	841f91        	l32r	a9, 0xfffe2718
    169f:	ba88      	l32i.n	a8, a10, 44
    16a1:	7f6922        	s32i	a2, a9, 0x1fc
    16a4:	7e6972        	s32i	a7, a9, 0x1f8
    16a7:	0008e0        	excw
    16aa:	fff4c6        	j	0x1681
    16ad:	090c      	movi.n	a9, 0
    16af:	0b0c      	movi.n	a11, 0
    16b1:	29cc      	bnez.n	a9, 0x16b7
    16b3:	221c      	movi.n	a2, 18
    16b5:	f01d      	excw
    16b7:	11e9      	s32i.n	a14, a1, 4
    16b9:	b0ac50        	addx8	a10, a12, a5
    16bc:	3e2af2        	l32i	a15, a10, 248
    16bf:	01d9      	s32i.n	a13, a1, 0
    16c1:	130f77        	bnone	a15, a7, 0x16d8
    16c4:	3f6ab2        	s32i	a11, a10, 252
    16c7:	3e6a22        	s32i	a2, a10, 248
    16ca:	fcec      	bnez.n	a12, 0x16fd
    16cc:	841f81        	l32r	a8, 0xfffe2748
    16cf:	7f6822        	s32i	a2, a8, 0x1fc
    16d2:	7e6872        	s32i	a7, a8, 0x1f8
    16d5:	000646        	j	0x16f2
    16d8:	791c      	movi.n	a9, 23
    16da:	1429c7        	blt	a9, a12, 0x16f2
    16dd:	412ad2        	l32i	a13, a10, 0x104
    16e0:	402ac2        	l32i	a12, a10, 0x100
    16e3:	3f6ad2        	s32i	a13, a10, 252
    16e6:	3e6ac2        	s32i	a12, a10, 248
    16e9:	f60c77        	bnone	a12, a7, 0x16e3
    16ec:	416ab2        	s32i	a11, a10, 0x104
    16ef:	406a22        	s32i	a2, a10, 0x100
    16f2:	841a81        	l32r	a8, 0xfffe275c
    16f5:	b888      	l32i.n	a8, a8, 44
    16f7:	0008e0        	excw
    16fa:	ffe0c6        	j	0x1681
    16fd:	3c2a92        	l32i	a9, a10, 240
    1700:	3d2ab2        	l32i	a11, a10, 244
    1703:	209970        	or	a9, a9, a7
    1706:	20bb20        	or	a11, a11, a2
    1709:	3d6ab2        	s32i	a11, a10, 244
    170c:	3c6a92        	s32i	a9, a10, 240
    170f:	fff7c6        	j	0x16f2
    1712:	360000        	excw
    1715:	0c0061        	l32r	a6, 0xfffc4718
    1718:	c2bb      	addi.n	a12, a2, 11
    171a:	61fda0        	excw
    171d:	841a      	add.n	a8, a4, a1
    171f:	842051        	l32r	a5, 0xfffe27a0
    1722:	841771        	l32r	a7, 0xfffe2780
    1725:	d8a142        	movi	a4, 0x1d8
    1728:	c14240        	mul16u	a4, a2, a4
    172b:	2c27a2        	l32i	a10, a7, 176
    172e:	545a      	add.n	a5, a4, a5
    1730:	800592        	l8ui	a9, a5, 128
    1733:	aa4a      	add.n	a10, a10, a4
    1735:	39cc      	bnez.n	a9, 0x173c
    1737:	01a9      	s32i.n	a10, a1, 0
    1739:	099326        	beqi	a3, 10, 0x1746
    173c:	731966        	bnei	a9, 1, 0x17b3
    173f:	01a9      	s32i.n	a10, a1, 0
    1741:	0113b7        	beq	a3, a11, 0x1746
    1744:	f01d      	excw
    1746:	840781        	l32r	a8, 0xfffe2764
    1749:	da0c      	movi.n	a10, 13
    174b:	7888      	l32i.n	a8, a8, 28
    174d:	5b0c      	movi.n	a11, 5
    174f:	0008e0        	excw
    1752:	0abd      	mov.n	a11, a10
    1754:	feca16        	beqz	a10, 0x1744
    1757:	01c8      	l32i.n	a12, a1, 0
    1759:	040c92        	l8ui	a9, a12, 4
    175c:	0a1c      	movi.n	a10, 16
    175e:	2099a0        	or	a9, a9, a10
    1761:	044c92        	s8i	a9, a12, 4
    1764:	0a0b82        	l8ui	a8, a11, 10
    1767:	cfa0a2        	movi	a10, 207
    176a:	88ba      	add.n	a8, a8, a11
    176c:	0d08f2        	l8ui	a15, a8, 13
    176f:	093c      	movi.n	a9, 48
    1771:	10ffa0        	and	a15, a15, a10
    1774:	20ff90        	or	a15, a15, a9
    1777:	0d48f2        	s8i	a15, a8, 13
    177a:	0a0be2        	l8ui	a14, a11, 10
    177d:	bd0c      	movi.n	a13, 11
    177f:	eeba      	add.n	a14, a14, a11
    1781:	104ed2        	s8i	a13, a14, 16
    1784:	040c92        	l8ui	a9, a12, 4
    1787:	fea0a2        	movi	a10, 254
    178a:	1099a0        	and	a9, a9, a10
    178d:	044c92        	s8i	a9, a12, 4
    1790:	8005a2        	l8ui	a10, a5, 128
    1793:	0a1a66        	bnei	a10, 1, 0x17a1
    1796:	01d8      	l32i.n	a13, a1, 0
    1798:	fda0c2        	movi	a12, 253
    179b:	10c9c0        	and	a12, a9, a12
    179e:	044dc2        	s8i	a12, a13, 4
    17a1:	02ad      	mov.n	a10, a2
    17a3:	522682        	l32i	a8, a6, 0x148
    17a6:	8421c1        	l32r	a12, 0xfffe282c
    17a9:	0008e0        	excw
    17ac:	01a8      	l32i.n	a10, a1, 0
    17ae:	bb0c      	movi.n	a11, 11
    17b0:	fda0c2        	movi	a12, 253
    17b3:	8d93b7        	bne	a3, a11, 0x1744
    17b6:	040a92        	l8ui	a9, a10, 4
    17b9:	1099c0        	and	a9, a9, a12
    17bc:	044a92        	s8i	a9, a10, 4
    17bf:	07b926        	beqi	a9, 16, 0x17ca
    17c2:	8418a1        	l32r	a10, 0xfffe2824
    17c5:	0b0c      	movi.n	a11, 0
    17c7:	b604e5        	excw
    17ca:	2c27a2        	l32i	a10, a7, 176
    17cd:	aa4a      	add.n	a10, a10, a4
    17cf:	031aa2        	l16ui	a10, a10, 6
    17d2:	1f6a37        	bbci	a10, 3, 0x17f5
    17d5:	902682        	l32i	a8, a6, 0x240
    17d8:	02ad      	mov.n	a10, a2
    17da:	0008e0        	excw
    17dd:	2c2792        	l32i	a9, a7, 176
    17e0:	994a      	add.n	a9, a9, a4
    17e2:	031992        	l16ui	a9, a9, 6
    17e5:	049390        	extui	a9, a9, 3, 1
    17e8:	f58916        	beqz	a9, 0x1744
    17eb:	8418a1        	l32r	a10, 0xfffe284c
    17ee:	0b0c      	movi.n	a11, 0
    17f0:	b60225        	excw
    17f3:	f01d      	excw
    17f5:	8005a2        	l8ui	a10, a5, 128
    17f8:	aa0b      	addi.n	a10, a10, -1
    17fa:	f46a56        	bnez	a10, 0x1744
    17fd:	942682        	l32i	a8, a6, 0x250
    1800:	02ad      	mov.n	a10, a2
    1802:	0008e0        	excw
    1805:	bfca92        	addi	a9, a10, -65
    1808:	f38916        	beqz	a9, 0x1744
    180b:	f35a16        	beqz	a10, 0x1744
    180e:	8418a1        	l32r	a10, 0xfffe2870
    1811:	0b0c      	movi.n	a11, 0
    1813:	b60025        	excw
    1816:	f01d      	excw
    1818:	004136        	excw
    181b:	d8a142        	movi	a4, 0x1d8
    181e:	841751        	l32r	a5, 0xfffe287c
    1821:	c14240        	mul16u	a4, a2, a4
    1824:	2c25a2        	l32i	a10, a5, 176
    1827:	aa4a      	add.n	a10, a10, a4
    1829:	040aa2        	l8ui	a10, a10, 4
    182c:	da9c      	beqz.n	a10, 0x184d
    182e:	1bba26        	beqi	a10, 16, 0x184d
    1831:	183a26        	beqi	a10, 3, 0x184d
    1834:	157a26        	beqi	a10, 7, 0x184d
    1837:	842091        	l32r	a9, 0xfffe28b8
    183a:	949a      	add.n	a9, a4, a9
    183c:	800992        	l8ui	a9, a9, 128
    183f:	1a1926        	beqi	a9, 1, 0x185d
    1842:	07aa26        	beqi	a10, 12, 0x184d
    1845:	141926        	beqi	a9, 1, 0x185d
    1848:	cb1c      	movi.n	a11, 28
    184a:	0f9ab7        	bne	a10, a11, 0x185d
    184d:	842281        	l32r	a8, 0xfffe28d8
    1850:	02ad      	mov.n	a10, a2
    1852:	2888      	l32i.n	a8, a8, 8
    1854:	03bd      	mov.n	a11, a3
    1856:	0008e0        	excw
    1859:	0a2d      	mov.n	a2, a10
    185b:	f01d      	excw
    185d:	841a81        	l32r	a8, 0xfffe28c8
    1860:	542882        	l32i	a8, a8, 0x150
    1863:	02ad      	mov.n	a10, a2
    1865:	0008e0        	excw
    1868:	fa0c      	movi.n	a10, 15
    186a:	0d0c      	movi.n	a13, 0
    186c:	841481        	l32r	a8, 0xfffe28bc
    186f:	2c25b2        	l32i	a11, a5, 176
    1872:	1e0c      	movi.n	a14, 1
    1874:	11c280        	slli	a12, a2, 8
    1877:	20cce0        	or	a12, a12, a14
    187a:	bb4a      	add.n	a11, a11, a4
    187c:	241bb2        	l16ui	a11, a11, 72
    187f:	7888      	l32i.n	a8, a8, 28
    1881:	a0bbb0        	addx4	a11, a11, a11
    1884:	11bbf0        	slli	a11, a11, 1
    1887:	0008e0        	excw
    188a:	2c25f2        	l32i	a15, a5, 176
    188d:	620c      	movi.n	a2, 6
    188f:	ff4a      	add.n	a15, a15, a4
    1891:	365fa2        	s16i	a10, a15, 108
    1894:	f01d      	excw
    1896:	360000        	excw
    1899:	520041        	l32r	a4, 0xfffd609c
    189c:	41d8a1        	l32r	a10, 0xfffd1ffc
    189f:	508417        	bany	a4, a1, 0x18f3
    18a2:	42c152        	addi	a5, a1, 66
    18a5:	5a2c24        	excw
    18a8:	042244        	excw
    18ab:	622704        	excw
    18ae:	332617        	blt	a6, a1, 0x18e5
    18b1:	432622        	l32i	a2, a6, 0x10c
    18b4:	1f          	.byte 0x1f
    18b5:	1c5326        	beqi	a3, 5, 0x18d5
    18b8:	196326        	beqi	a3, 6, 0x18d5
    18bb:	162326        	beqi	a3, 2, 0x18d5
    18be:	d80c      	movi.n	a8, 13
    18c0:	111387        	beq	a3, a8, 0x18d5
    18c3:	020c      	movi.n	a2, 0
    18c5:	f01d      	excw
    18c7:	0a6247        	bbci	a2, 4, 0x18d5
    18ca:	079326        	beqi	a3, 10, 0x18d5
    18cd:	b90c      	movi.n	a9, 11
    18cf:	021397        	beq	a3, a9, 0x18d5
    18d2:	ed2366        	bnei	a3, 2, 0x18c3
    18d5:	120c      	movi.n	a2, 1
    18d7:	f01d      	excw
    18d9:	000000        	ill
    18dc:	004136        	excw
    18df:	841a51        	l32r	a5, 0xfffe2948
    18e2:	02ad      	mov.n	a10, a2
    18e4:	922582        	l32i	a8, a5, 0x248
    18e7:	03bd      	mov.n	a11, a3
    18e9:	0008e0        	excw
    18ec:	4a8c      	beqz.n	a10, 0x18f4
    18ee:	a23c      	movi.n	a2, 58
    18f0:	f01d      	excw
    18f2:	0c0000        	excw
    18f5:	7109      	s32i.n	a0, a1, 28
    18f7:	628417        	bany	a4, a1, 0x195d
    18fa:	60d8a1        	l32r	a10, 0xfffd9c5c
    18fd:	b2c162        	addi	a6, a1, -78
    1900:	0c2c27        	blt	a12, a2, 0x1910
    1903:	6a8c      	beqz.n	a10, 0x190d
    1905:	a2bb      	addi.n	a10, a2, 11
    1907:	3a2b      	addi.n	a3, a10, 2
    1909:	58ac76        	excw
    190c:	400900        	ssr	a9
    190f:	9180a0        	srl	a8, a10
    1912:	348080        	extui	a8, a8, 0, 4
    1915:	04a856        	bnez	a8, 0x1963
    1918:	401900        	ssl	a9
    191b:	a1c300        	sll	a12, a3
    191e:	20cac0        	or	a12, a10, a12
    1921:	3a6bc2        	s32i	a12, a11, 232
    1924:	661326        	beqi	a3, 1, 0x198e
    1927:	3d2326        	beqi	a3, 2, 0x1968
    192a:	4c3326        	beqi	a3, 3, 0x197a
    192d:	264326        	beqi	a3, 4, 0x1957
    1930:	235326        	beqi	a3, 5, 0x1957
    1933:	206366        	bnei	a3, 6, 0x1957
    1936:	04bd      	mov.n	a11, a4
    1938:	2c27a2        	l32i	a10, a7, 176
    193b:	21a1c2        	movi	a12, 0x121
    193e:	aa6a      	add.n	a10, a10, a6
    1940:	aaca      	add.n	a10, a10, a12
    1942:	1c0c      	movi.n	a12, 1
    1944:	0a17e5        	excw
    1947:	2c27c2        	l32i	a12, a7, 176
    194a:	cc6a      	add.n	a12, a12, a6
    194c:	031cb2        	l16ui	a11, a12, 6
    194f:	8d0c      	movi.n	a13, 8
    1951:	20bbd0        	or	a11, a11, a13
    1954:	035cb2        	s16i	a11, a12, 6
    1957:	902582        	l32i	a8, a5, 0x240
    195a:	02ad      	mov.n	a10, a2
    195c:	0008e0        	excw
    195f:	020c      	movi.n	a2, 0
    1961:	f01d      	excw
    1963:	994b      	addi.n	a9, a9, 4
    1965:	ffeec6        	j	0x1924
    1968:	04bd      	mov.n	a11, a4
    196a:	2c27a2        	l32i	a10, a7, 176
    196d:	5c0c      	movi.n	a12, 5
    196f:	aa6a      	add.n	a10, a10, a6
    1971:	01daa2        	addmi	a10, a10, 0x100
    1974:	0a14e5        	excw
    1977:	fff706        	j	0x1957
    197a:	04bd      	mov.n	a11, a4
    197c:	cc1c      	movi.n	a12, 28
    197e:	2c27a2        	l32i	a10, a7, 176
    1981:	05a1d2        	movi	a13, 0x105
    1984:	aa6a      	add.n	a10, a10, a6
    1986:	aada      	add.n	a10, a10, a13
    1988:	0a13a5        	excw
    198b:	fff206        	j	0x1957
    198e:	04bd      	mov.n	a11, a4
    1990:	4c1c      	movi.n	a12, 20
    1992:	2c27a2        	l32i	a10, a7, 176
    1995:	eca0d2        	movi	a13, 236
    1998:	aa6a      	add.n	a10, a10, a6
    199a:	aada      	add.n	a10, a10, a13
    199c:	0a1265        	excw
    199f:	ffed06        	j	0x1957
    19a2:	360000        	excw
    19a5:	320041        	l32r	a4, 0xfffce1a8
    19a8:	41d8a1        	l32r	a10, 0xfffd2108
    19ab:	308417        	bany	a4, a1, 0x19df
    19ae:	c2c132        	addi	a3, a1, -62
    19b1:	3a2c24        	excw
    19b4:	82cc      	bnez.n	a2, 0x19c0
    19b6:	031c      	movi.n	a3, 16
    19b8:	841ad1        	l32r	a13, 0xfffe2a20
    19bb:	2e6837        	bbci	a8, 3, 0x19ed
    19be:	02ad      	mov.n	a10, a2
    19c0:	01dcb2        	addmi	a11, a12, 0x100
    19c3:	4b2d82        	l32i	a8, a13, 0x12c
    19c6:	210bb2        	l8ui	a11, a11, 33
    19c9:	0008e0        	excw
    19cc:	060a56        	bnez	a10, 0x1a30
    19cf:	2c24c2        	l32i	a12, a4, 176
    19d2:	8423f1        	l32r	a15, 0xfffe2a60
    19d5:	cc3a      	add.n	a12, a12, a3
    19d7:	031ce2        	l16ui	a14, a12, 6
    19da:	e60cd2        	l8ui	a13, a12, 230
    19dd:	10eef0        	and	a14, a14, a15
    19e0:	035ce2        	s16i	a14, a12, 6
    19e3:	049d56        	bnez	a13, 0x1a30
    19e6:	6d0c      	movi.n	a13, 6
    19e8:	e64cd2        	s8i	a13, a12, 230
    19eb:	f01d      	excw
    19ed:	e60ce2        	l8ui	a14, a12, 230
    19f0:	3a2c92        	l32i	a9, a12, 232
    19f3:	9efc      	bnez.n	a14, 0x1a30
    19f5:	79bc      	beqz.n	a9, 0x1a30
    19f7:	34e090        	extui	a14, a9, 0, 4
    19fa:	e64ce2        	s8i	a14, a12, 230
    19fd:	2c24c2        	l32i	a12, a4, 176
    1a00:	cc3a      	add.n	a12, a12, a3
    1a02:	e60c92        	l8ui	a9, a12, 230
    1a05:	09ac      	beqz.n	a9, 0x1a29
    1a07:	271926        	beqi	a9, 1, 0x1a32
    1a0a:	2e2926        	beqi	a9, 2, 0x1a3c
    1a0d:	353926        	beqi	a9, 3, 0x1a46
    1a10:	3c4926        	beqi	a9, 4, 0x1a50
    1a13:	435926        	beqi	a9, 5, 0x1a5a
    1a16:	0f6966        	bnei	a9, 6, 0x1a29
    1a19:	031cf2        	l16ui	a15, a12, 6
    1a1c:	106f37        	bbci	a15, 3, 0x1a30
    1a1f:	8418a1        	l32r	a10, 0xfffe2a80
    1a22:	0b0c      	movi.n	a11, 0
    1a24:	b5dee5        	excw
    1a27:	f01d      	excw
    1a29:	0a0c      	movi.n	a10, 0
    1a2b:	1b0c      	movi.n	a11, 1
    1a2d:	b5de65        	excw
    1a30:	f01d      	excw
    1a32:	6d2d82        	l32i	a8, a13, 0x1b4
    1a35:	02ad      	mov.n	a10, a2
    1a37:	0008e0        	excw
    1a3a:	f01d      	excw
    1a3c:	932d82        	l32i	a8, a13, 0x24c
    1a3f:	02ad      	mov.n	a10, a2
    1a41:	0008e0        	excw
    1a44:	f01d      	excw
    1a46:	942d82        	l32i	a8, a13, 0x250
    1a49:	02ad      	mov.n	a10, a2
    1a4b:	0008e0        	excw
    1a4e:	f01d      	excw
    1a50:	952d82        	l32i	a8, a13, 0x254
    1a53:	02ad      	mov.n	a10, a2
    1a55:	0008e0        	excw
    1a58:	f01d      	excw
    1a5a:	962d82        	l32i	a8, a13, 0x258
    1a5d:	02ad      	mov.n	a10, a2
    1a5f:	0008e0        	excw
    1a62:	f01d      	excw
    1a64:	004136        	excw
    1a67:	d8a132        	movi	a3, 0x1d8
    1a6a:	841741        	l32r	a4, 0xfffe2ac8
    1a6d:	c13230        	mul16u	a3, a2, a3
    1a70:	2c24b2        	l32i	a11, a4, 176
    1a73:	bb3a      	add.n	a11, a11, a3
    1a75:	361b82        	l16ui	a8, a11, 108
    1a78:	b8cc      	bnez.n	a8, 0x1a87
    1a7a:	8418a1        	l32r	a10, 0xfffe2adc
    1a7d:	0b0c      	movi.n	a11, 0
    1a7f:	b5d965        	excw
    1a82:	2c24b2        	l32i	a11, a4, 176
    1a85:	bb3a      	add.n	a11, a11, a3
    1a87:	842481        	l32r	a8, 0xfffe2b18
    1a8a:	090c      	movi.n	a9, 0
    1a8c:	4c2882        	l32i	a8, a8, 0x130
    1a8f:	365b92        	s16i	a9, a11, 108
    1a92:	0008e0        	excw
    1a95:	2c24b2        	l32i	a11, a4, 176
    1a98:	dd3c      	movi.n	a13, 61
    1a9a:	bb3a      	add.n	a11, a11, a3
    1a9c:	4a8c      	beqz.n	a10, 0x1aa4
    1a9e:	ad0bc2        	l8ui	a12, a11, 173
    1aa1:	041cd7        	beq	a12, a13, 0x1aa9
    1aa4:	2e2c      	movi.n	a14, 34
    1aa6:	ad4be2        	s8i	a14, a11, 173
    1aa9:	841a81        	l32r	a8, 0xfffe2b14
    1aac:	4d2882        	l32i	a8, a8, 0x134
    1aaf:	02ad      	mov.n	a10, a2
    1ab1:	0008e0        	excw
    1ab4:	f01d      	excw
    1ab6:	360000        	excw
    1ab9:	310061        	l32r	a6, 0xfffcdebc
    1abc:	888407        	bany	a4, a0, 0x1a48
    1abf:	02adf3        	excw
    1ac2:	0008e0        	excw
    1ac5:	4a2a      	add.n	a4, a10, a2
    1ac7:	0a0492        	l8ui	a9, a4, 10
    1aca:	69cc      	bnez.n	a9, 0x1ad4
    1acc:	8418a1        	l32r	a10, 0xfffe2b2c
    1acf:	0b0c      	movi.n	a11, 0
    1ad1:	b5d425        	excw
    1ad4:	d8a1c2        	movi	a12, 0x1d8
    1ad7:	0804b2        	l8ui	a11, a4, 8
    1ada:	841751        	l32r	a5, 0xfffe2b38
    1add:	c1bbc0        	mul16u	a11, a11, a12
    1ae0:	2c2592        	l32i	a9, a5, 176
    1ae3:	99ba      	add.n	a9, a9, a11
    1ae5:	040992        	l8ui	a9, a9, 4
    1ae8:	1d1c      	movi.n	a13, 17
    1aea:	77e937        	bbsi	a9, 3, 0x1b65
    1aed:	10d9d0        	and	a13, a9, a13
    1af0:	71bd26        	beqi	a13, 16, 0x1b65
    1af3:	021252        	l16ui	a5, a2, 4
    1af6:	02ad      	mov.n	a10, a2
    1af8:	9388      	l32i.n	a8, a3, 36
    1afa:	4b0c      	movi.n	a11, 4
    1afc:	0008e0        	excw
    1aff:	0a0232        	l8ui	a3, a2, 10
    1b02:	0804a2        	l8ui	a10, a4, 8
    1b05:	332a      	add.n	a3, a3, a2
    1b07:	33cb      	addi.n	a3, a3, 12
    1b09:	ff96a5        	excw
    1b0c:	0043a2        	s8i	a10, a3, 0
    1b0f:	41a8a0        	srli	a10, a10, 8
    1b12:	0143a2        	s8i	a10, a3, 1
    1b15:	0a0292        	l8ui	a9, a2, 10
    1b18:	418850        	srli	a8, a5, 8
    1b1b:	992a      	add.n	a9, a9, a2
    1b1d:	0e4952        	s8i	a5, a9, 14
    1b20:	0f4982        	s8i	a8, a9, 15
    1b23:	0a0492        	l8ui	a9, a4, 10
    1b26:	cfa0c2        	movi	a12, 207
    1b29:	012926        	beqi	a9, 2, 0x1b2e
    1b2c:	e9cc      	bnez.n	a9, 0x1b3e
    1b2e:	0a02d2        	l8ui	a13, a2, 10
    1b31:	dd2a      	add.n	a13, a13, a2
    1b33:	0d0de2        	l8ui	a14, a13, 13
    1b36:	0b2c      	movi.n	a11, 32
    1b38:	10cec0        	and	a12, a14, a12
    1b3b:	000306        	j	0x1b4b
    1b3e:	0a02d2        	l8ui	a13, a2, 10
    1b41:	dd2a      	add.n	a13, a13, a2
    1b43:	0d0de2        	l8ui	a14, a13, 13
    1b46:	0b1c      	movi.n	a11, 16
    1b48:	10cec0        	and	a12, a14, a12
    1b4b:	20ecb0        	or	a14, a12, a11
    1b4e:	0d4de2        	s8i	a14, a13, 13
    1b51:	0804a2        	l8ui	a10, a4, 8
    1b54:	ff91e5        	excw
    1b57:	842581        	l32r	a8, 0xfffe2bec
    1b5a:	0abd      	mov.n	a11, a10
    1b5c:	7888      	l32i.n	a8, a8, 28
    1b5e:	02ad      	mov.n	a10, a2
    1b60:	0008e0        	excw
    1b63:	f01d      	excw
    1b65:	842481        	l32r	a8, 0xfffe2bf8
    1b68:	4c2882        	l32i	a8, a8, 0x130
    1b6b:	0008e0        	excw
    1b6e:	d63c      	movi.n	a6, 61
    1b70:	841ad1        	l32r	a13, 0xfffe2bd8
    1b73:	2aac      	beqz.n	a10, 0x1b99
    1b75:	6b0c      	movi.n	a11, 6
    1b77:	01cd      	mov.n	a12, a1
    1b79:	004162        	s8i	a6, a1, 0
    1b7c:	8f2d82        	l32i	a8, a13, 0x23c
    1b7f:	0804a2        	l8ui	a10, a4, 8
    1b82:	0008e0        	excw
    1b85:	2c2592        	l32i	a9, a5, 176
    1b88:	0804a2        	l8ui	a10, a4, 8
    1b8b:	d8a1b2        	movi	a11, 0x1d8
    1b8e:	c1aab0        	mul16u	a10, a10, a11
    1b91:	99aa      	add.n	a9, a9, a10
    1b93:	ad4962        	s8i	a6, a9, 173
    1b96:	000586        	j	0x1bb0
    1b99:	2c2592        	l32i	a9, a5, 176
    1b9c:	0804a2        	l8ui	a10, a4, 8
    1b9f:	d8a1b2        	movi	a11, 0x1d8
    1ba2:	c1bab0        	mul16u	a11, a10, a11
    1ba5:	99ba      	add.n	a9, a9, a11
    1ba7:	ad4962        	s8i	a6, a9, 173
    1baa:	4d2d82        	l32i	a8, a13, 0x134
    1bad:	0008e0        	excw
    1bb0:	8388      	l32i.n	a8, a3, 32
    1bb2:	b80592        	l8ui	a9, a5, 184
    1bb5:	8426a1        	l32r	a10, 0xfffe2c50
    1bb8:	991b      	addi.n	a9, a9, 1
    1bba:	384a92        	s8i	a9, a10, 56
    1bbd:	02ad      	mov.n	a10, a2
    1bbf:	0008e0        	excw
    1bc2:	f01d      	excw
    1bc4:	008136        	excw
    1bc7:	4a0c      	movi.n	a10, 4
    1bc9:	02bd      	mov.n	a11, a2
    1bcb:	841a61        	l32r	a6, 0xfffe2c34
    1bce:	841771        	l32r	a7, 0xfffe2c2c
    1bd1:	d8a152        	movi	a5, 0x1d8
    1bd4:	c15250        	mul16u	a5, a2, a5
    1bd7:	2c2742        	l32i	a4, a7, 176
    1bda:	8d2682        	l32i	a8, a6, 0x234
    1bdd:	445a      	add.n	a4, a4, a5
    1bdf:	0008e0        	excw
    1be2:	8a0b      	addi.n	a8, a10, -1
    1be4:	149816        	beqz	a8, 0x1d31
    1be7:	842091        	l32r	a9, 0xfffe2c68
    1bea:	959a      	add.n	a9, a5, a9
    1bec:	800992        	l8ui	a9, a9, 128
    1bef:	451926        	beqi	a9, 1, 0x1c38
    1bf2:	0404a2        	l8ui	a10, a4, 4
    1bf5:	1807b2        	l8ui	a11, a7, 24
    1bf8:	3cea27        	bbsi	a10, 2, 0x1c38
    1bfb:	396b07        	bbci	a11, 0, 0x1c38
    1bfe:	01ad      	mov.n	a10, a1
    1c00:	0a03b2        	l8ui	a11, a3, 10
    1c03:	8c0c      	movi.n	a12, 8
    1c05:	bb3a      	add.n	a11, a11, a3
    1c07:	bbdb      	addi.n	a11, a11, 13
    1c09:	09eba5        	excw
    1c0c:	a18b      	addi.n	a10, a1, 8
    1c0e:	0a03b2        	l8ui	a11, a3, 10
    1c11:	2c0c      	movi.n	a12, 2
    1c13:	bb3a      	add.n	a11, a11, a3
    1c15:	15cbb2        	addi	a11, a11, 21
    1c18:	09eaa5        	excw
    1c1b:	02ad      	mov.n	a10, a2
    1c1d:	01bd      	mov.n	a11, a1
    1c1f:	6a2682        	l32i	a8, a6, 0x1a8
    1c22:	c18b      	addi.n	a12, a1, 8
    1c24:	0008e0        	excw
    1c27:	b90c      	movi.n	a9, 11
    1c29:	179a97        	bne	a10, a9, 0x1c44
    1c2c:	02ad      	mov.n	a10, a2
    1c2e:	4c2682        	l32i	a8, a6, 0x130
    1c31:	6b0c      	movi.n	a11, 6
    1c33:	0008e0        	excw
    1c36:	f01d      	excw
    1c38:	02ad      	mov.n	a10, a2
    1c3a:	4c2682        	l32i	a8, a6, 0x130
    1c3d:	6b0c      	movi.n	a11, 6
    1c3f:	0008e0        	excw
    1c42:	f01d      	excw
    1c44:	fcca92        	addi	a9, a10, -4
    1c47:	0e6916        	beqz	a9, 0x1d31
    1c4a:	6a8c      	beqz.n	a10, 0x1c54
    1c4c:	8418a1        	l32r	a10, 0xfffe2cac
    1c4f:	0b0c      	movi.n	a11, 0
    1c51:	b5bc25        	excw
    1c54:	840781        	l32r	a8, 0xfffe2c70
    1c57:	da0c      	movi.n	a10, 13
    1c59:	7888      	l32i.n	a8, a8, 28
    1c5b:	1b1c      	movi.n	a11, 17
    1c5d:	0008e0        	excw
    1c60:	0a5d      	mov.n	a5, a10
    1c62:	0cba16        	beqz	a10, 0x1d31
    1c65:	842771        	l32r	a7, 0xfffe2d04
    1c68:	cb0c      	movi.n	a11, 12
    1c6a:	0404a2        	l8ui	a10, a4, 4
    1c6d:	090c      	movi.n	a9, 0
    1c6f:	5499      	s32i.n	a9, a4, 20
    1c71:	6499      	s32i.n	a9, a4, 24
    1c73:	20aab0        	or	a10, a10, a11
    1c76:	0444a2        	s8i	a10, a4, 4
    1c79:	5788      	l32i.n	a8, a7, 20
    1c7b:	7499      	s32i.n	a9, a4, 28
    1c7d:	0008e0        	excw
    1c80:	5788      	l32i.n	a8, a7, 20
    1c82:	41a9      	s32i.n	a10, a1, 16
    1c84:	0008e0        	excw
    1c87:	5788      	l32i.n	a8, a7, 20
    1c89:	51a9      	s32i.n	a10, a1, 20
    1c8b:	0008e0        	excw
    1c8e:	8c0c      	movi.n	a12, 8
    1c90:	d6a0d2        	movi	a13, 214
    1c93:	61a9      	s32i.n	a10, a1, 24
    1c95:	0a03b2        	l8ui	a11, a3, 10
    1c98:	a4da      	add.n	a10, a4, a13
    1c9a:	bb3a      	add.n	a11, a11, a3
    1c9c:	17cbb2        	addi	a11, a11, 23
    1c9f:	09e265        	excw
    1ca2:	10c1b2        	addi	a11, a1, 16
    1ca5:	8c0c      	movi.n	a12, 8
    1ca7:	dea0a2        	movi	a10, 222
    1caa:	a4aa      	add.n	a10, a4, a10
    1cac:	09e165        	excw
    1caf:	4c0c      	movi.n	a12, 4
    1cb1:	0a03b2        	l8ui	a11, a3, 10
    1cb4:	cea0a2        	movi	a10, 206
    1cb7:	a4aa      	add.n	a10, a4, a10
    1cb9:	bb3a      	add.n	a11, a11, a3
    1cbb:	1fcbb2        	addi	a11, a11, 31
    1cbe:	09e065        	excw
    1cc1:	18c1b2        	addi	a11, a1, 24
    1cc4:	4c0c      	movi.n	a12, 4
    1cc6:	d2a0a2        	movi	a10, 210
    1cc9:	a4aa      	add.n	a10, a4, a10
    1ccb:	09dfa5        	excw
    1cce:	090c      	movi.n	a9, 0
    1cd0:	4b0c      	movi.n	a11, 4
    1cd2:	15ab76        	excw
    1cd5:	c0b490        	sub	a11, a4, a9
    1cd8:	d49a      	add.n	a13, a4, a9
    1cda:	ce0da2        	l8ui	a10, a13, 206
    1cdd:	d50bc2        	l8ui	a12, a11, 213
    1ce0:	992b      	addi.n	a9, a9, 2
    1ce2:	ce4dc2        	s8i	a12, a13, 206
    1ce5:	d54ba2        	s8i	a10, a11, 213
    1ce8:	749090        	extui	a9, a9, 0, 8
    1ceb:	10c1b2        	addi	a11, a1, 16
    1cee:	0a05d2        	l8ui	a13, a5, 10
    1cf1:	cfa0f2        	movi	a15, 207
    1cf4:	dd5a      	add.n	a13, a13, a5
    1cf6:	0d0dc2        	l8ui	a12, a13, 13
    1cf9:	0e3c      	movi.n	a14, 48
    1cfb:	10ccf0        	and	a12, a12, a15
    1cfe:	20cce0        	or	a12, a12, a14
    1d01:	0d4dc2        	s8i	a12, a13, 13
    1d04:	8c0c      	movi.n	a12, 8
    1d06:	0a05a2        	l8ui	a10, a5, 10
    1d09:	4d0c      	movi.n	a13, 4
    1d0b:	aa5a      	add.n	a10, a10, a5
    1d0d:	104ad2        	s8i	a13, a10, 16
    1d10:	10ca32        	addi	a3, a10, 16
    1d13:	11caa2        	addi	a10, a10, 17
    1d16:	09dae5        	excw
    1d19:	a39b      	addi.n	a10, a3, 9
    1d1b:	18c1b2        	addi	a11, a1, 24
    1d1e:	4c0c      	movi.n	a12, 4
    1d20:	09da25        	excw
    1d23:	02ad      	mov.n	a10, a2
    1d25:	05bd      	mov.n	a11, a5
    1d27:	522682        	l32i	a8, a6, 0x148
    1d2a:	0c0c      	movi.n	a12, 0
    1d2c:	0008e0        	excw
    1d2f:	f01d      	excw
    1d31:	f01d      	excw
    1d33:	413600        	srli	a3, a0, 6
    1d36:	a19200        	sll	a9, a2
    1d39:	d1d8      	l32i.n	a13, a1, 52
    1d3b:	908417        	bany	a4, a1, 0x1ccf
    1d3e:	d2c192        	addi	a9, a1, -46
    1d41:	2c2d      	excw
    1d43:	8420a1        	l32r	a10, 0xfffe2dc4
    1d46:	dd9a      	add.n	a13, a13, a9
    1d48:	040dc2        	l8ui	a12, a13, 4
    1d4b:	a9aa      	add.n	a10, a9, a10
    1d4d:	1a6c27        	bbci	a12, 2, 0x1d6b
    1d50:	800aa2        	l8ui	a10, a10, 128
    1d53:	4a9c      	beqz.n	a10, 0x1d6b
    1d55:	02ad      	mov.n	a10, a2
    1d57:	842281        	l32r	a8, 0xfffe2de0
    1d5a:	890c      	movi.n	a9, 8
    1d5c:	209c90        	or	a9, a12, a9
    1d5f:	044d92        	s8i	a9, a13, 4
    1d62:	3888      	l32i.n	a8, a8, 12
    1d64:	03bd      	mov.n	a11, a3
    1d66:	0008e0        	excw
    1d69:	f01d      	excw
    1d6b:	841a81        	l32r	a8, 0xfffe2dd4
    1d6e:	02ad      	mov.n	a10, a2
    1d70:	4c2882        	l32i	a8, a8, 0x130
    1d73:	6b0c      	movi.n	a11, 6
    1d75:	0008e0        	excw
    1d78:	f01d      	excw
    1d7a:	360000        	excw
    1d7d:	0c0041        	l32r	a4, 0xfffc4d80
    1d80:	515a      	add.n	a5, a1, a5
    1d82:	841a      	add.n	a8, a4, a1
    1d84:	841731        	l32r	a3, 0xfffe2de0
    1d87:	d8a162        	movi	a6, 0x1d8
    1d8a:	c16260        	mul16u	a6, a2, a6
    1d8d:	2c2332        	l32i	a3, a3, 176
    1d90:	8d2582        	l32i	a8, a5, 0x234
    1d93:	336a      	add.n	a3, a3, a6
    1d95:	03bd      	mov.n	a11, a3
    1d97:	0008e0        	excw
    1d9a:	8a0b      	addi.n	a8, a10, -1
    1d9c:	08d816        	beqz	a8, 0x1e2d
    1d9f:	040392        	l8ui	a9, a3, 4
    1da2:	0c6927        	bbci	a9, 2, 0x1db2
    1da5:	155466        	bnei	a4, 5, 0x1dbe
    1da8:	8420a1        	l32r	a10, 0xfffe2e28
    1dab:	a6aa      	add.n	a10, a6, a10
    1dad:	800aa2        	l8ui	a10, a10, 128
    1db0:	aacc      	bnez.n	a10, 0x1dbe
    1db2:	02ad      	mov.n	a10, a2
    1db4:	4c2582        	l32i	a8, a5, 0x130
    1db7:	6b0c      	movi.n	a11, 6
    1db9:	0008e0        	excw
    1dbc:	f01d      	excw
    1dbe:	030392        	l8ui	a9, a3, 3
    1dc1:	021966        	bnei	a9, 1, 0x1dc7
    1dc4:	085426        	beqi	a4, 5, 0x1dd0
    1dc7:	04c956        	bnez	a9, 0x1e17
    1dca:	fac492        	addi	a9, a4, -6
    1dcd:	0a1956        	bnez	a9, 0x1e72
    1dd0:	840781        	l32r	a8, 0xfffe2dec
    1dd3:	da0c      	movi.n	a10, 13
    1dd5:	7888      	l32i.n	a8, a8, 28
    1dd7:	5b0c      	movi.n	a11, 5
    1dd9:	0008e0        	excw
    1ddc:	0abd      	mov.n	a11, a10
    1dde:	04ba16        	beqz	a10, 0x1e2d
    1de1:	02ad      	mov.n	a10, a2
    1de3:	0a0b82        	l8ui	a8, a11, 10
    1de6:	093c      	movi.n	a9, 48
    1de8:	88ba      	add.n	a8, a8, a11
    1dea:	0d08f2        	l8ui	a15, a8, 13
    1ded:	cfa0c2        	movi	a12, 207
    1df0:	10ffc0        	and	a15, a15, a12
    1df3:	20ff90        	or	a15, a15, a9
    1df6:	0d48f2        	s8i	a15, a8, 13
    1df9:	0a0be2        	l8ui	a14, a11, 10
    1dfc:	6d0c      	movi.n	a13, 6
    1dfe:	eeba      	add.n	a14, a14, a11
    1e00:	104ed2        	s8i	a13, a14, 16
    1e03:	040392        	l8ui	a9, a3, 4
    1e06:	3c0c      	movi.n	a12, 3
    1e08:	2099c0        	or	a9, a9, a12
    1e0b:	044392        	s8i	a9, a3, 4
    1e0e:	522582        	l32i	a8, a5, 0x148
    1e11:	8421c1        	l32r	a12, 0xfffe2e98
    1e14:	0008e0        	excw
    1e17:	126466        	bnei	a4, 6, 0x1e2d
    1e1a:	040392        	l8ui	a9, a3, 4
    1e1d:	0e6947        	bbci	a9, 4, 0x1e2f
    1e20:	02ad      	mov.n	a10, a2
    1e22:	7a2582        	l32i	a8, a5, 0x1e8
    1e25:	0b0c      	movi.n	a11, 0
    1e27:	0008e0        	excw
    1e2a:	000346        	j	0x1e3b
    1e2d:	f01d      	excw
    1e2f:	02ad      	mov.n	a10, a2
    1e31:	0b0c      	movi.n	a11, 0
    1e33:	792582        	l32i	a8, a5, 0x1e4
    1e36:	1c0c      	movi.n	a12, 1
    1e38:	0008e0        	excw
    1e3b:	02ad      	mov.n	a10, a2
    1e3d:	3b0c      	movi.n	a11, 3
    1e3f:	8428e1        	l32r	a14, 0xfffe2ee0
    1e42:	031392        	l16ui	a9, a3, 6
    1e45:	0403c2        	l8ui	a12, a3, 4
    1e48:	e3a0d2        	movi	a13, 227
    1e4b:	10ccd0        	and	a12, a12, a13
    1e4e:	1099e0        	and	a9, a9, a14
    1e51:	0443c2        	s8i	a12, a3, 4
    1e54:	912582        	l32i	a8, a5, 0x244
    1e57:	035392        	s16i	a9, a3, 6
    1e5a:	0008e0        	excw
    1e5d:	0403f2        	l8ui	a15, a3, 4
    1e60:	073f26        	beqi	a15, 3, 0x1e6b
    1e63:	8418a1        	l32r	a10, 0xfffe2ec4
    1e66:	0b0c      	movi.n	a11, 0
    1e68:	b59aa5        	excw
    1e6b:	2588      	l32i.n	a8, a5, 8
    1e6d:	02ad      	mov.n	a10, a2
    1e6f:	0008e0        	excw
    1e72:	f01d      	excw
    1e74:	006136        	excw
    1e77:	031282        	l16ui	a8, a2, 6
    1e7a:	bea292        	movi	a9, 0x2be
    1e7d:	2d9897        	bne	a8, a9, 0x1eae
    1e80:	840731        	l32r	a3, 0xfffe2e9c
    1e83:	f388      	l32i.n	a8, a3, 60
    1e85:	02ad      	mov.n	a10, a2
    1e87:	0008e0        	excw
    1e8a:	d8a1c2        	movi	a12, 0x1d8
    1e8d:	841761        	l32r	a6, 0xfffe2eec
    1e90:	4a2a      	add.n	a4, a10, a2
    1e92:	0804e2        	l8ui	a14, a4, 8
    1e95:	2c26b2        	l32i	a11, a6, 176
    1e98:	c1cec0        	mul16u	a12, a14, a12
    1e9b:	bbca      	add.n	a11, a11, a12
    1e9d:	010b92        	l8ui	a9, a11, 1
    1ea0:	da0c      	movi.n	a10, 13
    1ea2:	1419a7        	beq	a9, a10, 0x1eba
    1ea5:	8388      	l32i.n	a8, a3, 32
    1ea7:	02ad      	mov.n	a10, a2
    1ea9:	0008e0        	excw
    1eac:	f01d      	excw
    1eae:	842281        	l32r	a8, 0xfffe2f38
    1eb1:	4888      	l32i.n	a8, a8, 16
    1eb3:	02ad      	mov.n	a10, a2
    1eb5:	0008e0        	excw
    1eb8:	f01d      	excw
    1eba:	d40692        	l8ui	a9, a6, 212
    1ebd:	ffa0a2        	movi	a10, 255
    1ec0:	1019a7        	beq	a9, a10, 0x1ed4
    1ec3:	02ad      	mov.n	a10, a2
    1ec5:	6d1692        	l16ui	a9, a6, 218
    1ec8:	8388      	l32i.n	a8, a3, 32
    1eca:	991b      	addi.n	a9, a9, 1
    1ecc:	6d5692        	s16i	a9, a6, 218
    1ecf:	0008e0        	excw
    1ed2:	f01d      	excw
    1ed4:	841a51        	l32r	a5, 0xfffe2f3c
    1ed7:	040ba2        	l8ui	a10, a11, 4
    1eda:	d73c      	movi.n	a7, 61
    1edc:	306a07        	bbci	a10, 0, 0x1f10
    1edf:	0ead      	mov.n	a10, a14
    1ee1:	02bd      	mov.n	a11, a2
    1ee3:	502582        	l32i	a8, a5, 0x140
    1ee6:	0a04c2        	l8ui	a12, a4, 10
    1ee9:	0008e0        	excw
    1eec:	0804e2        	l8ui	a14, a4, 8
    1eef:	dadc      	bnez.n	a10, 0x1f10
    1ef1:	2c2692        	l32i	a9, a6, 176
    1ef4:	d8a1a2        	movi	a10, 0x1d8
    1ef7:	c1aea0        	mul16u	a10, a14, a10
    1efa:	99aa      	add.n	a9, a9, a10
    1efc:	ad4972        	s8i	a7, a9, 173
    1eff:	4d2582        	l32i	a8, a5, 0x134
    1f02:	0ead      	mov.n	a10, a14
    1f04:	0008e0        	excw
    1f07:	8388      	l32i.n	a8, a3, 32
    1f09:	02ad      	mov.n	a10, a2
    1f0b:	0008e0        	excw
    1f0e:	f01d      	excw
    1f10:	0ead      	mov.n	a10, a14
    1f12:	0b0c      	movi.n	a11, 0
    1f14:	0c0c      	movi.n	a12, 0
    1f16:	0b04d2        	l8ui	a13, a4, 11
    1f19:	1a2582        	l32i	a8, a5, 104
    1f1c:	23dd00        	excw
    1f1f:	0008e0        	excw
    1f22:	0a04e2        	l8ui	a14, a4, 10
    1f25:	2c26a2        	l32i	a10, a6, 176
    1f28:	093e66        	bnei	a14, 3, 0x1f35
    1f2b:	4a2582        	l32i	a8, a5, 0x128
    1f2e:	02ad      	mov.n	a10, a2
    1f30:	0008e0        	excw
    1f33:	f01d      	excw
    1f35:	0804b2        	l8ui	a11, a4, 8
    1f38:	d8a1c2        	movi	a12, 0x1d8
    1f3b:	c1bbc0        	mul16u	a11, a11, a12
    1f3e:	aaba      	add.n	a10, a10, a11
    1f40:	040aa2        	l8ui	a10, a10, 4
    1f43:	491c      	movi.n	a9, 20
    1f45:	2e09a7        	bnone	a9, a10, 0x1f77
    1f48:	6b0c      	movi.n	a11, 6
    1f4a:	01cd      	mov.n	a12, a1
    1f4c:	8f2582        	l32i	a8, a5, 0x23c
    1f4f:	004172        	s8i	a7, a1, 0
    1f52:	0804a2        	l8ui	a10, a4, 8
    1f55:	0008e0        	excw
    1f58:	2adc      	bnez.n	a10, 0x1f6e
    1f5a:	2c26a2        	l32i	a10, a6, 176
    1f5d:	0804b2        	l8ui	a11, a4, 8
    1f60:	d8a1c2        	movi	a12, 0x1d8
    1f63:	c1bbc0        	mul16u	a11, a11, a12
    1f66:	000192        	l8ui	a9, a1, 0
    1f69:	aaba      	add.n	a10, a10, a11
    1f6b:	ad4a92        	s8i	a9, a10, 173
    1f6e:	8388      	l32i.n	a8, a3, 32
    1f70:	02ad      	mov.n	a10, a2
    1f72:	0008e0        	excw
    1f75:	f01d      	excw
    1f77:	492582        	l32i	a8, a5, 0x124
    1f7a:	02ad      	mov.n	a10, a2
    1f7c:	0008e0        	excw
    1f7f:	f01d      	excw
    1f81:	000000        	ill
    1f84:	004136        	excw
    1f87:	02ad      	mov.n	a10, a2
    1f89:	841a51        	l32r	a5, 0xfffe2ff4
    1f8c:	841741        	l32r	a4, 0xfffe2fe8
    1f8f:	d8a172        	movi	a7, 0x1d8
    1f92:	c17270        	mul16u	a7, a2, a7
    1f95:	2c2432        	l32i	a3, a4, 176
    1f98:	3c2582        	l32i	a8, a5, 240
    1f9b:	337a      	add.n	a3, a3, a7
    1f9d:	0008e0        	excw
    1fa0:	02ad      	mov.n	a10, a2
    1fa2:	312582        	l32i	a8, a5, 196
    1fa5:	0b0c      	movi.n	a11, 0
    1fa7:	0008e0        	excw
    1faa:	322582        	l32i	a8, a5, 200
    1fad:	02ad      	mov.n	a10, a2
    1faf:	0008e0        	excw
    1fb2:	8398      	l32i.n	a9, a3, 32
    1fb4:	840741        	l32r	a4, 0xfffe2fd0
    1fb7:	b99c      	beqz.n	a9, 0x1fd6
    1fb9:	20c362        	addi	a6, a3, 32
    1fbc:	152482        	l32i	a8, a4, 84
    1fbf:	06ad      	mov.n	a10, a6
    1fc1:	0008e0        	excw
    1fc4:	8488      	l32i.n	a8, a4, 32
    1fc6:	0008e0        	excw
    1fc9:	ae03a2        	l8ui	a10, a3, 174
    1fcc:	8398      	l32i.n	a9, a3, 32
    1fce:	aa0b      	addi.n	a10, a10, -1
    1fd0:	ae43a2        	s8i	a10, a3, 174
    1fd3:	fe5956        	bnez	a9, 0x1fbc
    1fd6:	a3b8      	l32i.n	a11, a3, 40
    1fd8:	28c362        	addi	a6, a3, 40
    1fdb:	eb9c      	beqz.n	a11, 0x1ffd
    1fdd:	152482        	l32i	a8, a4, 84
    1fe0:	06ad      	mov.n	a10, a6
    1fe2:	0008e0        	excw
    1fe5:	8488      	l32i.n	a8, a4, 32
    1fe7:	0008e0        	excw
    1fea:	ae0392        	l8ui	a9, a3, 174
    1fed:	a3a8      	l32i.n	a10, a3, 40
    1fef:	990b      	addi.n	a9, a9, -1
    1ff1:	749090        	extui	a9, a9, 0, 8
    1ff4:	ae4392        	s8i	a9, a3, 174
    1ff7:	fe2a56        	bnez	a10, 0x1fdd
    1ffa:	000086        	j	0x2000
    1ffd:	ae0392        	l8ui	a9, a3, 174
    2000:	841761        	l32r	a6, 0xfffe305c
    2003:	698c      	beqz.n	a9, 0x200d
    2005:	8418a1        	l32r	a10, 0xfffe3068
    2008:	0b0c      	movi.n	a11, 0
    200a:	b580a5        	excw
    200d:	542582        	l32i	a8, a5, 0x150
    2010:	02ad      	mov.n	a10, a2
    2012:	0008e0        	excw
    2015:	2923a2        	l32i	a10, a3, 164
    2018:	3a8c      	beqz.n	a10, 0x201f
    201a:	8488      	l32i.n	a8, a4, 32
    201c:	0008e0        	excw
    201f:	2823a2        	l32i	a10, a3, 160
    2022:	3a8c      	beqz.n	a10, 0x2029
    2024:	8488      	l32i.n	a8, a4, 32
    2026:	0008e0        	excw
    2029:	02ad      	mov.n	a10, a2
    202b:	922582        	l32i	a8, a5, 0x248
    202e:	1b0c      	movi.n	a11, 1
    2030:	0008e0        	excw
    2033:	ea8c      	beqz.n	a10, 0x2045
    2035:	02ad      	mov.n	a10, a2
    2037:	2c26b2        	l32i	a11, a6, 176
    203a:	722582        	l32i	a8, a5, 0x1c8
    203d:	bb7a      	add.n	a11, a11, a7
    203f:	ad0bb2        	l8ui	a11, a11, 173
    2042:	0008e0        	excw
    2045:	02ad      	mov.n	a10, a2
    2047:	922582        	l32i	a8, a5, 0x248
    204a:	3b0c      	movi.n	a11, 3
    204c:	0008e0        	excw
    204f:	1aac      	beqz.n	a10, 0x2074
    2051:	2c26b2        	l32i	a11, a6, 176
    2054:	bb7a      	add.n	a11, a11, a7
    2056:	040b92        	l8ui	a9, a11, 4
    2059:	ad0bb2        	l8ui	a11, a11, 173
    205c:	0a6947        	bbci	a9, 4, 0x206a
    205f:	7a2582        	l32i	a8, a5, 0x1e8
    2062:	02ad      	mov.n	a10, a2
    2064:	0008e0        	excw
    2067:	000246        	j	0x2074
    206a:	02ad      	mov.n	a10, a2
    206c:	792582        	l32i	a8, a5, 0x1e4
    206f:	0c0c      	movi.n	a12, 0
    2071:	0008e0        	excw
    2074:	02ad      	mov.n	a10, a2
    2076:	922582        	l32i	a8, a5, 0x248
    2079:	4b0c      	movi.n	a11, 4
    207b:	0008e0        	excw
    207e:	0a9c      	beqz.n	a10, 0x2092
    2080:	02ad      	mov.n	a10, a2
    2082:	0c0c      	movi.n	a12, 0
    2084:	2c26b2        	l32i	a11, a6, 176
    2087:	552582        	l32i	a8, a5, 0x154
    208a:	bb7a      	add.n	a11, a11, a7
    208c:	ad0bb2        	l8ui	a11, a11, 173
    208f:	0008e0        	excw
    2092:	02ad      	mov.n	a10, a2
    2094:	922582        	l32i	a8, a5, 0x248
    2097:	5b0c      	movi.n	a11, 5
    2099:	0008e0        	excw
    209c:	0a9c      	beqz.n	a10, 0x20b0
    209e:	02ad      	mov.n	a10, a2
    20a0:	1c0c      	movi.n	a12, 1
    20a2:	2c26b2        	l32i	a11, a6, 176
    20a5:	762582        	l32i	a8, a5, 0x1d8
    20a8:	bb7a      	add.n	a11, a11, a7
    20aa:	ad0bb2        	l8ui	a11, a11, 173
    20ad:	0008e0        	excw
    20b0:	842981        	l32r	a8, 0xfffe3154
    20b3:	952882        	l32i	a8, a8, 0x254
    20b6:	02ad      	mov.n	a10, a2
    20b8:	0008e0        	excw
    20bb:	02ad      	mov.n	a10, a2
    20bd:	0b0c      	movi.n	a11, 0
    20bf:	2c26c2        	l32i	a12, a6, 176
    20c2:	162582        	l32i	a8, a5, 88
    20c5:	cc7a      	add.n	a12, a12, a7
    20c7:	ad0cc2        	l8ui	a12, a12, 173
    20ca:	0008e0        	excw
    20cd:	192582        	l32i	a8, a5, 100
    20d0:	02ad      	mov.n	a10, a2
    20d2:	0008e0        	excw
    20d5:	f01d      	excw
    20d7:	413600        	srli	a3, a0, 6
    20da:	173100        	excw
    20dd:	196184        	excw
    20e0:	038284        	excw
    20e3:	1a7150        	excw
    20e6:	882084        	excw
    20e9:	7856c0        	excw
    20ec:	a21b      	addi.n	a10, a2, 1
    20ee:	424c03        	excw
    20f1:	0750c3        	excw
    20f4:	0fea      	add.n	a0, a15, a14
    20f6:	342782        	l32i	a8, a7, 208
    20f9:	02ad      	mov.n	a10, a2
    20fb:	0008e0        	excw
    20fe:	2f2682        	l32i	a8, a6, 188
    2101:	0008e0        	excw
    2104:	f01d      	excw
    2106:	fba052        	movi	a5, 251
    2109:	fda092        	movi	a9, 253
    210c:	13b8      	l32i.n	a11, a3, 4
    210e:	8427c1        	l32r	a12, 0xfffe31ac
    2111:	04d4b0        	extui	a13, a11, 4, 1
    2114:	16bd16        	beqz	a13, 0x2283
    2117:	2b0c      	movi.n	a11, 2
    2119:	04e1a0        	extui	a14, a10, 1, 1
    211c:	1a6e16        	beqz	a14, 0x22c6
    211f:	10aa90        	and	a10, a10, a9
    2122:	7203f2        	l8ui	a15, a3, 114
    2125:	180c      	movi.n	a8, 1
    2127:	74f1f0        	extui	a15, a15, 1, 8
    212a:	7243f2        	s8i	a15, a3, 114
    212d:	83f8f0        	moveqz	a15, a8, a15
    2130:	7243f2        	s8i	a15, a3, 114
    2133:	3c88      	l32i.n	a8, a12, 12
    2135:	4c43a2        	s8i	a10, a3, 76
    2138:	0008e0        	excw
    213b:	7203b2        	l8ui	a11, a3, 114
    213e:	098be5        	excw
    2141:	4c0392        	l8ui	a9, a3, 76
    2144:	7143a2        	s8i	a10, a3, 113
    2147:	109950        	and	a9, a9, a5
    214a:	4c4392        	s8i	a9, a3, 76
    214d:	fa7c      	movi.n	a10, -1
    214f:	842a71        	l32r	a7, 0xfffe31f8
    2152:	842b51        	l32r	a5, 0xfffe3200
    2155:	842cb1        	l32r	a11, 0xfffe3208
    2158:	8422c1        	l32r	a12, 0xfffe31e0
    215b:	340bd2        	l8ui	a13, a11, 52
    215e:	5003e2        	l8ui	a14, a3, 80
    2161:	23dd00        	excw
    2164:	269e27        	bne	a14, a2, 0x218e
    2167:	0c1de6        	bgei	a13, 1, 0x2177
    216a:	8418a1        	l32r	a10, 0xfffe31cc
    216d:	0b0c      	movi.n	a11, 0
    216f:	b56a65        	excw
    2172:	8422c1        	l32r	a12, 0xfffe31fc
    2175:	fa7c      	movi.n	a10, -1
    2177:	0cf8      	l32i.n	a15, a12, 0
    2179:	17e8      	l32i.n	a14, a7, 4
    217b:	c0eef0        	sub	a14, a14, a15
    217e:	10ee50        	and	a14, a14, a5
    2181:	02def6        	bgeui	a14, 64, 0x2187
    2184:	004606        	j	0x22a0
    2187:	0ca9      	s32i.n	a10, a12, 0
    2189:	0c5c      	movi.n	a12, 80
    218b:	000946        	j	0x21b4
    218e:	0c1de6        	bgei	a13, 1, 0x219e
    2191:	8418a1        	l32r	a10, 0xfffe31f4
    2194:	0b0c      	movi.n	a11, 0
    2196:	b567e5        	excw
    2199:	8422c1        	l32r	a12, 0xfffe3224
    219c:	fa7c      	movi.n	a10, -1
    219e:	1c98      	l32i.n	a9, a12, 4
    21a0:	1788      	l32i.n	a8, a7, 4
    21a2:	c08890        	sub	a8, a8, a9
    21a5:	108850        	and	a8, a8, a5
    21a8:	06e8b6        	bltui	a8, 128, 0x21b2
    21ab:	1ca9      	s32i.n	a10, a12, 4
    21ad:	0c5c      	movi.n	a12, 80
    21af:	000046        	j	0x21b4
    21b2:	ac2c      	movi.n	a12, 42
    21b4:	ba0c      	movi.n	a10, 11
    21b6:	412682        	l32i	a8, a6, 0x104
    21b9:	02bd      	mov.n	a11, a2
    21bb:	0008e0        	excw
    21be:	0614a2        	l16ui	a10, a4, 12
    21c1:	17c8      	l32i.n	a12, a7, 4
    21c3:	0314d2        	l16ui	a13, a4, 6
    21c6:	e4b1c0        	extui	a11, a12, 1, 15
    21c9:	c0bbd0        	sub	a11, a11, a13
    21cc:	e4b0b0        	extui	a11, a11, 0, 15
    21cf:	2fbba7        	bgeu	a11, a10, 0x2202
    21d2:	842981        	l32r	a8, 0xfffe3278
    21d5:	c09ab0        	sub	a9, a10, a11
    21d8:	fc2882        	l32i	a8, a8, 0x3f0
    21db:	065492        	s16i	a9, a4, 12
    21de:	0008e0        	excw
    21e1:	18a192        	movi	a9, 0x118
    21e4:	0289a7        	bany	a9, a10, 0x21ea
    21e7:	002586        	j	0x2281
    21ea:	842da1        	l32r	a10, 0xfffe32a0
    21ed:	b80aa2        	l8ui	a10, a10, 184
    21f0:	08da16        	beqz	a10, 0x2281
    21f3:	1a0c      	movi.n	a10, 1
    21f5:	ffa0b2        	movi	a11, 255
    21f8:	412682        	l32i	a8, a6, 0x104
    21fb:	9c1c      	movi.n	a12, 25
    21fd:	0008e0        	excw
    2200:	f01d      	excw
    2202:	842c91        	l32r	a9, 0xfffe32b4
    2205:	340992        	l8ui	a9, a9, 52
    2208:	239900        	excw
    220b:	0919e6        	bgei	a9, 1, 0x2218
    220e:	8418a1        	l32r	a10, 0xfffe3270
    2211:	0b0c      	movi.n	a11, 0
    2213:	b56025        	excw
    2216:	17c8      	l32i.n	a12, a7, 4
    2218:	24b8      	l32i.n	a11, a4, 8
    221a:	0214d2        	l16ui	a13, a4, 4
    221d:	c0bcb0        	sub	a11, a12, a11
    2220:	10bb50        	and	a11, a11, a5
    2223:	10bbd7        	bgeu	a11, a13, 0x2237
    2226:	c0adb0        	sub	a10, a13, a11
    2229:	2e2682        	l32i	a8, a6, 184
    222c:	842eb1        	l32r	a11, 0xfffe32e4
    222f:	aa1b      	addi.n	a10, a10, 1
    2231:	10aab0        	and	a10, a10, a11
    2234:	0008e0        	excw
    2237:	010492        	l8ui	a9, a4, 1
    223a:	fa7c      	movi.n	a10, -1
    223c:	24a9      	s32i.n	a10, a4, 8
    223e:	1199f0        	slli	a9, a9, 1
    2241:	749090        	extui	a9, a9, 0, 8
    2244:	014492        	s8i	a9, a4, 1
    2247:	0659b6        	bltui	a9, 5, 0x2251
    224a:	190c      	movi.n	a9, 1
    224c:	1b0c      	movi.n	a11, 1
    224e:	0144b2        	s8i	a11, a4, 1
    2251:	1f1966        	bnei	a9, 1, 0x2274
    2254:	0214d2        	l16ui	a13, a4, 4
    2257:	0114c2        	l16ui	a12, a4, 2
    225a:	169cd7        	bne	a12, a13, 0x2274
    225d:	6003e2        	l8ui	a14, a3, 96
    2260:	109e27        	bne	a14, a2, 0x2274
    2263:	4c03a2        	l8ui	a10, a3, 76
    2266:	0a6a07        	bbci	a10, 0, 0x2274
    2269:	076a47        	bbci	a10, 4, 0x2274
    226c:	2e2682        	l32i	a8, a6, 184
    226f:	0dad      	mov.n	a10, a13
    2271:	0008e0        	excw
    2274:	841a81        	l32r	a8, 0xfffe32dc
    2277:	02ad      	mov.n	a10, a2
    2279:	312882        	l32i	a8, a8, 196
    227c:	0b0c      	movi.n	a11, 0
    227e:	0008e0        	excw
    2281:	f01d      	excw
    2283:	5c6b57        	bbci	a11, 5, 0x22e3
    2286:	4b0c      	movi.n	a11, 4
    2288:	406a27        	bbci	a10, 2, 0x22cc
    228b:	720392        	l8ui	a9, a3, 114
    228e:	04b790        	extui	a11, a9, 7, 1
    2291:	0dab56        	bnez	a11, 0x236f
    2294:	1199f0        	slli	a9, a9, 1
    2297:	724392        	s8i	a9, a3, 114
    229a:	10aa50        	and	a10, a10, a5
    229d:	000b86        	j	0x22cf
    22a0:	bc2c      	movi.n	a12, 43
    22a2:	ffc386        	j	0x21b4
    22a5:	60c342        	addi	a4, a3, 96
    22a8:	332782        	l32i	a8, a7, 204
    22ab:	02ad      	mov.n	a10, a2
    22ad:	0008e0        	excw
    22b0:	4c0392        	l8ui	a9, a3, 76
    22b3:	40e947        	bbsi	a9, 4, 0x22f7
    22b6:	342782        	l32i	a8, a7, 208
    22b9:	02ad      	mov.n	a10, a2
    22bb:	0008e0        	excw
    22be:	2f2682        	l32i	a8, a6, 188
    22c1:	0008e0        	excw
    22c4:	f01d      	excw
    22c6:	20aab0        	or	a10, a10, a11
    22c9:	ff9986        	j	0x2133
    22cc:	20aab0        	or	a10, a10, a11
    22cf:	3c88      	l32i.n	a8, a12, 12
    22d1:	4c43a2        	s8i	a10, a3, 76
    22d4:	0008e0        	excw
    22d7:	7203b2        	l8ui	a11, a3, 114
    22da:	097225        	excw
    22dd:	fda052        	movi	a5, 253
    22e0:	ff9746        	j	0x2141
    22e3:	0493b0        	extui	a9, a11, 3, 1
    22e6:	e63916        	beqz	a9, 0x214d
    22e9:	710392        	l8ui	a9, a3, 113
    22ec:	e5d916        	beqz	a9, 0x214d
    22ef:	a90b      	addi.n	a10, a9, -1
    22f1:	7143a2        	s8i	a10, a3, 113
    22f4:	ff9546        	j	0x214d
    22f7:	13b8      	l32i.n	a11, a3, 4
    22f9:	04b6b0        	extui	a11, a11, 6, 1
    22fc:	e4db16        	beqz	a11, 0x214d
    22ff:	842f91        	l32r	a9, 0xfffe33bc
    2302:	0020c0        	memw
    2305:	2c23c2        	l32i	a12, a3, 176
    2308:	9329a2        	l32i	a10, a9, 0x24c
    230b:	d8a1b2        	movi	a11, 0x1d8
    230e:	c1b2b0        	mul16u	a11, a2, a11
    2311:	05a5a0        	extui	a10, a10, 21, 1
    2314:	ccba      	add.n	a12, a12, a11
    2316:	384ca2        	s8i	a10, a12, 56
    2319:	0020c0        	memw
    231c:	2c2382        	l32i	a8, a3, 176
    231f:	9429a2        	l32i	a10, a9, 0x250
    2322:	88ba      	add.n	a8, a8, a11
    2324:	3948a2        	s8i	a10, a8, 57
    2327:	2c23f2        	l32i	a15, a3, 176
    232a:	41e8a0        	srli	a14, a10, 8
    232d:	ffba      	add.n	a15, a15, a11
    232f:	3a4fe2        	s8i	a14, a15, 58
    2332:	2c23d2        	l32i	a13, a3, 176
    2335:	f5c0a0        	extui	a12, a10, 16, 16
    2338:	ddba      	add.n	a13, a13, a11
    233a:	3b4dc2        	s8i	a12, a13, 59
    233d:	2c23c2        	l32i	a12, a3, 176
    2340:	75a8a0        	extui	a10, a10, 24, 8
    2343:	ccba      	add.n	a12, a12, a11
    2345:	3c4ca2        	s8i	a10, a12, 60
    2348:	0020c0        	memw
    234b:	2c23a2        	l32i	a10, a3, 176
    234e:	952992        	l32i	a9, a9, 0x254
    2351:	aaba      	add.n	a10, a10, a11
    2353:	3d4a92        	s8i	a9, a10, 61
    2356:	2c23a2        	l32i	a10, a3, 176
    2359:	419890        	srli	a9, a9, 8
    235c:	aaba      	add.n	a10, a10, a11
    235e:	3e4a92        	s8i	a9, a10, 62
    2361:	432782        	l32i	a8, a7, 0x10c
    2364:	0008e0        	excw
    2367:	2f2682        	l32i	a8, a6, 188
    236a:	0008e0        	excw
    236d:	f01d      	excw
    236f:	ffa092        	movi	a9, 255
    2372:	ffc846        	j	0x2297
    2375:	000000        	ill
    2378:	004136        	excw
    237b:	842a51        	l32r	a5, 0xfffe3424
    237e:	841781        	l32r	a8, 0xfffe33dc
    2381:	842ca1        	l32r	a10, 0xfffe3434
    2384:	500882        	l8ui	a8, a8, 80
    2387:	842241        	l32r	a4, 0xfffe3410
    238a:	1c9827        	bne	a8, a2, 0x23aa
    238d:	0498      	l32i.n	a9, a4, 0
    238f:	310966        	bnei	a9, -1, 0x23c4
    2392:	340ab2        	l8ui	a11, a10, 52
    2395:	23bb00        	excw
    2398:	071be6        	bgei	a11, 1, 0x23a3
    239b:	8418a1        	l32r	a10, 0xfffe33fc
    239e:	0b0c      	movi.n	a11, 0
    23a0:	b54725        	excw
    23a3:	15c8      	l32i.n	a12, a5, 4
    23a5:	04c9      	s32i.n	a12, a4, 0
    23a7:	000646        	j	0x23c4
    23aa:	14d8      	l32i.n	a13, a4, 4
    23ac:	340ae2        	l8ui	a14, a10, 52
    23af:	110d66        	bnei	a13, -1, 0x23c4
    23b2:	23ee00        	excw
    23b5:	071ee6        	bgei	a14, 1, 0x23c0
    23b8:	8418a1        	l32r	a10, 0xfffe3418
    23bb:	0b0c      	movi.n	a11, 0
    23bd:	b54565        	excw
    23c0:	15f8      	l32i.n	a15, a5, 4
    23c2:	14f9      	s32i.n	a15, a4, 4
    23c4:	02ad      	mov.n	a10, a2
    23c6:	5488      	l32i.n	a8, a4, 20
    23c8:	03bd      	mov.n	a11, a3
    23ca:	0008e0        	excw
    23cd:	0a2d      	mov.n	a2, a10
    23cf:	f01d      	excw
    23d1:	000000        	ill
    23d4:	004136        	excw
    23d7:	02ad      	mov.n	a10, a2
    23d9:	842281        	l32r	a8, 0xfffe3464
    23dc:	f97c      	movi.n	a9, -1
    23de:	0899      	s32i.n	a9, a8, 0
    23e0:	6888      	l32i.n	a8, a8, 24
    23e2:	03bd      	mov.n	a11, a3
    23e4:	0008e0        	excw
    23e7:	0a2d      	mov.n	a2, a10
    23e9:	f01d      	excw
    23eb:	413600        	srli	a3, a0, 6
    23ee:	02ad00        	excw
    23f1:	842281        	l32r	a8, 0xfffe347c
    23f4:	f97c      	movi.n	a9, -1
    23f6:	1899      	s32i.n	a9, a8, 4
    23f8:	7888      	l32i.n	a8, a8, 28
    23fa:	03bd      	mov.n	a11, a3
    23fc:	0008e0        	excw
    23ff:	0a2d      	mov.n	a2, a10
    2401:	f01d      	excw
    2403:	413600        	srli	a3, a0, 6
    2406:	be0c00        	excw
    2409:	1292e7        	bne	a2, a14, 0x241f
    240c:	8417c1        	l32r	a12, 0xfffe3468
    240f:	df0c      	movi.n	a15, 13
    2411:	010ca2        	l8ui	a10, a12, 1
    2414:	000cb2        	l8ui	a11, a12, 0
    2417:	2d0c22        	l8ui	a2, a12, 45
    241a:	8baa      	add.n	a8, a11, a10
    241c:	032a87        	blt	a10, a8, 0x2423
    241f:	120c      	movi.n	a2, 1
    2421:	f01d      	excw
    2423:	2c2cd2        	l32i	a13, a12, 176
    2426:	2c9b76        	excw
    2429:	d8a1c2        	movi	a12, 0x1d8
    242c:	c1cac0        	mul16u	a12, a10, a12
    242f:	cdca      	add.n	a12, a13, a12
    2431:	010cb2        	l8ui	a11, a12, 1
    2434:	151be7        	beq	a11, a14, 0x244d
    2437:	169bf7        	bne	a11, a15, 0x2451
    243a:	030c82        	l8ui	a8, a12, 3
    243d:	08dc      	bnez.n	a8, 0x2451
    243f:	0e22f6        	bgeui	a2, 2, 0x2451
    2442:	842781        	l32r	a8, 0xfffe34e0
    2445:	f888      	l32i.n	a8, a8, 60
    2447:	8430a1        	l32r	a10, 0xfffe3508
    244a:	0008e0        	excw
    244d:	020c      	movi.n	a2, 0
    244f:	f01d      	excw
    2451:	aa1b      	addi.n	a10, a10, 1
    2453:	74a0a0        	extui	a10, a10, 0, 8
    2456:	fff146        	j	0x241f
    2459:	000000        	ill
    245c:	006136        	excw
    245f:	da0c      	movi.n	a10, 13
    2461:	0b1c      	movi.n	a11, 16
    2463:	840781        	l32r	a8, 0xfffe3480
    2466:	841731        	l32r	a3, 0xfffe34c4
    2469:	d8a192        	movi	a9, 0x1d8
    246c:	c19290        	mul16u	a9, a2, a9
    246f:	2c2332        	l32i	a3, a3, 176
    2472:	7888      	l32i.n	a8, a8, 28
    2474:	339a      	add.n	a3, a3, a9
    2476:	0008e0        	excw
    2479:	0a7d      	mov.n	a7, a10
    247b:	2acc      	bnez.n	a10, 0x2481
    247d:	124c      	movi.n	a2, 65
    247f:	f01d      	excw
    2481:	02ad      	mov.n	a10, a2
    2483:	690c      	movi.n	a9, 6
    2485:	2313f2        	l16ui	a15, a3, 70
    2488:	841a81        	l32r	a8, 0xfffe34f0
    248b:	1d0c      	movi.n	a13, 1
    248d:	eca0b2        	movi	a11, 236
    2490:	b3ba      	add.n	a11, a3, a11
    2492:	0dcd      	mov.n	a12, a13
    2494:	3d2882        	l32i	a8, a8, 244
    2497:	90fff0        	addx2	a15, a15, a15
    249a:	90ff90        	addx2	a15, a15, a9
    249d:	0051f2        	s16i	a15, a1, 0
    24a0:	0413e2        	l16ui	a14, a3, 8
    24a3:	ae0392        	l8ui	a9, a3, 174
    24a6:	eefa      	add.n	a14, a14, a15
    24a8:	99ea      	add.n	a9, a9, a14
    24aa:	992b      	addi.n	a9, a9, 2
    24ac:	f49090        	extui	a9, a9, 0, 16
    24af:	005192        	s16i	a9, a1, 0
    24b2:	839d90        	moveqz	a9, a13, a9
    24b5:	005192        	s16i	a9, a1, 0
    24b8:	0008e0        	excw
    24bb:	7f1362        	l16ui	a6, a3, 254
    24be:	201342        	l16ui	a4, a3, 64
    24c1:	7c1352        	l16ui	a5, a3, 248
    24c4:	04ad      	mov.n	a10, a4
    24c6:	05bd      	mov.n	a11, a5
    24c8:	094e25        	excw
    24cb:	90c540        	addx2	a12, a5, a4
    24ce:	4a1b      	addi.n	a4, a10, 1
    24d0:	c14540        	mul16u	a4, a5, a4
    24d3:	211382        	l16ui	a8, a3, 66
    24d6:	464a      	add.n	a4, a6, a4
    24d8:	c04480        	sub	a4, a4, a8
    24db:	f44040        	extui	a4, a4, 0, 16
    24de:	0d24c7        	blt	a4, a12, 0x24ef
    24e1:	8418a1        	l32r	a10, 0xfffe3544
    24e4:	0b0c      	movi.n	a11, 0
    24e6:	b532e5        	excw
    24e9:	7c1352        	l16ui	a5, a3, 248
    24ec:	7f1362        	l16ui	a6, a3, 254
    24ef:	093457        	bltu	a4, a5, 0x24fc
    24f2:	04ad      	mov.n	a10, a4
    24f4:	05bd      	mov.n	a11, a5
    24f6:	095065        	excw
    24f9:	f440a0        	extui	a4, a10, 0, 16
    24fc:	7d1382        	l16ui	a8, a3, 250
    24ff:	215362        	s16i	a6, a3, 66
    2502:	1188f0        	slli	a8, a8, 1
    2505:	225382        	s16i	a8, a3, 68
    2508:	07b547        	bgeu	a5, a4, 0x2513
    250b:	8418a1        	l32r	a10, 0xfffe356c
    250e:	0b0c      	movi.n	a11, 0
    2510:	b53025        	excw
    2513:	160c      	movi.n	a6, 1
    2515:	841a51        	l32r	a5, 0xfffe3580
    2518:	03ad      	mov.n	a10, a3
    251a:	8a2582        	l32i	a8, a5, 0x228
    251d:	01bd      	mov.n	a11, a1
    251f:	0008e0        	excw
    2522:	41e940        	srli	a14, a4, 9
    2525:	41f140        	srli	a15, a4, 1
    2528:	0a0792        	l8ui	a9, a7, 10
    252b:	0a3c      	movi.n	a10, 48
    252d:	997a      	add.n	a9, a9, a7
    252f:	0d0982        	l8ui	a8, a9, 13
    2532:	cfa0b2        	movi	a11, 207
    2535:	1088b0        	and	a8, a8, a11
    2538:	2088a0        	or	a8, a8, a10
    253b:	0d4982        	s8i	a8, a9, 13
    253e:	0a07d2        	l8ui	a13, a7, 10
    2541:	0c0c      	movi.n	a12, 0
    2543:	dd7a      	add.n	a13, a13, a7
    2545:	104dc2        	s8i	a12, a13, 16
    2548:	114d62        	s8i	a6, a13, 17
    254b:	124df2        	s8i	a15, a13, 18
    254e:	134de2        	s8i	a14, a13, 19
    2551:	7c13b2        	l16ui	a11, a3, 248
    2554:	41b1b0        	srli	a11, a11, 1
    2557:	144db2        	s8i	a11, a13, 20
    255a:	7c13a2        	l16ui	a10, a3, 248
    255d:	41a9a0        	srli	a10, a10, 9
    2560:	154da2        	s8i	a10, a13, 21
    2563:	7e1392        	l16ui	a9, a3, 252
    2566:	164d92        	s8i	a9, a13, 22
    2569:	7e1382        	l16ui	a8, a3, 252
    256c:	418880        	srli	a8, a8, 8
    256f:	174d82        	s8i	a8, a13, 23
    2572:	7a13f2        	l16ui	a15, a3, 244
    2575:	184df2        	s8i	a15, a13, 24
    2578:	7a13e2        	l16ui	a14, a3, 244
    257b:	41e8e0        	srli	a14, a14, 8
    257e:	194de2        	s8i	a14, a13, 25
    2581:	0011b2        	l16ui	a11, a1, 0
    2584:	1a4db2        	s8i	a11, a13, 26
    2587:	001192        	l16ui	a9, a1, 0
    258a:	02ad      	mov.n	a10, a2
    258c:	419890        	srli	a9, a9, 8
    258f:	1b4d92        	s8i	a9, a13, 27
    2592:	522582        	l32i	a8, a5, 0x148
    2595:	07bd      	mov.n	a11, a7
    2597:	0008e0        	excw
    259a:	020c      	movi.n	a2, 0
    259c:	4acc      	bnez.n	a10, 0x25a4
    259e:	0011a2        	l16ui	a10, a1, 0
    25a1:	5553a2        	s16i	a10, a3, 170
    25a4:	f01d      	excw
    25a6:	360000        	excw
    25a9:	410061        	l32r	a6, 0xfffd29ac
    25ac:	a28417        	bany	a4, a1, 0x2552
    25af:	820104        	excw
    25b2:	a70004        	excw
    25b5:	aa0432        	l8ui	a3, a4, 170
    25b8:	8788      	l32i.n	a8, a7, 32
    25ba:	a10a22        	l8ui	a2, a10, 161
    25bd:	8418      	l32i.n	a1, a4, 32
    25bf:	0b0c      	movi.n	a11, 0
    25c1:	b52525        	excw
    25c4:	0104a2        	l8ui	a10, a4, 1
    25c7:	842661        	l32r	a6, 0xfffe3660
    25ca:	841a71        	l32r	a7, 0xfffe3634
    25cd:	ffa0b2        	movi	a11, 255
    25d0:	c052a0        	sub	a5, a2, a10
    25d3:	e804a2        	l8ui	a10, a4, 232
    25d6:	745050        	extui	a5, a5, 0, 8
    25d9:	1f1ab7        	beq	a10, a11, 0x25fc
    25dc:	6846b2        	s8i	a11, a6, 104
    25df:	1912a7        	beq	a2, a10, 0x25fc
    25e2:	842d91        	l32r	a9, 0xfffe3698
    25e5:	8f0982        	l8ui	a8, a9, 143
    25e8:	afc992        	addi	a9, a9, -81
    25eb:	b08890        	addx8	a8, a8, a9
    25ee:	800882        	l8ui	a8, a8, 128
    25f1:	0718a7        	beq	a8, a10, 0x25fc
    25f4:	312782        	l32i	a8, a7, 196
    25f7:	0b0c      	movi.n	a11, 0
    25f9:	0008e0        	excw
    25fc:	05ad      	mov.n	a10, a5
    25fe:	2b2782        	l32i	a8, a7, 172
    2601:	0b0c      	movi.n	a11, 0
    2603:	0008e0        	excw
    2606:	338c      	beqz.n	a3, 0x260d
    2608:	684622        	s8i	a2, a6, 104
    260b:	f01d      	excw
    260d:	0a0c      	movi.n	a10, 0
    260f:	8431b1        	l32r	a11, 0xfffe36d4
    2612:	030c      	movi.n	a3, 0
    2614:	842b81        	l32r	a8, 0xfffe36c0
    2617:	3924c2        	l32i	a12, a4, 228
    261a:	2c2492        	l32i	a9, a4, 176
    261d:	907550        	addx2	a7, a5, a5
    2620:	d8a1d2        	movi	a13, 0x1d8
    2623:	c122d0        	mul16u	a2, a2, a13
    2626:	11e7e0        	slli	a14, a7, 2
    2629:	01e9      	s32i.n	a14, a1, 0
    262b:	292a      	add.n	a2, a9, a2
    262d:	a077c0        	addx4	a7, a7, a12
    2630:	2778      	l32i.n	a7, a7, 8
    2632:	4cc222        	addi	a2, a2, 76
    2635:	107780        	and	a7, a7, a8
    2638:	a0d320        	addx4	a13, a3, a2
    263b:	1d68      	l32i.n	a6, a13, 4
    263d:	b05370        	addx8	a5, a3, a7
    2640:	a6ac      	beqz.n	a6, 0x266e
    2642:	15c8      	l32i.n	a12, a5, 4
    2644:	1da9      	s32i.n	a10, a13, 4
    2646:	4188c0        	srli	a8, a12, 8
    2649:	090b87        	bnone	a11, a8, 0x2656
    264c:	8418a1        	l32r	a10, 0xfffe36ac
    264f:	0b0c      	movi.n	a11, 0
    2651:	b51c25        	excw
    2654:	15c8      	l32i.n	a12, a5, 4
    2656:	840781        	l32r	a8, 0xfffe3674
    2659:	090c      	movi.n	a9, 0
    265b:	04a0c0        	extui	a10, a12, 0, 1
    265e:	0599      	s32i.n	a9, a5, 0
    2660:	15a9      	s32i.n	a10, a5, 4
    2662:	8888      	l32i.n	a8, a8, 32
    2664:	06ad      	mov.n	a10, a6
    2666:	0008e0        	excw
    2669:	0a0c      	movi.n	a10, 0
    266b:	8431b1        	l32r	a11, 0xfffe3730
    266e:	331b      	addi.n	a3, a3, 1
    2670:	743030        	extui	a3, a3, 0, 8
    2673:	c12366        	bnei	a3, 2, 0x2638
    2676:	0198      	l32i.n	a9, a1, 0
    2678:	392482        	l32i	a8, a4, 228
    267b:	889a      	add.n	a8, a8, a9
    267d:	2888      	l32i.n	a8, a8, 8
    267f:	458b80        	extui	a8, a8, 27, 5
    2682:	014282        	s8i	a8, a2, 1
    2685:	004282        	s8i	a8, a2, 0
    2688:	f01d      	excw
    268a:	360000        	excw
    268d:	410041        	l32r	a4, 0xfffd2a90
    2690:	308417        	bany	a4, a1, 0x26c4
    2693:	0c03e6        	bgei	a3, -1, 0x26a3
    2696:	302a      	add.n	a3, a0, a2
    2698:	973490        	excw
    269b:	022a      	add.n	a0, a2, a2
    269d:	006230        	rsil	a3, 2
    26a0:	d404c2        	l8ui	a12, a4, 212
    26a3:	ffa082        	movi	a8, 255
    26a6:	039c87        	bne	a12, a8, 0x26ad
    26a9:	c20c      	movi.n	a2, 12
    26ab:	f01d      	excw
    26ad:	ea0c      	movi.n	a10, 14
    26af:	841981        	l32r	a8, 0xfffe3714
    26b2:	2c24b2        	l32i	a11, a4, 176
    26b5:	d8a1d2        	movi	a13, 0x1d8
    26b8:	c1ccd0        	mul16u	a12, a12, a13
    26bb:	890c      	movi.n	a9, 8
    26bd:	bbca      	add.n	a11, a11, a12
    26bf:	014b92        	s8i	a9, a11, 1
    26c2:	322882        	l32i	a8, a8, 200
    26c5:	d404b2        	l8ui	a11, a4, 212
    26c8:	0008e0        	excw
    26cb:	082a26        	beqi	a10, 2, 0x26d7
    26ce:	841a81        	l32r	a8, 0xfffe3738
    26d1:	642882        	l32i	a8, a8, 0x190
    26d4:	0008e0        	excw
    26d7:	6d14a2        	l16ui	a10, a4, 218
    26da:	0042a2        	s8i	a10, a2, 0
    26dd:	6d1492        	l16ui	a9, a4, 218
    26e0:	419890        	srli	a9, a9, 8
    26e3:	014292        	s8i	a9, a2, 1
    26e6:	13e630        	wsr.ps	a3
    26e9:	002010        	rsync
    26ec:	020c      	movi.n	a2, 0
    26ee:	f01d      	excw
    26f0:	004136        	excw
    26f3:	638c      	beqz.n	a3, 0x26fd
    26f5:	000492        	l8ui	a9, a4, 0
    26f8:	782c      	movi.n	a8, 39
    26fa:	03b897        	bgeu	a8, a9, 0x2701
    26fd:	221c      	movi.n	a2, 18
    26ff:	f01d      	excw
    2701:	562c      	movi.n	a6, 37
    2703:	8433a1        	l32r	a10, 0xfffe37d0
    2706:	843251        	l32r	a5, 0xfffe37d0
    2709:	0212a7        	beq	a2, a10, 0x270f
    270c:	1a9257        	bne	a2, a5, 0x272a
    270f:	ea33b6        	bltui	a3, 3, 0x26fd
    2712:	0104a2        	l8ui	a10, a4, 1
    2715:	0204b2        	l8ui	a11, a4, 2
    2718:	e136a7        	bltu	a6, a10, 0x26fd
    271b:	de8bf6        	bgeui	a11, 8, 0x26fd
    271e:	089257        	bne	a2, a5, 0x272a
    2721:	d843b6        	bltui	a3, 4, 0x26fd
    2724:	0304c2        	l8ui	a12, a4, 3
    2727:	d22cf6        	bgeui	a12, 2, 0x26fd
    272a:	841771        	l32r	a7, 0xfffe3788
    272d:	d407e2        	l8ui	a14, a7, 212
    2730:	ffa0d2        	movi	a13, 255
    2733:	4b1ed7        	beq	a14, a13, 0x2782
    2736:	c20c      	movi.n	a2, 12
    2738:	f01d      	excw
    273a:	0dad      	mov.n	a10, a13
    273c:	2f2682        	l32i	a8, a6, 188
    273f:	2c0c      	movi.n	a12, 2
    2741:	0008e0        	excw
    2744:	6a8c      	beqz.n	a10, 0x274e
    2746:	8418a1        	l32r	a10, 0xfffe37a8
    2749:	0b0c      	movi.n	a11, 0
    274b:	b50ca5        	excw
    274e:	843491        	l32r	a9, 0xfffe3820
    2751:	8435a1        	l32r	a10, 0xfffe3828
    2754:	0998      	l32i.n	a9, a9, 0
    2756:	0a99      	s32i.n	a9, a10, 0
    2758:	842fa1        	l32r	a10, 0xfffe3814
    275b:	0020c0        	memw
    275e:	842a92        	l32i	a9, a10, 0x210
    2761:	eb7c      	movi.n	a11, -2
    2763:	1099b0        	and	a9, a9, a11
    2766:	0020c0        	memw
    2769:	ec1c      	movi.n	a12, 30
    276b:	0d0c      	movi.n	a13, 0
    276d:	846a92        	s32i	a9, a10, 0x210
    2770:	841981        	l32r	a8, 0xfffe37d4
    2773:	d407b2        	l8ui	a11, a7, 212
    2776:	312882        	l32i	a8, a8, 196
    2779:	ea0c      	movi.n	a10, 14
    277b:	0008e0        	excw
    277e:	020c      	movi.n	a2, 0
    2780:	f01d      	excw
    2782:	8436a1        	l32r	a10, 0xfffe385c
    2785:	0b0c      	movi.n	a11, 0
    2787:	0c1c      	movi.n	a12, 16
    2789:	0945a5        	excw
    278c:	842631        	l32r	a3, 0xfffe3824
    278f:	1c0c      	movi.n	a12, 1
    2791:	5543c2        	s8i	a12, a3, 85
    2794:	0004a2        	l8ui	a10, a4, 0
    2797:	5643a2        	s8i	a10, a3, 86
    279a:	2a9c      	beqz.n	a10, 0x27b0
    279c:	6b2c      	movi.n	a11, 38
    279e:	04aa66        	bnei	a10, 12, 0x27a6
    27a1:	0b6d      	mov.n	a6, a11
    27a3:	000246        	j	0x27b0
    27a6:	02aab6        	bltui	a10, 12, 0x27ac
    27a9:	002086        	j	0x282f
    27ac:	9a0b      	addi.n	a9, a10, -1
    27ae:	096d      	mov.n	a6, a9
    27b0:	564362        	s8i	a6, a3, 86
    27b3:	841a61        	l32r	a6, 0xfffe381c
    27b6:	da0c      	movi.n	a10, 13
    27b8:	182682        	l32i	a8, a6, 96
    27bb:	1b0c      	movi.n	a11, 1
    27bd:	0008e0        	excw
    27c0:	5443a2        	s8i	a10, a3, 84
    27c3:	ffa0b2        	movi	a11, 255
    27c6:	611ab7        	beq	a10, a11, 0x282b
    27c9:	843391        	l32r	a9, 0xfffe3898
    27cc:	0a0c      	movi.n	a10, 0
    27ce:	021297        	beq	a2, a9, 0x27d4
    27d1:	839257        	bne	a2, a5, 0x2758
    27d4:	5543a2        	s8i	a10, a3, 85
    27d7:	0104b2        	l8ui	a11, a4, 1
    27da:	5743b2        	s8i	a11, a3, 87
    27dd:	0204a2        	l8ui	a10, a4, 2
    27e0:	5843a2        	s8i	a10, a3, 88
    27e3:	229257        	bne	a2, a5, 0x2809
    27e6:	8437a1        	l32r	a10, 0xfffe38c4
    27e9:	690c      	movi.n	a9, 6
    27eb:	0304d2        	l8ui	a13, a4, 3
    27ee:	2b0c      	movi.n	a11, 2
    27f0:	3c0c      	movi.n	a12, 3
    27f2:	83cbd0        	moveqz	a12, a11, a13
    27f5:	5543c2        	s8i	a12, a3, 85
    27f8:	012cf6        	bgeui	a12, 2, 0x27fd
    27fb:	0b9d      	mov.n	a9, a11
    27fd:	0020c0        	memw
    2800:	816a92        	s32i	a9, a10, 0x204
    2803:	d807a2        	l8ui	a10, a7, 216
    2806:	d707b2        	l8ui	a11, a7, 215
    2809:	652682        	l32i	a8, a6, 0x194
    280c:	0008e0        	excw
    280f:	0abd      	mov.n	a11, a10
    2811:	841f91        	l32r	a9, 0xfffe3890
    2814:	d407d2        	l8ui	a13, a7, 212
    2817:	7869a2        	s32i	a10, a9, 0x1e0
    281a:	f1ca56        	bnez	a10, 0x273a
    281d:	192682        	l32i	a8, a6, 100
    2820:	0dad      	mov.n	a10, a13
    2822:	0008e0        	excw
    2825:	ffa092        	movi	a9, 255
    2828:	544392        	s8i	a9, a3, 84
    282b:	720c      	movi.n	a2, 7
    282d:	f01d      	excw
    282f:	803ba7        	bltu	a11, a10, 0x27b3
    2832:	feca92        	addi	a9, a10, -2
    2835:	ffdd46        	j	0x27ae
    2838:	004136        	excw
    283b:	da0c      	movi.n	a10, 13
    283d:	840781        	l32r	a8, 0xfffe385c
    2840:	f43030        	extui	a3, a3, 0, 16
    2843:	7888      	l32i.n	a8, a8, 28
    2845:	03bd      	mov.n	a11, a3
    2847:	0008e0        	excw
    284a:	3acc      	bnez.n	a10, 0x2851
    284c:	0a0c      	movi.n	a10, 0
    284e:	002546        	j	0x28e7
    2851:	0a0ae2        	l8ui	a14, a10, 10
    2854:	0f0c      	movi.n	a15, 0
    2856:	eeaa      	add.n	a14, a14, a10
    2858:	eecb      	addi.n	a14, a14, 12
    285a:	b2bc      	beqz.n	a2, 0x2899
    285c:	021266        	bnei	a2, 1, 0x2862
    285f:	002206        	j	0x28eb
    2862:	fec282        	addi	a8, a2, -2
    2865:	097816        	beqz	a8, 0x2900
    2868:	fdc292        	addi	a9, a2, -3
    286b:	0a6916        	beqz	a9, 0x2915
    286e:	fcc2b2        	addi	a11, a2, -4
    2871:	0f1b16        	beqz	a11, 0x2966
    2874:	fbc2c2        	addi	a12, a2, -5
    2877:	101c16        	beqz	a12, 0x297c
    287a:	fac2d2        	addi	a13, a2, -6
    287d:	110d16        	beqz	a13, 0x2991
    2880:	637266        	bnei	a2, 7, 0x28e7
    2883:	060316        	beqz	a3, 0x28e7
    2886:	aaa0b2        	movi	a11, 170
    2889:	004eb2        	s8i	a11, a14, 0
    288c:	ff1b      	addi.n	a15, a15, 1
    288e:	ee1b      	addi.n	a14, a14, 1
    2890:	f4f0f0        	extui	a15, a15, 0, 16
    2893:	f23f37        	bltu	a15, a3, 0x2889
    2896:	001346        	j	0x28e7
    2899:	04a316        	beqz	a3, 0x28e7
    289c:	040c      	movi.n	a4, 0
    289e:	ffa1c2        	movi	a12, 0x1ff
    28a1:	090c      	movi.n	a9, 0
    28a3:	0b0c      	movi.n	a11, 0
    28a5:	0f2d      	mov.n	a2, a15
    28a7:	52ea      	add.n	a5, a2, a14
    28a9:	0045f2        	s8i	a15, a5, 0
    28ac:	221b      	addi.n	a2, a2, 1
    28ae:	441b      	addi.n	a4, a4, 1
    28b0:	f44040        	extui	a4, a4, 0, 16
    28b3:	0484c0        	extui	a8, a12, 4, 1
    28b6:	401900        	ssl	a9
    28b9:	04d0c0        	extui	a13, a12, 0, 1
    28bc:	991b      	addi.n	a9, a9, 1
    28be:	f49090        	extui	a9, a9, 0, 16
    28c1:	41c1c0        	srli	a12, a12, 1
    28c4:	8d8a      	add.n	a8, a13, a8
    28c6:	048080        	extui	a8, a8, 0, 1
    28c9:	a1dd00        	sll	a13, a13
    28cc:	20bbd0        	or	a11, a11, a13
    28cf:	118880        	slli	a8, a8, 8
    28d2:	20cc80        	or	a12, a12, a8
    28d5:	f4c0c0        	extui	a12, a12, 0, 16
    28d8:	d789b6        	bltui	a9, 8, 0x28b3
    28db:	0045b2        	s8i	a11, a5, 0
    28de:	090c      	movi.n	a9, 0
    28e0:	0b0c      	movi.n	a11, 0
    28e2:	52ea      	add.n	a5, a2, a14
    28e4:	c13437        	bltu	a4, a3, 0x28a9
    28e7:	0a2d      	mov.n	a2, a10
    28e9:	f01d      	excw
    28eb:	ff8316        	beqz	a3, 0x28e7
    28ee:	fb0c      	movi.n	a11, 15
    28f0:	004eb2        	s8i	a11, a14, 0
    28f3:	ff1b      	addi.n	a15, a15, 1
    28f5:	ee1b      	addi.n	a14, a14, 1
    28f7:	f4f0f0        	extui	a15, a15, 0, 16
    28fa:	f23f37        	bltu	a15, a3, 0x28f0
    28fd:	fff986        	j	0x28e7
    2900:	fe3316        	beqz	a3, 0x28e7
    2903:	5b5c      	movi.n	a11, 85
    2905:	004eb2        	s8i	a11, a14, 0
    2908:	ff1b      	addi.n	a15, a15, 1
    290a:	ee1b      	addi.n	a14, a14, 1
    290c:	f4f0f0        	extui	a15, a15, 0, 16
    290f:	f23f37        	bltu	a15, a3, 0x2905
    2912:	fff446        	j	0x28e7
    2915:	8438c1        	l32r	a12, 0xfffe39f8
    2918:	fcb316        	beqz	a3, 0x28e7
    291b:	040c      	movi.n	a4, 0
    291d:	090c      	movi.n	a9, 0
    291f:	0b0c      	movi.n	a11, 0
    2921:	0f2d      	mov.n	a2, a15
    2923:	52ea      	add.n	a5, a2, a14
    2925:	0045f2        	s8i	a15, a5, 0
    2928:	221b      	addi.n	a2, a2, 1
    292a:	441b      	addi.n	a4, a4, 1
    292c:	f44040        	extui	a4, a4, 0, 16
    292f:	0484c0        	extui	a8, a12, 4, 1
    2932:	401900        	ssl	a9
    2935:	04d0c0        	extui	a13, a12, 0, 1
    2938:	991b      	addi.n	a9, a9, 1
    293a:	f49090        	extui	a9, a9, 0, 16
    293d:	41c1c0        	srli	a12, a12, 1
    2940:	8d8a      	add.n	a8, a13, a8
    2942:	048080        	extui	a8, a8, 0, 1
    2945:	a1dd00        	sll	a13, a13
    2948:	20bbd0        	or	a11, a11, a13
    294b:	118880        	slli	a8, a8, 8
    294e:	20cc80        	or	a12, a12, a8
    2951:	f4c0c0        	extui	a12, a12, 0, 16
    2954:	d789b6        	bltui	a9, 8, 0x292f
    2957:	0045b2        	s8i	a11, a5, 0
    295a:	090c      	movi.n	a9, 0
    295c:	0b0c      	movi.n	a11, 0
    295e:	52ea      	add.n	a5, a2, a14
    2960:	c13437        	bltu	a4, a3, 0x2925
    2963:	ffe006        	j	0x28e7
    2966:	f7d316        	beqz	a3, 0x28e7
    2969:	ffa0b2        	movi	a11, 255
    296c:	004eb2        	s8i	a11, a14, 0
    296f:	ff1b      	addi.n	a15, a15, 1
    2971:	ee1b      	addi.n	a14, a14, 1
    2973:	f4f0f0        	extui	a15, a15, 0, 16
    2976:	f23f37        	bltu	a15, a3, 0x296c
    2979:	ffda86        	j	0x28e7
    297c:	f67316        	beqz	a3, 0x28e7
    297f:	0fbd      	mov.n	a11, a15
    2981:	004ef2        	s8i	a15, a14, 0
    2984:	bb1b      	addi.n	a11, a11, 1
    2986:	ee1b      	addi.n	a14, a14, 1
    2988:	f4b0b0        	extui	a11, a11, 0, 16
    298b:	f23b37        	bltu	a11, a3, 0x2981
    298e:	ffd546        	j	0x28e7
    2991:	f52316        	beqz	a3, 0x28e7
    2994:	f0a0b2        	movi	a11, 240
    2997:	004eb2        	s8i	a11, a14, 0
    299a:	ff1b      	addi.n	a15, a15, 1
    299c:	ee1b      	addi.n	a14, a14, 1
    299e:	f4f0f0        	extui	a15, a15, 0, 16
    29a1:	f23f37        	bltu	a15, a3, 0x2997
    29a4:	ffcfc6        	j	0x28e7
    29a7:	413600        	srli	a3, a0, 6
    29aa:	172100        	excw
    29ad:	022284        	excw
    29b0:	32e9      	s32i.n	a14, a2, 12
    29b2:	30ffa0        	xor	a15, a15, a10
    29b5:	0cc022        	addi	a2, a0, 12
    29b8:	232013        	excw
    29bb:	f01d93        	excw
    29be:	360000        	excw
    29c1:	310041        	l32r	a4, 0xfffcedc4
    29c4:	888427        	bany	a4, a2, 0x2950
    29c7:	08e033        	excw
    29ca:	42a200        	excw
    29cd:	338800        	excw
    29d0:	0008e0        	excw
    29d3:	0142a2        	s8i	a10, a2, 1
    29d6:	3388      	l32i.n	a8, a3, 12
    29d8:	0008e0        	excw
    29db:	0242a2        	s8i	a10, a2, 2
    29de:	3388      	l32i.n	a8, a3, 12
    29e0:	0008e0        	excw
    29e3:	0342a2        	s8i	a10, a2, 3
    29e6:	3388      	l32i.n	a8, a3, 12
    29e8:	0008e0        	excw
    29eb:	0442a2        	s8i	a10, a2, 4
    29ee:	3388      	l32i.n	a8, a3, 12
    29f0:	0008e0        	excw
    29f3:	0542a2        	s8i	a10, a2, 5
    29f6:	3388      	l32i.n	a8, a3, 12
    29f8:	0008e0        	excw
    29fb:	0642a2        	s8i	a10, a2, 6
    29fe:	3388      	l32i.n	a8, a3, 12
    2a00:	0008e0        	excw
    2a03:	0742a2        	s8i	a10, a2, 7
    2a06:	f01d      	excw
    2a08:	004136        	excw
    2a0b:	02ad      	mov.n	a10, a2
    2a0d:	842281        	l32r	a8, 0xfffe3a98
    2a10:	03bd      	mov.n	a11, a3
    2a12:	8888      	l32i.n	a8, a8, 32
    2a14:	04cd      	mov.n	a12, a4
    2a16:	0008e0        	excw
    2a19:	0a2d      	mov.n	a2, a10
    2a1b:	f01d      	excw
    2a1d:	000000        	ill
    2a20:	004136        	excw
    2a23:	844151        	l32r	a5, 0xfffe3b28
    2a26:	843b21        	l32r	a2, 0xfffe3b14
    2a29:	842281        	l32r	a8, 0xfffe3ab4
    2a2c:	843fb1        	l32r	a11, 0xfffe3b28
    2a2f:	843ec1        	l32r	a12, 0xfffe3b28
    2a32:	843a41        	l32r	a4, 0xfffe3b1c
    2a35:	843ce1        	l32r	a14, 0xfffe3b28
    2a38:	843dd1        	l32r	a13, 0xfffe3b2c
    2a3b:	843931        	l32r	a3, 0xfffe3b20
    2a3e:	8440a1        	l32r	a10, 0xfffe3b40
    2a41:	bd63a2        	s32i	a10, a3, 0x2f4
    2a44:	9d23f2        	l32i	a15, a3, 0x274
    2a47:	8963d2        	s32i	a13, a3, 0x224
    2a4a:	9c63e2        	s32i	a14, a3, 0x270
    2a4d:	9e6342        	s32i	a4, a3, 0x278
    2a50:	844241        	l32r	a4, 0xfffe3b58
    2a53:	bb63b2        	s32i	a11, a3, 0x2ec
    2a56:	840bd1        	l32r	a13, 0xfffe3a84
    2a59:	38f9      	s32i.n	a15, a8, 12
    2a5b:	9d6322        	s32i	a2, a3, 0x274
    2a5e:	8445e1        	l32r	a14, 0xfffe3b74
    2a61:	8b2392        	l32i	a9, a3, 0x22c
    2a64:	cf6342        	s32i	a4, a3, 0x33c
    2a67:	9363c2        	s32i	a12, a3, 0x24c
    2a6a:	844941        	l32r	a4, 0xfffe3b90
    2a6d:	8447c1        	l32r	a12, 0xfffe3b8c
    2a70:	2899      	s32i.n	a9, a8, 8
    2a72:	8b6352        	s32i	a5, a3, 0x22c
    2a75:	6163e2        	s32i	a14, a3, 0x184
    2a78:	844321        	l32r	a2, 0xfffe3b84
    2a7b:	8444f1        	l32r	a15, 0xfffe3b8c
    2a7e:	5dd8      	l32i.n	a13, a13, 20
    2a80:	4a63f2        	s32i	a15, a3, 0x128
    2a83:	d06322        	s32i	a2, a3, 0x340
    2a86:	8446f1        	l32r	a15, 0xfffe3ba0
    2a89:	844821        	l32r	a2, 0xfffe3bac
    2a8c:	7163f2        	s32i	a15, a3, 0x1c4
    2a8f:	844af1        	l32r	a15, 0xfffe3bb8
    2a92:	1f2de2        	l32i	a14, a13, 124
    2a95:	48e9      	s32i.n	a14, a8, 16
    2a97:	844be1        	l32r	a14, 0xfffe3bc4
    2a9a:	1f6dc2        	s32i	a12, a13, 124
    2a9d:	6262f2        	s32i	a15, a2, 0x188
    2aa0:	844dc1        	l32r	a12, 0xfffe3bd4
    2aa3:	844cd1        	l32r	a13, 0xfffe3bd4
    2aa6:	612252        	l32i	a5, a2, 0x184
    2aa9:	4c2392        	l32i	a9, a3, 0x130
    2aac:	5e23a2        	l32i	a10, a3, 0x178
    2aaf:	6023b2        	l32i	a11, a3, 0x180
    2ab2:	78b9      	s32i.n	a11, a8, 28
    2ab4:	68a9      	s32i.n	a10, a8, 24
    2ab6:	8899      	s32i.n	a9, a8, 32
    2ab8:	5859      	s32i.n	a5, a8, 20
    2aba:	616242        	s32i	a4, a2, 0x184
    2abd:	6063e2        	s32i	a14, a3, 0x180
    2ac0:	5e63d2        	s32i	a13, a3, 0x178
    2ac3:	4c63c2        	s32i	a12, a3, 0x130
    2ac6:	845341        	l32r	a4, 0xfffe3c14
    2ac9:	845251        	l32r	a5, 0xfffe3c14
    2acc:	845091        	l32r	a9, 0xfffe3c0c
    2acf:	844fa1        	l32r	a10, 0xfffe3c0c
    2ad2:	844eb1        	l32r	a11, 0xfffe3c0c
    2ad5:	8e63b2        	s32i	a11, a3, 0x238
    2ad8:	6363a2        	s32i	a10, a3, 0x18c
    2adb:	ad6392        	s32i	a9, a3, 0x2b4
    2ade:	a26352        	s32i	a5, a3, 0x288
    2ae1:	a56342        	s32i	a4, a3, 0x294
    2ae4:	845421        	l32r	a2, 0xfffe3c34
    2ae7:	4e6322        	s32i	a2, a3, 0x138
    2aea:	845181        	l32r	a8, 0xfffe3c30
    2aed:	a36382        	s32i	a8, a3, 0x28c
    2af0:	f01d      	excw
    2af2:	360000        	excw
    2af5:	310041        	l32r	a4, 0xfffceef8
    2af8:	818456        	bnez	a4, 0x2314
    2afb:	208455        	excw
    2afe:	80a052        	movi	a5, 128
    2b01:	58b055        	excw
    2b04:	120ca5        	excw
    2b07:	0a1537        	beq	a5, a3, 0x2b15
    2b0a:	845791        	l32r	a9, 0xfffe3c68
    2b0d:	142992        	l32i	a9, a9, 80
    2b10:	011957        	beq	a9, a5, 0x2b15
    2b13:	020c      	movi.n	a2, 0
    2b15:	f01d      	excw
    2b17:	613600        	excw
    2b1a:	559100        	extui	a9, a0, 17, 6
    2b1d:	070c84        	excw
    2b20:	6409c2        	l8ui	a12, a9, 100
    2b23:	0129      	s32i.n	a2, a1, 0
    2b25:	046c16        	beqz	a12, 0x2b6f
    2b28:	8458b1        	l32r	a11, 0xfffe3c88
    2b2b:	420c      	movi.n	a2, 4
    2b2d:	096d      	mov.n	a6, a9
    2b2f:	4698      	l32i.n	a9, a6, 16
    2b31:	022926        	beqi	a9, 2, 0x2b37
    2b34:	2c1966        	bnei	a9, 1, 0x2b64
    2b37:	0b88      	l32i.n	a8, a11, 0
    2b39:	342882        	l32i	a8, a8, 208
    2b3c:	063866        	bnei	a8, 3, 0x2b46
    2b3f:	07ad      	mov.n	a10, a7
    2b41:	fffb25        	excw
    2b44:	9aec      	bnez.n	a10, 0x2b71
    2b46:	03bd      	mov.n	a11, a3
    2b48:	04cd      	mov.n	a12, a4
    2b4a:	05dd      	mov.n	a13, a5
    2b4c:	a688      	l32i.n	a8, a6, 40
    2b4e:	01a8      	l32i.n	a10, a1, 0
    2b50:	0008e0        	excw
    2b53:	0a2d      	mov.n	a2, a10
    2b55:	021a26        	beqi	a10, 1, 0x2b5b
    2b58:	152a66        	bnei	a10, 2, 0x2b71
    2b5b:	8455c1        	l32r	a12, 0xfffe3cb0
    2b5e:	8458b1        	l32r	a11, 0xfffe3cc0
    2b61:	640cc2        	l8ui	a12, a12, 100
    2b64:	28c662        	addi	a6, a6, 40
    2b67:	771b      	addi.n	a7, a7, 1
    2b69:	c237c7        	bltu	a7, a12, 0x2b2f
    2b6c:	000046        	j	0x2b71
    2b6f:	420c      	movi.n	a2, 4
    2b71:	f01d      	excw
    2b73:	413600        	srli	a3, a0, 6
    2b76:	573100        	excw
    2b79:	592184        	excw
    2b7c:	232984        	excw
    2b7f:	f01d      	excw
    2b81:	000000        	ill
    2b84:	004136        	excw
    2b87:	842a91        	l32r	a9, 0xfffe3c30
    2b8a:	b08220        	addx8	a8, a2, a2
    2b8d:	a08890        	addx4	a8, a8, a9
    2b90:	641832        	l16ui	a3, a8, 200
    2b93:	651822        	l16ui	a2, a8, 202
    2b96:	076347        	bbci	a3, 4, 0x2ba1
    2b99:	1122f0        	slli	a2, a2, 1
    2b9c:	f42020        	extui	a2, a2, 0, 16
    2b9f:	f01d      	excw
    2ba1:	f01d      	excw
    2ba3:	413600        	srli	a3, a0, 6
    2ba6:	5a8100        	excw
    2ba9:	a19284        	excw
    2bac:	90d8      	l32i.n	a13, a0, 36
    2bae:	31c192        	addi	a9, a1, 49
    2bb1:	845b      	addi.n	a8, a4, 5
    2bb3:	289a      	add.n	a2, a8, a9
    2bb5:	7f2292        	l32i	a9, a2, 0x1fc
    2bb8:	10a930        	and	a10, a9, a3
    2bbb:	1069d7        	bbci	a9, 13, 0x2bcf
    2bbe:	0d69e7        	bbci	a9, 14, 0x2bcf
    2bc1:	845ca1        	l32r	a10, 0xfffe3d34
    2bc4:	0b0c      	movi.n	a11, 0
    2bc6:	b4c4e5        	excw
    2bc9:	7f2292        	l32i	a9, a2, 0x1fc
    2bcc:	10a930        	and	a10, a9, a3
    2bcf:	1acc      	bnez.n	a10, 0x2bd4
    2bd1:	037907        	bbci	a9, 16, 0x2bd8
    2bd4:	120c      	movi.n	a2, 1
    2bd6:	f01d      	excw
    2bd8:	020c      	movi.n	a2, 0
    2bda:	f01d      	excw
    2bdc:	004136        	excw
    2bdf:	842c81        	l32r	a8, 0xfffe3c90
    2be2:	340882        	l8ui	a8, a8, 52
    2be5:	238800        	excw
    2be8:	0718e6        	bgei	a8, 1, 0x2bf3
    2beb:	845ca1        	l32r	a10, 0xfffe3d5c
    2bee:	0b0c      	movi.n	a11, 0
    2bf0:	b4c225        	excw
    2bf3:	ffa092        	movi	a9, 255
    2bf6:	079297        	bne	a2, a9, 0x2c01
    2bf9:	845ca1        	l32r	a10, 0xfffe3d6c
    2bfc:	0b0c      	movi.n	a11, 0
    2bfe:	b4c165        	excw
    2c01:	845d31        	l32r	a3, 0xfffe3d78
    2c04:	d8a182        	movi	a8, 0x1d8
    2c07:	c18280        	mul16u	a8, a2, a8
    2c0a:	338a      	add.n	a3, a3, a8
    2c0c:	7f03a2        	l8ui	a10, a3, 127
    2c0f:	6acc      	bnez.n	a10, 0x2c19
    2c11:	845ca1        	l32r	a10, 0xfffe3d84
    2c14:	0b0c      	movi.n	a11, 0
    2c16:	b4bfe5        	excw
    2c19:	8003a2        	l8ui	a10, a3, 128
    2c1c:	164ab6        	bltui	a10, 4, 0x2c36
    2c1f:	084a66        	bnei	a10, 4, 0x2c2b
    2c22:	845e91        	l32r	a9, 0xfffe3d9c
    2c25:	f62992        	l32i	a9, a9, 0x3d8
    2c28:	0ab297        	bgeu	a2, a9, 0x2c36
    2c2b:	845ca1        	l32r	a10, 0xfffe3d9c
    2c2e:	0b0c      	movi.n	a11, 0
    2c30:	b4be25        	excw
    2c33:	8003a2        	l8ui	a10, a3, 128
    2c36:	842a21        	l32r	a2, 0xfffe3ce0
    2c39:	a02a20        	addx4	a2, a10, a2
    2c3c:	1228      	l32i.n	a2, a2, 4
    2c3e:	f01d      	excw
    2c40:	004136        	excw
    2c43:	03bd      	mov.n	a11, a3
    2c45:	9a0c      	movi.n	a10, 9
    2c47:	841981        	l32r	a8, 0xfffe3cac
    2c4a:	842d91        	l32r	a9, 0xfffe3d00
    2c4d:	302882        	l32i	a8, a8, 192
    2c50:	774922        	s8i	a2, a9, 119
    2c53:	0008e0        	excw
    2c56:	f01d      	excw
    2c58:	004136        	excw
    2c5b:	845821        	l32r	a2, 0xfffe3dbc
    2c5e:	02a8      	l32i.n	a10, a2, 0
    2c60:	322a92        	l32i	a9, a10, 200
    2c63:	b9cc      	bnez.n	a9, 0x2c72
    2c65:	845ca1        	l32r	a10, 0xfffe3dd8
    2c68:	0b0c      	movi.n	a11, 0
    2c6a:	b4baa5        	excw
    2c6d:	02a8      	l32i.n	a10, a2, 0
    2c6f:	322a92        	l32i	a9, a10, 200
    2c72:	191966        	bnei	a9, 1, 0x2c8f
    2c75:	845f91        	l32r	a9, 0xfffe3df4
    2c78:	550982        	l8ui	a8, a9, 85
    2c7b:	020c      	movi.n	a2, 0
    2c7d:	089c      	beqz.n	a8, 0x2c91
    2c7f:	3c2ab2        	l32i	a11, a10, 240
    2c82:	8129c2        	l32i	a12, a9, 0x204
    2c85:	08eb07        	bbsi	a11, 0, 0x2c91
    2c88:	052c66        	bnei	a12, 2, 0x2c91
    2c8b:	120c      	movi.n	a2, 1
    2c8d:	f01d      	excw
    2c8f:	020c      	movi.n	a2, 0
    2c91:	f01d      	excw
    2c93:	413600        	srli	a3, a0, 6
    2c96:	60a100        	abs	a10, a0
    2c99:	20c084        	excw
    2c9c:	2a9200        	excw
    2c9f:	a4b285        	call0	0xfffa77c8
    2ca2:	99b000        	excw
    2ca5:	20c020        	or	a12, a0, a2
    2ca8:	618100        	excw
    2cab:	288284        	excw
    2cae:	6a9291        	l32r	a9, 0xfffdd6f8
    2cb1:	08e085        	call0	0xbabc
    2cb4:	248100        	extui	a8, a0, 1, 3
    2cb7:	288284        	excw
    2cba:	e04c      	movi.n	a0, 78
    2cbc:	0008      	l32i.n	a0, a0, 0
    2cbe:	0abc      	beqz.n	a10, 0x2cf2
    2cc0:	8462a1        	l32r	a10, 0xfffe3e48
    2cc3:	0020c0        	memw
    2cc6:	8463d1        	l32r	a13, 0xfffe3e54
    2cc9:	a82ac2        	l32i	a12, a10, 0x2a0
    2ccc:	10ccd0        	and	a12, a12, a13
    2ccf:	0020c0        	memw
    2cd2:	a86ac2        	s32i	a12, a10, 0x2a0
    2cd5:	0020c0        	memw
    2cd8:	8464b1        	l32r	a11, 0xfffe3e68
    2cdb:	802a92        	l32i	a9, a10, 0x200
    2cde:	2099b0        	or	a9, a9, a11
    2ce1:	0020c0        	memw
    2ce4:	842981        	l32r	a8, 0xfffe3d88
    2ce7:	806a92        	s32i	a9, a10, 0x200
    2cea:	1c2882        	l32i	a8, a8, 112
    2ced:	1a0c      	movi.n	a10, 1
    2cef:	0008e0        	excw
    2cf2:	fff665        	excw
    2cf5:	fadc      	bnez.n	a10, 0x2d18
    2cf7:	8465e1        	l32r	a14, 0xfffe3e8c
    2cfa:	845821        	l32r	a2, 0xfffe3e5c
    2cfd:	1ee8      	l32i.n	a14, a14, 4
    2cff:	0298      	l32i.n	a9, a2, 0
    2d01:	0eac      	beqz.n	a14, 0x2d25
    2d03:	322992        	l32i	a9, a9, 200
    2d06:	b9cc      	bnez.n	a9, 0x2d15
    2d08:	845ca1        	l32r	a10, 0xfffe3e78
    2d0b:	0b0c      	movi.n	a11, 0
    2d0d:	b4b065        	excw
    2d10:	0298      	l32i.n	a9, a2, 0
    2d12:	322992        	l32i	a9, a9, 200
    2d15:	0c1966        	bnei	a9, 1, 0x2d25
    2d18:	841981        	l32r	a8, 0xfffe3d7c
    2d1b:	0a0c      	movi.n	a10, 0
    2d1d:	122882        	l32i	a8, a8, 72
    2d20:	1b0c      	movi.n	a11, 1
    2d22:	0008e0        	excw
    2d25:	f01d      	excw
    2d27:	813600        	src	a3, a6, a0
    2d2a:	628100        	excw
    2d2d:	a09284        	excw
    2d30:	ff          	.byte 0xff
    2d31:	8467e1        	l32r	a14, 0xfffe3ed0
    2d34:	026d      	mov.n	a6, a2
    2d36:	03ad      	mov.n	a10, a3
    2d38:	842921        	l32r	a2, 0xfffe3ddc
    2d3b:	846631        	l32r	a3, 0xfffe3ed4
    2d3e:	ecce42        	addi	a4, a14, -20
    2d41:	f3cef2        	addi	a15, a14, -13
    2d44:	01d352        	addmi	a5, a3, 0x100
    2d47:	f9d372        	addmi	a7, a3, 0xfffff900
    2d4a:	0020c0        	memw
    2d4d:	11a9      	s32i.n	a10, a1, 4
    2d4f:	422882        	l32i	a8, a8, 0x108
    2d52:	3104c2        	l8ui	a12, a4, 49
    2d55:	2189      	s32i.n	a8, a1, 8
    2d57:	c08c90        	sub	a8, a12, a9
    2d5a:	0d9816        	beqz	a8, 0x2e37
    2d5d:	2d0482        	l8ui	a8, a4, 45
    2d60:	8468a1        	l32r	a10, 0xfffe3f00
    2d63:	17e807        	bbsi	a8, 0, 0x2d7e
    2d66:	846991        	l32r	a9, 0xfffe3f0c
    2d69:	ad2992        	l32i	a9, a9, 0x2b4
    2d6c:	dc13b2        	l16ui	a11, a3, 0x1b8
    2d6f:	c09690        	sub	a9, a6, a9
    2d72:	1099a0        	and	a9, a9, a10
    2d75:	1199f0        	slli	a9, a9, 1
    2d78:	02a9b7        	bge	a9, a11, 0x2d7e
    2d7b:	002e06        	j	0x2e37
    2d7e:	846a91        	l32r	a9, 0xfffe3f28
    2d81:	d8a1b2        	movi	a11, 0x1d8
    2d84:	c1bcb0        	mul16u	a11, a12, a11
    2d87:	db9a      	add.n	a13, a11, a9
    2d89:	9b0dd2        	l8ui	a13, a13, 155
    2d8c:	07ad16        	beqz	a13, 0x2e0a
    2d8f:	8467d1        	l32r	a13, 0xfffe3f2c
    2d92:	dbda      	add.n	a13, a11, a13
    2d94:	8c2dd2        	l32i	a13, a13, 0x230
    2d97:	040d66        	bnei	a13, -1, 0x2d9f
    2d9a:	0d0c      	movi.n	a13, 0
    2d9c:	000806        	j	0x2dc0
    2d9f:	0cad      	mov.n	a10, a12
    2da1:	ffe3a5        	excw
    2da4:	846bf1        	l32r	a15, 0xfffe3f50
    2da7:	3104c2        	l8ui	a12, a4, 49
    2daa:	d8a1b2        	movi	a11, 0x1d8
    2dad:	c1bcb0        	mul16u	a11, a12, a11
    2db0:	8fdb      	addi.n	a8, a15, 13
    2db2:	8b8a      	add.n	a8, a11, a8
    2db4:	8c2882        	l32i	a8, a8, 0x230
    2db7:	842be1        	l32r	a14, 0xfffe3e64
    2dba:	c0da80        	sub	a13, a10, a8
    2dbd:	10dde0        	and	a13, a13, a14
    2dc0:	4717e2        	l16ui	a14, a7, 142
    2dc3:	433de7        	bltu	a13, a14, 0x2e0a
    2dc6:	8b0782        	l8ui	a8, a7, 139
    2dc9:	d8bc      	beqz.n	a8, 0x2e0a
    2dcb:	846c91        	l32r	a9, 0xfffe3f7c
    2dce:	ab9a      	add.n	a10, a11, a9
    2dd0:	4c0aa2        	l8ui	a10, a10, 76
    2dd3:	0c4d      	mov.n	a4, a12
    2dd5:	280a16        	beqz	a10, 0x3059
    2dd8:	840761        	l32r	a6, 0xfffe3df4
    2ddb:	d8a132        	movi	a3, 0x1d8
    2dde:	c13c30        	mul16u	a3, a12, a3
    2de1:	846d81        	l32r	a8, 0xfffe3f98
    2de4:	539a      	add.n	a5, a3, a9
    2de6:	338a      	add.n	a3, a3, a8
    2de8:	152682        	l32i	a8, a6, 84
    2deb:	33a8      	l32i.n	a10, a3, 12
    2ded:	0008e0        	excw
    2df0:	562282        	l32i	a8, a2, 0x158
    2df3:	0abd      	mov.n	a11, a10
    2df5:	f00392        	l8ui	a9, a3, 240
    2df8:	04ad      	mov.n	a10, a4
    2dfa:	990b      	addi.n	a9, a9, -1
    2dfc:	f04392        	s8i	a9, a3, 240
    2dff:	0008e0        	excw
    2e02:	4c05a2        	l8ui	a10, a5, 76
    2e05:	fdfa56        	bnez	a10, 0x2de8
    2e08:	f01d      	excw
    2e0a:	3304a2        	l8ui	a10, a4, 51
    2e0d:	ffa0b2        	movi	a11, 255
    2e10:	049ab7        	bne	a10, a11, 0x2e18
    2e13:	0cad      	mov.n	a10, a12
    2e15:	3344c2        	s8i	a12, a4, 51
    2e18:	d8a1c2        	movi	a12, 0x1d8
    2e1b:	c1cac0        	mul16u	a12, a10, a12
    2e1e:	cfca      	add.n	a12, a15, a12
    2e20:	8c0cc2        	l8ui	a12, a12, 140
    2e23:	23cc00        	excw
    2e26:	021ce6        	bgei	a12, 1, 0x2e2c
    2e29:	008b86        	j	0x305b
    2e2c:	6d2282        	l32i	a8, a2, 0x1b4
    2e2f:	4b0c      	movi.n	a11, 4
    2e31:	0008e0        	excw
    2e34:	846bf1        	l32r	a15, 0xfffe3fe0
    2e37:	0b0c      	movi.n	a11, 0
    2e39:	300462        	l8ui	a6, a4, 48
    2e3c:	ffa092        	movi	a9, 255
    2e3f:	c09690        	sub	a9, a6, a9
    2e42:	2a7916        	beqz	a9, 0x30ed
    2e45:	d8a1a2        	movi	a10, 0x1d8
    2e48:	c1a6a0        	mul16u	a10, a6, a10
    2e4b:	846ed1        	l32r	a13, 0xfffe4004
    2e4e:	cafa      	add.n	a12, a10, a15
    2e50:	740cc2        	l8ui	a12, a12, 116
    2e53:	846f21        	l32r	a2, 0xfffe4010
    2e56:	5cdc      	bnez.n	a12, 0x2e6f
    2e58:	aada      	add.n	a10, a10, a13
    2e5a:	3b04c2        	l8ui	a12, a4, 59
    2e5d:	890a92        	l8ui	a9, a10, 137
    2e60:	6c8c      	beqz.n	a12, 0x2e6a
    2e62:	49cc      	bnez.n	a9, 0x2e6a
    2e64:	3b44b2        	s8i	a11, a4, 59
    2e67:	000106        	j	0x2e6f
    2e6a:	e91b      	addi.n	a14, a9, 1
    2e6c:	894ae2        	s8i	a14, a10, 137
    2e6f:	2198      	l32i.n	a9, a1, 8
    2e71:	d8a1c2        	movi	a12, 0x1d8
    2e74:	c1c6c0        	mul16u	a12, a6, a12
    2e77:	349090        	extui	a9, a9, 0, 4
    2e7a:	2c2a      	add.n	a2, a12, a2
    2e7c:	396926        	beqi	a9, 6, 0x2eb9
    2e7f:	3702a2        	l8ui	a10, a2, 55
    2e82:	3aec      	bnez.n	a10, 0x2ea9
    2e84:	4e07e2        	l8ui	a14, a7, 78
    2e87:	eedc      	bnez.n	a14, 0x2ea9
    2e89:	4f02f2        	l8ui	a15, a2, 79
    2e8c:	23ff00        	excw
    2e8f:	081fe6        	bgei	a15, 1, 0x2e9b
    2e92:	4e0282        	l8ui	a8, a2, 78
    2e95:	238800        	excw
    2e98:	0d18a6        	blti	a8, 1, 0x2ea9
    2e9b:	17f8      	l32i.n	a15, a7, 4
    2e9d:	6d22e2        	l32i	a14, a2, 0x1b4
    2ea0:	41f1f0        	srli	a15, a15, 1
    2ea3:	c0eef0        	sub	a14, a14, a15
    2ea6:	378e16        	beqz	a14, 0x3222
    2ea9:	051a66        	bnei	a10, 1, 0x2eb2
    2eac:	e01282        	l16ui	a8, a2, 0x1c0
    2eaf:	36f816        	beqz	a8, 0x3222
    2eb2:	0e0c      	movi.n	a14, 0
    2eb4:	51e9      	s32i.n	a14, a1, 20
    2eb6:	000146        	j	0x2ebf
    2eb9:	00a0f2        	movi	a15, 0
    2ebc:	0561f2        	s32i	a15, a1, 20
    2ebf:	847081        	l32r	a8, 0xfffe4080
    2ec2:	808c80        	add	a8, a12, a8
    2ec5:	3189      	s32i.n	a8, a1, 12
    2ec7:	890882        	l8ui	a8, a8, 137
    2eca:	0199      	s32i.n	a9, a1, 0
    2ecc:	88cc      	bnez.n	a8, 0x2ed8
    2ece:	06ad      	mov.n	a10, a6
    2ed0:	038d65        	excw
    2ed3:	0b0c      	movi.n	a11, 0
    2ed5:	080a16        	beqz	a10, 0x2f59
    2ed8:	fface5        	excw
    2edb:	01a052        	movi	a5, 1
    2ede:	3ca0b2        	movi	a11, 60
    2ee1:	20caa0        	or	a12, a10, a10
    2ee4:	4f0292        	l8ui	a9, a2, 79
    2ee7:	4a1c      	movi.n	a10, 20
    2ee9:	239900        	excw
    2eec:	93abc0        	movnez	a10, a11, a12
    2eef:	41a9      	s32i.n	a10, a1, 16
    2ef1:	0119e6        	bgei	a9, 1, 0x2ef6
    2ef4:	050c      	movi.n	a5, 0
    2ef6:	06ad      	mov.n	a10, a6
    2ef8:	038ae5        	excw
    2efb:	0b0c      	movi.n	a11, 0
    2efd:	babc      	beqz.n	a10, 0x2f3c
    2eff:	01d8      	l32i.n	a13, a1, 0
    2f01:	fe0c      	movi.n	a14, 15
    2f03:	021de7        	beq	a13, a14, 0x2f09
    2f06:	014d66        	bnei	a13, 4, 0x2f0b
    2f09:	150c      	movi.n	a5, 1
    2f0b:	06ad      	mov.n	a10, a6
    2f0d:	0385a5        	excw
    2f10:	0b0c      	movi.n	a11, 0
    2f12:	8471c1        	l32r	a12, 0xfffe40d8
    2f15:	ca8c      	beqz.n	a10, 0x2f25
    2f17:	480c      	movi.n	a8, 4
    2f19:	044c82        	s8i	a8, a12, 4
    2f1c:	150c      	movi.n	a5, 1
    2f1e:	892c      	movi.n	a9, 40
    2f20:	4199      	s32i.n	a9, a1, 16
    2f22:	000586        	j	0x2f3c
    2f25:	040c92        	l8ui	a9, a12, 4
    2f28:	099c      	beqz.n	a9, 0x2f3c
    2f2a:	d90b      	addi.n	a13, a9, -1
    2f2c:	01a8      	l32i.n	a10, a1, 0
    2f2e:	044cd2        	s8i	a13, a12, 4
    2f31:	048a26        	beqi	a10, 8, 0x2f39
    2f34:	9f0c      	movi.n	a15, 9
    2f36:	e29af7        	bne	a10, a15, 0x2f1c
    2f39:	044cb2        	s8i	a11, a12, 4
    2f3c:	4188      	l32i.n	a8, a1, 16
    2f3e:	e113c2        	l16ui	a12, a3, 0x1c2
    2f41:	74a050        	extui	a10, a5, 0, 8
    2f44:	1798      	l32i.n	a9, a7, 4
    2f46:	0b5d      	mov.n	a5, a11
    2f48:	e49190        	extui	a9, a9, 1, 15
    2f4b:	c099c0        	sub	a9, a9, a12
    2f4e:	e49090        	extui	a9, a9, 0, 15
    2f51:	063897        	bltu	a8, a9, 0x2f5b
    2f54:	0a5d      	mov.n	a5, a10
    2f56:	000046        	j	0x2f5b
    2f59:	050c      	movi.n	a5, 0
    2f5b:	8472f1        	l32r	a15, 0xfffe4124
    2f5e:	de13e2        	l16ui	a14, a3, 0x1bc
    2f61:	401600        	ssl	a6
    2f64:	1a0c      	movi.n	a10, 1
    2f66:	a1aa00        	sll	a10, a10
    2f69:	20eea0        	or	a14, a14, a10
    2f6c:	5e5fe2        	s16i	a14, a15, 188
    2f6f:	4f02d2        	l8ui	a13, a2, 79
    2f72:	bc0c      	movi.n	a12, 11
    2f74:	23dd00        	excw
    2f77:	021de6        	bgei	a13, 1, 0x2f7d
    2f7a:	008646        	j	0x3197
    2f7d:	842dd1        	l32r	a13, 0xfffe4034
    2f80:	b50dd2        	l8ui	a13, a13, 181
    2f83:	0f9d67        	bne	a13, a6, 0x2f96
    2f86:	31e8      	l32i.n	a14, a1, 12
    2f88:	890ee2        	l8ui	a14, a14, 137
    2f8b:	071e26        	beqi	a14, 1, 0x2f96
    2f8e:	11f8      	l32i.n	a15, a1, 4
    2f90:	04f9f0        	extui	a15, a15, 9, 1
    2f93:	1a9f16        	beqz	a15, 0x3140
    2f96:	590282        	l8ui	a8, a2, 89
    2f99:	1a3816        	beqz	a8, 0x3140
    2f9c:	3a0492        	l8ui	a9, a4, 58
    2f9f:	29ac      	beqz.n	a9, 0x2fc5
    2fa1:	31d8      	l32i.n	a13, a1, 12
    2fa3:	17c8      	l32i.n	a12, a7, 4
    2fa5:	421dd2        	l16ui	a13, a13, 132
    2fa8:	e4c1c0        	extui	a12, a12, 1, 15
    2fab:	c0ccd0        	sub	a12, a12, a13
    2fae:	2d17d2        	l16ui	a13, a7, 90
    2fb1:	e4c0c0        	extui	a12, a12, 0, 15
    2fb4:	0dbcd7        	bgeu	a12, a13, 0x2fc5
    2fb7:	a5cc      	bnez.n	a5, 0x2fc5
    2fb9:	df13e2        	l16ui	a14, a3, 0x1be
    2fbc:	8472f1        	l32r	a15, 0xfffe4184
    2fbf:	20eea0        	or	a14, a14, a10
    2fc2:	5f5fe2        	s16i	a14, a15, 190
    2fc5:	0a0c      	movi.n	a10, 0
    2fc7:	000046        	j	0x2fcc
    2fca:	0a0c      	movi.n	a10, 0
    2fcc:	51f8      	l32i.n	a15, a1, 20
    2fce:	3a0492        	l8ui	a9, a4, 58
    2fd1:	3fcc      	bnez.n	a15, 0x2fd8
    2fd3:	3b0482        	l8ui	a8, a4, 59
    2fd6:	489c      	beqz.n	a8, 0x2fee
    2fd8:	29dc      	bnez.n	a9, 0x2fee
    2fda:	7707c2        	l8ui	a12, a7, 119
    2fdd:	17d8      	l32i.n	a13, a7, 4
    2fdf:	e113e2        	l16ui	a14, a3, 0x1c2
    2fe2:	e4d1d0        	extui	a13, a13, 1, 15
    2fe5:	c0dde0        	sub	a13, a13, a14
    2fe8:	e4d0d0        	extui	a13, a13, 0, 15
    2feb:	2bbcd7        	bgeu	a12, a13, 0x301a
    2fee:	85ec      	bnez.n	a5, 0x301a
    2ff0:	847251        	l32r	a5, 0xfffe41b8
    2ff3:	300462        	l8ui	a6, a4, 48
    2ff6:	facc      	bnez.n	a10, 0x3009
    2ff8:	d8a182        	movi	a8, 0x1d8
    2ffb:	c18680        	mul16u	a8, a6, a8
    2ffe:	846e61        	l32r	a6, 0xfffe41b8
    3001:	668a      	add.n	a6, a6, a8
    3003:	770662        	l8ui	a6, a6, 119
    3006:	304462        	s8i	a6, a4, 48
    3009:	3a44b2        	s8i	a11, a4, 58
    300c:	1798      	l32i.n	a9, a7, 4
    300e:	3b44b2        	s8i	a11, a4, 59
    3011:	e49190        	extui	a9, a9, 1, 15
    3014:	615592        	s16i	a9, a5, 194
    3017:	000406        	j	0x302b
    301a:	847251        	l32r	a5, 0xfffe41e4
    301d:	51c8      	l32i.n	a12, a1, 20
    301f:	3b04a2        	l8ui	a10, a4, 59
    3022:	300462        	l8ui	a6, a4, 48
    3025:	83aca0        	moveqz	a10, a12, a10
    3028:	3b44a2        	s8i	a10, a4, 59
    302b:	ffa0c2        	movi	a12, 255
    302e:	c0d6c0        	sub	a13, a6, a12
    3031:	0b8d16        	beqz	a13, 0x30ed
    3034:	9d1c      	movi.n	a13, 25
    3036:	ffa0e2        	movi	a14, 255
    3039:	1c16e7        	beq	a6, a14, 0x3059
    303c:	aa0c      	movi.n	a10, 10
    303e:	0b0c      	movi.n	a11, 0
    3040:	842d91        	l32r	a9, 0xfffe40f4
    3043:	841981        	l32r	a8, 0xfffe40a8
    3046:	7f4962        	s8i	a6, a9, 127
    3049:	302882        	l32i	a8, a8, 192
    304c:	7e49d2        	s8i	a13, a9, 126
    304f:	0008e0        	excw
    3052:	1a0c      	movi.n	a10, 1
    3054:	2c44a2        	s8i	a10, a4, 44
    3057:	f01d      	excw
    3059:	f01d      	excw
    305b:	2d04b2        	l8ui	a11, a4, 45
    305e:	3eeb07        	bbsi	a11, 0, 0x30a0
    3061:	dc13c2        	l16ui	a12, a3, 0x1b8
    3064:	2817a2        	l16ui	a10, a7, 80
    3067:	11ccf0        	slli	a12, a12, 1
    306a:	f4c0c0        	extui	a12, a12, 0, 16
    306d:	5c55c2        	s16i	a12, a5, 184
    3070:	133ca7        	bltu	a12, a10, 0x3087
    3073:	842781        	l32r	a8, 0xfffe4110
    3076:	3888      	l32i.n	a8, a8, 12
    3078:	5c55a2        	s16i	a10, a5, 184
    307b:	0008e0        	excw
    307e:	1490a0        	extui	a9, a10, 0, 2
    3081:	2d04b2        	l8ui	a11, a4, 45
    3084:	000046        	j	0x3089
    3087:	090c      	movi.n	a9, 0
    3089:	3304a2        	l8ui	a10, a4, 51
    308c:	8468d1        	l32r	a13, 0xfffe422c
    308f:	c0c690        	sub	a12, a6, a9
    3092:	1e0c      	movi.n	a14, 1
    3094:	20ebe0        	or	a14, a11, a14
    3097:	2d44e2        	s8i	a14, a4, 45
    309a:	10ccd0        	and	a12, a12, a13
    309d:	6d63c2        	s32i	a12, a3, 0x1b4
    30a0:	0a6d      	mov.n	a6, a10
    30a2:	ffa0f2        	movi	a15, 255
    30a5:	b01af7        	beq	a10, a15, 0x3059
    30a8:	0b0c      	movi.n	a11, 0
    30aa:	841981        	l32r	a8, 0xfffe4110
    30ad:	842da1        	l32r	a10, 0xfffe4164
    30b0:	095c      	movi.n	a9, 80
    30b2:	7f4a62        	s8i	a6, a10, 127
    30b5:	7e4a92        	s8i	a9, a10, 126
    30b8:	302882        	l32i	a8, a8, 192
    30bb:	aa0c      	movi.n	a10, 10
    30bd:	0008e0        	excw
    30c0:	8470b1        	l32r	a11, 0xfffe4280
    30c3:	d8a1c2        	movi	a12, 0x1d8
    30c6:	c1c6c0        	mul16u	a12, a6, a12
    30c9:	1d0c      	movi.n	a13, 1
    30cb:	bbca      	add.n	a11, a11, a12
    30cd:	ffa0c2        	movi	a12, 255
    30d0:	750bb2        	l8ui	a11, a11, 117
    30d3:	2c44d2        	s8i	a13, a4, 44
    30d6:	3344b2        	s8i	a11, a4, 51
    30d9:	021bc7        	beq	a11, a12, 0x30df
    30dc:	ffde46        	j	0x3059
    30df:	2d04d2        	l8ui	a13, a4, 45
    30e2:	fea0e2        	movi	a14, 254
    30e5:	10dde0        	and	a13, a13, a14
    30e8:	2d44d2        	s8i	a13, a4, 45
    30eb:	f01d      	excw
    30ed:	3a44b2        	s8i	a11, a4, 58
    30f0:	3b44b2        	s8i	a11, a4, 59
    30f3:	ffa0f2        	movi	a15, 255
    30f6:	17c8      	l32i.n	a12, a7, 4
    30f8:	2e0462        	l8ui	a6, a4, 46
    30fb:	304462        	s8i	a6, a4, 48
    30fe:	e4c1c0        	extui	a12, a12, 1, 15
    3101:	6155c2        	s16i	a12, a5, 194
    3104:	c0f6f0        	sub	a15, a6, a15
    3107:	0e0f16        	beqz	a15, 0x31eb
    310a:	846ad1        	l32r	a13, 0xfffe42b4
    310d:	d8a1a2        	movi	a10, 0x1d8
    3110:	c1a6a0        	mul16u	a10, a6, a10
    3113:	dada      	add.n	a13, a10, a13
    3115:	640dd2        	l8ui	a13, a13, 100
    3118:	0fcd16        	beqz	a13, 0x3218
    311b:	8b07d2        	l8ui	a13, a7, 139
    311e:	0fbd16        	beqz	a13, 0x321d
    3121:	9207f2        	l8ui	a15, a7, 146
    3124:	b707e2        	l8ui	a14, a7, 183
    3127:	023ef7        	bltu	a14, a15, 0x312d
    312a:	003806        	j	0x320e
    312d:	846781        	l32r	a8, 0xfffe42cc
    3130:	8a8a      	add.n	a8, a10, a8
    3132:	7f0882        	l8ui	a8, a8, 127
    3135:	238800        	excw
    3138:	0d2816        	beqz	a8, 0x320e
    313b:	190c      	movi.n	a9, 1
    313d:	002b06        	j	0x31ed
    3140:	4e0292        	l8ui	a9, a2, 78
    3143:	239900        	excw
    3146:	0219a6        	blti	a9, 1, 0x314c
    3149:	ff93c6        	j	0x2f9c
    314c:	b707e2        	l8ui	a14, a7, 183
    314f:	7207d2        	l8ui	a13, a7, 114
    3152:	02bde7        	bgeu	a13, a14, 0x3158
    3155:	ff90c6        	j	0x2f9c
    3158:	3702f2        	l8ui	a15, a2, 55
    315b:	ff0b      	addi.n	a15, a15, -1
    315d:	e3bf56        	bnez	a15, 0x2f9c
    3160:	730792        	l8ui	a9, a7, 115
    3163:	e01282        	l16ui	a8, a2, 0x1c0
    3166:	02b897        	bgeu	a8, a9, 0x316c
    3169:	ff8bc6        	j	0x2f9c
    316c:	7222d2        	l32i	a13, a2, 0x1c8
    316f:	61a9      	s32i.n	a10, a1, 24
    3171:	c0ddc0        	sub	a13, a13, a12
    3174:	e24d56        	bnez	a13, 0x2f9c
    3177:	842981        	l32r	a8, 0xfffe421c
    317a:	0a2d      	mov.n	a2, a10
    317c:	742882        	l32i	a8, a8, 0x1d0
    317f:	06ad      	mov.n	a10, a6
    3181:	0008e0        	excw
    3184:	0b0c      	movi.n	a11, 0
    3186:	1a0c      	movi.n	a10, 1
    3188:	df1392        	l16ui	a9, a3, 0x1be
    318b:	8472c1        	l32r	a12, 0xfffe4354
    318e:	209920        	or	a9, a9, a2
    3191:	5f5c92        	s16i	a9, a12, 190
    3194:	ff8d06        	j	0x2fcc
    3197:	3a04d2        	l8ui	a13, a4, 58
    319a:	9d8c      	beqz.n	a13, 0x31a7
    319c:	75cc      	bnez.n	a5, 0x31a7
    319e:	df13e2        	l16ui	a14, a3, 0x1be
    31a1:	20eea0        	or	a14, a14, a10
    31a4:	5f5fe2        	s16i	a14, a15, 190
    31a7:	730782        	l8ui	a8, a7, 115
    31aa:	e012f2        	l16ui	a15, a2, 0x1c0
    31ad:	02bf87        	bgeu	a15, a8, 0x31b3
    31b0:	ff8586        	j	0x2fca
    31b3:	df1392        	l16ui	a9, a3, 0x1be
    31b6:	2099a0        	or	a9, a9, a10
    31b9:	8472a1        	l32r	a10, 0xfffe4384
    31bc:	5f5a92        	s16i	a9, a10, 190
    31bf:	3702a2        	l8ui	a10, a2, 55
    31c2:	1acc      	bnez.n	a10, 0x31c7
    31c4:	e052b2        	s16i	a11, a2, 0x1c0
    31c7:	481a66        	bnei	a10, 1, 0x3213
    31ca:	4e02a2        	l8ui	a10, a2, 78
    31cd:	23aa00        	excw
    31d0:	3f1ae6        	bgei	a10, 1, 0x3213
    31d3:	7222d2        	l32i	a13, a2, 0x1c8
    31d6:	399dc7        	bne	a13, a12, 0x3213
    31d9:	842981        	l32r	a8, 0xfffe4280
    31dc:	742882        	l32i	a8, a8, 0x1d0
    31df:	06ad      	mov.n	a10, a6
    31e1:	0008e0        	excw
    31e4:	0b0c      	movi.n	a11, 0
    31e6:	1a0c      	movi.n	a10, 1
    31e8:	ff7806        	j	0x2fcc
    31eb:	090c      	movi.n	a9, 0
    31ed:	59dc      	bnez.n	a9, 0x3206
    31ef:	de1392        	l16ui	a9, a3, 0x1bc
    31f2:	df13a2        	l16ui	a10, a3, 0x1be
    31f5:	10aa90        	and	a10, a10, a9
    31f8:	2d99a7        	bne	a9, a10, 0x3229
    31fb:	5f55b2        	s16i	a11, a5, 190
    31fe:	6055c2        	s16i	a12, a5, 192
    3201:	0d5c      	movi.n	a13, 80
    3203:	000046        	j	0x3208
    3206:	9d1c      	movi.n	a13, 25
    3208:	5e55b2        	s16i	a11, a5, 188
    320b:	ff89c6        	j	0x3036
    320e:	090c      	movi.n	a9, 0
    3210:	fff646        	j	0x31ed
    3213:	0a0c      	movi.n	a10, 0
    3215:	ff6cc6        	j	0x2fcc
    3218:	090c      	movi.n	a9, 0
    321a:	fff3c6        	j	0x31ed
    321d:	090c      	movi.n	a9, 0
    321f:	fff286        	j	0x31ed
    3222:	1e0c      	movi.n	a14, 1
    3224:	51e9      	s32i.n	a14, a1, 20
    3226:	ff2546        	j	0x2ebf
    3229:	e01382        	l16ui	a8, a3, 0x1c0
    322c:	78a0f2        	movi	a15, 120
    322f:	c08c80        	sub	a8, a12, a8
    3232:	e48080        	extui	a8, a8, 0, 15
    3235:	c53f87        	bltu	a15, a8, 0x31fe
    3238:	9d1c      	movi.n	a13, 25
    323a:	fff286        	j	0x3208
    323d:	000000        	ill
    3240:	004136        	excw
    3243:	842c81        	l32r	a8, 0xfffe42f4
    3246:	842941        	l32r	a4, 0xfffe42ec
    3249:	2b0882        	l8ui	a8, a8, 43
    324c:	8462b1        	l32r	a11, 0xfffe43d4
    324f:	04d816        	beqz	a8, 0x32a0
    3252:	81c8      	l32i.n	a12, a1, 32
    3254:	847391        	l32r	a9, 0xfffe4420
    3257:	477cc7        	bbci	a12, 28, 0x32a2
    325a:	0020c0        	memw
    325d:	402bd2        	l32i	a13, a11, 0x100
    3260:	3cfdd7        	bbsi	a13, 29, 0x32a0
    3263:	39fcd7        	bbsi	a12, 29, 0x32a0
    3266:	06ad      	mov.n	a10, a6
    3268:	94c520        	extui	a12, a2, 5, 10
    326b:	34d330        	extui	a13, a3, 3, 4
    326e:	0b0c      	movi.n	a11, 0
    3270:	0e0c      	movi.n	a14, 0
    3272:	d42482        	l32i	a8, a4, 0x350
    3275:	0f0c      	movi.n	a15, 0
    3277:	0008e0        	excw
    327a:	f01d      	excw
    327c:	990c      	movi.n	a9, 9
    327e:	1e9797        	bne	a7, a9, 0x32a0
    3281:	0020c0        	memw
    3284:	402ba2        	l32i	a10, a11, 0x100
    3287:	15fad7        	bbsi	a10, 29, 0x32a0
    328a:	12fcd7        	bbsi	a12, 29, 0x32a0
    328d:	06ad      	mov.n	a10, a6
    328f:	34d330        	extui	a13, a3, 3, 4
    3292:	0b0c      	movi.n	a11, 0
    3294:	0c0c      	movi.n	a12, 0
    3296:	1e0c      	movi.n	a14, 1
    3298:	d42482        	l32i	a8, a4, 0x350
    329b:	0f0c      	movi.n	a15, 0
    329d:	0008e0        	excw
    32a0:	f01d      	excw
    32a2:	0020c0        	memw
    32a5:	402ba2        	l32i	a10, a11, 0x100
    32a8:	d07ac7        	bbci	a10, 28, 0x327c
    32ab:	0020c0        	memw
    32ae:	406b92        	s32i	a9, a11, 0x100
    32b1:	0020c0        	memw
    32b4:	402bd2        	l32i	a13, a11, 0x100
    32b7:	e5fdd7        	bbsi	a13, 29, 0x32a0
    32ba:	e2fcd7        	bbsi	a12, 29, 0x32a0
    32bd:	06ad      	mov.n	a10, a6
    32bf:	94c520        	extui	a12, a2, 5, 10
    32c2:	34d330        	extui	a13, a3, 3, 4
    32c5:	0b0c      	movi.n	a11, 0
    32c7:	0e0c      	movi.n	a14, 0
    32c9:	d42482        	l32i	a8, a4, 0x350
    32cc:	0f0c      	movi.n	a15, 0
    32ce:	0008e0        	excw
    32d1:	f01d      	excw
    32d3:	413600        	srli	a3, a0, 6
    32d6:	2c8100        	excw
    32d9:	739184        	excw
    32dc:	088284        	excw
    32df:	a12b      	addi.n	a10, a1, 2
    32e1:	bc8462        	excw
    32e4:	c008      	l32i.n	a0, a0, 48
    32e6:	b20020        	excw
    32e9:	402a      	add.n	a4, a0, a2
    32eb:	287bc7        	bbci	a11, 28, 0x3317
    32ee:	0020c0        	memw
    32f1:	406a92        	s32i	a9, a10, 0x100
    32f4:	0020c0        	memw
    32f7:	402ac2        	l32i	a12, a10, 0x100
    32fa:	19fcd7        	bbsi	a12, 29, 0x3317
    32fd:	16f7d7        	bbsi	a7, 29, 0x3317
    3300:	06ad      	mov.n	a10, a6
    3302:	94c520        	extui	a12, a2, 5, 10
    3305:	34d330        	extui	a13, a3, 3, 4
    3308:	0b0c      	movi.n	a11, 0
    330a:	842981        	l32r	a8, 0xfffe43b0
    330d:	0e0c      	movi.n	a14, 0
    330f:	d42882        	l32i	a8, a8, 0x350
    3312:	0f0c      	movi.n	a15, 0
    3314:	0008e0        	excw
    3317:	f01d      	excw
    3319:	000000        	ill
    331c:	006136        	excw
    331f:	842941        	l32r	a4, 0xfffe43c4
    3322:	842c81        	l32r	a8, 0xfffe43d4
    3325:	0c0c      	movi.n	a12, 0
    3327:	2b0882        	l8ui	a8, a8, 43
    332a:	01c9      	s32i.n	a12, a1, 0
    332c:	78bc      	beqz.n	a8, 0x3367
    332e:	990c      	movi.n	a9, 9
    3330:	2b9397        	bne	a3, a9, 0x335f
    3333:	02ad      	mov.n	a10, a2
    3335:	1b0c      	movi.n	a11, 1
    3337:	8460d1        	l32r	a13, 0xfffe44b8
    333a:	0020c0        	memw
    333d:	9c2d92        	l32i	a9, a13, 0x270
    3340:	059490        	extui	a9, a9, 20, 1
    3343:	1199c0        	slli	a9, a9, 4
    3346:	0020c0        	memw
    3349:	1e0c      	movi.n	a14, 1
    334b:	0f0c      	movi.n	a15, 0
    334d:	9c2dd2        	l32i	a13, a13, 0x270
    3350:	d42482        	l32i	a8, a4, 0x350
    3353:	35d0d0        	extui	a13, a13, 16, 4
    3356:	20dd90        	or	a13, a13, a9
    3359:	0008e0        	excw
    335c:	0001c6        	j	0x3367
    335f:	da2482        	l32i	a8, a4, 0x368
    3362:	02ad      	mov.n	a10, a2
    3364:	0008e0        	excw
    3367:	60a0a2        	movi	a10, 96
    336a:	d12482        	l32i	a8, a4, 0x344
    336d:	01bd      	mov.n	a11, a1
    336f:	0008e0        	excw
    3372:	847391        	l32r	a9, 0xfffe4540
    3375:	8462a1        	l32r	a10, 0xfffe4500
    3378:	0020c0        	memw
    337b:	406a92        	s32i	a9, a10, 0x100
    337e:	f01d      	excw
    3380:	004136        	excw
    3383:	847451        	l32r	a5, 0xfffe4554
    3386:	d8a182        	movi	a8, 0x1d8
    3389:	c18280        	mul16u	a8, a2, a8
    338c:	241c      	movi.n	a4, 18
    338e:	558a      	add.n	a5, a5, a8
    3390:	7e1532        	l16ui	a3, a5, 252
    3393:	020c      	movi.n	a2, 0
    3395:	079347        	bne	a3, a4, 0x33a0
    3398:	801592        	l16ui	a9, a5, 0x100
    339b:	012966        	bnei	a9, 2, 0x33a0
    339e:	120c      	movi.n	a2, 1
    33a0:	f01d      	excw
    33a2:	360000        	excw
    33a5:	310041        	l32r	a4, 0xfffcf7a8
    33a8:	8468      	l32i.n	a6, a4, 32
    33aa:	847551        	l32r	a5, 0xfffe4580
    33ad:	d8a182        	movi	a8, 0x1d8
    33b0:	c18280        	mul16u	a8, a2, a8
    33b3:	842a21        	l32r	a2, 0xfffe445c
    33b6:	558a      	add.n	a5, a5, a8
    33b8:	1228      	l32i.n	a2, a2, 4
    33ba:	7f2552        	l32i	a5, a5, 0x1fc
    33bd:	412120        	srli	a2, a2, 1
    33c0:	c02250        	sub	a2, a2, a5
    33c3:	102230        	and	a2, a2, a3
    33c6:	1122f0        	slli	a2, a2, 1
    33c9:	f01d      	excw
    33cb:	413600        	srli	a3, a0, 6
    33ce:	02ad00        	excw
    33d1:	fffd25        	excw
    33d4:	120c      	movi.n	a2, 1
    33d6:	26a382        	movi	a8, 0x326
    33d9:	0138a7        	bltu	a8, a10, 0x33de
    33dc:	020c      	movi.n	a2, 0
    33de:	f01d      	excw
    33e0:	004136        	excw
    33e3:	847631        	l32r	a3, 0xfffe45bc
    33e6:	940332        	l8ui	a3, a3, 148
    33e9:	ffa022        	movi	a2, 255
    33ec:	011327        	beq	a3, a2, 0x33f1
    33ef:	f01d      	excw
    33f1:	821c      	movi.n	a2, 24
    33f3:	f01d      	excw
    33f5:	000000        	ill
    33f8:	014136        	excw
    33fb:	026d      	mov.n	a6, a2
    33fd:	841971        	l32r	a7, 0xfffe4464
    3400:	842a31        	l32r	a3, 0xfffe44a8
    3403:	fb7c      	movi.n	a11, -1
    3405:	ffa052        	movi	a5, 255
    3408:	104152        	s8i	a5, a1, 16
    340b:	51b9      	s32i.n	a11, a1, 20
    340d:	13a8      	l32i.n	a10, a3, 4
    340f:	462782        	l32i	a8, a7, 0x118
    3412:	41a1a0        	srli	a10, a10, 1
    3415:	0008e0        	excw
    3418:	0f1c      	movi.n	a15, 16
    341a:	8477e1        	l32r	a14, 0xfffe45f8
    341d:	020c      	movi.n	a2, 0
    341f:	145e22        	s16i	a2, a14, 40
    3422:	2a4e22        	s8i	a2, a14, 42
    3425:	360e42        	l8ui	a4, a14, 54
    3428:	c149      	s32i.n	a4, a1, 48
    342a:	364ef2        	s8i	a15, a14, 54
    342d:	80ce42        	addi	a4, a14, -128
    3430:	370ee2        	l8ui	a14, a14, 55
    3433:	e1e9      	s32i.n	a14, a1, 56
    3435:	8460a1        	l32r	a10, 0xfffe45b8
    3438:	8462d1        	l32r	a13, 0xfffe45c0
    343b:	0020c0        	memw
    343e:	422dd2        	l32i	a13, a13, 0x108
    3441:	61d9      	s32i.n	a13, a1, 24
    3443:	0020c0        	memw
    3446:	9e2ac2        	l32i	a12, a10, 0x278
    3449:	71c9      	s32i.n	a12, a1, 28
    344b:	0020c0        	memw
    344e:	9f2ab2        	l32i	a11, a10, 0x27c
    3451:	81b9      	s32i.n	a11, a1, 32
    3453:	0020c0        	memw
    3456:	952aa2        	l32i	a10, a10, 0x254
    3459:	64a7a0        	extui	a10, a10, 7, 7
    345c:	2441a2        	s8i	a10, a1, 36
    345f:	841191        	l32r	a9, 0xfffe44a4
    3462:	0020c0        	memw
    3465:	842481        	l32r	a8, 0xfffe44f8
    3468:	812992        	l32i	a9, a9, 0x204
    346b:	4c2882        	l32i	a8, a8, 0x130
    346e:	254192        	s8i	a9, a1, 37
    3471:	0008e0        	excw
    3474:	fd0c      	movi.n	a13, 15
    3476:	9c0c      	movi.n	a12, 9
    3478:	8478b1        	l32r	a11, 0xfffe4658
    347b:	04ea16        	beqz	a10, 0x34cd
    347e:	b40492        	l8ui	a9, a4, 180
    3481:	4899c7        	bne	a9, a12, 0x34cd
    3484:	b504c2        	l8ui	a12, a4, 181
    3487:	421c57        	beq	a12, a5, 0x34cd
    348a:	d8a172        	movi	a7, 0x1d8
    348d:	c17c70        	mul16u	a7, a12, a7
    3490:	847981        	l32r	a8, 0xfffe4674
    3493:	a7ba      	add.n	a10, a7, a11
    3495:	900aa2        	l8ui	a10, a10, 144
    3498:	838a      	add.n	a8, a3, a8
    349a:	b0aaa0        	addx8	a10, a10, a10
    349d:	a0aa30        	addx4	a10, a10, a3
    34a0:	641aa2        	l16ui	a10, a10, 200
    34a3:	778a      	add.n	a7, a7, a8
    34a5:	246a37        	bbci	a10, 3, 0x34cd
    34a8:	ac0482        	l8ui	a8, a4, 172
    34ab:	1e98d7        	bne	a8, a13, 0x34cd
    34ae:	7198      	l32i.n	a9, a1, 28
    34b0:	19e9b7        	bbsi	a9, 11, 0x34cd
    34b3:	847a81        	l32r	a8, 0xfffe469c
    34b6:	6888      	l32i.n	a8, a8, 24
    34b8:	4a1c      	movi.n	a10, 20
    34ba:	0008e0        	excw
    34bd:	2907a2        	l8ui	a10, a7, 41
    34c0:	846181        	l32r	a8, 0xfffe4644
    34c3:	0b0c      	movi.n	a11, 0
    34c5:	a12882        	l32i	a8, a8, 0x284
    34c8:	1c0c      	movi.n	a12, 1
    34ca:	0008e0        	excw
    34cd:	845a81        	l32r	a8, 0xfffe4638
    34d0:	d8a192        	movi	a9, 0x1d8
    34d3:	847bf1        	l32r	a15, 0xfffe46c0
    34d6:	8f04a2        	l8ui	a10, a4, 143
    34d9:	1061a2        	s32i	a10, a1, 64
    34dc:	b0faf0        	addx8	a15, a10, a15
    34df:	810f72        	l8ui	a7, a15, 129
    34e2:	7f0ff2        	l8ui	a15, a15, 127
    34e5:	1661f2        	s32i	a15, a1, 88
    34e8:	c19790        	mul16u	a9, a7, a9
    34eb:	07ed      	mov.n	a14, a7
    34ed:	889a      	add.n	a8, a8, a9
    34ef:	845b91        	l32r	a9, 0xfffe465c
    34f2:	7f2882        	l32i	a8, a8, 0x1fc
    34f5:	c0a750        	sub	a10, a7, a5
    34f8:	108890        	and	a8, a8, a9
    34fb:	090c      	movi.n	a9, 0
    34fd:	8389a0        	moveqz	a8, a9, a10
    3500:	116182        	s32i	a8, a1, 68
    3503:	18c1a2        	addi	a10, a1, 24
    3506:	3ad8      	l32i.n	a13, a10, 12
    3508:	2ac8      	l32i.n	a12, a10, 8
    350a:	1ab8      	l32i.n	a11, a10, 4
    350c:	0aa8      	l32i.n	a10, a10, 0
    350e:	0169      	s32i.n	a6, a1, 0
    3510:	ffd2e5        	excw
    3513:	162182        	l32i	a8, a1, 88
    3516:	847db1        	l32r	a11, 0xfffe470c
    3519:	847c91        	l32r	a9, 0xfffe470c
    351c:	10b6b0        	and	a11, a6, a11
    351f:	702992        	l32i	a9, a9, 0x1c0
    3522:	908880        	addx2	a8, a8, a8
    3525:	11a8e0        	slli	a10, a8, 2
    3528:	f1a9      	s32i.n	a10, a1, 60
    352a:	a08890        	addx4	a8, a8, a9
    352d:	1888      	l32i.n	a8, a8, 4
    352f:	07ad      	mov.n	a10, a7
    3531:	0008e0        	excw
    3534:	06fd      	mov.n	a15, a6
    3536:	07ed      	mov.n	a14, a7
    3538:	18c1d2        	addi	a13, a1, 24
    353b:	0da8      	l32i.n	a10, a13, 0
    353d:	1db8      	l32i.n	a11, a13, 4
    353f:	2dc8      	l32i.n	a12, a13, 8
    3541:	3dd8      	l32i.n	a13, a13, 12
    3543:	ffd925        	excw
    3546:	847161        	l32r	a6, 0xfffe470c
    3549:	847eb1        	l32r	a11, 0xfffe4744
    354c:	ac04c2        	l8ui	a12, a4, 172
    354f:	900bb2        	l8ui	a11, a11, 144
    3552:	61c9      	s32i.n	a12, a1, 24
    3554:	661b57        	beq	a11, a5, 0x35be
    3557:	1621d2        	l32i	a13, a1, 88
    355a:	272d66        	bnei	a13, 2, 0x3585
    355d:	7f1c      	movi.n	a15, 23
    355f:	847b91        	l32r	a9, 0xfffe474c
    3562:	1388      	l32i.n	a8, a3, 4
    3564:	1021e2        	l32i	a14, a1, 64
    3567:	418180        	srli	a8, a8, 1
    356a:	b0ee90        	addx8	a14, a14, a9
    356d:	800ee2        	l8ui	a14, a14, 128
    3570:	0689      	s32i.n	a8, a6, 0
    3572:	489ef7        	bne	a14, a15, 0x35be
    3575:	841981        	l32r	a8, 0xfffe45dc
    3578:	2a0c      	movi.n	a10, 2
    357a:	412882        	l32i	a8, a8, 0x104
    357d:	ec1c      	movi.n	a12, 30
    357f:	0008e0        	excw
    3582:	000e06        	j	0x35be
    3585:	b80492        	l8ui	a9, a4, 184
    3588:	498c      	beqz.n	a9, 0x3590
    358a:	ffe565        	excw
    358d:	000046        	j	0x3592
    3590:	8a0c      	movi.n	a10, 8
    3592:	281a57        	beq	a10, a5, 0x35be
    3595:	8468c1        	l32r	a12, 0xfffe4738
    3598:	13b8      	l32i.n	a11, a3, 4
    359a:	06d8      	l32i.n	a13, a6, 0
    359c:	41b1b0        	srli	a11, a11, 1
    359f:	c0bbd0        	sub	a11, a11, a13
    35a2:	10bbc0        	and	a11, a11, a12
    35a5:	11bbf0        	slli	a11, a11, 1
    35a8:	123ba7        	bltu	a11, a10, 0x35be
    35ab:	2a0c      	movi.n	a10, 2
    35ad:	7c1c      	movi.n	a12, 23
    35af:	841981        	l32r	a8, 0xfffe4614
    35b2:	847eb1        	l32r	a11, 0xfffe47ac
    35b5:	412882        	l32i	a8, a8, 0x104
    35b8:	900bb2        	l8ui	a11, a11, 144
    35bb:	0008e0        	excw
    35be:	847fc1        	l32r	a12, 0xfffe47bc
    35c1:	8480e1        	l32r	a14, 0xfffe47c4
    35c4:	8f0492        	l8ui	a9, a4, 143
    35c7:	08ded2        	addmi	a13, a14, 0x800
    35ca:	0289b6        	bltui	a9, 8, 0x35d0
    35cd:	011f86        	j	0x3a4f
    35d0:	841981        	l32r	a8, 0xfffe4634
    35d3:	2d2882        	l32i	a8, a8, 180
    35d6:	1021a2        	l32i	a10, a1, 64
    35d9:	0008e0        	excw
    35dc:	847691        	l32r	a9, 0xfffe47b4
    35df:	950992        	l8ui	a9, a9, 149
    35e2:	698c      	beqz.n	a9, 0x35ec
    35e4:	845ca1        	l32r	a10, 0xfffe4754
    35e7:	0b0c      	movi.n	a11, 0
    35e9:	b422a5        	excw
    35ec:	c103a2        	l8ui	a10, a3, 193
    35ef:	6a8c      	beqz.n	a10, 0x35f9
    35f1:	845ca1        	l32r	a10, 0xfffe4764
    35f4:	0b0c      	movi.n	a11, 0
    35f6:	b421e5        	excw
    35f9:	8481b1        	l32r	a11, 0xfffe4800
    35fc:	8477c1        	l32r	a12, 0xfffe47d8
    35ff:	1621d2        	l32i	a13, a1, 88
    3602:	0f4c52        	s8i	a5, a12, 15
    3605:	344cd2        	s8i	a13, a12, 52
    3608:	354c72        	s8i	a7, a12, 53
    360b:	6c29      	s32i.n	a2, a12, 24
    360d:	2c0bb2        	l8ui	a11, a11, 44
    3610:	304c22        	s8i	a2, a12, 48
    3613:	0bec      	bnez.n	a11, 0x3637
    3615:	8481e1        	l32r	a14, 0xfffe481c
    3618:	2f0ee2        	l8ui	a14, a14, 47
    361b:	089e57        	bne	a14, a5, 0x3627
    361e:	8481f1        	l32r	a15, 0xfffe4824
    3621:	320ff2        	l8ui	a15, a15, 50
    3624:	0f1f57        	beq	a15, a5, 0x3637
    3627:	71b8      	l32i.n	a11, a1, 28
    3629:	842981        	l32r	a8, 0xfffe46d0
    362c:	13a8      	l32i.n	a10, a3, 4
    362e:	6c2882        	l32i	a8, a8, 0x1b0
    3631:	41a1a0        	srli	a10, a10, 1
    3634:	0008e0        	excw
    3637:	847691        	l32r	a9, 0xfffe4810
    363a:	940992        	l8ui	a9, a9, 148
    363d:	131957        	beq	a9, a5, 0x3654
    3640:	10c1a2        	addi	a10, a1, 16
    3643:	841981        	l32r	a8, 0xfffe46a8
    3646:	14c1b2        	addi	a11, a1, 20
    3649:	822882        	l32i	a8, a8, 0x208
    364c:	0c0c      	movi.n	a12, 0
    364e:	0008e0        	excw
    3651:	000046        	j	0x3656
    3654:	fa7c      	movi.n	a10, -1
    3656:	0afd      	mov.n	a15, a10
    3658:	1b61a2        	s32i	a10, a1, 108
    365b:	1461a2        	s32i	a10, a1, 80
    365e:	100122        	l8ui	a2, a1, 16
    3661:	1c6172        	s32i	a7, a1, 112
    3664:	c003c2        	l8ui	a12, a3, 192
    3667:	51d8      	l32i.n	a13, a1, 20
    3669:	1261d2        	s32i	a13, a1, 72
    366c:	04b0c0        	extui	a11, a12, 0, 1
    366f:	286c07        	bbci	a12, 0, 0x369b
    3672:	10c1a2        	addi	a10, a1, 16
    3675:	841981        	l32r	a8, 0xfffe46dc
    3678:	14c1b2        	addi	a11, a1, 20
    367b:	562882        	l32i	a8, a8, 0x158
    367e:	1c6172        	s32i	a7, a1, 112
    3681:	0008e0        	excw
    3684:	1b21f2        	l32i	a15, a1, 108
    3687:	1561a2        	s32i	a10, a1, 84
    368a:	100172        	l8ui	a7, a1, 16
    368d:	c003b2        	l8ui	a11, a3, 192
    3690:	5198      	l32i.n	a9, a1, 20
    3692:	136192        	s32i	a9, a1, 76
    3695:	04b0b0        	extui	a11, a11, 0, 1
    3698:	000306        	j	0x36a8
    369b:	ffa072        	movi	a7, 255
    369e:	fc7c      	movi.n	a12, -1
    36a0:	fd7c      	movi.n	a13, -1
    36a2:	1361d2        	s32i	a13, a1, 76
    36a5:	1561c2        	s32i	a12, a1, 84
    36a8:	1521e2        	l32i	a14, a1, 84
    36ab:	0fbef7        	bgeu	a14, a15, 0x36be
    36ae:	847791        	l32r	a9, 0xfffe488c
    36b1:	132182        	l32i	a8, a1, 76
    36b4:	99e9      	s32i.n	a14, a9, 36
    36b6:	314972        	s8i	a7, a9, 49
    36b9:	8989      	s32i.n	a8, a9, 32
    36bb:	000306        	j	0x36cb
    36be:	8477d1        	l32r	a13, 0xfffe489c
    36c1:	1221c2        	l32i	a12, a1, 72
    36c4:	9df9      	s32i.n	a15, a13, 36
    36c6:	314d22        	s8i	a2, a13, 49
    36c9:	8dc9      	s32i.n	a12, a13, 32
    36cb:	8482e1        	l32r	a14, 0xfffe48d4
    36ce:	f3ce92        	addi	a9, a14, -13
    36d1:	05fb16        	beqz	a11, 0x3734
    36d4:	d8a1b2        	movi	a11, 0x1d8
    36d7:	c1a7b0        	mul16u	a10, a7, a11
    36da:	152182        	l32i	a8, a1, 84
    36dd:	a9aa      	add.n	a10, a9, a10
    36df:	1861a2        	s32i	a10, a1, 96
    36e2:	059856        	bnez	a8, 0x373f
    36e5:	c1c2b0        	mul16u	a12, a2, a11
    36e8:	7f0ad2        	l8ui	a13, a10, 127
    36eb:	beca      	add.n	a11, a14, a12
    36ed:	720bc2        	l8ui	a12, a11, 114
    36f0:	4b1cd7        	beq	a12, a13, 0x373f
    36f3:	c61be2        	l16ui	a14, a11, 0x18c
    36f6:	071e26        	beqi	a14, 1, 0x3701
    36f9:	c41b92        	l16ui	a9, a11, 0x188
    36fc:	782c      	movi.n	a8, 39
    36fe:	02b897        	bgeu	a8, a9, 0x3704
    3701:	142f26        	beqi	a15, 2, 0x3719
    3704:	a1b9      	s32i.n	a11, a1, 40
    3706:	355ff6        	bgeui	a15, 5, 0x373f
    3709:	02ad      	mov.n	a10, a2
    370b:	ffcc25        	excw
    370e:	daac      	beqz.n	a10, 0x373f
    3710:	02ad      	mov.n	a10, a2
    3712:	ffc6e5        	excw
    3715:	a1b8      	l32i.n	a11, a1, 40
    3717:	4aac      	beqz.n	a10, 0x373f
    3719:	0c1c      	movi.n	a12, 16
    371b:	0d0c      	movi.n	a13, 0
    371d:	847ff1        	l32r	a15, 0xfffe491c
    3720:	1e0c      	movi.n	a14, 1
    3722:	164fe2        	s8i	a14, a15, 22
    3725:	682ba2        	l32i	a10, a11, 0x1a0
    3728:	1461d2        	s32i	a13, a1, 80
    372b:	20aac0        	or	a10, a10, a12
    372e:	686ba2        	s32i	a10, a11, 0x1a0
    3731:	000286        	j	0x373f
    3734:	d8a182        	movi	a8, 0x1d8
    3737:	c18780        	mul16u	a8, a7, a8
    373a:	898a      	add.n	a8, a9, a8
    373c:	186182        	s32i	a8, a1, 96
    373f:	8483b1        	l32r	a11, 0xfffe494c
    3742:	841791        	l32r	a9, 0xfffe47a0
    3745:	8e04f2        	l8ui	a15, a4, 142
    3748:	e90992        	l8ui	a9, a9, 233
    374b:	11ffd0        	slli	a15, a15, 3
    374e:	c09950        	sub	a9, a9, a5
    3751:	0a2916        	beqz	a9, 0x37f7
    3754:	cfba      	add.n	a12, a15, a11
    3756:	530cc2        	l8ui	a12, a12, 83
    3759:	4a1c      	movi.n	a10, 20
    375b:	023ac7        	bltu	a10, a12, 0x3761
    375e:	002546        	j	0x37f7
    3761:	10c1a2        	addi	a10, a1, 16
    3764:	14c1b2        	addi	a11, a1, 20
    3767:	0c0c      	movi.n	a12, 0
    3769:	841a81        	l32r	a8, 0xfffe47d4
    376c:	7f0492        	l8ui	a9, a4, 127
    376f:	3a2882        	l32i	a8, a8, 232
    3772:	1a6192        	s32i	a9, a1, 104
    3775:	0008e0        	excw
    3778:	846be1        	l32r	a14, 0xfffe4924
    377b:	1a2192        	l32i	a9, a1, 104
    377e:	8484c1        	l32r	a12, 0xfffe4990
    3781:	c0b950        	sub	a11, a9, a5
    3784:	2dfb16        	beqz	a11, 0x3a67
    3787:	d8a1f2        	movi	a15, 0x1d8
    378a:	c1f9f0        	mul16u	a15, a9, a15
    378d:	bfea      	add.n	a11, a15, a14
    378f:	740bd2        	l8ui	a13, a11, 116
    3792:	2d1d56        	bnez	a13, 0x3a67
    3795:	8fca      	add.n	a8, a15, a12
    3797:	800882        	l8ui	a8, a8, 128
    379a:	880b      	addi.n	a8, a8, -1
    379c:	2c7856        	bnez	a8, 0x3a67
    379f:	340ed2        	l8ui	a13, a14, 52
    37a2:	9ddc      	bnez.n	a13, 0x37bf
    37a4:	4e03f2        	l8ui	a15, a3, 78
    37a7:	2bcf56        	bnez	a15, 0x3a67
    37aa:	b50482        	l8ui	a8, a4, 181
    37ad:	c08890        	sub	a8, a8, a9
    37b0:	2b3856        	bnez	a8, 0x3a67
    37b3:	8c0bd2        	l8ui	a13, a11, 140
    37b6:	23dd00        	excw
    37b9:	021de6        	bgei	a13, 1, 0x37bf
    37bc:	00a9c6        	j	0x3a67
    37bf:	8923e2        	l32i	a14, a3, 0x224
    37c2:	2bbae7        	bgeu	a10, a14, 0x37f1
    37c5:	51f8      	l32i.n	a15, a1, 20
    37c7:	100192        	l8ui	a9, a1, 16
    37ca:	847781        	l32r	a8, 0xfffe49a8
    37cd:	2b0c      	movi.n	a11, 2
    37cf:	93baa0        	movnez	a11, a10, a10
    37d2:	98b9      	s32i.n	a11, a8, 36
    37d4:	314892        	s8i	a9, a8, 49
    37d7:	88f9      	s32i.n	a15, a8, 32
    37d9:	000506        	j	0x37f1
    37dc:	8923c2        	l32i	a12, a3, 0x224
    37df:	0ebac7        	bgeu	a10, a12, 0x37f1
    37e2:	51d8      	l32i.n	a13, a1, 20
    37e4:	8477e1        	l32r	a14, 0xfffe49c0
    37e7:	1001f2        	l8ui	a15, a1, 16
    37ea:	9ea9      	s32i.n	a10, a14, 36
    37ec:	314ef2        	s8i	a15, a14, 49
    37ef:	8ed9      	s32i.n	a13, a14, 32
    37f1:	8e04f2        	l8ui	a15, a4, 142
    37f4:	11ffd0        	slli	a15, a15, 3
    37f7:	847b91        	l32r	a9, 0xfffe49e4
    37fa:	ff9a      	add.n	a15, a15, a9
    37fc:	7f0f82        	l8ui	a8, a15, 127
    37ff:	8485e1        	l32r	a14, 0xfffe4a14
    3802:	021826        	beqi	a8, 1, 0x3808
    3805:	002d46        	j	0x38be
    3808:	7f04a2        	l8ui	a10, a4, 127
    380b:	d8a1b2        	movi	a11, 0x1d8
    380e:	c1aab0        	mul16u	a10, a10, a11
    3811:	aeaa      	add.n	a10, a14, a10
    3813:	810aa2        	l8ui	a10, a10, 129
    3816:	0a4a56        	bnez	a10, 0x38be
    3819:	1521c2        	l32i	a12, a1, 84
    381c:	020c26        	beqi	a12, -1, 0x3822
    381f:	0026c6        	j	0x38be
    3822:	1421d2        	l32i	a13, a1, 80
    3825:	095d16        	beqz	a13, 0x38be
    3828:	026db6        	bltui	a13, 6, 0x382e
    382b:	0023c6        	j	0x38be
    382e:	8478a1        	l32r	a10, 0xfffe4a10
    3831:	810f92        	l8ui	a9, a15, 129
    3834:	842981        	l32r	a8, 0xfffe48d8
    3837:	c1b9b0        	mul16u	a11, a9, a11
    383a:	d888      	l32i.n	a8, a8, 52
    383c:	aaba      	add.n	a10, a10, a11
    383e:	920aa2        	l8ui	a10, a10, 146
    3841:	0008e0        	excw
    3844:	842981        	l32r	a8, 0xfffe48e8
    3847:	8483c1        	l32r	a12, 0xfffe4a54
    384a:	b1a9      	s32i.n	a10, a1, 44
    384c:	8e04b2        	l8ui	a11, a4, 142
    384f:	8478a1        	l32r	a10, 0xfffe4a30
    3852:	b0bbc0        	addx8	a11, a11, a12
    3855:	540bb2        	l8ui	a11, a11, 84
    3858:	d8a1c2        	movi	a12, 0x1d8
    385b:	c1bbc0        	mul16u	a11, a11, a12
    385e:	d888      	l32i.n	a8, a8, 52
    3860:	aaba      	add.n	a10, a10, a11
    3862:	950aa2        	l8ui	a10, a10, 149
    3865:	0008e0        	excw
    3868:	8485e1        	l32r	a14, 0xfffe4a7c
    386b:	052ab6        	bltui	a10, 2, 0x3874
    386e:	142192        	l32i	a9, a1, 80
    3871:	2649b6        	bltui	a9, 4, 0x389b
    3874:	233af6        	bgeui	a10, 3, 0x389b
    3877:	8483b1        	l32r	a11, 0xfffe4a84
    387a:	8e04a2        	l8ui	a10, a4, 142
    387d:	b0aab0        	addx8	a10, a10, a11
    3880:	540aa2        	l8ui	a10, a10, 84
    3883:	ff3225        	excw
    3886:	8485e1        	l32r	a14, 0xfffe4a9c
    3889:	1abc      	beqz.n	a10, 0x38be
    388b:	b1c8      	l32i.n	a12, a1, 44
    388d:	0c9d      	mov.n	a9, a12
    388f:	052cb6        	bltui	a12, 2, 0x3898
    3892:	1421d2        	l32i	a13, a1, 80
    3895:	024db6        	bltui	a13, 4, 0x389b
    3898:	2239b6        	bltui	a9, 3, 0x38be
    389b:	848281        	l32r	a8, 0xfffe4aa4
    389e:	847fb1        	l32r	a11, 0xfffe4a9c
    38a1:	1a0c      	movi.n	a10, 1
    38a3:	d8a192        	movi	a9, 0x1d8
    38a6:	c19290        	mul16u	a9, a2, a9
    38a9:	164ba2        	s8i	a10, a11, 22
    38ac:	889a      	add.n	a8, a8, a9
    38ae:	0a0c      	movi.n	a10, 0
    38b0:	1461a2        	s32i	a10, a1, 80
    38b3:	6828f2        	l32i	a15, a8, 0x1a0
    38b6:	091c      	movi.n	a9, 16
    38b8:	20ff90        	or	a15, a15, a9
    38bb:	6868f2        	s32i	a15, a8, 0x1a0
    38be:	8476f1        	l32r	a15, 0xfffe4a98
    38c1:	960ff2        	l8ui	a15, a15, 150
    38c4:	c30392        	l8ui	a9, a3, 195
    38c7:	4b1f66        	bnei	a15, 1, 0x3916
    38ca:	890b      	addi.n	a8, a9, -1
    38cc:	1f5816        	beqz	a8, 0x3ac5
    38cf:	7f04f2        	l8ui	a15, a4, 127
    38d2:	c09f50        	sub	a9, a15, a5
    38d5:	23e916        	beqz	a9, 0x3b17
    38d8:	8478a1        	l32r	a10, 0xfffe4ab8
    38db:	d8a192        	movi	a9, 0x1d8
    38de:	c19f90        	mul16u	a9, a15, a9
    38e1:	a9aa      	add.n	a10, a9, a10
    38e3:	6a0aa2        	l8ui	a10, a10, 106
    38e6:	22da56        	bnez	a10, 0x3b17
    38e9:	a9ea      	add.n	a10, a9, a14
    38eb:	810aa2        	l8ui	a10, a10, 129
    38ee:	aa0b      	addi.n	a10, a10, -1
    38f0:	223a56        	bnez	a10, 0x3b17
    38f3:	8481b1        	l32r	a11, 0xfffe4af8
    38f6:	3b0bb2        	l8ui	a11, a11, 59
    38f9:	21ab16        	beqz	a11, 0x3b17
    38fc:	fc7c      	movi.n	a12, -1
    38fe:	847f21        	l32r	a2, 0xfffe4afc
    3901:	090c      	movi.n	a9, 0
    3903:	154292        	s8i	a9, a2, 21
    3906:	164292        	s8i	a9, a2, 22
    3909:	d1d2d2        	addmi	a13, a2, 0xffffd100
    390c:	314d52        	s8i	a5, a13, 49
    390f:	9dc9      	s32i.n	a12, a13, 36
    3911:	8dc9      	s32i.n	a12, a13, 32
    3913:	008506        	j	0x3b2b
    3916:	890b      	addi.n	a8, a9, -1
    3918:	1a9816        	beqz	a8, 0x3ac5
    391b:	8e0422        	l8ui	a2, a4, 142
    391e:	0aa2b6        	bltui	a2, 12, 0x392c
    3921:	845ca1        	l32r	a10, 0xfffe4a94
    3924:	0b0c      	movi.n	a11, 0
    3926:	b3eee5        	excw
    3929:	8e0422        	l8ui	a2, a4, 142
    392c:	8923d2        	l32i	a13, a3, 0x224
    392f:	8477c1        	l32r	a12, 0xfffe4b0c
    3932:	847ba1        	l32r	a10, 0xfffe4b20
    3935:	0f4c22        	s8i	a2, a12, 15
    3938:	b0a2a0        	addx8	a10, a2, a10
    393b:	34dc92        	addmi	a9, a12, 0x3400
    393e:	702992        	l32i	a9, a9, 0x1c0
    3941:	7e0ab2        	l8ui	a11, a10, 126
    3944:	0e4cb2        	s8i	a11, a12, 14
    3947:	7f0a82        	l8ui	a8, a10, 127
    394a:	2b0c      	movi.n	a11, 2
    394c:	93bdd0        	movnez	a11, a13, a13
    394f:	176182        	s32i	a8, a1, 92
    3952:	810aa2        	l8ui	a10, a10, 129
    3955:	1961a2        	s32i	a10, a1, 100
    3958:	908880        	addx2	a8, a8, a8
    395b:	a08890        	addx4	a8, a8, a9
    395e:	0888      	l32i.n	a8, a8, 0
    3960:	9cb9      	s32i.n	a11, a12, 36
    3962:	0008e0        	excw
    3965:	0a2d      	mov.n	a2, a10
    3967:	1d0c      	movi.n	a13, 1
    3969:	842cb1        	l32r	a11, 0xfffe4a1c
    396c:	8623c2        	l32i	a12, a3, 0x218
    396f:	340bb2        	l8ui	a11, a11, 52
    3972:	35c0c0        	extui	a12, a12, 16, 4
    3975:	93cdc0        	movnez	a12, a13, a12
    3978:	0c46c2        	s8i	a12, a6, 12
    397b:	23bb00        	excw
    397e:	071be6        	bgei	a11, 1, 0x3989
    3981:	845ca1        	l32r	a10, 0xfffe4af4
    3984:	0b0c      	movi.n	a11, 0
    3986:	b3e8e5        	excw
    3989:	13c8      	l32i.n	a12, a3, 4
    398b:	26c9      	s32i.n	a12, a6, 8
    398d:	3e1757        	beq	a7, a5, 0x39cf
    3990:	1821d2        	l32i	a13, a1, 96
    3993:	847eb1        	l32r	a11, 0xfffe4b8c
    3996:	800dd2        	l8ui	a13, a13, 128
    3999:	900bb2        	l8ui	a11, a11, 144
    399c:	fdec      	bnez.n	a13, 0x39cf
    399e:	2d1b57        	beq	a11, a5, 0x39cf
    39a1:	1921c2        	l32i	a12, a1, 100
    39a4:	271cb7        	beq	a12, a11, 0x39cf
    39a7:	249c77        	bne	a12, a7, 0x39cf
    39aa:	8486f1        	l32r	a15, 0xfffe4bc4
    39ad:	8487e1        	l32r	a14, 0xfffe4bcc
    39b0:	9ff8      	l32i.n	a15, a15, 36
    39b2:	8d9ee2        	l16si	a14, a14, 0x11a
    39b5:	848881        	l32r	a8, 0xfffe4bd8
    39b8:	13bef7        	bgeu	a14, a15, 0x39cf
    39bb:	180882        	l8ui	a8, a8, 24
    39be:	847e91        	l32r	a9, 0xfffe4bb8
    39c1:	0ae827        	bbsi	a8, 2, 0x39cf
    39c4:	980992        	l8ui	a9, a9, 152
    39c7:	8486a1        	l32r	a10, 0xfffe4be0
    39ca:	991b      	addi.n	a9, a9, 1
    39cc:	184a92        	s8i	a9, a10, 24
    39cf:	52cc      	bnez.n	a2, 0x39d8
    39d1:	0a0c      	movi.n	a10, 0
    39d3:	1b0c      	movi.n	a11, 1
    39d5:	b3e3e5        	excw
    39d8:	8f04a2        	l8ui	a10, a4, 143
    39db:	c0aa50        	sub	a10, a10, a5
    39de:	f39a16        	beqz	a10, 0x391b
    39e1:	1921a2        	l32i	a10, a1, 100
    39e4:	1721b2        	l32i	a11, a1, 92
    39e7:	ff9365        	excw
    39ea:	c158      	l32i.n	a5, a1, 48
    39ec:	1621b2        	l32i	a11, a1, 88
    39ef:	1121d2        	l32i	a13, a1, 68
    39f2:	18c1a2        	addi	a10, a1, 24
    39f5:	846181        	l32r	a8, 0xfffe4b7c
    39f8:	1c2122        	l32i	a2, a1, 112
    39fb:	bd2882        	l32i	a8, a8, 0x2f4
    39fe:	02cd      	mov.n	a12, a2
    3a00:	0008e0        	excw
    3a03:	c40492        	l8ui	a9, a4, 196
    3a06:	0d6907        	bbci	a9, 0, 0x3a17
    3a09:	842981        	l32r	a8, 0xfffe4ab0
    3a0c:	13a8      	l32i.n	a10, a3, 4
    3a0e:	8d2882        	l32i	a8, a8, 0x234
    3a11:	41a1a0        	srli	a10, a10, 1
    3a14:	0008e0        	excw
    3a17:	8423b2        	l32i	a11, a3, 0x210
    3a1a:	170b26        	beqi	a11, -1, 0x3a35
    3a1d:	847c81        	l32r	a8, 0xfffe4c10
    3a20:	f198      	l32i.n	a9, a1, 60
    3a22:	702882        	l32i	a8, a8, 0x1c0
    3a25:	889a      	add.n	a8, a8, a9
    3a27:	2888      	l32i.n	a8, a8, 8
    3a29:	02ad      	mov.n	a10, a2
    3a2b:	0008e0        	excw
    3a2e:	8477a1        	l32r	a10, 0xfffe4c0c
    3a31:	f97c      	movi.n	a9, -1
    3a33:	4a99      	s32i.n	a9, a10, 16
    3a35:	14b526        	beqi	a5, 16, 0x3a4d
    3a38:	847c91        	l32r	a9, 0xfffe4c28
    3a3b:	e1a8      	l32i.n	a10, a1, 56
    3a3d:	702992        	l32i	a9, a9, 0x1c0
    3a40:	908550        	addx2	a8, a5, a5
    3a43:	a08890        	addx4	a8, a8, a9
    3a46:	2888      	l32i.n	a8, a8, 8
    3a48:	fb7c      	movi.n	a11, -1
    3a4a:	0008e0        	excw
    3a4d:	f01d      	excw
    3a4f:	f8c9a2        	addi	a10, a9, -8
    3a52:	12ba16        	beqz	a10, 0x3b81
    3a55:	f7c9b2        	addi	a11, a9, -9
    3a58:	12bb16        	beqz	a11, 0x3b87
    3a5b:	f6c9c2        	addi	a12, a9, -10
    3a5e:	b7ac56        	bnez	a12, 0x35dc
    3a61:	2c4d22        	s8i	a2, a13, 44
    3a64:	fedd06        	j	0x35dc
    3a67:	7adc      	bnez.n	a10, 0x3a82
    3a69:	0b0c      	movi.n	a11, 0
    3a6b:	8477a1        	l32r	a10, 0xfffe4c48
    3a6e:	100192        	l8ui	a9, a1, 16
    3a71:	841981        	l32r	a8, 0xfffe4ad8
    3a74:	074a92        	s8i	a9, a10, 7
    3a77:	302882        	l32i	a8, a8, 192
    3a7a:	ba0c      	movi.n	a10, 11
    3a7c:	0008e0        	excw
    3a7f:	ff5b86        	j	0x37f1
    3a82:	c0b950        	sub	a11, a9, a5
    3a85:	d53b16        	beqz	a11, 0x37dc
    3a88:	d8a1f2        	movi	a15, 0x1d8
    3a8b:	c1f9f0        	mul16u	a15, a9, a15
    3a8e:	dfca      	add.n	a13, a15, a12
    3a90:	800dd2        	l8ui	a13, a13, 128
    3a93:	dd0b      	addi.n	a13, a13, -1
    3a95:	d43d56        	bnez	a13, 0x37dc
    3a98:	8fea      	add.n	a8, a15, a14
    3a9a:	8c0882        	l8ui	a8, a8, 140
    3a9d:	238800        	excw
    3aa0:	0218e6        	bgei	a8, 1, 0x3aa6
    3aa3:	ff4d46        	j	0x37dc
    3aa6:	026ab6        	bltui	a10, 6, 0x3aac
    3aa9:	ff4bc6        	j	0x37dc
    3aac:	0b0c      	movi.n	a11, 0
    3aae:	8477a1        	l32r	a10, 0xfffe4c8c
    3ab1:	100192        	l8ui	a9, a1, 16
    3ab4:	841981        	l32r	a8, 0xfffe4b18
    3ab7:	074a92        	s8i	a9, a10, 7
    3aba:	302882        	l32i	a8, a8, 192
    3abd:	ba0c      	movi.n	a10, 11
    3abf:	0008e0        	excw
    3ac2:	ff4ac6        	j	0x37f1
    3ac5:	bf0b      	addi.n	a11, a15, -1
    3ac7:	0c2b16        	beqz	a11, 0x3b8d
    3aca:	7f04f2        	l8ui	a15, a4, 127
    3acd:	601f57        	beq	a15, a5, 0x3b31
    3ad0:	8478c1        	l32r	a12, 0xfffe4cb0
    3ad3:	d8a192        	movi	a9, 0x1d8
    3ad6:	c19f90        	mul16u	a9, a15, a9
    3ad9:	c9ca      	add.n	a12, a9, a12
    3adb:	6a0cc2        	l8ui	a12, a12, 106
    3ade:	04fc56        	bnez	a12, 0x3b31
    3ae1:	8481a1        	l32r	a10, 0xfffe4ce8
    3ae4:	3b0aa2        	l8ui	a10, a10, 59
    3ae7:	046a16        	beqz	a10, 0x3b31
    3aea:	29ea      	add.n	a2, a9, a14
    3aec:	7f02b2        	l8ui	a11, a2, 127
    3aef:	3e3bb6        	bltui	a11, 3, 0x3b31
    3af2:	ce03c2        	l8ui	a12, a3, 206
    3af5:	381cf7        	beq	a12, a15, 0x3b31
    3af8:	0d0c      	movi.n	a13, 0
    3afa:	7f42d2        	s8i	a13, a2, 127
    3afd:	fe7c      	movi.n	a14, -1
    3aff:	8477f1        	l32r	a15, 0xfffe4cdc
    3b02:	8480a1        	l32r	a10, 0xfffe4d04
    3b05:	080c      	movi.n	a8, 0
    3b07:	414a82        	s8i	a8, a10, 65
    3b0a:	434a82        	s8i	a8, a10, 67
    3b0d:	314f52        	s8i	a5, a15, 49
    3b10:	9fe9      	s32i.n	a14, a15, 36
    3b12:	8fe9      	s32i.n	a14, a15, 32
    3b14:	001786        	j	0x3b76
    3b17:	02ad      	mov.n	a10, a2
    3b19:	0b0c      	movi.n	a11, 0
    3b1b:	ff1265        	excw
    3b1e:	090c      	movi.n	a9, 0
    3b20:	847f21        	l32r	a2, 0xfffe4d1c
    3b23:	1b0c      	movi.n	a11, 1
    3b25:	1542b2        	s8i	a11, a2, 21
    3b28:	164292        	s8i	a9, a2, 22
    3b2b:	164292        	s8i	a9, a2, 22
    3b2e:	ff7a46        	j	0x391b
    3b31:	847ed1        	l32r	a13, 0xfffe4d2c
    3b34:	8489c1        	l32r	a12, 0xfffe4d58
    3b37:	980dd2        	l8ui	a13, a13, 152
    3b3a:	989cc2        	l16si	a12, a12, 0x130
    3b3d:	0aacd7        	bge	a12, a13, 0x3b4b
    3b40:	8486f1        	l32r	a15, 0xfffe4d58
    3b43:	0e0c      	movi.n	a14, 0
    3b45:	184fe2        	s8i	a14, a15, 24
    3b48:	ffec46        	j	0x3afd
    3b4b:	020c      	movi.n	a2, 0
    3b4d:	8a0c      	movi.n	a10, 8
    3b4f:	0b0c      	movi.n	a11, 0
    3b51:	841981        	l32r	a8, 0xfffe4bb8
    3b54:	2c0c      	movi.n	a12, 2
    3b56:	641392        	l16ui	a9, a3, 200
    3b59:	ce03d2        	l8ui	a13, a3, 206
    3b5c:	6f44d2        	s8i	a13, a4, 111
    3b5f:	2099c0        	or	a9, a9, a12
    3b62:	302882        	l32i	a8, a8, 192
    3b65:	645392        	s16i	a9, a3, 200
    3b68:	0008e0        	excw
    3b6b:	848091        	l32r	a9, 0xfffe4d6c
    3b6e:	1a0c      	movi.n	a10, 1
    3b70:	4149a2        	s8i	a10, a9, 65
    3b73:	434922        	s8i	a2, a9, 67
    3b76:	8480c1        	l32r	a12, 0xfffe4d78
    3b79:	0b0c      	movi.n	a11, 0
    3b7b:	434cb2        	s8i	a11, a12, 67
    3b7e:	ff6646        	j	0x391b
    3b81:	414e22        	s8i	a2, a14, 65
    3b84:	fe9506        	j	0x35dc
    3b87:	154c22        	s8i	a2, a12, 21
    3b8a:	fe9386        	j	0x35dc
    3b8d:	890b      	addi.n	a8, a9, -1
    3b8f:	d88856        	bnez	a8, 0x391b
    3b92:	d85b56        	bnez	a11, 0x391b
    3b95:	b504a2        	l8ui	a10, a4, 181
    3b98:	8480c1        	l32r	a12, 0xfffe4d98
    3b9b:	847fd1        	l32r	a13, 0xfffe4d98
    3b9e:	0b0c      	movi.n	a11, 0
    3ba0:	164db2        	s8i	a11, a13, 22
    3ba3:	434cb2        	s8i	a11, a12, 67
    3ba6:	619a27        	bne	a10, a2, 0x3c0b
    3ba9:	8482e1        	l32r	a14, 0xfffe4db4
    3bac:	d8a1f2        	movi	a15, 0x1d8
    3baf:	c1f2f0        	mul16u	a15, a2, a15
    3bb2:	eefa      	add.n	a14, a14, a15
    3bb4:	a1e9      	s32i.n	a14, a1, 40
    3bb6:	730ee2        	l8ui	a14, a14, 115
    3bb9:	04ee56        	bnez	a14, 0x3c0b
    3bbc:	182192        	l32i	a9, a1, 96
    3bbf:	a188      	l32i.n	a8, a1, 40
    3bc1:	7f0992        	l8ui	a9, a9, 127
    3bc4:	720882        	l8ui	a8, a8, 114
    3bc7:	409897        	bne	a8, a9, 0x3c0b
    3bca:	d00392        	l8ui	a9, a3, 208
    3bcd:	3a6966        	bnei	a9, 6, 0x3c0b
    3bd0:	0c06a2        	l8ui	a10, a6, 12
    3bd3:	4abc      	beqz.n	a10, 0x3c0b
    3bd5:	07ad      	mov.n	a10, a7
    3bd7:	ff0065        	excw
    3bda:	d003c2        	l8ui	a12, a3, 208
    3bdd:	3123b2        	l32i	a11, a3, 196
    3be0:	c0bbc0        	sub	a11, a11, a12
    3be3:	c0bba0        	sub	a11, a11, a10
    3be6:	214b66        	bnei	a11, 4, 0x3c0b
    3be9:	02ad      	mov.n	a10, a2
    3beb:	0b0c      	movi.n	a11, 0
    3bed:	ff0525        	excw
    3bf0:	1221d2        	l32i	a13, a1, 72
    3bf3:	1421f2        	l32i	a15, a1, 80
    3bf6:	847f91        	l32r	a9, 0xfffe4df4
    3bf9:	180c      	movi.n	a8, 1
    3bfb:	154982        	s8i	a8, a9, 21
    3bfe:	d1d9e2        	addmi	a14, a9, 0xffffd100
    3c01:	9ef9      	s32i.n	a15, a14, 36
    3c03:	314e22        	s8i	a2, a14, 49
    3c06:	8ed9      	s32i.n	a13, a14, 32
    3c08:	ff43c6        	j	0x391b
    3c0b:	02ad      	mov.n	a10, a2
    3c0d:	ff7725        	excw
    3c10:	fa8c      	beqz.n	a10, 0x3c23
    3c12:	02ad      	mov.n	a10, a2
    3c14:	ff7b65        	excw
    3c17:	8a8c      	beqz.n	a10, 0x3c23
    3c19:	02ad      	mov.n	a10, a2
    3c1b:	0b0c      	movi.n	a11, 0
    3c1d:	ff0225        	excw
    3c20:	fff306        	j	0x3bf0
    3c23:	848aa1        	l32r	a10, 0xfffe4e4c
    3c26:	d8a1b2        	movi	a11, 0x1d8
    3c29:	c1b2b0        	mul16u	a11, a2, a11
    3c2c:	aaba      	add.n	a10, a10, a11
    3c2e:	d1a9      	s32i.n	a10, a1, 52
    3c30:	dc0aa2        	l8ui	a10, a10, 220
    3c33:	631a66        	bnei	a10, 1, 0x3c9a
    3c36:	8a0c      	movi.n	a10, 8
    3c38:	0b0c      	movi.n	a11, 0
    3c3a:	841981        	l32r	a8, 0xfffe4ca0
    3c3d:	2c0c      	movi.n	a12, 2
    3c3f:	641392        	l16ui	a9, a3, 200
    3c42:	ce03d2        	l8ui	a13, a3, 206
    3c45:	6f44d2        	s8i	a13, a4, 111
    3c48:	2099c0        	or	a9, a9, a12
    3c4b:	302882        	l32i	a8, a8, 192
    3c4e:	645392        	s16i	a9, a3, 200
    3c51:	0008e0        	excw
    3c54:	1521f2        	l32i	a15, a1, 84
    3c57:	8480c1        	l32r	a12, 0xfffe4e58
    3c5a:	1b0c      	movi.n	a11, 1
    3c5c:	8477e1        	l32r	a14, 0xfffe4e38
    3c5f:	1321d2        	l32i	a13, a1, 76
    3c62:	8ed9      	s32i.n	a13, a14, 32
    3c64:	414cb2        	s8i	a11, a12, 65
    3c67:	9ef9      	s32i.n	a15, a14, 36
    3c69:	d1b8      	l32i.n	a11, a1, 52
    3c6b:	314e72        	s8i	a7, a14, 49
    3c6e:	c10ba2        	l8ui	a10, a11, 193
    3c71:	111b92        	l16ui	a9, a11, 34
    3c74:	aa1b      	addi.n	a10, a10, 1
    3c76:	74a0a0        	extui	a10, a10, 0, 8
    3c79:	c14ba2        	s8i	a10, a11, 193
    3c7c:	0239a7        	bltu	a9, a10, 0x3c82
    3c7f:	ff2606        	j	0x391b
    3c82:	d198      	l32i.n	a9, a1, 52
    3c84:	c00992        	l8ui	a9, a9, 192
    3c87:	052926        	beqi	a9, 2, 0x3c90
    3c8a:	021926        	beqi	a9, 1, 0x3c90
    3c8d:	c8a956        	bnez	a9, 0x391b
    3c90:	d1b8      	l32i.n	a11, a1, 52
    3c92:	0a0c      	movi.n	a10, 0
    3c94:	dc4ba2        	s8i	a10, a11, 220
    3c97:	ff2006        	j	0x391b
    3c9a:	02ad      	mov.n	a10, a2
    3c9c:	0b0c      	movi.n	a11, 0
    3c9e:	fefa25        	excw
    3ca1:	ffd2c6        	j	0x3bf0
    3ca4:	004136        	excw
    3ca7:	02ad      	mov.n	a10, a2
    3ca9:	03bd      	mov.n	a11, a3
    3cab:	04cd      	mov.n	a12, a4
    3cad:	842a91        	l32r	a9, 0xfffe4d58
    3cb0:	8471d1        	l32r	a13, 0xfffe4e74
    3cb3:	1998      	l32i.n	a9, a9, 4
    3cb5:	4d88      	l32i.n	a8, a13, 16
    3cb7:	419190        	srli	a9, a9, 1
    3cba:	0d99      	s32i.n	a9, a13, 0
    3cbc:	0008e0        	excw
    3cbf:	0a2d      	mov.n	a2, a10
    3cc1:	f01d      	excw
    3cc3:	413600        	srli	a3, a0, 6
    3cc6:	718100        	excw
    3cc9:	02ad84        	excw
    3ccc:	5888      	l32i.n	a8, a8, 20
    3cce:	03bd      	mov.n	a11, a3
    3cd0:	0008e0        	excw
    3cd3:	f01d      	excw
    3cd5:	000000        	ill
    3cd8:	004136        	excw
    3cdb:	847181        	l32r	a8, 0xfffe4ea0
    3cde:	6888      	l32i.n	a8, a8, 24
    3ce0:	02ad      	mov.n	a10, a2
    3ce2:	0008e0        	excw
    3ce5:	0a2d      	mov.n	a2, a10
    3ce7:	ffa092        	movi	a9, 255
    3cea:	0f1a97        	beq	a10, a9, 0x3cfd
    3ced:	848bb1        	l32r	a11, 0xfffe4f1c
    3cf0:	d8a1c2        	movi	a12, 0x1d8
    3cf3:	c1cac0        	mul16u	a12, a10, a12
    3cf6:	1a0c      	movi.n	a10, 1
    3cf8:	bbca      	add.n	a11, a11, a12
    3cfa:	804ba2        	s8i	a10, a11, 128
    3cfd:	f01d      	excw
    3cff:	413600        	srli	a3, a0, 6
    3d02:	a15200        	sll	a5, a2
    3d05:	50d8      	l32i.n	a13, a0, 20
    3d07:	21c152        	addi	a5, a1, 33
    3d0a:	418486        	j	0x14320
    3d0d:	848c      	beqz.n	a4, 0x3d19
    3d0f:	0228      	l32i.n	a2, a2, 0
    3d11:	445a      	add.n	a4, a4, a5
    3d13:	800442        	l8ui	a4, a4, 128
    3d16:	454c      	movi.n	a5, 68
    3d18:	c14450        	mul16u	a4, a4, a5
    3d1b:	224a      	add.n	a2, a2, a4
    3d1d:	1228      	l32i.n	a2, a2, 4
    3d1f:	1228      	l32i.n	a2, a2, 4
    3d21:	140c      	movi.n	a4, 1
    3d23:	452b20        	extui	a2, a2, 27, 5
    3d26:	c02320        	sub	a2, a3, a2
    3d29:	932420        	movnez	a2, a4, a2
    3d2c:	f01d      	excw
    3d2e:	360000        	excw
    3d31:	b10121        	l32r	a2, 0xffff0138
    3d34:	848d      	excw
    3d36:	080c      	movi.n	a8, 0
    3d38:	186122        	s32i	a2, a1, 96
    3d3b:	05cd      	mov.n	a12, a5
    3d3d:	020422        	l8ui	a2, a4, 2
    3d40:	000352        	l8ui	a5, a3, 0
    3d43:	004182        	s8i	a8, a1, 0
    3d46:	232200        	excw
    3d49:	a07240        	addx4	a7, a2, a4
    3d4c:	1a6172        	s32i	a7, a1, 104
    3d4f:	1778      	l32i.n	a7, a7, 4
    3d51:	136162        	s32i	a6, a1, 76
    3d54:	7f4716        	beqz	a7, 0x454c
    3d57:	91c9      	s32i.n	a12, a1, 36
    3d59:	848ea1        	l32r	a10, 0xfffe4f94
    3d5c:	8139      	s32i.n	a3, a1, 32
    3d5e:	65ab      	addi.n	a6, a5, 10
    3d60:	d8a182        	movi	a8, 0x1d8
    3d63:	c18580        	mul16u	a8, a5, a8
    3d66:	401600        	ssl	a6
    3d69:	130c      	movi.n	a3, 1
    3d6b:	f67c      	movi.n	a6, -1
    3d6d:	a13300        	sll	a3, a3
    3d70:	e8ba      	add.n	a14, a8, a11
    3d72:	1961e2        	s32i	a14, a1, 100
    3d75:	303360        	xor	a3, a3, a6
    3d78:	88aa      	add.n	a8, a8, a10
    3d7a:	3463c0        	extui	a6, a12, 3, 4
    3d7d:	166182        	s32i	a8, a1, 88
    3d80:	126132        	s32i	a3, a1, 72
    3d83:	24a0c0        	extui	a10, a12, 0, 3
    3d86:	848fe1        	l32r	a14, 0xfffe4fc4
    3d89:	1061a2        	s32i	a10, a1, 64
    3d8c:	ffde32        	addmi	a3, a14, 0xffffff00
    3d8f:	182192        	l32i	a9, a1, 96
    3d92:	b09290        	addx8	a9, a2, a9
    3d95:	19d8      	l32i.n	a13, a9, 4
    3d97:	04a5d0        	extui	a10, a13, 5, 1
    3d9a:	7aea56        	bnez	a10, 0x454c
    3d9d:	0004e2        	l8ui	a14, a4, 0
    3da0:	156192        	s32i	a9, a1, 84
    3da3:	ae0b      	addi.n	a10, a14, -1
    3da5:	6a8a16        	beqz	a10, 0x4451
    3da8:	feceb2        	addi	a11, a14, -2
    3dab:	1b0b16        	beqz	a11, 0x3f5f
    3dae:	fdcec2        	addi	a12, a14, -3
    3db1:	1bcc16        	beqz	a12, 0x3f71
    3db4:	fccef2        	addi	a15, a14, -4
    3db7:	171f16        	beqz	a15, 0x3f2c
    3dba:	025e66        	bnei	a14, 5, 0x3dc0
    3dbd:	002186        	j	0x3e47
    3dc0:	436e26        	beqi	a14, 6, 0x3e07
    3dc3:	0a0c      	movi.n	a10, 0
    3dc5:	1b0c      	movi.n	a11, 1
    3dc7:	b3a4e5        	excw
    3dca:	1a2182        	l32i	a8, a1, 104
    3dcd:	1521f2        	l32i	a15, a1, 84
    3dd0:	090c      	movi.n	a9, 0
    3dd2:	d21b      	addi.n	a13, a2, 1
    3dd4:	23dd00        	excw
    3dd7:	092d      	mov.n	a2, a9
    3dd9:	1fe8      	l32i.n	a14, a15, 4
    3ddb:	1899      	s32i.n	a9, a8, 4
    3ddd:	04e0e0        	extui	a14, a14, 0, 1
    3de0:	1fe9      	s32i.n	a14, a15, 4
    3de2:	000492        	l8ui	a9, a4, 0
    3de5:	030482        	l8ui	a8, a4, 3
    3de8:	fac992        	addi	a9, a9, -6
    3deb:	238800        	excw
    3dee:	01ad87        	bge	a13, a8, 0x3df3
    3df1:	0d2d      	mov.n	a2, a13
    3df3:	024422        	s8i	a2, a4, 2
    3df6:	a07240        	addx4	a7, a2, a4
    3df9:	1a6172        	s32i	a7, a1, 104
    3dfc:	1778      	l32i.n	a7, a7, 4
    3dfe:	747956        	bnez	a9, 0x4549
    3e01:	701756        	bnez	a7, 0x4506
    3e04:	01d106        	j	0x454c
    3e07:	05ad      	mov.n	a10, a5
    3e09:	74b020        	extui	a11, a2, 0, 8
    3e0c:	ffef25        	excw
    3e0f:	794a16        	beqz	a10, 0x45a7
    3e12:	9313d2        	l16ui	a13, a3, 0x126
    3e15:	848fe1        	l32r	a14, 0xfffe5054
    3e18:	dd1b      	addi.n	a13, a13, 1
    3e1a:	135ed2        	s16i	a13, a14, 38
    3e1d:	1921d2        	l32i	a13, a1, 100
    3e20:	830dc2        	l8ui	a12, a13, 131
    3e23:	23cc00        	excw
    3e26:	cc0b      	addi.n	a12, a12, -1
    3e28:	834dc2        	s8i	a12, a13, 131
    3e2b:	0217b2        	l16ui	a11, a7, 4
    3e2e:	4613a2        	l16ui	a10, a3, 140
    3e31:	0abab7        	bgeu	a10, a11, 0x3e3f
    3e34:	05ad      	mov.n	a10, a5
    3e36:	feda65        	excw
    3e39:	1621e2        	l32i	a14, a1, 88
    3e3c:	1e6ea2        	s32i	a10, a14, 120
    3e3f:	1521d2        	l32i	a13, a1, 84
    3e42:	1dd8      	l32i.n	a13, a13, 4
    3e44:	0008c6        	j	0x3e6b
    3e47:	9713f2        	l16ui	a15, a3, 0x12e
    3e4a:	848f81        	l32r	a8, 0xfffe5088
    3e4d:	ff1b      	addi.n	a15, a15, 1
    3e4f:	1758f2        	s16i	a15, a8, 46
    3e52:	1921f2        	l32i	a15, a1, 100
    3e55:	b97c      	movi.n	a9, -5
    3e57:	820fe2        	l8ui	a14, a15, 130
    3e5a:	1d2f82        	l32i	a8, a15, 116
    3e5d:	23ee00        	excw
    3e60:	108890        	and	a8, a8, a9
    3e63:	1d6f82        	s32i	a8, a15, 116
    3e66:	ee0b      	addi.n	a14, a14, -1
    3e68:	824fe2        	s8i	a14, a15, 130
    3e6b:	14b2d0        	extui	a11, a13, 2, 2
    3e6e:	846181        	l32r	a8, 0xfffe4ff4
    3e71:	05ad      	mov.n	a10, a5
    3e73:	8c2882        	l32i	a8, a8, 0x230
    3e76:	07cd      	mov.n	a12, a7
    3e78:	0008e0        	excw
    3e7b:	846181        	l32r	a8, 0xfffe5000
    3e7e:	a32882        	l32i	a8, a8, 0x28c
    3e81:	05ad      	mov.n	a10, a5
    3e83:	0008e0        	excw
    3e86:	192192        	l32i	a9, a1, 100
    3e89:	1521f2        	l32i	a15, a1, 84
    3e8c:	690992        	l8ui	a9, a9, 105
    3e8f:	1923a2        	l32i	a10, a3, 100
    3e92:	0d7966        	bnei	a9, 7, 0x3ea3
    3e95:	c0aa70        	sub	a10, a10, a7
    3e98:	f2ea56        	bnez	a10, 0x3dca
    3e9b:	0b0c      	movi.n	a11, 0
    3e9d:	4b43b2        	s8i	a11, a3, 75
    3ea0:	ffc986        	j	0x3dca
    3ea3:	1ff8      	l32i.n	a15, a15, 4
    3ea5:	14f2f0        	extui	a15, a15, 2, 2
    3ea8:	023fe6        	bgei	a15, 3, 0x3eae
    3eab:	051fe6        	bgei	a15, 1, 0x3eb4
    3eae:	443f66        	bnei	a15, 3, 0x3ef6
    3eb1:	0012c6        	j	0x3f00
    3eb4:	20a550        	or	a10, a5, a5
    3eb7:	0217b2        	l16ui	a11, a7, 4
    3eba:	fecff2        	addi	a15, a15, -2
    3ebd:	01a0e2        	movi	a14, 1
    3ec0:	0a07c2        	l8ui	a12, a7, 10
    3ec3:	00a0d2        	movi	a13, 0
    3ec6:	cc7a      	add.n	a12, a12, a7
    3ec8:	83def0        	moveqz	a13, a14, a15
    3ecb:	cccb      	addi.n	a12, a12, 12
    3ecd:	0e0c      	movi.n	a14, 0
    3ecf:	027a25        	excw
    3ed2:	846181        	l32r	a8, 0xfffe5058
    3ed5:	07bd      	mov.n	a11, a7
    3ed7:	a02882        	l32i	a8, a8, 0x280
    3eda:	05ad      	mov.n	a10, a5
    3edc:	0008e0        	excw
    3edf:	848191        	l32r	a9, 0xfffe50e4
    3ee2:	8481b1        	l32r	a11, 0xfffe50e8
    3ee5:	300992        	l8ui	a9, a9, 48
    3ee8:	1a0c      	movi.n	a10, 1
    3eea:	c09950        	sub	a9, a9, a5
    3eed:	ed9956        	bnez	a9, 0x3dca
    3ef0:	3a4ba2        	s8i	a10, a11, 58
    3ef3:	ffb4c6        	j	0x3dca
    3ef6:	0a0c      	movi.n	a10, 0
    3ef8:	1b0c      	movi.n	a11, 1
    3efa:	b391a5        	excw
    3efd:	ffb246        	j	0x3dca
    3f00:	a14b      	addi.n	a10, a1, 4
    3f02:	0b0c      	movi.n	a11, 0
    3f04:	8c0c      	movi.n	a12, 8
    3f06:	07cde5        	excw
    3f09:	f8a1b2        	movi	a11, 0x1f8
    3f0c:	c14b      	addi.n	a12, a1, 4
    3f0e:	8d0c      	movi.n	a13, 8
    3f10:	8198      	l32i.n	a9, a1, 32
    3f12:	0a0c      	movi.n	a10, 0
    3f14:	840f81        	l32r	a8, 0xfffe4f50
    3f17:	0441a2        	s8i	a10, a1, 4
    3f1a:	2a0c      	movi.n	a10, 2
    3f1c:	7888      	l32i.n	a8, a8, 28
    3f1e:	000992        	l8ui	a9, a9, 0
    3f21:	054192        	s8i	a9, a1, 5
    3f24:	2179      	s32i.n	a7, a1, 8
    3f26:	0008e0        	excw
    3f29:	ffa746        	j	0x3dca
    3f2c:	05ad      	mov.n	a10, a5
    3f2e:	07bd      	mov.n	a11, a7
    3f30:	761392        	l16ui	a9, a3, 236
    3f33:	846181        	l32r	a8, 0xfffe50b8
    3f36:	991b      	addi.n	a9, a9, 1
    3f38:	8b2882        	l32i	a8, a8, 0x22c
    3f3b:	765392        	s16i	a9, a3, 236
    3f3e:	0008e0        	excw
    3f41:	846181        	l32r	a8, 0xfffe50c8
    3f44:	a32882        	l32i	a8, a8, 0x28c
    3f47:	05ad      	mov.n	a10, a5
    3f49:	0008e0        	excw
    3f4c:	07bd      	mov.n	a11, a7
    3f4e:	846181        	l32r	a8, 0xfffe50d4
    3f51:	81a8      	l32i.n	a10, a1, 32
    3f53:	a22882        	l32i	a8, a8, 0x288
    3f56:	010aa2        	l8ui	a10, a10, 1
    3f59:	0008e0        	excw
    3f5c:	ff9a86        	j	0x3dca
    3f5f:	8469a1        	l32r	a10, 0xfffe5104
    3f62:	122192        	l32i	a9, a1, 72
    3f65:	b12aa2        	l32i	a10, a10, 0x2c4
    3f68:	1099a0        	and	a9, a9, a10
    3f6b:	8466a1        	l32r	a10, 0xfffe5104
    3f6e:	716a92        	s32i	a9, a10, 0x1c4
    3f71:	846181        	l32r	a8, 0xfffe50f8
    3f74:	af2882        	l32i	a8, a8, 0x2bc
    3f77:	0008e0        	excw
    3f7a:	1521d2        	l32i	a13, a1, 84
    3f7d:	1dd8      	l32i.n	a13, a13, 4
    3f7f:	b498d0        	extui	a9, a13, 8, 12
    3f82:	025792        	s16i	a9, a7, 4
    3f85:	1496d0        	extui	a9, a13, 6, 2
    3f88:	211926        	beqi	a9, 1, 0x3fad
    3f8b:	102926        	beqi	a9, 2, 0x3f9f
    3f8e:	263966        	bnei	a9, 3, 0x3fb8
    3f91:	8a13e2        	l16ui	a14, a3, 0x114
    3f94:	848ff1        	l32r	a15, 0xfffe51d0
    3f97:	ee1b      	addi.n	a14, a14, 1
    3f99:	0a5fe2        	s16i	a14, a15, 20
    3f9c:	000606        	j	0x3fb8
    3f9f:	8913f2        	l16ui	a15, a3, 0x112
    3fa2:	848f81        	l32r	a8, 0xfffe51e0
    3fa5:	ff1b      	addi.n	a15, a15, 1
    3fa7:	0958f2        	s16i	a15, a8, 18
    3faa:	000286        	j	0x3fb8
    3fad:	881382        	l16ui	a8, a3, 0x110
    3fb0:	848f91        	l32r	a9, 0xfffe51ec
    3fb3:	881b      	addi.n	a8, a8, 1
    3fb5:	085982        	s16i	a8, a9, 16
    3fb8:	990c      	movi.n	a9, 9
    3fba:	2e9697        	bne	a6, a9, 0x3fec
    3fbd:	6c03a2        	l8ui	a10, a3, 108
    3fc0:	0a9c      	beqz.n	a10, 0x3fd4
    3fc2:	07ad      	mov.n	a10, a7
    3fc4:	841981        	l32r	a8, 0xfffe5028
    3fc7:	1b0c      	movi.n	a11, 1
    3fc9:	8a2882        	l32i	a8, a8, 0x228
    3fcc:	06cd      	mov.n	a12, a6
    3fce:	0008e0        	excw
    3fd1:	ff7d46        	j	0x3dca
    3fd4:	07ad      	mov.n	a10, a7
    3fd6:	848fb1        	l32r	a11, 0xfffe5214
    3fd9:	8b1392        	l16ui	a9, a3, 0x116
    3fdc:	840781        	l32r	a8, 0xfffe4ff8
    3fdf:	991b      	addi.n	a9, a9, 1
    3fe1:	8888      	l32i.n	a8, a8, 32
    3fe3:	0b5b92        	s16i	a9, a11, 22
    3fe6:	0008e0        	excw
    3fe9:	ff7746        	j	0x3dca
    3fec:	132666        	bnei	a6, 2, 0x4003
    3fef:	07ad      	mov.n	a10, a7
    3ff1:	05bd      	mov.n	a11, a5
    3ff3:	846181        	l32r	a8, 0xfffe5178
    3ff6:	91c8      	l32i.n	a12, a1, 36
    3ff8:	8f2882        	l32i	a8, a8, 0x23c
    3ffb:	01dd      	mov.n	a13, a1
    3ffd:	0008e0        	excw
    4000:	ff7186        	j	0x3dca
    4003:	192192        	l32i	a9, a1, 100
    4006:	690992        	l8ui	a9, a9, 105
    4009:	746966        	bnei	a9, 6, 0x4081
    400c:	0256f6        	bgeui	a6, 5, 0x4012
    400f:	0d36f6        	bgeui	a6, 3, 0x4020
    4012:	02a6f6        	bgeui	a6, 12, 0x4018
    4015:	0796f6        	bgeui	a6, 10, 0x4020
    4018:	4db6f6        	bgeui	a6, 16, 0x4069
    401b:	ea0c      	movi.n	a10, 14
    401d:	4836a7        	bltu	a6, a10, 0x4069
    4020:	840781        	l32r	a8, 0xfffe503c
    4023:	f888      	l32i.n	a8, a8, 60
    4025:	07ad      	mov.n	a10, a7
    4027:	0008e0        	excw
    402a:	0a07d2        	l8ui	a13, a7, 10
    402d:	efa092        	movi	a9, 239
    4030:	c0aad0        	sub	a10, a10, a13
    4033:	0c29a7        	blt	a9, a10, 0x4043
    4036:	840781        	l32r	a8, 0xfffe5054
    4039:	8888      	l32i.n	a8, a8, 32
    403b:	07ad      	mov.n	a10, a7
    403d:	0008e0        	excw
    4040:	ff6186        	j	0x3dca
    4043:	0b0c      	movi.n	a11, 0
    4045:	ad7a      	add.n	a10, a13, a7
    4047:	0217e2        	l16ui	a14, a7, 4
    404a:	f0a0c2        	movi	a12, 240
    404d:	c0cce0        	sub	a12, a12, a14
    4050:	aeaa      	add.n	a10, a14, a10
    4052:	aacb      	addi.n	a10, a10, 12
    4054:	07b8e5        	excw
    4057:	07cd      	mov.n	a12, a7
    4059:	840f81        	l32r	a8, 0xfffe5098
    405c:	2a0c      	movi.n	a10, 2
    405e:	8888      	l32i.n	a8, a8, 32
    4060:	f5a1b2        	movi	a11, 0x1f5
    4063:	0008e0        	excw
    4066:	ff5806        	j	0x3dca
    4069:	07ad      	mov.n	a10, a7
    406b:	848fb1        	l32r	a11, 0xfffe52a8
    406e:	8b1392        	l16ui	a9, a3, 0x116
    4071:	840781        	l32r	a8, 0xfffe5090
    4074:	991b      	addi.n	a9, a9, 1
    4076:	8888      	l32i.n	a8, a8, 32
    4078:	0b5b92        	s16i	a9, a11, 22
    407b:	0008e0        	excw
    407e:	ff5206        	j	0x3dca
    4081:	05ad      	mov.n	a10, a5
    4083:	07cd      	mov.n	a12, a7
    4085:	846181        	l32r	a8, 0xfffe520c
    4088:	14b2d0        	extui	a11, a13, 2, 2
    408b:	8d2882        	l32i	a8, a8, 0x234
    408e:	1761b2        	s32i	a11, a1, 92
    4091:	0008e0        	excw
    4094:	0217a2        	l16ui	a10, a7, 4
    4097:	ffa092        	movi	a9, 255
    409a:	1a8c      	beqz.n	a10, 0x409f
    409c:	179597        	bne	a5, a9, 0x40b7
    409f:	07ad      	mov.n	a10, a7
    40a1:	848fb1        	l32r	a11, 0xfffe52e0
    40a4:	8c1392        	l16ui	a9, a3, 0x118
    40a7:	840781        	l32r	a8, 0xfffe50c4
    40aa:	991b      	addi.n	a9, a9, 1
    40ac:	8888      	l32i.n	a8, a8, 32
    40ae:	0c5b92        	s16i	a9, a11, 24
    40b1:	0008e0        	excw
    40b4:	ff4486        	j	0x3dca
    40b7:	6c0392        	l8ui	a9, a3, 108
    40ba:	1c5916        	beqz	a9, 0x4283
    40bd:	848191        	l32r	a9, 0xfffe52c4
    40c0:	580992        	l8ui	a9, a9, 88
    40c3:	a1a9      	s32i.n	a10, a1, 40
    40c5:	459966        	bnei	a9, 10, 0x410e
    40c8:	a1cb      	addi.n	a10, a1, 12
    40ca:	0b0c      	movi.n	a11, 0
    40cc:	8c0c      	movi.n	a12, 8
    40ce:	07b165        	excw
    40d1:	4179      	s32i.n	a7, a1, 16
    40d3:	4b0c      	movi.n	a11, 4
    40d5:	840781        	l32r	a8, 0xfffe50f4
    40d8:	a1a8      	l32i.n	a10, a1, 40
    40da:	591c      	movi.n	a9, 21
    40dc:	0c4192        	s8i	a9, a1, 12
    40df:	1161a2        	s32i	a10, a1, 68
    40e2:	9888      	l32i.n	a8, a8, 36
    40e4:	07ad      	mov.n	a10, a7
    40e6:	0008e0        	excw
    40e9:	842581        	l32r	a8, 0xfffe5180
    40ec:	1121d2        	l32i	a13, a1, 68
    40ef:	0b2c      	movi.n	a11, 32
    40f1:	591c      	movi.n	a9, 21
    40f3:	004a92        	s8i	a9, a10, 0
    40f6:	014ab2        	s8i	a11, a10, 1
    40f9:	024ad2        	s8i	a13, a10, 2
    40fc:	5b1c      	movi.n	a11, 21
    40fe:	41e8d0        	srli	a14, a13, 8
    4101:	034ae2        	s8i	a14, a10, 3
    4104:	7888      	l32i.n	a8, a8, 28
    4106:	07ad      	mov.n	a10, a7
    4108:	0008e0        	excw
    410b:	ff2ec6        	j	0x3dca
    410e:	f5c9f2        	addi	a15, a9, -11
    4111:	134f56        	bnez	a15, 0x4249
    4114:	8490a1        	l32r	a10, 0xfffe5354
    4117:	849181        	l32r	a8, 0xfffe535c
    411a:	0aa8      	l32i.n	a10, a10, 0
    411c:	0888      	l32i.n	a8, a8, 0
    411e:	0238a7        	bltu	a8, a10, 0x4124
    4121:	003ac6        	j	0x4210
    4124:	8481d1        	l32r	a13, 0xfffe5328
    4127:	700dd2        	l8ui	a13, a13, 112
    412a:	34b0d0        	extui	a11, a13, 0, 4
    412d:	2916b7        	beq	a6, a11, 0x415a
    4130:	8481a1        	l32r	a10, 0xfffe5334
    4133:	842981        	l32r	a8, 0xfffe51d8
    4136:	f0a0b2        	movi	a11, 240
    4139:	10bdb0        	and	a11, a13, a11
    413c:	20b6b0        	or	a11, a6, a11
    413f:	2c2882        	l32i	a8, a8, 176
    4142:	74b0b0        	extui	a11, a11, 0, 8
    4145:	704ab2        	s8i	a11, a10, 112
    4148:	6f0aa2        	l8ui	a10, a10, 111
    414b:	0008e0        	excw
    414e:	8481c1        	l32r	a12, 0xfffe5354
    4151:	1921d2        	l32i	a13, a1, 100
    4154:	700cc2        	l8ui	a12, a12, 112
    4157:	934dc2        	s8i	a12, a13, 147
    415a:	8492c1        	l32r	a12, 0xfffe53a4
    415d:	0b0c      	movi.n	a11, 0
    415f:	0cb9      	s32i.n	a11, a12, 0
    4161:	0020c0        	memw
    4164:	8493a1        	l32r	a10, 0xfffe53b0
    4167:	8411d1        	l32r	a13, 0xfffe51ac
    416a:	0aa8      	l32i.n	a10, a10, 0
    416c:	8a2dd2        	l32i	a13, a13, 0x228
    416f:	081da7        	beq	a13, a10, 0x417b
    4172:	0020c0        	memw
    4175:	8411d1        	l32r	a13, 0xfffe51bc
    4178:	8a6da2        	s32i	a10, a13, 0x228
    417b:	3a0c      	movi.n	a10, 3
    417d:	0217b2        	l16ui	a11, a7, 4
    4180:	840781        	l32r	a8, 0xfffe519c
    4183:	bb4b      	addi.n	a11, a11, 4
    4185:	7888      	l32i.n	a8, a8, 28
    4187:	f4b0b0        	extui	a11, a11, 0, 16
    418a:	0008e0        	excw
    418d:	f1a9      	s32i.n	a10, a1, 60
    418f:	0a9a16        	beqz	a10, 0x423c
    4192:	0add      	mov.n	a13, a10
    4194:	0b0c      	movi.n	a11, 0
    4196:	0a0aa2        	l8ui	a10, a10, 10
    4199:	4c0c      	movi.n	a12, 4
    419b:	aada      	add.n	a10, a10, a13
    419d:	aacb      	addi.n	a10, a10, 12
    419f:	c1a9      	s32i.n	a10, a1, 48
    41a1:	07a425        	excw
    41a4:	0217c2        	l16ui	a12, a7, 4
    41a7:	c1a8      	l32i.n	a10, a1, 48
    41a9:	0a07b2        	l8ui	a11, a7, 10
    41ac:	aa4b      	addi.n	a10, a10, 4
    41ae:	bb7a      	add.n	a11, a11, a7
    41b0:	bbcb      	addi.n	a11, a11, 12
    41b2:	079125        	excw
    41b5:	842981        	l32r	a8, 0xfffe525c
    41b8:	cfa0c2        	movi	a12, 207
    41bb:	c1a8      	l32i.n	a10, a1, 48
    41bd:	f1d8      	l32i.n	a13, a1, 60
    41bf:	010a92        	l8ui	a9, a10, 1
    41c2:	0dbd      	mov.n	a11, a13
    41c4:	1099c0        	and	a9, a9, a12
    41c7:	0c2c      	movi.n	a12, 32
    41c9:	2099c0        	or	a9, a9, a12
    41cc:	014a92        	s8i	a9, a10, 1
    41cf:	8481a1        	l32r	a10, 0xfffe53d4
    41d2:	0217c2        	l16ui	a12, a7, 4
    41d5:	552882        	l32i	a8, a8, 0x154
    41d8:	cc4b      	addi.n	a12, a12, 4
    41da:	025dc2        	s16i	a12, a13, 4
    41dd:	6f0aa2        	l8ui	a10, a10, 111
    41e0:	0008e0        	excw
    41e3:	8491a1        	l32r	a10, 0xfffe5428
    41e6:	0a98      	l32i.n	a9, a10, 0
    41e8:	991b      	addi.n	a9, a9, 1
    41ea:	0a99      	s32i.n	a9, a10, 0
    41ec:	0020c0        	memw
    41ef:	8460e1        	l32r	a14, 0xfffe5370
    41f2:	9c2ef2        	l32i	a15, a14, 0x270
    41f5:	0020c0        	memw
    41f8:	849481        	l32r	a8, 0xfffe5448
    41fb:	9d2ed2        	l32i	a13, a14, 0x274
    41fe:	20ff80        	or	a15, a15, a8
    4201:	0020c0        	memw
    4204:	9c6ef2        	s32i	a15, a14, 0x270
    4207:	0020c0        	memw
    420a:	9d6ed2        	s32i	a13, a14, 0x274
    420d:	000ac6        	j	0x423c
    4210:	8495b1        	l32r	a11, 0xfffe5464
    4213:	0bb8      	l32i.n	a11, a11, 0
    4215:	233ba7        	bltu	a11, a10, 0x423c
    4218:	842981        	l32r	a8, 0xfffe52bc
    421b:	242882        	l32i	a8, a8, 144
    421e:	0008e0        	excw
    4221:	3a0c      	movi.n	a10, 3
    4223:	1da2b2        	movi	a11, 0x21d
    4226:	14c1c2        	addi	a12, a1, 20
    4229:	1d0c      	movi.n	a13, 1
    422b:	848191        	l32r	a9, 0xfffe5430
    422e:	840f81        	l32r	a8, 0xfffe526c
    4231:	6f0992        	l8ui	a9, a9, 111
    4234:	7888      	l32i.n	a8, a8, 28
    4236:	144192        	s8i	a9, a1, 20
    4239:	0008e0        	excw
    423c:	840781        	l32r	a8, 0xfffe5258
    423f:	8888      	l32i.n	a8, a8, 32
    4241:	07ad      	mov.n	a10, a7
    4243:	0008e0        	excw
    4246:	fee006        	j	0x3dca
    4249:	172192        	l32i	a9, a1, 92
    424c:	1b1c      	movi.n	a11, 17
    424e:	083966        	bnei	a9, 3, 0x425a
    4251:	053ba7        	bltu	a11, a10, 0x425a
    4254:	2b8626        	beqi	a6, 8, 0x4283
    4257:	283626        	beqi	a6, 3, 0x4283
    425a:	07ad      	mov.n	a10, a7
    425c:	4b0c      	movi.n	a11, 4
    425e:	848fc1        	l32r	a12, 0xfffe549c
    4261:	941392        	l16ui	a9, a3, 0x128
    4264:	840781        	l32r	a8, 0xfffe5280
    4267:	991b      	addi.n	a9, a9, 1
    4269:	9888      	l32i.n	a8, a8, 36
    426b:	145c92        	s16i	a9, a12, 40
    426e:	0008e0        	excw
    4271:	07ad      	mov.n	a10, a7
    4273:	841981        	l32r	a8, 0xfffe52d8
    4276:	1b0c      	movi.n	a11, 1
    4278:	8a2882        	l32i	a8, a8, 0x228
    427b:	06cd      	mov.n	a12, a6
    427d:	0008e0        	excw
    4280:	fed186        	j	0x3dca
    4283:	846181        	l32r	a8, 0xfffe5408
    4286:	a32882        	l32i	a8, a8, 0x28c
    4289:	05ad      	mov.n	a10, a5
    428b:	0008e0        	excw
    428e:	172192        	l32i	a9, a1, 92
    4291:	693966        	bnei	a9, 3, 0x42fe
    4294:	6c03a2        	l8ui	a10, a3, 108
    4297:	392a66        	bnei	a10, 2, 0x42d4
    429a:	848191        	l32r	a9, 0xfffe54a0
    429d:	580992        	l8ui	a9, a9, 88
    42a0:	025926        	beqi	a9, 5, 0x42a6
    42a3:	2d7966        	bnei	a9, 7, 0x42d4
    42a6:	8476a1        	l32r	a10, 0xfffe5480
    42a9:	9c0aa2        	l8ui	a10, a10, 156
    42ac:	246a07        	bbci	a10, 0, 0x42d4
    42af:	841981        	l32r	a8, 0xfffe5314
    42b2:	9c2882        	l32i	a8, a8, 0x270
    42b5:	07ad      	mov.n	a10, a7
    42b7:	0008e0        	excw
    42ba:	6a9c      	beqz.n	a10, 0x42d4
    42bc:	07ad      	mov.n	a10, a7
    42be:	848fb1        	l32r	a11, 0xfffe54fc
    42c1:	a01392        	l16ui	a9, a3, 0x140
    42c4:	840781        	l32r	a8, 0xfffe52e0
    42c7:	991b      	addi.n	a9, a9, 1
    42c9:	8888      	l32i.n	a8, a8, 32
    42cb:	205b92        	s16i	a9, a11, 64
    42ce:	0008e0        	excw
    42d1:	febd46        	j	0x3dca
    42d4:	7179      	s32i.n	a7, a1, 28
    42d6:	194152        	s8i	a5, a1, 25
    42d9:	2a0c      	movi.n	a10, 2
    42db:	f7a1b2        	movi	a11, 0x1f7
    42de:	18c1c2        	addi	a12, a1, 24
    42e1:	8d0c      	movi.n	a13, 8
    42e3:	848fe1        	l32r	a14, 0xfffe5520
    42e6:	090c      	movi.n	a9, 0
    42e8:	840f81        	l32r	a8, 0xfffe5324
    42eb:	184192        	s8i	a9, a1, 24
    42ee:	981392        	l16ui	a9, a3, 0x130
    42f1:	7888      	l32i.n	a8, a8, 28
    42f3:	991b      	addi.n	a9, a9, 1
    42f5:	185e92        	s16i	a9, a14, 48
    42f8:	0008e0        	excw
    42fb:	feb2c6        	j	0x3dca
    42fe:	022926        	beqi	a9, 2, 0x4304
    4301:	1f1966        	bnei	a9, 1, 0x4324
    4304:	1921c2        	l32i	a12, a1, 100
    4307:	8c0cc2        	l8ui	a12, a12, 140
    430a:	ecec      	bnez.n	a12, 0x433c
    430c:	07ad      	mov.n	a10, a7
    430e:	848fb1        	l32r	a11, 0xfffe554c
    4311:	8d1392        	l16ui	a9, a3, 0x11a
    4314:	840781        	l32r	a8, 0xfffe5330
    4317:	991b      	addi.n	a9, a9, 1
    4319:	8888      	l32i.n	a8, a8, 32
    431b:	0d5b92        	s16i	a9, a11, 26
    431e:	0008e0        	excw
    4321:	fea946        	j	0x3dca
    4324:	07ad      	mov.n	a10, a7
    4326:	848fb1        	l32r	a11, 0xfffe5564
    4329:	8b1392        	l16ui	a9, a3, 0x116
    432c:	840781        	l32r	a8, 0xfffe5348
    432f:	991b      	addi.n	a9, a9, 1
    4331:	8888      	l32i.n	a8, a8, 32
    4333:	0b5b92        	s16i	a9, a11, 22
    4336:	0008e0        	excw
    4339:	fea346        	j	0x3dca
    433c:	a1cb      	addi.n	a10, a1, 12
    433e:	1621d2        	l32i	a13, a1, 88
    4341:	0b0c      	movi.n	a11, 0
    4343:	810d92        	l8ui	a9, a13, 129
    4346:	8c0c      	movi.n	a12, 8
    4348:	990b      	addi.n	a9, a9, -1
    434a:	814d92        	s8i	a9, a13, 129
    434d:	078965        	excw
    4350:	849681        	l32r	a8, 0xfffe55a8
    4353:	372882        	l32i	a8, a8, 220
    4356:	05ad      	mov.n	a10, a5
    4358:	0008e0        	excw
    435b:	b1a9      	s32i.n	a10, a1, 44
    435d:	0c41a2        	s8i	a10, a1, 12
    4360:	e1a9      	s32i.n	a10, a1, 56
    4362:	ffa092        	movi	a9, 255
    4365:	179a97        	bne	a10, a9, 0x4380
    4368:	07ad      	mov.n	a10, a7
    436a:	848fb1        	l32r	a11, 0xfffe55a8
    436d:	8b1392        	l16ui	a9, a3, 0x116
    4370:	840781        	l32r	a8, 0xfffe538c
    4373:	991b      	addi.n	a9, a9, 1
    4375:	8888      	l32i.n	a8, a8, 32
    4377:	0b5b92        	s16i	a9, a11, 22
    437a:	0008e0        	excw
    437d:	fe9246        	j	0x3dca
    4380:	4179      	s32i.n	a7, a1, 16
    4382:	07ad      	mov.n	a10, a7
    4384:	4b0c      	movi.n	a11, 4
    4386:	840781        	l32r	a8, 0xfffe53a4
    4389:	021792        	l16ui	a9, a7, 4
    438c:	9888      	l32i.n	a8, a8, 36
    438e:	116192        	s32i	a9, a1, 68
    4391:	0008e0        	excw
    4394:	d1a9      	s32i.n	a10, a1, 52
    4396:	6acc      	bnez.n	a10, 0x43a0
    4398:	845ca1        	l32r	a10, 0xfffe5508
    439b:	0b0c      	movi.n	a11, 0
    439d:	b34765        	excw
    43a0:	01a0e2        	movi	a14, 1
    43a3:	20a0d2        	movi	a13, 32
    43a6:	cfa0c2        	movi	a12, 207
    43a9:	0e21b2        	l32i	a11, a1, 56
    43ac:	d1f8      	l32i.n	a15, a1, 52
    43ae:	172192        	l32i	a9, a1, 92
    43b1:	b1a8      	l32i.n	a10, a1, 44
    43b3:	fec992        	addi	a9, a9, -2
    43b6:	004fa2        	s8i	a10, a15, 0
    43b9:	41b8b0        	srli	a11, a11, 8
    43bc:	10bbc0        	and	a11, a11, a12
    43bf:	05ad      	mov.n	a10, a5
    43c1:	0c1c      	movi.n	a12, 16
    43c3:	20cbc0        	or	a12, a11, a12
    43c6:	20bbd0        	or	a11, a11, a13
    43c9:	93bc90        	movnez	a11, a12, a9
    43cc:	0d0c      	movi.n	a13, 0
    43ce:	014fb2        	s8i	a11, a15, 1
    43d1:	1121b2        	l32i	a11, a1, 68
    43d4:	024fb2        	s8i	a11, a15, 2
    43d7:	4188b0        	srli	a8, a11, 8
    43da:	034f82        	s8i	a8, a15, 3
    43dd:	0a07c2        	l8ui	a12, a7, 10
    43e0:	83de90        	moveqz	a13, a14, a9
    43e3:	cc7a      	add.n	a12, a12, a7
    43e5:	10ccc2        	addi	a12, a12, 16
    43e8:	022865        	excw
    43eb:	1021a2        	l32i	a10, a1, 64
    43ee:	4afc      	bnez.n	a10, 0x4426
    43f0:	0004b2        	l8ui	a11, a4, 0
    43f3:	072b26        	beqi	a11, 2, 0x43fe
    43f6:	845ca1        	l32r	a10, 0xfffe5568
    43f9:	0b0c      	movi.n	a11, 0
    43fb:	b341a5        	excw
    43fe:	07ad      	mov.n	a10, a7
    4400:	d1b8      	l32i.n	a11, a1, 52
    4402:	840781        	l32r	a8, 0xfffe5420
    4405:	010b92        	l8ui	a9, a11, 1
    4408:	0c4c      	movi.n	a12, 64
    440a:	549090        	extui	a9, a9, 0, 6
    440d:	2099c0        	or	a9, a9, a12
    4410:	014b92        	s8i	a9, a11, 1
    4413:	8888      	l32i.n	a8, a8, 32
    4415:	8b1392        	l16ui	a9, a3, 0x116
    4418:	848fb1        	l32r	a11, 0xfffe5654
    441b:	991b      	addi.n	a9, a9, 1
    441d:	0b5b92        	s16i	a9, a11, 22
    4420:	0008e0        	excw
    4423:	fe68c6        	j	0x3dca
    4426:	848fc1        	l32r	a12, 0xfffe5664
    4429:	9413b2        	l16ui	a11, a3, 0x128
    442c:	8481a1        	l32r	a10, 0xfffe5630
    442f:	bb1b      	addi.n	a11, a11, 1
    4431:	300aa2        	l8ui	a10, a10, 48
    4434:	145cb2        	s16i	a11, a12, 40
    4437:	079a57        	bne	a10, a5, 0x4442
    443a:	8481c1        	l32r	a12, 0xfffe5640
    443d:	1b0c      	movi.n	a11, 1
    443f:	3a4cb2        	s8i	a11, a12, 58
    4442:	842581        	l32r	a8, 0xfffe54d8
    4445:	07ad      	mov.n	a10, a7
    4447:	7888      	l32i.n	a8, a8, 28
    4449:	e1b8      	l32i.n	a11, a1, 56
    444b:	0008e0        	excw
    444e:	fe5e06        	j	0x3dca
    4451:	7c13b2        	l16ui	a11, a3, 248
    4454:	b4a8d0        	extui	a10, a13, 8, 12
    4457:	bb1b      	addi.n	a11, a11, 1
    4459:	7c53b2        	s16i	a11, a3, 248
    445c:	0257a2        	s16i	a10, a7, 4
    445f:	6c0392        	l8ui	a9, a3, 108
    4462:	099c      	beqz.n	a9, 0x4476
    4464:	07ad      	mov.n	a10, a7
    4466:	841981        	l32r	a8, 0xfffe54cc
    4469:	0b0c      	movi.n	a11, 0
    446b:	8a2882        	l32i	a8, a8, 0x228
    446e:	0c0c      	movi.n	a12, 0
    4470:	0008e0        	excw
    4473:	fe54c6        	j	0x3dca
    4476:	1496d0        	extui	a9, a13, 6, 2
    4479:	3b1926        	beqi	a9, 1, 0x44b8
    447c:	1a3926        	beqi	a9, 3, 0x449a
    447f:	7e13e2        	l16ui	a14, a3, 252
    4482:	81d8      	l32i.n	a13, a1, 32
    4484:	ee1b      	addi.n	a14, a14, 1
    4486:	7e53e2        	s16i	a14, a3, 252
    4489:	010dd2        	l8ui	a13, a13, 1
    448c:	0e0c      	movi.n	a14, 0
    448e:	1461e2        	s32i	a14, a1, 80
    4491:	b0ddd0        	addx8	a13, a13, a13
    4494:	a0dd30        	addx4	a13, a13, a3
    4497:	000f06        	j	0x44d7
    449a:	81d8      	l32i.n	a13, a1, 32
    449c:	8013e2        	l16ui	a14, a3, 0x100
    449f:	848ff1        	l32r	a15, 0xfffe56dc
    44a2:	ee1b      	addi.n	a14, a14, 1
    44a4:	005fe2        	s16i	a14, a15, 0
    44a7:	010dd2        	l8ui	a13, a13, 1
    44aa:	3e0c      	movi.n	a14, 3
    44ac:	1461e2        	s32i	a14, a1, 80
    44af:	b0ddd0        	addx8	a13, a13, a13
    44b2:	a0dd30        	addx4	a13, a13, a3
    44b5:	000786        	j	0x44d7
    44b8:	7f1382        	l16ui	a8, a3, 254
    44bb:	81f8      	l32i.n	a15, a1, 32
    44bd:	881b      	addi.n	a8, a8, 1
    44bf:	7f5382        	s16i	a8, a3, 254
    44c2:	010ff2        	l8ui	a15, a15, 1
    44c5:	b0dff0        	addx8	a13, a15, a15
    44c8:	a0dd30        	addx4	a13, a13, a3
    44cb:	3fcc      	bnez.n	a15, 0x44d2
    44cd:	190c      	movi.n	a9, 1
    44cf:	735d92        	s16i	a9, a13, 230
    44d2:	1a0c      	movi.n	a10, 1
    44d4:	1461a2        	s32i	a10, a1, 80
    44d7:	846181        	l32r	a8, 0xfffe565c
    44da:	ce0da2        	l8ui	a10, a13, 206
    44dd:	8e2882        	l32i	a8, a8, 0x238
    44e0:	07bd      	mov.n	a11, a7
    44e2:	0008e0        	excw
    44e5:	846181        	l32r	a8, 0xfffe566c
    44e8:	a32882        	l32i	a8, a8, 0x28c
    44eb:	05ad      	mov.n	a10, a5
    44ed:	0008e0        	excw
    44f0:	07bd      	mov.n	a11, a7
    44f2:	1421c2        	l32i	a12, a1, 80
    44f5:	846181        	l32r	a8, 0xfffe567c
    44f8:	81a8      	l32i.n	a10, a1, 32
    44fa:	a12882        	l32i	a8, a8, 0x284
    44fd:	010aa2        	l8ui	a10, a10, 1
    4500:	0008e0        	excw
    4503:	fe30c6        	j	0x3dca
    4506:	05ad      	mov.n	a10, a5
    4508:	07cd      	mov.n	a12, a7
    450a:	0a07b2        	l8ui	a11, a7, 10
    450d:	842981        	l32r	a8, 0xfffe55b4
    4510:	bb7a      	add.n	a11, a11, a7
    4512:	090bb2        	l8ui	a11, a11, 9
    4515:	eb2882        	l32i	a8, a8, 0x3ac
    4518:	14b4b0        	extui	a11, a11, 4, 2
    451b:	0008e0        	excw
    451e:	bc0c      	movi.n	a12, 11
    4520:	259ac7        	bne	a10, a12, 0x4549
    4523:	182192        	l32i	a9, a1, 96
    4526:	020482        	l8ui	a8, a4, 2
    4529:	81e8      	l32i.n	a14, a1, 32
    452b:	238800        	excw
    452e:	1ee8      	l32i.n	a14, a14, 4
    4530:	d81b      	addi.n	a13, a8, 1
    4532:	b08890        	addx8	a8, a8, a9
    4535:	04d0d0        	extui	a13, a13, 0, 1
    4538:	01dd50        	slli	a13, a13, 27
    453b:	18f8      	l32i.n	a15, a8, 4
    453d:	dfaf92        	movi	a9, -33
    4540:	10ff90        	and	a15, a15, a9
    4543:	18f9      	s32i.n	a15, a8, 4
    4545:	2ed9      	s32i.n	a13, a14, 8
    4547:	1ed9      	s32i.n	a13, a14, 4
    4549:	842756        	bnez	a7, 0x3d8f
    454c:	1321f2        	l32i	a15, a1, 76
    454f:	6fbc      	beqz.n	a15, 0x4589
    4551:	0004e2        	l8ui	a14, a4, 0
    4554:	181e26        	beqi	a14, 1, 0x4570
    4557:	302e26        	beqi	a14, 2, 0x458b
    455a:	3a3e26        	beqi	a14, 3, 0x4598
    455d:	3c4e26        	beqi	a14, 4, 0x459d
    4560:	3e5e26        	beqi	a14, 5, 0x45a2
    4563:	face92        	addi	a9, a14, -6
    4566:	881c      	movi.n	a8, 24
    4568:	1b0c      	movi.n	a11, 1
    456a:	83b890        	moveqz	a11, a8, a9
    456d:	000046        	j	0x4572
    4570:	2b1c      	movi.n	a11, 18
    4572:	848da1        	l32r	a10, 0xfffe57a8
    4575:	842981        	l32r	a8, 0xfffe561c
    4578:	d8a1c2        	movi	a12, 0x1d8
    457b:	c1c5c0        	mul16u	a12, a5, a12
    457e:	832882        	l32i	a8, a8, 0x20c
    4581:	aaca      	add.n	a10, a10, a12
    4583:	900aa2        	l8ui	a10, a10, 144
    4586:	0008e0        	excw
    4589:	f01d      	excw
    458b:	0001e2        	l8ui	a14, a1, 0
    458e:	4d1c      	movi.n	a13, 20
    4590:	3b1c      	movi.n	a11, 19
    4592:	93bde0        	movnez	a11, a13, a14
    4595:	fff646        	j	0x4572
    4598:	5b1c      	movi.n	a11, 21
    459a:	fff506        	j	0x4572
    459d:	6b1c      	movi.n	a11, 22
    459f:	fff3c6        	j	0x4572
    45a2:	7b1c      	movi.n	a11, 23
    45a4:	fff286        	j	0x4572
    45a7:	152192        	l32i	a9, a1, 84
    45aa:	8476f1        	l32r	a15, 0xfffe5784
    45ad:	1988      	l32i.n	a8, a9, 4
    45af:	0a2c      	movi.n	a10, 32
    45b1:	2088a0        	or	a8, a8, a10
    45b4:	1989      	s32i.n	a8, a9, 4
    45b6:	9c0ff2        	l8ui	a15, a15, 156
    45b9:	480c      	movi.n	a8, 4
    45bb:	04f2f0        	extui	a15, a15, 2, 1
    45be:	11ffe0        	slli	a15, a15, 2
    45c1:	10ff80        	and	a15, a15, a8
    45c4:	280c      	movi.n	a8, 2
    45c6:	20ff80        	or	a15, a15, a8
    45c9:	849781        	l32r	a8, 0xfffe5828
    45cc:	0020c0        	memw
    45cf:	8168f2        	s32i	a15, a8, 0x204
    45d2:	f01d      	excw
    45d4:	004136        	excw
    45d7:	db0c      	movi.n	a11, 13
    45d9:	842a81        	l32r	a8, 0xfffe5684
    45dc:	849841        	l32r	a4, 0xfffe583c
    45df:	d8a162        	movi	a6, 0x1d8
    45e2:	c16260        	mul16u	a6, a2, a6
    45e5:	070c      	movi.n	a7, 0
    45e7:	446a      	add.n	a4, a4, a6
    45e9:	842961        	l32r	a6, 0xfffe5690
    45ec:	4d4872        	s8i	a7, a8, 77
    45ef:	832682        	l32i	a8, a6, 0x20c
    45f2:	9304a2        	l8ui	a10, a4, 147
    45f5:	0008e0        	excw
    45f8:	847681        	l32r	a8, 0xfffe57d0
    45fb:	710882        	l8ui	a8, a8, 113
    45fe:	049856        	bnez	a8, 0x464b
    4601:	841951        	l32r	a5, 0xfffe5668
    4604:	372582        	l32i	a8, a5, 220
    4607:	0008e0        	excw
    460a:	848691        	l32r	a9, 0xfffe5824
    460d:	8499a1        	l32r	a10, 0xfffe5874
    4610:	1998      	l32i.n	a9, a9, 4
    4612:	000aa2        	l8ui	a10, a10, 0
    4615:	326947        	bbci	a9, 4, 0x464b
    4618:	2f1a66        	bnei	a10, 1, 0x464b
    461b:	849ab1        	l32r	a11, 0xfffe5884
    461e:	a22bb2        	l32i	a11, a11, 0x288
    4621:	6bac      	beqz.n	a11, 0x464b
    4623:	232682        	l32i	a8, a6, 140
    4626:	6d04a2        	l8ui	a10, a4, 109
    4629:	0008e0        	excw
    462c:	6d4472        	s8i	a7, a4, 109
    462f:	2e2582        	l32i	a8, a5, 184
    4632:	849ba1        	l32r	a10, 0xfffe58a0
    4635:	0008e0        	excw
    4638:	3a0c      	movi.n	a10, 3
    463a:	20a2b2        	movi	a11, 0x220
    463d:	840f81        	l32r	a8, 0xfffe567c
    4640:	0c0c      	movi.n	a12, 0
    4642:	7888      	l32i.n	a8, a8, 28
    4644:	0d0c      	movi.n	a13, 0
    4646:	0008e0        	excw
    4649:	f01d      	excw
    464b:	847181        	l32r	a8, 0xfffe5810
    464e:	02ad      	mov.n	a10, a2
    4650:	7888      	l32i.n	a8, a8, 28
    4652:	03bd      	mov.n	a11, a3
    4654:	0008e0        	excw
    4657:	f01d      	excw
    4659:	000000        	ill
    465c:	006136        	excw
    465f:	02ad      	mov.n	a10, a2
    4661:	01bd      	mov.n	a11, a1
    4663:	849c81        	l32r	a8, 0xfffe58d4
    4666:	090c      	movi.n	a9, 0
    4668:	ec2882        	l32i	a8, a8, 0x3b0
    466b:	004192        	s8i	a9, a1, 0
    466e:	0008e0        	excw
    4671:	0a05c2        	l8ui	a12, a5, 10
    4674:	0004e2        	l8ui	a14, a4, 0
    4677:	cc5a      	add.n	a12, a12, a5
    4679:	0c0cb2        	l8ui	a11, a12, 12
    467c:	7ba0d2        	movi	a13, 123
    467f:	74b1b0        	extui	a11, a11, 1, 8
    4682:	0abdb7        	bgeu	a13, a11, 0x4690
    4685:	0d0cd2        	l8ui	a13, a12, 13
    4688:	11dd80        	slli	a13, a13, 8
    468b:	bbda      	add.n	a11, a11, a13
    468d:	f4b0b0        	extui	a11, a11, 0, 16
    4690:	105e66        	bnei	a14, 5, 0x46a4
    4693:	100aa2        	l8ui	a10, a10, 16
    4696:	ff1c      	movi.n	a15, 31
    4698:	021a66        	bnei	a10, 1, 0x469e
    469b:	191bf7        	beq	a11, a15, 0x46b8
    469e:	022a66        	bnei	a10, 2, 0x46a4
    46a1:	13cb26        	beqi	a11, 32, 0x46b8
    46a4:	02ad      	mov.n	a10, a2
    46a6:	03bd      	mov.n	a11, a3
    46a8:	847181        	l32r	a8, 0xfffe586c
    46ab:	04cd      	mov.n	a12, a4
    46ad:	8888      	l32i.n	a8, a8, 32
    46af:	05dd      	mov.n	a13, a5
    46b1:	0008e0        	excw
    46b4:	0a2d      	mov.n	a2, a10
    46b6:	f01d      	excw
    46b8:	840781        	l32r	a8, 0xfffe56d4
    46bb:	8888      	l32i.n	a8, a8, 32
    46bd:	05ad      	mov.n	a10, a5
    46bf:	0008e0        	excw
    46c2:	020c      	movi.n	a2, 0
    46c4:	f01d      	excw
    46c6:	360000        	excw
    46c9:	510041        	l32r	a4, 0xfffd8acc
    46cc:	818476        	excw
    46cf:	849d      	excw
    46d1:	940552        	l8ui	a5, a5, 148
    46d4:	ffa062        	movi	a6, 255
    46d7:	141567        	beq	a5, a6, 0x46ef
    46da:	d8a192        	movi	a9, 0x1d8
    46dd:	c19590        	mul16u	a9, a5, a9
    46e0:	889a      	add.n	a8, a8, a9
    46e2:	800882        	l8ui	a8, a8, 128
    46e5:	069867        	bne	a8, a6, 0x46ef
    46e8:	039257        	bne	a2, a5, 0x46ef
    46eb:	120c      	movi.n	a2, 1
    46ed:	f01d      	excw
    46ef:	020c      	movi.n	a2, 0
    46f1:	f01d      	excw
    46f3:	613600        	excw
    46f6:	026d04        	excw
    46f9:	01ad      	mov.n	a10, a1
    46fb:	849eb1        	l32r	a11, 0xfffe5974
    46fe:	4c1c      	movi.n	a12, 20
    4700:	073c25        	excw
    4703:	848d31        	l32r	a3, 0xfffe5938
    4706:	d8a182        	movi	a8, 0x1d8
    4709:	c18280        	mul16u	a8, a2, a8
    470c:	338a      	add.n	a3, a3, a8
    470e:	9103a2        	l8ui	a10, a3, 145
    4711:	9a8c      	beqz.n	a10, 0x471e
    4713:	845ca1        	l32r	a10, 0xfffe5884
    4716:	0b0c      	movi.n	a11, 0
    4718:	b30fa5        	excw
    471b:	9103a2        	l8ui	a10, a3, 145
    471e:	842ab1        	l32r	a11, 0xfffe57c8
    4721:	b09aa0        	addx8	a9, a10, a10
    4724:	a099b0        	addx4	a9, a9, a11
    4727:	641992        	l16ui	a9, a9, 200
    472a:	0ae917        	bbsi	a9, 1, 0x4738
    472d:	845ca1        	l32r	a10, 0xfffe58a0
    4730:	0b0c      	movi.n	a11, 0
    4732:	b30e25        	excw
    4735:	9103a2        	l8ui	a10, a3, 145
    4738:	040c      	movi.n	a4, 0
    473a:	746162        	s32i	a6, a1, 0x1d0
    473d:	8486e1        	l32r	a14, 0xfffe5958
    4740:	494c      	movi.n	a9, 68
    4742:	900382        	l8ui	a8, a3, 144
    4745:	7b61a2        	s32i	a10, a1, 0x1ec
    4748:	0b0c      	movi.n	a11, 0
    474a:	b05aa0        	addx8	a5, a10, a10
    474d:	51b9      	s32i.n	a11, a1, 20
    474f:	8480a1        	l32r	a10, 0xfffe5950
    4752:	c18890        	mul16u	a8, a8, a9
    4755:	d2dec2        	addmi	a12, a14, 0xffffd200
    4758:	0e78      	l32i.n	a7, a14, 0
    475a:	a055c0        	addx4	a5, a5, a12
    475d:	6c0cc2        	l8ui	a12, a12, 108
    4760:	6515f2        	l16ui	a15, a5, 202
    4763:	778a      	add.n	a7, a7, a8
    4765:	e10522        	l8ui	a2, a5, 225
    4768:	7e6172        	s32i	a7, a1, 0x1f8
    476b:	d10572        	l8ui	a7, a5, 209
    476e:	424a22        	s8i	a2, a10, 66
    4771:	08da22        	addmi	a2, a10, 0x800
    4774:	0e2c66        	bnei	a12, 2, 0x4786
    4777:	580292        	l8ui	a9, a2, 88
    477a:	fac9d2        	addi	a13, a9, -6
    477d:	742d16        	beqz	a13, 0x4ec3
    4780:	f8c982        	addi	a8, a9, -8
    4783:	73c816        	beqz	a8, 0x4ec3
    4786:	880c      	movi.n	a8, 8
    4788:	090c      	movi.n	a9, 0
    478a:	0d0c      	movi.n	a13, 0
    478c:	7861d2        	s32i	a13, a1, 0x1e0
    478f:	6415d2        	l16ui	a13, a5, 200
    4792:	7f6192        	s32i	a9, a1, 0x1fc
    4795:	10dd80        	and	a13, a13, a8
    4798:	80a7e2        	movi	a14, 0x780
    479b:	240d16        	beqz	a13, 0x49df
    479e:	7d1c      	movi.n	a13, 23
    47a0:	0c7726        	beqi	a7, 7, 0x47b0
    47a3:	042d77        	blt	a13, a7, 0x47ab
    47a6:	691c      	movi.n	a9, 22
    47a8:	04a797        	bge	a7, a9, 0x47b0
    47ab:	3e0c      	movi.n	a14, 3
    47ad:	000046        	j	0x47b2
    47b0:	1e0c      	movi.n	a14, 1
    47b2:	d205d2        	l8ui	a13, a5, 210
    47b5:	0e7d26        	beqi	a13, 7, 0x47c7
    47b8:	781c      	movi.n	a8, 23
    47ba:	0428d7        	blt	a8, a13, 0x47c2
    47bd:	691c      	movi.n	a9, 22
    47bf:	04ad97        	bge	a13, a9, 0x47c7
    47c2:	3d0c      	movi.n	a13, 3
    47c4:	000046        	j	0x47c9
    47c7:	1d0c      	movi.n	a13, 1
    47c9:	847691        	l32r	a9, 0xfffe59a4
    47cc:	700992        	l8ui	a9, a9, 112
    47cf:	1ae907        	bbsi	a9, 0, 0x47ed
    47d2:	17e917        	bbsi	a9, 1, 0x47ed
    47d5:	847e81        	l32r	a8, 0xfffe59d0
    47d8:	900882        	l8ui	a8, a8, 144
    47db:	ffa092        	movi	a9, 255
    47de:	0b9897        	bne	a8, a9, 0x47ed
    47e1:	847e91        	l32r	a9, 0xfffe59dc
    47e4:	630992        	l8ui	a9, a9, 99
    47e7:	ffa082        	movi	a8, 255
    47ea:	071987        	beq	a9, a8, 0x47f5
    47ed:	2dea      	add.n	a2, a13, a14
    47ef:	424a42        	s8i	a4, a10, 66
    47f2:	000b46        	j	0x4823
    47f5:	6b0382        	l8ui	a8, a3, 107
    47f8:	48cc      	bnez.n	a8, 0x4800
    47fa:	1d2392        	l32i	a9, a3, 116
    47fd:	ecf907        	bbsi	a9, 16, 0x47ed
    4800:	842a81        	l32r	a8, 0xfffe58a8
    4803:	b90882        	l8ui	a8, a8, 185
    4806:	2dea      	add.n	a2, a13, a14
    4808:	789c      	beqz.n	a8, 0x4823
    480a:	e10592        	l8ui	a9, a5, 225
    480d:	d005e2        	l8ui	a14, a5, 208
    4810:	929a      	add.n	a9, a2, a9
    4812:	994b      	addi.n	a9, a9, 4
    4814:	0bae97        	bge	a14, a9, 0x4823
    4817:	04dd      	mov.n	a13, a4
    4819:	826b      	addi.n	a8, a2, 6
    481b:	012e87        	blt	a14, a8, 0x4820
    481e:	2d0c      	movi.n	a13, 2
    4820:	424ad2        	s8i	a13, a10, 66
    4823:	0e2c66        	bnei	a12, 2, 0x4835
    4826:	848191        	l32r	a9, 0xfffe5a2c
    4829:	580992        	l8ui	a9, a9, 88
    482c:	026926        	beqi	a9, 6, 0x4832
    482f:	028966        	bnei	a9, 8, 0x4835
    4832:	424a42        	s8i	a4, a10, 66
    4835:	842ac1        	l32r	a12, 0xfffe58e0
    4838:	1f2cc2        	l32i	a12, a12, 124
    483b:	8161f2        	s32i	a15, a1, 0x204
    483e:	576c37        	bbci	a12, 3, 0x4899
    4841:	18c1a2        	addi	a10, a1, 24
    4844:	0b0c      	movi.n	a11, 0
    4846:	a8a1c2        	movi	a12, 0x1a8
    4849:	0739a5        	excw
    484c:	841a81        	l32r	a8, 0xfffe58b4
    484f:	18c1a2        	addi	a10, a1, 24
    4852:	822882        	l32i	a8, a8, 0x208
    4855:	ffa0b2        	movi	a11, 255
    4858:	0008e0        	excw
    485b:	ce05a2        	l8ui	a10, a5, 206
    485e:	180192        	l8ui	a9, a1, 24
    4861:	766192        	s32i	a9, a1, 0x1d8
    4864:	ffe625        	excw
    4867:	8121f2        	l32i	a15, a1, 0x204
    486a:	8adc      	bnez.n	a10, 0x4886
    486c:	8480a1        	l32r	a10, 0xfffe5a6c
    486f:	30dab2        	addmi	a11, a10, 0x3000
    4872:	940bb2        	l8ui	a11, a11, 148
    4875:	ffa0c2        	movi	a12, 255
    4878:	049bc7        	bne	a11, a12, 0x4880
    487b:	7621c2        	l32i	a12, a1, 0x1d8
    487e:	5c9c      	beqz.n	a12, 0x4897
    4880:	424a42        	s8i	a4, a10, 66
    4883:	000406        	j	0x4897
    4886:	842ad1        	l32r	a13, 0xfffe5930
    4889:	8480a1        	l32r	a10, 0xfffe5a8c
    488c:	c20dd2        	l8ui	a13, a13, 194
    488f:	2e0c      	movi.n	a14, 2
    4891:	63dde0        	excw
    4894:	424ad2        	s8i	a13, a10, 66
    4897:	51b8      	l32i.n	a11, a1, 20
    4899:	849fe1        	l32r	a14, 0xfffe5b18
    489c:	f22ee2        	l32i	a14, a14, 0x3c8
    489f:	090ee2        	l8ui	a14, a14, 9
    48a2:	113e66        	bnei	a14, 3, 0x48b7
    48a5:	d00582        	l8ui	a8, a5, 208
    48a8:	02a8f6        	bgeui	a8, 12, 0x48ae
    48ab:	0182c6        	j	0x4eba
    48ae:	e10592        	l8ui	a9, a5, 225
    48b1:	424a92        	s8i	a9, a10, 66
    48b4:	000146        	j	0x48bd
    48b7:	842a91        	l32r	a9, 0xfffe5960
    48ba:	c20992        	l8ui	a9, a9, 194
    48bd:	84a1a1        	l32r	a10, 0xfffe5b44
    48c0:	84a3e1        	l32r	a14, 0xfffe5b4c
    48c3:	84a081        	l32r	a8, 0xfffe5b44
    48c6:	d29a      	add.n	a13, a2, a9
    48c8:	84a221        	l32r	a2, 0xfffe5b50
    48cb:	1d2392        	l32i	a9, a3, 116
    48ce:	21c1d0        	srai	a12, a13, 1
    48d1:	9c0882        	l8ui	a8, a8, 156
    48d4:	e4d1d0        	extui	a13, a13, 1, 15
    48d7:	7a6182        	s32i	a8, a1, 0x1e8
    48da:	049090        	extui	a9, a9, 0, 1
    48dd:	a8ac      	beqz.n	a8, 0x490b
    48df:	281866        	bnei	a8, 1, 0x490b
    48e2:	746162        	s32i	a6, a1, 0x1d0
    48e5:	018910        	slli	a8, a9, 31
    48e8:	102820        	and	a2, a8, a2
    48eb:	019920        	slli	a9, a9, 30
    48ee:	1099a0        	and	a9, a9, a10
    48f1:	348060        	extui	a8, a6, 0, 4
    48f4:	209920        	or	a9, a9, a2
    48f7:	012ce0        	slli	a2, a12, 18
    48fa:	208890        	or	a8, a8, a9
    48fd:	1022e0        	and	a2, a2, a14
    4900:	202280        	or	a2, a2, a8
    4903:	084c      	movi.n	a8, 64
    4905:	202280        	or	a2, a2, a8
    4908:	000986        	j	0x4932
    490b:	018910        	slli	a8, a9, 31
    490e:	102820        	and	a2, a8, a2
    4911:	018920        	slli	a8, a9, 30
    4914:	1088a0        	and	a8, a8, a10
    4917:	208820        	or	a8, a8, a2
    491a:	012ce0        	slli	a2, a12, 18
    491d:	34c060        	extui	a12, a6, 0, 4
    4920:	1022e0        	and	a2, a2, a14
    4923:	2022c0        	or	a2, a2, a12
    4926:	202280        	or	a2, a2, a8
    4929:	84a481        	l32r	a8, 0xfffe5bbc
    492c:	746162        	s32i	a6, a1, 0x1d0
    492f:	102280        	and	a2, a2, a8
    4932:	845be1        	l32r	a14, 0xfffe5aa0
    4935:	116fc0        	slli	a6, a15, 4
    4938:	84a581        	l32r	a8, 0xfffe5bcc
    493b:	d205c2        	l8ui	a12, a5, 210
    493e:	661592        	l16ui	a9, a5, 204
    4941:	04a4c0        	extui	a10, a12, 4, 1
    4944:	1199c0        	slli	a9, a9, 4
    4947:	34c0c0        	extui	a12, a12, 0, 4
    494a:	109980        	and	a9, a9, a8
    494d:	106680        	and	a6, a6, a8
    4950:	11aa20        	slli	a10, a10, 14
    4953:	10aae0        	and	a10, a10, a14
    4956:	84a681        	l32r	a8, 0xfffe5bf0
    4959:	20aac0        	or	a10, a10, a12
    495c:	e205e2        	l8ui	a14, a5, 226
    495f:	8803c2        	l8ui	a12, a3, 136
    4962:	2099a0        	or	a9, a9, a10
    4965:	7c6192        	s32i	a9, a1, 0x1f0
    4968:	d005a2        	l8ui	a10, a5, 208
    496b:	11ee10        	slli	a14, a14, 15
    496e:	10ee80        	and	a14, a14, a8
    4971:	01cce0        	slli	a12, a12, 18
    4974:	84a781        	l32r	a8, 0xfffe5c10
    4977:	41a1a0        	srli	a10, a10, 1
    497a:	11aa20        	slli	a10, a10, 14
    497d:	10cc80        	and	a12, a12, a8
    4980:	d8a182        	movi	a8, 0x1d8
    4983:	20cce0        	or	a12, a12, a14
    4986:	8061c2        	s32i	a12, a1, 0x200
    4989:	e005e2        	l8ui	a14, a5, 224
    498c:	84a8c1        	l32r	a12, 0xfffe5c2c
    498f:	119e90        	slli	a9, a14, 7
    4992:	10aac0        	and	a10, a10, a12
    4995:	c1ee80        	mul16u	a14, a14, a8
    4998:	80a7c2        	movi	a12, 0x780
    499b:	082c      	movi.n	a8, 32
    499d:	1099c0        	and	a9, a9, a12
    49a0:	845ac1        	l32r	a12, 0xfffe5b08
    49a3:	2099a0        	or	a9, a9, a10
    49a6:	20bb90        	or	a11, a11, a9
    49a9:	20bb80        	or	a11, a11, a8
    49ac:	ccea      	add.n	a12, a12, a14
    49ae:	7f2c92        	l32i	a9, a12, 0x1fc
    49b1:	51b9      	s32i.n	a11, a1, 20
    49b3:	106967        	bbci	a9, 6, 0x49c7
    49b6:	84a9e1        	l32r	a14, 0xfffe5c5c
    49b9:	bfaff2        	movi	a15, -65
    49bc:	10f9f0        	and	a15, a9, a15
    49bf:	7f6cf2        	s32i	a15, a12, 0x1fc
    49c2:	20ebe0        	or	a14, a11, a14
    49c5:	51e9      	s32i.n	a14, a1, 20
    49c7:	84aa91        	l32r	a9, 0xfffe5c70
    49ca:	3188      	l32i.n	a8, a1, 12
    49cc:	842ac1        	l32r	a12, 0xfffe5a74
    49cf:	8e0c      	movi.n	a14, 8
    49d1:	7761e2        	s32i	a14, a1, 0x1dc
    49d4:	6c0cc2        	l8ui	a12, a12, 108
    49d7:	208890        	or	a8, a8, a9
    49da:	3189      	s32i.n	a8, a1, 12
    49dc:	000b86        	j	0x4a0e
    49df:	060c      	movi.n	a6, 0
    49e1:	020c      	movi.n	a2, 0
    49e3:	0d0c      	movi.n	a13, 0
    49e5:	84a681        	l32r	a8, 0xfffe5c80
    49e8:	742192        	l32i	a9, a1, 0x1d0
    49eb:	8803f2        	l8ui	a15, a3, 136
    49ee:	7b0c      	movi.n	a11, 7
    49f0:	0a0c      	movi.n	a10, 0
    49f2:	7c61a2        	s32i	a10, a1, 0x1f0
    49f5:	7761b2        	s32i	a11, a1, 0x1dc
    49f8:	0a1c      	movi.n	a10, 16
    49fa:	11ff10        	slli	a15, a15, 15
    49fd:	119990        	slli	a9, a9, 7
    4a00:	1099e0        	and	a9, a9, a14
    4a03:	10ff80        	and	a15, a15, a8
    4a06:	8061f2        	s32i	a15, a1, 0x200
    4a09:	2099a0        	or	a9, a9, a10
    4a0c:	5199      	s32i.n	a9, a1, 20
    4a0e:	736142        	s32i	a4, a1, 0x1cc
    4a11:	1c2c66        	bnei	a12, 2, 0x4a31
    4a14:	848191        	l32r	a9, 0xfffe5c18
    4a17:	580992        	l8ui	a9, a9, 88
    4a1a:	056926        	beqi	a9, 6, 0x4a23
    4a1d:	736142        	s32i	a4, a1, 0x1cc
    4a20:	0d8966        	bnei	a9, 8, 0x4a31
    4a23:	736142        	s32i	a4, a1, 0x1cc
    4a26:	84abf1        	l32r	a15, 0xfffe5cd4
    4a29:	1e0c      	movi.n	a14, 1
    4a2b:	10ddf0        	and	a13, a13, a15
    4a2e:	20dde0        	or	a13, a13, a14
    4a31:	846041        	l32r	a4, 0xfffe5bb4
    4a34:	842981        	l32r	a8, 0xfffe5ad8
    4a37:	0020c0        	memw
    4a3a:	db1c      	movi.n	a11, 29
    4a3c:	8f64d2        	s32i	a13, a4, 0x23c
    4a3f:	832882        	l32i	a8, a8, 0x20c
    4a42:	d305a2        	l8ui	a10, a5, 211
    4a45:	0008e0        	excw
    4a48:	6b0392        	l8ui	a9, a3, 107
    4a4b:	0b0c      	movi.n	a11, 0
    4a4d:	07f956        	bnez	a9, 0x4ad0
    4a50:	8b03c2        	l8ui	a12, a3, 139
    4a53:	791c66        	bnei	a12, 1, 0x4ad0
    4a56:	8a2c      	movi.n	a10, 40
    4a58:	842ab1        	l32r	a11, 0xfffe5b00
    4a5b:	842981        	l32r	a8, 0xfffe5b00
    4a5e:	01d1e2        	addmi	a14, a1, 0x100
    4a61:	7321f2        	l32i	a15, a1, 0x1cc
    4a64:	7061f2        	s32i	a15, a1, 0x1c0
    4a67:	7fcee2        	addi	a14, a14, 127
    4a6a:	7d2882        	l32i	a8, a8, 0x1f4
    4a6d:	41cec2        	addi	a12, a14, 65
    4a70:	45ced2        	addi	a13, a14, 69
    4a73:	1bb8      	l32i.n	a11, a11, 4
    4a75:	7a23f2        	l32i	a15, a3, 0x1e8
    4a78:	41b1b0        	srli	a11, a11, 1
    4a7b:	c0bbf0        	sub	a11, a11, a15
    4a7e:	8468f1        	l32r	a15, 0xfffe5c20
    4a81:	49cee2        	addi	a14, a14, 73
    4a84:	10bbf0        	and	a11, a11, a15
    4a87:	11bbf0        	slli	a11, a11, 1
    4a8a:	0008e0        	excw
    4a8d:	702182        	l32i	a8, a1, 0x1c0
    4a90:	f4a1f2        	movi	a15, 0x1f4
    4a93:	043f87        	bltu	a15, a8, 0x4a9b
    4a96:	712192        	l32i	a9, a1, 0x1c4
    4a99:	79ac      	beqz.n	a9, 0x4ac4
    4a9b:	842aa1        	l32r	a10, 0xfffe5b44
    4a9e:	6415b2        	l16ui	a11, a5, 200
    4aa1:	00a2c2        	movi	a12, 0x200
    4aa4:	20bbc0        	or	a11, a11, a12
    4aa7:	6455b2        	s16i	a11, a5, 200
    4aaa:	6c0aa2        	l8ui	a10, a10, 108
    4aad:	132a66        	bnei	a10, 2, 0x4ac4
    4ab0:	848191        	l32r	a9, 0xfffe5cb4
    4ab3:	580992        	l8ui	a9, a9, 88
    4ab6:	026926        	beqi	a9, 6, 0x4abc
    4ab9:	078966        	bnei	a9, 8, 0x4ac4
    4abc:	845ca1        	l32r	a10, 0xfffe5c2c
    4abf:	0b0c      	movi.n	a11, 0
    4ac1:	b2d525        	excw
    4ac4:	7221c2        	l32i	a12, a1, 0x1c8
    4ac7:	7121b2        	l32i	a11, a1, 0x1c4
    4aca:	702192        	l32i	a9, a1, 0x1c0
    4acd:	000306        	j	0x4add
    4ad0:	7161b2        	s32i	a11, a1, 0x1c4
    4ad3:	0c0c      	movi.n	a12, 0
    4ad5:	b90c      	movi.n	a9, 11
    4ad7:	706192        	s32i	a9, a1, 0x1c0
    4ada:	7261c2        	s32i	a12, a1, 0x1c8
    4add:	84ade1        	l32r	a14, 0xfffe5d94
    4ae0:	84ac81        	l32r	a8, 0xfffe5d90
    4ae3:	11fb20        	slli	a15, a11, 14
    4ae6:	8021a2        	l32i	a10, a1, 0x200
    4ae9:	a4d090        	extui	a13, a9, 0, 11
    4aec:	20aad0        	or	a10, a10, a13
    4aef:	8061a2        	s32i	a10, a1, 0x200
    4af2:	a4d0c0        	extui	a13, a12, 0, 11
    4af5:	10ff80        	and	a15, a15, a8
    4af8:	2022f0        	or	a2, a2, a15
    4afb:	20dde0        	or	a13, a13, a14
    4afe:	0020c0        	memw
    4b01:	842aa1        	l32r	a10, 0xfffe5bac
    4b04:	8d64d2        	s32i	a13, a4, 0x234
    4b07:	6c0aa2        	l8ui	a10, a10, 108
    4b0a:	0a3a56        	bnez	a10, 0x4bb1
    4b0d:	4b4c      	movi.n	a11, 68
    4b0f:	d305a2        	l8ui	a10, a5, 211
    4b12:	848691        	l32r	a9, 0xfffe5d2c
    4b15:	c1aab0        	mul16u	a10, a10, a11
    4b18:	0998      	l32i.n	a9, a9, 0
    4b1a:	99aa      	add.n	a9, a9, a10
    4b1c:	69e8      	l32i.n	a14, a9, 24
    4b1e:	08fe56        	bnez	a14, 0x4bb1
    4b21:	79a8      	l32i.n	a10, a9, 28
    4b23:	08aa56        	bnez	a10, 0x4bb1
    4b26:	840781        	l32r	a8, 0xfffe5b44
    4b29:	84aea1        	l32r	a10, 0xfffe5de4
    4b2c:	152882        	l32i	a8, a8, 84
    4b2f:	eaa8      	l32i.n	a10, a10, 56
    4b31:	0008e0        	excw
    4b34:	0abd      	mov.n	a11, a10
    4b36:	8a9c      	beqz.n	a10, 0x4b52
    4b38:	842981        	l32r	a8, 0xfffe5bdc
    4b3b:	572882        	l32i	a8, a8, 0x15c
    4b3e:	7b21a2        	l32i	a10, a1, 0x1ec
    4b41:	0008e0        	excw
    4b44:	069a16        	beqz	a10, 0x4bb1
    4b47:	840781        	l32r	a8, 0xfffe5b64
    4b4a:	8888      	l32i.n	a8, a8, 32
    4b4c:	0008e0        	excw
    4b4f:	001786        	j	0x4bb1
    4b52:	7b21a2        	l32i	a10, a1, 0x1ec
    4b55:	fe02e5        	excw
    4b58:	0abd      	mov.n	a11, a10
    4b5a:	840781        	l32r	a8, 0xfffe5b78
    4b5d:	7561a2        	s32i	a10, a1, 0x1d4
    4b60:	7888      	l32i.n	a8, a8, 28
    4b62:	ba0c      	movi.n	a10, 11
    4b64:	0008e0        	excw
    4b67:	7961a2        	s32i	a10, a1, 0x1e4
    4b6a:	6acc      	bnez.n	a10, 0x4b74
    4b6c:	845ca1        	l32r	a10, 0xfffe5cdc
    4b6f:	0b0c      	movi.n	a11, 0
    4b71:	b2ca25        	excw
    4b74:	7921a2        	l32i	a10, a1, 0x1e4
    4b77:	6abc      	beqz.n	a10, 0x4bb1
    4b79:	0abd      	mov.n	a11, a10
    4b7b:	0a0aa2        	l8ui	a10, a10, 10
    4b7e:	7521c2        	l32i	a12, a1, 0x1d4
    4b81:	aaba      	add.n	a10, a10, a11
    4b83:	aacb      	addi.n	a10, a10, 12
    4b85:	0b0c      	movi.n	a11, 0
    4b87:	0705e5        	excw
    4b8a:	7b21a2        	l32i	a10, a1, 0x1ec
    4b8d:	7921b2        	l32i	a11, a1, 0x1e4
    4b90:	842ac1        	l32r	a12, 0xfffe5c38
    4b93:	842981        	l32r	a8, 0xfffe5c38
    4b96:	7b1c92        	l16ui	a9, a12, 246
    4b99:	572882        	l32i	a8, a8, 0x15c
    4b9c:	991b      	addi.n	a9, a9, 1
    4b9e:	7b5c92        	s16i	a9, a12, 246
    4ba1:	0008e0        	excw
    4ba4:	9a8c      	beqz.n	a10, 0x4bb1
    4ba6:	840781        	l32r	a8, 0xfffe5bc4
    4ba9:	8888      	l32i.n	a8, a8, 32
    4bab:	7921a2        	l32i	a10, a1, 0x1e4
    4bae:	0008e0        	excw
    4bb1:	5e23f2        	l32i	a15, a3, 0x178
    4bb4:	0020c0        	memw
    4bb7:	9064f2        	s32i	a15, a4, 0x240
    4bba:	5e23e2        	l32i	a14, a3, 0x178
    4bbd:	5f23d2        	l32i	a13, a3, 0x17c
    4bc0:	0020c0        	memw
    4bc3:	890c      	movi.n	a9, 8
    4bc5:	9164d2        	s32i	a13, a4, 0x244
    4bc8:	1d23b2        	l32i	a11, a3, 116
    4bcb:	0c1c      	movi.n	a12, 16
    4bcd:	10cbc0        	and	a12, a11, a12
    4bd0:	10db90        	and	a13, a11, a9
    4bd3:	098b97        	bany	a11, a9, 0x4be0
    4bd6:	6ccc      	bnez.n	a12, 0x4be0
    4bd8:	0a0c      	movi.n	a10, 0
    4bda:	7d61a2        	s32i	a10, a1, 0x1f4
    4bdd:	000ec6        	j	0x4c1c
    4be0:	84afb1        	l32r	a11, 0xfffe5e9c
    4be3:	732192        	l32i	a9, a1, 0x1cc
    4be6:	84b0a1        	l32r	a10, 0xfffe5ea8
    4be9:	939bd0        	movnez	a9, a11, a13
    4bec:	20a9a0        	or	a10, a9, a10
    4bef:	939ac0        	movnez	a9, a10, a12
    4bf2:	7d6192        	s32i	a9, a1, 0x1f4
    4bf5:	592382        	l32i	a8, a3, 0x164
    4bf8:	0020c0        	memw
    4bfb:	986482        	s32i	a8, a4, 0x260
    4bfe:	5a23f2        	l32i	a15, a3, 0x168
    4c01:	0020c0        	memw
    4c04:	9964f2        	s32i	a15, a4, 0x264
    4c07:	5b23e2        	l32i	a14, a3, 0x16c
    4c0a:	0020c0        	memw
    4c0d:	9a64e2        	s32i	a14, a4, 0x268
    4c10:	5c23b2        	l32i	a11, a3, 0x170
    4c13:	0020c0        	memw
    4c16:	9b64b2        	s32i	a11, a4, 0x26c
    4c19:	1d23b2        	l32i	a11, a3, 116
    4c1c:	1a6b77        	bbci	a11, 7, 0x4c3a
    4c1f:	842dc1        	l32r	a12, 0xfffe5cd4
    4c22:	6a03a2        	l8ui	a10, a3, 106
    4c25:	c50cc2        	l8ui	a12, a12, 197
    4c28:	081ca7        	beq	a12, a10, 0x4c34
    4c2b:	842981        	l32r	a8, 0xfffe5cd0
    4c2e:	6e2882        	l32i	a8, a8, 0x1b8
    4c31:	0008e0        	excw
    4c34:	84b191        	l32r	a9, 0xfffe5ef8
    4c37:	000046        	j	0x4c3c
    4c3a:	090c      	movi.n	a9, 0
    4c3c:	d005f2        	l8ui	a15, a5, 208
    4c3f:	3125d2        	l32i	a13, a5, 196
    4c42:	84b2e1        	l32r	a14, 0xfffe5f0c
    4c45:	c0ddf0        	sub	a13, a13, a15
    4c48:	8468f1        	l32r	a15, 0xfffe5de8
    4c4b:	41d1d0        	srli	a13, a13, 1
    4c4e:	10ddf0        	and	a13, a13, a15
    4c51:	11ddf0        	slli	a13, a13, 1
    4c54:	10dde0        	and	a13, a13, a14
    4c57:	1e0c      	movi.n	a14, 1
    4c59:	20d9d0        	or	a13, a9, a13
    4c5c:	20dde0        	or	a13, a13, a14
    4c5f:	0020c0        	memw
    4c62:	8021b2        	l32i	a11, a1, 0x200
    4c65:	8964d2        	s32i	a13, a4, 0x224
    4c68:	6f03c2        	l8ui	a12, a3, 111
    4c6b:	84b3d1        	l32r	a13, 0xfffe5f38
    4c6e:	01ccb0        	slli	a12, a12, 21
    4c71:	10ccd0        	and	a12, a12, a13
    4c74:	20bbc0        	or	a11, a11, a12
    4c77:	0020c0        	memw
    4c7a:	8a64b2        	s32i	a11, a4, 0x228
    4c7d:	d205a2        	l8ui	a10, a5, 210
    4c80:	0d5a66        	bnei	a10, 5, 0x4c91
    4c83:	842981        	l32r	a8, 0xfffe5d28
    4c86:	9003a2        	l8ui	a10, a3, 144
    4c89:	832882        	l32i	a8, a8, 0x20c
    4c8c:	fb0c      	movi.n	a11, 15
    4c8e:	0008e0        	excw
    4c91:	841991        	l32r	a9, 0xfffe5cf8
    4c94:	485766        	bnei	a7, 5, 0x4ce0
    4c97:	7421a2        	l32i	a10, a1, 0x1d0
    4c9a:	592982        	l32i	a8, a9, 0x164
    4c9d:	01bd      	mov.n	a11, a1
    4c9f:	0008e0        	excw
    4ca2:	100192        	l8ui	a9, a1, 16
    4ca5:	3729b6        	bltui	a9, 2, 0x4ce0
    4ca8:	8c0c      	movi.n	a12, 8
    4caa:	747070        	extui	a7, a7, 0, 8
    4cad:	4d0c      	movi.n	a13, 4
    4caf:	11a8      	l32i.n	a10, a1, 4
    4cb1:	6415b2        	l16ui	a11, a5, 200
    4cb4:	14a4a0        	extui	a10, a10, 4, 2
    4cb7:	10dbd0        	and	a13, a11, a13
    4cba:	937cd0        	movnez	a7, a12, a13
    4cbd:	1f2a66        	bnei	a10, 2, 0x4ce0
    4cc0:	7e21f2        	l32i	a15, a1, 0x1f8
    4cc3:	210fe2        	l8ui	a14, a15, 33
    4cc6:	23ee00        	excw
    4cc9:	a0eef0        	addx4	a14, a14, a15
    4ccc:	9ee8      	l32i.n	a14, a14, 36
    4cce:	021ee2        	l16ui	a14, a14, 4
    4cd1:	049ef6        	bgeui	a14, 10, 0x4cd9
    4cd4:	4f0c      	movi.n	a15, 4
    4cd6:	068bf7        	bany	a11, a15, 0x4ce0
    4cd9:	670c      	movi.n	a7, 6
    4cdb:	776172        	s32i	a7, a1, 0x1dc
    4cde:	370c      	movi.n	a7, 3
    4ce0:	1d23b2        	l32i	a11, a3, 116
    4ce3:	07ebd7        	bbsi	a11, 13, 0x4cee
    4ce6:	6b0382        	l8ui	a8, a3, 107
    4ce9:	d8cc      	bnez.n	a8, 0x4cfa
    4ceb:	0b8766        	bnei	a7, 8, 0x4cfa
    4cee:	31c8      	l32i.n	a12, a1, 12
    4cf0:	4d0c      	movi.n	a13, 4
    4cf2:	20ccd0        	or	a12, a12, a13
    4cf5:	31c9      	s32i.n	a12, a1, 12
    4cf7:	000046        	j	0x4cfc
    4cfa:	31c8      	l32i.n	a12, a1, 12
    4cfc:	177b07        	bbci	a11, 16, 0x4d17
    4cff:	6415e2        	l16ui	a14, a5, 200
    4d02:	8f0c      	movi.n	a15, 8
    4d04:	0f8ef7        	bany	a14, a15, 0x4d17
    4d07:	d10572        	l8ui	a7, a5, 209
    4d0a:	84b481        	l32r	a8, 0xfffe5fdc
    4d0d:	490c      	movi.n	a9, 4
    4d0f:	20cc90        	or	a12, a12, a9
    4d12:	31c9      	s32i.n	a12, a1, 12
    4d14:	206680        	or	a6, a6, a8
    4d17:	772152        	l32i	a5, a1, 0x1dc
    4d1a:	0020c0        	memw
    4d1d:	84b6e1        	l32r	a14, 0xfffe5ff8
    4d20:	0d3c      	movi.n	a13, 48
    4d22:	842aa1        	l32r	a10, 0xfffe5dcc
    4d25:	7e21b2        	l32i	a11, a1, 0x1f8
    4d28:	aa64c2        	s32i	a12, a4, 0x2a8
    4d2b:	030bb2        	l8ui	a11, a11, 3
    4d2e:	6c0aa2        	l8ui	a10, a10, 108
    4d31:	11bbc0        	slli	a11, a11, 4
    4d34:	10bbd0        	and	a11, a11, a13
    4d37:	2022b0        	or	a2, a2, a11
    4d3a:	112a66        	bnei	a10, 2, 0x4d4f
    4d3d:	848191        	l32r	a9, 0xfffe5f44
    4d40:	580992        	l8ui	a9, a9, 88
    4d43:	026926        	beqi	a9, 6, 0x4d49
    4d46:	058966        	bnei	a9, 8, 0x4d4f
    4d49:	84b5a1        	l32r	a10, 0xfffe6020
    4d4c:	1022a0        	and	a2, a2, a10
    4d4f:	0020c0        	memw
    4d52:	8b6422        	s32i	a2, a4, 0x22c
    4d55:	0020c0        	memw
    4d58:	0a7c      	movi.n	a10, -16
    4d5a:	862492        	l32i	a9, a4, 0x218
    4d5d:	6b03b2        	l8ui	a11, a3, 107
    4d60:	1099a0        	and	a9, a9, a10
    4d63:	bb0b      	addi.n	a11, a11, -1
    4d65:	131b56        	bnez	a11, 0x4e9a
    4d68:	842ac1        	l32r	a12, 0xfffe5e10
    4d6b:	7d0c      	movi.n	a13, 7
    4d6d:	400cb2        	l8ui	a11, a12, 64
    4d70:	410cc2        	l8ui	a12, a12, 65
    4d73:	20d9d0        	or	a13, a9, a13
    4d76:	11cc80        	slli	a12, a12, 8
    4d79:	209bc0        	or	a9, a11, a12
    4d7c:	119960        	slli	a9, a9, 10
    4d7f:	1099e0        	and	a9, a9, a14
    4d82:	0020c0        	memw
    4d85:	8664d2        	s32i	a13, a4, 0x218
    4d88:	0020c0        	memw
    4d8b:	842921        	l32r	a2, 0xfffe5e30
    4d8e:	8e6492        	s32i	a9, a4, 0x238
    4d91:	bb2282        	l32i	a8, a2, 0x2ec
    4d94:	05ad      	mov.n	a10, a5
    4d96:	0008e0        	excw
    4d99:	7d2192        	l32i	a9, a1, 0x1f4
    4d9c:	209a90        	or	a9, a10, a9
    4d9f:	0020c0        	memw
    4da2:	8c6492        	s32i	a9, a4, 0x230
    4da5:	bc2282        	l32i	a8, a2, 0x2f0
    4da8:	05ad      	mov.n	a10, a5
    4daa:	0008e0        	excw
    4dad:	842481        	l32r	a8, 0xfffe5e40
    4db0:	782122        	l32i	a2, a1, 0x1e0
    4db3:	3e2882        	l32i	a8, a8, 248
    4db6:	202a20        	or	a2, a10, a2
    4db9:	0008e0        	excw
    4dbc:	03acb2        	movi	a11, 0xfffffc03
    4dbf:	00a2d2        	movi	a13, 0x200
    4dc2:	10b2b0        	and	a11, a2, a11
    4dc5:	20bbd0        	or	a11, a11, a13
    4dc8:	832ba0        	moveqz	a2, a11, a10
    4dcb:	8462a1        	l32r	a10, 0xfffe5f54
    4dce:	0020c0        	memw
    4dd1:	847691        	l32r	a9, 0xfffe5fac
    4dd4:	836a22        	s32i	a2, a10, 0x20c
    4dd7:	c20992        	l8ui	a9, a9, 194
    4dda:	133926        	beqi	a9, 3, 0x4df1
    4ddd:	842981        	l32r	a8, 0xfffe5e84
    4de0:	bd2882        	l32i	a8, a8, 0x2f4
    4de3:	05ad      	mov.n	a10, a5
    4de5:	0008e0        	excw
    4de8:	0020c0        	memw
    4deb:	846291        	l32r	a9, 0xfffe5f74
    4dee:	8869a2        	s32i	a10, a9, 0x220
    4df1:	84b981        	l32r	a8, 0xfffe60d8
    4df4:	049470        	extui	a9, a7, 4, 1
    4df7:	7f21a2        	l32i	a10, a1, 0x1fc
    4dfa:	84b0c1        	l32r	a12, 0xfffe60bc
    4dfd:	01baa0        	slli	a11, a10, 22
    4e00:	10bbc0        	and	a11, a11, a12
    4e03:	84afc1        	l32r	a12, 0xfffe60c0
    4e06:	01aab0        	slli	a10, a10, 21
    4e09:	10aac0        	and	a10, a10, a12
    4e0c:	20aab0        	or	a10, a10, a11
    4e0f:	84b7c1        	l32r	a12, 0xfffe60ec
    4e12:	34b070        	extui	a11, a7, 0, 4
    4e15:	11bb00        	slli	a11, a11, 16
    4e18:	10bbc0        	and	a11, a11, a12
    4e1b:	84b8c1        	l32r	a12, 0xfffe60fc
    4e1e:	0199c0        	slli	a9, a9, 20
    4e21:	1099c0        	and	a9, a9, a12
    4e24:	8461c1        	l32r	a12, 0xfffe5fa8
    4e27:	2099b0        	or	a9, a9, a11
    4e2a:	2099a0        	or	a9, a9, a10
    4e2d:	da2cc2        	l32i	a12, a12, 0x368
    4e30:	8903a2        	l8ui	a10, a3, 137
    4e33:	206690        	or	a6, a6, a9
    4e36:	206680        	or	a6, a6, a8
    4e39:	076747        	bbci	a7, 4, 0x4e44
    4e3c:	1b0c      	movi.n	a11, 1
    4e3e:	000ce0        	excw
    4e41:	000106        	j	0x4e49
    4e44:	0b0c      	movi.n	a11, 0
    4e46:	000ce0        	excw
    4e49:	0020c0        	memw
    4e4c:	9c6462        	s32i	a6, a4, 0x270
    4e4f:	0020c0        	memw
    4e52:	14c1a2        	addi	a10, a1, 20
    4e55:	84bad1        	l32r	a13, 0xfffe6140
    4e58:	0e4c      	movi.n	a14, 64
    4e5a:	841981        	l32r	a8, 0xfffe5ec0
    4e5d:	7c21c2        	l32i	a12, a1, 0x1f0
    4e60:	4e2882        	l32i	a8, a8, 0x138
    4e63:	9d64c2        	s32i	a12, a4, 0x274
    4e66:	5198      	l32i.n	a9, a1, 20
    4e68:	6a03b2        	l8ui	a11, a3, 106
    4e6b:	6b03c2        	l8ui	a12, a3, 107
    4e6e:	11bb40        	slli	a11, a11, 12
    4e71:	11cca0        	slli	a12, a12, 6
    4e74:	10cce0        	and	a12, a12, a14
    4e77:	10bbd0        	and	a11, a11, a13
    4e7a:	20bbc0        	or	a11, a11, a12
    4e7d:	2099b0        	or	a9, a9, a11
    4e80:	5199      	s32i.n	a9, a1, 20
    4e82:	0008e0        	excw
    4e85:	847791        	l32r	a9, 0xfffe6064
    4e88:	51b8      	l32i.n	a11, a1, 20
    4e8a:	0020c0        	memw
    4e8d:	120c      	movi.n	a2, 1
    4e8f:	8864b2        	s32i	a11, a4, 0x220
    4e92:	6969      	s32i.n	a6, a9, 24
    4e94:	31a8      	l32i.n	a10, a1, 12
    4e96:	79a9      	s32i.n	a10, a9, 28
    4e98:	f01d      	excw
    4e9a:	7003b2        	l8ui	a11, a3, 112
    4e9d:	84bb81        	l32r	a8, 0xfffe618c
    4ea0:	1001f2        	l8ui	a15, a1, 16
    4ea3:	7103c2        	l8ui	a12, a3, 113
    4ea6:	ad0c      	movi.n	a13, 10
    4ea8:	20d9d0        	or	a13, a9, a13
    4eab:	11cc80        	slli	a12, a12, 8
    4eae:	01ff70        	slli	a15, a15, 25
    4eb1:	10ff80        	and	a15, a15, a8
    4eb4:	2066f0        	or	a6, a6, a15
    4eb7:	ffaf86        	j	0x4d79
    4eba:	842a91        	l32r	a9, 0xfffe5f64
    4ebd:	c20992        	l8ui	a9, a9, 194
    4ec0:	fe7e46        	j	0x48bd
    4ec3:	6415e2        	l16ui	a14, a5, 200
    4ec6:	880c      	movi.n	a8, 8
    4ec8:	10de80        	and	a13, a14, a8
    4ecb:	078e87        	bany	a14, a8, 0x4ed6
    4ece:	190c      	movi.n	a9, 1
    4ed0:	7f6192        	s32i	a9, a1, 0x1fc
    4ed3:	000106        	j	0x4edb
    4ed6:	0e0c      	movi.n	a14, 0
    4ed8:	7f61e2        	s32i	a14, a1, 0x1fc
    4edb:	740282        	l8ui	a8, a2, 116
    4ede:	03e827        	bbsi	a8, 2, 0x4ee5
    4ee1:	0f0c      	movi.n	a15, 0
    4ee3:	070c      	movi.n	a7, 0
    4ee5:	390c      	movi.n	a9, 3
    4ee7:	786192        	s32i	a9, a1, 0x1e0
    4eea:	fe2a86        	j	0x4798
    4eed:	000000        	ill
    4ef0:	004136        	excw
    4ef3:	84bca1        	l32r	a10, 0xfffe61e4
    4ef6:	0b0c      	movi.n	a11, 0
    4ef8:	8c2c      	movi.n	a12, 40
    4efa:	06cea5        	excw
    4efd:	080c      	movi.n	a8, 0
    4eff:	8489c1        	l32r	a12, 0xfffe6124
    4f02:	84bdb1        	l32r	a11, 0xfffe61f8
    4f05:	848691        	l32r	a9, 0xfffe6120
    4f08:	ffa0a2        	movi	a10, 255
    4f0b:	1049a2        	s8i	a10, a9, 16
    4f0e:	0f59b2        	s16i	a11, a9, 30
    4f11:	979cc2        	l16si	a12, a12, 0x12e
    4f14:	184982        	s8i	a8, a9, 24
    4f17:	c0bbc0        	sub	a11, a11, a12
    4f1a:	0d59b2        	s16i	a11, a9, 26
    4f1d:	f01d      	excw
    4f1f:	413600        	srli	a3, a0, 6
    4f22:	248100        	extui	a8, a0, 1, 3
    4f25:	288284        	excw
    4f28:	e02d      	excw
    4f2a:	0008      	l32i.n	a0, a0, 0
    4f2c:	84a071        	l32r	a7, 0xfffe61ac
    4f2f:	847eb1        	l32r	a11, 0xfffe6128
    4f32:	841161        	l32r	a6, 0xfffe5f78
    4f35:	104a16        	beqz	a10, 0x503d
    4f38:	0020c0        	memw
    4f3b:	952652        	l32i	a5, a6, 0x254
    4f3e:	ffa042        	movi	a4, 255
    4f41:	000706        	j	0x4f61
    4f44:	1829a2        	l32i	a10, a9, 96
    4f47:	3a8c      	beqz.n	a10, 0x4f4e
    4f49:	0a5d      	mov.n	a5, a10
    4f4b:	690942        	l8ui	a4, a9, 105
    4f4e:	95cc      	bnez.n	a5, 0x4f5b
    4f50:	845ca1        	l32r	a10, 0xfffe60c0
    4f53:	0b0c      	movi.n	a11, 0
    4f55:	b28be5        	excw
    4f58:	847eb1        	l32r	a11, 0xfffe6150
    4f5b:	0020c0        	memw
    4f5e:	956652        	s32i	a5, a6, 0x254
    4f61:	7c0792        	l8ui	a9, a7, 124
    4f64:	cc0ba2        	l8ui	a10, a11, 204
    4f67:	5b6907        	bbci	a9, 0, 0x4fc6
    4f6a:	058a16        	beqz	a10, 0x4fc6
    4f6d:	84bfc1        	l32r	a12, 0xfffe626c
    4f70:	8486b1        	l32r	a11, 0xfffe6188
    4f73:	84be81        	l32r	a8, 0xfffe626c
    4f76:	149d50        	extui	a9, a5, 13, 2
    4f79:	1199c0        	slli	a9, a9, 4
    4f7c:	889a      	add.n	a8, a8, a9
    4f7e:	7e28d2        	l32i	a13, a8, 0x1f8
    4f81:	0020c0        	memw
    4f84:	5f6cd2        	s32i	a13, a12, 0x17c
    4f87:	7f28a2        	l32i	a10, a8, 0x1fc
    4f8a:	0020c0        	memw
    4f8d:	606ca2        	s32i	a10, a12, 0x180
    4f90:	802892        	l32i	a9, a8, 0x200
    4f93:	0020c0        	memw
    4f96:	616c92        	s32i	a9, a12, 0x184
    4f99:	812882        	l32i	a8, a8, 0x204
    4f9c:	0020c0        	memw
    4f9f:	626c82        	s32i	a8, a12, 0x188
    4fa2:	262bf2        	l32i	a15, a11, 152
    4fa5:	0020c0        	memw
    4fa8:	636cf2        	s32i	a15, a12, 0x18c
    4fab:	272be2        	l32i	a14, a11, 156
    4fae:	0020c0        	memw
    4fb1:	646ce2        	s32i	a14, a12, 0x190
    4fb4:	282bd2        	l32i	a13, a11, 160
    4fb7:	0020c0        	memw
    4fba:	656cd2        	s32i	a13, a12, 0x194
    4fbd:	292bb2        	l32i	a11, a11, 164
    4fc0:	0020c0        	memw
    4fc3:	666cb2        	s32i	a11, a12, 0x198
    4fc6:	7144f6        	bgeui	a4, 4, 0x503b
    4fc9:	84c0e1        	l32r	a14, 0xfffe62cc
    4fcc:	84c2f1        	l32r	a15, 0xfffe62d4
    4fcf:	321ea2        	l16ui	a10, a14, 100
    4fd2:	84c181        	l32r	a8, 0xfffe62d8
    4fd5:	626a07        	bbci	a10, 0, 0x503b
    4fd8:	0020c0        	memw
    4fdb:	9826d2        	l32i	a13, a6, 0x260
    4fde:	e8ceb2        	addi	a11, a14, -24
    4fe1:	a0b4b0        	addx4	a11, a4, a11
    4fe4:	10ddf0        	and	a13, a13, a15
    4fe7:	800bc2        	l8ui	a12, a11, 128
    4fea:	7e0b92        	l8ui	a9, a11, 126
    4fed:	23cc00        	excw
    4ff0:	01cce0        	slli	a12, a12, 18
    4ff3:	239900        	excw
    4ff6:	10cc80        	and	a12, a12, a8
    4ff9:	20ccd0        	or	a12, a12, a13
    4ffc:	00a1d2        	movi	a13, 0x100
    4fff:	a099d0        	addx4	a9, a9, a13
    5002:	949090        	extui	a9, a9, 0, 10
    5005:	20cc90        	or	a12, a12, a9
    5008:	0020c0        	memw
    500b:	9866c2        	s32i	a12, a6, 0x260
    500e:	0020c0        	memw
    5011:	7f0bc2        	l8ui	a12, a11, 127
    5014:	810bb2        	l8ui	a11, a11, 129
    5017:	23cc00        	excw
    501a:	23bb00        	excw
    501d:	a0ccd0        	addx4	a12, a12, a13
    5020:	94c0c0        	extui	a12, a12, 0, 10
    5023:	9926d2        	l32i	a13, a6, 0x264
    5026:	01bbe0        	slli	a11, a11, 18
    5029:	10bb80        	and	a11, a11, a8
    502c:	10ddf0        	and	a13, a13, a15
    502f:	20bbd0        	or	a11, a11, a13
    5032:	20bbc0        	or	a11, a11, a12
    5035:	0020c0        	memw
    5038:	9966b2        	s32i	a11, a6, 0x264
    503b:	f01d      	excw
    503d:	84c3d1        	l32r	a13, 0xfffe634c
    5040:	0407c2        	l8ui	a12, a7, 4
    5043:	2a1da2        	l16ui	a10, a13, 84
    5046:	fec3e2        	addi	a14, a3, -2
    5049:	83ace0        	moveqz	a10, a12, a14
    504c:	8cc7c2        	addi	a12, a7, -116
    504f:	e007e2        	l8ui	a14, a7, 224
    5052:	fecaa2        	addi	a10, a10, -2
    5055:	74a0a0        	extui	a10, a10, 0, 8
    5058:	6322a0        	excw
    505b:	a09220        	addx4	a9, a2, a2
    505e:	a099d0        	addx4	a9, a9, a13
    5061:	6809a2        	l8ui	a10, a9, 104
    5064:	1f6e07        	bbci	a14, 0, 0x5087
    5067:	0a4d      	mov.n	a4, a10
    5069:	b8cba2        	addi	a10, a11, -72
    506c:	a0a2a0        	addx4	a10, a2, a10
    506f:	702a52        	l32i	a5, a10, 0x1c0
    5072:	301326        	beqi	a3, 1, 0x50a6
    5075:	382366        	bnei	a3, 2, 0x50b1
    5078:	8e2a52        	l32i	a5, a10, 0x238
    507b:	904220        	addx2	a4, a2, a2
    507e:	a044c0        	addx4	a4, a4, a12
    5081:	7d0442        	l8ui	a4, a4, 125
    5084:	000a46        	j	0x50b1
    5087:	172952        	l32i	a5, a9, 92
    508a:	0a4d      	mov.n	a4, a10
    508c:	830b      	addi.n	a8, a3, -1
    508e:	eb2816        	beqz	a8, 0x4f44
    5091:	fec392        	addi	a9, a3, -2
    5094:	eb6956        	bnez	a9, 0x4f4e
    5097:	904220        	addx2	a4, a2, a2
    509a:	a044c0        	addx4	a4, a4, a12
    509d:	202452        	l32i	a5, a4, 128
    50a0:	7d0442        	l8ui	a4, a4, 125
    50a3:	ffa9c6        	j	0x4f4e
    50a6:	182982        	l32i	a8, a9, 96
    50a9:	488c      	beqz.n	a8, 0x50b1
    50ab:	7f2a52        	l32i	a5, a10, 0x1fc
    50ae:	690942        	l8ui	a4, a9, 105
    50b1:	ce0ba2        	l8ui	a10, a11, 206
    50b4:	e10792        	l8ui	a9, a7, 225
    50b7:	23aa00        	excw
    50ba:	239900        	excw
    50bd:	14c992        	addi	a9, a9, 20
    50c0:	0229a7        	blt	a9, a10, 0x50c6
    50c3:	ffa1c6        	j	0x4f4e
    50c6:	2a1d92        	l16ui	a9, a13, 84
    50c9:	fec3a2        	addi	a10, a3, -2
    50cc:	fec992        	addi	a9, a9, -2
    50cf:	749090        	extui	a9, a9, 0, 8
    50d2:	a09990        	addx4	a9, a9, a9
    50d5:	a099d0        	addx4	a9, a9, a13
    50d8:	7c0942        	l8ui	a4, a9, 124
    50db:	1a1326        	beqi	a3, 1, 0x50f9
    50de:	e6ca56        	bnez	a10, 0x4f4e
    50e1:	040742        	l8ui	a4, a7, 4
    50e4:	84c481        	l32r	a8, 0xfffe63f4
    50e7:	fec442        	addi	a4, a4, -2
    50ea:	744040        	extui	a4, a4, 0, 8
    50ed:	904440        	addx2	a4, a4, a4
    50f0:	a04480        	addx4	a4, a4, a8
    50f3:	800442        	l8ui	a4, a4, 128
    50f6:	ff9506        	j	0x4f4e
    50f9:	7d0942        	l8ui	a4, a9, 125
    50fc:	ff9386        	j	0x4f4e
    50ff:	413600        	srli	a3, a0, 6
    5102:	c58100        	extui	a8, a0, 17, 13
    5105:	088884        	excw
    5108:	a8cc      	bnez.n	a8, 0x5116
    510a:	847181        	l32r	a8, 0xfffe62d0
    510d:	02ad      	mov.n	a10, a2
    510f:	9888      	l32i.n	a8, a8, 36
    5111:	03bd      	mov.n	a11, a3
    5113:	0008e0        	excw
    5116:	f01d      	excw
    5118:	004136        	excw
    511b:	030c      	movi.n	a3, 0
    511d:	842d91        	l32r	a9, 0xfffe61d4
    5120:	140c      	movi.n	a4, 1
    5122:	8e0982        	l8ui	a8, a9, 142
    5125:	adc992        	addi	a9, a9, -83
    5128:	b08890        	addx8	a8, a8, a9
    512b:	800882        	l8ui	a8, a8, 128
    512e:	020c      	movi.n	a2, 0
    5130:	fdc852        	addi	a5, a8, -3
    5133:	832450        	moveqz	a2, a4, a5
    5136:	fbc882        	addi	a8, a8, -5
    5139:	833480        	moveqz	a3, a4, a8
    513c:	202230        	or	a2, a2, a3
    513f:	f01d      	excw
    5141:	000000        	ill
    5144:	006136        	excw
    5147:	3b0c      	movi.n	a11, 3
    5149:	1139      	s32i.n	a3, a1, 4
    514b:	846771        	l32r	a7, 0xfffe62e8
    514e:	842961        	l32r	a6, 0xfffe61f4
    5151:	d8a192        	movi	a9, 0x1d8
    5154:	c19290        	mul16u	a9, a2, a9
    5157:	832682        	l32i	a8, a6, 0x20c
    515a:	779a      	add.n	a7, a7, a9
    515c:	8c07a2        	l8ui	a10, a7, 140
    515f:	0008e0        	excw
    5162:	842a41        	l32r	a4, 0xfffe620c
    5165:	2ad432        	addmi	a3, a4, 0x2a00
    5168:	fa23a2        	l32i	a10, a3, 0x3e8
    516b:	842cb1        	l32r	a11, 0xfffe621c
    516e:	1b0a66        	bnei	a10, -1, 0x518d
    5171:	340ba2        	l8ui	a10, a11, 52
    5174:	23aa00        	excw
    5177:	0a1ae6        	bgei	a10, 1, 0x5185
    517a:	845ca1        	l32r	a10, 0xfffe62ec
    517d:	0b0c      	movi.n	a11, 0
    517f:	b26965        	excw
    5182:	842cb1        	l32r	a11, 0xfffe6234
    5185:	84c6c1        	l32r	a12, 0xfffe64a0
    5188:	14a8      	l32i.n	a10, a4, 4
    518a:	7a6ca2        	s32i	a10, a12, 0x1e8
    518d:	340bd2        	l8ui	a13, a11, 52
    5190:	23dd00        	excw
    5193:	0a1de6        	bgei	a13, 1, 0x51a1
    5196:	845ca1        	l32r	a10, 0xfffe6308
    5199:	0b0c      	movi.n	a11, 0
    519b:	b267a5        	excw
    519e:	fa23a2        	l32i	a10, a3, 0x3e8
    51a1:	fb23f2        	l32i	a15, a3, 0x3ec
    51a4:	14e8      	l32i.n	a14, a4, 4
    51a6:	842bc1        	l32r	a12, 0xfffe6254
    51a9:	c0aea0        	sub	a10, a14, a10
    51ac:	10aac0        	and	a10, a10, a12
    51af:	8461c1        	l32r	a12, 0xfffe6334
    51b2:	0d3af7        	bltu	a10, a15, 0x51c3
    51b5:	02ad      	mov.n	a10, a2
    51b7:	812c82        	l32i	a8, a12, 0x204
    51ba:	0b0c      	movi.n	a11, 0
    51bc:	0008e0        	excw
    51bf:	120c      	movi.n	a2, 1
    51c1:	f01d      	excw
    51c3:	8487d1        	l32r	a13, 0xfffe63e0
    51c6:	84c7f1        	l32r	a15, 0xfffe64e4
    51c9:	731d92        	l16ui	a9, a13, 230
    51cc:	01a9      	s32i.n	a10, a1, 0
    51ce:	0599f7        	bne	a9, a15, 0x51d7
    51d1:	e481e0        	extui	a8, a14, 1, 15
    51d4:	735d82        	s16i	a8, a13, 230
    51d7:	846051        	l32r	a5, 0xfffe6358
    51da:	fc23f2        	l32i	a15, a3, 0x3f0
    51dd:	0020c0        	memw
    51e0:	9065f2        	s32i	a15, a5, 0x240
    51e3:	fc23e2        	l32i	a14, a3, 0x3f0
    51e6:	fd2392        	l32i	a9, a3, 0x3f4
    51e9:	0020c0        	memw
    51ec:	0e0c      	movi.n	a14, 0
    51ee:	916592        	s32i	a9, a5, 0x244
    51f1:	090c      	movi.n	a9, 0
    51f3:	748090        	extui	a8, a9, 0, 8
    51f6:	b08880        	addx8	a8, a8, a8
    51f9:	a08840        	addx4	a8, a8, a4
    51fc:	641882        	l16ui	a8, a8, 200
    51ff:	991b      	addi.n	a9, a9, 1
    5201:	016807        	bbci	a8, 0, 0x5206
    5204:	ee1b      	addi.n	a14, a14, 1
    5206:	fe9916        	beqz	a9, 0x51f3
    5209:	74a0e0        	extui	a10, a14, 0, 8
    520c:	090c      	movi.n	a9, 0
    520e:	11aa80        	slli	a10, a10, 8
    5211:	01daa2        	addmi	a10, a10, 0x100
    5214:	94a0a0        	extui	a10, a10, 0, 10
    5217:	0020c0        	memw
    521a:	8e65a2        	s32i	a10, a5, 0x238
    521d:	0020c0        	memw
    5220:	8d6592        	s32i	a9, a5, 0x234
    5223:	0020c0        	memw
    5226:	8b6592        	s32i	a9, a5, 0x22c
    5229:	bb2682        	l32i	a8, a6, 0x2ec
    522c:	1a0c      	movi.n	a10, 1
    522e:	0008e0        	excw
    5231:	0020c0        	memw
    5234:	8c65a2        	s32i	a10, a5, 0x230
    5237:	bc2682        	l32i	a8, a6, 0x2f0
    523a:	1a0c      	movi.n	a10, 1
    523c:	0008e0        	excw
    523f:	847691        	l32r	a9, 0xfffe6418
    5242:	8462c1        	l32r	a12, 0xfffe63cc
    5245:	0020c0        	memw
    5248:	836ca2        	s32i	a10, a12, 0x20c
    524b:	c20992        	l8ui	a9, a9, 194
    524e:	103926        	beqi	a9, 3, 0x5262
    5251:	bd2682        	l32i	a8, a6, 0x2f4
    5254:	1a0c      	movi.n	a10, 1
    5256:	0008e0        	excw
    5259:	0020c0        	memw
    525c:	8462b1        	l32r	a11, 0xfffe63e4
    525f:	886ba2        	s32i	a10, a11, 0x220
    5262:	fc2682        	l32i	a8, a6, 0x3f0
    5265:	fb2392        	l32i	a9, a3, 0x3ec
    5268:	0168      	l32i.n	a6, a1, 0
    526a:	c06960        	sub	a6, a9, a6
    526d:	0008e0        	excw
    5270:	84c891        	l32r	a9, 0xfffe6590
    5273:	0e8a97        	bany	a10, a9, 0x5285
    5276:	84c0b1        	l32r	a11, 0xfffe6578
    5279:	3b1bb2        	l16ui	a11, a11, 118
    527c:	376b17        	bbci	a11, 1, 0x52b7
    527f:	ffe9a5        	excw
    5282:	212a16        	beqz	a10, 0x5498
    5285:	8487a1        	l32r	a10, 0xfffe64a4
    5288:	1498      	l32i.n	a9, a4, 4
    528a:	731aa2        	l16ui	a10, a10, 230
    528d:	e49190        	extui	a9, a9, 1, 15
    5290:	c099a0        	sub	a9, a9, a10
    5293:	e49090        	extui	a9, a9, 0, 15
    5296:	1199f0        	slli	a9, a9, 1
    5299:	f49090        	extui	a9, a9, 0, 16
    529c:	0fc9b6        	bltui	a9, 32, 0x52af
    529f:	846181        	l32r	a8, 0xfffe6424
    52a2:	02ad      	mov.n	a10, a2
    52a4:	812882        	l32i	a8, a8, 0x204
    52a7:	0b0c      	movi.n	a11, 0
    52a9:	0008e0        	excw
    52ac:	ffc3c6        	j	0x51bf
    52af:	0a2c      	movi.n	a10, 32
    52b1:	c09a90        	sub	a9, a10, a9
    52b4:	000086        	j	0x52ba
    52b7:	842e91        	l32r	a9, 0xfffe6370
    52ba:	8f0c      	movi.n	a15, 8
    52bc:	845dd1        	l32r	a13, 0xfffe6430
    52bf:	84cac1        	l32r	a12, 0xfffe65e8
    52c2:	0e3c      	movi.n	a14, 48
    52c4:	1188      	l32i.n	a8, a1, 4
    52c6:	8476b1        	l32r	a11, 0xfffe64a0
    52c9:	636690        	excw
    52cc:	c20bb2        	l8ui	a11, a11, 194
    52cf:	881b      	addi.n	a8, a8, 1
    52d1:	9b8c      	beqz.n	a11, 0x52de
    52d3:	847fa1        	l32r	a10, 0xfffe64d0
    52d6:	251aa2        	l16ui	a10, a10, 74
    52d9:	01ba67        	bgeu	a10, a6, 0x52de
    52dc:	0a6d      	mov.n	a6, a10
    52de:	842da1        	l32r	a10, 0xfffe6394
    52e1:	84c9b1        	l32r	a11, 0xfffe6608
    52e4:	b80a92        	l8ui	a9, a10, 184
    52e7:	16b816        	beqz	a8, 0x5456
    52ea:	b90aa2        	l8ui	a10, a10, 185
    52ed:	d8a182        	movi	a8, 0x1d8
    52f0:	c1aa80        	mul16u	a10, a10, a8
    52f3:	adaa      	add.n	a10, a13, a10
    52f5:	800aa2        	l8ui	a10, a10, 128
    52f8:	39bc      	beqz.n	a9, 0x532f
    52fa:	11d8      	l32i.n	a13, a1, 4
    52fc:	291c      	movi.n	a9, 18
    52fe:	2db9d7        	bgeu	a9, a13, 0x532f
    5301:	1f4af6        	bgeui	a10, 4, 0x5324
    5304:	113ac0        	slli	a3, a10, 4
    5307:	a08a40        	addx4	a8, a10, a4
    530a:	1888      	l32i.n	a8, a8, 4
    530c:	1033e0        	and	a3, a3, a14
    530f:	12c882        	addi	a8, a8, 18
    5312:	418180        	srli	a8, a8, 1
    5315:	1188a0        	slli	a8, a8, 6
    5318:	1088c0        	and	a8, a8, a12
    531b:	203380        	or	a3, a3, a8
    531e:	2033f0        	or	a3, a3, a15
    5321:	000046        	j	0x5326
    5324:	030c      	movi.n	a3, 0
    5326:	0020c0        	memw
    5329:	aa6532        	s32i	a3, a5, 0x2a8
    532c:	000446        	j	0x5341
    532f:	841981        	l32r	a8, 0xfffe6394
    5332:	02ad      	mov.n	a10, a2
    5334:	452882        	l32i	a8, a8, 0x114
    5337:	fb7c      	movi.n	a11, -1
    5339:	0008e0        	excw
    533c:	0a3d      	mov.n	a3, a10
    533e:	84c9b1        	l32r	a11, 0xfffe6664
    5341:	892492        	l32i	a9, a4, 0x224
    5344:	71a2a2        	movi	a10, 0x271
    5347:	8299a0        	mull	a9, a9, a10
    534a:	6c6b92        	s32i	a9, a11, 0x1b0
    534d:	000046        	j	0x5352
    5350:	030c      	movi.n	a3, 0
    5352:	847ec1        	l32r	a12, 0xfffe654c
    5355:	640cd2        	l8ui	a13, a12, 100
    5358:	b90c      	movi.n	a9, 11
    535a:	332d66        	bnei	a13, 2, 0x5391
    535d:	84cbe1        	l32r	a14, 0xfffe668c
    5360:	273e67        	bltu	a14, a6, 0x538b
    5363:	841981        	l32r	a8, 0xfffe63c8
    5366:	02ad      	mov.n	a10, a2
    5368:	452882        	l32i	a8, a8, 0x114
    536b:	06bd      	mov.n	a11, a6
    536d:	0008e0        	excw
    5370:	0a3d      	mov.n	a3, a10
    5372:	8924d2        	l32i	a13, a4, 0x224
    5375:	84c9b1        	l32r	a11, 0xfffe669c
    5378:	01b6d7        	bgeu	a6, a13, 0x537d
    537b:	06dd      	mov.n	a13, a6
    537d:	847ec1        	l32r	a12, 0xfffe6578
    5380:	666b      	addi.n	a6, a6, 6
    5382:	71a292        	movi	a9, 0x271
    5385:	829d90        	mull	a9, a13, a9
    5388:	6c6b92        	s32i	a9, a11, 0x1b0
    538b:	84cc91        	l32r	a9, 0xfffe66bc
    538e:	ffffc6        	j	0x5391
    5391:	0020c0        	memw
    5394:	aa6532        	s32i	a3, a5, 0x2a8
    5397:	0020c0        	memw
    539a:	8a6592        	s32i	a9, a5, 0x228
    539d:	e4a160        	extui	a10, a6, 1, 15
    53a0:	e49160        	extui	a9, a6, 1, 15
    53a3:	0020c0        	memw
    53a6:	8f65a2        	s32i	a10, a5, 0x23c
    53a9:	73cc      	bnez.n	a3, 0x53b4
    53ab:	e2a4d2        	movi	a13, 0x4e2
    53ae:	c1d9d0        	mul16u	a13, a9, a13
    53b1:	6c6bd2        	s32i	a13, a11, 0x1b0
    53b4:	1c27a2        	l32i	a10, a7, 112
    53b7:	845bb1        	l32r	a11, 0xfffe6524
    53ba:	04a0a0        	extui	a10, a10, 0, 1
    53bd:	11aa20        	slli	a10, a10, 14
    53c0:	10aab0        	and	a10, a10, a11
    53c3:	0020c0        	memw
    53c6:	9d65a2        	s32i	a10, a5, 0x274
    53c9:	1c2792        	l32i	a9, a7, 112
    53cc:	84b8a1        	l32r	a10, 0xfffe66ac
    53cf:	049090        	extui	a9, a9, 0, 1
    53d2:	0199c0        	slli	a9, a9, 20
    53d5:	1099a0        	and	a9, a9, a10
    53d8:	0020c0        	memw
    53db:	0b0c      	movi.n	a11, 0
    53dd:	846181        	l32r	a8, 0xfffe6564
    53e0:	9c6592        	s32i	a9, a5, 0x270
    53e3:	da2882        	l32i	a8, a8, 0x368
    53e6:	650ca2        	l8ui	a10, a12, 101
    53e9:	0008e0        	excw
    53ec:	80a7b2        	movi	a11, 0x780
    53ef:	842cc1        	l32r	a12, 0xfffe64a0
    53f2:	4a0c      	movi.n	a10, 4
    53f4:	2c4ca2        	s8i	a10, a12, 44
    53f7:	119290        	slli	a9, a2, 7
    53fa:	1099b0        	and	a9, a9, a11
    53fd:	2099a0        	or	a9, a9, a10
    5400:	0020c0        	memw
    5403:	8625b2        	l32i	a11, a5, 0x218
    5406:	0c7c      	movi.n	a12, -16
    5408:	10bbc0        	and	a11, a11, a12
    540b:	7c0c      	movi.n	a12, 7
    540d:	20bbc0        	or	a11, a11, a12
    5410:	0020c0        	memw
    5413:	8665b2        	s32i	a11, a5, 0x218
    5416:	1c27a2        	l32i	a10, a7, 112
    5419:	845ef1        	l32r	a15, 0xfffe6594
    541c:	0e6a67        	bbci	a10, 6, 0x542e
    541f:	84a9d1        	l32r	a13, 0xfffe66c4
    5422:	bfafe2        	movi	a14, -65
    5425:	10eae0        	and	a14, a10, a14
    5428:	1c67e2        	s32i	a14, a7, 112
    542b:	2099d0        	or	a9, a9, a13
    542e:	fb2ff2        	l32i	a15, a15, 0x3ec
    5431:	0b0f66        	bnei	a15, -1, 0x5440
    5434:	84a181        	l32r	a8, 0xfffe66b8
    5437:	0020c0        	memw
    543a:	896582        	s32i	a8, a5, 0x224
    543d:	0001c6        	j	0x5448
    5440:	0020c0        	memw
    5443:	0a0c      	movi.n	a10, 0
    5445:	8965a2        	s32i	a10, a5, 0x224
    5448:	0020c0        	memw
    544b:	8477b1        	l32r	a11, 0xfffe6628
    544e:	886592        	s32i	a9, a5, 0x220
    5451:	7b39      	s32i.n	a3, a11, 28
    5453:	ff5a06        	j	0x51bf
    5456:	ef6916        	beqz	a9, 0x5350
    5459:	b90aa2        	l8ui	a10, a10, 185
    545c:	d8a182        	movi	a8, 0x1d8
    545f:	c1aa80        	mul16u	a10, a10, a8
    5462:	adaa      	add.n	a10, a13, a10
    5464:	800aa2        	l8ui	a10, a10, 128
    5467:	1f4af6        	bgeui	a10, 4, 0x548a
    546a:	113ac0        	slli	a3, a10, 4
    546d:	a08a40        	addx4	a8, a10, a4
    5470:	1888      	l32i.n	a8, a8, 4
    5472:	1033e0        	and	a3, a3, a14
    5475:	12c882        	addi	a8, a8, 18
    5478:	418180        	srli	a8, a8, 1
    547b:	1188a0        	slli	a8, a8, 6
    547e:	1088c0        	and	a8, a8, a12
    5481:	203380        	or	a3, a3, a8
    5484:	2033f0        	or	a3, a3, a15
    5487:	000046        	j	0x548c
    548a:	030c      	movi.n	a3, 0
    548c:	0020c0        	memw
    548f:	aa6532        	s32i	a3, a5, 0x2a8
    5492:	84cd91        	l32r	a9, 0xfffe67c8
    5495:	ffac46        	j	0x534a
    5498:	842e91        	l32r	a9, 0xfffe6550
    549b:	ff86c6        	j	0x52ba
    549e:	360000        	excw
    54a1:	510041        	l32r	a4, 0xfffd98a4
    54a4:	8419      	s32i.n	a1, a4, 32
    54a6:	372582        	l32i	a8, a5, 220
    54a9:	0008e0        	excw
    54ac:	842c91        	l32r	a9, 0xfffe655c
    54af:	340992        	l8ui	a9, a9, 52
    54b2:	239900        	excw
    54b5:	0719e6        	bgei	a9, 1, 0x54c0
    54b8:	845ca1        	l32r	a10, 0xfffe6628
    54bb:	0b0c      	movi.n	a11, 0
    54bd:	b23565        	excw
    54c0:	260c      	movi.n	a6, 2
    54c2:	842941        	l32r	a4, 0xfffe6568
    54c5:	842a71        	l32r	a7, 0xfffe6570
    54c8:	842bd1        	l32r	a13, 0xfffe6574
    54cb:	17b8      	l32i.n	a11, a7, 4
    54cd:	2ad7c2        	addmi	a12, a7, 0x2a00
    54d0:	fa2ce2        	l32i	a14, a12, 0x3e8
    54d3:	fb2cc2        	l32i	a12, a12, 0x3ec
    54d6:	c0bbe0        	sub	a11, a11, a14
    54d9:	10bbd0        	and	a11, a11, a13
    54dc:	5fbbc7        	bgeu	a11, a12, 0x553f
    54df:	fc2482        	l32i	a8, a4, 0x3f0
    54e2:	0008e0        	excw
    54e5:	0a2d      	mov.n	a2, a10
    54e7:	18a192        	movi	a9, 0x118
    54ea:	0c09a7        	bnone	a9, a10, 0x54fa
    54ed:	1a0c      	movi.n	a10, 1
    54ef:	ffa0b2        	movi	a11, 255
    54f2:	412582        	l32i	a8, a5, 0x104
    54f5:	9c1c      	movi.n	a12, 25
    54f7:	0008e0        	excw
    54fa:	84c891        	l32r	a9, 0xfffe681c
    54fd:	84c0b1        	l32r	a11, 0xfffe6800
    5500:	0e8297        	bany	a2, a9, 0x5512
    5503:	3b1bb2        	l16ui	a11, a11, 118
    5506:	04b1b0        	extui	a11, a11, 1, 1
    5509:	0a8b16        	beqz	a11, 0x55b5
    550c:	ffc0a5        	excw
    550f:	0a2a16        	beqz	a10, 0x55b5
    5512:	8487b1        	l32r	a11, 0xfffe6730
    5515:	17c8      	l32i.n	a12, a7, 4
    5517:	731bd2        	l16ui	a13, a11, 230
    551a:	e4c1c0        	extui	a12, a12, 1, 15
    551d:	c0ccd0        	sub	a12, a12, a13
    5520:	e4c0c0        	extui	a12, a12, 0, 15
    5523:	11ccf0        	slli	a12, a12, 1
    5526:	f4c0c0        	extui	a12, a12, 0, 16
    5529:	02ccf6        	bgeui	a12, 32, 0x552f
    552c:	002146        	j	0x55b5
    552f:	0a1c      	movi.n	a10, 16
    5531:	84c791        	l32r	a9, 0xfffe6850
    5534:	2e2582        	l32i	a8, a5, 184
    5537:	735b92        	s16i	a9, a11, 230
    553a:	0008e0        	excw
    553d:	f01d      	excw
    553f:	4b0c      	movi.n	a11, 4
    5541:	848ca1        	l32r	a10, 0xfffe6774
    5544:	d8a1c2        	movi	a12, 0x1d8
    5547:	c1c2c0        	mul16u	a12, a2, a12
    554a:	832482        	l32i	a8, a4, 0x20c
    554d:	aaca      	add.n	a10, a10, a12
    554f:	800aa2        	l8ui	a10, a10, 128
    5552:	0008e0        	excw
    5555:	f32482        	l32i	a8, a4, 0x3cc
    5558:	02ad      	mov.n	a10, a2
    555a:	0008e0        	excw
    555d:	2f2582        	l32i	a8, a5, 188
    5560:	0008e0        	excw
    5563:	252482        	l32i	a8, a4, 148
    5566:	84cea1        	l32r	a10, 0xfffe68a0
    5569:	0008e0        	excw
    556c:	2b1c      	movi.n	a11, 18
    556e:	847ea1        	l32r	a10, 0xfffe6768
    5571:	ffa092        	movi	a9, 255
    5574:	840781        	l32r	a8, 0xfffe6590
    5577:	634a92        	s8i	a9, a10, 99
    557a:	7888      	l32i.n	a8, a8, 28
    557c:	5a0c      	movi.n	a10, 5
    557e:	0008e0        	excw
    5581:	0a2d      	mov.n	a2, a10
    5583:	7aac      	beqz.n	a10, 0x55ae
    5585:	0b0c      	movi.n	a11, 0
    5587:	0a0a42        	l8ui	a4, a10, 10
    558a:	2c1c      	movi.n	a12, 18
    558c:	44aa      	add.n	a4, a4, a10
    558e:	44cb      	addi.n	a4, a4, 12
    5590:	04ad      	mov.n	a10, a4
    5592:	066525        	excw
    5595:	02cd      	mov.n	a12, a2
    5597:	2a0c      	movi.n	a10, 2
    5599:	840f81        	l32r	a8, 0xfffe65d8
    559c:	390c      	movi.n	a9, 3
    559e:	939630        	movnez	a9, a6, a3
    55a1:	0f4492        	s8i	a9, a4, 15
    55a4:	8888      	l32i.n	a8, a8, 32
    55a6:	f6a1b2        	movi	a11, 0x1f6
    55a9:	0008e0        	excw
    55ac:	f01d      	excw
    55ae:	0a0c      	movi.n	a10, 0
    55b0:	1b0c      	movi.n	a11, 1
    55b2:	b22625        	excw
    55b5:	f01d      	excw
    55b7:	013600        	slli	a3, a6, 32
    55ba:	01bd01        	l32r	a0, 0xfffc5cb0
    55bd:	0a0c      	movi.n	a10, 0
    55bf:	8d2c      	movi.n	a13, 40
    55c1:	ffa0c2        	movi	a12, 255
    55c4:	ffa082        	movi	a8, 255
    55c7:	5a3a      	add.n	a5, a10, a3
    55c9:	000552        	l8ui	a5, a5, 0
    55cc:	004bc2        	s8i	a12, a11, 0
    55cf:	05ac      	beqz.n	a5, 0x55f3
    55d1:	070c      	movi.n	a7, 0
    55d3:	892c      	movi.n	a9, 40
    55d5:	1aa976        	excw
    55d8:	e72a      	add.n	a14, a7, a2
    55da:	000ee2        	l8ui	a14, a14, 0
    55dd:	c0f7a0        	sub	a15, a7, a10
    55e0:	de8c      	beqz.n	a14, 0x55f1
    55e2:	c09a70        	sub	a9, a10, a7
    55e5:	a39f90        	movltz	a9, a15, a9
    55e8:	05a987        	bge	a9, a8, 0x55f1
    55eb:	748090        	extui	a8, a9, 0, 8
    55ee:	004b82        	s8i	a8, a11, 0
    55f1:	771b      	addi.n	a7, a7, 1
    55f3:	bb1b      	addi.n	a11, a11, 1
    55f5:	ffa082        	movi	a8, 255
    55f8:	aa1b      	addi.n	a10, a10, 1
    55fa:	c99ad7        	bne	a10, a13, 0x55c7
    55fd:	060c      	movi.n	a6, 0
    55ff:	30c132        	addi	a3, a1, 48
    5602:	28a052        	movi	a5, 40
    5605:	06a576        	excw
    5608:	004362        	s8i	a6, a3, 0
    560b:	661b      	addi.n	a6, a6, 1
    560d:	331b      	addi.n	a3, a3, 1
    560f:	27c132        	addi	a3, a1, 39
    5612:	01cd      	mov.n	a12, a1
    5614:	0a0c      	movi.n	a10, 0
    5616:	7d2c      	movi.n	a13, 39
    5618:	c08da0        	sub	a8, a13, a10
    561b:	30c172        	addi	a7, a1, 48
    561e:	03bd      	mov.n	a11, a3
    5620:	aa1b      	addi.n	a10, a10, 1
    5622:	203110        	or	a3, a1, a1
    5625:	1ea876        	excw
    5628:	000392        	l8ui	a9, a3, 0
    562b:	010382        	l8ui	a8, a3, 1
    562e:	11b897        	bgeu	a8, a9, 0x5643
    5631:	014392        	s8i	a9, a3, 1
    5634:	004382        	s8i	a8, a3, 0
    5637:	0107e2        	l8ui	a14, a7, 1
    563a:	0007f2        	l8ui	a15, a7, 0
    563d:	0147f2        	s8i	a15, a7, 1
    5640:	0047e2        	s8i	a14, a7, 0
    5643:	771b      	addi.n	a7, a7, 1
    5645:	331b      	addi.n	a3, a3, 1
    5647:	c08da0        	sub	a8, a13, a10
    564a:	3b0b      	addi.n	a3, a11, -1
    564c:	cb93c7        	bne	a3, a12, 0x561b
    564f:	30c132        	addi	a3, a1, 48
    5652:	180c      	movi.n	a8, 1
    5654:	451c      	movi.n	a5, 20
    5656:	09a576        	excw
    5659:	000392        	l8ui	a9, a3, 0
    565c:	331b      	addi.n	a3, a3, 1
    565e:	992a      	add.n	a9, a9, a2
    5660:	004982        	s8i	a8, a9, 0
    5663:	030c      	movi.n	a3, 0
    5665:	070c      	movi.n	a7, 0
    5667:	160c      	movi.n	a6, 1
    5669:	fb7c      	movi.n	a11, -1
    566b:	8a2c      	movi.n	a10, 40
    566d:	40aa76        	excw
    5670:	c32a      	add.n	a12, a3, a2
    5672:	000cc2        	l8ui	a12, a12, 0
    5675:	331b      	addi.n	a3, a3, 1
    5677:	2cfc      	bnez.n	a12, 0x56ad
    5679:	24f060        	extui	a15, a6, 0, 3
    567c:	419370        	srli	a9, a7, 3
    567f:	24a070        	extui	a10, a7, 0, 3
    5682:	41e360        	srli	a14, a6, 3
    5685:	e4ea      	add.n	a14, a4, a14
    5687:	401a00        	ssl	a10
    568a:	949a      	add.n	a9, a4, a9
    568c:	000952        	l8ui	a5, a9, 0
    568f:	a1a800        	sll	a10, a8
    5692:	30aab0        	xor	a10, a10, a11
    5695:	401f00        	ssl	a15
    5698:	a1f800        	sll	a15, a8
    569b:	1055a0        	and	a5, a5, a10
    569e:	004952        	s8i	a5, a9, 0
    56a1:	000ed2        	l8ui	a13, a14, 0
    56a4:	30ffb0        	xor	a15, a15, a11
    56a7:	10ddf0        	and	a13, a13, a15
    56aa:	004ed2        	s8i	a13, a14, 0
    56ad:	772b      	addi.n	a7, a7, 2
    56af:	662b      	addi.n	a6, a6, 2
    56b1:	f01d      	excw
    56b3:	413600        	srli	a3, a0, 6
    56b6:	612201        	l32r	a0, 0xfffddb40
    56b9:	ad1c      	movi.n	a13, 26
    56bb:	cfb101        	l32r	a0, 0xffff9580
    56be:	8c2c84        	excw
    56c1:	064025        	excw
    56c4:	30c1a2        	addi	a10, a1, 48
    56c7:	84d0b1        	l32r	a11, 0xfffe6a08
    56ca:	8c2c      	movi.n	a12, 40
    56cc:	063f65        	excw
    56cf:	1c21a2        	l32i	a10, a1, 112
    56d2:	0b0c      	movi.n	a11, 0
    56d4:	ac0c      	movi.n	a12, 10
    56d6:	0650e5        	excw
    56d9:	040c      	movi.n	a4, 0
    56db:	842d31        	l32r	a3, 0xfffe6790
    56de:	0b0c      	movi.n	a11, 0
    56e0:	0c0c      	movi.n	a12, 0
    56e2:	1b61c2        	s32i	a12, a1, 108
    56e5:	1961b2        	s32i	a11, a1, 100
    56e8:	61c332        	addi	a3, a3, 97
    56eb:	01ad      	mov.n	a10, a1
    56ed:	0b0c      	movi.n	a11, 0
    56ef:	8c2c      	movi.n	a12, 40
    56f1:	064f25        	excw
    56f4:	1b0c      	movi.n	a11, 1
    56f6:	f74c      	movi.n	a7, 79
    56f8:	050c      	movi.n	a5, 0
    56fa:	060c      	movi.n	a6, 0
    56fc:	0d0c      	movi.n	a13, 0
    56fe:	1a61d2        	s32i	a13, a1, 104
    5701:	04c060        	extui	a12, a6, 0, 1
    5704:	24f060        	extui	a15, a6, 0, 3
    5707:	401f00        	ssl	a15
    570a:	744040        	extui	a4, a4, 0, 8
    570d:	1c2122        	l32i	a2, a1, 112
    5710:	8345c0        	moveqz	a4, a5, a12
    5713:	415360        	srli	a5, a6, 3
    5716:	252a      	add.n	a2, a5, a2
    5718:	1d6122        	s32i	a2, a1, 116
    571b:	000222        	l8ui	a2, a2, 0
    571e:	a1ab00        	sll	a10, a11
    5721:	658a27        	bany	a10, a2, 0x578a
    5724:	0e0c      	movi.n	a14, 0
    5726:	1861a2        	s32i	a10, a1, 96
    5729:	842dd1        	l32r	a13, 0xfffe67e0
    572c:	f80c      	movi.n	a8, 15
    572e:	cc0dd2        	l8ui	a13, a13, 204
    5731:	eb0c      	movi.n	a11, 14
    5733:	9d0b      	addi.n	a9, a13, -1
    5735:	93b9d0        	movnez	a11, a9, a13
    5738:	f90c      	movi.n	a9, 15
    573a:	00a0d2        	movi	a13, 0
    573d:	28a876        	excw
    5740:	ea0c      	movi.n	a10, 14
    5742:	a08bb0        	addx4	a8, a11, a11
    5745:	908850        	addx2	a8, a8, a5
    5748:	838a      	add.n	a8, a3, a8
    574a:	800882        	l8ui	a8, a8, 128
    574d:	400f00        	ssr	a15
    5750:	b18080        	sra	a8, a8
    5753:	046807        	bbci	a8, 0, 0x575b
    5756:	ee9a      	add.n	a14, a14, a9
    5758:	000046        	j	0x575d
    575b:	dd9a      	add.n	a13, a13, a9
    575d:	8b0b      	addi.n	a8, a11, -1
    575f:	990b      	addi.n	a9, a9, -1
    5761:	749090        	extui	a9, a9, 0, 8
    5764:	93a8b0        	movnez	a10, a8, a11
    5767:	0abd      	mov.n	a11, a10
    5769:	1b21a2        	l32i	a10, a1, 108
    576c:	1b0c      	movi.n	a11, 1
    576e:	c0ada0        	sub	a10, a13, a10
    5771:	aaab      	addi.n	a10, a10, 10
    5773:	182ea7        	blt	a14, a10, 0x578f
    5776:	1d2192        	l32i	a9, a1, 116
    5779:	182182        	l32i	a8, a1, 96
    577c:	441b      	addi.n	a4, a4, 1
    577e:	744040        	extui	a4, a4, 0, 8
    5781:	208820        	or	a8, a8, a2
    5784:	004982        	s8i	a8, a9, 0
    5787:	000106        	j	0x578f
    578a:	441b      	addi.n	a4, a4, 1
    578c:	744040        	extui	a4, a4, 0, 8
    578f:	050c      	movi.n	a5, 0
    5791:	770b      	addi.n	a7, a7, -1
    5793:	6c9c      	beqz.n	a12, 0x57ad
    5795:	142466        	bnei	a4, 2, 0x57ad
    5798:	419160        	srli	a9, a6, 1
    579b:	1a21a2        	l32i	a10, a1, 104
    579e:	018d      	mov.n	a8, a1
    57a0:	ca1b      	addi.n	a12, a10, 1
    57a2:	889a      	add.n	a8, a8, a9
    57a4:	0048b2        	s8i	a11, a8, 0
    57a7:	74a0c0        	extui	a10, a12, 0, 8
    57aa:	1a61a2        	s32i	a10, a1, 104
    57ad:	661b      	addi.n	a6, a6, 1
    57af:	746060        	extui	a6, a6, 0, 8
    57b2:	04c060        	extui	a12, a6, 0, 1
    57b5:	24f060        	extui	a15, a6, 0, 3
    57b8:	401f00        	ssl	a15
    57bb:	f4b756        	bnez	a7, 0x570a
    57be:	1b2182        	l32i	a8, a1, 108
    57c1:	e8cc      	bnez.n	a8, 0x57d3
    57c3:	30c1a2        	addi	a10, a1, 48
    57c6:	01bd      	mov.n	a11, a1
    57c8:	8c2c      	movi.n	a12, 40
    57ca:	1a2192        	l32i	a9, a1, 104
    57cd:	196192        	s32i	a9, a1, 100
    57d0:	062f25        	excw
    57d3:	1b21b2        	l32i	a11, a1, 108
    57d6:	1a21a2        	l32i	a10, a1, 104
    57d9:	bb1b      	addi.n	a11, a11, 1
    57db:	1b61b2        	s32i	a11, a1, 108
    57de:	029af6        	bgeui	a10, 10, 0x57e4
    57e1:	ffc186        	j	0x56eb
    57e4:	1921c2        	l32i	a12, a1, 100
    57e7:	4b1c      	movi.n	a11, 20
    57e9:	0f5cf6        	bgeui	a12, 5, 0x57fc
    57ec:	0cbba7        	bgeu	a11, a10, 0x57fc
    57ef:	1c21a2        	l32i	a10, a1, 112
    57f2:	84d1b1        	l32r	a11, 0xfffe6b38
    57f5:	ac0c      	movi.n	a12, 10
    57f7:	062ce5        	excw
    57fa:	f01d      	excw
    57fc:	1921e2        	l32i	a14, a1, 100
    57ff:	159ef6        	bgeui	a14, 10, 0x5818
    5802:	125eb6        	bltui	a14, 5, 0x5818
    5805:	1a2182        	l32i	a8, a1, 104
    5808:	0cbb87        	bgeu	a11, a8, 0x5818
    580b:	30c1a2        	addi	a10, a1, 48
    580e:	01bd      	mov.n	a11, a1
    5810:	1c21c2        	l32i	a12, a1, 112
    5813:	ffda65        	excw
    5816:	f01d      	excw
    5818:	f01d      	excw
    581a:	360000        	excw
    581d:	0c0041        	l32r	a4, 0xfffc8820
    5820:	812a      	add.n	a8, a1, a2
    5822:	0f          	.byte 0xf
    5823:	a2b284        	excw
    5826:	688806        	j	0x1fa4a
    5829:	ac0c      	movi.n	a12, 10
    582b:	0008e0        	excw
    582e:	02bd      	mov.n	a11, a2
    5830:	0a3d      	mov.n	a3, a10
    5832:	ac0c      	movi.n	a12, 10
    5834:	84d1a1        	l32r	a10, 0xfffe6b78
    5837:	0628e5        	excw
    583a:	a3cb      	addi.n	a10, a3, 12
    583c:	84d2b1        	l32r	a11, 0xfffe6b84
    583f:	ac0c      	movi.n	a12, 10
    5841:	063a25        	excw
    5844:	0a0c      	movi.n	a10, 0
    5846:	1b0c      	movi.n	a11, 1
    5848:	d54c      	movi.n	a5, 77
    584a:	140c      	movi.n	a4, 1
    584c:	360c      	movi.n	a6, 3
    584e:	28a092        	movi	a9, 40
    5851:	4da976        	excw
    5854:	24e0a0        	extui	a14, a10, 0, 3
    5857:	41f3a0        	srli	a15, a10, 3
    585a:	cf2a      	add.n	a12, a15, a2
    585c:	401e00        	ssl	a14
    585f:	a1d400        	sll	a13, a4
    5862:	000cc2        	l8ui	a12, a12, 0
    5865:	2435a7        	bltu	a5, a10, 0x588d
    5868:	0d0dc7        	bnone	a13, a12, 0x5879
    586b:	41d3b0        	srli	a13, a11, 3
    586e:	d2da      	add.n	a13, a2, a13
    5870:	000dd2        	l8ui	a13, a13, 0
    5873:	2480b0        	extui	a8, a11, 0, 3
    5876:	24dd87        	bbs	a13, a8, 0x589e
    5879:	401e00        	ssl	a14
    587c:	93fa      	add.n	a9, a3, a15
    587e:	0c0982        	l8ui	a8, a9, 12
    5881:	a1c600        	sll	a12, a6
    5884:	2088c0        	or	a8, a8, a12
    5887:	0c4982        	s8i	a8, a9, 12
    588a:	000406        	j	0x589e
    588d:	0d8dc7        	bany	a13, a12, 0x589e
    5890:	83fa      	add.n	a8, a3, a15
    5892:	0c08d2        	l8ui	a13, a8, 12
    5895:	a19600        	sll	a9, a6
    5898:	20dd90        	or	a13, a13, a9
    589b:	0c48d2        	s8i	a13, a8, 12
    589e:	aa2b      	addi.n	a10, a10, 2
    58a0:	bb2b      	addi.n	a11, a11, 2
    58a2:	03bd      	mov.n	a11, a3
    58a4:	840781        	l32r	a8, 0xfffe68c0
    58a7:	840ba1        	l32r	a10, 0xfffe68d4
    58aa:	142882        	l32i	a8, a8, 80
    58ad:	0aa8      	l32i.n	a10, a10, 0
    58af:	0008e0        	excw
    58b2:	120c      	movi.n	a2, 1
    58b4:	f01d      	excw
    58b6:	360000        	excw
    58b9:	210081        	l32r	a8, 0xfffcdcbc
    58bc:	8429      	s32i.n	a2, a4, 32
    58be:	847731        	l32r	a3, 0xfffe6a9c
    58c1:	8460b1        	l32r	a11, 0xfffe6a44
    58c4:	80c342        	addi	a4, a3, -128
    58c7:	0020c0        	memw
    58ca:	a12bb2        	l32i	a11, a11, 0x284
    58cd:	c40492        	l8ui	a9, a4, 196
    58d0:	1263b2        	s32i	a11, a3, 72
    58d3:	048690        	extui	a8, a9, 6, 1
    58d6:	0f1856        	bnez	a8, 0x59cb
    58d9:	842a51        	l32r	a5, 0xfffe6984
    58dc:	0005c2        	l8ui	a12, a5, 0
    58df:	f6ccc2        	addi	a12, a12, -10
    58e2:	0e5c16        	beqz	a12, 0x59cb
    58e5:	04d190        	extui	a13, a9, 1, 1
    58e8:	0ddd16        	beqz	a13, 0x59c9
    58eb:	ab2282        	l32i	a8, a2, 0x2ac
    58ee:	0008e0        	excw
    58f1:	c40492        	l8ui	a9, a4, 196
    58f4:	1e6947        	bbci	a9, 4, 0x5916
    58f7:	9f2282        	l32i	a8, a2, 0x27c
    58fa:	0a0c      	movi.n	a10, 0
    58fc:	0008e0        	excw
    58ff:	c40492        	l8ui	a9, a4, 196
    5902:	08e927        	bbsi	a9, 2, 0x590e
    5905:	efa0a2        	movi	a10, 239
    5908:	10a9a0        	and	a10, a9, a10
    590b:	4443a2        	s8i	a10, a3, 68
    590e:	ac2282        	l32i	a8, a2, 0x2b0
    5911:	0008e0        	excw
    5914:	f01d      	excw
    5916:	c00592        	l8ui	a9, a5, 192
    5919:	0d6907        	bbci	a9, 0, 0x592a
    591c:	a82282        	l32i	a8, a2, 0x2a0
    591f:	0008e0        	excw
    5922:	4a8c      	beqz.n	a10, 0x592a
    5924:	ad2282        	l32i	a8, a2, 0x2b4
    5927:	0008e0        	excw
    592a:	9a2282        	l32i	a8, a2, 0x268
    592d:	0008e0        	excw
    5930:	9d2282        	l32i	a8, a2, 0x274
    5933:	0008e0        	excw
    5936:	982282        	l32i	a8, a2, 0x260
    5939:	01ad      	mov.n	a10, a1
    593b:	0008e0        	excw
    593e:	0a4d      	mov.n	a4, a10
    5940:	9b2282        	l32i	a8, a2, 0x26c
    5943:	01ad      	mov.n	a10, a1
    5945:	0008e0        	excw
    5948:	9c2282        	l32i	a8, a2, 0x270
    594b:	a18b      	addi.n	a10, a1, 8
    594d:	0008e0        	excw
    5950:	0c0c      	movi.n	a12, 0
    5952:	0a0c      	movi.n	a10, 0
    5954:	84d3f1        	l32r	a15, 0xfffe6ca0
    5957:	d18b      	addi.n	a13, a1, 8
    5959:	090c      	movi.n	a9, 0
    595b:	bcda      	add.n	a11, a12, a13
    595d:	8cfa      	add.n	a8, a12, a15
    595f:	800882        	l8ui	a8, a8, 128
    5962:	000bb2        	l8ui	a11, a11, 0
    5965:	8e0c      	movi.n	a14, 8
    5967:	30bb80        	xor	a11, a11, a8
    596a:	74b0b0        	extui	a11, a11, 0, 8
    596d:	39ae76        	excw
    5970:	400900        	ssr	a9
    5973:	b1e0b0        	sra	a14, a11
    5976:	296e07        	bbci	a14, 0, 0x59a3
    5979:	aa1b      	addi.n	a10, a10, 1
    597b:	263ab6        	bltui	a10, 3, 0x59a5
    597e:	a02282        	l32i	a8, a2, 0x280
    5981:	4a0c      	movi.n	a10, 4
    5983:	0008e0        	excw
    5986:	a32282        	l32i	a8, a2, 0x28c
    5989:	a18b      	addi.n	a10, a1, 8
    598b:	0008e0        	excw
    598e:	848f51        	l32r	a5, 0xfffe6bcc
    5991:	2024f6        	bgeui	a4, 2, 0x59b5
    5994:	84c391        	l32r	a9, 0xfffe6ca0
    5997:	fc15a2        	l16ui	a10, a5, 0x1f8
    599a:	f11992        	l16ui	a9, a9, 0x1e2
    599d:	1fb9a7        	bgeu	a9, a10, 0x59c0
    59a0:	000446        	j	0x59b5
    59a3:	0a0c      	movi.n	a10, 0
    59a5:	991b      	addi.n	a9, a9, 1
    59a7:	749090        	extui	a9, a9, 0, 8
    59aa:	cc1b      	addi.n	a12, a12, 1
    59ac:	74c0c0        	extui	a12, a12, 0, 8
    59af:	a69c66        	bnei	a12, 10, 0x5959
    59b2:	fff606        	j	0x598e
    59b5:	9f2282        	l32i	a8, a2, 0x27c
    59b8:	0a0c      	movi.n	a10, 0
    59ba:	0008e0        	excw
    59bd:	fc15a2        	l16ui	a10, a5, 0x1f8
    59c0:	ac2282        	l32i	a8, a2, 0x2b0
    59c3:	7d53a2        	s16i	a10, a3, 250
    59c6:	0008e0        	excw
    59c9:	f01d      	excw
    59cb:	9f2282        	l32i	a8, a2, 0x27c
    59ce:	0a0c      	movi.n	a10, 0
    59d0:	0008e0        	excw
    59d3:	f01d      	excw
    59d5:	000000        	ill
    59d8:	004136        	excw
    59db:	040c      	movi.n	a4, 0
    59dd:	026d      	mov.n	a6, a2
    59df:	02a032        	movi	a3, 2
    59e2:	00a022        	movi	a2, 0
    59e5:	14a376        	excw
    59e8:	908440        	addx2	a8, a4, a4
    59eb:	521b      	addi.n	a5, a2, 1
    59ed:	745050        	extui	a5, a5, 0, 8
    59f0:	441b      	addi.n	a4, a4, 1
    59f2:	868a      	add.n	a8, a6, a8
    59f4:	020882        	l8ui	a8, a8, 2
    59f7:	744040        	extui	a4, a4, 0, 8
    59fa:	932580        	movnez	a2, a5, a8
    59fd:	f01d      	excw
    59ff:	213600        	srai	a3, a0, 6
    5a02:	612201        	l32r	a0, 0xfffdde8c
    5a05:	911a      	add.n	a9, a1, a1
    5a07:	3184a0        	srai	a8, a10, 20
    5a0a:	9284d4        	excw
    5a0d:	5209      	s32i.n	a0, a2, 20
    5a0f:	800382        	l8ui	a8, a3, 128
    5a12:	239900        	excw
    5a15:	238800        	excw
    5a18:	07a897        	bge	a8, a9, 0x5a23
    5a1b:	845ca1        	l32r	a10, 0xfffe6b8c
    5a1e:	0b0c      	movi.n	a11, 0
    5a20:	b1df25        	excw
    5a23:	1a21a2        	l32i	a10, a1, 104
    5a26:	0b0c      	movi.n	a11, 0
    5a28:	6c0c      	movi.n	a12, 6
    5a2a:	061ba5        	excw
    5a2d:	01ad      	mov.n	a10, a1
    5a2f:	0b0c      	movi.n	a11, 0
    5a31:	6c0c      	movi.n	a12, 6
    5a33:	061b25        	excw
    5a36:	10c1a2        	addi	a10, a1, 16
    5a39:	84d5b1        	l32r	a11, 0xfffe6d90
    5a3c:	fc4c      	movi.n	a12, 79
    5a3e:	060865        	excw
    5a41:	84a0b1        	l32r	a11, 0xfffe6cc4
    5a44:	800372        	l8ui	a7, a3, 128
    5a47:	520bb2        	l8ui	a11, a11, 82
    5a4a:	237700        	excw
    5a4d:	23bb00        	excw
    5a50:	02a7b7        	bge	a7, a11, 0x5a56
    5a53:	003386        	j	0x5b25
    5a56:	842921        	l32r	a2, 0xfffe6afc
    5a59:	030c      	movi.n	a3, 0
    5a5b:	040c      	movi.n	a4, 0
    5a5d:	fec762        	addi	a6, a7, -2
    5a60:	1b6162        	s32i	a6, a1, 108
    5a63:	236600        	excw
    5a66:	908440        	addx2	a8, a4, a4
    5a69:	015d      	mov.n	a5, a1
    5a6b:	558a      	add.n	a5, a5, a8
    5a6d:	020582        	l8ui	a8, a5, 2
    5a70:	18dc      	bnez.n	a8, 0x5a85
    5a72:	07bd      	mov.n	a11, a7
    5a74:	10c1a2        	addi	a10, a1, 16
    5a77:	972282        	l32i	a8, a2, 0x25c
    5a7a:	05cd      	mov.n	a12, a5
    5a7c:	0008e0        	excw
    5a7f:	020592        	l8ui	a9, a5, 2
    5a82:	04f916        	beqz	a9, 0x5ad5
    5a85:	06bd      	mov.n	a11, a6
    5a87:	992282        	l32i	a8, a2, 0x264
    5a8a:	05ad      	mov.n	a10, a5
    5a8c:	0008e0        	excw
    5a8f:	0005a2        	l8ui	a10, a5, 0
    5a92:	010552        	l8ui	a5, a5, 1
    5a95:	10c1b2        	addi	a11, a1, 16
    5a98:	c055a0        	sub	a5, a5, a10
    5a9b:	aaba      	add.n	a10, a10, a11
    5a9d:	551b      	addi.n	a5, a5, 1
    5a9f:	81afb2        	movi	a11, -127
    5aa2:	05cd      	mov.n	a12, a5
    5aa4:	0613e5        	excw
    5aa7:	353a      	add.n	a3, a5, a3
    5aa9:	441b      	addi.n	a4, a4, 1
    5aab:	020182        	l8ui	a8, a1, 2
    5aae:	744040        	extui	a4, a4, 0, 8
    5ab1:	d89c      	beqz.n	a8, 0x5ad2
    5ab3:	050192        	l8ui	a9, a1, 5
    5ab6:	0001c2        	l8ui	a12, a1, 0
    5ab9:	599c      	beqz.n	a9, 0x5ad2
    5abb:	0301a2        	l8ui	a10, a1, 3
    5abe:	0101b2        	l8ui	a11, a1, 1
    5ac1:	051ac7        	beq	a10, a12, 0x5aca
    5ac4:	0401d2        	l8ui	a13, a1, 4
    5ac7:	079db7        	bne	a13, a11, 0x5ad2
    5aca:	c03bc0        	sub	a3, a11, a12
    5acd:	331b      	addi.n	a3, a3, 1
    5acf:	733530        	excw
    5ad2:	902466        	bnei	a4, 2, 0x5a66
    5ad5:	b83c      	movi.n	a8, 59
    5ad7:	4a3837        	bltu	a8, a3, 0x5b25
    5ada:	01ad      	mov.n	a10, a1
    5adc:	ffefa5        	excw
    5adf:	1a9c      	beqz.n	a10, 0x5af4
    5ae1:	60c1a2        	addi	a10, a1, 96
    5ae4:	01bd      	mov.n	a11, a1
    5ae6:	6c0c      	movi.n	a12, 6
    5ae8:	05fda5        	excw
    5aeb:	a92282        	l32i	a8, a2, 0x2a4
    5aee:	60c1a2        	addi	a10, a1, 96
    5af1:	0008e0        	excw
    5af4:	60c1a2        	addi	a10, a1, 96
    5af7:	ffee25        	excw
    5afa:	0a3d      	mov.n	a3, a10
    5afc:	1a21a2        	l32i	a10, a1, 104
    5aff:	ffeda5        	excw
    5b02:	0a33a7        	bltu	a3, a10, 0x5b10
    5b05:	1a21a2        	l32i	a10, a1, 104
    5b08:	60c1b2        	addi	a11, a1, 96
    5b0b:	6c0c      	movi.n	a12, 6
    5b0d:	05fb65        	excw
    5b10:	84a091        	l32r	a9, 0xfffe6d90
    5b13:	1b2172        	l32i	a7, a1, 108
    5b16:	520992        	l8ui	a9, a9, 82
    5b19:	237700        	excw
    5b1c:	239900        	excw
    5b1f:	022797        	blt	a7, a9, 0x5b25
    5b22:	ffccc6        	j	0x5a59
    5b25:	1a21a2        	l32i	a10, a1, 104
    5b28:	ffeae5        	excw
    5b2b:	0a2d      	mov.n	a2, a10
    5b2d:	051a16        	beqz	a10, 0x5b82
    5b30:	1a21a2        	l32i	a10, a1, 104
    5b33:	01ed      	mov.n	a14, a1
    5b35:	ad3c      	movi.n	a13, 58
    5b37:	e34c      	movi.n	a3, 78
    5b39:	0f0c      	movi.n	a15, 0
    5b3b:	2b0c      	movi.n	a11, 2
    5b3d:	41ab76        	excw
    5b40:	020ec2        	l8ui	a12, a14, 2
    5b43:	ee3b      	addi.n	a14, a14, 3
    5b45:	7cbc      	beqz.n	a12, 0x5b80
    5b47:	010ab2        	l8ui	a11, a10, 1
    5b4a:	000ac2        	l8ui	a12, a10, 0
    5b4d:	bb2b      	addi.n	a11, a11, 2
    5b4f:	feccc2        	addi	a12, a12, -2
    5b52:	23cc00        	excw
    5b55:	23bb00        	excw
    5b58:	43bb30        	excw
    5b5b:	53ccf0        	excw
    5b5e:	23cc00        	excw
    5b61:	23bb00        	excw
    5b64:	c08bc0        	sub	a8, a11, a12
    5b67:	0fad87        	bge	a13, a8, 0x5b7a
    5b6a:	bb0b      	addi.n	a11, a11, -1
    5b6c:	cc1b      	addi.n	a12, a12, 1
    5b6e:	23cc00        	excw
    5b71:	23bb00        	excw
    5b74:	c08bc0        	sub	a8, a11, a12
    5b77:	ef2d87        	blt	a13, a8, 0x5b6a
    5b7a:	004ac2        	s8i	a12, a10, 0
    5b7d:	014ab2        	s8i	a11, a10, 1
    5b80:	aa3b      	addi.n	a10, a10, 3
    5b82:	f01d      	excw
    5b84:	006136        	excw
    5b87:	842921        	l32r	a2, 0xfffe6c2c
    5b8a:	ab2282        	l32i	a8, a2, 0x2ac
    5b8d:	0008e0        	excw
    5b90:	ed4c      	movi.n	a13, 78
    5b92:	f74c      	movi.n	a7, 79
    5b94:	84a0a1        	l32r	a10, 0xfffe6e14
    5b97:	0b0c      	movi.n	a11, 0
    5b99:	650a62        	l8ui	a6, a10, 101
    5b9c:	790aa2        	l8ui	a10, a10, 121
    5b9f:	0041b2        	s8i	a11, a1, 0
    5ba2:	c077a0        	sub	a7, a7, a10
    5ba5:	119ae0        	slli	a9, a10, 2
    5ba8:	90caa0        	addx2	a12, a10, a10
    5bab:	21c9      	s32i.n	a12, a1, 8
    5bad:	1199      	s32i.n	a9, a1, 4
    5baf:	0bed      	mov.n	a14, a11
    5bb1:	c0cba0        	sub	a12, a11, a10
    5bb4:	74c0c0        	extui	a12, a12, 0, 8
    5bb7:	93ecb0        	movnez	a14, a12, a11
    5bba:	049bd7        	bne	a11, a13, 0x5bc2
    5bbd:	0b2d      	mov.n	a2, a11
    5bbf:	000106        	j	0x5bc7
    5bc2:	2aba      	add.n	a2, a10, a11
    5bc4:	742020        	extui	a2, a2, 0, 8
    5bc7:	090e56        	bnez	a14, 0x5c5b
    5bca:	1198      	l32i.n	a9, a1, 4
    5bcc:	21e8      	l32i.n	a14, a1, 8
    5bce:	99ba      	add.n	a9, a9, a11
    5bd0:	eeba      	add.n	a14, a14, a11
    5bd2:	74e0e0        	extui	a14, a14, 0, 8
    5bd5:	74f090        	extui	a15, a9, 0, 8
    5bd8:	84d6c1        	l32r	a12, 0xfffe6f30
    5bdb:	022727        	blt	a7, a2, 0x5be1
    5bde:	002246        	j	0x5c6b
    5be1:	1138      	l32i.n	a3, a1, 4
    5be3:	2128      	l32i.n	a2, a1, 8
    5be5:	c03b30        	sub	a3, a11, a3
    5be8:	c02b20        	sub	a2, a11, a2
    5beb:	742020        	extui	a2, a2, 0, 8
    5bee:	745030        	extui	a5, a3, 0, 8
    5bf1:	42ca      	add.n	a4, a2, a12
    5bf3:	800442        	l8ui	a4, a4, 128
    5bf6:	2fca      	add.n	a2, a15, a12
    5bf8:	3eca      	add.n	a3, a14, a12
    5bfa:	55ca      	add.n	a5, a5, a12
    5bfc:	800552        	l8ui	a5, a5, 128
    5bff:	800332        	l8ui	a3, a3, 128
    5c02:	800222        	l8ui	a2, a2, 128
    5c05:	d9ccf2        	addi	a15, a12, -39
    5c08:	fbfa      	add.n	a15, a11, a15
    5c0a:	234400        	excw
    5c0d:	232200        	excw
    5c10:	233300        	excw
    5c13:	235500        	excw
    5c16:	954a      	add.n	a9, a5, a4
    5c18:	e32a      	add.n	a14, a3, a2
    5c1a:	99ea      	add.n	a9, a9, a14
    5c1c:	a70fe2        	l8ui	a14, a15, 167
    5c1f:	893b      	addi.n	a8, a9, 3
    5c21:	b38990        	movgez	a8, a9, a9
    5c24:	23ee00        	excw
    5c27:	218280        	srai	a8, a8, 2
    5c2a:	868a      	add.n	a8, a6, a8
    5c2c:	23b880        	excw
    5c2f:	3dabe7        	bge	a11, a14, 0x5c70
    5c32:	1c0c      	movi.n	a12, 1
    5c34:	012b37        	blt	a11, a3, 0x5c39
    5c37:	0c0c      	movi.n	a12, 0
    5c39:	04ab27        	bge	a11, a2, 0x5c41
    5c3c:	cc1b      	addi.n	a12, a12, 1
    5c3e:	74c0c0        	extui	a12, a12, 0, 8
    5c41:	04ab47        	bge	a11, a4, 0x5c49
    5c44:	cc1b      	addi.n	a12, a12, 1
    5c46:	74c0c0        	extui	a12, a12, 0, 8
    5c49:	190c      	movi.n	a9, 1
    5c4b:	04ab57        	bge	a11, a5, 0x5c53
    5c4e:	cc1b      	addi.n	a12, a12, 1
    5c50:	74c0c0        	extui	a12, a12, 0, 8
    5c53:	1b2cb6        	bltui	a12, 2, 0x5c72
    5c56:	090c      	movi.n	a9, 0
    5c58:	000586        	j	0x5c72
    5c5b:	c0fea0        	sub	a15, a14, a10
    5c5e:	74f0f0        	extui	a15, a15, 0, 8
    5c61:	f73f56        	bnez	a15, 0x5bd8
    5c64:	2198      	l32i.n	a9, a1, 8
    5c66:	99ba      	add.n	a9, a9, a11
    5c68:	ffda46        	j	0x5bd5
    5c6b:	32aa      	add.n	a3, a2, a10
    5c6d:	ffdf46        	j	0x5bee
    5c70:	090c      	movi.n	a9, 0
    5c72:	a9cc      	bnez.n	a9, 0x5c80
    5c74:	580fb2        	l8ui	a11, a15, 88
    5c77:	23bb00        	excw
    5c7a:	02abe7        	bge	a11, a14, 0x5c80
    5c7d:	584fe2        	s8i	a14, a15, 88
    5c80:	0001b2        	l8ui	a11, a1, 0
    5c83:	bbaa      	add.n	a11, a11, a10
    5c85:	74b0b0        	extui	a11, a11, 0, 8
    5c88:	0041b2        	s8i	a11, a1, 0
    5c8b:	023db7        	bltu	a13, a11, 0x5c91
    5c8e:	ffc746        	j	0x5baf
    5c91:	84d7a1        	l32r	a10, 0xfffe6ff0
    5c94:	81afb2        	movi	a11, -127
    5c97:	fc4c      	movi.n	a12, 79
    5c99:	05f4a5        	excw
    5c9c:	842981        	l32r	a8, 0xfffe6d40
    5c9f:	ac2882        	l32i	a8, a8, 0x2b0
    5ca2:	0008e0        	excw
    5ca5:	f01d      	excw
    5ca7:	413600        	srli	a3, a0, 6
    5caa:	128200        	excw
    5cad:	a29203        	excw
    5cb0:	1e          	.byte 0x1e
    5cb1:	0e9897        	bne	a8, a9, 0x5cc3
    5cb4:	ffece5        	excw
    5cb7:	840f81        	l32r	a8, 0xfffe6cf4
    5cba:	5888      	l32i.n	a8, a8, 20
    5cbc:	02ad      	mov.n	a10, a2
    5cbe:	0008e0        	excw
    5cc1:	f01d      	excw
    5cc3:	847181        	l32r	a8, 0xfffe6e88
    5cc6:	a888      	l32i.n	a8, a8, 40
    5cc8:	02ad      	mov.n	a10, a2
    5cca:	0008e0        	excw
    5ccd:	f01d      	excw
    5ccf:	413600        	srli	a3, a0, 6
    5cd2:	2a3100        	excw
    5cd5:	033284        	excw
    5cd8:	a042b7        	ball	a2, a11, 0x5c7c
    5cdb:	ff          	.byte 0xff
    5cdc:	021366        	bnei	a3, 1, 0x5ce2
    5cdf:	039247        	bne	a2, a4, 0x5ce6
    5ce2:	020c      	movi.n	a2, 0
    5ce4:	f01d      	excw
    5ce6:	84d891        	l32r	a9, 0xfffe7048
    5ce9:	84c381        	l32r	a8, 0xfffe6ff8
    5cec:	d8a1a2        	movi	a10, 0x1d8
    5cef:	c1a2a0        	mul16u	a10, a2, a10
    5cf2:	ec1882        	l16ui	a8, a8, 0x1d8
    5cf5:	99aa      	add.n	a9, a9, a10
    5cf7:	7f1992        	l16ui	a9, a9, 254
    5cfa:	120c      	movi.n	a2, 1
    5cfc:	033897        	bltu	a8, a9, 0x5d03
    5cff:	020c      	movi.n	a2, 0
    5d01:	f01d      	excw
    5d03:	f01d      	excw
    5d05:	000000        	ill
    5d08:	012136        	excw
    5d0b:	842a81        	l32r	a8, 0xfffe6db4
    5d0e:	8460b1        	l32r	a11, 0xfffe6e90
    5d11:	902892        	l32i	a9, a8, 0x240
    5d14:	0020c0        	memw
    5d17:	846b92        	s32i	a9, a11, 0x210
    5d1a:	2ed882        	addmi	a8, a8, 0x2e00
    5d1d:	1888      	l32i.n	a8, a8, 4
    5d1f:	42f857        	bbsi	a8, 21, 0x5d65
    5d22:	842da1        	l32r	a10, 0xfffe6dd8
    5d25:	c40aa2        	l8ui	a10, a10, 196
    5d28:	841991        	l32r	a9, 0xfffe6d8c
    5d2b:	38ea27        	bbsi	a10, 2, 0x5d67
    5d2e:	2f2982        	l32i	a8, a9, 188
    5d31:	0008e0        	excw
    5d34:	f01d      	excw
    5d36:	842781        	l32r	a8, 0xfffe6dd4
    5d39:	3888      	l32i.n	a8, a8, 12
    5d3b:	0008e0        	excw
    5d3e:	2e2282        	l32i	a8, a2, 184
    5d41:	84c3b1        	l32r	a11, 0xfffe7050
    5d44:	ec1c      	movi.n	a12, 30
    5d46:	ec1bb2        	l16ui	a11, a11, 0x1d8
    5d49:	10aac0        	and	a10, a10, a12
    5d4c:	abaa      	add.n	a10, a11, a10
    5d4e:	f4a0a0        	extui	a10, a10, 0, 16
    5d51:	0008e0        	excw
    5d54:	9a0c      	movi.n	a10, 9
    5d56:	1ea2b2        	movi	a11, 0x21e
    5d59:	840f81        	l32r	a8, 0xfffe6d98
    5d5c:	0c0c      	movi.n	a12, 0
    5d5e:	7888      	l32i.n	a8, a8, 28
    5d60:	0d0c      	movi.n	a13, 0
    5d62:	0008e0        	excw
    5d65:	f01d      	excw
    5d67:	ffa356        	bnez	a3, 0x5d65
    5d6a:	f7ea47        	bbsi	a10, 4, 0x5d65
    5d6d:	f4ea57        	bbsi	a10, 5, 0x5d65
    5d70:	0020c0        	memw
    5d73:	962bd2        	l32i	a13, a11, 0x258
    5d76:	1061d2        	s32i	a13, a1, 64
    5d79:	0020c0        	memw
    5d7c:	090c      	movi.n	a9, 0
    5d7e:	01ed      	mov.n	a14, a1
    5d80:	20c1d2        	addi	a13, a1, 32
    5d83:	972bc2        	l32i	a12, a11, 0x25c
    5d86:	7a0c      	movi.n	a10, 7
    5d88:	1161c2        	s32i	a12, a1, 68
    5d8b:	8462c1        	l32r	a12, 0xfffe6f14
    5d8e:	1daa76        	excw
    5d91:	b0a9c0        	addx8	a10, a9, a12
    5d94:	a0f9d0        	addx4	a15, a9, a13
    5d97:	0020c0        	memw
    5d9a:	b32ab2        	l32i	a11, a10, 0x2cc
    5d9d:	0fb9      	s32i.n	a11, a15, 0
    5d9f:	a0b9e0        	addx4	a11, a9, a14
    5da2:	0020c0        	memw
    5da5:	991b      	addi.n	a9, a9, 1
    5da7:	b42aa2        	l32i	a10, a10, 0x2d0
    5daa:	0ba9      	s32i.n	a10, a11, 0
    5dac:	749090        	extui	a9, a9, 0, 8
    5daf:	060c      	movi.n	a6, 0
    5db1:	870c      	movi.n	a7, 8
    5db3:	090c      	movi.n	a9, 0
    5db5:	0b6c      	movi.n	a11, -32
    5db7:	84d981        	l32r	a8, 0xfffe711c
    5dba:	8a6c      	movi.n	a10, -24
    5dbc:	0c0c      	movi.n	a12, 0
    5dbe:	1661c2        	s32i	a12, a1, 88
    5dc1:	1861a2        	s32i	a10, a1, 96
    5dc4:	156182        	s32i	a8, a1, 84
    5dc7:	1761b2        	s32i	a11, a1, 92
    5dca:	126192        	s32i	a9, a1, 72
    5dcd:	8b0c      	movi.n	a11, 8
    5dcf:	84d491        	l32r	a9, 0xfffe7120
    5dd2:	1461b2        	s32i	a11, a1, 80
    5dd5:	810932        	l8ui	a3, a9, 129
    5dd8:	0246b6        	bltui	a6, 4, 0x5dde
    5ddb:	005c06        	j	0x5f4f
    5dde:	1621b2        	l32i	a11, a1, 88
    5de1:	1021a2        	l32i	a10, a1, 64
    5de4:	400b00        	ssr	a11
    5de7:	91a0a0        	srl	a10, a10
    5dea:	23aa00        	excw
    5ded:	071a37        	beq	a10, a3, 0x5df8
    5df0:	84d6c1        	l32r	a12, 0xfffe7148
    5df3:	c3ca      	add.n	a12, a3, a12
    5df5:	804ca2        	s8i	a10, a12, 128
    5df8:	84daa1        	l32r	a10, 0xfffe7160
    5dfb:	2a0ab2        	l8ui	a11, a10, 42
    5dfe:	2b0aa2        	l8ui	a10, a10, 43
    5e01:	23bb00        	excw
    5e04:	23aa00        	excw
    5e07:	029ab7        	bne	a10, a11, 0x5e0d
    5e0a:	0021c6        	j	0x5e95
    5e0d:	20c142        	addi	a4, a1, 32
    5e10:	015d      	mov.n	a5, a1
    5e12:	84c321        	l32r	a2, 0xfffe7120
    5e15:	b61b      	addi.n	a11, a6, 1
    5e17:	1361b2        	s32i	a11, a1, 76
    5e1a:	842981        	l32r	a8, 0xfffe6ec0
    5e1d:	f412a2        	l16ui	a10, a2, 0x1e8
    5e20:	af2882        	l32i	a8, a8, 0x2bc
    5e23:	34aca0        	extui	a10, a10, 12, 4
    5e26:	0008e0        	excw
    5e29:	1521e2        	l32i	a14, a1, 84
    5e2c:	cabc      	beqz.n	a10, 0x5e6c
    5e2e:	f412a2        	l16ui	a10, a2, 0x1e8
    5e31:	843191        	l32r	a9, 0xfffe6ef8
    5e34:	34bca0        	extui	a11, a10, 12, 4
    5e37:	3109a7        	bnone	a9, a10, 0x5e6c
    5e3a:	84dba1        	l32r	a10, 0xfffe71a8
    5e3d:	400700        	ssr	a7
    5e40:	aaba      	add.n	a10, a10, a11
    5e42:	000aa2        	l8ui	a10, a10, 0
    5e45:	1321b2        	l32i	a11, a1, 76
    5e48:	23aa00        	excw
    5e4b:	aa3a      	add.n	a10, a10, a3
    5e4d:	74a0a0        	extui	a10, a10, 0, 8
    5e50:	334bf6        	bgeui	a11, 4, 0x5e87
    5e53:	04b8      	l32i.n	a11, a4, 0
    5e55:	91b0b0        	srl	a11, a11
    5e58:	23bb00        	excw
    5e5b:	0d1ba7        	beq	a11, a10, 0x5e6c
    5e5e:	80afc2        	movi	a12, -128
    5e61:	071bc7        	beq	a11, a12, 0x5e6c
    5e64:	84d6d1        	l32r	a13, 0xfffe71bc
    5e67:	dada      	add.n	a13, a10, a13
    5e69:	804db2        	s8i	a11, a13, 128
    5e6c:	444b      	addi.n	a4, a4, 4
    5e6e:	554b      	addi.n	a5, a5, 4
    5e70:	222b      	addi.n	a2, a2, 2
    5e72:	a492e7        	bne	a2, a14, 0x5e1a
    5e75:	84dab1        	l32r	a11, 0xfffe71e0
    5e78:	2b0ba2        	l8ui	a10, a11, 43
    5e7b:	2a0bb2        	l8ui	a11, a11, 42
    5e7e:	23aa00        	excw
    5e81:	23bb00        	excw
    5e84:	000346        	j	0x5e95
    5e87:	1821c2        	l32i	a12, a1, 96
    5e8a:	05b8      	l32i.n	a11, a5, 0
    5e8c:	400c00        	ssr	a12
    5e8f:	91b0b0        	srl	a11, a11
    5e92:	fff086        	j	0x5e58
    5e95:	661b      	addi.n	a6, a6, 1
    5e97:	778b      	addi.n	a7, a7, 8
    5e99:	ec4c      	movi.n	a12, 78
    5e9b:	142192        	l32i	a9, a1, 80
    5e9e:	1821d2        	l32i	a13, a1, 96
    5ea1:	84a081        	l32r	a8, 0xfffe7124
    5ea4:	1621e2        	l32i	a14, a1, 88
    5ea7:	c0aab0        	sub	a10, a10, a11
    5eaa:	3a3a      	add.n	a3, a10, a3
    5eac:	ee8b      	addi.n	a14, a14, 8
    5eae:	790882        	l8ui	a8, a8, 121
    5eb1:	dd8b      	addi.n	a13, a13, 8
    5eb3:	990b      	addi.n	a9, a9, -1
    5eb5:	146192        	s32i	a9, a1, 80
    5eb8:	1861d2        	s32i	a13, a1, 96
    5ebb:	383a      	add.n	a3, a8, a3
    5ebd:	743030        	extui	a3, a3, 0, 8
    5ec0:	0abc37        	bgeu	a12, a3, 0x5ece
    5ec3:	b1c332        	addi	a3, a3, -79
    5ec6:	180c      	movi.n	a8, 1
    5ec8:	126182        	s32i	a8, a1, 72
    5ecb:	743030        	extui	a3, a3, 0, 8
    5ece:	1721c2        	l32i	a12, a1, 92
    5ed1:	1661e2        	s32i	a14, a1, 88
    5ed4:	cc8b      	addi.n	a12, a12, 8
    5ed6:	1761c2        	s32i	a12, a1, 92
    5ed9:	efb956        	bnez	a9, 0x5dd8
    5edc:	84dcc1        	l32r	a12, 0xfffe724c
    5edf:	1221f2        	l32i	a15, a1, 72
    5ee2:	014c32        	s8i	a3, a12, 1
    5ee5:	fedc82        	addmi	a8, a12, 0xfffffe00
    5ee8:	fc1882        	l16ui	a8, a8, 0x1f8
    5eeb:	ffdc92        	addmi	a9, a12, 0xffffff00
    5eee:	b08a80        	addx8	a8, a10, a8
    5ef1:	7c5982        	s16i	a8, a9, 248
    5ef4:	e6df16        	beqz	a15, 0x5d65
    5ef7:	841921        	l32r	a2, 0xfffe6f5c
    5efa:	8476a1        	l32r	a10, 0xfffe70d4
    5efd:	6090b0        	neg	a9, a11
    5f00:	940aa2        	l8ui	a10, a10, 148
    5f03:	014c92        	s8i	a9, a12, 1
    5f06:	0a3d      	mov.n	a3, a10
    5f08:	ffdc65        	excw
    5f0b:	e27a16        	beqz	a10, 0x5d36
    5f0e:	03ad      	mov.n	a10, a3
    5f10:	fccca5        	excw
    5f13:	842be1        	l32r	a14, 0xfffe6fc0
    5f16:	8474c1        	l32r	a12, 0xfffe70e8
    5f19:	84c3d1        	l32r	a13, 0xfffe7228
    5f1c:	d8a1f2        	movi	a15, 0x1d8
    5f1f:	c1f3f0        	mul16u	a15, a3, a15
    5f22:	ec1dd2        	l16ui	a13, a13, 0x1d8
    5f25:	ccfa      	add.n	a12, a12, a15
    5f27:	412cb2        	l32i	a11, a12, 0x104
    5f2a:	7e1cc2        	l16ui	a12, a12, 252
    5f2d:	c0bba0        	sub	a11, a11, a10
    5f30:	10bbe0        	and	a11, a11, a14
    5f33:	023dc7        	bltu	a13, a12, 0x5f39
    5f36:	ff8686        	j	0x5d54
    5f39:	6e1c      	movi.n	a14, 22
    5f3b:	013eb7        	bltu	a14, a11, 0x5f40
    5f3e:	bcba      	add.n	a11, a12, a11
    5f40:	eacba2        	addi	a10, a11, -22
    5f43:	2e2282        	l32i	a8, a2, 184
    5f46:	f4a0a0        	extui	a10, a10, 0, 16
    5f49:	0008e0        	excw
    5f4c:	ff8106        	j	0x5d54
    5f4f:	1721b2        	l32i	a11, a1, 92
    5f52:	1121a2        	l32i	a10, a1, 68
    5f55:	400b00        	ssr	a11
    5f58:	91a0a0        	srl	a10, a10
    5f5b:	ffa2c6        	j	0x5dea
    5f5e:	360000        	excw
    5f61:	c10041        	l32r	a4, 0xffff6364
    5f64:	168471        	l32r	a7, 0xfffcb974
    5f67:	b10512        	l8ui	a1, a5, 177
    5f6a:	5e          	.byte 0x5e
    5f6b:	050c84        	excw
    5f6e:	f62b62        	l32i	a6, a11, 0x3d8
    5f71:	84c391        	l32r	a9, 0xfffe7280
    5f74:	d6bc      	beqz.n	a6, 0x5fb5
    5f76:	9a0c      	movi.n	a10, 9
    5f78:	84dd81        	l32r	a8, 0xfffe72ec
    5f7b:	2a1992        	l16ui	a9, a9, 84
    5f7e:	d8a172        	movi	a7, 0x1d8
    5f81:	fec992        	addi	a9, a9, -2
    5f84:	c17570        	mul16u	a7, a5, a7
    5f87:	551b      	addi.n	a5, a5, 1
    5f89:	787a      	add.n	a7, a8, a7
    5f8b:	700722        	l8ui	a2, a7, 112
    5f8e:	745050        	extui	a5, a5, 0, 8
    5f91:	143226        	beqi	a2, 3, 0x5fa9
    5f94:	1112a7        	beq	a2, a10, 0x5fa9
    5f97:	0e2226        	beqi	a2, 2, 0x5fa9
    5f9a:	0b7226        	beqi	a2, 7, 0x5fa9
    5f9d:	086226        	beqi	a2, 6, 0x5fa9
    5fa0:	051226        	beqi	a2, 1, 0x5fa9
    5fa3:	024226        	beqi	a2, 4, 0x5fa9
    5fa6:	055266        	bnei	a2, 5, 0x5faf
    5fa9:	904792        	s8i	a9, a7, 144
    5fac:	f62b62        	l32i	a6, a11, 0x3d8
    5faf:	d8a172        	movi	a7, 0x1d8
    5fb2:	ce3567        	bltu	a5, a6, 0x5f84
    5fb5:	120c      	movi.n	a2, 1
    5fb7:	bc29      	s32i.n	a2, a12, 44
    5fb9:	f01d      	excw
    5fbb:	020c      	movi.n	a2, 0
    5fbd:	fffd86        	j	0x5fb7
    5fc0:	00a136        	excw
    5fc3:	74b040        	extui	a11, a4, 0, 8
    5fc6:	74c050        	extui	a12, a5, 0, 8
    5fc9:	74a060        	extui	a10, a6, 0, 8
    5fcc:	749070        	extui	a9, a7, 0, 8
    5fcf:	03dd      	mov.n	a13, a3
    5fd1:	743020        	extui	a3, a2, 0, 8
    5fd4:	73dc      	bnez.n	a3, 0x5fef
    5fd6:	51d9      	s32i.n	a13, a1, 20
    5fd8:	61b9      	s32i.n	a11, a1, 24
    5fda:	71c9      	s32i.n	a12, a1, 28
    5fdc:	81a9      	s32i.n	a10, a1, 32
    5fde:	842a81        	l32r	a8, 0xfffe7088
    5fe1:	b04330        	addx8	a4, a3, a3
    5fe4:	a04480        	addx4	a4, a4, a8
    5fe7:	641482        	l16ui	a8, a4, 200
    5fea:	9199      	s32i.n	a9, a1, 36
    5fec:	03e807        	bbsi	a8, 0, 0x5ff3
    5fef:	320c      	movi.n	a2, 3
    5ff1:	f01d      	excw
    5ff3:	097d      	mov.n	a7, a9
    5ff5:	8168      	l32i.n	a6, a1, 32
    5ff7:	7158      	l32i.n	a5, a1, 28
    5ff9:	6128      	l32i.n	a2, a1, 24
    5ffb:	84dea1        	l32r	a10, 0xfffe7374
    5ffe:	0b0c      	movi.n	a11, 0
    6000:	c4a0c2        	movi	a12, 196
    6003:	05be25        	excw
    6006:	03e690        	rsr.ps	a9
    6009:	2b0c      	movi.n	a11, 2
    600b:	34a090        	extui	a10, a9, 0, 4
    600e:	022ba7        	blt	a11, a10, 0x6014
    6011:	006290        	rsil	a9, 2
    6014:	842981        	l32r	a8, 0xfffe70b8
    6017:	4199      	s32i.n	a9, a1, 16
    6019:	382882        	l32i	a8, a8, 224
    601c:	ce04a2        	l8ui	a10, a4, 206
    601f:	0008e0        	excw
    6022:	02bd      	mov.n	a11, a2
    6024:	06dd      	mov.n	a13, a6
    6026:	07ed      	mov.n	a14, a7
    6028:	5001f2        	l8ui	a15, a1, 80
    602b:	5c0192        	l8ui	a9, a1, 92
    602e:	05cd      	mov.n	a12, a5
    6030:	2c11a2        	l16ui	a10, a1, 88
    6033:	11a9      	s32i.n	a10, a1, 4
    6035:	2a1152        	l16ui	a5, a1, 84
    6038:	0159      	s32i.n	a5, a1, 0
    603a:	841951        	l32r	a5, 0xfffe70a0
    603d:	2199      	s32i.n	a9, a1, 8
    603f:	502582        	l32i	a8, a5, 0x140
    6042:	03ad      	mov.n	a10, a3
    6044:	0008e0        	excw
    6047:	0a2d      	mov.n	a2, a10
    6049:	7aec      	bnez.n	a10, 0x6074
    604b:	03ad      	mov.n	a10, a3
    604d:	6001b2        	l8ui	a11, a1, 96
    6050:	532582        	l32i	a8, a5, 0x14c
    6053:	d8a1f2        	movi	a15, 0x1d8
    6056:	e004e2        	l8ui	a14, a4, 224
    6059:	845ad1        	l32r	a13, 0xfffe71c4
    605c:	c1eef0        	mul16u	a14, a14, a15
    605f:	51f8      	l32i.n	a15, a1, 20
    6061:	e244f2        	s8i	a15, a4, 226
    6064:	ddea      	add.n	a13, a13, a14
    6066:	7f2dc2        	l32i	a12, a13, 0x1fc
    6069:	0e4c      	movi.n	a14, 64
    606b:	20cce0        	or	a12, a12, a14
    606e:	7f6dc2        	s32i	a12, a13, 0x1fc
    6071:	0008e0        	excw
    6074:	842ca1        	l32r	a10, 0xfffe7124
    6077:	340a82        	l8ui	a8, a10, 52
    607a:	238800        	excw
    607d:	980b      	addi.n	a9, a8, -1
    607f:	344a92        	s8i	a9, a10, 52
    6082:	0718e6        	bgei	a8, 1, 0x608d
    6085:	845ca1        	l32r	a10, 0xfffe71f8
    6088:	0b0c      	movi.n	a11, 0
    608a:	b178a5        	excw
    608d:	849f91        	l32r	a9, 0xfffe730c
    6090:	f22992        	l32i	a9, a9, 0x3c8
    6093:	090992        	l8ui	a9, a9, 9
    6096:	093966        	bnei	a9, 3, 0x60a3
    6099:	1a0c      	movi.n	a10, 1
    609b:	0218a5        	excw
    609e:	1a0c      	movi.n	a10, 1
    60a0:	ffebe5        	excw
    60a3:	41a8      	l32i.n	a10, a1, 16
    60a5:	13e6a0        	wsr.ps	a10
    60a8:	002010        	rsync
    60ab:	f01d      	excw
    60ad:	000000        	ill
    60b0:	004136        	excw
    60b3:	743020        	extui	a3, a2, 0, 8
    60b6:	a39c      	beqz.n	a3, 0x60d4
    60b8:	320c      	movi.n	a2, 3
    60ba:	f01d      	excw
    60bc:	841981        	l32r	a8, 0xfffe7120
    60bf:	03ad      	mov.n	a10, a3
    60c1:	5b2882        	l32i	a8, a8, 0x16c
    60c4:	ce0cb2        	l8ui	a11, a12, 206
    60c7:	0008e0        	excw
    60ca:	13e620        	wsr.ps	a2
    60cd:	002010        	rsync
    60d0:	020c      	movi.n	a2, 0
    60d2:	f01d      	excw
    60d4:	03e620        	rsr.ps	a2
    60d7:	2b0c      	movi.n	a11, 2
    60d9:	34a020        	extui	a10, a2, 0, 4
    60dc:	022ba7        	blt	a11, a10, 0x60e2
    60df:	006220        	rsil	a2, 2
    60e2:	849f91        	l32r	a9, 0xfffe7360
    60e5:	f22992        	l32i	a9, a9, 0x3c8
    60e8:	090992        	l8ui	a9, a9, 9
    60eb:	093966        	bnei	a9, 3, 0x60f8
    60ee:	0a0c      	movi.n	a10, 0
    60f0:	021325        	excw
    60f3:	0a0c      	movi.n	a10, 0
    60f5:	ffe6a5        	excw
    60f8:	842ad1        	l32r	a13, 0xfffe71a0
    60fb:	b0c330        	addx8	a12, a3, a3
    60fe:	a0ccd0        	addx4	a12, a12, a13
    6101:	641c92        	l16ui	a9, a12, 200
    6104:	0e2c      	movi.n	a14, 32
    6106:	b26907        	bbci	a9, 0, 0x60bc
    6109:	20e9e0        	or	a14, a9, a14
    610c:	645ce2        	s16i	a14, a12, 200
    610f:	ffedc6        	j	0x60ca
    6112:	360000        	excw
    6115:	c10041        	l32r	a4, 0xffff6518
    6118:	0b8471        	l32r	a7, 0xfffc8f28
    611b:	bc88a3        	excw
    611e:	890c      	movi.n	a9, 8
    6120:	588c      	beqz.n	a8, 0x6129
    6122:	720c      	movi.n	a2, 7
    6124:	9329a0        	movnez	a2, a9, a10
    6127:	f01d      	excw
    6129:	02ad      	mov.n	a10, a2
    612b:	cc88      	l32i.n	a8, a12, 48
    612d:	03bd      	mov.n	a11, a3
    612f:	0008e0        	excw
    6132:	0a2d      	mov.n	a2, a10
    6134:	f01d      	excw
    6136:	360000        	excw
    6139:	d10041        	l32r	a4, 0xffffa53c
    613c:	888471        	l32r	a7, 0xfffe834c
    613f:	8cbd      	excw
    6141:	2688      	l32i.n	a8, a6, 8
    6143:	261513        	excw
    6146:	0c1233        	excw
    6149:	f01d82        	l16ui	a8, a13, 0x1e0
    614c:	02ad      	mov.n	a10, a2
    614e:	03bd      	mov.n	a11, a3
    6150:	dd88      	l32i.n	a8, a13, 52
    6152:	04cd      	mov.n	a12, a4
    6154:	0008e0        	excw
    6157:	0a2d      	mov.n	a2, a10
    6159:	f01d      	excw
    615b:	720c      	movi.n	a2, 7
    615d:	f01d      	excw
    615f:	813600        	src	a3, a6, a0
    6162:	079d00        	excw
    6165:	f45050        	extui	a5, a5, 0, 16
    6168:	f48040        	extui	a8, a4, 0, 16
    616b:	4189      	s32i.n	a8, a1, 16
    616d:	1159      	s32i.n	a5, a1, 4
    616f:	0199      	s32i.n	a9, a1, 0
    6171:	747020        	extui	a7, a2, 0, 8
    6174:	f44060        	extui	a4, a6, 0, 16
    6177:	2149      	s32i.n	a4, a1, 8
    6179:	f42030        	extui	a2, a3, 0, 16
    617c:	3129      	s32i.n	a2, a1, 12
    617e:	076207        	bbci	a2, 0, 0x6189
    6181:	845ca1        	l32r	a10, 0xfffe72f4
    6184:	0b0c      	movi.n	a11, 0
    6186:	b168e5        	excw
    6189:	4128      	l32i.n	a2, a1, 16
    618b:	01e207        	bbsi	a2, 0, 0x6190
    618e:	62cc      	bnez.n	a2, 0x6198
    6190:	845ca1        	l32r	a10, 0xfffe7300
    6193:	0b0c      	movi.n	a11, 0
    6195:	b167e5        	excw
    6198:	3198      	l32i.n	a9, a1, 12
    619a:	073927        	bltu	a9, a2, 0x61a5
    619d:	845ca1        	l32r	a10, 0xfffe7310
    61a0:	0b0c      	movi.n	a11, 0
    61a2:	b16725        	excw
    61a5:	842941        	l32r	a4, 0xfffe724c
    61a8:	03e650        	rsr.ps	a5
    61ab:	2a0c      	movi.n	a10, 2
    61ad:	349050        	extui	a9, a5, 0, 4
    61b0:	022a97        	blt	a10, a9, 0x61b6
    61b3:	006250        	rsil	a5, 2
    61b6:	382482        	l32i	a8, a4, 224
    61b9:	07ad      	mov.n	a10, a7
    61bb:	0008e0        	excw
    61be:	84df31        	l32r	a3, 0xfffe753c
    61c1:	d8a182        	movi	a8, 0x1d8
    61c4:	c18780        	mul16u	a8, a7, a8
    61c7:	338a      	add.n	a3, a3, a8
    61c9:	1a23b2        	l32i	a11, a3, 104
    61cc:	0198      	l32i.n	a9, a1, 0
    61ce:	026b07        	bbci	a11, 0, 0x61d4
    61d1:	0a3916        	beqz	a9, 0x6278
    61d4:	841961        	l32r	a6, 0xfffe7238
    61d7:	812682        	l32i	a8, a6, 0x204
    61da:	07ad      	mov.n	a10, a7
    61dc:	0008e0        	excw
    61df:	02bd      	mov.n	a11, a2
    61e1:	285322        	s16i	a2, a3, 80
    61e4:	4001d2        	l8ui	a13, a1, 64
    61e7:	07ad      	mov.n	a10, a7
    61e9:	2198      	l32i.n	a9, a1, 8
    61eb:	ffa3f2        	movi	a15, 0x3ff
    61ee:	11e8      	l32i.n	a14, a1, 4
    61f0:	ffa082        	movi	a8, 255
    61f3:	31c8      	l32i.n	a12, a1, 12
    61f5:	2953c2        	s16i	a12, a3, 82
    61f8:	ae4382        	s8i	a8, a3, 174
    61fb:	63eef0        	excw
    61fe:	639980        	excw
    6201:	2b5392        	s16i	a9, a3, 86
    6204:	2a53e2        	s16i	a14, a3, 84
    6207:	112482        	l32i	a8, a4, 68
    620a:	fe7c      	movi.n	a14, -1
    620c:	0008e0        	excw
    620f:	01c8      	l32i.n	a12, a1, 0
    6211:	0abd      	mov.n	a11, a10
    6213:	802682        	l32i	a8, a6, 0x200
    6216:	07ad      	mov.n	a10, a7
    6218:	0008e0        	excw
    621b:	0198      	l32i.n	a9, a1, 0
    621d:	1a23a2        	l32i	a10, a3, 104
    6220:	054916        	beqz	a9, 0x6278
    6223:	1b0c      	movi.n	a11, 1
    6225:	20aab0        	or	a10, a10, a11
    6228:	f62482        	l32i	a8, a4, 0x3d8
    622b:	290c      	movi.n	a9, 2
    622d:	209a90        	or	a9, a10, a9
    6230:	1a6392        	s32i	a9, a3, 104
    6233:	0008e0        	excw
    6236:	84e0a1        	l32r	a10, 0xfffe75b8
    6239:	84a091        	l32r	a9, 0xfffe74bc
    623c:	2aa8      	l32i.n	a10, a10, 8
    623e:	b20992        	l8ui	a9, a9, 178
    6241:	14a0a0        	extui	a10, a10, 0, 2
    6244:	dacc      	bnez.n	a10, 0x6255
    6246:	0b6907        	bbci	a9, 0, 0x6255
    6249:	026977        	bbci	a9, 7, 0x624f
    624c:	056967        	bbci	a9, 6, 0x6255
    624f:	fe2482        	l32i	a8, a4, 0x3f8
    6252:	0008e0        	excw
    6255:	842cb1        	l32r	a11, 0xfffe7308
    6258:	340b92        	l8ui	a9, a11, 52
    625b:	239900        	excw
    625e:	a90b      	addi.n	a10, a9, -1
    6260:	344ba2        	s8i	a10, a11, 52
    6263:	0719e6        	bgei	a9, 1, 0x626e
    6266:	845ca1        	l32r	a10, 0xfffe73d8
    6269:	0b0c      	movi.n	a11, 0
    626b:	b15aa5        	excw
    626e:	13e650        	wsr.ps	a5
    6271:	002010        	rsync
    6274:	020c      	movi.n	a2, 0
    6276:	f01d      	excw
    6278:	8481a1        	l32r	a10, 0xfffe747c
    627b:	300ab2        	l8ui	a11, a10, 48
    627e:	049b77        	bne	a11, a7, 0x6286
    6281:	0c0c      	movi.n	a12, 0
    6283:	3b4ac2        	s8i	a12, a10, 59
    6286:	07ad      	mov.n	a10, a7
    6288:	6d2482        	l32i	a8, a4, 0x1b4
    628b:	db0c      	movi.n	a11, 13
    628d:	0008e0        	excw
    6290:	1a23a2        	l32i	a10, a3, 104
    6293:	eb7c      	movi.n	a11, -2
    6295:	10aab0        	and	a10, a10, a11
    6298:	ffe306        	j	0x6228
    629b:	413600        	srli	a3, a0, 6
    629e:	025200        	excw
    62a1:	12a204        	excw
    62a4:	c5ec07        	bbsi	a12, 0, 0x626d
    62a7:	180c      	movi.n	a8, 1
    62a9:	090c      	movi.n	a9, 0
    62ab:	d4bc      	beqz.n	a4, 0x62ec
    62ad:	015232        	s16i	a3, a2, 2
    62b0:	2229      	s32i.n	a2, a2, 8
    62b2:	035232        	s16i	a3, a2, 6
    62b5:	044282        	s8i	a8, a2, 4
    62b8:	065292        	s16i	a9, a2, 12
    62bb:	075292        	s16i	a9, a2, 14
    62be:	085292        	s16i	a9, a2, 16
    62c1:	095292        	s16i	a9, a2, 18
    62c4:	0a5292        	s16i	a9, a2, 20
    62c7:	1a4292        	s8i	a9, a2, 26
    62ca:	1b4292        	s8i	a9, a2, 27
    62cd:	604292        	s8i	a9, a2, 96
    62d0:	614292        	s8i	a9, a2, 97
    62d3:	f01d      	excw
    62d5:	1adc      	bnez.n	a10, 0x62ea
    62d7:	0612b2        	l16ui	a11, a2, 12
    62da:	cbcc      	bnez.n	a11, 0x62ea
    62dc:	649c      	beqz.n	a4, 0x62f6
    62de:	075232        	s16i	a3, a2, 14
    62e1:	035232        	s16i	a3, a2, 6
    62e4:	32cb      	addi.n	a3, a2, 12
    62e6:	2239      	s32i.n	a3, a2, 8
    62e8:	f01d      	excw
    62ea:	f01d      	excw
    62ec:	005232        	s16i	a3, a2, 0
    62ef:	c22b      	addi.n	a12, a2, 2
    62f1:	22c9      	s32i.n	a12, a2, 8
    62f3:	ffeec6        	j	0x62b2
    62f6:	065232        	s16i	a3, a2, 12
    62f9:	035232        	s16i	a3, a2, 6
    62fc:	32eb      	addi.n	a3, a2, 14
    62fe:	fff906        	j	0x62e6
    6301:	000000        	ill
    6304:	004136        	excw
    6307:	031262        	l16ui	a6, a2, 6
    630a:	1c9647        	bne	a6, a4, 0x632a
    630d:	459c      	beqz.n	a5, 0x6325
    630f:	171526        	beqi	a5, 1, 0x632a
    6312:	1455e6        	bgei	a5, 5, 0x632a
    6315:	1125a6        	blti	a5, 2, 0x632a
    6318:	080c      	movi.n	a8, 0
    631a:	015282        	s16i	a8, a2, 2
    631d:	005282        	s16i	a8, a2, 0
    6320:	044282        	s8i	a8, a2, 4
    6323:	f01d      	excw
    6325:	2298      	l32i.n	a9, a2, 8
    6327:	005932        	s16i	a3, a9, 0
    632a:	f01d      	excw
    632c:	004136        	excw
    632f:	070c      	movi.n	a7, 0
    6331:	648c      	beqz.n	a4, 0x633b
    6333:	011252        	l16ui	a5, a2, 2
    6336:	071537        	beq	a5, a3, 0x6341
    6339:	74dc      	bnez.n	a4, 0x6354
    633b:	001262        	l16ui	a6, a2, 0
    633e:	109637        	bne	a6, a3, 0x6352
    6341:	075272        	s16i	a7, a2, 14
    6344:	065272        	s16i	a7, a2, 12
    6347:	015272        	s16i	a7, a2, 2
    634a:	005272        	s16i	a7, a2, 0
    634d:	044272        	s8i	a7, a2, 4
    6350:	f01d      	excw
    6352:	648c      	beqz.n	a4, 0x635c
    6354:	071282        	l16ui	a8, a2, 14
    6357:	071837        	beq	a8, a3, 0x6362
    635a:	a4cc      	bnez.n	a4, 0x6368
    635c:	061292        	l16ui	a9, a2, 12
    635f:	059937        	bne	a9, a3, 0x6368
    6362:	075272        	s16i	a7, a2, 14
    6365:	065272        	s16i	a7, a2, 12
    6368:	f01d      	excw
    636a:	360000        	excw
    636d:	420041        	l32r	a4, 0xfffd6b70
    6370:	320403        	excw
    6373:	400503        	excw
    6376:	661440        	excw
    6379:	301224        	excw
    637c:	265430        	excw
    637f:	0c0c63        	excw
    6382:	732606        	j	0x2301e
    6385:	0c09      	s32i.n	a0, a12, 0
    6387:	2437a4        	excw
    638a:	83e602        	excw
    638d:	f01d12        	l16ui	a1, a13, 0x1e0
    6390:	604262        	s8i	a6, a2, 96
    6393:	614262        	s8i	a6, a2, 97
    6396:	624262        	s8i	a6, a2, 98
    6399:	634262        	s8i	a6, a2, 99
    639c:	195262        	s16i	a6, a2, 50
    639f:	160c      	movi.n	a6, 1
    63a1:	1a4262        	s8i	a6, a2, 26
    63a4:	f01d      	excw
    63a6:	360000        	excw
    63a9:	720041        	l32r	a4, 0xfffe2bac
    63ac:	520002        	l8ui	a0, a0, 82
    63af:	50f0a0        	rdtlb1	a10, a0
    63b2:	661057        	beq	a0, a5, 0x641c
    63b5:	0c04e5        	excw
    63b8:	0677f6        	bgeui	a7, 7, 0x63c2
    63bb:	030c06        	j	0x6fef
    63be:	004432        	s8i	a3, a4, 0
    63c1:	f01d      	excw
    63c3:	020282        	l8ui	a8, a2, 2
    63c6:	030252        	l8ui	a5, a2, 3
    63c9:	118880        	slli	a8, a8, 8
    63cc:	558a      	add.n	a5, a5, a8
    63ce:	005352        	s16i	a5, a3, 0
    63d1:	0c0232        	l8ui	a3, a2, 12
    63d4:	22db      	addi.n	a2, a2, 13
    63d6:	343030        	extui	a3, a3, 0, 4
    63d9:	fff846        	j	0x63be
    63dc:	004136        	excw
    63df:	000252        	l8ui	a5, a2, 0
    63e2:	9ca062        	movi	a6, 156
    63e5:	259567        	bne	a5, a6, 0x640e
    63e8:	890c      	movi.n	a9, 8
    63ea:	470c      	movi.n	a7, 4
    63ec:	0102a2        	l8ui	a10, a2, 1
    63ef:	480c      	movi.n	a8, 4
    63f1:	1426a0        	extui	a2, a10, 6, 2
    63f4:	1464a0        	extui	a6, a10, 4, 2
    63f7:	a06680        	addx4	a6, a6, a8
    63fa:	746060        	extui	a6, a6, 0, 8
    63fd:	04a0a0        	extui	a10, a10, 0, 1
    6400:	9379a0        	movnez	a7, a9, a10
    6403:	e29c      	beqz.n	a2, 0x6425
    6405:	221226        	beqi	a2, 1, 0x642b
    6408:	252226        	beqi	a2, 2, 0x6431
    640b:	033226        	beqi	a2, 3, 0x6412
    640e:	020c      	movi.n	a2, 0
    6410:	f01d      	excw
    6412:	84e121        	l32r	a2, 0xfffe7798
    6415:	005422        	s16i	a2, a4, 0
    6418:	74b070        	extui	a11, a7, 0, 8
    641b:	120c      	movi.n	a2, 1
    641d:	c1b6b0        	mul16u	a11, a6, a11
    6420:	0053b2        	s16i	a11, a3, 0
    6423:	f01d      	excw
    6425:	84e221        	l32r	a2, 0xfffe77b0
    6428:	fffa46        	j	0x6415
    642b:	84e321        	l32r	a2, 0xfffe77b8
    642e:	fff8c6        	j	0x6415
    6431:	84e421        	l32r	a2, 0xfffe77c4
    6434:	fff746        	j	0x6415
    6437:	413600        	srli	a3, a0, 6
    643a:	050c00        	extui	a0, a0, 28, 1
    643d:	040c      	movi.n	a4, 0
    643f:	930c      	movi.n	a3, 9
    6441:	195242        	s16i	a4, a2, 50
    6444:	422b      	addi.n	a4, a2, 2
    6446:	09a376        	excw
    6449:	0f1482        	l16ui	a8, a4, 30
    644c:	442b      	addi.n	a4, a4, 2
    644e:	585a      	add.n	a5, a8, a5
    6450:	195252        	s16i	a5, a2, 50
    6453:	f01d      	excw
    6455:	000000        	ill
    6458:	004136        	excw
    645b:	620282        	l8ui	a8, a2, 98
    645e:	6102c2        	l8ui	a12, a2, 97
    6461:	521866        	bnei	a8, 1, 0x64b7
    6464:	0f0c      	movi.n	a15, 0
    6466:	6002e2        	l8ui	a14, a2, 96
    6469:	6102d2        	l8ui	a13, a2, 97
    646c:	f7ce82        	addi	a8, a14, -9
    646f:	a0dd20        	addx4	a13, a13, a2
    6472:	ee1b      	addi.n	a14, a14, 1
    6474:	83ef80        	moveqz	a14, a15, a8
    6477:	6042e2        	s8i	a14, a2, 96
    647a:	ed39      	s32i.n	a3, a13, 56
    647c:	6102d2        	l8ui	a13, a2, 97
    647f:	0e12c2        	l16ui	a12, a2, 28
    6482:	90dd20        	addx2	a13, a13, a2
    6485:	c1c4c0        	mul16u	a12, a4, a12
    6488:	0f5dc2        	s16i	a12, a13, 30
    648b:	1912c2        	l16ui	a12, a2, 50
    648e:	6002b2        	l8ui	a11, a2, 96
    6491:	610292        	l8ui	a9, a2, 97
    6494:	90bb20        	addx2	a11, a11, a2
    6497:	90a920        	addx2	a10, a9, a2
    649a:	0f1aa2        	l16ui	a10, a10, 30
    649d:	0f1bb2        	l16ui	a11, a11, 30
    64a0:	aaca      	add.n	a10, a10, a12
    64a2:	c0aab0        	sub	a10, a10, a11
    64a5:	1952a2        	s16i	a10, a2, 50
    64a8:	f7c9b2        	addi	a11, a9, -9
    64ab:	0a0c      	movi.n	a10, 0
    64ad:	991b      	addi.n	a9, a9, 1
    64af:	839ab0        	moveqz	a9, a10, a11
    64b2:	614292        	s8i	a9, a2, 97
    64b5:	f01d      	excw
    64b7:	090c      	movi.n	a9, 0
    64b9:	a0cc20        	addx4	a12, a12, a2
    64bc:	ec39      	s32i.n	a3, a12, 56
    64be:	6102b2        	l8ui	a11, a2, 97
    64c1:	0e12a2        	l16ui	a10, a2, 28
    64c4:	90bb20        	addx2	a11, a11, a2
    64c7:	c1a4a0        	mul16u	a10, a4, a10
    64ca:	0f5ba2        	s16i	a10, a11, 30
    64cd:	610282        	l8ui	a8, a2, 97
    64d0:	6002f2        	l8ui	a15, a2, 96
    64d3:	f7c8a2        	addi	a10, a8, -9
    64d6:	881b      	addi.n	a8, a8, 1
    64d8:	8389a0        	moveqz	a8, a9, a10
    64db:	614282        	s8i	a8, a2, 97
    64de:	748080        	extui	a8, a8, 0, 8
    64e1:	099f87        	bne	a15, a8, 0x64ee
    64e4:	02ad      	mov.n	a10, a2
    64e6:	fff525        	excw
    64e9:	1d0c      	movi.n	a13, 1
    64eb:	6242d2        	s8i	a13, a2, 98
    64ee:	f01d      	excw
    64f0:	004136        	excw
    64f3:	620252        	l8ui	a5, a2, 98
    64f6:	031526        	beqi	a5, 1, 0x64fd
    64f9:	020c      	movi.n	a2, 0
    64fb:	f01d      	excw
    64fd:	170c      	movi.n	a7, 1
    64ff:	600282        	l8ui	a8, a2, 96
    6502:	1912b2        	l16ui	a11, a2, 50
    6505:	a08820        	addx4	a8, a8, a2
    6508:	e888      	l32i.n	a8, a8, 56
    650a:	90a1a2        	movi	a10, 0x190
    650d:	c03380        	sub	a3, a3, a8
    6510:	0043d6        	bgez	a3, 0x6518
    6513:	84e591        	l32r	a9, 0xfffe78a8
    6516:	339a      	add.n	a3, a3, a9
    6518:	c0b3b0        	sub	a11, a3, a11
    651b:	04b9      	s32i.n	a11, a4, 0
    651d:	012ab7        	blt	a10, a11, 0x6522
    6520:	070c      	movi.n	a7, 0
    6522:	072d      	mov.n	a2, a7
    6524:	f01d      	excw
    6526:	360000        	excw
    6529:	cc0041        	l32r	a4, 0xffff952c
    652c:	020c26        	beqi	a12, -1, 0x6532
    652f:	f01d      	excw
    6531:	630292        	l8ui	a9, a2, 99
    6534:	1c0c      	movi.n	a12, 1
    6536:	89dc      	bnez.n	a9, 0x6552
    6538:	0a5232        	s16i	a3, a2, 20
    653b:	0b5242        	s16i	a4, a2, 22
    653e:	0c5252        	s16i	a5, a2, 24
    6541:	6342c2        	s8i	a12, a2, 99
    6544:	180c      	movi.n	a8, 1
    6546:	1b0292        	l8ui	a9, a2, 27
    6549:	020c      	movi.n	a2, 0
    654b:	990b      	addi.n	a9, a9, -1
    654d:	832890        	moveqz	a2, a8, a9
    6550:	f01d      	excw
    6552:	ee1966        	bnei	a9, 1, 0x6544
    6555:	0b12a2        	l16ui	a10, a2, 22
    6558:	0c12b2        	l16ui	a11, a2, 24
    655b:	229a47        	bne	a10, a4, 0x6581
    655e:	1f9b57        	bne	a11, a5, 0x6581
    6561:	0a12d2        	l16ui	a13, a2, 20
    6564:	dd1b      	addi.n	a13, a13, 1
    6566:	f4d0d0        	extui	a13, a13, 0, 16
    6569:	4d9c      	beqz.n	a13, 0x6581
    656b:	05bd      	mov.n	a11, a5
    656d:	84e6a1        	l32r	a10, 0xfffe7908
    6570:	1b42c2        	s8i	a12, a2, 27
    6573:	c1a4a0        	mul16u	a10, a4, a10
    6576:	053ce5        	excw
    6579:	0e52a2        	s16i	a10, a2, 28
    657c:	2c0c      	movi.n	a12, 2
    657e:	ffefc6        	j	0x6541
    6581:	0c0c      	movi.n	a12, 0
    6583:	ffee86        	j	0x6541
    6586:	360000        	excw
    6589:	0c0061        	l32r	a6, 0xfffc958c
    658c:	9209      	s32i.n	a0, a2, 36
    658e:	920351        	l32r	a5, 0xfffead9c
    6591:	920251        	l32r	a5, 0xfffead9c
    6594:	920151        	l32r	a5, 0xfffead98
    6597:	820041        	l32r	a4, 0xfffe6d98
    659a:	161a02        	l16ui	a0, a10, 44
    659d:	0508      	l32i.n	a0, a5, 0
    659f:	0003b2        	l8ui	a11, a3, 0
    65a2:	0103c2        	l8ui	a12, a3, 1
    65a5:	fcc4a2        	addi	a10, a4, -4
    65a8:	11cc80        	slli	a12, a12, 8
    65ab:	0852a2        	s16i	a10, a2, 16
    65ae:	bbca      	add.n	a11, a11, a12
    65b0:	a34b      	addi.n	a10, a3, 4
    65b2:	0952b2        	s16i	a11, a2, 18
    65b5:	01cd      	mov.n	a12, a1
    65b7:	b12b      	addi.n	a11, a1, 2
    65b9:	ffdee5        	excw
    65bc:	0001c2        	l8ui	a12, a1, 0
    65bf:	dcac      	beqz.n	a12, 0x65f0
    65c1:	1b0292        	l8ui	a9, a2, 27
    65c4:	211926        	beqi	a9, 1, 0x65e9
    65c7:	59ec      	bnez.n	a9, 0x65f0
    65c9:	b14b      	addi.n	a11, a1, 4
    65cb:	c16b      	addi.n	a12, a1, 6
    65cd:	ffe0e5        	excw
    65d0:	1c1a66        	bnei	a10, 1, 0x65f0
    65d3:	05ed      	mov.n	a14, a5
    65d5:	02ad      	mov.n	a10, a2
    65d7:	0111b2        	l16ui	a11, a1, 2
    65da:	0211c2        	l16ui	a12, a1, 4
    65dd:	0311d2        	l16ui	a13, a1, 6
    65e0:	fff465        	excw
    65e3:	091a66        	bnei	a10, 1, 0x65f0
    65e6:	0001c2        	l8ui	a12, a1, 0
    65e9:	02ad      	mov.n	a10, a2
    65eb:	06bd      	mov.n	a11, a6
    65ed:	ffe6a5        	excw
    65f0:	f01d      	excw
    65f2:	360000        	excw
    65f5:	320041        	l32r	a4, 0xfffd2df8
    65f8:	621a02        	l16ui	a0, a10, 196
    65fb:	8c0912        	l8ui	a1, a9, 140
    65fe:	468c63        	excw
    6601:	081272        	l16ui	a7, a2, 16
    6604:	019677        	bne	a6, a7, 0x6609
    6607:	f01d      	excw
    6609:	847a      	add.n	a8, a4, a7
    660b:	085282        	s16i	a8, a2, 16
    660e:	f01d      	excw
    6610:	004136        	excw
    6613:	b4bc      	beqz.n	a4, 0x6652
    6615:	0303b2        	l8ui	a11, a3, 3
    6618:	0203a2        	l8ui	a10, a3, 2
    661b:	11bb80        	slli	a11, a11, 8
    661e:	aaba      	add.n	a10, a10, a11
    6620:	f4a0a0        	extui	a10, a10, 0, 16
    6623:	668c      	beqz.n	a6, 0x662d
    6625:	0012c2        	l16ui	a12, a2, 0
    6628:	351ca7        	beq	a12, a10, 0x6661
    662b:	66cc      	bnez.n	a6, 0x6635
    662d:	0112d2        	l16ui	a13, a2, 2
    6630:	2d1da7        	beq	a13, a10, 0x6661
    6633:	668c      	beqz.n	a6, 0x663d
    6635:	0612e2        	l16ui	a14, a2, 12
    6638:	071ea7        	beq	a14, a10, 0x6643
    663b:	06ec      	bnez.n	a6, 0x665f
    663d:	0712f2        	l16ui	a15, a2, 14
    6640:	1b9fa7        	bne	a15, a10, 0x665f
    6643:	02ad      	mov.n	a10, a2
    6645:	03bd      	mov.n	a11, a3
    6647:	05cd      	mov.n	a12, a5
    6649:	06dd      	mov.n	a13, a6
    664b:	07ed      	mov.n	a14, a7
    664d:	fff3a5        	excw
    6650:	f01d      	excw
    6652:	02ad      	mov.n	a10, a2
    6654:	03bd      	mov.n	a11, a3
    6656:	05cd      	mov.n	a12, a5
    6658:	06dd      	mov.n	a13, a6
    665a:	07ed      	mov.n	a14, a7
    665c:	fff965        	excw
    665f:	f01d      	excw
    6661:	02ad      	mov.n	a10, a2
    6663:	03bd      	mov.n	a11, a3
    6665:	05cd      	mov.n	a12, a5
    6667:	06dd      	mov.n	a13, a6
    6669:	ffd025        	excw
    666c:	f01d      	excw
    666e:	360000        	excw
    6671:	200061        	l32r	a6, 0xfffce674
    6674:	30f4d0        	xor	a15, a4, a13
    6677:	50f4b0        	rdtlb1	a11, a4
    667a:	607470        	excw
    667d:	f174c0        	excw
    6680:	a184e7        	bany	a4, a14, 0x6625
    6683:	e88471        	l32r	a7, 0x894 (0x656d)
    6686:	0f          	.byte 0xf
    6687:	38caa2        	addi	a10, a10, 56
    668a:	040e26        	beqi	a14, -1, 0x6692
    668d:	011ed7        	beq	a14, a13, 0x6692
    6690:	f01d      	excw
    6692:	e7bc      	beqz.n	a7, 0x66d4
    6694:	030482        	l8ui	a8, a4, 3
    6697:	0204f2        	l8ui	a15, a4, 2
    669a:	118880        	slli	a8, a8, 8
    669d:	ff8a      	add.n	a15, a15, a8
    669f:	311f66        	bnei	a15, 1, 0x66d4
    66a2:	040492        	l8ui	a9, a4, 4
    66a5:	622966        	bnei	a9, 2, 0x670b
    66a8:	01d9      	s32i.n	a13, a1, 0
    66aa:	0904b2        	l8ui	a11, a4, 9
    66ad:	080492        	l8ui	a9, a4, 8
    66b0:	11bb80        	slli	a11, a11, 8
    66b3:	99ba      	add.n	a9, a9, a11
    66b5:	9b1c      	movi.n	a11, 25
    66b7:	d599b7        	bne	a9, a11, 0x6690
    66ba:	0d2d      	mov.n	a2, a13
    66bc:	0b04d2        	l8ui	a13, a4, 11
    66bf:	0a04b2        	l8ui	a11, a4, 10
    66c2:	11dd80        	slli	a13, a13, 8
    66c5:	bbda      	add.n	a11, a11, a13
    66c7:	f4b0b0        	extui	a11, a11, 0, 16
    66ca:	ffbd25        	excw
    66cd:	84e7e1        	l32r	a14, 0xfffe7a6c
    66d0:	0e29      	s32i.n	a2, a14, 0
    66d2:	f01d      	excw
    66d4:	b89ed7        	bne	a14, a13, 0x6690
    66d7:	8471f1        	l32r	a15, 0xfffe789c
    66da:	11b9      	s32i.n	a11, a1, 4
    66dc:	3c0ff2        	l8ui	a15, a15, 60
    66df:	21c9      	s32i.n	a12, a1, 8
    66e1:	fabf16        	beqz	a15, 0x6690
    66e4:	0c5d      	mov.n	a5, a12
    66e6:	1138      	l32i.n	a3, a1, 4
    66e8:	84e821        	l32r	a2, 0xfffe7a88
    66eb:	03eaa0        	rsr.ccount	a10
    66ee:	84e9b1        	l32r	a11, 0xfffe7a94
    66f1:	052ba5        	excw
    66f4:	84e5b1        	l32r	a11, 0xfffe7a88
    66f7:	053065        	excw
    66fa:	04bd      	mov.n	a11, a4
    66fc:	07cd      	mov.n	a12, a7
    66fe:	03dd      	mov.n	a13, a3
    6700:	0afd      	mov.n	a15, a10
    6702:	05ed      	mov.n	a14, a5
    6704:	02ad      	mov.n	a10, a2
    6706:	fff0a5        	excw
    6709:	f01d      	excw
    670b:	2e3966        	bnei	a9, 3, 0x673d
    670e:	0804b2        	l8ui	a11, a4, 8
    6711:	0a04c2        	l8ui	a12, a4, 10
    6714:	0d04e2        	l8ui	a14, a4, 13
    6717:	0c04d2        	l8ui	a13, a4, 12
    671a:	11ee80        	slli	a14, a14, 8
    671d:	ddea      	add.n	a13, a13, a14
    671f:	0b04e2        	l8ui	a14, a4, 11
    6722:	f4d0d0        	extui	a13, a13, 0, 16
    6725:	11ee80        	slli	a14, a14, 8
    6728:	ccea      	add.n	a12, a12, a14
    672a:	0904e2        	l8ui	a14, a4, 9
    672d:	f4c0c0        	extui	a12, a12, 0, 16
    6730:	11ee80        	slli	a14, a14, 8
    6733:	bbea      	add.n	a11, a11, a14
    6735:	f4b0b0        	extui	a11, a11, 0, 16
    6738:	ffbca5        	excw
    673b:	f01d      	excw
    673d:	f9c9f2        	addi	a15, a9, -7
    6740:	f4cf56        	bnez	a15, 0x6690
    6743:	0904d2        	l8ui	a13, a4, 9
    6746:	0804b2        	l8ui	a11, a4, 8
    6749:	11dd80        	slli	a13, a13, 8
    674c:	bbda      	add.n	a11, a11, a13
    674e:	f4b0b0        	extui	a11, a11, 0, 16
    6751:	ffbda5        	excw
    6754:	847191        	l32r	a9, 0xfffe7918
    6757:	84e7f1        	l32r	a15, 0xfffe7af4
    675a:	3c0992        	l8ui	a9, a9, 60
    675d:	0fe8      	l32i.n	a14, a15, 0
    675f:	f87c      	movi.n	a8, -1
    6761:	83e890        	moveqz	a14, a8, a9
    6764:	0fe9      	s32i.n	a14, a15, 0
    6766:	f01d      	excw
    6768:	006136        	excw
    676b:	84e791        	l32r	a9, 0xfffe7b08
    676e:	f48020        	extui	a8, a2, 0, 16
    6771:	0928      	l32i.n	a2, a9, 0
    6773:	0c0c      	movi.n	a12, 0
    6775:	2b9287        	bne	a2, a8, 0x67a4
    6778:	847191        	l32r	a9, 0xfffe793c
    677b:	5209a2        	l8ui	a10, a9, 82
    677e:	5309b2        	l8ui	a11, a9, 83
    6781:	fa9c      	beqz.n	a10, 0x67a4
    6783:	db9c      	beqz.n	a11, 0x67a4
    6785:	01c9      	s32i.n	a12, a1, 0
    6787:	03eaa0        	rsr.ccount	a10
    678a:	84e9b1        	l32r	a11, 0xfffe7b30
    678d:	0521e5        	excw
    6790:	84e5b1        	l32r	a11, 0xfffe7b24
    6793:	0526a5        	excw
    6796:	01cd      	mov.n	a12, a1
    6798:	0abd      	mov.n	a11, a10
    679a:	84e8a1        	l32r	a10, 0xfffe7b3c
    679d:	ffd525        	excw
    67a0:	0a2d      	mov.n	a2, a10
    67a2:	f01d      	excw
    67a4:	020c      	movi.n	a2, 0
    67a6:	f01d      	excw
    67a8:	004136        	excw
    67ab:	160c      	movi.n	a6, 1
    67ad:	030c      	movi.n	a3, 0
    67af:	024d      	mov.n	a4, a2
    67b1:	84e771        	l32r	a7, 0xfffe7b50
    67b4:	847151        	l32r	a5, 0xfffe7978
    67b7:	0778      	l32i.n	a7, a7, 0
    67b9:	530522        	l8ui	a2, a5, 83
    67bc:	520552        	l8ui	a5, a5, 82
    67bf:	c07740        	sub	a7, a7, a4
    67c2:	833670        	moveqz	a3, a6, a7
    67c5:	103350        	and	a3, a3, a5
    67c8:	102230        	and	a2, a2, a3
    67cb:	f01d      	excw
    67cd:	000000        	ill
    67d0:	004136        	excw
    67d3:	84e731        	l32r	a3, 0xfffe7b70
    67d6:	f27c      	movi.n	a2, -1
    67d8:	847191        	l32r	a9, 0xfffe799c
    67db:	080c      	movi.n	a8, 0
    67dd:	524982        	s8i	a8, a9, 82
    67e0:	3c4982        	s8i	a8, a9, 60
    67e3:	0329      	s32i.n	a2, a3, 0
    67e5:	f01d      	excw
    67e7:	413600        	srli	a3, a0, 6
    67ea:	e78100        	excw
    67ed:	088884        	excw
    67f0:	029827        	bne	a8, a2, 0x67f6
    67f3:	fffde5        	excw
    67f6:	847181        	l32r	a8, 0xfffe79bc
    67f9:	272882        	l32i	a8, a8, 156
    67fc:	02ad      	mov.n	a10, a2
    67fe:	0008e0        	excw
    6801:	f01d      	excw
    6803:	613600        	excw
    6806:	9c5100        	excw
    6809:	03ad84        	excw
    680c:	da2582        	l32i	a8, a5, 0x368
    680f:	9b1c      	movi.n	a11, 25
    6811:	0008e0        	excw
    6814:	ab1c      	movi.n	a11, 26
    6816:	21a9      	s32i.n	a10, a1, 8
    6818:	da2582        	l32i	a8, a5, 0x368
    681b:	03ad      	mov.n	a10, a3
    681d:	0008e0        	excw
    6820:	846181        	l32r	a8, 0xfffe79a4
    6823:	11a9      	s32i.n	a10, a1, 4
    6825:	c02882        	l32i	a8, a8, 0x300
    6828:	03ad      	mov.n	a10, a3
    682a:	0008e0        	excw
    682d:	0129      	s32i.n	a2, a1, 0
    682f:	5f22b6        	bltui	a2, 2, 0x6892
    6832:	848661        	l32r	a6, 0xfffe7a4c
    6835:	f45030        	extui	a5, a3, 0, 16
    6838:	0a7d      	mov.n	a7, a10
    683a:	05ad      	mov.n	a10, a5
    683c:	c92642        	l32i	a4, a6, 0x324
    683f:	c82632        	l32i	a3, a6, 0x320
    6842:	220b      	addi.n	a2, a2, -1
    6844:	742020        	extui	a2, a2, 0, 8
    6847:	323a      	add.n	a3, a2, a3
    6849:	424a      	add.n	a4, a2, a4
    684b:	000442        	l8ui	a4, a4, 0
    684e:	000332        	l8ui	a3, a3, 0
    6851:	fff565        	excw
    6854:	0b0c      	movi.n	a11, 0
    6856:	190c      	movi.n	a9, 1
    6858:	080c      	movi.n	a8, 0
    685a:	3a8c      	beqz.n	a10, 0x6861
    685c:	011366        	bnei	a3, 1, 0x6861
    685f:	1b0c      	movi.n	a11, 1
    6861:	8389b0        	moveqz	a8, a9, a11
    6864:	78ac      	beqz.n	a8, 0x688f
    6866:	045226        	beqi	a2, 5, 0x686e
    6869:	016226        	beqi	a2, 6, 0x686e
    686c:	090c      	movi.n	a9, 0
    686e:	1b0c      	movi.n	a11, 1
    6870:	0a0c      	movi.n	a10, 0
    6872:	83ab90        	moveqz	a10, a11, a9
    6875:	6a9c      	beqz.n	a10, 0x688f
    6877:	143737        	bltu	a7, a3, 0x688f
    687a:	161426        	beqi	a4, 1, 0x6894
    687d:	032466        	bnei	a4, 2, 0x6884
    6880:	21c8      	l32i.n	a12, a1, 8
    6882:	eccc      	bnez.n	a12, 0x6894
    6884:	073466        	bnei	a4, 3, 0x688f
    6887:	11d8      	l32i.n	a13, a1, 4
    6889:	21e8      	l32i.n	a14, a1, 8
    688b:	0d8c      	beqz.n	a13, 0x688f
    688d:	3e8c      	beqz.n	a14, 0x6894
    688f:	a71266        	bnei	a2, 1, 0x683a
    6892:	0128      	l32i.n	a2, a1, 0
    6894:	f01d      	excw
    6896:	360000        	excw
    6899:	510061        	l32r	a6, 0xfffdac9c
    689c:	849c      	beqz.n	a4, 0x68b8
    689e:	03ad      	mov.n	a10, a3
    68a0:	da2582        	l32i	a8, a5, 0x368
    68a3:	9b1c      	movi.n	a11, 25
    68a5:	0008e0        	excw
    68a8:	ab1c      	movi.n	a11, 26
    68aa:	21a9      	s32i.n	a10, a1, 8
    68ac:	da2582        	l32i	a8, a5, 0x368
    68af:	03ad      	mov.n	a10, a3
    68b1:	0008e0        	excw
    68b4:	846181        	l32r	a8, 0xfffe7a38
    68b7:	11a9      	s32i.n	a10, a1, 4
    68b9:	c02882        	l32i	a8, a8, 0x300
    68bc:	03ad      	mov.n	a10, a3
    68be:	0008e0        	excw
    68c1:	0129      	s32i.n	a2, a1, 0
    68c3:	5b72f6        	bgeui	a2, 7, 0x6922
    68c6:	848661        	l32r	a6, 0xfffe7ae0
    68c9:	f45030        	extui	a5, a3, 0, 16
    68cc:	0a7d      	mov.n	a7, a10
    68ce:	05ad      	mov.n	a10, a5
    68d0:	c92642        	l32i	a4, a6, 0x324
    68d3:	c82632        	l32i	a3, a6, 0x320
    68d6:	221b      	addi.n	a2, a2, 1
    68d8:	742020        	extui	a2, a2, 0, 8
    68db:	323a      	add.n	a3, a2, a3
    68dd:	424a      	add.n	a4, a2, a4
    68df:	000442        	l8ui	a4, a4, 0
    68e2:	000332        	l8ui	a3, a3, 0
    68e5:	ffec25        	excw
    68e8:	0b0c      	movi.n	a11, 0
    68ea:	190c      	movi.n	a9, 1
    68ec:	080c      	movi.n	a8, 0
    68ee:	3a8c      	beqz.n	a10, 0x68f5
    68f0:	011366        	bnei	a3, 1, 0x68f5
    68f3:	1b0c      	movi.n	a11, 1
    68f5:	8389b0        	moveqz	a8, a9, a11
    68f8:	38ac      	beqz.n	a8, 0x691f
    68fa:	1b0c      	movi.n	a11, 1
    68fc:	0a0c      	movi.n	a10, 0
    68fe:	045226        	beqi	a2, 5, 0x6906
    6901:	016226        	beqi	a2, 6, 0x6906
    6904:	090c      	movi.n	a9, 0
    6906:	83ab90        	moveqz	a10, a11, a9
    6909:	2a9c      	beqz.n	a10, 0x691f
    690b:	103737        	bltu	a7, a3, 0x691f
    690e:	121426        	beqi	a4, 1, 0x6924
    6911:	032466        	bnei	a4, 2, 0x6918
    6914:	21c8      	l32i.n	a12, a1, 8
    6916:	accc      	bnez.n	a12, 0x6924
    6918:	033466        	bnei	a4, 3, 0x691f
    691b:	11d8      	l32i.n	a13, a1, 4
    691d:	3dcc      	bnez.n	a13, 0x6924
    691f:	ab7266        	bnei	a2, 7, 0x68ce
    6922:	0128      	l32i.n	a2, a1, 0
    6924:	f01d      	excw
    6926:	360000        	excw
    6929:	910061        	l32r	a6, 0xfffead2c
    692c:	8479      	s32i.n	a7, a4, 32
    692e:	842ac1        	l32r	a12, 0xfffe79d8
    6931:	848d41        	l32r	a4, 0xfffe7b68
    6934:	84ea51        	l32r	a5, 0xfffe7cdc
    6937:	842961        	l32r	a6, 0xfffe79dc
    693a:	d8a182        	movi	a8, 0x1d8
    693d:	c1b280        	mul16u	a11, a2, a8
    6940:	02d632        	addmi	a3, a6, 0x200
    6943:	5b5a      	add.n	a5, a11, a5
    6945:	7f0572        	l8ui	a7, a5, 127
    6948:	4b4a      	add.n	a4, a11, a4
    694a:	c17780        	mul16u	a7, a7, a8
    694d:	6b0482        	l8ui	a8, a4, 107
    6950:	7c7a      	add.n	a7, a12, a7
    6952:	779a      	add.n	a7, a7, a9
    6954:	c8dc      	bnez.n	a8, 0x6974
    6956:	6a0482        	l8ui	a8, a4, 106
    6959:	78dc      	bnez.n	a8, 0x6974
    695b:	84eba1        	l32r	a10, 0xfffe7d08
    695e:	222682        	l32i	a8, a6, 136
    6961:	acaa      	add.n	a10, a12, a10
    6963:	abaa      	add.n	a10, a11, a10
    6965:	0008e0        	excw
    6968:	8a8c      	beqz.n	a10, 0x6974
    696a:	912382        	l32i	a8, a3, 0x244
    696d:	0008e0        	excw
    6970:	120c      	movi.n	a2, 1
    6972:	f01d      	excw
    6974:	090c      	movi.n	a9, 0
    6976:	846031        	l32r	a3, 0xfffe7af8
    6979:	0020c0        	memw
    697c:	8f6392        	s32i	a9, a3, 0x23c
    697f:	0020c0        	memw
    6982:	8e6392        	s32i	a9, a3, 0x238
    6985:	0020c0        	memw
    6988:	8d6392        	s32i	a9, a3, 0x234
    698b:	bb2682        	l32i	a8, a6, 0x2ec
    698e:	9a0c      	movi.n	a10, 9
    6990:	0008e0        	excw
    6993:	0020c0        	memw
    6996:	8c63a2        	s32i	a10, a3, 0x230
    6999:	bc2682        	l32i	a8, a6, 0x2f0
    699c:	9a0c      	movi.n	a10, 9
    699e:	0008e0        	excw
    69a1:	8462b1        	l32r	a11, 0xfffe7b2c
    69a4:	0020c0        	memw
    69a7:	847691        	l32r	a9, 0xfffe7b80
    69aa:	836ba2        	s32i	a10, a11, 0x20c
    69ad:	c20992        	l8ui	a9, a9, 194
    69b0:	103926        	beqi	a9, 3, 0x69c4
    69b3:	bd2682        	l32i	a8, a6, 0x2f4
    69b6:	9a0c      	movi.n	a10, 9
    69b8:	0008e0        	excw
    69bb:	0020c0        	memw
    69be:	846291        	l32r	a9, 0xfffe7b48
    69c1:	8869a2        	s32i	a10, a9, 0x220
    69c4:	6904a2        	l8ui	a10, a4, 105
    69c7:	123a66        	bnei	a10, 3, 0x69dd
    69ca:	7f05a2        	l8ui	a10, a5, 127
    69cd:	6d2682        	l32i	a8, a6, 0x1b4
    69d0:	db0c      	movi.n	a11, 13
    69d2:	0008e0        	excw
    69d5:	490c      	movi.n	a9, 4
    69d7:	694492        	s8i	a9, a4, 105
    69da:	014792        	s8i	a9, a7, 1
    69dd:	02ad      	mov.n	a10, a2
    69df:	fc1c65        	excw
    69e2:	800592        	l8ui	a9, a5, 128
    69e5:	2b0c      	movi.n	a11, 2
    69e7:	10b9b0        	and	a11, a9, a11
    69ea:	da8c      	beqz.n	a10, 0x69fb
    69ec:	0be917        	bbsi	a9, 1, 0x69fb
    69ef:	846181        	l32r	a8, 0xfffe7b74
    69f2:	912882        	l32i	a8, a8, 0x244
    69f5:	0008e0        	excw
    69f8:	ffdd06        	j	0x6970
    69fb:	84b3d1        	l32r	a13, 0xfffe7cc8
    69fe:	84a6e1        	l32r	a14, 0xfffe7c98
    6a01:	84baf1        	l32r	a15, 0xfffe7cec
    6a04:	84b8a1        	l32r	a10, 0xfffe7ce4
    6a07:	845b91        	l32r	a9, 0xfffe7b74
    6a0a:	078b56        	bnez	a11, 0x6a86
    6a0d:	845a81        	l32r	a8, 0xfffe7b78
    6a10:	3129      	s32i.n	a2, a1, 12
    6a12:	7f05c2        	l8ui	a12, a5, 127
    6a15:	d8a122        	movi	a2, 0x1d8
    6a18:	c1cc20        	mul16u	a12, a12, a2
    6a1b:	c8ca      	add.n	a12, a8, a12
    6a1d:	7f2cc2        	l32i	a12, a12, 0x1fc
    6a20:	04c0c0        	extui	a12, a12, 0, 1
    6a23:	01bcc0        	slli	a11, a12, 20
    6a26:	11cc20        	slli	a12, a12, 14
    6a29:	10bba0        	and	a11, a11, a10
    6a2c:	20bb90        	or	a11, a11, a9
    6a2f:	10cc90        	and	a12, a12, a9
    6a32:	4427a2        	l32i	a10, a7, 0x110
    6a35:	0020c0        	memw
    6a38:	9063a2        	s32i	a10, a3, 0x240
    6a3b:	4427a2        	l32i	a10, a7, 0x110
    6a3e:	4527a2        	l32i	a10, a7, 0x114
    6a41:	0020c0        	memw
    6a44:	9163a2        	s32i	a10, a3, 0x244
    6a47:	7f05a2        	l8ui	a10, a5, 127
    6a4a:	c12a20        	mul16u	a2, a10, a2
    6a4d:	882a      	add.n	a8, a8, a2
    6a4f:	7f2882        	l32i	a8, a8, 0x1fc
    6a52:	3128      	l32i.n	a2, a1, 12
    6a54:	048780        	extui	a8, a8, 7, 1
    6a57:	10f816        	beqz	a8, 0x6b6a
    6a5a:	21c9      	s32i.n	a12, a1, 8
    6a5c:	842d81        	l32r	a8, 0xfffe7b10
    6a5f:	0207a2        	l8ui	a10, a7, 2
    6a62:	c50882        	l8ui	a8, a8, 197
    6a65:	01b9      	s32i.n	a11, a1, 0
    6a67:	1218a7        	beq	a8, a10, 0x6a7d
    6a6a:	6e2682        	l32i	a8, a6, 0x1b8
    6a6d:	0008e0        	excw
    6a70:	01b8      	l32i.n	a11, a1, 0
    6a72:	21c8      	l32i.n	a12, a1, 8
    6a74:	84b3d1        	l32r	a13, 0xfffe7d40
    6a77:	84a6e1        	l32r	a14, 0xfffe7d10
    6a7a:	84baf1        	l32r	a15, 0xfffe7d64
    6a7d:	7f05a2        	l8ui	a10, a5, 127
    6a80:	84ec51        	l32r	a5, 0xfffe7e30
    6a83:	003986        	j	0x6b6d
    6a86:	1d24b2        	l32i	a11, a4, 116
    6a89:	5e2482        	l32i	a8, a4, 0x178
    6a8c:	04b0b0        	extui	a11, a11, 0, 1
    6a8f:	11cb20        	slli	a12, a11, 14
    6a92:	01bbc0        	slli	a11, a11, 20
    6a95:	10bba0        	and	a11, a11, a10
    6a98:	10cc90        	and	a12, a12, a9
    6a9b:	20bb90        	or	a11, a11, a9
    6a9e:	0020c0        	memw
    6aa1:	906382        	s32i	a8, a3, 0x240
    6aa4:	5e2472        	l32i	a7, a4, 0x178
    6aa7:	5f2462        	l32i	a6, a4, 0x17c
    6aaa:	0020c0        	memw
    6aad:	84a951        	l32r	a5, 0xfffe7d54
    6ab0:	118290        	slli	a8, a2, 7
    6ab3:	916362        	s32i	a6, a3, 0x244
    6ab6:	6b0492        	l8ui	a9, a4, 107
    6ab9:	880472        	l8ui	a7, a4, 136
    6abc:	80a722        	movi	a2, 0x780
    6abf:	6f0462        	l8ui	a6, a4, 111
    6ac2:	108820        	and	a8, a8, a2
    6ac5:	6a0422        	l8ui	a2, a4, 106
    6ac8:	0166b0        	slli	a6, a6, 21
    6acb:	117710        	slli	a7, a7, 15
    6ace:	1077e0        	and	a7, a7, a14
    6ad1:	1066d0        	and	a6, a6, a13
    6ad4:	112240        	slli	a2, a2, 12
    6ad7:	206670        	or	a6, a6, a7
    6ada:	1022f0        	and	a2, a2, a15
    6add:	b70c      	movi.n	a7, 11
    6adf:	202280        	or	a2, a2, a8
    6ae2:	202250        	or	a2, a2, a5
    6ae5:	206670        	or	a6, a6, a7
    6ae8:	0a1966        	bnei	a9, 1, 0x6af6
    6aeb:	0e4c      	movi.n	a14, 64
    6aed:	84edd1        	l32r	a13, 0xfffe7ea4
    6af0:	2022e0        	or	a2, a2, a14
    6af3:	20bbd0        	or	a11, a11, a13
    6af6:	84a251        	l32r	a5, 0xfffe7d80
    6af9:	0f0c      	movi.n	a15, 0
    6afb:	11f9      	s32i.n	a15, a1, 4
    6afd:	1178      	l32i.n	a7, a1, 4
    6aff:	0a7c      	movi.n	a10, -16
    6b01:	181966        	bnei	a9, 1, 0x6b1d
    6b04:	0020c0        	memw
    6b07:	862382        	l32i	a8, a3, 0x218
    6b0a:	790c      	movi.n	a9, 7
    6b0c:	1088a0        	and	a8, a8, a10
    6b0f:	208890        	or	a8, a8, a9
    6b12:	0020c0        	memw
    6b15:	866382        	s32i	a8, a3, 0x218
    6b18:	01b9      	s32i.n	a11, a1, 0
    6b1a:	000546        	j	0x6b33
    6b1d:	0020c0        	memw
    6b20:	862392        	l32i	a9, a3, 0x218
    6b23:	ad0c      	movi.n	a13, 10
    6b25:	1099a0        	and	a9, a9, a10
    6b28:	2099d0        	or	a9, a9, a13
    6b2b:	0020c0        	memw
    6b2e:	866392        	s32i	a9, a3, 0x218
    6b31:	01b9      	s32i.n	a11, a1, 0
    6b33:	0020c0        	memw
    6b36:	9d63c2        	s32i	a12, a3, 0x274
    6b39:	0020c0        	memw
    6b3c:	0b0c      	movi.n	a11, 0
    6b3e:	0198      	l32i.n	a9, a1, 0
    6b40:	846181        	l32r	a8, 0xfffe7cc4
    6b43:	9c6392        	s32i	a9, a3, 0x270
    6b46:	da2882        	l32i	a8, a8, 0x368
    6b49:	8904a2        	l8ui	a10, a4, 137
    6b4c:	0008e0        	excw
    6b4f:	0020c0        	memw
    6b52:	8b6372        	s32i	a7, a3, 0x22c
    6b55:	0020c0        	memw
    6b58:	8a6362        	s32i	a6, a3, 0x228
    6b5b:	0020c0        	memw
    6b5e:	896352        	s32i	a5, a3, 0x224
    6b61:	0020c0        	memw
    6b64:	886322        	s32i	a2, a3, 0x220
    6b67:	ff8146        	j	0x6970
    6b6a:	84a251        	l32r	a5, 0xfffe7df4
    6b6d:	200782        	l8ui	a8, a7, 32
    6b70:	070762        	l8ui	a6, a7, 7
    6b73:	349020        	extui	a9, a2, 0, 4
    6b76:	1199      	s32i.n	a9, a1, 4
    6b78:	020722        	l8ui	a2, a7, 2
    6b7b:	80a792        	movi	a9, 0x780
    6b7e:	0166b0        	slli	a6, a6, 21
    6b81:	118810        	slli	a8, a8, 15
    6b84:	1088e0        	and	a8, a8, a14
    6b87:	1066d0        	and	a6, a6, a13
    6b8a:	112240        	slli	a2, a2, 12
    6b8d:	1022f0        	and	a2, a2, a15
    6b90:	206680        	or	a6, a6, a8
    6b93:	118a90        	slli	a8, a10, 7
    6b96:	108890        	and	a8, a8, a9
    6b99:	202280        	or	a2, a2, a8
    6b9c:	6b0492        	l8ui	a9, a4, 107
    6b9f:	b80c      	movi.n	a8, 11
    6ba1:	206680        	or	a6, a6, a8
    6ba4:	890b      	addi.n	a8, a9, -1
    6ba6:	f53856        	bnez	a8, 0x6afd
    6ba9:	8804d2        	l8ui	a13, a4, 136
    6bac:	84eea1        	l32r	a10, 0xfffe7f64
    6baf:	0e4c      	movi.n	a14, 64
    6bb1:	2022e0        	or	a2, a2, a14
    6bb4:	20bba0        	or	a11, a11, a10
    6bb7:	84a7e1        	l32r	a14, 0xfffe7e54
    6bba:	01dde0        	slli	a13, a13, 18
    6bbd:	10dde0        	and	a13, a13, a14
    6bc0:	2066d0        	or	a6, a6, a13
    6bc3:	ffcd86        	j	0x6afd
    6bc6:	360000        	excw
    6bc9:	410061        	l32r	a6, 0xfffd6fcc
    6bcc:	ef          	.byte 0xef
    6bcd:	a18284        	excw
    6bd0:	80d8      	l32i.n	a13, a0, 32
    6bd2:	61c182        	addi	a8, a1, 97
    6bd5:	8429      	s32i.n	a2, a4, 32
    6bd7:	448a      	add.n	a4, a4, a8
    6bd9:	a4a8      	l32i.n	a10, a4, 40
    6bdb:	7fafb2        	movi	a11, -129
    6bde:	10aab0        	and	a10, a10, a11
    6be1:	a4a9      	s32i.n	a10, a4, 40
    6be3:	2f6a07        	bbci	a10, 0, 0x6c16
    6be6:	849c81        	l32r	a8, 0xfffe7e58
    6be9:	02ad      	mov.n	a10, a2
    6beb:	ec2882        	l32i	a8, a8, 0x3b0
    6bee:	01bd      	mov.n	a11, a1
    6bf0:	0008e0        	excw
    6bf3:	880492        	l8ui	a9, a4, 136
    6bf6:	a4a8      	l32i.n	a10, a4, 40
    6bf8:	fb6c      	movi.n	a11, -17
    6bfa:	10aab0        	and	a10, a10, a11
    6bfd:	a4a9      	s32i.n	a10, a4, 40
    6bff:	e9cc      	bnez.n	a9, 0x6c11
    6c01:	0001c2        	l8ui	a12, a1, 0
    6c04:	097cb6        	bltui	a12, 7, 0x6c11
    6c07:	02ad      	mov.n	a10, a2
    6c09:	6d2682        	l32i	a8, a6, 0x1b4
    6c0c:	3b0c      	movi.n	a11, 3
    6c0e:	0008e0        	excw
    6c11:	050c      	movi.n	a5, 0
    6c13:	001686        	j	0x6c71
    6c16:	f76a47        	bbci	a10, 4, 0x6c11
    6c19:	00a192        	movi	a9, 0x100
    6c1c:	842481        	l32r	a8, 0xfffe7cac
    6c1f:	209a90        	or	a9, a10, a9
    6c22:	2f2882        	l32i	a8, a8, 188
    6c25:	a499      	s32i.n	a9, a4, 40
    6c27:	0008e0        	excw
    6c2a:	056a16        	beqz	a10, 0x6c84
    6c2d:	841981        	l32r	a8, 0xfffe7c94
    6c30:	792882        	l32i	a8, a8, 0x1e4
    6c33:	02ad      	mov.n	a10, a2
    6c35:	0008e0        	excw
    6c38:	0a5d      	mov.n	a5, a10
    6c3a:	001206        	j	0x6c86
    6c3d:	0bad      	mov.n	a10, a11
    6c3f:	8468b1        	l32r	a11, 0xfffe7de0
    6c42:	419190        	srli	a9, a9, 1
    6c45:	c099d0        	sub	a9, a9, a13
    6c48:	1099b0        	and	a9, a9, a11
    6c4b:	1199f0        	slli	a9, a9, 1
    6c4e:	01ba97        	bgeu	a10, a9, 0x6c53
    6c51:	050c      	movi.n	a5, 0
    6c53:	2304a2        	l8ui	a10, a4, 35
    6c56:	042ab6        	bltui	a10, 2, 0x6c5e
    6c59:	0b0c      	movi.n	a11, 0
    6c5b:	835bc0        	moveqz	a5, a11, a12
    6c5e:	081442        	l16ui	a4, a4, 16
    6c61:	84f0a1        	l32r	a10, 0xfffe8024
    6c64:	04bd      	mov.n	a11, a4
    6c66:	04cde5        	excw
    6c69:	82ca40        	mull	a12, a10, a4
    6c6c:	cc2b      	addi.n	a12, a12, 2
    6c6e:	6355c0        	excw
    6c71:	02ad      	mov.n	a10, a2
    6c73:	03bd      	mov.n	a11, a3
    6c75:	847f91        	l32r	a9, 0xfffe7e74
    6c78:	712682        	l32i	a8, a6, 0x1c4
    6c7b:	4959      	s32i.n	a5, a9, 16
    6c7d:	0008e0        	excw
    6c80:	0a2d      	mov.n	a2, a10
    6c82:	f01d      	excw
    6c84:	050c      	movi.n	a5, 0
    6c86:	05ad      	mov.n	a10, a5
    6c88:	e535b6        	bltui	a5, 3, 0x6c71
    6c8b:	870c      	movi.n	a7, 8
    6c8d:	842cd1        	l32r	a13, 0xfffe7d40
    6c90:	842db1        	l32r	a11, 0xfffe7d44
    6c93:	340dd2        	l8ui	a13, a13, 52
    6c96:	c40bb2        	l8ui	a11, a11, 196
    6c99:	23dd00        	excw
    6c9c:	13eb07        	bbsi	a11, 0, 0x6cb3
    6c9f:	a4c8      	l32i.n	a12, a4, 40
    6ca1:	0814b2        	l16ui	a11, a4, 16
    6ca4:	086c37        	bbci	a12, 3, 0x6cb0
    6ca7:	2204c2        	l8ui	a12, a4, 34
    6caa:	c1bcb0        	mul16u	a11, a12, a11
    6cad:	f4b0b0        	extui	a11, a11, 0, 16
    6cb0:	013ba7        	bltu	a11, a10, 0x6cb5
    6cb3:	050c      	movi.n	a5, 0
    6cb5:	071de6        	bgei	a13, 1, 0x6cc0
    6cb8:	845ca1        	l32r	a10, 0xfffe7e28
    6cbb:	0b0c      	movi.n	a11, 0
    6cbd:	b0b565        	excw
    6cc0:	1e24d2        	l32i	a13, a4, 120
    6cc3:	0814b2        	l16ui	a11, a4, 16
    6cc6:	842a91        	l32r	a9, 0xfffe7d70
    6cc9:	a4e8      	l32i.n	a14, a4, 40
    6ccb:	1998      	l32i.n	a9, a9, 4
    6ccd:	10ce70        	and	a12, a14, a7
    6cd0:	028e77        	bany	a14, a7, 0x6cd6
    6cd3:	ffd986        	j	0x6c3d
    6cd6:	2204a2        	l8ui	a10, a4, 34
    6cd9:	c1aab0        	mul16u	a10, a10, a11
    6cdc:	f4a0a0        	extui	a10, a10, 0, 16
    6cdf:	ffd706        	j	0x6c3f
    6ce2:	360000        	excw
    6ce5:	810041        	l32r	a4, 0xfffe70e8
    6ce8:	842a      	add.n	a8, a4, a2
    6cea:	c00882        	l8ui	a8, a8, 192
    6ced:	0a6807        	bbci	a8, 0, 0x6cfb
    6cf0:	02ad      	mov.n	a10, a2
    6cf2:	00c3a5        	excw
    6cf5:	2acc      	bnez.n	a10, 0x6cfb
    6cf7:	120c      	movi.n	a2, 1
    6cf9:	f01d      	excw
    6cfb:	849c81        	l32r	a8, 0xfffe7f6c
    6cfe:	f32882        	l32i	a8, a8, 0x3cc
    6d01:	02ad      	mov.n	a10, a2
    6d03:	0008e0        	excw
    6d06:	0a2d      	mov.n	a2, a10
    6d08:	f01d      	excw
    6d0a:	360000        	excw
    6d0d:	f10041        	l32r	a4, 0x3110 (0xdac1a6a0)
    6d10:	84fa      	add.n	a8, a4, a15
    6d12:	84f921        	l32r	a2, 0xfffe80f8
    6d15:	84f661        	l32r	a6, 0xfffe80f0
    6d18:	847191        	l32r	a9, 0xfffe7edc
    6d1b:	84f5a1        	l32r	a10, 0xfffe80f0
    6d1e:	84f1e1        	l32r	a14, 0xfffe80e4
    6d21:	84f2d1        	l32r	a13, 0xfffe80ec
    6d24:	84f3c1        	l32r	a12, 0xfffe80f0
    6d27:	84f4b1        	l32r	a11, 0xfffe80f8
    6d2a:	84f741        	l32r	a4, 0xfffe8108
    6d2d:	842951        	l32r	a5, 0xfffe7dd4
    6d30:	84f831        	l32r	a3, 0xfffe8110
    6d33:	446532        	s32i	a3, a5, 0x110
    6d36:	9865e2        	s32i	a14, a5, 0x260
    6d39:	9e65d2        	s32i	a13, a5, 0x278
    6d3c:	9c65c2        	s32i	a12, a5, 0x270
    6d3f:	a365b2        	s32i	a11, a5, 0x28c
    6d42:	4a2572        	l32i	a7, a5, 0x128
    6d45:	4b2582        	l32i	a8, a5, 0x12c
    6d48:	136542        	s32i	a4, a5, 76
    6d4b:	05d532        	addmi	a3, a5, 0x500
    6d4e:	84fe41        	l32r	a4, 0xfffe8148
    6d51:	f329      	s32i.n	a2, a3, 60
    6d53:	4b65a2        	s32i	a10, a5, 0x12c
    6d56:	c979      	s32i.n	a7, a9, 48
    6d58:	07d5b2        	addmi	a11, a5, 0x700
    6d5b:	84fcc1        	l32r	a12, 0xfffe814c
    6d5e:	84fbd1        	l32r	a13, 0xfffe814c
    6d61:	4a6562        	s32i	a6, a5, 0x128
    6d64:	d989      	s32i.n	a8, a9, 52
    6d66:	e3f9      	s32i.n	a15, a3, 56
    6d68:	f325e2        	l32i	a14, a5, 0x3cc
    6d6b:	84fff1        	l32r	a15, 0xfffe8168
    6d6e:	2769e2        	s32i	a14, a9, 156
    6d71:	84fd81        	l32r	a8, 0xfffe8168
    6d74:	847c61        	l32r	a6, 0xfffe7f64
    6d77:	f365d2        	s32i	a13, a5, 0x3cc
    6d7a:	116bc2        	s32i	a12, a11, 68
    6d7d:	702672        	l32i	a7, a6, 0x1c0
    6d80:	02d5c2        	addmi	a12, a5, 0x200
    6d83:	7026a2        	l32i	a10, a6, 0x1c0
    6d86:	702622        	l32i	a2, a6, 0x1c0
    6d89:	ca89      	s32i.n	a8, a10, 48
    6d8b:	850181        	l32r	a8, 0xfffe8190
    6d8e:	d749      	s32i.n	a4, a7, 52
    6d90:	8500a1        	l32r	a10, 0xfffe8190
    6d93:	850241        	l32r	a4, 0xfffe819c
    6d96:	1b62f2        	s32i	a15, a2, 108
    6d99:	04d572        	addmi	a7, a5, 0x400
    6d9c:	850321        	l32r	a2, 0xfffe81a8
    6d9f:	8504f1        	l32r	a15, 0xfffe81b0
    6da2:	b42cd2        	l32i	a13, a12, 0x2d0
    6da5:	b32ce2        	l32i	a14, a12, 0x2cc
    6da8:	59e9      	s32i.n	a14, a9, 20
    6daa:	9ba9      	s32i.n	a10, a11, 36
    6dac:	49d9      	s32i.n	a13, a9, 16
    6dae:	8507a1        	l32r	a10, 0xfffe81cc
    6db1:	7026d2        	l32i	a13, a6, 0x1c0
    6db4:	8505e1        	l32r	a14, 0xfffe81c8
    6db7:	106782        	s32i	a8, a7, 64
    6dba:	992cc2        	l32i	a12, a12, 0x264
    6dbd:	850881        	l32r	a8, 0xfffe81e0
    6dc0:	89c9      	s32i.n	a12, a9, 32
    6dc2:	196742        	s32i	a4, a7, 100
    6dc5:	6c65e2        	s32i	a14, a5, 0x1b0
    6dc8:	850941        	l32r	a4, 0xfffe81ec
    6dcb:	850be1        	l32r	a14, 0xfffe81f8
    6dce:	8506c1        	l32r	a12, 0xfffe81e8
    6dd1:	03d572        	addmi	a7, a5, 0x300
    6dd4:	7467f2        	s32i	a15, a7, 0x1d0
    6dd7:	7a6722        	s32i	a2, a7, 0x1e8
    6dda:	850af1        	l32r	a15, 0xfffe8204
    6ddd:	7367c2        	s32i	a12, a7, 0x1cc
    6de0:	8dc9      	s32i.n	a12, a13, 32
    6de2:	1a63e2        	s32i	a14, a3, 104
    6de5:	850cc1        	l32r	a12, 0xfffe8218
    6de8:	aab8      	l32i.n	a11, a10, 40
    6dea:	6f2522        	l32i	a2, a5, 0x1bc
    6ded:	646742        	s32i	a4, a7, 0x190
    6df0:	f225d2        	l32i	a13, a5, 0x3c8
    6df3:	851041        	l32r	a4, 0xfffe8234
    6df6:	850e71        	l32r	a7, 0xfffe8230
    6df9:	69d9      	s32i.n	a13, a9, 24
    6dfb:	6f65f2        	s32i	a15, a5, 0x1bc
    6dfe:	aa89      	s32i.n	a8, a10, 40
    6e00:	9929      	s32i.n	a2, a9, 36
    6e02:	79b9      	s32i.n	a11, a9, 28
    6e04:	851121        	l32r	a2, 0xfffe8248
    6e07:	f265c2        	s32i	a12, a5, 0x3c8
    6e0a:	7026b2        	l32i	a11, a6, 0x1c0
    6e0d:	850da1        	l32r	a10, 0xfffe8244
    6e10:	136ba2        	s32i	a10, a11, 76
    6e13:	3588      	l32i.n	a8, a5, 12
    6e15:	3579      	s32i.n	a7, a5, 12
    6e17:	a989      	s32i.n	a8, a9, 40
    6e19:	06d552        	addmi	a5, a5, 0x600
    6e1c:	850f71        	l32r	a7, 0xfffe8258
    6e1f:	702682        	l32i	a8, a6, 0x1c0
    6e22:	702662        	l32i	a6, a6, 0x1c0
    6e25:	2579      	s32i.n	a7, a5, 8
    6e27:	186872        	s32i	a7, a8, 96
    6e2a:	156642        	s32i	a4, a6, 84
    6e2d:	7a6542        	s32i	a4, a5, 0x1e8
    6e30:	0329      	s32i.n	a2, a3, 0
    6e32:	f01d      	excw
    6e34:	008136        	excw
    6e37:	05dd      	mov.n	a13, a5
    6e39:	6ca082        	movi	a8, 108
    6e3c:	059487        	bne	a4, a8, 0x6e45
    6e3f:	b20c      	movi.n	a2, 11
    6e41:	0629      	s32i.n	a2, a6, 0
    6e43:	f01d      	excw
    6e45:	0c0c      	movi.n	a12, 0
    6e47:	1e0c      	movi.n	a14, 1
    6e49:	849651        	l32r	a5, 0xfffe80a4
    6e4c:	8fa092        	movi	a9, 143
    6e4f:	02d5f2        	addmi	a15, a5, 0x200
    6e52:	299497        	bne	a4, a9, 0x6e7f
    6e55:	84c0b1        	l32r	a11, 0xfffe8158
    6e58:	2d1bb2        	l16ui	a11, a11, 90
    6e5b:	1a2c      	movi.n	a10, 33
    6e5d:	04b9b0        	extui	a11, a11, 9, 1
    6e60:	11eb56        	bnez	a11, 0x6f82
    6e63:	d388      	l32i.n	a8, a3, 52
    6e65:	058f80        	extui	a8, a8, 31, 1
    6e68:	116816        	beqz	a8, 0x6f82
    6e6b:	0272e6        	bgei	a2, 7, 0x6e71
    6e6e:	004406        	j	0x6f82
    6e71:	06a9      	s32i.n	a10, a6, 0
    6e73:	e02582        	l32i	a8, a5, 0x380
    6e76:	04bd      	mov.n	a11, a4
    6e78:	0008e0        	excw
    6e7b:	020c      	movi.n	a2, 0
    6e7d:	f01d      	excw
    6e7f:	f8a392        	movi	a9, 0x3f8
    6e82:	519497        	bne	a4, a9, 0x6ed7
    6e85:	1803a2        	l8ui	a10, a3, 24
    6e88:	024ab6        	bltui	a10, 4, 0x6e8e
    6e8b:	006186        	j	0x7015
    6e8e:	0272a6        	blti	a2, 7, 0x6e94
    6e91:	006006        	j	0x7015
    6e94:	1113b2        	l16ui	a11, a3, 34
    6e97:	04b5b0        	extui	a11, a11, 5, 1
    6e9a:	177b16        	beqz	a11, 0x7015
    6e9d:	eba3a2        	movi	a10, 0x3eb
    6ea0:	01bd      	mov.n	a11, a1
    6ea2:	2c0c      	movi.n	a12, 2
    6ea4:	3e0c      	movi.n	a14, 3
    6ea6:	fd2f82        	l32i	a8, a15, 0x3f4
    6ea9:	005142        	s16i	a4, a1, 0
    6eac:	492c      	movi.n	a9, 36
    6eae:	015192        	s16i	a9, a1, 2
    6eb1:	0003d2        	l8ui	a13, a3, 0
    6eb4:	0008e0        	excw
    6eb7:	74b020        	extui	a11, a2, 0, 8
    6eba:	402582        	l32i	a8, a5, 0x100
    6ebd:	03ad      	mov.n	a10, a3
    6ebf:	0008e0        	excw
    6ec2:	03ad      	mov.n	a10, a3
    6ec4:	0303c2        	l8ui	a12, a3, 3
    6ec7:	190c      	movi.n	a9, 1
    6ec9:	064392        	s8i	a9, a3, 6
    6ecc:	9d2582        	l32i	a8, a5, 0x274
    6ecf:	0b0c      	movi.n	a11, 0
    6ed1:	0008e0        	excw
    6ed4:	ffe8c6        	j	0x6e7b
    6ed7:	0da4a2        	movi	a10, 0x40d
    6eda:	0214a7        	beq	a4, a10, 0x6ee0
    6edd:	0022c6        	j	0x6f6c
    6ee0:	06d542        	addmi	a4, a5, 0x600
    6ee3:	0dbd      	mov.n	a11, a13
    6ee5:	60c3a2        	addi	a10, a3, 96
    6ee8:	8c0c      	movi.n	a12, 8
    6eea:	04bda5        	excw
    6eed:	851291        	l32r	a9, 0xfffe8338
    6ef0:	84ee81        	l32r	a8, 0xfffe82a8
    6ef3:	a09290        	addx4	a9, a2, a9
    6ef6:	09b8      	l32i.n	a11, a9, 0
    6ef8:	0a0c      	movi.n	a10, 0
    6efa:	059b16        	beqz	a11, 0x6f57
    6efd:	56c3b2        	addi	a11, a3, 86
    6f00:	09a9      	s32i.n	a10, a9, 0
    6f02:	1223f2        	l32i	a15, a3, 72
    6f05:	11b9      	s32i.n	a11, a1, 4
    6f07:	20ff80        	or	a15, a15, a8
    6f0a:	1263f2        	s32i	a15, a3, 72
    6f0d:	0272a6        	blti	a2, 7, 0x6f13
    6f10:	003906        	j	0x6ff8
    6f13:	03ad      	mov.n	a10, a3
    6f15:	849c81        	l32r	a8, 0xfffe8188
    6f18:	11b8      	l32i.n	a11, a1, 4
    6f1a:	b42882        	l32i	a8, a8, 0x2d0
    6f1d:	1c0c      	movi.n	a12, 1
    6f1f:	0008e0        	excw
    6f22:	84ed81        	l32r	a8, 0xfffe82d8
    6f25:	1223f2        	l32i	a15, a3, 72
    6f28:	11b8      	l32i.n	a11, a1, 4
    6f2a:	20ff80        	or	a15, a15, a8
    6f2d:	07ed      	mov.n	a14, a7
    6f2f:	fda3a2        	movi	a10, 0x3fd
    6f32:	2c0c      	movi.n	a12, 2
    6f34:	0003d2        	l8ui	a13, a3, 0
    6f37:	851391        	l32r	a9, 0xfffe8384
    6f3a:	102482        	l32i	a8, a4, 64
    6f3d:	209f90        	or	a9, a15, a9
    6f40:	126392        	s32i	a9, a3, 72
    6f43:	0008e0        	excw
    6f46:	02bd      	mov.n	a11, a2
    6f48:	d34b      	addi.n	a13, a3, 4
    6f4a:	4a0c      	movi.n	a10, 4
    6f4c:	8514c1        	l32r	a12, 0xfffe839c
    6f4f:	1e2582        	l32i	a8, a5, 120
    6f52:	3e0c      	movi.n	a14, 3
    6f54:	0008e0        	excw
    6f57:	849f91        	l32r	a9, 0xfffe81d4
    6f5a:	ef2992        	l32i	a9, a9, 0x3bc
    6f5d:	498c      	beqz.n	a9, 0x6f65
    6f5f:	562482        	l32i	a8, a4, 0x158
    6f62:	0008e0        	excw
    6f65:	090c      	movi.n	a9, 0
    6f67:	0699      	s32i.n	a9, a6, 0
    6f69:	ffc386        	j	0x6e7b
    6f6c:	02ad      	mov.n	a10, a2
    6f6e:	03bd      	mov.n	a11, a3
    6f70:	04cd      	mov.n	a12, a4
    6f72:	851581        	l32r	a8, 0xfffe83c8
    6f75:	06ed      	mov.n	a14, a6
    6f77:	1888      	l32i.n	a8, a8, 4
    6f79:	07fd      	mov.n	a15, a7
    6f7b:	0008e0        	excw
    6f7e:	0a2d      	mov.n	a2, a10
    6f80:	f01d      	excw
    6f82:	06c9      	s32i.n	a12, a6, 0
    6f84:	070d92        	l8ui	a9, a13, 7
    6f87:	0572e6        	bgei	a2, 7, 0x6f90
    6f8a:	13d916        	beqz	a9, 0x70cb
    6f8d:	0472a6        	blti	a2, 7, 0x6f95
    6f90:	b90b      	addi.n	a11, a9, -1
    6f92:	135b16        	beqz	a11, 0x70cb
    6f95:	21d9      	s32i.n	a13, a1, 8
    6f97:	74b020        	extui	a11, a2, 0, 8
    6f9a:	851691        	l32r	a9, 0xfffe83f4
    6f9d:	1a0c      	movi.n	a10, 1
    6f9f:	41a9      	s32i.n	a10, a1, 16
    6fa1:	0a1982        	l16ui	a8, a9, 20
    6fa4:	31b9      	s32i.n	a11, a1, 12
    6fa6:	2088e0        	or	a8, a8, a14
    6fa9:	0a5982        	s16i	a8, a9, 20
    6fac:	0572a6        	blti	a2, 7, 0x6fb5
    6faf:	21d9      	s32i.n	a13, a1, 8
    6fb1:	080c      	movi.n	a8, 0
    6fb3:	4189      	s32i.n	a8, a1, 16
    6fb5:	41d8      	l32i.n	a13, a1, 16
    6fb7:	03ad      	mov.n	a10, a3
    6fb9:	31b8      	l32i.n	a11, a1, 12
    6fbb:	1c0c      	movi.n	a12, 1
    6fbd:	492582        	l32i	a8, a5, 0x124
    6fc0:	fe7c      	movi.n	a14, -1
    6fc2:	0008e0        	excw
    6fc5:	0aec      	bnez.n	a10, 0x6fe9
    6fc7:	849c81        	l32r	a8, 0xfffe8238
    6fca:	5a0c      	movi.n	a10, 5
    6fcc:	dc2882        	l32i	a8, a8, 0x370
    6fcf:	03bd      	mov.n	a11, a3
    6fd1:	0008e0        	excw
    6fd4:	0b1a16        	beqz	a10, 0x7089
    6fd7:	849c81        	l32r	a8, 0xfffe8248
    6fda:	db2882        	l32i	a8, a8, 0x36c
    6fdd:	5a0c      	movi.n	a10, 5
    6fdf:	0008e0        	excw
    6fe2:	0a3a16        	beqz	a10, 0x7089
    6fe5:	190c      	movi.n	a9, 1
    6fe7:	d9fc      	bnez.n	a9, 0x7028
    6fe9:	04bd      	mov.n	a11, a4
    6feb:	1a1c      	movi.n	a10, 17
    6fed:	e02582        	l32i	a8, a5, 0x380
    6ff0:	06a9      	s32i.n	a10, a6, 0
    6ff2:	0008e0        	excw
    6ff5:	000606        	j	0x7011
    6ff8:	851791        	l32r	a9, 0xfffe8454
    6ffb:	10ff90        	and	a15, a15, a9
    6ffe:	ffcac6        	j	0x6f2d
    7001:	03ad      	mov.n	a10, a3
    7003:	04dd      	mov.n	a13, a4
    7005:	31b8      	l32i.n	a11, a1, 12
    7007:	21c8      	l32i.n	a12, a1, 8
    7009:	472582        	l32i	a8, a5, 0x11c
    700c:	ae0c      	movi.n	a14, 10
    700e:	0008e0        	excw
    7011:	0628      	l32i.n	a2, a6, 0
    7013:	f01d      	excw
    7015:	02ad      	mov.n	a10, a2
    7017:	03bd      	mov.n	a11, a3
    7019:	04cd      	mov.n	a12, a4
    701b:	06ed      	mov.n	a14, a6
    701d:	952582        	l32i	a8, a5, 0x254
    7020:	07fd      	mov.n	a15, a7
    7022:	0008e0        	excw
    7025:	ff9486        	j	0x6e7b
    7028:	04bd      	mov.n	a11, a4
    702a:	8518a1        	l32r	a10, 0xfffe848c
    702d:	122392        	l32i	a9, a3, 72
    7030:	0c0c      	movi.n	a12, 0
    7032:	1343c2        	s8i	a12, a3, 19
    7035:	e02582        	l32i	a8, a5, 0x380
    7038:	2099a0        	or	a9, a9, a10
    703b:	126392        	s32i	a9, a3, 72
    703e:	06a8      	l32i.n	a10, a6, 0
    7040:	0008e0        	excw
    7043:	03ad      	mov.n	a10, a3
    7045:	6f2582        	l32i	a8, a5, 0x1bc
    7048:	2b0c      	movi.n	a11, 2
    704a:	0008e0        	excw
    704d:	050392        	l8ui	a9, a3, 5
    7050:	fad916        	beqz	a9, 0x7001
    7053:	1803a2        	l8ui	a10, a3, 24
    7056:	344ab6        	bltui	a10, 4, 0x708e
    7059:	849c81        	l32r	a8, 0xfffe82cc
    705c:	aa2c      	movi.n	a10, 42
    705e:	dc2882        	l32i	a8, a8, 0x370
    7061:	03bd      	mov.n	a11, a3
    7063:	0008e0        	excw
    7066:	4aac      	beqz.n	a10, 0x708e
    7068:	849c81        	l32r	a8, 0xfffe82d8
    706b:	db2882        	l32i	a8, a8, 0x36c
    706e:	aa2c      	movi.n	a10, 42
    7070:	0008e0        	excw
    7073:	7a9c      	beqz.n	a10, 0x708e
    7075:	03ad      	mov.n	a10, a3
    7077:	1b0c      	movi.n	a11, 1
    7079:	090c      	movi.n	a9, 0
    707b:	064392        	s8i	a9, a3, 6
    707e:	9d2582        	l32i	a8, a5, 0x274
    7081:	ac0c      	movi.n	a12, 10
    7083:	0008e0        	excw
    7086:	ffe1c6        	j	0x7011
    7089:	090c      	movi.n	a9, 0
    708b:	ffd606        	j	0x6fe7
    708e:	03ad      	mov.n	a10, a3
    7090:	6f2582        	l32i	a8, a5, 0x1bc
    7093:	04a1b2        	movi	a11, 0x104
    7096:	0008e0        	excw
    7099:	07ed      	mov.n	a14, a7
    709b:	b36b      	addi.n	a11, a3, 6
    709d:	2c0c      	movi.n	a12, 2
    709f:	0003d2        	l8ui	a13, a3, 0
    70a2:	851981        	l32r	a8, 0xfffe8508
    70a5:	0a0c      	movi.n	a10, 0
    70a7:	190c      	movi.n	a9, 1
    70a9:	134392        	s8i	a9, a3, 19
    70ac:	0643a2        	s8i	a10, a3, 6
    70af:	9888      	l32i.n	a8, a8, 36
    70b1:	f6a3a2        	movi	a10, 0x3f6
    70b4:	0008e0        	excw
    70b7:	02bd      	mov.n	a11, a2
    70b9:	d33b      	addi.n	a13, a3, 3
    70bb:	2a0c      	movi.n	a10, 2
    70bd:	8514c1        	l32r	a12, 0xfffe8510
    70c0:	1e2582        	l32i	a8, a5, 120
    70c3:	be1c      	movi.n	a14, 27
    70c5:	0008e0        	excw
    70c8:	ffd146        	j	0x7011
    70cb:	04bd      	mov.n	a11, a4
    70cd:	1a2c      	movi.n	a10, 33
    70cf:	192c      	movi.n	a9, 33
    70d1:	e02582        	l32i	a8, a5, 0x380
    70d4:	0699      	s32i.n	a9, a6, 0
    70d6:	0008e0        	excw
    70d9:	ffcd06        	j	0x7011
    70dc:	004136        	excw
    70df:	0332a5        	excw
    70e2:	02ad      	mov.n	a10, a2
    70e4:	851581        	l32r	a8, 0xfffe8538
    70e7:	03bd      	mov.n	a11, a3
    70e9:	2888      	l32i.n	a8, a8, 8
    70eb:	04cd      	mov.n	a12, a4
    70ed:	0008e0        	excw
    70f0:	f01d      	excw
    70f2:	360000        	excw
    70f5:	c20121        	l32r	a2, 0xffff78fc
    70f8:	bd16c1        	l32r	a12, 0xffff6550
    70fb:	614204        	excw
    70fe:	190c16        	beqz	a12, 0x7292
    7101:	0a0c      	movi.n	a10, 0
    7103:	0105d2        	l8ui	a13, a5, 1
    7106:	eba382        	movi	a8, 0x3eb
    7109:	c08480        	sub	a8, a4, a8
    710c:	1861d2        	s32i	a13, a1, 96
    710f:	0a51a2        	s16i	a10, a1, 20
    7112:	5d0c      	movi.n	a13, 5
    7114:	104192        	s8i	a9, a1, 16
    7117:	849641        	l32r	a4, 0xfffe8370
    711a:	005ca2        	s16i	a10, a12, 0
    711d:	02d492        	addmi	a9, a4, 0x200
    7120:	2fc816        	beqz	a8, 0x7420
    7123:	f6a3f2        	movi	a15, 0x3f6
    7126:	1661b2        	s32i	a11, a1, 88
    7129:	f2a382        	movi	a8, 0x3f2
    712c:	c08b80        	sub	a8, a11, a8
    712f:	316816        	beqz	a8, 0x7449
    7132:	f3a392        	movi	a9, 0x3f3
    7135:	c09b90        	sub	a9, a11, a9
    7138:	137916        	beqz	a9, 0x7273
    713b:	1661b2        	s32i	a11, a1, 88
    713e:	341bf7        	beq	a11, a15, 0x7176
    7141:	dda5c2        	movi	a12, 0x5dd
    7144:	461bc7        	beq	a11, a12, 0x718e
    7147:	dea5e2        	movi	a14, 0x5de
    714a:	c0ebe0        	sub	a14, a11, a14
    714d:	11be16        	beqz	a14, 0x726c
    7150:	851af1        	l32r	a15, 0xfffe85b8
    7153:	1661b2        	s32i	a11, a1, 88
    7156:	1c1bf7        	beq	a11, a15, 0x7176
    7159:	02cd      	mov.n	a12, a2
    715b:	05dd      	mov.n	a13, a5
    715d:	03ed      	mov.n	a14, a3
    715f:	552482        	l32i	a8, a4, 0x154
    7162:	06fd      	mov.n	a15, a6
    7164:	0008e0        	excw
    7167:	06a8      	l32i.n	a10, a6, 0
    7169:	000146        	j	0x7172
    716c:	0a0c      	movi.n	a10, 0
    716e:	090c      	movi.n	a9, 0
    7170:	0699      	s32i.n	a9, a6, 0
    7172:	0a2d      	mov.n	a2, a10
    7174:	f01d      	excw
    7176:	02ad      	mov.n	a10, a2
    7178:	03bd      	mov.n	a11, a3
    717a:	05dd      	mov.n	a13, a5
    717c:	06ed      	mov.n	a14, a6
    717e:	851581        	l32r	a8, 0xfffe85d4
    7181:	07fd      	mov.n	a15, a7
    7183:	3888      	l32i.n	a8, a8, 12
    7185:	1621c2        	l32i	a12, a1, 88
    7188:	0008e0        	excw
    718b:	fff8c6        	j	0x7172
    718e:	06a9      	s32i.n	a10, a6, 0
    7190:	8ca052        	movi	a5, 140
    7193:	535a      	add.n	a5, a3, a5
    7195:	03ad      	mov.n	a10, a3
    7197:	702482        	l32i	a8, a4, 0x1c0
    719a:	8b0c      	movi.n	a11, 8
    719c:	0008e0        	excw
    719f:	252482        	l32i	a8, a4, 148
    71a2:	05ad      	mov.n	a10, a5
    71a4:	0008e0        	excw
    71a7:	851b71        	l32r	a7, 0xfffe8614
    71aa:	851c91        	l32r	a9, 0xfffe861c
    71ad:	1223e2        	l32i	a14, a3, 72
    71b0:	1f0c      	movi.n	a15, 1
    71b2:	20eef0        	or	a14, a14, a15
    71b5:	1263e2        	s32i	a14, a3, 72
    71b8:	048e97        	bany	a14, a9, 0x71c0
    71bb:	d388      	l32i.n	a8, a3, 52
    71bd:	3e68d7        	bbci	a8, 13, 0x71ff
    71c0:	05bd      	mov.n	a11, a5
    71c2:	40c1a2        	addi	a10, a1, 64
    71c5:	6c0c      	movi.n	a12, 6
    71c7:	048fe5        	excw
    71ca:	46c1a2        	addi	a10, a1, 70
    71cd:	70c3b2        	addi	a11, a3, 112
    71d0:	0c1c      	movi.n	a12, 16
    71d2:	048f25        	excw
    71d5:	090c      	movi.n	a9, 0
    71d7:	564192        	s8i	a9, a1, 86
    71da:	d3f8      	l32i.n	a15, a3, 52
    71dc:	136fd7        	bbci	a15, 13, 0x71f3
    71df:	8488a1        	l32r	a10, 0xfffe8400
    71e2:	111aa2        	l16ui	a10, a10, 34
    71e5:	390c      	movi.n	a9, 3
    71e7:	05ea17        	bbsi	a10, 1, 0x71f0
    71ea:	04bef0        	extui	a11, a15, 14, 1
    71ed:	51ab16        	beqz	a11, 0x770b
    71f0:	564192        	s8i	a9, a1, 86
    71f3:	e72482        	l32i	a8, a4, 0x39c
    71f6:	40c1a2        	addi	a10, a1, 64
    71f9:	0008e0        	excw
    71fc:	1223e2        	l32i	a14, a3, 72
    71ff:	07feb7        	bbsi	a14, 27, 0x720a
    7202:	d398      	l32i.n	a9, a3, 52
    7204:	049d90        	extui	a9, a9, 13, 1
    7207:	15d916        	beqz	a9, 0x7368
    720a:	05a4e0        	extui	a10, a14, 20, 1
    720d:	157a56        	bnez	a10, 0x7368
    7210:	05b3e0        	extui	a11, a14, 19, 1
    7213:	369b56        	bnez	a11, 0x7580
    7216:	0503c2        	l8ui	a12, a3, 5
    7219:	cc0b      	addi.n	a12, a12, -1
    721b:	361c56        	bnez	a12, 0x7580
    721e:	0e0c      	movi.n	a14, 0
    7220:	1803d2        	l8ui	a13, a3, 24
    7223:	0643e2        	s8i	a14, a3, 6
    7226:	024df6        	bgeui	a13, 4, 0x722c
    7229:	013086        	j	0x76ef
    722c:	849c81        	l32r	a8, 0xfffe849c
    722f:	aa2c      	movi.n	a10, 42
    7231:	dc2882        	l32i	a8, a8, 0x370
    7234:	03bd      	mov.n	a11, a3
    7236:	0008e0        	excw
    7239:	4b2a16        	beqz	a10, 0x76ef
    723c:	849c81        	l32r	a8, 0xfffe84ac
    723f:	db2882        	l32i	a8, a8, 0x36c
    7242:	aa2c      	movi.n	a10, 42
    7244:	0008e0        	excw
    7247:	4a4a16        	beqz	a10, 0x76ef
    724a:	03ad      	mov.n	a10, a3
    724c:	1b0c      	movi.n	a11, 1
    724e:	9d2482        	l32i	a8, a4, 0x274
    7251:	0c2c      	movi.n	a12, 32
    7253:	0008e0        	excw
    7256:	d398      	l32i.n	a9, a3, 52
    7258:	049d90        	extui	a9, a9, 13, 1
    725b:	104916        	beqz	a9, 0x7363
    725e:	03bd      	mov.n	a11, a3
    7260:	e82482        	l32i	a8, a4, 0x3a0
    7263:	0006a2        	l8ui	a10, a6, 0
    7266:	0008e0        	excw
    7269:	003d86        	j	0x7363
    726c:	0dad      	mov.n	a10, a13
    726e:	06d9      	s32i.n	a13, a6, 0
    7270:	001806        	j	0x72d4
    7273:	2a0c      	movi.n	a10, 2
    7275:	02bd      	mov.n	a11, a2
    7277:	142482        	l32i	a8, a4, 80
    727a:	0303c2        	l8ui	a12, a3, 3
    727d:	0008e0        	excw
    7280:	2a0c      	movi.n	a10, 2
    7282:	03bd      	mov.n	a11, a3
    7284:	090c      	movi.n	a9, 0
    7286:	f488      	l32i.n	a8, a4, 60
    7288:	0699      	s32i.n	a9, a6, 0
    728a:	0008e0        	excw
    728d:	20c1d2        	addi	a13, a1, 32
    7290:	851d81        	l32r	a8, 0xfffe8704
    7293:	0abd      	mov.n	a11, a10
    7295:	8ca0c2        	movi	a12, 140
    7298:	70c3a2        	addi	a10, a3, 112
    729b:	c3ca      	add.n	a12, a3, a12
    729d:	182882        	l32i	a8, a8, 96
    72a0:	1761c2        	s32i	a12, a1, 92
    72a3:	0008e0        	excw
    72a6:	24c1b2        	addi	a11, a1, 36
    72a9:	cc0c      	movi.n	a12, 12
    72ab:	80a0a2        	movi	a10, 128
    72ae:	a3aa      	add.n	a10, a3, a10
    72b0:	048125        	excw
    72b3:	05ad      	mov.n	a10, a5
    72b5:	20c1b2        	addi	a11, a1, 32
    72b8:	4c0c      	movi.n	a12, 4
    72ba:	047825        	excw
    72bd:	172152        	l32i	a5, a1, 92
    72c0:	381a16        	beqz	a10, 0x7645
    72c3:	05ad      	mov.n	a10, a5
    72c5:	74b020        	extui	a11, a2, 0, 8
    72c8:	590c      	movi.n	a9, 5
    72ca:	242482        	l32i	a8, a4, 144
    72cd:	0699      	s32i.n	a9, a6, 0
    72cf:	0008e0        	excw
    72d2:	06a8      	l32i.n	a10, a6, 0
    72d4:	eacc      	bnez.n	a10, 0x72e6
    72d6:	851eb1        	l32r	a11, 0xfffe8750
    72d9:	1223a2        	l32i	a10, a3, 72
    72dc:	10aab0        	and	a10, a10, a11
    72df:	1263a2        	s32i	a10, a3, 72
    72e2:	06a8      	l32i.n	a10, a6, 0
    72e4:	aa9c      	beqz.n	a10, 0x7302
    72e6:	0103c2        	l8ui	a12, a3, 1
    72e9:	233c26        	beqi	a12, 3, 0x7310
    72ec:	d12482        	l32i	a8, a4, 0x344
    72ef:	03bd      	mov.n	a11, a3
    72f1:	0008e0        	excw
    72f4:	02cd      	mov.n	a12, a2
    72f6:	1a0c      	movi.n	a10, 1
    72f8:	06b8      	l32i.n	a11, a6, 0
    72fa:	512482        	l32i	a8, a4, 0x144
    72fd:	03dd      	mov.n	a13, a3
    72ff:	0008e0        	excw
    7302:	03bd      	mov.n	a11, a3
    7304:	e82482        	l32i	a8, a4, 0x3a0
    7307:	0006a2        	l8ui	a10, a6, 0
    730a:	0008e0        	excw
    730d:	ff9586        	j	0x7167
    7310:	122392        	l32i	a9, a3, 72
    7313:	146927        	bbci	a9, 2, 0x732b
    7316:	732482        	l32i	a8, a4, 0x1cc
    7319:	03ad      	mov.n	a10, a3
    731b:	0008e0        	excw
    731e:	091a26        	beqi	a10, 1, 0x732b
    7321:	03ad      	mov.n	a10, a3
    7323:	702482        	l32i	a8, a4, 0x1c0
    7326:	8b0c      	movi.n	a11, 8
    7328:	0008e0        	excw
    732b:	84b851        	l32r	a5, 0xfffe860c
    732e:	0006a2        	l8ui	a10, a6, 0
    7331:	452482        	l32i	a8, a4, 0x114
    7334:	03bd      	mov.n	a11, a3
    7336:	0008e0        	excw
    7339:	1223e2        	l32i	a14, a3, 72
    733c:	028e57        	bany	a14, a5, 0x7342
    733f:	003486        	j	0x7415
    7342:	0593e0        	extui	a9, a14, 19, 1
    7345:	0cc956        	bnez	a9, 0x7415
    7348:	02bd      	mov.n	a11, a2
    734a:	d33b      	addi.n	a13, a3, 3
    734c:	2a0c      	movi.n	a10, 2
    734e:	8514c1        	l32r	a12, 0xfffe87a0
    7351:	9e1c      	movi.n	a14, 25
    7353:	8513f1        	l32r	a15, 0xfffe87a0
    7356:	d398      	l32i.n	a9, a3, 52
    7358:	1e2482        	l32i	a8, a4, 120
    735b:	2099f0        	or	a9, a9, a15
    735e:	d399      	s32i.n	a9, a3, 52
    7360:	0008e0        	excw
    7363:	0a0c      	movi.n	a10, 0
    7365:	ff8246        	j	0x7172
    7368:	2f23f2        	l32i	a15, a3, 188
    736b:	0fac      	beqz.n	a15, 0x738f
    736d:	001f82        	l16ui	a8, a15, 0
    7370:	f6a392        	movi	a9, 0x3f6
    7373:	189897        	bne	a8, a9, 0x738f
    7376:	02ad      	mov.n	a10, a2
    7378:	03bd      	mov.n	a11, a3
    737a:	f6a3c2        	movi	a12, 0x3f6
    737d:	10c1d2        	addi	a13, a1, 16
    7380:	851f91        	l32r	a9, 0xfffe87fc
    7383:	572482        	l32i	a8, a4, 0x15c
    7386:	005f92        	s16i	a9, a15, 0
    7389:	0008e0        	excw
    738c:	ffd086        	j	0x72d2
    738f:	8d07a2        	l8ui	a10, a7, 141
    7392:	010392        	l8ui	a9, a3, 1
    7395:	3d1a66        	bnei	a10, 1, 0x73d6
    7398:	3a3926        	beqi	a9, 3, 0x73d6
    739b:	849c81        	l32r	a8, 0xfffe860c
    739e:	2a0c      	movi.n	a10, 2
    73a0:	dc2882        	l32i	a8, a8, 0x370
    73a3:	03bd      	mov.n	a11, a3
    73a5:	0008e0        	excw
    73a8:	37fa16        	beqz	a10, 0x772b
    73ab:	849c81        	l32r	a8, 0xfffe861c
    73ae:	db2882        	l32i	a8, a8, 0x36c
    73b1:	2a0c      	movi.n	a10, 2
    73b3:	0008e0        	excw
    73b6:	371a16        	beqz	a10, 0x772b
    73b9:	d33b      	addi.n	a13, a3, 3
    73bb:	122392        	l32i	a9, a3, 72
    73be:	1e24f2        	l32i	a15, a4, 120
    73c1:	059390        	extui	a9, a9, 19, 1
    73c4:	332956        	bnez	a9, 0x76fa
    73c7:	2a0c      	movi.n	a10, 2
    73c9:	02bd      	mov.n	a11, a2
    73cb:	f4a1c2        	movi	a12, 0x1f4
    73ce:	0e3c      	movi.n	a14, 48
    73d0:	000fe0        	excw
    73d3:	00cbc6        	j	0x7706
    73d6:	851eb1        	l32r	a11, 0xfffe8850
    73d9:	fdc9a2        	addi	a10, a9, -3
    73dc:	10beb0        	and	a11, a14, a11
    73df:	1263b2        	s32i	a11, a3, 72
    73e2:	2bba16        	beqz	a10, 0x76a1
    73e5:	851951        	l32r	a5, 0xfffe884c
    73e8:	582482        	l32i	a8, a4, 0x160
    73eb:	03ad      	mov.n	a10, a3
    73ed:	0008e0        	excw
    73f0:	16a4a2        	movi	a10, 0x416
    73f3:	0b0c      	movi.n	a11, 0
    73f5:	2c0c      	movi.n	a12, 2
    73f7:	0003d2        	l8ui	a13, a3, 0
    73fa:	272582        	l32i	a8, a5, 156
    73fd:	3e0c      	movi.n	a14, 3
    73ff:	0008e0        	excw
    7402:	d398      	l32i.n	a9, a3, 52
    7404:	2d6917        	bbci	a9, 1, 0x7435
    7407:	03ad      	mov.n	a10, a3
    7409:	592482        	l32i	a8, a4, 0x164
    740c:	74b020        	extui	a11, a2, 0, 8
    740f:	0008e0        	excw
    7412:	ffaf06        	j	0x72d2
    7415:	3e2482        	l32i	a8, a4, 248
    7418:	03ad      	mov.n	a10, a3
    741a:	0008e0        	excw
    741d:	ffb846        	j	0x7302
    7420:	05ad      	mov.n	a10, a5
    7422:	f2a3b2        	movi	a11, 0x3f2
    7425:	eb2982        	l32i	a8, a9, 0x3ac
    7428:	0c0c      	movi.n	a12, 0
    742a:	0008e0        	excw
    742d:	060a56        	bnez	a10, 0x7491
    7430:	ca0c      	movi.n	a10, 12
    7432:	ff4f06        	j	0x7172
    7435:	2a0c      	movi.n	a10, 2
    7437:	02bd      	mov.n	a11, a2
    7439:	8514c1        	l32r	a12, 0xfffe888c
    743c:	d33b      	addi.n	a13, a3, 3
    743e:	1e2482        	l32i	a8, a4, 120
    7441:	3e1c      	movi.n	a14, 19
    7443:	0008e0        	excw
    7446:	ffa206        	j	0x72d2
    7449:	2a0c      	movi.n	a10, 2
    744b:	02bd      	mov.n	a11, a2
    744d:	142482        	l32i	a8, a4, 80
    7450:	0303c2        	l8ui	a12, a3, 3
    7453:	0008e0        	excw
    7456:	0a0c      	movi.n	a10, 0
    7458:	06a9      	s32i.n	a10, a6, 0
    745a:	d3f8      	l32i.n	a15, a3, 52
    745c:	0598f0        	extui	a9, a15, 24, 1
    745f:	0c7916        	beqz	a9, 0x752a
    7462:	02ad      	mov.n	a10, a2
    7464:	05cd      	mov.n	a12, a5
    7466:	06dd      	mov.n	a13, a6
    7468:	07ed      	mov.n	a14, a7
    746a:	03bd      	mov.n	a11, a3
    746c:	852091        	l32r	a9, 0xfffe88ec
    746f:	3b2482        	l32i	a8, a4, 236
    7472:	109f90        	and	a9, a15, a9
    7475:	d399      	s32i.n	a9, a3, 52
    7477:	0008e0        	excw
    747a:	5a0c      	movi.n	a10, 5
    747c:	e82482        	l32i	a8, a4, 0x3a0
    747f:	03bd      	mov.n	a11, a3
    7481:	0008e0        	excw
    7484:	3e2482        	l32i	a8, a4, 248
    7487:	03ad      	mov.n	a10, a3
    7489:	0008e0        	excw
    748c:	5a0c      	movi.n	a10, 5
    748e:	ff3806        	j	0x7172
    7491:	2a0c      	movi.n	a10, 2
    7493:	02bd      	mov.n	a11, a2
    7495:	142482        	l32i	a8, a4, 80
    7498:	090c      	movi.n	a9, 0
    749a:	0699      	s32i.n	a9, a6, 0
    749c:	0303c2        	l8ui	a12, a3, 3
    749f:	0008e0        	excw
    74a2:	1223a2        	l32i	a10, a3, 72
    74a5:	04ada0        	extui	a10, a10, 13, 1
    74a8:	0f2a56        	bnez	a10, 0x759e
    74ab:	8488b1        	l32r	a11, 0xfffe86cc
    74ae:	111bb2        	l16ui	a11, a11, 34
    74b1:	04b0b0        	extui	a11, a11, 0, 1
    74b4:	1f4b16        	beqz	a11, 0x76ac
    74b7:	849c81        	l32r	a8, 0xfffe8728
    74ba:	3a3c      	movi.n	a10, 51
    74bc:	dc2882        	l32i	a8, a8, 0x370
    74bf:	03bd      	mov.n	a11, a3
    74c1:	0008e0        	excw
    74c4:	1e4a16        	beqz	a10, 0x76ac
    74c7:	849c81        	l32r	a8, 0xfffe8738
    74ca:	db2882        	l32i	a8, a8, 0x36c
    74cd:	3a3c      	movi.n	a10, 51
    74cf:	0008e0        	excw
    74d2:	1d6a16        	beqz	a10, 0x76ac
    74d5:	849c81        	l32r	a8, 0xfffe8748
    74d8:	4a3c      	movi.n	a10, 52
    74da:	dc2882        	l32i	a8, a8, 0x370
    74dd:	03bd      	mov.n	a11, a3
    74df:	0008e0        	excw
    74e2:	1c6a16        	beqz	a10, 0x76ac
    74e5:	849c81        	l32r	a8, 0xfffe8758
    74e8:	db2882        	l32i	a8, a8, 0x36c
    74eb:	4a3c      	movi.n	a10, 52
    74ed:	0008e0        	excw
    74f0:	1b8a16        	beqz	a10, 0x76ac
    74f3:	849c81        	l32r	a8, 0xfffe8764
    74f6:	0a4c      	movi.n	a10, 64
    74f8:	dc2882        	l32i	a8, a8, 0x370
    74fb:	03bd      	mov.n	a11, a3
    74fd:	0008e0        	excw
    7500:	1a8a16        	beqz	a10, 0x76ac
    7503:	849c81        	l32r	a8, 0xfffe8774
    7506:	db2882        	l32i	a8, a8, 0x36c
    7509:	0a4c      	movi.n	a10, 64
    750b:	0008e0        	excw
    750e:	19aa16        	beqz	a10, 0x76ac
    7511:	03ad      	mov.n	a10, a3
    7513:	07ed      	mov.n	a14, a7
    7515:	74b020        	extui	a11, a2, 0, 8
    7518:	1621f2        	l32i	a15, a1, 88
    751b:	1c0c      	movi.n	a12, 1
    751d:	0159      	s32i.n	a5, a1, 0
    751f:	af2482        	l32i	a8, a4, 0x2bc
    7522:	06dd      	mov.n	a13, a6
    7524:	0008e0        	excw
    7527:	ff0f06        	j	0x7167
    752a:	84edf1        	l32r	a15, 0xfffe88e0
    752d:	0272a6        	blti	a2, 7, 0x7533
    7530:	002906        	j	0x75d8
    7533:	07ed      	mov.n	a14, a7
    7535:	84ed51        	l32r	a5, 0xfffe88ec
    7538:	8517a1        	l32r	a10, 0xfffe8994
    753b:	122392        	l32i	a9, a3, 72
    753e:	1621b2        	l32i	a11, a1, 88
    7541:	3c2c      	movi.n	a12, 35
    7543:	849c81        	l32r	a8, 0xfffe87b4
    7546:	0b51c2        	s16i	a12, a1, 22
    7549:	2c0c      	movi.n	a12, 2
    754b:	fd2882        	l32i	a8, a8, 0x3f4
    754e:	0a51b2        	s16i	a11, a1, 20
    7551:	0003d2        	l8ui	a13, a3, 0
    7554:	14c1b2        	addi	a11, a1, 20
    7557:	1099a0        	and	a9, a9, a10
    755a:	126392        	s32i	a9, a3, 72
    755d:	eba3a2        	movi	a10, 0x3eb
    7560:	0008e0        	excw
    7563:	02bd      	mov.n	a11, a2
    7565:	d33b      	addi.n	a13, a3, 3
    7567:	2a0c      	movi.n	a10, 2
    7569:	8514c1        	l32r	a12, 0xfffe89bc
    756c:	9e1c      	movi.n	a14, 25
    756e:	122392        	l32i	a9, a3, 72
    7571:	1e2482        	l32i	a8, a4, 120
    7574:	209950        	or	a9, a9, a5
    7577:	126392        	s32i	a9, a3, 72
    757a:	0008e0        	excw
    757d:	ff7886        	j	0x7363
    7580:	3e2482        	l32i	a8, a4, 248
    7583:	03ad      	mov.n	a10, a3
    7585:	0008e0        	excw
    7588:	1223e2        	l32i	a14, a3, 72
    758b:	059be0        	extui	a9, a14, 27, 1
    758e:	dd6916        	beqz	a9, 0x7368
    7591:	03bd      	mov.n	a11, a3
    7593:	452482        	l32i	a8, a4, 0x114
    7596:	0a0c      	movi.n	a10, 0
    7598:	0008e0        	excw
    759b:	ff7106        	j	0x7363
    759e:	182192        	l32i	a9, a1, 96
    75a1:	d6c992        	addi	a9, a9, -42
    75a4:	bc4916        	beqz	a9, 0x716c
    75a7:	1821b2        	l32i	a11, a1, 96
    75aa:	ddcbb2        	addi	a11, a11, -35
    75ad:	bbbb16        	beqz	a11, 0x716c
    75b0:	5e0c      	movi.n	a14, 5
    75b2:	06e9      	s32i.n	a14, a6, 0
    75b4:	0103d2        	l8ui	a13, a3, 1
    75b7:	fdcdd2        	addi	a13, a13, -3
    75ba:	1b4d16        	beqz	a13, 0x7772
    75bd:	5a0c      	movi.n	a10, 5
    75bf:	d12482        	l32i	a8, a4, 0x344
    75c2:	03bd      	mov.n	a11, a3
    75c4:	0008e0        	excw
    75c7:	02cd      	mov.n	a12, a2
    75c9:	03dd      	mov.n	a13, a3
    75cb:	1a0c      	movi.n	a10, 1
    75cd:	512482        	l32i	a8, a4, 0x144
    75d0:	06b8      	l32i.n	a11, a6, 0
    75d2:	0008e0        	excw
    75d5:	004446        	j	0x76ea
    75d8:	05cd      	mov.n	a12, a5
    75da:	02ad      	mov.n	a10, a2
    75dc:	03bd      	mov.n	a11, a3
    75de:	06dd      	mov.n	a13, a6
    75e0:	07ed      	mov.n	a14, a7
    75e2:	122392        	l32i	a9, a3, 72
    75e5:	3b2482        	l32i	a8, a4, 236
    75e8:	2099f0        	or	a9, a9, a15
    75eb:	126392        	s32i	a9, a3, 72
    75ee:	0008e0        	excw
    75f1:	1223e2        	l32i	a14, a3, 72
    75f4:	05a4e0        	extui	a10, a14, 20, 1
    75f7:	b95a16        	beqz	a10, 0x7190
    75fa:	2a0c      	movi.n	a10, 2
    75fc:	03bd      	mov.n	a11, a3
    75fe:	852191        	l32r	a9, 0xfffe8a84
    7601:	f488      	l32i.n	a8, a4, 60
    7603:	109e90        	and	a9, a14, a9
    7606:	126392        	s32i	a9, a3, 72
    7609:	0008e0        	excw
    760c:	562482        	l32i	a8, a4, 0x158
    760f:	0b1c      	movi.n	a11, 16
    7611:	0008e0        	excw
    7614:	851951        	l32r	a5, 0xfffe8a78
    7617:	2a0c      	movi.n	a10, 2
    7619:	f488      	l32i.n	a8, a4, 60
    761b:	03bd      	mov.n	a11, a3
    761d:	0008e0        	excw
    7620:	07ed      	mov.n	a14, a7
    7622:	2c0c      	movi.n	a12, 2
    7624:	0003d2        	l8ui	a13, a3, 0
    7627:	0abd      	mov.n	a11, a10
    7629:	5588      	l32i.n	a8, a5, 20
    762b:	f2a3a2        	movi	a10, 0x3f2
    762e:	0008e0        	excw
    7631:	02bd      	mov.n	a11, a2
    7633:	d33b      	addi.n	a13, a3, 3
    7635:	2a0c      	movi.n	a10, 2
    7637:	8514c1        	l32r	a12, 0xfffe8a88
    763a:	1e2482        	l32i	a8, a4, 120
    763d:	9e1c      	movi.n	a14, 25
    763f:	0008e0        	excw
    7642:	ff4746        	j	0x7363
    7645:	1223e2        	l32i	a14, a3, 72
    7648:	0594e0        	extui	a9, a14, 20, 1
    764b:	b46916        	beqz	a9, 0x7195
    764e:	8521a1        	l32r	a10, 0xfffe8ad4
    7651:	533b      	addi.n	a5, a3, 3
    7653:	10aea0        	and	a10, a14, a10
    7656:	1263a2        	s32i	a10, a3, 72
    7659:	05a3a0        	extui	a10, a10, 19, 1
    765c:	0fea16        	beqz	a10, 0x775e
    765f:	2a0c      	movi.n	a10, 2
    7661:	f488      	l32i.n	a8, a4, 60
    7663:	03bd      	mov.n	a11, a3
    7665:	0008e0        	excw
    7668:	562482        	l32i	a8, a4, 0x158
    766b:	0b1c      	movi.n	a11, 16
    766d:	0008e0        	excw
    7670:	851961        	l32r	a6, 0xfffe8ad4
    7673:	2a0c      	movi.n	a10, 2
    7675:	f488      	l32i.n	a8, a4, 60
    7677:	03bd      	mov.n	a11, a3
    7679:	0008e0        	excw
    767c:	07ed      	mov.n	a14, a7
    767e:	0003d2        	l8ui	a13, a3, 0
    7681:	2c0c      	movi.n	a12, 2
    7683:	0abd      	mov.n	a11, a10
    7685:	5688      	l32i.n	a8, a6, 20
    7687:	f2a3a2        	movi	a10, 0x3f2
    768a:	0008e0        	excw
    768d:	02bd      	mov.n	a11, a2
    768f:	05dd      	mov.n	a13, a5
    7691:	2a0c      	movi.n	a10, 2
    7693:	8514c1        	l32r	a12, 0xfffe8ae4
    7696:	1e2482        	l32i	a8, a4, 120
    7699:	9e1c      	movi.n	a14, 25
    769b:	0008e0        	excw
    769e:	ff3046        	j	0x7363
    76a1:	3e2482        	l32i	a8, a4, 248
    76a4:	03ad      	mov.n	a10, a3
    76a6:	0008e0        	excw
    76a9:	ff0946        	j	0x72d2
    76ac:	2a0c      	movi.n	a10, 2
    76ae:	02bd      	mov.n	a11, a2
    76b0:	8514c1        	l32r	a12, 0xfffe8b00
    76b3:	d33b      	addi.n	a13, a3, 3
    76b5:	1e2482        	l32i	a8, a4, 120
    76b8:	8e0c      	movi.n	a14, 8
    76ba:	0008e0        	excw
    76bd:	842581        	l32r	a8, 0xfffe8754
    76c0:	d888      	l32i.n	a8, a8, 52
    76c2:	6a1c      	movi.n	a10, 22
    76c4:	0008e0        	excw
    76c7:	8ca0d2        	movi	a13, 140
    76ca:	d3da      	add.n	a13, a3, a13
    76cc:	2a9c      	beqz.n	a10, 0x76e2
    76ce:	02ad      	mov.n	a10, a2
    76d0:	03bd      	mov.n	a11, a3
    76d2:	07fd      	mov.n	a15, a7
    76d4:	72a0c2        	movi	a12, 114
    76d7:	7f2482        	l32i	a8, a4, 0x1fc
    76da:	06ed      	mov.n	a14, a6
    76dc:	0008e0        	excw
    76df:	0001c6        	j	0x76ea
    76e2:	e62482        	l32i	a8, a4, 0x398
    76e5:	0dad      	mov.n	a10, a13
    76e7:	0008e0        	excw
    76ea:	06a8      	l32i.n	a10, a6, 0
    76ec:	fea086        	j	0x7172
    76ef:	3e2482        	l32i	a8, a4, 248
    76f2:	03ad      	mov.n	a10, a3
    76f4:	0008e0        	excw
    76f7:	ffa346        	j	0x7588
    76fa:	2a0c      	movi.n	a10, 2
    76fc:	02bd      	mov.n	a11, a2
    76fe:	e8a3c2        	movi	a12, 0x3e8
    7701:	0e3c      	movi.n	a14, 48
    7703:	000fe0        	excw
    7706:	06a8      	l32i.n	a10, a6, 0
    7708:	fef206        	j	0x72d4
    770b:	2e23b2        	l32i	a11, a3, 184
    770e:	ae0b92        	l8ui	a9, a11, 174
    7711:	1f1926        	beqi	a9, 1, 0x7734
    7714:	1c3926        	beqi	a9, 3, 0x7734
    7717:	195926        	beqi	a9, 5, 0x7734
    771a:	9e0792        	l8ui	a9, a7, 158
    771d:	131926        	beqi	a9, 1, 0x7734
    7720:	103926        	beqi	a9, 3, 0x7734
    7723:	0d5926        	beqi	a9, 5, 0x7734
    7726:	490c      	movi.n	a9, 4
    7728:	feb106        	j	0x71f0
    772b:	aa1c      	movi.n	a10, 26
    772d:	a91c      	movi.n	a9, 26
    772f:	0699      	s32i.n	a9, a6, 0
    7731:	fee7c6        	j	0x72d4
    7734:	8522d1        	l32r	a13, 0xfffe8bbc
    7737:	9c07c2        	l8ui	a12, a7, 156
    773a:	ac0ba2        	l8ui	a10, a11, 172
    773d:	14c0c0        	extui	a12, a12, 0, 2
    7740:	14a0a0        	extui	a10, a10, 0, 2
    7743:	a0aad0        	addx4	a10, a10, a13
    7746:	aaca      	add.n	a10, a10, a12
    7748:	000aa2        	l8ui	a10, a10, 0
    774b:	aacc      	bnez.n	a10, 0x7759
    774d:	9d07d2        	l8ui	a13, a7, 157
    7750:	051d26        	beqi	a13, 1, 0x7759
    7753:	ad0be2        	l8ui	a14, a11, 173
    7756:	cc1e66        	bnei	a14, 1, 0x7726
    7759:	590c      	movi.n	a9, 5
    775b:	fea446        	j	0x71f0
    775e:	02bd      	mov.n	a11, a2
    7760:	05dd      	mov.n	a13, a5
    7762:	2a0c      	movi.n	a10, 2
    7764:	8514c1        	l32r	a12, 0xfffe8bb4
    7767:	1e2482        	l32i	a8, a4, 120
    776a:	2e1c      	movi.n	a14, 18
    776c:	0008e0        	excw
    776f:	fefc06        	j	0x7363
    7772:	3e2482        	l32i	a8, a4, 248
    7775:	03ad      	mov.n	a10, a3
    7777:	0008e0        	excw
    777a:	ffdb06        	j	0x76ea
    777d:	000000        	ill
    7780:	006136        	excw
    7783:	75a082        	movi	a8, 117
    7786:	1c9587        	bne	a5, a8, 0x77a6
    7789:	f92c      	movi.n	a9, 47
    778b:	17b927        	bgeu	a9, a2, 0x77a6
    778e:	7a3c      	movi.n	a10, 55
    7790:	123a27        	bltu	a10, a2, 0x77a6
    7793:	05bd      	mov.n	a11, a5
    7795:	849681        	l32r	a8, 0xfffe89f0
    7798:	0a0c      	movi.n	a10, 0
    779a:	e02882        	l32i	a8, a8, 0x380
    779d:	07a9      	s32i.n	a10, a7, 0
    779f:	0008e0        	excw
    77a2:	0728      	l32i.n	a2, a7, 0
    77a4:	f01d      	excw
    77a6:	02ad      	mov.n	a10, a2
    77a8:	03bd      	mov.n	a11, a3
    77aa:	04cd      	mov.n	a12, a4
    77ac:	05dd      	mov.n	a13, a5
    77ae:	06ed      	mov.n	a14, a6
    77b0:	851581        	l32r	a8, 0xfffe8c04
    77b3:	c198      	l32i.n	a9, a1, 48
    77b5:	0199      	s32i.n	a9, a1, 0
    77b7:	4888      	l32i.n	a8, a8, 16
    77b9:	07fd      	mov.n	a15, a7
    77bb:	0008e0        	excw
    77be:	0a2d      	mov.n	a2, a10
    77c0:	f01d      	excw
    77c2:	360000        	excw
    77c5:	dd0041        	l32r	a4, 0xffffebc8
    77c8:	a08205        	call0	0xfffa7fec
    77cb:	516c      	movi.n	a1, -27
    77cd:	878496        	bltz	a4, 0x7049
    77d0:	913413        	excw
    77d3:	851a      	add.n	a8, a5, a1
    77d5:	131397        	beq	a3, a9, 0x77ec
    77d8:	02ad      	mov.n	a10, a2
    77da:	03bd      	mov.n	a11, a3
    77dc:	04cd      	mov.n	a12, a4
    77de:	851581        	l32r	a8, 0xfffe8c34
    77e1:	06ed      	mov.n	a14, a6
    77e3:	5888      	l32i.n	a8, a8, 20
    77e5:	07fd      	mov.n	a15, a7
    77e7:	0008e0        	excw
    77ea:	f01d      	excw
    77ec:	ffa216        	beqz	a2, 0x77ea
    77ef:	2b2c      	movi.n	a11, 34
    77f1:	07b9      	s32i.n	a11, a7, 0
    77f3:	010692        	l8ui	a9, a6, 1
    77f6:	533926        	beqi	a9, 3, 0x784d
    77f9:	04cd      	mov.n	a12, a4
    77fb:	06dd      	mov.n	a13, a6
    77fd:	512582        	l32i	a8, a5, 0x144
    7800:	1a0c      	movi.n	a10, 1
    7802:	0008e0        	excw
    7805:	f01d      	excw
    7807:	d698      	l32i.n	a9, a6, 52
    7809:	bf0c      	movi.n	a15, 11
    780b:	376907        	bbci	a9, 0, 0x7846
    780e:	be0c      	movi.n	a14, 11
    7810:	07e9      	s32i.n	a14, a7, 0
    7812:	03ad      	mov.n	a10, a3
    7814:	74b0f0        	extui	a11, a15, 0, 8
    7817:	6c0c      	movi.n	a12, 6
    7819:	8ca0d2        	movi	a13, 140
    781c:	e22582        	l32i	a8, a5, 0x388
    781f:	d6da      	add.n	a13, a6, a13
    7821:	0008e0        	excw
    7824:	07e8      	l32i.n	a14, a7, 0
    7826:	fc0e56        	bnez	a14, 0x77ea
    7829:	2a0c      	movi.n	a10, 2
    782b:	04bd      	mov.n	a11, a4
    782d:	142582        	l32i	a8, a5, 80
    7830:	0306c2        	l8ui	a12, a6, 3
    7833:	0008e0        	excw
    7836:	04cd      	mov.n	a12, a4
    7838:	06dd      	mov.n	a13, a6
    783a:	1a0c      	movi.n	a10, 1
    783c:	512582        	l32i	a8, a5, 0x144
    783f:	6b1c      	movi.n	a11, 22
    7841:	0008e0        	excw
    7844:	f01d      	excw
    7846:	0e0c      	movi.n	a14, 0
    7848:	0f0c      	movi.n	a15, 0
    784a:	fff086        	j	0x7810
    784d:	0007a2        	l8ui	a10, a7, 0
    7850:	452582        	l32i	a8, a5, 0x114
    7853:	06bd      	mov.n	a11, a6
    7855:	0008e0        	excw
    7858:	3e2582        	l32i	a8, a5, 248
    785b:	06ad      	mov.n	a10, a6
    785d:	0008e0        	excw
    7860:	f01d      	excw
    7862:	360000        	excw
    7865:	820041        	l32r	a4, 0xfffe8068
    7868:	87dca5        	excw
    786b:	a20792        	l8ui	a9, a7, 162
    786e:	000003        	excw
    7871:	232a      	add.n	a2, a3, a2
    7873:	f01d      	excw
    7875:	b1a492        	movi	a9, 0x4b1
    7878:	089297        	bne	a2, a9, 0x7884
    787b:	8488a1        	l32r	a10, 0xfffe8a9c
    787e:	1c0aa2        	l8ui	a10, a10, 28
    7881:	fffac6        	j	0x7870
    7884:	3ca4b2        	movi	a11, 0x43c
    7887:	053b27        	bltu	a11, a2, 0x7890
    788a:	e7a3c2        	movi	a12, 0x3e7
    788d:	293c27        	bltu	a12, a2, 0x78ba
    7890:	b4a4d2        	movi	a13, 0x4b4
    7893:	2312d7        	beq	a2, a13, 0x78ba
    7896:	0da2e2        	movi	a14, 0x20d
    7899:	1d12e7        	beq	a2, a14, 0x78ba
    789c:	851af1        	l32r	a15, 0xfffe8d04
    789f:	852381        	l32r	a8, 0xfffe8d2c
    78a2:	3512f7        	beq	a2, a15, 0x78db
    78a5:	321287        	beq	a2, a8, 0x78db
    78a8:	849681        	l32r	a8, 0xfffe8b00
    78ab:	02ad      	mov.n	a10, a2
    78ad:	5e2882        	l32i	a8, a8, 0x178
    78b0:	03bd      	mov.n	a11, a3
    78b2:	0008e0        	excw
    78b5:	0a2d      	mov.n	a2, a10
    78b7:	f01d      	excw
    78b9:	0a0c00        	excw
    78bc:	8524b1        	l32r	a11, 0xfffe8d4c
    78bf:	a90c      	movi.n	a9, 10
    78c1:	12a976        	excw
    78c4:	90caa0        	addx2	a12, a10, a10
    78c7:	11cca0        	slli	a12, a12, 6
    78ca:	cbca      	add.n	a12, a11, a12
    78cc:	800cc2        	l8ui	a12, a12, 128
    78cf:	9d1c47        	beq	a12, a4, 0x7870
    78d2:	aa1b      	addi.n	a10, a10, 1
    78d4:	74a0a0        	extui	a10, a10, 0, 8
    78d7:	f27c      	movi.n	a2, -1
    78d9:	f01d      	excw
    78db:	0103a2        	l8ui	a10, a3, 1
    78de:	ffe386        	j	0x7870
    78e1:	000000        	ill
    78e4:	004136        	excw
    78e7:	6ca082        	movi	a8, 108
    78ea:	2d9287        	bne	a2, a8, 0x791b
    78ed:	331b      	addi.n	a3, a3, 1
    78ef:	020c      	movi.n	a2, 0
    78f1:	e8a252        	movi	a5, 0x2e8
    78f4:	848841        	l32r	a4, 0xfffe8b14
    78f7:	03bd      	mov.n	a11, a3
    78f9:	6c0c      	movi.n	a12, 6
    78fb:	90a220        	addx2	a10, a2, a2
    78fe:	11aaa0        	slli	a10, a10, 6
    7901:	a4aa      	add.n	a10, a4, a10
    7903:	aa5a      	add.n	a10, a10, a5
    7905:	041365        	excw
    7908:	3acc      	bnez.n	a10, 0x790f
    790a:	232200        	excw
    790d:	f01d      	excw
    790f:	221b      	addi.n	a2, a2, 1
    7911:	742020        	extui	a2, a2, 0, 8
    7914:	df9266        	bnei	a2, 10, 0x78f7
    7917:	f27c      	movi.n	a2, -1
    7919:	f01d      	excw
    791b:	851581        	l32r	a8, 0xfffe8d70
    791e:	02ad      	mov.n	a10, a2
    7920:	6888      	l32i.n	a8, a8, 24
    7922:	03bd      	mov.n	a11, a3
    7924:	0008e0        	excw
    7927:	0a2d      	mov.n	a2, a10
    7929:	f01d      	excw
    792b:	413600        	srli	a3, a0, 6
    792e:	844100        	extui	a4, a0, 1, 9
    7931:	130c84        	excw
    7934:	d8a182        	movi	a8, 0x1d8
    7937:	c18280        	mul16u	a8, a2, a8
    793a:	448a      	add.n	a4, a4, a8
    793c:	800442        	l8ui	a4, a4, 128
    793f:	020c      	movi.n	a2, 0
    7941:	440b      	addi.n	a4, a4, -1
    7943:	832340        	moveqz	a2, a3, a4
    7946:	f01d      	excw
    7948:	004136        	excw
    794b:	849c31        	l32r	a3, 0xfffe8bbc
    794e:	0a0c      	movi.n	a10, 0
    7950:	dc2382        	l32i	a8, a3, 0x370
    7953:	02bd      	mov.n	a11, a2
    7955:	0008e0        	excw
    7958:	340c      	movi.n	a4, 3
    795a:	9a8c      	beqz.n	a10, 0x7967
    795c:	db2382        	l32i	a8, a3, 0x36c
    795f:	0a0c      	movi.n	a10, 0
    7961:	0008e0        	excw
    7964:	045a56        	bnez	a10, 0x79ad
    7967:	1c0c      	movi.n	a12, 1
    7969:	02ad      	mov.n	a10, a2
    796b:	0c42c2        	s8i	a12, a2, 12
    796e:	8d2382        	l32i	a8, a3, 0x234
    7971:	1612b2        	l16ui	a11, a2, 44
    7974:	0008e0        	excw
    7977:	0c02b2        	l8ui	a11, a2, 12
    797a:	0dbab7        	bgeu	a10, a11, 0x798b
    797d:	02ad      	mov.n	a10, a2
    797f:	8d2382        	l32i	a8, a3, 0x234
    7982:	1612b2        	l16ui	a11, a2, 44
    7985:	0008e0        	excw
    7988:	0c42a2        	s8i	a10, a2, 12
    798b:	fb01e5        	excw
    798e:	4a9c      	beqz.n	a10, 0x79a6
    7990:	0002a2        	l8ui	a10, a2, 0
    7993:	fff9a5        	excw
    7996:	0c0292        	l8ui	a9, a2, 12
    7999:	cacc      	bnez.n	a10, 0x79a9
    799b:	0a49b6        	bltui	a9, 4, 0x79a9
    799e:	0c4242        	s8i	a4, a2, 12
    79a1:	390c      	movi.n	a9, 3
    79a3:	000086        	j	0x79a9
    79a6:	0c0292        	l8ui	a9, a2, 12
    79a9:	092d      	mov.n	a2, a9
    79ab:	f01d      	excw
    79ad:	1a0c      	movi.n	a10, 1
    79af:	dc2382        	l32i	a8, a3, 0x370
    79b2:	02bd      	mov.n	a11, a2
    79b4:	0008e0        	excw
    79b7:	da8c      	beqz.n	a10, 0x79c8
    79b9:	db2382        	l32i	a8, a3, 0x36c
    79bc:	1a0c      	movi.n	a10, 1
    79be:	0008e0        	excw
    79c1:	3a8c      	beqz.n	a10, 0x79c8
    79c3:	5c0c      	movi.n	a12, 5
    79c5:	ffe806        	j	0x7969
    79c8:	04cd      	mov.n	a12, a4
    79ca:	ffe6c6        	j	0x7969
    79cd:	000000        	ill
    79d0:	004136        	excw
    79d3:	0a0c      	movi.n	a10, 0
    79d5:	dca582        	movi	a8, 0x5dc
    79d8:	8496c1        	l32r	a12, 0xfffe8c30
    79db:	07fd      	mov.n	a15, a7
    79dd:	06dcb2        	addmi	a11, a12, 0x600
    79e0:	02dc72        	addmi	a7, a12, 0x200
    79e3:	5d9487        	bne	a4, a8, 0x7a44
    79e6:	0b4d      	mov.n	a4, a11
    79e8:	131392        	l16ui	a9, a3, 38
    79eb:	06a9      	s32i.n	a10, a6, 0
    79ed:	0c03b2        	l8ui	a11, a3, 12
    79f0:	0b43b2        	s8i	a11, a3, 11
    79f3:	32e917        	bbsi	a9, 1, 0x7a29
    79f6:	df2782        	l32i	a8, a7, 0x37c
    79f9:	03ad      	mov.n	a10, a3
    79fb:	0008e0        	excw
    79fe:	03bd      	mov.n	a11, a3
    7a00:	0d43a2        	s8i	a10, a3, 13
    7a03:	dc2782        	l32i	a8, a7, 0x370
    7a06:	aa0c      	movi.n	a10, 10
    7a08:	0008e0        	excw
    7a0b:	aa9c      	beqz.n	a10, 0x7a29
    7a0d:	db2782        	l32i	a8, a7, 0x36c
    7a10:	aa0c      	movi.n	a10, 10
    7a12:	0008e0        	excw
    7a15:	0a9c      	beqz.n	a10, 0x7a29
    7a17:	08a4a2        	movi	a10, 0x408
    7a1a:	0b0c      	movi.n	a11, 0
    7a1c:	2c0c      	movi.n	a12, 2
    7a1e:	0003d2        	l8ui	a13, a3, 0
    7a21:	192482        	l32i	a8, a4, 100
    7a24:	3e0c      	movi.n	a14, 3
    7a26:	0008e0        	excw
    7a29:	03ad      	mov.n	a10, a3
    7a2b:	fff1e5        	excw
    7a2e:	0c0392        	l8ui	a9, a3, 12
    7a31:	990b      	addi.n	a9, a9, -1
    7a33:	153956        	bnez	a9, 0x7b8a
    7a36:	03ad      	mov.n	a10, a3
    7a38:	b52782        	l32i	a8, a7, 0x2d4
    7a3b:	0b0c      	movi.n	a11, 0
    7a3d:	0008e0        	excw
    7a40:	0628      	l32i.n	a2, a6, 0
    7a42:	f01d      	excw
    7a44:	8ba092        	movi	a9, 139
    7a47:	149497        	bne	a4, a9, 0x7a5f
    7a4a:	d3b8      	l32i.n	a11, a3, 52
    7a4c:	277b27        	bbci	a11, 18, 0x7a77
    7a4f:	04bd      	mov.n	a11, a4
    7a51:	0a0c      	movi.n	a10, 0
    7a53:	e02c82        	l32i	a8, a12, 0x380
    7a56:	06a9      	s32i.n	a10, a6, 0
    7a58:	0008e0        	excw
    7a5b:	0628      	l32i.n	a2, a6, 0
    7a5d:	f01d      	excw
    7a5f:	02ad      	mov.n	a10, a2
    7a61:	03bd      	mov.n	a11, a3
    7a63:	04cd      	mov.n	a12, a4
    7a65:	851581        	l32r	a8, 0xfffe8ebc
    7a68:	05dd      	mov.n	a13, a5
    7a6a:	7888      	l32i.n	a8, a8, 28
    7a6c:	06ed      	mov.n	a14, a6
    7a6e:	0008e0        	excw
    7a71:	0a2d      	mov.n	a2, a10
    7a73:	06a9      	s32i.n	a10, a6, 0
    7a75:	f01d      	excw
    7a77:	010392        	l8ui	a9, a3, 1
    7a7a:	fdc992        	addi	a9, a9, -3
    7a7d:	101956        	bnez	a9, 0x7b82
    7a80:	7a0c      	movi.n	a10, 7
    7a82:	dc2782        	l32i	a8, a7, 0x370
    7a85:	03bd      	mov.n	a11, a3
    7a87:	0008e0        	excw
    7a8a:	0f4a16        	beqz	a10, 0x7b82
    7a8d:	db2782        	l32i	a8, a7, 0x36c
    7a90:	7a0c      	movi.n	a10, 7
    7a92:	0008e0        	excw
    7a95:	0e9a16        	beqz	a10, 0x7b82
    7a98:	030392        	l8ui	a9, a3, 3
    7a9b:	c5c992        	addi	a9, a9, -59
    7a9e:	0e0956        	bnez	a9, 0x7b82
    7aa1:	0215c2        	l16ui	a12, a5, 4
    7aa4:	842eb1        	l32r	a11, 0xfffe8b5c
    7aa7:	04bbc7        	bgeu	a11, a12, 0x7aaf
    7aaa:	0255b2        	s16i	a11, a5, 4
    7aad:	0bcd      	mov.n	a12, a11
    7aaf:	076c07        	bbci	a12, 0, 0x7aba
    7ab2:	cc1b      	addi.n	a12, a12, 1
    7ab4:	f4c0c0        	extui	a12, a12, 0, 16
    7ab7:	0255c2        	s16i	a12, a5, 4
    7aba:	6d0c      	movi.n	a13, 6
    7abc:	026cf6        	bgeui	a12, 6, 0x7ac2
    7abf:	0255d2        	s16i	a13, a5, 4
    7ac2:	0315c2        	l16ui	a12, a5, 6
    7ac5:	05bbc7        	bgeu	a11, a12, 0x7ace
    7ac8:	0355b2        	s16i	a11, a5, 6
    7acb:	842ec1        	l32r	a12, 0xfffe8b84
    7ace:	076c07        	bbci	a12, 0, 0x7ad9
    7ad1:	cc1b      	addi.n	a12, a12, 1
    7ad3:	f4c0c0        	extui	a12, a12, 0, 16
    7ad6:	0355c2        	s16i	a12, a5, 6
    7ad9:	046cf6        	bgeui	a12, 6, 0x7ae1
    7adc:	0355d2        	s16i	a13, a5, 6
    7adf:	6c0c      	movi.n	a12, 6
    7ae1:	0215d2        	l16ui	a13, a5, 4
    7ae4:	07bdc7        	bgeu	a13, a12, 0x7aef
    7ae7:	8525a1        	l32r	a10, 0xfffe8f7c
    7aea:	0b0c      	movi.n	a11, 0
    7aec:	afd265        	excw
    7aef:	0415b2        	l16ui	a11, a5, 8
    7af2:	7b8c      	beqz.n	a11, 0x7afd
    7af4:	0215c2        	l16ui	a12, a5, 4
    7af7:	41e1c0        	srli	a14, a12, 1
    7afa:	0dbeb7        	bgeu	a14, a11, 0x7b0b
    7afd:	8525a1        	l32r	a10, 0xfffe8f94
    7b00:	0b0c      	movi.n	a11, 0
    7b02:	afd125        	excw
    7b05:	0215c2        	l16ui	a12, a5, 4
    7b08:	0415b2        	l16ui	a11, a5, 8
    7b0b:	0315d2        	l16ui	a13, a5, 6
    7b0e:	04bcd7        	bgeu	a12, a13, 0x7b16
    7b11:	0255d2        	s16i	a13, a5, 4
    7b14:	0dcd      	mov.n	a12, a13
    7b16:	5bcc      	bnez.n	a11, 0x7b1f
    7b18:	1b0c      	movi.n	a11, 1
    7b1a:	1f0c      	movi.n	a15, 1
    7b1c:	0455f2        	s16i	a15, a5, 8
    7b1f:	41d1c0        	srli	a13, a12, 1
    7b22:	02bdb7        	bgeu	a13, a11, 0x7b28
    7b25:	0455d2        	s16i	a13, a5, 8
    7b28:	b62782        	l32i	a8, a7, 0x2d8
    7b2b:	090c      	movi.n	a9, 0
    7b2d:	0315a2        	l16ui	a10, a5, 6
    7b30:	4c53c2        	s16i	a12, a3, 152
    7b33:	4b53a2        	s16i	a10, a3, 150
    7b36:	0215a2        	l16ui	a10, a5, 4
    7b39:	0315b2        	l16ui	a11, a5, 6
    7b3c:	0699      	s32i.n	a9, a6, 0
    7b3e:	0008e0        	excw
    7b41:	bb2782        	l32i	a8, a7, 0x2ec
    7b44:	41c1a0        	srli	a12, a10, 1
    7b47:	2d53a2        	s16i	a10, a3, 90
    7b4a:	0415b2        	l16ui	a11, a5, 8
    7b4d:	090c      	movi.n	a9, 0
    7b4f:	63bbc0        	excw
    7b52:	2e53b2        	s16i	a11, a3, 92
    7b55:	74b020        	extui	a11, a2, 0, 8
    7b58:	0515a2        	l16ui	a10, a5, 10
    7b5b:	2f53a2        	s16i	a10, a3, 94
    7b5e:	2c5392        	s16i	a9, a3, 88
    7b61:	56c3a2        	addi	a10, a3, 86
    7b64:	0008e0        	excw
    7b67:	84c7d1        	l32r	a13, 0xfffe8e84
    7b6a:	851951        	l32r	a5, 0xfffe8fd0
    7b6d:	429ad7        	bne	a10, a13, 0x7bb3
    7b70:	04bd      	mov.n	a11, a4
    7b72:	2a1c      	movi.n	a10, 18
    7b74:	fad582        	addmi	a8, a5, 0xfffffa00
    7b77:	e02882        	l32i	a8, a8, 0x380
    7b7a:	06a9      	s32i.n	a10, a6, 0
    7b7c:	0008e0        	excw
    7b7f:	ffaf46        	j	0x7a40
    7b82:	c20c      	movi.n	a2, 12
    7b84:	c90c      	movi.n	a9, 12
    7b86:	0699      	s32i.n	a9, a6, 0
    7b88:	f01d      	excw
    7b8a:	13a4a2        	movi	a10, 0x413
    7b8d:	b3cb      	addi.n	a11, a3, 12
    7b8f:	2c0c      	movi.n	a12, 2
    7b91:	0003d2        	l8ui	a13, a3, 0
    7b94:	242482        	l32i	a8, a4, 144
    7b97:	3e0c      	movi.n	a14, 3
    7b99:	0008e0        	excw
    7b9c:	02bd      	mov.n	a11, a2
    7b9e:	d34b      	addi.n	a13, a3, 4
    7ba0:	4a0c      	movi.n	a10, 4
    7ba2:	849681        	l32r	a8, 0xfffe8dfc
    7ba5:	8514c1        	l32r	a12, 0xfffe8ff8
    7ba8:	1e2882        	l32i	a8, a8, 120
    7bab:	1e0c      	movi.n	a14, 1
    7bad:	0008e0        	excw
    7bb0:	ffa306        	j	0x7a40
    7bb3:	842981        	l32r	a8, 0xfffe8c58
    7bb6:	482882        	l32i	a8, a8, 0x120
    7bb9:	0003a2        	l8ui	a10, a3, 0
    7bbc:	0008e0        	excw
    7bbf:	04bd      	mov.n	a11, a4
    7bc1:	849681        	l32r	a8, 0xfffe8e1c
    7bc4:	5643a2        	s8i	a10, a3, 86
    7bc7:	e02882        	l32i	a8, a8, 0x380
    7bca:	06a8      	l32i.n	a10, a6, 0
    7bcc:	0008e0        	excw
    7bcf:	d427a2        	l32i	a10, a7, 0x350
    7bd2:	1772e6        	bgei	a2, 7, 0x7bed
    7bd5:	000ae0        	excw
    7bd8:	0003d2        	l8ui	a13, a3, 0
    7bdb:	2c0c      	movi.n	a12, 2
    7bdd:	0e0c      	movi.n	a14, 0
    7bdf:	ba2b      	addi.n	a11, a10, 2
    7be1:	1d2582        	l32i	a8, a5, 116
    7be4:	0ca4a2        	movi	a10, 0x40c
    7be7:	0008e0        	excw
    7bea:	000506        	j	0x7c02
    7bed:	000ae0        	excw
    7bf0:	0003d2        	l8ui	a13, a3, 0
    7bf3:	2c0c      	movi.n	a12, 2
    7bf5:	1e0c      	movi.n	a14, 1
    7bf7:	ba2b      	addi.n	a11, a10, 2
    7bf9:	1d2582        	l32i	a8, a5, 116
    7bfc:	0ca4a2        	movi	a10, 0x40c
    7bff:	0008e0        	excw
    7c02:	8512a1        	l32r	a10, 0xfffe904c
    7c05:	190c      	movi.n	a9, 1
    7c07:	a0a2a0        	addx4	a10, a2, a10
    7c0a:	0a99      	s32i.n	a9, a10, 0
    7c0c:	ff92c6        	j	0x7a5b
    7c0f:	613600        	excw
    7c12:	9c7100        	excw
    7c15:	05ad84        	excw
    7c18:	ec2782        	l32i	a8, a7, 0x3b0
    7c1b:	01bd      	mov.n	a11, a1
    7c1d:	0008e0        	excw
    7c20:	0a9d      	mov.n	a9, a10
    7c22:	1f6417        	bbci	a4, 1, 0x7c45
    7c25:	0a0c      	movi.n	a10, 0
    7c27:	05bd      	mov.n	a11, a5
    7c29:	ed2782        	l32i	a8, a7, 0x3b4
    7c2c:	1c0c      	movi.n	a12, 1
    7c2e:	0008e0        	excw
    7c31:	02bd      	mov.n	a11, a2
    7c33:	03dd      	mov.n	a13, a3
    7c35:	05ed      	mov.n	a14, a5
    7c37:	74a0a0        	extui	a10, a10, 0, 8
    7c3a:	f62782        	l32i	a8, a7, 0x3d8
    7c3d:	8c0c      	movi.n	a12, 8
    7c3f:	0008e0        	excw
    7c42:	002dc6        	j	0x7cfd
    7c45:	8512b1        	l32r	a11, 0xfffe9090
    7c48:	0001a2        	l8ui	a10, a1, 0
    7c4b:	849641        	l32r	a4, 0xfffe8ea4
    7c4e:	a0aab0        	addx4	a10, a10, a11
    7c51:	0aa8      	l32i.n	a10, a10, 0
    7c53:	3199      	s32i.n	a9, a1, 12
    7c55:	052a56        	bnez	a10, 0x7cab
    7c58:	60c9a2        	addi	a10, a9, 96
    7c5b:	8526d1        	l32r	a13, 0xfffe90f4
    7c5e:	d9c8      	l32i.n	a12, a9, 52
    7c60:	1229b2        	l32i	a11, a9, 72
    7c63:	10ccd0        	and	a12, a12, a13
    7c66:	d9c9      	s32i.n	a12, a9, 52
    7c68:	8c0c      	movi.n	a12, 8
    7c6a:	20bbc0        	or	a11, a11, a12
    7c6d:	1269b2        	s32i	a11, a9, 72
    7c70:	03bd      	mov.n	a11, a3
    7c72:	03e525        	excw
    7c75:	fa3c      	movi.n	a10, 63
    7c77:	dc2782        	l32i	a8, a7, 0x370
    7c7a:	31b8      	l32i.n	a11, a1, 12
    7c7c:	0008e0        	excw
    7c7f:	041a16        	beqz	a10, 0x7cc4
    7c82:	a13b      	addi.n	a10, a1, 3
    7c84:	8527b1        	l32r	a11, 0xfffe9120
    7c87:	8c0c      	movi.n	a12, 8
    7c89:	190c      	movi.n	a9, 1
    7c8b:	024192        	s8i	a9, a1, 2
    7c8e:	014192        	s8i	a9, a1, 1
    7c91:	03e325        	excw
    7c94:	29a4a2        	movi	a10, 0x429
    7c97:	b11b      	addi.n	a11, a1, 1
    7c99:	2c0c      	movi.n	a12, 2
    7c9b:	3e0c      	movi.n	a14, 3
    7c9d:	851981        	l32r	a8, 0xfffe9104
    7ca0:	31d8      	l32i.n	a13, a1, 12
    7ca2:	352882        	l32i	a8, a8, 212
    7ca5:	000dd2        	l8ui	a13, a13, 0
    7ca8:	0008e0        	excw
    7cab:	31e8      	l32i.n	a14, a1, 12
    7cad:	121ee2        	l16ui	a14, a14, 36
    7cb0:	4d6e07        	bbci	a14, 0, 0x7d01
    7cb3:	02ad      	mov.n	a10, a2
    7cb5:	03bd      	mov.n	a11, a3
    7cb7:	05cd      	mov.n	a12, a5
    7cb9:	932782        	l32i	a8, a7, 0x24c
    7cbc:	06dd      	mov.n	a13, a6
    7cbe:	0008e0        	excw
    7cc1:	000e06        	j	0x7cfd
    7cc4:	848891        	l32r	a9, 0xfffe8ee4
    7cc7:	1809a2        	l8ui	a10, a9, 24
    7cca:	dd6a27        	bbci	a10, 2, 0x7cab
    7ccd:	06d9b2        	addmi	a11, a9, 0x600
    7cd0:	f92bb2        	l32i	a11, a11, 0x3e4
    7cd3:	fd4b16        	beqz	a11, 0x7cab
    7cd6:	8ca0c2        	movi	a12, 140
    7cd9:	31b8      	l32i.n	a11, a1, 12
    7cdb:	8528a1        	l32r	a10, 0xfffe917c
    7cde:	bbca      	add.n	a11, a11, a12
    7ce0:	6c0c      	movi.n	a12, 6
    7ce2:	03d5a5        	excw
    7ce5:	fc2a56        	bnez	a10, 0x7cab
    7ce8:	06cd      	mov.n	a12, a6
    7cea:	0001b2        	l8ui	a11, a1, 0
    7ced:	8529a1        	l32r	a10, 0xfffe9194
    7cf0:	090c      	movi.n	a9, 0
    7cf2:	ff2482        	l32i	a8, a4, 0x3fc
    7cf5:	796a92        	s32i	a9, a10, 0x1e4
    7cf8:	31a8      	l32i.n	a10, a1, 12
    7cfa:	0008e0        	excw
    7cfd:	020c      	movi.n	a2, 0
    7cff:	f01d      	excw
    7d01:	02ad      	mov.n	a10, a2
    7d03:	03bd      	mov.n	a11, a3
    7d05:	05cd      	mov.n	a12, a5
    7d07:	642482        	l32i	a8, a4, 0x190
    7d0a:	06dd      	mov.n	a13, a6
    7d0c:	0008e0        	excw
    7d0f:	fffa86        	j	0x7cfd
    7d12:	360000        	excw
    7d15:	0c0041        	l32r	a4, 0xfffcad18
    7d18:	c20b      	addi.n	a12, a2, -1
    7d1a:	a15ca2        	s16i	a10, a12, 0x142
    7d1d:	8488      	l32i.n	a8, a4, 32
    7d1f:	a80c      	movi.n	a8, 10
    7d21:	11a876        	excw
    7d24:	909bb0        	addx2	a9, a11, a11
    7d27:	1199a0        	slli	a9, a9, 6
    7d2a:	9a9a      	add.n	a9, a10, a9
    7d2c:	99ca      	add.n	a9, a9, a12
    7d2e:	041297        	beq	a2, a9, 0x7d36
    7d31:	bb1b      	addi.n	a11, a11, 1
    7d33:	74b0b0        	extui	a11, a11, 0, 8
    7d36:	02ad      	mov.n	a10, a2
    7d38:	190c      	movi.n	a9, 1
    7d3a:	0d0c      	movi.n	a13, 0
    7d3c:	8512e1        	l32r	a14, 0xfffe9184
    7d3f:	851581        	l32r	a8, 0xfffe9194
    7d42:	30cec2        	addi	a12, a14, 48
    7d45:	8888      	l32i.n	a8, a8, 32
    7d47:	a0ebe0        	addx4	a14, a11, a14
    7d4a:	0ed9      	s32i.n	a13, a14, 0
    7d4c:	bbca      	add.n	a11, a11, a12
    7d4e:	004b92        	s8i	a9, a11, 0
    7d51:	0008e0        	excw
    7d54:	f01d      	excw
    7d56:	360000        	excw
    7d59:	0c0041        	l32r	a4, 0xfffcad5c
    7d5c:	8258      	l32i.n	a5, a2, 32
    7d5e:	650d42        	l8ui	a4, a13, 101
    7d61:	0cfac4        	excw
    7d64:	9a8c34        	excw
    7d67:	0002a2        	l8ui	a10, a2, 0
    7d6a:	ffbc25        	excw
    7d6d:	1acc      	bnez.n	a10, 0x7d72
    7d6f:	0d4242        	s8i	a4, a2, 13
    7d72:	849c31        	l32r	a3, 0xfffe8fe4
    7d75:	1a0c      	movi.n	a10, 1
    7d77:	dc2382        	l32i	a8, a3, 0x370
    7d7a:	02bd      	mov.n	a11, a2
    7d7c:	0008e0        	excw
    7d7f:	8a8c      	beqz.n	a10, 0x7d8b
    7d81:	db2382        	l32i	a8, a3, 0x36c
    7d84:	1a0c      	movi.n	a10, 1
    7d86:	0008e0        	excw
    7d89:	1acc      	bnez.n	a10, 0x7d8e
    7d8b:	0d4242        	s8i	a4, a2, 13
    7d8e:	0a0c      	movi.n	a10, 0
    7d90:	dc2382        	l32i	a8, a3, 0x370
    7d93:	02bd      	mov.n	a11, a2
    7d95:	0008e0        	excw
    7d98:	140c      	movi.n	a4, 1
    7d9a:	8a8c      	beqz.n	a10, 0x7da6
    7d9c:	db2382        	l32i	a8, a3, 0x36c
    7d9f:	0a0c      	movi.n	a10, 0
    7da1:	0008e0        	excw
    7da4:	1acc      	bnez.n	a10, 0x7da9
    7da6:	0d4242        	s8i	a4, a2, 13
    7da9:	849631        	l32r	a3, 0xfffe9004
    7dac:	6d2382        	l32i	a8, a3, 0x1b4
    7daf:	0008e0        	excw
    7db2:	9a8c      	beqz.n	a10, 0x7dbf
    7db4:	0002a2        	l8ui	a10, a2, 0
    7db7:	ffb765        	excw
    7dba:	1acc      	bnez.n	a10, 0x7dbf
    7dbc:	0d4242        	s8i	a4, a2, 13
    7dbf:	6e2382        	l32i	a8, a3, 0x1b8
    7dc2:	0008e0        	excw
    7dc5:	0e1a66        	bnei	a10, 1, 0x7dd7
    7dc8:	0002a2        	l8ui	a10, a2, 0
    7dcb:	ffb625        	excw
    7dce:	aacc      	bnez.n	a10, 0x7ddc
    7dd0:	0d4242        	s8i	a4, a2, 13
    7dd3:	120c      	movi.n	a2, 1
    7dd5:	f01d      	excw
    7dd7:	0d0222        	l8ui	a2, a2, 13
    7dda:	f01d      	excw
    7ddc:	0d0222        	l8ui	a2, a2, 13
    7ddf:	f01d      	excw
    7de1:	000000        	ill
    7de4:	006136        	excw
    7de7:	070c      	movi.n	a7, 0
    7de9:	eaa382        	movi	a8, 0x3ea
    7dec:	1513b2        	l16ui	a11, a3, 42
    7def:	04ad      	mov.n	a10, a4
    7df1:	0151b2        	s16i	a11, a1, 2
    7df4:	8496b1        	l32r	a11, 0xfffe904c
    7df7:	2d1392        	l16ui	a9, a3, 90
    7dfa:	035192        	s16i	a9, a1, 6
    7dfd:	02db42        	addmi	a4, a11, 0x200
    7e00:	161a87        	beq	a10, a8, 0x7e1a
    7e03:	eba3c2        	movi	a12, 0x3eb
    7e06:	c0cac0        	sub	a12, a10, a12
    7e09:	09ac16        	beqz	a12, 0x7ea7
    7e0c:	851ad1        	l32r	a13, 0xfffe9274
    7e0f:	079d      	mov.n	a9, a7
    7e11:	c0dad0        	sub	a13, a10, a13
    7e14:	083d16        	beqz	a13, 0x7e9b
    7e17:	000cc6        	j	0x7e4e
    7e1a:	05ad      	mov.n	a10, a5
    7e1c:	fda3b2        	movi	a11, 0x3fd
    7e1f:	eb2482        	l32i	a8, a4, 0x3ac
    7e22:	07cd      	mov.n	a12, a7
    7e24:	0008e0        	excw
    7e27:	0a6a16        	beqz	a10, 0x7ed1
    7e2a:	4a0c      	movi.n	a10, 4
    7e2c:	849681        	l32r	a8, 0xfffe9084
    7e2f:	02bd      	mov.n	a11, a2
    7e31:	142882        	l32i	a8, a8, 80
    7e34:	0403c2        	l8ui	a12, a3, 4
    7e37:	0008e0        	excw
    7e3a:	74a020        	extui	a10, a2, 0, 8
    7e3d:	03bd      	mov.n	a11, a3
    7e3f:	56c3c2        	addi	a12, a3, 86
    7e42:	bc2482        	l32i	a8, a4, 0x2f0
    7e45:	01dd      	mov.n	a13, a1
    7e47:	0008e0        	excw
    7e4a:	0679      	s32i.n	a7, a6, 0
    7e4c:	090c      	movi.n	a9, 0
    7e4e:	045916        	beqz	a9, 0x7e97
    7e51:	852af1        	l32r	a15, 0xfffe92fc
    7e54:	d3e8      	l32i.n	a14, a3, 52
    7e56:	852ba1        	l32r	a10, 0xfffe9304
    7e59:	4b1c      	movi.n	a11, 20
    7e5b:	2c0c      	movi.n	a12, 2
    7e5d:	842ed1        	l32r	a13, 0xfffe8f18
    7e60:	164372        	s8i	a7, a3, 22
    7e63:	a92482        	l32i	a8, a4, 0x2a4
    7e66:	4c53d2        	s16i	a13, a3, 152
    7e69:	4b53c2        	s16i	a12, a3, 150
    7e6c:	5353b2        	s16i	a11, a3, 166
    7e6f:	5253a2        	s16i	a10, a3, 164
    7e72:	74b020        	extui	a11, a2, 0, 8
    7e75:	03ad      	mov.n	a10, a3
    7e77:	10eef0        	and	a14, a14, a15
    7e7a:	d3e9      	s32i.n	a14, a3, 52
    7e7c:	0698      	l32i.n	a9, a6, 0
    7e7e:	004192        	s8i	a9, a1, 0
    7e81:	0008e0        	excw
    7e84:	849681        	l32r	a8, 0xfffe90dc
    7e87:	cc2882        	l32i	a8, a8, 0x330
    7e8a:	01ad      	mov.n	a10, a1
    7e8c:	0008e0        	excw
    7e8f:	aa2482        	l32i	a8, a4, 0x2a8
    7e92:	03ad      	mov.n	a10, a3
    7e94:	0008e0        	excw
    7e97:	0628      	l32i.n	a2, a6, 0
    7e99:	f01d      	excw
    7e9b:	044172        	s8i	a7, a1, 4
    7e9e:	292c      	movi.n	a9, 34
    7ea0:	0699      	s32i.n	a9, a6, 0
    7ea2:	190c      	movi.n	a9, 1
    7ea4:	ffe986        	j	0x7e4e
    7ea7:	05ad      	mov.n	a10, a5
    7ea9:	fda3b2        	movi	a11, 0x3fd
    7eac:	eb2482        	l32i	a8, a4, 0x3ac
    7eaf:	07cd      	mov.n	a12, a7
    7eb1:	0008e0        	excw
    7eb4:	9a9c      	beqz.n	a10, 0x7ed1
    7eb6:	4a0c      	movi.n	a10, 4
    7eb8:	849681        	l32r	a8, 0xfffe9110
    7ebb:	02bd      	mov.n	a11, a2
    7ebd:	142882        	l32i	a8, a8, 80
    7ec0:	0403c2        	l8ui	a12, a3, 4
    7ec3:	0008e0        	excw
    7ec6:	010592        	l8ui	a9, a5, 1
    7ec9:	0699      	s32i.n	a9, a6, 0
    7ecb:	044172        	s8i	a7, a1, 4
    7ece:	fff406        	j	0x7ea2
    7ed1:	c20c      	movi.n	a2, 12
    7ed3:	f01d      	excw
    7ed5:	000000        	ill
    7ed8:	00e136        	excw
    7edb:	0e0c      	movi.n	a14, 0
    7edd:	304122        	s8i	a2, a1, 48
    7ee0:	f2a382        	movi	a8, 0x3f2
    7ee3:	05ad      	mov.n	a10, a5
    7ee5:	f4d040        	extui	a13, a4, 0, 16
    7ee8:	849651        	l32r	a5, 0xfffe9140
    7eeb:	1c51d2        	s16i	a13, a1, 56
    7eee:	81a9      	s32i.n	a10, a1, 32
    7ef0:	261d87        	beq	a13, a8, 0x7f1a
    7ef3:	f8a3a2        	movi	a10, 0x3f8
    7ef6:	3c1da7        	beq	a13, a10, 0x7f36
    7ef9:	851ab1        	l32r	a11, 0xfffe9364
    7efc:	031db7        	beq	a13, a11, 0x7f03
    7eff:	0628      	l32i.n	a2, a6, 0
    7f01:	f01d      	excw
    7f03:	03ad      	mov.n	a10, a3
    7f05:	06cd      	mov.n	a12, a6
    7f07:	2d2c      	movi.n	a13, 34
    7f09:	06d9      	s32i.n	a13, a6, 0
    7f0b:	3001b2        	l8ui	a11, a1, 48
    7f0e:	532582        	l32i	a8, a5, 0x14c
    7f11:	23bb00        	excw
    7f14:	0008e0        	excw
    7f17:	fff906        	j	0x7eff
    7f1a:	03bd      	mov.n	a11, a3
    7f1c:	07ed      	mov.n	a14, a7
    7f1e:	06dd      	mov.n	a13, a6
    7f20:	0acd      	mov.n	a12, a10
    7f22:	080c      	movi.n	a8, 0
    7f24:	0689      	s32i.n	a8, a6, 0
    7f26:	3001a2        	l8ui	a10, a1, 48
    7f29:	3b2582        	l32i	a8, a5, 236
    7f2c:	23aa00        	excw
    7f2f:	0008e0        	excw
    7f32:	020c      	movi.n	a2, 0
    7f34:	f01d      	excw
    7f36:	2a0c      	movi.n	a10, 2
    7f38:	142582        	l32i	a8, a5, 80
    7f3b:	06e9      	s32i.n	a14, a6, 0
    7f3d:	3001b2        	l8ui	a11, a1, 48
    7f40:	0303c2        	l8ui	a12, a3, 3
    7f43:	23bb00        	excw
    7f46:	0008e0        	excw
    7f49:	2a0c      	movi.n	a10, 2
    7f4b:	f588      	l32i.n	a8, a5, 60
    7f4d:	03bd      	mov.n	a11, a3
    7f4f:	0008e0        	excw
    7f52:	81b8      	l32i.n	a11, a1, 32
    7f54:	0c1c      	movi.n	a12, 16
    7f56:	03b6e5        	excw
    7f59:	2a0c      	movi.n	a10, 2
    7f5b:	f588      	l32i.n	a8, a5, 60
    7f5d:	03bd      	mov.n	a11, a3
    7f5f:	0008e0        	excw
    7f62:	01dd      	mov.n	a13, a1
    7f64:	0abd      	mov.n	a11, a10
    7f66:	80a0c2        	movi	a12, 128
    7f69:	851d21        	l32r	a2, 0xfffe93e0
    7f6c:	c3ca      	add.n	a12, a3, a12
    7f6e:	1b2282        	l32i	a8, a2, 108
    7f71:	70c3a2        	addi	a10, a3, 112
    7f74:	0008e0        	excw
    7f77:	01ad      	mov.n	a10, a1
    7f79:	10c1b2        	addi	a11, a1, 16
    7f7c:	6288      	l32i.n	a8, a2, 24
    7f7e:	0903c2        	l8ui	a12, a3, 9
    7f81:	0008e0        	excw
    7f84:	842921        	l32r	a2, 0xfffe9028
    7f87:	0003a2        	l8ui	a10, a3, 0
    7f8a:	402282        	l32i	a8, a2, 0x100
    7f8d:	10c1b2        	addi	a11, a1, 16
    7f90:	0008e0        	excw
    7f93:	0003a2        	l8ui	a10, a3, 0
    7f96:	1b0c      	movi.n	a11, 1
    7f98:	0543b2        	s8i	a11, a3, 5
    7f9b:	422282        	l32i	a8, a2, 0x108
    7f9e:	1c0c      	movi.n	a12, 1
    7fa0:	0008e0        	excw
    7fa3:	07ed      	mov.n	a14, a7
    7fa5:	38c1b2        	addi	a11, a1, 56
    7fa8:	eaa3a2        	movi	a10, 0x3ea
    7fab:	849c21        	l32r	a2, 0xfffe921c
    7fae:	2c0c      	movi.n	a12, 2
    7fb0:	fc2282        	l32i	a8, a2, 0x3f0
    7fb3:	0003d2        	l8ui	a13, a3, 0
    7fb6:	0008e0        	excw
    7fb9:	03ad      	mov.n	a10, a3
    7fbb:	4b0c      	movi.n	a11, 4
    7fbd:	852cc1        	l32r	a12, 0xfffe9470
    7fc0:	111392        	l16ui	a9, a3, 34
    7fc3:	702582        	l32i	a8, a5, 0x1c0
    7fc6:	1099c0        	and	a9, a9, a12
    7fc9:	115392        	s16i	a9, a3, 34
    7fcc:	0008e0        	excw
    7fcf:	03ad      	mov.n	a10, a3
    7fd1:	702582        	l32i	a8, a5, 0x1c0
    7fd4:	00a1b2        	movi	a11, 0x100
    7fd7:	0008e0        	excw
    7fda:	010392        	l8ui	a9, a3, 1
    7fdd:	852db1        	l32r	a11, 0xfffe9494
    7fe0:	1223a2        	l32i	a10, a3, 72
    7fe3:	00a4c2        	movi	a12, 0x400
    7fe6:	20aac0        	or	a10, a10, a12
    7fe9:	10aab0        	and	a10, a10, a11
    7fec:	1263a2        	s32i	a10, a3, 72
    7fef:	2a3926        	beqi	a9, 3, 0x801d
    7ff2:	274926        	beqi	a9, 4, 0x801d
    7ff5:	3001b2        	l8ui	a11, a1, 48
    7ff8:	d3d8      	l32i.n	a13, a3, 52
    7ffa:	23bb00        	excw
    7ffd:	0a6d17        	bbci	a13, 1, 0x800b
    8000:	592582        	l32i	a8, a5, 0x164
    8003:	03ad      	mov.n	a10, a3
    8005:	0008e0        	excw
    8008:	ffc986        	j	0x7f32
    800b:	d33b      	addi.n	a13, a3, 3
    800d:	2a0c      	movi.n	a10, 2
    800f:	8514c1        	l32r	a12, 0xfffe9460
    8012:	1e2582        	l32i	a8, a5, 120
    8015:	fe0c      	movi.n	a14, 15
    8017:	0008e0        	excw
    801a:	ffc506        	j	0x7f32
    801d:	3e2582        	l32i	a8, a5, 248
    8020:	03ad      	mov.n	a10, a3
    8022:	0008e0        	excw
    8025:	03bd      	mov.n	a11, a3
    8027:	0503c2        	l8ui	a12, a3, 5
    802a:	e32582        	l32i	a8, a5, 0x38c
    802d:	122392        	l32i	a9, a3, 72
    8030:	ffaba2        	movi	a10, 0xfffffbff
    8033:	1099a0        	and	a9, a9, a10
    8036:	126392        	s32i	a9, a3, 72
    8039:	0a0c      	movi.n	a10, 0
    803b:	0008e0        	excw
    803e:	d3b8      	l32i.n	a11, a3, 52
    8040:	1e6bb7        	bbci	a11, 11, 0x8062
    8043:	06a8      	l32i.n	a10, a6, 0
    8045:	ee2582        	l32i	a8, a5, 0x3b8
    8048:	03bd      	mov.n	a11, a3
    804a:	0008e0        	excw
    804d:	0006a2        	l8ui	a10, a6, 0
    8050:	452582        	l32i	a8, a5, 0x114
    8053:	03bd      	mov.n	a11, a3
    8055:	0008e0        	excw
    8058:	852ea1        	l32r	a10, 0xfffe9510
    805b:	d398      	l32i.n	a9, a3, 52
    805d:	1099a0        	and	a9, a9, a10
    8060:	d399      	s32i.n	a9, a3, 52
    8062:	e398      	l32i.n	a9, a3, 56
    8064:	066947        	bbci	a9, 4, 0x806e
    8067:	fb6c      	movi.n	a11, -17
    8069:	10b9b0        	and	a11, a9, a11
    806c:	e3b9      	s32i.n	a11, a3, 56
    806e:	1223e2        	l32i	a14, a3, 72
    8071:	05cee0        	extui	a12, a14, 30, 1
    8074:	ebac16        	beqz	a12, 0x7f32
    8077:	0003c2        	l8ui	a12, a3, 0
    807a:	dca5a2        	movi	a10, 0x5dc
    807d:	3d0c      	movi.n	a13, 3
    807f:	30c1b2        	addi	a11, a1, 48
    8082:	852ff1        	l32r	a15, 0xfffe9540
    8085:	c42282        	l32i	a8, a2, 0x310
    8088:	10eef0        	and	a14, a14, a15
    808b:	1263e2        	s32i	a14, a3, 72
    808e:	0008e0        	excw
    8091:	ffa746        	j	0x7f32
    8094:	008136        	excw
    8097:	849671        	l32r	a7, 0xfffe92f0
    809a:	004122        	s8i	a2, a1, 0
    809d:	eaa382        	movi	a8, 0x3ea
    80a0:	c08480        	sub	a8, a4, a8
    80a3:	0b2816        	beqz	a8, 0x8159
    80a6:	eba392        	movi	a9, 0x3eb
    80a9:	1c1497        	beq	a4, a9, 0x80c9
    80ac:	851aa1        	l32r	a10, 0xfffe9514
    80af:	4e94a7        	bne	a4, a10, 0x8101
    80b2:	03ad      	mov.n	a10, a3
    80b4:	06cd      	mov.n	a12, a6
    80b6:	2e2c      	movi.n	a14, 34
    80b8:	06e9      	s32i.n	a14, a6, 0
    80ba:	0001b2        	l8ui	a11, a1, 0
    80bd:	532782        	l32i	a8, a7, 0x14c
    80c0:	23bb00        	excw
    80c3:	0008e0        	excw
    80c6:	000dc6        	j	0x8101
    80c9:	05ad      	mov.n	a10, a5
    80cb:	f8a3b2        	movi	a11, 0x3f8
    80ce:	02d782        	addmi	a8, a7, 0x200
    80d1:	eb2882        	l32i	a8, a8, 0x3ac
    80d4:	0c0c      	movi.n	a12, 0
    80d6:	0008e0        	excw
    80d9:	131a16        	beqz	a10, 0x820e
    80dc:	2a0c      	movi.n	a10, 2
    80de:	0303c2        	l8ui	a12, a3, 3
    80e1:	0001b2        	l8ui	a11, a1, 0
    80e4:	142782        	l32i	a8, a7, 80
    80e7:	23bb00        	excw
    80ea:	0008e0        	excw
    80ed:	03ad      	mov.n	a10, a3
    80ef:	532782        	l32i	a8, a7, 0x14c
    80f2:	5c2c      	movi.n	a12, 37
    80f4:	06c9      	s32i.n	a12, a6, 0
    80f6:	0001b2        	l8ui	a11, a1, 0
    80f9:	06cd      	mov.n	a12, a6
    80fb:	23bb00        	excw
    80fe:	0008e0        	excw
    8101:	0628      	l32i.n	a2, a6, 0
    8103:	f01d      	excw
    8105:	e398      	l32i.n	a9, a3, 56
    8107:	106947        	bbci	a9, 4, 0x811b
    810a:	852ee1        	l32r	a14, 0xfffe95c4
    810d:	d3d8      	l32i.n	a13, a3, 52
    810f:	ff6c      	movi.n	a15, -17
    8111:	10f9f0        	and	a15, a9, a15
    8114:	e3f9      	s32i.n	a15, a3, 56
    8116:	10dde0        	and	a13, a13, a14
    8119:	d3d9      	s32i.n	a13, a3, 52
    811b:	3e2782        	l32i	a8, a7, 248
    811e:	03ad      	mov.n	a10, a3
    8120:	0008e0        	excw
    8123:	1223e2        	l32i	a14, a3, 72
    8126:	0f6ea7        	bbci	a14, 10, 0x8139
    8129:	0a0c      	movi.n	a10, 0
    812b:	03bd      	mov.n	a11, a3
    812d:	e32782        	l32i	a8, a7, 0x38c
    8130:	0503c2        	l8ui	a12, a3, 5
    8133:	0008e0        	excw
    8136:	1223e2        	l32i	a14, a3, 72
    8139:	187ee7        	bbci	a14, 30, 0x8155
    813c:	0003c2        	l8ui	a12, a3, 0
    813f:	dca5a2        	movi	a10, 0x5dc
    8142:	3d0c      	movi.n	a13, 3
    8144:	01bd      	mov.n	a11, a1
    8146:	852ff1        	l32r	a15, 0xfffe9604
    8149:	c42282        	l32i	a8, a2, 0x310
    814c:	10eef0        	and	a14, a14, a15
    814f:	1263e2        	s32i	a14, a3, 72
    8152:	0008e0        	excw
    8155:	020c      	movi.n	a2, 0
    8157:	f01d      	excw
    8159:	05ad      	mov.n	a10, a5
    815b:	f8a3b2        	movi	a11, 0x3f8
    815e:	0c0c      	movi.n	a12, 0
    8160:	02d722        	addmi	a2, a7, 0x200
    8163:	eb2282        	l32i	a8, a2, 0x3ac
    8166:	06c9      	s32i.n	a12, a6, 0
    8168:	0008e0        	excw
    816b:	09fa16        	beqz	a10, 0x820e
    816e:	2a0c      	movi.n	a10, 2
    8170:	0303c2        	l8ui	a12, a3, 3
    8173:	0001b2        	l8ui	a11, a1, 0
    8176:	142782        	l32i	a8, a7, 80
    8179:	23bb00        	excw
    817c:	0008e0        	excw
    817f:	842981        	l32r	a8, 0xfffe9224
    8182:	00a4a2        	movi	a10, 0x400
    8185:	122392        	l32i	a9, a3, 72
    8188:	0603c2        	l8ui	a12, a3, 6
    818b:	0543c2        	s8i	a12, a3, 5
    818e:	0cbd      	mov.n	a11, a12
    8190:	2099a0        	or	a9, a9, a10
    8193:	422882        	l32i	a8, a8, 0x108
    8196:	0003a2        	l8ui	a10, a3, 0
    8199:	126392        	s32i	a9, a3, 72
    819c:	0008e0        	excw
    819f:	03ad      	mov.n	a10, a3
    81a1:	4b0c      	movi.n	a11, 4
    81a3:	851ec1        	l32r	a12, 0xfffe961c
    81a6:	122392        	l32i	a9, a3, 72
    81a9:	702782        	l32i	a8, a7, 0x1c0
    81ac:	1099c0        	and	a9, a9, a12
    81af:	126392        	s32i	a9, a3, 72
    81b2:	0008e0        	excw
    81b5:	03ad      	mov.n	a10, a3
    81b7:	702782        	l32i	a8, a7, 0x1c0
    81ba:	00a1b2        	movi	a11, 0x100
    81bd:	0008e0        	excw
    81c0:	010392        	l8ui	a9, a3, 1
    81c3:	fdc9a2        	addi	a10, a9, -3
    81c6:	f3ba16        	beqz	a10, 0x8105
    81c9:	fcc9b2        	addi	a11, a9, -4
    81cc:	f35b16        	beqz	a11, 0x8105
    81cf:	03ad      	mov.n	a10, a3
    81d1:	852cb1        	l32r	a11, 0xfffe9684
    81d4:	111392        	l16ui	a9, a3, 34
    81d7:	582782        	l32i	a8, a7, 0x160
    81da:	1099b0        	and	a9, a9, a11
    81dd:	115392        	s16i	a9, a3, 34
    81e0:	0008e0        	excw
    81e3:	16a4a2        	movi	a10, 0x416
    81e6:	0b0c      	movi.n	a11, 0
    81e8:	2c0c      	movi.n	a12, 2
    81ea:	851981        	l32r	a8, 0xfffe9650
    81ed:	0003d2        	l8ui	a13, a3, 0
    81f0:	272882        	l32i	a8, a8, 156
    81f3:	3e0c      	movi.n	a14, 3
    81f5:	0008e0        	excw
    81f8:	0001b2        	l8ui	a11, a1, 0
    81fb:	d398      	l32i.n	a9, a3, 52
    81fd:	23bb00        	excw
    8200:	0e6917        	bbci	a9, 1, 0x8212
    8203:	592782        	l32i	a8, a7, 0x164
    8206:	03ad      	mov.n	a10, a3
    8208:	0008e0        	excw
    820b:	ffd186        	j	0x8155
    820e:	c20c      	movi.n	a2, 12
    8210:	f01d      	excw
    8212:	d33b      	addi.n	a13, a3, 3
    8214:	2a0c      	movi.n	a10, 2
    8216:	8514c1        	l32r	a12, 0xfffe9668
    8219:	1e2782        	l32i	a8, a7, 120
    821c:	3e1c      	movi.n	a14, 19
    821e:	0008e0        	excw
    8221:	ffcc06        	j	0x8155
    8224:	004136        	excw
    8227:	851531        	l32r	a3, 0xfffe967c
    822a:	9398      	l32i.n	a9, a3, 36
    822c:	d28c      	beqz.n	a2, 0x823d
    822e:	59cc      	bnez.n	a9, 0x8237
    8230:	1a0c      	movi.n	a10, 1
    8232:	0005e5        	excw
    8235:	9398      	l32i.n	a9, a3, 36
    8237:	891b      	addi.n	a8, a9, 1
    8239:	9389      	s32i.n	a8, a3, 36
    823b:	f01d      	excw
    823d:	a90b      	addi.n	a10, a9, -1
    823f:	93a9      	s32i.n	a10, a3, 36
    8241:	3acc      	bnez.n	a10, 0x8248
    8243:	2a0c      	movi.n	a10, 2
    8245:	0004a5        	excw
    8248:	f01d      	excw
    824a:	360000        	excw
    824d:	ad0061        	l32r	a6, 0xffff3650
    8250:	01bd02        	excw
    8253:	849c31        	l32r	a3, 0xfffe94c4
    8256:	090c      	movi.n	a9, 0
    8258:	ec2382        	l32i	a8, a3, 0x3b0
    825b:	004192        	s8i	a9, a1, 0
    825e:	0008e0        	excw
    8261:	02ad      	mov.n	a10, a2
    8263:	8a2382        	l32i	a8, a3, 0x228
    8266:	3b0c      	movi.n	a11, 3
    8268:	0008e0        	excw
    826b:	f01d      	excw
    826d:	000000        	ill
    8270:	004136        	excw
    8273:	020c      	movi.n	a2, 0
    8275:	853031        	l32r	a3, 0xfffe9738
    8278:	ffa042        	movi	a4, 255
    827b:	a23a      	add.n	a10, a2, a3
    827d:	800aa2        	l8ui	a10, a10, 128
    8280:	021a47        	beq	a10, a4, 0x8286
    8283:	fffca5        	excw
    8286:	221b      	addi.n	a2, a2, 1
    8288:	742020        	extui	a2, a2, 0, 8
    828b:	ec9266        	bnei	a2, 10, 0x827b
    828e:	f01d      	excw
    8290:	006136        	excw
    8293:	2a0c      	movi.n	a10, 2
    8295:	db1c      	movi.n	a11, 29
    8297:	4d0c      	movi.n	a13, 4
    8299:	840f81        	l32r	a8, 0xfffe92d8
    829c:	01cd      	mov.n	a12, a1
    829e:	7888      	l32i.n	a8, a8, 28
    82a0:	0129      	s32i.n	a2, a1, 0
    82a2:	0008e0        	excw
    82a5:	f01d      	excw
    82a7:	413600        	srli	a3, a0, 6
    82aa:	3a0c00        	excw
    82ad:	853191        	l32r	a9, 0xfffe9774
    82b0:	ffa082        	movi	a8, 255
    82b3:	005982        	s16i	a8, a9, 0
    82b6:	fffda5        	excw
    82b9:	f01d      	excw
    82bb:	413600        	srli	a3, a0, 6
    82be:	312100        	srai	a2, a0, 17
    82c1:	128285        	call0	0x1aaec
    82c4:	a09200        	addx4	a9, a2, a0
    82c7:	ff          	.byte 0xff
    82c8:	149897        	bne	a8, a9, 0x82e0
    82cb:	2a0c      	movi.n	a10, 2
    82cd:	e8a3b2        	movi	a11, 0x3e8
    82d0:	841481        	l32r	a8, 0xfffe9320
    82d3:	0c0c      	movi.n	a12, 0
    82d5:	7888      	l32i.n	a8, a8, 28
    82d7:	8532d1        	l32r	a13, 0xfffe97a0
    82da:	0008e0        	excw
    82dd:	0052a2        	s16i	a10, a2, 0
    82e0:	f01d      	excw
    82e2:	360000        	excw
    82e5:	210041        	l32r	a4, 0xfffd06e8
    82e8:	a28531        	l32r	a3, 0xffff0cfc
    82eb:	320012        	l8ui	a1, a0, 50
    82ee:	37ffa0        	excw
    82f1:	0a1a      	add.n	a0, a10, a1
    82f3:	841481        	l32r	a8, 0xfffe9344
    82f6:	8888      	l32i.n	a8, a8, 32
    82f8:	0008e0        	excw
    82fb:	005232        	s16i	a3, a2, 0
    82fe:	f01d      	excw
    8300:	004136        	excw
    8303:	0d1226        	beqi	a2, 1, 0x8314
    8306:	122226        	beqi	a2, 2, 0x831c
    8309:	0d3266        	bnei	a2, 3, 0x831a
    830c:	fff625        	excw
    830f:	fffae5        	excw
    8312:	f01d      	excw
    8314:	fff5a5        	excw
    8317:	fffa65        	excw
    831a:	f01d      	excw
    831c:	fffc65        	excw
    831f:	f01d      	excw
    8321:	000000        	ill
    8324:	004136        	excw
    8327:	840f41        	l32r	a4, 0xfffe9364
    832a:	0312a2        	l16ui	a10, a2, 6
    832d:	f7a182        	movi	a8, 0x1f7
    8330:	569a87        	bne	a10, a8, 0x838a
    8333:	0d02a2        	l8ui	a10, a2, 13
    8336:	4238      	l32i.n	a3, a2, 16
    8338:	849681        	l32r	a8, 0xfffe9590
    833b:	0a0352        	l8ui	a5, a3, 10
    833e:	202882        	l32i	a8, a8, 128
    8341:	553a      	add.n	a5, a5, a3
    8343:	55cb      	addi.n	a5, a5, 12
    8345:	0008e0        	excw
    8348:	05ea16        	beqz	a10, 0x83aa
    834b:	05ad      	mov.n	a10, a5
    834d:	0d02b2        	l8ui	a11, a2, 13
    8350:	0c02c2        	l8ui	a12, a2, 12
    8353:	849c81        	l32r	a8, 0xfffe95c4
    8356:	0d0c      	movi.n	a13, 0
    8358:	f42882        	l32i	a8, a8, 0x3d0
    835b:	0403e2        	l8ui	a14, a3, 4
    835e:	0008e0        	excw
    8361:	294c      	movi.n	a9, 66
    8363:	439a97        	bne	a10, a9, 0x83aa
    8366:	2a0c      	movi.n	a10, 2
    8368:	f7a1b2        	movi	a11, 0x1f7
    836b:	c2cb      	addi.n	a12, a2, 12
    836d:	7488      	l32i.n	a8, a4, 28
    836f:	8d0c      	movi.n	a13, 8
    8371:	0008e0        	excw
    8374:	5488      	l32i.n	a8, a4, 20
    8376:	02ad      	mov.n	a10, a2
    8378:	0008e0        	excw
    837b:	842781        	l32r	a8, 0xfffe9418
    837e:	03bd      	mov.n	a11, a3
    8380:	f888      	l32i.n	a8, a8, 60
    8382:	8533a1        	l32r	a10, 0xfffe9850
    8385:	0008e0        	excw
    8388:	f01d      	excw
    838a:	d91c      	movi.n	a9, 29
    838c:	0e9a97        	bne	a10, a9, 0x839e
    838f:	0c02a2        	l8ui	a10, a2, 12
    8392:	fff6e5        	excw
    8395:	5488      	l32i.n	a8, a4, 20
    8397:	02ad      	mov.n	a10, a2
    8399:	0008e0        	excw
    839c:	f01d      	excw
    839e:	851581        	l32r	a8, 0xfffe97f4
    83a1:	a888      	l32i.n	a8, a8, 40
    83a3:	02ad      	mov.n	a10, a2
    83a5:	0008e0        	excw
    83a8:	f01d      	excw
    83aa:	840781        	l32r	a8, 0xfffe93c8
    83ad:	8888      	l32i.n	a8, a8, 32
    83af:	03ad      	mov.n	a10, a3
    83b1:	0008e0        	excw
    83b4:	5488      	l32i.n	a8, a4, 20
    83b6:	02ad      	mov.n	a10, a2
    83b8:	0008e0        	excw
    83bb:	f01d      	excw
    83bd:	000000        	ill
    83c0:	004136        	excw
    83c3:	131382        	l16ui	a8, a3, 38
    83c6:	7ae817        	bbsi	a8, 1, 0x8444
    83c9:	040392        	l8ui	a9, a3, 4
    83cc:	074956        	bnez	a9, 0x8444
    83cf:	0c03a2        	l8ui	a10, a3, 12
    83d2:	0b43a2        	s8i	a10, a3, 11
    83d5:	03ad      	mov.n	a10, a3
    83d7:	ff5725        	excw
    83da:	8534c1        	l32r	a12, 0xfffe98ac
    83dd:	0c03b2        	l8ui	a11, a3, 12
    83e0:	c2ca      	add.n	a12, a2, a12
    83e2:	000cc2        	l8ui	a12, a12, 0
    83e5:	849641        	l32r	a4, 0xfffe9640
    83e8:	5abcb7        	bgeu	a12, a11, 0x8446
    83eb:	13a4a2        	movi	a10, 0x413
    83ee:	b3cb      	addi.n	a11, a3, 12
    83f0:	2c0c      	movi.n	a12, 2
    83f2:	0003d2        	l8ui	a13, a3, 0
    83f5:	06d482        	addmi	a8, a4, 0x600
    83f8:	242882        	l32i	a8, a8, 144
    83fb:	3e0c      	movi.n	a14, 3
    83fd:	0008e0        	excw
    8400:	23b200        	excw
    8403:	d34b      	addi.n	a13, a3, 4
    8405:	4a0c      	movi.n	a10, 4
    8407:	8514c1        	l32r	a12, 0xfffe9858
    840a:	1e2482        	l32i	a8, a4, 120
    840d:	1e0c      	movi.n	a14, 1
    840f:	0008e0        	excw
    8412:	f01d      	excw
    8414:	8f2582        	l32i	a8, a5, 0x23c
    8417:	03ad      	mov.n	a10, a3
    8419:	0008e0        	excw
    841c:	0c03b2        	l8ui	a11, a3, 12
    841f:	0b0392        	l8ui	a9, a3, 11
    8422:	0a2d      	mov.n	a2, a10
    8424:	1c19b7        	beq	a9, a11, 0x8444
    8427:	842981        	l32r	a8, 0xfffe94cc
    842a:	0003a2        	l8ui	a10, a3, 0
    842d:	302882        	l32i	a8, a8, 192
    8430:	02bd      	mov.n	a11, a2
    8432:	0008e0        	excw
    8435:	02cd      	mov.n	a12, a2
    8437:	1513b2        	l16ui	a11, a3, 42
    843a:	03dd      	mov.n	a13, a3
    843c:	dd2482        	l32i	a8, a4, 0x374
    843f:	0a0c      	movi.n	a10, 0
    8441:	0008e0        	excw
    8444:	f01d      	excw
    8446:	0b0392        	l8ui	a9, a3, 11
    8449:	0a19b7        	beq	a9, a11, 0x8457
    844c:	1513a2        	l16ui	a10, a3, 42
    844f:	de2482        	l32i	a8, a4, 0x378
    8452:	03cd      	mov.n	a12, a3
    8454:	0008e0        	excw
    8457:	849c51        	l32r	a5, 0xfffe96c8
    845a:	9a1c      	movi.n	a10, 25
    845c:	dc2582        	l32i	a8, a5, 0x370
    845f:	03bd      	mov.n	a11, a3
    8461:	0008e0        	excw
    8464:	8a8c      	beqz.n	a10, 0x8470
    8466:	db2582        	l32i	a8, a5, 0x36c
    8469:	9a1c      	movi.n	a10, 25
    846b:	0008e0        	excw
    846e:	6adc      	bnez.n	a10, 0x8488
    8470:	aa1c      	movi.n	a10, 26
    8472:	dc2582        	l32i	a8, a5, 0x370
    8475:	03bd      	mov.n	a11, a3
    8477:	0008e0        	excw
    847a:	f96a16        	beqz	a10, 0x8414
    847d:	db2582        	l32i	a8, a5, 0x36c
    8480:	aa1c      	movi.n	a10, 26
    8482:	0008e0        	excw
    8485:	f8ba16        	beqz	a10, 0x8414
    8488:	8535a1        	l32r	a10, 0xfffe995c
    848b:	161392        	l16ui	a9, a3, 44
    848e:	1099a0        	and	a9, a9, a10
    8491:	0299a7        	bne	a9, a10, 0x8497
    8494:	ffdf06        	j	0x8414
    8497:	0e03a2        	l8ui	a10, a3, 14
    849a:	aa0b      	addi.n	a10, a10, -1
    849c:	f74a16        	beqz	a10, 0x8414
    849f:	03ad      	mov.n	a10, a3
    84a1:	02cd      	mov.n	a12, a2
    84a3:	b02582        	l32i	a8, a5, 0x2c0
    84a6:	1b0c      	movi.n	a11, 1
    84a8:	0008e0        	excw
    84ab:	f01d      	excw
    84ad:	000000        	ill
    84b0:	006136        	excw
    84b3:	030c      	movi.n	a3, 0
    84b5:	851941        	l32r	a4, 0xfffe991c
    84b8:	853671        	l32r	a7, 0xfffe9990
    84bb:	fad442        	addmi	a4, a4, 0xfffffa00
    84be:	2a2482        	l32i	a8, a4, 168
    84c1:	0008e0        	excw
    84c4:	905330        	addx2	a5, a3, a3
    84c7:	1155a0        	slli	a5, a5, 6
    84ca:	657a      	add.n	a6, a5, a7
    84cc:	511692        	l16ui	a9, a6, 162
    84cf:	850682        	l8ui	a8, a6, 133
    84d2:	3d19a7        	beq	a9, a10, 0x8513
    84d5:	3a1827        	beq	a8, a2, 0x8513
    84d8:	2c2692        	l32i	a9, a6, 176
    84db:	34e917        	bbsi	a9, 1, 0x8513
    84de:	5ca2b2        	movi	a11, 0x25c
    84e1:	8488a1        	l32r	a10, 0xfffe9704
    84e4:	849c81        	l32r	a8, 0xfffe9754
    84e7:	a5aa      	add.n	a10, a5, a10
    84e9:	01a9      	s32i.n	a10, a1, 0
    84eb:	df2882        	l32i	a8, a8, 0x37c
    84ee:	aaba      	add.n	a10, a10, a11
    84f0:	0008e0        	excw
    84f3:	850692        	l8ui	a9, a6, 133
    84f6:	1919a7        	beq	a9, a10, 0x8513
    84f9:	12a4a2        	movi	a10, 0x412
    84fc:	7806d2        	l8ui	a13, a6, 120
    84ff:	3e0c      	movi.n	a14, 3
    8501:	69a2c2        	movi	a12, 0x269
    8504:	01b8      	l32i.n	a11, a1, 0
    8506:	851981        	l32r	a8, 0xfffe996c
    8509:	bbca      	add.n	a11, a11, a12
    850b:	232882        	l32i	a8, a8, 140
    850e:	2c0c      	movi.n	a12, 2
    8510:	0008e0        	excw
    8513:	2a2482        	l32i	a8, a4, 168
    8516:	0008e0        	excw
    8519:	511692        	l16ui	a9, a6, 162
    851c:	8406c2        	l8ui	a12, a6, 132
    851f:	1119a7        	beq	a9, a10, 0x8534
    8522:	0e1c27        	beq	a12, a2, 0x8534
    8525:	03ad      	mov.n	a10, a3
    8527:	8488b1        	l32r	a11, 0xfffe9748
    852a:	5ca2c2        	movi	a12, 0x25c
    852d:	bbca      	add.n	a11, a11, a12
    852f:	b5ba      	add.n	a11, a5, a11
    8531:	ffe8e5        	excw
    8534:	331b      	addi.n	a3, a3, 1
    8536:	743030        	extui	a3, a3, 0, 8
    8539:	819366        	bnei	a3, 10, 0x84be
    853c:	f01d      	excw
    853e:	360000        	excw
    8541:	ad0041        	l32r	a4, 0xffff3944
    8544:	f6a502        	movi	a0, 0x5f6
    8547:	ff          	.byte 0xff
    8548:	f01d      	excw
    854a:	360000        	excw
    854d:	ad0041        	l32r	a4, 0xffff3950
    8550:	f5e502        	excw
    8553:	ff          	.byte 0xff
    8554:	f01d      	excw
    8556:	360000        	excw
    8559:	710061        	l32r	a6, 0xfffe495c
    855c:	849c      	beqz.n	a4, 0x8578
    855e:	05ad      	mov.n	a10, a5
    8560:	ec2782        	l32i	a8, a7, 0x3b0
    8563:	01bd      	mov.n	a11, a1
    8565:	0008e0        	excw
    8568:	0a6d      	mov.n	a6, a10
    856a:	2d0c      	movi.n	a13, 2
    856c:	266417        	bbci	a4, 1, 0x8596
    856f:	0a0c      	movi.n	a10, 0
    8571:	05bd      	mov.n	a11, a5
    8573:	0c0c      	movi.n	a12, 0
    8575:	e698      	l32i.n	a9, a6, 56
    8577:	ed2782        	l32i	a8, a7, 0x3b4
    857a:	2099d0        	or	a9, a9, a13
    857d:	e699      	s32i.n	a9, a6, 56
    857f:	0008e0        	excw
    8582:	02bd      	mov.n	a11, a2
    8584:	03dd      	mov.n	a13, a3
    8586:	05ed      	mov.n	a14, a5
    8588:	74a0a0        	extui	a10, a10, 0, 8
    858b:	f62782        	l32i	a8, a7, 0x3d8
    858e:	1c0c      	movi.n	a12, 1
    8590:	0008e0        	excw
    8593:	001f46        	j	0x8614
    8596:	0a0c      	movi.n	a10, 0
    8598:	06bd      	mov.n	a11, a6
    859a:	dc2782        	l32i	a8, a7, 0x370
    859d:	0c0622        	l8ui	a2, a6, 12
    85a0:	8534d1        	l32r	a13, 0xfffe9a70
    85a3:	0001c2        	l8ui	a12, a1, 0
    85a6:	000392        	l8ui	a9, a3, 0
    85a9:	ccda      	add.n	a12, a12, a13
    85ab:	004c92        	s8i	a9, a12, 0
    85ae:	0008e0        	excw
    85b1:	849641        	l32r	a4, 0xfffe980c
    85b4:	1a9c      	beqz.n	a10, 0x85c9
    85b6:	db2782        	l32i	a8, a7, 0x36c
    85b9:	0a0c      	movi.n	a10, 0
    85bb:	0008e0        	excw
    85be:	7a8c      	beqz.n	a10, 0x85c9
    85c0:	6e2482        	l32i	a8, a4, 0x1b8
    85c3:	0008e0        	excw
    85c6:	4e1a66        	bnei	a10, 1, 0x8618
    85c9:	1a0c      	movi.n	a10, 1
    85cb:	0c46a2        	s8i	a10, a6, 12
    85ce:	fa3da5        	excw
    85d1:	6a9c      	beqz.n	a10, 0x85eb
    85d3:	0006a2        	l8ui	a10, a6, 0
    85d6:	ff3565        	excw
    85d9:	0c06b2        	l8ui	a11, a6, 12
    85dc:	eacc      	bnez.n	a10, 0x85ee
    85de:	0c4bb6        	bltui	a11, 4, 0x85ee
    85e1:	3b0c      	movi.n	a11, 3
    85e3:	3a0c      	movi.n	a10, 3
    85e5:	0c46a2        	s8i	a10, a6, 12
    85e8:	000086        	j	0x85ee
    85eb:	0c06b2        	l8ui	a11, a6, 12
    85ee:	2212b7        	beq	a2, a11, 0x8614
    85f1:	8f2782        	l32i	a8, a7, 0x23c
    85f4:	06ad      	mov.n	a10, a6
    85f6:	0008e0        	excw
    85f9:	842981        	l32r	a8, 0xfffe96a0
    85fc:	0abd      	mov.n	a11, a10
    85fe:	302882        	l32i	a8, a8, 192
    8601:	05ad      	mov.n	a10, a5
    8603:	0008e0        	excw
    8606:	06cd      	mov.n	a12, a6
    8608:	1516a2        	l16ui	a10, a6, 42
    860b:	de2482        	l32i	a8, a4, 0x378
    860e:	0c06b2        	l8ui	a11, a6, 12
    8611:	0008e0        	excw
    8614:	020c      	movi.n	a2, 0
    8616:	f01d      	excw
    8618:	0003a2        	l8ui	a10, a3, 0
    861b:	ffeb06        	j	0x85cb
    861e:	360000        	excw
    8621:	ed0061        	l32r	a6, 0x3a24 (0x88889a70)
    8624:	a38207        	bany	a2, a0, 0x85cb
    8627:	71ea      	add.n	a7, a1, a14
    8629:	ad8496        	bltz	a4, 0x8105
    862c:	d74204        	excw
    862f:	1a8702        	excw
    8632:	e95b      	addi.n	a14, a9, 5
    8634:	a39201        	l32r	a0, 0xffff147c
    8637:	90eb      	addi.n	a9, a0, 14
    8639:	c09a      	add.n	a12, a0, a9
    863b:	0e5916        	beqz	a9, 0x8724
    863e:	851ab1        	l32r	a11, 0xfffe9aa8
    8641:	469ab7        	bne	a10, a11, 0x868b
    8644:	03ad      	mov.n	a10, a3
    8646:	2b2c      	movi.n	a11, 34
    8648:	b52482        	l32i	a8, a4, 0x2d4
    864b:	06b9      	s32i.n	a11, a6, 0
    864d:	0008e0        	excw
    8650:	000dc6        	j	0x868b
    8653:	8f2482        	l32i	a8, a4, 0x23c
    8656:	03ad      	mov.n	a10, a3
    8658:	0008e0        	excw
    865b:	0c03b2        	l8ui	a11, a3, 12
    865e:	0b0392        	l8ui	a9, a3, 11
    8661:	0a2d      	mov.n	a2, a10
    8663:	1c19b7        	beq	a9, a11, 0x8683
    8666:	842981        	l32r	a8, 0xfffe970c
    8669:	0003a2        	l8ui	a10, a3, 0
    866c:	302882        	l32i	a8, a8, 192
    866f:	02bd      	mov.n	a11, a2
    8671:	0008e0        	excw
    8674:	02cd      	mov.n	a12, a2
    8676:	0a0c      	movi.n	a10, 0
    8678:	1513b2        	l16ui	a11, a3, 42
    867b:	dd2782        	l32i	a8, a7, 0x374
    867e:	03dd      	mov.n	a13, a3
    8680:	0008e0        	excw
    8683:	aa2482        	l32i	a8, a4, 0x2a8
    8686:	03ad      	mov.n	a10, a3
    8688:	0008e0        	excw
    868b:	0628      	l32i.n	a2, a6, 0
    868d:	f01d      	excw
    868f:	05ad      	mov.n	a10, a5
    8691:	13a4b2        	movi	a11, 0x413
    8694:	eb2482        	l32i	a8, a4, 0x3ac
    8697:	0c0c      	movi.n	a12, 0
    8699:	0008e0        	excw
    869c:	0daa16        	beqz	a10, 0x877a
    869f:	4a0c      	movi.n	a10, 4
    86a1:	02bd      	mov.n	a11, a2
    86a3:	142782        	l32i	a8, a7, 80
    86a6:	090c      	movi.n	a9, 0
    86a8:	0699      	s32i.n	a9, a6, 0
    86aa:	0403c2        	l8ui	a12, a3, 4
    86ad:	0008e0        	excw
    86b0:	8534c1        	l32r	a12, 0xfffe9b80
    86b3:	0c03b2        	l8ui	a11, a3, 12
    86b6:	c2ca      	add.n	a12, a2, a12
    86b8:	004cb2        	s8i	a11, a12, 0
    86bb:	0c03b2        	l8ui	a11, a3, 12
    86be:	0b03a2        	l8ui	a10, a3, 11
    86c1:	0a1ab7        	beq	a10, a11, 0x86cf
    86c4:	1513a2        	l16ui	a10, a3, 42
    86c7:	de2782        	l32i	a8, a7, 0x378
    86ca:	03cd      	mov.n	a12, a3
    86cc:	0008e0        	excw
    86cf:	9a1c      	movi.n	a10, 25
    86d1:	dc2482        	l32i	a8, a4, 0x370
    86d4:	03bd      	mov.n	a11, a3
    86d6:	0008e0        	excw
    86d9:	8a8c      	beqz.n	a10, 0x86e5
    86db:	db2482        	l32i	a8, a4, 0x36c
    86de:	9a1c      	movi.n	a10, 25
    86e0:	0008e0        	excw
    86e3:	6adc      	bnez.n	a10, 0x86fd
    86e5:	aa1c      	movi.n	a10, 26
    86e7:	dc2482        	l32i	a8, a4, 0x370
    86ea:	03bd      	mov.n	a11, a3
    86ec:	0008e0        	excw
    86ef:	f60a16        	beqz	a10, 0x8653
    86f2:	db2482        	l32i	a8, a4, 0x36c
    86f5:	aa1c      	movi.n	a10, 26
    86f7:	0008e0        	excw
    86fa:	f55a16        	beqz	a10, 0x8653
    86fd:	8535a1        	l32r	a10, 0xfffe9bd4
    8700:	161392        	l16ui	a9, a3, 44
    8703:	1099a0        	and	a9, a9, a10
    8706:	c099a0        	sub	a9, a9, a10
    8709:	f46916        	beqz	a9, 0x8653
    870c:	0e03a2        	l8ui	a10, a3, 14
    870f:	aa0b      	addi.n	a10, a10, -1
    8711:	f3ea16        	beqz	a10, 0x8653
    8714:	03ad      	mov.n	a10, a3
    8716:	74c020        	extui	a12, a2, 0, 8
    8719:	b02482        	l32i	a8, a4, 0x2c0
    871c:	1b0c      	movi.n	a11, 1
    871e:	0008e0        	excw
    8721:	ffd986        	j	0x868b
    8724:	05ad      	mov.n	a10, a5
    8726:	13a4b2        	movi	a11, 0x413
    8729:	eb2482        	l32i	a8, a4, 0x3ac
    872c:	0c0c      	movi.n	a12, 0
    872e:	0008e0        	excw
    8731:	045a16        	beqz	a10, 0x877a
    8734:	4a0c      	movi.n	a10, 4
    8736:	02bd      	mov.n	a11, a2
    8738:	142782        	l32i	a8, a7, 80
    873b:	010592        	l8ui	a9, a5, 1
    873e:	0699      	s32i.n	a9, a6, 0
    8740:	0403c2        	l8ui	a12, a3, 4
    8743:	0008e0        	excw
    8746:	0c03a2        	l8ui	a10, a3, 12
    8749:	314ab6        	bltui	a10, 4, 0x877e
    874c:	01e8      	l32i.n	a14, a1, 0
    874e:	13a4a2        	movi	a10, 0x413
    8751:	b3cb      	addi.n	a11, a3, 12
    8753:	2c0c      	movi.n	a12, 2
    8755:	851981        	l32r	a8, 0xfffe9bbc
    8758:	390c      	movi.n	a9, 3
    875a:	0c4392        	s8i	a9, a3, 12
    875d:	242882        	l32i	a8, a8, 144
    8760:	0003d2        	l8ui	a13, a3, 0
    8763:	0008e0        	excw
    8766:	02bd      	mov.n	a11, a2
    8768:	d34b      	addi.n	a13, a3, 4
    876a:	4a0c      	movi.n	a10, 4
    876c:	8514c1        	l32r	a12, 0xfffe9bbc
    876f:	1e2782        	l32i	a8, a7, 120
    8772:	1e0c      	movi.n	a14, 1
    8774:	0008e0        	excw
    8777:	ffc406        	j	0x868b
    877a:	c20c      	movi.n	a2, 12
    877c:	f01d      	excw
    877e:	9a1c      	movi.n	a10, 25
    8780:	190c      	movi.n	a9, 1
    8782:	0c4392        	s8i	a9, a3, 12
    8785:	dc2482        	l32i	a8, a4, 0x370
    8788:	03bd      	mov.n	a11, a3
    878a:	0008e0        	excw
    878d:	8a8c      	beqz.n	a10, 0x8799
    878f:	db2482        	l32i	a8, a4, 0x36c
    8792:	9a1c      	movi.n	a10, 25
    8794:	0008e0        	excw
    8797:	4adc      	bnez.n	a10, 0x87af
    8799:	aa1c      	movi.n	a10, 26
    879b:	dc2482        	l32i	a8, a4, 0x370
    879e:	03bd      	mov.n	a11, a3
    87a0:	0008e0        	excw
    87a3:	ea9c      	beqz.n	a10, 0x87c5
    87a5:	db2482        	l32i	a8, a4, 0x36c
    87a8:	aa1c      	movi.n	a10, 26
    87aa:	0008e0        	excw
    87ad:	4a9c      	beqz.n	a10, 0x87c5
    87af:	0e0392        	l8ui	a9, a3, 14
    87b2:	0f1926        	beqi	a9, 1, 0x87c5
    87b5:	03ad      	mov.n	a10, a3
    87b7:	74c020        	extui	a12, a2, 0, 8
    87ba:	b02482        	l32i	a8, a4, 0x2c0
    87bd:	1b0c      	movi.n	a11, 1
    87bf:	0008e0        	excw
    87c2:	ffb146        	j	0x868b
    87c5:	03ad      	mov.n	a10, a3
    87c7:	b52482        	l32i	a8, a4, 0x2d4
    87ca:	06b8      	l32i.n	a11, a6, 0
    87cc:	0008e0        	excw
    87cf:	ffae06        	j	0x868b
    87d2:	360000        	excw
    87d5:	c10061        	l32r	a6, 0xffff8bd8
    87d8:	8429      	s32i.n	a2, a4, 32
    87da:	849641        	l32r	a4, 0xfffe9a34
    87dd:	010392        	l8ui	a9, a3, 1
    87e0:	2172f6        	bgeui	a2, 7, 0x8805
    87e3:	0a4966        	bnei	a9, 4, 0x87f1
    87e6:	0003a2        	l8ui	a10, a3, 0
    87e9:	452c82        	l32i	a8, a12, 0x114
    87ec:	1b0c      	movi.n	a11, 1
    87ee:	0008e0        	excw
    87f1:	23b200        	excw
    87f4:	d34b      	addi.n	a13, a3, 4
    87f6:	4a0c      	movi.n	a10, 4
    87f8:	8514c1        	l32r	a12, 0xfffe9c48
    87fb:	1e2482        	l32i	a8, a4, 120
    87fe:	6e0c      	movi.n	a14, 6
    8800:	0008e0        	excw
    8803:	f01d      	excw
    8805:	0a4966        	bnei	a9, 4, 0x8813
    8808:	0003a2        	l8ui	a10, a3, 0
    880b:	452c82        	l32i	a8, a12, 0x114
    880e:	0b0c      	movi.n	a11, 0
    8810:	0008e0        	excw
    8813:	849c81        	l32r	a8, 0xfffe9a84
    8816:	390c      	movi.n	a9, 3
    8818:	2b0c      	movi.n	a11, 2
    881a:	842ea1        	l32r	a10, 0xfffe98d4
    881d:	0d0c      	movi.n	a13, 0
    881f:	1513e2        	l16ui	a14, a3, 42
    8822:	0151e2        	s16i	a14, a1, 2
    8825:	2d13c2        	l16ui	a12, a3, 90
    8828:	0041d2        	s8i	a13, a1, 0
    882b:	0441d2        	s8i	a13, a1, 4
    882e:	0351c2        	s16i	a12, a1, 6
    8831:	4c53a2        	s16i	a10, a3, 152
    8834:	4b53b2        	s16i	a11, a3, 150
    8837:	014392        	s8i	a9, a3, 1
    883a:	02bd      	mov.n	a11, a2
    883c:	a92882        	l32i	a8, a8, 0x2a4
    883f:	03ad      	mov.n	a10, a3
    8841:	0008e0        	excw
    8844:	cc2482        	l32i	a8, a4, 0x330
    8847:	01ad      	mov.n	a10, a1
    8849:	0008e0        	excw
    884c:	f01d      	excw
    884e:	360000        	excw
    8851:	ed00c1        	l32r	a12, 0x3c54 (0xc11521f2)
    8854:	a38206        	j	0xffff1660
    8857:	80ea      	add.n	a8, a0, a14
    8859:	56c084        	excw
    885c:	0ca8      	l32i.n	a10, a12, 0
    885e:	853761        	l32r	a6, 0xfffe9d3c
    8861:	040c      	movi.n	a4, 0
    8863:	c1e9      	s32i.n	a14, a1, 48
    8865:	849cd1        	l32r	a13, 0xfffe9ad8
    8868:	101392        	l16ui	a9, a3, 32
    886b:	eb2dd2        	l32i	a13, a13, 0x3ac
    886e:	146927        	bbci	a9, 2, 0x8886
    8871:	05ad      	mov.n	a10, a5
    8873:	22a4b2        	movi	a11, 0x422
    8876:	04cd      	mov.n	a12, a4
    8878:	000de0        	excw
    887b:	0f1a16        	beqz	a10, 0x8970
    887e:	526a      	add.n	a5, a2, a6
    8880:	004542        	s8i	a4, a5, 0
    8883:	000386        	j	0x8895
    8886:	05ad      	mov.n	a10, a5
    8888:	04cd      	mov.n	a12, a4
    888a:	23a4b2        	movi	a11, 0x423
    888d:	000de0        	excw
    8890:	0dca16        	beqz	a10, 0x8970
    8893:	526a      	add.n	a5, a2, a6
    8895:	2a0c      	movi.n	a10, 2
    8897:	02bd      	mov.n	a11, a2
    8899:	0303c2        	l8ui	a12, a3, 3
    889c:	8538d1        	l32r	a13, 0xfffe9d7c
    889f:	849661        	l32r	a6, 0xfffe9af8
    88a2:	101392        	l16ui	a9, a3, 32
    88a5:	142682        	l32i	a8, a6, 80
    88a8:	1099d0        	and	a9, a9, a13
    88ab:	105392        	s16i	a9, a3, 32
    88ae:	0008e0        	excw
    88b1:	090c      	movi.n	a9, 0
    88b3:	204110        	or	a4, a1, a1
    88b6:	18a0e2        	movi	a14, 24
    88b9:	1cae76        	excw
    88bc:	2e23a2        	l32i	a10, a3, 184
    88bf:	894a      	add.n	a8, a9, a4
    88c1:	aa9a      	add.n	a10, a10, a9
    88c3:	240aa2        	l8ui	a10, a10, 36
    88c6:	0048a2        	s8i	a10, a8, 0
    88c9:	2e23f2        	l32i	a15, a3, 184
    88cc:	a91b      	addi.n	a10, a9, 1
    88ce:	ff9a      	add.n	a15, a15, a9
    88d0:	7490a0        	extui	a9, a10, 0, 8
    88d3:	3c0ff2        	l8ui	a15, a15, 60
    88d6:	1848f2        	s8i	a15, a8, 24
    88d9:	01ad      	mov.n	a10, a1
    88db:	a62682        	l32i	a8, a6, 0x298
    88de:	8b1c      	movi.n	a11, 24
    88e0:	0008e0        	excw
    88e3:	18c1a2        	addi	a10, a1, 24
    88e6:	a62682        	l32i	a8, a6, 0x298
    88e9:	8b1c      	movi.n	a11, 24
    88eb:	0008e0        	excw
    88ee:	0005f2        	l8ui	a15, a5, 0
    88f1:	f92c      	movi.n	a9, 47
    88f3:	4839f7        	bltu	a9, a15, 0x893f
    88f6:	bf4a      	add.n	a11, a15, a4
    88f8:	07ed      	mov.n	a14, a7
    88fa:	23a4a2        	movi	a10, 0x423
    88fd:	851981        	l32r	a8, 0xfffe9d64
    8900:	2c0c      	movi.n	a12, 2
    8902:	432882        	l32i	a8, a8, 0x10c
    8905:	0003d2        	l8ui	a13, a3, 0
    8908:	0008e0        	excw
    890b:	02bd      	mov.n	a11, a2
    890d:	d33b      	addi.n	a13, a3, 3
    890f:	2a0c      	movi.n	a10, 2
    8911:	8514c1        	l32r	a12, 0xfffe9d64
    8914:	4e2c      	movi.n	a14, 36
    8916:	000592        	l8ui	a9, a5, 0
    8919:	1e2682        	l32i	a8, a6, 120
    891c:	10c992        	addi	a9, a9, 16
    891f:	004592        	s8i	a9, a5, 0
    8922:	0008e0        	excw
    8925:	020c      	movi.n	a2, 0
    8927:	f01d      	excw
    8929:	02ad      	mov.n	a10, a2
    892b:	03bd      	mov.n	a11, a3
    892d:	04cd      	mov.n	a12, a4
    892f:	851581        	l32r	a8, 0xfffe9d84
    8932:	05dd      	mov.n	a13, a5
    8934:	b888      	l32i.n	a8, a8, 44
    8936:	07fd      	mov.n	a15, a7
    8938:	0008e0        	excw
    893b:	0a2d      	mov.n	a2, a10
    893d:	f01d      	excw
    893f:	0a0c      	movi.n	a10, 0
    8941:	0045a2        	s8i	a10, a5, 0
    8944:	101392        	l16ui	a9, a3, 32
    8947:	136907        	bbci	a9, 0, 0x895e
    894a:	02bd      	mov.n	a11, a2
    894c:	d33b      	addi.n	a13, a3, 3
    894e:	2a0c      	movi.n	a10, 2
    8950:	8514c1        	l32r	a12, 0xfffe9da0
    8953:	1e2682        	l32i	a8, a6, 120
    8956:	5e2c      	movi.n	a14, 37
    8958:	0008e0        	excw
    895b:	fff186        	j	0x8925
    895e:	03ad      	mov.n	a10, a3
    8960:	74b020        	extui	a11, a2, 0, 8
    8963:	c1c8      	l32i.n	a12, a1, 48
    8965:	ac2682        	l32i	a8, a6, 0x2b0
    8968:	07dd      	mov.n	a13, a7
    896a:	0008e0        	excw
    896d:	ffed06        	j	0x8925
    8970:	c20c      	movi.n	a2, 12
    8972:	f01d      	excw
    8974:	00a136        	excw
    8977:	06ed      	mov.n	a14, a6
    8979:	f4c040        	extui	a12, a4, 0, 16
    897c:	0c51c2        	s16i	a12, a1, 24
    897f:	849661        	l32r	a6, 0xfffe9bd8
    8982:	22a442        	movi	a4, 0x422
    8985:	549c47        	bne	a12, a4, 0x89dd
    8988:	02bd      	mov.n	a11, a2
    898a:	0303c2        	l8ui	a12, a3, 3
    898d:	240c      	movi.n	a4, 2
    898f:	142682        	l32i	a8, a6, 80
    8992:	04ad      	mov.n	a10, a4
    8994:	0008e0        	excw
    8997:	000592        	l8ui	a9, a5, 0
    899a:	0105a2        	l8ui	a10, a5, 1
    899d:	0b1966        	bnei	a9, 1, 0x89ac
    89a0:	081a66        	bnei	a10, 1, 0x89ac
    89a3:	0205b2        	l8ui	a11, a5, 2
    89a6:	d0cbb2        	addi	a11, a11, -48
    89a9:	150b16        	beqz	a11, 0x8afd
    89ac:	07ed      	mov.n	a14, a7
    89ae:	eba3a2        	movi	a10, 0x3eb
    89b1:	01bd      	mov.n	a11, a1
    89b3:	2c0c      	movi.n	a12, 2
    89b5:	849c81        	l32r	a8, 0xfffe9c28
    89b8:	a91c      	movi.n	a9, 26
    89ba:	015192        	s16i	a9, a1, 2
    89bd:	fd2882        	l32i	a8, a8, 0x3f4
    89c0:	0c1192        	l16ui	a9, a1, 24
    89c3:	005192        	s16i	a9, a1, 0
    89c6:	0003d2        	l8ui	a13, a3, 0
    89c9:	0008e0        	excw
    89cc:	03ad      	mov.n	a10, a3
    89ce:	74b020        	extui	a11, a2, 0, 8
    89d1:	ae2682        	l32i	a8, a6, 0x2b8
    89d4:	5c0c      	movi.n	a12, 5
    89d6:	0008e0        	excw
    89d9:	0a2d      	mov.n	a2, a10
    89db:	f01d      	excw
    89dd:	21e9      	s32i.n	a14, a1, 8
    89df:	23a492        	movi	a9, 0x423
    89e2:	439c97        	bne	a12, a9, 0x8a29
    89e5:	2a0c      	movi.n	a10, 2
    89e7:	02bd      	mov.n	a11, a2
    89e9:	142682        	l32i	a8, a6, 80
    89ec:	0303c2        	l8ui	a12, a3, 3
    89ef:	0008e0        	excw
    89f2:	101392        	l16ui	a9, a3, 32
    89f5:	849cf1        	l32r	a15, 0xfffe9c68
    89f8:	41e917        	bbsi	a9, 1, 0x8a3d
    89fb:	07ed      	mov.n	a14, a7
    89fd:	01bd      	mov.n	a11, a1
    89ff:	2c0c      	movi.n	a12, 2
    8a01:	fd2f82        	l32i	a8, a15, 0x3f4
    8a04:	0c1192        	l16ui	a9, a1, 24
    8a07:	aa1c      	movi.n	a10, 26
    8a09:	0151a2        	s16i	a10, a1, 2
    8a0c:	005192        	s16i	a9, a1, 0
    8a0f:	eba3a2        	movi	a10, 0x3eb
    8a12:	0003d2        	l8ui	a13, a3, 0
    8a15:	0008e0        	excw
    8a18:	03ad      	mov.n	a10, a3
    8a1a:	74b020        	extui	a11, a2, 0, 8
    8a1d:	ae2682        	l32i	a8, a6, 0x2b8
    8a20:	5c0c      	movi.n	a12, 5
    8a22:	0008e0        	excw
    8a25:	0a2d      	mov.n	a2, a10
    8a27:	f01d      	excw
    8a29:	02ad      	mov.n	a10, a2
    8a2b:	03bd      	mov.n	a11, a3
    8a2d:	851581        	l32r	a8, 0xfffe9e84
    8a30:	05dd      	mov.n	a13, a5
    8a32:	c888      	l32i.n	a8, a8, 48
    8a34:	07fd      	mov.n	a15, a7
    8a36:	0008e0        	excw
    8a39:	0a2d      	mov.n	a2, a10
    8a3b:	f01d      	excw
    8a3d:	18c1b2        	addi	a11, a1, 24
    8a40:	eaa3a2        	movi	a10, 0x3ea
    8a43:	2c0c      	movi.n	a12, 2
    8a45:	0003d2        	l8ui	a13, a3, 0
    8a48:	fc2f82        	l32i	a8, a15, 0x3f0
    8a4b:	07ed      	mov.n	a14, a7
    8a4d:	0008e0        	excw
    8a50:	853741        	l32r	a4, 0xfffe9f2c
    8a53:	424a      	add.n	a4, a2, a4
    8a55:	000492        	l8ui	a9, a4, 0
    8a58:	29fc      	bnez.n	a9, 0x8a8e
    8a5a:	05ad      	mov.n	a10, a5
    8a5c:	a62682        	l32i	a8, a6, 0x298
    8a5f:	0b1c      	movi.n	a11, 16
    8a61:	0008e0        	excw
    8a64:	05bd      	mov.n	a11, a5
    8a66:	2e23a2        	l32i	a10, a3, 184
    8a69:	0c1c      	movi.n	a12, 16
    8a6b:	5ccaa2        	addi	a10, a10, 92
    8a6e:	030565        	excw
    8a71:	02bd      	mov.n	a11, a2
    8a73:	d33b      	addi.n	a13, a3, 3
    8a75:	2a0c      	movi.n	a10, 2
    8a77:	8514c1        	l32r	a12, 0xfffe9ec8
    8a7a:	5e2c      	movi.n	a14, 37
    8a7c:	000492        	l8ui	a9, a4, 0
    8a7f:	1e2682        	l32i	a8, a6, 120
    8a82:	10c992        	addi	a9, a9, 16
    8a85:	004492        	s8i	a9, a4, 0
    8a88:	0008e0        	excw
    8a8b:	002a06        	j	0x8b37
    8a8e:	32b966        	bnei	a9, 16, 0x8ac4
    8a91:	05ad      	mov.n	a10, a5
    8a93:	a62682        	l32i	a8, a6, 0x298
    8a96:	8b0c      	movi.n	a11, 8
    8a98:	0008e0        	excw
    8a9b:	8b0c      	movi.n	a11, 8
    8a9d:	758b      	addi.n	a7, a5, 8
    8a9f:	a62682        	l32i	a8, a6, 0x298
    8aa2:	07ad      	mov.n	a10, a7
    8aa4:	0008e0        	excw
    8aa7:	05bd      	mov.n	a11, a5
    8aa9:	2e23a2        	l32i	a10, a3, 184
    8aac:	8c0c      	movi.n	a12, 8
    8aae:	54caa2        	addi	a10, a10, 84
    8ab1:	030125        	excw
    8ab4:	07bd      	mov.n	a11, a7
    8ab6:	2e23a2        	l32i	a10, a3, 184
    8ab9:	8c0c      	movi.n	a12, 8
    8abb:	7ccaa2        	addi	a10, a10, 124
    8abe:	030065        	excw
    8ac1:	ffeb06        	j	0x8a71
    8ac4:	a9c966        	bnei	a9, 32, 0x8a71
    8ac7:	05ad      	mov.n	a10, a5
    8ac9:	a62682        	l32i	a8, a6, 0x298
    8acc:	0b1c      	movi.n	a11, 16
    8ace:	0008e0        	excw
    8ad1:	05bd      	mov.n	a11, a5
    8ad3:	2e23a2        	l32i	a10, a3, 184
    8ad6:	0c1c      	movi.n	a12, 16
    8ad8:	6ccaa2        	addi	a10, a10, 108
    8adb:	02fea5        	excw
    8ade:	0c0c      	movi.n	a12, 0
    8ae0:	0044c2        	s8i	a12, a4, 0
    8ae3:	1013b2        	l16ui	a11, a3, 32
    8ae6:	1d0c      	movi.n	a13, 1
    8ae8:	4f6b07        	bbci	a11, 0, 0x8b3b
    8aeb:	03ad      	mov.n	a10, a3
    8aed:	07dd      	mov.n	a13, a7
    8aef:	74b020        	extui	a11, a2, 0, 8
    8af2:	ac2682        	l32i	a8, a6, 0x2b0
    8af5:	21c8      	l32i.n	a12, a1, 8
    8af7:	0008e0        	excw
    8afa:	000e46        	j	0x8b37
    8afd:	07ed      	mov.n	a14, a7
    8aff:	eaa3a2        	movi	a10, 0x3ea
    8b02:	2c0c      	movi.n	a12, 2
    8b04:	18c1b2        	addi	a11, a1, 24
    8b07:	0d0c      	movi.n	a13, 0
    8b09:	849c81        	l32r	a8, 0xfffe9d7c
    8b0c:	8537f1        	l32r	a15, 0xfffe9fe8
    8b0f:	fc2882        	l32i	a8, a8, 0x3f0
    8b12:	f2fa      	add.n	a15, a2, a15
    8b14:	004fd2        	s8i	a13, a15, 0
    8b17:	101392        	l16ui	a9, a3, 32
    8b1a:	0003d2        	l8ui	a13, a3, 0
    8b1d:	209940        	or	a9, a9, a4
    8b20:	105392        	s16i	a9, a3, 32
    8b23:	0008e0        	excw
    8b26:	02bd      	mov.n	a11, a2
    8b28:	d33b      	addi.n	a13, a3, 3
    8b2a:	2a0c      	movi.n	a10, 2
    8b2c:	8514c1        	l32r	a12, 0xfffe9f7c
    8b2f:	1e2682        	l32i	a8, a6, 120
    8b32:	5e2c      	movi.n	a14, 37
    8b34:	0008e0        	excw
    8b37:	020c      	movi.n	a2, 0
    8b39:	f01d      	excw
    8b3b:	a92682        	l32i	a8, a6, 0x2a4
    8b3e:	4a0c      	movi.n	a10, 4
    8b40:	0441d2        	s8i	a13, a1, 4
    8b43:	0541d2        	s8i	a13, a1, 5
    8b46:	0b3c      	movi.n	a11, 48
    8b48:	0641b2        	s8i	a11, a1, 6
    8b4b:	101392        	l16ui	a9, a3, 32
    8b4e:	0b0c      	movi.n	a11, 0
    8b50:	2099a0        	or	a9, a9, a10
    8b53:	105392        	s16i	a9, a3, 32
    8b56:	03ad      	mov.n	a10, a3
    8b58:	0008e0        	excw
    8b5b:	07ed      	mov.n	a14, a7
    8b5d:	22a4a2        	movi	a10, 0x422
    8b60:	b14b      	addi.n	a11, a1, 4
    8b62:	851981        	l32r	a8, 0xfffe9fc8
    8b65:	2c0c      	movi.n	a12, 2
    8b67:	422882        	l32i	a8, a8, 0x108
    8b6a:	0003d2        	l8ui	a13, a3, 0
    8b6d:	0008e0        	excw
    8b70:	02bd      	mov.n	a11, a2
    8b72:	d33b      	addi.n	a13, a3, 3
    8b74:	2a0c      	movi.n	a10, 2
    8b76:	8514c1        	l32r	a12, 0xfffe9fc8
    8b79:	1e2682        	l32i	a8, a6, 120
    8b7c:	4e2c      	movi.n	a14, 36
    8b7e:	0008e0        	excw
    8b81:	ffec86        	j	0x8b37
    8b84:	008136        	excw
    8b87:	849661        	l32r	a6, 0xfffe9de0
    8b8a:	ca2682        	l32i	a8, a6, 0x328
    8b8d:	02ad      	mov.n	a10, a2
    8b8f:	0008e0        	excw
    8b92:	41a9      	s32i.n	a10, a1, 16
    8b94:	69a092        	movi	a9, 105
    8b97:	0e9297        	bne	a2, a9, 0x8ba9
    8b9a:	02ad      	mov.n	a10, a2
    8b9c:	5c2682        	l32i	a8, a6, 0x170
    8b9f:	03bd      	mov.n	a11, a3
    8ba1:	0008e0        	excw
    8ba4:	0add      	mov.n	a13, a10
    8ba6:	001e46        	j	0x8c23
    8ba9:	b2a492        	movi	a9, 0x4b2
    8bac:	0e9297        	bne	a2, a9, 0x8bbe
    8baf:	02ad      	mov.n	a10, a2
    8bb1:	5d2682        	l32i	a8, a6, 0x174
    8bb4:	03bd      	mov.n	a11, a3
    8bb6:	0008e0        	excw
    8bb9:	0add      	mov.n	a13, a10
    8bbb:	001906        	j	0x8c23
    8bbe:	04cd      	mov.n	a12, a4
    8bc0:	02ad      	mov.n	a10, a2
    8bc2:	5f2682        	l32i	a8, a6, 0x17c
    8bc5:	03bd      	mov.n	a11, a3
    8bc7:	0008e0        	excw
    8bca:	0a4d      	mov.n	a4, a10
    8bcc:	040a66        	bnei	a10, -1, 0x8bd4
    8bcf:	2d0c      	movi.n	a13, 2
    8bd1:	001386        	j	0x8c23
    8bd4:	8539c1        	l32r	a12, 0xfffea0b8
    8bd7:	90baa0        	addx2	a11, a10, a10
    8bda:	11bba0        	slli	a11, a11, 6
    8bdd:	abca      	add.n	a10, a11, a12
    8bdf:	800aa2        	l8ui	a10, a10, 128
    8be2:	c93c      	movi.n	a9, 60
    8be4:	02b9a7        	bgeu	a9, a10, 0x8bea
    8be7:	002586        	j	0x8c81
    8bea:	6aa0d2        	movi	a13, 106
    8bed:	7dcc72        	addi	a7, a12, 125
    8bf0:	7b7a      	add.n	a7, a11, a7
    8bf2:	1892d7        	bne	a2, a13, 0x8c0e
    8bf5:	07bd      	mov.n	a11, a7
    8bf7:	74a040        	extui	a10, a4, 0, 8
    8bfa:	02cd      	mov.n	a12, a2
    8bfc:	03dd      	mov.n	a13, a3
    8bfe:	10c1e2        	addi	a14, a1, 16
    8c01:	522682        	l32i	a8, a6, 0x148
    8c04:	3f0c      	movi.n	a15, 3
    8c06:	0008e0        	excw
    8c09:	0add      	mov.n	a13, a10
    8c0b:	000506        	j	0x8c23
    8c0e:	04bd      	mov.n	a11, a4
    8c10:	07cd      	mov.n	a12, a7
    8c12:	02dd      	mov.n	a13, a2
    8c14:	03ed      	mov.n	a14, a3
    8c16:	0159      	s32i.n	a5, a1, 0
    8c18:	752682        	l32i	a8, a6, 0x1d4
    8c1b:	10c1f2        	addi	a15, a1, 16
    8c1e:	0008e0        	excw
    8c21:	0add      	mov.n	a13, a10
    8c23:	849f91        	l32r	a9, 0xfffe9ea0
    8c26:	292992        	l32i	a9, a9, 164
    8c29:	41d9      	s32i.n	a13, a1, 16
    8c2b:	d9cc      	bnez.n	a9, 0x8c3c
    8c2d:	03cd      	mov.n	a12, a3
    8c2f:	74b0d0        	extui	a11, a13, 0, 8
    8c32:	632682        	l32i	a8, a6, 0x18c
    8c35:	02ad      	mov.n	a10, a2
    8c37:	0008e0        	excw
    8c3a:	41d8      	l32i.n	a13, a1, 16
    8c3c:	8fa092        	movi	a9, 143
    8c3f:	3a9297        	bne	a2, a9, 0x8c7d
    8c42:	0e0c      	movi.n	a14, 0
    8c44:	853ac1        	l32r	a12, 0xfffea12c
    8c47:	1a4c      	movi.n	a10, 65
    8c49:	2c9da7        	bne	a13, a10, 0x8c79
    8c4c:	8460a1        	l32r	a10, 0xfffe9dcc
    8c4f:	0020c0        	memw
    8c52:	0cb8      	l32i.n	a11, a12, 0
    8c54:	a12aa2        	l32i	a10, a10, 0x284
    8c57:	2bbc      	beqz.n	a11, 0x8c8d
    8c59:	20a3d2        	movi	a13, 0x320
    8c5c:	846881        	l32r	a8, 0xfffe9dfc
    8c5f:	c0fab0        	sub	a15, a10, a11
    8c62:	10ff80        	and	a15, a15, a8
    8c65:	12bdf7        	bgeu	a13, a15, 0x8c7b
    8c68:	02bd      	mov.n	a11, a2
    8c6a:	0ce9      	s32i.n	a14, a12, 0
    8c6c:	1a2c      	movi.n	a10, 33
    8c6e:	e02682        	l32i	a8, a6, 0x380
    8c71:	41a9      	s32i.n	a10, a1, 16
    8c73:	0008e0        	excw
    8c76:	000046        	j	0x8c7b
    8c79:	0ce9      	s32i.n	a14, a12, 0
    8c7b:	41d8      	l32i.n	a13, a1, 16
    8c7d:	0d2d      	mov.n	a2, a13
    8c7f:	f01d      	excw
    8c81:	0a0c      	movi.n	a10, 0
    8c83:	1b0c      	movi.n	a11, 1
    8c85:	aeb8e5        	excw
    8c88:	3d0c      	movi.n	a13, 3
    8c8a:	ffe546        	j	0x8c23
    8c8d:	0ca9      	s32i.n	a10, a12, 0
    8c8f:	fffa06        	j	0x8c7b
    8c92:	360000        	excw
    8c95:	810041        	l32r	a4, 0xfffe9098
    8c98:	828496        	bltz	a4, 0x84c4
    8c9b:	c528      	l32i.n	a2, a5, 48
    8c9d:	5a0c      	movi.n	a10, 5
    8c9f:	0008e0        	excw
    8ca2:	5b1c      	movi.n	a11, 21
    8ca4:	840f81        	l32r	a8, 0xfffe9ce0
    8ca7:	6d1c      	movi.n	a13, 22
    8ca9:	0acd      	mov.n	a12, a10
    8cab:	0a0a92        	l8ui	a9, a10, 10
    8cae:	41a830        	srli	a10, a3, 8
    8cb1:	99ca      	add.n	a9, a9, a12
    8cb3:	0d4932        	s8i	a3, a9, 13
    8cb6:	0c4922        	s8i	a2, a9, 12
    8cb9:	0e49a2        	s8i	a10, a9, 14
    8cbc:	d5e8      	l32i.n	a14, a5, 52
    8cbe:	0f1c      	movi.n	a15, 16
    8cc0:	10eef0        	and	a14, a14, a15
    8cc3:	934de0        	movnez	a4, a13, a14
    8cc6:	0f4942        	s8i	a4, a9, 15
    8cc9:	8888      	l32i.n	a8, a8, 32
    8ccb:	3a0c      	movi.n	a10, 3
    8ccd:	0008e0        	excw
    8cd0:	8488a1        	l32r	a10, 0xfffe9ef0
    8cd3:	1e0ab2        	l8ui	a11, a10, 30
    8cd6:	1f0ad2        	l8ui	a13, a10, 31
    8cd9:	eb9c      	beqz.n	a11, 0x8cfb
    8cdb:	0005c2        	l8ui	a12, a5, 0
    8cde:	199cd7        	bne	a12, a13, 0x8cfb
    8ce1:	1515e2        	l16ui	a14, a5, 42
    8ce4:	847781        	l32r	a8, 0xfffe9ec0
    8ce7:	109e37        	bne	a14, a3, 0x8cfb
    8cea:	ffa0f2        	movi	a15, 255
    8ced:	090c      	movi.n	a9, 0
    8cef:	1e4a92        	s8i	a9, a10, 30
    8cf2:	384892        	s8i	a9, a8, 56
    8cf5:	1f4af2        	s8i	a15, a10, 31
    8cf8:	3948f2        	s8i	a15, a8, 57
    8cfb:	010ab2        	l8ui	a11, a10, 1
    8cfe:	bb8c      	beqz.n	a11, 0x8d0d
    8d00:	841981        	l32r	a8, 0xfffe9d64
    8d03:	1a0c      	movi.n	a10, 1
    8d05:	122882        	l32i	a8, a8, 72
    8d08:	1b0c      	movi.n	a11, 1
    8d0a:	0008e0        	excw
    8d0d:	020c      	movi.n	a2, 0
    8d0f:	f01d      	excw
    8d11:	000000        	ill
    8d14:	004136        	excw
    8d17:	79a082        	movi	a8, 121
    8d1a:	239487        	bne	a4, a8, 0x8d41
    8d1d:	847e91        	l32r	a9, 0xfffe9f18
    8d20:	900992        	l8ui	a9, a9, 144
    8d23:	ffa0b2        	movi	a11, 255
    8d26:	2f19b7        	beq	a9, a11, 0x8d59
    8d29:	02ad      	mov.n	a10, a2
    8d2b:	03bd      	mov.n	a11, a3
    8d2d:	04cd      	mov.n	a12, a4
    8d2f:	05dd      	mov.n	a13, a5
    8d31:	851581        	l32r	a8, 0xfffea188
    8d34:	06ed      	mov.n	a14, a6
    8d36:	d888      	l32i.n	a8, a8, 52
    8d38:	07fd      	mov.n	a15, a7
    8d3a:	0008e0        	excw
    8d3d:	0a2d      	mov.n	a2, a10
    8d3f:	f01d      	excw
    8d41:	02ad      	mov.n	a10, a2
    8d43:	03bd      	mov.n	a11, a3
    8d45:	04cd      	mov.n	a12, a4
    8d47:	05dd      	mov.n	a13, a5
    8d49:	851581        	l32r	a8, 0xfffea1a0
    8d4c:	06ed      	mov.n	a14, a6
    8d4e:	d888      	l32i.n	a8, a8, 52
    8d50:	07fd      	mov.n	a15, a7
    8d52:	0008e0        	excw
    8d55:	0a2d      	mov.n	a2, a10
    8d57:	f01d      	excw
    8d59:	02bd      	mov.n	a11, a2
    8d5b:	849651        	l32r	a5, 0xfffe9fb4
    8d5e:	1a0c      	movi.n	a10, 1
    8d60:	142582        	l32i	a8, a5, 80
    8d63:	0203c2        	l8ui	a12, a3, 2
    8d66:	0008e0        	excw
    8d69:	04ad      	mov.n	a10, a4
    8d6b:	0b0c      	movi.n	a11, 0
    8d6d:	6c0c      	movi.n	a12, 6
    8d6f:	e22582        	l32i	a8, a5, 0x388
    8d72:	8ca022        	movi	a2, 140
    8d75:	232a      	add.n	a2, a3, a2
    8d77:	02dd      	mov.n	a13, a2
    8d79:	0008e0        	excw
    8d7c:	02bd      	mov.n	a11, a2
    8d7e:	2a0c      	movi.n	a10, 2
    8d80:	8531c1        	l32r	a12, 0xfffea244
    8d83:	d52582        	l32i	a8, a5, 0x354
    8d86:	1cc8      	l32i.n	a12, a12, 4
    8d88:	0008e0        	excw
    8d8b:	8529a1        	l32r	a10, 0xfffea230
    8d8e:	190c      	movi.n	a9, 1
    8d90:	849c81        	l32r	a8, 0xfffea000
    8d93:	7b6a92        	s32i	a9, a10, 0x1ec
    8d96:	892882        	l32i	a8, a8, 0x224
    8d99:	03ad      	mov.n	a10, a3
    8d9b:	0008e0        	excw
    8d9e:	020c      	movi.n	a2, 0
    8da0:	0629      	s32i.n	a2, a6, 0
    8da2:	f01d      	excw
    8da4:	004136        	excw
    8da7:	050c      	movi.n	a5, 0
    8da9:	8488a1        	l32r	a10, 0xfffe9fcc
    8dac:	234300        	excw
    8daf:	180a82        	l8ui	a8, a10, 24
    8db2:	fda092        	movi	a9, 253
    8db5:	108890        	and	a8, a8, a9
    8db8:	184a82        	s8i	a8, a10, 24
    8dbb:	2a0426        	beqi	a4, -1, 0x8de9
    8dbe:	1e0ab2        	l8ui	a11, a10, 30
    8dc1:	1f0ac2        	l8ui	a12, a10, 31
    8dc4:	1bac      	beqz.n	a11, 0x8de9
    8dc6:	8524d1        	l32r	a13, 0xfffea258
    8dc9:	90e330        	addx2	a14, a3, a3
    8dcc:	11eea0        	slli	a14, a14, 6
    8dcf:	ddea      	add.n	a13, a13, a14
    8dd1:	800dd2        	l8ui	a13, a13, 128
    8dd4:	847781        	l32r	a8, 0xfffe9fb0
    8dd7:	0e9cd7        	bne	a12, a13, 0x8de9
    8dda:	1e4a52        	s8i	a5, a10, 30
    8ddd:	384852        	s8i	a5, a8, 56
    8de0:	ffa0f2        	movi	a15, 255
    8de3:	1f4af2        	s8i	a15, a10, 31
    8de6:	3948f2        	s8i	a15, a8, 57
    8de9:	853ba1        	l32r	a10, 0xfffea2d8
    8dec:	0b0c      	movi.n	a11, 0
    8dee:	b4a0c2        	movi	a12, 180
    8df1:	02df25        	excw
    8df4:	2e2292        	l32i	a9, a2, 184
    8df7:	840731        	l32r	a3, 0xfffe9e14
    8dfa:	998c      	beqz.n	a9, 0x8e07
    8dfc:	b8a0a2        	movi	a10, 184
    8dff:	202382        	l32i	a8, a3, 128
    8e02:	a2aa      	add.n	a10, a2, a10
    8e04:	0008e0        	excw
    8e07:	2f22b2        	l32i	a11, a2, 188
    8e0a:	9b8c      	beqz.n	a11, 0x8e17
    8e0c:	bca0a2        	movi	a10, 188
    8e0f:	202382        	l32i	a8, a3, 128
    8e12:	a2aa      	add.n	a10, a2, a10
    8e14:	0008e0        	excw
    8e17:	010292        	l8ui	a9, a2, 1
    8e1a:	849631        	l32r	a3, 0xfffea074
    8e1d:	7239b6        	bltui	a9, 3, 0x8e93
    8e20:	d2b8      	l32i.n	a11, a2, 52
    8e22:	0a02c2        	l8ui	a12, a2, 10
    8e25:	0f6b07        	bbci	a11, 0, 0x8e38
    8e28:	0a0c      	movi.n	a10, 0
    8e2a:	1512b2        	l16ui	a11, a2, 42
    8e2d:	df2382        	l32i	a8, a3, 0x37c
    8e30:	02dd      	mov.n	a13, a2
    8e32:	0008e0        	excw
    8e35:	000246        	j	0x8e42
    8e38:	0cad      	mov.n	a10, a12
    8e3a:	d12382        	l32i	a8, a3, 0x344
    8e3d:	02bd      	mov.n	a11, a2
    8e3f:	0008e0        	excw
    8e42:	2a2382        	l32i	a8, a3, 168
    8e45:	0008e0        	excw
    8e48:	1512b2        	l16ui	a11, a2, 42
    8e4b:	081ab7        	beq	a10, a11, 0x8e57
    8e4e:	382382        	l32i	a8, a3, 224
    8e51:	74a0b0        	extui	a10, a11, 0, 8
    8e54:	0008e0        	excw
    8e57:	842981        	l32r	a8, 0xfffe9efc
    8e5a:	fa2882        	l32i	a8, a8, 0x3e8
    8e5d:	0002a2        	l8ui	a10, a2, 0
    8e60:	0008e0        	excw
    8e63:	7388      	l32i.n	a8, a3, 28
    8e65:	02ad      	mov.n	a10, a2
    8e67:	0008e0        	excw
    8e6a:	04bd      	mov.n	a11, a4
    8e6c:	5a0c      	movi.n	a10, 5
    8e6e:	142382        	l32i	a8, a3, 80
    8e71:	7c1c      	movi.n	a12, 23
    8e73:	0008e0        	excw
    8e76:	851541        	l32r	a4, 0xfffea2cc
    8e79:	0014a2        	l16ui	a10, a4, 0
    8e7c:	9a8c      	beqz.n	a10, 0x8e89
    8e7e:	841481        	l32r	a8, 0xfffe9ed0
    8e81:	8888      	l32i.n	a8, a8, 32
    8e83:	0008e0        	excw
    8e86:	005452        	s16i	a5, a4, 0
    8e89:	6c2382        	l32i	a8, a3, 0x1b0
    8e8c:	02ad      	mov.n	a10, a2
    8e8e:	0008e0        	excw
    8e91:	f01d      	excw
    8e93:	ab1966        	bnei	a9, 1, 0x8e42
    8e96:	d298      	l32i.n	a9, a2, 52
    8e98:	a6e907        	bbsi	a9, 0, 0x8e42
    8e9b:	0a02a2        	l8ui	a10, a2, 10
    8e9e:	d12382        	l32i	a8, a3, 0x344
    8ea1:	02bd      	mov.n	a11, a2
    8ea3:	0008e0        	excw
    8ea6:	ffe606        	j	0x8e42
    8ea9:	000000        	ill
    8eac:	004136        	excw
    8eaf:	3e0c      	movi.n	a14, 3
    8eb1:	853cc1        	l32r	a12, 0xfffea3a4
    8eb4:	8524d1        	l32r	a13, 0xfffea344
    8eb7:	8515a1        	l32r	a10, 0xfffea30c
    8eba:	090c      	movi.n	a9, 0
    8ebc:	851981        	l32r	a8, 0xfffea320
    8ebf:	74b030        	extui	a11, a3, 0, 8
    8ec2:	90bbb0        	addx2	a11, a11, a11
    8ec5:	472882        	l32i	a8, a8, 0x11c
    8ec8:	005a92        	s16i	a9, a10, 0
    8ecb:	11bba0        	slli	a11, a11, 6
    8ece:	dbda      	add.n	a13, a11, a13
    8ed0:	30a4a2        	movi	a10, 0x430
    8ed3:	bbca      	add.n	a11, a11, a12
    8ed5:	800dd2        	l8ui	a13, a13, 128
    8ed8:	2c0c      	movi.n	a12, 2
    8eda:	0008e0        	excw
    8edd:	f01d      	excw
    8edf:	413600        	srli	a3, a0, 6
    8ee2:	03ad00        	excw
    8ee5:	849c61        	l32r	a6, 0xfffea158
    8ee8:	04bd      	mov.n	a11, a4
    8eea:	b42682        	l32i	a8, a6, 0x2d0
    8eed:	0c0c      	movi.n	a12, 0
    8eef:	0008e0        	excw
    8ef2:	03ad      	mov.n	a10, a3
    8ef4:	02bd      	mov.n	a11, a2
    8ef6:	2c0c      	movi.n	a12, 2
    8ef8:	1513d2        	l16ui	a13, a3, 42
    8efb:	852af1        	l32r	a15, 0xfffea3a4
    8efe:	d3e8      	l32i.n	a14, a3, 52
    8f00:	480c      	movi.n	a8, 4
    8f02:	070c      	movi.n	a7, 0
    8f04:	164372        	s8i	a7, a3, 22
    8f07:	014382        	s8i	a8, a3, 1
    8f0a:	10eef0        	and	a14, a14, a15
    8f0d:	d3e9      	s32i.n	a14, a3, 52
    8f0f:	0155d2        	s16i	a13, a5, 2
    8f12:	2d1392        	l16ui	a9, a3, 90
    8f15:	0445c2        	s8i	a12, a5, 4
    8f18:	004572        	s8i	a7, a5, 0
    8f1b:	a92682        	l32i	a8, a6, 0x2a4
    8f1e:	035592        	s16i	a9, a5, 6
    8f21:	0008e0        	excw
    8f24:	849681        	l32r	a8, 0xfffea17c
    8f27:	cc2882        	l32i	a8, a8, 0x330
    8f2a:	05ad      	mov.n	a10, a5
    8f2c:	0008e0        	excw
    8f2f:	1223a2        	l32i	a10, a3, 72
    8f32:	b00392        	l8ui	a9, a3, 176
    8f35:	1a7a87        	bbci	a10, 24, 0x8f53
    8f38:	3f6907        	bbci	a9, 0, 0x8f7b
    8f3b:	04bd      	mov.n	a11, a4
    8f3d:	30a4a2        	movi	a10, 0x430
    8f40:	2c0c      	movi.n	a12, 2
    8f42:	851981        	l32r	a8, 0xfffea3a8
    8f45:	0003d2        	l8ui	a13, a3, 0
    8f48:	472882        	l32i	a8, a8, 0x11c
    8f4b:	3e0c      	movi.n	a14, 3
    8f4d:	0008e0        	excw
    8f50:	0009c6        	j	0x8f7b
    8f53:	246907        	bbci	a9, 0, 0x8f7b
    8f56:	851551        	l32r	a5, 0xfffea3ac
    8f59:	0015a2        	l16ui	a10, a5, 0
    8f5c:	841441        	l32r	a4, 0xfffe9fac
    8f5f:	6a8c      	beqz.n	a10, 0x8f69
    8f61:	8488      	l32i.n	a8, a4, 32
    8f63:	0008e0        	excw
    8f66:	005572        	s16i	a7, a5, 0
    8f69:	02cd      	mov.n	a12, a2
    8f6b:	2a0c      	movi.n	a10, 2
    8f6d:	2ca1b2        	movi	a11, 0x12c
    8f70:	7488      	l32i.n	a8, a4, 28
    8f72:	853dd1        	l32r	a13, 0xfffea468
    8f75:	0008e0        	excw
    8f78:	0055a2        	s16i	a10, a5, 0
    8f7b:	aa2682        	l32i	a8, a6, 0x2a8
    8f7e:	03ad      	mov.n	a10, a3
    8f80:	0008e0        	excw
    8f83:	f01d      	excw
    8f85:	000000        	ill
    8f88:	004136        	excw
    8f8b:	851571        	l32r	a7, 0xfffea3e0
    8f8e:	116417        	bbci	a4, 1, 0x8fa3
    8f91:	0017a2        	l16ui	a10, a7, 0
    8f94:	ba8c      	beqz.n	a10, 0x8fa3
    8f96:	841481        	l32r	a8, 0xfffe9fe8
    8f99:	8888      	l32i.n	a8, a8, 32
    8f9b:	0008e0        	excw
    8f9e:	090c      	movi.n	a9, 0
    8fa0:	005792        	s16i	a9, a7, 0
    8fa3:	02ad      	mov.n	a10, a2
    8fa5:	03bd      	mov.n	a11, a3
    8fa7:	04cd      	mov.n	a12, a4
    8fa9:	05dd      	mov.n	a13, a5
    8fab:	e788      	l32i.n	a8, a7, 56
    8fad:	06ed      	mov.n	a14, a6
    8faf:	0008e0        	excw
    8fb2:	0a2d      	mov.n	a2, a10
    8fb4:	f01d      	excw
    8fb6:	360000        	excw
    8fb9:	810041        	l32r	a4, 0xfffe93bc
    8fbc:	828496        	bltz	a4, 0x87e8
    8fbf:	c528      	l32i.n	a2, a5, 48
    8fc1:	4a1c      	movi.n	a10, 20
    8fc3:	0008e0        	excw
    8fc6:	040292        	l8ui	a9, a2, 4
    8fc9:	0a3d      	mov.n	a3, a10
    8fcb:	39dc      	bnez.n	a9, 0x8fe2
    8fcd:	851541        	l32r	a4, 0xfffea424
    8fd0:	0014a2        	l16ui	a10, a4, 0
    8fd3:	ba8c      	beqz.n	a10, 0x8fe2
    8fd5:	841481        	l32r	a8, 0xfffea028
    8fd8:	8888      	l32i.n	a8, a8, 32
    8fda:	0008e0        	excw
    8fdd:	090c      	movi.n	a9, 0
    8fdf:	005492        	s16i	a9, a4, 0
    8fe2:	02bd      	mov.n	a11, a2
    8fe4:	4a1c      	movi.n	a10, 20
    8fe6:	0a03c2        	l8ui	a12, a3, 10
    8fe9:	851981        	l32r	a8, 0xfffea450
    8fec:	cc3a      	add.n	a12, a12, a3
    8fee:	c52882        	l32i	a8, a8, 0x314
    8ff1:	cccb      	addi.n	a12, a12, 12
    8ff3:	0008e0        	excw
    8ff6:	03cd      	mov.n	a12, a3
    8ff8:	840f81        	l32r	a8, 0xfffea034
    8ffb:	3a0c      	movi.n	a10, 3
    8ffd:	8888      	l32i.n	a8, a8, 32
    8fff:	5b1c      	movi.n	a11, 21
    9001:	0008e0        	excw
    9004:	020c      	movi.n	a2, 0
    9006:	f01d      	excw
    9008:	008136        	excw
    900b:	03bd      	mov.n	a11, a3
    900d:	02ad      	mov.n	a10, a2
    900f:	07fd      	mov.n	a15, a7
    9011:	78a082        	movi	a8, 120
    9014:	619487        	bne	a4, a8, 0x9079
    9017:	849621        	l32r	a2, 0xfffea270
    901a:	21a9      	s32i.n	a10, a1, 8
    901c:	11f9      	s32i.n	a15, a1, 4
    901e:	0139      	s32i.n	a3, a1, 0
    9020:	848871        	l32r	a7, 0xfffea240
    9023:	030c      	movi.n	a3, 0
    9025:	08d7e2        	addmi	a14, a7, 0x800
    9028:	7b6e32        	s32i	a3, a14, 0x1ec
    902b:	130b56        	bnez	a11, 0x915f
    902e:	8476c1        	l32r	a12, 0xfffea208
    9031:	1807f2        	l8ui	a15, a7, 24
    9034:	680c      	movi.n	a8, 6
    9036:	020f87        	bnone	a15, a8, 0x903c
    9039:	004c46        	j	0x916e
    903c:	710c92        	l8ui	a9, a12, 113
    903f:	990b      	addi.n	a9, a9, -1
    9041:	129916        	beqz	a9, 0x916e
    9044:	3c2282        	l32i	a8, a2, 240
    9047:	0008e0        	excw
    904a:	842981        	l32r	a8, 0xfffea0f0
    904d:	1e2882        	l32i	a8, a8, 120
    9050:	51a9      	s32i.n	a10, a1, 20
    9052:	0008e0        	excw
    9055:	5198      	l32i.n	a9, a1, 20
    9057:	0b0c      	movi.n	a11, 0
    9059:	3039a7        	bltu	a9, a10, 0x908d
    905c:	04bd      	mov.n	a11, a4
    905e:	e02282        	l32i	a8, a2, 0x380
    9061:	0a0c      	movi.n	a10, 0
    9063:	0008e0        	excw
    9066:	b51b      	addi.n	a11, a5, 1
    9068:	9a0c      	movi.n	a10, 9
    906a:	8531c1        	l32r	a12, 0xfffea530
    906d:	d52282        	l32i	a8, a2, 0x354
    9070:	2cc8      	l32i.n	a12, a12, 8
    9072:	0008e0        	excw
    9075:	020c      	movi.n	a2, 0
    9077:	f01d      	excw
    9079:	04cd      	mov.n	a12, a4
    907b:	851581        	l32r	a8, 0xfffea4d0
    907e:	05dd      	mov.n	a13, a5
    9080:	f888      	l32i.n	a8, a8, 60
    9082:	06ed      	mov.n	a14, a6
    9084:	0008e0        	excw
    9087:	0a2d      	mov.n	a2, a10
    9089:	f01d      	excw
    908b:	d10000        	mul16s	a0, a0, a0
    908e:	3e          	.byte 0x3e
    908f:	790c85        	call0	0x82158
    9092:	81cdc2        	addi	a12, a13, -127
    9095:	62a976        	excw
    9098:	909bb0        	addx2	a9, a11, a11
    909b:	1199a0        	slli	a9, a9, 6
    909e:	e9ca      	add.n	a14, a9, a12
    90a0:	800ee2        	l8ui	a14, a14, 128
    90a3:	99da      	add.n	a9, a9, a13
    90a5:	04de56        	bnez	a14, 0x90f6
    90a8:	0639      	s32i.n	a3, a6, 0
    90aa:	41b9      	s32i.n	a11, a1, 16
    90ac:	3199      	s32i.n	a9, a1, 12
    90ae:	db1b      	addi.n	a13, a11, 1
    90b0:	099d16        	beqz	a13, 0x914d
    90b3:	849c81        	l32r	a8, 0xfffea324
    90b6:	802882        	l32i	a8, a8, 0x200
    90b9:	0008e0        	excw
    90bc:	08da16        	beqz	a10, 0x914d
    90bf:	034732        	s8i	a3, a7, 3
    90c2:	853fa1        	l32r	a10, 0xfffea5c0
    90c5:	0b0c      	movi.n	a11, 0
    90c7:	f8a0c2        	movi	a12, 248
    90ca:	02b1a5        	excw
    90cd:	e02282        	l32i	a8, a2, 0x380
    90d0:	4a0c      	movi.n	a10, 4
    90d2:	8529b1        	l32r	a11, 0xfffea578
    90d5:	180792        	l8ui	a9, a7, 24
    90d8:	796b32        	s32i	a3, a11, 0x1e4
    90db:	2099a0        	or	a9, a9, a10
    90de:	04bd      	mov.n	a11, a4
    90e0:	184792        	s8i	a9, a7, 24
    90e3:	06a8      	l32i.n	a10, a6, 0
    90e5:	0008e0        	excw
    90e8:	051542        	l16ui	a4, a5, 10
    90eb:	04cf40        	extui	a12, a4, 15, 1
    90ee:	0f6c56        	bnez	a12, 0x91e8
    90f1:	040c      	movi.n	a4, 0
    90f3:	000246        	j	0x9100
    90f6:	bb1b      	addi.n	a11, a11, 1
    90f8:	23bb00        	excw
    90fb:	fb7c      	movi.n	a11, -1
    90fd:	ffea46        	j	0x90aa
    9100:	055532        	s16i	a3, a5, 10
    9103:	8ca0b2        	movi	a11, 140
    9106:	31a8      	l32i.n	a10, a1, 12
    9108:	6c0c      	movi.n	a12, 6
    910a:	aaba      	add.n	a10, a10, a11
    910c:	b51b      	addi.n	a11, a5, 1
    910e:	029b65        	excw
    9111:	0705c2        	l8ui	a12, a5, 7
    9114:	846181        	l32r	a8, 0xfffea298
    9117:	04bd      	mov.n	a11, a4
    9119:	3138      	l32i.n	a3, a1, 12
    911b:	8ca042        	movi	a4, 140
    911e:	434a      	add.n	a4, a3, a4
    9120:	b42882        	l32i	a8, a8, 0x2d0
    9123:	04ad      	mov.n	a10, a4
    9125:	0008e0        	excw
    9128:	0c4a16        	beqz	a10, 0x91f0
    912b:	04bd      	mov.n	a11, a4
    912d:	9a0c      	movi.n	a10, 9
    912f:	8531c1        	l32r	a12, 0xfffea5f4
    9132:	d52282        	l32i	a8, a2, 0x354
    9135:	9d0c      	movi.n	a13, 9
    9137:	06d9      	s32i.n	a13, a6, 0
    9139:	2cc8      	l32i.n	a12, a12, 8
    913b:	0008e0        	excw
    913e:	1807e2        	l8ui	a14, a7, 24
    9141:	fba0f2        	movi	a15, 251
    9144:	10eef0        	and	a14, a14, a15
    9147:	1847e2        	s8i	a14, a7, 24
    914a:	000346        	j	0x915b
    914d:	04bd      	mov.n	a11, a4
    914f:	9a0c      	movi.n	a10, 9
    9151:	990c      	movi.n	a9, 9
    9153:	e02282        	l32i	a8, a2, 0x380
    9156:	0699      	s32i.n	a9, a6, 0
    9158:	0008e0        	excw
    915b:	0628      	l32i.n	a2, a6, 0
    915d:	f01d      	excw
    915f:	fe2282        	l32i	a8, a2, 0x3f8
    9162:	01a8      	l32i.n	a10, a1, 0
    9164:	0008e0        	excw
    9167:	341a66        	bnei	a10, 1, 0x919f
    916a:	124c      	movi.n	a2, 65
    916c:	f01d      	excw
    916e:	04bd      	mov.n	a11, a4
    9170:	e02282        	l32i	a8, a2, 0x380
    9173:	0a0c      	movi.n	a10, 0
    9175:	0008e0        	excw
    9178:	180792        	l8ui	a9, a7, 24
    917b:	022966        	bnei	a9, 2, 0x9181
    917e:	002346        	j	0x920f
    9181:	8476a1        	l32r	a10, 0xfffea35c
    9184:	710aa2        	l8ui	a10, a10, 113
    9187:	021a66        	bnei	a10, 1, 0x918d
    918a:	002046        	j	0x920f
    918d:	b51b      	addi.n	a11, a5, 1
    918f:	7a0c      	movi.n	a10, 7
    9191:	8531c1        	l32r	a12, 0xfffea658
    9194:	d52282        	l32i	a8, a2, 0x354
    9197:	2cc8      	l32i.n	a12, a12, 8
    9199:	0008e0        	excw
    919c:	ffb546        	j	0x9075
    919f:	8528a1        	l32r	a10, 0xfffea640
    91a2:	b51b      	addi.n	a11, a5, 1
    91a4:	6c0c      	movi.n	a12, 6
    91a6:	4e0c      	movi.n	a14, 4
    91a8:	8529f1        	l32r	a15, 0xfffea64c
    91ab:	1807d2        	l8ui	a13, a7, 24
    91ae:	796f32        	s32i	a3, a15, 0x1e4
    91b1:	20dde0        	or	a13, a13, a14
    91b4:	1847d2        	s8i	a13, a7, 24
    91b7:	0290e5        	excw
    91ba:	0639      	s32i.n	a3, a6, 0
    91bc:	04bd      	mov.n	a11, a4
    91be:	e02282        	l32i	a8, a2, 0x380
    91c1:	0a0c      	movi.n	a10, 0
    91c3:	0008e0        	excw
    91c6:	0148      	l32i.n	a4, a1, 0
    91c8:	034732        	s8i	a3, a7, 3
    91cb:	853fa1        	l32r	a10, 0xfffea6c8
    91ce:	0b0c      	movi.n	a11, 0
    91d0:	f8a0c2        	movi	a12, 248
    91d3:	02a125        	excw
    91d6:	04ad      	mov.n	a10, a4
    91d8:	11c8      	l32i.n	a12, a1, 4
    91da:	21b8      	l32i.n	a11, a1, 8
    91dc:	ff2282        	l32i	a8, a2, 0x3fc
    91df:	74b0b0        	extui	a11, a11, 0, 8
    91e2:	0008e0        	excw
    91e5:	ffdc86        	j	0x915b
    91e8:	e44040        	extui	a4, a4, 0, 15
    91eb:	043d      	mov.n	a3, a4
    91ed:	ffc3c6        	j	0x9100
    91f0:	8528a1        	l32r	a10, 0xfffea690
    91f3:	b51b      	addi.n	a11, a5, 1
    91f5:	120c      	movi.n	a2, 1
    91f7:	2c0c      	movi.n	a12, 2
    91f9:	41d8      	l32i.n	a13, a1, 16
    91fb:	1c47d2        	s8i	a13, a7, 28
    91fe:	0143c2        	s8i	a12, a3, 1
    9201:	074322        	s8i	a2, a3, 7
    9204:	6c0c      	movi.n	a12, 6
    9206:	028be5        	excw
    9209:	024322        	s8i	a2, a3, 2
    920c:	ffd2c6        	j	0x915b
    920f:	b51b      	addi.n	a11, a5, 1
    9211:	9a0c      	movi.n	a10, 9
    9213:	8531c1        	l32r	a12, 0xfffea6d8
    9216:	d52282        	l32i	a8, a2, 0x354
    9219:	2cc8      	l32i.n	a12, a12, 8
    921b:	0008e0        	excw
    921e:	ff94c6        	j	0x9075
    9221:	000000        	ill
    9224:	006136        	excw
    9227:	02bd      	mov.n	a11, a2
    9229:	849c61        	l32r	a6, 0xfffea49c
    922c:	854051        	l32r	a5, 0xfffea72c
    922f:	e02682        	l32i	a8, a6, 0x380
    9232:	05ad      	mov.n	a10, a5
    9234:	0008e0        	excw
    9237:	0a7d      	mov.n	a7, a10
    9239:	0cca16        	beqz	a10, 0x9309
    923c:	852431        	l32r	a3, 0xfffea6cc
    923f:	ffa042        	movi	a4, 255
    9242:	0a0c      	movi.n	a10, 0
    9244:	790c      	movi.n	a9, 7
    9246:	43a976        	excw
    9249:	90baa0        	addx2	a11, a10, a10
    924c:	11bba0        	slli	a11, a11, 6
    924f:	b3ba      	add.n	a11, a3, a11
    9251:	800bc2        	l8ui	a12, a11, 128
    9254:	aa1b      	addi.n	a10, a10, 1
    9256:	301c47        	beq	a12, a4, 0x928a
    9259:	2e2bc2        	l32i	a12, a11, 184
    925c:	2a6c07        	bbci	a12, 0, 0x928a
    925f:	1a0c      	movi.n	a10, 1
    9261:	842ad1        	l32r	a13, 0xfffea30c
    9264:	842be1        	l32r	a14, 0xfffea310
    9267:	1df8      	l32i.n	a15, a13, 4
    9269:	02ddd2        	addmi	a13, a13, 0x200
    926c:	872dd2        	l32i	a13, a13, 0x21c
    926f:	ff4b      	addi.n	a15, a15, 4
    9271:	10ffe0        	and	a15, a15, a14
    9274:	c0ddf0        	sub	a13, a13, a15
    9277:	10bde0        	and	a11, a13, a14
    927a:	070de7        	bnone	a13, a14, 0x9285
    927d:	8541e1        	l32r	a14, 0xfffea784
    9280:	090c      	movi.n	a9, 0
    9282:	0cbeb7        	bgeu	a14, a11, 0x9292
    9285:	190c      	movi.n	a9, 1
    9287:	0001c6        	j	0x9292
    928a:	74a0a0        	extui	a10, a10, 0, 8
    928d:	0a0c      	movi.n	a10, 0
    928f:	fff386        	j	0x9261
    9292:	071916        	beqz	a9, 0x9307
    9295:	06ea56        	bnez	a10, 0x9307
    9298:	05ad      	mov.n	a10, a5
    929a:	02bd      	mov.n	a11, a2
    929c:	ac0c      	movi.n	a12, 10
    929e:	028265        	excw
    92a1:	854321        	l32r	a2, 0xfffea7b0
    92a4:	853e51        	l32r	a5, 0xfffea79c
    92a7:	060c      	movi.n	a6, 0
    92a9:	8542e1        	l32r	a14, 0xfffea7b4
    92ac:	01e9      	s32i.n	a14, a1, 0
    92ae:	8003a2        	l8ui	a10, a3, 128
    92b1:	451a47        	beq	a10, a4, 0x92fa
    92b4:	f6cc      	bnez.n	a6, 0x92c7
    92b6:	849c81        	l32r	a8, 0xfffea528
    92b9:	e32882        	l32i	a8, a8, 0x38c
    92bc:	0008e0        	excw
    92bf:	854491        	l32r	a9, 0xfffea7d0
    92c2:	160c      	movi.n	a6, 1
    92c4:	6169a2        	s32i	a10, a9, 0x184
    92c7:	849c81        	l32r	a8, 0xfffea538
    92ca:	db2882        	l32i	a8, a8, 0x36c
    92cd:	ba2c      	movi.n	a10, 43
    92cf:	0008e0        	excw
    92d2:	241a66        	bnei	a10, 1, 0x92fa
    92d5:	849c81        	l32r	a8, 0xfffea548
    92d8:	3a2c      	movi.n	a10, 35
    92da:	dc2882        	l32i	a8, a8, 0x370
    92dd:	05bd      	mov.n	a11, a5
    92df:	0008e0        	excw
    92e2:	141a66        	bnei	a10, 1, 0x92fa
    92e5:	21a4a2        	movi	a10, 0x421
    92e8:	01b8      	l32i.n	a11, a1, 0
    92ea:	2c0c      	movi.n	a12, 2
    92ec:	851981        	l32r	a8, 0xfffea750
    92ef:	8003d2        	l8ui	a13, a3, 128
    92f2:	322882        	l32i	a8, a8, 200
    92f5:	3e0c      	movi.n	a14, 3
    92f7:	0008e0        	excw
    92fa:	c0a092        	movi	a9, 192
    92fd:	559a      	add.n	a5, a5, a9
    92ff:	339a      	add.n	a3, a3, a9
    9301:	a99327        	bne	a3, a2, 0x92ae
    9304:	000046        	j	0x9309
    9307:	070c      	movi.n	a7, 0
    9309:	072d      	mov.n	a2, a7
    930b:	f01d      	excw
    930d:	000000        	ill
    9310:	004136        	excw
    9313:	02bd      	mov.n	a11, a2
    9315:	849c81        	l32r	a8, 0xfffea588
    9318:	854531        	l32r	a3, 0xfffea82c
    931b:	e12882        	l32i	a8, a8, 0x384
    931e:	03ad      	mov.n	a10, a3
    9320:	0008e0        	excw
    9323:	3a9c      	beqz.n	a10, 0x933a
    9325:	03ad      	mov.n	a10, a3
    9327:	02bd      	mov.n	a11, a2
    9329:	ac0c      	movi.n	a12, 10
    932b:	0279a5        	excw
    932e:	8516a1        	l32r	a10, 0xfffea788
    9331:	6a98      	l32i.n	a9, a10, 24
    9333:	4b0c      	movi.n	a11, 4
    9335:	2099b0        	or	a9, a9, a11
    9338:	6a99      	s32i.n	a9, a10, 24
    933a:	f01d      	excw
    933c:	016136        	excw
    933f:	01ad      	mov.n	a10, a1
    9341:	8546b1        	l32r	a11, 0xfffea85c
    9344:	ac0c      	movi.n	a12, 10
    9346:	0277e5        	excw
    9349:	10c1a2        	addi	a10, a1, 16
    934c:	8547b1        	l32r	a11, 0xfffea868
    934f:	ac0c      	movi.n	a12, 10
    9351:	027725        	excw
    9354:	20c1a2        	addi	a10, a1, 32
    9357:	8548b1        	l32r	a11, 0xfffea878
    935a:	ac0c      	movi.n	a12, 10
    935c:	027665        	excw
    935f:	30c1a2        	addi	a10, a1, 48
    9362:	8549b1        	l32r	a11, 0xfffea888
    9365:	ac0c      	movi.n	a12, 10
    9367:	0275e5        	excw
    936a:	838c      	beqz.n	a3, 0x9376
    936c:	03bd      	mov.n	a11, a3
    936e:	4cc2a2        	addi	a10, a2, 76
    9371:	ac0c      	movi.n	a12, 10
    9373:	027525        	excw
    9376:	320c      	movi.n	a2, 3
    9378:	130c      	movi.n	a3, 1
    937a:	84c081        	l32r	a8, 0xfffea67c
    937d:	016d      	mov.n	a6, a1
    937f:	2d1882        	l16ui	a8, a8, 90
    9382:	10c142        	addi	a4, a1, 16
    9385:	22e877        	bbsi	a8, 7, 0x93ab
    9388:	849c81        	l32r	a8, 0xfffea5f8
    938b:	40c1a2        	addi	a10, a1, 64
    938e:	e22882        	l32i	a8, a8, 0x388
    9391:	03bd      	mov.n	a11, a3
    9393:	0008e0        	excw
    9396:	848891        	l32r	a9, 0xfffea5b8
    9399:	462992        	l32i	a9, a9, 0x118
    939c:	049190        	extui	a9, a9, 1, 1
    939f:	0bc956        	bnez	a9, 0x945f
    93a2:	854a71        	l32r	a7, 0xfffea8cc
    93a5:	136172        	s32i	a7, a1, 76
    93a8:	003106        	j	0x9470
    93ab:	0c0c      	movi.n	a12, 0
    93ad:	3e1c      	movi.n	a14, 19
    93af:	02bec7        	bgeu	a14, a12, 0x93b5
    93b2:	002686        	j	0x9450
    93b5:	fa7c      	movi.n	a10, -1
    93b7:	2b0c      	movi.n	a11, 2
    93b9:	0d0c      	movi.n	a13, 0
    93bb:	1321c2        	l32i	a12, a1, 76
    93be:	8f2c      	movi.n	a15, 40
    93c0:	080c      	movi.n	a8, 0
    93c2:	1c6182        	s32i	a8, a1, 112
    93c5:	6baf76        	excw
    93c8:	4172d0        	srli	a7, a13, 2
    93cb:	1450d0        	extui	a5, a13, 0, 2
    93ce:	1155f0        	slli	a5, a5, 1
    93d1:	f76a      	add.n	a15, a7, a6
    93d3:	87ca      	add.n	a8, a7, a12
    93d5:	000882        	l8ui	a8, a8, 0
    93d8:	1f61f2        	s32i	a15, a1, 124
    93db:	401500        	ssl	a5
    93de:	000ff2        	l8ui	a15, a15, 0
    93e1:	774a      	add.n	a7, a7, a4
    93e3:	a15200        	sll	a5, a2
    93e6:	108580        	and	a8, a5, a8
    93e9:	0007e2        	l8ui	a14, a7, 0
    93ec:	3095a0        	xor	a9, a5, a10
    93ef:	10ff90        	and	a15, a15, a9
    93f2:	10ee90        	and	a14, a14, a9
    93f5:	a19300        	sll	a9, a3
    93f8:	1e6192        	s32i	a9, a1, 120
    93fb:	279987        	bne	a9, a8, 0x9426
    93fe:	1f2182        	l32i	a8, a1, 124
    9401:	2095f0        	or	a9, a5, a15
    9404:	004892        	s8i	a9, a8, 0
    9407:	1e2182        	l32i	a8, a1, 120
    940a:	d9cd92        	addi	a9, a13, -39
    940d:	2088e0        	or	a8, a8, a14
    9410:	004782        	s8i	a8, a7, 0
    9413:	038d      	mov.n	a8, a3
    9415:	938b90        	movnez	a8, a11, a9
    9418:	1c2192        	l32i	a9, a1, 112
    941b:	898a      	add.n	a8, a9, a8
    941d:	749080        	extui	a9, a8, 0, 8
    9420:	1c6192        	s32i	a9, a1, 112
    9423:	0002c6        	j	0x9432
    9426:	2095e0        	or	a9, a5, a14
    9429:	1f2182        	l32i	a8, a1, 124
    942c:	004792        	s8i	a9, a7, 0
    942f:	0048f2        	s8i	a15, a8, 0
    9432:	dd1b      	addi.n	a13, a13, 1
    9434:	1c21a2        	l32i	a10, a1, 112
    9437:	391c      	movi.n	a9, 19
    9439:	1339a7        	bltu	a9, a10, 0x9450
    943c:	01ad      	mov.n	a10, a1
    943e:	fb7c      	movi.n	a11, -1
    9440:	ac0c      	movi.n	a12, 10
    9442:	027a25        	excw
    9445:	10c1a2        	addi	a10, a1, 16
    9448:	84d2b1        	l32r	a11, 0xfffea790
    944b:	ac0c      	movi.n	a12, 10
    944d:	027965        	excw
    9450:	10c1a2        	addi	a10, a1, 16
    9453:	ffebe5        	excw
    9456:	01ad      	mov.n	a10, a1
    9458:	ffdca5        	excw
    945b:	0a2d      	mov.n	a2, a10
    945d:	f01d      	excw
    945f:	20c1a2        	addi	a10, a1, 32
    9462:	84d2b1        	l32r	a11, 0xfffea7ac
    9465:	ac0c      	movi.n	a12, 10
    9467:	0277e5        	excw
    946a:	20c172        	addi	a7, a1, 32
    946d:	136172        	s32i	a7, a1, 76
    9470:	2a0c      	movi.n	a10, 2
    9472:	fb7c      	movi.n	a11, -1
    9474:	01cd      	mov.n	a12, a1
    9476:	0e0c      	movi.n	a14, 0
    9478:	060c      	movi.n	a6, 0
    947a:	40c1d2        	addi	a13, a1, 64
    947d:	854b51        	l32r	a5, 0xfffea9ac
    9480:	8f2c      	movi.n	a15, 40
    9482:	b7af76        	excw
    9485:	1490e0        	extui	a9, a14, 0, 2
    9488:	4182e0        	srli	a8, a14, 2
    948b:	1b6182        	s32i	a8, a1, 108
    948e:	1199f0        	slli	a9, a9, 1
    9491:	186192        	s32i	a9, a1, 96
    9494:	401900        	ssl	a9
    9497:	885a      	add.n	a8, a8, a5
    9499:	800882        	l8ui	a8, a8, 128
    949c:	a1f200        	sll	a15, a2
    949f:	108f80        	and	a8, a15, a8
    94a2:	6c9f87        	bne	a15, a8, 0x9512
    94a5:	1b2192        	l32i	a9, a1, 108
    94a8:	182182        	l32i	a8, a1, 96
    94ab:	997a      	add.n	a9, a9, a7
    94ad:	401800        	ssl	a8
    94b0:	a18300        	sll	a8, a3
    94b3:	000992        	l8ui	a9, a9, 0
    94b6:	176182        	s32i	a8, a1, 92
    94b9:	109f90        	and	a9, a15, a9
    94bc:	529897        	bne	a8, a9, 0x9512
    94bf:	1b2182        	l32i	a8, a1, 108
    94c2:	172192        	l32i	a9, a1, 92
    94c5:	88da      	add.n	a8, a8, a13
    94c7:	000882        	l8ui	a8, a8, 0
    94ca:	146182        	s32i	a8, a1, 80
    94cd:	108f80        	and	a8, a15, a8
    94d0:	051987        	beq	a9, a8, 0x94d9
    94d3:	142192        	l32i	a9, a1, 80
    94d6:	388f97        	bany	a15, a9, 0x9512
    94d9:	1b2182        	l32i	a8, a1, 108
    94dc:	309fb0        	xor	a9, a15, a11
    94df:	c8ca      	add.n	a12, a8, a12
    94e1:	000cb2        	l8ui	a11, a12, 0
    94e4:	10bb90        	and	a11, a11, a9
    94e7:	20bfb0        	or	a11, a15, a11
    94ea:	004cb2        	s8i	a11, a12, 0
    94ed:	c84a      	add.n	a12, a8, a4
    94ef:	000c82        	l8ui	a8, a12, 0
    94f2:	1721b2        	l32i	a11, a1, 92
    94f5:	108890        	and	a8, a8, a9
    94f8:	d9ce92        	addi	a9, a14, -39
    94fb:	20bb80        	or	a11, a11, a8
    94fe:	004cb2        	s8i	a11, a12, 0
    9501:	038d      	mov.n	a8, a3
    9503:	fb7c      	movi.n	a11, -1
    9505:	01cd      	mov.n	a12, a1
    9507:	938a90        	movnez	a8, a10, a9
    950a:	668a      	add.n	a6, a6, a8
    950c:	746060        	extui	a6, a6, 0, 8
    950f:	000946        	j	0x9538
    9512:	1b21b2        	l32i	a11, a1, 108
    9515:	9b4a      	add.n	a9, a11, a4
    9517:	000982        	l8ui	a8, a9, 0
    951a:	f47c      	movi.n	a4, -1
    951c:	304f40        	xor	a4, a15, a4
    951f:	bbca      	add.n	a11, a11, a12
    9521:	108840        	and	a8, a8, a4
    9524:	208f80        	or	a8, a15, a8
    9527:	004982        	s8i	a8, a9, 0
    952a:	000b92        	l8ui	a9, a11, 0
    952d:	109940        	and	a9, a9, a4
    9530:	10c142        	addi	a4, a1, 16
    9533:	004b92        	s8i	a9, a11, 0
    9536:	fb7c      	movi.n	a11, -1
    9538:	ee1b      	addi.n	a14, a14, 1
    953a:	74e0e0        	extui	a14, a14, 0, 8
    953d:	3f1c      	movi.n	a15, 19
    953f:	02bf67        	bgeu	a15, a6, 0x9545
    9542:	ffc286        	j	0x9450
    9545:	113616        	beqz	a6, 0x965c
    9548:	30c1a2        	addi	a10, a1, 48
    954b:	10c1b2        	addi	a11, a1, 16
    954e:	ac0c      	movi.n	a12, 10
    9550:	025725        	excw
    9553:	190c      	movi.n	a9, 1
    9555:	196192        	s32i	a9, a1, 100
    9558:	7a2c      	movi.n	a10, 39
    955a:	02ba67        	bgeu	a10, a6, 0x9560
    955d:	003ec6        	j	0x965c
    9560:	1921b2        	l32i	a11, a1, 100
    9563:	026bb6        	bltui	a11, 6, 0x9569
    9566:	003c86        	j	0x965c
    9569:	8c2c      	movi.n	a12, 40
    956b:	0d0c      	movi.n	a13, 0
    956d:	1d61d2        	s32i	a13, a1, 116
    9570:	1a61c2        	s32i	a12, a1, 104
    9573:	1d2192        	l32i	a9, a1, 116
    9576:	30c1e2        	addi	a14, a1, 48
    9579:	41f290        	srli	a15, a9, 2
    957c:	149090        	extui	a9, a9, 0, 2
    957f:	eefa      	add.n	a14, a14, a15
    9581:	000ee2        	l8ui	a14, a14, 0
    9584:	1199f0        	slli	a9, a9, 1
    9587:	401900        	ssl	a9
    958a:	a1f300        	sll	a15, a3
    958d:	a18200        	sll	a8, a2
    9590:	10ee80        	and	a14, a14, a8
    9593:	c0eef0        	sub	a14, a14, a15
    9596:	0a1e56        	bnez	a14, 0x963b
    9599:	1d2192        	l32i	a9, a1, 116
    959c:	1921c2        	l32i	a12, a1, 100
    959f:	1d21b2        	l32i	a11, a1, 116
    95a2:	192182        	l32i	a8, a1, 100
    95a5:	bbca      	add.n	a11, a11, a12
    95a7:	7c2c      	movi.n	a12, 39
    95a9:	74b0b0        	extui	a11, a11, 0, 8
    95ac:	63bbc0        	excw
    95af:	05b897        	bgeu	a8, a9, 0x95b8
    95b2:	c0a980        	sub	a10, a9, a8
    95b5:	000046        	j	0x95ba
    95b8:	0a0c      	movi.n	a10, 0
    95ba:	74a0a0        	extui	a10, a10, 0, 8
    95bd:	7a3ba7        	bltu	a11, a10, 0x963b
    95c0:	c0dba0        	sub	a13, a11, a10
    95c3:	dd1b      	addi.n	a13, a13, 1
    95c5:	729d76        	excw
    95c8:	41c2a0        	srli	a12, a10, 2
    95cb:	14d0a0        	extui	a13, a10, 0, 2
    95ce:	11ddf0        	slli	a13, a13, 1
    95d1:	ec5a      	add.n	a14, a12, a5
    95d3:	800ee2        	l8ui	a14, a14, 128
    95d6:	401d00        	ssl	a13
    95d9:	a1b200        	sll	a11, a2
    95dc:	10ebe0        	and	a14, a11, a14
    95df:	539be7        	bne	a11, a14, 0x9636
    95e2:	fc4a      	add.n	a15, a12, a4
    95e4:	000fe2        	l8ui	a14, a15, 0
    95e7:	a1d300        	sll	a13, a3
    95ea:	108be0        	and	a8, a11, a14
    95ed:	451d87        	beq	a13, a8, 0x9636
    95f0:	9c7a      	add.n	a9, a12, a7
    95f2:	000992        	l8ui	a9, a9, 0
    95f5:	40c182        	addi	a8, a1, 64
    95f8:	109b90        	and	a9, a11, a9
    95fb:	0a1d97        	beq	a13, a9, 0x9609
    95fe:	8c8a      	add.n	a8, a12, a8
    9600:	000882        	l8ui	a8, a8, 0
    9603:	108b80        	and	a8, a11, a8
    9606:	2c9d87        	bne	a13, a8, 0x9636
    9609:	f87c      	movi.n	a8, -1
    960b:	019d      	mov.n	a9, a1
    960d:	cc9a      	add.n	a12, a12, a9
    960f:	000c92        	l8ui	a9, a12, 0
    9612:	308b80        	xor	a8, a11, a8
    9615:	109980        	and	a9, a9, a8
    9618:	108e80        	and	a8, a14, a8
    961b:	209b90        	or	a9, a11, a9
    961e:	004c92        	s8i	a9, a12, 0
    9621:	208d80        	or	a8, a13, a8
    9624:	d9cac2        	addi	a12, a10, -39
    9627:	290c      	movi.n	a9, 2
    9629:	004f82        	s8i	a8, a15, 0
    962c:	038d      	mov.n	a8, a3
    962e:	9389c0        	movnez	a8, a9, a12
    9631:	668a      	add.n	a6, a6, a8
    9633:	746060        	extui	a6, a6, 0, 8
    9636:	aa1b      	addi.n	a10, a10, 1
    9638:	74a0a0        	extui	a10, a10, 0, 8
    963b:	1a21b2        	l32i	a11, a1, 104
    963e:	1d21c2        	l32i	a12, a1, 116
    9641:	bb0b      	addi.n	a11, a11, -1
    9643:	cc1b      	addi.n	a12, a12, 1
    9645:	1d61c2        	s32i	a12, a1, 116
    9648:	1a61b2        	s32i	a11, a1, 104
    964b:	f24b56        	bnez	a11, 0x9573
    964e:	1921d2        	l32i	a13, a1, 100
    9651:	ed1b      	addi.n	a14, a13, 1
    9653:	74d0e0        	extui	a13, a14, 0, 8
    9656:	1961d2        	s32i	a13, a1, 100
    9659:	ffbec6        	j	0x9558
    965c:	3f1c      	movi.n	a15, 19
    965e:	02bf67        	bgeu	a15, a6, 0x9664
    9661:	ff7ac6        	j	0x9450
    9664:	016d      	mov.n	a6, a1
    9666:	fa7c      	movi.n	a10, -1
    9668:	2b0c      	movi.n	a11, 2
    966a:	0d0c      	movi.n	a13, 0
    966c:	0c0c      	movi.n	a12, 0
    966e:	28a082        	movi	a8, 40
    9671:	87a876        	excw
    9674:	41f2d0        	srli	a15, a13, 2
    9677:	14e0d0        	extui	a14, a13, 0, 2
    967a:	11eef0        	slli	a14, a14, 1
    967d:	9f5a      	add.n	a9, a15, a5
    967f:	800992        	l8ui	a9, a9, 128
    9682:	1661e2        	s32i	a14, a1, 88
    9685:	401e00        	ssl	a14
    9688:	a1e200        	sll	a14, a2
    968b:	109e90        	and	a9, a14, a9
    968e:	4a9e97        	bne	a14, a9, 0x96dc
    9691:	162182        	l32i	a8, a1, 88
    9694:	9f7a      	add.n	a9, a15, a7
    9696:	000992        	l8ui	a9, a9, 0
    9699:	401800        	ssl	a8
    969c:	109e90        	and	a9, a14, a9
    969f:	a18300        	sll	a8, a3
    96a2:	156182        	s32i	a8, a1, 84
    96a5:	339897        	bne	a8, a9, 0x96dc
    96a8:	8f6a      	add.n	a8, a15, a6
    96aa:	000862        	l8ui	a6, a8, 0
    96ad:	309ea0        	xor	a9, a14, a10
    96b0:	106690        	and	a6, a6, a9
    96b3:	206e60        	or	a6, a14, a6
    96b6:	004862        	s8i	a6, a8, 0
    96b9:	6f4a      	add.n	a6, a15, a4
    96bb:	000682        	l8ui	a8, a6, 0
    96be:	108890        	and	a8, a8, a9
    96c1:	152192        	l32i	a9, a1, 84
    96c4:	209980        	or	a9, a9, a8
    96c7:	004692        	s8i	a9, a6, 0
    96ca:	d9cd82        	addi	a8, a13, -39
    96cd:	036d      	mov.n	a6, a3
    96cf:	936b80        	movnez	a6, a11, a8
    96d2:	cc6a      	add.n	a12, a12, a6
    96d4:	74c0c0        	extui	a12, a12, 0, 8
    96d7:	016d      	mov.n	a6, a1
    96d9:	000746        	j	0x96fa
    96dc:	308ea0        	xor	a8, a14, a10
    96df:	af4a      	add.n	a10, a15, a4
    96e1:	000a92        	l8ui	a9, a10, 0
    96e4:	109980        	and	a9, a9, a8
    96e7:	209e90        	or	a9, a14, a9
    96ea:	004a92        	s8i	a9, a10, 0
    96ed:	af6a      	add.n	a10, a15, a6
    96ef:	000a92        	l8ui	a9, a10, 0
    96f2:	109980        	and	a9, a9, a8
    96f5:	004a92        	s8i	a9, a10, 0
    96f8:	fa7c      	movi.n	a10, -1
    96fa:	dd1b      	addi.n	a13, a13, 1
    96fc:	ff2b46        	j	0x93ad
    96ff:	613600        	excw
    9702:	9c7100        	excw
    9705:	05ad84        	excw
    9708:	ec2782        	l32i	a8, a7, 0x3b0
    970b:	01bd      	mov.n	a11, a1
    970d:	0008e0        	excw
    9710:	0a6d      	mov.n	a6, a10
    9712:	386417        	bbci	a4, 1, 0x974e
    9715:	0a0c      	movi.n	a10, 0
    9717:	05bd      	mov.n	a11, a5
    9719:	ed2782        	l32i	a8, a7, 0x3b4
    971c:	0c0c      	movi.n	a12, 0
    971e:	0008e0        	excw
    9721:	02bd      	mov.n	a11, a2
    9723:	05ed      	mov.n	a14, a5
    9725:	74a0a0        	extui	a10, a10, 0, 8
    9728:	ac0c      	movi.n	a12, 10
    972a:	f62782        	l32i	a8, a7, 0x3d8
    972d:	8545d1        	l32r	a13, 0xfffeac44
    9730:	0008e0        	excw
    9733:	84afd1        	l32r	a13, 0xfffea9f0
    9736:	1226c2        	l32i	a12, a6, 72
    9739:	8516a1        	l32r	a10, 0xfffeab94
    973c:	20ccd0        	or	a12, a12, a13
    973f:	1266c2        	s32i	a12, a6, 72
    9742:	6a98      	l32i.n	a9, a10, 24
    9744:	bb7c      	movi.n	a11, -5
    9746:	1099b0        	and	a9, a9, a11
    9749:	6a99      	s32i.n	a9, a10, 24
    974b:	000246        	j	0x9758
    974e:	64cc      	bnez.n	a4, 0x9758
    9750:	e62782        	l32i	a8, a7, 0x398
    9753:	03bd      	mov.n	a11, a3
    9755:	0008e0        	excw
    9758:	020c      	movi.n	a2, 0
    975a:	f01d      	excw
    975c:	004136        	excw
    975f:	0b0c      	movi.n	a11, 0
    9761:	ac0c      	movi.n	a12, 10
    9763:	854c91        	l32r	a9, 0xfffeac94
    9766:	122282        	l32i	a8, a2, 72
    9769:	1a0c      	movi.n	a10, 1
    976b:	0c42a2        	s8i	a10, a2, 12
    976e:	0b42a2        	s8i	a10, a2, 11
    9771:	4cc2a2        	addi	a10, a2, 76
    9774:	108890        	and	a8, a8, a9
    9777:	126282        	s32i	a8, a2, 72
    977a:	0246a5        	excw
    977d:	f01d      	excw
    977f:	413600        	srli	a3, a0, 6
    9782:	db1c00        	excw
    9785:	594c      	movi.n	a9, 69
    9787:	00a4d2        	movi	a13, 0x400
    978a:	851581        	l32r	a8, 0xfffeabe0
    978d:	84c0c1        	l32r	a12, 0xfffeaa90
    9790:	8488a1        	l32r	a10, 0xfffea9b0
    9793:	0e0c      	movi.n	a14, 0
    9795:	064ae2        	s8i	a14, a10, 6
    9798:	2d1cc2        	l16ui	a12, a12, 90
    979b:	102882        	l32i	a8, a8, 64
    979e:	10ccd0        	and	a12, a12, a13
    97a1:	939bc0        	movnez	a9, a11, a12
    97a4:	0a5a92        	s16i	a9, a10, 20
    97a7:	0008e0        	excw
    97aa:	f01d      	excw
    97ac:	004136        	excw
    97af:	851941        	l32r	a4, 0xfffeac14
    97b2:	783c      	movi.n	a8, 55
    97b4:	5b9287        	bne	a2, a8, 0x9813
    97b7:	0a0c      	movi.n	a10, 0
    97b9:	8c2482        	l32i	a8, a4, 0x230
    97bc:	03bd      	mov.n	a11, a3
    97be:	0008e0        	excw
    97c1:	1a0c      	movi.n	a10, 1
    97c3:	8c2482        	l32i	a8, a4, 0x230
    97c6:	03bd      	mov.n	a11, a3
    97c8:	0008e0        	excw
    97cb:	2a0c      	movi.n	a10, 2
    97cd:	8c2482        	l32i	a8, a4, 0x230
    97d0:	03bd      	mov.n	a11, a3
    97d2:	0008e0        	excw
    97d5:	7a0c      	movi.n	a10, 7
    97d7:	8c2482        	l32i	a8, a4, 0x230
    97da:	03bd      	mov.n	a11, a3
    97dc:	0008e0        	excw
    97df:	ca0c      	movi.n	a10, 12
    97e1:	8c2482        	l32i	a8, a4, 0x230
    97e4:	03bd      	mov.n	a11, a3
    97e6:	0008e0        	excw
    97e9:	da0c      	movi.n	a10, 13
    97eb:	8c2482        	l32i	a8, a4, 0x230
    97ee:	03bd      	mov.n	a11, a3
    97f0:	0008e0        	excw
    97f3:	ca2c      	movi.n	a10, 44
    97f5:	8c2482        	l32i	a8, a4, 0x230
    97f8:	03bd      	mov.n	a11, a3
    97fa:	0008e0        	excw
    97fd:	6a2c      	movi.n	a10, 38
    97ff:	8c2482        	l32i	a8, a4, 0x230
    9802:	03bd      	mov.n	a11, a3
    9804:	0008e0        	excw
    9807:	03bd      	mov.n	a11, a3
    9809:	8c2482        	l32i	a8, a4, 0x230
    980c:	da3c      	movi.n	a10, 61
    980e:	0008e0        	excw
    9811:	f01d      	excw
    9813:	051256        	bnez	a2, 0x9868
    9816:	1a0c      	movi.n	a10, 1
    9818:	8c2482        	l32i	a8, a4, 0x230
    981b:	03bd      	mov.n	a11, a3
    981d:	0008e0        	excw
    9820:	2a0c      	movi.n	a10, 2
    9822:	8c2482        	l32i	a8, a4, 0x230
    9825:	03bd      	mov.n	a11, a3
    9827:	0008e0        	excw
    982a:	7a0c      	movi.n	a10, 7
    982c:	8c2482        	l32i	a8, a4, 0x230
    982f:	03bd      	mov.n	a11, a3
    9831:	0008e0        	excw
    9834:	ca0c      	movi.n	a10, 12
    9836:	8c2482        	l32i	a8, a4, 0x230
    9839:	03bd      	mov.n	a11, a3
    983b:	0008e0        	excw
    983e:	da0c      	movi.n	a10, 13
    9840:	8c2482        	l32i	a8, a4, 0x230
    9843:	03bd      	mov.n	a11, a3
    9845:	0008e0        	excw
    9848:	6a2c      	movi.n	a10, 38
    984a:	8c2482        	l32i	a8, a4, 0x230
    984d:	03bd      	mov.n	a11, a3
    984f:	0008e0        	excw
    9852:	ca2c      	movi.n	a10, 44
    9854:	8c2482        	l32i	a8, a4, 0x230
    9857:	03bd      	mov.n	a11, a3
    9859:	0008e0        	excw
    985c:	03bd      	mov.n	a11, a3
    985e:	8c2482        	l32i	a8, a4, 0x230
    9861:	da3c      	movi.n	a10, 61
    9863:	0008e0        	excw
    9866:	f01d      	excw
    9868:	471266        	bnei	a2, 1, 0x98b3
    986b:	2a0c      	movi.n	a10, 2
    986d:	8c2482        	l32i	a8, a4, 0x230
    9870:	03bd      	mov.n	a11, a3
    9872:	0008e0        	excw
    9875:	7a0c      	movi.n	a10, 7
    9877:	8c2482        	l32i	a8, a4, 0x230
    987a:	03bd      	mov.n	a11, a3
    987c:	0008e0        	excw
    987f:	ca0c      	movi.n	a10, 12
    9881:	8c2482        	l32i	a8, a4, 0x230
    9884:	03bd      	mov.n	a11, a3
    9886:	0008e0        	excw
    9889:	da0c      	movi.n	a10, 13
    988b:	8c2482        	l32i	a8, a4, 0x230
    988e:	03bd      	mov.n	a11, a3
    9890:	0008e0        	excw
    9893:	6a2c      	movi.n	a10, 38
    9895:	8c2482        	l32i	a8, a4, 0x230
    9898:	03bd      	mov.n	a11, a3
    989a:	0008e0        	excw
    989d:	ca2c      	movi.n	a10, 44
    989f:	8c2482        	l32i	a8, a4, 0x230
    98a2:	03bd      	mov.n	a11, a3
    98a4:	0008e0        	excw
    98a7:	03bd      	mov.n	a11, a3
    98a9:	8c2482        	l32i	a8, a4, 0x230
    98ac:	da3c      	movi.n	a10, 61
    98ae:	0008e0        	excw
    98b1:	f01d      	excw
    98b3:	3d2266        	bnei	a2, 2, 0x98f4
    98b6:	7a0c      	movi.n	a10, 7
    98b8:	8c2482        	l32i	a8, a4, 0x230
    98bb:	03bd      	mov.n	a11, a3
    98bd:	0008e0        	excw
    98c0:	ca0c      	movi.n	a10, 12
    98c2:	8c2482        	l32i	a8, a4, 0x230
    98c5:	03bd      	mov.n	a11, a3
    98c7:	0008e0        	excw
    98ca:	da0c      	movi.n	a10, 13
    98cc:	8c2482        	l32i	a8, a4, 0x230
    98cf:	03bd      	mov.n	a11, a3
    98d1:	0008e0        	excw
    98d4:	6a2c      	movi.n	a10, 38
    98d6:	8c2482        	l32i	a8, a4, 0x230
    98d9:	03bd      	mov.n	a11, a3
    98db:	0008e0        	excw
    98de:	ca2c      	movi.n	a10, 44
    98e0:	8c2482        	l32i	a8, a4, 0x230
    98e3:	03bd      	mov.n	a11, a3
    98e5:	0008e0        	excw
    98e8:	03bd      	mov.n	a11, a3
    98ea:	8c2482        	l32i	a8, a4, 0x230
    98ed:	da3c      	movi.n	a10, 61
    98ef:	0008e0        	excw
    98f2:	f01d      	excw
    98f4:	337266        	bnei	a2, 7, 0x992b
    98f7:	ca0c      	movi.n	a10, 12
    98f9:	8c2482        	l32i	a8, a4, 0x230
    98fc:	03bd      	mov.n	a11, a3
    98fe:	0008e0        	excw
    9901:	da0c      	movi.n	a10, 13
    9903:	8c2482        	l32i	a8, a4, 0x230
    9906:	03bd      	mov.n	a11, a3
    9908:	0008e0        	excw
    990b:	6a2c      	movi.n	a10, 38
    990d:	8c2482        	l32i	a8, a4, 0x230
    9910:	03bd      	mov.n	a11, a3
    9912:	0008e0        	excw
    9915:	ca2c      	movi.n	a10, 44
    9917:	8c2482        	l32i	a8, a4, 0x230
    991a:	03bd      	mov.n	a11, a3
    991c:	0008e0        	excw
    991f:	03bd      	mov.n	a11, a3
    9921:	8c2482        	l32i	a8, a4, 0x230
    9924:	da3c      	movi.n	a10, 61
    9926:	0008e0        	excw
    9929:	f01d      	excw
    992b:	29a266        	bnei	a2, 12, 0x9958
    992e:	da0c      	movi.n	a10, 13
    9930:	8c2482        	l32i	a8, a4, 0x230
    9933:	03bd      	mov.n	a11, a3
    9935:	0008e0        	excw
    9938:	6a2c      	movi.n	a10, 38
    993a:	8c2482        	l32i	a8, a4, 0x230
    993d:	03bd      	mov.n	a11, a3
    993f:	0008e0        	excw
    9942:	ca2c      	movi.n	a10, 44
    9944:	8c2482        	l32i	a8, a4, 0x230
    9947:	03bd      	mov.n	a11, a3
    9949:	0008e0        	excw
    994c:	03bd      	mov.n	a11, a3
    994e:	8c2482        	l32i	a8, a4, 0x230
    9951:	da3c      	movi.n	a10, 61
    9953:	0008e0        	excw
    9956:	f01d      	excw
    9958:	d90c      	movi.n	a9, 13
    995a:	1f9297        	bne	a2, a9, 0x997d
    995d:	6a2c      	movi.n	a10, 38
    995f:	8c2482        	l32i	a8, a4, 0x230
    9962:	03bd      	mov.n	a11, a3
    9964:	0008e0        	excw
    9967:	ca2c      	movi.n	a10, 44
    9969:	8c2482        	l32i	a8, a4, 0x230
    996c:	03bd      	mov.n	a11, a3
    996e:	0008e0        	excw
    9971:	03bd      	mov.n	a11, a3
    9973:	8c2482        	l32i	a8, a4, 0x230
    9976:	da3c      	movi.n	a10, 61
    9978:	0008e0        	excw
    997b:	f01d      	excw
    997d:	692c      	movi.n	a9, 38
    997f:	159297        	bne	a2, a9, 0x9998
    9982:	ca2c      	movi.n	a10, 44
    9984:	8c2482        	l32i	a8, a4, 0x230
    9987:	03bd      	mov.n	a11, a3
    9989:	0008e0        	excw
    998c:	03bd      	mov.n	a11, a3
    998e:	8c2482        	l32i	a8, a4, 0x230
    9991:	da3c      	movi.n	a10, 61
    9993:	0008e0        	excw
    9996:	f01d      	excw
    9998:	c92c      	movi.n	a9, 44
    999a:	0b9297        	bne	a2, a9, 0x99a9
    999d:	03bd      	mov.n	a11, a3
    999f:	8c2482        	l32i	a8, a4, 0x230
    99a2:	da3c      	movi.n	a10, 61
    99a4:	0008e0        	excw
    99a7:	f01d      	excw
    99a9:	d93c      	movi.n	a9, 61
    99ab:	071297        	beq	a2, a9, 0x99b6
    99ae:	8525a1        	l32r	a10, 0xfffeae44
    99b1:	0b0c      	movi.n	a11, 0
    99b3:	ade625        	excw
    99b6:	f01d      	excw
    99b8:	008136        	excw
    99bb:	849f21        	l32r	a2, 0xfffeac38
    99be:	f222c2        	l32i	a12, a2, 0x3c8
    99c1:	040c92        	l8ui	a9, a12, 4
    99c4:	015192        	s16i	a9, a1, 2
    99c7:	081c82        	l16ui	a8, a12, 16
    99ca:	849bb1        	l32r	a11, 0xfffeac38
    99cd:	048280        	extui	a8, a8, 2, 1
    99d0:	07c816        	beqz	a8, 0x9a50
    99d3:	11b9      	s32i.n	a11, a1, 4
    99d5:	21b9      	s32i.n	a11, a1, 8
    99d7:	851931        	l32r	a3, 0xfffeae3c
    99da:	f322a2        	l32i	a10, a2, 0x3cc
    99dd:	a52382        	l32i	a8, a3, 0x294
    99e0:	080aa2        	l8ui	a10, a10, 8
    99e3:	0008e0        	excw
    99e6:	0a4d      	mov.n	a4, a10
    99e8:	f322a2        	l32i	a10, a2, 0x3cc
    99eb:	a52382        	l32i	a8, a3, 0x294
    99ee:	070aa2        	l8ui	a10, a10, 7
    99f1:	0008e0        	excw
    99f4:	e8a3b2        	movi	a11, 0x3e8
    99f7:	71a2c2        	movi	a12, 0x271
    99fa:	f222f2        	l32i	a15, a2, 0x3c8
    99fd:	0aed      	mov.n	a14, a10
    99ff:	080fd2        	l8ui	a13, a15, 8
    9a02:	070fa2        	l8ui	a10, a15, 7
    9a05:	dd4a      	add.n	a13, a13, a4
    9a07:	aaea      	add.n	a10, a10, a14
    9a09:	aada      	add.n	a10, a10, a13
    9a0b:	82aac0        	mull	a10, a10, a12
    9a0e:	e7a3c2        	movi	a12, 0x3e7
    9a11:	aaca      	add.n	a10, a10, a12
    9a13:	01f325        	excw
    9a16:	8b2382        	l32i	a8, a3, 0x22c
    9a19:	8488b1        	l32r	a11, 0xfffeac3c
    9a1c:	0651a2        	s16i	a10, a1, 12
    9a1f:	ffa0c2        	movi	a12, 255
    9a22:	1041c2        	s8i	a12, a1, 16
    9a25:	f322a2        	l32i	a10, a2, 0x3cc
    9a28:	881bb2        	l16ui	a11, a11, 0x110
    9a2b:	0751b2        	s16i	a11, a1, 14
    9a2e:	070aa2        	l8ui	a10, a10, 7
    9a31:	0008e0        	excw
    9a34:	5d2382        	l32i	a8, a3, 0x174
    9a37:	845bc1        	l32r	a12, 0xfffeaba4
    9a3a:	f222b2        	l32i	a11, a2, 0x3c8
    9a3d:	0951a2        	s16i	a10, a1, 18
    9a40:	081b92        	l16ui	a9, a11, 16
    9a43:	01ad      	mov.n	a10, a1
    9a45:	2099c0        	or	a9, a9, a12
    9a48:	085b92        	s16i	a9, a11, 16
    9a4b:	0008e0        	excw
    9a4e:	f01d      	excw
    9a50:	091ca2        	l16ui	a10, a12, 18
    9a53:	40a6b2        	movi	a11, 0x640
    9a56:	c1aab0        	mul16u	a10, a10, a11
    9a59:	070cb2        	l8ui	a11, a12, 7
    9a5c:	01ee65        	excw
    9a5f:	0abd      	mov.n	a11, a10
    9a61:	11a9      	s32i.n	a10, a1, 4
    9a63:	ffdb86        	j	0x99d5
    9a66:	360000        	excw
    9a69:	bd0041        	l32r	a4, 0xffff8e6c
    9a6c:	04cd03        	excw
    9a6f:	05dd      	mov.n	a13, a5
    9a71:	851581        	l32r	a8, 0xfffeaec8
    9a74:	06ed      	mov.n	a14, a6
    9a76:	112882        	l32i	a8, a8, 68
    9a79:	02ad      	mov.n	a10, a2
    9a7b:	0008e0        	excw
    9a7e:	120292        	l8ui	a9, a2, 18
    9a81:	ba3c      	movi.n	a10, 59
    9a83:	0999a7        	bne	a9, a10, 0x9a90
    9a86:	852ec1        	l32r	a12, 0xfffeaf40
    9a89:	d2b8      	l32i.n	a11, a2, 52
    9a8b:	10bbc0        	and	a11, a11, a12
    9a8e:	d2b9      	s32i.n	a11, a2, 52
    9a90:	f01d      	excw
    9a92:	360000        	excw
    9a95:	fc0041        	l32r	a4, 0x8a98 (0xc0008e0)
    9a98:	028283        	excw
    9a9b:	b618      	l32i.n	a1, a6, 44
    9a9d:	2f48      	l32i.n	a4, a15, 8
    9a9f:	849c41        	l32r	a4, 0xfffead10
    9aa2:	aa2c      	movi.n	a10, 42
    9aa4:	dc2482        	l32i	a8, a4, 0x370
    9aa7:	02bd      	mov.n	a11, a2
    9aa9:	0008e0        	excw
    9aac:	fa9c      	beqz.n	a10, 0x9acf
    9aae:	db2482        	l32i	a8, a4, 0x36c
    9ab1:	aa2c      	movi.n	a10, 42
    9ab3:	0008e0        	excw
    9ab6:	5a9c      	beqz.n	a10, 0x9acf
    9ab8:	02ad      	mov.n	a10, a2
    9aba:	0302c2        	l8ui	a12, a2, 3
    9abd:	849681        	l32r	a8, 0xfffead18
    9ac0:	064232        	s8i	a3, a2, 6
    9ac3:	9d2882        	l32i	a8, a8, 0x274
    9ac6:	1b0c      	movi.n	a11, 1
    9ac8:	0008e0        	excw
    9acb:	120c      	movi.n	a2, 1
    9acd:	f01d      	excw
    9acf:	020c      	movi.n	a2, 0
    9ad1:	f01d      	excw
    9ad3:	851581        	l32r	a8, 0xfffeaf28
    9ad6:	02ad      	mov.n	a10, a2
    9ad8:	122882        	l32i	a8, a8, 72
    9adb:	03bd      	mov.n	a11, a3
    9add:	0008e0        	excw
    9ae0:	0a2d      	mov.n	a2, a10
    9ae2:	f01d      	excw
    9ae4:	008136        	excw
    9ae7:	849c71        	l32r	a7, 0xfffead58
    9aea:	05ad      	mov.n	a10, a5
    9aec:	ec2782        	l32i	a8, a7, 0x3b0
    9aef:	10c1b2        	addi	a11, a1, 16
    9af2:	0008e0        	excw
    9af5:	c4dc      	bnez.n	a4, 0x9b15
    9af7:	030aa2        	l8ui	a10, a10, 3
    9afa:	6b3c      	movi.n	a11, 54
    9afc:	04cae6        	bgei	a10, 32, 0x9b04
    9aff:	e91c      	movi.n	a9, 30
    9b01:	10aa97        	bge	a10, a9, 0x9b15
    9b04:	042ba7        	blt	a11, a10, 0x9b0c
    9b07:	5c3c      	movi.n	a12, 53
    9b09:	08aac7        	bge	a10, a12, 0x9b15
    9b0c:	bd3c      	movi.n	a13, 59
    9b0e:	031ad7        	beq	a10, a13, 0x9b15
    9b11:	224c      	movi.n	a2, 66
    9b13:	f01d      	excw
    9b15:	1a0c      	movi.n	a10, 1
    9b17:	05bd      	mov.n	a11, a5
    9b19:	ed2782        	l32i	a8, a7, 0x3b4
    9b1c:	0c0c      	movi.n	a12, 0
    9b1e:	0008e0        	excw
    9b21:	03bd      	mov.n	a11, a3
    9b23:	04cd      	mov.n	a12, a4
    9b25:	05dd      	mov.n	a13, a5
    9b27:	0afd      	mov.n	a15, a10
    9b29:	8496e1        	l32r	a14, 0xfffead84
    9b2c:	02ad      	mov.n	a10, a2
    9b2e:	642ee2        	l32i	a14, a14, 0x190
    9b31:	0169      	s32i.n	a6, a1, 0
    9b33:	ef2782        	l32i	a8, a7, 0x3bc
    9b36:	74f0f0        	extui	a15, a15, 0, 8
    9b39:	0008e0        	excw
    9b3c:	0a2d      	mov.n	a2, a10
    9b3e:	f01d      	excw
    9b40:	004136        	excw
    9b43:	eba382        	movi	a8, 0x3eb
    9b46:	219487        	bne	a4, a8, 0x9b6b
    9b49:	849c81        	l32r	a8, 0xfffeadbc
    9b4c:	d42882        	l32i	a8, a8, 0x350
    9b4f:	0008e0        	excw
    9b52:	0003d2        	l8ui	a13, a3, 0
    9b55:	2c0c      	movi.n	a12, 2
    9b57:	1e0c      	movi.n	a14, 1
    9b59:	851981        	l32r	a8, 0xfffeafc0
    9b5c:	ba2b      	addi.n	a11, a10, 2
    9b5e:	1d2882        	l32i	a8, a8, 116
    9b61:	0ca4a2        	movi	a10, 0x40c
    9b64:	0008e0        	excw
    9b67:	020c      	movi.n	a2, 0
    9b69:	f01d      	excw
    9b6b:	02ad      	mov.n	a10, a2
    9b6d:	03bd      	mov.n	a11, a3
    9b6f:	04cd      	mov.n	a12, a4
    9b71:	05dd      	mov.n	a13, a5
    9b73:	851581        	l32r	a8, 0xfffeafc8
    9b76:	06ed      	mov.n	a14, a6
    9b78:	132882        	l32i	a8, a8, 76
    9b7b:	07fd      	mov.n	a15, a7
    9b7d:	0008e0        	excw
    9b80:	0a2d      	mov.n	a2, a10
    9b82:	f01d      	excw
    9b84:	004136        	excw
    9b87:	0a0c      	movi.n	a10, 0
    9b89:	faa382        	movi	a8, 0x3fa
    9b8c:	059487        	bne	a4, a8, 0x9b95
    9b8f:	06a9      	s32i.n	a10, a6, 0
    9b91:	0a2d      	mov.n	a2, a10
    9b93:	f01d      	excw
    9b95:	b4a492        	movi	a9, 0x4b4
    9b98:	649497        	bne	a4, a9, 0x9c00
    9b9b:	2a0c      	movi.n	a10, 2
    9b9d:	849681        	l32r	a8, 0xfffeadf8
    9ba0:	02bd      	mov.n	a11, a2
    9ba2:	142882        	l32i	a8, a8, 80
    9ba5:	0303c2        	l8ui	a12, a3, 3
    9ba8:	0008e0        	excw
    9bab:	03ad      	mov.n	a10, a3
    9bad:	74b020        	extui	a11, a2, 0, 8
    9bb0:	05cd      	mov.n	a12, a5
    9bb2:	06dd      	mov.n	a13, a6
    9bb4:	849681        	l32r	a8, 0xfffeae0c
    9bb7:	090c      	movi.n	a9, 0
    9bb9:	4c2882        	l32i	a8, a8, 0x130
    9bbc:	0699      	s32i.n	a9, a6, 0
    9bbe:	0008e0        	excw
    9bc1:	8496f1        	l32r	a15, 0xfffeae1c
    9bc4:	5ca292        	movi	a9, 0x25c
    9bc7:	1d2c      	movi.n	a13, 33
    9bc9:	848881        	l32r	a8, 0xfffeadec
    9bcc:	0a3d      	mov.n	a3, a10
    9bce:	854dc1        	l32r	a12, 0xfffeb104
    9bd1:	902aa0        	addx2	a2, a10, a10
    9bd4:	1122a0        	slli	a2, a2, 6
    9bd7:	c2ca      	add.n	a12, a2, a12
    9bd9:	0015a2        	l16ui	a10, a5, 0
    9bdc:	228a      	add.n	a2, a2, a8
    9bde:	091a16        	beqz	a10, 0x9c73
    9be1:	282c82        	l32i	a8, a12, 160
    9be4:	2d2ca2        	l32i	a10, a12, 180
    9be7:	476817        	bbci	a8, 1, 0x9c32
    9bea:	229a      	add.n	a2, a2, a9
    9bec:	5c6a77        	bbci	a10, 7, 0x9c4c
    9bef:	02ad      	mov.n	a10, a2
    9bf1:	7e4cd2        	s8i	a13, a12, 126
    9bf4:	a02f82        	l32i	a8, a15, 0x280
    9bf7:	74b030        	extui	a11, a3, 0, 8
    9bfa:	0008e0        	excw
    9bfd:	000b46        	j	0x9c2e
    9c00:	02ad      	mov.n	a10, a2
    9c02:	03bd      	mov.n	a11, a3
    9c04:	04cd      	mov.n	a12, a4
    9c06:	05dd      	mov.n	a13, a5
    9c08:	851581        	l32r	a8, 0xfffeb05c
    9c0b:	06ed      	mov.n	a14, a6
    9c0d:	142882        	l32i	a8, a8, 80
    9c10:	07fd      	mov.n	a15, a7
    9c12:	0008e0        	excw
    9c15:	0a2d      	mov.n	a2, a10
    9c17:	f01d      	excw
    9c19:	03ad      	mov.n	a10, a3
    9c1b:	02bd      	mov.n	a11, a2
    9c1d:	04cd      	mov.n	a12, a4
    9c1f:	05dd      	mov.n	a13, a5
    9c21:	849681        	l32r	a8, 0xfffeae7c
    9c24:	07fd      	mov.n	a15, a7
    9c26:	612882        	l32i	a8, a8, 0x184
    9c29:	06ed      	mov.n	a14, a6
    9c2b:	0008e0        	excw
    9c2e:	0628      	l32i.n	a2, a6, 0
    9c30:	f01d      	excw
    9c32:	2173e6        	bgei	a3, 7, 0x9c57
    9c35:	03bd      	mov.n	a11, a3
    9c37:	2a0c      	movi.n	a10, 2
    9c39:	8514c1        	l32r	a12, 0xfffeb08c
    9c3c:	5e0c      	movi.n	a14, 5
    9c3e:	5fa2d2        	movi	a13, 0x25f
    9c41:	1e2f82        	l32i	a8, a15, 120
    9c44:	d2da      	add.n	a13, a2, a13
    9c46:	0008e0        	excw
    9c49:	fff846        	j	0x9c2e
    9c4c:	3e2f82        	l32i	a8, a15, 248
    9c4f:	02ad      	mov.n	a10, a2
    9c51:	0008e0        	excw
    9c54:	fff586        	j	0x9c2e
    9c57:	04cd      	mov.n	a12, a4
    9c59:	05dd      	mov.n	a13, a5
    9c5b:	07fd      	mov.n	a15, a7
    9c5d:	74a030        	extui	a10, a3, 0, 8
    9c60:	06ed      	mov.n	a14, a6
    9c62:	849681        	l32r	a8, 0xfffeaebc
    9c65:	5ca2b2        	movi	a11, 0x25c
    9c68:	612882        	l32i	a8, a8, 0x184
    9c6b:	b2ba      	add.n	a11, a2, a11
    9c6d:	0008e0        	excw
    9c70:	ffee86        	j	0x9c2e
    9c73:	229a      	add.n	a2, a2, a9
    9c75:	2d2ce2        	l32i	a14, a12, 180
    9c78:	743030        	extui	a3, a3, 0, 8
    9c7b:	9a6e77        	bbci	a14, 7, 0x9c19
    9c7e:	02ad      	mov.n	a10, a2
    9c80:	03bd      	mov.n	a11, a3
    9c82:	a02f82        	l32i	a8, a15, 0x280
    9c85:	7e4cd2        	s8i	a13, a12, 126
    9c88:	0008e0        	excw
    9c8b:	ffe7c6        	j	0x9c2e
    9c8e:	360000        	excw
    9c91:	820041        	l32r	a4, 0xfffea494
    9c94:	87faa3        	excw
    9c97:	0c0594        	excw
    9c9a:	062902        	l32i	a0, a9, 24
    9c9d:	f01d      	excw
    9c9f:	02ad      	mov.n	a10, a2
    9ca1:	03bd      	mov.n	a11, a3
    9ca3:	04cd      	mov.n	a12, a4
    9ca5:	05dd      	mov.n	a13, a5
    9ca7:	851581        	l32r	a8, 0xfffeb0fc
    9caa:	06ed      	mov.n	a14, a6
    9cac:	152882        	l32i	a8, a8, 84
    9caf:	07fd      	mov.n	a15, a7
    9cb1:	0008e0        	excw
    9cb4:	0a2d      	mov.n	a2, a10
    9cb6:	f01d      	excw
    9cb8:	006136        	excw
    9cbb:	854eb1        	l32r	a11, 0xfffeb1f4
    9cbe:	030c      	movi.n	a3, 0
    9cc0:	854f51        	l32r	a5, 0xfffeb1fc
    9cc3:	60a042        	movi	a4, 96
    9cc6:	c0a0e2        	movi	a14, 192
    9cc9:	ffa0f2        	movi	a15, 255
    9ccc:	02ad      	mov.n	a10, a2
    9cce:	780c      	movi.n	a8, 7
    9cd0:	420c      	movi.n	a2, 4
    9cd2:	47a876        	excw
    9cd5:	740bd2        	l8ui	a13, a11, 116
    9cd8:	511bc2        	l16ui	a12, a11, 162
    9cdb:	3c1df7        	beq	a13, a15, 0x9d1b
    9cde:	750b92        	l8ui	a9, a11, 117
    9ce1:	90ccc0        	addx2	a12, a12, a12
    9ce4:	118cf0        	slli	a8, a12, 1
    9ce7:	533830        	excw
    9cea:	533340        	excw
    9ced:	1e4966        	bnei	a9, 4, 0x9d0f
    9cf0:	d8a1c2        	movi	a12, 0x1d8
    9cf3:	c1cdc0        	mul16u	a12, a13, a12
    9cf6:	890b82        	l8ui	a8, a11, 137
    9cf9:	c5ca      	add.n	a12, a5, a12
    9cfb:	800cc2        	l8ui	a12, a12, 128
    9cfe:	671b92        	l16ui	a9, a11, 206
    9d01:	73cc80        	excw
    9d04:	cc1b      	addi.n	a12, a12, 1
    9d06:	53cc20        	excw
    9d09:	8299c0        	mull	a9, a9, a12
    9d0c:	000206        	j	0x9d18
    9d0f:	085966        	bnei	a9, 5, 0x9d1b
    9d12:	531b92        	l16ui	a9, a11, 166
    9d15:	909c90        	addx2	a9, a12, a9
    9d18:	533930        	excw
    9d1b:	bbea      	add.n	a11, a11, a14
    9d1d:	842981        	l32r	a8, 0xfffeadc4
    9d20:	362882        	l32i	a8, a8, 216
    9d23:	01bd      	mov.n	a11, a1
    9d25:	0008e0        	excw
    9d28:	0128      	l32i.n	a2, a1, 0
    9d2a:	84b281        	l32r	a8, 0xfffeaff4
    9d2d:	412120        	srli	a2, a2, 1
    9d30:	232a      	add.n	a2, a3, a2
    9d32:	221b      	addi.n	a2, a2, 1
    9d34:	102280        	and	a2, a2, a8
    9d37:	f01d      	excw
    9d39:	000000        	ill
    9d3c:	004136        	excw
    9d3f:	02ad      	mov.n	a10, a2
    9d41:	04cd      	mov.n	a12, a4
    9d43:	05dd      	mov.n	a13, a5
    9d45:	851581        	l32r	a8, 0xfffeb19c
    9d48:	06ed      	mov.n	a14, a6
    9d4a:	162882        	l32i	a8, a8, 88
    9d4d:	03bd      	mov.n	a11, a3
    9d4f:	0008e0        	excw
    9d52:	0a2d      	mov.n	a2, a10
    9d54:	5aec      	bnez.n	a10, 0x9d7d
    9d56:	8550d1        	l32r	a13, 0xfffeb298
    9d59:	ffa0e2        	movi	a14, 255
    9d5c:	0b0c      	movi.n	a11, 0
    9d5e:	cc2c      	movi.n	a12, 44
    9d60:	c1cbc0        	mul16u	a12, a11, a12
    9d63:	bb1b      	addi.n	a11, a11, 1
    9d65:	cdca      	add.n	a12, a13, a12
    9d67:	790c92        	l8ui	a9, a12, 121
    9d6a:	74b0b0        	extui	a11, a11, 0, 8
    9d6d:	099937        	bne	a9, a3, 0x9d7a
    9d70:	860cf2        	l8ui	a15, a12, 134
    9d73:	031fe7        	beq	a15, a14, 0x9d7a
    9d76:	122c      	movi.n	a2, 33
    9d78:	f01d      	excw
    9d7a:	fe0b16        	beqz	a11, 0x9d5e
    9d7d:	f01d      	excw
    9d7f:	613600        	excw
    9d82:	9c8100        	excw
    9d85:	05ad84        	excw
    9d88:	ec2882        	l32i	a8, a8, 0x3b0
    9d8b:	01bd      	mov.n	a11, a1
    9d8d:	0008e0        	excw
    9d90:	0a7d      	mov.n	a7, a10
    9d92:	256417        	bbci	a4, 1, 0x9dbb
    9d95:	0a0c      	movi.n	a10, 0
    9d97:	849c81        	l32r	a8, 0xfffeb008
    9d9a:	05bd      	mov.n	a11, a5
    9d9c:	ed2882        	l32i	a8, a8, 0x3b4
    9d9f:	1c0c      	movi.n	a12, 1
    9da1:	0008e0        	excw
    9da4:	02bd      	mov.n	a11, a2
    9da6:	03dd      	mov.n	a13, a3
    9da8:	05ed      	mov.n	a14, a5
    9daa:	849c81        	l32r	a8, 0xfffeb01c
    9dad:	74a0a0        	extui	a10, a10, 0, 8
    9db0:	f62882        	l32i	a8, a8, 0x3d8
    9db3:	ac0c      	movi.n	a12, 10
    9db5:	0008e0        	excw
    9db8:	001c06        	j	0x9e2c
    9dbb:	8551e1        	l32r	a14, 0xfffeb300
    9dbe:	dad8      	l32i.n	a13, a10, 52
    9dc0:	122af2        	l32i	a15, a10, 72
    9dc3:	8c0c      	movi.n	a12, 8
    9dc5:	20ffc0        	or	a15, a15, a12
    9dc8:	126af2        	s32i	a15, a10, 72
    9dcb:	10dde0        	and	a13, a13, a14
    9dce:	dad9      	s32i.n	a13, a10, 52
    9dd0:	0003a2        	l8ui	a10, a3, 0
    9dd3:	1b0c      	movi.n	a11, 1
    9dd5:	63aab0        	excw
    9dd8:	b32b      	addi.n	a11, a3, 2
    9dda:	74a0a0        	extui	a10, a10, 0, 8
    9ddd:	b0aa70        	addx8	a10, a10, a7
    9de0:	60caa2        	addi	a10, a10, 96
    9de3:	21a9      	s32i.n	a10, a1, 8
    9de5:	01cde5        	excw
    9de8:	848891        	l32r	a9, 0xfffeb008
    9deb:	849641        	l32r	a4, 0xfffeb044
    9dee:	180982        	l8ui	a8, a9, 24
    9df1:	06d9a2        	addmi	a10, a9, 0x600
    9df4:	386827        	bbci	a8, 2, 0x9e30
    9df7:	f92aa2        	l32i	a10, a10, 0x3e4
    9dfa:	2abc      	beqz.n	a10, 0x9e30
    9dfc:	8528a1        	l32r	a10, 0xfffeb29c
    9dff:	6c0c      	movi.n	a12, 6
    9e01:	8ca0b2        	movi	a11, 140
    9e04:	b7ba      	add.n	a11, a7, a11
    9e06:	11b9      	s32i.n	a11, a1, 4
    9e08:	01c325        	excw
    9e0b:	1aec      	bnez.n	a10, 0x9e30
    9e0d:	21b8      	l32i.n	a11, a1, 8
    9e0f:	8529a1        	l32r	a10, 0xfffeb2b4
    9e12:	090c      	movi.n	a9, 0
    9e14:	dc2482        	l32i	a8, a4, 0x370
    9e17:	796a92        	s32i	a9, a10, 0x1e4
    9e1a:	11a8      	l32i.n	a10, a1, 4
    9e1c:	0008e0        	excw
    9e1f:	07ad      	mov.n	a10, a7
    9e21:	06cd      	mov.n	a12, a6
    9e23:	ff2482        	l32i	a8, a4, 0x3fc
    9e26:	0001b2        	l8ui	a11, a1, 0
    9e29:	0008e0        	excw
    9e2c:	020c      	movi.n	a2, 0
    9e2e:	f01d      	excw
    9e30:	1217d2        	l16ui	a13, a7, 36
    9e33:	186d17        	bbci	a13, 1, 0x9e4f
    9e36:	03cd      	mov.n	a12, a3
    9e38:	1517b2        	l16ui	a11, a7, 42
    9e3b:	0a0c      	movi.n	a10, 0
    9e3d:	855291        	l32r	a9, 0xfffeb388
    9e40:	db2482        	l32i	a8, a4, 0x36c
    9e43:	109d90        	and	a9, a13, a9
    9e46:	125792        	s16i	a9, a7, 36
    9e49:	0008e0        	excw
    9e4c:	fff706        	j	0x9e2c
    9e4f:	02ad      	mov.n	a10, a2
    9e51:	03bd      	mov.n	a11, a3
    9e53:	05cd      	mov.n	a12, a5
    9e55:	642482        	l32i	a8, a4, 0x190
    9e58:	06dd      	mov.n	a13, a6
    9e5a:	0008e0        	excw
    9e5d:	fff2c6        	j	0x9e2c
    9e60:	006136        	excw
    9e63:	a11b      	addi.n	a10, a1, 1
    9e65:	6c0c      	movi.n	a12, 6
    9e67:	2159      	s32i.n	a5, a1, 8
    9e69:	8ca0b2        	movi	a11, 140
    9e6c:	026d      	mov.n	a6, a2
    9e6e:	b2ba      	add.n	a11, a2, a11
    9e70:	020c      	movi.n	a2, 0
    9e72:	01c525        	excw
    9e75:	846451        	l32r	a5, 0xfffeb008
    9e78:	0b73f6        	bgeui	a3, 7, 0x9e87
    9e7b:	1c0c      	movi.n	a12, 1
    9e7d:	7d0c      	movi.n	a13, 7
    9e7f:	0741c2        	s8i	a12, a1, 7
    9e82:	ac0c      	movi.n	a12, 10
    9e84:	000186        	j	0x9e8e
    9e87:	0d0c      	movi.n	a13, 0
    9e89:	7c0c      	movi.n	a12, 7
    9e8b:	074122        	s8i	a2, a1, 7
    9e8e:	0014e2        	l16ui	a14, a4, 0
    9e91:	849671        	l32r	a7, 0xfffeb0ec
    9e94:	fefc      	bnez.n	a14, 0x9ed7
    9e96:	ffa0b2        	movi	a11, 255
    9e99:	0d2d      	mov.n	a2, a13
    9e9b:	21f8      	l32i.n	a15, a1, 8
    9e9d:	040c      	movi.n	a4, 0
    9e9f:	006f42        	s32i	a4, a15, 0
    9ea2:	023dc7        	bltu	a13, a12, 0x9ea8
    9ea5:	002146        	j	0x9f2e
    9ea8:	853ed1        	l32r	a13, 0xfffeb3a0
    9eab:	c08c20        	sub	a8, a12, a2
    9eae:	82cdc2        	addi	a12, a13, -126
    9eb1:	1f9876        	excw
    9eb4:	903220        	addx2	a3, a2, a2
    9eb7:	1133a0        	slli	a3, a3, 6
    9eba:	a3ca      	add.n	a10, a3, a12
    9ebc:	7e0a92        	l8ui	a9, a10, 126
    9ebf:	33da      	add.n	a3, a3, a13
    9ec1:	0a99b7        	bne	a9, a11, 0x9ecf
    9ec4:	810a82        	l8ui	a8, a10, 129
    9ec7:	7f0a92        	l8ui	a9, a10, 127
    9eca:	18cc      	bnez.n	a8, 0x9ecf
    9ecc:	060916        	beqz	a9, 0x9f30
    9ecf:	221b      	addi.n	a2, a2, 1
    9ed1:	742020        	extui	a2, a2, 0, 8
    9ed4:	001606        	j	0x9f30
    9ed7:	06ad      	mov.n	a10, a6
    9ed9:	702782        	l32i	a8, a7, 0x1c0
    9edc:	2b0c      	movi.n	a11, 2
    9ede:	0008e0        	excw
    9ee1:	854ca1        	l32r	a10, 0xfffeb414
    9ee4:	122692        	l32i	a9, a6, 72
    9ee7:	1b2c      	movi.n	a11, 33
    9ee9:	1099a0        	and	a9, a9, a10
    9eec:	126692        	s32i	a9, a6, 72
    9eef:	3779a7        	bbci	a9, 26, 0x9f2a
    9ef2:	0014a2        	l16ui	a10, a4, 0
    9ef5:	190c      	movi.n	a9, 1
    9ef7:	011ab7        	beq	a10, a11, 0x9efc
    9efa:	5a3c      	movi.n	a10, 53
    9efc:	0041a2        	s8i	a10, a1, 0
    9eff:	0173f6        	bgeui	a3, 7, 0x9f04
    9f02:	090c      	movi.n	a9, 0
    9f04:	074192        	s8i	a9, a1, 7
    9f07:	d6c8      	l32i.n	a12, a6, 52
    9f09:	156cb7        	bbci	a12, 11, 0x9f22
    9f0c:	01bd      	mov.n	a11, a1
    9f0e:	8c0c      	movi.n	a12, 8
    9f10:	9ca0a2        	movi	a10, 156
    9f13:	a6aa      	add.n	a10, a6, a10
    9f15:	01bae5        	excw
    9f18:	d6b8      	l32i.n	a11, a6, 52
    9f1a:	20bb50        	or	a11, a11, a5
    9f1d:	d6b9      	s32i.n	a11, a6, 52
    9f1f:	0001c6        	j	0x9f2a
    9f22:	e92782        	l32i	a8, a7, 0x3a4
    9f25:	01ad      	mov.n	a10, a1
    9f27:	0008e0        	excw
    9f2a:	032d      	mov.n	a2, a3
    9f2c:	f01d      	excw
    9f2e:	030c      	movi.n	a3, 0
    9f30:	000392        	l8ui	a9, a3, 0
    9f33:	0719b7        	beq	a9, a11, 0x9f3e
    9f36:	8525a1        	l32r	a10, 0xfffeb3cc
    9f39:	0b0c      	movi.n	a11, 0
    9f3b:	ad8da5        	excw
    9f3e:	03ad      	mov.n	a10, a3
    9f40:	06bd      	mov.n	a11, a6
    9f42:	c0a0c2        	movi	a12, 192
    9f45:	01b7e5        	excw
    9f48:	7788      	l32i.n	a8, a7, 28
    9f4a:	06ad      	mov.n	a10, a6
    9f4c:	0008e0        	excw
    9f4f:	4b2782        	l32i	a8, a7, 0x12c
    9f52:	03ad      	mov.n	a10, a3
    9f54:	0008e0        	excw
    9f57:	122392        	l32i	a9, a3, 72
    9f5a:	096927        	bbci	a9, 2, 0x9f67
    9f5d:	03ad      	mov.n	a10, a3
    9f5f:	702782        	l32i	a8, a7, 0x1c0
    9f62:	2b0c      	movi.n	a11, 2
    9f64:	0008e0        	excw
    9f67:	004142        	s8i	a4, a1, 0
    9f6a:	d398      	l32i.n	a9, a3, 52
    9f6c:	1569b7        	bbci	a9, 11, 0x9f85
    9f6f:	01bd      	mov.n	a11, a1
    9f71:	8c0c      	movi.n	a12, 8
    9f73:	9ca0a2        	movi	a10, 156
    9f76:	a3aa      	add.n	a10, a3, a10
    9f78:	01b4a5        	excw
    9f7b:	d3b8      	l32i.n	a11, a3, 52
    9f7d:	20bb50        	or	a11, a11, a5
    9f80:	d3b9      	s32i.n	a11, a3, 52
    9f82:	0001c6        	j	0x9f8d
    9f85:	e92782        	l32i	a8, a7, 0x3a4
    9f88:	01ad      	mov.n	a10, a1
    9f8a:	0008e0        	excw
    9f8d:	023d      	mov.n	a3, a2
    9f8f:	ffe5c6        	j	0x9f2a
    9f92:	360000        	excw
    9f95:	820041        	l32r	a4, 0xfffea798
    9f98:	8789a0        	excw
    9f9b:	0c0f94        	excw
    9f9e:	812a      	add.n	a8, a1, a2
    9fa0:	bd8496        	bltz	a4, 0x9b7c
    9fa3:	288202        	excw
    9fa6:	03c214        	excw
    9fa9:	08e003        	excw
    9fac:	02ad00        	excw
    9faf:	03bd      	mov.n	a11, a3
    9fb1:	04cd      	mov.n	a12, a4
    9fb3:	05dd      	mov.n	a13, a5
    9fb5:	851581        	l32r	a8, 0xfffeb40c
    9fb8:	06ed      	mov.n	a14, a6
    9fba:	172882        	l32i	a8, a8, 92
    9fbd:	07fd      	mov.n	a15, a7
    9fbf:	0008e0        	excw
    9fc2:	0a2d      	mov.n	a2, a10
    9fc4:	f01d      	excw
    9fc6:	360000        	excw
    9fc9:	b10041        	l32r	a4, 0xffff63cc
    9fcc:	e18557        	bany	a5, a5, 0x9fb1
    9fcf:	618515        	excw
    9fd2:	d18554        	excw
    9fd5:	418556        	bnez	a5, 0xa3f1
    9fd8:	318555        	excw
    9fdb:	918553        	excw
    9fde:	8558      	l32i.n	a5, a5, 32
    9fe0:	06d3a2        	addmi	a10, a3, 0x600
    9fe3:	1c6a92        	s32i	a9, a10, 112
    9fe6:	ffd3f2        	addmi	a15, a3, 0xffffff00
    9fe9:	04d392        	addmi	a9, a3, 0x400
    9fec:	7f88      	l32i.n	a8, a15, 28
    9fee:	9f28      	l32i.n	a2, a15, 36
    9ff0:	df58      	l32i.n	a5, a15, 52
    9ff2:	df49      	s32i.n	a4, a15, 52
    9ff4:	9fd9      	s32i.n	a13, a15, 36
    9ff6:	7f69      	s32i.n	a6, a15, 28
    9ff8:	8e89      	s32i.n	a8, a14, 32
    9ffa:	106e22        	s32i	a2, a14, 64
    9ffd:	ae59      	s32i.n	a5, a14, 40
    9fff:	855b21        	l32r	a2, 0xfffeb56c
    a002:	855a51        	l32r	a5, 0xfffeb56c
    a005:	855981        	l32r	a8, 0xfffeb56c
    a008:	05d362        	addmi	a6, a3, 0x500
    a00b:	855dd1        	l32r	a13, 0xfffeb580
    a00e:	01d342        	addmi	a4, a3, 0x100
    a011:	c72442        	l32i	a4, a4, 0x31c
    a014:	a9d9      	s32i.n	a13, a9, 40
    a016:	4726c2        	l32i	a12, a6, 0x11c
    a019:	eec9      	s32i.n	a12, a14, 56
    a01b:	1e23d2        	l32i	a13, a3, 120
    a01e:	7ab9      	s32i.n	a11, a10, 28
    a020:	1e6682        	s32i	a8, a6, 120
    a023:	7e49      	s32i.n	a4, a14, 28
    a025:	b659      	s32i.n	a5, a6, 44
    a027:	7929      	s32i.n	a2, a9, 28
    a029:	342352        	l32i	a5, a3, 208
    a02c:	352322        	l32i	a2, a3, 212
    a02f:	4d2342        	l32i	a4, a3, 0x134
    a032:	856181        	l32r	a8, 0xfffeb5b8
    a035:	8560a1        	l32r	a10, 0xfffeb5b8
    a038:	855fb1        	l32r	a11, 0xfffeb5b4
    a03b:	6ed9      	s32i.n	a13, a14, 24
    a03d:	855ec1        	l32r	a12, 0xfffeb5b8
    a040:	1f69c2        	s32i	a12, a9, 124
    a043:	7523d2        	l32i	a13, a3, 0x1d4
    a046:	6369b2        	s32i	a11, a9, 0x18c
    a049:	89a9      	s32i.n	a10, a9, 32
    a04b:	766982        	s32i	a8, a9, 0x1d8
    a04e:	3e49      	s32i.n	a4, a14, 12
    a050:	4e29      	s32i.n	a2, a14, 16
    a052:	5b2362        	l32i	a6, a3, 0x16c
    a055:	2e59      	s32i.n	a5, a14, 8
    a057:	855cf1        	l32r	a15, 0xfffeb5c8
    a05a:	7b69f2        	s32i	a15, a9, 0x1ec
    a05d:	3d2352        	l32i	a5, a3, 244
    a060:	1e69      	s32i.n	a6, a14, 4
    a062:	462322        	l32i	a2, a3, 0x118
    a065:	412342        	l32i	a4, a3, 0x104
    a068:	142382        	l32i	a8, a3, 80
    a06b:	dc23a2        	l32i	a10, a3, 0x370
    a06e:	7823b2        	l32i	a11, a3, 0x1e0
    a071:	176ed2        	s32i	a13, a14, 92
    a074:	7723c2        	l32i	a12, a3, 0x1dc
    a077:	856cd1        	l32r	a13, 0xfffeb628
    a07a:	bec9      	s32i.n	a12, a14, 44
    a07c:	ceb9      	s32i.n	a11, a14, 48
    a07e:	dea9      	s32i.n	a10, a14, 52
    a080:	126e82        	s32i	a8, a14, 72
    a083:	146e42        	s32i	a4, a14, 80
    a086:	156e22        	s32i	a2, a14, 84
    a089:	5e2362        	l32i	a6, a3, 0x178
    a08c:	136e52        	s32i	a5, a14, 76
    a08f:	1523f2        	l32i	a15, a3, 84
    a092:	5ef9      	s32i.n	a15, a14, 20
    a094:	856851        	l32r	a5, 0xfffeb634
    a097:	116e62        	s32i	a6, a14, 68
    a09a:	856a21        	l32r	a2, 0xfffeb644
    a09d:	856941        	l32r	a4, 0xfffeb644
    a0a0:	856681        	l32r	a8, 0xfffeb638
    a0a3:	8564a1        	l32r	a10, 0xfffeb634
    a0a6:	8563b1        	l32r	a11, 0xfffeb634
    a0a9:	8562c1        	l32r	a12, 0xfffeb634
    a0ac:	5b63c2        	s32i	a12, a3, 0x16c
    a0af:	3463b2        	s32i	a11, a3, 208
    a0b2:	4d63a2        	s32i	a10, a3, 0x134
    a0b5:	156382        	s32i	a8, a3, 84
    a0b8:	786342        	s32i	a4, a3, 0x1e0
    a0bb:	dc6322        	s32i	a2, a3, 0x370
    a0be:	856761        	l32r	a6, 0xfffeb65c
    a0c1:	776352        	s32i	a5, a3, 0x1dc
    a0c4:	93f8      	l32i.n	a15, a3, 36
    a0c6:	857251        	l32r	a5, 0xfffeb690
    a0c9:	166ef2        	s32i	a15, a14, 88
    a0cc:	db2392        	l32i	a9, a3, 0x36c
    a0cf:	1e6362        	s32i	a6, a3, 120
    a0d2:	857421        	l32r	a2, 0xfffeb6a4
    a0d5:	857341        	l32r	a4, 0xfffeb6a4
    a0d8:	857181        	l32r	a8, 0xfffeb69c
    a0db:	856fa1        	l32r	a10, 0xfffeb698
    a0de:	856eb1        	l32r	a11, 0xfffeb698
    a0e1:	856dc1        	l32r	a12, 0xfffeb698
    a0e4:	1463c2        	s32i	a12, a3, 80
    a0e7:	5e63b2        	s32i	a11, a3, 0x178
    a0ea:	3d63a2        	s32i	a10, a3, 244
    a0ed:	466382        	s32i	a8, a3, 0x118
    a0f0:	9349      	s32i.n	a4, a3, 36
    a0f2:	756322        	s32i	a2, a3, 0x1d4
    a0f5:	03d362        	addmi	a6, a3, 0x300
    a0f8:	fe99      	s32i.n	a9, a14, 60
    a0fa:	856bf1        	l32r	a15, 0xfffeb6a8
    a0fd:	db63f2        	s32i	a15, a3, 0x36c
    a100:	856591        	l32r	a9, 0xfffeb694
    a103:	636652        	s32i	a5, a6, 0x18c
    a106:	858021        	l32r	a2, 0xfffeb708
    a109:	857f41        	l32r	a4, 0xfffeb708
    a10c:	857c81        	l32r	a8, 0xfffeb6fc
    a10f:	857aa1        	l32r	a10, 0xfffeb6f8
    a112:	8579b1        	l32r	a11, 0xfffeb6f8
    a115:	8578c1        	l32r	a12, 0xfffeb6f8
    a118:	8c63c2        	s32i	a12, a3, 0x230
    a11b:	fe63b2        	s32i	a11, a3, 0x3f8
    a11e:	5563a2        	s32i	a10, a3, 0x154
    a121:	1f6382        	s32i	a8, a3, 124
    a124:	2a6342        	s32i	a4, a3, 168
    a127:	c329      	s32i.n	a2, a3, 48
    a129:	857e51        	l32r	a5, 0xfffeb724
    a12c:	356392        	s32i	a9, a3, 212
    a12f:	857d61        	l32r	a6, 0xfffeb724
    a132:	8575f1        	l32r	a15, 0xfffeb708
    a135:	b3f9      	s32i.n	a15, a3, 44
    a137:	9f6362        	s32i	a6, a3, 0x27c
    a13a:	857091        	l32r	a9, 0xfffeb6fc
    a13d:	1a6352        	s32i	a5, a3, 104
    a140:	416392        	s32i	a9, a3, 0x104
    a143:	857b91        	l32r	a9, 0xfffeb730
    a146:	576392        	s32i	a9, a3, 0x15c
    a149:	07d3e2        	addmi	a14, a3, 0x700
    a14c:	eed9      	s32i.n	a13, a14, 56
    a14e:	8577d1        	l32r	a13, 0xfffeb72c
    a151:	8576e1        	l32r	a14, 0xfffeb72c
    a154:	2463e2        	s32i	a14, a3, 144
    a157:	fc63d2        	s32i	a13, a3, 0x3f0
    a15a:	f01d      	excw
    a15c:	004136        	excw
    a15f:	00a292        	movi	a9, 0x200
    a162:	840da1        	l32r	a10, 0xfffeb198
    a165:	0020c0        	memw
    a168:	858181        	l32r	a8, 0xfffeb76c
    a16b:	0888      	l32i.n	a8, a8, 0
    a16d:	9e6a92        	s32i	a9, a10, 0x278
    a170:	0008e0        	excw
    a173:	f01d      	excw
    a175:	000000        	ill
    a178:	004136        	excw
    a17b:	858321        	l32r	a2, 0xfffeb788
    a17e:	858231        	l32r	a3, 0xfffeb788
    a181:	858181        	l32r	a8, 0xfffeb788
    a184:	252342        	l32i	a4, a3, 148
    a187:	0849      	s32i.n	a4, a8, 0
    a189:	256322        	s32i	a2, a3, 148
    a18c:	f01d      	excw
    a18e:	360000        	excw
    a191:	410041        	l32r	a4, 0xfffda594
    a194:	ae          	.byte 0xae
    a195:	348884        	excw
    a198:	858421        	l32r	a2, 0xfffeb7a8
    a19b:	05e807        	bbsi	a8, 0, 0xa1a4
    a19e:	0020c0        	memw
    a1a1:	9c2232        	l32i	a3, a2, 0x270
    a1a4:	858581        	l32r	a8, 0xfffeb7b8
    a1a7:	0888      	l32i.n	a8, a8, 0
    a1a9:	0008e0        	excw
    a1ac:	3498      	l32i.n	a9, a4, 12
    a1ae:	17e907        	bbsi	a9, 0, 0xa1c9
    a1b1:	0020c0        	memw
    a1b4:	9c6232        	s32i	a3, a2, 0x270
    a1b7:	0020c0        	memw
    a1ba:	8586b1        	l32r	a11, 0xfffeb7d4
    a1bd:	9422a2        	l32i	a10, a2, 0x250
    a1c0:	20aab0        	or	a10, a10, a11
    a1c3:	0020c0        	memw
    a1c6:	9462a2        	s32i	a10, a2, 0x250
    a1c9:	f01d      	excw
    a1cb:	413600        	srli	a3, a0, 6
    a1ce:	882100        	excw
    a1d1:	873185        	call0	0xfff914ec
    a1d4:	858185        	call0	0xfff8f9f0
    a1d7:	234285        	call0	0x2d600
    a1da:	084923        	excw
    a1dd:	236322        	s32i	a2, a3, 140
    a1e0:	f01d      	excw
    a1e2:	360000        	excw
    a1e5:	810041        	l32r	a4, 0xfffea5e8
    a1e8:	8884e0        	excw
    a1eb:	9728      	l32i.n	a2, a7, 36
    a1ed:	0968      	l32i.n	a6, a9, 0
    a1ef:	858981        	l32r	a8, 0xfffeb814
    a1f2:	0888      	l32i.n	a8, a8, 0
    a1f4:	02ad      	mov.n	a10, a2
    a1f6:	0008e0        	excw
    a1f9:	f01d      	excw
    a1fb:	413600        	srli	a3, a0, 6
    a1fe:	8b2100        	excw
    a201:	8a3185        	call0	0xfff9451c
    a204:	898185        	call0	0xfff93a20
    a207:	034885        	call0	0xd690
    a20a:	0849      	s32i.n	a4, a8, 0
    a20c:	0329      	s32i.n	a2, a3, 0
    a20e:	f01d      	excw
    a210:	004136        	excw
    a213:	3a1266        	bnei	a2, 1, 0xa251
    a216:	840ff1        	l32r	a15, 0xfffeb254
    a219:	0a03e2        	l8ui	a14, a3, 10
    a21c:	858c81        	l32r	a8, 0xfffeb84c
    a21f:	ee3a      	add.n	a14, a14, a3
    a221:	0d0eb2        	l8ui	a11, a14, 13
    a224:	0c0ea2        	l8ui	a10, a14, 12
    a227:	11bb80        	slli	a11, a11, 8
    a22a:	aaba      	add.n	a10, a10, a11
    a22c:	f4a0a0        	extui	a10, a10, 0, 16
    a22f:	2c1a87        	beq	a10, a8, 0xa25f
    a232:	858d81        	l32r	a8, 0xfffeb868
    a235:	858e91        	l32r	a9, 0xfffeb870
    a238:	231a87        	beq	a10, a8, 0xa25f
    a23b:	201a97        	beq	a10, a9, 0xa25f
    a23e:	858fb1        	l32r	a11, 0xfffeb87c
    a241:	1a1ab7        	beq	a10, a11, 0xa25f
    a244:	03cd      	mov.n	a12, a3
    a246:	3a0c      	movi.n	a10, 3
    a248:	8f88      	l32i.n	a8, a15, 32
    a24a:	0b2c      	movi.n	a11, 32
    a24c:	0008e0        	excw
    a24f:	f01d      	excw
    a251:	859081        	l32r	a8, 0xfffeb894
    a254:	02ad      	mov.n	a10, a2
    a256:	0888      	l32i.n	a8, a8, 0
    a258:	03bd      	mov.n	a11, a3
    a25a:	0008e0        	excw
    a25d:	f01d      	excw
    a25f:	cecb      	addi.n	a12, a14, 12
    a261:	3a0c      	movi.n	a10, 3
    a263:	8591b1        	l32r	a11, 0xfffeb8a8
    a266:	7f88      	l32i.n	a8, a15, 28
    a268:	0213d2        	l16ui	a13, a3, 4
    a26b:	0008e0        	excw
    a26e:	859281        	l32r	a8, 0xfffeb8b8
    a271:	4a2882        	l32i	a8, a8, 0x128
    a274:	03ad      	mov.n	a10, a3
    a276:	0008e0        	excw
    a279:	f01d      	excw
    a27b:	413600        	srli	a3, a0, 6
    a27e:	993100        	excw
    a281:	0f4184        	excw
    a284:	9ab184        	excw
    a287:	918184        	excw
    a28a:	12a285        	call0	0x1ccb4
    a28d:	935103        	excw
    a290:	9a8785        	call0	0xfffa4b0c
    a293:	912c      	movi.n	a1, 41
    a295:	858c      	beqz.n	a5, 0xa2a1
    a297:	0d02c2        	l8ui	a12, a2, 13
    a29a:	0c02a2        	l8ui	a10, a2, 12
    a29d:	11cc80        	slli	a12, a12, 8
    a2a0:	aaca      	add.n	a10, a10, a12
    a2a2:	f4a0a0        	extui	a10, a10, 0, 16
    a2a5:	499a97        	bne	a10, a9, 0xa2f2
    a2a8:	a12bd2        	l32i	a13, a11, 0x284
    a2ab:	fecdd2        	addi	a13, a13, -2
    a2ae:	0c0d56        	bnez	a13, 0xa372
    a2b1:	841981        	l32r	a8, 0xfffeb318
    a2b4:	0a0c      	movi.n	a10, 0
    a2b6:	122882        	l32i	a8, a8, 72
    a2b9:	0b0c      	movi.n	a11, 0
    a2bb:	0008e0        	excw
    a2be:	002c06        	j	0xa372
    a2c1:	20a292        	movi	a9, 0x220
    a2c4:	1e9a97        	bne	a10, a9, 0xa2e6
    a2c7:	a22ba2        	l32i	a10, a11, 0x288
    a2ca:	0003b2        	l8ui	a11, a3, 0
    a2cd:	ca8c      	beqz.n	a10, 0xa2dd
    a2cf:	0a1b66        	bnei	a11, 1, 0xa2dd
    a2d2:	432582        	l32i	a8, a5, 0x10c
    a2d5:	1a0c      	movi.n	a10, 1
    a2d7:	0008e0        	excw
    a2da:	015aa5        	excw
    a2dd:	5488      	l32i.n	a8, a4, 20
    a2df:	02ad      	mov.n	a10, a2
    a2e1:	0008e0        	excw
    a2e4:	f01d      	excw
    a2e6:	859081        	l32r	a8, 0xfffeb928
    a2e9:	1888      	l32i.n	a8, a8, 4
    a2eb:	02ad      	mov.n	a10, a2
    a2ed:	0008e0        	excw
    a2f0:	f01d      	excw
    a2f2:	8424c1        	l32r	a12, 0xfffeb384
    a2f5:	845f61        	l32r	a6, 0xfffeb474
    a2f8:	858d91        	l32r	a9, 0xfffeb92c
    a2fb:	170c      	movi.n	a7, 1
    a2fd:	239a97        	bne	a10, a9, 0xa324
    a300:	0a0252        	l8ui	a5, a2, 10
    a303:	412c82        	l32i	a8, a12, 0x104
    a306:	552a      	add.n	a5, a5, a2
    a308:	55fb      	addi.n	a5, a5, 15
    a30a:	0008e0        	excw
    a30d:	aa8c      	beqz.n	a10, 0xa31b
    a30f:	858281        	l32r	a8, 0xfffeb918
    a312:	172882        	l32i	a8, a8, 92
    a315:	0005a2        	l8ui	a10, a5, 0
    a318:	0008e0        	excw
    a31b:	554672        	s8i	a7, a6, 85
    a31e:	004372        	s8i	a7, a3, 0
    a321:	001346        	j	0xa372
    a324:	858e91        	l32r	a9, 0xfffeb95c
    a327:	239a97        	bne	a10, a9, 0xa34e
    a32a:	412c82        	l32i	a8, a12, 0x104
    a32d:	0008e0        	excw
    a330:	7a8c      	beqz.n	a10, 0xa33b
    a332:	858281        	l32r	a8, 0xfffeb93c
    a335:	182882        	l32i	a8, a8, 96
    a338:	0008e0        	excw
    a33b:	1a0c      	movi.n	a10, 1
    a33d:	432582        	l32i	a8, a5, 0x10c
    a340:	090c      	movi.n	a9, 0
    a342:	554692        	s8i	a9, a6, 85
    a345:	004392        	s8i	a9, a3, 0
    a348:	0008e0        	excw
    a34b:	0008c6        	j	0xa372
    a34e:	858fc1        	l32r	a12, 0xfffeb98c
    a351:	1d9ac7        	bne	a10, a12, 0xa372
    a354:	7588      	l32i.n	a8, a5, 28
    a356:	fedba2        	addmi	a10, a11, 0xfffffe00
    a359:	0008e0        	excw
    a35c:	858fa1        	l32r	a10, 0xfffeb998
    a35f:	842581        	l32r	a8, 0xfffeb3f4
    a362:	0b0c      	movi.n	a11, 0
    a364:	142882        	l32i	a8, a8, 80
    a367:	1c0c      	movi.n	a12, 1
    a369:	0008e0        	excw
    a36c:	859291        	l32r	a9, 0xfffeb9b4
    a36f:	176972        	s32i	a7, a9, 92
    a372:	5488      	l32i.n	a8, a4, 20
    a374:	02ad      	mov.n	a10, a2
    a376:	0008e0        	excw
    a379:	f01d      	excw
    a37b:	413600        	srli	a3, a0, 6
    a37e:	0a0c00        	excw
    a381:	853ed1        	l32r	a13, 0xfffeb87c
    a384:	0aa082        	movi	a8, 10
    a387:	0402c2        	l8ui	a12, a2, 4
    a38a:	0302b2        	l8ui	a11, a2, 3
    a38d:	11cc80        	slli	a12, a12, 8
    a390:	80bbc0        	add	a11, a11, a12
    a393:	f4b0b0        	extui	a11, a11, 0, 16
    a396:	8594c1        	l32r	a12, 0xfffeb9e8
    a399:	1ea876        	excw
    a39c:	902aa0        	addx2	a2, a10, a10
    a39f:	1122a0        	slli	a2, a2, 6
    a3a2:	e2ca      	add.n	a14, a2, a12
    a3a4:	7f1ee2        	l16ui	a14, a14, 254
    a3a7:	22da      	add.n	a2, a2, a13
    a3a9:	099eb7        	bne	a14, a11, 0xa3b6
    a3ac:	233a00        	excw
    a3af:	0d0366        	bnei	a3, -1, 0xa3c0
    a3b2:	220c      	movi.n	a2, 2
    a3b4:	f01d      	excw
    a3b6:	aa1b      	addi.n	a10, a10, 1
    a3b8:	74a0a0        	extui	a10, a10, 0, 8
    a3bb:	f37c      	movi.n	a3, -1
    a3bd:	fffb86        	j	0xa3af
    a3c0:	0102b2        	l8ui	a11, a2, 1
    a3c3:	3d4b66        	bnei	a11, 4, 0xa404
    a3c6:	0d73e6        	bgei	a3, 7, 0xa3d7
    a3c9:	842981        	l32r	a8, 0xfffeb470
    a3cc:	0002a2        	l8ui	a10, a2, 0
    a3cf:	452882        	l32i	a8, a8, 0x114
    a3d2:	1b0c      	movi.n	a11, 1
    a3d4:	0008e0        	excw
    a3d7:	fea3a2        	movi	a10, 0x3fe
    a3da:	0b0c      	movi.n	a11, 0
    a3dc:	2c0c      	movi.n	a12, 2
    a3de:	851981        	l32r	a8, 0xfffeb844
    a3e1:	0002d2        	l8ui	a13, a2, 0
    a3e4:	112882        	l32i	a8, a8, 68
    a3e7:	2e0c      	movi.n	a14, 2
    a3e9:	0008e0        	excw
    a3ec:	03bd      	mov.n	a11, a3
    a3ee:	d24b      	addi.n	a13, a2, 4
    a3f0:	4a0c      	movi.n	a10, 4
    a3f2:	849681        	l32r	a8, 0xfffeb64c
    a3f5:	8514c1        	l32r	a12, 0xfffeb848
    a3f8:	1e2882        	l32i	a8, a8, 120
    a3fb:	4e0c      	movi.n	a14, 4
    a3fd:	0008e0        	excw
    a400:	020c      	movi.n	a2, 0
    a402:	f01d      	excw
    a404:	c20c      	movi.n	a2, 12
    a406:	f01d      	excw
    a408:	004136        	excw
    a40b:	845821        	l32r	a2, 0xfffeb56c
    a40e:	180c      	movi.n	a8, 1
    a410:	0228      	l32i.n	a2, a2, 0
    a412:	84c041        	l32r	a4, 0xfffeb714
    a415:	3c2222        	l32i	a2, a2, 240
    a418:	2c1432        	l16ui	a3, a4, 88
    a41b:	076217        	bbci	a2, 1, 0xa426
    a41e:	203380        	or	a3, a3, a8
    a421:	2c5432        	s16i	a3, a4, 88
    a424:	f01d      	excw
    a426:	842e91        	l32r	a9, 0xfffeb4e0
    a429:	103390        	and	a3, a3, a9
    a42c:	fffc46        	j	0xa421
    a42f:	413600        	srli	a3, a0, 6
    a432:	02a200        	excw
    a435:	dee500        	excw
    a438:	0cfd      	mov.n	a15, a12
    a43a:	f01d02        	l16ui	a0, a13, 0x1e0
    a43d:	000000        	ill
    a440:	048136        	excw
    a443:	240c      	movi.n	a4, 2
    a445:	842571        	l32r	a7, 0xfffeb4dc
    a448:	8458f1        	l32r	a15, 0xfffeb5a8
    a44b:	859581        	l32r	a8, 0xfffebaa0
    a44e:	026d      	mov.n	a6, a2
    a450:	0b0c      	movi.n	a11, 0
    a452:	0051b2        	s16i	a11, a1, 0
    a455:	0a06e2        	l8ui	a14, a6, 10
    a458:	859221        	l32r	a2, 0xfffebaa0
    a45b:	ee6a      	add.n	a14, a14, a6
    a45d:	5efb      	addi.n	a5, a14, 15
    a45f:	0d0e92        	l8ui	a9, a14, 13
    a462:	0c0e32        	l8ui	a3, a14, 12
    a465:	119980        	slli	a9, a9, 8
    a468:	339a      	add.n	a3, a3, a9
    a46a:	f43030        	extui	a3, a3, 0, 16
    a46d:	c08380        	sub	a8, a3, a8
    a470:	0f1816        	beqz	a8, 0xa565
    a473:	859681        	l32r	a8, 0xfffebacc
    a476:	859791        	l32r	a9, 0xfffebad4
    a479:	c08380        	sub	a8, a3, a8
    a47c:	11f816        	beqz	a8, 0xa59f
    a47f:	c09390        	sub	a9, a3, a9
    a482:	16b916        	beqz	a9, 0xa5f1
    a485:	8598a1        	l32r	a10, 0xfffebae8
    a488:	8599c1        	l32r	a12, 0xfffebaec
    a48b:	c0a3a0        	sub	a10, a3, a10
    a48e:	17fa16        	beqz	a10, 0xa611
    a491:	c0c3c0        	sub	a12, a3, a12
    a494:	12fc16        	beqz	a12, 0xa5c7
    a497:	859ad1        	l32r	a13, 0xfffebb00
    a49a:	859be1        	l32r	a14, 0xfffebb08
    a49d:	c0d3d0        	sub	a13, a3, a13
    a4a0:	0ecd16        	beqz	a13, 0xa590
    a4a3:	c0e3e0        	sub	a14, a3, a14
    a4a6:	0b4e16        	beqz	a14, 0xa55e
    a4a9:	859cf1        	l32r	a15, 0xfffebb1c
    a4ac:	0293f7        	bne	a3, a15, 0xa4b2
    a4af:	0020c6        	j	0xa536
    a4b2:	859081        	l32r	a8, 0xfffebaf4
    a4b5:	2888      	l32i.n	a8, a8, 8
    a4b7:	06ad      	mov.n	a10, a6
    a4b9:	0008e0        	excw
    a4bc:	0a2d      	mov.n	a2, a10
    a4be:	f01d      	excw
    a4c0:	03ad      	mov.n	a10, a3
    a4c2:	74b020        	extui	a11, a2, 0, 8
    a4c5:	0001c2        	l8ui	a12, a1, 0
    a4c8:	859281        	l32r	a8, 0xfffebb10
    a4cb:	10c1d2        	addi	a13, a1, 16
    a4ce:	512882        	l32i	a8, a8, 0x144
    a4d1:	0e0c      	movi.n	a14, 0
    a4d3:	0008e0        	excw
    a4d6:	859d91        	l32r	a9, 0xfffebb4c
    a4d9:	079c      	beqz.n	a7, 0xa4ed
    a4db:	10c1b2        	addi	a11, a1, 16
    a4de:	0011c2        	l16ui	a12, a1, 0
    a4e1:	02d1a2        	addmi	a10, a1, 0x200
    a4e4:	492982        	l32i	a8, a9, 0x124
    a4e7:	100aa2        	l8ui	a10, a10, 16
    a4ea:	0008e0        	excw
    a4ed:	94ac      	beqz.n	a4, 0xa51a
    a4ef:	72ec      	bnez.n	a2, 0xa51a
    a4f1:	0011d2        	l16ui	a13, a1, 0
    a4f4:	2dac      	beqz.n	a13, 0xa51a
    a4f6:	859eb1        	l32r	a11, 0xfffebb70
    a4f9:	c0b3b0        	sub	a11, a3, a11
    a4fc:	163b16        	beqz	a11, 0xa663
    a4ff:	859fc1        	l32r	a12, 0xfffebb7c
    a502:	c0c3c0        	sub	a12, a3, a12
    a505:	12dc16        	beqz	a12, 0xa636
    a508:	85a0e1        	l32r	a14, 0xfffebb88
    a50b:	c0e3e0        	sub	a14, a3, a14
    a50e:	165e16        	beqz	a14, 0xa677
    a511:	85a1f1        	l32r	a15, 0xfffebb98
    a514:	c0f3f0        	sub	a15, a3, a15
    a517:	134f16        	beqz	a15, 0xa64f
    a51a:	85a281        	l32r	a8, 0xfffebba4
    a51d:	089387        	bne	a3, a8, 0xa529
    a520:	859d81        	l32r	a8, 0xfffebb94
    a523:	4b2882        	l32i	a8, a8, 0x12c
    a526:	0008e0        	excw
    a529:	859281        	l32r	a8, 0xfffebb74
    a52c:	4a2882        	l32i	a8, a8, 0x128
    a52f:	06ad      	mov.n	a10, a6
    a531:	0008e0        	excw
    a534:	f01d      	excw
    a536:	05ad      	mov.n	a10, a5
    a538:	ffef65        	excw
    a53b:	0a2d      	mov.n	a2, a10
    a53d:	140c      	movi.n	a4, 1
    a53f:	070c      	movi.n	a7, 0
    a541:	14cc      	bnez.n	a4, 0xa546
    a543:	f79716        	beqz	a7, 0xa4c0
    a546:	03ad      	mov.n	a10, a3
    a548:	74b020        	extui	a11, a2, 0, 8
    a54b:	0c0c      	movi.n	a12, 0
    a54d:	859281        	l32r	a8, 0xfffebb98
    a550:	10c1d2        	addi	a13, a1, 16
    a553:	512882        	l32i	a8, a8, 0x144
    a556:	0e0c      	movi.n	a14, 0
    a558:	0008e0        	excw
    a55b:	ffddc6        	j	0xa4d6
    a55e:	020c      	movi.n	a2, 0
    a560:	0b4d      	mov.n	a4, a11
    a562:	fff646        	j	0xa53f
    a565:	05ad      	mov.n	a10, a5
    a567:	10c1c2        	addi	a12, a1, 16
    a56a:	0fb8      	l32i.n	a11, a15, 0
    a56c:	01dd      	mov.n	a13, a1
    a56e:	3c2b92        	l32i	a9, a11, 240
    a571:	7c2782        	l32i	a8, a7, 0x1f0
    a574:	209940        	or	a9, a9, a4
    a577:	3c6b92        	s32i	a9, a11, 240
    a57a:	0e0eb2        	l8ui	a11, a14, 14
    a57d:	0008e0        	excw
    a580:	040c      	movi.n	a4, 0
    a582:	170c      	movi.n	a7, 1
    a584:	02d1b2        	addmi	a11, a1, 0x200
    a587:	61a0a2        	movi	a10, 97
    a58a:	104ba2        	s8i	a10, a11, 16
    a58d:	000246        	j	0xa59a
    a590:	85a3a1        	l32r	a10, 0xfffebc1c
    a593:	ad2825        	excw
    a596:	040c      	movi.n	a4, 0
    a598:	070c      	movi.n	a7, 0
    a59a:	020c      	movi.n	a2, 0
    a59c:	ffe846        	j	0xa541
    a59f:	05ad      	mov.n	a10, a5
    a5a1:	10c1b2        	addi	a11, a1, 16
    a5a4:	0fd8      	l32i.n	a13, a15, 0
    a5a6:	01cd      	mov.n	a12, a1
    a5a8:	3c2d92        	l32i	a9, a13, 240
    a5ab:	7d2782        	l32i	a8, a7, 0x1f4
    a5ae:	209940        	or	a9, a9, a4
    a5b1:	3c6d92        	s32i	a9, a13, 240
    a5b4:	0008e0        	excw
    a5b7:	0a2d      	mov.n	a2, a10
    a5b9:	040c      	movi.n	a4, 0
    a5bb:	02d1c2        	addmi	a12, a1, 0x200
    a5be:	62a0b2        	movi	a11, 98
    a5c1:	104cb2        	s8i	a11, a12, 16
    a5c4:	000906        	j	0xa5ec
    a5c7:	05ad      	mov.n	a10, a5
    a5c9:	10c1b2        	addi	a11, a1, 16
    a5cc:	0fd8      	l32i.n	a13, a15, 0
    a5ce:	01cd      	mov.n	a12, a1
    a5d0:	3c2d92        	l32i	a9, a13, 240
    a5d3:	7e2782        	l32i	a8, a7, 0x1f8
    a5d6:	209940        	or	a9, a9, a4
    a5d9:	3c6d92        	s32i	a9, a13, 240
    a5dc:	0008e0        	excw
    a5df:	040c      	movi.n	a4, 0
    a5e1:	02d1b2        	addmi	a11, a1, 0x200
    a5e4:	0a2d      	mov.n	a2, a10
    a5e6:	91a0a2        	movi	a10, 145
    a5e9:	104ba2        	s8i	a10, a11, 16
    a5ec:	170c      	movi.n	a7, 1
    a5ee:	ffd3c6        	j	0xa541
    a5f1:	0e0ea2        	l8ui	a10, a14, 14
    a5f4:	05bd      	mov.n	a11, a5
    a5f6:	10c1c2        	addi	a12, a1, 16
    a5f9:	852782        	l32i	a8, a7, 0x214
    a5fc:	01dd      	mov.n	a13, a1
    a5fe:	0008e0        	excw
    a601:	0a2d      	mov.n	a2, a10
    a603:	140c      	movi.n	a4, 1
    a605:	02d1b2        	addmi	a11, a1, 0x200
    a608:	92a092        	movi	a9, 146
    a60b:	104b92        	s8i	a9, a11, 16
    a60e:	fff686        	j	0xa5ec
    a611:	05ad      	mov.n	a10, a5
    a613:	ffd6a5        	excw
    a616:	0c0c      	movi.n	a12, 0
    a618:	10c1d2        	addi	a13, a1, 16
    a61b:	0e0c      	movi.n	a14, 0
    a61d:	0a4d      	mov.n	a4, a10
    a61f:	512282        	l32i	a8, a2, 0x144
    a622:	03ad      	mov.n	a10, a3
    a624:	74b040        	extui	a11, a4, 0, 8
    a627:	0008e0        	excw
    a62a:	4a2282        	l32i	a8, a2, 0x128
    a62d:	06ad      	mov.n	a10, a6
    a62f:	0008e0        	excw
    a632:	042d      	mov.n	a2, a4
    a634:	f01d      	excw
    a636:	000592        	l8ui	a9, a5, 0
    a639:	29dc      	bnez.n	a9, 0xa64f
    a63b:	0505a2        	l8ui	a10, a5, 5
    a63e:	842581        	l32r	a8, 0xfffeb6d4
    a641:	10c1b2        	addi	a11, a1, 16
    a644:	882882        	l32i	a8, a8, 0x220
    a647:	3c0c      	movi.n	a12, 3
    a649:	0008e0        	excw
    a64c:	ffb286        	j	0xa51a
    a64f:	74a0d0        	extui	a10, a13, 0, 8
    a652:	842581        	l32r	a8, 0xfffeb6e8
    a655:	10c1b2        	addi	a11, a1, 16
    a658:	882882        	l32i	a8, a8, 0x220
    a65b:	bc0c      	movi.n	a12, 11
    a65d:	0008e0        	excw
    a660:	ffad86        	j	0xa51a
    a663:	74a0d0        	extui	a10, a13, 0, 8
    a666:	842581        	l32r	a8, 0xfffeb6fc
    a669:	10c1b2        	addi	a11, a1, 16
    a66c:	882882        	l32i	a8, a8, 0x220
    a66f:	2c0c      	movi.n	a12, 2
    a671:	0008e0        	excw
    a674:	ffa886        	j	0xa51a
    a677:	74a0d0        	extui	a10, a13, 0, 8
    a67a:	842581        	l32r	a8, 0xfffeb710
    a67d:	10c1b2        	addi	a11, a1, 16
    a680:	882882        	l32i	a8, a8, 0x220
    a683:	5c0c      	movi.n	a12, 5
    a685:	0008e0        	excw
    a688:	ffa386        	j	0xa51a
    a68b:	413600        	srli	a3, a0, 6
    a68e:	926100        	excw
    a691:	268285        	call0	0x30ebc
    a694:	7a0c31        	l32r	a3, 0xfffe8ec4
    a697:	0008e0        	excw
    a69a:	0a7d      	mov.n	a7, a10
    a69c:	312682        	l32i	a8, a6, 196
    a69f:	7a0c      	movi.n	a10, 7
    a6a1:	0008e0        	excw
    a6a4:	0a5d      	mov.n	a5, a10
    a6a6:	322682        	l32i	a8, a6, 200
    a6a9:	7a0c      	movi.n	a10, 7
    a6ab:	0008e0        	excw
    a6ae:	85a491        	l32r	a9, 0xfffebd40
    a6b1:	b45a      	add.n	a11, a4, a5
    a6b3:	aaba      	add.n	a10, a10, a11
    a6b5:	611992        	l16ui	a9, a9, 194
    a6b8:	aa3b      	addi.n	a10, a10, 3
    a6ba:	f4a0a0        	extui	a10, a10, 0, 16
    a6bd:	07b9a7        	bgeu	a9, a10, 0xa6c8
    a6c0:	85a3a1        	l32r	a10, 0xfffebd4c
    a6c3:	0b0c      	movi.n	a11, 0
    a6c5:	ad14e5        	excw
    a6c8:	747a      	add.n	a7, a4, a7
    a6ca:	842581        	l32r	a8, 0xfffeb760
    a6cd:	773b      	addi.n	a7, a7, 3
    a6cf:	8888      	l32i.n	a8, a8, 32
    a6d1:	f4a070        	extui	a10, a7, 0, 16
    a6d4:	0008e0        	excw
    a6d7:	0a5d      	mov.n	a5, a10
    a6d9:	8acc      	bnez.n	a10, 0xa6e5
    a6db:	85a3a1        	l32r	a10, 0xfffebd68
    a6de:	0b0c      	movi.n	a11, 0
    a6e0:	ad1325        	excw
    a6e3:	f01d      	excw
    a6e5:	841b      	addi.n	a8, a4, 1
    a6e7:	0a0ad2        	l8ui	a13, a10, 10
    a6ea:	ffa092        	movi	a9, 255
    a6ed:	ddaa      	add.n	a13, a13, a10
    a6ef:	0e4d22        	s8i	a2, a13, 14
    a6f2:	0c4d92        	s8i	a9, a13, 12
    a6f5:	0d4d82        	s8i	a8, a13, 13
    a6f8:	738c      	beqz.n	a3, 0xa703
    a6fa:	03bd      	mov.n	a11, a3
    a6fc:	04cd      	mov.n	a12, a4
    a6fe:	adfb      	addi.n	a10, a13, 15
    a700:	013c25        	excw
    a703:	840721        	l32r	a2, 0xfffeb720
    a706:	025572        	s16i	a7, a5, 4
    a709:	d288      	l32i.n	a8, a2, 52
    a70b:	7a0c      	movi.n	a10, 7
    a70d:	0008e0        	excw
    a710:	0abd      	mov.n	a11, a10
    a712:	9288      	l32i.n	a8, a2, 36
    a714:	05ad      	mov.n	a10, a5
    a716:	0008e0        	excw
    a719:	402682        	l32i	a8, a6, 0x100
    a71c:	05ad      	mov.n	a10, a5
    a71e:	0008e0        	excw
    a721:	f01d      	excw
    a723:	413600        	srli	a3, a0, 6
    a726:	925100        	excw
    a729:	258285        	call0	0x2ff54
    a72c:	7a0c31        	l32r	a3, 0xfffe8f5c
    a72f:	0008e0        	excw
    a732:	849a91        	l32r	a9, 0xfffeb99c
    a735:	a22992        	l32i	a9, a9, 0x288
    a738:	0a4d      	mov.n	a4, a10
    a73a:	082956        	bnez	a9, 0xa7c0
    a73d:	312582        	l32i	a8, a5, 196
    a740:	7a0c      	movi.n	a10, 7
    a742:	0008e0        	excw
    a745:	0a6d      	mov.n	a6, a10
    a747:	322582        	l32i	a8, a5, 200
    a74a:	7a0c      	movi.n	a10, 7
    a74c:	0008e0        	excw
    a74f:	85a491        	l32r	a9, 0xfffebde0
    a752:	74b030        	extui	a11, a3, 0, 8
    a755:	b6ba      	add.n	a11, a6, a11
    a757:	5f1992        	l16ui	a9, a9, 190
    a75a:	aaba      	add.n	a10, a10, a11
    a75c:	aa2b      	addi.n	a10, a10, 2
    a75e:	f4a0a0        	extui	a10, a10, 0, 16
    a761:	07b9a7        	bgeu	a9, a10, 0xa76c
    a764:	85a3a1        	l32r	a10, 0xfffebdf0
    a767:	0b0c      	movi.n	a11, 0
    a769:	ad0aa5        	excw
    a76c:	434a      	add.n	a4, a3, a4
    a76e:	842581        	l32r	a8, 0xfffeb804
    a771:	442b      	addi.n	a4, a4, 2
    a773:	8888      	l32i.n	a8, a8, 32
    a775:	f4a040        	extui	a10, a4, 0, 16
    a778:	0008e0        	excw
    a77b:	0a6d      	mov.n	a6, a10
    a77d:	8acc      	bnez.n	a10, 0xa789
    a77f:	85a3a1        	l32r	a10, 0xfffebe0c
    a782:	0b0c      	movi.n	a11, 0
    a784:	ad08e5        	excw
    a787:	f01d      	excw
    a789:	0a0ad2        	l8ui	a13, a10, 10
    a78c:	ffa082        	movi	a8, 255
    a78f:	ddaa      	add.n	a13, a13, a10
    a791:	0c4d82        	s8i	a8, a13, 12
    a794:	0d4d32        	s8i	a3, a13, 13
    a797:	728c      	beqz.n	a2, 0xa7a2
    a799:	02bd      	mov.n	a11, a2
    a79b:	03cd      	mov.n	a12, a3
    a79d:	adeb      	addi.n	a10, a13, 14
    a79f:	013265        	excw
    a7a2:	840721        	l32r	a2, 0xfffeb7c0
    a7a5:	025642        	s16i	a4, a6, 4
    a7a8:	d288      	l32i.n	a8, a2, 52
    a7aa:	7a0c      	movi.n	a10, 7
    a7ac:	0008e0        	excw
    a7af:	0abd      	mov.n	a11, a10
    a7b1:	9288      	l32i.n	a8, a2, 36
    a7b3:	06ad      	mov.n	a10, a6
    a7b5:	0008e0        	excw
    a7b8:	402582        	l32i	a8, a5, 0x100
    a7bb:	06ad      	mov.n	a10, a6
    a7bd:	0008e0        	excw
    a7c0:	f01d      	excw
    a7c2:	360000        	excw
    a7c5:	810041        	l32r	a4, 0xfffeabc8
    a7c8:	828592        	excw
    a7cb:	3128      	l32i.n	a2, a1, 12
    a7cd:	7a0c      	movi.n	a10, 7
    a7cf:	0008e0        	excw
    a7d2:	842581        	l32r	a8, 0xfffeb868
    a7d5:	4a3b      	addi.n	a4, a10, 3
    a7d7:	8888      	l32i.n	a8, a8, 32
    a7d9:	f4a040        	extui	a10, a4, 0, 16
    a7dc:	0008e0        	excw
    a7df:	0a3d      	mov.n	a3, a10
    a7e1:	042a16        	beqz	a10, 0xa827
    a7e4:	845891        	l32r	a9, 0xfffeb944
    a7e7:	1b0c      	movi.n	a11, 1
    a7e9:	0a0aa2        	l8ui	a10, a10, 10
    a7ec:	0c1c      	movi.n	a12, 16
    a7ee:	aa3a      	add.n	a10, a10, a3
    a7f0:	0c4ac2        	s8i	a12, a10, 12
    a7f3:	0d4ab2        	s8i	a11, a10, 13
    a7f6:	0e4a22        	s8i	a2, a10, 14
    a7f9:	0998      	l32i.n	a9, a9, 0
    a7fb:	85a5a1        	l32r	a10, 0xfffebe90
    a7fe:	e998      	l32i.n	a9, a9, 56
    a800:	025342        	s16i	a4, a3, 4
    a803:	1299a7        	bne	a9, a10, 0xa819
    a806:	840721        	l32r	a2, 0xfffeb824
    a809:	d288      	l32i.n	a8, a2, 52
    a80b:	7a0c      	movi.n	a10, 7
    a80d:	0008e0        	excw
    a810:	0abd      	mov.n	a11, a10
    a812:	9288      	l32i.n	a8, a2, 36
    a814:	03ad      	mov.n	a10, a3
    a816:	0008e0        	excw
    a819:	03cd      	mov.n	a12, a3
    a81b:	840f81        	l32r	a8, 0xfffeb858
    a81e:	3a0c      	movi.n	a10, 3
    a820:	8888      	l32i.n	a8, a8, 32
    a822:	5b1c      	movi.n	a11, 21
    a824:	0008e0        	excw
    a827:	f01d      	excw
    a829:	000000        	ill
    a82c:	004136        	excw
    a82f:	02ad      	mov.n	a10, a2
    a831:	fff925        	excw
    a834:	f01d      	excw
    a836:	360000        	excw
    a839:	510061        	l32r	a6, 0xfffdec3c
    a83c:	828592        	excw
    a83f:	0c3125        	excw
    a842:	e07a      	add.n	a14, a0, a7
    a844:	0008      	l32i.n	a0, a0, 0
    a846:	0a6256        	bnez	a2, 0xa8f0
    a849:	842581        	l32r	a8, 0xfffeb8e0
    a84c:	3c0c      	movi.n	a12, 3
    a84e:	250c      	movi.n	a5, 2
    a850:	935c40        	movnez	a5, a12, a4
    a853:	8888      	l32i.n	a8, a8, 32
    a855:	aa5a      	add.n	a10, a10, a5
    a857:	aa2b      	addi.n	a10, a10, 2
    a859:	01a9      	s32i.n	a10, a1, 0
    a85b:	f4a0a0        	extui	a10, a10, 0, 16
    a85e:	0008e0        	excw
    a861:	0a6d      	mov.n	a6, a10
    a863:	8458d1        	l32r	a13, 0xfffeb9c4
    a866:	0a0ae2        	l8ui	a14, a10, 10
    a869:	ef0c      	movi.n	a15, 14
    a86b:	eeaa      	add.n	a14, a14, a10
    a86d:	0c4ef2        	s8i	a15, a14, 12
    a870:	0d4e52        	s8i	a5, a14, 13
    a873:	0dd8      	l32i.n	a13, a13, 0
    a875:	85a571        	l32r	a7, 0xfffebf0c
    a878:	edd8      	l32i.n	a13, a13, 56
    a87a:	5ecb      	addi.n	a5, a14, 12
    a87c:	0b9d77        	bne	a13, a7, 0xa88b
    a87f:	842581        	l32r	a8, 0xfffeb914
    a882:	262882        	l32i	a8, a8, 152
    a885:	0008e0        	excw
    a888:	081a16        	beqz	a10, 0xa90d
    a88b:	190c      	movi.n	a9, 1
    a88d:	024592        	s8i	a9, a5, 2
    a890:	41a820        	srli	a10, a2, 8
    a893:	034522        	s8i	a2, a5, 3
    a896:	0445a2        	s8i	a10, a5, 4
    a899:	555b      	addi.n	a5, a5, 5
    a89b:	348c      	beqz.n	a4, 0xa8a2
    a89d:	004532        	s8i	a3, a5, 0
    a8a0:	551b      	addi.n	a5, a5, 1
    a8a2:	7a0c      	movi.n	a10, 7
    a8a4:	859231        	l32r	a3, 0xfffebeec
    a8a7:	0198      	l32i.n	a9, a1, 0
    a8a9:	312382        	l32i	a8, a3, 196
    a8ac:	025692        	s16i	a9, a6, 4
    a8af:	0008e0        	excw
    a8b2:	845821        	l32r	a2, 0xfffeba14
    a8b5:	0acd      	mov.n	a12, a10
    a8b7:	0b0c      	movi.n	a11, 0
    a8b9:	05ad      	mov.n	a10, a5
    a8bb:	0132a5        	excw
    a8be:	02a8      	l32i.n	a10, a2, 0
    a8c0:	eaa8      	l32i.n	a10, a10, 56
    a8c2:	1c9a77        	bne	a10, a7, 0xa8e2
    a8c5:	840721        	l32r	a2, 0xfffeb8e4
    a8c8:	d288      	l32i.n	a8, a2, 52
    a8ca:	7a0c      	movi.n	a10, 7
    a8cc:	0008e0        	excw
    a8cf:	0abd      	mov.n	a11, a10
    a8d1:	9288      	l32i.n	a8, a2, 36
    a8d3:	06ad      	mov.n	a10, a6
    a8d5:	0008e0        	excw
    a8d8:	845891        	l32r	a9, 0xfffeba38
    a8db:	0998      	l32i.n	a9, a9, 0
    a8dd:	e998      	l32i.n	a9, a9, 56
    a8df:	1d1977        	beq	a9, a7, 0xa900
    a8e2:	85a681        	l32r	a8, 0xfffebf7c
    a8e5:	06bd      	mov.n	a11, a6
    a8e7:	8888      	l32i.n	a8, a8, 32
    a8e9:	4a0c      	movi.n	a10, 4
    a8eb:	0008e0        	excw
    a8ee:	f01d      	excw
    a8f0:	02ad      	mov.n	a10, a2
    a8f2:	859081        	l32r	a8, 0xfffebf34
    a8f5:	03bd      	mov.n	a11, a3
    a8f7:	3888      	l32i.n	a8, a8, 12
    a8f9:	04cd      	mov.n	a12, a4
    a8fb:	0008e0        	excw
    a8fe:	f01d      	excw
    a900:	859281        	l32r	a8, 0xfffebf48
    a903:	402882        	l32i	a8, a8, 0x100
    a906:	06ad      	mov.n	a10, a6
    a908:	0008e0        	excw
    a90b:	f01d      	excw
    a90d:	090c      	movi.n	a9, 0
    a90f:	ffde86        	j	0xa88d
    a912:	360000        	excw
    a915:	810041        	l32r	a4, 0xfffead18
    a918:	888590        	excw
    a91b:	ad48      	l32i.n	a4, a13, 40
    a91d:	08e002        	excw
    a920:	f01d00        	subx8	a1, a13, a0
    a923:	413600        	srli	a3, a0, 6
    a926:	ae2500        	excw
    a929:	ff          	.byte 0xff
    a92a:	02ad      	mov.n	a10, a2
    a92c:	03bd      	mov.n	a11, a3
    a92e:	859081        	l32r	a8, 0xfffebf70
    a931:	04cd      	mov.n	a12, a4
    a933:	5888      	l32i.n	a8, a8, 20
    a935:	05dd      	mov.n	a13, a5
    a937:	0008e0        	excw
    a93a:	0a2d      	mov.n	a2, a10
    a93c:	f01d      	excw
    a93e:	360000        	excw
    a941:	0c0041        	l32r	a4, 0xfffcd944
    a944:	310b      	addi.n	a3, a1, -1
    a946:	a18425        	excw
    a949:	928592        	excw
    a94c:	810a02        	l8ui	a0, a10, 129
    a94f:	8458      	l32i.n	a5, a4, 32
    a951:	992a      	add.n	a9, a9, a2
    a953:	0888      	l32i.n	a8, a8, 0
    a955:	0c0942        	l8ui	a4, a9, 12
    a958:	0d0992        	l8ui	a9, a9, 13
    a95b:	3c2882        	l32i	a8, a8, 240
    a95e:	119980        	slli	a9, a9, 8
    a961:	449a      	add.n	a4, a4, a9
    a963:	f44040        	extui	a4, a4, 0, 16
    a966:	306807        	bbci	a8, 0, 0xa99a
    a969:	85a791        	l32r	a9, 0xfffec008
    a96c:	2a9497        	bne	a4, a9, 0xa99a
    a96f:	166ab2        	s32i	a11, a10, 88
    a972:	272382        	l32i	a8, a3, 156
    a975:	176ab2        	s32i	a11, a10, 92
    a978:	0008e0        	excw
    a97b:	84a091        	l32r	a9, 0xfffebbfc
    a97e:	a00992        	l8ui	a9, a9, 160
    a981:	b98c      	beqz.n	a9, 0xa990
    a983:	859d81        	l32r	a8, 0xfffebff8
    a986:	04ad      	mov.n	a10, a4
    a988:	482882        	l32i	a8, a8, 0x120
    a98b:	02bd      	mov.n	a11, a2
    a98d:	0008e0        	excw
    a990:	862382        	l32i	a8, a3, 0x218
    a993:	02ad      	mov.n	a10, a2
    a995:	0008e0        	excw
    a998:	f01d      	excw
    a99a:	85a891        	l32r	a9, 0xfffec03c
    a99d:	159497        	bne	a4, a9, 0xa9b6
    a9a0:	166ab2        	s32i	a11, a10, 88
    a9a3:	272382        	l32i	a8, a3, 156
    a9a6:	176ab2        	s32i	a11, a10, 92
    a9a9:	0008e0        	excw
    a9ac:	862382        	l32i	a8, a3, 0x218
    a9af:	02ad      	mov.n	a10, a2
    a9b1:	0008e0        	excw
    a9b4:	f01d      	excw
    a9b6:	859081        	l32r	a8, 0xfffebff8
    a9b9:	6888      	l32i.n	a8, a8, 24
    a9bb:	02ad      	mov.n	a10, a2
    a9bd:	0008e0        	excw
    a9c0:	f01d      	excw
    a9c2:	360000        	excw
    a9c5:	ad0061        	l32r	a6, 0xffff5dc8
    a9c8:	03bd01        	l32r	a0, 0xfffcb8bc
    a9cb:	0c1c      	movi.n	a12, 16
    a9cd:	010f65        	excw
    a9d0:	0011a2        	l16ui	a10, a1, 0
    a9d3:	c80c      	movi.n	a8, 12
    a9d5:	318ab6        	bltui	a10, 8, 0xaa0a
    a9d8:	2e38a7        	bltu	a8, a10, 0xaa0a
    a9db:	011192        	l16ui	a9, a1, 2
    a9de:	0401b2        	l8ui	a11, a1, 4
    a9e1:	251966        	bnei	a9, 1, 0xaa0a
    a9e4:	222b66        	bnei	a11, 2, 0xaa0a
    a9e7:	1f8a66        	bnei	a10, 8, 0xaa0a
    a9ea:	0311c2        	l16ui	a12, a1, 6
    a9ed:	194c66        	bnei	a12, 4, 0xaa0a
    a9f0:	0411a2        	l16ui	a10, a1, 8
    a9f3:	153a26        	beqi	a10, 3, 0xaa0c
    a9f6:	fd0c      	movi.n	a13, 15
    a9f8:	101ad7        	beq	a10, a13, 0xaa0c
    a9fb:	1e1c      	movi.n	a14, 17
    a9fd:	0b1ae7        	beq	a10, a14, 0xaa0c
    aa00:	3f1c      	movi.n	a15, 19
    aa02:	061af7        	beq	a10, a15, 0xaa0c
    aa05:	981c      	movi.n	a8, 25
    aa07:	011a87        	beq	a10, a8, 0xaa0c
    aa0a:	f01d      	excw
    aa0c:	859d81        	l32r	a8, 0xfffec080
    aa0f:	02ad      	mov.n	a10, a2
    aa11:	512882        	l32i	a8, a8, 0x144
    aa14:	03bd      	mov.n	a11, a3
    aa16:	0008e0        	excw
    aa19:	f01d      	excw
    aa1b:	613600        	excw
    aa1e:	968100        	excw
    aa21:	a44184        	excw
    aa24:	017d85        	call0	0xc200
    aa27:	5f1442        	l16ui	a4, a4, 190
    aa2a:	097c      	movi.n	a9, -16
    aa2c:	44db      	addi.n	a4, a4, 13
    aa2e:	104490        	and	a4, a4, a9
    aa31:	c04140        	sub	a4, a1, a4
    aa34:	001410        	excw
    aa37:	362882        	l32i	a8, a8, 216
    aa3a:	02ad      	mov.n	a10, a2
    aa3c:	0008e0        	excw
    aa3f:	859d61        	l32r	a6, 0xfffec0b4
    aa42:	0a5d      	mov.n	a5, a10
    aa44:	522682        	l32i	a8, a6, 0x148
    aa47:	03ad      	mov.n	a10, a3
    aa49:	0008e0        	excw
    aa4c:	9b1c      	movi.n	a11, 25
    aa4e:	0b9ab7        	bne	a10, a11, 0xaa5d
    aa51:	849681        	l32r	a8, 0xfffebcac
    aa54:	6d2882        	l32i	a8, a8, 0x1b4
    aa57:	0008e0        	excw
    aa5a:	04ba56        	bnez	a10, 0xaaa9
    aa5d:	05ad      	mov.n	a10, a5
    aa5f:	849c81        	l32r	a8, 0xfffebcd0
    aa62:	86a092        	movi	a9, 134
    aa65:	8e2882        	l32i	a8, a8, 0x238
    aa68:	004492        	s8i	a9, a4, 0
    aa6b:	0008e0        	excw
    aa6e:	151c      	movi.n	a5, 17
    aa70:	5226c2        	l32i	a12, a6, 0x148
    aa73:	9abc      	beqz.n	a10, 0xaab0
    aa75:	03ad      	mov.n	a10, a3
    aa77:	000ce0        	excw
    aa7a:	0c0c      	movi.n	a12, 0
    aa7c:	163a26        	beqi	a10, 3, 0xaa96
    aa7f:	fd0c      	movi.n	a13, 15
    aa81:	4c1ad7        	beq	a10, a13, 0xaad1
    aa84:	231a57        	beq	a10, a5, 0xaaab
    aa87:	3e1c      	movi.n	a14, 19
    aa89:	1e1ae7        	beq	a10, a14, 0xaaab
    aa8c:	e7ca82        	addi	a8, a10, -25
    aa8f:	3f0c      	movi.n	a15, 3
    aa91:	150c      	movi.n	a5, 1
    aa93:	835f80        	moveqz	a5, a15, a8
    aa96:	04ad      	mov.n	a10, a4
    aa98:	014452        	s8i	a5, a4, 1
    aa9b:	0344c2        	s8i	a12, a4, 3
    aa9e:	024422        	s8i	a2, a4, 2
    aaa1:	4a2682        	l32i	a8, a6, 0x128
    aaa4:	4b0c      	movi.n	a11, 4
    aaa6:	0008e0        	excw
    aaa9:	f01d      	excw
    aaab:	550c      	movi.n	a5, 5
    aaad:	fff946        	j	0xaa96
    aab0:	03ad      	mov.n	a10, a3
    aab2:	000ce0        	excw
    aab5:	0c0c      	movi.n	a12, 0
    aab7:	253a26        	beqi	a10, 3, 0xaae0
    aaba:	f90c      	movi.n	a9, 15
    aabc:	251a97        	beq	a10, a9, 0xaae5
    aabf:	131a57        	beq	a10, a5, 0xaad6
    aac2:	3b1c      	movi.n	a11, 19
    aac4:	0e1ab7        	beq	a10, a11, 0xaad6
    aac7:	9d1c      	movi.n	a13, 25
    aac9:	0e1ad7        	beq	a10, a13, 0xaadb
    aacc:	0c5d      	mov.n	a5, a12
    aace:	fff106        	j	0xaa96
    aad1:	950c      	movi.n	a5, 9
    aad3:	ffefc6        	j	0xaa96
    aad6:	450c      	movi.n	a5, 4
    aad8:	ffee86        	j	0xaa96
    aadb:	250c      	movi.n	a5, 2
    aadd:	ffed46        	j	0xaa96
    aae0:	051c      	movi.n	a5, 16
    aae2:	ffec06        	j	0xaa96
    aae5:	850c      	movi.n	a5, 8
    aae7:	ffeac6        	j	0xaa96
    aaea:	360000        	excw
    aaed:	920041        	l32r	a4, 0xfffef2f0
    aaf0:	0c0003        	excw
    aaf3:	661a      	add.n	a6, a6, a1
    aaf5:	2189      	s32i.n	a8, a1, 8
    aaf7:	004492        	s8i	a9, a4, 0
    aafa:	8458c1        	l32r	a12, 0xfffebc5c
    aafd:	0b0c      	movi.n	a11, 0
    aaff:	0144b2        	s8i	a11, a4, 1
    ab02:	0cc8      	l32i.n	a12, a12, 0
    ab04:	020c      	movi.n	a2, 0
    ab06:	3c2cc2        	l32i	a12, a12, 240
    ab09:	380c      	movi.n	a8, 3
    ab0b:	04c0c0        	extui	a12, a12, 0, 1
    ab0e:	83bac0        	moveqz	a11, a10, a12
    ab11:	0244b2        	s8i	a11, a4, 2
    ab14:	005582        	s16i	a8, a5, 0
    ab17:	f01d      	excw
    ab19:	0c1966        	bnei	a9, 1, 0xab29
    ab1c:	858a81        	l32r	a8, 0xfffec144
    ab1f:	85a991        	l32r	a9, 0xfffec1c4
    ab22:	2888      	l32i.n	a8, a8, 8
    ab24:	19a9      	s32i.n	a10, a9, 4
    ab26:	0008e0        	excw
    ab29:	02ad      	mov.n	a10, a2
    ab2b:	03bd      	mov.n	a11, a3
    ab2d:	859081        	l32r	a8, 0xfffec170
    ab30:	04cd      	mov.n	a12, a4
    ab32:	7888      	l32i.n	a8, a8, 28
    ab34:	05dd      	mov.n	a13, a5
    ab36:	0008e0        	excw
    ab39:	0a2d      	mov.n	a2, a10
    ab3b:	f01d      	excw
    ab3d:	000000        	ill
    ab40:	004136        	excw
    ab43:	0a0232        	l8ui	a3, a2, 10
    ab46:	849681        	l32r	a8, 0xfffebda0
    ab49:	332a      	add.n	a3, a3, a2
    ab4b:	0c0332        	l8ui	a3, a3, 12
    ab4e:	e888      	l32i.n	a8, a8, 56
    ab50:	743030        	extui	a3, a3, 0, 8
    ab53:	03ad      	mov.n	a10, a3
    ab55:	0008e0        	excw
    ab58:	271a66        	bnei	a10, 1, 0xab83
    ab5b:	859241        	l32r	a4, 0xfffec1a4
    ab5e:	5488      	l32i.n	a8, a4, 20
    ab60:	ebc392        	addi	a9, a3, -21
    ab63:	1cd897        	bbs	a8, a9, 0xab83
    ab66:	840731        	l32r	a3, 0xfffebb84
    ab69:	d388      	l32i.n	a8, a3, 52
    ab6b:	ba0c      	movi.n	a10, 11
    ab6d:	0008e0        	excw
    ab70:	0abd      	mov.n	a11, a10
    ab72:	9388      	l32i.n	a8, a3, 36
    ab74:	02ad      	mov.n	a10, a2
    ab76:	0008e0        	excw
    ab79:	492482        	l32i	a8, a4, 0x124
    ab7c:	02ad      	mov.n	a10, a2
    ab7e:	0008e0        	excw
    ab81:	f01d      	excw
    ab83:	859081        	l32r	a8, 0xfffec1c4
    ab86:	8888      	l32i.n	a8, a8, 32
    ab88:	02ad      	mov.n	a10, a2
    ab8a:	0008e0        	excw
    ab8d:	f01d      	excw
    ab8f:	413600        	srli	a3, a0, 6
    ab92:	968100        	excw
    ab95:	288284        	excw
    ab98:	02ad36        	excw
    ab9b:	0008e0        	excw
    ab9e:	190c      	movi.n	a9, 1
    aba0:	85aac1        	l32r	a12, 0xfffec248
    aba3:	d8a1b2        	movi	a11, 0x1d8
    aba6:	c1bab0        	mul16u	a11, a10, a11
    aba9:	caca      	add.n	a12, a10, a12
    abab:	85aba1        	l32r	a10, 0xfffec258
    abae:	004c42        	s8i	a4, a12, 0
    abb1:	aaba      	add.n	a10, a10, a11
    abb3:	824a32        	s8i	a3, a10, 130
    abb6:	7e4a92        	s8i	a9, a10, 126
    abb9:	f01d      	excw
    abbb:	813600        	src	a3, a6, a0
    abbe:	03bd00        	excw
    abc1:	01ad      	mov.n	a10, a1
    abc3:	0c1c      	movi.n	a12, 16
    abc5:	00efe5        	excw
    abc8:	0011a2        	l16ui	a10, a1, 0
    abcb:	c80c      	movi.n	a8, 12
    abcd:	028af6        	bgeui	a10, 8, 0xabd3
    abd0:	006346        	j	0xad61
    abd3:	02b8a7        	bgeu	a8, a10, 0xabd9
    abd6:	0061c6        	j	0xad61
    abd9:	011192        	l16ui	a9, a1, 2
    abdc:	990b      	addi.n	a9, a9, -1
    abde:	17f956        	bnez	a9, 0xad61
    abe1:	849631        	l32r	a3, 0xfffebe3c
    abe4:	362382        	l32i	a8, a3, 216
    abe7:	02ad      	mov.n	a10, a2
    abe9:	0008e0        	excw
    abec:	160c      	movi.n	a6, 1
    abee:	85ac41        	l32r	a4, 0xfffec2a0
    abf1:	0401e2        	l8ui	a14, a1, 4
    abf4:	0a9d      	mov.n	a9, a10
    abf6:	fecea2        	addi	a10, a14, -2
    abf9:	126a16        	beqz	a10, 0xad23
    abfc:	842931        	l32r	a3, 0xfffebca0
    abff:	84a051        	l32r	a5, 0xfffebe80
    ac02:	070c      	movi.n	a7, 0
    ac04:	85ada1        	l32r	a10, 0xfffec2b8
    ac07:	fdcef2        	addi	a15, a14, -3
    ac0a:	155f16        	beqz	a15, 0xad63
    ac0d:	028ea6        	blti	a14, 8, 0xac13
    ac10:	005346        	j	0xad61
    ac13:	026ee6        	bgei	a14, 6, 0xac19
    ac16:	0051c6        	j	0xad61
    ac19:	001182        	l16ui	a8, a1, 0
    ac1c:	f8c882        	addi	a8, a8, -8
    ac1f:	13e856        	bnez	a8, 0xad61
    ac22:	0311b2        	l16ui	a11, a1, 6
    ac25:	fccbb2        	addi	a11, a11, -4
    ac28:	135b56        	bnez	a11, 0xad61
    ac2b:	d8a162        	movi	a6, 0x1d8
    ac2e:	c16960        	mul16u	a6, a9, a6
    ac31:	6a6a      	add.n	a6, a10, a6
    ac33:	7c06c2        	l8ui	a12, a6, 124
    ac36:	094d      	mov.n	a4, a9
    ac38:	541c66        	bnei	a12, 1, 0xac90
    ac3b:	85aad1        	l32r	a13, 0xfffec2e4
    ac3e:	0511c2        	l16ui	a12, a1, 10
    ac41:	8006b2        	l8ui	a11, a6, 128
    ac44:	0411a2        	l16ui	a10, a1, 8
    ac47:	079bc7        	bne	a11, a12, 0xac52
    ac4a:	89da      	add.n	a8, a9, a13
    ac4c:	000882        	l8ui	a8, a8, 0
    ac4f:	0a18a7        	beq	a8, a10, 0xac5d
    ac52:	3a9ba7        	bne	a11, a10, 0xac90
    ac55:	94da      	add.n	a9, a4, a13
    ac57:	000992        	l8ui	a9, a9, 0
    ac5a:	3299c7        	bne	a9, a12, 0xac90
    ac5d:	762382        	l32i	a8, a3, 0x1d8
    ac60:	02ad      	mov.n	a10, a2
    ac62:	0008e0        	excw
    ac65:	84c091        	l32r	a9, 0xfffebf68
    ac68:	8488a1        	l32r	a10, 0xfffebe88
    ac6b:	8477b1        	l32r	a11, 0xfffebe48
    ac6e:	ffa0c2        	movi	a12, 255
    ac71:	394bc2        	s8i	a12, a11, 57
    ac74:	1f4ac2        	s8i	a12, a10, 31
    ac77:	384b72        	s8i	a7, a11, 56
    ac7a:	2d1992        	l16ui	a9, a9, 90
    ac7d:	1e4a72        	s8i	a7, a10, 30
    ac80:	0ce957        	bbsi	a9, 5, 0xac90
    ac83:	849681        	l32r	a8, 0xfffebedc
    ac86:	04ad      	mov.n	a10, a4
    ac88:	6b2882        	l32i	a8, a8, 0x1ac
    ac8b:	5b0c      	movi.n	a11, 5
    ac8d:	0008e0        	excw
    ac90:	7d0692        	l8ui	a9, a6, 125
    ac93:	101966        	bnei	a9, 1, 0xaca7
    ac96:	0511b2        	l16ui	a11, a1, 10
    ac99:	8106a2        	l8ui	a10, a6, 129
    ac9c:	079ab7        	bne	a10, a11, 0xaca7
    ac9f:	782382        	l32i	a8, a3, 0x1e0
    aca2:	02ad      	mov.n	a10, a2
    aca4:	0008e0        	excw
    aca7:	7e0692        	l8ui	a9, a6, 126
    acaa:	101966        	bnei	a9, 1, 0xacbe
    acad:	0511b2        	l16ui	a11, a1, 10
    acb0:	8206a2        	l8ui	a10, a6, 130
    acb3:	079ab7        	bne	a10, a11, 0xacbe
    acb6:	7a2382        	l32i	a8, a3, 0x1e8
    acb9:	02ad      	mov.n	a10, a2
    acbb:	0008e0        	excw
    acbe:	7f0692        	l8ui	a9, a6, 127
    acc1:	101966        	bnei	a9, 1, 0xacd5
    acc4:	0511b2        	l16ui	a11, a1, 10
    acc7:	8306a2        	l8ui	a10, a6, 131
    acca:	079ab7        	bne	a10, a11, 0xacd5
    accd:	7c2382        	l32i	a8, a3, 0x1f0
    acd0:	02ad      	mov.n	a10, a2
    acd2:	0008e0        	excw
    acd5:	a20592        	l8ui	a9, a5, 162
    acd8:	085916        	beqz	a9, 0xad61
    acdb:	7e06a2        	l8ui	a10, a6, 126
    acde:	081a66        	bnei	a10, 1, 0xacea
    ace1:	a305b2        	l8ui	a11, a5, 163
    ace4:	04b0b0        	extui	a11, a11, 0, 1
    ace7:	104b56        	bnez	a11, 0xadef
    acea:	7c06c2        	l8ui	a12, a6, 124
    aced:	081c66        	bnei	a12, 1, 0xacf9
    acf0:	a305d2        	l8ui	a13, a5, 163
    acf3:	04d2d0        	extui	a13, a13, 2, 1
    acf6:	0f5d56        	bnez	a13, 0xadef
    acf9:	7f06e2        	l8ui	a14, a6, 127
    acfc:	081e66        	bnei	a14, 1, 0xad08
    acff:	a305f2        	l8ui	a15, a5, 163
    ad02:	04f4f0        	extui	a15, a15, 4, 1
    ad05:	0e6f56        	bnez	a15, 0xadef
    ad08:	7d0682        	l8ui	a8, a6, 125
    ad0b:	081866        	bnei	a8, 1, 0xad17
    ad0e:	a30592        	l8ui	a9, a5, 163
    ad11:	049190        	extui	a9, a9, 1, 1
    ad14:	0d7956        	bnez	a9, 0xadef
    ad17:	04ad      	mov.n	a10, a4
    ad19:	5d2382        	l32i	a8, a3, 0x174
    ad1c:	0b0c      	movi.n	a11, 0
    ad1e:	0008e0        	excw
    ad21:	f01d      	excw
    ad23:	001192        	l16ui	a9, a1, 0
    ad26:	378966        	bnei	a9, 8, 0xad61
    ad29:	0311a2        	l16ui	a10, a1, 6
    ad2c:	314a66        	bnei	a10, 4, 0xad61
    ad2f:	0411a2        	l16ui	a10, a1, 8
    ad32:	2c4462        	s8i	a6, a4, 44
    ad35:	281a26        	beqi	a10, 1, 0xad61
    ad38:	fdcab2        	addi	a11, a10, -3
    ad3b:	0bcb16        	beqz	a11, 0xadfb
    ad3e:	f1cac2        	addi	a12, a10, -15
    ad41:	0d6c16        	beqz	a12, 0xae1b
    ad44:	efcad2        	addi	a13, a10, -17
    ad47:	0b5d16        	beqz	a13, 0xae00
    ad4a:	edcae2        	addi	a14, a10, -19
    ad4d:	0afe16        	beqz	a14, 0xae00
    ad50:	7f1c      	movi.n	a15, 23
    ad52:	0b1af7        	beq	a10, a15, 0xad61
    ad55:	e7ca82        	addi	a8, a10, -25
    ad58:	0ce816        	beqz	a8, 0xae2a
    ad5b:	e5ca92        	addi	a9, a10, -27
    ad5e:	099956        	bnez	a9, 0xadfb
    ad61:	f01d      	excw
    ad63:	0011b2        	l16ui	a11, a1, 0
    ad66:	f7ab66        	bnei	a11, 12, 0xad61
    ad69:	0311c2        	l16ui	a12, a1, 6
    ad6c:	f18c66        	bnei	a12, 8, 0xad61
    ad6f:	2c04d2        	l8ui	a13, a4, 44
    ad72:	eb1d66        	bnei	a13, 1, 0xad61
    ad75:	0611e2        	l16ui	a14, a1, 12
    ad78:	2c4472        	s8i	a7, a4, 44
    ad7b:	e22ef6        	bgeui	a14, 2, 0xad61
    ad7e:	2e04f2        	l8ui	a15, a4, 46
    ad81:	4199      	s32i.n	a9, a1, 16
    ad83:	07ef16        	beqz	a15, 0xae05
    ad86:	09ad      	mov.n	a10, a9
    ad88:	02d382        	addmi	a8, a3, 0x200
    ad8b:	d72882        	l32i	a8, a8, 0x35c
    ad8e:	85aeb1        	l32r	a11, 0xfffec448
    ad91:	0008e0        	excw
    ad94:	02ad      	mov.n	a10, a2
    ad96:	792382        	l32i	a8, a3, 0x1e4
    ad99:	0511b2        	l16ui	a11, a1, 10
    ad9c:	0008e0        	excw
    ad9f:	2e4472        	s8i	a7, a4, 46
    ada2:	a20592        	l8ui	a9, a5, 162
    ada5:	fb8916        	beqz	a9, 0xad61
    ada8:	85ad91        	l32r	a9, 0xfffec45c
    adab:	41a8      	l32i.n	a10, a1, 16
    adad:	d8a1b2        	movi	a11, 0x1d8
    adb0:	c1bab0        	mul16u	a11, a10, a11
    adb3:	99ba      	add.n	a9, a9, a11
    adb5:	7e09b2        	l8ui	a11, a9, 126
    adb8:	051b66        	bnei	a11, 1, 0xadc1
    adbb:	a305c2        	l8ui	a12, a5, 163
    adbe:	5eec07        	bbsi	a12, 0, 0xae20
    adc1:	7c09d2        	l8ui	a13, a9, 124
    adc4:	051d66        	bnei	a13, 1, 0xadcd
    adc7:	a305e2        	l8ui	a14, a5, 163
    adca:	52ee27        	bbsi	a14, 2, 0xae20
    adcd:	7f09f2        	l8ui	a15, a9, 127
    add0:	051f66        	bnei	a15, 1, 0xadd9
    add3:	a30582        	l8ui	a8, a5, 163
    add6:	46e847        	bbsi	a8, 4, 0xae20
    add9:	7d09b2        	l8ui	a11, a9, 125
    addc:	051b66        	bnei	a11, 1, 0xade5
    addf:	a305c2        	l8ui	a12, a5, 163
    ade2:	3aec17        	bbsi	a12, 1, 0xae20
    ade5:	5d2382        	l32i	a8, a3, 0x174
    ade8:	0b0c      	movi.n	a11, 0
    adea:	0008e0        	excw
    aded:	f01d      	excw
    adef:	04ad      	mov.n	a10, a4
    adf1:	5d2382        	l32i	a8, a3, 0x174
    adf4:	1b0c      	movi.n	a11, 1
    adf6:	0008e0        	excw
    adf9:	f01d      	excw
    adfb:	2e4462        	s8i	a6, a4, 46
    adfe:	f01d      	excw
    ae00:	2f4462        	s8i	a6, a4, 47
    ae03:	f01d      	excw
    ae05:	2f0492        	l8ui	a9, a4, 47
    ae08:	39ac      	beqz.n	a9, 0xae2f
    ae0a:	02ad      	mov.n	a10, a2
    ae0c:	772382        	l32i	a8, a3, 0x1dc
    ae0f:	0511b2        	l16ui	a11, a1, 10
    ae12:	0008e0        	excw
    ae15:	2f4472        	s8i	a7, a4, 47
    ae18:	ffe186        	j	0xada2
    ae1b:	304462        	s8i	a6, a4, 48
    ae1e:	f01d      	excw
    ae20:	5d2382        	l32i	a8, a3, 0x174
    ae23:	1b0c      	movi.n	a11, 1
    ae25:	0008e0        	excw
    ae28:	f01d      	excw
    ae2a:	314462        	s8i	a6, a4, 49
    ae2d:	f01d      	excw
    ae2f:	300492        	l8ui	a9, a4, 48
    ae32:	f98c      	beqz.n	a9, 0xae45
    ae34:	02ad      	mov.n	a10, a2
    ae36:	7b2382        	l32i	a8, a3, 0x1ec
    ae39:	0511b2        	l16ui	a11, a1, 10
    ae3c:	0008e0        	excw
    ae3f:	304472        	s8i	a7, a4, 48
    ae42:	ffd706        	j	0xada2
    ae45:	310492        	l8ui	a9, a4, 49
    ae48:	f56916        	beqz	a9, 0xada2
    ae4b:	02ad      	mov.n	a10, a2
    ae4d:	0511b2        	l16ui	a11, a1, 10
    ae50:	0411c2        	l16ui	a12, a1, 8
    ae53:	ffd3e5        	excw
    ae56:	314472        	s8i	a7, a4, 49
    ae59:	84c0a1        	l32r	a10, 0xfffec15c
    ae5c:	8477c1        	l32r	a12, 0xfffec038
    ae5f:	41b8      	l32i.n	a11, a1, 16
    ae61:	384c62        	s8i	a6, a12, 56
    ae64:	394cb2        	s8i	a11, a12, 57
    ae67:	2d1aa2        	l16ui	a10, a10, 90
    ae6a:	8488c1        	l32r	a12, 0xfffec08c
    ae6d:	04a5a0        	extui	a10, a10, 5, 1
    ae70:	1e4c62        	s8i	a6, a12, 30
    ae73:	1f4cb2        	s8i	a11, a12, 31
    ae76:	f28a56        	bnez	a10, 0xada2
    ae79:	849681        	l32r	a8, 0xfffec0d4
    ae7c:	41a8      	l32i.n	a10, a1, 16
    ae7e:	6b2882        	l32i	a8, a8, 0x1ac
    ae81:	1b0c      	movi.n	a11, 1
    ae83:	0008e0        	excw
    ae86:	ffc606        	j	0xada2
    ae89:	000000        	ill
    ae8c:	004136        	excw
    ae8f:	85afb1        	l32r	a11, 0xfffec54c
    ae92:	842531        	l32r	a3, 0xfffebf28
    ae95:	8592c1        	l32r	a12, 0xfffec4e0
    ae98:	2d2322        	l32i	a2, a3, 180
    ae9b:	862382        	l32i	a8, a3, 0x218
    ae9e:	142392        	l32i	a9, a3, 80
    aea1:	162342        	l32i	a4, a3, 88
    aea4:	8523d2        	l32i	a13, a3, 0x214
    aea7:	1523e2        	l32i	a14, a3, 84
    aeaa:	372ca2        	l32i	a10, a12, 220
    aead:	7c23f2        	l32i	a15, a3, 0x1f0
    aeb0:	376cb2        	s32i	a11, a12, 220
    aeb3:	8590c1        	l32r	a12, 0xfffec4f4
    aeb6:	1d23b2        	l32i	a11, a3, 116
    aeb9:	5cf9      	s32i.n	a15, a12, 20
    aebb:	6ce9      	s32i.n	a14, a12, 24
    aebd:	7cd9      	s32i.n	a13, a12, 28
    aebf:	8cb9      	s32i.n	a11, a12, 32
    aec1:	1ca9      	s32i.n	a10, a12, 4
    aec3:	4c49      	s32i.n	a4, a12, 16
    aec5:	3c99      	s32i.n	a9, a12, 12
    aec7:	2c89      	s32i.n	a8, a12, 8
    aec9:	0c29      	s32i.n	a2, a12, 0
    aecb:	85b381        	l32r	a8, 0xfffec598
    aece:	85b421        	l32r	a2, 0xfffec5a0
    aed1:	85b291        	l32r	a9, 0xfffec59c
    aed4:	85b041        	l32r	a4, 0xfffec594
    aed7:	85b1a1        	l32r	a10, 0xfffec59c
    aeda:	85b9b1        	l32r	a11, 0xfffec5c0
    aedd:	85b7d1        	l32r	a13, 0xfffec5bc
    aee0:	85b6e1        	l32r	a14, 0xfffec5b8
    aee3:	85b5f1        	l32r	a15, 0xfffec5b8
    aee6:	1463f2        	s32i	a15, a3, 80
    aee9:	8663e2        	s32i	a14, a3, 0x218
    aeec:	1663d2        	s32i	a13, a3, 88
    aeef:	7c63b2        	s32i	a11, a3, 0x1f0
    aef2:	94a9      	s32i.n	a10, a4, 36
    aef4:	a499      	s32i.n	a9, a4, 40
    aef6:	116422        	s32i	a2, a4, 68
    aef9:	106482        	s32i	a8, a4, 64
    aefc:	85be21        	l32r	a2, 0xfffec5f4
    aeff:	85bc81        	l32r	a8, 0xfffec5f0
    af02:	85bb91        	l32r	a9, 0xfffec5f0
    af05:	85baa1        	l32r	a10, 0xfffec5f0
    af08:	1563a2        	s32i	a10, a3, 84
    af0b:	856392        	s32i	a9, a3, 0x214
    af0e:	1d6382        	s32i	a8, a3, 116
    af11:	296322        	s32i	a2, a3, 164
    af14:	85bd41        	l32r	a4, 0xfffec608
    af17:	136342        	s32i	a4, a3, 76
    af1a:	85b8c1        	l32r	a12, 0xfffec5fc
    af1d:	2d63c2        	s32i	a12, a3, 180
    af20:	f01d      	excw
    af22:	360000        	excw
    af25:	0c0061        	l32r	a6, 0xfffcdf28
    af28:	511d      	excw
    af2a:	e28593        	excw
    af2d:	0c52a2        	s16i	a10, a2, 24
    af30:	03f207        	bbsi	a2, 16, 0xaf37
    af33:	076d01        	l32r	a0, 0xfffccce8
    af36:	05ff16        	beqz	a15, 0xaf99
    af39:	8f0b      	addi.n	a8, a15, -1
    af3b:	09f816        	beqz	a8, 0xafde
    af3e:	fdcf92        	addi	a9, a15, -3
    af41:	0f2916        	beqz	a9, 0xb037
    af44:	fbcfa2        	addi	a10, a15, -5
    af47:	19fa16        	beqz	a10, 0xb0ea
    af4a:	facfb2        	addi	a11, a15, -6
    af4d:	113b16        	beqz	a11, 0xb064
    af50:	f9cfc2        	addi	a12, a15, -7
    af53:	14cc16        	beqz	a12, 0xb0a3
    af56:	f8cf82        	addi	a8, a15, -8
    af59:	15a816        	beqz	a8, 0xb0b7
    af5c:	f7cf92        	addi	a9, a15, -9
    af5f:	093916        	beqz	a9, 0xaff6
    af62:	02ad      	mov.n	a10, a2
    af64:	03bd      	mov.n	a11, a3
    af66:	1c2582        	l32i	a8, a5, 112
    af69:	04cd      	mov.n	a12, a4
    af6b:	0008e0        	excw
    af6e:	0103f2        	l8ui	a15, a3, 1
    af71:	056f26        	beqi	a15, 6, 0xaf7a
    af74:	027f26        	beqi	a15, 7, 0xaf7a
    af77:	1c8f66        	bnei	a15, 8, 0xaf97
    af7a:	85bfb1        	l32r	a11, 0xfffec678
    af7d:	04ad      	mov.n	a10, a4
    af7f:	572582        	l32i	a8, a5, 0x15c
    af82:	06cd      	mov.n	a12, a6
    af84:	0008e0        	excw
    af87:	031392        	l16ui	a9, a3, 6
    af8a:	409967        	bne	a9, a6, 0xafce
    af8d:	b479      	s32i.n	a7, a4, 44
    af8f:	242582        	l32i	a8, a5, 144
    af92:	04ad      	mov.n	a10, a4
    af94:	0008e0        	excw
    af97:	f01d      	excw
    af99:	b722a2        	l32i	a10, a2, 0x2dc
    af9c:	92ea      	add.n	a9, a2, a14
    af9e:	4acc      	bnez.n	a10, 0xafa6
    afa0:	3d5972        	s16i	a7, a9, 122
    afa3:	0002c6        	j	0xafb2
    afa6:	8309b2        	l8ui	a11, a9, 131
    afa9:	11bbf0        	slli	a11, a11, 1
    afac:	20bbd0        	or	a11, a11, a13
    afaf:	3d59b2        	s16i	a11, a9, 122
    afb2:	04ad      	mov.n	a10, a4
    afb4:	2c0c      	movi.n	a12, 2
    afb6:	cca2b2        	movi	a11, 0x2cc
    afb9:	572582        	l32i	a8, a5, 0x15c
    afbc:	b2ba      	add.n	a11, a2, a11
    afbe:	0008e0        	excw
    afc1:	b479      	s32i.n	a7, a4, 44
    afc3:	242582        	l32i	a8, a5, 144
    afc6:	04ad      	mov.n	a10, a4
    afc8:	0008e0        	excw
    afcb:	ffe7c6        	j	0xaf6e
    afce:	070c      	movi.n	a7, 0
    afd0:	fb9616        	beqz	a6, 0xaf8d
    afd3:	54a060        	extui	a10, a6, 0, 6
    afd6:	190c      	movi.n	a9, 1
    afd8:	8379a0        	moveqz	a7, a9, a10
    afdb:	ffeb86        	j	0xaf8d
    afde:	b722b2        	l32i	a11, a2, 0x2dc
    afe1:	047b56        	bnez	a11, 0xb02c
    afe4:	02ad      	mov.n	a10, a2
    afe6:	1b0c      	movi.n	a11, 1
    afe8:	92ea      	add.n	a9, a2, a14
    afea:	512582        	l32i	a8, a5, 0x144
    afed:	3d5972        	s16i	a7, a9, 122
    aff0:	0008e0        	excw
    aff3:	ffddc6        	j	0xaf6e
    aff6:	0003a2        	l8ui	a10, a3, 0
    aff9:	051a56        	bnez	a10, 0xb04e
    affc:	03e690        	rsr.ps	a9
    afff:	2b0c      	movi.n	a11, 2
    b001:	34a090        	extui	a10, a9, 0, 4
    b004:	022ba7        	blt	a11, a10, 0xb00a
    b007:	006290        	rsil	a9, 2
    b00a:	0199      	s32i.n	a9, a1, 0
    b00c:	02ad      	mov.n	a10, a2
    b00e:	2b2582        	l32i	a8, a5, 172
    b011:	0113b2        	l16ui	a11, a3, 2
    b014:	0008e0        	excw
    b017:	0198      	l32i.n	a9, a1, 0
    b019:	13e690        	wsr.ps	a9
    b01c:	002010        	rsync
    b01f:	02ad      	mov.n	a10, a2
    b021:	512582        	l32i	a8, a5, 0x144
    b024:	1b0c      	movi.n	a11, 1
    b026:	0008e0        	excw
    b029:	ffd046        	j	0xaf6e
    b02c:	4f2582        	l32i	a8, a5, 0x13c
    b02f:	02ad      	mov.n	a10, a2
    b031:	0008e0        	excw
    b034:	ffcd86        	j	0xaf6e
    b037:	b72292        	l32i	a9, a2, 0x2dc
    b03a:	b9dc      	bnez.n	a9, 0xb059
    b03c:	02ad      	mov.n	a10, a2
    b03e:	1b0c      	movi.n	a11, 1
    b040:	92ea      	add.n	a9, a2, a14
    b042:	512582        	l32i	a8, a5, 0x144
    b045:	3d5972        	s16i	a7, a9, 122
    b048:	0008e0        	excw
    b04b:	ffc7c6        	j	0xaf6e
    b04e:	4d2582        	l32i	a8, a5, 0x134
    b051:	02ad      	mov.n	a10, a2
    b053:	0008e0        	excw
    b056:	ffc506        	j	0xaf6e
    b059:	252582        	l32i	a8, a5, 148
    b05c:	02ad      	mov.n	a10, a2
    b05e:	0008e0        	excw
    b061:	ffc246        	j	0xaf6e
    b064:	011362        	l16ui	a6, a3, 2
    b067:	41c860        	srli	a12, a6, 8
    b06a:	f4e860        	extui	a14, a6, 8, 16
    b06d:	9e0b      	addi.n	a9, a14, -1
    b06f:	0bb916        	beqz	a9, 0xb12e
    b072:	fecea2        	addi	a10, a14, -2
    b075:	0e9a16        	beqz	a10, 0xb162
    b078:	7b3e26        	beqi	a14, 3, 0xb0f7
    b07b:	fb0c      	movi.n	a11, 15
    b07d:	319eb7        	bne	a14, a11, 0xb0b2
    b080:	84c0c1        	l32r	a12, 0xfffec380
    b083:	3c1cc2        	l16ui	a12, a12, 120
    b086:	160c      	movi.n	a6, 1
    b088:	266c17        	bbci	a12, 1, 0xb0b2
    b08b:	3469      	s32i.n	a6, a4, 12
    b08d:	172582        	l32i	a8, a5, 92
    b090:	02ad      	mov.n	a10, a2
    b092:	0008e0        	excw
    b095:	222582        	l32i	a8, a5, 136
    b098:	04ad      	mov.n	a10, a4
    b09a:	0008e0        	excw
    b09d:	0469      	s32i.n	a6, a4, 0
    b09f:	8269      	s32i.n	a6, a2, 32
    b0a1:	f01d      	excw
    b0a3:	031362        	l16ui	a6, a3, 6
    b0a6:	2ca182        	movi	a8, 0x12c
    b0a9:	636680        	excw
    b0ac:	f46060        	extui	a6, a6, 0, 16
    b0af:	ffaf86        	j	0xaf71
    b0b2:	060c      	movi.n	a6, 0
    b0b4:	ffae46        	j	0xaf71
    b0b7:	000392        	l8ui	a9, a3, 0
    b0ba:	22e966        	bnei	a9, 128, 0xb0e0
    b0bd:	85bf91        	l32r	a9, 0xfffec7bc
    b0c0:	82ea      	add.n	a8, a2, a14
    b0c2:	820882        	l8ui	a8, a8, 130
    b0c5:	004982        	s8i	a8, a9, 0
    b0c8:	031362        	l16ui	a6, a3, 6
    b0cb:	6366d0        	excw
    b0ce:	f46060        	extui	a6, a6, 0, 16
    b0d1:	e99656        	bnez	a6, 0xaf6e
    b0d4:	02ad      	mov.n	a10, a2
    b0d6:	512582        	l32i	a8, a5, 0x144
    b0d9:	0b0c      	movi.n	a11, 0
    b0db:	0008e0        	excw
    b0de:	f01d      	excw
    b0e0:	4d2582        	l32i	a8, a5, 0x134
    b0e3:	02ad      	mov.n	a10, a2
    b0e5:	0008e0        	excw
    b0e8:	f01d      	excw
    b0ea:	02ad      	mov.n	a10, a2
    b0ec:	4e2582        	l32i	a8, a5, 0x138
    b0ef:	03bd      	mov.n	a11, a3
    b0f1:	0008e0        	excw
    b0f4:	ff9d86        	j	0xaf6e
    b0f7:	b72292        	l32i	a9, a2, 0x2dc
    b0fa:	b9ac      	beqz.n	a9, 0xb129
    b0fc:	eea0a2        	movi	a10, 238
    b0ff:	74b060        	extui	a11, a6, 0, 8
    b102:	1a9ba7        	bne	a11, a10, 0xb120
    b105:	24c2a2        	addi	a10, a2, 36
    b108:	130c      	movi.n	a3, 1
    b10a:	222582        	l32i	a8, a5, 136
    b10d:	c239      	s32i.n	a3, a2, 48
    b10f:	0008e0        	excw
    b112:	02ad      	mov.n	a10, a2
    b114:	9239      	s32i.n	a3, a2, 36
    b116:	172582        	l32i	a8, a5, 92
    b119:	8239      	s32i.n	a3, a2, 32
    b11b:	0008e0        	excw
    b11e:	f01d      	excw
    b120:	85c091        	l32r	a9, 0xfffec820
    b123:	000992        	l8ui	a9, a9, 0
    b126:	4ee907        	bbsi	a9, 0, 0xb178
    b129:	060c      	movi.n	a6, 0
    b12b:	ff9086        	j	0xaf71
    b12e:	ba22b2        	l32i	a11, a2, 0x2e8
    b131:	85bfa1        	l32r	a10, 0xfffec830
    b134:	031362        	l16ui	a6, a3, 6
    b137:	281c      	movi.n	a8, 18
    b139:	636680        	excw
    b13c:	f46060        	extui	a6, a6, 0, 16
    b13f:	06cd      	mov.n	a12, a6
    b141:	009825        	excw
    b144:	000506        	j	0xb15c
    b147:	02ad      	mov.n	a10, a2
    b149:	06bd      	mov.n	a11, a6
    b14b:	0113c2        	l16ui	a12, a3, 2
    b14e:	272582        	l32i	a8, a5, 156
    b151:	41c8c0        	srli	a12, a12, 8
    b154:	0008e0        	excw
    b157:	0add      	mov.n	a13, a10
    b159:	f460d0        	extui	a6, a13, 0, 16
    b15c:	0103f2        	l8ui	a15, a3, 1
    b15f:	ff8386        	j	0xaf71
    b162:	02ad      	mov.n	a10, a2
    b164:	85bfb1        	l32r	a11, 0xfffec860
    b167:	272582        	l32i	a8, a5, 156
    b16a:	0b6d      	mov.n	a6, a11
    b16c:	0008e0        	excw
    b16f:	0313d2        	l16ui	a13, a3, 6
    b172:	e3bad7        	bgeu	a10, a13, 0xb159
    b175:	fff386        	j	0xb147
    b178:	85bfc1        	l32r	a12, 0xfffec874
    b17b:	292582        	l32i	a8, a5, 164
    b17e:	0c2d      	mov.n	a2, a12
    b180:	ffdc62        	addmi	a6, a12, 0xffffff00
    b183:	5f2ca2        	l32i	a10, a12, 0x17c
    b186:	0008e0        	excw
    b189:	0313d2        	l16ui	a13, a3, 6
    b18c:	0fbad7        	bgeu	a10, a13, 0xb19f
    b18f:	9f26a2        	l32i	a10, a6, 0x27c
    b192:	02cd      	mov.n	a12, a2
    b194:	292582        	l32i	a8, a5, 164
    b197:	0203b2        	l8ui	a11, a3, 2
    b19a:	0008e0        	excw
    b19d:	0add      	mov.n	a13, a10
    b19f:	f460d0        	extui	a6, a13, 0, 16
    b1a2:	0103f2        	l8ui	a15, a3, 1
    b1a5:	ff7206        	j	0xaf71
    b1a8:	004136        	excw
    b1ab:	3488      	l32i.n	a8, a4, 12
    b1ad:	859351        	l32r	a5, 0xfffec7fc
    b1b0:	888c      	beqz.n	a8, 0xb1bc
    b1b2:	4d2582        	l32i	a8, a5, 0x134
    b1b5:	02ad      	mov.n	a10, a2
    b1b7:	0008e0        	excw
    b1ba:	f01d      	excw
    b1bc:	0313c2        	l16ui	a12, a3, 6
    b1bf:	2ba192        	movi	a9, 0x12b
    b1c2:	5cac      	beqz.n	a12, 0xb1eb
    b1c4:	0ab9c7        	bgeu	a9, a12, 0xb1d2
    b1c7:	85c1a1        	l32r	a10, 0xfffec8cc
    b1ca:	0b0c      	movi.n	a11, 0
    b1cc:	ac6465        	excw
    b1cf:	0313c2        	l16ui	a12, a3, 6
    b1d2:	04ad      	mov.n	a10, a4
    b1d4:	572582        	l32i	a8, a5, 0x15c
    b1d7:	85bfb1        	l32r	a11, 0xfffec8d4
    b1da:	0008e0        	excw
    b1dd:	04ad      	mov.n	a10, a4
    b1df:	090c      	movi.n	a9, 0
    b1e1:	242582        	l32i	a8, a5, 144
    b1e4:	b499      	s32i.n	a9, a4, 44
    b1e6:	0008e0        	excw
    b1e9:	f01d      	excw
    b1eb:	02ad      	mov.n	a10, a2
    b1ed:	332582        	l32i	a8, a5, 204
    b1f0:	0b0c      	movi.n	a11, 0
    b1f2:	0008e0        	excw
    b1f5:	f01d      	excw
    b1f7:	413600        	srli	a3, a0, 6
    b1fa:	c23100        	excw
    b1fd:	c3f185        	call0	0xfffcf118
    b200:	c4a185        	call0	0xfffcfc1c
    b203:	328885        	call0	0x3da8c
    b206:	85c5e1        	l32r	a14, 0xfffec91c
    b209:	093816        	beqz	a8, 0xb2a0
    b20c:	845891        	l32r	a9, 0xfffec36c
    b20f:	0998      	l32i.n	a9, a9, 0
    b211:	85a5b1        	l32r	a11, 0xfffec8a8
    b214:	e998      	l32i.n	a9, a9, 56
    b216:	85c6c1        	l32r	a12, 0xfffec930
    b219:	3b99b7        	bne	a9, a11, 0xb258
    b21c:	85c791        	l32r	a9, 0xfffec938
    b21f:	8c09b2        	l8ui	a11, a9, 140
    b222:	11bbb0        	slli	a11, a11, 5
    b225:	bbca      	add.n	a11, a11, a12
    b227:	0020c0        	memw
    b22a:	c02bb2        	l32i	a11, a11, 0x300
    b22d:	b809d2        	l8ui	a13, a9, 184
    b230:	247bf7        	bbci	a11, 31, 0xb258
    b233:	1dac      	beqz.n	a13, 0xb258
    b235:	85c881        	l32r	a8, 0xfffec958
    b238:	e00882        	l8ui	a8, a8, 224
    b23b:	98dc      	bnez.n	a8, 0xb258
    b23d:	85c991        	l32r	a9, 0xfffec964
    b240:	000992        	l8ui	a9, a9, 0
    b243:	19dc      	bnez.n	a9, 0xb258
    b245:	859381        	l32r	a8, 0xfffec894
    b248:	5f2882        	l32i	a8, a8, 0x17c
    b24b:	0008e0        	excw
    b24e:	85caa1        	l32r	a10, 0xfffec978
    b251:	190c      	movi.n	a9, 1
    b253:	604a92        	s8i	a9, a10, 96
    b256:	f01d      	excw
    b258:	0020c0        	memw
    b25b:	c42cd2        	l32i	a13, a12, 0x310
    b25e:	c2b8      	l32i.n	a11, a2, 48
    b260:	10dda0        	and	a13, a13, a10
    b263:	3bec      	bnez.n	a11, 0xb28a
    b265:	20ade0        	or	a10, a13, a14
    b268:	0020c0        	memw
    b26b:	c46ca2        	s32i	a10, a12, 0x310
    b26e:	7298      	l32i.n	a9, a2, 28
    b270:	109930        	and	a9, a9, a3
    b273:	0020c0        	memw
    b276:	c56c92        	s32i	a9, a12, 0x314
    b279:	0020c0        	memw
    b27c:	c02c82        	l32i	a8, a12, 0x300
    b27f:	2088f0        	or	a8, a8, a15
    b282:	0020c0        	memw
    b285:	c06c82        	s32i	a8, a12, 0x300
    b288:	f01d      	excw
    b28a:	0c12a2        	l16ui	a10, a2, 24
    b28d:	0abab7        	bgeu	a10, a11, 0xb29b
    b290:	92a9      	s32i.n	a10, a2, 36
    b292:	64b0a0        	extui	a11, a10, 0, 7
    b295:	20ddb0        	or	a13, a13, a11
    b298:	fff246        	j	0xb265
    b29b:	0bad      	mov.n	a10, a11
    b29d:	fffc46        	j	0xb292
    b2a0:	85cbd1        	l32r	a13, 0xfffec9cc
    b2a3:	0020c0        	memw
    b2a6:	442dc2        	l32i	a12, a13, 0x110
    b2a9:	c2b8      	l32i.n	a11, a2, 48
    b2ab:	10cca0        	and	a12, a12, a10
    b2ae:	20cce0        	or	a12, a12, a14
    b2b1:	cb8c      	beqz.n	a11, 0xb2c1
    b2b3:	0c12a2        	l16ui	a10, a2, 24
    b2b6:	29bab7        	bgeu	a10, a11, 0xb2e3
    b2b9:	92a9      	s32i.n	a10, a2, 36
    b2bb:	64e0a0        	extui	a14, a10, 0, 7
    b2be:	20cce0        	or	a12, a12, a14
    b2c1:	0020c0        	memw
    b2c4:	446dc2        	s32i	a12, a13, 0x110
    b2c7:	7298      	l32i.n	a9, a2, 28
    b2c9:	109930        	and	a9, a9, a3
    b2cc:	0020c0        	memw
    b2cf:	456d92        	s32i	a9, a13, 0x114
    b2d2:	0020c0        	memw
    b2d5:	402d82        	l32i	a8, a13, 0x100
    b2d8:	2088f0        	or	a8, a8, a15
    b2db:	0020c0        	memw
    b2de:	406d82        	s32i	a8, a13, 0x100
    b2e1:	f01d      	excw
    b2e3:	0bad      	mov.n	a10, a11
    b2e5:	fff486        	j	0xb2bb
    b2e8:	004136        	excw
    b2eb:	85cb41        	l32r	a4, 0xfffeca18
    b2ee:	0020c0        	memw
    b2f1:	402432        	l32i	a3, a4, 0x100
    b2f4:	0020c0        	memw
    b2f7:	442482        	l32i	a8, a4, 0x110
    b2fa:	a2b8      	l32i.n	a11, a2, 40
    b2fc:	c2a8      	l32i.n	a10, a2, 48
    b2fe:	0c1292        	l16ui	a9, a2, 24
    b301:	c0aab0        	sub	a10, a10, a11
    b304:	6399a0        	excw
    b307:	80afa2        	movi	a10, -128
    b30a:	649090        	extui	a9, a9, 0, 7
    b30d:	1088a0        	and	a8, a8, a10
    b310:	92a8      	l32i.n	a10, a2, 36
    b312:	208890        	or	a8, a8, a9
    b315:	64b080        	extui	a11, a8, 0, 7
    b318:	aaba      	add.n	a10, a10, a11
    b31a:	92a9      	s32i.n	a10, a2, 36
    b31c:	85c591        	l32r	a9, 0xfffeca30
    b31f:	208890        	or	a8, a8, a9
    b322:	0020c0        	memw
    b325:	446482        	s32i	a8, a4, 0x110
    b328:	8268      	l32i.n	a6, a2, 32
    b32a:	7269      	s32i.n	a6, a2, 28
    b32c:	85c271        	l32r	a7, 0xfffeca34
    b32f:	106670        	and	a6, a6, a7
    b332:	0020c0        	memw
    b335:	456462        	s32i	a6, a4, 0x114
    b338:	85c351        	l32r	a5, 0xfffeca44
    b33b:	203350        	or	a3, a3, a5
    b33e:	0020c0        	memw
    b341:	406432        	s32i	a3, a4, 0x100
    b344:	f01d      	excw
    b346:	360000        	excw
    b349:	410041        	l32r	a4, 0xfffdb74c
    b34c:	849a      	add.n	a8, a4, a9
    b34e:	080232        	l8ui	a3, a2, 8
    b351:	992442        	l32i	a4, a4, 0x264
    b354:	020c      	movi.n	a2, 0
    b356:	0448      	l32i.n	a4, a4, 0
    b358:	83ec      	bnez.n	a3, 0xb384
    b35a:	85cc81        	l32r	a8, 0xfffeca8c
    b35d:	190c      	movi.n	a9, 1
    b35f:	021882        	l16ui	a8, a8, 4
    b362:	85cdb1        	l32r	a11, 0xfffeca98
    b365:	b89c      	beqz.n	a8, 0xb384
    b367:	0a04a2        	l8ui	a10, a4, 10
    b36a:	020c      	movi.n	a2, 0
    b36c:	aa4a      	add.n	a10, a10, a4
    b36e:	0d0ac2        	l8ui	a12, a10, 13
    b371:	0c0aa2        	l8ui	a10, a10, 12
    b374:	11cc80        	slli	a12, a12, 8
    b377:	aaca      	add.n	a10, a10, a12
    b379:	f4a0a0        	extui	a10, a10, 0, 16
    b37c:	c0aab0        	sub	a10, a10, a11
    b37f:	8329a0        	moveqz	a2, a9, a10
    b382:	f01d      	excw
    b384:	f01d      	excw
    b386:	360000        	excw
    b389:	980041        	l32r	a4, 0xffff138c
    b38c:	933182        	excw
    b38f:	29ac85        	call0	0x34e58
    b392:	890b      	addi.n	a8, a9, -1
    b394:	0d9816        	beqz	a8, 0xb471
    b397:	fec9a2        	addi	a10, a9, -2
    b39a:	0dda16        	beqz	a10, 0xb47b
    b39d:	845851        	l32r	a5, 0xfffec500
    b3a0:	140c      	movi.n	a4, 1
    b3a2:	fdc9b2        	addi	a11, a9, -3
    b3a5:	0f0b16        	beqz	a11, 0xb499
    b3a8:	0c4926        	beqi	a9, 4, 0xb3b8
    b3ab:	075966        	bnei	a9, 5, 0xb3b6
    b3ae:	85c1a1        	l32r	a10, 0xfffecab4
    b3b1:	0b0c      	movi.n	a11, 0
    b3b3:	ac4625        	excw
    b3b6:	f01d      	excw
    b3b8:	85cec1        	l32r	a12, 0xfffecaf0
    b3bb:	0cc8      	l32i.n	a12, a12, 0
    b3bd:	4c8c      	beqz.n	a12, 0xb3c5
    b3bf:	7e2382        	l32i	a8, a3, 0x1f8
    b3c2:	0008e0        	excw
    b3c5:	b72292        	l32i	a9, a2, 0x2dc
    b3c8:	698c      	beqz.n	a9, 0xb3d2
    b3ca:	bb22a2        	l32i	a10, a2, 0x2ec
    b3cd:	2aa8      	l32i.n	a10, a10, 8
    b3cf:	091a66        	bnei	a10, 1, 0xb3dc
    b3d2:	02ad      	mov.n	a10, a2
    b3d4:	332382        	l32i	a8, a3, 204
    b3d7:	0b0c      	movi.n	a11, 0
    b3d9:	0008e0        	excw
    b3dc:	8249      	s32i.n	a4, a2, 32
    b3de:	9249      	s32i.n	a4, a2, 36
    b3e0:	847a61        	l32r	a6, 0xfffec5c8
    b3e3:	fea0d2        	movi	a13, 254
    b3e6:	85c6c1        	l32r	a12, 0xfffecb00
    b3e9:	0e0c      	movi.n	a14, 0
    b3eb:	0302b2        	l8ui	a11, a2, 3
    b3ee:	c2e9      	s32i.n	a14, a2, 48
    b3f0:	2a6b17        	bbci	a11, 1, 0xb41e
    b3f3:	fda0e2        	movi	a14, 253
    b3f6:	10ebe0        	and	a14, a11, a14
    b3f9:	10ded0        	and	a13, a14, a13
    b3fc:	0342d2        	s8i	a13, a2, 3
    b3ff:	05b8      	l32i.n	a11, a5, 0
    b401:	85a5a1        	l32r	a10, 0xfffeca98
    b404:	eba9      	s32i.n	a10, a11, 56
    b406:	0020c0        	memw
    b409:	c22c92        	l32i	a9, a12, 0x308
    b40c:	209940        	or	a9, a9, a4
    b40f:	0020c0        	memw
    b412:	c26c92        	s32i	a9, a12, 0x308
    b415:	a688      	l32i.n	a8, a6, 40
    b417:	da0c      	movi.n	a10, 13
    b419:	0008e0        	excw
    b41c:	f01d      	excw
    b41e:	306b27        	bbci	a11, 2, 0xb452
    b421:	fba0f2        	movi	a15, 251
    b424:	10bbf0        	and	a11, a11, a15
    b427:	10bbd0        	and	a11, a11, a13
    b42a:	0342b2        	s8i	a11, a2, 3
    b42d:	05a8      	l32i.n	a10, a5, 0
    b42f:	116ae2        	s32i	a14, a10, 68
    b432:	0020c0        	memw
    b435:	c22c92        	l32i	a9, a12, 0x308
    b438:	209940        	or	a9, a9, a4
    b43b:	0020c0        	memw
    b43e:	c26c92        	s32i	a9, a12, 0x308
    b441:	5e2382        	l32i	a8, a3, 0x178
    b444:	02ad      	mov.n	a10, a2
    b446:	0008e0        	excw
    b449:	a688      	l32i.n	a8, a6, 40
    b44b:	ea0c      	movi.n	a10, 14
    b44d:	0008e0        	excw
    b450:	f01d      	excw
    b452:	116b37        	bbci	a11, 3, 0xb467
    b455:	f7a092        	movi	a9, 247
    b458:	109b90        	and	a9, a11, a9
    b45b:	034292        	s8i	a9, a2, 3
    b45e:	a688      	l32i.n	a8, a6, 40
    b460:	ca0c      	movi.n	a10, 12
    b462:	0008e0        	excw
    b465:	f01d      	excw
    b467:	172382        	l32i	a8, a3, 92
    b46a:	02ad      	mov.n	a10, a2
    b46c:	0008e0        	excw
    b46f:	f01d      	excw
    b471:	1a2382        	l32i	a8, a3, 104
    b474:	02ad      	mov.n	a10, a2
    b476:	0008e0        	excw
    b479:	f01d      	excw
    b47b:	24c242        	addi	a4, a2, 36
    b47e:	562382        	l32i	a8, a3, 0x158
    b481:	04ad      	mov.n	a10, a4
    b483:	0008e0        	excw
    b486:	1522a2        	l32i	a10, a2, 84
    b489:	132292        	l32i	a9, a2, 76
    b48c:	55b9a7        	bgeu	a9, a10, 0xb4e5
    b48f:	312382        	l32i	a8, a3, 196
    b492:	04ad      	mov.n	a10, a4
    b494:	0008e0        	excw
    b497:	f01d      	excw
    b499:	24c262        	addi	a6, a2, 36
    b49c:	562382        	l32i	a8, a3, 0x158
    b49f:	06ad      	mov.n	a10, a6
    b4a1:	0008e0        	excw
    b4a4:	1522a2        	l32i	a10, a2, 84
    b4a7:	132292        	l32i	a9, a2, 76
    b4aa:	06b9a7        	bgeu	a9, a10, 0xb4b4
    b4ad:	06ad      	mov.n	a10, a6
    b4af:	ffe3a5        	excw
    b4b2:	f01d      	excw
    b4b4:	05b8      	l32i.n	a11, a5, 0
    b4b6:	3a2bb2        	l32i	a11, a11, 232
    b4b9:	1ceb37        	bbsi	a11, 3, 0xb4d9
    b4bc:	845fc1        	l32r	a12, 0xfffec638
    b4bf:	7e0cc2        	l8ui	a12, a12, 126
    b4c2:	131c66        	bnei	a12, 1, 0xb4d9
    b4c5:	762382        	l32i	a8, a3, 0x1d8
    b4c8:	06ad      	mov.n	a10, a6
    b4ca:	0008e0        	excw
    b4cd:	85cfb1        	l32r	a11, 0xfffecc0c
    b4d0:	000b92        	l8ui	a9, a11, 0
    b4d3:	9394a0        	movnez	a9, a4, a10
    b4d6:	004b92        	s8i	a9, a11, 0
    b4d9:	02ad      	mov.n	a10, a2
    b4db:	332382        	l32i	a8, a3, 204
    b4de:	0b0c      	movi.n	a11, 0
    b4e0:	0008e0        	excw
    b4e3:	f01d      	excw
    b4e5:	02ad      	mov.n	a10, a2
    b4e7:	332382        	l32i	a8, a3, 204
    b4ea:	1b0c      	movi.n	a11, 1
    b4ec:	0008e0        	excw
    b4ef:	f01d      	excw
    b4f1:	000000        	ill
    b4f4:	004136        	excw
    b4f7:	040c      	movi.n	a4, 0
    b4f9:	859351        	l32r	a5, 0xfffecb48
    b4fc:	b72282        	l32i	a8, a2, 0x2dc
    b4ff:	bb2292        	l32i	a9, a2, 0x2ec
    b502:	88ac      	beqz.n	a8, 0xb52e
    b504:	29a8      	l32i.n	a10, a9, 8
    b506:	241a26        	beqi	a10, 1, 0xb52e
    b509:	1422b2        	l32i	a11, a2, 80
    b50c:	5125c2        	l32i	a12, a5, 0x144
    b50f:	04cb16        	beqz	a11, 0xb55f
    b512:	04bd      	mov.n	a11, a4
    b514:	0c0c      	movi.n	a12, 0
    b516:	24c232        	addi	a3, a2, 36
    b519:	572582        	l32i	a8, a5, 0x15c
    b51c:	03ad      	mov.n	a10, a3
    b51e:	0008e0        	excw
    b521:	146242        	s32i	a4, a2, 80
    b524:	242582        	l32i	a8, a5, 144
    b527:	03ad      	mov.n	a10, a3
    b529:	0008e0        	excw
    b52c:	f01d      	excw
    b52e:	82a8      	l32i.n	a10, a2, 32
    b530:	154a66        	bnei	a10, 4, 0xb549
    b533:	09b8      	l32i.n	a11, a9, 0
    b535:	19c8      	l32i.n	a12, a9, 4
    b537:	091b66        	bnei	a11, 1, 0xb544
    b53a:	6ccc      	bnez.n	a12, 0xb544
    b53c:	382582        	l32i	a8, a5, 224
    b53f:	02ad      	mov.n	a10, a2
    b541:	0008e0        	excw
    b544:	116242        	s32i	a4, a2, 68
    b547:	f01d      	excw
    b549:	142292        	l32i	a9, a2, 80
    b54c:	59ac      	beqz.n	a9, 0xb575
    b54e:	146242        	s32i	a4, a2, 80
    b551:	156242        	s32i	a4, a2, 84
    b554:	242582        	l32i	a8, a5, 144
    b557:	24c2a2        	addi	a10, a2, 36
    b55a:	0008e0        	excw
    b55d:	f01d      	excw
    b55f:	1a0c      	movi.n	a10, 1
    b561:	c298      	l32i.n	a9, a2, 48
    b563:	834a30        	moveqz	a4, a10, a3
    b566:	430c      	movi.n	a3, 4
    b568:	39bc      	beqz.n	a9, 0xb59f
    b56a:	02ad      	mov.n	a10, a2
    b56c:	04bd      	mov.n	a11, a4
    b56e:	000ce0        	excw
    b571:	8239      	s32i.n	a3, a2, 32
    b573:	f01d      	excw
    b575:	c2b8      	l32i.n	a11, a2, 48
    b577:	85c6c1        	l32r	a12, 0xfffecc90
    b57a:	5b9c      	beqz.n	a11, 0xb593
    b57c:	0020c0        	memw
    b57f:	c42cc2        	l32i	a12, a12, 0x310
    b582:	64c0c0        	extui	a12, a12, 0, 7
    b585:	4cdc      	bnez.n	a12, 0xb59d
    b587:	02ad      	mov.n	a10, a2
    b589:	512582        	l32i	a8, a5, 0x144
    b58c:	0b0c      	movi.n	a11, 0
    b58e:	0008e0        	excw
    b591:	f01d      	excw
    b593:	02ad      	mov.n	a10, a2
    b595:	512582        	l32i	a8, a5, 0x144
    b598:	1b0c      	movi.n	a11, 1
    b59a:	0008e0        	excw
    b59d:	f01d      	excw
    b59f:	02ad      	mov.n	a10, a2
    b5a1:	04bd      	mov.n	a11, a4
    b5a3:	000ce0        	excw
    b5a6:	fff1c6        	j	0xb571
    b5a9:	000000        	ill
    b5ac:	004136        	excw
    b5af:	845fa1        	l32r	a10, 0xfffec72c
    b5b2:	1b0c      	movi.n	a11, 1
    b5b4:	7e4ab2        	s8i	a11, a10, 126
    b5b7:	080382        	l8ui	a8, a3, 8
    b5ba:	040c      	movi.n	a4, 0
    b5bc:	58ec      	bnez.n	a8, 0xb5e5
    b5be:	845891        	l32r	a9, 0xfffec720
    b5c1:	840751        	l32r	a5, 0xfffec5e0
    b5c4:	0998      	l32i.n	a9, a9, 0
    b5c6:	85a5c1        	l32r	a12, 0xfffecc5c
    b5c9:	e998      	l32i.n	a9, a9, 56
    b5cb:	80ca62        	addi	a6, a10, -128
    b5ce:	3919c7        	beq	a9, a12, 0xb60b
    b5d1:	20a1a2        	movi	a10, 0x120
    b5d4:	85bf21        	l32r	a2, 0xfffeccd0
    b5d7:	3443b2        	s8i	a11, a3, 52
    b5da:	0249      	s32i.n	a4, a2, 0
    b5dc:	0a4242        	s8i	a4, a2, 10
    b5df:	0252a2        	s16i	a10, a2, 4
    b5e2:	000fc6        	j	0xb625
    b5e5:	042d      	mov.n	a2, a4
    b5e7:	03ad      	mov.n	a10, a3
    b5e9:	859351        	l32r	a5, 0xfffecc38
    b5ec:	85ccc1        	l32r	a12, 0xfffecd1c
    b5ef:	0a02b2        	l8ui	a11, a2, 10
    b5f2:	021cc2        	l16ui	a12, a12, 4
    b5f5:	bb2a      	add.n	a11, a11, a2
    b5f7:	572582        	l32i	a8, a5, 0x15c
    b5fa:	bbcb      	addi.n	a11, a11, 12
    b5fc:	0008e0        	excw
    b5ff:	03ad      	mov.n	a10, a3
    b601:	242582        	l32i	a8, a5, 144
    b604:	b349      	s32i.n	a4, a3, 44
    b606:	0008e0        	excw
    b609:	f01d      	excw
    b60b:	792aa2        	l32i	a10, a10, 0x1e4
    b60e:	0a98      	l32i.n	a9, a10, 0
    b610:	99cc      	bnez.n	a9, 0xb61d
    b612:	85c1a1        	l32r	a10, 0xfffecd18
    b615:	04bd      	mov.n	a11, a4
    b617:	ac1fe5        	excw
    b61a:	9926a2        	l32i	a10, a6, 0x264
    b61d:	152582        	l32i	a8, a5, 84
    b620:	0008e0        	excw
    b623:	0a2d      	mov.n	a2, a10
    b625:	9926a2        	l32i	a10, a6, 0x264
    b628:	162582        	l32i	a8, a5, 88
    b62b:	02bd      	mov.n	a11, a2
    b62d:	0008e0        	excw
    b630:	ffecc6        	j	0xb5e7
    b633:	413600        	srli	a3, a0, 6
    b636:	a2e200        	excw
    b639:	a2b2c4        	excw
    b63c:	090c46        	j	0xda71
    b63f:	9299      	s32i.n	a9, a2, 36
    b641:	b2ba      	add.n	a11, a2, a11
    b643:	7e0b82        	l8ui	a8, a11, 126
    b646:	8593d1        	l32r	a13, 0xfffecc94
    b649:	3c6877        	bbci	a8, 7, 0xb689
    b64c:	290c      	movi.n	a9, 2
    b64e:	1c0c      	movi.n	a12, 1
    b650:	c2c9      	s32i.n	a12, a2, 48
    b652:	8299      	s32i.n	a9, a2, 32
    b654:	7e0ba2        	l8ui	a10, a11, 126
    b657:	60a0f2        	movi	a15, 96
    b65a:	10caf0        	and	a12, a10, a15
    b65d:	4dcc26        	beqi	a12, 32, 0xb6ae
    b660:	2c8af7        	bany	a10, a15, 0xb690
    b663:	24c2c2        	addi	a12, a2, 36
    b666:	b2ea      	add.n	a11, a2, a14
    b668:	4490a0        	extui	a9, a10, 0, 5
    b66b:	0dc916        	beqz	a9, 0xb74b
    b66e:	e90b      	addi.n	a14, a9, -1
    b670:	0e1e16        	beqz	a14, 0xb755
    b673:	fec9f2        	addi	a15, a9, -2
    b676:	0b8f16        	beqz	a15, 0xb732
    b679:	1c2dd2        	l32i	a13, a13, 112
    b67c:	fdc982        	addi	a8, a9, -3
    b67f:	09c816        	beqz	a8, 0xb71f
    b682:	02ad      	mov.n	a10, a2
    b684:	000de0        	excw
    b687:	f01d      	excw
    b689:	c299      	s32i.n	a9, a2, 48
    b68b:	390c      	movi.n	a9, 3
    b68d:	fff046        	j	0xb652
    b690:	4bdc66        	bnei	a12, 64, 0xb6df
    b693:	4490a0        	extui	a9, a10, 0, 5
    b696:	08c916        	beqz	a9, 0xb726
    b699:	fec9a2        	addi	a10, a9, -2
    b69c:	086a16        	beqz	a10, 0xb726
    b69f:	b2ea      	add.n	a11, a2, a14
    b6a1:	02ad      	mov.n	a10, a2
    b6a3:	1c2d82        	l32i	a8, a13, 112
    b6a6:	24c2c2        	addi	a12, a2, 36
    b6a9:	0008e0        	excw
    b6ac:	f01d      	excw
    b6ae:	b72292        	l32i	a9, a2, 0x2dc
    b6b1:	d9cc      	bnez.n	a9, 0xb6c2
    b6b3:	b2ea      	add.n	a11, a2, a14
    b6b5:	02ad      	mov.n	a10, a2
    b6b7:	1c2d82        	l32i	a8, a13, 112
    b6ba:	24c2c2        	addi	a12, a2, 36
    b6bd:	0008e0        	excw
    b6c0:	f01d      	excw
    b6c2:	282966        	bnei	a9, 2, 0xb6ee
    b6c5:	7f0ba2        	l8ui	a10, a11, 127
    b6c8:	e0a092        	movi	a9, 224
    b6cb:	1f1a97        	beq	a10, a9, 0xb6ee
    b6ce:	ca9c      	beqz.n	a10, 0xb6ee
    b6d0:	b2ea      	add.n	a11, a2, a14
    b6d2:	02ad      	mov.n	a10, a2
    b6d4:	462d82        	l32i	a8, a13, 0x118
    b6d7:	24c2c2        	addi	a12, a2, 36
    b6da:	0008e0        	excw
    b6dd:	f01d      	excw
    b6df:	b2ea      	add.n	a11, a2, a14
    b6e1:	02ad      	mov.n	a10, a2
    b6e3:	1c2d82        	l32i	a8, a13, 112
    b6e6:	24c2c2        	addi	a12, a2, 36
    b6e9:	0008e0        	excw
    b6ec:	f01d      	excw
    b6ee:	421bc2        	l16ui	a12, a11, 132
    b6f1:	047c16        	beqz	a12, 0xb73c
    b6f4:	580292        	l8ui	a9, a2, 88
    b6f7:	8458a1        	l32r	a10, 0xfffec858
    b6fa:	89cc      	bnez.n	a9, 0xb706
    b6fc:	0aa8      	l32i.n	a10, a10, 0
    b6fe:	85a5b1        	l32r	a11, 0xfffecd94
    b701:	eaa8      	l32i.n	a10, a10, 56
    b703:	351ab7        	beq	a10, a11, 0xb73c
    b706:	24c2b2        	addi	a11, a2, 36
    b709:	362d82        	l32i	a8, a13, 216
    b70c:	845fa1        	l32r	a10, 0xfffec888
    b70f:	85cc91        	l32r	a9, 0xfffece40
    b712:	7f4ac2        	s8i	a12, a10, 127
    b715:	0259c2        	s16i	a12, a9, 4
    b718:	02ad      	mov.n	a10, a2
    b71a:	0008e0        	excw
    b71d:	f01d      	excw
    b71f:	02ad      	mov.n	a10, a2
    b721:	000de0        	excw
    b724:	f01d      	excw
    b726:	b2ea      	add.n	a11, a2, a14
    b728:	492d82        	l32i	a8, a13, 0x124
    b72b:	02ad      	mov.n	a10, a2
    b72d:	0008e0        	excw
    b730:	f01d      	excw
    b732:	1f2d82        	l32i	a8, a13, 124
    b735:	02ad      	mov.n	a10, a2
    b737:	0008e0        	excw
    b73a:	f01d      	excw
    b73c:	b2ea      	add.n	a11, a2, a14
    b73e:	02ad      	mov.n	a10, a2
    b740:	1c2d82        	l32i	a8, a13, 112
    b743:	24c2c2        	addi	a12, a2, 36
    b746:	0008e0        	excw
    b749:	f01d      	excw
    b74b:	1d2d82        	l32i	a8, a13, 116
    b74e:	02ad      	mov.n	a10, a2
    b750:	0008e0        	excw
    b753:	f01d      	excw
    b755:	1e2d82        	l32i	a8, a13, 120
    b758:	02ad      	mov.n	a10, a2
    b75a:	0008e0        	excw
    b75d:	f01d      	excw
    b75f:	613600        	excw
    b762:	077100        	excw
    b765:	934184        	excw
    b768:	0a0c85        	call0	0x15834
    b76b:	0251a2        	s16i	a10, a1, 4
    b76e:	01a9      	s32i.n	a10, a1, 0
    b770:	080392        	l8ui	a9, a3, 8
    b773:	849a61        	l32r	a6, 0xfffec9dc
    b776:	f9dc      	bnez.n	a9, 0xb799
    b778:	9926a2        	l32i	a10, a6, 0x264
    b77b:	85cc51        	l32r	a5, 0xfffeceac
    b77e:	152782        	l32i	a8, a7, 84
    b781:	021552        	l16ui	a5, a5, 4
    b784:	0008e0        	excw
    b787:	0abd      	mov.n	a11, a10
    b789:	162782        	l32i	a8, a7, 88
    b78c:	9926a2        	l32i	a10, a6, 0x264
    b78f:	0b6d      	mov.n	a6, a11
    b791:	0008e0        	excw
    b794:	1d0c      	movi.n	a13, 1
    b796:	000d46        	j	0xb7cf
    b799:	1b2966        	bnei	a9, 2, 0xb7b8
    b79c:	141352        	l16ui	a5, a3, 40
    b79f:	152782        	l32i	a8, a7, 84
    b7a2:	9c26a2        	l32i	a10, a6, 0x270
    b7a5:	0008e0        	excw
    b7a8:	0abd      	mov.n	a11, a10
    b7aa:	162782        	l32i	a8, a7, 88
    b7ad:	9c26a2        	l32i	a10, a6, 0x270
    b7b0:	0b6d      	mov.n	a6, a11
    b7b2:	0008e0        	excw
    b7b5:	000506        	j	0xb7cd
    b7b8:	0f3966        	bnei	a9, 3, 0xb7cb
    b7bb:	340392        	l8ui	a9, a3, 52
    b7be:	06b916        	beqz	a9, 0xb82d
    b7c1:	352482        	l32i	a8, a4, 212
    b7c4:	03ad      	mov.n	a10, a3
    b7c6:	0008e0        	excw
    b7c9:	f01d      	excw
    b7cb:	0a6d      	mov.n	a6, a10
    b7cd:	2d0c      	movi.n	a13, 2
    b7cf:	04d516        	beqz	a5, 0xb820
    b7d2:	06ad      	mov.n	a10, a6
    b7d4:	05cd      	mov.n	a12, a5
    b7d6:	842581        	l32r	a8, 0xfffec86c
    b7d9:	01bd      	mov.n	a11, a1
    b7db:	312882        	l32i	a8, a8, 196
    b7de:	e14b      	addi.n	a14, a1, 4
    b7e0:	0008e0        	excw
    b7e3:	3403c2        	l8ui	a12, a3, 52
    b7e6:	1d1a66        	bnei	a10, 1, 0xb807
    b7e9:	0c5d      	mov.n	a5, a12
    b7eb:	02ad      	mov.n	a10, a2
    b7ed:	3b2482        	l32i	a8, a4, 236
    b7f0:	03bd      	mov.n	a11, a3
    b7f2:	0008e0        	excw
    b7f5:	340392        	l8ui	a9, a3, 52
    b7f8:	19bc      	beqz.n	a9, 0xb82d
    b7fa:	2f1526        	beqi	a5, 1, 0xb82d
    b7fd:	352482        	l32i	a8, a4, 212
    b800:	03ad      	mov.n	a10, a3
    b802:	0008e0        	excw
    b805:	f01d      	excw
    b807:	2cac      	beqz.n	a12, 0xb82d
    b809:	03ad      	mov.n	a10, a3
    b80b:	01b8      	l32i.n	a11, a1, 0
    b80d:	572482        	l32i	a8, a4, 0x15c
    b810:	0211c2        	l16ui	a12, a1, 4
    b813:	0008e0        	excw
    b816:	302482        	l32i	a8, a4, 192
    b819:	03ad      	mov.n	a10, a3
    b81b:	0008e0        	excw
    b81e:	f01d      	excw
    b820:	340392        	l8ui	a9, a3, 52
    b823:	698c      	beqz.n	a9, 0xb82d
    b825:	352482        	l32i	a8, a4, 212
    b828:	03ad      	mov.n	a10, a3
    b82a:	0008e0        	excw
    b82d:	f01d      	excw
    b82f:	413600        	srli	a3, a0, 6
    b832:	02ad00        	excw
    b835:	85cc21        	l32r	a2, 0xfffecf68
    b838:	a288      	l32i.n	a8, a2, 40
    b83a:	0008e0        	excw
    b83d:	090c      	movi.n	a9, 0
    b83f:	025292        	s16i	a9, a2, 4
    b842:	f01d      	excw
    b844:	004136        	excw
    b847:	85cc21        	l32r	a2, 0xfffecf78
    b84a:	85d031        	l32r	a3, 0xfffecf8c
    b84d:	02f8      	l32i.n	a15, a2, 0
    b84f:	5d63f2        	s32i	a15, a3, 0x174
    b852:	9248      	l32i.n	a4, a2, 36
    b854:	8288      	l32i.n	a8, a2, 32
    b856:	7298      	l32i.n	a9, a2, 28
    b858:	62a8      	l32i.n	a10, a2, 24
    b85a:	52b8      	l32i.n	a11, a2, 20
    b85c:	42c8      	l32i.n	a12, a2, 16
    b85e:	32d8      	l32i.n	a13, a2, 12
    b860:	22e8      	l32i.n	a14, a2, 8
    b862:	5c63e2        	s32i	a14, a3, 0x170
    b865:	6463d2        	s32i	a13, a3, 0x190
    b868:	b663c2        	s32i	a12, a3, 0x2d8
    b86b:	5963b2        	s32i	a11, a3, 0x164
    b86e:	7363a2        	s32i	a10, a3, 0x1cc
    b871:	766392        	s32i	a9, a3, 0x1d8
    b874:	5a6382        	s32i	a8, a3, 0x168
    b877:	606342        	s32i	a4, a3, 0x180
    b87a:	a228      	l32i.n	a2, a2, 40
    b87c:	426322        	s32i	a2, a3, 0x108
    b87f:	f01d      	excw
    b881:	000000        	ill
    b884:	004136        	excw
    b887:	85c621        	l32r	a2, 0xfffecfa0
    b88a:	0020c0        	memw
    b88d:	812292        	l32i	a9, a2, 0x204
    b890:	1a0c      	movi.n	a10, 1
    b892:	2099a0        	or	a9, a9, a10
    b895:	0020c0        	memw
    b898:	847a81        	l32r	a8, 0xfffeca80
    b89b:	816292        	s32i	a9, a2, 0x204
    b89e:	6888      	l32i.n	a8, a8, 24
    b8a0:	64a0a2        	movi	a10, 100
    b8a3:	0008e0        	excw
    b8a6:	0020c0        	memw
    b8a9:	8122b2        	l32i	a11, a2, 0x204
    b8ac:	ec7c      	movi.n	a12, -2
    b8ae:	10bbc0        	and	a11, a11, a12
    b8b1:	0020c0        	memw
    b8b4:	8162b2        	s32i	a11, a2, 0x204
    b8b7:	f01d      	excw
    b8b9:	000000        	ill
    b8bc:	004136        	excw
    b8bf:	85d031        	l32r	a3, 0xfffed000
    b8c2:	85cc81        	l32r	a8, 0xfffecff4
    b8c5:	6423f2        	l32i	a15, a3, 0x190
    b8c8:	38f9      	s32i.n	a15, a8, 12
    b8ca:	85d2f1        	l32r	a15, 0xfffed014
    b8cd:	5d2342        	l32i	a4, a3, 0x174
    b8d0:	602392        	l32i	a9, a3, 0x180
    b8d3:	5a23a2        	l32i	a10, a3, 0x168
    b8d6:	7623b2        	l32i	a11, a3, 0x1d8
    b8d9:	7323c2        	l32i	a12, a3, 0x1cc
    b8dc:	5923d2        	l32i	a13, a3, 0x164
    b8df:	b623e2        	l32i	a14, a3, 0x2d8
    b8e2:	5c2322        	l32i	a2, a3, 0x170
    b8e5:	5c63f2        	s32i	a15, a3, 0x170
    b8e8:	48e9      	s32i.n	a14, a8, 16
    b8ea:	58d9      	s32i.n	a13, a8, 20
    b8ec:	68c9      	s32i.n	a12, a8, 24
    b8ee:	78b9      	s32i.n	a11, a8, 28
    b8f0:	88a9      	s32i.n	a10, a8, 32
    b8f2:	9899      	s32i.n	a9, a8, 36
    b8f4:	0849      	s32i.n	a4, a8, 0
    b8f6:	2829      	s32i.n	a2, a8, 8
    b8f8:	422342        	l32i	a4, a3, 0x108
    b8fb:	85d121        	l32r	a2, 0xfffed040
    b8fe:	85d891        	l32r	a9, 0xfffed060
    b901:	85d7a1        	l32r	a10, 0xfffed060
    b904:	85d6b1        	l32r	a11, 0xfffed05c
    b907:	85d5c1        	l32r	a12, 0xfffed05c
    b90a:	85d4d1        	l32r	a13, 0xfffed05c
    b90d:	85d3e1        	l32r	a14, 0xfffed05c
    b910:	6463e2        	s32i	a14, a3, 0x190
    b913:	b663d2        	s32i	a13, a3, 0x2d8
    b916:	5963c2        	s32i	a12, a3, 0x164
    b919:	7363b2        	s32i	a11, a3, 0x1cc
    b91c:	7663a2        	s32i	a10, a3, 0x1d8
    b91f:	5a6392        	s32i	a9, a3, 0x168
    b922:	5d6322        	s32i	a2, a3, 0x174
    b925:	a849      	s32i.n	a4, a8, 40
    b927:	85db21        	l32r	a2, 0xfffed094
    b92a:	85da41        	l32r	a4, 0xfffed094
    b92d:	426342        	s32i	a4, a3, 0x108
    b930:	9e6322        	s32i	a2, a3, 0x278
    b933:	85d981        	l32r	a8, 0xfffed098
    b936:	606382        	s32i	a8, a3, 0x180
    b939:	f01d      	excw
    b93b:	413600        	srli	a3, a0, 6
    b93e:	f01d00        	subx8	a1, a13, a0
    b941:	000000        	ill
    b944:	002136        	excw
    b947:	307230        	xor	a7, a2, a3
    b94a:	606120        	abs	a6, a2
    b94d:	603130        	abs	a3, a3
    b950:	3423b6        	bltui	a3, 2, 0xb988
    b953:	415160        	srli	a5, a6, 1
    b956:	3a3537        	bltu	a5, a3, 0xb994
    b959:	40f650        	nsau	a5, a6
    b95c:	40f340        	nsau	a4, a3
    b95f:	c04450        	sub	a4, a4, a5
    b962:	401400        	ssl	a4
    b965:	a13300        	sll	a3, a3
    b968:	020c      	movi.n	a2, 0
    b96a:	0d9476        	excw
    b96d:	043637        	bltu	a6, a3, 0xb975
    b970:	c06630        	sub	a6, a6, a3
    b973:	221b      	addi.n	a2, a2, 1
    b975:	1122f0        	slli	a2, a2, 1
    b978:	413130        	srli	a3, a3, 1
    b97b:	013637        	bltu	a6, a3, 0xb980
    b97e:	221b      	addi.n	a2, a2, 1
    b980:	605020        	neg	a5, a2
    b983:	a32570        	movltz	a2, a5, a7
    b986:	f01d      	excw
    b988:	539c      	beqz.n	a3, 0xb9a1
    b98a:	602060        	neg	a2, a6
    b98d:	b32670        	movgez	a2, a6, a7
    b990:	f01d      	excw
    b992:	370000        	excw
    b995:	0c1036        	excw
    b998:	f47c12        	excw
    b99b:	a32470        	movltz	a2, a4, a7
    b99e:	f01d      	excw
    b9a0:	000000        	ill
    b9a3:	494400        	excw
    b9a6:	0c3056        	bnez	a0, 0xba6d
    b9a9:	f01d02        	l16ui	a0, a13, 0x1e0
    b9ac:	002136        	excw
    b9af:	2f23b6        	bltui	a3, 2, 0xb9e2
    b9b2:	026d      	mov.n	a6, a2
    b9b4:	40f650        	nsau	a5, a6
    b9b7:	40f340        	nsau	a4, a3
    b9ba:	2ab547        	bgeu	a5, a4, 0xb9e8
    b9bd:	c04450        	sub	a4, a4, a5
    b9c0:	401400        	ssl	a4
    b9c3:	a13300        	sll	a3, a3
    b9c6:	00a022        	movi	a2, 0
    b9c9:	0d9476        	excw
    b9cc:	043637        	bltu	a6, a3, 0xb9d4
    b9cf:	c06630        	sub	a6, a6, a3
    b9d2:	221b      	addi.n	a2, a2, 1
    b9d4:	1122f0        	slli	a2, a2, 1
    b9d7:	413130        	srli	a3, a3, 1
    b9da:	023637        	bltu	a6, a3, 0xb9e0
    b9dd:	01c222        	addi	a2, a2, 1
    b9e0:	f01d      	excw
    b9e2:	b38c      	beqz.n	a3, 0xb9f1
    b9e4:	f01d      	excw
    b9e6:	370000        	excw
    b9e9:	0c0c36        	excw
    b9ec:	f01d12        	l16ui	a1, a13, 0x1e0
    b9ef:	000000        	ill
    b9f2:	440000        	extui	a0, a0, 0, 5
    b9f5:	5649      	s32i.n	a4, a6, 20
    b9f7:	020c30        	excw
    b9fa:	f01d      	excw
    b9fc:	002136        	excw
    b9ff:	2923b6        	bltui	a3, 2, 0xba2c
    ba02:	40f250        	nsau	a5, a2
    ba05:	40f340        	nsau	a4, a3
    ba08:	16b547        	bgeu	a5, a4, 0xba22
    ba0b:	c04450        	sub	a4, a4, a5
    ba0e:	401400        	ssl	a4
    ba11:	a13300        	sll	a3, a3
    ba14:	f03d      	nop.n
    ba16:	089476        	excw
    ba19:	023237        	bltu	a2, a3, 0xba1f
    ba1c:	c02230        	sub	a2, a2, a3
    ba1f:	413130        	srli	a3, a3, 1
    ba22:	023237        	bltu	a2, a3, 0xba28
    ba25:	c02230        	sub	a2, a2, a3
    ba28:	f01d      	excw
    ba2a:	cc0000        	excw
    ba2d:	000053        	excw
    ba30:	494400        	excw
    ba33:	0c3056        	bnez	a0, 0xbafa
    ba36:	f01d02        	l16ui	a0, a13, 0x1e0
    ba39:	000000        	ill
    ba3c:	004136        	excw
    ba3f:	1b44b6        	bltui	a4, 4, 0xba5e
    ba42:	205320        	or	a5, a3, a2
    ba45:	145050        	extui	a5, a5, 0, 2
    ba48:	25dc      	bnez.n	a5, 0xba5e
    ba4a:	418240        	srli	a8, a4, 2
    ba4d:	0d9876        	excw
    ba50:	03a8      	l32i.n	a10, a3, 0
    ba52:	0298      	l32i.n	a9, a2, 0
    ba54:	0699a7        	bne	a9, a10, 0xba5e
    ba57:	224b      	addi.n	a2, a2, 4
    ba59:	334b      	addi.n	a3, a3, 4
    ba5b:	fcc442        	addi	a4, a4, -4
    ba5e:	046d      	mov.n	a6, a4
    ba60:	440b      	addi.n	a4, a4, -1
    ba62:	110426        	beqi	a4, -1, 0xba77
    ba65:	0e9676        	excw
    ba68:	000372        	l8ui	a7, a3, 0
    ba6b:	000282        	l8ui	a8, a2, 0
    ba6e:	221b      	addi.n	a2, a2, 1
    ba70:	089877        	bne	a8, a7, 0xba7c
    ba73:	440b      	addi.n	a4, a4, -1
    ba75:	331b      	addi.n	a3, a3, 1
    ba77:	020c      	movi.n	a2, 0
    ba79:	f01d      	excw
    ba7b:	287000        	excw
    ba7e:	f01dc0        	subx8	a1, a13, a12
    ba81:	000000        	ill
    ba84:	947600        	extui	a7, a0, 6, 10
    ba87:	6209      	s32i.n	a0, a2, 24
    ba89:	1b0003        	excw
    ba8c:	456233        	excw
    ba8f:	551b00        	extui	a1, a0, 27, 6
    ba92:	f01d      	excw
    ba94:	ed74b6        	bltui	a4, 7, 0xba85
    ba97:	000362        	l8ui	a6, a3, 0
    ba9a:	331b      	addi.n	a3, a3, 1
    ba9c:	ffc442        	addi	a4, a4, -1
    ba9f:	004562        	s8i	a6, a5, 0
    baa2:	01c552        	addi	a5, a5, 1
    baa5:	276517        	bbci	a5, 1, 0xbad0
    baa8:	d964b6        	bltui	a4, 6, 0xba85
    baab:	000362        	l8ui	a6, a3, 0
    baae:	010372        	l8ui	a7, a3, 1
    bab1:	332b      	addi.n	a3, a3, 2
    bab3:	fec442        	addi	a4, a4, -2
    bab6:	004562        	s8i	a6, a5, 0
    bab9:	014572        	s8i	a7, a5, 1
    babc:	552b      	addi.n	a5, a5, 2
    babe:	000386        	j	0xbad0
    bac1:	000000        	ill
    bac4:	002136        	excw
    bac7:	205220        	or	a5, a2, a2
    baca:	c6e207        	bbsi	a2, 0, 0xba94
    bacd:	d7e217        	bbsi	a2, 1, 0xbaa8
    bad0:	417440        	srli	a7, a4, 4
    bad3:	03a082        	movi	a8, 3
    bad6:	5a8387        	bany	a3, a8, 0xbb34
    bad9:	159776        	excw
    badc:	0368      	l32i.n	a6, a3, 0
    bade:	1378      	l32i.n	a7, a3, 4
    bae0:	0569      	s32i.n	a6, a5, 0
    bae2:	2368      	l32i.n	a6, a3, 8
    bae4:	1579      	s32i.n	a7, a5, 4
    bae6:	3378      	l32i.n	a7, a3, 12
    bae8:	2569      	s32i.n	a6, a5, 8
    baea:	10c332        	addi	a3, a3, 16
    baed:	3579      	s32i.n	a7, a5, 12
    baef:	10c552        	addi	a5, a5, 16
    baf2:	0b6437        	bbci	a4, 3, 0xbb01
    baf5:	0368      	l32i.n	a6, a3, 0
    baf7:	1378      	l32i.n	a7, a3, 4
    baf9:	338b      	addi.n	a3, a3, 8
    bafb:	0569      	s32i.n	a6, a5, 0
    bafd:	1579      	s32i.n	a7, a5, 4
    baff:	558b      	addi.n	a5, a5, 8
    bb01:	07e427        	bbsi	a4, 2, 0xbb0c
    bb04:	14e417        	bbsi	a4, 1, 0xbb1c
    bb07:	21e407        	bbsi	a4, 0, 0xbb2c
    bb0a:	f01d      	excw
    bb0c:	0368      	l32i.n	a6, a3, 0
    bb0e:	334b      	addi.n	a3, a3, 4
    bb10:	0569      	s32i.n	a6, a5, 0
    bb12:	554b      	addi.n	a5, a5, 4
    bb14:	04e417        	bbsi	a4, 1, 0xbb1c
    bb17:	11e407        	bbsi	a4, 0, 0xbb2c
    bb1a:	f01d      	excw
    bb1c:	001362        	l16ui	a6, a3, 0
    bb1f:	332b      	addi.n	a3, a3, 2
    bb21:	005562        	s16i	a6, a5, 0
    bb24:	552b      	addi.n	a5, a5, 2
    bb26:	02e407        	bbsi	a4, 0, 0xbb2c
    bb29:	f01d      	excw
    bb2b:	036200        	excw
    bb2e:	456200        	extui	a6, a0, 18, 5
    bb31:	f01d00        	subx8	a1, a13, a0
    bb34:	ffa416        	beqz	a4, 0xbb32
    bb37:	402300        	ssa8l	a3
    bb3a:	10b380        	and	a11, a3, a8
    bb3d:	c033b0        	sub	a3, a3, a11
    bb40:	0368      	l32i.n	a6, a3, 0
    bb42:	219776        	excw
    bb45:	1378      	l32i.n	a7, a3, 4
    bb47:	2388      	l32i.n	a8, a3, 8
    bb49:	816760        	src	a6, a7, a6
    bb4c:	0569      	s32i.n	a6, a5, 0
    bb4e:	3398      	l32i.n	a9, a3, 12
    bb50:	817870        	src	a7, a8, a7
    bb53:	1579      	s32i.n	a7, a5, 4
    bb55:	4368      	l32i.n	a6, a3, 16
    bb57:	818980        	src	a8, a9, a8
    bb5a:	2589      	s32i.n	a8, a5, 8
    bb5c:	10c332        	addi	a3, a3, 16
    bb5f:	819690        	src	a9, a6, a9
    bb62:	3599      	s32i.n	a9, a5, 12
    bb64:	10c552        	addi	a5, a5, 16
    bb67:	156437        	bbci	a4, 3, 0xbb80
    bb6a:	1378      	l32i.n	a7, a3, 4
    bb6c:	2388      	l32i.n	a8, a3, 8
    bb6e:	816760        	src	a6, a7, a6
    bb71:	0569      	s32i.n	a6, a5, 0
    bb73:	338b      	addi.n	a3, a3, 8
    bb75:	817870        	src	a7, a8, a7
    bb78:	1579      	s32i.n	a7, a5, 4
    bb7a:	08c552        	addi	a5, a5, 8
    bb7d:	206880        	or	a6, a8, a8
    bb80:	0c6427        	bbci	a4, 2, 0xbb90
    bb83:	1378      	l32i.n	a7, a3, 4
    bb85:	334b      	addi.n	a3, a3, 4
    bb87:	816760        	src	a6, a7, a6
    bb8a:	0569      	s32i.n	a6, a5, 0
    bb8c:	554b      	addi.n	a5, a5, 4
    bb8e:	076d      	mov.n	a6, a7
    bb90:	33ba      	add.n	a3, a3, a11
    bb92:	06e417        	bbsi	a4, 1, 0xbb9c
    bb95:	18e407        	bbsi	a4, 0, 0xbbb1
    bb98:	f01d      	excw
    bb9a:	620000        	excw
    bb9d:	720003        	excw
    bba0:	2b0103        	excw
    bba3:	456233        	excw
    bba6:	457200        	extui	a7, a0, 18, 5
    bba9:	552b01        	l32r	a0, 0xfffe1058
    bbac:	01e407        	bbsi	a4, 0, 0xbbb1
    bbaf:	f01d      	excw
    bbb1:	000362        	l8ui	a6, a3, 0
    bbb4:	004562        	s8i	a6, a5, 0
    bbb7:	f01d      	excw
    bbb9:	000000        	ill
    bbbc:	947600        	extui	a7, a0, 6, 10
    bbbf:	453204        	excw
    bbc2:	551b00        	extui	a1, a0, 27, 6
    bbc5:	f01d      	excw
    bbc7:	84b600        	extui	a11, a0, 6, 9
    bbca:	4532f1        	l32r	a15, 0xfffdd094
    bbcd:	551b00        	extui	a1, a0, 27, 6
    bbd0:	440b      	addi.n	a4, a4, -1
    bbd2:	286517        	bbci	a5, 1, 0xbbfe
    bbd5:	e484b6        	bltui	a4, 8, 0xbbbd
    bbd8:	005532        	s16i	a3, a5, 0
    bbdb:	552b      	addi.n	a5, a5, 2
    bbdd:	fec442        	addi	a4, a4, -2
    bbe0:	000686        	j	0xbbfe
    bbe3:	213600        	srai	a3, a0, 6
    bbe6:	303000        	xor	a3, a0, a0
    bbe9:	738074        	excw
    bbec:	337011        	l32r	a1, 0xfffd89ac
    bbef:	730020        	excw
    bbf2:	337011        	l32r	a1, 0xfffd89b4
    bbf5:	025d20        	excw
    bbf8:	cce207        	bbsi	a2, 0, 0xbbc8
    bbfb:	d6e217        	bbsi	a2, 1, 0xbbd5
    bbfe:	417440        	srli	a7, a4, 4
    bc01:	0a9776        	excw
    bc04:	0539      	s32i.n	a3, a5, 0
    bc06:	1539      	s32i.n	a3, a5, 4
    bc08:	2539      	s32i.n	a3, a5, 8
    bc0a:	3539      	s32i.n	a3, a5, 12
    bc0c:	10c552        	addi	a5, a5, 16
    bc0f:	066437        	bbci	a4, 3, 0xbc19
    bc12:	0539      	s32i.n	a3, a5, 0
    bc14:	1539      	s32i.n	a3, a5, 4
    bc16:	08c552        	addi	a5, a5, 8
    bc19:	036427        	bbci	a4, 2, 0xbc20
    bc1c:	0539      	s32i.n	a3, a5, 0
    bc1e:	554b      	addi.n	a5, a5, 4
    bc20:	046417        	bbci	a4, 1, 0xbc28
    bc23:	005532        	s16i	a3, a5, 0
    bc26:	552b      	addi.n	a5, a5, 2
    bc28:	026407        	bbci	a4, 0, 0xbc2e
    bc2b:	004532        	s8i	a3, a5, 0
    bc2e:	f01d      	excw
    bc30:	000000        	ill
    bc33:	020100        	excw
    bc36:	aa0102        	l8ui	a0, a1, 170
    bc39:	000000        	ill