../git/linux-firmware/./ath6k/AR6004/hw1.3/fw-3.bin:     file format binary


Disassembly of section .data:

00000000 <.data>:
       0:	414351        	l32r	a5, 0xfffd050c
       3:	412d      	excw
       5:	364854        	excw
       8:	4c4b      	addi.n	a4, a12, 4
       a:	000000        	ill
       d:	0a0000        	excw
      10:	000000        	ill
      13:	352e33        	excw
      16:	2e          	.byte 0x2e
      17:	322e30        	excw
      1a:	363533        	excw
      1d:	000001        	l32r	a0, 0xfffc0020
      20:	000400        	excw
      23:	e40000        	extui	a0, a0, 0, 15
      26:	500650        	excw
      29:	000003        	excw
      2c:	c5b500        	extui	a11, a0, 21, 13
      2f:	530000        	excw
      32:	544d47        	ball	a13, a4, 0x8a
      35:	000001        	l32r	a0, 0xfffc0038
      38:	800000        	add	a0, a0, a0
      3b:	0099      	s32i.n	a9, a0, 0
      3d:	000024        	excw
      40:	000100        	excw
      43:	004000        	break	0, 0
      46:	01a810        	slli	a10, a8, 31
      49:	400404        	excw
      4c:	060000        	excw
      4f:	080701        	l32r	a0, 0xfffc206c
      52:	000022        	l8ui	a2, a0, 0
      55:	ff          	.byte 0xff
      56:	7f          	.byte 0x7f
      57:	009a      	add.n	a0, a0, a9
      59:	001c00        	excw
      5c:	78c800        	excw
      5f:	000043        	excw
      62:	40a8      	l32i.n	a10, a0, 16
      64:	001000        	excw
      67:	010000        	slli	a0, a0, 32
      6a:	40a810        	excw
      6d:	040100        	extui	a0, a0, 1, 1
      70:	080104        	excw
      73:	0008      	l32i.n	a0, a0, 0
      75:	999a      	add.n	a9, a9, a9
      77:	007200        	waiti	2
      7a:	090000        	excw
      7d:	006136        	excw
      80:	740021        	l32r	a2, 0xfffdd080
      83:	7401a1        	l32r	a10, 0xfffdd088
      86:	1288      	l32i.n	a8, a2, 4
      88:	7402b1        	l32r	a11, 0xfffdd090
      8b:	1018a7        	beq	a8, a10, 0x9f
      8e:	0a9d      	mov.n	a9, a10
      90:	c0bba0        	sub	a11, a11, a10
      93:	00a0a2        	movi	a10, 0
      96:	05ab76        	excw
      99:	0049a2        	s8i	a10, a9, 0
      9c:	01c992        	addi	a9, a9, 1
      9f:	002282        	l32i	a8, a2, 0
      a2:	7403a1        	l32r	a10, 0xfffdd0b0
      a5:	740491        	l32r	a9, 0xfffdd0b8
      a8:	64a6c2        	movi	a12, 0x664
      ab:	04a0b2        	movi	a11, 4
      ae:	01b9      	s32i.n	a11, a1, 0
      b0:	11c9      	s32i.n	a12, a1, 4
      b2:	01bd      	mov.n	a11, a1
      b4:	a66a92        	s32i	a9, a10, 0x298
      b7:	8a0c      	movi.n	a10, 8
      b9:	0008e0        	excw
      bc:	7a8c      	beqz.n	a10, 0xc7
      be:	762282        	l32i	a8, a2, 0x1d8
      c1:	0008e0        	excw
      c4:	000065        	excw
      c7:	f01d      	excw
      c9:	004136        	excw
      cc:	7406a1        	l32r	a10, 0xfffdd0e4
      cf:	740321        	l32r	a2, 0xfffdd0dc
      d2:	740081        	l32r	a8, 0xfffdd0d4
      d5:	740591        	l32r	a9, 0xfffdd0ec
      d8:	532882        	l32i	a8, a8, 0x14c
      db:	9a6292        	s32i	a9, a2, 0x268
      de:	0008e0        	excw
      e1:	7408a1        	l32r	a10, 0xfffdd104
      e4:	7407b1        	l32r	a11, 0xfffdd100
      e7:	9a62b2        	s32i	a11, a2, 0x268
      ea:	8662a2        	s32i	a10, a2, 0x218
      ed:	f01d      	excw
      ef:	999a00        	excw
      f2:	fffc00        	excw
      f5:	ff          	.byte 0xff
      f6:	ff          	.byte 0xff
      f7:	998000        	excw
      fa:	006400        	rsil	a0, 4
      fd:	010000        	slli	a0, a0, 32
     100:	400000        	ssr	a0
     103:	a82000        	excw
     106:	400040        	excw
     109:	ae          	.byte 0xae
     10a:	000040        	excw
     10d:	060106        	j	0x1915
     110:	0108      	l32i.n	a0, a1, 0
     112:	201004        	excw
     115:	004027        	ball	a0, a2, 0x119
     118:	277c      	movi.n	a7, -14
     11a:	a40040        	extui	a0, a4, 0, 11
     11d:	009163        	excw
     120:	65b8      	l32i.n	a11, a5, 24
     122:	000091        	l32r	a9, 0xfffc0124
     125:	000c      	movi.n	a0, 0
     127:	ffff00        	excw
     12a:	100000        	and	a0, a0, a0
     12d:	0099a1        	l32r	a10, 0xfffc0394
     130:	000800        	excw
     133:	0b6800        	excw
     136:	580000        	excw
     139:	000d      	mov.n	a0, a0
     13b:	088c00        	excw
     13e:	120000        	excw
     141:	0008      	l32i.n	a0, a0, 0
     143:	840800        	extui	a0, a0, 8, 9
     146:	b80096        	bltz	a0, 0xfffffcca
     149:	009683        	excw
     14c:	400200        	ssr	a2
     14f:	a84000        	excw
     152:	c00040        	sub	a0, a0, a4
     155:	40a9      	s32i.n	a10, a0, 16
     157:	aa4100        	excw
     15a:	2c0040        	excw
     15d:	40a8      	l32i.n	a10, a0, 16
     15f:	a80000        	excw
     162:	100040        	and	a0, a0, a4
     165:	000000        	ill
     168:	a81001        	l32r	a0, 0xfffea1a8
     16b:	010040        	slli	a0, a0, 28
     16e:	200404        	excw
     171:	40a8      	l32i.n	a10, a0, 16
     173:	ae4000        	excw
     176:	100040        	and	a0, a0, a4
     179:	40a8      	l32i.n	a10, a0, 16
     17b:	000400        	excw
     17e:	020000        	excw
     181:	000001        	l32r	a0, 0xfffc0184
     184:	9a0000        	excw
     187:	0099      	s32i.n	a9, a0, 0
     189:	072a      	add.n	a0, a7, a2
     18b:	2e0000        	excw
     18e:	006136        	excw
     191:	740031        	l32r	a3, 0xfffdd194
     194:	7401a1        	l32r	a10, 0xfffdd198
     197:	1388      	l32i.n	a8, a3, 4
     199:	7402b1        	l32r	a11, 0xfffdd1a4
     19c:	1018a7        	beq	a8, a10, 0x1b0
     19f:	0a9d      	mov.n	a9, a10
     1a1:	c0bba0        	sub	a11, a11, a10
     1a4:	00a0a2        	movi	a10, 0
     1a7:	05ab76        	excw
     1aa:	0049a2        	s8i	a10, a9, 0
     1ad:	01c992        	addi	a9, a9, 1
     1b0:	002382        	l32i	a8, a3, 0
     1b3:	7403a1        	l32r	a10, 0xfffdd1c0
     1b6:	740491        	l32r	a9, 0xfffdd1c8
     1b9:	64a6c2        	movi	a12, 0x664
     1bc:	04a0b2        	movi	a11, 4
     1bf:	01b9      	s32i.n	a11, a1, 0
     1c1:	11c9      	s32i.n	a12, a1, 4
     1c3:	01bd      	mov.n	a11, a1
     1c5:	a66a92        	s32i	a9, a10, 0x298
     1c8:	8a0c      	movi.n	a10, 8
     1ca:	0008e0        	excw
     1cd:	da8c      	beqz.n	a10, 0x1de
     1cf:	752382        	l32i	a8, a3, 0x1d4
     1d2:	6a0c      	movi.n	a10, 6
     1d4:	0008e0        	excw
     1d7:	02ad      	mov.n	a10, a2
     1d9:	0000a5        	excw
     1dc:	0a2d      	mov.n	a2, a10
     1de:	f01d      	excw
     1e0:	360000        	excw
     1e3:	310041        	l32r	a4, 0xfffcc5e4
     1e6:	917405        	call0	0xfff91928
     1e9:	297403        	excw
     1ec:	298203        	excw
     1ef:	1a0cb3        	excw
     1f2:	046867        	bbci	a8, 6, 0x1fa
     1f5:	20a2a0        	or	a10, a2, a10
     1f8:	03a9      	s32i.n	a10, a3, 0
     1fa:	9629b2        	l32i	a11, a9, 0x258
     1fd:	01a022        	movi	a2, 1
     200:	039b16        	beqz	a11, 0x23d
     203:	7406a1        	l32r	a10, 0xfffdd21c
     206:	002aa2        	l32i	a10, a10, 0
     209:	740881        	l32r	a8, 0xfffdd22c
     20c:	0008e0        	excw
     20f:	7407a1        	l32r	a10, 0xfffdd22c
     212:	0aa8      	l32i.n	a10, a10, 0
     214:	2e0981        	l32r	a8, 0xfffcba38
     217:	810b04        	excw
     21a:	887400        	excw
     21d:	e078      	l32i.n	a7, a0, 56
     21f:	0008      	l32i.n	a0, a0, 0
     221:	13a9      	s32i.n	a10, a3, 4
     223:	0001e5        	excw
     226:	059a66        	bnei	a10, 10, 0x22f
     229:	a20c      	movi.n	a2, 10
     22b:	2329      	s32i.n	a2, a3, 8
     22d:	f01d      	excw
     22f:	005165        	excw
     232:	0059a5        	excw
     235:	2328      	l32i.n	a2, a3, 8
     237:	2e          	.byte 0x2e
     238:	005a04        	excw
     23b:	2e          	.byte 0x2e
     23c:	2e1104        	excw
     23f:	0c6004        	excw
     242:	c10a      	add.n	a12, a1, a0
     244:	740b      	addi.n	a7, a4, -1
     246:	740591        	l32r	a9, 0xfffdd25c
     249:	740a81        	l32r	a8, 0xfffdd274
     24c:	012992        	l32i	a9, a9, 4
     24f:	07a876        	excw
     252:	0019b2        	l16ui	a11, a9, 0
     255:	992b      	addi.n	a9, a9, 2
     257:	30aba0        	xor	a10, a11, a10
     25a:	0f1ac7        	beq	a10, a12, 0x26d
     25d:	740081        	l32r	a8, 0xfffdd260
     260:	5e2882        	l32i	a8, a8, 0x178
     263:	2e0ca1        	l32r	a10, 0xfffcba94
     266:	0c5304        	excw
     269:	f01da2        	l16ui	a10, a13, 0x1e0
     26c:	020c      	movi.n	a2, 0
     26e:	2e          	.byte 0x2e
     26f:	033407        	bltu	a4, a0, 0x276
     272:	f97c      	movi.n	a9, -1
     274:	740551        	l32r	a5, 0xfffdd288
     277:	740d21        	l32r	a2, 0xfffdd2ac
     27a:	1558      	l32i.n	a5, a5, 4
     27c:	040c      	movi.n	a4, 0
     27e:	044542        	s8i	a4, a5, 4
     281:	054542        	s8i	a4, a5, 5
     284:	054d      	mov.n	a4, a5
     286:	07a276        	excw
     289:	001482        	l16ui	a8, a4, 0
     28c:	442b      	addi.n	a4, a4, 2
     28e:	303830        	xor	a3, a8, a3
     291:	309390        	xor	a9, a3, a9
     294:	044592        	s8i	a9, a5, 4
     297:	419890        	srli	a9, a9, 8
     29a:	054592        	s8i	a9, a5, 5
     29d:	2e          	.byte 0x2e
     29e:	488107        	bany	a1, a0, 0x2ea
     2a1:	039c      	beqz.n	a3, 0x2b5
     2a3:	050c      	movi.n	a5, 0
     2a5:	f03d      	nop.n
     2a7:	079376        	excw
     2aa:	000242        	l8ui	a4, a2, 0
     2ad:	221b      	addi.n	a2, a2, 1
     2af:	305450        	xor	a5, a4, a5
     2b2:	000046        	j	0x2b7
     2b5:	050c      	movi.n	a5, 0
     2b7:	f27c      	movi.n	a2, -1
     2b9:	302520        	xor	a2, a5, a2
     2bc:	742020        	extui	a2, a2, 0, 8
     2bf:	2e          	.byte 0x2e
     2c0:	1c5806        	j	0x7424
     2c3:	3748      	l32i.n	a4, a7, 12
     2c5:	03b8      	l32i.n	a11, a3, 0
     2c7:	f27c      	movi.n	a2, -1
     2c9:	f01d      	excw
     2cb:	03cd      	mov.n	a12, a3
     2cd:	02bd      	mov.n	a11, a2
     2cf:	7405a1        	l32r	a10, 0xfffdd2e4
     2d2:	740081        	l32r	a8, 0xfffdd2d4
     2d5:	1aa8      	l32i.n	a10, a10, 4
     2d7:	3f2882        	l32i	a8, a8, 252
     2da:	38caa2        	addi	a10, a10, 56
     2dd:	0008e0        	excw
     2e0:	2e          	.byte 0x2e
     2e1:	2e7e05        	call0	0x2eac4
     2e4:	2e4c05        	call0	0x2e7a8
     2e7:	8108      	l32i.n	a0, a1, 32
     2e9:	3c08      	l32i.n	a0, a12, 12
     2eb:	8708      	l32i.n	a0, a7, 32
     2ed:	092e13        	excw
     2f0:	a3d230        	movltz	a13, a2, a3
     2f3:	2ee8      	l32i.n	a14, a14, 8
     2f5:	330b      	addi.n	a3, a3, -1
     2f7:	aada      	add.n	a10, a10, a13
     2f9:	2e          	.byte 0x2e
     2fa:	3208      	l32i.n	a0, a2, 12
     2fc:	004136        	excw
     2ff:	884c      	movi.n	a8, 72
     301:	2e          	.byte 0x2e
     302:	280b      	addi.n	a2, a8, -1
     304:	740ed1        	l32r	a13, 0xfffdd33c
     307:	2e          	.byte 0x2e
     308:	2818      	l32i.n	a1, a8, 8
     30a:	c8a082        	movi	a8, 200
     30d:	2e          	.byte 0x2e
     30e:	810b      	addi.n	a8, a1, -1
     310:	0fd101        	l32r	a0, 0xfffc4254
     313:	2e          	.byte 0x2e
     314:	362915        	excw
     317:	f60041        	l32r	a4, 0xffffdb18
     31a:	052e63        	excw
     31d:	05a125        	excw
     320:	0a8874        	excw
     323:	10e807        	bbsi	a8, 0, 0x337
     326:	02bd      	mov.n	a11, a2
     328:	6c0c      	movi.n	a12, 6
     32a:	2e          	.byte 0x2e
     32b:	2708      	l32i.n	a0, a7, 8
     32d:	2e8b      	addi.n	a2, a14, 8
     32f:	500c      	movi.n	a0, 5
     331:	740541        	l32r	a4, 0xfffdd348
     334:	0c0482        	l8ui	a8, a4, 12
     337:	025d      	mov.n	a5, a2
     339:	0688b6        	bltui	a8, 8, 0x343
     33c:	0d5356        	bnez	a3, 0x415
     33f:	2e          	.byte 0x2e
     340:	ad3304        	excw
     343:	5b0c03        	excw
     346:	741281        	l32r	a8, 0xfffdd390
     349:	0008e0        	excw
     34c:	0c0a56        	bnez	a10, 0x410
     34f:	2e          	.byte 0x2e
     350:	130d05        	call0	0x13424
     353:	2e          	.byte 0x2e
     354:	5d8205        	call0	0x5db78
     357:	0c0c02        	l8ui	a0, a12, 12
     35a:	7f1c      	movi.n	a15, 23
     35c:	44a6d2        	movi	a13, 0x644
     35f:	741031        	l32r	a3, 0xfffdd3a0
     362:	dca6b2        	movi	a11, 0x6dc
     365:	7411e1        	l32r	a14, 0xfffdd3ac
     368:	66bca7        	bgeu	a12, a10, 0x3d2
     36b:	02bfc7        	bgeu	a15, a12, 0x371
     36e:	0026c6        	j	0x40d
     371:	000582        	l8ui	a8, a5, 0
     374:	14d8      	l32i.n	a13, a4, 4
     376:	c4a662        	movi	a6, 0x6c4
     379:	9dca      	add.n	a9, a13, a12
     37b:	dd6a      	add.n	a13, a13, a6
     37d:	cc1b      	addi.n	a12, a12, 1
     37f:	44a662        	movi	a6, 0x644
     382:	996a      	add.n	a9, a9, a6
     384:	804982        	s8i	a8, a9, 128
     387:	020562        	l8ui	a6, a5, 2
     38a:	1478      	l32i.n	a7, a4, 4
     38c:	62a692        	movi	a9, 0x662
     38f:	772a      	add.n	a7, a7, a2
     391:	87ba      	add.n	a8, a7, a11
     393:	779a      	add.n	a7, a7, a9
     395:	804762        	s8i	a6, a7, 128
     398:	1498      	l32i.n	a9, a4, 4
     39a:	010562        	l8ui	a6, a5, 1
     39d:	992a      	add.n	a9, a9, a2
     39f:	236600        	excw
     3a2:	12c222        	addi	a2, a2, 18
     3a5:	793a      	add.n	a7, a9, a3
     3a7:	a06660        	addx4	a6, a6, a6
     3aa:	044862        	s8i	a6, a8, 4
     3ad:	99ea      	add.n	a9, a9, a14
     3af:	416860        	srli	a6, a6, 8
     3b2:	054862        	s8i	a6, a8, 5
     3b5:	040582        	l8ui	a8, a5, 4
     3b8:	2e          	.byte 0x2e
     3b9:	033405        	call0	0x36fc
     3bc:	555b      	addi.n	a5, a5, 5
     3be:	236600        	excw
     3c1:	2e          	.byte 0x2e
     3c2:	471c04        	excw
     3c5:	042e04        	excw
     3c8:	471a      	add.n	a4, a7, a1
     3ca:	e54605        	call0	0xfffe582c
     3cd:	ff          	.byte 0xff
     3ce:	373fc7        	bltu	a15, a12, 0x409
     3d1:	740061        	l32r	a6, 0xfffdd3d4
     3d4:	18cd72        	addi	a7, a13, 24
     3d7:	5dca      	add.n	a5, a13, a12
     3d9:	0b0c      	movi.n	a11, 0
     3db:	2c1c      	movi.n	a12, 18
     3dd:	fd7c      	movi.n	a13, -1
     3df:	0045d2        	s8i	a13, a5, 0
     3e2:	3e2682        	l32i	a8, a6, 248
     3e5:	14a8      	l32i.n	a10, a4, 4
     3e7:	dca6d2        	movi	a13, 0x6dc
     3ea:	aa2a      	add.n	a10, a10, a2
     3ec:	2e          	.byte 0x2e
     3ed:	778106        	j	0x1e1f5
     3f0:	1c0b      	addi.n	a1, a12, -1
     3f2:	a82c      	movi.n	a8, 42
     3f4:	268214        	excw
     3f7:	3e          	.byte 0x3e
     3f8:	aa2a      	add.n	a10, a10, a2
     3fa:	2e3a      	add.n	a2, a14, a3
     3fc:	221004        	excw
     3ff:	1b12c2        	l16ui	a12, a2, 54
     402:	957755        	excw
     405:	cf          	.byte 0xcf
     406:	020c      	movi.n	a2, 0
     408:	f01d      	excw
     40a:	f863b6        	bltui	a3, 6, 0x406
     40d:	525b      	addi.n	a5, a2, 5
     40f:	fbc332        	addi	a3, a3, -5
     412:	14c8      	l32i.n	a12, a4, 4
     414:	0402b2        	l8ui	a11, a2, 4
     417:	06dcc2        	addmi	a12, a12, 0x600
     41a:	204cb2        	s8i	a11, a12, 32
     41d:	ffc5c6        	j	0x338
     420:	2e          	.byte 0x2e
     421:	288306        	j	0xa631
     424:	2e          	.byte 0x2e
     425:	820c      	movi.n	a2, 8
     427:	2e2300        	excw
     42a:	008210        	excw
     42d:	0bda      	add.n	a0, a11, a13
     42f:	2e          	.byte 0x2e
     430:	0e          	.byte 0xe
     431:	b20082        	l8ui	a8, a0, 178
     434:	d270a2        	excw
     437:	f20ca1        	l32r	a10, 0xffffcc68
     43a:	728ca1        	l32r	a10, 0xfffdce6c
     43d:	a798a1        	l32r	a10, 0xfffea2a0
     440:	66bc      	beqz.n	a6, 0x47a
     442:	02acb6        	bltui	a12, 12, 0x448
     445:	002686        	j	0x4e3
     448:	9ea162        	movi	a6, 0x19e
     44b:	2e          	.byte 0x2e
     44c:	018205        	call0	0x1c70
     44f:	0ca1e2        	movi	a14, 0x10c
     452:	9dca      	add.n	a9, a13, a12
     454:	ddfa      	add.n	a13, a13, a15
     456:	cc1b      	addi.n	a12, a12, 1
     458:	99ea      	add.n	a9, a9, a14
     45a:	804982        	s8i	a8, a9, 128
     45d:	020592        	l8ui	a9, a5, 2
     460:	1438      	l32i.n	a3, a4, 4
     462:	1ea182        	movi	a8, 0x11e
     465:	332a      	add.n	a3, a3, a2
     467:	e37a      	add.n	a14, a3, a7
     469:	338a      	add.n	a3, a3, a8
     46b:	804392        	s8i	a9, a3, 128
     46e:	1488      	l32i.n	a8, a4, 4
     470:	010592        	l8ui	a9, a5, 1
     473:	882a      	add.n	a8, a8, a2
     475:	239900        	excw
     478:	12c222        	addi	a2, a2, 18
     47b:	38ba      	add.n	a3, a8, a11
     47d:	a09990        	addx4	a9, a9, a9
     480:	044e92        	s8i	a9, a14, 4
     483:	886a      	add.n	a8, a8, a6
     485:	419890        	srli	a9, a9, 8
     488:	054e92        	s8i	a9, a14, 5
     48b:	040562        	l8ui	a6, a5, 4
     48e:	d84862        	s8i	a6, a8, 216
     491:	052ee2        	l32i	a14, a14, 20
     494:	ee7e81        	l32r	a8, 0xffffbe8c
     497:	eee023        	excw
     49a:	43e2a0        	excw
     49d:	e8e004        	excw
     4a0:	43e241        	l32r	a4, 0xfffd1428
     4a3:	e54605        	call0	0xfffe5904
     4a6:	ff          	.byte 0xff
     4a7:	36acf6        	bgeui	a12, 12, 0x4e1
     4aa:	740051        	l32r	a5, 0xfffdd4ac
     4ad:	6dcb      	addi.n	a6, a13, 12
     4af:	3dca      	add.n	a3, a13, a12
     4b1:	2e          	.byte 0x2e
     4b2:	7d8107        	bany	a1, a0, 0x533
     4b5:	a80043        	excw
     4b8:	258214        	excw
     4bb:	3e          	.byte 0x3e
     4bc:	aa2a      	add.n	a10, a10, a2
     4be:	2e7a      	add.n	a2, a14, a7
     4c0:	8108      	l32i.n	a0, a1, 32
     4c2:	827a      	add.n	a8, a2, a7
     4c4:	a83e25        	excw
     4c7:	a2d214        	excw
     4ca:	072e70        	excw
     4cd:	220d82        	l8ui	a8, a13, 34
     4d0:	1b12c2        	l16ui	a12, a2, 54
     4d3:	936733        	excw
     4d6:	2e          	.byte 0x2e
     4d7:	7d8112        	excw
     4da:	e84cb2        	s8i	a11, a12, 232
     4dd:	ffc746        	j	0x3fe
     4e0:	2e          	.byte 0x2e
     4e1:	850a      	add.n	a8, a5, a0
     4e3:	006120        	rsil	a2, 1
     4e6:	740571        	l32r	a7, 0xfffdd4fc
     4e9:	2a0c      	movi.n	a10, 2
     4eb:	0c0792        	l8ui	a9, a7, 12
     4ee:	280c      	movi.n	a8, 2
     4f0:	051926        	beqi	a9, 1, 0x4f9
     4f3:	022926        	beqi	a9, 2, 0x4f9
     4f6:	0a8966        	bnei	a9, 8, 0x504
     4f9:	010262        	l8ui	a6, a2, 1
     4fc:	0002b2        	l8ui	a11, a2, 0
     4ff:	0489      	s32i.n	a8, a4, 0
     501:	0723f6        	bgeui	a3, 2, 0x50c
     504:	f27c      	movi.n	a2, -1
     506:	f01d      	excw
     508:	0128      	l32i.n	a2, a1, 0
     50a:	f01d      	excw
     50c:	ff8616        	beqz	a6, 0x508
     50f:	fec392        	addi	a9, a3, -2
     512:	293967        	bltu	a9, a6, 0x53f
     515:	5430b0        	extui	a3, a11, 0, 6
     518:	275537        	bbc	a5, a3, 0x543
     51b:	c22b      	addi.n	a12, a2, 2
     51d:	326b67        	bbci	a11, 6, 0x553
     520:	06bd      	mov.n	a11, a6
     522:	0d0c      	movi.n	a13, 0
     524:	00a2e2        	movi	a14, 0x200
     527:	0cad      	mov.n	a10, a12
     529:	741481        	l32r	a8, 0xfffdd57c
     52c:	741521        	l32r	a2, 0xfffdd580
     52f:	a12882        	l32i	a8, a8, 0x284
     532:	02cd      	mov.n	a12, a2
     534:	0008e0        	excw
     537:	02cd      	mov.n	a12, a2
     539:	74b0a0        	extui	a11, a10, 0, 8
     53c:	000546        	j	0x555
     53f:	2e          	.byte 0x2e
     540:	0c3b04        	excw
     543:	07b202        	excw
     546:	aa0c      	movi.n	a10, 10
     548:	8bf696        	bltz	a6, 0xfffffe0b
     54b:	991b01        	l32r	a0, 0xfffe69b8
     54e:	0499      	s32i.n	a9, a4, 0
     550:	f01d      	excw
     552:	06bd      	mov.n	a11, a6
     554:	501326        	beqi	a3, 1, 0x5a8
     557:	572326        	beqi	a3, 2, 0x5b2
     55a:	5e4326        	beqi	a3, 4, 0x5bc
     55d:	655326        	beqi	a3, 5, 0x5c6
     560:	1a6326        	beqi	a3, 6, 0x57e
     563:	277326        	beqi	a3, 7, 0x58e
     566:	668326        	beqi	a3, 8, 0x5d0
     569:	9d0c      	movi.n	a13, 9
     56b:	7013d7        	beq	a3, a13, 0x5df
     56e:	779326        	beqi	a3, 10, 0x5e9
     571:	f5c3e2        	addi	a14, a3, -11
     574:	07be16        	beqz	a14, 0x5f3
     577:	020c      	movi.n	a2, 0
     579:	04a8      	l32i.n	a10, a4, 0
     57b:	fff146        	j	0x544
     57e:	0c07f2        	l8ui	a15, a7, 12
     581:	192fb6        	bltui	a15, 2, 0x59e
     584:	0cad      	mov.n	a10, a12
     586:	ffd5a5        	excw
     589:	0a2d      	mov.n	a2, a10
     58b:	fffa86        	j	0x579
     58e:	0c0782        	l8ui	a8, a7, 12
     591:	0e28b6        	bltui	a8, 2, 0x5a3
     594:	0cad      	mov.n	a10, a12
     596:	2ee4a5        	excw
     599:	f61004        	excw
     59c:	ff          	.byte 0xff
     59d:	020c      	movi.n	a2, 0
     59f:	fff546        	j	0x578
     5a2:	020c      	movi.n	a2, 0
     5a4:	fff406        	j	0x578
     5a7:	0cad      	mov.n	a10, a12
     5a9:	2ef2e5        	excw
     5ac:	f11404        	excw
     5af:	2e          	.byte 0x2e
     5b0:	c50a04        	excw
     5b3:	ff          	.byte 0xff
     5b4:	0a2d      	mov.n	a2, a10
     5b6:	ffef06        	j	0x576
     5b9:	0cad      	mov.n	a10, a12
     5bb:	2ecfa5        	excw
     5be:	ec1404        	excw
     5c1:	ff          	.byte 0xff
     5c2:	0cad      	mov.n	a10, a12
     5c4:	2ec725        	excw
     5c7:	ea1404        	excw
     5ca:	ff          	.byte 0xff
     5cb:	20acc0        	or	a10, a12, a12
     5ce:	20c550        	or	a12, a5, a5
     5d1:	0003e5        	excw
     5d4:	202aa0        	or	a2, a10, a10
     5d7:	2ee646        	j	0xc174
     5da:	c82304        	excw
     5dd:	ff          	.byte 0xff
     5de:	0a2d      	mov.n	a2, a10
     5e0:	ffe3c6        	j	0x573
     5e3:	0cad      	mov.n	a10, a12
     5e5:	042e65        	excw
     5e8:	e14637        	ball	a6, a3, 0x5cd
     5eb:	2e          	.byte 0x2e
     5ec:	c94104        	excw
     5ef:	2e          	.byte 0x2e
     5f0:	de1404        	excw
     5f3:	2e          	.byte 0x2e
     5f4:	248205        	call0	0x24e18
     5f7:	026d      	mov.n	a6, a2
     5f9:	838c      	beqz.n	a3, 0x605
     5fb:	020c      	movi.n	a2, 0
     5fd:	000652        	l8ui	a5, a6, 0
     600:	004452        	s8i	a5, a4, 0
     603:	f01d      	excw
     605:	f27c      	movi.n	a2, -1
     607:	2e          	.byte 0x2e
     608:	8708      	l32i.n	a0, a7, 32
     60a:	f65c      	movi.n	a6, 95
     60c:	052eb3        	excw
     60f:	075c86        	j	0x2385
     612:	313a64        	excw
     615:	987405        	call0	0xfff98d58
     618:	004103        	excw
     61b:	e91774        	excw
     61e:	02bd10        	excw
     621:	4c0c      	movi.n	a12, 4
     623:	13a8      	l32i.n	a10, a3, 4
     625:	3f2482        	l32i	a8, a4, 252
     628:	14caa2        	addi	a10, a10, 20
     62b:	0008e0        	excw
     62e:	0398      	l32i.n	a9, a3, 0
     630:	0de907        	bbsi	a9, 0, 0x641
     633:	b24b      	addi.n	a11, a2, 4
     635:	6c0c      	movi.n	a12, 6
     637:	2e          	.byte 0x2e
     638:	2e1405        	call0	0x2e77c
     63b:	738605        	call0	0x73e9c
     63e:	2eab      	addi.n	a2, a14, 10
     640:	0e08      	l32i.n	a0, a14, 0
     642:	2eeb      	addi.n	a2, a14, 14
     644:	8709      	s32i.n	a0, a7, 32
     646:	6128      	l32i.n	a2, a1, 24
     648:	c39c00        	excw
     64b:	050c      	movi.n	a5, 0
     64d:	04dd      	mov.n	a13, a4
     64f:	0159      	s32i.n	a5, a1, 0
     651:	02ad      	mov.n	a10, a2
     653:	03bd      	mov.n	a11, a3
     655:	01cd      	mov.n	a12, a1
     657:	ffe6e5        	excw
     65a:	bacc      	bnez.n	a10, 0x669
     65c:	01b8      	l32i.n	a11, a1, 0
     65e:	0733b7        	bltu	a3, a11, 0x669
     661:	22ba      	add.n	a2, a2, a11
     663:	c033b0        	sub	a3, a3, a11
     666:	fe3356        	bnez	a3, 0x64d
     669:	2e          	.byte 0x2e
     66a:	658a05        	call0	0x65f0c
     66d:	006136        	excw
     670:	740621        	l32r	a2, 0xfffdd688
     673:	0288      	l32i.n	a8, a2, 0
     675:	0888      	l32i.n	a8, a8, 0
     677:	2e          	.byte 0x2e
     678:	0a3904        	excw
     67b:	0288      	l32i.n	a8, a2, 0
     67d:	01bd      	mov.n	a11, a1
     67f:	3888      	l32i.n	a8, a8, 12
     681:	6c0c      	movi.n	a12, 6
     683:	0008e0        	excw
     686:	0288      	l32i.n	a8, a2, 0
     688:	1888      	l32i.n	a8, a8, 4
     68a:	0008e0        	excw
     68d:	0201a2        	l8ui	a10, a1, 2
     690:	7fa0b2        	movi	a11, 127
     693:	4197a0        	srli	a9, a10, 7
     696:	c9cc      	bnez.n	a9, 0x6a6
     698:	0a0ba7        	bnone	a11, a10, 0x6a6
     69b:	0401a2        	l8ui	a10, a1, 4
     69e:	41c7a0        	srli	a12, a10, 7
     6a1:	1ccc      	bnez.n	a12, 0x6a6
     6a3:	018ba7        	bany	a11, a10, 0x6a8
     6a6:	f01d      	excw
     6a8:	7405e1        	l32r	a14, 0xfffdd6bc
     6ab:	1ee8      	l32i.n	a14, a14, 4
     6ad:	7ed8      	l32i.n	a13, a14, 28
     6af:	bfaff2        	movi	a15, -65
     6b2:	10ddf0        	and	a13, a13, a15
     6b5:	1c4ed2        	s8i	a13, a14, 28
     6b8:	41d8d0        	srli	a13, a13, 8
     6bb:	1d4ed2        	s8i	a13, a14, 29
     6be:	2e          	.byte 0x2e
     6bf:	1e0605        	call0	0x1e720
     6c2:	2e          	.byte 0x2e
     6c3:	1f0605        	call0	0x1f724
     6c6:	2e          	.byte 0x2e
     6c7:	308805        	call0	0x30f48
     6ca:	740731        	l32r	a3, 0xfffdd6e8
     6cd:	0388      	l32i.n	a8, a3, 0
     6cf:	2e          	.byte 0x2e
     6d0:	886005        	call0	0xfff88cd4
     6d3:	288803        	excw
     6d6:	02ad      	mov.n	a10, a2
     6d8:	0008e0        	excw
     6db:	2e          	.byte 0x2e
     6dc:	811805        	call0	0xfff81860
     6df:	887407        	bbci	a4, 16, 0x66b
     6e2:	2e08      	l32i.n	a0, a14, 8
     6e4:	2e6405        	call0	0x2ed28
     6e7:	088106        	j	0x28ef
     6ea:	1a0c      	movi.n	a10, 1
     6ec:	fffd25        	excw
     6ef:	740761        	l32r	a6, 0xfffdd70c
     6f2:	741671        	l32r	a7, 0xfffdd74c
     6f5:	741741        	l32r	a4, 0xfffdd754
     6f8:	190c      	movi.n	a9, 1
     6fa:	740521        	l32r	a2, 0xfffdd710
     6fd:	0a0c      	movi.n	a10, 0
     6ff:	42a9      	s32i.n	a10, a2, 16
     701:	22a9      	s32i.n	a10, a2, 8
     703:	0c4292        	s8i	a9, a2, 12
     706:	541b      	addi.n	a5, a4, 1
     708:	340b      	addi.n	a3, a4, -1
     70a:	40c772        	addi	a7, a7, 64
     70d:	03ad      	mov.n	a10, a3
     70f:	0688      	l32i.n	a8, a6, 0
     711:	00a4b2        	movi	a11, 0x400
     714:	3888      	l32i.n	a8, a8, 12
     716:	01cd      	mov.n	a12, a1
     718:	0008e0        	excw
     71b:	4aac      	beqz.n	a10, 0x743
     71d:	e90c      	movi.n	a9, 14
     71f:	031a97        	beq	a10, a9, 0x726
     722:	3a0c      	movi.n	a10, 3
     724:	22a9      	s32i.n	a10, a2, 8
     726:	2298      	l32i.n	a9, a2, 8
     728:	498c      	beqz.n	a9, 0x730
     72a:	024926        	beqi	a9, 4, 0x730
     72d:	0d5966        	bnei	a9, 5, 0x73e
     730:	ffa5e5        	excw
     733:	42d8      	l32i.n	a13, a2, 16
     735:	22c8      	l32i.n	a12, a2, 8
     737:	2b0c      	movi.n	a11, 2
     739:	93bcd0        	movnez	a11, a12, a13
     73c:	22b9      	s32i.n	a11, a2, 8
     73e:	fff9a5        	excw
     741:	f01d      	excw
     743:	01b8      	l32i.n	a11, a1, 0
     745:	fc4b16        	beqz	a11, 0x70d
     748:	42f8      	l32i.n	a15, a2, 16
     74a:	4007e2        	l8ui	a14, a7, 64
     74d:	ff1b      	addi.n	a15, a15, 1
     74f:	42f9      	s32i.n	a15, a2, 16
     751:	d11e66        	bnei	a14, 1, 0x726
     754:	04ad      	mov.n	a10, a4
     756:	bb0b      	addi.n	a11, a11, -1
     758:	7418c1        	l32r	a12, 0xfffdd7b8
     75b:	ffe765        	excw
     75e:	044a56        	bnez	a10, 0x7a6
     761:	0c0292        	l8ui	a9, a2, 12
     764:	391926        	beqi	a9, 1, 0x7a1
     767:	362926        	beqi	a9, 2, 0x7a1
     76a:	3f8966        	bnei	a9, 8, 0x7ad
     76d:	190c      	movi.n	a9, 1
     76f:	01b8      	l32i.n	a11, a1, 0
     771:	c99c      	beqz.n	a9, 0x791
     773:	03ad      	mov.n	a10, a3
     775:	bb0b      	addi.n	a11, a11, -1
     777:	74b0b0        	extui	a11, a11, 0, 8
     77a:	ffa4a5        	excw
     77d:	7416c1        	l32r	a12, 0xfffdd7d8
     780:	01b8      	l32i.n	a11, a1, 0
     782:	cbca      	add.n	a12, a11, a12
     784:	7f0cc2        	l8ui	a12, a12, 127
     787:	c0cca0        	sub	a12, a12, a10
     78a:	f7fc56        	bnez	a12, 0x70d
     78d:	bb0b      	addi.n	a11, a11, -1
     78f:	01b9      	s32i.n	a11, a1, 0
     791:	05ad      	mov.n	a10, a5
     793:	fecbb2        	addi	a11, a11, -2
     796:	fc7c      	movi.n	a12, -1
     798:	ffe9e5        	excw
     79b:	f6ea16        	beqz	a10, 0x70d
     79e:	000106        	j	0x7a6
     7a1:	090c      	movi.n	a9, 0
     7a3:	fff206        	j	0x76f
     7a6:	390c      	movi.n	a9, 3
     7a8:	2299      	s32i.n	a9, a2, 8
     7aa:	ffde86        	j	0x728
     7ad:	690c      	movi.n	a9, 6
     7af:	fffd46        	j	0x7a8
     7b2:	000000        	ill
     7b5:	620000        	excw
     7b8:	6f          	.byte 0x6f
     7b9:	647261        	l32r	a6, 0xfffd9984
     7bc:	616420        	excw
     7bf:	206174        	excw
     7c2:	656863        	excw
     7c5:	736b63        	excw
     7c8:	206d75        	excw
     7cb:	696166        	bnei	a1, 6, 0x838
     7ce:	0a6c      	movi.n	a10, -32
     7d0:	9a0000        	excw
     7d3:	0099      	s32i.n	a9, a0, 0
     7d5:	fffc      	bnez.n	a15, 0x818
     7d7:	ff          	.byte 0xff
     7d8:	ff          	.byte 0xff
     7d9:	998000        	excw
     7dc:	09a000        	excw
     7df:	1b0000        	excw
     7e2:	400000        	ssr	a0
     7e5:	a8b000        	excw
     7e8:	680040        	excw
     7eb:	af          	.byte 0xaf
     7ec:	000040        	excw
     7ef:	061b06        	j	0x205f
     7f2:	e808      	l32i.n	a0, a8, 56
     7f4:	004075        	excw
     7f7:	999a74        	excw
     7fa:	1a3c00        	excw
     7fd:	4c0040        	excw
     800:	99aa      	add.n	a9, a9, a10
     802:	75dc00        	extui	a13, a0, 28, 8
     805:	140040        	extui	a0, a4, 0, 2
     808:	999b      	addi.n	a9, a9, 9
     80a:	042000        	extui	a2, a0, 0, 1
     80d:	400092        	l8ui	a9, a0, 64
     810:	402b      	addi.n	a4, a0, 2
     812:	093400        	excw
     815:	31c8      	l32i.n	a12, a1, 12
     817:	c49c      	beqz.n	a4, 0x837
     819:	800095        	excw
     81c:	004085        	call0	0xc28
     81f:	8c0000        	excw
     822:	d848      	l32i.n	a4, a8, 52
     824:	1b8b      	addi.n	a1, a11, 8
     826:	850804        	excw
     829:	0048      	l32i.n	a4, a0, 0
     82b:	488600        	excw
     82e:	870000        	excw
     831:	0048      	l32i.n	a4, a0, 0
     833:	488800        	excw
     836:	890000        	excw
     839:	0048      	l32i.n	a4, a0, 0
     83b:	ff          	.byte 0xff
     83c:	000000        	ill
     83f:	488200        	excw
     842:	041b      	addi.n	a0, a4, 1
     844:	2d7460        	excw
     847:	780040        	excw
     84a:	402d      	excw
     84c:	0e7000        	excw
     84f:	140093        	excw
     852:	000090        	excw
     855:	402d90        	excw
     858:	2d6800        	excw
     85b:	600040        	neg	a0, a4
     85e:	004083        	excw
     861:	930e54        	excw
     864:	000000        	ill
     867:	609010        	neg	a9, a1
     86a:	402d      	excw
     86c:	86f000        	excw
     86f:	dc0040        	excw
     872:	004016        	beqz	a0, 0x87a
     875:	402d50        	excw
     878:	2d5400        	excw
     87b:	310040        	srai	a0, a4, 16
     87e:	915b      	addi.n	a9, a1, 5
     880:	1be400        	excw
     883:	874004        	excw
     886:	d40040        	extui	a0, a4, 0, 14
     889:	004075        	excw
     88c:	408784        	excw
     88f:	877000        	excw
     892:	500040        	excw
     895:	009a61        	l32r	a6, 0xfffc0b00
     898:	9b1c      	movi.n	a11, 25
     89a:	0099      	s32i.n	a9, a0, 0
     89c:	9d4c      	movi.n	a13, 73
     89e:	0099      	s32i.n	a9, a0, 0
     8a0:	9f7c      	movi.n	a15, -7
     8a2:	0099      	s32i.n	a9, a0, 0
     8a4:	a1a8      	l32i.n	a10, a1, 40
     8a6:	0099      	s32i.n	a9, a0, 0
     8a8:	a3bc      	beqz.n	a3, 0x8e6
     8aa:	0099      	s32i.n	a9, a0, 0
     8ac:	99a3d4        	excw
     8af:	a6d000        	excw
     8b2:	0099      	s32i.n	a9, a0, 0
     8b4:	99a804        	excw
     8b7:	a18000        	sll	a8, a0
     8ba:	0099      	s32i.n	a9, a0, 0
     8bc:	99a3a0        	excw
     8bf:	a86400        	excw
     8c2:	0099      	s32i.n	a9, a0, 0
     8c4:	99a8c4        	excw
     8c7:	6f5000        	excw
     8ca:	0a9a      	add.n	a0, a10, a9
     8cc:	9a6f50        	excw
     8cf:	3809      	s32i.n	a0, a8, 12
     8d1:	4079      	s32i.n	a7, a0, 16
     8d3:	772800        	excw
     8d6:	e80040        	excw
     8d9:	004091        	l32r	a9, 0xfffc09dc
     8dc:	4090c4        	excw
     8df:	894000        	excw
     8e2:	2c0040        	excw
     8e5:	4088      	l32i.n	a8, a0, 16
     8e7:	020000        	excw
     8ea:	bd0040        	excw
     8ed:	ef          	.byte 0xef
     8ee:	700000        	excw
     8f1:	8e          	.byte 0x8e
     8f2:	9c0040        	excw
     8f5:	004086        	j	0x9fb
     8f8:	407744        	excw
     8fb:	500000        	excw
     8fe:	9404f2        	l8ui	a15, a4, 148
     901:	409a      	add.n	a4, a0, a9
     903:	854800        	extui	a4, a0, 24, 9
     906:	c40096        	bltz	a0, 0x54a
     909:	40a8      	l32i.n	a10, a0, 16
     90b:	a86800        	excw
     90e:	0c0040        	excw
     911:	8e          	.byte 0x8e
     912:	dc0040        	excw
     915:	0099b2        	l16si	a11, a9, 0
     918:	b27c      	movi.n	a2, -5
     91a:	0099      	s32i.n	a9, a0, 0
     91c:	408fe0        	excw
     91f:	762c00        	excw
     922:	c80040        	excw
     925:	40a8      	l32i.n	a10, a0, 16
     927:	89d000        	excw
     92a:	0c0040        	excw
     92d:	408a      	add.n	a4, a0, a8
     92f:	b56000        	extui	a6, a0, 16, 12
     932:	0099      	s32i.n	a9, a0, 0
     934:	b5ac      	beqz.n	a5, 0x963
     936:	0099      	s32i.n	a9, a0, 0
     938:	4078a0        	wer
     93b:	400800        	ssr	a8
     93e:	000000        	ill
     941:	000040        	excw
     944:	ff          	.byte 0xff
     945:	bf          	.byte 0xbf
     946:	ff          	.byte 0xff
     947:	ff          	.byte 0xff
     948:	ff          	.byte 0xff
     949:	0f          	.byte 0xf
     94a:	cc0000        	excw
     94d:	40a8      	l32i.n	a10, a0, 16
     94f:	b84c00        	excw
     952:	0099      	s32i.n	a9, a0, 0
     954:	b5f8      	l32i.n	a15, a5, 44
     956:	0099      	s32i.n	a9, a0, 0
     958:	b93c      	movi.n	a9, 59
     95a:	0099      	s32i.n	a9, a0, 0
     95c:	ba4c      	movi.n	a10, 75
     95e:	0099      	s32i.n	a9, a0, 0
     960:	99b9e4        	excw
     963:	bb0400        	excw
     966:	0099      	s32i.n	a9, a0, 0
     968:	407250        	wer
     96b:	760000        	excw
     96e:	380040        	excw
     971:	2e          	.byte 0x2e
     972:	e00040        	subx4	a0, a0, a4
     975:	40a8      	l32i.n	a10, a0, 16
     977:	93ec00        	movnez	a14, a12, a0
     97a:	5c0040        	excw
     97d:	8e          	.byte 0x8e
     97e:	041b      	addi.n	a0, a4, 1
     980:	a82341        	l32r	a4, 0xfffeaa0c
     983:	944c      	movi.n	a4, 73
     985:	d00093        	excw
     988:	9468      	l32i.n	a6, a4, 36
     98a:	000000        	ill
     98d:	0e          	.byte 0xe
     98e:	a0a8      	l32i.n	a10, a0, 40
     990:	408d      	excw
     992:	698800        	excw
     995:	480094        	excw
     998:	40a9      	s32i.n	a10, a0, 16
     99a:	a94400        	excw
     99d:	000040        	excw
     9a0:	000014        	excw
     9a3:	ff          	.byte 0xff
     9a4:	ff          	.byte 0xff
     9a5:	ff          	.byte 0xff
     9a6:	7f          	.byte 0x7f
     9a7:	230000        	excw
     9aa:	9068      	l32i.n	a6, a0, 36
     9ac:	40a8      	l32i.n	a10, a0, 16
     9ae:	a8f000        	excw
     9b1:	540040        	extui	a0, a4, 0, 6
     9b4:	9469      	s32i.n	a6, a4, 36
     9b6:	8e5000        	excw
     9b9:	3c0040        	excw
     9bc:	2e          	.byte 0x2e
     9bd:	041b      	addi.n	a0, a4, 1
     9bf:	681140        	excw
     9c2:	051b54        	excw
     9c5:	1148      	l32i.n	a4, a1, 4
     9c7:	58a8      	l32i.n	a10, a8, 20
     9c9:	051b      	addi.n	a0, a5, 1
     9cb:	1208      	l32i.n	a0, a2, 4
     9cd:	0028      	l32i.n	a2, a0, 0
     9cf:	281300        	excw
     9d2:	1c0000        	excw
     9d5:	0028      	l32i.n	a2, a0, 0
     9d7:	010000        	slli	a0, a0, 32
     9da:	99c670        	excw
     9dd:	cd5800        	excw
     9e0:	0099      	s32i.n	a9, a0, 0
     9e2:	40a910        	excw
     9e5:	cd6800        	excw
     9e8:	0099      	s32i.n	a9, a0, 0
     9ea:	1b2b44        	excw
     9ed:	012404        	excw
     9f0:	0028      	l32i.n	a2, a0, 0
     9f2:	a80900        	excw
     9f5:	0b0000        	excw
     9f8:	b8a8      	l32i.n	a10, a8, 44
     9fa:	40a8      	l32i.n	a10, a0, 16
     9fc:	693800        	excw
     9ff:	000094        	excw
     a02:	0078      	l32i.n	a7, a0, 0
     a04:	900000        	addx2	a0, a0, a0
     a07:	000001        	l32r	a0, 0xfffc0a08
     a0a:	0000a0        	jx	a0
     a0d:	160000        	excw
     a10:	eca8      	l32i.n	a10, a12, 56
     a12:	9468      	l32i.n	a6, a4, 36
     a14:	4e0000        	excw
     a17:	041b      	addi.n	a0, a4, 1
     a19:	180c      	movi.n	a8, 1
     a1b:	3028      	l32i.n	a2, a0, 12
     a1d:	1ba9      	s32i.n	a10, a11, 4
     a1f:	103404        	excw
     a22:	00a8      	l32i.n	a10, a0, 0
     a24:	a81500        	excw
     a27:	915a00        	excw
     a2a:	000000        	ill
     a2d:	00a803        	excw
     a30:	a80400        	excw
     a33:	1ba8a0        	excw
     a36:	0c1804        	excw
     a39:	53a8      	l32i.n	a10, a3, 20
     a3b:	0099d4        	excw
     a3e:	c0fc      	bnez.n	a0, 0xa7e
     a40:	0099      	s32i.n	a9, a0, 0
     a42:	99bec0        	excw
     a45:	c8f000        	excw
     a48:	0099      	s32i.n	a9, a0, 0
     a4a:	99c960        	excw
     a4d:	c9e000        	excw
     a50:	0099      	s32i.n	a9, a0, 0
     a52:	ca48      	l32i.n	a4, a10, 48
     a54:	0099      	s32i.n	a9, a0, 0
     a56:	cbbc      	beqz.n	a11, 0xa96
     a58:	0099      	s32i.n	a9, a0, 0
     a5a:	99cbd0        	excw
     a5d:	cc7000        	excw
     a60:	0099      	s32i.n	a9, a0, 0
     a62:	cc98      	l32i.n	a9, a12, 48
     a64:	0099      	s32i.n	a9, a0, 0
     a66:	cd78      	l32i.n	a7, a13, 48
     a68:	0099      	s32i.n	a9, a0, 0
     a6a:	99cfb4        	excw
     a6d:	d10800        	mul16s	a0, a8, a0
     a70:	0099      	s32i.n	a9, a0, 0
     a72:	99d2d0        	excw
     a75:	d3d800        	excw
     a78:	0099      	s32i.n	a9, a0, 0
     a7a:	99c780        	excw
     a7d:	c52c00        	extui	a2, a0, 28, 13
     a80:	0099      	s32i.n	a9, a0, 0
     a82:	d3b8      	l32i.n	a11, a3, 52
     a84:	0099      	s32i.n	a9, a0, 0
     a86:	99d404        	excw
     a89:	090400        	excw
     a8c:	0109      	s32i.n	a0, a1, 0
     a8e:	4094a4        	excw
     a91:	901000        	addx2	a1, a0, a0
     a94:	000000        	ill
     a97:	882200        	excw
     a9a:	2a0000        	excw
     a9d:	0048      	l32i.n	a4, a0, 0
     a9f:	482300        	excw
     aa2:	2a0000        	excw
     aa5:	0088      	l32i.n	a8, a0, 0
     aa7:	082600        	excw
     aaa:	270000        	excw
     aad:	0088      	l32i.n	a8, a0, 0
     aaf:	482100        	excw
     ab2:	210000        	srai	a0, a0, 0
     ab5:	6088      	l32i.n	a8, a0, 24
     ab7:	40a9      	s32i.n	a10, a0, 16
     ab9:	770800        	excw
     abc:	000040        	excw
     abf:	882000        	excw
     ac2:	051b07        	beq	a11, a0, 0xacb
     ac5:	884930        	excw
     ac8:	4a0000        	excw
     acb:	0008      	l32i.n	a0, a0, 0
     acd:	883c00        	excw
     ad0:	40a980        	excw
     ad3:	a9a000        	excw
     ad6:	d40040        	extui	a0, a4, 0, 14
     ad9:	99dc      	bnez.n	a9, 0xaf6
     adb:	051b      	addi.n	a0, a5, 1
     add:	705c83        	excw
     ae0:	40a8      	l32i.n	a10, a0, 16
     ae2:	09b400        	excw
     ae5:	b30000        	movgez	a0, a0, a0
     ae8:	0009      	s32i.n	a0, a0, 0
     aea:	f69900        	excw
     aed:	ff          	.byte 0xff
     aee:	ff          	.byte 0xff
     aef:	001387        	beq	a3, a8, 0xaf3
     af2:	f63000        	excw
     af5:	ff          	.byte 0xff
     af6:	ff          	.byte 0xff
     af7:	ec78      	l32i.n	a7, a12, 56
     af9:	ff          	.byte 0xff
     afa:	ff          	.byte 0xff
     afb:	550000        	extui	a0, a0, 16, 6
     afe:	d048      	l32i.n	a4, a0, 52
     b00:	041ba7        	beq	a11, a10, 0xb08
     b03:	5448      	l32i.n	a4, a4, 20
     b05:	9a48      	l32i.n	a4, a10, 36
     b07:	6f          	.byte 0x6f
     b08:	090050        	excw
     b0b:	041b      	addi.n	a0, a4, 1
     b0d:	440005        	call0	0x44b10
     b10:	0c48      	l32i.n	a4, a12, 0
     b12:	051b90        	extui	a1, a9, 27, 1
     b15:	000083        	excw
     b18:	041b      	addi.n	a0, a4, 1
     b1a:	a94022        	s8i	a2, a0, 169
     b1d:	500040        	excw
     b20:	407b      	addi.n	a4, a0, 7
     b22:	080000        	excw
     b25:	d40000        	extui	a0, a0, 0, 14
     b28:	0040a7        	ball	a0, a10, 0xb2c
     b2b:	404074        	excw
     b2e:	e01400        	subx4	a1, a4, a0
     b31:	0099      	s32i.n	a9, a0, 0
     b33:	d58c      	beqz.n	a5, 0xb44
     b35:	0099      	s32i.n	a9, a0, 0
     b37:	99e590        	excw
     b3a:	e4b000        	extui	a11, a0, 0, 15
     b3d:	0099      	s32i.n	a9, a0, 0
     b3f:	99e850        	excw
     b42:	e0b800        	subx4	a11, a8, a0
     b45:	0099      	s32i.n	a9, a0, 0
     b47:	99e494        	excw
     b4a:	e71400        	excw
     b4d:	0099      	s32i.n	a9, a0, 0
     b4f:	99d670        	excw
     b52:	d6c800        	excw
     b55:	0099      	s32i.n	a9, a0, 0
     b57:	99d920        	excw
     b5a:	d9bc00        	excw
     b5d:	0099      	s32i.n	a9, a0, 0
     b5f:	d788      	l32i.n	a8, a7, 52
     b61:	0099      	s32i.n	a9, a0, 0
     b63:	da88      	l32i.n	a8, a10, 52
     b65:	0099      	s32i.n	a9, a0, 0
     b67:	99dc34        	excw
     b6a:	dcec00        	excw
     b6d:	0099      	s32i.n	a9, a0, 0
     b6f:	de8c      	beqz.n	a14, 0xb80
     b71:	0099      	s32i.n	a9, a0, 0
     b73:	99d500        	excw
     b76:	1b6000        	excw
     b79:	e33404        	excw
     b7c:	0099      	s32i.n	a9, a0, 0
     b7e:	e21c      	movi.n	a2, 30
     b80:	0099      	s32i.n	a9, a0, 0
     b82:	e7c8      	l32i.n	a12, a7, 56
     b84:	0099      	s32i.n	a9, a0, 0
     b86:	88a8      	l32i.n	a10, a8, 32
     b88:	000040        	excw
     b8b:	b40b00        	extui	a0, a0, 11, 12
     b8e:	40a9e0        	excw
     b91:	200000        	or	a0, a0, a0
     b94:	ff0000        	excw
     b97:	ff          	.byte 0xff
     b98:	7f          	.byte 0x7f
     b99:	ff          	.byte 0xff
     b9a:	99ead4        	excw
     b9d:	000000        	ill
     ba0:	840080        	extui	a0, a8, 0, 9
     ba3:	99e9      	s32i.n	a14, a9, 36
     ba5:	e9fc00        	excw
     ba8:	0099      	s32i.n	a9, a0, 0
     baa:	99ea40        	excw
     bad:	eb5800        	excw
     bb0:	041b      	addi.n	a0, a4, 1
     bb2:	887a14        	excw
     bb5:	005000        	syscall
     bb8:	879800        	excw
     bbb:	400040        	excw
     bbe:	000f42        	l8ui	a4, a15, 0
     bc1:	01e000        	slli	a14, a0, 32
     bc4:	000000        	ill
     bc7:	8878      	l32i.n	a7, a8, 32
     bc9:	99ef84        	excw
     bcc:	ebe000        	excw
     bcf:	0099      	s32i.n	a9, a0, 0
     bd1:	99edb0        	excw
     bd4:	efdc00        	excw
     bd7:	1b99      	s32i.n	a9, a11, 4
     bd9:	003b04        	excw
     bdc:	99f034        	excw
     bdf:	f05c00        	subx8	a5, a12, a0
     be2:	0099      	s32i.n	a9, a0, 0
     be4:	f0ac      	beqz.n	a0, 0xc17
     be6:	0099      	s32i.n	a9, a0, 0
     be8:	30fa      	add.n	a3, a0, a15
     bea:	400040        	excw
     bed:	2f          	.byte 0x2f
     bee:	e00040        	subx4	a0, a0, a4
     bf1:	2e          	.byte 0x2e
     bf2:	400040        	excw
     bf5:	004030        	break	0, 3
     bf8:	746c      	movi.n	a4, -25
     bfa:	a40095        	excw
     bfd:	009574        	excw
     c00:	9575e4        	excw
     c03:	a9f000        	excw
     c06:	780040        	excw
     c09:	123456        	bnez	a4, 0xd30
     c0c:	1b3e00        	excw
     c0f:	008205        	call0	0x1430
     c12:	fe          	.byte 0xfe
     c13:	9838      	l32i.n	a3, a8, 36
     c15:	4c0040        	excw
     c18:	4039      	s32i.n	a3, a0, 16
     c1a:	a9f400        	excw
     c1d:	300040        	xor	a0, a0, a4
     c20:	4039      	s32i.n	a3, a0, 16
     c22:	470c00        	excw
     c25:	080005        	call0	0x8c28
     c28:	3e          	.byte 0x3e
     c29:	000005        	call0	0xc2c
     c2c:	040400        	extui	a0, a0, 4, 1
     c2f:	403054        	excw
     c32:	f18000        	excw
     c35:	0099      	s32i.n	a9, a0, 0
     c37:	99f280        	excw
     c3a:	a80000        	excw
     c3d:	fc0040        	excw
     c40:	402d      	excw
     c42:	2e0000        	excw
     c45:	ac0040        	excw
     c48:	0099f3        	excw
     c4b:	bf          	.byte 0xbf
     c4c:	0008      	l32i.n	a0, a0, 0
     c4e:	09d000        	excw
     c51:	030000        	excw
     c54:	000b      	addi.n	a0, a0, -1
     c56:	adc000        	excw
     c59:	000040        	excw
     c5c:	0002a6        	blti	a2, -1, 0xc60
     c5f:	adda      	add.n	a10, a13, a13
     c61:	3f0040        	excw
     c64:	fffff0        	excw
     c67:	addc      	bnez.n	a13, 0xc85
     c69:	c00040        	sub	a0, a0, a4
     c6c:	0f          	.byte 0xf
     c6d:	000000        	ill
     c70:	0002a2        	l8ui	a10, a2, 0
     c73:	1cac      	beqz.n	a12, 0xc98
     c75:	000040        	excw
     c78:	000200        	excw
     c7b:	02b200        	excw
     c7e:	a50000        	extui	a0, a0, 16, 11
     c81:	000000        	ill
     c84:	ff0000        	excw
     c87:	401cb0        	excw
     c8a:	1bd800        	excw
     c8d:	963404        	excw
     c90:	dc0002        	l8ui	a0, a0, 220
     c93:	908a      	add.n	a9, a0, a8
     c95:	705400        	excw
     c98:	340040        	extui	a0, a4, 0, 4
     c9b:	99fd      	excw
     c9d:	f92c00        	excw
     ca0:	0099      	s32i.n	a9, a0, 0
     ca2:	99fba4        	excw
     ca5:	fb6800        	excw
     ca8:	0099      	s32i.n	a9, a0, 0
     caa:	fdac      	beqz.n	a13, 0xcdd
     cac:	0099      	s32i.n	a9, a0, 0
     cae:	fd08      	l32i.n	a0, a13, 60
     cb0:	0099      	s32i.n	a9, a0, 0
     cb2:	99fc40        	excw
     cb5:	fbe000        	excw
     cb8:	0099      	s32i.n	a9, a0, 0
     cba:	17dc      	bnez.n	a7, 0xccf
     cbc:	dc0040        	excw
     cbf:	99fd      	excw
     cc1:	1b6400        	excw
     cc4:	1c8605        	call0	0x1d528
     cc7:	78b003        	excw
     cca:	004075        	excw
     ccd:	3d9c      	beqz.n	a13, 0xce4
     ccf:	140040        	extui	a0, a4, 0, 2
     cd2:	0094d0        	excw
     cd5:	94cf84        	excw
     cd8:	2b1c00        	excw
     cdb:	e00040        	subx4	a0, a0, a4
     cde:	40ad      	excw
     ce0:	021800        	excw
     ce3:	009a      	add.n	a0, a0, a9
     ce5:	0f          	.byte 0xf
     ce6:	004010        	break	0, 1
     ce9:	402e20        	excw
     cec:	93b000        	movnez	a11, a0, a0
     cef:	c00040        	sub	a0, a0, a4
     cf2:	009a05        	call0	0x1694
     cf5:	408fc4        	excw
     cf8:	fe8400        	excw
     cfb:	0099      	s32i.n	a9, a0, 0
     cfd:	fe78      	l32i.n	a7, a14, 60
     cff:	0099      	s32i.n	a9, a0, 0
     d01:	9a04f4        	excw
     d04:	02cc00        	excw
     d07:	009a      	add.n	a0, a0, a9
     d09:	9a05e4        	excw
     d0c:	02a800        	excw
     d0f:	009a      	add.n	a0, a0, a9
     d11:	040c      	movi.n	a4, 0
     d13:	009a      	add.n	a0, a0, a9
     d15:	054c      	movi.n	a5, 64
     d17:	009a      	add.n	a0, a0, a9
     d19:	beec      	bnez.n	a14, 0xd48
     d1b:	000092        	l8ui	a9, a0, 0
     d1e:	004080        	break	0, 8
     d21:	0f          	.byte 0xf
     d22:	004000        	break	0, 0
     d25:	009012        	l16si	a1, a0, 0
     d28:	020000        	excw
     d2b:	f00010        	subx8	a0, a0, a1
     d2e:	40ad      	excw
     d30:	7bb800        	excw
     d33:	ff0040        	excw
     d36:	effd      	excw
     d38:	ff          	.byte 0xff
     d39:	40ae10        	excw
     d3c:	0b0800        	excw
     d3f:	009a      	add.n	a0, a0, a9
     d41:	1e          	.byte 0x1e
     d42:	000090        	excw
     d45:	9a0704        	excw
     d48:	080800        	excw
     d4b:	009a      	add.n	a0, a0, a9
     d4d:	08cc      	bnez.n	a8, 0xd51
     d4f:	009a      	add.n	a0, a0, a9
     d51:	9a0ab4        	excw
     d54:	7b8000        	excw
     d57:	400040        	excw
     d5a:	9a0b      	addi.n	a9, a10, -1
     d5c:	0b8000        	excw
     d5f:	009a      	add.n	a0, a0, a9
     d61:	0bd8      	l32i.n	a13, a11, 0
     d63:	009a      	add.n	a0, a0, a9
     d65:	408ad4        	excw
     d68:	ae2800        	excw
     d6b:	d40040        	extui	a0, a4, 0, 14
     d6e:	4089      	s32i.n	a8, a0, 16
     d70:	0c8c00        	excw
     d73:	009a      	add.n	a0, a0, a9
     d75:	0ce8      	l32i.n	a14, a12, 0
     d77:	009a      	add.n	a0, a0, a9
     d79:	8ad8      	l32i.n	a13, a10, 32
     d7b:	100040        	and	a0, a0, a4
     d7e:	9a0d      	excw
     d80:	0d2800        	excw
     d83:	009a      	add.n	a0, a0, a9
     d85:	9a0d80        	excw
     d88:	406a00        	rer
     d8b:	380000        	excw
     d8e:	ae          	.byte 0xae
     d8f:	dc0040        	excw
     d92:	9a0d      	excw
     d94:	ae3c00        	excw
     d97:	b80040        	excw
     d9a:	408c      	beqz.n	a0, 0xda2
     d9c:	2e2c00        	excw
     d9f:	5c0040        	excw
     da2:	944a      	add.n	a9, a4, a4
     da4:	271000        	excw
     da7:	240000        	extui	a0, a0, 0, 3
     daa:	2e          	.byte 0x2e
     dab:	ac0040        	excw
     dae:	40a8      	l32i.n	a10, a0, 16
     db0:	8d0000        	excw
     db3:	c80040        	excw
     db6:	408c      	beqz.n	a0, 0xdbe
     db8:	0e3800        	excw
     dbb:	009a      	add.n	a0, a0, a9
     dbd:	0e68      	l32i.n	a6, a14, 0
     dbf:	009a      	add.n	a0, a0, a9
     dc1:	9a0e14        	excw
     dc4:	051b00        	extui	a1, a0, 27, 1
     dc7:	ff3a83        	excw
     dca:	00f000        	excw
     dcd:	0fff00        	excw
     dd0:	402dd0        	excw
     dd3:	104000        	and	a4, a0, a0
     dd6:	009a      	add.n	a0, a0, a9
     dd8:	9a10e0        	excw
     ddb:	76a000        	excw
     dde:	000040        	excw
     de1:	405a      	add.n	a4, a0, a5
     de3:	2bbc00        	excw
     de6:	b00040        	addx8	a0, a0, a4
     de9:	004077        	ball	a0, a7, 0xded
     dec:	40a810        	excw
     def:	a81800        	excw
     df2:	880040        	excw
     df5:	0000b4        	excw
     df8:	8e88      	l32i.n	a8, a14, 32
     dfa:	340000        	extui	a0, a0, 0, 4
     dfd:	009210        	excw
     e00:	40ae40        	excw
     e03:	76f000        	excw
     e06:	d00040        	subx2	a0, a0, a4
     e09:	009a12        	l16si	a1, a10, 0
     e0c:	18ac      	beqz.n	a8, 0xe31
     e0e:	041b      	addi.n	a0, a4, 1
     e10:	004c      	movi.n	a0, 64
     e12:	0008      	l32i.n	a0, a0, 0
     e14:	000100        	excw
     e17:	040000        	extui	a0, a0, 0, 1
     e1a:	195000        	excw
     e1d:	009a      	add.n	a0, a0, a9
     e1f:	40a820        	excw
     e22:	1b9000        	excw
     e25:	788605        	call0	0x79688
     e28:	807404        	excw
     e2b:	1b78      	l32i.n	a7, a11, 4
     e2d:	000804        	excw
     e30:	82f802        	excw
     e33:	051b      	addi.n	a0, a5, 1
     e35:	b44483        	excw
     e38:	fffe97        	bbsi	a14, 25, 0xe3b
     e3b:	b0fd      	excw
     e3d:	1e          	.byte 0x1e
     e3e:	009a      	add.n	a0, a0, a9
     e40:	2648      	l32i.n	a4, a6, 8
     e42:	009a      	add.n	a0, a0, a9
     e44:	24ac      	beqz.n	a4, 0xe6a
     e46:	009a      	add.n	a0, a0, a9
     e48:	87ec      	bnez.n	a7, 0xe74
     e4a:	ff0040        	excw
     e4d:	ff          	.byte 0xff
     e4e:	ff          	.byte 0xff
     e4f:	bf          	.byte 0xbf
     e50:	400000        	ssr	a0
     e53:	a87400        	excw
     e56:	000040        	excw
     e59:	fffff0        	excw
     e5c:	ae48      	l32i.n	a4, a14, 40
     e5e:	fc0040        	excw
     e61:	009a26        	beqi	a10, 10, 0xe65
     e64:	9a2c44        	excw
     e67:	287400        	excw
     e6a:	009a      	add.n	a0, a0, a9
     e6c:	40ae50        	excw
     e6f:	2cbc00        	excw
     e72:	009a      	add.n	a0, a0, a9
     e74:	409b64        	excw
     e77:	ae5400        	excw
     e7a:	ff0040        	excw
     e7d:	fffff7        	bbsi	a15, 31, 0xe80
     e80:	f6c9      	s32i.n	a12, a6, 60
     e82:	ff          	.byte 0xff
     e83:	ff          	.byte 0xff
     e84:	9d6c      	movi.n	a13, -23
     e86:	041b      	addi.n	a0, a4, 1
     e88:	7c6f54        	excw
     e8b:	6f0000        	excw
     e8e:	b03c      	movi.n	a0, 59
     e90:	041b      	addi.n	a0, a4, 1
     e92:	7e0c      	movi.n	a14, 7
     e94:	380002        	l8ui	a0, a0, 56
     e97:	1b9a      	add.n	a1, a11, a9
     e99:	1f1404        	excw
     e9c:	ccbc      	beqz.n	a12, 0xedc
     e9e:	cccc      	bnez.n	a12, 0xeae
     ea0:	aacc      	bnez.n	a10, 0xeae
     ea2:	aaaa      	add.n	a10, a10, a10
     ea4:	ccaa      	add.n	a12, a12, a10
     ea6:	00aa      	add.n	a0, a0, a10
     ea8:	777700        	excw
     eab:	ff7777        	bbci	a7, 23, 0xeae
     eae:	ef          	.byte 0xef
     eaf:	ff          	.byte 0xff
     eb0:	ff          	.byte 0xff
     eb1:	1baee0        	excw
     eb4:	ba1c04        	excw
     eb7:	c47c      	movi.n	a4, -4
     eb9:	051b      	addi.n	a0, a5, 1
     ebb:	3908      	l32i.n	a0, a9, 12
     ebd:	007c      	movi.n	a0, -16
     ebf:	bcc600        	excw
     ec2:	1b9b10        	excw
     ec5:	5b0c04        	excw
     ec8:	ff7c      	movi.n	a15, -1
     eca:	ff          	.byte 0xff
     ecb:	ef          	.byte 0xef
     ecc:	ff          	.byte 0xff
     ecd:	100000        	and	a0, a0, a0
     ed0:	1b4400        	excw
     ed3:	175405        	call0	0x18414
     ed6:	f8bc      	beqz.n	a8, 0xf19
     ed8:	002a      	add.n	a0, a0, a2
     eda:	000000        	ill
     edd:	af          	.byte 0xaf
     ede:	007c      	movi.n	a0, -16
     ee0:	7c1300        	excw
     ee3:	af2c      	movi.n	a15, 42
     ee5:	041b      	addi.n	a0, a4, 1
     ee7:	7c5c14        	excw
     eea:	409a64        	excw
     eed:	2df400        	excw
     ef0:	009a      	add.n	a0, a0, a9
     ef2:	2e1c      	movi.n	a14, 18
     ef4:	009a      	add.n	a0, a0, a9
     ef6:	9a3134        	excw
     ef9:	320000        	excw
     efc:	009a      	add.n	a0, a0, a9
     efe:	9a3244        	excw
     f01:	330800        	excw
     f04:	009a      	add.n	a0, a0, a9
     f06:	9a34a0        	excw
     f09:	360400        	excw
     f0c:	009a      	add.n	a0, a0, a9
     f0e:	9a37e4        	excw
     f11:	3a3c00        	excw
     f14:	009a      	add.n	a0, a0, a9
     f16:	2d7c      	movi.n	a13, -14
     f18:	009a      	add.n	a0, a0, a9
     f1a:	9a2dd0        	excw
     f1d:	2e9000        	excw
     f20:	009a      	add.n	a0, a0, a9
     f22:	2ebc      	beqz.n	a14, 0xf58
     f24:	009a      	add.n	a0, a0, a9
     f26:	9a3040        	excw
     f29:	306c00        	xor	a6, a12, a0
     f2c:	009a      	add.n	a0, a0, a9
     f2e:	30ac      	beqz.n	a0, 0xf55
     f30:	009a      	add.n	a0, a0, a9
     f32:	30e8      	l32i.n	a14, a0, 12
     f34:	009a      	add.n	a0, a0, a9
     f36:	9a3190        	excw
     f39:	31b800        	srai	a11, a0, 24
     f3c:	009a      	add.n	a0, a0, a9
     f3e:	3418      	l32i.n	a1, a4, 12
     f40:	009a      	add.n	a0, a0, a9
     f42:	3438      	l32i.n	a3, a4, 12
     f44:	009a      	add.n	a0, a0, a9
     f46:	3658      	l32i.n	a5, a6, 12
     f48:	009a      	add.n	a0, a0, a9
     f4a:	9a3684        	excw
     f4d:	369800        	excw
     f50:	009a      	add.n	a0, a0, a9
     f52:	9a36c0        	excw
     f55:	36f000        	excw
     f58:	009a      	add.n	a0, a0, a9
     f5a:	3a0c      	movi.n	a10, 3
     f5c:	009a      	add.n	a0, a0, a9
     f5e:	9ce8      	l32i.n	a14, a12, 36
     f60:	000040        	excw
     f63:	3e          	.byte 0x3e
     f64:	000001        	l32r	a0, 0xfffc0f64
     f67:	810000        	src	a0, a0, a0
     f6a:	ff          	.byte 0xff
     f6b:	ff          	.byte 0xff
     f6c:	fffd      	excw
     f6e:	ff          	.byte 0xff
     f6f:	ff          	.byte 0xff
     f70:	ff          	.byte 0xff
     f71:	fffff7        	bbsi	a15, 31, 0xf74
     f74:	ff          	.byte 0xff
     f75:	7e          	.byte 0x7e
     f76:	9a3b84        	excw
     f79:	aea400        	excw
     f7c:	240040        	extui	a0, a4, 0, 3
     f7f:	9a3d      	excw
     f81:	832c00        	moveqz	a2, a12, a0
     f84:	880040        	excw
     f87:	004093        	excw
     f8a:	9a3d74        	excw
     f8d:	2d4800        	excw
     f90:	ec0040        	excw
     f93:	004075        	excw
     f96:	a8e8      	l32i.n	a14, a8, 40
     f98:	ac0040        	excw
     f9b:	ae          	.byte 0xae
     f9c:	7c0040        	excw
     f9f:	009a43        	excw
     fa2:	43f8      	l32i.n	a15, a3, 16
     fa4:	009a      	add.n	a0, a0, a9
     fa6:	444c      	movi.n	a4, 68
     fa8:	009a      	add.n	a0, a0, a9
     faa:	006e00        	rsil	a0, 14
     fad:	401000        	ssl	a0
     fb0:	280040        	excw
     fb3:	009a45        	call0	0x1958
     fb6:	40aec0        	excw
     fb9:	2cfc00        	excw
     fbc:	009a      	add.n	a0, a0, a9
     fbe:	40af00        	excw
     fc1:	458800        	extui	a8, a0, 24, 5
     fc4:	009a      	add.n	a0, a0, a9
     fc6:	ac0000        	excw
     fc9:	1b7c      	movi.n	a11, -15
     fcb:	b85b04        	excw
     fce:	1b9d      	excw
     fd0:	108305        	call0	0x11804
     fd3:	b8fd      	excw
     fd5:	009a45        	call0	0x197c
     fd8:	460c      	movi.n	a6, 4
     fda:	009a      	add.n	a0, a0, a9
     fdc:	9a49b0        	excw
     fdf:	4a2800        	excw
     fe2:	009a      	add.n	a0, a0, a9
     fe4:	4a6c      	movi.n	a10, -28
     fe6:	009a      	add.n	a0, a0, a9
     fe8:	4ab8      	l32i.n	a11, a10, 16
     fea:	009a      	add.n	a0, a0, a9
     fec:	111111        	l32r	a1, 0xfffc5430
     fef:	1b0111        	l32r	a1, 0xfffc7bf4
     ff2:	6c8305        	call0	0x6d824
     ff5:	bc8d      	excw
     ff7:	710000        	excw
     ffa:	00bc      	beqz.n	a0, 0x102e
     ffc:	bcb900        	excw
     fff:	af18      	l32i.n	a1, a15, 40
    1001:	440040        	extui	a0, a4, 0, 5
    1004:	9a4b      	addi.n	a9, a10, 4
    1006:	4c7000        	excw
    1009:	009a      	add.n	a0, a0, a9
    100b:	9a4d10        	excw
    100e:	af1c00        	excw
    1011:	c00040        	sub	a0, a0, a4
    1014:	004072        	s8i	a7, a0, 0
    1017:	4d78      	l32i.n	a7, a13, 16
    1019:	009a      	add.n	a0, a0, a9
    101b:	4d98      	l32i.n	a9, a13, 16
    101d:	009a      	add.n	a0, a0, a9
    101f:	40af24        	excw
    1022:	986c00        	excw
    1025:	e80040        	excw
    1028:	9a4d      	excw
    102a:	ffff00        	excw
    102d:	600001        	l32r	a0, 0xfffd9030
    1030:	6e          	.byte 0x6e
    1031:	7c0040        	excw
    1034:	9049      	s32i.n	a4, a0, 36
    1036:	4e7000        	excw
    1039:	009a      	add.n	a0, a0, a9
    103b:	af28      	l32i.n	a2, a15, 40
    103d:	b40040        	extui	a0, a4, 0, 12
    1040:	4e          	.byte 0x4e
    1041:	009a      	add.n	a0, a0, a9
    1043:	4edc      	bnez.n	a14, 0x105b
    1045:	009a      	add.n	a0, a0, a9
    1047:	5a08      	l32i.n	a0, a10, 20
    1049:	880040        	excw
    104c:	000013        	excw
    104f:	513c      	movi.n	a1, 53
    1051:	009a      	add.n	a0, a0, a9
    1053:	9a5170        	excw
    1056:	2b4800        	excw
    1059:	f00040        	subx8	a0, a0, a4
    105c:	92e9      	s32i.n	a14, a2, 36
    105e:	040000        	extui	a0, a0, 0, 1
    1061:	000c      	movi.n	a0, 0
    1063:	2f          	.byte 0x2f
    1064:	0182c1        	l32r	a12, 0xfffc166c
    1067:	a828      	l32i.n	a2, a8, 40
    1069:	b00040        	addx8	a0, a0, a4
    106c:	004075        	excw
    106f:	51a8      	l32i.n	a10, a1, 20
    1071:	009a      	add.n	a0, a0, a9
    1073:	3008      	l32i.n	a0, a0, 12
    1075:	080000        	excw
    1078:	009185        	call0	0x1994
    107b:	001010        	excw
    107e:	531000        	excw
    1081:	009a      	add.n	a0, a0, a9
    1083:	27dc      	bnez.n	a7, 0x1099
    1085:	140040        	extui	a0, a4, 0, 2
    1088:	9179      	s32i.n	a7, a1, 36
    108a:	030000        	excw
    108d:	780040        	excw
    1090:	009a53        	excw
    1093:	af3c      	movi.n	a15, 58
    1095:	300040        	xor	a0, a0, a4
    1098:	40a8      	l32i.n	a10, a0, 16
    109a:	fffd00        	excw
    109d:	600002        	l8ui	a0, a0, 96
    10a0:	009a61        	l32r	a6, 0xfffc1308
    10a3:	050000        	extui	a0, a0, 16, 1
    10a6:	000060        	excw
    10a9:	0007c0        	callx0	a7
    10ac:	ae          	.byte 0xae
    10ad:	000002        	l8ui	a0, a0, 0
    10b0:	0001c2        	l8ui	a12, a1, 0
    10b3:	01be00        	slli	a11, a14, 32
    10b6:	ffff00        	excw
    10b9:	3f          	.byte 0x3f
    10ba:	00f8      	l32i.n	a15, a0, 0
    10bc:	9e          	.byte 0x9e
    10bd:	000002        	l8ui	a0, a0, 0
    10c0:	0000a6        	blti	a0, -1, 0x10c4
    10c3:	b2dc      	bnez.n	a2, 0x10e2
    10c5:	dc0000        	excw
    10c8:	0000a2        	l8ui	a10, a0, 0
    10cb:	000c80        	ret
    10ce:	08fc00        	excw
    10d1:	c00000        	sub	a0, a0, a0
    10d4:	000012        	l8ui	a1, a0, 0
    10d7:	088c      	beqz.n	a8, 0x10db
    10d9:	051b      	addi.n	a0, a5, 1
    10db:	6b88      	l32i.n	a8, a11, 24
    10dd:	061b00        	excw
    10e0:	638b      	addi.n	a6, a3, 8
    10e2:	ff          	.byte 0xff
    10e3:	ff          	.byte 0xff
    10e4:	ffed40        	excw
    10e7:	ff          	.byte 0xff
    10e8:	1ed8      	l32i.n	a13, a14, 4
    10ea:	dc0040        	excw
    10ed:	1e          	.byte 0x1e
    10ee:	f00040        	subx8	a0, a0, a4
    10f1:	1e          	.byte 0x1e
    10f2:	540040        	extui	a0, a4, 0, 6
    10f5:	9a5b      	addi.n	a9, a10, 5
    10f7:	53b800        	excw
    10fa:	009a      	add.n	a0, a0, a9
    10fc:	9a58e0        	excw
    10ff:	545800        	extui	a5, a0, 8, 6
    1102:	009a      	add.n	a0, a0, a9
    1104:	9a5720        	excw
    1107:	70d000        	excw
    110a:	200040        	or	a0, a0, a4
    110d:	009094        	excw
    1110:	af4c      	movi.n	a15, 74
    1112:	6c0040        	excw
    1115:	6f          	.byte 0x6f
    1116:	d00040        	subx2	a0, a0, a4
    1119:	9a5d      	excw
    111b:	5e1000        	excw
    111e:	009a      	add.n	a0, a0, a9
    1120:	008002        	excw
    1123:	af5000        	excw
    1126:	c40040        	extui	a0, a4, 0, 13
    1129:	041ba2        	l16ui	a10, a11, 8
    112c:	202154        	excw
    112f:	1f2c      	movi.n	a15, 33
    1131:	051b      	addi.n	a0, a5, 1
    1133:	801886        	j	0xfffe1199
    1136:	028200        	excw
    1139:	715000        	excw
    113c:	680040        	excw
    113f:	5e          	.byte 0x5e
    1140:	009a      	add.n	a0, a0, a9
    1142:	5f9c      	beqz.n	a15, 0x115b
    1144:	009a      	add.n	a0, a0, a9
    1146:	5ed8      	l32i.n	a13, a14, 20
    1148:	009a      	add.n	a0, a0, a9
    114a:	5f68      	l32i.n	a6, a15, 20
    114c:	009a      	add.n	a0, a0, a9
    114e:	40a800        	excw
    1151:	008800        	excw
    1154:	090000        	excw
    1157:	000000        	ill
    115a:	040900        	extui	a0, a0, 9, 1
    115d:	080904        	excw
    1160:	aa08      	l32i.n	a0, a10, 40
    1162:	03aa      	add.n	a0, a3, a10
    1164:	0809      	s32i.n	a0, a8, 0
    1166:	0008      	l32i.n	a0, a0, 0
    1168:	00f800        	excw
    116b:	5c3600        	excw
    116e:	095c36        	excw
    1171:	ff0404        	excw
    1174:	0609      	s32i.n	a0, a6, 0
    1176:	600017        	bnone	a0, a1, 0x11da
    1179:	020303        	excw
    117c:	0358      	l32i.n	a5, a3, 0
    117e:	6c0102        	l8ui	a0, a1, 108
    1181:	050303        	excw
    1184:	0809      	s32i.n	a0, a8, 0
    1186:	8c0c      	movi.n	a12, 8
    1188:	070303        	excw
    118b:	0809      	s32i.n	a0, a8, 0
    118d:	0a5440        	excw
    1190:	0908      	l32i.n	a0, a9, 0
    1192:	ff0704        	excw
    1195:	080a74        	excw
    1198:	080906        	j	0x31c0
    119b:	c40c      	movi.n	a4, 12
    119d:	080a      	add.n	a0, a8, a0
    119f:	4408      	l32i.n	a0, a4, 16
    11a1:	5249      	s32i.n	a4, a2, 20
    11a3:	544345        	call0	0x555d8
    11a6:	002d      	mov.n	a2, a0
    11a8:	045355        	excw
    11ab:	464600        	excw
    11ae:	880000        	excw
    11b1:	40a8      	l32i.n	a10, a0, 16
    11b3:	0409      	s32i.n	a0, a4, 0
    11b5:	b00004        	excw
    11b8:	40a8      	l32i.n	a10, a0, 16
    11ba:	af6800        	excw
    11bd:	900040        	addx2	a0, a0, a4
    11c0:	40a8      	l32i.n	a10, a0, 16
    11c2:	001e00        	excw
    11c5:	030000        	excw
    11c8:	000002        	l8ui	a0, a0, 0
    11cb:	900000        	addx2	a0, a0, a0
    11ce:	030001        	l32r	a0, 0xfffc1dd0
    11d1:	000805        	call0	0x1254
    11d4:	200000        	or	a0, a0, a0
    11d7:	4e          	.byte 0x4e
    11d8:	090703        	excw
    11db:	000000        	ill
    11de:	000c      	movi.n	a0, 0
    11e0:	999a00        	excw
    11e3:	c79000        	excw
    11e6:	5f0000        	excw
    11e9:	006136        	excw
    11ec:	740021        	l32r	a2, 0xfffde1ec
    11ef:	7401a1        	l32r	a10, 0xfffde1f4
    11f2:	1288      	l32i.n	a8, a2, 4
    11f4:	7402b1        	l32r	a11, 0xfffde1fc
    11f7:	0f18a7        	beq	a8, a10, 0x120a
    11fa:	0a9d      	mov.n	a9, a10
    11fc:	c0bba0        	sub	a11, a11, a10
    11ff:	00a0a2        	movi	a10, 0
    1202:	04ab76        	excw
    1205:	0049a2        	s8i	a10, a9, 0
    1208:	991b      	addi.n	a9, a9, 1
    120a:	0288      	l32i.n	a8, a2, 0
    120c:	740331        	l32r	a3, 0xfffde218
    120f:	740491        	l32r	a9, 0xfffde220
    1212:	64a6b2        	movi	a11, 0x664
    1215:	4a0c      	movi.n	a10, 4
    1217:	01a9      	s32i.n	a10, a1, 0
    1219:	11b9      	s32i.n	a11, a1, 4
    121b:	8a0c      	movi.n	a10, 8
    121d:	01bd      	mov.n	a11, a1
    121f:	a66392        	s32i	a9, a3, 0x298
    1222:	0008e0        	excw
    1225:	faac      	beqz.n	a10, 0x1258
    1227:	752282        	l32i	a8, a2, 0x1d4
    122a:	0a0c      	movi.n	a10, 0
    122c:	0008e0        	excw
    122f:	7409a1        	l32r	a10, 0xfffde254
    1232:	740a91        	l32r	a9, 0xfffde25c
    1235:	7407e1        	l32r	a14, 0xfffde254
    1238:	7408d1        	l32r	a13, 0xfffde258
    123b:	740581        	l32r	a8, 0xfffde250
    123e:	7406f1        	l32r	a15, 0xfffde258
    1241:	b323b2        	l32i	a11, a3, 0x2cc
    1244:	8c0c      	movi.n	a12, 8
    1246:	20bbc0        	or	a11, a11, a12
    1249:	08f9      	s32i.n	a15, a8, 0
    124b:	0ed9      	s32i.n	a13, a14, 0
    124d:	b363b2        	s32i	a11, a3, 0x2cc
    1250:	0a99      	s32i.n	a9, a10, 0
    1252:	740b81        	l32r	a8, 0xfffde280
    1255:	0008e0        	excw
    1258:	f01d      	excw
    125a:	000000        	ill
    125d:	004136        	excw
    1260:	7403b1        	l32r	a11, 0xfffde26c
    1263:	740c21        	l32r	a2, 0xfffde294
    1266:	740da1        	l32r	a10, 0xfffde29c
    1269:	0298      	l32i.n	a9, a2, 0
    126b:	b46ba2        	s32i	a10, a11, 0x2d0
    126e:	182982        	l32i	a8, a9, 96
    1271:	f9a8      	l32i.n	a10, a9, 60
    1273:	148080        	extui	a8, a8, 0, 2
    1276:	186982        	s32i	a8, a9, 96
    1279:	00f965        	excw
    127c:	0b4125        	excw
    127f:	00e765        	excw
    1282:	5f0e81        	l32r	a8, 0xfffd8ebc
    1285:	653004        	excw
    1288:	01aa      	add.n	a0, a1, a10
    128a:	01b365        	excw
    128d:	0208a5        	excw
    1290:	05d0e5        	excw
    1293:	039d65        	excw
    1296:	04dea5        	excw
    1299:	050fe5        	excw
    129c:	055665        	excw
    129f:	056aa5        	excw
    12a2:	06bfe5        	excw
    12a5:	071865        	excw
    12a8:	058c65        	excw
    12ab:	072da5        	excw
    12ae:	0c5365        	excw
    12b1:	0741e5        	excw
    12b4:	077ee5        	excw
    12b7:	07e625        	excw
    12ba:	083ce5        	excw
    12bd:	08c0a5        	excw
    12c0:	091be5        	excw
    12c3:	073225        	excw
    12c6:	0920a5        	excw
    12c9:	09f925        	excw
    12cc:	0a22e5        	excw
    12cf:	0b01a5        	excw
    12d2:	0b26e5        	excw
    12d5:	0aa8a5        	excw
    12d8:	0b6965        	excw
    12db:	0a26a5        	excw
    12de:	0a8565        	excw
    12e1:	0aa025        	excw
    12e4:	0b2be5        	excw
    12e7:	0b31a5        	excw
    12ea:	02a8      	l32i.n	a10, a2, 0
    12ec:	faa8      	l32i.n	a10, a10, 60
    12ee:	0c4fe5        	excw
    12f1:	0b3ba5        	excw
    12f4:	0b4865        	excw
    12f7:	0b85a5        	excw
    12fa:	f01d      	excw
    12fc:	004136        	excw
    12ff:	5f7ea5        	excw
    1302:	810804        	excw
    1305:	028200        	excw
    1308:	286601        	l32r	a0, 0xfffcb4a0
    130b:	331646        	j	0xdf68
    130e:	22b204        	excw
    1311:	4a0cb7        	bnone	a12, a11, 0x135f
    1314:	3b6b27        	bbci	a11, 2, 0x1353
    1317:	260c      	movi.n	a6, 2
    1319:	6159      	s32i.n	a5, a1, 24
    131b:	423426        	beqi	a4, 3, 0x1361
    131e:	352466        	bnei	a4, 2, 0x1357
    1321:	0c2c      	movi.n	a12, 32
    1323:	000f06        	j	0x1363
    1326:	03bd      	mov.n	a11, a3
    1328:	0198      	l32i.n	a9, a1, 0
    132a:	740f81        	l32r	a8, 0xfffde368
    132d:	7e0992        	l8ui	a9, a9, 126
    1330:	6148      	l32i.n	a4, a1, 24
    1332:	349490        	extui	a9, a9, 4, 4
    1335:	c09950        	sub	a9, a9, a5
    1338:	004492        	s8i	a9, a4, 0
    133b:	112882        	l32i	a8, a8, 68
    133e:	02ad      	mov.n	a10, a2
    1340:	0008e0        	excw
    1343:	51a8      	l32i.n	a10, a1, 20
    1345:	cd1aa2        	l16ui	a10, a10, 0x19a
    1348:	120c      	movi.n	a2, 1
    134a:	3a8c      	beqz.n	a10, 0x1351
    134c:	0004b2        	l8ui	a11, a4, 0
    134f:	0b8c      	beqz.n	a11, 0x1353
    1351:	f01d      	excw
    1353:	020c      	movi.n	a2, 0
    1355:	f01d      	excw
    1357:	d40b      	addi.n	a13, a4, -1
    1359:	1c0c      	movi.n	a12, 1
    135b:	83c6d0        	moveqz	a12, a6, a13
    135e:	000046        	j	0x1363
    1361:	0c4c      	movi.n	a12, 64
    1363:	c823f2        	l32i	a15, a3, 0x320
    1366:	113426        	beqi	a4, 3, 0x137b
    1369:	042466        	bnei	a4, 2, 0x1371
    136c:	0b1c      	movi.n	a11, 16
    136e:	000306        	j	0x137e
    1371:	e40b      	addi.n	a14, a4, -1
    1373:	8b0c      	movi.n	a11, 8
    1375:	83bae0        	moveqz	a11, a10, a14
    1378:	000086        	j	0x137e
    137b:	80a0b2        	movi	a11, 128
    137e:	208cb0        	or	a8, a12, a11
    1381:	78a2a2        	movi	a10, 0x278
    1384:	a3aa      	add.n	a10, a3, a10
    1386:	c90f87        	bnone	a15, a8, 0x1353
    1389:	7e0a52        	l8ui	a5, a10, 126
    138c:	01a9      	s32i.n	a10, a1, 0
    138e:	345450        	extui	a5, a5, 4, 4
    1391:	133426        	beqi	a4, 3, 0x13a8
    1394:	042466        	bnei	a4, 2, 0x139c
    1397:	5b0c      	movi.n	a11, 5
    1399:	000346        	j	0x13aa
    139c:	940b      	addi.n	a9, a4, -1
    139e:	180c      	movi.n	a8, 1
    13a0:	0b0c      	movi.n	a11, 0
    13a2:	5fb890        	excw
    13a5:	0c4704        	excw
    13a8:	816b      	addi.n	a8, a1, 6
    13aa:	0f          	.byte 0xf
    13ab:	288274        	excw
    13ae:	ad3b      	addi.n	a10, a13, 3
    13b0:	08e003        	excw
    13b3:	41a900        	srli	a10, a0, 9
    13b6:	5f          	.byte 0x5f
    13b7:	0c5106        	j	0x44ff
    13ba:	c64b      	addi.n	a12, a6, 4
    13bc:	045f02        	s16i	a0, a15, 8
    13bf:	903b26        	beqi	a11, 3, 0x1353
    13c2:	055fb6        	bltui	a15, 5, 0x13cb
    13c5:	5f7b24        	excw
    13c8:	240c      	movi.n	a4, 2
    13ca:	41a831        	l32r	a3, 0xfffd1a6c
    13cd:	5ea1c2        	movi	a12, 0x15e
    13d0:	0a5a16        	beqz	a10, 0x1479
    13d3:	e40b      	addi.n	a14, a4, -1
    13d5:	1d0c      	movi.n	a13, 1
    13d7:	0b0c      	movi.n	a11, 0
    13d9:	73ca      	add.n	a7, a3, a12
    13db:	4168      	l32i.n	a6, a1, 16
    13dd:	5179      	s32i.n	a7, a1, 20
    13df:	070c      	movi.n	a7, 0
    13e1:	7668      	l32i.n	a6, a6, 28
    13e3:	83bde0        	moveqz	a11, a13, a14
    13e6:	11b9      	s32i.n	a11, a1, 4
    13e8:	091616        	beqz	a6, 0x147d
    13eb:	41b8      	l32i.n	a11, a1, 16
    13ed:	1a0bb2        	l8ui	a11, a11, 26
    13f0:	0237b7        	bltu	a7, a11, 0x13f6
    13f3:	002186        	j	0x147d
    13f6:	083516        	beqz	a5, 0x147d
    13f9:	771b      	addi.n	a7, a7, 1
    13fb:	550b      	addi.n	a5, a5, -1
    13fd:	745050        	extui	a5, a5, 0, 8
    1400:	f58c      	beqz.n	a5, 0x1413
    1402:	1c9b77        	bne	a11, a7, 0x1422
    1405:	3188      	l32i.n	a8, a1, 12
    1407:	1a0882        	l8ui	a8, a8, 26
    140a:	48dc      	bnez.n	a8, 0x1422
    140c:	5198      	l32i.n	a9, a1, 20
    140e:	cd1992        	l16ui	a9, a9, 0x19a
    1411:	d9cc      	bnez.n	a9, 0x1422
    1413:	02ad      	mov.n	a10, a2
    1415:	740f81        	l32r	a8, 0xfffde454
    1418:	03bd      	mov.n	a11, a3
    141a:	102882        	l32i	a8, a8, 64
    141d:	06cd      	mov.n	a12, a6
    141f:	0008e0        	excw
    1422:	46a8      	l32i.n	a10, a6, 16
    1424:	1b0c      	movi.n	a11, 1
    1426:	890a92        	l8ui	a9, a10, 137
    1429:	21a9      	s32i.n	a10, a1, 8
    142b:	2099b0        	or	a9, a9, a11
    142e:	894a92        	s8i	a9, a10, 137
    1431:	0c3426        	beqi	a4, 3, 0x1441
    1434:	042466        	bnei	a4, 2, 0x143c
    1437:	5c0c      	movi.n	a12, 5
    1439:	000186        	j	0x1443
    143c:	11c8      	l32i.n	a12, a1, 4
    143e:	000046        	j	0x1443
    1441:	6c0c      	movi.n	a12, 6
    1443:	740f81        	l32r	a8, 0xfffde480
    1446:	02ad      	mov.n	a10, a2
    1448:	9888      	l32i.n	a8, a8, 36
    144a:	03bd      	mov.n	a11, a3
    144c:	0008e0        	excw
    144f:	7410a1        	l32r	a10, 0xfffde490
    1452:	0002b2        	l8ui	a11, a2, 0
    1455:	51d8      	l32i.n	a13, a1, 20
    1457:	740081        	l32r	a8, 0xfffde458
    145a:	21c8      	l32i.n	a12, a1, 8
    145c:	a02882        	l32i	a8, a8, 0x280
    145f:	7a0cc2        	l8ui	a12, a12, 122
    1462:	620dd2        	l8ui	a13, a13, 98
    1465:	11cc00        	slli	a12, a12, 16
    1468:	11dd80        	slli	a13, a13, 8
    146b:	20bbd0        	or	a11, a11, a13
    146e:	20bbc0        	or	a11, a11, a12
    1471:	0008e0        	excw
    1474:	5668      	l32i.n	a6, a6, 20
    1476:	ffdb86        	j	0x13e8
    1479:	93ca      	add.n	a9, a3, a12
    147b:	5199      	s32i.n	a9, a1, 20
    147d:	31a8      	l32i.n	a10, a1, 12
    147f:	070c      	movi.n	a7, 0
    1481:	e91a16        	beqz	a10, 0x1316
    1484:	7a68      	l32i.n	a6, a10, 28
    1486:	d40b      	addi.n	a13, a4, -1
    1488:	1c0c      	movi.n	a12, 1
    148a:	0b0c      	movi.n	a11, 0
    148c:	5fbcd0        	excw
    148f:	298105        	call0	0x2aca0
    1492:	b8e8      	l32i.n	a14, a8, 44
    1494:	075f31        	l32r	a3, 0xfffc3210
    1497:	9d2981        	l32r	a8, 0xfffe893c
    149a:	ff          	.byte 0xff
    149b:	e73516        	beqz	a5, 0x1312
    149e:	5f          	.byte 0x5f
    149f:	8109      	s32i.n	a0, a1, 32
    14a1:	8829      	s32i.n	a2, a8, 32
    14a3:	088241        	l32r	a4, 0xfffc36ac
    14a6:	771a      	add.n	a7, a7, a1
    14a8:	1798      	l32i.n	a9, a7, 4
    14aa:	4bdc      	bnez.n	a11, 0x14c2
    14ac:	5f          	.byte 0x5f
    14ad:	816d      	excw
    14af:	0029      	s32i.n	a2, a0, 0
    14b1:	006136        	excw
    14b4:	030282        	l8ui	a8, a2, 3
    14b7:	45b8      	l32i.n	a11, a5, 16
    14b9:	013866        	bnei	a8, 3, 0x14be
    14bc:	23cc      	bnez.n	a3, 0x14c2
    14be:	020c      	movi.n	a2, 0
    14c0:	f01d      	excw
    14c2:	740f71        	l32r	a7, 0xfffde500
    14c5:	1f2b92        	l32i	a9, a11, 124
    14c8:	11b9      	s32i.n	a11, a1, 4
    14ca:	196937        	bbci	a9, 3, 0x14e7
    14cd:	03ad      	mov.n	a10, a3
    14cf:	3b2782        	l32i	a8, a7, 236
    14d2:	04bd      	mov.n	a11, a4
    14d4:	0008e0        	excw
    14d7:	11b8      	l32i.n	a11, a1, 4
    14d9:	aacc      	bnez.n	a10, 0x14e7
    14db:	5f          	.byte 0x5f
    14dc:	390e04        	excw
    14df:	5f          	.byte 0x5f
    14e0:	620e07        	bnone	a14, a0, 0x1546
    14e3:	0cb722        	excw
    14e6:	16c9      	s32i.n	a12, a6, 4
    14e8:	e2fce6        	bgei	a12, 0x100, 0x14ce
    14eb:	242b      	addi.n	a2, a4, 2
    14ed:	44a1d2        	movi	a13, 0x144
    14f0:	000ef2        	l8ui	a15, a14, 0
    14f3:	7400a1        	l32r	a10, 0xfffde4f4
    14f6:	109f90        	and	a9, a15, a9
    14f9:	bc4926        	beqi	a9, 4, 0x14b9
    14fc:	010ec2        	l8ui	a12, a14, 1
    14ff:	c80c      	movi.n	a8, 12
    1501:	04c4c0        	extui	a12, a12, 4, 1
    1504:	080f87        	bnone	a15, a8, 0x1510
    1507:	1f2b92        	l32i	a9, a11, 124
    150a:	049290        	extui	a9, a9, 2, 1
    150d:	0e9916        	beqz	a9, 0x15fa
    1510:	040c      	movi.n	a4, 0
    1512:	010272        	l8ui	a7, a2, 1
    1515:	985c      	movi.n	a8, 89
    1517:	770867        	bnone	a8, a6, 0x1592
    151a:	21e9      	s32i.n	a14, a1, 8
    151c:	281766        	bnei	a7, 1, 0x1548
    151f:	1f2ba2        	l32i	a10, a11, 124
    1522:	31c9      	s32i.n	a12, a1, 12
    1524:	176a27        	bbci	a10, 2, 0x153f
    1527:	741181        	l32r	a8, 0xfffde56c
    152a:	02ad      	mov.n	a10, a2
    152c:	172882        	l32i	a8, a8, 92
    152f:	01bd      	mov.n	a11, a1
    1531:	0008e0        	excw
    1534:	31c8      	l32i.n	a12, a1, 12
    1536:	44a1d2        	movi	a13, 0x144
    1539:	021a26        	beqi	a10, 1, 0x153f
    153c:	ffde46        	j	0x14b9
    153f:	049160        	extui	a9, a6, 1, 1
    1542:	021c97        	beq	a12, a9, 0x1548
    1545:	ffdc06        	j	0x14b9
    1548:	73da      	add.n	a7, a3, a13
    154a:	7527a2        	l32i	a10, a7, 0x1d4
    154d:	7427b2        	l32i	a11, a7, 0x1d0
    1550:	1acc      	bnez.n	a10, 0x1555
    1552:	174b16        	beqz	a11, 0x16ca
    1555:	7412a1        	l32r	a10, 0xfffde5a0
    1558:	fca0f2        	movi	a15, 252
    155b:	11d600        	slli	a13, a6, 16
    155e:	0002c2        	l8ui	a12, a2, 0
    1561:	7c07e2        	l8ui	a14, a7, 124
    1564:	740081        	l32r	a8, 0xfffde564
    1567:	21b8      	l32i.n	a11, a1, 8
    1569:	a02882        	l32i	a8, a8, 0x280
    156c:	000bb2        	l8ui	a11, a11, 0
    156f:	11ee80        	slli	a14, a14, 8
    1572:	20cce0        	or	a12, a12, a14
    1575:	20ccd0        	or	a12, a12, a13
    1578:	10bbf0        	and	a11, a11, a15
    157b:	5f          	.byte 0x5f
    157c:	5b8106        	j	0x18384
    157f:	120c      	movi.n	a2, 1
    1581:	14c592        	addi	a9, a5, 20
    1584:	7527a2        	l32i	a10, a7, 0x1d4
    1587:	5549      	s32i.n	a4, a5, 20
    1589:	0a59      	s32i.n	a5, a10, 0
    158b:	756792        	s32i	a9, a7, 0x1d4
    158e:	f01d      	excw
    1590:	021766        	bnei	a7, 1, 0x1596
    1593:	002746        	j	0x1634
    1596:	02e617        	bbsi	a6, 1, 0x159c
    1599:	0025c6        	j	0x1634
    159c:	1f2ba2        	l32i	a10, a11, 124
    159f:	4c0c      	movi.n	a12, 4
    15a1:	050ac7        	bnone	a10, a12, 0x15aa
    15a4:	05eea0        	extui	a14, a10, 30, 1
    15a7:	125e56        	bnez	a14, 0x16d0
    15aa:	b82282        	l32i	a8, a2, 0x2e0
    15ad:	73da      	add.n	a7, a3, a13
    15af:	7c07a2        	l8ui	a10, a7, 124
    15b2:	02d8a7        	bbs	a8, a10, 0x15b8
    15b5:	0044c6        	j	0x16cc
    15b8:	752792        	l32i	a9, a7, 0x1d4
    15bb:	49cc      	bnez.n	a9, 0x15c3
    15bd:	7427b2        	l32i	a11, a7, 0x1d0
    15c0:	110b16        	beqz	a11, 0x16d4
    15c3:	740081        	l32r	a8, 0xfffde5c4
    15c6:	0002c2        	l8ui	a12, a2, 0
    15c9:	11da80        	slli	a13, a10, 8
    15cc:	fca0b2        	movi	a11, 252
    15cf:	7413a1        	l32r	a10, 0xfffde61c
    15d2:	10bfb0        	and	a11, a15, a11
    15d5:	20ccd0        	or	a12, a12, a13
    15d8:	a02882        	l32i	a8, a8, 0x280
    15db:	11d600        	slli	a13, a6, 16
    15de:	5fccd0        	excw
    15e1:	438207        	bany	a2, a0, 0x1628
    15e4:	120c      	movi.n	a2, 1
    15e6:	14c5c2        	addi	a12, a5, 20
    15e9:	055fd2        	s16i	a13, a15, 10
    15ec:	0d68      	l32i.n	a6, a13, 0
    15ee:	045fc2        	s16i	a12, a15, 8
    15f1:	e268      	l32i.n	a6, a2, 56
    15f3:	6779a0        	excw
    15f6:	0e          	.byte 0xe
    15f7:	f239      	s32i.n	a3, a2, 60
    15f9:	0b0102        	l8ui	a0, a1, 11
    15fc:	ff          	.byte 0xff
    15fd:	eb0f56        	bnez	a15, 0x14b1
    1600:	048160        	extui	a8, a6, 1, 1
    1603:	c08c80        	sub	a8, a12, a8
    1606:	ea7816        	beqz	a8, 0x14b1
    1609:	0002b2        	l8ui	a11, a2, 0
    160c:	0a8d      	mov.n	a8, a10
    160e:	44a1c2        	movi	a12, 0x144
    1611:	7414a1        	l32r	a10, 0xfffde664
    1614:	c3ca      	add.n	a12, a3, a12
    1616:	7c0cc2        	l8ui	a12, a12, 124
    1619:	a02882        	l32i	a8, a8, 0x280
    161c:	11cc80        	slli	a12, a12, 8
    161f:	20bbc0        	or	a11, a11, a12
    1622:	5fc600        	excw
    1625:	e00604        	excw
    1628:	0008      	l32i.n	a0, a0, 0
    162a:	ffa086        	j	0x14b0
    162d:	042d      	mov.n	a2, a4
    162f:	f01d      	excw
    1631:	04f160        	extui	a15, a6, 1, 1
    1634:	2e0c      	movi.n	a14, 2
    1636:	10e6e0        	and	a14, a6, a14
    1639:	e73f16        	beqz	a15, 0x14b0
    163c:	0102a2        	l8ui	a10, a2, 1
    163f:	711a66        	bnei	a10, 1, 0x16b4
    1642:	31c9      	s32i.n	a12, a1, 12
    1644:	11b9      	s32i.n	a11, a1, 4
    1646:	1f0c      	movi.n	a15, 1
    1648:	93efe0        	movnez	a14, a15, a14
    164b:	2a1ce7        	beq	a12, a14, 0x1679
    164e:	7415a1        	l32r	a10, 0xfffde6a4
    1651:	0002b2        	l8ui	a11, a2, 0
    1654:	740081        	l32r	a8, 0xfffde654
    1657:	44a1c2        	movi	a12, 0x144
    165a:	5f          	.byte 0x5f
    165b:	5f4717        	ball	a7, a1, 0x16be
    165e:	468205        	call0	0x47e80
    1661:	5f          	.byte 0x5f
    1662:	373a05        	call0	0x38a04
    1665:	346627        	bbci	a6, 2, 0x169d
    1668:	1cbc      	beqz.n	a12, 0x169d
    166a:	b3da      	add.n	a11, a3, a13
    166c:	772be2        	l32i	a14, a11, 0x1dc
    166f:	2a5e47        	bbc	a14, a4, 0x169d
    1672:	7416a1        	l32r	a10, 0xfffde6cc
    1675:	11c600        	slli	a12, a6, 16
    1678:	11d8      	l32i.n	a13, a1, 4
    167a:	740081        	l32r	a8, 0xfffde67c
    167d:	890d92        	l8ui	a9, a13, 137
    1680:	8e0c      	movi.n	a14, 8
    1682:	2099e0        	or	a9, a9, a14
    1685:	894d92        	s8i	a9, a13, 137
    1688:	a02882        	l32i	a8, a8, 0x280
    168b:	7c0bd2        	l8ui	a13, a11, 124
    168e:	0002b2        	l8ui	a11, a2, 0
    1691:	5f          	.byte 0x5f
    1692:	840c      	movi.n	a4, 8
    1694:	02ad17        	bge	a13, a1, 0x169a
    1697:	112782        	l32i	a8, a7, 68
    169a:	5f          	.byte 0x5f
    169b:	468405        	call0	0x47edc
    169e:	ff7b86        	j	0x1490
    16a1:	020c      	movi.n	a2, 0
    16a3:	5f          	.byte 0x5f
    16a4:	028806        	j	0x20c8
    16a7:	042d      	mov.n	a2, a4
    16a9:	5f          	.byte 0x5f
    16aa:	000806        	j	0x16ce
    16ad:	5f          	.byte 0x5f
    16ae:	308407        	bany	a4, a0, 0x16e2
    16b1:	213826        	beqi	a8, 3, 0x16d6
    16b4:	5f          	.byte 0x5f
    16b5:	bd0f04        	excw
    16b8:	b68803        	excw
    16bb:	5f          	.byte 0x5f
    16bc:	368805        	call0	0x37f40
    16bf:	07bd      	mov.n	a11, a7
    16c1:	0a3d      	mov.n	a3, a10
    16c3:	5f          	.byte 0x5f
    16c4:	0c0b07        	bnone	a11, a0, 0x16d4
    16c7:	a019      	s32i.n	a1, a0, 40
    16c9:	20c023        	excw
    16cc:	9329      	s32i.n	a2, a3, 36
    16ce:	f01d      	excw
    16d0:	44a192        	movi	a9, 0x144
    16d3:	43cc      	bnez.n	a3, 0x16db
    16d5:	7417b1        	l32r	a11, 0xfffde734
    16d8:	0001c6        	j	0x16e3
    16db:	b39a      	add.n	a11, a3, a9
    16dd:	7c0bb2        	l8ui	a11, a11, 124
    16e0:	11bb80        	slli	a11, a11, 8
    16e3:	7418a1        	l32r	a10, 0xfffde744
    16e6:	01c580        	slli	a12, a5, 24
    16e9:	11d400        	slli	a13, a4, 16
    16ec:	740081        	l32r	a8, 0xfffde6ec
    16ef:	0002e2        	l8ui	a14, a2, 0
    16f2:	a02882        	l32i	a8, a8, 0x280
    16f5:	20bbe0        	or	a11, a11, a14
    16f8:	5f          	.byte 0x5f
    16f9:	7b09      	s32i.n	a0, a11, 28
    16fb:	1c0c      	movi.n	a12, 1
    16fd:	b72272        	l32i	a7, a2, 0x2dc
    1700:	740f61        	l32r	a6, 0xfffde73c
    1703:	07bd      	mov.n	a11, a7
    1705:	5c1526        	beqi	a5, 1, 0x1765
    1708:	fec5d2        	addi	a13, a5, -2
    170b:	0e5d16        	beqz	a13, 0x17f4
    170e:	fcc5e2        	addi	a14, a5, -4
    1711:	16be16        	beqz	a14, 0x1880
    1714:	4d8526        	beqi	a5, 8, 0x1765
    1717:	4ab526        	beqi	a5, 16, 0x1765
    171a:	47c526        	beqi	a5, 32, 0x1765
    171d:	44d526        	beqi	a5, 64, 0x1765
    1720:	2179      	s32i.n	a7, a1, 8
    1722:	80c5f2        	addi	a15, a5, -128
    1725:	0cbf16        	beqz	a15, 0x17f4
    1728:	2178      	l32i.n	a7, a1, 8
    172a:	040c      	movi.n	a4, 0
    172c:	0b3d      	mov.n	a3, a11
    172e:	03d566        	bnei	a5, 64, 0x1735
    1731:	020c      	movi.n	a2, 0
    1733:	f01d      	excw
    1735:	5f          	.byte 0x5f
    1736:	8109      	s32i.n	a0, a1, 32
    1738:	5f5d07        	bbc	a13, a0, 0x179b
    173b:	8108      	l32i.n	a0, a1, 32
    173d:	95a007        	bge	a0, a0, 0x16d6
    1740:	e956c0        	excw
    1743:	02adf5        	excw
    1746:	b688      	l32i.n	a8, a6, 44
    1748:	5f          	.byte 0x5f
    1749:	4c8105        	call0	0x4df5c
    174c:	fdca92        	addi	a9, a10, -3
    174f:	f4f956        	bnez	a9, 0x16a2
    1752:	0128      	l32i.n	a2, a1, 0
    1754:	1a0c      	movi.n	a10, 1
    1756:	932a40        	movnez	a2, a10, a4
    1759:	f01d      	excw
    175b:	2179      	s32i.n	a7, a1, 8
    175d:	20b750        	or	a11, a7, a5
    1760:	0c02a2        	l8ui	a10, a2, 12
    1763:	b762b2        	s32i	a11, a2, 0x2dc
    1766:	fb4a16        	beqz	a10, 0x171e
    1769:	040c      	movi.n	a4, 0
    176b:	2179      	s32i.n	a7, a1, 8
    176d:	0d0c      	movi.n	a13, 0
    176f:	11d9      	s32i.n	a13, a1, 4
    1771:	1188      	l32i.n	a8, a1, 4
    1773:	1a2272        	l32i	a7, a2, 104
    1776:	778a      	add.n	a7, a7, a8
    1778:	8c27e2        	l32i	a14, a7, 0x230
    177b:	030c      	movi.n	a3, 0
    177d:	559e27        	bne	a14, a2, 0x17d6
    1780:	133326        	beqi	a3, 3, 0x1797
    1783:	5f2366        	bnei	a3, 2, 0x17e6
    1786:	3d8907        	bany	a9, a0, 0x17c7
    1789:	190ca3        	excw
    178c:	0b0c      	movi.n	a11, 0
    178e:	5fb9a0        	excw
    1791:	3d8906        	j	0x10db9
    1794:	3b2682        	l32i	a8, a6, 236
    1797:	07ad      	mov.n	a10, a7
    1799:	0008e0        	excw
    179c:	2a8c      	beqz.n	a10, 0x17a2
    179e:	190c      	movi.n	a9, 1
    17a0:	aa99      	s32i.n	a9, a10, 40
    17a2:	5f          	.byte 0x5f
    17a3:	4b2707        	blt	a7, a0, 0x17f2
    17a6:	5f          	.byte 0x5f
    17a7:	c32704        	excw
    17aa:	2a0c      	movi.n	a10, 2
    17ac:	3b0c      	movi.n	a11, 3
    17ae:	5fbac0        	excw
    17b1:	408906        	j	0x119d9
    17b4:	5f          	.byte 0x5f
    17b5:	2708      	l32i.n	a0, a7, 8
    17b7:	1c0c      	movi.n	a12, 1
    17b9:	331b      	addi.n	a3, a3, 1
    17bb:	0a8c      	beqz.n	a10, 0x17bf
    17bd:	aac9      	s32i.n	a12, a10, 40
    17bf:	ac4366        	bnei	a3, 4, 0x176f
    17c2:	0c02a2        	l8ui	a10, a2, 12
    17c5:	441b      	addi.n	a4, a4, 1
    17c7:	1198      	l32i.n	a9, a1, 4
    17c9:	28a3b2        	movi	a11, 0x328
    17cc:	99ba      	add.n	a9, a9, a11
    17ce:	1199      	s32i.n	a9, a1, 4
    17d0:	8c34a7        	bltu	a4, a10, 0x1760
    17d3:	b722b2        	l32i	a11, a2, 0x2dc
    17d6:	ffccc6        	j	0x170d
    17d9:	209750        	or	a9, a7, a5
    17dc:	c723a2        	l32i	a10, a3, 0x31c
    17df:	44a182        	movi	a8, 0x144
    17e2:	838a      	add.n	a8, a3, a8
    17e4:	20aa50        	or	a10, a10, a5
    17e7:	c763a2        	s32i	a10, a3, 0x31c
    17ea:	0102d2        	l8ui	a13, a2, 1
    17ed:	b76292        	s32i	a9, a2, 0x2dc
    17f0:	7c0882        	l8ui	a8, a8, 124
    17f3:	b822e2        	l32i	a14, a2, 0x2e0
    17f6:	401800        	ssl	a8
    17f9:	a1fc00        	sll	a15, a12
    17fc:	20eef0        	or	a14, a14, a15
    17ff:	b862e2        	s32i	a14, a2, 0x2e0
    1802:	021d66        	bnei	a13, 1, 0x1808
    1805:	192232        	l32i	a3, a2, 100
    1808:	040c      	movi.n	a4, 0
    180a:	5f          	.byte 0x5f
    180b:	8a0c      	movi.n	a10, 8
    180d:	a458      	l32i.n	a5, a4, 40
    180f:	5f          	.byte 0x5f
    1810:	1b8110        	excw
    1813:	0a5f03        	excw
    1816:	5f1b81        	l32r	a8, 0xfffd9484
    1819:	5f2706        	j	0x194b9
    181c:	1b8105        	call0	0x1d030
    181f:	105fc4        	excw
    1822:	5f1b81        	l32r	a8, 0xfffd9490
    1825:	0c2704        	excw
    1828:	1b1c      	movi.n	a11, 17
    182a:	055f44        	excw
    182d:	441b81        	l32r	a8, 0xfffd289c
    1830:	b2ac      	beqz.n	a2, 0x185f
    1832:	79b722        	excw
    1835:	a9c621        	l32r	a2, 0xfffebf50
    1838:	ff          	.byte 0xff
    1839:	401400        	ssl	a4
    183c:	20b750        	or	a11, a7, a5
    183f:	b762b2        	s32i	a11, a2, 0x2dc
    1842:	c823a2        	l32i	a10, a3, 0x320
    1845:	a1dc00        	sll	a13, a12
    1848:	0a8da7        	bany	a13, a10, 0x1856
    184b:	0c4d      	mov.n	a4, a12
    184d:	20fda0        	or	a15, a13, a10
    1850:	c863f2        	s32i	a15, a3, 0x320
    1853:	ffa386        	j	0x16e5
    1856:	040c      	movi.n	a4, 0
    1858:	ffa246        	j	0x16e5
    185b:	413600        	srli	a3, a0, 6
    185e:	d55000        	extui	a5, a0, 16, 14
    1861:	c44020        	extui	a4, a2, 0, 13
    1864:	198120        	excw
    1867:	b33074        	excw
    186a:	088820        	excw
    186d:	5f          	.byte 0x5f
    186e:	728205        	call0	0x74090
    1871:	b72292        	l32i	a9, a2, 0x2dc
    1874:	0a3d      	mov.n	a3, a10
    1876:	39cc      	bnez.n	a9, 0x187d
    1878:	02ad      	mov.n	a10, a2
    187a:	0693a5        	excw
    187d:	032d      	mov.n	a2, a3
    187f:	5f          	.byte 0x5f
    1880:	2c8405        	call0	0x2e0c4
    1883:	bc00a1        	l32r	a10, 0xffff0884
    1886:	1ad1f2        	addmi	a15, a1, 0x1a00
    1889:	0d8874        	excw
    188c:	190c      	movi.n	a9, 1
    188e:	137816        	beqz	a8, 0x19c9
    1891:	741ba1        	l32r	a10, 0xfffde900
    1894:	0a99      	s32i.n	a9, a10, 0
    1896:	f01d      	excw
    1898:	28a382        	movi	a8, 0x328
    189b:	41b8      	l32i.n	a11, a1, 16
    189d:	441b      	addi.n	a4, a4, 1
    189f:	744040        	extui	a4, a4, 0, 8
    18a2:	021b47        	beq	a11, a4, 0x18a8
    18a5:	0021c6        	j	0x1930
    18a8:	8d2c      	movi.n	a13, 40
    18aa:	740081        	l32r	a8, 0xfffde8ac
    18ad:	0b0c      	movi.n	a11, 0
    18af:	61c8      	l32i.n	a12, a1, 24
    18b1:	81a8      	l32i.n	a10, a1, 32
    18b3:	741c91        	l32r	a9, 0xfffde924
    18b6:	4a99      	s32i.n	a9, a10, 16
    18b8:	1ac9      	s32i.n	a12, a10, 4
    18ba:	5ab9      	s32i.n	a11, a10, 20
    18bc:	741db1        	l32r	a11, 0xfffde930
    18bf:	d12882        	l32i	a8, a8, 0x344
    18c2:	0002c2        	l8ui	a12, a2, 0
    18c5:	5f          	.byte 0x5f
    18c6:	7f8e05        	call0	0x811a8
    18c9:	01bd      	mov.n	a11, a1
    18cb:	07cd      	mov.n	a12, a7
    18cd:	741e51        	l32r	a5, 0xfffde948
    18d0:	412382        	l32i	a8, a3, 0x104
    18d3:	05ad      	mov.n	a10, a5
    18d5:	0008e0        	excw
    18d8:	feba16        	beqz	a10, 0x18c7
    18db:	0a0c      	movi.n	a10, 0
    18dd:	d02382        	l32i	a8, a3, 0x340
    18e0:	0b0c      	movi.n	a11, 0
    18e2:	0008e0        	excw
    18e5:	0a4d      	mov.n	a4, a10
    18e7:	fdca16        	beqz	a10, 0x18c7
    18ea:	05ad      	mov.n	a10, a5
    18ec:	01bd      	mov.n	a11, a1
    18ee:	3f2382        	l32i	a8, a3, 252
    18f1:	07cd      	mov.n	a12, a7
    18f3:	0008e0        	excw
    18f6:	3e2382        	l32i	a8, a3, 248
    18f9:	741fa1        	l32r	a10, 0xfffde978
    18fc:	741ac1        	l32r	a12, 0xfffde964
    18ff:	1b0c      	movi.n	a11, 1
    1901:	0cb9      	s32i.n	a11, a12, 0
    1903:	0aa8      	l32i.n	a10, a10, 0
    1905:	0b0c      	movi.n	a11, 0
    1907:	8c2c      	movi.n	a12, 40
    1909:	aacb      	addi.n	a10, a10, 12
    190b:	61a9      	s32i.n	a10, a1, 24
    190d:	0008e0        	excw
    1910:	07cd      	mov.n	a12, a7
    1912:	61a8      	l32i.n	a10, a1, 24
    1914:	51b8      	l32i.n	a11, a1, 20
    1916:	004ab2        	s8i	a11, a10, 0
    1919:	aa1b      	addi.n	a10, a10, 1
    191b:	3f2382        	l32i	a8, a3, 252
    191e:	5f          	.byte 0x5f
    191f:	768805        	call0	0x781a0
    1922:	8149      	s32i.n	a4, a1, 32
    1924:	f7e716        	beqz	a7, 0x18a6
    1927:	040c      	movi.n	a4, 0
    1929:	4179      	s32i.n	a7, a1, 16
    192b:	28a382        	movi	a8, 0x328
    192e:	c18480        	mul16u	a8, a4, a8
    1931:	1a2252        	l32i	a5, a2, 104
    1934:	558a      	add.n	a5, a5, a8
    1936:	8c25e2        	l32i	a14, a5, 0x230
    1939:	f59e16        	beqz	a14, 0x1896
    193c:	460c      	movi.n	a6, 4
    193e:	030c      	movi.n	a3, 0
    1940:	1194f0        	slli	a9, a4, 1
    1943:	7199      	s32i.n	a9, a1, 28
    1945:	5f          	.byte 0x5f
    1946:	5f8307        	bany	a3, a0, 0x19a9
    1949:	465c      	movi.n	a6, 84
    194b:	0b0003        	excw
    194e:	1a0cb3        	excw
    1951:	0c0c      	movi.n	a12, 0
    1953:	5fcab0        	excw
    1956:	448205        	call0	0x46178
    1959:	ad6c      	movi.n	a13, -22
    195b:	05bd02        	excw
    195e:	742181        	l32r	a8, 0xfffde9e4
    1961:	0008e0        	excw
    1964:	0a7d      	mov.n	a7, a10
    1966:	5f          	.byte 0x5f
    1967:	4c2507        	blt	a5, a0, 0x19b7
    196a:	5f          	.byte 0x5f
    196b:	e32504        	excw
    196e:	2d0c      	movi.n	a13, 2
    1970:	3c0c      	movi.n	a12, 3
    1972:	5fcde0        	excw
    1975:	7c2505        	call0	0x7dbc8
    1978:	5f          	.byte 0x5f
    1979:	250a      	add.n	a2, a5, a0
    197b:	190c      	movi.n	a9, 1
    197d:	660b      	addi.n	a6, a6, -1
    197f:	4e0c      	movi.n	a14, 4
    1981:	61b8      	l32i.n	a11, a1, 24
    1983:	71d8      	l32i.n	a13, a1, 28
    1985:	04f030        	extui	a15, a3, 0, 1
    1988:	c7aa      	add.n	a12, a7, a10
    198a:	34c0c0        	extui	a12, a12, 0, 4
    198d:	0123b6        	bltui	a3, 2, 0x1992
    1990:	090c      	movi.n	a9, 0
    1992:	dd9a      	add.n	a13, a13, a9
    1994:	331b      	addi.n	a3, a3, 1
    1996:	743030        	extui	a3, a3, 0, 8
    1999:	bbda      	add.n	a11, a11, a13
    199b:	0e0b82        	l8ui	a8, a11, 14
    199e:	0d0c      	movi.n	a13, 0
    19a0:	93def0        	movnez	a13, a14, a15
    19a3:	401d00        	ssl	a13
    19a6:	a1cc00        	sll	a12, a12
    19a9:	2088c0        	or	a8, a8, a12
    19ac:	0e4b82        	s8i	a8, a11, 14
    19af:	f80656        	bnez	a6, 0x1933
    19b2:	ffb386        	j	0x1884
    19b5:	0c0242        	l8ui	a4, a2, 12
    19b8:	01ad      	mov.n	a10, a1
    19ba:	740031        	l32r	a3, 0xfffde9bc
    19bd:	0b0c      	movi.n	a11, 0
    19bf:	3e2382        	l32i	a8, a3, 248
    19c2:	dc0c      	movi.n	a12, 13
    19c4:	5f          	.byte 0x5f
    19c5:	d74c04        	excw
    19c8:	437470        	excw
    19cb:	5179      	s32i.n	a7, a1, 20
    19cd:	747070        	extui	a7, a7, 0, 8
    19d0:	ee1716        	beqz	a7, 0x18b5
    19d3:	040c      	movi.n	a4, 0
    19d5:	742061        	l32r	a6, 0xfffdea58
    19d8:	28a3d2        	movi	a13, 0x328
    19db:	c1d4d0        	mul16u	a13, a4, a13
    19de:	1a22b2        	l32i	a11, a2, 104
    19e1:	bbda      	add.n	a11, a11, a13
    19e3:	8c2b32        	l32i	a3, a11, 0x230
    19e6:	067316        	beqz	a3, 0x1a51
    19e9:	0103e2        	l8ui	a14, a3, 1
    19ec:	232e66        	bnei	a14, 2, 0x1a13
    19ef:	1923f2        	l32i	a15, a3, 100
    19f2:	1d9fb7        	bne	a15, a11, 0x1a13
    19f5:	9688      	l32i.n	a8, a6, 36
    19f7:	5f          	.byte 0x5f
    19f8:	6d8305        	call0	0x6f22c
    19fb:	541a      	add.n	a5, a4, a1
    19fd:	1c1c      	movi.n	a12, 17
    19ff:	070ca7        	bnone	a12, a10, 0x1a0a
    1a02:	f93c      	movi.n	a9, 63
    1a04:	004592        	s8i	a9, a5, 0
    1a07:	001146        	j	0x1a50
    1a0a:	0a0c      	movi.n	a10, 0
    1a0c:	0045a2        	s8i	a10, a5, 0
    1a0f:	000f46        	j	0x1a50
    1a12:	c688      	l32i.n	a8, a6, 48
    1a14:	5f          	.byte 0x5f
    1a15:	921e07        	beq	a14, a0, 0x19ab
    1a18:	880005        	call0	0xfff89a1c
    1a1b:	99a096        	bltz	a0, 0x13b9
    1a1e:	459220        	extui	a9, a2, 18, 5
    1a21:	055f00        	extui	a5, a0, 31, 1
    1a24:	6a1712        	l16ui	a1, a7, 212
    1a27:	820a      	add.n	a8, a2, a0
    1a29:	1c0005        	call0	0x1da2c
    1a2c:	9009      	s32i.n	a0, a0, 36
    1a2e:	2088      	l32i.n	a8, a0, 8
    1a30:	004582        	s8i	a8, a5, 0
    1a33:	5f          	.byte 0x5f
    1a34:	5f4507        	ball	a5, a0, 0x1a97
    1a37:	0a4304        	excw
    1a3a:	000592        	l8ui	a9, a5, 0
    1a3d:	0a2c      	movi.n	a10, 32
    1a3f:	5f          	.byte 0x5f
    1a40:	d22a06        	j	0xffff62ec
    1a43:	5f28a3        	excw
    1a46:	4c8306        	j	0x14c56
    1a49:	c60217        	bnone	a2, a1, 0x1a13
    1a4c:	de          	.byte 0xde
    1a4d:	ff          	.byte 0xff
    1a4e:	740031        	l32r	a3, 0xfffdea50
    1a51:	ff93c6        	j	0x18a4
    1a54:	004136        	excw
    1a57:	22cc      	bnez.n	a2, 0x1a5d
    1a59:	420c      	movi.n	a2, 4
    1a5b:	f01d      	excw
    1a5d:	04cd      	mov.n	a12, a4
    1a5f:	741981        	l32r	a8, 0xfffdeac4
    1a62:	03bd      	mov.n	a11, a3
    1a64:	1888      	l32i.n	a8, a8, 4
    1a66:	5f          	.byte 0x5f
    1a67:	218405        	call0	0x232a8
    1a6a:	0a2d      	mov.n	a2, a10
    1a6c:	f01d      	excw
    1a6e:	413600        	srli	a3, a0, 6
    1a71:	208100        	or	a8, a1, a0
    1a74:	288274        	excw
    1a77:	0c1d      	mov.n	a1, a12
    1a79:	5ffa      	add.n	a5, a15, a15
    1a7b:	158205        	call0	0x1729c
    1a7e:	020c      	movi.n	a2, 0
    1a80:	8329a0        	moveqz	a2, a9, a10
    1a83:	5f          	.byte 0x5f
    1a84:	a11804        	excw
    1a87:	912900        	excw
    1a8a:	050c      	movi.n	a5, 0
    1a8c:	040c      	movi.n	a4, 0
    1a8e:	7422a1        	l32r	a10, 0xfffdeb18
    1a91:	740061        	l32r	a6, 0xfffdea94
    1a94:	03b8      	l32i.n	a11, a3, 0
    1a96:	a12682        	l32i	a8, a6, 0x284
    1a99:	63c8      	l32i.n	a12, a3, 24
    1a9b:	0008e0        	excw
    1a9e:	03a8      	l32i.n	a10, a3, 0
    1aa0:	742391        	l32r	a9, 0xfffdeb2c
    1aa3:	91b8      	l32i.n	a11, a1, 36
    1aa5:	0998      	l32i.n	a9, a9, 0
    1aa7:	030bb2        	l8ui	a11, a11, 3
    1aaa:	a0ca90        	addx4	a12, a10, a9
    1aad:	01dcc2        	addmi	a12, a12, 0x100
    1ab0:	a40cc2        	l8ui	a12, a12, 164
    1ab3:	a1c9      	s32i.n	a12, a1, 40
    1ab5:	103b66        	bnei	a11, 3, 0x1ac9
    1ab8:	91b8      	l32i.n	a11, a1, 36
    1aba:	010bb2        	l8ui	a11, a11, 1
    1abd:	081b26        	beqi	a11, 1, 0x1ac9
    1ac0:	8129c2        	l32i	a12, a9, 0x204
    1ac3:	c0cca0        	sub	a12, a12, a10
    1ac6:	252c16        	beqz	a12, 0x1d1c
    1ac9:	742481        	l32r	a8, 0xfffdeb5c
    1acc:	4888      	l32i.n	a8, a8, 16
    1ace:	0008e0        	excw
    1ad1:	6159      	s32i.n	a5, a1, 24
    1ad3:	5149      	s32i.n	a4, a1, 20
    1ad5:	10c3f2        	addi	a15, a3, 16
    1ad8:	71f9      	s32i.n	a15, a1, 28
    1ada:	43d8      	l32i.n	a13, a3, 16
    1adc:	5348      	l32i.n	a4, a3, 20
    1ade:	3dcc      	bnez.n	a13, 0x1ae5
    1ae0:	040c      	movi.n	a4, 0
    1ae2:	000086        	j	0x1ae8
    1ae5:	ecc442        	addi	a4, a4, -20
    1ae8:	044456        	bnez	a4, 0x1b30
    1aeb:	741981        	l32r	a8, 0xfffdeb50
    1aee:	090c      	movi.n	a9, 0
    1af0:	1399      	s32i.n	a9, a3, 4
    1af2:	0e4392        	s8i	a9, a3, 14
    1af5:	2888      	l32i.n	a8, a8, 8
    1af7:	2399      	s32i.n	a9, a3, 8
    1af9:	21f856        	bnez	a8, 0x1d1c
    1afc:	a198      	l32i.n	a9, a1, 40
    1afe:	0249b6        	bltui	a9, 4, 0x1b04
    1b01:	0085c6        	j	0x1d1c
    1b04:	01ad      	mov.n	a10, a1
    1b06:	5f          	.byte 0x5f
    1b07:	058505        	call0	0x7358
    1b0a:	3e2882        	l32i	a8, a8, 248
    1b0d:	0c1c      	movi.n	a12, 16
    1b0f:	0008e0        	excw
    1b12:	013d      	mov.n	a3, a1
    1b14:	1119      	s32i.n	a1, a1, 4
    1b16:	0a0c      	movi.n	a10, 0
    1b18:	a198      	l32i.n	a9, a1, 40
    1b1a:	01a9      	s32i.n	a10, a1, 0
    1b1c:	fdc992        	addi	a9, a9, -3
    1b1f:	208916        	beqz	a9, 0x1d2b
    1b22:	a1b8      	l32i.n	a11, a1, 40
    1b24:	fecbb2        	addi	a11, a11, -2
    1b27:	1f2b56        	bnez	a11, 0x1d1d
    1b2a:	5a0c      	movi.n	a10, 5
    1b2c:	007f46        	j	0x1d2d
    1b2f:	6358      	l32i.n	a5, a3, 24
    1b31:	4468      	l32i.n	a6, a4, 16
    1b33:	550b      	addi.n	a5, a5, -1
    1b35:	0c94d7        	bne	a4, a13, 0x1b45
    1b38:	5dc8      	l32i.n	a12, a13, 20
    1b3a:	43c9      	s32i.n	a12, a3, 16
    1b3c:	ccdc      	bnez.n	a12, 0x1b5c
    1b3e:	71d8      	l32i.n	a13, a1, 28
    1b40:	53d9      	s32i.n	a13, a3, 20
    1b42:	000586        	j	0x1b5c
    1b45:	5dc8      	l32i.n	a12, a13, 20
    1b47:	0614c7        	beq	a4, a12, 0x1b51
    1b4a:	0cdd      	mov.n	a13, a12
    1b4c:	5cc8      	l32i.n	a12, a12, 20
    1b4e:	f894c7        	bne	a4, a12, 0x1b4a
    1b51:	5ce8      	l32i.n	a14, a12, 20
    1b53:	5de9      	s32i.n	a14, a13, 20
    1b55:	3ecc      	bnez.n	a14, 0x1b5c
    1b57:	14cdf2        	addi	a15, a13, 20
    1b5a:	53f9      	s32i.n	a15, a3, 20
    1b5c:	6359      	s32i.n	a5, a3, 24
    1b5e:	7a06b2        	l8ui	a11, a6, 122
    1b61:	1041b2        	s8i	a11, a1, 16
    1b64:	202652        	l32i	a5, a6, 128
    1b67:	78a292        	movi	a9, 0x278
    1b6a:	042516        	beqz	a5, 0x1bb0
    1b6d:	959a      	add.n	a9, a5, a9
    1b6f:	7d0982        	l8ui	a8, a9, 125
    1b72:	880b      	addi.n	a8, a8, -1
    1b74:	748080        	extui	a8, a8, 0, 8
    1b77:	7d4982        	s8i	a8, a9, 125
    1b7a:	f8ec      	bnez.n	a8, 0x1bad
    1b7c:	44a172        	movi	a7, 0x144
    1b7f:	c725a2        	l32i	a10, a5, 0x31c
    1b82:	757a      	add.n	a7, a5, a7
    1b84:	256a77        	bbci	a10, 7, 0x1bad
    1b87:	0b0c      	movi.n	a11, 0
    1b89:	fc1c      	movi.n	a12, 31
    1b8b:	742581        	l32r	a8, 0xfffdec20
    1b8e:	7d07a2        	l8ui	a10, a7, 125
    1b91:	cf2882        	l32i	a8, a8, 0x33c
    1b94:	23aa00        	excw
    1b97:	0008e0        	excw
    1b9a:	3b27a2        	l32i	a10, a7, 236
    1b9d:	05bd      	mov.n	a11, a5
    1b9f:	742081        	l32r	a8, 0xfffdec20
    1ba2:	ffa0c2        	movi	a12, 255
    1ba5:	3888      	l32i.n	a8, a8, 12
    1ba7:	80a0d2        	movi	a13, 128
    1baa:	0008e0        	excw
    1bad:	1001b2        	l8ui	a11, a1, 16
    1bb0:	740f81        	l32r	a8, 0xfffdebec
    1bb3:	05ad      	mov.n	a10, a5
    1bb5:	3b2882        	l32i	a8, a8, 236
    1bb8:	741971        	l32r	a7, 0xfffdec1c
    1bbb:	0008e0        	excw
    1bbe:	2798      	l32i.n	a9, a7, 8
    1bc0:	0a2d      	mov.n	a2, a10
    1bc2:	143916        	beqz	a9, 0x1d09
    1bc5:	a1a8      	l32i.n	a10, a1, 40
    1bc7:	024ab6        	bltui	a10, 4, 0x1bcd
    1bca:	004ec6        	j	0x1d09
    1bcd:	070c      	movi.n	a7, 0
    1bcf:	cb0c      	movi.n	a11, 12
    1bd1:	2426d2        	l32i	a13, a6, 144
    1bd4:	0e0c      	movi.n	a14, 0
    1bd6:	000dd2        	l8ui	a13, a13, 0
    1bd9:	81e9      	s32i.n	a14, a1, 32
    1bdb:	10cdb0        	and	a12, a13, a11
    1bde:	020db7        	bnone	a13, a11, 0x1be4
    1be1:	224c66        	bnei	a12, 4, 0x1c07
    1be4:	f59c      	beqz.n	a5, 0x1c07
    1be6:	c525e2        	l32i	a14, a5, 0x314
    1be9:	44a192        	movi	a9, 0x144
    1bec:	c625f2        	l32i	a15, a5, 0x318
    1bef:	959a      	add.n	a9, a5, a9
    1bf1:	0fcc      	bnez.n	a15, 0x1bf5
    1bf3:	0e9c      	beqz.n	a14, 0x1c07
    1bf5:	54e9      	s32i.n	a14, a4, 20
    1bf7:	170c      	movi.n	a7, 1
    1bf9:	4ecc      	bnez.n	a14, 0x1c01
    1bfb:	14c4a2        	addi	a10, a4, 20
    1bfe:	c665a2        	s32i	a10, a5, 0x318
    1c01:	746942        	s32i	a4, a9, 0x1d0
    1c04:	002d06        	j	0x1cbc
    1c07:	f8cce2        	addi	a14, a12, -8
    1c0a:	09fe56        	bnez	a14, 0x1cad
    1c0d:	09c216        	beqz	a2, 0x1cad
    1c10:	f0a0f2        	movi	a15, 240
    1c13:	10fdf0        	and	a15, a13, a15
    1c16:	04f6f0        	extui	a15, a15, 6, 1
    1c19:	090f56        	bnez	a15, 0x1cad
    1c1c:	742671        	l32r	a7, 0xfffdecb4
    1c1f:	0788      	l32i.n	a8, a7, 0
    1c21:	05ad      	mov.n	a10, a5
    1c23:	c888      	l32i.n	a8, a8, 48
    1c25:	7a06b2        	l8ui	a11, a6, 122
    1c28:	0008e0        	excw
    1c2b:	064a16        	beqz	a10, 0x1c93
    1c2e:	04ad      	mov.n	a10, a4
    1c30:	0788      	l32i.n	a8, a7, 0
    1c32:	12c1b2        	addi	a11, a1, 18
    1c35:	6888      	l32i.n	a8, a8, 24
    1c37:	10c1c2        	addi	a12, a1, 16
    1c3a:	0008e0        	excw
    1c3d:	742781        	l32r	a8, 0xfffdecdc
    1c40:	0888      	l32i.n	a8, a8, 0
    1c42:	02ad      	mov.n	a10, a2
    1c44:	0888      	l32i.n	a8, a8, 0
    1c46:	0911b2        	l16ui	a11, a1, 18
    1c49:	0008e0        	excw
    1c4c:	276a07        	bbci	a10, 0, 0x1c77
    1c4f:	0012d2        	l16ui	a13, a2, 0
    1c52:	0911c2        	l16ui	a12, a1, 18
    1c55:	7428e1        	l32r	a14, 0xfffdecf8
    1c58:	c0ccd0        	sub	a12, a12, a13
    1c5b:	b4c0c0        	extui	a12, a12, 0, 12
    1c5e:	07dcb6        	bltui	a12, 64, 0x1c69
    1c61:	0020c0        	memw
    1c64:	0ee8      	l32i.n	a14, a14, 0
    1c66:	0020c0        	memw
    1c69:	00a0b2        	movi	a11, 0
    1c6c:	01a0a2        	movi	a10, 1
    1c6f:	0bb465        	excw
    1c72:	0561a2        	s32i	a10, a1, 20
    1c75:	61b9      	s32i.n	a11, a1, 24
    1c77:	52a8      	l32i.n	a10, a2, 20
    1c79:	42f8      	l32i.n	a15, a2, 16
    1c7b:	f97c      	movi.n	a9, -1
    1c7d:	5188      	l32i.n	a8, a1, 20
    1c7f:	61b8      	l32i.n	a11, a1, 24
    1c81:	fc7c      	movi.n	a12, -1
    1c83:	30bbc0        	xor	a11, a11, a12
    1c86:	308890        	xor	a8, a8, a9
    1c89:	10ff80        	and	a15, a15, a8
    1c8c:	10aab0        	and	a10, a10, a11
    1c8f:	52a9      	s32i.n	a10, a2, 20
    1c91:	42f9      	s32i.n	a15, a2, 16
    1c93:	72d8      	l32i.n	a13, a2, 28
    1c95:	54d9      	s32i.n	a13, a4, 20
    1c97:	1a02f2        	l8ui	a15, a2, 26
    1c9a:	170c      	movi.n	a7, 1
    1c9c:	ff1b      	addi.n	a15, a15, 1
    1c9e:	3dcc      	bnez.n	a13, 0x1ca5
    1ca0:	14c4e2        	addi	a14, a4, 20
    1ca3:	82e9      	s32i.n	a14, a2, 32
    1ca5:	7249      	s32i.n	a4, a2, 28
    1ca7:	1a42f2        	s8i	a15, a2, 26
    1caa:	000386        	j	0x1cbc
    1cad:	04bd      	mov.n	a11, a4
    1caf:	742081        	l32r	a8, 0xfffded30
    1cb2:	91a8      	l32i.n	a10, a1, 36
    1cb4:	172882        	l32i	a8, a8, 92
    1cb7:	bc0c      	movi.n	a12, 11
    1cb9:	0008e0        	excw
    1cbc:	e19716        	beqz	a7, 0x1ad9
    1cbf:	259c      	beqz.n	a5, 0x1cd5
    1cc1:	7a06a2        	l8ui	a10, a6, 122
    1cc4:	78a292        	movi	a9, 0x278
    1cc7:	959a      	add.n	a9, a5, a9
    1cc9:	4b1992        	l16ui	a9, a9, 150
    1ccc:	400a00        	ssr	a10
    1ccf:	b19090        	sra	a9, a9
    1cd2:	03e907        	bbsi	a9, 0, 0x1cd9
    1cd5:	1a0c      	movi.n	a10, 1
    1cd7:	81a9      	s32i.n	a10, a1, 32
    1cd9:	040c      	movi.n	a4, 0
    1cdb:	81f8      	l32i.n	a15, a1, 32
    1cdd:	06ad      	mov.n	a10, a6
    1cdf:	4716b2        	l16ui	a11, a6, 142
    1ce2:	1c0c      	movi.n	a12, 1
    1ce4:	742551        	l32r	a5, 0xfffded78
    1ce7:	1d0c      	movi.n	a13, 1
    1ce9:	bf2582        	l32i	a8, a5, 0x2fc
    1cec:	06ed      	mov.n	a14, a6
    1cee:	0008e0        	excw
    1cf1:	419840        	srli	a9, a4, 8
    1cf4:	044642        	s8i	a4, a6, 4
    1cf7:	054692        	s8i	a9, a6, 5
    1cfa:	419890        	srli	a9, a9, 8
    1cfd:	064692        	s8i	a9, a6, 6
    1d00:	5f          	.byte 0x5f
    1d01:	070605        	call0	0x8d64
    1d04:	ff73c6        	j	0x1ad7
    1d07:	5f          	.byte 0x5f
    1d08:	0f          	.byte 0xf
    1d09:	465c      	movi.n	a6, 84
    1d0b:	6f          	.byte 0x6f
    1d0c:	ff          	.byte 0xff
    1d0d:	f01d      	excw
    1d0f:	190c      	movi.n	a9, 1
    1d11:	a1b8      	l32i.n	a11, a1, 40
    1d13:	0a0c      	movi.n	a10, 0
    1d15:	bb0b      	addi.n	a11, a11, -1
    1d17:	5fa9b0        	excw
    1d1a:	528705        	call0	0x5458c
    1d1d:	816a      	add.n	a8, a1, a6
    1d1f:	887426        	beqi	a4, 7, 0x1cab
    1d22:	8808      	l32i.n	a0, a8, 32
    1d24:	5f88      	l32i.n	a8, a15, 20
    1d26:	3f8805        	call0	0x415a8
    1d29:	a198      	l32i.n	a9, a1, 40
    1d2b:	133926        	beqi	a9, 3, 0x1d42
    1d2e:	042966        	bnei	a9, 2, 0x1d36
    1d31:	4a0c      	movi.n	a10, 4
    1d33:	000346        	j	0x1d44
    1d36:	c90b      	addi.n	a12, a9, -1
    1d38:	2b0c      	movi.n	a11, 2
    1d3a:	3a0c      	movi.n	a10, 3
    1d3c:	5fabc0        	excw
    1d3f:	7a2705        	call0	0x7bfb0
    1d42:	5f          	.byte 0x5f
    1d43:	270c      	movi.n	a7, 2
    1d45:	01b8      	l32i.n	a11, a1, 0
    1d47:	fb5b16        	beqz	a11, 0x1d00
    1d4a:	5b98      	l32i.n	a9, a11, 20
    1d4c:	0199      	s32i.n	a9, a1, 0
    1d4e:	09cc      	bnez.n	a9, 0x1d52
    1d50:	1139      	s32i.n	a3, a1, 4
    1d52:	5f          	.byte 0x5f
    1d53:	620d      	excw
    1d55:	fff886        	j	0x1d3b
    1d58:	055f00        	extui	a5, a0, 31, 1
    1d5b:	8e          	.byte 0x8e
    1d5c:	03ad54        	excw
    1d5f:	0139      	s32i.n	a3, a1, 0
    1d61:	0b0c      	movi.n	a11, 0
    1d63:	740081        	l32r	a8, 0xfffded64
    1d66:	b0c440        	addx8	a12, a4, a4
    1d69:	3e2882        	l32i	a8, a8, 248
    1d6c:	11cce0        	slli	a12, a12, 2
    1d6f:	0008e0        	excw
    1d72:	060c      	movi.n	a6, 0
    1d74:	050c      	movi.n	a5, 0
    1d76:	28a332        	movi	a3, 0x328
    1d79:	0c02c2        	l8ui	a12, a2, 12
    1d7c:	40a172        	movi	a7, 0x140
    1d7f:	0235c7        	bltu	a5, a12, 0x1d85
    1d82:	0040c6        	j	0x1e89
    1d85:	100416        	beqz	a4, 0x1e89
    1d88:	1a22b2        	l32i	a11, a2, 104
    1d8b:	bb6a      	add.n	a11, a11, a6
    1d8d:	db7a      	add.n	a13, a11, a7
    1d8f:	3c2de2        	l32i	a14, a13, 240
    1d92:	c0ee20        	sub	a14, a14, a2
    1d95:	0e9e56        	bnez	a14, 0x1e82
    1d98:	2be8      	l32i.n	a14, a11, 8
    1d9a:	fdcee2        	addi	a14, a14, -3
    1d9d:	0e1e56        	bnez	a14, 0x1e82
    1da0:	1922f2        	l32i	a15, a2, 100
    1da3:	079fb7        	bne	a15, a11, 0x1dae
    1da6:	010282        	l8ui	a8, a2, 1
    1da9:	880b      	addi.n	a8, a8, -1
    1dab:	0d3856        	bnez	a8, 0x1e82
    1dae:	01e8      	l32i.n	a14, a1, 0
    1db0:	902b82        	l32i	a8, a11, 0x240
    1db3:	004e82        	s8i	a8, a14, 0
    1db6:	418880        	srli	a8, a8, 8
    1db9:	014e82        	s8i	a8, a14, 1
    1dbc:	5f          	.byte 0x5f
    1dbd:	020605        	call0	0x3e20
    1dc0:	5f          	.byte 0x5f
    1dc1:	030605        	call0	0x4e24
    1dc4:	912bf2        	l32i	a15, a11, 0x244
    1dc7:	044ef2        	s8i	a15, a14, 4
    1dca:	41f8f0        	srli	a15, a15, 8
    1dcd:	054ef2        	s8i	a15, a14, 5
    1dd0:	5f          	.byte 0x5f
    1dd1:	060605        	call0	0x7e34
    1dd4:	5f          	.byte 0x5f
    1dd5:	070605        	call0	0x8e38
    1dd8:	922bc2        	l32i	a12, a11, 0x248
    1ddb:	0c4ec2        	s8i	a12, a14, 12
    1dde:	084ec2        	s8i	a12, a14, 8
    1de1:	41c8c0        	srli	a12, a12, 8
    1de4:	094ec2        	s8i	a12, a14, 9
    1de7:	0d4ec2        	s8i	a12, a14, 13
    1dea:	5f          	.byte 0x5f
    1deb:	0a0905        	call0	0xbe7c
    1dee:	0e4ec2        	s8i	a12, a14, 14
    1df1:	5f          	.byte 0x5f
    1df2:	0b0905        	call0	0xce84
    1df5:	0f4ec2        	s8i	a12, a14, 15
    1df8:	932ba2        	l32i	a10, a11, 0x24c
    1dfb:	104ea2        	s8i	a10, a14, 16
    1dfe:	41a8a0        	srli	a10, a10, 8
    1e01:	114ea2        	s8i	a10, a14, 17
    1e04:	5f          	.byte 0x5f
    1e05:	120605        	call0	0x13e68
    1e08:	5f          	.byte 0x5f
    1e09:	130605        	call0	0x14e6c
    1e0c:	40a2a2        	movi	a10, 0x240
    1e0f:	942b92        	l32i	a9, a11, 0x250
    1e12:	144e92        	s8i	a9, a14, 20
    1e15:	419890        	srli	a9, a9, 8
    1e18:	abaa      	add.n	a10, a11, a10
    1e1a:	154e92        	s8i	a9, a14, 21
    1e1d:	419890        	srli	a9, a9, 8
    1e20:	164e92        	s8i	a9, a14, 22
    1e23:	5f          	.byte 0x5f
    1e24:	170605        	call0	0x18e88
    1e27:	952b82        	l32i	a8, a11, 0x254
    1e2a:	1c4e82        	s8i	a8, a14, 28
    1e2d:	184e82        	s8i	a8, a14, 24
    1e30:	5f          	.byte 0x5f
    1e31:	008105        	call0	0x2644
    1e34:	8219      	s32i.n	a1, a2, 32
    1e36:	4e          	.byte 0x4e
    1e37:	5f1d      	excw
    1e39:	1a0905        	call0	0x1becc
    1e3c:	1e4e82        	s8i	a8, a14, 30
    1e3f:	5f          	.byte 0x5f
    1e40:	1b0905        	call0	0x1ced4
    1e43:	1f4e82        	s8i	a8, a14, 31
    1e46:	740081        	l32r	a8, 0xfffdee48
    1e49:	800df2        	l8ui	a15, a13, 128
    1e4c:	204ef2        	s8i	a15, a14, 32
    1e4f:	1e1bc2        	l16ui	a12, a11, 60
    1e52:	0b0c      	movi.n	a11, 0
    1e54:	214ec2        	s8i	a12, a14, 33
    1e57:	3e2882        	l32i	a8, a8, 248
    1e5a:	8c1c      	movi.n	a12, 24
    1e5c:	0008e0        	excw
    1e5f:	440b      	addi.n	a4, a4, -1
    1e61:	0198      	l32i.n	a9, a1, 0
    1e63:	0c02c2        	l8ui	a12, a2, 12
    1e66:	24c992        	addi	a9, a9, 36
    1e69:	0199      	s32i.n	a9, a1, 0
    1e6b:	551b      	addi.n	a5, a5, 1
    1e6d:	663a      	add.n	a6, a6, a3
    1e6f:	ffbd46        	j	0x1d68
    1e72:	5f          	.byte 0x5f
    1e73:	9b08      	l32i.n	a0, a11, 36
    1e75:	233110        	excw
    1e78:	238274        	excw
    1e7b:	288200        	excw
    1e7e:	8268      	l32i.n	a6, a2, 32
    1e80:	0628      	l32i.n	a2, a6, 0
    1e82:	046816        	beqz	a8, 0x1ecc
    1e85:	20a220        	or	a10, a2, a2
    1e88:	067065        	excw
    1e8b:	03c8      	l32i.n	a12, a3, 0
    1e8d:	682cc2        	l32i	a12, a12, 0x1a0
    1e90:	4ca8      	l32i.n	a10, a12, 16
    1e92:	5cb8      	l32i.n	a11, a12, 20
    1e94:	3acc      	bnez.n	a10, 0x1e9b
    1e96:	0b0c      	movi.n	a11, 0
    1e98:	000086        	j	0x1e9e
    1e9b:	eccbb2        	addi	a11, a11, -20
    1e9e:	ba9c      	beqz.n	a10, 0x1ebd
    1ea0:	0c2c      	movi.n	a12, 32
    1ea2:	0d1ba7        	beq	a11, a10, 0x1eb3
    1ea5:	4ae8      	l32i.n	a14, a10, 16
    1ea7:	242ee2        	l32i	a14, a14, 144
    1eaa:	010ed2        	l8ui	a13, a14, 1
    1ead:	20ddc0        	or	a13, a13, a12
    1eb0:	014ed2        	s8i	a13, a14, 1
    1eb3:	5aa8      	l32i.n	a10, a10, 20
    1eb5:	fe9a56        	bnez	a10, 0x1ea2
    1eb8:	5f          	.byte 0x5f
    1eb9:	812d05        	call0	0xfff8318c
    1ebc:	827425        	excw
    1ebf:	bd28      	l32i.n	a2, a13, 44
    1ec1:	0ca8      	l32i.n	a10, a12, 0
    1ec3:	5f          	.byte 0x5f
    1ec4:	509305        	call0	0x527f8
    1ec7:	5f          	.byte 0x5f
    1ec8:	9108      	l32i.n	a0, a1, 36
    1eca:	045f67        	bbc	a15, a6, 0x1ed2
    1ecd:	02ad60        	excw
    1ed0:	2b0c      	movi.n	a11, 2
    1ed2:	3c0c      	movi.n	a12, 3
    1ed4:	741171        	l32r	a7, 0xfffdef18
    1ed7:	0368      	l32i.n	a6, a3, 0
    1ed9:	192782        	l32i	a8, a7, 100
    1edc:	4668      	l32i.n	a6, a6, 16
    1ede:	0008e0        	excw
    1ee1:	7425c1        	l32r	a12, 0xfffdef78
    1ee4:	7429b1        	l32r	a11, 0xfffdef88
    1ee7:	1f2682        	l32i	a8, a6, 124
    1eea:	0bb8      	l32i.n	a11, a11, 0
    1eec:	0af8e7        	bbsi	a8, 30, 0x1efa
    1eef:	d02c82        	l32i	a8, a12, 0x340
    1ef2:	06ad      	mov.n	a10, a6
    1ef4:	0008e0        	excw
    1ef7:	000486        	j	0x1f0d
    1efa:	fb8c      	beqz.n	a11, 0x1f0d
    1efc:	172692        	l32i	a9, a6, 92
    1eff:	c099b0        	sub	a9, a9, a11
    1f02:	0719a6        	blti	a9, 1, 0x1f0d
    1f05:	5f          	.byte 0x5f
    1f06:	1608      	l32i.n	a0, a6, 4
    1f08:	05dd      	mov.n	a13, a5
    1f0a:	5f          	.byte 0x5f
    1f0b:	8908      	l32i.n	a0, a9, 32
    1f0d:	7f          	.byte 0x7f
    1f0e:	5f38      	l32i.n	a3, a15, 20
    1f10:	7f8905        	call0	0x817a4
    1f13:	02ad      	mov.n	a10, a2
    1f15:	1b0c      	movi.n	a11, 1
    1f17:	192782        	l32i	a8, a7, 100
    1f1a:	3c0c      	movi.n	a12, 3
    1f1c:	5f          	.byte 0x5f
    1f1d:	548d05        	call0	0x567f0
    1f20:	5f4136        	excw
    1f23:	210b      	addi.n	a2, a1, -1
    1f25:	5f48      	l32i.n	a4, a15, 20
    1f27:	208a07        	bany	a10, a0, 0x1f4b
    1f2a:	caac      	beqz.n	a10, 0x1f5a
    1f2c:	740081        	l32r	a8, 0xfffdef2c
    1f2f:	d0a0c2        	movi	a12, 208
    1f32:	4aa8      	l32i.n	a10, a10, 16
    1f34:	89a0b2        	movi	a11, 137
    1f37:	caca      	add.n	a12, a10, a12
    1f39:	904ac2        	s8i	a12, a10, 144
    1f3c:	41c8c0        	srli	a12, a12, 8
    1f3f:	914ac2        	s8i	a12, a10, 145
    1f42:	5f          	.byte 0x5f
    1f43:	920605        	call0	0xfff93fa4
    1f46:	5f          	.byte 0x5f
    1f47:	930605        	call0	0xfff94fa8
    1f4a:	3c0c      	movi.n	a12, 3
    1f4c:	aaba      	add.n	a10, a10, a11
    1f4e:	3e2882        	l32i	a8, a8, 248
    1f51:	5f          	.byte 0x5f
    1f52:	7d8d05        	call0	0x7f824
    1f55:	5f          	.byte 0x5f
    1f56:	508a06        	j	0x16182
    1f59:	742a91        	l32r	a9, 0xfffdf004
    1f5c:	742bb1        	l32r	a11, 0xfffdf008
    1f5f:	742cd1        	l32r	a13, 0xfffdf010
    1f62:	7400e1        	l32r	a14, 0xfffdef64
    1f65:	0dc8      	l32i.n	a12, a13, 0
    1f67:	562ea2        	l32i	a10, a14, 0x158
    1f6a:	ebccc2        	addi	a12, a12, -21
    1f6d:	0dc9      	s32i.n	a12, a13, 0
    1f6f:	1aa8      	l32i.n	a10, a10, 4
    1f71:	742dd1        	l32r	a13, 0xfffdf028
    1f74:	fbca82        	addi	a8, a10, -5
    1f77:	0a0816        	beqz	a8, 0x201b
    1f7a:	facaf2        	addi	a15, a10, -6
    1f7d:	09af16        	beqz	a15, 0x201b
    1f80:	09c8      	l32i.n	a12, a9, 0
    1f82:	000ba2        	l8ui	a10, a11, 0
    1f85:	0db8      	l32i.n	a11, a13, 0
    1f87:	8a0b      	addi.n	a8, a10, -1
    1f89:	0bb816        	beqz	a8, 0x2048
    1f8c:	fecaf2        	addi	a15, a10, -2
    1f8f:	0cbf16        	beqz	a15, 0x205e
    1f92:	fdca82        	addi	a8, a10, -3
    1f95:	0ba816        	beqz	a8, 0x2053
    1f98:	f5cbb2        	addi	a11, a11, -11
    1f9b:	e4ccc2        	addi	a12, a12, -28
    1f9e:	09c9      	s32i.n	a12, a9, 0
    1fa0:	0db9      	s32i.n	a11, a13, 0
    1fa2:	7403a1        	l32r	a10, 0xfffdefb0
    1fa5:	842aa2        	l32i	a10, a10, 0x210
    1fa8:	07ea67        	bbsi	a10, 6, 0x1fb3
    1fab:	bb0b      	addi.n	a11, a11, -1
    1fad:	cc0b      	addi.n	a12, a12, -1
    1faf:	5f          	.byte 0x5f
    1fb0:	821104        	excw
    1fb3:	2e          	.byte 0x2e
    1fb4:	5e          	.byte 0x5e
    1fb5:	742ea1        	l32r	a10, 0xfffdf070
    1fb8:	0008e0        	excw
    1fbb:	741981        	l32r	a8, 0xfffdf020
    1fbe:	7430d1        	l32r	a13, 0xfffdf080
    1fc1:	7420a1        	l32r	a10, 0xfffdf044
    1fc4:	742fe1        	l32r	a14, 0xfffdf080
    1fc7:	116ae2        	s32i	a14, a10, 68
    1fca:	6ad9      	s32i.n	a13, a10, 24
    1fcc:	122ab2        	l32i	a11, a10, 72
    1fcf:	332a92        	l32i	a9, a10, 204
    1fd2:	3ac8      	l32i.n	a12, a10, 12
    1fd4:	182af2        	l32i	a15, a10, 96
    1fd7:	48f9      	s32i.n	a15, a8, 16
    1fd9:	08c9      	s32i.n	a12, a8, 0
    1fdb:	3899      	s32i.n	a9, a8, 12
    1fdd:	18b9      	s32i.n	a11, a8, 4
    1fdf:	7437d1        	l32r	a13, 0xfffdf0bc
    1fe2:	7436e1        	l32r	a14, 0xfffdf0bc
    1fe5:	406ae2        	s32i	a14, a10, 0x100
    1fe8:	3ad9      	s32i.n	a13, a10, 12
    1fea:	7432b1        	l32r	a11, 0xfffdf0b4
    1fed:	743391        	l32r	a9, 0xfffdf0bc
    1ff0:	7431c1        	l32r	a12, 0xfffdf0b4
    1ff3:	7435f1        	l32r	a15, 0xfffdf0c8
    1ff6:	306af2        	s32i	a15, a10, 192
    1ff9:	2ac9      	s32i.n	a12, a10, 8
    1ffb:	216a92        	s32i	a9, a10, 132
    1ffe:	aab9      	s32i.n	a11, a10, 40
    2000:	743a91        	l32r	a9, 0xfffdf0e8
    2003:	7439b1        	l32r	a11, 0xfffdf0e8
    2006:	7438c1        	l32r	a12, 0xfffdf0e8
    2009:	126ac2        	s32i	a12, a10, 72
    200c:	336ab2        	s32i	a11, a10, 204
    200f:	186a92        	s32i	a9, a10, 96
    2012:	743481        	l32r	a8, 0xfffdf0e4
    2015:	316a82        	s32i	a8, a10, 196
    2018:	f01d      	excw
    201a:	5f          	.byte 0x5f
    201b:	1b8107        	bany	a1, a0, 0x203a
    201e:	182ab6        	bltui	a10, 2, 0x203a
    2021:	0c2a66        	bnei	a10, 2, 0x2031
    2024:	f2ccc2        	addi	a12, a12, -14
    2027:	09c9      	s32i.n	a12, a9, 0
    2029:	fbcbb2        	addi	a11, a11, -5
    202c:	0db9      	s32i.n	a11, a13, 0
    202e:	ffdb06        	j	0x1f9e
    2031:	303a26        	beqi	a10, 3, 0x2065
    2034:	e8ccc2        	addi	a12, a12, -24
    2037:	fffb06        	j	0x2027
    203a:	bb2b      	addi.n	a11, a11, 2
    203c:	efccc2        	addi	a12, a12, -17
    203f:	09c9      	s32i.n	a12, a9, 0
    2041:	ffd5c6        	j	0x1f9c
    2044:	fdcbb2        	addi	a11, a11, -3
    2047:	e7ccc2        	addi	a12, a12, -25
    204a:	09c9      	s32i.n	a12, a9, 0
    204c:	ffd306        	j	0x1f9c
    204f:	f6cbb2        	addi	a11, a11, -10
    2052:	5f          	.byte 0x5f
    2053:	3b8105        	call0	0x3d864
    2056:	ffd046        	j	0x1f9b
    2059:	f9cbb2        	addi	a11, a11, -7
    205c:	5f          	.byte 0x5f
    205d:	860b05        	call0	0xfff88110
    2060:	ffcd      	excw
    2062:	e8ccc2        	addi	a12, a12, -24
    2065:	09c9      	s32i.n	a12, a9, 0
    2067:	5fcc06        	j	0x19f9b
    206a:	289105        	call0	0x2a97c
    206d:	0a97e5        	excw
    2070:	20a220        	or	a10, a2, a2
    2073:	0b5865        	excw
    2076:	5f          	.byte 0x5f
    2077:	410604        	excw
    207a:	ad0b      	addi.n	a10, a13, -1
    207c:	126502        	s32i	a0, a5, 72
    207f:	02ad01        	l32r	a0, 0xfffc2b34
    2082:	053da5        	excw
    2085:	02ad      	mov.n	a10, a2
    2087:	0b3425        	excw
    208a:	5f          	.byte 0x5f
    208b:	408206        	j	0x12297
    208e:	02ad      	mov.n	a10, a2
    2090:	055f65        	excw
    2093:	5f0b      	addi.n	a5, a15, -1
    2095:	088706        	j	0x42b5
    2098:	078216        	beqz	a2, 0x2114
    209b:	0002b2        	l8ui	a11, a2, 0
    209e:	521b      	addi.n	a5, a2, 1
    20a0:	070b16        	beqz	a11, 0x2114
    20a3:	822b      	addi.n	a8, a2, 2
    20a5:	6b2a      	add.n	a6, a11, a2
    20a7:	661b      	addi.n	a6, a6, 1
    20a9:	6bb867        	bgeu	a8, a6, 0x2118
    20ac:	743c71        	l32r	a7, 0xfffdf19c
    20af:	743b31        	l32r	a3, 0xfffdf19c
    20b2:	020c      	movi.n	a2, 0
    20b4:	01a9      	s32i.n	a10, a1, 0
    20b6:	0105b2        	l8ui	a11, a5, 1
    20b9:	0c0c      	movi.n	a12, 0
    20bb:	ab5a      	add.n	a10, a11, a5
    20bd:	aa2b      	addi.n	a10, a10, 2
    20bf:	5336a7        	bltu	a6, a10, 0x2116
    20c2:	254bb6        	bltui	a11, 4, 0x20eb
    20c5:	0505f2        	l8ui	a15, a5, 5
    20c8:	0305d2        	l8ui	a13, a5, 3
    20cb:	0205e2        	l8ui	a14, a5, 2
    20ce:	11dd80        	slli	a13, a13, 8
    20d1:	20dde0        	or	a13, a13, a14
    20d4:	0405e2        	l8ui	a14, a5, 4
    20d7:	01ff80        	slli	a15, a15, 24
    20da:	11ee00        	slli	a14, a14, 16
    20dd:	20eef0        	or	a14, a14, a15
    20e0:	20dde0        	or	a13, a13, a14
    20e3:	021d77        	beq	a13, a7, 0x20e9
    20e6:	019d37        	bne	a13, a3, 0x20eb
    20e9:	1c0c      	movi.n	a12, 1
    20eb:	1b9c47        	bne	a12, a4, 0x210a
    20ee:	01a8      	l32i.n	a10, a1, 0
    20f0:	cb2b      	addi.n	a12, a11, 2
    20f2:	740081        	l32r	a8, 0xfffdf0f4
    20f5:	05bd      	mov.n	a11, a5
    20f7:	3f2882        	l32i	a8, a8, 252
    20fa:	a2aa      	add.n	a10, a2, a10
    20fc:	0008e0        	excw
    20ff:	010582        	l8ui	a8, a5, 1
    2102:	a85a      	add.n	a10, a8, a5
    2104:	228a      	add.n	a2, a2, a8
    2106:	222b      	addi.n	a2, a2, 2
    2108:	aa2b      	addi.n	a10, a10, 2
    210a:	0a5d      	mov.n	a5, a10
    210c:	9a1b      	addi.n	a9, a10, 1
    210e:	a43967        	bltu	a9, a6, 0x20b6
    2111:	000046        	j	0x2116
    2114:	5f          	.byte 0x5f
    2115:	9608      	l32i.n	a0, a6, 36
    2117:	6f          	.byte 0x6f
    2118:	5f          	.byte 0x5f
    2119:	008506        	j	0x2331
    211c:	180c      	movi.n	a8, 1
    211e:	7fa032        	movi	a3, 127
    2121:	004232        	s8i	a3, a2, 0
    2124:	014282        	s8i	a8, a2, 1
    2127:	024282        	s8i	a8, a2, 2
    212a:	223b      	addi.n	a2, a2, 3
    212c:	5f          	.byte 0x5f
    212d:	211806        	j	0xa591
    2130:	707006        	j	0x1e2f4
    2133:	02ad74        	excw
    2136:	b56162        	s32i	a6, a1, 0x2d4
    2139:	b66142        	s32i	a4, a1, 0x2d8
    213c:	743d81        	l32r	a8, 0xfffdf230
    213f:	040c      	movi.n	a4, 0
    2141:	9888      	l32i.n	a8, a8, 36
    2143:	1d2262        	l32i	a6, a2, 116
    2146:	0008e0        	excw
    2149:	b46172        	s32i	a7, a1, 0x2d0
    214c:	1d0c      	movi.n	a13, 1
    214e:	0a98      	l32i.n	a9, a10, 0
    2150:	0e0c      	movi.n	a14, 0
    2152:	0d0516        	beqz	a5, 0x2226
    2155:	8d2572        	l32i	a7, a5, 0x234
    2158:	0ca716        	beqz	a7, 0x2226
    215b:	2319a6        	blti	a9, 1, 0x2182
    215e:	2d2282        	l32i	a8, a2, 180
    2161:	401800        	ssl	a8
    2164:	a1cd00        	sll	a12, a13
    2167:	2aa976        	excw
    216a:	a0fee0        	addx4	a15, a14, a14
    216d:	b0ffa0        	addx8	a15, a15, a10
    2170:	3f98      	l32i.n	a9, a15, 12
    2172:	ee1b      	addi.n	a14, a14, 1
    2174:	1a09c7        	bnone	a9, a12, 0x2192
    2177:	4f98      	l32i.n	a9, a15, 16
    2179:	153926        	beqi	a9, 3, 0x2192
    217c:	122926        	beqi	a9, 2, 0x2192
    217f:	0c1f42        	l16ui	a4, a15, 24
    2182:	24dc      	bnez.n	a4, 0x2198
    2184:	7428f1        	l32r	a15, 0xfffdf224
    2187:	0020c0        	memw
    218a:	0ff8      	l32i.n	a15, a15, 0
    218c:	0020c0        	memw
    218f:	000146        	j	0x2198
    2192:	74e0e0        	extui	a14, a14, 0, 8
    2195:	fffa46        	j	0x2182
    2198:	b421c2        	l32i	a12, a1, 0x2d0
    219b:	02ad      	mov.n	a10, a2
    219d:	742081        	l32r	a8, 0xfffdf220
    21a0:	1b0c      	movi.n	a11, 1
    21a2:	182882        	l32i	a8, a8, 96
    21a5:	0d0c      	movi.n	a13, 0
    21a7:	0008e0        	excw
    21aa:	b16142        	s32i	a4, a1, 0x2c4
    21ad:	2acc      	bnez.n	a10, 0x21b3
    21af:	020c      	movi.n	a2, 0
    21b1:	f01d      	excw
    21b3:	743eb1        	l32r	a11, 0xfffdf2ac
    21b6:	a861a2        	s32i	a10, a1, 0x2a0
    21b9:	4a48      	l32i.n	a4, a10, 16
    21bb:	b76142        	s32i	a4, a1, 0x2dc
    21be:	242442        	l32i	a4, a4, 144
    21c1:	067316        	beqz	a3, 0x222c
    21c4:	f0c392        	addi	a9, a3, -16
    21c7:	2e8916        	beqz	a9, 0x24b3
    21ca:	5ec326        	beqi	a3, 32, 0x222c
    21cd:	d0c3a2        	addi	a10, a3, -48
    21d0:	2dfa16        	beqz	a10, 0x24b3
    21d3:	e76b      	addi.n	a14, a7, 6
    21d5:	000dc6        	j	0x2210
    21d8:	055fc1        	l32r	a12, 0xfffc3754
    21db:	0cc854        	excw
    21de:	0020c0        	memw
    21e1:	419850        	srli	a9, a5, 8
    21e4:	b721a2        	l32i	a10, a1, 0x2dc
    21e7:	743f81        	l32r	a8, 0xfffdf2e4
    21ea:	8e4a52        	s8i	a5, a10, 142
    21ed:	212882        	l32i	a8, a8, 132
    21f0:	8f4a92        	s8i	a9, a10, 143
    21f3:	5f          	.byte 0x5f
    21f4:	208607        	bany	a6, a0, 0x2218
    21f7:	07bd      	mov.n	a11, a7
    21f9:	744081        	l32r	a8, 0xfffdf2fc
    21fc:	02ad      	mov.n	a10, a2
    21fe:	5888      	l32i.n	a8, a8, 20
    2200:	03ed      	mov.n	a14, a3
    2202:	0008e0        	excw
    2205:	b321e2        	l32i	a14, a1, 0x2cc
    2208:	743eb1        	l32r	a11, 0xfffdf300
    220b:	03cd      	mov.n	a12, a3
    220d:	02ad      	mov.n	a10, a2
    220f:	b621d2        	l32i	a13, a1, 0x2d8
    2212:	0f0c      	movi.n	a15, 0
    2214:	6b88      	l32i.n	a8, a11, 24
    2216:	a821b2        	l32i	a11, a1, 0x2a0
    2219:	0008e0        	excw
    221c:	a82122        	l32i	a2, a1, 0x2a0
    221f:	f01d      	excw
    2221:	182272        	l32i	a7, a2, 96
    2224:	ffcb86        	j	0x2156
    2227:	02ad      	mov.n	a10, a2
    2229:	1b0c      	movi.n	a11, 1
    222b:	744181        	l32r	a8, 0xfffdf330
    222e:	02d1c2        	addmi	a12, a1, 0x200
    2231:	102882        	l32i	a8, a8, 64
    2234:	40ccc2        	addi	a12, a12, 64
    2237:	0008e0        	excw
    223a:	16f8      	l32i.n	a15, a6, 4
    223c:	3fcc      	bnez.n	a15, 0x2243
    223e:	090c      	movi.n	a9, 0
    2240:	000086        	j	0x2246
    2243:	000f92        	l8ui	a9, a15, 0
    2246:	e5e8      	l32i.n	a14, a5, 56
    2248:	02d1f2        	addmi	a15, a1, 0x200
    224b:	400ff2        	l8ui	a15, a15, 64
    224e:	63a182        	movi	a8, 0x163
    2251:	ff9a      	add.n	a15, a15, a9
    2253:	ff8a      	add.n	a15, a15, a8
    2255:	b961f2        	s32i	a15, a1, 0x2e4
    2258:	1a6e97        	bbci	a14, 9, 0x2276
    225b:	e0c3a2        	addi	a10, a3, -32
    225e:	190c      	movi.n	a9, 1
    2260:	0b0c      	movi.n	a11, 0
    2262:	743f81        	l32r	a8, 0xfffdf360
    2265:	83b9a0        	moveqz	a11, a9, a10
    2268:	6888      	l32i.n	a8, a8, 24
    226a:	5f          	.byte 0x5f
    226b:	6b8605        	call0	0x6dacc
    226e:	b921f2        	l32i	a15, a1, 0x2e4
    2271:	e5e8      	l32i.n	a14, a5, 56
    2273:	fafa      	add.n	a15, a10, a15
    2275:	090c      	movi.n	a9, 0
    2277:	2b0c      	movi.n	a11, 2
    2279:	10ab76        	excw
    227c:	a0b960        	addx4	a11, a9, a6
    227f:	4bb8      	l32i.n	a11, a11, 16
    2281:	991b      	addi.n	a9, a9, 1
    2283:	3b8c      	beqz.n	a11, 0x228a
    2285:	000bc2        	l8ui	a12, a11, 0
    2288:	fcfa      	add.n	a15, a12, a15
    228a:	749090        	extui	a9, a9, 0, 8
    228d:	0b1c      	movi.n	a11, 16
    228f:	0a2c      	movi.n	a10, 32
    2291:	2ecfd2        	addi	a13, a15, 46
    2294:	4798      	l32i.n	a9, a7, 16
    2296:	1c0c      	movi.n	a12, 1
    2298:	2998      	l32i.n	a9, a9, 8
    229a:	080c      	movi.n	a8, 0
    229c:	149090        	extui	a9, a9, 0, 2
    229f:	838c90        	moveqz	a8, a12, a9
    22a2:	b26182        	s32i	a8, a1, 0x2c8
    22a5:	b72192        	l32i	a9, a1, 0x2dc
    22a8:	93fd80        	movnez	a15, a13, a8
    22ab:	8e49f2        	s8i	a15, a9, 142
    22ae:	4188f0        	srli	a8, a15, 8
    22b1:	8f4982        	s8i	a8, a9, 143
    22b4:	0102d2        	l8ui	a13, a2, 1
    22b7:	290c      	movi.n	a9, 2
    22b9:	939cd0        	movnez	a9, a12, a13
    22bc:	026e57        	bbci	a14, 5, 0x22c2
    22bf:	2099b0        	or	a9, a9, a11
    22c2:	2d22e2        	l32i	a14, a2, 180
    22c5:	ce0b      	addi.n	a12, a14, -1
    22c7:	081e26        	beqi	a14, 1, 0x22d3
    22ca:	053e26        	beqi	a14, 3, 0x22d3
    22cd:	025e26        	beqi	a14, 5, 0x22d3
    22d0:	0b7e66        	bnei	a14, 7, 0x22df
    22d3:	1717b2        	l16ui	a11, a7, 46
    22d6:	00a4f2        	movi	a15, 0x400
    22d9:	026ba7        	bbci	a11, 10, 0x22df
    22dc:	2099f0        	or	a9, a9, a15
    22df:	416c16        	beqz	a12, 0x26f9
    22e2:	fdced2        	addi	a13, a14, -3
    22e5:	410d16        	beqz	a13, 0x26f9
    22e8:	fbcef2        	addi	a15, a14, -5
    22eb:	40af16        	beqz	a15, 0x26f9
    22ee:	f9ce82        	addi	a8, a14, -7
    22f1:	404816        	beqz	a8, 0x26f9
    22f4:	a96192        	s32i	a9, a1, 0x2a4
    22f7:	feceb2        	addi	a11, a14, -2
    22fa:	3fbb16        	beqz	a11, 0x26f9
    22fd:	b221b2        	l32i	a11, a1, 0x2c8
    2300:	00a1a2        	movi	a10, 0x100
    2303:	743f81        	l32r	a8, 0xfffdf400
    2306:	a92192        	l32i	a9, a1, 0x2a4
    2309:	292882        	l32i	a8, a8, 164
    230c:	20a9a0        	or	a10, a9, a10
    230f:	939ab0        	movnez	a9, a10, a11
    2312:	a96192        	s32i	a9, a1, 0x2a4
    2315:	5f          	.byte 0x5f
    2316:	2c8105        	call0	0x2eb28
    2319:	ae6162        	s32i	a6, a1, 0x2b8
    231c:	a92192        	l32i	a9, a1, 0x2a4
    231f:	ffa0b2        	movi	a11, 255
    2322:	744281        	l32r	a8, 0xfffdf42c
    2325:	c0bab0        	sub	a11, a10, a11
    2328:	1a0c      	movi.n	a10, 1
    232a:	6888      	l32i.n	a8, a8, 24
    232c:	939ab0        	movnez	a9, a10, a11
    232f:	02ad      	mov.n	a10, a2
    2331:	005492        	s16i	a9, a4, 0
    2334:	1417b2        	l16ui	a11, a7, 40
    2337:	0008e0        	excw
    233a:	0154a2        	s16i	a10, a4, 2
    233d:	644b      	addi.n	a6, a4, 4
    233f:	13c366        	bnei	a3, 32, 0x2356
    2342:	06ad      	mov.n	a10, a6
    2344:	6c0c      	movi.n	a12, 6
    2346:	740081        	l32r	a8, 0xfffdf348
    2349:	dea1b2        	movi	a11, 0x1de
    234c:	3f2882        	l32i	a8, a8, 252
    234f:	b5ba      	add.n	a11, a5, a11
    2351:	0008e0        	excw
    2354:	666b      	addi.n	a6, a6, 6
    2356:	06ad      	mov.n	a10, a6
    2358:	744381        	l32r	a8, 0xfffdf464
    235b:	80a1c2        	movi	a12, 0x180
    235e:	fea1b2        	movi	a11, 0x1fe
    2361:	b5ba      	add.n	a11, a5, a11
    2363:	c5ca      	add.n	a12, a5, a12
    2365:	8e2882        	l32i	a8, a8, 0x238
    2368:	7d0cc2        	l8ui	a12, a12, 125
    236b:	0008e0        	excw
    236e:	744361        	l32r	a6, 0xfffdf47c
    2371:	b5cb      	addi.n	a11, a5, 12
    2373:	8c2682        	l32i	a8, a6, 0x230
    2376:	ad61b2        	s32i	a11, a1, 0x2b4
    2379:	0008e0        	excw
    237c:	8d2682        	l32i	a8, a6, 0x234
    237f:	5f21b2        	l32i	a11, a1, 0x17c
    2382:	9d0904        	excw
    2385:	a20a      	add.n	a10, a2, a0
    2387:	6d5207        	bbc	a2, a0, 0x23f8
    238a:	1609      	s32i.n	a0, a6, 4
    238c:	07ca      	add.n	a0, a7, a12
    238e:	e5b8      	l32i.n	a11, a5, 56
    2390:	aa6192        	s32i	a9, a1, 0x2a8
    2393:	746be7        	bbci	a11, 14, 0x240b
    2396:	02ad      	mov.n	a10, a2
    2398:	2b0c      	movi.n	a11, 2
    239a:	5f          	.byte 0x5f
    239b:	820b      	addi.n	a8, a2, -1
    239d:	e04872        	s8i	a7, a8, 224
    23a0:	0008      	l32i.n	a0, a0, 0
    23a2:	9321b2        	l32i	a11, a1, 0x24c
    23a5:	cc1c      	movi.n	a12, 28
    23a7:	02d1a2        	addmi	a10, a1, 0x200
    23aa:	50caa2        	addi	a10, a10, 80
    23ad:	744a81        	l32r	a8, 0xfffdf4d8
    23b0:	5f          	.byte 0x5f
    23b1:	d11104        	excw
    23b4:	0bb202        	excw
    23b7:	1648      	l32i.n	a4, a6, 4
    23b9:	047b      	addi.n	a0, a4, 7
    23bb:	232792        	l32i	a9, a7, 140
    23be:	198c      	beqz.n	a9, 0x23c3
    23c0:	281966        	bnei	a9, 1, 0x23ec
    23c3:	740081        	l32r	a8, 0xfffdf3c4
    23c6:	02d1b2        	addmi	a11, a1, 0x200
    23c9:	52cba2        	addi	a10, a11, 82
    23cc:	530bd2        	l8ui	a13, a11, 83
    23cf:	520bc2        	l8ui	a12, a11, 82
    23d2:	11dd80        	slli	a13, a13, 8
    23d5:	20ccd0        	or	a12, a12, a13
    23d8:	7444d1        	l32r	a13, 0xfffdf4e8
    23db:	3f2882        	l32i	a8, a8, 252
    23de:	10ccd0        	and	a12, a12, a13
    23e1:	365bc2        	s16i	a12, a11, 108
    23e4:	6ccbb2        	addi	a11, a11, 108
    23e7:	2c0c      	movi.n	a12, 2
    23e9:	0008e0        	excw
    23ec:	aa21a2        	l32i	a10, a1, 0x2a8
    23ef:	5f4381        	l32r	a8, 0xfffda0fc
    23f2:	822c04        	excw
    23f5:	9028      	l32i.n	a2, a0, 36
    23f7:	50cbb2        	addi	a11, a11, 80
    23fa:	0008e0        	excw
    23fd:	ffd065        	excw
    2400:	0a6d      	mov.n	a6, a10
    2402:	b22192        	l32i	a9, a1, 0x2c8
    2405:	043916        	beqz	a9, 0x244c
    2408:	5f4581        	l32r	a8, 0xfffda11c
    240b:	20a005        	call0	0x22e0c
    240e:	2f          	.byte 0x2f
    240f:	1517b2        	l16ui	a11, a7, 42
    2412:	0008e0        	excw
    2415:	0abd      	mov.n	a11, a10
    2417:	744381        	l32r	a8, 0xfffdf524
    241a:	06ad      	mov.n	a10, a6
    241c:	8a2882        	l32i	a8, a8, 0x228
    241f:	5fb0b0        	excw
    2422:	6d7504        	excw
    2425:	b20a      	add.n	a11, a2, a0
    2427:	8102d1        	l32r	a13, 0xfffe2830
    242a:	b27445        	call0	0xfffb4b70
    242d:	6ecb      	addi.n	a6, a14, 12
    242f:	1f2882        	l32i	a8, a8, 124
    2432:	5f          	.byte 0x5f
    2433:	628a06        	j	0x1ae5f
    2436:	085f06        	j	0x45b6
    2439:	8b4d      	excw
    243b:	6ecbb2        	addi	a11, a11, 110
    243e:	5f          	.byte 0x5f
    243f:	c22405        	call0	0xfffc4680
    2442:	c202d1        	l32r	a13, 0xffff2c4c
    2445:	400c      	movi.n	a0, 4
    2447:	4c9c      	beqz.n	a12, 0x245f
    2449:	5f0081        	l32r	a8, 0xfffda04c
    244c:	3f3c05        	call0	0x41810
    244f:	9121b2        	l32i	a11, a1, 0x244
    2452:	0008e0        	excw
    2455:	02d192        	addmi	a9, a1, 0x200
    2458:	400992        	l8ui	a9, a9, 64
    245b:	696a      	add.n	a6, a9, a6
    245d:	744681        	l32r	a8, 0xfffdf578
    2460:	f888      	l32i.n	a8, a8, 60
    2462:	5f          	.byte 0x5f
    2463:	9d3b05        	call0	0xfff9f814
    2466:	0c0a      	add.n	a0, a12, a0
    2468:	b20b      	addi.n	a11, a2, -1
    246a:	004a      	add.n	a0, a0, a4
    246c:	1022a2        	l32i	a10, a2, 64
    246f:	04ada0        	extui	a10, a10, 13, 1
    2472:	29ba16        	beqz	a10, 0x2711
    2475:	5307c2        	l8ui	a12, a7, 83
    2478:	295c16        	beqz	a12, 0x2711
    247b:	5407d2        	l8ui	a13, a7, 84
    247e:	a76192        	s32i	a9, a1, 0x29c
    2481:	32fd16        	beqz	a13, 0x27b4
    2484:	5f          	.byte 0x5f
    2485:	582904        	excw
    2488:	5f          	.byte 0x5f
    2489:	cd2905        	call0	0xfffcf71c
    248c:	860a      	add.n	a8, a6, a0
    248e:	00c8      	l32i.n	a12, a0, 0
    2490:	02ad      	mov.n	a10, a2
    2492:	4b0c      	movi.n	a11, 4
    2494:	01cd      	mov.n	a12, a1
    2496:	744781        	l32r	a8, 0xfffdf5b4
    2499:	090c      	movi.n	a9, 0
    249b:	1888      	l32i.n	a8, a8, 4
    249d:	0199      	s32i.n	a9, a1, 0
    249f:	5f          	.byte 0x5f
    24a0:	5d8b05        	call0	0x5fd54
    24a3:	5f4181        	l32r	a8, 0xfffda1a8
    24a6:	2a8605        	call0	0x2cd08
    24a9:	c14b10        	mul16u	a4, a11, a1
    24ac:	0008e0        	excw
    24af:	2698      	l32i.n	a9, a6, 8
    24b1:	b06192        	s32i	a9, a1, 0x2c0
    24b4:	49cc      	bnez.n	a9, 0x24bc
    24b6:	67a0c2        	movi	a12, 103
    24b9:	000206        	j	0x24c5
    24bc:	0009c2        	l8ui	a12, a9, 0
    24bf:	b06192        	s32i	a9, a1, 0x2c0
    24c2:	67ccc2        	addi	a12, a12, 103
    24c5:	01a8      	l32i.n	a10, a1, 0
    24c7:	0ced      	mov.n	a14, a12
    24c9:	3a8c      	beqz.n	a10, 0x24d0
    24cb:	000ae2        	l8ui	a14, a10, 0
    24ce:	eeca      	add.n	a14, a14, a12
    24d0:	2c0c      	movi.n	a12, 2
    24d2:	b721b2        	l32i	a11, a1, 0x2dc
    24d5:	740061        	l32r	a6, 0xfffdf4d8
    24d8:	41a8e0        	srli	a10, a14, 8
    24db:	3f2682        	l32i	a8, a6, 252
    24de:	8f4ba2        	s8i	a10, a11, 143
    24e1:	8e4be2        	s8i	a14, a11, 142
    24e4:	a42b      	addi.n	a10, a4, 2
    24e6:	b521b2        	l32i	a11, a1, 0x2d4
    24e9:	171792        	l16ui	a9, a7, 46
    24ec:	005492        	s16i	a9, a4, 0
    24ef:	0008e0        	excw
    24f2:	b521d2        	l32i	a13, a1, 0x2d4
    24f5:	c0afc2        	movi	a12, -64
    24f8:	020dd2        	l8ui	a13, a13, 2
    24fb:	0444d2        	s8i	a13, a4, 4
    24fe:	0544c2        	s8i	a12, a4, 5
    2501:	37e516        	beqz	a5, 0x2883
    2504:	0c05e2        	l8ui	a14, a5, 12
    2507:	378e16        	beqz	a14, 0x2883
    250a:	65cb      	addi.n	a6, a5, 12
    250c:	744381        	l32r	a8, 0xfffdf618
    250f:	a46b      	addi.n	a10, a4, 6
    2511:	8c2882        	l32i	a8, a8, 0x230
    2514:	06bd      	mov.n	a11, a6
    2516:	0008e0        	excw
    2519:	744381        	l32r	a8, 0xfffdf628
    251c:	8d2882        	l32i	a8, a8, 0x234
    251f:	5f          	.byte 0x5f
    2520:	e80b05        	call0	0xfffea5d4
    2523:	095fe5        	excw
    2526:	0a3f83        	excw
    2529:	ab6192        	s32i	a9, a1, 0x2ac
    252c:	04bee0        	extui	a11, a14, 14, 1
    252f:	0a3b16        	beqz	a11, 0x25d6
    2532:	5f          	.byte 0x5f
    2533:	198106        	j	0x8b3b
    2536:	822b      	addi.n	a8, a2, 2
    2538:	1028      	l32i.n	a2, a0, 4
    253a:	c1cb      	addi.n	a12, a1, 12
    253c:	0008e0        	excw
    253f:	14c1a2        	addi	a10, a1, 20
    2542:	41b8      	l32i.n	a11, a1, 16
    2544:	cc1c      	movi.n	a12, 28
    2546:	5f          	.byte 0x5f
    2547:	388306        	j	0x10757
    254a:	0c0192        	l8ui	a9, a1, 12
    254d:	d9bc      	beqz.n	a9, 0x258e
    254f:	5f          	.byte 0x5f
    2550:	348307        	bany	a3, a0, 0x2588
    2553:	c1b225        	excw
    2556:	2c0c30        	excw
    2559:	740081        	l32r	a8, 0xfffdf55c
    255c:	1701a2        	l8ui	a10, a1, 23
    255f:	160192        	l8ui	a9, a1, 22
    2562:	11aa80        	slli	a10, a10, 8
    2565:	2099a0        	or	a9, a9, a10
    2568:	055fa1        	l32r	a10, 0xfffc3ae4
    256b:	a03383        	excw
    256e:	1099      	s32i.n	a9, a0, 4
    2570:	185192        	s16i	a9, a1, 48
    2573:	16c1a2        	addi	a10, a1, 22
    2576:	5f          	.byte 0x5f
    2577:	a26f06        	j	0xfffeaf37
    257a:	82ab21        	l32r	a2, 0xfffe3028
    257d:	9028      	l32i.n	a2, a0, 36
    257f:	14c1b2        	addi	a11, a1, 20
    2582:	5f          	.byte 0x5f
    2583:	618205        	call0	0x63da4
    2586:	5f          	.byte 0x5f
    2587:	3b6006        	j	0x1130b
    258a:	5f          	.byte 0x5f
    258b:	6008      	l32i.n	a0, a0, 24
    258d:	0c0192        	l8ui	a9, a1, 12
    2590:	c9ac      	beqz.n	a9, 0x25c0
    2592:	744381        	l32r	a8, 0xfffdf6a0
    2595:	fba0c2        	movi	a12, 251
    2598:	41a8      	l32i.n	a10, a1, 16
    259a:	af07b2        	l8ui	a11, a7, 175
    259d:	030a92        	l8ui	a9, a10, 3
    25a0:	04b2b0        	extui	a11, a11, 2, 1
    25a3:	11bbe0        	slli	a11, a11, 2
    25a6:	1099c0        	and	a9, a9, a12
    25a9:	2099b0        	or	a9, a9, a11
    25ac:	aea0c2        	movi	a12, 174
    25af:	c7ca      	add.n	a12, a7, a12
    25b1:	034a92        	s8i	a9, a10, 3
    25b4:	06ad      	mov.n	a10, a6
    25b6:	912882        	l32i	a8, a8, 0x244
    25b9:	41b8      	l32i.n	a11, a1, 16
    25bb:	5f          	.byte 0x5f
    25bc:	e84205        	call0	0xfffea9e0
    25bf:	6e17e5        	excw
    25c2:	07d216        	beqz	a2, 0x2643
    25c5:	0d9c53        	excw
    25c8:	06cd      	mov.n	a12, a6
    25ca:	743e81        	l32r	a8, 0xfffdf6c4
    25cd:	02ad      	mov.n	a10, a2
    25cf:	3888      	l32i.n	a8, a8, 12
    25d1:	07bd      	mov.n	a11, a7
    25d3:	5f          	.byte 0x5f
    25d4:	e01a07        	beq	a10, a0, 0x25b8
    25d7:	0598      	l32i.n	a9, a5, 0
    25d9:	0202e2        	l8ui	a14, a2, 2
    25dc:	098916        	beqz	a9, 0x2678
    25df:	662e26        	beqi	a14, 2, 0x2649
    25e2:	634e26        	beqi	a14, 4, 0x2649
    25e5:	603e26        	beqi	a14, 3, 0x2649
    25e8:	5d5e26        	beqi	a14, 5, 0x2649
    25eb:	b021c2        	l32i	a12, a1, 0x2c0
    25ee:	000cc2        	l8ui	a12, a12, 0
    25f1:	083c16        	beqz	a12, 0x2678
    25f4:	b021d2        	l32i	a13, a1, 0x2c0
    25f7:	020dd2        	l8ui	a13, a13, 2
    25fa:	0f0c      	movi.n	a15, 0
    25fc:	284db6        	bltui	a13, 4, 0x2628
    25ff:	b021a2        	l32i	a10, a1, 0x2c0
    2602:	030a82        	l8ui	a8, a10, 3
    2605:	060ab2        	l8ui	a11, a10, 6
    2608:	040a92        	l8ui	a9, a10, 4
    260b:	01bb80        	slli	a11, a11, 24
    260e:	119980        	slli	a9, a9, 8
    2611:	208890        	or	a8, a8, a9
    2614:	050aa2        	l8ui	a10, a10, 5
    2617:	744891        	l32r	a9, 0xfffdf738
    261a:	11aa00        	slli	a10, a10, 16
    261d:	20aab0        	or	a10, a10, a11
    2620:	2088a0        	or	a8, a8, a10
    2623:	019897        	bne	a8, a9, 0x2628
    2626:	1f0c      	movi.n	a15, 1
    2628:	04cf16        	beqz	a15, 0x2678
    262b:	06ad      	mov.n	a10, a6
    262d:	740081        	l32r	a8, 0xfffdf630
    2630:	b021b2        	l32i	a11, a1, 0x2c0
    2633:	3f2882        	l32i	a8, a8, 252
    2636:	bb1b      	addi.n	a11, a11, 1
    2638:	0008e0        	excw
    263b:	b02192        	l32i	a9, a1, 0x2c0
    263e:	000992        	l8ui	a9, a9, 0
    2641:	0202e2        	l8ui	a14, a2, 2
    2644:	696a      	add.n	a6, a9, a6
    2646:	000b86        	j	0x2678
    2649:	01a8      	l32i.n	a10, a1, 0
    264b:	9aac      	beqz.n	a10, 0x2678
    264d:	000ab2        	l8ui	a11, a10, 0
    2650:	4bac      	beqz.n	a11, 0x2678
    2652:	40c1b2        	addi	a11, a1, 64
    2655:	0c0c      	movi.n	a12, 0
    2657:	ff9ee5        	excw
    265a:	af61a2        	s32i	a10, a1, 0x2bc
    265d:	4a9c      	beqz.n	a10, 0x2675
    265f:	5f          	.byte 0x5f
    2660:	c13406        	j	0xffff2b34
    2663:	288240        	excw
    2666:	3f          	.byte 0x3f
    2667:	af21c2        	l32i	a12, a1, 0x2bc
    266a:	5f          	.byte 0x5f
    266b:	af3505        	call0	0xfffb19bc
    266e:	696a      	add.n	a6, a9, a6
    2670:	0202e2        	l8ui	a14, a2, 2
    2673:	fecea2        	addi	a10, a14, -2
    2676:	1a8a16        	beqz	a10, 0x2822
    2679:	fcceb2        	addi	a11, a14, -4
    267c:	1a2b16        	beqz	a11, 0x2822
    267f:	fdcec2        	addi	a12, a14, -3
    2682:	19cc16        	beqz	a12, 0x2822
    2685:	fbced2        	addi	a13, a14, -5
    2688:	196d16        	beqz	a13, 0x2822
    268b:	b721e2        	l32i	a14, a1, 0x2dc
    268e:	471ee2        	l16ui	a14, a14, 142
    2691:	c0c640        	sub	a12, a6, a4
    2694:	0aaec7        	bge	a14, a12, 0x26a2
    2697:	5f          	.byte 0x5f
    2698:	8a0b      	addi.n	a8, a10, -1
    269a:	5e          	.byte 0x5e
    269b:	743eb1        	l32r	a11, 0xfffdf794
    269e:	b72192        	l32i	a9, a1, 0x2dc
    26a1:	4188c0        	srli	a8, a12, 8
    26a4:	8e49c2        	s8i	a12, a9, 142
    26a7:	8f4982        	s8i	a8, a9, 143
    26aa:	feb4c6        	j	0x2181
    26ad:	1717b2        	l16ui	a11, a7, 46
    26b0:	a96192        	s32i	a9, a1, 0x2a4
    26b3:	04b5b0        	extui	a11, a11, 5, 1
    26b6:	bf7b16        	beqz	a11, 0x22b1
    26b9:	1022c2        	l32i	a12, a2, 64
    26bc:	a96192        	s32i	a9, a1, 0x2a4
    26bf:	05c2c0        	extui	a12, a12, 18, 1
    26c2:	bebc16        	beqz	a12, 0x22b1
    26c5:	2e22d2        	l32i	a13, a2, 184
    26c8:	7d8c      	beqz.n	a13, 0x26d3
    26ca:	5607e2        	l8ui	a14, a7, 86
    26cd:	04e2e0        	extui	a14, a14, 2, 1
    26d0:	bdde56        	bnez	a14, 0x22b1
    26d3:	a921f2        	l32i	a15, a1, 0x2a4
    26d6:	20ffa0        	or	a15, a15, a10
    26d9:	a961f2        	s32i	a15, a1, 0x2a4
    26dc:	fef446        	j	0x22b1
    26df:	976b      	addi.n	a9, a7, 6
    26e1:	e588      	l32i.n	a8, a5, 56
    26e3:	b36192        	s32i	a9, a1, 0x2cc
    26e6:	1f6897        	bbci	a8, 9, 0x2709
    26e9:	06dd      	mov.n	a13, a6
    26eb:	b24b      	addi.n	a11, a2, 4
    26ed:	b321c2        	l32i	a12, a1, 0x2cc
    26f0:	9121e2        	l32i	a14, a1, 0x244
    26f3:	5f          	.byte 0x5f
    26f4:	658906        	j	0x1bd1c
    26f7:	0f          	.byte 0xf
    26f8:	743f81        	l32r	a8, 0xfffdf7f4
    26fb:	83f9a0        	moveqz	a15, a9, a10
    26fe:	7888      	l32i.n	a8, a8, 28
    2700:	5f          	.byte 0x5f
    2701:	2b8505        	call0	0x2df54
    2704:	0a6d      	mov.n	a6, a10
    2706:	ae21f2        	l32i	a15, a1, 0x2b8
    2709:	1ff8      	l32i.n	a15, a15, 4
    270b:	af9c      	beqz.n	a15, 0x2729
    270d:	000fc2        	l8ui	a12, a15, 0
    2710:	5c9c      	beqz.n	a12, 0x2729
    2712:	740081        	l32r	a8, 0xfffdf714
    2715:	bf1b      	addi.n	a11, a15, 1
    2717:	3f2882        	l32i	a8, a8, 252
    271a:	5f          	.byte 0x5f
    271b:	1c9105        	call0	0x1f02c
    271e:	ae2192        	l32i	a9, a1, 0x2b8
    2721:	1998      	l32i.n	a9, a9, 4
    2723:	000992        	l8ui	a9, a9, 0
    2726:	696a      	add.n	a6, a9, a6
    2728:	050c      	movi.n	a5, 0
    272a:	ae2192        	l32i	a9, a1, 0x2b8
    272d:	a09590        	addx4	a9, a5, a9
    2730:	49b8      	l32i.n	a11, a9, 16
    2732:	ebac      	beqz.n	a11, 0x2764
    2734:	000bc2        	l8ui	a12, a11, 0
    2737:	ac6192        	s32i	a9, a1, 0x2b0
    273a:	6cac      	beqz.n	a12, 0x2764
    273c:	5f          	.byte 0x5f
    273d:	bb2b04        	excw
    2740:	5f          	.byte 0x5f
    2741:	2b08      	l32i.n	a0, a11, 8
    2743:	ac21b2        	l32i	a11, a1, 0x2b0
    2746:	02ad      	mov.n	a10, a2
    2748:	4bb8      	l32i.n	a11, a11, 16
    274a:	744781        	l32r	a8, 0xfffdf868
    274d:	000b92        	l8ui	a9, a11, 0
    2750:	e888      	l32i.n	a8, a8, 56
    2752:	696a      	add.n	a6, a9, a6
    2754:	5f          	.byte 0x5f
    2755:	1c8505        	call0	0x1efa8
    2758:	0cac      	beqz.n	a12, 0x277c
    275a:	c90c      	movi.n	a9, 12
    275c:	1b4d      	excw
    275e:	505055        	excw
    2761:	256674        	excw
    2764:	b2bd      	excw
    2766:	b2b721        	l32r	a2, 0xfffef244
    2769:	471b      	addi.n	a4, a7, 1
    276b:	c05640        	sub	a5, a6, a4
    276e:	02ab57        	bge	a11, a5, 0x2774
    2771:	fe8186        	j	0x217b
    2774:	fe8386        	j	0x2186
    2777:	0c0c      	movi.n	a12, 0
    2779:	06bd      	mov.n	a11, a6
    277b:	743e81        	l32r	a8, 0xfffdf874
    277e:	a721d2        	l32i	a13, a1, 0x29c
    2781:	5f          	.byte 0x5f
    2782:	5c9107        	bne	a1, a0, 0x27e2
    2785:	744981        	l32r	a8, 0xfffdf8ac
    2788:	0a6d      	mov.n	a6, a10
    278a:	5f          	.byte 0x5f
    278b:	089c07        	bne	a12, a0, 0x2797
    278e:	feca92        	addi	a9, a10, -2
    2791:	f39916        	beqz	a9, 0x26ce
    2794:	090c      	movi.n	a9, 0
    2796:	90b990        	addx2	a11, a9, a9
    2799:	90bb70        	addx2	a11, a11, a7
    279c:	6a0bb2        	l8ui	a11, a11, 106
    279f:	a66192        	s32i	a9, a1, 0x298
    27a2:	059b16        	beqz	a11, 0x27ff
    27a5:	744681        	l32r	a8, 0xfffdf8c0
    27a8:	02ad      	mov.n	a10, a2
    27aa:	8888      	l32i.n	a8, a8, 32
    27ac:	09bd      	mov.n	a11, a9
    27ae:	0008e0        	excw
    27b1:	b121c2        	l32i	a12, a1, 0x2c4
    27b4:	5f          	.byte 0x5f
    27b5:	708705        	call0	0x73028
    27b8:	b861a2        	s32i	a10, a1, 0x2e0
    27bb:	8f2882        	l32i	a8, a8, 0x23c
    27be:	5f          	.byte 0x5f
    27bf:	088105        	call0	0xafd0
    27c2:	b821e2        	l32i	a14, a1, 0x2e0
    27c5:	0a6d      	mov.n	a6, a10
    27c7:	0ea8      	l32i.n	a10, a14, 0
    27c9:	a62192        	l32i	a9, a1, 0x298
    27cc:	daac      	beqz.n	a10, 0x27fd
    27ce:	99afc2        	movi	a12, -103
    27d1:	044ec2        	s8i	a12, a14, 4
    27d4:	e5b8      	l32i.n	a11, a5, 56
    27d6:	236b97        	bbci	a11, 9, 0x27fd
    27d9:	1122d2        	l32i	a13, a2, 68
    27dc:	1d6d47        	bbci	a13, 4, 0x27fd
    27df:	06bd      	mov.n	a11, a6
    27e1:	02ad      	mov.n	a10, a2
    27e3:	0d02d2        	l8ui	a13, a2, 13
    27e6:	b821c2        	l32i	a12, a1, 0x2e0
    27e9:	743f81        	l32r	a8, 0xfffdf8e8
    27ec:	070cc2        	l8ui	a12, a12, 7
    27ef:	132882        	l32i	a8, a8, 76
    27f2:	34c1c0        	extui	a12, a12, 1, 4
    27f5:	5f          	.byte 0x5f
    27f6:	698105        	call0	0x6c008
    27f9:	0a6da6        	blti	a13, 6, 0x2807
    27fc:	991b      	addi.n	a9, a9, 1
    27fe:	749090        	extui	a9, a9, 0, 8
    2801:	8e4966        	bnei	a9, 4, 0x2793
    2804:	ffb0c6        	j	0x26cb
    2807:	80a1a2        	movi	a10, 0x180
    280a:	a5aa      	add.n	a10, a5, a10
    280c:	5c1aa2        	l16ui	a10, a10, 184
    280f:	04ada0        	extui	a10, a10, 13, 1
    2812:	e5aa16        	beqz	a10, 0x2670
    2815:	01a8      	l32i.n	a10, a1, 0
    2817:	e55a16        	beqz	a10, 0x2670
    281a:	1c0c      	movi.n	a12, 1
    281c:	01d1b2        	addmi	a11, a1, 0x100
    281f:	40cbb2        	addi	a11, a11, 64
    2822:	ff8025        	excw
    2825:	0a5d      	mov.n	a5, a10
    2827:	e45a16        	beqz	a10, 0x2670
    282a:	06ad      	mov.n	a10, a6
    282c:	05cd      	mov.n	a12, a5
    282e:	5f          	.byte 0x5f
    282f:	418905        	call0	0x440c0
    2832:	288201        	l32r	a0, 0xfffcca3c
    2835:	3f          	.byte 0x3f
    2836:	40cbb2        	addi	a11, a11, 64
    2839:	0008e0        	excw
    283c:	656a      	add.n	a6, a5, a6
    283e:	ff8b46        	j	0x266f
    2841:	58c762        	addi	a6, a7, 88
    2844:	ff2086        	j	0x24ca
    2847:	004136        	excw
    284a:	13ac      	beqz.n	a3, 0x286f
    284c:	1fc326        	beqi	a3, 32, 0x286f
    284f:	1cb326        	beqi	a3, 16, 0x286f
    2852:	083c      	movi.n	a8, 48
    2854:	171387        	beq	a3, a8, 0x286f
    2857:	02ad      	mov.n	a10, a2
    2859:	03bd      	mov.n	a11, a3
    285b:	04cd      	mov.n	a12, a4
    285d:	05dd      	mov.n	a13, a5
    285f:	744b81        	l32r	a8, 0xfffdf98c
    2862:	06ed      	mov.n	a14, a6
    2864:	0888      	l32i.n	a8, a8, 0
    2866:	07fd      	mov.n	a15, a7
    2868:	5f          	.byte 0x5f
    2869:	699d07        	bne	a13, a0, 0x28d6
    286c:	07fd      	mov.n	a15, a7
    286e:	06ed      	mov.n	a14, a6
    2870:	5f          	.byte 0x5f
    2871:	628d05        	call0	0x65144
    2874:	02ad03        	excw
    2877:	ff84a5        	excw
    287a:	5f          	.byte 0x5f
    287b:	9d08      	l32i.n	a0, a13, 36
    287d:	427c      	movi.n	a2, -12
    287f:	262d22        	l32i	a2, a13, 152
    2882:	260e14        	excw
    2885:	661054        	excw
    2888:	0c0674        	excw
    288b:	624264        	excw
    288e:	1d2d      	excw
    2890:	f01df0        	subx8	a1, a13, a15
    2893:	340c      	movi.n	a4, 3
    2895:	fffcc6        	j	0x288c
    2898:	440c      	movi.n	a4, 4
    289a:	fffb86        	j	0x288c
    289d:	360000        	excw
    28a0:	7000c1        	l32r	a12, 0xfffde8a0
    28a3:	ad74c0        	excw
    28a6:	0d0c02        	l8ui	a0, a12, 13
    28a9:	742081        	l32r	a8, 0xfffdf92c
    28ac:	d139      	s32i.n	a3, a1, 52
    28ae:	1b0c      	movi.n	a11, 1
    28b0:	043d      	mov.n	a3, a4
    28b2:	20b6b0        	or	a11, a6, a11
    28b5:	f4b0b0        	extui	a11, a11, 0, 16
    28b8:	182882        	l32i	a8, a8, 96
    28bb:	055f42        	s16i	a4, a15, 10
    28be:	8f          	.byte 0x8f
    28bf:	0a7d67        	bbci	a13, 22, 0x28cd
    28c2:	c149      	s32i.n	a4, a1, 48
    28c4:	1b1a16        	beqz	a10, 0x2a79
    28c7:	02ad      	mov.n	a10, a2
    28c9:	0b0c      	movi.n	a11, 0
    28cb:	b139      	s32i.n	a3, a1, 44
    28cd:	744781        	l32r	a8, 0xfffdf9ec
    28d0:	4768      	l32i.n	a6, a7, 16
    28d2:	9888      	l32i.n	a8, a8, 36
    28d4:	242642        	l32i	a4, a6, 144
    28d7:	0008e0        	excw
    28da:	0a3d      	mov.n	a3, a10
    28dc:	7400a1        	l32r	a10, 0xfffdf8dc
    28df:	94a092        	movi	a9, 148
    28e2:	02daf2        	addmi	a15, a10, 0x200
    28e5:	1d6316        	beqz	a3, 0x2abf
    28e8:	2426c2        	l32i	a12, a6, 144
    28eb:	969a      	add.n	a9, a6, a9
    28ed:	e8ccc2        	addi	a12, a12, -24
    28f0:	0abc97        	bgeu	a12, a9, 0x28fe
    28f3:	055fb1        	l32r	a11, 0xfffc3e70
    28f6:	b80185        	call0	0xfffba910
    28f9:	c00b      	addi.n	a12, a0, -1
    28fb:	c20020        	excw
    28fe:	0c9046        	j	0x5b43
    2901:	d20d      	excw
    2903:	c08f46        	j	0xffff2b44
    2906:	41c8      	l32i.n	a12, a1, 16
    2908:	9146c2        	s8i	a12, a6, 145
    290b:	8e46d2        	s8i	a13, a6, 142
    290e:	5f          	.byte 0x5f
    290f:	5f0905        	call0	0x619a0
    2912:	5c9405        	call0	0x5f254
    2915:	c29346        	j	0xffff3366
    2918:	e20113        	excw
    291b:	b82426        	beqi	a4, 2, 0x28d7
    291e:	2ad213        	excw
    2921:	3f          	.byte 0x3f
    2922:	153556        	bnez	a5, 0x2a79
    2925:	0ead      	mov.n	a10, a14
    2927:	000de0        	excw
    292a:	4716b2        	l16ui	a11, a6, 142
    292d:	0113a2        	l16ui	a10, a3, 2
    2930:	aaba      	add.n	a10, a10, a11
    2932:	8e46a2        	s8i	a10, a6, 142
    2935:	0b0c      	movi.n	a11, 0
    2937:	4198a0        	srli	a9, a10, 8
    293a:	743e51        	l32r	a5, 0xfffdfa34
    293d:	8f4692        	s8i	a9, a6, 143
    2940:	0588      	l32i.n	a8, a5, 0
    2942:	5f          	.byte 0x5f
    2943:	5aa505        	call0	0x5d394
    2946:	004446        	j	0x2a5b
    2949:	04ad      	mov.n	a10, a4
    294b:	0005c2        	l8ui	a12, a5, 0
    294e:	b51b      	addi.n	a11, a5, 1
    2950:	91b9      	s32i.n	a11, a1, 36
    2952:	5f          	.byte 0x5f
    2953:	052c04        	excw
    2956:	0a5d00        	excw
    2959:	1d7b66        	bnei	a11, 7, 0x297a
    295c:	91a8      	l32i.n	a10, a1, 36
    295e:	740081        	l32r	a8, 0xfffdf960
    2961:	744cb1        	l32r	a11, 0xfffdfa94
    2964:	412882        	l32i	a8, a8, 0x104
    2967:	7c0c      	movi.n	a12, 7
    2969:	0008e0        	excw
    296c:	aacc      	bnez.n	a10, 0x297a
    296e:	890692        	l8ui	a9, a6, 137
    2971:	80a0a2        	movi	a10, 128
    2974:	2099a0        	or	a9, a9, a10
    2977:	894692        	s8i	a9, a6, 137
    297a:	2d2292        	l32i	a9, a2, 180
    297d:	b90b      	addi.n	a11, a9, -1
    297f:	154b16        	beqz	a11, 0x2ad7
    2982:	fbc9c2        	addi	a12, a9, -5
    2985:	14ec16        	beqz	a12, 0x2ad7
    2988:	f9c9d2        	addi	a13, a9, -7
    298b:	148d16        	beqz	a13, 0x2ad7
    298e:	02ad      	mov.n	a10, a2
    2990:	743d81        	l32r	a8, 0xfffdfa84
    2993:	01bd      	mov.n	a11, a1
    2995:	132882        	l32i	a8, a8, 76
    2998:	1c0c      	movi.n	a12, 1
    299a:	5f          	.byte 0x5f
    299b:	668806        	j	0x1c3bf
    299e:	05ad      	mov.n	a10, a5
    29a0:	8c2882        	l32i	a8, a8, 0x230
    29a3:	5f          	.byte 0x5f
    29a4:	3e9a05        	call0	0x41348
    29a7:	5f          	.byte 0x5f
    29a8:	628907        	bany	a9, a0, 0x2a0e
    29ab:	5f          	.byte 0x5f
    29ac:	4d0b05        	call0	0x4fa60
    29af:	0a5d74        	excw
    29b2:	a888      	l32i.n	a8, a8, 40
    29b4:	5f          	.byte 0x5f
    29b5:	68a806        	j	0x1cc59
    29b8:	c81b      	addi.n	a12, a8, 1
    29ba:	0c2a      	add.n	a0, a12, a2
    29bc:	c009      	s32i.n	a0, a0, 48
    29be:	c014c0        	sub	a1, a4, a12
    29c1:	839b      	addi.n	a8, a3, 9
    29c3:	992a      	add.n	a9, a9, a2
    29c5:	02d992        	addmi	a9, a9, 0x200
    29c8:	c00992        	l8ui	a9, a9, 192
    29cb:	29ac      	beqz.n	a9, 0x29f1
    29cd:	5f          	.byte 0x5f
    29ce:	890a      	add.n	a8, a9, a0
    29d0:	6f          	.byte 0x6f
    29d1:	5f          	.byte 0x5f
    29d2:	1e9d06        	j	0xa44a
    29d5:	100192        	l8ui	a9, a1, 16
    29d8:	d98c      	beqz.n	a9, 0x29e9
    29da:	5f          	.byte 0x5f
    29db:	904f07        	ball	a15, a0, 0x296f
    29de:	51b8      	l32i.n	a11, a1, 20
    29e0:	0008e0        	excw
    29e3:	0a5d      	mov.n	a5, a10
    29e5:	5f3f81        	l32r	a8, 0xfffda6e4
    29e8:	089305        	call0	0xb31c
    29eb:	5f1c      	movi.n	a15, 21
    29ed:	984705        	call0	0xfff9ae60
    29f0:	0998c1        	l32r	a12, 0xfffc5050
    29f3:	0a5d      	mov.n	a5, a10
    29f5:	b9ac      	beqz.n	a9, 0x2a24
    29f7:	7199      	s32i.n	a9, a1, 28
    29f9:	0009c2        	l8ui	a12, a9, 0
    29fc:	81a9      	s32i.n	a10, a1, 32
    29fe:	2cac      	beqz.n	a12, 0x2a24
    2a00:	71b8      	l32i.n	a11, a1, 28
    2a02:	740081        	l32r	a8, 0xfffdfa04
    2a05:	471692        	l16ui	a9, a6, 142
    2a08:	3f2882        	l32i	a8, a8, 252
    2a0b:	99ca      	add.n	a9, a9, a12
    2a0d:	bb1b      	addi.n	a11, a11, 1
    2a0f:	8e4692        	s8i	a9, a6, 142
    2a12:	5f          	.byte 0x5f
    2a13:	1f9c05        	call0	0x223d4
    2a16:	8f          	.byte 0x8f
    2a17:	0008e0        	excw
    2a1a:	7158      	l32i.n	a5, a1, 28
    2a1c:	8188      	l32i.n	a8, a1, 32
    2a1e:	000552        	l8ui	a5, a5, 0
    2a21:	558a      	add.n	a5, a5, a8
    2a23:	471682        	l16ui	a8, a6, 142
    2a26:	c0a540        	sub	a10, a5, a4
    2a29:	0aa8a7        	bge	a8, a10, 0x2a37
    2a2c:	055f91        	l32r	a9, 0xfffc3fa8
    2a2f:	985982        	s16i	a8, a9, 0x130
    2a32:	c009      	s32i.n	a0, a0, 48
    2a34:	a20020        	excw
    2a37:	a08e46        	j	0xfffeac74
    2a3a:	41b8      	l32i.n	a11, a1, 16
    2a3c:	8f46b2        	s8i	a11, a6, 143
    2a3f:	02ad      	mov.n	a10, a2
    2a41:	d1d8      	l32i.n	a13, a1, 52
    2a43:	b1e8      	l32i.n	a14, a1, 44
    2a45:	07bd      	mov.n	a11, a7
    2a47:	0c4c      	movi.n	a12, 64
    2a49:	190c      	movi.n	a9, 1
    2a4b:	743e81        	l32r	a8, 0xfffdfb44
    2a4e:	933930        	movnez	a3, a9, a3
    2a51:	6888      	l32i.n	a8, a8, 24
    2a53:	03fd      	mov.n	a15, a3
    2a55:	0008e0        	excw
    2a58:	072d      	mov.n	a2, a7
    2a5a:	f01d      	excw
    2a5c:	e6ccc2        	addi	a12, a12, -26
    2a5f:	0ead      	mov.n	a10, a14
    2a61:	f4c0c0        	extui	a12, a12, 0, 16
    2a64:	a1c9      	s32i.n	a12, a1, 40
    2a66:	8c1c      	movi.n	a12, 24
    2a68:	000de0        	excw
    2a6b:	04ad      	mov.n	a10, a4
    2a6d:	744381        	l32r	a8, 0xfffdfb7c
    2a70:	b51b      	addi.n	a11, a5, 1
    2a72:	8e2882        	l32i	a8, a8, 0x238
    2a75:	0005c2        	l8ui	a12, a5, 0
    2a78:	0008e0        	excw
    2a7b:	a1c8      	l32i.n	a12, a1, 40
    2a7d:	740081        	l32r	a8, 0xfffdfa80
    2a80:	13b8      	l32i.n	a11, a3, 4
    2a82:	5f          	.byte 0x5f
    2a83:	798405        	call0	0x7c2c4
    2a86:	e01a      	add.n	a14, a0, a1
    2a88:	0008      	l32i.n	a0, a0, 0
    2a8a:	0113c2        	l16ui	a12, a3, 2
    2a8d:	0005b2        	l8ui	a11, a5, 0
    2a90:	4716a2        	l16ui	a10, a6, 142
    2a93:	bbca      	add.n	a11, a11, a12
    2a95:	5f          	.byte 0x5f
    2a96:	038305        	call0	0x62c8
    2a99:	ff9e46        	j	0x2916
    2a9c:	1e5c      	movi.n	a14, 81
    2a9e:	5f          	.byte 0x5f
    2a9f:	408305        	call0	0x432d0
    2aa2:	8e46e2        	s8i	a14, a6, 142
    2aa5:	8e2fd2        	l32i	a13, a15, 0x238
    2aa8:	e7e556        	bnez	a5, 0x292a
    2aab:	04ad      	mov.n	a10, a4
    2aad:	0b0c      	movi.n	a11, 0
    2aaf:	0c0c      	movi.n	a12, 0
    2ab1:	000de0        	excw
    2ab4:	0a5d      	mov.n	a5, a10
    2ab6:	ffa886        	j	0x295c
    2ab9:	8906f2        	l8ui	a15, a6, 137
    2abc:	6199      	s32i.n	a9, a1, 24
    2abe:	04f7f0        	extui	a15, a15, 7, 1
    2ac1:	eabf16        	beqz	a15, 0x2970
    2ac4:	02ad      	mov.n	a10, a2
    2ac6:	ffd8e5        	excw
    2ac9:	5f          	.byte 0x5f
    2aca:	0f          	.byte 0xf
    2acb:	985982        	s16i	a8, a9, 0x130
    2ace:	629261        	l32r	a6, 0xfffdb518
    2ad1:	862d      	excw
    2ad3:	5fffa7        	bbsi	a15, 26, 0x2b36
    2ad6:	609405        	call0	0x63418
    2ad9:	744e91        	l32r	a9, 0xfffdfc14
    2adc:	744f21        	l32r	a2, 0xfffdfc18
    2adf:	744731        	l32r	a3, 0xfffdfbfc
    2ae2:	744b81        	l32r	a8, 0xfffdfc10
    2ae5:	5348      	l32i.n	a4, a3, 20
    2ae7:	0849      	s32i.n	a4, a8, 0
    2ae9:	5329      	s32i.n	a2, a3, 20
    2aeb:	3399      	s32i.n	a9, a3, 12
    2aed:	5f          	.byte 0x5f
    2aee:	649406        	j	0x1bd42
    2af1:	ad0081        	l32r	a8, 0xfffedef4
    2af4:	01bd02        	excw
    2af7:	000392        	l8ui	a9, a3, 0
    2afa:	972232        	l32i	a3, a2, 0x25c
    2afd:	745081        	l32r	a8, 0xfffdfc40
    2b00:	114392        	s8i	a9, a3, 17
    2b03:	182882        	l32i	a8, a8, 96
    2b06:	8c0c      	movi.n	a12, 8
    2b08:	0008e0        	excw
    2b0b:	f4c0a0        	extui	a12, a10, 0, 16
    2b0e:	5c9c      	beqz.n	a12, 0x2b27
    2b10:	01bd      	mov.n	a11, a1
    2b12:	090c      	movi.n	a9, 0
    2b14:	1103a2        	l8ui	a10, a3, 17
    2b17:	0c9c76        	excw
    2b1a:	d91b      	addi.n	a13, a9, 1
    2b1c:	a0c9b0        	addx4	a12, a9, a11
    2b1f:	0cc8      	l32i.n	a12, a12, 0
    2b21:	f490d0        	extui	a9, a13, 0, 16
    2b24:	544ca2        	s8i	a10, a12, 84
    2b27:	0302d2        	l8ui	a13, a2, 3
    2b2a:	0a3d66        	bnei	a13, 3, 0x2b38
    2b2d:	744281        	l32r	a8, 0xfffdfc38
    2b30:	5f          	.byte 0x5f
    2b31:	8208      	l32i.n	a0, a2, 32
    2b33:	5f5c      	movi.n	a15, 85
    2b35:	549605        	call0	0x57498
    2b38:	dc0041        	l32r	a4, 0xffff9b38
    2b3b:	028205        	call0	0x535c
    2b3e:	486602        	s32i	a0, a6, 0x120
    2b41:	810b      	addi.n	a8, a1, -1
    2b43:	ad7451        	l32r	a5, 0xfffee114
    2b46:	288802        	excw
    2b49:	7b0c      	movi.n	a11, 7
    2b4b:	5f          	.byte 0x5f
    2b4c:	9a08      	l32i.n	a0, a10, 36
    2b4e:	521d      	excw
    2b50:	03bd74        	excw
    2b53:	5f          	.byte 0x5f
    2b54:	3da807        	bge	a8, a0, 0x2b95
    2b57:	5f          	.byte 0x5f
    2b58:	9508      	l32i.n	a0, a5, 36
    2b5a:	562174        	excw
    2b5d:	533174        	excw
    2b60:	548174        	excw
    2b63:	554174        	excw
    2b66:	684274        	excw
    2b69:	3819      	s32i.n	a1, a8, 12
    2b6b:	528103        	excw
    2b6e:	b34874        	excw
    2b71:	0849      	s32i.n	a4, a8, 0
    2b73:	b329      	s32i.n	a2, a3, 44
    2b75:	f01d      	excw
    2b77:	613600        	excw
    2b7a:	217900        	srai	a7, a0, 9
    2b7d:	43c8      	l32i.n	a12, a3, 16
    2b7f:	02dd      	mov.n	a13, a2
    2b81:	e198      	l32i.n	a9, a1, 56
    2b83:	1b0c      	movi.n	a11, 1
    2b85:	09e8      	l32i.n	a14, a9, 0
    2b87:	19f8      	l32i.n	a15, a9, 4
    2b89:	0e8d      	mov.n	a8, a14
    2b8b:	0fad      	mov.n	a10, a15
    2b8d:	93abf0        	movnez	a10, a11, a15
    2b90:	938be0        	movnez	a8, a11, a14
    2b93:	2088a0        	or	a8, a8, a10
    2b96:	1822a2        	l32i	a10, a2, 96
    2b99:	292222        	l32i	a2, a2, 164
    2b9c:	471c72        	l16ui	a7, a12, 142
    2b9f:	1238      	l32i.n	a3, a2, 4
    2ba1:	a8bc      	beqz.n	a8, 0x2bdf
    2ba3:	07cd      	mov.n	a12, a7
    2ba5:	05bd      	mov.n	a11, a5
    2ba7:	745781        	l32r	a8, 0xfffdfd04
    2baa:	0dad      	mov.n	a10, a13
    2bac:	0888      	l32i.n	a8, a8, 0
    2bae:	5f          	.byte 0x5f
    2baf:	3b9505        	call0	0x3e500
    2bb2:	c1b8      	l32i.n	a11, a1, 48
    2bb4:	7490a0        	extui	a9, a10, 0, 8
    2bb7:	a09990        	addx4	a9, a9, a9
    2bba:	004ba2        	s8i	a10, a11, 0
    2bbd:	b09930        	addx8	a9, a9, a3
    2bc0:	2409c2        	l8ui	a12, a9, 36
    2bc3:	34cc      	bnez.n	a4, 0x2bca
    2bc5:	0a0c      	movi.n	a10, 0
    2bc7:	000086        	j	0x2bcd
    2bca:	2509a2        	l8ui	a10, a9, 37
    2bcd:	20cac0        	or	a12, a10, a12
    2bd0:	0046c2        	s8i	a12, a6, 0
    2bd3:	21e8      	l32i.n	a14, a1, 8
    2bd5:	0d0c      	movi.n	a13, 0
    2bd7:	0e39      	s32i.n	a3, a14, 0
    2bd9:	2942d2        	s8i	a13, a2, 41
    2bdc:	f01d      	excw
    2bde:	1e0c      	movi.n	a14, 1
    2be0:	2802f2        	l8ui	a15, a2, 40
    2be3:	0199      	s32i.n	a9, a1, 0
    2be5:	3f9c      	beqz.n	a15, 0x2bfc
    2be7:	242c92        	l32i	a9, a12, 144
    2bea:	2a0282        	l8ui	a8, a2, 42
    2bed:	000992        	l8ui	a9, a9, 0
    2bf0:	fca0b2        	movi	a11, 252
    2bf3:	1099b0        	and	a9, a9, a11
    2bf6:	029897        	bne	a8, a9, 0x2bfc
    2bf9:	2942e2        	s8i	a14, a2, 41
    2bfc:	fb0c      	movi.n	a11, 15
    2bfe:	e2b9      	s32i.n	a11, a2, 56
    2c00:	7a9c      	beqz.n	a10, 0x2c1b
    2c02:	560af2        	l8ui	a15, a10, 86
    2c05:	126f17        	bbci	a15, 1, 0x2c1b
    2c08:	2d2d82        	l32i	a8, a13, 180
    2c0b:	1f2ca2        	l32i	a10, a12, 124
    2c0e:	0c1866        	bnei	a8, 1, 0x2c1e
    2c11:	690c      	movi.n	a9, 6
    2c13:	0709a7        	bnone	a9, a10, 0x2c1e
    2c16:	e2e9      	s32i.n	a14, a2, 56
    2c18:	5f          	.byte 0x5f
    2c19:	2c5104        	excw
    2c1c:	1f          	.byte 0x1f
    2c1d:	7458e1        	l32r	a14, 0xfffdfd80
    2c20:	7459b1        	l32r	a11, 0xfffdfd84
    2c23:	028ea7        	bany	a14, a10, 0x2c29
    2c26:	003646        	j	0x2d03
    2c29:	890cf2        	l8ui	a15, a12, 137
    2c2c:	5f          	.byte 0x5f
    2c2d:	48a205        	call0	0x4b650
    2c30:	b00d      	excw
    2c32:	20aa      	add.n	a2, a0, a10
    2c34:	0b0c      	movi.n	a11, 0
    2c36:	1f6ca2        	s32i	a10, a12, 124
    2c39:	048ea0        	extui	a8, a10, 14, 1
    2c3c:	1a0c      	movi.n	a10, 1
    2c3e:	0c9856        	bnez	a8, 0x2d0b
    2c41:	290292        	l8ui	a9, a2, 41
    2c44:	046916        	beqz	a9, 0x2c8e
    2c47:	043516        	beqz	a5, 0x2c8e
    2c4a:	0361d2        	s32i	a13, a1, 12
    2c4d:	0492c2        	l16si	a12, a2, 8
    2c50:	0161c2        	s32i	a12, a1, 4
    2c53:	cc1b      	addi.n	a12, a12, 1
    2c55:	0c3c16        	beqz	a12, 0x2d1c
    2c58:	1b25b2        	l32i	a11, a5, 108
    2c5b:	1a25a2        	l32i	a10, a5, 104
    2c5e:	11c8      	l32i.n	a12, a1, 4
    2c60:	0aa3a5        	excw
    2c63:	31d8      	l32i.n	a13, a1, 12
    2c65:	04e0a0        	extui	a14, a10, 0, 1
    2c68:	0b0e16        	beqz	a14, 0x2d1c
    2c6b:	0b0c      	movi.n	a11, 0
    2c6d:	1a0c      	movi.n	a10, 1
    2c6f:	1188      	l32i.n	a8, a1, 4
    2c71:	c198      	l32i.n	a9, a1, 48
    2c73:	5f          	.byte 0x5f
    2c74:	32a405        	call0	0x356b8
    2c77:	f88000        	excw
    2c7a:	ff30a0        	excw
    2c7d:	0ff2b0        	excw
    2c80:	46f224        	excw
    2c83:	92c200        	excw
    2c86:	9fa504        	excw
    2c89:	860a      	add.n	a8, a6, a0
    2c8b:	001a      	add.n	a0, a0, a1
    2c8d:	4e0c      	movi.n	a14, 4
    2c8f:	0e0516        	beqz	a5, 0x2d73
    2c92:	010292        	l8ui	a9, a2, 1
    2c95:	0da956        	bnez	a9, 0x2d73
    2c98:	c1f8      	l32i.n	a15, a1, 48
    2c9a:	01d592        	addmi	a9, a5, 0x100
    2c9d:	780992        	l8ui	a9, a9, 120
    2ca0:	004f92        	s8i	a9, a15, 0
    2ca3:	890c82        	l8ui	a8, a12, 137
    2ca6:	0be877        	bbsi	a8, 7, 0x2cb5
    2ca9:	020dc2        	l8ui	a12, a13, 2
    2cac:	055c26        	beqi	a12, 5, 0x2cb5
    2caf:	024c26        	beqi	a12, 4, 0x2cb5
    2cb2:	073c66        	bnei	a12, 3, 0x2cbd
    2cb5:	0449f6        	bgeui	a9, 4, 0x2cbd
    2cb8:	004fe2        	s8i	a14, a15, 0
    2cbb:	490c      	movi.n	a9, 4
    2cbd:	a09990        	addx4	a9, a9, a9
    2cc0:	b09930        	addx8	a9, a9, a3
    2cc3:	240992        	l8ui	a9, a9, 36
    2cc6:	004692        	s8i	a9, a6, 0
    2cc9:	049c      	beqz.n	a4, 0x2cdd
    2ccb:	000fc2        	l8ui	a12, a15, 0
    2cce:	a0ccc0        	addx4	a12, a12, a12
    2cd1:	b0cc30        	addx8	a12, a12, a3
    2cd4:	250cc2        	l8ui	a12, a12, 37
    2cd7:	20cc90        	or	a12, a12, a9
    2cda:	0046c2        	s8i	a12, a6, 0
    2cdd:	1a2562        	l32i	a6, a5, 104
    2ce0:	0021d2        	l32i	a13, a1, 0
    2ce3:	1b2542        	l32i	a4, a5, 108
    2ce6:	016d42        	s32i	a4, a13, 4
    2ce9:	006d62        	s32i	a6, a13, 0
    2cec:	000fc2        	l8ui	a12, a15, 0
    2cef:	0a9925        	excw
    2cf2:	20a6a0        	or	a10, a6, a10
    2cf5:	20b4b0        	or	a11, a4, a11
    2cf8:	01e8      	l32i.n	a14, a1, 0
    2cfa:	1eb9      	s32i.n	a11, a14, 4
    2cfc:	0ea9      	s32i.n	a10, a14, 0
    2cfe:	ffb386        	j	0x2bd0
    2d01:	745af1        	l32r	a15, 0xfffdfe6c
    2d04:	10aaf0        	and	a10, a10, a15
    2d07:	ffca06        	j	0x2c33
    2d0a:	f3b556        	bnez	a5, 0x2c49
    2d0d:	055f81        	l32r	a8, 0xfffc428c
    2d10:	880786        	j	0xfffe4d32
    2d13:	c008      	l32i.n	a0, a0, 48
    2d15:	460020        	excw
    2d18:	ffcb      	addi.n	a15, a15, 12
    2d1a:	07cd      	mov.n	a12, a7
    2d1c:	05bd      	mov.n	a11, a5
    2d1e:	0f0c      	movi.n	a15, 0
    2d20:	0e0c      	movi.n	a14, 0
    2d22:	5f          	.byte 0x5f
    2d23:	008307        	bany	a3, a0, 0x2d27
    2d26:	d1d8      	l32i.n	a13, a1, 52
    2d28:	5f          	.byte 0x5f
    2d29:	008311        	l32r	a1, 0xfffc2f38
    2d2c:	0c5fe2        	s16i	a14, a15, 24
    2d2f:	e00083        	excw
    2d32:	20ea      	add.n	a2, a0, a14
    2d34:	0046e2        	s8i	a14, a6, 0
    2d37:	1b25b2        	l32i	a11, a5, 108
    2d3a:	1a2592        	l32i	a9, a5, 104
    2d3d:	72c8      	l32i.n	a12, a2, 28
    2d3f:	2902d2        	l8ui	a13, a2, 41
    2d42:	62a8      	l32i.n	a10, a2, 24
    2d44:	05cd16        	beqz	a13, 0x2da4
    2d47:	d2f8      	l32i.n	a15, a2, 52
    2d49:	c2d8      	l32i.n	a13, a2, 48
    2d4b:	10fcf0        	and	a15, a12, a15
    2d4e:	10aad0        	and	a10, a10, a13
    2d51:	10a9a0        	and	a10, a9, a10
    2d54:	10bbf0        	and	a11, a11, a15
    2d57:	ffe106        	j	0x2cdf
    2d5a:	c1f8      	l32i.n	a15, a1, 48
    2d5c:	0a0292        	l8ui	a9, a2, 10
    2d5f:	5f          	.byte 0x5f
    2d60:	812b      	addi.n	a8, a1, 2
    2d62:	a258      	l32i.n	a5, a2, 40
    2d64:	0f          	.byte 0xf
    2d65:	aaa000        	excw
    2d68:	aa30a0        	excw
    2d6b:	0aa2b0        	excw
    2d6e:	aa9025        	excw
    2d71:	46a220        	excw
    2d74:	5bb100        	excw
    2d77:	fa7c74        	excw
    2d7a:	ffce86        	j	0x2cb8
    2d7d:	10aa90        	and	a10, a10, a9
    2d80:	10bcb0        	and	a11, a12, a11
    2d83:	5fcc46        	j	0x1acb8
    2d86:	708a06        	j	0x1efb2
    2d89:	34c1a2        	addi	a10, a1, 52
    2d8c:	029d      	mov.n	a9, a2
    2d8e:	7457d1        	l32r	a13, 0xfffdfeec
    2d91:	742070        	extui	a2, a7, 0, 8
    2d94:	192172        	l32i	a7, a1, 100
    2d97:	b62a      	add.n	a11, a6, a2
    2d99:	344122        	s8i	a2, a1, 52
    2d9c:	2929c2        	l32i	a12, a9, 164
    2d9f:	840bb2        	l8ui	a11, a11, 132
    2da2:	09d716        	beqz	a7, 0x2e43
    2da5:	9aa0f2        	movi	a15, 154
    2da8:	a0ebb0        	addx4	a14, a11, a11
    2dab:	b0ee30        	addx8	a14, a14, a3
    2dae:	ccfa      	add.n	a12, a12, a15
    2db0:	800cf2        	l8ui	a15, a12, 128
    2db3:	6ee8      	l32i.n	a14, a14, 24
    2db5:	a0fff0        	addx4	a15, a15, a15
    2db8:	b0ff30        	addx8	a15, a15, a3
    2dbb:	6ff8      	l32i.n	a15, a15, 24
    2dbd:	263ef7        	bltu	a14, a15, 0x2de7
    2dc0:	02bd      	mov.n	a11, a2
    2dc2:	05fd      	mov.n	a15, a5
    2dc4:	04ed      	mov.n	a14, a4
    2dc6:	06cd      	mov.n	a12, a6
    2dc8:	1179      	s32i.n	a7, a1, 4
    2dca:	01a9      	s32i.n	a10, a1, 0
    2dcc:	162d82        	l32i	a8, a13, 88
    2dcf:	5f          	.byte 0x5f
    2dd0:	1eaa05        	call0	0x21874
    2dd3:	182192        	l32i	a9, a1, 96
    2dd6:	096a16        	beqz	a10, 0x2e70
    2dd9:	3401a2        	l8ui	a10, a1, 52
    2ddc:	aa6a      	add.n	a10, a10, a6
    2dde:	840aa2        	l8ui	a10, a10, 132
    2de1:	0049a2        	s8i	a10, a9, 0
    2de4:	f01d      	excw
    2de6:	7f0cf2        	l8ui	a15, a12, 127
    2de9:	0461f2        	s32i	a15, a1, 16
    2dec:	5f          	.byte 0x5f
    2ded:	f23806        	j	0xfffff6d1
    2df0:	2f          	.byte 0x2f
    2df1:	3ef706        	j	0x129d1
    2df4:	5019      	s32i.n	a1, a0, 20
    2df6:	ad20b5        	excw
    2df9:	41c804        	excw
    2dfc:	0a8565        	excw
    2dff:	7457d1        	l32r	a13, 0xfffdff5c
    2e02:	096a07        	bbci	a10, 0, 0x2e0f
    2e05:	182192        	l32i	a9, a1, 96
    2e08:	4188      	l32i.n	a8, a1, 16
    2e0a:	045f82        	s16i	a8, a15, 8
    2e0d:	ad2c      	movi.n	a13, 42
    2e0f:	065f03        	excw
    2e12:	117955        	excw
    2e15:	34c192        	addi	a9, a1, 52
    2e18:	5f99      	s32i.n	a9, a15, 20
    2e1a:	5f5604        	excw
    2e1d:	7cb705        	call0	0x7f990
    2e20:	182192        	l32i	a9, a1, 96
    2e23:	ba8c      	beqz.n	a10, 0x2e32
    2e25:	5f          	.byte 0x5f
    2e26:	550d      	excw
    2e28:	fb7c      	movi.n	a11, -1
    2e2a:	045fb2        	s16i	a11, a15, 8
    2e2d:	b55007        	bbc	a0, a0, 0x2de6
    2e30:	162220        	excw
    2e33:	40bc      	beqz.n	a0, 0x2e6b
    2e35:	2020a4        	excw
    2e38:	6520c2        	l32i	a12, a0, 0x194
    2e3b:	070a80        	excw
    2e3e:	046a      	add.n	a0, a4, a6
    2e40:	02cd      	mov.n	a12, a2
    2e42:	000386        	j	0x2e54
    2e45:	745781        	l32r	a8, 0xfffdffa4
    2e48:	04ad      	mov.n	a10, a4
    2e4a:	1b2882        	l32i	a8, a8, 108
    2e4d:	05bd      	mov.n	a11, a5
    2e4f:	5f          	.byte 0x5f
    2e50:	319505        	call0	0x347a4
    2e53:	182192        	l32i	a9, a1, 96
    2e56:	055fc2        	s16i	a12, a15, 10
    2e59:	c6fa35        	excw
    2e5c:	ffda      	add.n	a15, a15, a13
    2e5e:	004136        	excw
    2e61:	0398      	l32i.n	a9, a3, 0
    2e63:	1922b2        	l32i	a11, a2, 100
    2e66:	2922e2        	l32i	a14, a2, 164
    2e69:	13c8      	l32i.n	a12, a3, 4
    2e6b:	9ec9      	s32i.n	a12, a14, 36
    2e6d:	8e99      	s32i.n	a9, a14, 32
    2e6f:	04bb16        	beqz	a11, 0x2ebe
    2e72:	010282        	l8ui	a8, a2, 1
    2e75:	0202a2        	l8ui	a10, a2, 2
    2e78:	421866        	bnei	a8, 1, 0x2ebe
    2e7b:	fafc      	bnez.n	a10, 0x2ebe
    2e7d:	882bd2        	l32i	a13, a11, 0x220
    2e80:	0dad      	mov.n	a10, a13
    2e82:	384db6        	bltui	a13, 4, 0x2ebe
    2e85:	358df6        	bgeui	a13, 8, 0x2ebe
    2e88:	2bf8      	l32i.n	a15, a11, 8
    2e8a:	303f66        	bnei	a15, 3, 0x2ebe
    2e8d:	1f0c      	movi.n	a15, 1
    2e8f:	7ec9      	s32i.n	a12, a14, 28
    2e91:	6e99      	s32i.n	a9, a14, 24
    2e93:	404c10        	ssai	28
    2e96:	818c90        	src	a8, a12, a9
    2e99:	f48080        	extui	a8, a8, 0, 16
    2e9c:	0e0c      	movi.n	a14, 0
    2e9e:	93efe0        	movnez	a14, a15, a14
    2ea1:	938f80        	movnez	a8, a15, a8
    2ea4:	2088e0        	or	a8, a8, a14
    2ea7:	98bc      	beqz.n	a8, 0x2ee4
    2ea9:	790c      	movi.n	a9, 7
    2eab:	fccdf2        	addi	a15, a13, -4
    2eae:	6e0c      	movi.n	a14, 6
    2eb0:	0dad      	mov.n	a10, a13
    2eb2:	83aef0        	moveqz	a10, a14, a15
    2eb5:	fbcac2        	addi	a12, a10, -5
    2eb8:	83a9c0        	moveqz	a10, a9, a12
    2ebb:	0004c6        	j	0x2ed2
    2ebe:	f01d      	excw
    2ec0:	580c      	movi.n	a8, 5
    2ec2:	facde2        	addi	a14, a13, -6
    2ec5:	4c0c      	movi.n	a12, 4
    2ec7:	0dad      	mov.n	a10, a13
    2ec9:	83ace0        	moveqz	a10, a12, a14
    2ecc:	f9ca92        	addi	a9, a10, -7
    2ecf:	83a890        	moveqz	a10, a8, a9
    2ed2:	e81da7        	beq	a13, a10, 0x2ebe
    2ed5:	745781        	l32r	a8, 0xfffe0034
    2ed8:	886ba2        	s32i	a10, a11, 0x220
    2edb:	5f          	.byte 0x5f
    2edc:	019007        	bne	a0, a0, 0x2ee1
    2edf:	f01d      	excw
    2ee1:	085f00        	excw
    2ee4:	065f51        	l32r	a5, 0xfffc4860
    2ee7:	564c      	movi.n	a6, 69
    2ee9:	fc98      	l32i.n	a9, a12, 60
    2eeb:	5f          	.byte 0x5f
    2eec:	8a0b      	addi.n	a8, a10, -1
    2eee:	464a      	add.n	a4, a6, a4
    2ef0:	065ff3        	excw
    2ef3:	2089      	s32i.n	a8, a0, 8
    2ef5:	02ad      	mov.n	a10, a2
    2ef7:	03bd      	mov.n	a11, a3
    2ef9:	090c      	movi.n	a9, 0
    2efb:	40c342        	addi	a4, a3, 64
    2efe:	745c81        	l32r	a8, 0xfffe0070
    2f01:	834930        	moveqz	a4, a9, a3
    2f04:	0888      	l32i.n	a8, a8, 0
    2f06:	292232        	l32i	a3, a2, 164
    2f09:	0008e0        	excw
    2f0c:	742581        	l32r	a8, 0xfffdffa0
    2f0f:	710442        	l8ui	a4, a4, 113
    2f12:	552882        	l32i	a8, a8, 0x154
    2f15:	2d22a2        	l32i	a10, a2, 180
    2f18:	0008e0        	excw
    2f1b:	0b0c      	movi.n	a11, 0
    2f1d:	745bf1        	l32r	a15, 0xfffe008c
    2f20:	4523d2        	l32i	a13, a3, 0x114
    2f23:	1c0c      	movi.n	a12, 1
    2f25:	4423e2        	l32i	a14, a3, 0x110
    2f28:	090c      	movi.n	a9, 0
    2f2a:	ee1b      	addi.n	a14, a14, 1
    2f2c:	839ce0        	moveqz	a9, a12, a14
    2f2f:	c0ddf0        	sub	a13, a13, a15
    2f32:	83bcd0        	moveqz	a11, a12, a13
    2f35:	1f09b7        	bnone	a9, a11, 0x2f58
    2f38:	a09440        	addx4	a9, a4, a4
    2f3b:	b099a0        	addx8	a9, a9, a10
    2f3e:	4998      	l32i.n	a9, a9, 16
    2f40:	023926        	beqi	a9, 3, 0x2f46
    2f43:	112966        	bnei	a9, 2, 0x2f58
    2f46:	20c440        	or	a12, a4, a4
    2f49:	5f          	.byte 0x5f
    2f4a:	02a906        	j	0x39f2
    2f4d:	0a6c25        	excw
    2f50:	4363b2        	s32i	a11, a3, 0x10c
    2f53:	4263a2        	s32i	a10, a3, 0x108
    2f56:	5f          	.byte 0x5f
    2f57:	08a305        	call0	0xb988
    2f5a:	5f          	.byte 0x5f
    2f5b:	01a405        	call0	0x499c
    2f5e:	055f55        	excw
    2f61:	c04083        	excw
    2f64:	d81143        	excw
    2f67:	4a0a      	add.n	a4, a10, a0
    2f69:	2d1642        	l16ui	a4, a6, 90
    2f6c:	0c09      	s32i.n	a0, a12, 0
    2f6e:	0351e6        	bgei	a1, 5, 0x2f75
    2f71:	0e0c74        	excw
    2f74:	0c0c      	movi.n	a12, 0
    2f76:	0abd      	mov.n	a11, a10
    2f78:	401300        	ssl	a3
    2f7b:	1f0c      	movi.n	a15, 1
    2f7d:	a1ff00        	sll	a15, a15
    2f80:	3b88      	l32i.n	a8, a11, 12
    2f82:	cc1b      	addi.n	a12, a12, 1
    2f84:	6f08f7        	bnone	a8, a15, 0x2ff7
    2f87:	4b78      	l32i.n	a7, a11, 16
    2f89:	6a3726        	beqi	a7, 3, 0x2ff7
    2f8c:	672726        	beqi	a7, 2, 0x2ff7
    2f8f:	b32582        	l32i	a8, a5, 0x2cc
    2f92:	020292        	l8ui	a9, a2, 2
    2f95:	276887        	bbci	a8, 8, 0x2fc0
    2f98:	112926        	beqi	a9, 2, 0x2fad
    2f9b:	0e4926        	beqi	a9, 4, 0x2fad
    2f9e:	0b3926        	beqi	a9, 3, 0x2fad
    2fa1:	085926        	beqi	a9, 5, 0x2fad
    2fa4:	056926        	beqi	a9, 6, 0x2fad
    2fa7:	028926        	beqi	a9, 8, 0x2fad
    2faa:	327966        	bnei	a9, 7, 0x2fe0
    2fad:	051326        	beqi	a3, 1, 0x2fb6
    2fb0:	025326        	beqi	a3, 5, 0x2fb6
    2fb3:	297366        	bnei	a3, 7, 0x2fe0
    2fb6:	000292        	l8ui	a9, a2, 0
    2fb9:	39ac      	beqz.n	a9, 0x2fe0
    2fbb:	17ec      	bnez.n	a7, 0x2fe0
    2fbd:	000d86        	j	0x2ff7
    2fc0:	5f          	.byte 0x5f
    2fc1:	0a2814        	excw
    2fc4:	5f          	.byte 0x5f
    2fc5:	2808      	l32i.n	a0, a8, 8
    2fc7:	579c01        	l32r	a0, 0xfffd8e38
    2fca:	260b82        	l8ui	a8, a11, 38
    2fcd:	94ea      	add.n	a9, a4, a14
    2fcf:	1da172        	movi	a7, 0x11d
    2fd2:	ee1b      	addi.n	a14, a14, 1
    2fd4:	74e0e0        	extui	a14, a14, 0, 8
    2fd7:	997a      	add.n	a9, a9, a7
    2fd9:	804982        	s8i	a8, a9, 128
    2fdc:	0c36e7        	bltu	a6, a14, 0x2fec
    2fdf:	0ad8      	l32i.n	a13, a10, 0
    2fe1:	28cbb2        	addi	a11, a11, 40
    2fe4:	823cd7        	bltu	a12, a13, 0x2f6a
    2fe7:	000046        	j	0x2fec
    2fea:	0e0c      	movi.n	a14, 0
    2fec:	01d4a2        	addmi	a10, a4, 0x100
    2fef:	9c4ae2        	s8i	a14, a10, 156
    2ff2:	5f          	.byte 0x5f
    2ff3:	8a08      	l32i.n	a0, a10, 32
    2ff5:	dd2c      	movi.n	a13, 45
    2ff7:	03bd05        	call0	0x6bc8
    2ffa:	04cd      	mov.n	a12, a4
    2ffc:	06ed      	mov.n	a14, a6
    2ffe:	745c81        	l32r	a8, 0xfffe0170
    3001:	02ad      	mov.n	a10, a2
    3003:	1888      	l32i.n	a8, a8, 4
    3005:	4328      	l32i.n	a2, a3, 16
    3007:	0008e0        	excw
    300a:	f6cc      	bnez.n	a6, 0x301d
    300c:	1f22a2        	l32i	a10, a2, 124
    300f:	290c      	movi.n	a9, 2
    3011:	086a17        	bbci	a10, 1, 0x301d
    3014:	0004b2        	l8ui	a11, a4, 0
    3017:	021b66        	bnei	a11, 1, 0x301d
    301a:	5f4492        	s8i	a9, a4, 95
    301d:	6ca406        	j	0x1e2b1
    3020:	746141        	l32r	a4, 0xfffe01a4
    3023:	745db1        	l32r	a11, 0xfffe0198
    3026:	746221        	l32r	a2, 0xfffe01b0
    3029:	745cd1        	l32r	a13, 0xfffe019c
    302c:	746081        	l32r	a8, 0xfffe01ac
    302f:	005f91        	l32r	a9, 0xfffc31ac
    3032:	573174        	excw
    3035:	5ea174        	excw
    3038:	53a974        	excw
    303b:	9399      	s32i.n	a9, a3, 36
    303d:	1d6382        	s32i	a8, a3, 116
    3040:	13e8      	l32i.n	a14, a3, 4
    3042:	43c8      	l32i.n	a12, a3, 16
    3044:	1dc9      	s32i.n	a12, a13, 4
    3046:	4329      	s32i.n	a2, a3, 16
    3048:	1863b2        	s32i	a11, a3, 96
    304b:	1349      	s32i.n	a4, a3, 4
    304d:	0de9      	s32i.n	a14, a13, 0
    304f:	5f          	.byte 0x5f
    3050:	2c9106        	j	0xe298
    3053:	746331        	l32r	a3, 0xfffe01e0
    3056:	a20c      	movi.n	a2, 10
    3058:	5f4322        	s8i	a2, a3, 95
    305b:	a109      	s32i.n	a0, a1, 40
    305d:	028210        	excw
    3060:	2ba100        	excw
    3063:	c81674        	excw
    3066:	02b204        	excw
    3069:	a0c203        	excw
    306c:	c0fd      	excw
    306e:	10bb      	addi.n	a1, a0, 11
    3070:	0342b2        	s8i	a11, a2, 3
    3073:	000aa2        	l8ui	a10, a10, 0
    3076:	746491        	l32r	a9, 0xfffe0208
    3079:	099a76        	excw
    307c:	09a8      	l32i.n	a10, a9, 0
    307e:	020ad2        	l8ui	a13, a10, 2
    3081:	994b      	addi.n	a9, a9, 4
    3083:	014d26        	beqi	a13, 4, 0x3088
    3086:	0a0c      	movi.n	a10, 0
    3088:	8aac      	beqz.n	a10, 0x30b4
    308a:	030ae2        	l8ui	a14, a10, 3
    308d:	233e66        	bnei	a14, 3, 0x30b4
    3090:	746541        	l32r	a4, 0xfffe0224
    3093:	04f8      	l32i.n	a15, a4, 0
    3095:	230c      	movi.n	a3, 2
    3097:	fff8      	l32i.n	a15, a15, 60
    3099:	20cb30        	or	a12, a11, a3
    309c:	1fac      	beqz.n	a15, 0x30c1
    309e:	744181        	l32r	a8, 0xfffe01a4
    30a1:	5f2882        	l32i	a8, a8, 0x17c
    30a4:	068d05        	call0	0x9978
    30a7:	f99804        	excw
    30aa:	001aa2        	l16ui	a10, a10, 0
    30ad:	001992        	l16ui	a9, a9, 0
    30b0:	0199a7        	bne	a9, a10, 0x30b5
    30b3:	f01d      	excw
    30b5:	0302a2        	l8ui	a10, a2, 3
    30b8:	20aa30        	or	a10, a10, a3
    30bb:	0342a2        	s8i	a10, a2, 3
    30be:	f01d      	excw
    30c0:	045fc2        	s16i	a12, a15, 8
    30c3:	360005        	call0	0x390c4
    30c6:	e10141        	l32r	a4, 0xffffb4cc
    30c9:	742b      	addi.n	a7, a4, 2
    30cb:	000ee2        	l8ui	a14, a14, 0
    30ce:	746581        	l32r	a8, 0xfffe0264
    30d1:	9eac      	beqz.n	a14, 0x30fe
    30d3:	089d      	mov.n	a9, a8
    30d5:	002992        	l32i	a9, a9, 0
    30d8:	7464a1        	l32r	a10, 0xfffe0268
    30db:	152992        	l32i	a9, a9, 84
    30de:	1c9e76        	excw
    30e1:	0009b2        	l8ui	a11, a9, 0
    30e4:	0309c2        	l8ui	a12, a9, 3
    30e7:	eb8c      	beqz.n	a11, 0x30f9
    30e9:	0cec07        	bbsi	a12, 0, 0x30f9
    30ec:	0ad8      	l32i.n	a13, a10, 0
    30ee:	020dd2        	l8ui	a13, a13, 2
    30f1:	044d66        	bnei	a13, 4, 0x30f9
    30f4:	094d      	mov.n	a4, a9
    30f6:	000186        	j	0x3100
    30f9:	aa4b      	addi.n	a10, a10, 4
    30fb:	34c992        	addi	a9, a9, 52
    30fe:	040c      	movi.n	a4, 0
    3100:	1ce416        	beqz	a4, 0x32d2
    3103:	120c      	movi.n	a2, 1
    3105:	746631        	l32r	a3, 0xfffe02a0
    3108:	746751        	l32r	a5, 0xfffe02a4
    310b:	0003e2        	l8ui	a14, a3, 0
    310e:	400200        	ssr	a2
    3111:	b1e0e0        	sra	a14, a14
    3114:	0c6e07        	bbci	a14, 0, 0x3124
    3117:	64a8      	l32i.n	a10, a4, 24
    3119:	02bd      	mov.n	a11, a2
    311b:	292582        	l32i	a8, a5, 164
    311e:	055fc2        	s16i	a12, a15, 10
    3121:	ae          	.byte 0xae
    3122:	221b42        	l16ui	a4, a11, 68
    3125:	742020        	extui	a2, a2, 0, 8
    3128:	de5266        	bnei	a2, 5, 0x310a
    312b:	012d      	mov.n	a2, a1
    312d:	f97c      	movi.n	a9, -1
    312f:	742b81        	l32r	a8, 0xfffe01dc
    3132:	060c      	movi.n	a6, 0
    3134:	000882        	l8ui	a8, a8, 0
    3137:	004362        	s8i	a6, a3, 0
    313a:	079876        	excw
    313d:	0269      	s32i.n	a6, a2, 0
    313f:	2269      	s32i.n	a6, a2, 8
    3141:	1299      	s32i.n	a9, a2, 4
    3143:	22cb      	addi.n	a2, a2, 12
    3145:	746a81        	l32r	a8, 0xfffe02f0
    3148:	0008e0        	excw
    314b:	742be1        	l32r	a14, 0xfffe01f8
    314e:	7465d1        	l32r	a13, 0xfffe02e4
    3151:	000ee2        	l8ui	a14, a14, 0
    3154:	1e6142        	s32i	a4, a1, 120
    3157:	088e16        	beqz	a14, 0x31e3
    315a:	040c      	movi.n	a4, 0
    315c:	012d      	mov.n	a2, a1
    315e:	050c      	movi.n	a5, 0
    3160:	070c      	movi.n	a7, 0
    3162:	1c61a2        	s32i	a10, a1, 112
    3165:	0f0c      	movi.n	a15, 0
    3167:	1d61f2        	s32i	a15, a1, 116
    316a:	002d32        	l32i	a3, a13, 0
    316d:	152332        	l32i	a3, a3, 84
    3170:	803340        	add	a3, a3, a4
    3173:	000382        	l8ui	a8, a3, 0
    3176:	035816        	beqz	a8, 0x31af
    3179:	030382        	l8ui	a8, a3, 3
    317c:	23c8      	l32i.n	a12, a3, 8
    317e:	2de807        	bbsi	a8, 0, 0x31af
    3181:	acac      	beqz.n	a12, 0x31af
    3183:	33a8      	l32i.n	a10, a3, 12
    3185:	1c21b2        	l32i	a11, a1, 112
    3188:	5f6b81        	l32r	a8, 0xfffdaf34
    318b:	b84304        	excw
    318e:	416523        	excw
    3191:	d10a      	add.n	a13, a1, a0
    3193:	397465        	excw
    3196:	226902        	s32i	a0, a9, 136
    3199:	12a9      	s32i.n	a10, a2, 4
    319b:	742be1        	l32r	a14, 0xfffe0248
    319e:	778c      	beqz.n	a7, 0x31a9
    31a0:	1798      	l32i.n	a9, a7, 4
    31a2:	27c8      	l32i.n	a12, a7, 8
    31a4:	1339a7        	bltu	a9, a10, 0x31bb
    31a7:	2279      	s32i.n	a7, a2, 8
    31a9:	027d      	mov.n	a7, a2
    31ab:	000ee2        	l8ui	a14, a14, 0
    31ae:	22cb      	addi.n	a2, a2, 12
    31b0:	34c442        	addi	a4, a4, 52
    31b3:	551b      	addi.n	a5, a5, 1
    31b5:	b035e7        	bltu	a5, a14, 0x3169
    31b8:	000ac6        	j	0x31e7
    31bb:	073d      	mov.n	a3, a7
    31bd:	cc8c      	beqz.n	a12, 0x31cd
    31bf:	1cf8      	l32i.n	a15, a12, 4
    31c1:	133fa7        	bltu	a15, a10, 0x31d8
    31c4:	2329      	s32i.n	a2, a3, 8
    31c6:	180c      	movi.n	a8, 1
    31c8:	1d6182        	s32i	a8, a1, 116
    31cb:	22c9      	s32i.n	a12, a2, 8
    31cd:	1d2192        	l32i	a9, a1, 116
    31d0:	fd7956        	bnez	a9, 0x31ab
    31d3:	2329      	s32i.n	a2, a3, 8
    31d5:	fff486        	j	0x31ab
    31d8:	2338      	l32i.n	a3, a3, 8
    31da:	23c8      	l32i.n	a12, a3, 8
    31dc:	fdfc56        	bnez	a12, 0x31bf
    31df:	fffa86        	j	0x31cd
    31e2:	070c      	movi.n	a7, 0
    31e4:	1e6142        	s32i	a4, a1, 120
    31e7:	1e2142        	l32i	a4, a1, 120
    31ea:	746751        	l32r	a5, 0xfffe0388
    31ed:	073d      	mov.n	a3, a7
    31ef:	0dd716        	beqz	a7, 0x32d0
    31f2:	740021        	l32r	a2, 0xfffe01f4
    31f5:	746861        	l32r	a6, 0xfffe0398
    31f8:	03a8      	l32i.n	a10, a3, 0
    31fa:	74c8      	l32i.n	a12, a4, 28
    31fc:	7ab8      	l32i.n	a11, a10, 28
    31fe:	001cc2        	l16ui	a12, a12, 0
    3201:	001bb2        	l16ui	a11, a11, 0
    3204:	68c1e2        	addi	a14, a1, 104
    3207:	c0bbc0        	sub	a11, a11, a12
    320a:	0bdb16        	beqz	a11, 0x32cb
    320d:	3ab8      	l32i.n	a11, a10, 12
    320f:	23c8      	l32i.n	a12, a3, 8
    3211:	41f8b0        	srli	a15, a11, 8
    3214:	014ef2        	s8i	a15, a14, 1
    3217:	004eb2        	s8i	a11, a14, 0
    321a:	5f          	.byte 0x5f
    321b:	67ab05        	call0	0x6accc
    321e:	055f02        	s16i	a0, a15, 10
    3221:	cc0306        	j	0xffff6231
    3224:	c89c      	beqz.n	a8, 0x3244
    3226:	179807        	bne	a8, a0, 0x3241
    3229:	2cc8      	l32i.n	a12, a12, 8
    322b:	99ca      	add.n	a9, a9, a12
    322d:	000046        	j	0x3232
    3230:	1c98      	l32i.n	a9, a12, 4
    3232:	13c8      	l32i.n	a12, a3, 4
    3234:	06e8      	l32i.n	a14, a6, 0
    3236:	c0c9c0        	sub	a12, a9, a12
    3239:	1861c2        	s32i	a12, a1, 96
    323c:	2c6e47        	bbci	a14, 4, 0x326c
    323f:	4f3c      	movi.n	a15, 52
    3241:	0d98      	l32i.n	a9, a13, 0
    3243:	6a88      	l32i.n	a8, a10, 24
    3245:	742be1        	l32r	a14, 0xfffe02f4
    3248:	000882        	l8ui	a8, a8, 0
    324b:	000ee2        	l8ui	a14, a14, 0
    324e:	152992        	l32i	a9, a9, 84
    3251:	90ee80        	addx2	a14, a14, a8
    3254:	82eef0        	mull	a14, a14, a15
    3257:	8a88      	l32i.n	a8, a10, 32
    3259:	99ea      	add.n	a9, a9, a14
    325b:	0009e2        	l8ui	a14, a9, 0
    325e:	0309f2        	l8ui	a15, a9, 3
    3261:	7e8c      	beqz.n	a14, 0x326c
    3263:	056f07        	bbci	a15, 0, 0x326c
    3266:	63c8c0        	excw
    3269:	1861c2        	s32i	a12, a1, 96
    326c:	a12282        	l32i	a8, a2, 0x284
    326f:	ffa092        	movi	a9, 255
    3272:	14dcc2        	addmi	a12, a12, 0x1400
    3275:	1861c2        	s32i	a12, a1, 96
    3278:	2aa8      	l32i.n	a10, a10, 8
    327a:	1961a2        	s32i	a10, a1, 100
    327d:	6c4192        	s8i	a9, a1, 108
    3280:	7469a1        	l32r	a10, 0xfffe0424
    3283:	0008e0        	excw
    3286:	7469a1        	l32r	a10, 0xfffe042c
    3289:	1921b2        	l32i	a11, a1, 100
    328c:	a12282        	l32i	a8, a2, 0x284
    328f:	6c01c2        	l8ui	a12, a1, 108
    3292:	0008e0        	excw
    3295:	64a8      	l32i.n	a10, a4, 24
    3297:	60c1b2        	addi	a11, a1, 96
    329a:	202582        	l32i	a8, a5, 128
    329d:	5f          	.byte 0x5f
    329e:	048306        	j	0x44ae
    32a1:	a12282        	l32i	a8, a2, 0x284
    32a4:	1d0c      	movi.n	a13, 1
    32a6:	0acd      	mov.n	a12, a10
    32a8:	401a00        	ssl	a10
    32ab:	746691        	l32r	a9, 0xfffe0444
    32ae:	5f          	.byte 0x5f
    32af:	092a04        	excw
    32b2:	dd0000        	excw
    32b5:	bbd0a1        	l32r	a10, 0xffff21f8
    32b8:	b0b020        	addx8	a11, a0, a2
    32bb:	49b274        	excw
    32be:	08e000        	excw
    32c1:	65d100        	extui	a13, a0, 17, 7
    32c4:	233874        	excw
    32c7:	f27356        	bnez	a3, 0x31f2
    32ca:	5f          	.byte 0x5f
    32cb:	0c8506        	j	0x64e3
    32ce:	1e2282        	l32i	a8, a2, 120
    32d1:	030882        	l8ui	a8, a8, 3
    32d4:	256837        	bbci	a8, 3, 0x32fd
    32d7:	03cd      	mov.n	a12, a3
    32d9:	740081        	l32r	a8, 0xfffe02dc
    32dc:	746ca1        	l32r	a10, 0xfffe048c
    32df:	a12882        	l32i	a8, a8, 0x284
    32e2:	055fb2        	s16i	a11, a15, 10
    32e5:	1fb8      	l32i.n	a11, a15, 4
    32e7:	02ad      	mov.n	a10, a2
    32e9:	8b0c      	movi.n	a11, 8
    32eb:	5f6e81        	l32r	a8, 0xfffdb0a4
    32ee:	25a905        	call0	0x28d80
    32f1:	746d      	excw
    32f3:	172882        	l32i	a8, a8, 92
    32f6:	3a0c      	movi.n	a10, 3
    32f8:	5f          	.byte 0x5f
    32f9:	aa08      	l32i.n	a0, a10, 40
    32fb:	024260        	excw
    32fe:	346602        	s32i	a0, a6, 208
    3301:	522b      	addi.n	a5, a2, 2
    3303:	410002        	l8ui	a0, a0, 65
    3306:	742b      	addi.n	a7, a4, 2
    3308:	746521        	l32r	a2, 0xfffe049c
    330b:	000442        	l8ui	a4, a4, 0
    330e:	0228      	l32i.n	a2, a2, 0
    3310:	904450        	addx2	a4, a4, a5
    3313:	152222        	l32i	a2, a2, 84
    3316:	453c      	movi.n	a5, 52
    3318:	824450        	mull	a4, a4, a5
    331b:	224a      	add.n	a2, a2, a4
    331d:	0a2366        	bnei	a3, 2, 0x332b
    3320:	030252        	l8ui	a5, a2, 3
    3323:	480c      	movi.n	a8, 4
    3325:	205580        	or	a5, a5, a8
    3328:	034252        	s8i	a5, a2, 3
    332b:	011326        	beqi	a3, 1, 0x3330
    332e:	f01d      	excw
    3330:	030292        	l8ui	a9, a2, 3
    3333:	fba0a2        	movi	a10, 251
    3336:	1099a0        	and	a9, a9, a10
    3339:	055f92        	s16i	a9, a15, 10
    333c:	5f0a85        	call0	0x623e8
    333f:	788507        	bany	a5, a0, 0x33bb
    3342:	6f9102        	l16si	a0, a1, 222
    3345:	386674        	excw
    3348:	099840        	excw
    334b:	b9bc      	beqz.n	a9, 0x338a
    334d:	3103b2        	l8ui	a11, a3, 49
    3350:	420c      	movi.n	a2, 4
    3352:	342b66        	bnei	a11, 2, 0x338a
    3355:	0303c2        	l8ui	a12, a3, 3
    3358:	2eec27        	bbsi	a12, 2, 0x338a
    335b:	5f          	.byte 0x5f
    335c:	298406        	j	0xd970
    335f:	7470d1        	l32r	a13, 0xfffe0520
    3362:	0dd8      	l32i.n	a13, a13, 0
    3364:	7471e1        	l32r	a14, 0xfffe0528
    3367:	c0ada0        	sub	a10, a13, a10
    336a:	1a1aa6        	blti	a10, 1, 0x3388
    336d:	0f3ea7        	bltu	a14, a10, 0x3380
    3370:	030382        	l8ui	a8, a3, 3
    3373:	00a4f2        	movi	a15, 0x400
    3376:	53f9      	s32i.n	a15, a3, 20
    3378:	208820        	or	a8, a8, a2
    337b:	034382        	s8i	a8, a3, 3
    337e:	f01d      	excw
    3380:	5398      	l32i.n	a9, a3, 20
    3382:	ecdaa2        	addmi	a10, a10, 0xffffec00
    3385:	013a97        	bltu	a10, a9, 0x338a
    3388:	f01d      	excw
    338a:	53a9      	s32i.n	a10, a3, 20
    338c:	f01d      	excw
    338e:	813600        	src	a3, a6, a0
    3391:	649100        	extui	a9, a0, 1, 7
    3394:	006174        	excw
    3397:	2bf174        	excw
    339a:	c38274        	excw
    339d:	0cfb      	addi.n	a0, a12, 15
    339f:	c11d      	excw
    33a1:	0c7465        	excw
    33a4:	2e          	.byte 0x2e
    33a5:	41e9      	s32i.n	a14, a1, 16
    33a7:	0cc8      	l32i.n	a12, a12, 0
    33a9:	51d9      	s32i.n	a13, a1, 20
    33ab:	132c52        	l32i	a5, a12, 76
    33ae:	181816        	beqz	a8, 0x3533
    33b1:	0fad      	mov.n	a10, a15
    33b3:	000aa2        	l8ui	a10, a10, 0
    33b6:	092d      	mov.n	a2, a9
    33b8:	13aa16        	beqz	a10, 0x34f6
    33bb:	030c      	movi.n	a3, 0
    33bd:	0b0c      	movi.n	a11, 0
    33bf:	61b9      	s32i.n	a11, a1, 24
    33c1:	0248      	l32i.n	a4, a2, 0
    33c3:	0304c2        	l8ui	a12, a4, 3
    33c6:	fdccc2        	addi	a12, a12, -3
    33c9:	0dac56        	bnez	a12, 0x34a7
    33cc:	744181        	l32r	a8, 0xfffe04d0
    33cf:	1e2472        	l32i	a7, a4, 120
    33d2:	1c2882        	l32i	a8, a8, 112
    33d5:	04ad      	mov.n	a10, a4
    33d7:	0008e0        	excw
    33da:	0105c2        	l8ui	a12, a5, 1
    33dd:	1d0c      	movi.n	a13, 1
    33df:	022c66        	bnei	a12, 2, 0x33e5
    33e2:	000746        	j	0x3403
    33e5:	091c26        	beqi	a12, 1, 0x33f2
    33e8:	7598      	l32i.n	a9, a5, 28
    33ea:	0d0c      	movi.n	a13, 0
    33ec:	0299a7        	bne	a9, a10, 0x33f2
    33ef:	000406        	j	0x3403
    33f2:	7465e1        	l32r	a14, 0xfffe0588
    33f5:	0ee8      	l32i.n	a14, a14, 0
    33f7:	1b0c      	movi.n	a11, 1
    33f9:	fee8      	l32i.n	a14, a14, 60
    33fb:	0d0c      	movi.n	a13, 0
    33fd:	c0eea0        	sub	a14, a14, a10
    3400:	83dbe0        	moveqz	a13, a11, a14
    3403:	141c66        	bnei	a12, 1, 0x341b
    3406:	7465f1        	l32r	a15, 0xfffe059c
    3409:	0ff8      	l32i.n	a15, a15, 0
    340b:	fff8      	l32i.n	a15, a15, 60
    340d:	0a9fa7        	bne	a15, a10, 0x341b
    3410:	020482        	l8ui	a8, a4, 2
    3413:	190c      	movi.n	a9, 1
    3415:	024866        	bnei	a8, 4, 0x341b
    3418:	000046        	j	0x341d
    341b:	090c      	movi.n	a9, 0
    341d:	093916        	beqz	a9, 0x34b4
    3420:	5f          	.byte 0x5f
    3421:	478106        	j	0x15229
    3424:	a12682        	l32i	a8, a6, 0x284
    3427:	51d8      	l32i.n	a13, a1, 20
    3429:	747271        	l32r	a7, 0xfffe05f4
    342c:	0abd      	mov.n	a11, a10
    342e:	41f8a0        	srli	a15, a10, 8
    3431:	e18b      	addi.n	a14, a1, 8
    3433:	004ea2        	s8i	a10, a14, 0
    3436:	014ef2        	s8i	a15, a14, 1
    3439:	41f8f0        	srli	a15, a15, 8
    343c:	7469a1        	l32r	a10, 0xfffe05e0
    343f:	5f          	.byte 0x5f
    3440:	8409      	s32i.n	a0, a4, 32
    3442:	c838      	l32i.n	a3, a8, 48
    3444:	117955        	excw
    3447:	0c41d2        	s8i	a13, a1, 12
    344a:	14dcc2        	addmi	a12, a12, 0x1400
    344d:	01c9      	s32i.n	a12, a1, 0
    344f:	5f          	.byte 0x5f
    3450:	648306        	j	0x1c660
    3453:	11b8      	l32i.n	a11, a1, 4
    3455:	a12682        	l32i	a8, a6, 0x284
    3458:	0c01c2        	l8ui	a12, a1, 12
    345b:	0008e0        	excw
    345e:	746671        	l32r	a7, 0xfffe05f8
    3461:	04ad      	mov.n	a10, a4
    3463:	5f6781        	l32r	a8, 0xfffdb200
    3466:	709405        	call0	0x73da8
    3469:	5f          	.byte 0x5f
    346a:	688307        	bany	a3, a0, 0x34d6
    346d:	0abd      	mov.n	a11, a10
    346f:	0147a2        	s8i	a10, a7, 1
    3472:	a02682        	l32i	a8, a6, 0x280
    3475:	5f73a1        	l32r	a10, 0xfffdb244
    3478:	716204        	excw
    347b:	827467        	bbci	a4, 22, 0x3401
    347e:	5f2c27        	blt	a12, a2, 0x34e1
    3481:	398105        	call0	0x3cc94
    3484:	04ad      	mov.n	a10, a4
    3486:	8b0c      	movi.n	a11, 8
    3488:	5f7681        	l32r	a8, 0xfffdb260
    348b:	19ba06        	j	0x9b77
    348e:	6199      	s32i.n	a9, a1, 24
    3490:	742ba1        	l32r	a10, 0xfffe053c
    3493:	000aa2        	l8ui	a10, a10, 0
    3496:	224b      	addi.n	a2, a2, 4
    3498:	331b      	addi.n	a3, a3, 1
    349a:	02b3a7        	bgeu	a3, a10, 0x34a0
    349d:	ffc3c6        	j	0x33b0
    34a0:	001146        	j	0x34e9
    34a3:	fe9d16        	beqz	a13, 0x3490
    34a6:	030792        	l8ui	a9, a7, 3
    34a9:	e3e917        	bbsi	a9, 1, 0x3490
    34ac:	e0e907        	bbsi	a9, 0, 0x3490
    34af:	04ad      	mov.n	a10, a4
    34b1:	1b0c      	movi.n	a11, 1
    34b3:	0c0c      	movi.n	a12, 0
    34b5:	741181        	l32r	a8, 0xfffe04fc
    34b8:	0d0c      	movi.n	a13, 0
    34ba:	1a2882        	l32i	a8, a8, 104
    34bd:	6e0c      	movi.n	a14, 6
    34bf:	0008e0        	excw
    34c2:	891c      	movi.n	a9, 24
    34c4:	109a97        	bne	a10, a9, 0x34d8
    34c7:	5f          	.byte 0x5f
    34c8:	5f1804        	excw
    34cb:	1a4507        	ball	a5, a0, 0x34e9
    34ce:	61a9      	s32i.n	a10, a1, 24
    34d0:	ffedc6        	j	0x348b
    34d3:	04ad      	mov.n	a10, a4
    34d5:	2b0c      	movi.n	a11, 2
    34d7:	5f          	.byte 0x5f
    34d8:	861106        	j	0xfffe4d20
    34db:	ffea      	add.n	a15, a15, a14
    34dd:	0b0c      	movi.n	a11, 0
    34df:	61b9      	s32i.n	a11, a1, 24
    34e1:	61c8      	l32i.n	a12, a1, 24
    34e3:	520c      	movi.n	a2, 5
    34e5:	fcec      	bnez.n	a12, 0x3518
    34e7:	7465c1        	l32r	a12, 0xfffe067c
    34ea:	0cc8      	l32i.n	a12, a12, 0
    34ec:	132cd2        	l32i	a13, a12, 76
    34ef:	9dcc      	bnez.n	a13, 0x34fc
    34f1:	262cd2        	l32i	a13, a12, 152
    34f4:	010dd2        	l8ui	a13, a13, 1
    34f7:	120c      	movi.n	a2, 1
    34f9:	5d2d66        	bnei	a13, 2, 0x355a
    34fc:	2d2cd2        	l32i	a13, a12, 180
    34ff:	1d9c      	beqz.n	a13, 0x3514
    3501:	2e2ca2        	l32i	a10, a12, 184
    3504:	51e8      	l32i.n	a14, a1, 20
    3506:	0105f2        	l8ui	a15, a5, 1
    3509:	41b8      	l32i.n	a11, a1, 16
    350b:	fecff2        	addi	a15, a15, -2
    350e:	83bef0        	moveqz	a11, a14, a15
    3511:	000de0        	excw
    3514:	620c      	movi.n	a2, 6
    3516:	f01d      	excw
    3518:	f01d      	excw
    351a:	2a3266        	bnei	a2, 3, 0x3548
    351d:	5f          	.byte 0x5f
    351e:	058307        	bany	a3, a0, 0x3527
    3521:	4abc      	beqz.n	a10, 0x3559
    3523:	0d0c      	movi.n	a13, 0
    3525:	199a76        	excw
    3528:	0298      	l32i.n	a9, a2, 0
    352a:	0309b2        	l8ui	a11, a9, 3
    352d:	224b      	addi.n	a2, a2, 4
    352f:	0d3b66        	bnei	a11, 3, 0x3540
    3532:	1e2992        	l32i	a9, a9, 120
    3535:	030992        	l8ui	a9, a9, 3
    3538:	02e907        	bbsi	a9, 0, 0x353e
    353b:	016937        	bbci	a9, 3, 0x3540
    353e:	1d0c      	movi.n	a13, 1
    3540:	f03d      	nop.n
    3542:	000546        	j	0x355b
    3545:	da0c      	movi.n	a10, 13
    3547:	0312a7        	beq	a2, a10, 0x354e
    354a:	520c      	movi.n	a2, 5
    354c:	f01d      	excw
    354e:	6b0c      	movi.n	a11, 6
    3550:	0d2d      	mov.n	a2, a13
    3552:	932b50        	movnez	a2, a11, a5
    3555:	5f          	.byte 0x5f
    3556:	569b05        	call0	0x59f08
    3559:	ec0d      	excw
    355b:	164d      	excw
    355d:	5f0495        	excw
    3560:	6718      	l32i.n	a1, a7, 24
    3562:	747431        	l32r	a3, 0xfffe0734
    3565:	0388      	l32i.n	a8, a3, 0
    3567:	68cc      	bnez.n	a8, 0x3571
    3569:	5f          	.byte 0x5f
    356a:	5f6e04        	excw
    356d:	213904        	excw
    3570:	827475        	excw
    3573:	5f6e26        	beqi	a14, 6, 0x35d6
    3576:	b008      	l32i.n	a0, a0, 44
    3578:	0b29      	s32i.n	a2, a11, 0
    357a:	e8a3d2        	movi	a13, 0x3e8
    357d:	03c8      	l32i.n	a12, a3, 0
    357f:	6d2682        	l32i	a8, a6, 0x1b4
    3582:	82ccd0        	mull	a12, a12, a13
    3585:	5f          	.byte 0x5f
    3586:	409505        	call0	0x43ed8
    3589:	5f          	.byte 0x5f
    358a:	125c05        	call0	0x15b4c
    358d:	5f          	.byte 0x5f
    358e:	3c8406        	j	0x127a2
    3591:	026d      	mov.n	a6, a2
    3593:	030c      	movi.n	a3, 0
    3595:	5f          	.byte 0x5f
    3596:	328306        	j	0xffa6
    3599:	51a9      	s32i.n	a10, a1, 20
    359b:	070c      	movi.n	a7, 0
    359d:	190c      	movi.n	a9, 1
    359f:	0279      	s32i.n	a7, a2, 0
    35a1:	746521        	l32r	a2, 0xfffe0738
    35a4:	747781        	l32r	a8, 0xfffe0780
    35a7:	02e8      	l32i.n	a14, a2, 0
    35a9:	0888      	l32i.n	a8, a8, 0
    35ab:	166e72        	s32i	a7, a14, 88
    35ae:	d89c      	beqz.n	a8, 0x35cf
    35b0:	760ea2        	l8ui	a10, a14, 118
    35b3:	8a9c      	beqz.n	a10, 0x35cf
    35b5:	384e92        	s8i	a9, a14, 56
    35b8:	072d      	mov.n	a2, a7
    35ba:	f01d      	excw
    35bc:	31b8      	l32i.n	a11, a1, 12
    35be:	9b8c      	beqz.n	a11, 0x35cb
    35c0:	51d8      	l32i.n	a13, a1, 20
    35c2:	3bc8      	l32i.n	a12, a11, 12
    35c4:	c0ccd0        	sub	a12, a12, a13
    35c7:	21d8      	l32i.n	a13, a1, 8
    35c9:	0dc9      	s32i.n	a12, a13, 0
    35cb:	7128      	l32i.n	a2, a1, 28
    35cd:	f01d      	excw
    35cf:	742bf1        	l32r	a15, 0xfffe067c
    35d2:	380ed2        	l8ui	a13, a14, 56
    35d5:	0139      	s32i.n	a3, a1, 0
    35d7:	041d16        	beqz	a13, 0x361c
    35da:	152e32        	l32i	a3, a14, 84
    35dd:	0f4d      	mov.n	a4, a15
    35df:	000442        	l8ui	a4, a4, 0
    35e2:	050c      	movi.n	a5, 0
    35e4:	90f440        	addx2	a15, a4, a4
    35e7:	efac      	beqz.n	a15, 0x3619
    35e9:	000382        	l8ui	a8, a3, 0
    35ec:	23c8      	l32i.n	a12, a3, 8
    35ee:	d89c      	beqz.n	a8, 0x360f
    35f0:	bc9c      	beqz.n	a12, 0x360f
    35f2:	5198      	l32i.n	a9, a1, 20
    35f4:	33a8      	l32i.n	a10, a3, 12
    35f6:	c09a90        	sub	a9, a10, a9
    35f9:	00f9d6        	bgez	a9, 0x360c
    35fc:	51b8      	l32i.n	a11, a1, 20
    35fe:	5f          	.byte 0x5f
    35ff:	4a8906        	j	0x16027
    3602:	742b41        	l32r	a4, 0xfffe06b0
    3605:	33a9      	s32i.n	a10, a3, 12
    3607:	000442        	l8ui	a4, a4, 0
    360a:	90f440        	addx2	a15, a4, a4
    360d:	34c332        	addi	a3, a3, 52
    3610:	551b      	addi.n	a5, a5, 1
    3612:	d135f7        	bltu	a5, a15, 0x35e7
    3615:	02e8      	l32i.n	a14, a2, 0
    3617:	384e72        	s8i	a7, a14, 56
    361a:	747881        	l32r	a8, 0xfffe07fc
    361d:	0888      	l32i.n	a8, a8, 0
    361f:	740091        	l32r	a9, 0xfffe0620
    3622:	b88c      	beqz.n	a8, 0x3631
    3624:	7479a1        	l32r	a10, 0xfffe0808
    3627:	098d      	mov.n	a8, a9
    3629:	a02882        	l32i	a8, a8, 0x280
    362c:	5f          	.byte 0x5f
    362d:	669a05        	call0	0x69fd0
    3630:	2169      	s32i.n	a6, a1, 8
    3632:	050c      	movi.n	a5, 0
    3634:	0e0c      	movi.n	a14, 0
    3636:	ff7c      	movi.n	a15, -1
    3638:	080c      	movi.n	a8, 0
    363a:	7189      	s32i.n	a8, a1, 28
    363c:	41f9      	s32i.n	a15, a1, 16
    363e:	61e9      	s32i.n	a14, a1, 24
    3640:	3159      	s32i.n	a5, a1, 12
    3642:	050c      	movi.n	a5, 0
    3644:	042566        	bnei	a5, 2, 0x364c
    3647:	7198      	l32i.n	a9, a1, 28
    3649:	180956        	bnez	a9, 0x37cd
    364c:	070c      	movi.n	a7, 0
    364e:	742b41        	l32r	a4, 0xfffe06fc
    3651:	0268      	l32i.n	a6, a2, 0
    3653:	000442        	l8ui	a4, a4, 0
    3656:	665a      	add.n	a6, a6, a5
    3658:	680662        	l8ui	a6, a6, 104
    365b:	161416        	beqz	a4, 0x37c0
    365e:	01c6a2        	addi	a10, a6, 1
    3661:	20b440        	or	a11, a4, a4
    3664:	09eee5        	excw
    3667:	34a092        	movi	a9, 52
    366a:	0238      	l32i.n	a3, a2, 0
    366c:	828450        	mull	a8, a4, a5
    366f:	152332        	l32i	a3, a3, 84
    3672:	8a8a      	add.n	a8, a10, a8
    3674:	828890        	mull	a8, a8, a9
    3677:	0a6d      	mov.n	a6, a10
    3679:	338a      	add.n	a3, a3, a8
    367b:	000382        	l8ui	a8, a3, 0
    367e:	0303d2        	l8ui	a13, a3, 3
    3681:	0e8816        	beqz	a8, 0x376d
    3684:	0490d0        	extui	a9, a13, 0, 1
    3687:	0e2956        	bnez	a9, 0x376d
    368a:	04a2d0        	extui	a10, a13, 2, 1
    368d:	0dca56        	bnez	a10, 0x376d
    3690:	63b8      	l32i.n	a11, a3, 24
    3692:	000bb2        	l8ui	a11, a11, 0
    3695:	7428c1        	l32r	a12, 0xfffe0738
    3698:	071b67        	beq	a11, a6, 0x36a3
    369b:	5f          	.byte 0x5f
    369c:	ac08      	l32i.n	a0, a12, 40
    369e:	156665        	excw
    36a1:	7a9133        	excw
    36a4:	099874        	excw
    36a7:	126957        	bbci	a9, 5, 0x36bd
    36aa:	03ad      	mov.n	a10, a3
    36ac:	ff9525        	excw
    36af:	0303a2        	l8ui	a10, a3, 3
    36b2:	747a91        	l32r	a9, 0xfffe089c
    36b5:	04a1a0        	extui	a10, a10, 1, 1
    36b8:	0a7a56        	bnez	a10, 0x3763
    36bb:	0998      	l32i.n	a9, a9, 0
    36bd:	156917        	bbci	a9, 1, 0x36d6
    36c0:	0203d2        	l8ui	a13, a3, 2
    36c3:	02c8      	l32i.n	a12, a2, 0
    36c5:	ccda      	add.n	a12, a12, a13
    36c7:	6b0cc2        	l8ui	a12, a12, 107
    36ca:	ffa0a2        	movi	a10, 255
    36cd:	051ca7        	beq	a12, a10, 0x36d6
    36d0:	021c67        	beq	a12, a6, 0x36d6
    36d3:	002306        	j	0x3763
    36d6:	3398      	l32i.n	a9, a3, 12
    36d8:	040c      	movi.n	a4, 0
    36da:	04e916        	beqz	a9, 0x372c
    36dd:	1913e2        	l16ui	a14, a3, 50
    36e0:	51b8      	l32i.n	a11, a1, 20
    36e2:	46ee27        	bbsi	a14, 2, 0x372c
    36e5:	7478d1        	l32r	a13, 0xfffe08c8
    36e8:	c0b9b0        	sub	a11, a9, a11
    36eb:	0dd8      	l32i.n	a13, a13, 0
    36ed:	041be6        	bgei	a11, 1, 0x36f5
    36f0:	0c0c      	movi.n	a12, 0
    36f2:	000046        	j	0x36f7
    36f5:	0bcd      	mov.n	a12, a11
    36f7:	11c9      	s32i.n	a12, a1, 4
    36f9:	5dac      	beqz.n	a13, 0x3722
    36fb:	747ba1        	l32r	a10, 0xfffe08e8
    36fe:	0103d2        	l8ui	a13, a3, 1
    3701:	0203e2        	l8ui	a14, a3, 2
    3704:	0cbd      	mov.n	a11, a12
    3706:	740081        	l32r	a8, 0xfffe0708
    3709:	63c8      	l32i.n	a12, a3, 24
    370b:	a12882        	l32i	a8, a8, 0x284
    370e:	11ee00        	slli	a14, a14, 16
    3711:	11dd80        	slli	a13, a13, 8
    3714:	000cc2        	l8ui	a12, a12, 0
    3717:	20dde0        	or	a13, a13, a14
    371a:	5fccd0        	excw
    371d:	7dc605        	call0	0x81380
    3720:	7c9111        	l32r	a1, 0xfffe2964
    3723:	099874        	excw
    3726:	41a8      	l32i.n	a10, a1, 16
    3728:	0439c7        	bltu	a9, a12, 0x3730
    372b:	140c      	movi.n	a4, 1
    372d:	000186        	j	0x3737
    3730:	03bca7        	bgeu	a12, a10, 0x3737
    3733:	3139      	s32i.n	a3, a1, 12
    3735:	41c9      	s32i.n	a12, a1, 16
    3737:	74ac      	beqz.n	a4, 0x3762
    3739:	0203c2        	l8ui	a12, a3, 2
    373c:	61e8      	l32i.n	a14, a1, 24
    373e:	373ec7        	bltu	a14, a12, 0x3779
    3741:	1d1566        	bnei	a5, 1, 0x3762
    3744:	0f9ce7        	bne	a12, a14, 0x3757
    3747:	7188      	l32i.n	a8, a1, 28
    3749:	010882        	l8ui	a8, a8, 1
    374c:	78cc      	bnez.n	a8, 0x3757
    374e:	71a8      	l32i.n	a10, a1, 28
    3750:	6398      	l32i.n	a9, a3, 24
    3752:	6aa8      	l32i.n	a10, a10, 24
    3754:	1b19a7        	beq	a9, a10, 0x3773
    3757:	072566        	bnei	a5, 2, 0x3762
    375a:	7468b1        	l32r	a11, 0xfffe08fc
    375d:	0bb8      	l32i.n	a11, a11, 0
    375f:	1deb37        	bbsi	a11, 3, 0x3780
    3762:	742b41        	l32r	a4, 0xfffe0810
    3765:	000442        	l8ui	a4, a4, 0
    3768:	771b      	addi.n	a7, a7, 1
    376a:	02b747        	bgeu	a7, a4, 0x3770
    376d:	ffba06        	j	0x3659
    3770:	0011c6        	j	0x37bb
    3773:	191382        	l16ui	a8, a3, 50
    3776:	dd6807        	bbci	a8, 0, 0x3757
    3779:	7139      	s32i.n	a3, a1, 28
    377b:	61c9      	s32i.n	a12, a1, 24
    377d:	fff586        	j	0x3757
    3780:	02e8      	l32i.n	a14, a2, 0
    3782:	122ec2        	l32i	a12, a14, 72
    3785:	2cbc      	beqz.n	a12, 0x37bb
    3787:	6c68      	l32i.n	a6, a12, 24
    3789:	152ed2        	l32i	a13, a14, 84
    378c:	000662        	l8ui	a6, a6, 0
    378f:	4e3c      	movi.n	a14, 52
    3791:	c1b6e0        	mul16u	a11, a6, a14
    3794:	bdba      	add.n	a11, a13, a11
    3796:	219cb7        	bne	a12, a11, 0x37bb
    3799:	742b31        	l32r	a3, 0xfffe0848
    379c:	000332        	l8ui	a3, a3, 0
    379f:	903360        	addx2	a3, a3, a6
    37a2:	8233e0        	mull	a3, a3, a14
    37a5:	3d3a      	add.n	a3, a13, a3
    37a7:	000382        	l8ui	a8, a3, 0
    37aa:	d88c      	beqz.n	a8, 0x37bb
    37ac:	0303d2        	l8ui	a13, a3, 3
    37af:	08ed07        	bbsi	a13, 0, 0x37bb
    37b2:	05ed27        	bbsi	a13, 2, 0x37bb
    37b5:	7139      	s32i.n	a3, a1, 28
    37b7:	180c      	movi.n	a8, 1
    37b9:	0189      	s32i.n	a8, a1, 0
    37bb:	551b      	addi.n	a5, a5, 1
    37bd:	fdc5a2        	addi	a10, a5, -3
    37c0:	e7ba56        	bnez	a10, 0x363f
    37c3:	71b8      	l32i.n	a11, a1, 28
    37c5:	08ab16        	beqz	a11, 0x3853
    37c8:	01c8      	l32i.n	a12, a1, 0
    37ca:	081c56        	bnez	a12, 0x384f
    37cd:	71d8      	l32i.n	a13, a1, 28
    37cf:	2dd8      	l32i.n	a13, a13, 8
    37d1:	07ad16        	beqz	a13, 0x384f
    37d4:	7468e1        	l32r	a14, 0xfffe0974
    37d7:	0ee8      	l32i.n	a14, a14, 0
    37d9:	726e07        	bbci	a14, 0, 0x384f
    37dc:	0c0c      	movi.n	a12, 0
    37de:	71e8      	l32i.n	a14, a1, 28
    37e0:	0238      	l32i.n	a3, a2, 0
    37e2:	742b91        	l32r	a9, 0xfffe0890
    37e5:	152332        	l32i	a3, a3, 84
    37e8:	000992        	l8ui	a9, a9, 0
    37eb:	4ee8      	l32i.n	a14, a14, 16
    37ed:	909990        	addx2	a9, a9, a9
    37f0:	1ab916        	beqz	a9, 0x399f
    37f3:	7188      	l32i.n	a8, a1, 28
    37f5:	51f8      	l32i.n	a15, a1, 20
    37f7:	082882        	l32i	a8, a8, 32
    37fa:	80ff80        	add	a15, a15, a8
    37fd:	39a976        	excw
    3800:	055f92        	s16i	a9, a15, 10
    3803:	ac0a83        	excw
    3806:	07d9      	s32i.n	a13, a7, 0
    3808:	2bed      	excw
    380a:	28ed17        	bbsi	a13, 1, 0x3836
    380d:	25ed27        	bbsi	a13, 2, 0x3836
    3810:	71a8      	l32i.n	a10, a1, 28
    3812:	2013a7        	beq	a3, a10, 0x3836
    3815:	23b8      	l32i.n	a11, a3, 8
    3817:	0203d2        	l8ui	a13, a3, 2
    381a:	8b9c      	beqz.n	a11, 0x3836
    381c:	020a82        	l8ui	a8, a10, 2
    381f:	139d87        	bne	a13, a8, 0x3836
    3822:	4398      	l32i.n	a9, a3, 16
    3824:	c0a9e0        	sub	a10, a9, a14
    3827:	00bad6        	bgez	a10, 0x3836
    382a:	33b8      	l32i.n	a11, a3, 12
    382c:	c0bbf0        	sub	a11, a11, a15
    382f:	031be6        	bgei	a11, 1, 0x3836
    3832:	09ed      	mov.n	a14, a9
    3834:	03cd      	mov.n	a12, a3
    3836:	34c332        	addi	a3, a3, 52
    3839:	005846        	j	0x399e
    383c:	0e0c      	movi.n	a14, 0
    383e:	31d8      	l32i.n	a13, a1, 12
    3840:	71e9      	s32i.n	a14, a1, 28
    3842:	6d8c      	beqz.n	a13, 0x384c
    3844:	3df8      	l32i.n	a15, a13, 12
    3846:	c0f9f0        	sub	a15, a9, a15
    3849:	001fd6        	bgez	a15, 0x384e
    384c:	31c9      	s32i.n	a12, a1, 12
    384e:	7198      	l32i.n	a9, a1, 28
    3850:	09ec      	bnez.n	a9, 0x3874
    3852:	31a8      	l32i.n	a10, a1, 12
    3854:	7a9c      	beqz.n	a10, 0x386f
    3856:	0298      	l32i.n	a9, a2, 0
    3858:	122992        	l32i	a9, a9, 72
    385b:	099c      	beqz.n	a9, 0x386f
    385d:	0109a2        	l8ui	a10, a9, 1
    3860:	0b1a66        	bnei	a10, 1, 0x386f
    3863:	31c8      	l32i.n	a12, a1, 12
    3865:	71b8      	l32i.n	a11, a1, 28
    3867:	010cd2        	l8ui	a13, a12, 1
    386a:	83bcd0        	moveqz	a11, a12, a13
    386d:	71b9      	s32i.n	a11, a1, 28
    386f:	71e8      	l32i.n	a14, a1, 28
    3871:	d3ee16        	beqz	a14, 0x35b3
    3874:	050c      	movi.n	a5, 0
    3876:	02e8      	l32i.n	a14, a2, 0
    3878:	742bf1        	l32r	a15, 0xfffe0924
    387b:	71a8      	l32i.n	a10, a1, 28
    387d:	f47c      	movi.n	a4, -1
    387f:	030c      	movi.n	a3, 0
    3881:	3139      	s32i.n	a3, a1, 12
    3883:	4149      	s32i.n	a4, a1, 16
    3885:	8aa8      	l32i.n	a10, a10, 32
    3887:	5148      	l32i.n	a4, a1, 20
    3889:	000ff2        	l8ui	a15, a15, 0
    388c:	152e32        	l32i	a3, a14, 84
    388f:	90fff0        	addx2	a15, a15, a15
    3892:	44aa      	add.n	a4, a4, a10
    3894:	06cf16        	beqz	a15, 0x3904
    3897:	5f          	.byte 0x5f
    3898:	228407        	bany	a4, a0, 0x38be
    389b:	0578      	l32i.n	a7, a5, 0
    389d:	54ed07        	bbsi	a13, 0, 0x38f5
    38a0:	51ed17        	bbsi	a13, 1, 0x38f5
    38a3:	7198      	l32i.n	a9, a1, 28
    38a5:	4c1397        	beq	a3, a9, 0x38f5
    38a8:	23c8      	l32i.n	a12, a3, 8
    38aa:	33a8      	l32i.n	a10, a3, 12
    38ac:	045c16        	beqz	a12, 0x38f5
    38af:	0203f2        	l8ui	a15, a3, 2
    38b2:	0209b2        	l8ui	a11, a9, 2
    38b5:	0c3bf7        	bltu	a11, a15, 0x38c5
    38b8:	c0da40        	sub	a13, a10, a4
    38bb:	2d1de6        	bgei	a13, 1, 0x38ec
    38be:	faca      	add.n	a15, a10, a12
    38c0:	33f9      	s32i.n	a15, a3, 12
    38c2:	000986        	j	0x38ec
    38c5:	12ed27        	bbsi	a13, 2, 0x38db
    38c8:	5188      	l32i.n	a8, a1, 20
    38ca:	c08a80        	sub	a8, a10, a8
    38cd:	00a8d6        	bgez	a8, 0x38db
    38d0:	5f          	.byte 0x5f
    38d1:	940b      	addi.n	a9, a4, -1
    38d3:	c878      	l32i.n	a7, a8, 48
    38d5:	41b851        	l32r	a5, 0xfffd3fb8
    38d8:	c0cac0        	sub	a12, a10, a12
    38db:	06bcb7        	bgeu	a12, a11, 0x38e5
    38de:	41c9      	s32i.n	a12, a1, 16
    38e0:	166e32        	s32i	a3, a14, 88
    38e3:	3139      	s32i.n	a3, a1, 12
    38e5:	742bf1        	l32r	a15, 0xfffe0994
    38e8:	000ff2        	l8ui	a15, a15, 0
    38eb:	5ffff0        	excw
    38ee:	8508      	l32i.n	a0, a5, 32
    38f0:	a89672        	l16si	a7, a6, 0x150
    38f3:	8aa871        	l32r	a7, 0xfffe6394
    38f6:	7198      	l32i.n	a9, a1, 28
    38f8:	0b0c      	movi.n	a11, 0
    38fa:	3998      	l32i.n	a9, a9, 12
    38fc:	11b9      	s32i.n	a11, a1, 4
    38fe:	099c      	beqz.n	a9, 0x3912
    3900:	71b8      	l32i.n	a11, a1, 28
    3902:	191bb2        	l16ui	a11, a11, 50
    3905:	09eb27        	bbsi	a11, 2, 0x3912
    3908:	51c8      	l32i.n	a12, a1, 20
    390a:	c099c0        	sub	a9, a9, a12
    390d:	0119a6        	blti	a9, 1, 0x3912
    3910:	1199      	s32i.n	a9, a1, 4
    3912:	2acc      	bnez.n	a10, 0x3918
    3914:	31e8      	l32i.n	a14, a1, 12
    3916:	1e9c      	beqz.n	a14, 0x392b
    3918:	41b8      	l32i.n	a11, a1, 16
    391a:	0d0c      	movi.n	a13, 0
    391c:	11c8      	l32i.n	a12, a1, 4
    391e:	746d81        	l32r	a8, 0xfffe0ad4
    3921:	caca      	add.n	a12, a10, a12
    3923:	1a2882        	l32i	a8, a8, 104
    3926:	71a8      	l32i.n	a10, a1, 28
    3928:	0008e0        	excw
    392b:	71b8      	l32i.n	a11, a1, 28
    392d:	5ba9      	s32i.n	a10, a11, 20
    392f:	6ba8      	l32i.n	a10, a11, 24
    3931:	ff9b25        	excw
    3934:	71d8      	l32i.n	a13, a1, 28
    3936:	310dd2        	l8ui	a13, a13, 49
    3939:	1a2d66        	bnei	a13, 2, 0x3957
    393c:	7474e1        	l32r	a14, 0xfffe0b0c
    393f:	71c8      	l32i.n	a12, a1, 28
    3941:	1ee8      	l32i.n	a14, a14, 4
    3943:	5cf8      	l32i.n	a15, a12, 20
    3945:	6cc8      	l32i.n	a12, a12, 24
    3947:	10bef7        	bgeu	a14, a15, 0x395b
    394a:	010cf2        	l8ui	a15, a12, 1
    394d:	0a1f66        	bnei	a15, 1, 0x395b
    3950:	7188      	l32i.n	a8, a1, 28
    3952:	58e9      	s32i.n	a14, a8, 20
    3954:	0000c6        	j	0x395b
    3957:	71c8      	l32i.n	a12, a1, 28
    3959:	6cc8      	l32i.n	a12, a12, 24
    395b:	02f8      	l32i.n	a15, a2, 0
    395d:	000ce2        	l8ui	a14, a12, 0
    3960:	ffda      	add.n	a15, a15, a13
    3962:	684fe2        	s8i	a14, a15, 104
    3965:	101d66        	bnei	a13, 1, 0x3979
    3968:	7188      	l32i.n	a8, a1, 28
    396a:	02a8      	l32i.n	a10, a2, 0
    396c:	020892        	l8ui	a9, a8, 2
    396f:	6888      	l32i.n	a8, a8, 24
    3971:	99aa      	add.n	a9, a9, a10
    3973:	000882        	l8ui	a8, a8, 0
    3976:	6b4982        	s8i	a8, a9, 107
    3979:	7198      	l32i.n	a9, a1, 28
    397b:	2998      	l32i.n	a9, a9, 8
    397d:	698c      	beqz.n	a9, 0x3987
    397f:	71b8      	l32i.n	a11, a1, 28
    3981:	3ba8      	l32i.n	a10, a11, 12
    3983:	aa9a      	add.n	a10, a10, a9
    3985:	3ba9      	s32i.n	a10, a11, 12
    3987:	71c8      	l32i.n	a12, a1, 28
    3989:	51b8      	l32i.n	a11, a1, 20
    398b:	4cb9      	s32i.n	a11, a12, 16
    398d:	ff08c6        	j	0x35b4
    3990:	eacc16        	beqz	a12, 0x3840
    3993:	51d8      	l32i.n	a13, a1, 20
    3995:	3c98      	l32i.n	a9, a12, 12
    3997:	c0d9d0        	sub	a13, a9, a13
    399a:	021da6        	blti	a13, 1, 0x39a0
    399d:	ffa346        	j	0x382e
    39a0:	71c9      	s32i.n	a12, a1, 28
    39a2:	ffa686        	j	0x3840
    39a5:	004136        	excw
    39a8:	0d2366        	bnei	a3, 2, 0x39b9
    39ab:	0a1526        	beqi	a5, 1, 0x39b9
    39ae:	5f          	.byte 0x5f
    39af:	9b0b      	addi.n	a9, a11, -1
    39b1:	149224        	excw
    39b4:	0c0b      	addi.n	a0, a12, -1
    39b6:	171b      	addi.n	a1, a7, 1
    39b8:	0f69      	s32i.n	a6, a15, 0
    39ba:	8d0c      	movi.n	a13, 8
    39bc:	7465c1        	l32r	a12, 0xfffe0b50
    39bf:	20d9d0        	or	a13, a9, a13
    39c2:	0cc8      	l32i.n	a12, a12, 0
    39c4:	0b54d2        	s16i	a13, a4, 22
    39c7:	374cb2        	s8i	a11, a12, 55
    39ca:	f69c      	beqz.n	a6, 0x39ed
    39cc:	5f          	.byte 0x5f
    39cd:	578806        	j	0x197f1
    39d0:	0abd      	mov.n	a11, a10
    39d2:	37cc      	bnez.n	a7, 0x39d9
    39d4:	0a7d      	mov.n	a7, a10
    39d6:	000446        	j	0x39eb
    39d9:	c0e7a0        	sub	a14, a7, a10
    39dc:	00bed6        	bgez	a14, 0x39eb
    39df:	07ad      	mov.n	a10, a7
    39e1:	06cd      	mov.n	a12, a6
    39e3:	5f          	.byte 0x5f
    39e4:	058806        	j	0x5008
    39e7:	0a7d      	mov.n	a7, a10
    39e9:	5f          	.byte 0x5f
    39ea:	57a507        	bge	a5, a0, 0x3a45
    39ed:	6d8103        	excw
    39f0:	04bd74        	excw
    39f3:	5f          	.byte 0x5f
    39f4:	59b907        	bgeu	a9, a0, 0x3a51
    39f7:	5f          	.byte 0x5f
    39f8:	c309      	s32i.n	a0, a3, 48
    39fa:	0058      	l32i.n	a5, a0, 0
    39fc:	288274        	excw
    39ff:	9f          	.byte 0x9f
    3a00:	5f7da1        	l32r	a10, 0xfffdb7f4
    3a03:	108b05        	call0	0x142b4
    3a06:	0caa      	add.n	a0, a12, a10
    3a08:	811c      	movi.n	a1, 24
    3a0a:	746d      	excw
    3a0c:	7465b1        	l32r	a11, 0xfffe0ba0
    3a0f:	0d0c      	movi.n	a13, 0
    3a11:	0bf8      	l32i.n	a15, a11, 0
    3a13:	2e0c      	movi.n	a14, 2
    3a15:	262f92        	l32i	a9, a15, 152
    3a18:	416f42        	s32i	a4, a15, 0x104
    3a1b:	0149e2        	s8i	a14, a9, 1
    3a1e:	3049d2        	s8i	a13, a9, 48
    3a21:	0bb8      	l32i.n	a11, a11, 0
    3a23:	8939      	s32i.n	a3, a9, 32
    3a25:	1f2b92        	l32i	a9, a11, 124
    3a28:	172882        	l32i	a8, a8, 92
    3a2b:	2099c0        	or	a9, a9, a12
    3a2e:	1f6b92        	s32i	a9, a11, 124
    3a31:	5f          	.byte 0x5f
    3a32:	8f08      	l32i.n	a0, a15, 32
    3a34:	075f30        	excw
    3a37:	5f7e40        	excw
    3a3a:	5f4004        	excw
    3a3d:	ba3904        	excw
    3a40:	0be8      	l32i.n	a14, a11, 0
    3a42:	ec7c      	movi.n	a12, -2
    3a44:	262ee2        	l32i	a14, a14, 152
    3a47:	3d0c      	movi.n	a13, 3
    3a49:	014ed2        	s8i	a13, a14, 1
    3a4c:	0bb8      	l32i.n	a11, a11, 0
    3a4e:	746d81        	l32r	a8, 0xfffe0c04
    3a51:	5f          	.byte 0x5f
    3a52:	3608      	l32i.n	a0, a6, 12
    3a54:	085f10        	excw
    3a57:	055f36        	excw
    3a5a:	8f          	.byte 0x8f
    3a5b:	7fa120        	excw
    3a5e:	654174        	excw
    3a61:	008174        	excw
    3a64:	043874        	excw
    3a67:	9f2882        	l32i	a8, a8, 0x27c
    3a6a:	262332        	l32i	a3, a3, 152
    3a6d:	0008e0        	excw
    3a70:	72ac      	beqz.n	a2, 0x3a9b
    3a72:	52a8      	l32i.n	a10, a2, 20
    3a74:	1c0c      	movi.n	a12, 1
    3a76:	62e8      	l32i.n	a14, a2, 24
    3a78:	04b8      	l32i.n	a11, a4, 0
    3a7a:	000ee2        	l8ui	a14, a14, 0
    3a7d:	382bd2        	l32i	a13, a11, 224
    3a80:	401e00        	ssl	a14
    3a83:	a1cc00        	sll	a12, a12
    3a86:	130dc7        	bnone	a13, a12, 0x3a9d
    3a89:	3102f2        	l8ui	a15, a2, 49
    3a8c:	dfcc      	bnez.n	a15, 0x3a9d
    3a8e:	f87c      	movi.n	a8, -1
    3a90:	308c80        	xor	a8, a12, a8
    3a93:	108d80        	and	a8, a13, a8
    3a96:	386b82        	s32i	a8, a11, 224
    3a99:	f01d      	excw
    3a9b:	0a0c      	movi.n	a10, 0
    3a9d:	53a9      	s32i.n	a10, a3, 20
    3a9f:	5f          	.byte 0x5f
    3aa0:	788106        	j	0x21ca8
    3aa3:	04b8      	l32i.n	a11, a4, 0
    3aa5:	2b2bc2        	l32i	a12, a11, 172
    3aa8:	43a9      	s32i.n	a10, a3, 16
    3aaa:	8c8c      	beqz.n	a12, 0x3ab6
    3aac:	2c2ba2        	l32i	a10, a11, 176
    3aaf:	1b0c      	movi.n	a11, 1
    3ab1:	000ce0        	excw
    3ab4:	04b8      	l32i.n	a11, a4, 0
    3ab6:	262b22        	l32i	a2, a11, 152
    3ab9:	5f          	.byte 0x5f
    3aba:	1c8105        	call0	0x202cc
    3abd:	742b51        	l32r	a5, 0xfffe0b6c
    3ac0:	746421        	l32r	a2, 0xfffe0c50
    3ac3:	000582        	l8ui	a8, a5, 0
    3ac6:	030c      	movi.n	a3, 0
    3ac8:	1718a6        	blti	a8, 1, 0x3ae3
    3acb:	746d41        	l32r	a4, 0xfffe0c80
    3ace:	02a8      	l32i.n	a10, a2, 0
    3ad0:	3b0c      	movi.n	a11, 3
    3ad2:	1488      	l32i.n	a8, a4, 4
    3ad4:	2c1c      	movi.n	a12, 18
    3ad6:	0008e0        	excw
    3ad9:	224b      	addi.n	a2, a2, 4
    3adb:	000592        	l8ui	a9, a5, 0
    3ade:	331b      	addi.n	a3, a3, 1
    3ae0:	ea2397        	blt	a3, a9, 0x3ace
    3ae3:	5f          	.byte 0x5f
    3ae4:	10bb07        	bgeu	a11, a0, 0x3af8
    3ae7:	c87465        	excw
    3aea:	8809      	s32i.n	a0, a8, 32
    3aec:	6c3291        	l32r	a9, 0xfffdebb4
    3aef:	b828      	l32i.n	a2, a8, 44
    3af1:	2209      	s32i.n	a0, a2, 8
    3af3:	276c      	movi.n	a7, -30
    3af5:	2a6b52        	s32i	a5, a11, 168
    3af8:	09a8      	l32i.n	a10, a9, 0
    3afa:	296b42        	s32i	a4, a11, 164
    3afd:	2b6a62        	s32i	a6, a10, 172
    3b00:	2c6a72        	s32i	a7, a10, 176
    3b03:	0998      	l32i.n	a9, a9, 0
    3b05:	81a8      	l32i.n	a10, a1, 32
    3b07:	2e6982        	s32i	a8, a9, 184
    3b0a:	2d69a2        	s32i	a10, a9, 180
    3b0d:	5f          	.byte 0x5f
    3b0e:	215805        	call0	0x25090
    3b11:	287465        	excw
    3b14:	222202        	l32i	a0, a2, 136
    3b17:	2f          	.byte 0x2f
    3b18:	5f          	.byte 0x5f
    3b19:	9008      	l32i.n	a0, a0, 36
    3b1b:	516c      	movi.n	a1, -27
    3b1d:	587465        	excw
    3b20:	253205        	call0	0x28e44
    3b23:	2f          	.byte 0x2f
    3b24:	07b237        	bgeu	a2, a3, 0x3b2f
    3b27:	a02250        	addx4	a2, a2, a5
    3b2a:	302222        	l32i	a2, a2, 192
    3b2d:	5f          	.byte 0x5f
    3b2e:	ce09      	s32i.n	a0, a14, 48
    3b30:	4178      	l32i.n	a7, a1, 16
    3b32:	222200        	excw
    3b35:	1e          	.byte 0x1e
    3b36:	030222        	l8ui	a2, a2, 3
    3b39:	042020        	extui	a2, a2, 0, 1
    3b3c:	5f          	.byte 0x5f
    3b3d:	611007        	beq	a0, a0, 0x3ba2
    3b40:	742b      	addi.n	a7, a4, 2
    3b42:	746441        	l32r	a4, 0xfffe0cd4
    3b45:	000662        	l8ui	a6, a6, 0
    3b48:	050c      	movi.n	a5, 0
    3b4a:	66ac      	beqz.n	a6, 0x3b74
    3b4c:	170c      	movi.n	a7, 1
    3b4e:	00a022        	movi	a2, 0
    3b51:	1d9676        	excw
    3b54:	0468      	l32i.n	a6, a4, 0
    3b56:	030682        	l8ui	a8, a6, 3
    3b59:	444b      	addi.n	a4, a4, 4
    3b5b:	113866        	bnei	a8, 3, 0x3b70
    3b5e:	1e2692        	l32i	a9, a6, 120
    3b61:	401500        	ssl	a5
    3b64:	030992        	l8ui	a9, a9, 3
    3b67:	a1a700        	sll	a10, a7
    3b6a:	026907        	bbci	a9, 0, 0x3b70
    3b6d:	2022a0        	or	a2, a2, a10
    3b70:	551b      	addi.n	a5, a5, 1
    3b72:	5f          	.byte 0x5f
    3b73:	5f4e06        	j	0x1b8af
    3b76:	6808      	l32i.n	a0, a8, 24
    3b78:	260c      	movi.n	a6, 2
    3b7a:	750542        	l8ui	a4, a5, 117
    3b7d:	fda032        	movi	a3, 253
    3b80:	103430        	and	a3, a4, a3
    3b83:	204460        	or	a4, a4, a6
    3b86:	834320        	moveqz	a4, a3, a2
    3b89:	754542        	s8i	a4, a5, 117
    3b8c:	5f          	.byte 0x5f
    3b8d:	525c07        	bbc	a12, a0, 0x3be3
    3b90:	410002        	l8ui	a0, a0, 65
    3b93:	007465        	excw
    3b96:	484015        	excw
    3b99:	150c04        	excw
    3b9c:	382432        	l32i	a3, a4, 224
    3b9f:	a15500        	sll	a5, a5
    3ba2:	203350        	or	a3, a3, a5
    3ba5:	386432        	s32i	a3, a4, 224
    3ba8:	5f          	.byte 0x5f
    3ba9:	212007        	blt	a0, a0, 0x3bce
    3bac:	0c7400        	excw
    3baf:	880a      	add.n	a8, a8, a0
    3bb1:	a1b242        	excw
    3bb4:	08e020        	excw
    3bb7:	a0b200        	addx4	a11, a2, a0
    3bba:	519c      	beqz.n	a1, 0x3bd3
    3bbc:	742b      	addi.n	a7, a4, 2
    3bbe:	570c      	movi.n	a7, 5
    3bc0:	4288      	l32i.n	a8, a2, 16
    3bc2:	746531        	l32r	a3, 0xfffe0d58
    3bc5:	2d3c      	movi.n	a13, 50
    3bc7:	03a9      	s32i.n	a10, a3, 0
    3bc9:	185ad2        	s16i	a13, a10, 48
    3bcc:	195a72        	s16i	a7, a10, 50
    3bcf:	0005c2        	l8ui	a12, a5, 0
    3bd2:	0a0c      	movi.n	a10, 0
    3bd4:	c1bbc0        	mul16u	a11, a11, a12
    3bd7:	5f          	.byte 0x5f
    3bd8:	259b05        	call0	0x2958c
    3bdb:	03e8      	l32i.n	a14, a3, 0
    3bdd:	9ca0c2        	movi	a12, 156
    3be0:	156ea2        	s32i	a10, a14, 84
    3be3:	0005d2        	l8ui	a13, a5, 0
    3be6:	3e2282        	l32i	a8, a2, 248
    3be9:	5fccd0        	excw
    3bec:	0a1605        	call0	0xdd50
    3bef:	4288      	l32i.n	a8, a2, 16
    3bf1:	4b3c      	movi.n	a11, 52
    3bf3:	5f          	.byte 0x5f
    3bf4:	3c1f05        	call0	0x3fde8
    3bf7:	984c      	movi.n	a8, 73
    3bf9:	228203        	excw
    3bfc:	3e          	.byte 0x3e
    3bfd:	2669a2        	s32i	a10, a9, 152
    3c00:	0008e0        	excw
    3c03:	0005a2        	l8ui	a10, a5, 0
    3c06:	040c      	movi.n	a4, 0
    3c08:	da9c      	beqz.n	a10, 0x3c29
    3c0a:	5f6461        	l32r	a6, 0xfffdb99c
    3c0d:	0c6405        	call0	0x10250
    3c10:	e0cb      	addi.n	a14, a0, 12
    3c12:	0008      	l32i.n	a0, a0, 0
    3c14:	a08460        	addx4	a8, a4, a6
    3c17:	0888      	l32i.n	a8, a8, 0
    3c19:	441b      	addi.n	a4, a4, 1
    3c1b:	1e68a2        	s32i	a10, a8, 120
    3c1e:	000592        	l8ui	a9, a5, 0
    3c21:	744040        	extui	a4, a4, 0, 8
    3c24:	e33497        	bltu	a4, a9, 0x3c0b
    3c27:	702282        	l32i	a8, a2, 0x1c0
    3c2a:	03c8      	l32i.n	a12, a3, 0
    3c2c:	746d41        	l32r	a4, 0xfffe0de0
    3c2f:	0cad      	mov.n	a10, a12
    3c31:	24b8      	l32i.n	a11, a4, 8
    3c33:	5f          	.byte 0x5f
    3c34:	28c805        	call0	0x2c8b8
    3c37:	722282        	l32i	a8, a2, 0x1c8
    3c3a:	5f80b1        	l32r	a11, 0xfffdba3c
    3c3d:	488305        	call0	0x4c470
    3c40:	03c8c4        	excw
    3c43:	702282        	l32i	a8, a2, 0x1c0
    3c46:	18cca2        	addi	a10, a12, 24
    3c49:	5f          	.byte 0x5f
    3c4a:	0c5c04        	excw
    3c4d:	80a0b2        	movi	a11, 128
    3c50:	5f          	.byte 0x5f
    3c51:	701d04        	excw
    3c54:	aaba      	add.n	a10, a10, a11
    3c56:	5f81b1        	l32r	a11, 0xfffdba5c
    3c59:	5c8405        	call0	0x6049c
    3c5c:	c87482        	excw
    3c5f:	835103        	excw
    3c62:	228274        	excw
    3c65:	055f70        	extui	a5, a7, 31, 1
    3c68:	50cc      	bnez.n	a0, 0x3c71
    3c6a:	05ad      	mov.n	a10, a5
    3c6c:	5f          	.byte 0x5f
    3c6d:	3a09      	s32i.n	a0, a10, 12
    3c6f:	5f84b1        	l32r	a11, 0xfffdba80
    3c72:	751b04        	excw
    3c75:	5f          	.byte 0x5f
    3c76:	811b14        	excw
    3c79:	a87420        	excw
    3c7c:	288204        	excw
    3c7f:	1b0c13        	excw
    3c82:	5f          	.byte 0x5f
    3c83:	8c5504        	excw
    3c86:	6d0c      	movi.n	a13, 6
    3c88:	14b8      	l32i.n	a11, a4, 4
    3c8a:	741181        	l32r	a8, 0xfffe0cd0
    3c8d:	748541        	l32r	a4, 0xfffe0ea4
    3c90:	242882        	l32i	a8, a8, 144
    3c93:	04a8      	l32i.n	a10, a4, 0
    3c95:	0008e0        	excw
    3c98:	f97c      	movi.n	a9, -1
    3c9a:	7a0c      	movi.n	a10, 7
    3c9c:	1c0c      	movi.n	a12, 1
    3c9e:	03f8      	l32i.n	a15, a3, 0
    3ca0:	0b0c      	movi.n	a11, 0
    3ca2:	354fb2        	s8i	a11, a15, 53
    3ca5:	04e8      	l32i.n	a14, a4, 0
    3ca7:	03d8      	l32i.n	a13, a3, 0
    3ca9:	0b4d      	mov.n	a4, a11
    3cab:	416d72        	s32i	a7, a13, 0x104
    3cae:	162ee2        	l32i	a14, a14, 88
    3cb1:	fde9      	s32i.n	a14, a13, 60
    3cb3:	1f6db2        	s32i	a11, a13, 124
    3cb6:	106db2        	s32i	a11, a13, 64
    3cb9:	374dc2        	s8i	a12, a13, 55
    3cbc:	0baa76        	excw
    3cbf:	03a8      	l32i.n	a10, a3, 0
    3cc1:	841b      	addi.n	a8, a4, 1
    3cc3:	aa4a      	add.n	a10, a10, a4
    3cc5:	6b4a92        	s8i	a9, a10, 107
    3cc8:	744080        	extui	a4, a8, 0, 8
    3ccb:	7486a1        	l32r	a10, 0xfffe0ee4
    3cce:	055f92        	s16i	a9, a15, 10
    3cd1:	8f          	.byte 0x8f
    3cd2:	2269      	s32i.n	a6, a2, 8
    3cd4:	9f          	.byte 0x9f
    3cd5:	166cb2        	s32i	a11, a12, 88
    3cd8:	1e6c92        	s32i	a9, a12, 120
    3cdb:	0008e0        	excw
    3cde:	0328      	l32i.n	a2, a3, 0
    3ce0:	7468e1        	l32r	a14, 0xfffe0e80
    3ce3:	9d0c      	movi.n	a13, 9
    3ce5:	747a81        	l32r	a8, 0xfffe0ed0
    3ce8:	4f2c      	movi.n	a15, 36
    3cea:	08f9      	s32i.n	a15, a8, 0
    3cec:	0ed9      	s32i.n	a13, a14, 0
    3cee:	5f          	.byte 0x5f
    3cef:	548406        	j	0x18f03
    3cf2:	1e2252        	l32i	a5, a2, 120
    3cf5:	5f3326        	beqi	a3, 3, 0x3d58
    3cf8:	870c      	movi.n	a7, 8
    3cfa:	a0b244        	excw
    3cfd:	656180        	extui	a6, a8, 17, 7
    3d00:	003174        	excw
    3d03:	06a874        	excw
    3d06:	6e2382        	l32i	a8, a3, 0x1b8
    3d09:	aaba      	add.n	a10, a10, a11
    3d0b:	5f          	.byte 0x5f
    3d0c:	0c9405        	call0	0x10650
    3d0f:	6c0703        	excw
    3d12:	3e          	.byte 0x3e
    3d13:	746ca1        	l32r	a10, 0xfffe0ec4
    3d16:	0002b2        	l8ui	a11, a2, 0
    3d19:	a12382        	l32i	a8, a3, 0x284
    3d1c:	5fcd      	excw
    3d1e:	679205        	call0	0x6b640
    3d21:	1b0c02        	l8ui	a0, a12, 27
    3d24:	5f          	.byte 0x5f
    3d25:	1e9606        	j	0xb781
    3d28:	5f          	.byte 0x5f
    3d29:	49b705        	call0	0x4d89c
    3d2c:	5f          	.byte 0x5f
    3d2d:	1b9205        	call0	0x1f650
    3d30:	e48c      	beqz.n	a4, 0x3d42
    3d32:	020592        	l8ui	a9, a5, 2
    3d35:	99cc      	bnez.n	a9, 0x3d42
    3d37:	0698      	l32i.n	a9, a6, 0
    3d39:	132992        	l32i	a9, a9, 76
    3d3c:	2a1c      	movi.n	a10, 18
    3d3e:	098c      	beqz.n	a9, 0x3d42
    3d40:	19a9      	s32i.n	a10, a9, 4
    3d42:	5f          	.byte 0x5f
    3d43:	960d      	excw
    3d45:	5f3a      	add.n	a5, a15, a3
    3d47:	608305        	call0	0x64578
    3d4a:	9258      	l32i.n	a5, a2, 36
    3d4c:	b238      	l32i.n	a3, a2, 44
    3d4e:	1248      	l32i.n	a4, a2, 4
    3d50:	010282        	l8ui	a8, a2, 1
    3d53:	746561        	l32r	a6, 0xfffe0ee8
    3d56:	0c2866        	bnei	a8, 2, 0x3d66
    3d59:	06a8      	l32i.n	a10, a6, 0
    3d5b:	1f2a92        	l32i	a9, a10, 124
    3d5e:	eb7c      	movi.n	a11, -2
    3d60:	1099b0        	and	a9, a9, a11
    3d63:	1f6a92        	s32i	a9, a10, 124
    3d66:	0002c2        	l8ui	a12, a2, 0
    3d69:	22d8      	l32i.n	a13, a2, 8
    3d6b:	6c8c      	beqz.n	a12, 0x3d75
    3d6d:	1e0c      	movi.n	a14, 1
    3d6f:	93ded0        	movnez	a13, a14, a13
    3d72:	0042d2        	s8i	a13, a2, 0
    3d75:	746d81        	l32r	a8, 0xfffe0f2c
    3d78:	b888      	l32i.n	a8, a8, 44
    3d7a:	0008e0        	excw
    3d7d:	7487a1        	l32r	a10, 0xfffe0f9c
    3d80:	055fc2        	s16i	a12, a15, 10
    3d83:	b81fd5        	excw
    3d86:	288262        	excw
    3d89:	0bb2a1        	l32r	a10, 0xfffc6c54
    3d8c:	cc0000        	excw
    3d8f:	bb8011        	l32r	a1, 0xffff2b90
    3d92:	bbc001        	l32r	a0, 0xffff2c94
    3d95:	b4b020        	extui	a11, a2, 0, 12
    3d98:	03cd20        	excw
    3d9b:	0008e0        	excw
    3d9e:	06a8      	l32i.n	a10, a6, 0
    3da0:	292ac2        	l32i	a12, a10, 164
    3da3:	1c9c      	beqz.n	a12, 0x3db8
    3da5:	2a2aa2        	l32i	a10, a10, 168
    3da8:	1d0c      	movi.n	a13, 1
    3daa:	0102e2        	l8ui	a14, a2, 1
    3dad:	2b0c      	movi.n	a11, 2
    3daf:	fecee2        	addi	a14, a14, -2
    3db2:	83bde0        	moveqz	a11, a13, a14
    3db5:	000ce0        	excw
    3db8:	538c      	beqz.n	a3, 0x3dc1
    3dba:	04bd      	mov.n	a11, a4
    3dbc:	05ad      	mov.n	a10, a5
    3dbe:	5f03e0        	excw
    3dc1:	a809      	s32i.n	a0, a8, 40
    3dc3:	1608      	l32i.n	a0, a6, 4
    3dc5:	a105c2        	l8ui	a12, a5, 161
    3dc8:	7488      	l32i.n	a8, a4, 28
    3dca:	740081        	l32r	a8, 0xfffe0dcc
    3dcd:	0013b2        	l16ui	a11, a3, 0
    3dd0:	5f2882        	l32i	a8, a8, 0x17c
    3dd3:	4c8106        	j	0x16fdb
    3dd6:	746d81        	l32r	a8, 0xfffe0f8c
    3dd9:	03ad      	mov.n	a10, a3
    3ddb:	7888      	l32i.n	a8, a8, 28
    3ddd:	5f          	.byte 0x5f
    3dde:	03d905        	call0	0x7b70
    3de1:	170c      	movi.n	a7, 1
    3de3:	746561        	l32r	a6, 0xfffe0f78
    3de6:	caac      	beqz.n	a10, 0x3e16
    3de8:	5f          	.byte 0x5f
    3de9:	ae09      	s32i.n	a0, a14, 40
    3deb:	7e          	.byte 0x7e
    3dec:	517420        	excw
    3def:	7489      	s32i.n	a8, a4, 28
    3df1:	192882        	l32i	a8, a8, 100
    3df4:	0579      	s32i.n	a7, a5, 0
    3df6:	5f          	.byte 0x5f
    3df7:	118905        	call0	0x15688
    3dfa:	04bd      	mov.n	a11, a4
    3dfc:	03ad      	mov.n	a10, a3
    3dfe:	748a81        	l32r	a8, 0xfffe1028
    3e01:	5f          	.byte 0x5f
    3e02:	0c7405        	call0	0x10544
    3e05:	9209      	s32i.n	a0, a2, 36
    3e07:	374a      	add.n	a3, a7, a4
    3e09:	0599      	s32i.n	a9, a5, 0
    3e0b:	5f          	.byte 0x5f
    3e0c:	5fbe05        	call0	0x639f0
    3e0f:	528c      	beqz.n	a2, 0x3e18
    3e11:	06b8      	l32i.n	a11, a6, 0
    3e13:	344b72        	s8i	a7, a11, 52
    3e16:	f01d      	excw
    3e18:	5f          	.byte 0x5f
    3e19:	a908      	l32i.n	a0, a9, 40
    3e1b:	0c68      	l32i.n	a6, a12, 0
    3e1d:	2b4103        	excw
    3e20:	017d74        	excw
    3e23:	000442        	l8ui	a4, a4, 0
    3e26:	057c      	movi.n	a5, -16
    3e28:	1124e0        	slli	a2, a4, 2
    3e2b:	22fb      	addi.n	a2, a2, 15
    3e2d:	102250        	and	a2, a2, a5
    3e30:	c02120        	sub	a2, a1, a2
    3e33:	025d      	mov.n	a5, a2
    3e35:	4129      	s32i.n	a2, a1, 16
    3e37:	001210        	excw
    3e3a:	039476        	excw
    3e3d:	0539      	s32i.n	a3, a5, 0
    3e3f:	554b      	addi.n	a5, a5, 4
    3e41:	746531        	l32r	a3, 0xfffe0fd8
    3e44:	1a0c      	movi.n	a10, 1
    3e46:	0388      	l32i.n	a8, a3, 0
    3e48:	3789      	s32i.n	a8, a7, 12
    3e4a:	097416        	beqz	a4, 0x3ee5
    3e4d:	5749      	s32i.n	a4, a7, 20
    3e4f:	0d0c      	movi.n	a13, 0
    3e51:	ffa0c2        	movi	a12, 255
    3e54:	080c      	movi.n	a8, 0
    3e56:	0e0c      	movi.n	a14, 0
    3e58:	3728      	l32i.n	a2, a7, 12
    3e5a:	4b3c      	movi.n	a11, 52
    3e5c:	0f0c      	movi.n	a15, 0
    3e5e:	17f9      	s32i.n	a15, a7, 4
    3e60:	c1b4b0        	mul16u	a11, a4, a11
    3e63:	0f0c      	movi.n	a15, 0
    3e65:	152222        	l32i	a2, a2, 84
    3e68:	2729      	s32i.n	a2, a7, 8
    3e6a:	2738      	l32i.n	a3, a7, 8
    3e6c:	090c      	movi.n	a9, 0
    3e6e:	33da      	add.n	a3, a3, a13
    3e70:	036d      	mov.n	a6, a3
    3e72:	000322        	l8ui	a2, a3, 0
    3e75:	991b      	addi.n	a9, a9, 1
    3e77:	05a216        	beqz	a2, 0x3ed5
    3e7a:	6348      	l32i.n	a4, a3, 24
    3e7c:	000442        	l8ui	a4, a4, 0
    3e7f:	010622        	l8ui	a2, a6, 1
    3e82:	0314c7        	beq	a4, a12, 0x3e89
    3e85:	04cd      	mov.n	a12, a4
    3e87:	ff1b      	addi.n	a15, a15, 1
    3e89:	0d1266        	bnei	a2, 1, 0x3e9a
    3e8c:	6739      	s32i.n	a3, a7, 24
    3e8e:	1738      	l32i.n	a3, a7, 4
    3e90:	231b      	addi.n	a2, a3, 1
    3e92:	743020        	extui	a3, a2, 0, 8
    3e95:	1739      	s32i.n	a3, a7, 4
    3e97:	000e86        	j	0x3ed5
    3e9a:	4748      	l32i.n	a4, a7, 16
    3e9c:	191622        	l16ui	a2, a6, 50
    3e9f:	7658      	l32i.n	a5, a6, 28
    3ea1:	042320        	extui	a2, a2, 3, 1
    3ea4:	938a20        	movnez	a8, a10, a2
    3ea7:	0d9e76        	excw
    3eaa:	0438      	l32i.n	a3, a4, 0
    3eac:	444b      	addi.n	a4, a4, 4
    3eae:	049357        	bne	a3, a5, 0x3eb6
    3eb1:	130c      	movi.n	a3, 1
    3eb3:	0000c6        	j	0x3eba
    3eb6:	f03d      	nop.n
    3eb8:	030c      	movi.n	a3, 0
    3eba:	a3cc      	bnez.n	a3, 0x3ec8
    3ebc:	4728      	l32i.n	a2, a7, 16
    3ebe:	a02e20        	addx4	a2, a14, a2
    3ec1:	0259      	s32i.n	a5, a2, 0
    3ec3:	5f          	.byte 0x5f
    3ec4:	13a005        	call0	0x178c8
    3ec7:	3728      	l32i.n	a2, a7, 12
    3ec9:	f228      	l32i.n	a2, a2, 60
    3ecb:	748080        	extui	a8, a8, 0, 8
    3ece:	c02250        	sub	a2, a2, a5
    3ed1:	938a20        	movnez	a8, a10, a2
    3ed4:	3b6a      	add.n	a3, a11, a6
    3ed6:	036d      	mov.n	a6, a3
    3ed8:	953966        	bnei	a9, 3, 0x3e71
    3edb:	34cdd2        	addi	a13, a13, 52
    3ede:	879db7        	bne	a13, a11, 0x3e69
    3ee1:	0002c6        	j	0x3ef0
    3ee4:	080c      	movi.n	a8, 0
    3ee6:	0e0c      	movi.n	a14, 0
    3ee8:	0f0c      	movi.n	a15, 0
    3eea:	5749      	s32i.n	a4, a7, 20
    3eec:	090c      	movi.n	a9, 0
    3eee:	1799      	s32i.n	a9, a7, 4
    3ef0:	746531        	l32r	a3, 0xfffe1084
    3ef3:	746451        	l32r	a5, 0xfffe1084
    3ef6:	57b8      	l32i.n	a11, a7, 20
    3ef8:	660c      	movi.n	a6, 6
    3efa:	189b76        	excw
    3efd:	0548      	l32i.n	a4, a5, 0
    3eff:	0304c2        	l8ui	a12, a4, 3
    3f02:	0e3c66        	bnei	a12, 3, 0x3f14
    3f05:	1e24d2        	l32i	a13, a4, 120
    3f08:	030dd2        	l8ui	a13, a13, 3
    3f0b:	748080        	extui	a8, a8, 0, 8
    3f0e:	10dd60        	and	a13, a13, a6
    3f11:	938ad0        	movnez	a8, a10, a13
    3f14:	554b      	addi.n	a5, a5, 4
    3f16:	140c      	movi.n	a4, 1
    3f18:	012ef6        	bgeui	a14, 2, 0x3f1d
    3f1b:	040c      	movi.n	a4, 0
    3f1d:	3728      	l32i.n	a2, a7, 12
    3f1f:	724242        	s8i	a4, a2, 114
    3f22:	140c      	movi.n	a4, 1
    3f24:	0358      	l32i.n	a5, a3, 0
    3f26:	012ff6        	bgeui	a15, 2, 0x3f2b
    3f29:	040c      	movi.n	a4, 0
    3f2b:	734542        	s8i	a4, a5, 115
    3f2e:	03f8      	l32i.n	a15, a3, 0
    3f30:	1798      	l32i.n	a9, a7, 4
    3f32:	744f92        	s8i	a9, a15, 116
    3f35:	03c8      	l32i.n	a12, a3, 0
    3f37:	750cb2        	l8ui	a11, a12, 117
    3f3a:	fea0d2        	movi	a13, 254
    3f3d:	10dbd0        	and	a13, a11, a13
    3f40:	20bb80        	or	a11, a11, a8
    3f43:	83bd80        	moveqz	a11, a13, a8
    3f46:	754cb2        	s8i	a11, a12, 117
    3f49:	0338      	l32i.n	a3, a3, 0
    3f4b:	3739      	s32i.n	a3, a7, 12
    3f4d:	122332        	l32i	a3, a3, 72
    3f50:	a9ec      	bnez.n	a9, 0x3f7e
    3f52:	83ac      	beqz.n	a3, 0x3f7e
    3f54:	010322        	l8ui	a2, a3, 1
    3f57:	32ec      	bnez.n	a2, 0x3f7e
    3f59:	212ef6        	bgeui	a14, 2, 0x3f7e
    3f5c:	3788      	l32i.n	a8, a7, 12
    3f5e:	750882        	l8ui	a8, a8, 117
    3f61:	98dc      	bnez.n	a8, 0x3f7e
    3f63:	3798      	l32i.n	a9, a7, 12
    3f65:	747451        	l32r	a5, 0xfffe1138
    3f68:	7649a2        	s8i	a10, a9, 118
    3f6b:	142e26        	beqi	a14, 2, 0x3f83
    3f6e:	748ba1        	l32r	a10, 0xfffe119c
    3f71:	748c31        	l32r	a3, 0xfffe11a4
    3f74:	fdceb2        	addi	a11, a14, -3
    3f77:	833ab0        	moveqz	a3, a10, a11
    3f7a:	1539      	s32i.n	a3, a5, 4
    3f7c:	f01d      	excw
    3f7e:	0a0c      	movi.n	a10, 0
    3f80:	fff7c6        	j	0x3f63
    3f83:	748d31        	l32r	a3, 0xfffe11b8
    3f86:	5ffc06        	j	0x1bf7a
    3f89:	6cc905        	call0	0x70c1c
    3f8c:	260041        	l32r	a4, 0xfffcd78c
    3f8f:	260612        	l8ui	a1, a6, 38
    3f92:	055f92        	s16i	a9, a15, 10
    3f95:	5f37d7        	bltu	a7, a13, 0x3ff8
    3f98:	529505        	call0	0x568ec
    3f9b:	5f          	.byte 0x5f
    3f9c:	78c205        	call0	0x7cbc0
    3f9f:	748ea1        	l32r	a10, 0xfffe11d8
    3fa2:	740051        	l32r	a5, 0xfffe0fa4
    3fa5:	02bd      	mov.n	a11, a2
    3fa7:	a12582        	l32i	a8, a5, 0x284
    3faa:	5f          	.byte 0x5f
    3fab:	2b8405        	call0	0x2f7ec
    3fae:	746541        	l32r	a4, 0xfffe1144
    3fb1:	3b1326        	beqi	a3, 1, 0x3ff0
    3fb4:	04b8      	l32i.n	a11, a4, 0
    3fb6:	172ba2        	l32i	a10, a11, 92
    3fb9:	8a8c      	beqz.n	a10, 0x3fc5
    3fbb:	1b0c      	movi.n	a11, 1
    3fbd:	5f8f81        	l32r	a8, 0xfffdbdfc
    3fc0:	208b06        	j	0xc1f0
    3fc3:	6e2582        	l32i	a8, a5, 0x1b8
    3fc6:	5fcba2        	addi	a10, a11, 95
    3fc9:	568705        	call0	0x5a83c
    3fcc:	0c0b      	addi.n	a0, a12, -1
    3fce:	0c0c      	movi.n	a12, 0
    3fd0:	a80d      	excw
    3fd2:	258204        	excw
    3fd5:	a26d      	excw
    3fd7:	5fca      	add.n	a5, a15, a12
    3fd9:	121105        	call0	0x160ec
    3fdc:	f01d      	excw
    3fde:	320c      	movi.n	a2, 3
    3fe0:	04b8      	l32i.n	a11, a4, 0
    3fe2:	0c0c      	movi.n	a12, 0
    3fe4:	1ac9      	s32i.n	a12, a10, 4
    3fe6:	136ba2        	s32i	a10, a11, 76
    3fe9:	f01d      	excw
    3feb:	0a8226        	beqi	a2, 8, 0x3ff9
    3fee:	04d8      	l32i.n	a13, a4, 0
    3ff0:	262dd2        	l32i	a13, a13, 152
    3ff3:	010dd2        	l8ui	a13, a13, 1
    3ff6:	e02d66        	bnei	a13, 2, 0x3fda
    3ff9:	746d81        	l32r	a8, 0xfffe11b0
    3ffc:	a888      	l32i.n	a8, a8, 40
    3ffe:	5fad      	excw
    4000:	34cb05        	call0	0x38cb4
    4003:	299204        	excw
    4006:	099226        	beqi	a2, 10, 0x4013
    4009:	296601        	l32r	a0, 0xfffce5a4
    400c:	9c2502        	l32i	a0, a5, 0x270
    400f:	ff          	.byte 0xff
    4010:	fc9a56        	bnez	a10, 0x3fdd
    4013:	01a8      	l32i.n	a10, a1, 0
    4015:	8a9c      	beqz.n	a10, 0x4031
    4017:	6e2582        	l32i	a8, a5, 0x1b8
    401a:	5f          	.byte 0x5f
    401b:	448705        	call0	0x4888c
    401e:	04a8      	l32i.n	a10, a4, 0
    4020:	0b0c      	movi.n	a11, 0
    4022:	01c8      	l32i.n	a12, a1, 0
    4024:	6d2582        	l32i	a8, a5, 0x1b4
    4027:	5f          	.byte 0x5f
    4028:	759606        	j	0x21684
    402b:	095f22        	s16i	a2, a15, 18
    402e:	308a      	add.n	a3, a0, a8
    4030:	1c4226        	beqi	a2, 4, 0x4050
    4033:	0b1226        	beqi	a2, 1, 0x4042
    4036:	089226        	beqi	a2, 10, 0x4042
    4039:	b80c      	movi.n	a8, 11
    403b:	031287        	beq	a2, a8, 0x4042
    403e:	5f          	.byte 0x5f
    403f:	811904        	excw
    4042:	a17400        	sll	a7, a4
    4045:	827465        	excw
    4048:	6e28      	l32i.n	a2, a14, 24
    404a:	0aa8      	l32i.n	a10, a10, 0
    404c:	5f          	.byte 0x5f
    404d:	5f7f07        	bbci	a15, 16, 0x40b0
    4050:	148b05        	call0	0x18904
    4053:	c87465        	excw
    4056:	6d5106        	j	0x1f59e
    4059:	2c4274        	excw
    405c:	2c2213        	excw
    405f:	743812        	excw
    4062:	010492        	l8ui	a9, a4, 1
    4065:	3004b2        	l8ui	a11, a4, 48
    4068:	c9cc      	bnez.n	a9, 0x4078
    406a:	8588      	l32i.n	a8, a5, 32
    406c:	5f          	.byte 0x5f
    406d:	60a405        	call0	0x64ab0
    4070:	0abd      	mov.n	a11, a10
    4072:	06c8      	l32i.n	a12, a6, 0
    4074:	5f          	.byte 0x5f
    4075:	6c1304        	excw
    4078:	192611        	l32r	a1, 0xfffca510
    407b:	292613        	excw
    407e:	428c10        	excw
    4081:	010292        	l8ui	a9, a2, 1
    4084:	081926        	beqi	a9, 1, 0x4090
    4087:	7588      	l32i.n	a8, a5, 28
    4089:	5f          	.byte 0x5f
    408a:	d708      	l32i.n	a0, a7, 52
    408c:	1d4236        	excw
    408f:	720cf0        	excw
    4092:	5f          	.byte 0x5f
    4093:	414c06        	j	0x145c7
    4096:	c07490        	sub	a7, a4, a9
    4099:	0c0020        	excw
    409c:	030c05        	call0	0x7160
    409f:	742561        	l32r	a6, 0xfffe1134
    40a2:	982442        	l32i	a4, a4, 0x260
    40a5:	e8a382        	movi	a8, 0x3e8
    40a8:	828280        	mull	a8, a2, a8
    40ab:	742371        	l32r	a7, 0xfffe1138
    40ae:	448a      	add.n	a4, a4, a8
    40b0:	07a8      	l32i.n	a10, a7, 0
    40b2:	122a82        	l32i	a8, a10, 72
    40b5:	400300        	ssr	a3
    40b8:	b18080        	sra	a8, a8
    40bb:	386807        	bbci	a8, 0, 0x40f7
    40be:	812ab2        	l32i	a11, a10, 0x204
    40c1:	a5aa      	add.n	a10, a5, a10
    40c3:	132a92        	l32i	a9, a10, 76
    40c6:	2d19b7        	beq	a9, a11, 0x40f7
    40c9:	172a22        	l32i	a2, a10, 92
    40cc:	72ac      	beqz.n	a2, 0x40f7
    40ce:	42a8      	l32i.n	a10, a2, 16
    40d0:	1f2ac2        	l32i	a12, a10, 124
    40d3:	137ce7        	bbci	a12, 30, 0x40ea
    40d6:	172ad2        	l32i	a13, a10, 92
    40d9:	c0dd40        	sub	a13, a13, a4
    40dc:	121da6        	blti	a13, 1, 0x40f2
    40df:	d02682        	l32i	a8, a6, 0x340
    40e2:	5f          	.byte 0x5f
    40e3:	368605        	call0	0x3a944
    40e6:	0001c6        	j	0x40f1
    40e9:	5f          	.byte 0x5f
    40ea:	0b08      	l32i.n	a0, a11, 0
    40ec:	5228      	l32i.n	a2, a2, 20
    40ee:	fd6256        	bnez	a2, 0x40c8
    40f1:	20c552        	addi	a5, a5, 32
    40f4:	331b      	addi.n	a3, a3, 1
    40f6:	b09366        	bnei	a3, 10, 0x40aa
    40f9:	746691        	l32r	a9, 0xfffe1294
    40fc:	1949      	s32i.n	a4, a9, 4
    40fe:	5f          	.byte 0x5f
    40ff:	048f06        	j	0x533f
    4102:	5f          	.byte 0x5f
    4103:	0a8806        	j	0x6b27
    4106:	5fca      	add.n	a5, a15, a12
    4108:	8f09      	s32i.n	a0, a15, 32
    410a:	065f14        	excw
    410d:	5fda10        	excw
    4110:	611006        	j	0x1c554
    4113:	065f00        	excw
    4116:	8e          	.byte 0x8e
    4117:	8129      	s32i.n	a2, a1, 32
    4119:	4d7400        	excw
    411c:	820a      	add.n	a8, a2, a0
    411e:	9f28      	l32i.n	a2, a15, 36
    4120:	5f91a1        	l32r	a10, 0xfffdbf64
    4123:	6c8f05        	call0	0x70a14
    4126:	20c117        	bnall	a1, a1, 0x414a
    4129:	89f174        	excw
    412c:	659174        	excw
    412f:	014974        	excw
    4132:	09d8      	l32i.n	a13, a9, 0
    4134:	fcc3a2        	addi	a10, a3, -4
    4137:	122d62        	l32i	a6, a13, 72
    413a:	132d52        	l32i	a5, a13, 76
    413d:	110a16        	beqz	a10, 0x4251
    4140:	65a8      	l32i.n	a10, a5, 24
    4142:	6a8c      	beqz.n	a10, 0x414c
    4144:	2b0c      	movi.n	a11, 2
    4146:	5f          	.byte 0x5f
    4147:	3e8306        	j	0x13b57
    414a:	742bc1        	l32r	a12, 0xfffe11f8
    414d:	030c      	movi.n	a3, 0
    414f:	000ca2        	l8ui	a10, a12, 0
    4152:	746421        	l32r	a2, 0xfffe12e4
    4155:	06da16        	beqz	a10, 0x41c6
    4158:	0248      	l32i.n	a4, a2, 0
    415a:	0304d2        	l8ui	a13, a4, 3
    415d:	5e3d66        	bnei	a13, 3, 0x41bf
    4160:	04ad      	mov.n	a10, a4
    4162:	744181        	l32r	a8, 0xfffe1268
    4165:	055f92        	s16i	a9, a15, 10
    4168:	519d      	excw
    416a:	2199      	s32i.n	a9, a1, 8
    416c:	5f          	.byte 0x5f
    416d:	779f06        	j	0x21fed
    4170:	21c8      	l32i.n	a12, a1, 8
    4172:	0dd8      	l32i.n	a13, a13, 0
    4174:	0abd      	mov.n	a11, a10
    4176:	fda8      	l32i.n	a10, a13, 60
    4178:	001bb2        	l16ui	a11, a11, 0
    417b:	001aa2        	l16ui	a10, a10, 0
    417e:	7466f1        	l32r	a15, 0xfffe1318
    4181:	119ab7        	bne	a10, a11, 0x4196
    4184:	000492        	l8ui	a9, a4, 0
    4187:	041fe2        	l16ui	a14, a15, 8
    418a:	401900        	ssl	a9
    418d:	a18700        	sll	a8, a7
    4190:	20ee80        	or	a14, a14, a8
    4193:	005fe2        	s16i	a14, a15, 0
    4196:	0ca204        	excw
    4199:	ea2703        	excw
    419c:	ad19      	s32i.n	a1, a13, 40
    419e:	0b0c04        	excw
    41a1:	742081        	l32r	a8, 0xfffe1224
    41a4:	0c0c      	movi.n	a12, 0
    41a6:	2888      	l32i.n	a8, a8, 8
    41a8:	1d0c      	movi.n	a13, 1
    41aa:	5f          	.byte 0x5f
    41ab:	579c06        	j	0x1a01f
    41ae:	5f4b      	addi.n	a5, a15, 4
    41b0:	668906        	j	0x1dbd8
    41b3:	742bc1        	l32r	a12, 0xfffe1260
    41b6:	5f0ca2        	l8ui	a10, a12, 95
    41b9:	539c06        	j	0x1902d
    41bc:	919133        	excw
    41bf:	987465        	excw
    41c2:	9209      	s32i.n	a0, a2, 36
    41c4:	7209      	s32i.n	a0, a2, 28
    41c6:	898c      	beqz.n	a9, 0x41d2
    41c8:	742081        	l32r	a8, 0xfffe1248
    41cb:	a888      	l32i.n	a8, a8, 40
    41cd:	65a8      	l32i.n	a10, a5, 24
    41cf:	0008e0        	excw
    41d2:	747421        	l32r	a2, 0xfffe13a4
    41d5:	069c      	beqz.n	a6, 0x41e9
    41d7:	010692        	l8ui	a9, a6, 1
    41da:	7465c1        	l32r	a12, 0xfffe1370
    41dd:	591966        	bnei	a9, 1, 0x423a
    41e0:	0a0c      	movi.n	a10, 0
    41e2:	2238      	l32i.n	a3, a2, 8
    41e4:	aa3a      	add.n	a10, a10, a3
    41e6:	ffe8a5        	excw
    41e9:	740081        	l32r	a8, 0xfffe11ec
    41ec:	748331        	l32r	a3, 0xfffe13f8
    41ef:	6e2882        	l32i	a8, a8, 0x1b8
    41f2:	5f          	.byte 0x5f
    41f3:	128305        	call0	0x16a24
    41f6:	03ad      	mov.n	a10, a3
    41f8:	5f          	.byte 0x5f
    41f9:	0c9b06        	j	0x7469
    41fc:	008122        	excw
    41ff:	ccd074        	excw
    4202:	288282        	excw
    4205:	5f          	.byte 0x5f
    4206:	1a8407        	bany	a4, a0, 0x4224
    4209:	048642        	excw
    420c:	226600        	excw
    420f:	0d92f7        	bne	a2, a15, 0x4220
    4212:	191636        	excw
    4215:	ff          	.byte 0xff
    4216:	937350        	movnez	a7, a3, a5
    4219:	0a0c      	movi.n	a10, 0
    421b:	364da2        	s8i	a10, a13, 54
    421e:	072d      	mov.n	a2, a7
    4220:	0e4226        	beqi	a2, 4, 0x4232
    4223:	7489c1        	l32r	a12, 0xfffe1448
    4226:	7466d1        	l32r	a13, 0xfffe13c0
    4229:	0b0c      	movi.n	a11, 0
    422b:	1db9      	s32i.n	a11, a13, 4
    422d:	045db2        	s16i	a11, a13, 8
    4230:	0cb9      	s32i.n	a11, a12, 0
    4232:	f01d      	excw
    4234:	0cc8      	l32i.n	a12, a12, 0
    4236:	720ce2        	l8ui	a14, a12, 114
    4239:	5e9c      	beqz.n	a14, 0x4252
    423b:	191ca2        	l16ui	a10, a12, 50
    423e:	ffe686        	j	0x41dc
    4241:	530c      	movi.n	a3, 5
    4243:	c6a266        	bnei	a2, 12, 0x420d
    4246:	0fed      	mov.n	a14, a15
    4248:	0e79      	s32i.n	a7, a14, 0
    424a:	044556        	bnez	a5, 0x4292
    424d:	120c      	movi.n	a2, 1
    424f:	fff346        	j	0x4220
    4252:	262cf2        	l32i	a15, a12, 152
    4255:	010ff2        	l8ui	a15, a15, 1
    4258:	052f66        	bnei	a15, 2, 0x4261
    425b:	412ca2        	l32i	a10, a12, 0x104
    425e:	ffde86        	j	0x41dc
    4261:	191582        	l16ui	a8, a5, 50
    4264:	246847        	bbci	a8, 4, 0x428c
    4267:	162ca2        	l32i	a10, a12, 88
    426a:	022232        	l32i	a3, a2, 8
    426d:	015a16        	beqz	a10, 0x4286
    4270:	0021c2        	l32i	a12, a1, 0
    4273:	e8a3b2        	movi	a11, 0x3e8
    4276:	82d3b0        	mull	a13, a3, a11
    4279:	3aa8      	l32i.n	a10, a10, 12
    427b:	ccda      	add.n	a12, a12, a13
    427d:	c0aac0        	sub	a10, a10, a12
    4280:	0917a5        	excw
    4283:	ffd5c6        	j	0x41de
    4286:	181ca2        	l16ui	a10, a12, 48
    4289:	5fd446        	j	0x1c1de
    428c:	d20605        	call0	0xfffd62f0
    428f:	ff          	.byte 0xff
    4290:	05b616        	beqz	a6, 0x42ef
    4293:	0106e2        	l8ui	a14, a6, 1
    4296:	1d1e66        	bnei	a14, 1, 0x42b7
    4299:	66a8      	l32i.n	a10, a6, 24
    429b:	0b0c      	movi.n	a11, 0
    429d:	0c8d      	mov.n	a8, a12
    429f:	122882        	l32i	a8, a8, 72
    42a2:	5f          	.byte 0x5f
    42a3:	69b305        	call0	0x6ddd4
    42a6:	5f          	.byte 0x5f
    42a7:	718106        	j	0x208af
    42aa:	1329      	s32i.n	a2, a3, 4
    42ac:	833790        	moveqz	a3, a7, a9
    42af:	032d      	mov.n	a2, a3
    42b1:	ffd986        	j	0x421b
    42b4:	720da2        	l8ui	a10, a13, 114
    42b7:	6abc      	beqz.n	a10, 0x42f1
    42b9:	191db2        	l16ui	a11, a13, 50
    42bc:	000086        	j	0x42c2
    42bf:	181db2        	l16ui	a11, a13, 48
    42c2:	360dc2        	l8ui	a12, a13, 54
    42c5:	ecdc      	bnez.n	a12, 0x42e7
    42c7:	742081        	l32r	a8, 0xfffe1348
    42ca:	66a8      	l32i.n	a10, a6, 24
    42cc:	5f          	.byte 0x5f
    42cd:	3008      	l32i.n	a0, a0, 12
    42cf:	5f          	.byte 0x5f
    42d0:	229e05        	call0	0x26cb4
    42d3:	4d5a26        	beqi	a10, 5, 0x4324
    42d6:	132cd2        	l32i	a13, a12, 76
    42d9:	9373d0        	movnez	a7, a3, a13
    42dc:	072d      	mov.n	a2, a7
    42de:	ffccc6        	j	0x4215
    42e1:	420c      	movi.n	a2, 4
    42e3:	ffcb86        	j	0x4215
    42e6:	520c      	movi.n	a2, 5
    42e8:	ffca46        	j	0x4215
    42eb:	262de2        	l32i	a14, a13, 152
    42ee:	010ee2        	l8ui	a14, a14, 1
    42f1:	052e66        	bnei	a14, 2, 0x42fa
    42f4:	412db2        	l32i	a11, a13, 0x104
    42f7:	fff046        	j	0x42bc
    42fa:	1915f2        	l16ui	a15, a5, 50
    42fd:	b86f47        	bbci	a15, 4, 0x42b9
    4300:	162da2        	l32i	a10, a13, 88
    4303:	0161d2        	s32i	a13, a1, 4
    4306:	014a16        	beqz	a10, 0x431e
    4309:	0021c2        	l32i	a12, a1, 0
    430c:	3aa8      	l32i.n	a10, a10, 12
    430e:	e8a3b2        	movi	a11, 0x3e8
    4311:	c0aac0        	sub	a10, a10, a12
    4314:	090da5        	excw
    4317:	0abd      	mov.n	a11, a10
    4319:	11d8      	l32i.n	a13, a1, 4
    431b:	ffe746        	j	0x42bc
    431e:	181db2        	l16ui	a11, a13, 48
    4321:	ffe5c6        	j	0x42bc
    4324:	364c72        	s8i	a7, a12, 54
    4327:	420c      	movi.n	a2, 4
    4329:	5fba06        	j	0x1c215
    432c:	64d107        	bbs	a1, a0, 0x4394
    432f:	746561        	l32r	a6, 0xfffe14c4
    4332:	f9c382        	addi	a8, a3, -7
    4335:	0b8816        	beqz	a8, 0x43f1
    4338:	06b8      	l32i.n	a11, a6, 0
    433a:	820c      	movi.n	a2, 8
    433c:	132b92        	l32i	a9, a11, 76
    433f:	7441d1        	l32r	a13, 0xfffe1444
    4342:	0109c2        	l8ui	a12, a9, 1
    4345:	69a8      	l32i.n	a10, a9, 24
    4347:	09ec56        	bnez	a12, 0x43e9
    434a:	0199      	s32i.n	a9, a1, 0
    434c:	116366        	bnei	a3, 6, 0x4361
    434f:	152ae2        	l32i	a14, a10, 84
    4352:	020ee2        	l8ui	a14, a14, 2
    4355:	8e8c      	beqz.n	a14, 0x4361
    4357:	0d8d      	mov.n	a8, a13
    4359:	a888      	l32i.n	a8, a8, 40
    435b:	340bb2        	l8ui	a11, a11, 52
    435e:	0008e0        	excw
    4361:	742b91        	l32r	a9, 0xfffe1410
    4364:	0009a2        	l8ui	a10, a9, 0
    4367:	746451        	l32r	a5, 0xfffe14f8
    436a:	08ea16        	beqz	a10, 0x43fc
    436d:	030c      	movi.n	a3, 0
    436f:	020c      	movi.n	a2, 0
    4371:	0c0c      	movi.n	a12, 0
    4373:	11c9      	s32i.n	a12, a1, 4
    4375:	a04250        	addx4	a4, a2, a5
    4378:	0448      	l32i.n	a4, a4, 0
    437a:	0304d2        	l8ui	a13, a4, 3
    437d:	1e2472        	l32i	a7, a4, 120
    4380:	5a3d66        	bnei	a13, 3, 0x43de
    4383:	5f          	.byte 0x5f
    4384:	54a806        	j	0x19628
    4387:	5f          	.byte 0x5f
    4388:	52a005        	call0	0x56d8c
    438b:	06b8      	l32i.n	a11, a6, 0
    438d:	fb98      	l32i.n	a9, a11, 60
    438f:	5f          	.byte 0x5f
    4390:	a808      	l32i.n	a0, a8, 40
    4392:	5f3c56        	bnez	a12, 0x4989
    4395:	3ba005        	call0	0x3fd98
    4398:	690702        	l8ui	a0, a7, 105
    439b:	331b33        	excw
    439e:	2c0c      	movi.n	a12, 2
    43a0:	0d0c      	movi.n	a13, 0
    43a2:	6e0c      	movi.n	a14, 6
    43a4:	1198      	l32i.n	a9, a1, 4
    43a6:	741181        	l32r	a8, 0xfffe13ec
    43a9:	a9ba      	add.n	a10, a9, a11
    43ab:	1a2882        	l32i	a8, a8, 104
    43ae:	0b0c      	movi.n	a11, 0
    43b0:	994b      	addi.n	a9, a9, 4
    43b2:	306a42        	s32i	a4, a10, 192
    43b5:	1199      	s32i.n	a9, a1, 4
    43b7:	5f          	.byte 0x5f
    43b8:	a108      	l32i.n	a0, a1, 40
    43ba:	5f08      	l32i.n	a0, a15, 20
    43bc:	8e08      	l32i.n	a0, a14, 32
    43be:	0c0421        	l32r	a2, 0xfffc73d0
    43c1:	5f2b      	addi.n	a5, a15, 2
    43c3:	5f0a06        	j	0x1bfef
    43c6:	0ea106        	j	0x7e4e
    43c9:	5f          	.byte 0x5f
    43ca:	27a805        	call0	0x2be4c
    43cd:	8e32a7        	bltu	a2, a10, 0x435f
    43d0:	000506        	j	0x43e8
    43d3:	306ba2        	s32i	a10, a11, 192
    43d6:	030c      	movi.n	a3, 0
    43d8:	0000c6        	j	0x43df
    43db:	720c      	movi.n	a2, 7
    43dd:	030c      	movi.n	a3, 0
    43df:	0688      	l32i.n	a8, a6, 0
    43e1:	2f6832        	s32i	a3, a8, 188
    43e4:	f01d      	excw
    43e6:	030c      	movi.n	a3, 0
    43e8:	7420c1        	l32r	a12, 0xfffe1468
    43eb:	058a16        	beqz	a10, 0x4447
    43ee:	020c      	movi.n	a2, 0
    43f0:	5f          	.byte 0x5f
    43f1:	118105        	call0	0x15c04
    43f4:	065f92        	s16i	a9, a15, 12
    43f7:	391181        	l32r	a8, 0xfffd283c
    43fa:	0b5f40        	excw
    43fd:	981181        	l32r	a8, 0xfffea444
    4400:	0a5f06        	j	0x6d80
    4403:	67a9      	s32i.n	a10, a7, 24
    4405:	1f          	.byte 0x1f
    4406:	0307a2        	l8ui	a10, a7, 3
    4409:	5f6a27        	bbci	a10, 2, 0x446c
    440c:	850b      	addi.n	a8, a5, -1
    440e:	2f          	.byte 0x2f
    440f:	5f38      	l32i.n	a3, a15, 20
    4411:	850a      	add.n	a8, a5, a0
    4413:	2f          	.byte 0x2f
    4414:	5f          	.byte 0x5f
    4415:	7408      	l32i.n	a0, a4, 28
    4417:	5f20c1        	l32r	a12, 0xfffdc098
    441a:	770b      	addi.n	a7, a7, -1
    441c:	b8a8      	l32i.n	a10, a8, 44
    441e:	2b8206        	j	0xf22a
    4421:	120c13        	excw
    4424:	18cc      	bnez.n	a8, 0x4429
    4426:	000306        	j	0x4436
    4429:	01a8      	l32i.n	a10, a1, 0
    442b:	ac88      	l32i.n	a8, a12, 40
    442d:	6aa8      	l32i.n	a10, a10, 24
    442f:	5f          	.byte 0x5f
    4430:	648105        	call0	0x68c44
    4433:	820c      	movi.n	a2, 8
    4435:	0c0c      	movi.n	a12, 0
    4437:	344bc2        	s8i	a12, a11, 52
    443a:	ffdd86        	j	0x43b4
    443d:	5f          	.byte 0x5f
    443e:	548205        	call0	0x58c60
    4441:	5f          	.byte 0x5f
    4442:	108706        	j	0x8662
    4445:	9f0c      	movi.n	a15, 9
    4447:	740071        	l32r	a7, 0xfffe1448
    444a:	0a4d      	mov.n	a4, a10
    444c:	746551        	l32r	a5, 0xfffe15e0
    444f:	f8c382        	addi	a8, a3, -8
    4452:	7492d1        	l32r	a13, 0xfffe169c
    4455:	830c      	movi.n	a3, 8
    4457:	6d4b      	addi.n	a6, a13, 4
    4459:	0eb816        	beqz	a8, 0x4548
    445c:	05a8      	l32i.n	a10, a5, 0
    445e:	132a32        	l32i	a3, a10, 76
    4461:	720aa2        	l8ui	a10, a10, 114
    4464:	5328      	l32i.n	a2, a3, 20
    4466:	a3e8      	l32i.n	a14, a3, 40
    4468:	93b8      	l32i.n	a11, a3, 36
    446a:	11b9      	s32i.n	a11, a1, 4
    446c:	21e9      	s32i.n	a14, a1, 8
    446e:	63b8      	l32i.n	a11, a3, 24
    4470:	ea8c      	beqz.n	a10, 0x4482
    4472:	43e8      	l32i.n	a14, a3, 16
    4474:	c0e4e0        	sub	a14, a4, a14
    4477:	05be27        	bgeu	a14, a2, 0x4480
    447a:	c022e0        	sub	a2, a2, a14
    447d:	000046        	j	0x4482
    4480:	120c      	movi.n	a2, 1
    4482:	4bcc      	bnez.n	a11, 0x448a
    4484:	ffa0e2        	movi	a14, 255
    4487:	000086        	j	0x448d
    448a:	000be2        	l8ui	a14, a11, 0
    448d:	7493a1        	l32r	a10, 0xfffe16dc
    4490:	a12782        	l32i	a8, a7, 0x284
    4493:	0203c2        	l8ui	a12, a3, 2
    4496:	0103b2        	l8ui	a11, a3, 1
    4499:	5f          	.byte 0x5f
    449a:	3e8f05        	call0	0x42d8c
    449d:	bbc011        	l32r	a1, 0xffff33a0
    44a0:	beb020        	excw
    44a3:	02cd20        	excw
    44a6:	0008e0        	excw
    44a9:	83d8      	l32i.n	a13, a3, 32
    44ab:	53e8      	l32i.n	a14, a3, 20
    44ad:	0dcc      	bnez.n	a13, 0x44b1
    44af:	4ebc      	beqz.n	a14, 0x44e7
    44b1:	6e2782        	l32i	a8, a7, 0x1b8
    44b4:	05a8      	l32i.n	a10, a5, 0
    44b6:	0008e0        	excw
    44b9:	7494a1        	l32r	a10, 0xfffe170c
    44bc:	43b8      	l32i.n	a11, a3, 16
    44be:	5f2782        	l32i	a8, a7, 0x17c
    44c1:	1c8f06        	j	0xb701
    44c4:	05a8      	l32i.n	a10, a5, 0
    44c6:	0b0c      	movi.n	a11, 0
    44c8:	747491        	l32r	a9, 0xfffe1698
    44cb:	0d0c      	movi.n	a13, 0
    44cd:	2998      	l32i.n	a9, a9, 8
    44cf:	e8a3c2        	movi	a12, 0x3e8
    44d2:	8299c0        	mull	a9, a9, a12
    44d5:	6d2782        	l32i	a8, a7, 0x1b4
    44d8:	c09290        	sub	a9, a2, a9
    44db:	020c      	movi.n	a2, 0
    44dd:	b32990        	movgez	a2, a9, a9
    44e0:	5f          	.byte 0x5f
    44e1:	0c3e05        	call0	0x108c4
    44e4:	2a0a      	add.n	a2, a10, a0
    44e6:	05d8b4        	excw
    44e9:	749271        	l32r	a7, 0xfffe1734
    44ec:	1e0c      	movi.n	a14, 1
    44ee:	06e9      	s32i.n	a14, a6, 0
    44f0:	07e9      	s32i.n	a14, a7, 0
    44f2:	196d42        	s32i	a4, a13, 100
    44f5:	186db2        	s32i	a11, a13, 96
    44f8:	136da2        	s32i	a10, a13, 76
    44fb:	126d32        	s32i	a3, a13, 72
    44fe:	292dc2        	l32i	a12, a13, 164
    4501:	13a9      	s32i.n	a10, a3, 4
    4503:	fc8c      	beqz.n	a12, 0x4516
    4505:	2a2da2        	l32i	a10, a13, 168
    4508:	0103f2        	l8ui	a15, a3, 1
    450b:	2b0c      	movi.n	a11, 2
    450d:	5f          	.byte 0x5f
    450e:	22a207        	bge	a2, a0, 0x4534
    4511:	000c      	movi.n	a0, 0
    4513:	2188      	l32i.n	a8, a1, 8
    4515:	588c      	beqz.n	a8, 0x451e
    4517:	11a8      	l32i.n	a10, a1, 4
    4519:	5f          	.byte 0x5f
    451a:	69d105        	call0	0x6e22c
    451d:	05a8      	l32i.n	a10, a5, 0
    451f:	172aa2        	l32i	a10, a10, 92
    4522:	6a8c      	beqz.n	a10, 0x452c
    4524:	5f          	.byte 0x5f
    4525:	8c08      	l32i.n	a0, a12, 32
    4527:	0c09      	s32i.n	a0, a12, 0
    4529:	0c9b      	addi.n	a0, a12, 9
    452b:	0c0c83        	excw
    452e:	07d8      	l32i.n	a13, a7, 0
    4530:	07c9      	s32i.n	a12, a7, 0
    4532:	833bd0        	moveqz	a3, a11, a13
    4535:	5fc9      	s32i.n	a12, a15, 20
    4537:	6ee005        	call0	0x73338
    453a:	3a4226        	beqi	a2, 4, 0x4578
    453d:	3712f7        	beq	a2, a15, 0x4578
    4540:	347226        	beqi	a2, 7, 0x4578
    4543:	319226        	beqi	a2, 10, 0x4578
    4546:	be0c      	movi.n	a14, 11
    4548:	2c12e7        	beq	a2, a14, 0x4578
    454b:	e71266        	bnei	a2, 1, 0x4536
    454e:	05d8      	l32i.n	a13, a5, 0
    4550:	142de2        	l32i	a14, a13, 80
    4553:	fdfe16        	beqz	a14, 0x4536
    4556:	122da2        	l32i	a10, a13, 72
    4559:	020e82        	l8ui	a8, a14, 2
    455c:	020af2        	l8ui	a15, a10, 2
    455f:	d3bf87        	bgeu	a15, a8, 0x4536
    4562:	182db2        	l32i	a11, a13, 96
    4565:	3e98      	l32i.n	a9, a14, 12
    4567:	c0b9b0        	sub	a11, a9, a11
    456a:	fc8bd6        	bgez	a11, 0x4536
    456d:	c0b940        	sub	a11, a9, a4
    4570:	3e1be6        	bgei	a11, 1, 0x45b2
    4573:	0b0c      	movi.n	a11, 0
    4575:	000e46        	j	0x45b2
    4578:	0de8      	l32i.n	a14, a13, 0
    457a:	2edc      	bnez.n	a14, 0x4590
    457c:	06f8      	l32i.n	a15, a6, 0
    457e:	930c      	movi.n	a3, 9
    4580:	7fac      	beqz.n	a15, 0x45ab
    4582:	5f          	.byte 0x5f
    4583:	920b      	addi.n	a9, a2, -1
    4585:	068663        	excw
    4588:	01b800        	slli	a11, a8, 32
    458b:	4bcc      	bnez.n	a11, 0x4593
    458d:	055fb2        	s16i	a11, a15, 10
    4590:	b21e82        	l16ui	a8, a14, 0x164
    4593:	000b      	addi.n	a0, a0, -1
    4595:	7494a1        	l32r	a10, 0xfffe17e8
    4598:	a12782        	l32i	a8, a7, 0x284
    459b:	5f          	.byte 0x5f
    459c:	07ba05        	call0	0xc140
    459f:	7492d1        	l32r	a13, 0xfffe17e8
    45a2:	0c0c      	movi.n	a12, 0
    45a4:	0d6d      	mov.n	a6, a13
    45a6:	ffe046        	j	0x452b
    45a9:	5ac8      	l32i.n	a12, a10, 20
    45ab:	746d81        	l32r	a8, 0xfffe1760
    45ae:	192dd2        	l32i	a13, a13, 100
    45b1:	1a2882        	l32i	a8, a8, 104
    45b4:	c0d4d0        	sub	a13, a4, a13
    45b7:	5f          	.byte 0x5f
    45b8:	7d9005        	call0	0x81ebc
    45bb:	5f          	.byte 0x5f
    45bc:	218205        	call0	0x25de0
    45bf:	942a      	add.n	a9, a4, a2
    45c1:	186a92        	s32i	a9, a10, 96
    45c4:	5f          	.byte 0x5f
    45c5:	198207        	bany	a2, a0, 0x45e2
    45c8:	0d0c      	movi.n	a13, 0
    45ca:	747491        	l32r	a9, 0xfffe179c
    45cd:	6d2782        	l32i	a8, a7, 0x1b4
    45d0:	5f          	.byte 0x5f
    45d1:	8208      	l32i.n	a0, a2, 32
    45d3:	0c1c      	movi.n	a12, 16
    45d5:	900c      	movi.n	a0, 9
    45d7:	90c092        	addi	a9, a0, -112
    45da:	b3c9      	s32i.n	a12, a3, 44
    45dc:	0008e0        	excw
    45df:	5fd046        	j	0x1c524
    45e2:	488306        	j	0x167f2
    45e5:	029d      	mov.n	a9, a2
    45e7:	7495a1        	l32r	a10, 0xfffe183c
    45ea:	052d      	mov.n	a2, a5
    45ec:	5f34b6        	bltui	a4, 3, 0x464f
    45ef:	930c      	movi.n	a3, 9
    45f1:	c2cc64        	excw
    45f4:	01dab2        	addmi	a11, a10, 0x100
    45f7:	31cbb2        	addi	a11, a11, 49
    45fa:	5f          	.byte 0x5f
    45fb:	bf08      	l32i.n	a0, a15, 44
    45fd:	3c3c      	movi.n	a12, 51
    45ff:	824a      	add.n	a8, a2, a4
    4601:	0009      	s32i.n	a0, a0, 0
    4603:	742bc1        	l32r	a12, 0xfffe16b0
    4606:	7465b1        	l32r	a11, 0xfffe179c
    4609:	000cc2        	l8ui	a12, a12, 0
    460c:	0b58      	l32i.n	a5, a11, 0
    460e:	82c4c0        	mull	a12, a4, a12
    4611:	152552        	l32i	a5, a5, 84
    4614:	88ca      	add.n	a8, a8, a12
    4616:	8288a0        	mull	a8, a8, a10
    4619:	0d0c      	movi.n	a13, 0
    461b:	558a      	add.n	a5, a5, a8
    461d:	0005c2        	l8ui	a12, a5, 0
    4620:	7400a1        	l32r	a10, 0xfffe1620
    4623:	fc8c      	beqz.n	a12, 0x4636
    4625:	04bd      	mov.n	a11, a4
    4627:	a5c8      	l32i.n	a12, a5, 40
    4629:	a12a82        	l32i	a8, a10, 0x284
    462c:	5f96a1        	l32r	a10, 0xfffdc484
    462f:	2b8205        	call0	0x2fe50
    4632:	f01dd2        	l16ui	a13, a13, 0x1e0
    4635:	0199      	s32i.n	a9, a1, 0
    4637:	0345d2        	s8i	a13, a5, 3
    463a:	1c0c      	movi.n	a12, 1
    463c:	0045c2        	s8i	a12, a5, 0
    463f:	031426        	beqi	a4, 1, 0x4646
    4642:	0dcd      	mov.n	a12, a13
    4644:	0199      	s32i.n	a9, a1, 0
    4646:	2569      	s32i.n	a6, a5, 8
    4648:	45d9      	s32i.n	a13, a5, 16
    464a:	3579      	s32i.n	a7, a5, 12
    464c:	1cc5a2        	addi	a10, a5, 28
    464f:	03bd      	mov.n	a11, a3
    4651:	0145c2        	s8i	a12, a5, 1
    4654:	024522        	s8i	a2, a5, 2
    4657:	0198      	l32i.n	a9, a1, 0
    4659:	740081        	l32r	a8, 0xfffe165c
    465c:	6599      	s32i.n	a9, a5, 24
    465e:	3f2882        	l32i	a8, a8, 252
    4661:	5f          	.byte 0x5f
    4662:	75d605        	call0	0x7a3c4
    4665:	7465a1        	l32r	a10, 0xfffe17fc
    4668:	314542        	s8i	a4, a5, 49
    466b:	13c8      	l32i.n	a12, a3, 4
    466d:	0aa8      	l32i.n	a10, a10, 0
    466f:	3c9c      	beqz.n	a12, 0x4686
    4671:	1e2ab2        	l32i	a11, a10, 120
    4674:	0ebcb7        	bgeu	a12, a11, 0x4686
    4677:	85c8      	l32i.n	a12, a5, 32
    4679:	ccba      	add.n	a12, a12, a11
    467b:	85c9      	s32i.n	a12, a5, 32
    467d:	578c      	beqz.n	a7, 0x4686
    467f:	35d8      	l32i.n	a13, a5, 12
    4681:	c0ddb0        	sub	a13, a13, a11
    4684:	35d9      	s32i.n	a13, a5, 12
    4686:	746d31        	l32r	a3, 0xfffe183c
    4689:	b388      	l32i.n	a8, a3, 44
    468b:	146a52        	s32i	a5, a10, 80
    468e:	0008e0        	excw
    4691:	740051        	l32r	a5, 0xfffe1694
    4694:	0168      	l32i.n	a6, a1, 0
    4696:	172382        	l32i	a8, a3, 92
    4699:	1a0c      	movi.n	a10, 1
    469b:	5f          	.byte 0x5f
    469c:	01e705        	call0	0x6510
    469f:	7497a1        	l32r	a10, 0xfffe18fc
    46a2:	a12582        	l32i	a8, a5, 0x284
    46a5:	0006c2        	l8ui	a12, a6, 0
    46a8:	11e480        	slli	a14, a4, 8
    46ab:	11d200        	slli	a13, a2, 16
    46ae:	5f          	.byte 0x5f
    46af:	a209      	s32i.n	a0, a2, 40
    46b1:	5f1d      	excw
    46b3:	488e07        	bany	a14, a0, 0x46ff
    46b6:	1e2292        	l32i	a9, a2, 120
    46b9:	000982        	l8ui	a8, a9, 0
    46bc:	0109a2        	l8ui	a10, a9, 1
    46bf:	0c6807        	bbci	a8, 0, 0x46cf
    46c2:	095af6        	bgeui	a10, 5, 0x46cf
    46c5:	744d81        	l32r	a8, 0xfffe17fc
    46c8:	8888      	l32i.n	a8, a8, 32
    46ca:	5f          	.byte 0x5f
    46cb:	bc0c      	movi.n	a12, 11
    46cd:	8d2c      	movi.n	a13, 40
    46cf:	b45702        	s16i	a0, a7, 0x168
    46d2:	020c04        	excw
    46d5:	000086        	j	0x46db
    46d8:	c02450        	sub	a2, a4, a5
    46db:	16b327        	bgeu	a3, a2, 0x46f5
    46de:	749861        	l32r	a6, 0xfffe1940
    46e1:	310842        	l8ui	a4, a8, 49
    46e4:	032d      	mov.n	a2, a3
    46e6:	a04460        	addx4	a4, a4, a6
    46e9:	0448      	l32i.n	a4, a4, 0
    46eb:	735a      	add.n	a7, a3, a5
    46ed:	448c      	beqz.n	a4, 0x46f5
    46ef:	02b747        	bgeu	a7, a4, 0x46f5
    46f2:	c02450        	sub	a2, a4, a5
    46f5:	5f          	.byte 0x5f
    46f6:	60ab06        	j	0x1c9a6
    46f9:	d11e22        	l16ui	a2, a14, 0x1a2
    46fc:	a27465        	excw
    46ff:	c20004        	excw
    4702:	a0fea0        	addx4	a15, a14, a10
    4705:	874181        	l32r	a8, 0xfffe640c
    4708:	a06193        	excw
    470b:	0c04b0        	excw
    470e:	04a203        	excw
    4711:	243901        	l32r	a0, 0xfffcd7f8
    4714:	10bbc0        	and	a11, a11, a12
    4717:	0044b2        	s8i	a11, a4, 0
    471a:	0db8      	l32i.n	a11, a13, 0
    471c:	1439      	s32i.n	a3, a4, 4
    471e:	0002c2        	l8ui	a12, a2, 0
    4721:	aaba      	add.n	a10, a10, a11
    4723:	6b0a92        	l8ui	a9, a10, 107
    4726:	fe7c      	movi.n	a14, -1
    4728:	0799c7        	bne	a9, a12, 0x4733
    472b:	6b4ae2        	s8i	a14, a10, 107
    472e:	0002c2        	l8ui	a12, a2, 0
    4731:	0db8      	l32i.n	a11, a13, 0
    4733:	7499a1        	l32r	a10, 0xfffe1998
    4736:	740081        	l32r	a8, 0xfffe1738
    4739:	4d3c      	movi.n	a13, 52
    473b:	742b91        	l32r	a9, 0xfffe17e8
    473e:	152b22        	l32i	a2, a11, 84
    4741:	000992        	l8ui	a9, a9, 0
    4744:	749ae1        	l32r	a14, 0xfffe19ac
    4747:	15eee0        	extui	a14, a14, 30, 2
    474a:	01ee20        	slli	a14, a14, 30
    474d:	11b0e0        	slli	a11, a0, 2
    4750:	41b2b0        	srli	a11, a11, 2
    4753:	20bbe0        	or	a11, a11, a14
    4756:	99ca      	add.n	a9, a9, a12
    4758:	8299d0        	mull	a9, a9, a13
    475b:	a12882        	l32i	a8, a8, 0x284
    475e:	229a      	add.n	a2, a2, a9
    4760:	5f          	.byte 0x5f
    4761:	07e506        	j	0x66f9
    4764:	004232        	s8i	a3, a2, 0
    4767:	014432        	s8i	a3, a4, 1
    476a:	5f          	.byte 0x5f
    476b:	9508      	l32i.n	a0, a5, 36
    476d:	9df120        	excw
    4770:	a1a174        	excw
    4773:	a29174        	excw
    4776:	a38174        	excw
    4779:	9b3174        	excw
    477c:	9ee174        	excw
    477f:	9fd174        	excw
    4782:	a0b174        	excw
    4785:	6dc174        	excw
    4788:	9c2174        	excw
    478b:	6c2274        	excw
    478e:	bcb912        	excw
    4791:	9cd9      	s32i.n	a13, a12, 36
    4793:	4ce9      	s32i.n	a14, a12, 16
    4795:	ac39      	s32i.n	a3, a12, 40
    4797:	74a431        	l32r	a3, 0xfffe1a28
    479a:	1cf9      	s32i.n	a15, a12, 4
    479c:	74a521        	l32r	a2, 0xfffe1a30
    479f:	dca9      	s32i.n	a10, a12, 52
    47a1:	106c32        	s32i	a3, a12, 64
    47a4:	ec99      	s32i.n	a9, a12, 56
    47a6:	fc89      	s32i.n	a8, a12, 60
    47a8:	74a9b1        	l32r	a11, 0xfffe1a4c
    47ab:	74a8d1        	l32r	a13, 0xfffe1a4c
    47ae:	74a7e1        	l32r	a14, 0xfffe1a4c
    47b1:	156ce2        	s32i	a14, a12, 84
    47b4:	3cd9      	s32i.n	a13, a12, 12
    47b6:	1a6cb2        	s32i	a11, a12, 104
    47b9:	74ac81        	l32r	a8, 0xfffe1a6c
    47bc:	74ab91        	l32r	a9, 0xfffe1a68
    47bf:	744d31        	l32r	a3, 0xfffe18f4
    47c2:	74aaa1        	l32r	a10, 0xfffe1a6c
    47c5:	116c22        	s32i	a2, a12, 68
    47c8:	74a6f1        	l32r	a15, 0xfffe1a60
    47cb:	146cf2        	s32i	a15, a12, 80
    47ce:	74ad21        	l32r	a2, 0xfffe1a84
    47d1:	03a9      	s32i.n	a10, a3, 0
    47d3:	4399      	s32i.n	a9, a3, 16
    47d5:	d389      	s32i.n	a8, a3, 52
    47d7:	2329      	s32i.n	a2, a3, 8
    47d9:	5f          	.byte 0x5f
    47da:	6c8105        	call0	0x70fec
    47dd:	20b330        	or	a11, a3, a3
    47e0:	20a220        	or	a10, a2, a2
    47e3:	fe8f65        	excw
    47e6:	055f90        	extui	a5, a9, 31, 1
    47e9:	023895        	excw
    47ec:	20a110        	or	a10, a1, a1
    47ef:	740031        	l32r	a3, 0xfffe17f0
    47f2:	ffa0b2        	movi	a11, 255
    47f5:	3e2382        	l32i	a8, a3, 248
    47f8:	06a0c2        	movi	a12, 6
    47fb:	5f          	.byte 0x5f
    47fc:	5acb05        	call0	0x5f4b0
    47ff:	5f08      	l32i.n	a0, a15, 20
    4801:	21e406        	j	0xcf95
    4804:	5fcc      	bnez.n	a15, 0x480d
    4806:	200d05        	call0	0x248d8
    4809:	0c0c      	movi.n	a12, 0
    480b:	15c1d2        	addi	a13, a1, 21
    480e:	74af31        	l32r	a3, 0xfffe1acc
    4811:	0b0c      	movi.n	a11, 0
    4813:	74ae91        	l32r	a9, 0xfffe1acc
    4816:	2199      	s32i.n	a9, a1, 8
    4818:	1441b2        	s8i	a11, a1, 20
    481b:	1e2382        	l32i	a8, a3, 120
    481e:	1541b2        	s8i	a11, a1, 21
    4821:	0008e0        	excw
    4824:	14c1c2        	addi	a12, a1, 20
    4827:	0abd      	mov.n	a11, a10
    4829:	5f2382        	l32i	a8, a3, 0x17c
    482c:	35ce07        	bnall	a14, a0, 0x4865
    482f:	2b0c02        	l8ui	a0, a12, 43
    4832:	1c1c      	movi.n	a12, 17
    4834:	1401d2        	l8ui	a13, a1, 20
    4837:	150192        	l8ui	a9, a1, 21
    483a:	741131        	l32r	a3, 0xfffe1880
    483d:	20c1e2        	addi	a14, a1, 32
    4840:	41e9      	s32i.n	a14, a1, 16
    4842:	182382        	l32i	a8, a3, 96
    4845:	99da      	add.n	a9, a9, a13
    4847:	749090        	extui	a9, a9, 0, 8
    484a:	154192        	s8i	a9, a1, 21
    484d:	5f5192        	s16i	a9, a1, 190
    4850:	ad5d04        	excw
    4853:	01bd02        	excw
    4856:	d0a0c2        	movi	a12, 208
    4859:	d18b      	addi.n	a13, a1, 8
    485b:	013c25        	excw
    485e:	5f          	.byte 0x5f
    485f:	48d905        	call0	0x4d5f0
    4862:	1c1823        	excw
    4865:	5f1c      	movi.n	a15, 21
    4867:	9008      	l32i.n	a0, a0, 36
    4869:	a04024        	excw
    486c:	2c0c74        	excw
    486f:	090c      	movi.n	a9, 0
    4871:	328c      	beqz.n	a2, 0x4878
    4873:	180c      	movi.n	a8, 1
    4875:	939830        	movnez	a9, a8, a3
    4878:	99cc      	bnez.n	a9, 0x4885
    487a:	5f          	.byte 0x5f
    487b:	a20b      	addi.n	a10, a2, -1
    487d:	02b253        	excw
    4880:	da6601        	l32r	a0, 0xffffb218
    4883:	0c09      	s32i.n	a0, a12, 0
    4885:	0c1d      	mov.n	a1, a12
    4887:	b009      	s32i.n	a0, a0, 44
    4889:	839d      	excw
    488b:	000306        	j	0x489b
    488e:	0002e2        	l8ui	a14, a2, 0
    4891:	190c      	movi.n	a9, 1
    4893:	c0eeb0        	sub	a14, a14, a11
    4896:	013ea6        	blti	a14, 3, 0x489b
    4899:	090c      	movi.n	a9, 0
    489b:	09d916        	beqz	a9, 0x493c
    489e:	03d8      	l32i.n	a13, a3, 0
    48a0:	13b8      	l32i.n	a11, a3, 4
    48a2:	0c03e2        	l8ui	a14, a3, 12
    48a5:	02bbd7        	bgeu	a11, a13, 0x48ab
    48a8:	002406        	j	0x493c
    48ab:	08db96        	bltz	a11, 0x493c
    48ae:	140c      	movi.n	a4, 1
    48b0:	4f0c      	movi.n	a15, 4
    48b2:	86af76        	excw
    48b5:	f09440        	subx8	a9, a4, a4
    48b8:	a09920        	addx4	a9, a9, a2
    48bb:	400982        	l8ui	a8, a9, 64
    48be:	248580        	extui	a8, a8, 5, 3
    48c1:	072856        	bnez	a8, 0x4937
    48c4:	0f0c      	movi.n	a15, 0
    48c6:	2c49e2        	s8i	a14, a9, 44
    48c9:	2388      	l32i.n	a8, a3, 8
    48cb:	4049f2        	s8i	a15, a9, 64
    48ce:	c989      	s32i.n	a8, a9, 48
    48d0:	d9d9      	s32i.n	a13, a9, 52
    48d2:	e9b9      	s32i.n	a11, a9, 56
    48d4:	0002e2        	l8ui	a14, a2, 0
    48d7:	ee1b      	addi.n	a14, a14, 1
    48d9:	0042e2        	s8i	a14, a2, 0
    48dc:	4009b2        	l8ui	a11, a9, 64
    48df:	44b0b0        	extui	a11, a11, 0, 5
    48e2:	20bab0        	or	a11, a10, a11
    48e5:	4049b2        	s8i	a11, a9, 64
    48e8:	0a6a67        	bbci	a10, 6, 0x48f6
    48eb:	0102f2        	l8ui	a15, a2, 1
    48ee:	ff1b      	addi.n	a15, a15, 1
    48f0:	0142f2        	s8i	a15, a2, 1
    48f3:	4009b2        	l8ui	a11, a9, 64
    48f6:	28c932        	addi	a3, a9, 40
    48f9:	2c0982        	l8ui	a8, a9, 44
    48fc:	ce7c      	movi.n	a14, -4
    48fe:	051866        	bnei	a8, 1, 0x4907
    4901:	0c0c      	movi.n	a12, 0
    4903:	d9a8      	l32i.n	a10, a9, 52
    4905:	e9a9      	s32i.n	a10, a9, 56
    4907:	a0dc20        	addx4	a13, a12, a2
    490a:	10ebe0        	and	a14, a11, a14
    490d:	20ece0        	or	a14, a12, a14
    4910:	4049e2        	s8i	a14, a9, 64
    4913:	2d2dc2        	l32i	a12, a13, 180
    4916:	2d6d32        	s32i	a3, a13, 180
    4919:	a9c9      	s32i.n	a12, a9, 40
    491b:	22c8      	l32i.n	a12, a2, 8
    491d:	8c8c      	beqz.n	a12, 0x4929
    491f:	061566        	bnei	a5, 1, 0x4929
    4922:	32b8      	l32i.n	a11, a2, 12
    4924:	4a0c      	movi.n	a10, 4
    4926:	000ce0        	excw
    4929:	74af81        	l32r	a8, 0xfffe1be8
    492c:	a888      	l32i.n	a8, a8, 40
    492e:	5f          	.byte 0x5f
    492f:	748f05        	call0	0x79220
    4932:	042d      	mov.n	a2, a4
    4934:	f01d      	excw
    4936:	5f          	.byte 0x5f
    4937:	54e505        	call0	0x59788
    493a:	5fa022        	movi	a2, 95
    493d:	dc09      	s32i.n	a0, a12, 52
    493f:	8c6c      	movi.n	a12, -24
    4941:	055ff2        	s16i	a15, a15, 10
    4944:	0a44c1        	l32r	a12, 0xfffc7254
    4947:	2c22a2        	l32i	a10, a2, 176
    494a:	14a4b2        	movi	a11, 0x414
    494d:	aaba      	add.n	a10, a10, a11
    494f:	000046        	j	0x4954
    4952:	0a0c      	movi.n	a10, 0
    4954:	53bc      	beqz.n	a3, 0x498d
    4956:	3abc      	beqz.n	a10, 0x498d
    4958:	1d0c      	movi.n	a13, 1
    495a:	080ae2        	l8ui	a14, a10, 8
    495d:	0c0c      	movi.n	a12, 0
    495f:	04e0e0        	extui	a14, a14, 0, 1
    4962:	83cde0        	moveqz	a12, a13, a14
    4965:	4cec      	bnez.n	a12, 0x498d
    4967:	03bd      	mov.n	a11, a3
    4969:	04cd      	mov.n	a12, a4
    496b:	74af51        	l32r	a5, 0xfffe1c28
    496e:	20ca42        	addi	a4, a10, 32
    4971:	132582        	l32i	a8, a5, 76
    4974:	5f          	.byte 0x5f
    4975:	068c05        	call0	0xb238
    4978:	0a3d      	mov.n	a3, a10
    497a:	ffa022        	movi	a2, 255
    497d:	101a27        	beq	a10, a2, 0x4991
    4980:	5f2582        	l32i	a8, a5, 0x17c
    4983:	718c06        	j	0x20fb7
    4986:	032d      	mov.n	a2, a3
    4988:	f01d      	excw
    498a:	5f          	.byte 0x5f
    498b:	5f5905        	call0	0x63f1c
    498e:	3c8205        	call0	0x411b0
    4991:	030c      	movi.n	a3, 0
    4993:	c28c      	beqz.n	a2, 0x49a3
    4995:	5f          	.byte 0x5f
    4996:	075a05        	call0	0xbf38
    4999:	2c2232        	l32i	a3, a2, 176
    499c:	14a482        	movi	a8, 0x414
    499f:	338a      	add.n	a3, a3, a8
    49a1:	089316        	beqz	a3, 0x4a2e
    49a4:	070c      	movi.n	a7, 0
    49a6:	1c0c      	movi.n	a12, 1
    49a8:	090392        	l8ui	a9, a3, 9
    49ab:	7411b1        	l32r	a11, 0xfffe19f0
    49ae:	49cc      	bnez.n	a9, 0x49b6
    49b0:	2003a2        	l8ui	a10, a3, 32
    49b3:	079a16        	beqz	a10, 0x4a30
    49b6:	e203a2        	l8ui	a10, a3, 226
    49b9:	0c1a26        	beqi	a10, 1, 0x49c9
    49bc:	02ad      	mov.n	a10, a2
    49be:	e243c2        	s8i	a12, a3, 226
    49c1:	1b2b82        	l32i	a8, a11, 108
    49c4:	5f          	.byte 0x5f
    49c5:	039d05        	call0	0x8398
    49c8:	2003a2        	l8ui	a10, a3, 32
    49cb:	740081        	l32r	a8, 0xfffe19cc
    49ce:	905aa0        	addx2	a5, a10, a10
    49d1:	a055a0        	addx4	a5, a5, a10
    49d4:	d02882        	l32i	a8, a8, 0x340
    49d7:	2a0c      	movi.n	a10, 2
    49d9:	553b      	addi.n	a5, a5, 3
    49db:	f45050        	extui	a5, a5, 0, 16
    49de:	5f          	.byte 0x5f
    49df:	73bb05        	call0	0x78590
    49e2:	0a4d      	mov.n	a4, a10
    49e4:	9acc      	bnez.n	a10, 0x49f1
    49e6:	5f          	.byte 0x5f
    49e7:	a30c      	movi.n	a3, 10
    49e9:	6f          	.byte 0x6f
    49ea:	680803        	excw
    49ed:	a09044        	excw
    49f0:	46a204        	excw
    49f3:	e90700        	excw
    49f6:	7208      	l32i.n	a0, a2, 28
    49f8:	720146        	j	0x21201
    49fb:	060246        	j	0x6208
    49fe:	810004        	excw
    4a01:	af          	.byte 0xaf
    4a02:	c3a274        	excw
    4a05:	288220        	excw
    4a08:	2b18      	l32i.n	a1, a11, 8
    4a0a:	045fb6        	bltui	a15, 5, 0x4a12
    4a0d:	4f          	.byte 0x4f
    4a0e:	dd0146        	j	0xffffbe17
    4a11:	04ad05        	call0	0x94e4
    4a14:	5f          	.byte 0x5f
    4a15:	76f106        	j	0x225dd
    4a18:	d12882        	l32i	a8, a8, 0x344
    4a1b:	055fb1        	l32r	a11, 0xfffc5f98
    4a1e:	1d65d2        	s32i	a13, a5, 116
    4a21:	0392f0        	excw
    4a24:	5916e2        	l16ui	a14, a6, 178
    4a27:	adf9      	s32i.n	a15, a13, 40
    4a29:	5f7202        	excw
    4a2c:	5f7a05        	call0	0x641d0
    4a2f:	19cf05        	call0	0x1e720
    4a32:	2003a2        	l8ui	a10, a3, 32
    4a35:	5fe086        	j	0x1c9bb
    4a38:	548f05        	call0	0x5932c
    4a3b:	a100a1        	l32r	a10, 0xfffece3c
    4a3e:	b874b1        	l32r	a11, 0xffff2c10
    4a41:	13c803        	excw
    4a44:	2c2242        	l32i	a4, a2, 176
    4a47:	740051        	l32r	a5, 0xfffe1a48
    4a4a:	04d442        	addmi	a4, a4, 0x400
    4a4d:	a12582        	l32i	a8, a5, 0x284
    4a50:	4448      	l32i.n	a4, a4, 16
    4a52:	5f08e0        	excw
    4a55:	241805        	call0	0x28bd8
    4a58:	a12582        	l32i	a8, a5, 0x284
    4a5b:	1b04c2        	l8ui	a12, a4, 27
    4a5e:	0008e0        	excw
    4a61:	020292        	l8ui	a9, a2, 2
    4a64:	746761        	l32r	a6, 0xfffe1c00
    4a67:	382926        	beqi	a9, 2, 0x4aa3
    4a6a:	354926        	beqi	a9, 4, 0x4aa3
    4a6d:	323926        	beqi	a9, 3, 0x4aa3
    4a70:	2f5926        	beqi	a9, 5, 0x4aa3
    4a73:	02ad      	mov.n	a10, a2
    4a75:	d688      	l32i.n	a8, a6, 52
    4a77:	4b0c      	movi.n	a11, 4
    4a79:	5f          	.byte 0x5f
    4a7a:	549707        	bne	a7, a0, 0x4ad2
    4a7d:	b2a1a0        	excw
    4a80:	5f          	.byte 0x5f
    4a81:	7c6d04        	excw
    4a84:	f01df2        	l16ui	a15, a13, 0x1e0
    4a87:	74b3a1        	l32r	a10, 0xfffe1d54
    4a8a:	a02582        	l32i	a8, a5, 0x280
    4a8d:	91b8      	l32i.n	a11, a1, 36
    4a8f:	5f          	.byte 0x5f
    4a90:	748405        	call0	0x792d4
    4a93:	d688      	l32i.n	a8, a6, 52
    4a95:	5f          	.byte 0x5f
    4a96:	6a8105        	call0	0x6f2a8
    4a99:	9128      	l32i.n	a2, a1, 36
    4a9b:	f01d      	excw
    4a9d:	3498      	l32i.n	a9, a4, 12
    4a9f:	1b04a2        	l8ui	a10, a4, 27
    4aa2:	990b      	addi.n	a9, a9, -1
    4aa4:	0d7916        	beqz	a9, 0x4b7f
    4aa7:	0d4a56        	bnez	a10, 0x4b7f
    4aaa:	02ad      	mov.n	a10, a2
    4aac:	4b0c      	movi.n	a11, 4
    4aae:	c6c8      	l32i.n	a12, a6, 48
    4ab0:	744d71        	l32r	a7, 0xfffe1be4
    4ab3:	02dd      	mov.n	a13, a2
    4ab5:	1788      	l32i.n	a8, a7, 4
    4ab7:	5e0c      	movi.n	a14, 5
    4ab9:	0008e0        	excw
    4abc:	91a9      	s32i.n	a10, a1, 36
    4abe:	fc3a56        	bnez	a10, 0x4a85
    4ac1:	744581        	l32r	a8, 0xfffe1bd8
    4ac4:	190c      	movi.n	a9, 1
    4ac6:	03b8      	l32i.n	a11, a3, 0
    4ac8:	04b9      	s32i.n	a11, a4, 0
    4aca:	13a8      	l32i.n	a10, a3, 4
    4acc:	24b9      	s32i.n	a11, a4, 8
    4ace:	14a9      	s32i.n	a10, a4, 4
    4ad0:	1b4492        	s8i	a9, a4, 27
    4ad3:	232882        	l32i	a8, a8, 140
    4ad6:	5f          	.byte 0x5f
    4ad7:	2cc806        	j	0xfdfb
    4ada:	cd4b      	addi.n	a12, a13, 4
    4adc:	458101        	l32r	a0, 0xfffd60e0
    4adf:	41a274        	excw
    4ae2:	288200        	excw
    4ae5:	5f2d      	excw
    4ae7:	10cd06        	j	0x8e1f
    4aea:	085f45        	call0	0xd0e0
    4aed:	7988      	l32i.n	a8, a9, 28
    4aef:	5f2682        	l32i	a8, a6, 0x17c
    4af2:	15bd06        	j	0xa1ea
    4af5:	24c8      	l32i.n	a12, a4, 8
    4af7:	74b0a0        	extui	a11, a10, 0, 8
    4afa:	1a44a2        	s8i	a10, a4, 26
    4afd:	a12582        	l32i	a8, a5, 0x284
    4b00:	5fb1a1        	l32r	a10, 0xfffdc9c4
    4b03:	659505        	call0	0x6a454
    4b06:	5f          	.byte 0x5f
    4b07:	7fd406        	j	0x24a5b
    4b0a:	0b1c27        	beq	a12, a2, 0x4b19
    4b0d:	5f          	.byte 0x5f
    4b0e:	716104        	excw
    4b11:	075a16        	beqz	a10, 0x4b8a
    4b14:	a14b      	addi.n	a10, a1, 4
    4b16:	0b0c      	movi.n	a11, 0
    4b18:	5f2582        	l32i	a8, a5, 0x17c
    4b1b:	18e106        	j	0xaea3
    4b1e:	3788      	l32i.n	a8, a7, 12
    4b20:	a6a8      	l32i.n	a10, a6, 40
    4b22:	c698      	l32i.n	a9, a6, 48
    4b24:	0c1c      	movi.n	a12, 16
    4b26:	0d11b2        	l16ui	a11, a1, 26
    4b29:	0e0c      	movi.n	a14, 0
    4b2b:	71f8      	l32i.n	a15, a1, 28
    4b2d:	11f9      	s32i.n	a15, a1, 4
    4b2f:	1841e2        	s8i	a14, a1, 24
    4b32:	20bbc0        	or	a11, a11, a12
    4b35:	13d8      	l32i.n	a13, a3, 4
    4b37:	21d9      	s32i.n	a13, a1, 8
    4b39:	3129      	s32i.n	a2, a1, 12
    4b3b:	5199      	s32i.n	a9, a1, 20
    4b3d:	41a9      	s32i.n	a10, a1, 16
    4b3f:	0d51b2        	s16i	a11, a1, 26
    4b42:	02ad      	mov.n	a10, a2
    4b44:	b14b      	addi.n	a11, a1, 4
    4b46:	5f          	.byte 0x5f
    4b47:	813c04        	excw
    4b4a:	057a16        	beqz	a10, 0x4ba5
    4b4d:	5f          	.byte 0x5f
    4b4e:	598107        	bany	a1, a0, 0x4bab
    4b51:	065f81        	l32r	a8, 0xfffc64d0
    4b54:	275981        	l32r	a8, 0xfffce8b8
    4b57:	5b0c      	movi.n	a11, 5
    4b59:	5f          	.byte 0x5f
    4b5a:	8108      	l32i.n	a0, a1, 32
    4b5c:	e03b62        	excw
    4b5f:	0008      	l32i.n	a0, a0, 0
    4b61:	8128      	l32i.n	a2, a1, 32
    4b63:	f01d      	excw
    4b65:	5f          	.byte 0x5f
    4b66:	2b0d05        	call0	0x2fc38
    4b69:	5f          	.byte 0x5f
    4b6a:	128205        	call0	0x1738c
    4b6d:	14c8      	l32i.n	a12, a4, 4
    4b6f:	a12582        	l32i	a8, a5, 0x284
    4b72:	74b4a1        	l32r	a10, 0xfffe1e44
    4b75:	0008e0        	excw
    4b78:	ffba06        	j	0x4a64
    4b7b:	9f2582        	l32i	a8, a5, 0x27c
    4b7e:	5fb5a1        	l32r	a10, 0xfffdca54
    4b81:	429f06        	j	0x15601
    4b84:	5f          	.byte 0x5f
    4b85:	380c      	movi.n	a8, 3
    4b87:	5f          	.byte 0x5f
    4b88:	860904        	excw
    4b8b:	b8ffb2        	excw
    4b8e:	13c824        	excw
    4b91:	5f          	.byte 0x5f
    4b92:	b62e04        	excw
    4b95:	5f          	.byte 0x5f
    4b96:	6d8b05        	call0	0x72448
    4b99:	5f          	.byte 0x5f
    4b9a:	bb09      	s32i.n	a0, a11, 44
    4b9c:	522c      	movi.n	a2, 37
    4b9e:	a11822        	l16ui	a2, a8, 0x142
    4ba1:	bd74b7        	bbci	a4, 27, 0x4b62
    4ba4:	224203        	excw
    4ba7:	612c      	movi.n	a1, 38
    4ba9:	5f          	.byte 0x5f
    4baa:	198306        	j	0xb1ba
    4bad:	5fa026        	beqi	a0, 12, 0x4c10
    4bb0:	198306        	j	0xb1c0
    4bb3:	74b8      	l32i.n	a11, a4, 28
    4bb5:	24b8      	l32i.n	a11, a4, 8
    4bb7:	5f2682        	l32i	a8, a6, 0x17c
    4bba:	8308      	l32i.n	a0, a3, 32
    4bbc:	0419      	s32i.n	a1, a4, 0
    4bbe:	611b      	addi.n	a6, a1, 1
    4bc0:	cc7467        	bbci	a4, 22, 0x4b90
    4bc3:	a839      	s32i.n	a3, a8, 40
    4bc5:	1a6634        	excw
    4bc8:	f98c62        	excw
    4bcb:	34b8      	l32i.n	a11, a4, 12
    4bcd:	0b1b26        	beqi	a11, 1, 0x4bdc
    4bd0:	5f          	.byte 0x5f
    4bd1:	8109      	s32i.n	a0, a1, 32
    4bd3:	0f8616        	beqz	a6, 0x4ccf
    4bd6:	291c00        	excw
    4bd9:	0e1397        	beq	a3, a9, 0x4beb
    4bdc:	02ad      	mov.n	a10, a2
    4bde:	5f1181        	l32r	a8, 0xfffdc824
    4be1:	06dc06        	j	0x6755
    4be4:	5f          	.byte 0x5f
    4be5:	748705        	call0	0x79458
    4be8:	02ad      	mov.n	a10, a2
    4bea:	5f4281        	l32r	a8, 0xfffdc8f4
    4bed:	2bea05        	call0	0x30a90
    4bf0:	0c19      	s32i.n	a1, a12, 0
    4bf2:	5f0c      	movi.n	a15, 5
    4bf4:	8108      	l32i.n	a0, a1, 32
    4bf6:	0b0d      	mov.n	a0, a11
    4bf8:	5f          	.byte 0x5f
    4bf9:	658305        	call0	0x6a42c
    4bfc:	396603        	excw
    4bff:	b10c      	movi.n	a1, 11
    4c01:	74b9      	s32i.n	a11, a4, 28
    4c03:	0002a2        	l8ui	a10, a2, 0
    4c06:	a0aab0        	addx4	a10, a10, a11
    4c09:	0aa8      	l32i.n	a10, a10, 0
    4c0b:	45a9      	s32i.n	a10, a5, 16
    4c0d:	5f4d81        	l32r	a8, 0xfffdc944
    4c10:	72c706        	j	0x21730
    4c13:	e05b      	addi.n	a14, a0, 5
    4c15:	0008      	l32i.n	a0, a0, 0
    4c17:	090c      	movi.n	a9, 0
    4c19:	1b4492        	s8i	a9, a4, 27
    4c1c:	5f          	.byte 0x5f
    4c1d:	449805        	call0	0x495a0
    4c20:	2c2232        	l32i	a3, a2, 176
    4c23:	04d332        	addmi	a3, a3, 0x400
    4c26:	4338      	l32i.n	a3, a3, 16
    4c28:	1b0382        	l8ui	a8, a3, 27
    4c2b:	182242        	l32i	a4, a2, 96
    4c2e:	0b4816        	beqz	a8, 0x4ce6
    4c31:	1a03a2        	l8ui	a10, a3, 26
    4c34:	74ba81        	l32r	a8, 0xfffe1f1c
    4c37:	190c      	movi.n	a9, 1
    4c39:	4888      	l32i.n	a8, a8, 16
    4c3b:	3399      	s32i.n	a9, a3, 12
    4c3d:	5f          	.byte 0x5f
    4c3e:	798206        	j	0x2324a
    4c41:	0abd      	mov.n	a11, a10
    4c43:	5f          	.byte 0x5f
    4c44:	8308      	l32i.n	a0, a3, 32
    4c46:	c13b      	addi.n	a12, a1, 3
    4c48:	74b9      	s32i.n	a11, a4, 28
    4c4a:	0002b2        	l8ui	a11, a2, 0
    4c4d:	909aa0        	addx2	a9, a10, a10
    4c50:	744281        	l32r	a8, 0xfffe1d58
    4c53:	1622a2        	l32i	a10, a2, 88
    4c56:	192882        	l32i	a8, a8, 100
    4c59:	a0bbc0        	addx4	a11, a11, a12
    4c5c:	a099a0        	addx4	a9, a9, a10
    4c5f:	1c0c      	movi.n	a12, 1
    4c61:	44a8      	l32i.n	a10, a4, 16
    4c63:	0ba9      	s32i.n	a10, a11, 0
    4c65:	4499      	s32i.n	a9, a4, 16
    4c67:	1b0c      	movi.n	a11, 1
    4c69:	5f          	.byte 0x5f
    4c6a:	468907        	bany	a9, a0, 0x4cb4
    4c6d:	5f1181        	l32r	a8, 0xfffdc8b4
    4c70:	78cb05        	call0	0x7d924
    4c73:	5f          	.byte 0x5f
    4c74:	248106        	j	0xde7c
    4c77:	74bba1        	l32r	a10, 0xfffe1f64
    4c7a:	740081        	l32r	a8, 0xfffe1c7c
    4c7d:	23b8      	l32i.n	a11, a3, 8
    4c7f:	a12882        	l32i	a8, a8, 0x284
    4c82:	1b03c2        	l8ui	a12, a3, 27
    4c85:	0008e0        	excw
    4c88:	03b8      	l32i.n	a11, a3, 0
    4c8a:	0041b2        	s8i	a11, a1, 0
    4c8d:	41b8b0        	srli	a11, a11, 8
    4c90:	0141b2        	s8i	a11, a1, 1
    4c93:	5f          	.byte 0x5f
    4c94:	020605        	call0	0x6cf8
    4c97:	5f          	.byte 0x5f
    4c98:	030605        	call0	0x7cfc
    4c9b:	13a8      	l32i.n	a10, a3, 4
    4c9d:	11a9      	s32i.n	a10, a1, 4
    4c9f:	1d0392        	l8ui	a9, a3, 29
    4ca2:	09ac      	beqz.n	a9, 0x4cc6
    4ca4:	2d22c2        	l32i	a12, a2, 180
    4ca7:	1b3cf6        	bgeui	a12, 3, 0x4cc6
    4caa:	743d31        	l32r	a3, 0xfffe1da0
    4cad:	02ad      	mov.n	a10, a2
    4caf:	c388      	l32i.n	a8, a3, 48
    4cb1:	5f          	.byte 0x5f
    4cb2:	7e8105        	call0	0x834c4
    4cb5:	02ad      	mov.n	a10, a2
    4cb7:	0c0c      	movi.n	a12, 0
    4cb9:	1822b2        	l32i	a11, a2, 96
    4cbc:	132382        	l32i	a8, a3, 76
    4cbf:	58cbb2        	addi	a11, a11, 88
    4cc2:	5f          	.byte 0x5f
    4cc3:	5f6206        	j	0x1ca4f
    4cc6:	5ab506        	j	0x1b79e
    4cc9:	bcc113        	excw
    4ccc:	5f          	.byte 0x5f
    4ccd:	808107        	bany	a1, a0, 0x4c51
    4cd0:	413616        	beqz	a6, 0x50e7
    4cd3:	674100        	excw
    4cd6:	207174        	excw
    4cd9:	a1a274        	excw
    4cdc:	006164        	excw
    4cdf:	225274        	excw
    4ce2:	c22c      	movi.n	a2, 44
    4ce4:	bc0613        	excw
    4ce7:	bda115        	excw
    4cea:	268274        	excw
    4ced:	5fb8a1        	l32r	a10, 0xfffdcbd0
    4cf0:	72a105        	call0	0x77704
    4cf3:	0b39      	s32i.n	a3, a11, 0
    4cf5:	56aa      	add.n	a5, a6, a10
    4cf7:	0daa      	add.n	a0, a13, a10
    4cf9:	29c8      	l32i.n	a12, a9, 8
    4cfb:	13b8      	l32i.n	a11, a3, 4
    4cfd:	c0bbc0        	sub	a11, a11, a12
    4d00:	0d0b16        	beqz	a11, 0x4dd4
    4d03:	9f2682        	l32i	a8, a6, 0x27c
    4d06:	5fbea1        	l32r	a10, 0xfffdcc00
    4d09:	4d8306        	j	0x18319
    4d0c:	03c8      	l32i.n	a12, a3, 0
    4d0e:	122482        	l32i	a8, a4, 72
    4d11:	5f          	.byte 0x5f
    4d12:	47e307        	bbsi	a3, 0, 0x4d5d
    4d15:	10bac7        	bgeu	a10, a12, 0x4d29
    4d18:	5f          	.byte 0x5f
    4d19:	1fe406        	j	0xccad
    4d1c:	055f46        	j	0x629d
    4d1f:	7fec      	bnez.n	a15, 0x4d4a
    4d21:	0a4d      	mov.n	a4, a10
    4d23:	5f03c6        	j	0x1c936
    4d26:	3ba305        	call0	0x40758
    4d29:	0c1c      	movi.n	a12, 16
    4d2b:	5f2782        	l32i	a8, a7, 0x17c
    4d2e:	7cde06        	j	0x240aa
    4d31:	0a4d      	mov.n	a4, a10
    4d33:	090416        	beqz	a4, 0x4dc7
    4d36:	95ac      	beqz.n	a5, 0x4d63
    4d38:	5fbda1        	l32r	a10, 0xfffdcc2c
    4d3b:	1bee06        	j	0xbcf7
    4d3e:	0613c2        	l16ui	a12, a3, 12
    4d41:	0008e0        	excw
    4d44:	0a7456        	bnez	a4, 0x4def
    4d47:	5f          	.byte 0x5f
    4d48:	510b      	addi.n	a5, a1, -1
    4d4a:	746781        	l32r	a8, 0xfffe1ee8
    4d4d:	03c8      	l32i.n	a12, a3, 0
    4d4f:	5f2882        	l32i	a8, a8, 0x17c
    4d52:	5408      	l32i.n	a0, a4, 20
    4d54:	80a092        	movi	a9, 128
    4d57:	d0a0a2        	movi	a10, 208
    4d5a:	4488      	l32i.n	a8, a4, 16
    4d5c:	b3eb      	addi.n	a11, a3, 14
    4d5e:	41c8b0        	srli	a12, a11, 8
    4d61:	8908f2        	l8ui	a15, a8, 137
    4d64:	41d8c0        	srli	a13, a12, 8
    4d67:	41e8d0        	srli	a14, a13, 8
    4d6a:	a8aa      	add.n	a10, a8, a10
    4d6c:	9048a2        	s8i	a10, a8, 144
    4d6f:	20ff90        	or	a15, a15, a9
    4d72:	41a8a0        	srli	a10, a10, 8
    4d75:	9148a2        	s8i	a10, a8, 145
    4d78:	8948f2        	s8i	a15, a8, 137
    4d7b:	5f          	.byte 0x5f
    4d7c:	920905        	call0	0xfff96e10
    4d7f:	5f          	.byte 0x5f
    4d80:	930605        	call0	0xfff97de4
    4d83:	44a8      	l32i.n	a10, a4, 16
    4d85:	061392        	l16ui	a9, a3, 12
    4d88:	934ae2        	s8i	a14, a10, 147
    4d8b:	924ad2        	s8i	a13, a10, 146
    4d8e:	914ac2        	s8i	a12, a10, 145
    4d91:	904ab2        	s8i	a11, a10, 144
    4d94:	8e4a92        	s8i	a9, a10, 142
    4d97:	04bd      	mov.n	a11, a4
    4d99:	419890        	srli	a9, a9, 8
    4d9c:	8f4a92        	s8i	a9, a10, 143
    4d9f:	4a2782        	l32i	a8, a7, 0x128
    4da2:	5f          	.byte 0x5f
    4da3:	6a8205        	call0	0x6f5c4
    4da6:	9a8c      	beqz.n	a10, 0x4db3
    4da8:	758c      	beqz.n	a5, 0x4db3
    4daa:	5f          	.byte 0x5f
    4dab:	7509      	s32i.n	a0, a5, 28
    4dad:	f01d      	excw
    4daf:	5f          	.byte 0x5f
    4db0:	0e          	.byte 0xe
    4db1:	a21181        	l32r	a8, 0xfffed5f8
    4db4:	920613        	excw
    4db7:	a764a1        	l32r	a10, 0xfffeeb48
    4dba:	3bb9      	s32i.n	a11, a11, 12
    4dbc:	5f          	.byte 0x5f
    4dbd:	4e8107        	bany	a1, a0, 0x4e0f
    4dc0:	5f4c      	movi.n	a15, 69
    4dc2:	4e8106        	j	0x187ca
    4dc5:	ffd106        	j	0x4d0d
    4dc8:	5f          	.byte 0x5f
    4dc9:	1f8105        	call0	0x245dc
    4dcc:	03b8      	l32i.n	a11, a3, 0
    4dce:	0888      	l32i.n	a8, a8, 0
    4dd0:	5f          	.byte 0x5f
    4dd1:	2f9405        	call0	0x34714
    4dd4:	f60a56        	bnez	a10, 0x4d38
    4dd7:	5f          	.byte 0x5f
    4dd8:	811a      	add.n	a8, a1, a1
    4dda:	5f39      	s32i.n	a3, a15, 20
    4ddc:	4c3c04        	excw
    4ddf:	5f          	.byte 0x5f
    4de0:	810b      	addi.n	a8, a1, -1
    4de2:	8679      	s32i.n	a7, a6, 32
    4de4:	065fc1        	l32r	a12, 0xfffc6760
    4de7:	4210c4        	excw
    4dea:	320202        	l8ui	a0, a2, 50
    4ded:	260302        	l8ui	a0, a3, 38
    4df0:	260824        	excw
    4df3:	260544        	excw
    4df6:	660234        	excw
    4df9:	260254        	excw
    4dfc:	0c0a33        	excw
    4dff:	f01d02        	l16ui	a0, a13, 0x1e0
    4e02:	182222        	l32i	a2, a2, 96
    4e05:	4228      	l32i.n	a2, a2, 16
    4e07:	f01d      	excw
    4e09:	5f          	.byte 0x5f
    4e0a:	8408      	l32i.n	a0, a4, 32
    4e0c:	3858      	l32i.n	a5, a8, 12
    4e0e:	136633        	excw
    4e11:	31eb      	addi.n	a3, a1, 14
    4e13:	74b9      	s32i.n	a11, a4, 28
    4e15:	000222        	l8ui	a2, a2, 0
    4e18:	a02230        	addx4	a2, a2, a3
    4e1b:	5f28      	l32i.n	a2, a15, 20
    4e1d:	8609      	s32i.n	a0, a6, 32
    4e1f:	005114        	excw
    4e22:	029274        	excw
    4e25:	22a202        	movi	a0, 0x222
    4e28:	662c      	movi.n	a6, 38
    4e2a:	0549      	s32i.n	a4, a5, 0
    4e2c:	5f          	.byte 0x5f
    4e2d:	44f905        	call0	0x49dc0
    4e30:	292613        	excw
    4e33:	592610        	excw
    4e36:	a20d      	excw
    4e38:	820002        	l8ui	a0, a0, 130
    4e3b:	b2d925        	excw
    4e3e:	065fa1        	l32r	a10, 0xfffc67bc
    4e41:	cc6df4        	excw
    4e44:	5f9a      	add.n	a5, a15, a9
    4e46:	b00c      	movi.n	a0, 11
    4e48:	820313        	excw
    4e4b:	42a125        	excw
    4e4e:	04da      	add.n	a0, a4, a13
    4e50:	4448      	l32i.n	a4, a4, 16
    4e52:	74bfa1        	l32r	a10, 0xfffe2150
    4e55:	5f          	.byte 0x5f
    4e56:	67a805        	call0	0x6c8d8
    4e59:	74bfa1        	l32r	a10, 0xfffe2158
    4e5c:	0513b2        	l16ui	a11, a3, 10
    4e5f:	a12582        	l32i	a8, a5, 0x284
    4e62:	055fc2        	s16i	a12, a15, 10
    4e65:	927ec4        	excw
    4e68:	0c0513        	excw
    4e6b:	59f605        	call0	0x5edcc
    4e6e:	445907        	bbc	a9, a0, 0x4eb6
    4e71:	0c5452        	s16i	a5, a4, 24
    4e74:	000186        	j	0x4e7e
    4e77:	0c5492        	s16i	a9, a4, 24
    4e7a:	a3cb      	addi.n	a10, a3, 12
    4e7c:	44a9      	s32i.n	a10, a4, 16
    4e7e:	02ad      	mov.n	a10, a2
    4e80:	fff4e5        	excw
    4e83:	34b8      	l32i.n	a11, a4, 12
    4e85:	24d8      	l32i.n	a13, a4, 8
    4e87:	041b66        	bnei	a11, 1, 0x4e8f
    4e8a:	03c8      	l32i.n	a12, a3, 0
    4e8c:	091cd7        	beq	a12, a13, 0x4e99
    4e8f:	5a9c      	beqz.n	a10, 0x4ea8
    4e91:	03f8      	l32i.n	a15, a3, 0
    4e93:	001ae2        	l16ui	a14, a10, 0
    4e96:	0e9ef7        	bne	a14, a15, 0x4ea8
    4e99:	5f          	.byte 0x5f
    4e9a:	3f8605        	call0	0x446fc
    4e9d:	b34b      	addi.n	a11, a3, 4
    4e9f:	132882        	l32i	a8, a8, 76
    4ea2:	5f          	.byte 0x5f
    4ea3:	3f8605        	call0	0x44704
    4ea6:	5f          	.byte 0x5f
    4ea7:	5f3905        	call0	0x64238
    4eaa:	4c8406        	j	0x180be
    4ead:	34a4b2        	movi	a11, 0x434
    4eb0:	74af81        	l32r	a8, 0xfffe216c
    4eb3:	2c23a2        	l32i	a10, a3, 176
    4eb6:	112882        	l32i	a8, a8, 68
    4eb9:	5f          	.byte 0x5f
    4eba:	51a705        	call0	0x5692c
    4ebd:	5f          	.byte 0x5f
    4ebe:	14e507        	bbsi	a5, 0, 0x4ed6
    4ec1:	0202d2        	l8ui	a13, a2, 2
    4ec4:	743030        	extui	a3, a3, 0, 8
    4ec7:	c08d30        	sub	a8, a13, a3
    4eca:	18c816        	beqz	a8, 0x505a
    4ecd:	052d66        	bnei	a13, 2, 0x4ed6
    4ed0:	fbc392        	addi	a9, a3, -5
    4ed3:	183916        	beqz	a9, 0x505a
    4ed6:	055d66        	bnei	a13, 5, 0x4edf
    4ed9:	fec3a2        	addi	a10, a3, -2
    4edc:	17aa16        	beqz	a10, 0x505a
    4edf:	740071        	l32r	a7, 0xfffe1ee0
    4ee2:	74af51        	l32r	a5, 0xfffe21a0
    4ee5:	749561        	l32r	a6, 0xfffe213c
    4ee8:	024d26        	beqi	a13, 4, 0x4eee
    4eeb:	643d66        	bnei	a13, 3, 0x4f53
    4eee:	2c2242        	l32i	a4, a2, 176
    4ef1:	c4cc      	bnez.n	a4, 0x4f01
    4ef3:	5fd6b2        	addmi	a11, a6, 0x5f00
    4ef6:	940c      	movi.n	a4, 9
    4ef8:	258237        	bany	a2, a3, 0x4f21
    4efb:	a46216        	beqz	a2, 0x4945
    4efe:	646a34        	excw
    4f01:	5f          	.byte 0x5f
    4f02:	47d605        	call0	0x4cc64
    4f05:	06ad      	mov.n	a10, a6
    4f07:	0b0c      	movi.n	a11, 0
    4f09:	0c0c      	movi.n	a12, 0
    4f0b:	172582        	l32i	a8, a5, 92
    4f0e:	5f          	.byte 0x5f
    4f0f:	5d8205        	call0	0x62730
    4f12:	1a2582        	l32i	a8, a5, 104
    4f15:	5f          	.byte 0x5f
    4f16:	611605        	call0	0x66078
    4f19:	0c7495        	excw
    4f1c:	c20b      	addi.n	a12, a2, -1
    4f1e:	a2e4a0        	excw
    4f21:	8214a4        	excw
    4f24:	aa3e27        	bltu	a14, a2, 0x4ed2
    4f27:	065fa4        	excw
    4f2a:	3b0086        	j	0x13b30
    4f2d:	01cd      	mov.n	a12, a1
    4f2f:	744081        	l32r	a8, 0xfffe2030
    4f32:	98a392        	movi	a9, 0x398
    4f35:	949a      	add.n	a9, a4, a9
    4f37:	582992        	l32i	a9, a9, 0x160
    4f3a:	1c2882        	l32i	a8, a8, 112
    4f3d:	5f          	.byte 0x5f
    4f3e:	6bdd05        	call0	0x70d10
    4f41:	0202d2        	l8ui	a13, a2, 2
    4f44:	082d26        	beqi	a13, 2, 0x4f50
    4f47:	054d26        	beqi	a13, 4, 0x4f50
    4f4a:	023d26        	beqi	a13, 3, 0x4f50
    4f4d:	315d66        	bnei	a13, 5, 0x4f82
    4f50:	e3ec      	bnez.n	a3, 0x4f82
    4f52:	74c041        	l32r	a4, 0xfffe2254
    4f55:	0002b2        	l8ui	a11, a2, 0
    4f58:	a0bb40        	addx4	a11, a11, a4
    4f5b:	0bb8      	l32i.n	a11, a11, 0
    4f5d:	cbcc      	bnez.n	a11, 0x4f6d
    4f5f:	01d6c2        	addmi	a12, a6, 0x100
    4f62:	5fccc2        	addi	a12, a12, 95
    4f65:	5f7b04        	excw
    4f68:	14b705        	call0	0x19adc
    4f6b:	745081        	l32r	a8, 0xfffe20ac
    4f6e:	162882        	l32i	a8, a8, 88
    4f71:	5f          	.byte 0x5f
    4f72:	388405        	call0	0x3d7b4
    4f75:	0002a2        	l8ui	a10, a2, 0
    4f78:	090c      	movi.n	a9, 0
    4f7a:	a0aa40        	addx4	a10, a10, a4
    4f7d:	0a99      	s32i.n	a9, a10, 0
    4f7f:	054326        	beqi	a3, 4, 0x4f88
    4f82:	023326        	beqi	a3, 3, 0x4f88
    4f85:	0a2366        	bnei	a3, 2, 0x4f93
    4f88:	746781        	l32r	a8, 0xfffe2124
    4f8b:	1a2882        	l32i	a8, a8, 104
    4f8e:	5f          	.byte 0x5f
    4f8f:	261e05        	call0	0x2b170
    4f92:	660243        	excw
    4f95:	5f7933        	excw
    4f98:	048105        	call0	0x97ac
    4f9b:	3e2782        	l32i	a8, a7, 248
    4f9e:	2c2242        	l32i	a4, a2, 176
    4fa1:	14a4a2        	movi	a10, 0x414
    4fa4:	a4aa      	add.n	a10, a4, a10
    4fa6:	31a9      	s32i.n	a10, a1, 12
    4fa8:	0008e0        	excw
    4fab:	31d8      	l32i.n	a13, a1, 12
    4fad:	1a0c      	movi.n	a10, 1
    4faf:	98a362        	movi	a6, 0x398
    4fb2:	34a4b2        	movi	a11, 0x434
    4fb5:	b4ba      	add.n	a11, a4, a11
    4fb7:	646a      	add.n	a6, a4, a6
    4fb9:	840692        	l8ui	a9, a6, 132
    4fbc:	1f6642        	s32i	a4, a6, 124
    4fbf:	2099a0        	or	a9, a9, a10
    4fc2:	02ad      	mov.n	a10, a2
    4fc4:	844692        	s8i	a9, a6, 132
    4fc7:	192582        	l32i	a8, a5, 100
    4fca:	95c8      	l32i.n	a12, a5, 36
    4fcc:	5f          	.byte 0x5f
    4fcd:	2d8105        	call0	0x327e0
    4fd0:	0b1c      	movi.n	a11, 16
    4fd2:	0c0c      	movi.n	a12, 0
    4fd4:	744581        	l32r	a8, 0xfffe20e8
    4fd7:	0d0c      	movi.n	a13, 0
    4fd9:	e888      	l32i.n	a8, a8, 56
    4fdb:	2e0c      	movi.n	a14, 2
    4fdd:	5f          	.byte 0x5f
    4fde:	568406        	j	0x1a9f2
    4fe1:	055f40        	extui	a5, a4, 31, 1
    4fe4:	18dd      	excw
    4fe6:	5f1d      	excw
    4fe8:	11df05        	call0	0x16ddc
    4feb:	c18b      	addi.n	a12, a1, 8
    4fed:	bfaea2        	movi	a10, 0xfffffebf
    4ff0:	11b8      	l32i.n	a11, a1, 4
    4ff2:	744081        	l32r	a8, 0xfffe20f4
    4ff5:	5866b2        	s32i	a11, a6, 0x160
    4ff8:	3b0c      	movi.n	a11, 3
    4ffa:	1198      	l32i.n	a9, a1, 4
    4ffc:	1c2882        	l32i	a8, a8, 112
    4fff:	1099a0        	and	a9, a9, a10
    5002:	1199      	s32i.n	a9, a1, 4
    5004:	2199      	s32i.n	a9, a1, 8
    5006:	5f          	.byte 0x5f
    5007:	008105        	call0	0x5818
    500a:	74c141        	l32r	a4, 0xfffe2310
    500d:	163366        	bnei	a3, 3, 0x5027
    5010:	74c2b1        	l32r	a11, 0xfffe2318
    5013:	02cd      	mov.n	a12, a2
    5015:	0002a2        	l8ui	a10, a2, 0
    5018:	702782        	l32i	a8, a7, 0x1c0
    501b:	90aaa0        	addx2	a10, a10, a10
    501e:	b0aa40        	addx8	a10, a10, a4
    5021:	e8caa2        	addi	a10, a10, -24
    5024:	0008e0        	excw
    5027:	0202b2        	l8ui	a11, a2, 2
    502a:	113b66        	bnei	a11, 3, 0x503f
    502d:	5f          	.byte 0x5f
    502e:	6e1805        	call0	0x731b0
    5031:	5f          	.byte 0x5f
    5032:	180c      	movi.n	a8, 1
    5034:	5f          	.byte 0x5f
    5035:	208307        	bany	a3, a0, 0x5059
    5038:	74c051        	l32r	a5, 0xfffe2338
    503b:	2c2282        	l32i	a8, a2, 176
    503e:	74af71        	l32r	a7, 0xfffe22fc
    5041:	08dc      	bnez.n	a8, 0x5055
    5043:	5f2782        	l32i	a8, a7, 0x17c
    5046:	7ad106        	j	0x23b8e
    5049:	5f          	.byte 0x5f
    504a:	6d8105        	call0	0x7285c
    504d:	a0aa50        	addx4	a10, a10, a5
    5050:	0a99      	s32i.n	a9, a10, 0
    5052:	000242        	l8ui	a4, a2, 0
    5055:	a04450        	addx4	a4, a4, a5
    5058:	0448      	l32i.n	a4, a4, 0
    505a:	740031        	l32r	a3, 0xfffe205c
    505d:	a4fc      	bnez.n	a4, 0x509b
    505f:	5f5081        	l32r	a8, 0xfffdcda0
    5062:	538c05        	call0	0x58924
    5065:	075f14        	excw
    5068:	3af9      	s32i.n	a15, a10, 12
    506a:	5f          	.byte 0x5f
    506b:	840d      	excw
    506d:	4b6b      	addi.n	a4, a11, 6
    506f:	6c0cb2        	l8ui	a11, a12, 108
    5072:	30a492        	movi	a9, 0x430
    5075:	3f2382        	l32i	a8, a3, 252
    5078:	64a0a2        	movi	a10, 100
    507b:	1454a2        	s16i	a10, a4, 40
    507e:	175492        	s16i	a9, a4, 46
    5081:	a46b      	addi.n	a10, a4, 6
    5083:	5f          	.byte 0x5f
    5084:	007d05        	call0	0x5858
    5087:	a0bb50        	addx4	a11, a11, a5
    508a:	0b49      	s32i.n	a4, a11, 0
    508c:	0b0c      	movi.n	a11, 0
    508e:	190c      	movi.n	a9, 1
    5090:	2c2252        	l32i	a5, a2, 176
    5093:	94a3a2        	movi	a10, 0x394
    5096:	a5aa      	add.n	a10, a5, a10
    5098:	01a9      	s32i.n	a10, a1, 0
    509a:	1f2a62        	l32i	a6, a10, 124
    509d:	1e2aa2        	l32i	a10, a10, 120
    50a0:	1d4692        	s8i	a9, a6, 29
    50a3:	3e2382        	l32i	a8, a3, 248
    50a6:	8c2c      	movi.n	a12, 40
    50a8:	5f          	.byte 0x5f
    50a9:	5bbe06        	j	0x1bfa5
    50ac:	b788      	l32i.n	a8, a7, 44
    50ae:	5f          	.byte 0x5f
    50af:	6d8d06        	j	0x206e7
    50b2:	813b      	addi.n	a8, a1, 3
    50b4:	743d      	excw
    50b6:	190c      	movi.n	a9, 1
    50b8:	0a0c      	movi.n	a10, 0
    50ba:	1b46a2        	s8i	a10, a6, 27
    50bd:	1a4692        	s8i	a9, a6, 26
    50c0:	c888      	l32i.n	a8, a8, 48
    50c2:	5f          	.byte 0x5f
    50c3:	8a08      	l32i.n	a0, a10, 32
    50c5:	743d21        	l32r	a2, 0xfffe21bc
    50c8:	58c4b2        	addi	a11, a4, 88
    50cb:	5f          	.byte 0x5f
    50cc:	8408      	l32i.n	a0, a4, 32
    50ce:	a278      	l32i.n	a7, a2, 40
    50d0:	611a06        	j	0x1d53c
    50d3:	9c7445        	call0	0xfffa1818
    50d6:	81ba      	add.n	a8, a1, a11
    50d8:	5fba      	add.n	a5, a15, a11
    50da:	34f606        	j	0x124b6
    50dd:	0abd      	mov.n	a11, a10
    50df:	5f2682        	l32i	a8, a6, 0x17c
    50e2:	728a06        	j	0x21b0e
    50e5:	1622b2        	l32i	a11, a2, 88
    50e8:	909aa0        	addx2	a9, a10, a10
    50eb:	a099b0        	addx4	a9, a9, a11
    50ee:	4499      	s32i.n	a9, a4, 16
    50f0:	186242        	s32i	a4, a2, 96
    50f3:	0b0c      	movi.n	a11, 0
    50f5:	8c5c      	movi.n	a12, 88
    50f7:	c0a0a2        	movi	a10, 192
    50fa:	3e2382        	l32i	a8, a3, 248
    50fd:	5f          	.byte 0x5f
    50fe:	37e905        	call0	0x3cf90
    5101:	74c3b1        	l32r	a11, 0xfffe2410
    5104:	c1a0a2        	movi	a10, 193
    5107:	7c0c      	movi.n	a12, 7
    5109:	c042c2        	s8i	a12, a2, 192
    510c:	5f2382        	l32i	a8, a3, 0x17c
    510f:	4ae906        	j	0x17cb7
    5112:	74c4b1        	l32r	a11, 0xfffe2424
    5115:	3c0c      	movi.n	a12, 3
    5117:	13a1a2        	movi	a10, 0x113
    511a:	5f          	.byte 0x5f
    511b:	1008      	l32i.n	a0, a0, 4
    511d:	a54b      	addi.n	a10, a5, 4
    511f:	5f          	.byte 0x5f
    5120:	089505        	call0	0xda74
    5123:	08a4c2        	movi	a12, 0x408
    5126:	0008e0        	excw
    5129:	00a492        	movi	a9, 0x400
    512c:	1599      	s32i.n	a9, a5, 4
    512e:	020292        	l8ui	a9, a2, 2
    5131:	023926        	beqi	a9, 3, 0x5137
    5134:	354966        	bnei	a9, 4, 0x516d
    5137:	5f          	.byte 0x5f
    5138:	a01906        	j	0xfffed1a0
    513b:	a432e4        	excw
    513e:	353a14        	excw
    5141:	5f          	.byte 0x5f
    5142:	6c9205        	call0	0x71a64
    5145:	03dd      	mov.n	a13, a3
    5147:	02ad      	mov.n	a10, a2
    5149:	74afc1        	l32r	a12, 0xfffe2408
    514c:	180c      	movi.n	a8, 1
    514e:	34a4b2        	movi	a11, 0x434
    5151:	01f8      	l32i.n	a15, a1, 0
    5153:	b5ba      	add.n	a11, a5, a11
    5155:	880fe2        	l8ui	a14, a15, 136
    5158:	206f52        	s32i	a5, a15, 128
    515b:	20ee80        	or	a14, a14, a8
    515e:	884fe2        	s8i	a14, a15, 136
    5161:	192c82        	l32i	a8, a12, 100
    5164:	9cc8      	l32i.n	a12, a12, 36
    5166:	5f          	.byte 0x5f
    5167:	628c06        	j	0x1db9b
    516a:	055ff6        	bgeui	a15, 5, 0x5173
    516d:	8f          	.byte 0x8f
    516e:	208105        	call0	0x25980
    5171:	27a274        	excw
    5174:	288214        	excw
    5177:	5f4c14        	excw
    517a:	ad0e04        	excw
    517d:	278202        	excw
    5180:	5f2b      	addi.n	a5, a15, 2
    5182:	ee08      	l32i.n	a0, a14, 56
    5184:	360007        	bnone	a0, a0, 0x51be
    5187:	bc0061        	l32r	a6, 0xffff4188
    518a:	d2bcf3        	excw
    518d:	e0a062        	movi	a6, 224
    5190:	740071        	l32r	a7, 0xfffe2190
    5193:	1cc242        	addi	a4, a2, 28
    5196:	8ca052        	movi	a5, 140
    5199:	525a      	add.n	a5, a2, a5
    519b:	400482        	l8ui	a8, a4, 64
    519e:	1f0687        	bnone	a6, a8, 0x51c1
    51a1:	2c04c2        	l8ui	a12, a4, 44
    51a4:	3f2782        	l32i	a8, a7, 252
    51a7:	0c41c2        	s8i	a12, a1, 12
    51aa:	dc0c      	movi.n	a12, 13
    51ac:	d4b8      	l32i.n	a11, a4, 52
    51ae:	01b9      	s32i.n	a11, a1, 0
    51b0:	e4a8      	l32i.n	a10, a4, 56
    51b2:	01bd      	mov.n	a11, a1
    51b4:	11a9      	s32i.n	a10, a1, 4
    51b6:	03ad      	mov.n	a10, a3
    51b8:	c498      	l32i.n	a9, a4, 48
    51ba:	5f          	.byte 0x5f
    51bb:	71a405        	call0	0x76bfc
    51be:	33db      	addi.n	a3, a3, 13
    51c0:	1cc442        	addi	a4, a4, 28
    51c3:	d39457        	bne	a4, a5, 0x519a
    51c6:	000222        	l8ui	a2, a2, 0
    51c9:	5f          	.byte 0x5f
    51ca:	b20b      	addi.n	a11, a2, -1
    51cc:	a26c      	movi.n	a2, -22
    51ce:	b12c22        	l32i	a2, a12, 0x2c4
    51d1:	a274c6        	j	0xfffedba8
    51d4:	04da      	add.n	a0, a4, a13
    51d6:	4aa8      	l32i.n	a10, a10, 16
    51d8:	74c581        	l32r	a8, 0xfffe24ec
    51db:	2aa8      	l32i.n	a10, a10, 8
    51dd:	e20c      	movi.n	a2, 14
    51df:	019a87        	bne	a10, a8, 0x51e4
    51e2:	f01d      	excw
    51e4:	103ba7        	bltu	a11, a10, 0x51f8
    51e7:	74c7c1        	l32r	a12, 0xfffe2504
    51ea:	05a0b2        	movi	a11, 5
    51ed:	80aac0        	add	a10, a10, a12
    51f0:	07fee5        	excw
    51f3:	202aa0        	or	a2, a10, a10
    51f6:	f01d      	excw
    51f8:	74c8d1        	l32r	a13, 0xfffe2518
    51fb:	103da7        	bltu	a13, a10, 0x520f
    51fe:	74c9e1        	l32r	a14, 0xfffe2524
    5201:	14a0b2        	movi	a11, 20
    5204:	80aae0        	add	a10, a10, a14
    5207:	07fd65        	excw
    520a:	0fca22        	addi	a2, a10, 15
    520d:	f01d      	excw
    520f:	5fcaf1        	l32r	a15, 0xfffdd138
    5212:	f02804        	excw
    5215:	80aa      	add.n	a8, a0, a10
    5217:	5ffc65        	excw
    521a:	5f2806        	j	0x1cebe
    521d:	248105        	call0	0x29a30
    5220:	2c2262        	l32i	a6, a2, 176
    5223:	740081        	l32r	a8, 0xfffe2224
    5226:	74cba1        	l32r	a10, 0xfffe2554
    5229:	a02882        	l32i	a8, a8, 0x280
    522c:	03bd      	mov.n	a11, a3
    522e:	0008e0        	excw
    5231:	74af71        	l32r	a7, 0xfffe24f0
    5234:	34a4b2        	movi	a11, 0x434
    5237:	a0a352        	movi	a5, 0x3a0
    523a:	565a      	add.n	a5, a6, a5
    523c:	0b2316        	beqz	a3, 0x52f2
    523f:	242582        	l32i	a8, a5, 144
    5242:	0204a2        	l8ui	a10, a4, 2
    5245:	788c      	beqz.n	a8, 0x5250
    5247:	7f0592        	l8ui	a9, a5, 127
    524a:	c099a0        	sub	a9, a9, a10
    524d:	0f4916        	beqz	a9, 0x5345
    5250:	66ba      	add.n	a6, a6, a11
    5252:	7f45a2        	s8i	a10, a5, 127
    5255:	190c      	movi.n	a9, 1
    5257:	246592        	s32i	a9, a5, 144
    525a:	162782        	l32i	a8, a7, 88
    525d:	5f          	.byte 0x5f
    525e:	2b8705        	call0	0x30ad0
    5261:	0304c2        	l8ui	a12, a4, 3
    5264:	41c1c0        	srli	a12, a12, 1
    5267:	4c9c      	beqz.n	a12, 0x527f
    5269:	06ad      	mov.n	a10, a6
    526b:	1b0c      	movi.n	a11, 1
    526d:	ffa0d2        	movi	a13, 255
    5270:	7d45c2        	s8i	a12, a5, 125
    5273:	0304c2        	l8ui	a12, a4, 3
    5276:	172782        	l32i	a8, a7, 92
    5279:	41c1c0        	srli	a12, a12, 1
    527c:	0008e0        	excw
    527f:	0404d2        	l8ui	a13, a4, 4
    5282:	030c      	movi.n	a3, 0
    5284:	0bed16        	beqz	a13, 0x5346
    5287:	1153c0        	slli	a5, a3, 4
    528a:	545a      	add.n	a5, a4, a5
    528c:	55f8      	l32i.n	a15, a5, 20
    528e:	818b      	addi.n	a8, a1, 8
    5290:	4198f0        	srli	a9, a15, 8
    5293:	014892        	s8i	a9, a8, 1
    5296:	0048f2        	s8i	a15, a8, 0
    5299:	045f90        	extui	a5, a9, 15, 1
    529c:	0209      	s32i.n	a0, a2, 0
    529e:	5f          	.byte 0x5f
    529f:	030605        	call0	0x8300
    52a2:	132782        	l32i	a8, a7, 76
    52a5:	9222c2        	l32i	a12, a2, 0x248
    52a8:	9022e2        	l32i	a14, a2, 0x240
    52ab:	c0dfc0        	sub	a13, a15, a12
    52ae:	ccfa      	add.n	a12, a12, a15
    52b0:	83cde0        	moveqz	a12, a13, a14
    52b3:	21c9      	s32i.n	a12, a1, 8
    52b5:	1d0c      	movi.n	a13, 1
    52b7:	80a0c2        	movi	a12, 128
    52ba:	35b8      	l32i.n	a11, a5, 12
    52bc:	01b9      	s32i.n	a11, a1, 0
    52be:	45a8      	l32i.n	a10, a5, 16
    52c0:	5f          	.byte 0x5f
    52c1:	1f8205        	call0	0x24ae4
    52c4:	059206        	j	0x6910
    52c7:	9208      	l32i.n	a0, a2, 36
    52c9:	e00c41        	l32r	a4, 0xffffd2fc
    52cc:	0008      	l32i.n	a0, a0, 0
    52ce:	331b      	addi.n	a3, a3, 1
    52d0:	ffa0b2        	movi	a11, 255
    52d3:	0a1ab7        	beq	a10, a11, 0x52e1
    52d6:	74cc91        	l32r	a9, 0xfffe2608
    52d9:	5588      	l32i.n	a8, a5, 20
    52db:	a09a90        	addx4	a9, a10, a9
    52de:	7f6982        	s32i	a8, a9, 0x1fc
    52e1:	0404a2        	l8ui	a10, a4, 4
    52e4:	743030        	extui	a3, a3, 0, 8
    52e7:	9833a7        	bltu	a3, a10, 0x5283
    52ea:	001506        	j	0x5342
    52ed:	162782        	l32i	a8, a7, 88
    52f0:	66ba      	add.n	a6, a6, a11
    52f2:	090c      	movi.n	a9, 0
    52f4:	246592        	s32i	a9, a5, 144
    52f7:	5f          	.byte 0x5f
    52f8:	880c      	movi.n	a8, 8
    52fa:	5f2760        	excw
    52fd:	608806        	j	0x1d521
    5300:	74c1b1        	l32r	a11, 0xfffe2604
    5303:	740081        	l32r	a8, 0xfffe2304
    5306:	0002a2        	l8ui	a10, a2, 0
    5309:	6e2882        	l32i	a8, a8, 0x1b8
    530c:	90aaa0        	addx2	a10, a10, a10
    530f:	085fb0        	excw
    5312:	5f3a86        	j	0x1d000
    5315:	3fab06        	j	0x151c5
    5318:	0a5fe1        	l32r	a14, 0xfffc7c94
    531b:	1e          	.byte 0x1e
    531c:	a06d      	excw
    531e:	90aa      	add.n	a9, a0, a10
    5320:	0a5fe0        	excw
    5323:	5f5886        	j	0x1d089
    5326:	3838      	l32i.n	a3, a8, 12
    5328:	360000        	excw
    532b:	5f0261        	l32r	a6, 0xfffdcf34
    532e:	648207        	bany	a2, a0, 0x5396
    5331:	5fcd      	excw
    5333:	648205        	call0	0x69b54
    5336:	065f05        	call0	0xb928
    5339:	a26482        	s32i	a8, a4, 0x288
    533c:	16b0c5        	call0	0x1be4c
    533f:	095a      	add.n	a0, a9, a5
    5341:	80c5b2        	addi	a11, a5, -128
    5344:	08fb16        	beqz	a11, 0x53d7
    5347:	d0a0c2        	movi	a12, 208
    534a:	0215c7        	beq	a5, a12, 0x5350
    534d:	5f2106        	j	0x1cfd5
    5350:	fb0b      	addi.n	a15, a11, -1
    5352:	a0c275        	excw
    5355:	08e0c0        	excw
    5358:	039200        	excw
    535b:	a218      	l32i.n	a1, a2, 40
    535d:	a77fa0        	excw
    5360:	6b99      	s32i.n	a9, a11, 24
    5362:	e8c4b2        	addi	a11, a4, -24
    5365:	654bb6        	bltui	a11, 4, 0x53ce
    5368:	74ced1        	l32r	a13, 0xfffe26a0
    536b:	1b03c2        	l8ui	a12, a3, 27
    536e:	1a03f2        	l8ui	a15, a3, 26
    5371:	1903e2        	l8ui	a14, a3, 25
    5374:	11ff80        	slli	a15, a15, 8
    5377:	5f          	.byte 0x5f
    5378:	57ef07        	bbsi	a15, 0, 0x53d3
    537b:	20cc      	bnez.n	a0, 0x5381
    537d:	4a9cd7        	bne	a12, a13, 0x53cb
    5380:	1c0382        	l8ui	a8, a3, 28
    5383:	990c      	movi.n	a9, 9
    5385:	429897        	bne	a8, a9, 0x53cb
    5388:	da1c      	movi.n	a10, 29
    538a:	3d14a7        	beq	a4, a10, 0x53cb
    538d:	1d03b2        	l8ui	a11, a3, 29
    5390:	7bfc      	bnez.n	a11, 0x53cb
    5392:	0b0c      	movi.n	a11, 0
    5394:	08a4c2        	movi	a12, 0x408
    5397:	740081        	l32r	a8, 0xfffe2398
    539a:	564b      	addi.n	a5, a6, 4
    539c:	3e2882        	l32i	a8, a8, 248
    539f:	5f          	.byte 0x5f
    53a0:	3cb405        	call0	0x41ee4
    53a3:	05dd      	mov.n	a13, a5
    53a5:	1fc3a2        	addi	a10, a3, 31
    53a8:	e1c4b2        	addi	a11, a4, -31
    53ab:	74cfc1        	l32r	a12, 0xfffe26e8
    53ae:	00a492        	movi	a9, 0x400
    53b1:	1788      	l32i.n	a8, a7, 4
    53b3:	1699      	s32i.n	a9, a6, 4
    53b5:	0008e0        	excw
    53b8:	096a56        	bnez	a10, 0x5452
    53bb:	a6cb      	addi.n	a10, a6, 12
    53bd:	0806b2        	l8ui	a11, a6, 8
    53c0:	2788      	l32i.n	a8, a7, 8
    53c2:	01cd      	mov.n	a12, a1
    53c4:	0008e0        	excw
    53c7:	002286        	j	0x5455
    53ca:	f01d      	excw
    53cc:	5f          	.byte 0x5f
    53cd:	ad3b12        	excw
    53d0:	0b0c01        	l32r	a0, 0xfffc8000
    53d3:	c0a0c2        	movi	a12, 192
    53d6:	5f0081        	l32r	a8, 0xfffdcfd8
    53d9:	823a04        	excw
    53dc:	3e28      	l32i.n	a2, a14, 12
    53de:	5f          	.byte 0x5f
    53df:	a23b05        	call0	0xfffa7790
    53e2:	b224c3        	excw
    53e5:	dddcc4        	excw
    53e8:	178805        	call0	0x1cc6c
    53eb:	74cfc1        	l32r	a12, 0xfffe2728
    53ee:	0008e0        	excw
    53f1:	dacc      	bnez.n	a10, 0x5402
    53f3:	5f          	.byte 0x5f
    53f4:	4a0d      	excw
    53f6:	a20000        	excw
    53f9:	5600a0        	excw
    53fc:	023a      	add.n	a0, a2, a3
    53fe:	1321b2        	l32i	a11, a1, 76
    5401:	01db16        	beqz	a11, 0x5422
    5404:	fecba2        	addi	a10, a11, -2
    5407:	db0c      	movi.n	a11, 13
    5409:	07d4a5        	excw
    540c:	3788      	l32i.n	a8, a7, 12
    540e:	74b0a0        	extui	a11, a10, 0, 8
    5411:	7fc1c2        	addi	a12, a1, 127
    5414:	41ccc2        	addi	a12, a12, 65
    5417:	1221a2        	l32i	a10, a1, 72
    541a:	5f          	.byte 0x5f
    541b:	37de05        	call0	0x3d1fc
    541e:	000046        	j	0x5423
    5421:	0b0c      	movi.n	a11, 0
    5423:	f86a56        	bnez	a10, 0x53ad
    5426:	02ad      	mov.n	a10, a2
    5428:	7fc1c2        	addi	a12, a1, 127
    542b:	4788      	l32i.n	a8, a7, 16
    542d:	41ccc2        	addi	a12, a12, 65
    5430:	5f          	.byte 0x5f
    5431:	3b8205        	call0	0x40c54
    5434:	5f          	.byte 0x5f
    5435:	e53e11        	l32r	a1, 0xffffe930
    5438:	1a5fd0        	excw
    543b:	3e          	.byte 0x3e
    543c:	f48a      	add.n	a15, a4, a8
    543e:	5f          	.byte 0x5f
    543f:	0f          	.byte 0xf
    5440:	3e          	.byte 0x3e
    5441:	5f          	.byte 0x5f
    5442:	44af05        	call0	0x49f34
    5445:	7274d0        	excw
    5448:	392c22        	l32i	a2, a12, 228
    544b:	504011        	l32r	a1, 0xfffd954c
    544e:	05bdf4        	excw
    5451:	740031        	l32r	a3, 0xfffe2454
    5454:	04d772        	addmi	a7, a7, 0x400
    5457:	a02382        	l32i	a8, a3, 0x280
    545a:	4778      	l32i.n	a7, a7, 16
    545c:	0008e0        	excw
    545f:	010282        	l8ui	a8, a2, 1
    5462:	020292        	l8ui	a9, a2, 2
    5465:	141866        	bnei	a8, 1, 0x547d
    5468:	113966        	bnei	a9, 3, 0x547d
    546b:	02ad      	mov.n	a10, a2
    546d:	11b8      	l32i.n	a11, a1, 4
    546f:	746781        	l32r	a8, 0xfffe260c
    5472:	05cd      	mov.n	a12, a5
    5474:	1c2882        	l32i	a8, a8, 112
    5477:	d0a0d2        	movi	a13, 208
    547a:	5f          	.byte 0x5f
    547b:	2a5604        	excw
    547e:	b56b      	addi.n	a11, a5, 6
    5480:	d02382        	l32i	a8, a3, 0x340
    5483:	01b9      	s32i.n	a11, a1, 0
    5485:	5f          	.byte 0x5f
    5486:	35e505        	call0	0x3b2d8
    5489:	5f          	.byte 0x5f
    548a:	8a0d      	excw
    548c:	464816        	beqz	a8, 0x58f4
    548f:	042716        	beqz	a7, 0x54d5
    5492:	2798      	l32i.n	a9, a7, 8
    5494:	3d0926        	beqi	a9, -1, 0x54d5
    5497:	004492        	s8i	a9, a4, 0
    549a:	41a890        	srli	a10, a9, 8
    549d:	0144a2        	s8i	a10, a4, 1
    54a0:	045fa0        	extui	a5, a10, 15, 1
    54a3:	a00206        	j	0xfffed4af
    54a6:	41a8      	l32i.n	a10, a1, 16
    54a8:	05cd      	mov.n	a12, a5
    54aa:	0178      	l32i.n	a7, a1, 0
    54ac:	044452        	s8i	a5, a4, 4
    54af:	11b8      	l32i.n	a11, a1, 4
    54b1:	419850        	srli	a9, a5, 8
    54b4:	3f2382        	l32i	a8, a3, 252
    54b7:	0344a2        	s8i	a10, a4, 3
    54ba:	054492        	s8i	a9, a4, 5
    54bd:	5f          	.byte 0x5f
    54be:	348a05        	call0	0x39d60
    54c1:	07dd      	mov.n	a13, a7
    54c3:	06ad      	mov.n	a10, a6
    54c5:	0002c2        	l8ui	a12, a2, 0
    54c8:	d12382        	l32i	a8, a3, 0x344
    54cb:	5fd1b1        	l32r	a11, 0xfffdd410
    54ce:	479907        	bne	a9, a0, 0x5519
    54d1:	660302        	l8ui	a0, a3, 102
    54d4:	5f39      	s32i.n	a3, a15, 20
    54d6:	02d107        	bbs	a1, a0, 0x54dc
    54d9:	5f          	.byte 0x5f
    54da:	228b06        	j	0xdf0a
    54dd:	001a      	add.n	a0, a0, a1
    54df:	0044a2        	s8i	a10, a4, 0
    54e2:	5f          	.byte 0x5f
    54e3:	5f4c05        	call0	0x649a4
    54e6:	865207        	bbc	a2, a0, 0x5470
    54e9:	ffea      	add.n	a15, a15, a14
    54eb:	744d81        	l32r	a8, 0xfffe2620
    54ee:	5f          	.byte 0x5f
    54ef:	5ee007        	bbsi	a0, 0, 0x5551
    54f2:	6a9c      	beqz.n	a10, 0x550c
    54f4:	5f          	.byte 0x5f
    54f5:	a02112        	l32i	a1, a1, 0x280
    54f8:	41a8      	l32i.n	a10, a1, 16
    54fa:	ffe246        	j	0x5487
    54fd:	ffa0a2        	movi	a10, 255
    5500:	74d3b1        	l32r	a11, 0xfffe284c
    5503:	74d2c1        	l32r	a12, 0xfffe284c
    5506:	fd7c      	movi.n	a13, -1
    5508:	0044d2        	s8i	a13, a4, 0
    550b:	0144c2        	s8i	a12, a4, 1
    550e:	0244b2        	s8i	a11, a4, 2
    5511:	ffdc86        	j	0x5487
    5514:	004136        	excw
    5517:	5fd481        	l32r	a8, 0xfffdd468
    551a:	0afe05        	call0	0x104fc
    551d:	0008e0        	excw
    5520:	22c8      	l32i.n	a12, a2, 8
    5522:	5c8c      	beqz.n	a12, 0x552b
    5524:	5f          	.byte 0x5f
    5525:	579c07        	bne	a12, a0, 0x5580
    5528:	5f          	.byte 0x5f
    5529:	508807        	bany	a8, a0, 0x557d
    552c:	450c      	movi.n	a5, 4
    552e:	160c      	movi.n	a6, 1
    5530:	74d5d1        	l32r	a13, 0xfffe2884
    5533:	1348      	l32i.n	a4, a3, 4
    5535:	099216        	beqz	a2, 0x55d2
    5538:	090c      	movi.n	a9, 0
    553a:	820b      	addi.n	a8, a2, -1
    553c:	09b816        	beqz	a8, 0x55db
    553f:	fec2a2        	addi	a10, a2, -2
    5542:	0a0a16        	beqz	a10, 0x55e6
    5545:	fdc2b2        	addi	a11, a2, -3
    5548:	0a7b16        	beqz	a11, 0x55f3
    554b:	3398      	l32i.n	a9, a3, 12
    554d:	03a8      	l32i.n	a10, a3, 0
    554f:	4dd8      	l32i.n	a13, a13, 16
    5551:	0aa8      	l32i.n	a10, a10, 0
    5553:	091966        	bnei	a9, 1, 0x5560
    5556:	5f          	.byte 0x5f
    5557:	4edf07        	bbs	a15, a0, 0x55a9
    555a:	000186        	j	0x5564
    555d:	0b0c      	movi.n	a11, 0
    555f:	1c0c      	movi.n	a12, 1
    5561:	000de0        	excw
    5564:	741121        	l32r	a2, 0xfffe25a8
    5567:	1a4466        	bnei	a4, 4, 0x5585
    556a:	2b0c      	movi.n	a11, 2
    556c:	1c0c      	movi.n	a12, 1
    556e:	03a8      	l32i.n	a10, a3, 0
    5570:	282282        	l32i	a8, a2, 160
    5573:	5f          	.byte 0x5f
    5574:	6fb006        	j	0x21438
    5577:	b21c      	movi.n	a2, 27
    5579:	feca      	add.n	a15, a14, a12
    557b:	8356b0        	moveqz	a5, a6, a11
    557e:	054d      	mov.n	a4, a5
    5580:	000086        	j	0x5586
    5583:	00a0c2        	movi	a12, 0
    5586:	0123a2        	l32i	a10, a3, 4
    5589:	3e1a47        	beq	a10, a4, 0x55cb
    558c:	1e1a66        	bnei	a10, 1, 0x55ae
    558f:	181426        	beqi	a4, 1, 0x55ab
    5592:	01a0b2        	movi	a11, 1
    5595:	5f          	.byte 0x5f
    5596:	290a      	add.n	a2, a9, a0
    5598:	03a8      	l32i.n	a10, a3, 0
    559a:	1b0c      	movi.n	a11, 1
    559c:	0aa8      	l32i.n	a10, a10, 0
    559e:	fd8f25        	excw
    55a1:	000746        	j	0x55c2
    55a4:	1a1a26        	beqi	a10, 1, 0x55c2
    55a7:	171466        	bnei	a4, 1, 0x55c2
    55aa:	02a0b2        	movi	a11, 2
    55ad:	0023a2        	l32i	a10, a3, 0
    55b0:	282282        	l32i	a8, a2, 160
    55b3:	002aa2        	l32i	a10, a10, 0
    55b6:	5f          	.byte 0x5f
    55b7:	2b2106        	j	0x1023f
    55ba:	0aa8      	l32i.n	a10, a10, 0
    55bc:	fd8d25        	excw
    55bf:	1349      	s32i.n	a4, a3, 4
    55c1:	f01d      	excw
    55c3:	3369      	s32i.n	a6, a3, 12
    55c5:	069d      	mov.n	a9, a6
    55c7:	140c      	movi.n	a4, 1
    55c9:	ffdc46        	j	0x553e
    55cc:	4369      	s32i.n	a6, a3, 16
    55ce:	3399      	s32i.n	a9, a3, 12
    55d0:	340c      	movi.n	a4, 3
    55d2:	090c      	movi.n	a9, 0
    55d4:	ffd986        	j	0x553e
    55d7:	5369      	s32i.n	a6, a3, 20
    55d9:	3399      	s32i.n	a9, a3, 12
    55db:	4399      	s32i.n	a9, a3, 16
    55dd:	064d      	mov.n	a4, a6
    55df:	090c      	movi.n	a9, 0
    55e1:	ffd646        	j	0x553e
    55e4:	5f          	.byte 0x5f
    55e5:	990b04        	excw
    55e8:	03b253        	excw
    55eb:	4d09      	s32i.n	a0, a13, 16
    55ed:	b009      	s32i.n	a0, a0, 44
    55ef:	0c9345        	call0	0x11f24
    55f2:	8609      	s32i.n	a0, a6, 32
    55f4:	075fd1        	l32r	a13, 0xfffc7370
    55f7:	5cab      	addi.n	a5, a12, 10
    55f9:	740031        	l32r	a3, 0xfffe25fc
    55fc:	10c262        	addi	a6, a2, 16
    55ff:	6e2382        	l32i	a8, a3, 0x1b8
    5602:	5f          	.byte 0x5f
    5603:	058805        	call0	0xae84
    5606:	12a8      	l32i.n	a10, a2, 4
    5608:	055f41        	l32r	a4, 0xfffc6b84
    560b:	240e97        	bnone	a14, a9, 0x5633
    560e:	5f19      	s32i.n	a1, a15, 20
    5610:	0e9705        	call0	0x13f84
    5613:	742581        	l32r	a8, 0xfffe26a8
    5616:	12a8      	l32i.n	a10, a2, 4
    5618:	b888      	l32i.n	a8, a8, 44
    561a:	310aa2        	l8ui	a10, a10, 49
    561d:	5f          	.byte 0x5f
    561e:	438405        	call0	0x48e60
    5621:	1c1c      	movi.n	a12, 17
    5623:	192482        	l32i	a8, a4, 100
    5626:	0a4d      	mov.n	a4, a10
    5628:	12a8      	l32i.n	a10, a2, 4
    562a:	5f          	.byte 0x5f
    562b:	59a006        	j	0x1bcaf
    562e:	af5104        	excw
    5631:	d43174        	excw
    5634:	f58874        	excw
    5637:	1349      	s32i.n	a4, a3, 4
    5639:	0008e0        	excw
    563c:	01a9      	s32i.n	a10, a1, 0
    563e:	000292        	l8ui	a9, a2, 0
    5641:	370c      	movi.n	a7, 3
    5643:	e9ec      	bnez.n	a9, 0x5675
    5645:	0202a2        	l8ui	a10, a2, 2
    5648:	12b8      	l32i.n	a11, a2, 4
    564a:	7aec      	bnez.n	a10, 0x5675
    564c:	020bb2        	l8ui	a11, a11, 2
    564f:	0b3b66        	bnei	a11, 3, 0x565e
    5652:	0c0c      	movi.n	a12, 0
    5654:	74d4d1        	l32r	a13, 0xfffe29a4
    5657:	7472e1        	l32r	a14, 0xfffe2820
    565a:	1de9      	s32i.n	a14, a13, 4
    565c:	2dc9      	s32i.n	a12, a13, 8
    565e:	22c8      	l32i.n	a12, a2, 8
    5660:	0302f2        	l8ui	a15, a2, 3
    5663:	078c16        	beqz	a12, 0x56df
    5666:	753f26        	beqi	a15, 3, 0x56df
    5669:	3a0c      	movi.n	a10, 3
    566b:	32b8      	l32i.n	a11, a2, 12
    566d:	000ce0        	excw
    5670:	034272        	s8i	a7, a2, 3
    5673:	f01d      	excw
    5675:	5f          	.byte 0x5f
    5676:	0c4a04        	excw
    5679:	880c      	movi.n	a8, 8
    567b:	055fc5        	call0	0xac78
    567e:	7888      	l32i.n	a8, a8, 28
    5680:	04bd      	mov.n	a11, a4
    5682:	01dd      	mov.n	a13, a1
    5684:	0a3d      	mov.n	a3, a10
    5686:	102582        	l32i	a8, a5, 64
    5689:	02ad      	mov.n	a10, a2
    568b:	5f          	.byte 0x5f
    568c:	4fb405        	call0	0x551d0
    568f:	0abd      	mov.n	a11, a10
    5691:	049316        	beqz	a3, 0x56de
    5694:	462326        	beqi	a3, 2, 0x56de
    5697:	22d8      	l32i.n	a13, a2, 8
    5699:	030292        	l8ui	a9, a2, 3
    569c:	bd8c      	beqz.n	a13, 0x56ab
    569e:	091937        	beq	a9, a3, 0x56ab
    56a1:	03ad      	mov.n	a10, a3
    56a3:	32b8      	l32i.n	a11, a2, 12
    56a5:	000de0        	excw
    56a8:	034232        	s8i	a3, a2, 3
    56ab:	12b8      	l32i.n	a11, a2, 4
    56ad:	020bb2        	l8ui	a11, a11, 2
    56b0:	01a8      	l32i.n	a10, a1, 0
    56b2:	5f3b66        	bnei	a11, 3, 0x5715
    56b5:	0c6404        	excw
    56b8:	1e          	.byte 0x1e
    56b9:	1dc8      	l32i.n	a12, a13, 4
    56bb:	2de9      	s32i.n	a14, a13, 8
    56bd:	ccaa      	add.n	a12, a12, a10
    56bf:	1dc9      	s32i.n	a12, a13, 4
    56c1:	e8a3b2        	movi	a11, 0x3e8
    56c4:	07a0a5        	excw
    56c7:	00a0b2        	movi	a11, 0
    56ca:	00a0d2        	movi	a13, 0
    56cd:	740081        	l32r	a8, 0xfffe26d0
    56d0:	20caa0        	or	a12, a10, a10
    56d3:	6d2882        	l32i	a8, a8, 0x1b4
    56d6:	5f          	.byte 0x5f
    56d7:	5e8105        	call0	0x63ee8
    56da:	f01d      	excw
    56dc:	0b7d      	mov.n	a7, a11
    56de:	021b26        	beqi	a11, 1, 0x56e4
    56e1:	b03b66        	bnei	a11, 3, 0x5695
    56e4:	01a8      	l32i.n	a10, a1, 0
    56e6:	74d691        	l32r	a9, 0xfffe2a40
    56e9:	1cb9a7        	bgeu	a9, a10, 0x5709
    56ec:	f8dab2        	addmi	a11, a10, 0xfffff800
    56ef:	22c8      	l32i.n	a12, a2, 8
    56f1:	01b9      	s32i.n	a11, a1, 0
    56f3:	fb2c16        	beqz	a12, 0x56a9
    56f6:	0302d2        	l8ui	a13, a2, 3
    56f9:	ac1d37        	beq	a13, a3, 0x56a9
    56fc:	5f          	.byte 0x5f
    56fd:	0c5d05        	call0	0x11cd0
    5700:	5f          	.byte 0x5f
    5701:	c65d04        	excw
    5704:	d8ffe7        	bbsi	a15, 30, 0x56e0
    5707:	4d9c22        	l16si	a2, a12, 154
    570a:	0302e2        	l8ui	a14, a2, 3
    570d:	21b9      	s32i.n	a11, a1, 8
    570f:	0d1e77        	beq	a14, a7, 0x5720
    5712:	0b3d      	mov.n	a3, a11
    5714:	07ad      	mov.n	a10, a7
    5716:	5f          	.byte 0x5f
    5717:	7808      	l32i.n	a0, a8, 28
    5719:	01a8      	l32i.n	a10, a1, 0
    571b:	f588      	l32i.n	a8, a5, 60
    571d:	34aa      	add.n	a3, a4, a10
    571f:	02ad      	mov.n	a10, a2
    5721:	5f          	.byte 0x5f
    5722:	078c05        	call0	0xcfe4
    5725:	11a9      	s32i.n	a10, a1, 4
    5727:	000292        	l8ui	a9, a2, 0
    572a:	c9dc      	bnez.n	a9, 0x574a
    572c:	0202a2        	l8ui	a10, a2, 2
    572f:	7adc      	bnez.n	a10, 0x574a
    5731:	22c8      	l32i.n	a12, a2, 8
    5733:	f9ac16        	beqz	a12, 0x56d1
    5736:	0302b2        	l8ui	a11, a2, 3
    5739:	943b26        	beqi	a11, 3, 0x56d1
    573c:	5f          	.byte 0x5f
    573d:	618107        	bany	a1, a0, 0x57a2
    5740:	3c0c      	movi.n	a12, 3
    5742:	5f          	.byte 0x5f
    5743:	19d605        	call0	0x1f4a4
    5746:	03bd      	mov.n	a11, a3
    5748:	07cd      	mov.n	a12, a7
    574a:	02ad      	mov.n	a10, a2
    574c:	102582        	l32i	a8, a5, 64
    574f:	d14b      	addi.n	a13, a1, 4
    5751:	0008e0        	excw
    5754:	11a8      	l32i.n	a10, a1, 4
    5756:	0198      	l32i.n	a9, a1, 0
    5758:	99aa      	add.n	a9, a9, a10
    575a:	0199      	s32i.n	a9, a1, 0
    575c:	5fcf06        	j	0x1d69c
    575f:	58b607        	bgeu	a6, a0, 0x57bb
    5762:	13b8      	l32i.n	a11, a3, 4
    5764:	3388      	l32i.n	a8, a3, 12
    5766:	0b4d      	mov.n	a4, a11
    5768:	725266        	bnei	a2, 5, 0x57de
    576b:	0903d2        	l8ui	a13, a3, 9
    576e:	fda0a2        	movi	a10, 253
    5771:	080392        	l8ui	a9, a3, 8
    5774:	2c0c      	movi.n	a12, 2
    5776:	10a9a0        	and	a10, a9, a10
    5779:	2099c0        	or	a9, a9, a12
    577c:	839ad0        	moveqz	a9, a10, a13
    577f:	084392        	s8i	a9, a3, 8
    5782:	c8cc      	bnez.n	a8, 0x5792
    5784:	53d8      	l32i.n	a13, a3, 20
    5786:	020c      	movi.n	a2, 0
    5788:	0c4d      	mov.n	a4, a12
    578a:	6329      	s32i.n	a2, a3, 24
    578c:	9324d0        	movnez	a2, a4, a13
    578f:	000146        	j	0x5798
    5792:	020c      	movi.n	a2, 0
    5794:	1e0c      	movi.n	a14, 1
    5796:	63e9      	s32i.n	a14, a3, 24
    5798:	1b4466        	bnei	a4, 4, 0x57b7
    579b:	745381        	l32r	a8, 0xfffe28e8
    579e:	0888      	l32i.n	a8, a8, 0
    57a0:	03a8      	l32i.n	a10, a3, 0
    57a2:	1f2882        	l32i	a8, a8, 124
    57a5:	5f          	.byte 0x5f
    57a6:	348405        	call0	0x39fe8
    57a9:	3acc      	bnez.n	a10, 0x57b0
    57ab:	13b8      	l32i.n	a11, a3, 4
    57ad:	000146        	j	0x57b6
    57b0:	0123b2        	l32i	a11, a3, 4
    57b3:	01a042        	movi	a4, 1
    57b6:	2f1b47        	beq	a11, a4, 0x57e9
    57b9:	7411a1        	l32r	a10, 0xfffe2800
    57bc:	2e1b66        	bnei	a11, 1, 0x57ee
    57bf:	281426        	beqi	a4, 1, 0x57eb
    57c2:	20c220        	or	a12, a2, a2
    57c5:	1b0c      	movi.n	a11, 1
    57c7:	0398      	l32i.n	a9, a3, 0
    57c9:	282a82        	l32i	a8, a10, 160
    57cc:	09a8      	l32i.n	a10, a9, 0
    57ce:	5f          	.byte 0x5f
    57cf:	8409      	s32i.n	a0, a4, 32
    57d1:	655c      	movi.n	a5, 86
    57d3:	fd69      	s32i.n	a6, a13, 60
    57d5:	000b46        	j	0x5806
    57d8:	5fd481        	l32r	a8, 0xfffdd728
    57db:	39ef06        	j	0x13f9b
    57de:	055f03        	excw
    57e1:	262082        	l32i	a8, a0, 152
    57e4:	1c1b      	addi.n	a1, a12, 1
    57e6:	191466        	bnei	a4, 1, 0x5803
    57e9:	20c220        	or	a12, a2, a2
    57ec:	02a0b2        	movi	a11, 2
    57ef:	002392        	l32i	a9, a3, 0
    57f2:	5f          	.byte 0x5f
    57f3:	310b      	addi.n	a3, a1, -1
    57f5:	a82b      	addi.n	a10, a8, 2
    57f7:	650a      	add.n	a6, a5, a0
    57f9:	055f66        	bnei	a15, 5, 0x5802
    57fc:	5f6c84        	excw
    57ff:	68bb07        	bgeu	a11, a0, 0x586b
    5802:	9207e2        	l8ui	a14, a7, 146
    5805:	3214a4        	excw
    5808:	822c22        	l32i	a2, a12, 0x208
    580b:	9a0202        	l8ui	a0, a2, 154
    580e:	386633        	excw
    5811:	c36265        	excw
    5814:	03c220        	rsr.eps2	a2
    5817:	4109      	s32i.n	a0, a1, 16
    5819:	af          	.byte 0xaf
    581a:	bc8c74        	excw
    581d:	06ad      	mov.n	a10, a6
    581f:	1b0c      	movi.n	a11, 1
    5821:	172482        	l32i	a8, a4, 92
    5824:	ffa0d2        	movi	a13, 255
    5827:	0008e0        	excw
    582a:	150c      	movi.n	a5, 1
    582c:	e0a072        	movi	a7, 224
    582f:	f0a550        	subx8	a10, a5, a5
    5832:	a0aa30        	addx4	a10, a10, a3
    5835:	600ab2        	l8ui	a11, a10, 96
    5838:	2a0b77        	bnone	a11, a7, 0x5866
    583b:	74cc91        	l32r	a9, 0xfffe2b6c
    583e:	80a0b2        	movi	a11, 128
    5841:	604ab2        	s8i	a11, a10, 96
    5844:	a488      	l32i.n	a8, a4, 40
    5846:	a09590        	addx4	a9, a5, a9
    5849:	7f2992        	l32i	a9, a9, 0x1fc
    584c:	146a92        	s32i	a9, a10, 80
    584f:	9222d2        	l32i	a13, a2, 0x248
    5852:	9022c2        	l32i	a12, a2, 0x240
    5855:	c0b9d0        	sub	a11, a9, a13
    5858:	99da      	add.n	a9, a9, a13
    585a:	839bc0        	moveqz	a9, a11, a12
    585d:	146a92        	s32i	a9, a10, 80
    5860:	48caa2        	addi	a10, a10, 72
    5863:	0008e0        	excw
    5866:	5f          	.byte 0x5f
    5867:	28ed06        	j	0xfc1f
    586a:	82c055        	excw
    586d:	5f1124        	excw
    5870:	418307        	bany	a3, a0, 0x58b5
    5873:	74d781        	l32r	a8, 0xfffe2bd0
    5876:	5f2882        	l32i	a8, a8, 0x17c
    5879:	085f00        	excw
    587c:	79a8      	l32i.n	a10, a9, 28
    587e:	004136        	excw
    5881:	5f0381        	l32r	a8, 0xfffdd490
    5884:	44fe05        	call0	0x4a868
    5887:	74d8      	l32i.n	a13, a4, 28
    5889:	000bb2        	l8ui	a11, a11, 0
    588c:	0dd8      	l32i.n	a13, a13, 0
    588e:	b32882        	l32i	a8, a8, 0x2cc
    5891:	0dd8      	l32i.n	a13, a13, 0
    5893:	20e887        	bbsi	a8, 8, 0x58b7
    5896:	012bb6        	bltui	a11, 2, 0x589b
    5899:	bb0b      	addi.n	a11, a11, -1
    589b:	48a6a2        	movi	a10, 0x648
    589e:	5f          	.byte 0x5f
    589f:	088705        	call0	0xe110
    58a2:	1522c2        	l32i	a12, a2, 84
    58a5:	6ca9      	s32i.n	a10, a12, 24
    58a7:	9acc      	bnez.n	a10, 0x58b4
    58a9:	055fd1        	l32r	a13, 0xfffc6e28
    58ac:	1d89      	s32i.n	a8, a13, 4
    58ae:	0dd8      	l32i.n	a13, a13, 0
    58b0:	0020c0        	memw
    58b3:	f01d      	excw
    58b5:	5f          	.byte 0x5f
    58b6:	1c08      	l32i.n	a0, a12, 4
    58b8:	065f06        	j	0x7238
    58bb:	488381        	l32r	a8, 0xfffd7ac8
    58be:	e10041        	l32r	a4, 0xffffdcc0
    58c1:	df          	.byte 0xdf
    58c2:	e0b174        	excw
    58c5:	de2174        	excw
    58c8:	d9a174        	excw
    58cb:	da9174        	excw
    58ce:	dd4174        	excw
    58d1:	dc5174        	excw
    58d4:	afc174        	excw
    58d7:	db8174        	excw
    58da:	6c8274        	excw
    58dd:	2cf211        	l32r	a1, 0xfffd0ca8
    58e0:	6c5916        	beqz	a9, 0x5fa9
    58e3:	5cd8      	l32i.n	a13, a12, 20
    58e5:	4c38      	l32i.n	a3, a12, 16
    58e7:	1b6c42        	s32i	a4, a12, 108
    58ea:	136c92        	s32i	a9, a12, 76
    58ed:	74d491        	l32r	a9, 0xfffe2c40
    58f0:	186ca2        	s32i	a10, a12, 96
    58f3:	74e241        	l32r	a4, 0xfffe2c7c
    58f6:	74e151        	l32r	a5, 0xfffe2c7c
    58f9:	166ce2        	s32i	a14, a12, 88
    58fc:	5cb9      	s32i.n	a11, a12, 20
    58fe:	4c29      	s32i.n	a2, a12, 16
    5900:	09f9      	s32i.n	a15, a9, 0
    5902:	5939      	s32i.n	a3, a9, 20
    5904:	39d9      	s32i.n	a13, a9, 12
    5906:	74e321        	l32r	a2, 0xfffe2c94
    5909:	74e8b1        	l32r	a11, 0xfffe2cac
    590c:	74e5e1        	l32r	a14, 0xfffe2ca0
    590f:	74e6d1        	l32r	a13, 0xfffe2ca8
    5912:	746731        	l32r	a3, 0xfffe2ab0
    5915:	74e4f1        	l32r	a15, 0xfffe2ca8
    5918:	a3f9      	s32i.n	a15, a3, 40
    591a:	93e9      	s32i.n	a14, a3, 36
    591c:	f3d9      	s32i.n	a13, a3, 60
    591e:	1b63b2        	s32i	a11, a3, 108
    5921:	206352        	s32i	a5, a3, 128
    5924:	c329      	s32i.n	a2, a3, 48
    5926:	286342        	s32i	a4, a3, 160
    5929:	1c23a2        	l32i	a10, a3, 112
    592c:	1f2382        	l32i	a8, a3, 124
    592f:	74e7c1        	l32r	a12, 0xfffe2ccc
    5932:	1163c2        	s32i	a12, a3, 68
    5935:	4989      	s32i.n	a8, a9, 16
    5937:	69a9      	s32i.n	a10, a9, 24
    5939:	74ed41        	l32r	a4, 0xfffe2cf0
    593c:	74ee21        	l32r	a2, 0xfffe2cf4
    593f:	74ec51        	l32r	a5, 0xfffe2cf0
    5942:	e359      	s32i.n	a5, a3, 56
    5944:	1f6322        	s32i	a2, a3, 124
    5947:	1c6342        	s32i	a4, a3, 112
    594a:	74e9a1        	l32r	a10, 0xfffe2cf0
    594d:	74eb81        	l32r	a8, 0xfffe2cfc
    5950:	186382        	s32i	a8, a3, 96
    5953:	1a63a2        	s32i	a10, a3, 104
    5956:	74ea91        	l32r	a9, 0xfffe2d00
    5959:	2c6392        	s32i	a9, a3, 176
    595c:	5f          	.byte 0x5f
    595d:	8208      	l32i.n	a0, a2, 32
    595f:	05ed74        	excw
    5962:	04bd      	mov.n	a11, a4
    5964:	03cd      	mov.n	a12, a3
    5966:	02ad      	mov.n	a10, a2
    5968:	744781        	l32r	a8, 0xfffe2a84
    596b:	0d0c      	movi.n	a13, 0
    596d:	5888      	l32i.n	a8, a8, 20
    596f:	0f1c      	movi.n	a15, 16
    5971:	5f          	.byte 0x5f
    5972:	0d9506        	j	0x8fca
    5975:	0c3a      	add.n	a0, a12, a3
    5977:	5f4623        	excw
    597a:	289405        	call0	0x2e2bc
    597d:	ef          	.byte 0xef
    597e:	5f          	.byte 0x5f
    597f:	148e05        	call0	0x1a260
    5982:	5f1d      	excw
    5984:	299b05        	call0	0x2f338
    5987:	0a3d      	mov.n	a3, a10
    5989:	da8c      	beqz.n	a10, 0x599a
    598b:	04bd      	mov.n	a11, a4
    598d:	5f2081        	l32r	a8, 0xfffdd610
    5990:	978106        	j	0xfffeb798
    5993:	7c2a      	add.n	a7, a12, a2
    5995:	5ffc      	bnez.n	a15, 0x59ce
    5997:	41a507        	bge	a5, a0, 0x59dc
    599a:	5f          	.byte 0x5f
    599b:	948107        	bany	a1, a0, 0x5933
    599e:	0208      	l32i.n	a0, a2, 0
    59a0:	042392        	l32i	a9, a3, 16
    59a3:	104866        	bnei	a8, 4, 0x59b7
    59a6:	8709a2        	l8ui	a10, a9, 135
    59a9:	0a6a47        	bbci	a10, 4, 0x59b7
    59ac:	20a220        	or	a10, a2, a2
    59af:	20b440        	or	a11, a4, a4
    59b2:	feb525        	excw
    59b5:	f01d      	excw
    59b7:	202932        	l32i	a3, a9, 128
    59ba:	740051        	l32r	a5, 0xfffe29bc
    59bd:	c39c      	beqz.n	a3, 0x59dd
    59bf:	74f0a1        	l32r	a10, 0xfffe2d80
    59c2:	04bd      	mov.n	a11, a4
    59c4:	a12582        	l32i	a8, a5, 0x284
    59c7:	23c8      	l32i.n	a12, a3, 8
    59c9:	0008e0        	excw
    59cc:	d38c      	beqz.n	a3, 0x59dd
    59ce:	0b1466        	bnei	a4, 1, 0x59dd
    59d1:	2398      	l32i.n	a9, a3, 8
    59d3:	6a0c      	movi.n	a10, 6
    59d5:	061966        	bnei	a9, 1, 0x59df
    59d8:	540c      	movi.n	a4, 5
    59da:	000246        	j	0x59e7
    59dd:	f01d      	excw
    59df:	fec9b2        	addi	a11, a9, -2
    59e2:	040c      	movi.n	a4, 0
    59e4:	834ab0        	moveqz	a4, a10, a11
    59e7:	ff2416        	beqz	a4, 0x59dd
    59ea:	e4a1a2        	movi	a10, 0x1e4
    59ed:	6e2582        	l32i	a8, a5, 0x1b8
    59f0:	a3aa      	add.n	a10, a3, a10
    59f2:	0008e0        	excw
    59f5:	5f          	.byte 0x5f
    59f6:	35ee06        	j	0x131b2
    59f9:	0d0c      	movi.n	a13, 0
    59fb:	1e0c      	movi.n	a14, 1
    59fd:	74ef81        	l32r	a8, 0xfffe2dbc
    5a00:	090c      	movi.n	a9, 0
    5a02:	0199      	s32i.n	a9, a1, 0
    5a04:	a888      	l32i.n	a8, a8, 40
    5a06:	0f0c      	movi.n	a15, 0
    5a08:	5f          	.byte 0x5f
    5a09:	e80b      	addi.n	a14, a8, -1
    5a0b:	065f24        	excw
    5a0e:	78dd      	excw
    5a10:	74f181        	l32r	a8, 0xfffe2dd4
    5a13:	4468      	l32i.n	a6, a4, 16
    5a15:	5f          	.byte 0x5f
    5a16:	708a07        	bany	a10, a0, 0x5a8a
    5a19:	2726c2        	l32i	a12, a6, 156
    5a1c:	0abd      	mov.n	a11, a10
    5a1e:	180cc2        	l8ui	a12, a12, 24
    5a21:	7fa0d2        	movi	a13, 127
    5a24:	024c26        	beqi	a12, 4, 0x5a2a
    5a27:	189cd7        	bne	a12, a13, 0x5a43
    5a2a:	020292        	l8ui	a9, a2, 2
    5a2d:	082926        	beqi	a9, 2, 0x5a39
    5a30:	054926        	beqi	a9, 4, 0x5a39
    5a33:	023926        	beqi	a9, 3, 0x5a39
    5a36:	095966        	bnei	a9, 5, 0x5a43
    5a39:	fdcaf2        	addi	a15, a10, -3
    5a3c:	0e0c      	movi.n	a14, 0
    5a3e:	83aef0        	moveqz	a10, a14, a15
    5a41:	0abd      	mov.n	a11, a10
    5a43:	5f2d      	excw
    5a45:	74ff05        	call0	0x7aa38
    5a48:	fd0081        	l32r	a8, 0x4e48 (0x25820313)
    5a4b:	065f07        	bbc	a15, a0, 0x5a55
    5a4e:	813bc0        	src	a3, a11, a12
    5a51:	dd74f1        	l32r	a15, 0xffffd024
    5a54:	188805        	call0	0x1e2d8
    5a57:	06ed      	mov.n	a14, a6
    5a59:	5f          	.byte 0x5f
    5a5a:	5ec905        	call0	0x646ec
    5a5d:	744581        	l32r	a8, 0xfffe2b74
    5a60:	41a9      	s32i.n	a10, a1, 16
    5a62:	322882        	l32i	a8, a8, 200
    5a65:	5f          	.byte 0x5f
    5a66:	13f807        	bbsi	a8, 16, 0x5a7d
    5a69:	0202a2        	l8ui	a10, a2, 2
    5a6c:	041916        	beqz	a9, 0x5ab1
    5a6f:	3e5a66        	bnei	a10, 5, 0x5ab1
    5a72:	d0a0b2        	movi	a11, 208
    5a75:	3895b7        	bne	a5, a11, 0x5ab1
    5a78:	06dd      	mov.n	a13, a6
    5a7a:	03cd      	mov.n	a12, a3
    5a7c:	74ef31        	l32r	a3, 0xfffe2e38
    5a7f:	02ad      	mov.n	a10, a2
    5a81:	1a2382        	l32i	a8, a3, 104
    5a84:	5f          	.byte 0x5f
    5a85:	44ba05        	call0	0x4a628
    5a88:	172a66        	bnei	a10, 2, 0x5aa3
    5a8b:	5f          	.byte 0x5f
    5a8c:	768805        	call0	0x7c310
    5a8f:	0c4c      	movi.n	a12, 64
    5a91:	0c0d      	mov.n	a0, a12
    5a93:	1e          	.byte 0x1e
    5a94:	5f          	.byte 0x5f
    5a95:	298105        	call0	0x2f2a8
    5a98:	055fa3        	excw
    5a9b:	462981        	l32r	a8, 0xfffd7340
    5a9e:	c20002        	l8ui	a0, a0, 194
    5aa1:	fdca      	add.n	a15, a13, a12
    5aa3:	4178      	l32i.n	a7, a1, 16
    5aa5:	ab0c      	movi.n	a11, 10
    5aa7:	837bc0        	moveqz	a7, a11, a12
    5aaa:	0202a2        	l8ui	a10, a2, 2
    5aad:	072d      	mov.n	a2, a7
    5aaf:	1a3a66        	bnei	a10, 3, 0x5acd
    5ab2:	04b526        	beqi	a5, 16, 0x5aba
    5ab5:	0d3c      	movi.n	a13, 48
    5ab7:	1295d7        	bne	a5, a13, 0x5acd
    5aba:	f48c      	beqz.n	a4, 0x5acd
    5abc:	74f281        	l32r	a8, 0xfffe2e84
    5abf:	3aa1f2        	movi	a15, 0x13a
    5ac2:	f4fa      	add.n	a15, a4, a15
    5ac4:	7f1fe2        	l16ui	a14, a15, 254
    5ac7:	5f          	.byte 0x5f
    5ac8:	4bb905        	call0	0x5165c
    5acb:	7f          	.byte 0x7f
    5acc:	5f          	.byte 0x5f
    5acd:	508205        	call0	0x562f0
    5ad0:	320081        	l32r	a8, 0xfffd22d0
    5ad3:	a28c22        	excw
    5ad6:	5f10c1        	l32r	a12, 0xfffdd718
    5ad9:	9108      	l32i.n	a0, a1, 36
    5adb:	055f13        	excw
    5ade:	48ab      	addi.n	a4, a8, 10
    5ae0:	02bd      	mov.n	a11, a2
    5ae2:	b0a0c2        	movi	a12, 176
    5ae5:	10c1d2        	addi	a13, a1, 16
    5ae8:	744181        	l32r	a8, 0xfffe2bec
    5aeb:	0a0c      	movi.n	a10, 0
    5aed:	290c      	movi.n	a9, 2
    5aef:	0a5192        	s16i	a9, a1, 20
    5af2:	0951a2        	s16i	a10, a1, 18
    5af5:	0851a2        	s16i	a10, a1, 16
    5af8:	d888      	l32i.n	a8, a8, 52
    5afa:	5f          	.byte 0x5f
    5afb:	3e9605        	call0	0x4445c
    5afe:	74ef41        	l32r	a4, 0xfffe2ebc
    5b01:	baac      	beqz.n	a10, 0x5b30
    5b03:	290c      	movi.n	a9, 2
    5b05:	5f          	.byte 0x5f
    5b06:	47d705        	call0	0x4d878
    5b09:	74f3c1        	l32r	a12, 0xfffe2ed8
    5b0c:	1123b2        	l32i	a11, a3, 68
    5b0f:	10bbc0        	and	a11, a11, a12
    5b12:	1163b2        	s32i	a11, a3, 68
    5b15:	142966        	bnei	a9, 2, 0x5b2d
    5b18:	02bd      	mov.n	a11, a2
    5b1a:	03ad      	mov.n	a10, a3
    5b1c:	5c0c      	movi.n	a12, 5
    5b1e:	5f          	.byte 0x5f
    5b1f:	8109      	s32i.n	a0, a1, 32
    5b21:	a419      	s32i.n	a1, a4, 40
    5b23:	5f          	.byte 0x5f
    5b24:	428207        	bany	a2, a0, 0x5b6a
    5b27:	03ad      	mov.n	a10, a3
    5b29:	02bd      	mov.n	a11, a2
    5b2b:	2c0c      	movi.n	a12, 2
    5b2d:	0d0c      	movi.n	a13, 0
    5b2f:	9488      	l32i.n	a8, a4, 36
    5b31:	0e0c      	movi.n	a14, 0
    5b33:	0008e0        	excw
    5b36:	fc5a16        	beqz	a10, 0x5aff
    5b39:	562392        	l32i	a9, a3, 0x158
    5b3c:	991b      	addi.n	a9, a9, 1
    5b3e:	566392        	s32i	a9, a3, 0x158
    5b41:	ffed46        	j	0x5afa
    5b44:	006136        	excw
    5b47:	1811a2        	l16ui	a10, a1, 48
    5b4a:	031a56        	bnez	a10, 0x5b7f
    5b4d:	0202b2        	l8ui	a11, a2, 2
    5b50:	2b4b66        	bnei	a11, 4, 0x5b7f
    5b53:	1122c2        	l32i	a12, a2, 68
    5b56:	25fc77        	bbsi	a12, 23, 0x5b7f
    5b59:	20e330        	or	a14, a3, a3
    5b5c:	20a220        	or	a10, a2, a2
    5b5f:	e2c8      	l32i.n	a12, a2, 56
    5b61:	74f4d1        	l32r	a13, 0xfffe2f34
    5b64:	1822b2        	l32i	a11, a2, 96
    5b67:	0f0c      	movi.n	a15, 0
    5b69:	4bb8      	l32i.n	a11, a11, 16
    5b6b:	003465        	excw
    5b6e:	3aec      	bnez.n	a10, 0x5b95
    5b70:	74f5d1        	l32r	a13, 0xfffe2f44
    5b73:	1122c2        	l32i	a12, a2, 68
    5b76:	20ccd0        	or	a12, a12, a13
    5b79:	1162c2        	s32i	a12, a2, 68
    5b7c:	000546        	j	0x5b95
    5b7f:	5f          	.byte 0x5f
    5b80:	f10a      	add.n	a15, a1, a0
    5b82:	6f          	.byte 0x6f
    5b83:	74f181        	l32r	a8, 0xfffe2f48
    5b86:	01a9      	s32i.n	a10, a1, 0
    5b88:	2888      	l32i.n	a8, a8, 8
    5b8a:	5f          	.byte 0x5f
    5b8b:	cc0a      	add.n	a12, a12, a0
    5b8d:	5f1a      	add.n	a5, a15, a1
    5b8f:	348305        	call0	0x3a3c0
    5b92:	74f841        	l32r	a4, 0xfffe2f74
    5b95:	74f781        	l32r	a8, 0xfffe2f74
    5b98:	74f691        	l32r	a9, 0xfffe2f70
    5b9b:	74f921        	l32r	a2, 0xfffe2f80
    5b9e:	74ef31        	l32r	a3, 0xfffe2f5c
    5ba1:	74f1b1        	l32r	a11, 0xfffe2f68
    5ba4:	1b23c2        	l32i	a12, a3, 108
    5ba7:	1a23d2        	l32i	a13, a3, 104
    5baa:	d3a8      	l32i.n	a10, a3, 52
    5bac:	2ba9      	s32i.n	a10, a11, 8
    5bae:	d329      	s32i.n	a2, a3, 52
    5bb0:	256392        	s32i	a9, a3, 148
    5bb3:	1a6382        	s32i	a8, a3, 104
    5bb6:	0bd9      	s32i.n	a13, a11, 0
    5bb8:	1b6342        	s32i	a4, a3, 108
    5bbb:	1bc9      	s32i.n	a12, a11, 4
    5bbd:	f01d      	excw
    5bbf:	008136        	excw
    5bc2:	740041        	l32r	a4, 0xfffe2bc4
    5bc5:	182252        	l32i	a5, a2, 96
    5bc8:	1c2326        	beqi	a3, 2, 0x5be8
    5bcb:	01ad      	mov.n	a10, a1
    5bcd:	0b0c      	movi.n	a11, 0
    5bcf:	5f2482        	l32i	a8, a4, 0x17c
    5bd2:	74a607        	bge	a6, a0, 0x5c4a
    5bd5:	4598e2        	l16si	a14, a8, 138
    5bd8:	0199      	s32i.n	a9, a1, 0
    5bda:	144182        	s8i	a8, a1, 20
    5bdd:	141562        	l16ui	a6, a5, 40
    5be0:	2129      	s32i.n	a2, a1, 8
    5be2:	116660        	slli	a6, a6, 10
    5be5:	070c      	movi.n	a7, 0
    5be7:	5aa2a2        	movi	a10, 0x25a
    5bea:	2f1326        	beqi	a3, 1, 0x5c1d
    5bed:	744d51        	l32r	a5, 0xfffe2d24
    5bf0:	fec3b2        	addi	a11, a3, -2
    5bf3:	142b16        	beqz	a11, 0x5d39
    5bf6:	1d0c      	movi.n	a13, 1
    5bf8:	2c0c      	movi.n	a12, 2
    5bfa:	3c3326        	beqi	a3, 3, 0x5c3a
    5bfd:	fcc3e2        	addi	a14, a3, -4
    5c00:	158e16        	beqz	a14, 0x5d5c
    5c03:	fbc3f2        	addi	a15, a3, -5
    5c06:	0a1f16        	beqz	a15, 0x5cab
    5c09:	fac382        	addi	a8, a3, -6
    5c0c:	0e8816        	beqz	a8, 0x5cf8
    5c0f:	277326        	beqi	a3, 7, 0x5c3a
    5c12:	92aa      	add.n	a9, a2, a10
    5c14:	740041        	l32r	a4, 0xfffe2c14
    5c17:	8009b2        	l8ui	a11, a9, 128
    5c1a:	000186        	j	0x5c24
    5c1d:	07bd      	mov.n	a11, a7
    5c1f:	92aa      	add.n	a9, a2, a10
    5c21:	804972        	s8i	a7, a9, 128
    5c24:	03cd      	mov.n	a12, a3
    5c26:	74faa1        	l32r	a10, 0xfffe3010
    5c29:	11bb80        	slli	a11, a11, 8
    5c2c:	000292        	l8ui	a9, a2, 0
    5c2f:	a12482        	l32i	a8, a4, 0x284
    5c32:	20b9b0        	or	a11, a9, a11
    5c35:	5f          	.byte 0x5f
    5c36:	238205        	call0	0x29458
    5c39:	42aa      	add.n	a4, a2, a10
    5c3b:	8004c2        	l8ui	a12, a4, 128
    5c3e:	20ccd0        	or	a12, a12, a13
    5c41:	8044c2        	s8i	a12, a4, 128
    5c44:	2dec17        	bbsi	a12, 1, 0x5c75
    5c47:	02ad      	mov.n	a10, a2
    5c49:	9588      	l32i.n	a8, a5, 36
    5c4b:	5f          	.byte 0x5f
    5c4c:	659805        	call0	0x6b5d0
    5c4f:	02ad      	mov.n	a10, a2
    5c51:	0b0c      	movi.n	a11, 0
    5c53:	1c0c      	movi.n	a12, 1
    5c55:	74fc81        	l32r	a8, 0xfffe3048
    5c58:	74fb91        	l32r	a9, 0xfffe3044
    5c5b:	5888      	l32i.n	a8, a8, 20
    5c5d:	1199      	s32i.n	a9, a1, 4
    5c5f:	5f          	.byte 0x5f
    5c60:	0e9505        	call0	0x145b4
    5c63:	01cd      	mov.n	a12, a1
    5c65:	4d0c      	movi.n	a13, 4
    5c67:	06ed      	mov.n	a14, a6
    5c69:	ccdaf2        	addmi	a15, a10, 0xffffcc00
    5c6c:	4588      	l32i.n	a8, a5, 16
    5c6e:	5f          	.byte 0x5f
    5c6f:	3c9a06        	j	0x14edb
    5c72:	c200a0        	excw
    5c75:	8101a0        	src	a0, a1, a10
    5c78:	74fc      	bnez.n	a4, 0x5cb3
    5c7a:	748ca1        	l32r	a10, 0xfffe2eac
    5c7d:	04a092        	movi	a9, 4
    5c80:	0b5192        	s16i	a9, a1, 22
    5c83:	11a9      	s32i.n	a10, a1, 4
    5c85:	5f          	.byte 0x5f
    5c86:	39fc07        	bbsi	a12, 16, 0x5cc3
    5c89:	06ed      	mov.n	a14, a6
    5c8b:	2b0c      	movi.n	a11, 2
    5c8d:	01cd      	mov.n	a12, a1
    5c8f:	1d0c      	movi.n	a13, 1
    5c91:	1cdaf2        	addmi	a15, a10, 0x1c00
    5c94:	5f          	.byte 0x5f
    5c95:	a52d07        	blt	a13, a0, 0x5c3e
    5c98:	9dfcf1        	l32r	a15, 0xfffed488
    5c9b:	da0604        	excw
    5c9e:	ff          	.byte 0xff
    5c9f:	42aa      	add.n	a4, a2, a10
    5ca1:	8004b2        	l8ui	a11, a4, 128
    5ca4:	306b07        	bbci	a11, 0, 0x5cd8
    5ca7:	07bd      	mov.n	a11, a7
    5ca9:	9588      	l32i.n	a8, a5, 36
    5cab:	5f          	.byte 0x5f
    5cac:	9b08      	l32i.n	a0, a11, 36
    5cae:	fc2c      	movi.n	a12, 47
    5cb0:	0b0c74        	excw
    5cb3:	5888      	l32i.n	a8, a8, 20
    5cb5:	5f          	.byte 0x5f
    5cb6:	1bbb05        	call0	0x21868
    5cb9:	06ed      	mov.n	a14, a6
    5cbb:	5f          	.byte 0x5f
    5cbc:	886806        	j	0xfffe7e60
    5cbf:	daf245        	call0	0xfffe0be4
    5cc2:	91cc      	bnez.n	a1, 0x5ccf
    5cc4:	74fb      	addi.n	a7, a4, 15
    5cc6:	5f99      	s32i.n	a9, a15, 20
    5cc8:	a38106        	j	0xfffeead0
    5ccb:	b229      	s32i.n	a2, a2, 44
    5ccd:	a28004        	excw
    5cd0:	a0fda0        	addx4	a15, a13, a10
    5cd3:	10ab      	addi.n	a1, a0, 10
    5cd5:	8044a2        	s8i	a10, a4, 128
    5cd8:	fcece5        	excw
    5cdb:	049d      	mov.n	a9, a4
    5cdd:	ffc786        	j	0x5bff
    5ce0:	000000        	ill
    5ce3:	8042a0        	add	a4, a2, a10
    5ce6:	5f          	.byte 0x5f
    5ce7:	2f4e05        	call0	0x351c8
    5cea:	20b770        	or	a11, a7, a7
    5ced:	092582        	l32i	a8, a5, 36
    5cf0:	5f          	.byte 0x5f
    5cf1:	502a      	add.n	a5, a0, a2
    5cf3:	5fe8a5        	excw
    5cf6:	b64404        	excw
    5cf9:	ff          	.byte 0xff
    5cfa:	5aa242        	movi	a4, 0x25a
    5cfd:	5fa220        	excw
    5d00:	703b04        	excw
    5d03:	065fb7        	bbc	a15, a11, 0x5d0d
    5d06:	0f9c81        	l32r	a8, 0xfffc9b78
    5d09:	9588      	l32i.n	a8, a5, 36
    5d0b:	5f          	.byte 0x5f
    5d0c:	17a905        	call0	0x1d7a0
    5d0f:	424a      	add.n	a4, a2, a4
    5d11:	804472        	s8i	a7, a4, 128
    5d14:	fce665        	excw
    5d17:	5fd246        	j	0x1dc64
    5d1a:	4a2304        	excw
    5d1d:	049242        	l16si	a4, a2, 8
    5d20:	07bd80        	excw
    5d23:	2099c0        	or	a9, a9, a12
    5d26:	804492        	s8i	a9, a4, 128
    5d29:	5f          	.byte 0x5f
    5d2a:	8109      	s32i.n	a0, a1, 32
    5d2c:	055f37        	bbc	a15, a3, 0x5d35
    5d2f:	6d59      	s32i.n	a5, a13, 24
    5d31:	0e0c      	movi.n	a14, 0
    5d33:	0f0c      	movi.n	a15, 0
    5d35:	74fd91        	l32r	a9, 0xfffe312c
    5d38:	4588      	l32i.n	a8, a5, 16
    5d3a:	5f          	.byte 0x5f
    5d3b:	258205        	call0	0x2b55c
    5d3e:	ffd8c6        	j	0x5ca5
    5d41:	00a136        	excw
    5d44:	070c      	movi.n	a7, 0
    5d46:	f3dc      	bnez.n	a3, 0x5d69
    5d48:	5f          	.byte 0x5f
    5d49:	9d0d      	excw
    5d4b:	7e          	.byte 0x7e
    5d4c:	5f3d      	excw
    5d4e:	0e          	.byte 0xe
    5d4f:	496893        	excw
    5d52:	635243        	excw
    5d55:	623223        	excw
    5d58:	5918      	l32i.n	a1, a9, 20
    5d5a:	02ade2        	movi	a14, 0xfffffd02
    5d5d:	744d81        	l32r	a8, 0xfffe2e94
    5d60:	190c      	movi.n	a9, 1
    5d62:	034292        	s8i	a9, a2, 3
    5d65:	9888      	l32i.n	a8, a8, 36
    5d67:	5f          	.byte 0x5f
    5d68:	798206        	j	0x24374
    5d6b:	5f          	.byte 0x5f
    5d6c:	810a      	add.n	a8, a1, a0
    5d6e:	8c1b93        	excw
    5d71:	0008e0        	excw
    5d74:	0149      	s32i.n	a4, a1, 0
    5d76:	2129      	s32i.n	a2, a1, 8
    5d78:	3169      	s32i.n	a6, a1, 12
    5d7a:	7464a1        	l32r	a10, 0xfffe2f0c
    5d7d:	742bb1        	l32r	a11, 0xfffe2e2c
    5d80:	144152        	s8i	a5, a1, 20
    5d83:	090c      	movi.n	a9, 0
    5d85:	2c0c      	movi.n	a12, 2
    5d87:	0b51c2        	s16i	a12, a1, 22
    5d8a:	4199      	s32i.n	a9, a1, 16
    5d8c:	74fd51        	l32r	a5, 0xfffe3180
    5d8f:	000bb2        	l8ui	a11, a11, 0
    5d92:	1159      	s32i.n	a5, a1, 4
    5d94:	179b76        	excw
    5d97:	a049a0        	addx4	a4, a9, a10
    5d9a:	0448      	l32i.n	a4, a4, 0
    5d9c:	991b      	addi.n	a9, a9, 1
    5d9e:	0204d2        	l8ui	a13, a4, 2
    5da1:	749090        	extui	a9, a9, 0, 8
    5da4:	054d66        	bnei	a13, 4, 0x5dad
    5da7:	030482        	l8ui	a8, a4, 3
    5daa:	033826        	beqi	a8, 3, 0x5db1
    5dad:	f03d      	nop.n
    5daf:	040c      	movi.n	a4, 0
    5db1:	0f0c      	movi.n	a15, 0
    5db3:	090c      	movi.n	a9, 0
    5db5:	649c      	beqz.n	a4, 0x5dcf
    5db7:	0002c2        	l8ui	a12, a2, 0
    5dba:	0004b2        	l8ui	a11, a4, 0
    5dbd:	1d0c      	movi.n	a13, 1
    5dbf:	0c1bc7        	beq	a11, a12, 0x5dcf
    5dc2:	182472        	l32i	a7, a4, 96
    5dc5:	4388      	l32i.n	a8, a3, 16
    5dc7:	4778      	l32i.n	a7, a7, 16
    5dc9:	c07780        	sub	a7, a7, a8
    5dcc:	937d70        	movnez	a7, a13, a7
    5dcf:	5f          	.byte 0x5f
    5dd0:	3a9905        	call0	0x40764
    5dd3:	f220c1        	l32r	a12, 0x2654 (0xe50c0c40)
    5dd6:	0048      	l32i.n	a4, a0, 0
    5dd8:	034892        	s8i	a9, a8, 3
    5ddb:	0148c2        	s8i	a12, a8, 1
    5dde:	0248b2        	s8i	a11, a8, 2
    5de1:	77ac      	beqz.n	a7, 0x5e0c
    5de3:	130c      	movi.n	a3, 1
    5de5:	5f          	.byte 0x5f
    5de6:	64ba06        	j	0x1f0d2
    5de9:	6159      	s32i.n	a5, a1, 24
    5deb:	7159      	s32i.n	a5, a1, 28
    5ded:	244132        	s8i	a3, a1, 36
    5df0:	18c1b2        	addi	a11, a1, 24
    5df3:	80a0c2        	movi	a12, 128
    5df6:	74fe91        	l32r	a9, 0xfffe31f0
    5df9:	746781        	l32r	a8, 0xfffe2f98
    5dfc:	9a9a      	add.n	a9, a10, a9
    5dfe:	202882        	l32i	a8, a8, 128
    5e01:	04ad      	mov.n	a10, a4
    5e03:	8199      	s32i.n	a9, a1, 32
    5e05:	0008e0        	excw
    5e08:	81f8      	l32i.n	a15, a1, 32
    5e0a:	740031        	l32r	a3, 0xfffe2e0c
    5e0d:	5f          	.byte 0x5f
    5e0e:	028206        	j	0x681a
    5e11:	744d81        	l32r	a8, 0xfffe2f48
    5e14:	6d0c      	movi.n	a13, 6
    5e16:	4888      	l32i.n	a8, a8, 16
    5e18:	5f          	.byte 0x5f
    5e19:	618605        	call0	0x6767c
    5e1c:	06bd      	mov.n	a11, a6
    5e1e:	a12382        	l32i	a8, a3, 0x284
    5e21:	11da00        	slli	a13, a10, 16
    5e24:	0002c2        	l8ui	a12, a2, 0
    5e27:	0a2d      	mov.n	a2, a10
    5e29:	20ccd0        	or	a12, a12, a13
    5e2c:	5fffa1        	l32r	a10, 0xfffdde28
    5e2f:	a808      	l32i.n	a0, a8, 40
    5e31:	813c      	movi.n	a1, 56
    5e33:	090c00        	excw
    5e36:	8c26a2        	l32i	a10, a6, 0x230
    5e39:	7495b1        	l32r	a11, 0xfffe3090
    5e3c:	368c      	beqz.n	a6, 0x5e43
    5e3e:	180c      	movi.n	a8, 1
    5e40:	0f5fa0        	excw
    5e43:	2739b2        	excw
    5e46:	0d1a      	add.n	a0, a13, a1
    5e48:	01dba2        	addmi	a10, a11, 0x100
    5e4b:	31caa2        	addi	a10, a10, 49
    5e4e:	0020c0        	memw
    5e51:	0aa8      	l32i.n	a10, a10, 0
    5e53:	0020c0        	memw
    5e56:	5f          	.byte 0x5f
    5e57:	4baa06        	j	0x18d03
    5e5a:	5f          	.byte 0x5f
    5e5b:	8208      	l32i.n	a0, a2, 32
    5e5d:	5f7112        	excw
    5e60:	128205        	call0	0x18684
    5e63:	065f27        	bbc	a15, a2, 0x5e6d
    5e66:	391282        	l16ui	a8, a2, 114
    5e69:	414201        	l32r	a0, 0xfffd6374
    5e6c:	216914        	excw
    5e6f:	3159      	s32i.n	a5, a1, 12
    5e71:	5f          	.byte 0x5f
    5e72:	8208      	l32i.n	a0, a2, 32
    5e74:	817d      	excw
    5e76:	744d      	excw
    5e78:	74fda1        	l32r	a10, 0xfffe326c
    5e7b:	0b0c      	movi.n	a11, 0
    5e7d:	290c      	movi.n	a9, 2
    5e7f:	0b5192        	s16i	a9, a1, 22
    5e82:	41b9      	s32i.n	a11, a1, 16
    5e84:	11a9      	s32i.n	a10, a1, 4
    5e86:	5f          	.byte 0x5f
    5e87:	05fb07        	bbsi	a11, 16, 0x5e90
    5e8a:	05bd      	mov.n	a11, a5
    5e8c:	5f2782        	l32i	a8, a7, 0x17c
    5e8f:	0d8114        	excw
    5e92:	004136        	excw
    5e95:	742b31        	l32r	a3, 0xfffe2f44
    5e98:	020c      	movi.n	a2, 0
    5e9a:	000332        	l8ui	a3, a3, 0
    5e9d:	746451        	l32r	a5, 0xfffe3030
    5ea0:	1b9376        	excw
    5ea3:	5f          	.byte 0x5f
    5ea4:	53bd05        	call0	0x59a78
    5ea7:	221b      	addi.n	a2, a2, 1
    5ea9:	010482        	l8ui	a8, a4, 1
    5eac:	742020        	extui	a2, a2, 0, 8
    5eaf:	092866        	bnei	a8, 2, 0x5ebc
    5eb2:	030482        	l8ui	a8, a4, 3
    5eb5:	5f3866        	bnei	a8, 3, 0x5f18
    5eb8:	32c705        	call0	0x38b2c
    5ebb:	5f3d      	excw
    5ebd:	c709      	s32i.n	a0, a7, 48
    5ebf:	004134        	excw
    5ec2:	bf2322        	l32i	a2, a3, 0x2fc
    5ec5:	040c      	movi.n	a4, 0
    5ec7:	6288      	l32i.n	a8, a2, 24
    5ec9:	744d51        	l32r	a5, 0xfffe3000
    5ecc:	2228f6        	bgeui	a8, 2, 0x5ef2
    5ecf:	fffba5        	excw
    5ed2:	1025d2        	l32i	a13, a5, 64
    5ed5:	aa8c      	beqz.n	a10, 0x5ee3
    5ed7:	03ad      	mov.n	a10, a3
    5ed9:	2b0c      	movi.n	a11, 2
    5edb:	5f          	.byte 0x5f
    5edc:	419505        	call0	0x47830
    5edf:	000206        	j	0x5eeb
    5ee2:	5f          	.byte 0x5f
    5ee3:	1c0c05        	call0	0x21fa4
    5ee6:	000de0        	excw
    5ee9:	1c4242        	s8i	a4, a2, 28
    5eec:	5f0746        	j	0x1db0d
    5eef:	820f05        	call0	0xfff87fe0
    5ef2:	5f1025        	excw
    5ef5:	cd08      	l32i.n	a0, a13, 48
    5ef7:	0b18      	l32i.n	a1, a11, 0
    5ef9:	740081        	l32r	a8, 0xfffe2efc
    5efc:	c8a0c2        	movi	a12, 200
    5eff:	5f          	.byte 0x5f
    5f00:	c208      	l32i.n	a0, a2, 48
    5f02:	624953        	excw
    5f05:	5f          	.byte 0x5f
    5f06:	5808      	l32i.n	a0, a8, 20
    5f08:	742b71        	l32r	a7, 0xfffe2fb4
    5f0b:	020c      	movi.n	a2, 0
    5f0d:	000782        	l8ui	a8, a7, 0
    5f10:	740031        	l32r	a3, 0xfffe2f10
    5f13:	a8ac      	beqz.n	a8, 0x5f41
    5f15:	746451        	l32r	a5, 0xfffe30a8
    5f18:	750061        	l32r	a6, 0xfffe3318
    5f1b:	0a0c      	movi.n	a10, 0
    5f1d:	0b2c      	movi.n	a11, 32
    5f1f:	a04250        	addx4	a4, a2, a5
    5f22:	4388      	l32i.n	a8, a3, 16
    5f24:	5f48      	l32i.n	a4, a15, 20
    5f26:	bd3d04        	excw
    5f29:	64a206        	j	0x1f1b5
    5f2c:	bf          	.byte 0xbf
    5f2d:	702382        	l32i	a8, a3, 0x1c0
    5f30:	5f          	.byte 0x5f
    5f31:	924a05        	call0	0xfff983d4
    5f34:	065f07        	bbc	a15, a0, 0x5f3e
    5f37:	be          	.byte 0xbe
    5f38:	329733        	excw
    5f3b:	5fd9      	s32i.n	a13, a15, 20
    5f3d:	6c9607        	bne	a6, a0, 0x5fad
    5f40:	750191        	l32r	a9, 0xfffe3344
    5f43:	750321        	l32r	a2, 0xfffe3350
    5f46:	745131        	l32r	a3, 0xfffe308c
    5f49:	750281        	l32r	a8, 0xfffe3354
    5f4c:	0389      	s32i.n	a8, a3, 0
    5f4e:	4329      	s32i.n	a2, a3, 16
    5f50:	2399      	s32i.n	a9, a3, 8
    5f52:	5f          	.byte 0x5f
    5f53:	44e407        	bbsi	a4, 0, 0x5f9b
    5f56:	920302        	l8ui	a0, a3, 146
    5f59:	660202        	l8ui	a0, a2, 102
    5f5c:	0e38      	l32i.n	a3, a14, 0
    5f5e:	0f2966        	bnei	a9, 2, 0x5f71
    5f61:	20a220        	or	a10, a2, a2
    5f64:	febae5        	excw
    5f67:	202aa0        	or	a2, a10, a10
    5f6a:	065f90        	excw
    5f6d:	768a81        	l32r	a8, 0xfffe3998
    5f70:	5f          	.byte 0x5f
    5f71:	43a807        	bge	a8, a0, 0x5fb8
    5f74:	5f          	.byte 0x5f
    5f75:	20c906        	j	0xe29d
    5f78:	5c2fd5        	excw
    5f7b:	8708      	l32i.n	a0, a7, 32
    5f7d:	262a15        	excw
    5f80:	9227e5        	excw
    5f83:	a20102        	l8ui	a0, a1, 162
    5f86:	660302        	l8ui	a0, a3, 102
    5f89:	0129      	s32i.n	a2, a1, 0
    5f8b:	7a9c      	beqz.n	a10, 0x5fa6
    5f8d:	02ad      	mov.n	a10, a2
    5f8f:	5fb8      	l32i.n	a11, a15, 20
    5f91:	6bcc06        	j	0x20ec5
    5f94:	ef          	.byte 0xef
    5f95:	06ed74        	excw
    5f98:	1b2882        	l32i	a8, a8, 108
    5f9b:	5f          	.byte 0x5f
    5f9c:	fb09      	s32i.n	a0, a11, 60
    5f9e:	5f6a      	add.n	a5, a15, a6
    5fa0:	5f3f04        	excw
    5fa3:	8908      	l32i.n	a0, a9, 32
    5fa5:	7f          	.byte 0x7f
    5fa6:	5f4281        	l32r	a8, 0xfffddcb0
    5fa9:	638505        	call0	0x697fc
    5fac:	055f16        	beqz	a15, 0x6005
    5faf:	7dab      	addi.n	a7, a13, 10
    5fb1:	5f          	.byte 0x5f
    5fb2:	d608      	l32i.n	a0, a6, 52
    5fb4:	c218      	l32i.n	a1, a2, 48
    5fb6:	0cf0a0        	excw
    5fb9:	583a      	add.n	a5, a8, a3
    5fbb:	1b0c44        	excw
    5fbe:	206532        	s32i	a3, a5, 128
    5fc1:	1f2592        	l32i	a9, a5, 124
    5fc4:	242562        	l32i	a6, a5, 144
    5fc7:	2099b0        	or	a9, a9, a11
    5fca:	0006b2        	l8ui	a11, a6, 0
    5fcd:	1f6592        	s32i	a9, a5, 124
    5fd0:	7845a2        	s8i	a10, a5, 120
    5fd3:	10bbc0        	and	a11, a11, a12
    5fd6:	09eb26        	beqi	a11, 128, 0x5fe3
    5fd9:	b0cbd2        	addi	a13, a11, -80
    5fdc:	0c0c      	movi.n	a12, 0
    5fde:	4a0c      	movi.n	a10, 4
    5fe0:	93acd0        	movnez	a10, a12, a13
    5fe3:	7545a2        	s8i	a10, a5, 117
    5fe6:	0406e2        	l8ui	a14, a6, 4
    5fe9:	071c      	movi.n	a7, 16
    5feb:	086e07        	bbci	a14, 0, 0x5ff7
    5fee:	7504f1        	l32r	a15, 0xfffe3400
    5ff1:	2099f0        	or	a9, a9, a15
    5ff4:	1f6592        	s32i	a9, a5, 124
    5ff7:	010682        	l8ui	a8, a6, 1
    5ffa:	086867        	bbci	a8, 6, 0x6006
    5ffd:	060316        	beqz	a3, 0x6061
    6000:	055f70        	extui	a5, a7, 31, 1
    6003:	0f          	.byte 0xf
    6004:	047967        	bbci	a9, 22, 0x600c
    6007:	f298      	l32i.n	a9, a2, 60
    6009:	106987        	bbci	a9, 8, 0x601d
    600c:	0512a2        	l16ui	a10, a2, 10
    600f:	ca1b      	addi.n	a12, a10, 1
    6011:	11aac0        	slli	a10, a10, 4
    6014:	b4c0c0        	extui	a12, a12, 0, 12
    6017:	0552c2        	s16i	a12, a2, 10
    601a:	0b56a2        	s16i	a10, a6, 22
    601d:	0302d2        	l8ui	a13, a2, 3
    6020:	d0a0e2        	movi	a14, 208
    6023:	183d66        	bnei	a13, 3, 0x603f
    6026:	159be7        	bne	a11, a14, 0x603f
    6029:	741181        	l32r	a8, 0xfffe3070
    602c:	122882        	l32i	a8, a8, 72
    602f:	5f          	.byte 0x5f
    6030:	33ab06        	j	0x12ee0
    6033:	927a      	add.n	a9, a2, a7
    6035:	5f0106        	j	0x1dc3d
    6038:	463b04        	excw
    603b:	055f01        	l32r	a0, 0xfffc75b8
    603e:	8f          	.byte 0x8f
    603f:	a24c      	movi.n	a2, 74
    6041:	920002        	l8ui	a0, a0, 146
    6044:	a08705        	call0	0xfffa68b8
    6047:	a034a0        	addx4	a3, a4, a10
    604a:	2099      	s32i.n	a9, a0, 8
    604c:	874592        	s8i	a9, a5, 135
    604f:	152882        	l32i	a8, a8, 84
    6052:	5f          	.byte 0x5f
    6053:	8b09      	s32i.n	a0, a11, 32
    6055:	2e          	.byte 0x2e
    6056:	5f7c      	movi.n	a15, -11
    6058:	70e607        	bbsi	a6, 0, 0x60cc
    605b:	7505a1        	l32r	a10, 0xfffe3470
    605e:	750721        	l32r	a2, 0xfffe347c
    6061:	74ef31        	l32r	a3, 0xfffe3420
    6064:	744191        	l32r	a9, 0xfffe3168
    6067:	750681        	l32r	a8, 0xfffe3480
    606a:	1a6982        	s32i	a8, a9, 104
    606d:	1d6322        	s32i	a2, a3, 116
    6070:	1c69a2        	s32i	a10, a9, 112
    6073:	5f          	.byte 0x5f
    6074:	f709      	s32i.n	a0, a7, 60
    6076:	0828      	l32i.n	a2, a8, 0
    6078:	09a175        	excw
    607b:	029275        	excw
    607e:	1ab800        	excw
    6081:	070916        	beqz	a9, 0x60f5
    6084:	7b2966        	bnei	a9, 2, 0x6103
    6087:	1a88      	l32i.n	a8, a10, 4
    6089:	0112a2        	l16ui	a10, a2, 2
    608c:	054866        	bnei	a8, 4, 0x6095
    608f:	021292        	l16ui	a9, a2, 4
    6092:	06d956        	bnez	a9, 0x6103
    6095:	06aa56        	bnez	a10, 0x6103
    6098:	021292        	l16ui	a9, a2, 4
    609b:	130c      	movi.n	a3, 1
    609d:	076916        	beqz	a9, 0x6117
    60a0:	34a090        	extui	a10, a9, 0, 4
    60a3:	750a41        	l32r	a4, 0xfffe34cc
    60a6:	716977        	bbci	a9, 7, 0x611b
    60a9:	0b0c      	movi.n	a11, 0
    60ab:	750c81        	l32r	a8, 0xfffe34dc
    60ae:	0008e0        	excw
    60b1:	9aac      	beqz.n	a10, 0x60de
    60b3:	0212e2        	l16ui	a14, a2, 4
    60b6:	04c8      	l32i.n	a12, a4, 0
    60b8:	34e0e0        	extui	a14, a14, 0, 4
    60bb:	401e00        	ssl	a14
    60be:	a1d300        	sll	a13, a3
    60c1:	0020c0        	memw
    60c4:	ea1cb2        	l16ui	a11, a12, 0x1d4
    60c7:	20bbd0        	or	a11, a11, a13
    60ca:	5f          	.byte 0x5f
    60cb:	5c0904        	excw
    60ce:	a2ea      	add.n	a10, a2, a14
    60d0:	0c0212        	l8ui	a1, a2, 12
    60d3:	a00b      	addi.n	a10, a0, -1
    60d5:	8134a0        	src	a3, a4, a10
    60d8:	5f0d      	excw
    60da:	922d04        	excw
    60dd:	880212        	l8ui	a1, a2, 136
    60e0:	5f          	.byte 0x5f
    60e1:	77c705        	call0	0x7dd54
    60e4:	f0a1f3        	excw
    60e7:	c034f0        	sub	a3, a4, a15
    60ea:	f20020        	excw
    60ed:	ee58      	l32i.n	a5, a14, 56
    60ef:	000846        	j	0x6114
    60f2:	044b66        	bnei	a11, 4, 0x60fa
    60f5:	0212c2        	l16ui	a12, a2, 4
    60f8:	4ccc      	bnez.n	a12, 0x6100
    60fa:	0112d2        	l16ui	a13, a2, 2
    60fd:	041d26        	beqi	a13, 1, 0x6105
    6100:	5f          	.byte 0x5f
    6101:	4fb605        	call0	0x55c64
    6104:	750bf1        	l32r	a15, 0xfffe3530
    6107:	040fe2        	l8ui	a14, a15, 4
    610a:	fda082        	movi	a8, 253
    610d:	10ee80        	and	a14, a14, a8
    6110:	044fe2        	s8i	a14, a15, 4
    6113:	5f          	.byte 0x5f
    6114:	a58106        	j	0xfffef71c
    6117:	1f          	.byte 0x1f
    6118:	5f          	.byte 0x5f
    6119:	bc7206        	j	0xffff52e5
    611c:	5f5a      	add.n	a5, a15, a5
    611e:	5f7205        	call0	0x65840
    6121:	d06f06        	j	0xffffa2e1
    6124:	045fd0        	extui	a5, a13, 15, 1
    6127:	1cb247        	bgeu	a2, a4, 0x6147
    612a:	5feb      	addi.n	a5, a15, 14
    612c:	7208      	l32i.n	a0, a2, 28
    612e:	5feb      	addi.n	a5, a15, 14
    6130:	1b7204        	excw
    6133:	5f          	.byte 0x5f
    6134:	7209      	s32i.n	a0, a2, 28
    6136:	0212a2        	l16ui	a10, a2, 4
    6139:	5f          	.byte 0x5f
    613a:	0e0c04        	excw
    613d:	5f          	.byte 0x5f
    613e:	d20c04        	excw
    6141:	5f          	.byte 0x5f
    6142:	1d3705        	call0	0x234b4
    6145:	b30040        	movgez	a0, a0, a4
    6148:	b0b0a1        	l32r	a10, 0xffff2408
    614b:	5f          	.byte 0x5f
    614c:	5c3705        	call0	0x624c0
    614f:	ef          	.byte 0xef
    6150:	ffe8c6        	j	0x60f7
    6153:	004136        	excw
    6156:	050c      	movi.n	a5, 0
    6158:	750f41        	l32r	a4, 0xfffe3594
    615b:	092c      	movi.n	a9, 32
    615d:	740331        	l32r	a3, 0xfffe316c
    6160:	7510a1        	l32r	a10, 0xfffe35a0
    6163:	ad2382        	l32i	a8, a3, 0x2b4
    6166:	ae63a2        	s32i	a10, a3, 0x2b8
    6169:	208890        	or	a8, a8, a9
    616c:	ad6382        	s32i	a8, a3, 0x2b4
    616f:	7511f1        	l32r	a15, 0xfffe35b4
    6172:	740021        	l32r	a2, 0xfffe3174
    6175:	812332        	l32i	a3, a3, 0x204
    6178:	0020c0        	memw
    617b:	7480a1        	l32r	a10, 0xfffe337c
    617e:	802f92        	l32i	a9, a15, 0x200
    6181:	5f99a0        	excw
    6184:	926804        	excw
    6187:	6f          	.byte 0x6f
    6188:	128180        	excw
    618b:	20c075        	excw
    618e:	2fe200        	excw
    6191:	ee8080        	excw
    6194:	20c010        	or	a12, a0, a1
    6197:	04ad00        	extui	a10, a0, 13, 1
    619a:	7513b1        	l32r	a11, 0xfffe35e8
    619d:	4c0c      	movi.n	a12, 4
    619f:	7514d1        	l32r	a13, 0xfffe35f0
    61a2:	3f2282        	l32i	a8, a2, 252
    61a5:	806fe2        	s32i	a14, a15, 0x200
    61a8:	004d52        	s8i	a5, a13, 0
    61ab:	014d52        	s8i	a5, a13, 1
    61ae:	024d52        	s8i	a5, a13, 2
    61b1:	5f4d52        	s8i	a5, a13, 95
    61b4:	339905        	call0	0x39b48
    61b7:	15a103        	excw
    61ba:	5f          	.byte 0x5f
    61bb:	c21a04        	excw
    61be:	5ff0a0        	excw
    61c1:	369a05        	call0	0x3cb64
    61c4:	0c0c      	movi.n	a12, 0
    61c6:	3a0c      	movi.n	a10, 3
    61c8:	418840        	srli	a8, a4, 8
    61cb:	d0a392        	movi	a9, 0x3d0
    61ce:	7516e1        	l32r	a14, 0xfffe3628
    61d1:	3f0c      	movi.n	a15, 3
    61d3:	0c4e42        	s8i	a4, a14, 12
    61d6:	084ee2        	s8i	a14, a14, 8
    61d9:	104ee2        	s8i	a14, a14, 16
    61dc:	054ef2        	s8i	a15, a14, 5
    61df:	064e92        	s8i	a9, a14, 6
    61e2:	044e92        	s8i	a9, a14, 4
    61e5:	0d4e82        	s8i	a8, a14, 13
    61e8:	41d8e0        	srli	a13, a14, 8
    61eb:	034ea2        	s8i	a10, a14, 3
    61ee:	055fc2        	s16i	a12, a15, 10
    61f1:	6eeb      	addi.n	a6, a14, 14
    61f3:	7518c1        	l32r	a12, 0xfffe3654
    61f6:	7519b1        	l32r	a11, 0xfffe365c
    61f9:	7517a1        	l32r	a10, 0xfffe3658
    61fc:	114ed2        	s8i	a13, a14, 17
    61ff:	094ed2        	s8i	a13, a14, 9
    6202:	418880        	srli	a8, a8, 8
    6205:	0e4e82        	s8i	a8, a14, 14
    6208:	00a392        	movi	a9, 0x300
    620b:	418880        	srli	a8, a8, 8
    620e:	024e92        	s8i	a9, a14, 2
    6211:	41d8d0        	srli	a13, a13, 8
    6214:	191c      	movi.n	a9, 17
    6216:	124ed2        	s8i	a13, a14, 18
    6219:	0f4e82        	s8i	a8, a14, 15
    621c:	0a4ed2        	s8i	a13, a14, 10
    621f:	380c      	movi.n	a8, 3
    6221:	074e82        	s8i	a8, a14, 7
    6224:	41d8d0        	srli	a13, a13, 8
    6227:	134ed2        	s8i	a13, a14, 19
    622a:	0b4ed2        	s8i	a13, a14, 11
    622d:	752282        	l32i	a8, a2, 0x1d4
    6230:	2d0c      	movi.n	a13, 2
    6232:	7d6ae2        	s32i	a14, a10, 0x1f4
    6235:	836a52        	s32i	a5, a10, 0x20c
    6238:	7f6a52        	s32i	a5, a10, 0x1fc
    623b:	806ad2        	s32i	a13, a10, 0x200
    623e:	7f6cb2        	s32i	a11, a12, 0x1fc
    6241:	7e6a92        	s32i	a9, a10, 0x1f8
    6244:	4a0c      	movi.n	a10, 4
    6246:	5f          	.byte 0x5f
    6247:	38eb05        	call0	0x3f0f8
    624a:	5f7a      	add.n	a5, a15, a7
    624c:	69bf05        	call0	0x6fe40
    624f:	5fff06        	j	0x1e24f
    6252:	14af06        	j	0xb512
    6255:	7400a1        	l32r	a10, 0xfffe3258
    6258:	562a92        	l32i	a9, a10, 0x158
    625b:	1998      	l32i.n	a9, a9, 4
    625d:	025926        	beqi	a9, 5, 0x6263
    6260:	106966        	bnei	a9, 6, 0x6274
    6263:	522a82        	l32i	a8, a10, 0x148
    6266:	751aa1        	l32r	a10, 0xfffe36d0
    6269:	751b91        	l32r	a9, 0xfffe36d8
    626c:	ea99      	s32i.n	a9, a10, 56
    626e:	751ca1        	l32r	a10, 0xfffe36e0
    6271:	5f          	.byte 0x5f
    6272:	5c8806        	j	0x1d496
    6275:	0c00e1        	l32r	a14, 0xfffc9278
    6278:	030c06        	j	0x6eac
    627b:	070c      	movi.n	a7, 0
    627d:	01ad      	mov.n	a10, a1
    627f:	751db1        	l32r	a11, 0xfffe36f4
    6282:	cc0c      	movi.n	a12, 12
    6284:	d149      	s32i.n	a4, a1, 52
    6286:	106122        	s32i	a2, a1, 64
    6289:	c159      	s32i.n	a5, a1, 48
    628b:	020c      	movi.n	a2, 0
    628d:	150c      	movi.n	a5, 1
    628f:	102142        	l32i	a4, a1, 64
    6292:	f159      	s32i.n	a5, a1, 60
    6294:	5f          	.byte 0x5f
    6295:	898106        	j	0xfffe889d
    6298:	980a      	add.n	a9, a8, a0
    629a:	2bb1f1        	l32r	a15, 0xfffd1160
    629d:	64a174        	excw
    62a0:	0bb274        	excw
    62a3:	01dd00        	slli	a13, a13, 32
    62a6:	3b9b76        	excw
    62a9:	0ab8      	l32i.n	a11, a10, 0
    62ab:	030bc2        	l8ui	a12, a11, 3
    62ae:	aa4b      	addi.n	a10, a10, 4
    62b0:	2f3c66        	bnei	a12, 3, 0x62e3
    62b3:	010bc2        	l8ui	a12, a11, 1
    62b6:	0c1c66        	bnei	a12, 1, 0x62c6
    62b9:	a087d0        	addx4	a8, a7, a13
    62bc:	08b9      	s32i.n	a11, a8, 0
    62be:	771b      	addi.n	a7, a7, 1
    62c0:	747070        	extui	a7, a7, 0, 8
    62c3:	0001c6        	j	0x62ce
    62c6:	042c66        	bnei	a12, 2, 0x62ce
    62c9:	5f          	.byte 0x5f
    62ca:	728705        	call0	0x78b3c
    62cd:	182bb2        	l32i	a11, a11, 96
    62d0:	4bb8      	l32i.n	a11, a11, 16
    62d2:	001bb2        	l16ui	a11, a11, 0
    62d5:	36cc      	bnez.n	a6, 0x62dc
    62d7:	0b6d      	mov.n	a6, a11
    62d9:	000146        	j	0x62e2
    62dc:	c0cb60        	sub	a12, a11, a6
    62df:	9335c0        	movnez	a3, a5, a12
    62e2:	f03d      	nop.n
    62e4:	0104a2        	l8ui	a10, a4, 1
    62e7:	060c      	movi.n	a6, 0
    62e9:	051a66        	bnei	a10, 1, 0x62f2
    62ec:	038c      	beqz.n	a3, 0x62f0
    62ee:	02cc      	bnez.n	a2, 0x62f2
    62f0:	090c      	movi.n	a9, 0
    62f2:	1ce916        	beqz	a9, 0x64c4
    62f5:	1524d2        	l32i	a13, a4, 84
    62f8:	751e21        	l32r	a2, 0xfffe3770
    62fb:	070dd2        	l8ui	a13, a13, 7
    62fe:	d1f8      	l32i.n	a15, a1, 52
    6300:	7dcc      	bnez.n	a13, 0x630b
    6302:	0e0c      	movi.n	a14, 0
    6304:	0fe9      	s32i.n	a14, a15, 0
    6306:	02e9      	s32i.n	a14, a2, 0
    6308:	006b06        	j	0x64b8
    630b:	04ad      	mov.n	a10, a4
    630d:	5f          	.byte 0x5f
    630e:	b409      	s32i.n	a0, a4, 44
    6310:	5f0c32        	l8ui	a3, a12, 95
    6313:	249d06        	j	0xf58b
    6316:	c888      	l32i.n	a8, a8, 48
    6318:	3104a2        	l8ui	a10, a4, 49
    631b:	0008e0        	excw
    631e:	0c1c      	movi.n	a12, 16
    6320:	a1b9      	s32i.n	a11, a1, 40
    6322:	91a9      	s32i.n	a10, a1, 36
    6324:	5f1181        	l32r	a8, 0xfffddf68
    6327:	45f605        	call0	0x4c288
    632a:	5f18      	l32i.n	a1, a15, 20
    632c:	03b905        	call0	0x9ec0
    632f:	751e21        	l32r	a2, 0xfffe37a8
    6332:	0228      	l32i.n	a2, a2, 0
    6334:	f2cc      	bnez.n	a2, 0x6347
    6336:	010482        	l8ui	a8, a4, 1
    6339:	0a2866        	bnei	a8, 2, 0x6347
    633c:	182422        	l32i	a2, a4, 96
    633f:	751e91        	l32r	a9, 0xfffe37b8
    6342:	141222        	l16ui	a2, a2, 40
    6345:	0929      	s32i.n	a2, a9, 0
    6347:	179316        	beqz	a3, 0x64c4
    634a:	870b      	addi.n	a8, a7, -1
    634c:	0bc856        	bnez	a8, 0x640c
    634f:	742b91        	l32r	a9, 0xfffe33fc
    6352:	000992        	l8ui	a9, a9, 0
    6355:	7464a1        	l32r	a10, 0xfffe34e8
    6358:	109976        	excw
    635b:	0ab8      	l32i.n	a11, a10, 0
    635d:	010bc2        	l8ui	a12, a11, 1
    6360:	aa4b      	addi.n	a10, a10, 4
    6362:	042c66        	bnei	a12, 2, 0x636a
    6365:	0b6d      	mov.n	a6, a11
    6367:	000046        	j	0x636c
    636a:	f03d      	nop.n
    636c:	742571        	l32r	a7, 0xfffe3400
    636f:	06ad      	mov.n	a10, a6
    6371:	055f31        	l32r	a3, 0xfffc78f0
    6374:	236d      	excw
    6376:	5f          	.byte 0x5f
    6377:	a26d06        	j	0xfffeed2f
    637a:	881524        	excw
    637d:	0aa2c7        	bge	a2, a12, 0x638b
    6380:	0e          	.byte 0xe
    6381:	5f          	.byte 0x5f
    6382:	52a506        	j	0x1ae1a
    6385:	811c      	movi.n	a1, 24
    6387:	74fc      	bnez.n	a4, 0x63c2
    6389:	0a2d      	mov.n	a2, a10
    638b:	5888      	l32i.n	a8, a8, 20
    638d:	01a8      	l32i.n	a10, a1, 0
    638f:	0008e0        	excw
    6392:	c0aa20        	sub	a10, a10, a2
    6395:	751e21        	l32r	a2, 0xfffe3810
    6398:	41aaa0        	srli	a10, a10, 10
    639b:	0228      	l32i.n	a2, a2, 0
    639d:	61a9      	s32i.n	a10, a1, 24
    639f:	925b      	addi.n	a9, a2, 5
    63a1:	5fb9a7        	bgeu	a9, a10, 0x6404
    63a4:	d70d      	excw
    63a6:	152475        	excw
    63a9:	41a220        	srli	a10, a2, 2
    63ac:	070bb2        	l8ui	a11, a11, 7
    63af:	419120        	srli	a9, a2, 1
    63b2:	ffcbc2        	addi	a12, a11, -1
    63b5:	939ac0        	movnez	a9, a10, a12
    63b8:	20a220        	or	a10, a2, a2
    63bb:	056192        	s32i	a9, a1, 20
    63be:	06b625        	excw
    63c1:	41a9      	s32i.n	a10, a1, 16
    63c3:	c788      	l32i.n	a8, a7, 48
    63c5:	3106a2        	l8ui	a10, a6, 49
    63c8:	0008e0        	excw
    63cb:	5178      	l32i.n	a7, a1, 20
    63cd:	0c1c      	movi.n	a12, 16
    63cf:	182382        	l32i	a8, a3, 96
    63d2:	0a2d      	mov.n	a2, a10
    63d4:	0b3d      	mov.n	a3, a11
    63d6:	06ad      	mov.n	a10, a6
    63d8:	5f          	.byte 0x5f
    63d9:	3e8105        	call0	0x44bec
    63dc:	61a8      	l32i.n	a10, a1, 24
    63de:	404a00        	ssai	10
    63e1:	81b320        	src	a11, a3, a2
    63e4:	9a7a      	add.n	a9, a10, a7
    63e6:	751e21        	l32r	a2, 0xfffe3860
    63e9:	b7ba      	add.n	a11, a7, a11
    63eb:	0228      	l32i.n	a2, a2, 0
    63ed:	aaba      	add.n	a10, a10, a11
    63ef:	023297        	bltu	a2, a9, 0x63f5
    63f2:	007506        	j	0x65ca
    63f5:	c03a20        	sub	a3, a10, a2
    63f8:	007446        	j	0x65cd
    63fb:	0b4316        	beqz	a3, 0x64b3
    63fe:	fec7c2        	addi	a12, a7, -2
    6401:	0aec56        	bnez	a12, 0x64b3
    6404:	742bd1        	l32r	a13, 0xfffe34b0
    6407:	5f0dd2        	l8ui	a13, a13, 95
    640a:	468105        	call0	0x4cc1c
    640d:	729d      	excw
    640f:	0ab8      	l32i.n	a11, a10, 0
    6411:	010be2        	l8ui	a14, a11, 1
    6414:	04caa2        	addi	a10, a10, 4
    6417:	652e66        	bnei	a14, 2, 0x6480
    641a:	206bb0        	or	a6, a11, a11
    641d:	742571        	l32r	a7, 0xfffe34b4
    6420:	74fc21        	l32r	a2, 0xfffe3810
    6423:	20a660        	or	a10, a6, a6
    6426:	5f          	.byte 0x5f
    6427:	811c      	movi.n	a1, 24
    6429:	71a947        	bge	a9, a4, 0x649e
    642c:	5288      	l32i.n	a8, a2, 20
    642e:	5f          	.byte 0x5f
    642f:	448105        	call0	0x4ac40
    6432:	5f          	.byte 0x5f
    6433:	880d04        	excw
    6436:	0a2d52        	l32i	a5, a13, 40
    6439:	11a8      	l32i.n	a10, a1, 4
    643b:	5f          	.byte 0x5f
    643c:	7be105        	call0	0x82250
    643f:	c0c2b0        	sub	a12, a2, a11
    6442:	41cac0        	srli	a12, a12, 10
    6445:	751e21        	l32r	a2, 0xfffe38c0
    6448:	c0bab0        	sub	a11, a10, a11
    644b:	41bab0        	srli	a11, a11, 10
    644e:	0228      	l32i.n	a2, a2, 0
    6450:	02bcb7        	bgeu	a12, a11, 0x6456
    6453:	0037c6        	j	0x6536
    6456:	c0acb0        	sub	a10, a12, a11
    6459:	b1c9      	s32i.n	a12, a1, 44
    645b:	02bd      	mov.n	a11, a2
    645d:	06af65        	excw
    6460:	0a2d      	mov.n	a2, a10
    6462:	003786        	j	0x6544
    6465:	f03d      	nop.n
    6467:	ffe5c6        	j	0x6402
    646a:	751ea1        	l32r	a10, 0xfffe38e4
    646d:	0702b2        	l8ui	a11, a2, 7
    6470:	002aa2        	l32i	a10, a10, 0
    6473:	06a925        	excw
    6476:	0d21c2        	l32i	a12, a1, 52
    6479:	11ba60        	slli	a11, a10, 10
    647c:	016cb2        	s32i	a11, a12, 4
    647f:	0104a2        	l8ui	a10, a4, 1
    6482:	190c      	movi.n	a9, 1
    6484:	c1d8      	l32i.n	a13, a1, 48
    6486:	8acc      	bnez.n	a10, 0x6492
    6488:	3104a2        	l8ui	a10, a4, 49
    648b:	004da2        	s8i	a10, a13, 0
    648e:	092d      	mov.n	a2, a9
    6490:	f01d      	excw
    6492:	05ad      	mov.n	a10, a5
    6494:	fffcc6        	j	0x648b
    6497:	20a220        	or	a10, a2, a2
    649a:	092132        	l32i	a3, a1, 36
    649d:	1524b2        	l32i	a11, a4, 84
    64a0:	a168      	l32i.n	a6, a1, 40
    64a2:	070bb2        	l8ui	a11, a11, 7
    64a5:	06a5e5        	excw
    64a8:	0abd      	mov.n	a11, a10
    64aa:	404a00        	ssai	10
    64ad:	11da60        	slli	a13, a10, 10
    64b0:	e1d9      	s32i.n	a13, a1, 56
    64b2:	81c630        	src	a12, a6, a3
    64b5:	0cad      	mov.n	a10, a12
    64b7:	06a4e5        	excw
    64ba:	744281        	l32r	a8, 0xfffe35c4
    64bd:	aa1b      	addi.n	a10, a10, 1
    64bf:	e198      	l32i.n	a9, a1, 56
    64c1:	00a2c2        	movi	a12, 0x200
    64c4:	d1b8      	l32i.n	a11, a1, 52
    64c6:	7471d1        	l32r	a13, 0xfffe368c
    64c9:	045bd2        	s16i	a13, a11, 8
    64cc:	055bc2        	s16i	a12, a11, 10
    64cf:	8299a0        	mull	a9, a9, a10
    64d2:	1a2882        	l32i	a8, a8, 104
    64d5:	04ad      	mov.n	a10, a4
    64d7:	0b99      	s32i.n	a9, a11, 0
    64d9:	0008e0        	excw
    64dc:	055f61        	l32r	a6, 0xfffc7a58
    64df:	6ccb      	addi.n	a6, a12, 12
    64e1:	000662        	l8ui	a6, a6, 0
    64e4:	070c      	movi.n	a7, 0
    64e6:	0b2616        	beqz	a6, 0x659c
    64e9:	746431        	l32r	a3, 0xfffe367c
    64ec:	152422        	l32i	a2, a4, 84
    64ef:	050c      	movi.n	a5, 0
    64f1:	01caa2        	addi	a10, a10, 1
    64f4:	20b660        	or	a11, a6, a6
    64f7:	06a5a5        	excw
    64fa:	7464b1        	l32r	a11, 0xfffe368c
    64fd:	01c772        	addi	a7, a7, 1
    6500:	a09ab0        	addx4	a9, a10, a11
    6503:	0998      	l32i.n	a9, a9, 0
    6505:	0c0c      	movi.n	a12, 0
    6507:	000992        	l8ui	a9, a9, 0
    650a:	0f0282        	l8ui	a8, a2, 15
    650d:	5f0900        	excw
    6510:	77d206        	j	0x2445c
    6513:	2b6114        	excw
    6516:	e18874        	excw
    6519:	0398      	l32i.n	a9, a3, 0
    651b:	152422        	l32i	a2, a4, 84
    651e:	9369c2        	s32i	a12, a9, 0x24c
    6521:	926952        	s32i	a5, a9, 0x248
    6524:	585a      	add.n	a5, a8, a5
    6526:	000662        	l8ui	a6, a6, 0
    6529:	334b      	addi.n	a3, a3, 4
    652b:	c03767        	bltu	a7, a6, 0x64ef
    652e:	150c      	movi.n	a5, 1
    6530:	ffccc6        	j	0x6467
    6533:	c0abc0        	sub	a10, a11, a12
    6536:	0b61b2        	s32i	a11, a1, 44
    6539:	20b220        	or	a11, a2, a2
    653c:	06a165        	excw
    653f:	0a2d      	mov.n	a2, a10
    6541:	5f          	.byte 0x5f
    6542:	8309      	s32i.n	a0, a3, 32
    6544:	1e          	.byte 0x1e
    6545:	055fb1        	l32r	a11, 0xfffc7ac4
    6548:	b91e83        	excw
    654b:	0a3d81        	l32r	a8, 0xfffc8e40
    654e:	1b0c      	movi.n	a11, 1
    6550:	5f          	.byte 0x5f
    6551:	0e9d05        	call0	0x14f24
    6554:	e91c      	movi.n	a9, 30
    6556:	81a8      	l32i.n	a10, a1, 32
    6558:	404a00        	ssai	10
    655b:	81aa30        	src	a10, a10, a3
    655e:	a7aa      	add.n	a10, a7, a10
    6560:	353927        	bltu	a9, a2, 0x6599
    6563:	28ca32        	addi	a3, a10, 40
    6566:	5f          	.byte 0x5f
    6567:	6e8405        	call0	0x74da8
    656a:	03ad      	mov.n	a10, a3
    656c:	02bd      	mov.n	a11, a2
    656e:	069da5        	excw
    6571:	080c      	movi.n	a8, 0
    6573:	00a2e2        	movi	a14, 0x200
    6576:	7471d1        	l32r	a13, 0xfffe373c
    6579:	d1c8      	l32i.n	a12, a1, 52
    657b:	11b360        	slli	a11, a3, 10
    657e:	c092a0        	sub	a9, a2, a10
    6581:	119960        	slli	a9, a9, 10
    6584:	0cb9      	s32i.n	a11, a12, 0
    6586:	045cd2        	s16i	a13, a12, 8
    6589:	055ce2        	s16i	a14, a12, 10
    658c:	926692        	s32i	a9, a6, 0x248
    658f:	936682        	s32i	a8, a6, 0x24c
    6592:	152422        	l32i	a2, a4, 84
    6595:	ffb186        	j	0x645f
    6598:	8f2c      	movi.n	a15, 40
    659a:	703f27        	bltu	a15, a2, 0x660e
    659d:	1eca32        	addi	a3, a10, 30
    65a0:	fff046        	j	0x6565
    65a3:	203aa0        	or	a3, a10, a10
    65a6:	20a330        	or	a10, a3, a3
    65a9:	20b220        	or	a11, a2, a2
    65ac:	0699e5        	excw
    65af:	742b61        	l32r	a6, 0xfffe365c
    65b2:	00a2b2        	movi	a11, 0x200
    65b5:	747191        	l32r	a9, 0xfffe377c
    65b8:	d188      	l32i.n	a8, a1, 52
    65ba:	117360        	slli	a7, a3, 10
    65bd:	0879      	s32i.n	a7, a8, 0
    65bf:	045892        	s16i	a9, a8, 8
    65c2:	0558b2        	s16i	a11, a8, 10
    65c5:	c0b2a0        	sub	a11, a2, a10
    65c8:	5f          	.byte 0x5f
    65c9:	718106        	j	0x22bd1
    65cc:	a80646        	j	0xffff05e9
    65cf:	065f41        	l32r	a4, 0xfffc7f4c
    65d2:	d17381        	l32r	a8, 0xffffaba0
    65d5:	1f          	.byte 0x1f
    65d6:	03c875        	excw
    65d9:	0f02e2        	l8ui	a14, a2, 15
    65dc:	000cf2        	l8ui	a15, a12, 0
    65df:	334b      	addi.n	a3, a3, 4
    65e1:	5f0f00        	excw
    65e4:	37f606        	j	0x145c0
    65e7:	2b6117        	bbci	a1, 1, 0x6616
    65ea:	080c74        	excw
    65ed:	119b60        	slli	a9, a11, 10
    65f0:	152422        	l32i	a2, a4, 84
    65f3:	bbaa      	add.n	a11, a11, a10
    65f5:	926c92        	s32i	a9, a12, 0x248
    65f8:	936c82        	s32i	a8, a12, 0x24c
    65fb:	0d79      	s32i.n	a7, a13, 0
    65fd:	000662        	l8ui	a6, a6, 0
    6600:	771b      	addi.n	a7, a7, 1
    6602:	cf3767        	bltu	a7, a6, 0x65d5
    6605:	ff9406        	j	0x6459
    6608:	2b3c      	movi.n	a11, 50
    660a:	053b27        	bltu	a11, a2, 0x6613
    660d:	19ca32        	addi	a3, a10, 25
    6610:	ffd2c6        	j	0x655f
    6613:	cc3c      	movi.n	a12, 60
    6615:	053c27        	bltu	a12, a2, 0x661e
    6618:	e7ca32        	addi	a3, a10, -25
    661b:	ffd006        	j	0x655f
    661e:	6d4c      	movi.n	a13, 70
    6620:	053d27        	bltu	a13, a2, 0x6629
    6623:	e2ca32        	addi	a3, a10, -30
    6626:	ffcd46        	j	0x655f
    6629:	d8ca32        	addi	a3, a10, -40
    662c:	ffcbc6        	j	0x655f
    662f:	152422        	l32i	a2, a4, 84
    6632:	5f88c6        	j	0x1e459
    6635:	308806        	j	0x12859
    6638:	74fc31        	l32r	a3, 0xfffe3a28
    663b:	752021        	l32r	a2, 0xfffe3abc
    663e:	6329      	s32i.n	a2, a3, 24
    6640:	5f          	.byte 0x5f
    6641:	8c08      	l32i.n	a0, a12, 32
    6643:	3248      	l32i.n	a4, a2, 12
    6645:	2785a5        	excw
    6648:	3c0333        	excw
    664b:	f01df2        	l16ui	a15, a13, 0x1e0
    664e:	31a642        	movi	a4, 0x631
    6651:	033427        	bltu	a4, a2, 0x6658
    6654:	024c      	movi.n	a2, 64
    6656:	f01d      	excw
    6658:	f3a682        	movi	a8, 0x6f3
    665b:	033827        	bltu	a8, a2, 0x6662
    665e:	124c      	movi.n	a2, 65
    6660:	f01d      	excw
    6662:	cca792        	movi	a9, 0x7cc
    6665:	033927        	bltu	a9, a2, 0x666c
    6668:	224c      	movi.n	a2, 66
    666a:	f01d      	excw
    666c:	7521a1        	l32r	a10, 0xfffe3af0
    666f:	7522b1        	l32r	a11, 0xfffe3af8
    6672:	033a27        	bltu	a10, a2, 0x6679
    6675:	324c      	movi.n	a2, 67
    6677:	f01d      	excw
    6679:	033b27        	bltu	a11, a2, 0x6680
    667c:	424c      	movi.n	a2, 68
    667e:	f01d      	excw
    6680:	7523c1        	l32r	a12, 0xfffe3b0c
    6683:	033c27        	bltu	a12, a2, 0x668a
    6686:	524c      	movi.n	a2, 69
    6688:	f01d      	excw
    668a:	5f4c      	movi.n	a15, 69
    668c:	9009      	s32i.n	a0, a0, 36
    668e:	613c      	movi.n	a1, 54
    6690:	a17524        	excw
    6693:	487525        	excw
    6696:	a17206        	j	0xfffeec62
    6699:	7ae8      	l32i.n	a14, a10, 28
    669b:	055254        	excw
    669e:	7e          	.byte 0x7e
    669f:	18c632        	addi	a3, a6, 24
    66a2:	415150        	srli	a5, a5, 1
    66a5:	454a      	add.n	a4, a5, a4
    66a7:	353a      	add.n	a3, a5, a3
    66a9:	000332        	l8ui	a3, a3, 0
    66ac:	02d442        	addmi	a4, a4, 0x200
    66af:	670442        	l8ui	a4, a4, 103
    66b2:	831b      	addi.n	a8, a3, 1
    66b4:	332b      	addi.n	a3, a3, 2
    66b6:	234400        	excw
    66b9:	b33880        	movgez	a3, a8, a8
    66bc:	213130        	srai	a3, a3, 1
    66bf:	0020c0        	memw
    66c2:	292aa2        	l32i	a10, a10, 164
    66c5:	f4a0a0        	extui	a10, a10, 0, 16
    66c8:	fff725        	excw
    66cb:	0c0c      	movi.n	a12, 0
    66cd:	0698      	l32i.n	a9, a6, 0
    66cf:	aa3a      	add.n	a10, a10, a3
    66d1:	b1caa2        	addi	a10, a10, -79
    66d4:	997a      	add.n	a9, a9, a7
    66d6:	c0a4a0        	sub	a10, a4, a10
    66d9:	23aa00        	excw
    66dc:	043a16        	beqz	a10, 0x6723
    66df:	7526b1        	l32r	a11, 0xfffe3b78
    66e2:	b5ba      	add.n	a11, a5, a11
    66e4:	000bd2        	l8ui	a13, a11, 0
    66e7:	44d0d0        	extui	a13, a13, 0, 5
    66ea:	dada      	add.n	a13, a10, a13
    66ec:	33cde6        	bgei	a13, 32, 0x6723
    66ef:	8109d2        	l8ui	a13, a9, 129
    66f2:	dd1b      	addi.n	a13, a13, 1
    66f4:	8149d2        	s8i	a13, a9, 129
    66f7:	0698      	l32i.n	a9, a6, 0
    66f9:	997a      	add.n	a9, a9, a7
    66fb:	8109d2        	l8ui	a13, a9, 129
    66fe:	113db6        	bltui	a13, 3, 0x6713
    6701:	8149c2        	s8i	a12, a9, 129
    6704:	231a26        	beqi	a10, 1, 0x672b
    6707:	200a26        	beqi	a10, -1, 0x672b
    670a:	190c      	movi.n	a9, 1
    670c:	2e0c      	movi.n	a14, 2
    670e:	02e9      	s32i.n	a14, a2, 0
    6710:	0002c6        	j	0x671f
    6713:	000bf2        	l8ui	a15, a11, 0
    6716:	190c      	movi.n	a9, 1
    6718:	fafa      	add.n	a15, a10, a15
    671a:	004bf2        	s8i	a15, a11, 0
    671d:	0299      	s32i.n	a9, a2, 0
    671f:	092d      	mov.n	a2, a9
    6721:	f01d      	excw
    6723:	8149c2        	s8i	a12, a9, 129
    6726:	0c9d      	mov.n	a9, a12
    6728:	fffcc6        	j	0x671f
    672b:	090c      	movi.n	a9, 0
    672d:	fffb86        	j	0x671f
    6730:	004136        	excw
    6733:	752541        	l32r	a4, 0xfffe3bc8
    6736:	752471        	l32r	a7, 0xfffe3bc8
    6739:	0020c0        	memw
    673c:	252492        	l32i	a9, a4, 148
    673f:	1ac782        	addi	a8, a7, 26
    6742:	828a      	add.n	a8, a2, a8
    6744:	000882        	l8ui	a8, a8, 0
    6747:	0020c0        	memw
    674a:	07d8      	l32i.n	a13, a7, 0
    674c:	256482        	s32i	a8, a4, 148
    674f:	040732        	l8ui	a3, a7, 4
    6752:	48e317        	bbsi	a3, 1, 0x679e
    6755:	dd2a      	add.n	a13, a13, a2
    6757:	02ddd2        	addmi	a13, a13, 0x200
    675a:	670dd2        	l8ui	a13, a13, 103
    675d:	c0afe2        	movi	a14, -64
    6760:	54d0d0        	extui	a13, a13, 0, 6
    6763:	0020c0        	memw
    6766:	2624c2        	l32i	a12, a4, 152
    6769:	10cce0        	and	a12, a12, a14
    676c:	20ccd0        	or	a12, a12, a13
    676f:	0020c0        	memw
    6772:	7527b1        	l32r	a11, 0xfffe3c10
    6775:	7528a1        	l32r	a10, 0xfffe3c18
    6778:	2664c2        	s32i	a12, a4, 152
    677b:	a2aa      	add.n	a10, a2, a10
    677d:	000aa2        	l8ui	a10, a10, 0
    6780:	7529c1        	l32r	a12, 0xfffe3c24
    6783:	23aa00        	excw
    6786:	11aaa0        	slli	a10, a10, 6
    6789:	10aac0        	and	a10, a10, a12
    678c:	5f          	.byte 0x5f
    678d:	265305        	call0	0x2ccc0
    6790:	1099b0        	and	a9, a9, a11
    6793:	5f          	.byte 0x5f
    6794:	738c07        	bany	a12, a0, 0x680b
    6797:	5f2664        	excw
    679a:	008b05        	call0	0x704c
    679d:	b129      	s32i.n	a2, a1, 44
    679f:	a159      	s32i.n	a5, a1, 40
    67a1:	752a71        	l32r	a7, 0xfffe3c4c
    67a4:	9149      	s32i.n	a4, a1, 36
    67a6:	c139      	s32i.n	a3, a1, 48
    67a8:	752441        	l32r	a4, 0xfffe3c38
    67ab:	080c      	movi.n	a8, 0
    67ad:	04b8      	l32i.n	a11, a4, 0
    67af:	e189      	s32i.n	a8, a1, 56
    67b1:	390b92        	l8ui	a9, a11, 57
    67b4:	500ba2        	l8ui	a10, a11, 80
    67b7:	fac9e2        	addi	a14, a9, -6
    67ba:	898c      	beqz.n	a9, 0x67c6
    67bc:	064926        	beqi	a9, 4, 0x67c6
    67bf:	036926        	beqi	a9, 6, 0x67c6
    67c2:	1d0c      	movi.n	a13, 1
    67c4:	e1d9      	s32i.n	a13, a1, 56
    67c6:	1eee16        	beqz	a14, 0x69b8
    67c9:	f9c9f2        	addi	a15, a9, -7
    67cc:	1e8f16        	beqz	a15, 0x69b8
    67cf:	fcc982        	addi	a8, a9, -4
    67d2:	1f1816        	beqz	a8, 0x69c7
    67d5:	fbc9c2        	addi	a12, a9, -5
    67d8:	1ebc16        	beqz	a12, 0x69c7
    67db:	520b32        	l8ui	a3, a11, 82
    67de:	0020c0        	memw
    67e1:	862752        	l32i	a5, a7, 0x218
    67e4:	445550        	extui	a5, a5, 5, 5
    67e7:	5f          	.byte 0x5f
    67e8:	2afe05        	call0	0x317cc
    67eb:	41a9b3        	excw
    67ee:	5f          	.byte 0x5f
    67ef:	4fbf05        	call0	0x563e0
    67f2:	096d      	mov.n	a6, a9
    67f4:	0020c0        	memw
    67f7:	9527e2        	l32i	a14, a7, 0x254
    67fa:	5fe8e0        	excw
    67fd:	27d905        	call0	0x2e590
    6800:	015922        	s16i	a2, a9, 2
    6803:	c1b8      	l32i.n	a11, a1, 48
    6805:	8f2782        	l32i	a8, a7, 0x23c
    6808:	c34b      	addi.n	a12, a3, 4
    680a:	b1d8      	l32i.n	a13, a1, 44
    680c:	51c9      	s32i.n	a12, a1, 20
    680e:	e8a1c2        	movi	a12, 0x1e8
    6811:	0d99      	s32i.n	a9, a13, 0
    6813:	0b99      	s32i.n	a9, a11, 0
    6815:	74d080        	extui	a13, a8, 0, 8
    6818:	91b8      	l32i.n	a11, a1, 36
    681a:	748880        	extui	a8, a8, 8, 8
    681d:	c0dad0        	sub	a13, a10, a13
    6820:	71d9      	s32i.n	a13, a1, 28
    6822:	a1a8      	l32i.n	a10, a1, 40
    6824:	c0ee80        	sub	a14, a14, a8
    6827:	61e9      	s32i.n	a14, a1, 24
    6829:	0b99      	s32i.n	a9, a11, 0
    682b:	0a99      	s32i.n	a9, a10, 0
    682d:	0488      	l32i.n	a8, a4, 0
    682f:	88ca      	add.n	a8, a8, a12
    6831:	3e1882        	l16ui	a8, a8, 124
    6834:	400600        	ssr	a6
    6837:	b18080        	sra	a8, a8
    683a:	048080        	extui	a8, a8, 0, 1
    683d:	163816        	beqz	a8, 0x69a4
    6840:	0bf656        	bnez	a6, 0x6903
    6843:	0020c0        	memw
    6846:	902792        	l32i	a9, a7, 0x240
    6849:	65a090        	extui	a10, a9, 16, 7
    684c:	23b900        	excw
    684f:	21b9      	s32i.n	a11, a1, 8
    6851:	31a9      	s32i.n	a10, a1, 12
    6853:	5fe656        	bnez	a6, 0x6e55
    6856:	d21304        	excw
    6859:	d08827        	bany	a8, a2, 0x682d
    685c:	00f5d0        	excw
    685f:	23dd      	excw
    6861:	f1d9      	s32i.n	a13, a1, 60
    6863:	5f          	.byte 0x5f
    6864:	402105        	call0	0x46a78
    6867:	44e090        	extui	a14, a9, 0, 5
    686a:	d1e9      	s32i.n	a14, a1, 52
    686c:	01b8      	l32i.n	a11, a1, 0
    686e:	ffa052        	movi	a5, 255
    6871:	21a8      	l32i.n	a10, a1, 8
    6873:	7198      	l32i.n	a9, a1, 28
    6875:	31e8      	l32i.n	a14, a1, 12
    6877:	61d8      	l32i.n	a13, a1, 24
    6879:	f1c8      	l32i.n	a12, a1, 60
    687b:	752b81        	l32r	a8, 0xfffe3d28
    687e:	c0c3c0        	sub	a12, a3, a12
    6881:	0888      	l32i.n	a8, a8, 0
    6883:	82dde0        	mull	a13, a13, a14
    6886:	5f          	.byte 0x5f
    6887:	5f8705        	call0	0x660f8
    688a:	a0a210        	addx4	a10, a2, a1
    688d:	99aa80        	excw
    6890:	40cdd2        	addi	a13, a13, 64
    6893:	d1a8      	l32i.n	a10, a1, 52
    6895:	21d7d0        	srai	a13, a13, 7
    6898:	595a      	add.n	a5, a9, a5
    689a:	b35990        	movgez	a5, a9, a9
    689d:	81d9      	s32i.n	a13, a1, 32
    689f:	215850        	srai	a5, a5, 8
    68a2:	c0cc50        	sub	a12, a12, a5
    68a5:	c0ccd0        	sub	a12, a12, a13
    68a8:	bbca      	add.n	a11, a11, a12
    68aa:	aaba      	add.n	a10, a10, a11
    68ac:	aa4b      	addi.n	a10, a10, 4
    68ae:	11a9      	s32i.n	a10, a1, 4
    68b0:	f4a0a0        	extui	a10, a10, 0, 16
    68b3:	0008e0        	excw
    68b6:	01b8      	l32i.n	a11, a1, 0
    68b8:	f1d8      	l32i.n	a13, a1, 60
    68ba:	41c8      	l32i.n	a12, a1, 16
    68bc:	1061a2        	s32i	a10, a1, 64
    68bf:	752b81        	l32r	a8, 0xfffe3d6c
    68c2:	d1a8      	l32i.n	a10, a1, 52
    68c4:	0888      	l32i.n	a8, a8, 0
    68c6:	c0ccd0        	sub	a12, a12, a13
    68c9:	102882        	l32i	a8, a8, 64
    68cc:	81d8      	l32i.n	a13, a1, 32
    68ce:	5f          	.byte 0x5f
    68cf:	2c0a      	add.n	a2, a12, a0
    68d1:	5f          	.byte 0x5f
    68d2:	d22806        	j	0xffffb176
    68d5:	e81021        	l32r	a2, 0x918 (0x99b27c)
    68d8:	2cf111        	l32r	a1, 0xfffd1c9c
    68db:	a1c275        	excw
    68de:	b8e8      	l32i.n	a14, a8, 44
    68e0:	e18804        	excw
    68e3:	bbca      	add.n	a11, a11, a12
    68e5:	046816        	beqz	a8, 0x692f
    68e8:	a87c      	movi.n	a8, -6
    68ea:	39a587        	bge	a5, a8, 0x6927
    68ed:	190c      	movi.n	a9, 1
    68ef:	824b92        	s8i	a9, a11, 130
    68f2:	0012c6        	j	0x6941
    68f5:	021626        	beqi	a6, 1, 0x68fb
    68f8:	ffd246        	j	0x6845
    68fb:	0020c0        	memw
    68fe:	752d91        	l32r	a9, 0xfffe3db4
    6901:	902992        	l32i	a9, a9, 0x240
    6904:	ffccc6        	j	0x683b
    6907:	021626        	beqi	a6, 1, 0x690d
    690a:	5fd4c6        	j	0x1e861
    690d:	a21207        	beq	a2, a0, 0x68b3
    6910:	8829      	s32i.n	a2, a8, 32
    6912:	f5a0a0        	extui	a10, a10, 16, 16
    6915:	23aa00        	excw
    6918:	5fa9      	s32i.n	a10, a15, 20
    691a:	488105        	call0	0x4f12c
    691d:	4029      	s32i.n	a2, a0, 16
    691f:	ffcd06        	j	0x6857
    6922:	080c      	movi.n	a8, 0
    6924:	824b82        	s8i	a8, a11, 130
    6927:	000446        	j	0x693c
    692a:	497c      	movi.n	a9, -12
    692c:	07a597        	bge	a5, a9, 0x6937
    692f:	180c      	movi.n	a8, 1
    6931:	824b82        	s8i	a8, a11, 130
    6934:	000106        	j	0x693c
    6937:	090c      	movi.n	a9, 0
    6939:	824b92        	s8i	a9, a11, 130
    693c:	0020c0        	memw
    693f:	8427b2        	l32i	a11, a7, 0x210
    6942:	54b0b0        	extui	a11, a11, 0, 6
    6945:	639db0        	excw
    6948:	c6cc      	bnez.n	a6, 0x6958
    694a:	b188      	l32i.n	a8, a1, 44
    694c:	0899      	s32i.n	a9, a8, 0
    694e:	c188      	l32i.n	a8, a1, 48
    6950:	63dab0        	excw
    6953:	08d9      	s32i.n	a13, a8, 0
    6955:	000346        	j	0x6966
    6958:	0a1666        	bnei	a6, 1, 0x6966
    695b:	9188      	l32i.n	a8, a1, 36
    695d:	0899      	s32i.n	a9, a8, 0
    695f:	a188      	l32i.n	a8, a1, 40
    6961:	5f          	.byte 0x5f
    6962:	b11105        	call0	0xfffb7a74
    6965:	2e          	.byte 0x2e
    6966:	99b075        	excw
    6969:	5ff0a0        	excw
    696c:	738305        	call0	0x7a1a0
    696f:	752fa1        	l32r	a10, 0xfffe3e2c
    6972:	0998      	l32i.n	a9, a9, 0
    6974:	1099a0        	and	a9, a9, a10
    6977:	759890        	extui	a9, a9, 24, 8
    697a:	c099e0        	sub	a9, a9, a14
    697d:	749090        	extui	a9, a9, 0, 8
    6980:	46cc      	bnez.n	a6, 0x6988
    6982:	184492        	s8i	a9, a4, 24
    6985:	000146        	j	0x698e
    6988:	021666        	bnei	a6, 1, 0x698e
    698b:	194492        	s8i	a9, a4, 25
    698e:	661b      	addi.n	a6, a6, 1
    6990:	220b      	addi.n	a2, a2, -1
    6992:	e81256        	bnez	a2, 0x6817
    6995:	51a8      	l32i.n	a10, a1, 20
    6997:	1e44a2        	s8i	a10, a4, 30
    699a:	1f44a2        	s8i	a10, a4, 31
    699d:	f01d      	excw
    699f:	580b32        	l8ui	a3, a11, 88
    69a2:	5f          	.byte 0x5f
    69a3:	548205        	call0	0x5b1c4
    69a6:	9089      	s32i.n	a8, a0, 36
    69a8:	4559      	s32i.n	a5, a5, 16
    69aa:	ff87c6        	j	0x67cd
    69ad:	550b32        	l8ui	a3, a11, 85
    69b0:	5f          	.byte 0x5f
    69b1:	870f05        	call0	0xfff8daa4
    69b4:	5ffb46        	j	0x1e9a5
    69b7:	50a507        	bge	a5, a0, 0x6a0b
    69ba:	0b0c      	movi.n	a11, 0
    69bc:	081c      	movi.n	a8, 16
    69be:	7524e1        	l32r	a14, 0xfffe3e50
    69c1:	7530a1        	l32r	a10, 0xfffe3e84
    69c4:	0ee8      	l32i.n	a14, a14, 0
    69c6:	0acd      	mov.n	a12, a10
    69c8:	21a876        	excw
    69cb:	dbea      	add.n	a13, a11, a14
    69cd:	500dd2        	l8ui	a13, a13, 80
    69d0:	bb1b      	addi.n	a11, a11, 1
    69d2:	157db6        	bltui	a13, 7, 0x69eb
    69d5:	000cf2        	l8ui	a15, a12, 0
    69d8:	0f1fd7        	beq	a15, a13, 0x69eb
    69db:	090c      	movi.n	a9, 0
    69dd:	89cc      	bnez.n	a9, 0x69e9
    69df:	752b81        	l32r	a8, 0xfffe3e8c
    69e2:	0888      	l32i.n	a8, a8, 0
    69e4:	3888      	l32i.n	a8, a8, 12
    69e6:	5f          	.byte 0x5f
    69e7:	708f05        	call0	0x772d8
    69ea:	cc1b      	addi.n	a12, a12, 1
    69ec:	190c      	movi.n	a9, 1
    69ee:	fffa86        	j	0x69dc
    69f1:	413600        	srli	a3, a0, 6
    69f4:	30b100        	xor	a11, a1, a0
    69f7:	0a0c75        	excw
    69fa:	7524d1        	l32r	a13, 0xfffe3e8c
    69fd:	081c      	movi.n	a8, 16
    69ff:	0dd8      	l32i.n	a13, a13, 0
    6a01:	24a876        	excw
    6a04:	cada      	add.n	a12, a10, a13
    6a06:	500cc2        	l8ui	a12, a12, 80
    6a09:	aa1b      	addi.n	a10, a10, 1
    6a0b:	187cb6        	bltui	a12, 7, 0x6a27
    6a0e:	000be2        	l8ui	a14, a11, 0
    6a11:	121ec7        	beq	a14, a12, 0x6a27
    6a14:	090c      	movi.n	a9, 0
    6a16:	b9cc      	bnez.n	a9, 0x6a25
    6a18:	5f          	.byte 0x5f
    6a19:	a23a07        	bltu	a10, a0, 0x69bf
    6a1c:	50cd      	excw
    6a1e:	5f          	.byte 0x5f
    6a1f:	bb3d06        	j	0xffff5717
    6a22:	190c      	movi.n	a9, 1
    6a24:	fff9c6        	j	0x6a0f
    6a27:	004136        	excw
    6a2a:	752431        	l32r	a3, 0xfffe3ebc
    6a2d:	0328      	l32i.n	a2, a3, 0
    6a2f:	02d222        	addmi	a2, a2, 0x200
    6a32:	660222        	l8ui	a2, a2, 102
    6a35:	2388      	l32i.n	a8, a3, 8
    6a37:	412120        	srli	a2, a2, 1
    6a3a:	0008e0        	excw
    6a3d:	040382        	l8ui	a8, a3, 4
    6a40:	00a2b2        	movi	a11, 0x200
    6a43:	116817        	bbci	a8, 1, 0x6a58
    6a46:	5f25a1        	l32r	a10, 0xfffde6dc
    6a49:	3d8605        	call0	0x442ac
    6a4c:	242a      	add.n	a2, a4, a2
    6a4e:	065fb0        	excw
    6a51:	6a6785        	call0	0x710cc
    6a54:	02ad24        	excw
    6a57:	ffcaa5        	excw
    6a5a:	7531e1        	l32r	a14, 0xfffe3f20
    6a5d:	752ad1        	l32r	a13, 0xfffe3f08
    6a60:	e2ea      	add.n	a14, a2, a14
    6a62:	000ee2        	l8ui	a14, a14, 0
    6a65:	ef3c      	movi.n	a15, 62
    6a67:	11eef0        	slli	a14, a14, 1
    6a6a:	10eef0        	and	a14, a14, a15
    6a6d:	c1aff2        	movi	a15, -63
    6a70:	0020c0        	memw
    6a73:	7e2dc2        	l32i	a12, a13, 0x1f8
    6a76:	10ccf0        	and	a12, a12, a15
    6a79:	055fe0        	extui	a5, a14, 31, 1
    6a7c:	c23d86        	j	0xffff7376
    6a7f:	7e6d      	excw
    6a81:	5f          	.byte 0x5f
    6a82:	78ea06        	j	0x24e2e
    6a85:	887524        	excw
    6a88:	055f32        	s16i	a3, a15, 10
    6a8b:	ae          	.byte 0xae
    6a8c:	7c49      	s32i.n	a4, a12, 28
    6a8e:	b8bd      	excw
    6a90:	32a102        	movi	a0, 0x132
    6a93:	dbb275        	excw
    6a96:	1bb202        	excw
    6a99:	390c32        	l8ui	a3, a12, 57
    6a9c:	2309b7        	bnone	a9, a11, 0x6ac3
    6a9f:	0020c0        	memw
    6aa2:	bd2af2        	l32i	a15, a10, 0x2f4
    6aa5:	5fffc0        	excw
    6aa8:	f23004        	excw
    6aab:	bd6a      	add.n	a11, a13, a6
    6aad:	0402e2        	l8ui	a14, a2, 4
    6ab0:	0e6e27        	bbci	a14, 2, 0x6ac2
    6ab3:	0020c0        	memw
    6ab6:	bd2a82        	l32i	a8, a10, 0x2f4
    6ab9:	1088d0        	and	a8, a8, a13
    6abc:	5f          	.byte 0x5f
    6abd:	6a0904        	excw
    6ac0:	91bd      	excw
    6ac2:	177525        	excw
    6ac5:	5f6b      	addi.n	a5, a15, 6
    6ac7:	e22a04        	excw
    6aca:	bd29      	s32i.n	a2, a13, 44
    6acc:	5feec0        	excw
    6acf:	e22a04        	excw
    6ad2:	bd69      	s32i.n	a6, a13, 44
    6ad4:	0402b2        	l8ui	a11, a2, 4
    6ad7:	5f6b37        	bbci	a11, 3, 0x6b3a
    6ada:	f22a04        	excw
    6add:	bd29      	s32i.n	a2, a13, 44
    6adf:	5fffd0        	excw
    6ae2:	f22a04        	excw
    6ae5:	bd69      	s32i.n	a6, a13, 44
    6ae7:	07aec2        	movi	a12, 0xfffffe07
    6aea:	1e02b2        	l8ui	a11, a2, 30
    6aed:	180282        	l8ui	a8, a2, 24
    6af0:	f8a1d2        	movi	a13, 0x1f8
    6af3:	88ba      	add.n	a8, a8, a11
    6af5:	1188d0        	slli	a8, a8, 3
    6af8:	5f          	.byte 0x5f
    6af9:	5f4406        	j	0x1e80d
    6afc:	106205        	call0	0x17120
    6aff:	0a5f80        	excw
    6b02:	b21f65        	excw
    6b05:	ea1902        	l16ui	a0, a9, 0x1d4
    6b08:	d0bb      	addi.n	a13, a0, 11
    6b0a:	11bb      	addi.n	a1, a1, 11
    6b0c:	5fbbd0        	excw
    6b0f:	296405        	call0	0x30150
    6b12:	c0bd      	excw
    6b14:	1088      	l32i.n	a8, a0, 4
    6b16:	5f88b0        	excw
    6b19:	822004        	excw
    6b1c:	bd69      	s32i.n	a6, a13, 44
    6b1e:	5f          	.byte 0x5f
    6b1f:	9609      	s32i.n	a0, a6, 36
    6b21:	2478      	l32i.n	a7, a4, 8
    6b23:	022875        	excw
    6b26:	5f          	.byte 0x5f
    6b27:	188205        	call0	0x1f348
    6b2a:	085f60        	excw
    6b2d:	824881        	l32r	a8, 0xfffe7450
    6b30:	e00422        	l8ui	a2, a4, 224
    6b33:	0008      	l32i.n	a0, a0, 0
    6b35:	67a282        	movi	a8, 0x267
    6b38:	7526c1        	l32r	a12, 0xfffe3fd0
    6b3b:	0022e2        	l32i	a14, a2, 0
    6b3e:	02ccd2        	addi	a13, a12, 2
    6b41:	eaccf2        	addi	a15, a12, -22
    6b44:	36cea2        	addi	a10, a14, 54
    6b47:	02deb2        	addmi	a11, a14, 0x200
    6b4a:	6a0bb2        	l8ui	a11, a11, 106
    6b4d:	ee8a      	add.n	a14, a14, a8
    6b4f:	0592e5        	excw
    6b52:	5f          	.byte 0x5f
    6b53:	838107        	bany	a1, a0, 0x6ada
    6b56:	752450        	extui	a2, a5, 20, 8
    6b59:	0398      	l32i.n	a9, a3, 0
    6b5b:	e6a122        	movi	a2, 0x1e6
    6b5e:	a92a      	add.n	a10, a9, a2
    6b60:	800aa2        	l8ui	a10, a10, 128
    6b63:	311a66        	bnei	a10, 1, 0x6b98
    6b66:	2329b2        	l32i	a11, a9, 140
    6b69:	7cc9a2        	addi	a10, a9, 124
    6b6c:	bb1b      	addi.n	a11, a11, 1
    6b6e:	41c8b0        	srli	a12, a11, 8
    6b71:	8d49c2        	s8i	a12, a9, 141
    6b74:	8c49b2        	s8i	a11, a9, 140
    6b77:	045fc0        	extui	a5, a12, 15, 1
    6b7a:	8e09      	s32i.n	a0, a14, 32
    6b7c:	5f          	.byte 0x5f
    6b7d:	8f0605        	call0	0xfff95be0
    6b80:	0c2bb6        	bltui	a11, 2, 0x6b90
    6b83:	f41ac2        	l16ui	a12, a10, 0x1e8
    6b86:	046c17        	bbci	a12, 1, 0x6b8e
    6b89:	1a0c      	movi.n	a10, 1
    6b8b:	ffb4e5        	excw
    6b8e:	0398      	l32i.n	a9, a3, 0
    6b90:	5f          	.byte 0x5f
    6b91:	2a3506        	j	0x11469
    6b94:	b22a      	add.n	a11, a2, a2
    6b96:	2429      	s32i.n	a2, a4, 8
    6b98:	5f          	.byte 0x5f
    6b99:	350a      	add.n	a3, a5, a0
    6b9b:	49b291        	l32r	a9, 0xfffd9264
    6b9e:	055f90        	extui	a5, a9, 31, 1
    6ba1:	2f          	.byte 0x2f
    6ba2:	055f92        	s16i	a9, a15, 10
    6ba5:	b69306        	j	0xffff45f5
    6ba8:	0a2b      	addi.n	a0, a10, 2
    6baa:	f41ac2        	l16ui	a12, a10, 0x1e8
    6bad:	046c07        	bbci	a12, 0, 0x6bb5
    6bb0:	0a0c      	movi.n	a10, 0
    6bb2:	5fb165        	excw
    6bb5:	810a      	add.n	a8, a1, a0
    6bb7:	28ab      	addi.n	a2, a8, 10
    6bb9:	827524        	excw
    6bbc:	170403        	excw
    6bbf:	0868      	l32i.n	a6, a8, 0
    6bc1:	02ad      	mov.n	a10, a2
    6bc3:	ffa5e5        	excw
    6bc6:	0a2d      	mov.n	a2, a10
    6bc8:	f01d      	excw
    6bca:	5388      	l32i.n	a8, a3, 20
    6bcc:	5f          	.byte 0x5f
    6bcd:	928106        	j	0xfffeb5d5
    6bd0:	027c      	movi.n	a2, -16
    6bd2:	0a2d      	mov.n	a2, a10
    6bd4:	012926        	beqi	a9, 2, 0x6bd9
    6bd7:	f01d      	excw
    6bd9:	03b8      	l32i.n	a11, a3, 0
    6bdb:	0a0c      	movi.n	a10, 0
    6bdd:	275ba2        	s16i	a10, a11, 78
    6be0:	5f          	.byte 0x5f
    6be1:	009b07        	bne	a11, a0, 0x6be5
    6be4:	752431        	l32r	a3, 0xfffe4074
    6be7:	166207        	bbci	a2, 0, 0x6c01
    6bea:	753381        	l32r	a8, 0xfffe40b8
    6bed:	0008e0        	excw
    6bf0:	752b81        	l32r	a8, 0xfffe409c
    6bf3:	03a8      	l32i.n	a10, a3, 0
    6bf5:	390c      	movi.n	a9, 3
    6bf7:	1d4a92        	s8i	a9, a10, 29
    6bfa:	0888      	l32i.n	a8, a8, 0
    6bfc:	c888      	l32i.n	a8, a8, 48
    6bfe:	0008e0        	excw
    6c01:	849c      	beqz.n	a4, 0x6c1d
    6c03:	7525b1        	l32r	a11, 0xfffe4098
    6c06:	7529d1        	l32r	a13, 0xfffe40ac
    6c09:	03c8      	l32i.n	a12, a3, 0
    6c0b:	0020c0        	memw
    6c0e:	262bb2        	l32i	a11, a11, 152
    6c11:	02dcc2        	addmi	a12, a12, 0x200
    6c14:	10bbd0        	and	a11, a11, a13
    6c17:	41b6b0        	srli	a11, a11, 6
    6c1a:	315cb2        	s16i	a11, a12, 98
    6c1d:	5f          	.byte 0x5f
    6c1e:	f14007        	ball	a0, a0, 0x6c13
    6c21:	c17536        	excw
    6c24:	7539      	s32i.n	a3, a5, 28
    6c26:	7537e1        	l32r	a14, 0xfffe4104
    6c29:	7538d1        	l32r	a13, 0xfffe410c
    6c2c:	753531        	l32r	a3, 0xfffe4100
    6c2f:	6248      	l32i.n	a4, a2, 24
    6c31:	753491        	l32r	a9, 0xfffe4104
    6c34:	752461        	l32r	a6, 0xfffe40c4
    6c37:	1729a2        	l32i	a10, a9, 92
    6c3a:	e9b8      	l32i.n	a11, a9, 56
    6c3c:	1958      	l32i.n	a5, a9, 4
    6c3e:	142982        	l32i	a8, a9, 80
    6c41:	5689      	s32i.n	a8, a6, 20
    6c43:	753c81        	l32r	a8, 0xfffe4134
    6c46:	79d9      	s32i.n	a13, a9, 28
    6c48:	1469c2        	s32i	a12, a9, 80
    6c4b:	e989      	s32i.n	a8, a9, 56
    6c4d:	49f9      	s32i.n	a15, a9, 16
    6c4f:	89e9      	s32i.n	a14, a9, 32
    6c51:	0649      	s32i.n	a4, a6, 0
    6c53:	26b9      	s32i.n	a11, a6, 8
    6c55:	46a9      	s32i.n	a10, a6, 16
    6c57:	166932        	s32i	a3, a9, 88
    6c5a:	3659      	s32i.n	a5, a6, 12
    6c5c:	330c      	movi.n	a3, 3
    6c5e:	753e51        	l32r	a5, 0xfffe4158
    6c61:	753ba1        	l32r	a10, 0xfffe4150
    6c64:	753ab1        	l32r	a11, 0xfffe414c
    6c67:	1769b2        	s32i	a11, a9, 92
    6c6a:	753d61        	l32r	a6, 0xfffe4160
    6c6d:	19a9      	s32i.n	a10, a9, 4
    6c6f:	d659      	s32i.n	a5, a6, 52
    6c71:	1d4432        	s8i	a3, a4, 29
    6c74:	5f          	.byte 0x5f
    6c75:	8309      	s32i.n	a0, a3, 32
    6c77:	753f00        	extui	a3, a0, 31, 8
    6c7a:	5f39      	s32i.n	a3, a15, 20
    6c7c:	be8107        	bany	a1, a0, 0x6c3e
    6c7f:	0108      	l32i.n	a0, a1, 0
    6c81:	4c1c      	movi.n	a12, 20
    6c83:	216172        	s32i	a7, a1, 132
    6c86:	226162        	s32i	a6, a1, 136
    6c89:	f4a050        	extui	a10, a5, 0, 16
    6c8c:	f4b040        	extui	a11, a4, 0, 16
    6c8f:	4398      	l32i.n	a9, a3, 16
    6c91:	1d6192        	s32i	a9, a1, 116
    6c94:	1f2242        	l32i	a4, a2, 124
    6c97:	1f61b2        	s32i	a11, a1, 124
    6c9a:	2061a2        	s32i	a10, a1, 128
    6c9d:	740051        	l32r	a5, 0xfffe3ca0
    6ca0:	30c1a2        	addi	a10, a1, 48
    6ca3:	5f2582        	l32i	a8, a5, 0x17c
    6ca6:	ab8106        	j	0xffff1aae
    6ca9:	7228      	l32i.n	a2, a2, 28
    6cab:	cc1922        	l16ui	a2, a9, 0x198
    6cae:	0b5f97        	bbc	a15, a9, 0x6cbd
    6cb1:	10a681        	l32r	a8, 0xfffcaf4c
    6cb4:	44c1a2        	addi	a10, a1, 68
    6cb7:	5f          	.byte 0x5f
    6cb8:	4acc05        	call0	0x5197c
    6cbb:	4c2c      	movi.n	a12, 36
    6cbd:	0008e0        	excw
    6cc0:	7540a1        	l32r	a10, 0xfffe41c0
    6cc3:	1f21b2        	l32i	a11, a1, 124
    6cc6:	a12582        	l32i	a8, a5, 0x284
    6cc9:	2021c2        	l32i	a12, a1, 128
    6ccc:	0008e0        	excw
    6ccf:	562492        	l32i	a9, a4, 0x158
    6cd2:	182582        	l32i	a8, a5, 96
    6cd5:	991b      	addi.n	a9, a9, 1
    6cd7:	566492        	s32i	a9, a4, 0x158
    6cda:	0008e0        	excw
    6cdd:	5824c2        	l32i	a12, a4, 0x160
    6ce0:	c0cac0        	sub	a12, a10, a12
    6ce3:	5964c2        	s32i	a12, a4, 0x164
    6ce6:	0102a2        	l8ui	a10, a2, 1
    6ce9:	7450b1        	l32r	a11, 0xfffe3e2c
    6cec:	091a66        	bnei	a10, 1, 0x6cf9
    6cef:	0b8d      	mov.n	a8, a11
    6cf1:	352882        	l32i	a8, a8, 212
    6cf4:	5f          	.byte 0x5f
    6cf5:	a48106        	j	0xfffefefd
    6cf8:	a019      	s32i.n	a1, a0, 40
    6cfa:	6ac8      	l32i.n	a12, a10, 24
    6cfc:	06b264        	excw
    6cff:	6b27a0        	excw
    6d02:	40a133        	excw
    6d05:	258275        	excw
    6d08:	14d2a1        	l32r	a10, 0xfffcc050
    6d0b:	3cc8      	l32i.n	a12, a12, 12
    6d0d:	ce          	.byte 0xce
    6d0e:	0dbd      	mov.n	a11, a13
    6d10:	14c0d0        	extui	a12, a13, 0, 2
    6d13:	11cca0        	slli	a12, a12, 6
    6d16:	10dde0        	and	a13, a13, a14
    6d19:	11dd60        	slli	a13, a13, 10
    6d1c:	20ccd0        	or	a12, a12, a13
    6d1f:	f4c0c0        	extui	a12, a12, 0, 16
    6d22:	1e51c2        	s16i	a12, a1, 60
    6d25:	41dac0        	srli	a13, a12, 10
    6d28:	41c6c0        	srli	a12, a12, 6
    6d2b:	5f          	.byte 0x5f
    6d2c:	e00f06        	j	0xffffed6c
    6d2f:	0008      	l32i.n	a0, a0, 0
    6d31:	a006b2        	l8ui	a11, a6, 160
    6d34:	5f          	.byte 0x5f
    6d35:	c23406        	j	0xffff7609
    6d38:	5fc814        	excw
    6d3b:	50b406        	j	0x1b00f
    6d3e:	a2a006        	j	0xfffef7c2
    6d41:	aa0ca1        	l32r	a10, 0xffff1574
    6d44:	bbc0a4        	excw
    6d47:	a0c220        	addx4	a12, a2, a2
    6d4a:	bbc0f3        	excw
    6d4d:	46b210        	excw
    6d50:	2582a0        	extui	a8, a10, 18, 3
    6d53:	6e          	.byte 0x6e
    6d54:	5f6432        	s32i	a3, a4, 0x17c
    6d57:	71cc06        	j	0x2348b
    6d5a:	745081        	l32r	a8, 0xfffe3e9c
    6d5d:	0b0c      	movi.n	a11, 0
    6d5f:	b888      	l32i.n	a8, a8, 44
    6d61:	5f          	.byte 0x5f
    6d62:	41a405        	call0	0x487a4
    6d65:	5f          	.byte 0x5f
    6d66:	1b0e06        	j	0xd9a2
    6d69:	5f          	.byte 0x5f
    6d6a:	0c0e07        	bnone	a14, a0, 0x6d7a
    6d6d:	826c      	movi.n	a2, -24
    6d6f:	6b3f25        	excw
    6d72:	a1a2b3        	excw
    6d75:	aa4c      	movi.n	a10, 74
    6d77:	61b2a4        	excw
    6d7a:	1e          	.byte 0x1e
    6d7b:	5f          	.byte 0x5f
    6d7c:	7dd405        	call0	0x84ac0
    6d7f:	21b232        	excw
    6d82:	1e          	.byte 0x1e
    6d83:	6c0c      	movi.n	a12, 6
    6d85:	1d2192        	l32i	a9, a1, 116
    6d88:	3f2582        	l32i	a8, a5, 252
    6d8b:	001992        	l16ui	a9, a9, 0
    6d8e:	185192        	s16i	a9, a1, 48
    6d91:	0008e0        	excw
    6d94:	2121a2        	l32i	a10, a1, 132
    6d97:	1e1192        	l16ui	a9, a1, 60
    6d9a:	2021e2        	l32i	a14, a1, 128
    6d9d:	3922b2        	l32i	a11, a2, 228
    6da0:	1f21c2        	l32i	a12, a1, 124
    6da3:	1c51c2        	s16i	a12, a1, 56
    6da6:	1d51e2        	s16i	a14, a1, 58
    6da9:	2099b0        	or	a9, a9, a11
    6dac:	1e5192        	s16i	a9, a1, 60
    6daf:	0102b2        	l8ui	a11, a2, 1
    6db2:	2221d2        	l32i	a13, a1, 136
    6db5:	0b1b66        	bnei	a11, 1, 0x6dc4
    6db8:	2d22f2        	l32i	a15, a2, 180
    6dbb:	11ff80        	slli	a15, a15, 8
    6dbe:	20f9f0        	or	a15, a9, a15
    6dc1:	1e51f2        	s16i	a15, a1, 60
    6dc4:	e62582        	l32i	a8, a5, 0x398
    6dc7:	ac5c      	movi.n	a12, 90
    6dc9:	01d7e2        	addmi	a14, a7, 0x100
    6dcc:	c00ee2        	l8ui	a14, a14, 192
    6dcf:	3e41c2        	s8i	a12, a1, 62
    6dd2:	3f41e2        	s8i	a14, a1, 63
    6dd5:	30c3c2        	addi	a12, a3, 48
    6dd8:	0ded      	mov.n	a14, a13
    6dda:	5003b2        	l8ui	a11, a3, 80
    6ddd:	d47b      	addi.n	a13, a4, 7
    6ddf:	4041b2        	s8i	a11, a1, 64
    6de2:	30c1b2        	addi	a11, a1, 48
    6de5:	060492        	l8ui	a9, a4, 6
    6de8:	414192        	s8i	a9, a1, 65
    6deb:	4241a2        	s8i	a10, a1, 66
    6dee:	055fa2        	s16i	a10, a15, 10
    6df1:	f221d7        	blt	a1, a13, 0x6de7
    6df4:	9c5203        	excw
    6df7:	6f          	.byte 0x6f
    6df8:	e798      	l32i.n	a9, a7, 56
    6dfa:	1269e7        	bbci	a9, 14, 0x6e10
    6dfd:	02ad      	mov.n	a10, a2
    6dff:	68c1b2        	addi	a11, a1, 104
    6e02:	5f          	.byte 0x5f
    6e03:	67de05        	call0	0x6ebe4
    6e06:	252882        	l32i	a8, a8, 148
    6e09:	6841c2        	s8i	a12, a1, 104
    6e0c:	0008e0        	excw
    6e0f:	112292        	l32i	a9, a2, 68
    6e12:	1b6907        	bbci	a9, 0, 0x6e31
    6e15:	74ba81        	l32r	a8, 0xfffe4100
    6e18:	5888      	l32i.n	a8, a8, 20
    6e1a:	43a8      	l32i.n	a10, a3, 16
    6e1c:	0008e0        	excw
    6e1f:	1e21b2        	l32i	a11, a1, 120
    6e22:	1d0c      	movi.n	a13, 1
    6e24:	743f81        	l32r	a8, 0xfffe3f20
    6e27:	f4c0a0        	extui	a12, a10, 0, 16
    6e2a:	5f          	.byte 0x5f
    6e2b:	72b707        	bgeu	a7, a0, 0x6ea1
    6e2e:	5f          	.byte 0x5f
    6e2f:	2bc505        	call0	0x32a80
    6e32:	065f33        	excw
    6e35:	219d81        	l32r	a8, 0xfffcf4ac
    6e38:	a1c002        	addi	a0, a0, -95
    6e3b:	7449      	s32i.n	a4, a4, 28
    6e3d:	29ec      	bnez.n	a9, 0x6e63
    6e3f:	84a092        	movi	a9, 132
    6e42:	929a      	add.n	a9, a2, a9
    6e44:	8009c2        	l8ui	a12, a9, 128
    6e47:	8cdc      	bnez.n	a12, 0x6e63
    6e49:	8109b2        	l8ui	a11, a9, 129
    6e4c:	3bdc      	bnez.n	a11, 0x6e63
    6e4e:	8209c2        	l8ui	a12, a9, 130
    6e51:	eccc      	bnez.n	a12, 0x6e63
    6e53:	8309d2        	l8ui	a13, a9, 131
    6e56:	9dcc      	bnez.n	a13, 0x6e63
    6e58:	8409e2        	l8ui	a14, a9, 132
    6e5b:	4ecc      	bnez.n	a14, 0x6e63
    6e5d:	8509f2        	l8ui	a15, a9, 133
    6e60:	0dcf16        	beqz	a15, 0x6f40
    6e63:	392282        	l32i	a8, a2, 228
    6e66:	5f          	.byte 0x5f
    6e67:	408d05        	call0	0x47738
    6e6a:	920d      	excw
    6e6c:	871713        	excw
    6e6f:	2269      	s32i.n	a6, a2, 8
    6e71:	43b8      	l32i.n	a11, a3, 16
    6e73:	2bb8      	l32i.n	a11, a11, 8
    6e75:	14b0b0        	extui	a11, a11, 0, 2
    6e78:	8bdc      	bnez.n	a11, 0x6e94
    6e7a:	2b0c      	movi.n	a11, 2
    6e7c:	1c0c      	movi.n	a12, 1
    6e7e:	741181        	l32r	a8, 0xfffe3ec4
    6e81:	550392        	l8ui	a9, a3, 85
    6e84:	5f          	.byte 0x5f
    6e85:	ba8106        	j	0xffff588d
    6e88:	432a      	add.n	a4, a3, a2
    6e8a:	288255        	excw
    6e8d:	5f1d      	excw
    6e8f:	39a706        	j	0x1552f
    6e92:	9ca106        	j	0xfffee11a
    6e95:	0c3b      	addi.n	a0, a12, 3
    6e97:	821d      	excw
    6e99:	a26d25        	excw
    6e9c:	c278a1        	l32r	a10, 0xffff787c
    6e9f:	c0e8a3        	excw
    6ea2:	82cb      	addi.n	a8, a2, 12
    6ea4:	a4aa      	add.n	a10, a4, a10
    6ea6:	5f          	.byte 0x5f
    6ea7:	63a807        	bge	a8, a0, 0x6f0e
    6eaa:	744081        	l32r	a8, 0xfffe3fac
    6ead:	0b4c      	movi.n	a11, 64
    6eaf:	5f          	.byte 0x5f
    6eb0:	8109      	s32i.n	a0, a1, 32
    6eb2:	069a      	add.n	a0, a6, a9
    6eb4:	5f49      	s32i.n	a4, a15, 20
    6eb6:	3ece06        	j	0x169f2
    6eb9:	5f2b      	addi.n	a5, a15, 2
    6ebb:	408105        	call0	0x476cc
    6ebe:	1c3b      	addi.n	a1, a12, 3
    6ec0:	b0eb      	addi.n	a11, a0, 14
    6ec2:	10a9      	s32i.n	a10, a0, 4
    6ec4:	2d89b7        	bany	a9, a11, 0x6ef5
    6ec7:	3c22c2        	l32i	a12, a2, 240
    6eca:	27bc26        	beqi	a12, 16, 0x6ef5
    6ecd:	02ad      	mov.n	a10, a2
    6ecf:	03bd      	mov.n	a11, a3
    6ed1:	745081        	l32r	a8, 0xfffe4014
    6ed4:	fc0c      	movi.n	a12, 15
    6ed6:	f888      	l32i.n	a8, a8, 60
    6ed8:	5f          	.byte 0x5f
    6ed9:	3fa205        	call0	0x468fc
    6edc:	02ad      	mov.n	a10, a2
    6ede:	1b0c      	movi.n	a11, 1
    6ee0:	5c0c      	movi.n	a12, 5
    6ee2:	744581        	l32r	a8, 0xfffe3ff8
    6ee5:	7440d1        	l32r	a13, 0xfffe3fe8
    6ee8:	282882        	l32i	a8, a8, 160
    6eeb:	152dd2        	l32i	a13, a13, 84
    6eee:	0008e0        	excw
    6ef1:	0018c6        	j	0x6f58
    6ef4:	060a16        	beqz	a10, 0x6f58
    6ef7:	5f          	.byte 0x5f
    6ef8:	810a      	add.n	a8, a1, a0
    6efa:	c21ca5        	excw
    6efd:	5f6cc1        	l32r	a12, 0xfffdecb0
    6f00:	264c04        	excw
    6f03:	0b1c17        	beq	a12, a1, 0x6f12
    6f06:	486947        	bbci	a9, 4, 0x6f52
    6f09:	dd0c      	movi.n	a13, 13
    6f0b:	180c      	movi.n	a8, 1
    6f0d:	116182        	s32i	a8, a1, 68
    6f10:	3b22f2        	l32i	a15, a2, 236
    6f13:	4941f2        	s8i	a15, a1, 73
    6f16:	3c22e2        	l32i	a14, a2, 240
    6f19:	4a41e2        	s8i	a14, a1, 74
    6f1c:	fc02c2        	l8ui	a12, a2, 252
    6f1f:	3e22a2        	l32i	a10, a2, 248
    6f22:	519cd7        	bne	a12, a13, 0x6f77
    6f25:	209ab0        	or	a9, a10, a11
    6f28:	001346        	j	0x6f79
    6f2b:	2b0c      	movi.n	a11, 2
    6f2d:	2a88      	l32i.n	a8, a10, 8
    6f2f:	5f          	.byte 0x5f
    6f30:	a808      	l32i.n	a0, a8, 40
    6f32:	744042        	s8i	a4, a0, 116
    6f35:	40a1b2        	movi	a11, 0x140
    6f38:	5f          	.byte 0x5f
    6f39:	c408      	l32i.n	a0, a4, 48
    6f3b:	3e          	.byte 0x3e
    6f3c:	5f          	.byte 0x5f
    6f3d:	840a      	add.n	a8, a4, a0
    6f3f:	e02c03        	excw
    6f42:	0008      	l32i.n	a0, a0, 0
    6f44:	754181        	l32r	a8, 0xfffe4448
    6f47:	1888      	l32i.n	a8, a8, 4
    6f49:	5f          	.byte 0x5f
    6f4a:	578205        	call0	0x5e76c
    6f4d:	753f91        	l32r	a9, 0xfffe444c
    6f50:	0998      	l32i.n	a9, a9, 0
    6f52:	099c      	beqz.n	a9, 0x6f66
    6f54:	02ad      	mov.n	a10, a2
    6f56:	754281        	l32r	a8, 0xfffe4460
    6f59:	1b0c      	movi.n	a11, 1
    6f5b:	0888      	l32i.n	a8, a8, 0
    6f5d:	5f          	.byte 0x5f
    6f5e:	18e705        	call0	0x1fdd0
    6f61:	5f0d      	excw
    6f63:	5c8b05        	call0	0x63814
    6f66:	0a9d      	mov.n	a9, a10
    6f68:	1c21b2        	l32i	a11, a1, 112
    6f6b:	7544c1        	l32r	a12, 0xfffe447c
    6f6e:	7543d1        	l32r	a13, 0xfffe447c
    6f71:	0f0c      	movi.n	a15, 0
    6f73:	136172        	s32i	a7, a1, 76
    6f76:	4b4192        	s8i	a9, a1, 75
    6f79:	10c282        	addi	a8, a2, 16
    6f7c:	146182        	s32i	a8, a1, 80
    6f7f:	3002e2        	l8ui	a14, a2, 48
    6f82:	1561f2        	s32i	a15, a1, 84
    6f85:	1661d2        	s32i	a13, a1, 88
    6f88:	1761c2        	s32i	a12, a1, 92
    6f8b:	6441e2        	s8i	a14, a1, 100
    6f8e:	e7a8      	l32i.n	a10, a7, 56
    6f90:	1861b2        	s32i	a11, a1, 96
    6f93:	2c6a17        	bbci	a10, 1, 0x6fc3
    6f96:	c91c      	movi.n	a9, 28
    6f98:	44c1c2        	addi	a12, a1, 68
    6f9b:	01bd      	mov.n	a11, a1
    6f9d:	484192        	s8i	a9, a1, 72
    6fa0:	9a0c      	movi.n	a10, 9
    6fa2:	090c      	movi.n	a9, 0
    6fa4:	09aa76        	excw
    6fa7:	e9ba      	add.n	a14, a9, a11
    6fa9:	d9ca      	add.n	a13, a9, a12
    6fab:	0dd8      	l32i.n	a13, a13, 0
    6fad:	0ed9      	s32i.n	a13, a14, 0
    6faf:	994b      	addi.n	a9, a9, 4
    6fb1:	754581        	l32r	a8, 0xfffe44c8
    6fb4:	2822a2        	l32i	a10, a2, 160
    6fb7:	9129      	s32i.n	a2, a1, 36
    6fb9:	0888      	l32i.n	a8, a8, 0
    6fbb:	1888      	l32i.n	a8, a8, 4
    6fbd:	0008e0        	excw
    6fc0:	ffdf46        	j	0x6f41
    6fc3:	891c      	movi.n	a9, 24
    6fc5:	5ff3c6        	j	0x1ef98
    6fc8:	748c05        	call0	0x7b88c
    6fcb:	0328      	l32i.n	a2, a3, 0
    6fcd:	0aa142        	movi	a4, 0x10a
    6fd0:	434a      	add.n	a4, a3, a4
    6fd2:	5e0482        	l8ui	a8, a4, 94
    6fd5:	192252        	l32i	a5, a2, 100
    6fd8:	796807        	bbci	a8, 0, 0x7055
    6fdb:	740071        	l32r	a7, 0xfffe3fdc
    6fde:	5f2782        	l32i	a8, a7, 0x17c
    6fe1:	982504        	excw
    6fe4:	04c2d5        	excw
    6fe7:	5f          	.byte 0x5f
    6fe8:	a3b200        	movltz	a11, a2, a0
    6feb:	c0e8      	l32i.n	a14, a0, 48
    6fed:	d1bb      	addi.n	a13, a1, 11
    6fef:	99ba      	add.n	a9, a9, a11
    6ff1:	1039a7        	bltu	a9, a10, 0x7005
    6ff4:	5f4081        	l32r	a8, 0xfffdecf4
    6ff7:	c809      	s32i.n	a0, a8, 48
    6ff9:	927c      	movi.n	a2, -7
    6ffb:	570a      	add.n	a5, a7, a0
    6ffd:	04f916        	beqz	a9, 0x7050
    7000:	5f          	.byte 0x5f
    7001:	a20b      	addi.n	a10, a2, -1
    7003:	278230        	excw
    7006:	6e          	.byte 0x6e
    7007:	0a6d      	mov.n	a6, a10
    7009:	94a192        	movi	a9, 0x194
    700c:	339a      	add.n	a3, a3, a9
    700e:	5f          	.byte 0x5f
    700f:	04e806        	j	0x83b3
    7012:	5f          	.byte 0x5f
    7013:	d009      	s32i.n	a0, a0, 52
    7015:	0c5c      	movi.n	a12, 80
    7017:	e09c      	beqz.n	a0, 0x7039
    7019:	0008      	l32i.n	a0, a0, 0
    701b:	05ed      	mov.n	a14, a5
    701d:	02ad      	mov.n	a10, a2
    701f:	4b0c      	movi.n	a11, 4
    7021:	0d0c      	movi.n	a13, 0
    7023:	74f291        	l32r	a9, 0xfffe43ec
    7026:	74ba81        	l32r	a8, 0xfffe4310
    7029:	0c0c      	movi.n	a12, 0
    702b:	6888      	l32i.n	a8, a8, 24
    702d:	93c960        	movnez	a12, a9, a6
    7030:	5f          	.byte 0x5f
    7031:	2be805        	call0	0x32eb4
    7034:	a204c2        	l8ui	a12, a4, 162
    7037:	0b0c      	movi.n	a11, 0
    7039:	5f2782        	l32i	a8, a7, 0x17c
    703c:	50a506        	j	0x1b2d4
    703f:	5f          	.byte 0x5f
    7040:	58b407        	bgeu	a4, a0, 0x709c
    7043:	5f7546        	j	0x1ee1c
    7046:	24b107        	bgeu	a1, a0, 0x706e
    7049:	7547b1        	l32r	a11, 0xfffe4568
    704c:	740081        	l32r	a8, 0xfffe404c
    704f:	0a2d      	mov.n	a2, a10
    7051:	02cd      	mov.n	a12, a2
    7053:	78a1a2        	movi	a10, 0x178
    7056:	702882        	l32i	a8, a8, 0x1c0
    7059:	5f          	.byte 0x5f
    705a:	2cc605        	call0	0x33cbc
    705d:	5f          	.byte 0x5f
    705e:	48dd07        	bbs	a13, a0, 0x70aa
    7061:	1f          	.byte 0x1f
    7062:	e8a062        	movi	a6, 232
    7065:	646a      	add.n	a6, a4, a6
    7067:	800682        	l8ui	a8, a6, 128
    706a:	5b2452        	l32i	a5, a4, 0x16c
    706d:	036857        	bbci	a8, 5, 0x7074
    7070:	821c      	movi.n	a2, 24
    7072:	f01d      	excw
    7074:	838c      	beqz.n	a3, 0x7080
    7076:	754181        	l32r	a8, 0xfffe457c
    7079:	0888      	l32i.n	a8, a8, 0
    707b:	5f          	.byte 0x5f
    707c:	568205        	call0	0x5d8a0
    707f:	744071        	l32r	a7, 0xfffe4180
    7082:	044516        	beqz	a5, 0x70ca
    7085:	2d9357        	bne	a3, a5, 0x70b6
    7088:	030292        	l8ui	a9, a2, 3
    708b:	0102a2        	l8ui	a10, a2, 1
    708e:	243966        	bnei	a9, 3, 0x70b6
    7091:	0b1a66        	bnei	a10, 1, 0x70a0
    7094:	02ad      	mov.n	a10, a2
    7096:	0b4c      	movi.n	a11, 64
    7098:	5f2782        	l32i	a8, a7, 0x17c
    709b:	2a8406        	j	0x11aaf
    709e:	02ad      	mov.n	a10, a2
    70a0:	1627d2        	l32i	a13, a7, 88
    70a3:	5f4581        	l32r	a8, 0xfffdedb8
    70a6:	658305        	call0	0x6c8d8
    70a9:	0c28      	l32i.n	a2, a12, 0
    70ab:	5f5c      	movi.n	a15, 85
    70ad:	0ad407        	bbs	a4, a0, 0x70bb
    70b0:	080316        	beqz	a3, 0x7134
    70b3:	02ad      	mov.n	a10, a2
    70b5:	08a2b2        	movi	a11, 0x208
    70b8:	744181        	l32r	a8, 0xfffe41bc
    70bb:	1c0c      	movi.n	a12, 1
    70bd:	3888      	l32i.n	a8, a8, 12
    70bf:	5f          	.byte 0x5f
    70c0:	168105        	call0	0x1d8d4
    70c3:	06c316        	beqz	a3, 0x7133
    70c6:	552492        	l32i	a9, a4, 0x154
    70c9:	740051        	l32r	a5, 0xfffe40cc
    70cc:	991b      	addi.n	a9, a9, 1
    70ce:	182582        	l32i	a8, a5, 96
    70d1:	556492        	s32i	a9, a4, 0x154
    70d4:	5f          	.byte 0x5f
    70d5:	6aa005        	call0	0x71ad8
    70d8:	744181        	l32r	a8, 0xfffe41dc
    70db:	5864a2        	s32i	a10, a4, 0x160
    70de:	5f          	.byte 0x5f
    70df:	8508      	l32i.n	a0, a5, 32
    70e1:	1a1621        	l32r	a2, 0xfffcd93c
    70e4:	a1b205        	call0	0xfffa8c08
    70e7:	4398f3        	excw
    70ea:	1c0c      	movi.n	a12, 1
    70ec:	2998      	l32i.n	a9, a9, 8
    70ee:	0a0c      	movi.n	a10, 0
    70f0:	14d090        	extui	a13, a9, 0, 2
    70f3:	83acd0        	moveqz	a10, a12, a13
    70f6:	f0aaa0        	subx8	a10, a10, a10
    70f9:	a0aa20        	addx4	a10, a10, a2
    70fc:	aaba      	add.n	a10, a10, a11
    70fe:	7f0aa2        	l8ui	a10, a10, 127
    7101:	2d6a17        	bbci	a10, 1, 0x7132
    7104:	9403a2        	l8ui	a10, a3, 148
    7107:	276a17        	bbci	a10, 1, 0x7132
    710a:	0af917        	bbsi	a9, 17, 0x7118
    710d:	c82582        	l32i	a8, a5, 0x320
    7110:	1222a2        	l32i	a10, a2, 72
    7113:	0008e0        	excw
    7116:	8a9c      	beqz.n	a10, 0x7132
    7118:	af0392        	l8ui	a9, a3, 175
    711b:	149090        	extui	a9, a9, 0, 2
    711e:	671926        	beqi	a9, 1, 0x7189
    7121:	fdc9b2        	addi	a11, a9, -3
    7124:	3a0c      	movi.n	a10, 3
    7126:	1d0c      	movi.n	a13, 1
    7128:	83dab0        	moveqz	a13, a10, a11
    712b:	5f0286        	j	0x1ed39
    712e:	17ef06        	j	0xd0ee
    7131:	461d      	excw
    7133:	0c0000        	excw
    7136:	260d      	excw
    7138:	473d      	excw
    713a:	442d26        	beqi	a13, 2, 0x7182
    713d:	0c0c      	movi.n	a12, 0
    713f:	745181        	l32r	a8, 0xfffe4284
    7142:	0a2c      	movi.n	a10, 32
    7144:	04e0c0        	extui	a14, a12, 0, 1
    7147:	fba0f2        	movi	a15, 251
    714a:	2ba2c2        	movi	a12, 0x22b
    714d:	c2ca      	add.n	a12, a2, a12
    714f:	800cb2        	l8ui	a11, a12, 128
    7152:	11eee0        	slli	a14, a14, 2
    7155:	10bbf0        	and	a11, a11, a15
    7158:	0f0c      	movi.n	a15, 0
    715a:	20bbe0        	or	a11, a11, a14
    715d:	804cb2        	s8i	a11, a12, 128
    7160:	2363d2        	s32i	a13, a3, 140
    7163:	800692        	l8ui	a9, a6, 128
    7166:	03bd      	mov.n	a11, a3
    7168:	5f          	.byte 0x5f
    7169:	65cb07        	bnall	a11, a0, 0x71d2
    716c:	43c880        	excw
    716f:	0888      	l32i.n	a8, a8, 0
    7171:	37e8      	l32i.n	a14, a7, 12
    7173:	0008e0        	excw
    7176:	8f1c      	movi.n	a15, 24
    7178:	83afa0        	moveqz	a10, a15, a10
    717b:	5f          	.byte 0x5f
    717c:	73a605        	call0	0x7abe0
    717f:	c61c      	movi.n	a6, 28
    7181:	ffed      	excw
    7183:	2d0c      	movi.n	a13, 2
    7185:	5fea86        	j	0x1f133
    7188:	748305        	call0	0x7b9bc
    718b:	1f2242        	l32i	a4, a2, 124
    718e:	067316        	beqz	a3, 0x71f9
    7191:	5f          	.byte 0x5f
    7192:	830b      	addi.n	a8, a3, -1
    7194:	1a3751        	l32r	a5, 0xfffcda70
    7197:	9259      	s32i.n	a5, a2, 36
    7199:	9acfa0        	excw
    719c:	09a294        	excw
    719f:	dc7d      	excw
    71a1:	a27a      	add.n	a10, a2, a7
    71a3:	7e09      	s32i.n	a0, a14, 28
    71a5:	7f09b2        	l8ui	a11, a9, 127
    71a8:	facc      	bnez.n	a10, 0x71bb
    71aa:	dbcc      	bnez.n	a11, 0x71bb
    71ac:	8009c2        	l8ui	a12, a9, 128
    71af:	8ccc      	bnez.n	a12, 0x71bb
    71b1:	8109d2        	l8ui	a13, a9, 129
    71b4:	3dcc      	bnez.n	a13, 0x71bb
    71b6:	8209e2        	l8ui	a14, a9, 130
    71b9:	5ebc      	beqz.n	a14, 0x71f2
    71bb:	743f51        	l32r	a5, 0xfffe42b8
    71be:	02ad      	mov.n	a10, a2
    71c0:	142582        	l32i	a8, a5, 80
    71c3:	8b0c      	movi.n	a11, 8
    71c5:	5f          	.byte 0x5f
    71c6:	09ce05        	call0	0x10ea8
    71c9:	065f17        	bbc	a15, a1, 0x71d3
    71cc:	bf          	.byte 0xbf
    71cd:	ea78      	l32i.n	a7, a10, 56
    71cf:	3b2292        	l32i	a9, a2, 236
    71d2:	740041        	l32r	a4, 0xfffe41d4
    71d5:	26c926        	beqi	a9, 32, 0x71ff
    71d8:	23d926        	beqi	a9, 64, 0x71ff
    71db:	0002a2        	l8ui	a10, a2, 0
    71de:	fda0b2        	movi	a11, 253
    71e1:	c36b      	addi.n	a12, a3, 6
    71e3:	0d0c      	movi.n	a13, 0
    71e5:	0e0c      	movi.n	a14, 0
    71e7:	e72482        	l32i	a8, a4, 0x39c
    71ea:	5f          	.byte 0x5f
    71eb:	44b205        	call0	0x4bd0c
    71ee:	754681        	l32r	a8, 0xfffe4708
    71f1:	02ad      	mov.n	a10, a2
    71f3:	1888      	l32i.n	a8, a8, 4
    71f5:	5f          	.byte 0x5f
    71f6:	6ab905        	call0	0x71d88
    71f9:	0a2d      	mov.n	a2, a10
    71fb:	f01d      	excw
    71fd:	1b2582        	l32i	a8, a5, 108
    7200:	20a220        	or	a10, a2, a2
    7203:	0008e0        	excw
    7206:	fe3a56        	bnez	a10, 0x71ed
    7209:	182482        	l32i	a8, a4, 96
    720c:	176232        	s32i	a3, a2, 92
    720f:	0008e0        	excw
    7212:	209aa0        	or	a9, a10, a10
    7215:	0623b2        	l32i	a11, a3, 24
    7218:	73a8      	l32i.n	a10, a3, 28
    721a:	c0b9b0        	sub	a11, a9, a11
    721d:	60a0a0        	neg	a10, a10
    7220:	01b9b7        	bgeu	a9, a11, 0x7225
    7223:	aa0b      	addi.n	a10, a10, -1
    7225:	404a00        	ssai	10
    7228:	0d0c      	movi.n	a13, 0
    722a:	81cab0        	src	a12, a10, a11
    722d:	41baa0        	srli	a11, a10, 10
    7230:	0cad      	mov.n	a10, a12
    7232:	74fdc1        	l32r	a12, 0xfffe4628
    7235:	05c6e5        	excw
    7238:	0aed      	mov.n	a14, a10
    723a:	93a8      	l32i.n	a10, a3, 36
    723c:	83d8      	l32i.n	a13, a3, 32
    723e:	aaba      	add.n	a10, a10, a11
    7240:	bdea      	add.n	a11, a13, a14
    7242:	01bbd7        	bgeu	a11, a13, 0x7247
    7245:	aa1b      	addi.n	a10, a10, 1
    7247:	c36b      	addi.n	a12, a3, 6
    7249:	20c3e2        	addi	a14, a3, 32
    724c:	8d0c      	movi.n	a13, 8
    724e:	0f0c      	movi.n	a15, 0
    7250:	e72482        	l32i	a8, a4, 0x39c
    7253:	83b9      	s32i.n	a11, a3, 32
    7255:	93a9      	s32i.n	a10, a3, 36
    7257:	fea0b2        	movi	a11, 254
    725a:	5f          	.byte 0x5f
    725b:	5a8906        	j	0x1dc83
    725e:	821c      	movi.n	a2, 24
    7260:	5f          	.byte 0x5f
    7261:	938106        	j	0xfffec069
    7264:	744044        	excw
    7267:	1f2252        	l32i	a5, a2, 124
    726a:	93fc      	bnez.n	a3, 0x72a7
    726c:	745031        	l32r	a3, 0xfffe43ac
    726f:	262382        	l32i	a8, a3, 152
    7272:	5f          	.byte 0x5f
    7273:	ae09      	s32i.n	a0, a14, 40
    7275:	b38873        	excw
    7278:	5f          	.byte 0x5f
    7279:	138705        	call0	0x1aaec
    727c:	492592        	l32i	a9, a5, 0x124
    727f:	1ee907        	bbsi	a9, 0, 0x72a1
    7282:	1be937        	bbsi	a9, 3, 0x72a1
    7285:	5f          	.byte 0x5f
    7286:	6eca05        	call0	0x75f28
    7289:	492615        	excw
    728c:	02ad12        	movi	a1, 0xfffffd02
    728f:	7548b1        	l32r	a11, 0xfffe47b0
    7292:	2c0c      	movi.n	a12, 2
    7294:	744581        	l32r	a8, 0xfffe43a8
    7297:	e4d8      	l32i.n	a13, a4, 56
    7299:	3888      	l32i.n	a8, a8, 12
    729b:	5fed      	excw
    729d:	b23006        	j	0xffff3b61
    72a0:	8240a1        	l32r	a10, 0xfffe7ba0
    72a3:	065f24        	excw
    72a6:	5f3684        	excw
    72a9:	f208      	l32i.n	a0, a2, 60
    72ab:	a27c      	movi.n	a2, -6
    72ad:	821f22        	l16ui	a2, a15, 0x104
    72b0:	422a      	add.n	a4, a2, a2
    72b2:	78ac      	beqz.n	a8, 0x72dd
    72b4:	251426        	beqi	a4, 1, 0x72dd
    72b7:	223426        	beqi	a4, 3, 0x72dd
    72ba:	b90c      	movi.n	a9, 11
    72bc:	1d1497        	beq	a4, a9, 0x72dd
    72bf:	1ab426        	beqi	a4, 16, 0x72dd
    72c2:	1b1c      	movi.n	a11, 17
    72c4:	1514b7        	beq	a4, a11, 0x72dd
    72c7:	5f          	.byte 0x5f
    72c8:	a909      	s32i.n	a0, a9, 40
    72ca:	4658      	l32i.n	a5, a6, 16
    72cc:	03bd75        	excw
    72cf:	5f          	.byte 0x5f
    72d0:	55b307        	bgeu	a3, a0, 0x7329
    72d3:	f01d      	excw
    72d5:	e64466        	bnei	a4, 4, 0x72bf
    72d8:	5d2a92        	l32i	a9, a10, 0x174
    72db:	08a4b2        	movi	a11, 0x408
    72de:	dd99b7        	bne	a9, a11, 0x72bf
    72e1:	5c2ac2        	l32i	a12, a10, 0x170
    72e4:	d71c66        	bnei	a12, 1, 0x72bf
    72e7:	754991        	l32r	a9, 0xfffe480c
    72ea:	0998      	l32i.n	a9, a9, 0
    72ec:	29d8      	l32i.n	a13, a9, 8
    72ee:	49a8      	l32i.n	a10, a9, 16
    72f0:	fcbd16        	beqz	a13, 0x72bf
    72f3:	c82a66        	bnei	a10, 2, 0x72bf
    72f6:	02ad      	mov.n	a10, a2
    72f8:	04cd      	mov.n	a12, a4
    72fa:	d36b      	addi.n	a13, a3, 6
    72fc:	74e050        	extui	a14, a5, 0, 8
    72ff:	744081        	l32r	a8, 0xfffe4400
    7302:	0002b2        	l8ui	a11, a2, 0
    7305:	0179      	s32i.n	a7, a1, 0
    7307:	272882        	l32i	a8, a8, 156
    730a:	06fd      	mov.n	a15, a6
    730c:	0008e0        	excw
    730f:	5feb06        	j	0x1f2bf
    7312:	589407        	bne	a4, a0, 0x736e
    7315:	84dc      	bnez.n	a4, 0x7331
    7317:	5f4981        	l32r	a8, 0xfffdf03c
    731a:	8309      	s32i.n	a0, a3, 32
    731c:	bacc30        	excw
    731f:	744081        	l32r	a8, 0xfffe4420
    7322:	03bd      	mov.n	a11, a3
    7324:	5f2882        	l32i	a8, a8, 0x17c
    7327:	558106        	j	0x1c92f
    732a:	5f          	.byte 0x5f
    732b:	8e08      	l32i.n	a0, a14, 32
    732d:	7c6c      	movi.n	a12, -25
    732f:	0a5ff7        	bbc	a15, a15, 0x733d
    7332:	788c      	beqz.n	a8, 0x733d
    7334:	5f          	.byte 0x5f
    7335:	16e505        	call0	0x1e188
    7338:	742b      	addi.n	a7, a4, 2
    733a:	040c      	movi.n	a4, 0
    733c:	000aa2        	l8ui	a10, a10, 0
    733f:	746461        	l32r	a6, 0xfffe44d0
    7342:	0aba16        	beqz	a10, 0x73f1
    7345:	a03460        	addx4	a3, a4, a6
    7348:	0338      	l32i.n	a3, a3, 0
    734a:	1f23b2        	l32i	a11, a3, 124
    734d:	095b16        	beqz	a11, 0x73e6
    7350:	c00382        	l8ui	a8, a3, 192
    7353:	28ec      	bnez.n	a8, 0x7379
    7355:	84a092        	movi	a9, 132
    7358:	939a      	add.n	a9, a3, a9
    735a:	5f          	.byte 0x5f
    735b:	2d8b05        	call0	0x34c0c
    735e:	8109c2        	l8ui	a12, a9, 129
    7361:	8209d2        	l8ui	a13, a9, 130
    7364:	0cdc      	bnez.n	a12, 0x7378
    7366:	edcc      	bnez.n	a13, 0x7378
    7368:	8309e2        	l8ui	a14, a9, 131
    736b:	9ecc      	bnez.n	a14, 0x7378
    736d:	8409f2        	l8ui	a15, a9, 132
    7370:	4fcc      	bnez.n	a15, 0x7378
    7372:	850982        	l8ui	a8, a9, 133
    7375:	06c816        	beqz	a8, 0x73e5
    7378:	010392        	l8ui	a9, a3, 1
    737b:	662926        	beqi	a9, 2, 0x73e5
    737e:	639327        	bne	a3, a2, 0x73e5
    7381:	0102c2        	l8ui	a12, a2, 1
    7384:	3ccc      	bnez.n	a12, 0x738b
    7386:	5b2b52        	l32i	a5, a11, 0x16c
    7389:	b5cc      	bnez.n	a5, 0x7398
    738b:	5f          	.byte 0x5f
    738c:	778b05        	call0	0x7ec40
    738f:	055f11        	l32r	a1, 0xfffc890c
    7392:	5d6887        	bbci	a8, 8, 0x73f3
    7395:	810a      	add.n	a8, a1, a0
    7397:	754a      	add.n	a7, a5, a4
    7399:	5f          	.byte 0x5f
    739a:	659005        	call0	0x6cc9c
    739d:	eaac      	beqz.n	a10, 0x73cf
    739f:	c5ac      	beqz.n	a5, 0x73cf
    73a1:	05dd      	mov.n	a13, a5
    73a3:	5fad      	excw
    73a5:	618a05        	call0	0x68c48
    73a8:	886b      	addi.n	a8, a8, 6
    73aa:	c118      	l32i.n	a1, a1, 48
    73ac:	754b      	addi.n	a7, a5, 4
    73ae:	5f          	.byte 0x5f
    73af:	03a705        	call0	0xae20
    73b2:	0a7d      	mov.n	a7, a10
    73b4:	5a8c      	beqz.n	a10, 0x73bd
    73b6:	891c      	movi.n	a9, 24
    73b8:	011a97        	beq	a10, a9, 0x73bd
    73bb:	0b0c      	movi.n	a11, 0
    73bd:	9bdc      	bnez.n	a11, 0x73da
    73bf:	5f          	.byte 0x5f
    73c0:	810b      	addi.n	a8, a1, -1
    73c2:	0654a6        	blti	a4, 5, 0x73cc
    73c5:	810003        	excw
    73c8:	bd7440        	excw
    73cb:	288205        	call0	0x2fbec
    73ce:	055f26        	beqi	a15, 5, 0x73d7
    73d1:	5f49      	s32i.n	a4, a15, 20
    73d3:	40ec07        	bbsi	a12, 0, 0x7417
    73d6:	404044        	excw
    73d9:	b4a774        	excw
    73dc:	d4c602        	addi	a0, a6, -44
    73df:	ff          	.byte 0xff
    73e0:	072d      	mov.n	a2, a7
    73e2:	5f          	.byte 0x5f
    73e3:	8108      	l32i.n	a0, a1, 32
    73e5:	528154        	excw
    73e8:	4dd175        	excw
    73eb:	46f175        	excw
    73ee:	519175        	excw
    73f1:	50a175        	excw
    73f4:	4fb175        	excw
    73f7:	4c3175        	excw
    73fa:	4ec175        	excw
    73fd:	63c275        	excw
    7400:	b269      	s32i.n	a6, a2, 44
    7402:	a25563        	excw
    7405:	924263        	excw
    7408:	424b63        	excw
    740b:	e24023        	excw
    740e:	224723        	excw
    7411:	296623        	excw
    7414:	1f          	.byte 0x1f
    7415:	755421        	l32r	a2, 0xfffe4968
    7418:	4463d2        	s32i	a13, a3, 0x110
    741b:	476322        	s32i	a2, a3, 0x11c
    741e:	2fe9      	s32i.n	a14, a15, 8
    7420:	0f49      	s32i.n	a4, a15, 0
    7422:	406382        	s32i	a8, a3, 0x100
    7425:	755341        	l32r	a4, 0xfffe4974
    7428:	666342        	s32i	a4, a3, 0x198
    742b:	5f          	.byte 0x5f
    742c:	00bb07        	bgeu	a11, a0, 0x7430
    742f:	5f0c91        	l32r	a9, 0xfffdf060
    7432:	64ef05        	call0	0x6c324
    7435:	2618      	l32i.n	a1, a6, 8
    7437:	0a19      	s32i.n	a1, a10, 0
    7439:	fec9a2        	addi	a10, a9, -2
    743c:	0d1a16        	beqz	a10, 0x7511
    743f:	090c      	movi.n	a9, 0
    7441:	000246        	j	0x744e
    7444:	020392        	l8ui	a9, a3, 2
    7447:	1b0c      	movi.n	a11, 1
    7449:	990b      	addi.n	a9, a9, -1
    744b:	939b90        	movnez	a9, a11, a9
    744e:	7400b1        	l32r	a11, 0xfffe4450
    7451:	d98c      	beqz.n	a9, 0x7462
    7453:	0002a2        	l8ui	a10, a2, 0
    7456:	1c0c      	movi.n	a12, 1
    7458:	e02b82        	l32i	a8, a11, 0x380
    745b:	1b1c      	movi.n	a11, 17
    745d:	5f          	.byte 0x5f
    745e:	08c607        	bnall	a6, a0, 0x746a
    7461:	296601        	l32r	a0, 0xfffd19fc
    7464:	055f11        	l32r	a1, 0xfffc89e0
    7467:	bf          	.byte 0xbf
    7468:	02ad71        	l32r	a7, 0xfffc7f1c
    746b:	182882        	l32i	a8, a8, 96
    746e:	5f03b2        	l8ui	a11, a3, 95
    7471:	728206        	j	0x23e7d
    7474:	5f          	.byte 0x5f
    7475:	20c605        	call0	0x280d8
    7478:	0e          	.byte 0xe
    7479:	5f          	.byte 0x5f
    747a:	0f          	.byte 0xf
    747b:	412d      	excw
    747d:	827445        	call0	0xfff89bc4
    7480:	5f2524        	excw
    7483:	698407        	bany	a4, a0, 0x74f0
    7486:	0203b2        	l8ui	a11, a3, 2
    7489:	c34b      	addi.n	a12, a3, 4
    748b:	212482        	l32i	a8, a4, 132
    748e:	0303d2        	l8ui	a13, a3, 3
    7491:	5f          	.byte 0x5f
    7492:	2bca05        	call0	0x33134
    7495:	a0d202        	addmi	a0, a2, 0xffffa000
    7498:	ff          	.byte 0xff
    7499:	161926        	beqi	a9, 1, 0x74b3
    749c:	0249e6        	bgei	a9, 4, 0x74a2
    749f:	6529e6        	bgei	a9, 2, 0x7508
    74a2:	6c4926        	beqi	a9, 4, 0x7512
    74a5:	fbc9c2        	addi	a12, a9, -5
    74a8:	3a0c      	movi.n	a10, 3
    74aa:	ffa0b2        	movi	a11, 255
    74ad:	5f          	.byte 0x5f
    74ae:	cc8107        	bany	a1, a0, 0x747e
    74b1:	d70b63        	excw
    74b4:	091b      	addi.n	a0, a9, 1
    74b6:	743d81        	l32r	a8, 0xfffe45ac
    74b9:	5f          	.byte 0x5f
    74ba:	7ed007        	bbs	a0, a0, 0x753c
    74bd:	010392        	l8ui	a9, a3, 1
    74c0:	f9ac      	beqz.n	a9, 0x74f3
    74c2:	02ad      	mov.n	a10, a2
    74c4:	0b0c      	movi.n	a11, 0
    74c6:	2e2482        	l32i	a8, a4, 184
    74c9:	5f          	.byte 0x5f
    74ca:	2fc905        	call0	0x3715c
    74cd:	34f8      	l32i.n	a15, a4, 12
    74cf:	010392        	l8ui	a9, a3, 1
    74d2:	7555d1        	l32r	a13, 0xfffe4a28
    74d5:	0d2966        	bnei	a9, 2, 0x74e6
    74d8:	02ad      	mov.n	a10, a2
    74da:	7556b1        	l32r	a11, 0xfffe4a34
    74dd:	3c0c      	movi.n	a12, 3
    74df:	02ed      	mov.n	a14, a2
    74e1:	000fe0        	excw
    74e4:	f01d      	excw
    74e6:	02ed      	mov.n	a14, a2
    74e8:	02ad      	mov.n	a10, a2
    74ea:	7557b1        	l32r	a11, 0xfffe4a48
    74ed:	3c0c      	movi.n	a12, 3
    74ef:	5f          	.byte 0x5f
    74f0:	920e05        	call0	0xfff995d4
    74f3:	260203        	excw
    74f6:	0c19      	s32i.n	a1, a12, 0
    74f8:	093926        	beqi	a9, 3, 0x7505
    74fb:	090c      	movi.n	a9, 0
    74fd:	ffcb86        	j	0x742f
    7500:	1b0c      	movi.n	a11, 1
    7502:	ffe9c6        	j	0x74ad
    7505:	190c      	movi.n	a9, 1
    7507:	ffc906        	j	0x742f
    750a:	2b0c      	movi.n	a11, 2
    750c:	5fe746        	j	0x1f4ad
    750f:	7c8705        	call0	0x83d80
    7512:	740041        	l32r	a4, 0xfffe4514
    7515:	2a0c      	movi.n	a10, 2
    7517:	d02482        	l32i	a8, a4, 0x340
    751a:	5f          	.byte 0x5f
    751b:	458705        	call0	0x4cd8c
    751e:	5f5d      	excw
    7520:	0e          	.byte 0xe
    7521:	b154b4        	excw
    7524:	742b      	addi.n	a7, a4, 2
    7526:	4568      	l32i.n	a6, a5, 16
    7528:	2c0c      	movi.n	a12, 2
    752a:	0046c2        	s8i	a12, a6, 0
    752d:	0003a2        	l8ui	a10, a3, 0
    7530:	0146a2        	s8i	a10, a6, 1
    7533:	000bb2        	l8ui	a11, a11, 0
    7536:	746471        	l32r	a7, 0xfffe46c8
    7539:	5cbab7        	bgeu	a10, a11, 0x7599
    753c:	a0aa70        	addx4	a10, a10, a7
    753f:	0aa8      	l32i.n	a10, a10, 0
    7541:	020a92        	l8ui	a9, a10, 2
    7544:	3b0c      	movi.n	a11, 3
    7546:	061916        	beqz	a9, 0x75ab
    7549:	752926        	beqi	a9, 2, 0x75c2
    754c:	083926        	beqi	a9, 3, 0x7558
    754f:	054926        	beqi	a9, 4, 0x7558
    7552:	000692        	l8ui	a9, a6, 0
    7555:	000106        	j	0x755d
    7558:	0b9d      	mov.n	a9, a11
    755a:	0046b2        	s8i	a11, a6, 0
    755d:	383966        	bnei	a9, 3, 0x7599
    7560:	000392        	l8ui	a9, a3, 0
    7563:	a09970        	addx4	a9, a9, a7
    7566:	09a8      	l32i.n	a10, a9, 0
    7568:	020ab2        	l8ui	a11, a10, 2
    756b:	2a5b26        	beqi	a11, 5, 0x7599
    756e:	fb7c      	movi.n	a11, -1
    7570:	014ab2        	s8i	a11, a10, 1
    7573:	09a8      	l32i.n	a10, a9, 0
    7575:	020a92        	l8ui	a9, a10, 2
    7578:	5f2926        	beqi	a9, 2, 0x75db
    757b:	54bc05        	call0	0x5c13c
    757e:	1249      	s32i.n	a4, a2, 4
    7580:	5f          	.byte 0x5f
    7581:	3dd505        	call0	0x452d4
    7584:	5f1b      	addi.n	a5, a15, 1
    7586:	388f05        	call0	0x3fe78
    7589:	0003a2        	l8ui	a10, a3, 0
    758c:	5f          	.byte 0x5f
    758d:	0c5305        	call0	0x13ac0
    7590:	b20b      	addi.n	a11, a2, -1
    7592:	024a      	add.n	a0, a2, a4
    7594:	05ad      	mov.n	a10, a5
    7596:	0002c2        	l8ui	a12, a2, 0
    7599:	7558b1        	l32r	a11, 0xfffe4afc
    759c:	d12482        	l32i	a8, a4, 0x344
    759f:	8d0c      	movi.n	a13, 8
    75a1:	5f          	.byte 0x5f
    75a2:	5c8206        	j	0x1e7ae
    75a5:	010a      	add.n	a0, a1, a0
    75a7:	0b2966        	bnei	a9, 2, 0x75b6
    75aa:	5f          	.byte 0x5f
    75ab:	748205        	call0	0x7bdcc
    75ae:	5f          	.byte 0x5f
    75af:	308d05        	call0	0x37e80
    75b2:	3b0c      	movi.n	a11, 3
    75b4:	390c      	movi.n	a9, 3
    75b6:	ffe5c6        	j	0x7551
    75b9:	0b9d      	mov.n	a9, a11
    75bb:	ffe486        	j	0x7551
    75be:	5f          	.byte 0x5f
    75bf:	08b405        	call0	0x10100
    75c2:	024d07        	ball	a13, a0, 0x75c8
    75c5:	020392        	l8ui	a9, a3, 2
    75c8:	740021        	l32r	a2, 0xfffe45c8
    75cb:	b9ac      	beqz.n	a9, 0x75fa
    75cd:	890b      	addi.n	a8, a9, -1
    75cf:	196816        	beqz	a8, 0x7769
    75d2:	fec9a2        	addi	a10, a9, -2
    75d5:	195a16        	beqz	a10, 0x776e
    75d8:	193926        	beqi	a9, 3, 0x75f5
    75db:	11b8      	l32i.n	a11, a1, 4
    75dd:	01c8      	l32i.n	a12, a1, 0
    75df:	41c9      	s32i.n	a12, a1, 16
    75e1:	51b9      	s32i.n	a11, a1, 20
    75e3:	41a8      	l32i.n	a10, a1, 16
    75e5:	0004c2        	l8ui	a12, a4, 0
    75e8:	51d8      	l32i.n	a13, a1, 20
    75ea:	d12282        	l32i	a8, a2, 0x344
    75ed:	5f58b1        	l32r	a11, 0xfffdf350
    75f0:	57aa06        	j	0x1d49c
    75f3:	4a0c      	movi.n	a10, 4
    75f5:	5f          	.byte 0x5f
    75f6:	02e505        	call0	0xa448
    75f9:	850c      	movi.n	a5, 8
    75fb:	8b0c      	movi.n	a11, 8
    75fd:	0243a2        	s8i	a10, a3, 2
    7600:	d02282        	l32i	a8, a2, 0x340
    7603:	2a0c      	movi.n	a10, 2
    7605:	5f          	.byte 0x5f
    7606:	878106        	j	0xfffe940e
    7609:	9a39      	s32i.n	a3, a10, 36
    760b:	5f          	.byte 0x5f
    760c:	940b      	addi.n	a9, a4, -1
    760e:	41a967        	bge	a9, a6, 0x7653
    7611:	5159      	s32i.n	a5, a1, 20
    7613:	4b68      	l32i.n	a6, a11, 16
    7615:	0e0c      	movi.n	a14, 0
    7617:	0046e2        	s8i	a14, a6, 0
    761a:	0003d2        	l8ui	a13, a3, 0
    761d:	0146d2        	s8i	a13, a6, 1
    7620:	fb4d56        	bnez	a13, 0x75d8
    7623:	1d0c      	movi.n	a13, 1
    7625:	7464c1        	l32r	a12, 0xfffe47b8
    7628:	3149      	s32i.n	a4, a1, 12
    762a:	742bf1        	l32r	a15, 0xfffe46d8
    762d:	020382        	l8ui	a8, a3, 2
    7630:	000ff2        	l8ui	a15, a15, 0
    7633:	2d2866        	bnei	a8, 2, 0x7664
    7636:	0e4d      	mov.n	a4, a14
    7638:	289f76        	excw
    763b:	a054c0        	addx4	a5, a4, a12
    763e:	0588      	l32i.n	a8, a5, 0
    7640:	020882        	l8ui	a8, a8, 2
    7643:	185866        	bnei	a8, 5, 0x765f
    7646:	a62b      	addi.n	a10, a6, 2
    7648:	6c0c      	movi.n	a12, 6
    764a:	0046d2        	s8i	a13, a6, 0
    764d:	014642        	s8i	a4, a6, 1
    7650:	05b8      	l32i.n	a11, a5, 0
    7652:	3f2282        	l32i	a8, a2, 252
    7655:	bb4b      	addi.n	a11, a11, 4
    7657:	0008e0        	excw
    765a:	3148      	l32i.n	a4, a1, 12
    765c:	ffde06        	j	0x75d8
    765f:	5f          	.byte 0x5f
    7660:	528505        	call0	0x59eb4
    7663:	040c      	movi.n	a4, 0
    7665:	096f56        	bnez	a15, 0x76ff
    7668:	030382        	l8ui	a8, a3, 3
    766b:	3148      	l32i.n	a4, a1, 12
    766d:	88dc      	bnez.n	a8, 0x7689
    766f:	040392        	l8ui	a9, a3, 4
    7672:	39dc      	bnez.n	a9, 0x7689
    7674:	0503a2        	l8ui	a10, a3, 5
    7677:	eacc      	bnez.n	a10, 0x7689
    7679:	0603b2        	l8ui	a11, a3, 6
    767c:	9bcc      	bnez.n	a11, 0x7689
    767e:	0703e2        	l8ui	a14, a3, 7
    7681:	4ecc      	bnez.n	a14, 0x7689
    7683:	0803f2        	l8ui	a15, a3, 8
    7686:	f4df16        	beqz	a15, 0x75d7
    7689:	f4a716        	beqz	a7, 0x75d7
    768c:	5f57c0        	excw
    768f:	035205        	call0	0xabb0
    7692:	5f3866        	bnei	a8, 3, 0x76f5
    7695:	810c      	movi.n	a1, 8
    7697:	27aa      	add.n	a2, a7, a10
    7699:	b33b      	addi.n	a11, a3, 3
    769b:	5f          	.byte 0x5f
    769c:	725d05        	call0	0x79c70
    769f:	a80146        	j	0xffff16a8
    76a2:	5f          	.byte 0x5f
    76a3:	aa5d05        	call0	0xfffb1c74
    76a6:	0008e0        	excw
    76a9:	5f          	.byte 0x5f
    76aa:	5f7104        	excw
    76ad:	6b0a      	add.n	a6, a11, a0
    76af:	7464d1        	l32r	a13, 0xfffe4840
    76b2:	0106c2        	l8ui	a12, a6, 1
    76b5:	a0ccd0        	addx4	a12, a12, a13
    76b8:	0ce8      	l32i.n	a14, a12, 0
    76ba:	0103d2        	l8ui	a13, a3, 1
    76bd:	014ed2        	s8i	a13, a14, 1
    76c0:	0203b2        	l8ui	a11, a3, 2
    76c3:	bb9c      	beqz.n	a11, 0x76e2
    76c5:	195be6        	bgei	a11, 5, 0x76e2
    76c8:	162ba6        	blti	a11, 2, 0x76e2
    76cb:	5f          	.byte 0x5f
    76cc:	758206        	j	0x24cd8
    76cf:	0ca8      	l32i.n	a10, a12, 0
    76d1:	5f          	.byte 0x5f
    76d2:	2709      	s32i.n	a0, a7, 8
    76d4:	0203b2        	l8ui	a11, a3, 2
    76d7:	5f          	.byte 0x5f
    76d8:	b22a05        	call0	0xfffb997c
    76db:	4e          	.byte 0x4e
    76dc:	b5c602        	addi	a0, a6, -75
    76df:	ff          	.byte 0xff
    76e0:	ffa0b2        	movi	a11, 255
    76e3:	833b      	addi.n	a8, a3, 3
    76e5:	2189      	s32i.n	a8, a1, 8
    76e7:	a054c0        	addx4	a5, a4, a12
    76ea:	05e8      	l32i.n	a14, a5, 0
    76ec:	010e92        	l8ui	a9, a14, 1
    76ef:	4099b7        	bne	a9, a11, 0x7733
    76f2:	0303a2        	l8ui	a10, a3, 3
    76f5:	0403b2        	l8ui	a11, a3, 4
    76f8:	5adc      	bnez.n	a10, 0x7711
    76fa:	3bdc      	bnez.n	a11, 0x7711
    76fc:	0503f2        	l8ui	a15, a3, 5
    76ff:	efcc      	bnez.n	a15, 0x7711
    7701:	060382        	l8ui	a8, a3, 6
    7704:	98cc      	bnez.n	a8, 0x7711
    7706:	070392        	l8ui	a9, a3, 7
    7709:	49cc      	bnez.n	a9, 0x7711
    770b:	0803a2        	l8ui	a10, a3, 8
    770e:	04fa16        	beqz	a10, 0x7761
    7711:	ae4b      	addi.n	a10, a14, 4
    7713:	21b8      	l32i.n	a11, a1, 8
    7715:	412282        	l32i	a8, a2, 0x104
    7718:	6c0c      	movi.n	a12, 6
    771a:	0008e0        	excw
    771d:	7464c1        	l32r	a12, 0xfffe48b0
    7720:	1d0c      	movi.n	a13, 1
    7722:	ffa0b2        	movi	a11, 255
    7725:	fa9c      	beqz.n	a10, 0x7748
    7727:	837470        	moveqz	a7, a4, a7
    772a:	742bf1        	l32r	a15, 0xfffe47d8
    772d:	747070        	extui	a7, a7, 0, 8
    7730:	5f0ff2        	l8ui	a15, a15, 95
    7733:	468706        	j	0x19153
    7736:	ab34f7        	bltu	a4, a15, 0x76e5
    7739:	ffc286        	j	0x7647
    773c:	2a0c      	movi.n	a10, 2
    773e:	ffa346        	j	0x75cf
    7741:	3a0c      	movi.n	a10, 3
    7743:	ffa206        	j	0x75cf
    7746:	a62b      	addi.n	a10, a6, 2
    7748:	6c0c      	movi.n	a12, 6
    774a:	014642        	s8i	a4, a6, 1
    774d:	0046d2        	s8i	a13, a6, 0
    7750:	5f          	.byte 0x5f
    7751:	820c      	movi.n	a2, 8
    7753:	d0c622        	addi	a2, a6, -48
    7756:	5f          	.byte 0x5f
    7757:	861917        	beq	a9, a1, 0x76e1
    775a:	5fca      	add.n	a5, a15, a12
    775c:	2c8505        	call0	0x33fb0
    775f:	02ad      	mov.n	a10, a2
    7761:	c388      	l32i.n	a8, a3, 48
    7763:	03bd      	mov.n	a11, a3
    7765:	0b68b7        	bbci	a8, 11, 0x7774
    7768:	7559c1        	l32r	a12, 0xfffe4ccc
    776b:	112292        	l32i	a9, a2, 68
    776e:	2099c0        	or	a9, a9, a12
    7771:	116292        	s32i	a9, a2, 68
    7774:	755a81        	l32r	a8, 0xfffe4cdc
    7777:	0888      	l32i.n	a8, a8, 0
    7779:	5f          	.byte 0x5f
    777a:	ee0a      	add.n	a14, a14, a0
    777c:	028200        	excw
    777f:	5aa102        	movi	a0, 0x15a
    7782:	386675        	excw
    7785:	1a9820        	excw
    7788:	1b1966        	bnei	a9, 1, 0x77a7
    778b:	740021        	l32r	a2, 0xfffe478c
    778e:	20ca32        	addi	a3, a10, 32
    7791:	5f2282        	l32i	a8, a2, 0x17c
    7794:	f90a      	add.n	a15, a9, a0
    7796:	0c0c      	movi.n	a12, 0
    7798:	820c      	movi.n	a2, 8
    779a:	0d5f22        	s16i	a2, a15, 26
    779d:	2b6090        	excw
    77a0:	649174        	excw
    77a3:	088274        	excw
    77a6:	5a2100        	excw
    77a9:	a87675        	excw
    77ac:	055f20        	extui	a5, a2, 31, 1
    77af:	4b3085        	call0	0x52ab8
    77b2:	6699      	s32i.n	a9, a6, 24
    77b4:	143b      	addi.n	a1, a4, 3
    77b6:	12c8      	l32i.n	a12, a2, 4
    77b8:	011c26        	beqi	a12, 1, 0x77bd
    77bb:	f01d      	excw
    77bd:	755b81        	l32r	a8, 0xfffe4d2c
    77c0:	9888      	l32i.n	a8, a8, 36
    77c2:	5f          	.byte 0x5f
    77c3:	2fa305        	call0	0x371f4
    77c6:	1299      	s32i.n	a9, a2, 4
    77c8:	f01d      	excw
    77ca:	5f3d      	excw
    77cc:	818107        	bany	a1, a0, 0x7751
    77cf:	4178      	l32i.n	a7, a1, 16
    77d1:	029200        	excw
    77d4:	5a3102        	excw
    77d7:	396675        	excw
    77da:	208114        	excw
    77dd:	075f74        	excw
    77e0:	1eb8      	l32i.n	a11, a14, 4
    77e2:	4a8c      	beqz.n	a10, 0x77ea
    77e4:	190c      	movi.n	a9, 1
    77e6:	1399      	s32i.n	a9, a3, 4
    77e8:	f01d      	excw
    77ea:	020292        	l8ui	a9, a2, 2
    77ed:	0f5926        	beqi	a9, 5, 0x7800
    77f0:	5f88      	l32i.n	a8, a15, 20
    77f2:	0dd806        	j	0xaf56
    77f5:	112292        	l32i	a9, a2, 68
    77f8:	755ca1        	l32r	a10, 0xfffe4d68
    77fb:	01e997        	bbsi	a9, 9, 0x7800
    77fe:	f01d      	excw
    7800:	10a9a0        	and	a10, a9, a10
    7803:	1162a2        	s32i	a10, a2, 68
    7806:	5f          	.byte 0x5f
    7807:	288107        	bany	a1, a0, 0x7833
    780a:	755a81        	l32r	a8, 0xfffe4d74
    780d:	5f          	.byte 0x5f
    780e:	8b8107        	bany	a1, a0, 0x779d
    7811:	7e          	.byte 0x7e
    7812:	755da1        	l32r	a10, 0xfffe4d88
    7815:	740081        	l32r	a8, 0xfffe4818
    7818:	755eb1        	l32r	a11, 0xfffe4d90
    781b:	702882        	l32i	a8, a8, 0x1c0
    781e:	5f          	.byte 0x5f
    781f:	098d05        	call0	0x110f0
    7822:	5f          	.byte 0x5f
    7823:	888106        	j	0xfffe9a2b
    7826:	055f60        	extui	a5, a6, 31, 1
    7829:	251887        	beq	a8, a8, 0x7852
    782c:	cb0cd0        	excw
    782f:	5f          	.byte 0x5f
    7830:	5dc406        	j	0x1ef44
    7833:	0c2a      	add.n	a0, a12, a2
    7835:	f01d22        	l16ui	a2, a13, 0x1e0
    7838:	03bd      	mov.n	a11, a3
    783a:	4aa8      	l32i.n	a10, a10, 16
    783c:	3f2582        	l32i	a8, a5, 252
    783f:	5f          	.byte 0x5f
    7840:	5ac105        	call0	0x62454
    7843:	02cd      	mov.n	a12, a2
    7845:	04ad      	mov.n	a10, a4
    7847:	005fb1        	l32r	a11, 0xfffc79c4
    784a:	258275        	excw
    784d:	cd0cd1        	l32r	a13, 0xffffac80
    7850:	5f          	.byte 0x5f
    7851:	e508      	l32i.n	a0, a5, 56
    7853:	363a      	add.n	a3, a6, a3
    7855:	ad0061        	l32r	a6, 0xffff2c58
    7858:	b34b01        	l32r	a0, 0xffff4584
    785b:	6c0c      	movi.n	a12, 6
    785d:	740081        	l32r	a8, 0xfffe4860
    7860:	3159      	s32i.n	a5, a1, 12
    7862:	3f2882        	l32i	a8, a8, 252
    7865:	4458      	l32i.n	a5, a4, 16
    7867:	5f          	.byte 0x5f
    7868:	30bd05        	call0	0x3843c
    786b:	04cd      	mov.n	a12, a4
    786d:	03bd      	mov.n	a11, a3
    786f:	31d8      	l32i.n	a13, a1, 12
    7871:	b005f2        	l8ui	a15, a5, 176
    7874:	0641f2        	s8i	a15, a1, 6
    7877:	2f25a2        	l32i	a10, a5, 188
    787a:	07fd      	mov.n	a15, a7
    787c:	41a8a0        	srli	a10, a10, 8
    787f:	0741a2        	s8i	a10, a1, 7
    7882:	2f2592        	l32i	a9, a5, 188
    7885:	02ad      	mov.n	a10, a2
    7887:	f59090        	extui	a9, a9, 16, 16
    788a:	084192        	s8i	a9, a1, 8
    788d:	b10582        	l8ui	a8, a5, 177
    7890:	094182        	s8i	a8, a1, 9
    7893:	332592        	l32i	a9, a5, 204
    7896:	755a81        	l32r	a8, 0xfffe4e00
    7899:	419890        	srli	a9, a9, 8
    789c:	0a4192        	s8i	a9, a1, 10
    789f:	332592        	l32i	a9, a5, 204
    78a2:	4888      	l32i.n	a8, a8, 16
    78a4:	5f          	.byte 0x5f
    78a5:	0b1d05        	call0	0x12a78
    78a8:	5f          	.byte 0x5f
    78a9:	59fe05        	call0	0x6188c
    78ac:	0a2d      	mov.n	a2, a10
    78ae:	5f          	.byte 0x5f
    78af:	23cc05        	call0	0x2b570
    78b2:	f62501        	l32r	a0, 0x5148 (0x74afc102)
    78b5:	5f          	.byte 0x5f
    78b6:	8109      	s32i.n	a0, a1, 32
    78b8:	810cb3        	excw
    78bb:	b17566        	bnei	a5, 7, 0x7870
    78be:	e17565        	excw
    78c1:	517563        	excw
    78c4:	755a      	add.n	a7, a5, a5
    78c6:	756041        	l32r	a4, 0xfffe4e48
    78c9:	756491        	l32r	a9, 0xfffe4e5c
    78cc:	756221        	l32r	a2, 0xfffe4e54
    78cf:	755bc1        	l32r	a12, 0xfffe4e3c
    78d2:	756131        	l32r	a3, 0xfffe4e58
    78d5:	3d6c32        	s32i	a3, a12, 244
    78d8:	3c6c22        	s32i	a2, a12, 240
    78db:	756721        	l32r	a2, 0xfffe4e78
    78de:	cc49      	s32i.n	a4, a12, 48
    78e0:	740031        	l32r	a3, 0xfffe48e0
    78e3:	9cd8      	l32i.n	a13, a12, 36
    78e5:	1cf8      	l32i.n	a15, a12, 4
    78e7:	09a8      	l32i.n	a10, a9, 0
    78e9:	35a9      	s32i.n	a10, a5, 12
    78eb:	0989      	s32i.n	a8, a9, 0
    78ed:	05f9      	s32i.n	a15, a5, 0
    78ef:	1ce9      	s32i.n	a14, a12, 4
    78f1:	25d9      	s32i.n	a13, a5, 8
    78f3:	9cb9      	s32i.n	a11, a12, 36
    78f5:	ea2342        	l32i	a4, a3, 0x3a8
    78f8:	4549      	s32i.n	a4, a5, 16
    78fa:	ea6322        	s32i	a2, a3, 0x3a8
    78fd:	5f          	.byte 0x5f
    78fe:	6c8105        	call0	0x74110
    7901:	1b2232        	l32i	a3, a2, 108
    7904:	2398      	l32i.n	a9, a3, 8
    7906:	04c916        	beqz	a9, 0x7956
    7909:	5f          	.byte 0x5f
    790a:	188805        	call0	0x2018c
    790d:	8218      	l32i.n	a1, a2, 32
    790f:	660202        	l8ui	a0, a2, 102
    7912:	0538      	l32i.n	a3, a5, 0
    7914:	982392        	l32i	a9, a3, 0x260
    7917:	0c2926        	beqi	a9, 2, 0x7927
    791a:	756881        	l32r	a8, 0xfffe4ebc
    791d:	02ad      	mov.n	a10, a2
    791f:	312882        	l32i	a8, a8, 196
    7922:	5f          	.byte 0x5f
    7923:	06af05        	call0	0xe414
    7926:	742041        	l32r	a4, 0xfffe49a8
    7929:	4488      	l32i.n	a8, a4, 16
    792b:	5f          	.byte 0x5f
    792c:	659006        	j	0x20f70
    792f:	92ca      	add.n	a9, a2, a12
    7931:	660102        	l8ui	a0, a1, 102
    7934:	1719      	s32i.n	a1, a7, 4
    7936:	02ad      	mov.n	a10, a2
    7938:	1922b2        	l32i	a11, a2, 100
    793b:	ffa0c2        	movi	a12, 255
    793e:	3488      	l32i.n	a8, a4, 12
    7940:	2d0c      	movi.n	a13, 2
    7942:	0008e0        	excw
    7945:	5a8c      	beqz.n	a10, 0x794e
    7947:	a488      	l32i.n	a8, a4, 40
    7949:	5f          	.byte 0x5f
    794a:	42db06        	j	0x184ba
    794d:	5f09      	s32i.n	a0, a15, 20
    794f:	33b905        	call0	0x3b4e0
    7952:	5f          	.byte 0x5f
    7953:	348406        	j	0x14b67
    7956:	1b2292        	l32i	a9, a2, 108
    7959:	03bd      	mov.n	a11, a3
    795b:	9529c2        	l32i	a12, a9, 0x254
    795e:	0c3366        	bnei	a3, 3, 0x796e
    7961:	f60982        	l8ui	a8, a9, 246
    7964:	68cc      	bnez.n	a8, 0x796e
    7966:	a20c92        	l8ui	a9, a12, 162
    7969:	991b      	addi.n	a9, a9, 1
    796b:	a24c92        	s8i	a9, a12, 162
    796e:	5f6981        	l32r	a8, 0xfffdf714
    7971:	8409      	s32i.n	a0, a4, 32
    7973:	5f39      	s32i.n	a3, a15, 20
    7975:	388406        	j	0x15b89
    7978:	0b4826        	beqi	a8, 4, 0x7987
    797b:	756981        	l32r	a8, 0xfffe4f20
    797e:	5f          	.byte 0x5f
    797f:	8109      	s32i.n	a0, a1, 32
    7981:	5f6ed2        	s32i	a13, a14, 0x17c
    7984:	7cb807        	bgeu	a8, a0, 0x7a04
    7987:	5d1b22        	l16ui	a2, a11, 186
    798a:	2c3203        	excw
    798d:	3798      	l32i.n	a9, a7, 12
    798f:	824315        	excw
    7992:	f90c      	movi.n	a9, 15
    7994:	d8bc      	beqz.n	a8, 0x79d5
    7996:	291566        	bnei	a5, 1, 0x79c3
    7999:	e0a132        	movi	a3, 0x1e0
    799c:	3c3a      	add.n	a3, a12, a3
    799e:	7c0392        	l8ui	a9, a3, 124
    79a1:	e9dc      	bnez.n	a9, 0x79c3
    79a3:	5f          	.byte 0x5f
    79a4:	79ec05        	call0	0x81868
    79a7:	1719      	s32i.n	a1, a7, 4
    79a9:	ad1664        	excw
    79ac:	688102        	excw
    79af:	434275        	excw
    79b2:	827d      	excw
    79b4:	3a28      	l32i.n	a2, a10, 12
    79b6:	5f          	.byte 0x5f
    79b7:	518905        	call0	0x59248
    79ba:	206352        	s32i	a5, a3, 128
    79bd:	052d      	mov.n	a2, a5
    79bf:	f01d      	excw
    79c1:	02ad      	mov.n	a10, a2
    79c3:	5f          	.byte 0x5f
    79c4:	055104        	excw
    79c7:	2888      	l32i.n	a8, a8, 8
    79c9:	5f          	.byte 0x5f
    79ca:	69ba05        	call0	0x7156c
    79cd:	0a2d      	mov.n	a2, a10
    79cf:	f01d      	excw
    79d1:	5f          	.byte 0x5f
    79d2:	7cc707        	bnall	a7, a0, 0x7a52
    79d5:	5f0041        	l32r	a4, 0xfffdf5d8
    79d8:	5f7e04        	excw
    79db:	8108      	l32i.n	a0, a1, 32
    79dd:	8f          	.byte 0x8f
    79de:	7e          	.byte 0x7e
    79df:	952ab2        	l32i	a11, a10, 0x254
    79e2:	293c      	movi.n	a9, 50
    79e4:	2a6b92        	s32i	a9, a11, 168
    79e7:	5f          	.byte 0x5f
    79e8:	9e09      	s32i.n	a0, a14, 36
    79ea:	757024        	excw
    79ed:	756f41        	l32r	a4, 0xfffe4fac
    79f0:	756cd1        	l32r	a13, 0xfffe4fa0
    79f3:	756bf1        	l32r	a15, 0xfffe4fa0
    79f6:	756d31        	l32r	a3, 0xfffe4fac
    79f9:	756ea1        	l32r	a10, 0xfffe4fb4
    79fc:	756ab1        	l32r	a11, 0xfffe4fa4
    79ff:	756981        	l32r	a8, 0xfffe4fa4
    7a02:	712be2        	l32i	a14, a11, 0x1c4
    7a05:	652bc2        	l32i	a12, a11, 0x194
    7a08:	18c9      	s32i.n	a12, a8, 4
    7a0a:	656ba2        	s32i	a10, a11, 0x194
    7a0d:	476bf2        	s32i	a15, a11, 0x11c
    7a10:	716bd2        	s32i	a13, a11, 0x1c4
    7a13:	08e9      	s32i.n	a14, a8, 0
    7a15:	652352        	l32i	a5, a3, 0x194
    7a18:	682392        	l32i	a9, a3, 0x1a0
    7a1b:	2899      	s32i.n	a9, a8, 8
    7a1d:	686342        	s32i	a4, a3, 0x1a0
    7a20:	3859      	s32i.n	a5, a8, 12
    7a22:	656322        	s32i	a2, a3, 0x194
    7a25:	5f          	.byte 0x5f
    7a26:	508205        	call0	0x58248
    7a29:	02ad      	mov.n	a10, a2
    7a2b:	728c      	beqz.n	a2, 0x7a36
    7a2d:	745b91        	l32r	a9, 0xfffe4b9c
    7a30:	b48020        	extui	a8, a2, 0, 12
    7a33:	029897        	bne	a8, a9, 0x7a39
    7a36:	7571a1        	l32r	a10, 0xfffe4ffc
    7a39:	5f7281        	l32r	a8, 0xfffdf804
    7a3c:	6a8106        	j	0x22444
    7a3f:	5f          	.byte 0x5f
    7a40:	8308      	l32i.n	a0, a3, 32
    7a42:	2138      	l32i.n	a3, a1, 8
    7a44:	317573        	excw
    7a47:	817400        	src	a7, a4, a0
    7a4a:	427572        	excw
    7a4d:	49c623        	excw
    7a50:	2208      	l32i.n	a0, a2, 8
    7a52:	5fc663        	excw
    7a55:	8108      	l32i.n	a0, a1, 32
    7a57:	5f7414        	excw
    7a5a:	9608      	l32i.n	a0, a6, 36
    7a5c:	2d6c      	movi.n	a13, -30
    7a5e:	0c0a      	add.n	a0, a12, a0
    7a60:	a10b      	addi.n	a10, a1, -1
    7a62:	7549      	s32i.n	a4, a5, 28
    7a64:	757581        	l32r	a8, 0xfffe5038
    7a67:	0aa8      	l32i.n	a10, a10, 0
    7a69:	1888      	l32i.n	a8, a8, 4
    7a6b:	5f1aa2        	l16ui	a10, a10, 190
    7a6e:	810a      	add.n	a8, a1, a0
    7a70:	2cca      	add.n	a2, a12, a12
    7a72:	754951        	l32r	a5, 0xfffe4f98
    7a75:	02ad      	mov.n	a10, a2
    7a77:	0548      	l32i.n	a4, a5, 0
    7a79:	03bd      	mov.n	a11, a3
    7a7b:	1f1442        	l16ui	a4, a4, 62
    7a7e:	757781        	l32r	a8, 0xfffe505c
    7a81:	5f          	.byte 0x5f
    7a82:	d08106        	j	0xffffbc8a
    7a85:	a80c      	movi.n	a8, 10
    7a87:	138805        	call0	0x1b308
    7a8a:	3e4a42        	s8i	a4, a10, 62
    7a8d:	3f4a92        	s8i	a9, a10, 63
    7a90:	788c      	beqz.n	a8, 0x7a9b
    7a92:	7576c1        	l32r	a12, 0xfffe506c
    7a95:	0cc8      	l32i.n	a12, a12, 0
    7a97:	0b0c      	movi.n	a11, 0
    7a99:	4cb9      	s32i.n	a11, a12, 16
    7a9b:	5f          	.byte 0x5f
    7a9c:	34a207        	bge	a2, a0, 0x7ad4
    7a9f:	7549      	s32i.n	a4, a5, 28
    7aa1:	0398      	l32i.n	a9, a3, 0
    7aa3:	2988      	l32i.n	a8, a9, 8
    7aa5:	04b816        	beqz	a8, 0x7af4
    7aa8:	757881        	l32r	a8, 0xfffe5088
    7aab:	1f1922        	l16ui	a2, a9, 62
    7aae:	432280        	excw
    7ab1:	d2bc      	beqz.n	a2, 0x7af2
    7ab3:	740041        	l32r	a4, 0xfffe4ab4
    7ab6:	182482        	l32i	a8, a4, 96
    7ab9:	0008e0        	excw
    7abc:	03c8      	l32i.n	a12, a3, 0
    7abe:	102ce2        	l32i	a14, a12, 64
    7ac1:	112cc2        	l32i	a12, a12, 68
    7ac4:	d2ea      	add.n	a13, a2, a14
    7ac6:	0dfd      	mov.n	a15, a13
    7ac8:	01bd27        	bgeu	a13, a2, 0x7acd
    7acb:	cc1b      	addi.n	a12, a12, 1
    7acd:	0d0c      	movi.n	a13, 0
    7acf:	073cb7        	bltu	a12, a11, 0x7ada
    7ad2:	029bc7        	bne	a11, a12, 0x7ad8
    7ad5:	01baf7        	bgeu	a10, a15, 0x7ada
    7ad8:	1d0c      	movi.n	a13, 1
    7ada:	0f0c      	movi.n	a15, 0
    7adc:	82ea      	add.n	a8, a2, a14
    7ade:	c0a8a0        	sub	a10, a8, a10
    7ae1:	83afd0        	moveqz	a10, a15, a13
    7ae4:	aa8c      	beqz.n	a10, 0x7af2
    7ae6:	e8a392        	movi	a9, 0x3e8
    7ae9:	152482        	l32i	a8, a4, 84
    7aec:	82aa90        	mull	a10, a10, a9
    7aef:	0008e0        	excw
    7af2:	0398      	l32i.n	a9, a3, 0
    7af4:	1509a2        	l8ui	a10, a9, 21
    7af7:	6a8c      	beqz.n	a10, 0x7b01
    7af9:	757581        	l32r	a8, 0xfffe50d0
    7afc:	2888      	l32i.n	a8, a8, 8
    7afe:	0008e0        	excw
    7b01:	757991        	l32r	a9, 0xfffe50e8
    7b04:	0998      	l32i.n	a9, a9, 0
    7b06:	d98c      	beqz.n	a9, 0x7b17
    7b08:	751a81        	l32r	a8, 0xfffe4f70
    7b0b:	757aa1        	l32r	a10, 0xfffe50f4
    7b0e:	252882        	l32i	a8, a8, 148
    7b11:	5f1aa2        	l16ui	a10, a10, 190
    7b14:	09e506        	j	0xa2ac
    7b17:	5f          	.byte 0x5f
    7b18:	4cbd06        	j	0x1ae10
    7b1b:	7f          	.byte 0x7f
    7b1c:	74c175        	excw
    7b1f:	7de175        	excw
    7b22:	7ed175        	excw
    7b25:	7ca175        	excw
    7b28:	033175        	excw
    7b2b:	0ab874        	excw
    7b2e:	bb2332        	l32i	a3, a3, 0x2ec
    7b31:	6ad9      	s32i.n	a13, a10, 24
    7b33:	2ae9      	s32i.n	a14, a10, 8
    7b35:	0cb9      	s32i.n	a11, a12, 0
    7b37:	0a99      	s32i.n	a9, a10, 0
    7b39:	553230        	extui	a3, a3, 18, 6
    7b3c:	a38c      	beqz.n	a3, 0x7b4a
    7b3e:	757b81        	l32r	a8, 0xfffe512c
    7b41:	414830        	srli	a4, a3, 8
    7b44:	024832        	s8i	a3, a8, 2
    7b47:	5f4842        	s8i	a4, a8, 95
    7b4a:	a18107        	bany	a1, a0, 0x7aef
    7b4d:	006134        	excw
    7b50:	742341        	l32r	a4, 0xfffe4bdc
    7b53:	0498      	l32i.n	a9, a4, 0
    7b55:	1f0c      	movi.n	a15, 1
    7b57:	682992        	l32i	a9, a9, 0x1a0
    7b5a:	7580c1        	l32r	a12, 0xfffe515c
    7b5d:	4998      	l32i.n	a9, a9, 16
    7b5f:	7581d1        	l32r	a13, 0xfffe5164
    7b62:	09ad      	mov.n	a10, a9
    7b64:	103916        	beqz	a9, 0x7c6b
    7b67:	0199      	s32i.n	a9, a1, 0
    7b69:	04b8      	l32i.n	a11, a4, 0
    7b6b:	4a98      	l32i.n	a9, a10, 16
    7b6d:	682bb2        	l32i	a11, a11, 0x1a0
    7b70:	a988      	l32i.n	a8, a9, 40
    7b72:	061b22        	l16ui	a2, a11, 12
    7b75:	f48080        	extui	a8, a8, 0, 16
    7b78:	413880        	srli	a3, a8, 8
    7b7b:	284982        	s8i	a8, a9, 40
    7b7e:	e21b      	addi.n	a14, a2, 1
    7b80:	294932        	s8i	a3, a9, 41
    7b83:	112200        	slli	a2, a2, 16
    7b86:	413830        	srli	a3, a3, 8
    7b89:	2a4932        	s8i	a3, a9, 42
    7b8c:	1022c0        	and	a2, a2, a12
    7b8f:	413830        	srli	a3, a3, 8
    7b92:	208820        	or	a8, a8, a2
    7b95:	415880        	srli	a5, a8, 8
    7b98:	2b4932        	s8i	a3, a9, 43
    7b9b:	065be2        	s16i	a14, a11, 12
    7b9e:	284982        	s8i	a8, a9, 40
    7ba1:	294952        	s8i	a5, a9, 41
    7ba4:	055f50        	extui	a5, a5, 31, 1
    7ba7:	1e          	.byte 0x1e
    7ba8:	412830        	srli	a2, a3, 8
    7bab:	2b4922        	s8i	a2, a9, 43
    7bae:	041f66        	bnei	a15, 1, 0x7bb6
    7bb1:	0f0c      	movi.n	a15, 0
    7bb3:	000506        	j	0x7bcb
    7bb6:	41e890        	srli	a14, a9, 8
    7bb9:	044d92        	s8i	a9, a13, 4
    7bbc:	054de2        	s8i	a14, a13, 5
    7bbf:	41e8e0        	srli	a14, a14, 8
    7bc2:	064de2        	s8i	a14, a13, 6
    7bc5:	5f          	.byte 0x5f
    7bc6:	070605        	call0	0xec28
    7bc9:	29e8      	l32i.n	a14, a9, 8
    7bcb:	3938      	l32i.n	a3, a9, 12
    7bcd:	34d0e0        	extui	a13, a14, 0, 4
    7bd0:	06ed16        	beqz	a13, 0x7c42
    7bd3:	b52030        	extui	a2, a3, 16, 12
    7bd6:	68b2b6        	bltui	a2, 16, 0x7c42
    7bd9:	758281        	l32r	a8, 0xfffe51e4
    7bdc:	051c      	movi.n	a5, 16
    7bde:	c055d0        	sub	a5, a5, a13
    7be1:	c07250        	sub	a7, a2, a5
    7be4:	116500        	slli	a6, a5, 16
    7be7:	106680        	and	a6, a6, a8
    7bea:	117700        	slli	a7, a7, 16
    7bed:	5e5a      	add.n	a5, a14, a5
    7bef:	107780        	and	a7, a7, a8
    7bf2:	104952        	s8i	a5, a9, 16
    7bf5:	415850        	srli	a5, a5, 8
    7bf8:	114952        	s8i	a5, a9, 17
    7bfb:	758181        	l32r	a8, 0xfffe5200
    7bfe:	5f          	.byte 0x5f
    7bff:	120905        	call0	0x19c90
    7c02:	5f          	.byte 0x5f
    7c03:	130605        	call0	0x1ac64
    7c06:	105380        	and	a5, a3, a8
    7c09:	205560        	or	a5, a5, a6
    7c0c:	0c4952        	s8i	a5, a9, 12
    7c0f:	5968      	l32i.n	a6, a9, 20
    7c11:	5f          	.byte 0x5f
    7c12:	0d1105        	call0	0x14d24
    7c15:	106680        	and	a6, a6, a8
    7c18:	206670        	or	a6, a6, a7
    7c1b:	5f          	.byte 0x5f
    7c1c:	0e0c05        	call0	0x15ce0
    7c1f:	144962        	s8i	a6, a9, 20
    7c22:	415850        	srli	a5, a5, 8
    7c25:	416860        	srli	a6, a6, 8
    7c28:	154962        	s8i	a6, a9, 21
    7c2b:	0f4952        	s8i	a5, a9, 15
    7c2e:	5f          	.byte 0x5f
    7c2f:	160905        	call0	0x1dcc0
    7c32:	5f          	.byte 0x5f
    7c33:	170605        	call0	0x1ec94
    7c36:	0e0b82        	l8ui	a8, a11, 14
    7c39:	881b      	addi.n	a8, a8, 1
    7c3b:	0e4b82        	s8i	a8, a11, 14
    7c3e:	5aa8      	l32i.n	a10, a10, 20
    7c40:	09dd      	mov.n	a13, a9
    7c42:	f13a56        	bnez	a10, 0x7b59
    7c45:	0198      	l32i.n	a9, a1, 0
    7c47:	099c      	beqz.n	a9, 0x7c5b
    7c49:	49b8      	l32i.n	a11, a9, 16
    7c4b:	04a8      	l32i.n	a10, a4, 0
    7c4d:	742581        	l32r	a8, 0xfffe4ce4
    7c50:	682aa2        	l32i	a10, a10, 0x1a0
    7c53:	bc2882        	l32i	a8, a8, 0x2f0
    7c56:	5f          	.byte 0x5f
    7c57:	5fd105        	call0	0x67968
    7c5a:	5f          	.byte 0x5f
    7c5b:	648405        	call0	0x6c49c
    7c5e:	7428      	l32i.n	a2, a4, 28
    7c60:	742551        	l32r	a5, 0xfffe4cf4
    7c63:	03ad      	mov.n	a10, a3
    7c65:	cd2582        	l32i	a8, a5, 0x334
    7c68:	44b8      	l32i.n	a11, a4, 16
    7c6a:	0008e0        	excw
    7c6d:	758171        	l32r	a7, 0xfffe5274
    7c70:	758261        	l32r	a6, 0xfffe5278
    7c73:	5448      	l32i.n	a4, a4, 20
    7c75:	44b8      	l32i.n	a11, a4, 16
    7c77:	2ba8      	l32i.n	a10, a11, 8
    7c79:	3bd8      	l32i.n	a13, a11, 12
    7c7b:	3490a0        	extui	a9, a10, 0, 4
    7c7e:	068916        	beqz	a9, 0x7cea
    7c81:	b5c0d0        	extui	a12, a13, 16, 12
    7c84:	62bcb6        	bltui	a12, 16, 0x7cea
    7c87:	0f1c      	movi.n	a15, 16
    7c89:	c0ff90        	sub	a15, a15, a9
    7c8c:	8afa      	add.n	a8, a10, a15
    7c8e:	11ef00        	slli	a14, a15, 16
    7c91:	10ee60        	and	a14, a14, a6
    7c94:	104b82        	s8i	a8, a11, 16
    7c97:	c0fcf0        	sub	a15, a12, a15
    7c9a:	418880        	srli	a8, a8, 8
    7c9d:	114b82        	s8i	a8, a11, 17
    7ca0:	11ff00        	slli	a15, a15, 16
    7ca3:	5f          	.byte 0x5f
    7ca4:	120905        	call0	0x19d38
    7ca7:	10ff60        	and	a15, a15, a6
    7caa:	5f          	.byte 0x5f
    7cab:	130905        	call0	0x1ad3c
    7cae:	108d70        	and	a8, a13, a7
    7cb1:	2088e0        	or	a8, a8, a14
    7cb4:	0c4b82        	s8i	a8, a11, 12
    7cb7:	5be8      	l32i.n	a14, a11, 20
    7cb9:	5f          	.byte 0x5f
    7cba:	0d1105        	call0	0x14dcc
    7cbd:	10ee70        	and	a14, a14, a7
    7cc0:	20eef0        	or	a14, a14, a15
    7cc3:	5f          	.byte 0x5f
    7cc4:	0e0c05        	call0	0x15d88
    7cc7:	144be2        	s8i	a14, a11, 20
    7cca:	418880        	srli	a8, a8, 8
    7ccd:	41e8e0        	srli	a14, a14, 8
    7cd0:	154be2        	s8i	a14, a11, 21
    7cd3:	0f4b82        	s8i	a8, a11, 15
    7cd6:	5f          	.byte 0x5f
    7cd7:	160905        	call0	0x1dd68
    7cda:	5f          	.byte 0x5f
    7cdb:	170605        	call0	0x1ed3c
    7cde:	cd2582        	l32i	a8, a5, 0x334
    7ce1:	5f          	.byte 0x5f
    7ce2:	608b05        	call0	0x68594
    7ce5:	021427        	beq	a4, a2, 0x7ceb
    7ce8:	ffde86        	j	0x7c66
    7ceb:	5f          	.byte 0x5f
    7cec:	788406        	j	0x25f00
    7cef:	e3bc      	beqz.n	a3, 0x7d31
    7cf1:	03c8      	l32i.n	a12, a3, 0
    7cf3:	b49c      	beqz.n	a4, 0x7d12
    7cf5:	0c6d      	mov.n	a6, a12
    7cf7:	7cac      	beqz.n	a12, 0x7d22
    7cf9:	80a2b2        	movi	a11, 0x280
    7cfc:	4698      	l32i.n	a9, a6, 16
    7cfe:	202992        	l32i	a9, a9, 128
    7d01:	898c      	beqz.n	a9, 0x7d0d
    7d03:	d9ba      	add.n	a13, a9, a11
    7d05:	750da2        	l8ui	a10, a13, 117
    7d08:	aa1b      	addi.n	a10, a10, 1
    7d0a:	754da2        	s8i	a10, a13, 117
    7d0d:	5668      	l32i.n	a6, a6, 20
    7d0f:	fe9656        	bnez	a6, 0x7cfc
    7d12:	cc8c      	beqz.n	a12, 0x7d22
    7d14:	0b0c      	movi.n	a11, 0
    7d16:	55e8      	l32i.n	a14, a5, 20
    7d18:	13d8      	l32i.n	a13, a3, 4
    7d1a:	0ec9      	s32i.n	a12, a14, 0
    7d1c:	55d9      	s32i.n	a13, a5, 20
    7d1e:	03b9      	s32i.n	a11, a3, 0
    7d20:	1339      	s32i.n	a3, a3, 4
    7d22:	080392        	l8ui	a9, a3, 8
    7d25:	75f8      	l32i.n	a15, a5, 28
    7d27:	6588      	l32i.n	a8, a5, 24
    7d29:	ff9a      	add.n	a15, a15, a9
    7d2b:	889a      	add.n	a8, a8, a9
    7d2d:	6589      	s32i.n	a8, a5, 24
    7d2f:	75f9      	s32i.n	a15, a5, 28
    7d31:	742381        	l32r	a8, 0xfffe4dc0
    7d34:	0888      	l32i.n	a8, a8, 0
    7d36:	682882        	l32i	a8, a8, 0x1a0
    7d39:	0598      	l32i.n	a9, a5, 0
    7d3b:	0888      	l32i.n	a8, a8, 0
    7d3d:	c08890        	sub	a8, a8, a9
    7d40:	181816        	beqz	a8, 0x7ec5
    7d43:	2598      	l32i.n	a9, a5, 8
    7d45:	4568      	l32i.n	a6, a5, 16
    7d47:	19cc      	bnez.n	a9, 0x7d4c
    7d49:	000046        	j	0x7d4e
    7d4c:	5968      	l32i.n	a6, a9, 20
    7d4e:	02ad      	mov.n	a10, a2
    7d50:	5f          	.byte 0x5f
    7d51:	49b707        	bgeu	a7, a0, 0x7d9e
    7d54:	5f          	.byte 0x5f
    7d55:	d18106        	j	0xffffc35d
    7d58:	0f          	.byte 0xf
    7d59:	155416        	beqz	a4, 0x7eb2
    7d5c:	152616        	beqz	a6, 0x7eb2
    7d5f:	0e05a2        	l8ui	a10, a5, 14
    7d62:	0f0592        	l8ui	a9, a5, 15
    7d65:	990b      	addi.n	a9, a9, -1
    7d67:	02a9a7        	bge	a9, a10, 0x7d6d
    7d6a:	005106        	j	0x7eb2
    7d6d:	4638      	l32i.n	a3, a6, 16
    7d6f:	7678      	l32i.n	a7, a6, 28
    7d71:	1f23a2        	l32i	a10, a3, 124
    7d74:	034d      	mov.n	a4, a3
    7d76:	076a37        	bbci	a10, 3, 0x7d81
    7d79:	c398      	l32i.n	a9, a3, 48
    7d7b:	059e90        	extui	a9, a9, 30, 1
    7d7e:	5f          	.byte 0x5f
    7d7f:	66cc05        	call0	0x6ea40
    7d82:	0615a2        	l16ui	a10, a5, 12
    7d85:	74b090        	extui	a11, a9, 0, 8
    7d88:	04eb16        	beqz	a11, 0x7dda
    7d8b:	5f          	.byte 0x5f
    7d8c:	a50d      	excw
    7d8e:	838150        	moveqz	a8, a1, a5
    7d91:	80c175        	excw
    7d94:	ba1b75        	excw
    7d97:	4748      	l32i.n	a4, a7, 16
    7d99:	11aa00        	slli	a10, a10, 16
    7d9c:	a498      	l32i.n	a9, a4, 40
    7d9e:	10aac0        	and	a10, a10, a12
    7da1:	0888      	l32i.n	a8, a8, 0
    7da3:	06cd      	mov.n	a12, a6
    7da5:	c888      	l32i.n	a8, a8, 48
    7da7:	0655b2        	s16i	a11, a5, 12
    7daa:	f49090        	extui	a9, a9, 0, 16
    7dad:	2099a0        	or	a9, a9, a10
    7db0:	284492        	s8i	a9, a4, 40
    7db3:	5fad      	excw
    7db5:	7ce005        	call0	0x84bb8
    7db8:	5f2944        	excw
    7dbb:	2a0605        	call0	0x31e1c
    7dbe:	5f          	.byte 0x5f
    7dbf:	2b0605        	call0	0x32e20
    7dc2:	05b8      	l32i.n	a11, a5, 0
    7dc4:	0008e0        	excw
    7dc7:	076d      	mov.n	a6, a7
    7dc9:	000a86        	j	0x7df7
    7dcc:	fa1b      	addi.n	a15, a10, 1
    7dce:	758081        	l32r	a8, 0xfffe53d0
    7dd1:	a3d8      	l32i.n	a13, a3, 40
    7dd3:	11ea00        	slli	a14, a10, 16
    7dd6:	f4d0d0        	extui	a13, a13, 0, 16
    7dd9:	10ee80        	and	a14, a14, a8
    7ddc:	0655f2        	s16i	a15, a5, 12
    7ddf:	20dde0        	or	a13, a13, a14
    7de2:	2843d2        	s8i	a13, a3, 40
    7de5:	41d8d0        	srli	a13, a13, 8
    7de8:	2943d2        	s8i	a13, a3, 41
    7deb:	5f          	.byte 0x5f
    7dec:	2a0605        	call0	0x31e50
    7def:	5f          	.byte 0x5f
    7df0:	2b0605        	call0	0x32e54
    7df3:	070c      	movi.n	a7, 0
    7df5:	23a8      	l32i.n	a10, a3, 8
    7df7:	090c      	movi.n	a9, 0
    7df9:	054492        	s8i	a9, a4, 5
    7dfc:	044472        	s8i	a7, a4, 4
    7dff:	5f          	.byte 0x5f
    7e00:	060804        	excw
    7e03:	5f          	.byte 0x5f
    7e04:	070504        	excw
    7e07:	3490a0        	extui	a9, a10, 0, 4
    7e0a:	070916        	beqz	a9, 0x7e7e
    7e0d:	33c8      	l32i.n	a12, a3, 12
    7e0f:	758281        	l32r	a8, 0xfffe5418
    7e12:	b5b0c0        	extui	a11, a12, 16, 12
    7e15:	65bbb6        	bltui	a11, 16, 0x7e7e
    7e18:	0d1c      	movi.n	a13, 16
    7e1a:	c0dd90        	sub	a13, a13, a9
    7e1d:	c0fbd0        	sub	a15, a11, a13
    7e20:	11ed00        	slli	a14, a13, 16
    7e23:	10ee80        	and	a14, a14, a8
    7e26:	11ff00        	slli	a15, a15, 16
    7e29:	dada      	add.n	a13, a10, a13
    7e2b:	10ff80        	and	a15, a15, a8
    7e2e:	1043d2        	s8i	a13, a3, 16
    7e31:	5f          	.byte 0x5f
    7e32:	114605        	call0	0x19294
    7e35:	758181        	l32r	a8, 0xfffe543c
    7e38:	5f          	.byte 0x5f
    7e39:	120905        	call0	0x19ecc
    7e3c:	5f          	.byte 0x5f
    7e3d:	130605        	call0	0x1aea0
    7e40:	10dc80        	and	a13, a12, a8
    7e43:	5f          	.byte 0x5f
    7e44:	0c7005        	call0	0x14548
    7e47:	53e8      	l32i.n	a14, a3, 20
    7e49:	5f          	.byte 0x5f
    7e4a:	0d1105        	call0	0x14f5c
    7e4d:	055f80        	extui	a5, a8, 31, 1
    7e50:	5f3c83        	excw
    7e53:	0e0c05        	call0	0x15f14
    7e56:	1443e2        	s8i	a14, a3, 20
    7e59:	5fd8d0        	excw
    7e5c:	3c8305        	call0	0x44690
    7e5f:	d21543        	excw
    7e62:	055f43        	excw
    7e65:	433c83        	excw
    7e68:	5f          	.byte 0x5f
    7e69:	3c8305        	call0	0x4469c
    7e6c:	411743        	excw
    7e6f:	bd7425        	excw
    7e72:	248203        	excw
    7e75:	a8bc      	beqz.n	a8, 0x7eb3
    7e77:	08e005        	call0	0x10c78
    7e7a:	05a200        	extui	a10, a0, 18, 1
    7e7d:	0e          	.byte 0xe
    7e7e:	2569      	s32i.n	a6, a5, 8
    7e80:	aa1b      	addi.n	a10, a10, 1
    7e82:	74a0a0        	extui	a10, a10, 0, 8
    7e85:	0e45a2        	s8i	a10, a5, 14
    7e88:	5668      	l32i.n	a6, a6, 20
    7e8a:	eaf656        	bnez	a6, 0x7d3d
    7e8d:	5f          	.byte 0x5f
    7e8e:	f209      	s32i.n	a0, a2, 60
    7e90:	5f3b      	addi.n	a5, a15, 3
    7e92:	8108      	l32i.n	a0, a1, 32
    7e94:	5f77d3        	excw
    7e97:	408905        	call0	0x48728
    7e9a:	317585        	call0	0x395f4
    7e9d:	817583        	excw
    7ea0:	387584        	excw
    7ea3:	732903        	excw
    7ea6:	c389      	s32i.n	a8, a3, 48
    7ea8:	5f          	.byte 0x5f
    7ea9:	24b305        	call0	0x2c9dc
    7eac:	740071        	l32r	a7, 0xfffe4eac
    7eaf:	060c      	movi.n	a6, 0
    7eb1:	c458      	l32i.n	a5, a4, 48
    7eb3:	010282        	l8ui	a8, a2, 1
    7eb6:	112292        	l32i	a9, a2, 68
    7eb9:	5f          	.byte 0x5f
    7eba:	66e106        	j	0x21a42
    7ebd:	0e0c      	movi.n	a14, 0
    7ebf:	c1e9      	s32i.n	a14, a1, 48
    7ec1:	1061d2        	s32i	a13, a1, 64
    7ec4:	1161c2        	s32i	a12, a1, 68
    7ec7:	e1b9      	s32i.n	a11, a1, 56
    7ec9:	059390        	extui	a9, a9, 19, 1
    7ecc:	d199      	s32i.n	a9, a1, 52
    7ece:	071826        	beqi	a8, 1, 0x7ed9
    7ed1:	5f          	.byte 0x5f
    7ed2:	4ca106        	j	0x1b15a
    7ed5:	d5a9      	s32i.n	a10, a5, 52
    7ed7:	758681        	l32r	a8, 0xfffe54f0
    7eda:	02ad      	mov.n	a10, a2
    7edc:	0888      	l32i.n	a8, a8, 0
    7ede:	5f          	.byte 0x5f
    7edf:	06d105        	call0	0xebf0
    7ee2:	bacc      	bnez.n	a10, 0x7ef1
    7ee4:	54a8      	l32i.n	a10, a4, 20
    7ee6:	112292        	l32i	a9, a2, 68
    7ee9:	7acc      	bnez.n	a10, 0x7ef4
    7eeb:	05e997        	bbsi	a9, 9, 0x7ef4
    7eee:	055f46        	j	0x946f
    7ef1:	137240        	excw
    7ef4:	e4b806        	j	0x11d8
    7ef7:	64d8      	l32i.n	a13, a4, 24
    7ef9:	8b8c      	beqz.n	a11, 0x7f05
    7efb:	94c8      	l32i.n	a12, a4, 36
    7efd:	180cc2        	l8ui	a12, a12, 24
    7f00:	04c4c0        	extui	a12, a12, 4, 1
    7f03:	24c9      	s32i.n	a12, a4, 8
    7f05:	f1d9      	s32i.n	a13, a1, 60
    7f07:	027947        	bbci	a9, 20, 0x7f0d
    7f0a:	0020c6        	j	0x7f91
    7f0d:	080d56        	bnez	a13, 0x7f91
    7f10:	14c1a2        	addi	a10, a1, 20
    7f13:	0c1c      	movi.n	a12, 16
    7f15:	5f          	.byte 0x5f
    7f16:	ca08      	l32i.n	a0, a10, 48
    7f18:	41b953        	excw
    7f1b:	0008e0        	excw
    7f1e:	03cd      	mov.n	a12, a3
    7f20:	02ad      	mov.n	a10, a2
    7f22:	05bd      	mov.n	a11, a5
    7f24:	758681        	l32r	a8, 0xfffe553c
    7f27:	14c1d2        	addi	a13, a1, 20
    7f2a:	1888      	l32i.n	a8, a8, 4
    7f2c:	10c1e2        	addi	a14, a1, 16
    7f2f:	5f          	.byte 0x5f
    7f30:	20cb05        	call0	0x28be4
    7f33:	0acd      	mov.n	a12, a10
    7f35:	5198      	l32i.n	a9, a1, 20
    7f37:	1261a2        	s32i	a10, a1, 72
    7f3a:	199c      	beqz.n	a9, 0x7f4f
    7f3c:	02ad      	mov.n	a10, a2
    7f3e:	742081        	l32r	a8, 0xfffe4fc0
    7f41:	14c1b2        	addi	a11, a1, 20
    7f44:	1b2882        	l32i	a8, a8, 108
    7f47:	5f          	.byte 0x5f
    7f48:	389c05        	call0	0x4090c
    7f4b:	1221c2        	l32i	a12, a1, 72
    7f4e:	2ccc      	bnez.n	a12, 0x7f54
    7f50:	820c      	movi.n	a2, 8
    7f52:	f01d      	excw
    7f54:	4198      	l32i.n	a9, a1, 16
    7f56:	399956        	bnez	a9, 0x82f3
    7f59:	1724a2        	l32i	a10, a4, 92
    7f5c:	1224d2        	l32i	a13, a4, 72
    7f5f:	0cc8      	l32i.n	a12, a12, 0
    7f61:	8db8      	l32i.n	a11, a13, 32
    7f63:	4cc8      	l32i.n	a12, a12, 16
    7f65:	bb1b      	addi.n	a11, a11, 1
    7f67:	204db2        	s8i	a11, a13, 32
    7f6a:	41b8b0        	srli	a11, a11, 8
    7f6d:	214db2        	s8i	a11, a13, 33
    7f70:	5f          	.byte 0x5f
    7f71:	220605        	call0	0x29fd4
    7f74:	5f          	.byte 0x5f
    7f75:	230605        	call0	0x2afd8
    7f78:	071ac7        	beq	a10, a12, 0x7f83
    7f7b:	1764c2        	s32i	a12, a4, 92
    7f7e:	272cd2        	l32i	a13, a12, 156
    7f81:	94d9      	s32i.n	a13, a4, 36
    7f83:	64e8      	l32i.n	a14, a4, 24
    7f85:	f1e9      	s32i.n	a14, a1, 60
    7f87:	4c0c      	movi.n	a12, 4
    7f89:	182492        	l32i	a9, a4, 96
    7f8c:	0b0c      	movi.n	a11, 0
    7f8e:	0b0992        	l8ui	a9, a9, 11
    7f91:	2e0c      	movi.n	a14, 2
    7f93:	10d9e0        	and	a13, a9, a14
    7f96:	066917        	bbci	a9, 1, 0x7fa0
    7f99:	1b0c      	movi.n	a11, 1
    7f9b:	016927        	bbci	a9, 2, 0x7fa0
    7f9e:	3b0c      	movi.n	a11, 3
    7fa0:	1d8c      	beqz.n	a13, 0x7fa5
    7fa2:	05e927        	bbsi	a9, 2, 0x7fab
    7fa5:	026957        	bbci	a9, 5, 0x7fab
    7fa8:	20bbc0        	or	a11, a11, a12
    7fab:	07fd      	mov.n	a15, a7
    7fad:	741181        	l32r	a8, 0xfffe4ff4
    7fb0:	54e8      	l32i.n	a14, a4, 20
    7fb2:	34d8      	l32i.n	a13, a4, 12
    7fb4:	7587a1        	l32r	a10, 0xfffe55d0
    7fb7:	030492        	l8ui	a9, a4, 3
    7fba:	24c8      	l32i.n	a12, a4, 8
    7fbc:	99aa      	add.n	a9, a9, a10
    7fbe:	f1a8      	l32i.n	a10, a1, 60
    7fc0:	000992        	l8ui	a9, a9, 0
    7fc3:	b199      	s32i.n	a9, a1, 44
    7fc5:	21b9      	s32i.n	a11, a1, 8
    7fc7:	0159      	s32i.n	a5, a1, 0
    7fc9:	09bd      	mov.n	a11, a9
    7fcb:	11a9      	s32i.n	a10, a1, 4
    7fcd:	5f          	.byte 0x5f
    7fce:	f408      	l32i.n	a0, a4, 60
    7fd0:	029221        	l32r	a2, 0xfffc8a18
    7fd3:	3de101        	l32r	a0, 0xfffd7758
    7fd6:	091674        	excw
    7fd9:	0e          	.byte 0xe
    7fda:	b90b      	addi.n	a11, a9, -1
    7fdc:	326b16        	beqz	a11, 0x8306
    7fdf:	fec9c2        	addi	a12, a9, -2
    7fe2:	0dac56        	bnez	a12, 0x80c0
    7fe5:	54d8      	l32i.n	a13, a4, 20
    7fe7:	4dec      	bnez.n	a13, 0x800f
    7fe9:	02ad      	mov.n	a10, a2
    7feb:	1824b2        	l32i	a11, a4, 96
    7fee:	0e8d      	mov.n	a8, a14
    7ff0:	4888      	l32i.n	a8, a8, 16
    7ff2:	bb8b      	addi.n	a11, a11, 8
    7ff4:	0008e0        	excw
    7ff7:	1224b2        	l32i	a11, a4, 72
    7ffa:	4198a0        	srli	a9, a10, 8
    7ffd:	394b92        	s8i	a9, a11, 57
    8000:	384ba2        	s8i	a10, a11, 56
    8003:	045f90        	extui	a5, a9, 15, 1
    8006:	3a09      	s32i.n	a0, a10, 12
    8008:	5f          	.byte 0x5f
    8009:	3b0605        	call0	0x4306c
    800c:	e4a8      	l32i.n	a10, a4, 56
    800e:	1aac      	beqz.n	a10, 0x8033
    8010:	8f22b2        	l32i	a11, a2, 0x23c
    8013:	1c2b26        	beqi	a11, 2, 0x8033
    8016:	5f          	.byte 0x5f
    8017:	2c8206        	j	0x13223
    801a:	6614c5        	call0	0x6e168
    801d:	111c      	movi.n	a1, 17
    801f:	5f          	.byte 0x5f
    8020:	ed8107        	bany	a1, a0, 0x8011
    8023:	5f19      	s32i.n	a1, a15, 20
    8025:	5d9706        	j	0x1f685
    8028:	290c      	movi.n	a9, 2
    802a:	8f6292        	s32i	a9, a2, 0x23c
    802d:	7588a1        	l32r	a10, 0xfffe5650
    8030:	0aa8      	l32i.n	a10, a10, 0
    8032:	5f9c      	beqz.n	a15, 0x804b
    8034:	c98106        	j	0xffffa63c
    8037:	b86d      	excw
    8039:	288294        	excw
    803c:	cbb215        	excw
    803f:	055f10        	extui	a5, a1, 31, 1
    8042:	c82de1        	l32r	a14, 0xffffa0f8
    8045:	6cb7e5        	excw
    8048:	0e          	.byte 0xe
    8049:	02ad      	mov.n	a10, a2
    804b:	b1b8      	l32i.n	a11, a1, 44
    804d:	04cd      	mov.n	a12, a4
    804f:	758e81        	l32r	a8, 0xfffe5688
    8052:	0008e0        	excw
    8055:	287a56        	bnez	a10, 0x82e0
    8058:	9a22d2        	l32i	a13, a2, 0x268
    805b:	7ea1f2        	movi	a15, 0x17e
    805e:	44e8      	l32i.n	a14, a4, 16
    8060:	f5fa      	add.n	a15, a5, a15
    8062:	a1f9      	s32i.n	a15, a1, 40
    8064:	420ff2        	l8ui	a15, a15, 66
    8067:	1c0c      	movi.n	a12, 1
    8069:	401f00        	ssl	a15
    806c:	a1cc00        	sll	a12, a12
    806f:	3bde16        	beqz	a14, 0x8430
    8072:	5f          	.byte 0x5f
    8073:	678205        	call0	0x6f894
    8076:	d07420        	subx2	a7, a4, a2
    8079:	209c      	beqz.n	a0, 0x808f
    807b:	9a6292        	s32i	a9, a2, 0x268
    807e:	ffa0c2        	movi	a12, 255
    8081:	2888      	l32i.n	a8, a8, 8
    8083:	5f          	.byte 0x5f
    8084:	798f06        	j	0x266c4
    8087:	818a      	add.n	a8, a1, a8
    8089:	085f20        	excw
    808c:	0c79e0        	excw
    808f:	921a      	add.n	a9, a2, a1
    8091:	a90202        	l8ui	a0, a2, 169
    8094:	c992e1        	l32r	a14, 0xffffa6dc
    8097:	56fc      	bnez.n	a6, 0x80d0
    8099:	3759      	s32i.n	a5, a7, 12
    809b:	5f          	.byte 0x5f
    809c:	6f9505        	call0	0x779f0
    809f:	5f          	.byte 0x5f
    80a0:	678106        	j	0x21ea8
    80a3:	00d9c6        	j	0x840e
    80a6:	5498      	l32i.n	a9, a4, 20
    80a8:	22a956        	bnez	a9, 0x82d6
    80ab:	74a8      	l32i.n	a10, a4, 28
    80ad:	ca9c      	beqz.n	a10, 0x80cd
    80af:	5f          	.byte 0x5f
    80b0:	cd4704        	excw
    80b3:	04d203        	excw
    80b6:	8128      	l32i.n	a2, a1, 32
    80b8:	7589      	s32i.n	a8, a5, 28
    80ba:	0304e2        	l8ui	a14, a4, 3
    80bd:	7888      	l32i.n	a8, a8, 28
    80bf:	1324f2        	l32i	a15, a4, 76
    80c2:	0008e0        	excw
    80c5:	20ca16        	beqz	a10, 0x82d5
    80c8:	090c      	movi.n	a9, 0
    80ca:	9499      	s32i.n	a9, a4, 36
    80cc:	1724a2        	l32i	a10, a4, 92
    80cf:	8478      	l32i.n	a7, a4, 32
    80d1:	272a92        	l32i	a9, a10, 156
    80d4:	501aa2        	l16ui	a10, a10, 160
    80d7:	779a      	add.n	a7, a7, a9
    80d9:	3b8ab6        	bltui	a10, 8, 0x8118
    80dc:	07ad      	mov.n	a10, a7
    80de:	740081        	l32r	a8, 0xfffe50e0
    80e1:	758ab1        	l32r	a11, 0xfffe570c
    80e4:	5f2882        	l32i	a8, a8, 0x17c
    80e7:	689506        	j	0x2233f
    80ea:	1e9a16        	beqz	a10, 0x82d7
    80ed:	5f          	.byte 0x5f
    80ee:	8b1306        	j	0xfffead3e
    80f1:	5f          	.byte 0x5f
    80f2:	1309      	s32i.n	a0, a3, 4
    80f4:	1122b2        	l32i	a11, a2, 68
    80f7:	4e0c      	movi.n	a14, 4
    80f9:	10ebe0        	and	a14, a11, a14
    80fc:	1d6a16        	beqz	a10, 0x82d6
    80ff:	4f0c      	movi.n	a15, 4
    8101:	020bf7        	bnone	a11, a15, 0x8107
    8104:	007386        	j	0x82d6
    8107:	2a14d2        	l16ui	a13, a4, 84
    810a:	5f          	.byte 0x5f
    810b:	e20606        	j	0x927
    810e:	0c1122        	l16ui	a2, a1, 24
    8111:	4f          	.byte 0x4f
    8112:	10eef0        	and	a14, a14, a15
    8115:	0b0c      	movi.n	a11, 0
    8117:	1f0c      	movi.n	a15, 1
    8119:	070c      	movi.n	a7, 0
    811b:	758c81        	l32r	a8, 0xfffe574c
    811e:	758da1        	l32r	a10, 0xfffe5754
    8121:	c08d80        	sub	a8, a13, a8
    8124:	c0ada0        	sub	a10, a13, a10
    8127:	837fa0        	moveqz	a7, a15, a10
    812a:	83bf80        	moveqz	a11, a15, a8
    812d:	8e8c      	beqz.n	a14, 0x8139
    812f:	fdddc2        	addmi	a12, a13, 0xfffffd00
    8132:	0a0c      	movi.n	a10, 0
    8134:	83afc0        	moveqz	a10, a15, a12
    8137:	c1a9      	s32i.n	a10, a1, 48
    8139:	d1d8      	l32i.n	a13, a1, 52
    813b:	91b9      	s32i.n	a11, a1, 36
    813d:	3dcc      	bnez.n	a13, 0x8144
    813f:	b9eb      	addi.n	a11, a9, 14
    8141:	0000c6        	j	0x8148
    8144:	84b8      	l32i.n	a11, a4, 32
    8146:	bb9a      	add.n	a11, a11, a9
    8148:	579c      	beqz.n	a7, 0x8161
    814a:	1709c2        	l8ui	a12, a9, 23
    814d:	1e3c66        	bnei	a12, 3, 0x816f
    8150:	742081        	l32r	a8, 0xfffe51d0
    8153:	3e2882        	l32i	a8, a8, 248
    8156:	5f          	.byte 0x5f
    8157:	77e206        	j	0x260e3
    815a:	461161        	l32r	a6, 0xfffd99a0
    815d:	065f03        	excw
    8160:	02e481        	l32r	a8, 0xfffc8cf0
    8163:	5f2b      	addi.n	a5, a15, 2
    8165:	101107        	beq	a1, a0, 0x8179
    8168:	112192        	l32i	a9, a1, 68
    816b:	29cc      	bnez.n	a9, 0x8171
    816d:	d1a8      	l32i.n	a10, a1, 52
    816f:	0adc      	bnez.n	a10, 0x8183
    8171:	02ad      	mov.n	a10, a2
    8173:	5f8681        	l32r	a8, 0xfffdff8c
    8176:	68a005        	call0	0x70b78
    8179:	1014c2        	l16ui	a12, a4, 32
    817c:	0008e0        	excw
    817f:	2a54a2        	s16i	a10, a4, 84
    8182:	102192        	l32i	a9, a1, 64
    8185:	7495e1        	l32r	a14, 0xfffe53dc
    8188:	49bc      	beqz.n	a9, 0x81c0
    818a:	0619b2        	l16ui	a11, a9, 12
    818d:	3b8c      	beqz.n	a11, 0x8194
    818f:	e5c8      	l32i.n	a12, a5, 56
    8191:	2b0bc7        	bnone	a11, a12, 0x81c0
    8194:	1021d2        	l32i	a13, a1, 64
    8197:	0dd8      	l32i.n	a13, a13, 0
    8199:	cdcc      	bnez.n	a13, 0x81a9
    819b:	01def2        	addmi	a15, a14, 0x100
    819e:	31cff2        	addi	a15, a15, 49
    81a1:	5f          	.byte 0x5f
    81a2:	8108      	l32i.n	a0, a1, 32
    81a4:	56ca      	add.n	a5, a6, a12
    81a6:	02ad      	mov.n	a10, a2
    81a8:	04bd      	mov.n	a11, a4
    81aa:	03cd      	mov.n	a12, a3
    81ac:	000de0        	excw
    81af:	7495e1        	l32r	a14, 0xfffe5404
    81b2:	8a1b      	addi.n	a8, a10, 1
    81b4:	104816        	beqz	a8, 0x82bc
    81b7:	e4ca92        	addi	a9, a10, -28
    81ba:	0fe916        	beqz	a9, 0x82bc
    81bd:	1121a2        	l32i	a10, a1, 68
    81c0:	9a9c      	beqz.n	a10, 0x81dd
    81c2:	0ad8      	l32i.n	a13, a10, 0
    81c4:	5f          	.byte 0x5f
    81c5:	2e19      	s32i.n	a1, a14, 8
    81c7:	5488      	l32i.n	a8, a4, 20
    81c9:	48fc      	bnez.n	a8, 0x8201
    81cb:	07bd      	mov.n	a11, a7
    81cd:	74ba81        	l32r	a8, 0xfffe54b8
    81d0:	91c8      	l32i.n	a12, a1, 36
    81d2:	3888      	l32i.n	a8, a8, 12
    81d4:	5f          	.byte 0x5f
    81d5:	79e605        	call0	0x82038
    81d8:	4aec      	bnez.n	a10, 0x8200
    81da:	6498      	l32i.n	a9, a4, 24
    81dc:	f199      	s32i.n	a9, a1, 60
    81de:	598c      	beqz.n	a9, 0x81e7
    81e0:	e5a8      	l32i.n	a10, a5, 56
    81e2:	1aea37        	bbsi	a10, 3, 0x8200
    81e5:	39cc      	bnez.n	a9, 0x81ec
    81e7:	e5c8      	l32i.n	a12, a5, 56
    81e9:	13ec67        	bbsi	a12, 6, 0x8200
    81ec:	74d8      	l32i.n	a13, a4, 28
    81ee:	ed8c      	beqz.n	a13, 0x8200
    81f0:	5f          	.byte 0x5f
    81f1:	058205        	call0	0xda14
    81f4:	028ef7        	bany	a14, a15, 0x81fa
    81f7:	002a46        	j	0x82a4
    81fa:	c188      	l32i.n	a8, a1, 48
    81fc:	0a4816        	beqz	a8, 0x82a4
    81ff:	057616        	beqz	a6, 0x825a
    8202:	06ad      	mov.n	a10, a6
    8204:	740081        	l32r	a8, 0xfffe5204
    8207:	b24b      	addi.n	a11, a2, 4
    8209:	5f          	.byte 0x5f
    820a:	8209      	s32i.n	a0, a2, 32
    820c:	045a56        	bnez	a10, 0x8255
    820f:	9a2292        	l32i	a9, a2, 0x268
    8212:	01d6a2        	addmi	a10, a6, 0x100
    8215:	c00aa2        	l8ui	a10, a10, 192
    8218:	0659a7        	bbc	a9, a10, 0x8222
    821b:	1b0c      	movi.n	a11, 1
    821d:	e1b9      	s32i.n	a11, a1, 56
    821f:	000646        	j	0x823c
    8222:	1d0c      	movi.n	a13, 1
    8224:	41c3a0        	srli	a12, a10, 3
    8227:	24e0a0        	extui	a14, a10, 0, 3
    822a:	401e00        	ssl	a14
    822d:	a0cc20        	addx4	a12, a12, a2
    8230:	982cc2        	l32i	a12, a12, 0x260
    8233:	a1dd00        	sll	a13, a13
    8236:	74d0d0        	extui	a13, a13, 0, 8
    8239:	628cd7        	bany	a12, a13, 0x829f
    823c:	e1f8      	l32i.n	a15, a1, 56
    823e:	3fdc      	bnez.n	a15, 0x8255
    8240:	c469      	s32i.n	a6, a4, 48
    8242:	5f          	.byte 0x5f
    8243:	5b8605        	call0	0x63aa4
    8246:	04bd      	mov.n	a11, a4
    8248:	442882        	l32i	a8, a8, 0x110
    824b:	5f          	.byte 0x5f
    824c:	27e105        	call0	0x30060
    824f:	5f          	.byte 0x5f
    8250:	259506        	j	0x118a8
    8253:	5f          	.byte 0x5f
    8254:	1c1307        	beq	a3, a0, 0x8274
    8257:	5f          	.byte 0x5f
    8258:	1309      	s32i.n	a0, a3, 4
    825a:	4ca8      	l32i.n	a10, a12, 16
    825c:	5c98      	l32i.n	a9, a12, 20
    825e:	aa1b      	addi.n	a10, a10, 1
    8260:	997a      	add.n	a9, a9, a7
    8262:	144c92        	s8i	a9, a12, 20
    8265:	104ca2        	s8i	a10, a12, 16
    8268:	419890        	srli	a9, a9, 8
    826b:	41a8a0        	srli	a10, a10, 8
    826e:	114ca2        	s8i	a10, a12, 17
    8271:	154c92        	s8i	a9, a12, 21
    8274:	41a8a0        	srli	a10, a10, 8
    8277:	419890        	srli	a9, a9, 8
    827a:	164c92        	s8i	a9, a12, 22
    827d:	124ca2        	s8i	a10, a12, 18
    8280:	5f          	.byte 0x5f
    8281:	1808      	l32i.n	a0, a8, 4
    8283:	4c9213        	excw
    8286:	54a817        	bge	a8, a1, 0x82de
    8289:	dd4a16        	beqz	a10, 0x8061
    828c:	f27c      	movi.n	a2, -1
    828e:	f01d      	excw
    8290:	5f          	.byte 0x5f
    8291:	8308      	l32i.n	a0, a3, 32
    8293:	3e          	.byte 0x3e
    8294:	0317d2        	l16ui	a13, a7, 6
    8297:	2a54d2        	s16i	a13, a4, 84
    829a:	172492        	l32i	a9, a4, 92
    829d:	272992        	l32i	a9, a9, 156
    82a0:	ff8c86        	j	0x80d6
    82a3:	64b8      	l32i.n	a11, a4, 24
    82a5:	1224c2        	l32i	a12, a4, 72
    82a8:	095b56        	bnez	a11, 0x8341
    82ab:	3c98      	l32i.n	a9, a12, 12
    82ad:	2ca8      	l32i.n	a10, a12, 8
    82af:	740081        	l32r	a8, 0xfffe52b0
    82b2:	aa1b      	addi.n	a10, a10, 1
    82b4:	182882        	l32i	a8, a8, 96
    82b7:	5f          	.byte 0x5f
    82b8:	0c6004        	excw
    82bb:	084ca2        	s8i	a10, a12, 8
    82be:	5f          	.byte 0x5f
    82bf:	4808      	l32i.n	a0, a8, 16
    82c1:	9209      	s32i.n	a0, a2, 36
    82c3:	0d4c      	movi.n	a13, 64
    82c5:	5f          	.byte 0x5f
    82c6:	6008      	l32i.n	a0, a0, 24
    82c8:	0e          	.byte 0xe
    82c9:	0a4ca2        	s8i	a10, a12, 10
    82cc:	5f          	.byte 0x5f
    82cd:	1808      	l32i.n	a0, a8, 4
    82cf:	920b      	addi.n	a9, a2, -1
    82d1:	0f4c      	movi.n	a15, 64
    82d3:	5f          	.byte 0x5f
    82d4:	058905        	call0	0xdb68
    82d7:	5498      	l32i.n	a9, a4, 20
    82d9:	042956        	bnez	a9, 0x831f
    82dc:	5f          	.byte 0x5f
    82dd:	58f006        	j	0x1e6a1
    82e0:	5f1824        	excw
    82e3:	688607        	bany	a6, a0, 0x834f
    82e6:	04cd      	mov.n	a12, a4
    82e8:	1224b2        	l32i	a11, a4, 72
    82eb:	754a81        	l32r	a8, 0xfffe5814
    82ee:	4198a0        	srli	a9, a10, 8
    82f1:	e888      	l32i.n	a8, a8, 56
    82f3:	5f          	.byte 0x5f
    82f4:	860c      	movi.n	a6, 8
    82f6:	6f          	.byte 0x6f
    82f7:	5f          	.byte 0x5f
    82f8:	7f8b06        	j	0x28128
    82fb:	3b4b      	addi.n	a3, a11, 4
    82fd:	5f          	.byte 0x5f
    82fe:	38a605        	call0	0x40d60
    8301:	5f4281        	l32r	a8, 0xfffe000c
    8304:	2a9305        	call0	0x32c38
    8307:	9888      	l32i.n	a8, a8, 36
    8309:	5f          	.byte 0x5f
    830a:	418905        	call0	0x49b9c
    830d:	07cd      	mov.n	a12, a7
    830f:	5f          	.byte 0x5f
    8310:	6aad06        	j	0x22dc8
    8313:	5f38      	l32i.n	a3, a15, 20
    8315:	460e05        	call0	0x4e3f8
    8318:	98ffd0        	excw
    831b:	099294        	excw
    831e:	a0a204        	excw
    8321:	ff          	.byte 0xff
    8322:	c099a0        	sub	a9, a9, a10
    8325:	f01956        	bnez	a9, 0x822a
    8328:	6cb8      	l32i.n	a11, a12, 24
    832a:	7ca8      	l32i.n	a10, a12, 28
    832c:	bb1b      	addi.n	a11, a11, 1
    832e:	aa7a      	add.n	a10, a10, a7
    8330:	1c4ca2        	s8i	a10, a12, 28
    8333:	184cb2        	s8i	a11, a12, 24
    8336:	41a8a0        	srli	a10, a10, 8
    8339:	41b8b0        	srli	a11, a11, 8
    833c:	194cb2        	s8i	a11, a12, 25
    833f:	1d4ca2        	s8i	a10, a12, 29
    8342:	5fb8b0        	excw
    8345:	128106        	j	0xcd4d
    8348:	1e          	.byte 0x1e
    8349:	1a4cb2        	s8i	a11, a12, 26
    834c:	5f          	.byte 0x5f
    834d:	1808      	l32i.n	a0, a8, 4
    834f:	a21b      	addi.n	a10, a2, 1
    8351:	1f4c      	movi.n	a15, 65
    8353:	ffbf86        	j	0x8255
    8356:	02ad      	mov.n	a10, a2
    8358:	05bd      	mov.n	a11, a5
    835a:	ffa0c2        	movi	a12, 255
    835d:	2d0c      	movi.n	a13, 2
    835f:	9a2292        	l32i	a9, a2, 0x268
    8362:	ff7c      	movi.n	a15, -1
    8364:	a1e8      	l32i.n	a14, a1, 40
    8366:	742081        	l32r	a8, 0xfffe53e8
    8369:	420ee2        	l8ui	a14, a14, 66
    836c:	3888      	l32i.n	a8, a8, 12
    836e:	401e00        	ssl	a14
    8371:	1e0c      	movi.n	a14, 1
    8373:	a1ee00        	sll	a14, a14
    8376:	30eef0        	xor	a14, a14, a15
    8379:	1099e0        	and	a9, a9, a14
    837c:	9a6292        	s32i	a9, a2, 0x268
    837f:	5f          	.byte 0x5f
    8380:	7f8610        	excw
    8383:	9909      	s32i.n	a0, a9, 36
    8385:	07cd44        	excw
    8388:	04bd      	mov.n	a11, a4
    838a:	744981        	l32r	a8, 0xfffe54b0
    838d:	a1a8      	l32i.n	a10, a1, 40
    838f:	090c      	movi.n	a9, 0
    8391:	be4a92        	s8i	a9, a10, 190
    8394:	5f          	.byte 0x5f
    8395:	679507        	bne	a5, a0, 0x8400
    8398:	ff2106        	j	0x8020
    839b:	745381        	l32r	a8, 0xfffe54e8
    839e:	1a0c      	movi.n	a10, 1
    83a0:	94b8      	l32i.n	a11, a4, 36
    83a2:	109cd0        	and	a9, a12, a13
    83a5:	bbab      	addi.n	a11, a11, 10
    83a7:	939a90        	movnez	a9, a10, a9
    83aa:	0888      	l32i.n	a8, a8, 0
    83ac:	e199      	s32i.n	a9, a1, 56
    83ae:	5f          	.byte 0x5f
    83af:	8108      	l32i.n	a0, a1, 32
    83b1:	36fa      	add.n	a3, a6, a15
    83b3:	f8da16        	beqz	a10, 0x8344
    83b6:	745381        	l32r	a8, 0xfffe5504
    83b9:	02ad      	mov.n	a10, a2
    83bb:	0888      	l32i.n	a8, a8, 0
    83bd:	94b8      	l32i.n	a11, a4, 36
    83bf:	1b2882        	l32i	a8, a8, 108
    83c2:	bbab      	addi.n	a11, a11, 10
    83c4:	0008e0        	excw
    83c7:	5f9f46        	j	0x20248
    83ca:	6ca507        	bge	a5, a0, 0x843a
    83cd:	112282        	l32i	a8, a2, 68
    83d0:	95a8      	l32i.n	a10, a5, 36
    83d2:	036897        	bbci	a8, 9, 0x83d9
    83d5:	090c      	movi.n	a9, 0
    83d7:	7599      	s32i.n	a9, a5, 28
    83d9:	000aa2        	l8ui	a10, a10, 0
    83dc:	14b2a0        	extui	a11, a10, 2, 2
    83df:	049b56        	bnez	a11, 0x842c
    83e2:	d0a0c2        	movi	a12, 208
    83e5:	f0a0b2        	movi	a11, 240
    83e8:	10bab0        	and	a11, a10, a11
    83eb:	3d9bc7        	bne	a11, a12, 0x842c
    83ee:	742bc1        	l32r	a12, 0xfffe549c
    83f1:	060c      	movi.n	a6, 0
    83f3:	000ca2        	l8ui	a10, a12, 0
    83f6:	7464b1        	l32r	a11, 0xfffe5588
    83f9:	faac      	beqz.n	a10, 0x842c
    83fb:	a076b0        	addx4	a7, a6, a11
    83fe:	0778      	l32i.n	a7, a7, 0
    8400:	0107e2        	l8ui	a14, a7, 1
    8403:	020782        	l8ui	a8, a7, 2
    8406:	391e66        	bnei	a14, 1, 0x8443
    8409:	363866        	bnei	a8, 3, 0x8443
    840c:	1827a2        	l32i	a10, a7, 96
    840f:	daac      	beqz.n	a10, 0x8440
    8411:	6c0c      	movi.n	a12, 6
    8413:	ba6b      	addi.n	a11, a10, 6
    8415:	740081        	l32r	a8, 0xfffe5418
    8418:	9598      	l32i.n	a9, a5, 36
    841a:	412882        	l32i	a8, a8, 0x104
    841d:	a9ab      	addi.n	a10, a9, 10
    841f:	5f08e0        	excw
    8422:	c12c04        	excw
    8425:	742b      	addi.n	a7, a4, 2
    8427:	4adc      	bnez.n	a10, 0x843f
    8429:	072d      	mov.n	a2, a7
    842b:	5f          	.byte 0x5f
    842c:	20a705        	call0	0x28ea0
    842f:	8f          	.byte 0x8f
    8430:	095f75        	excw
    8433:	4bc681        	l32r	a8, 0xfffdb34c
    8436:	0a2d      	mov.n	a2, a10
    8438:	f01d      	excw
    843a:	000ca2        	l8ui	a10, a12, 0
    843d:	661b      	addi.n	a6, a6, 1
    843f:	746060        	extui	a6, a6, 0, 8
    8442:	af36a7        	bltu	a6, a10, 0x83f5
    8445:	fff746        	j	0x8426
    8448:	004136        	excw
    844b:	759221        	l32r	a2, 0xfffe5a94
    844e:	7591a1        	l32r	a10, 0xfffe5a94
    8451:	758f81        	l32r	a8, 0xfffe5a90
    8454:	74ba31        	l32r	a3, 0xfffe573c
    8457:	7590b1        	l32r	a11, 0xfffe5a98
    845a:	0348      	l32i.n	a4, a3, 0
    845c:	4b98      	l32i.n	a9, a11, 16
    845e:	1899      	s32i.n	a9, a8, 4
    8460:	4ba9      	s32i.n	a10, a11, 16
    8462:	0329      	s32i.n	a2, a3, 0
    8464:	0849      	s32i.n	a4, a8, 0
    8466:	5f          	.byte 0x5f
    8467:	24cb06        	j	0x11797
    846a:	055f05        	call0	0xda5c
    846d:	5112d3        	excw
    8470:	434874        	excw
    8473:	036d      	mov.n	a6, a3
    8475:	202472        	l32i	a7, a4, 128
    8478:	1f2432        	l32i	a3, a4, 124
    847b:	5888      	l32i.n	a8, a8, 20
    847d:	053630        	extui	a3, a3, 22, 1
    8480:	0008e0        	excw
    8483:	c159      	s32i.n	a5, a1, 48
    8485:	8904c2        	l8ui	a12, a4, 137
    8488:	050c      	movi.n	a5, 0
    848a:	04c4c0        	extui	a12, a12, 4, 1
    848d:	47cc      	bnez.n	a7, 0x8495
    848f:	1822a2        	l32i	a10, a2, 96
    8492:	000086        	j	0x8498
    8495:	8d27a2        	l32i	a10, a7, 0x234
    8498:	b169      	s32i.n	a6, a1, 44
    849a:	81c9      	s32i.n	a12, a1, 32
    849c:	8d0c      	movi.n	a13, 8
    849e:	1f24b2        	l32i	a11, a4, 124
    84a1:	390c      	movi.n	a9, 3
    84a3:	20bbd0        	or	a11, a11, a13
    84a6:	7400d1        	l32r	a13, 0xfffe54a8
    84a9:	a199      	s32i.n	a9, a1, 40
    84ab:	3f2dd2        	l32i	a13, a13, 252
    84ae:	33cc      	bnez.n	a3, 0x84b5
    84b0:	f67c      	movi.n	a6, -1
    84b2:	000046        	j	0x84b7
    84b5:	f268      	l32i.n	a6, a2, 60
    84b7:	71a9      	s32i.n	a10, a1, 28
    84b9:	1f64b2        	s32i	a11, a4, 124
    84bc:	2424e2        	l32i	a14, a4, 144
    84bf:	e1e9      	s32i.n	a14, a1, 56
    84c1:	05f356        	bnez	a3, 0x8524
    84c4:	01ad      	mov.n	a10, a1
    84c6:	e1b8      	l32i.n	a11, a1, 56
    84c8:	6c0c      	movi.n	a12, 6
    84ca:	000de0        	excw
    84cd:	a18b      	addi.n	a10, a1, 8
    84cf:	5f          	.byte 0x5f
    84d0:	5b9b05        	call0	0x63e84
    84d3:	e1b8      	l32i.n	a11, a1, 56
    84d5:	3f2882        	l32i	a8, a8, 252
    84d8:	bb6b      	addi.n	a11, a11, 6
    84da:	0008e0        	excw
    84dd:	471492        	l16ui	a9, a4, 142
    84e0:	0e1c      	movi.n	a14, 16
    84e2:	f2c992        	addi	a9, a9, -14
    84e5:	00a9d6        	bgez	a9, 0x84f3
    84e8:	055fa1        	l32r	a10, 0xfffc9a64
    84eb:	5f4e90        	excw
    84ee:	6bd505        	call0	0x74240
    84f1:	8e4492        	s8i	a9, a4, 142
    84f4:	2424b2        	l32i	a11, a4, 144
    84f7:	41d890        	srli	a13, a9, 8
    84fa:	8f44d2        	s8i	a13, a4, 143
    84fd:	9beb      	addi.n	a9, a11, 14
    84ff:	904492        	s8i	a9, a4, 144
    8502:	41c890        	srli	a12, a9, 8
    8505:	9144c2        	s8i	a12, a4, 145
    8508:	09dd      	mov.n	a13, a9
    850a:	045fc0        	extui	a5, a12, 15, 1
    850d:	5f08      	l32i.n	a0, a15, 20
    850f:	6bb805        	call0	0x74090
    8512:	c89344        	excw
    8515:	cbb281        	l32r	a8, 0xffffb3e0
    8518:	c01c      	movi.n	a0, 28
    851a:	939b      	addi.n	a9, a3, 9
    851c:	001c86        	j	0x8592
    851f:	01ad      	mov.n	a10, a1
    8521:	1f0c      	movi.n	a15, 1
    8523:	050c      	movi.n	a5, 0
    8525:	f0a0e2        	movi	a14, 240
    8528:	e1b8      	l32i.n	a11, a1, 56
    852a:	41b9      	s32i.n	a11, a1, 16
    852c:	000bc2        	l8ui	a12, a11, 0
    852f:	010b82        	l8ui	a8, a11, 1
    8532:	bb4b      	addi.n	a11, a11, 4
    8534:	148080        	extui	a8, a8, 0, 2
    8537:	10cce0        	and	a12, a12, a14
    853a:	61c9      	s32i.n	a12, a1, 24
    853c:	fdc882        	addi	a8, a8, -3
    853f:	6c0c      	movi.n	a12, 6
    8541:	005f80        	excw
    8544:	0f5f83        	excw
    8547:	7f          	.byte 0x7f
    8548:	5f          	.byte 0x5f
    8549:	228305        	call0	0x2ad7c
    854c:	6198      	l32i.n	a9, a1, 24
    854e:	0e1c      	movi.n	a14, 16
    8550:	04e966        	bnei	a9, 128, 0x8558
    8553:	aa1c      	movi.n	a10, 26
    8555:	000186        	j	0x855f
    8558:	8c1c      	movi.n	a12, 24
    855a:	0a0c      	movi.n	a10, 0
    855c:	83ac90        	moveqz	a10, a12, a9
    855f:	81d8      	l32i.n	a13, a1, 32
    8561:	ec0c      	movi.n	a12, 14
    8563:	680c      	movi.n	a8, 6
    8565:	0b0c      	movi.n	a11, 0
    8567:	0bfd      	mov.n	a15, a11
    8569:	93f850        	movnez	a15, a8, a5
    856c:	aafa      	add.n	a10, a10, a15
    856e:	93bcd0        	movnez	a11, a12, a13
    8571:	1022d2        	l32i	a13, a2, 64
    8574:	aaba      	add.n	a10, a10, a11
    8576:	077d37        	bbci	a13, 19, 0x8581
    8579:	aa3b      	addi.n	a10, a10, 3
    857b:	41a2a0        	srli	a10, a10, 2
    857e:	11aae0        	slli	a10, a10, 2
    8581:	2424d2        	l32i	a13, a4, 144
    8584:	9ada      	add.n	a9, a10, a13
    8586:	0c0c      	movi.n	a12, 0
    8588:	758df1        	l32r	a15, 0xfffe5bbc
    858b:	0b0c      	movi.n	a11, 0
    858d:	031982        	l16ui	a8, a9, 6
    8590:	190c      	movi.n	a9, 1
    8592:	fdd8a2        	addmi	a10, a8, 0xfffffd00
    8595:	83b9a0        	moveqz	a11, a9, a10
    8598:	c0f8f0        	sub	a15, a8, a15
    859b:	83c9f0        	moveqz	a12, a9, a15
    859e:	758ca1        	l32r	a10, 0xfffe5bd0
    85a1:	0f0c      	movi.n	a15, 0
    85a3:	20bbc0        	or	a11, a11, a12
    85a6:	1061b2        	s32i	a11, a1, 64
    85a9:	c088a0        	sub	a8, a8, a10
    85ac:	0b0c      	movi.n	a11, 0
    85ae:	83f980        	moveqz	a15, a9, a8
    85b1:	f1f9      	s32i.n	a15, a1, 60
    85b3:	d1b9      	s32i.n	a11, a1, 52
    85b5:	578c      	beqz.n	a7, 0x85be
    85b7:	e7b8      	l32i.n	a11, a7, 56
    85b9:	016b17        	bbci	a11, 1, 0x85be
    85bc:	d199      	s32i.n	a9, a1, 52
    85be:	236697        	bbci	a6, 9, 0x85e5
    85c1:	07ad      	mov.n	a10, a7
    85c3:	74ba81        	l32r	a8, 0xfffe58ac
    85c6:	1021b2        	l32i	a11, a1, 64
    85c9:	3888      	l32i.n	a8, a8, 12
    85cb:	f1c8      	l32i.n	a12, a1, 60
    85cd:	0008e0        	excw
    85d0:	0e1c      	movi.n	a14, 16
    85d2:	cacc      	bnez.n	a10, 0x85e2
    85d4:	638c      	beqz.n	a3, 0x85de
    85d6:	4198      	l32i.n	a9, a1, 16
    85d8:	010992        	l8ui	a9, a9, 1
    85db:	036967        	bbci	a9, 6, 0x85e2
    85de:	f27c      	movi.n	a2, -1
    85e0:	f01d      	excw
    85e2:	2424d2        	l32i	a13, a4, 144
    85e5:	1021a2        	l32i	a10, a1, 64
    85e8:	9159      	s32i.n	a5, a1, 36
    85ea:	ea8c      	beqz.n	a10, 0x85fc
    85ec:	1021b2        	l32i	a11, a1, 64
    85ef:	8904c2        	l8ui	a12, a4, 137
    85f2:	0f4c      	movi.n	a15, 64
    85f4:	20ccf0        	or	a12, a12, a15
    85f7:	8944c2        	s8i	a12, a4, 137
    85fa:	2bcc      	bnez.n	a11, 0x8600
    85fc:	f188      	l32i.n	a8, a1, 60
    85fe:	a88c      	beqz.n	a8, 0x860c
    8600:	7593a1        	l32r	a10, 0xfffe5c4c
    8603:	1f2492        	l32i	a9, a4, 124
    8606:	2099a0        	or	a9, a9, a10
    8609:	1f6492        	s32i	a9, a4, 124
    860c:	05a356        	bnez	a3, 0x866a
    860f:	d1b8      	l32i.n	a11, a1, 52
    8611:	7b8c      	beqz.n	a11, 0x861c
    8613:	f1c8      	l32i.n	a12, a1, 60
    8615:	3ccc      	bnez.n	a12, 0x861c
    8617:	aa1c      	movi.n	a10, 26
    8619:	000046        	j	0x861e
    861c:	8a1c      	movi.n	a10, 24
    861e:	1022f2        	l32i	a15, a2, 64
    8621:	5f7f37        	bbci	a15, 19, 0x8684
    8624:	8109      	s32i.n	a0, a1, 32
    8626:	a02b      	addi.n	a10, a0, 2
    8628:	c0dd      	excw
    862a:	94a0b2        	movi	a11, 148
    862d:	b4ba      	add.n	a11, a4, a11
    862f:	0abdb7        	bgeu	a13, a11, 0x863d
    8632:	5f          	.byte 0x5f
    8633:	930b      	addi.n	a9, a3, -1
    8635:	d02d      	excw
    8637:	41f8      	l32i.n	a15, a1, 16
    8639:	9044d2        	s8i	a13, a4, 144
    863c:	9144f2        	s8i	a15, a4, 145
    863f:	41f8f0        	srli	a15, a15, 8
    8642:	4714d2        	l16ui	a13, a4, 142
    8645:	9244f2        	s8i	a15, a4, 146
    8648:	41f8f0        	srli	a15, a15, 8
    864b:	dada      	add.n	a13, a10, a13
    864d:	8e44d2        	s8i	a13, a4, 142
    8650:	9344f2        	s8i	a15, a4, 147
    8653:	055fd0        	extui	a5, a13, 31, 1
    8656:	d27682        	excw
    8659:	592424        	excw
    865c:	0d5d91        	l32r	a9, 0xfffcbbd0
    865f:	1c0c      	movi.n	a12, 1
    8661:	046607        	bbci	a6, 0, 0x8669
    8664:	880c      	movi.n	a8, 8
    8666:	004d82        	s8i	a8, a13, 0
    8669:	046617        	bbci	a6, 1, 0x8671
    866c:	090c      	movi.n	a9, 0
    866e:	015592        	s16i	a9, a5, 2
    8671:	010292        	l8ui	a9, a2, 1
    8674:	174916        	beqz	a9, 0x87ec
    8677:	b90b      	addi.n	a11, a9, -1
    8679:	1f4b16        	beqz	a11, 0x8871
    867c:	fec9c2        	addi	a12, a9, -2
    867f:	250c16        	beqz	a12, 0x88d3
    8682:	5f          	.byte 0x5f
    8683:	e60b      	addi.n	a14, a6, -1
    8685:	0e          	.byte 0xe
    8686:	092c      	movi.n	a9, 32
    8688:	0e6637        	bbci	a6, 3, 0x869a
    868b:	1f24f2        	l32i	a15, a4, 124
    868e:	086fd7        	bbci	a15, 13, 0x869a
    8691:	010582        	l8ui	a8, a5, 1
    8694:	2088e0        	or	a8, a8, a14
    8697:	014582        	s8i	a8, a5, 1
    869a:	d1c8      	l32i.n	a12, a1, 52
    869c:	742031        	l32r	a3, 0xfffe571c
    869f:	0e6657        	bbci	a6, 5, 0x86b1
    86a2:	1f24a2        	l32i	a10, a4, 124
    86a5:	087a07        	bbci	a10, 16, 0x86b1
    86a8:	0105b2        	l8ui	a11, a5, 1
    86ab:	20bb90        	or	a11, a11, a9
    86ae:	0145b2        	s8i	a11, a5, 1
    86b1:	048c16        	beqz	a12, 0x86fd
    86b4:	f1d8      	l32i.n	a13, a1, 60
    86b6:	043d56        	bnez	a13, 0x86fd
    86b9:	80a0c2        	movi	a12, 128
    86bc:	7a04d2        	l8ui	a13, a4, 122
    86bf:	04f760        	extui	a15, a6, 7, 1
    86c2:	26ef16        	beqz	a15, 0x8934
    86c5:	34a0d0        	extui	a10, a13, 0, 4
    86c8:	000592        	l8ui	a9, a5, 0
    86cb:	9188      	l32i.n	a8, a1, 36
    86cd:	2099c0        	or	a9, a9, a12
    86d0:	2a0856        	bnez	a8, 0x8974
    86d3:	1845a2        	s8i	a10, a5, 24
    86d6:	004592        	s8i	a9, a5, 0
    86d9:	0f0c      	movi.n	a15, 0
    86db:	1945f2        	s8i	a15, a5, 25
    86de:	1f24b2        	l32i	a11, a4, 124
    86e1:	057be7        	bbci	a11, 30, 0x86ea
    86e4:	208ae0        	or	a8, a10, a14
    86e7:	184582        	s8i	a8, a5, 24
    86ea:	8198      	l32i.n	a9, a1, 32
    86ec:	798c      	beqz.n	a9, 0x86f7
    86ee:	1805a2        	l8ui	a10, a5, 24
    86f1:	20aac0        	or	a10, a10, a12
    86f4:	5f          	.byte 0x5f
    86f5:	242104        	excw
    86f8:	1f          	.byte 0x1f
    86f9:	008e46        	j	0x8936
    86fc:	a2ab      	addi.n	a10, a2, 10
    86fe:	0d0c      	movi.n	a13, 0
    8700:	136687        	bbci	a6, 8, 0x8717
    8703:	001ac2        	l16ui	a12, a10, 0
    8706:	11ccc0        	slli	a12, a12, 4
    8709:	0b55c2        	s16i	a12, a5, 22
    870c:	001ab2        	l16ui	a11, a10, 0
    870f:	bb1b      	addi.n	a11, a11, 1
    8711:	b4b0b0        	extui	a11, a11, 0, 12
    8714:	005ab2        	s16i	a11, a10, 0
    8717:	7544d2        	s8i	a13, a4, 117
    871a:	04b716        	beqz	a7, 0x8769
    871d:	c1f8      	l32i.n	a15, a1, 48
    871f:	054f16        	beqz	a15, 0x8777
    8722:	5f04a1        	l32r	a10, 0xfffe0334
    8725:	820a      	add.n	a8, a2, a0
    8727:	e78837        	bany	a8, a3, 0x8712
    872a:	10d6e0        	and	a13, a6, a14
    872d:	196837        	bbci	a8, 3, 0x874a
    8730:	0105a2        	l8ui	a10, a5, 1
    8733:	0706e7        	bnone	a6, a14, 0x873e
    8736:	0b4c      	movi.n	a11, 64
    8738:	045fb0        	extui	a5, a11, 15, 1
    873b:	4e          	.byte 0x4e
    873c:	6a6701        	l32r	a0, 0xfffe30d8
    873f:	c208      	l32i.n	a0, a2, 48
    8741:	e01f24        	excw
    8744:	20cc      	bnez.n	a0, 0x874a
    8746:	1f64c2        	s32i	a12, a4, 124
    8749:	5d9c      	beqz.n	a13, 0x8762
    874b:	1021d2        	l32i	a13, a1, 64
    874e:	0ddc      	bnez.n	a13, 0x8762
    8750:	f1e8      	l32i.n	a14, a1, 60
    8752:	cecc      	bnez.n	a14, 0x8762
    8754:	e7f8      	l32i.n	a15, a7, 56
    8756:	086f57        	bbci	a15, 5, 0x8762
    8759:	1f2482        	l32i	a8, a4, 124
    875c:	048480        	extui	a8, a8, 4, 1
    875f:	e5f816        	beqz	a8, 0x85c2
    8762:	02ad      	mov.n	a10, a2
    8764:	152382        	l32i	a8, a3, 84
    8767:	b1b8      	l32i.n	a11, a1, 44
    8769:	5f          	.byte 0x5f
    876a:	668607        	bany	a6, a0, 0x87d4
    876d:	102192        	l32i	a9, a1, 64
    8770:	046956        	bnez	a9, 0x87ba
    8773:	f1a8      	l32i.n	a10, a1, 60
    8775:	e798      	l32i.n	a9, a7, 56
    8777:	041a56        	bnez	a10, 0x87bc
    877a:	3e69c7        	bbci	a9, 12, 0x87bc
    877d:	7a04f2        	l8ui	a15, a4, 122
    8780:	80a2c2        	movi	a12, 0x280
    8783:	df7a      	add.n	a13, a15, a7
    8785:	ddca      	add.n	a13, a13, a12
    8787:	800da2        	l8ui	a10, a13, 128
    878a:	eaec      	bnez.n	a10, 0x87bc
    878c:	1c0782        	l8ui	a8, a7, 28
    878f:	d89c      	beqz.n	a8, 0x87b0
    8791:	1441f2        	s8i	a15, a1, 20
    8794:	02ad      	mov.n	a10, a2
    8796:	14c1b2        	addi	a11, a1, 20
    8799:	252382        	l32i	a8, a3, 148
    879c:	07cd      	mov.n	a12, a7
    879e:	5f          	.byte 0x5f
    879f:	708305        	call0	0x78fd0
    87a2:	7a04d2        	l8ui	a13, a4, 122
    87a5:	80a2f2        	movi	a15, 0x280
    87a8:	dd7a      	add.n	a13, a13, a7
    87aa:	5ffa      	add.n	a5, a15, a15
    87ac:	1b2604        	excw
    87af:	f2fa      	add.n	a15, a2, a15
    87b1:	804d      	excw
    87b3:	e798      	l32i.n	a9, a7, 56
    87b5:	000046        	j	0x87ba
    87b8:	e798      	l32i.n	a9, a7, 56
    87ba:	048690        	extui	a8, a9, 6, 1
    87bd:	17d816        	beqz	a8, 0x893e
    87c0:	102192        	l32i	a9, a1, 64
    87c3:	39cc      	bnez.n	a9, 0x87ca
    87c5:	f1a8      	l32i.n	a10, a1, 60
    87c7:	179a16        	beqz	a10, 0x8944
    87ca:	71b8      	l32i.n	a11, a1, 28
    87cc:	500bb2        	l8ui	a11, a11, 80
    87cf:	171b56        	bnez	a11, 0x8944
    87d2:	10d6e0        	and	a13, a6, a14
    87d5:	ffdac6        	j	0x8744
    87d8:	0b6627        	bbci	a6, 2, 0x87e7
    87db:	91f8      	l32i.n	a15, a1, 36
    87dd:	a1c8      	l32i.n	a12, a1, 40
    87df:	0d0c      	movi.n	a13, 0
    87e1:	83cdf0        	moveqz	a12, a13, a15
    87e4:	0145c2        	s8i	a12, a5, 1
    87e7:	116667        	bbci	a6, 6, 0x87fc
    87ea:	10c5a2        	addi	a10, a5, 16
    87ed:	5f          	.byte 0x5f
    87ee:	518506        	j	0x1ce06
    87f1:	085f71        	l32r	a7, 0xfffca970
    87f4:	dc5086        	j	0xfffff93a
    87f7:	a54bc3        	excw
    87fa:	740081        	l32r	a8, 0xfffe57fc
    87fd:	01bd      	mov.n	a11, a1
    87ff:	3f2882        	l32i	a8, a8, 252
    8802:	5f          	.byte 0x5f
    8803:	168d05        	call0	0x1f0d4
    8806:	5fab      	addi.n	a5, a15, 10
    8808:	8b0f04        	excw
    880b:	085fb1        	l32r	a11, 0xfffca988
    880e:	0f          	.byte 0xf
    880f:	02ad      	mov.n	a10, a2
    8811:	b1b8      	l32i.n	a11, a1, 44
    8813:	7cc4c2        	addi	a12, a4, 124
    8816:	07dd      	mov.n	a13, a7
    8818:	7804e2        	l8ui	a14, a4, 120
    881b:	0405f2        	l8ui	a15, a5, 4
    881e:	741131        	l32r	a3, 0xfffe5864
    8821:	04f0f0        	extui	a15, a15, 0, 1
    8824:	202382        	l32i	a8, a3, 128
    8827:	c1f9      	s32i.n	a15, a1, 48
    8829:	0008e0        	excw
    882c:	a388      	l32i.n	a8, a3, 40
    882e:	5f          	.byte 0x5f
    882f:	3f8805        	call0	0x480b0
    8832:	0e1c      	movi.n	a14, 16
    8834:	feca92        	addi	a9, a10, -2
    8837:	e30956        	bnez	a9, 0x866b
    883a:	1f2492        	l32i	a9, a4, 124
    883d:	04a290        	extui	a10, a9, 2, 1
    8840:	e27a56        	bnez	a10, 0x866b
    8843:	7594b1        	l32r	a11, 0xfffe5e94
    8846:	20b9b0        	or	a11, a9, a11
    8849:	1f64b2        	s32i	a11, a4, 124
    884c:	ff86c6        	j	0x866b
    884f:	096627        	bbci	a6, 2, 0x885c
    8852:	91f8      	l32i.n	a15, a1, 36
    8854:	a1d8      	l32i.n	a13, a1, 40
    8856:	83dcf0        	moveqz	a13, a12, a15
    8859:	0145d2        	s8i	a13, a5, 1
    885c:	106667        	bbci	a6, 6, 0x8870
    885f:	a54b      	addi.n	a10, a5, 4
    8861:	5f          	.byte 0x5f
    8862:	028110        	excw
    8865:	0f5fd3        	excw
    8868:	c5a273        	excw
    886b:	0d5f10        	excw
    886e:	5f1281        	l32r	a8, 0xfffe04b8
    8871:	810c      	movi.n	a1, 8
    8873:	118103        	excw
    8876:	05f274        	excw
    8879:	288210        	excw
    887c:	f0f020        	subx8	a15, a0, a2
    887f:	055f04        	excw
    8882:	467a      	add.n	a4, a6, a7
    8884:	6e          	.byte 0x6e
    8885:	ff          	.byte 0xff
    8886:	0b6627        	bbci	a6, 2, 0x8895
    8889:	91b8      	l32i.n	a11, a1, 36
    888b:	a198      	l32i.n	a9, a1, 40
    888d:	2a0c      	movi.n	a10, 2
    888f:	839ab0        	moveqz	a9, a10, a11
    8892:	014592        	s8i	a9, a5, 1
    8895:	5f          	.byte 0x5f
    8896:	810d      	excw
    8898:	000132        	l8ui	a3, a1, 0
    889b:	065f81        	l32r	a8, 0xfffca218
    889e:	283281        	l32r	a8, 0xfffd2968
    88a1:	5f          	.byte 0x5f
    88a2:	328106        	j	0x152aa
    88a5:	9198      	l32i.n	a9, a1, 36
    88a7:	0e1c      	movi.n	a14, 16
    88a9:	d86956        	bnez	a9, 0x8633
    88ac:	5f          	.byte 0x5f
    88ad:	748111        	l32r	a1, 0xfffe5ab4
    88b0:	5f          	.byte 0x5f
    88b1:	0f          	.byte 0xf
    88b2:	5f1481        	l32r	a8, 0xfffe0504
    88b5:	038106        	j	0x96bd
    88b8:	5f          	.byte 0x5f
    88b9:	810a      	add.n	a8, a1, a0
    88bb:	0e1c13        	excw
    88be:	ff5446        	j	0x8613
    88c1:	1f2492        	l32i	a9, a4, 124
    88c4:	7595b1        	l32r	a11, 0xfffe5f18
    88c7:	9ca2c2        	movi	a12, 0x29c
    88ca:	90ad70        	addx2	a10, a13, a7
    88cd:	aaca      	add.n	a10, a10, a12
    88cf:	5f          	.byte 0x5f
    88d0:	618107        	bany	a1, a0, 0x8935
    88d3:	ff6c      	movi.n	a15, -17
    88d5:	10d6e0        	and	a13, a6, a14
    88d8:	ff7fc6        	j	0x86db
    88db:	0105a2        	l8ui	a10, a5, 1
    88de:	10d6e0        	and	a13, a6, a14
    88e1:	0706e7        	bnone	a6, a14, 0x88ec
    88e4:	0f4c      	movi.n	a15, 64
    88e6:	055ff0        	extui	a5, a15, 31, 1
    88e9:	a01d84        	excw
    88ec:	160486        	j	0xe102
    88ef:	de88      	l32i.n	a8, a14, 52
    88f1:	1f2492        	l32i	a9, a4, 124
    88f4:	055fe0        	extui	a5, a14, 31, 1
    88f7:	064284        	excw
    88fa:	a2ff77        	bbsi	a15, 23, 0x88a0
    88fd:	921e45        	call0	0xfff9aae4
    8900:	0c0045        	call0	0x14908
    8903:	b20b      	addi.n	a11, a2, -1
    8905:	921f45        	call0	0xfff9aafc
    8908:	e71f24        	excw
    890b:	b179      	s32i.n	a7, a1, 44
    890d:	20cae0        	or	a12, a10, a14
    8910:	1e45c2        	s8i	a12, a5, 30
    8913:	5f5a06        	j	0x2067f
    8916:	68cd07        	bnall	a13, a0, 0x8982
    8919:	74ba      	add.n	a7, a4, a11
    891b:	759621        	l32r	a2, 0xfffe5f74
    891e:	5f29      	s32i.n	a2, a15, 20
    8920:	68ed07        	bbsi	a13, 0, 0x898c
    8923:	ad0121        	l32r	a2, 0xffff3d28
    8926:	97b101        	l32r	a0, 0xfffee7ec
    8929:	8c0c75        	excw
    892c:	e179      	s32i.n	a7, a1, 56
    892e:	156162        	s32i	a6, a1, 84
    8931:	186142        	s32i	a4, a1, 96
    8934:	252262        	l32i	a6, a2, 148
    8937:	d159      	s32i.n	a5, a1, 52
    8939:	0648      	l32i.n	a4, a6, 0
    893b:	5f          	.byte 0x5f
    893c:	7dd506        	j	0x28094
    893f:	c169      	s32i.n	a6, a1, 48
    8941:	b149      	s32i.n	a4, a1, 44
    8943:	53cc      	bnez.n	a3, 0x894c
    8945:	070c      	movi.n	a7, 0
    8947:	050c      	movi.n	a5, 0
    8949:	000106        	j	0x8951
    894c:	712352        	l32i	a5, a3, 0x1c4
    894f:	2378      	l32i.n	a7, a3, 8
    8951:	759861        	l32r	a6, 0xfffe5fb4
    8954:	0688      	l32i.n	a8, a6, 0
    8956:	5f          	.byte 0x5f
    8957:	0e8305        	call0	0x17188
    895a:	1821d2        	l32i	a13, a1, 96
    895d:	1c0c      	movi.n	a12, 1
    895f:	6acc      	bnez.n	a10, 0x8969
    8961:	043766        	bnei	a7, 3, 0x8969
    8964:	040c      	movi.n	a4, 0
    8966:	000046        	j	0x896b
    8969:	140c      	movi.n	a4, 1
    896b:	0dd8      	l32i.n	a13, a13, 0
    896d:	1122a2        	l32i	a10, a2, 68
    8970:	834cd0        	moveqz	a4, a12, a13
    8973:	336a67        	bbci	a10, 6, 0x89aa
    8976:	738c      	beqz.n	a3, 0x8981
    8978:	e3e8      	l32i.n	a14, a3, 56
    897a:	0f2c      	movi.n	a15, 32
    897c:	20eef0        	or	a14, a14, a15
    897f:	e3e9      	s32i.n	a14, a3, 56
    8981:	5f          	.byte 0x5f
    8982:	0c2e07        	blt	a14, a0, 0x8992
    8985:	920c      	movi.n	a2, 9
    8987:	cc0302        	l8ui	a0, a3, 204
    898a:	268a      	add.n	a2, a6, a8
    898c:	0b39      	s32i.n	a3, a11, 0
    898e:	1821a2        	l32i	a10, a1, 96
    8991:	0aa8      	l32i.n	a10, a10, 0
    8993:	3acc      	bnez.n	a10, 0x899a
    8995:	140c      	movi.n	a4, 1
    8997:	5f          	.byte 0x5f
    8998:	043504        	excw
    899b:	fdc9d2        	addi	a13, a9, -3
    899e:	3b0c      	movi.n	a11, 3
    89a0:	83cbd0        	moveqz	a12, a11, a13
    89a3:	0c7d      	mov.n	a7, a12
    89a5:	41a192        	movi	a9, 0x141
    89a8:	ffa0d2        	movi	a13, 255
    89ab:	45ac      	beqz.n	a5, 0x89d3
    89ad:	0105e2        	l8ui	a14, a5, 1
    89b0:	2421f2        	l32i	a15, a1, 144
    89b3:	ce9c      	beqz.n	a14, 0x89d3
    89b5:	a39a      	add.n	a10, a3, a9
    89b7:	1761f2        	s32i	a15, a1, 92
    89ba:	1c1f16        	beqz	a15, 0x8b7f
    89bd:	196152        	s32i	a5, a1, 100
    89c0:	190c      	movi.n	a9, 1
    89c2:	800a62        	l8ui	a6, a10, 128
    89c5:	080c      	movi.n	a8, 0
    89c7:	236600        	excw
    89ca:	838940        	moveqz	a8, a9, a4
    89cd:	166182        	s32i	a8, a1, 88
    89d0:	0004c6        	j	0x89e7
    89d3:	196152        	s32i	a5, a1, 100
    89d6:	152162        	l32i	a6, a1, 84
    89d9:	242182        	l32i	a8, a1, 144
    89dc:	090c      	movi.n	a9, 0
    89de:	166192        	s32i	a9, a1, 88
    89e1:	176182        	s32i	a8, a1, 92
    89e4:	236600        	excw
    89e7:	740051        	l32r	a5, 0xfffe59e8
    89ea:	152192        	l32i	a9, a1, 84
    89ed:	861b      	addi.n	a8, a6, 1
    89ef:	149090        	extui	a9, a9, 0, 2
    89f2:	146192        	s32i	a9, a1, 80
    89f5:	129816        	beqz	a8, 0x8b22
    89f8:	5f          	.byte 0x5f
    89f9:	ba0b      	addi.n	a11, a10, -1
    89fb:	1f          	.byte 0x1f
    89fc:	e0cc      	bnez.n	a0, 0x8a0e
    89fe:	0008      	l32i.n	a0, a0, 0
    8a00:	163766        	bnei	a7, 3, 0x8a1a
    8a03:	5f          	.byte 0x5f
    8a04:	5f9305        	call0	0x68338
    8a07:	5f          	.byte 0x5f
    8a08:	45ea06        	j	0x1a1b4
    8a0b:	758381        	l32r	a8, 0xfffe6018
    8a0e:	0888      	l32i.n	a8, a8, 0
    8a10:	5f          	.byte 0x5f
    8a11:	61a807        	bge	a8, a0, 0x8a76
    8a14:	162192        	l32i	a9, a1, 88
    8a17:	742581        	l32r	a8, 0xfffe5aac
    8a1a:	1421e2        	l32i	a14, a1, 80
    8a1d:	1821b2        	l32i	a11, a1, 96
    8a20:	1721d2        	l32i	a13, a1, 92
    8a23:	b1a8      	l32i.n	a10, a1, 44
    8a25:	b3a1c2        	movi	a12, 0x1b3
    8a28:	aaca      	add.n	a10, a10, a12
    8a2a:	264bd2        	s8i	a13, a11, 38
    8a2d:	274be2        	s8i	a14, a11, 39
    8a30:	0d0c      	movi.n	a13, 0
    8a32:	392882        	l32i	a8, a8, 228
    8a35:	800ac2        	l8ui	a12, a10, 128
    8a38:	f1c9      	s32i.n	a12, a1, 60
    8a3a:	7f0aa2        	l8ui	a10, a10, 127
    8a3d:	71a9      	s32i.n	a10, a1, 28
    8a3f:	0c0c      	movi.n	a12, 0
    8a41:	93c390        	movnez	a12, a3, a9
    8a44:	055f60        	extui	a5, a6, 31, 1
    8a47:	76ca      	add.n	a7, a6, a12
    8a49:	1921c2        	l32i	a12, a1, 100
    8a4c:	021a26        	beqi	a10, 1, 0x8a52
    8a4f:	002786        	j	0x8af1
    8a52:	1821d2        	l32i	a13, a1, 96
    8a55:	1421f2        	l32i	a15, a1, 80
    8a58:	b198      	l32i.n	a9, a1, 44
    8a5a:	1e0c      	movi.n	a14, 1
    8a5c:	b09690        	addx8	a9, a6, a9
    8a5f:	2d49e2        	s8i	a14, a9, 45
    8a62:	2c49f2        	s8i	a15, a9, 44
    8a65:	0dd8      	l32i.n	a13, a13, 0
    8a67:	c9d9      	s32i.n	a13, a9, 48
    8a69:	0dad      	mov.n	a10, a13
    8a6b:	392c16        	beqz	a12, 0x8e01
    8a6e:	010cb2        	l8ui	a11, a12, 1
    8a71:	38cb16        	beqz	a11, 0x8e01
    8a74:	28ad16        	beqz	a13, 0x8d02
    8a77:	80a1e2        	movi	a14, 0x180
    8a7a:	4199      	s32i.n	a9, a1, 16
    8a7c:	e1f8      	l32i.n	a15, a1, 56
    8a7e:	3c88      	l32i.n	a8, a12, 12
    8a80:	2ca8      	l32i.n	a10, a12, 8
    8a82:	1061a2        	s32i	a10, a1, 64
    8a85:	a189      	s32i.n	a8, a1, 40
    8a87:	04f1f0        	extui	a15, a15, 1, 1
    8a8a:	16cf16        	beqz	a15, 0x8bfa
    8a8d:	1721b2        	l32i	a11, a1, 92
    8a90:	3d0b16        	beqz	a11, 0x8e64
    8a93:	b1c8      	l32i.n	a12, a1, 44
    8a95:	ccea      	add.n	a12, a12, a14
    8a97:	1161c2        	s32i	a12, a1, 68
    8a9a:	b30cc2        	l8ui	a12, a12, 179
    8a9d:	159c16        	beqz	a12, 0x8bfa
    8aa0:	0d0c      	movi.n	a13, 0
    8aa2:	1021f2        	l32i	a15, a1, 64
    8aa5:	1261f2        	s32i	a15, a1, 72
    8aa8:	1361d2        	s32i	a13, a1, 76
    8aab:	1221a2        	l32i	a10, a1, 72
    8aae:	d1b8      	l32i.n	a11, a1, 52
    8ab0:	3f2582        	l32i	a8, a5, 252
    8ab3:	5f          	.byte 0x5f
    8ab4:	65b405        	call0	0x6e5f8
    8ab7:	80a1e2        	movi	a14, 0x180
    8aba:	1121a2        	l32i	a10, a1, 68
    8abd:	132192        	l32i	a9, a1, 76
    8ac0:	0d0c      	movi.n	a13, 0
    8ac2:	1221b2        	l32i	a11, a1, 72
    8ac5:	0c0c      	movi.n	a12, 0
    8ac7:	104bc2        	s8i	a12, a11, 16
    8aca:	114bd2        	s8i	a13, a11, 17
    8acd:	991b      	addi.n	a9, a9, 1
    8acf:	0d0c      	movi.n	a13, 0
    8ad1:	136192        	s32i	a9, a1, 76
    8ad4:	124bd2        	s8i	a13, a11, 18
    8ad7:	0d0c      	movi.n	a13, 0
    8ad9:	134bd2        	s8i	a13, a11, 19
    8adc:	14cbb2        	addi	a11, a11, 20
    8adf:	b30aa2        	l8ui	a10, a10, 179
    8ae2:	1261b2        	s32i	a11, a1, 72
    8ae5:	c139a7        	bltu	a9, a10, 0x8aaa
    8ae8:	1821d2        	l32i	a13, a1, 96
    8aeb:	0dd8      	l32i.n	a13, a13, 0
    8aed:	004206        	j	0x8bf9
    8af0:	0b3766        	bnei	a7, 3, 0x8aff
    8af3:	5f          	.byte 0x5f
    8af4:	6d8106        	j	0x240fc
    8af7:	5fb8      	l32i.n	a11, a15, 20
    8af9:	6d8105        	call0	0x7630c
    8afc:	5f          	.byte 0x5f
    8afd:	3db505        	call0	0x46650
    8b00:	5f          	.byte 0x5f
    8b01:	8e8107        	bany	a1, a0, 0x8a93
    8b04:	055f37        	bbc	a15, a3, 0x8b0d
    8b07:	461882        	l16ui	a8, a8, 140
    8b0a:	7c0000        	excw
    8b0d:	99a1f7        	bge	a1, a15, 0x8aaa
    8b10:	258275        	excw
    8b13:	21b2a0        	srai	a11, a10, 2
    8b16:	21d216        	beqz	a2, 0x8d37
    8b19:	21c214        	excw
    8b1c:	dd0017        	bnone	a0, a1, 0x8afd
    8b1f:	cc8011        	l32r	a1, 0xffffbd20
    8b22:	bbf001        	l32r	a0, 0xffff7ae4
    8b25:	b4b011        	l32r	a1, 0xffff5de8
    8b28:	ccd020        	excw
    8b2b:	5f8020        	excw
    8b2e:	820b      	addi.n	a8, a2, -1
    8b30:	ac5b84        	excw
    8b33:	065f93        	excw
    8b36:	d82c      	movi.n	a8, 45
    8b38:	a1b2e3        	excw
    8b3b:	b3ba41        	l32r	a4, 0xffff5a24
    8b3e:	7f0bc2        	l8ui	a12, a11, 127
    8b41:	01dd80        	slli	a13, a13, 24
    8b44:	5fcc00        	excw
    8b47:	d22104        	excw
    8b4a:	800b      	addi.n	a8, a0, -1
    8b4c:	810bb2        	l8ui	a11, a11, 129
    8b4f:	5f          	.byte 0x5f
    8b50:	820c      	movi.n	a2, 8
    8b52:	2d3483        	excw
    8b55:	f01d07        	beq	a13, a0, 0x8b49
    8b58:	810ae2        	l8ui	a14, a10, 129
    8b5b:	236e00        	excw
    8b5e:	361ed7        	beq	a14, a13, 0x8b98
    8b61:	64fc      	bnez.n	a4, 0x8b9b
    8b63:	b1f8      	l32i.n	a15, a1, 44
    8b65:	b0f6f0        	addx8	a15, a6, a15
    8b68:	2d0f82        	l8ui	a8, a15, 45
    8b6b:	e89c      	beqz.n	a8, 0x8b8d
    8b6d:	152192        	l32i	a9, a1, 84
    8b70:	2c0f82        	l8ui	a8, a15, 44
    8b73:	161897        	beq	a8, a9, 0x8b8d
    8b76:	8ca2b2        	movi	a11, 0x28c
    8b79:	b3ba      	add.n	a11, a3, a11
    8b7b:	800bf2        	l8ui	a15, a11, 128
    8b7e:	0b1fd7        	beq	a15, a13, 0x8b8d
    8b81:	814af2        	s8i	a15, a10, 129
    8b84:	804be2        	s8i	a14, a11, 128
    8b87:	810a62        	l8ui	a6, a10, 129
    8b8a:	236600        	excw
    8b8d:	196152        	s32i	a5, a1, 100
    8b90:	180c      	movi.n	a8, 1
    8b92:	166182        	s32i	a8, a1, 88
    8b95:	ff89c6        	j	0x89c0
    8b98:	347416        	beqz	a4, 0x8ee3
    8b9b:	5f          	.byte 0x5f
    8b9c:	6f8306        	j	0x249ac
    8b9f:	5f          	.byte 0x5f
    8ba0:	6c8305        	call0	0x753d4
    8ba3:	236600        	excw
    8ba6:	ff84c6        	j	0x89bd
    8ba9:	5f          	.byte 0x5f
    8baa:	178205        	call0	0x203cc
    8bad:	f1a8      	l32i.n	a10, a1, 60
    8baf:	1021c2        	l32i	a12, a1, 64
    8bb2:	a0aaa0        	addx4	a10, a10, a10
    8bb5:	a0aac0        	addx4	a10, a10, a12
    8bb8:	61a9      	s32i.n	a10, a1, 24
    8bba:	5f          	.byte 0x5f
    8bbb:	248205        	call0	0x2d3dc
    8bbe:	61c8      	l32i.n	a12, a1, 24
    8bc0:	0b0c      	movi.n	a11, 0
    8bc2:	104cb2        	s8i	a11, a12, 16
    8bc5:	5f          	.byte 0x5f
    8bc6:	110504        	excw
    8bc9:	5f          	.byte 0x5f
    8bca:	120504        	excw
    8bcd:	5f          	.byte 0x5f
    8bce:	130504        	excw
    8bd1:	1821d2        	l32i	a13, a1, 96
    8bd4:	80a1e2        	movi	a14, 0x180
    8bd7:	0dd8      	l32i.n	a13, a13, 0
    8bd9:	e1f8      	l32i.n	a15, a1, 56
    8bdb:	2b6f07        	bbci	a15, 0, 0x8c0a
    8bde:	0c0c      	movi.n	a12, 0
    8be0:	172182        	l32i	a8, a1, 92
    8be3:	1a0c      	movi.n	a10, 1
    8be5:	489c      	beqz.n	a8, 0x8bfd
    8be7:	b1b8      	l32i.n	a11, a1, 44
    8be9:	bbea      	add.n	a11, a11, a14
    8beb:	b20bb2        	l8ui	a11, a11, 178
    8bee:	a198      	l32i.n	a9, a1, 40
    8bf0:	069b76        	excw
    8bf3:	19c9      	s32i.n	a12, a9, 4
    8bf5:	09a9      	s32i.n	a10, a9, 0
    8bf7:	10c992        	addi	a9, a9, 16
    8bfa:	000306        	j	0x8c0a
    8bfd:	7188      	l32i.n	a8, a1, 28
    8bff:	a1f8      	l32i.n	a15, a1, 40
    8c01:	1188c0        	slli	a8, a8, 4
    8c04:	ff8a      	add.n	a15, a15, a8
    8c06:	1fc9      	s32i.n	a12, a15, 4
    8c08:	0fa9      	s32i.n	a10, a15, 0
    8c0a:	9d0b      	addi.n	a9, a13, -1
    8c0c:	0cd956        	bnez	a9, 0x8cdd
    8c0f:	1721a2        	l32i	a10, a1, 92
    8c12:	068a16        	beqz	a10, 0x8c7e
    8c15:	5f          	.byte 0x5f
    8c16:	612e05        	call0	0x69ef8
    8c19:	0bb211        	l32r	a1, 0xfffcbae4
    8c1c:	bb16b2        	l16ui	a11, a6, 0x176
    8c1f:	d81c      	movi.n	a8, 29
    8c21:	0c0ca1        	l32r	a10, 0xfffcbc54
    8c24:	1361c2        	s32i	a12, a1, 76
    8c27:	21d9      	s32i.n	a13, a1, 8
    8c29:	dd8b      	addi.n	a13, a13, 8
    8c2b:	31d9      	s32i.n	a13, a1, 12
    8c2d:	21a8      	l32i.n	a10, a1, 8
    8c2f:	01bd      	mov.n	a11, a1
    8c31:	5f          	.byte 0x5f
    8c32:	8308      	l32i.n	a0, a3, 32
    8c34:	31a824        	excw
    8c37:	5f          	.byte 0x5f
    8c38:	0c0a      	add.n	a0, a12, a0
    8c3a:	21c8      	l32i.n	a12, a1, 8
    8c3c:	31a8      	l32i.n	a10, a1, 12
    8c3e:	010292        	l8ui	a9, a2, 1
    8c41:	10caa2        	addi	a10, a10, 16
    8c44:	0e2966        	bnei	a9, 2, 0x8c56
    8c47:	0cb8      	l32i.n	a11, a12, 0
    8c49:	1cd8      	l32i.n	a13, a12, 4
    8c4b:	eb1b      	addi.n	a14, a11, 1
    8c4d:	01beb7        	bgeu	a14, a11, 0x8c52
    8c50:	dd1b      	addi.n	a13, a13, 1
    8c52:	1cd9      	s32i.n	a13, a12, 4
    8c54:	0ce9      	s32i.n	a14, a12, 0
    8c56:	31a9      	s32i.n	a10, a1, 12
    8c58:	1121e2        	l32i	a14, a1, 68
    8c5b:	1321d2        	l32i	a13, a1, 76
    8c5e:	10ccc2        	addi	a12, a12, 16
    8c61:	21c9      	s32i.n	a12, a1, 8
    8c63:	dd1b      	addi.n	a13, a13, 1
    8c65:	b20ee2        	l8ui	a14, a14, 178
    8c68:	1361d2        	s32i	a13, a1, 76
    8c6b:	b33de7        	bltu	a13, a14, 0x8c22
    8c6e:	005bc6        	j	0x8de1
    8c71:	8c0c      	movi.n	a12, 8
    8c73:	3f2582        	l32i	a8, a5, 252
    8c76:	71b8      	l32i.n	a11, a1, 28
    8c78:	a1a8      	l32i.n	a10, a1, 40
    8c7a:	11bbc0        	slli	a11, a11, 4
    8c7d:	aaba      	add.n	a10, a10, a11
    8c7f:	51a9      	s32i.n	a10, a1, 20
    8c81:	01bd      	mov.n	a11, a1
    8c83:	0008e0        	excw
    8c86:	01bd      	mov.n	a11, a1
    8c88:	8c0c      	movi.n	a12, 8
    8c8a:	51a8      	l32i.n	a10, a1, 20
    8c8c:	3f2582        	l32i	a8, a5, 252
    8c8f:	aa8b      	addi.n	a10, a10, 8
    8c91:	5f08e0        	excw
    8c94:	a82306        	j	0xffff2d24
    8c97:	5fb2f1        	l32r	a15, 0xfffe0b60
    8c9a:	7d8105        	call0	0x864ac
    8c9d:	a0aab0        	addx4	a10, a10, a11
    8ca0:	61a9      	s32i.n	a10, a1, 24
    8ca2:	5f          	.byte 0x5f
    8ca3:	250a      	add.n	a2, a5, a0
    8ca5:	085f61        	l32r	a6, 0xfffcae24
    8ca8:	02b225        	excw
    8cab:	51a801        	l32r	a0, 0xfffdd34c
    8cae:	0e2b66        	bnei	a11, 2, 0x8cc0
    8cb1:	0ae8      	l32i.n	a14, a10, 0
    8cb3:	1ac8      	l32i.n	a12, a10, 4
    8cb5:	de1b      	addi.n	a13, a14, 1
    8cb7:	01bde7        	bgeu	a13, a14, 0x8cbc
    8cba:	cc1b      	addi.n	a12, a12, 1
    8cbc:	1ac9      	s32i.n	a12, a10, 4
    8cbe:	0ad9      	s32i.n	a13, a10, 0
    8cc0:	41a8      	l32i.n	a10, a1, 16
    8cc2:	caa8      	l32i.n	a10, a10, 48
    8cc4:	1721b2        	l32i	a11, a1, 92
    8cc7:	8c0c      	movi.n	a12, 8
    8cc9:	054b16        	beqz	a11, 0x8d21
    8ccc:	fccad2        	addi	a13, a10, -4
    8ccf:	e3e8      	l32i.n	a14, a3, 56
    8cd1:	0a4c      	movi.n	a10, 64
    8cd3:	20aea0        	or	a10, a14, a10
    8cd6:	e3a9      	s32i.n	a10, a3, 56
    8cd8:	0ecd56        	bnez	a13, 0x8dc8
    8cdb:	3f2582        	l32i	a8, a5, 252
    8cde:	1821b2        	l32i	a11, a1, 96
    8ce1:	26a2a2        	movi	a10, 0x226
    8ce4:	a3aa      	add.n	a10, a3, a10
    8ce6:	1ecbb2        	addi	a11, a11, 30
    8ce9:	0008e0        	excw
    8cec:	e3a8      	l32i.n	a10, a3, 56
    8cee:	00a1b2        	movi	a11, 0x100
    8cf1:	20aab0        	or	a10, a10, a11
    8cf4:	e3a9      	s32i.n	a10, a3, 56
    8cf6:	0102c2        	l8ui	a12, a2, 1
    8cf9:	4e1c66        	bnei	a12, 1, 0x8d4b
    8cfc:	759a81        	l32r	a8, 0xfffe6364
    8cff:	02ad      	mov.n	a10, a2
    8d01:	7888      	l32i.n	a8, a8, 28
    8d03:	5f          	.byte 0x5f
    8d04:	299605        	call0	0x32668
    8d07:	fabc      	beqz.n	a10, 0x8d4a
    8d09:	02ad      	mov.n	a10, a2
    8d0b:	759bb1        	l32r	a11, 0xfffe6378
    8d0e:	759c81        	l32r	a8, 0xfffe6380
    8d11:	e398      	l32i.n	a9, a3, 56
    8d13:	8888      	l32i.n	a8, a8, 32
    8d15:	2099b0        	or	a9, a9, a11
    8d18:	e399      	s32i.n	a9, a3, 56
    8d1a:	0008e0        	excw
    8d1d:	000a46        	j	0x8d4a
    8d20:	948c      	beqz.n	a4, 0x8d2d
    8d22:	c198      	l32i.n	a9, a1, 48
    8d24:	1521b2        	l32i	a11, a1, 84
    8d27:	b80992        	l8ui	a9, a9, 184
    8d2a:	0e99b7        	bne	a9, a11, 0x8d3c
    8d2d:	41a1b2        	movi	a11, 0x141
    8d30:	e3d8      	l32i.n	a13, a3, 56
    8d32:	b3ba      	add.n	a11, a3, a11
    8d34:	20ddc0        	or	a13, a13, a12
    8d37:	e3d9      	s32i.n	a13, a3, 56
    8d39:	814b62        	s8i	a6, a11, 129
    8d3c:	0a1a66        	bnei	a10, 1, 0x8d4a
    8d3f:	5f          	.byte 0x5f
    8d40:	29d305        	call0	0x32a74
    8d43:	5f3d      	excw
    8d45:	2adf05        	call0	0x33b38
    8d48:	5f          	.byte 0x5f
    8d49:	0f          	.byte 0xf
    8d4a:	921885        	call0	0xfff9aed4
    8d4d:	a80102        	l8ui	a0, a1, 168
    8d50:	1966e3        	excw
    8d53:	0b4c26        	beqi	a12, 4, 0x8d62
    8d56:	5b0ab7        	bnone	a10, a11, 0x8db5
    8d59:	05ea37        	bbsi	a10, 3, 0x8d62
    8d5c:	1922c2        	l32i	a12, a2, 100
    8d5f:	521c37        	beq	a12, a3, 0x8db5
    8d62:	03bd      	mov.n	a11, a3
    8d64:	fdc7a2        	addi	a10, a7, -3
    8d67:	190c      	movi.n	a9, 1
    8d69:	0c0c      	movi.n	a12, 0
    8d6b:	759881        	l32r	a8, 0xfffe63cc
    8d6e:	83c9a0        	moveqz	a12, a9, a10
    8d71:	5f          	.byte 0x5f
    8d72:	6abb07        	bgeu	a11, a0, 0x8de0
    8d75:	000e46        	j	0x8db2
    8d78:	094c      	movi.n	a9, 64
    8d7a:	0d8a97        	bany	a10, a9, 0x8d8b
    8d7d:	5f          	.byte 0x5f
    8d7e:	028505        	call0	0xb5d0
    8d81:	800bb2        	l8ui	a11, a11, 128
    8d84:	ffa0c2        	movi	a12, 255
    8d87:	269bc7        	bne	a11, a12, 0x8db1
    8d8a:	0dea37        	bbsi	a10, 3, 0x8d9b
    8d8d:	41a1c2        	movi	a12, 0x141
    8d90:	c3ca      	add.n	a12, a3, a12
    8d92:	810cc2        	l8ui	a12, a12, 129
    8d95:	ffa0d2        	movi	a13, 255
    8d98:	159cd7        	bne	a12, a13, 0x8db1
    8d9b:	5f          	.byte 0x5f
    8d9c:	0c3d16        	beqz	a13, 0x8e63
    8d9f:	3ec607        	bnall	a6, a0, 0x8de1
    8da2:	ff          	.byte 0xff
    8da3:	ffae92        	movi	a9, 0xfffffeff
    8da6:	10aa90        	and	a10, a10, a9
    8da9:	ffc886        	j	0x8ccf
    8dac:	1121a2        	l32i	a10, a1, 68
    8daf:	b30aa2        	l8ui	a10, a10, 179
    8db2:	ee5a16        	beqz	a10, 0x8c9b
    8db5:	1021c2        	l32i	a12, a1, 64
    8db8:	0b0c      	movi.n	a11, 0
    8dba:	1361b2        	s32i	a11, a1, 76
    8dbd:	1261c2        	s32i	a12, a1, 72
    8dc0:	cc8b      	addi.n	a12, a12, 8
    8dc2:	81c9      	s32i.n	a12, a1, 32
    8dc4:	1221a2        	l32i	a10, a1, 72
    8dc7:	5f          	.byte 0x5f
    8dc8:	830b      	addi.n	a8, a3, -1
    8dca:	8158      	l32i.n	a5, a1, 32
    8dcc:	5f          	.byte 0x5f
    8dcd:	0c0a      	add.n	a0, a12, a0
    8dcf:	1221c2        	l32i	a12, a1, 72
    8dd2:	81b8      	l32i.n	a11, a1, 32
    8dd4:	5f          	.byte 0x5f
    8dd5:	0a8706        	j	0xb7f5
    8dd8:	b30aa2        	l8ui	a10, a10, 179
    8ddb:	991b      	addi.n	a9, a9, 1
    8ddd:	14cbb2        	addi	a11, a11, 20
    8de0:	14ccc2        	addi	a12, a12, 20
    8de3:	1261c2        	s32i	a12, a1, 72
    8de6:	81b9      	s32i.n	a11, a1, 32
    8de8:	136192        	s32i	a9, a1, 76
    8deb:	c539a7        	bltu	a9, a10, 0x8db4
    8dee:	ffa646        	j	0x8c8b
    8df1:	0102d2        	l8ui	a13, a2, 1
    8df4:	dd0b      	addi.n	a13, a13, -1
    8df6:	d58d56        	bnez	a13, 0x8b52
    8df9:	c1a8      	l32i.n	a10, a1, 48
    8dfb:	80a0b2        	movi	a11, 128
    8dfe:	aaba      	add.n	a10, a10, a11
    8e00:	91a9      	s32i.n	a10, a1, 36
    8e02:	800ae2        	l8ui	a14, a10, 128
    8e05:	820aa2        	l8ui	a10, a10, 130
    8e08:	6ecc      	bnez.n	a14, 0x8e12
    8e0a:	91c8      	l32i.n	a12, a1, 36
    8e0c:	810cc2        	l8ui	a12, a12, 129
    8e0f:	539ca7        	bne	a12, a10, 0x8e66
    8e12:	1021f2        	l32i	a15, a1, 64
    8e15:	91d8      	l32i.n	a13, a1, 36
    8e17:	f1e8      	l32i.n	a14, a1, 60
    8e19:	814da2        	s8i	a10, a13, 129
    8e1c:	a0eee0        	addx4	a14, a14, a14
    8e1f:	1f2d82        	l32i	a8, a13, 124
    8e22:	a0eef0        	addx4	a14, a14, a15
    8e25:	41f880        	srli	a15, a8, 8
    8e28:	044e82        	s8i	a8, a14, 4
    8e2b:	5f          	.byte 0x5f
    8e2c:	f98106        	j	0x7434
    8e2f:	0c7b      	addi.n	a0, a12, 7
    8e31:	5f08      	l32i.n	a0, a15, 20
    8e33:	8109      	s32i.n	a0, a1, 32
    8e35:	7df9      	s32i.n	a15, a13, 28
    8e37:	0f0c      	movi.n	a15, 0
    8e39:	1e2dd2        	l32i	a13, a13, 120
    8e3c:	104e82        	s8i	a8, a14, 16
    8e3f:	004ed2        	s8i	a13, a14, 0
    8e42:	114ef2        	s8i	a15, a14, 17
    8e45:	5f          	.byte 0x5f
    8e46:	0be205        	call0	0x14c68
    8e49:	0f0c01        	l32r	a0, 0xfffcca7c
    8e4c:	5f4ef2        	s8i	a15, a14, 95
    8e4f:	1fa405        	call0	0x28890
    8e52:	4e          	.byte 0x4e
    8e53:	045f02        	s16i	a0, a15, 8
    8e56:	130b      	addi.n	a1, a3, -1
    8e58:	5f          	.byte 0x5f
    8e59:	030b05        	call0	0xbf0c
    8e5c:	d1b8      	l32i.n	a11, a1, 52
    8e5e:	1421d2        	l32i	a13, a1, 80
    8e61:	f8a0c2        	movi	a12, 248
    8e64:	c1a8      	l32i.n	a10, a1, 48
    8e66:	91e8      	l32i.n	a14, a1, 36
    8e68:	aaca      	add.n	a10, a10, a12
    8e6a:	824ed2        	s8i	a13, a14, 130
    8e6d:	5f          	.byte 0x5f
    8e6e:	8108      	l32i.n	a0, a1, 32
    8e70:	918832        	excw
    8e73:	1f0c      	movi.n	a15, 1
    8e75:	8048f2        	s8i	a15, a8, 128
    8e78:	ff3d46        	j	0x8b71
    8e7b:	000262        	l8ui	a6, a2, 0
    8e7e:	664b      	addi.n	a6, a6, 4
    8e80:	236600        	excw
    8e83:	5f2786        	j	0x20b25
    8e86:	78b305        	call0	0x819b8
    8e89:	010282        	l8ui	a8, a2, 1
    8e8c:	740061        	l32r	a6, 0xfffe5e8c
    8e8f:	111866        	bnei	a8, 1, 0x8ea4
    8e92:	6c0c      	movi.n	a12, 6
    8e94:	e4a0b2        	movi	a11, 228
    8e97:	2522a2        	l32i	a10, a2, 148
    8e9a:	3f2682        	l32i	a8, a6, 252
    8e9d:	aaba      	add.n	a10, a10, a11
    8e9f:	5f          	.byte 0x5f
    8ea0:	898206        	j	0xfffeb4ac
    8ea3:	112217        	blt	a2, a1, 0x8eb8
    8ea6:	46a1a2        	movi	a10, 0x146
    8ea9:	04c990        	extui	a12, a9, 9, 1
    8eac:	0f4c16        	beqz	a12, 0x8fa4
    8eaf:	43aa      	add.n	a4, a3, a10
    8eb1:	2d0c      	movi.n	a13, 2
    8eb3:	8244d2        	s8i	a13, a4, 130
    8eb6:	759da1        	l32r	a10, 0xfffe652c
    8eb9:	a12682        	l32i	a8, a6, 0x284
    8ebc:	0503e2        	l8ui	a14, a3, 5
    8ebf:	7c04b2        	l8ui	a11, a4, 124
    8ec2:	e3f8      	l32i.n	a15, a3, 56
    8ec4:	0303d2        	l8ui	a13, a3, 3
    8ec7:	0203c2        	l8ui	a12, a3, 2
    8eca:	5f          	.byte 0x5f
    8ecb:	ee8106        	j	0x48d3
    8ece:	04d241        	l32r	a4, 0xfffca218
    8ed1:	807b      	addi.n	a8, a0, 7
    8ed3:	ff          	.byte 0xff
    8ed4:	065f01        	l32r	a0, 0xfffca850
    8ed7:	d27887        	bbci	a8, 24, 0x8ead
    8eda:	800403        	excw
    8edd:	ee          	.byte 0xee
    8ede:	5f0001        	l32r	a0, 0xfffe0ae0
    8ee1:	f48106        	j	0x60e9
    8ee4:	7a0476        	excw
    8ee7:	20ccd0        	or	a12, a12, a13
    8eea:	5f          	.byte 0x5f
    8eeb:	858107        	bany	a1, a0, 0x8e74
    8eee:	1f          	.byte 0x1f
    8eef:	5f          	.byte 0x5f
    8ef0:	108805        	call0	0x19774
    8ef3:	1122e2        	l32i	a14, a2, 68
    8ef6:	070c      	movi.n	a7, 0
    8ef8:	04e9e0        	extui	a14, a14, 9, 1
    8efb:	09ce16        	beqz	a14, 0x8f9b
    8efe:	f57c      	movi.n	a5, -1
    8f00:	ffa0a2        	movi	a10, 255
    8f03:	252222        	l32i	a2, a2, 148
    8f06:	7b04f2        	l8ui	a15, a4, 123
    8f09:	0228      	l32i.n	a2, a2, 0
    8f0b:	23cf00        	excw
    8f0e:	b0bc20        	addx8	a11, a12, a2
    8f11:	2ccb62        	addi	a6, a11, 44
    8f14:	191fa7        	beq	a15, a10, 0x8f31
    8f17:	2d0b82        	l8ui	a8, a11, 45
    8f1a:	089c      	beqz.n	a8, 0x8f2e
    8f1c:	5f          	.byte 0x5f
    8f1d:	288405        	call0	0x31760
    8f20:	c03a      	add.n	a12, a0, a3
    8f22:	5f          	.byte 0x5f
    8f23:	698a05        	call0	0x727c4
    8f26:	ffa0a2        	movi	a10, 255
    8f29:	014672        	s8i	a7, a6, 1
    8f2c:	7b4452        	s8i	a5, a4, 123
    8f2f:	7c04b2        	l8ui	a11, a4, 124
    8f32:	281ba7        	beq	a11, a10, 0x8f5e
    8f35:	23bb00        	excw
    8f38:	b09b20        	addx8	a9, a11, a2
    8f3b:	2d0992        	l8ui	a9, a9, 45
    8f3e:	999c      	beqz.n	a9, 0x8f5b
    8f40:	5f          	.byte 0x5f
    8f41:	b02606        	j	0xffff4fdd
    8f44:	5f          	.byte 0x5f
    8f45:	922605        	call0	0xfff9b1a8
    8f48:	a27c04        	excw
    8f4b:	00ffa0        	excw
    8f4e:	2399      	s32i.n	a9, a3, 8
    8f50:	b09920        	addx8	a9, a9, a2
    8f53:	2d4972        	s8i	a7, a9, 45
    8f56:	7c4452        	s8i	a5, a4, 124
    8f59:	8ca242        	movi	a4, 0x28c
    8f5c:	434a      	add.n	a4, a3, a4
    8f5e:	8004b2        	l8ui	a11, a4, 128
    8f61:	251ba7        	beq	a11, a10, 0x8f8a
    8f64:	23ab00        	excw
    8f67:	b08a20        	addx8	a8, a10, a2
    8f6a:	2d0882        	l8ui	a8, a8, 45
    8f6d:	5f9c      	beqz.n	a15, 0x8f86
    8f6f:	fa8106        	j	0x7977
    8f72:	5f3a56        	bnez	a10, 0x9569
    8f75:	39d606        	j	0x176d1
    8f78:	800492        	l8ui	a9, a4, 128
    8f7b:	5f          	.byte 0x5f
    8f7c:	310b      	addi.n	a3, a1, -1
    8f7e:	9eb180        	excw
    8f81:	e3a875        	excw
    8f84:	10aab0        	and	a10, a10, a11
    8f87:	e3a9      	s32i.n	a10, a3, 56
    8f89:	f01d      	excw
    8f8b:	3c22c2        	l32i	a12, a2, 240
    8f8e:	759851        	l32r	a5, 0xfffe65f0
    8f91:	181c66        	bnei	a12, 1, 0x8fad
    8f94:	43aa      	add.n	a4, a3, a10
    8f96:	15f907        	bbsi	a9, 16, 0x8faf
    8f99:	7914d2        	l16ui	a13, a4, 242
    8f9c:	0fedd7        	bbsi	a13, 13, 0x8faf
    8f9f:	02ad      	mov.n	a10, a2
    8fa1:	03bd      	mov.n	a11, a3
    8fa3:	2588      	l32i.n	a8, a5, 8
    8fa5:	5f          	.byte 0x5f
    8fa6:	6ba405        	call0	0x749e8
    8fa9:	ffbbc6        	j	0x8e9c
    8fac:	43aa      	add.n	a4, a3, a10
    8fae:	0588      	l32i.n	a8, a5, 0
    8fb0:	5f          	.byte 0x5f
    8fb1:	20b506        	j	0x11289
    8fb4:	5fca      	add.n	a5, a15, a12
    8fb6:	190b      	addi.n	a1, a9, -1
    8fb8:	ffb586        	j	0x8e92
    8fbb:	1b0c      	movi.n	a11, 1
    8fbd:	3c22c2        	l32i	a12, a2, 240
    8fc0:	3a0c      	movi.n	a10, 3
    8fc2:	f0ccc2        	addi	a12, a12, -16
    8fc5:	93abc0        	movnez	a10, a11, a12
    8fc8:	8244a2        	s8i	a10, a4, 130
    8fcb:	010292        	l8ui	a9, a2, 1
    8fce:	7914d2        	l16ui	a13, a4, 242
    8fd1:	051926        	beqi	a9, 1, 0x8fda
    8fd4:	04e9d0        	extui	a14, a13, 9, 1
    8fd7:	eb7e56        	bnez	a14, 0x8e92
    8fda:	04ffd0        	extui	a15, a13, 15, 1
    8fdd:	eb1f56        	bnez	a15, 0x8e92
    8fe0:	02ad      	mov.n	a10, a2
    8fe2:	2b0c      	movi.n	a11, 2
    8fe4:	cc0c      	movi.n	a12, 12
    8fe6:	750491        	l32r	a9, 0xfffe63f8
    8fe9:	741181        	l32r	a8, 0xfffe6030
    8fec:	209d90        	or	a9, a13, a9
    8fef:	182882        	l32i	a8, a8, 96
    8ff2:	795492        	s16i	a9, a4, 242
    8ff5:	5f          	.byte 0x5f
    8ff6:	a54004        	excw
    8ff9:	5f          	.byte 0x5f
    8ffa:	288f06        	j	0x1323a
    8ffd:	c4bc      	beqz.n	a4, 0x903d
    8fff:	4aa142        	movi	a4, 0x14a
    9002:	434a      	add.n	a4, a3, a4
    9004:	771492        	l16ui	a9, a4, 238
    9007:	745951        	l32r	a5, 0xfffe616c
    900a:	14e9e7        	bbsi	a9, 14, 0x9022
    900d:	7451a1        	l32r	a10, 0xfffe6154
    9010:	2b6997        	bbci	a9, 9, 0x903f
    9013:	3b0c      	movi.n	a11, 3
    9015:	5f          	.byte 0x5f
    9016:	78c907        	bnall	a9, a0, 0x9092
    9019:	000c46        	j	0x904e
    901c:	771492        	l16ui	a9, a4, 238
    901f:	1769f7        	bbci	a9, 15, 0x903a
    9022:	5f          	.byte 0x5f
    9023:	0f          	.byte 0xf
    9024:	4d8b      	addi.n	a4, a13, 8
    9026:	771492        	l16ui	a9, a4, 238
    9029:	e49090        	extui	a9, a9, 0, 15
    902c:	775492        	s16i	a9, a4, 238
    902f:	f01d      	excw
    9031:	5f          	.byte 0x5f
    9032:	2cf605        	call0	0x35f94
    9035:	d70b      	addi.n	a13, a7, -1
    9037:	0869      	s32i.n	a6, a8, 0
    9039:	7b0c      	movi.n	a11, 7
    903b:	5f          	.byte 0x5f
    903c:	0c3507        	bltu	a5, a0, 0x904c
    903f:	a22a      	add.n	a10, a2, a2
    9041:	5f7e44        	excw
    9044:	62b305        	call0	0x6bb78
    9047:	e3b8c2        	excw
    904a:	116b97        	bbci	a11, 9, 0x905f
    904d:	02ad      	mov.n	a10, a2
    904f:	e4a0c2        	movi	a12, 228
    9052:	743f81        	l32r	a8, 0xfffe6150
    9055:	2522b2        	l32i	a11, a2, 148
    9058:	9888      	l32i.n	a8, a8, 36
    905a:	bbca      	add.n	a11, a11, a12
    905c:	0008e0        	excw
    905f:	3c22d2        	l32i	a13, a2, 240
    9062:	091d26        	beqi	a13, 1, 0x906f
    9065:	744081        	l32r	a8, 0xfffe6168
    9068:	9888      	l32i.n	a8, a8, 36
    906a:	5f          	.byte 0x5f
    906b:	158706        	j	0xe68b
    906e:	507714        	excw
    9071:	2099      	s32i.n	a9, a0, 8
    9073:	775492        	s16i	a9, a4, 238
    9076:	5fe486        	j	0x2100c
    9079:	349c07        	bne	a12, a0, 0x90b1
    907c:	759fa1        	l32r	a10, 0xfffe66f8
    907f:	75a121        	l32r	a2, 0xfffe6704
    9082:	758931        	l32r	a3, 0xfffe66a8
    9085:	759891        	l32r	a9, 0xfffe66e8
    9088:	75a081        	l32r	a8, 0xfffe6708
    908b:	2989      	s32i.n	a8, a9, 8
    908d:	3329      	s32i.n	a2, a3, 12
    908f:	39a9      	s32i.n	a10, a9, 12
    9091:	5f          	.byte 0x5f
    9092:	28f807        	bbsi	a8, 16, 0x90be
    9095:	1c0c      	movi.n	a12, 1
    9097:	7464d1        	l32r	a13, 0xfffe6228
    909a:	04bd      	mov.n	a11, a4
    909c:	029d      	mov.n	a9, a2
    909e:	3199      	s32i.n	a9, a1, 12
    90a0:	062d      	mov.n	a2, a6
    90a2:	742b41        	l32r	a4, 0xfffe6150
    90a5:	076d      	mov.n	a6, a7
    90a7:	65d526        	beqi	a5, 64, 0x9110
    90aa:	21c9      	s32i.n	a12, a1, 8
    90ac:	b0c582        	addi	a8, a5, -80
    90af:	150816        	beqz	a8, 0x9203
    90b2:	5fe566        	bnei	a5, 128, 0x9115
    90b5:	070c00        	excw
    90b8:	000492        	l8ui	a9, a4, 0
    90bb:	050c      	movi.n	a5, 0
    90bd:	05b916        	beqz	a9, 0x911c
    90c0:	5fa5d0        	excw
    90c3:	69bd06        	j	0x237bb
    90c6:	010a82        	l8ui	a8, a10, 1
    90c9:	266926        	beqi	a9, 6, 0x90f3
    90cc:	238926        	beqi	a9, 8, 0x90f3
    90cf:	207926        	beqi	a9, 7, 0x90f3
    90d2:	03bd      	mov.n	a11, a3
    90d4:	02cd      	mov.n	a12, a2
    90d6:	75a281        	l32r	a8, 0xfffe6760
    90d9:	06dd      	mov.n	a13, a6
    90db:	3888      	l32i.n	a8, a8, 12
    90dd:	07ed      	mov.n	a14, a7
    90df:	5f          	.byte 0x5f
    90e0:	48ba06        	j	0x1b3cc
    90e3:	5f0492        	l8ui	a9, a4, 95
    90e6:	23fe06        	j	0x120e2
    90e9:	cd3597        	bltu	a5, a9, 0x90ba
    90ec:	000986        	j	0x9116
    90ef:	ee1866        	bnei	a8, 1, 0x90e1
    90f2:	eb6966        	bnei	a9, 6, 0x90e1
    90f5:	5f          	.byte 0x5f
    90f6:	462713        	excw
    90f9:	92fff5        	excw
    90fc:	ec0004        	excw
    90ff:	0c89      	s32i.n	a8, a12, 0
    9101:	2d09      	s32i.n	a0, a13, 8
    9103:	5f09      	s32i.n	a0, a15, 20
    9105:	4db705        	call0	0x56c78
    9108:	d02031        	l32r	a3, 0xffffd188
    910b:	290c74        	excw
    910e:	744581        	l32r	a8, 0xfffe6224
    9111:	21c8      	l32i.n	a12, a1, 8
    9113:	352882        	l32i	a8, a8, 212
    9116:	055f70        	extui	a5, a7, 31, 1
    9119:	06ca      	add.n	a0, a6, a12
    911b:	e4cab2        	addi	a11, a10, -28
    911e:	a90c      	movi.n	a9, 10
    9120:	fa7c      	movi.n	a10, -1
    9122:	939ab0        	movnez	a9, a10, a11
    9125:	fff5c6        	j	0x9100
    9128:	050c      	movi.n	a5, 0
    912a:	11b9      	s32i.n	a11, a1, 4
    912c:	0179      	s32i.n	a7, a1, 0
    912e:	090c      	movi.n	a9, 0
    9130:	5199      	s32i.n	a9, a1, 20
    9132:	03bd      	mov.n	a11, a3
    9134:	0c4c      	movi.n	a12, 64
    9136:	746781        	l32r	a8, 0xfffe62d4
    9139:	746461        	l32r	a6, 0xfffe62cc
    913c:	4398      	l32i.n	a9, a3, 16
    913e:	4199      	s32i.n	a9, a1, 16
    9140:	a06560        	addx4	a6, a5, a6
    9143:	0668      	l32i.n	a6, a6, 0
    9145:	5f2882        	l32i	a8, a8, 0x17c
    9148:	8d8106        	j	0xfffec750
    914b:	0a7d51        	l32r	a5, 0xfffcbb40
    914e:	41f8      	l32i.n	a15, a1, 16
    9150:	0206c2        	l8ui	a12, a6, 2
    9153:	272ff2        	l32i	a15, a15, 156
    9156:	672c26        	beqi	a12, 2, 0x91c1
    9159:	204c26        	beqi	a12, 4, 0x917d
    915c:	1d3c26        	beqi	a12, 3, 0x917d
    915f:	61f9      	s32i.n	a15, a1, 24
    9161:	185c26        	beqi	a12, 5, 0x917d
    9164:	02dd      	mov.n	a13, a2
    9166:	06ad      	mov.n	a10, a6
    9168:	11b8      	l32i.n	a11, a1, 4
    916a:	75a281        	l32r	a8, 0xfffe67f4
    916d:	03cd      	mov.n	a12, a3
    916f:	4888      	l32i.n	a8, a8, 16
    9171:	5fe8      	l32i.n	a14, a15, 20
    9173:	35c005        	call0	0x3ed74
    9176:	06c261        	l32r	a6, 0xfffcac80
    9179:	51a902        	movi	a0, 0xfffff951
    917c:	402c26        	beqi	a12, 2, 0x91c0
    917f:	3d4c26        	beqi	a12, 4, 0x91c0
    9182:	3a3c26        	beqi	a12, 3, 0x91c0
    9185:	375c26        	beqi	a12, 5, 0x91c0
    9188:	216717        	bbci	a7, 1, 0x91ad
    918b:	744d81        	l32r	a8, 0xfffe62c0
    918e:	a888      	l32i.n	a8, a8, 40
    9190:	31a8      	l32i.n	a10, a1, 12
    9192:	5f          	.byte 0x5f
    9193:	57a005        	call0	0x60b94
    9196:	0add74        	excw
    9199:	43c8      	l32i.n	a12, a3, 16
    919b:	06ad      	mov.n	a10, a6
    919d:	001dd2        	l16ui	a13, a13, 0
    91a0:	272cb2        	l32i	a11, a12, 156
    91a3:	1b2882        	l32i	a8, a8, 108
    91a6:	501cc2        	l16ui	a12, a12, 160
    91a9:	0008e0        	excw
    91ac:	075fe2        	s16i	a14, a15, 14
    91af:	e76081        	l32r	a8, 0x2f30 (0xbcd0c0dd)
    91b2:	0602b5        	excw
    91b5:	ffdd      	excw
    91b7:	5198      	l32i.n	a9, a1, 20
    91b9:	ffcf46        	j	0x90fa
    91bc:	11e707        	bbsi	a7, 0, 0x91d1
    91bf:	0ee727        	bbsi	a7, 2, 0x91d1
    91c2:	0be717        	bbsi	a7, 1, 0x91d1
    91c5:	100f82        	l8ui	a8, a15, 16
    91c8:	ffa092        	movi	a9, 255
    91cb:	021897        	beq	a8, a9, 0x91d1
    91ce:	d74c66        	bnei	a12, 4, 0x91a9
    91d1:	06ad      	mov.n	a10, a6
    91d3:	43c8      	l32i.n	a12, a3, 16
    91d5:	746781        	l32r	a8, 0xfffe6374
    91d8:	272cb2        	l32i	a11, a12, 156
    91db:	7888      	l32i.n	a8, a8, 28
    91dd:	5f          	.byte 0x5f
    91de:	863a06        	j	0xfffeaaca
    91e1:	0cfff0        	excw
    91e4:	ab8617        	bany	a6, a1, 0x9193
    91e7:	ff          	.byte 0xff
    91e8:	360000        	excw
    91eb:	b100a1        	l32r	a10, 0xffff55ec
    91ee:	927453        	excw
    91f1:	d24ca2        	s8i	a10, a12, 210
    91f4:	0c1022        	l16ui	a2, a0, 24
    91f7:	5288      	l32i.n	a8, a2, 20
    91f9:	622422        	l32i	a2, a4, 0x188
    91fc:	581822        	l16ui	a2, a8, 176
    91ff:	067205        	call0	0xf920
    9202:	5858      	l32i.n	a5, a8, 20
    9204:	778045        	call0	0x80a0c
    9207:	253263        	excw
    920a:	154224        	excw
    920d:	707047        	bbci	a0, 20, 0x9281
    9210:	443a74        	excw
    9213:	237de7        	bbci	a13, 30, 0x923a
    9216:	c29a      	add.n	a12, a2, a9
    9218:	800c82        	l8ui	a8, a12, 128
    921b:	b8dc      	bnez.n	a8, 0x923a
    921d:	02ad      	mov.n	a10, a2
    921f:	75a391        	l32r	a9, 0xfffe68ac
    9222:	0b88      	l32i.n	a8, a11, 0
    9224:	b222b2        	l32i	a11, a2, 0x2c8
    9227:	102882        	l32i	a8, a8, 64
    922a:	109d90        	and	a9, a13, a9
    922d:	001bb2        	l16ui	a11, a11, 0
    9230:	106292        	s32i	a9, a2, 64
    9233:	5f          	.byte 0x5f
    9234:	a18107        	bany	a1, a0, 0x91d9
    9237:	a269      	s32i.n	a6, a2, 40
    9239:	0c18c3        	excw
    923c:	d28c      	beqz.n	a2, 0x924d
    923e:	810512        	l8ui	a1, a5, 129
    9241:	b27400        	excw
    9244:	ba48a2        	s8i	a10, a8, 186
    9247:	2882b2        	excw
    924a:	3f          	.byte 0x3f
    924b:	11ddc0        	slli	a13, a13, 4
    924e:	0b53d2        	s16i	a13, a3, 22
    9251:	c00292        	l8ui	a9, a2, 192
    9254:	7199      	s32i.n	a9, a1, 28
    9256:	5f          	.byte 0x5f
    9257:	0aa105        	call0	0x13c68
    925a:	5149      	s32i.n	a4, a1, 20
    925c:	1716a2        	l16ui	a10, a6, 46
    925f:	7188      	l32i.n	a8, a1, 28
    9261:	1153a2        	s16i	a10, a3, 34
    9264:	887a      	add.n	a8, a8, a7
    9266:	338a      	add.n	a3, a3, a8
    9268:	2c03c2        	l8ui	a12, a3, 44
    926b:	2bc332        	addi	a3, a3, 43
    926e:	fdccc2        	addi	a12, a12, -3
    9271:	74c0c0        	extui	a12, a12, 0, 8
    9274:	91c9      	s32i.n	a12, a1, 36
    9276:	a0a920        	addx4	a10, a9, a2
    9279:	982aa2        	l32i	a10, a10, 0x260
    927c:	9acc      	bnez.n	a10, 0x9289
    927e:	0729f6        	bgeui	a9, 2, 0x9289
    9281:	991b      	addi.n	a9, a9, 1
    9283:	749090        	extui	a9, a9, 0, 8
    9286:	fffb06        	j	0x9276
    9289:	fea0a2        	movi	a10, 254
    928c:	0529f6        	bgeui	a9, 2, 0x9295
    928f:	1049a0        	and	a4, a9, a10
    9292:	5f          	.byte 0x5f
    9293:	739305        	call0	0x7cbc4
    9296:	190c      	movi.n	a9, 1
    9298:	5f          	.byte 0x5f
    9299:	8a2307        	blt	a3, a0, 0x9227
    929c:	698c      	beqz.n	a9, 0x92a6
    929e:	5f0b      	addi.n	a5, a15, -1
    92a0:	462204        	excw
    92a3:	fffb      	addi.n	a15, a15, 15
    92a5:	c07940        	sub	a7, a9, a4
    92a8:	5f          	.byte 0x5f
    92a9:	44ea05        	call0	0x4e14c
    92ac:	a73b      	addi.n	a10, a7, 3
    92ae:	0143a2        	s8i	a10, a3, 1
    92b1:	0203a2        	l8ui	a10, a3, 2
    92b4:	4acc      	bnez.n	a10, 0x92bc
    92b6:	01d2a2        	addmi	a10, a2, 0x100
    92b9:	160aa2        	l8ui	a10, a10, 22
    92bc:	044342        	s8i	a4, a3, 4
    92bf:	742081        	l32r	a8, 0xfffe6340
    92c2:	9a0b      	addi.n	a9, a10, -1
    92c4:	024392        	s8i	a9, a3, 2
    92c7:	3f2882        	l32i	a8, a8, 252
    92ca:	5f          	.byte 0x5f
    92cb:	ea8107        	bany	a1, a0, 0x92b9
    92ce:	5e          	.byte 0x5e
    92cf:	81a9      	s32i.n	a10, a1, 32
    92d1:	0203a2        	l8ui	a10, a3, 2
    92d4:	75a491        	l32r	a9, 0xfffe6964
    92d7:	5aec      	bnez.n	a10, 0x9300
    92d9:	1122c2        	l32i	a12, a2, 68
    92dc:	109c90        	and	a9, a12, a9
    92df:	04fc67        	bbsi	a12, 22, 0x92e7
    92e2:	81d8      	l32i.n	a13, a1, 32
    92e4:	2b1d56        	bnez	a13, 0x9599
    92e7:	c98c      	beqz.n	a9, 0x92f7
    92e9:	740081        	l32r	a8, 0xfffe62ec
    92ec:	f32882        	l32i	a8, a8, 0x3cc
    92ef:	5f          	.byte 0x5f
    92f0:	1bc906        	j	0x10218
    92f3:	1b0c      	movi.n	a11, 1
    92f5:	040392        	l8ui	a9, a3, 4
    92f8:	2099b0        	or	a9, a9, a11
    92fb:	00a846        	j	0x95a0
    92fe:	fea0c2        	movi	a12, 254
    9301:	0d0c      	movi.n	a13, 0
    9303:	0403a2        	l8ui	a10, a3, 4
    9306:	61d9      	s32i.n	a13, a1, 24
    9308:	10aac0        	and	a10, a10, a12
    930b:	0443a2        	s8i	a10, a3, 4
    930e:	51c8      	l32i.n	a12, a1, 20
    9310:	740081        	l32r	a8, 0xfffe6310
    9313:	91b8      	l32i.n	a11, a1, 36
    9315:	a73a      	add.n	a10, a7, a3
    9317:	aa5b      	addi.n	a10, a10, 5
    9319:	bb3a      	add.n	a11, a11, a3
    931b:	402882        	l32i	a8, a8, 0x100
    931e:	c0ccb0        	sub	a12, a12, a11
    9321:	bb5b      	addi.n	a11, a11, 5
    9323:	fbccc2        	addi	a12, a12, -5
    9326:	5f          	.byte 0x5f
    9327:	5c8105        	call0	0x65b38
    932a:	119776        	excw
    932d:	b39a      	add.n	a11, a3, a9
    932f:	a94a      	add.n	a10, a9, a4
    9331:	a0aa20        	addx4	a10, a10, a2
    9334:	991b      	addi.n	a9, a9, 1
    9336:	982aa2        	l32i	a10, a10, 0x260
    9339:	054ba2        	s8i	a10, a11, 5
    933c:	749090        	extui	a9, a9, 0, 8
    933f:	5f          	.byte 0x5f
    9340:	43a207        	bge	a2, a0, 0x9387
    9343:	373a      	add.n	a3, a7, a3
    9345:	142882        	l32i	a8, a8, 80
    9348:	335b      	addi.n	a3, a3, 5
    934a:	0008e0        	excw
    934d:	75a5b1        	l32r	a11, 0xfffe69e4
    9350:	5f          	.byte 0x5f
    9351:	f58106        	j	0x6959
    9354:	13a114        	excw
    9357:	412882        	l32i	a8, a8, 0x104
    935a:	5f          	.byte 0x5f
    935b:	32ce05        	call0	0x3c03c
    935e:	938b      	addi.n	a9, a3, 8
    9360:	9339a0        	movnez	a3, a9, a10
    9363:	2d2292        	l32i	a9, a2, 180
    9366:	ab2c      	movi.n	a11, 42
    9368:	201926        	beqi	a9, 1, 0x938c
    936b:	1d3926        	beqi	a9, 3, 0x938c
    936e:	1a5926        	beqi	a9, 5, 0x938c
    9371:	177926        	beqi	a9, 7, 0x938c
    9374:	0003a2        	l8ui	a10, a3, 0
    9377:	3e9ab7        	bne	a10, a11, 0x93b9
    937a:	4715b2        	l16ui	a11, a5, 142
    937d:	fdcbb2        	addi	a11, a11, -3
    9380:	8e45b2        	s8i	a11, a5, 142
    9383:	41b8b0        	srli	a11, a11, 8
    9386:	8f45b2        	s8i	a11, a5, 143
    9389:	000b06        	j	0x93b9
    938c:	0003c2        	l8ui	a12, a3, 0
    938f:	089cb7        	bne	a12, a11, 0x939b
    9392:	5606d2        	l8ui	a13, a6, 86
    9395:	0243d2        	s8i	a13, a3, 2
    9398:	0006c6        	j	0x93b7
    939b:	0043b2        	s8i	a11, a3, 0
    939e:	180c      	movi.n	a8, 1
    93a0:	014382        	s8i	a8, a3, 1
    93a3:	5606f2        	l8ui	a15, a6, 86
    93a6:	0243f2        	s8i	a15, a3, 2
    93a9:	4715e2        	l16ui	a14, a5, 142
    93ac:	ee3b      	addi.n	a14, a14, 3
    93ae:	8e45e2        	s8i	a14, a5, 142
    93b1:	41e8e0        	srli	a14, a14, 8
    93b4:	8f45e2        	s8i	a14, a5, 143
    93b7:	333b      	addi.n	a3, a3, 3
    93b9:	744341        	l32r	a4, 0xfffe64c8
    93bc:	03ad      	mov.n	a10, a3
    93be:	8d2482        	l32i	a8, a4, 0x234
    93c1:	58c6b2        	addi	a11, a6, 88
    93c4:	0008e0        	excw
    93c7:	520692        	l8ui	a9, a6, 82
    93ca:	0a3d      	mov.n	a3, a10
    93cc:	055f16        	beqz	a15, 0x9425
    93cf:	5f61a5        	excw
    93d2:	ec8107        	bany	a1, a0, 0x93c2
    93d5:	055f52        	s16i	a5, a15, 10
    93d8:	9239c5        	call0	0xfff9b778
    93db:	8c0001        	l32r	a0, 0xfffec3dc
    93de:	5fa9      	s32i.n	a10, a15, 20
    93e0:	902704        	excw
    93e3:	11b8      	l32i.n	a11, a1, 4
    93e5:	5f          	.byte 0x5f
    93e6:	27ae05        	call0	0x30ec8
    93e9:	5f          	.byte 0x5f
    93ea:	810a      	add.n	a8, a1, a0
    93ec:	5f01f6        	bgeui	a1, 0x8000, 0x944f
    93ef:	2009      	s32i.n	a0, a0, 8
    93f1:	add9      	s32i.n	a13, a13, 40
    93f3:	11b803        	excw
    93f6:	aea0c2        	movi	a12, 174
    93f9:	912482        	l32i	a8, a4, 0x244
    93fc:	c6ca      	add.n	a12, a6, a12
    93fe:	0008e0        	excw
    9401:	758191        	l32r	a9, 0xfffe6a08
    9404:	75a661        	l32r	a6, 0xfffe6a9c
    9407:	91c8      	l32i.n	a12, a1, 36
    9409:	4715b2        	l16ui	a11, a5, 142
    940c:	c0c7c0        	sub	a12, a7, a12
    940f:	bbca      	add.n	a11, a11, a12
    9411:	f4b0b0        	extui	a11, a11, 0, 16
    9414:	8e45b2        	s8i	a11, a5, 142
    9417:	055fb0        	extui	a5, a11, 31, 1
    941a:	02d277        	bbs	a2, a7, 0x9420
    941d:	677102        	excw
    9420:	4d6674        	excw
    9423:	ad5d      	excw
    9425:	b18b02        	excw
    9428:	090c      	movi.n	a9, 0
    942a:	222782        	l32i	a8, a7, 136
    942d:	2199      	s32i.n	a9, a1, 8
    942f:	0008e0        	excw
    9432:	4715b2        	l16ui	a11, a5, 142
    9435:	758191        	l32r	a9, 0xfffe6a3c
    9438:	c0bba0        	sub	a11, a11, a10
    943b:	21a8      	l32i.n	a10, a1, 8
    943d:	5f          	.byte 0x5f
    943e:	c82e07        	blt	a14, a0, 0x940a
    9441:	45c241        	l32r	a4, 0xfffdab4c
    9444:	8f          	.byte 0x8f
    9445:	5abc      	beqz.n	a10, 0x947e
    9447:	35d8      	l32i.n	a13, a5, 12
    9449:	b5c8      	l32i.n	a12, a5, 44
    944b:	10dd90        	and	a13, a13, a9
    944e:	10cc60        	and	a12, a12, a6
    9451:	2c45c2        	s8i	a12, a5, 44
    9454:	0c45d2        	s8i	a13, a5, 12
    9457:	41c8c0        	srli	a12, a12, 8
    945a:	41d8d0        	srli	a13, a13, 8
    945d:	0d45d2        	s8i	a13, a5, 13
    9460:	2d45c2        	s8i	a12, a5, 45
    9463:	41d8d0        	srli	a13, a13, 8
    9466:	045fc0        	extui	a5, a12, 15, 1
    9469:	d22e27        	blt	a14, a2, 0x943f
    946c:	5f0e45        	call0	0x68554
    946f:	1808      	l32i.n	a0, a8, 4
    9471:	0f          	.byte 0xf
    9472:	2f45c2        	s8i	a12, a5, 47
    9475:	ff6306        	j	0x9205
    9478:	1022d2        	l32i	a13, a2, 64
    947b:	517de7        	bbci	a13, 30, 0x94d0
    947e:	2425d2        	l32i	a13, a5, 144
    9481:	4ca232        	movi	a3, 0x24c
    9484:	323a      	add.n	a3, a2, a3
    9486:	ddba      	add.n	a13, a13, a11
    9488:	8003c2        	l8ui	a12, a3, 128
    948b:	41d9      	s32i.n	a13, a1, 16
    948d:	345c66        	bnei	a12, 5, 0x94c5
    9490:	5f          	.byte 0x5f
    9491:	12d605        	call0	0x1c1f4
    9494:	b222a2        	l32i	a10, a2, 0x2c8
    9497:	0008e0        	excw
    949a:	8003c2        	l8ui	a12, a3, 128
    949d:	0abd      	mov.n	a11, a10
    949f:	922482        	l32i	a8, a4, 0x248
    94a2:	41a8      	l32i.n	a10, a1, 16
    94a4:	5f          	.byte 0x5f
    94a5:	fa8106        	j	0x7ead
    94a8:	065f61        	l32r	a6, 0xfffcae24
    94ab:	5b0381        	l32r	a8, 0xfffe00b8
    94ae:	5f          	.byte 0x5f
    94af:	8108      	l32i.n	a0, a1, 32
    94b1:	2e          	.byte 0x2e
    94b2:	5f          	.byte 0x5f
    94b3:	008105        	call0	0x9cc4
    94b6:	8003c2        	l8ui	a12, a3, 128
    94b9:	000146        	j	0x94c2
    94bc:	ffdde2        	addmi	a14, a13, 0xffffff00
    94bf:	ff4ec2        	s8i	a12, a14, 255
    94c2:	fc0b      	addi.n	a15, a12, -1
    94c4:	8043f2        	s8i	a15, a3, 128
    94c7:	5f          	.byte 0x5f
    94c8:	43bc05        	call0	0x4d08c
    94cb:	02ad22        	movi	a2, 0xfffffd02
    94ce:	c1cb      	addi.n	a12, a1, 12
    94d0:	242592        	l32i	a9, a5, 144
    94d3:	212782        	l32i	a8, a7, 132
    94d6:	b9ba      	add.n	a11, a9, a11
    94d8:	5f          	.byte 0x5f
    94d9:	154a04        	excw
    94dc:	01b247        	bgeu	a2, a4, 0x94e1
    94df:	910c      	movi.n	a1, 9
    94e1:	ca7581        	l32r	a8, 0xffffbeb8
    94e4:	5fbb      	addi.n	a5, a15, 11
    94e6:	a83a04        	excw
    94e9:	45a241        	l32r	a4, 0xfffdab74
    94ec:	8f          	.byte 0x8f
    94ed:	81d8      	l32i.n	a13, a1, 32
    94ef:	7582c1        	l32r	a12, 0xfffe6af8
    94f2:	118b00        	slli	a8, a11, 16
    94f5:	b5f8      	l32i.n	a15, a5, 44
    94f7:	35e8      	l32i.n	a14, a5, 12
    94f9:	ab4b      	addi.n	a10, a11, 4
    94fb:	b4a0a0        	extui	a10, a10, 0, 12
    94fe:	10ee90        	and	a14, a14, a9
    9501:	10ff60        	and	a15, a15, a6
    9504:	1088c0        	and	a8, a8, a12
    9507:	20ffa0        	or	a15, a15, a10
    950a:	2c45f2        	s8i	a15, a5, 44
    950d:	20ee80        	or	a14, a14, a8
    9510:	0c45e2        	s8i	a14, a5, 12
    9513:	41f8f0        	srli	a15, a15, 8
    9516:	2d45f2        	s8i	a15, a5, 45
    9519:	5f          	.byte 0x5f
    951a:	118305        	call0	0x1ad4c
    951d:	5f0d      	excw
    951f:	2e0c05        	call0	0x375e0
    9522:	5f          	.byte 0x5f
    9523:	0e0c05        	call0	0x175e4
    9526:	5f          	.byte 0x5f
    9527:	2f0c05        	call0	0x385e8
    952a:	5f          	.byte 0x5f
    952b:	0f0c05        	call0	0x185ec
    952e:	9dec      	bnez.n	a13, 0x955b
    9530:	61b8      	l32i.n	a11, a1, 24
    9532:	190c      	movi.n	a9, 1
    9534:	6bcc      	bnez.n	a11, 0x953e
    9536:	9a22d2        	l32i	a13, a2, 0x268
    9539:	0c0c      	movi.n	a12, 0
    953b:	939cd0        	movnez	a9, a12, a13
    953e:	999c      	beqz.n	a9, 0x955b
    9540:	1122e2        	l32i	a14, a2, 68
    9543:	0b0c      	movi.n	a11, 0
    9545:	077e67        	bbci	a14, 22, 0x9550
    9548:	9a2282        	l32i	a8, a2, 0x268
    954b:	1f0c      	movi.n	a15, 1
    954d:	93bf80        	movnez	a11, a15, a8
    9550:	5f          	.byte 0x5f
    9551:	009905        	call0	0x9ee4
    9554:	065f40        	excw
    9557:	024885        	call0	0xb9e0
    955a:	f01d      	excw
    955c:	040392        	l8ui	a9, a3, 4
    955f:	fea0a2        	movi	a10, 254
    9562:	1099a0        	and	a9, a9, a10
    9565:	044392        	s8i	a9, a3, 4
    9568:	1c0c      	movi.n	a12, 1
    956a:	61c9      	s32i.n	a12, a1, 24
    956c:	5f58c6        	j	0x212d3
    956f:	7c8b06        	j	0x2879f
    9572:	030292        	l8ui	a9, a2, 3
    9575:	5f          	.byte 0x5f
    9576:	33bf05        	call0	0x3d168
    9579:	02ad42        	movi	a4, 0xfffffd02
    957c:	055f51        	l32r	a5, 0xfffcaaf8
    957f:	4299      	s32i.n	a9, a2, 16
    9581:	5f1825        	excw
    9584:	4fd505        	call0	0x592d8
    9587:	03bd      	mov.n	a11, a3
    9589:	5fa781        	l32r	a8, 0xfffe1428
    958c:	5fb205        	call0	0x690b0
    958f:	5f          	.byte 0x5f
    9590:	60f806        	j	0x21974
    9593:	660102        	l8ui	a0, a1, 102
    9596:	1319      	s32i.n	a1, a3, 4
    9598:	102426        	beqi	a4, 2, 0x95ac
    959b:	0202a2        	l8ui	a10, a2, 2
    959e:	5f3a66        	bnei	a10, 3, 0x9601
    95a1:	9d8106        	j	0xffff0ba9
    95a4:	095f34        	excw
    95a7:	3aae81        	l32r	a8, 0xfffd8060
    95aa:	5f1b      	addi.n	a5, a15, 1
    95ac:	3408      	l32i.n	a0, a4, 12
    95ae:	5f          	.byte 0x5f
    95af:	8209      	s32i.n	a0, a2, 32
    95b1:	a824a4        	excw
    95b4:	a23175        	excw
    95b7:	aa2175        	excw
    95ba:	a94175        	excw
    95bd:	428175        	excw
    95c0:	a7a174        	excw
    95c3:	289275        	excw
    95c6:	0a9910        	excw
    95c9:	106842        	s32i	a4, a8, 64
    95cc:	1329      	s32i.n	a2, a3, 4
    95ce:	1668b2        	s32i	a11, a8, 88
    95d1:	5f          	.byte 0x5f
    95d2:	60bd07        	bgeu	a13, a0, 0x9636
    95d5:	03bd      	mov.n	a11, a3
    95d7:	740c31        	l32r	a3, 0xfffe6608
    95da:	75ab81        	l32r	a8, 0xfffe6c88
    95dd:	0338      	l32i.n	a3, a3, 0
    95df:	0888      	l32i.n	a8, a8, 0
    95e1:	c338      	l32i.n	a3, a3, 48
    95e3:	0008e0        	excw
    95e6:	3388      	l32i.n	a8, a3, 12
    95e8:	c88c      	beqz.n	a8, 0x95f8
    95ea:	5f4081        	l32r	a8, 0xfffe12ec
    95ed:	76b005        	call0	0x800f0
    95f0:	22b226        	beqi	a2, 16, 0x9616
    95f3:	0a5f17        	bbc	a15, a1, 0x9601
    95f6:	00bc      	beqz.n	a0, 0x962a
    95f8:	75ac21        	l32r	a2, 0xfffe6ca8
    95fb:	5f3f31        	l32r	a3, 0xfffe12f8
    95fe:	482b04        	excw
    9601:	084943        	excw
    9604:	4329      	s32i.n	a2, a3, 16
    9606:	5f          	.byte 0x5f
    9607:	224005        	call0	0x2ba08
    960a:	0cc623        	excw
    960d:	228227        	bany	a2, a2, 0x9633
    9610:	423c      	movi.n	a2, 52
    9612:	179222        	l16si	a2, a2, 46
    9615:	05e8      	l32i.n	a14, a5, 0
    9617:	142292        	l32i	a9, a2, 80
    961a:	4c6927        	bbci	a9, 2, 0x966a
    961d:	75ad51        	l32r	a5, 0xfffe6cd4
    9620:	8c2492        	l32i	a9, a4, 0x230
    9623:	74d661        	l32r	a6, 0xfffe697c
    9626:	424926        	beqi	a9, 4, 0x966c
    9629:	3f5926        	beqi	a9, 5, 0x966c
    962c:	3224a2        	l32i	a10, a4, 200
    962f:	11ea17        	bbsi	a10, 1, 0x9644
    9632:	02a8      	l32i.n	a10, a2, 0
    9634:	0ceab7        	bbsi	a10, 11, 0x9644
    9637:	209a60        	or	a9, a10, a6
    963a:	1e2582        	l32i	a8, a5, 120
    963d:	03ad      	mov.n	a10, a3
    963f:	5f99      	s32i.n	a9, a15, 20
    9641:	6eae05        	call0	0x78124
    9644:	271422        	l16ui	a2, a4, 78
    9647:	176a      	add.n	a1, a7, a6
    9649:	3224b2        	l32i	a11, a4, 200
    964c:	03ad      	mov.n	a10, a3
    964e:	20bb70        	or	a11, a11, a7
    9651:	3264b2        	s32i	a11, a4, 200
    9654:	0298      	l32i.n	a9, a2, 0
    9656:	1e2582        	l32i	a8, a5, 120
    9659:	209960        	or	a9, a9, a6
    965c:	5f          	.byte 0x5f
    965d:	821e05        	call0	0xfff8b840
    9660:	5f6025        	excw
    9663:	09b905        	call0	0x131f4
    9666:	f01d      	excw
    9668:	03ad      	mov.n	a10, a3
    966a:	5f          	.byte 0x5f
    966b:	001917        	beq	a9, a1, 0x966f
    966e:	006136        	excw
    9671:	03bd      	mov.n	a11, a3
    9673:	590c      	movi.n	a9, 5
    9675:	02ad      	mov.n	a10, a2
    9677:	75ae81        	l32r	a8, 0xfffe6d30
    967a:	c62242        	l32i	a4, a2, 0x318
    967d:	0829      	s32i.n	a2, a8, 0
    967f:	922422        	l32i	a2, a4, 0x248
    9682:	5f          	.byte 0x5f
    9683:	fe8107        	bany	a1, a0, 0x9685
    9686:	336604        	excw
    9689:	1f          	.byte 0x1f
    968a:	75afa1        	l32r	a10, 0xfffe6d48
    968d:	bb7c      	movi.n	a11, -5
    968f:	75b0e1        	l32r	a14, 0xfffe6d50
    9692:	3222d2        	l32i	a13, a2, 200
    9695:	0c0c      	movi.n	a12, 0
    9697:	10dde0        	and	a13, a13, a14
    969a:	3262d2        	s32i	a13, a2, 200
    969d:	0498      	l32i.n	a9, a4, 0
    969f:	7764c2        	s32i	a12, a4, 0x1dc
    96a2:	5f          	.byte 0x5f
    96a3:	14e905        	call0	0x1e534
    96a6:	049910        	extui	a9, a1, 9, 1
    96a9:	8c22f2        	l32i	a15, a2, 0x230
    96ac:	0c1f66        	bnei	a15, 1, 0x96bc
    96af:	742581        	l32r	a8, 0xfffe6744
    96b2:	0a0c      	movi.n	a10, 0
    96b4:	b02882        	l32i	a8, a8, 0x2c0
    96b7:	5f          	.byte 0x5f
    96b8:	509605        	call0	0x5a01c
    96bb:	5f          	.byte 0x5f
    96bc:	14b606        	j	0xe998
    96bf:	75aec1        	l32r	a12, 0xfffe6d78
    96c2:	0c88      	l32i.n	a8, a12, 0
    96c4:	02ad      	mov.n	a10, a2
    96c6:	833830        	moveqz	a3, a8, a3
    96c9:	03bd      	mov.n	a11, a3
    96cb:	93cc      	bnez.n	a3, 0x96d8
    96cd:	5f          	.byte 0x5f
    96ce:	c80b      	addi.n	a12, a8, -1
    96d0:	5f8830        	excw
    96d3:	5e8207        	bany	a2, a0, 0x9735
    96d6:	004136        	excw
    96d9:	ec0c      	movi.n	a12, 14
    96db:	5d0c      	movi.n	a13, 5
    96dd:	5f          	.byte 0x5f
    96de:	088f05        	call0	0x11fd0
    96e1:	75ad21        	l32r	a2, 0xfffe6d98
    96e4:	242882        	l32i	a8, a8, 144
    96e7:	4722b2        	l32i	a11, a2, 0x11c
    96ea:	0008e0        	excw
    96ed:	75b181        	l32r	a8, 0xfffe6db4
    96f0:	4c22a2        	l32i	a10, a2, 0x130
    96f3:	7888      	l32i.n	a8, a8, 28
    96f5:	7b0c      	movi.n	a11, 7
    96f7:	5f          	.byte 0x5f
    96f8:	2809      	s32i.n	a0, a8, 8
    96fa:	75b2a1        	l32r	a10, 0xfffe6dc4
    96fd:	c62252        	l32i	a5, a2, 0x318
    9700:	740061        	l32r	a6, 0xfffe6700
    9703:	922532        	l32i	a3, a5, 0x248
    9706:	a02682        	l32i	a8, a6, 0x280
    9709:	3023b2        	l32i	a11, a3, 192
    970c:	0008e0        	excw
    970f:	75ad41        	l32r	a4, 0xfffe6dc4
    9712:	3023a2        	l32i	a10, a3, 192
    9715:	8d2392        	l32i	a9, a3, 0x234
    9718:	aa1b      	addi.n	a10, a10, 1
    971a:	3063a2        	s32i	a10, a3, 192
    971d:	0d2926        	beqi	a9, 2, 0x972e
    9720:	8c23a2        	l32i	a10, a3, 0x230
    9723:	074a26        	beqi	a10, 4, 0x972e
    9726:	045a26        	beqi	a10, 5, 0x972e
    9729:	0b0c      	movi.n	a11, 0
    972b:	3163b2        	s32i	a11, a3, 196
    972e:	3223a2        	l32i	a10, a3, 200
    9731:	ffabb2        	movi	a11, 0xfffffbff
    9734:	10aab0        	and	a10, a10, a11
    9737:	3263a2        	s32i	a10, a3, 200
    973a:	212926        	beqi	a9, 2, 0x975f
    973d:	7725c2        	l32i	a12, a5, 0x1dc
    9740:	1b9c26        	beqi	a12, 10, 0x975f
    9743:	186a17        	bbci	a10, 1, 0x975f
    9746:	9f2682        	l32i	a8, a6, 0x27c
    9749:	d97c      	movi.n	a9, -3
    974b:	109a90        	and	a9, a10, a9
    974e:	326392        	s32i	a9, a3, 200
    9751:	75b3a1        	l32r	a10, 0xfffe6e20
    9754:	0008e0        	excw
    9757:	5f2482        	l32i	a8, a4, 0x17c
    975a:	7d8306        	j	0x28d6a
    975d:	602482        	l32i	a8, a4, 0x180
    9760:	5f          	.byte 0x5f
    9761:	810c      	movi.n	a1, 8
    9763:	dd38b5        	excw
    9766:	04cd05        	call0	0xe438
    9769:	5f          	.byte 0x5f
    976a:	148205        	call0	0x1df8c
    976d:	c62262        	l32i	a6, a2, 0x318
    9770:	5f          	.byte 0x5f
    9771:	8e8107        	bany	a1, a0, 0x9703
    9774:	0a2d07        	blt	a13, a0, 0x9782
    9777:	d3cc      	bnez.n	a3, 0x9788
    9779:	3c2692        	l32i	a9, a6, 240
    977c:	745aa1        	l32r	a10, 0xfffe68e4
    977f:	056977        	bbci	a9, 7, 0x9788
    9782:	10a9a0        	and	a10, a9, a10
    9785:	3c66a2        	s32i	a10, a6, 240
    9788:	5f          	.byte 0x5f
    9789:	958206        	j	0xfffeed95
    978c:	4268      	l32i.n	a6, a2, 16
    978e:	42c622        	addi	a2, a6, 66
    9791:	829224        	excw
    9794:	168c24        	excw
    9797:	08c8      	l32i.n	a12, a8, 0
    9799:	fcc382        	addi	a8, a3, -4
    979c:	086816        	beqz	a8, 0x9826
    979f:	02ad      	mov.n	a10, a2
    97a1:	055f61        	l32r	a6, 0xfffcad20
    97a4:	260185        	call0	0x2f7c0
    97a7:	0c19      	s32i.n	a1, a12, 0
    97a9:	5f4c      	movi.n	a15, 69
    97ab:	03e005        	call0	0xd5ac
    97ae:	0c8d      	mov.n	a8, a12
    97b0:	660a      	add.n	a6, a6, a0
    97b2:	0e59      	s32i.n	a5, a14, 0
    97b4:	5fb481        	l32r	a8, 0xfffe1684
    97b7:	66b706        	j	0x23297
    97ba:	5f          	.byte 0x5f
    97bb:	7b8207        	bany	a2, a0, 0x983a
    97be:	019d      	mov.n	a9, a1
    97c0:	4c0c      	movi.n	a12, 4
    97c2:	8b0c      	movi.n	a11, 8
    97c4:	03ab76        	excw
    97c7:	09a9      	s32i.n	a10, a9, 0
    97c9:	994b      	addi.n	a9, a9, 4
    97cb:	20c192        	addi	a9, a1, 32
    97ce:	75b571        	l32r	a7, 0xfffe6ea4
    97d1:	75b651        	l32r	a5, 0xfffe6eac
    97d4:	5fac76        	excw
    97d7:	d21005        	call0	0xfffdb8d8
    97da:	16f9c3        	excw
    97dd:	0c4d      	mov.n	a4, a12
    97df:	3c8326        	beqi	a3, 8, 0x981f
    97e2:	f7c3e2        	addi	a14, a3, -9
    97e5:	0ebe16        	beqz	a14, 0x98d4
    97e8:	f6c3f2        	addi	a15, a3, -10
    97eb:	005f16        	beqz	a15, 0x97f4
    97ee:	0c0a      	add.n	a0, a12, a0
    97f0:	643205        	call0	0x6db14
    97f3:	8f          	.byte 0x8f
    97f4:	75b7a1        	l32r	a10, 0xfffe6ed0
    97f7:	5f0081        	l32r	a8, 0xfffe13f8
    97fa:	5fd205        	call0	0x6951c
    97fd:	5fc8a1        	l32r	a10, 0xfffe1720
    9800:	ac8106        	j	0xffff4a08
    9803:	7f          	.byte 0x7f
    9804:	1b0c      	movi.n	a11, 1
    9806:	5f          	.byte 0x5f
    9807:	6a08      	l32i.n	a0, a10, 24
    9809:	a5cc      	bnez.n	a5, 0x9817
    980b:	75ae81        	l32r	a8, 0xfffe6ec4
    980e:	5f          	.byte 0x5f
    980f:	8209      	s32i.n	a0, a2, 32
    9811:	018d      	mov.n	a8, a1
    9813:	f01d      	excw
    9815:	8c2492        	l32i	a9, a4, 0x230
    9818:	b5b8      	l32i.n	a11, a5, 44
    981a:	072966        	bnei	a9, 2, 0x9825
    981d:	da0c      	movi.n	a10, 13
    981f:	000be0        	excw
    9822:	000106        	j	0x982a
    9825:	fa0c      	movi.n	a10, 15
    9827:	000be0        	excw
    982a:	75b9a1        	l32r	a10, 0xfffe6f10
    982d:	75b8b1        	l32r	a11, 0xfffe6f10
    9830:	71b9      	s32i.n	a11, a1, 28
    9832:	61b9      	s32i.n	a11, a1, 24
    9834:	51b9      	s32i.n	a11, a1, 20
    9836:	41b9      	s32i.n	a11, a1, 16
    9838:	31a9      	s32i.n	a10, a1, 12
    983a:	21a9      	s32i.n	a10, a1, 8
    983c:	11a9      	s32i.n	a10, a1, 4
    983e:	01a9      	s32i.n	a10, a1, 0
    9840:	0020c0        	memw
    9843:	bba0a2        	movi	a10, 187
    9846:	75ba91        	l32r	a9, 0xfffe6f30
    9849:	7588      	l32i.n	a8, a5, 28
    984b:	f96792        	s32i	a9, a7, 0x3e4
    984e:	0008e0        	excw
    9851:	5588      	l32i.n	a8, a5, 20
    9853:	01ad      	mov.n	a10, a1
    9855:	5f          	.byte 0x5f
    9856:	1d9906        	j	0x10ebe
    9859:	5f          	.byte 0x5f
    985a:	ad3605        	call0	0xfffb6bbc
    985d:	558801        	l32r	a0, 0xfffdee80
    9860:	f97c      	movi.n	a9, -1
    9862:	2199      	s32i.n	a9, a1, 8
    9864:	3199      	s32i.n	a9, a1, 12
    9866:	4199      	s32i.n	a9, a1, 16
    9868:	5199      	s32i.n	a9, a1, 20
    986a:	6199      	s32i.n	a9, a1, 24
    986c:	5f          	.byte 0x5f
    986d:	558d05        	call0	0x5f140
    9870:	7588      	l32i.n	a8, a5, 28
    9872:	6a0c      	movi.n	a10, 6
    9874:	055fe0        	extui	a5, a14, 31, 1
    9877:	6eed      	excw
    9879:	ffa092        	movi	a9, 255
    987c:	f96792        	s32i	a9, a7, 0x3e4
    987f:	150c      	movi.n	a5, 1
    9881:	ffd6c6        	j	0x97e0
    9884:	055fa2        	s16i	a10, a15, 10
    9887:	c82a75        	excw
    988a:	5f          	.byte 0x5f
    988b:	467505        	call0	0x4ffdc
    988e:	88fff1        	l32r	a15, 0xfffebc8c
    9891:	da0cb5        	excw
    9894:	0008e0        	excw
    9897:	019d      	mov.n	a9, a1
    9899:	75bba1        	l32r	a10, 0xfffe6f88
    989c:	5f          	.byte 0x5f
    989d:	8109      	s32i.n	a0, a1, 32
    989f:	185f70        	excw
    98a2:	6f          	.byte 0x6f
    98a3:	5fee86        	j	0x21861
    98a6:	3008      	l32i.n	a0, a0, 12
    98a8:	5f          	.byte 0x5f
    98a9:	c67125        	excw
    98ac:	085fe2        	s16i	a14, a15, 16
    98af:	5cec81        	l32r	a8, 0xfffe0c60
    98b2:	75ae81        	l32r	a8, 0xfffe6f6c
    98b5:	c62232        	l32i	a3, a2, 0x318
    98b8:	5888      	l32i.n	a8, a8, 20
    98ba:	922332        	l32i	a3, a3, 0x248
    98bd:	0008e0        	excw
    98c0:	902392        	l32i	a9, a3, 0x240
    98c3:	02e917        	bbsi	a9, 1, 0x98c9
    98c6:	0c6947        	bbci	a9, 4, 0x98d6
    98c9:	5fad81        	l32r	a8, 0xfffe1780
    98cc:	33c705        	call0	0x3d540
    98cf:	055f17        	bbc	a15, a1, 0x98d8
    98d2:	5f33c7        	bltu	a3, a12, 0x9935
    98d5:	508406        	j	0x1dae9
    98d8:	c62292        	l32i	a9, a2, 0x318
    98db:	75aec1        	l32r	a12, 0xfffe6f94
    98de:	3c2982        	l32i	a8, a9, 240
    98e1:	922942        	l32i	a4, a9, 0x248
    98e4:	21e827        	bbsi	a8, 2, 0x9909
    98e7:	1429a2        	l32i	a10, a9, 80
    98ea:	1bea37        	bbsi	a10, 3, 0x9909
    98ed:	9024b2        	l32i	a11, a4, 0x240
    98f0:	15eb57        	bbsi	a11, 5, 0x9909
    98f3:	03bd      	mov.n	a11, a3
    98f5:	6c88      	l32i.n	a8, a12, 24
    98f7:	02ad      	mov.n	a10, a2
    98f9:	f97c      	movi.n	a9, -1
    98fb:	6b2422        	l32i	a2, a4, 0x1ac
    98fe:	6b6492        	s32i	a9, a4, 0x1ac
    9901:	0008e0        	excw
    9904:	6b6422        	s32i	a2, a4, 0x1ac
    9907:	f01d      	excw
    9909:	5f          	.byte 0x5f
    990a:	5f1606        	j	0x21566
    990d:	4009      	s32i.n	a0, a0, 16
    990f:	c622a2        	l32i	a10, a2, 0x318
    9912:	922a92        	l32i	a9, a10, 0x248
    9915:	8c2992        	l32i	a9, a9, 0x230
    9918:	024926        	beqi	a9, 4, 0x991e
    991b:	185966        	bnei	a9, 5, 0x9937
    991e:	740081        	l32r	a8, 0xfffe6920
    9921:	40a192        	movi	a9, 0x140
    9924:	6e2882        	l32i	a8, a8, 0x1b8
    9927:	aa9a      	add.n	a10, a10, a9
    9929:	0008e0        	excw
    992c:	75ad81        	l32r	a8, 0xfffe6fe0
    992f:	512882        	l32i	a8, a8, 0x144
    9932:	5f          	.byte 0x5f
    9933:	848206        	j	0xfffeab3f
    9936:	045b      	addi.n	a0, a4, 5
    9938:	5f          	.byte 0x5f
    9939:	0d8306        	j	0xcf49
    993c:	5f          	.byte 0x5f
    993d:	ff8106        	j	0x9745
    9940:	3e          	.byte 0x3e
    9941:	5f          	.byte 0x5f
    9942:	fc8107        	bany	a1, a0, 0x9942
    9945:	c62330        	excw
    9948:	922442        	l32i	a4, a4, 0x248
    994b:	902492        	l32i	a9, a4, 0x240
    994e:	692452        	l32i	a5, a4, 0x1a4
    9951:	026957        	bbci	a9, 5, 0x9957
    9954:	7f2452        	l32i	a5, a4, 0x1fc
    9957:	5f          	.byte 0x5f
    9958:	278105        	call0	0x3116c
    995b:	1e          	.byte 0x1e
    995c:	512482        	l32i	a8, a4, 0x144
    995f:	94a8      	l32i.n	a10, a4, 36
    9961:	0d3857        	bltu	a8, a5, 0x9972
    9964:	094c      	movi.n	a9, 64
    9966:	209a90        	or	a9, a10, a9
    9969:	9499      	s32i.n	a9, a4, 36
    996b:	0a0c      	movi.n	a10, 0
    996d:	5164a2        	s32i	a10, a4, 0x144
    9970:	f01d      	excw
    9972:	bfaf92        	movi	a9, -65
    9975:	109a90        	and	a9, a10, a9
    9978:	fffb46        	j	0x9969
    997b:	5f          	.byte 0x5f
    997c:	5f4906        	j	0x216a4
    997f:	b18106        	j	0xffff5f87
    9982:	645261        	l32r	a6, 0xfffe2acc
    9985:	7f          	.byte 0x7f
    9986:	5f          	.byte 0x5f
    9987:	8109      	s32i.n	a0, a1, 32
    9989:	3108      	l32i.n	a0, a1, 12
    998b:	75ad      	excw
    998d:	922a92        	l32i	a9, a10, 0x248
    9990:	bd7c      	movi.n	a13, -5
    9992:	902982        	l32i	a8, a9, 0x240
    9995:	ddaff2        	movi	a15, -35
    9998:	386827        	bbci	a8, 2, 0x99d4
    999b:	3229e2        	l32i	a14, a9, 200
    999e:	742881        	l32r	a8, 0xfffe6a40
    99a1:	10eef0        	and	a14, a14, a15
    99a4:	3269e2        	s32i	a14, a9, 200
    99a7:	0ac8      	l32i.n	a12, a10, 0
    99a9:	3c2ab2        	l32i	a11, a10, 240
    99ac:	10ccd0        	and	a12, a12, a13
    99af:	0ac9      	s32i.n	a12, a10, 0
    99b1:	076b07        	bbci	a11, 0, 0x99bc
    99b4:	5f          	.byte 0x5f
    99b5:	f808      	l32i.n	a0, a8, 60
    99b7:	238273        	excw
    99ba:	bcc114        	excw
    99bd:	290c75        	excw
    99c0:	209b90        	or	a9, a11, a9
    99c3:	1099c0        	and	a9, a9, a12
    99c6:	0b0c      	movi.n	a11, 0
    99c8:	3c6a92        	s32i	a9, a10, 240
    99cb:	5f          	.byte 0x5f
    99cc:	008606        	j	0x9be8
    99cf:	0d5f23        	excw
    99d2:	820086        	j	0xfffea1d8
    99d5:	adc622        	addi	a2, a6, -83
    99d8:	282202        	l32i	a0, a2, 160
    99db:	088892        	excw
    99de:	472232        	l32i	a3, a2, 0x11c
    99e1:	0468b7        	bbci	a8, 11, 0x99e9
    99e4:	090c      	movi.n	a9, 0
    99e6:	476292        	s32i	a9, a2, 0x11c
    99e9:	5fae81        	l32r	a8, 0xfffe18a4
    99ec:	7dcc06        	j	0x29120
    99ef:	476232        	s32i	a3, a2, 0x11c
    99f2:	5f          	.byte 0x5f
    99f3:	cc09      	s32i.n	a0, a12, 48
    99f5:	a078      	l32i.n	a7, a0, 40
    99f7:	225264        	excw
    99fa:	af81c6        	j	0xffff5805
    99fd:	253275        	excw
    9a00:	054892        	s8i	a9, a8, 5
    9a03:	442332        	l32i	a3, a3, 0x110
    9a06:	104480        	and	a4, a4, a8
    9a09:	0549      	s32i.n	a4, a5, 0
    9a0b:	753830        	extui	a3, a3, 24, 8
    9a0e:	833930        	moveqz	a3, a9, a3
    9a11:	740041        	l32r	a4, 0xfffe6a14
    9a14:	75bd51        	l32r	a5, 0xfffe7108
    9a17:	6e2482        	l32i	a8, a4, 0x1b8
    9a1a:	5f          	.byte 0x5f
    9a1b:	0bb705        	call0	0x1558c
    9a1e:	03cd      	mov.n	a12, a3
    9a20:	05ad      	mov.n	a10, a5
    9a22:	0b0c      	movi.n	a11, 0
    9a24:	5f2482        	l32i	a8, a4, 0x17c
    9a27:	6ecd06        	j	0x2555f
    9a2a:	5f          	.byte 0x5f
    9a2b:	5f4b04        	excw
    9a2e:	22b306        	j	0x124fe
    9a31:	5f          	.byte 0x5f
    9a32:	4c8107        	bany	a1, a0, 0x9a82
    9a35:	22c623        	excw
    9a38:	922a      	add.n	a9, a2, a2
    9a3a:	902282        	l32i	a8, a2, 0x240
    9a3d:	246827        	bbci	a8, 2, 0x9a65
    9a40:	5f          	.byte 0x5f
    9a41:	0fc705        	call0	0x196b4
    9a44:	6e          	.byte 0x6e
    9a45:	34caa2        	addi	a10, a10, 52
    9a48:	5f          	.byte 0x5f
    9a49:	4ab905        	call0	0x545dc
    9a4c:	248230        	extui	a8, a3, 2, 3
    9a4f:	bea1a0        	excw
    9a52:	5f          	.byte 0x5f
    9a53:	3ce805        	call0	0x468d4
    9a56:	ad7411        	l32r	a1, 0xffff5028
    9a59:	288203        	excw
    9a5c:	5b0c14        	excw
    9a5f:	5f          	.byte 0x5f
    9a60:	8208      	l32i.n	a0, a2, 32
    9a62:	5f68      	l32i.n	a6, a15, 20
    9a64:	8909      	s32i.n	a0, a9, 32
    9a66:	075f46        	j	0xb7e7
    9a69:	24b281        	l32r	a8, 0xfffd2d34
    9a6c:	2532c6        	j	0x12f3b
    9a6f:	070c92        	l8ui	a9, a12, 7
    9a72:	306372        	s32i	a7, a3, 192
    9a75:	740061        	l32r	a6, 0xfffe6a78
    9a78:	7490a1        	l32r	a10, 0xfffe6cb8
    9a7b:	0020c0        	memw
    9a7e:	b97c      	movi.n	a9, -5
    9a80:	d4a042        	movi	a4, 212
    9a83:	982aa2        	l32i	a10, a10, 0x260
    9a86:	3463a2        	s32i	a10, a3, 208
    9a89:	0588      	l32i.n	a8, a5, 0
    9a8b:	434a      	add.n	a4, a3, a4
    9a8d:	108890        	and	a8, a8, a9
    9a90:	0589      	s32i.n	a8, a5, 0
    9a92:	6e2682        	l32i	a8, a6, 0x1b8
    9a95:	5f          	.byte 0x5f
    9a96:	8108      	l32i.n	a0, a1, 32
    9a98:	0b2bc4        	excw
    9a9b:	4623c2        	l32i	a12, a3, 0x118
    9a9e:	5f2682        	l32i	a8, a6, 0x17c
    9aa1:	138106        	j	0xe8a9
    9aa4:	6e2682        	l32i	a8, a6, 0x1b8
    9aa7:	75bda1        	l32r	a10, 0xfffe719c
    9aaa:	5f          	.byte 0x5f
    9aab:	7ada05        	call0	0x8484c
    9aae:	413c      	movi.n	a1, 52
    9ab0:	75ad      	excw
    9ab2:	4f69a7        	bbci	a9, 10, 0x9b05
    9ab5:	8d23a2        	l32i	a10, a3, 0x234
    9ab8:	8c2392        	l32i	a9, a3, 0x230
    9abb:	582a26        	beqi	a10, 2, 0x9b17
    9abe:	554926        	beqi	a9, 4, 0x9b17
    9ac1:	525926        	beqi	a9, 5, 0x9b17
    9ac4:	4423b2        	l32i	a11, a3, 0x110
    9ac7:	086b37        	bbci	a11, 3, 0x9ad3
    9aca:	02ad      	mov.n	a10, a2
    9acc:	2488      	l32i.n	a8, a4, 8
    9ace:	3b0c      	movi.n	a11, 3
    9ad0:	0008e0        	excw
    9ad3:	75bf91        	l32r	a9, 0xfffe71d0
    9ad6:	0998      	l32i.n	a9, a9, 0
    9ad8:	5f6957        	bbci	a9, 5, 0x9b3b
    9adb:	5f1106        	j	0x21723
    9ade:	54e305        	call0	0x5e910
    9ae1:	e73c25        	excw
    9ae4:	0969      	s32i.n	a6, a9, 0
    9ae6:	5f          	.byte 0x5f
    9ae7:	880a      	add.n	a8, a8, a0
    9ae9:	5f49      	s32i.n	a4, a15, 20
    9aeb:	4ddb05        	call0	0x5789c
    9aee:	055f74        	excw
    9af1:	5f99      	s32i.n	a9, a15, 20
    9af3:	336372        	s32i	a7, a3, 204
    9af6:	0001c6        	j	0x9b01
    9af9:	5f2482        	l32i	a8, a4, 0x17c
    9afc:	9d8106        	j	0xffff1104
    9aff:	5f2c      	movi.n	a15, 37
    9b01:	230c      	movi.n	a3, 2
    9b03:	5f          	.byte 0x5f
    9b04:	c63c07        	bltu	a12, a0, 0x9ace
    9b07:	5feb      	addi.n	a5, a15, 14
    9b09:	00ff07        	bbsi	a15, 16, 0x9b0d
    9b0c:	3275c0        	excw
    9b0f:	5f          	.byte 0x5f
    9b10:	6c8905        	call0	0x763a4
    9b13:	922342        	l32i	a4, a3, 0x248
    9b16:	a02682        	l32i	a8, a6, 0x280
    9b19:	b4b8      	l32i.n	a11, a4, 44
    9b1b:	5f          	.byte 0x5f
    9b1c:	328d06        	j	0x16554
    9b1f:	75ad51        	l32r	a5, 0xfffe71d4
    9b22:	682966        	bnei	a9, 2, 0x9b8e
    9b25:	142392        	l32i	a9, a3, 80
    9b28:	626917        	bbci	a9, 1, 0x9b8e
    9b2b:	3f23a2        	l32i	a10, a3, 252
    9b2e:	026a66        	bnei	a10, 6, 0x9b34
    9b31:	096967        	bbci	a9, 6, 0x9b3e
    9b34:	5f2582        	l32i	a8, a5, 0x17c
    9b37:	4708      	l32i.n	a0, a7, 16
    9b39:	e8a3b2        	movi	a11, 0x3e8
    9b3c:	1e2472        	l32i	a7, a4, 120
    9b3f:	1d24a2        	l32i	a10, a4, 116
    9b42:	71a2c2        	movi	a12, 0x271
    9b45:	80aa70        	add	a10, a10, a7
    9b48:	82aac0        	mull	a10, a10, a12
    9b4b:	02d225        	excw
    9b4e:	20c770        	or	a12, a7, a7
    9b51:	0abd      	mov.n	a11, a10
    9b53:	a12682        	l32i	a8, a6, 0x284
    9b56:	75c1a1        	l32r	a10, 0xfffe725c
    9b59:	0008e0        	excw
    9b5c:	6cc372        	addi	a7, a3, 108
    9b5f:	6e2682        	l32i	a8, a6, 0x1b8
    9b62:	07ad      	mov.n	a10, a7
    9b64:	0008e0        	excw
    9b67:	e8a3b2        	movi	a11, 0x3e8
    9b6a:	085fd2        	s16i	a13, a15, 16
    9b6d:	2e          	.byte 0x2e
    9b6e:	aada      	add.n	a10, a10, a13
    9b70:	5f          	.byte 0x5f
    9b71:	cf2d04        	excw
    9b74:	0b0c02        	l8ui	a0, a12, 11
    9b77:	0d0c      	movi.n	a13, 0
    9b79:	0acd      	mov.n	a12, a10
    9b7b:	6d2682        	l32i	a8, a6, 0x1b4
    9b7e:	5f          	.byte 0x5f
    9b7f:	922205        	call0	0xfff9bda0
    9b82:	a28c24        	excw
    9b85:	268b24        	excw
    9b88:	2849      	s32i.n	a4, a8, 8
    9b8a:	255926        	beqi	a9, 5, 0x9bb3
    9b8d:	3c2392        	l32i	a9, a3, 240
    9b90:	15e9a7        	bbsi	a9, 10, 0x9ba9
    9b93:	12fa07        	bbsi	a10, 16, 0x9ba9
    9b96:	292582        	l32i	a8, a5, 164
    9b99:	5f          	.byte 0x5f
    9b9a:	3abd06        	j	0x18692
    9b9d:	5f0001        	l32r	a0, 0xfffe17a0
    9ba0:	0b08      	l32i.n	a0, a11, 0
    9ba2:	5f          	.byte 0x5f
    9ba3:	810a      	add.n	a8, a1, a0
    9ba5:	045f02        	s16i	a0, a15, 8
    9ba8:	e76926        	beqi	a9, 6, 0x9b93
    9bab:	5f          	.byte 0x5f
    9bac:	8e8106        	j	0xfffed5b4
    9baf:	858854        	excw
    9bb2:	5f          	.byte 0x5f
    9bb3:	03d005        	call0	0xd8b4
    9bb6:	1d24a2        	l32i	a10, a4, 116
    9bb9:	b478      	l32i.n	a7, a4, 44
    9bbb:	71a2b2        	movi	a11, 0x271
    9bbe:	912382        	l32i	a8, a3, 0x244
    9bc1:	1e2492        	l32i	a9, a4, 120
    9bc4:	5cc432        	addi	a3, a4, 92
    9bc7:	8299b0        	mull	a9, a9, a11
    9bca:	77aa      	add.n	a7, a7, a10
    9bcc:	779a      	add.n	a7, a7, a9
    9bce:	c07780        	sub	a7, a7, a8
    9bd1:	5f2682        	l32i	a8, a6, 0x17c
    9bd4:	02d206        	j	0xa720
    9bd7:	75b681        	l32r	a8, 0xfffe72b0
    9bda:	142882        	l32i	a8, a8, 80
    9bdd:	5f          	.byte 0x5f
    9bde:	62fc06        	j	0x227d2
    9be1:	a00d      	excw
    9be3:	82c0c7        	bnall	a0, a12, 0x9b69
    9be6:	ad6d26        	beqi	a13, 6, 0x9b97
    9be9:	cac003        	excw
    9bec:	08e041        	l32r	a4, 0xfffcbf6c
    9bef:	e84600        	excw
    9bf2:	5f          	.byte 0x5f
    9bf3:	6c9e05        	call0	0x765d4
    9bf6:	c62292        	l32i	a9, a2, 0x318
    9bf9:	922992        	l32i	a9, a9, 0x248
    9bfc:	5f2992        	l32i	a9, a9, 0x17c
    9bff:	4e8706        	j	0x1d61f
    9c02:	8109      	s32i.n	a0, a1, 32
    9c04:	ae          	.byte 0xae
    9c05:	075f75        	excw
    9c08:	5f78a1        	l32r	a10, 0xfffe19e8
    9c0b:	d209      	s32i.n	a0, a2, 52
    9c0d:	660160        	excw
    9c10:	1128      	l32i.n	a2, a1, 4
    9c12:	02ad      	mov.n	a10, a2
    9c14:	75c281        	l32r	a8, 0xfffe731c
    9c17:	03bd      	mov.n	a11, a3
    9c19:	6888      	l32i.n	a8, a8, 24
    9c1b:	5f          	.byte 0x5f
    9c1c:	628f05        	call0	0x6c510
    9c1f:	020c      	movi.n	a2, 0
    9c21:	f01d      	excw
    9c23:	5f          	.byte 0x5f
    9c24:	3ee005        	call0	0x48a28
    9c27:	5f19      	s32i.n	a1, a15, 20
    9c29:	072a05        	call0	0x10ecc
    9c2c:	15ea      	add.n	a1, a5, a14
    9c2e:	75ad31        	l32r	a3, 0xfffe72e4
    9c31:	c3e8      	l32i.n	a14, a3, 48
    9c33:	1f3466        	bnei	a4, 3, 0x9c56
    9c36:	5f          	.byte 0x5f
    9c37:	ac8106        	j	0xffff4e3f
    9c3a:	0d0c57        	bnone	a12, a5, 0x9c4b
    9c3d:	000ee0        	excw
    9c40:	5f0706        	j	0x21860
    9c43:	8709      	s32i.n	a0, a7, 32
    9c45:	065f20        	excw
    9c48:	53d9      	s32i.n	a13, a3, 20
    9c4a:	5f          	.byte 0x5f
    9c4b:	2cbb06        	j	0x14f3b
    9c4e:	1b0c      	movi.n	a11, 1
    9c50:	5f          	.byte 0x5f
    9c51:	5f2007        	blt	a0, a0, 0x9cb4
    9c54:	8608      	l32i.n	a0, a6, 32
    9c56:	ebc610        	excw
    9c59:	ff          	.byte 0xff
    9c5a:	613600        	excw
    9c5d:	c3a100        	excw
    9c60:	03bd75        	excw
    9c63:	590c      	movi.n	a9, 5
    9c65:	c62262        	l32i	a6, a2, 0x318
    9c68:	740081        	l32r	a8, 0xfffe6c68
    9c6b:	922652        	l32i	a5, a6, 0x248
    9c6e:	a02882        	l32i	a8, a8, 0x280
    9c71:	5f          	.byte 0x5f
    9c72:	248e05        	call0	0x2e554
    9c75:	070c      	movi.n	a7, 0
    9c77:	75ad41        	l32r	a4, 0xfffe732c
    9c7a:	2f2366        	bnei	a3, 2, 0x9cad
    9c7d:	5e2482        	l32i	a8, a4, 0x178
    9c80:	5f          	.byte 0x5f
    9c81:	6ce207        	bbsi	a2, 0, 0x9cf1
    9c84:	3109      	s32i.n	a0, a1, 12
    9c86:	827441        	l32r	a4, 0xfffea658
    9c89:	065f23        	excw
    9c8c:	166983        	excw
    9c8f:	085a      	add.n	a0, a8, a5
    9c91:	5f          	.byte 0x5f
    9c92:	0b08      	l32i.n	a0, a11, 0
    9c94:	5f          	.byte 0x5f
    9c95:	820c      	movi.n	a2, 8
    9c97:	065f81        	l32r	a8, 0xfffcb614
    9c9a:	001c      	movi.n	a0, 16
    9c9c:	5f2482        	l32i	a8, a4, 0x17c
    9c9f:	998106        	j	0xffff02a7
    9ca2:	2e          	.byte 0x2e
    9ca3:	061a16        	beqz	a10, 0x9d08
    9ca6:	3c26a2        	l32i	a10, a6, 240
    9ca9:	5b7a47        	bbci	a10, 20, 0x9d08
    9cac:	8c2592        	l32i	a9, a5, 0x230
    9caf:	184926        	beqi	a9, 4, 0x9ccb
    9cb2:	155926        	beqi	a9, 5, 0x9ccb
    9cb5:	281966        	bnei	a9, 1, 0x9ce1
    9cb8:	5a2482        	l32i	a8, a4, 0x168
    9cbb:	5f          	.byte 0x5f
    9cbc:	288407        	bany	a4, a0, 0x9ce8
    9cbf:	5f          	.byte 0x5f
    9cc0:	908106        	j	0xfffedec8
    9cc3:	c66b      	addi.n	a12, a6, 6
    9cc5:	095f03        	excw
    9cc8:	5f0b      	addi.n	a5, a15, -1
    9cca:	1b08      	l32i.n	a0, a11, 4
    9ccc:	3c26a2        	l32i	a10, a6, 240
    9ccf:	8c2592        	l32i	a9, a5, 0x230
    9cd2:	75c4b1        	l32r	a11, 0xfffe73e4
    9cd5:	786572        	s32i	a7, a5, 0x1e0
    9cd8:	10bab0        	and	a11, a10, a11
    9cdb:	3c66b2        	s32i	a11, a6, 240
    9cde:	5f          	.byte 0x5f
    9cdf:	0d8905        	call0	0x17570
    9ce2:	5f          	.byte 0x5f
    9ce3:	0e          	.byte 0xe
    9ce4:	8f          	.byte 0x8f
    9ce5:	5f0b      	addi.n	a5, a15, -1
    9ce7:	840a      	add.n	a8, a4, a0
    9ce9:	0c68      	l32i.n	a6, a12, 0
    9ceb:	8c09      	s32i.n	a0, a12, 32
    9ced:	5f49      	s32i.n	a4, a15, 20
    9cef:	196204        	excw
    9cf2:	26a2f3        	excw
    9cf5:	273c      	movi.n	a7, 50
    9cf7:	0b6a      	add.n	a0, a11, a6
    9cf9:	02ad      	mov.n	a10, a2
    9cfb:	3b0c      	movi.n	a11, 3
    9cfd:	162482        	l32i	a8, a4, 88
    9d00:	5f          	.byte 0x5f
    9d01:	69e007        	bbsi	a0, 0, 0x9d6e
    9d04:	5f          	.byte 0x5f
    9d05:	498906        	j	0x1c32d
    9d08:	5f          	.byte 0x5f
    9d09:	1a3c05        	call0	0x240cc
    9d0c:	5f          	.byte 0x5f
    9d0d:	3c08      	l32i.n	a0, a12, 12
    9d0f:	e488      	l32i.n	a8, a4, 56
    9d11:	5f          	.byte 0x5f
    9d12:	149207        	bne	a2, a0, 0x9d2a
    9d15:	5f2482        	l32i	a8, a4, 0x17c
    9d18:	3c8a06        	j	0x18f44
    9d1b:	3c26a2        	l32i	a10, a6, 240
    9d1e:	0bfa47        	bbsi	a10, 20, 0x9d2d
    9d21:	75c591        	l32r	a9, 0xfffe7438
    9d24:	209a90        	or	a9, a10, a9
    9d27:	3c6692        	s32i	a9, a6, 240
    9d2a:	786572        	s32i	a7, a5, 0x1e0
    9d2d:	5f          	.byte 0x5f
    9d2e:	810b      	addi.n	a8, a1, -1
    9d30:	5f9433        	excw
    9d33:	810a      	add.n	a8, a1, a0
    9d35:	5f5733        	excw
    9d38:	699e06        	j	0x243b4
    9d3b:	92ffe0        	excw
    9d3e:	f67925        	excw
    9d41:	1239      	s32i.n	a3, a2, 4
    9d43:	5f          	.byte 0x5f
    9d44:	061910        	excw
    9d47:	ffda      	add.n	a15, a15, a13
    9d49:	5f          	.byte 0x5f
    9d4a:	810a      	add.n	a8, a1, a0
    9d4c:	594c      	movi.n	a9, 69
    9d4e:	5f          	.byte 0x5f
    9d4f:	d52c06        	j	0xfffff203
    9d52:	5f          	.byte 0x5f
    9d53:	7c8506        	j	0x28f6b
    9d56:	c62232        	l32i	a3, a2, 0x318
    9d59:	3c23c2        	l32i	a12, a3, 240
    9d5c:	44fc67        	bbsi	a12, 22, 0x9da4
    9d5f:	7023b2        	l32i	a11, a3, 0x1c0
    9d62:	cbcc      	bnez.n	a11, 0x9d72
    9d64:	5f          	.byte 0x5f
    9d65:	810b      	addi.n	a8, a1, -1
    9d67:	062782        	l32i	a8, a7, 24
    9d6a:	0b0001        	l32r	a0, 0xfffcc96c
    9d6d:	b2bb      	addi.n	a11, a2, 11
    9d6f:	dc7063        	excw
    9d72:	5fdb      	addi.n	a5, a15, 13
    9d74:	9f0b      	addi.n	a9, a15, -1
    9d76:	e05c37        	bbc	a12, a3, 0x9d5a
    9d79:	0008      	l32i.n	a0, a0, 0
    9d7b:	75c681        	l32r	a8, 0xfffe7494
    9d7e:	6888      	l32i.n	a8, a8, 24
    9d80:	0a0c      	movi.n	a10, 0
    9d82:	0008e0        	excw
    9d85:	3c23c2        	l32i	a12, a3, 240
    9d88:	7023b2        	l32i	a11, a3, 0x1c0
    9d8b:	5f          	.byte 0x5f
    9d8c:	4a9905        	call0	0x54720
    9d8f:	c7a1a1        	l32r	a10, 0xffffbc14
    9d92:	5f          	.byte 0x5f
    9d93:	54da06        	j	0x1f0ff
    9d96:	5f          	.byte 0x5f
    9d97:	8c09      	s32i.n	a0, a12, 32
    9d99:	2218      	l32i.n	a1, a2, 8
    9d9b:	88c622        	addi	a2, a6, -120
    9d9e:	22d8      	l32i.n	a13, a2, 8
    9da0:	5f9222        	l16si	a2, a2, 190
    9da3:	2a9905        	call0	0x34734
    9da6:	0b0c      	movi.n	a11, 0
    9da8:	0c0c      	movi.n	a12, 0
    9daa:	01d2a2        	addmi	a10, a2, 0x100
    9dad:	1d0c      	movi.n	a13, 1
    9daf:	b04ad2        	s8i	a13, a10, 176
    9db2:	b14ac2        	s8i	a12, a10, 177
    9db5:	b24ab2        	s8i	a11, a10, 178
    9db8:	b34a92        	s8i	a9, a10, 179
    9dbb:	5f          	.byte 0x5f
    9dbc:	d28106        	j	0xffffe7c4
    9dbf:	ae1c      	movi.n	a14, 26
    9dc1:	02ad75        	excw
    9dc4:	e888      	l32i.n	a8, a8, 56
    9dc6:	5f          	.byte 0x5f
    9dc7:	8109      	s32i.n	a0, a1, 32
    9dc9:	03ad      	mov.n	a10, a3
    9dcb:	5f          	.byte 0x5f
    9dcc:	648a07        	bany	a10, a0, 0x9e34
    9dcf:	922aa2        	l32i	a10, a10, 0x248
    9dd2:	8c2a92        	l32i	a9, a10, 0x230
    9dd5:	8b2ab2        	l32i	a11, a10, 0x22c
    9dd8:	5f          	.byte 0x5f
    9dd9:	268205        	call0	0x305fc
    9ddc:	fb9702        	l16si	a0, a7, 0x1f6
    9ddf:	5f0b      	addi.n	a5, a15, -1
    9de1:	378406        	j	0x17bf5
    9de4:	5f          	.byte 0x5f
    9de5:	908206        	j	0xfffedff1
    9de8:	5f69      	s32i.n	a6, a15, 20
    9dea:	3cdf07        	bbs	a15, a0, 0x9e2a
    9ded:	5f          	.byte 0x5f
    9dee:	9209      	s32i.n	a0, a2, 36
    9df0:	222244        	excw
    9df3:	2882c6        	j	0x14002
    9df6:	222210        	excw
    9df9:	055f92        	s16i	a9, a15, 10
    9dfc:	821f84        	excw
    9dff:	668c22        	excw
    9e02:	5f18      	l32i.n	a1, a15, 20
    9e04:	209212        	l16si	a1, a2, 64
    9e07:	420061        	l32r	a6, 0xfffda608
    9e0a:	d1c622        	addi	a2, a6, -47
    9e0d:	745a      	add.n	a7, a4, a5
    9e0f:	3c24a2        	l32i	a10, a4, 240
    9e12:	922452        	l32i	a5, a4, 0x248
    9e15:	048ea0        	extui	a8, a10, 14, 1
    9e18:	0b1816        	beqz	a8, 0x9ecd
    9e1b:	75ad61        	l32r	a6, 0xfffe74d0
    9e1e:	75c8c1        	l32r	a12, 0xfffe7540
    9e21:	740071        	l32r	a7, 0xfffe6e24
    9e24:	7724e2        	l32i	a14, a4, 0x1dc
    9e27:	7490b1        	l32r	a11, 0xfffe7068
    9e2a:	f7cef2        	addi	a15, a14, -9
    9e2d:	09ef16        	beqz	a15, 0x9ecf
    9e30:	0e9e26        	beqi	a14, 10, 0x9e42
    9e33:	5f          	.byte 0x5f
    9e34:	168105        	call0	0x20648
    9e37:	5f2882        	l32i	a8, a8, 0x17c
    9e3a:	af8206        	j	0xffff5c46
    9e3d:	f01d43        	excw
    9e40:	10fad0        	and	a15, a10, a13
    9e43:	3c64f2        	s32i	a15, a4, 240
    9e46:	342592        	l32i	a9, a5, 208
    9e49:	0020c0        	memw
    9e4c:	982b82        	l32i	a8, a11, 0x260
    9e4f:	462532        	l32i	a3, a5, 0x118
    9e52:	e8a3e2        	movi	a14, 0x3e8
    9e55:	8233e0        	mull	a3, a3, a14
    9e58:	c08890        	sub	a8, a8, a9
    9e5b:	c03380        	sub	a3, a3, a8
    9e5e:	33ca      	add.n	a3, a3, a12
    9e60:	0043d6        	bgez	a3, 0x9e68
    9e63:	030c      	movi.n	a3, 0
    9e65:	000086        	j	0x9e6b
    9e68:	213a30        	srai	a3, a3, 10
    9e6b:	c3ab      	addi.n	a12, a3, 10
    9e6d:	02ad      	mov.n	a10, a2
    9e6f:	4e2682        	l32i	a8, a6, 0x138
    9e72:	5f          	.byte 0x5f
    9e73:	dd8106        	j	0x147b
    9e76:	a20361        	l32r	a6, 0xffff2684
    9e79:	8224a2        	l32i	a10, a4, 0x208
    9e7c:	aa6e27        	bbci	a14, 2, 0x9e2a
    9e7f:	08e0a4        	excw
    9e82:	643200        	extui	a3, a0, 2, 7
    9e85:	268277        	bany	a2, a7, 0x9eaf
    9e88:	5f          	.byte 0x5f
    9e89:	8408      	l32i.n	a0, a4, 32
    9e8b:	301b      	addi.n	a3, a0, 1
    9e8d:	213a      	add.n	a2, a1, a3
    9e8f:	5f          	.byte 0x5f
    9e90:	429006        	j	0x1a8d4
    9e93:	4e          	.byte 0x4e
    9e94:	5f          	.byte 0x5f
    9e95:	20c105        	call0	0x2aaa8
    9e98:	6e2782        	l32i	a8, a7, 0x1b8
    9e9b:	68a1a2        	movi	a10, 0x168
    9e9e:	a5aa      	add.n	a10, a5, a10
    9ea0:	01a9      	s32i.n	a10, a1, 0
    9ea2:	0008e0        	excw
    9ea5:	01a8      	l32i.n	a10, a1, 0
    9ea7:	0b0c      	movi.n	a11, 0
    9ea9:	0d0c      	movi.n	a13, 0
    9eab:	6725c2        	l32i	a12, a5, 0x19c
    9eae:	6d2782        	l32i	a8, a7, 0x1b4
    9eb1:	c3ca      	add.n	a12, a3, a12
    9eb3:	5f          	.byte 0x5f
    9eb4:	6c9006        	j	0x250f8
    9eb7:	8209      	s32i.n	a0, a2, 32
    9eb9:	926026        	beqi	a0, 6, 0x9e4f
    9ebc:	5f7764        	excw
    9ebf:	810d      	excw
    9ec1:	500d      	excw
    9ec3:	5f          	.byte 0x5f
    9ec4:	8108      	l32i.n	a0, a1, 32
    9ec6:	660d      	excw
    9ec8:	5f          	.byte 0x5f
    9ec9:	0f          	.byte 0xf
    9eca:	030d81        	l32r	a8, 0xfffcab00
    9ecd:	0cfa      	add.n	a0, a12, a15
    9ecf:	e78603        	excw
    9ed2:	5f          	.byte 0x5f
    9ed3:	a208      	l32i.n	a0, a2, 40
    9ed5:	75c904        	excw
    9ed8:	c62322        	l32i	a2, a3, 0x318
    9edb:	740071        	l32r	a7, 0xfffe6edc
    9ede:	922242        	l32i	a4, a2, 0x248
    9ee1:	a02782        	l32i	a8, a7, 0x280
    9ee4:	4e24b2        	l32i	a11, a4, 0x138
    9ee7:	5f          	.byte 0x5f
    9ee8:	429505        	call0	0x4c83c
    9eeb:	513c      	movi.n	a1, 53
    9eed:	75ad      	excw
    9eef:	08ea27        	bbsi	a10, 2, 0x9efb
    9ef2:	142292        	l32i	a9, a2, 80
    9ef5:	049390        	extui	a9, a9, 3, 1
    9ef8:	133916        	beqz	a9, 0xa02f
    9efb:	6e27b2        	l32i	a11, a7, 0x1b8
    9efe:	80a162        	movi	a6, 0x180
    9f01:	646a      	add.n	a6, a4, a6
    9f03:	2a6ae7        	bbci	a10, 14, 0x9f31
    9f06:	68a122        	movi	a2, 0x168
    9f09:	242a      	add.n	a2, a4, a2
    9f0b:	02ad      	mov.n	a10, a2
    9f0d:	000be0        	excw
    9f10:	5f2782        	l32i	a8, a7, 0x17c
    9f13:	a58106        	j	0xffff351b
    9f16:	ad0a      	add.n	a10, a13, a0
    9f18:	24c202        	addi	a0, a2, 36
    9f1b:	0a5f67        	bbc	a15, a6, 0x9f29
    9f1e:	15eb      	addi.n	a1, a5, 14
    9f20:	5f          	.byte 0x5f
    9f21:	950a      	add.n	a9, a5, a0
    9f23:	9249      	s32i.n	a4, a2, 36
    9f25:	7c4e24        	excw
    9f28:	a0da      	add.n	a10, a0, a13
    9f2a:	1099      	s32i.n	a9, a0, 4
    9f2c:	1a0c      	movi.n	a10, 1
    9f2e:	5f          	.byte 0x5f
    9f2f:	15b805        	call0	0x1fab0
    9f32:	4e          	.byte 0x4e
    9f33:	06ad      	mov.n	a10, a6
    9f35:	000be0        	excw
    9f38:	06ad      	mov.n	a10, a6
    9f3a:	0b0c      	movi.n	a11, 0
    9f3c:	6624c2        	l32i	a12, a4, 0x198
    9f3f:	5f          	.byte 0x5f
    9f40:	2e08      	l32i.n	a0, a14, 8
    9f42:	010392        	l8ui	a9, a3, 1
    9f45:	7490a1        	l32r	a10, 0xfffe7188
    9f48:	392966        	bnei	a9, 2, 0x9f85
    9f4b:	75c281        	l32r	a8, 0xfffe7654
    9f4e:	03ad      	mov.n	a10, a3
    9f50:	f888      	l32i.n	a8, a8, 60
    9f52:	5f          	.byte 0x5f
    9f53:	478b05        	call0	0x51804
    9f56:	742021        	l32r	a2, 0xfffe6fd8
    9f59:	9288      	l32i.n	a8, a2, 36
    9f5b:	5f          	.byte 0x5f
    9f5c:	664505        	call0	0x703b0
    9f5f:	16da      	add.n	a1, a6, a13
    9f61:	03ad      	mov.n	a10, a3
    9f63:	0b0c      	movi.n	a11, 0
    9f65:	ffa0c2        	movi	a12, 255
    9f68:	3288      	l32i.n	a8, a2, 12
    9f6a:	5f4c      	movi.n	a15, 69
    9f6c:	8c3004        	excw
    9f6f:	885a      	add.n	a8, a8, a5
    9f71:	055fa2        	s16i	a10, a15, 10
    9f74:	5f1a      	add.n	a5, a15, a1
    9f76:	670a      	add.n	a6, a7, a0
    9f78:	0020c0        	memw
    9f7b:	982aa2        	l32i	a10, a10, 0x260
    9f7e:	5064a2        	s32i	a10, a4, 0x140
    9f81:	702292        	l32i	a9, a2, 0x1c0
    9f84:	00a4b2        	movi	a11, 0x400
    9f87:	19dc      	bnez.n	a9, 0x9f9c
    9f89:	03ad      	mov.n	a10, a3
    9f8b:	2588      	l32i.n	a8, a5, 8
    9f8d:	5f          	.byte 0x5f
    9f8e:	5f4805        	call0	0x69410
    9f91:	810b      	addi.n	a8, a1, -1
    9f93:	220b      	addi.n	a2, a2, -1
    9f95:	696713        	excw
    9f98:	6e          	.byte 0x6e
    9f99:	3c22a2        	l32i	a10, a2, 240
    9f9c:	bfafc2        	movi	a12, -65
    9f9f:	10c9c0        	and	a12, a9, a12
    9fa2:	1362c2        	s32i	a12, a2, 76
    9fa5:	26eaa7        	bbsi	a10, 10, 0x9fcf
    9fa8:	0c0c      	movi.n	a12, 0
    9faa:	0d0c      	movi.n	a13, 0
    9fac:	c588      	l32i.n	a8, a5, 48
    9fae:	209ab0        	or	a9, a10, a11
    9fb1:	3c6292        	s32i	a9, a2, 240
    9fb4:	03ad      	mov.n	a10, a3
    9fb6:	5f          	.byte 0x5f
    9fb7:	5fe105        	call0	0x69dc8
    9fba:	5f          	.byte 0x5f
    9fbb:	3b09      	s32i.n	a0, a11, 12
    9fbd:	5f          	.byte 0x5f
    9fbe:	887604        	excw
    9fc1:	055f75        	excw
    9fc4:	298c      	beqz.n	a9, 0x9fca
    9fc6:	5f          	.byte 0x5f
    9fc7:	970c      	movi.n	a7, 9
    9fc9:	075f33        	excw
    9fcc:	1e          	.byte 0x1e
    9fcd:	5f          	.byte 0x5f
    9fce:	8c09      	s32i.n	a0, a12, 32
    9fd0:	5f68      	l32i.n	a6, a15, 20
    9fd2:	2b1104        	excw
    9fd5:	5f          	.byte 0x5f
    9fd6:	2f18      	l32i.n	a1, a15, 8
    9fd8:	3c2292        	l32i	a9, a2, 240
    9fdb:	3b22a2        	l32i	a10, a2, 236
    9fde:	c7e9a7        	bbsi	a9, 10, 0x9fa9
    9fe1:	facc      	bnez.n	a10, 0x9ff4
    9fe3:	5f          	.byte 0x5f
    9fe4:	58dc05        	call0	0x62da8
    9fe7:	821c      	movi.n	a2, 24
    9fe9:	5f1325        	excw
    9fec:	758105        	call0	0x7f800
    9fef:	fd9a56        	bnez	a10, 0x9fcc
    9ff2:	5f          	.byte 0x5f
    9ff3:	4b09      	s32i.n	a0, a11, 16
    9ff5:	fff346        	j	0x9fc6
    9ff8:	004136        	excw
    9ffb:	75caa1        	l32r	a10, 0xfffe7724
    9ffe:	055f42        	s16i	a4, a15, 10
    a001:	4889      	s32i.n	a8, a8, 16
    a003:	922442        	l32i	a4, a4, 0x248
    a006:	a02882        	l32i	a8, a8, 0x280
    a009:	94b8      	l32i.n	a11, a4, 36
    a00b:	0008e0        	excw
    a00e:	94a8      	l32i.n	a10, a4, 36
    a010:	1d0c      	movi.n	a13, 1
    a012:	1b6a07        	bbci	a10, 0, 0xa031
    a015:	b439      	s32i.n	a3, a4, 44
    a017:	e97c      	movi.n	a9, -2
    a019:	109a90        	and	a9, a10, a9
    a01c:	9499      	s32i.n	a9, a4, 36
    a01e:	0002c6        	j	0xa02d
    a021:	ab1b      	addi.n	a10, a11, 1
    a023:	126ea2        	s32i	a10, a14, 72
    a026:	1b0c      	movi.n	a11, 1
    a028:	02ad      	mov.n	a10, a2
    a02a:	5f0ce0        	excw
    a02d:	538a05        	call0	0x5d8d0
    a030:	a4b8      	l32i.n	a11, a4, 40
    a032:	b4c8      	l32i.n	a12, a4, 44
    a034:	ebab      	addi.n	a14, a11, 10
    a036:	c0c3c0        	sub	a12, a3, a12
    a039:	3abce7        	bgeu	a12, a14, 0xa077
    a03c:	f6cbe2        	addi	a14, a11, -10
    a03f:	34bec7        	bgeu	a14, a12, 0xa077
    a042:	b439      	s32i.n	a3, a4, 44
    a044:	07ea67        	bbsi	a10, 6, 0xa04f
    a047:	75bff1        	l32r	a15, 0xfffe7744
    a04a:	0ff8      	l32i.n	a15, a15, 0
    a04c:	306f57        	bbci	a15, 5, 0xa080
    a04f:	3a0c      	movi.n	a10, 3
    a051:	792482        	l32i	a8, a4, 0x1e4
    a054:	75aee1        	l32r	a14, 0xfffe770c
    a057:	75adc1        	l32r	a12, 0xfffe770c
    a05a:	122eb2        	l32i	a11, a14, 72
    a05d:	2cc8      	l32i.n	a12, a12, 8
    a05f:	0128f6        	bgeui	a8, 2, 0xa064
    a062:	0dad      	mov.n	a10, a13
    a064:	b83ba7        	bltu	a11, a10, 0xa020
    a067:	5f          	.byte 0x5f
    a068:	32a705        	call0	0x3cadc
    a06b:	d20d      	excw
    a06d:	6e          	.byte 0x6e
    a06e:	045f12        	s16i	a1, a15, 8
    a071:	1d1247        	beq	a2, a4, 0xa092
    a074:	bbc7f0        	excw
    a077:	9ad0b1        	l32r	a11, 0xffff0bb8
    a07a:	e68620        	excw
    a07d:	ff          	.byte 0xff
    a07e:	0d2d      	mov.n	a2, a13
    a080:	5f          	.byte 0x5f
    a081:	448b07        	bany	a11, a0, 0xa0c9
    a084:	5f          	.byte 0x5f
    a085:	409606        	j	0x1a2e1
    a088:	130c      	movi.n	a3, 1
    a08a:	9439      	s32i.n	a3, a4, 36
    a08c:	5f          	.byte 0x5f
    a08d:	7cd907        	bbs	a9, a0, 0xa10d
    a090:	410103        	excw
    a093:	75cb      	addi.n	a7, a5, 12
    a095:	122866        	bnei	a8, 2, 0xa0ab
    a098:	002492        	l32i	a9, a4, 0
    a09b:	0c1966        	bnei	a9, 1, 0xa0ab
    a09e:	20a330        	or	a10, a3, a3
    a0a1:	0165e5        	excw
    a0a4:	00a0a2        	movi	a10, 0
    a0a7:	04a9      	s32i.n	a10, a4, 0
    a0a9:	f01d      	excw
    a0ab:	5f          	.byte 0x5f
    a0ac:	7b8605        	call0	0x85910
    a0af:	132882        	l32i	a8, a8, 76
    a0b2:	5f          	.byte 0x5f
    a0b3:	8c0c      	movi.n	a12, 8
    a0b5:	223204        	excw
    a0b8:	2332c6        	j	0x12d87
    a0bb:	238292        	excw
    a0be:	0c78      	l32i.n	a7, a12, 0
    a0c0:	e80714        	excw
    a0c3:	008122        	excw
    a0c6:	cca174        	excw
    a0c9:	288275        	excw
    a0cc:	055fa0        	extui	a5, a10, 31, 1
    a0cf:	5f7ec4        	excw
    a0d2:	927e04        	excw
    a0d5:	817823        	excw
    a0d8:	75ad      	excw
    a0da:	209940        	or	a9, a9, a4
    a0dd:	2888      	l32i.n	a8, a8, 8
    a0df:	786392        	s32i	a9, a3, 0x1e0
    a0e2:	5f          	.byte 0x5f
    a0e3:	380a      	add.n	a3, a8, a0
    a0e5:	75cd31        	l32r	a3, 0xfffe781c
    a0e8:	75aef1        	l32r	a15, 0xfffe77a0
    a0eb:	5e23e2        	l32i	a14, a3, 0x178
    a0ee:	9fe9      	s32i.n	a14, a15, 36
    a0f0:	7623e2        	l32i	a14, a3, 0x1d8
    a0f3:	136fe2        	s32i	a14, a15, 76
    a0f6:	75d7e1        	l32r	a14, 0xfffe7854
    a0f9:	9763e2        	s32i	a14, a3, 0x25c
    a0fc:	75e1e1        	l32r	a14, 0xfffe7880
    a0ff:	812322        	l32i	a2, a3, 0x204
    a102:	562342        	l32i	a4, a3, 0x158
    a105:	4a2382        	l32i	a8, a3, 0x128
    a108:	842392        	l32i	a9, a3, 0x210
    a10b:	4223a2        	l32i	a10, a3, 0x108
    a10e:	4823b2        	l32i	a11, a3, 0x120
    a111:	7723c2        	l32i	a12, a3, 0x1dc
    a114:	5b23d2        	l32i	a13, a3, 0x16c
    a117:	1fd9      	s32i.n	a13, a15, 4
    a119:	2fc9      	s32i.n	a12, a15, 8
    a11b:	3fb9      	s32i.n	a11, a15, 12
    a11d:	4fa9      	s32i.n	a10, a15, 16
    a11f:	5f99      	s32i.n	a9, a15, 20
    a121:	6f8900        	excw
    a124:	7f49      	s32i.n	a4, a15, 28
    a126:	8f29      	s32i.n	a2, a15, 32
    a128:	642342        	l32i	a4, a3, 0x190
    a12b:	862322        	l32i	a2, a3, 0x218
    a12e:	542382        	l32i	a8, a3, 0x150
    a131:	552392        	l32i	a9, a3, 0x154
    a134:	7423a2        	l32i	a10, a3, 0x1d0
    a137:	4f23b2        	l32i	a11, a3, 0x13c
    a13a:	6a23c2        	l32i	a12, a3, 0x1a8
    a13d:	5f23d2        	l32i	a13, a3, 0x17c
    a140:	63e200        	excw
    a143:	5f          	.byte 0x5f
    a144:	afd900        	excw
    a147:	bfc9      	s32i.n	a12, a15, 44
    a149:	cfb9      	s32i.n	a11, a15, 48
    a14b:	dfa9      	s32i.n	a10, a15, 52
    a14d:	ef99      	s32i.n	a9, a15, 56
    a14f:	ff89      	s32i.n	a8, a15, 60
    a151:	116f22        	s32i	a2, a15, 68
    a154:	106f42        	s32i	a4, a15, 64
    a157:	75d521        	l32r	a2, 0xfffe78ac
    a15a:	75d441        	l32r	a4, 0xfffe78ac
    a15d:	75d381        	l32r	a8, 0xfffe78ac
    a160:	75d291        	l32r	a9, 0xfffe78a8
    a163:	75d1a1        	l32r	a10, 0xfffe78a8
    a166:	75d0b1        	l32r	a11, 0xfffe78a8
    a169:	75cfc1        	l32r	a12, 0xfffe78a8
    a16c:	75ced1        	l32r	a13, 0xfffe78a4
    a16f:	8d63d2        	s32i	a13, a3, 0x234
    a172:	6263c2        	s32i	a12, a3, 0x188
    a175:	5d63b2        	s32i	a11, a3, 0x174
    a178:	7e63a2        	s32i	a10, a3, 0x1f8
    a17b:	606392        	s32i	a9, a3, 0x180
    a17e:	676382        	s32i	a8, a3, 0x19c
    a181:	966342        	s32i	a4, a3, 0x258
    a184:	466322        	s32i	a2, a3, 0x118
    a187:	75de41        	l32r	a4, 0xfffe7900
    a18a:	75df21        	l32r	a2, 0xfffe7908
    a18d:	75dd81        	l32r	a8, 0xfffe7904
    a190:	75dc91        	l32r	a9, 0xfffe7900
    a193:	75dba1        	l32r	a10, 0xfffe7900
    a196:	75dab1        	l32r	a11, 0xfffe7900
    a199:	75d9c1        	l32r	a12, 0xfffe7900
    a19c:	75d8d1        	l32r	a13, 0xfffe78fc
    a19f:	5b63d2        	s32i	a13, a3, 0x16c
    a1a2:	7763c2        	s32i	a12, a3, 0x1dc
    a1a5:	4863b2        	s32i	a11, a3, 0x120
    a1a8:	5f          	.byte 0x5f
    a1a9:	5ee805        	call0	0x6902c
    a1ac:	638284        	excw
    a1af:	224a      	add.n	a2, a2, a4
    a1b1:	428163        	excw
    a1b4:	215663        	excw
    a1b7:	75e9      	s32i.n	a14, a5, 28
    a1b9:	75e841        	l32r	a4, 0xfffe795c
    a1bc:	75e781        	l32r	a8, 0xfffe7958
    a1bf:	75e691        	l32r	a9, 0xfffe7958
    a1c2:	75e5a1        	l32r	a10, 0xfffe7958
    a1c5:	75e4b1        	l32r	a11, 0xfffe7958
    a1c8:	75e3c1        	l32r	a12, 0xfffe7954
    a1cb:	75e2d1        	l32r	a13, 0xfffe7954
    a1ce:	6a63d2        	s32i	a13, a3, 0x1a8
    a1d1:	4f63c2        	s32i	a12, a3, 0x13c
    a1d4:	7463b2        	s32i	a11, a3, 0x1d0
    a1d7:	5563a2        	s32i	a10, a3, 0x154
    a1da:	546392        	s32i	a9, a3, 0x150
    a1dd:	646382        	s32i	a8, a3, 0x190
    a1e0:	866342        	s32i	a4, a3, 0x218
    a1e3:	766322        	s32i	a2, a3, 0x1d8
    a1e6:	75d6f1        	l32r	a15, 0xfffe7940
    a1e9:	8063f2        	s32i	a15, a3, 0x200
    a1ec:	75e0f1        	l32r	a15, 0xfffe796c
    a1ef:	5e63f2        	s32i	a15, a3, 0x178
    a1f2:	5f          	.byte 0x5f
    a1f3:	089d06        	j	0xc46b
    a1f6:	f1c622        	addi	a2, a6, -15
    a1f9:	e175c4        	excw
    a1fc:	6175c5        	call0	0x6b95c
    a1ff:	517411        	l32r	a1, 0xfffde7d0
    a202:	75ea      	add.n	a7, a5, a14
    a204:	75b5d1        	l32r	a13, 0xfffe78d8
    a207:	75ebb1        	l32r	a11, 0xfffe79b4
    a20a:	7525a1        	l32r	a10, 0xfffe76a0
    a20d:	7425c1        	l32r	a12, 0xfffe72a4
    a210:	746441        	l32r	a4, 0xfffe73a0
    a213:	b12cc2        	l32i	a12, a12, 0x2c4
    a216:	0b3316        	beqz	a3, 0xa2cd
    a219:	480c      	movi.n	a8, 4
    a21b:	0020c0        	memw
    a21e:	db2b92        	l32i	a9, a11, 0x36c
    a221:	065f80        	excw
    a224:	ff          	.byte 0xff
    a225:	6b2b      	addi.n	a6, a11, 2
    a227:	7cdb      	addi.n	a7, a12, 13
    a229:	c0d8      	l32i.n	a13, a0, 48
    a22b:	b20020        	excw
    a22e:	732a      	add.n	a7, a3, a2
    a230:	055f80        	extui	a5, a8, 31, 1
    a233:	66fd      	excw
    a235:	736ab2        	s32i	a11, a10, 0x1cc
    a238:	5f          	.byte 0x5f
    a239:	2d1704        	excw
    a23c:	f0c8      	l32i.n	a12, a0, 60
    a23e:	1099      	s32i.n	a9, a0, 4
    a240:	5f          	.byte 0x5f
    a241:	6d0904        	excw
    a244:	c0c8      	l32i.n	a12, a0, 48
    a246:	820020        	mull	a0, a0, a2
    a249:	df2d      	excw
    a24b:	065ff0        	excw
    a24e:	fe          	.byte 0xfe
    a24f:	6d68      	l32i.n	a6, a13, 24
    a251:	df          	.byte 0xdf
    a252:	7593f1        	l32r	a15, 0xfffe78a0
    a255:	5f          	.byte 0x5f
    a256:	2d2704        	excw
    a259:	5ff0f5        	excw
    a25c:	938106        	j	0xfffef064
    a25f:	2e          	.byte 0x2e
    a260:	f56d      	excw
    a262:	0020c0        	memw
    a265:	f72da2        	l32i	a10, a13, 0x3dc
    a268:	5faae0        	excw
    a26b:	a20f04        	excw
    a26e:	f76d      	excw
    a270:	5fec91        	l32r	a9, 0xfffe2220
    a273:	822104        	excw
    a276:	df2d      	excw
    a278:	065f90        	excw
    a27b:	fe          	.byte 0xfe
    a27c:	6d2b      	addi.n	a6, a13, 2
    a27e:	df          	.byte 0xdf
    a27f:	75edf1        	l32r	a15, 0xfffe7a34
    a282:	0020c0        	memw
    a285:	bf2de2        	l32i	a14, a13, 0x2fc
    a288:	5feef0        	excw
    a28b:	e24504        	excw
    a28e:	bf6d      	excw
    a290:	1a0c      	movi.n	a10, 1
    a292:	0b0c      	movi.n	a11, 0
    a294:	000ce0        	excw
    a297:	1b0c      	movi.n	a11, 1
    a299:	04a8      	l32i.n	a10, a4, 0
    a29b:	1625c2        	l32i	a12, a5, 88
    a29e:	74f5d1        	l32r	a13, 0xfffe7674
    a2a1:	3c2292        	l32i	a9, a2, 240
    a2a4:	302682        	l32i	a8, a6, 192
    a2a7:	2099d0        	or	a9, a9, a13
    a2aa:	5f6292        	s32i	a9, a2, 0x17c
    a2ad:	7fd505        	call0	0x8a000
    a2b0:	0bca      	add.n	a0, a11, a12
    a2b2:	04a8      	l32i.n	a10, a4, 0
    a2b4:	162582        	l32i	a8, a5, 88
    a2b7:	5f          	.byte 0x5f
    a2b8:	749707        	bne	a7, a0, 0xa330
    a2bb:	b97c      	movi.n	a9, -5
    a2bd:	5f          	.byte 0x5f
    a2be:	1f8905        	call0	0x29b50
    a2c1:	90db      	addi.n	a9, a0, 13
    a2c3:	5f          	.byte 0x5f
    a2c4:	058106        	j	0xb8cc
    a2c7:	db6b      	addi.n	a13, a11, 6
    a2c9:	2b0c      	movi.n	a11, 2
    a2cb:	0020c0        	memw
    a2ce:	732a92        	l32i	a9, a10, 0x1cc
    a2d1:	5f          	.byte 0x5f
    a2d2:	8108      	l32i.n	a0, a1, 32
    a2d4:	737080        	excw
    a2d7:	5f          	.byte 0x5f
    a2d8:	c87205        	call0	0xfffd29fc
    a2db:	075fe0        	excw
    a2de:	5fc872        	addi	a7, a8, 95
    a2e1:	228105        	call0	0x2caf4
    a2e4:	df          	.byte 0xdf
    a2e5:	075fe0        	excw
    a2e8:	df2281        	l32r	a8, 0x1f70 (0x742dd11a)
    a2eb:	75eea1        	l32r	a10, 0xfffe7aa4
    a2ee:	5f          	.byte 0x5f
    a2ef:	558105        	call0	0x5fb00
    a2f2:	5fa0f5        	excw
    a2f5:	558107        	bany	a1, a0, 0xa34e
    a2f8:	055ff5        	excw
    a2fb:	f0f730        	subx8	a15, a7, a3
    a2fe:	5ff8      	l32i.n	a15, a15, 20
    a300:	79ff05        	call0	0x842f4
    a303:	f76d      	excw
    a305:	5fefe1        	l32r	a14, 0xfffe22c4
    a308:	558106        	j	0x1f910
    a30b:	df          	.byte 0xdf
    a30c:	065fe0        	excw
    a30f:	6d0582        	l8ui	a8, a5, 109
    a312:	df          	.byte 0xdf
    a313:	5f2ca1        	l32r	a10, 0xfffe1fc4
    a316:	bf3306        	j	0xffff9fe6
    a319:	5f          	.byte 0x5f
    a31a:	878107        	bany	a1, a0, 0xa2a5
    a31d:	6d3a      	add.n	a6, a13, a3
    a31f:	bf          	.byte 0xbf
    a320:	0a0c      	movi.n	a10, 0
    a322:	5f          	.byte 0x5f
    a323:	348106        	j	0x1752b
    a326:	5f0b      	addi.n	a5, a15, -1
    a328:	348106        	j	0x17530
    a32b:	095ff3        	excw
    a32e:	103481        	l32r	a8, 0xfffce400
    a331:	5f          	.byte 0x5f
    a332:	348106        	j	0x1753a
    a335:	8a8c      	beqz.n	a10, 0xa341
    a337:	5f          	.byte 0x5f
    a338:	338106        	j	0x17140
    a33b:	5f          	.byte 0x5f
    a33c:	8109      	s32i.n	a0, a1, 32
    a33e:	00ba      	add.n	a0, a0, a11
    a340:	310041        	l32r	a4, 0xfffd6740
    a343:	75ea      	add.n	a7, a5, a14
    a345:	75f021        	l32r	a2, 0xfffe7b08
    a348:	156322        	s32i	a2, a3, 84
    a34b:	5f          	.byte 0x5f
    a34c:	5f1007        	beq	a0, a0, 0xa3af
    a34f:	3bef06        	j	0x1930f
    a352:	3b2292        	l32i	a9, a2, 236
    a355:	03bd      	mov.n	a11, a3
    a357:	237900        	excw
    a35a:	086977        	bbci	a9, 7, 0xa366
    a35d:	7faf82        	movi	a8, -129
    a360:	108980        	and	a8, a9, a8
    a363:	3b6282        	s32i	a8, a2, 236
    a366:	5ff181        	l32r	a8, 0xfffe232c
    a369:	de08      	l32i.n	a0, a14, 52
    a36b:	d62a      	add.n	a13, a6, a2
    a36d:	9200b7        	bnone	a0, a11, 0xa303
    a370:	5f3b22        	excw
    a373:	938207        	bany	a2, a0, 0xa30a
    a376:	621c      	movi.n	a2, 22
    a378:	5f3b      	addi.n	a5, a15, 3
    a37a:	808106        	j	0xfffea582
    a37d:	75f254        	excw
    a380:	744531        	l32r	a3, 0xfffe7494
    a383:	75f181        	l32r	a8, 0xfffe7b48
    a386:	192342        	l32i	a4, a3, 100
    a389:	0849      	s32i.n	a4, a8, 0
    a38b:	196322        	s32i	a2, a3, 100
    a38e:	5f          	.byte 0x5f
    a38f:	215005        	call0	0x2b890
    a392:	050c02        	l8ui	a0, a12, 5
    a395:	02ad      	mov.n	a10, a2
    a397:	758361        	l32r	a6, 0xfffe79a4
    a39a:	20c192        	addi	a9, a1, 32
    a39d:	10c172        	addi	a7, a1, 16
    a3a0:	040c      	movi.n	a4, 0
    a3a2:	4149      	s32i.n	a4, a1, 16
    a3a4:	8149      	s32i.n	a4, a1, 32
    a3a6:	0d5142        	s16i	a4, a1, 26
    a3a9:	5179      	s32i.n	a7, a1, 20
    a3ab:	184142        	s8i	a4, a1, 24
    a3ae:	284142        	s8i	a4, a1, 40
    a3b1:	9199      	s32i.n	a9, a1, 36
    a3b3:	0688      	l32i.n	a8, a6, 0
    a3b5:	090c      	movi.n	a9, 0
    a3b7:	8888      	l32i.n	a8, a8, 32
    a3b9:	5f6192        	s32i	a9, a1, 0x17c
    a3bc:	3aa705        	call0	0x44e30
    a3bf:	d87423        	excw
    a3c2:	b00b      	addi.n	a11, a0, -1
    a3c4:	da11c3        	excw
    a3c7:	d2cc      	bnez.n	a2, 0xa3d8
    a3c9:	812d      	excw
    a3cb:	132ca2        	l32i	a10, a12, 76
    a3ce:	4ccc32        	addi	a3, a12, 76
    a3d1:	379ad7        	bne	a10, a13, 0xa40c
    a3d4:	5f4281        	l32r	a8, 0xfffe20dc
    a3d7:	f60b      	addi.n	a15, a6, -1
    a3d9:	2d0175        	excw
    a3dc:	260a      	add.n	a2, a6, a0
    a3de:	0e19      	s32i.n	a1, a14, 0
    a3e0:	0b0c      	movi.n	a11, 0
    a3e2:	5f1181        	l32r	a8, 0xfffe2028
    a3e5:	29fb05        	call0	0x34398
    a3e8:	0c1c      	movi.n	a12, 16
    a3ea:	5f1d      	excw
    a3ec:	cc8106        	j	0xffffd5f4
    a3ef:	662a      	add.n	a6, a6, a2
    a3f1:	5f49      	s32i.n	a4, a15, 20
    a3f3:	65a206        	j	0x23a7f
    a3f6:	065f24        	excw
    a3f9:	0a0892        	l8ui	a9, a8, 10
    a3fc:	009ec6        	j	0xa67b
    a3ff:	2e6152        	s32i	a5, a1, 184
    a402:	b1a8      	l32i.n	a10, a1, 44
    a404:	0d0c      	movi.n	a13, 0
    a406:	5ccce2        	addi	a14, a12, 92
    a409:	3261e2        	s32i	a14, a1, 200
    a40c:	3461d2        	s32i	a13, a1, 208
    a40f:	3561a2        	s32i	a10, a1, 212
    a412:	4368      	l32i.n	a6, a3, 16
    a414:	7464b1        	l32r	a11, 0xfffe75a4
    a417:	085656        	bnez	a6, 0xa4a0
    a41a:	0f0c      	movi.n	a15, 0
    a41c:	0e43f2        	s8i	a15, a3, 14
    a41f:	13f9      	s32i.n	a15, a3, 4
    a421:	23f9      	s32i.n	a15, a3, 8
    a423:	03a8      	l32i.n	a10, a3, 0
    a425:	742471        	l32r	a7, 0xfffe74b8
    a428:	3421b2        	l32i	a11, a1, 208
    a42b:	1788      	l32i.n	a8, a7, 4
    a42d:	f4b0b0        	extui	a11, a11, 0, 16
    a430:	5f          	.byte 0x5f
    a431:	36f706        	j	0x18011
    a434:	0c7583        	excw
    a437:	880b      	addi.n	a8, a8, -1
    a439:	0c08      	l32i.n	a0, a12, 0
    a43b:	881c      	movi.n	a8, 24
    a43d:	dd78      	l32i.n	a7, a13, 52
    a43f:	08e003        	excw
    a442:	03a800        	excw
    a445:	fcca92        	addi	a9, a10, -4
    a448:	20d916        	beqz	a9, 0xa659
    a44b:	7423b1        	l32r	a11, 0xfffe74d8
    a44e:	0bb8      	l32i.n	a11, a11, 0
    a450:	682bc2        	l32i	a12, a11, 0x1a0
    a453:	c0cc30        	sub	a12, a12, a3
    a456:	1ffc16        	beqz	a12, 0xa659
    a459:	160c      	movi.n	a6, 1
    a45b:	352192        	l32i	a9, a1, 212
    a45e:	a05ab0        	addx4	a5, a10, a11
    a461:	75f381        	l32r	a8, 0xfffe7c30
    a464:	74d3b1        	l32r	a11, 0xfffe77b0
    a467:	01d552        	addmi	a5, a5, 0x100
    a46a:	0888      	l32i.n	a8, a8, 0
    a46c:	939690        	movnez	a9, a6, a9
    a46f:	a40552        	l8ui	a5, a5, 164
    a472:	2861b2        	s32i	a11, a1, 160
    a475:	160c      	movi.n	a6, 1
    a477:	936890        	movnez	a6, a8, a9
    a47a:	a44162        	s8i	a6, a1, 164
    a47d:	2788      	l32i.n	a8, a7, 8
    a47f:	746060        	extui	a6, a6, 0, 8
    a482:	0008e0        	excw
    a485:	0136a7        	bltu	a6, a10, 0xa48a
    a488:	0a6d      	mov.n	a6, a10
    a48a:	a44162        	s8i	a6, a1, 164
    a48d:	fdc582        	addi	a8, a5, -3
    a490:	3d9816        	beqz	a8, 0xa86d
    a493:	fec592        	addi	a9, a5, -2
    a496:	3c7956        	bnez	a9, 0xa861
    a499:	5b0c      	movi.n	a11, 5
    a49b:	00f406        	j	0xa86f
    a49e:	4678      	l32i.n	a7, a6, 16
    a4a0:	870722        	l8ui	a2, a7, 135
    a4a3:	080c      	movi.n	a8, 0
    a4a5:	342020        	extui	a2, a2, 0, 4
    a4a8:	a022b0        	addx4	a2, a2, a11
    a4ab:	0228      	l32i.n	a2, a2, 0
    a4ad:	202742        	l32i	a4, a7, 128
    a4b0:	2a22a2        	l32i	a10, a2, 168
    a4b3:	2f61a2        	s32i	a10, a1, 188
    a4b6:	1f27a2        	l32i	a10, a7, 124
    a4b9:	338416        	beqz	a4, 0xa7f5
    a4bc:	2498      	l32i.n	a9, a4, 8
    a4be:	834890        	moveqz	a4, a8, a9
    a4c1:	330416        	beqz	a4, 0xa7f5
    a4c4:	40c4b2        	addi	a11, a4, 64
    a4c7:	3861b2        	s32i	a11, a1, 224
    a4ca:	04c3a0        	extui	a12, a10, 3, 1
    a4cd:	3661c2        	s32i	a12, a1, 216
    a4d0:	3c6a37        	bbci	a10, 3, 0xa510
    a4d3:	04ad      	mov.n	a10, a4
    a4d5:	7a07b2        	l8ui	a11, a7, 122
    a4d8:	742681        	l32r	a8, 0xfffe7570
    a4db:	c798      	l32i.n	a9, a7, 48
    a4dd:	0888      	l32i.n	a8, a8, 0
    a4df:	059e90        	extui	a9, a9, 30, 1
    a4e2:	c888      	l32i.n	a8, a8, 48
    a4e4:	5f6192        	s32i	a9, a1, 0x17c
    a4e7:	179805        	call0	0x21e68
    a4ea:	b22b21        	l32r	a2, 0xffff6d98
    a4ed:	a23821        	l32r	a2, 0xffff2dd0
    a4f0:	0c3561        	l32r	a6, 0xfffcd5c4
    a4f3:	ac0c      	movi.n	a12, 10
    a4f5:	07d204        	excw
    a4f8:	a27a      	add.n	a10, a2, a7
    a4fa:	aa14a2        	l16ui	a10, a4, 0x154
    a4fd:	1aa2a4        	excw
    a500:	007d      	mov.n	a7, a0
    a502:	400d      	excw
    a504:	b1a0a0        	sra	a10, a10
    a507:	0d6a07        	bbci	a10, 0, 0xa518
    a50a:	1c0c      	movi.n	a12, 1
    a50c:	000206        	j	0xa518
    a50f:	090c      	movi.n	a9, 0
    a511:	0c0c      	movi.n	a12, 0
    a513:	045fc2        	s16i	a12, a15, 8
    a516:	0d0c24        	excw
    a519:	c1d9      	s32i.n	a13, a1, 48
    a51b:	899c      	beqz.n	a9, 0xa537
    a51d:	7668      	l32i.n	a6, a6, 28
    a51f:	96cc      	bnez.n	a6, 0xa52c
    a521:	5f          	.byte 0x5f
    a522:	c70b      	addi.n	a12, a7, -1
    a524:	580c      	movi.n	a8, 5
    a526:	61c246        	j	0x22c33
    a529:	922d      	excw
    a52b:	c62b61        	l32r	a6, 0xffffbdd8
    a52e:	5d0001        	l32r	a0, 0xfffe1930
    a531:	065f07        	bbc	a15, a0, 0xa53b
    a534:	ad0b      	addi.n	a10, a13, -1
    a536:	0d0c05        	call0	0x175f8
    a539:	3621e2        	l32i	a14, a1, 216
    a53c:	30c1f2        	addi	a15, a1, 48
    a53f:	742581        	l32r	a8, 0xfffe75d4
    a542:	0bcd      	mov.n	a12, a11
    a544:	c02882        	l32i	a8, a8, 0x300
    a547:	5fbd      	excw
    a549:	9b8206        	j	0xffff1355
    a54c:	f10d      	ret.n
    a54e:	ec2916        	beqz	a9, 0xa414
    a551:	743f81        	l32r	a8, 0xfffe7650
    a554:	372882        	l32i	a8, a8, 220
    a557:	5f          	.byte 0x5f
    a558:	2f9c06        	j	0x163cc
    a55b:	662a61        	l32r	a6, 0xfffe3e04
    a55e:	1d1a      	add.n	a1, a13, a1
    a560:	055f81        	l32r	a8, 0xfffcbadc
    a563:	281df6        	bgeui	a13, 0x10000, 0xa58f
    a566:	b21a      	add.n	a11, a2, a1
    a568:	5f6905        	call0	0x69bfc
    a56b:	4c8206        	j	0x1d777
    a56e:	3f          	.byte 0x3f
    a56f:	5f          	.byte 0x5f
    a570:	30d805        	call0	0x3b2f4
    a573:	5238      	l32i.n	a3, a2, 20
    a575:	5f2a61        	l32r	a6, 0xfffe2220
    a578:	b38106        	j	0xffff7380
    a57b:	810736        	excw
    a57e:	dd7583        	excw
    a581:	088803        	excw
    a584:	2a2152        	l32i	a5, a1, 168
    a587:	9888      	l32i.n	a8, a8, 36
    a589:	5fcd      	excw
    a58b:	7ed905        	call0	0x8931c
    a58e:	563361        	l32r	a6, 0xfffdfe5c
    a591:	e78a      	add.n	a14, a7, a8
    a593:	2b2192        	l32i	a9, a1, 172
    a596:	0ce956        	bnez	a9, 0xa668
    a599:	742681        	l32r	a8, 0xfffe7634
    a59c:	06ad      	mov.n	a10, a6
    a59e:	0888      	l32i.n	a8, a8, 0
    a5a0:	34c1b2        	addi	a11, a1, 52
    a5a3:	6888      	l32i.n	a8, a8, 24
    a5a5:	28c1c2        	addi	a12, a1, 40
    a5a8:	0008e0        	excw
    a5ab:	38c416        	beqz	a4, 0xa93b
    a5ae:	352192        	l32i	a9, a1, 212
    a5b1:	2d21c2        	l32i	a12, a1, 180
    a5b4:	49cc      	bnez.n	a9, 0xa5bc
    a5b6:	2d21a2        	l32i	a10, a1, 180
    a5b9:	37ea16        	beqz	a10, 0xa93b
    a5bc:	6405b2        	l8ui	a11, a5, 100
    a5bf:	5cac      	beqz.n	a12, 0xa5e8
    a5c1:	08eb07        	bbsi	a11, 0, 0xa5cd
    a5c4:	3615e2        	l16ui	a14, a5, 108
    a5c7:	20a1d2        	movi	a13, 0x120
    a5ca:	1a0de7        	bnone	a13, a14, 0xa5e8
    a5cd:	c724f2        	l32i	a15, a4, 0x31c
    a5d0:	14ef77        	bbsi	a15, 7, 0xa5e8
    a5d3:	02ad      	mov.n	a10, a2
    a5d5:	04bd      	mov.n	a11, a4
    a5d7:	5f          	.byte 0x5f
    a5d8:	b58207        	bany	a2, a0, 0xa591
    a5db:	5f2871        	l32r	a7, 0xfffe227c
    a5de:	b58207        	bany	a2, a0, 0xa597
    a5e1:	640571        	l32r	a7, 0xfffe35f8
    a5e4:	190c      	movi.n	a9, 1
    a5e6:	0c0c      	movi.n	a12, 0
    a5e8:	83c9b0        	moveqz	a12, a9, a11
    a5eb:	319fc0        	srai	a9, a12, 31
    a5ee:	f199      	s32i.n	a9, a1, 60
    a5f0:	e1c9      	s32i.n	a12, a1, 56
    a5f2:	0023c6        	j	0xa685
    a5f5:	6b0c      	movi.n	a11, 6
    a5f7:	5f          	.byte 0x5f
    a5f8:	b28206        	j	0xffff7004
    a5fb:	5fa860        	excw
    a5fe:	199b05        	call0	0x23fb0
    a601:	ea8c      	beqz.n	a10, 0xa613
    a603:	4a98      	l32i.n	a9, a10, 16
    a605:	890992        	l8ui	a9, a9, 137
    a608:	02e917        	bbsi	a9, 1, 0xa60e
    a60b:	046907        	bbci	a9, 0, 0xa613
    a60e:	1a0c      	movi.n	a10, 1
    a610:	a441a2        	s8i	a10, a1, 164
    a613:	43b8      	l32i.n	a11, a3, 16
    a615:	5bec      	bnez.n	a11, 0xa63e
    a617:	5788      	l32i.n	a8, a7, 20
    a619:	03a8      	l32i.n	a10, a3, 0
    a61b:	5f          	.byte 0x5f
    a61c:	6de606        	j	0x25db8
    a61f:	9ca401        	l32r	a0, 0xffff18b0
    a622:	cd79      	s32i.n	a7, a13, 48
    a624:	05bd03        	excw
    a627:	04ad      	mov.n	a10, a4
    a629:	742681        	l32r	a8, 0xfffe76c4
    a62c:	10c1e2        	addi	a14, a1, 16
    a62f:	0888      	l32i.n	a8, a8, 0
    a631:	7fc1d2        	addi	a13, a1, 127
    a634:	d888      	l32i.n	a8, a8, 52
    a636:	21cdd2        	addi	a13, a13, 33
    a639:	0008e0        	excw
    a63c:	5f0f81        	l32r	a8, 0xfffe2278
    a63f:	ad8106        	j	0xffff5c47
    a642:	b25c      	movi.n	a2, 91
    a644:	e020c1        	l32r	a12, 0x26c4 (0x2e22d2be)
    a647:	0008      	l32i.n	a0, a0, 0
    a649:	8198      	l32i.n	a9, a1, 32
    a64b:	998c      	beqz.n	a9, 0xa658
    a64d:	5f          	.byte 0x5f
    a64e:	cd0b      	addi.n	a12, a13, -1
    a650:	a20b      	addi.n	a10, a2, -1
    a652:	2d3321        	l32r	a2, 0xfffd5b20
    a655:	1d0a      	add.n	a1, a13, a0
    a657:	05b2f0        	extui	a11, a15, 18, 1
    a65a:	0c0c64        	excw
    a65d:	2abb16        	beqz	a11, 0xa90c
    a660:	e1c9      	s32i.n	a12, a1, 56
    a662:	0d0c      	movi.n	a13, 0
    a664:	0e0c      	movi.n	a14, 0
    a666:	1a51e2        	s16i	a14, a1, 52
    a669:	f1d9      	s32i.n	a13, a1, 60
    a66b:	0a6b17        	bbci	a11, 1, 0xa679
    a66e:	1f27f2        	l32i	a15, a7, 124
    a671:	180c      	movi.n	a8, 1
    a673:	027fe7        	bbci	a15, 30, 0xa679
    a676:	2e6182        	s32i	a8, a1, 184
    a679:	2a6152        	s32i	a5, a1, 168
    a67c:	0d0c      	movi.n	a13, 0
    a67e:	7403e1        	l32r	a14, 0xfffe768c
    a681:	14a2a2        	movi	a10, 0x214
    a684:	60c592        	addi	a9, a5, 96
    a687:	306192        	s32i	a9, a1, 192
    a68a:	a4aa      	add.n	a10, a4, a10
    a68c:	ba2ee2        	l32i	a14, a14, 0x2e8
    a68f:	3761a2        	s32i	a10, a1, 220
    a692:	4358      	l32i.n	a5, a3, 16
    a694:	05fd      	mov.n	a15, a5
    a696:	3b1567        	beq	a5, a6, 0xa6d5
    a699:	8ebc      	beqz.n	a14, 0xa6d5
    a69b:	3021b2        	l32i	a11, a1, 192
    a69e:	0c1c      	movi.n	a12, 16
    a6a0:	45a8      	l32i.n	a10, a5, 16
    a6a2:	740081        	l32r	a8, 0xfffe76a4
    a6a5:	3161a2        	s32i	a10, a1, 196
    a6a8:	3f2882        	l32i	a8, a8, 252
    a6ab:	60caa2        	addi	a10, a10, 96
    a6ae:	0008e0        	excw
    a6b1:	40c1b2        	addi	a11, a1, 64
    a6b4:	0c0c      	movi.n	a12, 0
    a6b6:	75f481        	l32r	a8, 0xfffe7e88
    a6b9:	3121a2        	l32i	a10, a1, 196
    a6bc:	4598      	l32i.n	a9, a5, 16
    a6be:	126192        	s32i	a9, a1, 72
    a6c1:	1061a2        	s32i	a10, a1, 64
    a6c4:	5f          	.byte 0x5f
    a6c5:	a88107        	bany	a1, a0, 0xa671
    a6c8:	2f          	.byte 0x2f
    a6c9:	5f          	.byte 0x5f
    a6ca:	f84f05        	call0	0x2bbc
    a6cd:	2ee243        	excw
    a6d0:	a8ba      	add.n	a10, a8, a11
    a6d2:	5f8863        	excw
    a6d5:	438900        	excw
    a6d8:	38cc      	bnez.n	a8, 0xa6df
    a6da:	322192        	l32i	a9, a1, 200
    a6dd:	5399      	s32i.n	a9, a3, 20
    a6df:	aa0b      	addi.n	a10, a10, -1
    a6e1:	63a9      	s32i.n	a10, a3, 24
    a6e3:	948c      	beqz.n	a4, 0xa6f0
    a6e5:	3721c2        	l32i	a12, a1, 220
    a6e8:	e10cb2        	l8ui	a11, a12, 225
    a6eb:	bb0b      	addi.n	a11, a11, -1
    a6ed:	e14cb2        	s8i	a11, a12, 225
    a6f0:	51f8      	l32i.n	a15, a1, 20
    a6f2:	55d9      	s32i.n	a13, a5, 20
    a6f4:	0f59      	s32i.n	a5, a15, 0
    a6f6:	14c5f2        	addi	a15, a5, 20
    a6f9:	23c8      	l32i.n	a12, a3, 8
    a6fb:	51f9      	s32i.n	a15, a1, 20
    a6fd:	019c57        	bne	a12, a5, 0xa702
    a700:	23d9      	s32i.n	a13, a3, 8
    a702:	899567        	bne	a5, a6, 0xa68f
    a705:	2c61f2        	s32i	a15, a1, 176
    a708:	aeac      	beqz.n	a14, 0xa736
    a70a:	70c1b2        	addi	a11, a1, 112
    a70d:	5f          	.byte 0x5f
    a70e:	2a5c07        	bbc	a12, a0, 0xa73c
    a711:	4698      	l32i.n	a9, a6, 16
    a713:	1e6192        	s32i	a9, a1, 120
    a716:	1c61a2        	s32i	a10, a1, 112
    a719:	1d61a2        	s32i	a10, a1, 116
    a71c:	5f          	.byte 0x5f
    a71d:	ad5f07        	bbc	a15, a0, 0xa6ce
    a720:	f48102        	excw
    a723:	c1b275        	excw
    a726:	688870        	excw
    a729:	5f          	.byte 0x5f
    a72a:	c48106        	j	0xffffb932
    a72d:	0e          	.byte 0xe
    a72e:	920e03        	excw
    a731:	0b3621        	l32r	a2, 0xfffcd40c
    a734:	a2aa      	add.n	a10, a2, a10
    a736:	160e43        	excw
    a739:	0539      	s32i.n	a3, a5, 0
    a73b:	02ad      	mov.n	a10, a2
    a73d:	c1d8      	l32i.n	a13, a1, 48
    a73f:	743d81        	l32r	a8, 0xfffe7834
    a742:	2f21e2        	l32i	a14, a1, 188
    a745:	7807c2        	l8ui	a12, a7, 120
    a748:	65c762        	addi	a6, a7, 101
    a74b:	06bd      	mov.n	a11, a6
    a74d:	a0cce0        	addx4	a12, a12, a14
    a750:	5888      	l32i.n	a8, a8, 20
    a752:	20a3e2        	movi	a14, 0x320
    a755:	ccea      	add.n	a12, a12, a14
    a757:	7f2c92        	l32i	a9, a12, 0x1fc
    a75a:	01dcc2        	addmi	a12, a12, 0x100
    a75d:	99da      	add.n	a9, a9, a13
    a75f:	fc4c92        	s8i	a9, a12, 252
    a762:	5f          	.byte 0x5f
    a763:	1ad405        	call0	0x254a4
    a766:	5ffd      	excw
    a768:	fe0605        	call0	0x87cc
    a76b:	5f          	.byte 0x5f
    a76c:	ff0605        	call0	0x97d0
    a76f:	5f          	.byte 0x5f
    a770:	2faa07        	bge	a10, a0, 0xa7a3
    a773:	1129      	s32i.n	a2, a1, 4
    a775:	087416        	beqz	a4, 0xa800
    a778:	743d81        	l32r	a8, 0xfffe786c
    a77b:	06bd      	mov.n	a11, a6
    a77d:	5f          	.byte 0x5f
    a77e:	59a407        	bge	a4, a0, 0xa7db
    a781:	1e54a2        	s16i	a10, a4, 60
    a784:	075416        	beqz	a4, 0xa7fd
    a787:	362192        	l32i	a9, a1, 216
    a78a:	09bc      	beqz.n	a9, 0xa7be
    a78c:	1f2792        	l32i	a9, a7, 124
    a78f:	3521a2        	l32i	a10, a1, 212
    a792:	28e927        	bbsi	a9, 2, 0xa7be
    a795:	12ba16        	beqz	a10, 0xa8c4
    a798:	742681        	l32r	a8, 0xfffe7830
    a79b:	1a11d2        	l16ui	a13, a1, 52
    a79e:	f1f8      	l32i.n	a15, a1, 60
    a7a0:	e1e8      	l32i.n	a14, a1, 56
    a7a2:	7a07b2        	l8ui	a11, a7, 122
    a7a5:	2e2192        	l32i	a9, a1, 184
    a7a8:	0199      	s32i.n	a9, a1, 0
    a7aa:	0888      	l32i.n	a8, a8, 0
    a7ac:	04ad      	mov.n	a10, a4
    a7ae:	3888      	l32i.n	a8, a8, 12
    a7b0:	5f          	.byte 0x5f
    a7b1:	9b8206        	j	0xffff15bd
    a7b4:	063b      	addi.n	a0, a6, 3
    a7b6:	0c0032        	l8ui	a3, a0, 12
    a7b9:	060b      	addi.n	a0, a6, -1
    a7bb:	bcff33        	excw
    a7be:	29a1b4        	excw
    a7c1:	0aa874        	excw
    a7c4:	4abc      	beqz.n	a10, 0xa7fc
    a7c6:	1f27b2        	l32i	a11, a7, 124
    a7c9:	2ffbe7        	bbsi	a11, 30, 0xa7fc
    a7cc:	3617c2        	l16ui	a12, a7, 108
    a7cf:	372192        	l32i	a9, a1, 220
    a7d2:	266c87        	bbci	a12, 8, 0xa7fc
    a7d5:	4129d2        	l32i	a13, a9, 0x104
    a7d8:	402992        	l32i	a9, a9, 0x100
    a7db:	0dcc      	bnez.n	a13, 0xa7df
    a7dd:	b99c      	beqz.n	a9, 0xa7fc
    a7df:	41a8      	l32i.n	a10, a1, 16
    a7e1:	5aa8      	l32i.n	a10, a10, 20
    a7e3:	41a9      	s32i.n	a10, a1, 16
    a7e5:	3acc      	bnez.n	a10, 0xa7ec
    a7e7:	10c1b2        	addi	a11, a1, 16
    a7ea:	51b9      	s32i.n	a11, a1, 20
    a7ec:	5599      	s32i.n	a9, a5, 20
    a7ee:	3721d2        	l32i	a13, a1, 220
    a7f1:	49cc      	bnez.n	a9, 0xa7f9
    a7f3:	2c21c2        	l32i	a12, a1, 176
    a7f6:	c664c2        	s32i	a12, a4, 0x318
    a7f9:	406d52        	s32i	a5, a13, 0x100
    a7fc:	4198      	l32i.n	a9, a1, 16
    a7fe:	3421b2        	l32i	a11, a1, 208
    a801:	f98c      	beqz.n	a9, 0xa814
    a803:	10c1e2        	addi	a14, a1, 16
    a806:	0f0c      	movi.n	a15, 0
    a808:	91a8      	l32i.n	a10, a1, 36
    a80a:	5188      	l32i.n	a8, a1, 20
    a80c:	0a99      	s32i.n	a9, a10, 0
    a80e:	9189      	s32i.n	a8, a1, 36
    a810:	41f9      	s32i.n	a15, a1, 16
    a812:	51e9      	s32i.n	a14, a1, 20
    a814:	bb1b      	addi.n	a11, a11, 1
    a816:	0c0c      	movi.n	a12, 0
    a818:	1841c2        	s8i	a12, a1, 24
    a81b:	0d51c2        	s16i	a12, a1, 26
    a81e:	3461b2        	s32i	a11, a1, 208
    a821:	feeb86        	j	0xa3d3
    a824:	e50b      	addi.n	a14, a5, -1
    a826:	1d0c      	movi.n	a13, 1
    a828:	0b0c      	movi.n	a11, 0
    a82a:	5fbde0        	excw
    a82d:	cd8207        	bany	a2, a0, 0xa7fe
    a830:	0b5f20        	excw
    a833:	dd5f84        	excw
    a836:	0abd03        	excw
    a839:	7fc1c2        	addi	a12, a1, 127
    a83c:	744981        	l32r	a8, 0xfffe7960
    a83f:	21ccc2        	addi	a12, a12, 33
    a842:	5f          	.byte 0x5f
    a843:	4f9c07        	bne	a12, a0, 0xa896
    a846:	fdc5d2        	addi	a13, a5, -3
    a849:	d78d16        	beqz	a13, 0xa5c5
    a84c:	042566        	bnei	a5, 2, 0xa854
    a84f:	5b0c      	movi.n	a11, 5
    a851:	ff5c86        	j	0xa5c7
    a854:	f50b      	addi.n	a15, a5, -1
    a856:	1e0c      	movi.n	a14, 1
    a858:	0b0c      	movi.n	a11, 0
    a85a:	83bef0        	moveqz	a11, a14, a15
    a85d:	ff5986        	j	0xa5c7
    a860:	7a07b2        	l8ui	a11, a7, 122
    a863:	04ad      	mov.n	a10, a4
    a865:	10c1c2        	addi	a12, a1, 16
    a868:	740f81        	l32r	a8, 0xfffe78a4
    a86b:	f1f8      	l32i.n	a15, a1, 60
    a86d:	372882        	l32i	a8, a8, 220
    a870:	e1e8      	l32i.n	a14, a1, 56
    a872:	5f          	.byte 0x5f
    a873:	548705        	call0	0x5f0e4
    a876:	099237        	bne	a2, a3, 0xa883
    a879:	1956e1        	l32r	a14, 0xfffd0dd4
    a87c:	a1d2f7        	bbs	a2, a15, 0xa821
    a87f:	24a244        	excw
    a882:	d4dac7        	bbs	a10, a12, 0xa85a
    a885:	04a7a0        	extui	a10, a10, 7, 1
    a888:	f63a16        	beqz	a10, 0xa7ef
    a88b:	5f          	.byte 0x5f
    a88c:	8208      	l32i.n	a0, a2, 32
    a88e:	72bb      	addi.n	a7, a2, 11
    a890:	5f0d      	excw
    a892:	820a      	add.n	a8, a2, a0
    a894:	72bb      	addi.n	a7, a2, 11
    a896:	04bd      	mov.n	a11, a4
    a898:	ffa0c2        	movi	a12, 255
    a89b:	80a0d2        	movi	a13, 128
    a89e:	742081        	l32r	a8, 0xfffe7920
    a8a1:	3721a2        	l32i	a10, a1, 220
    a8a4:	3888      	l32i.n	a8, a8, 12
    a8a6:	7aa8      	l32i.n	a10, a10, 28
    a8a8:	0008e0        	excw
    a8ab:	ffce06        	j	0xa7e7
    a8ae:	7429b1        	l32r	a11, 0xfffe7954
    a8b1:	0bb8      	l32i.n	a11, a11, 0
    a8b3:	fa0b16        	beqz	a11, 0xa857
    a8b6:	3617c2        	l16ui	a12, a7, 108
    a8b9:	9a6c87        	bbci	a12, 8, 0xa857
    a8bc:	97f9e7        	bbsi	a9, 30, 0xa857
    a8bf:	10c1c2        	addi	a12, a1, 16
    a8c2:	0f0c      	movi.n	a15, 0
    a8c4:	0e0c      	movi.n	a14, 0
    a8c6:	740f81        	l32r	a8, 0xfffe7904
    a8c9:	090c      	movi.n	a9, 0
    a8cb:	0a0c      	movi.n	a10, 0
    a8cd:	e1a9      	s32i.n	a10, a1, 56
    a8cf:	f199      	s32i.n	a9, a1, 60
    a8d1:	04ad      	mov.n	a10, a4
    a8d3:	372882        	l32i	a8, a8, 220
    a8d6:	5f07b2        	l8ui	a11, a7, 95
    a8d9:	e33105        	call0	0xfffedbec
    a8dc:	ff          	.byte 0xff
    a8dd:	38c1a2        	addi	a10, a1, 56
    a8e0:	8c0c      	movi.n	a12, 8
    a8e2:	740081        	l32r	a8, 0xfffe78e4
    a8e5:	1c25b2        	l32i	a11, a5, 112
    a8e8:	3f2882        	l32i	a8, a8, 252
    a8eb:	8b98      	l32i.n	a9, a11, 32
    a8ed:	14cbb2        	addi	a11, a11, 20
    a8f0:	b49190        	extui	a9, a9, 1, 12
    a8f3:	1a5192        	s16i	a9, a1, 52
    a8f6:	0008e0        	excw
    a8f9:	ff5346        	j	0xa64a
    a8fc:	090c      	movi.n	a9, 0
    a8fe:	1c0c      	movi.n	a12, 1
    a900:	5f2bc6        	j	0x225b3
    a903:	349e05        	call0	0x3f2e4
    a906:	75f351        	l32r	a5, 0xfffe80d4
    a909:	740021        	l32r	a2, 0xfffe790c
    a90c:	740f81        	l32r	a8, 0xfffe7948
    a90f:	562222        	l32i	a2, a2, 0x158
    a912:	75f541        	l32r	a4, 0xfffe80e8
    a915:	1228      	l32i.n	a2, a2, 4
    a917:	166842        	s32i	a4, a8, 88
    a91a:	053266        	bnei	a2, 3, 0xa923
    a91d:	630c      	movi.n	a3, 6
    a91f:	0539      	s32i.n	a3, a5, 0
    a921:	f01d      	excw
    a923:	5f          	.byte 0x5f
    a924:	9d8106        	j	0xffff1f2c
    a927:	0c5a      	add.n	a0, a12, a5
    a929:	29f683        	excw
    a92c:	930cf0        	movnez	a0, a12, a15
    a92f:	fffac6        	j	0xa91e
    a932:	006136        	excw
    a935:	75f661        	l32r	a6, 0xfffe8110
    a938:	0668      	l32i.n	a6, a6, 0
    a93a:	0668      	l32i.n	a6, a6, 0
    a93c:	0c06c2        	l8ui	a12, a6, 12
    a93f:	060c16        	beqz	a12, 0xa9a3
    a942:	040c      	movi.n	a4, 0
    a944:	28a382        	movi	a8, 0x328
    a947:	070c      	movi.n	a7, 0
    a949:	75f7b1        	l32r	a11, 0xfffe8128
    a94c:	0179      	s32i.n	a7, a1, 0
    a94e:	740f71        	l32r	a7, 0xfffe798c
    a951:	0ba8      	l32i.n	a10, a11, 0
    a953:	c18480        	mul16u	a8, a4, a8
    a956:	1a2652        	l32i	a5, a6, 104
    a959:	030c      	movi.n	a3, 0
    a95b:	558a      	add.n	a5, a5, a8
    a95d:	341aa6        	blti	a10, 1, 0xa995
    a960:	400300        	ssr	a3
    a963:	b19020        	sra	a9, a2
    a966:	206907        	bbci	a9, 0, 0xa98a
    a969:	05ad      	mov.n	a10, a5
    a96b:	5f2782        	l32i	a8, a7, 0x17c
    a96e:	7cd706        	j	0x29cce
    a971:	75f7b1        	l32r	a11, 0xfffe8150
    a974:	ea8c      	beqz.n	a10, 0xa986
    a976:	aa98      	l32i.n	a9, a10, 40
    a978:	a9cc      	bnez.n	a9, 0xa986
    a97a:	01c8      	l32i.n	a12, a1, 0
    a97c:	1a0ad2        	l8ui	a13, a10, 26
    a97f:	ddca      	add.n	a13, a13, a12
    a981:	74c0d0        	extui	a12, a13, 0, 8
    a984:	01c9      	s32i.n	a12, a1, 0
    a986:	0ba8      	l32i.n	a10, a11, 0
    a988:	331b      	addi.n	a3, a3, 1
    a98a:	743030        	extui	a3, a3, 0, 8
    a98d:	cd23a7        	blt	a3, a10, 0xa95e
    a990:	0c06c2        	l8ui	a12, a6, 12
    a993:	075f82        	s16i	a8, a15, 14
    a996:	53c082        	addi	a8, a0, 83
    a999:	b234c7        	bltu	a4, a12, 0xa94f
    a99c:	0000c6        	j	0xa9a3
    a99f:	080c      	movi.n	a8, 0
    a9a1:	0189      	s32i.n	a8, a1, 0
    a9a3:	5f28      	l32i.n	a2, a15, 20
    a9a5:	8109      	s32i.n	a0, a1, 32
    a9a7:	de          	.byte 0xde
    a9a8:	8178      	l32i.n	a7, a1, 32
    a9aa:	0f          	.byte 0xf
    a9ab:	5f          	.byte 0x5f
    a9ac:	54a305        	call0	0x5f3e0
    a9af:	bd3b      	addi.n	a11, a13, 3
    a9b1:	5f          	.byte 0x5f
    a9b2:	3ae405        	call0	0x457f4
    a9b5:	780a      	add.n	a7, a8, a0
    a9b7:	33cca6        	blti	a12, 32, 0xa9ee
    a9ba:	190c      	movi.n	a9, 1
    a9bc:	0006c6        	j	0xa9db
    a9bf:	1a0c      	movi.n	a10, 1
    a9c1:	090c      	movi.n	a9, 0
    a9c3:	8c23c2        	l32i	a12, a3, 0x230
    a9c6:	75f8b1        	l32r	a11, 0xfffe81a8
    a9c9:	000cc2        	l8ui	a12, a12, 0
    a9cc:	001bb2        	l16ui	a11, a11, 0
    a9cf:	400c00        	ssr	a12
    a9d2:	b1b0b0        	sra	a11, a11
    a9d5:	04b0b0        	extui	a11, a11, 0, 1
    a9d8:	839ab0        	moveqz	a9, a10, a11
    a9db:	051766        	bnei	a7, 1, 0xa9e4
    a9de:	29cc      	bnez.n	a9, 0xa9e4
    a9e0:	0d0c      	movi.n	a13, 0
    a9e2:	a6d9      	s32i.n	a13, a6, 40
    a9e4:	5f          	.byte 0x5f
    a9e5:	2ad605        	call0	0x35748
    a9e8:	5ff9      	s32i.n	a15, a15, 20
    a9ea:	d60a      	add.n	a13, a6, a0
    a9ec:	792a      	add.n	a7, a9, a2
    a9ee:	f01da6        	blti	a13, 1, 0xa9e2
    a9f1:	006136        	excw
    a9f4:	3159      	s32i.n	a5, a1, 12
    a9f6:	2149      	s32i.n	a4, a1, 8
    a9f8:	32cc      	bnez.n	a2, 0xa9ff
    a9fa:	150c      	movi.n	a5, 1
    a9fc:	5f          	.byte 0x5f
    a9fd:	054706        	j	0xbf1d
    aa00:	5f22c2        	l32i	a12, a2, 0x17c
    aa03:	5a4714        	excw
    aa06:	0c5f83        	excw
    aa09:	0fc882        	addi	a8, a8, 15
    aa0c:	0c5fe3        	excw
    aa0f:	712c84        	excw
    aa12:	0f          	.byte 0xf
    aa13:	278274        	excw
    aa16:	5f3b      	addi.n	a5, a15, 3
    aa18:	4d5205        	call0	0x57f3c
    aa1b:	5f          	.byte 0x5f
    aa1c:	8208      	l32i.n	a0, a2, 32
    aa1e:	4b0ac4        	excw
    aa21:	5f          	.byte 0x5f
    aa22:	c88206        	j	0xffffcc2e
    aa25:	0c2935        	excw
    aa28:	5f3b      	addi.n	a5, a15, 3
    aa2a:	c78207        	bany	a2, a0, 0xa9f5
    aa2d:	7b1a      	add.n	a7, a11, a1
    aa2f:	5f          	.byte 0x5f
    aa30:	2308      	l32i.n	a0, a3, 8
    aa32:	0a7d      	mov.n	a7, a10
    aa34:	090c      	movi.n	a9, 0
    aa36:	948c      	beqz.n	a4, 0xaa43
    aa38:	a4a8      	l32i.n	a10, a4, 40
    aa3a:	01a9      	s32i.n	a10, a1, 0
    aa3c:	031a66        	bnei	a10, 1, 0xaa43
    aa3f:	05cc      	bnez.n	a5, 0xaa43
    aa41:	a499      	s32i.n	a9, a4, 40
    aa43:	978c      	beqz.n	a7, 0xaa50
    aa45:	a7b8      	l32i.n	a11, a7, 40
    aa47:	11b9      	s32i.n	a11, a1, 4
    aa49:	5f1b66        	bnei	a11, 1, 0xaaac
    aa4c:	a70d04        	excw
    aa4f:	06ed      	mov.n	a14, a6
    aa51:	03bd      	mov.n	a11, a3
    aa53:	02ad      	mov.n	a10, a2
    aa55:	75f981        	l32r	a8, 0xfffe823c
    aa58:	21c8      	l32i.n	a12, a1, 8
    aa5a:	1888      	l32i.n	a8, a8, 4
    aa5c:	31d8      	l32i.n	a13, a1, 12
    aa5e:	0008e0        	excw
    aa61:	248c      	beqz.n	a4, 0xaa67
    aa63:	0198      	l32i.n	a9, a1, 0
    aa65:	a499      	s32i.n	a9, a4, 40
    aa67:	278c      	beqz.n	a7, 0xaa6d
    aa69:	11a8      	l32i.n	a10, a1, 4
    aa6b:	a7a9      	s32i.n	a10, a7, 40
    aa6d:	5f          	.byte 0x5f
    aa6e:	40e407        	bbsi	a4, 0, 0xaab2
    aa71:	75fc      	bnez.n	a5, 0xaaac
    aa73:	75fb81        	l32r	a8, 0xfffe8260
    aa76:	75fa51        	l32r	a5, 0xfffe8260
    aa79:	742691        	l32r	a9, 0xfffe7b14
    aa7c:	742731        	l32r	a3, 0xfffe7b18
    aa7f:	0998      	l32i.n	a9, a9, 0
    aa81:	0338      	l32i.n	a3, a3, 0
    aa83:	9959      	s32i.n	a5, a9, 36
    aa85:	75f951        	l32r	a5, 0xfffe826c
    aa88:	1948      	l32i.n	a4, a9, 4
    aa8a:	0549      	s32i.n	a4, a5, 0
    aa8c:	1989      	s32i.n	a8, a9, 4
    aa8e:	7348      	l32i.n	a4, a3, 28
    aa90:	1549      	s32i.n	a4, a5, 4
    aa92:	7329      	s32i.n	a2, a3, 28
    aa94:	5f          	.byte 0x5f
    aa95:	b109      	s32i.n	a0, a1, 44
    aa97:	5ffd10        	excw
    aa9a:	1f9205        	call0	0x2a3bc
    aa9d:	932b      	addi.n	a9, a3, 2
    aa9f:	060c      	movi.n	a6, 0
    aaa1:	75fe91        	l32r	a9, 0xfffe829c
    aaa4:	fc7c      	movi.n	a12, -1
    aaa6:	01a0a2        	movi	a10, 1
    aaa9:	0da022        	movi	a2, 13
    aaac:	18a276        	excw
    aaaf:	401600        	ssl	a6
    aab2:	661b      	addi.n	a6, a6, 1
    aab4:	a17a00        	sll	a7, a10
    aab7:	0b0477        	bnone	a4, a7, 0xaac6
    aaba:	0958      	l32i.n	a5, a9, 0
    aabc:	639c      	beqz.n	a3, 0xaad6
    aabe:	208780        	or	a8, a7, a8
    aac1:	205750        	or	a5, a7, a5
    aac4:	0959      	s32i.n	a5, a9, 0
    aac6:	f03d      	nop.n
    aac8:	5f          	.byte 0x5f
    aac9:	739105        	call0	0x7e3dc
    aacc:	055f93        	excw
    aacf:	933693        	excw
    aad2:	f01d      	excw
    aad4:	30d7c0        	xor	a13, a7, a12
    aad7:	108d80        	and	a8, a13, a8
    aada:	105d50        	and	a5, a13, a5
    aadd:	5ff846        	j	0x22ac2
    aae0:	2c8405        	call0	0x37324
    aae3:	75b131        	l32r	a3, 0xfffe81a8
    aae6:	5fff21        	l32r	a2, 0xfffe2ae4
    aae9:	cd09      	s32i.n	a0, a13, 48
    aaeb:	4158      	l32i.n	a5, a1, 16
    aaed:	cba100        	excw
    aaf0:	190c75        	excw
    aaf3:	28a182        	movi	a8, 0x128
    aaf6:	c62322        	l32i	a2, a3, 0x318
    aaf9:	740031        	l32r	a3, 0xfffe7afc
    aafc:	228a      	add.n	a2, a2, a8
    aafe:	0a99      	s32i.n	a9, a10, 0
    ab00:	5f2382        	l32i	a8, a3, 0x17c
    ab03:	820a      	add.n	a8, a2, a0
    ab05:	4689      	s32i.n	a8, a6, 16
    ab07:	c8a0c2        	movi	a12, 200
    ab0a:	5f2382        	l32i	a8, a3, 0x17c
    ab0d:	f509      	s32i.n	a0, a5, 60
    ab0f:	2f          	.byte 0x2f
    ab10:	5f          	.byte 0x5f
    ab11:	808206        	j	0xfffead1d
    ab14:	5f7624        	excw
    ab17:	7d8207        	bany	a2, a0, 0xab98
    ab1a:	75bda1        	l32r	a10, 0xfffe8210
    ab1d:	7601b1        	l32r	a11, 0xfffe8324
    ab20:	740021        	l32r	a2, 0xfffe7b20
    ab23:	746431        	l32r	a3, 0xfffe7cb4
    ab26:	702282        	l32i	a8, a2, 0x1c0
    ab29:	5fc8      	l32i.n	a12, a15, 20
    ab2b:	39fe05        	call0	0x44b0c
    ab2e:	b17602        	excw
    ab31:	5f7603        	excw
    ab34:	0e08      	l32i.n	a0, a14, 0
    ab36:	742b51        	l32r	a5, 0xfffe7be4
    ab39:	000592        	l8ui	a9, a5, 0
    ab3c:	75ad41        	l32r	a4, 0xfffe81f0
    ab3f:	699c      	beqz.n	a9, 0xab59
    ab41:	020c      	movi.n	a2, 0
    ab43:	a0a230        	addx4	a10, a2, a3
    ab46:	552482        	l32i	a8, a4, 0x154
    ab49:	5f          	.byte 0x5f
    ab4a:	41eb05        	call0	0x4c9fc
    ab4d:	5f05b2        	l8ui	a11, a5, 95
    ab50:	ab8106        	j	0xffff5958
    ab53:	32b772        	excw
    ab56:	5fe9      	s32i.n	a14, a15, 20
    ab58:	408305        	call0	0x4b38c
    ab5b:	7604a1        	l32r	a10, 0xfffe836c
    ab5e:	13b8      	l32i.n	a11, a3, 4
    ab60:	740081        	l32r	a8, 0xfffe7b60
    ab63:	c62252        	l32i	a5, a2, 0x318
    ab66:	03c8      	l32i.n	a12, a3, 0
    ab68:	922542        	l32i	a4, a5, 0x248
    ab6b:	11cc00        	slli	a12, a12, 16
    ab6e:	a02882        	l32i	a8, a8, 0x280
    ab71:	5f          	.byte 0x5f
    ab72:	1aca06        	j	0x1169e
    ab75:	8c24c2        	l32i	a12, a4, 0x230
    ab78:	0159      	s32i.n	a5, a1, 0
    ab7a:	fcccd2        	addi	a13, a12, -4
    ab7d:	0c6d16        	beqz	a13, 0xac47
    ab80:	fbcce2        	addi	a14, a12, -5
    ab83:	0c0e16        	beqz	a14, 0xac47
    ab86:	0398      	l32i.n	a9, a3, 0
    ab88:	170c      	movi.n	a7, 1
    ab8a:	5f89b6        	bltui	a9, 8, 0xabed
    ab8d:	69d605        	call0	0x748f0
    ab90:	7600a1        	l32r	a10, 0xfffe8390
    ab93:	13d8      	l32i.n	a13, a3, 4
    ab95:	fe7c      	movi.n	a14, -1
    ab97:	285966        	bnei	a9, 5, 0xabc3
    ab9a:	7924b2        	l32i	a11, a4, 0x1e4
    ab9d:	fecdf2        	addi	a15, a13, -2
    aba0:	0dbf56        	bnez	a15, 0xac7f
    aba3:	0aeb16        	beqz	a11, 0xac55
    aba6:	8b0b      	addi.n	a8, a11, -1
    aba8:	401900        	ssl	a9
    abab:	a1c700        	sll	a12, a7
    abae:	796482        	s32i	a8, a4, 0x1e4
    abb1:	1ab8      	l32i.n	a11, a10, 4
    abb3:	115856        	bnez	a8, 0xaccc
    abb6:	360c      	movi.n	a6, 3
    abb8:	309ce0        	xor	a9, a12, a14
    abbb:	10bb90        	and	a11, a11, a9
    abbe:	1ab9      	s32i.n	a11, a10, 4
    abc0:	0009c6        	j	0xabeb
    abc3:	1ab8      	l32i.n	a11, a10, 4
    abc5:	5f          	.byte 0x5f
    abc6:	661d06        	j	0x2443e
    abc9:	122d      	excw
    abcb:	028cb7        	bany	a12, a11, 0xabd1
    abce:	002006        	j	0xac52
    abd1:	360c      	movi.n	a6, 3
    abd3:	30dce0        	xor	a13, a12, a14
    abd6:	045fd0        	extui	a5, a13, 15, 1
    abd9:	1e          	.byte 0x1e
    abda:	000246        	j	0xabe7
    abdd:	708cb7        	bany	a12, a11, 0xac51
    abe0:	260c      	movi.n	a6, 2
    abe2:	20bcb0        	or	a11, a12, a11
    abe5:	1ab9      	s32i.n	a11, a10, 4
    abe7:	8c24c2        	l32i	a12, a4, 0x230
    abea:	674c26        	beqi	a12, 4, 0xac55
    abed:	645c26        	beqi	a12, 5, 0xac55
    abf0:	050c      	movi.n	a5, 0
    abf2:	25dc      	bnez.n	a5, 0xac08
    abf4:	04e3b0        	extui	a14, a11, 3, 1
    abf7:	0ade16        	beqz	a14, 0xaca8
    abfa:	260c      	movi.n	a6, 2
    abfc:	350c      	movi.n	a5, 3
    abfe:	000186        	j	0xac08
    ac01:	036b57        	bbci	a11, 5, 0xac08
    ac04:	260c      	movi.n	a6, 2
    ac06:	550c      	movi.n	a5, 5
    ac08:	744981        	l32r	a8, 0xfffe7d2c
    ac0b:	5f2882        	l32i	a8, a8, 0x17c
    ac0e:	d98106        	j	0x1216
    ac11:	bc3b      	addi.n	a11, a12, 3
    ac13:	01a8a5        	excw
    ac16:	401500        	ssl	a5
    ac19:	a19700        	sll	a9, a7
    ac1c:	906492        	s32i	a9, a4, 0x240
    ac1f:	0359      	s32i.n	a5, a3, 0
    ac21:	042626        	beqi	a6, 2, 0xac29
    ac24:	033666        	bnei	a6, 3, 0xac2b
    ac27:	270c      	movi.n	a7, 2
    ac29:	1379      	s32i.n	a7, a3, 4
    ac2b:	3c2aa2        	l32i	a10, a10, 240
    ac2e:	1efa87        	bbsi	a10, 24, 0xac50
    ac31:	760081        	l32r	a8, 0xfffe8434
    ac34:	02ad      	mov.n	a10, a2
    ac36:	2888      	l32i.n	a8, a8, 8
    ac38:	5f          	.byte 0x5f
    ac39:	8109      	s32i.n	a0, a1, 32
    ac3b:	817084        	excw
    ac3e:	75ea      	add.n	a7, a5, a14
    ac40:	02ad      	mov.n	a10, a2
    ac42:	a888      	l32i.n	a8, a8, 40
    ac44:	5f          	.byte 0x5f
    ac45:	561005        	call0	0x60d48
    ac48:	f2fa      	add.n	a15, a2, a15
    ac4a:	020c      	movi.n	a2, 0
    ac4c:	f01d      	excw
    ac4e:	0c6b57        	bbci	a11, 5, 0xac5e
    ac51:	7d2492        	l32i	a9, a4, 0x1f4
    ac54:	0629b6        	bltui	a9, 2, 0xac5e
    ac57:	5f          	.byte 0x5f
    ac58:	065a04        	excw
    ac5b:	17ffe3        	excw
    ac5e:	296b      	addi.n	a2, a9, 6
    ac60:	1f24c2        	l32i	a12, a4, 124
    ac63:	436c07        	bbci	a12, 0, 0xacaa
    ac66:	1e24d2        	l32i	a13, a4, 120
    ac69:	5d9df6        	bgeui	a13, 10, 0xacca
    ac6c:	260c      	movi.n	a6, 2
    ac6e:	150c      	movi.n	a5, 1
    ac70:	ffdd86        	j	0xabea
    ac73:	260c      	movi.n	a6, 2
    ac75:	401900        	ssl	a9
    ac78:	db1b      	addi.n	a13, a11, 1
    ac7a:	7964d2        	s32i	a13, a4, 0x1e4
    ac7d:	1ab8      	l32i.n	a11, a10, 4
    ac7f:	a1c700        	sll	a12, a7
    ac82:	20bbc0        	or	a11, a11, a12
    ac85:	1ab9      	s32i.n	a11, a10, 4
    ac87:	ffd506        	j	0xabdf
    ac8a:	236b47        	bbci	a11, 4, 0xacb1
    ac8d:	1f24e2        	l32i	a14, a4, 124
    ac90:	3b6e07        	bbci	a14, 0, 0xaccf
    ac93:	1e24f2        	l32i	a15, a4, 120
    ac96:	499ff6        	bgeui	a15, 10, 0xace3
    ac99:	260c      	movi.n	a6, 2
    ac9b:	450c      	movi.n	a5, 4
    ac9d:	ffd246        	j	0xabea
    aca0:	126b27        	bbci	a11, 2, 0xacb6
    aca3:	260c      	movi.n	a6, 2
    aca5:	250c      	movi.n	a5, 2
    aca7:	ffd546        	j	0xac00
    acaa:	5f          	.byte 0x5f
    acab:	063e04        	excw
    acae:	ce          	.byte 0xce
    acaf:	ff          	.byte 0xff
    acb0:	050c      	movi.n	a5, 0
    acb2:	ffccc6        	j	0xabe9
    acb5:	1c6b17        	bbci	a11, 1, 0xacd5
    acb8:	5f          	.byte 0x5f
    acb9:	c60f04        	excw
    acbc:	cf          	.byte 0xcf
    acbd:	ff          	.byte 0xff
    acbe:	5f          	.byte 0x5f
    acbf:	688107        	bany	a1, a0, 0xad2b
    acc2:	ffc506        	j	0xabda
    acc5:	050c      	movi.n	a5, 0
    acc7:	5fc686        	j	0x22be5
    acca:	452504        	excw
    accd:	ffc4c6        	j	0xabe4
    acd0:	0484b0        	extui	a8, a11, 4, 1
    acd3:	f1c816        	beqz	a8, 0xabf3
    acd6:	5f          	.byte 0x5f
    acd7:	060d04        	excw
    acda:	0cffc7        	bbsi	a15, 28, 0xacea
    acdd:	c04605        	call0	0xfffcb140
    ace0:	5f          	.byte 0x5f
    ace1:	348405        	call0	0x3f524
    ace4:	c62252        	l32i	a5, a2, 0x318
    ace7:	759b71        	l32r	a7, 0xfffe8354
    acea:	922552        	l32i	a5, a5, 0x248
    aced:	7464c1        	l32r	a12, 0xfffe7e80
    acf0:	8c2592        	l32i	a9, a5, 0x230
    acf3:	75ad41        	l32r	a4, 0xfffe83a8
    acf6:	044926        	beqi	a9, 4, 0xacfe
    acf9:	015926        	beqi	a9, 5, 0xacfe
    acfc:	f01d      	excw
    acfe:	8b25a2        	l32i	a10, a5, 0x22c
    ad01:	114316        	beqz	a3, 0xae19
    ad04:	f4fa97        	bbsi	a10, 25, 0xacfc
    ad07:	0c38      	l32i.n	a3, a12, 0
    ad09:	c62362        	l32i	a6, a3, 0x318
    ad0c:	3c26c2        	l32i	a12, a6, 240
    ad0f:	0e6c37        	bbci	a12, 3, 0xad21
    ad12:	5f          	.byte 0x5f
    ad13:	6ba406        	j	0x25ba7
    ad16:	065f11        	l32r	a1, 0xfffcc694
    ad19:	6ae8      	l32i.n	a14, a10, 24
    ad1b:	073c26        	beqi	a12, 3, 0xad26
    ad1e:	6a6c      	movi.n	a10, -26
    ad20:	02ad      	mov.n	a10, a2
    ad22:	5f2482        	l32i	a8, a4, 0x17c
    ad25:	43aa06        	j	0x1bbd1
    ad28:	3c26c2        	l32i	a12, a6, 240
    ad2b:	03ad      	mov.n	a10, a3
    ad2d:	0b0c      	movi.n	a11, 0
    ad2f:	75bc91        	l32r	a9, 0xfffe8420
    ad32:	5c2482        	l32i	a8, a4, 0x170
    ad35:	109c90        	and	a9, a12, a9
    ad38:	3c6692        	s32i	a9, a6, 240
    ad3b:	5f          	.byte 0x5f
    ad3c:	609d05        	call0	0x6b710
    ad3f:	5d2482        	l32i	a8, a4, 0x174
    ad42:	5f          	.byte 0x5f
    ad43:	8e8107        	bany	a1, a0, 0xacd5
    ad46:	248241        	l32r	a4, 0xfffd3f50
    ad49:	095f17        	bbc	a15, a1, 0xad56
    ad4c:	5c0a      	add.n	a5, a12, a0
    ad4e:	5f          	.byte 0x5f
    ad4f:	0a09      	s32i.n	a0, a10, 0
    ad51:	5f          	.byte 0x5f
    ad52:	5f1e06        	j	0x229ce
    ad55:	3a8205        	call0	0x45578
    ad58:	152882        	l32i	a8, a8, 84
    ad5b:	5f          	.byte 0x5f
    ad5c:	679705        	call0	0x726d0
    ad5f:	02ad      	mov.n	a10, a2
    ad61:	8b0c      	movi.n	a11, 8
    ad63:	3488      	l32i.n	a8, a4, 12
    ad65:	5f          	.byte 0x5f
    ad66:	926605        	call0	0xfff9d3c8
    ad69:	708b25        	excw
    ad6c:	2099      	s32i.n	a9, a0, 8
    ad6e:	8b6592        	s32i	a9, a5, 0x22c
    ad71:	f01d      	excw
    ad73:	227c37        	bbci	a12, 19, 0xad99
    ad76:	02ad      	mov.n	a10, a2
    ad78:	1b0c      	movi.n	a11, 1
    ad7a:	760591        	l32r	a9, 0xfffe8590
    ad7d:	2488      	l32i.n	a8, a4, 8
    ad7f:	5f          	.byte 0x5f
    ad80:	6009      	s32i.n	a0, a0, 24
    ad82:	5f          	.byte 0x5f
    ad83:	01bd05        	call0	0xc954
    ad86:	2882a0        	excw
    ad89:	6e          	.byte 0x6e
    ad8a:	a6aa      	add.n	a10, a6, a10
    ad8c:	0008e0        	excw
    ad8f:	ffde06        	j	0xad0b
    ad92:	0f6c47        	bbci	a12, 4, 0xada5
    ad95:	f96c      	movi.n	a9, -17
    ad97:	0a0c      	movi.n	a10, 0
    ad99:	3e66a2        	s32i	a10, a6, 248
    ad9c:	10cc90        	and	a12, a12, a9
    ad9f:	3c66c2        	s32i	a12, a6, 240
    ada2:	ffda06        	j	0xad0e
    ada5:	5f6c17        	bbci	a12, 1, 0xae08
    ada8:	0b3904        	excw
    adab:	4d0c      	movi.n	a13, 4
    adad:	4425c2        	l32i	a12, a5, 0x110
    adb0:	760681        	l32r	a8, 0xfffe85c8
    adb3:	10ccd0        	and	a12, a12, a13
    adb6:	4888      	l32i.n	a8, a8, 16
    adb8:	5f          	.byte 0x5f
    adb9:	ef8106        	j	0x6bc1
    adbc:	820262        	l8ui	a6, a2, 130
    adbf:	5f1b24        	excw
    adc2:	3d8105        	call0	0x485d4
    adc5:	ffcfc6        	j	0xad08
    adc8:	0c7c47        	bbci	a12, 20, 0xadd8
    adcb:	5f          	.byte 0x5f
    adcc:	561004        	excw
    adcf:	5f          	.byte 0x5f
    add0:	cb1006        	j	0xffffda14
    add3:	ff          	.byte 0xff
    add4:	08ec27        	bbsi	a12, 2, 0xade0
    add7:	5f2692        	l32i	a9, a6, 0x17c
    adda:	47a105        	call0	0x527ec
    addd:	f269      	s32i.n	a6, a2, 60
    addf:	5f          	.byte 0x5f
    ade0:	a60c      	movi.n	a6, 10
    ade2:	c50663        	excw
    ade5:	ff          	.byte 0xff
    ade6:	0599a0        	extui	a9, a10, 25, 1
    ade9:	edc916        	beqz	a9, 0xacc9
    adec:	75b661        	l32r	a6, 0xfffe84c4
    adef:	b688      	l32i.n	a8, a6, 44
    adf1:	5f          	.byte 0x5f
    adf2:	31a505        	call0	0x3c844
    adf5:	746431        	l32r	a3, 0xfffe7f88
    adf8:	1b0c      	movi.n	a11, 1
    adfa:	0338      	l32i.n	a3, a3, 0
    adfc:	5d2482        	l32i	a8, a4, 0x174
    adff:	5f          	.byte 0x5f
    ae00:	0cfc07        	bbsi	a12, 16, 0xae10
    ae03:	5c2482        	l32i	a8, a4, 0x170
    ae06:	fb7c      	movi.n	a11, -1
    ae08:	5f          	.byte 0x5f
    ae09:	3e8105        	call0	0x4961c
    ae0c:	693790        	excw
    ae0f:	ad0d      	excw
    ae11:	3b0c03        	excw
    ae14:	f488      	l32i.n	a8, a4, 60
    ae16:	5f          	.byte 0x5f
    ae17:	0bb905        	call0	0x169a8
    ae1a:	001346        	j	0xae6b
    ae1d:	055f17        	bbc	a15, a1, 0xae26
    ae20:	5f1b11        	l32r	a1, 0xfffe2a8c
    ae23:	921107        	beq	a1, a0, 0xadb9
    ae26:	479025        	excw
    ae29:	5f          	.byte 0x5f
    ae2a:	4b1105        	call0	0x55f3c
    ae2d:	5f          	.byte 0x5f
    ae2e:	c61107        	beq	a1, a0, 0xadf8
    ae31:	000a      	add.n	a0, a0, a0
    ae33:	055f27        	bbc	a15, a2, 0xae3c
    ae36:	5f2b11        	l32r	a1, 0xfffe2ae4
    ae39:	861107        	beq	a1, a0, 0xadc3
    ae3c:	570006        	j	0x20a40
    ae3f:	5f          	.byte 0x5f
    ae40:	5b1105        	call0	0x65f54
    ae43:	5f          	.byte 0x5f
    ae44:	4408      	l32i.n	a0, a4, 16
    ae46:	055f02        	s16i	a0, a15, 10
    ae49:	065f62        	s16i	a6, a15, 12
    ae4c:	5f4aa7        	ball	a10, a10, 0xaeaf
    ae4f:	428206        	j	0x1b85b
    ae52:	5f          	.byte 0x5f
    ae53:	0a08      	l32i.n	a0, a10, 0
    ae55:	5f          	.byte 0x5f
    ae56:	5f7606        	j	0x22c32
    ae59:	168107        	bany	a1, a0, 0xae73
    ae5c:	5f          	.byte 0x5f
    ae5d:	8209      	s32i.n	a0, a2, 32
    ae5f:	075f53        	excw
    ae62:	22ba81        	l32r	a8, 0xfffd394c
    ae65:	881b      	addi.n	a8, a8, 1
    ae67:	055f34        	excw
    ae6a:	a14181        	l32r	a8, 0xffff3370
    ae6d:	927607        	bbci	a6, 16, 0xae03
    ae70:	a08b25        	excw
    ae73:	1099      	s32i.n	a9, a0, 4
    ae75:	5f          	.byte 0x5f
    ae76:	568205        	call0	0x61698
    ae79:	5f          	.byte 0x5f
    ae7a:	048406        	j	0xc08e
    ae7d:	922542        	l32i	a4, a5, 0x248
    ae80:	3f6532        	s32i	a3, a5, 252
    ae83:	8c24a2        	l32i	a10, a4, 0x230
    ae86:	760061        	l32r	a6, 0xfffe8688
    ae89:	04da16        	beqz	a10, 0xaeda
    ae8c:	0f8326        	beqi	a3, 8, 0xae9f
    ae8f:	980c      	movi.n	a8, 9
    ae91:	169387        	bne	a3, a8, 0xaeab
    ae94:	444a26        	beqi	a10, 4, 0xaedc
    ae97:	415a26        	beqi	a10, 5, 0xaedc
    ae9a:	190c      	movi.n	a9, 1
    ae9c:	000646        	j	0xaeb9
    ae9f:	024a26        	beqi	a10, 4, 0xaea5
    aea2:	055a66        	bnei	a10, 5, 0xaeab
    aea5:	0c0692        	l8ui	a9, a6, 12
    aea8:	041926        	beqi	a9, 1, 0xaeb0
    aeab:	190c      	movi.n	a9, 1
    aead:	5f0206        	j	0x22ab9
    aeb0:	e55205        	call0	0xffff03d4
    aeb3:	ffdb      	addi.n	a15, a15, 13
    aeb5:	090c      	movi.n	a9, 0
    aeb7:	8b24a2        	l32i	a10, a4, 0x22c
    aeba:	1afa97        	bbsi	a10, 25, 0xaed8
    aebd:	0b2366        	bnei	a3, 2, 0xaecc
    aec0:	3c25b2        	l32i	a11, a5, 240
    aec3:	7fafc2        	movi	a12, -129
    aec6:	10bbc0        	and	a11, a11, a12
    aec9:	3c65b2        	s32i	a11, a5, 240
    aecc:	081966        	bnei	a9, 1, 0xaed8
    aecf:	03bd      	mov.n	a11, a3
    aed1:	4688      	l32i.n	a8, a6, 16
    aed3:	5f          	.byte 0x5f
    aed4:	ac08      	l32i.n	a0, a12, 40
    aed6:	0c0652        	l8ui	a5, a6, 12
    aed9:	b71966        	bnei	a9, 1, 0xae94
    aedc:	02ad      	mov.n	a10, a2
    aede:	0b0c      	movi.n	a11, 0
    aee0:	ffd8e5        	excw
    aee3:	090c      	movi.n	a9, 0
    aee5:	5ff286        	j	0x22eb3
    aee8:	7c8405        	call0	0x8772c
    aeeb:	c62262        	l32i	a6, a2, 0x318
    aeee:	922662        	l32i	a6, a6, 0x248
    aef1:	8c2682        	l32i	a8, a6, 0x230
    aef4:	f8ac      	beqz.n	a8, 0xaf27
    aef6:	5f          	.byte 0x5f
    aef7:	7e8b05        	call0	0x897a8
    aefa:	bd7600        	excw
    aefd:	075f03        	excw
    af00:	920392        	l8ui	a9, a3, 146
    af03:	978b26        	beqi	a11, 8, 0xae9e
    af06:	1a79      	s32i.n	a7, a10, 4
    af08:	5f          	.byte 0x5f
    af09:	0f          	.byte 0xf
    af0a:	811584        	excw
    af0d:	75ad      	excw
    af0f:	8b0c      	movi.n	a11, 8
    af11:	3888      	l32i.n	a8, a8, 12
    af13:	5f          	.byte 0x5f
    af14:	810b      	addi.n	a8, a1, -1
    af16:	208a      	add.n	a2, a0, a8
    af18:	5f          	.byte 0x5f
    af19:	34ac05        	call0	0x3f9dc
    af1c:	c622a2        	l32i	a10, a2, 0x318
    af1f:	302866        	bnei	a8, 2, 0xaf53
    af22:	75cb91        	l32r	a9, 0xfffe8650
    af25:	0998      	l32i.n	a9, a9, 0
    af27:	281966        	bnei	a9, 1, 0xaf53
    af2a:	43b8      	l32i.n	a11, a3, 16
    af2c:	1f2bb2        	l32i	a11, a11, 124
    af2f:	2c6b37        	bbci	a11, 3, 0xaf5f
    af32:	28a122        	movi	a2, 0x128
    af35:	740031        	l32r	a3, 0xfffe7f38
    af38:	2a2a      	add.n	a2, a10, a2
    af3a:	5f          	.byte 0x5f
    af3b:	8919      	s32i.n	a1, a9, 32
    af3d:	065f73        	excw
    af40:	6f          	.byte 0x6f
    af41:	5f          	.byte 0x5f
    af42:	bc8206        	j	0xffffa14e
    af45:	085f73        	excw
    af48:	28fb      	addi.n	a2, a8, 15
    af4a:	5f          	.byte 0x5f
    af4b:	284c06        	j	0x1507f
    af4e:	5f          	.byte 0x5f
    af4f:	204c07        	ball	a12, a0, 0xaf73
    af52:	5f          	.byte 0x5f
    af53:	5f4421        	l32r	a2, 0xfffe2c64
    af56:	8108      	l32i.n	a0, a1, 32
    af58:	095f35        	excw
    af5b:	5f16b4        	excw
    af5e:	18f806        	j	0x11342
    af61:	760a      	add.n	a7, a6, a0
    af63:	7609a1        	l32r	a10, 0xfffe8788
    af66:	7608b1        	l32r	a11, 0xfffe8788
    af69:	744931        	l32r	a3, 0xfffe8090
    af6c:	7600d1        	l32r	a13, 0xfffe876c
    af6f:	43e8      	l32i.n	a14, a3, 16
    af71:	33c8      	l32i.n	a12, a3, 12
    af73:	7dc9      	s32i.n	a12, a13, 28
    af75:	6de9      	s32i.n	a14, a13, 24
    af77:	73f8      	l32i.n	a15, a3, 28
    af79:	2328      	l32i.n	a2, a3, 8
    af7b:	162342        	l32i	a4, a3, 88
    af7e:	0388      	l32i.n	a8, a3, 0
    af80:	03b9      	s32i.n	a11, a3, 0
    af82:	1663a2        	s32i	a10, a3, 88
    af85:	2399      	s32i.n	a9, a3, 8
    af87:	5df9      	s32i.n	a15, a13, 20
    af89:	0d89      	s32i.n	a8, a13, 0
    af8b:	4d29      	s32i.n	a2, a13, 16
    af8d:	2d49      	s32i.n	a4, a13, 8
    af8f:	760d21        	l32r	a2, 0xfffe87c4
    af92:	760c41        	l32r	a4, 0xfffe87c4
    af95:	760b81        	l32r	a8, 0xfffe87c4
    af98:	7389      	s32i.n	a8, a3, 28
    af9a:	4349      	s32i.n	a4, a3, 16
    af9c:	3329      	s32i.n	a2, a3, 12
    af9e:	5f          	.byte 0x5f
    af9f:	b409      	s32i.n	a0, a4, 44
    afa1:	2a6210        	excw
    afa4:	b17192        	excw
    afa7:	268275        	excw
    afaa:	0c8b      	addi.n	a0, a12, 8
    afac:	078b      	addi.n	a0, a7, 8
    afae:	1978      	l32i.n	a7, a9, 4
    afb0:	5f          	.byte 0x5f
    afb1:	01b105        	call0	0xcac4
    afb4:	0ec1c7        	bnall	a1, a12, 0xafc6
    afb7:	085f76        	excw
    afba:	5a8c81        	l32r	a8, 0xfffe19ec
    afbd:	065fa7        	bbc	a15, a10, 0xafc7
    afc0:	1d0c      	movi.n	a13, 1
    afc2:	2692f0        	excw
    afc5:	d38c32        	excw
    afc8:	04a390        	extui	a10, a9, 3, 1
    afcb:	0b6a56        	bnez	a10, 0xb085
    afce:	20c9b0        	or	a12, a9, a11
    afd1:	3266c2        	s32i	a12, a6, 200
    afd4:	000546        	j	0xafed
    afd7:	026967        	bbci	a9, 6, 0xafdd
    afda:	0a7516        	beqz	a5, 0xb085
    afdd:	7e7c      	movi.n	a14, -9
    afdf:	10e9e0        	and	a14, a9, a14
    afe2:	3266e2        	s32i	a14, a6, 200
    afe5:	702ad2        	l32i	a13, a10, 0x1c0
    afe8:	1d8c      	beqz.n	a13, 0xafed
    afea:	097516        	beqz	a5, 0xb085
    afed:	4426f2        	l32i	a15, a6, 0x110
    aff0:	8d2692        	l32i	a9, a6, 0x234
    aff3:	216f37        	bbci	a15, 3, 0xb018
    aff6:	fec982        	addi	a8, a9, -2
    aff9:	0aa816        	beqz	a8, 0xb0a7
    affc:	0a2416        	beqz	a4, 0xb0a2
    afff:	02ad      	mov.n	a10, a2
    b001:	4788      	l32i.n	a8, a7, 16
    b003:	dca5b2        	movi	a11, 0x5dc
    b006:	5f          	.byte 0x5f
    b007:	bc8106        	j	0xffffa20f
    b00a:	374c      	movi.n	a7, 67
    b00c:	f4a1b2        	movi	a11, 0x1f4
    b00f:	0008e0        	excw
    b012:	440c      	movi.n	a4, 4
    b014:	000a86        	j	0xb042
    b017:	fec9a2        	addi	a10, a9, -2
    b01a:	088a16        	beqz	a10, 0xb0a6
    b01d:	8c2692        	l32i	a9, a6, 0x230
    b020:	fcc9b2        	addi	a11, a9, -4
    b023:	07fb16        	beqz	a11, 0xb0a6
    b026:	7c5926        	beqi	a9, 5, 0xb0a6
    b029:	47c8      	l32i.n	a12, a7, 16
    b02b:	086416        	beqz	a4, 0xb0b5
    b02e:	02ad      	mov.n	a10, a2
    b030:	5f          	.byte 0x5f
    b031:	0c2e04        	excw
    b034:	5f          	.byte 0x5f
    b035:	2e0c      	movi.n	a14, 2
    b037:	055fc4        	excw
    b03a:	7acb      	addi.n	a7, a10, 12
    b03c:	065f17        	bbc	a15, a1, 0xb046
    b03f:	bf          	.byte 0xbf
    b040:	8d2610        	excw
    b043:	322966        	bnei	a9, 2, 0xb079
    b046:	8c2692        	l32i	a9, a6, 0x230
    b049:	2c4926        	beqi	a9, 4, 0xb079
    b04c:	295926        	beqi	a9, 5, 0xb079
    b04f:	5f          	.byte 0x5f
    b050:	348107        	bany	a1, a0, 0xb088
    b053:	0f          	.byte 0xf
    b054:	5f          	.byte 0x5f
    b055:	810b      	addi.n	a8, a1, -1
    b057:	055f34        	excw
    b05a:	cd0c      	movi.n	a13, 12
    b05c:	085f04        	excw
    b05f:	75b9      	s32i.n	a11, a5, 28
    b061:	5f10a1        	l32r	a10, 0xfffe2ca4
    b064:	448106        	j	0x1c26c
    b067:	5f          	.byte 0x5f
    b068:	5f4405        	call0	0x6a4ac
    b06b:	2a09      	s32i.n	a0, a10, 8
    b06d:	03bd      	mov.n	a11, a3
    b06f:	5f          	.byte 0x5f
    b070:	2a08      	l32i.n	a0, a10, 8
    b072:	fff486        	j	0xb048
    b075:	040c      	movi.n	a4, 0
    b077:	ffe6c6        	j	0xb016
    b07a:	5f          	.byte 0x5f
    b07b:	810a      	add.n	a8, a1, a0
    b07d:	1c28      	l32i.n	a2, a12, 4
    b07f:	e30684        	excw
    b082:	ff          	.byte 0xff
    b083:	5f          	.byte 0x5f
    b084:	8108      	l32i.n	a0, a1, 32
    b086:	fbc607        	bnall	a6, a0, 0xb085
    b089:	ff          	.byte 0xff
    b08a:	5f          	.byte 0x5f
    b08b:	408506        	j	0x1b2a3
    b08e:	75ad61        	l32r	a6, 0xfffe8744
    b091:	922542        	l32i	a4, a5, 0x248
    b094:	740071        	l32r	a7, 0xfffe8094
    b097:	902492        	l32i	a9, a4, 0x240
    b09a:	281c      	movi.n	a8, 18
    b09c:	410897        	bnone	a8, a9, 0xb0e1
    b09f:	03a8      	l32i.n	a10, a3, 0
    b0a1:	151a66        	bnei	a10, 1, 0xb0ba
    b0a4:	75caa1        	l32r	a10, 0xfffe87cc
    b0a7:	5f          	.byte 0x5f
    b0a8:	1ca905        	call0	0x27b3c
    b0ab:	055f51        	l32r	a5, 0xfffcc628
    b0ae:	5107b2        	l8ui	a11, a7, 81
    b0b1:	991b      	addi.n	a9, a9, 1
    b0b3:	516492        	s32i	a9, a4, 0x144
    b0b6:	f01d      	excw
    b0b8:	3c25a2        	l32i	a10, a5, 240
    b0bb:	05ea07        	bbsi	a10, 0, 0xb0c4
    b0be:	1425b2        	l32i	a11, a5, 80
    b0c1:	1a6b17        	bbci	a11, 1, 0xb0df
    b0c4:	5f          	.byte 0x5f
    b0c5:	038f06        	j	0xbf05
    b0c8:	8e2bb2        	l32i	a11, a11, 0x238
    b0cb:	20a220        	or	a10, a2, a2
    b0ce:	fecb25        	excw
    b0d1:	008a16        	beqz	a10, 0xb0dd
    b0d4:	272682        	l32i	a8, a6, 156
    b0d7:	5f          	.byte 0x5f
    b0d8:	908106        	j	0xfffef2e0
    b0db:	249233        	excw
    b0de:	078b      	addi.n	a0, a7, 8
    b0e0:	23f9      	s32i.n	a15, a3, 8
    b0e2:	9024a2        	l32i	a10, a4, 0x240
    b0e5:	146a27        	bbci	a10, 2, 0xb0fd
    b0e8:	4424b2        	l32i	a11, a4, 0x110
    b0eb:	0e6b37        	bbci	a11, 3, 0xb0fd
    b0ee:	03c8      	l32i.n	a12, a3, 0
    b0f0:	141c26        	beqi	a12, 1, 0xb108
    b0f3:	222682        	l32i	a8, a6, 136
    b0f6:	5f          	.byte 0x5f
    b0f7:	b30a      	add.n	a11, a3, a0
    b0f9:	b8a670        	excw
    b0fc:	5f          	.byte 0x5f
    b0fd:	31a706        	j	0x1779d
    b100:	5f          	.byte 0x5f
    b101:	8109      	s32i.n	a0, a1, 32
    b103:	1fdb      	addi.n	a1, a15, 13
    b105:	c23c25        	excw
    b108:	823224        	excw
    b10b:	a1a127        	bge	a1, a2, 0xb0b0
    b10e:	065f11        	l32r	a1, 0xfffcca8c
    b111:	5f5881        	l32r	a8, 0xfffe2e74
    b114:	a608      	l32i.n	a0, a6, 40
    b116:	90b114        	excw
    b119:	244274        	excw
    b11c:	20c092        	addi	a9, a0, 32
    b11f:	249200        	extui	a9, a0, 2, 3
    b122:	2bb290        	excw
    b125:	5f98      	l32i.n	a9, a15, 20
    b127:	01b205        	call0	0xcc48
    b12a:	881c      	movi.n	a8, 24
    b12c:	186603        	excw
    b12f:	008117        	bany	a1, a1, 0xb133
    b132:	12a174        	excw
    b135:	288276        	excw
    b138:	5fc8a1        	l32r	a10, 0xfffe3058
    b13b:	1fb405        	call0	0x2ac7c
    b13e:	5f          	.byte 0x5f
    b13f:	8109      	s32i.n	a0, a1, 32
    b141:	138126        	beqi	a1, 8, 0xb158
    b144:	0d5f76        	excw
    b147:	01af82        	movi	a8, -255
    b14a:	004136        	excw
    b14d:	7614a1        	l32r	a10, 0xfffe89a0
    b150:	761621        	l32r	a2, 0xfffe89a8
    b153:	761381        	l32r	a8, 0xfffe89a0
    b156:	760631        	l32r	a3, 0xfffe8970
    b159:	761591        	l32r	a9, 0xfffe89b0
    b15c:	5399      	s32i.n	a9, a3, 20
    b15e:	6348      	l32i.n	a4, a3, 24
    b160:	0849      	s32i.n	a4, a8, 0
    b162:	6329      	s32i.n	a2, a3, 24
    b164:	43a9      	s32i.n	a10, a3, 16
    b166:	5f          	.byte 0x5f
    b167:	8f08      	l32i.n	a0, a15, 32
    b169:	761740        	excw
    b16c:	5f          	.byte 0x5f
    b16d:	bd09      	s32i.n	a0, a13, 44
    b16f:	139213        	excw
    b172:	a1a201        	l32r	a0, 0xffff37fc
    b175:	99a701        	l32r	a0, 0xffff1814
    b178:	6b0c04        	excw
    b17b:	2e52b2        	s16i	a11, a2, 92
    b17e:	5f          	.byte 0x5f
    b17f:	ae08      	l32i.n	a0, a14, 40
    b181:	03bd40        	excw
    b184:	761781        	l32r	a8, 0xfffe89e0
    b187:	04cd      	mov.n	a12, a4
    b189:	1888      	l32i.n	a8, a8, 4
    b18b:	05dd      	mov.n	a13, a5
    b18d:	0008e0        	excw
    b190:	0b1366        	bnei	a3, 1, 0xb19f
    b193:	6498      	l32i.n	a9, a4, 24
    b195:	69cc      	bnez.n	a9, 0xb19f
    b197:	0a0c      	movi.n	a10, 0
    b199:	0455a2        	s16i	a10, a5, 8
    b19c:	0555a2        	s16i	a10, a5, 10
    b19f:	5f          	.byte 0x5f
    b1a0:	60a006        	j	0x23424
    b1a3:	227400        	excw
    b1a6:	285622        	s16i	a2, a6, 80
    b1a9:	326612        	s32i	a1, a6, 200
    b1ac:	3119      	s32i.n	a1, a1, 12
    b1ae:	761a      	add.n	a7, a6, a1
    b1b0:	761981        	l32r	a8, 0xfffe8a14
    b1b3:	761841        	l32r	a4, 0xfffe8a14
    b1b6:	7617a1        	l32r	a10, 0xfffe8a14
    b1b9:	7498      	l32i.n	a9, a4, 28
    b1bb:	1924b2        	l32i	a11, a4, 100
    b1be:	0ab9      	s32i.n	a11, a10, 0
    b1c0:	1a99      	s32i.n	a9, a10, 4
    b1c2:	196482        	s32i	a8, a4, 100
    b1c5:	7439      	s32i.n	a3, a4, 28
    b1c7:	5f          	.byte 0x5f
    b1c8:	7008      	l32i.n	a0, a0, 28
    b1ca:	5f1b      	addi.n	a5, a15, 1
    b1cc:	810a      	add.n	a8, a1, a0
    b1ce:	029d23        	excw
    b1d1:	4a0c      	movi.n	a10, 4
    b1d3:	6b1c      	movi.n	a11, 22
    b1d5:	14ab76        	excw
    b1d8:	09c8      	l32i.n	a12, a9, 0
    b1da:	24c992        	addi	a9, a9, 36
    b1dd:	ac8c      	beqz.n	a12, 0xb1eb
    b1df:	c722d2        	l32i	a13, a2, 0x31c
    b1e2:	b0ddd0        	addx8	a13, a13, a13
    b1e5:	a0dd20        	addx4	a13, a13, a2
    b1e8:	105da2        	s16i	a10, a13, 32
    b1eb:	f03d      	nop.n
    b1ed:	5f          	.byte 0x5f
    b1ee:	30ff07        	bbsi	a15, 16, 0xb222
    b1f1:	327400        	excw
    b1f4:	385623        	excw
    b1f7:	532613        	excw
    b1fa:	636602        	s32i	a0, a6, 0x18c
    b1fd:	0e          	.byte 0xe
    b1fe:	761d41        	l32r	a4, 0xfffe8a74
    b201:	761c81        	l32r	a8, 0xfffe8a74
    b204:	761ba1        	l32r	a10, 0xfffe8a70
    b207:	a898      	l32i.n	a9, a8, 40
    b209:	0a99      	s32i.n	a9, a10, 0
    b20b:	a849      	s32i.n	a4, a8, 40
    b20d:	5f          	.byte 0x5f
    b20e:	165407        	bbc	a4, a0, 0xb228
    b211:	810262        	l8ui	a6, a2, 129
    b214:	1e          	.byte 0x1e
    b215:	b82776        	excw
    b218:	a22010        	excw
    b21b:	a3b220        	movltz	a11, a2, a2
    b21e:	65e8      	l32i.n	a14, a5, 24
    b220:	220122        	l8ui	a2, a1, 34
    b223:	01ca      	add.n	a0, a1, a12
    b225:	112210        	slli	a2, a2, 15
    b228:	f01d      	excw
    b22a:	11a210        	slli	a10, a2, 15
    b22d:	5f          	.byte 0x5f
    b22e:	211104        	excw
    b231:	5f1b01        	l32r	a0, 0xfffe2ea0
    b234:	818106        	j	0xfffeb83c
    b237:	5f4d      	excw
    b239:	810a      	add.n	a8, a1, a0
    b23b:	50ea      	add.n	a5, a0, a14
    b23d:	52a8      	l32i.n	a10, a2, 20
    b23f:	75a8a0        	extui	a10, a10, 24, 8
    b242:	8acc      	bnez.n	a10, 0xb24e
    b244:	04ad      	mov.n	a10, a4
    b246:	fffbe5        	excw
    b249:	0acd      	mov.n	a12, a10
    b24b:	000446        	j	0xb260
    b24e:	761f91        	l32r	a9, 0xfffe8acc
    b251:	a08aa0        	addx4	a8, a10, a10
    b254:	a08890        	addx4	a8, a8, a9
    b257:	4888      	l32i.n	a8, a8, 16
    b259:	5f          	.byte 0x5f
    b25a:	259805        	call0	0x30bdc
    b25d:	0acd      	mov.n	a12, a10
    b25f:	05dd      	mov.n	a13, a5
    b261:	5f          	.byte 0x5f
    b262:	3b9305        	call0	0x46b94
    b265:	065f20        	excw
    b268:	5f1683        	excw
    b26b:	0c8106        	j	0xe473
    b26e:	762121        	l32r	a2, 0xfffe8af4
    b271:	6d6322        	s32i	a2, a3, 0x1b4
    b274:	5f          	.byte 0x5f
    b275:	8108      	l32i.n	a0, a1, 32
    b277:	224c      	movi.n	a2, 66
    b279:	5f          	.byte 0x5f
    b27a:	9108      	l32i.n	a0, a1, 36
    b27c:	5f7c      	movi.n	a15, -11
    b27e:	489307        	bne	a3, a0, 0xb2ca
    b281:	317623        	excw
    b284:	817400        	src	a7, a4, a0
    b287:	427622        	excw
    b28a:	49ce23        	excw
    b28d:	2208      	l32i.n	a0, a2, 8
    b28f:	5fce63        	excw
    b292:	722807        	blt	a8, a0, 0xb308
    b295:	614ea1        	l32r	a10, 0xfffe37d0
    b298:	cc7423        	excw
    b29b:	0698b4        	excw
    b29e:	000382        	l8ui	a8, a3, 0
    b2a1:	997a      	add.n	a9, a9, a7
    b2a3:	800992        	l8ui	a9, a9, 128
    b2a6:	5a1897        	beq	a8, a9, 0xb304
    b2a9:	010292        	l8ui	a9, a2, 1
    b2ac:	740f41        	l32r	a4, 0xfffe82e8
    b2af:	531926        	beqi	a9, 1, 0xb306
    b2b2:	502926        	beqi	a9, 2, 0xb306
    b2b5:	02ad      	mov.n	a10, a2
    b2b7:	1c0c      	movi.n	a12, 1
    b2b9:	532b      	addi.n	a5, a3, 2
    b2bb:	232482        	l32i	a8, a4, 140
    b2be:	5f          	.byte 0x5f
    b2bf:	069605        	call0	0x11c20
    b2c2:	02ad      	mov.n	a10, a2
    b2c4:	05bd      	mov.n	a11, a5
    b2c6:	232482        	l32i	a8, a4, 140
    b2c9:	5f          	.byte 0x5f
    b2ca:	9b8107        	bany	a1, a0, 0xb269
    b2cd:	5f18      	l32i.n	a1, a15, 20
    b2cf:	5f0c06        	j	0x22f03
    b2d2:	47c505        	call0	0x52f24
    b2d5:	02ad05        	call0	0xdda8
    b2d8:	5f          	.byte 0x5f
    b2d9:	3c0c04        	excw
    b2dc:	0008e0        	excw
    b2df:	d0a1c2        	movi	a12, 0x1d0
    b2e2:	740081        	l32r	a8, 0xfffe82e4
    b2e5:	06a8      	l32i.n	a10, a6, 0
    b2e7:	000392        	l8ui	a9, a3, 0
    b2ea:	aa7a      	add.n	a10, a10, a7
    b2ec:	804a92        	s8i	a9, a10, 128
    b2ef:	0002a2        	l8ui	a10, a2, 0
    b2f2:	06b8      	l32i.n	a11, a6, 0
    b2f4:	fa2882        	l32i	a8, a8, 0x3e8
    b2f7:	5f          	.byte 0x5f
    b2f8:	0ed105        	call0	0x1a00c
    b2fb:	f01d      	excw
    b2fd:	0f03b2        	l8ui	a11, a3, 15
    b300:	0303c2        	l8ui	a12, a3, 3
    b303:	049bb6        	bltui	a11, 10, 0xb30b
    b306:	cc2b      	addi.n	a12, a12, 2
    b308:	0f43c2        	s8i	a12, a3, 15
    b30b:	02ad      	mov.n	a10, a2
    b30d:	b38b      	addi.n	a11, a3, 8
    b30f:	5f          	.byte 0x5f
    b310:	5f3904        	excw
    b313:	988106        	j	0xffff151b
    b316:	2b5a      	add.n	a2, a11, a5
    b318:	5f          	.byte 0x5f
    b319:	5f0c05        	call0	0x6a3dc
    b31c:	eb5d06        	j	0x6094
    b31f:	5f          	.byte 0x5f
    b320:	5f0c05        	call0	0x6a3e4
    b323:	ad5d04        	excw
    b326:	c3b202        	excw
    b329:	085f14        	excw
    b32c:	5e          	.byte 0x5e
    b32d:	065f86        	j	0xccaf
    b330:	0c8f81        	l32r	a8, 0xfffce56c
    b333:	744631        	l32r	a3, 0xfffe844c
    b336:	762421        	l32r	a2, 0xfffe8bc8
    b339:	5f29      	s32i.n	a2, a15, 20
    b33b:	2b8405        	call0	0x36b7c
    b33e:	813600        	src	a3, a6, a0
    b341:	a1a200        	sll	a10, a2
    b344:	a19202        	l16si	a0, a2, 0x142
    b347:	313914        	excw
    b34a:	6129      	s32i.n	a2, a1, 24
    b34c:	6138      	l32i.n	a3, a1, 24
    b34e:	3188      	l32i.n	a8, a1, 12
    b350:	939a      	add.n	a9, a3, a9
    b352:	1199      	s32i.n	a9, a1, 4
    b354:	c62392        	l32i	a9, a3, 0x318
    b357:	688c      	beqz.n	a8, 0xb361
    b359:	b9aa      	add.n	a11, a9, a10
    b35b:	7f1bb2        	l16ui	a11, a11, 254
    b35e:	0b4b56        	bnez	a11, 0xb416
    b361:	0c03b2        	l8ui	a11, a3, 12
    b364:	0aeb16        	beqz	a11, 0xb416
    b367:	120c      	movi.n	a2, 1
    b369:	0c0c      	movi.n	a12, 0
    b36b:	0d0c      	movi.n	a13, 0
    b36d:	e9aa      	add.n	a14, a9, a10
    b36f:	21e9      	s32i.n	a14, a1, 8
    b371:	51d9      	s32i.n	a13, a1, 20
    b373:	41c9      	s32i.n	a12, a1, 16
    b375:	5188      	l32i.n	a8, a1, 20
    b377:	1a2352        	l32i	a5, a3, 104
    b37a:	040c      	movi.n	a4, 0
    b37c:	558a      	add.n	a5, a5, a8
    b37e:	8c25f2        	l32i	a15, a5, 0x230
    b381:	4178      	l32i.n	a7, a1, 16
    b383:	07af16        	beqz	a15, 0xb401
    b386:	1177c0        	slli	a7, a7, 4
    b389:	401400        	ssl	a4
    b38c:	209740        	or	a9, a7, a4
    b38f:	004192        	s8i	a9, a1, 0
    b392:	ba2582        	l32i	a8, a5, 0x2e8
    b395:	a16200        	sll	a6, a2
    b398:	5d0867        	bnone	a8, a6, 0xb3f9
    b39b:	03ad      	mov.n	a10, a3
    b39d:	01bd      	mov.n	a11, a1
    b39f:	742081        	l32r	a8, 0xfffe8420
    b3a2:	090c      	movi.n	a9, 0
    b3a4:	292882        	l32i	a8, a8, 164
    b3a7:	014192        	s8i	a9, a1, 1
    b3aa:	0008e0        	excw
    b3ad:	21b8      	l32i.n	a11, a1, 8
    b3af:	75cbc1        	l32r	a12, 0xfffe8adc
    b3b2:	7f1b92        	l16ui	a9, a11, 254
    b3b5:	31a8      	l32i.n	a10, a1, 12
    b3b7:	209690        	or	a9, a6, a9
    b3ba:	f49090        	extui	a9, a9, 0, 16
    b3bd:	7f5b92        	s16i	a9, a11, 254
    b3c0:	fa8c      	beqz.n	a10, 0xb3d3
    b3c2:	11a8      	l32i.n	a10, a1, 4
    b3c4:	0d0c      	movi.n	a13, 0
    b3c6:	0cd9      	s32i.n	a13, a12, 0
    b3c8:	800ab2        	l8ui	a11, a10, 128
    b3cb:	1cb9      	s32i.n	a11, a12, 4
    b3cd:	804a22        	s8i	a2, a10, 128
    b3d0:	000946        	j	0xb3f9
    b3d3:	29ac      	beqz.n	a9, 0xb3f9
    b3d5:	7578c1        	l32r	a12, 0xfffe89b8
    b3d8:	0d0c      	movi.n	a13, 0
    b3da:	740081        	l32r	a8, 0xfffe83dc
    b3dd:	21b8      	l32i.n	a11, a1, 8
    b3df:	75cb91        	l32r	a9, 0xfffe8b0c
    b3e2:	0a0c      	movi.n	a10, 0
    b3e4:	1998      	l32i.n	a9, a9, 4
    b3e6:	7f5ba2        	s16i	a10, a11, 254
    b3e9:	11a8      	l32i.n	a10, a1, 4
    b3eb:	0b0c      	movi.n	a11, 0
    b3ed:	804a92        	s8i	a9, a10, 128
    b3f0:	6d2882        	l32i	a8, a8, 0x1b4
    b3f3:	7602a1        	l32r	a10, 0xfffe8bfc
    b3f6:	0008e0        	excw
    b3f9:	441b      	addi.n	a4, a4, 1
    b3fb:	8a8466        	bnei	a4, 8, 0xb389
    b3fe:	0c03b2        	l8ui	a11, a3, 12
    b401:	28a3e2        	movi	a14, 0x328
    b404:	41c8      	l32i.n	a12, a1, 16
    b406:	51d8      	l32i.n	a13, a1, 20
    b408:	cc1b      	addi.n	a12, a12, 1
    b40a:	ddea      	add.n	a13, a13, a14
    b40c:	51d9      	s32i.n	a13, a1, 20
    b40e:	41c9      	s32i.n	a12, a1, 16
    b410:	02bcb7        	bgeu	a12, a11, 0xb416
    b413:	5fd786        	j	0x23375
    b416:	a58107        	bany	a1, a0, 0xb3bf
    b419:	008154        	excw
    b41c:	030282        	l8ui	a8, a2, 3
    b41f:	fdc882        	addi	a8, a8, -3
    b422:	0ab856        	bnez	a8, 0xb4d1
    b425:	10c1a2        	addi	a10, a1, 16
    b428:	5f          	.byte 0x5f
    b429:	8209      	s32i.n	a0, a2, 32
    b42b:	1bdb      	addi.n	a1, a11, 13
    b42d:	5fcc      	bnez.n	a15, 0xb436
    b42f:	71b006        	j	0x27af3
    b432:	d2a0a0        	excw
    b435:	6110c1        	l32r	a12, 0xfffe3878
    b438:	0c7625        	excw
    b43b:	414135        	excw
    b43e:	415974        	excw
    b441:	e488      	l32i.n	a8, a4, 56
    b443:	5fbd      	excw
    b445:	f78106        	j	0x924d
    b448:	5f1020        	excw
    b44b:	260a      	add.n	a2, a6, a0
    b44d:	06bd      	mov.n	a11, a6
    b44f:	4159      	s32i.n	a5, a1, 16
    b451:	5f          	.byte 0x5f
    b452:	c02a04        	excw
    b455:	e488      	l32i.n	a8, a4, 56
    b457:	055fd2        	s16i	a13, a15, 10
    b45a:	6d9d      	excw
    b45c:	152382        	l32i	a8, a3, 84
    b45f:	5f26a1        	l32r	a10, 0xfffe30f8
    b462:	a27e04        	excw
    b465:	0c0c02        	l8ui	a0, a12, 12
    b468:	3a1603        	excw
    b46b:	a37205        	call0	0xfffaeb8c
    b46e:	0c28      	l32i.n	a2, a12, 0
    b470:	225206        	j	0x13dbc
    b473:	b21a      	add.n	a11, a2, a1
    b475:	3a1922        	l16ui	a2, a9, 116
    b478:	1b5755        	excw
    b47b:	823c      	movi.n	a2, 56
    b47d:	278c25        	excw
    b480:	3698      	l32i.n	a9, a6, 12
    b482:	2598      	l32i.n	a9, a5, 8
    b484:	313966        	bnei	a9, 3, 0xb4b9
    b487:	02ad      	mov.n	a10, a2
    b489:	7c0c      	movi.n	a12, 7
    b48b:	05dd      	mov.n	a13, a5
    b48d:	745381        	l32r	a8, 0xfffe85dc
    b490:	0002b2        	l8ui	a11, a2, 0
    b493:	65a092        	movi	a9, 101
    b496:	0199      	s32i.n	a9, a1, 0
    b498:	0888      	l32i.n	a8, a8, 0
    b49a:	0e0c      	movi.n	a14, 0
    b49c:	1e2882        	l32i	a8, a8, 120
    b49f:	0f0c      	movi.n	a15, 0
    b4a1:	5f          	.byte 0x5f
    b4a2:	768307        	bany	a3, a0, 0xb51c
    b4a5:	0c0c      	movi.n	a12, 0
    b4a7:	3d0c      	movi.n	a13, 3
    b4a9:	1e0c      	movi.n	a14, 1
    b4ab:	122482        	l32i	a8, a4, 72
    b4ae:	1f0c      	movi.n	a15, 1
    b4b0:	5f          	.byte 0x5f
    b4b1:	7a5206        	j	0x29dfd
    b4b4:	661b33        	excw
    b4b7:	b036a7        	bltu	a6, a10, 0xb46b
    b4ba:	5f          	.byte 0x5f
    b4bb:	8109      	s32i.n	a0, a1, 32
    b4bd:	5488      	l32i.n	a8, a4, 20
    b4bf:	03bd      	mov.n	a11, a3
    b4c1:	75cb81        	l32r	a8, 0xfffe8bf0
    b4c4:	c62242        	l32i	a4, a2, 0x318
    b4c7:	2888      	l32i.n	a8, a8, 8
    b4c9:	922442        	l32i	a4, a4, 0x248
    b4cc:	5f          	.byte 0x5f
    b4cd:	5ab605        	call0	0x66030
    b4d0:	668c      	beqz.n	a6, 0xb4da
    b4d2:	1518      	l32i.n	a1, a5, 4
    b4d4:	082366        	bnei	a3, 2, 0xb4e0
    b4d7:	02ad      	mov.n	a10, a2
    b4d9:	1b0c      	movi.n	a11, 1
    b4db:	ffe465        	excw
    b4de:	f01d      	excw
    b4e0:	063366        	bnei	a3, 3, 0xb4ea
    b4e3:	02ad      	mov.n	a10, a2
    b4e5:	0b0c      	movi.n	a11, 0
    b4e7:	5fe3a5        	excw
    b4ea:	818107        	bany	a1, a0, 0xb46f
    b4ed:	532610        	excw
    b4f0:	cd0d      	excw
    b4f2:	cb8104        	excw
    b4f5:	095f75        	excw
    b4f8:	4ed182        	addmi	a8, a1, 0x4e00
    b4fb:	5f          	.byte 0x5f
    b4fc:	414c07        	ball	a12, a0, 0xb541
    b4ff:	217627        	bbci	a6, 18, 0xb524
    b502:	7628      	l32i.n	a2, a6, 28
    b504:	75c231        	l32r	a3, 0xfffe8c0c
    b507:	75cb91        	l32r	a9, 0xfffe8c34
    b50a:	83a8      	l32i.n	a10, a3, 32
    b50c:	6388      	l32i.n	a8, a3, 24
    b50e:	3989      	s32i.n	a8, a9, 12
    b510:	6329      	s32i.n	a2, a3, 24
    b512:	29a9      	s32i.n	a10, a9, 8
    b514:	8349      	s32i.n	a4, a3, 32
    b516:	5f          	.byte 0x5f
    b517:	8108      	l32i.n	a0, a1, 32
    b519:	c10885        	call0	0xfffcc5a4
    b51c:	742b      	addi.n	a7, a4, 2
    b51e:	740061        	l32r	a6, 0xfffe8520
    b521:	0149      	s32i.n	a4, a1, 0
    b523:	740c71        	l32r	a7, 0xfffe8554
    b526:	746441        	l32r	a4, 0xfffe86b8
    b529:	748551        	l32r	a5, 0xfffe8740
    b52c:	a04240        	addx4	a4, a2, a4
    b52f:	04b8      	l32i.n	a11, a4, 0
    b531:	05b9      	s32i.n	a11, a5, 0
    b533:	b2ec      	bnez.n	a2, 0xb562
    b535:	0798      	l32i.n	a9, a7, 0
    b537:	a9dc      	bnez.n	a9, 0xb555
    b539:	0a0c      	movi.n	a10, 0
    b53b:	4688      	l32i.n	a8, a6, 16
    b53d:	78a0b2        	movi	a11, 120
    b540:	0008e0        	excw
    b543:	07a9      	s32i.n	a10, a7, 0
    b545:	0b0c      	movi.n	a11, 0
    b547:	3e2682        	l32i	a8, a6, 248
    b54a:	055fc2        	s16i	a12, a15, 10
    b54d:	980d      	excw
    b54f:	2bc107        	bnall	a1, a0, 0xb57e
    b552:	493274        	excw
    b555:	07b800        	excw
    b558:	000ca2        	l8ui	a10, a12, 0
    b55b:	014ba2        	s8i	a10, a11, 1
    b55e:	05b8      	l32i.n	a11, a5, 0
    b560:	abdc      	bnez.n	a11, 0xb57e
    b562:	5f          	.byte 0x5f
    b563:	a32b05        	call0	0xfffae814
    b566:	045f30        	extui	a5, a3, 15, 1
    b569:	052b      	addi.n	a0, a5, 2
    b56b:	5f          	.byte 0x5f
    b56c:	5f2b06        	j	0x2321c
    b56f:	c10d05        	call0	0xfffcc640
    b572:	742b      	addi.n	a7, a4, 2
    b574:	05b8      	l32i.n	a11, a5, 0
    b576:	0198      	l32i.n	a9, a1, 0
    b578:	04b9      	s32i.n	a11, a4, 0
    b57a:	004b22        	s8i	a2, a11, 0
    b57d:	05e8      	l32i.n	a14, a5, 0
    b57f:	07d8      	l32i.n	a13, a7, 0
    b581:	014e32        	s8i	a3, a14, 1
    b584:	05a8      	l32i.n	a10, a5, 0
    b586:	156ed2        	s32i	a13, a14, 84
    b589:	024a92        	s8i	a9, a10, 2
    b58c:	000ca2        	l8ui	a10, a12, 0
    b58f:	7403f1        	l32r	a15, 0xfffe859c
    b592:	172ab6        	bltui	a10, 2, 0xb5ad
    b595:	b32ff2        	l32i	a15, a15, 0x2cc
    b598:	05b8      	l32i.n	a11, a5, 0
    b59a:	0fef87        	bbsi	a15, 8, 0xb5ad
    b59d:	020b82        	l8ui	a8, a11, 2
    b5a0:	9a0b      	addi.n	a9, a10, -1
    b5a2:	072866        	bnei	a8, 2, 0xb5ad
    b5a5:	049297        	bne	a2, a9, 0xb5ad
    b5a8:	5a0c      	movi.n	a10, 5
    b5aa:	024ba2        	s8i	a10, a11, 2
    b5ad:	05b8      	l32i.n	a11, a5, 0
    b5af:	020bd2        	l8ui	a13, a11, 2
    b5b2:	125d66        	bnei	a13, 5, 0xb5c8
    b5b5:	5f          	.byte 0x5f
    b5b6:	1c5b04        	excw
    b5b9:	5f4b      	addi.n	a5, a15, 4
    b5bb:	914d06        	j	0xfffefaf3
    b5be:	7629      	s32i.n	a2, a6, 28
    b5c0:	05b8      	l32i.n	a11, a5, 0
    b5c2:	09a9      	s32i.n	a10, a9, 0
    b5c4:	762ad1        	l32r	a13, 0xfffe8e6c
    b5c7:	762b81        	l32r	a8, 0xfffe8e74
    b5ca:	762c91        	l32r	a9, 0xfffe8e7c
    b5cd:	762df1        	l32r	a15, 0xfffe8e84
    b5d0:	0a0c      	movi.n	a10, 0
    b5d2:	034ba2        	s8i	a10, a11, 3
    b5d5:	0ff8      	l32i.n	a15, a15, 0
    b5d7:	07e8      	l32i.n	a14, a7, 0
    b5d9:	0538      	l32i.n	a3, a5, 0
    b5db:	5e99      	s32i.n	a9, a14, 20
    b5dd:	106382        	s32i	a8, a3, 64
    b5e0:	0f43a2        	s8i	a10, a3, 15
    b5e3:	07e8      	l32i.n	a14, a7, 0
    b5e5:	0598      	l32i.n	a9, a5, 0
    b5e7:	f3f9      	s32i.n	a15, a3, 60
    b5e9:	196ed2        	s32i	a13, a14, 100
    b5ec:	3349a2        	s8i	a10, a9, 51
    b5ef:	0538      	l32i.n	a3, a5, 0
    b5f1:	a80c      	movi.n	a8, 10
    b5f3:	1163a2        	s32i	a10, a3, 68
    b5f6:	0c4382        	s8i	a8, a3, 12
    b5f9:	05e8      	l32i.n	a14, a5, 0
    b5fb:	9b63a2        	s32i	a10, a3, 0x26c
    b5fe:	0c0ef2        	l8ui	a15, a14, 12
    b601:	000cd2        	l8ui	a13, a12, 0
    b604:	746481        	l32r	a8, 0xfffe8794
    b607:	ddfa      	add.n	a13, a13, a15
    b609:	0c4ed2        	s8i	a13, a14, 12
    b60c:	32ec      	bnez.n	a2, 0xb633
    b60e:	4688      	l32i.n	a8, a6, 16
    b610:	00a3b2        	movi	a11, 0x300
    b613:	0008e0        	excw
    b616:	4688      	l32i.n	a8, a6, 16
    b618:	05c8      	l32i.n	a12, a5, 0
    b61a:	28a3b2        	movi	a11, 0x328
    b61d:	166ca2        	s32i	a10, a12, 88
    b620:	0c0cc2        	l8ui	a12, a12, 12
    b623:	5f          	.byte 0x5f
    b624:	8208      	l32i.n	a0, a2, 32
    b626:	d81796        	bltz	a7, 0xb3ab
    b629:	6da205        	call0	0x7904c
    b62c:	c61a      	add.n	a12, a6, a1
    b62e:	880003        	excw
    b631:	f808      	l32i.n	a0, a8, 60
    b633:	28e205        	call0	0x34454
    b636:	821a      	add.n	a8, a2, a1
    b638:	1628      	l32i.n	a2, a6, 4
    b63a:	166f82        	s32i	a8, a15, 88
    b63d:	1a6fe2        	s32i	a14, a15, 104
    b640:	5f          	.byte 0x5f
    b641:	6d8105        	call0	0x78e54
    b644:	5f6ca1        	l32r	a10, 0xfffe33f4
    b647:	69bd05        	call0	0x75218
    b64a:	6ca1c2        	movi	a12, 0x16c
    b64d:	0598      	l32i.n	a9, a5, 0
    b64f:	3e2682        	l32i	a8, a6, 248
    b652:	be69a2        	s32i	a10, a9, 0x2f8
    b655:	5f          	.byte 0x5f
    b656:	900b      	addi.n	a9, a0, -1
    b658:	2e3100        	excw
    b65b:	2f2176        	excw
    b65e:	055f76        	excw
    b661:	8f          	.byte 0x8f
    b662:	5f4a      	add.n	a5, a15, a4
    b664:	af8106        	j	0xffff746c
    b667:	0928      	l32i.n	a2, a9, 0
    b669:	0b0c      	movi.n	a11, 0
    b66b:	0c3c      	movi.n	a12, 48
    b66d:	f8c3a2        	addi	a10, a3, -8
    b670:	7630d1        	l32r	a13, 0xfffe8f30
    b673:	740021        	l32r	a2, 0xfffe8674
    b676:	ffd3e2        	addmi	a14, a3, 0xffffff00
    b679:	3f6e52        	s32i	a5, a14, 252
    b67c:	d02282        	l32i	a8, a2, 0x340
    b67f:	004ad2        	s8i	a13, a10, 0
    b682:	014ac2        	s8i	a12, a10, 1
    b685:	024ab2        	s8i	a11, a10, 2
    b688:	034a92        	s8i	a9, a10, 3
    b68b:	0b0c      	movi.n	a11, 0
    b68d:	5f          	.byte 0x5f
    b68e:	349305        	call0	0x3ffc0
    b691:	f8c3b2        	addi	a11, a3, -8
    b694:	8acc      	bnez.n	a10, 0xb6a0
    b696:	0bad      	mov.n	a10, a11
    b698:	5f3181        	l32r	a8, 0xfffe335c
    b69b:	298906        	j	0x15cc3
    b69e:	d48b      	addi.n	a13, a4, 8
    b6a0:	0c0c      	movi.n	a12, 0
    b6a2:	1ab9      	s32i.n	a11, a10, 4
    b6a4:	5ab9      	s32i.n	a11, a10, 20
    b6a6:	763191        	l32r	a9, 0xfffe8f6c
    b6a9:	4a99      	s32i.n	a9, a10, 16
    b6ab:	d12282        	l32i	a8, a2, 0x344
    b6ae:	5f32b1        	l32r	a11, 0xfffe3378
    b6b1:	8c08      	l32i.n	a0, a12, 32
    b6b3:	075f57        	bbc	a15, a5, 0xb6be
    b6b6:	508a      	add.n	a5, a0, a8
    b6b8:	763321        	l32r	a2, 0xfffe8f84
    b6bb:	dc6322        	s32i	a2, a3, 0x370
    b6be:	5f          	.byte 0x5f
    b6bf:	9b09      	s32i.n	a0, a11, 36
    b6c1:	0c7440        	excw
    b6c4:	880a      	add.n	a8, a8, a0
    b6c6:	b248      	l32i.n	a4, a2, 44
    b6c8:	e0a1a2        	movi	a10, 0x1e0
    b6cb:	0008      	l32i.n	a0, a0, 0
    b6cd:	01a132        	movi	a3, 0x101
    b6d0:	120c      	movi.n	a2, 1
    b6d2:	763491        	l32r	a9, 0xfffe8fa4
    b6d5:	545c      	movi.n	a4, 85
    b6d7:	09a9      	s32i.n	a10, a9, 0
    b6d9:	03ad      	mov.n	a10, a3
    b6db:	02bd      	mov.n	a11, a2
    b6dd:	5f3581        	l32r	a8, 0xfffe33b4
    b6e0:	408605        	call0	0x4bf44
    b6e3:	221b33        	excw
    b6e6:	ee9247        	bne	a2, a4, 0xb6d8
    b6e9:	5f          	.byte 0x5f
    b6ea:	108b07        	bany	a11, a0, 0xb6fe
    b6ed:	217636        	excw
    b6f0:	297637        	bbci	a6, 19, 0xb71d
    b6f3:	085fc3        	excw
    b6f6:	0c1084        	excw
    b6f9:	d20a      	add.n	a13, a2, a0
    b6fb:	c20a12        	l8ui	a1, a10, 194
    b6fe:	b10b12        	l8ui	a1, a11, 177
    b701:	7638      	l32i.n	a3, a6, 28
    b703:	7639e1        	l32r	a14, 0xfffe8fe8
    b706:	0bb8      	l32i.n	a11, a11, 0
    b708:	20cef2        	addi	a15, a14, 32
    b70b:	6bf9      	s32i.n	a15, a11, 24
    b70d:	7be9      	s32i.n	a14, a11, 28
    b70f:	1bd9      	s32i.n	a13, a11, 4
    b711:	2bc9      	s32i.n	a12, a11, 8
    b713:	0b29      	s32i.n	a2, a11, 0
    b715:	204ba2        	s8i	a10, a11, 32
    b718:	0a1292        	l16ui	a9, a2, 20
    b71b:	0399      	s32i.n	a9, a3, 0
    b71d:	6288      	l32i.n	a8, a2, 24
    b71f:	0589      	s32i.n	a8, a5, 0
    b721:	148080        	extui	a8, a8, 0, 2
    b724:	98cc      	bnez.n	a8, 0xb731
    b726:	5f          	.byte 0x5f
    b727:	f10b      	addi.n	a15, a1, -1
    b729:	04ad36        	excw
    b72c:	740031        	l32r	a3, 0xfffe872c
    b72f:	b28b      	addi.n	a11, a2, 8
    b731:	5f2382        	l32i	a8, a3, 0x17c
    b734:	44eb06        	j	0x1cae4
    b737:	0404f2        	l8ui	a15, a4, 4
    b73a:	0504a2        	l8ui	a10, a4, 5
    b73d:	0304e2        	l8ui	a14, a4, 3
    b740:	0204d2        	l8ui	a13, a4, 2
    b743:	0004b2        	l8ui	a11, a4, 0
    b746:	0104c2        	l8ui	a12, a4, 1
    b749:	8bda      	add.n	a8, a11, a13
    b74b:	4cea      	add.n	a4, a12, a14
    b74d:	4a4a      	add.n	a4, a10, a4
    b74f:	114480        	slli	a4, a4, 8
    b752:	4f4a      	add.n	a4, a15, a4
    b754:	448a      	add.n	a4, a4, a8
    b756:	14ac      	beqz.n	a4, 0xb77b
    b758:	763a81        	l32r	a8, 0xfffe9040
    b75b:	1c1487        	beq	a4, a8, 0xb77b
    b75e:	01a9      	s32i.n	a10, a1, 0
    b760:	5e2382        	l32i	a8, a3, 0x178
    b763:	763ba1        	l32r	a10, 0xfffe9050
    b766:	0008e0        	excw
    b769:	190c      	movi.n	a9, 1
    b76b:	7403b1        	l32r	a11, 0xfffe8778
    b76e:	0fd2a2        	addmi	a10, a2, 0xf00
    b771:	e40aa2        	l8ui	a10, a10, 228
    b774:	bf6ba2        	s32i	a10, a11, 0x2fc
    b777:	5f          	.byte 0x5f
    b778:	42d905        	call0	0x4e50c
    b77b:	238204        	excw
    b77e:	3ca1a0        	excw
    b781:	5f          	.byte 0x5f
    b782:	091d05        	call0	0x14954
    b785:	065fc6        	j	0xd108
    b788:	34b181        	l32r	a8, 0xfffd8a4c
    b78b:	090c      	movi.n	a9, 0
    b78d:	0302a2        	l8ui	a10, a2, 3
    b790:	c0a582        	movi	a8, 0x5c0
    b793:	6a8c      	beqz.n	a10, 0xb79d
    b795:	044a26        	beqi	a10, 4, 0xb79d
    b798:	016a26        	beqi	a10, 6, 0xb79d
    b79b:	190c      	movi.n	a9, 1
    b79d:	7638a1        	l32r	a10, 0xfffe9080
    b7a0:	745090        	extui	a5, a9, 0, 8
    b7a3:	0a68      	l32i.n	a6, a10, 0
    b7a5:	88a032        	movi	a3, 136
    b7a8:	0648      	l32i.n	a4, a6, 0
    b7aa:	833850        	moveqz	a3, a8, a5
    b7ad:	2d04b2        	l8ui	a11, a4, 45
    b7b0:	343a      	add.n	a3, a4, a3
    b7b2:	086b67        	bbci	a11, 6, 0xb7be
    b7b5:	bfa092        	movi	a9, 191
    b7b8:	109b90        	and	a9, a11, a9
    b7bb:	2d4492        	s8i	a9, a4, 45
    b7be:	5f88      	l32i.n	a8, a15, 20
    b7c0:	51ad06        	j	0x1fe78
    b7c3:	7642c1        	l32r	a12, 0xfffe90cc
    b7c6:	7641f1        	l32r	a15, 0xfffe90cc
    b7c9:	7640a1        	l32r	a10, 0xfffe90cc
    b7cc:	763f91        	l32r	a9, 0xfffe90c8
    b7cf:	763ed1        	l32r	a13, 0xfffe90c8
    b7d2:	6303e2        	l8ui	a14, a3, 99
    b7d5:	763d81        	l32r	a8, 0xfffe90cc
    b7d8:	01eea0        	slli	a14, a14, 22
    b7db:	5f          	.byte 0x5f
    b7dc:	c38106        	j	0xffffc5e4
    b7df:	b86d      	excw
    b7e1:	f06c      	movi.n	a0, -17
    b7e3:	10bb      	addi.n	a1, a0, 11
    b7e5:	5f          	.byte 0x5f
    b7e6:	22b006        	j	0x142aa
    b7e9:	6cb9      	s32i.n	a11, a12, 24
    b7eb:	6403e2        	l8ui	a14, a3, 100
    b7ee:	5f          	.byte 0x5f
    b7ef:	1909      	s32i.n	a0, a9, 4
    b7f1:	6dc8      	l32i.n	a12, a13, 24
    b7f3:	5f          	.byte 0x5f
    b7f4:	8109      	s32i.n	a0, a1, 32
    b7f6:	c91cb1        	l32r	a11, 0xffffdc68
    b7f9:	b86d      	excw
    b7fb:	03e274        	excw
    b7fe:	7b0765        	excw
    b801:	bc3a      	add.n	a11, a12, a3
    b803:	a0c275        	excw
    b806:	eeb0e0        	excw
    b809:	afb211        	l32r	a1, 0xffff76d4
    b80c:	1f          	.byte 0x1f
    b80d:	055fc0        	extui	a5, a12, 31, 1
    b810:	2ad226        	beqi	a2, 64, 0xb83e
    b813:	ddb094        	excw
    b816:	dde010        	excw
    b819:	5f          	.byte 0x5f
    b81a:	d22704        	excw
    b81d:	946a      	add.n	a9, a4, a6
    b81f:	650382        	l8ui	a8, a3, 101
    b822:	1188b0        	slli	a8, a8, 5
    b825:	065fc0        	excw
    b828:	49b081        	l32r	a8, 0xfffddee8
    b82b:	9429      	s32i.n	a2, a4, 36
    b82d:	095fb0        	excw
    b830:	49b081        	l32r	a8, 0xfffddef0
    b833:	9469      	s32i.n	a6, a4, 36
    b835:	2b03f2        	l8ui	a15, a3, 43
    b838:	2c03b2        	l8ui	a11, a3, 44
    b83b:	746f07        	bbci	a15, 0, 0xb8b3
    b83e:	a5fc      	bnez.n	a5, 0xb87c
    b840:	80a3e2        	movi	a14, 0x380
    b843:	118b90        	slli	a8, a11, 7
    b846:	7facd2        	movi	a13, 0xfffffc7f
    b849:	075fe0        	excw
    b84c:	72b081        	l32r	a8, 0xfffe830c
    b84f:	5fd092        	addmi	a9, a0, 0x5f00
    b852:	810a      	add.n	a8, a1, a0
    b854:	9272b0        	excw
    b857:	2d03c2        	l8ui	a12, a3, 45
    b85a:	11cc90        	slli	a12, a12, 7
    b85d:	5fcce0        	excw
    b860:	b08106        	j	0xffff7a68
    b863:	926d      	excw
    b865:	1088d0        	and	a8, a8, a13
    b868:	075fc0        	excw
    b86b:	6db081        	l32r	a8, 0xfffe6f2c
    b86e:	0d8692        	excw
    b871:	ef1c00        	excw
    b874:	11cbf0        	slli	a12, a11, 1
    b877:	1e6c      	movi.n	a14, -31
    b879:	065ff0        	excw
    b87c:	1f          	.byte 0x1f
    b87d:	922a      	add.n	a9, a2, a2
    b87f:	5f          	.byte 0x5f
    b880:	5f4304        	excw
    b883:	6a1f06        	j	0x26103
    b886:	03d292        	addmi	a9, a2, 0x300
    b889:	f02d      	break.n	0
    b88b:	11dd      	excw
    b88d:	5fddf0        	excw
    b890:	c21b04        	excw
    b893:	9229      	s32i.n	a2, a2, 36
    b895:	5f          	.byte 0x5f
    b896:	8109      	s32i.n	a0, a1, 32
    b898:	19b9      	s32i.n	a11, a9, 4
    b89a:	9269c2        	s32i	a12, a9, 0x248
    b89d:	2d04b2        	l8ui	a11, a4, 45
    b8a0:	3a6b07        	bbci	a11, 0, 0xb8de
    b8a3:	75bc      	beqz.n	a5, 0xb8de
    b8a5:	74c5e1        	l32r	a14, 0xfffe8bbc
    b8a8:	0012d2        	l16ui	a13, a2, 0
    b8ab:	752a81        	l32r	a8, 0xfffe8d54
    b8ae:	2c1de7        	beq	a13, a14, 0xb8de
    b8b1:	06a8      	l32i.n	a10, a6, 0
    b8b3:	05daa2        	addmi	a10, a10, 0x500
    b8b6:	5f2aa2        	l32i	a10, a10, 0x17c
    b8b9:	a22e04        	excw
    b8bc:	6668      	l32i.n	a6, a6, 24
    b8be:	0698      	l32i.n	a9, a6, 0
    b8c0:	05d992        	addmi	a9, a9, 0x500
    b8c3:	112992        	l32i	a9, a9, 68
    b8c6:	0020c0        	memw
    b8c9:	676892        	s32i	a9, a8, 0x19c
    b8cc:	06f8      	l32i.n	a15, a6, 0
    b8ce:	05dff2        	addmi	a15, a15, 0x500
    b8d1:	122ff2        	l32i	a15, a15, 72
    b8d4:	0020c0        	memw
    b8d7:	6868f2        	s32i	a15, a8, 0x1a0
    b8da:	2d04b2        	l8ui	a11, a4, 45
    b8dd:	752ca1        	l32r	a10, 0xfffe8d90
    b8e0:	116b27        	bbci	a11, 2, 0xb8f5
    b8e3:	5f11c1        	l32r	a12, 0xfffe3528
    b8e6:	339205        	call0	0x3f208
    b8e9:	c32c      	movi.n	a3, 44
    b8eb:	065fa0        	excw
    b8ee:	6c54b2        	s16i	a11, a4, 216
    b8f1:	0698c3        	excw
    b8f4:	0609c2        	l8ui	a12, a9, 6
    b8f7:	0fd9d2        	addmi	a13, a9, 0xf00
    b8fa:	592cb6        	bltui	a12, 2, 0xb957
    b8fd:	180dd2        	l8ui	a13, a13, 24
    b900:	00a092        	movi	a9, 0
    b903:	501d66        	bnei	a13, 1, 0xb957
    b906:	7643b1        	l32r	a11, 0xfffe9214
    b909:	10a0e2        	movi	a14, 16
    b90c:	15ae76        	excw
    b90f:	a0c930        	addx4	a12, a9, a3
    b912:	a0d9b0        	addx4	a13, a9, a11
    b915:	20dda0        	or	a13, a13, a10
    b918:	212cc2        	l32i	a12, a12, 132
    b91b:	0020c0        	memw
    b91e:	0dc9      	s32i.n	a12, a13, 0
    b920:	991b      	addi.n	a9, a9, 1
    b922:	239900        	excw
    b925:	090c      	movi.n	a9, 0
    b927:	7644c1        	l32r	a12, 0xfffe9238
    b92a:	7645b1        	l32r	a11, 0xfffe9240
    b92d:	04a0e2        	movi	a14, 4
    b930:	23ae76        	excw
    b933:	a0d930        	addx4	a13, a9, a3
    b936:	a0f9b0        	addx4	a15, a9, a11
    b939:	20ffa0        	or	a15, a15, a10
    b93c:	312de2        	l32i	a14, a13, 196
    b93f:	0020c0        	memw
    b942:	0fe9      	s32i.n	a14, a15, 0
    b944:	a0e9c0        	addx4	a14, a9, a12
    b947:	312dd2        	l32i	a13, a13, 196
    b94a:	5feea0        	excw
    b94d:	d96104        	excw
    b950:	0e          	.byte 0xe
    b951:	5f          	.byte 0x5f
    b952:	5f3205        	call0	0x6ac74
    b955:	1cbf07        	bgeu	a15, a0, 0xb975
    b958:	030292        	l8ui	a9, a2, 3
    b95b:	120c      	movi.n	a2, 1
    b95d:	698c      	beqz.n	a9, 0xb967
    b95f:	044926        	beqi	a9, 4, 0xb967
    b962:	016926        	beqi	a9, 6, 0xb967
    b965:	020c      	movi.n	a2, 0
    b967:	763891        	l32r	a9, 0xfffe9248
    b96a:	88a0b2        	movi	a11, 136
    b96d:	0998      	l32i.n	a9, a9, 0
    b96f:	c0a5a2        	movi	a10, 0x5c0
    b972:	0998      	l32i.n	a9, a9, 0
    b974:	83ab20        	moveqz	a10, a11, a2
    b977:	99aa      	add.n	a9, a9, a10
    b979:	66c9b2        	addi	a11, a9, 102
    b97c:	2ec9a2        	addi	a10, a9, 46
    b97f:	93ab30        	movnez	a10, a11, a3
    b982:	01a9      	s32i.n	a10, a1, 0
    b984:	2b09a2        	l8ui	a10, a9, 43
    b987:	01ea07        	bbsi	a10, 0, 0xb98c
    b98a:	0a0c      	movi.n	a10, 0
    b98c:	0047a2        	s8i	a10, a7, 0
    b98f:	2b09c2        	l8ui	a12, a9, 43
    b992:	740071        	l32r	a7, 0xfffe8994
    b995:	53ec07        	bbsi	a12, 0, 0xb9ec
    b998:	c39c      	beqz.n	a3, 0xb9b8
    b99a:	a29c      	beqz.n	a2, 0xb9b8
    b99c:	04ad      	mov.n	a10, a4
    b99e:	92a0b2        	movi	a11, 146
    b9a1:	3e2782        	l32i	a8, a7, 248
    b9a4:	5f          	.byte 0x5f
    b9a5:	2d8e06        	j	0x16fe1
    b9a8:	fb7c05        	call0	0x716c
    b9ab:	5f          	.byte 0x5f
    b9ac:	0c08      	l32i.n	a0, a12, 0
    b9ae:	000606        	j	0xb9ca
    b9b1:	5f          	.byte 0x5f
    b9b2:	8e1c04        	excw
    b9b5:	5f          	.byte 0x5f
    b9b6:	1c0b      	addi.n	a1, a12, -1
    b9b8:	5fdb      	addi.n	a5, a15, 13
    b9ba:	0c08      	l32i.n	a0, a12, 0
    b9bc:	3e27d2        	l32i	a13, a7, 248
    b9bf:	928c      	beqz.n	a2, 0xb9cc
    b9c1:	06ad      	mov.n	a10, a6
    b9c3:	7b7c      	movi.n	a11, -9
    b9c5:	2c0c      	movi.n	a12, 2
    b9c7:	000de0        	excw
    b9ca:	f01d      	excw
    b9cc:	06ad      	mov.n	a10, a6
    b9ce:	db7c      	movi.n	a11, -3
    b9d0:	5f          	.byte 0x5f
    b9d1:	0b08      	l32i.n	a0, a11, 0
    b9d3:	01b804        	excw
    b9d6:	3f2782        	l32i	a8, a7, 252
    b9d9:	5f          	.byte 0x5f
    b9da:	0c3307        	bltu	a3, a0, 0xb9ea
    b9dd:	5f2c      	movi.n	a15, 37
    b9df:	2b0e05        	call0	0x36ac0
    b9e2:	5fbb      	addi.n	a5, a15, 11
    b9e4:	ea8106        	j	0x63ec
    b9e7:	065f71        	l32r	a7, 0xfffcd364
    b9ea:	0e          	.byte 0xe
    b9eb:	5f4b      	addi.n	a5, a15, 4
    b9ed:	4c8f06        	j	0x1ec2d
    b9f0:	5f          	.byte 0x5f
    b9f1:	388706        	j	0x19c11
    b9f4:	0302b2        	l8ui	a11, a2, 3
    b9f7:	190c      	movi.n	a9, 1
    b9f9:	6b8c      	beqz.n	a11, 0xba03
    b9fb:	044b26        	beqi	a11, 4, 0xba03
    b9fe:	016b26        	beqi	a11, 6, 0xba03
    ba01:	090c      	movi.n	a9, 0
    ba03:	748090        	extui	a8, a9, 0, 8
    ba06:	0c1816        	beqz	a8, 0xbacb
    ba09:	7638c1        	l32r	a12, 0xfffe92ec
    ba0c:	0c78      	l32i.n	a7, a12, 0
    ba0e:	07e8      	l32i.n	a14, a7, 0
    ba10:	2d0e92        	l8ui	a9, a14, 45
    ba13:	049190        	extui	a9, a9, 1, 1
    ba16:	0a6916        	beqz	a9, 0xbac0
    ba19:	3a0c      	movi.n	a10, 3
    ba1b:	7646d1        	l32r	a13, 0xfffe9334
    ba1e:	4b0c      	movi.n	a11, 4
    ba20:	25ab76        	excw
    ba23:	caea      	add.n	a12, a10, a14
    ba25:	ccda      	add.n	a12, a12, a13
    ba27:	800cc2        	l8ui	a12, a12, 128
    ba2a:	23cc00        	excw
    ba2d:	131ca6        	blti	a12, 1, 0xba44
    ba30:	0a6d      	mov.n	a6, a10
    ba32:	e61b      	addi.n	a14, a6, 1
    ba34:	093e16        	beqz	a14, 0xbacb
    ba37:	050c      	movi.n	a5, 0
    ba39:	1c3c      	movi.n	a12, 49
    ba3b:	03bd      	mov.n	a11, a3
    ba3d:	06ad      	mov.n	a10, a6
    ba3f:	0e3d      	mov.n	a3, a14
    ba41:	000746        	j	0xba62
    ba44:	aa0b      	addi.n	a10, a10, -1
    ba46:	23aa80        	excw
    ba49:	f67c      	movi.n	a6, -1
    ba4b:	fff8c6        	j	0xba32
    ba4e:	840fe2        	l8ui	a14, a15, 132
    ba51:	23ee00        	excw
    ba54:	ee2a      	add.n	a14, a14, a2
    ba56:	005be2        	s16i	a14, a11, 0
    ba59:	bb2b      	addi.n	a11, a11, 2
    ba5b:	06ad      	mov.n	a10, a6
    ba5d:	551b      	addi.n	a5, a5, 1
    ba5f:	1f15c7        	beq	a5, a12, 0xba82
    ba62:	ff3696        	bltz	a6, 0xba59
    ba65:	001b22        	l16ui	a2, a11, 0
    ba68:	07e8      	l32i.n	a14, a7, 0
    ba6a:	11a376        	excw
    ba6d:	faea      	add.n	a15, a10, a14
    ba6f:	ffda      	add.n	a15, a15, a13
    ba71:	800f82        	l8ui	a8, a15, 128
    ba74:	aa0b      	addi.n	a10, a10, -1
    ba76:	238800        	excw
    ba79:	d1a287        	bge	a2, a8, 0xba4e
    ba7c:	23aa80        	excw
    ba7f:	fff586        	j	0xba59
    ba82:	050c      	movi.n	a5, 0
    ba84:	06ad      	mov.n	a10, a6
    ba86:	0004c6        	j	0xba9d
    ba89:	5f          	.byte 0x5f
    ba8a:	ba3b06        	j	0xffffa37a
    ba8d:	ee          	.byte 0xee
    ba8e:	0054e2        	s16i	a14, a4, 0
    ba91:	442b      	addi.n	a4, a4, 2
    ba93:	5f          	.byte 0x5f
    ba94:	203b06        	j	0x13b84
    ba97:	ff3696        	bltz	a6, 0xba8e
    ba9a:	0014b2        	l16ui	a11, a4, 0
    ba9d:	0027e2        	l32i	a14, a7, 0
    baa0:	5f          	.byte 0x5f
    baa1:	ab3c10        	excw
    baa4:	aa80d0        	excw
    baa7:	f54623        	excw
    baaa:	ff          	.byte 0xff
    baab:	f01d      	excw
    baad:	03bd      	mov.n	a11, a3
    baaf:	02ad      	mov.n	a10, a2
    bab1:	2c88      	l32i.n	a8, a12, 8
    bab3:	5f          	.byte 0x5f
    bab4:	7d9705        	call0	0x89428
    bab7:	5f          	.byte 0x5f
    bab8:	589205        	call0	0x643dc
    babb:	344020        	extui	a4, a2, 0, 4
    babe:	346030        	extui	a6, a3, 0, 4
    bac1:	763851        	l32r	a5, 0xfffe93a4
    bac4:	1166c0        	slli	a6, a6, 4
    bac7:	0558      	l32i.n	a5, a5, 0
    bac9:	0558      	l32i.n	a5, a5, 0
    bacb:	204460        	or	a4, a4, a6
    bace:	284542        	s8i	a4, a5, 40
    bad1:	5f          	.byte 0x5f
    bad2:	30ce07        	bnall	a14, a0, 0xbb06
    bad5:	47ffa0        	excw
    bad8:	8c0912        	l8ui	a1, a9, 140
    badb:	473183        	excw
    bade:	223a76        	excw
    bae1:	f42020        	extui	a2, a2, 0, 16
    bae4:	f01d      	excw
    bae6:	a02220        	addx4	a2, a2, a2
    bae9:	764831        	l32r	a3, 0xfffe940c
    baec:	5ffbc6        	j	0x23adf
    baef:	34c406        	j	0x18e03
    baf2:	341347        	beq	a3, a4, 0xbb2a
    baf5:	c0b430        	sub	a11, a4, a3
    baf8:	c0a420        	sub	a10, a4, a2
    bafb:	c0c230        	sub	a12, a2, a3
    bafe:	82cc60        	mull	a12, a12, a6
    bb01:	82aa50        	mull	a10, a10, a5
    bb04:	01c722        	addi	a2, a7, 1
    bb07:	b32770        	movgez	a2, a7, a7
    bb0a:	80aac0        	add	a10, a10, a12
    bb0d:	212120        	srai	a2, a2, 1
    bb10:	232280        	excw
    bb13:	82aa70        	mull	a10, a10, a7
    bb16:	007ae5        	excw
    bb19:	0aed      	mov.n	a14, a10
    bb1b:	d2aa      	add.n	a13, a2, a10
    bb1d:	07bd      	mov.n	a11, a7
    bb1f:	c0aa20        	sub	a10, a10, a2
    bb22:	b3ade0        	movgez	a10, a13, a14
    bb25:	0079e5        	excw
    bb28:	0a5d      	mov.n	a5, a10
    bb2a:	5f2580        	excw
    bb2d:	878206        	j	0xfffed939
    bb30:	4008      	l32i.n	a0, a0, 16
    bb32:	72f490        	excw
    bb35:	200003        	excw
    bb38:	477440        	excw
    bb3b:	0c0b37        	bnone	a11, a3, 0xbb4b
    bb3e:	562202        	l32i	a0, a2, 0x158
    bb41:	552200        	extui	a2, a0, 18, 6
    bb44:	5f          	.byte 0x5f
    bb45:	26bd05        	call0	0x32718
    bb48:	893a      	add.n	a8, a9, a3
    bb4a:	ffd882        	addmi	a8, a8, 0xffffff00
    bb4d:	ff0882        	l8ui	a8, a8, 255
    bb50:	990b      	addi.n	a9, a9, -1
    bb52:	073487        	bltu	a4, a8, 0xbb5d
    bb55:	092d      	mov.n	a2, a9
    bb57:	005692        	s16i	a9, a6, 0
    bb5a:	fff8c6        	j	0xbb41
    bb5d:	020c      	movi.n	a2, 0
    bb5f:	24a976        	excw
    bb62:	923a      	add.n	a9, a2, a3
    bb64:	0009a2        	l8ui	a10, a9, 0
    bb67:	0109b2        	l8ui	a11, a9, 1
    bb6a:	059a47        	bne	a10, a4, 0xbb73
    bb6d:	005622        	s16i	a2, a6, 0
    bb70:	fff346        	j	0xbb41
    bb73:	0bb4b7        	bgeu	a4, a11, 0xbb82
    bb76:	005522        	s16i	a2, a5, 0
    bb79:	c21b      	addi.n	a12, a2, 1
    bb7b:	5f56c2        	s16i	a12, a6, 190
    bb7e:	609405        	call0	0x6c4c0
    bb81:	221b      	addi.n	a2, a2, 1
    bb83:	f42020        	extui	a2, a2, 0, 16
    bb86:	055f71        	l32r	a7, 0xfffcd104
    bb89:	6989      	s32i.n	a8, a9, 24
    bb8b:	0778      	l32i.n	a7, a7, 0
    bb8d:	0020c0        	memw
    bb90:	fffa06        	j	0xbb7c
    bb93:	008136        	excw
    bb96:	01ad      	mov.n	a10, a1
    bb98:	b12b      	addi.n	a11, a1, 2
    bb9a:	742541        	l32r	a4, 0xfffe8c30
    bb9d:	763851        	l32r	a5, 0xfffe9480
    bba0:	ab2482        	l32i	a8, a4, 0x2ac
    bba3:	0558      	l32i.n	a5, a5, 0
    bba5:	5f          	.byte 0x5f
    bba6:	fe8106        	j	0xb5ae
    bba9:	005340        	excw
    bbac:	0302a2        	l8ui	a10, a2, 3
    bbaf:	5f          	.byte 0x5f
    bbb0:	890a      	add.n	a8, a9, a0
    bbb2:	a81a      	add.n	a10, a8, a1
    bbb4:	709005        	call0	0x7c4b8
    bbb7:	27dc74        	excw
    bbba:	891c      	movi.n	a9, 24
    bbbc:	764961        	l32r	a6, 0xfffe94e0
    bbbf:	c4a642        	movi	a4, 0x6c4
    bbc2:	dca652        	movi	a5, 0x6dc
    bbc5:	5a5a      	add.n	a5, a10, a5
    bbc7:	4a4a      	add.n	a4, a10, a4
    bbc9:	6a6a      	add.n	a6, a10, a6
    bbcb:	000406        	j	0xbbdf
    bbce:	c90c      	movi.n	a9, 12
    bbd0:	8ca142        	movi	a4, 0x18c
    bbd3:	70a262        	movi	a6, 0x270
    bbd6:	98a152        	movi	a5, 0x198
    bbd9:	5a5a      	add.n	a5, a10, a5
    bbdb:	6a6a      	add.n	a6, a10, a6
    bbdd:	4a4a      	add.n	a4, a10, a4
    bbdf:	699c      	beqz.n	a9, 0xbbf9
    bbe1:	ffa0a2        	movi	a10, 255
    bbe4:	030c      	movi.n	a3, 0
    bbe6:	0c9976        	excw
    bbe9:	843a      	add.n	a8, a4, a3
    bbeb:	000882        	l8ui	a8, a8, 0
    bbee:	0a18a7        	beq	a8, a10, 0xbbfc
    bbf1:	331b      	addi.n	a3, a3, 1
    bbf3:	f43030        	extui	a3, a3, 0, 16
    bbf6:	000086        	j	0xbbfc
    bbf9:	00a032        	movi	a3, 0
    bbfc:	742581        	l32r	a8, 0xfffe8c90
    bbff:	20a220        	or	a10, a2, a2
    bc02:	a92882        	l32i	a8, a8, 0x2a4
    bc05:	b14b      	addi.n	a11, a1, 4
    bc07:	0008e0        	excw
    bc0a:	021122        	l16ui	a2, a1, 4
    bc0d:	1e2716        	beqz	a7, 0xbdf3
    bc10:	a24b      	addi.n	a10, a2, 4
    bc12:	03cd      	mov.n	a12, a3
    bc14:	74a0a0        	extui	a10, a10, 0, 8
    bc17:	04bd      	mov.n	a11, a4
    bc19:	d1ab      	addi.n	a13, a1, 10
    bc1b:	e1cb      	addi.n	a14, a1, 12
    bc1d:	fff065        	excw
    bc20:	0a9d      	mov.n	a9, a10
    bc22:	0511a2        	l16ui	a10, a1, 10
    bc25:	0e8916        	beqz	a9, 0xbd11
    bc28:	b02aa0        	addx8	a2, a10, a10
    bc2b:	5b0c      	movi.n	a11, 5
    bc2d:	903250        	addx2	a3, a2, a5
    bc30:	1122f0        	slli	a2, a2, 1
    bc33:	0293a2        	l16si	a10, a3, 4
    bc36:	006825        	excw
    bc39:	426a      	add.n	a4, a2, a6
    bc3b:	5b0c      	movi.n	a11, 5
    bc3d:	0a2d      	mov.n	a2, a10
    bc3f:	0294a2        	l16si	a10, a4, 4
    bc42:	006765        	excw
    bc45:	001182        	l16ui	a8, a1, 0
    bc48:	0a7d      	mov.n	a7, a10
    bc4a:	fec882        	addi	a8, a8, -2
    bc4d:	0b8856        	bnez	a8, 0xbd09
    bc50:	060432        	l8ui	a3, a4, 6
    bc53:	0704a2        	l8ui	a10, a4, 7
    bc56:	000f86        	j	0xbc98
    bc59:	03cd      	mov.n	a12, a3
    bc5b:	af0c      	movi.n	a15, 10
    bc5d:	90ea50        	addx2	a14, a10, a5
    bc60:	90db50        	addx2	a13, a11, a5
    bc63:	060dd2        	l8ui	a13, a13, 6
    bc66:	060ee2        	l8ui	a14, a14, 6
    bc69:	02ad      	mov.n	a10, a2
    bc6b:	04bd      	mov.n	a11, a4
    bc6d:	ffe765        	excw
    bc70:	04bd      	mov.n	a11, a4
    bc72:	af0c      	movi.n	a15, 10
    bc74:	0611e2        	l16ui	a14, a1, 12
    bc77:	03cd      	mov.n	a12, a3
    bc79:	0511d2        	l16ui	a13, a1, 10
    bc7c:	7430a0        	extui	a3, a10, 0, 8
    bc7f:	02ad      	mov.n	a10, a2
    bc81:	b0ddd0        	addx8	a13, a13, a13
    bc84:	b0eee0        	addx8	a14, a14, a14
    bc87:	90ee50        	addx2	a14, a14, a5
    bc8a:	90dd50        	addx2	a13, a13, a5
    bc8d:	070dd2        	l8ui	a13, a13, 7
    bc90:	070ee2        	l8ui	a14, a14, 7
    bc93:	ffe525        	excw
    bc96:	4128      	l32i.n	a2, a1, 16
    bc98:	752de1        	l32r	a14, 0xfffe914c
    bc9b:	764b91        	l32r	a9, 0xfffe95c8
    bc9e:	764ab1        	l32r	a11, 0xfffe95c8
    bca1:	11d200        	slli	a13, a2, 16
    bca4:	752af1        	l32r	a15, 0xfffe914c
    bca7:	065fb0        	excw
    bcaa:	7688      	l32i.n	a8, a6, 28
    bcac:	2f          	.byte 0x2f
    bcad:	9088      	l32i.n	a8, a0, 36
    bcaf:	5f          	.byte 0x5f
    bcb0:	8809      	s32i.n	a0, a8, 32
    bcb2:	886f76        	excw
    bcb5:	118700        	slli	a8, a7, 16
    bcb8:	055fb0        	extui	a5, a11, 31, 1
    bcbb:	6389      	s32i.n	a8, a3, 24
    bcbd:	882ed2        	l32i	a13, a14, 0x220
    bcc0:	10dd90        	and	a13, a13, a9
    bcc3:	065f80        	excw
    bcc6:	278a      	add.n	a2, a7, a8
    bcc8:	6e          	.byte 0x6e
    bcc9:	c288      	l32i.n	a8, a2, 48
    bccb:	af          	.byte 0xaf
    bccc:	20c000        	or	a12, a0, a0
    bccf:	2fb200        	excw
    bcd2:	8f          	.byte 0x8f
    bcd3:	10bbc0        	and	a11, a11, a12
    bcd6:	065f30        	excw
    bcd9:	4a88      	l32i.n	a8, a10, 16
    bcdb:	6f          	.byte 0x6f
    bcdc:	8f          	.byte 0x8f
    bcdd:	741791        	l32r	a9, 0xfffe8d3c
    bce0:	118a80        	slli	a8, a10, 8
    bce3:	108890        	and	a8, a8, a9
    bce6:	764c91        	l32r	a9, 0xfffe9618
    bce9:	0020c0        	memw
    bcec:	8f2fe2        	l32i	a14, a15, 0x23c
    bcef:	10ee90        	and	a14, a14, a9
    bcf2:	065f80        	excw
    bcf5:	43bb81        	l32r	a8, 0xfffdcbe4
    bcf8:	6f          	.byte 0x6f
    bcf9:	8f          	.byte 0x8f
    bcfa:	f01d      	excw
    bcfc:	034d      	mov.n	a4, a3
    bcfe:	060332        	l8ui	a3, a3, 6
    bd01:	ffd046        	j	0xbc46
    bd04:	07bd      	mov.n	a11, a7
    bd06:	a4aa      	add.n	a10, a4, a10
    bd08:	000aa2        	l8ui	a10, a10, 0
    bd0b:	ffdaa5        	excw
    bd0e:	0611b2        	l16ui	a11, a1, 12
    bd11:	0a3d      	mov.n	a3, a10
    bd13:	ab4a      	add.n	a10, a11, a4
    bd15:	07bd      	mov.n	a11, a7
    bd17:	000aa2        	l8ui	a10, a10, 0
    bd1a:	ffd9e5        	excw
    bd1d:	034d      	mov.n	a4, a3
    bd1f:	0511b2        	l16ui	a11, a1, 10
    bd22:	0a3d      	mov.n	a3, a10
    bd24:	b0abb0        	addx8	a10, a11, a11
    bd27:	5b0c      	movi.n	a11, 5
    bd29:	90aa50        	addx2	a10, a10, a5
    bd2c:	029aa2        	l16si	a10, a10, 4
    bd2f:	0057a5        	excw
    bd32:	0611b2        	l16ui	a11, a1, 12
    bd35:	5f7d      	excw
    bd37:	130d      	excw
    bd39:	800056        	bnez	a0, 0xb53d
    bd3c:	bd23d7        	blt	a3, a13, 0xbcfd
    bd3f:	03cd04        	excw
    bd42:	23ea80        	excw
    bd45:	af0c      	movi.n	a15, 10
    bd47:	02ad      	mov.n	a10, a2
    bd49:	ffd825        	excw
    bd4c:	0511b2        	l16ui	a11, a1, 10
    bd4f:	41a9      	s32i.n	a10, a1, 16
    bd51:	5f          	.byte 0x5f
    bd52:	602405        	call0	0x6bf94
    bd55:	5f          	.byte 0x5f
    bd56:	652405        	call0	0x70f98
    bd59:	0b5f54        	excw
    bd5c:	065f37        	bbc	a15, a3, 0xbd66
    bd5f:	532513        	excw
    bd62:	5f          	.byte 0x5f
    bd63:	0f          	.byte 0xf
    bd64:	d4e537        	bbsi	a5, 3, 0xbd3c
    bd67:	ff          	.byte 0xff
    bd68:	0011c2        	l16ui	a12, a1, 0
    bd6b:	0a7d      	mov.n	a7, a10
    bd6d:	0511b2        	l16ui	a11, a1, 10
    bd70:	0611a2        	l16ui	a10, a1, 12
    bd73:	b0bbb0        	addx8	a11, a11, a11
    bd76:	feccc2        	addi	a12, a12, -2
    bd79:	b0aaa0        	addx8	a10, a10, a10
    bd7c:	ea7c56        	bnez	a12, 0xbc27
    bd7f:	03cd      	mov.n	a12, a3
    bd81:	af0c      	movi.n	a15, 10
    bd83:	90ea60        	addx2	a14, a10, a6
    bd86:	0c5f60        	excw
    bd89:	e55882        	s16i	a8, a8, 0x1ca
    bd8c:	185fd1        	l32r	a13, 0xfffd1f08
    bd8f:	605882        	s16i	a8, a8, 192
    bd92:	ee          	.byte 0xee
    bd93:	5f6090        	excw
    bd96:	8208      	l32i.n	a0, a2, 32
    bd98:	a558      	l32i.n	a5, a5, 40
    bd9a:	cf          	.byte 0xcf
    bd9b:	ff          	.byte 0xff
    bd9c:	4128      	l32i.n	a2, a1, 16
    bd9e:	ffa906        	j	0xbc46
    bda1:	764da1        	l32r	a10, 0xfffe96d8
    bda4:	5b0c      	movi.n	a11, 5
    bda6:	a2aa      	add.n	a10, a2, a10
    bda8:	004be5        	excw
    bdab:	ff8446        	j	0xbbc0
    bdae:	01a136        	excw
    bdb1:	276132        	s32i	a3, a1, 156
    bdb4:	206142        	s32i	a4, a1, 128
    bdb7:	216152        	s32i	a5, a1, 132
    bdba:	1b0c      	movi.n	a11, 1
    bdbc:	0a0c      	movi.n	a10, 0
    bdbe:	0051a2        	s16i	a10, a1, 0
    bdc1:	030292        	l8ui	a9, a2, 3
    bdc4:	2461b2        	s32i	a11, a1, 144
    bdc7:	5f          	.byte 0x5f
    bdc8:	8a09      	s32i.n	a0, a10, 32
    bdca:	1a09      	s32i.n	a0, a10, 4
    bdcc:	076926        	beqi	a9, 6, 0xbdd7
    bdcf:	047926        	beqi	a9, 7, 0xbdd7
    bdd2:	0c0c      	movi.n	a12, 0
    bdd4:	2461c2        	s32i	a12, a1, 144
    bdd7:	1d0c      	movi.n	a13, 1
    bdd9:	2561d2        	s32i	a13, a1, 148
    bddc:	074926        	beqi	a9, 4, 0xbde7
    bddf:	045926        	beqi	a9, 5, 0xbde7
    bde2:	0e0c      	movi.n	a14, 0
    bde4:	2561e2        	s32i	a14, a1, 148
    bde7:	0b0c      	movi.n	a11, 0
    bde9:	62a0c2        	movi	a12, 98
    bdec:	84a032        	movi	a3, 132
    bdef:	7450a0        	extui	a5, a10, 0, 8
    bdf2:	c0a582        	movi	a8, 0x5c0
    bdf5:	763841        	l32r	a4, 0xfffe96d8
    bdf8:	88a062        	movi	a6, 136
    bdfb:	0448      	l32i.n	a4, a4, 0
    bdfd:	836850        	moveqz	a6, a8, a5
    be00:	740081        	l32r	a8, 0xfffe8e00
    be03:	343a      	add.n	a3, a4, a3
    be05:	22c472        	addi	a7, a4, 34
    be08:	07ad      	mov.n	a10, a7
    be0a:	0448      	l32i.n	a4, a4, 0
    be0c:	226142        	s32i	a4, a1, 136
    be0f:	3e2882        	l32i	a8, a8, 248
    be12:	446a      	add.n	a4, a4, a6
    be14:	272162        	l32i	a6, a1, 156
    be17:	5f          	.byte 0x5f
    be18:	42a505        	call0	0x4e86c
    be1b:	5f          	.byte 0x5f
    be1c:	810a      	add.n	a8, a1, a0
    be1e:	627df2        	excw
    be21:	5f          	.byte 0x5f
    be22:	76de05        	call0	0x82c04
    be25:	07cd      	mov.n	a12, a7
    be27:	f93c      	movi.n	a9, 63
    be29:	2721d2        	l32i	a13, a1, 156
    be2c:	764e81        	l32r	a8, 0xfffe9764
    be2f:	2121a2        	l32i	a10, a1, 132
    be32:	0888      	l32i.n	a8, a8, 0
    be34:	04a0a0        	extui	a10, a10, 0, 1
    be37:	2861a2        	s32i	a10, a1, 160
    be3a:	93d9a0        	movnez	a13, a9, a10
    be3d:	5f          	.byte 0x5f
    be3e:	359a07        	bne	a10, a0, 0xbe77
    be41:	5f4e81        	l32r	a8, 0xfffe3b7c
    be44:	7b9c07        	bne	a12, a0, 0xbec3
    be47:	d888      	l32i.n	a8, a8, 52
    be49:	5f          	.byte 0x5f
    be4a:	4afe05        	call0	0x56e2c
    be4d:	5f4e81        	l32r	a8, 0xfffe3b88
    be50:	4f9a05        	call0	0x5b7f4
    be53:	a888      	l32i.n	a8, a8, 40
    be55:	5f          	.byte 0x5f
    be56:	27ca05        	call0	0x33af8
    be59:	242192        	l32i	a9, a1, 144
    be5c:	0417a2        	l16ui	a10, a7, 8
    be5f:	749090        	extui	a9, a9, 0, 8
    be62:	266192        	s32i	a9, a1, 152
    be65:	658c      	beqz.n	a5, 0xbe6f
    be67:	0017b2        	l16ui	a11, a7, 0
    be6a:	01bab7        	bgeu	a10, a11, 0xbe6f
    be6d:	0bad      	mov.n	a10, a11
    be6f:	698c      	beqz.n	a9, 0xbe79
    be71:	1c17b2        	l16ui	a11, a7, 56
    be74:	5f          	.byte 0x5f
    be75:	9d0a05        	call0	0xfffa8f18
    be78:	21d207        	bbs	a2, a0, 0xbe9d
    be7b:	21b220        	srai	a11, a2, 2
    be7e:	2c0c25        	excw
    be81:	74b0b0        	extui	a11, a11, 0, 8
    be84:	6b8c      	beqz.n	a11, 0xbe8e
    be86:	0c17b2        	l16ui	a11, a7, 24
    be89:	5f          	.byte 0x5f
    be8a:	a21705        	call0	0xfffadffc
    be8d:	005d      	mov.n	a5, a0
    be8f:	17ac76        	excw
    be92:	0019f2        	l16ui	a15, a9, 0
    be95:	0091e2        	l16si	a14, a1, 0
    be98:	f83c      	movi.n	a8, 63
    be9a:	eefa      	add.n	a14, a14, a15
    be9c:	f4e0e0        	extui	a14, a14, 0, 16
    be9f:	0059e2        	s16i	a14, a9, 0
    bea2:	02deb6        	bltui	a14, 64, 0xbea8
    bea5:	005982        	s16i	a8, a9, 0
    bea8:	992b      	addi.n	a9, a9, 2
    beaa:	07ad      	mov.n	a10, a7
    beac:	05bd      	mov.n	a11, a5
    beae:	742581        	l32r	a8, 0xfffe8f44
    beb1:	2621c2        	l32i	a12, a1, 152
    beb4:	2f2882        	l32i	a8, a8, 188
    beb7:	5f          	.byte 0x5f
    beb8:	4fa705        	call0	0x5b92c
    bebb:	190c      	movi.n	a9, 1
    bebd:	2221a2        	l32i	a10, a1, 136
    bec0:	1d0c      	movi.n	a13, 1
    bec2:	7aa8      	l32i.n	a10, a10, 28
    bec4:	6204b2        	l8ui	a11, a4, 98
    bec7:	04cea0        	extui	a12, a10, 14, 1
    beca:	04ada0        	extui	a10, a10, 13, 1
    becd:	83ac50        	moveqz	a10, a12, a5
    bed0:	2821c2        	l32i	a12, a1, 160
    bed3:	3bcc      	bnez.n	a11, 0xbeda
    bed5:	0b0c      	movi.n	a11, 0
    bed7:	839ba0        	moveqz	a9, a11, a10
    beda:	0a0c      	movi.n	a10, 0
    bedc:	83ad90        	moveqz	a10, a13, a9
    bedf:	2361a2        	s32i	a10, a1, 140
    bee2:	ec9c      	beqz.n	a12, 0xbf04
    bee4:	5c04e2        	l8ui	a14, a4, 92
    bee7:	742581        	l32r	a8, 0xfffe8f7c
    beea:	0abd      	mov.n	a11, a10
    beec:	0091d2        	l16si	a13, a1, 0
    beef:	02ad      	mov.n	a10, a2
    bef1:	23cd00        	excw
    bef4:	4e2882        	l32i	a8, a8, 0x138
    bef7:	ddea      	add.n	a13, a13, a14
    bef9:	23dd00        	excw
    befc:	5f          	.byte 0x5f
    befd:	4dea05        	call0	0x59da0
    bf00:	000c86        	j	0xbf36
    bf03:	764e81        	l32r	a8, 0xfffe983c
    bf06:	20a330        	or	a10, a3, a3
    bf09:	002882        	l32i	a8, a8, 0
    bf0c:	20b770        	or	a11, a7, a7
    bf0f:	c888      	l32i.n	a8, a8, 48
    bf11:	5f          	.byte 0x5f
    bf12:	72b506        	j	0x289ea
    bf15:	2321b2        	l32i	a11, a1, 140
    bf18:	02ad      	mov.n	a10, a2
    bf1a:	5c04e2        	l8ui	a14, a4, 92
    bf1d:	0091d2        	l16si	a13, a1, 0
    bf20:	742581        	l32r	a8, 0xfffe8fb4
    bf23:	5f          	.byte 0x5f
    bf24:	350b      	addi.n	a3, a5, -1
    bf26:	5f          	.byte 0x5f
    bf27:	938106        	j	0xffff0d2f
    bf2a:	21f213        	excw
    bf2d:	1628      	l32i.n	a2, a6, 4
    bf2f:	1f          	.byte 0x1f
    bf30:	ffa505        	call0	0xb984
    bf33:	67f9      	s32i.n	a15, a7, 24
    bf35:	1c3a      	add.n	a1, a12, a3
    bf37:	02ad      	mov.n	a10, a2
    bf39:	0b0c      	movi.n	a11, 0
    bf3b:	07ed      	mov.n	a14, a7
    bf3d:	0e5ff2        	s16i	a15, a15, 28
    bf40:	fa2c      	movi.n	a10, 47
    bf42:	5f          	.byte 0x5f
    bf43:	e02c04        	excw
    bf46:	0008      	l32i.n	a0, a0, 0
    bf48:	079d      	mov.n	a9, a7
    bf4a:	31a0a2        	movi	a10, 49
    bf4d:	04aa76        	excw
    bf50:	005962        	s16i	a6, a9, 0
    bf53:	992b      	addi.n	a9, a9, 2
    bf55:	764e41        	l32r	a4, 0xfffe9890
    bf58:	03bd      	mov.n	a11, a3
    bf5a:	0488      	l32i.n	a8, a4, 0
    bf5c:	02ad      	mov.n	a10, a2
    bf5e:	5f          	.byte 0x5f
    bf5f:	378207        	bany	a2, a0, 0xbf9a
    bf62:	05bd      	mov.n	a11, a5
    bf64:	07ad      	mov.n	a10, a7
    bf66:	5f          	.byte 0x5f
    bf67:	0e          	.byte 0xe
    bf68:	bd5481        	l32r	a8, 0xffffb4b8
    bf6b:	4e4102        	s8i	a0, a1, 78
    bf6e:	003176        	excw
    bf71:	4fa174        	excw
    bf74:	085f76        	excw
    bf77:	215f92        	s16i	a9, a15, 66
    bf7a:	5f7650        	excw
    bf7d:	a50c      	movi.n	a5, 10
    bf7f:	5c0c11        	l32r	a1, 0xfffe2fb0
    bf82:	5f          	.byte 0x5f
    bf83:	a508      	l32i.n	a0, a5, 40
    bf85:	048810        	extui	a8, a1, 8, 1
    bf88:	4888      	l32i.n	a8, a8, 16
    bf8a:	5f          	.byte 0x5f
    bf8b:	57f405        	call0	0x63ecc
    bf8e:	5f          	.byte 0x5f
    bf8f:	c008      	l32i.n	a0, a0, 48
    bf91:	742574        	excw
    bf94:	765121        	l32r	a2, 0xfffe98d8
    bf97:	1b6322        	s32i	a2, a3, 108
    bf9a:	5f          	.byte 0x5f
    bf9b:	1008      	l32i.n	a0, a0, 4
    bf9d:	b17655        	excw
    bfa0:	687652        	excw
    bfa3:	389122        	l16si	a2, a1, 112
    bfa6:	4e4176        	excw
    bfa9:	25c176        	excw
    bfac:	044874        	excw
    bfaf:	0969      	s32i.n	a6, a9, 0
    bfb1:	1d2c52        	l32i	a5, a12, 116
    bfb4:	765361        	l32r	a6, 0xfffe9900
    bfb7:	3959      	s32i.n	a5, a9, 12
    bfb9:	1d6cb2        	s32i	a11, a12, 116
    bfbc:	765451        	l32r	a5, 0xfffe990c
    bfbf:	d488      	l32i.n	a8, a4, 52
    bfc1:	14a8      	l32i.n	a10, a4, 4
    bfc3:	19a9      	s32i.n	a10, a9, 4
    bfc5:	2989      	s32i.n	a8, a9, 8
    bfc7:	a469      	s32i.n	a6, a4, 40
    bfc9:	d439      	s32i.n	a3, a4, 52
    bfcb:	1459      	s32i.n	a5, a4, 4
    bfcd:	5f          	.byte 0x5f
    bfce:	8108      	l32i.n	a0, a1, 32
    bfd0:	689d      	excw
    bfd2:	827656        	bnez	a6, 0xb7fd
    bfd5:	9a0302        	l8ui	a0, a3, 154
    bfd8:	2288      	l32i.n	a8, a2, 8
    bfda:	0008      	l32i.n	a0, a0, 0
    bfdc:	43dc      	bnez.n	a3, 0xbff4
    bfde:	1a2c      	movi.n	a10, 33
    bfe0:	02bd      	mov.n	a11, a2
    bfe2:	765781        	l32r	a8, 0xfffe9940
    bfe5:	0008e0        	excw
    bfe8:	7a4c      	movi.n	a10, 71
    bfea:	5f          	.byte 0x5f
    bfeb:	0a08      	l32i.n	a0, a10, 0
    bfed:	f01d      	excw
    bfef:	131366        	bnei	a3, 1, 0xc006
    bff2:	6a2c      	movi.n	a10, 38
    bff4:	5f          	.byte 0x5f
    bff5:	0f08      	l32i.n	a0, a15, 0
    bff7:	02bd      	mov.n	a11, a2
    bff9:	ca4c      	movi.n	a10, 76
    bffb:	5f          	.byte 0x5f
    bffc:	1908      	l32i.n	a0, a9, 4
    bffe:	613600        	excw
    c001:	02a200        	excw
    c004:	258103        	excw
    c007:	01bd74        	excw
    c00a:	262882        	l32i	a8, a8, 152
    c00d:	c14b      	addi.n	a12, a1, 4
    c00f:	5f          	.byte 0x5f
    c010:	7fa306        	j	0x2bea0
    c013:	5f58      	l32i.n	a5, a15, 20
    c015:	a10a      	add.n	a10, a1, a0
    c017:	912a      	add.n	a9, a1, a2
    c019:	7659      	s32i.n	a5, a6, 28
    c01b:	0998      	l32i.n	a9, a9, 0
    c01d:	11a8      	l32i.n	a10, a1, 4
    c01f:	0b0397        	bnone	a3, a9, 0xc02e
    c022:	8acc      	bnez.n	a10, 0xc02e
    c024:	1a5c      	movi.n	a10, 81
    c026:	1b0c      	movi.n	a11, 1
    c028:	5f          	.byte 0x5f
    c029:	3a09      	s32i.n	a0, a10, 12
    c02b:	5f          	.byte 0x5f
    c02c:	5a7c06        	j	0x22a20
    c02f:	5b2176        	excw
    c032:	3d3176        	excw
    c035:	588175        	excw
    c038:	234276        	excw
    c03b:	084912        	s8i	a1, a9, 8
    c03e:	126322        	s32i	a2, a3, 72
    c041:	1b6392        	s32i	a9, a3, 108
    c044:	5f          	.byte 0x5f
    c045:	708b05        	call0	0x7c8f8
    c048:	752aa1        	l32r	a10, 0xfffe94f0
    c04b:	0020c0        	memw
    c04e:	765cb1        	l32r	a11, 0xfffe99c0
    c051:	765d81        	l32r	a8, 0xfffe99c8
    c054:	312a92        	l32i	a9, a10, 196
    c057:	0888      	l32i.n	a8, a8, 0
    c059:	2099b0        	or	a9, a9, a11
    c05c:	752cb1        	l32r	a11, 0xfffe950c
    c05f:	8808c2        	l8ui	a12, a8, 136
    c062:	20b9b0        	or	a11, a9, a11
    c065:	5f9bc0        	excw
    c068:	28b205        	call0	0x34b8c
    c06b:	316a      	add.n	a3, a1, a6
    c06d:	880882        	l8ui	a8, a8, 136
    c070:	020c      	movi.n	a2, 0
    c072:	3b6817        	bbci	a8, 1, 0xc0b1
    c075:	742531        	l32r	a3, 0xfffe910c
    c078:	765ea1        	l32r	a10, 0xfffe99f0
    c07b:	2b0c      	movi.n	a11, 2
    c07d:	932382        	l32i	a8, a3, 0x24c
    c080:	5f          	.byte 0x5f
    c081:	329e05        	call0	0x3ea64
    c084:	6acc      	bnez.n	a10, 0xc08e
    c086:	221b      	addi.n	a2, a2, 1
    c088:	ebb266        	bnei	a2, 16, 0xc077
    c08b:	000086        	j	0xc091
    c08e:	0db266        	bnei	a2, 16, 0xc09f
    c091:	5f          	.byte 0x5f
    c092:	b18207        	bany	a2, a0, 0xc047
    c095:	5f          	.byte 0x5f
    c096:	5f          	.byte 0x5f
    c097:	065f00        	excw
    c09a:	217b      	addi.n	a2, a1, 7
    c09c:	887660        	excw
    c09f:	788802        	excw
    c0a2:	0008e0        	excw
    c0a5:	0288      	l32i.n	a8, a2, 0
    c0a7:	6888      	l32i.n	a8, a8, 24
    c0a9:	5f          	.byte 0x5f
    c0aa:	8109      	s32i.n	a0, a1, 32
    c0ac:	4b48      	l32i.n	a4, a11, 16
    c0ae:	060cc1        	l32r	a12, 0xfffcd8e0
    c0b1:	742551        	l32r	a5, 0xfffe9148
    c0b4:	765d41        	l32r	a4, 0xfffe9a28
    c0b7:	f4b030        	extui	a11, a3, 0, 16
    c0ba:	f4a020        	extui	a10, a2, 0, 16
    c0bd:	0051a2        	s16i	a10, a1, 0
    c0c0:	0251b2        	s16i	a11, a1, 4
    c0c3:	040492        	l8ui	a9, a4, 4
    c0c6:	0438      	l32i.n	a3, a4, 0
    c0c8:	19ac      	beqz.n	a9, 0xc0ed
    c0ca:	0c1966        	bnei	a9, 1, 0xc0da
    c0cd:	0cbd      	mov.n	a11, a12
    c0cf:	222582        	l32i	a8, a5, 136
    c0d2:	5f          	.byte 0x5f
    c0d3:	68de06        	j	0x2644f
    c0d6:	5f0002        	l8ui	a0, a0, 95
    c0d9:	ab0d04        	excw
    c0dc:	5f          	.byte 0x5f
    c0dd:	620d05        	call0	0x6e1b0
    c0e0:	b20444        	excw
    c0e3:	a20211        	l32r	a1, 0xffff48ec
    c0e6:	880011        	l32r	a1, 0xfffee0e8
    c0e9:	27a024        	excw
    c0ec:	5f          	.byte 0x5f
    c0ed:	54d505        	call0	0x60e40
    c0f0:	922c      	movi.n	a2, 41
    c0f2:	9a88a2        	excw
    c0f5:	09a293        	excw
    c0f8:	1b0c85        	call0	0x271c4
    c0fb:	0d2a66        	bnei	a10, 2, 0xc10c
    c0fe:	3d0c      	movi.n	a13, 3
    c100:	4d59b2        	s16i	a11, a9, 154
    c103:	4e59c2        	s16i	a12, a9, 156
    c106:	bf63b2        	s32i	a11, a3, 0x2fc
    c109:	c263d2        	s32i	a13, a3, 0x308
    c10c:	8409e2        	l8ui	a14, a9, 132
    c10f:	0b2e66        	bnei	a14, 2, 0xc11e
    c112:	5059c2        	s16i	a12, a9, 160
    c115:	1f6962        	s32i	a6, a9, 124
    c118:	4f59b2        	s16i	a11, a9, 158
    c11b:	1e69b2        	s32i	a11, a9, 120
    c11e:	021a66        	bnei	a10, 1, 0xc124
    c121:	1d69b2        	s32i	a11, a9, 116
    c124:	091266        	bnei	a2, 1, 0xc131
    c127:	1a0c      	movi.n	a10, 1
    c129:	af2582        	l32i	a8, a5, 0x2bc
    c12c:	5f          	.byte 0x5f
    c12d:	820b      	addi.n	a8, a2, -1
    c12f:	5cec      	bnez.n	a12, 0xc158
    c131:	5f          	.byte 0x5f
    c132:	eb8106        	j	0x6f3a
    c135:	910c      	movi.n	a1, 9
    c137:	765d      	excw
    c139:	05dd      	mov.n	a13, a5
    c13b:	3988      	l32i.n	a8, a9, 12
    c13d:	5f4952        	s8i	a5, a9, 95
    c140:	a48106        	j	0xffff5348
    c143:	9c08      	l32i.n	a0, a12, 36
    c145:	c13a      	add.n	a12, a1, a3
    c147:	b17661        	l32r	a6, 0xffff8720
    c14a:	c07662        	excw
    c14d:	a20020        	excw
    c150:	742b      	addi.n	a7, a4, 2
    c152:	065fc0        	excw
    c155:	6b0bc7        	bnone	a11, a12, 0xc1c4
    c158:	5f          	.byte 0x5f
    c159:	33a305        	call0	0x3fb8c
    c15c:	5f          	.byte 0x5f
    c15d:	249805        	call0	0x30ae0
    c160:	765d      	excw
    c162:	4888      	l32i.n	a8, a8, 16
    c164:	5f          	.byte 0x5f
    c165:	38ae06        	j	0x1a421
    c168:	0a2d      	mov.n	a2, a10
    c16a:	152882        	l32i	a8, a8, 84
    c16d:	5f          	.byte 0x5f
    c16e:	840d      	excw
    c170:	766730        	excw
    c173:	766651        	l32r	a5, 0xfffe9b0c
    c176:	742541        	l32r	a4, 0xfffe920c
    c179:	7665a1        	l32r	a10, 0xfffe9b10
    c17c:	7663f1        	l32r	a15, 0xfffe9b08
    c17f:	0e0c      	movi.n	a14, 0
    c181:	765d81        	l32r	a8, 0xfffe9af8
    c184:	b2c8      	l32i.n	a12, a2, 44
    c186:	7660b1        	l32r	a11, 0xfffe9b08
    c189:	08c9      	s32i.n	a12, a8, 0
    c18b:	0bb8      	l32i.n	a11, a11, 0
    c18d:	7664c1        	l32r	a12, 0xfffe9b20
    c190:	172bd2        	l32i	a13, a11, 92
    c193:	48d9      	s32i.n	a13, a8, 16
    c195:	0fe9      	s32i.n	a14, a15, 0
    c197:	176ba2        	s32i	a10, a11, 92
    c19a:	106bc2        	s32i	a12, a11, 64
    c19d:	902462        	l32i	a6, a4, 0x240
    c1a0:	a82492        	l32i	a9, a4, 0x2a0
    c1a3:	2899      	s32i.n	a9, a8, 8
    c1a5:	3869      	s32i.n	a6, a8, 12
    c1a7:	a86452        	s32i	a5, a4, 0x2a0
    c1aa:	906432        	s32i	a3, a4, 0x240
    c1ad:	5f          	.byte 0x5f
    c1ae:	5f4407        	ball	a4, a0, 0xc211
    c1b1:	6808      	l32i.n	a0, a8, 24
    c1b3:	5f          	.byte 0x5f
    c1b4:	828107        	bany	a1, a0, 0xc13a
    c1b7:	005c      	movi.n	a0, 80
    c1b9:	307230        	xor	a7, a2, a3
    c1bc:	606120        	abs	a6, a2
    c1bf:	603130        	abs	a3, a3
    c1c2:	3423b6        	bltui	a3, 2, 0xc1fa
    c1c5:	415160        	srli	a5, a6, 1
    c1c8:	3a3537        	bltu	a5, a3, 0xc206
    c1cb:	40f650        	nsau	a5, a6
    c1ce:	40f340        	nsau	a4, a3
    c1d1:	c04450        	sub	a4, a4, a5
    c1d4:	401400        	ssl	a4
    c1d7:	a13300        	sll	a3, a3
    c1da:	020c      	movi.n	a2, 0
    c1dc:	0d9476        	excw
    c1df:	043637        	bltu	a6, a3, 0xc1e7
    c1e2:	c06630        	sub	a6, a6, a3
    c1e5:	221b      	addi.n	a2, a2, 1
    c1e7:	1122f0        	slli	a2, a2, 1
    c1ea:	413130        	srli	a3, a3, 1
    c1ed:	013637        	bltu	a6, a3, 0xc1f2
    c1f0:	221b      	addi.n	a2, a2, 1
    c1f2:	605020        	neg	a5, a2
    c1f5:	a32570        	movltz	a2, a5, a7
    c1f8:	f01d      	excw
    c1fa:	539c      	beqz.n	a3, 0xc213
    c1fc:	602060        	neg	a2, a6
    c1ff:	b32670        	movgez	a2, a6, a7
    c202:	5f          	.byte 0x5f
    c203:	375104        	excw
    c206:	0c1036        	excw
    c209:	f47c12        	excw
    c20c:	a32470        	movltz	a2, a4, a7
    c20f:	5f          	.byte 0x5f
    c210:	005f05        	call0	0xc804
    c213:	564944        	excw
    c216:	020c30        	excw
    c219:	f01d      	excw
    c21b:	002136        	excw
    c21e:	2f23b6        	bltui	a3, 2, 0xc251
    c221:	026d      	mov.n	a6, a2
    c223:	5f          	.byte 0x5f
    c224:	475b06        	j	0x1df94
    c227:	5f2ab5        	excw
    c22a:	5e09      	s32i.n	a0, a14, 20
    c22c:	00a022        	movi	a2, 0
    c22f:	5f          	.byte 0x5f
    c230:	025f13        	excw
    c233:	01c222        	addi	a2, a2, 1
    c236:	f01d      	excw
    c238:	5f8c      	beqz.n	a15, 0xc241
    c23a:	0c5407        	bbc	a4, a0, 0xc24a
    c23d:	5f          	.byte 0x5f
    c23e:	e28107        	bany	a1, a0, 0xc224
    c241:	0f5f36        	excw
    c244:	502950        	excw
    c247:	065ff2        	s16i	a15, a15, 12
    c24a:	4e          	.byte 0x4e
    c24b:	095f16        	beqz	a15, 0xc2e4
    c24e:	4e          	.byte 0x4e
    c24f:	f03d      	nop.n
    c251:	089476        	excw
    c254:	023237        	bltu	a2, a3, 0xc25a
    c257:	c02230        	sub	a2, a2, a3
    c25a:	5f          	.byte 0x5f
    c25b:	5f4804        	excw
    c25e:	5f0905        	call0	0x6b2f0
    c261:	cc3b04        	excw
    c264:	0b5f53        	excw
    c267:	5f3d      	excw
    c269:	788106        	j	0x2a471
    c26c:	401400        	ssl	a4
    c26f:	07c4e6        	bgei	a4, 32, 0xc27a
    c272:	813320        	src	a3, a3, a2
    c275:	a12200        	sll	a2, a2
    c278:	f01d      	excw
    c27a:	a13200        	sll	a3, a2
    c27d:	5f          	.byte 0x5f
    c27e:	005807        	bbc	a8, a0, 0xc282
    c281:	055f04        	excw
    c284:	2318      	l32i.n	a1, a3, 8
    c286:	303081        	l32r	a8, 0xfffd8348
    c289:	f01d91        	l32r	a9, 0x8300 (0x5f428138)
    c28c:	912030        	srl	a2, a3
    c28f:	030c      	movi.n	a3, 0
    c291:	f01d      	excw
    c293:	008136        	excw
    c296:	826340        	mull	a6, a3, a4
    c299:	027d      	mov.n	a7, a2
    c29b:	828520        	mull	a8, a5, a2
    c29e:	822240        	mull	a2, a2, a4
    c2a1:	a23740        	excw
    c2a4:	668a      	add.n	a6, a6, a8
    c2a6:	5f6a      	add.n	a5, a15, a6
    c2a8:	3e9c06        	j	0x1bd1c
    c2ab:	740000        	extui	a0, a0, 0, 8
    c2ae:	2078      	l32i.n	a7, a0, 8
    c2b0:	207872        	excw
    c2b3:	206425        	excw
    c2b6:	0a6425        	excw
    c2b9:	5f          	.byte 0x5f
    c2ba:	4d1004        	excw
    c2bd:	206361        	l32r	a6, 0xfffd444c
    c2c0:	646461        	l32r	a6, 0xfffe5450
    c2c3:	736572        	s32i	a7, a5, 0x1cc
    c2c6:	692073        	excw
    c2c9:	3a2073        	excw
    c2cc:	302520        	xor	a2, a5, a2
    c2cf:	3a7832        	excw
    c2d2:	5f          	.byte 0x5f
    c2d3:	5f0505        	call0	0x6b324
    c2d6:	0a0a      	add.n	a0, a10, a0
    c2d8:	5f          	.byte 0x5f
    c2d9:	0a09      	s32i.n	a0, a10, 0
    c2db:	000a      	add.n	a0, a0, a0
    c2dd:	999a00        	excw
    c2e0:	fffd00        	excw
    c2e3:	ff          	.byte 0xff
    c2e4:	ff          	.byte 0xff
    c2e5:	78c8      	l32i.n	a12, a8, 28
    c2e7:	380043        	excw
    c2ea:	000007        	bnone	a0, a0, 0xc2ee
    c2ed:	dc09      	s32i.n	a0, a12, 52
    c2ef:	4378      	l32i.n	a7, a3, 16
    c2f1:	013900        	slli	a3, a9, 32
    c2f4:	d80020        	excw
    c2f7:	7f          	.byte 0x7f
    c2f8:	000043        	excw
    c2fb:	090000        	excw
    c2fe:	000404        	excw
    c301:	4378f0        	excw
    c304:	013a00        	slli	a3, a10, 32
    c307:	b80020        	excw
    c30a:	0b09      	s32i.n	a0, a11, 0
    c30c:	790414        	excw
    c30f:	3b0043        	excw
    c312:	002001        	l32r	a0, 0xfffcc394
    c315:	0998      	l32i.n	a9, a9, 0
    c317:	140b      	addi.n	a1, a4, -1
    c319:	7918      	l32i.n	a1, a9, 28
    c31b:	3c0043        	excw
    c31e:	002001        	l32r	a0, 0xfffcc3a0
    c321:	0978      	l32i.n	a7, a9, 0
    c323:	140b      	addi.n	a1, a4, -1
    c325:	792c      	movi.n	a9, 39
    c327:	3d0043        	excw
    c32a:	002001        	l32r	a0, 0xfffcc3ac
    c32d:	0958      	l32i.n	a5, a9, 0
    c32f:	140b      	addi.n	a1, a4, -1
    c331:	437940        	excw
    c334:	013e00        	slli	a3, a14, 32
    c337:	000c      	movi.n	a0, 0
    c339:	094c      	movi.n	a9, 64
    c33b:	140b      	addi.n	a1, a4, -1
    c33d:	437954        	excw
    c340:	013f00        	slli	a3, a15, 32
    c343:	000c      	movi.n	a0, 0
    c345:	0b0940        	excw
    c348:	796814        	excw
    c34b:	400043        	excw
    c34e:	000c01        	l32r	a0, 0xfffcc380
    c351:	0b0934        	excw
    c354:	797c14        	excw
    c357:	410043        	excw
    c35a:	000c01        	l32r	a0, 0xfffcc38c
    c35d:	0928      	l32i.n	a2, a9, 0
    c35f:	140b      	addi.n	a1, a4, -1
    c361:	437990        	excw
    c364:	014200        	slli	a4, a2, 32
    c367:	000c      	movi.n	a0, 0
    c369:	091c      	movi.n	a9, 16
    c36b:	140b      	addi.n	a1, a4, -1
    c36d:	4379a4        	excw
    c370:	012400        	slli	a2, a4, 32
    c373:	2800f4        	excw
    c376:	7e          	.byte 0x7e
    c377:	0a09      	s32i.n	a0, a10, 0
    c379:	79b814        	excw
    c37c:	250043        	excw
    c37f:	00f401        	l32r	a0, 0xfffcc750
    c382:	097d34        	excw
    c385:	140a      	add.n	a1, a4, a0
    c387:	79cc      	bnez.n	a9, 0xc392
    c389:	290043        	excw
    c38c:	00f401        	l32r	a0, 0xfffcc75c
    c38f:	097c40        	excw
    c392:	140a      	add.n	a1, a4, a0
    c394:	4379e0        	excw
    c397:	012a00        	slli	a2, a10, 32
    c39a:	4c00f4        	excw
    c39d:	097b      	addi.n	a0, a9, 7
    c39f:	140a      	add.n	a1, a4, a0
    c3a1:	4379f4        	excw
    c3a4:	014700        	slli	a4, a7, 32
    c3a7:	480004        	excw
    c3aa:	0b09      	s32i.n	a0, a11, 0
    c3ac:	7a0814        	excw
    c3af:	480043        	excw
    c3b2:	000401        	l32r	a0, 0xfffcc3c4
    c3b5:	0b0944        	excw
    c3b8:	7a1c14        	excw
    c3bb:	490043        	excw
    c3be:	000401        	l32r	a0, 0xfffcc3d0
    c3c1:	0b0940        	excw
    c3c4:	7a3014        	excw
    c3c7:	4a0043        	excw
    c3ca:	000401        	l32r	a0, 0xfffcc3dc
    c3cd:	093c      	movi.n	a9, 48
    c3cf:	140b      	addi.n	a1, a4, -1
    c3d1:	437a44        	excw
    c3d4:	014b00        	slli	a4, a11, 32
    c3d7:	380004        	excw
    c3da:	0b09      	s32i.n	a0, a11, 0
    c3dc:	7a5814        	excw
    c3df:	4c0043        	excw
    c3e2:	001001        	l32r	a0, 0xfffcc424
    c3e5:	0928      	l32i.n	a2, a9, 0
    c3e7:	140b      	addi.n	a1, a4, -1
    c3e9:	7a6c      	movi.n	a10, -25
    c3eb:	4d0043        	excw
    c3ee:	001001        	l32r	a0, 0xfffcc430
    c3f1:	0918      	l32i.n	a1, a9, 0
    c3f3:	140b      	addi.n	a1, a4, -1
    c3f5:	437a80        	excw
    c3f8:	014e00        	slli	a4, a14, 32
    c3fb:	080010        	excw
    c3fe:	0b09      	s32i.n	a0, a11, 0
    c400:	7a9414        	excw
    c403:	4f0043        	excw
    c406:	001001        	l32r	a0, 0xfffcc448
    c409:	7af8      	l32i.n	a15, a10, 28
    c40b:	0a09      	s32i.n	a0, a10, 0
    c40d:	7aa814        	excw
    c410:	500043        	excw
    c413:	001001        	l32r	a0, 0xfffcc454
    c416:	09e8      	l32i.n	a14, a9, 0
    c418:	140b      	addi.n	a1, a4, -1
    c41a:	7abc      	beqz.n	a10, 0xc455
    c41c:	510043        	excw
    c41f:	000c01        	l32r	a0, 0xfffcc450
    c422:	09dc      	bnez.n	a9, 0xc436
    c424:	140b      	addi.n	a1, a4, -1
    c426:	9771f0        	excw
    c429:	015200        	slli	a5, a2, 32
    c42c:	000c      	movi.n	a0, 0
    c42e:	0b09d0        	excw
    c431:	2a2a14        	excw
    c434:	2a2a      	add.n	a2, a10, a2
    c436:	2a2a      	add.n	a2, a10, a2
    c438:	2328      	l32i.n	a2, a3, 8
    c43a:	0e          	.byte 0xe
    c43b:	0e          	.byte 0xe
    c43c:	840305        	call0	0xfff90470
    c43f:	0002b0        	excw
    c442:	b088      	l32i.n	a8, a0, 44
    c444:	980002        	l8ui	a0, a0, 152
    c447:	0002b0        	excw
    c44a:	ac5d74        	excw
    c44d:	3f          	.byte 0x3f
    c44e:	ccaa      	add.n	a12, a12, a10
    c450:	ca4c      	movi.n	a10, 76
    c452:	00cc      	bnez.n	a0, 0xc456
    c454:	f01300        	subx8	a1, a3, a0
    c457:	0f          	.byte 0xf
    c458:	09fc00        	excw
    c45b:	091010        	excw
    c45e:	141004        	excw
    c461:	0aad      	mov.n	a10, a10
    c463:	28f8      	l32i.n	a15, a8, 8
    c465:	ce          	.byte 0xce
    c466:	00fd50        	excw
    c469:	fffcf0        	excw
    c46c:	1009      	s32i.n	a0, a0, 4
    c46e:	a64410        	excw
    c471:	dc0002        	l8ui	a0, a0, 220
    c474:	0002b2        	l8ui	a11, a2, 0
    c477:	02b2e0        	excw
    c47a:	b2e400        	excw
    c47d:	0609      	s32i.n	a0, a6, 0
    c47f:	040950        	extui	a0, a5, 9, 1
    c482:	080904        	excw
    c485:	0908      	l32i.n	a0, a9, 0
    c487:	e42004        	excw
    c48a:	036db2        	s32i	a11, a13, 12
    c48d:	4810e6        	bgei	a0, 1, 0xc4d9
    c490:	8e          	.byte 0x8e
    c491:	6db2e4        	excw
    c494:	040905        	call0	0x10528
    c497:	0908      	l32i.n	a0, a9, 0
    c499:	600c      	movi.n	a0, 6
    c49b:	fff000        	excw
    c49e:	ff          	.byte 0xff
    c49f:	df          	.byte 0xdf
    c4a0:	060950        	excw
    c4a3:	022481        	l32r	a8, 0xfffccd34
    c4a6:	030000        	excw
    c4a9:	000004        	excw
    c4ac:	000607        	bnone	a6, a0, 0xc4b0
    c4af:	400b00        	ssr	a11
    c4b2:	100000        	and	a0, a0, a0
    c4b5:	000042        	l8ui	a4, a0, 0
    c4b8:	004414        	excw
    c4bb:	461800        	excw
    c4be:	1c0000        	excw
    c4c1:	000440        	excw
    c4c4:	044123        	excw
    c4c7:	422500        	excw
    c4ca:	270004        	excw
    c4cd:	000443        	excw
    c4d0:	2029      	s32i.n	a2, a0, 8
    c4d2:	000c      	movi.n	a0, 0
    c4d4:	212c      	movi.n	a1, 34
    c4d6:	000c      	movi.n	a0, 0
    c4d8:	2e          	.byte 0x2e
    c4d9:	000c22        	l8ui	a2, a12, 0
    c4dc:	0c2330        	excw
    c4df:	203200        	or	a3, a2, a0
    c4e2:	3b0010        	excw
    c4e5:	001021        	l32r	a2, 0xfffcc528
    c4e8:	223d      	excw
    c4ea:	3f0010        	excw
    c4ed:	001023        	excw
    c4f0:	142041        	l32r	a4, 0xfffd1570
    c4f3:	214400        	srai	a4, a0, 4
    c4f6:	460014        	excw
    c4f9:	001422        	l16ui	a2, a4, 0
    c4fc:	2148      	l32i.n	a4, a1, 8
    c4fe:	1e          	.byte 0x1e
    c4ff:	604f00        	excw
    c502:	1e          	.byte 0x1e
    c503:	e05600        	subx4	a5, a6, a0
    c506:	1e          	.byte 0x1e
    c507:	e25e00        	excw
    c50a:	1e          	.byte 0x1e
    c50b:	e46200        	extui	a6, a0, 2, 15
    c50e:	1e          	.byte 0x1e
    c50f:	e66600        	excw
    c512:	1e          	.byte 0x1e
    c513:	ea6a00        	excw
    c516:	1e          	.byte 0x1e
    c517:	ec6e00        	excw
    c51a:	1e          	.byte 0x1e
    c51b:	f47200        	extui	a7, a0, 2, 16
    c51e:	1e          	.byte 0x1e
    c51f:	097b00        	excw
    c522:	8208      	l32i.n	a0, a2, 32
    c524:	0128      	l32i.n	a2, a1, 0
    c526:	0048      	l32i.n	a4, a0, 0
    c528:	040902        	l8ui	a0, a9, 4
    c52b:	080904        	excw
    c52e:	0208      	l32i.n	a0, a2, 0
    c530:	014085        	call0	0xd93c
    c533:	0409      	s32i.n	a0, a4, 0
    c535:	080904        	excw
    c538:	0908      	l32i.n	a0, a9, 0
    c53a:	0808      	l32i.n	a0, a8, 0
    c53c:	810a03        	excw
    c53f:	0e0403        	excw
    c542:	040381        	l32r	a8, 0xfffcd550
    c545:	4e          	.byte 0x4e
    c546:	050501        	l32r	a0, 0xfffcd95c
    c549:	050154        	excw
    c54c:	1009      	s32i.n	a0, a0, 4
    c54e:	095481        	l32r	a8, 0xfffceaa0
    c551:	817481        	l32r	a8, 0xfffecb24
    c554:	830974        	excw
    c557:	8368      	l32i.n	a6, a3, 32
    c559:	0868      	l32i.n	a6, a8, 0
    c55b:	508080        	excw
    c55e:	0409      	s32i.n	a0, a4, 0
    c560:	06dd04        	excw
    c563:	090000        	excw
    c566:	0c0c      	movi.n	a12, 0
    c568:	1809      	s32i.n	a0, a8, 4
    c56a:	4018      	l32i.n	a1, a0, 16
    c56c:	0001c1        	l32r	a12, 0xfffcc570
    c56f:	01c540        	slli	a12, a5, 28
    c572:	ce5000        	excw
    c575:	da0001        	l32r	a0, 0x2d78 (0xce86fa7c)
    c578:	5ac640        	excw
    c57b:	5e          	.byte 0x5e
    c57c:	785d      	excw
    c57e:	282033        	excw
    c581:	121526        	beqi	a5, 1, 0xc597
    c584:	003020        	excw
    c587:	0803f1        	l32r	a15, 0xfffce594
    c58a:	478800        	excw
    c58d:	3e          	.byte 0x3e
    c58e:	3b9381        	l32r	a8, 0xfffdb3dc
    c591:	0219      	s32i.n	a1, a2, 0
    c593:	2c8d      	excw
    c595:	d085a4        	excw
    c598:	0409      	s32i.n	a0, a4, 0
    c59a:	096020        	excw
    c59d:	b82020        	excw
    c5a0:	2038      	l32i.n	a3, a0, 8
    c5a2:	2618      	l32i.n	a1, a6, 8
    c5a4:	180d      	excw
    c5a6:	0509      	s32i.n	a0, a5, 0
    c5a8:	09ff20        	excw
    c5ab:	2008      	l32i.n	a0, a0, 8
    c5ad:	a8a801        	l32r	a0, 0xffff6850
    c5b0:	0609e5        	excw
    c5b3:	095d20        	excw
    c5b6:	201a      	add.n	a2, a0, a1
    c5b8:	029824        	excw
    c5bb:	9e1400        	excw
    c5be:	400002        	l8ui	a0, a0, 64
    c5c1:	9e          	.byte 0x9e
    c5c2:	480002        	l8ui	a0, a0, 72
    c5c5:	9e          	.byte 0x9e
    c5c6:	500002        	l8ui	a0, a0, 80
    c5c9:	9e          	.byte 0x9e
    c5ca:	c00002        	l8ui	a0, a0, 192
    c5cd:	9f          	.byte 0x9f
    c5ce:	d00002        	l8ui	a0, a0, 208
    c5d1:	9f          	.byte 0x9f
    c5d2:	d40002        	l8ui	a0, a0, 212
    c5d5:	9f          	.byte 0x9f
    c5d6:	c80002        	l8ui	a0, a0, 200
    c5d9:	0978      	l32i.n	a7, a9, 0
    c5db:	348a06        	j	0x19807
    c5de:	000000        	ill
    c5e1:	ffff00        	excw
    c5e4:	ff          	.byte 0xff
    c5e5:	ff          	.byte 0xff