../git/linux-firmware/./acenic/tg2.bin:     file format binary


Disassembly of section .data:

00000000 <.data>:
       0:	0c040b00 	jal	0x102c00
       4:	00004000 	sll	t0,zero,0x0
       8:	00004000 	sll	t0,zero,0x0
       c:	00000000 	nop
      10:	10000003 	b	0x20
      14:	00000000 	nop
      18:	0000000d 	break
      1c:	0000000d 	break
      20:	3c1d0001 	lui	sp,0x1
      24:	8fbd6d20 	lw	sp,27936(sp)
      28:	03a0f021 	move	s8,sp
      2c:	3c100000 	lui	s0,0x0
      30:	26104000 	addiu	s0,s0,16384
      34:	0c0010c0 	jal	0x4300
      38:	00000000 	nop
      3c:	0000000d 	break
      40:	3c1d0001 	lui	sp,0x1
      44:	8fbd6d24 	lw	sp,27940(sp)
      48:	03a0f021 	move	s8,sp
      4c:	3c100000 	lui	s0,0x0
      50:	26104000 	addiu	s0,s0,16384
      54:	0c0017e0 	jal	0x5f80
      58:	00000000 	nop
      5c:	0000000d 	break
	...
     10c:	02000008 	jr	s0
     110:	00000000 	nop
     114:	0800172f 	j	0x5cbc
     118:	3c0a0001 	lui	t2,0x1
     11c:	0800172f 	j	0x5cbc
     120:	3c0a0002 	lui	t2,0x2
     124:	0800172f 	j	0x5cbc
     128:	00000000 	nop
     12c:	08002cac 	j	0xb2b0
     130:	00000000 	nop
     134:	08002c4f 	j	0xb13c
     138:	00000000 	nop
     13c:	0800172f 	j	0x5cbc
     140:	3c0a0004 	lui	t2,0x4
     144:	0800328a 	j	0xca28
     148:	00000000 	nop
     14c:	08001a52 	j	0x6948
     150:	00000000 	nop
     154:	0800394d 	j	0xe534
     158:	00000000 	nop
     15c:	080038f4 	j	0xe3d0
     160:	00000000 	nop
     164:	0800172f 	j	0x5cbc
     168:	3c0a0006 	lui	t2,0x6
     16c:	080039bb 	j	0xe6ec
     170:	3c0a0007 	lui	t2,0x7
     174:	0800172f 	j	0x5cbc
     178:	3c0a0008 	lui	t2,0x8
     17c:	0800172f 	j	0x5cbc
     180:	3c0a0009 	lui	t2,0x9
     184:	08003a13 	j	0xe84c
     188:	00000000 	nop
     18c:	08002ea6 	j	0xba98
     190:	00000000 	nop
     194:	0800172f 	j	0x5cbc
     198:	3c0a000b 	lui	t2,0xb
     19c:	0800172f 	j	0x5cbc
     1a0:	3c0a000c 	lui	t2,0xc
     1a4:	0800172f 	j	0x5cbc
     1a8:	3c0a000d 	lui	t2,0xd
     1ac:	080028fb 	j	0xa3ec
     1b0:	00000000 	nop
     1b4:	08002890 	j	0xa240
     1b8:	00000000 	nop
     1bc:	0800172f 	j	0x5cbc
     1c0:	3c0a000e 	lui	t2,0xe
     1c4:	0800208c 	j	0x8230
     1c8:	00000000 	nop
     1cc:	08001964 	j	0x6590
     1d0:	00000000 	nop
     1d4:	08001a04 	j	0x6810
     1d8:	00000000 	nop
     1dc:	08003ca6 	j	0xf298
     1e0:	00000000 	nop
     1e4:	08003c94 	j	0xf250
     1e8:	00000000 	nop
     1ec:	0800172f 	j	0x5cbc
     1f0:	00000000 	nop
     1f4:	0800191a 	j	0x6468
     1f8:	00000000 	nop
     1fc:	0800172f 	j	0x5cbc
     200:	00000000 	nop
     204:	0800172f 	j	0x5cbc
     208:	3c0a0013 	lui	t2,0x13
     20c:	0800172f 	j	0x5cbc
     210:	3c0a0014 	lui	t2,0x14
	...
     30c:	27bdffe0 	addiu	sp,sp,-32
     310:	3c1cc000 	lui	gp,0xc000
     314:	afbf001c 	sw	ra,28(sp)
     318:	afb00018 	sw	s0,24(sp)
     31c:	8f820140 	lw	v0,320(gp)
     320:	24030003 	li	v1,3
     324:	af8300ec 	sw	v1,236(gp)
     328:	34420004 	ori	v0,v0,0x4
     32c:	0c002b20 	jal	0xac80
     330:	af820140 	sw	v0,320(gp)
     334:	3c0100c0 	lui	at,0xc0
     338:	0c001763 	jal	0x5d8c
     33c:	ac203ffc 	sw	zero,16380(at)
     340:	00401821 	move	v1,v0
     344:	3c020010 	lui	v0,0x10
     348:	3c010001 	lui	at,0x1
     34c:	ac236e9c 	sw	v1,28316(at)
     350:	10620011 	beq	v1,v0,0x398
     354:	0043102b 	sltu	v0,v0,v1
     358:	14400002 	bnez	v0,0x364
     35c:	3c020020 	lui	v0,0x20
     360:	3c020008 	lui	v0,0x8
     364:	1062000c 	beq	v1,v0,0x398
     368:	24050100 	li	a1,256
     36c:	3c060001 	lui	a2,0x1
     370:	8cc66e9c 	lw	a2,28316(a2)
     374:	3c040001 	lui	a0,0x1
     378:	24845c74 	addiu	a0,a0,23668
     37c:	00003821 	move	a3,zero
     380:	afa00010 	sw	zero,16(sp)
     384:	0c002b3b 	jal	0xacec
     388:	afa00014 	sw	zero,20(sp)
     38c:	3c020020 	lui	v0,0x20
     390:	3c010001 	lui	at,0x1
     394:	ac226e9c 	sw	v0,28316(at)
     398:	24020008 	li	v0,8
     39c:	3c010001 	lui	at,0x1
     3a0:	ac226eb4 	sw	v0,28340(at)
     3a4:	2402001f 	li	v0,31
     3a8:	3c010001 	lui	at,0x1
     3ac:	ac226ec4 	sw	v0,28356(at)
     3b0:	24020016 	li	v0,22
     3b4:	3c010001 	lui	at,0x1
     3b8:	ac226e98 	sw	v0,28312(at)
     3bc:	3c05fffe 	lui	a1,0xfffe
     3c0:	34a56f08 	ori	a1,a1,0x6f08
     3c4:	3c020001 	lui	v0,0x1
     3c8:	8c426e9c 	lw	v0,28316(v0)
     3cc:	3c030002 	lui	v1,0x2
     3d0:	24639010 	addiu	v1,v1,-28656
     3d4:	3c040001 	lui	a0,0x1
     3d8:	8c846cc4 	lw	a0,27844(a0)
     3dc:	00431023 	subu	v0,v0,v1
     3e0:	14800002 	bnez	a0,0x3ec
     3e4:	00458021 	addu	s0,v0,a1
     3e8:	2610fa38 	addiu	s0,s0,-1480
     3ec:	2402f000 	li	v0,-4096
     3f0:	02028024 	and	s0,s0,v0
     3f4:	0c001785 	jal	0x5e14
     3f8:	02002021 	move	a0,s0
     3fc:	02022823 	subu	a1,s0,v0
     400:	3c040020 	lui	a0,0x20
     404:	00821823 	subu	v1,a0,v0
     408:	00651823 	subu	v1,v1,a1
     40c:	247bb000 	addiu	k1,v1,-20480
     410:	3c03fffe 	lui	v1,0xfffe
     414:	3463bf08 	ori	v1,v1,0xbf08
     418:	0363b821 	addu	s7,k1,v1
     41c:	3c0600bf 	lui	a2,0xbf
     420:	34c6f000 	ori	a2,a2,0xf000
     424:	3c070001 	lui	a3,0x1
     428:	8ce76cc0 	lw	a3,27840(a3)
     42c:	3c0300bf 	lui	v1,0xbf
     430:	3463e000 	ori	v1,v1,0xe000
     434:	00852023 	subu	a0,a0,a1
     438:	3c010001 	lui	at,0x1
     43c:	ac246ea8 	sw	a0,28328(at)
     440:	00822023 	subu	a0,a0,v0
     444:	3c010001 	lui	at,0x1
     448:	ac256e90 	sw	a1,28304(at)
     44c:	00052842 	srl	a1,a1,0x1
     450:	3c010001 	lui	at,0x1
     454:	ac226e84 	sw	v0,28292(at)
     458:	27620ffc 	addiu	v0,k1,4092
     45c:	3c010001 	lui	at,0x1
     460:	ac226d20 	sw	v0,27936(at)
     464:	27621ffc 	addiu	v0,k1,8188
     468:	00db3023 	subu	a2,a2,k1
     46c:	007b1823 	subu	v1,v1,k1
     470:	3c010001 	lui	at,0x1
     474:	ac246e88 	sw	a0,28296(at)
     478:	3c010001 	lui	at,0x1
     47c:	ac256eac 	sw	a1,28332(at)
     480:	3c010001 	lui	at,0x1
     484:	ac226d24 	sw	v0,27940(at)
     488:	af860150 	sw	a2,336(gp)
     48c:	10e00011 	beqz	a3,0x4d4
     490:	af830250 	sw	v1,592(gp)
     494:	3c1d0001 	lui	sp,0x1
     498:	8fbd6ccc 	lw	sp,27852(sp)
     49c:	03a0f021 	move	s8,sp
     4a0:	0c001749 	jal	0x5d24
     4a4:	00000000 	nop
     4a8:	3c020001 	lui	v0,0x1
     4ac:	8c426cd0 	lw	v0,27856(v0)
     4b0:	3c030001 	lui	v1,0x1
     4b4:	8c636cd4 	lw	v1,27860(v1)
     4b8:	2442fe00 	addiu	v0,v0,-512
     4bc:	24630200 	addiu	v1,v1,512
     4c0:	3c010001 	lui	at,0x1
     4c4:	ac226cd0 	sw	v0,27856(at)
     4c8:	3c010001 	lui	at,0x1
     4cc:	10000004 	b	0x4e0
     4d0:	ac236cd4 	sw	v1,27860(at)
     4d4:	3c1d0001 	lui	sp,0x1
     4d8:	8fbd6d20 	lw	sp,27936(sp)
     4dc:	03a0f021 	move	s8,sp
     4e0:	3c020001 	lui	v0,0x1
     4e4:	8c426cc4 	lw	v0,27844(v0)
     4e8:	1040000d 	beqz	v0,0x520
     4ec:	26fafa38 	addiu	k0,s7,-1480
     4f0:	3c020001 	lui	v0,0x1
     4f4:	8c426cd0 	lw	v0,27856(v0)
     4f8:	3c030001 	lui	v1,0x1
     4fc:	8c636cd4 	lw	v1,27860(v1)
     500:	3c1a0001 	lui	k0,0x1
     504:	8f5a6cd4 	lw	k0,27860(k0)
     508:	2442fa38 	addiu	v0,v0,-1480
     50c:	246305c8 	addiu	v1,v1,1480
     510:	3c010001 	lui	at,0x1
     514:	ac226cd0 	sw	v0,27856(at)
     518:	3c010001 	lui	at,0x1
     51c:	ac236cd4 	sw	v1,27860(at)
     520:	3c020001 	lui	v0,0x1
     524:	8c426cc8 	lw	v0,27848(v0)
     528:	14400003 	bnez	v0,0x538
     52c:	00000000 	nop
     530:	3c010001 	lui	at,0x1
     534:	ac206cd0 	sw	zero,27856(at)
     538:	0c001151 	jal	0x4544
     53c:	00000000 	nop
     540:	8fbf001c 	lw	ra,28(sp)
     544:	8fb00018 	lw	s0,24(sp)
     548:	03e00008 	jr	ra
     54c:	27bd0020 	addiu	sp,sp,32
     550:	3c020001 	lui	v0,0x1
     554:	8c426cd0 	lw	v0,27856(v0)
     558:	3c030001 	lui	v1,0x1
     55c:	8c636cd4 	lw	v1,27860(v1)
     560:	27bdff98 	addiu	sp,sp,-104
     564:	afb00048 	sw	s0,72(sp)
     568:	3c100001 	lui	s0,0x1
     56c:	8e1066b8 	lw	s0,26296(s0)
     570:	afb20050 	sw	s2,80(sp)
     574:	3c120000 	lui	s2,0x0
     578:	26524100 	addiu	s2,s2,16640
     57c:	afbf0060 	sw	ra,96(sp)
     580:	afbe005c 	sw	s8,92(sp)
     584:	afb50058 	sw	s5,88(sp)
     588:	afb30054 	sw	s3,84(sp)
     58c:	afb1004c 	sw	s1,76(sp)
     590:	afa20034 	sw	v0,52(sp)
     594:	afa30030 	sw	v1,48(sp)
     598:	afa00010 	sw	zero,16(sp)
     59c:	afa00014 	sw	zero,20(sp)
     5a0:	8f860040 	lw	a2,64(gp)
     5a4:	3c040001 	lui	a0,0x1
     5a8:	24845c80 	addiu	a0,a0,23680
     5ac:	24050200 	li	a1,512
     5b0:	3c010001 	lui	at,0x1
     5b4:	ac326e80 	sw	s2,28288(at)
     5b8:	0c002b3b 	jal	0xacec
     5bc:	02003821 	move	a3,s0
     5c0:	8f830040 	lw	v1,64(gp)
     5c4:	3c02f000 	lui	v0,0xf000
     5c8:	00621824 	and	v1,v1,v0
     5cc:	3c026000 	lui	v0,0x6000
     5d0:	1062000b 	beq	v1,v0,0x600
     5d4:	a3a0003f 	sb	zero,63(sp)
     5d8:	240e0001 	li	t6,1
     5dc:	3c040001 	lui	a0,0x1
     5e0:	24845c88 	addiu	a0,a0,23688
     5e4:	a3ae003f 	sb	t6,63(sp)
     5e8:	afa00010 	sw	zero,16(sp)
     5ec:	afa00014 	sw	zero,20(sp)
     5f0:	8f860040 	lw	a2,64(gp)
     5f4:	24050300 	li	a1,768
     5f8:	0c002b3b 	jal	0xacec
     5fc:	02003821 	move	a3,s0
     600:	8f820240 	lw	v0,576(gp)
     604:	3c030001 	lui	v1,0x1
     608:	00431025 	or	v0,v0,v1
     60c:	af820240 	sw	v0,576(gp)
     610:	af800048 	sw	zero,72(gp)
     614:	8f820048 	lw	v0,72(gp)
     618:	14400005 	bnez	v0,0x630
     61c:	00000000 	nop
     620:	af800048 	sw	zero,72(gp)
     624:	8f820048 	lw	v0,72(gp)
     628:	10400004 	beqz	v0,0x63c
     62c:	00000000 	nop
     630:	af800048 	sw	zero,72(gp)
     634:	10000003 	b	0x644
     638:	02e02021 	move	a0,s7
     63c:	af80004c 	sw	zero,76(gp)
     640:	02e02021 	move	a0,s7
     644:	3c050001 	lui	a1,0x1
     648:	0c002ba8 	jal	0xaea0
     64c:	34a540f8 	ori	a1,a1,0x40f8
     650:	03402021 	move	a0,k0
     654:	0c002ba8 	jal	0xaea0
     658:	240505c8 	li	a1,1480
     65c:	3c020001 	lui	v0,0x1
     660:	8c426ea8 	lw	v0,28328(v0)
     664:	3c0d0001 	lui	t5,0x1
     668:	8dad6e88 	lw	t5,28296(t5)
     66c:	3c030001 	lui	v1,0x1
     670:	8c636e84 	lw	v1,28292(v1)
     674:	3c080001 	lui	t0,0x1
     678:	8d086e90 	lw	t0,28304(t0)
     67c:	3c090001 	lui	t1,0x1
     680:	8d296eac 	lw	t1,28332(t1)
     684:	3c0a0001 	lui	t2,0x1
     688:	8d4a6eb4 	lw	t2,28340(t2)
     68c:	3c0b0001 	lui	t3,0x1
     690:	8d6b6ec4 	lw	t3,28356(t3)
     694:	3c0c0001 	lui	t4,0x1
     698:	8d8c6e98 	lw	t4,28312(t4)
     69c:	3c040001 	lui	a0,0x1
     6a0:	24845c94 	addiu	a0,a0,23700
     6a4:	24050400 	li	a1,1024
     6a8:	af42013c 	sw	v0,316(k0)
     6ac:	8f42013c 	lw	v0,316(k0)
     6b0:	24060001 	li	a2,1
     6b4:	24070001 	li	a3,1
     6b8:	af400000 	sw	zero,0(k0)
     6bc:	af4d0138 	sw	t5,312(k0)
     6c0:	af430144 	sw	v1,324(k0)
     6c4:	af480148 	sw	t0,328(k0)
     6c8:	af49014c 	sw	t1,332(k0)
     6cc:	af4a0150 	sw	t2,336(k0)
     6d0:	af4b0154 	sw	t3,340(k0)
     6d4:	af4c0158 	sw	t4,344(k0)
     6d8:	2442ff80 	addiu	v0,v0,-128
     6dc:	af420140 	sw	v0,320(k0)
     6e0:	24020001 	li	v0,1
     6e4:	afa20010 	sw	v0,16(sp)
     6e8:	0c002b3b 	jal	0xacec
     6ec:	afa00014 	sw	zero,20(sp)
     6f0:	8f420138 	lw	v0,312(k0)
     6f4:	afa20010 	sw	v0,16(sp)
     6f8:	8f42013c 	lw	v0,316(k0)
     6fc:	afa20014 	sw	v0,20(sp)
     700:	8f460144 	lw	a2,324(k0)
     704:	8f470148 	lw	a3,328(k0)
     708:	3c040001 	lui	a0,0x1
     70c:	24845ca0 	addiu	a0,a0,23712
     710:	0c002b3b 	jal	0xacec
     714:	24050500 	li	a1,1280
     718:	afb70010 	sw	s7,16(sp)
     71c:	afba0014 	sw	k0,20(sp)
     720:	8f46014c 	lw	a2,332(k0)
     724:	8f470150 	lw	a3,336(k0)
     728:	3c040001 	lui	a0,0x1
     72c:	24845cac 	addiu	a0,a0,23724
     730:	0c002b3b 	jal	0xacec
     734:	24050600 	li	a1,1536
     738:	3c020001 	lui	v0,0x1
     73c:	8c426e9c 	lw	v0,28316(v0)
     740:	03603821 	move	a3,k1
     744:	3c060002 	lui	a2,0x2
     748:	24c69010 	addiu	a2,a2,-28656
     74c:	2448ffff 	addiu	t0,v0,-1
     750:	01061824 	and	v1,t0,a2
     754:	00e81024 	and	v0,a3,t0
     758:	0043102b 	sltu	v0,v0,v1
     75c:	10400006 	beqz	v0,0x778
     760:	24050900 	li	a1,2304
     764:	3c040001 	lui	a0,0x1
     768:	24845cb8 	addiu	a0,a0,23736
     76c:	afa80010 	sw	t0,16(sp)
     770:	0c002b3b 	jal	0xacec
     774:	afa00014 	sw	zero,20(sp)
     778:	8f82000c 	lw	v0,12(gp)
     77c:	afa20010 	sw	v0,16(sp)
     780:	8f82003c 	lw	v0,60(gp)
     784:	afa20014 	sw	v0,20(sp)
     788:	8f860000 	lw	a2,0(gp)
     78c:	8f870004 	lw	a3,4(gp)
     790:	3c040001 	lui	a0,0x1
     794:	24845cc4 	addiu	a0,a0,23748
     798:	0c002b3b 	jal	0xacec
     79c:	24051000 	li	a1,4096
     7a0:	8c020220 	lw	v0,544(zero)
     7a4:	8c030224 	lw	v1,548(zero)
     7a8:	8c060218 	lw	a2,536(zero)
     7ac:	8c07021c 	lw	a3,540(zero)
     7b0:	3c040001 	lui	a0,0x1
     7b4:	24845ccc 	addiu	a0,a0,23756
     7b8:	24051100 	li	a1,4352
     7bc:	afa20010 	sw	v0,16(sp)
     7c0:	0c002b3b 	jal	0xacec
     7c4:	afa30014 	sw	v1,20(sp)
     7c8:	af800054 	sw	zero,84(gp)
     7cc:	af80011c 	sw	zero,284(gp)
     7d0:	8c020218 	lw	v0,536(zero)
     7d4:	30420002 	andi	v0,v0,0x2
     7d8:	10400009 	beqz	v0,0x800
     7dc:	00000000 	nop
     7e0:	8c020220 	lw	v0,544(zero)
     7e4:	3c030002 	lui	v1,0x2
     7e8:	34630004 	ori	v1,v1,0x4
     7ec:	00431025 	or	v0,v0,v1
     7f0:	af42000c 	sw	v0,12(k0)
     7f4:	8c02021c 	lw	v0,540(zero)
     7f8:	10000008 	b	0x81c
     7fc:	34420004 	ori	v0,v0,0x4
     800:	8c020220 	lw	v0,544(zero)
     804:	3c030002 	lui	v1,0x2
     808:	34630006 	ori	v1,v1,0x6
     80c:	00431025 	or	v0,v0,v1
     810:	af42000c 	sw	v0,12(k0)
     814:	8c02021c 	lw	v0,540(zero)
     818:	34420006 	ori	v0,v0,0x6
     81c:	af420014 	sw	v0,20(k0)
     820:	8c020218 	lw	v0,536(zero)
     824:	30420010 	andi	v0,v0,0x10
     828:	1040000a 	beqz	v0,0x854
     82c:	00000000 	nop
     830:	8c02021c 	lw	v0,540(zero)
     834:	34420004 	ori	v0,v0,0x4
     838:	af420010 	sw	v0,16(k0)
     83c:	8c020220 	lw	v0,544(zero)
     840:	3c03000a 	lui	v1,0xa
     844:	34630004 	ori	v1,v1,0x4
     848:	00431025 	or	v0,v0,v1
     84c:	10000009 	b	0x874
     850:	af420008 	sw	v0,8(k0)
     854:	8c020220 	lw	v0,544(zero)
     858:	3c03000a 	lui	v1,0xa
     85c:	34630006 	ori	v1,v1,0x6
     860:	00431025 	or	v0,v0,v1
     864:	af420008 	sw	v0,8(k0)
     868:	8c02021c 	lw	v0,540(zero)
     86c:	34420006 	ori	v0,v0,0x6
     870:	af420010 	sw	v0,16(k0)
     874:	24020001 	li	v0,1
     878:	af8200a0 	sw	v0,160(gp)
     87c:	af8200b0 	sw	v0,176(gp)
     880:	8f830054 	lw	v1,84(gp)
     884:	8f820054 	lw	v0,84(gp)
     888:	af8000d0 	sw	zero,208(gp)
     88c:	af8000c0 	sw	zero,192(gp)
     890:	10000002 	b	0x89c
     894:	24630064 	addiu	v1,v1,100
     898:	8f820054 	lw	v0,84(gp)
     89c:	00621023 	subu	v0,v1,v0
     8a0:	2c420065 	sltiu	v0,v0,101
     8a4:	1440fffc 	bnez	v0,0x898
     8a8:	00000000 	nop
     8ac:	8c040208 	lw	a0,520(zero)
     8b0:	8c05020c 	lw	a1,524(zero)
     8b4:	26e20028 	addiu	v0,s7,40
     8b8:	aee20020 	sw	v0,32(s7)
     8bc:	24020490 	li	v0,1168
     8c0:	aee20010 	sw	v0,16(s7)
     8c4:	aee40008 	sw	a0,8(s7)
     8c8:	aee5000c 	sw	a1,12(s7)
     8cc:	26e40008 	addiu	a0,s7,8
     8d0:	8c820000 	lw	v0,0(a0)
     8d4:	8c830004 	lw	v1,4(a0)
     8d8:	af820090 	sw	v0,144(gp)
     8dc:	af830094 	sw	v1,148(gp)
     8e0:	8c820018 	lw	v0,24(a0)
     8e4:	af8200b4 	sw	v0,180(gp)
     8e8:	9482000a 	lhu	v0,10(a0)
     8ec:	af82009c 	sw	v0,156(gp)
     8f0:	8f420014 	lw	v0,20(k0)
     8f4:	af8200b0 	sw	v0,176(gp)
     8f8:	8f8200b0 	lw	v0,176(gp)
     8fc:	30420004 	andi	v0,v0,0x4
     900:	1440fffd 	bnez	v0,0x8f8
     904:	00000000 	nop
     908:	8f8200b0 	lw	v0,176(gp)
     90c:	3c03ef00 	lui	v1,0xef00
     910:	00431024 	and	v0,v0,v1
     914:	10400021 	beqz	v0,0x99c
     918:	00000000 	nop
     91c:	8f8200b4 	lw	v0,180(gp)
     920:	afa20010 	sw	v0,16(sp)
     924:	8f820090 	lw	v0,144(gp)
     928:	8f830094 	lw	v1,148(gp)
     92c:	3c040001 	lui	a0,0x1
     930:	24845cd4 	addiu	a0,a0,23764
     934:	afa30014 	sw	v1,20(sp)
     938:	8f8600b0 	lw	a2,176(gp)
     93c:	8f87009c 	lw	a3,156(gp)
     940:	3c050001 	lui	a1,0x1
     944:	0c002b3b 	jal	0xacec
     948:	34a5200d 	ori	a1,a1,0x200d
     94c:	3c040001 	lui	a0,0x1
     950:	24845ce0 	addiu	a0,a0,23776
     954:	240203c0 	li	v0,960
     958:	afa20010 	sw	v0,16(sp)
     95c:	afa00014 	sw	zero,20(sp)
     960:	8f860144 	lw	a2,324(gp)
     964:	3c070001 	lui	a3,0x1
     968:	24e75ce8 	addiu	a3,a3,23784
     96c:	0c002b3b 	jal	0xacec
     970:	3405dead 	li	a1,0xdead
     974:	8f82011c 	lw	v0,284(gp)
     978:	34420002 	ori	v0,v0,0x2
     97c:	af82011c 	sw	v0,284(gp)
     980:	8f820220 	lw	v0,544(gp)
     984:	34420004 	ori	v0,v0,0x4
     988:	af820220 	sw	v0,544(gp)
     98c:	8f820140 	lw	v0,320(gp)
     990:	3c030001 	lui	v1,0x1
     994:	00431025 	or	v0,v0,v1
     998:	af820140 	sw	v0,320(gp)
     99c:	96e20472 	lhu	v0,1138(s7)
     9a0:	96e60452 	lhu	a2,1106(s7)
     9a4:	96e70462 	lhu	a3,1122(s7)
     9a8:	afa20010 	sw	v0,16(sp)
     9ac:	96e20482 	lhu	v0,1154(s7)
     9b0:	3c040001 	lui	a0,0x1
     9b4:	24845d14 	addiu	a0,a0,23828
     9b8:	24051200 	li	a1,4608
     9bc:	0c002b3b 	jal	0xacec
     9c0:	afa20014 	sw	v0,20(sp)
     9c4:	96f00452 	lhu	s0,1106(s7)
     9c8:	32020001 	andi	v0,s0,0x1
     9cc:	10400002 	beqz	v0,0x9d8
     9d0:	0000b021 	move	s6,zero
     9d4:	24160001 	li	s6,1
     9d8:	32020002 	andi	v0,s0,0x2
     9dc:	54400001 	bnezl	v0,0x9e4
     9e0:	36d60002 	ori	s6,s6,0x2
     9e4:	32020008 	andi	v0,s0,0x8
     9e8:	54400001 	bnezl	v0,0x9f0
     9ec:	36d60004 	ori	s6,s6,0x4
     9f0:	32020010 	andi	v0,s0,0x10
     9f4:	54400001 	bnezl	v0,0x9fc
     9f8:	36d60008 	ori	s6,s6,0x8
     9fc:	32020020 	andi	v0,s0,0x20
     a00:	54400001 	bnezl	v0,0xa08
     a04:	36d60010 	ori	s6,s6,0x10
     a08:	32020040 	andi	v0,s0,0x40
     a0c:	54400001 	bnezl	v0,0xa14
     a10:	36d60020 	ori	s6,s6,0x20
     a14:	32020080 	andi	v0,s0,0x80
     a18:	54400001 	bnezl	v0,0xa20
     a1c:	36d60040 	ori	s6,s6,0x40
     a20:	96e60482 	lhu	a2,1154(s7)
     a24:	30c20200 	andi	v0,a2,0x200
     a28:	54400001 	bnezl	v0,0xa30
     a2c:	36d64000 	ori	s6,s6,0x4000
     a30:	96e30472 	lhu	v1,1138(s7)
     a34:	30620200 	andi	v0,v1,0x200
     a38:	10400003 	beqz	v0,0xa48
     a3c:	30620100 	andi	v0,v1,0x100
     a40:	10000003 	b	0xa50
     a44:	36d62000 	ori	s6,s6,0x2000
     a48:	54400001 	bnezl	v0,0xa50
     a4c:	36d61000 	ori	s6,s6,0x1000
     a50:	96f00462 	lhu	s0,1122(s7)
     a54:	32c24000 	andi	v0,s6,0x4000
     a58:	14400004 	bnez	v0,0xa6c
     a5c:	3207009b 	andi	a3,s0,0x9b
     a60:	30c2009b 	andi	v0,a2,0x9b
     a64:	14e20007 	bne	a3,v0,0xa84
     a68:	240e0001 	li	t6,1
     a6c:	32c22000 	andi	v0,s6,0x2000
     a70:	1440000d 	bnez	v0,0xaa8
     a74:	32020001 	andi	v0,s0,0x1
     a78:	3062009b 	andi	v0,v1,0x9b
     a7c:	10e20009 	beq	a3,v0,0xaa4
     a80:	240e0001 	li	t6,1
     a84:	3c040001 	lui	a0,0x1
     a88:	24845d20 	addiu	a0,a0,23840
     a8c:	24051300 	li	a1,4864
     a90:	02003821 	move	a3,s0
     a94:	a3ae003f 	sb	t6,63(sp)
     a98:	afa30010 	sw	v1,16(sp)
     a9c:	0c002b3b 	jal	0xacec
     aa0:	afa00014 	sw	zero,20(sp)
     aa4:	32020001 	andi	v0,s0,0x1
     aa8:	54400001 	bnezl	v0,0xab0
     aac:	36d60080 	ori	s6,s6,0x80
     ab0:	32020002 	andi	v0,s0,0x2
     ab4:	54400001 	bnezl	v0,0xabc
     ab8:	36d60100 	ori	s6,s6,0x100
     abc:	32020008 	andi	v0,s0,0x8
     ac0:	54400001 	bnezl	v0,0xac8
     ac4:	36d60200 	ori	s6,s6,0x200
     ac8:	32020010 	andi	v0,s0,0x10
     acc:	54400001 	bnezl	v0,0xad4
     ad0:	36d60400 	ori	s6,s6,0x400
     ad4:	32020080 	andi	v0,s0,0x80
     ad8:	54400001 	bnezl	v0,0xae0
     adc:	36d60800 	ori	s6,s6,0x800
     ae0:	8c020218 	lw	v0,536(zero)
     ae4:	30420200 	andi	v0,v0,0x200
     ae8:	10400002 	beqz	v0,0xaf4
     aec:	3c020008 	lui	v0,0x8
     af0:	02c2b025 	or	s6,s6,v0
     af4:	8c020218 	lw	v0,536(zero)
     af8:	30420800 	andi	v0,v0,0x800
     afc:	10400002 	beqz	v0,0xb08
     b00:	3c020080 	lui	v0,0x80
     b04:	02c2b025 	or	s6,s6,v0
     b08:	8c020218 	lw	v0,536(zero)
     b0c:	30420400 	andi	v0,v0,0x400
     b10:	10400002 	beqz	v0,0xb1c
     b14:	3c020100 	lui	v0,0x100
     b18:	02c2b025 	or	s6,s6,v0
     b1c:	8c020218 	lw	v0,536(zero)
     b20:	30420100 	andi	v0,v0,0x100
     b24:	10400002 	beqz	v0,0xb30
     b28:	3c020200 	lui	v0,0x200
     b2c:	02c2b025 	or	s6,s6,v0
     b30:	8c020218 	lw	v0,536(zero)
     b34:	30420080 	andi	v0,v0,0x80
     b38:	10400002 	beqz	v0,0xb44
     b3c:	3c020400 	lui	v0,0x400
     b40:	02c2b025 	or	s6,s6,v0
     b44:	8c020218 	lw	v0,536(zero)
     b48:	30422000 	andi	v0,v0,0x2000
     b4c:	10400002 	beqz	v0,0xb58
     b50:	3c020010 	lui	v0,0x10
     b54:	02c2b025 	or	s6,s6,v0
     b58:	8c020218 	lw	v0,536(zero)
     b5c:	30424000 	andi	v0,v0,0x4000
     b60:	10400002 	beqz	v0,0xb6c
     b64:	3c020020 	lui	v0,0x20
     b68:	02c2b025 	or	s6,s6,v0
     b6c:	8c020218 	lw	v0,536(zero)
     b70:	30421000 	andi	v0,v0,0x1000
     b74:	10400002 	beqz	v0,0xb80
     b78:	3c020040 	lui	v0,0x40
     b7c:	02c2b025 	or	s6,s6,v0
     b80:	8ee20498 	lw	v0,1176(s7)
     b84:	8ee3049c 	lw	v1,1180(s7)
     b88:	af420160 	sw	v0,352(k0)
     b8c:	af430164 	sw	v1,356(k0)
     b90:	8ee204a0 	lw	v0,1184(s7)
     b94:	8ee304a4 	lw	v1,1188(s7)
     b98:	af420168 	sw	v0,360(k0)
     b9c:	af43016c 	sw	v1,364(k0)
     ba0:	8ee204a8 	lw	v0,1192(s7)
     ba4:	8ee304ac 	lw	v1,1196(s7)
     ba8:	af420170 	sw	v0,368(k0)
     bac:	af430174 	sw	v1,372(k0)
     bb0:	8ee20428 	lw	v0,1064(s7)
     bb4:	8ee3042c 	lw	v1,1068(s7)
     bb8:	af420178 	sw	v0,376(k0)
     bbc:	af43017c 	sw	v1,380(k0)
     bc0:	8ee20448 	lw	v0,1096(s7)
     bc4:	8ee3044c 	lw	v1,1100(s7)
     bc8:	af420180 	sw	v0,384(k0)
     bcc:	af430184 	sw	v1,388(k0)
     bd0:	8ee20458 	lw	v0,1112(s7)
     bd4:	8ee3045c 	lw	v1,1116(s7)
     bd8:	af420188 	sw	v0,392(k0)
     bdc:	af43018c 	sw	v1,396(k0)
     be0:	8ee20468 	lw	v0,1128(s7)
     be4:	8ee3046c 	lw	v1,1132(s7)
     be8:	af420190 	sw	v0,400(k0)
     bec:	af430194 	sw	v1,404(k0)
     bf0:	8ee20478 	lw	v0,1144(s7)
     bf4:	8ee3047c 	lw	v1,1148(s7)
     bf8:	af420198 	sw	v0,408(k0)
     bfc:	af43019c 	sw	v1,412(k0)
     c00:	8ee20488 	lw	v0,1160(s7)
     c04:	8ee3048c 	lw	v1,1164(s7)
     c08:	af4201a0 	sw	v0,416(k0)
     c0c:	af4301a4 	sw	v1,420(k0)
     c10:	8ee204b0 	lw	v0,1200(s7)
     c14:	8ee304b4 	lw	v1,1204(s7)
     c18:	24040080 	li	a0,128
     c1c:	af4201a8 	sw	v0,424(k0)
     c20:	af4301ac 	sw	v1,428(k0)
     c24:	0c002ba8 	jal	0xaea0
     c28:	24050080 	li	a1,128
     c2c:	8c02025c 	lw	v0,604(zero)
     c30:	27440224 	addiu	a0,k0,548
     c34:	af4201f0 	sw	v0,496(k0)
     c38:	8c020260 	lw	v0,608(zero)
     c3c:	24050200 	li	a1,512
     c40:	24060008 	li	a2,8
     c44:	0c002bbf 	jal	0xaefc
     c48:	af4201f8 	sw	v0,504(k0)
     c4c:	3c043b9a 	lui	a0,0x3b9a
     c50:	3484ca00 	ori	a0,a0,0xca00
     c54:	00003821 	move	a3,zero
     c58:	24020006 	li	v0,6
     c5c:	24030002 	li	v1,2
     c60:	af4201f4 	sw	v0,500(k0)
     c64:	240203e8 	li	v0,1000
     c68:	af430204 	sw	v1,516(k0)
     c6c:	af430200 	sw	v1,512(k0)
     c70:	af4401fc 	sw	a0,508(k0)
     c74:	af420294 	sw	v0,660(k0)
     c78:	24020001 	li	v0,1
     c7c:	af430290 	sw	v1,656(k0)
     c80:	af42029c 	sw	v0,668(k0)
     c84:	3c030001 	lui	v1,0x1
     c88:	00671821 	addu	v1,v1,a3
     c8c:	90636cd8 	lbu	v1,27864(v1)
     c90:	03471021 	addu	v0,k0,a3
     c94:	24e70001 	addiu	a3,a3,1
     c98:	a043022c 	sb	v1,556(v0)
     c9c:	2ce2000f 	sltiu	v0,a3,15
     ca0:	1440fff8 	bnez	v0,0xc84
     ca4:	03471821 	addu	v1,k0,a3
     ca8:	24e70001 	addiu	a3,a3,1
     cac:	3c080001 	lui	t0,0x1
     cb0:	350840f8 	ori	t0,t0,0x40f8
     cb4:	8f820040 	lw	v0,64(gp)
     cb8:	3c040001 	lui	a0,0x1
     cbc:	24845d2c 	addiu	a0,a0,23852
     cc0:	24051400 	li	a1,5120
     cc4:	00021702 	srl	v0,v0,0x1c
     cc8:	24420030 	addiu	v0,v0,48
     ccc:	a062022c 	sb	v0,556(v1)
     cd0:	03471021 	addu	v0,k0,a3
     cd4:	a040022c 	sb	zero,556(v0)
     cd8:	8c070218 	lw	a3,536(zero)
     cdc:	02c03021 	move	a2,s6
     ce0:	240205c8 	li	v0,1480
     ce4:	afa20010 	sw	v0,16(sp)
     ce8:	0c002b3b 	jal	0xacec
     cec:	afa80014 	sw	t0,20(sp)
     cf0:	3c040001 	lui	a0,0x1
     cf4:	24845d38 	addiu	a0,a0,23864
     cf8:	3c050000 	lui	a1,0x0
     cfc:	24a55c80 	addiu	a1,a1,23680
     d00:	24060010 	li	a2,16
     d04:	27b10030 	addiu	s1,sp,48
     d08:	02203821 	move	a3,s1
     d0c:	27b30034 	addiu	s3,sp,52
     d10:	0c0017a3 	jal	0x5e8c
     d14:	afb30010 	sw	s3,16(sp)
     d18:	3c030001 	lui	v1,0x1
     d1c:	8c636cc8 	lw	v1,27848(v1)
     d20:	1060000a 	beqz	v1,0xd4c
     d24:	00408021 	move	s0,v0
     d28:	8fa30030 	lw	v1,48(sp)
     d2c:	2405ff00 	li	a1,-256
     d30:	8fa20034 	lw	v0,52(sp)
     d34:	246400ff 	addiu	a0,v1,255
     d38:	00852024 	and	a0,a0,a1
     d3c:	00831823 	subu	v1,a0,v1
     d40:	00431023 	subu	v0,v0,v1
     d44:	afa20034 	sw	v0,52(sp)
     d48:	afa40030 	sw	a0,48(sp)
     d4c:	3c040001 	lui	a0,0x1
     d50:	24845d44 	addiu	a0,a0,23876
     d54:	3c050000 	lui	a1,0x0
     d58:	24a54100 	addiu	a1,a1,16640
     d5c:	24060108 	li	a2,264
     d60:	02203821 	move	a3,s1
     d64:	0c0017a3 	jal	0x5e8c
     d68:	afb30010 	sw	s3,16(sp)
     d6c:	00409021 	move	s2,v0
     d70:	32c20003 	andi	v0,s6,0x3
     d74:	3c010001 	lui	at,0x1
     d78:	ac326e80 	sw	s2,28288(at)
     d7c:	10400045 	beqz	v0,0xe94
     d80:	02203821 	move	a3,s1
     d84:	8f820050 	lw	v0,80(gp)
     d88:	3c030010 	lui	v1,0x10
     d8c:	00431024 	and	v0,v0,v1
     d90:	10400016 	beqz	v0,0xdec
     d94:	00000000 	nop
     d98:	8c020218 	lw	v0,536(zero)
     d9c:	30420040 	andi	v0,v0,0x40
     da0:	1040000f 	beqz	v0,0xde0
     da4:	24020001 	li	v0,1
     da8:	8f820050 	lw	v0,80(gp)
     dac:	8c030218 	lw	v1,536(zero)
     db0:	240e0001 	li	t6,1
     db4:	3c040001 	lui	a0,0x1
     db8:	24845d50 	addiu	a0,a0,23888
     dbc:	a3ae003f 	sb	t6,63(sp)
     dc0:	afa20010 	sw	v0,16(sp)
     dc4:	afa30014 	sw	v1,20(sp)
     dc8:	8f870040 	lw	a3,64(gp)
     dcc:	24051500 	li	a1,5376
     dd0:	0c002b3b 	jal	0xacec
     dd4:	02c03021 	move	a2,s6
     dd8:	10000004 	b	0xdec
     ddc:	00000000 	nop
     de0:	3c010001 	lui	at,0x1
     de4:	00370821 	addu	at,at,s7
     de8:	a02240f4 	sb	v0,16628(at)
     dec:	3c040001 	lui	a0,0x1
     df0:	24845d5c 	addiu	a0,a0,23900
     df4:	3c050001 	lui	a1,0x1
     df8:	24a55b40 	addiu	a1,a1,23360
     dfc:	3c060001 	lui	a2,0x1
     e00:	24c65bac 	addiu	a2,a2,23468
     e04:	00c53023 	subu	a2,a2,a1
     e08:	8f420010 	lw	v0,16(k0)
     e0c:	27b30030 	addiu	s3,sp,48
     e10:	02603821 	move	a3,s3
     e14:	27b10034 	addiu	s1,sp,52
     e18:	34420a00 	ori	v0,v0,0xa00
     e1c:	af420010 	sw	v0,16(k0)
     e20:	0c0017a3 	jal	0x5e8c
     e24:	afb10010 	sw	s1,16(sp)
     e28:	3c040001 	lui	a0,0x1
     e2c:	24845d70 	addiu	a0,a0,23920
     e30:	3c050001 	lui	a1,0x1
     e34:	24a5b714 	addiu	a1,a1,-18668
     e38:	3c060001 	lui	a2,0x1
     e3c:	24c6ba90 	addiu	a2,a2,-17776
     e40:	00c53023 	subu	a2,a2,a1
     e44:	02603821 	move	a3,s3
     e48:	af420108 	sw	v0,264(k0)
     e4c:	0c0017a3 	jal	0x5e8c
     e50:	afb10010 	sw	s1,16(sp)
     e54:	3c040001 	lui	a0,0x1
     e58:	24845d8c 	addiu	a0,a0,23948
     e5c:	3c050001 	lui	a1,0x1
     e60:	24a5be58 	addiu	a1,a1,-16808
     e64:	3c060001 	lui	a2,0x1
     e68:	24c6c900 	addiu	a2,a2,-14080
     e6c:	00c53023 	subu	a2,a2,a1
     e70:	02603821 	move	a3,s3
     e74:	3c010001 	lui	at,0x1
     e78:	ac226ef4 	sw	v0,28404(at)
     e7c:	0c0017a3 	jal	0x5e8c
     e80:	afb10010 	sw	s1,16(sp)
     e84:	3c040001 	lui	a0,0x1
     e88:	24845da4 	addiu	a0,a0,23972
     e8c:	10000024 	b	0xf20
     e90:	24051600 	li	a1,5632
     e94:	3c040001 	lui	a0,0x1
     e98:	24845dac 	addiu	a0,a0,23980
     e9c:	3c050001 	lui	a1,0x1
     ea0:	24a5a10c 	addiu	a1,a1,-24308
     ea4:	3c060001 	lui	a2,0x1
     ea8:	24c6a238 	addiu	a2,a2,-24008
     eac:	00c53023 	subu	a2,a2,a1
     eb0:	0c0017a3 	jal	0x5e8c
     eb4:	afb30010 	sw	s3,16(sp)
     eb8:	3c040001 	lui	a0,0x1
     ebc:	24845dbc 	addiu	a0,a0,23996
     ec0:	3c050001 	lui	a1,0x1
     ec4:	24a5b2b0 	addiu	a1,a1,-19792
     ec8:	3c060001 	lui	a2,0x1
     ecc:	24c6b70c 	addiu	a2,a2,-18676
     ed0:	00c53023 	subu	a2,a2,a1
     ed4:	02203821 	move	a3,s1
     ed8:	af420108 	sw	v0,264(k0)
     edc:	0c0017a3 	jal	0x5e8c
     ee0:	afb30010 	sw	s3,16(sp)
     ee4:	3c040001 	lui	a0,0x1
     ee8:	24845dd0 	addiu	a0,a0,24016
     eec:	3c050001 	lui	a1,0x1
     ef0:	24a5ba98 	addiu	a1,a1,-17768
     ef4:	3c060001 	lui	a2,0x1
     ef8:	24c6be50 	addiu	a2,a2,-16816
     efc:	00c53023 	subu	a2,a2,a1
     f00:	02203821 	move	a3,s1
     f04:	3c010001 	lui	at,0x1
     f08:	ac226ef4 	sw	v0,28404(at)
     f0c:	0c0017a3 	jal	0x5e8c
     f10:	afb30010 	sw	s3,16(sp)
     f14:	3c040001 	lui	a0,0x1
     f18:	24845de4 	addiu	a0,a0,24036
     f1c:	24051650 	li	a1,5712
     f20:	02c03021 	move	a2,s6
     f24:	00003821 	move	a3,zero
     f28:	3c010001 	lui	at,0x1
     f2c:	ac226ef8 	sw	v0,28408(at)
     f30:	afa00010 	sw	zero,16(sp)
     f34:	0c002b3b 	jal	0xacec
     f38:	afa00014 	sw	zero,20(sp)
     f3c:	32c20020 	andi	v0,s6,0x20
     f40:	10400021 	beqz	v0,0xfc8
     f44:	27a70030 	addiu	a3,sp,48
     f48:	3c040001 	lui	a0,0x1
     f4c:	24845df0 	addiu	a0,a0,24048
     f50:	3c050001 	lui	a1,0x1
     f54:	24a5b13c 	addiu	a1,a1,-20164
     f58:	3c060001 	lui	a2,0x1
     f5c:	24c6b2a8 	addiu	a2,a2,-19800
     f60:	00c53023 	subu	a2,a2,a1
     f64:	24022000 	li	v0,8192
     f68:	af42001c 	sw	v0,28(k0)
     f6c:	27a20034 	addiu	v0,sp,52
     f70:	0c0017a3 	jal	0x5e8c
     f74:	afa20010 	sw	v0,16(sp)
     f78:	00021900 	sll	v1,v0,0x4
     f7c:	00031982 	srl	v1,v1,0x6
     f80:	3c040800 	lui	a0,0x800
     f84:	00641825 	or	v1,v1,a0
     f88:	ae430028 	sw	v1,40(s2)
     f8c:	24030010 	li	v1,16
     f90:	af43003c 	sw	v1,60(k0)
     f94:	96e30450 	lhu	v1,1104(s7)
     f98:	af430040 	sw	v1,64(k0)
     f9c:	8f430040 	lw	v1,64(k0)
     fa0:	3c040001 	lui	a0,0x1
     fa4:	24845e04 	addiu	a0,a0,24068
     fa8:	afa00014 	sw	zero,20(sp)
     fac:	afa30010 	sw	v1,16(sp)
     fb0:	8f47001c 	lw	a3,28(k0)
     fb4:	24051660 	li	a1,5728
     fb8:	3c010001 	lui	at,0x1
     fbc:	ac226ef0 	sw	v0,28400(at)
     fc0:	10000025 	b	0x1058
     fc4:	32c60020 	andi	a2,s6,0x20
     fc8:	8ee20448 	lw	v0,1096(s7)
     fcc:	8ee3044c 	lw	v1,1100(s7)
     fd0:	af43001c 	sw	v1,28(k0)
     fd4:	8f42001c 	lw	v0,28(k0)
     fd8:	2442e000 	addiu	v0,v0,-8192
     fdc:	2c422001 	sltiu	v0,v0,8193
     fe0:	1440000a 	bnez	v0,0x100c
     fe4:	240e0001 	li	t6,1
     fe8:	3c040001 	lui	a0,0x1
     fec:	24845e10 	addiu	a0,a0,24080
     ff0:	a3ae003f 	sb	t6,63(sp)
     ff4:	afa00010 	sw	zero,16(sp)
     ff8:	afa00014 	sw	zero,20(sp)
     ffc:	8f46001c 	lw	a2,28(k0)
    1000:	24051700 	li	a1,5888
    1004:	0c002b3b 	jal	0xacec
    1008:	00003821 	move	a3,zero
    100c:	3c020000 	lui	v0,0x0
    1010:	24425cbc 	addiu	v0,v0,23740
    1014:	00021100 	sll	v0,v0,0x4
    1018:	00021182 	srl	v0,v0,0x6
    101c:	3c030800 	lui	v1,0x800
    1020:	00431025 	or	v0,v0,v1
    1024:	ae420028 	sw	v0,40(s2)
    1028:	24020008 	li	v0,8
    102c:	af42003c 	sw	v0,60(k0)
    1030:	96e20450 	lhu	v0,1104(s7)
    1034:	af420040 	sw	v0,64(k0)
    1038:	8f420040 	lw	v0,64(k0)
    103c:	3c040001 	lui	a0,0x1
    1040:	24845e1c 	addiu	a0,a0,24092
    1044:	afa00014 	sw	zero,20(sp)
    1048:	afa20010 	sw	v0,16(sp)
    104c:	8f47001c 	lw	a3,28(k0)
    1050:	24051800 	li	a1,6144
    1054:	32c60020 	andi	a2,s6,0x20
    1058:	0c002b3b 	jal	0xacec
    105c:	00000000 	nop
    1060:	3c050fff 	lui	a1,0xfff
    1064:	3c030001 	lui	v1,0x1
    1068:	8c636ef4 	lw	v1,28404(v1)
    106c:	34a5ffff 	ori	a1,a1,0xffff
    1070:	02403021 	move	a2,s2
    1074:	3c020001 	lui	v0,0x1
    1078:	8c426ef8 	lw	v0,28408(v0)
    107c:	3c040800 	lui	a0,0x800
    1080:	00651824 	and	v1,v1,a1
    1084:	00031882 	srl	v1,v1,0x2
    1088:	00641825 	or	v1,v1,a0
    108c:	00451024 	and	v0,v0,a1
    1090:	00021082 	srl	v0,v0,0x2
    1094:	00441025 	or	v0,v0,a0
    1098:	acc20080 	sw	v0,128(a2)
    109c:	32c20180 	andi	v0,s6,0x180
    10a0:	10400056 	beqz	v0,0x11fc
    10a4:	acc30020 	sw	v1,32(a2)
    10a8:	8f82005c 	lw	v0,92(gp)
    10ac:	3c030080 	lui	v1,0x80
    10b0:	00431024 	and	v0,v0,v1
    10b4:	1040000d 	beqz	v0,0x10ec
    10b8:	00000000 	nop
    10bc:	8f820050 	lw	v0,80(gp)
    10c0:	afa20010 	sw	v0,16(sp)
    10c4:	8f82005c 	lw	v0,92(gp)
    10c8:	240e0001 	li	t6,1
    10cc:	3c040001 	lui	a0,0x1
    10d0:	24845e28 	addiu	a0,a0,24104
    10d4:	a3ae003f 	sb	t6,63(sp)
    10d8:	afa20014 	sw	v0,20(sp)
    10dc:	8f870040 	lw	a3,64(gp)
    10e0:	24051900 	li	a1,6400
    10e4:	0c002b3b 	jal	0xacec
    10e8:	02c03021 	move	a2,s6
    10ec:	8f820050 	lw	v0,80(gp)
    10f0:	3c030010 	lui	v1,0x10
    10f4:	00431024 	and	v0,v0,v1
    10f8:	10400016 	beqz	v0,0x1154
    10fc:	00000000 	nop
    1100:	8c020218 	lw	v0,536(zero)
    1104:	30420040 	andi	v0,v0,0x40
    1108:	1040000f 	beqz	v0,0x1148
    110c:	24020001 	li	v0,1
    1110:	8f820050 	lw	v0,80(gp)
    1114:	8c030218 	lw	v1,536(zero)
    1118:	240e0001 	li	t6,1
    111c:	3c040001 	lui	a0,0x1
    1120:	24845d50 	addiu	a0,a0,23888
    1124:	a3ae003f 	sb	t6,63(sp)
    1128:	afa20010 	sw	v0,16(sp)
    112c:	afa30014 	sw	v1,20(sp)
    1130:	8f870040 	lw	a3,64(gp)
    1134:	24052000 	li	a1,8192
    1138:	0c002b3b 	jal	0xacec
    113c:	02c03021 	move	a2,s6
    1140:	10000004 	b	0x1154
    1144:	00000000 	nop
    1148:	3c010001 	lui	at,0x1
    114c:	00370821 	addu	at,at,s7
    1150:	a02240f4 	sb	v0,16628(at)
    1154:	3c040001 	lui	a0,0x1
    1158:	24845e34 	addiu	a0,a0,24116
    115c:	3c050001 	lui	a1,0x1
    1160:	24a55ac0 	addiu	a1,a1,23232
    1164:	3c060001 	lui	a2,0x1
    1168:	24c65b38 	addiu	a2,a2,23352
    116c:	00c53023 	subu	a2,a2,a1
    1170:	8f420008 	lw	v0,8(k0)
    1174:	27b30030 	addiu	s3,sp,48
    1178:	02603821 	move	a3,s3
    117c:	27b10034 	addiu	s1,sp,52
    1180:	34420e00 	ori	v0,v0,0xe00
    1184:	af420008 	sw	v0,8(k0)
    1188:	0c0017a3 	jal	0x5e8c
    118c:	afb10010 	sw	s1,16(sp)
    1190:	3c040001 	lui	a0,0x1
    1194:	24845e4c 	addiu	a0,a0,24140
    1198:	3c050001 	lui	a1,0x1
    119c:	24a5d8b4 	addiu	a1,a1,-10060
    11a0:	3c060001 	lui	a2,0x1
    11a4:	24c6e3c8 	addiu	a2,a2,-7224
    11a8:	00c53023 	subu	a2,a2,a1
    11ac:	02603821 	move	a3,s3
    11b0:	af42010c 	sw	v0,268(k0)
    11b4:	0c0017a3 	jal	0x5e8c
    11b8:	afb10010 	sw	s1,16(sp)
    11bc:	3c040001 	lui	a0,0x1
    11c0:	24845e64 	addiu	a0,a0,24164
    11c4:	3c050001 	lui	a1,0x1
    11c8:	24a5e9ac 	addiu	a1,a1,-5716
    11cc:	3c060001 	lui	a2,0x1
    11d0:	24c6f0f0 	addiu	a2,a2,-3856
    11d4:	00c53023 	subu	a2,a2,a1
    11d8:	02603821 	move	a3,s3
    11dc:	3c010001 	lui	at,0x1
    11e0:	ac226f04 	sw	v0,28420(at)
    11e4:	0c0017a3 	jal	0x5e8c
    11e8:	afb10010 	sw	s1,16(sp)
    11ec:	3c040001 	lui	a0,0x1
    11f0:	24845e7c 	addiu	a0,a0,24188
    11f4:	10000027 	b	0x1294
    11f8:	24052100 	li	a1,8448
    11fc:	3c040001 	lui	a0,0x1
    1200:	24845e84 	addiu	a0,a0,24196
    1204:	3c050001 	lui	a1,0x1
    1208:	24a59fc8 	addiu	a1,a1,-24632
    120c:	3c060001 	lui	a2,0x1
    1210:	24c6a104 	addiu	a2,a2,-24316
    1214:	00c53023 	subu	a2,a2,a1
    1218:	27b10030 	addiu	s1,sp,48
    121c:	02203821 	move	a3,s1
    1220:	27b30034 	addiu	s3,sp,52
    1224:	0c0017a3 	jal	0x5e8c
    1228:	afb30010 	sw	s3,16(sp)
    122c:	3c040001 	lui	a0,0x1
    1230:	24845e94 	addiu	a0,a0,24212
    1234:	3c050001 	lui	a1,0x1
    1238:	24a5cad4 	addiu	a1,a1,-13612
    123c:	3c060001 	lui	a2,0x1
    1240:	24c6d8ac 	addiu	a2,a2,-10068
    1244:	00c53023 	subu	a2,a2,a1
    1248:	02203821 	move	a3,s1
    124c:	af42010c 	sw	v0,268(k0)
    1250:	0c0017a3 	jal	0x5e8c
    1254:	afb30010 	sw	s3,16(sp)
    1258:	3c040001 	lui	a0,0x1
    125c:	24845ea4 	addiu	a0,a0,24228
    1260:	3c050001 	lui	a1,0x1
    1264:	24a5e84c 	addiu	a1,a1,-6068
    1268:	3c060001 	lui	a2,0x1
    126c:	24c6e9a4 	addiu	a2,a2,-5724
    1270:	00c53023 	subu	a2,a2,a1
    1274:	02203821 	move	a3,s1
    1278:	3c010001 	lui	at,0x1
    127c:	ac226f04 	sw	v0,28420(at)
    1280:	0c0017a3 	jal	0x5e8c
    1284:	afb30010 	sw	s3,16(sp)
    1288:	3c040001 	lui	a0,0x1
    128c:	24845eb8 	addiu	a0,a0,24248
    1290:	24052150 	li	a1,8528
    1294:	02c03021 	move	a2,s6
    1298:	00003821 	move	a3,zero
    129c:	3c010001 	lui	at,0x1
    12a0:	ac226f10 	sw	v0,28432(at)
    12a4:	afa00010 	sw	zero,16(sp)
    12a8:	0c002b3b 	jal	0xacec
    12ac:	afa00014 	sw	zero,20(sp)
    12b0:	3c110fff 	lui	s1,0xfff
    12b4:	3c030001 	lui	v1,0x1
    12b8:	8c636f04 	lw	v1,28420(v1)
    12bc:	3631ffff 	ori	s1,s1,0xffff
    12c0:	02409821 	move	s3,s2
    12c4:	3c020001 	lui	v0,0x1
    12c8:	8c426f10 	lw	v0,28432(v0)
    12cc:	3c0e0800 	lui	t6,0x800
    12d0:	00711824 	and	v1,v1,s1
    12d4:	00031882 	srl	v1,v1,0x2
    12d8:	006e1825 	or	v1,v1,t6
    12dc:	00511024 	and	v0,v0,s1
    12e0:	00021082 	srl	v0,v0,0x2
    12e4:	004e1025 	or	v0,v0,t6
    12e8:	ae630038 	sw	v1,56(s3)
    12ec:	ae620078 	sw	v0,120(s3)
    12f0:	8c020218 	lw	v0,536(zero)
    12f4:	30420040 	andi	v0,v0,0x40
    12f8:	14400004 	bnez	v0,0x130c
    12fc:	24020001 	li	v0,1
    1300:	3c010001 	lui	at,0x1
    1304:	00370821 	addu	at,at,s7
    1308:	a02240f4 	sb	v0,16628(at)
    130c:	3c040001 	lui	a0,0x1
    1310:	24845ec4 	addiu	a0,a0,24260
    1314:	3c050001 	lui	a1,0x1
    1318:	24a5e3d0 	addiu	a1,a1,-7216
    131c:	3c060001 	lui	a2,0x1
    1320:	24c6e52c 	addiu	a2,a2,-6868
    1324:	00c53023 	subu	a2,a2,a1
    1328:	27be0030 	addiu	s8,sp,48
    132c:	03c03821 	move	a3,s8
    1330:	27b50034 	addiu	s5,sp,52
    1334:	0c0017a3 	jal	0x5e8c
    1338:	afb50010 	sw	s5,16(sp)
    133c:	3c010001 	lui	at,0x1
    1340:	ac226efc 	sw	v0,28412(at)
    1344:	00511024 	and	v0,v0,s1
    1348:	00021082 	srl	v0,v0,0x2
    134c:	3c0e0800 	lui	t6,0x800
    1350:	004e1025 	or	v0,v0,t6
    1354:	ae620050 	sw	v0,80(s3)
    1358:	32c22000 	andi	v0,s6,0x2000
    135c:	10400006 	beqz	v0,0x1378
    1360:	03c03821 	move	a3,s8
    1364:	3c020000 	lui	v0,0x0
    1368:	24425cbc 	addiu	v0,v0,23740
    136c:	02221024 	and	v0,s1,v0
    1370:	1000000f 	b	0x13b0
    1374:	00021082 	srl	v0,v0,0x2
    1378:	3c040001 	lui	a0,0x1
    137c:	24845ed8 	addiu	a0,a0,24280
    1380:	3c050001 	lui	a1,0x1
    1384:	24a5e534 	addiu	a1,a1,-6860
    1388:	3c060001 	lui	a2,0x1
    138c:	24c6e6e4 	addiu	a2,a2,-6428
    1390:	00c53023 	subu	a2,a2,a1
    1394:	0c0017a3 	jal	0x5e8c
    1398:	afb50010 	sw	s5,16(sp)
    139c:	3c010001 	lui	at,0x1
    13a0:	ac226f14 	sw	v0,28436(at)
    13a4:	00511024 	and	v0,v0,s1
    13a8:	00021082 	srl	v0,v0,0x2
    13ac:	3c0e0800 	lui	t6,0x800
    13b0:	004e1025 	or	v0,v0,t6
    13b4:	ae620048 	sw	v0,72(s3)
    13b8:	32c24000 	andi	v0,s6,0x4000
    13bc:	10400005 	beqz	v0,0x13d4
    13c0:	27a70030 	addiu	a3,sp,48
    13c4:	3c020000 	lui	v0,0x0
    13c8:	24425cbc 	addiu	v0,v0,23740
    13cc:	1000000e 	b	0x1408
    13d0:	00021100 	sll	v0,v0,0x4
    13d4:	3c040001 	lui	a0,0x1
    13d8:	24845ef0 	addiu	a0,a0,24304
    13dc:	3c050001 	lui	a1,0x1
    13e0:	24a5e6ec 	addiu	a1,a1,-6420
    13e4:	3c060001 	lui	a2,0x1
    13e8:	24c6e844 	addiu	a2,a2,-6076
    13ec:	00c53023 	subu	a2,a2,a1
    13f0:	27a20034 	addiu	v0,sp,52
    13f4:	0c0017a3 	jal	0x5e8c
    13f8:	afa20010 	sw	v0,16(sp)
    13fc:	3c010001 	lui	at,0x1
    1400:	ac226f08 	sw	v0,28424(at)
    1404:	00021100 	sll	v0,v0,0x4
    1408:	00021182 	srl	v0,v0,0x6
    140c:	3c030800 	lui	v1,0x800
    1410:	00431025 	or	v0,v0,v1
    1414:	ae420060 	sw	v0,96(s2)
    1418:	3c040001 	lui	a0,0x1
    141c:	24845f08 	addiu	a0,a0,24328
    1420:	3c050001 	lui	a1,0x1
    1424:	24a58230 	addiu	a1,a1,-32208
    1428:	3c060001 	lui	a2,0x1
    142c:	24c68650 	addiu	a2,a2,-31152
    1430:	00c53023 	subu	a2,a2,a1
    1434:	27b10030 	addiu	s1,sp,48
    1438:	02203821 	move	a3,s1
    143c:	27b30034 	addiu	s3,sp,52
    1440:	0c0017a3 	jal	0x5e8c
    1444:	afb30010 	sw	s3,16(sp)
    1448:	3c0e0fff 	lui	t6,0xfff
    144c:	35ceffff 	ori	t6,t6,0xffff
    1450:	3c040001 	lui	a0,0x1
    1454:	24845f14 	addiu	a0,a0,24340
    1458:	3c050000 	lui	a1,0x0
    145c:	24a56468 	addiu	a1,a1,25704
    1460:	3c060000 	lui	a2,0x0
    1464:	24c66588 	addiu	a2,a2,25992
    1468:	00c53023 	subu	a2,a2,a1
    146c:	02203821 	move	a3,s1
    1470:	0240f021 	move	s8,s2
    1474:	3c010001 	lui	at,0x1
    1478:	ac226edc 	sw	v0,28380(at)
    147c:	004e1024 	and	v0,v0,t6
    1480:	00021082 	srl	v0,v0,0x2
    1484:	3c150800 	lui	s5,0x800
    1488:	00551025 	or	v0,v0,s5
    148c:	afae0044 	sw	t6,68(sp)
    1490:	afc200b8 	sw	v0,184(s8)
    1494:	0c0017a3 	jal	0x5e8c
    1498:	afb30010 	sw	s3,16(sp)
    149c:	3c040001 	lui	a0,0x1
    14a0:	24845f20 	addiu	a0,a0,24352
    14a4:	3c050000 	lui	a1,0x0
    14a8:	24a56590 	addiu	a1,a1,26000
    14ac:	3c060000 	lui	a2,0x0
    14b0:	24c66808 	addiu	a2,a2,26632
    14b4:	8fae0044 	lw	t6,68(sp)
    14b8:	00c53023 	subu	a2,a2,a1
    14bc:	02203821 	move	a3,s1
    14c0:	3c010001 	lui	at,0x1
    14c4:	ac226ed0 	sw	v0,28368(at)
    14c8:	004e1024 	and	v0,v0,t6
    14cc:	00021082 	srl	v0,v0,0x2
    14d0:	00551025 	or	v0,v0,s5
    14d4:	afc200e8 	sw	v0,232(s8)
    14d8:	0c0017a3 	jal	0x5e8c
    14dc:	afb30010 	sw	s3,16(sp)
    14e0:	3c040001 	lui	a0,0x1
    14e4:	24845f38 	addiu	a0,a0,24376
    14e8:	3c050000 	lui	a1,0x0
    14ec:	24a56810 	addiu	a1,a1,26640
    14f0:	3c060000 	lui	a2,0x0
    14f4:	24c66940 	addiu	a2,a2,26944
    14f8:	8fae0044 	lw	t6,68(sp)
    14fc:	00c53023 	subu	a2,a2,a1
    1500:	02203821 	move	a3,s1
    1504:	3c010001 	lui	at,0x1
    1508:	ac226ec8 	sw	v0,28360(at)
    150c:	004e1024 	and	v0,v0,t6
    1510:	00021082 	srl	v0,v0,0x2
    1514:	00551025 	or	v0,v0,s5
    1518:	afc200c0 	sw	v0,192(s8)
    151c:	0c0017a3 	jal	0x5e8c
    1520:	afb30010 	sw	s3,16(sp)
    1524:	3c040001 	lui	a0,0x1
    1528:	24845f50 	addiu	a0,a0,24400
    152c:	3c050001 	lui	a1,0x1
    1530:	24a5fad0 	addiu	a1,a1,-1328
    1534:	3c060001 	lui	a2,0x1
    1538:	24c6fba8 	addiu	a2,a2,-1112
    153c:	8fae0044 	lw	t6,68(sp)
    1540:	00c53023 	subu	a2,a2,a1
    1544:	02203821 	move	a3,s1
    1548:	3c010001 	lui	at,0x1
    154c:	ac226ed4 	sw	v0,28372(at)
    1550:	004e1024 	and	v0,v0,t6
    1554:	00021082 	srl	v0,v0,0x2
    1558:	00551025 	or	v0,v0,s5
    155c:	afc200c8 	sw	v0,200(s8)
    1560:	0c0017a3 	jal	0x5e8c
    1564:	afb30010 	sw	s3,16(sp)
    1568:	3c040001 	lui	a0,0x1
    156c:	24845f5c 	addiu	a0,a0,24412
    1570:	3c050001 	lui	a1,0x1
    1574:	24a5c93c 	addiu	a1,a1,-14020
    1578:	3c060001 	lui	a2,0x1
    157c:	24c6ca20 	addiu	a2,a2,-13792
    1580:	00c53023 	subu	a2,a2,a1
    1584:	02203821 	move	a3,s1
    1588:	af420110 	sw	v0,272(k0)
    158c:	0c0017a3 	jal	0x5e8c
    1590:	afb30010 	sw	s3,16(sp)
    1594:	3c040001 	lui	a0,0x1
    1598:	24845f6c 	addiu	a0,a0,24428
    159c:	3c050001 	lui	a1,0x1
    15a0:	24a5c910 	addiu	a1,a1,-14064
    15a4:	3c060001 	lui	a2,0x1
    15a8:	24c6c934 	addiu	a2,a2,-14028
    15ac:	00c53023 	subu	a2,a2,a1
    15b0:	02203821 	move	a3,s1
    15b4:	af420124 	sw	v0,292(k0)
    15b8:	0c0017a3 	jal	0x5e8c
    15bc:	afb30010 	sw	s3,16(sp)
    15c0:	3c040001 	lui	a0,0x1
    15c4:	24845f7c 	addiu	a0,a0,24444
    15c8:	3c050001 	lui	a1,0x1
    15cc:	24a55a80 	addiu	a1,a1,23168
    15d0:	3c060001 	lui	a2,0x1
    15d4:	24c65aac 	addiu	a2,a2,23212
    15d8:	00c53023 	subu	a2,a2,a1
    15dc:	02203821 	move	a3,s1
    15e0:	af420120 	sw	v0,288(k0)
    15e4:	af420114 	sw	v0,276(k0)
    15e8:	0c0017a3 	jal	0x5e8c
    15ec:	afb30010 	sw	s3,16(sp)
    15f0:	3c040001 	lui	a0,0x1
    15f4:	24845f88 	addiu	a0,a0,24456
    15f8:	3c050001 	lui	a1,0x1
    15fc:	24a5f298 	addiu	a1,a1,-3432
    1600:	3c060001 	lui	a2,0x1
    1604:	24c6f6b4 	addiu	a2,a2,-2380
    1608:	00c53023 	subu	a2,a2,a1
    160c:	02203821 	move	a3,s1
    1610:	af420118 	sw	v0,280(k0)
    1614:	0c0017a3 	jal	0x5e8c
    1618:	afb30010 	sw	s3,16(sp)
    161c:	8fae0044 	lw	t6,68(sp)
    1620:	3c010001 	lui	at,0x1
    1624:	ac226f18 	sw	v0,28440(at)
    1628:	004e1024 	and	v0,v0,t6
    162c:	00021082 	srl	v0,v0,0x2
    1630:	00551025 	or	v0,v0,s5
    1634:	0c003fc3 	jal	0xff0c
    1638:	afc200d0 	sw	v0,208(s8)
    163c:	0c003c40 	jal	0xf100
    1640:	00000000 	nop
    1644:	0c0027a8 	jal	0x9ea0
    1648:	00000000 	nop
    164c:	ac000228 	sw	zero,552(zero)
    1650:	ac00022c 	sw	zero,556(zero)
    1654:	96e20450 	lhu	v0,1104(s7)
    1658:	2442ffff 	addiu	v0,v0,-1
    165c:	af420038 	sw	v0,56(k0)
    1660:	96e20460 	lhu	v0,1120(s7)
    1664:	af420080 	sw	v0,128(k0)
    1668:	32c24000 	andi	v0,s6,0x4000
    166c:	14400003 	bnez	v0,0x167c
    1670:	00000000 	nop
    1674:	96e20480 	lhu	v0,1152(s7)
    1678:	af420084 	sw	v0,132(k0)
    167c:	96e70490 	lhu	a3,1168(s7)
    1680:	50e00001 	beqzl	a3,0x1688
    1684:	24070800 	li	a3,2048
    1688:	24e2ffff 	addiu	v0,a3,-1
    168c:	af420088 	sw	v0,136(k0)
    1690:	af42007c 	sw	v0,124(k0)
    1694:	24020800 	li	v0,2048
    1698:	10e2000f 	beq	a3,v0,0x16d8
    169c:	32c24000 	andi	v0,s6,0x4000
    16a0:	10400003 	beqz	v0,0x16b0
    16a4:	24020400 	li	v0,1024
    16a8:	10e2000b 	beq	a3,v0,0x16d8
    16ac:	00000000 	nop
    16b0:	240e0001 	li	t6,1
    16b4:	3c040001 	lui	a0,0x1
    16b8:	24845f98 	addiu	a0,a0,24472
    16bc:	a3ae003f 	sb	t6,63(sp)
    16c0:	96e60490 	lhu	a2,1168(s7)
    16c4:	24052170 	li	a1,8560
    16c8:	02c03821 	move	a3,s6
    16cc:	afa00010 	sw	zero,16(sp)
    16d0:	0c002b3b 	jal	0xacec
    16d4:	afa00014 	sw	zero,20(sp)
    16d8:	8f430138 	lw	v1,312(k0)
    16dc:	8f440138 	lw	a0,312(k0)
    16e0:	24020001 	li	v0,1
    16e4:	a34205c2 	sb	v0,1474(k0)
    16e8:	af430094 	sw	v1,148(k0)
    16ec:	af440098 	sw	a0,152(k0)
    16f0:	afa00010 	sw	zero,16(sp)
    16f4:	afa00014 	sw	zero,20(sp)
    16f8:	8f460080 	lw	a2,128(k0)
    16fc:	8f470084 	lw	a3,132(k0)
    1700:	3c040001 	lui	a0,0x1
    1704:	24845fa4 	addiu	a0,a0,24484
    1708:	0c002b3b 	jal	0xacec
    170c:	24052200 	li	a1,8704
    1710:	0c0024a4 	jal	0x9290
    1714:	3c110800 	lui	s1,0x800
    1718:	3c1433d8 	lui	s4,0x33d8
    171c:	3694cb58 	ori	s4,s4,0xcb58
    1720:	3c020800 	lui	v0,0x800
    1724:	34420080 	ori	v0,v0,0x80
    1728:	3c040001 	lui	a0,0x1
    172c:	24845fb0 	addiu	a0,a0,24496
    1730:	3c050000 	lui	a1,0x0
    1734:	24a55d00 	addiu	a1,a1,23808
    1738:	3c060000 	lui	a2,0x0
    173c:	24c65d1c 	addiu	a2,a2,23836
    1740:	00c53023 	subu	a2,a2,a1
    1744:	27a70030 	addiu	a3,sp,48
    1748:	af820060 	sw	v0,96(gp)
    174c:	2402ffff 	li	v0,-1
    1750:	af820064 	sw	v0,100(gp)
    1754:	27a20034 	addiu	v0,sp,52
    1758:	0c0017a3 	jal	0x5e8c
    175c:	afa20010 	sw	v0,16(sp)
    1760:	3c010001 	lui	at,0x1
    1764:	ac226eb8 	sw	v0,28344(at)
    1768:	00021100 	sll	v0,v0,0x4
    176c:	00021182 	srl	v0,v0,0x6
    1770:	00511025 	or	v0,v0,s1
    1774:	0c0018fc 	jal	0x63f0
    1778:	ae420000 	sw	v0,0(s2)
    177c:	8f820240 	lw	v0,576(gp)
    1780:	3c030001 	lui	v1,0x1
    1784:	00431025 	or	v0,v0,v1
    1788:	af820240 	sw	v0,576(gp)
    178c:	3c020000 	lui	v0,0x0
    1790:	24424034 	addiu	v0,v0,16436
    1794:	af820244 	sw	v0,580(gp)
    1798:	af800240 	sw	zero,576(gp)
    179c:	8f820060 	lw	v0,96(gp)
    17a0:	00511024 	and	v0,v0,s1
    17a4:	14400005 	bnez	v0,0x17bc
    17a8:	3c030800 	lui	v1,0x800
    17ac:	8f820060 	lw	v0,96(gp)
    17b0:	00431024 	and	v0,v0,v1
    17b4:	1040fffd 	beqz	v0,0x17ac
    17b8:	00000000 	nop
    17bc:	0c003c4d 	jal	0xf134
    17c0:	00008821 	move	s1,zero
    17c4:	3c020100 	lui	v0,0x100
    17c8:	afa20020 	sw	v0,32(sp)
    17cc:	8f530018 	lw	s3,24(k0)
    17d0:	240200ff 	li	v0,255
    17d4:	56620001 	bnel	s3,v0,0x17dc
    17d8:	26710001 	addiu	s1,s3,1
    17dc:	8c020228 	lw	v0,552(zero)
    17e0:	1622000e 	bne	s1,v0,0x181c
    17e4:	001330c0 	sll	a2,s3,0x3
    17e8:	8f42033c 	lw	v0,828(k0)
    17ec:	24420001 	addiu	v0,v0,1
    17f0:	af42033c 	sw	v0,828(k0)
    17f4:	8f42033c 	lw	v0,828(k0)
    17f8:	8c020228 	lw	v0,552(zero)
    17fc:	3c040001 	lui	a0,0x1
    1800:	24845c24 	addiu	a0,a0,23588
    1804:	3c050009 	lui	a1,0x9
    1808:	afa00014 	sw	zero,20(sp)
    180c:	afa20010 	sw	v0,16(sp)
    1810:	8fa60020 	lw	a2,32(sp)
    1814:	1000003f 	b	0x1914
    1818:	34a50100 	ori	a1,a1,0x100
    181c:	00d71021 	addu	v0,a2,s7
    1820:	8fa30020 	lw	v1,32(sp)
    1824:	8fa40024 	lw	a0,36(sp)
    1828:	ac4304c0 	sw	v1,1216(v0)
    182c:	ac4404c4 	sw	a0,1220(v0)
    1830:	00c01821 	move	v1,a2
    1834:	8f440178 	lw	a0,376(k0)
    1838:	8f45017c 	lw	a1,380(k0)
    183c:	00001021 	move	v0,zero
    1840:	24070004 	li	a3,4
    1844:	afa70010 	sw	a3,16(sp)
    1848:	afb10014 	sw	s1,20(sp)
    184c:	8f48000c 	lw	t0,12(k0)
    1850:	24c604c0 	addiu	a2,a2,1216
    1854:	02e63021 	addu	a2,s7,a2
    1858:	afa80018 	sw	t0,24(sp)
    185c:	8f48010c 	lw	t0,268(k0)
    1860:	24070008 	li	a3,8
    1864:	00a32821 	addu	a1,a1,v1
    1868:	00a3482b 	sltu	t1,a1,v1
    186c:	00822021 	addu	a0,a0,v0
    1870:	0100f809 	jalr	t0
    1874:	00892021 	addu	a0,a0,t1
    1878:	1440000b 	bnez	v0,0x18a8
    187c:	24070008 	li	a3,8
    1880:	8f820120 	lw	v0,288(gp)
    1884:	afa20010 	sw	v0,16(sp)
    1888:	8f820124 	lw	v0,292(gp)
    188c:	3c040001 	lui	a0,0x1
    1890:	24845c2c 	addiu	a0,a0,23596
    1894:	3c050009 	lui	a1,0x9
    1898:	afa20014 	sw	v0,20(sp)
    189c:	8fa60020 	lw	a2,32(sp)
    18a0:	1000001c 	b	0x1914
    18a4:	34a50200 	ori	a1,a1,0x200
    18a8:	8f440160 	lw	a0,352(k0)
    18ac:	8f450164 	lw	a1,356(k0)
    18b0:	8f43000c 	lw	v1,12(k0)
    18b4:	af510018 	sw	s1,24(k0)
    18b8:	8f860120 	lw	a2,288(gp)
    18bc:	24020010 	li	v0,16
    18c0:	afa20010 	sw	v0,16(sp)
    18c4:	afb10014 	sw	s1,20(sp)
    18c8:	afa30018 	sw	v1,24(sp)
    18cc:	8f42010c 	lw	v0,268(k0)
    18d0:	0040f809 	jalr	v0
    18d4:	24c6001c 	addiu	a2,a2,28
    18d8:	14400010 	bnez	v0,0x191c
    18dc:	00000000 	nop
    18e0:	8f420340 	lw	v0,832(k0)
    18e4:	24420001 	addiu	v0,v0,1
    18e8:	af420340 	sw	v0,832(k0)
    18ec:	8f420340 	lw	v0,832(k0)
    18f0:	8f820120 	lw	v0,288(gp)
    18f4:	afa20010 	sw	v0,16(sp)
    18f8:	8f820124 	lw	v0,292(gp)
    18fc:	3c040001 	lui	a0,0x1
    1900:	24845c34 	addiu	a0,a0,23604
    1904:	3c050009 	lui	a1,0x9
    1908:	afa20014 	sw	v0,20(sp)
    190c:	8fa60020 	lw	a2,32(sp)
    1910:	34a50300 	ori	a1,a1,0x300
    1914:	0c002b3b 	jal	0xacec
    1918:	02603821 	move	a3,s3
    191c:	8f4202e4 	lw	v0,740(k0)
    1920:	24420001 	addiu	v0,v0,1
    1924:	af4202e4 	sw	v0,740(k0)
    1928:	8f4202e4 	lw	v0,740(k0)
    192c:	93a2003f 	lbu	v0,63(sp)
    1930:	10400069 	beqz	v0,0x1ad8
    1934:	3c020700 	lui	v0,0x700
    1938:	34423000 	ori	v0,v0,0x3000
    193c:	afa20028 	sw	v0,40(sp)
    1940:	8f530018 	lw	s3,24(k0)
    1944:	240200ff 	li	v0,255
    1948:	12620002 	beq	s3,v0,0x1954
    194c:	00008821 	move	s1,zero
    1950:	26710001 	addiu	s1,s3,1
    1954:	8c020228 	lw	v0,552(zero)
    1958:	1622000e 	bne	s1,v0,0x1994
    195c:	001330c0 	sll	a2,s3,0x3
    1960:	8f42033c 	lw	v0,828(k0)
    1964:	24420001 	addiu	v0,v0,1
    1968:	af42033c 	sw	v0,828(k0)
    196c:	8f42033c 	lw	v0,828(k0)
    1970:	8c020228 	lw	v0,552(zero)
    1974:	3c040001 	lui	a0,0x1
    1978:	24845c24 	addiu	a0,a0,23588
    197c:	3c050009 	lui	a1,0x9
    1980:	afa00014 	sw	zero,20(sp)
    1984:	afa20010 	sw	v0,16(sp)
    1988:	8fa60028 	lw	a2,40(sp)
    198c:	1000003f 	b	0x1a8c
    1990:	34a50100 	ori	a1,a1,0x100
    1994:	00d71021 	addu	v0,a2,s7
    1998:	8fa30028 	lw	v1,40(sp)
    199c:	8fa4002c 	lw	a0,44(sp)
    19a0:	ac4304c0 	sw	v1,1216(v0)
    19a4:	ac4404c4 	sw	a0,1220(v0)
    19a8:	00c01821 	move	v1,a2
    19ac:	8f440178 	lw	a0,376(k0)
    19b0:	8f45017c 	lw	a1,380(k0)
    19b4:	00001021 	move	v0,zero
    19b8:	24070004 	li	a3,4
    19bc:	afa70010 	sw	a3,16(sp)
    19c0:	afb10014 	sw	s1,20(sp)
    19c4:	8f48000c 	lw	t0,12(k0)
    19c8:	24c604c0 	addiu	a2,a2,1216
    19cc:	02e63021 	addu	a2,s7,a2
    19d0:	afa80018 	sw	t0,24(sp)
    19d4:	8f48010c 	lw	t0,268(k0)
    19d8:	24070008 	li	a3,8
    19dc:	00a32821 	addu	a1,a1,v1
    19e0:	00a3482b 	sltu	t1,a1,v1
    19e4:	00822021 	addu	a0,a0,v0
    19e8:	0100f809 	jalr	t0
    19ec:	00892021 	addu	a0,a0,t1
    19f0:	1440000b 	bnez	v0,0x1a20
    19f4:	24070008 	li	a3,8
    19f8:	8f820120 	lw	v0,288(gp)
    19fc:	afa20010 	sw	v0,16(sp)
    1a00:	8f820124 	lw	v0,292(gp)
    1a04:	3c040001 	lui	a0,0x1
    1a08:	24845c2c 	addiu	a0,a0,23596
    1a0c:	3c050009 	lui	a1,0x9
    1a10:	afa20014 	sw	v0,20(sp)
    1a14:	8fa60028 	lw	a2,40(sp)
    1a18:	1000001c 	b	0x1a8c
    1a1c:	34a50200 	ori	a1,a1,0x200
    1a20:	8f440160 	lw	a0,352(k0)
    1a24:	8f450164 	lw	a1,356(k0)
    1a28:	8f43000c 	lw	v1,12(k0)
    1a2c:	af510018 	sw	s1,24(k0)
    1a30:	8f860120 	lw	a2,288(gp)
    1a34:	24020010 	li	v0,16
    1a38:	afa20010 	sw	v0,16(sp)
    1a3c:	afb10014 	sw	s1,20(sp)
    1a40:	afa30018 	sw	v1,24(sp)
    1a44:	8f42010c 	lw	v0,268(k0)
    1a48:	0040f809 	jalr	v0
    1a4c:	24c6001c 	addiu	a2,a2,28
    1a50:	14400010 	bnez	v0,0x1a94
    1a54:	00000000 	nop
    1a58:	8f420340 	lw	v0,832(k0)
    1a5c:	24420001 	addiu	v0,v0,1
    1a60:	af420340 	sw	v0,832(k0)
    1a64:	8f420340 	lw	v0,832(k0)
    1a68:	8f820120 	lw	v0,288(gp)
    1a6c:	afa20010 	sw	v0,16(sp)
    1a70:	8f820124 	lw	v0,292(gp)
    1a74:	3c040001 	lui	a0,0x1
    1a78:	24845c34 	addiu	a0,a0,23604
    1a7c:	3c050009 	lui	a1,0x9
    1a80:	afa20014 	sw	v0,20(sp)
    1a84:	8fa60028 	lw	a2,40(sp)
    1a88:	34a50300 	ori	a1,a1,0x300
    1a8c:	0c002b3b 	jal	0xacec
    1a90:	02603821 	move	a3,s3
    1a94:	8f4202f0 	lw	v0,752(k0)
    1a98:	24420001 	addiu	v0,v0,1
    1a9c:	af4202f0 	sw	v0,752(k0)
    1aa0:	8f4202f0 	lw	v0,752(k0)
    1aa4:	3c040001 	lui	a0,0x1
    1aa8:	24845fc0 	addiu	a0,a0,24512
    1aac:	afa00010 	sw	zero,16(sp)
    1ab0:	afa00014 	sw	zero,20(sp)
    1ab4:	8fa60028 	lw	a2,40(sp)
    1ab8:	24052300 	li	a1,8960
    1abc:	0c002b3b 	jal	0xacec
    1ac0:	00003821 	move	a3,zero
    1ac4:	10000004 	b	0x1ad8
    1ac8:	00000000 	nop
    1acc:	8c020264 	lw	v0,612(zero)
    1ad0:	10400005 	beqz	v0,0x1ae8
    1ad4:	00000000 	nop
    1ad8:	8f8200a0 	lw	v0,160(gp)
    1adc:	30420004 	andi	v0,v0,0x4
    1ae0:	1440fffa 	bnez	v0,0x1acc
    1ae4:	00000000 	nop
    1ae8:	8f820044 	lw	v0,68(gp)
    1aec:	34420004 	ori	v0,v0,0x4
    1af0:	af820044 	sw	v0,68(gp)
    1af4:	8f420308 	lw	v0,776(k0)
    1af8:	24420001 	addiu	v0,v0,1
    1afc:	af420308 	sw	v0,776(k0)
    1b00:	8f420308 	lw	v0,776(k0)
    1b04:	8f8200d8 	lw	v0,216(gp)
    1b08:	8f8300d4 	lw	v1,212(gp)
    1b0c:	00431023 	subu	v0,v0,v1
    1b10:	2442ff80 	addiu	v0,v0,-128
    1b14:	af420090 	sw	v0,144(k0)
    1b18:	8f420090 	lw	v0,144(k0)
    1b1c:	2842ff81 	slti	v0,v0,-127
    1b20:	10400006 	beqz	v0,0x1b3c
    1b24:	24020001 	li	v0,1
    1b28:	8f420090 	lw	v0,144(k0)
    1b2c:	8f430144 	lw	v1,324(k0)
    1b30:	00431021 	addu	v0,v0,v1
    1b34:	af420090 	sw	v0,144(k0)
    1b38:	24020001 	li	v0,1
    1b3c:	af42008c 	sw	v0,140(k0)
    1b40:	32c20008 	andi	v0,s6,0x8
    1b44:	10400006 	beqz	v0,0x1b60
    1b48:	00000000 	nop
    1b4c:	8f820214 	lw	v0,532(gp)
    1b50:	3c038100 	lui	v1,0x8100
    1b54:	3042ffff 	andi	v0,v0,0xffff
    1b58:	00431025 	or	v0,v0,v1
    1b5c:	af820214 	sw	v0,532(gp)
    1b60:	3c030001 	lui	v1,0x1
    1b64:	8c636d94 	lw	v1,28052(v1)
    1b68:	30620002 	andi	v0,v1,0x2
    1b6c:	10400009 	beqz	v0,0x1b94
    1b70:	30620001 	andi	v0,v1,0x1
    1b74:	3c040001 	lui	a0,0x1
    1b78:	24845fcc 	addiu	a0,a0,24524
    1b7c:	3c050000 	lui	a1,0x0
    1b80:	24a56d50 	addiu	a1,a1,27984
    1b84:	3c060000 	lui	a2,0x0
    1b88:	24c671c8 	addiu	a2,a2,29128
    1b8c:	10000012 	b	0x1bd8
    1b90:	00c53023 	subu	a2,a2,a1
    1b94:	10400009 	beqz	v0,0x1bbc
    1b98:	00000000 	nop
    1b9c:	3c040001 	lui	a0,0x1
    1ba0:	24845fdc 	addiu	a0,a0,24540
    1ba4:	3c050000 	lui	a1,0x0
    1ba8:	24a571d0 	addiu	a1,a1,29136
    1bac:	3c060000 	lui	a2,0x0
    1bb0:	24c67678 	addiu	a2,a2,30328
    1bb4:	10000008 	b	0x1bd8
    1bb8:	00c53023 	subu	a2,a2,a1
    1bbc:	3c040001 	lui	a0,0x1
    1bc0:	24845fec 	addiu	a0,a0,24556
    1bc4:	3c050000 	lui	a1,0x0
    1bc8:	24a56948 	addiu	a1,a1,26952
    1bcc:	3c060000 	lui	a2,0x0
    1bd0:	24c66d48 	addiu	a2,a2,27976
    1bd4:	00c53023 	subu	a2,a2,a1
    1bd8:	27a70030 	addiu	a3,sp,48
    1bdc:	27a20034 	addiu	v0,sp,52
    1be0:	0c0017a3 	jal	0x5e8c
    1be4:	afa20010 	sw	v0,16(sp)
    1be8:	3c010001 	lui	at,0x1
    1bec:	ac226ecc 	sw	v0,28364(at)
    1bf0:	3c020001 	lui	v0,0x1
    1bf4:	8c426ecc 	lw	v0,28364(v0)
    1bf8:	3c030800 	lui	v1,0x800
    1bfc:	00021100 	sll	v0,v0,0x4
    1c00:	00021182 	srl	v0,v0,0x6
    1c04:	00431025 	or	v0,v0,v1
    1c08:	ae420040 	sw	v0,64(s2)
    1c0c:	8f8200a0 	lw	v0,160(gp)
    1c10:	afa20010 	sw	v0,16(sp)
    1c14:	8f8200b0 	lw	v0,176(gp)
    1c18:	afa20014 	sw	v0,20(sp)
    1c1c:	8f86005c 	lw	a2,92(gp)
    1c20:	8f87011c 	lw	a3,284(gp)
    1c24:	3c040001 	lui	a0,0x1
    1c28:	24845ffc 	addiu	a0,a0,24572
    1c2c:	3c010001 	lui	at,0x1
    1c30:	ac366ea4 	sw	s6,28324(at)
    1c34:	3c010001 	lui	at,0x1
    1c38:	ac206e94 	sw	zero,28308(at)
    1c3c:	3c010001 	lui	at,0x1
    1c40:	ac3c6e8c 	sw	gp,28300(at)
    1c44:	3c010001 	lui	at,0x1
    1c48:	ac3b6ebc 	sw	k1,28348(at)
    1c4c:	3c010001 	lui	at,0x1
    1c50:	ac376ec0 	sw	s7,28352(at)
    1c54:	3c010001 	lui	at,0x1
    1c58:	ac3a6ea0 	sw	k0,28320(at)
    1c5c:	0c002b3b 	jal	0xacec
    1c60:	24052400 	li	a1,9216
    1c64:	8f820200 	lw	v0,512(gp)
    1c68:	afa20010 	sw	v0,16(sp)
    1c6c:	8f820220 	lw	v0,544(gp)
    1c70:	afa20014 	sw	v0,20(sp)
    1c74:	8f860044 	lw	a2,68(gp)
    1c78:	8f870050 	lw	a3,80(gp)
    1c7c:	3c040001 	lui	a0,0x1
    1c80:	24846008 	addiu	a0,a0,24584
    1c84:	0c002b3b 	jal	0xacec
    1c88:	24052500 	li	a1,9472
    1c8c:	8f830060 	lw	v1,96(gp)
    1c90:	0074100b 	.word	0x74100b
    1c94:	0242000a 	.word	0x242000a
    1c98:	0200f821 	move	ra,s0
    1c9c:	00000000 	nop
    1ca0:	0000000d 	break
    1ca4:	8fbf0060 	lw	ra,96(sp)
    1ca8:	8fbe005c 	lw	s8,92(sp)
    1cac:	8fb50058 	lw	s5,88(sp)
    1cb0:	8fb30054 	lw	s3,84(sp)
    1cb4:	8fb20050 	lw	s2,80(sp)
    1cb8:	8fb1004c 	lw	s1,76(sp)
    1cbc:	8fb00048 	lw	s0,72(sp)
    1cc0:	03e00008 	jr	ra
    1cc4:	27bd0068 	addiu	sp,sp,104
    1cc8:	27bdffe0 	addiu	sp,sp,-32
    1ccc:	3c040001 	lui	a0,0x1
    1cd0:	24846014 	addiu	a0,a0,24596
    1cd4:	24052600 	li	a1,9728
    1cd8:	00003021 	move	a2,zero
    1cdc:	00003821 	move	a3,zero
    1ce0:	afbf0018 	sw	ra,24(sp)
    1ce4:	afa00010 	sw	zero,16(sp)
    1ce8:	0c002b3b 	jal	0xacec
    1cec:	afa00014 	sw	zero,20(sp)
    1cf0:	8fbf0018 	lw	ra,24(sp)
    1cf4:	03e00008 	jr	ra
    1cf8:	27bd0020 	addiu	sp,sp,32
    1cfc:	03e00008 	jr	ra
    1d00:	00000000 	nop
    1d04:	03e00008 	jr	ra
    1d08:	00000000 	nop
	...
    1d20:	03e00008 	jr	ra
    1d24:	00000000 	nop
    1d28:	03e00008 	jr	ra
    1d2c:	00000000 	nop
    1d30:	27bdfde0 	addiu	sp,sp,-544
    1d34:	27a50018 	addiu	a1,sp,24
    1d38:	3c04dead 	lui	a0,0xdead
    1d3c:	3484beef 	ori	a0,a0,0xbeef
    1d40:	afbf0218 	sw	ra,536(sp)
    1d44:	8f820150 	lw	v0,336(gp)
    1d48:	3c03001f 	lui	v1,0x1f
    1d4c:	3463ffff 	ori	v1,v1,0xffff
    1d50:	afa40018 	sw	a0,24(sp)
    1d54:	00a22823 	subu	a1,a1,v0
    1d58:	00a32824 	and	a1,a1,v1
    1d5c:	8ca20000 	lw	v0,0(a1)
    1d60:	1044000a 	beq	v0,a0,0x1d8c
    1d64:	00000000 	nop
    1d68:	afa50010 	sw	a1,16(sp)
    1d6c:	8ca20000 	lw	v0,0(a1)
    1d70:	afa20014 	sw	v0,20(sp)
    1d74:	8f860150 	lw	a2,336(gp)
    1d78:	8f870250 	lw	a3,592(gp)
    1d7c:	3c040001 	lui	a0,0x1
    1d80:	2484601c 	addiu	a0,a0,24604
    1d84:	0c002b3b 	jal	0xacec
    1d88:	24052700 	li	a1,9984
    1d8c:	8fbf0218 	lw	ra,536(sp)
    1d90:	03e00008 	jr	ra
    1d94:	27bd0220 	addiu	sp,sp,544
    1d98:	27bdffe0 	addiu	sp,sp,-32
    1d9c:	3c06abba 	lui	a2,0xabba
    1da0:	34c6babe 	ori	a2,a2,0xbabe
    1da4:	afb00018 	sw	s0,24(sp)
    1da8:	3c100004 	lui	s0,0x4
    1dac:	3c07007f 	lui	a3,0x7f
    1db0:	34e7ffff 	ori	a3,a3,0xffff
    1db4:	afbf001c 	sw	ra,28(sp)
    1db8:	00102840 	sll	a1,s0,0x1
    1dbc:	8e040000 	lw	a0,0(s0)
    1dc0:	8ca30000 	lw	v1,0(a1)
    1dc4:	aca00000 	sw	zero,0(a1)
    1dc8:	ae060000 	sw	a2,0(s0)
    1dcc:	8ca20000 	lw	v0,0(a1)
    1dd0:	aca30000 	sw	v1,0(a1)
    1dd4:	10460005 	beq	v0,a2,0x1dec
    1dd8:	ae040000 	sw	a0,0(s0)
    1ddc:	00a08021 	move	s0,a1
    1de0:	00f0102b 	sltu	v0,a3,s0
    1de4:	1040fff5 	beqz	v0,0x1dbc
    1de8:	00102840 	sll	a1,s0,0x1
    1dec:	3c040001 	lui	a0,0x1
    1df0:	24846028 	addiu	a0,a0,24616
    1df4:	24052800 	li	a1,10240
    1df8:	02003021 	move	a2,s0
    1dfc:	00003821 	move	a3,zero
    1e00:	afa00010 	sw	zero,16(sp)
    1e04:	0c002b3b 	jal	0xacec
    1e08:	afa00014 	sw	zero,20(sp)
    1e0c:	02001021 	move	v0,s0
    1e10:	8fbf001c 	lw	ra,28(sp)
    1e14:	8fb00018 	lw	s0,24(sp)
    1e18:	03e00008 	jr	ra
    1e1c:	27bd0020 	addiu	sp,sp,32
    1e20:	8c020224 	lw	v0,548(zero)
    1e24:	3047003f 	andi	a3,v0,0x3f
    1e28:	10e00010 	beqz	a3,0x1e6c
    1e2c:	00803021 	move	a2,a0
    1e30:	00002821 	move	a1,zero
    1e34:	24030020 	li	v1,32
    1e38:	00e31024 	and	v0,a3,v1
    1e3c:	10400002 	beqz	v0,0x1e48
    1e40:	00063042 	srl	a2,a2,0x1
    1e44:	00a62821 	addu	a1,a1,a2
    1e48:	00031842 	srl	v1,v1,0x1
    1e4c:	1460fffb 	bnez	v1,0x1e3c
    1e50:	00e31024 	and	v0,a3,v1
    1e54:	2402f000 	li	v0,-4096
    1e58:	00a22824 	and	a1,a1,v0
    1e5c:	3402ffff 	li	v0,0xffff
    1e60:	0045102b 	sltu	v0,v0,a1
    1e64:	14400003 	bnez	v0,0x1e74
    1e68:	3c020001 	lui	v0,0x1
    1e6c:	10000008 	b	0x1e90
    1e70:	3c020001 	lui	v0,0x1
    1e74:	3442ffff 	ori	v0,v0,0xffff
    1e78:	00851823 	subu	v1,a0,a1
    1e7c:	0043102b 	sltu	v0,v0,v1
    1e80:	14400003 	bnez	v0,0x1e90
    1e84:	00a01021 	move	v0,a1
    1e88:	3c02fffe 	lui	v0,0xfffe
    1e8c:	00821021 	addu	v0,a0,v0
    1e90:	03e00008 	jr	ra
    1e94:	00000000 	nop
    1e98:	27bdffd0 	addiu	sp,sp,-48
    1e9c:	afb50028 	sw	s5,40(sp)
    1ea0:	8fb50040 	lw	s5,64(sp)
    1ea4:	afb20020 	sw	s2,32(sp)
    1ea8:	00a09021 	move	s2,a1
    1eac:	afb1001c 	sw	s1,28(sp)
    1eb0:	24c60003 	addiu	a2,a2,3
    1eb4:	afbf002c 	sw	ra,44(sp)
    1eb8:	afb30024 	sw	s3,36(sp)
    1ebc:	afb00018 	sw	s0,24(sp)
    1ec0:	8ea20000 	lw	v0,0(s5)
    1ec4:	2403fffc 	li	v1,-4
    1ec8:	00c38024 	and	s0,a2,v1
    1ecc:	0050102b 	sltu	v0,v0,s0
    1ed0:	1440001b 	bnez	v0,0x1f40
    1ed4:	00e08821 	move	s1,a3
    1ed8:	8e330000 	lw	s3,0(s1)
    1edc:	afb00010 	sw	s0,16(sp)
    1ee0:	8ea20000 	lw	v0,0(s5)
    1ee4:	afa20014 	sw	v0,20(sp)
    1ee8:	8e270000 	lw	a3,0(s1)
    1eec:	24053000 	li	a1,12288
    1ef0:	0c002b3b 	jal	0xacec
    1ef4:	02403021 	move	a2,s2
    1ef8:	8e230000 	lw	v1,0(s1)
    1efc:	00702021 	addu	a0,v1,s0
    1f00:	0064102b 	sltu	v0,v1,a0
    1f04:	10400007 	beqz	v0,0x1f24
    1f08:	02402821 	move	a1,s2
    1f0c:	8ca20000 	lw	v0,0(a1)
    1f10:	ac620000 	sw	v0,0(v1)
    1f14:	24630004 	addiu	v1,v1,4
    1f18:	0064102b 	sltu	v0,v1,a0
    1f1c:	1440fffb 	bnez	v0,0x1f0c
    1f20:	24a50004 	addiu	a1,a1,4
    1f24:	8ea20000 	lw	v0,0(s5)
    1f28:	00501023 	subu	v0,v0,s0
    1f2c:	aea20000 	sw	v0,0(s5)
    1f30:	8e220000 	lw	v0,0(s1)
    1f34:	00501021 	addu	v0,v0,s0
    1f38:	1000000b 	b	0x1f68
    1f3c:	ae220000 	sw	v0,0(s1)
    1f40:	2402002d 	li	v0,45
    1f44:	a0820000 	sb	v0,0(a0)
    1f48:	afb00010 	sw	s0,16(sp)
    1f4c:	8ea20000 	lw	v0,0(s5)
    1f50:	02409821 	move	s3,s2
    1f54:	afa20014 	sw	v0,20(sp)
    1f58:	8e270000 	lw	a3,0(s1)
    1f5c:	24053100 	li	a1,12544
    1f60:	0c002b3b 	jal	0xacec
    1f64:	02603021 	move	a2,s3
    1f68:	02601021 	move	v0,s3
    1f6c:	8fbf002c 	lw	ra,44(sp)
    1f70:	8fb50028 	lw	s5,40(sp)
    1f74:	8fb30024 	lw	s3,36(sp)
    1f78:	8fb20020 	lw	s2,32(sp)
    1f7c:	8fb1001c 	lw	s1,28(sp)
    1f80:	8fb00018 	lw	s0,24(sp)
    1f84:	03e00008 	jr	ra
    1f88:	27bd0030 	addiu	sp,sp,48
    1f8c:	27bdffe8 	addiu	sp,sp,-24
    1f90:	3c1cc000 	lui	gp,0xc000
    1f94:	3c05fffe 	lui	a1,0xfffe
    1f98:	3c030001 	lui	v1,0x1
    1f9c:	8c636e84 	lw	v1,28292(v1)
    1fa0:	3c040001 	lui	a0,0x1
    1fa4:	8c846e90 	lw	a0,28304(a0)
    1fa8:	34a5bf08 	ori	a1,a1,0xbf08
    1fac:	24021ffc 	li	v0,8188
    1fb0:	3c010001 	lui	at,0x1
    1fb4:	ac226cd0 	sw	v0,27856(at)
    1fb8:	3c0200c0 	lui	v0,0xc0
    1fbc:	3c010001 	lui	at,0x1
    1fc0:	ac226cd4 	sw	v0,27860(at)
    1fc4:	3c020020 	lui	v0,0x20
    1fc8:	afbf0010 	sw	ra,16(sp)
    1fcc:	3c0100c0 	lui	at,0xc0
    1fd0:	ac201ffc 	sw	zero,8188(at)
    1fd4:	00431023 	subu	v0,v0,v1
    1fd8:	00441023 	subu	v0,v0,a0
    1fdc:	245bb000 	addiu	k1,v0,-20480
    1fe0:	0365b821 	addu	s7,k1,a1
    1fe4:	3c1d0001 	lui	sp,0x1
    1fe8:	8fbd6ccc 	lw	sp,27852(sp)
    1fec:	03a0f021 	move	s8,sp
    1ff0:	3c0400c0 	lui	a0,0xc0
    1ff4:	34840200 	ori	a0,a0,0x200
    1ff8:	3c1a00c0 	lui	k0,0xc0
    1ffc:	3c0300c0 	lui	v1,0xc0
    2000:	346307c8 	ori	v1,v1,0x7c8
    2004:	24021dfc 	li	v0,7676
    2008:	3c010001 	lui	at,0x1
    200c:	ac226cd0 	sw	v0,27856(at)
    2010:	24021834 	li	v0,6196
    2014:	3c010001 	lui	at,0x1
    2018:	ac246cd4 	sw	a0,27860(at)
    201c:	3c010001 	lui	at,0x1
    2020:	ac226cd0 	sw	v0,27856(at)
    2024:	3c010001 	lui	at,0x1
    2028:	ac236cd4 	sw	v1,27860(at)
    202c:	0c00180d 	jal	0x6034
    2030:	375a0200 	ori	k0,k0,0x200
    2034:	8fbf0010 	lw	ra,16(sp)
    2038:	03e00008 	jr	ra
    203c:	27bd0018 	addiu	sp,sp,24
    2040:	27bdffc8 	addiu	sp,sp,-56
    2044:	3c040001 	lui	a0,0x1
    2048:	24846034 	addiu	a0,a0,24628
    204c:	24053200 	li	a1,12800
    2050:	3c020001 	lui	v0,0x1
    2054:	8c426cd0 	lw	v0,27856(v0)
    2058:	3c030001 	lui	v1,0x1
    205c:	8c636cd4 	lw	v1,27860(v1)
    2060:	00003021 	move	a2,zero
    2064:	03603821 	move	a3,k1
    2068:	afbf0030 	sw	ra,48(sp)
    206c:	afb3002c 	sw	s3,44(sp)
    2070:	afb20028 	sw	s2,40(sp)
    2074:	afb10024 	sw	s1,36(sp)
    2078:	afb00020 	sw	s0,32(sp)
    207c:	afa2001c 	sw	v0,28(sp)
    2080:	afa30018 	sw	v1,24(sp)
    2084:	afb70010 	sw	s7,16(sp)
    2088:	0c002b3b 	jal	0xacec
    208c:	afba0014 	sw	k0,20(sp)
    2090:	0c001916 	jal	0x6458
    2094:	00000000 	nop
    2098:	8f820240 	lw	v0,576(gp)
    209c:	34420004 	ori	v0,v0,0x4
    20a0:	af820240 	sw	v0,576(gp)
    20a4:	24020001 	li	v0,1
    20a8:	af420000 	sw	v0,0(k0)
    20ac:	3c020001 	lui	v0,0x1
    20b0:	00571021 	addu	v0,v0,s7
    20b4:	904240f4 	lbu	v0,16628(v0)
    20b8:	10400092 	beqz	v0,0x2304
    20bc:	2403fffc 	li	v1,-4
    20c0:	3c100001 	lui	s0,0x1
    20c4:	2610ac73 	addiu	s0,s0,-21389
    20c8:	3c120001 	lui	s2,0x1
    20cc:	2652a84c 	addiu	s2,s2,-22452
    20d0:	02121023 	subu	v0,s0,s2
    20d4:	00438024 	and	s0,v0,v1
    20d8:	8fa3001c 	lw	v1,28(sp)
    20dc:	3c040001 	lui	a0,0x1
    20e0:	24846040 	addiu	a0,a0,24640
    20e4:	0070102b 	sltu	v0,v1,s0
    20e8:	1440001a 	bnez	v0,0x2154
    20ec:	27b30018 	addiu	s3,sp,24
    20f0:	8fb10018 	lw	s1,24(sp)
    20f4:	24053000 	li	a1,12288
    20f8:	02403021 	move	a2,s2
    20fc:	afb00010 	sw	s0,16(sp)
    2100:	afa30014 	sw	v1,20(sp)
    2104:	0c002b3b 	jal	0xacec
    2108:	02203821 	move	a3,s1
    210c:	8fa30018 	lw	v1,24(sp)
    2110:	00702021 	addu	a0,v1,s0
    2114:	0064102b 	sltu	v0,v1,a0
    2118:	10400007 	beqz	v0,0x2138
    211c:	02403021 	move	a2,s2
    2120:	8cc20000 	lw	v0,0(a2)
    2124:	ac620000 	sw	v0,0(v1)
    2128:	24630004 	addiu	v1,v1,4
    212c:	0064102b 	sltu	v0,v1,a0
    2130:	1440fffb 	bnez	v0,0x2120
    2134:	24c60004 	addiu	a2,a2,4
    2138:	8fa2001c 	lw	v0,28(sp)
    213c:	00501023 	subu	v0,v0,s0
    2140:	afa2001c 	sw	v0,28(sp)
    2144:	8e620000 	lw	v0,0(s3)
    2148:	00501021 	addu	v0,v0,s0
    214c:	1000000a 	b	0x2178
    2150:	ae620000 	sw	v0,0(s3)
    2154:	02408821 	move	s1,s2
    2158:	24053100 	li	a1,12544
    215c:	afb00010 	sw	s0,16(sp)
    2160:	afa30014 	sw	v1,20(sp)
    2164:	8fa70018 	lw	a3,24(sp)
    2168:	02203021 	move	a2,s1
    216c:	2402002d 	li	v0,45
    2170:	0c002b3b 	jal	0xacec
    2174:	a0820000 	sb	v0,0(a0)
    2178:	24070020 	li	a3,32
    217c:	8fa3001c 	lw	v1,28(sp)
    2180:	3c040001 	lui	a0,0x1
    2184:	2484605c 	addiu	a0,a0,24668
    2188:	24120020 	li	s2,32
    218c:	3c010001 	lui	at,0x1
    2190:	ac316eb0 	sw	s1,28336(at)
    2194:	2c620020 	sltiu	v0,v1,32
    2198:	1440001d 	bnez	v0,0x2210
    219c:	27b10018 	addiu	s1,sp,24
    21a0:	8fb00018 	lw	s0,24(sp)
    21a4:	24053000 	li	a1,12288
    21a8:	3c060001 	lui	a2,0x1
    21ac:	24c66f50 	addiu	a2,a2,28496
    21b0:	afa70010 	sw	a3,16(sp)
    21b4:	afa30014 	sw	v1,20(sp)
    21b8:	0c002b3b 	jal	0xacec
    21bc:	02003821 	move	a3,s0
    21c0:	8fa30018 	lw	v1,24(sp)
    21c4:	3c040001 	lui	a0,0x1
    21c8:	24846f50 	addiu	a0,a0,28496
    21cc:	24650020 	addiu	a1,v1,32
    21d0:	0065102b 	sltu	v0,v1,a1
    21d4:	10400007 	beqz	v0,0x21f4
    21d8:	00000000 	nop
    21dc:	8c820000 	lw	v0,0(a0)
    21e0:	ac620000 	sw	v0,0(v1)
    21e4:	24630004 	addiu	v1,v1,4
    21e8:	0065102b 	sltu	v0,v1,a1
    21ec:	1440fffb 	bnez	v0,0x21dc
    21f0:	24840004 	addiu	a0,a0,4
    21f4:	8fa2001c 	lw	v0,28(sp)
    21f8:	00521023 	subu	v0,v0,s2
    21fc:	afa2001c 	sw	v0,28(sp)
    2200:	8e220000 	lw	v0,0(s1)
    2204:	00521021 	addu	v0,v0,s2
    2208:	1000000b 	b	0x2238
    220c:	ae220000 	sw	v0,0(s1)
    2210:	3c100001 	lui	s0,0x1
    2214:	26106f50 	addiu	s0,s0,28496
    2218:	24053100 	li	a1,12544
    221c:	afa70010 	sw	a3,16(sp)
    2220:	afa30014 	sw	v1,20(sp)
    2224:	8fa70018 	lw	a3,24(sp)
    2228:	02003021 	move	a2,s0
    222c:	2402002d 	li	v0,45
    2230:	0c002b3b 	jal	0xacec
    2234:	a0820000 	sb	v0,0(a0)
    2238:	24070020 	li	a3,32
    223c:	3c040001 	lui	a0,0x1
    2240:	24846070 	addiu	a0,a0,24688
    2244:	8fa3001c 	lw	v1,28(sp)
    2248:	24120020 	li	s2,32
    224c:	3c010001 	lui	at,0x1
    2250:	ac306ee4 	sw	s0,28388(at)
    2254:	2c620020 	sltiu	v0,v1,32
    2258:	1440001d 	bnez	v0,0x22d0
    225c:	27b10018 	addiu	s1,sp,24
    2260:	8fb00018 	lw	s0,24(sp)
    2264:	24053000 	li	a1,12288
    2268:	3c060001 	lui	a2,0x1
    226c:	24c66f70 	addiu	a2,a2,28528
    2270:	afa70010 	sw	a3,16(sp)
    2274:	afa30014 	sw	v1,20(sp)
    2278:	0c002b3b 	jal	0xacec
    227c:	02003821 	move	a3,s0
    2280:	8fa30018 	lw	v1,24(sp)
    2284:	3c040001 	lui	a0,0x1
    2288:	24846f70 	addiu	a0,a0,28528
    228c:	24650020 	addiu	a1,v1,32
    2290:	0065102b 	sltu	v0,v1,a1
    2294:	10400007 	beqz	v0,0x22b4
    2298:	00000000 	nop
    229c:	8c820000 	lw	v0,0(a0)
    22a0:	ac620000 	sw	v0,0(v1)
    22a4:	24630004 	addiu	v1,v1,4
    22a8:	0065102b 	sltu	v0,v1,a1
    22ac:	1440fffb 	bnez	v0,0x229c
    22b0:	24840004 	addiu	a0,a0,4
    22b4:	8fa2001c 	lw	v0,28(sp)
    22b8:	00521023 	subu	v0,v0,s2
    22bc:	afa2001c 	sw	v0,28(sp)
    22c0:	8e220000 	lw	v0,0(s1)
    22c4:	00521021 	addu	v0,v0,s2
    22c8:	1000000b 	b	0x22f8
    22cc:	ae220000 	sw	v0,0(s1)
    22d0:	3c100001 	lui	s0,0x1
    22d4:	26106f70 	addiu	s0,s0,28528
    22d8:	24053100 	li	a1,12544
    22dc:	afa70010 	sw	a3,16(sp)
    22e0:	afa30014 	sw	v1,20(sp)
    22e4:	8fa70018 	lw	a3,24(sp)
    22e8:	02003021 	move	a2,s0
    22ec:	2402002d 	li	v0,45
    22f0:	0c002b3b 	jal	0xacec
    22f4:	a0820000 	sb	v0,0(a0)
    22f8:	3c010001 	lui	at,0x1
    22fc:	10000031 	b	0x23c4
    2300:	ac306ee0 	sw	s0,28384(at)
    2304:	3c100001 	lui	s0,0x1
    2308:	2610821f 	addiu	s0,s0,-32225
    230c:	3c120001 	lui	s2,0x1
    2310:	2652809c 	addiu	s2,s2,-32612
    2314:	02121023 	subu	v0,s0,s2
    2318:	00438024 	and	s0,v0,v1
    231c:	8fa3001c 	lw	v1,28(sp)
    2320:	3c040001 	lui	a0,0x1
    2324:	24846084 	addiu	a0,a0,24708
    2328:	0070102b 	sltu	v0,v1,s0
    232c:	1440001a 	bnez	v0,0x2398
    2330:	27b30018 	addiu	s3,sp,24
    2334:	8fb10018 	lw	s1,24(sp)
    2338:	24053000 	li	a1,12288
    233c:	02403021 	move	a2,s2
    2340:	afb00010 	sw	s0,16(sp)
    2344:	afa30014 	sw	v1,20(sp)
    2348:	0c002b3b 	jal	0xacec
    234c:	02203821 	move	a3,s1
    2350:	8fa30018 	lw	v1,24(sp)
    2354:	00702021 	addu	a0,v1,s0
    2358:	0064102b 	sltu	v0,v1,a0
    235c:	10400007 	beqz	v0,0x237c
    2360:	02403021 	move	a2,s2
    2364:	8cc20000 	lw	v0,0(a2)
    2368:	ac620000 	sw	v0,0(v1)
    236c:	24630004 	addiu	v1,v1,4
    2370:	0064102b 	sltu	v0,v1,a0
    2374:	1440fffb 	bnez	v0,0x2364
    2378:	24c60004 	addiu	a2,a2,4
    237c:	8fa2001c 	lw	v0,28(sp)
    2380:	00501023 	subu	v0,v0,s0
    2384:	afa2001c 	sw	v0,28(sp)
    2388:	8e620000 	lw	v0,0(s3)
    238c:	00501021 	addu	v0,v0,s0
    2390:	1000000a 	b	0x23bc
    2394:	ae620000 	sw	v0,0(s3)
    2398:	02408821 	move	s1,s2
    239c:	24053100 	li	a1,12544
    23a0:	afb00010 	sw	s0,16(sp)
    23a4:	afa30014 	sw	v1,20(sp)
    23a8:	8fa70018 	lw	a3,24(sp)
    23ac:	02203021 	move	a2,s1
    23b0:	2402002d 	li	v0,45
    23b4:	0c002b3b 	jal	0xacec
    23b8:	a0820000 	sb	v0,0(a0)
    23bc:	3c010001 	lui	at,0x1
    23c0:	ac316eb0 	sw	s1,28336(at)
    23c4:	3c030001 	lui	v1,0x1
    23c8:	8c636eb0 	lw	v1,28336(v1)
    23cc:	24020400 	li	v0,1024
    23d0:	0060f809 	jalr	v1
    23d4:	af820070 	sw	v0,112(gp)
    23d8:	8fbf0030 	lw	ra,48(sp)
    23dc:	8fb3002c 	lw	s3,44(sp)
    23e0:	8fb20028 	lw	s2,40(sp)
    23e4:	8fb10024 	lw	s1,36(sp)
    23e8:	8fb00020 	lw	s0,32(sp)
    23ec:	03e00008 	jr	ra
    23f0:	27bd0038 	addiu	sp,sp,56
	...
    23fc:	8f820040 	lw	v0,64(gp)
    2400:	3c03f000 	lui	v1,0xf000
    2404:	00431024 	and	v0,v0,v1
    2408:	3c036000 	lui	v1,0x6000
    240c:	14430006 	bne	v0,v1,0x2428
    2410:	00000000 	nop
    2414:	8f820050 	lw	v0,80(gp)
    2418:	2403ff80 	li	v1,-128
    241c:	00431024 	and	v0,v0,v1
    2420:	34420055 	ori	v0,v0,0x55
    2424:	af820050 	sw	v0,80(gp)
    2428:	8f820054 	lw	v0,84(gp)
    242c:	244203e8 	addiu	v0,v0,1000
    2430:	af820058 	sw	v0,88(gp)
    2434:	240201f4 	li	v0,500
    2438:	af4200e0 	sw	v0,224(k0)
    243c:	24020004 	li	v0,4
    2440:	af4200e8 	sw	v0,232(k0)
    2444:	24020002 	li	v0,2
    2448:	af4001b0 	sw	zero,432(k0)
    244c:	af4000e4 	sw	zero,228(k0)
    2450:	af4200dc 	sw	v0,220(k0)
    2454:	af4000d8 	sw	zero,216(k0)
    2458:	af4000d4 	sw	zero,212(k0)
    245c:	03e00008 	jr	ra
    2460:	af4000d0 	sw	zero,208(k0)
    2464:	8f820054 	lw	v0,84(gp)
    2468:	24420005 	addiu	v0,v0,5
    246c:	03e00008 	jr	ra
    2470:	af820078 	sw	v0,120(gp)
    2474:	27bdffe8 	addiu	sp,sp,-24
    2478:	afbf0010 	sw	ra,16(sp)
    247c:	8f820054 	lw	v0,84(gp)
    2480:	244203e8 	addiu	v0,v0,1000
    2484:	af820058 	sw	v0,88(gp)
    2488:	3c020800 	lui	v0,0x800
    248c:	02c21024 	and	v0,s6,v0
    2490:	10400004 	beqz	v0,0x24a4
    2494:	3c02f7ff 	lui	v0,0xf7ff
    2498:	3442ffff 	ori	v0,v0,0xffff
    249c:	02c2b024 	and	s6,s6,v0
    24a0:	36940040 	ori	s4,s4,0x40
    24a4:	3c020001 	lui	v0,0x1
    24a8:	8c426da8 	lw	v0,28072(v0)
    24ac:	10400017 	beqz	v0,0x250c
    24b0:	3c020200 	lui	v0,0x200
    24b4:	3c030001 	lui	v1,0x1
    24b8:	8c636f1c 	lw	v1,28444(v1)
    24bc:	10600016 	beqz	v1,0x2518
    24c0:	0282a025 	or	s4,s4,v0
    24c4:	3c020001 	lui	v0,0x1
    24c8:	8c426e44 	lw	v0,28228(v0)
    24cc:	14400012 	bnez	v0,0x2518
    24d0:	3c020200 	lui	v0,0x200
    24d4:	3c020001 	lui	v0,0x1
    24d8:	8c426d94 	lw	v0,28052(v0)
    24dc:	30420003 	andi	v0,v0,0x3
    24e0:	1440000d 	bnez	v0,0x2518
    24e4:	3c020200 	lui	v0,0x200
    24e8:	8f830224 	lw	v1,548(gp)
    24ec:	3c020002 	lui	v0,0x2
    24f0:	8c428fec 	lw	v0,-28692(v0)
    24f4:	10620008 	beq	v1,v0,0x2518
    24f8:	3c020200 	lui	v0,0x200
    24fc:	0c003daf 	jal	0xf6bc
    2500:	00000000 	nop
    2504:	10000004 	b	0x2518
    2508:	3c020200 	lui	v0,0x200
    250c:	0c004196 	jal	0x10658
    2510:	00000000 	nop
    2514:	3c020200 	lui	v0,0x200
    2518:	02c21024 	and	v0,s6,v0
    251c:	10400003 	beqz	v0,0x252c
    2520:	00000000 	nop
    2524:	0c001f4b 	jal	0x7d2c
    2528:	00000000 	nop
    252c:	8f4200d8 	lw	v0,216(k0)
    2530:	8f4300dc 	lw	v1,220(k0)
    2534:	24420001 	addiu	v0,v0,1
    2538:	af4200d8 	sw	v0,216(k0)
    253c:	0043102b 	sltu	v0,v0,v1
    2540:	14400003 	bnez	v0,0x2550
    2544:	00000000 	nop
    2548:	af4000d8 	sw	zero,216(k0)
    254c:	36940080 	ori	s4,s4,0x80
    2550:	8c030238 	lw	v1,568(zero)
    2554:	1060000c 	beqz	v1,0x2588
    2558:	00000000 	nop
    255c:	8f4201b0 	lw	v0,432(k0)
    2560:	244203e8 	addiu	v0,v0,1000
    2564:	af4201b0 	sw	v0,432(k0)
    2568:	0043102b 	sltu	v0,v0,v1
    256c:	14400006 	bnez	v0,0x2588
    2570:	00000000 	nop
    2574:	934205c5 	lbu	v0,1477(k0)
    2578:	14400003 	bnez	v0,0x2588
    257c:	00000000 	nop
    2580:	0c001da0 	jal	0x7680
    2584:	00000000 	nop
    2588:	8fbf0010 	lw	ra,16(sp)
    258c:	03e00008 	jr	ra
    2590:	27bd0018 	addiu	sp,sp,24
    2594:	03e00008 	jr	ra
    2598:	00000000 	nop
    259c:	27bdffd8 	addiu	sp,sp,-40
    25a0:	afbf0020 	sw	ra,32(sp)
    25a4:	8f43002c 	lw	v1,44(k0)
    25a8:	8f420038 	lw	v0,56(k0)
    25ac:	10620059 	beq	v1,v0,0x2714
    25b0:	00000000 	nop
    25b4:	3c020001 	lui	v0,0x1
    25b8:	00571021 	addu	v0,v0,s7
    25bc:	904240f0 	lbu	v0,16624(v0)
    25c0:	10400026 	beqz	v0,0x265c
    25c4:	24070008 	li	a3,8
    25c8:	8f440170 	lw	a0,368(k0)
    25cc:	8f450174 	lw	a1,372(k0)
    25d0:	8f48000c 	lw	t0,12(k0)
    25d4:	8f860120 	lw	a2,288(gp)
    25d8:	24020020 	li	v0,32
    25dc:	afa20010 	sw	v0,16(sp)
    25e0:	afa30014 	sw	v1,20(sp)
    25e4:	afa80018 	sw	t0,24(sp)
    25e8:	8f42010c 	lw	v0,268(k0)
    25ec:	0040f809 	jalr	v0
    25f0:	24c6001c 	addiu	a2,a2,28
    25f4:	14400011 	bnez	v0,0x263c
    25f8:	24020001 	li	v0,1
    25fc:	3c010001 	lui	at,0x1
    2600:	00370821 	addu	at,at,s7
    2604:	a02240f0 	sb	v0,16624(at)
    2608:	8f820124 	lw	v0,292(gp)
    260c:	afa20010 	sw	v0,16(sp)
    2610:	8f820128 	lw	v0,296(gp)
    2614:	3c040001 	lui	a0,0x1
    2618:	24846128 	addiu	a0,a0,24872
    261c:	afa20014 	sw	v0,20(sp)
    2620:	8f46002c 	lw	a2,44(k0)
    2624:	8f870120 	lw	a3,288(gp)
    2628:	3c050009 	lui	a1,0x9
    262c:	0c002b3b 	jal	0xacec
    2630:	34a50900 	ori	a1,a1,0x900
    2634:	1000005c 	b	0x27a8
    2638:	00000000 	nop
    263c:	8f420300 	lw	v0,768(k0)
    2640:	24420001 	addiu	v0,v0,1
    2644:	af420300 	sw	v0,768(k0)
    2648:	8f420300 	lw	v0,768(k0)
    264c:	8f42002c 	lw	v0,44(k0)
    2650:	a34005c1 	sb	zero,1473(k0)
    2654:	10000027 	b	0x26f4
    2658:	af420038 	sw	v0,56(k0)
    265c:	8f440170 	lw	a0,368(k0)
    2660:	8f450174 	lw	a1,372(k0)
    2664:	8f43002c 	lw	v1,44(k0)
    2668:	8f48000c 	lw	t0,12(k0)
    266c:	8f860120 	lw	a2,288(gp)
    2670:	24020080 	li	v0,128
    2674:	afa20010 	sw	v0,16(sp)
    2678:	afa30014 	sw	v1,20(sp)
    267c:	afa80018 	sw	t0,24(sp)
    2680:	8f42010c 	lw	v0,268(k0)
    2684:	0040f809 	jalr	v0
    2688:	24c6001c 	addiu	a2,a2,28
    268c:	14400011 	bnez	v0,0x26d4
    2690:	24020001 	li	v0,1
    2694:	3c010001 	lui	at,0x1
    2698:	00370821 	addu	at,at,s7
    269c:	a02240f1 	sb	v0,16625(at)
    26a0:	8f820124 	lw	v0,292(gp)
    26a4:	afa20010 	sw	v0,16(sp)
    26a8:	8f820128 	lw	v0,296(gp)
    26ac:	3c040001 	lui	a0,0x1
    26b0:	24846134 	addiu	a0,a0,24884
    26b4:	afa20014 	sw	v0,20(sp)
    26b8:	8f46002c 	lw	a2,44(k0)
    26bc:	8f870120 	lw	a3,288(gp)
    26c0:	3c050009 	lui	a1,0x9
    26c4:	0c002b3b 	jal	0xacec
    26c8:	34a51100 	ori	a1,a1,0x1100
    26cc:	10000036 	b	0x27a8
    26d0:	00000000 	nop
    26d4:	8f420300 	lw	v0,768(k0)
    26d8:	8f43002c 	lw	v1,44(k0)
    26dc:	24420001 	addiu	v0,v0,1
    26e0:	af420300 	sw	v0,768(k0)
    26e4:	8f420300 	lw	v0,768(k0)
    26e8:	24020001 	li	v0,1
    26ec:	a34205c1 	sb	v0,1473(k0)
    26f0:	af430038 	sw	v1,56(k0)
    26f4:	3c010001 	lui	at,0x1
    26f8:	00370821 	addu	at,at,s7
    26fc:	a02040f1 	sb	zero,16625(at)
    2700:	3c010001 	lui	at,0x1
    2704:	00370821 	addu	at,at,s7
    2708:	a02040f0 	sb	zero,16624(at)
    270c:	10000026 	b	0x27a8
    2710:	af400034 	sw	zero,52(k0)
    2714:	934205c1 	lbu	v0,1473(k0)
    2718:	1040001d 	beqz	v0,0x2790
    271c:	00000000 	nop
    2720:	a34005c1 	sb	zero,1473(k0)
    2724:	8f820040 	lw	v0,64(gp)
    2728:	30420001 	andi	v0,v0,0x1
    272c:	14400008 	bnez	v0,0x2750
    2730:	00002021 	move	a0,zero
    2734:	8c030104 	lw	v1,260(zero)
    2738:	24020001 	li	v0,1
    273c:	50620005 	beql	v1,v0,0x2754
    2740:	24040001 	li	a0,1
    2744:	8c020264 	lw	v0,612(zero)
    2748:	10400003 	beqz	v0,0x2758
    274c:	00801021 	move	v0,a0
    2750:	24040001 	li	a0,1
    2754:	00801021 	move	v0,a0
    2758:	10400006 	beqz	v0,0x2774
    275c:	00000000 	nop
    2760:	8f42030c 	lw	v0,780(k0)
    2764:	24420001 	addiu	v0,v0,1
    2768:	af42030c 	sw	v0,780(k0)
    276c:	10000008 	b	0x2790
    2770:	8f42030c 	lw	v0,780(k0)
    2774:	8f820044 	lw	v0,68(gp)
    2778:	34420004 	ori	v0,v0,0x4
    277c:	af820044 	sw	v0,68(gp)
    2780:	8f420308 	lw	v0,776(k0)
    2784:	24420001 	addiu	v0,v0,1
    2788:	af420308 	sw	v0,776(k0)
    278c:	8f420308 	lw	v0,776(k0)
    2790:	3c010001 	lui	at,0x1
    2794:	00370821 	addu	at,at,s7
    2798:	a02040f0 	sb	zero,16624(at)
    279c:	3c010001 	lui	at,0x1
    27a0:	00370821 	addu	at,at,s7
    27a4:	a02040f1 	sb	zero,16625(at)
    27a8:	8f420000 	lw	v0,0(k0)
    27ac:	10400007 	beqz	v0,0x27cc
    27b0:	00000000 	nop
    27b4:	af80004c 	sw	zero,76(gp)
    27b8:	8f82004c 	lw	v0,76(gp)
    27bc:	1040fffd 	beqz	v0,0x27b4
    27c0:	00000000 	nop
    27c4:	10000005 	b	0x27dc
    27c8:	00000000 	nop
    27cc:	af800048 	sw	zero,72(gp)
    27d0:	8f820048 	lw	v0,72(gp)
    27d4:	1040fffd 	beqz	v0,0x27cc
    27d8:	00000000 	nop
    27dc:	8f820060 	lw	v0,96(gp)
    27e0:	3c03ff7f 	lui	v1,0xff7f
    27e4:	3463ffff 	ori	v1,v1,0xffff
    27e8:	00431024 	and	v0,v0,v1
    27ec:	af820060 	sw	v0,96(gp)
    27f0:	8f420000 	lw	v0,0(k0)
    27f4:	10400003 	beqz	v0,0x2804
    27f8:	00000000 	nop
    27fc:	10000002 	b	0x2808
    2800:	af80004c 	sw	zero,76(gp)
    2804:	af800048 	sw	zero,72(gp)
    2808:	8fbf0020 	lw	ra,32(sp)
    280c:	03e00008 	jr	ra
    2810:	27bd0028 	addiu	sp,sp,40
    2814:	03e00008 	jr	ra
    2818:	00000000 	nop
    281c:	27bdffd8 	addiu	sp,sp,-40
    2820:	afbf0020 	sw	ra,32(sp)
    2824:	8f430044 	lw	v1,68(k0)
    2828:	8f42007c 	lw	v0,124(k0)
    282c:	10620029 	beq	v1,v0,0x28d4
    2830:	24070008 	li	a3,8
    2834:	8f440168 	lw	a0,360(k0)
    2838:	8f45016c 	lw	a1,364(k0)
    283c:	8f48000c 	lw	t0,12(k0)
    2840:	8f860120 	lw	a2,288(gp)
    2844:	24020040 	li	v0,64
    2848:	afa20010 	sw	v0,16(sp)
    284c:	afa30014 	sw	v1,20(sp)
    2850:	afa80018 	sw	t0,24(sp)
    2854:	8f42010c 	lw	v0,268(k0)
    2858:	0040f809 	jalr	v0
    285c:	24c6001c 	addiu	a2,a2,28
    2860:	14400011 	bnez	v0,0x28a8
    2864:	24020001 	li	v0,1
    2868:	3c010001 	lui	at,0x1
    286c:	00370821 	addu	at,at,s7
    2870:	a02240f2 	sb	v0,16626(at)
    2874:	8f820124 	lw	v0,292(gp)
    2878:	afa20010 	sw	v0,16(sp)
    287c:	8f820128 	lw	v0,296(gp)
    2880:	3c040001 	lui	a0,0x1
    2884:	2484613c 	addiu	a0,a0,24892
    2888:	afa20014 	sw	v0,20(sp)
    288c:	8f460044 	lw	a2,68(k0)
    2890:	8f870120 	lw	a3,288(gp)
    2894:	3c050009 	lui	a1,0x9
    2898:	0c002b3b 	jal	0xacec
    289c:	34a51300 	ori	a1,a1,0x1300
    28a0:	1000000f 	b	0x28e0
    28a4:	00000000 	nop
    28a8:	8f420304 	lw	v0,772(k0)
    28ac:	24420001 	addiu	v0,v0,1
    28b0:	af420304 	sw	v0,772(k0)
    28b4:	8f420304 	lw	v0,772(k0)
    28b8:	8f420044 	lw	v0,68(k0)
    28bc:	af42007c 	sw	v0,124(k0)
    28c0:	3c010001 	lui	at,0x1
    28c4:	00370821 	addu	at,at,s7
    28c8:	a02040f2 	sb	zero,16626(at)
    28cc:	10000004 	b	0x28e0
    28d0:	af400078 	sw	zero,120(k0)
    28d4:	3c010001 	lui	at,0x1
    28d8:	00370821 	addu	at,at,s7
    28dc:	a02040f2 	sb	zero,16626(at)
    28e0:	8f420000 	lw	v0,0(k0)
    28e4:	10400007 	beqz	v0,0x2904
    28e8:	00000000 	nop
    28ec:	af80004c 	sw	zero,76(gp)
    28f0:	8f82004c 	lw	v0,76(gp)
    28f4:	1040fffd 	beqz	v0,0x28ec
    28f8:	00000000 	nop
    28fc:	10000005 	b	0x2914
    2900:	00000000 	nop
    2904:	af800048 	sw	zero,72(gp)
    2908:	8f820048 	lw	v0,72(gp)
    290c:	1040fffd 	beqz	v0,0x2904
    2910:	00000000 	nop
    2914:	8f820060 	lw	v0,96(gp)
    2918:	3c03feff 	lui	v1,0xfeff
    291c:	3463ffff 	ori	v1,v1,0xffff
    2920:	00431024 	and	v0,v0,v1
    2924:	af820060 	sw	v0,96(gp)
    2928:	8f420000 	lw	v0,0(k0)
    292c:	10400003 	beqz	v0,0x293c
    2930:	00000000 	nop
    2934:	10000002 	b	0x2940
    2938:	af80004c 	sw	zero,76(gp)
    293c:	af800048 	sw	zero,72(gp)
    2940:	8fbf0020 	lw	ra,32(sp)
    2944:	03e00008 	jr	ra
    2948:	27bd0028 	addiu	sp,sp,40
    294c:	03e00008 	jr	ra
    2950:	00000000 	nop
    2954:	3c020001 	lui	v0,0x1
    2958:	8c426da8 	lw	v0,28072(v0)
    295c:	27bdffa8 	addiu	sp,sp,-88
    2960:	afbf0050 	sw	ra,80(sp)
    2964:	afbe004c 	sw	s8,76(sp)
    2968:	afb50048 	sw	s5,72(sp)
    296c:	afb30044 	sw	s3,68(sp)
    2970:	afb20040 	sw	s2,64(sp)
    2974:	afb1003c 	sw	s1,60(sp)
    2978:	afb00038 	sw	s0,56(sp)
    297c:	104000d5 	beqz	v0,0x2cd4
    2980:	8f900044 	lw	s0,68(gp)
    2984:	8f4200d0 	lw	v0,208(k0)
    2988:	24430001 	addiu	v1,v0,1
    298c:	2842000b 	slti	v0,v0,11
    2990:	144000e4 	bnez	v0,0x2d24
    2994:	af4300d0 	sw	v1,208(k0)
    2998:	8f420004 	lw	v0,4(k0)
    299c:	30420002 	andi	v0,v0,0x2
    29a0:	1440009c 	bnez	v0,0x2c14
    29a4:	af4000d0 	sw	zero,208(k0)
    29a8:	8f420004 	lw	v0,4(k0)
    29ac:	3c030001 	lui	v1,0x1
    29b0:	8c636d98 	lw	v1,28056(v1)
    29b4:	34420002 	ori	v0,v0,0x2
    29b8:	af420004 	sw	v0,4(k0)
    29bc:	24020001 	li	v0,1
    29c0:	14620003 	bne	v1,v0,0x29d0
    29c4:	3c020600 	lui	v0,0x600
    29c8:	10000002 	b	0x29d4
    29cc:	34423000 	ori	v0,v0,0x3000
    29d0:	34421000 	ori	v0,v0,0x1000
    29d4:	afa20020 	sw	v0,32(sp)
    29d8:	8f4a0018 	lw	t2,24(k0)
    29dc:	afaa0034 	sw	t2,52(sp)
    29e0:	27aa0020 	addiu	t2,sp,32
    29e4:	afaa002c 	sw	t2,44(sp)
    29e8:	8faa0034 	lw	t2,52(sp)
    29ec:	240200ff 	li	v0,255
    29f0:	11420002 	beq	t2,v0,0x29fc
    29f4:	00001821 	move	v1,zero
    29f8:	25430001 	addiu	v1,t2,1
    29fc:	8c020228 	lw	v0,552(zero)
    2a00:	00609821 	move	s3,v1
    2a04:	1662000e 	bne	s3,v0,0x2a40
    2a08:	3c050009 	lui	a1,0x9
    2a0c:	8f42033c 	lw	v0,828(k0)
    2a10:	24420001 	addiu	v0,v0,1
    2a14:	af42033c 	sw	v0,828(k0)
    2a18:	8f42033c 	lw	v0,828(k0)
    2a1c:	8c020228 	lw	v0,552(zero)
    2a20:	8fa70034 	lw	a3,52(sp)
    2a24:	3c040001 	lui	a0,0x1
    2a28:	2484610c 	addiu	a0,a0,24844
    2a2c:	afa00014 	sw	zero,20(sp)
    2a30:	afa20010 	sw	v0,16(sp)
    2a34:	8fa60020 	lw	a2,32(sp)
    2a38:	10000070 	b	0x2bfc
    2a3c:	34a50500 	ori	a1,a1,0x500
    2a40:	8faa0034 	lw	t2,52(sp)
    2a44:	000a38c0 	sll	a3,t2,0x3
    2a48:	00f71021 	addu	v0,a3,s7
    2a4c:	8fa30020 	lw	v1,32(sp)
    2a50:	8fa40024 	lw	a0,36(sp)
    2a54:	ac4304c0 	sw	v1,1216(v0)
    2a58:	ac4404c4 	sw	a0,1220(v0)
    2a5c:	8f830054 	lw	v1,84(gp)
    2a60:	8f820054 	lw	v0,84(gp)
    2a64:	247103e8 	addiu	s1,v1,1000
    2a68:	02221023 	subu	v0,s1,v0
    2a6c:	2c4203e9 	sltiu	v0,v0,1001
    2a70:	1040001b 	beqz	v0,0x2ae0
    2a74:	0000a821 	move	s5,zero
    2a78:	00e09021 	move	s2,a3
    2a7c:	265e04c0 	addiu	s8,s2,1216
    2a80:	8f440178 	lw	a0,376(k0)
    2a84:	8f45017c 	lw	a1,380(k0)
    2a88:	02401821 	move	v1,s2
    2a8c:	240a0004 	li	t2,4
    2a90:	afaa0010 	sw	t2,16(sp)
    2a94:	afb30014 	sw	s3,20(sp)
    2a98:	8f48000c 	lw	t0,12(k0)
    2a9c:	00001021 	move	v0,zero
    2aa0:	02fe3021 	addu	a2,s7,s8
    2aa4:	afa80018 	sw	t0,24(sp)
    2aa8:	8f48010c 	lw	t0,268(k0)
    2aac:	24070008 	li	a3,8
    2ab0:	00a32821 	addu	a1,a1,v1
    2ab4:	00a3482b 	sltu	t1,a1,v1
    2ab8:	00822021 	addu	a0,a0,v0
    2abc:	0100f809 	jalr	t0
    2ac0:	00892021 	addu	a0,a0,t1
    2ac4:	54400006 	bnezl	v0,0x2ae0
    2ac8:	24150001 	li	s5,1
    2acc:	8f820054 	lw	v0,84(gp)
    2ad0:	02221023 	subu	v0,s1,v0
    2ad4:	2c4203e9 	sltiu	v0,v0,1001
    2ad8:	1440ffe9 	bnez	v0,0x2a80
    2adc:	00000000 	nop
    2ae0:	32a200ff 	andi	v0,s5,0xff
    2ae4:	54400018 	bnezl	v0,0x2b48
    2ae8:	af530018 	sw	s3,24(k0)
    2aec:	8f420378 	lw	v0,888(k0)
    2af0:	24420001 	addiu	v0,v0,1
    2af4:	af420378 	sw	v0,888(k0)
    2af8:	8f420378 	lw	v0,888(k0)
    2afc:	8f820120 	lw	v0,288(gp)
    2b00:	8faa002c 	lw	t2,44(sp)
    2b04:	8fa70034 	lw	a3,52(sp)
    2b08:	afa20010 	sw	v0,16(sp)
    2b0c:	8f820124 	lw	v0,292(gp)
    2b10:	3c040001 	lui	a0,0x1
    2b14:	24846118 	addiu	a0,a0,24856
    2b18:	afa20014 	sw	v0,20(sp)
    2b1c:	8d460000 	lw	a2,0(t2)
    2b20:	3c050009 	lui	a1,0x9
    2b24:	10000035 	b	0x2bfc
    2b28:	34a50600 	ori	a1,a1,0x600
    2b2c:	8f420308 	lw	v0,776(k0)
    2b30:	24150001 	li	s5,1
    2b34:	24420001 	addiu	v0,v0,1
    2b38:	af420308 	sw	v0,776(k0)
    2b3c:	8f420308 	lw	v0,776(k0)
    2b40:	1000001e 	b	0x2bbc
    2b44:	32a200ff 	andi	v0,s5,0xff
    2b48:	8f830054 	lw	v1,84(gp)
    2b4c:	8f820054 	lw	v0,84(gp)
    2b50:	247103e8 	addiu	s1,v1,1000
    2b54:	02221023 	subu	v0,s1,v0
    2b58:	2c4203e9 	sltiu	v0,v0,1001
    2b5c:	10400016 	beqz	v0,0x2bb8
    2b60:	0000a821 	move	s5,zero
    2b64:	3c1e0020 	lui	s8,0x20
    2b68:	24120010 	li	s2,16
    2b6c:	8f42000c 	lw	v0,12(k0)
    2b70:	8f440160 	lw	a0,352(k0)
    2b74:	8f450164 	lw	a1,356(k0)
    2b78:	8f860120 	lw	a2,288(gp)
    2b7c:	afb20010 	sw	s2,16(sp)
    2b80:	afb30014 	sw	s3,20(sp)
    2b84:	005e1025 	or	v0,v0,s8
    2b88:	afa20018 	sw	v0,24(sp)
    2b8c:	8f42010c 	lw	v0,268(k0)
    2b90:	24070008 	li	a3,8
    2b94:	0040f809 	jalr	v0
    2b98:	24c6001c 	addiu	a2,a2,28
    2b9c:	1440ffe3 	bnez	v0,0x2b2c
    2ba0:	00000000 	nop
    2ba4:	8f820054 	lw	v0,84(gp)
    2ba8:	02221023 	subu	v0,s1,v0
    2bac:	2c4203e9 	sltiu	v0,v0,1001
    2bb0:	1440ffee 	bnez	v0,0x2b6c
    2bb4:	00000000 	nop
    2bb8:	32a200ff 	andi	v0,s5,0xff
    2bbc:	14400011 	bnez	v0,0x2c04
    2bc0:	3c050009 	lui	a1,0x9
    2bc4:	8f420378 	lw	v0,888(k0)
    2bc8:	24420001 	addiu	v0,v0,1
    2bcc:	af420378 	sw	v0,888(k0)
    2bd0:	8f420378 	lw	v0,888(k0)
    2bd4:	8f820120 	lw	v0,288(gp)
    2bd8:	8faa002c 	lw	t2,44(sp)
    2bdc:	8fa70034 	lw	a3,52(sp)
    2be0:	afa20010 	sw	v0,16(sp)
    2be4:	8f820124 	lw	v0,292(gp)
    2be8:	3c040001 	lui	a0,0x1
    2bec:	24846120 	addiu	a0,a0,24864
    2bf0:	afa20014 	sw	v0,20(sp)
    2bf4:	8d460000 	lw	a2,0(t2)
    2bf8:	34a50700 	ori	a1,a1,0x700
    2bfc:	0c002b3b 	jal	0xacec
    2c00:	00000000 	nop
    2c04:	8f4202ec 	lw	v0,748(k0)
    2c08:	24420001 	addiu	v0,v0,1
    2c0c:	af4202ec 	sw	v0,748(k0)
    2c10:	8f4202ec 	lw	v0,748(k0)
    2c14:	8f420004 	lw	v0,4(k0)
    2c18:	30420001 	andi	v0,v0,0x1
    2c1c:	50400029 	beqzl	v0,0x2cc4
    2c20:	36100040 	ori	s0,s0,0x40
    2c24:	3c020400 	lui	v0,0x400
    2c28:	02c21024 	and	v0,s6,v0
    2c2c:	10400013 	beqz	v0,0x2c7c
    2c30:	2404ffdf 	li	a0,-33
    2c34:	8f420250 	lw	v0,592(k0)
    2c38:	8f430254 	lw	v1,596(k0)
    2c3c:	8f4401b4 	lw	a0,436(k0)
    2c40:	14640006 	bne	v1,a0,0x2c5c
    2c44:	36100040 	ori	s0,s0,0x40
    2c48:	8f420270 	lw	v0,624(k0)
    2c4c:	8f430274 	lw	v1,628(k0)
    2c50:	8f4401b8 	lw	a0,440(k0)
    2c54:	10640007 	beq	v1,a0,0x2c74
    2c58:	2402ffdf 	li	v0,-33
    2c5c:	8f420250 	lw	v0,592(k0)
    2c60:	8f430254 	lw	v1,596(k0)
    2c64:	8f440270 	lw	a0,624(k0)
    2c68:	8f450274 	lw	a1,628(k0)
    2c6c:	10000012 	b	0x2cb8
    2c70:	3a100020 	xori	s0,s0,0x20
    2c74:	1000002b 	b	0x2d24
    2c78:	02028024 	and	s0,s0,v0
    2c7c:	8f420250 	lw	v0,592(k0)
    2c80:	8f430254 	lw	v1,596(k0)
    2c84:	8f4501b4 	lw	a1,436(k0)
    2c88:	14650006 	bne	v1,a1,0x2ca4
    2c8c:	02048024 	and	s0,s0,a0
    2c90:	8f420270 	lw	v0,624(k0)
    2c94:	8f430274 	lw	v1,628(k0)
    2c98:	8f4401b8 	lw	a0,440(k0)
    2c9c:	50640021 	beql	v1,a0,0x2d24
    2ca0:	36100040 	ori	s0,s0,0x40
    2ca4:	8f420250 	lw	v0,592(k0)
    2ca8:	8f430254 	lw	v1,596(k0)
    2cac:	8f440270 	lw	a0,624(k0)
    2cb0:	8f450274 	lw	a1,628(k0)
    2cb4:	3a100040 	xori	s0,s0,0x40
    2cb8:	af4301b4 	sw	v1,436(k0)
    2cbc:	10000019 	b	0x2d24
    2cc0:	af4501b8 	sw	a1,440(k0)
    2cc4:	8f4200d4 	lw	v0,212(k0)
    2cc8:	24430001 	addiu	v1,v0,1
    2ccc:	10000011 	b	0x2d14
    2cd0:	28420033 	slti	v0,v0,51
    2cd4:	8f420004 	lw	v0,4(k0)
    2cd8:	30420001 	andi	v0,v0,0x1
    2cdc:	10400009 	beqz	v0,0x2d04
    2ce0:	3c020400 	lui	v0,0x400
    2ce4:	02c21024 	and	v0,s6,v0
    2ce8:	10400004 	beqz	v0,0x2cfc
    2cec:	2402ffdf 	li	v0,-33
    2cf0:	02028024 	and	s0,s0,v0
    2cf4:	1000000b 	b	0x2d24
    2cf8:	36100040 	ori	s0,s0,0x40
    2cfc:	10000009 	b	0x2d24
    2d00:	36100060 	ori	s0,s0,0x60
    2d04:	8f4200d4 	lw	v0,212(k0)
    2d08:	36100040 	ori	s0,s0,0x40
    2d0c:	24430001 	addiu	v1,v0,1
    2d10:	284201f5 	slti	v0,v0,501
    2d14:	14400003 	bnez	v0,0x2d24
    2d18:	af4300d4 	sw	v1,212(k0)
    2d1c:	af4000d4 	sw	zero,212(k0)
    2d20:	3a100020 	xori	s0,s0,0x20
    2d24:	af900044 	sw	s0,68(gp)
    2d28:	2402ff7f 	li	v0,-129
    2d2c:	0282a024 	and	s4,s4,v0
    2d30:	8fbf0050 	lw	ra,80(sp)
    2d34:	8fbe004c 	lw	s8,76(sp)
    2d38:	8fb50048 	lw	s5,72(sp)
    2d3c:	8fb30044 	lw	s3,68(sp)
    2d40:	8fb20040 	lw	s2,64(sp)
    2d44:	8fb1003c 	lw	s1,60(sp)
    2d48:	8fb00038 	lw	s0,56(sp)
    2d4c:	03e00008 	jr	ra
    2d50:	27bd0058 	addiu	sp,sp,88
    2d54:	03e00008 	jr	ra
    2d58:	00000000 	nop
    2d5c:	3c020001 	lui	v0,0x1
    2d60:	8c426da8 	lw	v0,28072(v0)
    2d64:	27bdffb0 	addiu	sp,sp,-80
    2d68:	afbf0048 	sw	ra,72(sp)
    2d6c:	afbe0044 	sw	s8,68(sp)
    2d70:	afb50040 	sw	s5,64(sp)
    2d74:	afb3003c 	sw	s3,60(sp)
    2d78:	afb20038 	sw	s2,56(sp)
    2d7c:	afb10034 	sw	s1,52(sp)
    2d80:	104000c7 	beqz	v0,0x30a0
    2d84:	afb00030 	sw	s0,48(sp)
    2d88:	8f4200d0 	lw	v0,208(k0)
    2d8c:	24430001 	addiu	v1,v0,1
    2d90:	2842000b 	slti	v0,v0,11
    2d94:	144000da 	bnez	v0,0x3100
    2d98:	af4300d0 	sw	v1,208(k0)
    2d9c:	8f420004 	lw	v0,4(k0)
    2da0:	30420002 	andi	v0,v0,0x2
    2da4:	14400097 	bnez	v0,0x3004
    2da8:	af4000d0 	sw	zero,208(k0)
    2dac:	8f420004 	lw	v0,4(k0)
    2db0:	3c030001 	lui	v1,0x1
    2db4:	8c636d98 	lw	v1,28056(v1)
    2db8:	34420002 	ori	v0,v0,0x2
    2dbc:	af420004 	sw	v0,4(k0)
    2dc0:	24020001 	li	v0,1
    2dc4:	14620003 	bne	v1,v0,0x2dd4
    2dc8:	3c020600 	lui	v0,0x600
    2dcc:	10000002 	b	0x2dd8
    2dd0:	34423000 	ori	v0,v0,0x3000
    2dd4:	34421000 	ori	v0,v0,0x1000
    2dd8:	afa20020 	sw	v0,32(sp)
    2ddc:	00001821 	move	v1,zero
    2de0:	8f5e0018 	lw	s8,24(k0)
    2de4:	27aa0020 	addiu	t2,sp,32
    2de8:	240200ff 	li	v0,255
    2dec:	13c20002 	beq	s8,v0,0x2df8
    2df0:	afaa002c 	sw	t2,44(sp)
    2df4:	27c30001 	addiu	v1,s8,1
    2df8:	8c020228 	lw	v0,552(zero)
    2dfc:	00609021 	move	s2,v1
    2e00:	1642000e 	bne	s2,v0,0x2e3c
    2e04:	001e38c0 	sll	a3,s8,0x3
    2e08:	8f42033c 	lw	v0,828(k0)
    2e0c:	24420001 	addiu	v0,v0,1
    2e10:	af42033c 	sw	v0,828(k0)
    2e14:	8f42033c 	lw	v0,828(k0)
    2e18:	8c020228 	lw	v0,552(zero)
    2e1c:	3c040001 	lui	a0,0x1
    2e20:	2484610c 	addiu	a0,a0,24844
    2e24:	3c050009 	lui	a1,0x9
    2e28:	afa00014 	sw	zero,20(sp)
    2e2c:	afa20010 	sw	v0,16(sp)
    2e30:	8fa60020 	lw	a2,32(sp)
    2e34:	1000006d 	b	0x2fec
    2e38:	34a50500 	ori	a1,a1,0x500
    2e3c:	00f71021 	addu	v0,a3,s7
    2e40:	8fa30020 	lw	v1,32(sp)
    2e44:	8fa40024 	lw	a0,36(sp)
    2e48:	ac4304c0 	sw	v1,1216(v0)
    2e4c:	ac4404c4 	sw	a0,1220(v0)
    2e50:	8f830054 	lw	v1,84(gp)
    2e54:	8f820054 	lw	v0,84(gp)
    2e58:	247003e8 	addiu	s0,v1,1000
    2e5c:	02021023 	subu	v0,s0,v0
    2e60:	2c4203e9 	sltiu	v0,v0,1001
    2e64:	1040001b 	beqz	v0,0x2ed4
    2e68:	00009821 	move	s3,zero
    2e6c:	00e08821 	move	s1,a3
    2e70:	263504c0 	addiu	s5,s1,1216
    2e74:	8f440178 	lw	a0,376(k0)
    2e78:	8f45017c 	lw	a1,380(k0)
    2e7c:	02201821 	move	v1,s1
    2e80:	240a0004 	li	t2,4
    2e84:	afaa0010 	sw	t2,16(sp)
    2e88:	afb20014 	sw	s2,20(sp)
    2e8c:	8f48000c 	lw	t0,12(k0)
    2e90:	00001021 	move	v0,zero
    2e94:	02f53021 	addu	a2,s7,s5
    2e98:	afa80018 	sw	t0,24(sp)
    2e9c:	8f48010c 	lw	t0,268(k0)
    2ea0:	24070008 	li	a3,8
    2ea4:	00a32821 	addu	a1,a1,v1
    2ea8:	00a3482b 	sltu	t1,a1,v1
    2eac:	00822021 	addu	a0,a0,v0
    2eb0:	0100f809 	jalr	t0
    2eb4:	00892021 	addu	a0,a0,t1
    2eb8:	54400006 	bnezl	v0,0x2ed4
    2ebc:	24130001 	li	s3,1
    2ec0:	8f820054 	lw	v0,84(gp)
    2ec4:	02021023 	subu	v0,s0,v0
    2ec8:	2c4203e9 	sltiu	v0,v0,1001
    2ecc:	1440ffe9 	bnez	v0,0x2e74
    2ed0:	00000000 	nop
    2ed4:	326200ff 	andi	v0,s3,0xff
    2ed8:	54400017 	bnezl	v0,0x2f38
    2edc:	af520018 	sw	s2,24(k0)
    2ee0:	8f420378 	lw	v0,888(k0)
    2ee4:	24420001 	addiu	v0,v0,1
    2ee8:	af420378 	sw	v0,888(k0)
    2eec:	8f420378 	lw	v0,888(k0)
    2ef0:	8f820120 	lw	v0,288(gp)
    2ef4:	8faa002c 	lw	t2,44(sp)
    2ef8:	afa20010 	sw	v0,16(sp)
    2efc:	8f820124 	lw	v0,292(gp)
    2f00:	3c040001 	lui	a0,0x1
    2f04:	24846118 	addiu	a0,a0,24856
    2f08:	3c050009 	lui	a1,0x9
    2f0c:	afa20014 	sw	v0,20(sp)
    2f10:	8d460000 	lw	a2,0(t2)
    2f14:	10000035 	b	0x2fec
    2f18:	34a50600 	ori	a1,a1,0x600
    2f1c:	8f420308 	lw	v0,776(k0)
    2f20:	24130001 	li	s3,1
    2f24:	24420001 	addiu	v0,v0,1
    2f28:	af420308 	sw	v0,776(k0)
    2f2c:	8f420308 	lw	v0,776(k0)
    2f30:	1000001e 	b	0x2fac
    2f34:	326200ff 	andi	v0,s3,0xff
    2f38:	8f830054 	lw	v1,84(gp)
    2f3c:	8f820054 	lw	v0,84(gp)
    2f40:	247003e8 	addiu	s0,v1,1000
    2f44:	02021023 	subu	v0,s0,v0
    2f48:	2c4203e9 	sltiu	v0,v0,1001
    2f4c:	10400016 	beqz	v0,0x2fa8
    2f50:	00009821 	move	s3,zero
    2f54:	3c150020 	lui	s5,0x20
    2f58:	24110010 	li	s1,16
    2f5c:	8f42000c 	lw	v0,12(k0)
    2f60:	8f440160 	lw	a0,352(k0)
    2f64:	8f450164 	lw	a1,356(k0)
    2f68:	8f860120 	lw	a2,288(gp)
    2f6c:	afb10010 	sw	s1,16(sp)
    2f70:	afb20014 	sw	s2,20(sp)
    2f74:	00551025 	or	v0,v0,s5
    2f78:	afa20018 	sw	v0,24(sp)
    2f7c:	8f42010c 	lw	v0,268(k0)
    2f80:	24070008 	li	a3,8
    2f84:	0040f809 	jalr	v0
    2f88:	24c6001c 	addiu	a2,a2,28
    2f8c:	1440ffe3 	bnez	v0,0x2f1c
    2f90:	00000000 	nop
    2f94:	8f820054 	lw	v0,84(gp)
    2f98:	02021023 	subu	v0,s0,v0
    2f9c:	2c4203e9 	sltiu	v0,v0,1001
    2fa0:	1440ffee 	bnez	v0,0x2f5c
    2fa4:	00000000 	nop
    2fa8:	326200ff 	andi	v0,s3,0xff
    2fac:	14400011 	bnez	v0,0x2ff4
    2fb0:	00000000 	nop
    2fb4:	8f420378 	lw	v0,888(k0)
    2fb8:	24420001 	addiu	v0,v0,1
    2fbc:	af420378 	sw	v0,888(k0)
    2fc0:	8f420378 	lw	v0,888(k0)
    2fc4:	8f820120 	lw	v0,288(gp)
    2fc8:	8faa002c 	lw	t2,44(sp)
    2fcc:	afa20010 	sw	v0,16(sp)
    2fd0:	8f820124 	lw	v0,292(gp)
    2fd4:	3c040001 	lui	a0,0x1
    2fd8:	24846120 	addiu	a0,a0,24864
    2fdc:	3c050009 	lui	a1,0x9
    2fe0:	afa20014 	sw	v0,20(sp)
    2fe4:	8d460000 	lw	a2,0(t2)
    2fe8:	34a50700 	ori	a1,a1,0x700
    2fec:	0c002b3b 	jal	0xacec
    2ff0:	03c03821 	move	a3,s8
    2ff4:	8f4202ec 	lw	v0,748(k0)
    2ff8:	24420001 	addiu	v0,v0,1
    2ffc:	af4202ec 	sw	v0,748(k0)
    3000:	8f4202ec 	lw	v0,748(k0)
    3004:	8f420004 	lw	v0,4(k0)
    3008:	30420001 	andi	v0,v0,0x1
    300c:	10400018 	beqz	v0,0x3070
    3010:	24040001 	li	a0,1
    3014:	8f420250 	lw	v0,592(k0)
    3018:	8f430254 	lw	v1,596(k0)
    301c:	8f4501b4 	lw	a1,436(k0)
    3020:	3c010001 	lui	at,0x1
    3024:	14650006 	bne	v1,a1,0x3040
    3028:	a0246cf1 	sb	a0,27889(at)
    302c:	8f420270 	lw	v0,624(k0)
    3030:	8f430274 	lw	v1,628(k0)
    3034:	8f4401b8 	lw	a0,440(k0)
    3038:	10640021 	beq	v1,a0,0x30c0
    303c:	00000000 	nop
    3040:	8f420250 	lw	v0,592(k0)
    3044:	8f430254 	lw	v1,596(k0)
    3048:	3c040001 	lui	a0,0x1
    304c:	90846cf0 	lbu	a0,27888(a0)
    3050:	8f460270 	lw	a2,624(k0)
    3054:	8f470274 	lw	a3,628(k0)
    3058:	38840001 	xori	a0,a0,0x1
    305c:	af4301b4 	sw	v1,436(k0)
    3060:	af4701b8 	sw	a3,440(k0)
    3064:	3c010001 	lui	at,0x1
    3068:	10000025 	b	0x3100
    306c:	a0246cf0 	sb	a0,27888(at)
    3070:	8f4200d4 	lw	v0,212(k0)
    3074:	3c010001 	lui	at,0x1
    3078:	a0206cf0 	sb	zero,27888(at)
    307c:	24430001 	addiu	v1,v0,1
    3080:	28420033 	slti	v0,v0,51
    3084:	1440001e 	bnez	v0,0x3100
    3088:	af4300d4 	sw	v1,212(k0)
    308c:	3c020001 	lui	v0,0x1
    3090:	90426cf1 	lbu	v0,27889(v0)
    3094:	af4000d4 	sw	zero,212(k0)
    3098:	10000017 	b	0x30f8
    309c:	38420001 	xori	v0,v0,0x1
    30a0:	8f420004 	lw	v0,4(k0)
    30a4:	30420001 	andi	v0,v0,0x1
    30a8:	10400008 	beqz	v0,0x30cc
    30ac:	00000000 	nop
    30b0:	0c00565a 	jal	0x15968
    30b4:	00002021 	move	a0,zero
    30b8:	3c010001 	lui	at,0x1
    30bc:	a0206cf1 	sb	zero,27889(at)
    30c0:	3c010001 	lui	at,0x1
    30c4:	1000000e 	b	0x3100
    30c8:	a0206cf0 	sb	zero,27888(at)
    30cc:	8f4200d4 	lw	v0,212(k0)
    30d0:	3c010001 	lui	at,0x1
    30d4:	a0206cf0 	sb	zero,27888(at)
    30d8:	24430001 	addiu	v1,v0,1
    30dc:	284201f5 	slti	v0,v0,501
    30e0:	14400007 	bnez	v0,0x3100
    30e4:	af4300d4 	sw	v1,212(k0)
    30e8:	3c020001 	lui	v0,0x1
    30ec:	90426cf1 	lbu	v0,27889(v0)
    30f0:	af4000d4 	sw	zero,212(k0)
    30f4:	00421026 	xor	v0,v0,v0
    30f8:	3c010001 	lui	at,0x1
    30fc:	a0226cf1 	sb	v0,27889(at)
    3100:	3c030001 	lui	v1,0x1
    3104:	8c636d98 	lw	v1,28056(v1)
    3108:	24020002 	li	v0,2
    310c:	1462000c 	bne	v1,v0,0x3140
    3110:	3c030002 	lui	v1,0x2
    3114:	3c030001 	lui	v1,0x1
    3118:	90636cf1 	lbu	v1,27889(v1)
    311c:	24020001 	li	v0,1
    3120:	5462001f 	bnel	v1,v0,0x31a0
    3124:	00002021 	move	a0,zero
    3128:	3c020001 	lui	v0,0x1
    312c:	90426cf0 	lbu	v0,27888(v0)
    3130:	1443001b 	bne	v0,v1,0x31a0
    3134:	24040005 	li	a0,5
    3138:	10000019 	b	0x31a0
    313c:	24040006 	li	a0,6
    3140:	3c020002 	lui	v0,0x2
    3144:	8c428ff4 	lw	v0,-28684(v0)
    3148:	00431024 	and	v0,v0,v1
    314c:	1040000b 	beqz	v0,0x317c
    3150:	24020001 	li	v0,1
    3154:	3c030001 	lui	v1,0x1
    3158:	90636cf1 	lbu	v1,27889(v1)
    315c:	54620010 	bnel	v1,v0,0x31a0
    3160:	00002021 	move	a0,zero
    3164:	3c020001 	lui	v0,0x1
    3168:	90426cf0 	lbu	v0,27888(v0)
    316c:	1443000c 	bne	v0,v1,0x31a0
    3170:	24040003 	li	a0,3
    3174:	1000000a 	b	0x31a0
    3178:	24040004 	li	a0,4
    317c:	3c030001 	lui	v1,0x1
    3180:	90636cf1 	lbu	v1,27889(v1)
    3184:	14620006 	bne	v1,v0,0x31a0
    3188:	00002021 	move	a0,zero
    318c:	3c020001 	lui	v0,0x1
    3190:	90426cf0 	lbu	v0,27888(v0)
    3194:	24040001 	li	a0,1
    3198:	50440001 	beql	v0,a0,0x31a0
    319c:	24040002 	li	a0,2
    31a0:	0c00565a 	jal	0x15968
    31a4:	00000000 	nop
    31a8:	2402ff7f 	li	v0,-129
    31ac:	0282a024 	and	s4,s4,v0
    31b0:	8fbf0048 	lw	ra,72(sp)
    31b4:	8fbe0044 	lw	s8,68(sp)
    31b8:	8fb50040 	lw	s5,64(sp)
    31bc:	8fb3003c 	lw	s3,60(sp)
    31c0:	8fb20038 	lw	s2,56(sp)
    31c4:	8fb10034 	lw	s1,52(sp)
    31c8:	8fb00030 	lw	s0,48(sp)
    31cc:	03e00008 	jr	ra
    31d0:	27bd0050 	addiu	sp,sp,80
    31d4:	03e00008 	jr	ra
    31d8:	00000000 	nop
    31dc:	3c020001 	lui	v0,0x1
    31e0:	8c426da8 	lw	v0,28072(v0)
    31e4:	27bdffb0 	addiu	sp,sp,-80
    31e8:	afbf0048 	sw	ra,72(sp)
    31ec:	afbe0044 	sw	s8,68(sp)
    31f0:	afb50040 	sw	s5,64(sp)
    31f4:	afb3003c 	sw	s3,60(sp)
    31f8:	afb20038 	sw	s2,56(sp)
    31fc:	afb10034 	sw	s1,52(sp)
    3200:	104000de 	beqz	v0,0x357c
    3204:	afb00030 	sw	s0,48(sp)
    3208:	8f4200d0 	lw	v0,208(k0)
    320c:	3c040001 	lui	a0,0x1
    3210:	8c846d98 	lw	a0,28056(a0)
    3214:	24430001 	addiu	v1,v0,1
    3218:	2842000b 	slti	v0,v0,11
    321c:	af4400e8 	sw	a0,232(k0)
    3220:	144000fe 	bnez	v0,0x361c
    3224:	af4300d0 	sw	v1,208(k0)
    3228:	8f420004 	lw	v0,4(k0)
    322c:	30420002 	andi	v0,v0,0x2
    3230:	14400095 	bnez	v0,0x3488
    3234:	af4000d0 	sw	zero,208(k0)
    3238:	8f420004 	lw	v0,4(k0)
    323c:	34420002 	ori	v0,v0,0x2
    3240:	af420004 	sw	v0,4(k0)
    3244:	24020001 	li	v0,1
    3248:	14820003 	bne	a0,v0,0x3258
    324c:	3c020600 	lui	v0,0x600
    3250:	10000002 	b	0x325c
    3254:	34423000 	ori	v0,v0,0x3000
    3258:	34421000 	ori	v0,v0,0x1000
    325c:	afa20020 	sw	v0,32(sp)
    3260:	00001821 	move	v1,zero
    3264:	8f5e0018 	lw	s8,24(k0)
    3268:	27aa0020 	addiu	t2,sp,32
    326c:	240200ff 	li	v0,255
    3270:	13c20002 	beq	s8,v0,0x327c
    3274:	afaa002c 	sw	t2,44(sp)
    3278:	27c30001 	addiu	v1,s8,1
    327c:	8c020228 	lw	v0,552(zero)
    3280:	00609021 	move	s2,v1
    3284:	1642000e 	bne	s2,v0,0x32c0
    3288:	001e38c0 	sll	a3,s8,0x3
    328c:	8f42033c 	lw	v0,828(k0)
    3290:	24420001 	addiu	v0,v0,1
    3294:	af42033c 	sw	v0,828(k0)
    3298:	8f42033c 	lw	v0,828(k0)
    329c:	8c020228 	lw	v0,552(zero)
    32a0:	3c040001 	lui	a0,0x1
    32a4:	2484610c 	addiu	a0,a0,24844
    32a8:	3c050009 	lui	a1,0x9
    32ac:	afa00014 	sw	zero,20(sp)
    32b0:	afa20010 	sw	v0,16(sp)
    32b4:	8fa60020 	lw	a2,32(sp)
    32b8:	1000006d 	b	0x3470
    32bc:	34a50500 	ori	a1,a1,0x500
    32c0:	00f71021 	addu	v0,a3,s7
    32c4:	8fa30020 	lw	v1,32(sp)
    32c8:	8fa40024 	lw	a0,36(sp)
    32cc:	ac4304c0 	sw	v1,1216(v0)
    32d0:	ac4404c4 	sw	a0,1220(v0)
    32d4:	8f830054 	lw	v1,84(gp)
    32d8:	8f820054 	lw	v0,84(gp)
    32dc:	247003e8 	addiu	s0,v1,1000
    32e0:	02021023 	subu	v0,s0,v0
    32e4:	2c4203e9 	sltiu	v0,v0,1001
    32e8:	1040001b 	beqz	v0,0x3358
    32ec:	00009821 	move	s3,zero
    32f0:	00e08821 	move	s1,a3
    32f4:	263504c0 	addiu	s5,s1,1216
    32f8:	8f440178 	lw	a0,376(k0)
    32fc:	8f45017c 	lw	a1,380(k0)
    3300:	02201821 	move	v1,s1
    3304:	240a0004 	li	t2,4
    3308:	afaa0010 	sw	t2,16(sp)
    330c:	afb20014 	sw	s2,20(sp)
    3310:	8f48000c 	lw	t0,12(k0)
    3314:	00001021 	move	v0,zero
    3318:	02f53021 	addu	a2,s7,s5
    331c:	afa80018 	sw	t0,24(sp)
    3320:	8f48010c 	lw	t0,268(k0)
    3324:	24070008 	li	a3,8
    3328:	00a32821 	addu	a1,a1,v1
    332c:	00a3482b 	sltu	t1,a1,v1
    3330:	00822021 	addu	a0,a0,v0
    3334:	0100f809 	jalr	t0
    3338:	00892021 	addu	a0,a0,t1
    333c:	54400006 	bnezl	v0,0x3358
    3340:	24130001 	li	s3,1
    3344:	8f820054 	lw	v0,84(gp)
    3348:	02021023 	subu	v0,s0,v0
    334c:	2c4203e9 	sltiu	v0,v0,1001
    3350:	1440ffe9 	bnez	v0,0x32f8
    3354:	00000000 	nop
    3358:	326200ff 	andi	v0,s3,0xff
    335c:	54400017 	bnezl	v0,0x33bc
    3360:	af520018 	sw	s2,24(k0)
    3364:	8f420378 	lw	v0,888(k0)
    3368:	24420001 	addiu	v0,v0,1
    336c:	af420378 	sw	v0,888(k0)
    3370:	8f420378 	lw	v0,888(k0)
    3374:	8f820120 	lw	v0,288(gp)
    3378:	8faa002c 	lw	t2,44(sp)
    337c:	afa20010 	sw	v0,16(sp)
    3380:	8f820124 	lw	v0,292(gp)
    3384:	3c040001 	lui	a0,0x1
    3388:	24846118 	addiu	a0,a0,24856
    338c:	3c050009 	lui	a1,0x9
    3390:	afa20014 	sw	v0,20(sp)
    3394:	8d460000 	lw	a2,0(t2)
    3398:	10000035 	b	0x3470
    339c:	34a50600 	ori	a1,a1,0x600
    33a0:	8f420308 	lw	v0,776(k0)
    33a4:	24130001 	li	s3,1
    33a8:	24420001 	addiu	v0,v0,1
    33ac:	af420308 	sw	v0,776(k0)
    33b0:	8f420308 	lw	v0,776(k0)
    33b4:	1000001e 	b	0x3430
    33b8:	326200ff 	andi	v0,s3,0xff
    33bc:	8f830054 	lw	v1,84(gp)
    33c0:	8f820054 	lw	v0,84(gp)
    33c4:	247003e8 	addiu	s0,v1,1000
    33c8:	02021023 	subu	v0,s0,v0
    33cc:	2c4203e9 	sltiu	v0,v0,1001
    33d0:	10400016 	beqz	v0,0x342c
    33d4:	00009821 	move	s3,zero
    33d8:	3c150020 	lui	s5,0x20
    33dc:	24110010 	li	s1,16
    33e0:	8f42000c 	lw	v0,12(k0)
    33e4:	8f440160 	lw	a0,352(k0)
    33e8:	8f450164 	lw	a1,356(k0)
    33ec:	8f860120 	lw	a2,288(gp)
    33f0:	afb10010 	sw	s1,16(sp)
    33f4:	afb20014 	sw	s2,20(sp)
    33f8:	00551025 	or	v0,v0,s5
    33fc:	afa20018 	sw	v0,24(sp)
    3400:	8f42010c 	lw	v0,268(k0)
    3404:	24070008 	li	a3,8
    3408:	0040f809 	jalr	v0
    340c:	24c6001c 	addiu	a2,a2,28
    3410:	1440ffe3 	bnez	v0,0x33a0
    3414:	00000000 	nop
    3418:	8f820054 	lw	v0,84(gp)
    341c:	02021023 	subu	v0,s0,v0
    3420:	2c4203e9 	sltiu	v0,v0,1001
    3424:	1440ffee 	bnez	v0,0x33e0
    3428:	00000000 	nop
    342c:	326200ff 	andi	v0,s3,0xff
    3430:	14400011 	bnez	v0,0x3478
    3434:	00000000 	nop
    3438:	8f420378 	lw	v0,888(k0)
    343c:	24420001 	addiu	v0,v0,1
    3440:	af420378 	sw	v0,888(k0)
    3444:	8f420378 	lw	v0,888(k0)
    3448:	8f820120 	lw	v0,288(gp)
    344c:	8faa002c 	lw	t2,44(sp)
    3450:	afa20010 	sw	v0,16(sp)
    3454:	8f820124 	lw	v0,292(gp)
    3458:	3c040001 	lui	a0,0x1
    345c:	24846120 	addiu	a0,a0,24864
    3460:	3c050009 	lui	a1,0x9
    3464:	afa20014 	sw	v0,20(sp)
    3468:	8d460000 	lw	a2,0(t2)
    346c:	34a50700 	ori	a1,a1,0x700
    3470:	0c002b3b 	jal	0xacec
    3474:	03c03821 	move	a3,s8
    3478:	8f4202ec 	lw	v0,748(k0)
    347c:	24420001 	addiu	v0,v0,1
    3480:	af4202ec 	sw	v0,748(k0)
    3484:	8f4202ec 	lw	v0,748(k0)
    3488:	8f420004 	lw	v0,4(k0)
    348c:	30420001 	andi	v0,v0,0x1
    3490:	10400033 	beqz	v0,0x3560
    3494:	3c020400 	lui	v0,0x400
    3498:	02c21024 	and	v0,s6,v0
    349c:	10400017 	beqz	v0,0x34fc
    34a0:	00000000 	nop
    34a4:	934205c0 	lbu	v0,1472(k0)
    34a8:	8f440250 	lw	a0,592(k0)
    34ac:	8f450254 	lw	a1,596(k0)
    34b0:	8f4301b4 	lw	v1,436(k0)
    34b4:	34420020 	ori	v0,v0,0x20
    34b8:	14a30006 	bne	a1,v1,0x34d4
    34bc:	a34205c0 	sb	v0,1472(k0)
    34c0:	8f420270 	lw	v0,624(k0)
    34c4:	8f430274 	lw	v1,628(k0)
    34c8:	8f4401b8 	lw	a0,440(k0)
    34cc:	10640008 	beq	v1,a0,0x34f0
    34d0:	00000000 	nop
    34d4:	8f420250 	lw	v0,592(k0)
    34d8:	8f430254 	lw	v1,596(k0)
    34dc:	934405c0 	lbu	a0,1472(k0)
    34e0:	8f460270 	lw	a2,624(k0)
    34e4:	8f470274 	lw	a3,628(k0)
    34e8:	10000016 	b	0x3544
    34ec:	38840040 	xori	a0,a0,0x40
    34f0:	934205c0 	lbu	v0,1472(k0)
    34f4:	10000048 	b	0x3618
    34f8:	304200bf 	andi	v0,v0,0xbf
    34fc:	934205c0 	lbu	v0,1472(k0)
    3500:	8f440250 	lw	a0,592(k0)
    3504:	8f450254 	lw	a1,596(k0)
    3508:	8f4301b4 	lw	v1,436(k0)
    350c:	304200bf 	andi	v0,v0,0xbf
    3510:	14a30006 	bne	a1,v1,0x352c
    3514:	a34205c0 	sb	v0,1472(k0)
    3518:	8f420270 	lw	v0,624(k0)
    351c:	8f430274 	lw	v1,628(k0)
    3520:	8f4401b8 	lw	a0,440(k0)
    3524:	1064000b 	beq	v1,a0,0x3554
    3528:	00000000 	nop
    352c:	8f420250 	lw	v0,592(k0)
    3530:	8f430254 	lw	v1,596(k0)
    3534:	934405c0 	lbu	a0,1472(k0)
    3538:	8f460270 	lw	a2,624(k0)
    353c:	8f470274 	lw	a3,628(k0)
    3540:	38840020 	xori	a0,a0,0x20
    3544:	af4301b4 	sw	v1,436(k0)
    3548:	af4701b8 	sw	a3,440(k0)
    354c:	10000033 	b	0x361c
    3550:	a34405c0 	sb	a0,1472(k0)
    3554:	934205c0 	lbu	v0,1472(k0)
    3558:	1000002f 	b	0x3618
    355c:	34420020 	ori	v0,v0,0x20
    3560:	934205c0 	lbu	v0,1472(k0)
    3564:	8f4300d4 	lw	v1,212(k0)
    3568:	34420020 	ori	v0,v0,0x20
    356c:	a34205c0 	sb	v0,1472(k0)
    3570:	24620001 	addiu	v0,v1,1
    3574:	10000023 	b	0x3604
    3578:	28630033 	slti	v1,v1,51
    357c:	8f4200e4 	lw	v0,228(k0)
    3580:	8f4300e0 	lw	v1,224(k0)
    3584:	24420001 	addiu	v0,v0,1
    3588:	af4200e4 	sw	v0,228(k0)
    358c:	0043102a 	slt	v0,v0,v1
    3590:	14400006 	bnez	v0,0x35ac
    3594:	24030001 	li	v1,1
    3598:	8f4200e8 	lw	v0,232(k0)
    359c:	14430002 	bne	v0,v1,0x35a8
    35a0:	af4000e4 	sw	zero,228(k0)
    35a4:	24030004 	li	v1,4
    35a8:	af4300e8 	sw	v1,232(k0)
    35ac:	8f420004 	lw	v0,4(k0)
    35b0:	30420001 	andi	v0,v0,0x1
    35b4:	1040000d 	beqz	v0,0x35ec
    35b8:	3c020400 	lui	v0,0x400
    35bc:	02c21024 	and	v0,s6,v0
    35c0:	10400007 	beqz	v0,0x35e0
    35c4:	00000000 	nop
    35c8:	934205c0 	lbu	v0,1472(k0)
    35cc:	34420040 	ori	v0,v0,0x40
    35d0:	a34205c0 	sb	v0,1472(k0)
    35d4:	934205c0 	lbu	v0,1472(k0)
    35d8:	1000000f 	b	0x3618
    35dc:	304200df 	andi	v0,v0,0xdf
    35e0:	934205c0 	lbu	v0,1472(k0)
    35e4:	1000000c 	b	0x3618
    35e8:	34420060 	ori	v0,v0,0x60
    35ec:	934205c0 	lbu	v0,1472(k0)
    35f0:	8f4300d4 	lw	v1,212(k0)
    35f4:	34420020 	ori	v0,v0,0x20
    35f8:	a34205c0 	sb	v0,1472(k0)
    35fc:	24620001 	addiu	v0,v1,1
    3600:	286300fb 	slti	v1,v1,251
    3604:	14600005 	bnez	v1,0x361c
    3608:	af4200d4 	sw	v0,212(k0)
    360c:	934205c0 	lbu	v0,1472(k0)
    3610:	af4000d4 	sw	zero,212(k0)
    3614:	38420040 	xori	v0,v0,0x40
    3618:	a34205c0 	sb	v0,1472(k0)
    361c:	934205c0 	lbu	v0,1472(k0)
    3620:	8f4300e8 	lw	v1,232(k0)
    3624:	3042007f 	andi	v0,v0,0x7f
    3628:	a34205c0 	sb	v0,1472(k0)
    362c:	24020001 	li	v0,1
    3630:	14620005 	bne	v1,v0,0x3648
    3634:	00000000 	nop
    3638:	934405c0 	lbu	a0,1472(k0)
    363c:	00042102 	srl	a0,a0,0x4
    3640:	10000003 	b	0x3650
    3644:	348400f0 	ori	a0,a0,0xf0
    3648:	934405c0 	lbu	a0,1472(k0)
    364c:	3484000f 	ori	a0,a0,0xf
    3650:	0c005640 	jal	0x15900
    3654:	00000000 	nop
    3658:	2402ff7f 	li	v0,-129
    365c:	0282a024 	and	s4,s4,v0
    3660:	8fbf0048 	lw	ra,72(sp)
    3664:	8fbe0044 	lw	s8,68(sp)
    3668:	8fb50040 	lw	s5,64(sp)
    366c:	8fb3003c 	lw	s3,60(sp)
    3670:	8fb20038 	lw	s2,56(sp)
    3674:	8fb10034 	lw	s1,52(sp)
    3678:	8fb00030 	lw	s0,48(sp)
    367c:	03e00008 	jr	ra
    3680:	27bd0050 	addiu	sp,sp,80
    3684:	03e00008 	jr	ra
    3688:	00000000 	nop
    368c:	27bdffb0 	addiu	sp,sp,-80
    3690:	274401c0 	addiu	a0,k0,448
    3694:	26e30028 	addiu	v1,s7,40
    3698:	24650400 	addiu	a1,v1,1024
    369c:	0065102b 	sltu	v0,v1,a1
    36a0:	afbf0048 	sw	ra,72(sp)
    36a4:	afbe0044 	sw	s8,68(sp)
    36a8:	afb50040 	sw	s5,64(sp)
    36ac:	afb3003c 	sw	s3,60(sp)
    36b0:	afb20038 	sw	s2,56(sp)
    36b4:	afb10034 	sw	s1,52(sp)
    36b8:	10400007 	beqz	v0,0x36d8
    36bc:	afb00030 	sw	s0,48(sp)
    36c0:	8c820000 	lw	v0,0(a0)
    36c4:	ac620000 	sw	v0,0(v1)
    36c8:	24630004 	addiu	v1,v1,4
    36cc:	0065102b 	sltu	v0,v1,a1
    36d0:	1440fffb 	bnez	v0,0x36c0
    36d4:	24840004 	addiu	a0,a0,4
    36d8:	8c020080 	lw	v0,128(zero)
    36dc:	aee20044 	sw	v0,68(s7)
    36e0:	8c0200c0 	lw	v0,192(zero)
    36e4:	aee20040 	sw	v0,64(s7)
    36e8:	8c020084 	lw	v0,132(zero)
    36ec:	aee20030 	sw	v0,48(s7)
    36f0:	8c020084 	lw	v0,132(zero)
    36f4:	aee2023c 	sw	v0,572(s7)
    36f8:	8c020088 	lw	v0,136(zero)
    36fc:	aee20240 	sw	v0,576(s7)
    3700:	8c02008c 	lw	v0,140(zero)
    3704:	aee20244 	sw	v0,580(s7)
    3708:	8c020090 	lw	v0,144(zero)
    370c:	aee20248 	sw	v0,584(s7)
    3710:	8c020094 	lw	v0,148(zero)
    3714:	aee2024c 	sw	v0,588(s7)
    3718:	8c020098 	lw	v0,152(zero)
    371c:	aee20250 	sw	v0,592(s7)
    3720:	8c02009c 	lw	v0,156(zero)
    3724:	aee20254 	sw	v0,596(s7)
    3728:	8c0200a0 	lw	v0,160(zero)
    372c:	aee20258 	sw	v0,600(s7)
    3730:	8c0200a4 	lw	v0,164(zero)
    3734:	aee2025c 	sw	v0,604(s7)
    3738:	8c0200a8 	lw	v0,168(zero)
    373c:	aee20260 	sw	v0,608(s7)
    3740:	8c0200ac 	lw	v0,172(zero)
    3744:	aee20264 	sw	v0,612(s7)
    3748:	8c0200b0 	lw	v0,176(zero)
    374c:	aee20268 	sw	v0,616(s7)
    3750:	8c0200b4 	lw	v0,180(zero)
    3754:	aee2026c 	sw	v0,620(s7)
    3758:	8c0200b8 	lw	v0,184(zero)
    375c:	aee20270 	sw	v0,624(s7)
    3760:	8c0200bc 	lw	v0,188(zero)
    3764:	24040001 	li	a0,1
    3768:	aee20274 	sw	v0,628(s7)
    376c:	aee00034 	sw	zero,52(s7)
    3770:	00041080 	sll	v0,a0,0x2
    3774:	00571021 	addu	v0,v0,s7
    3778:	8ee30034 	lw	v1,52(s7)
    377c:	8c42023c 	lw	v0,572(v0)
    3780:	24840001 	addiu	a0,a0,1
    3784:	00621821 	addu	v1,v1,v0
    3788:	2c82000f 	sltiu	v0,a0,15
    378c:	aee30034 	sw	v1,52(s7)
    3790:	1440fff8 	bnez	v0,0x3774
    3794:	00041080 	sll	v0,a0,0x2
    3798:	8c0200cc 	lw	v0,204(zero)
    379c:	aee20048 	sw	v0,72(s7)
    37a0:	8c0200d0 	lw	v0,208(zero)
    37a4:	aee2004c 	sw	v0,76(s7)
    37a8:	8c0200e0 	lw	v0,224(zero)
    37ac:	aee201f8 	sw	v0,504(s7)
    37b0:	8c0200e4 	lw	v0,228(zero)
    37b4:	aee201fc 	sw	v0,508(s7)
    37b8:	8c0200e8 	lw	v0,232(zero)
    37bc:	aee20200 	sw	v0,512(s7)
    37c0:	8c0200ec 	lw	v0,236(zero)
    37c4:	aee20204 	sw	v0,516(s7)
    37c8:	8c0200f0 	lw	v0,240(zero)
    37cc:	aee20208 	sw	v0,520(s7)
    37d0:	8ee400c0 	lw	a0,192(s7)
    37d4:	8ee500c4 	lw	a1,196(s7)
    37d8:	8c0200fc 	lw	v0,252(zero)
    37dc:	0045102b 	sltu	v0,v0,a1
    37e0:	1040000b 	beqz	v0,0x3810
    37e4:	00000000 	nop
    37e8:	8ee200c0 	lw	v0,192(s7)
    37ec:	8ee300c4 	lw	v1,196(s7)
    37f0:	24040001 	li	a0,1
    37f4:	24050000 	li	a1,0
    37f8:	00651821 	addu	v1,v1,a1
    37fc:	0065302b 	sltu	a2,v1,a1
    3800:	00441021 	addu	v0,v0,a0
    3804:	00461021 	addu	v0,v0,a2
    3808:	aee200c0 	sw	v0,192(s7)
    380c:	aee300c4 	sw	v1,196(s7)
    3810:	8c0200fc 	lw	v0,252(zero)
    3814:	8ee400c0 	lw	a0,192(s7)
    3818:	8ee500c4 	lw	a1,196(s7)
    381c:	2408ffff 	li	t0,-1
    3820:	24090000 	li	t1,0
    3824:	00401821 	move	v1,v0
    3828:	00001021 	move	v0,zero
    382c:	00882024 	and	a0,a0,t0
    3830:	00a92824 	and	a1,a1,t1
    3834:	00822025 	or	a0,a0,v0
    3838:	00a32825 	or	a1,a1,v1
    383c:	aee400c0 	sw	a0,192(s7)
    3840:	aee500c4 	sw	a1,196(s7)
    3844:	8ee400d0 	lw	a0,208(s7)
    3848:	8ee500d4 	lw	a1,212(s7)
    384c:	8c0200f4 	lw	v0,244(zero)
    3850:	0045102b 	sltu	v0,v0,a1
    3854:	1040000b 	beqz	v0,0x3884
    3858:	00000000 	nop
    385c:	8ee200d0 	lw	v0,208(s7)
    3860:	8ee300d4 	lw	v1,212(s7)
    3864:	24040001 	li	a0,1
    3868:	24050000 	li	a1,0
    386c:	00651821 	addu	v1,v1,a1
    3870:	0065302b 	sltu	a2,v1,a1
    3874:	00441021 	addu	v0,v0,a0
    3878:	00461021 	addu	v0,v0,a2
    387c:	aee200d0 	sw	v0,208(s7)
    3880:	aee300d4 	sw	v1,212(s7)
    3884:	8c0200f4 	lw	v0,244(zero)
    3888:	8ee400d0 	lw	a0,208(s7)
    388c:	8ee500d4 	lw	a1,212(s7)
    3890:	00401821 	move	v1,v0
    3894:	00001021 	move	v0,zero
    3898:	00882024 	and	a0,a0,t0
    389c:	00a92824 	and	a1,a1,t1
    38a0:	00822025 	or	a0,a0,v0
    38a4:	00a32825 	or	a1,a1,v1
    38a8:	aee400d0 	sw	a0,208(s7)
    38ac:	aee500d4 	sw	a1,212(s7)
    38b0:	8ee400c8 	lw	a0,200(s7)
    38b4:	8ee500cc 	lw	a1,204(s7)
    38b8:	8c0200f8 	lw	v0,248(zero)
    38bc:	0045102b 	sltu	v0,v0,a1
    38c0:	1040000b 	beqz	v0,0x38f0
    38c4:	00000000 	nop
    38c8:	8ee200c8 	lw	v0,200(s7)
    38cc:	8ee300cc 	lw	v1,204(s7)
    38d0:	24040001 	li	a0,1
    38d4:	24050000 	li	a1,0
    38d8:	00651821 	addu	v1,v1,a1
    38dc:	0065302b 	sltu	a2,v1,a1
    38e0:	00441021 	addu	v0,v0,a0
    38e4:	00461021 	addu	v0,v0,a2
    38e8:	aee200c8 	sw	v0,200(s7)
    38ec:	aee300cc 	sw	v1,204(s7)
    38f0:	8c0200f8 	lw	v0,248(zero)
    38f4:	8ee400c8 	lw	a0,200(s7)
    38f8:	8ee500cc 	lw	a1,204(s7)
    38fc:	00401821 	move	v1,v0
    3900:	00001021 	move	v0,zero
    3904:	00882024 	and	a0,a0,t0
    3908:	00a92824 	and	a1,a1,t1
    390c:	00822025 	or	a0,a0,v0
    3910:	00a32825 	or	a1,a1,v1
    3914:	24020008 	li	v0,8
    3918:	aee400c8 	sw	a0,200(s7)
    391c:	aee500cc 	sw	a1,204(s7)
    3920:	afa20010 	sw	v0,16(sp)
    3924:	afa00014 	sw	zero,20(sp)
    3928:	8f42000c 	lw	v0,12(k0)
    392c:	8c040208 	lw	a0,520(zero)
    3930:	8c05020c 	lw	a1,524(zero)
    3934:	afa20018 	sw	v0,24(sp)
    3938:	8f42010c 	lw	v0,268(k0)
    393c:	26e60028 	addiu	a2,s7,40
    3940:	0040f809 	jalr	v0
    3944:	24070400 	li	a3,1024
    3948:	104000f0 	beqz	v0,0x3d0c
    394c:	3c020400 	lui	v0,0x400
    3950:	afa20020 	sw	v0,32(sp)
    3954:	934205c6 	lbu	v0,1478(k0)
    3958:	10400089 	beqz	v0,0x3b80
    395c:	00001821 	move	v1,zero
    3960:	8f5e0018 	lw	s8,24(k0)
    3964:	27aa0020 	addiu	t2,sp,32
    3968:	240200ff 	li	v0,255
    396c:	13c20002 	beq	s8,v0,0x3978
    3970:	afaa002c 	sw	t2,44(sp)
    3974:	27c30001 	addiu	v1,s8,1
    3978:	8c020228 	lw	v0,552(zero)
    397c:	00609021 	move	s2,v1
    3980:	1642000e 	bne	s2,v0,0x39bc
    3984:	001e38c0 	sll	a3,s8,0x3
    3988:	8f42033c 	lw	v0,828(k0)
    398c:	24420001 	addiu	v0,v0,1
    3990:	af42033c 	sw	v0,828(k0)
    3994:	8f42033c 	lw	v0,828(k0)
    3998:	8c020228 	lw	v0,552(zero)
    399c:	3c040001 	lui	a0,0x1
    39a0:	2484610c 	addiu	a0,a0,24844
    39a4:	3c050009 	lui	a1,0x9
    39a8:	afa00014 	sw	zero,20(sp)
    39ac:	afa20010 	sw	v0,16(sp)
    39b0:	8fa60020 	lw	a2,32(sp)
    39b4:	1000006b 	b	0x3b64
    39b8:	34a50500 	ori	a1,a1,0x500
    39bc:	00f71021 	addu	v0,a3,s7
    39c0:	8fa30020 	lw	v1,32(sp)
    39c4:	8fa40024 	lw	a0,36(sp)
    39c8:	ac4304c0 	sw	v1,1216(v0)
    39cc:	ac4404c4 	sw	a0,1220(v0)
    39d0:	8f830054 	lw	v1,84(gp)
    39d4:	8f820054 	lw	v0,84(gp)
    39d8:	247003e8 	addiu	s0,v1,1000
    39dc:	02021023 	subu	v0,s0,v0
    39e0:	2c4203e9 	sltiu	v0,v0,1001
    39e4:	1040001b 	beqz	v0,0x3a54
    39e8:	00009821 	move	s3,zero
    39ec:	00e08821 	move	s1,a3
    39f0:	263504c0 	addiu	s5,s1,1216
    39f4:	8f440178 	lw	a0,376(k0)
    39f8:	8f45017c 	lw	a1,380(k0)
    39fc:	02201821 	move	v1,s1
    3a00:	240a0004 	li	t2,4
    3a04:	afaa0010 	sw	t2,16(sp)
    3a08:	afb20014 	sw	s2,20(sp)
    3a0c:	8f48000c 	lw	t0,12(k0)
    3a10:	00001021 	move	v0,zero
    3a14:	02f53021 	addu	a2,s7,s5
    3a18:	afa80018 	sw	t0,24(sp)
    3a1c:	8f48010c 	lw	t0,268(k0)
    3a20:	24070008 	li	a3,8
    3a24:	00a32821 	addu	a1,a1,v1
    3a28:	00a3482b 	sltu	t1,a1,v1
    3a2c:	00822021 	addu	a0,a0,v0
    3a30:	0100f809 	jalr	t0
    3a34:	00892021 	addu	a0,a0,t1
    3a38:	54400006 	bnezl	v0,0x3a54
    3a3c:	24130001 	li	s3,1
    3a40:	8f820054 	lw	v0,84(gp)
    3a44:	02021023 	subu	v0,s0,v0
    3a48:	2c4203e9 	sltiu	v0,v0,1001
    3a4c:	1440ffe9 	bnez	v0,0x39f4
    3a50:	00000000 	nop
    3a54:	326200ff 	andi	v0,s3,0xff
    3a58:	54400017 	bnezl	v0,0x3ab8
    3a5c:	af520018 	sw	s2,24(k0)
    3a60:	8f420378 	lw	v0,888(k0)
    3a64:	24420001 	addiu	v0,v0,1
    3a68:	af420378 	sw	v0,888(k0)
    3a6c:	8f420378 	lw	v0,888(k0)
    3a70:	8f820120 	lw	v0,288(gp)
    3a74:	8faa002c 	lw	t2,44(sp)
    3a78:	afa20010 	sw	v0,16(sp)
    3a7c:	8f820124 	lw	v0,292(gp)
    3a80:	3c040001 	lui	a0,0x1
    3a84:	24846118 	addiu	a0,a0,24856
    3a88:	3c050009 	lui	a1,0x9
    3a8c:	afa20014 	sw	v0,20(sp)
    3a90:	8d460000 	lw	a2,0(t2)
    3a94:	10000033 	b	0x3b64
    3a98:	34a50600 	ori	a1,a1,0x600
    3a9c:	8f420308 	lw	v0,776(k0)
    3aa0:	24130001 	li	s3,1
    3aa4:	24420001 	addiu	v0,v0,1
    3aa8:	af420308 	sw	v0,776(k0)
    3aac:	8f420308 	lw	v0,776(k0)
    3ab0:	1000001c 	b	0x3b24
    3ab4:	326200ff 	andi	v0,s3,0xff
    3ab8:	8f830054 	lw	v1,84(gp)
    3abc:	8f820054 	lw	v0,84(gp)
    3ac0:	247003e8 	addiu	s0,v1,1000
    3ac4:	02021023 	subu	v0,s0,v0
    3ac8:	2c4203e9 	sltiu	v0,v0,1001
    3acc:	10400014 	beqz	v0,0x3b20
    3ad0:	00009821 	move	s3,zero
    3ad4:	24110010 	li	s1,16
    3ad8:	8f42000c 	lw	v0,12(k0)
    3adc:	8f440160 	lw	a0,352(k0)
    3ae0:	8f450164 	lw	a1,356(k0)
    3ae4:	8f860120 	lw	a2,288(gp)
    3ae8:	afb10010 	sw	s1,16(sp)
    3aec:	afb20014 	sw	s2,20(sp)
    3af0:	afa20018 	sw	v0,24(sp)
    3af4:	8f42010c 	lw	v0,268(k0)
    3af8:	24070008 	li	a3,8
    3afc:	0040f809 	jalr	v0
    3b00:	24c6001c 	addiu	a2,a2,28
    3b04:	1440ffe5 	bnez	v0,0x3a9c
    3b08:	00000000 	nop
    3b0c:	8f820054 	lw	v0,84(gp)
    3b10:	02021023 	subu	v0,s0,v0
    3b14:	2c4203e9 	sltiu	v0,v0,1001
    3b18:	1440ffef 	bnez	v0,0x3ad8
    3b1c:	00000000 	nop
    3b20:	326200ff 	andi	v0,s3,0xff
    3b24:	54400012 	bnezl	v0,0x3b70
    3b28:	24020001 	li	v0,1
    3b2c:	8f420378 	lw	v0,888(k0)
    3b30:	24420001 	addiu	v0,v0,1
    3b34:	af420378 	sw	v0,888(k0)
    3b38:	8f420378 	lw	v0,888(k0)
    3b3c:	8f820120 	lw	v0,288(gp)
    3b40:	8faa002c 	lw	t2,44(sp)
    3b44:	afa20010 	sw	v0,16(sp)
    3b48:	8f820124 	lw	v0,292(gp)
    3b4c:	3c040001 	lui	a0,0x1
    3b50:	24846120 	addiu	a0,a0,24864
    3b54:	3c050009 	lui	a1,0x9
    3b58:	afa20014 	sw	v0,20(sp)
    3b5c:	8d460000 	lw	a2,0(t2)
    3b60:	34a50700 	ori	a1,a1,0x700
    3b64:	0c002b3b 	jal	0xacec
    3b68:	03c03821 	move	a3,s8
    3b6c:	00001021 	move	v0,zero
    3b70:	1440005b 	bnez	v0,0x3ce0
    3b74:	24020001 	li	v0,1
    3b78:	10000065 	b	0x3d10
    3b7c:	00000000 	nop
    3b80:	8f510018 	lw	s1,24(k0)
    3b84:	240200ff 	li	v0,255
    3b88:	12220002 	beq	s1,v0,0x3b94
    3b8c:	00008021 	move	s0,zero
    3b90:	26300001 	addiu	s0,s1,1
    3b94:	8c020228 	lw	v0,552(zero)
    3b98:	1602000e 	bne	s0,v0,0x3bd4
    3b9c:	001130c0 	sll	a2,s1,0x3
    3ba0:	8f42033c 	lw	v0,828(k0)
    3ba4:	24420001 	addiu	v0,v0,1
    3ba8:	af42033c 	sw	v0,828(k0)
    3bac:	8f42033c 	lw	v0,828(k0)
    3bb0:	8c020228 	lw	v0,552(zero)
    3bb4:	3c040001 	lui	a0,0x1
    3bb8:	248460f4 	addiu	a0,a0,24820
    3bbc:	3c050009 	lui	a1,0x9
    3bc0:	afa00014 	sw	zero,20(sp)
    3bc4:	afa20010 	sw	v0,16(sp)
    3bc8:	8fa60020 	lw	a2,32(sp)
    3bcc:	1000003f 	b	0x3ccc
    3bd0:	34a50100 	ori	a1,a1,0x100
    3bd4:	00d71021 	addu	v0,a2,s7
    3bd8:	8fa30020 	lw	v1,32(sp)
    3bdc:	8fa40024 	lw	a0,36(sp)
    3be0:	ac4304c0 	sw	v1,1216(v0)
    3be4:	ac4404c4 	sw	a0,1220(v0)
    3be8:	00c01821 	move	v1,a2
    3bec:	8f440178 	lw	a0,376(k0)
    3bf0:	8f45017c 	lw	a1,380(k0)
    3bf4:	00001021 	move	v0,zero
    3bf8:	24070004 	li	a3,4
    3bfc:	afa70010 	sw	a3,16(sp)
    3c00:	afb00014 	sw	s0,20(sp)
    3c04:	8f48000c 	lw	t0,12(k0)
    3c08:	24c604c0 	addiu	a2,a2,1216
    3c0c:	02e63021 	addu	a2,s7,a2
    3c10:	afa80018 	sw	t0,24(sp)
    3c14:	8f48010c 	lw	t0,268(k0)
    3c18:	24070008 	li	a3,8
    3c1c:	00a32821 	addu	a1,a1,v1
    3c20:	00a3482b 	sltu	t1,a1,v1
    3c24:	00822021 	addu	a0,a0,v0
    3c28:	0100f809 	jalr	t0
    3c2c:	00892021 	addu	a0,a0,t1
    3c30:	1440000b 	bnez	v0,0x3c60
    3c34:	24070008 	li	a3,8
    3c38:	8f820120 	lw	v0,288(gp)
    3c3c:	afa20010 	sw	v0,16(sp)
    3c40:	8f820124 	lw	v0,292(gp)
    3c44:	3c040001 	lui	a0,0x1
    3c48:	248460fc 	addiu	a0,a0,24828
    3c4c:	3c050009 	lui	a1,0x9
    3c50:	afa20014 	sw	v0,20(sp)
    3c54:	8fa60020 	lw	a2,32(sp)
    3c58:	1000001c 	b	0x3ccc
    3c5c:	34a50200 	ori	a1,a1,0x200
    3c60:	8f440160 	lw	a0,352(k0)
    3c64:	8f450164 	lw	a1,356(k0)
    3c68:	8f43000c 	lw	v1,12(k0)
    3c6c:	af500018 	sw	s0,24(k0)
    3c70:	8f860120 	lw	a2,288(gp)
    3c74:	24020010 	li	v0,16
    3c78:	afa20010 	sw	v0,16(sp)
    3c7c:	afb00014 	sw	s0,20(sp)
    3c80:	afa30018 	sw	v1,24(sp)
    3c84:	8f42010c 	lw	v0,268(k0)
    3c88:	0040f809 	jalr	v0
    3c8c:	24c6001c 	addiu	a2,a2,28
    3c90:	54400011 	bnezl	v0,0x3cd8
    3c94:	24020001 	li	v0,1
    3c98:	8f420340 	lw	v0,832(k0)
    3c9c:	24420001 	addiu	v0,v0,1
    3ca0:	af420340 	sw	v0,832(k0)
    3ca4:	8f420340 	lw	v0,832(k0)
    3ca8:	8f820120 	lw	v0,288(gp)
    3cac:	afa20010 	sw	v0,16(sp)
    3cb0:	8f820124 	lw	v0,292(gp)
    3cb4:	3c040001 	lui	a0,0x1
    3cb8:	24846104 	addiu	a0,a0,24836
    3cbc:	3c050009 	lui	a1,0x9
    3cc0:	afa20014 	sw	v0,20(sp)
    3cc4:	8fa60020 	lw	a2,32(sp)
    3cc8:	34a50300 	ori	a1,a1,0x300
    3ccc:	0c002b3b 	jal	0xacec
    3cd0:	02203821 	move	a3,s1
    3cd4:	00001021 	move	v0,zero
    3cd8:	1040000d 	beqz	v0,0x3d10
    3cdc:	24020001 	li	v0,1
    3ce0:	8f4202e8 	lw	v0,744(k0)
    3ce4:	a34005c6 	sb	zero,1478(k0)
    3ce8:	af4001b0 	sw	zero,432(k0)
    3cec:	24420001 	addiu	v0,v0,1
    3cf0:	af4202e8 	sw	v0,744(k0)
    3cf4:	8f4202e8 	lw	v0,744(k0)
    3cf8:	8ee20150 	lw	v0,336(s7)
    3cfc:	24420001 	addiu	v0,v0,1
    3d00:	aee20150 	sw	v0,336(s7)
    3d04:	10000003 	b	0x3d14
    3d08:	8ee20150 	lw	v0,336(s7)
    3d0c:	24020001 	li	v0,1
    3d10:	a34205c6 	sb	v0,1478(k0)
    3d14:	8fbf0048 	lw	ra,72(sp)
    3d18:	8fbe0044 	lw	s8,68(sp)
    3d1c:	8fb50040 	lw	s5,64(sp)
    3d20:	8fb3003c 	lw	s3,60(sp)
    3d24:	8fb20038 	lw	s2,56(sp)
    3d28:	8fb10034 	lw	s1,52(sp)
    3d2c:	8fb00030 	lw	s0,48(sp)
    3d30:	03e00008 	jr	ra
    3d34:	27bd0050 	addiu	sp,sp,80
    3d38:	27bdffd8 	addiu	sp,sp,-40
    3d3c:	afbf0020 	sw	ra,32(sp)
    3d40:	8f8200b0 	lw	v0,176(gp)
    3d44:	30420004 	andi	v0,v0,0x4
    3d48:	10400068 	beqz	v0,0x3eec
    3d4c:	00000000 	nop
    3d50:	8f430128 	lw	v1,296(k0)
    3d54:	8f820104 	lw	v0,260(gp)
    3d58:	14620005 	bne	v1,v0,0x3d70
    3d5c:	00000000 	nop
    3d60:	8f430130 	lw	v1,304(k0)
    3d64:	8f8200b4 	lw	v0,180(gp)
    3d68:	10620006 	beq	v1,v0,0x3d84
    3d6c:	00000000 	nop
    3d70:	8f820104 	lw	v0,260(gp)
    3d74:	af420128 	sw	v0,296(k0)
    3d78:	8f8200b4 	lw	v0,180(gp)
    3d7c:	1000005b 	b	0x3eec
    3d80:	af420130 	sw	v0,304(k0)
    3d84:	8f8200b0 	lw	v0,176(gp)
    3d88:	3c030080 	lui	v1,0x80
    3d8c:	00431024 	and	v0,v0,v1
    3d90:	1040000d 	beqz	v0,0x3dc8
    3d94:	00000000 	nop
    3d98:	8f82011c 	lw	v0,284(gp)
    3d9c:	34420002 	ori	v0,v0,0x2
    3da0:	af82011c 	sw	v0,284(gp)
    3da4:	8f8200b0 	lw	v0,176(gp)
    3da8:	2403fffb 	li	v1,-5
    3dac:	00431024 	and	v0,v0,v1
    3db0:	af8200b0 	sw	v0,176(gp)
    3db4:	8f82011c 	lw	v0,284(gp)
    3db8:	2403fffd 	li	v1,-3
    3dbc:	00431024 	and	v0,v0,v1
    3dc0:	1000004a 	b	0x3eec
    3dc4:	af82011c 	sw	v0,284(gp)
    3dc8:	8f430128 	lw	v1,296(k0)
    3dcc:	8f820104 	lw	v0,260(gp)
    3dd0:	14620005 	bne	v1,v0,0x3de8
    3dd4:	00000000 	nop
    3dd8:	8f430130 	lw	v1,304(k0)
    3ddc:	8f8200b4 	lw	v0,180(gp)
    3de0:	10620010 	beq	v1,v0,0x3e24
    3de4:	00000000 	nop
    3de8:	8f820104 	lw	v0,260(gp)
    3dec:	af420128 	sw	v0,296(k0)
    3df0:	8f8200b4 	lw	v0,180(gp)
    3df4:	8f430128 	lw	v1,296(k0)
    3df8:	af420130 	sw	v0,304(k0)
    3dfc:	afa30010 	sw	v1,16(sp)
    3e00:	8f420130 	lw	v0,304(k0)
    3e04:	3c040001 	lui	a0,0x1
    3e08:	24846144 	addiu	a0,a0,24900
    3e0c:	afa20014 	sw	v0,20(sp)
    3e10:	8f86011c 	lw	a2,284(gp)
    3e14:	8f8700b0 	lw	a3,176(gp)
    3e18:	3c050005 	lui	a1,0x5
    3e1c:	10000031 	b	0x3ee4
    3e20:	34a50900 	ori	a1,a1,0x900
    3e24:	8f420128 	lw	v0,296(k0)
    3e28:	afa20010 	sw	v0,16(sp)
    3e2c:	8f420130 	lw	v0,304(k0)
    3e30:	3c040001 	lui	a0,0x1
    3e34:	24846150 	addiu	a0,a0,24912
    3e38:	afa20014 	sw	v0,20(sp)
    3e3c:	8f86011c 	lw	a2,284(gp)
    3e40:	8f8700b0 	lw	a3,176(gp)
    3e44:	3c050005 	lui	a1,0x5
    3e48:	0c002b3b 	jal	0xacec
    3e4c:	34a51000 	ori	a1,a1,0x1000
    3e50:	8f82011c 	lw	v0,284(gp)
    3e54:	34420002 	ori	v0,v0,0x2
    3e58:	af82011c 	sw	v0,284(gp)
    3e5c:	8f830104 	lw	v1,260(gp)
    3e60:	8f8200b0 	lw	v0,176(gp)
    3e64:	34420001 	ori	v0,v0,0x1
    3e68:	af8200b0 	sw	v0,176(gp)
    3e6c:	24020008 	li	v0,8
    3e70:	af830104 	sw	v1,260(gp)
    3e74:	afa20010 	sw	v0,16(sp)
    3e78:	afa00014 	sw	zero,20(sp)
    3e7c:	8f42000c 	lw	v0,12(k0)
    3e80:	8c040208 	lw	a0,520(zero)
    3e84:	8c05020c 	lw	a1,524(zero)
    3e88:	afa20018 	sw	v0,24(sp)
    3e8c:	8f42010c 	lw	v0,268(k0)
    3e90:	26e60028 	addiu	a2,s7,40
    3e94:	0040f809 	jalr	v0
    3e98:	24070400 	li	a3,1024
    3e9c:	8f82011c 	lw	v0,284(gp)
    3ea0:	2403fffd 	li	v1,-3
    3ea4:	00431024 	and	v0,v0,v1
    3ea8:	af82011c 	sw	v0,284(gp)
    3eac:	8ee201dc 	lw	v0,476(s7)
    3eb0:	24420001 	addiu	v0,v0,1
    3eb4:	aee201dc 	sw	v0,476(s7)
    3eb8:	8ee201dc 	lw	v0,476(s7)
    3ebc:	8f420128 	lw	v0,296(k0)
    3ec0:	afa20010 	sw	v0,16(sp)
    3ec4:	8f420130 	lw	v0,304(k0)
    3ec8:	3c040001 	lui	a0,0x1
    3ecc:	2484615c 	addiu	a0,a0,24924
    3ed0:	afa20014 	sw	v0,20(sp)
    3ed4:	8f86011c 	lw	a2,284(gp)
    3ed8:	8f8700b0 	lw	a3,176(gp)
    3edc:	3c050005 	lui	a1,0x5
    3ee0:	34a51100 	ori	a1,a1,0x1100
    3ee4:	0c002b3b 	jal	0xacec
    3ee8:	00000000 	nop
    3eec:	8f8200a0 	lw	v0,160(gp)
    3ef0:	30420004 	andi	v0,v0,0x4
    3ef4:	10400069 	beqz	v0,0x409c
    3ef8:	00000000 	nop
    3efc:	8f43012c 	lw	v1,300(k0)
    3f00:	8f820124 	lw	v0,292(gp)
    3f04:	14620005 	bne	v1,v0,0x3f1c
    3f08:	00000000 	nop
    3f0c:	8f430134 	lw	v1,308(k0)
    3f10:	8f8200a4 	lw	v0,164(gp)
    3f14:	10620006 	beq	v1,v0,0x3f30
    3f18:	00000000 	nop
    3f1c:	8f820124 	lw	v0,292(gp)
    3f20:	af42012c 	sw	v0,300(k0)
    3f24:	8f8200a4 	lw	v0,164(gp)
    3f28:	1000005c 	b	0x409c
    3f2c:	af420134 	sw	v0,308(k0)
    3f30:	8f8200a0 	lw	v0,160(gp)
    3f34:	3c030080 	lui	v1,0x80
    3f38:	00431024 	and	v0,v0,v1
    3f3c:	1040000d 	beqz	v0,0x3f74
    3f40:	00000000 	nop
    3f44:	8f82011c 	lw	v0,284(gp)
    3f48:	34420002 	ori	v0,v0,0x2
    3f4c:	af82011c 	sw	v0,284(gp)
    3f50:	8f8200a0 	lw	v0,160(gp)
    3f54:	2403fffb 	li	v1,-5
    3f58:	00431024 	and	v0,v0,v1
    3f5c:	af8200a0 	sw	v0,160(gp)
    3f60:	8f82011c 	lw	v0,284(gp)
    3f64:	2403fffd 	li	v1,-3
    3f68:	00431024 	and	v0,v0,v1
    3f6c:	1000004b 	b	0x409c
    3f70:	af82011c 	sw	v0,284(gp)
    3f74:	8f43012c 	lw	v1,300(k0)
    3f78:	8f820124 	lw	v0,292(gp)
    3f7c:	14620005 	bne	v1,v0,0x3f94
    3f80:	00000000 	nop
    3f84:	8f430134 	lw	v1,308(k0)
    3f88:	8f8200a4 	lw	v0,164(gp)
    3f8c:	10620010 	beq	v1,v0,0x3fd0
    3f90:	00000000 	nop
    3f94:	8f820124 	lw	v0,292(gp)
    3f98:	af42012c 	sw	v0,300(k0)
    3f9c:	8f8200a4 	lw	v0,164(gp)
    3fa0:	8f43012c 	lw	v1,300(k0)
    3fa4:	af420134 	sw	v0,308(k0)
    3fa8:	afa30010 	sw	v1,16(sp)
    3fac:	8f420134 	lw	v0,308(k0)
    3fb0:	3c040001 	lui	a0,0x1
    3fb4:	24846168 	addiu	a0,a0,24936
    3fb8:	afa20014 	sw	v0,20(sp)
    3fbc:	8f86011c 	lw	a2,284(gp)
    3fc0:	8f8700a0 	lw	a3,160(gp)
    3fc4:	3c050005 	lui	a1,0x5
    3fc8:	10000032 	b	0x4094
    3fcc:	34a51200 	ori	a1,a1,0x1200
    3fd0:	8f42012c 	lw	v0,300(k0)
    3fd4:	afa20010 	sw	v0,16(sp)
    3fd8:	8f420134 	lw	v0,308(k0)
    3fdc:	3c040001 	lui	a0,0x1
    3fe0:	24846174 	addiu	a0,a0,24948
    3fe4:	afa20014 	sw	v0,20(sp)
    3fe8:	8f86011c 	lw	a2,284(gp)
    3fec:	8f8700a0 	lw	a3,160(gp)
    3ff0:	3c050005 	lui	a1,0x5
    3ff4:	0c002b3b 	jal	0xacec
    3ff8:	34a51300 	ori	a1,a1,0x1300
    3ffc:	8f82011c 	lw	v0,284(gp)
    4000:	34420002 	ori	v0,v0,0x2
    4004:	af82011c 	sw	v0,284(gp)
    4008:	8f830124 	lw	v1,292(gp)
    400c:	8f8200a0 	lw	v0,160(gp)
    4010:	34420001 	ori	v0,v0,0x1
    4014:	af8200a0 	sw	v0,160(gp)
    4018:	24020080 	li	v0,128
    401c:	af830124 	sw	v1,292(gp)
    4020:	afa20010 	sw	v0,16(sp)
    4024:	afa00014 	sw	zero,20(sp)
    4028:	8f420014 	lw	v0,20(k0)
    402c:	8c040208 	lw	a0,520(zero)
    4030:	8c05020c 	lw	a1,524(zero)
    4034:	afa20018 	sw	v0,24(sp)
    4038:	8f420108 	lw	v0,264(k0)
    403c:	3c060001 	lui	a2,0x1
    4040:	24c66ed8 	addiu	a2,a2,28376
    4044:	0040f809 	jalr	v0
    4048:	24070004 	li	a3,4
    404c:	8f82011c 	lw	v0,284(gp)
    4050:	2403fffd 	li	v1,-3
    4054:	00431024 	and	v0,v0,v1
    4058:	af82011c 	sw	v0,284(gp)
    405c:	8ee201dc 	lw	v0,476(s7)
    4060:	24420001 	addiu	v0,v0,1
    4064:	aee201dc 	sw	v0,476(s7)
    4068:	8ee201dc 	lw	v0,476(s7)
    406c:	8f42012c 	lw	v0,300(k0)
    4070:	afa20010 	sw	v0,16(sp)
    4074:	8f420134 	lw	v0,308(k0)
    4078:	3c040001 	lui	a0,0x1
    407c:	24846180 	addiu	a0,a0,24960
    4080:	afa20014 	sw	v0,20(sp)
    4084:	8f86011c 	lw	a2,284(gp)
    4088:	8f8700a0 	lw	a3,160(gp)
    408c:	3c050005 	lui	a1,0x5
    4090:	34a51400 	ori	a1,a1,0x1400
    4094:	0c002b3b 	jal	0xacec
    4098:	00000000 	nop
    409c:	8fbf0020 	lw	ra,32(sp)
    40a0:	03e00008 	jr	ra
    40a4:	27bd0028 	addiu	sp,sp,40
    40a8:	3c081000 	lui	t0,0x1000
    40ac:	24070001 	li	a3,1
    40b0:	3c060080 	lui	a2,0x80
    40b4:	3c050100 	lui	a1,0x100
    40b8:	8f820070 	lw	v0,112(gp)
    40bc:	00481024 	and	v0,v0,t0
    40c0:	1040fffd 	beqz	v0,0x40b8
    40c4:	00000000 	nop
    40c8:	8f820054 	lw	v0,84(gp)
    40cc:	24420005 	addiu	v0,v0,5
    40d0:	af820078 	sw	v0,120(gp)
    40d4:	8c040234 	lw	a0,564(zero)
    40d8:	10800016 	beqz	a0,0x4134
    40dc:	00001821 	move	v1,zero
    40e0:	3c020001 	lui	v0,0x1
    40e4:	00571021 	addu	v0,v0,s7
    40e8:	8c4240e8 	lw	v0,16616(v0)
    40ec:	24420005 	addiu	v0,v0,5
    40f0:	3c010001 	lui	at,0x1
    40f4:	00370821 	addu	at,at,s7
    40f8:	ac2240e8 	sw	v0,16616(at)
    40fc:	3c020001 	lui	v0,0x1
    4100:	00571021 	addu	v0,v0,s7
    4104:	8c4240e8 	lw	v0,16616(v0)
    4108:	0044102b 	sltu	v0,v0,a0
    410c:	14400009 	bnez	v0,0x4134
    4110:	00000000 	nop
    4114:	3c030080 	lui	v1,0x80
    4118:	3c010001 	lui	at,0x1
    411c:	00370821 	addu	at,at,s7
    4120:	ac2040e8 	sw	zero,16616(at)
    4124:	3c010001 	lui	at,0x1
    4128:	00370821 	addu	at,at,s7
    412c:	1000000b 	b	0x415c
    4130:	a02740f0 	sb	a3,16624(at)
    4134:	3c020001 	lui	v0,0x1
    4138:	00571021 	addu	v0,v0,s7
    413c:	904240f0 	lbu	v0,16624(v0)
    4140:	54400006 	bnezl	v0,0x415c
    4144:	00661825 	or	v1,v1,a2
    4148:	3c020001 	lui	v0,0x1
    414c:	00571021 	addu	v0,v0,s7
    4150:	904240f1 	lbu	v0,16625(v0)
    4154:	54400001 	bnezl	v0,0x415c
    4158:	00661825 	or	v1,v1,a2
    415c:	8c040230 	lw	a0,560(zero)
    4160:	10800013 	beqz	a0,0x41b0
    4164:	00000000 	nop
    4168:	3c020001 	lui	v0,0x1
    416c:	00571021 	addu	v0,v0,s7
    4170:	8c4240ec 	lw	v0,16620(v0)
    4174:	24420005 	addiu	v0,v0,5
    4178:	3c010001 	lui	at,0x1
    417c:	00370821 	addu	at,at,s7
    4180:	ac2240ec 	sw	v0,16620(at)
    4184:	3c020001 	lui	v0,0x1
    4188:	00571021 	addu	v0,v0,s7
    418c:	8c4240ec 	lw	v0,16620(v0)
    4190:	0044102b 	sltu	v0,v0,a0
    4194:	14400006 	bnez	v0,0x41b0
    4198:	00000000 	nop
    419c:	3c010001 	lui	at,0x1
    41a0:	00370821 	addu	at,at,s7
    41a4:	ac2040ec 	sw	zero,16620(at)
    41a8:	10000006 	b	0x41c4
    41ac:	00651825 	or	v1,v1,a1
    41b0:	3c020001 	lui	v0,0x1
    41b4:	00571021 	addu	v0,v0,s7
    41b8:	904240f2 	lbu	v0,16626(v0)
    41bc:	54400001 	bnezl	v0,0x41c4
    41c0:	00651825 	or	v1,v1,a1
    41c4:	1060ffbc 	beqz	v1,0x40b8
    41c8:	00000000 	nop
    41cc:	8f420000 	lw	v0,0(k0)
    41d0:	10400007 	beqz	v0,0x41f0
    41d4:	00000000 	nop
    41d8:	af80004c 	sw	zero,76(gp)
    41dc:	8f82004c 	lw	v0,76(gp)
    41e0:	1040fffd 	beqz	v0,0x41d8
    41e4:	00000000 	nop
    41e8:	10000005 	b	0x4200
    41ec:	00000000 	nop
    41f0:	af800048 	sw	zero,72(gp)
    41f4:	8f820048 	lw	v0,72(gp)
    41f8:	1040fffd 	beqz	v0,0x41f0
    41fc:	00000000 	nop
    4200:	8f820060 	lw	v0,96(gp)
    4204:	00431025 	or	v0,v0,v1
    4208:	af820060 	sw	v0,96(gp)
    420c:	8f420000 	lw	v0,0(k0)
    4210:	10400003 	beqz	v0,0x4220
    4214:	00000000 	nop
    4218:	1000ffa7 	b	0x40b8
    421c:	af80004c 	sw	zero,76(gp)
    4220:	1000ffa5 	b	0x40b8
    4224:	af800048 	sw	zero,72(gp)
    4228:	03e00008 	jr	ra
    422c:	00000000 	nop
	...
    423c:	27bdffe0 	addiu	sp,sp,-32
    4240:	afbf0018 	sw	ra,24(sp)
    4244:	8f860064 	lw	a2,100(gp)
    4248:	30c20004 	andi	v0,a2,0x4
    424c:	10400025 	beqz	v0,0x42e4
    4250:	24040004 	li	a0,4
    4254:	8c020114 	lw	v0,276(zero)
    4258:	af420020 	sw	v0,32(k0)
    425c:	af840064 	sw	a0,100(gp)
    4260:	8f4202fc 	lw	v0,764(k0)
    4264:	24420001 	addiu	v0,v0,1
    4268:	af4202fc 	sw	v0,764(k0)
    426c:	8f4202fc 	lw	v0,764(k0)
    4270:	8f820064 	lw	v0,100(gp)
    4274:	30420004 	andi	v0,v0,0x4
    4278:	14400005 	bnez	v0,0x4290
    427c:	00000000 	nop
    4280:	8c030114 	lw	v1,276(zero)
    4284:	8f420020 	lw	v0,32(k0)
    4288:	1462fff2 	bne	v1,v0,0x4254
    428c:	00000000 	nop
    4290:	8f420000 	lw	v0,0(k0)
    4294:	10400007 	beqz	v0,0x42b4
    4298:	8f43003c 	lw	v1,60(k0)
    429c:	af80004c 	sw	zero,76(gp)
    42a0:	8f82004c 	lw	v0,76(gp)
    42a4:	1040fffd 	beqz	v0,0x429c
    42a8:	00000000 	nop
    42ac:	10000005 	b	0x42c4
    42b0:	00000000 	nop
    42b4:	af800048 	sw	zero,72(gp)
    42b8:	8f820048 	lw	v0,72(gp)
    42bc:	1040fffd 	beqz	v0,0x42b4
    42c0:	00000000 	nop
    42c4:	8f820060 	lw	v0,96(gp)
    42c8:	00431025 	or	v0,v0,v1
    42cc:	af820060 	sw	v0,96(gp)
    42d0:	8f420000 	lw	v0,0(k0)
    42d4:	10400073 	beqz	v0,0x44a4
    42d8:	00000000 	nop
    42dc:	1000006f 	b	0x449c
    42e0:	00000000 	nop
    42e4:	30c20008 	andi	v0,a2,0x8
    42e8:	10400020 	beqz	v0,0x436c
    42ec:	24040008 	li	a0,8
    42f0:	8c02011c 	lw	v0,284(zero)
    42f4:	af420048 	sw	v0,72(k0)
    42f8:	af840064 	sw	a0,100(gp)
    42fc:	8f4202a8 	lw	v0,680(k0)
    4300:	24420001 	addiu	v0,v0,1
    4304:	af4202a8 	sw	v0,680(k0)
    4308:	8f4202a8 	lw	v0,680(k0)
    430c:	8f820064 	lw	v0,100(gp)
    4310:	30420008 	andi	v0,v0,0x8
    4314:	14400005 	bnez	v0,0x432c
    4318:	00000000 	nop
    431c:	8c03011c 	lw	v1,284(zero)
    4320:	8f420048 	lw	v0,72(k0)
    4324:	1462fff2 	bne	v1,v0,0x42f0
    4328:	00000000 	nop
    432c:	8f420000 	lw	v0,0(k0)
    4330:	10400007 	beqz	v0,0x4350
    4334:	00000000 	nop
    4338:	af80004c 	sw	zero,76(gp)
    433c:	8f82004c 	lw	v0,76(gp)
    4340:	1040fffd 	beqz	v0,0x4338
    4344:	00000000 	nop
    4348:	10000005 	b	0x4360
    434c:	00000000 	nop
    4350:	af800048 	sw	zero,72(gp)
    4354:	8f820048 	lw	v0,72(gp)
    4358:	1040fffd 	beqz	v0,0x4350
    435c:	00000000 	nop
    4360:	8f820060 	lw	v0,96(gp)
    4364:	1000ffd9 	b	0x42cc
    4368:	34420200 	ori	v0,v0,0x200
    436c:	30c20020 	andi	v0,a2,0x20
    4370:	10400023 	beqz	v0,0x4400
    4374:	24040020 	li	a0,32
    4378:	8c02012c 	lw	v0,300(zero)
    437c:	af420068 	sw	v0,104(k0)
    4380:	af840064 	sw	a0,100(gp)
    4384:	8f4202d8 	lw	v0,728(k0)
    4388:	24420001 	addiu	v0,v0,1
    438c:	af4202d8 	sw	v0,728(k0)
    4390:	8f4202d8 	lw	v0,728(k0)
    4394:	8f820064 	lw	v0,100(gp)
    4398:	30420020 	andi	v0,v0,0x20
    439c:	14400005 	bnez	v0,0x43b4
    43a0:	32c24000 	andi	v0,s6,0x4000
    43a4:	8c03012c 	lw	v1,300(zero)
    43a8:	8f420068 	lw	v0,104(k0)
    43ac:	1462fff2 	bne	v1,v0,0x4378
    43b0:	32c24000 	andi	v0,s6,0x4000
    43b4:	14400002 	bnez	v0,0x43c0
    43b8:	3c020001 	lui	v0,0x1
    43bc:	02c2b025 	or	s6,s6,v0
    43c0:	8f420000 	lw	v0,0(k0)
    43c4:	10400007 	beqz	v0,0x43e4
    43c8:	00000000 	nop
    43cc:	af80004c 	sw	zero,76(gp)
    43d0:	8f82004c 	lw	v0,76(gp)
    43d4:	1040fffd 	beqz	v0,0x43cc
    43d8:	00000000 	nop
    43dc:	10000005 	b	0x43f4
    43e0:	00000000 	nop
    43e4:	af800048 	sw	zero,72(gp)
    43e8:	8f820048 	lw	v0,72(gp)
    43ec:	1040fffd 	beqz	v0,0x43e4
    43f0:	00000000 	nop
    43f4:	8f820060 	lw	v0,96(gp)
    43f8:	1000ffb4 	b	0x42cc
    43fc:	34420800 	ori	v0,v0,0x800
    4400:	30c20010 	andi	v0,a2,0x10
    4404:	10400029 	beqz	v0,0x44ac
    4408:	24040010 	li	a0,16
    440c:	8c020124 	lw	v0,292(zero)
    4410:	af420058 	sw	v0,88(k0)
    4414:	af840064 	sw	a0,100(gp)
    4418:	8f4202d4 	lw	v0,724(k0)
    441c:	24420001 	addiu	v0,v0,1
    4420:	af4202d4 	sw	v0,724(k0)
    4424:	8f4202d4 	lw	v0,724(k0)
    4428:	8f820064 	lw	v0,100(gp)
    442c:	30420010 	andi	v0,v0,0x10
    4430:	14400005 	bnez	v0,0x4448
    4434:	32c22000 	andi	v0,s6,0x2000
    4438:	8c030124 	lw	v1,292(zero)
    443c:	8f420058 	lw	v0,88(k0)
    4440:	1462fff2 	bne	v1,v0,0x440c
    4444:	32c22000 	andi	v0,s6,0x2000
    4448:	50400001 	beqzl	v0,0x4450
    444c:	36d68000 	ori	s6,s6,0x8000
    4450:	8f420000 	lw	v0,0(k0)
    4454:	10400007 	beqz	v0,0x4474
    4458:	00000000 	nop
    445c:	af80004c 	sw	zero,76(gp)
    4460:	8f82004c 	lw	v0,76(gp)
    4464:	1040fffd 	beqz	v0,0x445c
    4468:	00000000 	nop
    446c:	10000005 	b	0x4484
    4470:	00000000 	nop
    4474:	af800048 	sw	zero,72(gp)
    4478:	8f820048 	lw	v0,72(gp)
    447c:	1040fffd 	beqz	v0,0x4474
    4480:	00000000 	nop
    4484:	8f820060 	lw	v0,96(gp)
    4488:	34420100 	ori	v0,v0,0x100
    448c:	af820060 	sw	v0,96(gp)
    4490:	8f420000 	lw	v0,0(k0)
    4494:	10400003 	beqz	v0,0x44a4
    4498:	00000000 	nop
    449c:	1000006c 	b	0x4650
    44a0:	af80004c 	sw	zero,76(gp)
    44a4:	1000006a 	b	0x4650
    44a8:	af800048 	sw	zero,72(gp)
    44ac:	30c20001 	andi	v0,a2,0x1
    44b0:	10400004 	beqz	v0,0x44c4
    44b4:	24020001 	li	v0,1
    44b8:	af820064 	sw	v0,100(gp)
    44bc:	10000064 	b	0x4650
    44c0:	00000000 	nop
    44c4:	30c20002 	andi	v0,a2,0x2
    44c8:	1440000b 	bnez	v0,0x44f8
    44cc:	3c050003 	lui	a1,0x3
    44d0:	3c040001 	lui	a0,0x1
    44d4:	24846244 	addiu	a0,a0,25156
    44d8:	34a50500 	ori	a1,a1,0x500
    44dc:	00003821 	move	a3,zero
    44e0:	afa00010 	sw	zero,16(sp)
    44e4:	0c002b3b 	jal	0xacec
    44e8:	afa00014 	sw	zero,20(sp)
    44ec:	2402ffc0 	li	v0,-64
    44f0:	10000057 	b	0x4650
    44f4:	af820064 	sw	v0,100(gp)
    44f8:	8c05022c 	lw	a1,556(zero)
    44fc:	8c02010c 	lw	v0,268(zero)
    4500:	10a20048 	beq	a1,v0,0x4624
    4504:	00051080 	sll	v0,a1,0x2
    4508:	8c460300 	lw	a2,768(v0)
    450c:	24a20001 	addiu	v0,a1,1
    4510:	3045003f 	andi	a1,v0,0x3f
    4514:	24020003 	li	v0,3
    4518:	ac05022c 	sw	a1,556(zero)
    451c:	00061e02 	srl	v1,a2,0x18
    4520:	10620005 	beq	v1,v0,0x4538
    4524:	24020010 	li	v0,16
    4528:	1062001d 	beq	v1,v0,0x45a0
    452c:	30c20fff 	andi	v0,a2,0xfff
    4530:	10000039 	b	0x4618
    4534:	00000000 	nop
    4538:	8f4302a8 	lw	v1,680(k0)
    453c:	8f440000 	lw	a0,0(k0)
    4540:	30c20fff 	andi	v0,a2,0xfff
    4544:	af420048 	sw	v0,72(k0)
    4548:	24630001 	addiu	v1,v1,1
    454c:	af4302a8 	sw	v1,680(k0)
    4550:	10800007 	beqz	a0,0x4570
    4554:	8f4202a8 	lw	v0,680(k0)
    4558:	af80004c 	sw	zero,76(gp)
    455c:	8f82004c 	lw	v0,76(gp)
    4560:	1040fffd 	beqz	v0,0x4558
    4564:	00000000 	nop
    4568:	10000005 	b	0x4580
    456c:	00000000 	nop
    4570:	af800048 	sw	zero,72(gp)
    4574:	8f820048 	lw	v0,72(gp)
    4578:	1040fffd 	beqz	v0,0x4570
    457c:	00000000 	nop
    4580:	8f820060 	lw	v0,96(gp)
    4584:	34420200 	ori	v0,v0,0x200
    4588:	af820060 	sw	v0,96(gp)
    458c:	8f420000 	lw	v0,0(k0)
    4590:	1040001f 	beqz	v0,0x4610
    4594:	00000000 	nop
    4598:	1000001b 	b	0x4608
    459c:	00000000 	nop
    45a0:	af420058 	sw	v0,88(k0)
    45a4:	32c22000 	andi	v0,s6,0x2000
    45a8:	50400001 	beqzl	v0,0x45b0
    45ac:	36d68000 	ori	s6,s6,0x8000
    45b0:	8f4202d4 	lw	v0,724(k0)
    45b4:	8f430000 	lw	v1,0(k0)
    45b8:	24420001 	addiu	v0,v0,1
    45bc:	af4202d4 	sw	v0,724(k0)
    45c0:	10600007 	beqz	v1,0x45e0
    45c4:	8f4202d4 	lw	v0,724(k0)
    45c8:	af80004c 	sw	zero,76(gp)
    45cc:	8f82004c 	lw	v0,76(gp)
    45d0:	1040fffd 	beqz	v0,0x45c8
    45d4:	00000000 	nop
    45d8:	10000005 	b	0x45f0
    45dc:	00000000 	nop
    45e0:	af800048 	sw	zero,72(gp)
    45e4:	8f820048 	lw	v0,72(gp)
    45e8:	1040fffd 	beqz	v0,0x45e0
    45ec:	00000000 	nop
    45f0:	8f820060 	lw	v0,96(gp)
    45f4:	34420100 	ori	v0,v0,0x100
    45f8:	af820060 	sw	v0,96(gp)
    45fc:	8f420000 	lw	v0,0(k0)
    4600:	10400003 	beqz	v0,0x4610
    4604:	00000000 	nop
    4608:	10000006 	b	0x4624
    460c:	af80004c 	sw	zero,76(gp)
    4610:	10000004 	b	0x4624
    4614:	af800048 	sw	zero,72(gp)
    4618:	0c002196 	jal	0x8658
    461c:	00c02021 	move	a0,a2
    4620:	00402821 	move	a1,v0
    4624:	8c02010c 	lw	v0,268(zero)
    4628:	14a20002 	bne	a1,v0,0x4634
    462c:	24020002 	li	v0,2
    4630:	af820064 	sw	v0,100(gp)
    4634:	8f820064 	lw	v0,100(gp)
    4638:	30420002 	andi	v0,v0,0x2
    463c:	14400004 	bnez	v0,0x4650
    4640:	00000000 	nop
    4644:	8c02010c 	lw	v0,268(zero)
    4648:	14a2ffac 	bne	a1,v0,0x44fc
    464c:	00000000 	nop
    4650:	8fbf0018 	lw	ra,24(sp)
    4654:	03e00008 	jr	ra
    4658:	27bd0020 	addiu	sp,sp,32
    465c:	03e00008 	jr	ra
    4660:	00000000 	nop
    4664:	27bdffa0 	addiu	sp,sp,-96
    4668:	afb00040 	sw	s0,64(sp)
    466c:	00808021 	move	s0,a0
    4670:	00101602 	srl	v0,s0,0x18
    4674:	2442ffff 	addiu	v0,v0,-1
    4678:	304300ff 	andi	v1,v0,0xff
    467c:	2c620013 	sltiu	v0,v1,19
    4680:	afbf0058 	sw	ra,88(sp)
    4684:	afbe0054 	sw	s8,84(sp)
    4688:	afb50050 	sw	s5,80(sp)
    468c:	afb3004c 	sw	s3,76(sp)
    4690:	afb20048 	sw	s2,72(sp)
    4694:	afb10044 	sw	s1,68(sp)
    4698:	104001f3 	beqz	v0,0x4e68
    469c:	afa50034 	sw	a1,52(sp)
    46a0:	00031080 	sll	v0,v1,0x2
    46a4:	3c010001 	lui	at,0x1
    46a8:	00220821 	addu	at,at,v0
    46ac:	8c226288 	lw	v0,25224(at)
    46b0:	00400008 	jr	v0
    46b4:	00000000 	nop
    46b8:	00101302 	srl	v0,s0,0xc
    46bc:	30440fff 	andi	a0,v0,0xfff
    46c0:	24020001 	li	v0,1
    46c4:	10820005 	beq	a0,v0,0x46dc
    46c8:	24020002 	li	v0,2
    46cc:	1082000c 	beq	a0,v0,0x4700
    46d0:	2402fffe 	li	v0,-2
    46d4:	10000024 	b	0x4768
    46d8:	3c050003 	lui	a1,0x3
    46dc:	8f430004 	lw	v1,4(k0)
    46e0:	3c020001 	lui	v0,0x1
    46e4:	8c426f04 	lw	v0,28420(v0)
    46e8:	af440200 	sw	a0,512(k0)
    46ec:	af440204 	sw	a0,516(k0)
    46f0:	3c040001 	lui	a0,0x1
    46f4:	8c846e80 	lw	a0,28288(a0)
    46f8:	10000009 	b	0x4720
    46fc:	34630001 	ori	v1,v1,0x1
    4700:	8f430004 	lw	v1,4(k0)
    4704:	af440200 	sw	a0,512(k0)
    4708:	af440204 	sw	a0,516(k0)
    470c:	3c040001 	lui	a0,0x1
    4710:	8c846e80 	lw	a0,28288(a0)
    4714:	00621824 	and	v1,v1,v0
    4718:	3c020001 	lui	v0,0x1
    471c:	2442ca28 	addiu	v0,v0,-13784
    4720:	00021100 	sll	v0,v0,0x4
    4724:	00021182 	srl	v0,v0,0x6
    4728:	af430004 	sw	v1,4(k0)
    472c:	3c030800 	lui	v1,0x800
    4730:	00431025 	or	v0,v0,v1
    4734:	ac820038 	sw	v0,56(a0)
    4738:	8f840054 	lw	a0,84(gp)
    473c:	00041442 	srl	v0,a0,0x11
    4740:	00041c82 	srl	v1,a0,0x12
    4744:	00431021 	addu	v0,v0,v1
    4748:	00041cc2 	srl	v1,a0,0x13
    474c:	00431023 	subu	v0,v0,v1
    4750:	00041d02 	srl	v1,a0,0x14
    4754:	00431021 	addu	v0,v0,v1
    4758:	00041d42 	srl	v1,a0,0x15
    475c:	00431023 	subu	v0,v0,v1
    4760:	10000009 	b	0x4788
    4764:	af420208 	sw	v0,520(k0)
    4768:	3c040001 	lui	a0,0x1
    476c:	24846250 	addiu	a0,a0,25168
    4770:	34a51000 	ori	a1,a1,0x1000
    4774:	02003021 	move	a2,s0
    4778:	00003821 	move	a3,zero
    477c:	afa00010 	sw	zero,16(sp)
    4780:	0c002b3b 	jal	0xacec
    4784:	afa00014 	sw	zero,20(sp)
    4788:	8f4202a0 	lw	v0,672(k0)
    478c:	24420001 	addiu	v0,v0,1
    4790:	af4202a0 	sw	v0,672(k0)
    4794:	1000021f 	b	0x5014
    4798:	8f4202a0 	lw	v0,672(k0)
    479c:	27b00028 	addiu	s0,sp,40
    47a0:	02002021 	move	a0,s0
    47a4:	24050210 	li	a1,528
    47a8:	0c002bbf 	jal	0xaefc
    47ac:	24060008 	li	a2,8
    47b0:	0c002518 	jal	0x9460
    47b4:	02002021 	move	a0,s0
    47b8:	10000216 	b	0x5014
    47bc:	00000000 	nop
    47c0:	8faa0034 	lw	t2,52(sp)
    47c4:	27a40028 	addiu	a0,sp,40
    47c8:	000a1880 	sll	v1,t2,0x2
    47cc:	25420001 	addiu	v0,t2,1
    47d0:	3042003f 	andi	v0,v0,0x3f
    47d4:	afa20034 	sw	v0,52(sp)
    47d8:	8c650300 	lw	a1,768(v1)
    47dc:	8faa0034 	lw	t2,52(sp)
    47e0:	00021080 	sll	v0,v0,0x2
    47e4:	8c430300 	lw	v1,768(v0)
    47e8:	25420001 	addiu	v0,t2,1
    47ec:	3042003f 	andi	v0,v0,0x3f
    47f0:	afa20034 	sw	v0,52(sp)
    47f4:	ac02022c 	sw	v0,556(zero)
    47f8:	afa50028 	sw	a1,40(sp)
    47fc:	0c002518 	jal	0x9460
    4800:	afa3002c 	sw	v1,44(sp)
    4804:	10000203 	b	0x5014
    4808:	00000000 	nop
    480c:	27b00028 	addiu	s0,sp,40
    4810:	02002021 	move	a0,s0
    4814:	24050210 	li	a1,528
    4818:	0c002bbf 	jal	0xaefc
    481c:	24060008 	li	a2,8
    4820:	0c002657 	jal	0x995c
    4824:	02002021 	move	a0,s0
    4828:	100001fa 	b	0x5014
    482c:	00000000 	nop
    4830:	8faa0034 	lw	t2,52(sp)
    4834:	27a40028 	addiu	a0,sp,40
    4838:	000a1880 	sll	v1,t2,0x2
    483c:	25420001 	addiu	v0,t2,1
    4840:	3042003f 	andi	v0,v0,0x3f
    4844:	afa20034 	sw	v0,52(sp)
    4848:	8c650300 	lw	a1,768(v1)
    484c:	8faa0034 	lw	t2,52(sp)
    4850:	00021080 	sll	v0,v0,0x2
    4854:	8c430300 	lw	v1,768(v0)
    4858:	25420001 	addiu	v0,t2,1
    485c:	3042003f 	andi	v0,v0,0x3f
    4860:	afa20034 	sw	v0,52(sp)
    4864:	ac02022c 	sw	v0,556(zero)
    4868:	afa50028 	sw	a1,40(sp)
    486c:	0c002657 	jal	0x995c
    4870:	afa3002c 	sw	v1,44(sp)
    4874:	100001e7 	b	0x5014
    4878:	00000000 	nop
    487c:	00101302 	srl	v0,s0,0xc
    4880:	30430fff 	andi	v1,v0,0xfff
    4884:	24020001 	li	v0,1
    4888:	10620005 	beq	v1,v0,0x48a0
    488c:	24020002 	li	v0,2
    4890:	1062001e 	beq	v1,v0,0x490c
    4894:	3c020002 	lui	v0,0x2
    4898:	10000033 	b	0x4968
    489c:	3c050003 	lui	a1,0x3
    48a0:	3c030002 	lui	v1,0x2
    48a4:	02c31024 	and	v0,s6,v1
    48a8:	54400037 	bnezl	v0,0x4988
    48ac:	02c3b025 	or	s6,s6,v1
    48b0:	8f820228 	lw	v0,552(gp)
    48b4:	3c010001 	lui	at,0x1
    48b8:	00370821 	addu	at,at,s7
    48bc:	ac2238d8 	sw	v0,14552(at)
    48c0:	8f82022c 	lw	v0,556(gp)
    48c4:	3c010001 	lui	at,0x1
    48c8:	00370821 	addu	at,at,s7
    48cc:	ac2238dc 	sw	v0,14556(at)
    48d0:	8f820230 	lw	v0,560(gp)
    48d4:	3c010001 	lui	at,0x1
    48d8:	00370821 	addu	at,at,s7
    48dc:	ac2238e0 	sw	v0,14560(at)
    48e0:	8f820234 	lw	v0,564(gp)
    48e4:	3c010001 	lui	at,0x1
    48e8:	00370821 	addu	at,at,s7
    48ec:	ac2238e4 	sw	v0,14564(at)
    48f0:	2402ffff 	li	v0,-1
    48f4:	af820228 	sw	v0,552(gp)
    48f8:	af82022c 	sw	v0,556(gp)
    48fc:	af820230 	sw	v0,560(gp)
    4900:	af820234 	sw	v0,564(gp)
    4904:	10000020 	b	0x4988
    4908:	02c3b025 	or	s6,s6,v1
    490c:	02c21024 	and	v0,s6,v0
    4910:	10400012 	beqz	v0,0x495c
    4914:	3c02fffd 	lui	v0,0xfffd
    4918:	3c020001 	lui	v0,0x1
    491c:	00571021 	addu	v0,v0,s7
    4920:	8c4238d8 	lw	v0,14552(v0)
    4924:	af820228 	sw	v0,552(gp)
    4928:	3c020001 	lui	v0,0x1
    492c:	00571021 	addu	v0,v0,s7
    4930:	8c4238dc 	lw	v0,14556(v0)
    4934:	af82022c 	sw	v0,556(gp)
    4938:	3c020001 	lui	v0,0x1
    493c:	00571021 	addu	v0,v0,s7
    4940:	8c4238e0 	lw	v0,14560(v0)
    4944:	af820230 	sw	v0,560(gp)
    4948:	3c020001 	lui	v0,0x1
    494c:	00571021 	addu	v0,v0,s7
    4950:	8c4238e4 	lw	v0,14564(v0)
    4954:	af820234 	sw	v0,564(gp)
    4958:	3c02fffd 	lui	v0,0xfffd
    495c:	3442ffff 	ori	v0,v0,0xffff
    4960:	10000009 	b	0x4988
    4964:	02c2b024 	and	s6,s6,v0
    4968:	3c040001 	lui	a0,0x1
    496c:	2484625c 	addiu	a0,a0,25180
    4970:	34a51100 	ori	a1,a1,0x1100
    4974:	02003021 	move	a2,s0
    4978:	00003821 	move	a3,zero
    497c:	afa00010 	sw	zero,16(sp)
    4980:	0c002b3b 	jal	0xacec
    4984:	afa00014 	sw	zero,20(sp)
    4988:	8f4202cc 	lw	v0,716(k0)
    498c:	24420001 	addiu	v0,v0,1
    4990:	af4202cc 	sw	v0,716(k0)
    4994:	1000019f 	b	0x5014
    4998:	8f4202cc 	lw	v0,716(k0)
    499c:	00101302 	srl	v0,s0,0xc
    49a0:	30450fff 	andi	a1,v0,0xfff
    49a4:	24020001 	li	v0,1
    49a8:	10a20005 	beq	a1,v0,0x49c0
    49ac:	24020002 	li	v0,2
    49b0:	10a2000d 	beq	a1,v0,0x49e8
    49b4:	3c0408ff 	lui	a0,0x8ff
    49b8:	10000014 	b	0x4a0c
    49bc:	3c050003 	lui	a1,0x3
    49c0:	3c0208ff 	lui	v0,0x8ff
    49c4:	3442ffff 	ori	v0,v0,0xffff
    49c8:	8f830220 	lw	v1,544(gp)
    49cc:	3c040004 	lui	a0,0x4
    49d0:	02c4b025 	or	s6,s6,a0
    49d4:	00621824 	and	v1,v1,v0
    49d8:	34630008 	ori	v1,v1,0x8
    49dc:	af830220 	sw	v1,544(gp)
    49e0:	10000012 	b	0x4a2c
    49e4:	af450298 	sw	a1,664(k0)
    49e8:	3484fff7 	ori	a0,a0,0xfff7
    49ec:	3c03fffb 	lui	v1,0xfffb
    49f0:	8f820220 	lw	v0,544(gp)
    49f4:	3463ffff 	ori	v1,v1,0xffff
    49f8:	02c3b024 	and	s6,s6,v1
    49fc:	00441024 	and	v0,v0,a0
    4a00:	af820220 	sw	v0,544(gp)
    4a04:	10000009 	b	0x4a2c
    4a08:	af450298 	sw	a1,664(k0)
    4a0c:	3c040001 	lui	a0,0x1
    4a10:	24846268 	addiu	a0,a0,25192
    4a14:	34a51200 	ori	a1,a1,0x1200
    4a18:	02003021 	move	a2,s0
    4a1c:	00003821 	move	a3,zero
    4a20:	afa00010 	sw	zero,16(sp)
    4a24:	0c002b3b 	jal	0xacec
    4a28:	afa00014 	sw	zero,20(sp)
    4a2c:	8f4202bc 	lw	v0,700(k0)
    4a30:	24420001 	addiu	v0,v0,1
    4a34:	af4202bc 	sw	v0,700(k0)
    4a38:	10000176 	b	0x5014
    4a3c:	8f4202bc 	lw	v0,700(k0)
    4a40:	27840208 	addiu	a0,gp,520
    4a44:	24050200 	li	a1,512
    4a48:	0c002bbf 	jal	0xaefc
    4a4c:	24060008 	li	a2,8
    4a50:	27440224 	addiu	a0,k0,548
    4a54:	24050200 	li	a1,512
    4a58:	0c002bbf 	jal	0xaefc
    4a5c:	24060008 	li	a2,8
    4a60:	8f4202c4 	lw	v0,708(k0)
    4a64:	24420001 	addiu	v0,v0,1
    4a68:	af4202c4 	sw	v0,708(k0)
    4a6c:	10000169 	b	0x5014
    4a70:	8f4202c4 	lw	v0,708(k0)
    4a74:	00101302 	srl	v0,s0,0xc
    4a78:	30430fff 	andi	v1,v0,0xfff
    4a7c:	24020001 	li	v0,1
    4a80:	10620011 	beq	v1,v0,0x4ac8
    4a84:	28620002 	slti	v0,v1,2
    4a88:	50400005 	beqzl	v0,0x4aa0
    4a8c:	24020002 	li	v0,2
    4a90:	10600007 	beqz	v1,0x4ab0
    4a94:	00000000 	nop
    4a98:	10000017 	b	0x4af8
    4a9c:	00000000 	nop
    4aa0:	1062000f 	beq	v1,v0,0x4ae0
    4aa4:	00000000 	nop
    4aa8:	10000013 	b	0x4af8
    4aac:	00000000 	nop
    4ab0:	8c060248 	lw	a2,584(zero)
    4ab4:	00002021 	move	a0,zero
    4ab8:	0c005104 	jal	0x14410
    4abc:	24050004 	li	a1,4
    4ac0:	10000007 	b	0x4ae0
    4ac4:	00000000 	nop
    4ac8:	8c060248 	lw	a2,584(zero)
    4acc:	00002021 	move	a0,zero
    4ad0:	0c005104 	jal	0x14410
    4ad4:	24050004 	li	a1,4
    4ad8:	10000010 	b	0x4b1c
    4adc:	00000000 	nop
    4ae0:	8c06024c 	lw	a2,588(zero)
    4ae4:	00002021 	move	a0,zero
    4ae8:	0c005104 	jal	0x14410
    4aec:	24050001 	li	a1,1
    4af0:	1000000a 	b	0x4b1c
    4af4:	00000000 	nop
    4af8:	3c040001 	lui	a0,0x1
    4afc:	24846274 	addiu	a0,a0,25204
    4b00:	3c050003 	lui	a1,0x3
    4b04:	34a51300 	ori	a1,a1,0x1300
    4b08:	02003021 	move	a2,s0
    4b0c:	00003821 	move	a3,zero
    4b10:	afa00010 	sw	zero,16(sp)
    4b14:	0c002b3b 	jal	0xacec
    4b18:	afa00014 	sw	zero,20(sp)
    4b1c:	8f4202c0 	lw	v0,704(k0)
    4b20:	24420001 	addiu	v0,v0,1
    4b24:	af4202c0 	sw	v0,704(k0)
    4b28:	1000013a 	b	0x5014
    4b2c:	8f4202c0 	lw	v0,704(k0)
    4b30:	0c002426 	jal	0x9098
    4b34:	00000000 	nop
    4b38:	10000136 	b	0x5014
    4b3c:	00000000 	nop
    4b40:	24020001 	li	v0,1
    4b44:	a34205c5 	sb	v0,1477(k0)
    4b48:	24100100 	li	s0,256
    4b4c:	8f4401a8 	lw	a0,424(k0)
    4b50:	8f4501ac 	lw	a1,428(k0)
    4b54:	afb00010 	sw	s0,16(sp)
    4b58:	afa00014 	sw	zero,20(sp)
    4b5c:	8f420014 	lw	v0,20(k0)
    4b60:	afa20018 	sw	v0,24(sp)
    4b64:	8f420108 	lw	v0,264(k0)
    4b68:	26e60028 	addiu	a2,s7,40
    4b6c:	0040f809 	jalr	v0
    4b70:	24070400 	li	a3,1024
    4b74:	1040fff5 	beqz	v0,0x4b4c
    4b78:	00000000 	nop
    4b7c:	10000125 	b	0x5014
    4b80:	00000000 	nop
    4b84:	3c03ffff 	lui	v1,0xffff
    4b88:	34637fff 	ori	v1,v1,0x7fff
    4b8c:	8f420368 	lw	v0,872(k0)
    4b90:	8f440360 	lw	a0,864(k0)
    4b94:	02c3b024 	and	s6,s6,v1
    4b98:	00001821 	move	v1,zero
    4b9c:	af400058 	sw	zero,88(k0)
    4ba0:	af40005c 	sw	zero,92(k0)
    4ba4:	af400060 	sw	zero,96(k0)
    4ba8:	af400064 	sw	zero,100(k0)
    4bac:	00441023 	subu	v0,v0,a0
    4bb0:	af420368 	sw	v0,872(k0)
    4bb4:	3c020900 	lui	v0,0x900
    4bb8:	af400360 	sw	zero,864(k0)
    4bbc:	afa20020 	sw	v0,32(sp)
    4bc0:	8f5e0018 	lw	s8,24(k0)
    4bc4:	27aa0020 	addiu	t2,sp,32
    4bc8:	240200ff 	li	v0,255
    4bcc:	13c20002 	beq	s8,v0,0x4bd8
    4bd0:	afaa003c 	sw	t2,60(sp)
    4bd4:	27c30001 	addiu	v1,s8,1
    4bd8:	8c020228 	lw	v0,552(zero)
    4bdc:	00609021 	move	s2,v1
    4be0:	1642000e 	bne	s2,v0,0x4c1c
    4be4:	001e38c0 	sll	a3,s8,0x3
    4be8:	8f42033c 	lw	v0,828(k0)
    4bec:	24420001 	addiu	v0,v0,1
    4bf0:	af42033c 	sw	v0,828(k0)
    4bf4:	8f42033c 	lw	v0,828(k0)
    4bf8:	8c020228 	lw	v0,552(zero)
    4bfc:	3c040001 	lui	a0,0x1
    4c00:	2484620c 	addiu	a0,a0,25100
    4c04:	3c050009 	lui	a1,0x9
    4c08:	afa00014 	sw	zero,20(sp)
    4c0c:	afa20010 	sw	v0,16(sp)
    4c10:	8fa60020 	lw	a2,32(sp)
    4c14:	1000006b 	b	0x4dc4
    4c18:	34a50500 	ori	a1,a1,0x500
    4c1c:	00f71021 	addu	v0,a3,s7
    4c20:	8fa30020 	lw	v1,32(sp)
    4c24:	8fa40024 	lw	a0,36(sp)
    4c28:	ac4304c0 	sw	v1,1216(v0)
    4c2c:	ac4404c4 	sw	a0,1220(v0)
    4c30:	8f830054 	lw	v1,84(gp)
    4c34:	8f820054 	lw	v0,84(gp)
    4c38:	247003e8 	addiu	s0,v1,1000
    4c3c:	02021023 	subu	v0,s0,v0
    4c40:	2c4203e9 	sltiu	v0,v0,1001
    4c44:	1040001b 	beqz	v0,0x4cb4
    4c48:	00009821 	move	s3,zero
    4c4c:	00e08821 	move	s1,a3
    4c50:	263504c0 	addiu	s5,s1,1216
    4c54:	8f440178 	lw	a0,376(k0)
    4c58:	8f45017c 	lw	a1,380(k0)
    4c5c:	02201821 	move	v1,s1
    4c60:	240a0004 	li	t2,4
    4c64:	afaa0010 	sw	t2,16(sp)
    4c68:	afb20014 	sw	s2,20(sp)
    4c6c:	8f48000c 	lw	t0,12(k0)
    4c70:	00001021 	move	v0,zero
    4c74:	02f53021 	addu	a2,s7,s5
    4c78:	afa80018 	sw	t0,24(sp)
    4c7c:	8f48010c 	lw	t0,268(k0)
    4c80:	24070008 	li	a3,8
    4c84:	00a32821 	addu	a1,a1,v1
    4c88:	00a3482b 	sltu	t1,a1,v1
    4c8c:	00822021 	addu	a0,a0,v0
    4c90:	0100f809 	jalr	t0
    4c94:	00892021 	addu	a0,a0,t1
    4c98:	54400006 	bnezl	v0,0x4cb4
    4c9c:	24130001 	li	s3,1
    4ca0:	8f820054 	lw	v0,84(gp)
    4ca4:	02021023 	subu	v0,s0,v0
    4ca8:	2c4203e9 	sltiu	v0,v0,1001
    4cac:	1440ffe9 	bnez	v0,0x4c54
    4cb0:	00000000 	nop
    4cb4:	326200ff 	andi	v0,s3,0xff
    4cb8:	54400017 	bnezl	v0,0x4d18
    4cbc:	af520018 	sw	s2,24(k0)
    4cc0:	8f420378 	lw	v0,888(k0)
    4cc4:	24420001 	addiu	v0,v0,1
    4cc8:	af420378 	sw	v0,888(k0)
    4ccc:	8f420378 	lw	v0,888(k0)
    4cd0:	8f820120 	lw	v0,288(gp)
    4cd4:	8faa003c 	lw	t2,60(sp)
    4cd8:	afa20010 	sw	v0,16(sp)
    4cdc:	8f820124 	lw	v0,292(gp)
    4ce0:	3c040001 	lui	a0,0x1
    4ce4:	24846218 	addiu	a0,a0,25112
    4ce8:	3c050009 	lui	a1,0x9
    4cec:	afa20014 	sw	v0,20(sp)
    4cf0:	8d460000 	lw	a2,0(t2)
    4cf4:	10000033 	b	0x4dc4
    4cf8:	34a50600 	ori	a1,a1,0x600
    4cfc:	8f420308 	lw	v0,776(k0)
    4d00:	24130001 	li	s3,1
    4d04:	24420001 	addiu	v0,v0,1
    4d08:	af420308 	sw	v0,776(k0)
    4d0c:	8f420308 	lw	v0,776(k0)
    4d10:	1000001c 	b	0x4d84
    4d14:	326200ff 	andi	v0,s3,0xff
    4d18:	8f830054 	lw	v1,84(gp)
    4d1c:	8f820054 	lw	v0,84(gp)
    4d20:	247003e8 	addiu	s0,v1,1000
    4d24:	02021023 	subu	v0,s0,v0
    4d28:	2c4203e9 	sltiu	v0,v0,1001
    4d2c:	10400014 	beqz	v0,0x4d80
    4d30:	00009821 	move	s3,zero
    4d34:	24110010 	li	s1,16
    4d38:	8f42000c 	lw	v0,12(k0)
    4d3c:	8f440160 	lw	a0,352(k0)
    4d40:	8f450164 	lw	a1,356(k0)
    4d44:	8f860120 	lw	a2,288(gp)
    4d48:	afb10010 	sw	s1,16(sp)
    4d4c:	afb20014 	sw	s2,20(sp)
    4d50:	afa20018 	sw	v0,24(sp)
    4d54:	8f42010c 	lw	v0,268(k0)
    4d58:	24070008 	li	a3,8
    4d5c:	0040f809 	jalr	v0
    4d60:	24c6001c 	addiu	a2,a2,28
    4d64:	1440ffe5 	bnez	v0,0x4cfc
    4d68:	00000000 	nop
    4d6c:	8f820054 	lw	v0,84(gp)
    4d70:	02021023 	subu	v0,s0,v0
    4d74:	2c4203e9 	sltiu	v0,v0,1001
    4d78:	1440ffef 	bnez	v0,0x4d38
    4d7c:	00000000 	nop
    4d80:	326200ff 	andi	v0,s3,0xff
    4d84:	14400011 	bnez	v0,0x4dcc
    4d88:	00000000 	nop
    4d8c:	8f420378 	lw	v0,888(k0)
    4d90:	24420001 	addiu	v0,v0,1
    4d94:	af420378 	sw	v0,888(k0)
    4d98:	8f420378 	lw	v0,888(k0)
    4d9c:	8f820120 	lw	v0,288(gp)
    4da0:	8faa003c 	lw	t2,60(sp)
    4da4:	afa20010 	sw	v0,16(sp)
    4da8:	8f820124 	lw	v0,292(gp)
    4dac:	3c040001 	lui	a0,0x1
    4db0:	24846220 	addiu	a0,a0,25120
    4db4:	3c050009 	lui	a1,0x9
    4db8:	afa20014 	sw	v0,20(sp)
    4dbc:	8d460000 	lw	a2,0(t2)
    4dc0:	34a50700 	ori	a1,a1,0x700
    4dc4:	0c002b3b 	jal	0xacec
    4dc8:	03c03821 	move	a3,s8
    4dcc:	8f4202b0 	lw	v0,688(k0)
    4dd0:	24420001 	addiu	v0,v0,1
    4dd4:	af4202b0 	sw	v0,688(k0)
    4dd8:	8f4202b0 	lw	v0,688(k0)
    4ddc:	8f4202f8 	lw	v0,760(k0)
    4de0:	24420001 	addiu	v0,v0,1
    4de4:	af4202f8 	sw	v0,760(k0)
    4de8:	1000008a 	b	0x5014
    4dec:	8f4202f8 	lw	v0,760(k0)
    4df0:	8c02025c 	lw	v0,604(zero)
    4df4:	27440224 	addiu	a0,k0,548
    4df8:	af4201f0 	sw	v0,496(k0)
    4dfc:	8c020260 	lw	v0,608(zero)
    4e00:	24050200 	li	a1,512
    4e04:	24060008 	li	a2,8
    4e08:	0c002bbf 	jal	0xaefc
    4e0c:	af4201f8 	sw	v0,504(k0)
    4e10:	8f820220 	lw	v0,544(gp)
    4e14:	30420008 	andi	v0,v0,0x8
    4e18:	14400002 	bnez	v0,0x4e24
    4e1c:	24020001 	li	v0,1
    4e20:	24020002 	li	v0,2
    4e24:	af420298 	sw	v0,664(k0)
    4e28:	8f4202ac 	lw	v0,684(k0)
    4e2c:	24420001 	addiu	v0,v0,1
    4e30:	af4202ac 	sw	v0,684(k0)
    4e34:	10000077 	b	0x5014
    4e38:	8f4202ac 	lw	v0,684(k0)
    4e3c:	3c0200ff 	lui	v0,0xff
    4e40:	3442ffff 	ori	v0,v0,0xffff
    4e44:	02021824 	and	v1,s0,v0
    4e48:	32c20180 	andi	v0,s6,0x180
    4e4c:	14400006 	bnez	v0,0x4e68
    4e50:	3402fffb 	li	v0,0xfffb
    4e54:	0043102b 	sltu	v0,v0,v1
    4e58:	14400003 	bnez	v0,0x4e68
    4e5c:	00000000 	nop
    4e60:	1000006c 	b	0x5014
    4e64:	af4300bc 	sw	v1,188(k0)
    4e68:	3c040001 	lui	a0,0x1
    4e6c:	24846280 	addiu	a0,a0,25216
    4e70:	3c050003 	lui	a1,0x3
    4e74:	34a51500 	ori	a1,a1,0x1500
    4e78:	02003021 	move	a2,s0
    4e7c:	00003821 	move	a3,zero
    4e80:	afa00010 	sw	zero,16(sp)
    4e84:	0c002b3b 	jal	0xacec
    4e88:	afa00014 	sw	zero,20(sp)
    4e8c:	3c020700 	lui	v0,0x700
    4e90:	34421000 	ori	v0,v0,0x1000
    4e94:	00101e02 	srl	v1,s0,0x18
    4e98:	00621825 	or	v1,v1,v0
    4e9c:	afa30020 	sw	v1,32(sp)
    4ea0:	8f510018 	lw	s1,24(k0)
    4ea4:	240200ff 	li	v0,255
    4ea8:	12220002 	beq	s1,v0,0x4eb4
    4eac:	00008021 	move	s0,zero
    4eb0:	26300001 	addiu	s0,s1,1
    4eb4:	8c020228 	lw	v0,552(zero)
    4eb8:	1602000e 	bne	s0,v0,0x4ef4
    4ebc:	001130c0 	sll	a2,s1,0x3
    4ec0:	8f42033c 	lw	v0,828(k0)
    4ec4:	24420001 	addiu	v0,v0,1
    4ec8:	af42033c 	sw	v0,828(k0)
    4ecc:	8f42033c 	lw	v0,828(k0)
    4ed0:	8c020228 	lw	v0,552(zero)
    4ed4:	3c040001 	lui	a0,0x1
    4ed8:	248461f4 	addiu	a0,a0,25076
    4edc:	3c050009 	lui	a1,0x9
    4ee0:	afa00014 	sw	zero,20(sp)
    4ee4:	afa20010 	sw	v0,16(sp)
    4ee8:	8fa60020 	lw	a2,32(sp)
    4eec:	1000003f 	b	0x4fec
    4ef0:	34a50100 	ori	a1,a1,0x100
    4ef4:	00d71021 	addu	v0,a2,s7
    4ef8:	8fa30020 	lw	v1,32(sp)
    4efc:	8fa40024 	lw	a0,36(sp)
    4f00:	ac4304c0 	sw	v1,1216(v0)
    4f04:	ac4404c4 	sw	a0,1220(v0)
    4f08:	00c01821 	move	v1,a2
    4f0c:	8f440178 	lw	a0,376(k0)
    4f10:	8f45017c 	lw	a1,380(k0)
    4f14:	00001021 	move	v0,zero
    4f18:	24070004 	li	a3,4
    4f1c:	afa70010 	sw	a3,16(sp)
    4f20:	afb00014 	sw	s0,20(sp)
    4f24:	8f48000c 	lw	t0,12(k0)
    4f28:	24c604c0 	addiu	a2,a2,1216
    4f2c:	02e63021 	addu	a2,s7,a2
    4f30:	afa80018 	sw	t0,24(sp)
    4f34:	8f48010c 	lw	t0,268(k0)
    4f38:	24070008 	li	a3,8
    4f3c:	00a32821 	addu	a1,a1,v1
    4f40:	00a3482b 	sltu	t1,a1,v1
    4f44:	00822021 	addu	a0,a0,v0
    4f48:	0100f809 	jalr	t0
    4f4c:	00892021 	addu	a0,a0,t1
    4f50:	1440000b 	bnez	v0,0x4f80
    4f54:	24070008 	li	a3,8
    4f58:	8f820120 	lw	v0,288(gp)
    4f5c:	afa20010 	sw	v0,16(sp)
    4f60:	8f820124 	lw	v0,292(gp)
    4f64:	3c040001 	lui	a0,0x1
    4f68:	248461fc 	addiu	a0,a0,25084
    4f6c:	3c050009 	lui	a1,0x9
    4f70:	afa20014 	sw	v0,20(sp)
    4f74:	8fa60020 	lw	a2,32(sp)
    4f78:	1000001c 	b	0x4fec
    4f7c:	34a50200 	ori	a1,a1,0x200
    4f80:	8f440160 	lw	a0,352(k0)
    4f84:	8f450164 	lw	a1,356(k0)
    4f88:	8f43000c 	lw	v1,12(k0)
    4f8c:	af500018 	sw	s0,24(k0)
    4f90:	8f860120 	lw	a2,288(gp)
    4f94:	24020010 	li	v0,16
    4f98:	afa20010 	sw	v0,16(sp)
    4f9c:	afb00014 	sw	s0,20(sp)
    4fa0:	afa30018 	sw	v1,24(sp)
    4fa4:	8f42010c 	lw	v0,268(k0)
    4fa8:	0040f809 	jalr	v0
    4fac:	24c6001c 	addiu	a2,a2,28
    4fb0:	14400010 	bnez	v0,0x4ff4
    4fb4:	00000000 	nop
    4fb8:	8f420340 	lw	v0,832(k0)
    4fbc:	24420001 	addiu	v0,v0,1
    4fc0:	af420340 	sw	v0,832(k0)
    4fc4:	8f420340 	lw	v0,832(k0)
    4fc8:	8f820120 	lw	v0,288(gp)
    4fcc:	afa20010 	sw	v0,16(sp)
    4fd0:	8f820124 	lw	v0,292(gp)
    4fd4:	3c040001 	lui	a0,0x1
    4fd8:	24846204 	addiu	a0,a0,25092
    4fdc:	3c050009 	lui	a1,0x9
    4fe0:	afa20014 	sw	v0,20(sp)
    4fe4:	8fa60020 	lw	a2,32(sp)
    4fe8:	34a50300 	ori	a1,a1,0x300
    4fec:	0c002b3b 	jal	0xacec
    4ff0:	02203821 	move	a3,s1
    4ff4:	8f4202e0 	lw	v0,736(k0)
    4ff8:	24420001 	addiu	v0,v0,1
    4ffc:	af4202e0 	sw	v0,736(k0)
    5000:	8f4202e0 	lw	v0,736(k0)
    5004:	8f4202f0 	lw	v0,752(k0)
    5008:	24420001 	addiu	v0,v0,1
    500c:	af4202f0 	sw	v0,752(k0)
    5010:	8f4202f0 	lw	v0,752(k0)
    5014:	8fa20034 	lw	v0,52(sp)
    5018:	8fbf0058 	lw	ra,88(sp)
    501c:	8fbe0054 	lw	s8,84(sp)
    5020:	8fb50050 	lw	s5,80(sp)
    5024:	8fb3004c 	lw	s3,76(sp)
    5028:	8fb20048 	lw	s2,72(sp)
    502c:	8fb10044 	lw	s1,68(sp)
    5030:	8fb00040 	lw	s0,64(sp)
    5034:	03e00008 	jr	ra
    5038:	27bd0060 	addiu	sp,sp,96
    503c:	27bdfff8 	addiu	sp,sp,-8
    5040:	2408ffff 	li	t0,-1
    5044:	10a00014 	beqz	a1,0x5098
    5048:	00004821 	move	t1,zero
    504c:	3c0aedb8 	lui	t2,0xedb8
    5050:	354a8320 	ori	t2,t2,0x8320
    5054:	90870000 	lbu	a3,0(a0)
    5058:	24840001 	addiu	a0,a0,1
    505c:	00003021 	move	a2,zero
    5060:	01071026 	xor	v0,t0,a3
    5064:	30420001 	andi	v0,v0,0x1
    5068:	10400002 	beqz	v0,0x5074
    506c:	00081842 	srl	v1,t0,0x1
    5070:	006a1826 	xor	v1,v1,t2
    5074:	00604021 	move	t0,v1
    5078:	24c60001 	addiu	a2,a2,1
    507c:	2cc20008 	sltiu	v0,a2,8
    5080:	1440fff7 	bnez	v0,0x5060
    5084:	00073842 	srl	a3,a3,0x1
    5088:	25290001 	addiu	t1,t1,1
    508c:	0125102b 	sltu	v0,t1,a1
    5090:	1440fff0 	bnez	v0,0x5054
    5094:	00000000 	nop
    5098:	01001021 	move	v0,t0
    509c:	03e00008 	jr	ra
    50a0:	27bd0008 	addiu	sp,sp,8
    50a4:	27bdffb0 	addiu	sp,sp,-80
    50a8:	afbf0048 	sw	ra,72(sp)
    50ac:	afbe0044 	sw	s8,68(sp)
    50b0:	afb50040 	sw	s5,64(sp)
    50b4:	afb3003c 	sw	s3,60(sp)
    50b8:	afb20038 	sw	s2,56(sp)
    50bc:	afb10034 	sw	s1,52(sp)
    50c0:	afb00030 	sw	s0,48(sp)
    50c4:	8f870220 	lw	a3,544(gp)
    50c8:	afa70024 	sw	a3,36(sp)
    50cc:	8f870200 	lw	a3,512(gp)
    50d0:	afa7002c 	sw	a3,44(sp)
    50d4:	8f820220 	lw	v0,544(gp)
    50d8:	3c0308ff 	lui	v1,0x8ff
    50dc:	3463ffff 	ori	v1,v1,0xffff
    50e0:	00431024 	and	v0,v0,v1
    50e4:	34420004 	ori	v0,v0,0x4
    50e8:	af820220 	sw	v0,544(gp)
    50ec:	8f820200 	lw	v0,512(gp)
    50f0:	3c03c0ff 	lui	v1,0xc0ff
    50f4:	3463ffff 	ori	v1,v1,0xffff
    50f8:	00431024 	and	v0,v0,v1
    50fc:	34420004 	ori	v0,v0,0x4
    5100:	af820200 	sw	v0,512(gp)
    5104:	8f530358 	lw	s3,856(k0)
    5108:	8f55035c 	lw	s5,860(k0)
    510c:	8f5e0360 	lw	s8,864(k0)
    5110:	8f470364 	lw	a3,868(k0)
    5114:	afa70014 	sw	a3,20(sp)
    5118:	8f470368 	lw	a3,872(k0)
    511c:	afa7001c 	sw	a3,28(sp)
    5120:	8f4202d0 	lw	v0,720(k0)
    5124:	274401c0 	addiu	a0,k0,448
    5128:	24420001 	addiu	v0,v0,1
    512c:	af4202d0 	sw	v0,720(k0)
    5130:	8f5002d0 	lw	s0,720(k0)
    5134:	8f510204 	lw	s1,516(k0)
    5138:	8f520200 	lw	s2,512(k0)
    513c:	0c002ba8 	jal	0xaea0
    5140:	24050400 	li	a1,1024
    5144:	af530358 	sw	s3,856(k0)
    5148:	af55035c 	sw	s5,860(k0)
    514c:	af5e0360 	sw	s8,864(k0)
    5150:	8fa70014 	lw	a3,20(sp)
    5154:	af470364 	sw	a3,868(k0)
    5158:	8fa7001c 	lw	a3,28(sp)
    515c:	af470368 	sw	a3,872(k0)
    5160:	af5002d0 	sw	s0,720(k0)
    5164:	af510204 	sw	s1,516(k0)
    5168:	af520200 	sw	s2,512(k0)
    516c:	8c02025c 	lw	v0,604(zero)
    5170:	27440224 	addiu	a0,k0,548
    5174:	af4201f0 	sw	v0,496(k0)
    5178:	8c020260 	lw	v0,608(zero)
    517c:	24050200 	li	a1,512
    5180:	24060008 	li	a2,8
    5184:	af4201f8 	sw	v0,504(k0)
    5188:	24020006 	li	v0,6
    518c:	0c002bbf 	jal	0xaefc
    5190:	af4201f4 	sw	v0,500(k0)
    5194:	3c023b9a 	lui	v0,0x3b9a
    5198:	3442ca00 	ori	v0,v0,0xca00
    519c:	af4201fc 	sw	v0,508(k0)
    51a0:	240203e8 	li	v0,1000
    51a4:	24040002 	li	a0,2
    51a8:	24030001 	li	v1,1
    51ac:	af420294 	sw	v0,660(k0)
    51b0:	af440290 	sw	a0,656(k0)
    51b4:	af43029c 	sw	v1,668(k0)
    51b8:	8f820220 	lw	v0,544(gp)
    51bc:	30420008 	andi	v0,v0,0x8
    51c0:	10400004 	beqz	v0,0x51d4
    51c4:	00000000 	nop
    51c8:	af430298 	sw	v1,664(k0)
    51cc:	10000003 	b	0x51dc
    51d0:	00003021 	move	a2,zero
    51d4:	af440298 	sw	a0,664(k0)
    51d8:	00003021 	move	a2,zero
    51dc:	3c030001 	lui	v1,0x1
    51e0:	00661821 	addu	v1,v1,a2
    51e4:	90636d00 	lbu	v1,27904(v1)
    51e8:	03461021 	addu	v0,k0,a2
    51ec:	24c60001 	addiu	a2,a2,1
    51f0:	a043022c 	sb	v1,556(v0)
    51f4:	2cc2000f 	sltiu	v0,a2,15
    51f8:	1440fff8 	bnez	v0,0x51dc
    51fc:	03461821 	addu	v1,k0,a2
    5200:	24c60001 	addiu	a2,a2,1
    5204:	8f820040 	lw	v0,64(gp)
    5208:	24040080 	li	a0,128
    520c:	24050080 	li	a1,128
    5210:	00021702 	srl	v0,v0,0x1c
    5214:	24420030 	addiu	v0,v0,48
    5218:	a062022c 	sb	v0,556(v1)
    521c:	03461021 	addu	v0,k0,a2
    5220:	0c002ba8 	jal	0xaea0
    5224:	a040022c 	sb	zero,556(v0)
    5228:	8fa70024 	lw	a3,36(sp)
    522c:	30e20004 	andi	v0,a3,0x4
    5230:	14400006 	bnez	v0,0x524c
    5234:	00000000 	nop
    5238:	8f820220 	lw	v0,544(gp)
    523c:	3c0308ff 	lui	v1,0x8ff
    5240:	3463fffb 	ori	v1,v1,0xfffb
    5244:	00431024 	and	v0,v0,v1
    5248:	af820220 	sw	v0,544(gp)
    524c:	8fa7002c 	lw	a3,44(sp)
    5250:	30e20004 	andi	v0,a3,0x4
    5254:	14400006 	bnez	v0,0x5270
    5258:	00000000 	nop
    525c:	8f820200 	lw	v0,512(gp)
    5260:	3c03c0ff 	lui	v1,0xc0ff
    5264:	3463fffb 	ori	v1,v1,0xfffb
    5268:	00431024 	and	v0,v0,v1
    526c:	af820200 	sw	v0,512(gp)
    5270:	8fbf0048 	lw	ra,72(sp)
    5274:	8fbe0044 	lw	s8,68(sp)
    5278:	8fb50040 	lw	s5,64(sp)
    527c:	8fb3003c 	lw	s3,60(sp)
    5280:	8fb20038 	lw	s2,56(sp)
    5284:	8fb10034 	lw	s1,52(sp)
    5288:	8fb00030 	lw	s0,48(sp)
    528c:	03e00008 	jr	ra
    5290:	27bd0050 	addiu	sp,sp,80
	...
    529c:	af400104 	sw	zero,260(k0)
    52a0:	24040001 	li	a0,1
    52a4:	000410c0 	sll	v0,a0,0x3
    52a8:	02e21821 	addu	v1,s7,v0
    52ac:	24820001 	addiu	v0,a0,1
    52b0:	3c010001 	lui	at,0x1
    52b4:	00230821 	addu	at,at,v1
    52b8:	a42234d0 	sh	v0,13520(at)
    52bc:	00402021 	move	a0,v0
    52c0:	2c820080 	sltiu	v0,a0,128
    52c4:	1440fff8 	bnez	v0,0x52a8
    52c8:	000410c0 	sll	v0,a0,0x3
    52cc:	24020001 	li	v0,1
    52d0:	3c010001 	lui	at,0x1
    52d4:	00370821 	addu	at,at,s7
    52d8:	a42038d0 	sh	zero,14544(at)
    52dc:	af420100 	sw	v0,256(k0)
    52e0:	af800228 	sw	zero,552(gp)
    52e4:	af80022c 	sw	zero,556(gp)
    52e8:	af800230 	sw	zero,560(gp)
    52ec:	af800234 	sw	zero,564(gp)
    52f0:	03e00008 	jr	ra
    52f4:	00000000 	nop
    52f8:	27bdffe8 	addiu	sp,sp,-24
    52fc:	afbf0014 	sw	ra,20(sp)
    5300:	afb00010 	sw	s0,16(sp)
    5304:	8f420104 	lw	v0,260(k0)
    5308:	28420005 	slti	v0,v0,5
    530c:	10400026 	beqz	v0,0x53a8
    5310:	00808021 	move	s0,a0
    5314:	3c020001 	lui	v0,0x1
    5318:	8f430104 	lw	v1,260(k0)
    531c:	344230d0 	ori	v0,v0,0x30d0
    5320:	02e22021 	addu	a0,s7,v0
    5324:	000318c0 	sll	v1,v1,0x3
    5328:	00621821 	addu	v1,v1,v0
    532c:	02e31821 	addu	v1,s7,v1
    5330:	0083102b 	sltu	v0,a0,v1
    5334:	10400015 	beqz	v0,0x538c
    5338:	00001021 	move	v0,zero
    533c:	96070000 	lhu	a3,0(s0)
    5340:	24840006 	addiu	a0,a0,6
    5344:	24660006 	addiu	a2,v1,6
    5348:	9482fffc 	lhu	v0,-4(a0)
    534c:	14470009 	bne	v0,a3,0x5374
    5350:	00002821 	move	a1,zero
    5354:	9483fffe 	lhu	v1,-2(a0)
    5358:	96020002 	lhu	v0,2(s0)
    535c:	14620006 	bne	v1,v0,0x5378
    5360:	00a01021 	move	v0,a1
    5364:	94820000 	lhu	v0,0(a0)
    5368:	96030004 	lhu	v1,4(s0)
    536c:	00431026 	xor	v0,v0,v1
    5370:	2c450001 	sltiu	a1,v0,1
    5374:	00a01021 	move	v0,a1
    5378:	14400009 	bnez	v0,0x53a0
    537c:	24840008 	addiu	a0,a0,8
    5380:	0086102b 	sltu	v0,a0,a2
    5384:	1440fff0 	bnez	v0,0x5348
    5388:	00001021 	move	v0,zero
    538c:	304200ff 	andi	v0,v0,0xff
    5390:	14400030 	bnez	v0,0x5454
    5394:	24020001 	li	v0,1
    5398:	1000002e 	b	0x5454
    539c:	00001021 	move	v0,zero
    53a0:	1000fffa 	b	0x538c
    53a4:	24020001 	li	v0,1
    53a8:	02002021 	move	a0,s0
    53ac:	0c00240c 	jal	0x9030
    53b0:	24050006 	li	a1,6
    53b4:	3042007f 	andi	v0,v0,0x7f
    53b8:	000218c0 	sll	v1,v0,0x3
    53bc:	02e31021 	addu	v0,s7,v1
    53c0:	3c010001 	lui	at,0x1
    53c4:	00220821 	addu	at,at,v0
    53c8:	942230d0 	lhu	v0,12496(at)
    53cc:	1040fff2 	beqz	v0,0x5398
    53d0:	02e31021 	addu	v0,s7,v1
    53d4:	3c060001 	lui	a2,0x1
    53d8:	00c23021 	addu	a2,a2,v0
    53dc:	94c630d0 	lhu	a2,12496(a2)
    53e0:	10c0ffed 	beqz	a2,0x5398
    53e4:	3c080001 	lui	t0,0x1
    53e8:	350834d2 	ori	t0,t0,0x34d2
    53ec:	96070000 	lhu	a3,0(s0)
    53f0:	000610c0 	sll	v0,a2,0x3
    53f4:	00572021 	addu	a0,v0,s7
    53f8:	00882021 	addu	a0,a0,t0
    53fc:	94820000 	lhu	v0,0(a0)
    5400:	14470009 	bne	v0,a3,0x5428
    5404:	00002821 	move	a1,zero
    5408:	94830002 	lhu	v1,2(a0)
    540c:	96020002 	lhu	v0,2(s0)
    5410:	14620006 	bne	v1,v0,0x542c
    5414:	00a01021 	move	v0,a1
    5418:	94820004 	lhu	v0,4(a0)
    541c:	96030004 	lhu	v1,4(s0)
    5420:	00431026 	xor	v0,v0,v1
    5424:	2c450001 	sltiu	a1,v0,1
    5428:	00a01021 	move	v0,a1
    542c:	14400007 	bnez	v0,0x544c
    5430:	000610c0 	sll	v0,a2,0x3
    5434:	02e21021 	addu	v0,s7,v0
    5438:	3c060001 	lui	a2,0x1
    543c:	00c23021 	addu	a2,a2,v0
    5440:	94c634d0 	lhu	a2,13520(a2)
    5444:	14c0ffeb 	bnez	a2,0x53f4
    5448:	000610c0 	sll	v0,a2,0x3
    544c:	10c0ffd2 	beqz	a2,0x5398
    5450:	24020001 	li	v0,1
    5454:	8fbf0014 	lw	ra,20(sp)
    5458:	8fb00010 	lw	s0,16(sp)
    545c:	03e00008 	jr	ra
    5460:	27bd0018 	addiu	sp,sp,24
    5464:	03e00008 	jr	ra
    5468:	00000000 	nop
    546c:	27bdffb0 	addiu	sp,sp,-80
    5470:	00801021 	move	v0,a0
    5474:	afb00030 	sw	s0,48(sp)
    5478:	24500002 	addiu	s0,v0,2
    547c:	02002021 	move	a0,s0
    5480:	24050006 	li	a1,6
    5484:	afb10034 	sw	s1,52(sp)
    5488:	00408821 	move	s1,v0
    548c:	afbf0048 	sw	ra,72(sp)
    5490:	afbe0044 	sw	s8,68(sp)
    5494:	afb50040 	sw	s5,64(sp)
    5498:	afb3003c 	sw	s3,60(sp)
    549c:	0c00240c 	jal	0x9030
    54a0:	afb20038 	sw	s2,56(sp)
    54a4:	3047007f 	andi	a3,v0,0x7f
    54a8:	000710c0 	sll	v0,a3,0x3
    54ac:	02e21021 	addu	v0,s7,v0
    54b0:	3c050001 	lui	a1,0x1
    54b4:	00a22821 	addu	a1,a1,v0
    54b8:	94a530d0 	lhu	a1,12496(a1)
    54bc:	50a0001c 	beqzl	a1,0x5530
    54c0:	00a03021 	move	a2,a1
    54c4:	3c090001 	lui	t1,0x1
    54c8:	352934d2 	ori	t1,t1,0x34d2
    54cc:	96280002 	lhu	t0,2(s1)
    54d0:	000510c0 	sll	v0,a1,0x3
    54d4:	00572021 	addu	a0,v0,s7
    54d8:	00892021 	addu	a0,a0,t1
    54dc:	94820000 	lhu	v0,0(a0)
    54e0:	14480009 	bne	v0,t0,0x5508
    54e4:	00003021 	move	a2,zero
    54e8:	94830002 	lhu	v1,2(a0)
    54ec:	96020002 	lhu	v0,2(s0)
    54f0:	14620006 	bne	v1,v0,0x550c
    54f4:	00c01021 	move	v0,a2
    54f8:	94820004 	lhu	v0,4(a0)
    54fc:	96030004 	lhu	v1,4(s0)
    5500:	00431026 	xor	v0,v0,v1
    5504:	2c460001 	sltiu	a2,v0,1
    5508:	00c01021 	move	v0,a2
    550c:	14400007 	bnez	v0,0x552c
    5510:	000510c0 	sll	v0,a1,0x3
    5514:	02e21021 	addu	v0,s7,v0
    5518:	3c050001 	lui	a1,0x1
    551c:	00a22821 	addu	a1,a1,v0
    5520:	94a534d0 	lhu	a1,13520(a1)
    5524:	14a0ffeb 	bnez	a1,0x54d4
    5528:	000510c0 	sll	v0,a1,0x3
    552c:	00a03021 	move	a2,a1
    5530:	10c00014 	beqz	a2,0x5584
    5534:	000610c0 	sll	v0,a2,0x3
    5538:	00571821 	addu	v1,v0,s7
    553c:	3c010001 	lui	at,0x1
    5540:	00230821 	addu	at,at,v1
    5544:	8c2334d0 	lw	v1,13520(at)
    5548:	00571021 	addu	v0,v0,s7
    554c:	afa30010 	sw	v1,16(sp)
    5550:	3c010001 	lui	at,0x1
    5554:	00220821 	addu	at,at,v0
    5558:	8c2234d4 	lw	v0,13524(at)
    555c:	3c040001 	lui	a0,0x1
    5560:	24846394 	addiu	a0,a0,25492
    5564:	afa20014 	sw	v0,20(sp)
    5568:	8e260000 	lw	a2,0(s1)
    556c:	8e270004 	lw	a3,4(s1)
    5570:	3c050004 	lui	a1,0x4
    5574:	0c002b3b 	jal	0xacec
    5578:	34a50400 	ori	a1,a1,0x400
    557c:	10000063 	b	0x570c
    5580:	3c020800 	lui	v0,0x800
    5584:	8f450100 	lw	a1,256(k0)
    5588:	10a00006 	beqz	a1,0x55a4
    558c:	000510c0 	sll	v0,a1,0x3
    5590:	02e21021 	addu	v0,s7,v0
    5594:	3c010001 	lui	at,0x1
    5598:	00220821 	addu	at,at,v0
    559c:	942234d0 	lhu	v0,13520(at)
    55a0:	af420100 	sw	v0,256(k0)
    55a4:	00a03021 	move	a2,a1
    55a8:	14c00011 	bnez	a2,0x55f0
    55ac:	000628c0 	sll	a1,a2,0x3
    55b0:	000710c0 	sll	v0,a3,0x3
    55b4:	02e21021 	addu	v0,s7,v0
    55b8:	afa70010 	sw	a3,16(sp)
    55bc:	3c010001 	lui	at,0x1
    55c0:	00220821 	addu	at,at,v0
    55c4:	942230d0 	lhu	v0,12496(at)
    55c8:	3c040001 	lui	a0,0x1
    55cc:	248463a0 	addiu	a0,a0,25504
    55d0:	afa20014 	sw	v0,20(sp)
    55d4:	8e260000 	lw	a2,0(s1)
    55d8:	8e270004 	lw	a3,4(s1)
    55dc:	3c050004 	lui	a1,0x4
    55e0:	0c002b3b 	jal	0xacec
    55e4:	34a50500 	ori	a1,a1,0x500
    55e8:	10000048 	b	0x570c
    55ec:	3c020800 	lui	v0,0x800
    55f0:	00b71821 	addu	v1,a1,s7
    55f4:	3c020001 	lui	v0,0x1
    55f8:	96040000 	lhu	a0,0(s0)
    55fc:	344234d2 	ori	v0,v0,0x34d2
    5600:	00621821 	addu	v1,v1,v0
    5604:	a4640000 	sh	a0,0(v1)
    5608:	8e020002 	lw	v0,2(s0)
    560c:	000720c0 	sll	a0,a3,0x3
    5610:	ac620002 	sw	v0,2(v1)
    5614:	02e41021 	addu	v0,s7,a0
    5618:	3c030001 	lui	v1,0x1
    561c:	00621821 	addu	v1,v1,v0
    5620:	946330d0 	lhu	v1,12496(v1)
    5624:	02e51021 	addu	v0,s7,a1
    5628:	3c010001 	lui	at,0x1
    562c:	00220821 	addu	at,at,v0
    5630:	a42334d0 	sh	v1,13520(at)
    5634:	02e41021 	addu	v0,s7,a0
    5638:	3c010001 	lui	at,0x1
    563c:	00220821 	addu	at,at,v0
    5640:	a42630d0 	sh	a2,12496(at)
    5644:	8f420104 	lw	v0,260(k0)
    5648:	24420001 	addiu	v0,v0,1
    564c:	28420080 	slti	v0,v0,128
    5650:	1040000f 	beqz	v0,0x5690
    5654:	3c020002 	lui	v0,0x2
    5658:	8f420104 	lw	v0,260(k0)
    565c:	3c040001 	lui	a0,0x1
    5660:	348430d2 	ori	a0,a0,0x30d2
    5664:	96030000 	lhu	v1,0(s0)
    5668:	000210c0 	sll	v0,v0,0x3
    566c:	00571021 	addu	v0,v0,s7
    5670:	00441021 	addu	v0,v0,a0
    5674:	a4430000 	sh	v1,0(v0)
    5678:	8e030002 	lw	v1,2(s0)
    567c:	ac430002 	sw	v1,2(v0)
    5680:	8f420104 	lw	v0,260(k0)
    5684:	24420001 	addiu	v0,v0,1
    5688:	af420104 	sw	v0,260(k0)
    568c:	3c020002 	lui	v0,0x2
    5690:	02c21024 	and	v0,s6,v0
    5694:	10400011 	beqz	v0,0x56dc
    5698:	00072142 	srl	a0,a3,0x5
    569c:	3c030001 	lui	v1,0x1
    56a0:	346338d8 	ori	v1,v1,0x38d8
    56a4:	24020003 	li	v0,3
    56a8:	00441023 	subu	v0,v0,a0
    56ac:	00021080 	sll	v0,v0,0x2
    56b0:	00572021 	addu	a0,v0,s7
    56b4:	00832021 	addu	a0,a0,v1
    56b8:	00571021 	addu	v0,v0,s7
    56bc:	00431021 	addu	v0,v0,v1
    56c0:	30e5001f 	andi	a1,a3,0x1f
    56c4:	8c430000 	lw	v1,0(v0)
    56c8:	24020001 	li	v0,1
    56cc:	00a21004 	sllv	v0,v0,a1
    56d0:	00621825 	or	v1,v1,v0
    56d4:	1000000c 	b	0x5708
    56d8:	ac830000 	sw	v1,0(a0)
    56dc:	24020003 	li	v0,3
    56e0:	00441023 	subu	v0,v0,a0
    56e4:	00021080 	sll	v0,v0,0x2
    56e8:	005c2821 	addu	a1,v0,gp
    56ec:	005c1021 	addu	v0,v0,gp
    56f0:	30e4001f 	andi	a0,a3,0x1f
    56f4:	8c430228 	lw	v1,552(v0)
    56f8:	24020001 	li	v0,1
    56fc:	00821004 	sllv	v0,v0,a0
    5700:	00621825 	or	v1,v1,v0
    5704:	aca30228 	sw	v1,552(a1)
    5708:	3c020800 	lui	v0,0x800
    570c:	34421000 	ori	v0,v0,0x1000
    5710:	00001821 	move	v1,zero
    5714:	afa20020 	sw	v0,32(sp)
    5718:	8f5e0018 	lw	s8,24(k0)
    571c:	27aa0020 	addiu	t2,sp,32
    5720:	240200ff 	li	v0,255
    5724:	13c20002 	beq	s8,v0,0x5730
    5728:	afaa002c 	sw	t2,44(sp)
    572c:	27c30001 	addiu	v1,s8,1
    5730:	8c020228 	lw	v0,552(zero)
    5734:	00609021 	move	s2,v1
    5738:	1642000e 	bne	s2,v0,0x5774
    573c:	001e38c0 	sll	a3,s8,0x3
    5740:	8f42033c 	lw	v0,828(k0)
    5744:	24420001 	addiu	v0,v0,1
    5748:	af42033c 	sw	v0,828(k0)
    574c:	8f42033c 	lw	v0,828(k0)
    5750:	8c020228 	lw	v0,552(zero)
    5754:	3c040001 	lui	a0,0x1
    5758:	2484635c 	addiu	a0,a0,25436
    575c:	3c050009 	lui	a1,0x9
    5760:	afa00014 	sw	zero,20(sp)
    5764:	afa20010 	sw	v0,16(sp)
    5768:	8fa60020 	lw	a2,32(sp)
    576c:	1000006b 	b	0x591c
    5770:	34a50500 	ori	a1,a1,0x500
    5774:	00f71021 	addu	v0,a3,s7
    5778:	8fa30020 	lw	v1,32(sp)
    577c:	8fa40024 	lw	a0,36(sp)
    5780:	ac4304c0 	sw	v1,1216(v0)
    5784:	ac4404c4 	sw	a0,1220(v0)
    5788:	8f830054 	lw	v1,84(gp)
    578c:	8f820054 	lw	v0,84(gp)
    5790:	247003e8 	addiu	s0,v1,1000
    5794:	02021023 	subu	v0,s0,v0
    5798:	2c4203e9 	sltiu	v0,v0,1001
    579c:	1040001b 	beqz	v0,0x580c
    57a0:	00009821 	move	s3,zero
    57a4:	00e08821 	move	s1,a3
    57a8:	263504c0 	addiu	s5,s1,1216
    57ac:	8f440178 	lw	a0,376(k0)
    57b0:	8f45017c 	lw	a1,380(k0)
    57b4:	02201821 	move	v1,s1
    57b8:	240a0004 	li	t2,4
    57bc:	afaa0010 	sw	t2,16(sp)
    57c0:	afb20014 	sw	s2,20(sp)
    57c4:	8f48000c 	lw	t0,12(k0)
    57c8:	00001021 	move	v0,zero
    57cc:	02f53021 	addu	a2,s7,s5
    57d0:	afa80018 	sw	t0,24(sp)
    57d4:	8f48010c 	lw	t0,268(k0)
    57d8:	24070008 	li	a3,8
    57dc:	00a32821 	addu	a1,a1,v1
    57e0:	00a3482b 	sltu	t1,a1,v1
    57e4:	00822021 	addu	a0,a0,v0
    57e8:	0100f809 	jalr	t0
    57ec:	00892021 	addu	a0,a0,t1
    57f0:	54400006 	bnezl	v0,0x580c
    57f4:	24130001 	li	s3,1
    57f8:	8f820054 	lw	v0,84(gp)
    57fc:	02021023 	subu	v0,s0,v0
    5800:	2c4203e9 	sltiu	v0,v0,1001
    5804:	1440ffe9 	bnez	v0,0x57ac
    5808:	00000000 	nop
    580c:	326200ff 	andi	v0,s3,0xff
    5810:	54400017 	bnezl	v0,0x5870
    5814:	af520018 	sw	s2,24(k0)
    5818:	8f420378 	lw	v0,888(k0)
    581c:	24420001 	addiu	v0,v0,1
    5820:	af420378 	sw	v0,888(k0)
    5824:	8f420378 	lw	v0,888(k0)
    5828:	8f820120 	lw	v0,288(gp)
    582c:	8faa002c 	lw	t2,44(sp)
    5830:	afa20010 	sw	v0,16(sp)
    5834:	8f820124 	lw	v0,292(gp)
    5838:	3c040001 	lui	a0,0x1
    583c:	24846368 	addiu	a0,a0,25448
    5840:	3c050009 	lui	a1,0x9
    5844:	afa20014 	sw	v0,20(sp)
    5848:	8d460000 	lw	a2,0(t2)
    584c:	10000033 	b	0x591c
    5850:	34a50600 	ori	a1,a1,0x600
    5854:	8f420308 	lw	v0,776(k0)
    5858:	24130001 	li	s3,1
    585c:	24420001 	addiu	v0,v0,1
    5860:	af420308 	sw	v0,776(k0)
    5864:	8f420308 	lw	v0,776(k0)
    5868:	1000001c 	b	0x58dc
    586c:	326200ff 	andi	v0,s3,0xff
    5870:	8f830054 	lw	v1,84(gp)
    5874:	8f820054 	lw	v0,84(gp)
    5878:	247003e8 	addiu	s0,v1,1000
    587c:	02021023 	subu	v0,s0,v0
    5880:	2c4203e9 	sltiu	v0,v0,1001
    5884:	10400014 	beqz	v0,0x58d8
    5888:	00009821 	move	s3,zero
    588c:	24110010 	li	s1,16
    5890:	8f42000c 	lw	v0,12(k0)
    5894:	8f440160 	lw	a0,352(k0)
    5898:	8f450164 	lw	a1,356(k0)
    589c:	8f860120 	lw	a2,288(gp)
    58a0:	afb10010 	sw	s1,16(sp)
    58a4:	afb20014 	sw	s2,20(sp)
    58a8:	afa20018 	sw	v0,24(sp)
    58ac:	8f42010c 	lw	v0,268(k0)
    58b0:	24070008 	li	a3,8
    58b4:	0040f809 	jalr	v0
    58b8:	24c6001c 	addiu	a2,a2,28
    58bc:	1440ffe5 	bnez	v0,0x5854
    58c0:	00000000 	nop
    58c4:	8f820054 	lw	v0,84(gp)
    58c8:	02021023 	subu	v0,s0,v0
    58cc:	2c4203e9 	sltiu	v0,v0,1001
    58d0:	1440ffef 	bnez	v0,0x5890
    58d4:	00000000 	nop
    58d8:	326200ff 	andi	v0,s3,0xff
    58dc:	14400011 	bnez	v0,0x5924
    58e0:	00000000 	nop
    58e4:	8f420378 	lw	v0,888(k0)
    58e8:	24420001 	addiu	v0,v0,1
    58ec:	af420378 	sw	v0,888(k0)
    58f0:	8f420378 	lw	v0,888(k0)
    58f4:	8f820120 	lw	v0,288(gp)
    58f8:	8faa002c 	lw	t2,44(sp)
    58fc:	afa20010 	sw	v0,16(sp)
    5900:	8f820124 	lw	v0,292(gp)
    5904:	3c040001 	lui	a0,0x1
    5908:	24846370 	addiu	a0,a0,25456
    590c:	3c050009 	lui	a1,0x9
    5910:	afa20014 	sw	v0,20(sp)
    5914:	8d460000 	lw	a2,0(t2)
    5918:	34a50700 	ori	a1,a1,0x700
    591c:	0c002b3b 	jal	0xacec
    5920:	03c03821 	move	a3,s8
    5924:	8f4202b4 	lw	v0,692(k0)
    5928:	24420001 	addiu	v0,v0,1
    592c:	af4202b4 	sw	v0,692(k0)
    5930:	8f4202b4 	lw	v0,692(k0)
    5934:	8f4202f4 	lw	v0,756(k0)
    5938:	24420001 	addiu	v0,v0,1
    593c:	af4202f4 	sw	v0,756(k0)
    5940:	8f4202f4 	lw	v0,756(k0)
    5944:	8fbf0048 	lw	ra,72(sp)
    5948:	8fbe0044 	lw	s8,68(sp)
    594c:	8fb50040 	lw	s5,64(sp)
    5950:	8fb3003c 	lw	s3,60(sp)
    5954:	8fb20038 	lw	s2,56(sp)
    5958:	8fb10034 	lw	s1,52(sp)
    595c:	8fb00030 	lw	s0,48(sp)
    5960:	03e00008 	jr	ra
    5964:	27bd0050 	addiu	sp,sp,80
    5968:	27bdffa0 	addiu	sp,sp,-96
    596c:	00801021 	move	v0,a0
    5970:	afb00040 	sw	s0,64(sp)
    5974:	24500002 	addiu	s0,v0,2
    5978:	02002021 	move	a0,s0
    597c:	24050006 	li	a1,6
    5980:	afb10044 	sw	s1,68(sp)
    5984:	00408821 	move	s1,v0
    5988:	afbf0058 	sw	ra,88(sp)
    598c:	afbe0054 	sw	s8,84(sp)
    5990:	afb50050 	sw	s5,80(sp)
    5994:	afb3004c 	sw	s3,76(sp)
    5998:	0c00240c 	jal	0x9030
    599c:	afb20048 	sw	s2,72(sp)
    59a0:	3048007f 	andi	t0,v0,0x7f
    59a4:	000810c0 	sll	v0,t0,0x3
    59a8:	02e21021 	addu	v0,s7,v0
    59ac:	3c060001 	lui	a2,0x1
    59b0:	00c23021 	addu	a2,a2,v0
    59b4:	94c630d0 	lhu	a2,12496(a2)
    59b8:	10c0001c 	beqz	a2,0x5a2c
    59bc:	00003821 	move	a3,zero
    59c0:	3c0a0001 	lui	t2,0x1
    59c4:	354a34d2 	ori	t2,t2,0x34d2
    59c8:	96290002 	lhu	t1,2(s1)
    59cc:	000610c0 	sll	v0,a2,0x3
    59d0:	00572021 	addu	a0,v0,s7
    59d4:	008a2021 	addu	a0,a0,t2
    59d8:	94820000 	lhu	v0,0(a0)
    59dc:	14490009 	bne	v0,t1,0x5a04
    59e0:	00002821 	move	a1,zero
    59e4:	94830002 	lhu	v1,2(a0)
    59e8:	96020002 	lhu	v0,2(s0)
    59ec:	14620006 	bne	v1,v0,0x5a08
    59f0:	00a01021 	move	v0,a1
    59f4:	94820004 	lhu	v0,4(a0)
    59f8:	96030004 	lhu	v1,4(s0)
    59fc:	00431026 	xor	v0,v0,v1
    5a00:	2c450001 	sltiu	a1,v0,1
    5a04:	00a01021 	move	v0,a1
    5a08:	14400008 	bnez	v0,0x5a2c
    5a0c:	000610c0 	sll	v0,a2,0x3
    5a10:	00c03821 	move	a3,a2
    5a14:	02e21021 	addu	v0,s7,v0
    5a18:	3c060001 	lui	a2,0x1
    5a1c:	00c23021 	addu	a2,a2,v0
    5a20:	94c634d0 	lhu	a2,13520(a2)
    5a24:	14c0ffea 	bnez	a2,0x59d0
    5a28:	000610c0 	sll	v0,a2,0x3
    5a2c:	14c00011 	bnez	a2,0x5a74
    5a30:	afa70028 	sw	a3,40(sp)
    5a34:	000810c0 	sll	v0,t0,0x3
    5a38:	02e21021 	addu	v0,s7,v0
    5a3c:	afa80010 	sw	t0,16(sp)
    5a40:	3c010001 	lui	at,0x1
    5a44:	00220821 	addu	at,at,v0
    5a48:	942230d0 	lhu	v0,12496(at)
    5a4c:	3c040001 	lui	a0,0x1
    5a50:	248463ac 	addiu	a0,a0,25516
    5a54:	afa20014 	sw	v0,20(sp)
    5a58:	8e260000 	lw	a2,0(s1)
    5a5c:	8e270004 	lw	a3,4(s1)
    5a60:	3c050004 	lui	a1,0x4
    5a64:	0c002b3b 	jal	0xacec
    5a68:	34a50900 	ori	a1,a1,0x900
    5a6c:	10000075 	b	0x5c44
    5a70:	3c020800 	lui	v0,0x800
    5a74:	10e0000c 	beqz	a3,0x5aa8
    5a78:	000610c0 	sll	v0,a2,0x3
    5a7c:	02e21021 	addu	v0,s7,v0
    5a80:	3c030001 	lui	v1,0x1
    5a84:	00621821 	addu	v1,v1,v0
    5a88:	946334d0 	lhu	v1,13520(v1)
    5a8c:	000710c0 	sll	v0,a3,0x3
    5a90:	02e21021 	addu	v0,s7,v0
    5a94:	3c010001 	lui	at,0x1
    5a98:	00220821 	addu	at,at,v0
    5a9c:	a42334d0 	sh	v1,13520(at)
    5aa0:	1000000b 	b	0x5ad0
    5aa4:	3c040001 	lui	a0,0x1
    5aa8:	02e21021 	addu	v0,s7,v0
    5aac:	3c030001 	lui	v1,0x1
    5ab0:	00621821 	addu	v1,v1,v0
    5ab4:	946334d0 	lhu	v1,13520(v1)
    5ab8:	000810c0 	sll	v0,t0,0x3
    5abc:	02e21021 	addu	v0,s7,v0
    5ac0:	3c010001 	lui	at,0x1
    5ac4:	00220821 	addu	at,at,v0
    5ac8:	a42330d0 	sh	v1,12496(at)
    5acc:	3c040001 	lui	a0,0x1
    5ad0:	348430d0 	ori	a0,a0,0x30d0
    5ad4:	8f430100 	lw	v1,256(k0)
    5ad8:	000610c0 	sll	v0,a2,0x3
    5adc:	02e21021 	addu	v0,s7,v0
    5ae0:	3c010001 	lui	at,0x1
    5ae4:	00220821 	addu	at,at,v0
    5ae8:	a42334d0 	sh	v1,13520(at)
    5aec:	8f420104 	lw	v0,260(k0)
    5af0:	02e43821 	addu	a3,s7,a0
    5af4:	00002821 	move	a1,zero
    5af8:	18400029 	blez	v0,0x5ba0
    5afc:	af460100 	sw	a2,256(k0)
    5b00:	24e60006 	addiu	a2,a3,6
    5b04:	94c3fffc 	lhu	v1,-4(a2)
    5b08:	96020000 	lhu	v0,0(s0)
    5b0c:	14620009 	bne	v1,v0,0x5b34
    5b10:	00002021 	move	a0,zero
    5b14:	94c3fffe 	lhu	v1,-2(a2)
    5b18:	96020002 	lhu	v0,2(s0)
    5b1c:	14620006 	bne	v1,v0,0x5b38
    5b20:	00801021 	move	v0,a0
    5b24:	94c20000 	lhu	v0,0(a2)
    5b28:	96030004 	lhu	v1,4(s0)
    5b2c:	00431026 	xor	v0,v0,v1
    5b30:	2c440001 	sltiu	a0,v0,1
    5b34:	00801021 	move	v0,a0
    5b38:	50400014 	beqzl	v0,0x5b8c
    5b3c:	24a50001 	addiu	a1,a1,1
    5b40:	8f420104 	lw	v0,260(k0)
    5b44:	2442ffff 	addiu	v0,v0,-1
    5b48:	00a2102a 	slt	v0,a1,v0
    5b4c:	1040000b 	beqz	v0,0x5b7c
    5b50:	24e40004 	addiu	a0,a3,4
    5b54:	94820006 	lhu	v0,6(a0)
    5b58:	8c830008 	lw	v1,8(a0)
    5b5c:	a482fffe 	sh	v0,-2(a0)
    5b60:	ac830000 	sw	v1,0(a0)
    5b64:	8f420104 	lw	v0,260(k0)
    5b68:	24a50001 	addiu	a1,a1,1
    5b6c:	2442ffff 	addiu	v0,v0,-1
    5b70:	00a2102a 	slt	v0,a1,v0
    5b74:	1440fff7 	bnez	v0,0x5b54
    5b78:	24840008 	addiu	a0,a0,8
    5b7c:	8f420104 	lw	v0,260(k0)
    5b80:	2442ffff 	addiu	v0,v0,-1
    5b84:	10000006 	b	0x5ba0
    5b88:	af420104 	sw	v0,260(k0)
    5b8c:	8f420104 	lw	v0,260(k0)
    5b90:	24c60008 	addiu	a2,a2,8
    5b94:	00a2102a 	slt	v0,a1,v0
    5b98:	1440ffda 	bnez	v0,0x5b04
    5b9c:	24e70008 	addiu	a3,a3,8
    5ba0:	000810c0 	sll	v0,t0,0x3
    5ba4:	02e21021 	addu	v0,s7,v0
    5ba8:	3c010001 	lui	at,0x1
    5bac:	00220821 	addu	at,at,v0
    5bb0:	942230d0 	lhu	v0,12496(at)
    5bb4:	14400023 	bnez	v0,0x5c44
    5bb8:	3c020800 	lui	v0,0x800
    5bbc:	3c020002 	lui	v0,0x2
    5bc0:	02c21024 	and	v0,s6,v0
    5bc4:	10400012 	beqz	v0,0x5c10
    5bc8:	00082142 	srl	a0,t0,0x5
    5bcc:	3c030001 	lui	v1,0x1
    5bd0:	346338d8 	ori	v1,v1,0x38d8
    5bd4:	24020003 	li	v0,3
    5bd8:	00441023 	subu	v0,v0,a0
    5bdc:	00021080 	sll	v0,v0,0x2
    5be0:	00572021 	addu	a0,v0,s7
    5be4:	00832021 	addu	a0,a0,v1
    5be8:	00571021 	addu	v0,v0,s7
    5bec:	00431021 	addu	v0,v0,v1
    5bf0:	3105001f 	andi	a1,t0,0x1f
    5bf4:	24030001 	li	v1,1
    5bf8:	8c420000 	lw	v0,0(v0)
    5bfc:	00a31804 	sllv	v1,v1,a1
    5c00:	00031827 	nor	v1,zero,v1
    5c04:	00431024 	and	v0,v0,v1
    5c08:	1000000d 	b	0x5c40
    5c0c:	ac820000 	sw	v0,0(a0)
    5c10:	24020003 	li	v0,3
    5c14:	00441023 	subu	v0,v0,a0
    5c18:	00021080 	sll	v0,v0,0x2
    5c1c:	005c2821 	addu	a1,v0,gp
    5c20:	005c1021 	addu	v0,v0,gp
    5c24:	3104001f 	andi	a0,t0,0x1f
    5c28:	24030001 	li	v1,1
    5c2c:	8c420228 	lw	v0,552(v0)
    5c30:	00831804 	sllv	v1,v1,a0
    5c34:	00031827 	nor	v1,zero,v1
    5c38:	00431024 	and	v0,v0,v1
    5c3c:	aca20228 	sw	v0,552(a1)
    5c40:	3c020800 	lui	v0,0x800
    5c44:	34422000 	ori	v0,v0,0x2000
    5c48:	00001821 	move	v1,zero
    5c4c:	afa20020 	sw	v0,32(sp)
    5c50:	8f5e0018 	lw	s8,24(k0)
    5c54:	27ab0020 	addiu	t3,sp,32
    5c58:	240200ff 	li	v0,255
    5c5c:	13c20002 	beq	s8,v0,0x5c68
    5c60:	afab0034 	sw	t3,52(sp)
    5c64:	27c30001 	addiu	v1,s8,1
    5c68:	8c020228 	lw	v0,552(zero)
    5c6c:	00609021 	move	s2,v1
    5c70:	1642000e 	bne	s2,v0,0x5cac
    5c74:	001e38c0 	sll	a3,s8,0x3
    5c78:	8f42033c 	lw	v0,828(k0)
    5c7c:	24420001 	addiu	v0,v0,1
    5c80:	af42033c 	sw	v0,828(k0)
    5c84:	8f42033c 	lw	v0,828(k0)
    5c88:	8c020228 	lw	v0,552(zero)
    5c8c:	3c040001 	lui	a0,0x1
    5c90:	2484635c 	addiu	a0,a0,25436
    5c94:	3c050009 	lui	a1,0x9
    5c98:	afa00014 	sw	zero,20(sp)
    5c9c:	afa20010 	sw	v0,16(sp)
    5ca0:	8fa60020 	lw	a2,32(sp)
    5ca4:	1000006b 	b	0x5e54
    5ca8:	34a50500 	ori	a1,a1,0x500
    5cac:	00f71021 	addu	v0,a3,s7
    5cb0:	8fa30020 	lw	v1,32(sp)
    5cb4:	8fa40024 	lw	a0,36(sp)
    5cb8:	ac4304c0 	sw	v1,1216(v0)
    5cbc:	ac4404c4 	sw	a0,1220(v0)
    5cc0:	8f830054 	lw	v1,84(gp)
    5cc4:	8f820054 	lw	v0,84(gp)
    5cc8:	247003e8 	addiu	s0,v1,1000
    5ccc:	02021023 	subu	v0,s0,v0
    5cd0:	2c4203e9 	sltiu	v0,v0,1001
    5cd4:	1040001b 	beqz	v0,0x5d44
    5cd8:	00009821 	move	s3,zero
    5cdc:	00e08821 	move	s1,a3
    5ce0:	263504c0 	addiu	s5,s1,1216
    5ce4:	8f440178 	lw	a0,376(k0)
    5ce8:	8f45017c 	lw	a1,380(k0)
    5cec:	02201821 	move	v1,s1
    5cf0:	240b0004 	li	t3,4
    5cf4:	afab0010 	sw	t3,16(sp)
    5cf8:	afb20014 	sw	s2,20(sp)
    5cfc:	8f48000c 	lw	t0,12(k0)
    5d00:	00001021 	move	v0,zero
    5d04:	02f53021 	addu	a2,s7,s5
    5d08:	afa80018 	sw	t0,24(sp)
    5d0c:	8f48010c 	lw	t0,268(k0)
    5d10:	24070008 	li	a3,8
    5d14:	00a32821 	addu	a1,a1,v1
    5d18:	00a3482b 	sltu	t1,a1,v1
    5d1c:	00822021 	addu	a0,a0,v0
    5d20:	0100f809 	jalr	t0
    5d24:	00892021 	addu	a0,a0,t1
    5d28:	54400006 	bnezl	v0,0x5d44
    5d2c:	24130001 	li	s3,1
    5d30:	8f820054 	lw	v0,84(gp)
    5d34:	02021023 	subu	v0,s0,v0
    5d38:	2c4203e9 	sltiu	v0,v0,1001
    5d3c:	1440ffe9 	bnez	v0,0x5ce4
    5d40:	00000000 	nop
    5d44:	326200ff 	andi	v0,s3,0xff
    5d48:	54400017 	bnezl	v0,0x5da8
    5d4c:	af520018 	sw	s2,24(k0)
    5d50:	8f420378 	lw	v0,888(k0)
    5d54:	24420001 	addiu	v0,v0,1
    5d58:	af420378 	sw	v0,888(k0)
    5d5c:	8f420378 	lw	v0,888(k0)
    5d60:	8f820120 	lw	v0,288(gp)
    5d64:	8fab0034 	lw	t3,52(sp)
    5d68:	afa20010 	sw	v0,16(sp)
    5d6c:	8f820124 	lw	v0,292(gp)
    5d70:	3c040001 	lui	a0,0x1
    5d74:	24846368 	addiu	a0,a0,25448
    5d78:	3c050009 	lui	a1,0x9
    5d7c:	afa20014 	sw	v0,20(sp)
    5d80:	8d660000 	lw	a2,0(t3)
    5d84:	10000033 	b	0x5e54
    5d88:	34a50600 	ori	a1,a1,0x600
    5d8c:	8f420308 	lw	v0,776(k0)
    5d90:	24130001 	li	s3,1
    5d94:	24420001 	addiu	v0,v0,1
    5d98:	af420308 	sw	v0,776(k0)
    5d9c:	8f420308 	lw	v0,776(k0)
    5da0:	1000001c 	b	0x5e14
    5da4:	326200ff 	andi	v0,s3,0xff
    5da8:	8f830054 	lw	v1,84(gp)
    5dac:	8f820054 	lw	v0,84(gp)
    5db0:	247003e8 	addiu	s0,v1,1000
    5db4:	02021023 	subu	v0,s0,v0
    5db8:	2c4203e9 	sltiu	v0,v0,1001
    5dbc:	10400014 	beqz	v0,0x5e10
    5dc0:	00009821 	move	s3,zero
    5dc4:	24110010 	li	s1,16
    5dc8:	8f42000c 	lw	v0,12(k0)
    5dcc:	8f440160 	lw	a0,352(k0)
    5dd0:	8f450164 	lw	a1,356(k0)
    5dd4:	8f860120 	lw	a2,288(gp)
    5dd8:	afb10010 	sw	s1,16(sp)
    5ddc:	afb20014 	sw	s2,20(sp)
    5de0:	afa20018 	sw	v0,24(sp)
    5de4:	8f42010c 	lw	v0,268(k0)
    5de8:	24070008 	li	a3,8
    5dec:	0040f809 	jalr	v0
    5df0:	24c6001c 	addiu	a2,a2,28
    5df4:	1440ffe5 	bnez	v0,0x5d8c
    5df8:	00000000 	nop
    5dfc:	8f820054 	lw	v0,84(gp)
    5e00:	02021023 	subu	v0,s0,v0
    5e04:	2c4203e9 	sltiu	v0,v0,1001
    5e08:	1440ffef 	bnez	v0,0x5dc8
    5e0c:	00000000 	nop
    5e10:	326200ff 	andi	v0,s3,0xff
    5e14:	14400011 	bnez	v0,0x5e5c
    5e18:	00000000 	nop
    5e1c:	8f420378 	lw	v0,888(k0)
    5e20:	24420001 	addiu	v0,v0,1
    5e24:	af420378 	sw	v0,888(k0)
    5e28:	8f420378 	lw	v0,888(k0)
    5e2c:	8f820120 	lw	v0,288(gp)
    5e30:	8fab0034 	lw	t3,52(sp)
    5e34:	afa20010 	sw	v0,16(sp)
    5e38:	8f820124 	lw	v0,292(gp)
    5e3c:	3c040001 	lui	a0,0x1
    5e40:	24846370 	addiu	a0,a0,25456
    5e44:	3c050009 	lui	a1,0x9
    5e48:	afa20014 	sw	v0,20(sp)
    5e4c:	8d660000 	lw	a2,0(t3)
    5e50:	34a50700 	ori	a1,a1,0x700
    5e54:	0c002b3b 	jal	0xacec
    5e58:	03c03821 	move	a3,s8
    5e5c:	8f4202b8 	lw	v0,696(k0)
    5e60:	24420001 	addiu	v0,v0,1
    5e64:	af4202b8 	sw	v0,696(k0)
    5e68:	8f4202b8 	lw	v0,696(k0)
    5e6c:	8f4202f4 	lw	v0,756(k0)
    5e70:	24420001 	addiu	v0,v0,1
    5e74:	af4202f4 	sw	v0,756(k0)
    5e78:	8f4202f4 	lw	v0,756(k0)
    5e7c:	8fbf0058 	lw	ra,88(sp)
    5e80:	8fbe0054 	lw	s8,84(sp)
    5e84:	8fb50050 	lw	s5,80(sp)
    5e88:	8fb3004c 	lw	s3,76(sp)
    5e8c:	8fb20048 	lw	s2,72(sp)
    5e90:	8fb10044 	lw	s1,68(sp)
    5e94:	8fb00040 	lw	s0,64(sp)
    5e98:	03e00008 	jr	ra
    5e9c:	27bd0060 	addiu	sp,sp,96
	...
    5eac:	27bdffe0 	addiu	sp,sp,-32
    5eb0:	27644000 	addiu	a0,k1,16384
    5eb4:	afbf0018 	sw	ra,24(sp)
    5eb8:	0c002ba8 	jal	0xaea0
    5ebc:	24051000 	li	a1,4096
    5ec0:	3c030001 	lui	v1,0x1
    5ec4:	34632cc0 	ori	v1,v1,0x2cc0
    5ec8:	3c040001 	lui	a0,0x1
    5ecc:	34842ec8 	ori	a0,a0,0x2ec8
    5ed0:	24020020 	li	v0,32
    5ed4:	af82011c 	sw	v0,284(gp)
    5ed8:	02e31021 	addu	v0,s7,v1
    5edc:	af800100 	sw	zero,256(gp)
    5ee0:	af800104 	sw	zero,260(gp)
    5ee4:	af800108 	sw	zero,264(gp)
    5ee8:	af800110 	sw	zero,272(gp)
    5eec:	af800114 	sw	zero,276(gp)
    5ef0:	af800118 	sw	zero,280(gp)
    5ef4:	af800120 	sw	zero,288(gp)
    5ef8:	af800124 	sw	zero,292(gp)
    5efc:	af800128 	sw	zero,296(gp)
    5f00:	af800130 	sw	zero,304(gp)
    5f04:	af800134 	sw	zero,308(gp)
    5f08:	af800138 	sw	zero,312(gp)
    5f0c:	af4200ec 	sw	v0,236(k0)
    5f10:	02e31021 	addu	v0,s7,v1
    5f14:	af4200f0 	sw	v0,240(k0)
    5f18:	02e41021 	addu	v0,s7,a0
    5f1c:	af4200f4 	sw	v0,244(k0)
    5f20:	02e41021 	addu	v0,s7,a0
    5f24:	af4200f8 	sw	v0,248(k0)
    5f28:	3c020001 	lui	v0,0x1
    5f2c:	00571021 	addu	v0,v0,s7
    5f30:	904240f4 	lbu	v0,16628(v0)
    5f34:	1440001c 	bnez	v0,0x5fa8
    5f38:	3c050001 	lui	a1,0x1
    5f3c:	8f82011c 	lw	v0,284(gp)
    5f40:	3c040001 	lui	a0,0x1
    5f44:	24846470 	addiu	a0,a0,25712
    5f48:	3c050001 	lui	a1,0x1
    5f4c:	34420001 	ori	v0,v0,0x1
    5f50:	af82011c 	sw	v0,284(gp)
    5f54:	afa00010 	sw	zero,16(sp)
    5f58:	afa00014 	sw	zero,20(sp)
    5f5c:	8f86011c 	lw	a2,284(gp)
    5f60:	34a50100 	ori	a1,a1,0x100
    5f64:	0c002b3b 	jal	0xacec
    5f68:	00003821 	move	a3,zero
    5f6c:	8c020218 	lw	v0,536(zero)
    5f70:	30420040 	andi	v0,v0,0x40
    5f74:	10400014 	beqz	v0,0x5fc8
    5f78:	00000000 	nop
    5f7c:	8f82011c 	lw	v0,284(gp)
    5f80:	3c040001 	lui	a0,0x1
    5f84:	2484647c 	addiu	a0,a0,25724
    5f88:	3c050001 	lui	a1,0x1
    5f8c:	34420004 	ori	v0,v0,0x4
    5f90:	af82011c 	sw	v0,284(gp)
    5f94:	afa00010 	sw	zero,16(sp)
    5f98:	afa00014 	sw	zero,20(sp)
    5f9c:	8f86011c 	lw	a2,284(gp)
    5fa0:	10000007 	b	0x5fc0
    5fa4:	34a50200 	ori	a1,a1,0x200
    5fa8:	3c040001 	lui	a0,0x1
    5fac:	24846484 	addiu	a0,a0,25732
    5fb0:	afa00010 	sw	zero,16(sp)
    5fb4:	afa00014 	sw	zero,20(sp)
    5fb8:	8f86011c 	lw	a2,284(gp)
    5fbc:	34a50300 	ori	a1,a1,0x300
    5fc0:	0c002b3b 	jal	0xacec
    5fc4:	00003821 	move	a3,zero
    5fc8:	8fbf0018 	lw	ra,24(sp)
    5fcc:	03e00008 	jr	ra
    5fd0:	27bd0020 	addiu	sp,sp,32
    5fd4:	8fa90010 	lw	t1,16(sp)
    5fd8:	8f83012c 	lw	v1,300(gp)
    5fdc:	8faa0014 	lw	t2,20(sp)
    5fe0:	8fab0018 	lw	t3,24(sp)
    5fe4:	1060000a 	beqz	v1,0x6010
    5fe8:	27624fe0 	addiu	v0,k1,20448
    5fec:	14620002 	bne	v1,v0,0x5ff8
    5ff0:	24680020 	addiu	t0,v1,32
    5ff4:	27684800 	addiu	t0,k1,18432
    5ff8:	8f820128 	lw	v0,296(gp)
    5ffc:	11020004 	beq	t0,v0,0x6010
    6000:	00000000 	nop
    6004:	8f820124 	lw	v0,292(gp)
    6008:	15020007 	bne	t0,v0,0x6028
    600c:	00000000 	nop
    6010:	8f430334 	lw	v1,820(k0)
    6014:	00001021 	move	v0,zero
    6018:	24630001 	addiu	v1,v1,1
    601c:	af430334 	sw	v1,820(k0)
    6020:	10000039 	b	0x6108
    6024:	8f430334 	lw	v1,820(k0)
    6028:	ac640000 	sw	a0,0(v1)
    602c:	ac650004 	sw	a1,4(v1)
    6030:	ac660008 	sw	a2,8(v1)
    6034:	a467000e 	sh	a3,14(v1)
    6038:	ac690018 	sw	t1,24(v1)
    603c:	ac6a001c 	sw	t2,28(v1)
    6040:	ac6b0010 	sw	t3,16(v1)
    6044:	ac620014 	sw	v0,20(v1)
    6048:	af880120 	sw	t0,288(gp)
    604c:	8f4200fc 	lw	v0,252(k0)
    6050:	8f4400f4 	lw	a0,244(k0)
    6054:	2442ffff 	addiu	v0,v0,-1
    6058:	af4200fc 	sw	v0,252(k0)
    605c:	8c820000 	lw	v0,0(a0)
    6060:	10490005 	beq	v0,t1,0x6078
    6064:	3042ff8f 	andi	v0,v0,0xff8f
    6068:	10400019 	beqz	v0,0x60d0
    606c:	3122ff8f 	andi	v0,t1,0xff8f
    6070:	10400018 	beqz	v0,0x60d4
    6074:	3c020001 	lui	v0,0x1
    6078:	8c830004 	lw	v1,4(a0)
    607c:	2c620010 	sltiu	v0,v1,16
    6080:	10400013 	beqz	v0,0x60d0
    6084:	3c020001 	lui	v0,0x1
    6088:	24630001 	addiu	v1,v1,1
    608c:	ac830004 	sw	v1,4(a0)
    6090:	8f4300f8 	lw	v1,248(k0)
    6094:	344230c8 	ori	v0,v0,0x30c8
    6098:	02e21021 	addu	v0,s7,v0
    609c:	54620004 	bnel	v1,v0,0x60b0
    60a0:	24620008 	addiu	v0,v1,8
    60a4:	3c020001 	lui	v0,0x1
    60a8:	34422ec8 	ori	v0,v0,0x2ec8
    60ac:	02e21021 	addu	v0,s7,v0
    60b0:	14440015 	bne	v0,a0,0x6108
    60b4:	24020001 	li	v0,1
    60b8:	8f820128 	lw	v0,296(gp)
    60bc:	24420020 	addiu	v0,v0,32
    60c0:	af820128 	sw	v0,296(gp)
    60c4:	8f820128 	lw	v0,296(gp)
    60c8:	1000000f 	b	0x6108
    60cc:	24020001 	li	v0,1
    60d0:	3c020001 	lui	v0,0x1
    60d4:	344230c8 	ori	v0,v0,0x30c8
    60d8:	02e21021 	addu	v0,s7,v0
    60dc:	54820004 	bnel	a0,v0,0x60f0
    60e0:	24820008 	addiu	v0,a0,8
    60e4:	3c020001 	lui	v0,0x1
    60e8:	34422ec8 	ori	v0,v0,0x2ec8
    60ec:	02e21021 	addu	v0,s7,v0
    60f0:	00402021 	move	a0,v0
    60f4:	24020001 	li	v0,1
    60f8:	af4400f4 	sw	a0,244(k0)
    60fc:	ac890000 	sw	t1,0(a0)
    6100:	ac820004 	sw	v0,4(a0)
    6104:	24020001 	li	v0,1
    6108:	03e00008 	jr	ra
    610c:	00000000 	nop
    6110:	03e00008 	jr	ra
    6114:	00000000 	nop
    6118:	8fa90010 	lw	t1,16(sp)
    611c:	8f83010c 	lw	v1,268(gp)
    6120:	8faa0014 	lw	t2,20(sp)
    6124:	8fab0018 	lw	t3,24(sp)
    6128:	1060000a 	beqz	v1,0x6154
    612c:	276247e0 	addiu	v0,k1,18400
    6130:	14620002 	bne	v1,v0,0x613c
    6134:	24680020 	addiu	t0,v1,32
    6138:	27684000 	addiu	t0,k1,16384
    613c:	8f820108 	lw	v0,264(gp)
    6140:	11020004 	beq	t0,v0,0x6154
    6144:	00000000 	nop
    6148:	8f820104 	lw	v0,260(gp)
    614c:	15020007 	bne	t0,v0,0x616c
    6150:	00000000 	nop
    6154:	8f430338 	lw	v1,824(k0)
    6158:	00001021 	move	v0,zero
    615c:	24630001 	addiu	v1,v1,1
    6160:	af430338 	sw	v1,824(k0)
    6164:	10000035 	b	0x623c
    6168:	8f430338 	lw	v1,824(k0)
    616c:	ac640000 	sw	a0,0(v1)
    6170:	ac650004 	sw	a1,4(v1)
    6174:	ac660008 	sw	a2,8(v1)
    6178:	a467000e 	sh	a3,14(v1)
    617c:	ac690018 	sw	t1,24(v1)
    6180:	ac6a001c 	sw	t2,28(v1)
    6184:	ac6b0010 	sw	t3,16(v1)
    6188:	ac620014 	sw	v0,20(v1)
    618c:	af880100 	sw	t0,256(gp)
    6190:	8f4400ec 	lw	a0,236(k0)
    6194:	8c820000 	lw	v0,0(a0)
    6198:	30420006 	andi	v0,v0,0x6
    619c:	10400019 	beqz	v0,0x6204
    61a0:	31220006 	andi	v0,t1,0x6
    61a4:	10400018 	beqz	v0,0x6208
    61a8:	3c020001 	lui	v0,0x1
    61ac:	8c830004 	lw	v1,4(a0)
    61b0:	2c620010 	sltiu	v0,v1,16
    61b4:	10400013 	beqz	v0,0x6204
    61b8:	3c020001 	lui	v0,0x1
    61bc:	24630001 	addiu	v1,v1,1
    61c0:	ac830004 	sw	v1,4(a0)
    61c4:	8f4300f0 	lw	v1,240(k0)
    61c8:	34422ec0 	ori	v0,v0,0x2ec0
    61cc:	02e21021 	addu	v0,s7,v0
    61d0:	54620004 	bnel	v1,v0,0x61e4
    61d4:	24620008 	addiu	v0,v1,8
    61d8:	3c020001 	lui	v0,0x1
    61dc:	34422cc0 	ori	v0,v0,0x2cc0
    61e0:	02e21021 	addu	v0,s7,v0
    61e4:	14440015 	bne	v0,a0,0x623c
    61e8:	24020001 	li	v0,1
    61ec:	8f820108 	lw	v0,264(gp)
    61f0:	24420020 	addiu	v0,v0,32
    61f4:	af820108 	sw	v0,264(gp)
    61f8:	8f820108 	lw	v0,264(gp)
    61fc:	1000000f 	b	0x623c
    6200:	24020001 	li	v0,1
    6204:	3c020001 	lui	v0,0x1
    6208:	34422ec0 	ori	v0,v0,0x2ec0
    620c:	02e21021 	addu	v0,s7,v0
    6210:	54820004 	bnel	a0,v0,0x6224
    6214:	24820008 	addiu	v0,a0,8
    6218:	3c020001 	lui	v0,0x1
    621c:	34422cc0 	ori	v0,v0,0x2cc0
    6220:	02e21021 	addu	v0,s7,v0
    6224:	00402021 	move	a0,v0
    6228:	24020001 	li	v0,1
    622c:	af4400ec 	sw	a0,236(k0)
    6230:	ac890000 	sw	t1,0(a0)
    6234:	ac820004 	sw	v0,4(a0)
    6238:	24020001 	li	v0,1
    623c:	03e00008 	jr	ra
    6240:	00000000 	nop
    6244:	03e00008 	jr	ra
    6248:	00000000 	nop
    624c:	27bdffd8 	addiu	sp,sp,-40
    6250:	3c040001 	lui	a0,0x1
    6254:	2484648c 	addiu	a0,a0,25740
    6258:	3c050001 	lui	a1,0x1
    625c:	afbf0024 	sw	ra,36(sp)
    6260:	afb20020 	sw	s2,32(sp)
    6264:	afb1001c 	sw	s1,28(sp)
    6268:	afb00018 	sw	s0,24(sp)
    626c:	8f900104 	lw	s0,260(gp)
    6270:	8f9100b0 	lw	s1,176(gp)
    6274:	8f92011c 	lw	s2,284(gp)
    6278:	34a52500 	ori	a1,a1,0x2500
    627c:	8f820100 	lw	v0,256(gp)
    6280:	02403021 	move	a2,s2
    6284:	02203821 	move	a3,s1
    6288:	afa20010 	sw	v0,16(sp)
    628c:	0c002b3b 	jal	0xacec
    6290:	afb00014 	sw	s0,20(sp)
    6294:	8e020008 	lw	v0,8(s0)
    6298:	afa20010 	sw	v0,16(sp)
    629c:	8e02000c 	lw	v0,12(s0)
    62a0:	3c040001 	lui	a0,0x1
    62a4:	24846498 	addiu	a0,a0,25752
    62a8:	afa20014 	sw	v0,20(sp)
    62ac:	8e060000 	lw	a2,0(s0)
    62b0:	8e070004 	lw	a3,4(s0)
    62b4:	3c050001 	lui	a1,0x1
    62b8:	0c002b3b 	jal	0xacec
    62bc:	34a52510 	ori	a1,a1,0x2510
    62c0:	8e020018 	lw	v0,24(s0)
    62c4:	afa20010 	sw	v0,16(sp)
    62c8:	8e02001c 	lw	v0,28(s0)
    62cc:	3c040001 	lui	a0,0x1
    62d0:	248464a4 	addiu	a0,a0,25764
    62d4:	afa20014 	sw	v0,20(sp)
    62d8:	8e060010 	lw	a2,16(s0)
    62dc:	8e070014 	lw	a3,20(s0)
    62e0:	3c050001 	lui	a1,0x1
    62e4:	0c002b3b 	jal	0xacec
    62e8:	34a52520 	ori	a1,a1,0x2520
    62ec:	3c027f00 	lui	v0,0x7f00
    62f0:	02221024 	and	v0,s1,v0
    62f4:	3c030800 	lui	v1,0x800
    62f8:	54430016 	bnel	v0,v1,0x6354
    62fc:	3c030200 	lui	v1,0x200
    6300:	8f82009c 	lw	v0,156(gp)
    6304:	3042ffff 	andi	v0,v0,0xffff
    6308:	14400012 	bnez	v0,0x6354
    630c:	3c030200 	lui	v1,0x200
    6310:	3c040001 	lui	a0,0x1
    6314:	248464b0 	addiu	a0,a0,25776
    6318:	3c050002 	lui	a1,0x2
    631c:	34a5f030 	ori	a1,a1,0xf030
    6320:	00003021 	move	a2,zero
    6324:	00003821 	move	a3,zero
    6328:	36420002 	ori	v0,s2,0x2
    632c:	af82011c 	sw	v0,284(gp)
    6330:	36220001 	ori	v0,s1,0x1
    6334:	af8200b0 	sw	v0,176(gp)
    6338:	af900104 	sw	s0,260(gp)
    633c:	af92011c 	sw	s2,284(gp)
    6340:	afa00010 	sw	zero,16(sp)
    6344:	0c002b3b 	jal	0xacec
    6348:	afa00014 	sw	zero,20(sp)
    634c:	10000024 	b	0x63e0
    6350:	00000000 	nop
    6354:	02c31024 	and	v0,s6,v1
    6358:	1040000d 	beqz	v0,0x6390
    635c:	02231024 	and	v0,s1,v1
    6360:	1040000b 	beqz	v0,0x6390
    6364:	36420002 	ori	v0,s2,0x2
    6368:	af82011c 	sw	v0,284(gp)
    636c:	36220001 	ori	v0,s1,0x1
    6370:	af8200b0 	sw	v0,176(gp)
    6374:	af900104 	sw	s0,260(gp)
    6378:	af92011c 	sw	s2,284(gp)
    637c:	8f420330 	lw	v0,816(k0)
    6380:	24420001 	addiu	v0,v0,1
    6384:	af420330 	sw	v0,816(k0)
    6388:	10000015 	b	0x63e0
    638c:	8f420330 	lw	v0,816(k0)
    6390:	3c040001 	lui	a0,0x1
    6394:	248464b8 	addiu	a0,a0,25784
    6398:	240202a9 	li	v0,681
    639c:	afa20010 	sw	v0,16(sp)
    63a0:	afa00014 	sw	zero,20(sp)
    63a4:	8f860144 	lw	a2,324(gp)
    63a8:	3c070001 	lui	a3,0x1
    63ac:	24e764c0 	addiu	a3,a3,25792
    63b0:	0c002b3b 	jal	0xacec
    63b4:	3405dead 	li	a1,0xdead
    63b8:	8f82011c 	lw	v0,284(gp)
    63bc:	34420002 	ori	v0,v0,0x2
    63c0:	af82011c 	sw	v0,284(gp)
    63c4:	8f820220 	lw	v0,544(gp)
    63c8:	34420004 	ori	v0,v0,0x4
    63cc:	af820220 	sw	v0,544(gp)
    63d0:	8f820140 	lw	v0,320(gp)
    63d4:	3c030001 	lui	v1,0x1
    63d8:	00431025 	or	v0,v0,v1
    63dc:	af820140 	sw	v0,320(gp)
    63e0:	8fbf0024 	lw	ra,36(sp)
    63e4:	8fb20020 	lw	s2,32(sp)
    63e8:	8fb1001c 	lw	s1,28(sp)
    63ec:	8fb00018 	lw	s0,24(sp)
    63f0:	03e00008 	jr	ra
    63f4:	27bd0028 	addiu	sp,sp,40
    63f8:	27bdffd8 	addiu	sp,sp,-40
    63fc:	3c040001 	lui	a0,0x1
    6400:	248464e8 	addiu	a0,a0,25832
    6404:	3c050001 	lui	a1,0x1
    6408:	afbf0024 	sw	ra,36(sp)
    640c:	afb20020 	sw	s2,32(sp)
    6410:	afb1001c 	sw	s1,28(sp)
    6414:	afb00018 	sw	s0,24(sp)
    6418:	8f900124 	lw	s0,292(gp)
    641c:	8f9100a0 	lw	s1,160(gp)
    6420:	8f92011c 	lw	s2,284(gp)
    6424:	34a52600 	ori	a1,a1,0x2600
    6428:	8f820120 	lw	v0,288(gp)
    642c:	02403021 	move	a2,s2
    6430:	02203821 	move	a3,s1
    6434:	afa20010 	sw	v0,16(sp)
    6438:	0c002b3b 	jal	0xacec
    643c:	afb00014 	sw	s0,20(sp)
    6440:	8e020008 	lw	v0,8(s0)
    6444:	afa20010 	sw	v0,16(sp)
    6448:	8e02000c 	lw	v0,12(s0)
    644c:	3c040001 	lui	a0,0x1
    6450:	248464f4 	addiu	a0,a0,25844
    6454:	afa20014 	sw	v0,20(sp)
    6458:	8e060000 	lw	a2,0(s0)
    645c:	8e070004 	lw	a3,4(s0)
    6460:	3c050001 	lui	a1,0x1
    6464:	0c002b3b 	jal	0xacec
    6468:	34a52610 	ori	a1,a1,0x2610
    646c:	8e020018 	lw	v0,24(s0)
    6470:	afa20010 	sw	v0,16(sp)
    6474:	8e02001c 	lw	v0,28(s0)
    6478:	3c040001 	lui	a0,0x1
    647c:	24846500 	addiu	a0,a0,25856
    6480:	afa20014 	sw	v0,20(sp)
    6484:	8e060010 	lw	a2,16(s0)
    6488:	8e070014 	lw	a3,20(s0)
    648c:	3c050001 	lui	a1,0x1
    6490:	0c002b3b 	jal	0xacec
    6494:	34a52620 	ori	a1,a1,0x2620
    6498:	3c027f00 	lui	v0,0x7f00
    649c:	02221024 	and	v0,s1,v0
    64a0:	3c030800 	lui	v1,0x800
    64a4:	54430016 	bnel	v0,v1,0x6500
    64a8:	3c030200 	lui	v1,0x200
    64ac:	8f8200ac 	lw	v0,172(gp)
    64b0:	3042ffff 	andi	v0,v0,0xffff
    64b4:	14400012 	bnez	v0,0x6500
    64b8:	3c030200 	lui	v1,0x200
    64bc:	3c040001 	lui	a0,0x1
    64c0:	2484650c 	addiu	a0,a0,25868
    64c4:	3c050001 	lui	a1,0x1
    64c8:	34a5f030 	ori	a1,a1,0xf030
    64cc:	00003021 	move	a2,zero
    64d0:	00003821 	move	a3,zero
    64d4:	36420002 	ori	v0,s2,0x2
    64d8:	af82011c 	sw	v0,284(gp)
    64dc:	36220001 	ori	v0,s1,0x1
    64e0:	af8200a0 	sw	v0,160(gp)
    64e4:	af900124 	sw	s0,292(gp)
    64e8:	af92011c 	sw	s2,284(gp)
    64ec:	afa00010 	sw	zero,16(sp)
    64f0:	0c002b3b 	jal	0xacec
    64f4:	afa00014 	sw	zero,20(sp)
    64f8:	10000024 	b	0x658c
    64fc:	00000000 	nop
    6500:	02c31024 	and	v0,s6,v1
    6504:	1040000d 	beqz	v0,0x653c
    6508:	02231024 	and	v0,s1,v1
    650c:	1040000b 	beqz	v0,0x653c
    6510:	36420002 	ori	v0,s2,0x2
    6514:	af82011c 	sw	v0,284(gp)
    6518:	36220001 	ori	v0,s1,0x1
    651c:	af8200a0 	sw	v0,160(gp)
    6520:	af900124 	sw	s0,292(gp)
    6524:	af92011c 	sw	s2,284(gp)
    6528:	8f42032c 	lw	v0,812(k0)
    652c:	24420001 	addiu	v0,v0,1
    6530:	af42032c 	sw	v0,812(k0)
    6534:	10000015 	b	0x658c
    6538:	8f42032c 	lw	v0,812(k0)
    653c:	3c040001 	lui	a0,0x1
    6540:	248464b8 	addiu	a0,a0,25784
    6544:	240202e2 	li	v0,738
    6548:	afa20010 	sw	v0,16(sp)
    654c:	afa00014 	sw	zero,20(sp)
    6550:	8f860144 	lw	a2,324(gp)
    6554:	3c070001 	lui	a3,0x1
    6558:	24e764c0 	addiu	a3,a3,25792
    655c:	0c002b3b 	jal	0xacec
    6560:	3405dead 	li	a1,0xdead
    6564:	8f82011c 	lw	v0,284(gp)
    6568:	34420002 	ori	v0,v0,0x2
    656c:	af82011c 	sw	v0,284(gp)
    6570:	8f820220 	lw	v0,544(gp)
    6574:	34420004 	ori	v0,v0,0x4
    6578:	af820220 	sw	v0,544(gp)
    657c:	8f820140 	lw	v0,320(gp)
    6580:	3c030001 	lui	v1,0x1
    6584:	00431025 	or	v0,v0,v1
    6588:	af820140 	sw	v0,320(gp)
    658c:	8fbf0024 	lw	ra,36(sp)
    6590:	8fb20020 	lw	s2,32(sp)
    6594:	8fb1001c 	lw	s1,28(sp)
    6598:	8fb00018 	lw	s0,24(sp)
    659c:	03e00008 	jr	ra
    65a0:	27bd0028 	addiu	sp,sp,40
    65a4:	00006021 	move	t4,zero
    65a8:	00005021 	move	t2,zero
    65ac:	00003021 	move	a2,zero
    65b0:	00002821 	move	a1,zero
    65b4:	00006821 	move	t5,zero
    65b8:	00004821 	move	t1,zero
    65bc:	00007821 	move	t7,zero
    65c0:	00007021 	move	t6,zero
    65c4:	8f880124 	lw	t0,292(gp)
    65c8:	8f870104 	lw	a3,260(gp)
    65cc:	1580002e 	bnez	t4,0x6688
    65d0:	8f8b011c 	lw	t3,284(gp)
    65d4:	11a00014 	beqz	t5,0x6628
    65d8:	31620800 	andi	v0,t3,0x800
    65dc:	8f820120 	lw	v0,288(gp)
    65e0:	10460029 	beq	v0,a2,0x6688
    65e4:	00000000 	nop
    65e8:	3c040001 	lui	a0,0x1
    65ec:	8c846ee4 	lw	a0,28388(a0)
    65f0:	8cc20000 	lw	v0,0(a2)
    65f4:	8cc30004 	lw	v1,4(a2)
    65f8:	ac820000 	sw	v0,0(a0)
    65fc:	ac830004 	sw	v1,4(a0)
    6600:	8cc20008 	lw	v0,8(a2)
    6604:	ac820008 	sw	v0,8(a0)
    6608:	94c2000e 	lhu	v0,14(a2)
    660c:	a482000e 	sh	v0,14(a0)
    6610:	8cc20010 	lw	v0,16(a2)
    6614:	240c0001 	li	t4,1
    6618:	ac820010 	sw	v0,16(a0)
    661c:	8cc20014 	lw	v0,20(a2)
    6620:	10000012 	b	0x666c
    6624:	24c60020 	addiu	a2,a2,32
    6628:	10400017 	beqz	v0,0x6688
    662c:	00000000 	nop
    6630:	3c040001 	lui	a0,0x1
    6634:	8c846ee4 	lw	a0,28388(a0)
    6638:	8d020000 	lw	v0,0(t0)
    663c:	8d030004 	lw	v1,4(t0)
    6640:	ac820000 	sw	v0,0(a0)
    6644:	ac830004 	sw	v1,4(a0)
    6648:	8d020008 	lw	v0,8(t0)
    664c:	ac820008 	sw	v0,8(a0)
    6650:	9502000e 	lhu	v0,14(t0)
    6654:	a482000e 	sh	v0,14(a0)
    6658:	8d020010 	lw	v0,16(t0)
    665c:	25060020 	addiu	a2,t0,32
    6660:	ac820010 	sw	v0,16(a0)
    6664:	8d020014 	lw	v0,20(t0)
    6668:	240c0001 	li	t4,1
    666c:	00c01821 	move	v1,a2
    6670:	ac820014 	sw	v0,20(a0)
    6674:	27624fe0 	addiu	v0,k1,20448
    6678:	0043102b 	sltu	v0,v0,v1
    667c:	54400001 	bnezl	v0,0x6684
    6680:	27634800 	addiu	v1,k1,18432
    6684:	00603021 	move	a2,v1
    6688:	1540002f 	bnez	t2,0x6748
    668c:	31620100 	andi	v0,t3,0x100
    6690:	11200014 	beqz	t1,0x66e4
    6694:	31628000 	andi	v0,t3,0x8000
    6698:	8f820100 	lw	v0,256(gp)
    669c:	1045002a 	beq	v0,a1,0x6748
    66a0:	31620100 	andi	v0,t3,0x100
    66a4:	3c040001 	lui	a0,0x1
    66a8:	8c846ee0 	lw	a0,28384(a0)
    66ac:	8ca20000 	lw	v0,0(a1)
    66b0:	8ca30004 	lw	v1,4(a1)
    66b4:	ac820000 	sw	v0,0(a0)
    66b8:	ac830004 	sw	v1,4(a0)
    66bc:	8ca20008 	lw	v0,8(a1)
    66c0:	ac820008 	sw	v0,8(a0)
    66c4:	94a2000e 	lhu	v0,14(a1)
    66c8:	a482000e 	sh	v0,14(a0)
    66cc:	8ca20010 	lw	v0,16(a1)
    66d0:	240a0001 	li	t2,1
    66d4:	ac820010 	sw	v0,16(a0)
    66d8:	8ca20014 	lw	v0,20(a1)
    66dc:	10000012 	b	0x6728
    66e0:	24a50020 	addiu	a1,a1,32
    66e4:	10400018 	beqz	v0,0x6748
    66e8:	31620100 	andi	v0,t3,0x100
    66ec:	3c040001 	lui	a0,0x1
    66f0:	8c846ee0 	lw	a0,28384(a0)
    66f4:	8ce20000 	lw	v0,0(a3)
    66f8:	8ce30004 	lw	v1,4(a3)
    66fc:	ac820000 	sw	v0,0(a0)
    6700:	ac830004 	sw	v1,4(a0)
    6704:	8ce20008 	lw	v0,8(a3)
    6708:	ac820008 	sw	v0,8(a0)
    670c:	94e2000e 	lhu	v0,14(a3)
    6710:	a482000e 	sh	v0,14(a0)
    6714:	8ce20010 	lw	v0,16(a3)
    6718:	24e50020 	addiu	a1,a3,32
    671c:	ac820010 	sw	v0,16(a0)
    6720:	8ce20014 	lw	v0,20(a3)
    6724:	240a0001 	li	t2,1
    6728:	00a01821 	move	v1,a1
    672c:	ac820014 	sw	v0,20(a0)
    6730:	276247e0 	addiu	v0,k1,18400
    6734:	0043102b 	sltu	v0,v0,v1
    6738:	54400001 	bnezl	v0,0x6740
    673c:	27634000 	addiu	v1,k1,16384
    6740:	00602821 	move	a1,v1
    6744:	31620100 	andi	v0,t3,0x100
    6748:	5440001d 	bnezl	v0,0x67c0
    674c:	31621000 	andi	v0,t3,0x1000
    6750:	11a00009 	beqz	t5,0x6778
    6754:	31a20800 	andi	v0,t5,0x800
    6758:	10400004 	beqz	v0,0x676c
    675c:	25020020 	addiu	v0,t0,32
    6760:	8f8200a8 	lw	v0,168(gp)
    6764:	a5e20000 	sh	v0,0(t7)
    6768:	25020020 	addiu	v0,t0,32
    676c:	af820124 	sw	v0,292(gp)
    6770:	8f880124 	lw	t0,292(gp)
    6774:	00006821 	move	t5,zero
    6778:	11800011 	beqz	t4,0x67c0
    677c:	31621000 	andi	v0,t3,0x1000
    6780:	3c040001 	lui	a0,0x1
    6784:	8c846ee4 	lw	a0,28388(a0)
    6788:	8c820000 	lw	v0,0(a0)
    678c:	8c830004 	lw	v1,4(a0)
    6790:	af820080 	sw	v0,128(gp)
    6794:	af830084 	sw	v1,132(gp)
    6798:	8c820008 	lw	v0,8(a0)
    679c:	af8200a4 	sw	v0,164(gp)
    67a0:	9482000e 	lhu	v0,14(a0)
    67a4:	af8200ac 	sw	v0,172(gp)
    67a8:	8c820010 	lw	v0,16(a0)
    67ac:	00006021 	move	t4,zero
    67b0:	af8200a0 	sw	v0,160(gp)
    67b4:	8c8d0010 	lw	t5,16(a0)
    67b8:	8c8f0014 	lw	t7,20(a0)
    67bc:	31621000 	andi	v0,t3,0x1000
    67c0:	1440ff82 	bnez	v0,0x65cc
    67c4:	00000000 	nop
    67c8:	1120000f 	beqz	t1,0x6808
    67cc:	31220800 	andi	v0,t1,0x800
    67d0:	10400004 	beqz	v0,0x67e4
    67d4:	3c020002 	lui	v0,0x2
    67d8:	8f8200b8 	lw	v0,184(gp)
    67dc:	a5c20000 	sh	v0,0(t6)
    67e0:	3c020002 	lui	v0,0x2
    67e4:	01221024 	and	v0,t1,v0
    67e8:	10400004 	beqz	v0,0x67fc
    67ec:	24e20020 	addiu	v0,a3,32
    67f0:	8f8200b4 	lw	v0,180(gp)
    67f4:	af8200d4 	sw	v0,212(gp)
    67f8:	24e20020 	addiu	v0,a3,32
    67fc:	af820104 	sw	v0,260(gp)
    6800:	8f870104 	lw	a3,260(gp)
    6804:	00004821 	move	t1,zero
    6808:	1140ff70 	beqz	t2,0x65cc
    680c:	00000000 	nop
    6810:	3c040001 	lui	a0,0x1
    6814:	8c846ee0 	lw	a0,28384(a0)
    6818:	8c820000 	lw	v0,0(a0)
    681c:	8c830004 	lw	v1,4(a0)
    6820:	af820090 	sw	v0,144(gp)
    6824:	af830094 	sw	v1,148(gp)
    6828:	8c820008 	lw	v0,8(a0)
    682c:	af8200b4 	sw	v0,180(gp)
    6830:	9482000e 	lhu	v0,14(a0)
    6834:	af82009c 	sw	v0,156(gp)
    6838:	8c820010 	lw	v0,16(a0)
    683c:	00005021 	move	t2,zero
    6840:	af8200b0 	sw	v0,176(gp)
    6844:	8c890010 	lw	t1,16(a0)
    6848:	1000ff60 	b	0x65cc
    684c:	8c8e0014 	lw	t6,20(a0)
    6850:	03e00008 	jr	ra
    6854:	00000000 	nop
    6858:	00006021 	move	t4,zero
    685c:	00005821 	move	t3,zero
    6860:	00003021 	move	a2,zero
    6864:	00002821 	move	a1,zero
    6868:	00006821 	move	t5,zero
    686c:	00005021 	move	t2,zero
    6870:	00007821 	move	t7,zero
    6874:	00007021 	move	t6,zero
    6878:	8f880124 	lw	t0,292(gp)
    687c:	8f870104 	lw	a3,260(gp)
    6880:	3c180100 	lui	t8,0x100
    6884:	1580002e 	bnez	t4,0x6940
    6888:	8f89011c 	lw	t1,284(gp)
    688c:	11a00014 	beqz	t5,0x68e0
    6890:	31220800 	andi	v0,t1,0x800
    6894:	8f820120 	lw	v0,288(gp)
    6898:	10460029 	beq	v0,a2,0x6940
    689c:	00000000 	nop
    68a0:	3c040001 	lui	a0,0x1
    68a4:	8c846ee4 	lw	a0,28388(a0)
    68a8:	8cc20000 	lw	v0,0(a2)
    68ac:	8cc30004 	lw	v1,4(a2)
    68b0:	ac820000 	sw	v0,0(a0)
    68b4:	ac830004 	sw	v1,4(a0)
    68b8:	8cc20008 	lw	v0,8(a2)
    68bc:	ac820008 	sw	v0,8(a0)
    68c0:	94c2000e 	lhu	v0,14(a2)
    68c4:	a482000e 	sh	v0,14(a0)
    68c8:	8cc20010 	lw	v0,16(a2)
    68cc:	240c0001 	li	t4,1
    68d0:	ac820010 	sw	v0,16(a0)
    68d4:	8cc20014 	lw	v0,20(a2)
    68d8:	10000012 	b	0x6924
    68dc:	24c60020 	addiu	a2,a2,32
    68e0:	10400017 	beqz	v0,0x6940
    68e4:	00000000 	nop
    68e8:	3c040001 	lui	a0,0x1
    68ec:	8c846ee4 	lw	a0,28388(a0)
    68f0:	8d020000 	lw	v0,0(t0)
    68f4:	8d030004 	lw	v1,4(t0)
    68f8:	ac820000 	sw	v0,0(a0)
    68fc:	ac830004 	sw	v1,4(a0)
    6900:	8d020008 	lw	v0,8(t0)
    6904:	ac820008 	sw	v0,8(a0)
    6908:	9502000e 	lhu	v0,14(t0)
    690c:	a482000e 	sh	v0,14(a0)
    6910:	8d020010 	lw	v0,16(t0)
    6914:	25060020 	addiu	a2,t0,32
    6918:	ac820010 	sw	v0,16(a0)
    691c:	8d020014 	lw	v0,20(t0)
    6920:	240c0001 	li	t4,1
    6924:	00c01821 	move	v1,a2
    6928:	ac820014 	sw	v0,20(a0)
    692c:	27624fe0 	addiu	v0,k1,20448
    6930:	0043102b 	sltu	v0,v0,v1
    6934:	54400001 	bnezl	v0,0x693c
    6938:	27634800 	addiu	v1,k1,18432
    693c:	00603021 	move	a2,v1
    6940:	1560002f 	bnez	t3,0x6a00
    6944:	31220100 	andi	v0,t1,0x100
    6948:	11400014 	beqz	t2,0x699c
    694c:	31228000 	andi	v0,t1,0x8000
    6950:	8f820100 	lw	v0,256(gp)
    6954:	1045002a 	beq	v0,a1,0x6a00
    6958:	31220100 	andi	v0,t1,0x100
    695c:	3c040001 	lui	a0,0x1
    6960:	8c846ee0 	lw	a0,28384(a0)
    6964:	8ca20000 	lw	v0,0(a1)
    6968:	8ca30004 	lw	v1,4(a1)
    696c:	ac820000 	sw	v0,0(a0)
    6970:	ac830004 	sw	v1,4(a0)
    6974:	8ca20008 	lw	v0,8(a1)
    6978:	ac820008 	sw	v0,8(a0)
    697c:	94a2000e 	lhu	v0,14(a1)
    6980:	a482000e 	sh	v0,14(a0)
    6984:	8ca20010 	lw	v0,16(a1)
    6988:	240b0001 	li	t3,1
    698c:	ac820010 	sw	v0,16(a0)
    6990:	8ca20014 	lw	v0,20(a1)
    6994:	10000012 	b	0x69e0
    6998:	24a50020 	addiu	a1,a1,32
    699c:	10400018 	beqz	v0,0x6a00
    69a0:	31220100 	andi	v0,t1,0x100
    69a4:	3c040001 	lui	a0,0x1
    69a8:	8c846ee0 	lw	a0,28384(a0)
    69ac:	8ce20000 	lw	v0,0(a3)
    69b0:	8ce30004 	lw	v1,4(a3)
    69b4:	ac820000 	sw	v0,0(a0)
    69b8:	ac830004 	sw	v1,4(a0)
    69bc:	8ce20008 	lw	v0,8(a3)
    69c0:	ac820008 	sw	v0,8(a0)
    69c4:	94e2000e 	lhu	v0,14(a3)
    69c8:	a482000e 	sh	v0,14(a0)
    69cc:	8ce20010 	lw	v0,16(a3)
    69d0:	24e50020 	addiu	a1,a3,32
    69d4:	ac820010 	sw	v0,16(a0)
    69d8:	8ce20014 	lw	v0,20(a3)
    69dc:	240b0001 	li	t3,1
    69e0:	00a01821 	move	v1,a1
    69e4:	ac820014 	sw	v0,20(a0)
    69e8:	276247e0 	addiu	v0,k1,18400
    69ec:	0043102b 	sltu	v0,v0,v1
    69f0:	54400001 	bnezl	v0,0x69f8
    69f4:	27634000 	addiu	v1,k1,16384
    69f8:	00602821 	move	a1,v1
    69fc:	31220100 	andi	v0,t1,0x100
    6a00:	5440001d 	bnezl	v0,0x6a78
    6a04:	31221000 	andi	v0,t1,0x1000
    6a08:	11a00009 	beqz	t5,0x6a30
    6a0c:	31a20800 	andi	v0,t5,0x800
    6a10:	10400004 	beqz	v0,0x6a24
    6a14:	25020020 	addiu	v0,t0,32
    6a18:	8f8200a8 	lw	v0,168(gp)
    6a1c:	a5e20000 	sh	v0,0(t7)
    6a20:	25020020 	addiu	v0,t0,32
    6a24:	af820124 	sw	v0,292(gp)
    6a28:	8f880124 	lw	t0,292(gp)
    6a2c:	00006821 	move	t5,zero
    6a30:	11800011 	beqz	t4,0x6a78
    6a34:	31221000 	andi	v0,t1,0x1000
    6a38:	3c040001 	lui	a0,0x1
    6a3c:	8c846ee4 	lw	a0,28388(a0)
    6a40:	8c820000 	lw	v0,0(a0)
    6a44:	8c830004 	lw	v1,4(a0)
    6a48:	af820080 	sw	v0,128(gp)
    6a4c:	af830084 	sw	v1,132(gp)
    6a50:	8c820008 	lw	v0,8(a0)
    6a54:	af8200a4 	sw	v0,164(gp)
    6a58:	9482000e 	lhu	v0,14(a0)
    6a5c:	af8200ac 	sw	v0,172(gp)
    6a60:	8c820010 	lw	v0,16(a0)
    6a64:	00006021 	move	t4,zero
    6a68:	af8200a0 	sw	v0,160(gp)
    6a6c:	8c8d0010 	lw	t5,16(a0)
    6a70:	8c8f0014 	lw	t7,20(a0)
    6a74:	31221000 	andi	v0,t1,0x1000
    6a78:	14400022 	bnez	v0,0x6b04
    6a7c:	00000000 	nop
    6a80:	1140000f 	beqz	t2,0x6ac0
    6a84:	31420800 	andi	v0,t2,0x800
    6a88:	10400004 	beqz	v0,0x6a9c
    6a8c:	3c020002 	lui	v0,0x2
    6a90:	8f8200b8 	lw	v0,184(gp)
    6a94:	a5c20000 	sh	v0,0(t6)
    6a98:	3c020002 	lui	v0,0x2
    6a9c:	01421024 	and	v0,t2,v0
    6aa0:	10400004 	beqz	v0,0x6ab4
    6aa4:	24e20020 	addiu	v0,a3,32
    6aa8:	8f8200b4 	lw	v0,180(gp)
    6aac:	af8200d4 	sw	v0,212(gp)
    6ab0:	24e20020 	addiu	v0,a3,32
    6ab4:	af820104 	sw	v0,260(gp)
    6ab8:	8f870104 	lw	a3,260(gp)
    6abc:	00005021 	move	t2,zero
    6ac0:	11600010 	beqz	t3,0x6b04
    6ac4:	00000000 	nop
    6ac8:	3c040001 	lui	a0,0x1
    6acc:	8c846ee0 	lw	a0,28384(a0)
    6ad0:	8c820000 	lw	v0,0(a0)
    6ad4:	8c830004 	lw	v1,4(a0)
    6ad8:	af820090 	sw	v0,144(gp)
    6adc:	af830094 	sw	v1,148(gp)
    6ae0:	8c820008 	lw	v0,8(a0)
    6ae4:	af8200b4 	sw	v0,180(gp)
    6ae8:	9482000e 	lhu	v0,14(a0)
    6aec:	af82009c 	sw	v0,156(gp)
    6af0:	8c820010 	lw	v0,16(a0)
    6af4:	00005821 	move	t3,zero
    6af8:	af8200b0 	sw	v0,176(gp)
    6afc:	8c8a0010 	lw	t2,16(a0)
    6b00:	8c8e0014 	lw	t6,20(a0)
    6b04:	8f820070 	lw	v0,112(gp)
    6b08:	3c031000 	lui	v1,0x1000
    6b0c:	00431024 	and	v0,v0,v1
    6b10:	1040ff5c 	beqz	v0,0x6884
    6b14:	00000000 	nop
    6b18:	8f820054 	lw	v0,84(gp)
    6b1c:	24420005 	addiu	v0,v0,5
    6b20:	af820078 	sw	v0,120(gp)
    6b24:	8c040234 	lw	a0,564(zero)
    6b28:	10800016 	beqz	a0,0x6b84
    6b2c:	00001821 	move	v1,zero
    6b30:	3c020001 	lui	v0,0x1
    6b34:	00571021 	addu	v0,v0,s7
    6b38:	8c4240e8 	lw	v0,16616(v0)
    6b3c:	24420005 	addiu	v0,v0,5
    6b40:	3c010001 	lui	at,0x1
    6b44:	00370821 	addu	at,at,s7
    6b48:	ac2240e8 	sw	v0,16616(at)
    6b4c:	3c020001 	lui	v0,0x1
    6b50:	00571021 	addu	v0,v0,s7
    6b54:	8c4240e8 	lw	v0,16616(v0)
    6b58:	0044102b 	sltu	v0,v0,a0
    6b5c:	14400009 	bnez	v0,0x6b84
    6b60:	24020001 	li	v0,1
    6b64:	3c030080 	lui	v1,0x80
    6b68:	3c010001 	lui	at,0x1
    6b6c:	00370821 	addu	at,at,s7
    6b70:	ac2040e8 	sw	zero,16616(at)
    6b74:	3c010001 	lui	at,0x1
    6b78:	00370821 	addu	at,at,s7
    6b7c:	1000000c 	b	0x6bb0
    6b80:	a02240f0 	sb	v0,16624(at)
    6b84:	3c020001 	lui	v0,0x1
    6b88:	00571021 	addu	v0,v0,s7
    6b8c:	904240f0 	lbu	v0,16624(v0)
    6b90:	14400006 	bnez	v0,0x6bac
    6b94:	3c020080 	lui	v0,0x80
    6b98:	3c020001 	lui	v0,0x1
    6b9c:	00571021 	addu	v0,v0,s7
    6ba0:	904240f1 	lbu	v0,16625(v0)
    6ba4:	10400002 	beqz	v0,0x6bb0
    6ba8:	3c020080 	lui	v0,0x80
    6bac:	00621825 	or	v1,v1,v0
    6bb0:	8c040230 	lw	a0,560(zero)
    6bb4:	10800013 	beqz	a0,0x6c04
    6bb8:	00000000 	nop
    6bbc:	3c020001 	lui	v0,0x1
    6bc0:	00571021 	addu	v0,v0,s7
    6bc4:	8c4240ec 	lw	v0,16620(v0)
    6bc8:	24420005 	addiu	v0,v0,5
    6bcc:	3c010001 	lui	at,0x1
    6bd0:	00370821 	addu	at,at,s7
    6bd4:	ac2240ec 	sw	v0,16620(at)
    6bd8:	3c020001 	lui	v0,0x1
    6bdc:	00571021 	addu	v0,v0,s7
    6be0:	8c4240ec 	lw	v0,16620(v0)
    6be4:	0044102b 	sltu	v0,v0,a0
    6be8:	14400006 	bnez	v0,0x6c04
    6bec:	00000000 	nop
    6bf0:	3c010001 	lui	at,0x1
    6bf4:	00370821 	addu	at,at,s7
    6bf8:	ac2040ec 	sw	zero,16620(at)
    6bfc:	10000006 	b	0x6c18
    6c00:	00781825 	or	v1,v1,t8
    6c04:	3c020001 	lui	v0,0x1
    6c08:	00571021 	addu	v0,v0,s7
    6c0c:	904240f2 	lbu	v0,16626(v0)
    6c10:	54400001 	bnezl	v0,0x6c18
    6c14:	00781825 	or	v1,v1,t8
    6c18:	1060ff1a 	beqz	v1,0x6884
    6c1c:	00000000 	nop
    6c20:	8f420000 	lw	v0,0(k0)
    6c24:	10400007 	beqz	v0,0x6c44
    6c28:	00000000 	nop
    6c2c:	af80004c 	sw	zero,76(gp)
    6c30:	8f82004c 	lw	v0,76(gp)
    6c34:	1040fffd 	beqz	v0,0x6c2c
    6c38:	00000000 	nop
    6c3c:	10000005 	b	0x6c54
    6c40:	00000000 	nop
    6c44:	af800048 	sw	zero,72(gp)
    6c48:	8f820048 	lw	v0,72(gp)
    6c4c:	1040fffd 	beqz	v0,0x6c44
    6c50:	00000000 	nop
    6c54:	8f820060 	lw	v0,96(gp)
    6c58:	00431025 	or	v0,v0,v1
    6c5c:	af820060 	sw	v0,96(gp)
    6c60:	8f420000 	lw	v0,0(k0)
    6c64:	10400003 	beqz	v0,0x6c74
    6c68:	00000000 	nop
    6c6c:	1000ff05 	b	0x6884
    6c70:	af80004c 	sw	zero,76(gp)
    6c74:	1000ff03 	b	0x6884
    6c78:	af800048 	sw	zero,72(gp)
    6c7c:	03e00008 	jr	ra
    6c80:	00000000 	nop
	...
    6c8c:	3c020001 	lui	v0,0x1
    6c90:	8c426d28 	lw	v0,27944(v0)
    6c94:	27bdffe8 	addiu	sp,sp,-24
    6c98:	afbf0014 	sw	ra,20(sp)
    6c9c:	14400012 	bnez	v0,0x6ce8
    6ca0:	afb00010 	sw	s0,16(sp)
    6ca4:	3c100001 	lui	s0,0x1
    6ca8:	26106f90 	addiu	s0,s0,28560
    6cac:	02002021 	move	a0,s0
    6cb0:	0c002ba8 	jal	0xaea0
    6cb4:	24052000 	li	a1,8192
    6cb8:	26021fe0 	addiu	v0,s0,8160
    6cbc:	3c010001 	lui	at,0x1
    6cc0:	ac226eec 	sw	v0,28396(at)
    6cc4:	3c010001 	lui	at,0x1
    6cc8:	ac226ee8 	sw	v0,28392(at)
    6ccc:	ac020250 	sw	v0,592(zero)
    6cd0:	24022000 	li	v0,8192
    6cd4:	ac100254 	sw	s0,596(zero)
    6cd8:	ac020258 	sw	v0,600(zero)
    6cdc:	24020001 	li	v0,1
    6ce0:	3c010001 	lui	at,0x1
    6ce4:	ac226d28 	sw	v0,27944(at)
    6ce8:	8fbf0014 	lw	ra,20(sp)
    6cec:	8fb00010 	lw	s0,16(sp)
    6cf0:	03e00008 	jr	ra
    6cf4:	27bd0018 	addiu	sp,sp,24
    6cf8:	3c090001 	lui	t1,0x1
    6cfc:	8d296eec 	lw	t1,28396(t1)
    6d00:	8c820000 	lw	v0,0(a0)
    6d04:	8fa30010 	lw	v1,16(sp)
    6d08:	8fa80014 	lw	t0,20(sp)
    6d0c:	ad220000 	sw	v0,0(t1)
    6d10:	8c820004 	lw	v0,4(a0)
    6d14:	ad250008 	sw	a1,8(t1)
    6d18:	ad220004 	sw	v0,4(t1)
    6d1c:	8f820054 	lw	v0,84(gp)
    6d20:	ad260010 	sw	a2,16(t1)
    6d24:	ad270014 	sw	a3,20(t1)
    6d28:	ad230018 	sw	v1,24(t1)
    6d2c:	ad28001c 	sw	t0,28(t1)
    6d30:	ad22000c 	sw	v0,12(t1)
    6d34:	2529ffe0 	addiu	t1,t1,-32
    6d38:	3c020001 	lui	v0,0x1
    6d3c:	24426f90 	addiu	v0,v0,28560
    6d40:	0122102b 	sltu	v0,t1,v0
    6d44:	10400003 	beqz	v0,0x6d54
    6d48:	00000000 	nop
    6d4c:	3c090001 	lui	t1,0x1
    6d50:	8d296ee8 	lw	t1,28392(t1)
    6d54:	3c020001 	lui	v0,0x1
    6d58:	8c426d10 	lw	v0,27920(v0)
    6d5c:	ad220000 	sw	v0,0(t1)
    6d60:	3c020001 	lui	v0,0x1
    6d64:	8c426d10 	lw	v0,27920(v0)
    6d68:	3c010001 	lui	at,0x1
    6d6c:	ac296eec 	sw	t1,28396(at)
    6d70:	ad220004 	sw	v0,4(t1)
    6d74:	ac090250 	sw	t1,592(zero)
    6d78:	03e00008 	jr	ra
    6d7c:	00000000 	nop
    6d80:	27bdffd0 	addiu	sp,sp,-48
    6d84:	afb00010 	sw	s0,16(sp)
    6d88:	3c100001 	lui	s0,0x1
    6d8c:	8e106eec 	lw	s0,28396(s0)
    6d90:	3c020001 	lui	v0,0x1
    6d94:	8c426d10 	lw	v0,27920(v0)
    6d98:	afb10014 	sw	s1,20(sp)
    6d9c:	00808821 	move	s1,a0
    6da0:	afbe0024 	sw	s8,36(sp)
    6da4:	8fbe0040 	lw	s8,64(sp)
    6da8:	8fa40048 	lw	a0,72(sp)
    6dac:	afb20018 	sw	s2,24(sp)
    6db0:	00a09021 	move	s2,a1
    6db4:	afbf0028 	sw	ra,40(sp)
    6db8:	afb50020 	sw	s5,32(sp)
    6dbc:	afb3001c 	sw	s3,28(sp)
    6dc0:	ae020000 	sw	v0,0(s0)
    6dc4:	3c020001 	lui	v0,0x1
    6dc8:	8c426d10 	lw	v0,27920(v0)
    6dcc:	00c09821 	move	s3,a2
    6dd0:	00e0a821 	move	s5,a3
    6dd4:	10800006 	beqz	a0,0x6df0
    6dd8:	ae020004 	sw	v0,4(s0)
    6ddc:	26050008 	addiu	a1,s0,8
    6de0:	0c002bb3 	jal	0xaecc
    6de4:	24060018 	li	a2,24
    6de8:	10000005 	b	0x6e00
    6dec:	2610ffe0 	addiu	s0,s0,-32
    6df0:	26040008 	addiu	a0,s0,8
    6df4:	0c002ba8 	jal	0xaea0
    6df8:	24050018 	li	a1,24
    6dfc:	2610ffe0 	addiu	s0,s0,-32
    6e00:	3c030001 	lui	v1,0x1
    6e04:	24636f90 	addiu	v1,v1,28560
    6e08:	0203102b 	sltu	v0,s0,v1
    6e0c:	10400003 	beqz	v0,0x6e1c
    6e10:	00000000 	nop
    6e14:	3c100001 	lui	s0,0x1
    6e18:	8e106ee8 	lw	s0,28392(s0)
    6e1c:	8e220000 	lw	v0,0(s1)
    6e20:	ae020000 	sw	v0,0(s0)
    6e24:	8e220004 	lw	v0,4(s1)
    6e28:	ae120008 	sw	s2,8(s0)
    6e2c:	ae020004 	sw	v0,4(s0)
    6e30:	8f820054 	lw	v0,84(gp)
    6e34:	ae130010 	sw	s3,16(s0)
    6e38:	ae150014 	sw	s5,20(s0)
    6e3c:	ae1e0018 	sw	s8,24(s0)
    6e40:	8fa80044 	lw	t0,68(sp)
    6e44:	ae08001c 	sw	t0,28(s0)
    6e48:	ae02000c 	sw	v0,12(s0)
    6e4c:	2610ffe0 	addiu	s0,s0,-32
    6e50:	0203102b 	sltu	v0,s0,v1
    6e54:	10400003 	beqz	v0,0x6e64
    6e58:	00000000 	nop
    6e5c:	3c100001 	lui	s0,0x1
    6e60:	8e106ee8 	lw	s0,28392(s0)
    6e64:	3c020001 	lui	v0,0x1
    6e68:	8c426d10 	lw	v0,27920(v0)
    6e6c:	ae020000 	sw	v0,0(s0)
    6e70:	3c020001 	lui	v0,0x1
    6e74:	8c426d10 	lw	v0,27920(v0)
    6e78:	3c010001 	lui	at,0x1
    6e7c:	ac306eec 	sw	s0,28396(at)
    6e80:	ae020004 	sw	v0,4(s0)
    6e84:	ac100250 	sw	s0,592(zero)
    6e88:	8fbf0028 	lw	ra,40(sp)
    6e8c:	8fbe0024 	lw	s8,36(sp)
    6e90:	8fb50020 	lw	s5,32(sp)
    6e94:	8fb3001c 	lw	s3,28(sp)
    6e98:	8fb20018 	lw	s2,24(sp)
    6e9c:	8fb10014 	lw	s1,20(sp)
    6ea0:	8fb00010 	lw	s0,16(sp)
    6ea4:	03e00008 	jr	ra
    6ea8:	27bd0030 	addiu	sp,sp,48
    6eac:	00851821 	addu	v1,a0,a1
    6eb0:	0083102b 	sltu	v0,a0,v1
    6eb4:	10400006 	beqz	v0,0x6ed0
    6eb8:	00000000 	nop
    6ebc:	ac800000 	sw	zero,0(a0)
    6ec0:	24840004 	addiu	a0,a0,4
    6ec4:	0083102b 	sltu	v0,a0,v1
    6ec8:	5440fffd 	bnezl	v0,0x6ec0
    6ecc:	ac800000 	sw	zero,0(a0)
    6ed0:	03e00008 	jr	ra
    6ed4:	00000000 	nop
    6ed8:	00a61821 	addu	v1,a1,a2
    6edc:	00a3102b 	sltu	v0,a1,v1
    6ee0:	10400007 	beqz	v0,0x6f00
    6ee4:	00000000 	nop
    6ee8:	8c820000 	lw	v0,0(a0)
    6eec:	aca20000 	sw	v0,0(a1)
    6ef0:	24a50004 	addiu	a1,a1,4
    6ef4:	00a3102b 	sltu	v0,a1,v1
    6ef8:	1440fffb 	bnez	v0,0x6ee8
    6efc:	24840004 	addiu	a0,a0,4
    6f00:	03e00008 	jr	ra
    6f04:	00000000 	nop
    6f08:	00861821 	addu	v1,a0,a2
    6f0c:	0083102b 	sltu	v0,a0,v1
    6f10:	10400007 	beqz	v0,0x6f30
    6f14:	00000000 	nop
    6f18:	8ca20000 	lw	v0,0(a1)
    6f1c:	ac820000 	sw	v0,0(a0)
    6f20:	24840004 	addiu	a0,a0,4
    6f24:	0083102b 	sltu	v0,a0,v1
    6f28:	1440fffb 	bnez	v0,0x6f18
    6f2c:	24a50004 	addiu	a1,a1,4
    6f30:	03e00008 	jr	ra
    6f34:	00000000 	nop
    6f38:	00063080 	sll	a2,a2,0x2
    6f3c:	00861821 	addu	v1,a0,a2
    6f40:	0083102b 	sltu	v0,a0,v1
    6f44:	10400006 	beqz	v0,0x6f60
    6f48:	00000000 	nop
    6f4c:	ac850000 	sw	a1,0(a0)
    6f50:	24840004 	addiu	a0,a0,4
    6f54:	0083102b 	sltu	v0,a0,v1
    6f58:	5440fffd 	bnezl	v0,0x6f50
    6f5c:	ac850000 	sw	a1,0(a0)
    6f60:	03e00008 	jr	ra
    6f64:	00000000 	nop
    6f68:	00000000 	nop
    6f6c:	26e50028 	addiu	a1,s7,40
    6f70:	00a03021 	move	a2,a1
    6f74:	274301c0 	addiu	v1,k0,448
    6f78:	8f4d0358 	lw	t5,856(k0)
    6f7c:	8f47035c 	lw	a3,860(k0)
    6f80:	8f480360 	lw	t0,864(k0)
    6f84:	8f490364 	lw	t1,868(k0)
    6f88:	8f4a0368 	lw	t2,872(k0)
    6f8c:	8f4b0204 	lw	t3,516(k0)
    6f90:	8f4c0200 	lw	t4,512(k0)
    6f94:	24640400 	addiu	a0,v1,1024
    6f98:	0064102b 	sltu	v0,v1,a0
    6f9c:	10400008 	beqz	v0,0x6fc0
    6fa0:	3c0208ff 	lui	v0,0x8ff
    6fa4:	8cc20000 	lw	v0,0(a2)
    6fa8:	ac620000 	sw	v0,0(v1)
    6fac:	24630004 	addiu	v1,v1,4
    6fb0:	0064102b 	sltu	v0,v1,a0
    6fb4:	1440fffb 	bnez	v0,0x6fa4
    6fb8:	24c60004 	addiu	a2,a2,4
    6fbc:	3c0208ff 	lui	v0,0x8ff
    6fc0:	3442ffff 	ori	v0,v0,0xffff
    6fc4:	3c03c0ff 	lui	v1,0xc0ff
    6fc8:	af4d0358 	sw	t5,856(k0)
    6fcc:	af47035c 	sw	a3,860(k0)
    6fd0:	af480360 	sw	t0,864(k0)
    6fd4:	af490364 	sw	t1,868(k0)
    6fd8:	af4a0368 	sw	t2,872(k0)
    6fdc:	af4b0204 	sw	t3,516(k0)
    6fe0:	af4c0200 	sw	t4,512(k0)
    6fe4:	8f840220 	lw	a0,544(gp)
    6fe8:	3463ffff 	ori	v1,v1,0xffff
    6fec:	8f860200 	lw	a2,512(gp)
    6ff0:	00821024 	and	v0,a0,v0
    6ff4:	34420004 	ori	v0,v0,0x4
    6ff8:	00c31824 	and	v1,a2,v1
    6ffc:	34630004 	ori	v1,v1,0x4
    7000:	af820220 	sw	v0,544(gp)
    7004:	af830200 	sw	v1,512(gp)
    7008:	8ca20214 	lw	v0,532(a1)
    700c:	ac020084 	sw	v0,132(zero)
    7010:	8ca20218 	lw	v0,536(a1)
    7014:	ac020088 	sw	v0,136(zero)
    7018:	8ca2021c 	lw	v0,540(a1)
    701c:	ac02008c 	sw	v0,140(zero)
    7020:	8ca20220 	lw	v0,544(a1)
    7024:	ac020090 	sw	v0,144(zero)
    7028:	8ca20224 	lw	v0,548(a1)
    702c:	ac020094 	sw	v0,148(zero)
    7030:	8ca20228 	lw	v0,552(a1)
    7034:	ac020098 	sw	v0,152(zero)
    7038:	8ca2022c 	lw	v0,556(a1)
    703c:	ac02009c 	sw	v0,156(zero)
    7040:	8ca20230 	lw	v0,560(a1)
    7044:	ac0200a0 	sw	v0,160(zero)
    7048:	8ca20234 	lw	v0,564(a1)
    704c:	ac0200a4 	sw	v0,164(zero)
    7050:	8ca20238 	lw	v0,568(a1)
    7054:	ac0200a8 	sw	v0,168(zero)
    7058:	8ca2023c 	lw	v0,572(a1)
    705c:	ac0200ac 	sw	v0,172(zero)
    7060:	8ca20240 	lw	v0,576(a1)
    7064:	ac0200b0 	sw	v0,176(zero)
    7068:	8ca20244 	lw	v0,580(a1)
    706c:	ac0200b4 	sw	v0,180(zero)
    7070:	8ca20248 	lw	v0,584(a1)
    7074:	ac0200b8 	sw	v0,184(zero)
    7078:	8ca2024c 	lw	v0,588(a1)
    707c:	ac0200bc 	sw	v0,188(zero)
    7080:	8ca2001c 	lw	v0,28(a1)
    7084:	ac020080 	sw	v0,128(zero)
    7088:	8ca20018 	lw	v0,24(a1)
    708c:	ac0200c0 	sw	v0,192(zero)
    7090:	8ca20020 	lw	v0,32(a1)
    7094:	ac0200cc 	sw	v0,204(zero)
    7098:	8ca20024 	lw	v0,36(a1)
    709c:	ac0200d0 	sw	v0,208(zero)
    70a0:	8ca201d0 	lw	v0,464(a1)
    70a4:	ac0200e0 	sw	v0,224(zero)
    70a8:	8ca201d4 	lw	v0,468(a1)
    70ac:	ac0200e4 	sw	v0,228(zero)
    70b0:	8ca201d8 	lw	v0,472(a1)
    70b4:	ac0200e8 	sw	v0,232(zero)
    70b8:	8ca201dc 	lw	v0,476(a1)
    70bc:	ac0200ec 	sw	v0,236(zero)
    70c0:	8ca201e0 	lw	v0,480(a1)
    70c4:	ac0200f0 	sw	v0,240(zero)
    70c8:	8ca20098 	lw	v0,152(a1)
    70cc:	8ca3009c 	lw	v1,156(a1)
    70d0:	ac0300fc 	sw	v1,252(zero)
    70d4:	8ca200a8 	lw	v0,168(a1)
    70d8:	8ca300ac 	lw	v1,172(a1)
    70dc:	ac0300f4 	sw	v1,244(zero)
    70e0:	8ca200a0 	lw	v0,160(a1)
    70e4:	8ca300a4 	lw	v1,164(a1)
    70e8:	30840004 	andi	a0,a0,0x4
    70ec:	ac0300f8 	sw	v1,248(zero)
    70f0:	14800007 	bnez	a0,0x7110
    70f4:	30c20004 	andi	v0,a2,0x4
    70f8:	8f820220 	lw	v0,544(gp)
    70fc:	3c0308ff 	lui	v1,0x8ff
    7100:	3463fffb 	ori	v1,v1,0xfffb
    7104:	00431024 	and	v0,v0,v1
    7108:	af820220 	sw	v0,544(gp)
    710c:	30c20004 	andi	v0,a2,0x4
    7110:	14400006 	bnez	v0,0x712c
    7114:	00000000 	nop
    7118:	8f820200 	lw	v0,512(gp)
    711c:	3c03c0ff 	lui	v1,0xc0ff
    7120:	3463fffb 	ori	v1,v1,0xfffb
    7124:	00431024 	and	v0,v0,v1
    7128:	af820200 	sw	v0,512(gp)
    712c:	8f4202dc 	lw	v0,732(k0)
    7130:	a34005c5 	sb	zero,1477(k0)
    7134:	24420001 	addiu	v0,v0,1
    7138:	af4202dc 	sw	v0,732(k0)
    713c:	8f4202dc 	lw	v0,732(k0)
    7140:	03e00008 	jr	ra
    7144:	00000000 	nop
    7148:	27bdffd8 	addiu	sp,sp,-40
    714c:	afbf0024 	sw	ra,36(sp)
    7150:	afb00020 	sw	s0,32(sp)
    7154:	8f430024 	lw	v1,36(k0)
    7158:	8f420020 	lw	v0,32(k0)
    715c:	10620038 	beq	v1,v0,0x7240
    7160:	00000000 	nop
    7164:	8f430020 	lw	v1,32(k0)
    7168:	8f420024 	lw	v0,36(k0)
    716c:	00622023 	subu	a0,v1,v0
    7170:	04810003 	bgez	a0,0x7180
    7174:	00000000 	nop
    7178:	8f420040 	lw	v0,64(k0)
    717c:	00822021 	addu	a0,a0,v0
    7180:	8f430030 	lw	v1,48(k0)
    7184:	8f420024 	lw	v0,36(k0)
    7188:	0043102b 	sltu	v0,v0,v1
    718c:	14400005 	bnez	v0,0x71a4
    7190:	00000000 	nop
    7194:	8f430040 	lw	v1,64(k0)
    7198:	8f420024 	lw	v0,36(k0)
    719c:	10000005 	b	0x71b4
    71a0:	00621023 	subu	v0,v1,v0
    71a4:	8f420030 	lw	v0,48(k0)
    71a8:	8f430024 	lw	v1,36(k0)
    71ac:	00431023 	subu	v0,v0,v1
    71b0:	2442ffff 	addiu	v0,v0,-1
    71b4:	00406021 	move	t4,v0
    71b8:	008c102a 	slt	v0,a0,t4
    71bc:	54400001 	bnezl	v0,0x71c4
    71c0:	00806021 	move	t4,a0
    71c4:	8f4a0024 	lw	t2,36(k0)
    71c8:	8f490040 	lw	t1,64(k0)
    71cc:	8f480024 	lw	t0,36(k0)
    71d0:	8f440180 	lw	a0,384(k0)
    71d4:	8f450184 	lw	a1,388(k0)
    71d8:	8f460024 	lw	a2,36(k0)
    71dc:	8f4b001c 	lw	t3,28(k0)
    71e0:	24070001 	li	a3,1
    71e4:	afa70010 	sw	a3,16(sp)
    71e8:	00084100 	sll	t0,t0,0x4
    71ec:	01001821 	move	v1,t0
    71f0:	014c5021 	addu	t2,t2,t4
    71f4:	2529ffff 	addiu	t1,t1,-1
    71f8:	01498024 	and	s0,t2,t1
    71fc:	afb00014 	sw	s0,20(sp)
    7200:	8f470014 	lw	a3,20(k0)
    7204:	00001021 	move	v0,zero
    7208:	00063100 	sll	a2,a2,0x4
    720c:	afa70018 	sw	a3,24(sp)
    7210:	00a32821 	addu	a1,a1,v1
    7214:	00a3382b 	sltu	a3,a1,v1
    7218:	00822021 	addu	a0,a0,v0
    721c:	00872021 	addu	a0,a0,a3
    7220:	8f420108 	lw	v0,264(k0)
    7224:	01663021 	addu	a2,t3,a2
    7228:	0040f809 	jalr	v0
    722c:	000c3900 	sll	a3,t4,0x4
    7230:	54400001 	bnezl	v0,0x7238
    7234:	af500024 	sw	s0,36(k0)
    7238:	8f430024 	lw	v1,36(k0)
    723c:	8f420020 	lw	v0,32(k0)
    7240:	14620018 	bne	v1,v0,0x72a4
    7244:	00000000 	nop
    7248:	8f420000 	lw	v0,0(k0)
    724c:	10400007 	beqz	v0,0x726c
    7250:	00000000 	nop
    7254:	af80004c 	sw	zero,76(gp)
    7258:	8f82004c 	lw	v0,76(gp)
    725c:	1040fffd 	beqz	v0,0x7254
    7260:	00000000 	nop
    7264:	10000005 	b	0x727c
    7268:	00000000 	nop
    726c:	af800048 	sw	zero,72(gp)
    7270:	8f820048 	lw	v0,72(gp)
    7274:	1040fffd 	beqz	v0,0x726c
    7278:	00000000 	nop
    727c:	8f820060 	lw	v0,96(gp)
    7280:	2403ffef 	li	v1,-17
    7284:	00431024 	and	v0,v0,v1
    7288:	af820060 	sw	v0,96(gp)
    728c:	8f420000 	lw	v0,0(k0)
    7290:	10400003 	beqz	v0,0x72a0
    7294:	00000000 	nop
    7298:	10000002 	b	0x72a4
    729c:	af80004c 	sw	zero,76(gp)
    72a0:	af800048 	sw	zero,72(gp)
    72a4:	8fbf0024 	lw	ra,36(sp)
    72a8:	8fb00020 	lw	s0,32(sp)
    72ac:	03e00008 	jr	ra
    72b0:	27bd0028 	addiu	sp,sp,40
    72b4:	03e00008 	jr	ra
    72b8:	00000000 	nop
    72bc:	27bdffc0 	addiu	sp,sp,-64
    72c0:	32c20020 	andi	v0,s6,0x20
    72c4:	afbf0038 	sw	ra,56(sp)
    72c8:	afb30034 	sw	s3,52(sp)
    72cc:	afb20030 	sw	s2,48(sp)
    72d0:	afb1002c 	sw	s1,44(sp)
    72d4:	10400004 	beqz	v0,0x72e8
    72d8:	afb00028 	sw	s0,40(sp)
    72dc:	8f530028 	lw	s3,40(k0)
    72e0:	10000002 	b	0x72ec
    72e4:	00000000 	nop
    72e8:	8f530020 	lw	s3,32(k0)
    72ec:	8f420030 	lw	v0,48(k0)
    72f0:	105300eb 	beq	v0,s3,0x76a0
    72f4:	00021100 	sll	v0,v0,0x4
    72f8:	8f43001c 	lw	v1,28(k0)
    72fc:	00628021 	addu	s0,v1,v0
    7300:	8e040000 	lw	a0,0(s0)
    7304:	8e050004 	lw	a1,4(s0)
    7308:	96120008 	lhu	s2,8(s0)
    730c:	8f420090 	lw	v0,144(k0)
    7310:	9611000a 	lhu	s1,10(s0)
    7314:	3246ffff 	andi	a2,s2,0xffff
    7318:	0046102a 	slt	v0,v0,a2
    731c:	10400017 	beqz	v0,0x737c
    7320:	00000000 	nop
    7324:	8f8200d8 	lw	v0,216(gp)
    7328:	8f430098 	lw	v1,152(k0)
    732c:	00431023 	subu	v0,v0,v1
    7330:	2442dcbe 	addiu	v0,v0,-9026
    7334:	af420090 	sw	v0,144(k0)
    7338:	8f420090 	lw	v0,144(k0)
    733c:	2842dcbf 	slti	v0,v0,-9025
    7340:	10400005 	beqz	v0,0x7358
    7344:	00000000 	nop
    7348:	8f420090 	lw	v0,144(k0)
    734c:	8f430144 	lw	v1,324(k0)
    7350:	00431021 	addu	v0,v0,v1
    7354:	af420090 	sw	v0,144(k0)
    7358:	8f420090 	lw	v0,144(k0)
    735c:	0046102a 	slt	v0,v0,a2
    7360:	10400006 	beqz	v0,0x737c
    7364:	00000000 	nop
    7368:	8f420348 	lw	v0,840(k0)
    736c:	24420001 	addiu	v0,v0,1
    7370:	af420348 	sw	v0,840(k0)
    7374:	100000e1 	b	0x76fc
    7378:	8f420348 	lw	v0,840(k0)
    737c:	8f8200fc 	lw	v0,252(gp)
    7380:	14400006 	bnez	v0,0x739c
    7384:	00000000 	nop
    7388:	8f420344 	lw	v0,836(k0)
    738c:	24420001 	addiu	v0,v0,1
    7390:	af420344 	sw	v0,836(k0)
    7394:	100000d9 	b	0x76fc
    7398:	8f420344 	lw	v0,836(k0)
    739c:	934205c2 	lbu	v0,1474(k0)
    73a0:	1040000b 	beqz	v0,0x73d0
    73a4:	32c20008 	andi	v0,s6,0x8
    73a8:	10400008 	beqz	v0,0x73cc
    73ac:	32220200 	andi	v0,s1,0x200
    73b0:	10400006 	beqz	v0,0x73cc
    73b4:	3c034000 	lui	v1,0x4000
    73b8:	9602000e 	lhu	v0,14(s0)
    73bc:	af4300ac 	sw	v1,172(k0)
    73c0:	00021400 	sll	v0,v0,0x10
    73c4:	10000002 	b	0x73d0
    73c8:	af4200b0 	sw	v0,176(k0)
    73cc:	af4000ac 	sw	zero,172(k0)
    73d0:	32220004 	andi	v0,s1,0x4
    73d4:	1040007f 	beqz	v0,0x75d4
    73d8:	32220800 	andi	v0,s1,0x800
    73dc:	10400003 	beqz	v0,0x73ec
    73e0:	3247ffff 	andi	a3,s2,0xffff
    73e4:	10000002 	b	0x73f0
    73e8:	24020020 	li	v0,32
    73ec:	24020004 	li	v0,4
    73f0:	afa20010 	sw	v0,16(sp)
    73f4:	8f420030 	lw	v0,48(k0)
    73f8:	afa20014 	sw	v0,20(sp)
    73fc:	8f420010 	lw	v0,16(k0)
    7400:	3c030002 	lui	v1,0x2
    7404:	00431025 	or	v0,v0,v1
    7408:	afa20018 	sw	v0,24(sp)
    740c:	8f460098 	lw	a2,152(k0)
    7410:	8f420108 	lw	v0,264(k0)
    7414:	0040f809 	jalr	v0
    7418:	00000000 	nop
    741c:	104000b7 	beqz	v0,0x76fc
    7420:	00000000 	nop
    7424:	8f42009c 	lw	v0,156(k0)
    7428:	8f430094 	lw	v1,148(k0)
    742c:	02421021 	addu	v0,s2,v0
    7430:	af42009c 	sw	v0,156(k0)
    7434:	ae03000c 	sw	v1,12(s0)
    7438:	8f4200ac 	lw	v0,172(k0)
    743c:	10400008 	beqz	v0,0x7460
    7440:	3c034000 	lui	v1,0x4000
    7444:	8f420094 	lw	v0,148(k0)
    7448:	00431025 	or	v0,v0,v1
    744c:	afa20020 	sw	v0,32(sp)
    7450:	8f42009c 	lw	v0,156(k0)
    7454:	8f4300b0 	lw	v1,176(k0)
    7458:	10000004 	b	0x746c
    745c:	00431025 	or	v0,v0,v1
    7460:	8f420094 	lw	v0,148(k0)
    7464:	afa20020 	sw	v0,32(sp)
    7468:	8f42009c 	lw	v0,156(k0)
    746c:	afa20024 	sw	v0,36(sp)
    7470:	8f8200fc 	lw	v0,252(gp)
    7474:	8fa30020 	lw	v1,32(sp)
    7478:	8fa40024 	lw	a0,36(sp)
    747c:	ac430000 	sw	v1,0(v0)
    7480:	ac440004 	sw	a0,4(v0)
    7484:	24420008 	addiu	v0,v0,8
    7488:	af8200f0 	sw	v0,240(gp)
    748c:	8f42009c 	lw	v0,156(k0)
    7490:	8f440270 	lw	a0,624(k0)
    7494:	8f450274 	lw	a1,628(k0)
    7498:	00401821 	move	v1,v0
    749c:	00001021 	move	v0,zero
    74a0:	00a32821 	addu	a1,a1,v1
    74a4:	00a3302b 	sltu	a2,a1,v1
    74a8:	00822021 	addu	a0,a0,v0
    74ac:	00862021 	addu	a0,a0,a2
    74b0:	32230060 	andi	v1,s1,0x60
    74b4:	24020040 	li	v0,64
    74b8:	af440270 	sw	a0,624(k0)
    74bc:	af450274 	sw	a1,628(k0)
    74c0:	10620017 	beq	v1,v0,0x7520
    74c4:	2c620041 	sltiu	v0,v1,65
    74c8:	10400005 	beqz	v0,0x74e0
    74cc:	24020020 	li	v0,32
    74d0:	10620008 	beq	v1,v0,0x74f4
    74d4:	24020001 	li	v0,1
    74d8:	10000026 	b	0x7574
    74dc:	00000000 	nop
    74e0:	24020060 	li	v0,96
    74e4:	10620019 	beq	v1,v0,0x754c
    74e8:	24020001 	li	v0,1
    74ec:	10000021 	b	0x7574
    74f0:	00000000 	nop
    74f4:	8f420278 	lw	v0,632(k0)
    74f8:	8f43027c 	lw	v1,636(k0)
    74fc:	24630001 	addiu	v1,v1,1
    7500:	2c640001 	sltiu	a0,v1,1
    7504:	00441021 	addu	v0,v0,a0
    7508:	af420278 	sw	v0,632(k0)
    750c:	af43027c 	sw	v1,636(k0)
    7510:	8f420278 	lw	v0,632(k0)
    7514:	8f43027c 	lw	v1,636(k0)
    7518:	10000016 	b	0x7574
    751c:	24020001 	li	v0,1
    7520:	8f420280 	lw	v0,640(k0)
    7524:	8f430284 	lw	v1,644(k0)
    7528:	24630001 	addiu	v1,v1,1
    752c:	2c640001 	sltiu	a0,v1,1
    7530:	00441021 	addu	v0,v0,a0
    7534:	af420280 	sw	v0,640(k0)
    7538:	af430284 	sw	v1,644(k0)
    753c:	8f420280 	lw	v0,640(k0)
    7540:	8f430284 	lw	v1,644(k0)
    7544:	1000000b 	b	0x7574
    7548:	24020001 	li	v0,1
    754c:	8f420288 	lw	v0,648(k0)
    7550:	8f43028c 	lw	v1,652(k0)
    7554:	24630001 	addiu	v1,v1,1
    7558:	2c640001 	sltiu	a0,v1,1
    755c:	00441021 	addu	v0,v0,a0
    7560:	af420288 	sw	v0,648(k0)
    7564:	af43028c 	sw	v1,652(k0)
    7568:	8f420288 	lw	v0,648(k0)
    756c:	8f43028c 	lw	v1,652(k0)
    7570:	24020001 	li	v0,1
    7574:	a34205c2 	sb	v0,1474(k0)
    7578:	8f420098 	lw	v0,152(k0)
    757c:	3244ffff 	andi	a0,s2,0xffff
    7580:	2406fff8 	li	a2,-8
    7584:	8f45013c 	lw	a1,316(k0)
    7588:	00441021 	addu	v0,v0,a0
    758c:	24420007 	addiu	v0,v0,7
    7590:	00461024 	and	v0,v0,a2
    7594:	24840007 	addiu	a0,a0,7
    7598:	af420094 	sw	v0,148(k0)
    759c:	8f420090 	lw	v0,144(k0)
    75a0:	8f430094 	lw	v1,148(k0)
    75a4:	00862024 	and	a0,a0,a2
    75a8:	00441023 	subu	v0,v0,a0
    75ac:	0065182b 	sltu	v1,v1,a1
    75b0:	14600005 	bnez	v1,0x75c8
    75b4:	af420090 	sw	v0,144(k0)
    75b8:	8f420094 	lw	v0,148(k0)
    75bc:	8f430144 	lw	v1,324(k0)
    75c0:	00431023 	subu	v0,v0,v1
    75c4:	af420094 	sw	v0,148(k0)
    75c8:	8f420094 	lw	v0,148(k0)
    75cc:	10000023 	b	0x765c
    75d0:	af40009c 	sw	zero,156(k0)
    75d4:	3247ffff 	andi	a3,s2,0xffff
    75d8:	50e00022 	beqzl	a3,0x7664
    75dc:	32c20020 	andi	v0,s6,0x20
    75e0:	14400002 	bnez	v0,0x75ec
    75e4:	24020010 	li	v0,16
    75e8:	24020002 	li	v0,2
    75ec:	afa20010 	sw	v0,16(sp)
    75f0:	8f420030 	lw	v0,48(k0)
    75f4:	afa20014 	sw	v0,20(sp)
    75f8:	8f420010 	lw	v0,16(k0)
    75fc:	afa20018 	sw	v0,24(sp)
    7600:	8f460098 	lw	a2,152(k0)
    7604:	8f420108 	lw	v0,264(k0)
    7608:	0040f809 	jalr	v0
    760c:	00000000 	nop
    7610:	1040003a 	beqz	v0,0x76fc
    7614:	3245ffff 	andi	a1,s2,0xffff
    7618:	8f420098 	lw	v0,152(k0)
    761c:	8f430090 	lw	v1,144(k0)
    7620:	8f46013c 	lw	a2,316(k0)
    7624:	00451021 	addu	v0,v0,a1
    7628:	af420098 	sw	v0,152(k0)
    762c:	8f42009c 	lw	v0,156(k0)
    7630:	8f440098 	lw	a0,152(k0)
    7634:	a34005c2 	sb	zero,1474(k0)
    7638:	00651823 	subu	v1,v1,a1
    763c:	af430090 	sw	v1,144(k0)
    7640:	00451021 	addu	v0,v0,a1
    7644:	0086202b 	sltu	a0,a0,a2
    7648:	14800005 	bnez	a0,0x7660
    764c:	af42009c 	sw	v0,156(k0)
    7650:	8f420098 	lw	v0,152(k0)
    7654:	8f430144 	lw	v1,324(k0)
    7658:	00431023 	subu	v0,v0,v1
    765c:	af420098 	sw	v0,152(k0)
    7660:	32c20020 	andi	v0,s6,0x20
    7664:	10400005 	beqz	v0,0x767c
    7668:	00000000 	nop
    766c:	8f420358 	lw	v0,856(k0)
    7670:	2442ffff 	addiu	v0,v0,-1
    7674:	af420358 	sw	v0,856(k0)
    7678:	8f420358 	lw	v0,856(k0)
    767c:	8f420030 	lw	v0,48(k0)
    7680:	8f430040 	lw	v1,64(k0)
    7684:	24420001 	addiu	v0,v0,1
    7688:	2463ffff 	addiu	v1,v1,-1
    768c:	00431024 	and	v0,v0,v1
    7690:	af420030 	sw	v0,48(k0)
    7694:	8f420030 	lw	v0,48(k0)
    7698:	14530018 	bne	v0,s3,0x76fc
    769c:	00000000 	nop
    76a0:	8f420000 	lw	v0,0(k0)
    76a4:	10400007 	beqz	v0,0x76c4
    76a8:	00000000 	nop
    76ac:	af80004c 	sw	zero,76(gp)
    76b0:	8f82004c 	lw	v0,76(gp)
    76b4:	1040fffd 	beqz	v0,0x76ac
    76b8:	00000000 	nop
    76bc:	10000005 	b	0x76d4
    76c0:	00000000 	nop
    76c4:	af800048 	sw	zero,72(gp)
    76c8:	8f820048 	lw	v0,72(gp)
    76cc:	1040fffd 	beqz	v0,0x76c4
    76d0:	00000000 	nop
    76d4:	8f820060 	lw	v0,96(gp)
    76d8:	2403fff7 	li	v1,-9
    76dc:	00431024 	and	v0,v0,v1
    76e0:	af820060 	sw	v0,96(gp)
    76e4:	8f420000 	lw	v0,0(k0)
    76e8:	10400003 	beqz	v0,0x76f8
    76ec:	00000000 	nop
    76f0:	10000002 	b	0x76fc
    76f4:	af80004c 	sw	zero,76(gp)
    76f8:	af800048 	sw	zero,72(gp)
    76fc:	8fbf0038 	lw	ra,56(sp)
    7700:	8fb30034 	lw	s3,52(sp)
    7704:	8fb20030 	lw	s2,48(sp)
    7708:	8fb1002c 	lw	s1,44(sp)
    770c:	8fb00028 	lw	s0,40(sp)
    7710:	03e00008 	jr	ra
    7714:	27bd0040 	addiu	sp,sp,64
    7718:	03e00008 	jr	ra
    771c:	00000000 	nop
    7720:	27bdffd0 	addiu	sp,sp,-48
    7724:	32c20020 	andi	v0,s6,0x20
    7728:	afbf002c 	sw	ra,44(sp)
    772c:	afb20028 	sw	s2,40(sp)
    7730:	afb10024 	sw	s1,36(sp)
    7734:	10400004 	beqz	v0,0x7748
    7738:	afb00020 	sw	s0,32(sp)
    773c:	8f520028 	lw	s2,40(k0)
    7740:	10000002 	b	0x774c
    7744:	00000000 	nop
    7748:	8f520020 	lw	s2,32(k0)
    774c:	8f420030 	lw	v0,48(k0)
    7750:	105200b5 	beq	v0,s2,0x7a28
    7754:	00021100 	sll	v0,v0,0x4
    7758:	8f43001c 	lw	v1,28(k0)
    775c:	00628021 	addu	s0,v1,v0
    7760:	8e040000 	lw	a0,0(s0)
    7764:	8e050004 	lw	a1,4(s0)
    7768:	96110008 	lhu	s1,8(s0)
    776c:	8f420090 	lw	v0,144(k0)
    7770:	9607000a 	lhu	a3,10(s0)
    7774:	3226ffff 	andi	a2,s1,0xffff
    7778:	0046102a 	slt	v0,v0,a2
    777c:	10400017 	beqz	v0,0x77dc
    7780:	00000000 	nop
    7784:	8f8200d8 	lw	v0,216(gp)
    7788:	8f430098 	lw	v1,152(k0)
    778c:	00431023 	subu	v0,v0,v1
    7790:	2442dc46 	addiu	v0,v0,-9146
    7794:	af420090 	sw	v0,144(k0)
    7798:	8f420090 	lw	v0,144(k0)
    779c:	2842dc47 	slti	v0,v0,-9145
    77a0:	10400005 	beqz	v0,0x77b8
    77a4:	00000000 	nop
    77a8:	8f420090 	lw	v0,144(k0)
    77ac:	8f430144 	lw	v1,324(k0)
    77b0:	00431021 	addu	v0,v0,v1
    77b4:	af420090 	sw	v0,144(k0)
    77b8:	8f420090 	lw	v0,144(k0)
    77bc:	0046102a 	slt	v0,v0,a2
    77c0:	10400006 	beqz	v0,0x77dc
    77c4:	00000000 	nop
    77c8:	8f420348 	lw	v0,840(k0)
    77cc:	24420001 	addiu	v0,v0,1
    77d0:	af420348 	sw	v0,840(k0)
    77d4:	100000ab 	b	0x7a84
    77d8:	8f420348 	lw	v0,840(k0)
    77dc:	8f8600fc 	lw	a2,252(gp)
    77e0:	10c0000c 	beqz	a2,0x7814
    77e4:	00000000 	nop
    77e8:	8f8200f4 	lw	v0,244(gp)
    77ec:	2403fff8 	li	v1,-8
    77f0:	00431024 	and	v0,v0,v1
    77f4:	00461023 	subu	v0,v0,a2
    77f8:	000218c3 	sra	v1,v0,0x3
    77fc:	58600001 	blezl	v1,0x7804
    7800:	24630100 	addiu	v1,v1,256
    7804:	8f42008c 	lw	v0,140(k0)
    7808:	0043102b 	sltu	v0,v0,v1
    780c:	14400006 	bnez	v0,0x7828
    7810:	000712c2 	srl	v0,a3,0xb
    7814:	8f420344 	lw	v0,836(k0)
    7818:	24420001 	addiu	v0,v0,1
    781c:	af420344 	sw	v0,836(k0)
    7820:	10000098 	b	0x7a84
    7824:	8f420344 	lw	v0,836(k0)
    7828:	934305c2 	lbu	v1,1474(k0)
    782c:	1060000f 	beqz	v1,0x786c
    7830:	30460001 	andi	a2,v0,0x1
    7834:	8f420010 	lw	v0,16(k0)
    7838:	34480400 	ori	t0,v0,0x400
    783c:	32c20008 	andi	v0,s6,0x8
    7840:	10400008 	beqz	v0,0x7864
    7844:	30e20200 	andi	v0,a3,0x200
    7848:	10400006 	beqz	v0,0x7864
    784c:	3c034000 	lui	v1,0x4000
    7850:	9602000e 	lhu	v0,14(s0)
    7854:	af4300ac 	sw	v1,172(k0)
    7858:	00021400 	sll	v0,v0,0x10
    785c:	10000004 	b	0x7870
    7860:	af4200b0 	sw	v0,176(k0)
    7864:	10000002 	b	0x7870
    7868:	af4000ac 	sw	zero,172(k0)
    786c:	8f480010 	lw	t0,16(k0)
    7870:	30e20004 	andi	v0,a3,0x4
    7874:	10400045 	beqz	v0,0x798c
    7878:	3227ffff 	andi	a3,s1,0xffff
    787c:	8f4900ac 	lw	t1,172(k0)
    7880:	11200005 	beqz	t1,0x7898
    7884:	30c200ff 	andi	v0,a2,0xff
    7888:	14400006 	bnez	v0,0x78a4
    788c:	24020040 	li	v0,64
    7890:	10000004 	b	0x78a4
    7894:	24020008 	li	v0,8
    7898:	14400002 	bnez	v0,0x78a4
    789c:	24020020 	li	v0,32
    78a0:	24020004 	li	v0,4
    78a4:	afa20010 	sw	v0,16(sp)
    78a8:	8f430030 	lw	v1,48(k0)
    78ac:	11200004 	beqz	t1,0x78c0
    78b0:	afa30014 	sw	v1,20(sp)
    78b4:	8f4200b0 	lw	v0,176(k0)
    78b8:	00621025 	or	v0,v1,v0
    78bc:	afa20014 	sw	v0,20(sp)
    78c0:	3c020002 	lui	v0,0x2
    78c4:	01021025 	or	v0,t0,v0
    78c8:	afa20018 	sw	v0,24(sp)
    78cc:	8f460098 	lw	a2,152(k0)
    78d0:	8f420108 	lw	v0,264(k0)
    78d4:	0040f809 	jalr	v0
    78d8:	00000000 	nop
    78dc:	10400069 	beqz	v0,0x7a84
    78e0:	3224ffff 	andi	a0,s1,0xffff
    78e4:	8f42008c 	lw	v0,140(k0)
    78e8:	8f430094 	lw	v1,148(k0)
    78ec:	24420001 	addiu	v0,v0,1
    78f0:	af42008c 	sw	v0,140(k0)
    78f4:	24020001 	li	v0,1
    78f8:	ae03000c 	sw	v1,12(s0)
    78fc:	a34205c2 	sb	v0,1474(k0)
    7900:	8f420098 	lw	v0,152(k0)
    7904:	2406fff8 	li	a2,-8
    7908:	8f45013c 	lw	a1,316(k0)
    790c:	00441021 	addu	v0,v0,a0
    7910:	24420007 	addiu	v0,v0,7
    7914:	00461024 	and	v0,v0,a2
    7918:	24840007 	addiu	a0,a0,7
    791c:	af420094 	sw	v0,148(k0)
    7920:	8f420090 	lw	v0,144(k0)
    7924:	8f430094 	lw	v1,148(k0)
    7928:	00862024 	and	a0,a0,a2
    792c:	00441023 	subu	v0,v0,a0
    7930:	0065182b 	sltu	v1,v1,a1
    7934:	14600005 	bnez	v1,0x794c
    7938:	af420090 	sw	v0,144(k0)
    793c:	8f420094 	lw	v0,148(k0)
    7940:	8f430144 	lw	v1,324(k0)
    7944:	00431023 	subu	v0,v0,v1
    7948:	af420094 	sw	v0,148(k0)
    794c:	8f430094 	lw	v1,148(k0)
    7950:	8f420140 	lw	v0,320(k0)
    7954:	0043102b 	sltu	v0,v0,v1
    7958:	10400009 	beqz	v0,0x7980
    795c:	00000000 	nop
    7960:	8f43013c 	lw	v1,316(k0)
    7964:	8f440094 	lw	a0,148(k0)
    7968:	8f420090 	lw	v0,144(k0)
    796c:	8f450138 	lw	a1,312(k0)
    7970:	00641823 	subu	v1,v1,a0
    7974:	00431023 	subu	v0,v0,v1
    7978:	af420090 	sw	v0,144(k0)
    797c:	af450094 	sw	a1,148(k0)
    7980:	8f420094 	lw	v0,148(k0)
    7984:	1000001f 	b	0x7a04
    7988:	af420098 	sw	v0,152(k0)
    798c:	10e0001d 	beqz	a3,0x7a04
    7990:	30c200ff 	andi	v0,a2,0xff
    7994:	14400002 	bnez	v0,0x79a0
    7998:	24020010 	li	v0,16
    799c:	24020002 	li	v0,2
    79a0:	afa20010 	sw	v0,16(sp)
    79a4:	8f420030 	lw	v0,48(k0)
    79a8:	afa80018 	sw	t0,24(sp)
    79ac:	afa20014 	sw	v0,20(sp)
    79b0:	8f460098 	lw	a2,152(k0)
    79b4:	8f420108 	lw	v0,264(k0)
    79b8:	0040f809 	jalr	v0
    79bc:	00000000 	nop
    79c0:	10400030 	beqz	v0,0x7a84
    79c4:	3225ffff 	andi	a1,s1,0xffff
    79c8:	8f420098 	lw	v0,152(k0)
    79cc:	8f44013c 	lw	a0,316(k0)
    79d0:	00451021 	addu	v0,v0,a1
    79d4:	af420098 	sw	v0,152(k0)
    79d8:	8f420090 	lw	v0,144(k0)
    79dc:	8f430098 	lw	v1,152(k0)
    79e0:	a34005c2 	sb	zero,1474(k0)
    79e4:	00451023 	subu	v0,v0,a1
    79e8:	0064182b 	sltu	v1,v1,a0
    79ec:	14600005 	bnez	v1,0x7a04
    79f0:	af420090 	sw	v0,144(k0)
    79f4:	8f420098 	lw	v0,152(k0)
    79f8:	8f430144 	lw	v1,324(k0)
    79fc:	00431023 	subu	v0,v0,v1
    7a00:	af420098 	sw	v0,152(k0)
    7a04:	8f420030 	lw	v0,48(k0)
    7a08:	8f430040 	lw	v1,64(k0)
    7a0c:	24420001 	addiu	v0,v0,1
    7a10:	2463ffff 	addiu	v1,v1,-1
    7a14:	00431024 	and	v0,v0,v1
    7a18:	af420030 	sw	v0,48(k0)
    7a1c:	8f420030 	lw	v0,48(k0)
    7a20:	14520018 	bne	v0,s2,0x7a84
    7a24:	00000000 	nop
    7a28:	8f420000 	lw	v0,0(k0)
    7a2c:	10400007 	beqz	v0,0x7a4c
    7a30:	00000000 	nop
    7a34:	af80004c 	sw	zero,76(gp)
    7a38:	8f82004c 	lw	v0,76(gp)
    7a3c:	1040fffd 	beqz	v0,0x7a34
    7a40:	00000000 	nop
    7a44:	10000005 	b	0x7a5c
    7a48:	00000000 	nop
    7a4c:	af800048 	sw	zero,72(gp)
    7a50:	8f820048 	lw	v0,72(gp)
    7a54:	1040fffd 	beqz	v0,0x7a4c
    7a58:	00000000 	nop
    7a5c:	8f820060 	lw	v0,96(gp)
    7a60:	2403fff7 	li	v1,-9
    7a64:	00431024 	and	v0,v0,v1
    7a68:	af820060 	sw	v0,96(gp)
    7a6c:	8f420000 	lw	v0,0(k0)
    7a70:	10400003 	beqz	v0,0x7a80
    7a74:	00000000 	nop
    7a78:	10000002 	b	0x7a84
    7a7c:	af80004c 	sw	zero,76(gp)
    7a80:	af800048 	sw	zero,72(gp)
    7a84:	8fbf002c 	lw	ra,44(sp)
    7a88:	8fb20028 	lw	s2,40(sp)
    7a8c:	8fb10024 	lw	s1,36(sp)
    7a90:	8fb00020 	lw	s0,32(sp)
    7a94:	03e00008 	jr	ra
    7a98:	27bd0030 	addiu	sp,sp,48
    7a9c:	03e00008 	jr	ra
    7aa0:	00000000 	nop
    7aa4:	27bdffd8 	addiu	sp,sp,-40
    7aa8:	3c020001 	lui	v0,0x1
    7aac:	34422ec0 	ori	v0,v0,0x2ec0
    7ab0:	afbf0020 	sw	ra,32(sp)
    7ab4:	8f4300f0 	lw	v1,240(k0)
    7ab8:	8f840108 	lw	a0,264(gp)
    7abc:	02e21021 	addu	v0,s7,v0
    7ac0:	54620004 	bnel	v1,v0,0x7ad4
    7ac4:	24620008 	addiu	v0,v1,8
    7ac8:	3c020001 	lui	v0,0x1
    7acc:	34422cc0 	ori	v0,v0,0x2cc0
    7ad0:	02e21021 	addu	v0,s7,v0
    7ad4:	00401821 	move	v1,v0
    7ad8:	af4300f0 	sw	v1,240(k0)
    7adc:	ac600000 	sw	zero,0(v1)
    7ae0:	8f4200ec 	lw	v0,236(k0)
    7ae4:	8c660004 	lw	a2,4(v1)
    7ae8:	14620004 	bne	v1,v0,0x7afc
    7aec:	3c020001 	lui	v0,0x1
    7af0:	24820020 	addiu	v0,a0,32
    7af4:	1000000f 	b	0x7b34
    7af8:	af820108 	sw	v0,264(gp)
    7afc:	8f4300f0 	lw	v1,240(k0)
    7b00:	34422ec0 	ori	v0,v0,0x2ec0
    7b04:	02e21021 	addu	v0,s7,v0
    7b08:	54620004 	bnel	v1,v0,0x7b1c
    7b0c:	24620008 	addiu	v0,v1,8
    7b10:	3c020001 	lui	v0,0x1
    7b14:	34422cc0 	ori	v0,v0,0x2cc0
    7b18:	02e21021 	addu	v0,s7,v0
    7b1c:	00401821 	move	v1,v0
    7b20:	8c620004 	lw	v0,4(v1)
    7b24:	00021140 	sll	v0,v0,0x5
    7b28:	00821021 	addu	v0,a0,v0
    7b2c:	af820108 	sw	v0,264(gp)
    7b30:	ac600000 	sw	zero,0(v1)
    7b34:	8c850018 	lw	a1,24(a0)
    7b38:	30a20036 	andi	v0,a1,0x36
    7b3c:	1040006c 	beqz	v0,0x7cf0
    7b40:	30a20001 	andi	v0,a1,0x1
    7b44:	8c82001c 	lw	v0,28(a0)
    7b48:	8f430040 	lw	v1,64(k0)
    7b4c:	8f440034 	lw	a0,52(k0)
    7b50:	24420001 	addiu	v0,v0,1
    7b54:	2463ffff 	addiu	v1,v1,-1
    7b58:	00431024 	and	v0,v0,v1
    7b5c:	00862021 	addu	a0,a0,a2
    7b60:	af42002c 	sw	v0,44(k0)
    7b64:	30a20030 	andi	v0,a1,0x30
    7b68:	14400006 	bnez	v0,0x7b84
    7b6c:	af440034 	sw	a0,52(k0)
    7b70:	8f420034 	lw	v0,52(k0)
    7b74:	8c03023c 	lw	v1,572(zero)
    7b78:	0043102b 	sltu	v0,v0,v1
    7b7c:	144000b4 	bnez	v0,0x7e50
    7b80:	00000000 	nop
    7b84:	32c20010 	andi	v0,s6,0x10
    7b88:	10400028 	beqz	v0,0x7c2c
    7b8c:	24070008 	li	a3,8
    7b90:	8f440170 	lw	a0,368(k0)
    7b94:	8f450174 	lw	a1,372(k0)
    7b98:	8f43002c 	lw	v1,44(k0)
    7b9c:	8f48000c 	lw	t0,12(k0)
    7ba0:	8f860120 	lw	a2,288(gp)
    7ba4:	24020080 	li	v0,128
    7ba8:	afa20010 	sw	v0,16(sp)
    7bac:	afa30014 	sw	v1,20(sp)
    7bb0:	afa80018 	sw	t0,24(sp)
    7bb4:	8f42010c 	lw	v0,268(k0)
    7bb8:	0040f809 	jalr	v0
    7bbc:	24c6001c 	addiu	a2,a2,28
    7bc0:	14400011 	bnez	v0,0x7c08
    7bc4:	24020001 	li	v0,1
    7bc8:	3c010001 	lui	at,0x1
    7bcc:	00370821 	addu	at,at,s7
    7bd0:	a02240f1 	sb	v0,16625(at)
    7bd4:	8f820124 	lw	v0,292(gp)
    7bd8:	afa20010 	sw	v0,16(sp)
    7bdc:	8f820128 	lw	v0,296(gp)
    7be0:	3c040001 	lui	a0,0x1
    7be4:	248467c4 	addiu	a0,a0,26564
    7be8:	afa20014 	sw	v0,20(sp)
    7bec:	8f46002c 	lw	a2,44(k0)
    7bf0:	8f870120 	lw	a3,288(gp)
    7bf4:	3c050009 	lui	a1,0x9
    7bf8:	0c002b3b 	jal	0xacec
    7bfc:	34a51100 	ori	a1,a1,0x1100
    7c00:	10000036 	b	0x7cdc
    7c04:	00000000 	nop
    7c08:	8f420300 	lw	v0,768(k0)
    7c0c:	8f43002c 	lw	v1,44(k0)
    7c10:	24420001 	addiu	v0,v0,1
    7c14:	af420300 	sw	v0,768(k0)
    7c18:	8f420300 	lw	v0,768(k0)
    7c1c:	24020001 	li	v0,1
    7c20:	a34205c1 	sb	v0,1473(k0)
    7c24:	10000026 	b	0x7cc0
    7c28:	af430038 	sw	v1,56(k0)
    7c2c:	8f440170 	lw	a0,368(k0)
    7c30:	8f450174 	lw	a1,372(k0)
    7c34:	8f43002c 	lw	v1,44(k0)
    7c38:	8f48000c 	lw	t0,12(k0)
    7c3c:	8f860120 	lw	a2,288(gp)
    7c40:	24020020 	li	v0,32
    7c44:	afa20010 	sw	v0,16(sp)
    7c48:	afa30014 	sw	v1,20(sp)
    7c4c:	afa80018 	sw	t0,24(sp)
    7c50:	8f42010c 	lw	v0,268(k0)
    7c54:	0040f809 	jalr	v0
    7c58:	24c6001c 	addiu	a2,a2,28
    7c5c:	14400011 	bnez	v0,0x7ca4
    7c60:	24020001 	li	v0,1
    7c64:	3c010001 	lui	at,0x1
    7c68:	00370821 	addu	at,at,s7
    7c6c:	a02240f0 	sb	v0,16624(at)
    7c70:	8f820124 	lw	v0,292(gp)
    7c74:	afa20010 	sw	v0,16(sp)
    7c78:	8f820128 	lw	v0,296(gp)
    7c7c:	3c040001 	lui	a0,0x1
    7c80:	248467b8 	addiu	a0,a0,26552
    7c84:	afa20014 	sw	v0,20(sp)
    7c88:	8f46002c 	lw	a2,44(k0)
    7c8c:	8f870120 	lw	a3,288(gp)
    7c90:	3c050009 	lui	a1,0x9
    7c94:	0c002b3b 	jal	0xacec
    7c98:	34a50900 	ori	a1,a1,0x900
    7c9c:	1000000f 	b	0x7cdc
    7ca0:	00000000 	nop
    7ca4:	8f420300 	lw	v0,768(k0)
    7ca8:	24420001 	addiu	v0,v0,1
    7cac:	af420300 	sw	v0,768(k0)
    7cb0:	8f420300 	lw	v0,768(k0)
    7cb4:	8f42002c 	lw	v0,44(k0)
    7cb8:	a34005c1 	sb	zero,1473(k0)
    7cbc:	af420038 	sw	v0,56(k0)
    7cc0:	3c010001 	lui	at,0x1
    7cc4:	00370821 	addu	at,at,s7
    7cc8:	a02040f1 	sb	zero,16625(at)
    7ccc:	3c010001 	lui	at,0x1
    7cd0:	00370821 	addu	at,at,s7
    7cd4:	a02040f0 	sb	zero,16624(at)
    7cd8:	af400034 	sw	zero,52(k0)
    7cdc:	8f420314 	lw	v0,788(k0)
    7ce0:	24420001 	addiu	v0,v0,1
    7ce4:	af420314 	sw	v0,788(k0)
    7ce8:	10000059 	b	0x7e50
    7cec:	8f420314 	lw	v0,788(k0)
    7cf0:	10400022 	beqz	v0,0x7d7c
    7cf4:	30a27000 	andi	v0,a1,0x7000
    7cf8:	8c85001c 	lw	a1,28(a0)
    7cfc:	8f420028 	lw	v0,40(k0)
    7d00:	00a22023 	subu	a0,a1,v0
    7d04:	04810003 	bgez	a0,0x7d14
    7d08:	00000000 	nop
    7d0c:	8f420040 	lw	v0,64(k0)
    7d10:	00822021 	addu	a0,a0,v0
    7d14:	8f420358 	lw	v0,856(k0)
    7d18:	8f430000 	lw	v1,0(k0)
    7d1c:	af450028 	sw	a1,40(k0)
    7d20:	00441021 	addu	v0,v0,a0
    7d24:	10600007 	beqz	v1,0x7d44
    7d28:	af420358 	sw	v0,856(k0)
    7d2c:	af80004c 	sw	zero,76(gp)
    7d30:	8f82004c 	lw	v0,76(gp)
    7d34:	1040fffd 	beqz	v0,0x7d2c
    7d38:	00000000 	nop
    7d3c:	10000005 	b	0x7d54
    7d40:	00000000 	nop
    7d44:	af800048 	sw	zero,72(gp)
    7d48:	8f820048 	lw	v0,72(gp)
    7d4c:	1040fffd 	beqz	v0,0x7d44
    7d50:	00000000 	nop
    7d54:	8f820060 	lw	v0,96(gp)
    7d58:	34420008 	ori	v0,v0,0x8
    7d5c:	af820060 	sw	v0,96(gp)
    7d60:	8f420000 	lw	v0,0(k0)
    7d64:	10400003 	beqz	v0,0x7d74
    7d68:	00000000 	nop
    7d6c:	10000038 	b	0x7e50
    7d70:	af80004c 	sw	zero,76(gp)
    7d74:	10000036 	b	0x7e50
    7d78:	af800048 	sw	zero,72(gp)
    7d7c:	1040002f 	beqz	v0,0x7e3c
    7d80:	30a21000 	andi	v0,a1,0x1000
    7d84:	1040000c 	beqz	v0,0x7db8
    7d88:	30a24000 	andi	v0,a1,0x4000
    7d8c:	8c83001c 	lw	v1,28(a0)
    7d90:	8f420050 	lw	v0,80(k0)
    7d94:	00622023 	subu	a0,v1,v0
    7d98:	04820001 	bltzl	a0,0x7da0
    7d9c:	24840200 	addiu	a0,a0,512
    7da0:	8f42035c 	lw	v0,860(k0)
    7da4:	00441021 	addu	v0,v0,a0
    7da8:	af42035c 	sw	v0,860(k0)
    7dac:	8f420368 	lw	v0,872(k0)
    7db0:	1000001a 	b	0x7e1c
    7db4:	af430050 	sw	v1,80(k0)
    7db8:	1040000c 	beqz	v0,0x7dec
    7dbc:	32c28000 	andi	v0,s6,0x8000
    7dc0:	8c83001c 	lw	v1,28(a0)
    7dc4:	8f420070 	lw	v0,112(k0)
    7dc8:	00622023 	subu	a0,v1,v0
    7dcc:	04820001 	bltzl	a0,0x7dd4
    7dd0:	24840400 	addiu	a0,a0,1024
    7dd4:	8f420364 	lw	v0,868(k0)
    7dd8:	00441021 	addu	v0,v0,a0
    7ddc:	af420364 	sw	v0,868(k0)
    7de0:	8f420368 	lw	v0,872(k0)
    7de4:	1000000d 	b	0x7e1c
    7de8:	af430070 	sw	v1,112(k0)
    7dec:	1040000e 	beqz	v0,0x7e28
    7df0:	3c020800 	lui	v0,0x800
    7df4:	8c83001c 	lw	v1,28(a0)
    7df8:	8f420060 	lw	v0,96(k0)
    7dfc:	00622023 	subu	a0,v1,v0
    7e00:	04820001 	bltzl	a0,0x7e08
    7e04:	24840100 	addiu	a0,a0,256
    7e08:	8f420360 	lw	v0,864(k0)
    7e0c:	00441021 	addu	v0,v0,a0
    7e10:	af420360 	sw	v0,864(k0)
    7e14:	8f420368 	lw	v0,872(k0)
    7e18:	af430060 	sw	v1,96(k0)
    7e1c:	00441021 	addu	v0,v0,a0
    7e20:	af420368 	sw	v0,872(k0)
    7e24:	3c020800 	lui	v0,0x800
    7e28:	02c21024 	and	v0,s6,v0
    7e2c:	50400008 	beqzl	v0,0x7e50
    7e30:	36940040 	ori	s4,s4,0x40
    7e34:	10000006 	b	0x7e50
    7e38:	00000000 	nop
    7e3c:	30a20100 	andi	v0,a1,0x100
    7e40:	10400003 	beqz	v0,0x7e50
    7e44:	00000000 	nop
    7e48:	0c002bd8 	jal	0xaf60
    7e4c:	00000000 	nop
    7e50:	8fbf0020 	lw	ra,32(sp)
    7e54:	03e00008 	jr	ra
    7e58:	27bd0028 	addiu	sp,sp,40
    7e5c:	03e00008 	jr	ra
    7e60:	00000000 	nop
    7e64:	27bdffa8 	addiu	sp,sp,-88
    7e68:	afbf0050 	sw	ra,80(sp)
    7e6c:	afbe004c 	sw	s8,76(sp)
    7e70:	afb50048 	sw	s5,72(sp)
    7e74:	afb30044 	sw	s3,68(sp)
    7e78:	afb20040 	sw	s2,64(sp)
    7e7c:	afb1003c 	sw	s1,60(sp)
    7e80:	afb00038 	sw	s0,56(sp)
    7e84:	8f910108 	lw	s1,264(gp)
    7e88:	26220020 	addiu	v0,s1,32
    7e8c:	af820108 	sw	v0,264(gp)
    7e90:	8e320018 	lw	s2,24(s1)
    7e94:	0000a821 	move	s5,zero
    7e98:	32420024 	andi	v0,s2,0x24
    7e9c:	104001ba 	beqz	v0,0x8588
    7ea0:	0000f021 	move	s8,zero
    7ea4:	8e26001c 	lw	a2,28(s1)
    7ea8:	8f43001c 	lw	v1,28(k0)
    7eac:	00061100 	sll	v0,a2,0x4
    7eb0:	00621821 	addu	v1,v1,v0
    7eb4:	8c70000c 	lw	s0,12(v1)
    7eb8:	9604000c 	lhu	a0,12(s0)
    7ebc:	962d0016 	lhu	t5,22(s1)
    7ec0:	9473000a 	lhu	s3,10(v1)
    7ec4:	2c8305dd 	sltiu	v1,a0,1501
    7ec8:	38828870 	xori	v0,a0,0x8870
    7ecc:	2c420001 	sltiu	v0,v0,1
    7ed0:	00621825 	or	v1,v1,v0
    7ed4:	10600015 	beqz	v1,0x7f2c
    7ed8:	00002821 	move	a1,zero
    7edc:	32c20040 	andi	v0,s6,0x40
    7ee0:	10400015 	beqz	v0,0x7f38
    7ee4:	24020800 	li	v0,2048
    7ee8:	96030014 	lhu	v1,20(s0)
    7eec:	14620012 	bne	v1,v0,0x7f38
    7ef0:	3402aaaa 	li	v0,0xaaaa
    7ef4:	9603000e 	lhu	v1,14(s0)
    7ef8:	14620007 	bne	v1,v0,0x7f18
    7efc:	00002021 	move	a0,zero
    7f00:	96030010 	lhu	v1,16(s0)
    7f04:	24020300 	li	v0,768
    7f08:	14620004 	bne	v1,v0,0x7f1c
    7f0c:	00801021 	move	v0,a0
    7f10:	96020012 	lhu	v0,18(s0)
    7f14:	2c440001 	sltiu	a0,v0,1
    7f18:	00801021 	move	v0,a0
    7f1c:	54400006 	bnezl	v0,0x7f38
    7f20:	24050016 	li	a1,22
    7f24:	10000004 	b	0x7f38
    7f28:	00000000 	nop
    7f2c:	24020800 	li	v0,2048
    7f30:	50820001 	beql	a0,v0,0x7f38
    7f34:	2405000e 	li	a1,14
    7f38:	934205c3 	lbu	v0,1475(k0)
    7f3c:	14400008 	bnez	v0,0x7f60
    7f40:	00005821 	move	t3,zero
    7f44:	240b0001 	li	t3,1
    7f48:	32620180 	andi	v0,s3,0x180
    7f4c:	af4500a8 	sw	a1,168(k0)
    7f50:	af5000a0 	sw	s0,160(k0)
    7f54:	10400002 	beqz	v0,0x7f60
    7f58:	af4600a4 	sw	a2,164(k0)
    7f5c:	a34b05c3 	sb	t3,1475(k0)
    7f60:	10a00085 	beqz	a1,0x8178
    7f64:	02054021 	addu	t0,s0,a1
    7f68:	91020000 	lbu	v0,0(t0)
    7f6c:	00003821 	move	a3,zero
    7f70:	3042000f 	andi	v0,v0,0xf
    7f74:	00025080 	sll	t2,v0,0x2
    7f78:	32c20002 	andi	v0,s6,0x2
    7f7c:	10400012 	beqz	v0,0x7fc8
    7f80:	010a1821 	addu	v1,t0,t2
    7f84:	32620002 	andi	v0,s3,0x2
    7f88:	10400010 	beqz	v0,0x7fcc
    7f8c:	32c20001 	andi	v0,s6,0x1
    7f90:	01002021 	move	a0,t0
    7f94:	94820000 	lhu	v0,0(a0)
    7f98:	24840002 	addiu	a0,a0,2
    7f9c:	00e23821 	addu	a3,a3,v0
    7fa0:	0083102b 	sltu	v0,a0,v1
    7fa4:	1440fffb 	bnez	v0,0x7f94
    7fa8:	30e2ffff 	andi	v0,a3,0xffff
    7fac:	00071c02 	srl	v1,a3,0x10
    7fb0:	00623821 	addu	a3,v1,v0
    7fb4:	00071c02 	srl	v1,a3,0x10
    7fb8:	30e2ffff 	andi	v0,a3,0xffff
    7fbc:	00623821 	addu	a3,v1,v0
    7fc0:	00071027 	nor	v0,zero,a3
    7fc4:	a502000a 	sh	v0,10(t0)
    7fc8:	32c20001 	andi	v0,s6,0x1
    7fcc:	1040006a 	beqz	v0,0x8178
    7fd0:	32620001 	andi	v0,s3,0x1
    7fd4:	10400068 	beqz	v0,0x8178
    7fd8:	00000000 	nop
    7fdc:	8f4200a8 	lw	v0,168(k0)
    7fe0:	10400065 	beqz	v0,0x8178
    7fe4:	00000000 	nop
    7fe8:	8f4200a0 	lw	v0,160(k0)
    7fec:	8f4300a8 	lw	v1,168(k0)
    7ff0:	00431021 	addu	v0,v0,v1
    7ff4:	904c0009 	lbu	t4,9(v0)
    7ff8:	318900ff 	andi	t1,t4,0xff
    7ffc:	39230006 	xori	v1,t1,0x6
    8000:	0003182b 	sltu	v1,zero,v1
    8004:	39220011 	xori	v0,t1,0x11
    8008:	0002102b 	sltu	v0,zero,v0
    800c:	00621824 	and	v1,v1,v0
    8010:	1060000c 	beqz	v1,0x8044
    8014:	3c050006 	lui	a1,0x6
    8018:	8f4200a4 	lw	v0,164(k0)
    801c:	3c040001 	lui	a0,0x1
    8020:	248467d4 	addiu	a0,a0,26580
    8024:	afa20010 	sw	v0,16(sp)
    8028:	8f4200a0 	lw	v0,160(k0)
    802c:	34a54600 	ori	a1,a1,0x4600
    8030:	01203821 	move	a3,t1
    8034:	0c002b3b 	jal	0xacec
    8038:	afa20014 	sw	v0,20(sp)
    803c:	1000004e 	b	0x8178
    8040:	00000000 	nop
    8044:	32c20004 	andi	v0,s6,0x4
    8048:	14400013 	bnez	v0,0x8098
    804c:	00002821 	move	a1,zero
    8050:	316200ff 	andi	v0,t3,0xff
    8054:	14400004 	bnez	v0,0x8068
    8058:	00000000 	nop
    805c:	95020002 	lhu	v0,2(t0)
    8060:	1000000d 	b	0x8098
    8064:	004a2823 	subu	a1,v0,t2
    8068:	9505000c 	lhu	a1,12(t0)
    806c:	9502000e 	lhu	v0,14(t0)
    8070:	95030010 	lhu	v1,16(t0)
    8074:	00a22821 	addu	a1,a1,v0
    8078:	00a32821 	addu	a1,a1,v1
    807c:	95030012 	lhu	v1,18(t0)
    8080:	91040009 	lbu	a0,9(t0)
    8084:	95020002 	lhu	v0,2(t0)
    8088:	00a32821 	addu	a1,a1,v1
    808c:	00a42821 	addu	a1,a1,a0
    8090:	004a1023 	subu	v0,v0,t2
    8094:	00a22821 	addu	a1,a1,v0
    8098:	02002021 	move	a0,s0
    809c:	94820000 	lhu	v0,0(a0)
    80a0:	24840002 	addiu	a0,a0,2
    80a4:	00e23821 	addu	a3,a3,v0
    80a8:	0088102b 	sltu	v0,a0,t0
    80ac:	1440fffb 	bnez	v0,0x809c
    80b0:	00071c02 	srl	v1,a3,0x10
    80b4:	30e2ffff 	andi	v0,a3,0xffff
    80b8:	00623821 	addu	a3,v1,v0
    80bc:	00071c02 	srl	v1,a3,0x10
    80c0:	30e2ffff 	andi	v0,a3,0xffff
    80c4:	00623821 	addu	a3,v1,v0
    80c8:	01a52821 	addu	a1,t5,a1
    80cc:	00051c02 	srl	v1,a1,0x10
    80d0:	30a2ffff 	andi	v0,a1,0xffff
    80d4:	00622821 	addu	a1,v1,v0
    80d8:	00051c02 	srl	v1,a1,0x10
    80dc:	30a2ffff 	andi	v0,a1,0xffff
    80e0:	00622821 	addu	a1,v1,v0
    80e4:	00a72823 	subu	a1,a1,a3
    80e8:	00051402 	srl	v0,a1,0x10
    80ec:	00a22821 	addu	a1,a1,v0
    80f0:	30a5ffff 	andi	a1,a1,0xffff
    80f4:	50a00001 	beqzl	a1,0x80fc
    80f8:	3405ffff 	li	a1,0xffff
    80fc:	316200ff 	andi	v0,t3,0xff
    8100:	14400008 	bnez	v0,0x8124
    8104:	318300ff 	andi	v1,t4,0xff
    8108:	8f4300a0 	lw	v1,160(k0)
    810c:	8f4200a8 	lw	v0,168(k0)
    8110:	00624021 	addu	t0,v1,v0
    8114:	91020000 	lbu	v0,0(t0)
    8118:	3042000f 	andi	v0,v0,0xf
    811c:	00025080 	sll	t2,v0,0x2
    8120:	318300ff 	andi	v1,t4,0xff
    8124:	24020006 	li	v0,6
    8128:	14620003 	bne	v1,v0,0x8138
    812c:	010a1021 	addu	v0,t0,t2
    8130:	10000002 	b	0x813c
    8134:	24440010 	addiu	a0,v0,16
    8138:	24440006 	addiu	a0,v0,6
    813c:	316200ff 	andi	v0,t3,0xff
    8140:	14400006 	bnez	v0,0x815c
    8144:	00000000 	nop
    8148:	94820000 	lhu	v0,0(a0)
    814c:	00a22821 	addu	a1,a1,v0
    8150:	00051c02 	srl	v1,a1,0x10
    8154:	30a2ffff 	andi	v0,a1,0xffff
    8158:	00622821 	addu	a1,v1,v0
    815c:	934205c3 	lbu	v0,1475(k0)
    8160:	10400003 	beqz	v0,0x8170
    8164:	32620100 	andi	v0,s3,0x100
    8168:	50400003 	beqzl	v0,0x8178
    816c:	a4850000 	sh	a1,0(a0)
    8170:	00052827 	nor	a1,zero,a1
    8174:	a4850000 	sh	a1,0(a0)
    8178:	9622000e 	lhu	v0,14(s1)
    817c:	8f43009c 	lw	v1,156(k0)
    8180:	00621821 	addu	v1,v1,v0
    8184:	32a200ff 	andi	v0,s5,0xff
    8188:	10400007 	beqz	v0,0x81a8
    818c:	af43009c 	sw	v1,156(k0)
    8190:	3c024000 	lui	v0,0x4000
    8194:	02021025 	or	v0,s0,v0
    8198:	afa20020 	sw	v0,32(sp)
    819c:	8f42009c 	lw	v0,156(k0)
    81a0:	10000003 	b	0x81b0
    81a4:	005e1025 	or	v0,v0,s8
    81a8:	afb00020 	sw	s0,32(sp)
    81ac:	8f42009c 	lw	v0,156(k0)
    81b0:	afa20024 	sw	v0,36(sp)
    81b4:	32620080 	andi	v0,s3,0x80
    81b8:	10400010 	beqz	v0,0x81fc
    81bc:	32620100 	andi	v0,s3,0x100
    81c0:	8f4200b4 	lw	v0,180(k0)
    81c4:	24430001 	addiu	v1,v0,1
    81c8:	000210c0 	sll	v0,v0,0x3
    81cc:	00571021 	addu	v0,v0,s7
    81d0:	af4300b4 	sw	v1,180(k0)
    81d4:	8fa30020 	lw	v1,32(sp)
    81d8:	8fa40024 	lw	a0,36(sp)
    81dc:	3c010001 	lui	at,0x1
    81e0:	00220821 	addu	at,at,v0
    81e4:	ac2338e8 	sw	v1,14568(at)
    81e8:	3c010001 	lui	at,0x1
    81ec:	00220821 	addu	at,at,v0
    81f0:	ac2438ec 	sw	a0,14572(at)
    81f4:	100000a5 	b	0x848c
    81f8:	32c20020 	andi	v0,s6,0x20
    81fc:	10400064 	beqz	v0,0x8390
    8200:	00000000 	nop
    8204:	8f4200b4 	lw	v0,180(k0)
    8208:	24430001 	addiu	v1,v0,1
    820c:	000210c0 	sll	v0,v0,0x3
    8210:	00571021 	addu	v0,v0,s7
    8214:	af4300b4 	sw	v1,180(k0)
    8218:	8fa30020 	lw	v1,32(sp)
    821c:	8fa40024 	lw	a0,36(sp)
    8220:	3c010001 	lui	at,0x1
    8224:	00220821 	addu	at,at,v0
    8228:	ac2338e8 	sw	v1,14568(at)
    822c:	3c010001 	lui	at,0x1
    8230:	00220821 	addu	at,at,v0
    8234:	ac2438ec 	sw	a0,14572(at)
    8238:	8f4200b4 	lw	v0,180(k0)
    823c:	10400051 	beqz	v0,0x8384
    8240:	00003821 	move	a3,zero
    8244:	3c090001 	lui	t1,0x1
    8248:	352938e8 	ori	t1,t1,0x38e8
    824c:	3c08001f 	lui	t0,0x1f
    8250:	3508ffff 	ori	t0,t0,0xffff
    8254:	240bffff 	li	t3,-1
    8258:	340affff 	li	t2,0xffff
    825c:	000710c0 	sll	v0,a3,0x3
    8260:	00571021 	addu	v0,v0,s7
    8264:	00491021 	addu	v0,v0,t1
    8268:	8c430000 	lw	v1,0(v0)
    826c:	8c440004 	lw	a0,4(v0)
    8270:	afa30028 	sw	v1,40(sp)
    8274:	afa4002c 	sw	a0,44(sp)
    8278:	8f8200fc 	lw	v0,252(gp)
    827c:	8fa30028 	lw	v1,40(sp)
    8280:	8fa4002c 	lw	a0,44(sp)
    8284:	ac430000 	sw	v1,0(v0)
    8288:	ac440004 	sw	a0,4(v0)
    828c:	24420008 	addiu	v0,v0,8
    8290:	af8200f0 	sw	v0,240(gp)
    8294:	8f42008c 	lw	v0,140(k0)
    8298:	2442ffff 	addiu	v0,v0,-1
    829c:	af42008c 	sw	v0,140(k0)
    82a0:	97a2002e 	lhu	v0,46(sp)
    82a4:	8f440270 	lw	a0,624(k0)
    82a8:	8f450274 	lw	a1,628(k0)
    82ac:	00401821 	move	v1,v0
    82b0:	00001021 	move	v0,zero
    82b4:	00a32821 	addu	a1,a1,v1
    82b8:	00a3302b 	sltu	a2,a1,v1
    82bc:	00822021 	addu	a0,a0,v0
    82c0:	00862021 	addu	a0,a0,a2
    82c4:	af440270 	sw	a0,624(k0)
    82c8:	af450274 	sw	a1,628(k0)
    82cc:	8fa20028 	lw	v0,40(sp)
    82d0:	00481024 	and	v0,v0,t0
    82d4:	90430000 	lbu	v1,0(v0)
    82d8:	30630001 	andi	v1,v1,0x1
    82dc:	1460000b 	bnez	v1,0x830c
    82e0:	00402021 	move	a0,v0
    82e4:	8f420278 	lw	v0,632(k0)
    82e8:	8f43027c 	lw	v1,636(k0)
    82ec:	24630001 	addiu	v1,v1,1
    82f0:	2c640001 	sltiu	a0,v1,1
    82f4:	00441021 	addu	v0,v0,a0
    82f8:	af420278 	sw	v0,632(k0)
    82fc:	af43027c 	sw	v1,636(k0)
    8300:	8f420278 	lw	v0,632(k0)
    8304:	1000001a 	b	0x8370
    8308:	8f43027c 	lw	v1,636(k0)
    830c:	8c820000 	lw	v0,0(a0)
    8310:	144b000e 	bne	v0,t3,0x834c
    8314:	00000000 	nop
    8318:	94820004 	lhu	v0,4(a0)
    831c:	144a000b 	bne	v0,t2,0x834c
    8320:	00000000 	nop
    8324:	8f420288 	lw	v0,648(k0)
    8328:	8f43028c 	lw	v1,652(k0)
    832c:	24630001 	addiu	v1,v1,1
    8330:	2c640001 	sltiu	a0,v1,1
    8334:	00441021 	addu	v0,v0,a0
    8338:	af420288 	sw	v0,648(k0)
    833c:	af43028c 	sw	v1,652(k0)
    8340:	8f420288 	lw	v0,648(k0)
    8344:	1000000a 	b	0x8370
    8348:	8f43028c 	lw	v1,652(k0)
    834c:	8f420280 	lw	v0,640(k0)
    8350:	8f430284 	lw	v1,644(k0)
    8354:	24630001 	addiu	v1,v1,1
    8358:	2c640001 	sltiu	a0,v1,1
    835c:	00441021 	addu	v0,v0,a0
    8360:	af420280 	sw	v0,640(k0)
    8364:	af430284 	sw	v1,644(k0)
    8368:	8f420280 	lw	v0,640(k0)
    836c:	8f430284 	lw	v1,644(k0)
    8370:	8f4200b4 	lw	v0,180(k0)
    8374:	24e70001 	addiu	a3,a3,1
    8378:	00e2102b 	sltu	v0,a3,v0
    837c:	1440ffb8 	bnez	v0,0x8260
    8380:	000710c0 	sll	v0,a3,0x3
    8384:	a34005c3 	sb	zero,1475(k0)
    8388:	1000003f 	b	0x8488
    838c:	af4000b4 	sw	zero,180(k0)
    8390:	8f8200fc 	lw	v0,252(gp)
    8394:	8fa30020 	lw	v1,32(sp)
    8398:	8fa40024 	lw	a0,36(sp)
    839c:	ac430000 	sw	v1,0(v0)
    83a0:	ac440004 	sw	a0,4(v0)
    83a4:	24420008 	addiu	v0,v0,8
    83a8:	af8200f0 	sw	v0,240(gp)
    83ac:	8f42009c 	lw	v0,156(k0)
    83b0:	8f46008c 	lw	a2,140(k0)
    83b4:	8f440270 	lw	a0,624(k0)
    83b8:	8f450274 	lw	a1,628(k0)
    83bc:	00401821 	move	v1,v0
    83c0:	00001021 	move	v0,zero
    83c4:	24c6ffff 	addiu	a2,a2,-1
    83c8:	af46008c 	sw	a2,140(k0)
    83cc:	00a32821 	addu	a1,a1,v1
    83d0:	00a3302b 	sltu	a2,a1,v1
    83d4:	00822021 	addu	a0,a0,v0
    83d8:	00862021 	addu	a0,a0,a2
    83dc:	af440270 	sw	a0,624(k0)
    83e0:	af450274 	sw	a1,628(k0)
    83e4:	92020000 	lbu	v0,0(s0)
    83e8:	30420001 	andi	v0,v0,0x1
    83ec:	1440000c 	bnez	v0,0x8420
    83f0:	2402ffff 	li	v0,-1
    83f4:	8f420278 	lw	v0,632(k0)
    83f8:	8f43027c 	lw	v1,636(k0)
    83fc:	24630001 	addiu	v1,v1,1
    8400:	2c640001 	sltiu	a0,v1,1
    8404:	00441021 	addu	v0,v0,a0
    8408:	af420278 	sw	v0,632(k0)
    840c:	af43027c 	sw	v1,636(k0)
    8410:	8f420278 	lw	v0,632(k0)
    8414:	8f43027c 	lw	v1,636(k0)
    8418:	1000001c 	b	0x848c
    841c:	32c20020 	andi	v0,s6,0x20
    8420:	8e030000 	lw	v1,0(s0)
    8424:	1462000f 	bne	v1,v0,0x8464
    8428:	3402ffff 	li	v0,0xffff
    842c:	96030004 	lhu	v1,4(s0)
    8430:	1462000c 	bne	v1,v0,0x8464
    8434:	00000000 	nop
    8438:	8f420288 	lw	v0,648(k0)
    843c:	8f43028c 	lw	v1,652(k0)
    8440:	24630001 	addiu	v1,v1,1
    8444:	2c640001 	sltiu	a0,v1,1
    8448:	00441021 	addu	v0,v0,a0
    844c:	af420288 	sw	v0,648(k0)
    8450:	af43028c 	sw	v1,652(k0)
    8454:	8f420288 	lw	v0,648(k0)
    8458:	8f43028c 	lw	v1,652(k0)
    845c:	1000000b 	b	0x848c
    8460:	32c20020 	andi	v0,s6,0x20
    8464:	8f420280 	lw	v0,640(k0)
    8468:	8f430284 	lw	v1,644(k0)
    846c:	24630001 	addiu	v1,v1,1
    8470:	2c640001 	sltiu	a0,v1,1
    8474:	00441021 	addu	v0,v0,a0
    8478:	af420280 	sw	v0,640(k0)
    847c:	af430284 	sw	v1,644(k0)
    8480:	8f420280 	lw	v0,640(k0)
    8484:	8f430284 	lw	v1,644(k0)
    8488:	32c20020 	andi	v0,s6,0x20
    848c:	10400005 	beqz	v0,0x84a4
    8490:	af40009c 	sw	zero,156(k0)
    8494:	8f420358 	lw	v0,856(k0)
    8498:	2442ffff 	addiu	v0,v0,-1
    849c:	af420358 	sw	v0,856(k0)
    84a0:	8f420358 	lw	v0,856(k0)
    84a4:	8e22001c 	lw	v0,28(s1)
    84a8:	8f430040 	lw	v1,64(k0)
    84ac:	24420001 	addiu	v0,v0,1
    84b0:	2463ffff 	addiu	v1,v1,-1
    84b4:	00431024 	and	v0,v0,v1
    84b8:	af42002c 	sw	v0,44(k0)
    84bc:	32420060 	andi	v0,s2,0x60
    84c0:	14400008 	bnez	v0,0x84e4
    84c4:	32c20010 	andi	v0,s6,0x10
    84c8:	8f420034 	lw	v0,52(k0)
    84cc:	24420001 	addiu	v0,v0,1
    84d0:	af420034 	sw	v0,52(k0)
    84d4:	8c03023c 	lw	v1,572(zero)
    84d8:	0043102b 	sltu	v0,v0,v1
    84dc:	14400102 	bnez	v0,0x88e8
    84e0:	32c20010 	andi	v0,s6,0x10
    84e4:	10400018 	beqz	v0,0x8548
    84e8:	24070008 	li	a3,8
    84ec:	8f440170 	lw	a0,368(k0)
    84f0:	8f450174 	lw	a1,372(k0)
    84f4:	8f43002c 	lw	v1,44(k0)
    84f8:	8f48000c 	lw	t0,12(k0)
    84fc:	8f860120 	lw	a2,288(gp)
    8500:	24020080 	li	v0,128
    8504:	afa20010 	sw	v0,16(sp)
    8508:	afa30014 	sw	v1,20(sp)
    850c:	afa80018 	sw	t0,24(sp)
    8510:	8f42010c 	lw	v0,268(k0)
    8514:	0040f809 	jalr	v0
    8518:	24c6001c 	addiu	a2,a2,28
    851c:	10400047 	beqz	v0,0x863c
    8520:	24020001 	li	v0,1
    8524:	8f420300 	lw	v0,768(k0)
    8528:	8f43002c 	lw	v1,44(k0)
    852c:	24420001 	addiu	v0,v0,1
    8530:	af420300 	sw	v0,768(k0)
    8534:	8f420300 	lw	v0,768(k0)
    8538:	24020001 	li	v0,1
    853c:	a34205c1 	sb	v0,1473(k0)
    8540:	1000007c 	b	0x8734
    8544:	af430038 	sw	v1,56(k0)
    8548:	8f440170 	lw	a0,368(k0)
    854c:	8f450174 	lw	a1,372(k0)
    8550:	8f43002c 	lw	v1,44(k0)
    8554:	8f48000c 	lw	t0,12(k0)
    8558:	8f860120 	lw	a2,288(gp)
    855c:	24020020 	li	v0,32
    8560:	afa20010 	sw	v0,16(sp)
    8564:	afa30014 	sw	v1,20(sp)
    8568:	afa80018 	sw	t0,24(sp)
    856c:	8f42010c 	lw	v0,268(k0)
    8570:	0040f809 	jalr	v0
    8574:	24c6001c 	addiu	a2,a2,28
    8578:	10400057 	beqz	v0,0x86d8
    857c:	24020001 	li	v0,1
    8580:	10000065 	b	0x8718
    8584:	00000000 	nop
    8588:	32420012 	andi	v0,s2,0x12
    858c:	10400075 	beqz	v0,0x8764
    8590:	32420001 	andi	v0,s2,0x1
    8594:	9622000e 	lhu	v0,14(s1)
    8598:	8f43009c 	lw	v1,156(k0)
    859c:	00621821 	addu	v1,v1,v0
    85a0:	32c20020 	andi	v0,s6,0x20
    85a4:	10400005 	beqz	v0,0x85bc
    85a8:	af43009c 	sw	v1,156(k0)
    85ac:	8f420358 	lw	v0,856(k0)
    85b0:	2442ffff 	addiu	v0,v0,-1
    85b4:	af420358 	sw	v0,856(k0)
    85b8:	8f420358 	lw	v0,856(k0)
    85bc:	8e22001c 	lw	v0,28(s1)
    85c0:	8f430040 	lw	v1,64(k0)
    85c4:	24420001 	addiu	v0,v0,1
    85c8:	2463ffff 	addiu	v1,v1,-1
    85cc:	00431024 	and	v0,v0,v1
    85d0:	af42002c 	sw	v0,44(k0)
    85d4:	32420010 	andi	v0,s2,0x10
    85d8:	14400008 	bnez	v0,0x85fc
    85dc:	32c20010 	andi	v0,s6,0x10
    85e0:	8f420034 	lw	v0,52(k0)
    85e4:	24420001 	addiu	v0,v0,1
    85e8:	af420034 	sw	v0,52(k0)
    85ec:	8c03023c 	lw	v1,572(zero)
    85f0:	0043102b 	sltu	v0,v0,v1
    85f4:	144000bc 	bnez	v0,0x88e8
    85f8:	32c20010 	andi	v0,s6,0x10
    85fc:	10400028 	beqz	v0,0x86a0
    8600:	24070008 	li	a3,8
    8604:	8f440170 	lw	a0,368(k0)
    8608:	8f450174 	lw	a1,372(k0)
    860c:	8f43002c 	lw	v1,44(k0)
    8610:	8f48000c 	lw	t0,12(k0)
    8614:	8f860120 	lw	a2,288(gp)
    8618:	24020080 	li	v0,128
    861c:	afa20010 	sw	v0,16(sp)
    8620:	afa30014 	sw	v1,20(sp)
    8624:	afa80018 	sw	t0,24(sp)
    8628:	8f42010c 	lw	v0,268(k0)
    862c:	0040f809 	jalr	v0
    8630:	24c6001c 	addiu	a2,a2,28
    8634:	14400011 	bnez	v0,0x867c
    8638:	24020001 	li	v0,1
    863c:	3c010001 	lui	at,0x1
    8640:	00370821 	addu	at,at,s7
    8644:	a02240f1 	sb	v0,16625(at)
    8648:	8f820124 	lw	v0,292(gp)
    864c:	afa20010 	sw	v0,16(sp)
    8650:	8f820128 	lw	v0,296(gp)
    8654:	3c040001 	lui	a0,0x1
    8658:	248467c4 	addiu	a0,a0,26564
    865c:	afa20014 	sw	v0,20(sp)
    8660:	8f46002c 	lw	a2,44(k0)
    8664:	8f870120 	lw	a3,288(gp)
    8668:	3c050009 	lui	a1,0x9
    866c:	0c002b3b 	jal	0xacec
    8670:	34a51100 	ori	a1,a1,0x1100
    8674:	10000036 	b	0x8750
    8678:	00000000 	nop
    867c:	8f420300 	lw	v0,768(k0)
    8680:	8f43002c 	lw	v1,44(k0)
    8684:	24420001 	addiu	v0,v0,1
    8688:	af420300 	sw	v0,768(k0)
    868c:	8f420300 	lw	v0,768(k0)
    8690:	24020001 	li	v0,1
    8694:	a34205c1 	sb	v0,1473(k0)
    8698:	10000026 	b	0x8734
    869c:	af430038 	sw	v1,56(k0)
    86a0:	8f440170 	lw	a0,368(k0)
    86a4:	8f450174 	lw	a1,372(k0)
    86a8:	8f43002c 	lw	v1,44(k0)
    86ac:	8f48000c 	lw	t0,12(k0)
    86b0:	8f860120 	lw	a2,288(gp)
    86b4:	24020020 	li	v0,32
    86b8:	afa20010 	sw	v0,16(sp)
    86bc:	afa30014 	sw	v1,20(sp)
    86c0:	afa80018 	sw	t0,24(sp)
    86c4:	8f42010c 	lw	v0,268(k0)
    86c8:	0040f809 	jalr	v0
    86cc:	24c6001c 	addiu	a2,a2,28
    86d0:	14400011 	bnez	v0,0x8718
    86d4:	24020001 	li	v0,1
    86d8:	3c010001 	lui	at,0x1
    86dc:	00370821 	addu	at,at,s7
    86e0:	a02240f0 	sb	v0,16624(at)
    86e4:	8f820124 	lw	v0,292(gp)
    86e8:	afa20010 	sw	v0,16(sp)
    86ec:	8f820128 	lw	v0,296(gp)
    86f0:	3c040001 	lui	a0,0x1
    86f4:	248467b8 	addiu	a0,a0,26552
    86f8:	afa20014 	sw	v0,20(sp)
    86fc:	8f46002c 	lw	a2,44(k0)
    8700:	8f870120 	lw	a3,288(gp)
    8704:	3c050009 	lui	a1,0x9
    8708:	0c002b3b 	jal	0xacec
    870c:	34a50900 	ori	a1,a1,0x900
    8710:	1000000f 	b	0x8750
    8714:	00000000 	nop
    8718:	8f420300 	lw	v0,768(k0)
    871c:	24420001 	addiu	v0,v0,1
    8720:	af420300 	sw	v0,768(k0)
    8724:	8f420300 	lw	v0,768(k0)
    8728:	8f42002c 	lw	v0,44(k0)
    872c:	a34005c1 	sb	zero,1473(k0)
    8730:	af420038 	sw	v0,56(k0)
    8734:	3c010001 	lui	at,0x1
    8738:	00370821 	addu	at,at,s7
    873c:	a02040f1 	sb	zero,16625(at)
    8740:	3c010001 	lui	at,0x1
    8744:	00370821 	addu	at,at,s7
    8748:	a02040f0 	sb	zero,16624(at)
    874c:	af400034 	sw	zero,52(k0)
    8750:	8f420314 	lw	v0,788(k0)
    8754:	24420001 	addiu	v0,v0,1
    8758:	af420314 	sw	v0,788(k0)
    875c:	10000062 	b	0x88e8
    8760:	8f420314 	lw	v0,788(k0)
    8764:	10400022 	beqz	v0,0x87f0
    8768:	32427000 	andi	v0,s2,0x7000
    876c:	8e25001c 	lw	a1,28(s1)
    8770:	8f420028 	lw	v0,40(k0)
    8774:	00a22023 	subu	a0,a1,v0
    8778:	04810003 	bgez	a0,0x8788
    877c:	00000000 	nop
    8780:	8f420040 	lw	v0,64(k0)
    8784:	00822021 	addu	a0,a0,v0
    8788:	8f420358 	lw	v0,856(k0)
    878c:	8f430000 	lw	v1,0(k0)
    8790:	af450028 	sw	a1,40(k0)
    8794:	00441021 	addu	v0,v0,a0
    8798:	10600007 	beqz	v1,0x87b8
    879c:	af420358 	sw	v0,856(k0)
    87a0:	af80004c 	sw	zero,76(gp)
    87a4:	8f82004c 	lw	v0,76(gp)
    87a8:	1040fffd 	beqz	v0,0x87a0
    87ac:	00000000 	nop
    87b0:	10000005 	b	0x87c8
    87b4:	00000000 	nop
    87b8:	af800048 	sw	zero,72(gp)
    87bc:	8f820048 	lw	v0,72(gp)
    87c0:	1040fffd 	beqz	v0,0x87b8
    87c4:	00000000 	nop
    87c8:	8f820060 	lw	v0,96(gp)
    87cc:	34420008 	ori	v0,v0,0x8
    87d0:	af820060 	sw	v0,96(gp)
    87d4:	8f420000 	lw	v0,0(k0)
    87d8:	10400003 	beqz	v0,0x87e8
    87dc:	00000000 	nop
    87e0:	10000041 	b	0x88e8
    87e4:	af80004c 	sw	zero,76(gp)
    87e8:	1000003f 	b	0x88e8
    87ec:	af800048 	sw	zero,72(gp)
    87f0:	1040002f 	beqz	v0,0x88b0
    87f4:	32421000 	andi	v0,s2,0x1000
    87f8:	1040000c 	beqz	v0,0x882c
    87fc:	32424000 	andi	v0,s2,0x4000
    8800:	8e23001c 	lw	v1,28(s1)
    8804:	8f420050 	lw	v0,80(k0)
    8808:	00622023 	subu	a0,v1,v0
    880c:	04820001 	bltzl	a0,0x8814
    8810:	24840200 	addiu	a0,a0,512
    8814:	8f42035c 	lw	v0,860(k0)
    8818:	00441021 	addu	v0,v0,a0
    881c:	af42035c 	sw	v0,860(k0)
    8820:	8f420368 	lw	v0,872(k0)
    8824:	1000001a 	b	0x8890
    8828:	af430050 	sw	v1,80(k0)
    882c:	1040000c 	beqz	v0,0x8860
    8830:	32c28000 	andi	v0,s6,0x8000
    8834:	8e23001c 	lw	v1,28(s1)
    8838:	8f420070 	lw	v0,112(k0)
    883c:	00622023 	subu	a0,v1,v0
    8840:	04820001 	bltzl	a0,0x8848
    8844:	24840400 	addiu	a0,a0,1024
    8848:	8f420364 	lw	v0,868(k0)
    884c:	00441021 	addu	v0,v0,a0
    8850:	af420364 	sw	v0,868(k0)
    8854:	8f420368 	lw	v0,872(k0)
    8858:	1000000d 	b	0x8890
    885c:	af430070 	sw	v1,112(k0)
    8860:	1040000e 	beqz	v0,0x889c
    8864:	3c020800 	lui	v0,0x800
    8868:	8e23001c 	lw	v1,28(s1)
    886c:	8f420060 	lw	v0,96(k0)
    8870:	00622023 	subu	a0,v1,v0
    8874:	04820001 	bltzl	a0,0x887c
    8878:	24840100 	addiu	a0,a0,256
    887c:	8f420360 	lw	v0,864(k0)
    8880:	00441021 	addu	v0,v0,a0
    8884:	af420360 	sw	v0,864(k0)
    8888:	8f420368 	lw	v0,872(k0)
    888c:	af430060 	sw	v1,96(k0)
    8890:	00441021 	addu	v0,v0,a0
    8894:	af420368 	sw	v0,872(k0)
    8898:	3c020800 	lui	v0,0x800
    889c:	02c21024 	and	v0,s6,v0
    88a0:	50400011 	beqzl	v0,0x88e8
    88a4:	36940040 	ori	s4,s4,0x40
    88a8:	1000000f 	b	0x88e8
    88ac:	00000000 	nop
    88b0:	32420048 	andi	v0,s2,0x48
    88b4:	10400007 	beqz	v0,0x88d4
    88b8:	24150001 	li	s5,1
    88bc:	8e22001c 	lw	v0,28(s1)
    88c0:	3c03ffff 	lui	v1,0xffff
    88c4:	0043f024 	and	s8,v0,v1
    88c8:	3042ffff 	andi	v0,v0,0xffff
    88cc:	1000fd75 	b	0x7ea4
    88d0:	ae22001c 	sw	v0,28(s1)
    88d4:	32420100 	andi	v0,s2,0x100
    88d8:	10400003 	beqz	v0,0x88e8
    88dc:	00000000 	nop
    88e0:	0c002bd8 	jal	0xaf60
    88e4:	00000000 	nop
    88e8:	8fbf0050 	lw	ra,80(sp)
    88ec:	8fbe004c 	lw	s8,76(sp)
    88f0:	8fb50048 	lw	s5,72(sp)
    88f4:	8fb30044 	lw	s3,68(sp)
    88f8:	8fb20040 	lw	s2,64(sp)
    88fc:	8fb1003c 	lw	s1,60(sp)
    8900:	8fb00038 	lw	s0,56(sp)
    8904:	03e00008 	jr	ra
    8908:	27bd0058 	addiu	sp,sp,88
    890c:	03e00008 	jr	ra
    8910:	00000000 	nop
	...
    891c:	8f8300e4 	lw	v1,228(gp)
    8920:	8f8200e0 	lw	v0,224(gp)
    8924:	2404fff8 	li	a0,-8
    8928:	00441024 	and	v0,v0,a0
    892c:	00621026 	xor	v0,v1,v0
    8930:	0002102b 	sltu	v0,zero,v0
    8934:	00021023 	negu	v0,v0
    8938:	03e00008 	jr	ra
    893c:	00621024 	and	v0,v1,v0
    8940:	03e00008 	jr	ra
    8944:	00000000 	nop
    8948:	27bdffe0 	addiu	sp,sp,-32
    894c:	afbf001c 	sw	ra,28(sp)
    8950:	afb00018 	sw	s0,24(sp)
    8954:	8f8600c4 	lw	a2,196(gp)
    8958:	8f8400e0 	lw	a0,224(gp)
    895c:	8f8500e4 	lw	a1,228(gp)
    8960:	2402fff8 	li	v0,-8
    8964:	00821824 	and	v1,a0,v0
    8968:	10a30009 	beq	a1,v1,0x8990
    896c:	27623ff8 	addiu	v0,k1,16376
    8970:	14a20002 	bne	a1,v0,0x897c
    8974:	24a20008 	addiu	v0,a1,8
    8978:	27623000 	addiu	v0,k1,12288
    897c:	00408021 	move	s0,v0
    8980:	16030005 	bne	s0,v1,0x8998
    8984:	30820004 	andi	v0,a0,0x4
    8988:	10400004 	beqz	v0,0x899c
    898c:	00c02021 	move	a0,a2
    8990:	10000022 	b	0x8a1c
    8994:	00001021 	move	v0,zero
    8998:	8e040000 	lw	a0,0(s0)
    899c:	8f42011c 	lw	v0,284(k0)
    89a0:	14a20003 	bne	a1,v0,0x89b0
    89a4:	00000000 	nop
    89a8:	8f420120 	lw	v0,288(k0)
    89ac:	af420114 	sw	v0,276(k0)
    89b0:	8ca30000 	lw	v1,0(a1)
    89b4:	8f420148 	lw	v0,328(k0)
    89b8:	00831823 	subu	v1,a0,v1
    89bc:	0043102b 	sltu	v0,v0,v1
    89c0:	10400003 	beqz	v0,0x89d0
    89c4:	00000000 	nop
    89c8:	8f420148 	lw	v0,328(k0)
    89cc:	00621821 	addu	v1,v1,v0
    89d0:	94a20006 	lhu	v0,6(a1)
    89d4:	24420050 	addiu	v0,v0,80
    89d8:	0062102b 	sltu	v0,v1,v0
    89dc:	1440000f 	bnez	v0,0x8a1c
    89e0:	00a01021 	move	v0,a1
    89e4:	afa40010 	sw	a0,16(sp)
    89e8:	afa30014 	sw	v1,20(sp)
    89ec:	8ca60000 	lw	a2,0(a1)
    89f0:	8ca70004 	lw	a3,4(a1)
    89f4:	3c040001 	lui	a0,0x1
    89f8:	0c002b3b 	jal	0xacec
    89fc:	24846894 	addiu	a0,a0,26772
    8a00:	8f42020c 	lw	v0,524(k0)
    8a04:	24420001 	addiu	v0,v0,1
    8a08:	af42020c 	sw	v0,524(k0)
    8a0c:	8f42020c 	lw	v0,524(k0)
    8a10:	00001021 	move	v0,zero
    8a14:	af9000e8 	sw	s0,232(gp)
    8a18:	af9000e4 	sw	s0,228(gp)
    8a1c:	8fbf001c 	lw	ra,28(sp)
    8a20:	8fb00018 	lw	s0,24(sp)
    8a24:	03e00008 	jr	ra
    8a28:	27bd0020 	addiu	sp,sp,32
    8a2c:	03e00008 	jr	ra
    8a30:	00000000 	nop
    8a34:	8f8400e0 	lw	a0,224(gp)
    8a38:	8f8800c4 	lw	t0,196(gp)
    8a3c:	8f8300e8 	lw	v1,232(gp)
    8a40:	2402fff8 	li	v0,-8
    8a44:	00823824 	and	a3,a0,v0
    8a48:	00e32023 	subu	a0,a3,v1
    8a4c:	2c821000 	sltiu	v0,a0,4096
    8a50:	50400001 	beqzl	v0,0x8a58
    8a54:	24841000 	addiu	a0,a0,4096
    8a58:	000420c2 	srl	a0,a0,0x3
    8a5c:	00801821 	move	v1,a0
    8a60:	8f440258 	lw	a0,600(k0)
    8a64:	8f45025c 	lw	a1,604(k0)
    8a68:	00001021 	move	v0,zero
    8a6c:	00a32821 	addu	a1,a1,v1
    8a70:	00a3302b 	sltu	a2,a1,v1
    8a74:	00822021 	addu	a0,a0,v0
    8a78:	00862021 	addu	a0,a0,a2
    8a7c:	af440258 	sw	a0,600(k0)
    8a80:	af45025c 	sw	a1,604(k0)
    8a84:	8f8300c8 	lw	v1,200(gp)
    8a88:	8f420148 	lw	v0,328(k0)
    8a8c:	01032023 	subu	a0,t0,v1
    8a90:	0082102b 	sltu	v0,a0,v0
    8a94:	14400004 	bnez	v0,0x8aa8
    8a98:	00801821 	move	v1,a0
    8a9c:	8f420148 	lw	v0,328(k0)
    8aa0:	00822021 	addu	a0,a0,v0
    8aa4:	00801821 	move	v1,a0
    8aa8:	8f440250 	lw	a0,592(k0)
    8aac:	8f450254 	lw	a1,596(k0)
    8ab0:	00001021 	move	v0,zero
    8ab4:	00a32821 	addu	a1,a1,v1
    8ab8:	00a3302b 	sltu	a2,a1,v1
    8abc:	00822021 	addu	a0,a0,v0
    8ac0:	00862021 	addu	a0,a0,a2
    8ac4:	af440250 	sw	a0,592(k0)
    8ac8:	af450254 	sw	a1,596(k0)
    8acc:	af8800c8 	sw	t0,200(gp)
    8ad0:	af8700e4 	sw	a3,228(gp)
    8ad4:	af8700e8 	sw	a3,232(gp)
    8ad8:	03e00008 	jr	ra
    8adc:	00000000 	nop
    8ae0:	27bdff30 	addiu	sp,sp,-208
    8ae4:	240a0001 	li	t2,1
    8ae8:	afbf00c8 	sw	ra,200(sp)
    8aec:	afbe00c4 	sw	s8,196(sp)
    8af0:	afb500c0 	sw	s5,192(sp)
    8af4:	afb300bc 	sw	s3,188(sp)
    8af8:	afb200b8 	sw	s2,184(sp)
    8afc:	afb100b4 	sw	s1,180(sp)
    8b00:	afb000b0 	sw	s0,176(sp)
    8b04:	a3a00097 	sb	zero,151(sp)
    8b08:	afa00044 	sw	zero,68(sp)
    8b0c:	afaa005c 	sw	t2,92(sp)
    8b10:	934205c4 	lbu	v0,1476(k0)
    8b14:	a7a0008e 	sh	zero,142(sp)
    8b18:	1040000a 	beqz	v0,0x8b44
    8b1c:	a7a00086 	sh	zero,134(sp)
    8b20:	8f4b00c4 	lw	t3,196(k0)
    8b24:	afab0064 	sw	t3,100(sp)
    8b28:	8f4a00c0 	lw	t2,192(k0)
    8b2c:	afaa006c 	sw	t2,108(sp)
    8b30:	8f4b00cc 	lw	t3,204(k0)
    8b34:	afab0074 	sw	t3,116(sp)
    8b38:	8f4a00c8 	lw	t2,200(k0)
    8b3c:	10000129 	b	0x8fe4
    8b40:	afaa007c 	sw	t2,124(sp)
    8b44:	8f420114 	lw	v0,276(k0)
    8b48:	0040f809 	jalr	v0
    8b4c:	00000000 	nop
    8b50:	00403021 	move	a2,v0
    8b54:	10c0034f 	beqz	a2,0x9894
    8b58:	00000000 	nop
    8b5c:	8cc20000 	lw	v0,0(a2)
    8b60:	8cc30004 	lw	v1,4(a2)
    8b64:	afa20020 	sw	v0,32(sp)
    8b68:	afa30024 	sw	v1,36(sp)
    8b6c:	8fab0024 	lw	t3,36(sp)
    8b70:	8faa0020 	lw	t2,32(sp)
    8b74:	3162ffff 	andi	v0,t3,0xffff
    8b78:	2442fffc 	addiu	v0,v0,-4
    8b7c:	afa2006c 	sw	v0,108(sp)
    8b80:	3c020006 	lui	v0,0x6
    8b84:	02c21024 	and	v0,s6,v0
    8b88:	afab007c 	sw	t3,124(sp)
    8b8c:	14400015 	bnez	v0,0x8be4
    8b90:	afaa0064 	sw	t2,100(sp)
    8b94:	91420000 	lbu	v0,0(t2)
    8b98:	30420001 	andi	v0,v0,0x1
    8b9c:	10400011 	beqz	v0,0x8be4
    8ba0:	2402ffff 	li	v0,-1
    8ba4:	8d430000 	lw	v1,0(t2)
    8ba8:	14620004 	bne	v1,v0,0x8bbc
    8bac:	3402ffff 	li	v0,0xffff
    8bb0:	95430004 	lhu	v1,4(t2)
    8bb4:	1062000b 	beq	v1,v0,0x8be4
    8bb8:	00000000 	nop
    8bbc:	0c0024bb 	jal	0x92ec
    8bc0:	8fa40064 	lw	a0,100(sp)
    8bc4:	304200ff 	andi	v0,v0,0xff
    8bc8:	14400006 	bnez	v0,0x8be4
    8bcc:	00000000 	nop
    8bd0:	8f420118 	lw	v0,280(k0)
    8bd4:	0040f809 	jalr	v0
    8bd8:	00000000 	nop
    8bdc:	1000032d 	b	0x9894
    8be0:	00000000 	nop
    8be4:	8fa20024 	lw	v0,36(sp)
    8be8:	3c03ffbf 	lui	v1,0xffbf
    8bec:	3463ffff 	ori	v1,v1,0xffff
    8bf0:	00431024 	and	v0,v0,v1
    8bf4:	3c03ffff 	lui	v1,0xffff
    8bf8:	00431824 	and	v1,v0,v1
    8bfc:	14600003 	bnez	v1,0x8c0c
    8c00:	afa20024 	sw	v0,36(sp)
    8c04:	10000040 	b	0x8d08
    8c08:	00001821 	move	v1,zero
    8c0c:	3c020080 	lui	v0,0x80
    8c10:	00621024 	and	v0,v1,v0
    8c14:	10400007 	beqz	v0,0x8c34
    8c18:	00000000 	nop
    8c1c:	8f42038c 	lw	v0,908(k0)
    8c20:	24420001 	addiu	v0,v0,1
    8c24:	af42038c 	sw	v0,908(k0)
    8c28:	8f42038c 	lw	v0,908(k0)
    8c2c:	10000036 	b	0x8d08
    8c30:	24030001 	li	v1,1
    8c34:	8f420210 	lw	v0,528(k0)
    8c38:	24420001 	addiu	v0,v0,1
    8c3c:	af420210 	sw	v0,528(k0)
    8c40:	8f420210 	lw	v0,528(k0)
    8c44:	3c020001 	lui	v0,0x1
    8c48:	00621024 	and	v0,v1,v0
    8c4c:	10400006 	beqz	v0,0x8c68
    8c50:	3c020002 	lui	v0,0x2
    8c54:	8f4201c4 	lw	v0,452(k0)
    8c58:	24420001 	addiu	v0,v0,1
    8c5c:	af4201c4 	sw	v0,452(k0)
    8c60:	8f4201c4 	lw	v0,452(k0)
    8c64:	3c020002 	lui	v0,0x2
    8c68:	00621024 	and	v0,v1,v0
    8c6c:	10400006 	beqz	v0,0x8c88
    8c70:	3c020004 	lui	v0,0x4
    8c74:	8f42037c 	lw	v0,892(k0)
    8c78:	24420001 	addiu	v0,v0,1
    8c7c:	af42037c 	sw	v0,892(k0)
    8c80:	8f42037c 	lw	v0,892(k0)
    8c84:	3c020004 	lui	v0,0x4
    8c88:	00621024 	and	v0,v1,v0
    8c8c:	10400006 	beqz	v0,0x8ca8
    8c90:	3c020008 	lui	v0,0x8
    8c94:	8f420380 	lw	v0,896(k0)
    8c98:	24420001 	addiu	v0,v0,1
    8c9c:	af420380 	sw	v0,896(k0)
    8ca0:	8f420380 	lw	v0,896(k0)
    8ca4:	3c020008 	lui	v0,0x8
    8ca8:	00621024 	and	v0,v1,v0
    8cac:	10400006 	beqz	v0,0x8cc8
    8cb0:	3c020010 	lui	v0,0x10
    8cb4:	8f420384 	lw	v0,900(k0)
    8cb8:	24420001 	addiu	v0,v0,1
    8cbc:	af420384 	sw	v0,900(k0)
    8cc0:	8f420384 	lw	v0,900(k0)
    8cc4:	3c020010 	lui	v0,0x10
    8cc8:	00621024 	and	v0,v1,v0
    8ccc:	10400006 	beqz	v0,0x8ce8
    8cd0:	3c020020 	lui	v0,0x20
    8cd4:	8f4201c0 	lw	v0,448(k0)
    8cd8:	24420001 	addiu	v0,v0,1
    8cdc:	af4201c0 	sw	v0,448(k0)
    8ce0:	8f4201c0 	lw	v0,448(k0)
    8ce4:	3c020020 	lui	v0,0x20
    8ce8:	00621024 	and	v0,v1,v0
    8cec:	10400006 	beqz	v0,0x8d08
    8cf0:	24030001 	li	v1,1
    8cf4:	8f420388 	lw	v0,904(k0)
    8cf8:	24420001 	addiu	v0,v0,1
    8cfc:	af420388 	sw	v0,904(k0)
    8d00:	8f420388 	lw	v0,904(k0)
    8d04:	24030001 	li	v1,1
    8d08:	8c020260 	lw	v0,608(zero)
    8d0c:	8fab006c 	lw	t3,108(sp)
    8d10:	004b102b 	sltu	v0,v0,t3
    8d14:	10400014 	beqz	v0,0x8d68
    8d18:	307000ff 	andi	s0,v1,0xff
    8d1c:	8f4201e8 	lw	v0,488(k0)
    8d20:	24420001 	addiu	v0,v0,1
    8d24:	af4201e8 	sw	v0,488(k0)
    8d28:	8f4201e8 	lw	v0,488(k0)
    8d2c:	8faa007c 	lw	t2,124(sp)
    8d30:	8f8200e0 	lw	v0,224(gp)
    8d34:	354a0100 	ori	t2,t2,0x100
    8d38:	afaa007c 	sw	t2,124(sp)
    8d3c:	afa20010 	sw	v0,16(sp)
    8d40:	8f8200e4 	lw	v0,228(gp)
    8d44:	24100001 	li	s0,1
    8d48:	3c040001 	lui	a0,0x1
    8d4c:	248468a0 	addiu	a0,a0,26784
    8d50:	afa20014 	sw	v0,20(sp)
    8d54:	8fa60020 	lw	a2,32(sp)
    8d58:	8fa70024 	lw	a3,36(sp)
    8d5c:	3c050007 	lui	a1,0x7
    8d60:	0c002b3b 	jal	0xacec
    8d64:	34a50800 	ori	a1,a1,0x800
    8d68:	12000010 	beqz	s0,0x8dac
    8d6c:	3c020080 	lui	v0,0x80
    8d70:	02c21024 	and	v0,s6,v0
    8d74:	1440000e 	bnez	v0,0x8db0
    8d78:	32c20400 	andi	v0,s6,0x400
    8d7c:	8fab007c 	lw	t3,124(sp)
    8d80:	3c020080 	lui	v0,0x80
    8d84:	34420100 	ori	v0,v0,0x100
    8d88:	01621024 	and	v0,t3,v0
    8d8c:	10400005 	beqz	v0,0x8da4
    8d90:	00000000 	nop
    8d94:	8f42020c 	lw	v0,524(k0)
    8d98:	24420001 	addiu	v0,v0,1
    8d9c:	af42020c 	sw	v0,524(k0)
    8da0:	8f42020c 	lw	v0,524(k0)
    8da4:	100002b0 	b	0x9868
    8da8:	8fa3006c 	lw	v1,108(sp)
    8dac:	32c20400 	andi	v0,s6,0x400
    8db0:	10400015 	beqz	v0,0x8e08
    8db4:	34028100 	li	v0,0x8100
    8db8:	8faa0064 	lw	t2,100(sp)
    8dbc:	9543000c 	lhu	v1,12(t2)
    8dc0:	14620012 	bne	v1,v0,0x8e0c
    8dc4:	3c020100 	lui	v0,0x100
    8dc8:	240b0200 	li	t3,512
    8dcc:	a7ab008e 	sh	t3,142(sp)
    8dd0:	9542000e 	lhu	v0,14(t2)
    8dd4:	8d430008 	lw	v1,8(t2)
    8dd8:	8d440004 	lw	a0,4(t2)
    8ddc:	8d450000 	lw	a1,0(t2)
    8de0:	8faa006c 	lw	t2,108(sp)
    8de4:	8fab0064 	lw	t3,100(sp)
    8de8:	254afffc 	addiu	t2,t2,-4
    8dec:	afaa006c 	sw	t2,108(sp)
    8df0:	a7a20086 	sh	v0,134(sp)
    8df4:	ad63000c 	sw	v1,12(t3)
    8df8:	ad640008 	sw	a0,8(t3)
    8dfc:	ad650004 	sw	a1,4(t3)
    8e00:	256b0004 	addiu	t3,t3,4
    8e04:	afab0064 	sw	t3,100(sp)
    8e08:	3c020100 	lui	v0,0x100
    8e0c:	02c21024 	and	v0,s6,v0
    8e10:	10400004 	beqz	v0,0x8e24
    8e14:	00000000 	nop
    8e18:	8faa006c 	lw	t2,108(sp)
    8e1c:	254a0004 	addiu	t2,t2,4
    8e20:	afaa006c 	sw	t2,108(sp)
    8e24:	8f4200bc 	lw	v0,188(k0)
    8e28:	5040000a 	beqzl	v0,0x8e54
    8e2c:	afa00074 	sw	zero,116(sp)
    8e30:	8fab006c 	lw	t3,108(sp)
    8e34:	004b102b 	sltu	v0,v0,t3
    8e38:	50400006 	beqzl	v0,0x8e54
    8e3c:	afa00074 	sw	zero,116(sp)
    8e40:	8f4200bc 	lw	v0,188(k0)
    8e44:	01621023 	subu	v0,t3,v0
    8e48:	afa20074 	sw	v0,116(sp)
    8e4c:	8f4a00bc 	lw	t2,188(k0)
    8e50:	afaa006c 	sw	t2,108(sp)
    8e54:	8f420080 	lw	v0,128(k0)
    8e58:	8fab006c 	lw	t3,108(sp)
    8e5c:	004b102b 	sltu	v0,v0,t3
    8e60:	10400056 	beqz	v0,0x8fbc
    8e64:	32c28000 	andi	v0,s6,0x8000
    8e68:	1040005e 	beqz	v0,0x8fe4
    8e6c:	240a0003 	li	t2,3
    8e70:	32c21000 	andi	v0,s6,0x1000
    8e74:	1040005b 	beqz	v0,0x8fe4
    8e78:	afaa005c 	sw	t2,92(sp)
    8e7c:	10000058 	b	0x8fe0
    8e80:	240b0004 	li	t3,4
    8e84:	8f420350 	lw	v0,848(k0)
    8e88:	2403ffbf 	li	v1,-65
    8e8c:	0283a024 	and	s4,s4,v1
    8e90:	24420001 	addiu	v0,v0,1
    8e94:	af420350 	sw	v0,848(k0)
    8e98:	1000024f 	b	0x97d8
    8e9c:	8f420350 	lw	v0,848(k0)
    8ea0:	02c2b025 	or	s6,s6,v0
    8ea4:	2402ffbf 	li	v0,-65
    8ea8:	0282a024 	and	s4,s4,v0
    8eac:	8f830128 	lw	v1,296(gp)
    8eb0:	3c040001 	lui	a0,0x1
    8eb4:	248468d0 	addiu	a0,a0,26832
    8eb8:	26620001 	addiu	v0,s3,1
    8ebc:	afa20014 	sw	v0,20(sp)
    8ec0:	afa30010 	sw	v1,16(sp)
    8ec4:	8f860120 	lw	a2,288(gp)
    8ec8:	8f870124 	lw	a3,292(gp)
    8ecc:	3c050007 	lui	a1,0x7
    8ed0:	0c002b3b 	jal	0xacec
    8ed4:	34a52250 	ori	a1,a1,0x2250
    8ed8:	1000023f 	b	0x97d8
    8edc:	00000000 	nop
    8ee0:	02c2b025 	or	s6,s6,v0
    8ee4:	2402ffbf 	li	v0,-65
    8ee8:	0282a024 	and	s4,s4,v0
    8eec:	8f830128 	lw	v1,296(gp)
    8ef0:	3c040001 	lui	a0,0x1
    8ef4:	248468d0 	addiu	a0,a0,26832
    8ef8:	24020002 	li	v0,2
    8efc:	afa20014 	sw	v0,20(sp)
    8f00:	afa30010 	sw	v1,16(sp)
    8f04:	8f860120 	lw	a2,288(gp)
    8f08:	8f870124 	lw	a3,292(gp)
    8f0c:	3c050007 	lui	a1,0x7
    8f10:	0c002b3b 	jal	0xacec
    8f14:	34a52450 	ori	a1,a1,0x2450
    8f18:	1000022f 	b	0x97d8
    8f1c:	00000000 	nop
    8f20:	8ea20000 	lw	v0,0(s5)
    8f24:	8ea30004 	lw	v1,4(s5)
    8f28:	3c040001 	lui	a0,0x1
    8f2c:	248468e8 	addiu	a0,a0,26856
    8f30:	afb00010 	sw	s0,16(sp)
    8f34:	afbe0014 	sw	s8,20(sp)
    8f38:	8ea70018 	lw	a3,24(s5)
    8f3c:	34a52800 	ori	a1,a1,0x2800
    8f40:	0c002b3b 	jal	0xacec
    8f44:	00603021 	move	a2,v1
    8f48:	10000223 	b	0x97d8
    8f4c:	00000000 	nop
    8f50:	a6b1000a 	sh	s1,10(s5)
    8f54:	8f820124 	lw	v0,292(gp)
    8f58:	3c040001 	lui	a0,0x1
    8f5c:	248468f0 	addiu	a0,a0,26864
    8f60:	afbe0014 	sw	s8,20(sp)
    8f64:	afa20010 	sw	v0,16(sp)
    8f68:	8f460044 	lw	a2,68(k0)
    8f6c:	8f870120 	lw	a3,288(gp)
    8f70:	3c050007 	lui	a1,0x7
    8f74:	0c002b3b 	jal	0xacec
    8f78:	34a53000 	ori	a1,a1,0x3000
    8f7c:	10000216 	b	0x97d8
    8f80:	00000000 	nop
    8f84:	a6b1000a 	sh	s1,10(s5)
    8f88:	a6b2000e 	sh	s2,14(s5)
    8f8c:	8f820124 	lw	v0,292(gp)
    8f90:	3c040001 	lui	a0,0x1
    8f94:	248468fc 	addiu	a0,a0,26876
    8f98:	afbe0014 	sw	s8,20(sp)
    8f9c:	afa20010 	sw	v0,16(sp)
    8fa0:	8f460044 	lw	a2,68(k0)
    8fa4:	8f870120 	lw	a3,288(gp)
    8fa8:	3c050007 	lui	a1,0x7
    8fac:	0c002b3b 	jal	0xacec
    8fb0:	34a53200 	ori	a1,a1,0x3200
    8fb4:	10000208 	b	0x97d8
    8fb8:	00000000 	nop
    8fbc:	8f420084 	lw	v0,132(k0)
    8fc0:	8faa006c 	lw	t2,108(sp)
    8fc4:	004a102b 	sltu	v0,v0,t2
    8fc8:	14400007 	bnez	v0,0x8fe8
    8fcc:	3c020001 	lui	v0,0x1
    8fd0:	02c21024 	and	v0,s6,v0
    8fd4:	10400004 	beqz	v0,0x8fe8
    8fd8:	00000000 	nop
    8fdc:	240b0002 	li	t3,2
    8fe0:	afab005c 	sw	t3,92(sp)
    8fe4:	8faa006c 	lw	t2,108(sp)
    8fe8:	1140021b 	beqz	t2,0x9858
    8fec:	27ab0020 	addiu	t3,sp,32
    8ff0:	afab00a4 	sw	t3,164(sp)
    8ff4:	3c0a001f 	lui	t2,0x1f
    8ff8:	354affff 	ori	t2,t2,0xffff
    8ffc:	afaa009c 	sw	t2,156(sp)
    9000:	8fab005c 	lw	t3,92(sp)
    9004:	240a0001 	li	t2,1
    9008:	556a0021 	bnel	t3,t2,0x9090
    900c:	240a0002 	li	t2,2
    9010:	8f430054 	lw	v1,84(k0)
    9014:	8f420050 	lw	v0,80(k0)
    9018:	1062000b 	beq	v1,v0,0x9048
    901c:	274b0054 	addiu	t3,k0,84
    9020:	8f5e0054 	lw	s8,84(k0)
    9024:	3403ecc0 	li	v1,0xecc0
    9028:	afab004c 	sw	t3,76(sp)
    902c:	27c20001 	addiu	v0,s8,1
    9030:	304201ff 	andi	v0,v0,0x1ff
    9034:	afa20054 	sw	v0,84(sp)
    9038:	001e1140 	sll	v0,s8,0x5
    903c:	00431021 	addu	v0,v0,v1
    9040:	1000006b 	b	0x91f0
    9044:	02e2a821 	addu	s5,s7,v0
    9048:	8f420044 	lw	v0,68(k0)
    904c:	8faa006c 	lw	t2,108(sp)
    9050:	3c040001 	lui	a0,0x1
    9054:	248468ac 	addiu	a0,a0,26796
    9058:	afaa0014 	sw	t2,20(sp)
    905c:	afa20010 	sw	v0,16(sp)
    9060:	8f460054 	lw	a2,84(k0)
    9064:	8f470050 	lw	a3,80(k0)
    9068:	3c050007 	lui	a1,0x7
    906c:	0c002b3b 	jal	0xacec
    9070:	34a51300 	ori	a1,a1,0x1300
    9074:	8f430350 	lw	v1,848(k0)
    9078:	2402ffbf 	li	v0,-65
    907c:	0282a024 	and	s4,s4,v0
    9080:	24630001 	addiu	v1,v1,1
    9084:	af430350 	sw	v1,848(k0)
    9088:	100001d3 	b	0x97d8
    908c:	8f420350 	lw	v0,848(k0)
    9090:	156a001d 	bne	t3,t2,0x9108
    9094:	00000000 	nop
    9098:	8f430074 	lw	v1,116(k0)
    909c:	8f420070 	lw	v0,112(k0)
    90a0:	1062000a 	beq	v1,v0,0x90cc
    90a4:	274b0074 	addiu	t3,k0,116
    90a8:	8f5e0074 	lw	s8,116(k0)
    90ac:	afab004c 	sw	t3,76(sp)
    90b0:	27c20001 	addiu	v0,s8,1
    90b4:	304203ff 	andi	v0,v0,0x3ff
    90b8:	afa20054 	sw	v0,84(sp)
    90bc:	001e1140 	sll	v0,s8,0x5
    90c0:	24426cc0 	addiu	v0,v0,27840
    90c4:	1000004a 	b	0x91f0
    90c8:	02e2a821 	addu	s5,s7,v0
    90cc:	8f420044 	lw	v0,68(k0)
    90d0:	8faa006c 	lw	t2,108(sp)
    90d4:	3c040001 	lui	a0,0x1
    90d8:	248468b8 	addiu	a0,a0,26808
    90dc:	3c050007 	lui	a1,0x7
    90e0:	afaa0014 	sw	t2,20(sp)
    90e4:	afa20010 	sw	v0,16(sp)
    90e8:	8f460074 	lw	a2,116(k0)
    90ec:	8f470070 	lw	a3,112(k0)
    90f0:	34a51500 	ori	a1,a1,0x1500
    90f4:	240b0001 	li	t3,1
    90f8:	0c002b3b 	jal	0xacec
    90fc:	afab005c 	sw	t3,92(sp)
    9100:	1000ffc3 	b	0x9010
    9104:	00000000 	nop
    9108:	8f430064 	lw	v1,100(k0)
    910c:	8f420060 	lw	v0,96(k0)
    9110:	1062001a 	beq	v1,v0,0x917c
    9114:	274a0064 	addiu	t2,k0,100
    9118:	8f5e0064 	lw	s8,100(k0)
    911c:	8fab005c 	lw	t3,92(sp)
    9120:	afaa004c 	sw	t2,76(sp)
    9124:	27c20001 	addiu	v0,s8,1
    9128:	304200ff 	andi	v0,v0,0xff
    912c:	afa20054 	sw	v0,84(sp)
    9130:	24020004 	li	v0,4
    9134:	1562000e 	bne	t3,v0,0x9170
    9138:	001e1140 	sll	v0,s8,0x5
    913c:	001e1180 	sll	v0,s8,0x6
    9140:	24420cc0 	addiu	v0,v0,3264
    9144:	02e21021 	addu	v0,s7,v0
    9148:	afa20044 	sw	v0,68(sp)
    914c:	9442002a 	lhu	v0,42(v0)
    9150:	8faa0044 	lw	t2,68(sp)
    9154:	8fab006c 	lw	t3,108(sp)
    9158:	004b102b 	sltu	v0,v0,t3
    915c:	10400024 	beqz	v0,0x91f0
    9160:	25550020 	addiu	s5,t2,32
    9164:	240a0001 	li	t2,1
    9168:	10000021 	b	0x91f0
    916c:	a3aa0097 	sb	t2,151(sp)
    9170:	24424cc0 	addiu	v0,v0,19648
    9174:	1000001e 	b	0x91f0
    9178:	02e2a821 	addu	s5,s7,v0
    917c:	8f420044 	lw	v0,68(k0)
    9180:	8fab006c 	lw	t3,108(sp)
    9184:	3c040001 	lui	a0,0x1
    9188:	248468c4 	addiu	a0,a0,26820
    918c:	afab0014 	sw	t3,20(sp)
    9190:	afa20010 	sw	v0,16(sp)
    9194:	8f460064 	lw	a2,100(k0)
    9198:	8f470060 	lw	a3,96(k0)
    919c:	3c050007 	lui	a1,0x7
    91a0:	0c002b3b 	jal	0xacec
    91a4:	34a51800 	ori	a1,a1,0x1800
    91a8:	3c020008 	lui	v0,0x8
    91ac:	02c21024 	and	v0,s6,v0
    91b0:	1440ff34 	bnez	v0,0x8e84
    91b4:	00000000 	nop
    91b8:	8f420370 	lw	v0,880(k0)
    91bc:	240a0001 	li	t2,1
    91c0:	afaa005c 	sw	t2,92(sp)
    91c4:	24420001 	addiu	v0,v0,1
    91c8:	af420370 	sw	v0,880(k0)
    91cc:	1000ff90 	b	0x9010
    91d0:	8f420370 	lw	v0,880(k0)
    91d4:	27a30036 	addiu	v1,sp,54
    91d8:	00131040 	sll	v0,s3,0x1
    91dc:	00621821 	addu	v1,v1,v0
    91e0:	94620000 	lhu	v0,0(v1)
    91e4:	00441021 	addu	v0,v0,a0
    91e8:	10000020 	b	0x926c
    91ec:	a4620000 	sh	v0,0(v1)
    91f0:	8fab0064 	lw	t3,100(sp)
    91f4:	aeab0018 	sw	t3,24(s5)
    91f8:	93a20097 	lbu	v0,151(sp)
    91fc:	10400072 	beqz	v0,0x93c8
    9200:	00009821 	move	s3,zero
    9204:	8faa0044 	lw	t2,68(sp)
    9208:	8fa4006c 	lw	a0,108(sp)
    920c:	8fa300a4 	lw	v1,164(sp)
    9210:	25420020 	addiu	v0,t2,32
    9214:	afa20028 	sw	v0,40(sp)
    9218:	25420008 	addiu	v0,t2,8
    921c:	afa20030 	sw	v0,48(sp)
    9220:	25420010 	addiu	v0,t2,16
    9224:	afaa002c 	sw	t2,44(sp)
    9228:	afa20034 	sw	v0,52(sp)
    922c:	9542002a 	lhu	v0,42(t2)
    9230:	a7a20038 	sh	v0,56(sp)
    9234:	95420018 	lhu	v0,24(t2)
    9238:	a7a2003a 	sh	v0,58(sp)
    923c:	9542001a 	lhu	v0,26(t2)
    9240:	a7a2003c 	sh	v0,60(sp)
    9244:	9542001c 	lhu	v0,28(t2)
    9248:	a7a2003e 	sh	v0,62(sp)
    924c:	94620018 	lhu	v0,24(v1)
    9250:	24630002 	addiu	v1,v1,2
    9254:	00822023 	subu	a0,a0,v0
    9258:	1880ffde 	blez	a0,0x91d4
    925c:	26730001 	addiu	s3,s3,1
    9260:	2e620004 	sltiu	v0,s3,4
    9264:	1440fff9 	bnez	v0,0x924c
    9268:	00000000 	nop
    926c:	8f4200fc 	lw	v0,252(k0)
    9270:	26650001 	addiu	a1,s3,1
    9274:	00a2102a 	slt	v0,a1,v0
    9278:	1440002b 	bnez	v0,0x9328
    927c:	24030001 	li	v1,1
    9280:	8f83012c 	lw	v1,300(gp)
    9284:	10600023 	beqz	v1,0x9314
    9288:	00000000 	nop
    928c:	8f820124 	lw	v0,292(gp)
    9290:	00431023 	subu	v0,v0,v1
    9294:	00022143 	sra	a0,v0,0x5
    9298:	58800001 	blezl	a0,0x92a0
    929c:	24840040 	addiu	a0,a0,64
    92a0:	8f820128 	lw	v0,296(gp)
    92a4:	00431023 	subu	v0,v0,v1
    92a8:	00021943 	sra	v1,v0,0x5
    92ac:	58600001 	blezl	v1,0x92b4
    92b0:	24630040 	addiu	v1,v1,64
    92b4:	0064102a 	slt	v0,v1,a0
    92b8:	54400001 	bnezl	v0,0x92c0
    92bc:	00602021 	move	a0,v1
    92c0:	af4400fc 	sw	a0,252(k0)
    92c4:	8f4200fc 	lw	v0,252(k0)
    92c8:	00a2102a 	slt	v0,a1,v0
    92cc:	10400011 	beqz	v0,0x9314
    92d0:	24030001 	li	v1,1
    92d4:	10000015 	b	0x932c
    92d8:	306200ff 	andi	v0,v1,0xff
    92dc:	8fab0064 	lw	t3,100(sp)
    92e0:	96070018 	lhu	a3,24(s0)
    92e4:	afab0010 	sw	t3,16(sp)
    92e8:	8e220008 	lw	v0,8(s1)
    92ec:	3c040001 	lui	a0,0x1
    92f0:	248468dc 	addiu	a0,a0,26844
    92f4:	8c430004 	lw	v1,4(v0)
    92f8:	8c420000 	lw	v0,0(v0)
    92fc:	34a52400 	ori	a1,a1,0x2400
    9300:	02403021 	move	a2,s2
    9304:	0c002b3b 	jal	0xacec
    9308:	afa30014 	sw	v1,20(sp)
    930c:	1000002b 	b	0x93bc
    9310:	00000000 	nop
    9314:	8f420334 	lw	v0,820(k0)
    9318:	00001821 	move	v1,zero
    931c:	24420001 	addiu	v0,v0,1
    9320:	af420334 	sw	v0,820(k0)
    9324:	8f420334 	lw	v0,820(k0)
    9328:	306200ff 	andi	v0,v1,0xff
    932c:	5040fedc 	beqzl	v0,0x8ea0
    9330:	3c020800 	lui	v0,0x800
    9334:	12600021 	beqz	s3,0x93bc
    9338:	00009021 	move	s2,zero
    933c:	8fb100a4 	lw	s1,164(sp)
    9340:	02208021 	move	s0,s1
    9344:	8e220008 	lw	v0,8(s1)
    9348:	96070018 	lhu	a3,24(s0)
    934c:	8fa60064 	lw	a2,100(sp)
    9350:	8c440000 	lw	a0,0(v0)
    9354:	8c450004 	lw	a1,4(v0)
    9358:	240a0001 	li	t2,1
    935c:	afaa0010 	sw	t2,16(sp)
    9360:	afbe0014 	sw	s8,20(sp)
    9364:	8f420008 	lw	v0,8(k0)
    9368:	afa20018 	sw	v0,24(sp)
    936c:	8f42010c 	lw	v0,268(k0)
    9370:	0040f809 	jalr	v0
    9374:	00000000 	nop
    9378:	1040ffd8 	beqz	v0,0x92dc
    937c:	3c050007 	lui	a1,0x7
    9380:	96020018 	lhu	v0,24(s0)
    9384:	8fab0064 	lw	t3,100(sp)
    9388:	8faa009c 	lw	t2,156(sp)
    938c:	01625821 	addu	t3,t3,v0
    9390:	014b102b 	sltu	v0,t2,t3
    9394:	10400004 	beqz	v0,0x93a8
    9398:	afab0064 	sw	t3,100(sp)
    939c:	8f420148 	lw	v0,328(k0)
    93a0:	01625823 	subu	t3,t3,v0
    93a4:	afab0064 	sw	t3,100(sp)
    93a8:	26100002 	addiu	s0,s0,2
    93ac:	26520001 	addiu	s2,s2,1
    93b0:	0253102b 	sltu	v0,s2,s3
    93b4:	1440ffe3 	bnez	v0,0x9344
    93b8:	26310004 	addiu	s1,s1,4
    93bc:	8fb0006c 	lw	s0,108(sp)
    93c0:	10000036 	b	0x949c
    93c4:	97b10038 	lhu	s1,56(sp)
    93c8:	8f4200fc 	lw	v0,252(k0)
    93cc:	24050002 	li	a1,2
    93d0:	00a2102a 	slt	v0,a1,v0
    93d4:	1440001b 	bnez	v0,0x9444
    93d8:	24030001 	li	v1,1
    93dc:	8f83012c 	lw	v1,300(gp)
    93e0:	10600013 	beqz	v1,0x9430
    93e4:	00000000 	nop
    93e8:	8f820124 	lw	v0,292(gp)
    93ec:	00431023 	subu	v0,v0,v1
    93f0:	00022143 	sra	a0,v0,0x5
    93f4:	58800001 	blezl	a0,0x93fc
    93f8:	24840040 	addiu	a0,a0,64
    93fc:	8f820128 	lw	v0,296(gp)
    9400:	00431023 	subu	v0,v0,v1
    9404:	00021943 	sra	v1,v0,0x5
    9408:	58600001 	blezl	v1,0x9410
    940c:	24630040 	addiu	v1,v1,64
    9410:	0064102a 	slt	v0,v1,a0
    9414:	54400001 	bnezl	v0,0x941c
    9418:	00602021 	move	a0,v1
    941c:	af4400fc 	sw	a0,252(k0)
    9420:	8f4200fc 	lw	v0,252(k0)
    9424:	00a2102a 	slt	v0,a1,v0
    9428:	14400006 	bnez	v0,0x9444
    942c:	24030001 	li	v1,1
    9430:	8f420334 	lw	v0,820(k0)
    9434:	00001821 	move	v1,zero
    9438:	24420001 	addiu	v0,v0,1
    943c:	af420334 	sw	v0,820(k0)
    9440:	8f420334 	lw	v0,820(k0)
    9444:	306200ff 	andi	v0,v1,0xff
    9448:	1040fea5 	beqz	v0,0x8ee0
    944c:	3c020800 	lui	v0,0x800
    9450:	96b1000a 	lhu	s1,10(s5)
    9454:	8fb0006c 	lw	s0,108(sp)
    9458:	3223ffff 	andi	v1,s1,0xffff
    945c:	0070102b 	sltu	v0,v1,s0
    9460:	54400001 	bnezl	v0,0x9468
    9464:	00608021 	move	s0,v1
    9468:	8ea40000 	lw	a0,0(s5)
    946c:	8ea50004 	lw	a1,4(s5)
    9470:	240b0001 	li	t3,1
    9474:	afab0010 	sw	t3,16(sp)
    9478:	afbe0014 	sw	s8,20(sp)
    947c:	8f420008 	lw	v0,8(k0)
    9480:	8fa60064 	lw	a2,100(sp)
    9484:	afa20018 	sw	v0,24(sp)
    9488:	8f42010c 	lw	v0,268(k0)
    948c:	0040f809 	jalr	v0
    9490:	02003821 	move	a3,s0
    9494:	1040fea2 	beqz	v0,0x8f20
    9498:	3c050007 	lui	a1,0x7
    949c:	96a3000e 	lhu	v1,14(s5)
    94a0:	97aa008e 	lhu	t2,142(sp)
    94a4:	11400007 	beqz	t2,0x94c4
    94a8:	00609021 	move	s2,v1
    94ac:	934205c4 	lbu	v0,1476(k0)
    94b0:	14400004 	bnez	v0,0x94c4
    94b4:	00000000 	nop
    94b8:	97ab0086 	lhu	t3,134(sp)
    94bc:	006a1825 	or	v1,v1,t2
    94c0:	a6ab0016 	sh	t3,22(s5)
    94c4:	8faa007c 	lw	t2,124(sp)
    94c8:	3c02ffff 	lui	v0,0xffff
    94cc:	01421024 	and	v0,t2,v0
    94d0:	10400003 	beqz	v0,0x94e0
    94d4:	000a1402 	srl	v0,t2,0x10
    94d8:	34630400 	ori	v1,v1,0x400
    94dc:	a6a20014 	sh	v0,20(s5)
    94e0:	8fab006c 	lw	t3,108(sp)
    94e4:	560b0072 	bnel	s0,t3,0x96b0
    94e8:	a6a3000e 	sh	v1,14(s5)
    94ec:	34620004 	ori	v0,v1,0x4
    94f0:	a6a2000e 	sh	v0,14(s5)
    94f4:	8faa0074 	lw	t2,116(sp)
    94f8:	016a1021 	addu	v0,t3,t2
    94fc:	a6a2000a 	sh	v0,10(s5)
    9500:	8f430044 	lw	v1,68(k0)
    9504:	8f4401a0 	lw	a0,416(k0)
    9508:	8f4501a4 	lw	a1,420(k0)
    950c:	34028000 	li	v0,0x8000
    9510:	afa20010 	sw	v0,16(sp)
    9514:	8f420044 	lw	v0,68(k0)
    9518:	02a03021 	move	a2,s5
    951c:	24070020 	li	a3,32
    9520:	afa20014 	sw	v0,20(sp)
    9524:	8f42000c 	lw	v0,12(k0)
    9528:	00031940 	sll	v1,v1,0x5
    952c:	00604821 	move	t1,v1
    9530:	afa20018 	sw	v0,24(sp)
    9534:	8f42010c 	lw	v0,268(k0)
    9538:	00004021 	move	t0,zero
    953c:	00a92821 	addu	a1,a1,t1
    9540:	00a9182b 	sltu	v1,a1,t1
    9544:	00882021 	addu	a0,a0,t0
    9548:	0040f809 	jalr	v0
    954c:	00832021 	addu	a0,a0,v1
    9550:	5040fe7f 	beqzl	v0,0x8f50
    9554:	a6b2000e 	sh	s2,14(s5)
    9558:	8f420368 	lw	v0,872(k0)
    955c:	afa0006c 	sw	zero,108(sp)
    9560:	a34005c4 	sb	zero,1476(k0)
    9564:	2442ffff 	addiu	v0,v0,-1
    9568:	af420368 	sw	v0,872(k0)
    956c:	8fab005c 	lw	t3,92(sp)
    9570:	240a0001 	li	t2,1
    9574:	8f420368 	lw	v0,872(k0)
    9578:	156a0006 	bne	t3,t2,0x9594
    957c:	240a0002 	li	t2,2
    9580:	8f42035c 	lw	v0,860(k0)
    9584:	2442ffff 	addiu	v0,v0,-1
    9588:	af42035c 	sw	v0,860(k0)
    958c:	1000000c 	b	0x95c0
    9590:	8f42035c 	lw	v0,860(k0)
    9594:	156a0006 	bne	t3,t2,0x95b0
    9598:	00000000 	nop
    959c:	8f420364 	lw	v0,868(k0)
    95a0:	2442ffff 	addiu	v0,v0,-1
    95a4:	af420364 	sw	v0,868(k0)
    95a8:	10000005 	b	0x95c0
    95ac:	8f420364 	lw	v0,868(k0)
    95b0:	8f420360 	lw	v0,864(k0)
    95b4:	2442ffff 	addiu	v0,v0,-1
    95b8:	af420360 	sw	v0,864(k0)
    95bc:	8f420360 	lw	v0,864(k0)
    95c0:	8faa0054 	lw	t2,84(sp)
    95c4:	8fab004c 	lw	t3,76(sp)
    95c8:	ad6a0000 	sw	t2,0(t3)
    95cc:	8f420044 	lw	v0,68(k0)
    95d0:	8f440088 	lw	a0,136(k0)
    95d4:	8f430078 	lw	v1,120(k0)
    95d8:	24420001 	addiu	v0,v0,1
    95dc:	00441024 	and	v0,v0,a0
    95e0:	24630001 	addiu	v1,v1,1
    95e4:	af420044 	sw	v0,68(k0)
    95e8:	af430078 	sw	v1,120(k0)
    95ec:	8c020240 	lw	v0,576(zero)
    95f0:	0062182b 	sltu	v1,v1,v0
    95f4:	14600075 	bnez	v1,0x97cc
    95f8:	24070008 	li	a3,8
    95fc:	8f440168 	lw	a0,360(k0)
    9600:	8f45016c 	lw	a1,364(k0)
    9604:	8f430044 	lw	v1,68(k0)
    9608:	8f48000c 	lw	t0,12(k0)
    960c:	8f860120 	lw	a2,288(gp)
    9610:	24020040 	li	v0,64
    9614:	afa20010 	sw	v0,16(sp)
    9618:	afa30014 	sw	v1,20(sp)
    961c:	afa80018 	sw	t0,24(sp)
    9620:	8f42010c 	lw	v0,268(k0)
    9624:	0040f809 	jalr	v0
    9628:	24c6001c 	addiu	a2,a2,28
    962c:	14400011 	bnez	v0,0x9674
    9630:	240b0001 	li	t3,1
    9634:	3c010001 	lui	at,0x1
    9638:	00370821 	addu	at,at,s7
    963c:	a02b40f2 	sb	t3,16626(at)
    9640:	8f820124 	lw	v0,292(gp)
    9644:	afa20010 	sw	v0,16(sp)
    9648:	8f820128 	lw	v0,296(gp)
    964c:	3c040001 	lui	a0,0x1
    9650:	2484688c 	addiu	a0,a0,26764
    9654:	afa20014 	sw	v0,20(sp)
    9658:	8f460044 	lw	a2,68(k0)
    965c:	8f870120 	lw	a3,288(gp)
    9660:	3c050009 	lui	a1,0x9
    9664:	0c002b3b 	jal	0xacec
    9668:	34a51300 	ori	a1,a1,0x1300
    966c:	1000000b 	b	0x969c
    9670:	00000000 	nop
    9674:	8f420304 	lw	v0,772(k0)
    9678:	24420001 	addiu	v0,v0,1
    967c:	af420304 	sw	v0,772(k0)
    9680:	8f420304 	lw	v0,772(k0)
    9684:	8f420044 	lw	v0,68(k0)
    9688:	af42007c 	sw	v0,124(k0)
    968c:	3c010001 	lui	at,0x1
    9690:	00370821 	addu	at,at,s7
    9694:	a02040f2 	sb	zero,16626(at)
    9698:	af400078 	sw	zero,120(k0)
    969c:	8f420318 	lw	v0,792(k0)
    96a0:	24420001 	addiu	v0,v0,1
    96a4:	af420318 	sw	v0,792(k0)
    96a8:	10000048 	b	0x97cc
    96ac:	8f420318 	lw	v0,792(k0)
    96b0:	a6b0000a 	sh	s0,10(s5)
    96b4:	8f430044 	lw	v1,68(k0)
    96b8:	8f4401a0 	lw	a0,416(k0)
    96bc:	8f4501a4 	lw	a1,420(k0)
    96c0:	34028000 	li	v0,0x8000
    96c4:	afa20010 	sw	v0,16(sp)
    96c8:	8f420044 	lw	v0,68(k0)
    96cc:	02a03021 	move	a2,s5
    96d0:	24070020 	li	a3,32
    96d4:	afa20014 	sw	v0,20(sp)
    96d8:	8f42000c 	lw	v0,12(k0)
    96dc:	00031940 	sll	v1,v1,0x5
    96e0:	00604821 	move	t1,v1
    96e4:	afa20018 	sw	v0,24(sp)
    96e8:	8f42010c 	lw	v0,268(k0)
    96ec:	00004021 	move	t0,zero
    96f0:	00a92821 	addu	a1,a1,t1
    96f4:	00a9182b 	sltu	v1,a1,t1
    96f8:	00882021 	addu	a0,a0,t0
    96fc:	0040f809 	jalr	v0
    9700:	00832021 	addu	a0,a0,v1
    9704:	1040fe1f 	beqz	v0,0x8f84
    9708:	240a0001 	li	t2,1
    970c:	a34a05c4 	sb	t2,1476(k0)
    9710:	8fab006c 	lw	t3,108(sp)
    9714:	8faa0064 	lw	t2,100(sp)
    9718:	01705823 	subu	t3,t3,s0
    971c:	afab006c 	sw	t3,108(sp)
    9720:	8fab009c 	lw	t3,156(sp)
    9724:	01505021 	addu	t2,t2,s0
    9728:	016a102b 	sltu	v0,t3,t2
    972c:	10400004 	beqz	v0,0x9740
    9730:	afaa0064 	sw	t2,100(sp)
    9734:	8f420148 	lw	v0,328(k0)
    9738:	01425023 	subu	t2,t2,v0
    973c:	afaa0064 	sw	t2,100(sp)
    9740:	8f420368 	lw	v0,872(k0)
    9744:	2442ffff 	addiu	v0,v0,-1
    9748:	af420368 	sw	v0,872(k0)
    974c:	8faa005c 	lw	t2,92(sp)
    9750:	240b0001 	li	t3,1
    9754:	8f420368 	lw	v0,872(k0)
    9758:	154b0006 	bne	t2,t3,0x9774
    975c:	240b0002 	li	t3,2
    9760:	8f42035c 	lw	v0,860(k0)
    9764:	2442ffff 	addiu	v0,v0,-1
    9768:	af42035c 	sw	v0,860(k0)
    976c:	1000000c 	b	0x97a0
    9770:	8f42035c 	lw	v0,860(k0)
    9774:	114b0006 	beq	t2,t3,0x9790
    9778:	00000000 	nop
    977c:	8f420360 	lw	v0,864(k0)
    9780:	2442ffff 	addiu	v0,v0,-1
    9784:	af420360 	sw	v0,864(k0)
    9788:	10000005 	b	0x97a0
    978c:	8f420360 	lw	v0,864(k0)
    9790:	8f420364 	lw	v0,868(k0)
    9794:	2442ffff 	addiu	v0,v0,-1
    9798:	af420364 	sw	v0,868(k0)
    979c:	8f420364 	lw	v0,868(k0)
    97a0:	8fab0054 	lw	t3,84(sp)
    97a4:	8faa004c 	lw	t2,76(sp)
    97a8:	ad4b0000 	sw	t3,0(t2)
    97ac:	8f420044 	lw	v0,68(k0)
    97b0:	8f440088 	lw	a0,136(k0)
    97b4:	8f430078 	lw	v1,120(k0)
    97b8:	24420001 	addiu	v0,v0,1
    97bc:	00441024 	and	v0,v0,a0
    97c0:	24630001 	addiu	v1,v1,1
    97c4:	af420044 	sw	v0,68(k0)
    97c8:	af430078 	sw	v1,120(k0)
    97cc:	8faa006c 	lw	t2,108(sp)
    97d0:	1540fe0b 	bnez	t2,0x9000
    97d4:	00000000 	nop
    97d8:	8fab006c 	lw	t3,108(sp)
    97dc:	1160001e 	beqz	t3,0x9858
    97e0:	00000000 	nop
    97e4:	934205c4 	lbu	v0,1476(k0)
    97e8:	10400009 	beqz	v0,0x9810
    97ec:	00000000 	nop
    97f0:	8faa0064 	lw	t2,100(sp)
    97f4:	af4a00c4 	sw	t2,196(k0)
    97f8:	af4b00c0 	sw	t3,192(k0)
    97fc:	8fab007c 	lw	t3,124(sp)
    9800:	af4b00c8 	sw	t3,200(k0)
    9804:	8faa0074 	lw	t2,116(sp)
    9808:	1000000e 	b	0x9844
    980c:	af4a00cc 	sw	t2,204(k0)
    9810:	97ab008e 	lhu	t3,142(sp)
    9814:	1160000b 	beqz	t3,0x9844
    9818:	34038100 	li	v1,0x8100
    981c:	8fa20020 	lw	v0,32(sp)
    9820:	8c46000c 	lw	a2,12(v0)
    9824:	a443000c 	sh	v1,12(v0)
    9828:	97aa0086 	lhu	t2,134(sp)
    982c:	8c440004 	lw	a0,4(v0)
    9830:	8c450008 	lw	a1,8(v0)
    9834:	a44a000e 	sh	t2,14(v0)
    9838:	ac440000 	sw	a0,0(v0)
    983c:	ac450004 	sw	a1,4(v0)
    9840:	ac460008 	sw	a2,8(v0)
    9844:	8f42034c 	lw	v0,844(k0)
    9848:	24420001 	addiu	v0,v0,1
    984c:	af42034c 	sw	v0,844(k0)
    9850:	10000010 	b	0x9894
    9854:	8f42034c 	lw	v0,844(k0)
    9858:	8fab007c 	lw	t3,124(sp)
    985c:	3164ffff 	andi	a0,t3,0xffff
    9860:	2484fffc 	addiu	a0,a0,-4
    9864:	00801821 	move	v1,a0
    9868:	8f440250 	lw	a0,592(k0)
    986c:	8f450254 	lw	a1,596(k0)
    9870:	8f460118 	lw	a2,280(k0)
    9874:	00001021 	move	v0,zero
    9878:	00a32821 	addu	a1,a1,v1
    987c:	00a3382b 	sltu	a3,a1,v1
    9880:	00822021 	addu	a0,a0,v0
    9884:	00872021 	addu	a0,a0,a3
    9888:	af440250 	sw	a0,592(k0)
    988c:	00c0f809 	jalr	a2
    9890:	af450254 	sw	a1,596(k0)
    9894:	8fbf00c8 	lw	ra,200(sp)
    9898:	8fbe00c4 	lw	s8,196(sp)
    989c:	8fb500c0 	lw	s5,192(sp)
    98a0:	8fb300bc 	lw	s3,188(sp)
    98a4:	8fb200b8 	lw	s2,184(sp)
    98a8:	8fb100b4 	lw	s1,180(sp)
    98ac:	8fb000b0 	lw	s0,176(sp)
    98b0:	03e00008 	jr	ra
    98b4:	27bd00d0 	addiu	sp,sp,208
    98b8:	03e00008 	jr	ra
    98bc:	00000000 	nop
    98c0:	27bdff38 	addiu	sp,sp,-200
    98c4:	240b0001 	li	t3,1
    98c8:	afbf00c0 	sw	ra,192(sp)
    98cc:	afbe00bc 	sw	s8,188(sp)
    98d0:	afb500b8 	sw	s5,184(sp)
    98d4:	afb300b4 	sw	s3,180(sp)
    98d8:	afb200b0 	sw	s2,176(sp)
    98dc:	afb100ac 	sw	s1,172(sp)
    98e0:	afb000a8 	sw	s0,168(sp)
    98e4:	a3a00087 	sb	zero,135(sp)
    98e8:	afa00044 	sw	zero,68(sp)
    98ec:	afab005c 	sw	t3,92(sp)
    98f0:	934205c4 	lbu	v0,1476(k0)
    98f4:	a7a00076 	sh	zero,118(sp)
    98f8:	10400007 	beqz	v0,0x9918
    98fc:	a7a0007e 	sh	zero,126(sp)
    9900:	8f4c00c0 	lw	t4,192(k0)
    9904:	afac0064 	sw	t4,100(sp)
    9908:	8f4b00c8 	lw	t3,200(k0)
    990c:	8f5e00c4 	lw	s8,196(k0)
    9910:	10000130 	b	0x9dd4
    9914:	afab006c 	sw	t3,108(sp)
    9918:	8f420114 	lw	v0,276(k0)
    991c:	0040f809 	jalr	v0
    9920:	00000000 	nop
    9924:	00403021 	move	a2,v0
    9928:	10c002a1 	beqz	a2,0xa3b0
    992c:	00000000 	nop
    9930:	8cc20000 	lw	v0,0(a2)
    9934:	8cc30004 	lw	v1,4(a2)
    9938:	afa20020 	sw	v0,32(sp)
    993c:	afa30024 	sw	v1,36(sp)
    9940:	8fac0024 	lw	t4,36(sp)
    9944:	8fbe0020 	lw	s8,32(sp)
    9948:	3182ffff 	andi	v0,t4,0xffff
    994c:	2442fffc 	addiu	v0,v0,-4
    9950:	afa20064 	sw	v0,100(sp)
    9954:	3c020006 	lui	v0,0x6
    9958:	02c21024 	and	v0,s6,v0
    995c:	14400015 	bnez	v0,0x99b4
    9960:	afac006c 	sw	t4,108(sp)
    9964:	93c20000 	lbu	v0,0(s8)
    9968:	30420001 	andi	v0,v0,0x1
    996c:	10400011 	beqz	v0,0x99b4
    9970:	2402ffff 	li	v0,-1
    9974:	8fc30000 	lw	v1,0(s8)
    9978:	14620004 	bne	v1,v0,0x998c
    997c:	3402ffff 	li	v0,0xffff
    9980:	97c30004 	lhu	v1,4(s8)
    9984:	1062000b 	beq	v1,v0,0x99b4
    9988:	00000000 	nop
    998c:	0c0024bb 	jal	0x92ec
    9990:	03c02021 	move	a0,s8
    9994:	304200ff 	andi	v0,v0,0xff
    9998:	14400006 	bnez	v0,0x99b4
    999c:	00000000 	nop
    99a0:	8f420118 	lw	v0,280(k0)
    99a4:	0040f809 	jalr	v0
    99a8:	00000000 	nop
    99ac:	10000280 	b	0xa3b0
    99b0:	00000000 	nop
    99b4:	8fa20024 	lw	v0,36(sp)
    99b8:	3c03ffbf 	lui	v1,0xffbf
    99bc:	3463ffff 	ori	v1,v1,0xffff
    99c0:	00431024 	and	v0,v0,v1
    99c4:	3c03ffff 	lui	v1,0xffff
    99c8:	00431824 	and	v1,v0,v1
    99cc:	14600003 	bnez	v1,0x99dc
    99d0:	afa20024 	sw	v0,36(sp)
    99d4:	10000040 	b	0x9ad8
    99d8:	00008021 	move	s0,zero
    99dc:	3c020080 	lui	v0,0x80
    99e0:	00621024 	and	v0,v1,v0
    99e4:	10400007 	beqz	v0,0x9a04
    99e8:	00000000 	nop
    99ec:	8f42038c 	lw	v0,908(k0)
    99f0:	24420001 	addiu	v0,v0,1
    99f4:	af42038c 	sw	v0,908(k0)
    99f8:	8f42038c 	lw	v0,908(k0)
    99fc:	10000036 	b	0x9ad8
    9a00:	24100001 	li	s0,1
    9a04:	8f420210 	lw	v0,528(k0)
    9a08:	24420001 	addiu	v0,v0,1
    9a0c:	af420210 	sw	v0,528(k0)
    9a10:	8f420210 	lw	v0,528(k0)
    9a14:	3c020001 	lui	v0,0x1
    9a18:	00621024 	and	v0,v1,v0
    9a1c:	10400006 	beqz	v0,0x9a38
    9a20:	3c020002 	lui	v0,0x2
    9a24:	8f4201c4 	lw	v0,452(k0)
    9a28:	24420001 	addiu	v0,v0,1
    9a2c:	af4201c4 	sw	v0,452(k0)
    9a30:	8f4201c4 	lw	v0,452(k0)
    9a34:	3c020002 	lui	v0,0x2
    9a38:	00621024 	and	v0,v1,v0
    9a3c:	10400006 	beqz	v0,0x9a58
    9a40:	3c020004 	lui	v0,0x4
    9a44:	8f42037c 	lw	v0,892(k0)
    9a48:	24420001 	addiu	v0,v0,1
    9a4c:	af42037c 	sw	v0,892(k0)
    9a50:	8f42037c 	lw	v0,892(k0)
    9a54:	3c020004 	lui	v0,0x4
    9a58:	00621024 	and	v0,v1,v0
    9a5c:	10400006 	beqz	v0,0x9a78
    9a60:	3c020008 	lui	v0,0x8
    9a64:	8f420380 	lw	v0,896(k0)
    9a68:	24420001 	addiu	v0,v0,1
    9a6c:	af420380 	sw	v0,896(k0)
    9a70:	8f420380 	lw	v0,896(k0)
    9a74:	3c020008 	lui	v0,0x8
    9a78:	00621024 	and	v0,v1,v0
    9a7c:	10400006 	beqz	v0,0x9a98
    9a80:	3c020010 	lui	v0,0x10
    9a84:	8f420384 	lw	v0,900(k0)
    9a88:	24420001 	addiu	v0,v0,1
    9a8c:	af420384 	sw	v0,900(k0)
    9a90:	8f420384 	lw	v0,900(k0)
    9a94:	3c020010 	lui	v0,0x10
    9a98:	00621024 	and	v0,v1,v0
    9a9c:	10400006 	beqz	v0,0x9ab8
    9aa0:	3c020020 	lui	v0,0x20
    9aa4:	8f4201c0 	lw	v0,448(k0)
    9aa8:	24420001 	addiu	v0,v0,1
    9aac:	af4201c0 	sw	v0,448(k0)
    9ab0:	8f4201c0 	lw	v0,448(k0)
    9ab4:	3c020020 	lui	v0,0x20
    9ab8:	00621024 	and	v0,v1,v0
    9abc:	10400006 	beqz	v0,0x9ad8
    9ac0:	24100001 	li	s0,1
    9ac4:	8f420388 	lw	v0,904(k0)
    9ac8:	24420001 	addiu	v0,v0,1
    9acc:	af420388 	sw	v0,904(k0)
    9ad0:	8f420388 	lw	v0,904(k0)
    9ad4:	24100001 	li	s0,1
    9ad8:	8c020260 	lw	v0,608(zero)
    9adc:	8fab0064 	lw	t3,100(sp)
    9ae0:	004b102b 	sltu	v0,v0,t3
    9ae4:	10400015 	beqz	v0,0x9b3c
    9ae8:	320200ff 	andi	v0,s0,0xff
    9aec:	8f4201e8 	lw	v0,488(k0)
    9af0:	24420001 	addiu	v0,v0,1
    9af4:	af4201e8 	sw	v0,488(k0)
    9af8:	8f4201e8 	lw	v0,488(k0)
    9afc:	8fac006c 	lw	t4,108(sp)
    9b00:	8f8200e0 	lw	v0,224(gp)
    9b04:	358c0100 	ori	t4,t4,0x100
    9b08:	afac006c 	sw	t4,108(sp)
    9b0c:	afa20010 	sw	v0,16(sp)
    9b10:	8f8200e4 	lw	v0,228(gp)
    9b14:	24100001 	li	s0,1
    9b18:	3c040001 	lui	a0,0x1
    9b1c:	248468a0 	addiu	a0,a0,26784
    9b20:	afa20014 	sw	v0,20(sp)
    9b24:	8fa60020 	lw	a2,32(sp)
    9b28:	8fa70024 	lw	a3,36(sp)
    9b2c:	3c050007 	lui	a1,0x7
    9b30:	0c002b3b 	jal	0xacec
    9b34:	34a53600 	ori	a1,a1,0x3600
    9b38:	320200ff 	andi	v0,s0,0xff
    9b3c:	10400010 	beqz	v0,0x9b80
    9b40:	3c020080 	lui	v0,0x80
    9b44:	02c21024 	and	v0,s6,v0
    9b48:	1440000e 	bnez	v0,0x9b84
    9b4c:	32c20400 	andi	v0,s6,0x400
    9b50:	8fab006c 	lw	t3,108(sp)
    9b54:	3c020080 	lui	v0,0x80
    9b58:	34420100 	ori	v0,v0,0x100
    9b5c:	01621024 	and	v0,t3,v0
    9b60:	10400005 	beqz	v0,0x9b78
    9b64:	00000000 	nop
    9b68:	8f42020c 	lw	v0,524(k0)
    9b6c:	24420001 	addiu	v0,v0,1
    9b70:	af42020c 	sw	v0,524(k0)
    9b74:	8f42020c 	lw	v0,524(k0)
    9b78:	10000202 	b	0xa384
    9b7c:	8fa30064 	lw	v1,100(sp)
    9b80:	32c20400 	andi	v0,s6,0x400
    9b84:	10400012 	beqz	v0,0x9bd0
    9b88:	34028100 	li	v0,0x8100
    9b8c:	97c3000c 	lhu	v1,12(s8)
    9b90:	1462000f 	bne	v1,v0,0x9bd0
    9b94:	00000000 	nop
    9b98:	240c0200 	li	t4,512
    9b9c:	a7ac0076 	sh	t4,118(sp)
    9ba0:	97c2000e 	lhu	v0,14(s8)
    9ba4:	8fc30008 	lw	v1,8(s8)
    9ba8:	8fc40004 	lw	a0,4(s8)
    9bac:	8fab0064 	lw	t3,100(sp)
    9bb0:	8fc50000 	lw	a1,0(s8)
    9bb4:	256bfffc 	addiu	t3,t3,-4
    9bb8:	afab0064 	sw	t3,100(sp)
    9bbc:	a7a2007e 	sh	v0,126(sp)
    9bc0:	afc3000c 	sw	v1,12(s8)
    9bc4:	afc40008 	sw	a0,8(s8)
    9bc8:	afc50004 	sw	a1,4(s8)
    9bcc:	27de0004 	addiu	s8,s8,4
    9bd0:	8fa70064 	lw	a3,100(sp)
    9bd4:	320200ff 	andi	v0,s0,0xff
    9bd8:	14400034 	bnez	v0,0x9cac
    9bdc:	3c020100 	lui	v0,0x100
    9be0:	97c4000c 	lhu	a0,12(s8)
    9be4:	2c8305dd 	sltiu	v1,a0,1501
    9be8:	38828870 	xori	v0,a0,0x8870
    9bec:	2c420001 	sltiu	v0,v0,1
    9bf0:	00621825 	or	v1,v1,v0
    9bf4:	10600015 	beqz	v1,0x9c4c
    9bf8:	00002821 	move	a1,zero
    9bfc:	32c20800 	andi	v0,s6,0x800
    9c00:	10400015 	beqz	v0,0x9c58
    9c04:	24020800 	li	v0,2048
    9c08:	97c30014 	lhu	v1,20(s8)
    9c0c:	14620012 	bne	v1,v0,0x9c58
    9c10:	3402aaaa 	li	v0,0xaaaa
    9c14:	97c3000e 	lhu	v1,14(s8)
    9c18:	14620007 	bne	v1,v0,0x9c38
    9c1c:	00002021 	move	a0,zero
    9c20:	97c30010 	lhu	v1,16(s8)
    9c24:	24020300 	li	v0,768
    9c28:	14620004 	bne	v1,v0,0x9c3c
    9c2c:	00801021 	move	v0,a0
    9c30:	97c20012 	lhu	v0,18(s8)
    9c34:	2c440001 	sltiu	a0,v0,1
    9c38:	00801021 	move	v0,a0
    9c3c:	54400006 	bnezl	v0,0x9c58
    9c40:	24050016 	li	a1,22
    9c44:	10000004 	b	0x9c58
    9c48:	00000000 	nop
    9c4c:	24020800 	li	v0,2048
    9c50:	50820001 	beql	a0,v0,0x9c58
    9c54:	2405000e 	li	a1,14
    9c58:	10a00013 	beqz	a1,0x9ca8
    9c5c:	03c52021 	addu	a0,s8,a1
    9c60:	24830009 	addiu	v1,a0,9
    9c64:	3c02001f 	lui	v0,0x1f
    9c68:	3442ffff 	ori	v0,v0,0xffff
    9c6c:	0043102b 	sltu	v0,v0,v1
    9c70:	10400003 	beqz	v0,0x9c80
    9c74:	00000000 	nop
    9c78:	8f420148 	lw	v0,328(k0)
    9c7c:	00621823 	subu	v1,v1,v0
    9c80:	90620000 	lbu	v0,0(v1)
    9c84:	38430006 	xori	v1,v0,0x6
    9c88:	2c630001 	sltiu	v1,v1,1
    9c8c:	38420011 	xori	v0,v0,0x11
    9c90:	2c420001 	sltiu	v0,v0,1
    9c94:	00621825 	or	v1,v1,v0
    9c98:	10600004 	beqz	v1,0x9cac
    9c9c:	3c020100 	lui	v0,0x100
    9ca0:	94820002 	lhu	v0,2(a0)
    9ca4:	00453821 	addu	a3,v0,a1
    9ca8:	3c020100 	lui	v0,0x100
    9cac:	02c21024 	and	v0,s6,v0
    9cb0:	5040000e 	beqzl	v0,0x9cec
    9cb4:	afa70064 	sw	a3,100(sp)
    9cb8:	8fac0064 	lw	t4,100(sp)
    9cbc:	10ec0008 	beq	a3,t4,0x9ce0
    9cc0:	3c050007 	lui	a1,0x7
    9cc4:	3c040001 	lui	a0,0x1
    9cc8:	24846908 	addiu	a0,a0,26888
    9ccc:	8fa60064 	lw	a2,100(sp)
    9cd0:	34a54000 	ori	a1,a1,0x4000
    9cd4:	afa00010 	sw	zero,16(sp)
    9cd8:	0c002b3b 	jal	0xacec
    9cdc:	afa00014 	sw	zero,20(sp)
    9ce0:	8fab0064 	lw	t3,100(sp)
    9ce4:	256b0004 	addiu	t3,t3,4
    9ce8:	afab0064 	sw	t3,100(sp)
    9cec:	8f420080 	lw	v0,128(k0)
    9cf0:	8fac0064 	lw	t4,100(sp)
    9cf4:	004c102b 	sltu	v0,v0,t4
    9cf8:	1040002c 	beqz	v0,0x9dac
    9cfc:	32c28000 	andi	v0,s6,0x8000
    9d00:	10400034 	beqz	v0,0x9dd4
    9d04:	240b0003 	li	t3,3
    9d08:	32c21000 	andi	v0,s6,0x1000
    9d0c:	10400031 	beqz	v0,0x9dd4
    9d10:	afab005c 	sw	t3,92(sp)
    9d14:	1000002e 	b	0x9dd0
    9d18:	240c0004 	li	t4,4
    9d1c:	8f420350 	lw	v0,848(k0)
    9d20:	2403ffbf 	li	v1,-65
    9d24:	0283a024 	and	s4,s4,v1
    9d28:	24420001 	addiu	v0,v0,1
    9d2c:	af420350 	sw	v0,848(k0)
    9d30:	10000173 	b	0xa300
    9d34:	8f420350 	lw	v0,848(k0)
    9d38:	3c020800 	lui	v0,0x800
    9d3c:	02c2b025 	or	s6,s6,v0
    9d40:	2402ffbf 	li	v0,-65
    9d44:	0282a024 	and	s4,s4,v0
    9d48:	8f830128 	lw	v1,296(gp)
    9d4c:	3c040001 	lui	a0,0x1
    9d50:	248468d0 	addiu	a0,a0,26832
    9d54:	26620001 	addiu	v0,s3,1
    9d58:	afa20014 	sw	v0,20(sp)
    9d5c:	afa30010 	sw	v1,16(sp)
    9d60:	8f860120 	lw	a2,288(gp)
    9d64:	8f870124 	lw	a3,292(gp)
    9d68:	3c050007 	lui	a1,0x7
    9d6c:	0c002b3b 	jal	0xacec
    9d70:	34a55300 	ori	a1,a1,0x5300
    9d74:	10000162 	b	0xa300
    9d78:	00000000 	nop
    9d7c:	8ea20000 	lw	v0,0(s5)
    9d80:	8ea30004 	lw	v1,4(s5)
    9d84:	3c040001 	lui	a0,0x1
    9d88:	248468e8 	addiu	a0,a0,26856
    9d8c:	afb00010 	sw	s0,16(sp)
    9d90:	afb10014 	sw	s1,20(sp)
    9d94:	8ea70018 	lw	a3,24(s5)
    9d98:	34a55900 	ori	a1,a1,0x5900
    9d9c:	0c002b3b 	jal	0xacec
    9da0:	00603021 	move	a2,v1
    9da4:	10000156 	b	0xa300
    9da8:	00000000 	nop
    9dac:	8f420084 	lw	v0,132(k0)
    9db0:	8fab0064 	lw	t3,100(sp)
    9db4:	004b102b 	sltu	v0,v0,t3
    9db8:	14400007 	bnez	v0,0x9dd8
    9dbc:	3c020001 	lui	v0,0x1
    9dc0:	02c21024 	and	v0,s6,v0
    9dc4:	10400004 	beqz	v0,0x9dd8
    9dc8:	00000000 	nop
    9dcc:	240c0002 	li	t4,2
    9dd0:	afac005c 	sw	t4,92(sp)
    9dd4:	8fab0064 	lw	t3,100(sp)
    9dd8:	11600166 	beqz	t3,0xa374
    9ddc:	27ac0020 	addiu	t4,sp,32
    9de0:	afac008c 	sw	t4,140(sp)
    9de4:	8fab005c 	lw	t3,92(sp)
    9de8:	240c0001 	li	t4,1
    9dec:	556c0021 	bnel	t3,t4,0x9e74
    9df0:	240c0002 	li	t4,2
    9df4:	8f430054 	lw	v1,84(k0)
    9df8:	8f420050 	lw	v0,80(k0)
    9dfc:	1062000b 	beq	v1,v0,0x9e2c
    9e00:	274b0054 	addiu	t3,k0,84
    9e04:	8f510054 	lw	s1,84(k0)
    9e08:	3403ecc0 	li	v1,0xecc0
    9e0c:	afab004c 	sw	t3,76(sp)
    9e10:	26220001 	addiu	v0,s1,1
    9e14:	304201ff 	andi	v0,v0,0x1ff
    9e18:	afa20054 	sw	v0,84(sp)
    9e1c:	00111140 	sll	v0,s1,0x5
    9e20:	00431021 	addu	v0,v0,v1
    9e24:	1000006b 	b	0x9fd4
    9e28:	02e2a821 	addu	s5,s7,v0
    9e2c:	8f420044 	lw	v0,68(k0)
    9e30:	8fac0064 	lw	t4,100(sp)
    9e34:	3c040001 	lui	a0,0x1
    9e38:	248468ac 	addiu	a0,a0,26796
    9e3c:	afac0014 	sw	t4,20(sp)
    9e40:	afa20010 	sw	v0,16(sp)
    9e44:	8f460054 	lw	a2,84(k0)
    9e48:	8f470050 	lw	a3,80(k0)
    9e4c:	3c050007 	lui	a1,0x7
    9e50:	0c002b3b 	jal	0xacec
    9e54:	34a54300 	ori	a1,a1,0x4300
    9e58:	8f430350 	lw	v1,848(k0)
    9e5c:	2402ffbf 	li	v0,-65
    9e60:	0282a024 	and	s4,s4,v0
    9e64:	24630001 	addiu	v1,v1,1
    9e68:	af430350 	sw	v1,848(k0)
    9e6c:	10000124 	b	0xa300
    9e70:	8f420350 	lw	v0,848(k0)
    9e74:	156c001d 	bne	t3,t4,0x9eec
    9e78:	00000000 	nop
    9e7c:	8f430074 	lw	v1,116(k0)
    9e80:	8f420070 	lw	v0,112(k0)
    9e84:	1062000a 	beq	v1,v0,0x9eb0
    9e88:	274b0074 	addiu	t3,k0,116
    9e8c:	8f510074 	lw	s1,116(k0)
    9e90:	afab004c 	sw	t3,76(sp)
    9e94:	26220001 	addiu	v0,s1,1
    9e98:	304203ff 	andi	v0,v0,0x3ff
    9e9c:	afa20054 	sw	v0,84(sp)
    9ea0:	00111140 	sll	v0,s1,0x5
    9ea4:	24426cc0 	addiu	v0,v0,27840
    9ea8:	1000004a 	b	0x9fd4
    9eac:	02e2a821 	addu	s5,s7,v0
    9eb0:	8f420044 	lw	v0,68(k0)
    9eb4:	8fac0064 	lw	t4,100(sp)
    9eb8:	3c040001 	lui	a0,0x1
    9ebc:	248468b8 	addiu	a0,a0,26808
    9ec0:	3c050007 	lui	a1,0x7
    9ec4:	afac0014 	sw	t4,20(sp)
    9ec8:	afa20010 	sw	v0,16(sp)
    9ecc:	8f460074 	lw	a2,116(k0)
    9ed0:	8f470070 	lw	a3,112(k0)
    9ed4:	34a54500 	ori	a1,a1,0x4500
    9ed8:	240b0001 	li	t3,1
    9edc:	0c002b3b 	jal	0xacec
    9ee0:	afab005c 	sw	t3,92(sp)
    9ee4:	1000ffc3 	b	0x9df4
    9ee8:	00000000 	nop
    9eec:	8f430064 	lw	v1,100(k0)
    9ef0:	8f420060 	lw	v0,96(k0)
    9ef4:	1062001a 	beq	v1,v0,0x9f60
    9ef8:	274c0064 	addiu	t4,k0,100
    9efc:	8f510064 	lw	s1,100(k0)
    9f00:	8fab005c 	lw	t3,92(sp)
    9f04:	afac004c 	sw	t4,76(sp)
    9f08:	26220001 	addiu	v0,s1,1
    9f0c:	304200ff 	andi	v0,v0,0xff
    9f10:	afa20054 	sw	v0,84(sp)
    9f14:	24020004 	li	v0,4
    9f18:	1562000e 	bne	t3,v0,0x9f54
    9f1c:	00111140 	sll	v0,s1,0x5
    9f20:	00111180 	sll	v0,s1,0x6
    9f24:	24420cc0 	addiu	v0,v0,3264
    9f28:	02e21021 	addu	v0,s7,v0
    9f2c:	afa20044 	sw	v0,68(sp)
    9f30:	9442002a 	lhu	v0,42(v0)
    9f34:	8fac0044 	lw	t4,68(sp)
    9f38:	8fab0064 	lw	t3,100(sp)
    9f3c:	004b102b 	sltu	v0,v0,t3
    9f40:	10400024 	beqz	v0,0x9fd4
    9f44:	25950020 	addiu	s5,t4,32
    9f48:	240c0001 	li	t4,1
    9f4c:	10000021 	b	0x9fd4
    9f50:	a3ac0087 	sb	t4,135(sp)
    9f54:	24424cc0 	addiu	v0,v0,19648
    9f58:	1000001e 	b	0x9fd4
    9f5c:	02e2a821 	addu	s5,s7,v0
    9f60:	8f420044 	lw	v0,68(k0)
    9f64:	8fab0064 	lw	t3,100(sp)
    9f68:	3c040001 	lui	a0,0x1
    9f6c:	248468c4 	addiu	a0,a0,26820
    9f70:	afab0014 	sw	t3,20(sp)
    9f74:	afa20010 	sw	v0,16(sp)
    9f78:	8f460064 	lw	a2,100(k0)
    9f7c:	8f470060 	lw	a3,96(k0)
    9f80:	3c050007 	lui	a1,0x7
    9f84:	0c002b3b 	jal	0xacec
    9f88:	34a54800 	ori	a1,a1,0x4800
    9f8c:	3c020008 	lui	v0,0x8
    9f90:	02c21024 	and	v0,s6,v0
    9f94:	1440ff61 	bnez	v0,0x9d1c
    9f98:	00000000 	nop
    9f9c:	8f420370 	lw	v0,880(k0)
    9fa0:	240c0001 	li	t4,1
    9fa4:	afac005c 	sw	t4,92(sp)
    9fa8:	24420001 	addiu	v0,v0,1
    9fac:	af420370 	sw	v0,880(k0)
    9fb0:	1000ff90 	b	0x9df4
    9fb4:	8f420370 	lw	v0,880(k0)
    9fb8:	27a30036 	addiu	v1,sp,54
    9fbc:	00131040 	sll	v0,s3,0x1
    9fc0:	00621821 	addu	v1,v1,v0
    9fc4:	94620000 	lhu	v0,0(v1)
    9fc8:	00441021 	addu	v0,v0,a0
    9fcc:	1000001f 	b	0xa04c
    9fd0:	a4620000 	sh	v0,0(v1)
    9fd4:	aebe0018 	sw	s8,24(s5)
    9fd8:	93a20087 	lbu	v0,135(sp)
    9fdc:	10400084 	beqz	v0,0xa1f0
    9fe0:	00009821 	move	s3,zero
    9fe4:	8fab0044 	lw	t3,68(sp)
    9fe8:	8fa40064 	lw	a0,100(sp)
    9fec:	8fa3008c 	lw	v1,140(sp)
    9ff0:	25620020 	addiu	v0,t3,32
    9ff4:	afa20028 	sw	v0,40(sp)
    9ff8:	25620008 	addiu	v0,t3,8
    9ffc:	afa20030 	sw	v0,48(sp)
    a000:	25620010 	addiu	v0,t3,16
    a004:	afab002c 	sw	t3,44(sp)
    a008:	afa20034 	sw	v0,52(sp)
    a00c:	9562002a 	lhu	v0,42(t3)
    a010:	a7a20038 	sh	v0,56(sp)
    a014:	95620018 	lhu	v0,24(t3)
    a018:	a7a2003a 	sh	v0,58(sp)
    a01c:	9562001a 	lhu	v0,26(t3)
    a020:	a7a2003c 	sh	v0,60(sp)
    a024:	9562001c 	lhu	v0,28(t3)
    a028:	a7a2003e 	sh	v0,62(sp)
    a02c:	94620018 	lhu	v0,24(v1)
    a030:	24630002 	addiu	v1,v1,2
    a034:	00822023 	subu	a0,a0,v0
    a038:	1880ffdf 	blez	a0,0x9fb8
    a03c:	26730001 	addiu	s3,s3,1
    a040:	2e620004 	sltiu	v0,s3,4
    a044:	1440fff9 	bnez	v0,0xa02c
    a048:	00000000 	nop
    a04c:	8f4200fc 	lw	v0,252(k0)
    a050:	0262102a 	slt	v0,s3,v0
    a054:	14400030 	bnez	v0,0xa118
    a058:	24030001 	li	v1,1
    a05c:	8f83012c 	lw	v1,300(gp)
    a060:	10600028 	beqz	v1,0xa104
    a064:	00000000 	nop
    a068:	8f820124 	lw	v0,292(gp)
    a06c:	00431023 	subu	v0,v0,v1
    a070:	00022143 	sra	a0,v0,0x5
    a074:	58800001 	blezl	a0,0xa07c
    a078:	24840040 	addiu	a0,a0,64
    a07c:	8f820128 	lw	v0,296(gp)
    a080:	00431023 	subu	v0,v0,v1
    a084:	00021943 	sra	v1,v0,0x5
    a088:	58600001 	blezl	v1,0xa090
    a08c:	24630040 	addiu	v1,v1,64
    a090:	0064102a 	slt	v0,v1,a0
    a094:	54400001 	bnezl	v0,0xa09c
    a098:	00602021 	move	a0,v1
    a09c:	af4400fc 	sw	a0,252(k0)
    a0a0:	8f4200fc 	lw	v0,252(k0)
    a0a4:	0262102a 	slt	v0,s3,v0
    a0a8:	10400016 	beqz	v0,0xa104
    a0ac:	24030001 	li	v1,1
    a0b0:	1000001a 	b	0xa11c
    a0b4:	306200ff 	andi	v0,v1,0xff
    a0b8:	8fac008c 	lw	t4,140(sp)
    a0bc:	00101040 	sll	v0,s0,0x1
    a0c0:	004c1021 	addu	v0,v0,t4
    a0c4:	94470018 	lhu	a3,24(v0)
    a0c8:	00101080 	sll	v0,s0,0x2
    a0cc:	004c1021 	addu	v0,v0,t4
    a0d0:	afbe0010 	sw	s8,16(sp)
    a0d4:	8c420008 	lw	v0,8(v0)
    a0d8:	3c040001 	lui	a0,0x1
    a0dc:	248468dc 	addiu	a0,a0,26844
    a0e0:	3c050007 	lui	a1,0x7
    a0e4:	8c430004 	lw	v1,4(v0)
    a0e8:	8c420000 	lw	v0,0(v0)
    a0ec:	34a55500 	ori	a1,a1,0x5500
    a0f0:	02003021 	move	a2,s0
    a0f4:	0c002b3b 	jal	0xacec
    a0f8:	afa30014 	sw	v1,20(sp)
    a0fc:	10000039 	b	0xa1e4
    a100:	00000000 	nop
    a104:	8f420334 	lw	v0,820(k0)
    a108:	00001821 	move	v1,zero
    a10c:	24420001 	addiu	v0,v0,1
    a110:	af420334 	sw	v0,820(k0)
    a114:	8f420334 	lw	v0,820(k0)
    a118:	306200ff 	andi	v0,v1,0xff
    a11c:	1040ff06 	beqz	v0,0x9d38
    a120:	00008021 	move	s0,zero
    a124:	8f430008 	lw	v1,8(k0)
    a128:	2402fbff 	li	v0,-1025
    a12c:	1260002d 	beqz	s3,0xa1e4
    a130:	00625024 	and	t2,v1,v0
    a134:	3c0b4000 	lui	t3,0x4000
    a138:	022b4025 	or	t0,s1,t3
    a13c:	8fb1008c 	lw	s1,140(sp)
    a140:	2669ffff 	addiu	t1,s3,-1
    a144:	02209021 	move	s2,s1
    a148:	8e420008 	lw	v0,8(s2)
    a14c:	96270018 	lhu	a3,24(s1)
    a150:	8c440000 	lw	a0,0(v0)
    a154:	8c450004 	lw	a1,4(v0)
    a158:	56090004 	bnel	s0,t1,0xa16c
    a15c:	240b0001 	li	t3,1
    a160:	240c0002 	li	t4,2
    a164:	10000002 	b	0xa170
    a168:	afac0010 	sw	t4,16(sp)
    a16c:	afab0010 	sw	t3,16(sp)
    a170:	16000004 	bnez	s0,0xa184
    a174:	afa80014 	sw	t0,20(sp)
    a178:	8f420008 	lw	v0,8(k0)
    a17c:	10000002 	b	0xa188
    a180:	afa20018 	sw	v0,24(sp)
    a184:	afaa0018 	sw	t2,24(sp)
    a188:	8f42010c 	lw	v0,268(k0)
    a18c:	03c03021 	move	a2,s8
    a190:	afa80098 	sw	t0,152(sp)
    a194:	afa9009c 	sw	t1,156(sp)
    a198:	0040f809 	jalr	v0
    a19c:	afaa00a0 	sw	t2,160(sp)
    a1a0:	8fa80098 	lw	t0,152(sp)
    a1a4:	8fa9009c 	lw	t1,156(sp)
    a1a8:	8faa00a0 	lw	t2,160(sp)
    a1ac:	1040ffc2 	beqz	v0,0xa0b8
    a1b0:	3c02001f 	lui	v0,0x1f
    a1b4:	96230018 	lhu	v1,24(s1)
    a1b8:	3442ffff 	ori	v0,v0,0xffff
    a1bc:	03c3f021 	addu	s8,s8,v1
    a1c0:	005e102b 	sltu	v0,v0,s8
    a1c4:	10400003 	beqz	v0,0xa1d4
    a1c8:	26310002 	addiu	s1,s1,2
    a1cc:	8f420148 	lw	v0,328(k0)
    a1d0:	03c2f023 	subu	s8,s8,v0
    a1d4:	26100001 	addiu	s0,s0,1
    a1d8:	0213102b 	sltu	v0,s0,s3
    a1dc:	1440ffda 	bnez	v0,0xa148
    a1e0:	26520004 	addiu	s2,s2,4
    a1e4:	8fb00064 	lw	s0,100(sp)
    a1e8:	1000001a 	b	0xa254
    a1ec:	00000000 	nop
    a1f0:	96a3000a 	lhu	v1,10(s5)
    a1f4:	8fb00064 	lw	s0,100(sp)
    a1f8:	0070102b 	sltu	v0,v1,s0
    a1fc:	54400001 	bnezl	v0,0xa204
    a200:	00608021 	move	s0,v1
    a204:	8ea40000 	lw	a0,0(s5)
    a208:	8ea50004 	lw	a1,4(s5)
    a20c:	8fab005c 	lw	t3,92(sp)
    a210:	240c0002 	li	t4,2
    a214:	afac0010 	sw	t4,16(sp)
    a218:	934305c4 	lbu	v1,1476(k0)
    a21c:	000b1700 	sll	v0,t3,0x1c
    a220:	10600003 	beqz	v1,0xa230
    a224:	02223025 	or	a2,s1,v0
    a228:	3c020800 	lui	v0,0x800
    a22c:	00c23025 	or	a2,a2,v0
    a230:	afa60014 	sw	a2,20(sp)
    a234:	8f420008 	lw	v0,8(k0)
    a238:	afa20018 	sw	v0,24(sp)
    a23c:	8f42010c 	lw	v0,268(k0)
    a240:	03c03021 	move	a2,s8
    a244:	0040f809 	jalr	v0
    a248:	02003821 	move	a3,s0
    a24c:	1040fecb 	beqz	v0,0x9d7c
    a250:	3c050007 	lui	a1,0x7
    a254:	97ac0076 	lhu	t4,118(sp)
    a258:	11800007 	beqz	t4,0xa278
    a25c:	96a3000e 	lhu	v1,14(s5)
    a260:	934205c4 	lbu	v0,1476(k0)
    a264:	14400004 	bnez	v0,0xa278
    a268:	00000000 	nop
    a26c:	97ab007e 	lhu	t3,126(sp)
    a270:	006c1825 	or	v1,v1,t4
    a274:	a6ab0016 	sh	t3,22(s5)
    a278:	8fac006c 	lw	t4,108(sp)
    a27c:	3c02ffff 	lui	v0,0xffff
    a280:	01821024 	and	v0,t4,v0
    a284:	10400003 	beqz	v0,0xa294
    a288:	000c1402 	srl	v0,t4,0x10
    a28c:	34630400 	ori	v1,v1,0x400
    a290:	a6a20014 	sh	v0,20(s5)
    a294:	a6b0000a 	sh	s0,10(s5)
    a298:	8fab0064 	lw	t3,100(sp)
    a29c:	560b0006 	bnel	s0,t3,0xa2b8
    a2a0:	03d0f021 	addu	s8,s8,s0
    a2a4:	34620004 	ori	v0,v1,0x4
    a2a8:	afa00064 	sw	zero,100(sp)
    a2ac:	a6a2000e 	sh	v0,14(s5)
    a2b0:	1000000d 	b	0xa2e8
    a2b4:	a34005c4 	sb	zero,1476(k0)
    a2b8:	8fac0064 	lw	t4,100(sp)
    a2bc:	3c02001f 	lui	v0,0x1f
    a2c0:	3442ffff 	ori	v0,v0,0xffff
    a2c4:	005e102b 	sltu	v0,v0,s8
    a2c8:	01906023 	subu	t4,t4,s0
    a2cc:	afac0064 	sw	t4,100(sp)
    a2d0:	a6a3000e 	sh	v1,14(s5)
    a2d4:	240b0001 	li	t3,1
    a2d8:	10400003 	beqz	v0,0xa2e8
    a2dc:	a34b05c4 	sb	t3,1476(k0)
    a2e0:	8f420148 	lw	v0,328(k0)
    a2e4:	03c2f023 	subu	s8,s8,v0
    a2e8:	8fab0054 	lw	t3,84(sp)
    a2ec:	8fac004c 	lw	t4,76(sp)
    a2f0:	ad8b0000 	sw	t3,0(t4)
    a2f4:	8fac0064 	lw	t4,100(sp)
    a2f8:	1580feba 	bnez	t4,0x9de4
    a2fc:	00000000 	nop
    a300:	8fab0064 	lw	t3,100(sp)
    a304:	1160001b 	beqz	t3,0xa374
    a308:	00000000 	nop
    a30c:	934205c4 	lbu	v0,1476(k0)
    a310:	10400006 	beqz	v0,0xa32c
    a314:	00000000 	nop
    a318:	af5e00c4 	sw	s8,196(k0)
    a31c:	af4b00c0 	sw	t3,192(k0)
    a320:	8fac006c 	lw	t4,108(sp)
    a324:	1000000e 	b	0xa360
    a328:	af4c00c8 	sw	t4,200(k0)
    a32c:	97ab0076 	lhu	t3,118(sp)
    a330:	1160000b 	beqz	t3,0xa360
    a334:	34038100 	li	v1,0x8100
    a338:	8fa20020 	lw	v0,32(sp)
    a33c:	8c46000c 	lw	a2,12(v0)
    a340:	a443000c 	sh	v1,12(v0)
    a344:	97ac007e 	lhu	t4,126(sp)
    a348:	8c440004 	lw	a0,4(v0)
    a34c:	8c450008 	lw	a1,8(v0)
    a350:	a44c000e 	sh	t4,14(v0)
    a354:	ac440000 	sw	a0,0(v0)
    a358:	ac450004 	sw	a1,4(v0)
    a35c:	ac460008 	sw	a2,8(v0)
    a360:	8f42034c 	lw	v0,844(k0)
    a364:	24420001 	addiu	v0,v0,1
    a368:	af42034c 	sw	v0,844(k0)
    a36c:	10000010 	b	0xa3b0
    a370:	8f42034c 	lw	v0,844(k0)
    a374:	8fab006c 	lw	t3,108(sp)
    a378:	3164ffff 	andi	a0,t3,0xffff
    a37c:	2484fffc 	addiu	a0,a0,-4
    a380:	00801821 	move	v1,a0
    a384:	8f440250 	lw	a0,592(k0)
    a388:	8f450254 	lw	a1,596(k0)
    a38c:	8f460118 	lw	a2,280(k0)
    a390:	00001021 	move	v0,zero
    a394:	00a32821 	addu	a1,a1,v1
    a398:	00a3382b 	sltu	a3,a1,v1
    a39c:	00822021 	addu	a0,a0,v0
    a3a0:	00872021 	addu	a0,a0,a3
    a3a4:	af440250 	sw	a0,592(k0)
    a3a8:	00c0f809 	jalr	a2
    a3ac:	af450254 	sw	a1,596(k0)
    a3b0:	8fbf00c0 	lw	ra,192(sp)
    a3b4:	8fbe00bc 	lw	s8,188(sp)
    a3b8:	8fb500b8 	lw	s5,184(sp)
    a3bc:	8fb300b4 	lw	s3,180(sp)
    a3c0:	8fb200b0 	lw	s2,176(sp)
    a3c4:	8fb100ac 	lw	s1,172(sp)
    a3c8:	8fb000a8 	lw	s0,168(sp)
    a3cc:	03e00008 	jr	ra
    a3d0:	27bd00c8 	addiu	sp,sp,200
    a3d4:	03e00008 	jr	ra
    a3d8:	00000000 	nop
    a3dc:	27bdffd8 	addiu	sp,sp,-40
    a3e0:	afbf0024 	sw	ra,36(sp)
    a3e4:	afb00020 	sw	s0,32(sp)
    a3e8:	8f43004c 	lw	v1,76(k0)
    a3ec:	8f420048 	lw	v0,72(k0)
    a3f0:	10620034 	beq	v1,v0,0xa4c4
    a3f4:	00000000 	nop
    a3f8:	8f430048 	lw	v1,72(k0)
    a3fc:	8f42004c 	lw	v0,76(k0)
    a400:	00622023 	subu	a0,v1,v0
    a404:	04820001 	bltzl	a0,0xa40c
    a408:	24840200 	addiu	a0,a0,512
    a40c:	8f430054 	lw	v1,84(k0)
    a410:	8f42004c 	lw	v0,76(k0)
    a414:	0043102b 	sltu	v0,v0,v1
    a418:	14400004 	bnez	v0,0xa42c
    a41c:	24020200 	li	v0,512
    a420:	8f43004c 	lw	v1,76(k0)
    a424:	10000005 	b	0xa43c
    a428:	00431023 	subu	v0,v0,v1
    a42c:	8f420054 	lw	v0,84(k0)
    a430:	8f43004c 	lw	v1,76(k0)
    a434:	00431023 	subu	v0,v0,v1
    a438:	2442ffff 	addiu	v0,v0,-1
    a43c:	00405021 	move	t2,v0
    a440:	008a102a 	slt	v0,a0,t2
    a444:	54400001 	bnezl	v0,0xa44c
    a448:	00805021 	move	t2,a0
    a44c:	8f49004c 	lw	t1,76(k0)
    a450:	8f48004c 	lw	t0,76(k0)
    a454:	8f440188 	lw	a0,392(k0)
    a458:	8f45018c 	lw	a1,396(k0)
    a45c:	8f46004c 	lw	a2,76(k0)
    a460:	24071000 	li	a3,4096
    a464:	afa70010 	sw	a3,16(sp)
    a468:	00084140 	sll	t0,t0,0x5
    a46c:	01001821 	move	v1,t0
    a470:	012a4821 	addu	t1,t1,t2
    a474:	313001ff 	andi	s0,t1,0x1ff
    a478:	afb00014 	sw	s0,20(sp)
    a47c:	8f470014 	lw	a3,20(k0)
    a480:	00001021 	move	v0,zero
    a484:	00063140 	sll	a2,a2,0x5
    a488:	afa70018 	sw	a3,24(sp)
    a48c:	00a32821 	addu	a1,a1,v1
    a490:	00a3382b 	sltu	a3,a1,v1
    a494:	00822021 	addu	a0,a0,v0
    a498:	00872021 	addu	a0,a0,a3
    a49c:	3402ecc0 	li	v0,0xecc0
    a4a0:	00c23021 	addu	a2,a2,v0
    a4a4:	8f420108 	lw	v0,264(k0)
    a4a8:	02e63021 	addu	a2,s7,a2
    a4ac:	0040f809 	jalr	v0
    a4b0:	000a3940 	sll	a3,t2,0x5
    a4b4:	54400001 	bnezl	v0,0xa4bc
    a4b8:	af50004c 	sw	s0,76(k0)
    a4bc:	8f43004c 	lw	v1,76(k0)
    a4c0:	8f420048 	lw	v0,72(k0)
    a4c4:	14620018 	bne	v1,v0,0xa528
    a4c8:	00000000 	nop
    a4cc:	8f420000 	lw	v0,0(k0)
    a4d0:	10400007 	beqz	v0,0xa4f0
    a4d4:	00000000 	nop
    a4d8:	af80004c 	sw	zero,76(gp)
    a4dc:	8f82004c 	lw	v0,76(gp)
    a4e0:	1040fffd 	beqz	v0,0xa4d8
    a4e4:	00000000 	nop
    a4e8:	10000005 	b	0xa500
    a4ec:	00000000 	nop
    a4f0:	af800048 	sw	zero,72(gp)
    a4f4:	8f820048 	lw	v0,72(gp)
    a4f8:	1040fffd 	beqz	v0,0xa4f0
    a4fc:	00000000 	nop
    a500:	8f820060 	lw	v0,96(gp)
    a504:	2403fdff 	li	v1,-513
    a508:	00431024 	and	v0,v0,v1
    a50c:	af820060 	sw	v0,96(gp)
    a510:	8f420000 	lw	v0,0(k0)
    a514:	10400003 	beqz	v0,0xa524
    a518:	00000000 	nop
    a51c:	10000002 	b	0xa528
    a520:	af80004c 	sw	zero,76(gp)
    a524:	af800048 	sw	zero,72(gp)
    a528:	8fbf0024 	lw	ra,36(sp)
    a52c:	8fb00020 	lw	s0,32(sp)
    a530:	03e00008 	jr	ra
    a534:	27bd0028 	addiu	sp,sp,40
    a538:	03e00008 	jr	ra
    a53c:	00000000 	nop
    a540:	27bdffd8 	addiu	sp,sp,-40
    a544:	afbf0024 	sw	ra,36(sp)
    a548:	afb00020 	sw	s0,32(sp)
    a54c:	8f43005c 	lw	v1,92(k0)
    a550:	8f420058 	lw	v0,88(k0)
    a554:	10620049 	beq	v1,v0,0xa67c
    a558:	00000000 	nop
    a55c:	8f430058 	lw	v1,88(k0)
    a560:	8f42005c 	lw	v0,92(k0)
    a564:	00622023 	subu	a0,v1,v0
    a568:	04820001 	bltzl	a0,0xa570
    a56c:	24840100 	addiu	a0,a0,256
    a570:	8f430064 	lw	v1,100(k0)
    a574:	8f42005c 	lw	v0,92(k0)
    a578:	0043102b 	sltu	v0,v0,v1
    a57c:	14400004 	bnez	v0,0xa590
    a580:	24020100 	li	v0,256
    a584:	8f43005c 	lw	v1,92(k0)
    a588:	10000005 	b	0xa5a0
    a58c:	00431023 	subu	v0,v0,v1
    a590:	8f420064 	lw	v0,100(k0)
    a594:	8f43005c 	lw	v1,92(k0)
    a598:	00431023 	subu	v0,v0,v1
    a59c:	2442ffff 	addiu	v0,v0,-1
    a5a0:	00403821 	move	a3,v0
    a5a4:	0087102a 	slt	v0,a0,a3
    a5a8:	54400001 	bnezl	v0,0xa5b0
    a5ac:	00803821 	move	a3,a0
    a5b0:	8f42005c 	lw	v0,92(k0)
    a5b4:	00471021 	addu	v0,v0,a3
    a5b8:	305000ff 	andi	s0,v0,0xff
    a5bc:	32c21000 	andi	v0,s6,0x1000
    a5c0:	10400015 	beqz	v0,0xa618
    a5c4:	24082000 	li	t0,8192
    a5c8:	8f49005c 	lw	t1,92(k0)
    a5cc:	8f440190 	lw	a0,400(k0)
    a5d0:	8f450194 	lw	a1,404(k0)
    a5d4:	8f46005c 	lw	a2,92(k0)
    a5d8:	00073980 	sll	a3,a3,0x6
    a5dc:	afa80010 	sw	t0,16(sp)
    a5e0:	afb00014 	sw	s0,20(sp)
    a5e4:	8f480014 	lw	t0,20(k0)
    a5e8:	00094980 	sll	t1,t1,0x6
    a5ec:	01201821 	move	v1,t1
    a5f0:	00001021 	move	v0,zero
    a5f4:	00a32821 	addu	a1,a1,v1
    a5f8:	00a3482b 	sltu	t1,a1,v1
    a5fc:	00822021 	addu	a0,a0,v0
    a600:	00892021 	addu	a0,a0,t1
    a604:	00063180 	sll	a2,a2,0x6
    a608:	afa80018 	sw	t0,24(sp)
    a60c:	8f420108 	lw	v0,264(k0)
    a610:	10000014 	b	0xa664
    a614:	24c60cc0 	addiu	a2,a2,3264
    a618:	8f49005c 	lw	t1,92(k0)
    a61c:	8f440190 	lw	a0,400(k0)
    a620:	8f450194 	lw	a1,404(k0)
    a624:	8f46005c 	lw	a2,92(k0)
    a628:	00073940 	sll	a3,a3,0x5
    a62c:	afa80010 	sw	t0,16(sp)
    a630:	afb00014 	sw	s0,20(sp)
    a634:	8f480014 	lw	t0,20(k0)
    a638:	00094940 	sll	t1,t1,0x5
    a63c:	01201821 	move	v1,t1
    a640:	00001021 	move	v0,zero
    a644:	00a32821 	addu	a1,a1,v1
    a648:	00a3482b 	sltu	t1,a1,v1
    a64c:	00822021 	addu	a0,a0,v0
    a650:	00892021 	addu	a0,a0,t1
    a654:	00063140 	sll	a2,a2,0x5
    a658:	afa80018 	sw	t0,24(sp)
    a65c:	8f420108 	lw	v0,264(k0)
    a660:	24c64cc0 	addiu	a2,a2,19648
    a664:	0040f809 	jalr	v0
    a668:	02e63021 	addu	a2,s7,a2
    a66c:	54400001 	bnezl	v0,0xa674
    a670:	af50005c 	sw	s0,92(k0)
    a674:	8f43005c 	lw	v1,92(k0)
    a678:	8f420058 	lw	v0,88(k0)
    a67c:	14620018 	bne	v1,v0,0xa6e0
    a680:	00000000 	nop
    a684:	8f420000 	lw	v0,0(k0)
    a688:	10400007 	beqz	v0,0xa6a8
    a68c:	00000000 	nop
    a690:	af80004c 	sw	zero,76(gp)
    a694:	8f82004c 	lw	v0,76(gp)
    a698:	1040fffd 	beqz	v0,0xa690
    a69c:	00000000 	nop
    a6a0:	10000005 	b	0xa6b8
    a6a4:	00000000 	nop
    a6a8:	af800048 	sw	zero,72(gp)
    a6ac:	8f820048 	lw	v0,72(gp)
    a6b0:	1040fffd 	beqz	v0,0xa6a8
    a6b4:	00000000 	nop
    a6b8:	8f820060 	lw	v0,96(gp)
    a6bc:	2403feff 	li	v1,-257
    a6c0:	00431024 	and	v0,v0,v1
    a6c4:	af820060 	sw	v0,96(gp)
    a6c8:	8f420000 	lw	v0,0(k0)
    a6cc:	10400003 	beqz	v0,0xa6dc
    a6d0:	00000000 	nop
    a6d4:	10000002 	b	0xa6e0
    a6d8:	af80004c 	sw	zero,76(gp)
    a6dc:	af800048 	sw	zero,72(gp)
    a6e0:	8fbf0024 	lw	ra,36(sp)
    a6e4:	8fb00020 	lw	s0,32(sp)
    a6e8:	03e00008 	jr	ra
    a6ec:	27bd0028 	addiu	sp,sp,40
    a6f0:	03e00008 	jr	ra
    a6f4:	00000000 	nop
    a6f8:	27bdffd8 	addiu	sp,sp,-40
    a6fc:	afbf0024 	sw	ra,36(sp)
    a700:	afb00020 	sw	s0,32(sp)
    a704:	8f43006c 	lw	v1,108(k0)
    a708:	8f420068 	lw	v0,104(k0)
    a70c:	10620033 	beq	v1,v0,0xa7dc
    a710:	00000000 	nop
    a714:	8f430068 	lw	v1,104(k0)
    a718:	8f42006c 	lw	v0,108(k0)
    a71c:	00622023 	subu	a0,v1,v0
    a720:	04820001 	bltzl	a0,0xa728
    a724:	24840400 	addiu	a0,a0,1024
    a728:	8f430074 	lw	v1,116(k0)
    a72c:	8f42006c 	lw	v0,108(k0)
    a730:	0043102b 	sltu	v0,v0,v1
    a734:	14400004 	bnez	v0,0xa748
    a738:	24020400 	li	v0,1024
    a73c:	8f43006c 	lw	v1,108(k0)
    a740:	10000005 	b	0xa758
    a744:	00431023 	subu	v0,v0,v1
    a748:	8f420074 	lw	v0,116(k0)
    a74c:	8f43006c 	lw	v1,108(k0)
    a750:	00431023 	subu	v0,v0,v1
    a754:	2442ffff 	addiu	v0,v0,-1
    a758:	00405021 	move	t2,v0
    a75c:	008a102a 	slt	v0,a0,t2
    a760:	54400001 	bnezl	v0,0xa768
    a764:	00805021 	move	t2,a0
    a768:	8f49006c 	lw	t1,108(k0)
    a76c:	8f48006c 	lw	t0,108(k0)
    a770:	8f440198 	lw	a0,408(k0)
    a774:	8f45019c 	lw	a1,412(k0)
    a778:	8f46006c 	lw	a2,108(k0)
    a77c:	24074000 	li	a3,16384
    a780:	afa70010 	sw	a3,16(sp)
    a784:	00084140 	sll	t0,t0,0x5
    a788:	01001821 	move	v1,t0
    a78c:	012a4821 	addu	t1,t1,t2
    a790:	313003ff 	andi	s0,t1,0x3ff
    a794:	afb00014 	sw	s0,20(sp)
    a798:	8f470014 	lw	a3,20(k0)
    a79c:	00001021 	move	v0,zero
    a7a0:	00063140 	sll	a2,a2,0x5
    a7a4:	24c66cc0 	addiu	a2,a2,27840
    a7a8:	afa70018 	sw	a3,24(sp)
    a7ac:	00a32821 	addu	a1,a1,v1
    a7b0:	00a3382b 	sltu	a3,a1,v1
    a7b4:	00822021 	addu	a0,a0,v0
    a7b8:	00872021 	addu	a0,a0,a3
    a7bc:	8f420108 	lw	v0,264(k0)
    a7c0:	02e63021 	addu	a2,s7,a2
    a7c4:	0040f809 	jalr	v0
    a7c8:	000a3940 	sll	a3,t2,0x5
    a7cc:	54400001 	bnezl	v0,0xa7d4
    a7d0:	af50006c 	sw	s0,108(k0)
    a7d4:	8f43006c 	lw	v1,108(k0)
    a7d8:	8f420068 	lw	v0,104(k0)
    a7dc:	14620018 	bne	v1,v0,0xa840
    a7e0:	00000000 	nop
    a7e4:	8f420000 	lw	v0,0(k0)
    a7e8:	10400007 	beqz	v0,0xa808
    a7ec:	00000000 	nop
    a7f0:	af80004c 	sw	zero,76(gp)
    a7f4:	8f82004c 	lw	v0,76(gp)
    a7f8:	1040fffd 	beqz	v0,0xa7f0
    a7fc:	00000000 	nop
    a800:	10000005 	b	0xa818
    a804:	00000000 	nop
    a808:	af800048 	sw	zero,72(gp)
    a80c:	8f820048 	lw	v0,72(gp)
    a810:	1040fffd 	beqz	v0,0xa808
    a814:	00000000 	nop
    a818:	8f820060 	lw	v0,96(gp)
    a81c:	2403f7ff 	li	v1,-2049
    a820:	00431024 	and	v0,v0,v1
    a824:	af820060 	sw	v0,96(gp)
    a828:	8f420000 	lw	v0,0(k0)
    a82c:	10400003 	beqz	v0,0xa83c
    a830:	00000000 	nop
    a834:	10000002 	b	0xa840
    a838:	af80004c 	sw	zero,76(gp)
    a83c:	af800048 	sw	zero,72(gp)
    a840:	8fbf0024 	lw	ra,36(sp)
    a844:	8fb00020 	lw	s0,32(sp)
    a848:	03e00008 	jr	ra
    a84c:	27bd0028 	addiu	sp,sp,40
    a850:	03e00008 	jr	ra
    a854:	00000000 	nop
    a858:	8f4200fc 	lw	v0,252(k0)
    a85c:	3c030001 	lui	v1,0x1
    a860:	8f4400f8 	lw	a0,248(k0)
    a864:	346330c8 	ori	v1,v1,0x30c8
    a868:	24420001 	addiu	v0,v0,1
    a86c:	af4200fc 	sw	v0,252(k0)
    a870:	8f850128 	lw	a1,296(gp)
    a874:	02e31021 	addu	v0,s7,v1
    a878:	54820004 	bnel	a0,v0,0xa88c
    a87c:	24820008 	addiu	v0,a0,8
    a880:	3c020001 	lui	v0,0x1
    a884:	34422ec8 	ori	v0,v0,0x2ec8
    a888:	02e21021 	addu	v0,s7,v0
    a88c:	00401821 	move	v1,v0
    a890:	af4300f8 	sw	v1,248(k0)
    a894:	ac600000 	sw	zero,0(v1)
    a898:	8f4200f4 	lw	v0,244(k0)
    a89c:	14620004 	bne	v1,v0,0xa8b0
    a8a0:	3c020001 	lui	v0,0x1
    a8a4:	24a20020 	addiu	v0,a1,32
    a8a8:	1000000f 	b	0xa8e8
    a8ac:	af820128 	sw	v0,296(gp)
    a8b0:	8f4300f8 	lw	v1,248(k0)
    a8b4:	344230c8 	ori	v0,v0,0x30c8
    a8b8:	02e21021 	addu	v0,s7,v0
    a8bc:	54620004 	bnel	v1,v0,0xa8d0
    a8c0:	24620008 	addiu	v0,v1,8
    a8c4:	3c020001 	lui	v0,0x1
    a8c8:	34422ec8 	ori	v0,v0,0x2ec8
    a8cc:	02e21021 	addu	v0,s7,v0
    a8d0:	00401821 	move	v1,v0
    a8d4:	8c620004 	lw	v0,4(v1)
    a8d8:	00021140 	sll	v0,v0,0x5
    a8dc:	00a21021 	addu	v0,a1,v0
    a8e0:	af820128 	sw	v0,296(gp)
    a8e4:	ac600000 	sw	zero,0(v1)
    a8e8:	8ca30018 	lw	v1,24(a1)
    a8ec:	30620070 	andi	v0,v1,0x70
    a8f0:	1040002d 	beqz	v0,0xa9a8
    a8f4:	30620020 	andi	v0,v1,0x20
    a8f8:	10400004 	beqz	v0,0xa90c
    a8fc:	3c020010 	lui	v0,0x10
    a900:	02c21024 	and	v0,s6,v0
    a904:	1040000d 	beqz	v0,0xa93c
    a908:	00000000 	nop
    a90c:	30620040 	andi	v0,v1,0x40
    a910:	10400004 	beqz	v0,0xa924
    a914:	3c020020 	lui	v0,0x20
    a918:	02c21024 	and	v0,s6,v0
    a91c:	10400007 	beqz	v0,0xa93c
    a920:	00000000 	nop
    a924:	30620010 	andi	v0,v1,0x10
    a928:	1040001f 	beqz	v0,0xa9a8
    a92c:	3c020040 	lui	v0,0x40
    a930:	02c21024 	and	v0,s6,v0
    a934:	1440001c 	bnez	v0,0xa9a8
    a938:	00000000 	nop
    a93c:	8f820040 	lw	v0,64(gp)
    a940:	30420001 	andi	v0,v0,0x1
    a944:	14400008 	bnez	v0,0xa968
    a948:	00002021 	move	a0,zero
    a94c:	8c030104 	lw	v1,260(zero)
    a950:	24020001 	li	v0,1
    a954:	50620005 	beql	v1,v0,0xa96c
    a958:	24040001 	li	a0,1
    a95c:	8c020264 	lw	v0,612(zero)
    a960:	10400003 	beqz	v0,0xa970
    a964:	00801021 	move	v0,a0
    a968:	24040001 	li	a0,1
    a96c:	00801021 	move	v0,a0
    a970:	10400006 	beqz	v0,0xa98c
    a974:	00000000 	nop
    a978:	8f42030c 	lw	v0,780(k0)
    a97c:	24420001 	addiu	v0,v0,1
    a980:	af42030c 	sw	v0,780(k0)
    a984:	10000008 	b	0xa9a8
    a988:	8f42030c 	lw	v0,780(k0)
    a98c:	8f820044 	lw	v0,68(gp)
    a990:	34420004 	ori	v0,v0,0x4
    a994:	af820044 	sw	v0,68(gp)
    a998:	8f420308 	lw	v0,776(k0)
    a99c:	24420001 	addiu	v0,v0,1
    a9a0:	af420308 	sw	v0,776(k0)
    a9a4:	8f420308 	lw	v0,776(k0)
    a9a8:	03e00008 	jr	ra
    a9ac:	00000000 	nop
    a9b0:	03e00008 	jr	ra
    a9b4:	00000000 	nop
    a9b8:	27bdff98 	addiu	sp,sp,-104
    a9bc:	afbf0060 	sw	ra,96(sp)
    a9c0:	afbe005c 	sw	s8,92(sp)
    a9c4:	afb50058 	sw	s5,88(sp)
    a9c8:	afb30054 	sw	s3,84(sp)
    a9cc:	afb20050 	sw	s2,80(sp)
    a9d0:	afb1004c 	sw	s1,76(sp)
    a9d4:	afb00048 	sw	s0,72(sp)
    a9d8:	8f4200fc 	lw	v0,252(k0)
    a9dc:	24420001 	addiu	v0,v0,1
    a9e0:	af4200fc 	sw	v0,252(k0)
    a9e4:	8f880128 	lw	t0,296(gp)
    a9e8:	25020020 	addiu	v0,t0,32
    a9ec:	af820128 	sw	v0,296(gp)
    a9f0:	8d030018 	lw	v1,24(t0)
    a9f4:	30620070 	andi	v0,v1,0x70
    a9f8:	1040002e 	beqz	v0,0xaab4
    a9fc:	30620020 	andi	v0,v1,0x20
    aa00:	10400004 	beqz	v0,0xaa14
    aa04:	3c020010 	lui	v0,0x10
    aa08:	02c21024 	and	v0,s6,v0
    aa0c:	1040000d 	beqz	v0,0xaa44
    aa10:	00000000 	nop
    aa14:	30620040 	andi	v0,v1,0x40
    aa18:	10400004 	beqz	v0,0xaa2c
    aa1c:	3c020020 	lui	v0,0x20
    aa20:	02c21024 	and	v0,s6,v0
    aa24:	10400007 	beqz	v0,0xaa44
    aa28:	00000000 	nop
    aa2c:	30620010 	andi	v0,v1,0x10
    aa30:	104001a9 	beqz	v0,0xb0d8
    aa34:	3c020040 	lui	v0,0x40
    aa38:	02c21024 	and	v0,s6,v0
    aa3c:	144001a6 	bnez	v0,0xb0d8
    aa40:	00000000 	nop
    aa44:	8f820040 	lw	v0,64(gp)
    aa48:	30420001 	andi	v0,v0,0x1
    aa4c:	14400008 	bnez	v0,0xaa70
    aa50:	00002021 	move	a0,zero
    aa54:	8c030104 	lw	v1,260(zero)
    aa58:	24020001 	li	v0,1
    aa5c:	50620005 	beql	v1,v0,0xaa74
    aa60:	24040001 	li	a0,1
    aa64:	8c020264 	lw	v0,612(zero)
    aa68:	10400003 	beqz	v0,0xaa78
    aa6c:	00801021 	move	v0,a0
    aa70:	24040001 	li	a0,1
    aa74:	00801021 	move	v0,a0
    aa78:	10400006 	beqz	v0,0xaa94
    aa7c:	00000000 	nop
    aa80:	8f42030c 	lw	v0,780(k0)
    aa84:	24420001 	addiu	v0,v0,1
    aa88:	af42030c 	sw	v0,780(k0)
    aa8c:	10000192 	b	0xb0d8
    aa90:	8f42030c 	lw	v0,780(k0)
    aa94:	8f820044 	lw	v0,68(gp)
    aa98:	34420004 	ori	v0,v0,0x4
    aa9c:	af820044 	sw	v0,68(gp)
    aaa0:	8f420308 	lw	v0,776(k0)
    aaa4:	24420001 	addiu	v0,v0,1
    aaa8:	af420308 	sw	v0,776(k0)
    aaac:	1000018a 	b	0xb0d8
    aab0:	8f420308 	lw	v0,776(k0)
    aab4:	30620002 	andi	v0,v1,0x2
    aab8:	1040014b 	beqz	v0,0xafe8
    aabc:	3c020800 	lui	v0,0x800
    aac0:	8d1e001c 	lw	s8,28(t0)
    aac4:	001e5702 	srl	t2,s8,0x1c
    aac8:	afaa0034 	sw	t2,52(sp)
    aacc:	950a0016 	lhu	t2,22(t0)
    aad0:	03c22024 	and	a0,s8,v0
    aad4:	afaa0024 	sw	t2,36(sp)
    aad8:	8faa0034 	lw	t2,52(sp)
    aadc:	24020001 	li	v0,1
    aae0:	15420006 	bne	t2,v0,0xaafc
    aae4:	33deffff 	andi	s8,s8,0xffff
    aae8:	001e1140 	sll	v0,s8,0x5
    aaec:	3403ecc0 	li	v1,0xecc0
    aaf0:	00431021 	addu	v0,v0,v1
    aaf4:	10000010 	b	0xab38
    aaf8:	02e2a821 	addu	s5,s7,v0
    aafc:	24020002 	li	v0,2
    ab00:	15420005 	bne	t2,v0,0xab18
    ab04:	24020003 	li	v0,3
    ab08:	001e1140 	sll	v0,s8,0x5
    ab0c:	24426cc0 	addiu	v0,v0,27840
    ab10:	10000009 	b	0xab38
    ab14:	02e2a821 	addu	s5,s7,v0
    ab18:	15420005 	bne	t2,v0,0xab30
    ab1c:	001e1180 	sll	v0,s8,0x6
    ab20:	001e1140 	sll	v0,s8,0x5
    ab24:	24424cc0 	addiu	v0,v0,19648
    ab28:	10000003 	b	0xab38
    ab2c:	02e2a821 	addu	s5,s7,v0
    ab30:	00571021 	addu	v0,v0,s7
    ab34:	24550ce0 	addiu	s5,v0,3296
    ab38:	96a2000e 	lhu	v0,14(s5)
    ab3c:	304afffc 	andi	t2,v0,0xfffc
    ab40:	30420400 	andi	v0,v0,0x400
    ab44:	10400003 	beqz	v0,0xab54
    ab48:	afaa002c 	sw	t2,44(sp)
    ab4c:	100000e1 	b	0xaed4
    ab50:	00008821 	move	s1,zero
    ab54:	10800004 	beqz	a0,0xab68
    ab58:	00008821 	move	s1,zero
    ab5c:	97b10026 	lhu	s1,38(sp)
    ab60:	100000dd 	b	0xaed8
    ab64:	a6b10012 	sh	s1,18(s5)
    ab68:	8eb30018 	lw	s3,24(s5)
    ab6c:	966a000c 	lhu	t2,12(s3)
    ab70:	a7aa003e 	sh	t2,62(sp)
    ab74:	97a5003e 	lhu	a1,62(sp)
    ab78:	2ca305dd 	sltiu	v1,a1,1501
    ab7c:	38a28870 	xori	v0,a1,0x8870
    ab80:	2c420001 	sltiu	v0,v0,1
    ab84:	00621825 	or	v1,v1,v0
    ab88:	10600015 	beqz	v1,0xabe0
    ab8c:	00002021 	move	a0,zero
    ab90:	32c20800 	andi	v0,s6,0x800
    ab94:	10400015 	beqz	v0,0xabec
    ab98:	24020800 	li	v0,2048
    ab9c:	96630014 	lhu	v1,20(s3)
    aba0:	14620012 	bne	v1,v0,0xabec
    aba4:	3402aaaa 	li	v0,0xaaaa
    aba8:	9663000e 	lhu	v1,14(s3)
    abac:	14620007 	bne	v1,v0,0xabcc
    abb0:	00002821 	move	a1,zero
    abb4:	96630010 	lhu	v1,16(s3)
    abb8:	24020300 	li	v0,768
    abbc:	14620004 	bne	v1,v0,0xabd0
    abc0:	00a01021 	move	v0,a1
    abc4:	96620012 	lhu	v0,18(s3)
    abc8:	2c450001 	sltiu	a1,v0,1
    abcc:	00a01021 	move	v0,a1
    abd0:	54400006 	bnezl	v0,0xabec
    abd4:	24040016 	li	a0,22
    abd8:	10000004 	b	0xabec
    abdc:	00000000 	nop
    abe0:	24020800 	li	v0,2048
    abe4:	50a20001 	beql	a1,v0,0xabec
    abe8:	2404000e 	li	a0,14
    abec:	108000b9 	beqz	a0,0xaed4
    abf0:	02649021 	addu	s2,s3,a0
    abf4:	92420000 	lbu	v0,0(s2)
    abf8:	3042000f 	andi	v0,v0,0xf
    abfc:	00028080 	sll	s0,v0,0x2
    ac00:	32c20100 	andi	v0,s6,0x100
    ac04:	10400020 	beqz	v0,0xac88
    ac08:	02501821 	addu	v1,s2,s0
    ac0c:	3c020020 	lui	v0,0x20
    ac10:	0043102b 	sltu	v0,v0,v1
    ac14:	1440000e 	bnez	v0,0xac50
    ac18:	02402021 	move	a0,s2
    ac1c:	00002821 	move	a1,zero
    ac20:	94820000 	lhu	v0,0(a0)
    ac24:	24840002 	addiu	a0,a0,2
    ac28:	00a22821 	addu	a1,a1,v0
    ac2c:	0083102b 	sltu	v0,a0,v1
    ac30:	1440fffb 	bnez	v0,0xac20
    ac34:	30a2ffff 	andi	v0,a1,0xffff
    ac38:	00051c02 	srl	v1,a1,0x10
    ac3c:	00622821 	addu	a1,v1,v0
    ac40:	00051c02 	srl	v1,a1,0x10
    ac44:	30a2ffff 	andi	v0,a1,0xffff
    ac48:	10000009 	b	0xac70
    ac4c:	00622821 	addu	a1,v1,v0
    ac50:	8f470148 	lw	a3,328(k0)
    ac54:	8f420110 	lw	v0,272(k0)
    ac58:	00102842 	srl	a1,s0,0x1
    ac5c:	3c060020 	lui	a2,0x20
    ac60:	0040f809 	jalr	v0
    ac64:	afa80040 	sw	t0,64(sp)
    ac68:	3045ffff 	andi	a1,v0,0xffff
    ac6c:	8fa80040 	lw	t0,64(sp)
    ac70:	50a00001 	beqzl	a1,0xac78
    ac74:	3405ffff 	li	a1,0xffff
    ac78:	8faa002c 	lw	t2,44(sp)
    ac7c:	354a0002 	ori	t2,t2,0x2
    ac80:	10000002 	b	0xac8c
    ac84:	afaa002c 	sw	t2,44(sp)
    ac88:	00002821 	move	a1,zero
    ac8c:	32c20080 	andi	v0,s6,0x80
    ac90:	10400090 	beqz	v0,0xaed4
    ac94:	a6a50010 	sh	a1,16(s5)
    ac98:	26430009 	addiu	v1,s2,9
    ac9c:	3c02001f 	lui	v0,0x1f
    aca0:	3442ffff 	ori	v0,v0,0xffff
    aca4:	0043102b 	sltu	v0,v0,v1
    aca8:	10400003 	beqz	v0,0xacb8
    acac:	00000000 	nop
    acb0:	8f420148 	lw	v0,328(k0)
    acb4:	00621823 	subu	v1,v1,v0
    acb8:	90660000 	lbu	a2,0(v1)
    acbc:	30c200ff 	andi	v0,a2,0xff
    acc0:	38430006 	xori	v1,v0,0x6
    acc4:	2c630001 	sltiu	v1,v1,1
    acc8:	38420011 	xori	v0,v0,0x11
    accc:	2c420001 	sltiu	v0,v0,1
    acd0:	00621825 	or	v1,v1,v0
    acd4:	1060007f 	beqz	v1,0xaed4
    acd8:	24020800 	li	v0,2048
    acdc:	00008821 	move	s1,zero
    ace0:	97a3003e 	lhu	v1,62(sp)
    ace4:	1462000f 	bne	v1,v0,0xad24
    ace8:	02602021 	move	a0,s3
    acec:	96710000 	lhu	s1,0(s3)
    acf0:	96620002 	lhu	v0,2(s3)
    acf4:	96630004 	lhu	v1,4(s3)
    acf8:	96640006 	lhu	a0,6(s3)
    acfc:	02228821 	addu	s1,s1,v0
    ad00:	02238821 	addu	s1,s1,v1
    ad04:	02248821 	addu	s1,s1,a0
    ad08:	96620008 	lhu	v0,8(s3)
    ad0c:	9663000a 	lhu	v1,10(s3)
    ad10:	9664000c 	lhu	a0,12(s3)
    ad14:	02228821 	addu	s1,s1,v0
    ad18:	02238821 	addu	s1,s1,v1
    ad1c:	10000007 	b	0xad3c
    ad20:	02248821 	addu	s1,s1,a0
    ad24:	94820000 	lhu	v0,0(a0)
    ad28:	24840002 	addiu	a0,a0,2
    ad2c:	02228821 	addu	s1,s1,v0
    ad30:	0092102b 	sltu	v0,a0,s2
    ad34:	1440fffb 	bnez	v0,0xad24
    ad38:	00000000 	nop
    ad3c:	00111c02 	srl	v1,s1,0x10
    ad40:	3222ffff 	andi	v0,s1,0xffff
    ad44:	00628821 	addu	s1,v1,v0
    ad48:	00111c02 	srl	v1,s1,0x10
    ad4c:	3222ffff 	andi	v0,s1,0xffff
    ad50:	00628821 	addu	s1,v1,v0
    ad54:	32c20200 	andi	v0,s6,0x200
    ad58:	10400003 	beqz	v0,0xad68
    ad5c:	26440006 	addiu	a0,s2,6
    ad60:	1000003e 	b	0xae5c
    ad64:	00008021 	move	s0,zero
    ad68:	3c05001f 	lui	a1,0x1f
    ad6c:	34a5ffff 	ori	a1,a1,0xffff
    ad70:	00a4102b 	sltu	v0,a1,a0
    ad74:	10400003 	beqz	v0,0xad84
    ad78:	00000000 	nop
    ad7c:	8f420148 	lw	v0,328(k0)
    ad80:	00822023 	subu	a0,a0,v0
    ad84:	94820000 	lhu	v0,0(a0)
    ad88:	30421fff 	andi	v0,v0,0x1fff
    ad8c:	10400004 	beqz	v0,0xada0
    ad90:	2644000c 	addiu	a0,s2,12
    ad94:	96420002 	lhu	v0,2(s2)
    ad98:	10000030 	b	0xae5c
    ad9c:	00508023 	subu	s0,v0,s0
    ada0:	96420002 	lhu	v0,2(s2)
    ada4:	26430014 	addiu	v1,s2,20
    ada8:	00508023 	subu	s0,v0,s0
    adac:	3c020020 	lui	v0,0x20
    adb0:	0043102b 	sltu	v0,v0,v1
    adb4:	1440000a 	bnez	v0,0xade0
    adb8:	00d08021 	addu	s0,a2,s0
    adbc:	9642000c 	lhu	v0,12(s2)
    adc0:	02028021 	addu	s0,s0,v0
    adc4:	9642000e 	lhu	v0,14(s2)
    adc8:	96430010 	lhu	v1,16(s2)
    adcc:	96440012 	lhu	a0,18(s2)
    add0:	02028021 	addu	s0,s0,v0
    add4:	02038021 	addu	s0,s0,v1
    add8:	10000020 	b	0xae5c
    addc:	02048021 	addu	s0,s0,a0
    ade0:	00a4102b 	sltu	v0,a1,a0
    ade4:	10400003 	beqz	v0,0xadf4
    ade8:	00000000 	nop
    adec:	8f420148 	lw	v0,328(k0)
    adf0:	00822023 	subu	a0,a0,v0
    adf4:	94820000 	lhu	v0,0(a0)
    adf8:	24840002 	addiu	a0,a0,2
    adfc:	02028021 	addu	s0,s0,v0
    ae00:	00a4102b 	sltu	v0,a1,a0
    ae04:	10400003 	beqz	v0,0xae14
    ae08:	00000000 	nop
    ae0c:	8f420148 	lw	v0,328(k0)
    ae10:	00822023 	subu	a0,a0,v0
    ae14:	94820000 	lhu	v0,0(a0)
    ae18:	24840002 	addiu	a0,a0,2
    ae1c:	02028021 	addu	s0,s0,v0
    ae20:	00a4102b 	sltu	v0,a1,a0
    ae24:	10400003 	beqz	v0,0xae34
    ae28:	00000000 	nop
    ae2c:	8f420148 	lw	v0,328(k0)
    ae30:	00822023 	subu	a0,a0,v0
    ae34:	94820000 	lhu	v0,0(a0)
    ae38:	24840002 	addiu	a0,a0,2
    ae3c:	02028021 	addu	s0,s0,v0
    ae40:	00a4102b 	sltu	v0,a1,a0
    ae44:	10400003 	beqz	v0,0xae54
    ae48:	00000000 	nop
    ae4c:	8f420148 	lw	v0,328(k0)
    ae50:	00822023 	subu	a0,a0,v0
    ae54:	94820000 	lhu	v0,0(a0)
    ae58:	02028021 	addu	s0,s0,v0
    ae5c:	3c020100 	lui	v0,0x100
    ae60:	02c21024 	and	v0,s6,v0
    ae64:	1040000e 	beqz	v0,0xaea0
    ae68:	00000000 	nop
    ae6c:	8faa002c 	lw	t2,44(sp)
    ae70:	31420004 	andi	v0,t2,0x4
    ae74:	1040000a 	beqz	v0,0xaea0
    ae78:	00000000 	nop
    ae7c:	9504000e 	lhu	a0,14(t0)
    ae80:	02642021 	addu	a0,s3,a0
    ae84:	0c003eec 	jal	0xfbb0
    ae88:	2484fffc 	addiu	a0,a0,-4
    ae8c:	3042ffff 	andi	v0,v0,0xffff
    ae90:	02228821 	addu	s1,s1,v0
    ae94:	00111c02 	srl	v1,s1,0x10
    ae98:	3222ffff 	andi	v0,s1,0xffff
    ae9c:	00628821 	addu	s1,v1,v0
    aea0:	8faa0024 	lw	t2,36(sp)
    aea4:	01518823 	subu	s1,t2,s1
    aea8:	00111402 	srl	v0,s1,0x10
    aeac:	02228821 	addu	s1,s1,v0
    aeb0:	02308821 	addu	s1,s1,s0
    aeb4:	00111402 	srl	v0,s1,0x10
    aeb8:	02228821 	addu	s1,s1,v0
    aebc:	3231ffff 	andi	s1,s1,0xffff
    aec0:	52200001 	beqzl	s1,0xaec8
    aec4:	3411ffff 	li	s1,0xffff
    aec8:	8faa002c 	lw	t2,44(sp)
    aecc:	354a0001 	ori	t2,t2,0x1
    aed0:	afaa002c 	sw	t2,44(sp)
    aed4:	a6b10012 	sh	s1,18(s5)
    aed8:	97aa002e 	lhu	t2,46(sp)
    aedc:	a6aa000e 	sh	t2,14(s5)
    aee0:	8faa002c 	lw	t2,44(sp)
    aee4:	31420004 	andi	v0,t2,0x4
    aee8:	10400002 	beqz	v0,0xaef4
    aeec:	24091000 	li	t1,4096
    aef0:	34098000 	li	t1,0x8000
    aef4:	8f480044 	lw	t0,68(k0)
    aef8:	8f4401a0 	lw	a0,416(k0)
    aefc:	8f4501a4 	lw	a1,420(k0)
    af00:	afa90010 	sw	t1,16(sp)
    af04:	8f490044 	lw	t1,68(k0)
    af08:	00084140 	sll	t0,t0,0x5
    af0c:	01001821 	move	v1,t0
    af10:	afa90014 	sw	t1,20(sp)
    af14:	8f48000c 	lw	t0,12(k0)
    af18:	02a03021 	move	a2,s5
    af1c:	24070020 	li	a3,32
    af20:	afa80018 	sw	t0,24(sp)
    af24:	8f48010c 	lw	t0,268(k0)
    af28:	00001021 	move	v0,zero
    af2c:	00a32821 	addu	a1,a1,v1
    af30:	00a3482b 	sltu	t1,a1,v1
    af34:	00822021 	addu	a0,a0,v0
    af38:	0100f809 	jalr	t0
    af3c:	00892021 	addu	a0,a0,t1
    af40:	1440000b 	bnez	v0,0xaf70
    af44:	00000000 	nop
    af48:	8f820128 	lw	v0,296(gp)
    af4c:	3c040001 	lui	a0,0x1
    af50:	24846914 	addiu	a0,a0,26900
    af54:	afbe0014 	sw	s8,20(sp)
    af58:	afa20010 	sw	v0,16(sp)
    af5c:	8f860124 	lw	a2,292(gp)
    af60:	8f870120 	lw	a3,288(gp)
    af64:	3c050007 	lui	a1,0x7
    af68:	0c002b3b 	jal	0xacec
    af6c:	34a59920 	ori	a1,a1,0x9920
    af70:	8f420368 	lw	v0,872(k0)
    af74:	2442ffff 	addiu	v0,v0,-1
    af78:	af420368 	sw	v0,872(k0)
    af7c:	8f420044 	lw	v0,68(k0)
    af80:	8f430088 	lw	v1,136(k0)
    af84:	24420001 	addiu	v0,v0,1
    af88:	00431024 	and	v0,v0,v1
    af8c:	af420044 	sw	v0,68(k0)
    af90:	8faa0034 	lw	t2,52(sp)
    af94:	8f440368 	lw	a0,872(k0)
    af98:	24020001 	li	v0,1
    af9c:	15420006 	bne	t2,v0,0xafb8
    afa0:	24020002 	li	v0,2
    afa4:	8f42035c 	lw	v0,860(k0)
    afa8:	2442ffff 	addiu	v0,v0,-1
    afac:	af42035c 	sw	v0,860(k0)
    afb0:	10000049 	b	0xb0d8
    afb4:	8f42035c 	lw	v0,860(k0)
    afb8:	15420006 	bne	t2,v0,0xafd4
    afbc:	00000000 	nop
    afc0:	8f420364 	lw	v0,868(k0)
    afc4:	2442ffff 	addiu	v0,v0,-1
    afc8:	af420364 	sw	v0,868(k0)
    afcc:	10000042 	b	0xb0d8
    afd0:	8f420364 	lw	v0,868(k0)
    afd4:	8f420360 	lw	v0,864(k0)
    afd8:	2442ffff 	addiu	v0,v0,-1
    afdc:	af420360 	sw	v0,864(k0)
    afe0:	1000003d 	b	0xb0d8
    afe4:	8f420360 	lw	v0,864(k0)
    afe8:	30621000 	andi	v0,v1,0x1000
    afec:	10400005 	beqz	v0,0xb004
    aff0:	30628000 	andi	v0,v1,0x8000
    aff4:	8f420078 	lw	v0,120(k0)
    aff8:	24420001 	addiu	v0,v0,1
    affc:	10000036 	b	0xb0d8
    b000:	af420078 	sw	v0,120(k0)
    b004:	10400034 	beqz	v0,0xb0d8
    b008:	00000000 	nop
    b00c:	8f420078 	lw	v0,120(k0)
    b010:	24420001 	addiu	v0,v0,1
    b014:	af420078 	sw	v0,120(k0)
    b018:	8c030240 	lw	v1,576(zero)
    b01c:	0043102b 	sltu	v0,v0,v1
    b020:	1440002d 	bnez	v0,0xb0d8
    b024:	24070008 	li	a3,8
    b028:	8f440168 	lw	a0,360(k0)
    b02c:	8f45016c 	lw	a1,364(k0)
    b030:	8f430044 	lw	v1,68(k0)
    b034:	8f48000c 	lw	t0,12(k0)
    b038:	8f860120 	lw	a2,288(gp)
    b03c:	24020040 	li	v0,64
    b040:	afa20010 	sw	v0,16(sp)
    b044:	afa30014 	sw	v1,20(sp)
    b048:	afa80018 	sw	t0,24(sp)
    b04c:	8f42010c 	lw	v0,268(k0)
    b050:	0040f809 	jalr	v0
    b054:	24c6001c 	addiu	a2,a2,28
    b058:	14400011 	bnez	v0,0xb0a0
    b05c:	24020001 	li	v0,1
    b060:	3c010001 	lui	at,0x1
    b064:	00370821 	addu	at,at,s7
    b068:	a02240f2 	sb	v0,16626(at)
    b06c:	8f820124 	lw	v0,292(gp)
    b070:	afa20010 	sw	v0,16(sp)
    b074:	8f820128 	lw	v0,296(gp)
    b078:	3c040001 	lui	a0,0x1
    b07c:	2484688c 	addiu	a0,a0,26764
    b080:	afa20014 	sw	v0,20(sp)
    b084:	8f460044 	lw	a2,68(k0)
    b088:	8f870120 	lw	a3,288(gp)
    b08c:	3c050009 	lui	a1,0x9
    b090:	0c002b3b 	jal	0xacec
    b094:	34a51300 	ori	a1,a1,0x1300
    b098:	1000000b 	b	0xb0c8
    b09c:	00000000 	nop
    b0a0:	8f420304 	lw	v0,772(k0)
    b0a4:	24420001 	addiu	v0,v0,1
    b0a8:	af420304 	sw	v0,772(k0)
    b0ac:	8f420304 	lw	v0,772(k0)
    b0b0:	8f420044 	lw	v0,68(k0)
    b0b4:	af42007c 	sw	v0,124(k0)
    b0b8:	3c010001 	lui	at,0x1
    b0bc:	00370821 	addu	at,at,s7
    b0c0:	a02040f2 	sb	zero,16626(at)
    b0c4:	af400078 	sw	zero,120(k0)
    b0c8:	8f420318 	lw	v0,792(k0)
    b0cc:	24420001 	addiu	v0,v0,1
    b0d0:	af420318 	sw	v0,792(k0)
    b0d4:	8f420318 	lw	v0,792(k0)
    b0d8:	8fbf0060 	lw	ra,96(sp)
    b0dc:	8fbe005c 	lw	s8,92(sp)
    b0e0:	8fb50058 	lw	s5,88(sp)
    b0e4:	8fb30054 	lw	s3,84(sp)
    b0e8:	8fb20050 	lw	s2,80(sp)
    b0ec:	8fb1004c 	lw	s1,76(sp)
    b0f0:	8fb00048 	lw	s0,72(sp)
    b0f4:	03e00008 	jr	ra
    b0f8:	27bd0068 	addiu	sp,sp,104
    b0fc:	03e00008 	jr	ra
    b100:	00000000 	nop
	...
    b10c:	8f42013c 	lw	v0,316(k0)
    b110:	af8200c0 	sw	v0,192(gp)
    b114:	8f42013c 	lw	v0,316(k0)
    b118:	af8200c4 	sw	v0,196(gp)
    b11c:	8f42013c 	lw	v0,316(k0)
    b120:	af8200c8 	sw	v0,200(gp)
    b124:	8f420138 	lw	v0,312(k0)
    b128:	af8200d0 	sw	v0,208(gp)
    b12c:	8f420138 	lw	v0,312(k0)
    b130:	af8200d4 	sw	v0,212(gp)
    b134:	8f420138 	lw	v0,312(k0)
    b138:	03e00008 	jr	ra
    b13c:	af8200d8 	sw	v0,216(gp)
    b140:	27bdffe0 	addiu	sp,sp,-32
    b144:	27840208 	addiu	a0,gp,520
    b148:	24050200 	li	a1,512
    b14c:	afbf0018 	sw	ra,24(sp)
    b150:	0c002bbf 	jal	0xaefc
    b154:	24060008 	li	a2,8
    b158:	8c020204 	lw	v0,516(zero)
    b15c:	0c004012 	jal	0x10048
    b160:	af820210 	sw	v0,528(gp)
    b164:	3c020001 	lui	v0,0x1
    b168:	8c426d94 	lw	v0,28052(v0)
    b16c:	30420002 	andi	v0,v0,0x2
    b170:	1040000e 	beqz	v0,0xb1ac
    b174:	00002021 	move	a0,zero
    b178:	8c060248 	lw	a2,584(zero)
    b17c:	24020002 	li	v0,2
    b180:	3c010001 	lui	at,0x1
    b184:	ac226d98 	sw	v0,28056(at)
    b188:	0c005104 	jal	0x14410
    b18c:	24050002 	li	a1,2
    b190:	00002021 	move	a0,zero
    b194:	8c060248 	lw	a2,584(zero)
    b198:	24020001 	li	v0,1
    b19c:	3c010001 	lui	at,0x1
    b1a0:	ac226d98 	sw	v0,28056(at)
    b1a4:	10000011 	b	0xb1ec
    b1a8:	24050001 	li	a1,1
    b1ac:	8c060248 	lw	a2,584(zero)
    b1b0:	24020004 	li	v0,4
    b1b4:	3c010001 	lui	at,0x1
    b1b8:	ac226d98 	sw	v0,28056(at)
    b1bc:	0c005104 	jal	0x14410
    b1c0:	24050004 	li	a1,4
    b1c4:	3c020001 	lui	v0,0x1
    b1c8:	8c426d94 	lw	v0,28052(v0)
    b1cc:	30420001 	andi	v0,v0,0x1
    b1d0:	10400008 	beqz	v0,0xb1f4
    b1d4:	24020001 	li	v0,1
    b1d8:	3c010001 	lui	at,0x1
    b1dc:	ac226d98 	sw	v0,28056(at)
    b1e0:	00002021 	move	a0,zero
    b1e4:	24050001 	li	a1,1
    b1e8:	3c06601b 	lui	a2,0x601b
    b1ec:	0c005104 	jal	0x14410
    b1f0:	00000000 	nop
    b1f4:	3c040001 	lui	a0,0x1
    b1f8:	248469d0 	addiu	a0,a0,27088
    b1fc:	8f420150 	lw	v0,336(k0)
    b200:	8f430154 	lw	v1,340(k0)
    b204:	3c050008 	lui	a1,0x8
    b208:	8f460158 	lw	a2,344(k0)
    b20c:	00021640 	sll	v0,v0,0x19
    b210:	00031940 	sll	v1,v1,0x5
    b214:	34630403 	ori	v1,v1,0x403
    b218:	00431025 	or	v0,v0,v1
    b21c:	000633c0 	sll	a2,a2,0xf
    b220:	00461025 	or	v0,v0,a2
    b224:	af82021c 	sw	v0,540(gp)
    b228:	afa00010 	sw	zero,16(sp)
    b22c:	afa00014 	sw	zero,20(sp)
    b230:	8f86021c 	lw	a2,540(gp)
    b234:	34a50200 	ori	a1,a1,0x200
    b238:	0c002b3b 	jal	0xacec
    b23c:	00003821 	move	a3,zero
    b240:	3c010001 	lui	at,0x1
    b244:	ac206d90 	sw	zero,28048(at)
    b248:	3c010001 	lui	at,0x1
    b24c:	ac206da8 	sw	zero,28072(at)
    b250:	8fbf0018 	lw	ra,24(sp)
    b254:	03e00008 	jr	ra
    b258:	27bd0020 	addiu	sp,sp,32
    b25c:	27bdffe0 	addiu	sp,sp,-32
    b260:	3c050008 	lui	a1,0x8
    b264:	34a50300 	ori	a1,a1,0x300
    b268:	afbf0018 	sw	ra,24(sp)
    b26c:	afa00010 	sw	zero,16(sp)
    b270:	afa00014 	sw	zero,20(sp)
    b274:	8f860200 	lw	a2,512(gp)
    b278:	3c040001 	lui	a0,0x1
    b27c:	248469dc 	addiu	a0,a0,27100
    b280:	0c002b3b 	jal	0xacec
    b284:	00003821 	move	a3,zero
    b288:	8f420410 	lw	v0,1040(k0)
    b28c:	24420001 	addiu	v0,v0,1
    b290:	af420410 	sw	v0,1040(k0)
    b294:	8f420410 	lw	v0,1040(k0)
    b298:	8fbf0018 	lw	ra,24(sp)
    b29c:	03e00008 	jr	ra
    b2a0:	27bd0020 	addiu	sp,sp,32
    b2a4:	27bdffd8 	addiu	sp,sp,-40
    b2a8:	afbf0020 	sw	ra,32(sp)
    b2ac:	afb1001c 	sw	s1,28(sp)
    b2b0:	afb00018 	sw	s0,24(sp)
    b2b4:	8f4203a4 	lw	v0,932(k0)
    b2b8:	24420001 	addiu	v0,v0,1
    b2bc:	af4203a4 	sw	v0,932(k0)
    b2c0:	8f4203a4 	lw	v0,932(k0)
    b2c4:	8f900220 	lw	s0,544(gp)
    b2c8:	8f8200e0 	lw	v0,224(gp)
    b2cc:	afa20010 	sw	v0,16(sp)
    b2d0:	8f8200e4 	lw	v0,228(gp)
    b2d4:	afa20014 	sw	v0,20(sp)
    b2d8:	8f8600c4 	lw	a2,196(gp)
    b2dc:	8f8700c8 	lw	a3,200(gp)
    b2e0:	3c040001 	lui	a0,0x1
    b2e4:	248469e8 	addiu	a0,a0,27112
    b2e8:	0c002b3b 	jal	0xacec
    b2ec:	02002821 	move	a1,s0
    b2f0:	3c044000 	lui	a0,0x4000
    b2f4:	02041024 	and	v0,s0,a0
    b2f8:	504000b4 	beqzl	v0,0xb5cc
    b2fc:	3c040100 	lui	a0,0x100
    b300:	8f4203bc 	lw	v0,956(k0)
    b304:	24420001 	addiu	v0,v0,1
    b308:	af4203bc 	sw	v0,956(k0)
    b30c:	8f4203bc 	lw	v0,956(k0)
    b310:	8f8700c4 	lw	a3,196(gp)
    b314:	8f8300c8 	lw	v1,200(gp)
    b318:	8f420148 	lw	v0,328(k0)
    b31c:	00671823 	subu	v1,v1,a3
    b320:	0043102b 	sltu	v0,v0,v1
    b324:	10400003 	beqz	v0,0xb334
    b328:	00000000 	nop
    b32c:	8f420148 	lw	v0,328(k0)
    b330:	00621821 	addu	v1,v1,v0
    b334:	10600005 	beqz	v1,0xb34c
    b338:	00000000 	nop
    b33c:	8f42014c 	lw	v0,332(k0)
    b340:	0043102b 	sltu	v0,v0,v1
    b344:	1040000b 	beqz	v0,0xb374
    b348:	00000000 	nop
    b34c:	8f8200e0 	lw	v0,224(gp)
    b350:	8f430124 	lw	v1,292(k0)
    b354:	af42011c 	sw	v0,284(k0)
    b358:	af430114 	sw	v1,276(k0)
    b35c:	8f820220 	lw	v0,544(gp)
    b360:	3c0308ff 	lui	v1,0x8ff
    b364:	3463fffb 	ori	v1,v1,0xfffb
    b368:	00431024 	and	v0,v0,v1
    b36c:	100000ce 	b	0xb6a8
    b370:	00441025 	or	v0,v0,a0
    b374:	8f820220 	lw	v0,544(gp)
    b378:	3c0308ff 	lui	v1,0x8ff
    b37c:	3463ffff 	ori	v1,v1,0xffff
    b380:	00431024 	and	v0,v0,v1
    b384:	34420004 	ori	v0,v0,0x4
    b388:	af820220 	sw	v0,544(gp)
    b38c:	8f8200e0 	lw	v0,224(gp)
    b390:	8f430124 	lw	v1,292(k0)
    b394:	af42011c 	sw	v0,284(k0)
    b398:	af430114 	sw	v1,276(k0)
    b39c:	8f8600c8 	lw	a2,200(gp)
    b3a0:	8f840120 	lw	a0,288(gp)
    b3a4:	8f830124 	lw	v1,292(gp)
    b3a8:	10000005 	b	0xb3c0
    b3ac:	00002821 	move	a1,zero
    b3b0:	14620002 	bne	v1,v0,0xb3bc
    b3b4:	24620020 	addiu	v0,v1,32
    b3b8:	27624800 	addiu	v0,k1,18432
    b3bc:	00401821 	move	v1,v0
    b3c0:	1064000c 	beq	v1,a0,0xb3f4
    b3c4:	30a200ff 	andi	v0,a1,0xff
    b3c8:	8c620018 	lw	v0,24(v1)
    b3cc:	30420003 	andi	v0,v0,0x3
    b3d0:	1040fff7 	beqz	v0,0xb3b0
    b3d4:	27624fe0 	addiu	v0,k1,20448
    b3d8:	8f4203d0 	lw	v0,976(k0)
    b3dc:	24050001 	li	a1,1
    b3e0:	24420001 	addiu	v0,v0,1
    b3e4:	af4203d0 	sw	v0,976(k0)
    b3e8:	8f4203d0 	lw	v0,976(k0)
    b3ec:	8c660008 	lw	a2,8(v1)
    b3f0:	30a200ff 	andi	v0,a1,0xff
    b3f4:	14400058 	bnez	v0,0xb558
    b3f8:	00000000 	nop
    b3fc:	934205c4 	lbu	v0,1476(k0)
    b400:	14400055 	bnez	v0,0xb558
    b404:	00000000 	nop
    b408:	8f8700c4 	lw	a3,196(gp)
    b40c:	8f8800e0 	lw	t0,224(gp)
    b410:	8f8400e4 	lw	a0,228(gp)
    b414:	2402fff8 	li	v0,-8
    b418:	01024024 	and	t0,t0,v0
    b41c:	01041023 	subu	v0,t0,a0
    b420:	000218c3 	sra	v1,v0,0x3
    b424:	04620001 	bltzl	v1,0xb42c
    b428:	24630200 	addiu	v1,v1,512
    b42c:	10600005 	beqz	v1,0xb444
    b430:	24020001 	li	v0,1
    b434:	10620009 	beq	v1,v0,0xb45c
    b438:	00000000 	nop
    b43c:	1000001f 	b	0xb4bc
    b440:	00000000 	nop
    b444:	8f4203c0 	lw	v0,960(k0)
    b448:	00e03021 	move	a2,a3
    b44c:	24420001 	addiu	v0,v0,1
    b450:	af4203c0 	sw	v0,960(k0)
    b454:	10000040 	b	0xb558
    b458:	8f4203c0 	lw	v0,960(k0)
    b45c:	8f4203c4 	lw	v0,964(k0)
    b460:	24420001 	addiu	v0,v0,1
    b464:	af4203c4 	sw	v0,964(k0)
    b468:	8c860000 	lw	a2,0(a0)
    b46c:	8f420148 	lw	v0,328(k0)
    b470:	8f4303c4 	lw	v1,964(k0)
    b474:	00e61823 	subu	v1,a3,a2
    b478:	0043102b 	sltu	v0,v0,v1
    b47c:	10400004 	beqz	v0,0xb490
    b480:	2c62233f 	sltiu	v0,v1,9023
    b484:	8f420148 	lw	v0,328(k0)
    b488:	00621821 	addu	v1,v1,v0
    b48c:	2c62233f 	sltiu	v0,v1,9023
    b490:	14400031 	bnez	v0,0xb558
    b494:	00000000 	nop
    b498:	8f42020c 	lw	v0,524(k0)
    b49c:	24420001 	addiu	v0,v0,1
    b4a0:	af42020c 	sw	v0,524(k0)
    b4a4:	8f42020c 	lw	v0,524(k0)
    b4a8:	00e03021 	move	a2,a3
    b4ac:	24820008 	addiu	v0,a0,8
    b4b0:	af8200e4 	sw	v0,228(gp)
    b4b4:	10000028 	b	0xb558
    b4b8:	af8200e8 	sw	v0,232(gp)
    b4bc:	8f4203c8 	lw	v0,968(k0)
    b4c0:	24420001 	addiu	v0,v0,1
    b4c4:	af4203c8 	sw	v0,968(k0)
    b4c8:	8f4203c8 	lw	v0,968(k0)
    b4cc:	8c850000 	lw	a1,0(a0)
    b4d0:	8f420148 	lw	v0,328(k0)
    b4d4:	00a71823 	subu	v1,a1,a3
    b4d8:	0043102b 	sltu	v0,v0,v1
    b4dc:	10400003 	beqz	v0,0xb4ec
    b4e0:	00000000 	nop
    b4e4:	8f420148 	lw	v0,328(k0)
    b4e8:	00621821 	addu	v1,v1,v0
    b4ec:	8f42014c 	lw	v0,332(k0)
    b4f0:	0043102b 	sltu	v0,v0,v1
    b4f4:	5440000a 	bnezl	v0,0xb520
    b4f8:	00a03021 	move	a2,a1
    b4fc:	8f42020c 	lw	v0,524(k0)
    b500:	24420001 	addiu	v0,v0,1
    b504:	af42020c 	sw	v0,524(k0)
    b508:	8f42020c 	lw	v0,524(k0)
    b50c:	24820008 	addiu	v0,a0,8
    b510:	af8200e4 	sw	v0,228(gp)
    b514:	8f8400e4 	lw	a0,228(gp)
    b518:	1488ffec 	bne	a0,t0,0xb4cc
    b51c:	af8400e8 	sw	a0,232(gp)
    b520:	1488000d 	bne	a0,t0,0xb558
    b524:	27623000 	addiu	v0,k1,12288
    b528:	14820002 	bne	a0,v0,0xb534
    b52c:	2482fff8 	addiu	v0,a0,-8
    b530:	27623ff8 	addiu	v0,k1,16376
    b534:	94430006 	lhu	v1,6(v0)
    b538:	3c02001f 	lui	v0,0x1f
    b53c:	3442ffff 	ori	v0,v0,0xffff
    b540:	00c33021 	addu	a2,a2,v1
    b544:	0046102b 	sltu	v0,v0,a2
    b548:	10400003 	beqz	v0,0xb558
    b54c:	00000000 	nop
    b550:	8f420148 	lw	v0,328(k0)
    b554:	00c23023 	subu	a2,a2,v0
    b558:	af8600c8 	sw	a2,200(gp)
    b55c:	8f8300c4 	lw	v1,196(gp)
    b560:	8f420148 	lw	v0,328(k0)
    b564:	00c31823 	subu	v1,a2,v1
    b568:	0043102b 	sltu	v0,v0,v1
    b56c:	10400003 	beqz	v0,0xb57c
    b570:	00000000 	nop
    b574:	8f420148 	lw	v0,328(k0)
    b578:	00621821 	addu	v1,v1,v0
    b57c:	10600005 	beqz	v1,0xb594
    b580:	00000000 	nop
    b584:	8f42014c 	lw	v0,332(k0)
    b588:	0043102b 	sltu	v0,v0,v1
    b58c:	50400008 	beqzl	v0,0xb5b0
    b590:	3c02fdff 	lui	v0,0xfdff
    b594:	8f820220 	lw	v0,544(gp)
    b598:	3c0308ff 	lui	v1,0x8ff
    b59c:	3463fffb 	ori	v1,v1,0xfffb
    b5a0:	00431024 	and	v0,v0,v1
    b5a4:	3c034000 	lui	v1,0x4000
    b5a8:	1000003f 	b	0xb6a8
    b5ac:	00431025 	or	v0,v0,v1
    b5b0:	8f4303cc 	lw	v1,972(k0)
    b5b4:	3442ffff 	ori	v0,v0,0xffff
    b5b8:	0282a024 	and	s4,s4,v0
    b5bc:	24630001 	addiu	v1,v1,1
    b5c0:	af4303cc 	sw	v1,972(k0)
    b5c4:	10000039 	b	0xb6ac
    b5c8:	8f4203cc 	lw	v0,972(k0)
    b5cc:	02041024 	and	v0,s0,a0
    b5d0:	1040000e 	beqz	v0,0xb60c
    b5d4:	3c110200 	lui	s1,0x200
    b5d8:	8f4203a8 	lw	v0,936(k0)
    b5dc:	24420001 	addiu	v0,v0,1
    b5e0:	af4203a8 	sw	v0,936(k0)
    b5e4:	8f4203a8 	lw	v0,936(k0)
    b5e8:	8f820220 	lw	v0,544(gp)
    b5ec:	3c0308ff 	lui	v1,0x8ff
    b5f0:	3463ffff 	ori	v1,v1,0xffff
    b5f4:	00431024 	and	v0,v0,v1
    b5f8:	00441025 	or	v0,v0,a0
    b5fc:	0c003daf 	jal	0xf6bc
    b600:	af820220 	sw	v0,544(gp)
    b604:	10000029 	b	0xb6ac
    b608:	00000000 	nop
    b60c:	02111024 	and	v0,s0,s1
    b610:	50400008 	beqzl	v0,0xb634
    b614:	3c110400 	lui	s1,0x400
    b618:	8f4203ac 	lw	v0,940(k0)
    b61c:	24420001 	addiu	v0,v0,1
    b620:	af4203ac 	sw	v0,940(k0)
    b624:	0c003daf 	jal	0xf6bc
    b628:	8f4203ac 	lw	v0,940(k0)
    b62c:	10000019 	b	0xb694
    b630:	00000000 	nop
    b634:	02111024 	and	v0,s0,s1
    b638:	1040001c 	beqz	v0,0xb6ac
    b63c:	00000000 	nop
    b640:	8f830224 	lw	v1,548(gp)
    b644:	24021402 	li	v0,5122
    b648:	14620009 	bne	v1,v0,0xb670
    b64c:	3c050008 	lui	a1,0x8
    b650:	3c040001 	lui	a0,0x1
    b654:	248469f4 	addiu	a0,a0,27124
    b658:	afa00010 	sw	zero,16(sp)
    b65c:	afa00014 	sw	zero,20(sp)
    b660:	8f860224 	lw	a2,548(gp)
    b664:	34a50500 	ori	a1,a1,0x500
    b668:	0c002b3b 	jal	0xacec
    b66c:	00003821 	move	a3,zero
    b670:	8f4203b0 	lw	v0,944(k0)
    b674:	24420001 	addiu	v0,v0,1
    b678:	af4203b0 	sw	v0,944(k0)
    b67c:	8f4203b0 	lw	v0,944(k0)
    b680:	8f820220 	lw	v0,544(gp)
    b684:	02002021 	move	a0,s0
    b688:	34420002 	ori	v0,v0,0x2
    b68c:	0c004e9c 	jal	0x13a70
    b690:	af820220 	sw	v0,544(gp)
    b694:	8f820220 	lw	v0,544(gp)
    b698:	3c0308ff 	lui	v1,0x8ff
    b69c:	3463ffff 	ori	v1,v1,0xffff
    b6a0:	00431024 	and	v0,v0,v1
    b6a4:	00511025 	or	v0,v0,s1
    b6a8:	af820220 	sw	v0,544(gp)
    b6ac:	8fbf0020 	lw	ra,32(sp)
    b6b0:	8fb1001c 	lw	s1,28(sp)
    b6b4:	8fb00018 	lw	s0,24(sp)
    b6b8:	03e00008 	jr	ra
    b6bc:	27bd0028 	addiu	sp,sp,40
    b6c0:	03e00008 	jr	ra
    b6c4:	00000000 	nop
    b6c8:	3c020001 	lui	v0,0x1
    b6cc:	8c426da8 	lw	v0,28072(v0)
    b6d0:	27bdffb0 	addiu	sp,sp,-80
    b6d4:	afbf0048 	sw	ra,72(sp)
    b6d8:	afbe0044 	sw	s8,68(sp)
    b6dc:	afb50040 	sw	s5,64(sp)
    b6e0:	afb3003c 	sw	s3,60(sp)
    b6e4:	afb20038 	sw	s2,56(sp)
    b6e8:	afb10034 	sw	s1,52(sp)
    b6ec:	1040000f 	beqz	v0,0xb72c
    b6f0:	afb00030 	sw	s0,48(sp)
    b6f4:	3c040001 	lui	a0,0x1
    b6f8:	24846a00 	addiu	a0,a0,27136
    b6fc:	3c050008 	lui	a1,0x8
    b700:	afa00010 	sw	zero,16(sp)
    b704:	afa00014 	sw	zero,20(sp)
    b708:	8f860220 	lw	a2,544(gp)
    b70c:	34a50600 	ori	a1,a1,0x600
    b710:	24020001 	li	v0,1
    b714:	3c010001 	lui	at,0x1
    b718:	ac206da8 	sw	zero,28072(at)
    b71c:	3c010001 	lui	at,0x1
    b720:	ac226d9c 	sw	v0,28060(at)
    b724:	0c002b3b 	jal	0xacec
    b728:	00003821 	move	a3,zero
    b72c:	3c037fff 	lui	v1,0x7fff
    b730:	8c020268 	lw	v0,616(zero)
    b734:	3463ffff 	ori	v1,v1,0xffff
    b738:	3c04fdff 	lui	a0,0xfdff
    b73c:	00431024 	and	v0,v0,v1
    b740:	ac020268 	sw	v0,616(zero)
    b744:	8f420004 	lw	v0,4(k0)
    b748:	3484ffff 	ori	a0,a0,0xffff
    b74c:	30420002 	andi	v0,v0,0x2
    b750:	10400092 	beqz	v0,0xb99c
    b754:	0284a024 	and	s4,s4,a0
    b758:	3c040600 	lui	a0,0x600
    b75c:	34842000 	ori	a0,a0,0x2000
    b760:	8f420004 	lw	v0,4(k0)
    b764:	00002821 	move	a1,zero
    b768:	2403fffd 	li	v1,-3
    b76c:	00431024 	and	v0,v0,v1
    b770:	af420004 	sw	v0,4(k0)
    b774:	afa40020 	sw	a0,32(sp)
    b778:	8f5e0018 	lw	s8,24(k0)
    b77c:	27aa0020 	addiu	t2,sp,32
    b780:	240200ff 	li	v0,255
    b784:	13c20002 	beq	s8,v0,0xb790
    b788:	afaa002c 	sw	t2,44(sp)
    b78c:	27c50001 	addiu	a1,s8,1
    b790:	8c020228 	lw	v0,552(zero)
    b794:	00a09021 	move	s2,a1
    b798:	1642000e 	bne	s2,v0,0xb7d4
    b79c:	001e38c0 	sll	a3,s8,0x3
    b7a0:	8f42033c 	lw	v0,828(k0)
    b7a4:	24420001 	addiu	v0,v0,1
    b7a8:	af42033c 	sw	v0,828(k0)
    b7ac:	8f42033c 	lw	v0,828(k0)
    b7b0:	8c020228 	lw	v0,552(zero)
    b7b4:	3c040001 	lui	a0,0x1
    b7b8:	24846998 	addiu	a0,a0,27032
    b7bc:	3c050009 	lui	a1,0x9
    b7c0:	afa00014 	sw	zero,20(sp)
    b7c4:	afa20010 	sw	v0,16(sp)
    b7c8:	8fa60020 	lw	a2,32(sp)
    b7cc:	1000006d 	b	0xb984
    b7d0:	34a50500 	ori	a1,a1,0x500
    b7d4:	00f71021 	addu	v0,a3,s7
    b7d8:	8fa30020 	lw	v1,32(sp)
    b7dc:	8fa40024 	lw	a0,36(sp)
    b7e0:	ac4304c0 	sw	v1,1216(v0)
    b7e4:	ac4404c4 	sw	a0,1220(v0)
    b7e8:	8f830054 	lw	v1,84(gp)
    b7ec:	8f820054 	lw	v0,84(gp)
    b7f0:	247003e8 	addiu	s0,v1,1000
    b7f4:	02021023 	subu	v0,s0,v0
    b7f8:	2c4203e9 	sltiu	v0,v0,1001
    b7fc:	1040001b 	beqz	v0,0xb86c
    b800:	00009821 	move	s3,zero
    b804:	00e08821 	move	s1,a3
    b808:	263504c0 	addiu	s5,s1,1216
    b80c:	8f440178 	lw	a0,376(k0)
    b810:	8f45017c 	lw	a1,380(k0)
    b814:	02201821 	move	v1,s1
    b818:	240a0004 	li	t2,4
    b81c:	afaa0010 	sw	t2,16(sp)
    b820:	afb20014 	sw	s2,20(sp)
    b824:	8f48000c 	lw	t0,12(k0)
    b828:	00001021 	move	v0,zero
    b82c:	02f53021 	addu	a2,s7,s5
    b830:	afa80018 	sw	t0,24(sp)
    b834:	8f48010c 	lw	t0,268(k0)
    b838:	24070008 	li	a3,8
    b83c:	00a32821 	addu	a1,a1,v1
    b840:	00a3482b 	sltu	t1,a1,v1
    b844:	00822021 	addu	a0,a0,v0
    b848:	0100f809 	jalr	t0
    b84c:	00892021 	addu	a0,a0,t1
    b850:	54400006 	bnezl	v0,0xb86c
    b854:	24130001 	li	s3,1
    b858:	8f820054 	lw	v0,84(gp)
    b85c:	02021023 	subu	v0,s0,v0
    b860:	2c4203e9 	sltiu	v0,v0,1001
    b864:	1440ffe9 	bnez	v0,0xb80c
    b868:	00000000 	nop
    b86c:	326200ff 	andi	v0,s3,0xff
    b870:	54400017 	bnezl	v0,0xb8d0
    b874:	af520018 	sw	s2,24(k0)
    b878:	8f420378 	lw	v0,888(k0)
    b87c:	24420001 	addiu	v0,v0,1
    b880:	af420378 	sw	v0,888(k0)
    b884:	8f420378 	lw	v0,888(k0)
    b888:	8f820120 	lw	v0,288(gp)
    b88c:	8faa002c 	lw	t2,44(sp)
    b890:	afa20010 	sw	v0,16(sp)
    b894:	8f820124 	lw	v0,292(gp)
    b898:	3c040001 	lui	a0,0x1
    b89c:	248469a4 	addiu	a0,a0,27044
    b8a0:	3c050009 	lui	a1,0x9
    b8a4:	afa20014 	sw	v0,20(sp)
    b8a8:	8d460000 	lw	a2,0(t2)
    b8ac:	10000035 	b	0xb984
    b8b0:	34a50600 	ori	a1,a1,0x600
    b8b4:	8f420308 	lw	v0,776(k0)
    b8b8:	24130001 	li	s3,1
    b8bc:	24420001 	addiu	v0,v0,1
    b8c0:	af420308 	sw	v0,776(k0)
    b8c4:	8f420308 	lw	v0,776(k0)
    b8c8:	1000001e 	b	0xb944
    b8cc:	326200ff 	andi	v0,s3,0xff
    b8d0:	8f830054 	lw	v1,84(gp)
    b8d4:	8f820054 	lw	v0,84(gp)
    b8d8:	247003e8 	addiu	s0,v1,1000
    b8dc:	02021023 	subu	v0,s0,v0
    b8e0:	2c4203e9 	sltiu	v0,v0,1001
    b8e4:	10400016 	beqz	v0,0xb940
    b8e8:	00009821 	move	s3,zero
    b8ec:	3c150020 	lui	s5,0x20
    b8f0:	24110010 	li	s1,16
    b8f4:	8f42000c 	lw	v0,12(k0)
    b8f8:	8f440160 	lw	a0,352(k0)
    b8fc:	8f450164 	lw	a1,356(k0)
    b900:	8f860120 	lw	a2,288(gp)
    b904:	afb10010 	sw	s1,16(sp)
    b908:	afb20014 	sw	s2,20(sp)
    b90c:	00551025 	or	v0,v0,s5
    b910:	afa20018 	sw	v0,24(sp)
    b914:	8f42010c 	lw	v0,268(k0)
    b918:	24070008 	li	a3,8
    b91c:	0040f809 	jalr	v0
    b920:	24c6001c 	addiu	a2,a2,28
    b924:	1440ffe3 	bnez	v0,0xb8b4
    b928:	00000000 	nop
    b92c:	8f820054 	lw	v0,84(gp)
    b930:	02021023 	subu	v0,s0,v0
    b934:	2c4203e9 	sltiu	v0,v0,1001
    b938:	1440ffee 	bnez	v0,0xb8f4
    b93c:	00000000 	nop
    b940:	326200ff 	andi	v0,s3,0xff
    b944:	14400011 	bnez	v0,0xb98c
    b948:	00000000 	nop
    b94c:	8f420378 	lw	v0,888(k0)
    b950:	24420001 	addiu	v0,v0,1
    b954:	af420378 	sw	v0,888(k0)
    b958:	8f420378 	lw	v0,888(k0)
    b95c:	8f820120 	lw	v0,288(gp)
    b960:	8faa002c 	lw	t2,44(sp)
    b964:	afa20010 	sw	v0,16(sp)
    b968:	8f820124 	lw	v0,292(gp)
    b96c:	3c040001 	lui	a0,0x1
    b970:	248469ac 	addiu	a0,a0,27052
    b974:	3c050009 	lui	a1,0x9
    b978:	afa20014 	sw	v0,20(sp)
    b97c:	8d460000 	lw	a2,0(t2)
    b980:	34a50700 	ori	a1,a1,0x700
    b984:	0c002b3b 	jal	0xacec
    b988:	03c03821 	move	a3,s8
    b98c:	8f4202ec 	lw	v0,748(k0)
    b990:	24420001 	addiu	v0,v0,1
    b994:	af4202ec 	sw	v0,748(k0)
    b998:	8f4202ec 	lw	v0,748(k0)
    b99c:	8fbf0048 	lw	ra,72(sp)
    b9a0:	8fbe0044 	lw	s8,68(sp)
    b9a4:	8fb50040 	lw	s5,64(sp)
    b9a8:	8fb3003c 	lw	s3,60(sp)
    b9ac:	8fb20038 	lw	s2,56(sp)
    b9b0:	8fb10034 	lw	s1,52(sp)
    b9b4:	8fb00030 	lw	s0,48(sp)
    b9b8:	03e00008 	jr	ra
    b9bc:	27bd0050 	addiu	sp,sp,80
    b9c0:	3c020001 	lui	v0,0x1
    b9c4:	8c426da8 	lw	v0,28072(v0)
    b9c8:	27bdffe0 	addiu	sp,sp,-32
    b9cc:	1440000d 	bnez	v0,0xba04
    b9d0:	afbf0018 	sw	ra,24(sp)
    b9d4:	3c040001 	lui	a0,0x1
    b9d8:	24846a0c 	addiu	a0,a0,27148
    b9dc:	3c050008 	lui	a1,0x8
    b9e0:	afa00010 	sw	zero,16(sp)
    b9e4:	afa00014 	sw	zero,20(sp)
    b9e8:	8f860220 	lw	a2,544(gp)
    b9ec:	34a50700 	ori	a1,a1,0x700
    b9f0:	24020001 	li	v0,1
    b9f4:	3c010001 	lui	at,0x1
    b9f8:	ac226da8 	sw	v0,28072(at)
    b9fc:	0c002b3b 	jal	0xacec
    ba00:	00003821 	move	a3,zero
    ba04:	3c020004 	lui	v0,0x4
    ba08:	02c21024 	and	v0,s6,v0
    ba0c:	10400007 	beqz	v0,0xba2c
    ba10:	00000000 	nop
    ba14:	8f820220 	lw	v0,544(gp)
    ba18:	3c0308ff 	lui	v1,0x8ff
    ba1c:	3463ffff 	ori	v1,v1,0xffff
    ba20:	00431024 	and	v0,v0,v1
    ba24:	34420008 	ori	v0,v0,0x8
    ba28:	af820220 	sw	v0,544(gp)
    ba2c:	3c050001 	lui	a1,0x1
    ba30:	8ca56d98 	lw	a1,28056(a1)
    ba34:	24020001 	li	v0,1
    ba38:	14a20007 	bne	a1,v0,0xba58
    ba3c:	00002021 	move	a0,zero
    ba40:	0c00529b 	jal	0x14a6c
    ba44:	24050001 	li	a1,1
    ba48:	ac02026c 	sw	v0,620(zero)
    ba4c:	8c03026c 	lw	v1,620(zero)
    ba50:	10000006 	b	0xba6c
    ba54:	3c020007 	lui	v0,0x7
    ba58:	0c00529b 	jal	0x14a6c
    ba5c:	00002021 	move	a0,zero
    ba60:	ac020268 	sw	v0,616(zero)
    ba64:	8c030268 	lw	v1,616(zero)
    ba68:	3c020007 	lui	v0,0x7
    ba6c:	00621824 	and	v1,v1,v0
    ba70:	3c020002 	lui	v0,0x2
    ba74:	5062000d 	beql	v1,v0,0xbaac
    ba78:	3c0205f5 	lui	v0,0x5f5
    ba7c:	0043102b 	sltu	v0,v0,v1
    ba80:	14400006 	bnez	v0,0xba9c
    ba84:	3c020004 	lui	v0,0x4
    ba88:	3c020001 	lui	v0,0x1
    ba8c:	10620009 	beq	v1,v0,0xbab4
    ba90:	3c020098 	lui	v0,0x98
    ba94:	1000000b 	b	0xbac4
    ba98:	00000000 	nop
    ba9c:	14620009 	bne	v1,v0,0xbac4
    baa0:	3c023b9a 	lui	v0,0x3b9a
    baa4:	10000004 	b	0xbab8
    baa8:	3442ca00 	ori	v0,v0,0xca00
    baac:	10000002 	b	0xbab8
    bab0:	3442e100 	ori	v0,v0,0xe100
    bab4:	34429680 	ori	v0,v0,0x9680
    bab8:	af4201fc 	sw	v0,508(k0)
    babc:	8f4201fc 	lw	v0,508(k0)
    bac0:	aee20064 	sw	v0,100(s7)
    bac4:	8fbf0018 	lw	ra,24(sp)
    bac8:	03e00008 	jr	ra
    bacc:	27bd0020 	addiu	sp,sp,32
	...
    badc:	0086102b 	sltu	v0,a0,a2
    bae0:	50400001 	beqzl	v0,0xbae8
    bae4:	00872023 	subu	a0,a0,a3
    bae8:	00c41023 	subu	v0,a2,a0
    baec:	00024843 	sra	t1,v0,0x1
    baf0:	0125102b 	sltu	v0,t1,a1
    baf4:	1040001b 	beqz	v0,0xbb64
    baf8:	00091040 	sll	v0,t1,0x1
    bafc:	00824021 	addu	t0,a0,v0
    bb00:	0088102b 	sltu	v0,a0,t0
    bb04:	10400007 	beqz	v0,0xbb24
    bb08:	00001821 	move	v1,zero
    bb0c:	94820000 	lhu	v0,0(a0)
    bb10:	24840002 	addiu	a0,a0,2
    bb14:	00621821 	addu	v1,v1,v0
    bb18:	0088102b 	sltu	v0,a0,t0
    bb1c:	1440fffb 	bnez	v0,0xbb0c
    bb20:	00000000 	nop
    bb24:	00602021 	move	a0,v1
    bb28:	00c73023 	subu	a2,a2,a3
    bb2c:	00a91023 	subu	v0,a1,t1
    bb30:	00021040 	sll	v0,v0,0x1
    bb34:	00c22821 	addu	a1,a2,v0
    bb38:	00c5102b 	sltu	v0,a2,a1
    bb3c:	10400007 	beqz	v0,0xbb5c
    bb40:	00001821 	move	v1,zero
    bb44:	94c20000 	lhu	v0,0(a2)
    bb48:	24c60002 	addiu	a2,a2,2
    bb4c:	00621821 	addu	v1,v1,v0
    bb50:	00c5102b 	sltu	v0,a2,a1
    bb54:	1440fffb 	bnez	v0,0xbb44
    bb58:	00000000 	nop
    bb5c:	1000000d 	b	0xbb94
    bb60:	00832021 	addu	a0,a0,v1
    bb64:	00051040 	sll	v0,a1,0x1
    bb68:	00822821 	addu	a1,a0,v0
    bb6c:	0085102b 	sltu	v0,a0,a1
    bb70:	10400007 	beqz	v0,0xbb90
    bb74:	00001821 	move	v1,zero
    bb78:	94820000 	lhu	v0,0(a0)
    bb7c:	24840002 	addiu	a0,a0,2
    bb80:	00621821 	addu	v1,v1,v0
    bb84:	0085102b 	sltu	v0,a0,a1
    bb88:	1440fffb 	bnez	v0,0xbb78
    bb8c:	00000000 	nop
    bb90:	00602021 	move	a0,v1
    bb94:	00041c02 	srl	v1,a0,0x10
    bb98:	3082ffff 	andi	v0,a0,0xffff
    bb9c:	00622021 	addu	a0,v1,v0
    bba0:	00041c02 	srl	v1,a0,0x10
    bba4:	3082ffff 	andi	v0,a0,0xffff
    bba8:	00622021 	addu	a0,v1,v0
    bbac:	03e00008 	jr	ra
    bbb0:	3082ffff 	andi	v0,a0,0xffff
    bbb4:	03e00008 	jr	ra
    bbb8:	00000000 	nop
    bbbc:	00802821 	move	a1,a0
    bbc0:	30a20001 	andi	v0,a1,0x1
    bbc4:	1040002b 	beqz	v0,0xbc74
    bbc8:	3c03001f 	lui	v1,0x1f
    bbcc:	3463ffff 	ori	v1,v1,0xffff
    bbd0:	24a20004 	addiu	v0,a1,4
    bbd4:	0062102b 	sltu	v0,v1,v0
    bbd8:	54400007 	bnezl	v0,0xbbf8
    bbdc:	0065102b 	sltu	v0,v1,a1
    bbe0:	90a20001 	lbu	v0,1(a1)
    bbe4:	90a40003 	lbu	a0,3(a1)
    bbe8:	90a30000 	lbu	v1,0(a1)
    bbec:	90a50002 	lbu	a1,2(a1)
    bbf0:	1000002a 	b	0xbc9c
    bbf4:	00441021 	addu	v0,v0,a0
    bbf8:	10400003 	beqz	v0,0xbc08
    bbfc:	00000000 	nop
    bc00:	8f420148 	lw	v0,328(k0)
    bc04:	00a22823 	subu	a1,a1,v0
    bc08:	90a40000 	lbu	a0,0(a1)
    bc0c:	24a50001 	addiu	a1,a1,1
    bc10:	0065102b 	sltu	v0,v1,a1
    bc14:	10400003 	beqz	v0,0xbc24
    bc18:	00000000 	nop
    bc1c:	8f420148 	lw	v0,328(k0)
    bc20:	00a22823 	subu	a1,a1,v0
    bc24:	90a20000 	lbu	v0,0(a1)
    bc28:	24a50001 	addiu	a1,a1,1
    bc2c:	00021200 	sll	v0,v0,0x8
    bc30:	00822021 	addu	a0,a0,v0
    bc34:	0065102b 	sltu	v0,v1,a1
    bc38:	10400003 	beqz	v0,0xbc48
    bc3c:	00000000 	nop
    bc40:	8f420148 	lw	v0,328(k0)
    bc44:	00a22823 	subu	a1,a1,v0
    bc48:	90a20000 	lbu	v0,0(a1)
    bc4c:	24a50001 	addiu	a1,a1,1
    bc50:	00822021 	addu	a0,a0,v0
    bc54:	0065102b 	sltu	v0,v1,a1
    bc58:	10400003 	beqz	v0,0xbc68
    bc5c:	00000000 	nop
    bc60:	8f420148 	lw	v0,328(k0)
    bc64:	00a22823 	subu	a1,a1,v0
    bc68:	90a20000 	lbu	v0,0(a1)
    bc6c:	1000002d 	b	0xbd24
    bc70:	00021200 	sll	v0,v0,0x8
    bc74:	3463ffff 	ori	v1,v1,0xffff
    bc78:	24a20004 	addiu	v0,a1,4
    bc7c:	0062102b 	sltu	v0,v1,v0
    bc80:	5440000a 	bnezl	v0,0xbcac
    bc84:	0065102b 	sltu	v0,v1,a1
    bc88:	90a20000 	lbu	v0,0(a1)
    bc8c:	90a40002 	lbu	a0,2(a1)
    bc90:	90a30001 	lbu	v1,1(a1)
    bc94:	90a50003 	lbu	a1,3(a1)
    bc98:	00441021 	addu	v0,v0,a0
    bc9c:	00021200 	sll	v0,v0,0x8
    bca0:	00651821 	addu	v1,v1,a1
    bca4:	10000020 	b	0xbd28
    bca8:	00432021 	addu	a0,v0,v1
    bcac:	10400003 	beqz	v0,0xbcbc
    bcb0:	00000000 	nop
    bcb4:	8f420148 	lw	v0,328(k0)
    bcb8:	00a22823 	subu	a1,a1,v0
    bcbc:	90a20000 	lbu	v0,0(a1)
    bcc0:	24a50001 	addiu	a1,a1,1
    bcc4:	00022200 	sll	a0,v0,0x8
    bcc8:	0065102b 	sltu	v0,v1,a1
    bccc:	10400003 	beqz	v0,0xbcdc
    bcd0:	00000000 	nop
    bcd4:	8f420148 	lw	v0,328(k0)
    bcd8:	00a22823 	subu	a1,a1,v0
    bcdc:	90a20000 	lbu	v0,0(a1)
    bce0:	24a50001 	addiu	a1,a1,1
    bce4:	00822021 	addu	a0,a0,v0
    bce8:	0065102b 	sltu	v0,v1,a1
    bcec:	10400003 	beqz	v0,0xbcfc
    bcf0:	00000000 	nop
    bcf4:	8f420148 	lw	v0,328(k0)
    bcf8:	00a22823 	subu	a1,a1,v0
    bcfc:	90a20000 	lbu	v0,0(a1)
    bd00:	24a50001 	addiu	a1,a1,1
    bd04:	00021200 	sll	v0,v0,0x8
    bd08:	00822021 	addu	a0,a0,v0
    bd0c:	0065102b 	sltu	v0,v1,a1
    bd10:	10400003 	beqz	v0,0xbd20
    bd14:	00000000 	nop
    bd18:	8f420148 	lw	v0,328(k0)
    bd1c:	00a22823 	subu	a1,a1,v0
    bd20:	90a20000 	lbu	v0,0(a1)
    bd24:	00822021 	addu	a0,a0,v0
    bd28:	00041c02 	srl	v1,a0,0x10
    bd2c:	3082ffff 	andi	v0,a0,0xffff
    bd30:	00622021 	addu	a0,v1,v0
    bd34:	00041c02 	srl	v1,a0,0x10
    bd38:	3082ffff 	andi	v0,a0,0xffff
    bd3c:	00622021 	addu	a0,v1,v0
    bd40:	03e00008 	jr	ra
    bd44:	3082ffff 	andi	v0,a0,0xffff
    bd48:	00000000 	nop
    bd4c:	8f820220 	lw	v0,544(gp)
    bd50:	34420002 	ori	v0,v0,0x2
    bd54:	af820220 	sw	v0,544(gp)
    bd58:	3c020002 	lui	v0,0x2
    bd5c:	8c428ff8 	lw	v0,-28680(v0)
    bd60:	30424000 	andi	v0,v0,0x4000
    bd64:	10400054 	beqz	v0,0xbeb8
    bd68:	24040001 	li	a0,1
    bd6c:	8f820200 	lw	v0,512(gp)
    bd70:	24067fff 	li	a2,32767
    bd74:	8f830200 	lw	v1,512(gp)
    bd78:	30450002 	andi	a1,v0,0x2
    bd7c:	2402fffd 	li	v0,-3
    bd80:	00621824 	and	v1,v1,v0
    bd84:	af830200 	sw	v1,512(gp)
    bd88:	af840204 	sw	a0,516(gp)
    bd8c:	8f830054 	lw	v1,84(gp)
    bd90:	8f820054 	lw	v0,84(gp)
    bd94:	10000002 	b	0xbda0
    bd98:	24630001 	addiu	v1,v1,1
    bd9c:	8f820054 	lw	v0,84(gp)
    bda0:	00621023 	subu	v0,v1,v0
    bda4:	2c420002 	sltiu	v0,v0,2
    bda8:	1440fffc 	bnez	v0,0xbd9c
    bdac:	00000000 	nop
    bdb0:	8f820224 	lw	v0,548(gp)
    bdb4:	1444004d 	bne	v0,a0,0xbeec
    bdb8:	00042040 	sll	a0,a0,0x1
    bdbc:	00c4102b 	sltu	v0,a2,a0
    bdc0:	1040fff1 	beqz	v0,0xbd88
    bdc4:	00000000 	nop
    bdc8:	8f820200 	lw	v0,512(gp)
    bdcc:	00451025 	or	v0,v0,a1
    bdd0:	af820200 	sw	v0,512(gp)
    bdd4:	8f820220 	lw	v0,544(gp)
    bdd8:	34428000 	ori	v0,v0,0x8000
    bddc:	af820220 	sw	v0,544(gp)
    bde0:	8f830054 	lw	v1,84(gp)
    bde4:	8f820054 	lw	v0,84(gp)
    bde8:	10000002 	b	0xbdf4
    bdec:	24630001 	addiu	v1,v1,1
    bdf0:	8f820054 	lw	v0,84(gp)
    bdf4:	00621023 	subu	v0,v1,v0
    bdf8:	2c420002 	sltiu	v0,v0,2
    bdfc:	1440fffc 	bnez	v0,0xbdf0
    be00:	00000000 	nop
    be04:	8f820220 	lw	v0,544(gp)
    be08:	3c030004 	lui	v1,0x4
    be0c:	00431024 	and	v0,v0,v1
    be10:	1440000f 	bnez	v0,0xbe50
    be14:	00000000 	nop
    be18:	8f820220 	lw	v0,544(gp)
    be1c:	3c03ffff 	lui	v1,0xffff
    be20:	34637fff 	ori	v1,v1,0x7fff
    be24:	00431024 	and	v0,v0,v1
    be28:	af820220 	sw	v0,544(gp)
    be2c:	8f830054 	lw	v1,84(gp)
    be30:	8f820054 	lw	v0,84(gp)
    be34:	10000002 	b	0xbe40
    be38:	24630001 	addiu	v1,v1,1
    be3c:	8f820054 	lw	v0,84(gp)
    be40:	00621023 	subu	v0,v1,v0
    be44:	2c420002 	sltiu	v0,v0,2
    be48:	1440fffc 	bnez	v0,0xbe3c
    be4c:	00000000 	nop
    be50:	8f820220 	lw	v0,544(gp)
    be54:	3c030004 	lui	v1,0x4
    be58:	00431024 	and	v0,v0,v1
    be5c:	1440000d 	bnez	v0,0xbe94
    be60:	00000000 	nop
    be64:	8f820220 	lw	v0,544(gp)
    be68:	34428000 	ori	v0,v0,0x8000
    be6c:	af820220 	sw	v0,544(gp)
    be70:	8f830054 	lw	v1,84(gp)
    be74:	8f820054 	lw	v0,84(gp)
    be78:	10000002 	b	0xbe84
    be7c:	24630001 	addiu	v1,v1,1
    be80:	8f820054 	lw	v0,84(gp)
    be84:	00621023 	subu	v0,v1,v0
    be88:	2c420002 	sltiu	v0,v0,2
    be8c:	1440fffc 	bnez	v0,0xbe80
    be90:	00000000 	nop
    be94:	8f820220 	lw	v0,544(gp)
    be98:	3c030004 	lui	v1,0x4
    be9c:	00431024 	and	v0,v0,v1
    bea0:	1040001b 	beqz	v0,0xbf10
    bea4:	00001021 	move	v0,zero
    bea8:	8f830220 	lw	v1,544(gp)
    beac:	24020001 	li	v0,1
    beb0:	10000015 	b	0xbf08
    beb4:	3c04f700 	lui	a0,0xf700
    beb8:	8f820220 	lw	v0,544(gp)
    bebc:	3c04f700 	lui	a0,0xf700
    bec0:	00441025 	or	v0,v0,a0
    bec4:	af820220 	sw	v0,544(gp)
    bec8:	8f820220 	lw	v0,544(gp)
    becc:	2403fffd 	li	v1,-3
    bed0:	00431024 	and	v0,v0,v1
    bed4:	af820220 	sw	v0,544(gp)
    bed8:	8f820220 	lw	v0,544(gp)
    bedc:	3c030300 	lui	v1,0x300
    bee0:	00431024 	and	v0,v0,v1
    bee4:	14400003 	bnez	v0,0xbef4
    bee8:	00000000 	nop
    beec:	10000008 	b	0xbf10
    bef0:	00001021 	move	v0,zero
    bef4:	8f820220 	lw	v0,544(gp)
    bef8:	34420002 	ori	v0,v0,0x2
    befc:	af820220 	sw	v0,544(gp)
    bf00:	8f830220 	lw	v1,544(gp)
    bf04:	24020001 	li	v0,1
    bf08:	00641825 	or	v1,v1,a0
    bf0c:	af830220 	sw	v1,544(gp)
    bf10:	03e00008 	jr	ra
    bf14:	00000000 	nop
    bf18:	00002021 	move	a0,zero
    bf1c:	3c050100 	lui	a1,0x100
    bf20:	24020001 	li	v0,1
    bf24:	af80021c 	sw	zero,540(gp)
    bf28:	af820200 	sw	v0,512(gp)
    bf2c:	af820220 	sw	v0,544(gp)
    bf30:	27625000 	addiu	v0,k1,20480
    bf34:	af8200c0 	sw	v0,192(gp)
    bf38:	27625000 	addiu	v0,k1,20480
    bf3c:	af8200c4 	sw	v0,196(gp)
    bf40:	27625000 	addiu	v0,k1,20480
    bf44:	af8200c8 	sw	v0,200(gp)
    bf48:	27625000 	addiu	v0,k1,20480
    bf4c:	af8200d0 	sw	v0,208(gp)
    bf50:	27625000 	addiu	v0,k1,20480
    bf54:	af8200d4 	sw	v0,212(gp)
    bf58:	27625000 	addiu	v0,k1,20480
    bf5c:	af8200d8 	sw	v0,216(gp)
    bf60:	27623000 	addiu	v0,k1,12288
    bf64:	af8200e0 	sw	v0,224(gp)
    bf68:	27623000 	addiu	v0,k1,12288
    bf6c:	af8200e4 	sw	v0,228(gp)
    bf70:	27623000 	addiu	v0,k1,12288
    bf74:	af8200e8 	sw	v0,232(gp)
    bf78:	27622800 	addiu	v0,k1,10240
    bf7c:	af8200f0 	sw	v0,240(gp)
    bf80:	27622800 	addiu	v0,k1,10240
    bf84:	af8200f4 	sw	v0,244(gp)
    bf88:	27622800 	addiu	v0,k1,10240
    bf8c:	af8200f8 	sw	v0,248(gp)
    bf90:	000418c0 	sll	v1,a0,0x3
    bf94:	24840001 	addiu	a0,a0,1
    bf98:	03631021 	addu	v0,k1,v1
    bf9c:	ac453004 	sw	a1,12292(v0)
    bfa0:	03631021 	addu	v0,k1,v1
    bfa4:	ac403000 	sw	zero,12288(v0)
    bfa8:	28820200 	slti	v0,a0,512
    bfac:	1440fff9 	bnez	v0,0xbf94
    bfb0:	000418c0 	sll	v1,a0,0x3
    bfb4:	00002021 	move	a0,zero
    bfb8:	000418c0 	sll	v1,a0,0x3
    bfbc:	24840001 	addiu	a0,a0,1
    bfc0:	03631021 	addu	v0,k1,v1
    bfc4:	ac402804 	sw	zero,10244(v0)
    bfc8:	03631021 	addu	v0,k1,v1
    bfcc:	ac402800 	sw	zero,10240(v0)
    bfd0:	28820100 	slti	v0,a0,256
    bfd4:	1440fff9 	bnez	v0,0xbfbc
    bfd8:	000418c0 	sll	v1,a0,0x3
    bfdc:	af80023c 	sw	zero,572(gp)
    bfe0:	24030080 	li	v1,128
    bfe4:	24040100 	li	a0,256
    bfe8:	ac600000 	sw	zero,0(v1)
    bfec:	24630004 	addiu	v1,v1,4
    bff0:	0064102b 	sltu	v0,v1,a0
    bff4:	5440fffd 	bnezl	v0,0xbfec
    bff8:	ac600000 	sw	zero,0(v1)
    bffc:	8f830040 	lw	v1,64(gp)
    c000:	3c02f000 	lui	v0,0xf000
    c004:	00621824 	and	v1,v1,v0
    c008:	3c025000 	lui	v0,0x5000
    c00c:	1062000c 	beq	v1,v0,0xc040
    c010:	0043102b 	sltu	v0,v0,v1
    c014:	14400006 	bnez	v0,0xc030
    c018:	3c026000 	lui	v0,0x6000
    c01c:	3c024000 	lui	v0,0x4000
    c020:	10620008 	beq	v1,v0,0xc044
    c024:	24020800 	li	v0,2048
    c028:	10000008 	b	0xc04c
    c02c:	00000000 	nop
    c030:	10620004 	beq	v1,v0,0xc044
    c034:	24020800 	li	v0,2048
    c038:	10000004 	b	0xc04c
    c03c:	00000000 	nop
    c040:	24020700 	li	v0,1792
    c044:	3c010001 	lui	at,0x1
    c048:	ac226dac 	sw	v0,28076(at)
    c04c:	03e00008 	jr	ra
    c050:	00000000 	nop
    c054:	3c020001 	lui	v0,0x1
    c058:	8c426dbc 	lw	v0,28092(v0)
    c05c:	27bdffd0 	addiu	sp,sp,-48
    c060:	afbf002c 	sw	ra,44(sp)
    c064:	afb20028 	sw	s2,40(sp)
    c068:	afb10024 	sw	s1,36(sp)
    c06c:	afb00020 	sw	s0,32(sp)
    c070:	3c010001 	lui	at,0x1
    c074:	10400005 	beqz	v0,0xc08c
    c078:	ac206d94 	sw	zero,28052(at)
    c07c:	0c004d9e 	jal	0x13678
    c080:	00000000 	nop
    c084:	3c010001 	lui	at,0x1
    c088:	ac206dbc 	sw	zero,28092(at)
    c08c:	8f830054 	lw	v1,84(gp)
    c090:	8f820054 	lw	v0,84(gp)
    c094:	10000002 	b	0xc0a0
    c098:	24630064 	addiu	v1,v1,100
    c09c:	8f820054 	lw	v0,84(gp)
    c0a0:	00621023 	subu	v0,v1,v0
    c0a4:	2c420065 	sltiu	v0,v0,101
    c0a8:	1440fffc 	bnez	v0,0xc09c
    c0ac:	00000000 	nop
    c0b0:	0c004db9 	jal	0x136e4
    c0b4:	00000000 	nop
    c0b8:	24040001 	li	a0,1
    c0bc:	00002821 	move	a1,zero
    c0c0:	27a60018 	addiu	a2,sp,24
    c0c4:	34028000 	li	v0,0x8000
    c0c8:	0c0045be 	jal	0x116f8
    c0cc:	a7a20018 	sh	v0,24(sp)
    c0d0:	8f830054 	lw	v1,84(gp)
    c0d4:	8f820054 	lw	v0,84(gp)
    c0d8:	10000002 	b	0xc0e4
    c0dc:	24630064 	addiu	v1,v1,100
    c0e0:	8f820054 	lw	v0,84(gp)
    c0e4:	00621023 	subu	v0,v1,v0
    c0e8:	2c420065 	sltiu	v0,v0,101
    c0ec:	1440fffc 	bnez	v0,0xc0e0
    c0f0:	24040001 	li	a0,1
    c0f4:	24050001 	li	a1,1
    c0f8:	0c00457c 	jal	0x115f0
    c0fc:	27a60018 	addiu	a2,sp,24
    c100:	8f830054 	lw	v1,84(gp)
    c104:	8f820054 	lw	v0,84(gp)
    c108:	10000002 	b	0xc114
    c10c:	24630064 	addiu	v1,v1,100
    c110:	8f820054 	lw	v0,84(gp)
    c114:	00621023 	subu	v0,v1,v0
    c118:	2c420065 	sltiu	v0,v0,101
    c11c:	1440fffc 	bnez	v0,0xc110
    c120:	24040001 	li	a0,1
    c124:	24050001 	li	a1,1
    c128:	0c00457c 	jal	0x115f0
    c12c:	27a60018 	addiu	a2,sp,24
    c130:	8f830054 	lw	v1,84(gp)
    c134:	8f820054 	lw	v0,84(gp)
    c138:	10000002 	b	0xc144
    c13c:	24630064 	addiu	v1,v1,100
    c140:	8f820054 	lw	v0,84(gp)
    c144:	00621023 	subu	v0,v1,v0
    c148:	2c420065 	sltiu	v0,v0,101
    c14c:	1440fffc 	bnez	v0,0xc140
    c150:	24040001 	li	a0,1
    c154:	3c060001 	lui	a2,0x1
    c158:	24c66f24 	addiu	a2,a2,28452
    c15c:	0c00457c 	jal	0x115f0
    c160:	24050002 	li	a1,2
    c164:	8f830054 	lw	v1,84(gp)
    c168:	8f820054 	lw	v0,84(gp)
    c16c:	10000002 	b	0xc178
    c170:	24630064 	addiu	v1,v1,100
    c174:	8f820054 	lw	v0,84(gp)
    c178:	00621023 	subu	v0,v1,v0
    c17c:	2c420065 	sltiu	v0,v0,101
    c180:	1440fffc 	bnez	v0,0xc174
    c184:	24040001 	li	a0,1
    c188:	24050003 	li	a1,3
    c18c:	3c100001 	lui	s0,0x1
    c190:	26106f26 	addiu	s0,s0,28454
    c194:	0c00457c 	jal	0x115f0
    c198:	02003021 	move	a2,s0
    c19c:	97a60018 	lhu	a2,24(sp)
    c1a0:	3c070001 	lui	a3,0x1
    c1a4:	94e76f24 	lhu	a3,28452(a3)
    c1a8:	3c040001 	lui	a0,0x1
    c1ac:	24846ae0 	addiu	a0,a0,27360
    c1b0:	afa00014 	sw	zero,20(sp)
    c1b4:	96020000 	lhu	v0,0(s0)
    c1b8:	3c05000d 	lui	a1,0xd
    c1bc:	34a50100 	ori	a1,a1,0x100
    c1c0:	0c002b3b 	jal	0xacec
    c1c4:	afa20010 	sw	v0,16(sp)
    c1c8:	97a20018 	lhu	v0,24(sp)
    c1cc:	1040004d 	beqz	v0,0xc304
    c1d0:	24036040 	li	v1,24640
    c1d4:	96020000 	lhu	v0,0(s0)
    c1d8:	3042fff0 	andi	v0,v0,0xfff0
    c1dc:	1443000c 	bne	v0,v1,0xc210
    c1e0:	24020020 	li	v0,32
    c1e4:	3c030001 	lui	v1,0x1
    c1e8:	94636f24 	lhu	v1,28452(v1)
    c1ec:	1462000b 	bne	v1,v0,0xc21c
    c1f0:	24027830 	li	v0,30768
    c1f4:	24020003 	li	v0,3
    c1f8:	3c010001 	lui	at,0x1
    c1fc:	ac226d94 	sw	v0,28052(at)
    c200:	24020005 	li	v0,5
    c204:	3c010001 	lui	at,0x1
    c208:	1000003f 	b	0xc308
    c20c:	ac226f34 	sw	v0,28468(at)
    c210:	3c030001 	lui	v1,0x1
    c214:	94636f24 	lhu	v1,28452(v1)
    c218:	24027830 	li	v0,30768
    c21c:	1462000c 	bne	v1,v0,0xc250
    c220:	24030010 	li	v1,16
    c224:	3c020001 	lui	v0,0x1
    c228:	94426f26 	lhu	v0,28454(v0)
    c22c:	3042fff0 	andi	v0,v0,0xfff0
    c230:	14430007 	bne	v0,v1,0xc250
    c234:	24020003 	li	v0,3
    c238:	3c010001 	lui	at,0x1
    c23c:	ac226d94 	sw	v0,28052(at)
    c240:	24020006 	li	v0,6
    c244:	3c010001 	lui	at,0x1
    c248:	1000002f 	b	0xc308
    c24c:	ac226f34 	sw	v0,28468(at)
    c250:	3c020001 	lui	v0,0x1
    c254:	8c426d94 	lw	v0,28052(v0)
    c258:	3c030001 	lui	v1,0x1
    c25c:	94636f24 	lhu	v1,28452(v1)
    c260:	34420001 	ori	v0,v0,0x1
    c264:	3c010001 	lui	at,0x1
    c268:	ac226d94 	sw	v0,28052(at)
    c26c:	24020015 	li	v0,21
    c270:	1462000b 	bne	v1,v0,0xc2a0
    c274:	00000000 	nop
    c278:	3c020001 	lui	v0,0x1
    c27c:	94426f26 	lhu	v0,28454(v0)
    c280:	3042fff0 	andi	v0,v0,0xfff0
    c284:	3843f420 	xori	v1,v0,0xf420
    c288:	2c630001 	sltiu	v1,v1,1
    c28c:	3842f430 	xori	v0,v0,0xf430
    c290:	2c420001 	sltiu	v0,v0,1
    c294:	00621825 	or	v1,v1,v0
    c298:	1460001b 	bnez	v1,0xc308
    c29c:	24020003 	li	v0,3
    c2a0:	3c030001 	lui	v1,0x1
    c2a4:	94636f24 	lhu	v1,28452(v1)
    c2a8:	24027810 	li	v0,30736
    c2ac:	14620016 	bne	v1,v0,0xc308
    c2b0:	24020002 	li	v0,2
    c2b4:	3c020001 	lui	v0,0x1
    c2b8:	94426f26 	lhu	v0,28454(v0)
    c2bc:	3042fff0 	andi	v0,v0,0xfff0
    c2c0:	14400011 	bnez	v0,0xc308
    c2c4:	24020002 	li	v0,2
    c2c8:	1000000f 	b	0xc308
    c2cc:	24020004 	li	v0,4
    c2d0:	3c020001 	lui	v0,0x1
    c2d4:	8c426d94 	lw	v0,28052(v0)
    c2d8:	34420008 	ori	v0,v0,0x8
    c2dc:	3c010001 	lui	at,0x1
    c2e0:	ac226d94 	sw	v0,28052(at)
    c2e4:	1000005e 	b	0xc460
    c2e8:	24020004 	li	v0,4
    c2ec:	3c020001 	lui	v0,0x1
    c2f0:	8c426d94 	lw	v0,28052(v0)
    c2f4:	34420004 	ori	v0,v0,0x4
    c2f8:	3c010001 	lui	at,0x1
    c2fc:	100000af 	b	0xc5bc
    c300:	ac226d94 	sw	v0,28052(at)
    c304:	24020001 	li	v0,1
    c308:	3c010001 	lui	at,0x1
    c30c:	ac226f40 	sw	v0,28480(at)
    c310:	3c020001 	lui	v0,0x1
    c314:	8c426d94 	lw	v0,28052(v0)
    c318:	30420002 	andi	v0,v0,0x2
    c31c:	144000b2 	bnez	v0,0xc5e8
    c320:	3c09fff0 	lui	t1,0xfff0
    c324:	24020e00 	li	v0,3584
    c328:	af820238 	sw	v0,568(gp)
    c32c:	8f840054 	lw	a0,84(gp)
    c330:	8f820054 	lw	v0,84(gp)
    c334:	24030008 	li	v1,8
    c338:	3c010001 	lui	at,0x1
    c33c:	ac236d98 	sw	v1,28056(at)
    c340:	10000002 	b	0xc34c
    c344:	248401f4 	addiu	a0,a0,500
    c348:	8f820054 	lw	v0,84(gp)
    c34c:	00821023 	subu	v0,a0,v0
    c350:	2c4201f5 	sltiu	v0,v0,501
    c354:	1440fffc 	bnez	v0,0xc348
    c358:	3c0200c8 	lui	v0,0xc8
    c35c:	344201fb 	ori	v0,v0,0x1fb
    c360:	af820238 	sw	v0,568(gp)
    c364:	8f830054 	lw	v1,84(gp)
    c368:	8f820054 	lw	v0,84(gp)
    c36c:	10000002 	b	0xc378
    c370:	246301f4 	addiu	v1,v1,500
    c374:	8f820054 	lw	v0,84(gp)
    c378:	00621023 	subu	v0,v1,v0
    c37c:	2c4201f5 	sltiu	v0,v0,501
    c380:	1440fffc 	bnez	v0,0xc374
    c384:	00008021 	move	s0,zero
    c388:	24120001 	li	s2,1
    c38c:	24110009 	li	s1,9
    c390:	0c004482 	jal	0x11208
    c394:	00000000 	nop
    c398:	3c010001 	lui	at,0x1
    c39c:	ac326db4 	sw	s2,28084(at)
    c3a0:	0c004547 	jal	0x1151c
    c3a4:	00000000 	nop
    c3a8:	3c020001 	lui	v0,0x1
    c3ac:	8c426db4 	lw	v0,28084(v0)
    c3b0:	1451fffb 	bne	v0,s1,0xc3a0
    c3b4:	3c0200c8 	lui	v0,0xc8
    c3b8:	344201f6 	ori	v0,v0,0x1f6
    c3bc:	af820238 	sw	v0,568(gp)
    c3c0:	8f830054 	lw	v1,84(gp)
    c3c4:	8f820054 	lw	v0,84(gp)
    c3c8:	10000002 	b	0xc3d4
    c3cc:	2463000a 	addiu	v1,v1,10
    c3d0:	8f820054 	lw	v0,84(gp)
    c3d4:	00621023 	subu	v0,v1,v0
    c3d8:	2c42000b 	sltiu	v0,v0,11
    c3dc:	1440fffc 	bnez	v0,0xc3d0
    c3e0:	00000000 	nop
    c3e4:	8f820220 	lw	v0,544(gp)
    c3e8:	24040001 	li	a0,1
    c3ec:	34420002 	ori	v0,v0,0x2
    c3f0:	af820220 	sw	v0,544(gp)
    c3f4:	8f830200 	lw	v1,512(gp)
    c3f8:	24057fff 	li	a1,32767
    c3fc:	2402fffd 	li	v0,-3
    c400:	00621824 	and	v1,v1,v0
    c404:	af830200 	sw	v1,512(gp)
    c408:	af840204 	sw	a0,516(gp)
    c40c:	8f830054 	lw	v1,84(gp)
    c410:	8f820054 	lw	v0,84(gp)
    c414:	10000002 	b	0xc420
    c418:	24630001 	addiu	v1,v1,1
    c41c:	8f820054 	lw	v0,84(gp)
    c420:	00621023 	subu	v0,v1,v0
    c424:	2c420002 	sltiu	v0,v0,2
    c428:	1440fffc 	bnez	v0,0xc41c
    c42c:	00000000 	nop
    c430:	8f820224 	lw	v0,548(gp)
    c434:	14440005 	bne	v0,a0,0xc44c
    c438:	34028000 	li	v0,0x8000
    c43c:	00042040 	sll	a0,a0,0x1
    c440:	00a4102b 	sltu	v0,a1,a0
    c444:	1040fff0 	beqz	v0,0xc408
    c448:	34028000 	li	v0,0x8000
    c44c:	1082ffa0 	beq	a0,v0,0xc2d0
    c450:	26100001 	addiu	s0,s0,1
    c454:	2e020014 	sltiu	v0,s0,20
    c458:	1440ffcd 	bnez	v0,0xc390
    c45c:	24020004 	li	v0,4
    c460:	3c010001 	lui	at,0x1
    c464:	ac226d98 	sw	v0,28056(at)
    c468:	00008021 	move	s0,zero
    c46c:	24120009 	li	s2,9
    c470:	3c11ffff 	lui	s1,0xffff
    c474:	36313f7f 	ori	s1,s1,0x3f7f
    c478:	0c004482 	jal	0x11208
    c47c:	00000000 	nop
    c480:	24020001 	li	v0,1
    c484:	3c010001 	lui	at,0x1
    c488:	ac226db4 	sw	v0,28084(at)
    c48c:	0c004547 	jal	0x1151c
    c490:	00000000 	nop
    c494:	3c020001 	lui	v0,0x1
    c498:	8c426db4 	lw	v0,28084(v0)
    c49c:	1452fffb 	bne	v0,s2,0xc48c
    c4a0:	00000000 	nop
    c4a4:	8f820044 	lw	v0,68(gp)
    c4a8:	00511024 	and	v0,v0,s1
    c4ac:	34425080 	ori	v0,v0,0x5080
    c4b0:	af820044 	sw	v0,68(gp)
    c4b4:	8f830054 	lw	v1,84(gp)
    c4b8:	8f820054 	lw	v0,84(gp)
    c4bc:	10000002 	b	0xc4c8
    c4c0:	2463000a 	addiu	v1,v1,10
    c4c4:	8f820054 	lw	v0,84(gp)
    c4c8:	00621023 	subu	v0,v1,v0
    c4cc:	2c42000b 	sltiu	v0,v0,11
    c4d0:	1440fffc 	bnez	v0,0xc4c4
    c4d4:	00000000 	nop
    c4d8:	8f820044 	lw	v0,68(gp)
    c4dc:	00511024 	and	v0,v0,s1
    c4e0:	3442f080 	ori	v0,v0,0xf080
    c4e4:	af820044 	sw	v0,68(gp)
    c4e8:	8f830054 	lw	v1,84(gp)
    c4ec:	8f820054 	lw	v0,84(gp)
    c4f0:	10000002 	b	0xc4fc
    c4f4:	2463000a 	addiu	v1,v1,10
    c4f8:	8f820054 	lw	v0,84(gp)
    c4fc:	00621023 	subu	v0,v1,v0
    c500:	2c42000b 	sltiu	v0,v0,11
    c504:	1440fffc 	bnez	v0,0xc4f8
    c508:	00000000 	nop
    c50c:	8f820220 	lw	v0,544(gp)
    c510:	3c03f700 	lui	v1,0xf700
    c514:	00431025 	or	v0,v0,v1
    c518:	af820220 	sw	v0,544(gp)
    c51c:	8f830054 	lw	v1,84(gp)
    c520:	8f820054 	lw	v0,84(gp)
    c524:	10000002 	b	0xc530
    c528:	24630064 	addiu	v1,v1,100
    c52c:	8f820054 	lw	v0,84(gp)
    c530:	00621023 	subu	v0,v1,v0
    c534:	2c420065 	sltiu	v0,v0,101
    c538:	1440fffc 	bnez	v0,0xc52c
    c53c:	00000000 	nop
    c540:	8f820220 	lw	v0,544(gp)
    c544:	24040001 	li	a0,1
    c548:	34420002 	ori	v0,v0,0x2
    c54c:	af820220 	sw	v0,544(gp)
    c550:	8f830200 	lw	v1,512(gp)
    c554:	24057fff 	li	a1,32767
    c558:	2402fffd 	li	v0,-3
    c55c:	00621824 	and	v1,v1,v0
    c560:	af830200 	sw	v1,512(gp)
    c564:	af840204 	sw	a0,516(gp)
    c568:	8f830054 	lw	v1,84(gp)
    c56c:	8f820054 	lw	v0,84(gp)
    c570:	10000002 	b	0xc57c
    c574:	24630001 	addiu	v1,v1,1
    c578:	8f820054 	lw	v0,84(gp)
    c57c:	00621023 	subu	v0,v1,v0
    c580:	2c420002 	sltiu	v0,v0,2
    c584:	1440fffc 	bnez	v0,0xc578
    c588:	00000000 	nop
    c58c:	8f820224 	lw	v0,548(gp)
    c590:	14440005 	bne	v0,a0,0xc5a8
    c594:	34028000 	li	v0,0x8000
    c598:	00042040 	sll	a0,a0,0x1
    c59c:	00a4102b 	sltu	v0,a1,a0
    c5a0:	1040fff0 	beqz	v0,0xc564
    c5a4:	34028000 	li	v0,0x8000
    c5a8:	1082ff50 	beq	a0,v0,0xc2ec
    c5ac:	26100001 	addiu	s0,s0,1
    c5b0:	2e020064 	sltiu	v0,s0,100
    c5b4:	1440ffb0 	bnez	v0,0xc478
    c5b8:	00000000 	nop
    c5bc:	3c020001 	lui	v0,0x1
    c5c0:	8c426d94 	lw	v0,28052(v0)
    c5c4:	30420004 	andi	v0,v0,0x4
    c5c8:	14400007 	bnez	v0,0xc5e8
    c5cc:	3c09fff0 	lui	t1,0xfff0
    c5d0:	8f820044 	lw	v0,68(gp)
    c5d4:	3c03ffff 	lui	v1,0xffff
    c5d8:	34633f7f 	ori	v1,v1,0x3f7f
    c5dc:	00431024 	and	v0,v0,v1
    c5e0:	af820044 	sw	v0,68(gp)
    c5e4:	3c09fff0 	lui	t1,0xfff0
    c5e8:	3529bdc0 	ori	t1,t1,0xbdc0
    c5ec:	3c060001 	lui	a2,0x1
    c5f0:	8cc66d94 	lw	a2,28052(a2)
    c5f4:	3c040001 	lui	a0,0x1
    c5f8:	24846ae0 	addiu	a0,a0,27360
    c5fc:	24020001 	li	v0,1
    c600:	3c010001 	lui	at,0x1
    c604:	ac226d9c 	sw	v0,28060(at)
    c608:	8f820054 	lw	v0,84(gp)
    c60c:	3c070001 	lui	a3,0x1
    c610:	8ce76f40 	lw	a3,28480(a3)
    c614:	3c030001 	lui	v1,0x1
    c618:	94636f24 	lhu	v1,28452(v1)
    c61c:	3c080001 	lui	t0,0x1
    c620:	95086f26 	lhu	t0,28454(t0)
    c624:	3c05000d 	lui	a1,0xd
    c628:	34a50100 	ori	a1,a1,0x100
    c62c:	3c010001 	lui	at,0x1
    c630:	ac206d98 	sw	zero,28056(at)
    c634:	00491021 	addu	v0,v0,t1
    c638:	3c010001 	lui	at,0x1
    c63c:	ac226f30 	sw	v0,28464(at)
    c640:	afa30010 	sw	v1,16(sp)
    c644:	0c002b3b 	jal	0xacec
    c648:	afa80014 	sw	t0,20(sp)
    c64c:	8fbf002c 	lw	ra,44(sp)
    c650:	8fb20028 	lw	s2,40(sp)
    c654:	8fb10024 	lw	s1,36(sp)
    c658:	8fb00020 	lw	s0,32(sp)
    c65c:	03e00008 	jr	ra
    c660:	27bd0030 	addiu	sp,sp,48
    c664:	27bdffe8 	addiu	sp,sp,-24
    c668:	3c050001 	lui	a1,0x1
    c66c:	8ca56d98 	lw	a1,28056(a1)
    c670:	24060004 	li	a2,4
    c674:	24020001 	li	v0,1
    c678:	14a20014 	bne	a1,v0,0xc6cc
    c67c:	afbf0010 	sw	ra,16(sp)
    c680:	3c020002 	lui	v0,0x2
    c684:	8c428ffc 	lw	v0,-28676(v0)
    c688:	30428000 	andi	v0,v0,0x8000
    c68c:	10400005 	beqz	v0,0xc6a4
    c690:	3c04000f 	lui	a0,0xf
    c694:	3c030001 	lui	v1,0x1
    c698:	8c636f40 	lw	v1,28480(v1)
    c69c:	10000005 	b	0xc6b4
    c6a0:	34844240 	ori	a0,a0,0x4240
    c6a4:	3c040004 	lui	a0,0x4
    c6a8:	3c030001 	lui	v1,0x1
    c6ac:	8c636f40 	lw	v1,28480(v1)
    c6b0:	348493e0 	ori	a0,a0,0x93e0
    c6b4:	24020005 	li	v0,5
    c6b8:	14620016 	bne	v1,v0,0xc714
    c6bc:	00000000 	nop
    c6c0:	3c04003d 	lui	a0,0x3d
    c6c4:	10000013 	b	0xc714
    c6c8:	34840900 	ori	a0,a0,0x900
    c6cc:	3c020002 	lui	v0,0x2
    c6d0:	8c428ff8 	lw	v0,-28680(v0)
    c6d4:	30428000 	andi	v0,v0,0x8000
    c6d8:	10400005 	beqz	v0,0xc6f0
    c6dc:	3c04001e 	lui	a0,0x1e
    c6e0:	3c030001 	lui	v1,0x1
    c6e4:	8c636f40 	lw	v1,28480(v1)
    c6e8:	10000005 	b	0xc700
    c6ec:	34848480 	ori	a0,a0,0x8480
    c6f0:	3c04000f 	lui	a0,0xf
    c6f4:	3c030001 	lui	v1,0x1
    c6f8:	8c636f40 	lw	v1,28480(v1)
    c6fc:	34844240 	ori	a0,a0,0x4240
    c700:	24020005 	li	v0,5
    c704:	14620003 	bne	v1,v0,0xc714
    c708:	00000000 	nop
    c70c:	3c04007a 	lui	a0,0x7a
    c710:	34841200 	ori	a0,a0,0x1200
    c714:	3c020001 	lui	v0,0x1
    c718:	8c426f30 	lw	v0,28464(v0)
    c71c:	8f830054 	lw	v1,84(gp)
    c720:	00441021 	addu	v0,v0,a0
    c724:	00431023 	subu	v0,v0,v1
    c728:	0044102b 	sltu	v0,v0,a0
    c72c:	1440004c 	bnez	v0,0xc860
    c730:	00000000 	nop
    c734:	3c020001 	lui	v0,0x1
    c738:	8c426da0 	lw	v0,28064(v0)
    c73c:	14400048 	bnez	v0,0xc860
    c740:	00000000 	nop
    c744:	3c010001 	lui	at,0x1
    c748:	10c00025 	beqz	a2,0xc7e0
    c74c:	ac206db0 	sw	zero,28080(at)
    c750:	3c090001 	lui	t1,0x1
    c754:	8d296d94 	lw	t1,28052(t1)
    c758:	24070001 	li	a3,1
    c75c:	3c044000 	lui	a0,0x4000
    c760:	3c080002 	lui	t0,0x2
    c764:	25088ffc 	addiu	t0,t0,-28676
    c768:	250afffc 	addiu	t2,t0,-4
    c76c:	00052842 	srl	a1,a1,0x1
    c770:	14a00002 	bnez	a1,0xc77c
    c774:	24c6ffff 	addiu	a2,a2,-1
    c778:	24050008 	li	a1,8
    c77c:	00a91024 	and	v0,a1,t1
    c780:	10400010 	beqz	v0,0xc7c4
    c784:	00000000 	nop
    c788:	14a70008 	bne	a1,a3,0xc7ac
    c78c:	00000000 	nop
    c790:	8d020000 	lw	v0,0(t0)
    c794:	00441024 	and	v0,v0,a0
    c798:	1040000a 	beqz	v0,0xc7c4
    c79c:	00000000 	nop
    c7a0:	3c010001 	lui	at,0x1
    c7a4:	10000007 	b	0xc7c4
    c7a8:	ac256db0 	sw	a1,28080(at)
    c7ac:	8d420000 	lw	v0,0(t2)
    c7b0:	00441024 	and	v0,v0,a0
    c7b4:	10400003 	beqz	v0,0xc7c4
    c7b8:	00000000 	nop
    c7bc:	3c010001 	lui	at,0x1
    c7c0:	ac276db0 	sw	a3,28080(at)
    c7c4:	3c020001 	lui	v0,0x1
    c7c8:	8c426db0 	lw	v0,28080(v0)
    c7cc:	0006182b 	sltu	v1,zero,a2
    c7d0:	2c420001 	sltiu	v0,v0,1
    c7d4:	00431024 	and	v0,v0,v1
    c7d8:	5440ffe5 	bnezl	v0,0xc770
    c7dc:	00052842 	srl	a1,a1,0x1
    c7e0:	8f820054 	lw	v0,84(gp)
    c7e4:	3c030001 	lui	v1,0x1
    c7e8:	8c636db0 	lw	v1,28080(v1)
    c7ec:	3c010001 	lui	at,0x1
    c7f0:	ac226f30 	sw	v0,28464(at)
    c7f4:	1060003b 	beqz	v1,0xc8e4
    c7f8:	24020005 	li	v0,5
    c7fc:	3c030001 	lui	v1,0x1
    c800:	8c636f40 	lw	v1,28480(v1)
    c804:	3c010001 	lui	at,0x1
    c808:	ac256d98 	sw	a1,28056(at)
    c80c:	14620012 	bne	v1,v0,0xc858
    c810:	24020001 	li	v0,1
    c814:	3c020002 	lui	v0,0x2
    c818:	8c428ff8 	lw	v0,-28680(v0)
    c81c:	3c032000 	lui	v1,0x2000
    c820:	34635000 	ori	v1,v1,0x5000
    c824:	00431024 	and	v0,v0,v1
    c828:	14400006 	bnez	v0,0xc844
    c82c:	24020001 	li	v0,1
    c830:	3c010001 	lui	at,0x1
    c834:	ac206f1c 	sw	zero,28444(at)
    c838:	3c010001 	lui	at,0x1
    c83c:	ac226d98 	sw	v0,28056(at)
    c840:	24020001 	li	v0,1
    c844:	3c010001 	lui	at,0x1
    c848:	ac226e24 	sw	v0,28196(at)
    c84c:	3c010001 	lui	at,0x1
    c850:	ac226da4 	sw	v0,28068(at)
    c854:	24020001 	li	v0,1
    c858:	3c010001 	lui	at,0x1
    c85c:	ac226d9c 	sw	v0,28060(at)
    c860:	3c020001 	lui	v0,0x1
    c864:	8c426db0 	lw	v0,28080(v0)
    c868:	1040001e 	beqz	v0,0xc8e4
    c86c:	00000000 	nop
    c870:	3c020001 	lui	v0,0x1
    c874:	8c426d9c 	lw	v0,28060(v0)
    c878:	10400008 	beqz	v0,0xc89c
    c87c:	24020001 	li	v0,1
    c880:	3c010001 	lui	at,0x1
    c884:	ac206d9c 	sw	zero,28060(at)
    c888:	aee204b8 	sw	v0,1208(s7)
    c88c:	3c010001 	lui	at,0x1
    c890:	ac206e1c 	sw	zero,28188(at)
    c894:	3c010001 	lui	at,0x1
    c898:	ac226dd4 	sw	v0,28116(at)
    c89c:	8ee304b8 	lw	v1,1208(s7)
    c8a0:	24020008 	li	v0,8
    c8a4:	10620005 	beq	v1,v0,0xc8bc
    c8a8:	24020001 	li	v0,1
    c8ac:	0c004239 	jal	0x108e4
    c8b0:	00000000 	nop
    c8b4:	1000000b 	b	0xc8e4
    c8b8:	00000000 	nop
    c8bc:	3c030001 	lui	v1,0x1
    c8c0:	8c636d98 	lw	v1,28056(v1)
    c8c4:	10620007 	beq	v1,v0,0xc8e4
    c8c8:	2402000e 	li	v0,14
    c8cc:	3c030002 	lui	v1,0x2
    c8d0:	8c638f90 	lw	v1,-28784(v1)
    c8d4:	10620003 	beq	v1,v0,0xc8e4
    c8d8:	00000000 	nop
    c8dc:	0c004e9c 	jal	0x13a70
    c8e0:	8f840220 	lw	a0,544(gp)
    c8e4:	8fbf0010 	lw	ra,16(sp)
    c8e8:	03e00008 	jr	ra
    c8ec:	27bd0018 	addiu	sp,sp,24
    c8f0:	27bdffe0 	addiu	sp,sp,-32
    c8f4:	3c03fdff 	lui	v1,0xfdff
    c8f8:	3c040001 	lui	a0,0x1
    c8fc:	8c846d98 	lw	a0,28056(a0)
    c900:	3c020001 	lui	v0,0x1
    c904:	8c426dc0 	lw	v0,28096(v0)
    c908:	3463ffff 	ori	v1,v1,0xffff
    c90c:	0283a024 	and	s4,s4,v1
    c910:	14820006 	bne	a0,v0,0xc92c
    c914:	afbf0018 	sw	ra,24(sp)
    c918:	8ee304b8 	lw	v1,1208(s7)
    c91c:	3c020001 	lui	v0,0x1
    c920:	8c426dc4 	lw	v0,28100(v0)
    c924:	10620006 	beq	v1,v0,0xc940
    c928:	00000000 	nop
    c92c:	8ee204b8 	lw	v0,1208(s7)
    c930:	3c010001 	lui	at,0x1
    c934:	ac246dc0 	sw	a0,28096(at)
    c938:	3c010001 	lui	at,0x1
    c93c:	ac226dc4 	sw	v0,28100(at)
    c940:	3c030001 	lui	v1,0x1
    c944:	8c636d98 	lw	v1,28056(v1)
    c948:	24020002 	li	v0,2
    c94c:	1062019c 	beq	v1,v0,0xcfc0
    c950:	2c620003 	sltiu	v0,v1,3
    c954:	10400005 	beqz	v0,0xc96c
    c958:	24020001 	li	v0,1
    c95c:	1062000a 	beq	v1,v0,0xc988
    c960:	00000000 	nop
    c964:	10000226 	b	0xd200
    c968:	00000000 	nop
    c96c:	24020004 	li	v0,4
    c970:	106200b6 	beq	v1,v0,0xcc4c
    c974:	24020008 	li	v0,8
    c978:	1062010a 	beq	v1,v0,0xcda4
    c97c:	24020001 	li	v0,1
    c980:	1000021f 	b	0xd200
    c984:	00000000 	nop
    c988:	8ee204b8 	lw	v0,1208(s7)
    c98c:	2443ffff 	addiu	v1,v0,-1
    c990:	2c620008 	sltiu	v0,v1,8
    c994:	1040021c 	beqz	v0,0xd208
    c998:	00031080 	sll	v0,v1,0x2
    c99c:	3c010001 	lui	at,0x1
    c9a0:	00220821 	addu	at,at,v0
    c9a4:	8c226af8 	lw	v0,27384(at)
    c9a8:	00400008 	jr	v0
    c9ac:	00000000 	nop
    c9b0:	3c030001 	lui	v1,0x1
    c9b4:	8c636f40 	lw	v1,28480(v1)
    c9b8:	24020005 	li	v0,5
    c9bc:	14620010 	bne	v1,v0,0xca00
    c9c0:	00000000 	nop
    c9c4:	3c020001 	lui	v0,0x1
    c9c8:	8c426da4 	lw	v0,28068(v0)
    c9cc:	10400008 	beqz	v0,0xc9f0
    c9d0:	24020003 	li	v0,3
    c9d4:	0c004482 	jal	0x11208
    c9d8:	00000000 	nop
    c9dc:	24020002 	li	v0,2
    c9e0:	aee204b8 	sw	v0,1208(s7)
    c9e4:	3c010001 	lui	at,0x1
    c9e8:	10000002 	b	0xc9f4
    c9ec:	ac206da4 	sw	zero,28068(at)
    c9f0:	aee204b8 	sw	v0,1208(s7)
    c9f4:	3c010001 	lui	at,0x1
    c9f8:	10000203 	b	0xd208
    c9fc:	ac206d30 	sw	zero,27952(at)
    ca00:	0c004482 	jal	0x11208
    ca04:	00000000 	nop
    ca08:	3c020001 	lui	v0,0x1
    ca0c:	8c426da4 	lw	v0,28068(v0)
    ca10:	3c010001 	lui	at,0x1
    ca14:	ac206d30 	sw	zero,27952(at)
    ca18:	1440017a 	bnez	v0,0xd004
    ca1c:	24020002 	li	v0,2
    ca20:	1000019d 	b	0xd098
    ca24:	24020007 	li	v0,7
    ca28:	3c030001 	lui	v1,0x1
    ca2c:	8c636f40 	lw	v1,28480(v1)
    ca30:	24020005 	li	v0,5
    ca34:	14620003 	bne	v1,v0,0xca44
    ca38:	24020001 	li	v0,1
    ca3c:	3c010001 	lui	at,0x1
    ca40:	ac226dd0 	sw	v0,28112(at)
    ca44:	0c0045ff 	jal	0x117fc
    ca48:	00000000 	nop
    ca4c:	3c030001 	lui	v1,0x1
    ca50:	8c636dd0 	lw	v1,28112(v1)
    ca54:	10000174 	b	0xd028
    ca58:	24020011 	li	v0,17
    ca5c:	3c050001 	lui	a1,0x1
    ca60:	8ca56d98 	lw	a1,28056(a1)
    ca64:	3c060002 	lui	a2,0x2
    ca68:	8cc68ffc 	lw	a2,-28676(a2)
    ca6c:	0c005104 	jal	0x14410
    ca70:	00002021 	move	a0,zero
    ca74:	24020005 	li	v0,5
    ca78:	3c010001 	lui	at,0x1
    ca7c:	ac206da4 	sw	zero,28068(at)
    ca80:	100001e1 	b	0xd208
    ca84:	aee204b8 	sw	v0,1208(s7)
    ca88:	3c040001 	lui	a0,0x1
    ca8c:	24846aec 	addiu	a0,a0,27372
    ca90:	3c05000f 	lui	a1,0xf
    ca94:	34a50100 	ori	a1,a1,0x100
    ca98:	00003021 	move	a2,zero
    ca9c:	00003821 	move	a3,zero
    caa0:	afa00010 	sw	zero,16(sp)
    caa4:	0c002b3b 	jal	0xacec
    caa8:	afa00014 	sw	zero,20(sp)
    caac:	100001d6 	b	0xd208
    cab0:	00000000 	nop
    cab4:	8f820220 	lw	v0,544(gp)
    cab8:	3c030004 	lui	v1,0x4
    cabc:	00431024 	and	v0,v0,v1
    cac0:	14400175 	bnez	v0,0xd098
    cac4:	24020007 	li	v0,7
    cac8:	8f830054 	lw	v1,84(gp)
    cacc:	3c020001 	lui	v0,0x1
    cad0:	8c426f28 	lw	v0,28456(v0)
    cad4:	2463d8f0 	addiu	v1,v1,-10000
    cad8:	00431023 	subu	v0,v0,v1
    cadc:	2c422710 	sltiu	v0,v0,10000
    cae0:	14400003 	bnez	v0,0xcaf0
    cae4:	24020001 	li	v0,1
    cae8:	3c010001 	lui	at,0x1
    caec:	ac226d9c 	sw	v0,28060(at)
    caf0:	3c020002 	lui	v0,0x2
    caf4:	8c428ffc 	lw	v0,-28676(v0)
    caf8:	30425000 	andi	v0,v0,0x5000
    cafc:	104001c2 	beqz	v0,0xd208
    cb00:	00000000 	nop
    cb04:	8f820220 	lw	v0,544(gp)
    cb08:	30428000 	andi	v0,v0,0x8000
    cb0c:	1040017d 	beqz	v0,0xd104
    cb10:	00000000 	nop
    cb14:	10000175 	b	0xd0ec
    cb18:	00000000 	nop
    cb1c:	3c050001 	lui	a1,0x1
    cb20:	8ca56d98 	lw	a1,28056(a1)
    cb24:	0c00529b 	jal	0x14a6c
    cb28:	00002021 	move	a0,zero
    cb2c:	0c00551b 	jal	0x1546c
    cb30:	00002021 	move	a0,zero
    cb34:	3c030002 	lui	v1,0x2
    cb38:	8c638ff4 	lw	v1,-28684(v1)
    cb3c:	046101b0 	bgez	v1,0xd200
    cb40:	24020001 	li	v0,1
    cb44:	3c020008 	lui	v0,0x8
    cb48:	00621024 	and	v0,v1,v0
    cb4c:	10400006 	beqz	v0,0xcb68
    cb50:	00000000 	nop
    cb54:	8f820214 	lw	v0,532(gp)
    cb58:	3c03ffff 	lui	v1,0xffff
    cb5c:	00431024 	and	v0,v0,v1
    cb60:	10000005 	b	0xcb78
    cb64:	3442251f 	ori	v0,v0,0x251f
    cb68:	8f820214 	lw	v0,532(gp)
    cb6c:	3c03ffff 	lui	v1,0xffff
    cb70:	00431024 	and	v0,v0,v1
    cb74:	3442241f 	ori	v0,v0,0x241f
    cb78:	af820214 	sw	v0,532(gp)
    cb7c:	8f820220 	lw	v0,544(gp)
    cb80:	3c030200 	lui	v1,0x200
    cb84:	34420002 	ori	v0,v0,0x2
    cb88:	af820220 	sw	v0,544(gp)
    cb8c:	24020008 	li	v0,8
    cb90:	aee204b8 	sw	v0,1208(s7)
    cb94:	8f820220 	lw	v0,544(gp)
    cb98:	0283a025 	or	s4,s4,v1
    cb9c:	3c030004 	lui	v1,0x4
    cba0:	00431024 	and	v0,v0,v1
    cba4:	14400016 	bnez	v0,0xcc00
    cba8:	00000000 	nop
    cbac:	3c020002 	lui	v0,0x2
    cbb0:	8c428ffc 	lw	v0,-28676(v0)
    cbb4:	30425000 	andi	v0,v0,0x5000
    cbb8:	1040000d 	beqz	v0,0xcbf0
    cbbc:	00000000 	nop
    cbc0:	8f820220 	lw	v0,544(gp)
    cbc4:	30428000 	andi	v0,v0,0x8000
    cbc8:	10400006 	beqz	v0,0xcbe4
    cbcc:	00000000 	nop
    cbd0:	8f820220 	lw	v0,544(gp)
    cbd4:	3c03ffff 	lui	v1,0xffff
    cbd8:	34637fff 	ori	v1,v1,0x7fff
    cbdc:	10000003 	b	0xcbec
    cbe0:	00431024 	and	v0,v0,v1
    cbe4:	8f820220 	lw	v0,544(gp)
    cbe8:	34428000 	ori	v0,v0,0x8000
    cbec:	af820220 	sw	v0,544(gp)
    cbf0:	8f820220 	lw	v0,544(gp)
    cbf4:	3c03f700 	lui	v1,0xf700
    cbf8:	00431025 	or	v0,v0,v1
    cbfc:	af820220 	sw	v0,544(gp)
    cc00:	3c030001 	lui	v1,0x1
    cc04:	8c636f40 	lw	v1,28480(v1)
    cc08:	24020005 	li	v0,5
    cc0c:	1462000a 	bne	v1,v0,0xcc38
    cc10:	00000000 	nop
    cc14:	3c020001 	lui	v0,0x1
    cc18:	94426f26 	lhu	v0,28454(v0)
    cc1c:	24429fbc 	addiu	v0,v0,-24644
    cc20:	2c420004 	sltiu	v0,v0,4
    cc24:	10400004 	beqz	v0,0xcc38
    cc28:	24040018 	li	a0,24
    cc2c:	24050002 	li	a1,2
    cc30:	0c004ddb 	jal	0x1376c
    cc34:	24060020 	li	a2,32
    cc38:	0c003e6d 	jal	0xf9b4
    cc3c:	00000000 	nop
    cc40:	3c010001 	lui	at,0x1
    cc44:	10000170 	b	0xd208
    cc48:	ac206e20 	sw	zero,28192(at)
    cc4c:	8ee204b8 	lw	v0,1208(s7)
    cc50:	2443ffff 	addiu	v1,v0,-1
    cc54:	2c620008 	sltiu	v0,v1,8
    cc58:	1040016b 	beqz	v0,0xd208
    cc5c:	00031080 	sll	v0,v1,0x2
    cc60:	3c010001 	lui	at,0x1
    cc64:	00220821 	addu	at,at,v0
    cc68:	8c226b18 	lw	v0,27416(at)
    cc6c:	00400008 	jr	v0
    cc70:	00000000 	nop
    cc74:	0c004547 	jal	0x1151c
    cc78:	00000000 	nop
    cc7c:	3c030001 	lui	v1,0x1
    cc80:	8c636db4 	lw	v1,28084(v1)
    cc84:	100000e8 	b	0xd028
    cc88:	24020009 	li	v0,9
    cc8c:	3c020002 	lui	v0,0x2
    cc90:	8c428ff8 	lw	v0,-28680(v0)
    cc94:	30424000 	andi	v0,v0,0x4000
    cc98:	10400004 	beqz	v0,0xccac
    cc9c:	00000000 	nop
    cca0:	8f820044 	lw	v0,68(gp)
    cca4:	10000006 	b	0xccc0
    cca8:	3442f080 	ori	v0,v0,0xf080
    ccac:	8f820044 	lw	v0,68(gp)
    ccb0:	3c03ffff 	lui	v1,0xffff
    ccb4:	34633f7f 	ori	v1,v1,0x3f7f
    ccb8:	00431024 	and	v0,v0,v1
    ccbc:	3442a080 	ori	v0,v0,0xa080
    ccc0:	af820044 	sw	v0,68(gp)
    ccc4:	8f830054 	lw	v1,84(gp)
    ccc8:	100000ea 	b	0xd074
    cccc:	24020004 	li	v0,4
    ccd0:	8f830054 	lw	v1,84(gp)
    ccd4:	3c020001 	lui	v0,0x1
    ccd8:	8c426f28 	lw	v0,28456(v0)
    ccdc:	2463d8f0 	addiu	v1,v1,-10000
    cce0:	00431023 	subu	v0,v0,v1
    cce4:	2c422710 	sltiu	v0,v0,10000
    cce8:	14400147 	bnez	v0,0xd208
    ccec:	24020005 	li	v0,5
    ccf0:	100000d8 	b	0xd054
    ccf4:	00000000 	nop
    ccf8:	8f820220 	lw	v0,544(gp)
    ccfc:	3c03f700 	lui	v1,0xf700
    cd00:	00431025 	or	v0,v0,v1
    cd04:	af820220 	sw	v0,544(gp)
    cd08:	af800204 	sw	zero,516(gp)
    cd0c:	3c010002 	lui	at,0x2
    cd10:	100000d6 	b	0xd06c
    cd14:	ac208fe0 	sw	zero,-28704(at)
    cd18:	8f830054 	lw	v1,84(gp)
    cd1c:	3c020001 	lui	v0,0x1
    cd20:	8c426f28 	lw	v0,28456(v0)
    cd24:	2463fff6 	addiu	v1,v1,-10
    cd28:	00431023 	subu	v0,v0,v1
    cd2c:	2c42000a 	sltiu	v0,v0,10
    cd30:	14400135 	bnez	v0,0xd208
    cd34:	24020007 	li	v0,7
    cd38:	100000d7 	b	0xd098
    cd3c:	00000000 	nop
    cd40:	0c003f50 	jal	0xfd40
    cd44:	00000000 	nop
    cd48:	1040012d 	beqz	v0,0xd200
    cd4c:	24020001 	li	v0,1
    cd50:	8f820214 	lw	v0,532(gp)
    cd54:	3c03ffff 	lui	v1,0xffff
    cd58:	3c040001 	lui	a0,0x1
    cd5c:	8c846f1c 	lw	a0,28444(a0)
    cd60:	00431024 	and	v0,v0,v1
    cd64:	3442251f 	ori	v0,v0,0x251f
    cd68:	af820214 	sw	v0,532(gp)
    cd6c:	24020008 	li	v0,8
    cd70:	10800005 	beqz	a0,0xcd88
    cd74:	aee204b8 	sw	v0,1208(s7)
    cd78:	3c020001 	lui	v0,0x1
    cd7c:	8c426e44 	lw	v0,28228(v0)
    cd80:	10400064 	beqz	v0,0xcf14
    cd84:	24020001 	li	v0,1
    cd88:	8f820220 	lw	v0,544(gp)
    cd8c:	3c030008 	lui	v1,0x8
    cd90:	00431024 	and	v0,v0,v1
    cd94:	1040006a 	beqz	v0,0xcf40
    cd98:	3c020200 	lui	v0,0x200
    cd9c:	10000078 	b	0xcf80
    cda0:	00000000 	nop
    cda4:	8ee204b8 	lw	v0,1208(s7)
    cda8:	2443ffff 	addiu	v1,v0,-1
    cdac:	2c620007 	sltiu	v0,v1,7
    cdb0:	10400115 	beqz	v0,0xd208
    cdb4:	00031080 	sll	v0,v1,0x2
    cdb8:	3c010001 	lui	at,0x1
    cdbc:	00220821 	addu	at,at,v0
    cdc0:	8c226b38 	lw	v0,27448(at)
    cdc4:	00400008 	jr	v0
    cdc8:	00000000 	nop
    cdcc:	0c003daf 	jal	0xf6bc
    cdd0:	00000000 	nop
    cdd4:	3c010001 	lui	at,0x1
    cdd8:	ac206d9c 	sw	zero,28060(at)
    cddc:	af800204 	sw	zero,516(gp)
    cde0:	3c010002 	lui	at,0x2
    cde4:	0c004482 	jal	0x11208
    cde8:	ac208fe0 	sw	zero,-28704(at)
    cdec:	24020001 	li	v0,1
    cdf0:	3c010001 	lui	at,0x1
    cdf4:	ac226db4 	sw	v0,28084(at)
    cdf8:	24020002 	li	v0,2
    cdfc:	10000102 	b	0xd208
    ce00:	aee204b8 	sw	v0,1208(s7)
    ce04:	0c004547 	jal	0x1151c
    ce08:	00000000 	nop
    ce0c:	3c030001 	lui	v1,0x1
    ce10:	8c636db4 	lw	v1,28084(v1)
    ce14:	10000084 	b	0xd028
    ce18:	24020009 	li	v0,9
    ce1c:	3c020002 	lui	v0,0x2
    ce20:	8c428ff8 	lw	v0,-28680(v0)
    ce24:	30424000 	andi	v0,v0,0x4000
    ce28:	10400003 	beqz	v0,0xce38
    ce2c:	3c0200c8 	lui	v0,0xc8
    ce30:	10000002 	b	0xce3c
    ce34:	344201f6 	ori	v0,v0,0x1f6
    ce38:	344201fe 	ori	v0,v0,0x1fe
    ce3c:	af820238 	sw	v0,568(gp)
    ce40:	8f830054 	lw	v1,84(gp)
    ce44:	1000008b 	b	0xd074
    ce48:	24020004 	li	v0,4
    ce4c:	8f830054 	lw	v1,84(gp)
    ce50:	3c020001 	lui	v0,0x1
    ce54:	8c426f28 	lw	v0,28456(v0)
    ce58:	2463d8f0 	addiu	v1,v1,-10000
    ce5c:	00431023 	subu	v0,v0,v1
    ce60:	2c422710 	sltiu	v0,v0,10000
    ce64:	144000e8 	bnez	v0,0xd208
    ce68:	24020005 	li	v0,5
    ce6c:	10000079 	b	0xd054
    ce70:	00000000 	nop
    ce74:	8f820220 	lw	v0,544(gp)
    ce78:	3c03f700 	lui	v1,0xf700
    ce7c:	00431025 	or	v0,v0,v1
    ce80:	af820220 	sw	v0,544(gp)
    ce84:	af800204 	sw	zero,516(gp)
    ce88:	3c010002 	lui	at,0x2
    ce8c:	10000077 	b	0xd06c
    ce90:	ac208fe0 	sw	zero,-28704(at)
    ce94:	8f830054 	lw	v1,84(gp)
    ce98:	3c020001 	lui	v0,0x1
    ce9c:	8c426f28 	lw	v0,28456(v0)
    cea0:	2463fff6 	addiu	v1,v1,-10
    cea4:	00431023 	subu	v0,v0,v1
    cea8:	2c42000a 	sltiu	v0,v0,10
    ceac:	144000d6 	bnez	v0,0xd208
    ceb0:	24020007 	li	v0,7
    ceb4:	10000078 	b	0xd098
    ceb8:	00000000 	nop
    cebc:	0c003f50 	jal	0xfd40
    cec0:	00000000 	nop
    cec4:	104000ce 	beqz	v0,0xd200
    cec8:	24020001 	li	v0,1
    cecc:	8f820214 	lw	v0,532(gp)
    ced0:	3c03ffff 	lui	v1,0xffff
    ced4:	3c040001 	lui	a0,0x1
    ced8:	8c846f1c 	lw	a0,28444(a0)
    cedc:	00431024 	and	v0,v0,v1
    cee0:	3442251f 	ori	v0,v0,0x251f
    cee4:	af820214 	sw	v0,532(gp)
    cee8:	24020008 	li	v0,8
    ceec:	1080000f 	beqz	a0,0xcf2c
    cef0:	aee204b8 	sw	v0,1208(s7)
    cef4:	3c020001 	lui	v0,0x1
    cef8:	8c426e44 	lw	v0,28228(v0)
    cefc:	1440000b 	bnez	v0,0xcf2c
    cf00:	00000000 	nop
    cf04:	8f820220 	lw	v0,544(gp)
    cf08:	34420002 	ori	v0,v0,0x2
    cf0c:	af820220 	sw	v0,544(gp)
    cf10:	24020001 	li	v0,1
    cf14:	3c010002 	lui	at,0x2
    cf18:	ac228f90 	sw	v0,-28784(at)
    cf1c:	0c004e9c 	jal	0x13a70
    cf20:	8f840220 	lw	a0,544(gp)
    cf24:	10000016 	b	0xcf80
    cf28:	00000000 	nop
    cf2c:	8f820220 	lw	v0,544(gp)
    cf30:	3c030008 	lui	v1,0x8
    cf34:	00431024 	and	v0,v0,v1
    cf38:	14400011 	bnez	v0,0xcf80
    cf3c:	3c020200 	lui	v0,0x200
    cf40:	0282a025 	or	s4,s4,v0
    cf44:	2402000e 	li	v0,14
    cf48:	3c010002 	lui	at,0x2
    cf4c:	ac228f90 	sw	v0,-28784(at)
    cf50:	0c00551b 	jal	0x1546c
    cf54:	00002021 	move	a0,zero
    cf58:	8f820220 	lw	v0,544(gp)
    cf5c:	34420002 	ori	v0,v0,0x2
    cf60:	0c003e6d 	jal	0xf9b4
    cf64:	af820220 	sw	v0,544(gp)
    cf68:	3c050001 	lui	a1,0x1
    cf6c:	8ca56d98 	lw	a1,28056(a1)
    cf70:	0c00529b 	jal	0x14a6c
    cf74:	00002021 	move	a0,zero
    cf78:	100000a3 	b	0xd208
    cf7c:	00000000 	nop
    cf80:	3c020001 	lui	v0,0x1
    cf84:	8c426e44 	lw	v0,28228(v0)
    cf88:	1040009f 	beqz	v0,0xd208
    cf8c:	00000000 	nop
    cf90:	3c020001 	lui	v0,0x1
    cf94:	8c426e40 	lw	v0,28224(v0)
    cf98:	2442ffff 	addiu	v0,v0,-1
    cf9c:	3c010001 	lui	at,0x1
    cfa0:	ac226e40 	sw	v0,28224(at)
    cfa4:	14400098 	bnez	v0,0xd208
    cfa8:	24020002 	li	v0,2
    cfac:	3c010001 	lui	at,0x1
    cfb0:	ac206e44 	sw	zero,28228(at)
    cfb4:	3c010001 	lui	at,0x1
    cfb8:	10000093 	b	0xd208
    cfbc:	ac226e40 	sw	v0,28224(at)
    cfc0:	8ee204b8 	lw	v0,1208(s7)
    cfc4:	2443ffff 	addiu	v1,v0,-1
    cfc8:	2c620007 	sltiu	v0,v1,7
    cfcc:	1040008e 	beqz	v0,0xd208
    cfd0:	00031080 	sll	v0,v1,0x2
    cfd4:	3c010001 	lui	at,0x1
    cfd8:	00220821 	addu	at,at,v0
    cfdc:	8c226b58 	lw	v0,27480(at)
    cfe0:	00400008 	jr	v0
    cfe4:	00000000 	nop
    cfe8:	3c020001 	lui	v0,0x1
    cfec:	8c426da4 	lw	v0,28068(v0)
    cff0:	10400018 	beqz	v0,0xd054
    cff4:	24020005 	li	v0,5
    cff8:	0c004482 	jal	0x11208
    cffc:	00000000 	nop
    d000:	24020002 	li	v0,2
    d004:	aee204b8 	sw	v0,1208(s7)
    d008:	3c010001 	lui	at,0x1
    d00c:	1000007e 	b	0xd208
    d010:	ac206da4 	sw	zero,28068(at)
    d014:	0c004963 	jal	0x1258c
    d018:	00000000 	nop
    d01c:	3c030001 	lui	v1,0x1
    d020:	8c636dd4 	lw	v1,28116(v1)
    d024:	24020006 	li	v0,6
    d028:	14620077 	bne	v1,v0,0xd208
    d02c:	24020003 	li	v0,3
    d030:	10000075 	b	0xd208
    d034:	aee204b8 	sw	v0,1208(s7)
    d038:	3c050001 	lui	a1,0x1
    d03c:	8ca56d98 	lw	a1,28056(a1)
    d040:	3c060002 	lui	a2,0x2
    d044:	8cc68ff8 	lw	a2,-28680(a2)
    d048:	0c005104 	jal	0x14410
    d04c:	00002021 	move	a0,zero
    d050:	24020005 	li	v0,5
    d054:	1000006c 	b	0xd208
    d058:	aee204b8 	sw	v0,1208(s7)
    d05c:	8f820220 	lw	v0,544(gp)
    d060:	3c03f700 	lui	v1,0xf700
    d064:	00431025 	or	v0,v0,v1
    d068:	af820220 	sw	v0,544(gp)
    d06c:	8f830054 	lw	v1,84(gp)
    d070:	24020006 	li	v0,6
    d074:	aee204b8 	sw	v0,1208(s7)
    d078:	3c010001 	lui	at,0x1
    d07c:	10000062 	b	0xd208
    d080:	ac236f28 	sw	v1,28456(at)
    d084:	8f820220 	lw	v0,544(gp)
    d088:	3c030004 	lui	v1,0x4
    d08c:	00431024 	and	v0,v0,v1
    d090:	10400003 	beqz	v0,0xd0a0
    d094:	24020007 	li	v0,7
    d098:	1000005b 	b	0xd208
    d09c:	aee204b8 	sw	v0,1208(s7)
    d0a0:	8f830054 	lw	v1,84(gp)
    d0a4:	3c020001 	lui	v0,0x1
    d0a8:	8c426f28 	lw	v0,28456(v0)
    d0ac:	2463d8f0 	addiu	v1,v1,-10000
    d0b0:	00431023 	subu	v0,v0,v1
    d0b4:	2c422710 	sltiu	v0,v0,10000
    d0b8:	14400003 	bnez	v0,0xd0c8
    d0bc:	24020001 	li	v0,1
    d0c0:	3c010001 	lui	at,0x1
    d0c4:	ac226d9c 	sw	v0,28060(at)
    d0c8:	3c020002 	lui	v0,0x2
    d0cc:	8c428ff8 	lw	v0,-28680(v0)
    d0d0:	30425000 	andi	v0,v0,0x5000
    d0d4:	1040004c 	beqz	v0,0xd208
    d0d8:	00000000 	nop
    d0dc:	8f820220 	lw	v0,544(gp)
    d0e0:	30428000 	andi	v0,v0,0x8000
    d0e4:	10400007 	beqz	v0,0xd104
    d0e8:	00000000 	nop
    d0ec:	8f820220 	lw	v0,544(gp)
    d0f0:	3c03ffff 	lui	v1,0xffff
    d0f4:	34637fff 	ori	v1,v1,0x7fff
    d0f8:	00431024 	and	v0,v0,v1
    d0fc:	10000042 	b	0xd208
    d100:	af820220 	sw	v0,544(gp)
    d104:	8f820220 	lw	v0,544(gp)
    d108:	34428000 	ori	v0,v0,0x8000
    d10c:	1000003e 	b	0xd208
    d110:	af820220 	sw	v0,544(gp)
    d114:	3c050001 	lui	a1,0x1
    d118:	8ca56d98 	lw	a1,28056(a1)
    d11c:	0c00529b 	jal	0x14a6c
    d120:	00002021 	move	a0,zero
    d124:	0c00551b 	jal	0x1546c
    d128:	00002021 	move	a0,zero
    d12c:	3c020002 	lui	v0,0x2
    d130:	8c428ff0 	lw	v0,-28688(v0)
    d134:	04410032 	bgez	v0,0xd200
    d138:	24020001 	li	v0,1
    d13c:	8f820214 	lw	v0,532(gp)
    d140:	3c03ffff 	lui	v1,0xffff
    d144:	00431024 	and	v0,v0,v1
    d148:	3442251f 	ori	v0,v0,0x251f
    d14c:	af820214 	sw	v0,532(gp)
    d150:	24020008 	li	v0,8
    d154:	aee204b8 	sw	v0,1208(s7)
    d158:	8f820220 	lw	v0,544(gp)
    d15c:	34420002 	ori	v0,v0,0x2
    d160:	af820220 	sw	v0,544(gp)
    d164:	8f820220 	lw	v0,544(gp)
    d168:	3c030004 	lui	v1,0x4
    d16c:	00431024 	and	v0,v0,v1
    d170:	14400016 	bnez	v0,0xd1cc
    d174:	00000000 	nop
    d178:	3c020002 	lui	v0,0x2
    d17c:	8c428ff8 	lw	v0,-28680(v0)
    d180:	30425000 	andi	v0,v0,0x5000
    d184:	1040000d 	beqz	v0,0xd1bc
    d188:	00000000 	nop
    d18c:	8f820220 	lw	v0,544(gp)
    d190:	30428000 	andi	v0,v0,0x8000
    d194:	10400006 	beqz	v0,0xd1b0
    d198:	00000000 	nop
    d19c:	8f820220 	lw	v0,544(gp)
    d1a0:	3c03ffff 	lui	v1,0xffff
    d1a4:	34637fff 	ori	v1,v1,0x7fff
    d1a8:	10000003 	b	0xd1b8
    d1ac:	00431024 	and	v0,v0,v1
    d1b0:	8f820220 	lw	v0,544(gp)
    d1b4:	34428000 	ori	v0,v0,0x8000
    d1b8:	af820220 	sw	v0,544(gp)
    d1bc:	8f820220 	lw	v0,544(gp)
    d1c0:	3c03f700 	lui	v1,0xf700
    d1c4:	00431025 	or	v0,v0,v1
    d1c8:	af820220 	sw	v0,544(gp)
    d1cc:	3c020001 	lui	v0,0x1
    d1d0:	94426f26 	lhu	v0,28454(v0)
    d1d4:	24429fbc 	addiu	v0,v0,-24644
    d1d8:	2c420004 	sltiu	v0,v0,4
    d1dc:	10400004 	beqz	v0,0xd1f0
    d1e0:	24040018 	li	a0,24
    d1e4:	24050002 	li	a1,2
    d1e8:	0c004ddb 	jal	0x1376c
    d1ec:	24060020 	li	a2,32
    d1f0:	0c003e6d 	jal	0xf9b4
    d1f4:	00000000 	nop
    d1f8:	10000003 	b	0xd208
    d1fc:	00000000 	nop
    d200:	3c010001 	lui	at,0x1
    d204:	ac226d9c 	sw	v0,28060(at)
    d208:	8fbf0018 	lw	ra,24(sp)
    d20c:	03e00008 	jr	ra
    d210:	27bd0020 	addiu	sp,sp,32
    d214:	8f820200 	lw	v0,512(gp)
    d218:	8f820220 	lw	v0,544(gp)
    d21c:	8f820220 	lw	v0,544(gp)
    d220:	34420004 	ori	v0,v0,0x4
    d224:	af820220 	sw	v0,544(gp)
    d228:	8f820200 	lw	v0,512(gp)
    d22c:	3c050001 	lui	a1,0x1
    d230:	8ca56d98 	lw	a1,28056(a1)
    d234:	34420004 	ori	v0,v0,0x4
    d238:	af820200 	sw	v0,512(gp)
    d23c:	24020002 	li	v0,2
    d240:	10a2004b 	beq	a1,v0,0xd370
    d244:	2ca20003 	sltiu	v0,a1,3
    d248:	10400005 	beqz	v0,0xd260
    d24c:	24020001 	li	v0,1
    d250:	10a2000a 	beq	a1,v0,0xd27c
    d254:	00000000 	nop
    d258:	100000b1 	b	0xd520
    d25c:	00000000 	nop
    d260:	24020004 	li	v0,4
    d264:	10a20072 	beq	a1,v0,0xd430
    d268:	24020008 	li	v0,8
    d26c:	10a20085 	beq	a1,v0,0xd484
    d270:	3c02f0ff 	lui	v0,0xf0ff
    d274:	100000aa 	b	0xd520
    d278:	00000000 	nop
    d27c:	8f830050 	lw	v1,80(gp)
    d280:	3c02f0ff 	lui	v0,0xf0ff
    d284:	3442ffff 	ori	v0,v0,0xffff
    d288:	3c040001 	lui	a0,0x1
    d28c:	8c846f40 	lw	a0,28480(a0)
    d290:	00621824 	and	v1,v1,v0
    d294:	3c020700 	lui	v0,0x700
    d298:	00621825 	or	v1,v1,v0
    d29c:	24020e00 	li	v0,3584
    d2a0:	2484fffb 	addiu	a0,a0,-5
    d2a4:	2c840002 	sltiu	a0,a0,2
    d2a8:	af830050 	sw	v1,80(gp)
    d2ac:	af850200 	sw	a1,512(gp)
    d2b0:	af850220 	sw	a1,544(gp)
    d2b4:	14800006 	bnez	a0,0xd2d0
    d2b8:	af820238 	sw	v0,568(gp)
    d2bc:	8f820044 	lw	v0,68(gp)
    d2c0:	3c03ffff 	lui	v1,0xffff
    d2c4:	34633f7f 	ori	v1,v1,0x3f7f
    d2c8:	00431024 	and	v0,v0,v1
    d2cc:	af820044 	sw	v0,68(gp)
    d2d0:	3c030001 	lui	v1,0x1
    d2d4:	8c636f40 	lw	v1,28480(v1)
    d2d8:	24020005 	li	v0,5
    d2dc:	14620004 	bne	v1,v0,0xd2f0
    d2e0:	00000000 	nop
    d2e4:	8f820044 	lw	v0,68(gp)
    d2e8:	34425000 	ori	v0,v0,0x5000
    d2ec:	af820044 	sw	v0,68(gp)
    d2f0:	3c020001 	lui	v0,0x1
    d2f4:	8c426d88 	lw	v0,28040(v0)
    d2f8:	3c030001 	lui	v1,0x1
    d2fc:	8c636f40 	lw	v1,28480(v1)
    d300:	34420022 	ori	v0,v0,0x22
    d304:	2463fffc 	addiu	v1,v1,-4
    d308:	2c630002 	sltiu	v1,v1,2
    d30c:	1460000c 	bnez	v1,0xd340
    d310:	af820200 	sw	v0,512(gp)
    d314:	3c020001 	lui	v0,0x1
    d318:	8c426dac 	lw	v0,28076(v0)
    d31c:	3c030001 	lui	v1,0x1
    d320:	8c636d90 	lw	v1,28048(v1)
    d324:	3c040001 	lui	a0,0x1
    d328:	8c846d8c 	lw	a0,28044(a0)
    d32c:	34428000 	ori	v0,v0,0x8000
    d330:	00621825 	or	v1,v1,v0
    d334:	00641825 	or	v1,v1,a0
    d338:	1000000a 	b	0xd364
    d33c:	34620002 	ori	v0,v1,0x2
    d340:	3c020001 	lui	v0,0x1
    d344:	8c426d90 	lw	v0,28048(v0)
    d348:	3c030001 	lui	v1,0x1
    d34c:	8c636dac 	lw	v1,28076(v1)
    d350:	3c040001 	lui	a0,0x1
    d354:	8c846d8c 	lw	a0,28044(a0)
    d358:	00431025 	or	v0,v0,v1
    d35c:	00441025 	or	v0,v0,a0
    d360:	34420002 	ori	v0,v0,0x2
    d364:	af820220 	sw	v0,544(gp)
    d368:	1000002f 	b	0xd428
    d36c:	24020001 	li	v0,1
    d370:	24020e01 	li	v0,3585
    d374:	af820238 	sw	v0,568(gp)
    d378:	8f830050 	lw	v1,80(gp)
    d37c:	3c02f0ff 	lui	v0,0xf0ff
    d380:	3442ffff 	ori	v0,v0,0xffff
    d384:	3c040001 	lui	a0,0x1
    d388:	8c846f1c 	lw	a0,28444(a0)
    d38c:	00621824 	and	v1,v1,v0
    d390:	3c020d00 	lui	v0,0xd00
    d394:	00621825 	or	v1,v1,v0
    d398:	24020001 	li	v0,1
    d39c:	af830050 	sw	v1,80(gp)
    d3a0:	af820200 	sw	v0,512(gp)
    d3a4:	af820220 	sw	v0,544(gp)
    d3a8:	10800005 	beqz	a0,0xd3c0
    d3ac:	3c033f00 	lui	v1,0x3f00
    d3b0:	3c020001 	lui	v0,0x1
    d3b4:	8c426d80 	lw	v0,28032(v0)
    d3b8:	10000004 	b	0xd3cc
    d3bc:	34630070 	ori	v1,v1,0x70
    d3c0:	3c020001 	lui	v0,0x1
    d3c4:	8c426d80 	lw	v0,28032(v0)
    d3c8:	34630072 	ori	v1,v1,0x72
    d3cc:	00431025 	or	v0,v0,v1
    d3d0:	af820200 	sw	v0,512(gp)
    d3d4:	3c030001 	lui	v1,0x1
    d3d8:	8c636d84 	lw	v1,28036(v1)
    d3dc:	3c02f700 	lui	v0,0xf700
    d3e0:	00621825 	or	v1,v1,v0
    d3e4:	3c020001 	lui	v0,0x1
    d3e8:	8c426d90 	lw	v0,28048(v0)
    d3ec:	3c040001 	lui	a0,0x1
    d3f0:	8c846dac 	lw	a0,28076(a0)
    d3f4:	3c050001 	lui	a1,0x1
    d3f8:	8ca56f40 	lw	a1,28480(a1)
    d3fc:	00431025 	or	v0,v0,v1
    d400:	00441025 	or	v0,v0,a0
    d404:	af820220 	sw	v0,544(gp)
    d408:	24020005 	li	v0,5
    d40c:	14a20006 	bne	a1,v0,0xd428
    d410:	24020001 	li	v0,1
    d414:	8f820044 	lw	v0,68(gp)
    d418:	2403afff 	li	v1,-20481
    d41c:	00431024 	and	v0,v0,v1
    d420:	af820044 	sw	v0,68(gp)
    d424:	24020001 	li	v0,1
    d428:	1000003d 	b	0xd520
    d42c:	af820238 	sw	v0,568(gp)
    d430:	8f830050 	lw	v1,80(gp)
    d434:	3c02f0ff 	lui	v0,0xf0ff
    d438:	3442ffff 	ori	v0,v0,0xffff
    d43c:	3c040001 	lui	a0,0x1
    d440:	8c846f1c 	lw	a0,28444(a0)
    d444:	00621824 	and	v1,v1,v0
    d448:	3c020a00 	lui	v0,0xa00
    d44c:	00621825 	or	v1,v1,v0
    d450:	24020001 	li	v0,1
    d454:	af830050 	sw	v1,80(gp)
    d458:	af820200 	sw	v0,512(gp)
    d45c:	1080001e 	beqz	a0,0xd4d8
    d460:	af820220 	sw	v0,544(gp)
    d464:	3c020001 	lui	v0,0x1
    d468:	8c426e44 	lw	v0,28228(v0)
    d46c:	1440001a 	bnez	v0,0xd4d8
    d470:	3c033f00 	lui	v1,0x3f00
    d474:	3c020001 	lui	v0,0x1
    d478:	8c426d80 	lw	v0,28032(v0)
    d47c:	1000001a 	b	0xd4e8
    d480:	346300e0 	ori	v1,v1,0xe0
    d484:	8f830050 	lw	v1,80(gp)
    d488:	3c040001 	lui	a0,0x1
    d48c:	8c846f1c 	lw	a0,28444(a0)
    d490:	3442ffff 	ori	v0,v0,0xffff
    d494:	00621824 	and	v1,v1,v0
    d498:	1080000f 	beqz	a0,0xd4d8
    d49c:	af830050 	sw	v1,80(gp)
    d4a0:	3c020001 	lui	v0,0x1
    d4a4:	8c426e44 	lw	v0,28228(v0)
    d4a8:	1440000b 	bnez	v0,0xd4d8
    d4ac:	3c043f00 	lui	a0,0x3f00
    d4b0:	3c030001 	lui	v1,0x1
    d4b4:	8c636d80 	lw	v1,28032(v1)
    d4b8:	348400e0 	ori	a0,a0,0xe0
    d4bc:	24020001 	li	v0,1
    d4c0:	af820200 	sw	v0,512(gp)
    d4c4:	af820220 	sw	v0,544(gp)
    d4c8:	00641825 	or	v1,v1,a0
    d4cc:	af830200 	sw	v1,512(gp)
    d4d0:	10000008 	b	0xd4f4
    d4d4:	3c05f700 	lui	a1,0xf700
    d4d8:	3c020001 	lui	v0,0x1
    d4dc:	8c426d80 	lw	v0,28032(v0)
    d4e0:	3c033f00 	lui	v1,0x3f00
    d4e4:	346300e2 	ori	v1,v1,0xe2
    d4e8:	00431025 	or	v0,v0,v1
    d4ec:	af820200 	sw	v0,512(gp)
    d4f0:	3c05f700 	lui	a1,0xf700
    d4f4:	34a58000 	ori	a1,a1,0x8000
    d4f8:	3c030001 	lui	v1,0x1
    d4fc:	8c636d84 	lw	v1,28036(v1)
    d500:	3c020001 	lui	v0,0x1
    d504:	8c426d90 	lw	v0,28048(v0)
    d508:	3c040001 	lui	a0,0x1
    d50c:	8c846dac 	lw	a0,28076(a0)
    d510:	00651825 	or	v1,v1,a1
    d514:	00431025 	or	v0,v0,v1
    d518:	00441025 	or	v0,v0,a0
    d51c:	af820220 	sw	v0,544(gp)
    d520:	03e00008 	jr	ra
    d524:	00000000 	nop
    d528:	3c030001 	lui	v1,0x1
    d52c:	8c636db4 	lw	v1,28084(v1)
    d530:	3c020001 	lui	v0,0x1
    d534:	8c426db8 	lw	v0,28088(v0)
    d538:	10620003 	beq	v1,v0,0xd548
    d53c:	24020002 	li	v0,2
    d540:	3c010001 	lui	at,0x1
    d544:	ac236db8 	sw	v1,28088(at)
    d548:	1062001d 	beq	v1,v0,0xd5c0
    d54c:	2c620003 	sltiu	v0,v1,3
    d550:	10400025 	beqz	v0,0xd5e8
    d554:	24020001 	li	v0,1
    d558:	14620023 	bne	v1,v0,0xd5e8
    d55c:	24020004 	li	v0,4
    d560:	3c030001 	lui	v1,0x1
    d564:	8c636d98 	lw	v1,28056(v1)
    d568:	10620006 	beq	v1,v0,0xd584
    d56c:	24020008 	li	v0,8
    d570:	1462000c 	bne	v1,v0,0xd5a4
    d574:	3c0200c8 	lui	v0,0xc8
    d578:	344201fb 	ori	v0,v0,0x1fb
    d57c:	10000009 	b	0xd5a4
    d580:	af820238 	sw	v0,568(gp)
    d584:	24020e01 	li	v0,3585
    d588:	af820238 	sw	v0,568(gp)
    d58c:	8f820044 	lw	v0,68(gp)
    d590:	3c03ffff 	lui	v1,0xffff
    d594:	34633f7f 	ori	v1,v1,0x3f7f
    d598:	00431024 	and	v0,v0,v1
    d59c:	34420080 	ori	v0,v0,0x80
    d5a0:	af820044 	sw	v0,68(gp)
    d5a4:	8f830054 	lw	v1,84(gp)
    d5a8:	24020002 	li	v0,2
    d5ac:	3c010001 	lui	at,0x1
    d5b0:	ac226db4 	sw	v0,28084(at)
    d5b4:	3c010001 	lui	at,0x1
    d5b8:	1000000b 	b	0xd5e8
    d5bc:	ac236f2c 	sw	v1,28460(at)
    d5c0:	8f830054 	lw	v1,84(gp)
    d5c4:	3c020001 	lui	v0,0x1
    d5c8:	8c426f2c 	lw	v0,28460(v0)
    d5cc:	2463d8f0 	addiu	v1,v1,-10000
    d5d0:	00431023 	subu	v0,v0,v1
    d5d4:	2c422710 	sltiu	v0,v0,10000
    d5d8:	14400003 	bnez	v0,0xd5e8
    d5dc:	24020009 	li	v0,9
    d5e0:	3c010001 	lui	at,0x1
    d5e4:	ac226db4 	sw	v0,28084(at)
    d5e8:	03e00008 	jr	ra
    d5ec:	00000000 	nop
	...
    d5fc:	27bdffd8 	addiu	sp,sp,-40
    d600:	afb20018 	sw	s2,24(sp)
    d604:	00809021 	move	s2,a0
    d608:	afb3001c 	sw	s3,28(sp)
    d60c:	00a09821 	move	s3,a1
    d610:	afb10014 	sw	s1,20(sp)
    d614:	00c08821 	move	s1,a2
    d618:	afb00010 	sw	s0,16(sp)
    d61c:	00008021 	move	s0,zero
    d620:	afbf0020 	sw	ra,32(sp)
    d624:	a6200000 	sh	zero,0(s1)
    d628:	0c004d78 	jal	0x135e0
    d62c:	24040001 	li	a0,1
    d630:	26100001 	addiu	s0,s0,1
    d634:	2e020020 	sltiu	v0,s0,32
    d638:	1440fffb 	bnez	v0,0xd628
    d63c:	00000000 	nop
    d640:	0c004d78 	jal	0x135e0
    d644:	00002021 	move	a0,zero
    d648:	0c004d78 	jal	0x135e0
    d64c:	24040001 	li	a0,1
    d650:	0c004d78 	jal	0x135e0
    d654:	24040001 	li	a0,1
    d658:	0c004d78 	jal	0x135e0
    d65c:	00002021 	move	a0,zero
    d660:	24100010 	li	s0,16
    d664:	02501024 	and	v0,s2,s0
    d668:	10400002 	beqz	v0,0xd674
    d66c:	00002021 	move	a0,zero
    d670:	24040001 	li	a0,1
    d674:	0c004d78 	jal	0x135e0
    d678:	00108042 	srl	s0,s0,0x1
    d67c:	1600fffa 	bnez	s0,0xd668
    d680:	02501024 	and	v0,s2,s0
    d684:	24100010 	li	s0,16
    d688:	02701024 	and	v0,s3,s0
    d68c:	10400002 	beqz	v0,0xd698
    d690:	00002021 	move	a0,zero
    d694:	24040001 	li	a0,1
    d698:	0c004d78 	jal	0x135e0
    d69c:	00108042 	srl	s0,s0,0x1
    d6a0:	1600fffa 	bnez	s0,0xd68c
    d6a4:	02701024 	and	v0,s3,s0
    d6a8:	0c004db9 	jal	0x136e4
    d6ac:	34108000 	li	s0,0x8000
    d6b0:	0c004db9 	jal	0x136e4
    d6b4:	00000000 	nop
    d6b8:	0c004d58 	jal	0x13560
    d6bc:	00000000 	nop
    d6c0:	50400005 	beqzl	v0,0xd6d8
    d6c4:	00108042 	srl	s0,s0,0x1
    d6c8:	96220000 	lhu	v0,0(s1)
    d6cc:	00501025 	or	v0,v0,s0
    d6d0:	a6220000 	sh	v0,0(s1)
    d6d4:	00108042 	srl	s0,s0,0x1
    d6d8:	1600fff7 	bnez	s0,0xd6b8
    d6dc:	00000000 	nop
    d6e0:	0c004db9 	jal	0x136e4
    d6e4:	00000000 	nop
    d6e8:	8fbf0020 	lw	ra,32(sp)
    d6ec:	8fb3001c 	lw	s3,28(sp)
    d6f0:	8fb20018 	lw	s2,24(sp)
    d6f4:	8fb10014 	lw	s1,20(sp)
    d6f8:	8fb00010 	lw	s0,16(sp)
    d6fc:	03e00008 	jr	ra
    d700:	27bd0028 	addiu	sp,sp,40
    d704:	27bdffd8 	addiu	sp,sp,-40
    d708:	afb10014 	sw	s1,20(sp)
    d70c:	00808821 	move	s1,a0
    d710:	afb20018 	sw	s2,24(sp)
    d714:	00a09021 	move	s2,a1
    d718:	afb3001c 	sw	s3,28(sp)
    d71c:	00c09821 	move	s3,a2
    d720:	afb00010 	sw	s0,16(sp)
    d724:	00008021 	move	s0,zero
    d728:	afbf0020 	sw	ra,32(sp)
    d72c:	0c004d78 	jal	0x135e0
    d730:	24040001 	li	a0,1
    d734:	26100001 	addiu	s0,s0,1
    d738:	2e020020 	sltiu	v0,s0,32
    d73c:	1440fffb 	bnez	v0,0xd72c
    d740:	00000000 	nop
    d744:	0c004d78 	jal	0x135e0
    d748:	00002021 	move	a0,zero
    d74c:	0c004d78 	jal	0x135e0
    d750:	24040001 	li	a0,1
    d754:	0c004d78 	jal	0x135e0
    d758:	00002021 	move	a0,zero
    d75c:	0c004d78 	jal	0x135e0
    d760:	24040001 	li	a0,1
    d764:	24100010 	li	s0,16
    d768:	02301024 	and	v0,s1,s0
    d76c:	10400002 	beqz	v0,0xd778
    d770:	00002021 	move	a0,zero
    d774:	24040001 	li	a0,1
    d778:	0c004d78 	jal	0x135e0
    d77c:	00108042 	srl	s0,s0,0x1
    d780:	1600fffa 	bnez	s0,0xd76c
    d784:	02301024 	and	v0,s1,s0
    d788:	24100010 	li	s0,16
    d78c:	02501024 	and	v0,s2,s0
    d790:	10400002 	beqz	v0,0xd79c
    d794:	00002021 	move	a0,zero
    d798:	24040001 	li	a0,1
    d79c:	0c004d78 	jal	0x135e0
    d7a0:	00108042 	srl	s0,s0,0x1
    d7a4:	1600fffa 	bnez	s0,0xd790
    d7a8:	02501024 	and	v0,s2,s0
    d7ac:	0c004d78 	jal	0x135e0
    d7b0:	24040001 	li	a0,1
    d7b4:	0c004d78 	jal	0x135e0
    d7b8:	00002021 	move	a0,zero
    d7bc:	34108000 	li	s0,0x8000
    d7c0:	96620000 	lhu	v0,0(s3)
    d7c4:	00501024 	and	v0,v0,s0
    d7c8:	10400002 	beqz	v0,0xd7d4
    d7cc:	00002021 	move	a0,zero
    d7d0:	24040001 	li	a0,1
    d7d4:	0c004d78 	jal	0x135e0
    d7d8:	00108042 	srl	s0,s0,0x1
    d7dc:	1600fff8 	bnez	s0,0xd7c0
    d7e0:	00000000 	nop
    d7e4:	0c004db9 	jal	0x136e4
    d7e8:	00000000 	nop
    d7ec:	8fbf0020 	lw	ra,32(sp)
    d7f0:	8fb3001c 	lw	s3,28(sp)
    d7f4:	8fb20018 	lw	s2,24(sp)
    d7f8:	8fb10014 	lw	s1,20(sp)
    d7fc:	8fb00010 	lw	s0,16(sp)
    d800:	03e00008 	jr	ra
    d804:	27bd0028 	addiu	sp,sp,40
    d808:	3c040001 	lui	a0,0x1
    d80c:	8c846dd0 	lw	a0,28112(a0)
    d810:	3c020001 	lui	v0,0x1
    d814:	8c426e18 	lw	v0,28184(v0)
    d818:	27bdffd8 	addiu	sp,sp,-40
    d81c:	afbf0020 	sw	ra,32(sp)
    d820:	afb1001c 	sw	s1,28(sp)
    d824:	10820003 	beq	a0,v0,0xd834
    d828:	afb00018 	sw	s0,24(sp)
    d82c:	3c010001 	lui	at,0x1
    d830:	ac246e18 	sw	a0,28184(at)
    d834:	3c030001 	lui	v1,0x1
    d838:	8c636f40 	lw	v1,28480(v1)
    d83c:	24020005 	li	v0,5
    d840:	14620005 	bne	v1,v0,0xd858
    d844:	2483ffff 	addiu	v1,a0,-1
    d848:	0c004963 	jal	0x1258c
    d84c:	00000000 	nop
    d850:	1000034c 	b	0xe584
    d854:	00000000 	nop
    d858:	2c620013 	sltiu	v0,v1,19
    d85c:	10400349 	beqz	v0,0xe584
    d860:	00031080 	sll	v0,v1,0x2
    d864:	3c010001 	lui	at,0x1
    d868:	00220821 	addu	at,at,v0
    d86c:	8c226b80 	lw	v0,27520(at)
    d870:	00400008 	jr	v0
    d874:	00000000 	nop
    d878:	0c004db9 	jal	0x136e4
    d87c:	00008021 	move	s0,zero
    d880:	34028000 	li	v0,0x8000
    d884:	a7a20010 	sh	v0,16(sp)
    d888:	27b10010 	addiu	s1,sp,16
    d88c:	0c004d78 	jal	0x135e0
    d890:	24040001 	li	a0,1
    d894:	26100001 	addiu	s0,s0,1
    d898:	2e020020 	sltiu	v0,s0,32
    d89c:	1440fffb 	bnez	v0,0xd88c
    d8a0:	00000000 	nop
    d8a4:	0c004d78 	jal	0x135e0
    d8a8:	00002021 	move	a0,zero
    d8ac:	0c004d78 	jal	0x135e0
    d8b0:	24040001 	li	a0,1
    d8b4:	0c004d78 	jal	0x135e0
    d8b8:	00002021 	move	a0,zero
    d8bc:	0c004d78 	jal	0x135e0
    d8c0:	24040001 	li	a0,1
    d8c4:	24100010 	li	s0,16
    d8c8:	32020001 	andi	v0,s0,0x1
    d8cc:	10400002 	beqz	v0,0xd8d8
    d8d0:	00002021 	move	a0,zero
    d8d4:	24040001 	li	a0,1
    d8d8:	0c004d78 	jal	0x135e0
    d8dc:	00108042 	srl	s0,s0,0x1
    d8e0:	1600fffa 	bnez	s0,0xd8cc
    d8e4:	32020001 	andi	v0,s0,0x1
    d8e8:	24100010 	li	s0,16
    d8ec:	0c004d78 	jal	0x135e0
    d8f0:	00002021 	move	a0,zero
    d8f4:	00108042 	srl	s0,s0,0x1
    d8f8:	1600fffc 	bnez	s0,0xd8ec
    d8fc:	00000000 	nop
    d900:	0c004d78 	jal	0x135e0
    d904:	24040001 	li	a0,1
    d908:	0c004d78 	jal	0x135e0
    d90c:	00002021 	move	a0,zero
    d910:	34108000 	li	s0,0x8000
    d914:	96220000 	lhu	v0,0(s1)
    d918:	00501024 	and	v0,v0,s0
    d91c:	10400002 	beqz	v0,0xd928
    d920:	00002021 	move	a0,zero
    d924:	24040001 	li	a0,1
    d928:	0c004d78 	jal	0x135e0
    d92c:	00108042 	srl	s0,s0,0x1
    d930:	1600fff8 	bnez	s0,0xd914
    d934:	00000000 	nop
    d938:	0c004db9 	jal	0x136e4
    d93c:	00000000 	nop
    d940:	1000030e 	b	0xe57c
    d944:	24020002 	li	v0,2
    d948:	27b10010 	addiu	s1,sp,16
    d94c:	a7a00010 	sh	zero,16(sp)
    d950:	00008021 	move	s0,zero
    d954:	0c004d78 	jal	0x135e0
    d958:	24040001 	li	a0,1
    d95c:	26100001 	addiu	s0,s0,1
    d960:	2e020020 	sltiu	v0,s0,32
    d964:	1440fffb 	bnez	v0,0xd954
    d968:	00000000 	nop
    d96c:	0c004d78 	jal	0x135e0
    d970:	00002021 	move	a0,zero
    d974:	0c004d78 	jal	0x135e0
    d978:	24040001 	li	a0,1
    d97c:	0c004d78 	jal	0x135e0
    d980:	24040001 	li	a0,1
    d984:	0c004d78 	jal	0x135e0
    d988:	00002021 	move	a0,zero
    d98c:	24100010 	li	s0,16
    d990:	32020001 	andi	v0,s0,0x1
    d994:	10400002 	beqz	v0,0xd9a0
    d998:	00002021 	move	a0,zero
    d99c:	24040001 	li	a0,1
    d9a0:	0c004d78 	jal	0x135e0
    d9a4:	00108042 	srl	s0,s0,0x1
    d9a8:	1600fffa 	bnez	s0,0xd994
    d9ac:	32020001 	andi	v0,s0,0x1
    d9b0:	24100010 	li	s0,16
    d9b4:	0c004d78 	jal	0x135e0
    d9b8:	00002021 	move	a0,zero
    d9bc:	00108042 	srl	s0,s0,0x1
    d9c0:	1600fffc 	bnez	s0,0xd9b4
    d9c4:	00000000 	nop
    d9c8:	0c004db9 	jal	0x136e4
    d9cc:	34108000 	li	s0,0x8000
    d9d0:	0c004db9 	jal	0x136e4
    d9d4:	00000000 	nop
    d9d8:	0c004d58 	jal	0x13560
    d9dc:	00000000 	nop
    d9e0:	50400005 	beqzl	v0,0xd9f8
    d9e4:	00108042 	srl	s0,s0,0x1
    d9e8:	96220000 	lhu	v0,0(s1)
    d9ec:	00501025 	or	v0,v0,s0
    d9f0:	a6220000 	sh	v0,0(s1)
    d9f4:	00108042 	srl	s0,s0,0x1
    d9f8:	1600fff7 	bnez	s0,0xd9d8
    d9fc:	00000000 	nop
    da00:	0c004db9 	jal	0x136e4
    da04:	00000000 	nop
    da08:	97a20010 	lhu	v0,16(sp)
    da0c:	30428000 	andi	v0,v0,0x8000
    da10:	144002dc 	bnez	v0,0xe584
    da14:	24020003 	li	v0,3
    da18:	100002d8 	b	0xe57c
    da1c:	00000000 	nop
    da20:	24021200 	li	v0,4608
    da24:	a7a20010 	sh	v0,16(sp)
    da28:	27b10010 	addiu	s1,sp,16
    da2c:	00008021 	move	s0,zero
    da30:	0c004d78 	jal	0x135e0
    da34:	24040001 	li	a0,1
    da38:	26100001 	addiu	s0,s0,1
    da3c:	2e020020 	sltiu	v0,s0,32
    da40:	1440fffb 	bnez	v0,0xda30
    da44:	00000000 	nop
    da48:	0c004d78 	jal	0x135e0
    da4c:	00002021 	move	a0,zero
    da50:	0c004d78 	jal	0x135e0
    da54:	24040001 	li	a0,1
    da58:	0c004d78 	jal	0x135e0
    da5c:	00002021 	move	a0,zero
    da60:	0c004d78 	jal	0x135e0
    da64:	24040001 	li	a0,1
    da68:	24100010 	li	s0,16
    da6c:	32020001 	andi	v0,s0,0x1
    da70:	10400002 	beqz	v0,0xda7c
    da74:	00002021 	move	a0,zero
    da78:	24040001 	li	a0,1
    da7c:	0c004d78 	jal	0x135e0
    da80:	00108042 	srl	s0,s0,0x1
    da84:	1600fffa 	bnez	s0,0xda70
    da88:	32020001 	andi	v0,s0,0x1
    da8c:	24100010 	li	s0,16
    da90:	0c004d78 	jal	0x135e0
    da94:	00002021 	move	a0,zero
    da98:	00108042 	srl	s0,s0,0x1
    da9c:	1600fffc 	bnez	s0,0xda90
    daa0:	00000000 	nop
    daa4:	0c004d78 	jal	0x135e0
    daa8:	24040001 	li	a0,1
    daac:	0c004d78 	jal	0x135e0
    dab0:	00002021 	move	a0,zero
    dab4:	34108000 	li	s0,0x8000
    dab8:	96220000 	lhu	v0,0(s1)
    dabc:	00501024 	and	v0,v0,s0
    dac0:	10400002 	beqz	v0,0xdacc
    dac4:	00002021 	move	a0,zero
    dac8:	24040001 	li	a0,1
    dacc:	0c004d78 	jal	0x135e0
    dad0:	00108042 	srl	s0,s0,0x1
    dad4:	1600fff8 	bnez	s0,0xdab8
    dad8:	00000000 	nop
    dadc:	0c004db9 	jal	0x136e4
    dae0:	00000000 	nop
    dae4:	8f830054 	lw	v1,84(gp)
    dae8:	10000296 	b	0xe544
    daec:	24020004 	li	v0,4
    daf0:	8f830054 	lw	v1,84(gp)
    daf4:	3c020001 	lui	v0,0x1
    daf8:	8c426f3c 	lw	v0,28476(v0)
    dafc:	2463ff9c 	addiu	v1,v1,-100
    db00:	00431023 	subu	v0,v0,v1
    db04:	2c420064 	sltiu	v0,v0,100
    db08:	1440029e 	bnez	v0,0xe584
    db0c:	24020002 	li	v0,2
    db10:	3c030001 	lui	v1,0x1
    db14:	8c636f40 	lw	v1,28480(v1)
    db18:	10620297 	beq	v1,v0,0xe578
    db1c:	2c620003 	sltiu	v0,v1,3
    db20:	14400296 	bnez	v0,0xe57c
    db24:	24020011 	li	v0,17
    db28:	24020003 	li	v0,3
    db2c:	10620005 	beq	v1,v0,0xdb44
    db30:	24020004 	li	v0,4
    db34:	10620291 	beq	v1,v0,0xe57c
    db38:	2402000f 	li	v0,15
    db3c:	1000028f 	b	0xe57c
    db40:	24020011 	li	v0,17
    db44:	1000028d 	b	0xe57c
    db48:	24020005 	li	v0,5
    db4c:	24020014 	li	v0,20
    db50:	a7a20010 	sh	v0,16(sp)
    db54:	27b10010 	addiu	s1,sp,16
    db58:	00008021 	move	s0,zero
    db5c:	0c004d78 	jal	0x135e0
    db60:	24040001 	li	a0,1
    db64:	26100001 	addiu	s0,s0,1
    db68:	2e020020 	sltiu	v0,s0,32
    db6c:	1440fffb 	bnez	v0,0xdb5c
    db70:	00000000 	nop
    db74:	0c004d78 	jal	0x135e0
    db78:	00002021 	move	a0,zero
    db7c:	0c004d78 	jal	0x135e0
    db80:	24040001 	li	a0,1
    db84:	0c004d78 	jal	0x135e0
    db88:	00002021 	move	a0,zero
    db8c:	0c004d78 	jal	0x135e0
    db90:	24040001 	li	a0,1
    db94:	24100010 	li	s0,16
    db98:	32020001 	andi	v0,s0,0x1
    db9c:	10400002 	beqz	v0,0xdba8
    dba0:	00002021 	move	a0,zero
    dba4:	24040001 	li	a0,1
    dba8:	0c004d78 	jal	0x135e0
    dbac:	00108042 	srl	s0,s0,0x1
    dbb0:	1600fffa 	bnez	s0,0xdb9c
    dbb4:	32020001 	andi	v0,s0,0x1
    dbb8:	24100010 	li	s0,16
    dbbc:	32020012 	andi	v0,s0,0x12
    dbc0:	10400002 	beqz	v0,0xdbcc
    dbc4:	00002021 	move	a0,zero
    dbc8:	24040001 	li	a0,1
    dbcc:	0c004d78 	jal	0x135e0
    dbd0:	00108042 	srl	s0,s0,0x1
    dbd4:	1600fffa 	bnez	s0,0xdbc0
    dbd8:	32020012 	andi	v0,s0,0x12
    dbdc:	0c004d78 	jal	0x135e0
    dbe0:	24040001 	li	a0,1
    dbe4:	0c004d78 	jal	0x135e0
    dbe8:	00002021 	move	a0,zero
    dbec:	34108000 	li	s0,0x8000
    dbf0:	96220000 	lhu	v0,0(s1)
    dbf4:	00501024 	and	v0,v0,s0
    dbf8:	10400002 	beqz	v0,0xdc04
    dbfc:	00002021 	move	a0,zero
    dc00:	24040001 	li	a0,1
    dc04:	0c004d78 	jal	0x135e0
    dc08:	00108042 	srl	s0,s0,0x1
    dc0c:	1600fff8 	bnez	s0,0xdbf0
    dc10:	00000000 	nop
    dc14:	0c004db9 	jal	0x136e4
    dc18:	00000000 	nop
    dc1c:	8f830054 	lw	v1,84(gp)
    dc20:	10000248 	b	0xe544
    dc24:	24020006 	li	v0,6
    dc28:	8f830054 	lw	v1,84(gp)
    dc2c:	3c020001 	lui	v0,0x1
    dc30:	8c426f3c 	lw	v0,28476(v0)
    dc34:	2463ff9c 	addiu	v1,v1,-100
    dc38:	00431023 	subu	v0,v0,v1
    dc3c:	2c420064 	sltiu	v0,v0,100
    dc40:	14400250 	bnez	v0,0xe584
    dc44:	24020007 	li	v0,7
    dc48:	1000024c 	b	0xe57c
    dc4c:	00000000 	nop
    dc50:	24020006 	li	v0,6
    dc54:	a7a20010 	sh	v0,16(sp)
    dc58:	27b10010 	addiu	s1,sp,16
    dc5c:	00008021 	move	s0,zero
    dc60:	0c004d78 	jal	0x135e0
    dc64:	24040001 	li	a0,1
    dc68:	26100001 	addiu	s0,s0,1
    dc6c:	2e020020 	sltiu	v0,s0,32
    dc70:	1440fffb 	bnez	v0,0xdc60
    dc74:	00000000 	nop
    dc78:	0c004d78 	jal	0x135e0
    dc7c:	00002021 	move	a0,zero
    dc80:	0c004d78 	jal	0x135e0
    dc84:	24040001 	li	a0,1
    dc88:	0c004d78 	jal	0x135e0
    dc8c:	00002021 	move	a0,zero
    dc90:	0c004d78 	jal	0x135e0
    dc94:	24040001 	li	a0,1
    dc98:	24100010 	li	s0,16
    dc9c:	32020001 	andi	v0,s0,0x1
    dca0:	10400002 	beqz	v0,0xdcac
    dca4:	00002021 	move	a0,zero
    dca8:	24040001 	li	a0,1
    dcac:	0c004d78 	jal	0x135e0
    dcb0:	00108042 	srl	s0,s0,0x1
    dcb4:	1600fffa 	bnez	s0,0xdca0
    dcb8:	32020001 	andi	v0,s0,0x1
    dcbc:	24100010 	li	s0,16
    dcc0:	32020013 	andi	v0,s0,0x13
    dcc4:	10400002 	beqz	v0,0xdcd0
    dcc8:	00002021 	move	a0,zero
    dccc:	24040001 	li	a0,1
    dcd0:	0c004d78 	jal	0x135e0
    dcd4:	00108042 	srl	s0,s0,0x1
    dcd8:	1600fffa 	bnez	s0,0xdcc4
    dcdc:	32020013 	andi	v0,s0,0x13
    dce0:	0c004d78 	jal	0x135e0
    dce4:	24040001 	li	a0,1
    dce8:	0c004d78 	jal	0x135e0
    dcec:	00002021 	move	a0,zero
    dcf0:	34108000 	li	s0,0x8000
    dcf4:	96220000 	lhu	v0,0(s1)
    dcf8:	00501024 	and	v0,v0,s0
    dcfc:	10400002 	beqz	v0,0xdd08
    dd00:	00002021 	move	a0,zero
    dd04:	24040001 	li	a0,1
    dd08:	0c004d78 	jal	0x135e0
    dd0c:	00108042 	srl	s0,s0,0x1
    dd10:	1600fff8 	bnez	s0,0xdcf4
    dd14:	00000000 	nop
    dd18:	0c004db9 	jal	0x136e4
    dd1c:	00000000 	nop
    dd20:	8f830054 	lw	v1,84(gp)
    dd24:	10000207 	b	0xe544
    dd28:	24020008 	li	v0,8
    dd2c:	8f830054 	lw	v1,84(gp)
    dd30:	3c020001 	lui	v0,0x1
    dd34:	8c426f3c 	lw	v0,28476(v0)
    dd38:	2463ff9c 	addiu	v1,v1,-100
    dd3c:	00431023 	subu	v0,v0,v1
    dd40:	2c420064 	sltiu	v0,v0,100
    dd44:	1440020f 	bnez	v0,0xe584
    dd48:	24020009 	li	v0,9
    dd4c:	1000020b 	b	0xe57c
    dd50:	00000000 	nop
    dd54:	27b10010 	addiu	s1,sp,16
    dd58:	a7a00010 	sh	zero,16(sp)
    dd5c:	00008021 	move	s0,zero
    dd60:	0c004d78 	jal	0x135e0
    dd64:	24040001 	li	a0,1
    dd68:	26100001 	addiu	s0,s0,1
    dd6c:	2e020020 	sltiu	v0,s0,32
    dd70:	1440fffb 	bnez	v0,0xdd60
    dd74:	00000000 	nop
    dd78:	0c004d78 	jal	0x135e0
    dd7c:	00002021 	move	a0,zero
    dd80:	0c004d78 	jal	0x135e0
    dd84:	24040001 	li	a0,1
    dd88:	0c004d78 	jal	0x135e0
    dd8c:	24040001 	li	a0,1
    dd90:	0c004d78 	jal	0x135e0
    dd94:	00002021 	move	a0,zero
    dd98:	24100010 	li	s0,16
    dd9c:	32020001 	andi	v0,s0,0x1
    dda0:	10400002 	beqz	v0,0xddac
    dda4:	00002021 	move	a0,zero
    dda8:	24040001 	li	a0,1
    ddac:	0c004d78 	jal	0x135e0
    ddb0:	00108042 	srl	s0,s0,0x1
    ddb4:	1600fffa 	bnez	s0,0xdda0
    ddb8:	32020001 	andi	v0,s0,0x1
    ddbc:	24100010 	li	s0,16
    ddc0:	32020018 	andi	v0,s0,0x18
    ddc4:	10400002 	beqz	v0,0xddd0
    ddc8:	00002021 	move	a0,zero
    ddcc:	24040001 	li	a0,1
    ddd0:	0c004d78 	jal	0x135e0
    ddd4:	00108042 	srl	s0,s0,0x1
    ddd8:	1600fffa 	bnez	s0,0xddc4
    dddc:	32020018 	andi	v0,s0,0x18
    dde0:	0c004db9 	jal	0x136e4
    dde4:	34108000 	li	s0,0x8000
    dde8:	0c004db9 	jal	0x136e4
    ddec:	00000000 	nop
    ddf0:	0c004d58 	jal	0x13560
    ddf4:	00000000 	nop
    ddf8:	50400005 	beqzl	v0,0xde10
    ddfc:	00108042 	srl	s0,s0,0x1
    de00:	96220000 	lhu	v0,0(s1)
    de04:	00501025 	or	v0,v0,s0
    de08:	a6220000 	sh	v0,0(s1)
    de0c:	00108042 	srl	s0,s0,0x1
    de10:	1600fff7 	bnez	s0,0xddf0
    de14:	00000000 	nop
    de18:	0c004db9 	jal	0x136e4
    de1c:	00008021 	move	s0,zero
    de20:	97a20010 	lhu	v0,16(sp)
    de24:	27b10010 	addiu	s1,sp,16
    de28:	34420001 	ori	v0,v0,0x1
    de2c:	a7a20010 	sh	v0,16(sp)
    de30:	0c004d78 	jal	0x135e0
    de34:	24040001 	li	a0,1
    de38:	26100001 	addiu	s0,s0,1
    de3c:	2e020020 	sltiu	v0,s0,32
    de40:	1440fffb 	bnez	v0,0xde30
    de44:	00000000 	nop
    de48:	0c004d78 	jal	0x135e0
    de4c:	00002021 	move	a0,zero
    de50:	0c004d78 	jal	0x135e0
    de54:	24040001 	li	a0,1
    de58:	0c004d78 	jal	0x135e0
    de5c:	00002021 	move	a0,zero
    de60:	0c004d78 	jal	0x135e0
    de64:	24040001 	li	a0,1
    de68:	24100010 	li	s0,16
    de6c:	32020001 	andi	v0,s0,0x1
    de70:	10400002 	beqz	v0,0xde7c
    de74:	00002021 	move	a0,zero
    de78:	24040001 	li	a0,1
    de7c:	0c004d78 	jal	0x135e0
    de80:	00108042 	srl	s0,s0,0x1
    de84:	1600fffa 	bnez	s0,0xde70
    de88:	32020001 	andi	v0,s0,0x1
    de8c:	24100010 	li	s0,16
    de90:	32020018 	andi	v0,s0,0x18
    de94:	10400002 	beqz	v0,0xdea0
    de98:	00002021 	move	a0,zero
    de9c:	24040001 	li	a0,1
    dea0:	0c004d78 	jal	0x135e0
    dea4:	00108042 	srl	s0,s0,0x1
    dea8:	1600fffa 	bnez	s0,0xde94
    deac:	32020018 	andi	v0,s0,0x18
    deb0:	0c004d78 	jal	0x135e0
    deb4:	24040001 	li	a0,1
    deb8:	0c004d78 	jal	0x135e0
    debc:	00002021 	move	a0,zero
    dec0:	34108000 	li	s0,0x8000
    dec4:	96220000 	lhu	v0,0(s1)
    dec8:	00501024 	and	v0,v0,s0
    decc:	10400002 	beqz	v0,0xded8
    ded0:	00002021 	move	a0,zero
    ded4:	24040001 	li	a0,1
    ded8:	0c004d78 	jal	0x135e0
    dedc:	00108042 	srl	s0,s0,0x1
    dee0:	1600fff8 	bnez	s0,0xdec4
    dee4:	00000000 	nop
    dee8:	0c004db9 	jal	0x136e4
    deec:	00000000 	nop
    def0:	8f830054 	lw	v1,84(gp)
    def4:	10000193 	b	0xe544
    def8:	2402000a 	li	v0,10
    defc:	8f830054 	lw	v1,84(gp)
    df00:	3c020001 	lui	v0,0x1
    df04:	8c426f3c 	lw	v0,28476(v0)
    df08:	2463ff9c 	addiu	v1,v1,-100
    df0c:	00431023 	subu	v0,v0,v1
    df10:	2c420064 	sltiu	v0,v0,100
    df14:	1440019b 	bnez	v0,0xe584
    df18:	2402000b 	li	v0,11
    df1c:	10000197 	b	0xe57c
    df20:	00000000 	nop
    df24:	27b10010 	addiu	s1,sp,16
    df28:	a7a00010 	sh	zero,16(sp)
    df2c:	00008021 	move	s0,zero
    df30:	0c004d78 	jal	0x135e0
    df34:	24040001 	li	a0,1
    df38:	26100001 	addiu	s0,s0,1
    df3c:	2e020020 	sltiu	v0,s0,32
    df40:	1440fffb 	bnez	v0,0xdf30
    df44:	00000000 	nop
    df48:	0c004d78 	jal	0x135e0
    df4c:	00002021 	move	a0,zero
    df50:	0c004d78 	jal	0x135e0
    df54:	24040001 	li	a0,1
    df58:	0c004d78 	jal	0x135e0
    df5c:	24040001 	li	a0,1
    df60:	0c004d78 	jal	0x135e0
    df64:	00002021 	move	a0,zero
    df68:	24100010 	li	s0,16
    df6c:	32020001 	andi	v0,s0,0x1
    df70:	10400002 	beqz	v0,0xdf7c
    df74:	00002021 	move	a0,zero
    df78:	24040001 	li	a0,1
    df7c:	0c004d78 	jal	0x135e0
    df80:	00108042 	srl	s0,s0,0x1
    df84:	1600fffa 	bnez	s0,0xdf70
    df88:	32020001 	andi	v0,s0,0x1
    df8c:	24100010 	li	s0,16
    df90:	32020017 	andi	v0,s0,0x17
    df94:	10400002 	beqz	v0,0xdfa0
    df98:	00002021 	move	a0,zero
    df9c:	24040001 	li	a0,1
    dfa0:	0c004d78 	jal	0x135e0
    dfa4:	00108042 	srl	s0,s0,0x1
    dfa8:	1600fffa 	bnez	s0,0xdf94
    dfac:	32020017 	andi	v0,s0,0x17
    dfb0:	0c004db9 	jal	0x136e4
    dfb4:	34108000 	li	s0,0x8000
    dfb8:	0c004db9 	jal	0x136e4
    dfbc:	00000000 	nop
    dfc0:	0c004d58 	jal	0x13560
    dfc4:	00000000 	nop
    dfc8:	50400005 	beqzl	v0,0xdfe0
    dfcc:	00108042 	srl	s0,s0,0x1
    dfd0:	96220000 	lhu	v0,0(s1)
    dfd4:	00501025 	or	v0,v0,s0
    dfd8:	a6220000 	sh	v0,0(s1)
    dfdc:	00108042 	srl	s0,s0,0x1
    dfe0:	1600fff7 	bnez	s0,0xdfc0
    dfe4:	00000000 	nop
    dfe8:	0c004db9 	jal	0x136e4
    dfec:	00008021 	move	s0,zero
    dff0:	97a20010 	lhu	v0,16(sp)
    dff4:	27b10010 	addiu	s1,sp,16
    dff8:	34420700 	ori	v0,v0,0x700
    dffc:	a7a20010 	sh	v0,16(sp)
    e000:	0c004d78 	jal	0x135e0
    e004:	24040001 	li	a0,1
    e008:	26100001 	addiu	s0,s0,1
    e00c:	2e020020 	sltiu	v0,s0,32
    e010:	1440fffb 	bnez	v0,0xe000
    e014:	00000000 	nop
    e018:	0c004d78 	jal	0x135e0
    e01c:	00002021 	move	a0,zero
    e020:	0c004d78 	jal	0x135e0
    e024:	24040001 	li	a0,1
    e028:	0c004d78 	jal	0x135e0
    e02c:	00002021 	move	a0,zero
    e030:	0c004d78 	jal	0x135e0
    e034:	24040001 	li	a0,1
    e038:	24100010 	li	s0,16
    e03c:	32020001 	andi	v0,s0,0x1
    e040:	10400002 	beqz	v0,0xe04c
    e044:	00002021 	move	a0,zero
    e048:	24040001 	li	a0,1
    e04c:	0c004d78 	jal	0x135e0
    e050:	00108042 	srl	s0,s0,0x1
    e054:	1600fffa 	bnez	s0,0xe040
    e058:	32020001 	andi	v0,s0,0x1
    e05c:	24100010 	li	s0,16
    e060:	32020017 	andi	v0,s0,0x17
    e064:	10400002 	beqz	v0,0xe070
    e068:	00002021 	move	a0,zero
    e06c:	24040001 	li	a0,1
    e070:	0c004d78 	jal	0x135e0
    e074:	00108042 	srl	s0,s0,0x1
    e078:	1600fffa 	bnez	s0,0xe064
    e07c:	32020017 	andi	v0,s0,0x17
    e080:	0c004d78 	jal	0x135e0
    e084:	24040001 	li	a0,1
    e088:	0c004d78 	jal	0x135e0
    e08c:	00002021 	move	a0,zero
    e090:	34108000 	li	s0,0x8000
    e094:	96220000 	lhu	v0,0(s1)
    e098:	00501024 	and	v0,v0,s0
    e09c:	10400002 	beqz	v0,0xe0a8
    e0a0:	00002021 	move	a0,zero
    e0a4:	24040001 	li	a0,1
    e0a8:	0c004d78 	jal	0x135e0
    e0ac:	00108042 	srl	s0,s0,0x1
    e0b0:	1600fff8 	bnez	s0,0xe094
    e0b4:	00000000 	nop
    e0b8:	0c004db9 	jal	0x136e4
    e0bc:	00000000 	nop
    e0c0:	8f830054 	lw	v1,84(gp)
    e0c4:	1000011f 	b	0xe544
    e0c8:	2402000c 	li	v0,12
    e0cc:	8f830054 	lw	v1,84(gp)
    e0d0:	3c020001 	lui	v0,0x1
    e0d4:	8c426f3c 	lw	v0,28476(v0)
    e0d8:	2463ff9c 	addiu	v1,v1,-100
    e0dc:	00431023 	subu	v0,v0,v1
    e0e0:	2c420064 	sltiu	v0,v0,100
    e0e4:	14400127 	bnez	v0,0xe584
    e0e8:	24020012 	li	v0,18
    e0ec:	10000123 	b	0xe57c
    e0f0:	00000000 	nop
    e0f4:	27b10010 	addiu	s1,sp,16
    e0f8:	a7a00010 	sh	zero,16(sp)
    e0fc:	00008021 	move	s0,zero
    e100:	0c004d78 	jal	0x135e0
    e104:	24040001 	li	a0,1
    e108:	26100001 	addiu	s0,s0,1
    e10c:	2e020020 	sltiu	v0,s0,32
    e110:	1440fffb 	bnez	v0,0xe100
    e114:	00000000 	nop
    e118:	0c004d78 	jal	0x135e0
    e11c:	00002021 	move	a0,zero
    e120:	0c004d78 	jal	0x135e0
    e124:	24040001 	li	a0,1
    e128:	0c004d78 	jal	0x135e0
    e12c:	24040001 	li	a0,1
    e130:	0c004d78 	jal	0x135e0
    e134:	00002021 	move	a0,zero
    e138:	24100010 	li	s0,16
    e13c:	32020001 	andi	v0,s0,0x1
    e140:	10400002 	beqz	v0,0xe14c
    e144:	00002021 	move	a0,zero
    e148:	24040001 	li	a0,1
    e14c:	0c004d78 	jal	0x135e0
    e150:	00108042 	srl	s0,s0,0x1
    e154:	1600fffa 	bnez	s0,0xe140
    e158:	32020001 	andi	v0,s0,0x1
    e15c:	24100010 	li	s0,16
    e160:	32020014 	andi	v0,s0,0x14
    e164:	10400002 	beqz	v0,0xe170
    e168:	00002021 	move	a0,zero
    e16c:	24040001 	li	a0,1
    e170:	0c004d78 	jal	0x135e0
    e174:	00108042 	srl	s0,s0,0x1
    e178:	1600fffa 	bnez	s0,0xe164
    e17c:	32020014 	andi	v0,s0,0x14
    e180:	0c004db9 	jal	0x136e4
    e184:	34108000 	li	s0,0x8000
    e188:	0c004db9 	jal	0x136e4
    e18c:	00000000 	nop
    e190:	0c004d58 	jal	0x13560
    e194:	00000000 	nop
    e198:	50400005 	beqzl	v0,0xe1b0
    e19c:	00108042 	srl	s0,s0,0x1
    e1a0:	96220000 	lhu	v0,0(s1)
    e1a4:	00501025 	or	v0,v0,s0
    e1a8:	a6220000 	sh	v0,0(s1)
    e1ac:	00108042 	srl	s0,s0,0x1
    e1b0:	1600fff7 	bnez	s0,0xe190
    e1b4:	00000000 	nop
    e1b8:	0c004db9 	jal	0x136e4
    e1bc:	00008021 	move	s0,zero
    e1c0:	97a20010 	lhu	v0,16(sp)
    e1c4:	27b10010 	addiu	s1,sp,16
    e1c8:	34420010 	ori	v0,v0,0x10
    e1cc:	a7a20010 	sh	v0,16(sp)
    e1d0:	0c004d78 	jal	0x135e0
    e1d4:	24040001 	li	a0,1
    e1d8:	26100001 	addiu	s0,s0,1
    e1dc:	2e020020 	sltiu	v0,s0,32
    e1e0:	1440fffb 	bnez	v0,0xe1d0
    e1e4:	00000000 	nop
    e1e8:	0c004d78 	jal	0x135e0
    e1ec:	00002021 	move	a0,zero
    e1f0:	0c004d78 	jal	0x135e0
    e1f4:	24040001 	li	a0,1
    e1f8:	0c004d78 	jal	0x135e0
    e1fc:	00002021 	move	a0,zero
    e200:	0c004d78 	jal	0x135e0
    e204:	24040001 	li	a0,1
    e208:	24100010 	li	s0,16
    e20c:	32020001 	andi	v0,s0,0x1
    e210:	10400002 	beqz	v0,0xe21c
    e214:	00002021 	move	a0,zero
    e218:	24040001 	li	a0,1
    e21c:	0c004d78 	jal	0x135e0
    e220:	00108042 	srl	s0,s0,0x1
    e224:	1600fffa 	bnez	s0,0xe210
    e228:	32020001 	andi	v0,s0,0x1
    e22c:	24100010 	li	s0,16
    e230:	32020014 	andi	v0,s0,0x14
    e234:	10400002 	beqz	v0,0xe240
    e238:	00002021 	move	a0,zero
    e23c:	24040001 	li	a0,1
    e240:	0c004d78 	jal	0x135e0
    e244:	00108042 	srl	s0,s0,0x1
    e248:	1600fffa 	bnez	s0,0xe234
    e24c:	32020014 	andi	v0,s0,0x14
    e250:	0c004d78 	jal	0x135e0
    e254:	24040001 	li	a0,1
    e258:	0c004d78 	jal	0x135e0
    e25c:	00002021 	move	a0,zero
    e260:	34108000 	li	s0,0x8000
    e264:	96220000 	lhu	v0,0(s1)
    e268:	00501024 	and	v0,v0,s0
    e26c:	10400002 	beqz	v0,0xe278
    e270:	00002021 	move	a0,zero
    e274:	24040001 	li	a0,1
    e278:	0c004d78 	jal	0x135e0
    e27c:	00108042 	srl	s0,s0,0x1
    e280:	1600fff8 	bnez	s0,0xe264
    e284:	00000000 	nop
    e288:	0c004db9 	jal	0x136e4
    e28c:	00000000 	nop
    e290:	8f830054 	lw	v1,84(gp)
    e294:	100000ab 	b	0xe544
    e298:	24020013 	li	v0,19
    e29c:	8f830054 	lw	v1,84(gp)
    e2a0:	3c020001 	lui	v0,0x1
    e2a4:	8c426f3c 	lw	v0,28476(v0)
    e2a8:	2463ff9c 	addiu	v1,v1,-100
    e2ac:	00431023 	subu	v0,v0,v1
    e2b0:	2c420064 	sltiu	v0,v0,100
    e2b4:	144000b3 	bnez	v0,0xe584
    e2b8:	2402000d 	li	v0,13
    e2bc:	100000af 	b	0xe57c
    e2c0:	00000000 	nop
    e2c4:	27b10010 	addiu	s1,sp,16
    e2c8:	a7a00010 	sh	zero,16(sp)
    e2cc:	00008021 	move	s0,zero
    e2d0:	0c004d78 	jal	0x135e0
    e2d4:	24040001 	li	a0,1
    e2d8:	26100001 	addiu	s0,s0,1
    e2dc:	2e020020 	sltiu	v0,s0,32
    e2e0:	1440fffb 	bnez	v0,0xe2d0
    e2e4:	00000000 	nop
    e2e8:	0c004d78 	jal	0x135e0
    e2ec:	00002021 	move	a0,zero
    e2f0:	0c004d78 	jal	0x135e0
    e2f4:	24040001 	li	a0,1
    e2f8:	0c004d78 	jal	0x135e0
    e2fc:	24040001 	li	a0,1
    e300:	0c004d78 	jal	0x135e0
    e304:	00002021 	move	a0,zero
    e308:	24100010 	li	s0,16
    e30c:	32020001 	andi	v0,s0,0x1
    e310:	10400002 	beqz	v0,0xe31c
    e314:	00002021 	move	a0,zero
    e318:	24040001 	li	a0,1
    e31c:	0c004d78 	jal	0x135e0
    e320:	00108042 	srl	s0,s0,0x1
    e324:	1600fffa 	bnez	s0,0xe310
    e328:	32020001 	andi	v0,s0,0x1
    e32c:	24100010 	li	s0,16
    e330:	32020018 	andi	v0,s0,0x18
    e334:	10400002 	beqz	v0,0xe340
    e338:	00002021 	move	a0,zero
    e33c:	24040001 	li	a0,1
    e340:	0c004d78 	jal	0x135e0
    e344:	00108042 	srl	s0,s0,0x1
    e348:	1600fffa 	bnez	s0,0xe334
    e34c:	32020018 	andi	v0,s0,0x18
    e350:	0c004db9 	jal	0x136e4
    e354:	34108000 	li	s0,0x8000
    e358:	0c004db9 	jal	0x136e4
    e35c:	00000000 	nop
    e360:	0c004d58 	jal	0x13560
    e364:	00000000 	nop
    e368:	50400005 	beqzl	v0,0xe380
    e36c:	00108042 	srl	s0,s0,0x1
    e370:	96220000 	lhu	v0,0(s1)
    e374:	00501025 	or	v0,v0,s0
    e378:	a6220000 	sh	v0,0(s1)
    e37c:	00108042 	srl	s0,s0,0x1
    e380:	1600fff7 	bnez	s0,0xe360
    e384:	00000000 	nop
    e388:	0c004db9 	jal	0x136e4
    e38c:	00008021 	move	s0,zero
    e390:	97a20010 	lhu	v0,16(sp)
    e394:	27b10010 	addiu	s1,sp,16
    e398:	3042fffe 	andi	v0,v0,0xfffe
    e39c:	a7a20010 	sh	v0,16(sp)
    e3a0:	0c004d78 	jal	0x135e0
    e3a4:	24040001 	li	a0,1
    e3a8:	26100001 	addiu	s0,s0,1
    e3ac:	2e020020 	sltiu	v0,s0,32
    e3b0:	1440fffb 	bnez	v0,0xe3a0
    e3b4:	00000000 	nop
    e3b8:	0c004d78 	jal	0x135e0
    e3bc:	00002021 	move	a0,zero
    e3c0:	0c004d78 	jal	0x135e0
    e3c4:	24040001 	li	a0,1
    e3c8:	0c004d78 	jal	0x135e0
    e3cc:	00002021 	move	a0,zero
    e3d0:	0c004d78 	jal	0x135e0
    e3d4:	24040001 	li	a0,1
    e3d8:	24100010 	li	s0,16
    e3dc:	32020001 	andi	v0,s0,0x1
    e3e0:	10400002 	beqz	v0,0xe3ec
    e3e4:	00002021 	move	a0,zero
    e3e8:	24040001 	li	a0,1
    e3ec:	0c004d78 	jal	0x135e0
    e3f0:	00108042 	srl	s0,s0,0x1
    e3f4:	1600fffa 	bnez	s0,0xe3e0
    e3f8:	32020001 	andi	v0,s0,0x1
    e3fc:	24100010 	li	s0,16
    e400:	32020018 	andi	v0,s0,0x18
    e404:	10400002 	beqz	v0,0xe410
    e408:	00002021 	move	a0,zero
    e40c:	24040001 	li	a0,1
    e410:	0c004d78 	jal	0x135e0
    e414:	00108042 	srl	s0,s0,0x1
    e418:	1600fffa 	bnez	s0,0xe404
    e41c:	32020018 	andi	v0,s0,0x18
    e420:	0c004d78 	jal	0x135e0
    e424:	24040001 	li	a0,1
    e428:	0c004d78 	jal	0x135e0
    e42c:	00002021 	move	a0,zero
    e430:	34108000 	li	s0,0x8000
    e434:	96220000 	lhu	v0,0(s1)
    e438:	00501024 	and	v0,v0,s0
    e43c:	10400002 	beqz	v0,0xe448
    e440:	00002021 	move	a0,zero
    e444:	24040001 	li	a0,1
    e448:	0c004d78 	jal	0x135e0
    e44c:	00108042 	srl	s0,s0,0x1
    e450:	1600fff8 	bnez	s0,0xe434
    e454:	00000000 	nop
    e458:	0c004db9 	jal	0x136e4
    e45c:	00000000 	nop
    e460:	8f830054 	lw	v1,84(gp)
    e464:	10000037 	b	0xe544
    e468:	2402000e 	li	v0,14
    e46c:	24020840 	li	v0,2112
    e470:	a7a20010 	sh	v0,16(sp)
    e474:	27b10010 	addiu	s1,sp,16
    e478:	00008021 	move	s0,zero
    e47c:	0c004d78 	jal	0x135e0
    e480:	24040001 	li	a0,1
    e484:	26100001 	addiu	s0,s0,1
    e488:	2e020020 	sltiu	v0,s0,32
    e48c:	1440fffb 	bnez	v0,0xe47c
    e490:	00000000 	nop
    e494:	0c004d78 	jal	0x135e0
    e498:	00002021 	move	a0,zero
    e49c:	0c004d78 	jal	0x135e0
    e4a0:	24040001 	li	a0,1
    e4a4:	0c004d78 	jal	0x135e0
    e4a8:	00002021 	move	a0,zero
    e4ac:	0c004d78 	jal	0x135e0
    e4b0:	24040001 	li	a0,1
    e4b4:	24100010 	li	s0,16
    e4b8:	32020001 	andi	v0,s0,0x1
    e4bc:	10400002 	beqz	v0,0xe4c8
    e4c0:	00002021 	move	a0,zero
    e4c4:	24040001 	li	a0,1
    e4c8:	0c004d78 	jal	0x135e0
    e4cc:	00108042 	srl	s0,s0,0x1
    e4d0:	1600fffa 	bnez	s0,0xe4bc
    e4d4:	32020001 	andi	v0,s0,0x1
    e4d8:	24100010 	li	s0,16
    e4dc:	32020013 	andi	v0,s0,0x13
    e4e0:	10400002 	beqz	v0,0xe4ec
    e4e4:	00002021 	move	a0,zero
    e4e8:	24040001 	li	a0,1
    e4ec:	0c004d78 	jal	0x135e0
    e4f0:	00108042 	srl	s0,s0,0x1
    e4f4:	1600fffa 	bnez	s0,0xe4e0
    e4f8:	32020013 	andi	v0,s0,0x13
    e4fc:	0c004d78 	jal	0x135e0
    e500:	24040001 	li	a0,1
    e504:	0c004d78 	jal	0x135e0
    e508:	00002021 	move	a0,zero
    e50c:	34108000 	li	s0,0x8000
    e510:	96220000 	lhu	v0,0(s1)
    e514:	00501024 	and	v0,v0,s0
    e518:	10400002 	beqz	v0,0xe524
    e51c:	00002021 	move	a0,zero
    e520:	24040001 	li	a0,1
    e524:	0c004d78 	jal	0x135e0
    e528:	00108042 	srl	s0,s0,0x1
    e52c:	1600fff8 	bnez	s0,0xe510
    e530:	00000000 	nop
    e534:	0c004db9 	jal	0x136e4
    e538:	00000000 	nop
    e53c:	8f830054 	lw	v1,84(gp)
    e540:	24020010 	li	v0,16
    e544:	3c010001 	lui	at,0x1
    e548:	ac226dd0 	sw	v0,28112(at)
    e54c:	3c010001 	lui	at,0x1
    e550:	1000000c 	b	0xe584
    e554:	ac236f3c 	sw	v1,28476(at)
    e558:	8f830054 	lw	v1,84(gp)
    e55c:	3c020001 	lui	v0,0x1
    e560:	8c426f3c 	lw	v0,28476(v0)
    e564:	2463ff9c 	addiu	v1,v1,-100
    e568:	00431023 	subu	v0,v0,v1
    e56c:	2c420064 	sltiu	v0,v0,100
    e570:	14400004 	bnez	v0,0xe584
    e574:	00000000 	nop
    e578:	24020011 	li	v0,17
    e57c:	3c010001 	lui	at,0x1
    e580:	ac226dd0 	sw	v0,28112(at)
    e584:	8fbf0020 	lw	ra,32(sp)
    e588:	8fb1001c 	lw	s1,28(sp)
    e58c:	8fb00018 	lw	s0,24(sp)
    e590:	03e00008 	jr	ra
    e594:	27bd0028 	addiu	sp,sp,40
    e598:	3c030001 	lui	v1,0x1
    e59c:	8c636d98 	lw	v1,28056(v1)
    e5a0:	27bdffc8 	addiu	sp,sp,-56
    e5a4:	24020002 	li	v0,2
    e5a8:	afbf0034 	sw	ra,52(sp)
    e5ac:	afb20030 	sw	s2,48(sp)
    e5b0:	afb1002c 	sw	s1,44(sp)
    e5b4:	14620004 	bne	v1,v0,0xe5c8
    e5b8:	afb00028 	sw	s0,40(sp)
    e5bc:	3c120002 	lui	s2,0x2
    e5c0:	10000003 	b	0xe5d0
    e5c4:	8e528ff8 	lw	s2,-28680(s2)
    e5c8:	3c120002 	lui	s2,0x2
    e5cc:	8e528ffc 	lw	s2,-28676(s2)
    e5d0:	3c030001 	lui	v1,0x1
    e5d4:	8c636dd4 	lw	v1,28116(v1)
    e5d8:	3c020001 	lui	v0,0x1
    e5dc:	8c426e1c 	lw	v0,28188(v0)
    e5e0:	50620004 	beql	v1,v0,0xe5f4
    e5e4:	2463ffff 	addiu	v1,v1,-1
    e5e8:	3c010001 	lui	at,0x1
    e5ec:	ac236e1c 	sw	v1,28188(at)
    e5f0:	2463ffff 	addiu	v1,v1,-1
    e5f4:	2c620006 	sltiu	v0,v1,6
    e5f8:	10400377 	beqz	v0,0xf3d8
    e5fc:	00031080 	sll	v0,v1,0x2
    e600:	3c010001 	lui	at,0x1
    e604:	00220821 	addu	at,at,v0
    e608:	8c226bd8 	lw	v0,27608(at)
    e60c:	00400008 	jr	v0
    e610:	00000000 	nop
    e614:	00002021 	move	a0,zero
    e618:	00002821 	move	a1,zero
    e61c:	0c004ddb 	jal	0x1376c
    e620:	34068000 	li	a2,0x8000
    e624:	24040010 	li	a0,16
    e628:	24050002 	li	a1,2
    e62c:	24060002 	li	a2,2
    e630:	24020002 	li	v0,2
    e634:	0c004ddb 	jal	0x1376c
    e638:	a7a20018 	sh	v0,24(sp)
    e63c:	24020002 	li	v0,2
    e640:	3c010001 	lui	at,0x1
    e644:	10000364 	b	0xf3d8
    e648:	ac226dd4 	sw	v0,28116(at)
    e64c:	27b10018 	addiu	s1,sp,24
    e650:	a7a00018 	sh	zero,24(sp)
    e654:	00008021 	move	s0,zero
    e658:	0c004d78 	jal	0x135e0
    e65c:	24040001 	li	a0,1
    e660:	26100001 	addiu	s0,s0,1
    e664:	2e020020 	sltiu	v0,s0,32
    e668:	1440fffb 	bnez	v0,0xe658
    e66c:	00000000 	nop
    e670:	0c004d78 	jal	0x135e0
    e674:	00002021 	move	a0,zero
    e678:	0c004d78 	jal	0x135e0
    e67c:	24040001 	li	a0,1
    e680:	0c004d78 	jal	0x135e0
    e684:	24040001 	li	a0,1
    e688:	0c004d78 	jal	0x135e0
    e68c:	00002021 	move	a0,zero
    e690:	24100010 	li	s0,16
    e694:	32020001 	andi	v0,s0,0x1
    e698:	10400002 	beqz	v0,0xe6a4
    e69c:	00002021 	move	a0,zero
    e6a0:	24040001 	li	a0,1
    e6a4:	0c004d78 	jal	0x135e0
    e6a8:	00108042 	srl	s0,s0,0x1
    e6ac:	1600fffa 	bnez	s0,0xe698
    e6b0:	32020001 	andi	v0,s0,0x1
    e6b4:	24100010 	li	s0,16
    e6b8:	0c004d78 	jal	0x135e0
    e6bc:	00002021 	move	a0,zero
    e6c0:	00108042 	srl	s0,s0,0x1
    e6c4:	1600fffc 	bnez	s0,0xe6b8
    e6c8:	00000000 	nop
    e6cc:	0c004db9 	jal	0x136e4
    e6d0:	34108000 	li	s0,0x8000
    e6d4:	0c004db9 	jal	0x136e4
    e6d8:	00000000 	nop
    e6dc:	0c004d58 	jal	0x13560
    e6e0:	00000000 	nop
    e6e4:	50400005 	beqzl	v0,0xe6fc
    e6e8:	00108042 	srl	s0,s0,0x1
    e6ec:	96220000 	lhu	v0,0(s1)
    e6f0:	00501025 	or	v0,v0,s0
    e6f4:	a6220000 	sh	v0,0(s1)
    e6f8:	00108042 	srl	s0,s0,0x1
    e6fc:	1600fff7 	bnez	s0,0xe6dc
    e700:	00000000 	nop
    e704:	0c004db9 	jal	0x136e4
    e708:	00000000 	nop
    e70c:	97a20018 	lhu	v0,24(sp)
    e710:	30428000 	andi	v0,v0,0x8000
    e714:	14400004 	bnez	v0,0xe728
    e718:	24020003 	li	v0,3
    e71c:	3c010001 	lui	at,0x1
    e720:	ac226dd4 	sw	v0,28116(at)
    e724:	24020003 	li	v0,3
    e728:	3c010001 	lui	at,0x1
    e72c:	1000032a 	b	0xf3d8
    e730:	ac226dd4 	sw	v0,28116(at)
    e734:	24040010 	li	a0,16
    e738:	24050002 	li	a1,2
    e73c:	24060002 	li	a2,2
    e740:	24020002 	li	v0,2
    e744:	0c004ddb 	jal	0x1376c
    e748:	a7a20018 	sh	v0,24(sp)
    e74c:	3c030001 	lui	v1,0x1
    e750:	8c636e20 	lw	v1,28192(v1)
    e754:	24020001 	li	v0,1
    e758:	146201e1 	bne	v1,v0,0xeee0
    e75c:	00008021 	move	s0,zero
    e760:	27b10018 	addiu	s1,sp,24
    e764:	a7a00018 	sh	zero,24(sp)
    e768:	0c004d78 	jal	0x135e0
    e76c:	24040001 	li	a0,1
    e770:	26100001 	addiu	s0,s0,1
    e774:	2e020020 	sltiu	v0,s0,32
    e778:	1440fffb 	bnez	v0,0xe768
    e77c:	00000000 	nop
    e780:	0c004d78 	jal	0x135e0
    e784:	00002021 	move	a0,zero
    e788:	0c004d78 	jal	0x135e0
    e78c:	24040001 	li	a0,1
    e790:	0c004d78 	jal	0x135e0
    e794:	24040001 	li	a0,1
    e798:	0c004d78 	jal	0x135e0
    e79c:	00002021 	move	a0,zero
    e7a0:	24100010 	li	s0,16
    e7a4:	32020001 	andi	v0,s0,0x1
    e7a8:	10400002 	beqz	v0,0xe7b4
    e7ac:	00002021 	move	a0,zero
    e7b0:	24040001 	li	a0,1
    e7b4:	0c004d78 	jal	0x135e0
    e7b8:	00108042 	srl	s0,s0,0x1
    e7bc:	1600fffa 	bnez	s0,0xe7a8
    e7c0:	32020001 	andi	v0,s0,0x1
    e7c4:	24100010 	li	s0,16
    e7c8:	32020018 	andi	v0,s0,0x18
    e7cc:	10400002 	beqz	v0,0xe7d8
    e7d0:	00002021 	move	a0,zero
    e7d4:	24040001 	li	a0,1
    e7d8:	0c004d78 	jal	0x135e0
    e7dc:	00108042 	srl	s0,s0,0x1
    e7e0:	1600fffa 	bnez	s0,0xe7cc
    e7e4:	32020018 	andi	v0,s0,0x18
    e7e8:	0c004db9 	jal	0x136e4
    e7ec:	34108000 	li	s0,0x8000
    e7f0:	0c004db9 	jal	0x136e4
    e7f4:	00000000 	nop
    e7f8:	0c004d58 	jal	0x13560
    e7fc:	00000000 	nop
    e800:	50400005 	beqzl	v0,0xe818
    e804:	00108042 	srl	s0,s0,0x1
    e808:	96220000 	lhu	v0,0(s1)
    e80c:	00501025 	or	v0,v0,s0
    e810:	a6220000 	sh	v0,0(s1)
    e814:	00108042 	srl	s0,s0,0x1
    e818:	1600fff7 	bnez	s0,0xe7f8
    e81c:	00000000 	nop
    e820:	0c004db9 	jal	0x136e4
    e824:	00008021 	move	s0,zero
    e828:	27b10018 	addiu	s1,sp,24
    e82c:	a7a00018 	sh	zero,24(sp)
    e830:	0c004d78 	jal	0x135e0
    e834:	24040001 	li	a0,1
    e838:	26100001 	addiu	s0,s0,1
    e83c:	2e020020 	sltiu	v0,s0,32
    e840:	1440fffb 	bnez	v0,0xe830
    e844:	00000000 	nop
    e848:	0c004d78 	jal	0x135e0
    e84c:	00002021 	move	a0,zero
    e850:	0c004d78 	jal	0x135e0
    e854:	24040001 	li	a0,1
    e858:	0c004d78 	jal	0x135e0
    e85c:	24040001 	li	a0,1
    e860:	0c004d78 	jal	0x135e0
    e864:	00002021 	move	a0,zero
    e868:	24100010 	li	s0,16
    e86c:	32020001 	andi	v0,s0,0x1
    e870:	10400002 	beqz	v0,0xe87c
    e874:	00002021 	move	a0,zero
    e878:	24040001 	li	a0,1
    e87c:	0c004d78 	jal	0x135e0
    e880:	00108042 	srl	s0,s0,0x1
    e884:	1600fffa 	bnez	s0,0xe870
    e888:	32020001 	andi	v0,s0,0x1
    e88c:	24100010 	li	s0,16
    e890:	32020018 	andi	v0,s0,0x18
    e894:	10400002 	beqz	v0,0xe8a0
    e898:	00002021 	move	a0,zero
    e89c:	24040001 	li	a0,1
    e8a0:	0c004d78 	jal	0x135e0
    e8a4:	00108042 	srl	s0,s0,0x1
    e8a8:	1600fffa 	bnez	s0,0xe894
    e8ac:	32020018 	andi	v0,s0,0x18
    e8b0:	0c004db9 	jal	0x136e4
    e8b4:	34108000 	li	s0,0x8000
    e8b8:	0c004db9 	jal	0x136e4
    e8bc:	00000000 	nop
    e8c0:	0c004d58 	jal	0x13560
    e8c4:	00000000 	nop
    e8c8:	50400005 	beqzl	v0,0xe8e0
    e8cc:	00108042 	srl	s0,s0,0x1
    e8d0:	96220000 	lhu	v0,0(s1)
    e8d4:	00501025 	or	v0,v0,s0
    e8d8:	a6220000 	sh	v0,0(s1)
    e8dc:	00108042 	srl	s0,s0,0x1
    e8e0:	1600fff7 	bnez	s0,0xe8c0
    e8e4:	00000000 	nop
    e8e8:	0c004db9 	jal	0x136e4
    e8ec:	00008021 	move	s0,zero
    e8f0:	24040018 	li	a0,24
    e8f4:	00002821 	move	a1,zero
    e8f8:	0c004ddb 	jal	0x1376c
    e8fc:	24060404 	li	a2,1028
    e900:	a7a0001a 	sh	zero,26(sp)
    e904:	0c004d78 	jal	0x135e0
    e908:	24040001 	li	a0,1
    e90c:	26100001 	addiu	s0,s0,1
    e910:	2e020020 	sltiu	v0,s0,32
    e914:	1440fffb 	bnez	v0,0xe904
    e918:	00000000 	nop
    e91c:	0c004d78 	jal	0x135e0
    e920:	00002021 	move	a0,zero
    e924:	0c004d78 	jal	0x135e0
    e928:	24040001 	li	a0,1
    e92c:	0c004d78 	jal	0x135e0
    e930:	24040001 	li	a0,1
    e934:	0c004d78 	jal	0x135e0
    e938:	00002021 	move	a0,zero
    e93c:	24100010 	li	s0,16
    e940:	32020001 	andi	v0,s0,0x1
    e944:	10400002 	beqz	v0,0xe950
    e948:	00002021 	move	a0,zero
    e94c:	24040001 	li	a0,1
    e950:	0c004d78 	jal	0x135e0
    e954:	00108042 	srl	s0,s0,0x1
    e958:	1600fffa 	bnez	s0,0xe944
    e95c:	32020001 	andi	v0,s0,0x1
    e960:	24100010 	li	s0,16
    e964:	32020018 	andi	v0,s0,0x18
    e968:	10400002 	beqz	v0,0xe974
    e96c:	00002021 	move	a0,zero
    e970:	24040001 	li	a0,1
    e974:	0c004d78 	jal	0x135e0
    e978:	00108042 	srl	s0,s0,0x1
    e97c:	1600fffa 	bnez	s0,0xe968
    e980:	32020018 	andi	v0,s0,0x18
    e984:	0c004db9 	jal	0x136e4
    e988:	34108000 	li	s0,0x8000
    e98c:	0c004db9 	jal	0x136e4
    e990:	00000000 	nop
    e994:	0c004d58 	jal	0x13560
    e998:	00000000 	nop
    e99c:	50400005 	beqzl	v0,0xe9b4
    e9a0:	00108042 	srl	s0,s0,0x1
    e9a4:	97a2001a 	lhu	v0,26(sp)
    e9a8:	00501025 	or	v0,v0,s0
    e9ac:	a7a2001a 	sh	v0,26(sp)
    e9b0:	00108042 	srl	s0,s0,0x1
    e9b4:	1600fff7 	bnez	s0,0xe994
    e9b8:	00000000 	nop
    e9bc:	0c004db9 	jal	0x136e4
    e9c0:	00008021 	move	s0,zero
    e9c4:	a7a0001a 	sh	zero,26(sp)
    e9c8:	0c004d78 	jal	0x135e0
    e9cc:	24040001 	li	a0,1
    e9d0:	26100001 	addiu	s0,s0,1
    e9d4:	2e020020 	sltiu	v0,s0,32
    e9d8:	1440fffb 	bnez	v0,0xe9c8
    e9dc:	00000000 	nop
    e9e0:	0c004d78 	jal	0x135e0
    e9e4:	00002021 	move	a0,zero
    e9e8:	0c004d78 	jal	0x135e0
    e9ec:	24040001 	li	a0,1
    e9f0:	0c004d78 	jal	0x135e0
    e9f4:	24040001 	li	a0,1
    e9f8:	0c004d78 	jal	0x135e0
    e9fc:	00002021 	move	a0,zero
    ea00:	24100010 	li	s0,16
    ea04:	32020001 	andi	v0,s0,0x1
    ea08:	10400002 	beqz	v0,0xea14
    ea0c:	00002021 	move	a0,zero
    ea10:	24040001 	li	a0,1
    ea14:	0c004d78 	jal	0x135e0
    ea18:	00108042 	srl	s0,s0,0x1
    ea1c:	1600fffa 	bnez	s0,0xea08
    ea20:	32020001 	andi	v0,s0,0x1
    ea24:	24100010 	li	s0,16
    ea28:	32020018 	andi	v0,s0,0x18
    ea2c:	10400002 	beqz	v0,0xea38
    ea30:	00002021 	move	a0,zero
    ea34:	24040001 	li	a0,1
    ea38:	0c004d78 	jal	0x135e0
    ea3c:	00108042 	srl	s0,s0,0x1
    ea40:	1600fffa 	bnez	s0,0xea2c
    ea44:	32020018 	andi	v0,s0,0x18
    ea48:	0c004db9 	jal	0x136e4
    ea4c:	34108000 	li	s0,0x8000
    ea50:	0c004db9 	jal	0x136e4
    ea54:	00000000 	nop
    ea58:	0c004d58 	jal	0x13560
    ea5c:	00000000 	nop
    ea60:	50400005 	beqzl	v0,0xea78
    ea64:	00108042 	srl	s0,s0,0x1
    ea68:	97a2001a 	lhu	v0,26(sp)
    ea6c:	00501025 	or	v0,v0,s0
    ea70:	a7a2001a 	sh	v0,26(sp)
    ea74:	00108042 	srl	s0,s0,0x1
    ea78:	1600fff7 	bnez	s0,0xea58
    ea7c:	00000000 	nop
    ea80:	0c004db9 	jal	0x136e4
    ea84:	00008021 	move	s0,zero
    ea88:	a7a0001c 	sh	zero,28(sp)
    ea8c:	0c004d78 	jal	0x135e0
    ea90:	24040001 	li	a0,1
    ea94:	26100001 	addiu	s0,s0,1
    ea98:	2e020020 	sltiu	v0,s0,32
    ea9c:	1440fffb 	bnez	v0,0xea8c
    eaa0:	00000000 	nop
    eaa4:	0c004d78 	jal	0x135e0
    eaa8:	00002021 	move	a0,zero
    eaac:	0c004d78 	jal	0x135e0
    eab0:	24040001 	li	a0,1
    eab4:	0c004d78 	jal	0x135e0
    eab8:	24040001 	li	a0,1
    eabc:	0c004d78 	jal	0x135e0
    eac0:	00002021 	move	a0,zero
    eac4:	24100010 	li	s0,16
    eac8:	0c004d78 	jal	0x135e0
    eacc:	00002021 	move	a0,zero
    ead0:	00108042 	srl	s0,s0,0x1
    ead4:	1600fffc 	bnez	s0,0xeac8
    ead8:	00000000 	nop
    eadc:	24100010 	li	s0,16
    eae0:	3202001e 	andi	v0,s0,0x1e
    eae4:	10400002 	beqz	v0,0xeaf0
    eae8:	00002021 	move	a0,zero
    eaec:	24040001 	li	a0,1
    eaf0:	0c004d78 	jal	0x135e0
    eaf4:	00108042 	srl	s0,s0,0x1
    eaf8:	1600fffa 	bnez	s0,0xeae4
    eafc:	3202001e 	andi	v0,s0,0x1e
    eb00:	0c004db9 	jal	0x136e4
    eb04:	34108000 	li	s0,0x8000
    eb08:	0c004db9 	jal	0x136e4
    eb0c:	00000000 	nop
    eb10:	0c004d58 	jal	0x13560
    eb14:	00000000 	nop
    eb18:	50400005 	beqzl	v0,0xeb30
    eb1c:	00108042 	srl	s0,s0,0x1
    eb20:	97a2001c 	lhu	v0,28(sp)
    eb24:	00501025 	or	v0,v0,s0
    eb28:	a7a2001c 	sh	v0,28(sp)
    eb2c:	00108042 	srl	s0,s0,0x1
    eb30:	1600fff7 	bnez	s0,0xeb10
    eb34:	00000000 	nop
    eb38:	0c004db9 	jal	0x136e4
    eb3c:	00008021 	move	s0,zero
    eb40:	a7a0001c 	sh	zero,28(sp)
    eb44:	0c004d78 	jal	0x135e0
    eb48:	24040001 	li	a0,1
    eb4c:	26100001 	addiu	s0,s0,1
    eb50:	2e020020 	sltiu	v0,s0,32
    eb54:	1440fffb 	bnez	v0,0xeb44
    eb58:	00000000 	nop
    eb5c:	0c004d78 	jal	0x135e0
    eb60:	00002021 	move	a0,zero
    eb64:	0c004d78 	jal	0x135e0
    eb68:	24040001 	li	a0,1
    eb6c:	0c004d78 	jal	0x135e0
    eb70:	24040001 	li	a0,1
    eb74:	0c004d78 	jal	0x135e0
    eb78:	00002021 	move	a0,zero
    eb7c:	24100010 	li	s0,16
    eb80:	0c004d78 	jal	0x135e0
    eb84:	00002021 	move	a0,zero
    eb88:	00108042 	srl	s0,s0,0x1
    eb8c:	1600fffc 	bnez	s0,0xeb80
    eb90:	00000000 	nop
    eb94:	24100010 	li	s0,16
    eb98:	3202001e 	andi	v0,s0,0x1e
    eb9c:	10400002 	beqz	v0,0xeba8
    eba0:	00002021 	move	a0,zero
    eba4:	24040001 	li	a0,1
    eba8:	0c004d78 	jal	0x135e0
    ebac:	00108042 	srl	s0,s0,0x1
    ebb0:	1600fffa 	bnez	s0,0xeb9c
    ebb4:	3202001e 	andi	v0,s0,0x1e
    ebb8:	0c004db9 	jal	0x136e4
    ebbc:	34108000 	li	s0,0x8000
    ebc0:	0c004db9 	jal	0x136e4
    ebc4:	00000000 	nop
    ebc8:	0c004d58 	jal	0x13560
    ebcc:	00000000 	nop
    ebd0:	50400005 	beqzl	v0,0xebe8
    ebd4:	00108042 	srl	s0,s0,0x1
    ebd8:	97a2001c 	lhu	v0,28(sp)
    ebdc:	00501025 	or	v0,v0,s0
    ebe0:	a7a2001c 	sh	v0,28(sp)
    ebe4:	00108042 	srl	s0,s0,0x1
    ebe8:	1600fff7 	bnez	s0,0xebc8
    ebec:	00000000 	nop
    ebf0:	0c004db9 	jal	0x136e4
    ebf4:	00008021 	move	s0,zero
    ebf8:	24020002 	li	v0,2
    ebfc:	a7a2001e 	sh	v0,30(sp)
    ec00:	0c004d78 	jal	0x135e0
    ec04:	24040001 	li	a0,1
    ec08:	26100001 	addiu	s0,s0,1
    ec0c:	2e020020 	sltiu	v0,s0,32
    ec10:	1440fffb 	bnez	v0,0xec00
    ec14:	00000000 	nop
    ec18:	0c004d78 	jal	0x135e0
    ec1c:	00002021 	move	a0,zero
    ec20:	0c004d78 	jal	0x135e0
    ec24:	24040001 	li	a0,1
    ec28:	0c004d78 	jal	0x135e0
    ec2c:	00002021 	move	a0,zero
    ec30:	0c004d78 	jal	0x135e0
    ec34:	24040001 	li	a0,1
    ec38:	24100010 	li	s0,16
    ec3c:	0c004d78 	jal	0x135e0
    ec40:	00002021 	move	a0,zero
    ec44:	00108042 	srl	s0,s0,0x1
    ec48:	1600fffc 	bnez	s0,0xec3c
    ec4c:	00000000 	nop
    ec50:	24100010 	li	s0,16
    ec54:	3202001e 	andi	v0,s0,0x1e
    ec58:	10400002 	beqz	v0,0xec64
    ec5c:	00002021 	move	a0,zero
    ec60:	24040001 	li	a0,1
    ec64:	0c004d78 	jal	0x135e0
    ec68:	00108042 	srl	s0,s0,0x1
    ec6c:	1600fffa 	bnez	s0,0xec58
    ec70:	3202001e 	andi	v0,s0,0x1e
    ec74:	0c004d78 	jal	0x135e0
    ec78:	24040001 	li	a0,1
    ec7c:	0c004d78 	jal	0x135e0
    ec80:	00002021 	move	a0,zero
    ec84:	34108000 	li	s0,0x8000
    ec88:	97a2001e 	lhu	v0,30(sp)
    ec8c:	00501024 	and	v0,v0,s0
    ec90:	10400002 	beqz	v0,0xec9c
    ec94:	00002021 	move	a0,zero
    ec98:	24040001 	li	a0,1
    ec9c:	0c004d78 	jal	0x135e0
    eca0:	00108042 	srl	s0,s0,0x1
    eca4:	1600fff8 	bnez	s0,0xec88
    eca8:	00000000 	nop
    ecac:	0c004db9 	jal	0x136e4
    ecb0:	00008021 	move	s0,zero
    ecb4:	a7a00020 	sh	zero,32(sp)
    ecb8:	0c004d78 	jal	0x135e0
    ecbc:	24040001 	li	a0,1
    ecc0:	26100001 	addiu	s0,s0,1
    ecc4:	2e020020 	sltiu	v0,s0,32
    ecc8:	1440fffb 	bnez	v0,0xecb8
    eccc:	00000000 	nop
    ecd0:	0c004d78 	jal	0x135e0
    ecd4:	00002021 	move	a0,zero
    ecd8:	0c004d78 	jal	0x135e0
    ecdc:	24040001 	li	a0,1
    ece0:	0c004d78 	jal	0x135e0
    ece4:	24040001 	li	a0,1
    ece8:	0c004d78 	jal	0x135e0
    ecec:	00002021 	move	a0,zero
    ecf0:	24100010 	li	s0,16
    ecf4:	0c004d78 	jal	0x135e0
    ecf8:	00002021 	move	a0,zero
    ecfc:	00108042 	srl	s0,s0,0x1
    ed00:	1600fffc 	bnez	s0,0xecf4
    ed04:	00000000 	nop
    ed08:	24100010 	li	s0,16
    ed0c:	3202001e 	andi	v0,s0,0x1e
    ed10:	10400002 	beqz	v0,0xed1c
    ed14:	00002021 	move	a0,zero
    ed18:	24040001 	li	a0,1
    ed1c:	0c004d78 	jal	0x135e0
    ed20:	00108042 	srl	s0,s0,0x1
    ed24:	1600fffa 	bnez	s0,0xed10
    ed28:	3202001e 	andi	v0,s0,0x1e
    ed2c:	0c004db9 	jal	0x136e4
    ed30:	34108000 	li	s0,0x8000
    ed34:	0c004db9 	jal	0x136e4
    ed38:	00000000 	nop
    ed3c:	0c004d58 	jal	0x13560
    ed40:	00000000 	nop
    ed44:	50400005 	beqzl	v0,0xed5c
    ed48:	00108042 	srl	s0,s0,0x1
    ed4c:	97a20020 	lhu	v0,32(sp)
    ed50:	00501025 	or	v0,v0,s0
    ed54:	a7a20020 	sh	v0,32(sp)
    ed58:	00108042 	srl	s0,s0,0x1
    ed5c:	1600fff7 	bnez	s0,0xed3c
    ed60:	00000000 	nop
    ed64:	0c004db9 	jal	0x136e4
    ed68:	00008021 	move	s0,zero
    ed6c:	a7a00020 	sh	zero,32(sp)
    ed70:	0c004d78 	jal	0x135e0
    ed74:	24040001 	li	a0,1
    ed78:	26100001 	addiu	s0,s0,1
    ed7c:	2e020020 	sltiu	v0,s0,32
    ed80:	1440fffb 	bnez	v0,0xed70
    ed84:	00000000 	nop
    ed88:	0c004d78 	jal	0x135e0
    ed8c:	00002021 	move	a0,zero
    ed90:	0c004d78 	jal	0x135e0
    ed94:	24040001 	li	a0,1
    ed98:	0c004d78 	jal	0x135e0
    ed9c:	24040001 	li	a0,1
    eda0:	0c004d78 	jal	0x135e0
    eda4:	00002021 	move	a0,zero
    eda8:	24100010 	li	s0,16
    edac:	0c004d78 	jal	0x135e0
    edb0:	00002021 	move	a0,zero
    edb4:	00108042 	srl	s0,s0,0x1
    edb8:	1600fffc 	bnez	s0,0xedac
    edbc:	00000000 	nop
    edc0:	24100010 	li	s0,16
    edc4:	3202001e 	andi	v0,s0,0x1e
    edc8:	10400002 	beqz	v0,0xedd4
    edcc:	00002021 	move	a0,zero
    edd0:	24040001 	li	a0,1
    edd4:	0c004d78 	jal	0x135e0
    edd8:	00108042 	srl	s0,s0,0x1
    eddc:	1600fffa 	bnez	s0,0xedc8
    ede0:	3202001e 	andi	v0,s0,0x1e
    ede4:	0c004db9 	jal	0x136e4
    ede8:	34108000 	li	s0,0x8000
    edec:	0c004db9 	jal	0x136e4
    edf0:	00000000 	nop
    edf4:	0c004d58 	jal	0x13560
    edf8:	00000000 	nop
    edfc:	50400005 	beqzl	v0,0xee14
    ee00:	00108042 	srl	s0,s0,0x1
    ee04:	97a20020 	lhu	v0,32(sp)
    ee08:	00501025 	or	v0,v0,s0
    ee0c:	a7a20020 	sh	v0,32(sp)
    ee10:	00108042 	srl	s0,s0,0x1
    ee14:	1600fff7 	bnez	s0,0xedf4
    ee18:	00000000 	nop
    ee1c:	0c004db9 	jal	0x136e4
    ee20:	00008021 	move	s0,zero
    ee24:	a7a00022 	sh	zero,34(sp)
    ee28:	0c004d78 	jal	0x135e0
    ee2c:	24040001 	li	a0,1
    ee30:	26100001 	addiu	s0,s0,1
    ee34:	2e020020 	sltiu	v0,s0,32
    ee38:	1440fffb 	bnez	v0,0xee28
    ee3c:	00000000 	nop
    ee40:	0c004d78 	jal	0x135e0
    ee44:	00002021 	move	a0,zero
    ee48:	0c004d78 	jal	0x135e0
    ee4c:	24040001 	li	a0,1
    ee50:	0c004d78 	jal	0x135e0
    ee54:	00002021 	move	a0,zero
    ee58:	0c004d78 	jal	0x135e0
    ee5c:	24040001 	li	a0,1
    ee60:	24100010 	li	s0,16
    ee64:	0c004d78 	jal	0x135e0
    ee68:	00002021 	move	a0,zero
    ee6c:	00108042 	srl	s0,s0,0x1
    ee70:	1600fffc 	bnez	s0,0xee64
    ee74:	00000000 	nop
    ee78:	24100010 	li	s0,16
    ee7c:	0c004d78 	jal	0x135e0
    ee80:	00002021 	move	a0,zero
    ee84:	00108042 	srl	s0,s0,0x1
    ee88:	1600fffc 	bnez	s0,0xee7c
    ee8c:	00000000 	nop
    ee90:	0c004d78 	jal	0x135e0
    ee94:	24040001 	li	a0,1
    ee98:	0c004d78 	jal	0x135e0
    ee9c:	00002021 	move	a0,zero
    eea0:	34108000 	li	s0,0x8000
    eea4:	97a20022 	lhu	v0,34(sp)
    eea8:	00501024 	and	v0,v0,s0
    eeac:	10400002 	beqz	v0,0xeeb8
    eeb0:	00002021 	move	a0,zero
    eeb4:	24040001 	li	a0,1
    eeb8:	0c004d78 	jal	0x135e0
    eebc:	00108042 	srl	s0,s0,0x1
    eec0:	1600fff8 	bnez	s0,0xeea4
    eec4:	00000000 	nop
    eec8:	0c004db9 	jal	0x136e4
    eecc:	00000000 	nop
    eed0:	24040018 	li	a0,24
    eed4:	24050002 	li	a1,2
    eed8:	0c004ddb 	jal	0x1376c
    eedc:	24060004 	li	a2,4
    eee0:	3c100001 	lui	s0,0x1
    eee4:	8e106e24 	lw	s0,28196(s0)
    eee8:	24020001 	li	v0,1
    eeec:	1602011d 	bne	s0,v0,0xf364
    eef0:	00000000 	nop
    eef4:	3c020001 	lui	v0,0x1
    eef8:	94426f26 	lhu	v0,28454(v0)
    eefc:	3c010001 	lui	at,0x1
    ef00:	ac206e24 	sw	zero,28196(at)
    ef04:	24429fbc 	addiu	v0,v0,-24644
    ef08:	2c420004 	sltiu	v0,v0,4
    ef0c:	1040000c 	beqz	v0,0xef40
    ef10:	24040009 	li	a0,9
    ef14:	24050001 	li	a1,1
    ef18:	0c004ddb 	jal	0x1376c
    ef1c:	24060400 	li	a2,1024
    ef20:	24040018 	li	a0,24
    ef24:	24050001 	li	a1,1
    ef28:	0c004ddb 	jal	0x1376c
    ef2c:	24060020 	li	a2,32
    ef30:	24040018 	li	a0,24
    ef34:	24050001 	li	a1,1
    ef38:	0c004ddb 	jal	0x1376c
    ef3c:	24062000 	li	a2,8192
    ef40:	3c024000 	lui	v0,0x4000
    ef44:	02421024 	and	v0,s2,v0
    ef48:	10400123 	beqz	v0,0xf3d8
    ef4c:	3c022000 	lui	v0,0x2000
    ef50:	02421024 	and	v0,s2,v0
    ef54:	10400004 	beqz	v0,0xef68
    ef58:	00000000 	nop
    ef5c:	3c010001 	lui	at,0x1
    ef60:	10000003 	b	0xef70
    ef64:	ac306f1c 	sw	s0,28444(at)
    ef68:	3c010001 	lui	at,0x1
    ef6c:	ac206f1c 	sw	zero,28444(at)
    ef70:	3c030001 	lui	v1,0x1
    ef74:	8c636f34 	lw	v1,28468(v1)
    ef78:	24020005 	li	v0,5
    ef7c:	146200f9 	bne	v1,v0,0xf364
    ef80:	00000000 	nop
    ef84:	3c020001 	lui	v0,0x1
    ef88:	8c426f1c 	lw	v0,28444(v0)
    ef8c:	10400067 	beqz	v0,0xf12c
    ef90:	3c020004 	lui	v0,0x4
    ef94:	02421024 	and	v0,s2,v0
    ef98:	10400011 	beqz	v0,0xefe0
    ef9c:	a7a00018 	sh	zero,24(sp)
    efa0:	3c020008 	lui	v0,0x8
    efa4:	02421024 	and	v0,s2,v0
    efa8:	10400002 	beqz	v0,0xefb4
    efac:	24020200 	li	v0,512
    efb0:	a7a20018 	sh	v0,24(sp)
    efb4:	3c020010 	lui	v0,0x10
    efb8:	02421024 	and	v0,s2,v0
    efbc:	10400004 	beqz	v0,0xefd0
    efc0:	00000000 	nop
    efc4:	97a20018 	lhu	v0,24(sp)
    efc8:	34420100 	ori	v0,v0,0x100
    efcc:	a7a20018 	sh	v0,24(sp)
    efd0:	97a60018 	lhu	a2,24(sp)
    efd4:	24040009 	li	a0,9
    efd8:	10000004 	b	0xefec
    efdc:	00002821 	move	a1,zero
    efe0:	24040009 	li	a0,9
    efe4:	00002821 	move	a1,zero
    efe8:	00003021 	move	a2,zero
    efec:	0c004ddb 	jal	0x1376c
    eff0:	00000000 	nop
    eff4:	24020001 	li	v0,1
    eff8:	a7a2001a 	sh	v0,26(sp)
    effc:	3c020008 	lui	v0,0x8
    f000:	02421024 	and	v0,s2,v0
    f004:	1040000c 	beqz	v0,0xf038
    f008:	3c020002 	lui	v0,0x2
    f00c:	02421024 	and	v0,s2,v0
    f010:	10400002 	beqz	v0,0xf01c
    f014:	24020101 	li	v0,257
    f018:	a7a2001a 	sh	v0,26(sp)
    f01c:	3c020001 	lui	v0,0x1
    f020:	02421024 	and	v0,s2,v0
    f024:	10400005 	beqz	v0,0xf03c
    f028:	3c020010 	lui	v0,0x10
    f02c:	97a2001a 	lhu	v0,26(sp)
    f030:	34420040 	ori	v0,v0,0x40
    f034:	a7a2001a 	sh	v0,26(sp)
    f038:	3c020010 	lui	v0,0x10
    f03c:	02421024 	and	v0,s2,v0
    f040:	1040000e 	beqz	v0,0xf07c
    f044:	3c020002 	lui	v0,0x2
    f048:	02421024 	and	v0,s2,v0
    f04c:	10400005 	beqz	v0,0xf064
    f050:	3c020001 	lui	v0,0x1
    f054:	97a2001a 	lhu	v0,26(sp)
    f058:	34420080 	ori	v0,v0,0x80
    f05c:	a7a2001a 	sh	v0,26(sp)
    f060:	3c020001 	lui	v0,0x1
    f064:	02421024 	and	v0,s2,v0
    f068:	10400005 	beqz	v0,0xf080
    f06c:	3c0300a0 	lui	v1,0xa0
    f070:	97a2001a 	lhu	v0,26(sp)
    f074:	34420020 	ori	v0,v0,0x20
    f078:	a7a2001a 	sh	v0,26(sp)
    f07c:	3c0300a0 	lui	v1,0xa0
    f080:	02431024 	and	v0,s2,v1
    f084:	54430004 	bnel	v0,v1,0xf098
    f088:	3c020020 	lui	v0,0x20
    f08c:	97a2001a 	lhu	v0,26(sp)
    f090:	1000000c 	b	0xf0c4
    f094:	34420400 	ori	v0,v0,0x400
    f098:	02421024 	and	v0,s2,v0
    f09c:	50400004 	beqzl	v0,0xf0b0
    f0a0:	3c020080 	lui	v0,0x80
    f0a4:	97a2001a 	lhu	v0,26(sp)
    f0a8:	10000006 	b	0xf0c4
    f0ac:	34420800 	ori	v0,v0,0x800
    f0b0:	02421024 	and	v0,s2,v0
    f0b4:	10400004 	beqz	v0,0xf0c8
    f0b8:	00000000 	nop
    f0bc:	97a2001a 	lhu	v0,26(sp)
    f0c0:	34420c00 	ori	v0,v0,0xc00
    f0c4:	a7a2001a 	sh	v0,26(sp)
    f0c8:	97a6001a 	lhu	a2,26(sp)
    f0cc:	24040004 	li	a0,4
    f0d0:	0c004ddb 	jal	0x1376c
    f0d4:	00002821 	move	a1,zero
    f0d8:	3c020004 	lui	v0,0x4
    f0dc:	02421024 	and	v0,s2,v0
    f0e0:	10400004 	beqz	v0,0xf0f4
    f0e4:	a7a0001c 	sh	zero,28(sp)
    f0e8:	32425000 	andi	v0,s2,0x5000
    f0ec:	14400004 	bnez	v0,0xf100
    f0f0:	00000000 	nop
    f0f4:	32424000 	andi	v0,s2,0x4000
    f0f8:	10400005 	beqz	v0,0xf110
    f0fc:	00002021 	move	a0,zero
    f100:	0c004cf9 	jal	0x133e4
    f104:	02402021 	move	a0,s2
    f108:	10000096 	b	0xf364
    f10c:	00000000 	nop
    f110:	97a6001c 	lhu	a2,28(sp)
    f114:	00002821 	move	a1,zero
    f118:	34c61200 	ori	a2,a2,0x1200
    f11c:	0c004ddb 	jal	0x1376c
    f120:	a7a6001c 	sh	a2,28(sp)
    f124:	1000008f 	b	0xf364
    f128:	00000000 	nop
    f12c:	02421024 	and	v0,s2,v0
    f130:	10400004 	beqz	v0,0xf144
    f134:	a7a00018 	sh	zero,24(sp)
    f138:	32425000 	andi	v0,s2,0x5000
    f13c:	14400004 	bnez	v0,0xf150
    f140:	00000000 	nop
    f144:	32424000 	andi	v0,s2,0x4000
    f148:	10400005 	beqz	v0,0xf160
    f14c:	3c020010 	lui	v0,0x10
    f150:	0c004cf9 	jal	0x133e4
    f154:	02402021 	move	a0,s2
    f158:	10000019 	b	0xf1c0
    f15c:	a7a0001a 	sh	zero,26(sp)
    f160:	02421024 	and	v0,s2,v0
    f164:	10400004 	beqz	v0,0xf178
    f168:	00000000 	nop
    f16c:	97a20018 	lhu	v0,24(sp)
    f170:	10000004 	b	0xf184
    f174:	a7a20018 	sh	v0,24(sp)
    f178:	97a20018 	lhu	v0,24(sp)
    f17c:	34420100 	ori	v0,v0,0x100
    f180:	a7a20018 	sh	v0,24(sp)
    f184:	3c020001 	lui	v0,0x1
    f188:	02421024 	and	v0,s2,v0
    f18c:	10400004 	beqz	v0,0xf1a0
    f190:	00000000 	nop
    f194:	97a20018 	lhu	v0,24(sp)
    f198:	10000004 	b	0xf1ac
    f19c:	a7a20018 	sh	v0,24(sp)
    f1a0:	97a20018 	lhu	v0,24(sp)
    f1a4:	34422000 	ori	v0,v0,0x2000
    f1a8:	a7a20018 	sh	v0,24(sp)
    f1ac:	97a60018 	lhu	a2,24(sp)
    f1b0:	00002021 	move	a0,zero
    f1b4:	0c004ddb 	jal	0x1376c
    f1b8:	00002821 	move	a1,zero
    f1bc:	a7a0001a 	sh	zero,26(sp)
    f1c0:	00008021 	move	s0,zero
    f1c4:	0c004d78 	jal	0x135e0
    f1c8:	24040001 	li	a0,1
    f1cc:	26100001 	addiu	s0,s0,1
    f1d0:	2e020020 	sltiu	v0,s0,32
    f1d4:	1440fffb 	bnez	v0,0xf1c4
    f1d8:	00000000 	nop
    f1dc:	0c004d78 	jal	0x135e0
    f1e0:	00002021 	move	a0,zero
    f1e4:	0c004d78 	jal	0x135e0
    f1e8:	24040001 	li	a0,1
    f1ec:	0c004d78 	jal	0x135e0
    f1f0:	24040001 	li	a0,1
    f1f4:	0c004d78 	jal	0x135e0
    f1f8:	00002021 	move	a0,zero
    f1fc:	24100010 	li	s0,16
    f200:	32020001 	andi	v0,s0,0x1
    f204:	10400002 	beqz	v0,0xf210
    f208:	00002021 	move	a0,zero
    f20c:	24040001 	li	a0,1
    f210:	0c004d78 	jal	0x135e0
    f214:	00108042 	srl	s0,s0,0x1
    f218:	1600fffa 	bnez	s0,0xf204
    f21c:	32020001 	andi	v0,s0,0x1
    f220:	24100010 	li	s0,16
    f224:	0c004d78 	jal	0x135e0
    f228:	00002021 	move	a0,zero
    f22c:	00108042 	srl	s0,s0,0x1
    f230:	1600fffc 	bnez	s0,0xf224
    f234:	00000000 	nop
    f238:	0c004db9 	jal	0x136e4
    f23c:	34108000 	li	s0,0x8000
    f240:	0c004db9 	jal	0x136e4
    f244:	00000000 	nop
    f248:	0c004d58 	jal	0x13560
    f24c:	00000000 	nop
    f250:	50400005 	beqzl	v0,0xf268
    f254:	00108042 	srl	s0,s0,0x1
    f258:	97a2001a 	lhu	v0,26(sp)
    f25c:	00501025 	or	v0,v0,s0
    f260:	a7a2001a 	sh	v0,26(sp)
    f264:	00108042 	srl	s0,s0,0x1
    f268:	1600fff7 	bnez	s0,0xf248
    f26c:	00000000 	nop
    f270:	0c004db9 	jal	0x136e4
    f274:	00008021 	move	s0,zero
    f278:	a7a0001a 	sh	zero,26(sp)
    f27c:	0c004d78 	jal	0x135e0
    f280:	24040001 	li	a0,1
    f284:	26100001 	addiu	s0,s0,1
    f288:	2e020020 	sltiu	v0,s0,32
    f28c:	1440fffb 	bnez	v0,0xf27c
    f290:	00000000 	nop
    f294:	0c004d78 	jal	0x135e0
    f298:	00002021 	move	a0,zero
    f29c:	0c004d78 	jal	0x135e0
    f2a0:	24040001 	li	a0,1
    f2a4:	0c004d78 	jal	0x135e0
    f2a8:	24040001 	li	a0,1
    f2ac:	0c004d78 	jal	0x135e0
    f2b0:	00002021 	move	a0,zero
    f2b4:	24100010 	li	s0,16
    f2b8:	32020001 	andi	v0,s0,0x1
    f2bc:	10400002 	beqz	v0,0xf2c8
    f2c0:	00002021 	move	a0,zero
    f2c4:	24040001 	li	a0,1
    f2c8:	0c004d78 	jal	0x135e0
    f2cc:	00108042 	srl	s0,s0,0x1
    f2d0:	1600fffa 	bnez	s0,0xf2bc
    f2d4:	32020001 	andi	v0,s0,0x1
    f2d8:	24100010 	li	s0,16
    f2dc:	0c004d78 	jal	0x135e0
    f2e0:	00002021 	move	a0,zero
    f2e4:	00108042 	srl	s0,s0,0x1
    f2e8:	1600fffc 	bnez	s0,0xf2dc
    f2ec:	00000000 	nop
    f2f0:	0c004db9 	jal	0x136e4
    f2f4:	34108000 	li	s0,0x8000
    f2f8:	0c004db9 	jal	0x136e4
    f2fc:	00000000 	nop
    f300:	0c004d58 	jal	0x13560
    f304:	00000000 	nop
    f308:	50400005 	beqzl	v0,0xf320
    f30c:	00108042 	srl	s0,s0,0x1
    f310:	97a2001a 	lhu	v0,26(sp)
    f314:	00501025 	or	v0,v0,s0
    f318:	a7a2001a 	sh	v0,26(sp)
    f31c:	00108042 	srl	s0,s0,0x1
    f320:	1600fff7 	bnez	s0,0xf300
    f324:	00000000 	nop
    f328:	0c004db9 	jal	0x136e4
    f32c:	00000000 	nop
    f330:	3c040001 	lui	a0,0x1
    f334:	24846bcc 	addiu	a0,a0,27596
    f338:	97a60018 	lhu	a2,24(sp)
    f33c:	97a7001a 	lhu	a3,26(sp)
    f340:	3c020001 	lui	v0,0x1
    f344:	8c426d98 	lw	v0,28056(v0)
    f348:	3c030001 	lui	v1,0x1
    f34c:	8c636f1c 	lw	v1,28444(v1)
    f350:	3c05000d 	lui	a1,0xd
    f354:	34a50205 	ori	a1,a1,0x205
    f358:	afa20010 	sw	v0,16(sp)
    f35c:	0c002b3b 	jal	0xacec
    f360:	afa30014 	sw	v1,20(sp)
    f364:	8f830054 	lw	v1,84(gp)
    f368:	24020004 	li	v0,4
    f36c:	3c010001 	lui	at,0x1
    f370:	ac226dd4 	sw	v0,28116(at)
    f374:	3c010001 	lui	at,0x1
    f378:	10000017 	b	0xf3d8
    f37c:	ac236f38 	sw	v1,28472(at)
    f380:	8f830054 	lw	v1,84(gp)
    f384:	3c020001 	lui	v0,0x1
    f388:	8c426f38 	lw	v0,28472(v0)
    f38c:	2463ff9c 	addiu	v1,v1,-100
    f390:	00431023 	subu	v0,v0,v1
    f394:	2c420064 	sltiu	v0,v0,100
    f398:	1440000f 	bnez	v0,0xf3d8
    f39c:	00000000 	nop
    f3a0:	8f820220 	lw	v0,544(gp)
    f3a4:	24030005 	li	v1,5
    f3a8:	3c010001 	lui	at,0x1
    f3ac:	ac236dd4 	sw	v1,28116(at)
    f3b0:	3c03f700 	lui	v1,0xf700
    f3b4:	00431025 	or	v0,v0,v1
    f3b8:	10000007 	b	0xf3d8
    f3bc:	af820220 	sw	v0,544(gp)
    f3c0:	24020006 	li	v0,6
    f3c4:	3c010001 	lui	at,0x1
    f3c8:	ac226dd4 	sw	v0,28116(at)
    f3cc:	24020011 	li	v0,17
    f3d0:	3c010001 	lui	at,0x1
    f3d4:	ac226dd0 	sw	v0,28112(at)
    f3d8:	8fbf0034 	lw	ra,52(sp)
    f3dc:	8fb20030 	lw	s2,48(sp)
    f3e0:	8fb1002c 	lw	s1,44(sp)
    f3e4:	8fb00028 	lw	s0,40(sp)
    f3e8:	03e00008 	jr	ra
    f3ec:	27bd0038 	addiu	sp,sp,56
    f3f0:	27bdffd8 	addiu	sp,sp,-40
    f3f4:	afb00018 	sw	s0,24(sp)
    f3f8:	00808021 	move	s0,a0
    f3fc:	afb1001c 	sw	s1,28(sp)
    f400:	00008821 	move	s1,zero
    f404:	32024000 	andi	v0,s0,0x4000
    f408:	10400013 	beqz	v0,0xf458
    f40c:	afbf0020 	sw	ra,32(sp)
    f410:	3c020010 	lui	v0,0x10
    f414:	02021024 	and	v0,s0,v0
    f418:	2c420001 	sltiu	v0,v0,1
    f41c:	00021023 	negu	v0,v0
    f420:	30434100 	andi	v1,v0,0x4100
    f424:	3c020001 	lui	v0,0x1
    f428:	02021024 	and	v0,s0,v0
    f42c:	14400006 	bnez	v0,0xf448
    f430:	34714000 	ori	s1,v1,0x4000
    f434:	3c020002 	lui	v0,0x2
    f438:	02021024 	and	v0,s0,v0
    f43c:	14400002 	bnez	v0,0xf448
    f440:	34716000 	ori	s1,v1,0x6000
    f444:	34714040 	ori	s1,v1,0x4040
    f448:	00002021 	move	a0,zero
    f44c:	00002821 	move	a1,zero
    f450:	10000036 	b	0xf52c
    f454:	02203021 	move	a2,s1
    f458:	32021000 	andi	v0,s0,0x1000
    f45c:	10400035 	beqz	v0,0xf534
    f460:	00002021 	move	a0,zero
    f464:	00002821 	move	a1,zero
    f468:	0c004ddb 	jal	0x1376c
    f46c:	24060040 	li	a2,64
    f470:	24040018 	li	a0,24
    f474:	00002821 	move	a1,zero
    f478:	0c004ddb 	jal	0x1376c
    f47c:	24060c00 	li	a2,3072
    f480:	24040017 	li	a0,23
    f484:	00002821 	move	a1,zero
    f488:	0c004ddb 	jal	0x1376c
    f48c:	24060400 	li	a2,1024
    f490:	24040016 	li	a0,22
    f494:	00002821 	move	a1,zero
    f498:	0c004ddb 	jal	0x1376c
    f49c:	24060006 	li	a2,6
    f4a0:	24040017 	li	a0,23
    f4a4:	00002821 	move	a1,zero
    f4a8:	0c004ddb 	jal	0x1376c
    f4ac:	24062500 	li	a2,9472
    f4b0:	24040016 	li	a0,22
    f4b4:	00002821 	move	a1,zero
    f4b8:	0c004ddb 	jal	0x1376c
    f4bc:	24060006 	li	a2,6
    f4c0:	24040017 	li	a0,23
    f4c4:	00002821 	move	a1,zero
    f4c8:	0c004ddb 	jal	0x1376c
    f4cc:	24064600 	li	a2,17920
    f4d0:	24040016 	li	a0,22
    f4d4:	00002821 	move	a1,zero
    f4d8:	0c004ddb 	jal	0x1376c
    f4dc:	24060006 	li	a2,6
    f4e0:	24040017 	li	a0,23
    f4e4:	00002821 	move	a1,zero
    f4e8:	0c004ddb 	jal	0x1376c
    f4ec:	24066700 	li	a2,26368
    f4f0:	24040016 	li	a0,22
    f4f4:	00002821 	move	a1,zero
    f4f8:	0c004ddb 	jal	0x1376c
    f4fc:	24060006 	li	a2,6
    f500:	2404001f 	li	a0,31
    f504:	00002821 	move	a1,zero
    f508:	0c004ddb 	jal	0x1376c
    f50c:	24060010 	li	a2,16
    f510:	24040009 	li	a0,9
    f514:	00002821 	move	a1,zero
    f518:	0c004ddb 	jal	0x1376c
    f51c:	24061500 	li	a2,5376
    f520:	24040009 	li	a0,9
    f524:	00002821 	move	a1,zero
    f528:	24061d00 	li	a2,7424
    f52c:	0c004ddb 	jal	0x1376c
    f530:	00000000 	nop
    f534:	3c040001 	lui	a0,0x1
    f538:	24846bf0 	addiu	a0,a0,27632
    f53c:	3c05000e 	lui	a1,0xe
    f540:	34a50100 	ori	a1,a1,0x100
    f544:	02003021 	move	a2,s0
    f548:	02203821 	move	a3,s1
    f54c:	afa00010 	sw	zero,16(sp)
    f550:	0c002b3b 	jal	0xacec
    f554:	afa00014 	sw	zero,20(sp)
    f558:	8fbf0020 	lw	ra,32(sp)
    f55c:	8fb1001c 	lw	s1,28(sp)
    f560:	8fb00018 	lw	s0,24(sp)
    f564:	03e00008 	jr	ra
    f568:	27bd0028 	addiu	sp,sp,40
    f56c:	8f850044 	lw	a1,68(gp)
    f570:	8f820044 	lw	v0,68(gp)
    f574:	3c030001 	lui	v1,0x1
    f578:	00431025 	or	v0,v0,v1
    f57c:	3c030008 	lui	v1,0x8
    f580:	af820044 	sw	v0,68(gp)
    f584:	8f840054 	lw	a0,84(gp)
    f588:	8f820054 	lw	v0,84(gp)
    f58c:	00a32824 	and	a1,a1,v1
    f590:	10000002 	b	0xf59c
    f594:	24840001 	addiu	a0,a0,1
    f598:	8f820054 	lw	v0,84(gp)
    f59c:	00821023 	subu	v0,a0,v0
    f5a0:	2c420002 	sltiu	v0,v0,2
    f5a4:	1440fffc 	bnez	v0,0xf598
    f5a8:	00000000 	nop
    f5ac:	8f820044 	lw	v0,68(gp)
    f5b0:	3c03fffe 	lui	v1,0xfffe
    f5b4:	3463ffff 	ori	v1,v1,0xffff
    f5b8:	00431024 	and	v0,v0,v1
    f5bc:	af820044 	sw	v0,68(gp)
    f5c0:	8f830054 	lw	v1,84(gp)
    f5c4:	8f820054 	lw	v0,84(gp)
    f5c8:	10000002 	b	0xf5d4
    f5cc:	24630001 	addiu	v1,v1,1
    f5d0:	8f820054 	lw	v0,84(gp)
    f5d4:	00621023 	subu	v0,v1,v0
    f5d8:	2c420002 	sltiu	v0,v0,2
    f5dc:	1440fffc 	bnez	v0,0xf5d0
    f5e0:	00000000 	nop
    f5e4:	03e00008 	jr	ra
    f5e8:	00a01021 	move	v0,a1
    f5ec:	8f830044 	lw	v1,68(gp)
    f5f0:	3c02fff0 	lui	v0,0xfff0
    f5f4:	3442ffff 	ori	v0,v0,0xffff
    f5f8:	00042480 	sll	a0,a0,0x12
    f5fc:	00621824 	and	v1,v1,v0
    f600:	3c020002 	lui	v0,0x2
    f604:	00822025 	or	a0,a0,v0
    f608:	00641825 	or	v1,v1,a0
    f60c:	af830044 	sw	v1,68(gp)
    f610:	8f820044 	lw	v0,68(gp)
    f614:	3c03fffe 	lui	v1,0xfffe
    f618:	3463ffff 	ori	v1,v1,0xffff
    f61c:	00431024 	and	v0,v0,v1
    f620:	af820044 	sw	v0,68(gp)
    f624:	8f830054 	lw	v1,84(gp)
    f628:	8f820054 	lw	v0,84(gp)
    f62c:	10000002 	b	0xf638
    f630:	24630001 	addiu	v1,v1,1
    f634:	8f820054 	lw	v0,84(gp)
    f638:	00621023 	subu	v0,v1,v0
    f63c:	2c420002 	sltiu	v0,v0,2
    f640:	1440fffc 	bnez	v0,0xf634
    f644:	00000000 	nop
    f648:	8f820044 	lw	v0,68(gp)
    f64c:	3c030001 	lui	v1,0x1
    f650:	00431025 	or	v0,v0,v1
    f654:	af820044 	sw	v0,68(gp)
    f658:	8f830054 	lw	v1,84(gp)
    f65c:	8f820054 	lw	v0,84(gp)
    f660:	10000002 	b	0xf66c
    f664:	24630001 	addiu	v1,v1,1
    f668:	8f820054 	lw	v0,84(gp)
    f66c:	00621023 	subu	v0,v1,v0
    f670:	2c420002 	sltiu	v0,v0,2
    f674:	1440fffc 	bnez	v0,0xf668
    f678:	00000000 	nop
    f67c:	03e00008 	jr	ra
    f680:	00000000 	nop
    f684:	8f820044 	lw	v0,68(gp)
    f688:	2403ff7f 	li	v1,-129
    f68c:	00431024 	and	v0,v0,v1
    f690:	af820044 	sw	v0,68(gp)
    f694:	8f830054 	lw	v1,84(gp)
    f698:	8f820054 	lw	v0,84(gp)
    f69c:	10000002 	b	0xf6a8
    f6a0:	24630001 	addiu	v1,v1,1
    f6a4:	8f820054 	lw	v0,84(gp)
    f6a8:	00621023 	subu	v0,v1,v0
    f6ac:	2c420002 	sltiu	v0,v0,2
    f6b0:	1440fffc 	bnez	v0,0xf6a4
    f6b4:	00000000 	nop
    f6b8:	8f820044 	lw	v0,68(gp)
    f6bc:	34420080 	ori	v0,v0,0x80
    f6c0:	af820044 	sw	v0,68(gp)
    f6c4:	8f830054 	lw	v1,84(gp)
    f6c8:	8f820054 	lw	v0,84(gp)
    f6cc:	10000002 	b	0xf6d8
    f6d0:	24630001 	addiu	v1,v1,1
    f6d4:	8f820054 	lw	v0,84(gp)
    f6d8:	00621023 	subu	v0,v1,v0
    f6dc:	2c420002 	sltiu	v0,v0,2
    f6e0:	1440fffc 	bnez	v0,0xf6d4
    f6e4:	00000000 	nop
    f6e8:	03e00008 	jr	ra
    f6ec:	00000000 	nop
    f6f0:	8f820044 	lw	v0,68(gp)
    f6f4:	3c03fff0 	lui	v1,0xfff0
    f6f8:	3463ffff 	ori	v1,v1,0xffff
    f6fc:	00431024 	and	v0,v0,v1
    f700:	af820044 	sw	v0,68(gp)
    f704:	8f820044 	lw	v0,68(gp)
    f708:	3c030001 	lui	v1,0x1
    f70c:	00431025 	or	v0,v0,v1
    f710:	af820044 	sw	v0,68(gp)
    f714:	8f830054 	lw	v1,84(gp)
    f718:	8f820054 	lw	v0,84(gp)
    f71c:	10000002 	b	0xf728
    f720:	24630001 	addiu	v1,v1,1
    f724:	8f820054 	lw	v0,84(gp)
    f728:	00621023 	subu	v0,v1,v0
    f72c:	2c420002 	sltiu	v0,v0,2
    f730:	1440fffc 	bnez	v0,0xf724
    f734:	00000000 	nop
    f738:	8f820044 	lw	v0,68(gp)
    f73c:	3c03fffe 	lui	v1,0xfffe
    f740:	3463ffff 	ori	v1,v1,0xffff
    f744:	00431024 	and	v0,v0,v1
    f748:	af820044 	sw	v0,68(gp)
    f74c:	8f830054 	lw	v1,84(gp)
    f750:	8f820054 	lw	v0,84(gp)
    f754:	10000002 	b	0xf760
    f758:	24630001 	addiu	v1,v1,1
    f75c:	8f820054 	lw	v0,84(gp)
    f760:	00621023 	subu	v0,v1,v0
    f764:	2c420002 	sltiu	v0,v0,2
    f768:	1440fffc 	bnez	v0,0xf75c
    f76c:	00000000 	nop
    f770:	03e00008 	jr	ra
    f774:	00000000 	nop
    f778:	27bdffc8 	addiu	sp,sp,-56
    f77c:	afb30024 	sw	s3,36(sp)
    f780:	00809821 	move	s3,a0
    f784:	afbe002c 	sw	s8,44(sp)
    f788:	00a0f021 	move	s8,a1
    f78c:	afb20020 	sw	s2,32(sp)
    f790:	00c09021 	move	s2,a2
    f794:	33c2ffff 	andi	v0,s8,0xffff
    f798:	afbf0030 	sw	ra,48(sp)
    f79c:	afb50028 	sw	s5,40(sp)
    f7a0:	afb1001c 	sw	s1,28(sp)
    f7a4:	afb00018 	sw	s0,24(sp)
    f7a8:	14400034 	bnez	v0,0xf87c
    f7ac:	a7b20010 	sh	s2,16(sp)
    f7b0:	3271ffff 	andi	s1,s3,0xffff
    f7b4:	27b20010 	addiu	s2,sp,16
    f7b8:	00008021 	move	s0,zero
    f7bc:	0c004d78 	jal	0x135e0
    f7c0:	24040001 	li	a0,1
    f7c4:	26100001 	addiu	s0,s0,1
    f7c8:	2e020020 	sltiu	v0,s0,32
    f7cc:	1440fffb 	bnez	v0,0xf7bc
    f7d0:	00000000 	nop
    f7d4:	0c004d78 	jal	0x135e0
    f7d8:	00002021 	move	a0,zero
    f7dc:	0c004d78 	jal	0x135e0
    f7e0:	24040001 	li	a0,1
    f7e4:	0c004d78 	jal	0x135e0
    f7e8:	00002021 	move	a0,zero
    f7ec:	0c004d78 	jal	0x135e0
    f7f0:	24040001 	li	a0,1
    f7f4:	24100010 	li	s0,16
    f7f8:	32020001 	andi	v0,s0,0x1
    f7fc:	10400002 	beqz	v0,0xf808
    f800:	00002021 	move	a0,zero
    f804:	24040001 	li	a0,1
    f808:	0c004d78 	jal	0x135e0
    f80c:	00108042 	srl	s0,s0,0x1
    f810:	1600fffa 	bnez	s0,0xf7fc
    f814:	32020001 	andi	v0,s0,0x1
    f818:	24100010 	li	s0,16
    f81c:	02301024 	and	v0,s1,s0
    f820:	10400002 	beqz	v0,0xf82c
    f824:	00002021 	move	a0,zero
    f828:	24040001 	li	a0,1
    f82c:	0c004d78 	jal	0x135e0
    f830:	00108042 	srl	s0,s0,0x1
    f834:	1600fffa 	bnez	s0,0xf820
    f838:	02301024 	and	v0,s1,s0
    f83c:	0c004d78 	jal	0x135e0
    f840:	24040001 	li	a0,1
    f844:	0c004d78 	jal	0x135e0
    f848:	00002021 	move	a0,zero
    f84c:	34108000 	li	s0,0x8000
    f850:	96420000 	lhu	v0,0(s2)
    f854:	00501024 	and	v0,v0,s0
    f858:	10400002 	beqz	v0,0xf864
    f85c:	00002021 	move	a0,zero
    f860:	24040001 	li	a0,1
    f864:	0c004d78 	jal	0x135e0
    f868:	00108042 	srl	s0,s0,0x1
    f86c:	12000075 	beqz	s0,0xfa44
    f870:	00000000 	nop
    f874:	1000fff6 	b	0xf850
    f878:	00000000 	nop
    f87c:	3275ffff 	andi	s5,s3,0xffff
    f880:	27b10010 	addiu	s1,sp,16
    f884:	a7a00010 	sh	zero,16(sp)
    f888:	00008021 	move	s0,zero
    f88c:	0c004d78 	jal	0x135e0
    f890:	24040001 	li	a0,1
    f894:	26100001 	addiu	s0,s0,1
    f898:	2e020020 	sltiu	v0,s0,32
    f89c:	1440fffb 	bnez	v0,0xf88c
    f8a0:	00000000 	nop
    f8a4:	0c004d78 	jal	0x135e0
    f8a8:	00002021 	move	a0,zero
    f8ac:	0c004d78 	jal	0x135e0
    f8b0:	24040001 	li	a0,1
    f8b4:	0c004d78 	jal	0x135e0
    f8b8:	24040001 	li	a0,1
    f8bc:	0c004d78 	jal	0x135e0
    f8c0:	00002021 	move	a0,zero
    f8c4:	24100010 	li	s0,16
    f8c8:	32020001 	andi	v0,s0,0x1
    f8cc:	10400002 	beqz	v0,0xf8d8
    f8d0:	00002021 	move	a0,zero
    f8d4:	24040001 	li	a0,1
    f8d8:	0c004d78 	jal	0x135e0
    f8dc:	00108042 	srl	s0,s0,0x1
    f8e0:	1600fffa 	bnez	s0,0xf8cc
    f8e4:	32020001 	andi	v0,s0,0x1
    f8e8:	24100010 	li	s0,16
    f8ec:	02b01024 	and	v0,s5,s0
    f8f0:	10400002 	beqz	v0,0xf8fc
    f8f4:	00002021 	move	a0,zero
    f8f8:	24040001 	li	a0,1
    f8fc:	0c004d78 	jal	0x135e0
    f900:	00108042 	srl	s0,s0,0x1
    f904:	1600fffa 	bnez	s0,0xf8f0
    f908:	02b01024 	and	v0,s5,s0
    f90c:	0c004db9 	jal	0x136e4
    f910:	34108000 	li	s0,0x8000
    f914:	0c004db9 	jal	0x136e4
    f918:	00000000 	nop
    f91c:	0c004d58 	jal	0x13560
    f920:	00000000 	nop
    f924:	50400005 	beqzl	v0,0xf93c
    f928:	00108042 	srl	s0,s0,0x1
    f92c:	96220000 	lhu	v0,0(s1)
    f930:	00501025 	or	v0,v0,s0
    f934:	a6220000 	sh	v0,0(s1)
    f938:	00108042 	srl	s0,s0,0x1
    f93c:	1600fff7 	bnez	s0,0xf91c
    f940:	00000000 	nop
    f944:	0c004db9 	jal	0x136e4
    f948:	00000000 	nop
    f94c:	33c5ffff 	andi	a1,s8,0xffff
    f950:	24020001 	li	v0,1
    f954:	54a20004 	bnel	a1,v0,0xf968
    f958:	24020002 	li	v0,2
    f95c:	97a20010 	lhu	v0,16(sp)
    f960:	10000006 	b	0xf97c
    f964:	00521025 	or	v0,v0,s2
    f968:	14a20006 	bne	a1,v0,0xf984
    f96c:	3271ffff 	andi	s1,s3,0xffff
    f970:	97a20010 	lhu	v0,16(sp)
    f974:	00121827 	nor	v1,zero,s2
    f978:	00431024 	and	v0,v0,v1
    f97c:	a7a20010 	sh	v0,16(sp)
    f980:	3271ffff 	andi	s1,s3,0xffff
    f984:	27b20010 	addiu	s2,sp,16
    f988:	00008021 	move	s0,zero
    f98c:	0c004d78 	jal	0x135e0
    f990:	24040001 	li	a0,1
    f994:	26100001 	addiu	s0,s0,1
    f998:	2e020020 	sltiu	v0,s0,32
    f99c:	1440fffb 	bnez	v0,0xf98c
    f9a0:	00000000 	nop
    f9a4:	0c004d78 	jal	0x135e0
    f9a8:	00002021 	move	a0,zero
    f9ac:	0c004d78 	jal	0x135e0
    f9b0:	24040001 	li	a0,1
    f9b4:	0c004d78 	jal	0x135e0
    f9b8:	00002021 	move	a0,zero
    f9bc:	0c004d78 	jal	0x135e0
    f9c0:	24040001 	li	a0,1
    f9c4:	24100010 	li	s0,16
    f9c8:	32020001 	andi	v0,s0,0x1
    f9cc:	10400002 	beqz	v0,0xf9d8
    f9d0:	00002021 	move	a0,zero
    f9d4:	24040001 	li	a0,1
    f9d8:	0c004d78 	jal	0x135e0
    f9dc:	00108042 	srl	s0,s0,0x1
    f9e0:	1600fffa 	bnez	s0,0xf9cc
    f9e4:	32020001 	andi	v0,s0,0x1
    f9e8:	24100010 	li	s0,16
    f9ec:	02301024 	and	v0,s1,s0
    f9f0:	10400002 	beqz	v0,0xf9fc
    f9f4:	00002021 	move	a0,zero
    f9f8:	24040001 	li	a0,1
    f9fc:	0c004d78 	jal	0x135e0
    fa00:	00108042 	srl	s0,s0,0x1
    fa04:	1600fffa 	bnez	s0,0xf9f0
    fa08:	02301024 	and	v0,s1,s0
    fa0c:	0c004d78 	jal	0x135e0
    fa10:	24040001 	li	a0,1
    fa14:	0c004d78 	jal	0x135e0
    fa18:	00002021 	move	a0,zero
    fa1c:	34108000 	li	s0,0x8000
    fa20:	96420000 	lhu	v0,0(s2)
    fa24:	00501024 	and	v0,v0,s0
    fa28:	10400002 	beqz	v0,0xfa34
    fa2c:	00002021 	move	a0,zero
    fa30:	24040001 	li	a0,1
    fa34:	0c004d78 	jal	0x135e0
    fa38:	00108042 	srl	s0,s0,0x1
    fa3c:	1600fff8 	bnez	s0,0xfa20
    fa40:	00000000 	nop
    fa44:	0c004db9 	jal	0x136e4
    fa48:	00000000 	nop
    fa4c:	8fbf0030 	lw	ra,48(sp)
    fa50:	8fbe002c 	lw	s8,44(sp)
    fa54:	8fb50028 	lw	s5,40(sp)
    fa58:	8fb30024 	lw	s3,36(sp)
    fa5c:	8fb20020 	lw	s2,32(sp)
    fa60:	8fb1001c 	lw	s1,28(sp)
    fa64:	8fb00018 	lw	s0,24(sp)
    fa68:	03e00008 	jr	ra
    fa6c:	27bd0038 	addiu	sp,sp,56
	...
    fa7c:	27bdffe8 	addiu	sp,sp,-24
    fa80:	afbf0010 	sw	ra,16(sp)
    fa84:	8ee304b8 	lw	v1,1208(s7)
    fa88:	24020008 	li	v0,8
    fa8c:	146201e0 	bne	v1,v0,0x10210
    fa90:	00000000 	nop
    fa94:	3c020001 	lui	v0,0x1
    fa98:	8c426f1c 	lw	v0,28444(v0)
    fa9c:	14400005 	bnez	v0,0xfab4
    faa0:	00000000 	nop
    faa4:	0c003daf 	jal	0xf6bc
    faa8:	8f840224 	lw	a0,548(gp)
    faac:	100001d8 	b	0x10210
    fab0:	00000000 	nop
    fab4:	8f820220 	lw	v0,544(gp)
    fab8:	3c030008 	lui	v1,0x8
    fabc:	00431024 	and	v0,v0,v1
    fac0:	10400026 	beqz	v0,0xfb5c
    fac4:	24020001 	li	v0,1
    fac8:	8f840224 	lw	a0,548(gp)
    facc:	8f820220 	lw	v0,544(gp)
    fad0:	3c030400 	lui	v1,0x400
    fad4:	00431024 	and	v0,v0,v1
    fad8:	10400006 	beqz	v0,0xfaf4
    fadc:	00000000 	nop
    fae0:	3c010002 	lui	at,0x2
    fae4:	ac208fa0 	sw	zero,-28768(at)
    fae8:	3c010002 	lui	at,0x2
    faec:	1000000b 	b	0xfb1c
    faf0:	ac208fc0 	sw	zero,-28736(at)
    faf4:	3c030002 	lui	v1,0x2
    faf8:	24638fa0 	addiu	v1,v1,-28768
    fafc:	8c620000 	lw	v0,0(v1)
    fb00:	24420001 	addiu	v0,v0,1
    fb04:	ac620000 	sw	v0,0(v1)
    fb08:	2c420002 	sltiu	v0,v0,2
    fb0c:	14400003 	bnez	v0,0xfb1c
    fb10:	24020001 	li	v0,1
    fb14:	3c010002 	lui	at,0x2
    fb18:	ac228fc0 	sw	v0,-28736(at)
    fb1c:	3c020002 	lui	v0,0x2
    fb20:	8c428fc0 	lw	v0,-28736(v0)
    fb24:	10400006 	beqz	v0,0xfb40
    fb28:	30820040 	andi	v0,a0,0x40
    fb2c:	10400004 	beqz	v0,0xfb40
    fb30:	24020001 	li	v0,1
    fb34:	3c010002 	lui	at,0x2
    fb38:	10000003 	b	0xfb48
    fb3c:	ac228fc4 	sw	v0,-28732(at)
    fb40:	3c010002 	lui	at,0x2
    fb44:	ac208fc4 	sw	zero,-28732(at)
    fb48:	3c010002 	lui	at,0x2
    fb4c:	ac248f9c 	sw	a0,-28772(at)
    fb50:	3c010002 	lui	at,0x2
    fb54:	1000000b 	b	0xfb84
    fb58:	ac208fd0 	sw	zero,-28720(at)
    fb5c:	3c010002 	lui	at,0x2
    fb60:	ac228fd0 	sw	v0,-28720(at)
    fb64:	3c010002 	lui	at,0x2
    fb68:	ac208fc0 	sw	zero,-28736(at)
    fb6c:	3c010002 	lui	at,0x2
    fb70:	ac208fa0 	sw	zero,-28768(at)
    fb74:	3c010002 	lui	at,0x2
    fb78:	ac208fc4 	sw	zero,-28732(at)
    fb7c:	3c010002 	lui	at,0x2
    fb80:	ac208f9c 	sw	zero,-28772(at)
    fb84:	3c030002 	lui	v1,0x2
    fb88:	8c638f90 	lw	v1,-28784(v1)
    fb8c:	3c020002 	lui	v0,0x2
    fb90:	8c428f94 	lw	v0,-28780(v0)
    fb94:	50620004 	beql	v1,v0,0xfba8
    fb98:	2463ffff 	addiu	v1,v1,-1
    fb9c:	3c010002 	lui	at,0x2
    fba0:	ac238f94 	sw	v1,-28780(at)
    fba4:	2463ffff 	addiu	v1,v1,-1
    fba8:	2c62000e 	sltiu	v0,v1,14
    fbac:	10400194 	beqz	v0,0x10200
    fbb0:	00031080 	sll	v0,v1,0x2
    fbb4:	3c010001 	lui	at,0x1
    fbb8:	00220821 	addu	at,at,v0
    fbbc:	8c226c00 	lw	v0,27648(at)
    fbc0:	00400008 	jr	v0
    fbc4:	00000000 	nop
    fbc8:	24020002 	li	v0,2
    fbcc:	3c010002 	lui	at,0x2
    fbd0:	ac208fc0 	sw	zero,-28736(at)
    fbd4:	3c010002 	lui	at,0x2
    fbd8:	ac208fa0 	sw	zero,-28768(at)
    fbdc:	3c010002 	lui	at,0x2
    fbe0:	ac208f9c 	sw	zero,-28772(at)
    fbe4:	3c010002 	lui	at,0x2
    fbe8:	ac208fc4 	sw	zero,-28732(at)
    fbec:	3c010002 	lui	at,0x2
    fbf0:	ac208fb8 	sw	zero,-28744(at)
    fbf4:	3c010002 	lui	at,0x2
    fbf8:	ac208fb0 	sw	zero,-28752(at)
    fbfc:	af800224 	sw	zero,548(gp)
    fc00:	3c010002 	lui	at,0x2
    fc04:	ac228f90 	sw	v0,-28784(at)
    fc08:	3c020002 	lui	v0,0x2
    fc0c:	8c428fd0 	lw	v0,-28720(v0)
    fc10:	1440004f 	bnez	v0,0xfd50
    fc14:	3c02fdff 	lui	v0,0xfdff
    fc18:	3442ffff 	ori	v0,v0,0xffff
    fc1c:	0c003daf 	jal	0xf6bc
    fc20:	0282a024 	and	s4,s4,v0
    fc24:	af800204 	sw	zero,516(gp)
    fc28:	8f820200 	lw	v0,512(gp)
    fc2c:	2403fffd 	li	v1,-3
    fc30:	00431024 	and	v0,v0,v1
    fc34:	af820200 	sw	v0,512(gp)
    fc38:	3c010002 	lui	at,0x2
    fc3c:	ac208fe0 	sw	zero,-28704(at)
    fc40:	8f830054 	lw	v1,84(gp)
    fc44:	3c020002 	lui	v0,0x2
    fc48:	8c428fb8 	lw	v0,-28744(v0)
    fc4c:	24040001 	li	a0,1
    fc50:	3c010002 	lui	at,0x2
    fc54:	ac248fcc 	sw	a0,-28724(at)
    fc58:	24420001 	addiu	v0,v0,1
    fc5c:	3c010002 	lui	at,0x2
    fc60:	ac228fb8 	sw	v0,-28744(at)
    fc64:	2c420004 	sltiu	v0,v0,4
    fc68:	3c010002 	lui	at,0x2
    fc6c:	ac238fb4 	sw	v1,-28748(at)
    fc70:	14400006 	bnez	v0,0xfc8c
    fc74:	24020003 	li	v0,3
    fc78:	3c010001 	lui	at,0x1
    fc7c:	ac246d9c 	sw	a0,28060(at)
    fc80:	3c010002 	lui	at,0x2
    fc84:	1000015e 	b	0x10200
    fc88:	ac208fb8 	sw	zero,-28744(at)
    fc8c:	3c010002 	lui	at,0x2
    fc90:	1000015b 	b	0x10200
    fc94:	ac228f90 	sw	v0,-28784(at)
    fc98:	8f830054 	lw	v1,84(gp)
    fc9c:	3c020002 	lui	v0,0x2
    fca0:	8c428fb4 	lw	v0,-28748(v0)
    fca4:	2463d8f0 	addiu	v1,v1,-10000
    fca8:	00431023 	subu	v0,v0,v1
    fcac:	2c422710 	sltiu	v0,v0,10000
    fcb0:	14400003 	bnez	v0,0xfcc0
    fcb4:	24020004 	li	v0,4
    fcb8:	3c010002 	lui	at,0x2
    fcbc:	ac228f90 	sw	v0,-28784(at)
    fcc0:	3c020002 	lui	v0,0x2
    fcc4:	8c428fd0 	lw	v0,-28720(v0)
    fcc8:	14400021 	bnez	v0,0xfd50
    fccc:	3c02fdff 	lui	v0,0xfdff
    fcd0:	3442ffff 	ori	v0,v0,0xffff
    fcd4:	1000014a 	b	0x10200
    fcd8:	0282a024 	and	s4,s4,v0
    fcdc:	3c040001 	lui	a0,0x1
    fce0:	8c846f20 	lw	a0,28448(a0)
    fce4:	3c010002 	lui	at,0x2
    fce8:	0c005084 	jal	0x14210
    fcec:	ac208fa8 	sw	zero,-28760(at)
    fcf0:	3c020002 	lui	v0,0x2
    fcf4:	8c428fdc 	lw	v0,-28708(v0)
    fcf8:	af820204 	sw	v0,516(gp)
    fcfc:	3c020002 	lui	v0,0x2
    fd00:	8c428fd0 	lw	v0,-28720(v0)
    fd04:	14400012 	bnez	v0,0xfd50
    fd08:	3c03fdff 	lui	v1,0xfdff
    fd0c:	8f820204 	lw	v0,516(gp)
    fd10:	3463ffff 	ori	v1,v1,0xffff
    fd14:	30420030 	andi	v0,v0,0x30
    fd18:	1440012f 	bnez	v0,0x101d8
    fd1c:	0283a024 	and	s4,s4,v1
    fd20:	3c030002 	lui	v1,0x2
    fd24:	8c638fdc 	lw	v1,-28708(v1)
    fd28:	24020005 	li	v0,5
    fd2c:	3c010002 	lui	at,0x2
    fd30:	ac228f90 	sw	v0,-28784(at)
    fd34:	3c010002 	lui	at,0x2
    fd38:	10000131 	b	0x10200
    fd3c:	ac238fe0 	sw	v1,-28704(at)
    fd40:	3c020002 	lui	v0,0x2
    fd44:	8c428fd0 	lw	v0,-28720(v0)
    fd48:	10400010 	beqz	v0,0xfd8c
    fd4c:	3c02fdff 	lui	v0,0xfdff
    fd50:	3c020001 	lui	v0,0x1
    fd54:	8c426e3c 	lw	v0,28220(v0)
    fd58:	24420001 	addiu	v0,v0,1
    fd5c:	3c010001 	lui	at,0x1
    fd60:	ac226e3c 	sw	v0,28220(at)
    fd64:	2c420002 	sltiu	v0,v0,2
    fd68:	14400125 	bnez	v0,0x10200
    fd6c:	24020001 	li	v0,1
    fd70:	3c010001 	lui	at,0x1
    fd74:	ac226e44 	sw	v0,28228(at)
    fd78:	3c010001 	lui	at,0x1
    fd7c:	ac206e3c 	sw	zero,28220(at)
    fd80:	3c010001 	lui	at,0x1
    fd84:	1000011e 	b	0x10200
    fd88:	ac226d9c 	sw	v0,28060(at)
    fd8c:	3c030002 	lui	v1,0x2
    fd90:	8c638fc0 	lw	v1,-28736(v1)
    fd94:	3442ffff 	ori	v0,v0,0xffff
    fd98:	10600119 	beqz	v1,0x10200
    fd9c:	0282a024 	and	s4,s4,v0
    fda0:	3c020002 	lui	v0,0x2
    fda4:	8c428f9c 	lw	v0,-28772(v0)
    fda8:	10400115 	beqz	v0,0x10200
    fdac:	00000000 	nop
    fdb0:	3c010002 	lui	at,0x2
    fdb4:	ac228fc8 	sw	v0,-28728(at)
    fdb8:	24020003 	li	v0,3
    fdbc:	3c010002 	lui	at,0x2
    fdc0:	ac228fa0 	sw	v0,-28768(at)
    fdc4:	100000b8 	b	0x100a8
    fdc8:	24020006 	li	v0,6
    fdcc:	3c010002 	lui	at,0x2
    fdd0:	ac208fa8 	sw	zero,-28760(at)
    fdd4:	8f820204 	lw	v0,516(gp)
    fdd8:	34420040 	ori	v0,v0,0x40
    fddc:	af820204 	sw	v0,516(gp)
    fde0:	3c020002 	lui	v0,0x2
    fde4:	8c428fe0 	lw	v0,-28704(v0)
    fde8:	24030007 	li	v1,7
    fdec:	3c010002 	lui	at,0x2
    fdf0:	ac238f90 	sw	v1,-28784(at)
    fdf4:	34420040 	ori	v0,v0,0x40
    fdf8:	3c010002 	lui	at,0x2
    fdfc:	ac228fe0 	sw	v0,-28704(at)
    fe00:	3c020002 	lui	v0,0x2
    fe04:	8c428fc0 	lw	v0,-28736(v0)
    fe08:	10400005 	beqz	v0,0xfe20
    fe0c:	00000000 	nop
    fe10:	3c020002 	lui	v0,0x2
    fe14:	8c428f9c 	lw	v0,-28772(v0)
    fe18:	104000f0 	beqz	v0,0x101dc
    fe1c:	24020002 	li	v0,2
    fe20:	3c050002 	lui	a1,0x2
    fe24:	24a58fa0 	addiu	a1,a1,-28768
    fe28:	8ca20000 	lw	v0,0(a1)
    fe2c:	2c424e21 	sltiu	v0,v0,20001
    fe30:	104000ea 	beqz	v0,0x101dc
    fe34:	24020002 	li	v0,2
    fe38:	3c020002 	lui	v0,0x2
    fe3c:	8c428fc4 	lw	v0,-28732(v0)
    fe40:	104000ef 	beqz	v0,0x10200
    fe44:	2404ffbf 	li	a0,-65
    fe48:	3c020002 	lui	v0,0x2
    fe4c:	8c428f9c 	lw	v0,-28772(v0)
    fe50:	3c030002 	lui	v1,0x2
    fe54:	8c638fc8 	lw	v1,-28728(v1)
    fe58:	00441024 	and	v0,v0,a0
    fe5c:	00641824 	and	v1,v1,a0
    fe60:	10430004 	beq	v0,v1,0xfe74
    fe64:	24020001 	li	v0,1
    fe68:	3c010002 	lui	at,0x2
    fe6c:	100000e4 	b	0x10200
    fe70:	ac228f90 	sw	v0,-28784(at)
    fe74:	24020003 	li	v0,3
    fe78:	aca20000 	sw	v0,0(a1)
    fe7c:	24020008 	li	v0,8
    fe80:	3c010002 	lui	at,0x2
    fe84:	ac228f90 	sw	v0,-28784(at)
    fe88:	3c020002 	lui	v0,0x2
    fe8c:	8c428fcc 	lw	v0,-28724(v0)
    fe90:	1040000c 	beqz	v0,0xfec4
    fe94:	24020001 	li	v0,1
    fe98:	3c040002 	lui	a0,0x2
    fe9c:	0c005091 	jal	0x14244
    fea0:	8c848f9c 	lw	a0,-28772(a0)
    fea4:	3c020002 	lui	v0,0x2
    fea8:	8c428fe8 	lw	v0,-28696(v0)
    feac:	14400005 	bnez	v0,0xfec4
    feb0:	24020001 	li	v0,1
    feb4:	3c020002 	lui	v0,0x2
    feb8:	8c428fe4 	lw	v0,-28700(v0)
    febc:	10400006 	beqz	v0,0xfed8
    fec0:	24020001 	li	v0,1
    fec4:	3c010001 	lui	at,0x1
    fec8:	ac226d9c 	sw	v0,28060(at)
    fecc:	3c010002 	lui	at,0x2
    fed0:	100000cb 	b	0x10200
    fed4:	ac208fb8 	sw	zero,-28744(at)
    fed8:	3c020002 	lui	v0,0x2
    fedc:	8c428fb0 	lw	v0,-28752(v0)
    fee0:	3c030002 	lui	v1,0x2
    fee4:	8c638f9c 	lw	v1,-28772(v1)
    fee8:	2c420001 	sltiu	v0,v0,1
    feec:	000210c0 	sll	v0,v0,0x3
    fef0:	30630008 	andi	v1,v1,0x8
    fef4:	3c010002 	lui	at,0x2
    fef8:	ac228fb0 	sw	v0,-28752(at)
    fefc:	3c010002 	lui	at,0x2
    ff00:	ac238fac 	sw	v1,-28756(at)
    ff04:	8f830054 	lw	v1,84(gp)
    ff08:	24020009 	li	v0,9
    ff0c:	3c010002 	lui	at,0x2
    ff10:	ac228f90 	sw	v0,-28784(at)
    ff14:	3c010002 	lui	at,0x2
    ff18:	100000b9 	b	0x10200
    ff1c:	ac238fb4 	sw	v1,-28748(at)
    ff20:	8f830054 	lw	v1,84(gp)
    ff24:	3c020002 	lui	v0,0x2
    ff28:	8c428fb4 	lw	v0,-28748(v0)
    ff2c:	2463d8f0 	addiu	v1,v1,-10000
    ff30:	00431023 	subu	v0,v0,v1
    ff34:	2c422710 	sltiu	v0,v0,10000
    ff38:	1440009f 	bnez	v0,0x101b8
    ff3c:	00000000 	nop
    ff40:	3c020002 	lui	v0,0x2
    ff44:	8c428fc0 	lw	v0,-28736(v0)
    ff48:	10400005 	beqz	v0,0xff60
    ff4c:	00000000 	nop
    ff50:	3c020002 	lui	v0,0x2
    ff54:	8c428f9c 	lw	v0,-28772(v0)
    ff58:	104000a0 	beqz	v0,0x101dc
    ff5c:	24020002 	li	v0,2
    ff60:	3c030002 	lui	v1,0x2
    ff64:	24638fa0 	addiu	v1,v1,-28768
    ff68:	8c620000 	lw	v0,0(v1)
    ff6c:	2c424e21 	sltiu	v0,v0,20001
    ff70:	1040009a 	beqz	v0,0x101dc
    ff74:	24020002 	li	v0,2
    ff78:	3c020002 	lui	v0,0x2
    ff7c:	8c428fcc 	lw	v0,-28724(v0)
    ff80:	1040000e 	beqz	v0,0xffbc
    ff84:	00000000 	nop
    ff88:	3c020002 	lui	v0,0x2
    ff8c:	8c428f9c 	lw	v0,-28772(v0)
    ff90:	3c010002 	lui	at,0x2
    ff94:	ac208fcc 	sw	zero,-28724(at)
    ff98:	30420080 	andi	v0,v0,0x80
    ff9c:	1040002f 	beqz	v0,0x1005c
    ffa0:	2402000c 	li	v0,12
    ffa4:	8f820204 	lw	v0,516(gp)
    ffa8:	30420080 	andi	v0,v0,0x80
    ffac:	1440000c 	bnez	v0,0xffe0
    ffb0:	24020003 	li	v0,3
    ffb4:	10000029 	b	0x1005c
    ffb8:	2402000c 	li	v0,12
    ffbc:	3c020002 	lui	v0,0x2
    ffc0:	8c428f9c 	lw	v0,-28772(v0)
    ffc4:	30420080 	andi	v0,v0,0x80
    ffc8:	14400005 	bnez	v0,0xffe0
    ffcc:	24020003 	li	v0,3
    ffd0:	8f820204 	lw	v0,516(gp)
    ffd4:	30420080 	andi	v0,v0,0x80
    ffd8:	1040001f 	beqz	v0,0x10058
    ffdc:	24020003 	li	v0,3
    ffe0:	ac620000 	sw	v0,0(v1)
    ffe4:	2402000a 	li	v0,10
    ffe8:	3c010002 	lui	at,0x2
    ffec:	ac228f90 	sw	v0,-28784(at)
    fff0:	3c040002 	lui	a0,0x2
    fff4:	24848fd8 	addiu	a0,a0,-28712
    fff8:	8c820000 	lw	v0,0(a0)
    fffc:	3c030002 	lui	v1,0x2
   10000:	8c638fb0 	lw	v1,-28752(v1)
   10004:	00431025 	or	v0,v0,v1
   10008:	af820204 	sw	v0,516(gp)
   1000c:	8c830000 	lw	v1,0(a0)
   10010:	3c040002 	lui	a0,0x2
   10014:	8c848fb0 	lw	a0,-28752(a0)
   10018:	2402000b 	li	v0,11
   1001c:	3c010002 	lui	at,0x2
   10020:	ac228f90 	sw	v0,-28784(at)
   10024:	00641825 	or	v1,v1,a0
   10028:	3c010002 	lui	at,0x2
   1002c:	ac238fe0 	sw	v1,-28704(at)
   10030:	3c050002 	lui	a1,0x2
   10034:	24a58fa0 	addiu	a1,a1,-28768
   10038:	8ca20000 	lw	v0,0(a1)
   1003c:	2c424e21 	sltiu	v0,v0,20001
   10040:	10400066 	beqz	v0,0x101dc
   10044:	24020002 	li	v0,2
   10048:	3c020002 	lui	v0,0x2
   1004c:	8c428fd0 	lw	v0,-28720(v0)
   10050:	10400005 	beqz	v0,0x10068
   10054:	00000000 	nop
   10058:	2402000c 	li	v0,12
   1005c:	3c010002 	lui	at,0x2
   10060:	10000067 	b	0x10200
   10064:	ac228f90 	sw	v0,-28784(at)
   10068:	3c020002 	lui	v0,0x2
   1006c:	8c428fc0 	lw	v0,-28736(v0)
   10070:	10400063 	beqz	v0,0x10200
   10074:	00000000 	nop
   10078:	3c040002 	lui	a0,0x2
   1007c:	8c848f9c 	lw	a0,-28772(a0)
   10080:	10800055 	beqz	a0,0x101d8
   10084:	30820008 	andi	v0,a0,0x8
   10088:	3c030002 	lui	v1,0x2
   1008c:	8c638fac 	lw	v1,-28756(v1)
   10090:	1062005b 	beq	v1,v0,0x10200
   10094:	24020003 	li	v0,3
   10098:	3c010002 	lui	at,0x2
   1009c:	ac248fc8 	sw	a0,-28728(at)
   100a0:	aca20000 	sw	v0,0(a1)
   100a4:	24020006 	li	v0,6
   100a8:	3c010002 	lui	at,0x2
   100ac:	10000054 	b	0x10200
   100b0:	ac228f90 	sw	v0,-28784(at)
   100b4:	8f820200 	lw	v0,512(gp)
   100b8:	34420002 	ori	v0,v0,0x2
   100bc:	af820200 	sw	v0,512(gp)
   100c0:	8f830054 	lw	v1,84(gp)
   100c4:	2402000d 	li	v0,13
   100c8:	3c010002 	lui	at,0x2
   100cc:	ac228f90 	sw	v0,-28784(at)
   100d0:	3c010002 	lui	at,0x2
   100d4:	ac238fb4 	sw	v1,-28748(at)
   100d8:	8f830054 	lw	v1,84(gp)
   100dc:	3c020002 	lui	v0,0x2
   100e0:	8c428fb4 	lw	v0,-28748(v0)
   100e4:	2463d8f0 	addiu	v1,v1,-10000
   100e8:	00431023 	subu	v0,v0,v1
   100ec:	2c422710 	sltiu	v0,v0,10000
   100f0:	14400031 	bnez	v0,0x101b8
   100f4:	00000000 	nop
   100f8:	3c020002 	lui	v0,0x2
   100fc:	8c428fd0 	lw	v0,-28720(v0)
   10100:	10400020 	beqz	v0,0x10184
   10104:	2402000e 	li	v0,14
   10108:	3c030002 	lui	v1,0x2
   1010c:	8c638fe4 	lw	v1,-28700(v1)
   10110:	3c010002 	lui	at,0x2
   10114:	14600015 	bnez	v1,0x1016c
   10118:	ac228f90 	sw	v0,-28784(at)
   1011c:	0c003e6d 	jal	0xf9b4
   10120:	00000000 	nop
   10124:	3c050001 	lui	a1,0x1
   10128:	8ca56d98 	lw	a1,28056(a1)
   1012c:	0c00529b 	jal	0x14a6c
   10130:	00002021 	move	a0,zero
   10134:	3c030001 	lui	v1,0x1
   10138:	8c636d98 	lw	v1,28056(v1)
   1013c:	24020004 	li	v0,4
   10140:	14620005 	bne	v1,v0,0x10158
   10144:	2403fffb 	li	v1,-5
   10148:	3c020001 	lui	v0,0x1
   1014c:	8c426d94 	lw	v0,28052(v0)
   10150:	10000003 	b	0x10160
   10154:	2403fff7 	li	v1,-9
   10158:	3c020001 	lui	v0,0x1
   1015c:	8c426d94 	lw	v0,28052(v0)
   10160:	00431024 	and	v0,v0,v1
   10164:	3c010001 	lui	at,0x1
   10168:	ac226d94 	sw	v0,28052(at)
   1016c:	8f830224 	lw	v1,548(gp)
   10170:	3c020200 	lui	v0,0x200
   10174:	3c010002 	lui	at,0x2
   10178:	ac238fec 	sw	v1,-28692(at)
   1017c:	10000020 	b	0x10200
   10180:	0282a025 	or	s4,s4,v0
   10184:	3c020002 	lui	v0,0x2
   10188:	8c428fc0 	lw	v0,-28736(v0)
   1018c:	10400005 	beqz	v0,0x101a4
   10190:	00000000 	nop
   10194:	3c020002 	lui	v0,0x2
   10198:	8c428f9c 	lw	v0,-28772(v0)
   1019c:	1040000f 	beqz	v0,0x101dc
   101a0:	24020002 	li	v0,2
   101a4:	3c020002 	lui	v0,0x2
   101a8:	8c428fa0 	lw	v0,-28768(v0)
   101ac:	2c424e21 	sltiu	v0,v0,20001
   101b0:	1040000a 	beqz	v0,0x101dc
   101b4:	24020002 	li	v0,2
   101b8:	3c020002 	lui	v0,0x2
   101bc:	8c428fc0 	lw	v0,-28736(v0)
   101c0:	1040000f 	beqz	v0,0x10200
   101c4:	00000000 	nop
   101c8:	3c020002 	lui	v0,0x2
   101cc:	8c428f9c 	lw	v0,-28772(v0)
   101d0:	1440000b 	bnez	v0,0x10200
   101d4:	00000000 	nop
   101d8:	24020002 	li	v0,2
   101dc:	3c010002 	lui	at,0x2
   101e0:	10000007 	b	0x10200
   101e4:	ac228f90 	sw	v0,-28784(at)
   101e8:	3c020002 	lui	v0,0x2
   101ec:	8c428fc0 	lw	v0,-28736(v0)
   101f0:	10400003 	beqz	v0,0x10200
   101f4:	00000000 	nop
   101f8:	0c003daf 	jal	0xf6bc
   101fc:	00000000 	nop
   10200:	8f820220 	lw	v0,544(gp)
   10204:	3c03f700 	lui	v1,0xf700
   10208:	00431025 	or	v0,v0,v1
   1020c:	af820220 	sw	v0,544(gp)
   10210:	8fbf0010 	lw	ra,16(sp)
   10214:	03e00008 	jr	ra
   10218:	27bd0018 	addiu	sp,sp,24
   1021c:	3c030002 	lui	v1,0x2
   10220:	24638fe8 	addiu	v1,v1,-28696
   10224:	8c620000 	lw	v0,0(v1)
   10228:	10400005 	beqz	v0,0x10240
   1022c:	34422000 	ori	v0,v0,0x2000
   10230:	3c010002 	lui	at,0x2
   10234:	ac228fdc 	sw	v0,-28708(at)
   10238:	10000003 	b	0x10248
   1023c:	ac600000 	sw	zero,0(v1)
   10240:	3c010002 	lui	at,0x2
   10244:	ac248fdc 	sw	a0,-28708(at)
   10248:	03e00008 	jr	ra
   1024c:	00000000 	nop
   10250:	27bdffe0 	addiu	sp,sp,-32
   10254:	30820030 	andi	v0,a0,0x30
   10258:	afbf0018 	sw	ra,24(sp)
   1025c:	3c010002 	lui	at,0x2
   10260:	ac228fe4 	sw	v0,-28700(at)
   10264:	14400067 	bnez	v0,0x10404
   10268:	3c02ffff 	lui	v0,0xffff
   1026c:	34421f0e 	ori	v0,v0,0x1f0e
   10270:	00821024 	and	v0,a0,v0
   10274:	14400061 	bnez	v0,0x103fc
   10278:	24020030 	li	v0,48
   1027c:	30822000 	andi	v0,a0,0x2000
   10280:	1040005d 	beqz	v0,0x103f8
   10284:	30838000 	andi	v1,a0,0x8000
   10288:	00031a02 	srl	v1,v1,0x8
   1028c:	30820001 	andi	v0,a0,0x1
   10290:	00021200 	sll	v0,v0,0x8
   10294:	3c040001 	lui	a0,0x1
   10298:	8c846f20 	lw	a0,28448(a0)
   1029c:	00621825 	or	v1,v1,v0
   102a0:	000331c2 	srl	a2,v1,0x7
   102a4:	3c030001 	lui	v1,0x1
   102a8:	24636e48 	addiu	v1,v1,28232
   102ac:	30828000 	andi	v0,a0,0x8000
   102b0:	00021202 	srl	v0,v0,0x8
   102b4:	30840001 	andi	a0,a0,0x1
   102b8:	00042200 	sll	a0,a0,0x8
   102bc:	00441025 	or	v0,v0,a0
   102c0:	000239c2 	srl	a3,v0,0x7
   102c4:	00061080 	sll	v0,a2,0x2
   102c8:	00431021 	addu	v0,v0,v1
   102cc:	00471021 	addu	v0,v0,a3
   102d0:	90430000 	lbu	v1,0(v0)
   102d4:	24020001 	li	v0,1
   102d8:	10620025 	beq	v1,v0,0x10370
   102dc:	00000000 	nop
   102e0:	10600007 	beqz	v1,0x10300
   102e4:	24020002 	li	v0,2
   102e8:	10620013 	beq	v1,v0,0x10338
   102ec:	24020003 	li	v0,3
   102f0:	1062002c 	beq	v1,v0,0x103a4
   102f4:	3c05000f 	lui	a1,0xf
   102f8:	10000037 	b	0x103d8
   102fc:	00000000 	nop
   10300:	8f820200 	lw	v0,512(gp)
   10304:	2403feff 	li	v1,-257
   10308:	00431024 	and	v0,v0,v1
   1030c:	af820200 	sw	v0,512(gp)
   10310:	8f820220 	lw	v0,544(gp)
   10314:	3c03fffe 	lui	v1,0xfffe
   10318:	3463ffff 	ori	v1,v1,0xffff
   1031c:	00431024 	and	v0,v0,v1
   10320:	af820220 	sw	v0,544(gp)
   10324:	3c010002 	lui	at,0x2
   10328:	ac209004 	sw	zero,-28668(at)
   1032c:	3c010002 	lui	at,0x2
   10330:	10000034 	b	0x10404
   10334:	ac20900c 	sw	zero,-28660(at)
   10338:	8f820200 	lw	v0,512(gp)
   1033c:	34420100 	ori	v0,v0,0x100
   10340:	af820200 	sw	v0,512(gp)
   10344:	8f820220 	lw	v0,544(gp)
   10348:	3c03fffe 	lui	v1,0xfffe
   1034c:	3463ffff 	ori	v1,v1,0xffff
   10350:	00431024 	and	v0,v0,v1
   10354:	af820220 	sw	v0,544(gp)
   10358:	24020100 	li	v0,256
   1035c:	3c010002 	lui	at,0x2
   10360:	ac229004 	sw	v0,-28668(at)
   10364:	3c010002 	lui	at,0x2
   10368:	10000026 	b	0x10404
   1036c:	ac20900c 	sw	zero,-28660(at)
   10370:	8f820200 	lw	v0,512(gp)
   10374:	2403feff 	li	v1,-257
   10378:	00431024 	and	v0,v0,v1
   1037c:	af820200 	sw	v0,512(gp)
   10380:	8f820220 	lw	v0,544(gp)
   10384:	3c030001 	lui	v1,0x1
   10388:	00431025 	or	v0,v0,v1
   1038c:	af820220 	sw	v0,544(gp)
   10390:	3c010002 	lui	at,0x2
   10394:	ac209004 	sw	zero,-28668(at)
   10398:	3c010002 	lui	at,0x2
   1039c:	10000019 	b	0x10404
   103a0:	ac23900c 	sw	v1,-28660(at)
   103a4:	8f820200 	lw	v0,512(gp)
   103a8:	34420100 	ori	v0,v0,0x100
   103ac:	af820200 	sw	v0,512(gp)
   103b0:	8f820220 	lw	v0,544(gp)
   103b4:	3c030001 	lui	v1,0x1
   103b8:	00431025 	or	v0,v0,v1
   103bc:	af820220 	sw	v0,544(gp)
   103c0:	24020100 	li	v0,256
   103c4:	3c010002 	lui	at,0x2
   103c8:	ac229004 	sw	v0,-28668(at)
   103cc:	3c010002 	lui	at,0x2
   103d0:	1000000c 	b	0x10404
   103d4:	ac23900c 	sw	v1,-28660(at)
   103d8:	34a5ffff 	ori	a1,a1,0xffff
   103dc:	3c040001 	lui	a0,0x1
   103e0:	24846c38 	addiu	a0,a0,27704
   103e4:	afa30010 	sw	v1,16(sp)
   103e8:	0c002b3b 	jal	0xacec
   103ec:	afa00014 	sw	zero,20(sp)
   103f0:	10000004 	b	0x10404
   103f4:	00000000 	nop
   103f8:	24020030 	li	v0,48
   103fc:	3c010002 	lui	at,0x2
   10400:	ac228fe8 	sw	v0,-28696(at)
   10404:	8fbf0018 	lw	ra,24(sp)
   10408:	03e00008 	jr	ra
   1040c:	27bd0020 	addiu	sp,sp,32
	...
   1041c:	27bdffc8 	addiu	sp,sp,-56
   10420:	afb20028 	sw	s2,40(sp)
   10424:	00809021 	move	s2,a0
   10428:	afb3002c 	sw	s3,44(sp)
   1042c:	00a09821 	move	s3,a1
   10430:	afb00020 	sw	s0,32(sp)
   10434:	00c08021 	move	s0,a2
   10438:	3c040001 	lui	a0,0x1
   1043c:	24846c50 	addiu	a0,a0,27728
   10440:	3c050009 	lui	a1,0x9
   10444:	3c020001 	lui	v0,0x1
   10448:	8c426d98 	lw	v0,28056(v0)
   1044c:	34a59001 	ori	a1,a1,0x9001
   10450:	02403021 	move	a2,s2
   10454:	02603821 	move	a3,s3
   10458:	afbf0030 	sw	ra,48(sp)
   1045c:	afb10024 	sw	s1,36(sp)
   10460:	a7a0001a 	sh	zero,26(sp)
   10464:	afb00014 	sw	s0,20(sp)
   10468:	0c002b3b 	jal	0xacec
   1046c:	afa20010 	sw	v0,16(sp)
   10470:	24020002 	li	v0,2
   10474:	12620083 	beq	s3,v0,0x10684
   10478:	2e620003 	sltiu	v0,s3,3
   1047c:	10400005 	beqz	v0,0x10494
   10480:	24020001 	li	v0,1
   10484:	1262000a 	beq	s3,v0,0x104b0
   10488:	00000000 	nop
   1048c:	10000173 	b	0x10a5c
   10490:	00000000 	nop
   10494:	24020004 	li	v0,4
   10498:	126200f8 	beq	s3,v0,0x1087c
   1049c:	24020008 	li	v0,8
   104a0:	126200f7 	beq	s3,v0,0x10880
   104a4:	3c02ffec 	lui	v0,0xffec
   104a8:	1000016c 	b	0x10a5c
   104ac:	00000000 	nop
   104b0:	3c020001 	lui	v0,0x1
   104b4:	8c426d94 	lw	v0,28052(v0)
   104b8:	30420002 	andi	v0,v0,0x2
   104bc:	14400004 	bnez	v0,0x104d0
   104c0:	00128940 	sll	s1,s2,0x5
   104c4:	3c02fffb 	lui	v0,0xfffb
   104c8:	3442ffff 	ori	v0,v0,0xffff
   104cc:	02028024 	and	s0,s0,v0
   104d0:	3c010002 	lui	at,0x2
   104d4:	00310821 	addu	at,at,s1
   104d8:	ac308ffc 	sw	s0,-28676(at)
   104dc:	3c024000 	lui	v0,0x4000
   104e0:	02021024 	and	v0,s0,v0
   104e4:	1040004e 	beqz	v0,0x10620
   104e8:	001023c2 	srl	a0,s0,0xf
   104ec:	30840030 	andi	a0,a0,0x30
   104f0:	00101382 	srl	v0,s0,0xe
   104f4:	3042001c 	andi	v0,v0,0x1c
   104f8:	3c030001 	lui	v1,0x1
   104fc:	24636dd8 	addiu	v1,v1,28120
   10500:	00431021 	addu	v0,v0,v1
   10504:	00823821 	addu	a3,a0,v0
   10508:	3c020020 	lui	v0,0x20
   1050c:	02021024 	and	v0,s0,v0
   10510:	10400006 	beqz	v0,0x1052c
   10514:	24020100 	li	v0,256
   10518:	3c010002 	lui	at,0x2
   1051c:	00310821 	addu	at,at,s1
   10520:	ac229000 	sw	v0,-28672(at)
   10524:	10000005 	b	0x1053c
   10528:	3c020080 	lui	v0,0x80
   1052c:	3c010002 	lui	at,0x2
   10530:	00310821 	addu	at,at,s1
   10534:	ac209000 	sw	zero,-28672(at)
   10538:	3c020080 	lui	v0,0x80
   1053c:	02021024 	and	v0,s0,v0
   10540:	10400006 	beqz	v0,0x1055c
   10544:	00121940 	sll	v1,s2,0x5
   10548:	3c020001 	lui	v0,0x1
   1054c:	3c010002 	lui	at,0x2
   10550:	00230821 	addu	at,at,v1
   10554:	10000005 	b	0x1056c
   10558:	ac229008 	sw	v0,-28664(at)
   1055c:	00121140 	sll	v0,s2,0x5
   10560:	3c010002 	lui	at,0x2
   10564:	00220821 	addu	at,at,v0
   10568:	ac209008 	sw	zero,-28664(at)
   1056c:	94e40000 	lhu	a0,0(a3)
   10570:	3c030001 	lui	v1,0x1
   10574:	8c636f40 	lw	v1,28480(v1)
   10578:	24020005 	li	v0,5
   1057c:	10620010 	beq	v1,v0,0x105c0
   10580:	a7a40018 	sh	a0,24(sp)
   10584:	32024000 	andi	v0,s0,0x4000
   10588:	10400002 	beqz	v0,0x10594
   1058c:	34824000 	ori	v0,a0,0x4000
   10590:	a7a20018 	sh	v0,24(sp)
   10594:	24040001 	li	a0,1
   10598:	94e20002 	lhu	v0,2(a3)
   1059c:	24050004 	li	a1,4
   105a0:	24e60002 	addiu	a2,a3,2
   105a4:	34420001 	ori	v0,v0,0x1
   105a8:	0c0045be 	jal	0x116f8
   105ac:	a4e20002 	sh	v0,2(a3)
   105b0:	24040001 	li	a0,1
   105b4:	00002821 	move	a1,zero
   105b8:	0c0045be 	jal	0x116f8
   105bc:	27a60018 	addiu	a2,sp,24
   105c0:	3c020001 	lui	v0,0x1
   105c4:	8c426d98 	lw	v0,28056(v0)
   105c8:	24110001 	li	s1,1
   105cc:	3c010001 	lui	at,0x1
   105d0:	ac316da4 	sw	s1,28068(at)
   105d4:	14530004 	bne	v0,s3,0x105e8
   105d8:	32028000 	andi	v0,s0,0x8000
   105dc:	0c003daf 	jal	0xf6bc
   105e0:	00000000 	nop
   105e4:	32028000 	andi	v0,s0,0x8000
   105e8:	1040011c 	beqz	v0,0x10a5c
   105ec:	00000000 	nop
   105f0:	0c003daf 	jal	0xf6bc
   105f4:	00000000 	nop
   105f8:	3c030001 	lui	v1,0x1
   105fc:	8c636f40 	lw	v1,28480(v1)
   10600:	24020005 	li	v0,5
   10604:	10620115 	beq	v1,v0,0x10a5c
   10608:	24020002 	li	v0,2
   1060c:	3c010001 	lui	at,0x1
   10610:	ac316d9c 	sw	s1,28060(at)
   10614:	3c010001 	lui	at,0x1
   10618:	10000110 	b	0x10a5c
   1061c:	ac226d98 	sw	v0,28056(at)
   10620:	24040001 	li	a0,1
   10624:	24050004 	li	a1,4
   10628:	27b0001a 	addiu	s0,sp,26
   1062c:	0c0045be 	jal	0x116f8
   10630:	02003021 	move	a2,s0
   10634:	24040001 	li	a0,1
   10638:	00002821 	move	a1,zero
   1063c:	0c0045be 	jal	0x116f8
   10640:	02003021 	move	a2,s0
   10644:	3c020002 	lui	v0,0x2
   10648:	00511021 	addu	v0,v0,s1
   1064c:	8c428ff4 	lw	v0,-28684(v0)
   10650:	3c040001 	lui	a0,0x1
   10654:	8c846d98 	lw	a0,28056(a0)
   10658:	3c03bfff 	lui	v1,0xbfff
   1065c:	3463ffff 	ori	v1,v1,0xffff
   10660:	3c010001 	lui	at,0x1
   10664:	ac336da4 	sw	s3,28068(at)
   10668:	00431024 	and	v0,v0,v1
   1066c:	3c010002 	lui	at,0x2
   10670:	00310821 	addu	at,at,s1
   10674:	109300f7 	beq	a0,s3,0x10a54
   10678:	ac228ff4 	sw	v0,-28684(at)
   1067c:	100000f7 	b	0x10a5c
   10680:	00000000 	nop
   10684:	3c022000 	lui	v0,0x2000
   10688:	02021024 	and	v0,s0,v0
   1068c:	10400005 	beqz	v0,0x106a4
   10690:	24020001 	li	v0,1
   10694:	3c010001 	lui	at,0x1
   10698:	ac226f1c 	sw	v0,28444(at)
   1069c:	10000004 	b	0x106b0
   106a0:	00128940 	sll	s1,s2,0x5
   106a4:	3c010001 	lui	at,0x1
   106a8:	ac206f1c 	sw	zero,28444(at)
   106ac:	00128940 	sll	s1,s2,0x5
   106b0:	3c010002 	lui	at,0x2
   106b4:	00310821 	addu	at,at,s1
   106b8:	ac308ff8 	sw	s0,-28680(at)
   106bc:	3c024000 	lui	v0,0x4000
   106c0:	02021024 	and	v0,s0,v0
   106c4:	14400014 	bnez	v0,0x10718
   106c8:	00000000 	nop
   106cc:	3c020001 	lui	v0,0x1
   106d0:	8c426f1c 	lw	v0,28444(v0)
   106d4:	10400006 	beqz	v0,0x106f0
   106d8:	24040004 	li	a0,4
   106dc:	24050001 	li	a1,1
   106e0:	0c004ddb 	jal	0x1376c
   106e4:	24062000 	li	a2,8192
   106e8:	24020001 	li	v0,1
   106ec:	aee204b8 	sw	v0,1208(s7)
   106f0:	3c020002 	lui	v0,0x2
   106f4:	00511021 	addu	v0,v0,s1
   106f8:	8c428ff0 	lw	v0,-28688(v0)
   106fc:	3c03bfff 	lui	v1,0xbfff
   10700:	3463ffff 	ori	v1,v1,0xffff
   10704:	00431024 	and	v0,v0,v1
   10708:	3c010002 	lui	at,0x2
   1070c:	00310821 	addu	at,at,s1
   10710:	100000d0 	b	0x10a54
   10714:	ac228ff0 	sw	v0,-28688(at)
   10718:	3c020001 	lui	v0,0x1
   1071c:	8c426f1c 	lw	v0,28444(v0)
   10720:	10400028 	beqz	v0,0x107c4
   10724:	3c0300a0 	lui	v1,0xa0
   10728:	02031024 	and	v0,s0,v1
   1072c:	5443000d 	bnel	v0,v1,0x10764
   10730:	3c020020 	lui	v0,0x20
   10734:	3c020001 	lui	v0,0x1
   10738:	8c426f20 	lw	v0,28448(v0)
   1073c:	24030100 	li	v1,256
   10740:	3c010002 	lui	at,0x2
   10744:	00310821 	addu	at,at,s1
   10748:	ac239004 	sw	v1,-28668(at)
   1074c:	3c030001 	lui	v1,0x1
   10750:	3c010002 	lui	at,0x2
   10754:	00310821 	addu	at,at,s1
   10758:	ac23900c 	sw	v1,-28660(at)
   1075c:	10000015 	b	0x107b4
   10760:	34420400 	ori	v0,v0,0x400
   10764:	02021024 	and	v0,s0,v0
   10768:	10400008 	beqz	v0,0x1078c
   1076c:	24030100 	li	v1,256
   10770:	3c020001 	lui	v0,0x1
   10774:	8c426f20 	lw	v0,28448(v0)
   10778:	3c010002 	lui	at,0x2
   1077c:	00310821 	addu	at,at,s1
   10780:	ac239004 	sw	v1,-28668(at)
   10784:	1000000b 	b	0x107b4
   10788:	34420800 	ori	v0,v0,0x800
   1078c:	3c020080 	lui	v0,0x80
   10790:	02021024 	and	v0,s0,v0
   10794:	1040002e 	beqz	v0,0x10850
   10798:	3c030001 	lui	v1,0x1
   1079c:	3c020001 	lui	v0,0x1
   107a0:	8c426f20 	lw	v0,28448(v0)
   107a4:	3c010002 	lui	at,0x2
   107a8:	00310821 	addu	at,at,s1
   107ac:	ac23900c 	sw	v1,-28660(at)
   107b0:	34420c00 	ori	v0,v0,0xc00
   107b4:	3c010001 	lui	at,0x1
   107b8:	ac226f20 	sw	v0,28448(at)
   107bc:	10000025 	b	0x10854
   107c0:	24040001 	li	a0,1
   107c4:	3c020020 	lui	v0,0x20
   107c8:	02021024 	and	v0,s0,v0
   107cc:	10400006 	beqz	v0,0x107e8
   107d0:	24020100 	li	v0,256
   107d4:	3c010002 	lui	at,0x2
   107d8:	00310821 	addu	at,at,s1
   107dc:	ac229004 	sw	v0,-28668(at)
   107e0:	10000005 	b	0x107f8
   107e4:	3c020080 	lui	v0,0x80
   107e8:	3c010002 	lui	at,0x2
   107ec:	00310821 	addu	at,at,s1
   107f0:	ac209004 	sw	zero,-28668(at)
   107f4:	3c020080 	lui	v0,0x80
   107f8:	02021024 	and	v0,s0,v0
   107fc:	10400007 	beqz	v0,0x1081c
   10800:	00121940 	sll	v1,s2,0x5
   10804:	3c020001 	lui	v0,0x1
   10808:	3c010002 	lui	at,0x2
   1080c:	00230821 	addu	at,at,v1
   10810:	ac22900c 	sw	v0,-28660(at)
   10814:	10000006 	b	0x10830
   10818:	24040001 	li	a0,1
   1081c:	00121140 	sll	v0,s2,0x5
   10820:	3c010002 	lui	at,0x2
   10824:	00220821 	addu	at,at,v0
   10828:	ac20900c 	sw	zero,-28660(at)
   1082c:	24040001 	li	a0,1
   10830:	00002821 	move	a1,zero
   10834:	27b0001e 	addiu	s0,sp,30
   10838:	0c00457c 	jal	0x115f0
   1083c:	02003021 	move	a2,s0
   10840:	24040001 	li	a0,1
   10844:	00002821 	move	a1,zero
   10848:	0c00457c 	jal	0x115f0
   1084c:	02003021 	move	a2,s0
   10850:	24040001 	li	a0,1
   10854:	24050001 	li	a1,1
   10858:	27b0001c 	addiu	s0,sp,28
   1085c:	0c00457c 	jal	0x115f0
   10860:	02003021 	move	a2,s0
   10864:	24040001 	li	a0,1
   10868:	24050001 	li	a1,1
   1086c:	0c00457c 	jal	0x115f0
   10870:	02003021 	move	a2,s0
   10874:	10000077 	b	0x10a54
   10878:	00000000 	nop
   1087c:	3c02ffec 	lui	v0,0xffec
   10880:	3442ffff 	ori	v0,v0,0xffff
   10884:	02028024 	and	s0,s0,v0
   10888:	3c020008 	lui	v0,0x8
   1088c:	02028025 	or	s0,s0,v0
   10890:	00121140 	sll	v0,s2,0x5
   10894:	3c010002 	lui	at,0x2
   10898:	00220821 	addu	at,at,v0
   1089c:	ac308ff8 	sw	s0,-28680(at)
   108a0:	3c022000 	lui	v0,0x2000
   108a4:	02021024 	and	v0,s0,v0
   108a8:	10400009 	beqz	v0,0x108d0
   108ac:	00000000 	nop
   108b0:	3c020001 	lui	v0,0x1
   108b4:	8c426e44 	lw	v0,28228(v0)
   108b8:	14400005 	bnez	v0,0x108d0
   108bc:	24020001 	li	v0,1
   108c0:	3c010001 	lui	at,0x1
   108c4:	ac226f1c 	sw	v0,28444(at)
   108c8:	10000004 	b	0x108dc
   108cc:	3c024000 	lui	v0,0x4000
   108d0:	3c010001 	lui	at,0x1
   108d4:	ac206f1c 	sw	zero,28444(at)
   108d8:	3c024000 	lui	v0,0x4000
   108dc:	02021024 	and	v0,s0,v0
   108e0:	1440001d 	bnez	v0,0x10958
   108e4:	24020e01 	li	v0,3585
   108e8:	3c030001 	lui	v1,0x1
   108ec:	8c636f1c 	lw	v1,28444(v1)
   108f0:	af820238 	sw	v0,568(gp)
   108f4:	3c010001 	lui	at,0x1
   108f8:	ac206db0 	sw	zero,28080(at)
   108fc:	10600005 	beqz	v1,0x10914
   10900:	24022020 	li	v0,8224
   10904:	3c010001 	lui	at,0x1
   10908:	ac226f20 	sw	v0,28448(at)
   1090c:	24020001 	li	v0,1
   10910:	aee204b8 	sw	v0,1208(s7)
   10914:	3c04bfff 	lui	a0,0xbfff
   10918:	00121940 	sll	v1,s2,0x5
   1091c:	3c020002 	lui	v0,0x2
   10920:	00431021 	addu	v0,v0,v1
   10924:	8c428ff0 	lw	v0,-28688(v0)
   10928:	3c050001 	lui	a1,0x1
   1092c:	8ca56d98 	lw	a1,28056(a1)
   10930:	3484ffff 	ori	a0,a0,0xffff
   10934:	00441024 	and	v0,v0,a0
   10938:	3c010002 	lui	at,0x2
   1093c:	00230821 	addu	at,at,v1
   10940:	ac228ff0 	sw	v0,-28688(at)
   10944:	24020001 	li	v0,1
   10948:	10a20044 	beq	a1,v0,0x10a5c
   1094c:	00000000 	nop
   10950:	10000040 	b	0x10a54
   10954:	00000000 	nop
   10958:	3c020001 	lui	v0,0x1
   1095c:	8c426f1c 	lw	v0,28444(v0)
   10960:	1040001c 	beqz	v0,0x109d4
   10964:	24022000 	li	v0,8192
   10968:	3c010001 	lui	at,0x1
   1096c:	ac226f20 	sw	v0,28448(at)
   10970:	3c0300a0 	lui	v1,0xa0
   10974:	02031024 	and	v0,s0,v1
   10978:	14430005 	bne	v0,v1,0x10990
   1097c:	00121140 	sll	v0,s2,0x5
   10980:	3402a000 	li	v0,0xa000
   10984:	3c010001 	lui	at,0x1
   10988:	1000002d 	b	0x10a40
   1098c:	ac226f20 	sw	v0,28448(at)
   10990:	3c030002 	lui	v1,0x2
   10994:	00621821 	addu	v1,v1,v0
   10998:	8c638ff8 	lw	v1,-28680(v1)
   1099c:	3c020020 	lui	v0,0x20
   109a0:	00621024 	and	v0,v1,v0
   109a4:	10400004 	beqz	v0,0x109b8
   109a8:	24022001 	li	v0,8193
   109ac:	3c010001 	lui	at,0x1
   109b0:	10000023 	b	0x10a40
   109b4:	ac226f20 	sw	v0,28448(at)
   109b8:	3c020080 	lui	v0,0x80
   109bc:	00621024 	and	v0,v1,v0
   109c0:	1040001f 	beqz	v0,0x10a40
   109c4:	3402a001 	li	v0,0xa001
   109c8:	3c010001 	lui	at,0x1
   109cc:	1000001c 	b	0x10a40
   109d0:	ac226f20 	sw	v0,28448(at)
   109d4:	3c020020 	lui	v0,0x20
   109d8:	02021024 	and	v0,s0,v0
   109dc:	10400007 	beqz	v0,0x109fc
   109e0:	00121940 	sll	v1,s2,0x5
   109e4:	24020100 	li	v0,256
   109e8:	3c010002 	lui	at,0x2
   109ec:	00230821 	addu	at,at,v1
   109f0:	ac229004 	sw	v0,-28668(at)
   109f4:	10000006 	b	0x10a10
   109f8:	3c020080 	lui	v0,0x80
   109fc:	00121140 	sll	v0,s2,0x5
   10a00:	3c010002 	lui	at,0x2
   10a04:	00220821 	addu	at,at,v0
   10a08:	ac209004 	sw	zero,-28668(at)
   10a0c:	3c020080 	lui	v0,0x80
   10a10:	02021024 	and	v0,s0,v0
   10a14:	10400006 	beqz	v0,0x10a30
   10a18:	00121940 	sll	v1,s2,0x5
   10a1c:	3c020001 	lui	v0,0x1
   10a20:	3c010002 	lui	at,0x2
   10a24:	00230821 	addu	at,at,v1
   10a28:	10000005 	b	0x10a40
   10a2c:	ac22900c 	sw	v0,-28660(at)
   10a30:	00121140 	sll	v0,s2,0x5
   10a34:	3c010002 	lui	at,0x2
   10a38:	00220821 	addu	at,at,v0
   10a3c:	ac20900c 	sw	zero,-28660(at)
   10a40:	3c030001 	lui	v1,0x1
   10a44:	8c636d98 	lw	v1,28056(v1)
   10a48:	24020001 	li	v0,1
   10a4c:	10620003 	beq	v1,v0,0x10a5c
   10a50:	00000000 	nop
   10a54:	0c003daf 	jal	0xf6bc
   10a58:	00000000 	nop
   10a5c:	8fbf0030 	lw	ra,48(sp)
   10a60:	8fb3002c 	lw	s3,44(sp)
   10a64:	8fb20028 	lw	s2,40(sp)
   10a68:	8fb10024 	lw	s1,36(sp)
   10a6c:	8fb00020 	lw	s0,32(sp)
   10a70:	03e00008 	jr	ra
   10a74:	27bd0038 	addiu	sp,sp,56
   10a78:	27bdffb0 	addiu	sp,sp,-80
   10a7c:	afb3003c 	sw	s3,60(sp)
   10a80:	00009821 	move	s3,zero
   10a84:	afb50040 	sw	s5,64(sp)
   10a88:	0000a821 	move	s5,zero
   10a8c:	afb10034 	sw	s1,52(sp)
   10a90:	00008821 	move	s1,zero
   10a94:	24020002 	li	v0,2
   10a98:	afbf0048 	sw	ra,72(sp)
   10a9c:	afbe0044 	sw	s8,68(sp)
   10aa0:	afb20038 	sw	s2,56(sp)
   10aa4:	afb00030 	sw	s0,48(sp)
   10aa8:	afa4002c 	sw	a0,44(sp)
   10aac:	a7a0001a 	sh	zero,26(sp)
   10ab0:	a7a00018 	sh	zero,24(sp)
   10ab4:	a7a00020 	sh	zero,32(sp)
   10ab8:	a7a0001e 	sh	zero,30(sp)
   10abc:	a7a00022 	sh	zero,34(sp)
   10ac0:	10a20130 	beq	a1,v0,0x10f84
   10ac4:	a7a0001c 	sh	zero,28(sp)
   10ac8:	2ca20003 	sltiu	v0,a1,3
   10acc:	10400005 	beqz	v0,0x10ae4
   10ad0:	24020001 	li	v0,1
   10ad4:	10a2000a 	beq	a1,v0,0x10b00
   10ad8:	3c024000 	lui	v0,0x4000
   10adc:	1000025d 	b	0x11454
   10ae0:	02201021 	move	v0,s1
   10ae4:	24020004 	li	v0,4
   10ae8:	10a2020a 	beq	a1,v0,0x11314
   10aec:	24020008 	li	v0,8
   10af0:	10a20208 	beq	a1,v0,0x11314
   10af4:	02201021 	move	v0,s1
   10af8:	10000256 	b	0x11454
   10afc:	00000000 	nop
   10b00:	8fa8002c 	lw	t0,44(sp)
   10b04:	00088140 	sll	s0,t0,0x5
   10b08:	3c030002 	lui	v1,0x2
   10b0c:	00701821 	addu	v1,v1,s0
   10b10:	8c638ffc 	lw	v1,-28676(v1)
   10b14:	00621024 	and	v0,v1,v0
   10b18:	14400009 	bnez	v0,0x10b40
   10b1c:	24040001 	li	a0,1
   10b20:	3c027fff 	lui	v0,0x7fff
   10b24:	3442ffff 	ori	v0,v0,0xffff
   10b28:	00628824 	and	s1,v1,v0
   10b2c:	3c010002 	lui	at,0x2
   10b30:	00300821 	addu	at,at,s0
   10b34:	ac318ff4 	sw	s1,-28684(at)
   10b38:	10000246 	b	0x11454
   10b3c:	02201021 	move	v0,s1
   10b40:	24050001 	li	a1,1
   10b44:	0c00457c 	jal	0x115f0
   10b48:	27a60018 	addiu	a2,sp,24
   10b4c:	24040001 	li	a0,1
   10b50:	24050001 	li	a1,1
   10b54:	0c00457c 	jal	0x115f0
   10b58:	27a60018 	addiu	a2,sp,24
   10b5c:	97a20018 	lhu	v0,24(sp)
   10b60:	30420004 	andi	v0,v0,0x4
   10b64:	104000d9 	beqz	v0,0x10ecc
   10b68:	3c114000 	lui	s1,0x4000
   10b6c:	3c020001 	lui	v0,0x1
   10b70:	8c426f40 	lw	v0,28480(v0)
   10b74:	2443ffff 	addiu	v1,v0,-1
   10b78:	2c620006 	sltiu	v0,v1,6
   10b7c:	104000d9 	beqz	v0,0x10ee4
   10b80:	00031080 	sll	v0,v1,0x2
   10b84:	3c010001 	lui	at,0x1
   10b88:	00220821 	addu	at,at,v0
   10b8c:	8c226c68 	lw	v0,27752(at)
   10b90:	00400008 	jr	v0
   10b94:	00000000 	nop
   10b98:	24040001 	li	a0,1
   10b9c:	24050011 	li	a1,17
   10ba0:	27b0001a 	addiu	s0,sp,26
   10ba4:	0c00457c 	jal	0x115f0
   10ba8:	02003021 	move	a2,s0
   10bac:	24040001 	li	a0,1
   10bb0:	24050011 	li	a1,17
   10bb4:	0c00457c 	jal	0x115f0
   10bb8:	02003021 	move	a2,s0
   10bbc:	97a3001a 	lhu	v1,26(sp)
   10bc0:	30624000 	andi	v0,v1,0x4000
   10bc4:	10400002 	beqz	v0,0x10bd0
   10bc8:	3c150010 	lui	s5,0x10
   10bcc:	3c150008 	lui	s5,0x8
   10bd0:	30628000 	andi	v0,v1,0x8000
   10bd4:	104000aa 	beqz	v0,0x10e80
   10bd8:	3c130001 	lui	s3,0x1
   10bdc:	100000a8 	b	0x10e80
   10be0:	3c130002 	lui	s3,0x2
   10be4:	24040001 	li	a0,1
   10be8:	24050014 	li	a1,20
   10bec:	27b0001a 	addiu	s0,sp,26
   10bf0:	0c00457c 	jal	0x115f0
   10bf4:	02003021 	move	a2,s0
   10bf8:	24040001 	li	a0,1
   10bfc:	24050014 	li	a1,20
   10c00:	0c00457c 	jal	0x115f0
   10c04:	02003021 	move	a2,s0
   10c08:	97a3001a 	lhu	v1,26(sp)
   10c0c:	30621000 	andi	v0,v1,0x1000
   10c10:	10400002 	beqz	v0,0x10c1c
   10c14:	3c150010 	lui	s5,0x10
   10c18:	3c150008 	lui	s5,0x8
   10c1c:	30620800 	andi	v0,v1,0x800
   10c20:	10400097 	beqz	v0,0x10e80
   10c24:	3c130001 	lui	s3,0x1
   10c28:	10000095 	b	0x10e80
   10c2c:	3c130002 	lui	s3,0x2
   10c30:	24040001 	li	a0,1
   10c34:	24050019 	li	a1,25
   10c38:	27b0001c 	addiu	s0,sp,28
   10c3c:	0c00457c 	jal	0x115f0
   10c40:	02003021 	move	a2,s0
   10c44:	24040001 	li	a0,1
   10c48:	24050019 	li	a1,25
   10c4c:	0c00457c 	jal	0x115f0
   10c50:	02003021 	move	a2,s0
   10c54:	97a2001c 	lhu	v0,28(sp)
   10c58:	30430700 	andi	v1,v0,0x700
   10c5c:	24020400 	li	v0,1024
   10c60:	10620027 	beq	v1,v0,0x10d00
   10c64:	28620401 	slti	v0,v1,1025
   10c68:	1040000e 	beqz	v0,0x10ca4
   10c6c:	24020200 	li	v0,512
   10c70:	1062001f 	beq	v1,v0,0x10cf0
   10c74:	28620201 	slti	v0,v1,513
   10c78:	10400005 	beqz	v0,0x10c90
   10c7c:	24020100 	li	v0,256
   10c80:	5062001e 	beql	v1,v0,0x10cfc
   10c84:	3c130001 	lui	s3,0x1
   10c88:	1000001e 	b	0x10d04
   10c8c:	24040001 	li	a0,1
   10c90:	24020300 	li	v0,768
   10c94:	50620019 	beql	v1,v0,0x10cfc
   10c98:	3c130002 	lui	s3,0x2
   10c9c:	10000019 	b	0x10d04
   10ca0:	24040001 	li	a0,1
   10ca4:	24020600 	li	v0,1536
   10ca8:	1062000d 	beq	v1,v0,0x10ce0
   10cac:	28620601 	slti	v0,v1,1537
   10cb0:	10400005 	beqz	v0,0x10cc8
   10cb4:	24020500 	li	v0,1280
   10cb8:	5062000b 	beql	v1,v0,0x10ce8
   10cbc:	3c130002 	lui	s3,0x2
   10cc0:	10000010 	b	0x10d04
   10cc4:	24040001 	li	a0,1
   10cc8:	24020700 	li	v0,1792
   10ccc:	1462000d 	bne	v1,v0,0x10d04
   10cd0:	24040001 	li	a0,1
   10cd4:	3c130004 	lui	s3,0x4
   10cd8:	1000000a 	b	0x10d04
   10cdc:	3c150008 	lui	s5,0x8
   10ce0:	10000006 	b	0x10cfc
   10ce4:	3c130004 	lui	s3,0x4
   10ce8:	10000005 	b	0x10d00
   10cec:	3c150008 	lui	s5,0x8
   10cf0:	3c130001 	lui	s3,0x1
   10cf4:	10000002 	b	0x10d00
   10cf8:	3c150008 	lui	s5,0x8
   10cfc:	3c150010 	lui	s5,0x10
   10d00:	24040001 	li	a0,1
   10d04:	24050018 	li	a1,24
   10d08:	27b0001e 	addiu	s0,sp,30
   10d0c:	0c00457c 	jal	0x115f0
   10d10:	02003021 	move	a2,s0
   10d14:	24040001 	li	a0,1
   10d18:	24050018 	li	a1,24
   10d1c:	0c00457c 	jal	0x115f0
   10d20:	02003021 	move	a2,s0
   10d24:	8fa8002c 	lw	t0,44(sp)
   10d28:	97a7001e 	lhu	a3,30(sp)
   10d2c:	00081140 	sll	v0,t0,0x5
   10d30:	3c060002 	lui	a2,0x2
   10d34:	00c23021 	addu	a2,a2,v0
   10d38:	8cc68ff4 	lw	a2,-28684(a2)
   10d3c:	97a20022 	lhu	v0,34(sp)
   10d40:	3c100001 	lui	s0,0x1
   10d44:	26106c5c 	addiu	s0,s0,27740
   10d48:	02002021 	move	a0,s0
   10d4c:	afa20010 	sw	v0,16(sp)
   10d50:	97a2001c 	lhu	v0,28(sp)
   10d54:	3c05000c 	lui	a1,0xc
   10d58:	34a50303 	ori	a1,a1,0x303
   10d5c:	0c002b3b 	jal	0xacec
   10d60:	afa20014 	sw	v0,20(sp)
   10d64:	3c020004 	lui	v0,0x4
   10d68:	16620010 	bne	s3,v0,0x10dac
   10d6c:	3c020001 	lui	v0,0x1
   10d70:	8f840054 	lw	a0,84(gp)
   10d74:	24030001 	li	v1,1
   10d78:	24020002 	li	v0,2
   10d7c:	3c010001 	lui	at,0x1
   10d80:	ac236d9c 	sw	v1,28060(at)
   10d84:	3c010001 	lui	at,0x1
   10d88:	ac226d98 	sw	v0,28056(at)
   10d8c:	3c010001 	lui	at,0x1
   10d90:	ac236da4 	sw	v1,28068(at)
   10d94:	3c010001 	lui	at,0x1
   10d98:	ac236e24 	sw	v1,28196(at)
   10d9c:	3c010001 	lui	at,0x1
   10da0:	ac246f30 	sw	a0,28464(at)
   10da4:	1000004f 	b	0x10ee4
   10da8:	02b38825 	or	s1,s5,s3
   10dac:	16620039 	bne	s3,v0,0x10e94
   10db0:	3c028000 	lui	v0,0x8000
   10db4:	3c020001 	lui	v0,0x1
   10db8:	8c426e20 	lw	v0,28192(v0)
   10dbc:	1440001e 	bnez	v0,0x10e38
   10dc0:	24040018 	li	a0,24
   10dc4:	00002021 	move	a0,zero
   10dc8:	00002821 	move	a1,zero
   10dcc:	0c004ddb 	jal	0x1376c
   10dd0:	34068000 	li	a2,0x8000
   10dd4:	8f830054 	lw	v1,84(gp)
   10dd8:	8f820054 	lw	v0,84(gp)
   10ddc:	02b38825 	or	s1,s5,s3
   10de0:	10000002 	b	0x10dec
   10de4:	24630032 	addiu	v1,v1,50
   10de8:	8f820054 	lw	v0,84(gp)
   10dec:	00621023 	subu	v0,v1,v0
   10df0:	2c420033 	sltiu	v0,v0,51
   10df4:	1440fffc 	bnez	v0,0x10de8
   10df8:	00000000 	nop
   10dfc:	8f830054 	lw	v1,84(gp)
   10e00:	24020001 	li	v0,1
   10e04:	3c010001 	lui	at,0x1
   10e08:	ac226e20 	sw	v0,28192(at)
   10e0c:	3c010001 	lui	at,0x1
   10e10:	ac226d9c 	sw	v0,28060(at)
   10e14:	3c010001 	lui	at,0x1
   10e18:	ac226d98 	sw	v0,28056(at)
   10e1c:	3c010001 	lui	at,0x1
   10e20:	ac226da4 	sw	v0,28068(at)
   10e24:	3c010001 	lui	at,0x1
   10e28:	ac226e24 	sw	v0,28196(at)
   10e2c:	3c010001 	lui	at,0x1
   10e30:	1000002c 	b	0x10ee4
   10e34:	ac236f30 	sw	v1,28464(at)
   10e38:	00002821 	move	a1,zero
   10e3c:	0c004ddb 	jal	0x1376c
   10e40:	24060404 	li	a2,1028
   10e44:	00002021 	move	a0,zero
   10e48:	2405001e 	li	a1,30
   10e4c:	27a60018 	addiu	a2,sp,24
   10e50:	24020002 	li	v0,2
   10e54:	0c0045be 	jal	0x116f8
   10e58:	a7a20018 	sh	v0,24(sp)
   10e5c:	00002021 	move	a0,zero
   10e60:	00002821 	move	a1,zero
   10e64:	27a60018 	addiu	a2,sp,24
   10e68:	0c0045be 	jal	0x116f8
   10e6c:	a7a00018 	sh	zero,24(sp)
   10e70:	24040018 	li	a0,24
   10e74:	24050002 	li	a1,2
   10e78:	0c004ddb 	jal	0x1376c
   10e7c:	24060004 	li	a2,4
   10e80:	3c028000 	lui	v0,0x8000
   10e84:	02221025 	or	v0,s1,v0
   10e88:	02b31825 	or	v1,s5,s3
   10e8c:	10000015 	b	0x10ee4
   10e90:	00438825 	or	s1,v0,v1
   10e94:	02221025 	or	v0,s1,v0
   10e98:	02751825 	or	v1,s3,s5
   10e9c:	00438825 	or	s1,v0,v1
   10ea0:	02002021 	move	a0,s0
   10ea4:	97a6001c 	lhu	a2,28(sp)
   10ea8:	3c070001 	lui	a3,0x1
   10eac:	8ce76d98 	lw	a3,28056(a3)
   10eb0:	3c05000c 	lui	a1,0xc
   10eb4:	34a50326 	ori	a1,a1,0x326
   10eb8:	afb30010 	sw	s3,16(sp)
   10ebc:	0c002b3b 	jal	0xacec
   10ec0:	afb10014 	sw	s1,20(sp)
   10ec4:	10000007 	b	0x10ee4
   10ec8:	00000000 	nop
   10ecc:	3c110002 	lui	s1,0x2
   10ed0:	02308821 	addu	s1,s1,s0
   10ed4:	8e318ffc 	lw	s1,-28676(s1)
   10ed8:	3c027fff 	lui	v0,0x7fff
   10edc:	3442ffff 	ori	v0,v0,0xffff
   10ee0:	02228824 	and	s1,s1,v0
   10ee4:	3c020001 	lui	v0,0x1
   10ee8:	8c426da8 	lw	v0,28072(v0)
   10eec:	1040001e 	beqz	v0,0x10f68
   10ef0:	00000000 	nop
   10ef4:	3c020001 	lui	v0,0x1
   10ef8:	8c426f1c 	lw	v0,28444(v0)
   10efc:	10400002 	beqz	v0,0x10f08
   10f00:	3c022000 	lui	v0,0x2000
   10f04:	02228825 	or	s1,s1,v0
   10f08:	8fa8002c 	lw	t0,44(sp)
   10f0c:	00081140 	sll	v0,t0,0x5
   10f10:	3c010002 	lui	at,0x2
   10f14:	00220821 	addu	at,at,v0
   10f18:	8c229000 	lw	v0,-28672(at)
   10f1c:	10400003 	beqz	v0,0x10f2c
   10f20:	3c020020 	lui	v0,0x20
   10f24:	10000005 	b	0x10f3c
   10f28:	02228825 	or	s1,s1,v0
   10f2c:	3c02ffdf 	lui	v0,0xffdf
   10f30:	3442ffff 	ori	v0,v0,0xffff
   10f34:	02228824 	and	s1,s1,v0
   10f38:	8fa8002c 	lw	t0,44(sp)
   10f3c:	00081140 	sll	v0,t0,0x5
   10f40:	3c010002 	lui	at,0x2
   10f44:	00220821 	addu	at,at,v0
   10f48:	8c229008 	lw	v0,-28664(at)
   10f4c:	10400003 	beqz	v0,0x10f5c
   10f50:	3c020080 	lui	v0,0x80
   10f54:	10000004 	b	0x10f68
   10f58:	02228825 	or	s1,s1,v0
   10f5c:	3c02ff7f 	lui	v0,0xff7f
   10f60:	3442ffff 	ori	v0,v0,0xffff
   10f64:	02228824 	and	s1,s1,v0
   10f68:	8fa8002c 	lw	t0,44(sp)
   10f6c:	00081140 	sll	v0,t0,0x5
   10f70:	3c010002 	lui	at,0x2
   10f74:	00220821 	addu	at,at,v0
   10f78:	ac318ff4 	sw	s1,-28684(at)
   10f7c:	10000135 	b	0x11454
   10f80:	02201021 	move	v0,s1
   10f84:	8fa8002c 	lw	t0,44(sp)
   10f88:	0008f140 	sll	s8,t0,0x5
   10f8c:	3c030002 	lui	v1,0x2
   10f90:	007e1821 	addu	v1,v1,s8
   10f94:	8c638ff8 	lw	v1,-28680(v1)
   10f98:	3c024000 	lui	v0,0x4000
   10f9c:	00621024 	and	v0,v1,v0
   10fa0:	14400009 	bnez	v0,0x10fc8
   10fa4:	24040001 	li	a0,1
   10fa8:	3c027fff 	lui	v0,0x7fff
   10fac:	3442ffff 	ori	v0,v0,0xffff
   10fb0:	00628824 	and	s1,v1,v0
   10fb4:	3c010002 	lui	at,0x2
   10fb8:	003e0821 	addu	at,at,s8
   10fbc:	ac318ff0 	sw	s1,-28688(at)
   10fc0:	10000124 	b	0x11454
   10fc4:	02201021 	move	v0,s1
   10fc8:	00002821 	move	a1,zero
   10fcc:	0c00457c 	jal	0x115f0
   10fd0:	27a60018 	addiu	a2,sp,24
   10fd4:	24040001 	li	a0,1
   10fd8:	00002821 	move	a1,zero
   10fdc:	0c00457c 	jal	0x115f0
   10fe0:	27a60018 	addiu	a2,sp,24
   10fe4:	24040001 	li	a0,1
   10fe8:	24050001 	li	a1,1
   10fec:	27b20020 	addiu	s2,sp,32
   10ff0:	0c00457c 	jal	0x115f0
   10ff4:	02403021 	move	a2,s2
   10ff8:	24040001 	li	a0,1
   10ffc:	24050001 	li	a1,1
   11000:	0c00457c 	jal	0x115f0
   11004:	02403021 	move	a2,s2
   11008:	24040001 	li	a0,1
   1100c:	24050004 	li	a1,4
   11010:	27b1001e 	addiu	s1,sp,30
   11014:	0c00457c 	jal	0x115f0
   11018:	02203021 	move	a2,s1
   1101c:	24040001 	li	a0,1
   11020:	24050004 	li	a1,4
   11024:	0c00457c 	jal	0x115f0
   11028:	02203021 	move	a2,s1
   1102c:	24040001 	li	a0,1
   11030:	24050005 	li	a1,5
   11034:	27b00022 	addiu	s0,sp,34
   11038:	0c00457c 	jal	0x115f0
   1103c:	02003021 	move	a2,s0
   11040:	24040001 	li	a0,1
   11044:	24050005 	li	a1,5
   11048:	0c00457c 	jal	0x115f0
   1104c:	02003021 	move	a2,s0
   11050:	24040001 	li	a0,1
   11054:	24050010 	li	a1,16
   11058:	0c00457c 	jal	0x115f0
   1105c:	27a60018 	addiu	a2,sp,24
   11060:	24040001 	li	a0,1
   11064:	24050010 	li	a1,16
   11068:	0c00457c 	jal	0x115f0
   1106c:	27a60018 	addiu	a2,sp,24
   11070:	24040001 	li	a0,1
   11074:	2405000a 	li	a1,10
   11078:	0c00457c 	jal	0x115f0
   1107c:	02403021 	move	a2,s2
   11080:	24040001 	li	a0,1
   11084:	2405000a 	li	a1,10
   11088:	0c00457c 	jal	0x115f0
   1108c:	02403021 	move	a2,s2
   11090:	24040001 	li	a0,1
   11094:	24050018 	li	a1,24
   11098:	0c00457c 	jal	0x115f0
   1109c:	02203021 	move	a2,s1
   110a0:	24040001 	li	a0,1
   110a4:	24050018 	li	a1,24
   110a8:	0c00457c 	jal	0x115f0
   110ac:	02203021 	move	a2,s1
   110b0:	24040001 	li	a0,1
   110b4:	24050001 	li	a1,1
   110b8:	0c00457c 	jal	0x115f0
   110bc:	27a60018 	addiu	a2,sp,24
   110c0:	24040001 	li	a0,1
   110c4:	24050001 	li	a1,1
   110c8:	0c00457c 	jal	0x115f0
   110cc:	27a60018 	addiu	a2,sp,24
   110d0:	97a20018 	lhu	v0,24(sp)
   110d4:	30420004 	andi	v0,v0,0x4
   110d8:	10400066 	beqz	v0,0x11274
   110dc:	3c114000 	lui	s1,0x4000
   110e0:	3c030001 	lui	v1,0x1
   110e4:	8c636f34 	lw	v1,28468(v1)
   110e8:	24020005 	li	v0,5
   110ec:	14620067 	bne	v1,v0,0x1128c
   110f0:	24040001 	li	a0,1
   110f4:	24050019 	li	a1,25
   110f8:	27b0001c 	addiu	s0,sp,28
   110fc:	0c00457c 	jal	0x115f0
   11100:	02003021 	move	a2,s0
   11104:	24040001 	li	a0,1
   11108:	24050019 	li	a1,25
   1110c:	0c00457c 	jal	0x115f0
   11110:	02003021 	move	a2,s0
   11114:	97a2001c 	lhu	v0,28(sp)
   11118:	30430700 	andi	v1,v0,0x700
   1111c:	24020400 	li	v0,1024
   11120:	10620027 	beq	v1,v0,0x111c0
   11124:	28620401 	slti	v0,v1,1025
   11128:	1040000e 	beqz	v0,0x11164
   1112c:	24020200 	li	v0,512
   11130:	1062001f 	beq	v1,v0,0x111b0
   11134:	28620201 	slti	v0,v1,513
   11138:	10400005 	beqz	v0,0x11150
   1113c:	24020100 	li	v0,256
   11140:	5062001e 	beql	v1,v0,0x111bc
   11144:	3c130001 	lui	s3,0x1
   11148:	1000001e 	b	0x111c4
   1114c:	3c020004 	lui	v0,0x4
   11150:	24020300 	li	v0,768
   11154:	50620019 	beql	v1,v0,0x111bc
   11158:	3c130002 	lui	s3,0x2
   1115c:	10000019 	b	0x111c4
   11160:	3c020004 	lui	v0,0x4
   11164:	24020600 	li	v0,1536
   11168:	1062000d 	beq	v1,v0,0x111a0
   1116c:	28620601 	slti	v0,v1,1537
   11170:	10400005 	beqz	v0,0x11188
   11174:	24020500 	li	v0,1280
   11178:	5062000b 	beql	v1,v0,0x111a8
   1117c:	3c130002 	lui	s3,0x2
   11180:	10000010 	b	0x111c4
   11184:	3c020004 	lui	v0,0x4
   11188:	24020700 	li	v0,1792
   1118c:	1462000d 	bne	v1,v0,0x111c4
   11190:	3c020004 	lui	v0,0x4
   11194:	3c130004 	lui	s3,0x4
   11198:	1000000a 	b	0x111c4
   1119c:	3c150008 	lui	s5,0x8
   111a0:	10000006 	b	0x111bc
   111a4:	3c130004 	lui	s3,0x4
   111a8:	10000005 	b	0x111c0
   111ac:	3c150008 	lui	s5,0x8
   111b0:	3c130001 	lui	s3,0x1
   111b4:	10000002 	b	0x111c0
   111b8:	3c150008 	lui	s5,0x8
   111bc:	3c150010 	lui	s5,0x10
   111c0:	3c020004 	lui	v0,0x4
   111c4:	12620017 	beq	s3,v0,0x11224
   111c8:	3c028000 	lui	v0,0x8000
   111cc:	8f820054 	lw	v0,84(gp)
   111d0:	24100001 	li	s0,1
   111d4:	3c010001 	lui	at,0x1
   111d8:	ac306d9c 	sw	s0,28060(at)
   111dc:	3c010001 	lui	at,0x1
   111e0:	ac306d98 	sw	s0,28056(at)
   111e4:	3c010001 	lui	at,0x1
   111e8:	ac306da4 	sw	s0,28068(at)
   111ec:	3c010001 	lui	at,0x1
   111f0:	ac306e24 	sw	s0,28196(at)
   111f4:	3c010001 	lui	at,0x1
   111f8:	ac226f30 	sw	v0,28464(at)
   111fc:	3c020001 	lui	v0,0x1
   11200:	16620022 	bne	s3,v0,0x1128c
   11204:	02758825 	or	s1,s3,s5
   11208:	00002021 	move	a0,zero
   1120c:	00002821 	move	a1,zero
   11210:	0c004ddb 	jal	0x1376c
   11214:	34068000 	li	a2,0x8000
   11218:	3c010001 	lui	at,0x1
   1121c:	1000001b 	b	0x1128c
   11220:	ac306e20 	sw	s0,28192(at)
   11224:	02221025 	or	v0,s1,v0
   11228:	02b31825 	or	v1,s5,s3
   1122c:	00438825 	or	s1,v0,v1
   11230:	97a6001c 	lhu	a2,28(sp)
   11234:	3c020001 	lui	v0,0x1
   11238:	8c426f1c 	lw	v0,28444(v0)
   1123c:	3c070001 	lui	a3,0x1
   11240:	8ce76d98 	lw	a3,28056(a3)
   11244:	3c040001 	lui	a0,0x1
   11248:	24846c5c 	addiu	a0,a0,27740
   1124c:	afa20010 	sw	v0,16(sp)
   11250:	97a2001e 	lhu	v0,30(sp)
   11254:	3c05000c 	lui	a1,0xc
   11258:	34a50323 	ori	a1,a1,0x323
   1125c:	3c010001 	lui	at,0x1
   11260:	ac206e20 	sw	zero,28192(at)
   11264:	0c002b3b 	jal	0xacec
   11268:	afa20014 	sw	v0,20(sp)
   1126c:	10000007 	b	0x1128c
   11270:	00000000 	nop
   11274:	3c110002 	lui	s1,0x2
   11278:	023e8821 	addu	s1,s1,s8
   1127c:	8e318ff0 	lw	s1,-28688(s1)
   11280:	3c027fff 	lui	v0,0x7fff
   11284:	3442ffff 	ori	v0,v0,0xffff
   11288:	02228824 	and	s1,s1,v0
   1128c:	3c020001 	lui	v0,0x1
   11290:	8c426da8 	lw	v0,28072(v0)
   11294:	10400069 	beqz	v0,0x1143c
   11298:	00000000 	nop
   1129c:	3c020001 	lui	v0,0x1
   112a0:	8c426f1c 	lw	v0,28444(v0)
   112a4:	10400002 	beqz	v0,0x112b0
   112a8:	3c022000 	lui	v0,0x2000
   112ac:	02228825 	or	s1,s1,v0
   112b0:	8fa8002c 	lw	t0,44(sp)
   112b4:	00081140 	sll	v0,t0,0x5
   112b8:	3c010002 	lui	at,0x2
   112bc:	00220821 	addu	at,at,v0
   112c0:	8c229004 	lw	v0,-28668(at)
   112c4:	10400003 	beqz	v0,0x112d4
   112c8:	3c020020 	lui	v0,0x20
   112cc:	10000005 	b	0x112e4
   112d0:	02228825 	or	s1,s1,v0
   112d4:	3c02ffdf 	lui	v0,0xffdf
   112d8:	3442ffff 	ori	v0,v0,0xffff
   112dc:	02228824 	and	s1,s1,v0
   112e0:	8fa8002c 	lw	t0,44(sp)
   112e4:	00081140 	sll	v0,t0,0x5
   112e8:	3c010002 	lui	at,0x2
   112ec:	00220821 	addu	at,at,v0
   112f0:	8c22900c 	lw	v0,-28660(at)
   112f4:	10400003 	beqz	v0,0x11304
   112f8:	3c020080 	lui	v0,0x80
   112fc:	1000004f 	b	0x1143c
   11300:	02228825 	or	s1,s1,v0
   11304:	3c02ff7f 	lui	v0,0xff7f
   11308:	3442ffff 	ori	v0,v0,0xffff
   1130c:	1000004b 	b	0x1143c
   11310:	02228824 	and	s1,s1,v0
   11314:	8fa8002c 	lw	t0,44(sp)
   11318:	00082940 	sll	a1,t0,0x5
   1131c:	3c030002 	lui	v1,0x2
   11320:	00651821 	addu	v1,v1,a1
   11324:	8c638ff8 	lw	v1,-28680(v1)
   11328:	3c024000 	lui	v0,0x4000
   1132c:	00621024 	and	v0,v1,v0
   11330:	14400008 	bnez	v0,0x11354
   11334:	3c027fff 	lui	v0,0x7fff
   11338:	3442ffff 	ori	v0,v0,0xffff
   1133c:	00628824 	and	s1,v1,v0
   11340:	3c010002 	lui	at,0x2
   11344:	00250821 	addu	at,at,a1
   11348:	ac318ff0 	sw	s1,-28688(at)
   1134c:	10000041 	b	0x11454
   11350:	02201021 	move	v0,s1
   11354:	3c020001 	lui	v0,0x1
   11358:	8c426da8 	lw	v0,28072(v0)
   1135c:	10400034 	beqz	v0,0x11430
   11360:	3c11c00c 	lui	s1,0xc00c
   11364:	3c020001 	lui	v0,0x1
   11368:	8c426e44 	lw	v0,28228(v0)
   1136c:	3c04c00c 	lui	a0,0xc00c
   11370:	34842000 	ori	a0,a0,0x2000
   11374:	3c030001 	lui	v1,0x1
   11378:	8c636f1c 	lw	v1,28444(v1)
   1137c:	0002102b 	sltu	v0,zero,v0
   11380:	00021023 	negu	v0,v0
   11384:	00441024 	and	v0,v0,a0
   11388:	10600003 	beqz	v1,0x11398
   1138c:	00518825 	or	s1,v0,s1
   11390:	3c022000 	lui	v0,0x2000
   11394:	02228825 	or	s1,s1,v0
   11398:	3c020002 	lui	v0,0x2
   1139c:	00451021 	addu	v0,v0,a1
   113a0:	8c429004 	lw	v0,-28668(v0)
   113a4:	10400003 	beqz	v0,0x113b4
   113a8:	3c020020 	lui	v0,0x20
   113ac:	10000004 	b	0x113c0
   113b0:	02228825 	or	s1,s1,v0
   113b4:	3c02ffdf 	lui	v0,0xffdf
   113b8:	3442ffff 	ori	v0,v0,0xffff
   113bc:	02228824 	and	s1,s1,v0
   113c0:	8fa8002c 	lw	t0,44(sp)
   113c4:	00081140 	sll	v0,t0,0x5
   113c8:	3c010002 	lui	at,0x2
   113cc:	00220821 	addu	at,at,v0
   113d0:	8c22900c 	lw	v0,-28660(at)
   113d4:	10400003 	beqz	v0,0x113e4
   113d8:	3c020080 	lui	v0,0x80
   113dc:	10000004 	b	0x113f0
   113e0:	02228825 	or	s1,s1,v0
   113e4:	3c02ff7f 	lui	v0,0xff7f
   113e8:	3442ffff 	ori	v0,v0,0xffff
   113ec:	02228824 	and	s1,s1,v0
   113f0:	3c020001 	lui	v0,0x1
   113f4:	8c426e30 	lw	v0,28208(v0)
   113f8:	10400002 	beqz	v0,0x11404
   113fc:	3c020800 	lui	v0,0x800
   11400:	02228825 	or	s1,s1,v0
   11404:	3c020001 	lui	v0,0x1
   11408:	8c426e34 	lw	v0,28212(v0)
   1140c:	10400002 	beqz	v0,0x11418
   11410:	3c020400 	lui	v0,0x400
   11414:	02228825 	or	s1,s1,v0
   11418:	3c020001 	lui	v0,0x1
   1141c:	8c426e38 	lw	v0,28216(v0)
   11420:	10400006 	beqz	v0,0x1143c
   11424:	3c020100 	lui	v0,0x100
   11428:	10000004 	b	0x1143c
   1142c:	02228825 	or	s1,s1,v0
   11430:	3c027fff 	lui	v0,0x7fff
   11434:	3442ffff 	ori	v0,v0,0xffff
   11438:	00628824 	and	s1,v1,v0
   1143c:	8fa8002c 	lw	t0,44(sp)
   11440:	00081140 	sll	v0,t0,0x5
   11444:	3c010002 	lui	at,0x2
   11448:	00220821 	addu	at,at,v0
   1144c:	ac318ff0 	sw	s1,-28688(at)
   11450:	02201021 	move	v0,s1
   11454:	8fbf0048 	lw	ra,72(sp)
   11458:	8fbe0044 	lw	s8,68(sp)
   1145c:	8fb50040 	lw	s5,64(sp)
   11460:	8fb3003c 	lw	s3,60(sp)
   11464:	8fb20038 	lw	s2,56(sp)
   11468:	8fb10034 	lw	s1,52(sp)
   1146c:	8fb00030 	lw	s0,48(sp)
   11470:	03e00008 	jr	ra
   11474:	27bd0050 	addiu	sp,sp,80
   11478:	27bdffd0 	addiu	sp,sp,-48
   1147c:	afb20028 	sw	s2,40(sp)
   11480:	00809021 	move	s2,a0
   11484:	afbf002c 	sw	ra,44(sp)
   11488:	afb10024 	sw	s1,36(sp)
   1148c:	afb00020 	sw	s0,32(sp)
   11490:	8f840200 	lw	a0,512(gp)
   11494:	3c100001 	lui	s0,0x1
   11498:	8e106d98 	lw	s0,28056(s0)
   1149c:	8f860220 	lw	a2,544(gp)
   114a0:	24020002 	li	v0,2
   114a4:	1202005c 	beq	s0,v0,0x11618
   114a8:	2e020003 	sltiu	v0,s0,3
   114ac:	10400005 	beqz	v0,0x114c4
   114b0:	24020001 	li	v0,1
   114b4:	1202000a 	beq	s0,v0,0x114e0
   114b8:	00121940 	sll	v1,s2,0x5
   114bc:	1000010c 	b	0x118f0
   114c0:	00000000 	nop
   114c4:	24020004 	li	v0,4
   114c8:	120200bf 	beq	s0,v0,0x117c8
   114cc:	24020008 	li	v0,8
   114d0:	120200be 	beq	s0,v0,0x117cc
   114d4:	00128940 	sll	s1,s2,0x5
   114d8:	10000105 	b	0x118f0
   114dc:	00000000 	nop
   114e0:	3c050002 	lui	a1,0x2
   114e4:	00a32821 	addu	a1,a1,v1
   114e8:	8ca58ffc 	lw	a1,-28676(a1)
   114ec:	3c100002 	lui	s0,0x2
   114f0:	02038021 	addu	s0,s0,v1
   114f4:	8e108ff4 	lw	s0,-28684(s0)
   114f8:	3c024000 	lui	v0,0x4000
   114fc:	00a21024 	and	v0,a1,v0
   11500:	10400038 	beqz	v0,0x115e4
   11504:	3c020008 	lui	v0,0x8
   11508:	02021024 	and	v0,s0,v0
   1150c:	10400020 	beqz	v0,0x11590
   11510:	34840002 	ori	a0,a0,0x2
   11514:	3c020002 	lui	v0,0x2
   11518:	00431021 	addu	v0,v0,v1
   1151c:	8c429000 	lw	v0,-28672(v0)
   11520:	10400005 	beqz	v0,0x11538
   11524:	34840020 	ori	a0,a0,0x20
   11528:	34840100 	ori	a0,a0,0x100
   1152c:	3c020020 	lui	v0,0x20
   11530:	10000006 	b	0x1154c
   11534:	02028025 	or	s0,s0,v0
   11538:	2402feff 	li	v0,-257
   1153c:	00822024 	and	a0,a0,v0
   11540:	3c02ffdf 	lui	v0,0xffdf
   11544:	3442ffff 	ori	v0,v0,0xffff
   11548:	02028024 	and	s0,s0,v0
   1154c:	00121140 	sll	v0,s2,0x5
   11550:	3c010002 	lui	at,0x2
   11554:	00220821 	addu	at,at,v0
   11558:	8c229008 	lw	v0,-28664(at)
   1155c:	10400005 	beqz	v0,0x11574
   11560:	3c020001 	lui	v0,0x1
   11564:	00c23025 	or	a2,a2,v0
   11568:	3c020080 	lui	v0,0x80
   1156c:	10000016 	b	0x115c8
   11570:	02028025 	or	s0,s0,v0
   11574:	3c02fffe 	lui	v0,0xfffe
   11578:	3442ffff 	ori	v0,v0,0xffff
   1157c:	00c23024 	and	a2,a2,v0
   11580:	3c02ff7f 	lui	v0,0xff7f
   11584:	3442ffff 	ori	v0,v0,0xffff
   11588:	1000000f 	b	0x115c8
   1158c:	02028024 	and	s0,s0,v0
   11590:	2402fedf 	li	v0,-289
   11594:	00822024 	and	a0,a0,v0
   11598:	3c02fffe 	lui	v0,0xfffe
   1159c:	3442ffff 	ori	v0,v0,0xffff
   115a0:	00c23024 	and	a2,a2,v0
   115a4:	3c02ff5f 	lui	v0,0xff5f
   115a8:	3442ffff 	ori	v0,v0,0xffff
   115ac:	02028024 	and	s0,s0,v0
   115b0:	3c010002 	lui	at,0x2
   115b4:	00230821 	addu	at,at,v1
   115b8:	ac209000 	sw	zero,-28672(at)
   115bc:	3c010002 	lui	at,0x2
   115c0:	00230821 	addu	at,at,v1
   115c4:	ac209008 	sw	zero,-28664(at)
   115c8:	af840200 	sw	a0,512(gp)
   115cc:	af860220 	sw	a2,544(gp)
   115d0:	8f820220 	lw	v0,544(gp)
   115d4:	34420002 	ori	v0,v0,0x2
   115d8:	af820220 	sw	v0,544(gp)
   115dc:	1000000a 	b	0x11608
   115e0:	00121140 	sll	v0,s2,0x5
   115e4:	3c02bfff 	lui	v0,0xbfff
   115e8:	3442ffff 	ori	v0,v0,0xffff
   115ec:	8f830200 	lw	v1,512(gp)
   115f0:	02028024 	and	s0,s0,v0
   115f4:	2402fffd 	li	v0,-3
   115f8:	00621824 	and	v1,v1,v0
   115fc:	0c003daf 	jal	0xf6bc
   11600:	af830200 	sw	v1,512(gp)
   11604:	00121140 	sll	v0,s2,0x5
   11608:	3c010002 	lui	at,0x2
   1160c:	00220821 	addu	at,at,v0
   11610:	100000b7 	b	0x118f0
   11614:	ac308ff4 	sw	s0,-28684(at)
   11618:	3c020001 	lui	v0,0x1
   1161c:	8c426f1c 	lw	v0,28444(v0)
   11620:	10400069 	beqz	v0,0x117c8
   11624:	24050004 	li	a1,4
   11628:	24040001 	li	a0,1
   1162c:	0c00457c 	jal	0x115f0
   11630:	27a60018 	addiu	a2,sp,24
   11634:	24040001 	li	a0,1
   11638:	24050005 	li	a1,5
   1163c:	0c00457c 	jal	0x115f0
   11640:	27a6001a 	addiu	a2,sp,26
   11644:	97a30018 	lhu	v1,24(sp)
   11648:	97a2001a 	lhu	v0,26(sp)
   1164c:	3c040001 	lui	a0,0x1
   11650:	24846e48 	addiu	a0,a0,28232
   11654:	30630c00 	andi	v1,v1,0xc00
   11658:	00031a82 	srl	v1,v1,0xa
   1165c:	30420c00 	andi	v0,v0,0xc00
   11660:	00021282 	srl	v0,v0,0xa
   11664:	a7a2001a 	sh	v0,26(sp)
   11668:	00021080 	sll	v0,v0,0x2
   1166c:	00441021 	addu	v0,v0,a0
   11670:	00431021 	addu	v0,v0,v1
   11674:	a7a30018 	sh	v1,24(sp)
   11678:	90480000 	lbu	t0,0(v0)
   1167c:	24020001 	li	v0,1
   11680:	3103ffff 	andi	v1,t0,0xffff
   11684:	10620029 	beq	v1,v0,0x1172c
   11688:	28620002 	slti	v0,v1,2
   1168c:	10400005 	beqz	v0,0x116a4
   11690:	00000000 	nop
   11694:	10600009 	beqz	v1,0x116bc
   11698:	00000000 	nop
   1169c:	1000003d 	b	0x11794
   116a0:	00000000 	nop
   116a4:	10700013 	beq	v1,s0,0x116f4
   116a8:	24020003 	li	v0,3
   116ac:	1062002c 	beq	v1,v0,0x11760
   116b0:	00000000 	nop
   116b4:	10000037 	b	0x11794
   116b8:	00000000 	nop
   116bc:	8f820200 	lw	v0,512(gp)
   116c0:	2403feff 	li	v1,-257
   116c4:	00431024 	and	v0,v0,v1
   116c8:	af820200 	sw	v0,512(gp)
   116cc:	8f820220 	lw	v0,544(gp)
   116d0:	3c03fffe 	lui	v1,0xfffe
   116d4:	3463ffff 	ori	v1,v1,0xffff
   116d8:	00431024 	and	v0,v0,v1
   116dc:	af820220 	sw	v0,544(gp)
   116e0:	3c010002 	lui	at,0x2
   116e4:	ac209004 	sw	zero,-28668(at)
   116e8:	3c010002 	lui	at,0x2
   116ec:	10000032 	b	0x117b8
   116f0:	ac20900c 	sw	zero,-28660(at)
   116f4:	8f820200 	lw	v0,512(gp)
   116f8:	34420100 	ori	v0,v0,0x100
   116fc:	af820200 	sw	v0,512(gp)
   11700:	8f820220 	lw	v0,544(gp)
   11704:	3c03fffe 	lui	v1,0xfffe
   11708:	3463ffff 	ori	v1,v1,0xffff
   1170c:	00431024 	and	v0,v0,v1
   11710:	af820220 	sw	v0,544(gp)
   11714:	24020100 	li	v0,256
   11718:	3c010002 	lui	at,0x2
   1171c:	ac229004 	sw	v0,-28668(at)
   11720:	3c010002 	lui	at,0x2
   11724:	10000024 	b	0x117b8
   11728:	ac20900c 	sw	zero,-28660(at)
   1172c:	8f820200 	lw	v0,512(gp)
   11730:	2403feff 	li	v1,-257
   11734:	00431024 	and	v0,v0,v1
   11738:	af820200 	sw	v0,512(gp)
   1173c:	8f820220 	lw	v0,544(gp)
   11740:	3c030001 	lui	v1,0x1
   11744:	00431025 	or	v0,v0,v1
   11748:	af820220 	sw	v0,544(gp)
   1174c:	3c010002 	lui	at,0x2
   11750:	ac209004 	sw	zero,-28668(at)
   11754:	3c010002 	lui	at,0x2
   11758:	10000017 	b	0x117b8
   1175c:	ac23900c 	sw	v1,-28660(at)
   11760:	8f820200 	lw	v0,512(gp)
   11764:	34420100 	ori	v0,v0,0x100
   11768:	af820200 	sw	v0,512(gp)
   1176c:	8f820220 	lw	v0,544(gp)
   11770:	3c030001 	lui	v1,0x1
   11774:	00431025 	or	v0,v0,v1
   11778:	af820220 	sw	v0,544(gp)
   1177c:	24020100 	li	v0,256
   11780:	3c010002 	lui	at,0x2
   11784:	ac229004 	sw	v0,-28668(at)
   11788:	3c010002 	lui	at,0x2
   1178c:	1000000a 	b	0x117b8
   11790:	ac23900c 	sw	v1,-28660(at)
   11794:	3c040001 	lui	a0,0x1
   11798:	24846c80 	addiu	a0,a0,27776
   1179c:	97a6001a 	lhu	a2,26(sp)
   117a0:	97a70018 	lhu	a3,24(sp)
   117a4:	3c050001 	lui	a1,0x1
   117a8:	34a5ffff 	ori	a1,a1,0xffff
   117ac:	afa80010 	sw	t0,16(sp)
   117b0:	0c002b3b 	jal	0xacec
   117b4:	afa00014 	sw	zero,20(sp)
   117b8:	8f820200 	lw	v0,512(gp)
   117bc:	34420002 	ori	v0,v0,0x2
   117c0:	1000004b 	b	0x118f0
   117c4:	af820200 	sw	v0,512(gp)
   117c8:	00128940 	sll	s1,s2,0x5
   117cc:	3c050002 	lui	a1,0x2
   117d0:	00b12821 	addu	a1,a1,s1
   117d4:	8ca58ff8 	lw	a1,-28680(a1)
   117d8:	3c100002 	lui	s0,0x2
   117dc:	02118021 	addu	s0,s0,s1
   117e0:	8e108ff0 	lw	s0,-28688(s0)
   117e4:	3c024000 	lui	v0,0x4000
   117e8:	00a21024 	and	v0,a1,v0
   117ec:	14400010 	bnez	v0,0x11830
   117f0:	00000000 	nop
   117f4:	3c020001 	lui	v0,0x1
   117f8:	8c426f1c 	lw	v0,28444(v0)
   117fc:	14400005 	bnez	v0,0x11814
   11800:	3c02bfff 	lui	v0,0xbfff
   11804:	8f820200 	lw	v0,512(gp)
   11808:	34420002 	ori	v0,v0,0x2
   1180c:	af820200 	sw	v0,512(gp)
   11810:	3c02bfff 	lui	v0,0xbfff
   11814:	3442ffff 	ori	v0,v0,0xffff
   11818:	0c003daf 	jal	0xf6bc
   1181c:	02028024 	and	s0,s0,v0
   11820:	3c010002 	lui	at,0x2
   11824:	00310821 	addu	at,at,s1
   11828:	10000031 	b	0x118f0
   1182c:	ac308ff0 	sw	s0,-28688(at)
   11830:	3c020001 	lui	v0,0x1
   11834:	8c426f1c 	lw	v0,28444(v0)
   11838:	10400005 	beqz	v0,0x11850
   1183c:	3c020020 	lui	v0,0x20
   11840:	3c020001 	lui	v0,0x1
   11844:	8c426e44 	lw	v0,28228(v0)
   11848:	10400025 	beqz	v0,0x118e0
   1184c:	3c020020 	lui	v0,0x20
   11850:	00a21024 	and	v0,a1,v0
   11854:	10400007 	beqz	v0,0x11874
   11858:	34840020 	ori	a0,a0,0x20
   1185c:	24020100 	li	v0,256
   11860:	3c010002 	lui	at,0x2
   11864:	00310821 	addu	at,at,s1
   11868:	ac229004 	sw	v0,-28668(at)
   1186c:	10000006 	b	0x11888
   11870:	34840100 	ori	a0,a0,0x100
   11874:	3c010002 	lui	at,0x2
   11878:	00310821 	addu	at,at,s1
   1187c:	ac209004 	sw	zero,-28668(at)
   11880:	2402feff 	li	v0,-257
   11884:	00822024 	and	a0,a0,v0
   11888:	3c020080 	lui	v0,0x80
   1188c:	00a21024 	and	v0,a1,v0
   11890:	10400007 	beqz	v0,0x118b0
   11894:	00121940 	sll	v1,s2,0x5
   11898:	3c020001 	lui	v0,0x1
   1189c:	3c010002 	lui	at,0x2
   118a0:	00230821 	addu	at,at,v1
   118a4:	ac22900c 	sw	v0,-28660(at)
   118a8:	10000008 	b	0x118cc
   118ac:	00c23025 	or	a2,a2,v0
   118b0:	00121140 	sll	v0,s2,0x5
   118b4:	3c010002 	lui	at,0x2
   118b8:	00220821 	addu	at,at,v0
   118bc:	ac20900c 	sw	zero,-28660(at)
   118c0:	3c02fffe 	lui	v0,0xfffe
   118c4:	3442ffff 	ori	v0,v0,0xffff
   118c8:	00c23024 	and	a2,a2,v0
   118cc:	af840200 	sw	a0,512(gp)
   118d0:	af860220 	sw	a2,544(gp)
   118d4:	8f820220 	lw	v0,544(gp)
   118d8:	34420002 	ori	v0,v0,0x2
   118dc:	af820220 	sw	v0,544(gp)
   118e0:	00121140 	sll	v0,s2,0x5
   118e4:	3c010002 	lui	at,0x2
   118e8:	00220821 	addu	at,at,v0
   118ec:	ac308ff0 	sw	s0,-28688(at)
   118f0:	8fbf002c 	lw	ra,44(sp)
   118f4:	8fb20028 	lw	s2,40(sp)
   118f8:	8fb10024 	lw	s1,36(sp)
   118fc:	8fb00020 	lw	s0,32(sp)
   11900:	03e00008 	jr	ra
   11904:	27bd0030 	addiu	sp,sp,48
   11908:	00000000 	nop
   1190c:	00001821 	move	v1,zero
   11910:	308400ff 	andi	a0,a0,0xff
   11914:	2405ffdf 	li	a1,-33
   11918:	2406ffbf 	li	a2,-65
   1191c:	00641007 	srav	v0,a0,v1
   11920:	30420001 	andi	v0,v0,0x1
   11924:	10400004 	beqz	v0,0x11938
   11928:	00000000 	nop
   1192c:	8f820044 	lw	v0,68(gp)
   11930:	10000003 	b	0x11940
   11934:	34420040 	ori	v0,v0,0x40
   11938:	8f820044 	lw	v0,68(gp)
   1193c:	00461024 	and	v0,v0,a2
   11940:	af820044 	sw	v0,68(gp)
   11944:	8f820044 	lw	v0,68(gp)
   11948:	34420020 	ori	v0,v0,0x20
   1194c:	af820044 	sw	v0,68(gp)
   11950:	8f820044 	lw	v0,68(gp)
   11954:	00451024 	and	v0,v0,a1
   11958:	af820044 	sw	v0,68(gp)
   1195c:	24630001 	addiu	v1,v1,1
   11960:	28620008 	slti	v0,v1,8
   11964:	5440ffee 	bnezl	v0,0x11920
   11968:	00641007 	srav	v0,a0,v1
   1196c:	03e00008 	jr	ra
   11970:	00000000 	nop
   11974:	2c820008 	sltiu	v0,a0,8
   11978:	1040001b 	beqz	v0,0x119e8
   1197c:	00000000 	nop
   11980:	2405ffdf 	li	a1,-33
   11984:	2406ffbf 	li	a2,-65
   11988:	00041880 	sll	v1,a0,0x2
   1198c:	3c020001 	lui	v0,0x1
   11990:	24426e60 	addiu	v0,v0,28256
   11994:	00621821 	addu	v1,v1,v0
   11998:	24640004 	addiu	a0,v1,4
   1199c:	90620000 	lbu	v0,0(v1)
   119a0:	10400004 	beqz	v0,0x119b4
   119a4:	00000000 	nop
   119a8:	8f820044 	lw	v0,68(gp)
   119ac:	10000003 	b	0x119bc
   119b0:	34420040 	ori	v0,v0,0x40
   119b4:	8f820044 	lw	v0,68(gp)
   119b8:	00461024 	and	v0,v0,a2
   119bc:	af820044 	sw	v0,68(gp)
   119c0:	8f820044 	lw	v0,68(gp)
   119c4:	34420020 	ori	v0,v0,0x20
   119c8:	af820044 	sw	v0,68(gp)
   119cc:	8f820044 	lw	v0,68(gp)
   119d0:	00451024 	and	v0,v0,a1
   119d4:	af820044 	sw	v0,68(gp)
   119d8:	24630001 	addiu	v1,v1,1
   119dc:	0064102b 	sltu	v0,v1,a0
   119e0:	1440ffee 	bnez	v0,0x1199c
   119e4:	00000000 	nop
   119e8:	03e00008 	jr	ra
   119ec:	00000000 	nop
	...
   119fc:	8f8400c4 	lw	a0,196(gp)
   11a00:	8f8600e0 	lw	a2,224(gp)
   11a04:	8f8700e4 	lw	a3,228(gp)
   11a08:	2402fff8 	li	v0,-8
   11a0c:	00c22824 	and	a1,a2,v0
   11a10:	10e5001a 	beq	a3,a1,0x11a7c
   11a14:	27623ff8 	addiu	v0,k1,16376
   11a18:	14e20002 	bne	a3,v0,0x11a24
   11a1c:	24e80008 	addiu	t0,a3,8
   11a20:	27683000 	addiu	t0,k1,12288
   11a24:	55050004 	bnel	t0,a1,0x11a38
   11a28:	8d0a0000 	lw	t2,0(t0)
   11a2c:	30c20004 	andi	v0,a2,0x4
   11a30:	14400012 	bnez	v0,0x11a7c
   11a34:	00805021 	move	t2,a0
   11a38:	8ce90000 	lw	t1,0(a3)
   11a3c:	8f42013c 	lw	v0,316(k0)
   11a40:	01494823 	subu	t1,t2,t1
   11a44:	0049182b 	sltu	v1,v0,t1
   11a48:	94eb0006 	lhu	t3,6(a3)
   11a4c:	10600002 	beqz	v1,0x11a58
   11a50:	25630050 	addiu	v1,t3,80
   11a54:	00494821 	addu	t1,v0,t1
   11a58:	0123182b 	sltu	v1,t1,v1
   11a5c:	50400003 	beqzl	v0,0x11a6c
   11a60:	8f4201fc 	lw	v0,508(k0)
   11a64:	03e00008 	jr	ra
   11a68:	00e01021 	move	v0,a3
   11a6c:	af8800e8 	sw	t0,232(gp)
   11a70:	24420001 	addiu	v0,v0,1
   11a74:	af4201fc 	sw	v0,508(k0)
   11a78:	af8800e4 	sw	t0,228(gp)
   11a7c:	03e00008 	jr	ra
   11a80:	00001021 	move	v0,zero
   11a84:	03e00008 	jr	ra
   11a88:	00000000 	nop
   11a8c:	8f8300e4 	lw	v1,228(gp)
   11a90:	27623ff8 	addiu	v0,k1,16376
   11a94:	10620004 	beq	v1,v0,0x11aa8
   11a98:	24620008 	addiu	v0,v1,8
   11a9c:	af8200e8 	sw	v0,232(gp)
   11aa0:	03e00008 	jr	ra
   11aa4:	af8200e4 	sw	v0,228(gp)
   11aa8:	27623000 	addiu	v0,k1,12288
   11aac:	af8200e8 	sw	v0,232(gp)
   11ab0:	03e00008 	jr	ra
   11ab4:	af8200e4 	sw	v0,228(gp)
   11ab8:	03e00008 	jr	ra
   11abc:	00000000 	nop
	...
   11acc:	8f880120 	lw	t0,288(gp)
   11ad0:	27624fe0 	addiu	v0,k1,20448
   11ad4:	8f830128 	lw	v1,296(gp)
   11ad8:	15020002 	bne	t0,v0,0x11ae4
   11adc:	25090020 	addiu	t1,t0,32
   11ae0:	27694800 	addiu	t1,k1,18432
   11ae4:	11230012 	beq	t1,v1,0x11b30
   11ae8:	8fa20010 	lw	v0,16(sp)
   11aec:	ad040000 	sw	a0,0(t0)
   11af0:	ad050004 	sw	a1,4(t0)
   11af4:	ad060008 	sw	a2,8(t0)
   11af8:	a507000e 	sh	a3,14(t0)
   11afc:	8fa30014 	lw	v1,20(sp)
   11b00:	ad020018 	sw	v0,24(t0)
   11b04:	8fa20018 	lw	v0,24(sp)
   11b08:	ad03001c 	sw	v1,28(t0)
   11b0c:	25030016 	addiu	v1,t0,22
   11b10:	ad020010 	sw	v0,16(t0)
   11b14:	ad030014 	sw	v1,20(t0)
   11b18:	af890120 	sw	t1,288(gp)
   11b1c:	8f4300fc 	lw	v1,252(k0)
   11b20:	24020001 	li	v0,1
   11b24:	2463ffff 	addiu	v1,v1,-1
   11b28:	03e00008 	jr	ra
   11b2c:	af4300fc 	sw	v1,252(k0)
   11b30:	8f430324 	lw	v1,804(k0)
   11b34:	00001021 	move	v0,zero
   11b38:	24630001 	addiu	v1,v1,1
   11b3c:	03e00008 	jr	ra
   11b40:	af430324 	sw	v1,804(k0)
   11b44:	03e00008 	jr	ra
   11b48:	00000000 	nop
   11b4c:	8f880100 	lw	t0,256(gp)
   11b50:	276247e0 	addiu	v0,k1,18400
   11b54:	8f830108 	lw	v1,264(gp)
   11b58:	15020002 	bne	t0,v0,0x11b64
   11b5c:	25090020 	addiu	t1,t0,32
   11b60:	27694000 	addiu	t1,k1,16384
   11b64:	1123000f 	beq	t1,v1,0x11ba4
   11b68:	8fa20010 	lw	v0,16(sp)
   11b6c:	ad040000 	sw	a0,0(t0)
   11b70:	ad050004 	sw	a1,4(t0)
   11b74:	ad060008 	sw	a2,8(t0)
   11b78:	a507000e 	sh	a3,14(t0)
   11b7c:	8fa30014 	lw	v1,20(sp)
   11b80:	ad020018 	sw	v0,24(t0)
   11b84:	8fa20018 	lw	v0,24(sp)
   11b88:	ad03001c 	sw	v1,28(t0)
   11b8c:	25030016 	addiu	v1,t0,22
   11b90:	ad020010 	sw	v0,16(t0)
   11b94:	ad030014 	sw	v1,20(t0)
   11b98:	af890100 	sw	t1,256(gp)
   11b9c:	03e00008 	jr	ra
   11ba0:	24020001 	li	v0,1
   11ba4:	8f430328 	lw	v1,808(k0)
   11ba8:	00001021 	move	v0,zero
   11bac:	24630001 	addiu	v1,v1,1
   11bb0:	03e00008 	jr	ra
   11bb4:	af430328 	sw	v1,808(k0)
   11bb8:	03e00008 	jr	ra
   11bbc:	00000000 	nop
	...
   11bcc:	24486561 	addiu	t0,v0,25953
   11bd0:	6465723a 	daddiu	a1,v1,29242
   11bd4:	202f7072 	addi	t7,at,28786
   11bd8:	6f6a6563 	ldr	t2,25955(k1)
   11bdc:	74732f72 	jalx	0x1ccbdc9
   11be0:	63732f73 	daddi	s3,k1,12147
   11be4:	772f6765 	jalx	0xcbd9d95
   11be8:	2f2e2f6e 	sltiu	t6,t9,12142
   11bec:	69632f66 	ldl	v1,12134(t3)
   11bf0:	77322f63 	jalx	0xcc8bd8d
   11bf4:	6f6d6d6f 	ldr	t5,28015(k1)
   11bf8:	6e2f6677 	ldr	t7,26231(s1)
   11bfc:	6d61696e 	ldr	at,26990(t3)
   11c00:	2e632c76 	sltiu	v1,s3,11382
   11c04:	20312e31 	addi	s1,at,11825
   11c08:	2e322e34 	sltiu	s2,s1,11828
   11c0c:	35203139 	ori	zero,t1,0x3139
   11c10:	39392f30 	xori	t9,t1,0x2f30
   11c14:	312f3234 	andi	t7,t1,0x3234
   11c18:	2030303a 	addi	s0,at,12346
   11c1c:	31303a35 	andi	s0,t1,0x3a35
   11c20:	35207368 	ori	zero,t1,0x7368
   11c24:	75616e67 	jalx	0x585b99d
   11c28:	20457870 	addi	a1,v0,30832
   11c2c:	20240000 	addi	a0,at,0
   11c30:	65767452 	daddiu	s6,t3,29778
   11c34:	6e674600 	ldr	a3,17920(s3)
   11c38:	51657674 	beql	t3,a1,0x2f60c
   11c3c:	46000000 	add.s	$f0,$f0,$f0
   11c40:	51657674 	beql	t3,a1,0x2f614
   11c44:	505f4600 	beql	v0,ra,0x23448
   11c48:	4d657674 	.word	0x4d657674
   11c4c:	526e6746 	beql	s3,t6,0x2b968
   11c50:	00000000 	nop
   11c54:	4d516576 	.word	0x4d516576
   11c58:	74460000 	jalx	0x1180001
   11c5c:	4d516576 	.word	0x4d516576
   11c60:	505f4600 	beql	v0,ra,0x23464
   11c64:	5173436f 	beql	t3,s3,0x22a24
   11c68:	6e495f46 	ldr	t1,24390(s2)
   11c6c:	00000000 	nop
   11c70:	5173436f 	beql	t3,s3,0x22a30
   11c74:	6e734600 	ldr	s3,17920(s3)
   11c78:	51725072 	beql	t3,s2,0x25e44
   11c7c:	6f644600 	ldr	a0,17920(k1)
   11c80:	6261644d 	daddi	at,s3,25677
   11c84:	656d537a 	daddiu	t5,t3,21370
   11c88:	00000000 	nop
   11c8c:	68775665 	ldl	s7,22117(v1)
   11c90:	72000000 	.word	0x72000000
   11c94:	62616448 	daddi	at,s3,25672
   11c98:	77566572 	jalx	0xd5995c9
   11c9c:	00000000 	nop
   11ca0:	2a2a4441 	slti	t2,s1,17473
   11ca4:	574e5f41 	bnel	k0,t6,0x299ac
   11ca8:	00000000 	nop
   11cac:	74785278 	jalx	0x1e149e1
   11cb0:	4266537a 	c0	0x66537a
   11cb4:	00000000 	nop
   11cb8:	62664174 	daddi	a2,s3,16756
   11cbc:	6e4d726b 	ldr	t5,29291(s2)
   11cc0:	00000000 	nop
   11cc4:	7265645a 	.word	0x7265645a
   11cc8:	6f6e6531 	ldr	t6,25905(k1)
   11ccc:	00000000 	nop
   11cd0:	70636943 	.word	0x70636943
   11cd4:	6f6e6600 	ldr	t6,26112(k1)
   11cd8:	67656e43 	daddiu	a1,k1,28227
   11cdc:	6f6e6600 	ldr	t6,26112(k1)
   11ce0:	2a646d61 	slti	a0,s3,28001
   11ce4:	5244666c 	beql	s2,a0,0x2b698
   11ce8:	00000000 	nop
   11cec:	2a50414e 	slti	s0,s2,16718
   11cf0:	49432a00 	.word	0x49432a00
   11cf4:	2e2e2f2e 	sltiu	t6,s1,12078
   11cf8:	2e2f2e2e 	sltiu	t7,s1,11822
   11cfc:	2f2e2e2f 	sltiu	t6,t9,11823
   11d00:	2e2e2f73 	sltiu	t6,s1,12147
   11d04:	72632f6e 	.word	0x72632f6e
   11d08:	69632f66 	ldl	v1,12134(t3)
   11d0c:	77322f63 	jalx	0xcc8bd8d
   11d10:	6f6d6d6f 	ldr	t5,28015(k1)
   11d14:	6e2f6677 	ldr	t7,26231(s1)
   11d18:	6d61696e 	ldr	at,26990(t3)
   11d1c:	2e630000 	sltiu	v1,s3,0
   11d20:	72636246 	.word	0x72636246
   11d24:	6c616773 	ldr	at,26483(v1)
   11d28:	00000000 	nop
   11d2c:	62616452 	daddi	at,s3,25682
   11d30:	78526362 	.word	0x78526362
   11d34:	00000000 	nop
   11d38:	676c6f62 	daddiu	t4,k1,28514
   11d3c:	466c6773 	c1	0x6c6773
   11d40:	00000000 	nop
   11d44:	2b5f6469 	slti	ra,k0,25705
   11d48:	73705f6c 	.word	0x73705f6c
   11d4c:	6f6f7000 	ldr	t7,28672(k1)
   11d50:	2b65765f 	slti	a1,k1,30303
   11d54:	68616e64 	ldl	at,28260(v1)
   11d58:	6c657200 	ldr	a1,29184(v1)
   11d5c:	63616e74 	daddi	at,k1,28276
   11d60:	31446d61 	andi	a0,t2,0x6d61
   11d64:	00000000 	nop
   11d68:	2b715f64 	slti	s1,k1,24420
   11d6c:	6d615f74 	ldr	at,24436(t3)
   11d70:	6f5f6e69 	ldr	ra,28265(k0)
   11d74:	635f636b 	daddi	ra,k0,25451
   11d78:	73756d00 	.word	0x73756d00
   11d7c:	2b685f73 	slti	t0,k1,24435
   11d80:	656e645f 	daddiu	t6,t3,25695
   11d84:	64617461 	daddiu	at,v1,29793
   11d88:	5f726561 	.word	0x5f726561
   11d8c:	64795f63 	daddiu	t9,v1,24419
   11d90:	6b73756d 	ldl	s3,30061(k1)
   11d94:	00000000 	nop
   11d98:	2b685f64 	slti	t0,k1,24420
   11d9c:	6d615f72 	ldr	at,24434(t3)
   11da0:	645f6173 	daddiu	ra,v0,24947
   11da4:	73697374 	.word	0x73697374
   11da8:	5f636b73 	.word	0x5f636b73
   11dac:	756d0000 	jalx	0x5b40001
   11db0:	74436b73 	jalx	0x10dadcd
   11db4:	6d4f6e00 	ldr	t7,28160(t2)
   11db8:	2b715f64 	slti	s1,k1,24420
   11dbc:	6d615f74 	ldr	at,24436(t3)
   11dc0:	6f5f6e69 	ldr	ra,28265(k0)
   11dc4:	63000000 	daddi	zero,t8,0
   11dc8:	2b685f73 	slti	t0,k1,24435
   11dcc:	656e645f 	daddiu	t6,t3,25695
   11dd0:	64617461 	daddiu	at,v1,29793
   11dd4:	5f726561 	.word	0x5f726561
   11dd8:	64790000 	daddiu	t9,v1,0
   11ddc:	2b685f64 	slti	t0,k1,24420
   11de0:	6d615f72 	ldr	at,24434(t3)
   11de4:	645f6173 	daddiu	ra,v0,24947
   11de8:	73697374 	.word	0x73697374
   11dec:	00000000 	nop
   11df0:	74436b73 	jalx	0x10dadcd
   11df4:	6d4f6666 	ldr	t7,26214(t2)
   11df8:	00000000 	nop
   11dfc:	2b685f73 	slti	t0,k1,24435
   11e00:	656e645f 	daddiu	t6,t3,25695
   11e04:	62645f72 	daddi	a0,s3,24434
   11e08:	65616479 	daddiu	at,t3,25721
   11e0c:	00000000 	nop
   11e10:	68737453 	ldl	s3,29779(v1)
   11e14:	52696e67 	beql	s3,t1,0x2d7b4
   11e18:	00000000 	nop
   11e1c:	62616453 	daddi	at,s3,25683
   11e20:	52696e67 	beql	s3,t1,0x2d7c0
   11e24:	00000000 	nop
   11e28:	6e696353 	ldr	t1,25427(s3)
   11e2c:	52696e67 	beql	s3,t1,0x2d7cc
   11e30:	00000000 	nop
   11e34:	77446d61 	jalx	0xd11b585
   11e38:	416c6c41 	.word	0x416c6c41
   11e3c:	00000000 	nop
   11e40:	2b715f64 	slti	s1,k1,24420
   11e44:	6d615f74 	ldr	at,24436(t3)
   11e48:	6f5f686f 	ldr	ra,26735(k0)
   11e4c:	73745f63 	.word	0x73745f63
   11e50:	6b73756d 	ldl	s3,30061(k1)
   11e54:	00000000 	nop
   11e58:	2b685f6d 	slti	t0,k1,24429
   11e5c:	61635f72 	daddi	v1,t3,24434
   11e60:	785f636f 	.word	0x785f636f
   11e64:	6d705f63 	ldr	s0,24419(t3)
   11e68:	6b73756d 	ldl	s3,30061(k1)
   11e6c:	00000000 	nop
   11e70:	2b685f64 	slti	t0,k1,24420
   11e74:	6d615f77 	ldr	at,24439(t3)
   11e78:	725f6173 	.word	0x725f6173
   11e7c:	73697374 	.word	0x73697374
   11e80:	5f636b73 	.word	0x5f636b73
   11e84:	756d0000 	jalx	0x5b40001
   11e88:	72436b73 	.word	0x72436b73
   11e8c:	6d4f6e00 	ldr	t7,28160(t2)
   11e90:	2b715f64 	slti	s1,k1,24420
   11e94:	6d615f74 	ldr	at,24436(t3)
   11e98:	6f5f686f 	ldr	ra,26735(k0)
   11e9c:	73740000 	.word	0x73740000
   11ea0:	2b685f6d 	slti	t0,k1,24429
   11ea4:	61635f72 	daddi	v1,t3,24434
   11ea8:	785f636f 	.word	0x785f636f
   11eac:	6d700000 	ldr	s0,0(t3)
   11eb0:	2b685f64 	slti	t0,k1,24420
   11eb4:	6d615f77 	ldr	at,24439(t3)
   11eb8:	725f6173 	.word	0x725f6173
   11ebc:	73697374 	.word	0x73697374
   11ec0:	00000000 	nop
   11ec4:	72436b73 	.word	0x72436b73
   11ec8:	6d4f6666 	ldr	t7,26214(t2)
   11ecc:	00000000 	nop
   11ed0:	2b685f72 	slti	t0,k1,24434
   11ed4:	6563765f 	daddiu	v1,t3,30303
   11ed8:	62645f72 	daddi	a0,s3,24434
   11edc:	65616479 	daddiu	at,t3,25721
   11ee0:	00000000 	nop
   11ee4:	2b685f72 	slti	t0,k1,24434
   11ee8:	6563765f 	daddiu	v1,t3,30303
   11eec:	6a756d62 	ldl	s5,28002(s3)
   11ef0:	6f5f6264 	ldr	ra,25188(k0)
   11ef4:	5f726561 	.word	0x5f726561
   11ef8:	64790000 	daddiu	t9,v1,0
   11efc:	2b685f72 	slti	t0,k1,24434
   11f00:	6563765f 	daddiu	v1,t3,30303
   11f04:	6d696e69 	ldr	t1,28265(t3)
   11f08:	5f62645f 	.word	0x5f62645f
   11f0c:	72656164 	.word	0x72656164
   11f10:	79000000 	.word	0x79000000
   11f14:	2b6d685f 	slti	t5,k1,26719
   11f18:	636f6d6d 	daddi	t7,k1,28013
   11f1c:	616e6400 	daddi	t6,t3,25600
   11f20:	2b685f74 	slti	t0,k1,24436
   11f24:	696d6572 	ldl	t5,25970(t3)
   11f28:	00000000 	nop
   11f2c:	2b685f64 	slti	t0,k1,24420
   11f30:	6f5f7570 	ldr	ra,30064(k0)
   11f34:	64617465 	daddiu	at,v1,29797
   11f38:	5f74785f 	.word	0x5f74785f
   11f3c:	636f6e73 	daddi	t7,k1,28275
   11f40:	00000000 	nop
   11f44:	2b685f64 	slti	t0,k1,24420
   11f48:	6f5f7570 	ldr	ra,30064(k0)
   11f4c:	64617465 	daddiu	at,v1,29797
   11f50:	5f72785f 	.word	0x5f72785f
   11f54:	70726f64 	.word	0x70726f64
   11f58:	00000000 	nop
   11f5c:	2b636b73 	slti	v1,k1,27507
   11f60:	756d3136 	jalx	0x5b4c4d9
   11f64:	00000000 	nop
   11f68:	2b706565 	slti	s0,k1,25957
   11f6c:	6b5f6d61 	ldl	ra,28001(k0)
   11f70:	635f7278 	daddi	ra,k0,29304
   11f74:	5f776100 	.word	0x5f776100
   11f78:	2b706565 	slti	s0,k1,25957
   11f7c:	6b5f6d61 	ldl	ra,28001(k0)
   11f80:	635f7278 	daddi	ra,k0,29304
   11f84:	00000000 	nop
   11f88:	2b646571 	slti	a0,k1,25969
   11f8c:	5f6d6163 	.word	0x5f6d6163
   11f90:	5f727800 	.word	0x5f727800
   11f94:	2b685f6d 	slti	t0,k1,24429
   11f98:	61635f72 	daddi	v1,t3,24434
   11f9c:	785f6174 	.word	0x785f6174
   11fa0:	746e0000 	jalx	0x1b80001
   11fa4:	62616452 	daddi	at,s3,25682
   11fa8:	6574537a 	daddiu	s4,t3,21370
   11fac:	00000000 	nop
   11fb0:	72784264 	.word	0x72784264
   11fb4:	4266537a 	c0	0x66537a
   11fb8:	00000000 	nop
   11fbc:	2b6e756c 	slti	t6,k1,30060
   11fc0:	6c5f6861 	ldr	ra,26721(v0)
   11fc4:	6e646c65 	ldr	a0,27749(s3)
   11fc8:	72000000 	.word	0x72000000
   11fcc:	66774f70 	daddiu	s7,s3,20336
   11fd0:	4661696c 	c1	0x61696c
   11fd4:	00000000 	nop
   11fd8:	2b685f75 	slti	t0,k1,24437
   11fdc:	70646174 	.word	0x70646174
   11fe0:	655f6c65 	daddiu	ra,t2,27749
   11fe4:	64340000 	daddiu	s4,at,0
   11fe8:	2b685f75 	slti	t0,k1,24437
   11fec:	70646174 	.word	0x70646174
   11ff0:	655f6c65 	daddiu	ra,t2,27749
   11ff4:	64360000 	daddiu	s6,at,0
   11ff8:	2b685f75 	slti	t0,k1,24437
   11ffc:	70646174 	.word	0x70646174
   12000:	655f6c65 	daddiu	ra,t2,27749
   12004:	64320000 	daddiu	s2,at,0
   12008:	696e7453 	ldl	t6,29779(t3)
   1200c:	74617465 	jalx	0x185d195
   12010:	00000000 	nop
   12014:	2a2a696e 	slti	t2,s1,26990
   12018:	69744370 	ldl	s4,17264(t3)
   1201c:	00000000 	nop
   12020:	23736372 	addi	s3,k1,25458
   12024:	65616d00 	daddiu	at,t3,27904
   12028:	69537461 	ldl	s3,29793(t2)
   1202c:	636b4572 	daddi	t3,k1,17778
   12030:	00000000 	nop
   12034:	70726f62 	.word	0x70726f62
   12038:	654d656d 	daddiu	t5,t2,25965
   1203c:	00000000 	nop
   12040:	2a2a4441 	slti	t2,s1,17473
   12044:	574e5f42 	bnel	k0,t6,0x29d50
   12048:	00000000 	nop
   1204c:	2b73775f 	slti	s3,k1,30559
   12050:	646d615f 	daddiu	t5,v1,24927
   12054:	61737369 	daddi	s3,t3,29545
   12058:	73745f70 	.word	0x73745f70
   1205c:	6c75735f 	ldr	s5,29535(v1)
   12060:	74696d65 	jalx	0x1a5b595
   12064:	72000000 	.word	0x72000000
   12068:	2b267072 	slti	a2,t9,28786
   1206c:	656c6f61 	daddiu	t4,t3,28513
   12070:	645f7772 	daddiu	ra,v0,30578
   12074:	5f646573 	.word	0x5f646573
   12078:	63720000 	daddi	s2,k1,0
   1207c:	2b267072 	slti	a2,t9,28786
   12080:	656c6f61 	daddiu	t4,t3,28513
   12084:	645f7264 	daddiu	ra,v0,29284
   12088:	5f646573 	.word	0x5f646573
   1208c:	63720000 	daddi	s2,k1,0
   12090:	2b685f68 	slti	t0,k1,24424
   12094:	665f7469 	daddiu	ra,s2,29801
   12098:	6d657200 	ldr	a1,29184(t3)
   1209c:	24486561 	addiu	t0,v0,25953
   120a0:	6465723a 	daddiu	a1,v1,29242
   120a4:	202f7072 	addi	t7,at,28786
   120a8:	6f6a6563 	ldr	t2,25955(k1)
   120ac:	74732f72 	jalx	0x1ccbdc9
   120b0:	63732f73 	daddi	s3,k1,12147
   120b4:	772f6765 	jalx	0xcbd9d95
   120b8:	2f2e2f6e 	sltiu	t6,t9,12142
   120bc:	69632f66 	ldl	v1,12134(t3)
   120c0:	77322f63 	jalx	0xcc8bd8d
   120c4:	6f6d6d6f 	ldr	t5,28015(k1)
   120c8:	6e2f7469 	ldr	t7,29801(s1)
   120cc:	6d65722e 	ldr	a1,29230(t3)
   120d0:	632c7620 	daddi	t4,t9,30240
   120d4:	312e312e 	andi	t6,t1,0x312e
   120d8:	322e3335 	andi	t6,s1,0x3335
   120dc:	20313939 	addi	s1,at,14649
   120e0:	392f3031 	xori	t7,t1,0x3031
   120e4:	2f323720 	sltiu	s2,t9,14112
   120e8:	31393a30 	andi	t9,t1,0x3a30
   120ec:	393a3530 	xori	k0,t1,0x3530
   120f0:	20686179 	addi	t0,v1,24953
   120f4:	65732045 	daddiu	s3,t3,8261
   120f8:	78702024 	.word	0x78702024
   120fc:	00000000 	nop
   12100:	65767452 	daddiu	s6,t3,29778
   12104:	6e674600 	ldr	a3,17920(s3)
   12108:	51657674 	beql	t3,a1,0x2fadc
   1210c:	46000000 	add.s	$f0,$f0,$f0
   12110:	51657674 	beql	t3,a1,0x2fae4
   12114:	505f4600 	beql	v0,ra,0x23918
   12118:	4d657674 	.word	0x4d657674
   1211c:	526e6746 	beql	s3,t6,0x2be38
   12120:	00000000 	nop
   12124:	4d516576 	.word	0x4d516576
   12128:	74460000 	jalx	0x1180001
   1212c:	4d516576 	.word	0x4d516576
   12130:	505f4600 	beql	v0,ra,0x23934
   12134:	5173436f 	beql	t3,s3,0x22ef4
   12138:	6e495f46 	ldr	t1,24390(s2)
   1213c:	00000000 	nop
   12140:	5173436f 	beql	t3,s3,0x22f00
   12144:	6e734600 	ldr	s3,17920(s3)
   12148:	51725072 	beql	t3,s2,0x26314
   1214c:	6f644600 	ldr	a0,17920(k1)
   12150:	542d446d 	bnel	at,t5,0x23308
   12154:	61526432 	daddi	s2,t2,25650
   12158:	00000000 	nop
   1215c:	542d446d 	bnel	at,t5,0x23314
   12160:	61526431 	daddi	s2,t2,25649
   12164:	00000000 	nop
   12168:	542d446d 	bnel	at,t5,0x23320
   1216c:	61526442 	daddi	s2,t2,25666
   12170:	00000000 	nop
   12174:	542d446d 	bnel	at,t5,0x2332c
   12178:	61577232 	daddi	s7,t2,29234
   1217c:	00000000 	nop
   12180:	542d446d 	bnel	at,t5,0x23338
   12184:	61577231 	daddi	s7,t2,29233
   12188:	00000000 	nop
   1218c:	542d446d 	bnel	at,t5,0x23344
   12190:	61577242 	daddi	s7,t2,29250
	...
   1219c:	24486561 	addiu	t0,v0,25953
   121a0:	6465723a 	daddiu	a1,v1,29242
   121a4:	202f7072 	addi	t7,at,28786
   121a8:	6f6a6563 	ldr	t2,25955(k1)
   121ac:	74732f72 	jalx	0x1ccbdc9
   121b0:	63732f73 	daddi	s3,k1,12147
   121b4:	772f6765 	jalx	0xcbd9d95
   121b8:	2f2e2f6e 	sltiu	t6,t9,12142
   121bc:	69632f66 	ldl	v1,12134(t3)
   121c0:	77322f63 	jalx	0xcc8bd8d
   121c4:	6f6d6d6f 	ldr	t5,28015(k1)
   121c8:	6e2f636f 	ldr	t7,25455(s1)
   121cc:	6d6d616e 	ldr	t5,24942(t3)
   121d0:	642e632c 	daddiu	t6,at,25388
   121d4:	7620312e 	jalx	0x880c4b9
   121d8:	312e322e 	andi	t6,t1,0x322e
   121dc:	32382031 	andi	t8,s1,0x2031
   121e0:	3939392f 	xori	t9,t1,0x392f
   121e4:	30312f32 	andi	s1,at,0x2f32
   121e8:	30203139 	andi	zero,at,0x3139
   121ec:	3a34393a 	xori	s4,s1,0x393a
   121f0:	34392073 	ori	t9,at,0x2073
   121f4:	6875616e 	ldl	s5,24942(v1)
   121f8:	67204578 	daddiu	zero,t9,17784
   121fc:	70202400 	.word	0x70202400
   12200:	65767452 	daddiu	s6,t3,29778
   12204:	6e674600 	ldr	a3,17920(s3)
   12208:	51657674 	beql	t3,a1,0x2fbdc
   1220c:	46000000 	add.s	$f0,$f0,$f0
   12210:	51657674 	beql	t3,a1,0x2fbe4
   12214:	505f4600 	beql	v0,ra,0x23a18
   12218:	4d657674 	.word	0x4d657674
   1221c:	526e6746 	beql	s3,t6,0x2bf38
   12220:	00000000 	nop
   12224:	4d516576 	.word	0x4d516576
   12228:	74460000 	jalx	0x1180001
   1222c:	4d516576 	.word	0x4d516576
   12230:	505f4600 	beql	v0,ra,0x23a34
   12234:	5173436f 	beql	t3,s3,0x22ff4
   12238:	6e495f46 	ldr	t1,24390(s2)
   1223c:	00000000 	nop
   12240:	5173436f 	beql	t3,s3,0x23000
   12244:	6e734600 	ldr	s3,17920(s3)
   12248:	51725072 	beql	t3,s2,0x26414
   1224c:	6f644600 	ldr	a0,17920(k1)
   12250:	3f48636d 	.word	0x3f48636d
   12254:	644d6278 	daddiu	t5,v0,25208
   12258:	00000000 	nop
   1225c:	3f636d64 	.word	0x3f636d64
   12260:	48737453 	.word	0x48737453
   12264:	00000000 	nop
   12268:	3f636d64 	.word	0x3f636d64
   1226c:	4d634d64 	.word	0x4d634d64
   12270:	00000000 	nop
   12274:	3f636d64 	.word	0x3f636d64
   12278:	50726f6d 	beql	v1,s2,0x2e030
   1227c:	00000000 	nop
   12280:	3f636d64 	.word	0x3f636d64
   12284:	4c696e6b 	.word	0x4c696e6b
   12288:	00000000 	nop
   1228c:	3f636d64 	.word	0x3f636d64
   12290:	45727200 	.word	0x45727200
   12294:	000086ac 	.word	0x86ac
   12298:	00008e5c 	.word	0x8e5c
   1229c:	00008e5c 	.word	0x8e5c
   122a0:	00008de4 	.word	0x8de4
   122a4:	00008b78 	dsll	s1,zero,0xd
   122a8:	00008e30 	tge	zero,zero,0x238
   122ac:	00008e5c 	.word	0x8e5c
   122b0:	00008790 	.word	0x8790
   122b4:	00008800 	sll	s1,zero,0x0
   122b8:	00008990 	.word	0x8990
   122bc:	00008a68 	.word	0x8a68
   122c0:	00008a34 	teq	zero,zero,0x228
   122c4:	00008e5c 	.word	0x8e5c
   122c8:	00008870 	tge	zero,zero,0x221
   122cc:	00008b24 	.word	0x8b24
   122d0:	00008e5c 	.word	0x8e5c
   122d4:	00008b34 	teq	zero,zero,0x22c
   122d8:	000087b4 	teq	zero,zero,0x21e
   122dc:	00008824 	and	s1,zero,zero
	...
   122ec:	24486561 	addiu	t0,v0,25953
   122f0:	6465723a 	daddiu	a1,v1,29242
   122f4:	202f7072 	addi	t7,at,28786
   122f8:	6f6a6563 	ldr	t2,25955(k1)
   122fc:	74732f72 	jalx	0x1ccbdc9
   12300:	63732f73 	daddi	s3,k1,12147
   12304:	772f6765 	jalx	0xcbd9d95
   12308:	2f2e2f6e 	sltiu	t6,t9,12142
   1230c:	69632f66 	ldl	v1,12134(t3)
   12310:	77322f63 	jalx	0xcc8bd8d
   12314:	6f6d6d6f 	ldr	t5,28015(k1)
   12318:	6e2f6d63 	ldr	t7,28003(s1)
   1231c:	6173742e 	daddi	s3,t3,29742
   12320:	632c7620 	daddi	t4,t9,30240
   12324:	312e312e 	andi	t6,t1,0x312e
   12328:	322e3820 	andi	t6,s1,0x3820
   1232c:	31393938 	andi	t9,t1,0x3938
   12330:	2f31322f 	sltiu	s1,t9,12847
   12334:	30382030 	andi	t8,at,0x2030
   12338:	323a3336 	andi	k0,s1,0x3336
   1233c:	3a333620 	xori	s3,s1,0x3620
   12340:	73687561 	.word	0x73687561
   12344:	6e672045 	ldr	a3,8261(s3)
   12348:	78702024 	.word	0x78702024
   1234c:	00000000 	nop
   12350:	65767452 	daddiu	s6,t3,29778
   12354:	6e674600 	ldr	a3,17920(s3)
   12358:	51657674 	beql	t3,a1,0x2fd2c
   1235c:	46000000 	add.s	$f0,$f0,$f0
   12360:	51657674 	beql	t3,a1,0x2fd34
   12364:	505f4600 	beql	v0,ra,0x23b68
   12368:	4d657674 	.word	0x4d657674
   1236c:	526e6746 	beql	s3,t6,0x2c088
   12370:	00000000 	nop
   12374:	4d516576 	.word	0x4d516576
   12378:	74460000 	jalx	0x1180001
   1237c:	4d516576 	.word	0x4d516576
   12380:	505f4600 	beql	v0,ra,0x23b84
   12384:	5173436f 	beql	t3,s3,0x23144
   12388:	6e495f46 	ldr	t1,24390(s2)
   1238c:	00000000 	nop
   12390:	5173436f 	beql	t3,s3,0x23150
   12394:	6e734600 	ldr	s3,17920(s3)
   12398:	51725072 	beql	t3,s2,0x26564
   1239c:	6f644600 	ldr	a0,17920(k1)
   123a0:	6164644d 	daddi	a0,t3,25677
   123a4:	63447570 	daddi	a0,k0,30064
   123a8:	00000000 	nop
   123ac:	6164644d 	daddi	a0,t3,25677
   123b0:	6346756c 	daddi	a2,k0,30060
   123b4:	00000000 	nop
   123b8:	64656c4d 	daddiu	a1,v1,27725
   123bc:	634e6f45 	daddi	t6,k0,28485
	...
   123cc:	24486561 	addiu	t0,v0,25953
   123d0:	6465723a 	daddiu	a1,v1,29242
   123d4:	202f7072 	addi	t7,at,28786
   123d8:	6f6a6563 	ldr	t2,25955(k1)
   123dc:	74732f72 	jalx	0x1ccbdc9
   123e0:	63732f73 	daddi	s3,k1,12147
   123e4:	772f6765 	jalx	0xcbd9d95
   123e8:	2f2e2f6e 	sltiu	t6,t9,12142
   123ec:	69632f66 	ldl	v1,12134(t3)
   123f0:	77322f63 	jalx	0xcc8bd8d
   123f4:	6f6d6d6f 	ldr	t5,28015(k1)
   123f8:	6e2f646d 	ldr	t7,25709(s1)
   123fc:	612e632c 	daddi	t6,t1,25388
   12400:	7620312e 	jalx	0x880c4b9
   12404:	312e322e 	andi	t6,t1,0x322e
   12408:	32342031 	andi	s4,s1,0x2031
   1240c:	3939382f 	xori	t9,t1,0x382f
   12410:	31322f32 	andi	s2,t1,0x2f32
   12414:	31203030 	andi	zero,t1,0x3030
   12418:	3a33333a 	xori	s3,s1,0x333a
   1241c:	30392073 	andi	t9,at,0x2073
   12420:	6875616e 	ldl	s5,24942(v1)
   12424:	67204578 	daddiu	zero,t9,17784
   12428:	70202400 	.word	0x70202400
   1242c:	65767452 	daddiu	s6,t3,29778
   12430:	6e674600 	ldr	a3,17920(s3)
   12434:	51657674 	beql	t3,a1,0x2fe08
   12438:	46000000 	add.s	$f0,$f0,$f0
   1243c:	51657674 	beql	t3,a1,0x2fe10
   12440:	505f4600 	beql	v0,ra,0x23c44
   12444:	4d657674 	.word	0x4d657674
   12448:	526e6746 	beql	s3,t6,0x2c164
   1244c:	00000000 	nop
   12450:	4d516576 	.word	0x4d516576
   12454:	74460000 	jalx	0x1180001
   12458:	4d516576 	.word	0x4d516576
   1245c:	505f4600 	beql	v0,ra,0x23c60
   12460:	5173436f 	beql	t3,s3,0x23220
   12464:	6e495f46 	ldr	t1,24390(s2)
   12468:	00000000 	nop
   1246c:	5173436f 	beql	t3,s3,0x2322c
   12470:	6e734600 	ldr	s3,17920(s3)
   12474:	51725072 	beql	t3,s2,0x26640
   12478:	6f644600 	ldr	a0,17920(k1)
   1247c:	7377446d 	.word	0x7377446d
   12480:	614f6666 	daddi	t7,t2,26214
   12484:	00000000 	nop
   12488:	31446d61 	andi	a0,t2,0x6d61
   1248c:	4f6e0000 	.word	0x4f6e0000
   12490:	7377446d 	.word	0x7377446d
   12494:	614f6e00 	daddi	t7,t2,28160
   12498:	2372446d 	addi	s2,k1,17517
   1249c:	6141544e 	daddi	at,t2,21582
   124a0:	00000000 	nop
   124a4:	72446d61 	.word	0x72446d61
   124a8:	41544e30 	.word	0x41544e30
   124ac:	00000000 	nop
   124b0:	72446d61 	.word	0x72446d61
   124b4:	41544e31 	.word	0x41544e31
   124b8:	00000000 	nop
   124bc:	72446d61 	.word	0x72446d61
   124c0:	34476200 	ori	a3,v0,0x6200
   124c4:	2a50414e 	slti	s0,s2,16718
   124c8:	49432a00 	.word	0x49432a00
   124cc:	2e2e2f2e 	sltiu	t6,s1,12078
   124d0:	2e2f2e2e 	sltiu	t7,s1,11822
   124d4:	2f2e2e2f 	sltiu	t6,t9,11823
   124d8:	2e2e2f73 	sltiu	t6,s1,12147
   124dc:	72632f6e 	.word	0x72632f6e
   124e0:	69632f66 	ldl	v1,12134(t3)
   124e4:	77322f63 	jalx	0xcc8bd8d
   124e8:	6f6d6d6f 	ldr	t5,28015(k1)
   124ec:	6e2f646d 	ldr	t7,25709(s1)
   124f0:	612e6300 	daddi	t6,t1,25344
   124f4:	2377446d 	addi	s7,k1,17517
   124f8:	6141544e 	daddi	at,t2,21582
   124fc:	00000000 	nop
   12500:	77446d61 	jalx	0xd11b585
   12504:	41544e30 	.word	0x41544e30
   12508:	00000000 	nop
   1250c:	77446d61 	jalx	0xd11b585
   12510:	41544e31 	.word	0x41544e31
   12514:	00000000 	nop
   12518:	77446d61 	jalx	0xd11b585
   1251c:	34476200 	ori	a3,v0,0x6200
	...
   1252c:	24486561 	addiu	t0,v0,25953
   12530:	6465723a 	daddiu	a1,v1,29242
   12534:	202f7072 	addi	t7,at,28786
   12538:	6f6a6563 	ldr	t2,25955(k1)
   1253c:	74732f72 	jalx	0x1ccbdc9
   12540:	63732f73 	daddi	s3,k1,12147
   12544:	772f6765 	jalx	0xcbd9d95
   12548:	2f2e2f6e 	sltiu	t6,t9,12142
   1254c:	69632f66 	ldl	v1,12134(t3)
   12550:	77322f63 	jalx	0xcc8bd8d
   12554:	6f6d6d6f 	ldr	t5,28015(k1)
   12558:	6e2f7472 	ldr	t7,29810(s1)
   1255c:	6163652e 	daddi	v1,t3,25902
   12560:	632c7620 	daddi	t4,t9,30240
   12564:	312e312e 	andi	t6,t1,0x312e
   12568:	322e3520 	andi	t6,s1,0x3520
   1256c:	31393938 	andi	t9,t1,0x3938
   12570:	2f30392f 	sltiu	s0,t9,14639
   12574:	33302031 	andi	s0,t9,0x2031
   12578:	383a3530 	xori	k0,at,0x3530
   1257c:	3a323820 	xori	s2,s1,0x3820
   12580:	73687561 	.word	0x73687561
   12584:	6e672045 	ldr	a3,8261(s3)
   12588:	78702024 	.word	0x78702024
	...
   1259c:	24486561 	addiu	t0,v0,25953
   125a0:	6465723a 	daddiu	a1,v1,29242
   125a4:	202f7072 	addi	t7,at,28786
   125a8:	6f6a6563 	ldr	t2,25955(k1)
   125ac:	74732f72 	jalx	0x1ccbdc9
   125b0:	63732f73 	daddi	s3,k1,12147
   125b4:	772f6765 	jalx	0xcbd9d95
   125b8:	2f2e2f6e 	sltiu	t6,t9,12142
   125bc:	69632f66 	ldl	v1,12134(t3)
   125c0:	77322f63 	jalx	0xcc8bd8d
   125c4:	6f6d6d6f 	ldr	t5,28015(k1)
   125c8:	6e2f6461 	ldr	t7,25697(s1)
   125cc:	74612e63 	jalx	0x184b98d
   125d0:	2c762031 	sltiu	s6,v1,8241
   125d4:	2e312e32 	sltiu	s1,s1,11826
   125d8:	2e313220 	sltiu	s1,s1,12832
   125dc:	31393939 	andi	t9,t1,0x3939
   125e0:	2f30312f 	sltiu	s0,t9,12591
   125e4:	32302031 	andi	s0,s1,0x2031
   125e8:	393a3439 	xori	k0,t1,0x3439
   125ec:	3a353120 	xori	s5,s1,0x3120
   125f0:	73687561 	.word	0x73687561
   125f4:	6e672045 	ldr	a3,8261(s3)
   125f8:	78702024 	.word	0x78702024
   125fc:	00000000 	nop
   12600:	46575f56 	c1	0x575f56
   12604:	45525349 	.word	0x45525349
   12608:	4f4e3a20 	.word	0x4f4e3a20
   1260c:	23312046 	addi	s1,t9,8262
   12610:	72692041 	.word	0x72692041
   12614:	70722037 	.word	0x70722037
   12618:	2031373a 	addi	s1,at,14138
   1261c:	35373a35 	ori	s7,t1,0x3a35
   12620:	32205044 	andi	zero,s1,0x5044
   12624:	54203230 	bnezl	at,0x1eee8
   12628:	30300000 	andi	s0,at,0x0
   1262c:	46575f43 	c1	0x575f43
   12630:	4f4d5049 	.word	0x4f4d5049
   12634:	4c455f54 	.word	0x4c455f54
   12638:	494d453a 	.word	0x494d453a
   1263c:	2031373a 	addi	s1,at,14138
   12640:	35373a35 	ori	s7,t1,0x3a35
   12644:	32000000 	andi	zero,s0,0x0
   12648:	46575f43 	c1	0x575f43
   1264c:	4f4d5049 	.word	0x4f4d5049
   12650:	4c455f42 	.word	0x4c455f42
   12654:	593a2064 	.word	0x593a2064
   12658:	65767263 	daddiu	s6,t3,29283
   1265c:	73000000 	.word	0x73000000
   12660:	46575f43 	c1	0x575f43
   12664:	4f4d5049 	.word	0x4f4d5049
   12668:	4c455f48 	.word	0x4c455f48
   1266c:	4f53543a 	.word	0x4f53543a
   12670:	20636f6d 	addi	v1,v1,28525
   12674:	70757465 	.word	0x70757465
   12678:	00000000 	nop
   1267c:	46575f43 	c1	0x575f43
   12680:	4f4d5049 	.word	0x4f4d5049
   12684:	4c455f44 	.word	0x4c455f44
   12688:	4f4d4149 	.word	0x4f4d4149
   1268c:	4e3a2065 	.word	0x4e3a2065
   12690:	6e672e61 	ldr	a3,11873(s3)
   12694:	6374656f 	daddi	s4,k1,25967
   12698:	6e2e636f 	ldr	t6,25455(s1)
   1269c:	6d000000 	ldr	zero,0(t0)
   126a0:	46575f43 	c1	0x575f43
   126a4:	4f4d5049 	.word	0x4f4d5049
   126a8:	4c45523a 	.word	0x4c45523a
   126ac:	20676363 	addi	a3,v1,25443
   126b0:	20766572 	addi	s6,v1,25970
   126b4:	73696f6e 	.word	0x73696f6e
   126b8:	20322e37 	addi	s2,at,11831
   126bc:	2e320000 	sltiu	s2,s1,0
   126c0:	00000000 	nop
   126c4:	12041100 	beq	s0,a0,0x16ac8
   126c8:	00000000 	nop
   126cc:	24486561 	addiu	t0,v0,25953
   126d0:	6465723a 	daddiu	a1,v1,29242
   126d4:	202f7072 	addi	t7,at,28786
   126d8:	6f6a6563 	ldr	t2,25955(k1)
   126dc:	74732f72 	jalx	0x1ccbdc9
   126e0:	63732f73 	daddi	s3,k1,12147
   126e4:	772f6765 	jalx	0xcbd9d95
   126e8:	2f2e2f6e 	sltiu	t6,t9,12142
   126ec:	69632f66 	ldl	v1,12134(t3)
   126f0:	77322f63 	jalx	0xcc8bd8d
   126f4:	6f6d6d6f 	ldr	t5,28015(k1)
   126f8:	6e2f6d65 	ldr	t7,28005(s1)
   126fc:	6d2e632c 	ldr	t6,25388(t1)
   12700:	7620312e 	jalx	0x880c4b9
   12704:	312e322e 	andi	t6,t1,0x322e
   12708:	35203139 	ori	zero,t1,0x3139
   1270c:	39382f30 	xori	t8,t1,0x2f30
   12710:	392f3330 	xori	t7,t1,0x3330
   12714:	2031383a 	addi	s1,at,14394
   12718:	35303a30 	ori	s0,t1,0x3a30
   1271c:	38207368 	xori	zero,at,0x7368
   12720:	75616e67 	jalx	0x585b99d
   12724:	20457870 	addi	a1,v0,30832
   12728:	20240000 	addi	a0,at,0
   1272c:	24486561 	addiu	t0,v0,25953
   12730:	6465723a 	daddiu	a1,v1,29242
   12734:	202f7072 	addi	t7,at,28786
   12738:	6f6a6563 	ldr	t2,25955(k1)
   1273c:	74732f72 	jalx	0x1ccbdc9
   12740:	63732f73 	daddi	s3,k1,12147
   12744:	772f6765 	jalx	0xcbd9d95
   12748:	2f2e2f6e 	sltiu	t6,t9,12142
   1274c:	69632f66 	ldl	v1,12134(t3)
   12750:	77322f63 	jalx	0xcc8bd8d
   12754:	6f6d6d6f 	ldr	t5,28015(k1)
   12758:	6e2f7365 	ldr	t7,29541(s1)
   1275c:	6e642e63 	ldr	a0,11875(s3)
   12760:	2c762031 	sltiu	s6,v1,8241
   12764:	2e312e32 	sltiu	s1,s1,11826
   12768:	2e343420 	sltiu	s4,s1,13344
   1276c:	31393938 	andi	t9,t1,0x3938
   12770:	2f31322f 	sltiu	s1,t9,12847
   12774:	32312030 	andi	s1,s1,0x2030
   12778:	303a3333 	andi	k0,at,0x3333
   1277c:	3a313820 	xori	s1,s1,0x3820
   12780:	73687561 	.word	0x73687561
   12784:	6e672045 	ldr	a3,8261(s3)
   12788:	78702024 	.word	0x78702024
   1278c:	00000000 	nop
   12790:	65767452 	daddiu	s6,t3,29778
   12794:	6e674600 	ldr	a3,17920(s3)
   12798:	51657674 	beql	t3,a1,0x3016c
   1279c:	46000000 	add.s	$f0,$f0,$f0
   127a0:	51657674 	beql	t3,a1,0x30174
   127a4:	505f4600 	beql	v0,ra,0x23fa8
   127a8:	4d657674 	.word	0x4d657674
   127ac:	526e6746 	beql	s3,t6,0x2c4c8
   127b0:	00000000 	nop
   127b4:	4d516576 	.word	0x4d516576
   127b8:	74460000 	jalx	0x1180001
   127bc:	4d516576 	.word	0x4d516576
   127c0:	505f4600 	beql	v0,ra,0x23fc4
   127c4:	5173436f 	beql	t3,s3,0x23584
   127c8:	6e495f46 	ldr	t1,24390(s2)
   127cc:	00000000 	nop
   127d0:	5173436f 	beql	t3,s3,0x23590
   127d4:	6e734600 	ldr	s3,17920(s3)
   127d8:	51725072 	beql	t3,s2,0x269a4
   127dc:	6f644600 	ldr	a0,17920(k1)
   127e0:	69736e74 	ldl	s3,28276(t3)
   127e4:	54637055 	bnel	v1,v1,0x2e93c
   127e8:	00000000 	nop
   127ec:	24486561 	addiu	t0,v0,25953
   127f0:	6465723a 	daddiu	a1,v1,29242
   127f4:	202f7072 	addi	t7,at,28786
   127f8:	6f6a6563 	ldr	t2,25955(k1)
   127fc:	74732f72 	jalx	0x1ccbdc9
   12800:	63732f73 	daddi	s3,k1,12147
   12804:	772f6765 	jalx	0xcbd9d95
   12808:	2f2e2f6e 	sltiu	t6,t9,12142
   1280c:	69632f66 	ldl	v1,12134(t3)
   12810:	77322f63 	jalx	0xcc8bd8d
   12814:	6f6d6d6f 	ldr	t5,28015(k1)
   12818:	6e2f7265 	ldr	t7,29285(s1)
   1281c:	63762e63 	daddi	s6,k1,11875
   12820:	2c762031 	sltiu	s6,v1,8241
   12824:	2e312e32 	sltiu	s1,s1,11826
   12828:	2e353320 	sltiu	s5,s1,13088
   1282c:	31393939 	andi	t9,t1,0x3939
   12830:	2f30312f 	sltiu	s0,t9,12591
   12834:	31362030 	andi	s6,t1,0x2030
   12838:	323a3535 	andi	k0,s1,0x3535
   1283c:	3a343320 	xori	s4,s1,0x3320
   12840:	73687561 	.word	0x73687561
   12844:	6e672045 	ldr	a3,8261(s3)
   12848:	78702024 	.word	0x78702024
   1284c:	00000000 	nop
   12850:	65767452 	daddiu	s6,t3,29778
   12854:	6e674600 	ldr	a3,17920(s3)
   12858:	51657674 	beql	t3,a1,0x3022c
   1285c:	46000000 	add.s	$f0,$f0,$f0
   12860:	51657674 	beql	t3,a1,0x30234
   12864:	505f4600 	beql	v0,ra,0x24068
   12868:	4d657674 	.word	0x4d657674
   1286c:	526e6746 	beql	s3,t6,0x2c588
   12870:	00000000 	nop
   12874:	4d516576 	.word	0x4d516576
   12878:	74460000 	jalx	0x1180001
   1287c:	4d516576 	.word	0x4d516576
   12880:	505f4600 	beql	v0,ra,0x24084
   12884:	5173436f 	beql	t3,s3,0x23644
   12888:	6e495f46 	ldr	t1,24390(s2)
   1288c:	00000000 	nop
   12890:	5173436f 	beql	t3,s3,0x23650
   12894:	6e734600 	ldr	s3,17920(s3)
   12898:	51725072 	beql	t3,s2,0x26a64
   1289c:	6f644600 	ldr	a0,17920(k1)
   128a0:	724d6163 	.word	0x724d6163
   128a4:	43686b30 	c0	0x1686b30
   128a8:	00000000 	nop
   128ac:	72784672 	.word	0x72784672
   128b0:	6d324c67 	ldr	s2,19559(t1)
   128b4:	00000000 	nop
   128b8:	72784e6f 	.word	0x72784e6f
   128bc:	53744264 	beql	k1,s4,0x23250
   128c0:	00000000 	nop
   128c4:	72784e6f 	.word	0x72784e6f
   128c8:	4d694264 	.word	0x4d694264
   128cc:	00000000 	nop
   128d0:	72784e6f 	.word	0x72784e6f
   128d4:	4a6d4264 	c2	0x6d4264
   128d8:	00000000 	nop
   128dc:	7278436b 	.word	0x7278436b
   128e0:	446d6146 	.word	0x446d6146
   128e4:	00000000 	nop
   128e8:	72785144 	.word	0x72785144
   128ec:	6d457846 	ldr	a1,30790(t2)
   128f0:	00000000 	nop
   128f4:	72785144 	.word	0x72785144
   128f8:	6d614600 	ldr	at,17920(t3)
   128fc:	72785144 	.word	0x72785144
   12900:	4c426446 	.word	0x4c426446
   12904:	00000000 	nop
   12908:	72785144 	.word	0x72785144
   1290c:	6d426446 	ldr	v0,25670(t2)
   12910:	00000000 	nop
   12914:	72784372 	.word	0x72784372
   12918:	63506164 	daddi	s0,k0,24932
   1291c:	00000000 	nop
   12920:	72536d51 	.word	0x72536d51
   12924:	446d6146 	.word	0x446d6146
   12928:	00000000 	nop
   1292c:	24486561 	addiu	t0,v0,25953
   12930:	6465723a 	daddiu	a1,v1,29242
   12934:	202f7072 	addi	t7,at,28786
   12938:	6f6a6563 	ldr	t2,25955(k1)
   1293c:	74732f72 	jalx	0x1ccbdc9
   12940:	63732f73 	daddi	s3,k1,12147
   12944:	772f6765 	jalx	0xcbd9d95
   12948:	2f2e2f6e 	sltiu	t6,t9,12142
   1294c:	69632f66 	ldl	v1,12134(t3)
   12950:	77322f63 	jalx	0xcc8bd8d
   12954:	6f6d6d6f 	ldr	t5,28015(k1)
   12958:	6e2f6d61 	ldr	t7,28001(s1)
   1295c:	632e632c 	daddi	t6,t9,25388
   12960:	7620312e 	jalx	0x880c4b9
   12964:	312e322e 	andi	t6,t1,0x322e
   12968:	32322031 	andi	s2,s1,0x2031
   1296c:	3939382f 	xori	t9,t1,0x382f
   12970:	31322f30 	andi	s2,t1,0x2f30
   12974:	38203032 	xori	zero,at,0x3032
   12978:	3a33363a 	xori	s3,s1,0x363a
   1297c:	33302073 	andi	s0,t9,0x2073
   12980:	6875616e 	ldl	s5,24942(v1)
   12984:	67204578 	daddiu	zero,t9,17784
   12988:	70202400 	.word	0x70202400
   1298c:	65767452 	daddiu	s6,t3,29778
   12990:	6e674600 	ldr	a3,17920(s3)
   12994:	51657674 	beql	t3,a1,0x30368
   12998:	46000000 	add.s	$f0,$f0,$f0
   1299c:	51657674 	beql	t3,a1,0x30370
   129a0:	505f4600 	beql	v0,ra,0x241a4
   129a4:	4d657674 	.word	0x4d657674
   129a8:	526e6746 	beql	s3,t6,0x2c6c4
   129ac:	00000000 	nop
   129b0:	4d516576 	.word	0x4d516576
   129b4:	74460000 	jalx	0x1180001
   129b8:	4d516576 	.word	0x4d516576
   129bc:	505f4600 	beql	v0,ra,0x241c0
   129c0:	5173436f 	beql	t3,s3,0x23780
   129c4:	6e495f46 	ldr	t1,24390(s2)
   129c8:	00000000 	nop
   129cc:	5173436f 	beql	t3,s3,0x2378c
   129d0:	6e734600 	ldr	s3,17920(s3)
   129d4:	51725072 	beql	t3,s2,0x26ba0
   129d8:	6f644600 	ldr	a0,17920(k1)
   129dc:	6d616354 	ldr	at,25428(t3)
   129e0:	68726573 	ldl	s2,25971(v1)
   129e4:	00000000 	nop
   129e8:	23744d61 	addi	s4,k1,19809
   129ec:	6341544e 	daddi	at,k0,21582
   129f0:	00000000 	nop
   129f4:	23724d61 	addi	s2,k1,19809
   129f8:	6341544e 	daddi	at,k0,21582
   129fc:	00000000 	nop
   12a00:	72656d41 	.word	0x72656d41
   12a04:	73737274 	.word	0x73737274
   12a08:	00000000 	nop
   12a0c:	6c696e6b 	ldr	t1,28267(v1)
   12a10:	444f574e 	.word	0x444f574e
   12a14:	00000000 	nop
   12a18:	6c696e6b 	ldr	t1,28267(v1)
   12a1c:	55500000 	bnel	t2,s0,0x12a20
   12a20:	00000000 	nop
	...
   12a2c:	24486561 	addiu	t0,v0,25953
   12a30:	6465723a 	daddiu	a1,v1,29242
   12a34:	202f7072 	addi	t7,at,28786
   12a38:	6f6a6563 	ldr	t2,25955(k1)
   12a3c:	74732f72 	jalx	0x1ccbdc9
   12a40:	63732f73 	daddi	s3,k1,12147
   12a44:	772f6765 	jalx	0xcbd9d95
   12a48:	2f2e2f6e 	sltiu	t6,t9,12142
   12a4c:	69632f66 	ldl	v1,12134(t3)
   12a50:	77322f63 	jalx	0xcc8bd8d
   12a54:	6f6d6d6f 	ldr	t5,28015(k1)
   12a58:	6e2f636b 	ldr	t7,25451(s1)
   12a5c:	73756d2e 	.word	0x73756d2e
   12a60:	632c7620 	daddi	t4,t9,30240
   12a64:	312e312e 	andi	t6,t1,0x312e
   12a68:	322e3920 	andi	t6,s1,0x3920
   12a6c:	31393939 	andi	t9,t1,0x3939
   12a70:	2f30312f 	sltiu	s0,t9,12591
   12a74:	31342030 	andi	s4,t1,0x2030
   12a78:	303a3033 	andi	k0,at,0x3033
   12a7c:	3a343820 	xori	s4,s1,0x3820
   12a80:	73687561 	.word	0x73687561
   12a84:	6e672045 	ldr	a3,8261(s3)
   12a88:	78702024 	.word	0x78702024
   12a8c:	00000000 	nop
   12a90:	65767452 	daddiu	s6,t3,29778
   12a94:	6e674600 	ldr	a3,17920(s3)
   12a98:	51657674 	beql	t3,a1,0x3046c
   12a9c:	46000000 	add.s	$f0,$f0,$f0
   12aa0:	51657674 	beql	t3,a1,0x30474
   12aa4:	505f4600 	beql	v0,ra,0x242a8
   12aa8:	4d657674 	.word	0x4d657674
   12aac:	526e6746 	beql	s3,t6,0x2c7c8
   12ab0:	00000000 	nop
   12ab4:	4d516576 	.word	0x4d516576
   12ab8:	74460000 	jalx	0x1180001
   12abc:	4d516576 	.word	0x4d516576
   12ac0:	505f4600 	beql	v0,ra,0x242c4
   12ac4:	5173436f 	beql	t3,s3,0x23884
   12ac8:	6e495f46 	ldr	t1,24390(s2)
   12acc:	00000000 	nop
   12ad0:	5173436f 	beql	t3,s3,0x23890
   12ad4:	6e734600 	ldr	s3,17920(s3)
   12ad8:	51725072 	beql	t3,s2,0x26ca4
   12adc:	6f644600 	ldr	a0,17920(k1)
	...
   12aec:	50726f62 	beql	v1,s2,0x2e878
   12af0:	65506879 	daddiu	s0,t2,26745
   12af4:	00000000 	nop
   12af8:	6c6e6b41 	ldr	t6,27457(v1)
   12afc:	53535254 	beql	k0,s3,0x27450
   12b00:	00000000 	nop
   12b04:	000109a4 	.word	0x109a4
   12b08:	00010a1c 	.word	0x10a1c
   12b0c:	00010a50 	.word	0x10a50
   12b10:	00010a7c 	dsll32	at,at,0x9
   12b14:	00011050 	.word	0x11050
   12b18:	00010aa8 	.word	0x10aa8
   12b1c:	00010b10 	.word	0x10b10
   12b20:	000111fc 	dsll32	v0,at,0x7
   12b24:	00010dc0 	sll	at,at,0x17
   12b28:	00010c68 	.word	0x10c68
   12b2c:	00010c80 	sll	at,at,0x12
   12b30:	00010cc4 	.word	0x10cc4
   12b34:	00010cec 	.word	0x10cec
   12b38:	00010d0c 	syscall	0x434
   12b3c:	00010d34 	teq	zero,at,0x34
   12b40:	000111fc 	dsll32	v0,at,0x7
   12b44:	00010dc0 	sll	at,at,0x17
   12b48:	00010df8 	dsll	at,at,0x17
   12b4c:	00010e10 	.word	0x10e10
   12b50:	00010e40 	sll	at,at,0x19
   12b54:	00010e68 	.word	0x10e68
   12b58:	00010e88 	.word	0x10e88
   12b5c:	00010eb0 	tge	zero,at,0x3a
   12b60:	00000000 	nop
   12b64:	00010fdc 	.word	0x10fdc
   12b68:	00011008 	.word	0x11008
   12b6c:	0001102c 	dadd	v0,zero,at
   12b70:	000111fc 	dsll32	v0,at,0x7
   12b74:	00011050 	.word	0x11050
   12b78:	00011078 	dsll	v0,at,0x1
   12b7c:	00011108 	.word	0x11108
	...
   12b8c:	0001186c 	.word	0x1186c
   12b90:	0001193c 	dsll32	v1,at,0x4
   12b94:	00011a14 	.word	0x11a14
   12b98:	00011ae4 	.word	0x11ae4
   12b9c:	00011b40 	sll	v1,at,0xd
   12ba0:	00011c1c 	.word	0x11c1c
   12ba4:	00011c44 	.word	0x11c44
   12ba8:	00011d20 	.word	0x11d20
   12bac:	00011d48 	.word	0x11d48
   12bb0:	00011ef0 	tge	zero,at,0x7b
   12bb4:	00011f18 	.word	0x11f18
   12bb8:	000120c0 	sll	a0,at,0x3
   12bbc:	000122b8 	dsll	a0,at,0xa
   12bc0:	0001254c 	syscall	0x495
   12bc4:	00012460 	.word	0x12460
   12bc8:	0001254c 	syscall	0x495
   12bcc:	00012578 	dsll	a0,at,0x15
   12bd0:	000120e8 	.word	0x120e8
   12bd4:	00012290 	.word	0x12290
   12bd8:	7273745f 	.word	0x7273745f
   12bdc:	676d6969 	daddiu	t5,k1,26985
   12be0:	00000000 	nop
   12be4:	00012608 	.word	0x12608
   12be8:	00012640 	sll	a0,at,0x19
   12bec:	00012728 	.word	0x12728
   12bf0:	00013374 	teq	zero,at,0xcd
   12bf4:	000133b4 	teq	zero,at,0xce
   12bf8:	000133cc 	syscall	0x4cf
   12bfc:	7365746c 	.word	0x7365746c
   12c00:	6f6f7000 	ldr	t7,28672(k1)
	...
   12c0c:	00013bbc 	dsll32	a3,at,0xe
   12c10:	00013bfc 	dsll32	a3,at,0xf
   12c14:	00013c8c 	syscall	0x4f2
   12c18:	00013cd0 	.word	0x13cd0
   12c1c:	00013d34 	teq	zero,at,0xf4
   12c20:	00013dc0 	sll	a3,at,0x17
   12c24:	00013df4 	teq	zero,at,0xf7
   12c28:	00013e7c 	dsll32	a3,at,0x19
   12c2c:	00013f14 	.word	0x13f14
   12c30:	00013fe4 	.word	0x13fe4
   12c34:	00014024 	and	t0,zero,at
   12c38:	000140a8 	.word	0x140a8
   12c3c:	000140cc 	syscall	0x503
   12c40:	000141dc 	.word	0x141dc
   12c44:	646f4261 	daddiu	t7,v1,16993
   12c48:	73655067 	.word	0x73655067
	...
   12c5c:	73746d61 	.word	0x73746d61
   12c60:	634c4e4b 	daddi	t4,k0,20043
   12c64:	00000000 	nop
   12c68:	6765746d 	daddiu	a1,k1,29805
   12c6c:	636c6e6b 	daddi	t4,k1,28267
   12c70:	00000000 	nop
   12c74:	00014ed8 	.word	0x14ed8
   12c78:	00014ed8 	.word	0x14ed8
   12c7c:	00014b8c 	syscall	0x52e
   12c80:	00014bd8 	.word	0x14bd8
   12c84:	00014c24 	.word	0x14c24
   12c88:	00014ed8 	.word	0x14ed8
   12c8c:	7365746d 	.word	0x7365746d
   12c90:	61636163 	daddi	v1,t3,24931
   12c94:	74000000 	jalx	0x1
   12c98:	00000000 	nop
	...
   12ccc:	00000001 	.word	0x1
   12cd0:	00000001 	.word	0x1
   12cd4:	00000001 	.word	0x1
   12cd8:	00c001fc 	.word	0xc001fc
   12cdc:	00003ffc 	dsll32	a3,zero,0x1f
   12ce0:	00c00000 	.word	0xc00000
   12ce4:	416c7465 	.word	0x416c7465
   12ce8:	6f6e2041 	ldr	t6,8257(k1)
   12cec:	63654e49 	daddi	a1,k1,20041
   12cf0:	43205600 	c0	0x1205600
	...
   12d0c:	416c7465 	.word	0x416c7465
   12d10:	6f6e2041 	ldr	t6,8257(k1)
   12d14:	63654e49 	daddi	a1,k1,20041
   12d18:	43205600 	c0	0x1205600
   12d1c:	42424242 	c0	0x424242
	...
   12d2c:	001ffffc 	dsll32	ra,ra,0x1f
   12d30:	001fff7c 	dsll32	ra,ra,0x1d
	...
   12d4c:	0060cf00 	.word	0x60cf00
   12d50:	00000060 	.word	0x60
   12d54:	cf000000 	.word	0xcf000000
	...
   12da8:	00000003 	sra	zero,zero,0x0
   12dac:	00000000 	nop
   12db0:	00000001 	.word	0x1
	...
   12dc0:	00000001 	.word	0x1
   12dc4:	00000000 	nop
   12dc8:	00000001 	.word	0x1
	...
   12ddc:	00000001 	.word	0x1
   12de0:	00000001 	.word	0x1
	...
   12df8:	01000000 	.word	0x1000000
   12dfc:	21000000 	addi	zero,t0,0
   12e00:	12000140 	beqz	s0,0x13304
   12e04:	00000000 	nop
   12e08:	00000000 	nop
   12e0c:	20000000 	addi	zero,zero,0
   12e10:	120000a0 	beqz	s0,0x13094
   12e14:	00000000 	nop
   12e18:	12000060 	beqz	s0,0x12f9c
   12e1c:	12000180 	beqz	s0,0x13420
   12e20:	120001e0 	beqz	s0,0x135a4
   12e24:	00000000 	nop
	...
   12e30:	00000001 	.word	0x1
	...
   12e4c:	00000002 	srl	zero,zero,0x0
	...
   12e58:	00030001 	.word	0x30001
   12e5c:	00000001 	.word	0x1
   12e60:	00030201 	.word	0x30201
	...
   12e6c:	01010101 	.word	0x1010101
   12e70:	01010100 	.word	0x1010100
   12e74:	00010100 	sll	zero,at,0x4
   12e78:	01010001 	.word	0x1010001
   12e7c:	00010001 	.word	0x10001
   12e80:	01000101 	.word	0x1000101
   12e84:	00000101 	.word	0x101
   12e88:	00000000 	nop