../git/linux-firmware/./ar3k/AthrBT_0x31010000.dfu:     file format binary


Disassembly of section .data:

00000000 <.data>:
       0:	594800        	excw
       3:	5c0000        	excw
       6:	0099      	s32i.n	a9, a0, 0
       8:	9eb8      	l32i.n	a11, a14, 36
       a:	cd0000        	excw
       d:	ebaae5        	excw
      10:	000004        	excw
	...
      1f:	5c0000        	excw
      22:	0099      	s32i.n	a9, a0, 0
	...
      2c:	5950c4        	excw
      2f:	821c00        	mull	a1, a12, a0
      32:	0058      	l32i.n	a5, a0, 0
      34:	5c58      	l32i.n	a5, a12, 20
      36:	0099      	s32i.n	a9, a0, 0
      38:	5950c0        	excw
      3b:	e6b800        	excw
      3e:	0059      	s32i.n	a5, a0, 0
      40:	5820e0        	excw
      43:	4f2c00        	excw
      46:	0059      	s32i.n	a5, a0, 0
      48:	4a7a      	add.n	a4, a10, a7
      4a:	0058      	l32i.n	a5, a0, 0
      4c:	5841c0        	excw
      4f:	12b000        	excw
      52:	0058      	l32i.n	a5, a0, 0
      54:	5824e0        	excw
      57:	541000        	extui	a1, a0, 0, 6
      5a:	0059      	s32i.n	a5, a0, 0
      5c:	594f10        	excw
      5f:	4f2000        	excw
      62:	0059      	s32i.n	a5, a0, 0
      64:	5872a0        	excw
      67:	911000        	srl	a1, a0
      6a:	0058      	l32i.n	a5, a0, 0
      6c:	74aa      	add.n	a7, a4, a10
      6e:	0058      	l32i.n	a5, a0, 0
      70:	587520        	excw
      73:	732900        	excw
      76:	0058      	l32i.n	a5, a0, 0
      78:	58ac62        	movi	a6, 0xfffffc58
      7b:	73a000        	excw
      7e:	0058      	l32i.n	a5, a0, 0
      80:	587320        	excw
      83:	74d000        	extui	a13, a0, 0, 8
      86:	0058      	l32i.n	a5, a0, 0
      88:	ff          	.byte 0xff
      89:	ff          	.byte 0xff
      8a:	ff          	.byte 0xff
      8b:	b00007        	bnone	a0, a0, 0x3f
      8e:	1e          	.byte 0x1e
      8f:	732404        	excw
      92:	0058      	l32i.n	a5, a0, 0
      94:	7a48      	l32i.n	a4, a10, 28
      96:	0058      	l32i.n	a5, a0, 0
      98:	754c      	movi.n	a5, 71
      9a:	0058      	l32i.n	a5, a0, 0
      9c:	5871a0        	excw
      9f:	753400        	extui	a3, a0, 20, 8
      a2:	0058      	l32i.n	a5, a0, 0
      a4:	581ee0        	excw
      a7:	300000        	xor	a0, a0, a0
      aa:	000000        	ill
      ad:	100000        	and	a0, a0, a0
      b0:	5814b0        	excw
      b3:	753000        	extui	a3, a0, 16, 8
      b6:	100000        	and	a0, a0, a0
      b9:	582c      	movi.n	a8, 37
      bb:	4f3400        	excw
      be:	0059      	s32i.n	a5, a0, 0
      c0:	58a450        	excw
      c3:	000000        	ill
      c6:	000040        	excw
      c9:	3e          	.byte 0x3e
      ca:	000001        	l32r	a0, 0xfffc00cc
      cd:	000202        	l8ui	a0, a2, 0
      d0:	5849a4        	excw
      d3:	fffe00        	excw
      d6:	ff0000        	excw
      d9:	ff          	.byte 0xff
      da:	a00000        	addx4	a0, a0, a0
      dd:	005880        	excw
      e0:	010000        	slli	a0, a0, 32
      e3:	000000        	ill
      e6:	000002        	l8ui	a0, a0, 0
      e9:	000800        	excw
      ec:	040000        	extui	a0, a0, 0, 1
      ef:	ffff00        	excw
      f2:	00fff3        	excw
      f5:	000080        	ret
      f8:	1038      	l32i.n	a3, a0, 4
      fa:	0058      	l32i.n	a5, a0, 0
      fc:	4a5c      	movi.n	a10, 84
      fe:	0058      	l32i.n	a5, a0, 0
     100:	ef          	.byte 0xef
     101:	ff          	.byte 0xff
     102:	ff          	.byte 0xff
     103:	0f          	.byte 0xf
     104:	002710        	excw
     107:	86a000        	excw
     10a:	000001        	l32r	a0, 0xfffc010c
     10d:	0000f0        	excw
     110:	000000        	ill
     113:	ffff01        	l32r	a0, 0x110 (0x1000000)
     116:	fe          	.byte 0xfe
     117:	ff          	.byte 0xff
     118:	2b88      	l32i.n	a8, a11, 8
     11a:	0058      	l32i.n	a5, a0, 0
     11c:	7158      	l32i.n	a5, a1, 28
     11e:	0099      	s32i.n	a9, a0, 0
     120:	586fc0        	excw
     123:	2d2800        	excw
     126:	0058      	l32i.n	a5, a0, 0
     128:	6e78      	l32i.n	a7, a14, 24
     12a:	0058      	l32i.n	a5, a0, 0
     12c:	00fff7        	bbsi	a15, 31, 0x130
     12f:	94b400        	extui	a11, a0, 4, 10
     132:	0058      	l32i.n	a5, a0, 0
     134:	004120        	break	1, 2
     137:	9ff300        	excw
     13a:	ff          	.byte 0xff
     13b:	ff          	.byte 0xff
     13c:	200000        	or	a0, a0, a0
     13f:	dfff00        	excw
     142:	ff          	.byte 0xff
     143:	ff          	.byte 0xff
     144:	5c6c      	movi.n	a12, -27
     146:	0099      	s32i.n	a9, a0, 0
     148:	68fc      	bnez.n	a8, 0x182
     14a:	0099      	s32i.n	a9, a0, 0
     14c:	995da0        	excw
     14f:	630400        	excw
     152:	0099      	s32i.n	a9, a0, 0
     154:	646c      	movi.n	a4, -26
     156:	0099      	s32i.n	a9, a0, 0
     158:	996504        	excw
     15b:	6e6400        	excw
     15e:	0099      	s32i.n	a9, a0, 0
     160:	996f84        	excw
     163:	753800        	extui	a3, a0, 24, 8
     166:	0099      	s32i.n	a9, a0, 0
     168:	66dc      	bnez.n	a6, 0x182
     16a:	0099      	s32i.n	a9, a0, 0
     16c:	9975f0        	excw
     16f:	765800        	excw
     172:	0099      	s32i.n	a9, a0, 0
     174:	6d0c      	movi.n	a13, 6
     176:	0099      	s32i.n	a9, a0, 0
     178:	996960        	excw
     17b:	698800        	excw
     17e:	0099      	s32i.n	a9, a0, 0
     180:	997054        	excw
     183:	717c00        	excw
     186:	0099      	s32i.n	a9, a0, 0
     188:	997314        	excw
     18b:	739800        	excw
     18e:	0099      	s32i.n	a9, a0, 0
     190:	76d8      	l32i.n	a13, a6, 28
     192:	0099      	s32i.n	a9, a0, 0
     194:	77f8      	l32i.n	a15, a7, 28
     196:	0099      	s32i.n	a9, a0, 0
     198:	633c      	movi.n	a3, 54
     19a:	0099      	s32i.n	a9, a0, 0
     19c:	6dcc      	bnez.n	a13, 0x1a6
     19e:	0099      	s32i.n	a9, a0, 0
     1a0:	7718      	l32i.n	a1, a7, 28
     1a2:	0099      	s32i.n	a9, a0, 0
     1a4:	595684        	excw
     1a7:	568000        	excw
     1aa:	0059      	s32i.n	a5, a0, 0
     1ac:	582d04        	excw
     1af:	727c00        	excw
     1b2:	0058      	l32i.n	a5, a0, 0
     1b4:	595440        	excw
     1b7:	fe0000        	excw
     1ba:	cc0005        	call0	0xfffcc1bc
     1bd:	588b      	addi.n	a5, a8, 8
     1bf:	a4e400        	extui	a14, a0, 4, 11
     1c2:	0058      	l32i.n	a5, a0, 0
     1c4:	595450        	excw
     1c7:	fcff00        	excw
     1ca:	ac0000        	excw
     1cd:	005882        	s16i	a8, a8, 0
     1d0:	594f54        	excw
     1d3:	4f7c00        	excw
     1d6:	0059      	s32i.n	a5, a0, 0
     1d8:	4f9c      	beqz.n	a15, 0x1f0
     1da:	0059      	s32i.n	a5, a0, 0
     1dc:	4fbc      	beqz.n	a15, 0x214
     1de:	0059      	s32i.n	a5, a0, 0
     1e0:	581d60        	excw
     1e3:	795800        	excw
     1e6:	0099      	s32i.n	a9, a0, 0
     1e8:	796c      	movi.n	a9, -25
     1ea:	0099      	s32i.n	a9, a0, 0
     1ec:	7a48      	l32i.n	a4, a10, 28
     1ee:	0099      	s32i.n	a9, a0, 0
     1f0:	48e8      	l32i.n	a14, a8, 16
     1f2:	0058      	l32i.n	a5, a0, 0
     1f4:	004000        	break	0, 0
     1f7:	4f2c00        	excw
     1fa:	0059      	s32i.n	a5, a0, 0
     1fc:	586b40        	excw
     1ff:	4a5a00        	excw
     202:	0058      	l32i.n	a5, a0, 0
     204:	5867c0        	excw
     207:	43c000        	excw
     20a:	0058      	l32i.n	a5, a0, 0
     20c:	022e00        	excw
     20f:	55b800        	extui	a11, a0, 24, 6
     212:	0059      	s32i.n	a5, a0, 0
     214:	2958      	l32i.n	a5, a9, 8
     216:	0058      	l32i.n	a5, a0, 0
     218:	002762        	l32i	a6, a7, 0
     21b:	89d900        	excw
     21e:	cc0171        	l32r	a7, 0xffff3224
     221:	000c      	movi.n	a0, 0
     223:	199900        	excw
     226:	0078      	l32i.n	a7, a0, 0
     228:	199a      	add.n	a1, a9, a9
     22a:	330000        	excw
     22d:	00f033        	excw
     230:	000000        	ill
     233:	ffe080        	excw
     236:	3f          	.byte 0x3f
     237:	001f00        	excw
     23a:	ff8000        	excw
     23d:	ff          	.byte 0xff
     23e:	000001        	l32r	a0, 0xfffc0240
     241:	7fc000        	excw
     244:	588394        	excw
     247:	684000        	excw
     24a:	0058      	l32i.n	a5, a0, 0
     24c:	584a40        	excw
     24f:	18b000        	excw
     252:	0058      	l32i.n	a5, a0, 0
     254:	68b8      	l32i.n	a11, a8, 24
     256:	0058      	l32i.n	a5, a0, 0
     258:	ff          	.byte 0xff
     259:	ff          	.byte 0xff
     25a:	ff          	.byte 0xff
     25b:	4a7003        	excw
     25e:	0058      	l32i.n	a5, a0, 0
     260:	5848c0        	excw
     263:	4bb000        	excw
     266:	0058      	l32i.n	a5, a0, 0
     268:	584a73        	excw
     26b:	4b8000        	excw
     26e:	0058      	l32i.n	a5, a0, 0
     270:	584ac0        	excw
     273:	49c000        	excw
     276:	0058      	l32i.n	a5, a0, 0
     278:	584340        	excw
     27b:	4b8300        	excw
     27e:	0058      	l32i.n	a5, a0, 0
     280:	584c40        	excw
     283:	4b5800        	excw
     286:	0058      	l32i.n	a5, a0, 0
     288:	4a5b      	addi.n	a4, a10, 5
     28a:	0058      	l32i.n	a5, a0, 0
     28c:	4b7a      	add.n	a4, a11, a7
     28e:	0058      	l32i.n	a5, a0, 0
     290:	5866c0        	excw
     293:	fe0000        	excw
     296:	a40001        	l32r	a0, 0xfffe9298
     299:	0058a4        	excw
     29c:	1518      	l32i.n	a1, a5, 4
     29e:	c00000        	sub	a0, a0, a0
     2a1:	ff          	.byte 0xff
     2a2:	3f          	.byte 0x3f
     2a3:	fff800        	excw
     2a6:	0b0000        	excw
     2a9:	200000        	or	a0, a0, a0
     2ac:	100000        	and	a0, a0, a0
     2af:	080000        	excw
     2b2:	000000        	ill
     2b5:	400000        	ssr	a0
     2b8:	a9ac      	beqz.n	a9, 0x2e6
     2ba:	0058      	l32i.n	a5, a0, 0
     2bc:	a82c      	movi.n	a8, 42
     2be:	0058      	l32i.n	a5, a0, 0
     2c0:	588f10        	excw
     2c3:	000000        	ill
     2c6:	6c1fe0        	excw
     2c9:	584a      	add.n	a5, a8, a4
     2cb:	000000        	ill
     2ce:	001c      	movi.n	a0, 16
     2d0:	01c000        	slli	a12, a0, 32
     2d3:	800000        	add	a0, a0, a0
     2d6:	f40003        	excw
     2d9:	5849      	s32i.n	a4, a8, 20
     2db:	5e0000        	excw
     2de:	c40002        	l8ui	a0, a0, 196
     2e1:	588c      	beqz.n	a8, 0x2ea
     2e3:	4a8100        	excw
     2e6:	0058      	l32i.n	a5, a0, 0
     2e8:	0918      	l32i.n	a1, a9, 0
     2ea:	fa0000        	excw
     2ed:	005842        	s16i	a4, a8, 0
     2f0:	586bc0        	excw
     2f3:	0e0000        	excw
     2f6:	0018      	l32i.n	a1, a0, 0
     2f8:	6e          	.byte 0x6e
     2f9:	584a      	add.n	a5, a8, a4
     2fb:	09c800        	excw
     2fe:	8d0000        	excw
     301:	584b      	addi.n	a5, a8, 4
     303:	3dc000        	excw
     306:	0058      	l32i.n	a5, a0, 0
     308:	584327        	ball	a3, a2, 0x364
     30b:	424000        	excw
     30e:	0058      	l32i.n	a5, a0, 0
     310:	6d3c      	movi.n	a13, 54
     312:	0058      	l32i.n	a5, a0, 0
     314:	586d40        	excw
     317:	4fe400        	excw
     31a:	0059      	s32i.n	a5, a0, 0
     31c:	595004        	excw
     31f:	500800        	excw
     322:	0059      	s32i.n	a5, a0, 0
     324:	595030        	excw
     327:	ac6100        	excw
     32a:	0058      	l32i.n	a5, a0, 0
     32c:	595624        	excw
     32f:	4b8c00        	excw
     332:	0058      	l32i.n	a5, a0, 0
     334:	4a78      	l32i.n	a7, a10, 16
     336:	0058      	l32i.n	a5, a0, 0
     338:	584b96        	bltz	a11, 0x8c0
     33b:	994100        	excw
     33e:	0099      	s32i.n	a9, a0, 0
     340:	588400        	excw
     343:	8f9000        	excw
     346:	0058      	l32i.n	a5, a0, 0
     348:	588e10        	excw
     34b:	4a5900        	excw
     34e:	0058      	l32i.n	a5, a0, 0
     350:	5842c0        	excw
     353:	09c300        	excw
     356:	8b0000        	excw
     359:	584b      	addi.n	a5, a8, 4
     35b:	540000        	extui	a0, a0, 0, 6
     35e:	0059      	s32i.n	a5, a0, 0
     360:	58b482        	excw
     363:	ac7000        	excw
     366:	0058      	l32i.n	a5, a0, 0
     368:	595401        	l32r	a0, 0xfffd68b8
     36b:	4a6d00        	excw
     36e:	0058      	l32i.n	a5, a0, 0
     370:	001f40        	excw
     373:	506800        	witlb	a0, a8
     376:	0059      	s32i.n	a5, a0, 0
     378:	4b38      	l32i.n	a3, a11, 16
     37a:	0058      	l32i.n	a5, a0, 0
     37c:	4a7c      	movi.n	a10, -12
     37e:	0058      	l32i.n	a5, a0, 0
     380:	4bac      	beqz.n	a11, 0x3a8
     382:	0058      	l32i.n	a5, a0, 0
     384:	a46d      	excw
     386:	0099      	s32i.n	a9, a0, 0
     388:	4778      	l32i.n	a7, a7, 16
     38a:	0058      	l32i.n	a5, a0, 0
     38c:	026600        	excw
     38f:	bfff00        	excw
     392:	ff          	.byte 0xff
     393:	ff          	.byte 0xff
     394:	ff          	.byte 0xff
     395:	ff          	.byte 0xff
     396:	fffd      	excw
     398:	ff          	.byte 0xff
     399:	ef          	.byte 0xef
     39a:	ff          	.byte 0xff
     39b:	ff          	.byte 0xff
     39c:	42fb      	addi.n	a4, a2, 15
     39e:	0058      	l32i.n	a5, a0, 0
     3a0:	001102        	l16ui	a0, a1, 0
     3a3:	49ee00        	excw
     3a6:	0058      	l32i.n	a5, a0, 0
     3a8:	595434        	excw
     3ab:	000000        	ill
     3ae:	000007        	bnone	a0, a0, 0x3b2
     3b1:	00f000        	excw
     3b4:	007000        	waiti	0
     3b7:	0f0000        	excw
     3ba:	b00000        	addx8	a0, a0, a0
     3bd:	005813        	excw
     3c0:	581ad0        	excw
     3c3:	a18800        	sll	a8, a8
     3c6:	0099      	s32i.n	a9, a0, 0
     3c8:	99a130        	excw
     3cb:	847000        	extui	a7, a0, 0, 9
     3ce:	0099      	s32i.n	a9, a0, 0
     3d0:	998504        	excw
     3d3:	88a800        	excw
     3d6:	0099      	s32i.n	a9, a0, 0
     3d8:	99a360        	excw
     3db:	94c000        	extui	a12, a0, 0, 10
     3de:	0099      	s32i.n	a9, a0, 0
     3e0:	999760        	excw
     3e3:	8ca800        	excw
     3e6:	0099      	s32i.n	a9, a0, 0
     3e8:	8cf8      	l32i.n	a15, a12, 32
     3ea:	0099      	s32i.n	a9, a0, 0
     3ec:	9e68      	l32i.n	a6, a14, 36
     3ee:	0099      	s32i.n	a9, a0, 0
     3f0:	a7bc      	beqz.n	a7, 0x42e
     3f2:	0099      	s32i.n	a9, a0, 0
     3f4:	7d28      	l32i.n	a2, a13, 28
     3f6:	0099      	s32i.n	a9, a0, 0
     3f8:	997db0        	excw
     3fb:	9bd800        	excw
     3fe:	0099      	s32i.n	a9, a0, 0
     400:	9d3c      	movi.n	a13, 57
     402:	0099      	s32i.n	a9, a0, 0
     404:	aaf8      	l32i.n	a15, a10, 40
     406:	0099      	s32i.n	a9, a0, 0
     408:	7c5c      	movi.n	a12, 87
     40a:	0099      	s32i.n	a9, a0, 0
     40c:	99a284        	excw
     40f:	a8a800        	excw
     412:	0099      	s32i.n	a9, a0, 0
     414:	99a900        	excw
     417:	ae7400        	excw
     41a:	0099      	s32i.n	a9, a0, 0
     41c:	997e90        	excw
     41f:	978c00        	excw
     422:	0099      	s32i.n	a9, a0, 0
     424:	9838      	l32i.n	a3, a8, 36
     426:	0099      	s32i.n	a9, a0, 0
     428:	98ac      	beqz.n	a8, 0x455
     42a:	0099      	s32i.n	a9, a0, 0
     42c:	990c      	movi.n	a9, 9
     42e:	0099      	s32i.n	a9, a0, 0
     430:	99a2c0        	excw
     433:	a93c00        	excw
     436:	0099      	s32i.n	a9, a0, 0
     438:	ac08      	l32i.n	a0, a12, 40
     43a:	0099      	s32i.n	a9, a0, 0
     43c:	b9d8      	l32i.n	a13, a9, 44
     43e:	980057        	bnone	a0, a5, 0x3da
     441:	005872        	s16i	a7, a8, 0
     444:	003e00        	excw
     447:	fc5700        	excw
     44a:	540000        	extui	a0, a0, 0, 6
     44d:	00fc      	bnez.n	a0, 0x481
     44f:	fc5500        	excw
     452:	560000        	excw
     455:	00fc      	bnez.n	a0, 0x489
     457:	55fc00        	extui	a15, a0, 28, 6
     45a:	0059      	s32i.n	a5, a0, 0
     45c:	001234        	excw
     45f:	ffff00        	excw
     462:	ff          	.byte 0xff
     463:	3f          	.byte 0x3f
     464:	58b481        	l32r	a8, 0xfffd6734
     467:	021800        	excw
     46a:	0058      	l32i.n	a5, a0, 0
     46c:	adfc      	bnez.n	a13, 0x4aa
     46e:	0058      	l32i.n	a5, a0, 0
     470:	7478      	l32i.n	a7, a4, 28
     472:	0058      	l32i.n	a5, a0, 0
     474:	00fc72        	excw
     477:	fc7300        	excw
     47a:	030000        	excw
     47d:	000c      	movi.n	a0, 0
     47f:	ffff00        	excw
     482:	ff          	.byte 0xff
     483:	7f          	.byte 0x7f
     484:	00fc00        	excw
     487:	742800        	extui	a2, a0, 8, 8
     48a:	0058      	l32i.n	a5, a0, 0
     48c:	587334        	excw
     48f:	3dd000        	excw
     492:	0058      	l32i.n	a5, a0, 0
     494:	002010        	rsync
     497:	6ea800        	excw
     49a:	0058      	l32i.n	a5, a0, 0
     49c:	81a8      	l32i.n	a10, a1, 32
     49e:	0058      	l32i.n	a5, a0, 0
     4a0:	73f8      	l32i.n	a15, a3, 28
     4a2:	0058      	l32i.n	a5, a0, 0
     4a4:	586ac0        	excw
     4a7:	4f2c00        	excw
     4aa:	0059      	s32i.n	a5, a0, 0
     4ac:	6f78      	l32i.n	a7, a15, 24
     4ae:	0058      	l32i.n	a5, a0, 0
     4b0:	99afb0        	excw
     4b3:	b2fc00        	excw
     4b6:	0099      	s32i.n	a9, a0, 0
     4b8:	b088      	l32i.n	a8, a0, 44
     4ba:	0099      	s32i.n	a9, a0, 0
     4bc:	586ec0        	excw
     4bf:	aff000        	excw
     4c2:	0099      	s32i.n	a9, a0, 0
     4c4:	99b234        	excw
     4c7:	b2d000        	excw
     4ca:	0099      	s32i.n	a9, a0, 0
     4cc:	b388      	l32i.n	a8, a3, 44
     4ce:	0099      	s32i.n	a9, a0, 0
     4d0:	b768      	l32i.n	a6, a7, 44
     4d2:	0099      	s32i.n	a9, a0, 0
     4d4:	5618      	l32i.n	a1, a6, 20
     4d6:	0059      	s32i.n	a5, a0, 0
     4d8:	4f2c      	movi.n	a15, 36
     4da:	0059      	s32i.n	a5, a0, 0
     4dc:	02be00        	excw
     4df:	201100        	or	a1, a1, a0
     4e2:	120000        	excw
     4e5:	000020        	excw
     4e8:	b898      	l32i.n	a9, a8, 44
     4ea:	0099      	s32i.n	a9, a0, 0
     4ec:	b918      	l32i.n	a1, a9, 44
     4ee:	0099      	s32i.n	a9, a0, 0
     4f0:	bd2c      	movi.n	a13, 43
     4f2:	0099      	s32i.n	a9, a0, 0
     4f4:	bdb8      	l32i.n	a11, a13, 44
     4f6:	0099      	s32i.n	a9, a0, 0
     4f8:	99bfd4        	excw
     4fb:	ffff00        	excw
     4fe:	ff          	.byte 0xff
     4ff:	bf          	.byte 0xbf
     500:	582bc4        	excw
     503:	e7e700        	excw
     506:	ff          	.byte 0xff
     507:	ff          	.byte 0xff
     508:	ff          	.byte 0xff
     509:	ffffe7        	bbsi	a15, 30, 0x50c
     50c:	561c      	movi.n	a6, 21
     50e:	0059      	s32i.n	a5, a0, 0
     510:	c1f8      	l32i.n	a15, a1, 48
     512:	0099      	s32i.n	a9, a0, 0
     514:	c218      	l32i.n	a1, a2, 48
     516:	0099      	s32i.n	a9, a0, 0
     518:	99c150        	excw
     51b:	a72c00        	excw
     51e:	0058      	l32i.n	a5, a0, 0
     520:	0f          	.byte 0xf
     521:	000027        	bnone	a0, a2, 0x525
     524:	428d      	excw
     526:	0058      	l32i.n	a5, a0, 0
     528:	ac2c      	movi.n	a12, 42
     52a:	0058      	l32i.n	a5, a0, 0
     52c:	a62c      	movi.n	a6, 42
     52e:	0058      	l32i.n	a5, a0, 0
     530:	a92c      	movi.n	a9, 42
     532:	0058      	l32i.n	a5, a0, 0
     534:	a8ac      	beqz.n	a8, 0x562
     536:	0058      	l32i.n	a5, a0, 0
     538:	ff0000        	excw
     53b:	ff          	.byte 0xff
     53c:	4b5c      	movi.n	a11, 84
     53e:	0058      	l32i.n	a5, a0, 0
     540:	048c      	beqz.n	a4, 0x544
     542:	ac0002        	l8ui	a0, a0, 172
     545:	0058a6        	blti	a8, 5, 0x549
     548:	a738      	l32i.n	a3, a7, 40
     54a:	0058      	l32i.n	a5, a0, 0
     54c:	1fba      	add.n	a1, a15, a11
     54e:	7f0000        	excw
     551:	000013        	excw
     554:	a90c      	movi.n	a9, 10
     556:	0058      	l32i.n	a5, a0, 0
     558:	a91c      	movi.n	a9, 26
     55a:	0058      	l32i.n	a5, a0, 0
     55c:	9188      	l32i.n	a8, a1, 36
     55e:	0058      	l32i.n	a5, a0, 0
     560:	aa2c      	movi.n	a10, 42
     562:	0058      	l32i.n	a5, a0, 0
     564:	a648      	l32i.n	a4, a6, 40
     566:	0058      	l32i.n	a5, a0, 0
     568:	58a9c0        	excw
     56b:	abac00        	excw
     56e:	0058      	l32i.n	a5, a0, 0
     570:	c26c      	movi.n	a2, -20
     572:	0099      	s32i.n	a9, a0, 0
     574:	c3ec      	bnez.n	a3, 0x5a4
     576:	0099      	s32i.n	a9, a0, 0
     578:	c4bc      	beqz.n	a4, 0x5b8
     57a:	0099      	s32i.n	a9, a0, 0
     57c:	99c504        	excw
     57f:	c52800        	extui	a2, a0, 24, 13
     582:	0099      	s32i.n	a9, a0, 0
     584:	c2e8      	l32i.n	a14, a2, 48
     586:	0099      	s32i.n	a9, a0, 0
     588:	99c544        	excw
     58b:	c81c00        	excw
     58e:	0099      	s32i.n	a9, a0, 0
     590:	99cbe0        	excw
     593:	cc4000        	excw
     596:	0099      	s32i.n	a9, a0, 0
     598:	99cca0        	excw
     59b:	cdcc00        	excw
     59e:	0099      	s32i.n	a9, a0, 0
     5a0:	99ce54        	excw
     5a3:	cea000        	excw
     5a6:	0099      	s32i.n	a9, a0, 0
     5a8:	99cf30        	excw
     5ab:	d0a800        	subx2	a10, a8, a0
     5ae:	0099      	s32i.n	a9, a0, 0
     5b0:	d17c      	movi.n	a1, -3
     5b2:	0099      	s32i.n	a9, a0, 0
     5b4:	563c      	movi.n	a6, 53
     5b6:	0059      	s32i.n	a5, a0, 0
     5b8:	933c      	movi.n	a3, 57
     5ba:	0058      	l32i.n	a5, a0, 0
     5bc:	001000        	excw
     5bf:	d27400        	excw
     5c2:	0099      	s32i.n	a9, a0, 0
     5c4:	000804        	excw
     5c7:	082800        	excw
     5ca:	800000        	add	a0, a0, a0
     5cd:	5828      	l32i.n	a2, a8, 20
     5cf:	2c6000        	excw
     5d2:	0058      	l32i.n	a5, a0, 0
     5d4:	595074        	excw
     5d7:	4f2c00        	excw
     5da:	0059      	s32i.n	a5, a0, 0
     5dc:	5098      	l32i.n	a9, a0, 20
     5de:	0059      	s32i.n	a5, a0, 0
     5e0:	595070        	excw
     5e3:	ffff00        	excw
     5e6:	0099      	s32i.n	a9, a0, 0
     5e8:	5937c0        	excw
     5eb:	084000        	excw
     5ee:	ff0090        	excw
     5f1:	ff          	.byte 0xff
     5f2:	ff          	.byte 0xff
     5f3:	50a000        	excw
     5f6:	0059      	s32i.n	a5, a0, 0
     5f8:	595640        	excw
     5fb:	c83700        	excw
     5fe:	5e          	.byte 0x5e
     5ff:	0214a1        	l32r	a10, 0xfffc0e50
     602:	0058      	l32i.n	a5, a0, 0
     604:	2858      	l32i.n	a5, a8, 8
     606:	0058      	l32i.n	a5, a0, 0
     608:	589090        	excw
     60b:	d3f800        	excw
     60e:	0099      	s32i.n	a9, a0, 0
     610:	d308      	l32i.n	a0, a3, 52
     612:	0099      	s32i.n	a9, a0, 0
     614:	582870        	excw
     617:	d43800        	extui	a3, a0, 8, 14
     61a:	0099      	s32i.n	a9, a0, 0
     61c:	2dc8      	l32i.n	a12, a13, 8
     61e:	0058      	l32i.n	a5, a0, 0
     620:	582dc4        	excw
     623:	9ac400        	excw
     626:	0058      	l32i.n	a5, a0, 0
     628:	4f2c      	movi.n	a15, 36
     62a:	0059      	s32i.n	a5, a0, 0
     62c:	00be00        	excw
     62f:	020000        	excw
     632:	b80006        	j	0xfffee636
     635:	005950        	excw
     638:	99d564        	excw
     63b:	d5a800        	extui	a10, a0, 24, 14
     63e:	0099      	s32i.n	a9, a0, 0
     640:	030b10        	excw
     643:	0b1400        	excw
     646:	ff0003        	excw
     649:	ff          	.byte 0xff
     64a:	3f          	.byte 0x3f
     64b:	081800        	excw
     64e:	1c0003        	excw
     651:	0308      	l32i.n	a0, a3, 0
     653:	0b0800        	excw
     656:	140003        	excw
     659:	0308      	l32i.n	a0, a3, 0
     65b:	4f2c00        	excw
     65e:	0059      	s32i.n	a5, a0, 0
     660:	030b00        	excw
     663:	000000        	ill
     666:	808400        	add	a8, a4, a0
     669:	ff          	.byte 0xff
     66a:	00fff7        	bbsi	a15, 31, 0x66e
     66d:	0309      	s32i.n	a0, a3, 0
     66f:	001800        	excw
     672:	040003        	excw
     675:	0308      	l32i.n	a0, a3, 0
     677:	091000        	excw
     67a:	140003        	excw
     67d:	0309      	s32i.n	a0, a3, 0
     67f:	564400        	excw
     682:	0059      	s32i.n	a5, a0, 0
     684:	58b480        	excw
     687:	540400        	extui	a0, a0, 4, 6
     68a:	0059      	s32i.n	a5, a0, 0
     68c:	0908      	l32i.n	a0, a9, 0
     68e:	740003        	excw
     691:	de          	.byte 0xde
     692:	0099      	s32i.n	a9, a0, 0
     694:	0118      	l32i.n	a1, a1, 0
     696:	0058      	l32i.n	a5, a0, 0
     698:	580200        	excw
     69b:	d9f400        	excw
     69e:	0099      	s32i.n	a9, a0, 0
     6a0:	d71c      	movi.n	a7, 29
     6a2:	0099      	s32i.n	a9, a0, 0
     6a4:	da7c      	movi.n	a10, -3
     6a6:	0099      	s32i.n	a9, a0, 0
     6a8:	dc38      	l32i.n	a3, a12, 52
     6aa:	0099      	s32i.n	a9, a0, 0
     6ac:	99dc50        	excw
     6af:	dc6800        	excw
     6b2:	0099      	s32i.n	a9, a0, 0
     6b4:	dcac      	beqz.n	a12, 0x6e5
     6b6:	0099      	s32i.n	a9, a0, 0
     6b8:	d87c      	movi.n	a8, -3
     6ba:	0099      	s32i.n	a9, a0, 0
     6bc:	99d9a0        	excw
     6bf:	dd4000        	excw
     6c2:	0099      	s32i.n	a9, a0, 0
     6c4:	99df74        	excw
     6c7:	dd0000        	excw
     6ca:	0099      	s32i.n	a9, a0, 0
     6cc:	dcec      	bnez.n	a12, 0x6fd
     6ce:	0099      	s32i.n	a9, a0, 0
     6d0:	e00c      	movi.n	a0, 14
     6d2:	0099      	s32i.n	a9, a0, 0
     6d4:	3288      	l32i.n	a8, a2, 12
     6d6:	800002        	l8ui	a0, a0, 128
     6d9:	000232        	l8ui	a3, a2, 0
     6dc:	023284        	excw
     6df:	333000        	excw
     6e2:	3f3073        	excw
     6e5:	000400        	excw
     6e8:	3098      	l32i.n	a9, a0, 12
     6ea:	c00002        	l8ui	a0, a0, 192
     6ed:	005955        	excw
     6f0:	5955c4        	excw
     6f3:	cccc00        	excw
     6f6:	104c      	movi.n	a0, 65
     6f8:	1f          	.byte 0x1f
     6f9:	0408      	l32i.n	a0, a4, 0
     6fb:	ffff00        	excw
     6fe:	7f          	.byte 0x7f
     6ff:	0000c0        	callx0	a0
     702:	ff3f80        	excw
     705:	ff          	.byte 0xff
     706:	00ff80        	excw
     709:	007f00        	waiti	15
     70c:	99e110        	excw
     70f:	88f800        	excw
     712:	0058      	l32i.n	a5, a0, 0
     714:	99e290        	excw
     717:	568c00        	excw
     71a:	0059      	s32i.n	a5, a0, 0
     71c:	e32c      	movi.n	a3, 46
     71e:	0099      	s32i.n	a9, a0, 0
     720:	e348      	l32i.n	a4, a3, 56
     722:	0099      	s32i.n	a9, a0, 0
	...
     740:	535341        	l32r	a4, 0xfffd548c
     743:	545245        	call0	0x54c68
     746:	0a0000        	excw
     749:	746e45        	call0	0x74e30
     74c:	697265        	excw
     74f:	6e          	.byte 0x6e
     750:	442067        	blt	a0, a6, 0x798
     753:	205455        	excw
     756:	736944        	excw
     759:	6c6261        	l32r	a6, 0xfffdb8e4
     75c:	6e69      	s32i.n	a6, a14, 24
     75e:	432067        	blt	a0, a6, 0x7a5
     761:	6f          	.byte 0x6f
     762:	007865        	excw
     765:	000000        	ill
     768:	6f6f50        	excw
     76b:	3a6c      	movi.n	a10, -29
     76d:	206425        	excw
     770:	667542        	excw
     773:	616c43        	excw
     776:	3a7373        	excw
     779:	206425        	excw
     77c:	6548      	l32i.n	a4, a5, 24
     77e:	3a6461        	l32r	a6, 0xfffcf110
     781:	207825        	excw
     784:	696154        	excw
     787:	3a6c      	movi.n	a10, -29
     789:	0a7825        	excw
     78c:	000000        	ill
     78f:	255b00        	extui	a5, a0, 27, 3
     792:	5d6432        	s32i	a3, a4, 0x174
     795:	734d20        	excw
     798:	644967        	ball	a9, a6, 0x800
     79b:	303a      	add.n	a3, a0, a3
     79d:	2578      	l32i.n	a7, a5, 8
     79f:	2078      	l32i.n	a7, a0, 8
     7a1:	726854        	excw
     7a4:	646165        	excw
     7a7:	303a      	add.n	a3, a0, a3
     7a9:	2578      	l32i.n	a7, a5, 8
     7ab:	0a78      	l32i.n	a7, a10, 0
     7ad:	000000        	ill
     7b0:	524b      	addi.n	a5, a2, 4
     7b2:	4e          	.byte 0x4e
     7b3:	204c      	movi.n	a0, 66
     7b5:	734d      	excw
     7b7:	662067        	blt	a0, a6, 0x821
     7ba:	6c6c75        	excw
     7bd:	522021        	l32r	a2, 0xfffd5040
     7c0:	6f6365        	excw
     7c3:	496472        	s32i	a7, a4, 0x124
     7c6:	6e          	.byte 0x6e
     7c7:	786564        	excw
     7ca:	253a      	add.n	a2, a5, a3
     7cc:	0a6432        	s32i	a3, a4, 40
     7cf:	255b00        	extui	a5, a0, 27, 3
     7d2:	5d6432        	s32i	a3, a4, 0x174
     7d5:	734d20        	excw
     7d8:	644967        	ball	a9, a6, 0x840
     7db:	303a      	add.n	a3, a0, a3
     7dd:	2578      	l32i.n	a7, a5, 8
     7df:	2078      	l32i.n	a7, a0, 8
     7e1:	646441        	l32r	a4, 0xfffd9974
     7e4:	303a72        	excw
     7e7:	2578      	l32i.n	a7, a5, 8
     7e9:	2078      	l32i.n	a7, a0, 8
     7eb:	6d6954        	excw
     7ee:	303a65        	excw
     7f1:	2578      	l32i.n	a7, a5, 8
     7f3:	0a78      	l32i.n	a7, a10, 0
     7f5:	000000        	ill
     7f8:	5f          	.byte 0x5f
     7f9:	4d5242        	s16i	a4, a2, 154
     7fc:	5f          	.byte 0x5f
     7fd:	726854        	excw
     800:	646165        	excw
     803:	5f          	.byte 0x5f
     804:	726150        	excw
     807:	3a3274        	excw
     80a:	614320        	excw
     80d:	696c      	movi.n	a9, -26
     80f:	617262        	excw
     812:	6e6974        	excw
     815:	000a67        	bnone	a10, a6, 0x819
     818:	2e          	.byte 0x2e
     819:	000000        	ill
     81c:	5f0a      	add.n	a5, a15, a0
     81e:	4d5242        	s16i	a4, a2, 154
     821:	5f          	.byte 0x5f
     822:	726854        	excw
     825:	646165        	excw
     828:	5f          	.byte 0x5f
     829:	726150        	excw
     82c:	3a3274        	excw
     82f:	6f4420        	excw
     832:	6e          	.byte 0x6e
     833:	432065        	excw
     836:	696c61        	l32r	a6, 0xfffdade8
     839:	617262        	excw
     83c:	6e6974        	excw
     83f:	000a67        	bnone	a10, a6, 0x843
     842:	0a0000        	excw
     845:	5f          	.byte 0x5f
     846:	4d5242        	s16i	a4, a2, 154
     849:	5f          	.byte 0x5f
     84a:	726854        	excw
     84d:	646165        	excw
     850:	5f          	.byte 0x5f
     851:	726150        	excw
     854:	3a3274        	excw
     857:	544220        	extui	a4, a2, 2, 6
     85a:	687320        	excw
     85d:	6f          	.byte 0x6f
     85e:	646c75        	excw
     861:	657220        	extui	a7, a2, 18, 7
     864:	6c6163        	excw
     867:	6269      	s32i.n	a6, a2, 24
     869:	746172        	s32i	a7, a1, 0x1d0
     86c:	612065        	excw
     86f:	696167        	bbci	a1, 6, 0x8dc
     872:	6e          	.byte 0x6e
     873:	2528      	l32i.n	a2, a5, 8
     875:	0a2964        	excw
     878:	000000        	ill
     87b:	0a0d00        	excw
     87e:	426f57        	bbci	a15, 5, 0x8c4
     881:	0a0d54        	excw
     884:	000000        	ill
     887:	2a0a00        	excw
     88a:	2a2a      	add.n	a2, a10, a2
     88c:	732520        	excw
     88f:	2a2a20        	excw
     892:	202a      	add.n	a2, a0, a2
     894:	207325        	excw
     897:	505b      	addi.n	a5, a0, 5
     899:	3d2043        	excw
     89c:	783020        	excw
     89f:	383025        	excw
     8a2:	5d58      	l32i.n	a5, a13, 20
     8a4:	2a2a20        	excw
     8a7:	0a2a      	add.n	a0, a10, a2
     8a9:	000a      	add.n	a0, a0, a0
     8ab:	415000        	srli	a5, a0, 0
     8ae:	4e          	.byte 0x4e
     8af:	4349      	s32i.n	a4, a3, 16
     8b1:	000000        	ill
     8b4:	6c6143        	excw
     8b7:	206c      	movi.n	a0, -30
     8b9:	6e7546        	j	0x1c292
     8bc:	412063        	excw
     8bf:	726464        	excw
     8c2:	203a      	add.n	a2, a0, a3
     8c4:	257830        	extui	a7, a3, 24, 3
     8c7:	0a78      	l32i.n	a7, a10, 0
     8c9:	000000        	ill
     8cc:	524155        	excw
     8cf:	000054        	excw
     8d2:	000000        	ill
     8d5:	005a00        	excw
     8d8:	595410        	excw
     8db:	569800        	excw
     8de:	0059      	s32i.n	a5, a0, 0
	...
     c14:	ff          	.byte 0xff
     c15:	000001        	l32r	a0, 0xfffc0c18
     c18:	ff          	.byte 0xff
	...
    1411:	000000        	ill
    1414:	004136        	excw
    1417:	7606b1        	l32r	a11, 0xfffdec30
    141a:	1ba8      	l32i.n	a10, a11, 4
    141c:	0bb8      	l32i.n	a11, a11, 0
    141e:	12bba7        	bgeu	a11, a10, 0x1434
    1421:	0b9d      	mov.n	a9, a11
    1423:	c0cab0        	sub	a12, a10, a11
    1426:	0a0c      	movi.n	a10, 0
    1428:	cc3b      	addi.n	a12, a12, 3
    142a:	41c2c0        	srli	a12, a12, 2
    142d:	039c76        	excw
    1430:	09a9      	s32i.n	a10, a9, 0
    1432:	994b      	addi.n	a9, a9, 4
    1434:	7607e1        	l32r	a14, 0xfffdec50
    1437:	7608d1        	l32r	a13, 0xfffdec58
    143a:	186ed2        	s32i	a13, a14, 96
    143d:	07a425        	excw
    1440:	0864a5        	excw
    1443:	01eea5        	excw
    1446:	01bee5        	excw
    1449:	0526a5        	excw
    144c:	05bc65        	excw
    144f:	064e65        	excw
    1452:	0660a5        	excw
    1455:	075ae5        	excw
    1458:	0873e5        	excw
    145b:	0764a5        	excw
    145e:	078be5        	excw
    1461:	084125        	excw
    1464:	086ca5        	excw
    1467:	087125        	excw
    146a:	f01d      	excw
    146c:	004136        	excw
    146f:	760941        	l32r	a4, 0xfffdec94
    1472:	760a51        	l32r	a5, 0xfffdec9c
    1475:	0259      	s32i.n	a5, a2, 0
    1477:	0448      	l32i.n	a4, a4, 0
    1479:	0349      	s32i.n	a4, a3, 0
    147b:	f01d      	excw
    147d:	000000        	ill
    1480:	006136        	excw
    1483:	760b71        	l32r	a7, 0xfffdecb0
    1486:	04ad      	mov.n	a10, a4
    1488:	ef2782        	l32i	a8, a7, 0x3bc
    148b:	01bd      	mov.n	a11, a1
    148d:	0008e0        	excw
    1490:	0a6d      	mov.n	a6, a10
    1492:	aacc      	bnez.n	a10, 0x14a0
    1494:	760ca1        	l32r	a10, 0xfffdecc4
    1497:	0b0c      	movi.n	a11, 0
    1499:	b810a5        	excw
    149c:	020c      	movi.n	a2, 0
    149e:	f01d      	excw
    14a0:	04a492        	movi	a9, 0x404
    14a3:	4b9297        	bne	a2, a9, 0x14f2
    14a6:	de2782        	l32i	a8, a7, 0x378
    14a9:	2a1c      	movi.n	a10, 18
    14ab:	0008e0        	excw
    14ae:	0c2a16        	beqz	a10, 0x1574
    14b1:	760d21        	l32r	a2, 0xfffdece8
    14b4:	78a182        	movi	a8, 0x178
    14b7:	c18480        	mul16u	a8, a4, a8
    14ba:	228a      	add.n	a2, a2, a8
    14bc:	800292        	l8ui	a9, a2, 128
    14bf:	7fafb2        	movi	a11, -129
    14c2:	fd6916        	beqz	a9, 0x149c
    14c5:	e6a8      	l32i.n	a10, a6, 56
    14c7:	d698      	l32i.n	a9, a6, 52
    14c9:	10aab0        	and	a10, a10, a11
    14cc:	e6a9      	s32i.n	a10, a6, 56
    14ce:	cae977        	bbsi	a9, 7, 0x149c
    14d1:	9a0c      	movi.n	a10, 9
    14d3:	df2782        	l32i	a8, a7, 0x37c
    14d6:	06bd      	mov.n	a11, a6
    14d8:	0008e0        	excw
    14db:	099a56        	bnez	a10, 0x1578
    14de:	760ea1        	l32r	a10, 0xfffded18
    14e1:	7f0292        	l8ui	a9, a2, 127
    14e4:	c50aa2        	l8ui	a10, a10, 197
    14e7:	02b9a7        	bgeu	a9, a10, 0x14ed
    14ea:	002286        	j	0x1578
    14ed:	7a0c      	movi.n	a10, 7
    14ef:	002486        	j	0x1585
    14f2:	05a4e2        	movi	a14, 0x405
    14f5:	6792e7        	bne	a2, a14, 0x1560
    14f8:	de2782        	l32i	a8, a7, 0x378
    14fb:	2a1c      	movi.n	a10, 18
    14fd:	0008e0        	excw
    1500:	070a16        	beqz	a10, 0x1574
    1503:	760d91        	l32r	a9, 0xfffded38
    1506:	78a1a2        	movi	a10, 0x178
    1509:	c1a4a0        	mul16u	a10, a4, a10
    150c:	99aa      	add.n	a9, a9, a10
    150e:	800992        	l8ui	a9, a9, 128
    1511:	bfafd2        	movi	a13, -65
    1514:	f84916        	beqz	a9, 0x149c
    1517:	d6b8      	l32i.n	a11, a6, 52
    1519:	e6c8      	l32i.n	a12, a6, 56
    151b:	04b7b0        	extui	a11, a11, 7, 1
    151e:	10ccd0        	and	a12, a12, a13
    1521:	e6c9      	s32i.n	a12, a6, 56
    1523:	f75b56        	bnez	a11, 0x149c
    1526:	760f81        	l32r	a8, 0xfffded64
    1529:	04ad      	mov.n	a10, a4
    152b:	492882        	l32i	a8, a8, 0x124
    152e:	2b0c      	movi.n	a11, 2
    1530:	0008e0        	excw
    1533:	e6f8      	l32i.n	a15, a6, 56
    1535:	f8cab2        	addi	a11, a10, -8
    1538:	0497f0        	extui	a9, a15, 7, 1
    153b:	f5d956        	bnez	a9, 0x149c
    153e:	f5ab56        	bnez	a11, 0x149c
    1541:	03bd      	mov.n	a11, a3
    1543:	04dd      	mov.n	a13, a4
    1545:	05ed      	mov.n	a14, a5
    1547:	07a4a2        	movi	a10, 0x407
    154a:	2c0c      	movi.n	a12, 2
    154c:	80a092        	movi	a9, 128
    154f:	761081        	l32r	a8, 0xfffded90
    1552:	209f90        	or	a9, a15, a9
    1555:	1b2882        	l32i	a8, a8, 108
    1558:	e699      	s32i.n	a9, a6, 56
    155a:	0008e0        	excw
    155d:	ffcec6        	j	0x149c
    1560:	02ad      	mov.n	a10, a2
    1562:	03bd      	mov.n	a11, a3
    1564:	761181        	l32r	a8, 0xfffdeda8
    1567:	04cd      	mov.n	a12, a4
    1569:	0888      	l32i.n	a8, a8, 0
    156b:	05dd      	mov.n	a13, a5
    156d:	0008e0        	excw
    1570:	0a2d      	mov.n	a2, a10
    1572:	f01d      	excw
    1574:	a21c      	movi.n	a2, 26
    1576:	f01d      	excw
    1578:	760f81        	l32r	a8, 0xfffdedb4
    157b:	04ad      	mov.n	a10, a4
    157d:	492882        	l32i	a8, a8, 0x124
    1580:	1b0c      	movi.n	a11, 1
    1582:	0008e0        	excw
    1585:	e6f8      	l32i.n	a15, a6, 56
    1587:	024c      	movi.n	a2, 64
    1589:	0496f0        	extui	a9, a15, 6, 1
    158c:	f0c956        	bnez	a9, 0x149c
    158f:	f9cab2        	addi	a11, a10, -7
    1592:	f06b56        	bnez	a11, 0x149c
    1595:	03bd      	mov.n	a11, a3
    1597:	04dd      	mov.n	a13, a4
    1599:	05ed      	mov.n	a14, a5
    159b:	06a4a2        	movi	a10, 0x406
    159e:	2c0c      	movi.n	a12, 2
    15a0:	761081        	l32r	a8, 0xfffdede0
    15a3:	209f20        	or	a9, a15, a2
    15a6:	1a2882        	l32i	a8, a8, 104
    15a9:	e699      	s32i.n	a9, a6, 56
    15ab:	0008e0        	excw
    15ae:	ffba86        	j	0x149c
    15b1:	000000        	ill
    15b4:	018136        	excw
    15b7:	01ad      	mov.n	a10, a1
    15b9:	7612b1        	l32r	a11, 0xfffdee04
    15bc:	ac0c      	movi.n	a12, 10
    15be:	087965        	excw
    15c1:	10c1a2        	addi	a10, a1, 16
    15c4:	7613b1        	l32r	a11, 0xfffdee10
    15c7:	ac0c      	movi.n	a12, 10
    15c9:	0878a5        	excw
    15cc:	838c      	beqz.n	a3, 0x15d8
    15ce:	03bd      	mov.n	a11, a3
    15d0:	4cc2a2        	addi	a10, a2, 76
    15d3:	ac0c      	movi.n	a12, 10
    15d5:	0877e5        	excw
    15d8:	940c      	movi.n	a4, 9
    15da:	320c      	movi.n	a2, 3
    15dc:	130c      	movi.n	a3, 1
    15de:	761581        	l32r	a8, 0xfffdee34
    15e1:	050c      	movi.n	a5, 0
    15e3:	1f1882        	l16ui	a8, a8, 62
    15e6:	761471        	l32r	a7, 0xfffdee38
    15e9:	048780        	extui	a8, a8, 7, 1
    15ec:	1c3816        	beqz	a8, 0x17b3
    15ef:	056d      	mov.n	a6, a5
    15f1:	0d0c      	movi.n	a13, 0
    15f3:	0b0c      	movi.n	a11, 0
    15f5:	0a0c      	movi.n	a10, 0
    15f7:	480c      	movi.n	a8, 4
    15f9:	7616e1        	l32r	a14, 0xfffdee54
    15fc:	20c1f2        	addi	a15, a1, 32
    15ff:	017d      	mov.n	a7, a1
    1601:	7d7a      	add.n	a7, a13, a7
    1603:	fdfa      	add.n	a15, a13, a15
    1605:	004f52        	s8i	a5, a15, 0
    1608:	edea      	add.n	a14, a13, a14
    160a:	800ee2        	l8ui	a14, a14, 128
    160d:	30a876        	excw
    1610:	401a00        	ssl	a10
    1613:	a1c200        	sll	a12, a2
    1616:	108ce0        	and	a8, a12, a14
    1619:	349c87        	bne	a12, a8, 0x1651
    161c:	000782        	l8ui	a8, a7, 0
    161f:	401a00        	ssl	a10
    1622:	a19300        	sll	a9, a3
    1625:	029d47        	bne	a13, a4, 0x162b
    1628:	046a26        	beqi	a10, 6, 0x1630
    162b:	662b      	addi.n	a6, a6, 2
    162d:	746060        	extui	a6, a6, 0, 8
    1630:	2088c0        	or	a8, a8, a12
    1633:	004782        	s8i	a8, a7, 0
    1636:	aa2b      	addi.n	a10, a10, 2
    1638:	20bb90        	or	a11, a11, a9
    163b:	004fb2        	s8i	a11, a15, 0
    163e:	74a0a0        	extui	a10, a10, 0, 8
    1641:	dd1b      	addi.n	a13, a13, 1
    1643:	74d0d0        	extui	a13, a13, 0, 8
    1646:	a99d66        	bnei	a13, 10, 0x15f3
    1649:	3e1c      	movi.n	a14, 19
    164b:	1a3e67        	bltu	a14, a6, 0x1669
    164e:	000106        	j	0x1656
    1651:	0c9d      	mov.n	a9, a12
    1653:	fff7c6        	j	0x1636
    1656:	01ad      	mov.n	a10, a1
    1658:	fb7c      	movi.n	a11, -1
    165a:	ac0c      	movi.n	a12, 10
    165c:	088165        	excw
    165f:	20c1a2        	addi	a10, a1, 32
    1662:	5b5c      	movi.n	a11, 85
    1664:	ac0c      	movi.n	a12, 10
    1666:	0880e5        	excw
    1669:	3ec1a2        	addi	a10, a1, 62
    166c:	761771        	l32r	a7, 0xfffdeec8
    166f:	ac0c      	movi.n	a12, 10
    1671:	07bd      	mov.n	a11, a7
    1673:	086e25        	excw
    1676:	760b51        	l32r	a5, 0xfffdeea4
    1679:	761431        	l32r	a3, 0xfffdeecc
    167c:	10c1a2        	addi	a10, a1, 16
    167f:	761841        	l32r	a4, 0xfffdeee0
    1682:	ac0c      	movi.n	a12, 10
    1684:	04bd      	mov.n	a11, a4
    1686:	086ce5        	excw
    1689:	04ad      	mov.n	a10, a4
    168b:	e32582        	l32i	a8, a5, 0x38c
    168e:	01bd      	mov.n	a11, a1
    1690:	0008e0        	excw
    1693:	20c1b2        	addi	a11, a1, 32
    1696:	0a2d      	mov.n	a2, a10
    1698:	e42582        	l32i	a8, a5, 0x390
    169b:	07ad      	mov.n	a10, a7
    169d:	0008e0        	excw
    16a0:	6acc      	bnez.n	a10, 0x16aa
    16a2:	761991        	l32r	a9, 0xfffdef08
    16a5:	000992        	l8ui	a9, a9, 0
    16a8:	699c      	beqz.n	a9, 0x16c2
    16aa:	07ad      	mov.n	a10, a7
    16ac:	20c1b2        	addi	a11, a1, 32
    16af:	ac0c      	movi.n	a12, 10
    16b1:	086a25        	excw
    16b4:	761ab1        	l32r	a11, 0xfffdef1c
    16b7:	5a23a2        	l32i	a10, a3, 0x168
    16ba:	4c0c      	movi.n	a12, 4
    16bc:	20aac0        	or	a10, a10, a12
    16bf:	1a6ba2        	s32i	a10, a11, 104
    16c2:	04ad      	mov.n	a10, a4
    16c4:	01bd      	mov.n	a11, a1
    16c6:	ac0c      	movi.n	a12, 10
    16c8:	0868a5        	excw
    16cb:	236122        	s32i	a2, a1, 140
    16ce:	9203d2        	l8ui	a13, a3, 146
    16d1:	761be1        	l32r	a14, 0xfffdef40
    16d4:	64d0d0        	extui	a13, a13, 0, 7
    16d7:	124ed2        	s8i	a13, a14, 18
    16da:	0b8216        	beqz	a2, 0x1796
    16dd:	0a0c      	movi.n	a10, 0
    16df:	ffa062        	movi	a6, 255
    16e2:	761c31        	l32r	a3, 0xfffdef54
    16e5:	c8a0b2        	movi	a11, 200
    16e8:	c1bab0        	mul16u	a11, a10, a11
    16eb:	b3ba      	add.n	a11, a3, a11
    16ed:	7c0be2        	l8ui	a14, a11, 124
    16f0:	0a1e67        	beq	a14, a6, 0x16fe
    16f3:	2d2bc2        	l32i	a12, a11, 180
    16f6:	046c07        	bbci	a12, 0, 0x16fe
    16f9:	1a0c      	movi.n	a10, 1
    16fb:	000246        	j	0x1708
    16fe:	aa1b      	addi.n	a10, a10, 1
    1700:	74a0a0        	extui	a10, a10, 0, 8
    1703:	de7ab6        	bltui	a10, 7, 0x16e5
    1706:	0a0c      	movi.n	a10, 0
    1708:	760ec1        	l32r	a12, 0xfffdef40
    170b:	761dd1        	l32r	a13, 0xfffdef80
    170e:	1ce8      	l32i.n	a14, a12, 4
    1710:	02dcc2        	addmi	a12, a12, 0x200
    1713:	8c2cc2        	l32i	a12, a12, 0x230
    1716:	ee4b      	addi.n	a14, a14, 4
    1718:	10eed0        	and	a14, a14, a13
    171b:	c0cce0        	sub	a12, a12, a14
    171e:	10bcd0        	and	a11, a12, a13
    1721:	050cd7        	bnone	a12, a13, 0x172a
    1724:	761ed1        	l32r	a13, 0xfffdef9c
    1727:	04bdb7        	bgeu	a13, a11, 0x172f
    172a:	190c      	movi.n	a9, 1
    172c:	000046        	j	0x1731
    172f:	090c      	movi.n	a9, 0
    1731:	066916        	beqz	a9, 0x179b
    1734:	236122        	s32i	a2, a1, 140
    1737:	060a56        	bnez	a10, 0x179b
    173a:	762071        	l32r	a7, 0xfffdefbc
    173d:	762141        	l32r	a4, 0xfffdefc4
    1740:	020c      	movi.n	a2, 0
    1742:	761f91        	l32r	a9, 0xfffdefc0
    1745:	146192        	s32i	a9, a1, 80
    1748:	7c03a2        	l8ui	a10, a3, 124
    174b:	3d1a67        	beq	a10, a6, 0x178c
    174e:	c2cc      	bnez.n	a2, 0x175e
    1750:	e62582        	l32i	a8, a5, 0x398
    1753:	0008e0        	excw
    1756:	762291        	l32r	a9, 0xfffdefe0
    1759:	120c      	movi.n	a2, 1
    175b:	6169a2        	s32i	a10, a9, 0x184
    175e:	de2582        	l32i	a8, a5, 0x378
    1761:	ba2c      	movi.n	a10, 43
    1763:	0008e0        	excw
    1766:	221a66        	bnei	a10, 1, 0x178c
    1769:	3a2c      	movi.n	a10, 35
    176b:	df2582        	l32i	a8, a5, 0x37c
    176e:	04bd      	mov.n	a11, a4
    1770:	0008e0        	excw
    1773:	151a66        	bnei	a10, 1, 0x178c
    1776:	21a4a2        	movi	a10, 0x421
    1779:	1421b2        	l32i	a11, a1, 80
    177c:	2c0c      	movi.n	a12, 2
    177e:	761081        	l32r	a8, 0xfffdefc0
    1781:	7c03d2        	l8ui	a13, a3, 124
    1784:	352882        	l32i	a8, a8, 212
    1787:	3e0c      	movi.n	a14, 3
    1789:	0008e0        	excw
    178c:	c8a092        	movi	a9, 200
    178f:	449a      	add.n	a4, a4, a9
    1791:	339a      	add.n	a3, a3, a9
    1793:	b19377        	bne	a3, a7, 0x1748
    1796:	232122        	l32i	a2, a1, 140
    1799:	f01d      	excw
    179b:	07ad      	mov.n	a10, a7
    179d:	3ec1b2        	addi	a11, a1, 62
    17a0:	ac0c      	movi.n	a12, 10
    17a2:	085b25        	excw
    17a5:	04ad      	mov.n	a10, a4
    17a7:	10c1b2        	addi	a11, a1, 16
    17aa:	ac0c      	movi.n	a12, 10
    17ac:	085a65        	excw
    17af:	020c      	movi.n	a2, 0
    17b1:	f01d      	excw
    17b3:	760b81        	l32r	a8, 0xfffdefe0
    17b6:	2ac1a2        	addi	a10, a1, 42
    17b9:	e52882        	l32i	a8, a8, 0x394
    17bc:	03bd      	mov.n	a11, a3
    17be:	0008e0        	excw
    17c1:	34c1a2        	addi	a10, a1, 52
    17c4:	5b5c      	movi.n	a11, 85
    17c6:	ac0c      	movi.n	a12, 10
    17c8:	086aa5        	excw
    17cb:	5a2792        	l32i	a9, a7, 0x168
    17ce:	08e917        	bbsi	a9, 1, 0x17da
    17d1:	7623a1        	l32r	a10, 0xfffdf060
    17d4:	1961a2        	s32i	a10, a1, 100
    17d7:	000146        	j	0x17e0
    17da:	34c1b2        	addi	a11, a1, 52
    17dd:	1961b2        	s32i	a11, a1, 100
    17e0:	060c      	movi.n	a6, 0
    17e2:	20c1f2        	addi	a15, a1, 32
    17e5:	2ac172        	addi	a7, a1, 42
    17e8:	ac0c      	movi.n	a12, 10
    17ea:	01dd      	mov.n	a13, a1
    17ec:	2ac1e2        	addi	a14, a1, 42
    17ef:	761681        	l32r	a8, 0xfffdf048
    17f2:	1d6182        	s32i	a8, a1, 116
    17f5:	1c61e2        	s32i	a14, a1, 112
    17f8:	1f61d2        	s32i	a13, a1, 124
    17fb:	1a61c2        	s32i	a12, a1, 104
    17fe:	156172        	s32i	a7, a1, 84
    1801:	070c      	movi.n	a7, 0
    1803:	004f52        	s8i	a5, a15, 0
    1806:	0e0c      	movi.n	a14, 0
    1808:	0a0c      	movi.n	a10, 0
    180a:	490c      	movi.n	a9, 4
    180c:	1c21d2        	l32i	a13, a1, 112
    180f:	1d21b2        	l32i	a11, a1, 116
    1812:	1921c2        	l32i	a12, a1, 100
    1815:	800bb2        	l8ui	a11, a11, 128
    1818:	c6ca      	add.n	a12, a6, a12
    181a:	000dd2        	l8ui	a13, a13, 0
    181d:	2061d2        	s32i	a13, a1, 128
    1820:	1b61c2        	s32i	a12, a1, 108
    1823:	1e61b2        	s32i	a11, a1, 120
    1826:	64a976        	excw
    1829:	0c0c      	movi.n	a12, 0
    182b:	0d0c      	movi.n	a13, 0
    182d:	1e2182        	l32i	a8, a1, 120
    1830:	401a00        	ssl	a10
    1833:	a1b200        	sll	a11, a2
    1836:	108b80        	and	a8, a11, a8
    1839:	109b87        	bne	a11, a8, 0x184d
    183c:	1b2192        	l32i	a9, a1, 108
    183f:	000992        	l8ui	a9, a9, 0
    1842:	a18300        	sll	a8, a3
    1845:	109b90        	and	a9, a11, a9
    1848:	019987        	bne	a9, a8, 0x184d
    184b:	1d0c      	movi.n	a13, 1
    184d:	5d9c      	beqz.n	a13, 0x1866
    184f:	401a00        	ssl	a10
    1852:	2021d2        	l32i	a13, a1, 128
    1855:	a18300        	sll	a8, a3
    1858:	10dbd0        	and	a13, a11, a13
    185b:	051d87        	beq	a13, a8, 0x1864
    185e:	202182        	l32i	a8, a1, 128
    1861:	018b87        	bany	a11, a8, 0x1866
    1864:	1c0c      	movi.n	a12, 1
    1866:	056c16        	beqz	a12, 0x18c0
    1869:	1f21c2        	l32i	a12, a1, 124
    186c:	401a00        	ssl	a10
    186f:	000c82        	l8ui	a8, a12, 0
    1872:	a19300        	sll	a9, a3
    1875:	2088b0        	or	a8, a8, a11
    1878:	029647        	bne	a6, a4, 0x187e
    187b:	046a26        	beqi	a10, 6, 0x1883
    187e:	772b      	addi.n	a7, a7, 2
    1880:	747070        	extui	a7, a7, 0, 8
    1883:	004c82        	s8i	a8, a12, 0
    1886:	aa2b      	addi.n	a10, a10, 2
    1888:	20ee90        	or	a14, a14, a9
    188b:	004fe2        	s8i	a14, a15, 0
    188e:	661b      	addi.n	a6, a6, 1
    1890:	ff1b      	addi.n	a15, a15, 1
    1892:	1f21c2        	l32i	a12, a1, 124
    1895:	1d21b2        	l32i	a11, a1, 116
    1898:	1a2192        	l32i	a9, a1, 104
    189b:	1c21a2        	l32i	a10, a1, 112
    189e:	990b      	addi.n	a9, a9, -1
    18a0:	aa1b      	addi.n	a10, a10, 1
    18a2:	bb1b      	addi.n	a11, a11, 1
    18a4:	cc1b      	addi.n	a12, a12, 1
    18a6:	1f61c2        	s32i	a12, a1, 124
    18a9:	1d61b2        	s32i	a11, a1, 116
    18ac:	1c61a2        	s32i	a10, a1, 112
    18af:	1a6192        	s32i	a9, a1, 104
    18b2:	f4d956        	bnez	a9, 0x1803
    18b5:	3d1c      	movi.n	a13, 19
    18b7:	02bd77        	bgeu	a13, a7, 0x18bd
    18ba:	ff6ac6        	j	0x1669
    18bd:	000106        	j	0x18c5
    18c0:	0b9d      	mov.n	a9, a11
    18c2:	fff006        	j	0x1886
    18c5:	060c      	movi.n	a6, 0
    18c7:	01ad      	mov.n	a10, a1
    18c9:	0b0c      	movi.n	a11, 0
    18cb:	ac0c      	movi.n	a12, 10
    18cd:	085a65        	excw
    18d0:	0d0c      	movi.n	a13, 0
    18d2:	20c1c2        	addi	a12, a1, 32
    18d5:	017d      	mov.n	a7, a1
    18d7:	7616e1        	l32r	a14, 0xfffdf130
    18da:	1861e2        	s32i	a14, a1, 96
    18dd:	004c52        	s8i	a5, a12, 0
    18e0:	0f0c      	movi.n	a15, 0
    18e2:	0a0c      	movi.n	a10, 0
    18e4:	480c      	movi.n	a8, 4
    18e6:	182192        	l32i	a9, a1, 96
    18e9:	1921b2        	l32i	a11, a1, 100
    18ec:	800992        	l8ui	a9, a9, 128
    18ef:	bdba      	add.n	a11, a13, a11
    18f1:	1361b2        	s32i	a11, a1, 76
    18f4:	166192        	s32i	a9, a1, 88
    18f7:	4ba876        	excw
    18fa:	0e0c      	movi.n	a14, 0
    18fc:	162182        	l32i	a8, a1, 88
    18ff:	401a00        	ssl	a10
    1902:	a1b200        	sll	a11, a2
    1905:	1761b2        	s32i	a11, a1, 92
    1908:	108b80        	and	a8, a11, a8
    190b:	109b87        	bne	a11, a8, 0x191f
    190e:	132192        	l32i	a9, a1, 76
    1911:	000992        	l8ui	a9, a9, 0
    1914:	a18300        	sll	a8, a3
    1917:	109b90        	and	a9, a11, a9
    191a:	019987        	bne	a9, a8, 0x191f
    191d:	1e0c      	movi.n	a14, 1
    191f:	be9c      	beqz.n	a14, 0x193e
    1921:	172192        	l32i	a9, a1, 92
    1924:	000782        	l8ui	a8, a7, 0
    1927:	401a00        	ssl	a10
    192a:	a1b300        	sll	a11, a3
    192d:	208890        	or	a8, a8, a9
    1930:	029d47        	bne	a13, a4, 0x1936
    1933:	046a26        	beqi	a10, 6, 0x193b
    1936:	662b      	addi.n	a6, a6, 2
    1938:	746060        	extui	a6, a6, 0, 8
    193b:	004782        	s8i	a8, a7, 0
    193e:	aa2b      	addi.n	a10, a10, 2
    1940:	20ffb0        	or	a15, a15, a11
    1943:	004cf2        	s8i	a15, a12, 0
    1946:	dd1b      	addi.n	a13, a13, 1
    1948:	771b      	addi.n	a7, a7, 1
    194a:	1521a2        	l32i	a10, a1, 84
    194d:	1821b2        	l32i	a11, a1, 96
    1950:	cc1b      	addi.n	a12, a12, 1
    1952:	bb1b      	addi.n	a11, a11, 1
    1954:	1861b2        	s32i	a11, a1, 96
    1957:	829ca7        	bne	a12, a10, 0x18dd
    195a:	0b0c      	movi.n	a11, 0
    195c:	0d0c      	movi.n	a13, 0
    195e:	3e1c      	movi.n	a14, 19
    1960:	02be67        	bgeu	a14, a6, 0x1966
    1963:	ff4086        	j	0x1669
    1966:	226162        	s32i	a6, a1, 136
    1969:	3f1c      	movi.n	a15, 19
    196b:	02bfd7        	bgeu	a15, a13, 0x1971
    196e:	005246        	j	0x1abb
    1971:	0c0c      	movi.n	a12, 0
    1973:	dd1b      	addi.n	a13, a13, 1
    1975:	74d0d0        	extui	a13, a13, 0, 8
    1978:	0a0c      	movi.n	a10, 0
    197a:	11fcd0        	slli	a15, a12, 3
    197d:	20c172        	addi	a7, a1, 32
    1980:	7c7a      	add.n	a7, a12, a7
    1982:	000782        	l8ui	a8, a7, 0
    1985:	401a00        	ssl	a10
    1988:	a19300        	sll	a9, a3
    198b:	a1e200        	sll	a14, a2
    198e:	1088e0        	and	a8, a8, a14
    1991:	0a9897        	bne	a8, a9, 0x199f
    1994:	10ab56        	bnez	a11, 0x1aa2
    1997:	bfaa      	add.n	a11, a15, a10
    1999:	74b0b0        	extui	a11, a11, 0, 8
    199c:	004086        	j	0x1aa2
    199f:	0ffb16        	beqz	a11, 0x1aa2
    19a2:	9faa      	add.n	a9, a15, a10
    19a4:	fec992        	addi	a9, a9, -2
    19a7:	74e090        	extui	a14, a9, 0, 8
    19aa:	c08eb0        	sub	a8, a14, a11
    19ad:	0298e6        	bgei	a8, 10, 0x19b3
    19b0:	003b06        	j	0x1aa0
    19b3:	126192        	s32i	a9, a1, 72
    19b6:	216172        	s32i	a7, a1, 132
    19b9:	742bb6        	bltui	a11, 2, 0x1a31
    19bc:	7493b0        	extui	a9, a11, 3, 8
    19bf:	24b0b0        	extui	a11, a11, 0, 3
    19c2:	bbec      	bnez.n	a11, 0x19f1
    19c4:	246122        	s32i	a2, a1, 144
    19c7:	a0c122        	addi	a2, a1, -96
    19ca:	292a      	add.n	a2, a9, a2
    19cc:	7f02b2        	l8ui	a11, a2, 127
    19cf:	084c      	movi.n	a8, 64
    19d1:	54b0b0        	extui	a11, a11, 0, 6
    19d4:	20bb80        	or	a11, a11, a8
    19d7:	7f42b2        	s8i	a11, a2, 127
    19da:	80c182        	addi	a8, a1, -128
    19dd:	898a      	add.n	a8, a9, a8
    19df:	7f0822        	l8ui	a2, a8, 127
    19e2:	c0a0b2        	movi	a11, 192
    19e5:	2022b0        	or	a2, a2, a11
    19e8:	7f4822        	s8i	a2, a8, 127
    19eb:	242122        	l32i	a2, a1, 144
    19ee:	000d06        	j	0x1a26
    19f1:	20c182        	addi	a8, a1, 32
    19f4:	fecb32        	addi	a3, a11, -2
    19f7:	401300        	ssl	a3
    19fa:	898a      	add.n	a8, a9, a8
    19fc:	a1b200        	sll	a11, a2
    19ff:	f27c      	movi.n	a2, -1
    1a01:	000832        	l8ui	a3, a8, 0
    1a04:	302b20        	xor	a2, a11, a2
    1a07:	103320        	and	a3, a3, a2
    1a0a:	120c      	movi.n	a2, 1
    1a0c:	a12200        	sll	a2, a2
    1a0f:	203320        	or	a3, a3, a2
    1a12:	012d      	mov.n	a2, a1
    1a14:	004832        	s8i	a3, a8, 0
    1a17:	292a      	add.n	a2, a9, a2
    1a19:	000232        	l8ui	a3, a2, 0
    1a1c:	20bb30        	or	a11, a11, a3
    1a1f:	130c      	movi.n	a3, 1
    1a21:	0042b2        	s8i	a11, a2, 0
    1a24:	320c      	movi.n	a2, 3
    1a26:	029c47        	bne	a12, a4, 0x1a2c
    1a29:	046a26        	beqi	a10, 6, 0x1a31
    1a2c:	662b      	addi.n	a6, a6, 2
    1a2e:	746060        	extui	a6, a6, 0, 8
    1a31:	d84c      	movi.n	a8, 77
    1a33:	6138e7        	bltu	a8, a14, 0x1a98
    1a36:	790c      	movi.n	a9, 7
    1a38:	20c172        	addi	a7, a1, 32
    1a3b:	74b3e0        	extui	a11, a14, 3, 8
    1a3e:	018d      	mov.n	a8, a1
    1a40:	7b7a      	add.n	a7, a11, a7
    1a42:	bb8a      	add.n	a11, a11, a8
    1a44:	2d09e7        	bnone	a9, a14, 0x1a75
    1a47:	122182        	l32i	a8, a1, 72
    1a4a:	fe7c      	movi.n	a14, -1
    1a4c:	248080        	extui	a8, a8, 0, 3
    1a4f:	882b      	addi.n	a8, a8, 2
    1a51:	401800        	ssl	a8
    1a54:	a19200        	sll	a9, a2
    1a57:	000782        	l8ui	a8, a7, 0
    1a5a:	30e9e0        	xor	a14, a9, a14
    1a5d:	1088e0        	and	a8, a8, a14
    1a60:	a1e300        	sll	a14, a3
    1a63:	2088e0        	or	a8, a8, a14
    1a66:	000be2        	l8ui	a14, a11, 0
    1a69:	004782        	s8i	a8, a7, 0
    1a6c:	2099e0        	or	a9, a9, a14
    1a6f:	004b92        	s8i	a9, a11, 0
    1a72:	000506        	j	0x1a8a
    1a75:	010792        	l8ui	a9, a7, 1
    1a78:	010be2        	l8ui	a14, a11, 1
    1a7b:	149090        	extui	a9, a9, 0, 2
    1a7e:	20ee20        	or	a14, a14, a2
    1a81:	014be2        	s8i	a14, a11, 1
    1a84:	209930        	or	a9, a9, a3
    1a87:	014792        	s8i	a9, a7, 1
    1a8a:	212172        	l32i	a7, a1, 132
    1a8d:	029c47        	bne	a12, a4, 0x1a93
    1a90:	046a26        	beqi	a10, 6, 0x1a98
    1a93:	662b      	addi.n	a6, a6, 2
    1a95:	746060        	extui	a6, a6, 0, 8
    1a98:	381c      	movi.n	a8, 19
    1a9a:	02b867        	bgeu	a8, a6, 0x1aa0
    1a9d:	fef206        	j	0x1669
    1aa0:	0b0c      	movi.n	a11, 0
    1aa2:	aa2b      	addi.n	a10, a10, 2
    1aa4:	74a0a0        	extui	a10, a10, 0, 8
    1aa7:	027af6        	bgeui	a10, 7, 0x1aad
    1aaa:	ffb506        	j	0x1982
    1aad:	cc1b      	addi.n	a12, a12, 1
    1aaf:	74c0c0        	extui	a12, a12, 0, 8
    1ab2:	029cf6        	bgeui	a12, 10, 0x1ab8
    1ab5:	ffafc6        	j	0x1978
    1ab8:	ffa886        	j	0x195e
    1abb:	3d1c      	movi.n	a13, 19
    1abd:	02bd67        	bgeu	a13, a6, 0x1ac3
    1ac0:	fee946        	j	0x1669
    1ac3:	01ad      	mov.n	a10, a1
    1ac5:	0b0c      	movi.n	a11, 0
    1ac7:	ac0c      	movi.n	a12, 10
    1ac9:	083aa5        	excw
    1acc:	7616d1        	l32r	a13, 0xfffdf324
    1acf:	20c1b2        	addi	a11, a1, 32
    1ad2:	01cd      	mov.n	a12, a1
    1ad4:	004b52        	s8i	a5, a11, 0
    1ad7:	0e0c      	movi.n	a14, 0
    1ad9:	0a0c      	movi.n	a10, 0
    1adb:	800d42        	l8ui	a4, a13, 128
    1ade:	04a0f2        	movi	a15, 4
    1ae1:	1faf76        	excw
    1ae4:	401a00        	ssl	a10
    1ae7:	a1f200        	sll	a15, a2
    1aea:	108f40        	and	a8, a15, a4
    1aed:	229f87        	bne	a15, a8, 0x1b13
    1af0:	000c82        	l8ui	a8, a12, 0
    1af3:	a19300        	sll	a9, a3
    1af6:	2088f0        	or	a8, a8, a15
    1af9:	004c82        	s8i	a8, a12, 0
    1afc:	aa2b      	addi.n	a10, a10, 2
    1afe:	20ee90        	or	a14, a14, a9
    1b01:	004be2        	s8i	a14, a11, 0
    1b04:	cc1b      	addi.n	a12, a12, 1
    1b06:	dd1b      	addi.n	a13, a13, 1
    1b08:	152192        	l32i	a9, a1, 84
    1b0b:	bb1b      	addi.n	a11, a11, 1
    1b0d:	c39b97        	bne	a11, a9, 0x1ad4
    1b10:	fed546        	j	0x1669
    1b13:	0f9d      	mov.n	a9, a15
    1b15:	fff8c6        	j	0x1afc
    1b18:	004136        	excw
    1b1b:	762481        	l32r	a8, 0xfffdf3ac
    1b1e:	6d2882        	l32i	a8, a8, 0x1b4
    1b21:	0008e0        	excw
    1b24:	231a26        	beqi	a10, 1, 0x1b4b
    1b27:	7625a1        	l32r	a10, 0xfffdf3bc
    1b2a:	520c      	movi.n	a2, 5
    1b2c:	1093a0        	and	a9, a3, a10
    1b2f:	0499a7        	bne	a9, a10, 0x1b37
    1b32:	14be30        	extui	a11, a3, 14, 2
    1b35:	0b8c      	beqz.n	a11, 0x1b39
    1b37:	f01d      	excw
    1b39:	00a3d2        	movi	a13, 0x300
    1b3c:	10c3d0        	and	a12, a3, a13
    1b3f:	049cd7        	bne	a12, a13, 0x1b47
    1b42:	14ea30        	extui	a14, a3, 10, 2
    1b45:	2e8c      	beqz.n	a14, 0x1b4b
    1b47:	320c      	movi.n	a2, 3
    1b49:	f01d      	excw
    1b4b:	120c      	movi.n	a2, 1
    1b4d:	f01d      	excw
    1b4f:	a13600        	sll	a3, a6
    1b52:	1d0c00        	excw
    1b55:	07cd      	mov.n	a12, a7
    1b57:	0e5152        	s16i	a5, a1, 28
    1b5a:	762471        	l32r	a7, 0xfffdf3ec
    1b5d:	0173b6        	bltui	a3, 7, 0x1b62
    1b60:	0d0c      	movi.n	a13, 0
    1b62:	02ad      	mov.n	a10, a2
    1b64:	03bd      	mov.n	a11, a3
    1b66:	030482        	l8ui	a8, a4, 3
    1b69:	0204f2        	l8ui	a15, a4, 2
    1b6c:	018880        	slli	a8, a8, 24
    1b6f:	11ff00        	slli	a15, a15, 16
    1b72:	ff8a      	add.n	a15, a15, a8
    1b74:	010482        	l8ui	a8, a4, 1
    1b77:	0004e2        	l8ui	a14, a4, 0
    1b7a:	118880        	slli	a8, a8, 8
    1b7d:	ee8a      	add.n	a14, a14, a8
    1b7f:	482782        	l32i	a8, a7, 0x120
    1b82:	eefa      	add.n	a14, a14, a15
    1b84:	0008e0        	excw
    1b87:	0a5d      	mov.n	a5, a10
    1b89:	7610f1        	l32r	a15, 0xfffdf3cc
    1b8c:	0c7a56        	bnez	a10, 0x1c57
    1b8f:	5a0c      	movi.n	a10, 5
    1b91:	fcdf82        	addmi	a8, a15, 0xfffffc00
    1b94:	df2882        	l32i	a8, a8, 0x37c
    1b97:	02bd      	mov.n	a11, a2
    1b99:	0008e0        	excw
    1b9c:	7610f1        	l32r	a15, 0xfffdf3dc
    1b9f:	0b4a16        	beqz	a10, 0x1c57
    1ba2:	fcdf82        	addmi	a8, a15, 0xfffffc00
    1ba5:	de2882        	l32i	a8, a8, 0x378
    1ba8:	5a0c      	movi.n	a10, 5
    1baa:	0008e0        	excw
    1bad:	7610f1        	l32r	a15, 0xfffdf3f0
    1bb0:	0a3a16        	beqz	a10, 0x1c57
    1bb3:	010292        	l8ui	a9, a2, 1
    1bb6:	0502b2        	l8ui	a11, a2, 5
    1bb9:	0839f6        	bgeui	a9, 3, 0x1bc5
    1bbc:	1222a2        	l32i	a10, a2, 72
    1bbf:	04a4a0        	extui	a10, a10, 4, 1
    1bc2:	091a16        	beqz	a10, 0x1c57
    1bc5:	bb0b      	addi.n	a11, a11, -1
    1bc7:	08cb16        	beqz	a11, 0x1c57
    1bca:	760b51        	l32r	a5, 0xfffdf3f8
    1bcd:	1173b6        	bltui	a3, 7, 0x1be2
    1bd0:	19a4a2        	movi	a10, 0x419
    1bd3:	04bd      	mov.n	a11, a4
    1bd5:	2c0c      	movi.n	a12, 2
    1bd7:	0002d2        	l8ui	a13, a2, 0
    1bda:	2d2f82        	l32i	a8, a15, 180
    1bdd:	0e0c      	movi.n	a14, 0
    1bdf:	0008e0        	excw
    1be2:	1cc1b2        	addi	a11, a1, 28
    1be5:	eaa3a2        	movi	a10, 0x3ea
    1be8:	2c0c      	movi.n	a12, 2
    1bea:	0002d2        	l8ui	a13, a2, 0
    1bed:	ff2582        	l32i	a8, a5, 0x3fc
    1bf0:	3e0c      	movi.n	a14, 3
    1bf2:	0008e0        	excw
    1bf5:	6e2782        	l32i	a8, a7, 0x1b8
    1bf8:	0304b2        	l8ui	a11, a4, 3
    1bfb:	0204a2        	l8ui	a10, a4, 2
    1bfe:	01bb80        	slli	a11, a11, 24
    1c01:	11aa00        	slli	a10, a10, 16
    1c04:	aaba      	add.n	a10, a10, a11
    1c06:	0104b2        	l8ui	a11, a4, 1
    1c09:	000492        	l8ui	a9, a4, 0
    1c0c:	11bb80        	slli	a11, a11, 8
    1c0f:	99ba      	add.n	a9, a9, a11
    1c11:	2b0c      	movi.n	a11, 2
    1c13:	99aa      	add.n	a9, a9, a10
    1c15:	106292        	s32i	a9, a2, 64
    1c18:	02ad      	mov.n	a10, a2
    1c1a:	0008e0        	excw
    1c1d:	0002a2        	l8ui	a10, a2, 0
    1c20:	1022b2        	l32i	a11, a2, 64
    1c23:	7626c1        	l32r	a12, 0xfffdf4bc
    1c26:	762781        	l32r	a8, 0xfffdf4c4
    1c29:	122292        	l32i	a9, a2, 72
    1c2c:	cd2882        	l32i	a8, a8, 0x334
    1c2f:	2099c0        	or	a9, a9, a12
    1c32:	126292        	s32i	a9, a2, 72
    1c35:	0008e0        	excw
    1c38:	6a8c      	beqz.n	a10, 0x1c42
    1c3a:	760ca1        	l32r	a10, 0xfffdf46c
    1c3d:	0b0c      	movi.n	a11, 0
    1c3f:	b79665        	excw
    1c42:	06ed      	mov.n	a14, a6
    1c44:	23b300        	excw
    1c47:	d23b      	addi.n	a13, a2, 3
    1c49:	2a0c      	movi.n	a10, 2
    1c4b:	1d2782        	l32i	a8, a7, 116
    1c4e:	7628c1        	l32r	a12, 0xfffdf4f0
    1c51:	0008e0        	excw
    1c54:	0008c6        	j	0x1c7b
    1c57:	3e0c      	movi.n	a14, 3
    1c59:	0f88      	l32i.n	a8, a15, 0
    1c5b:	d8c5c2        	addi	a12, a5, -40
    1c5e:	8b2c      	movi.n	a11, 40
    1c60:	1a2c      	movi.n	a10, 33
    1c62:	0e1192        	l16ui	a9, a1, 28
    1c65:	005192        	s16i	a9, a1, 0
    1c68:	83abc0        	moveqz	a10, a11, a12
    1c6b:	01bd      	mov.n	a11, a1
    1c6d:	2c0c      	movi.n	a12, 2
    1c6f:	0151a2        	s16i	a10, a1, 2
    1c72:	0002d2        	l8ui	a13, a2, 0
    1c75:	eba3a2        	movi	a10, 0x3eb
    1c78:	0008e0        	excw
    1c7b:	020c      	movi.n	a2, 0
    1c7d:	f01d      	excw
    1c7f:	413600        	srli	a3, a0, 6
    1c82:	149100        	extui	a9, a0, 1, 2
    1c85:	1a0c76        	excw
    1c88:	028d      	mov.n	a8, a2
    1c8a:	938a20        	movnez	a8, a10, a2
    1c8d:	014982        	s8i	a8, a9, 1
    1c90:	072216        	beqz	a2, 0x1d06
    1c93:	762981        	l32r	a8, 0xfffdf538
    1c96:	f888      	l32i.n	a8, a8, 60
    1c98:	762aa1        	l32r	a10, 0xfffdf540
    1c9b:	0008e0        	excw
    1c9e:	762ca1        	l32r	a10, 0xfffdf550
    1ca1:	762b91        	l32r	a9, 0xfffdf550
    1ca4:	760f81        	l32r	a8, 0xfffdf4e0
    1ca7:	020c      	movi.n	a2, 0
    1ca9:	e42882        	l32i	a8, a8, 0x390
    1cac:	044922        	s8i	a2, a9, 4
    1caf:	0008e0        	excw
    1cb2:	762eb1        	l32r	a11, 0xfffdf56c
    1cb5:	fa7c      	movi.n	a10, -1
    1cb7:	762d91        	l32r	a9, 0xfffdf56c
    1cba:	0020c0        	memw
    1cbd:	a22982        	l32i	a8, a9, 0x288
    1cc0:	1c7c      	movi.n	a12, -15
    1cc2:	1088c0        	and	a8, a8, a12
    1cc5:	0020c0        	memw
    1cc8:	a26982        	s32i	a8, a9, 0x288
    1ccb:	0020c0        	memw
    1cce:	9b6b22        	s32i	a2, a11, 0x26c
    1cd1:	0020c0        	memw
    1cd4:	9f6b22        	s32i	a2, a11, 0x27c
    1cd7:	3f0c      	movi.n	a15, 3
    1cd9:	0020c0        	memw
    1cdc:	922be2        	l32i	a14, a11, 0x248
    1cdf:	20eef0        	or	a14, a14, a15
    1ce2:	0020c0        	memw
    1ce5:	926be2        	s32i	a14, a11, 0x248
    1ce8:	fca3d2        	movi	a13, 0x3fc
    1ceb:	0020c0        	memw
    1cee:	922bc2        	l32i	a12, a11, 0x248
    1cf1:	10ccd0        	and	a12, a12, a13
    1cf4:	0020c0        	memw
    1cf7:	926bc2        	s32i	a12, a11, 0x248
    1cfa:	0020c0        	memw
    1cfd:	9a6ba2        	s32i	a10, a11, 0x268
    1d00:	0020c0        	memw
    1d03:	9e6ba2        	s32i	a10, a11, 0x278
    1d06:	762781        	l32r	a8, 0xfffdf5a4
    1d09:	1a0c      	movi.n	a10, 1
    1d0b:	e12882        	l32i	a8, a8, 0x384
    1d0e:	1b0c      	movi.n	a11, 1
    1d10:	0008e0        	excw
    1d13:	f01d      	excw
    1d15:	000000        	ill
    1d18:	004136        	excw
    1d1b:	8da082        	movi	a8, 141
    1d1e:	3c9487        	bne	a4, a8, 0x1d5e
    1d21:	0c0c      	movi.n	a12, 0
    1d23:	d398      	l32i.n	a9, a3, 52
    1d25:	762471        	l32r	a7, 0xfffdf5b8
    1d28:	22f927        	bbsi	a9, 18, 0x1d4e
    1d2b:	762fa1        	l32r	a10, 0xfffdf5e8
    1d2e:	0003b2        	l8ui	a11, a3, 0
    1d31:	78a1d2        	movi	a13, 0x178
    1d34:	c1bbd0        	mul16u	a11, a11, a13
    1d37:	aaba      	add.n	a10, a10, a11
    1d39:	7f2aa2        	l32i	a10, a10, 0x1fc
    1d3c:	0eea17        	bbsi	a10, 1, 0x1d4e
    1d3f:	02d782        	addmi	a8, a7, 0x200
    1d42:	a92882        	l32i	a8, a8, 0x2a4
    1d45:	03ad      	mov.n	a10, a3
    1d47:	0008e0        	excw
    1d4a:	0c0c      	movi.n	a12, 0
    1d4c:	8aac      	beqz.n	a10, 0x1d78
    1d4e:	06c9      	s32i.n	a12, a6, 0
    1d50:	04bd      	mov.n	a11, a4
    1d52:	e02782        	l32i	a8, a7, 0x380
    1d55:	0a0c      	movi.n	a10, 0
    1d57:	0008e0        	excw
    1d5a:	0628      	l32i.n	a2, a6, 0
    1d5c:	f01d      	excw
    1d5e:	02ad      	mov.n	a10, a2
    1d60:	03bd      	mov.n	a11, a3
    1d62:	04cd      	mov.n	a12, a4
    1d64:	05dd      	mov.n	a13, a5
    1d66:	761181        	l32r	a8, 0xfffdf5ac
    1d69:	07fd      	mov.n	a15, a7
    1d6b:	1888      	l32i.n	a8, a8, 4
    1d6d:	06ed      	mov.n	a14, a6
    1d6f:	0008e0        	excw
    1d72:	0a2d      	mov.n	a2, a10
    1d74:	06a9      	s32i.n	a10, a6, 0
    1d76:	f01d      	excw
    1d78:	010392        	l8ui	a9, a3, 1
    1d7b:	fdc992        	addi	a9, a9, -3
    1d7e:	108956        	bnez	a9, 0x1e8a
    1d81:	760b81        	l32r	a8, 0xfffdf5b0
    1d84:	7a0c      	movi.n	a10, 7
    1d86:	df2882        	l32i	a8, a8, 0x37c
    1d89:	03bd      	mov.n	a11, a3
    1d8b:	0008e0        	excw
    1d8e:	0f8a16        	beqz	a10, 0x1e8a
    1d91:	760b81        	l32r	a8, 0xfffdf5c0
    1d94:	de2882        	l32i	a8, a8, 0x378
    1d97:	7a0c      	movi.n	a10, 7
    1d99:	0008e0        	excw
    1d9c:	0eaa16        	beqz	a10, 0x1e8a
    1d9f:	030392        	l8ui	a9, a3, 3
    1da2:	c5c992        	addi	a9, a9, -59
    1da5:	0e1956        	bnez	a9, 0x1e8a
    1da8:	0215c2        	l16ui	a12, a5, 4
    1dab:	7630a1        	l32r	a10, 0xfffdf66c
    1dae:	04bac7        	bgeu	a10, a12, 0x1db6
    1db1:	0255a2        	s16i	a10, a5, 4
    1db4:	0acd      	mov.n	a12, a10
    1db6:	076c07        	bbci	a12, 0, 0x1dc1
    1db9:	cc1b      	addi.n	a12, a12, 1
    1dbb:	f4c0c0        	extui	a12, a12, 0, 16
    1dbe:	0255c2        	s16i	a12, a5, 4
    1dc1:	6b0c      	movi.n	a11, 6
    1dc3:	026cf6        	bgeui	a12, 6, 0x1dc9
    1dc6:	0255b2        	s16i	a11, a5, 4
    1dc9:	0315c2        	l16ui	a12, a5, 6
    1dcc:	05bac7        	bgeu	a10, a12, 0x1dd5
    1dcf:	0355a2        	s16i	a10, a5, 6
    1dd2:	7630c1        	l32r	a12, 0xfffdf694
    1dd5:	076c07        	bbci	a12, 0, 0x1de0
    1dd8:	cc1b      	addi.n	a12, a12, 1
    1dda:	f4c0c0        	extui	a12, a12, 0, 16
    1ddd:	0355c2        	s16i	a12, a5, 6
    1de0:	046cf6        	bgeui	a12, 6, 0x1de8
    1de3:	0355b2        	s16i	a11, a5, 6
    1de6:	6c0c      	movi.n	a12, 6
    1de8:	0215d2        	l16ui	a13, a5, 4
    1deb:	07bdc7        	bgeu	a13, a12, 0x1df6
    1dee:	760ca1        	l32r	a10, 0xfffdf620
    1df1:	0b0c      	movi.n	a11, 0
    1df3:	b77b25        	excw
    1df6:	0415a2        	l16ui	a10, a5, 8
    1df9:	7a8c      	beqz.n	a10, 0x1e04
    1dfb:	0215c2        	l16ui	a12, a5, 4
    1dfe:	41e1c0        	srli	a14, a12, 1
    1e01:	0dbea7        	bgeu	a14, a10, 0x1e12
    1e04:	760ca1        	l32r	a10, 0xfffdf634
    1e07:	0b0c      	movi.n	a11, 0
    1e09:	b779a5        	excw
    1e0c:	0215c2        	l16ui	a12, a5, 4
    1e0f:	0415a2        	l16ui	a10, a5, 8
    1e12:	0315b2        	l16ui	a11, a5, 6
    1e15:	04bcb7        	bgeu	a12, a11, 0x1e1d
    1e18:	0255b2        	s16i	a11, a5, 4
    1e1b:	0bcd      	mov.n	a12, a11
    1e1d:	5acc      	bnez.n	a10, 0x1e26
    1e1f:	1a0c      	movi.n	a10, 1
    1e21:	1f0c      	movi.n	a15, 1
    1e23:	0455f2        	s16i	a15, a5, 8
    1e26:	41b1c0        	srli	a11, a12, 1
    1e29:	02bba7        	bgeu	a11, a10, 0x1e2f
    1e2c:	0455b2        	s16i	a11, a5, 8
    1e2f:	090c      	movi.n	a9, 0
    1e31:	760b81        	l32r	a8, 0xfffdf660
    1e34:	0315a2        	l16ui	a10, a5, 6
    1e37:	4c53c2        	s16i	a12, a3, 152
    1e3a:	4b53a2        	s16i	a10, a3, 150
    1e3d:	b92882        	l32i	a8, a8, 0x2e4
    1e40:	0215a2        	l16ui	a10, a5, 4
    1e43:	0315b2        	l16ui	a11, a5, 6
    1e46:	0699      	s32i.n	a9, a6, 0
    1e48:	0008e0        	excw
    1e4b:	090c      	movi.n	a9, 0
    1e4d:	41c1a0        	srli	a12, a10, 1
    1e50:	760b81        	l32r	a8, 0xfffdf67c
    1e53:	2d53a2        	s16i	a10, a3, 90
    1e56:	0415b2        	l16ui	a11, a5, 8
    1e59:	be2882        	l32i	a8, a8, 0x2f8
    1e5c:	63bbc0        	excw
    1e5f:	2e53b2        	s16i	a11, a3, 92
    1e62:	74b020        	extui	a11, a2, 0, 8
    1e65:	0515a2        	l16ui	a10, a5, 10
    1e68:	2f53a2        	s16i	a10, a3, 94
    1e6b:	2c5392        	s16i	a9, a3, 88
    1e6e:	56c3a2        	addi	a10, a3, 86
    1e71:	0008e0        	excw
    1e74:	7631d1        	l32r	a13, 0xfffdf738
    1e77:	179ad7        	bne	a10, a13, 0x1e92
    1e7a:	04bd      	mov.n	a11, a4
    1e7c:	2a1c      	movi.n	a10, 18
    1e7e:	e02782        	l32i	a8, a7, 0x380
    1e81:	06a9      	s32i.n	a10, a6, 0
    1e83:	0008e0        	excw
    1e86:	0628      	l32i.n	a2, a6, 0
    1e88:	f01d      	excw
    1e8a:	c20c      	movi.n	a2, 12
    1e8c:	c90c      	movi.n	a9, 12
    1e8e:	0699      	s32i.n	a9, a6, 0
    1e90:	f01d      	excw
    1e92:	760f81        	l32r	a8, 0xfffdf6d0
    1e95:	472882        	l32i	a8, a8, 0x11c
    1e98:	0003a2        	l8ui	a10, a3, 0
    1e9b:	0008e0        	excw
    1e9e:	760b51        	l32r	a5, 0xfffdf6cc
    1ea1:	04bd      	mov.n	a11, a4
    1ea3:	5643a2        	s8i	a10, a3, 86
    1ea6:	e02782        	l32i	a8, a7, 0x380
    1ea9:	06a8      	l32i.n	a10, a6, 0
    1eab:	0008e0        	excw
    1eae:	d725a2        	l32i	a10, a5, 0x35c
    1eb1:	761041        	l32r	a4, 0xfffdf6f4
    1eb4:	1772e6        	bgei	a2, 7, 0x1ecf
    1eb7:	000ae0        	excw
    1eba:	0003d2        	l8ui	a13, a3, 0
    1ebd:	2c0c      	movi.n	a12, 2
    1ebf:	0e0c      	movi.n	a14, 0
    1ec1:	ba2b      	addi.n	a11, a10, 2
    1ec3:	202482        	l32i	a8, a4, 128
    1ec6:	0ca4a2        	movi	a10, 0x40c
    1ec9:	0008e0        	excw
    1ecc:	000506        	j	0x1ee4
    1ecf:	000ae0        	excw
    1ed2:	0003d2        	l8ui	a13, a3, 0
    1ed5:	2c0c      	movi.n	a12, 2
    1ed7:	1e0c      	movi.n	a14, 1
    1ed9:	ba2b      	addi.n	a11, a10, 2
    1edb:	202482        	l32i	a8, a4, 128
    1ede:	0ca4a2        	movi	a10, 0x40c
    1ee1:	0008e0        	excw
    1ee4:	7632a1        	l32r	a10, 0xfffdf7ac
    1ee7:	190c      	movi.n	a9, 1
    1ee9:	5b4a92        	s8i	a9, a10, 91
    1eec:	ff9a86        	j	0x1d5a
    1eef:	c13600        	mul16u	a3, a6, a0
    1ef2:	05ad00        	extui	a10, a0, 29, 1
    1ef5:	4149      	s32i.n	a4, a1, 16
    1ef7:	760b41        	l32r	a4, 0xfffdf724
    1efa:	01bd      	mov.n	a11, a1
    1efc:	ef2482        	l32i	a8, a4, 0x3bc
    1eff:	105122        	s16i	a2, a1, 32
    1f02:	0008e0        	excw
    1f05:	2f0c      	movi.n	a15, 2
    1f07:	7633c1        	l32r	a12, 0xfffdf7d4
    1f0a:	7634b1        	l32r	a11, 0xfffdf7dc
    1f0d:	763571        	l32r	a7, 0xfffdf7e4
    1f10:	0a2d      	mov.n	a2, a10
    1f12:	41a8      	l32i.n	a10, a1, 16
    1f14:	7636e1        	l32r	a14, 0xfffdf7ec
    1f17:	4d6a17        	bbci	a10, 1, 0x1f68
    1f1a:	0213f2        	l16ui	a15, a3, 4
    1f1d:	0113d2        	l16ui	a13, a3, 2
    1f20:	0d3df7        	bltu	a13, a15, 0x1f31
    1f23:	760ca1        	l32r	a10, 0xfffdf754
    1f26:	0b0c      	movi.n	a11, 0
    1f28:	b767a5        	excw
    1f2b:	7633c1        	l32r	a12, 0xfffdf7f8
    1f2e:	7636e1        	l32r	a14, 0xfffdf808
    1f31:	f924f2        	l32i	a15, a4, 0x3e4
    1f34:	d2d8      	l32i.n	a13, a2, 52
    1f36:	1011b2        	l16ui	a11, a1, 32
    1f39:	0582d0        	extui	a8, a13, 18, 1
    1f3c:	0fc856        	bnez	a8, 0x203c
    1f3f:	7634a1        	l32r	a10, 0xfffdf810
    1f42:	20dde0        	or	a13, a13, a14
    1f45:	122292        	l32i	a9, a2, 72
    1f48:	d2d9      	s32i.n	a13, a2, 52
    1f4a:	2099a0        	or	a9, a9, a10
    1f4d:	126292        	s32i	a9, a2, 72
    1f50:	000182        	l8ui	a8, a1, 0
    1f53:	1a0c      	movi.n	a10, 1
    1f55:	1878f6        	bgeui	a8, 7, 0x1f71
    1f58:	0a0c      	movi.n	a10, 0
    1f5a:	208d70        	or	a8, a13, a7
    1f5d:	20e9c0        	or	a14, a9, a12
    1f60:	1262e2        	s32i	a14, a2, 72
    1f63:	d289      	s32i.n	a8, a2, 52
    1f65:	000206        	j	0x1f71
    1f68:	d2d8      	l32i.n	a13, a2, 52
    1f6a:	226d47        	bbci	a13, 4, 0x1f90
    1f6d:	422c      	movi.n	a2, 36
    1f6f:	f01d      	excw
    1f71:	1c0c      	movi.n	a12, 1
    1f73:	03dd      	mov.n	a13, a3
    1f75:	05ed      	mov.n	a14, a5
    1f77:	000fe0        	excw
    1f7a:	000386        	j	0x1f8c
    1f7d:	02bd      	mov.n	a11, a2
    1f7f:	03cd      	mov.n	a12, a3
    1f81:	06dd      	mov.n	a13, a6
    1f83:	c22482        	l32i	a8, a4, 0x308
    1f86:	0001a2        	l8ui	a10, a1, 0
    1f89:	0008e0        	excw
    1f8c:	020c      	movi.n	a2, 0
    1f8e:	f01d      	excw
    1f90:	26fd27        	bbsi	a13, 18, 0x1fba
    1f93:	20dde0        	or	a13, a13, a14
    1f96:	122292        	l32i	a9, a2, 72
    1f99:	d2d9      	s32i.n	a13, a2, 52
    1f9b:	2099b0        	or	a9, a9, a11
    1f9e:	126292        	s32i	a9, a2, 72
    1fa1:	0001a2        	l8ui	a10, a1, 0
    1fa4:	027af6        	bgeui	a10, 7, 0x1faa
    1fa7:	002806        	j	0x204b
    1faa:	20dd70        	or	a13, a13, a7
    1fad:	20a9c0        	or	a10, a9, a12
    1fb0:	1262a2        	s32i	a10, a2, 72
    1fb3:	d2d9      	s32i.n	a13, a2, 52
    1fb5:	0a0c      	movi.n	a10, 0
    1fb7:	000246        	j	0x1fc4
    1fba:	10ed70        	and	a14, a13, a7
    1fbd:	1b0c      	movi.n	a11, 1
    1fbf:	0a0c      	movi.n	a10, 0
    1fc1:	83abe0        	moveqz	a10, a11, a14
    1fc4:	7630b1        	l32r	a11, 0xfffdf884
    1fc7:	1916a7        	beq	a6, a10, 0x1fe4
    1fca:	268c      	beqz.n	a6, 0x1fd0
    1fcc:	322c      	movi.n	a2, 35
    1fce:	f01d      	excw
    1fd0:	4b52f2        	s16i	a15, a2, 150
    1fd3:	4c52b2        	s16i	a11, a2, 152
    1fd6:	20dd70        	or	a13, a13, a7
    1fd9:	122282        	l32i	a8, a2, 72
    1fdc:	d2d9      	s32i.n	a13, a2, 52
    1fde:	2088c0        	or	a8, a8, a12
    1fe1:	126282        	s32i	a8, a2, 72
    1fe4:	010292        	l8ui	a9, a2, 1
    1fe7:	763751        	l32r	a5, 0xfffdf8c4
    1fea:	453966        	bnei	a9, 3, 0x2033
    1fed:	7a0c      	movi.n	a10, 7
    1fef:	df2482        	l32i	a8, a4, 0x37c
    1ff2:	02bd      	mov.n	a11, a2
    1ff4:	0008e0        	excw
    1ff7:	6abc      	beqz.n	a10, 0x2031
    1ff9:	de2482        	l32i	a8, a4, 0x378
    1ffc:	7a0c      	movi.n	a10, 7
    1ffe:	0008e0        	excw
    2001:	caac      	beqz.n	a10, 0x2031
    2003:	763171        	l32r	a7, 0xfffdf8c8
    2006:	0213b2        	l16ui	a11, a3, 4
    2009:	be24d2        	l32i	a13, a4, 0x2f8
    200c:	0113c2        	l16ui	a12, a3, 2
    200f:	31d9      	s32i.n	a13, a1, 12
    2011:	3b3cb7        	bltu	a12, a11, 0x2050
    2014:	0cad      	mov.n	a10, a12
    2016:	07c8e5        	excw
    2019:	3188      	l32i.n	a8, a1, 12
    201b:	0153a2        	s16i	a10, a3, 2
    201e:	0001b2        	l8ui	a11, a1, 0
    2021:	03ad      	mov.n	a10, a3
    2023:	0008e0        	excw
    2026:	c09a70        	sub	a9, a10, a7
    2029:	1d0c      	movi.n	a13, 1
    202b:	83d790        	moveqz	a13, a7, a9
    202e:	001146        	j	0x2077
    2031:	d2d8      	l32i.n	a13, a2, 52
    2033:	10ad50        	and	a10, a13, a5
    2036:	d2a9      	s32i.n	a10, a2, 52
    2038:	a21c      	movi.n	a2, 26
    203a:	f01d      	excw
    203c:	74a060        	extui	a10, a6, 0, 8
    203f:	1c0c      	movi.n	a12, 1
    2041:	03dd      	mov.n	a13, a3
    2043:	05ed      	mov.n	a14, a5
    2045:	000fe0        	excw
    2048:	ffd006        	j	0x1f8c
    204b:	1a0c      	movi.n	a10, 1
    204d:	ffdcc6        	j	0x1fc4
    2050:	03ad      	mov.n	a10, a3
    2052:	0001b2        	l8ui	a11, a1, 0
    2055:	000de0        	excw
    2058:	0213b2        	l16ui	a11, a3, 4
    205b:	0113c2        	l16ui	a12, a3, 2
    205e:	0add      	mov.n	a13, a10
    2060:	133cb7        	bltu	a12, a11, 0x2077
    2063:	0b9c      	beqz.n	a11, 0x2077
    2065:	0cad      	mov.n	a10, a12
    2067:	07c3e5        	excw
    206a:	0213d2        	l16ui	a13, a3, 4
    206d:	ec7c      	movi.n	a12, -2
    206f:	ba1b      	addi.n	a11, a10, 1
    2071:	10bbc0        	and	a11, a11, a12
    2074:	0153b2        	s16i	a11, a3, 2
    2077:	fdfc      	bnez.n	a13, 0x20ba
    2079:	06ed      	mov.n	a14, a6
    207b:	eaa3a2        	movi	a10, 0x3ea
    207e:	2c0c      	movi.n	a12, 2
    2080:	0002d2        	l8ui	a13, a2, 0
    2083:	1102f2        	l8ui	a15, a2, 17
    2086:	280c      	movi.n	a8, 2
    2088:	20ff80        	or	a15, a15, a8
    208b:	1142f2        	s8i	a15, a2, 17
    208e:	ff2482        	l32i	a8, a4, 0x3fc
    2091:	20c1b2        	addi	a11, a1, 32
    2094:	0008e0        	excw
    2097:	02bd      	mov.n	a11, a2
    2099:	03cd      	mov.n	a12, a3
    209b:	c02482        	l32i	a8, a4, 0x300
    209e:	d298      	l32i.n	a9, a2, 52
    20a0:	0213a2        	l16ui	a10, a3, 4
    20a3:	109950        	and	a9, a9, a5
    20a6:	2d52a2        	s16i	a10, a2, 90
    20a9:	0113a2        	l16ui	a10, a3, 2
    20ac:	2c52a2        	s16i	a10, a2, 88
    20af:	d299      	s32i.n	a9, a2, 52
    20b1:	0001a2        	l8ui	a10, a1, 0
    20b4:	0008e0        	excw
    20b7:	ffb446        	j	0x1f8c
    20ba:	c0bd70        	sub	a11, a13, a7
    20bd:	ebcb56        	bnez	a11, 0x1f7d
    20c0:	0402c2        	l8ui	a12, a2, 4
    20c3:	363c66        	bnei	a12, 3, 0x20fd
    20c6:	092c      	movi.n	a9, 32
    20c8:	7630d1        	l32r	a13, 0xfffdf988
    20cb:	7638a1        	l32r	a10, 0xfffdf9ac
    20ce:	2c0c      	movi.n	a12, 2
    20d0:	4b1c      	movi.n	a11, 20
    20d2:	151282        	l16ui	a8, a2, 42
    20d5:	0e0c      	movi.n	a14, 0
    20d7:	025182        	s16i	a8, a1, 4
    20da:	762481        	l32r	a8, 0xfffdf96c
    20dd:	2d12f2        	l16ui	a15, a2, 90
    20e0:	0641e2        	s8i	a14, a1, 6
    20e3:	0451f2        	s16i	a15, a1, 8
    20e6:	cc2882        	l32i	a8, a8, 0x330
    20e9:	5352b2        	s16i	a11, a2, 166
    20ec:	4b52c2        	s16i	a12, a2, 150
    20ef:	5252a2        	s16i	a10, a2, 164
    20f2:	4c52d2        	s16i	a13, a2, 152
    20f5:	a12b      	addi.n	a10, a1, 2
    20f7:	024192        	s8i	a9, a1, 2
    20fa:	0008e0        	excw
    20fd:	02ad      	mov.n	a10, a2
    20ff:	d298      	l32i.n	a9, a2, 52
    2101:	ac2482        	l32i	a8, a4, 0x2b0
    2104:	109950        	and	a9, a9, a5
    2107:	d299      	s32i.n	a9, a2, 52
    2109:	0008e0        	excw
    210c:	022c      	movi.n	a2, 32
    210e:	f01d      	excw
    2110:	006136        	excw
    2113:	04cd      	mov.n	a12, a4
    2115:	05dd      	mov.n	a13, a5
    2117:	06ed      	mov.n	a14, a6
    2119:	761181        	l32r	a8, 0xfffdf960
    211c:	02ad      	mov.n	a10, a2
    211e:	2888      	l32i.n	a8, a8, 8
    2120:	03bd      	mov.n	a11, a3
    2122:	0008e0        	excw
    2125:	0afd      	mov.n	a15, a10
    2127:	0a4d      	mov.n	a4, a10
    2129:	392c      	movi.n	a9, 35
    212b:	311a97        	beq	a10, a9, 0x2160
    212e:	0a2d      	mov.n	a2, a10
    2130:	f01d      	excw
    2132:	0102b2        	l8ui	a11, a2, 1
    2135:	11bb80        	slli	a11, a11, 8
    2138:	aaba      	add.n	a10, a10, a11
    213a:	f4a0a0        	extui	a10, a10, 0, 16
    213d:	7c1c      	movi.n	a12, 23
    213f:	199ac7        	bne	a10, a12, 0x215c
    2142:	03dd      	mov.n	a13, a3
    2144:	0151f2        	s16i	a15, a1, 2
    2147:	eba3a2        	movi	a10, 0x3eb
    214a:	01bd      	mov.n	a11, a1
    214c:	2c0c      	movi.n	a12, 2
    214e:	761081        	l32r	a8, 0xfffdf990
    2151:	fda392        	movi	a9, 0x3fd
    2154:	0888      	l32i.n	a8, a8, 0
    2156:	005192        	s16i	a9, a1, 0
    2159:	0008e0        	excw
    215c:	042d      	mov.n	a2, a4
    215e:	f01d      	excw
    2160:	0002a2        	l8ui	a10, a2, 0
    2163:	7ba0b2        	movi	a11, 123
    2166:	04e0a0        	extui	a14, a10, 0, 1
    2169:	74a1a0        	extui	a10, a10, 1, 8
    216c:	c23ba7        	bltu	a11, a10, 0x2132
    216f:	fff286        	j	0x213d
    2172:	360000        	excw
    2175:	820041        	l32r	a4, 0xfffe2978
    2178:	87faa3        	excw
    217b:	0c0594        	excw
    217e:	062902        	l32i	a0, a9, 24
    2181:	f01d      	excw
    2183:	02ad      	mov.n	a10, a2
    2185:	03bd      	mov.n	a11, a3
    2187:	04cd      	mov.n	a12, a4
    2189:	05dd      	mov.n	a13, a5
    218b:	761181        	l32r	a8, 0xfffdf9d0
    218e:	06ed      	mov.n	a14, a6
    2190:	3888      	l32i.n	a8, a8, 12
    2192:	07fd      	mov.n	a15, a7
    2194:	0008e0        	excw
    2197:	0a2d      	mov.n	a2, a10
    2199:	f01d      	excw
    219b:	613600        	excw
    219e:	01ad07        	bge	a13, a0, 0x21a3
    21a1:	202352        	l32i	a5, a3, 128
    21a4:	040c      	movi.n	a4, 0
    21a6:	d96122        	s32i	a2, a1, 0x364
    21a9:	760f81        	l32r	a8, 0xfffdf9e8
    21ac:	3b0322        	l8ui	a2, a3, 59
    21af:	422882        	l32i	a8, a8, 0x108
    21b2:	742120        	extui	a2, a2, 1, 8
    21b5:	004142        	s8i	a4, a1, 0
    21b8:	0005b2        	l8ui	a11, a5, 0
    21bb:	0008e0        	excw
    21be:	763981        	l32r	a8, 0xfffdfaa4
    21c1:	01ad      	mov.n	a10, a1
    21c3:	7f2882        	l32i	a8, a8, 0x1fc
    21c6:	ffa0b2        	movi	a11, 255
    21c9:	0008e0        	excw
    21cc:	0001c2        	l8ui	a12, a1, 0
    21cf:	099c16        	beqz	a12, 0x226c
    21d2:	000592        	l8ui	a9, a5, 0
    21d5:	78a1a2        	movi	a10, 0x178
    21d8:	c199a0        	mul16u	a9, a9, a10
    21db:	763aa1        	l32r	a10, 0xfffdfac4
    21de:	9a9a      	add.n	a9, a10, a9
    21e0:	7f0992        	l8ui	a9, a9, 127
    21e3:	085916        	beqz	a9, 0x226c
    21e6:	7632b1        	l32r	a11, 0xfffdfab0
    21e9:	1a2bb2        	l32i	a11, a11, 104
    21ec:	081bb2        	l16ui	a11, a11, 16
    21ef:	79eb37        	bbsi	a11, 3, 0x226c
    21f2:	d66152        	s32i	a5, a1, 0x358
    21f5:	d76142        	s32i	a4, a1, 0x35c
    21f8:	7d1ca6        	blti	a12, 1, 0x2279
    21fb:	014d      	mov.n	a4, a1
    21fd:	070c      	movi.n	a7, 0
    21ff:	02d152        	addmi	a5, a1, 0x200
    2202:	10c562        	addi	a6, a5, 16
    2205:	da6172        	s32i	a7, a1, 0x368
    2208:	70c552        	addi	a5, a5, 112
    220b:	01d172        	addmi	a7, a1, 0x100
    220e:	7fc772        	addi	a7, a7, 127
    2211:	31c772        	addi	a7, a7, 49
    2214:	02bd      	mov.n	a11, a2
    2216:	762981        	l32r	a8, 0xfffdfabc
    2219:	0414a2        	l16ui	a10, a4, 8
    221c:	7888      	l32i.n	a8, a8, 28
    221e:	db61a2        	s32i	a10, a1, 0x36c
    2221:	0008e0        	excw
    2224:	0abd      	mov.n	a11, a10
    2226:	0414a2        	l16ui	a10, a4, 8
    2229:	07b9      	s32i.n	a11, a7, 0
    222b:	c1a2a0        	mul16u	a10, a2, a10
    222e:	07a265        	excw
    2231:	06a9      	s32i.n	a10, a6, 0
    2233:	0314c2        	l16ui	a12, a4, 6
    2236:	0404b2        	l8ui	a11, a4, 4
    2239:	05c9      	s32i.n	a12, a5, 0
    223b:	3b9c      	beqz.n	a11, 0x2252
    223d:	34a8      	l32i.n	a10, a4, 12
    223f:	db21b2        	l32i	a11, a1, 0x36c
    2242:	c0aca0        	sub	a10, a12, a10
    2245:	079c25        	excw
    2248:	db21b2        	l32i	a11, a1, 0x36c
    224b:	aaba      	add.n	a10, a10, a11
    224d:	079ba5        	excw
    2250:	05a9      	s32i.n	a10, a5, 0
    2252:	554b      	addi.n	a5, a5, 4
    2254:	664b      	addi.n	a6, a6, 4
    2256:	774b      	addi.n	a7, a7, 4
    2258:	14c442        	addi	a4, a4, 20
    225b:	da21b2        	l32i	a11, a1, 0x368
    225e:	0001c2        	l8ui	a12, a1, 0
    2261:	bb1b      	addi.n	a11, a11, 1
    2263:	da61b2        	s32i	a11, a1, 0x368
    2266:	aa2bc7        	blt	a11, a12, 0x2214
    2269:	000306        	j	0x2279
    226c:	0103c2        	l8ui	a12, a3, 1
    226f:	0043c2        	s8i	a12, a3, 0
    2272:	3a43c2        	s8i	a12, a3, 58
    2275:	020c      	movi.n	a2, 0
    2277:	f01d      	excw
    2279:	763b41        	l32r	a4, 0xfffdfb68
    227c:	0d2c      	movi.n	a13, 32
    227e:	02d192        	addmi	a9, a1, 0x200
    2281:	7fc992        	addi	a9, a9, 127
    2284:	51c992        	addi	a9, a9, 81
    2287:	03ad76        	excw
    228a:	0949      	s32i.n	a4, a9, 0
    228c:	994b      	addi.n	a9, a9, 4
    228e:	0c0c      	movi.n	a12, 0
    2290:	d56122        	s32i	a2, a1, 0x354
    2293:	0503d2        	l8ui	a13, a3, 5
    2296:	0403e2        	l8ui	a14, a3, 4
    2299:	d721f2        	l32i	a15, a1, 0x35c
    229c:	02d1a2        	addmi	a10, a1, 0x200
    229f:	7fcaa2        	addi	a10, a10, 127
    22a2:	0043f2        	s8i	a15, a3, 0
    22a5:	b0eee0        	addx8	a14, a14, a14
    22a8:	dd3a      	add.n	a13, a13, a3
    22aa:	ddea      	add.n	a13, a13, a14
    22ac:	0d0db2        	l8ui	a11, a13, 13
    22af:	51caa2        	addi	a10, a10, 81
    22b2:	022be6        	bgei	a11, 2, 0x22b8
    22b5:	004106        	j	0x23bd
    22b8:	763c81        	l32r	a8, 0xfffdfba8
    22bb:	d56122        	s32i	a2, a1, 0x354
    22be:	d18280        	mul16s	a8, a2, a8
    22c1:	d86182        	s32i	a8, a1, 0x360
    22c4:	3a43c2        	s8i	a12, a3, 58
    22c7:	2e1392        	l16ui	a9, a3, 92
    22ca:	0f0c      	movi.n	a15, 0
    22cc:	22e927        	bbsi	a9, 2, 0x22f2
    22cf:	8403a2        	l8ui	a10, a3, 132
    22d2:	0f0c      	movi.n	a15, 0
    22d4:	aadc      	bnez.n	a10, 0x22f2
    22d6:	d92192        	l32i	a9, a1, 0x364
    22d9:	3998      	l32i.n	a9, a9, 12
    22db:	399c      	beqz.n	a9, 0x22f2
    22dd:	0909a2        	l8ui	a10, a9, 9
    22e0:	d921e2        	l32i	a14, a1, 0x364
    22e3:	0b2a66        	bnei	a10, 2, 0x22f2
    22e6:	4ee8      	l32i.n	a14, a14, 16
    22e8:	6e8c      	beqz.n	a14, 0x22f2
    22ea:	060e82        	l8ui	a8, a14, 6
    22ed:	0198c7        	bne	a8, a12, 0x22f2
    22f0:	1f0c      	movi.n	a15, 1
    22f2:	1a0c      	movi.n	a10, 1
    22f4:	090c      	movi.n	a9, 0
    22f6:	839af0        	moveqz	a9, a10, a15
    22f9:	0a3916        	beqz	a9, 0x23a0
    22fc:	761061        	l32r	a6, 0xfffdfb3c
    22ff:	ac2682        	l32i	a8, a6, 0x2b0
    2302:	1b13a2        	l16ui	a10, a3, 54
    2305:	0008e0        	excw
    2308:	0a5d      	mov.n	a5, a10
    230a:	ac2682        	l32i	a8, a6, 0x2b0
    230d:	1a13a2        	l16ui	a10, a3, 52
    2310:	0008e0        	excw
    2313:	e7a372        	movi	a7, 0x3e7
    2316:	71a2b2        	movi	a11, 0x271
    2319:	0add      	mov.n	a13, a10
    231b:	3e03c2        	l8ui	a12, a3, 62
    231e:	3b03a2        	l8ui	a10, a3, 59
    2321:	cc5a      	add.n	a12, a12, a5
    2323:	aada      	add.n	a10, a10, a13
    2325:	aaca      	add.n	a10, a10, a12
    2327:	82aab0        	mull	a10, a10, a11
    232a:	e8a3b2        	movi	a11, 0x3e8
    232d:	aa7a      	add.n	a10, a10, a7
    232f:	078725        	excw
    2332:	0d0c      	movi.n	a13, 0
    2334:	f4c0a0        	extui	a12, a10, 0, 16
    2337:	d921e2        	l32i	a14, a1, 0x364
    233a:	1a0c      	movi.n	a10, 1
    233c:	4ee8      	l32i.n	a14, a14, 16
    233e:	3d53c2        	s16i	a12, a3, 122
    2341:	9e8c      	beqz.n	a14, 0x234e
    2343:	3813f2        	l16ui	a15, a3, 112
    2346:	180c      	movi.n	a8, 1
    2348:	02bfc7        	bgeu	a15, a12, 0x234e
    234b:	93d8f0        	movnez	a13, a8, a15
    234e:	090c      	movi.n	a9, 0
    2350:	839ad0        	moveqz	a9, a10, a13
    2353:	99bc      	beqz.n	a9, 0x2390
    2355:	6e8c      	beqz.n	a14, 0x235f
    2357:	3613d2        	l16ui	a13, a3, 108
    235a:	1d8c      	beqz.n	a13, 0x235f
    235c:	1c3dc7        	bltu	a13, a12, 0x237c
    235f:	d92192        	l32i	a9, a1, 0x364
    2362:	7631a1        	l32r	a10, 0xfffdfc28
    2365:	1998      	l32i.n	a9, a9, 4
    2367:	d721e2        	l32i	a14, a1, 0x35c
    236a:	0a1916        	beqz	a9, 0x240f
    236d:	0619d2        	l16ui	a13, a9, 12
    2370:	c0ada0        	sub	a10, a13, a10
    2373:	098a16        	beqz	a10, 0x240f
    2376:	023dc7        	bltu	a13, a12, 0x237c
    2379:	002486        	j	0x240f
    237c:	8403b2        	l8ui	a11, a3, 132
    237f:	db8c      	beqz.n	a11, 0x2390
    2381:	0c03c2        	l8ui	a12, a3, 12
    2384:	8ccc      	bnez.n	a12, 0x2390
    2386:	1d0c      	movi.n	a13, 1
    2388:	3e0c      	movi.n	a14, 3
    238a:	5643e2        	s8i	a14, a3, 86
    238d:	8543d2        	s8i	a13, a3, 133
    2390:	0003c2        	l8ui	a12, a3, 0
    2393:	0403e2        	l8ui	a14, a3, 4
    2396:	0503d2        	l8ui	a13, a3, 5
    2399:	b0eee0        	addx8	a14, a14, a14
    239c:	dd3a      	add.n	a13, a13, a3
    239e:	ddea      	add.n	a13, a13, a14
    23a0:	cc2b      	addi.n	a12, a12, 2
    23a2:	74c0c0        	extui	a12, a12, 0, 8
    23a5:	0043c2        	s8i	a12, a3, 0
    23a8:	0d0df2        	l8ui	a15, a13, 13
    23ab:	fecff2        	addi	a15, a15, -2
    23ae:	022fc7        	blt	a15, a12, 0x23b4
    23b1:	ffc3c6        	j	0x22c4
    23b4:	02d1a2        	addmi	a10, a1, 0x200
    23b7:	7fcaa2        	addi	a10, a10, 127
    23ba:	51caa2        	addi	a10, a10, 81
    23bd:	d52122        	l32i	a2, a1, 0x354
    23c0:	0d0c      	movi.n	a13, 0
    23c2:	763cf1        	l32r	a15, 0xfffdfcb4
    23c5:	0e0c      	movi.n	a14, 0
    23c7:	0c2c      	movi.n	a12, 32
    23c9:	02d1b2        	addmi	a11, a1, 0x200
    23cc:	7fcbb2        	addi	a11, a11, 127
    23cf:	51cbb2        	addi	a11, a11, 81
    23d2:	1fac76        	excw
    23d5:	0bc8      	l32i.n	a12, a11, 0
    23d7:	bb4b      	addi.n	a11, a11, 4
    23d9:	161c47        	beq	a12, a4, 0x23f3
    23dc:	07acf7        	bge	a12, a15, 0x23e7
    23df:	004c96        	bltz	a12, 0x23e7
    23e2:	0cfd      	mov.n	a15, a12
    23e4:	74e0d0        	extui	a14, a13, 0, 8
    23e7:	a0cea0        	addx4	a12, a14, a10
    23ea:	0cc8      	l32i.n	a12, a12, 0
    23ec:	039c47        	bne	a12, a4, 0x23f3
    23ef:	b21c      	movi.n	a2, 27
    23f1:	f01d      	excw
    23f3:	dd1b      	addi.n	a13, a13, 1
    23f5:	d621d2        	l32i	a13, a1, 0x358
    23f8:	763ac1        	l32r	a12, 0xfffdfce0
    23fb:	000dd2        	l8ui	a13, a13, 0
    23fe:	78a1f2        	movi	a15, 0x178
    2401:	c1ddf0        	mul16u	a13, a13, a15
    2404:	ccda      	add.n	a12, a12, a13
    2406:	7f0cd2        	l8ui	a13, a12, 127
    2409:	0f6d56        	bnez	a13, 0x2503
    240c:	003646        	j	0x24e9
    240f:	0001c2        	l8ui	a12, a1, 0
    2412:	3a0392        	l8ui	a9, a3, 58
    2415:	02d1f2        	addmi	a15, a1, 0x200
    2418:	0a0c      	movi.n	a10, 0
    241a:	e161a2        	s32i	a10, a1, 0x384
    241d:	7fcff2        	addi	a15, a15, 127
    2420:	51cff2        	addi	a15, a15, 81
    2423:	749190        	extui	a9, a9, 1, 8
    2426:	a0f9f0        	addx4	a15, a9, a15
    2429:	dd61f2        	s32i	a15, a1, 0x374
    242c:	0fe9      	s32i.n	a14, a15, 0
    242e:	021ce6        	bgei	a12, 1, 0x2434
    2431:	ffd6c6        	j	0x2390
    2434:	d46192        	s32i	a9, a1, 0x350
    2437:	012d      	mov.n	a2, a1
    2439:	a0acc0        	addx4	a10, a12, a12
    243c:	01d172        	addmi	a7, a1, 0x100
    243f:	02d182        	addmi	a8, a1, 0x200
    2442:	70c862        	addi	a6, a8, 112
    2445:	7fc772        	addi	a7, a7, 127
    2448:	31c772        	addi	a7, a7, 49
    244b:	a0aa20        	addx4	a10, a10, a2
    244e:	10c882        	addi	a8, a8, 16
    2451:	df6182        	s32i	a8, a1, 0x37c
    2454:	dc61a2        	s32i	a10, a1, 0x370
    2457:	06b8      	l32i.n	a11, a6, 0
    2459:	d421a2        	l32i	a10, a1, 0x350
    245c:	041252        	l16ui	a5, a2, 8
    245f:	c0aab0        	sub	a10, a10, a11
    2462:	de61a2        	s32i	a10, a1, 0x378
    2465:	07b8      	l32i.n	a11, a7, 0
    2467:	e061b2        	s32i	a11, a1, 0x380
    246a:	0779e5        	excw
    246d:	e021b2        	l32i	a11, a1, 0x380
    2470:	abaa      	add.n	a10, a11, a10
    2472:	077965        	excw
    2475:	dadc      	bnez.n	a10, 0x2496
    2477:	e021c2        	l32i	a12, a1, 0x380
    247a:	763d81        	l32r	a8, 0xfffdfd70
    247d:	051c57        	beq	a12, a5, 0x2486
    2480:	d521e2        	l32i	a14, a1, 0x354
    2483:	4c9ce7        	bne	a12, a14, 0x24d3
    2486:	e121f2        	l32i	a15, a1, 0x384
    2489:	ff8a      	add.n	a15, a15, a8
    248b:	e161f2        	s32i	a15, a1, 0x384
    248e:	dd21a2        	l32i	a10, a1, 0x374
    2491:	e12192        	l32i	a9, a1, 0x384
    2494:	0a99      	s32i.n	a9, a10, 0
    2496:	de21a2        	l32i	a10, a1, 0x378
    2499:	05bd      	mov.n	a11, a5
    249b:	0776e5        	excw
    249e:	aa5a      	add.n	a10, a10, a5
    24a0:	05bd      	mov.n	a11, a5
    24a2:	077665        	excw
    24a5:	664b      	addi.n	a6, a6, 4
    24a7:	774b      	addi.n	a7, a7, 4
    24a9:	dc21b2        	l32i	a11, a1, 0x370
    24ac:	14c222        	addi	a2, a2, 20
    24af:	dd21e2        	l32i	a14, a1, 0x374
    24b2:	e121d2        	l32i	a13, a1, 0x384
    24b5:	df21c2        	l32i	a12, a1, 0x37c
    24b8:	41f150        	srli	a15, a5, 1
    24bb:	c0faf0        	sub	a15, a10, a15
    24be:	60f1f0        	abs	a15, a15
    24c1:	cc4b      	addi.n	a12, a12, 4
    24c3:	df61c2        	s32i	a12, a1, 0x37c
    24c6:	ddfa      	add.n	a13, a13, a15
    24c8:	e161d2        	s32i	a13, a1, 0x384
    24cb:	0ed9      	s32i.n	a13, a14, 0
    24cd:	8692b7        	bne	a2, a11, 0x2457
    24d0:	ffaf06        	j	0x2390
    24d3:	df21b2        	l32i	a11, a1, 0x37c
    24d6:	d821a2        	l32i	a10, a1, 0x360
    24d9:	0bb8      	l32i.n	a11, a11, 0
    24db:	0777a5        	excw
    24de:	e121c2        	l32i	a12, a1, 0x384
    24e1:	ccaa      	add.n	a12, a12, a10
    24e3:	e161c2        	s32i	a12, a1, 0x384
    24e6:	ffe906        	j	0x248e
    24e9:	762cb2        	l32i	a11, a12, 0x1d8
    24ec:	772ca2        	l32i	a10, a12, 0x1dc
    24ef:	c0aab0        	sub	a10, a10, a11
    24f2:	aeaa      	add.n	a10, a14, a10
    24f4:	02bd      	mov.n	a11, a2
    24f6:	077ae5        	excw
    24f9:	a2aa      	add.n	a10, a2, a10
    24fb:	02bd      	mov.n	a11, a2
    24fd:	077a65        	excw
    2500:	74e0a0        	extui	a14, a10, 0, 8
    2503:	0103d2        	l8ui	a13, a3, 1
    2506:	11cef0        	slli	a12, a14, 1
    2509:	041cd7        	beq	a12, a13, 0x2511
    250c:	1e0c      	movi.n	a14, 1
    250e:	d761e2        	s32i	a14, a1, 0x35c
    2511:	0043c2        	s8i	a12, a3, 0
    2514:	d721f2        	l32i	a15, a1, 0x35c
    2517:	0c43f2        	s8i	a15, a3, 12
    251a:	ff5506        	j	0x2272
    251d:	000000        	ill
    2520:	008136        	excw
    2523:	762461        	l32r	a6, 0xfffdfdb4
    2526:	ca2682        	l32i	a8, a6, 0x328
    2529:	02ad      	mov.n	a10, a2
    252b:	0008e0        	excw
    252e:	41a9      	s32i.n	a10, a1, 16
    2530:	74a092        	movi	a9, 116
    2533:	149297        	bne	a2, a9, 0x254b
    2536:	04cd      	mov.n	a12, a4
    2538:	02ad      	mov.n	a10, a2
    253a:	5e2682        	l32i	a8, a6, 0x178
    253d:	03bd      	mov.n	a11, a3
    253f:	0008e0        	excw
    2542:	0a4d      	mov.n	a4, a10
    2544:	170a66        	bnei	a10, -1, 0x255f
    2547:	220c      	movi.n	a2, 2
    2549:	f01d      	excw
    254b:	02ad      	mov.n	a10, a2
    254d:	03bd      	mov.n	a11, a3
    254f:	761181        	l32r	a8, 0xfffdfd94
    2552:	04cd      	mov.n	a12, a4
    2554:	4888      	l32i.n	a8, a8, 16
    2556:	05dd      	mov.n	a13, a5
    2558:	0008e0        	excw
    255b:	0a2d      	mov.n	a2, a10
    255d:	f01d      	excw
    255f:	761c61        	l32r	a6, 0xfffdfdd0
    2562:	c8a072        	movi	a7, 200
    2565:	d17a70        	mul16s	a7, a10, a7
    2568:	192c      	movi.n	a9, 33
    256a:	676a      	add.n	a6, a7, a6
    256c:	4f26b2        	l32i	a11, a6, 0x13c
    256f:	7f06a2        	l8ui	a10, a6, 127
    2572:	cbbc      	beqz.n	a11, 0x25b2
    2574:	04b9a7        	bgeu	a9, a10, 0x257c
    2577:	fc2c      	movi.n	a12, 47
    2579:	07bca7        	bgeu	a12, a10, 0x2584
    257c:	0d0c      	movi.n	a13, 0
    257e:	2c6bd2        	s32i	a13, a11, 176
    2581:	4f26b2        	l32i	a11, a6, 0x13c
    2584:	2c2be2        	l32i	a14, a11, 176
    2587:	7eac      	beqz.n	a14, 0x25b2
    2589:	04ad      	mov.n	a10, a4
    258b:	03dd      	mov.n	a13, a3
    258d:	10c1e2        	addi	a14, a1, 16
    2590:	05fd      	mov.n	a15, a5
    2592:	aca2c2        	movi	a12, 0x2ac
    2595:	762481        	l32r	a8, 0xfffdfe28
    2598:	7614b1        	l32r	a11, 0xfffdfde8
    259b:	c32882        	l32i	a8, a8, 0x30c
    259e:	bbca      	add.n	a11, a11, a12
    25a0:	b7ba      	add.n	a11, a7, a11
    25a2:	02cd      	mov.n	a12, a2
    25a4:	0008e0        	excw
    25a7:	41a9      	s32i.n	a10, a1, 16
    25a9:	2acc      	bnez.n	a10, 0x25af
    25ab:	0a2d      	mov.n	a2, a10
    25ad:	f01d      	excw
    25af:	7f06a2        	l8ui	a10, a6, 127
    25b2:	bd3c      	movi.n	a13, 59
    25b4:	031ad7        	beq	a10, a13, 0x25bb
    25b7:	324c      	movi.n	a2, 67
    25b9:	f01d      	excw
    25bb:	04bd      	mov.n	a11, a4
    25bd:	03ed      	mov.n	a14, a3
    25bf:	10c1f2        	addi	a15, a1, 16
    25c2:	0159      	s32i.n	a5, a1, 0
    25c4:	762481        	l32r	a8, 0xfffdfe54
    25c7:	7614c1        	l32r	a12, 0xfffdfe18
    25ca:	aca2d2        	movi	a13, 0x2ac
    25cd:	ccda      	add.n	a12, a12, a13
    25cf:	742882        	l32i	a8, a8, 0x1d0
    25d2:	02dd      	mov.n	a13, a2
    25d4:	c7ca      	add.n	a12, a7, a12
    25d6:	0008e0        	excw
    25d9:	0a2d      	mov.n	a2, a10
    25db:	f01d      	excw
    25dd:	000000        	ill
    25e0:	006136        	excw
    25e3:	07ad      	mov.n	a10, a7
    25e5:	b4a482        	movi	a8, 0x4b4
    25e8:	762471        	l32r	a7, 0xfffdfe78
    25eb:	01a9      	s32i.n	a10, a1, 0
    25ed:	151487        	beq	a4, a8, 0x2606
    25f0:	04bd      	mov.n	a11, a4
    25f2:	02cd      	mov.n	a12, a2
    25f4:	05dd      	mov.n	a13, a5
    25f6:	03ed      	mov.n	a14, a3
    25f8:	0a0c      	movi.n	a10, 0
    25fa:	542782        	l32i	a8, a7, 0x150
    25fd:	06fd      	mov.n	a15, a6
    25ff:	0008e0        	excw
    2602:	0628      	l32i.n	a2, a6, 0
    2604:	f01d      	excw
    2606:	02bd      	mov.n	a11, a2
    2608:	0303c2        	l8ui	a12, a3, 3
    260b:	0a4d      	mov.n	a4, a10
    260d:	132782        	l32i	a8, a7, 76
    2610:	2a0c      	movi.n	a10, 2
    2612:	0008e0        	excw
    2615:	03ad      	mov.n	a10, a3
    2617:	74b020        	extui	a11, a2, 0, 8
    261a:	05cd      	mov.n	a12, a5
    261c:	4b2782        	l32i	a8, a7, 0x12c
    261f:	06dd      	mov.n	a13, a6
    2621:	0008e0        	excw
    2624:	7614f1        	l32r	a15, 0xfffdfe74
    2627:	c8a082        	movi	a8, 200
    262a:	d18a80        	mul16s	a8, a10, a8
    262d:	0a2d      	mov.n	a2, a10
    262f:	ff8a      	add.n	a15, a15, a8
    2631:	bd2f92        	l32i	a9, a15, 0x2f4
    2634:	74b020        	extui	a11, a2, 0, 8
    2637:	16e927        	bbsi	a9, 2, 0x2651
    263a:	7628c1        	l32r	a12, 0xfffdfedc
    263d:	5e0c      	movi.n	a14, 5
    263f:	1d2782        	l32i	a8, a7, 116
    2642:	0abd      	mov.n	a11, a10
    2644:	afa2d2        	movi	a13, 0x2af
    2647:	dfda      	add.n	a13, a15, a13
    2649:	2a0c      	movi.n	a10, 2
    264b:	0008e0        	excw
    264e:	ffec06        	j	0x2602
    2651:	aca2a2        	movi	a10, 0x2ac
    2654:	afaa      	add.n	a10, a15, a10
    2656:	0e72e6        	bgei	a2, 7, 0x2668
    2659:	05cd      	mov.n	a12, a5
    265b:	04ed      	mov.n	a14, a4
    265d:	4c2782        	l32i	a8, a7, 0x130
    2660:	06dd      	mov.n	a13, a6
    2662:	0008e0        	excw
    2665:	ffe646        	j	0x2602
    2668:	05cd      	mov.n	a12, a5
    266a:	04ed      	mov.n	a14, a4
    266c:	4e2782        	l32i	a8, a7, 0x138
    266f:	06dd      	mov.n	a13, a6
    2671:	0008e0        	excw
    2674:	ffe286        	j	0x2602
    2677:	613600        	excw
    267a:	a38200        	movltz	a8, a2, a0
    267d:	adea      	add.n	a10, a13, a14
    267f:	13b204        	excw
    2682:	51b215        	excw
    2685:	040c01        	l32r	a0, 0xfffc36b8
    2688:	7624b1        	l32r	a11, 0xfffdff18
    268b:	2d1392        	l16ui	a9, a3, 90
    268e:	035192        	s16i	a9, a1, 6
    2691:	02db72        	addmi	a7, a11, 0x200
    2694:	161a87        	beq	a10, a8, 0x26ae
    2697:	eba3c2        	movi	a12, 0x3eb
    269a:	c0cac0        	sub	a12, a10, a12
    269d:	0b9c16        	beqz	a12, 0x275a
    26a0:	763ed1        	l32r	a13, 0xfffdff98
    26a3:	049d      	mov.n	a9, a4
    26a5:	c0dad0        	sub	a13, a10, a13
    26a8:	0a2d16        	beqz	a13, 0x274e
    26ab:	000cc6        	j	0x26e2
    26ae:	05ad      	mov.n	a10, a5
    26b0:	fda3b2        	movi	a11, 0x3fd
    26b3:	ee2782        	l32i	a8, a7, 0x3b8
    26b6:	04cd      	mov.n	a12, a4
    26b8:	0008e0        	excw
    26bb:	0d3a16        	beqz	a10, 0x2792
    26be:	4a0c      	movi.n	a10, 4
    26c0:	762481        	l32r	a8, 0xfffdff50
    26c3:	02bd      	mov.n	a11, a2
    26c5:	132882        	l32i	a8, a8, 76
    26c8:	0403c2        	l8ui	a12, a3, 4
    26cb:	0008e0        	excw
    26ce:	74a020        	extui	a10, a2, 0, 8
    26d1:	03bd      	mov.n	a11, a3
    26d3:	56c3c2        	addi	a12, a3, 86
    26d6:	bf2782        	l32i	a8, a7, 0x2fc
    26d9:	01dd      	mov.n	a13, a1
    26db:	0008e0        	excw
    26de:	0649      	s32i.n	a4, a6, 0
    26e0:	090c      	movi.n	a9, 0
    26e2:	064916        	beqz	a9, 0x274a
    26e5:	4b1c      	movi.n	a11, 20
    26e7:	7638a1        	l32r	a10, 0xfffdffc8
    26ea:	2c0c      	movi.n	a12, 2
    26ec:	0698      	l32i.n	a9, a6, 0
    26ee:	ab2782        	l32i	a8, a7, 0x2ac
    26f1:	7630d1        	l32r	a13, 0xfffdffb4
    26f4:	4c53d2        	s16i	a13, a3, 152
    26f7:	4b53c2        	s16i	a12, a3, 150
    26fa:	5253a2        	s16i	a10, a3, 164
    26fd:	5353b2        	s16i	a11, a3, 166
    2700:	03ad      	mov.n	a10, a3
    2702:	74b020        	extui	a11, a2, 0, 8
    2705:	004192        	s8i	a9, a1, 0
    2708:	0008e0        	excw
    270b:	762481        	l32r	a8, 0xfffdff9c
    270e:	cc2882        	l32i	a8, a8, 0x330
    2711:	01ad      	mov.n	a10, a1
    2713:	0008e0        	excw
    2716:	ac2782        	l32i	a8, a7, 0x2b0
    2719:	03ad      	mov.n	a10, a3
    271b:	0008e0        	excw
    271e:	7637a1        	l32r	a10, 0xfffdfffc
    2721:	d398      	l32i.n	a9, a3, 52
    2723:	762fb1        	l32r	a11, 0xfffdffe0
    2726:	1099a0        	and	a9, a9, a10
    2729:	d399      	s32i.n	a9, a3, 52
    272b:	1b72e6        	bgei	a2, 7, 0x274a
    272e:	0003a2        	l8ui	a10, a3, 0
    2731:	78a1c2        	movi	a12, 0x178
    2734:	c1cac0        	mul16u	a12, a10, a12
    2737:	bbca      	add.n	a11, a11, a12
    2739:	7f2bb2        	l32i	a11, a11, 0x1fc
    273c:	0a6b07        	bbci	a11, 0, 0x274a
    273f:	760f81        	l32r	a8, 0xfffdff7c
    2742:	442882        	l32i	a8, a8, 0x110
    2745:	0b0c      	movi.n	a11, 0
    2747:	0008e0        	excw
    274a:	0628      	l32i.n	a2, a6, 0
    274c:	f01d      	excw
    274e:	044142        	s8i	a4, a1, 4
    2751:	292c      	movi.n	a9, 34
    2753:	0699      	s32i.n	a9, a6, 0
    2755:	190c      	movi.n	a9, 1
    2757:	ffe1c6        	j	0x26e2
    275a:	05ad      	mov.n	a10, a5
    275c:	fda3b2        	movi	a11, 0x3fd
    275f:	ee2782        	l32i	a8, a7, 0x3b8
    2762:	04cd      	mov.n	a12, a4
    2764:	0008e0        	excw
    2767:	7aac      	beqz.n	a10, 0x2792
    2769:	392c      	movi.n	a9, 35
    276b:	0105a2        	l8ui	a10, a5, 1
    276e:	06a9      	s32i.n	a10, a6, 0
    2770:	089a97        	bne	a10, a9, 0x277c
    2773:	d3b8      	l32i.n	a11, a3, 52
    2775:	037b37        	bbci	a11, 19, 0x277c
    2778:	0a2d      	mov.n	a2, a10
    277a:	f01d      	excw
    277c:	4a0c      	movi.n	a10, 4
    277e:	762481        	l32r	a8, 0xfffe0010
    2781:	02bd      	mov.n	a11, a2
    2783:	132882        	l32i	a8, a8, 76
    2786:	0403c2        	l8ui	a12, a3, 4
    2789:	0008e0        	excw
    278c:	044142        	s8i	a4, a1, 4
    278f:	fff086        	j	0x2755
    2792:	c20c      	movi.n	a2, 12
    2794:	f01d      	excw
    2796:	360000        	excw
    2799:	820061        	l32r	a6, 0xfffe2f9c
    279c:	a2eaa3        	excw
    279f:	a21513        	excw
    27a2:	800151        	l32r	a5, 0xfffe27a8
    27a5:	92c084        	excw
    27a8:	922d13        	excw
    27ab:	910351        	l32r	a5, 0xfffe6bb8
    27ae:	0c7624        	excw
    27b1:	720a      	add.n	a7, a2, a0
    27b3:	02d9      	s32i.n	a13, a2, 0
    27b5:	099816        	beqz	a8, 0x2852
    27b8:	763eb1        	l32r	a11, 0xfffe00b0
    27bb:	c0b4b0        	sub	a11, a4, a11
    27be:	082b16        	beqz	a11, 0x2844
    27c1:	0a9d      	mov.n	a9, a10
    27c3:	06c8      	l32i.n	a12, a6, 0
    27c5:	000946        	j	0x27ee
    27c8:	4a0c      	movi.n	a10, 4
    27ca:	762481        	l32r	a8, 0xfffe005c
    27cd:	02bd      	mov.n	a11, a2
    27cf:	132882        	l32i	a8, a8, 76
    27d2:	0403c2        	l8ui	a12, a3, 4
    27d5:	0008e0        	excw
    27d8:	74a020        	extui	a10, a2, 0, 8
    27db:	03bd      	mov.n	a11, a3
    27dd:	56c3c2        	addi	a12, a3, 86
    27e0:	bf2782        	l32i	a8, a7, 0x2fc
    27e3:	01dd      	mov.n	a13, a1
    27e5:	0008e0        	excw
    27e8:	0649      	s32i.n	a4, a6, 0
    27ea:	0c0c      	movi.n	a12, 0
    27ec:	090c      	movi.n	a9, 0
    27ee:	04e916        	beqz	a9, 0x2840
    27f1:	0041c2        	s8i	a12, a1, 0
    27f4:	03ad      	mov.n	a10, a3
    27f6:	ab2782        	l32i	a8, a7, 0x2ac
    27f9:	74b020        	extui	a11, a2, 0, 8
    27fc:	0008e0        	excw
    27ff:	762481        	l32r	a8, 0xfffe0090
    2802:	cc2882        	l32i	a8, a8, 0x330
    2805:	01ad      	mov.n	a10, a1
    2807:	0008e0        	excw
    280a:	ac2782        	l32i	a8, a7, 0x2b0
    280d:	03ad      	mov.n	a10, a3
    280f:	0008e0        	excw
    2812:	7637a1        	l32r	a10, 0xfffe00f0
    2815:	d398      	l32i.n	a9, a3, 52
    2817:	762fb1        	l32r	a11, 0xfffe00d4
    281a:	1099a0        	and	a9, a9, a10
    281d:	d399      	s32i.n	a9, a3, 52
    281f:	1b72e6        	bgei	a2, 7, 0x283e
    2822:	0003a2        	l8ui	a10, a3, 0
    2825:	78a1c2        	movi	a12, 0x178
    2828:	c1cac0        	mul16u	a12, a10, a12
    282b:	bbca      	add.n	a11, a11, a12
    282d:	7f2bb2        	l32i	a11, a11, 0x1fc
    2830:	0a6b07        	bbci	a11, 0, 0x283e
    2833:	760f81        	l32r	a8, 0xfffe0070
    2836:	442882        	l32i	a8, a8, 0x110
    2839:	0b0c      	movi.n	a11, 0
    283b:	0008e0        	excw
    283e:	06c8      	l32i.n	a12, a6, 0
    2840:	0c2d      	mov.n	a2, a12
    2842:	f01d      	excw
    2844:	0441a2        	s8i	a10, a1, 4
    2847:	292c      	movi.n	a9, 34
    2849:	2c2c      	movi.n	a12, 34
    284b:	0699      	s32i.n	a9, a6, 0
    284d:	190c      	movi.n	a9, 1
    284f:	ffe6c6        	j	0x27ee
    2852:	05ad      	mov.n	a10, a5
    2854:	fda3b2        	movi	a11, 0x3fd
    2857:	040c      	movi.n	a4, 0
    2859:	ee2782        	l32i	a8, a7, 0x3b8
    285c:	04cd      	mov.n	a12, a4
    285e:	0008e0        	excw
    2861:	f63a56        	bnez	a10, 0x27c8
    2864:	c20c      	movi.n	a2, 12
    2866:	f01d      	excw
    2868:	006136        	excw
    286b:	0da482        	movi	a8, 0x40d
    286e:	439487        	bne	a4, a8, 0x28b5
    2871:	05bd      	mov.n	a11, a5
    2873:	60c3a2        	addi	a10, a3, 96
    2876:	8c0c      	movi.n	a12, 8
    2878:	074da5        	excw
    287b:	763241        	l32r	a4, 0xfffe0144
    287e:	050c      	movi.n	a5, 0
    2880:	5b0492        	l8ui	a9, a4, 91
    2883:	7610a1        	l32r	a10, 0xfffe00c4
    2886:	0c2916        	beqz	a9, 0x294c
    2889:	d3b8      	l32i.n	a11, a3, 52
    288b:	762fc1        	l32r	a12, 0xfffe0148
    288e:	1dfb27        	bbsi	a11, 18, 0x28af
    2891:	0003d2        	l8ui	a13, a3, 0
    2894:	78a1e2        	movi	a14, 0x178
    2897:	c1dde0        	mul16u	a13, a13, a14
    289a:	ccda      	add.n	a12, a12, a13
    289c:	7f2cc2        	l32i	a12, a12, 0x1fc
    289f:	0cec17        	bbsi	a12, 1, 0x28af
    28a2:	fcda82        	addmi	a8, a10, 0xfffffc00
    28a5:	a92882        	l32i	a8, a8, 0x2a4
    28a8:	03ad      	mov.n	a10, a3
    28aa:	0008e0        	excw
    28ad:	aabc      	beqz.n	a10, 0x28eb
    28af:	5b4452        	s8i	a5, a4, 91
    28b2:	002586        	j	0x294c
    28b5:	91a092        	movi	a9, 145
    28b8:	179497        	bne	a4, a9, 0x28d3
    28bb:	e3a8      	l32i.n	a10, a3, 56
    28bd:	126a87        	bbci	a10, 8, 0x28d3
    28c0:	04bd      	mov.n	a11, a4
    28c2:	762481        	l32r	a8, 0xfffe0154
    28c5:	1a2c      	movi.n	a10, 33
    28c7:	e02882        	l32i	a8, a8, 0x380
    28ca:	06a9      	s32i.n	a10, a6, 0
    28cc:	0008e0        	excw
    28cf:	0628      	l32i.n	a2, a6, 0
    28d1:	f01d      	excw
    28d3:	02ad      	mov.n	a10, a2
    28d5:	03bd      	mov.n	a11, a3
    28d7:	04cd      	mov.n	a12, a4
    28d9:	05dd      	mov.n	a13, a5
    28db:	761181        	l32r	a8, 0xfffe0120
    28de:	06ed      	mov.n	a14, a6
    28e0:	5888      	l32i.n	a8, a8, 20
    28e2:	07fd      	mov.n	a15, a7
    28e4:	0008e0        	excw
    28e7:	0a2d      	mov.n	a2, a10
    28e9:	f01d      	excw
    28eb:	763481        	l32r	a8, 0xfffe01bc
    28ee:	56c3b2        	addi	a11, a3, 86
    28f1:	5b4452        	s8i	a5, a4, 91
    28f4:	1223f2        	l32i	a15, a3, 72
    28f7:	01b9      	s32i.n	a11, a1, 0
    28f9:	20ff80        	or	a15, a15, a8
    28fc:	1263f2        	s32i	a15, a3, 72
    28ff:	5d72e6        	bgei	a2, 7, 0x2960
    2902:	03ad      	mov.n	a10, a3
    2904:	760b81        	l32r	a8, 0xfffe0130
    2907:	01b8      	l32i.n	a11, a1, 0
    2909:	b72882        	l32i	a8, a8, 0x2dc
    290c:	1c0c      	movi.n	a12, 1
    290e:	0008e0        	excw
    2911:	763381        	l32r	a8, 0xfffe01e0
    2914:	1223f2        	l32i	a15, a3, 72
    2917:	01b8      	l32i.n	a11, a1, 0
    2919:	20ff80        	or	a15, a15, a8
    291c:	07ed      	mov.n	a14, a7
    291e:	fda3a2        	movi	a10, 0x3fd
    2921:	2c0c      	movi.n	a12, 2
    2923:	0003d2        	l8ui	a13, a3, 0
    2926:	763f91        	l32r	a9, 0xfffe0224
    2929:	761081        	l32r	a8, 0xfffe016c
    292c:	209f90        	or	a9, a15, a9
    292f:	132882        	l32i	a8, a8, 76
    2932:	126392        	s32i	a9, a3, 72
    2935:	0008e0        	excw
    2938:	02bd      	mov.n	a11, a2
    293a:	d34b      	addi.n	a13, a3, 4
    293c:	4a0c      	movi.n	a10, 4
    293e:	762481        	l32r	a8, 0xfffe01d0
    2941:	7628c1        	l32r	a12, 0xfffe01e4
    2944:	1d2882        	l32i	a8, a8, 116
    2947:	3e0c      	movi.n	a14, 3
    2949:	0008e0        	excw
    294c:	172492        	l32i	a9, a4, 92
    294f:	798c      	beqz.n	a9, 0x295a
    2951:	761081        	l32r	a8, 0xfffe0194
    2954:	5b2882        	l32i	a8, a8, 0x16c
    2957:	0008e0        	excw
    295a:	0659      	s32i.n	a5, a6, 0
    295c:	020c      	movi.n	a2, 0
    295e:	f01d      	excw
    2960:	764091        	l32r	a9, 0xfffe0260
    2963:	10ff90        	and	a15, a15, a9
    2966:	ffec86        	j	0x291c
    2969:	000000        	ill
    296c:	004136        	excw
    296f:	233300        	excw
    2972:	160326        	beqi	a3, -1, 0x298c
    2975:	761441        	l32r	a4, 0xfffe01c8
    2978:	c8a052        	movi	a5, 200
    297b:	d15350        	mul16s	a5, a3, a5
    297e:	445a      	add.n	a4, a4, a5
    2980:	b92422        	l32i	a2, a4, 0x2e4
    2983:	ffae52        	movi	a5, 0xfffffeff
    2986:	102250        	and	a2, a2, a5
    2989:	b96422        	s32i	a2, a4, 0x2e4
    298c:	f01d      	excw
    298e:	360000        	excw
    2991:	820081        	l32r	a8, 0xfffe3194
    2994:	92eba3        	excw
    2997:	a21223        	excw
    299a:	a90105        	call0	0xfffab9ac
    299d:	909051        	l32r	a5, 0xfffe6be0
    29a0:	419904        	excw
    29a3:	169487        	bne	a4, a8, 0x29bd
    29a6:	05ad      	mov.n	a10, a5
    29a8:	760b81        	l32r	a8, 0xfffe01d4
    29ab:	f2a3b2        	movi	a11, 0x3f2
    29ae:	ee2882        	l32i	a8, a8, 0x3b8
    29b1:	0c0c      	movi.n	a12, 0
    29b3:	0008e0        	excw
    29b6:	046a56        	bnez	a10, 0x2a00
    29b9:	c20c      	movi.n	a2, 12
    29bb:	f01d      	excw
    29bd:	04cd      	mov.n	a12, a4
    29bf:	05dd      	mov.n	a13, a5
    29c1:	06ed      	mov.n	a14, a6
    29c3:	07fd      	mov.n	a15, a7
    29c5:	761181        	l32r	a8, 0xfffe020c
    29c8:	02ad      	mov.n	a10, a2
    29ca:	6888      	l32i.n	a8, a8, 24
    29cc:	03bd      	mov.n	a11, a3
    29ce:	0008e0        	excw
    29d1:	0a4d      	mov.n	a4, a10
    29d3:	2572a6        	blti	a2, 7, 0x29fc
    29d6:	4198      	l32i.n	a9, a1, 16
    29d8:	09ec      	bnez.n	a9, 0x29fc
    29da:	1223a2        	l32i	a10, a3, 72
    29dd:	1b6a07        	bbci	a10, 0, 0x29fc
    29e0:	02cd      	mov.n	a12, a2
    29e2:	2ca1b2        	movi	a11, 0x12c
    29e5:	7642d1        	l32r	a13, 0xfffe02f0
    29e8:	764181        	l32r	a8, 0xfffe02ec
    29eb:	e398      	l32i.n	a9, a3, 56
    29ed:	00a1a2        	movi	a10, 0x100
    29f0:	2099a0        	or	a9, a9, a10
    29f3:	7888      	l32i.n	a8, a8, 28
    29f5:	2a0c      	movi.n	a10, 2
    29f7:	e399      	s32i.n	a9, a3, 56
    29f9:	0008e0        	excw
    29fc:	042d      	mov.n	a2, a4
    29fe:	f01d      	excw
    2a00:	2a0c      	movi.n	a10, 2
    2a02:	02bd      	mov.n	a11, a2
    2a04:	090c      	movi.n	a9, 0
    2a06:	762481        	l32r	a8, 0xfffe0298
    2a09:	0699      	s32i.n	a9, a6, 0
    2a0b:	132882        	l32i	a8, a8, 76
    2a0e:	0303c2        	l8ui	a12, a3, 3
    2a11:	0008e0        	excw
    2a14:	1223a2        	l32i	a10, a3, 72
    2a17:	7614b1        	l32r	a11, 0xfffe0268
    2a1a:	7eead7        	bbsi	a10, 13, 0x2a9c
    2a1d:	121bb2        	l16ui	a11, a11, 36
    2a20:	04b0b0        	extui	a11, a11, 0, 1
    2a23:	0a7b16        	beqz	a11, 0x2ace
    2a26:	760b81        	l32r	a8, 0xfffe0254
    2a29:	3a3c      	movi.n	a10, 51
    2a2b:	df2882        	l32i	a8, a8, 0x37c
    2a2e:	03bd      	mov.n	a11, a3
    2a30:	0008e0        	excw
    2a33:	097a16        	beqz	a10, 0x2ace
    2a36:	760b81        	l32r	a8, 0xfffe0264
    2a39:	de2882        	l32i	a8, a8, 0x378
    2a3c:	3a3c      	movi.n	a10, 51
    2a3e:	0008e0        	excw
    2a41:	089a16        	beqz	a10, 0x2ace
    2a44:	760b81        	l32r	a8, 0xfffe0270
    2a47:	4a3c      	movi.n	a10, 52
    2a49:	df2882        	l32i	a8, a8, 0x37c
    2a4c:	03bd      	mov.n	a11, a3
    2a4e:	0008e0        	excw
    2a51:	079a16        	beqz	a10, 0x2ace
    2a54:	760b81        	l32r	a8, 0xfffe0280
    2a57:	de2882        	l32i	a8, a8, 0x378
    2a5a:	4a3c      	movi.n	a10, 52
    2a5c:	0008e0        	excw
    2a5f:	06ba16        	beqz	a10, 0x2ace
    2a62:	760b81        	l32r	a8, 0xfffe0290
    2a65:	0a4c      	movi.n	a10, 64
    2a67:	df2882        	l32i	a8, a8, 0x37c
    2a6a:	03bd      	mov.n	a11, a3
    2a6c:	0008e0        	excw
    2a6f:	05ba16        	beqz	a10, 0x2ace
    2a72:	760b81        	l32r	a8, 0xfffe02a0
    2a75:	de2882        	l32i	a8, a8, 0x378
    2a78:	0a4c      	movi.n	a10, 64
    2a7a:	0008e0        	excw
    2a7d:	04da16        	beqz	a10, 0x2ace
    2a80:	03ad      	mov.n	a10, a3
    2a82:	74b020        	extui	a11, a2, 0, 8
    2a85:	07ed      	mov.n	a14, a7
    2a87:	04fd      	mov.n	a15, a4
    2a89:	1c0c      	movi.n	a12, 1
    2a8b:	762481        	l32r	a8, 0xfffe031c
    2a8e:	0159      	s32i.n	a5, a1, 0
    2a90:	af2882        	l32i	a8, a8, 0x2bc
    2a93:	06dd      	mov.n	a13, a6
    2a95:	0008e0        	excw
    2a98:	0628      	l32i.n	a2, a6, 0
    2a9a:	f01d      	excw
    2a9c:	762441        	l32r	a4, 0xfffe032c
    2a9f:	5198      	l32i.n	a9, a1, 20
    2aa1:	aa2c      	movi.n	a10, 42
    2aa3:	6c19a7        	beq	a9, a10, 0x2b13
    2aa6:	3c2c      	movi.n	a12, 35
    2aa8:	6719c7        	beq	a9, a12, 0x2b13
    2aab:	5a0c      	movi.n	a10, 5
    2aad:	06a9      	s32i.n	a10, a6, 0
    2aaf:	0103d2        	l8ui	a13, a3, 1
    2ab2:	653d26        	beqi	a13, 3, 0x2b1b
    2ab5:	d12482        	l32i	a8, a4, 0x344
    2ab8:	03bd      	mov.n	a11, a3
    2aba:	0008e0        	excw
    2abd:	02cd      	mov.n	a12, a2
    2abf:	03dd      	mov.n	a13, a3
    2ac1:	1a0c      	movi.n	a10, 1
    2ac3:	502482        	l32i	a8, a4, 0x140
    2ac6:	06b8      	l32i.n	a11, a6, 0
    2ac8:	0008e0        	excw
    2acb:	001006        	j	0x2b0f
    2ace:	2a0c      	movi.n	a10, 2
    2ad0:	02bd      	mov.n	a11, a2
    2ad2:	7628c1        	l32r	a12, 0xfffe0374
    2ad5:	762441        	l32r	a4, 0xfffe0368
    2ad8:	d33b      	addi.n	a13, a3, 3
    2ada:	1d2482        	l32i	a8, a4, 116
    2add:	8e0c      	movi.n	a14, 8
    2adf:	0008e0        	excw
    2ae2:	764381        	l32r	a8, 0xfffe03f0
    2ae5:	d888      	l32i.n	a8, a8, 52
    2ae7:	6a1c      	movi.n	a10, 22
    2ae9:	0008e0        	excw
    2aec:	8ca0d2        	movi	a13, 140
    2aef:	d3da      	add.n	a13, a3, a13
    2af1:	2a9c      	beqz.n	a10, 0x2b07
    2af3:	02ad      	mov.n	a10, a2
    2af5:	03bd      	mov.n	a11, a3
    2af7:	07fd      	mov.n	a15, a7
    2af9:	72a0c2        	movi	a12, 114
    2afc:	7d2482        	l32i	a8, a4, 0x1f4
    2aff:	06ed      	mov.n	a14, a6
    2b01:	0008e0        	excw
    2b04:	0001c6        	j	0x2b0f
    2b07:	e62482        	l32i	a8, a4, 0x398
    2b0a:	0dad      	mov.n	a10, a13
    2b0c:	0008e0        	excw
    2b0f:	0628      	l32i.n	a2, a6, 0
    2b11:	f01d      	excw
    2b13:	020c      	movi.n	a2, 0
    2b15:	090c      	movi.n	a9, 0
    2b17:	0699      	s32i.n	a9, a6, 0
    2b19:	f01d      	excw
    2b1b:	3d2482        	l32i	a8, a4, 244
    2b1e:	03ad      	mov.n	a10, a3
    2b20:	0008e0        	excw
    2b23:	fffa06        	j	0x2b0f
    2b26:	360000        	excw
    2b29:	820061        	l32r	a6, 0xfffe332c
    2b2c:	8775a0        	excw
    2b2f:	2c1c95        	excw
    2b32:	27f9      	s32i.n	a15, a7, 8
    2b34:	17b9      	s32i.n	a11, a7, 4
    2b36:	7a3c      	movi.n	a10, 55
    2b38:	123a27        	bltu	a10, a2, 0x2b4e
    2b3b:	05bd      	mov.n	a11, a5
    2b3d:	762481        	l32r	a8, 0xfffe03d0
    2b40:	0a0c      	movi.n	a10, 0
    2b42:	e02882        	l32i	a8, a8, 0x380
    2b45:	07a9      	s32i.n	a10, a7, 0
    2b47:	0008e0        	excw
    2b4a:	0728      	l32i.n	a2, a7, 0
    2b4c:	f01d      	excw
    2b4e:	02ad      	mov.n	a10, a2
    2b50:	03bd      	mov.n	a11, a3
    2b52:	04cd      	mov.n	a12, a4
    2b54:	05dd      	mov.n	a13, a5
    2b56:	06ed      	mov.n	a14, a6
    2b58:	761181        	l32r	a8, 0xfffe039c
    2b5b:	c198      	l32i.n	a9, a1, 48
    2b5d:	0199      	s32i.n	a9, a1, 0
    2b5f:	7888      	l32i.n	a8, a8, 28
    2b61:	07fd      	mov.n	a15, a7
    2b63:	0008e0        	excw
    2b66:	0a2d      	mov.n	a2, a10
    2b68:	f01d      	excw
    2b6a:	360000        	excw
    2b6d:	a10041        	l32r	a4, 0xfffeaf70
    2b70:	407644        	excw
    2b73:	261480        	excw
    2b76:	0d38      	l32i.n	a3, a13, 0
    2b78:	0a6457        	bbci	a4, 5, 0x2b86
    2b7b:	149840        	extui	a9, a4, 8, 2
    2b7e:	49cc      	bnez.n	a9, 0x2b86
    2b80:	11c5f0        	slli	a12, a5, 1
    2b83:	000046        	j	0x2b88
    2b86:	05cd      	mov.n	a12, a5
    2b88:	000a92        	l8ui	a9, a10, 0
    2b8b:	dac9      	s32i.n	a12, a10, 52
    2b8d:	899c      	beqz.n	a9, 0x2ba9
    2b8f:	1639e6        	bgei	a9, 3, 0x2ba9
    2b92:	1319a6        	blti	a9, 1, 0x2ba9
    2b95:	ffa0b2        	movi	a11, 255
    2b98:	0d13b7        	beq	a3, a11, 0x2ba9
    2b9b:	764581        	l32r	a8, 0xfffe04b0
    2b9e:	03ad      	mov.n	a10, a3
    2ba0:	342882        	l32i	a8, a8, 208
    2ba3:	f4b0c0        	extui	a11, a12, 0, 16
    2ba6:	0008e0        	excw
    2ba9:	f01d      	excw
    2bab:	813600        	src	a3, a6, a0
    2bae:	103100        	and	a3, a1, a0
    2bb1:	238276        	excw
    2bb4:	08e077        	bbsi	a0, 7, 0x2bc0
    2bb7:	322100        	excw
    2bba:	244176        	excw
    2bbd:	229276        	excw
    2bc0:	1e          	.byte 0x1e
    2bc1:	1a22a2        	l32i	a10, a2, 104
    2bc4:	06c956        	bnez	a9, 0x2c34
    2bc7:	081a92        	l16ui	a9, a10, 16
    2bca:	760f61        	l32r	a6, 0xfffe0408
    2bcd:	6d6937        	bbci	a9, 3, 0x2c3e
    2bd0:	7646b1        	l32r	a11, 0xfffe04e8
    2bd3:	10b9b0        	and	a11, a9, a11
    2bd6:	085ab2        	s16i	a11, a10, 16
    2bd9:	1a0c      	movi.n	a10, 1
    2bdb:	1a22c2        	l32i	a12, a2, 104
    2bde:	1b22d2        	l32i	a13, a2, 108
    2be1:	040cb2        	l8ui	a11, a12, 4
    2be4:	051dd2        	l16ui	a13, a13, 10
    2be7:	0f1cc2        	l16ui	a12, a12, 30
    2bea:	fff825        	excw
    2bed:	1a22b2        	l32i	a11, a2, 104
    2bf0:	1a0c      	movi.n	a10, 1
    2bf2:	081b92        	l16ui	a9, a11, 16
    2bf5:	692482        	l32i	a8, a4, 0x1a4
    2bf8:	e49090        	extui	a9, a9, 0, 15
    2bfb:	085b92        	s16i	a9, a11, 16
    2bfe:	0008e0        	excw
    2c01:	3fa3b2        	movi	a11, 0x33f
    2c04:	1a22e2        	l32i	a14, a2, 104
    2c07:	0d0c      	movi.n	a13, 0
    2c09:	0c4ed2        	s8i	a13, a14, 12
    2c0c:	1a22c2        	l32i	a12, a2, 104
    2c0f:	1b2292        	l32i	a9, a2, 108
    2c12:	0b5cb2        	s16i	a11, a12, 22
    2c15:	0709a2        	l8ui	a10, a9, 7
    2c18:	0809f2        	l8ui	a15, a9, 8
    2c1b:	0a8c      	beqz.n	a10, 0x2c1f
    2c1d:	9fdc      	bnez.n	a15, 0x2c3a
    2c1f:	1a22a2        	l32i	a10, a2, 104
    2c22:	322482        	l32i	a8, a4, 200
    2c25:	040aa2        	l8ui	a10, a10, 4
    2c28:	0008e0        	excw
    2c2b:	142682        	l32i	a8, a6, 80
    2c2e:	0008e0        	excw
    2c31:	000146        	j	0x2c3a
    2c34:	a52382        	l32i	a8, a3, 0x294
    2c37:	0008e0        	excw
    2c3a:	120c      	movi.n	a2, 1
    2c3c:	f01d      	excw
    2c3e:	3524b2        	l32i	a11, a4, 212
    2c41:	1c22a2        	l32i	a10, a2, 112
    2c44:	ffa072        	movi	a7, 255
    2c47:	151aa2        	l16ui	a10, a10, 42
    2c4a:	06d652        	addmi	a5, a6, 0x600
    2c4d:	74a0a0        	extui	a10, a10, 0, 8
    2c50:	686927        	bbci	a9, 2, 0x2cbc
    2c53:	000be0        	excw
    2c56:	0b0c      	movi.n	a11, 0
    2c58:	212582        	l32i	a8, a5, 132
    2c5b:	0c0c      	movi.n	a12, 0
    2c5d:	0008e0        	excw
    2c60:	0a5d      	mov.n	a5, a10
    2c62:	d41a77        	beq	a10, a7, 0x2c3a
    2c65:	6a8c      	beqz.n	a10, 0x2c6f
    2c67:	760ca1        	l32r	a10, 0xfffe0498
    2c6a:	0b0c      	movi.n	a11, 0
    2c6c:	b69365        	excw
    2c6f:	05ad      	mov.n	a10, a5
    2c71:	1a22b2        	l32i	a11, a2, 104
    2c74:	2b2482        	l32i	a8, a4, 172
    2c77:	040bb2        	l8ui	a11, a11, 4
    2c7a:	0008e0        	excw
    2c7d:	1a22a2        	l32i	a10, a2, 104
    2c80:	9d2382        	l32i	a8, a3, 0x274
    2c83:	090aa2        	l8ui	a10, a10, 9
    2c86:	0008e0        	excw
    2c89:	9f2382        	l32i	a8, a3, 0x27c
    2c8c:	0a3d      	mov.n	a3, a10
    2c8e:	1a22a2        	l32i	a10, a2, 104
    2c91:	0008e0        	excw
    2c94:	03dd      	mov.n	a13, a3
    2c96:	122682        	l32i	a8, a6, 72
    2c99:	0aed      	mov.n	a14, a10
    2c9b:	1a22f2        	l32i	a15, a2, 104
    2c9e:	05ad      	mov.n	a10, a5
    2ca0:	070fb2        	l8ui	a11, a15, 7
    2ca3:	060fc2        	l8ui	a12, a15, 6
    2ca6:	050ff2        	l8ui	a15, a15, 5
    2ca9:	0008e0        	excw
    2cac:	f480a0        	extui	a8, a10, 0, 16
    2caf:	f26816        	beqz	a8, 0x2bd9
    2cb2:	0a0c      	movi.n	a10, 0
    2cb4:	1b0c      	movi.n	a11, 1
    2cb6:	b68ee5        	excw
    2cb9:	ffc706        	j	0x2bd9
    2cbc:	000be0        	excw
    2cbf:	1b0c      	movi.n	a11, 1
    2cc1:	212582        	l32i	a8, a5, 132
    2cc4:	0c0c      	movi.n	a12, 0
    2cc6:	0008e0        	excw
    2cc9:	0a5d      	mov.n	a5, a10
    2ccb:	c09a70        	sub	a9, a10, a7
    2cce:	f68916        	beqz	a9, 0x2c3a
    2cd1:	6a8c      	beqz.n	a10, 0x2cdb
    2cd3:	760ca1        	l32r	a10, 0xfffe0504
    2cd6:	0b0c      	movi.n	a11, 0
    2cd8:	b68ca5        	excw
    2cdb:	05ad      	mov.n	a10, a5
    2cdd:	1a22b2        	l32i	a11, a2, 104
    2ce0:	2b2482        	l32i	a8, a4, 172
    2ce3:	040bb2        	l8ui	a11, a11, 4
    2ce6:	0008e0        	excw
    2ce9:	9f2382        	l32i	a8, a3, 0x27c
    2cec:	1a22a2        	l32i	a10, a2, 104
    2cef:	0008e0        	excw
    2cf2:	0a7d      	mov.n	a7, a10
    2cf4:	9f2382        	l32i	a8, a3, 0x27c
    2cf7:	1a22a2        	l32i	a10, a2, 104
    2cfa:	0008e0        	excw
    2cfd:	1a2292        	l32i	a9, a2, 104
    2d00:	9d2382        	l32i	a8, a3, 0x274
    2d03:	0a3d      	mov.n	a3, a10
    2d05:	0909a2        	l8ui	a10, a9, 9
    2d08:	0008e0        	excw
    2d0b:	1a2292        	l32i	a9, a2, 104
    2d0e:	0afd      	mov.n	a15, a10
    2d10:	0209b2        	l8ui	a11, a9, 2
    2d13:	0709c2        	l8ui	a12, a9, 7
    2d16:	0609d2        	l8ui	a13, a9, 6
    2d19:	0809e2        	l8ui	a14, a9, 8
    2d1c:	0139      	s32i.n	a3, a1, 0
    2d1e:	091982        	l16ui	a8, a9, 18
    2d21:	1189      	s32i.n	a8, a1, 4
    2d23:	0a19a2        	l16ui	a10, a9, 20
    2d26:	21a9      	s32i.n	a10, a1, 8
    2d28:	31f9      	s32i.n	a15, a1, 12
    2d2a:	07fd      	mov.n	a15, a7
    2d2c:	050992        	l8ui	a9, a9, 5
    2d2f:	4199      	s32i.n	a9, a1, 16
    2d31:	132682        	l32i	a8, a6, 76
    2d34:	05ad      	mov.n	a10, a5
    2d36:	0008e0        	excw
    2d39:	f490a0        	extui	a9, a10, 0, 16
    2d3c:	e99916        	beqz	a9, 0x2bd9
    2d3f:	0a0c      	movi.n	a10, 0
    2d41:	1b0c      	movi.n	a11, 1
    2d43:	b68625        	excw
    2d46:	ffa3c6        	j	0x2bd9
    2d49:	000000        	ill
    2d4c:	004136        	excw
    2d4f:	04ad      	mov.n	a10, a4
    2d51:	0b0c      	movi.n	a11, 0
    2d53:	4c1c      	movi.n	a12, 20
    2d55:	0711e5        	excw
    2d58:	980c      	movi.n	a8, 9
    2d5a:	3c9287        	bne	a2, a8, 0x2d9a
    2d5d:	0303b2        	l8ui	a11, a3, 3
    2d60:	0203a2        	l8ui	a10, a3, 2
    2d63:	01bb80        	slli	a11, a11, 24
    2d66:	11aa00        	slli	a10, a10, 16
    2d69:	aaba      	add.n	a10, a10, a11
    2d6b:	0103b2        	l8ui	a11, a3, 1
    2d6e:	000392        	l8ui	a9, a3, 0
    2d71:	11bb80        	slli	a11, a11, 8
    2d74:	99ba      	add.n	a9, a9, a11
    2d76:	99aa      	add.n	a9, a9, a10
    2d78:	d98c      	beqz.n	a9, 0x2d89
    2d7a:	2a0c      	movi.n	a10, 2
    2d7c:	ffa0b2        	movi	a11, 255
    2d7f:	3c0c      	movi.n	a12, 3
    2d81:	cd3c      	movi.n	a13, 60
    2d83:	ffdea5        	excw
    2d86:	000306        	j	0x2d96
    2d89:	764781        	l32r	a8, 0xfffe06a8
    2d8c:	2a0c      	movi.n	a10, 2
    2d8e:	2888      	l32i.n	a8, a8, 8
    2d90:	ffa0b2        	movi	a11, 255
    2d93:	0008e0        	excw
    2d96:	120c      	movi.n	a2, 1
    2d98:	f01d      	excw
    2d9a:	02ad      	mov.n	a10, a2
    2d9c:	761181        	l32r	a8, 0xfffe05e0
    2d9f:	03bd      	mov.n	a11, a3
    2da1:	8888      	l32i.n	a8, a8, 32
    2da3:	04cd      	mov.n	a12, a4
    2da5:	0008e0        	excw
    2da8:	0a2d      	mov.n	a2, a10
    2daa:	f01d      	excw
    2dac:	004136        	excw
    2daf:	170c      	movi.n	a7, 1
    2db1:	761161        	l32r	a6, 0xfffe05f8
    2db4:	011342        	l16ui	a4, a3, 2
    2db7:	f50c      	movi.n	a5, 15
    2db9:	1f9457        	bne	a4, a5, 0x2ddc
    2dbc:	764891        	l32r	a9, 0xfffe06dc
    2dbf:	021382        	l16ui	a8, a3, 4
    2dc2:	0003a2        	l8ui	a10, a3, 0
    2dc5:	139897        	bne	a8, a9, 0x2ddc
    2dc8:	104a66        	bnei	a10, 4, 0x2ddc
    2dcb:	401200        	ssl	a2
    2dce:	121622        	l16ui	a2, a6, 36
    2dd1:	a14700        	sll	a4, a7
    2dd4:	202240        	or	a2, a2, a4
    2dd7:	125622        	s16i	a2, a6, 36
    2dda:	f01d      	excw
    2ddc:	401200        	ssl	a2
    2ddf:	f47c      	movi.n	a4, -1
    2de1:	121622        	l16ui	a2, a6, 36
    2de4:	a13700        	sll	a3, a7
    2de7:	303340        	xor	a3, a3, a4
    2dea:	102230        	and	a2, a2, a3
    2ded:	fff986        	j	0x2dd7
    2df0:	004136        	excw
    2df3:	761131        	l32r	a3, 0xfffe0638
    2df6:	121332        	l16ui	a3, a3, 36
    2df9:	035327        	bbc	a3, a2, 0x2e00
    2dfc:	120c      	movi.n	a2, 1
    2dfe:	f01d      	excw
    2e00:	020c      	movi.n	a2, 0
    2e02:	f01d      	excw
    2e04:	006136        	excw
    2e07:	760b71        	l32r	a7, 0xfffe0634
    2e0a:	05ad      	mov.n	a10, a5
    2e0c:	ef2782        	l32i	a8, a7, 0x3bc
    2e0f:	01bd      	mov.n	a11, a1
    2e11:	0008e0        	excw
    2e14:	276417        	bbci	a4, 1, 0x2e3f
    2e17:	0a0c      	movi.n	a10, 0
    2e19:	05bd      	mov.n	a11, a5
    2e1b:	f02782        	l32i	a8, a7, 0x3c0
    2e1e:	0c0c      	movi.n	a12, 0
    2e20:	0008e0        	excw
    2e23:	982782        	l32i	a8, a7, 0x260
    2e26:	0a3d      	mov.n	a3, a10
    2e28:	0008e0        	excw
    2e2b:	02bd      	mov.n	a11, a2
    2e2d:	05ed      	mov.n	a14, a5
    2e2f:	6c0c      	movi.n	a12, 6
    2e31:	0add      	mov.n	a13, a10
    2e33:	f92782        	l32i	a8, a7, 0x3e4
    2e36:	74a030        	extui	a10, a3, 0, 8
    2e39:	0008e0        	excw
    2e3c:	0009c6        	j	0x2e67
    2e3f:	03bd      	mov.n	a11, a3
    2e41:	000392        	l8ui	a9, a3, 0
    2e44:	184a92        	s8i	a9, a10, 24
    2e47:	0001a2        	l8ui	a10, a1, 0
    2e4a:	fff625        	excw
    2e4d:	982782        	l32i	a8, a7, 0x260
    2e50:	0008e0        	excw
    2e53:	05dd      	mov.n	a13, a5
    2e55:	06ed      	mov.n	a14, a6
    2e57:	2c0c      	movi.n	a12, 2
    2e59:	761081        	l32r	a8, 0xfffe069c
    2e5c:	0abd      	mov.n	a11, a10
    2e5e:	1f2882        	l32i	a8, a8, 124
    2e61:	0ba4a2        	movi	a10, 0x40b
    2e64:	0008e0        	excw
    2e67:	020c      	movi.n	a2, 0
    2e69:	f01d      	excw
    2e6b:	813600        	src	a3, a6, a0
    2e6e:	0b7100        	excw
    2e71:	05ad76        	excw
    2e74:	ef2782        	l32i	a8, a7, 0x3bc
    2e77:	10c1b2        	addi	a11, a1, 16
    2e7a:	0008e0        	excw
    2e7d:	51a9      	s32i.n	a10, a1, 20
    2e7f:	e4cc      	bnez.n	a4, 0x2e91
    2e81:	03bd      	mov.n	a11, a3
    2e83:	000392        	l8ui	a9, a3, 0
    2e86:	184a92        	s8i	a9, a10, 24
    2e89:	1001a2        	l8ui	a10, a1, 16
    2e8c:	fff1e5        	excw
    2e8f:	51a8      	l32i.n	a10, a1, 20
    2e91:	762481        	l32r	a8, 0xfffe0724
    2e94:	712882        	l32i	a8, a8, 0x1c4
    2e97:	0008e0        	excw
    2e9a:	f027d2        	l32i	a13, a7, 0x3c0
    2e9d:	261a66        	bnei	a10, 1, 0x2ec7
    2ea0:	0a0c      	movi.n	a10, 0
    2ea2:	05bd      	mov.n	a11, a5
    2ea4:	1c0c      	movi.n	a12, 1
    2ea6:	000de0        	excw
    2ea9:	03bd      	mov.n	a11, a3
    2eab:	04cd      	mov.n	a12, a4
    2ead:	05dd      	mov.n	a13, a5
    2eaf:	0afd      	mov.n	a15, a10
    2eb1:	7624e1        	l32r	a14, 0xfffe0744
    2eb4:	02ad      	mov.n	a10, a2
    2eb6:	632ee2        	l32i	a14, a14, 0x18c
    2eb9:	0169      	s32i.n	a6, a1, 0
    2ebb:	f22782        	l32i	a8, a7, 0x3c8
    2ebe:	74f0f0        	extui	a15, a15, 0, 8
    2ec1:	0008e0        	excw
    2ec4:	000806        	j	0x2ee8
    2ec7:	0a0c      	movi.n	a10, 0
    2ec9:	05bd      	mov.n	a11, a5
    2ecb:	1c0c      	movi.n	a12, 1
    2ecd:	000de0        	excw
    2ed0:	03bd      	mov.n	a11, a3
    2ed2:	04cd      	mov.n	a12, a4
    2ed4:	05dd      	mov.n	a13, a5
    2ed6:	0afd      	mov.n	a15, a10
    2ed8:	9527e2        	l32i	a14, a7, 0x254
    2edb:	02ad      	mov.n	a10, a2
    2edd:	0169      	s32i.n	a6, a1, 0
    2edf:	f22782        	l32i	a8, a7, 0x3c8
    2ee2:	74f0f0        	extui	a15, a15, 0, 8
    2ee5:	0008e0        	excw
    2ee8:	020c      	movi.n	a2, 0
    2eea:	f01d      	excw
    2eec:	004136        	excw
    2eef:	02ad      	mov.n	a10, a2
    2ef1:	04cd      	mov.n	a12, a4
    2ef3:	761141        	l32r	a4, 0xfffe0738
    2ef6:	05dd      	mov.n	a13, a5
    2ef8:	a488      	l32i.n	a8, a4, 40
    2efa:	03bd      	mov.n	a11, a3
    2efc:	0008e0        	excw
    2eff:	0a2d      	mov.n	a2, a10
    2f01:	2413a7        	beq	a3, a10, 0x2f29
    2f04:	fc7c      	movi.n	a12, -1
    2f06:	401300        	ssl	a3
    2f09:	1d0c      	movi.n	a13, 1
    2f0b:	1214a2        	l16ui	a10, a4, 36
    2f0e:	a1bd00        	sll	a11, a13
    2f11:	401200        	ssl	a2
    2f14:	109ba0        	and	a9, a11, a10
    2f17:	939d90        	movnez	a9, a13, a9
    2f1a:	30bbc0        	xor	a11, a11, a12
    2f1d:	10aab0        	and	a10, a10, a11
    2f20:	a19900        	sll	a9, a9
    2f23:	2099a0        	or	a9, a9, a10
    2f26:	125492        	s16i	a9, a4, 36
    2f29:	f01d      	excw
    2f2b:	613600        	excw
    2f2e:	228200        	excw
    2f31:	073130        	excw
    2f34:	988c76        	excw
    2f37:	c0a0a2        	movi	a10, 192
    2f3a:	1e2382        	l32i	a8, a3, 120
    2f3d:	a2aa      	add.n	a10, a2, a10
    2f3f:	0008e0        	excw
    2f42:	1222b2        	l32i	a11, a2, 72
    2f45:	0febd7        	bbsi	a11, 13, 0x2f58
    2f48:	3122c2        	l32i	a12, a2, 196
    2f4b:	9c8c      	beqz.n	a12, 0x2f58
    2f4d:	c4a0a2        	movi	a10, 196
    2f50:	1e2382        	l32i	a8, a3, 120
    2f53:	a2aa      	add.n	a10, a2, a10
    2f55:	0008e0        	excw
    2f58:	1d0c      	movi.n	a13, 1
    2f5a:	762431        	l32r	a3, 0xfffe07ec
    2f5d:	7649e1        	l32r	a14, 0xfffe0884
    2f60:	d2b8      	l32i.n	a11, a2, 52
    2f62:	bc3c      	movi.n	a12, 59
    2f64:	0342c2        	s8i	a12, a2, 3
    2f67:	10bbe0        	and	a11, a11, a14
    2f6a:	d2b9      	s32i.n	a11, a2, 52
    2f6c:	0c7b07        	bbci	a11, 16, 0x2f7c
    2f6f:	02ad      	mov.n	a10, a2
    2f71:	0642d2        	s8i	a13, a2, 6
    2f74:	9c2382        	l32i	a8, a3, 0x270
    2f77:	0b0c      	movi.n	a11, 0
    2f79:	0008e0        	excw
    2f7c:	122292        	l32i	a9, a2, 72
    2f7f:	761451        	l32r	a5, 0xfffe07d0
    2f82:	04ad90        	extui	a10, a9, 13, 1
    2f85:	07ea16        	beqz	a10, 0x3007
    2f88:	54ad72        	movi	a7, 0xfffffd54
    2f8b:	1c0c      	movi.n	a12, 1
    2f8d:	040c      	movi.n	a4, 0
    2f8f:	764ae1        	l32r	a14, 0xfffe08b8
    2f92:	764bb1        	l32r	a11, 0xfffe08c0
    2f95:	d2d8      	l32i.n	a13, a2, 52
    2f97:	10b9b0        	and	a11, a9, a11
    2f9a:	1262b2        	s32i	a11, a2, 72
    2f9d:	10dde0        	and	a13, a13, a14
    2fa0:	834cd0        	moveqz	a4, a12, a13
    2fa3:	2e6b17        	bbci	a11, 1, 0x2fd5
    2fa6:	1215c2        	l16ui	a12, a5, 36
    2fa9:	28ec07        	bbsi	a12, 0, 0x2fd5
    2fac:	3a0c      	movi.n	a10, 3
    2fae:	e388      	l32i.n	a8, a3, 56
    2fb0:	02bd      	mov.n	a11, a2
    2fb2:	0008e0        	excw
    2fb5:	0a6d      	mov.n	a6, a10
    2fb7:	c8a0b2        	movi	a11, 200
    2fba:	c0a250        	sub	a10, a2, a5
    2fbd:	aa7a      	add.n	a10, a10, a7
    2fbf:	06c965        	excw
    2fc2:	23aa00        	excw
    2fc5:	02bd      	mov.n	a11, a2
    2fc7:	06cd      	mov.n	a12, a6
    2fc9:	04ed      	mov.n	a14, a4
    2fcb:	3a2382        	l32i	a8, a3, 232
    2fce:	01dd      	mov.n	a13, a1
    2fd0:	0008e0        	excw
    2fd3:	f01d      	excw
    2fd5:	c8a0b2        	movi	a11, 200
    2fd8:	c0a250        	sub	a10, a2, a5
    2fdb:	aa7a      	add.n	a10, a10, a7
    2fdd:	06c765        	excw
    2fe0:	7450a0        	extui	a5, a10, 0, 8
    2fe3:	0795b6        	bltui	a5, 10, 0x2fee
    2fe6:	760ca1        	l32r	a10, 0xfffe0818
    2fe9:	0b0c      	movi.n	a11, 0
    2feb:	b65ba5        	excw
    2fee:	3a0c      	movi.n	a10, 3
    2ff0:	e388      	l32i.n	a8, a3, 56
    2ff2:	02bd      	mov.n	a11, a2
    2ff4:	0008e0        	excw
    2ff7:	02bd      	mov.n	a11, a2
    2ff9:	05cd      	mov.n	a12, a5
    2ffb:	04ed      	mov.n	a14, a4
    2ffd:	01dd      	mov.n	a13, a1
    2fff:	432382        	l32i	a8, a3, 0x10c
    3002:	8f0c      	movi.n	a15, 8
    3004:	0008e0        	excw
    3007:	f01d      	excw
    3009:	000000        	ill
    300c:	004136        	excw
    300f:	faa382        	movi	a8, 0x3fa
    3012:	059487        	bne	a4, a8, 0x301b
    3015:	020c      	movi.n	a2, 0
    3017:	0629      	s32i.n	a2, a6, 0
    3019:	f01d      	excw
    301b:	02ad      	mov.n	a10, a2
    301d:	03bd      	mov.n	a11, a3
    301f:	04cd      	mov.n	a12, a4
    3021:	05dd      	mov.n	a13, a5
    3023:	761181        	l32r	a8, 0xfffe0868
    3026:	06ed      	mov.n	a14, a6
    3028:	b888      	l32i.n	a8, a8, 44
    302a:	07fd      	mov.n	a15, a7
    302c:	0008e0        	excw
    302f:	0a2d      	mov.n	a2, a10
    3031:	f01d      	excw
    3033:	413600        	srli	a3, a0, 6
    3036:	4d8100        	excw
    3039:	51e176        	excw
    303c:	52d176        	excw
    303f:	116176        	excw
    3042:	4c9176        	excw
    3045:	4f4176        	excw
    3048:	4e5176        	excw
    304b:	243176        	excw
    304e:	50f176        	excw
    3051:	d3a276        	excw
    3054:	d32202        	l32i	a0, a2, 0x34c
    3057:	62f204        	excw
    305a:	625274        	excw
    305d:	4969      	s32i.n	a6, a9, 16
    305f:	2ab2f2        	excw
    3062:	c2ca      	add.n	a12, a2, a12
    3064:	932a      	add.n	a9, a3, a2
    3066:	136292        	s32i	a9, a2, 76
    3069:	16b9      	s32i.n	a11, a6, 4
    306b:	06c9      	s32i.n	a12, a6, 0
    306d:	7653b1        	l32r	a11, 0xfffe09bc
    3070:	05d3c2        	addmi	a12, a3, 0x500
    3073:	dcd9      	s32i.n	a13, a12, 52
    3075:	ace9      	s32i.n	a14, a12, 40
    3077:	7f23d2        	l32i	a13, a3, 0x1fc
    307a:	fcb9      	s32i.n	a11, a12, 60
    307c:	8b23b2        	l32i	a11, a3, 0x22c
    307f:	764791        	l32r	a9, 0xfffe099c
    3082:	765551        	l32r	a5, 0xfffe09d8
    3085:	765641        	l32r	a4, 0xfffe09e0
    3088:	7657f1        	l32r	a15, 0xfffe09e4
    308b:	36d9      	s32i.n	a13, a6, 12
    308d:	6323e2        	l32i	a14, a3, 0x18c
    3090:	9923c2        	l32i	a12, a3, 0x264
    3093:	66b9      	s32i.n	a11, a6, 24
    3095:	f72aa2        	l32i	a10, a10, 0x3dc
    3098:	765db1        	l32r	a11, 0xfffe0a0c
    309b:	26a9      	s32i.n	a10, a6, 8
    309d:	56c9      	s32i.n	a12, a6, 20
    309f:	46e9      	s32i.n	a14, a6, 16
    30a1:	776282        	s32i	a8, a2, 0x1dc
    30a4:	765bd1        	l32r	a13, 0xfffe0a10
    30a7:	9963d2        	s32i	a13, a3, 0x264
    30aa:	765481        	l32r	a8, 0xfffe09fc
    30ad:	765ae1        	l32r	a14, 0xfffe0a18
    30b0:	06d322        	addmi	a2, a3, 0x600
    30b3:	765cc1        	l32r	a12, 0xfffe0a24
    30b6:	8b63c2        	s32i	a12, a3, 0x22c
    30b9:	1f62f2        	s32i	a15, a2, 124
    30bc:	1e6242        	s32i	a4, a2, 120
    30bf:	136252        	s32i	a5, a2, 76
    30c2:	765841        	l32r	a4, 0xfffe0a24
    30c5:	050c      	movi.n	a5, 0
    30c7:	39a8      	l32i.n	a10, a9, 12
    30c9:	09d3f2        	addmi	a15, a3, 0x900
    30cc:	4fe9      	s32i.n	a14, a15, 16
    30ce:	86a9      	s32i.n	a10, a6, 32
    30d0:	125652        	s16i	a5, a6, 36
    30d3:	3989      	s32i.n	a8, a9, 12
    30d5:	636342        	s32i	a4, a3, 0x18c
    30d8:	4b2392        	l32i	a9, a3, 0x12c
    30db:	765921        	l32r	a2, 0xfffe0a40
    30de:	882382        	l32i	a8, a3, 0x220
    30e1:	766241        	l32r	a4, 0xfffe0a6c
    30e4:	766151        	l32r	a5, 0xfffe0a68
    30e7:	7423a2        	l32i	a10, a3, 0x1d0
    30ea:	7463b2        	s32i	a11, a3, 0x1d0
    30ed:	456352        	s32i	a5, a3, 0x114
    30f0:	806342        	s32i	a4, a3, 0x200
    30f3:	b689      	s32i.n	a8, a6, 44
    30f5:	7f6322        	s32i	a2, a3, 0x1fc
    30f8:	76a9      	s32i.n	a10, a6, 28
    30fa:	a699      	s32i.n	a9, a6, 40
    30fc:	08d3a2        	addmi	a10, a3, 0x800
    30ff:	765e91        	l32r	a9, 0xfffe0a78
    3102:	766321        	l32r	a2, 0xfffe0a90
    3105:	765f81        	l32r	a8, 0xfffe0a84
    3108:	4b6382        	s32i	a8, a3, 0x12c
    310b:	3d6322        	s32i	a2, a3, 244
    310e:	8a99      	s32i.n	a9, a10, 32
    3110:	766061        	l32r	a6, 0xfffe0a90
    3113:	886362        	s32i	a6, a3, 0x220
    3116:	f01d      	excw
    3118:	014136        	excw
    311b:	766531        	l32r	a3, 0xfffe0ab0
    311e:	766491        	l32r	a9, 0xfffe0ab0
    3121:	0a0c      	movi.n	a10, 0
    3123:	766621        	l32r	a2, 0xfffe0abc
    3126:	09a9      	s32i.n	a10, a9, 0
    3128:	0288      	l32i.n	a8, a2, 0
    312a:	03a9      	s32i.n	a10, a3, 0
    312c:	0008e0        	excw
    312f:	2abc      	beqz.n	a10, 0x3165
    3131:	0a0c      	movi.n	a10, 0
    3133:	80a0b2        	movi	a11, 128
    3136:	2288      	l32i.n	a8, a2, 8
    3138:	01cd      	mov.n	a12, a1
    313a:	0008e0        	excw
    313d:	24ea66        	bnei	a10, 128, 0x3165
    3140:	2f01b2        	l8ui	a11, a1, 47
    3143:	2e01a2        	l8ui	a10, a1, 46
    3146:	01bb80        	slli	a11, a11, 24
    3149:	11aa00        	slli	a10, a10, 16
    314c:	aaba      	add.n	a10, a10, a11
    314e:	2d01b2        	l8ui	a11, a1, 45
    3151:	2c0192        	l8ui	a9, a1, 44
    3154:	11bb80        	slli	a11, a11, 8
    3157:	99ba      	add.n	a9, a9, a11
    3159:	99aa      	add.n	a9, a9, a10
    315b:	259d90        	extui	a9, a9, 29, 3
    315e:	031966        	bnei	a9, 1, 0x3165
    3161:	1c0c      	movi.n	a12, 1
    3163:	03c9      	s32i.n	a12, a3, 0
    3165:	1288      	l32i.n	a8, a2, 4
    3167:	0008e0        	excw
    316a:	f01d      	excw
    316c:	004136        	excw
    316f:	7667a1        	l32r	a10, 0xfffe0b0c
    3172:	766881        	l32r	a8, 0xfffe0b14
    3175:	c93c      	movi.n	a9, 60
    3177:	0888      	l32i.n	a8, a8, 0
    3179:	7a99      	s32i.n	a9, a10, 28
    317b:	0008e0        	excw
    317e:	f01d      	excw
    3180:	004136        	excw
    3183:	fff965        	excw
    3186:	766881        	l32r	a8, 0xfffe0b28
    3189:	2888      	l32i.n	a8, a8, 8
    318b:	0008e0        	excw
    318e:	766991        	l32r	a9, 0xfffe0b34
    3191:	0020c0        	memw
    3194:	8b29a2        	l32i	a10, a9, 0x22c
    3197:	3b0c      	movi.n	a11, 3
    3199:	20aab0        	or	a10, a10, a11
    319c:	0020c0        	memw
    319f:	8b69a2        	s32i	a10, a9, 0x22c
    31a2:	0020c0        	memw
    31a5:	862992        	l32i	a9, a9, 0x218
    31a8:	0ee907        	bbsi	a9, 0, 0x31ba
    31ab:	0be947        	bbsi	a9, 4, 0x31ba
    31ae:	766a81        	l32r	a8, 0xfffe0b58
    31b1:	3a1c      	movi.n	a10, 19
    31b3:	4888      	l32i.n	a8, a8, 16
    31b5:	0b0c      	movi.n	a11, 0
    31b7:	0008e0        	excw
    31ba:	762b91        	l32r	a9, 0xfffe0a68
    31bd:	040992        	l8ui	a9, a9, 4
    31c0:	083966        	bnei	a9, 3, 0x31cc
    31c3:	766b81        	l32r	a8, 0xfffe0b70
    31c6:	232882        	l32i	a8, a8, 140
    31c9:	0008e0        	excw
    31cc:	766ca1        	l32r	a10, 0xfffe0b7c
    31cf:	7645d1        	l32r	a13, 0xfffe0ae4
    31d2:	0b0c      	movi.n	a11, 0
    31d4:	2f2dd2        	l32i	a13, a13, 188
    31d7:	68a1c2        	movi	a12, 0x168
    31da:	1b2dd2        	l32i	a13, a13, 108
    31dd:	766d91        	l32r	a9, 0xfffe0b94
    31e0:	095d92        	s16i	a9, a13, 18
    31e3:	06c925        	excw
    31e6:	039965        	excw
    31e9:	f01d      	excw
    31eb:	413600        	srli	a3, a0, 6
    31ee:	6e8100        	excw
    31f1:	088276        	excw
    31f4:	880005        	call0	0xfff8b1f8
    31f7:	18a623        	excw
    31fa:	0c5b      	addi.n	a0, a12, 5
    31fc:	060c07        	bnone	a12, a0, 0x3206
    31ff:	762951        	l32r	a5, 0xfffe0aa4
    3202:	766fa1        	l32r	a10, 0xfffe0bc0
    3205:	0b0c      	movi.n	a11, 0
    3207:	766e31        	l32r	a3, 0xfffe0bc0
    320a:	06cd      	mov.n	a12, a6
    320c:	2338      	l32i.n	a3, a3, 8
    320e:	f588      	l32i.n	a8, a5, 60
    3210:	337a      	add.n	a3, a3, a7
    3212:	33d8      	l32i.n	a13, a3, 12
    3214:	43e8      	l32i.n	a14, a3, 16
    3216:	0008e0        	excw
    3219:	021382        	l16ui	a8, a3, 4
    321c:	040c      	movi.n	a4, 0
    321e:	2418a6        	blti	a8, 1, 0x3246
    3221:	020c      	movi.n	a2, 0
    3223:	7670a1        	l32r	a10, 0xfffe0be4
    3226:	04bd      	mov.n	a11, a4
    3228:	03d8      	l32i.n	a13, a3, 0
    322a:	f588      	l32i.n	a8, a5, 60
    322c:	d2da      	add.n	a13, a2, a13
    322e:	031dc2        	l16ui	a12, a13, 6
    3231:	041dd2        	l16ui	a13, a13, 8
    3234:	0008e0        	excw
    3237:	0213e2        	l16ui	a14, a3, 4
    323a:	031382        	l16ui	a8, a3, 6
    323d:	441b      	addi.n	a4, a4, 1
    323f:	228a      	add.n	a2, a2, a8
    3241:	22cb      	addi.n	a2, a2, 12
    3243:	dc24e7        	blt	a4, a14, 0x3223
    3246:	766e91        	l32r	a9, 0xfffe0c00
    3249:	14c772        	addi	a7, a7, 20
    324c:	050992        	l8ui	a9, a9, 5
    324f:	661b      	addi.n	a6, a6, 1
    3251:	239900        	excw
    3254:	aa2697        	blt	a6, a9, 0x3202
    3257:	f01d      	excw
    3259:	000000        	ill
    325c:	006136        	excw
    325f:	1129      	s32i.n	a2, a1, 4
    3261:	0149      	s32i.n	a4, a1, 0
    3263:	760781        	l32r	a8, 0xfffe0a80
    3266:	2a0c      	movi.n	a10, 2
    3268:	7888      	l32i.n	a8, a8, 28
    326a:	f4b050        	extui	a11, a5, 0, 16
    326d:	0008e0        	excw
    3270:	766cc1        	l32r	a12, 0xfffe0c20
    3273:	0a4d      	mov.n	a4, a10
    3275:	f0cc62        	addi	a6, a12, -16
    3278:	fafc      	bnez.n	a10, 0x32bb
    327a:	7671a1        	l32r	a10, 0xfffe0c40
    327d:	762921        	l32r	a2, 0xfffe0b24
    3280:	0406b2        	l8ui	a11, a6, 4
    3283:	f288      	l32i.n	a8, a2, 60
    3285:	2139      	s32i.n	a3, a1, 8
    3287:	0008e0        	excw
    328a:	766c61        	l32r	a6, 0xfffe0c3c
    328d:	070c      	movi.n	a7, 0
    328f:	e31c      	movi.n	a3, 30
    3291:	7672a1        	l32r	a10, 0xfffe0c5c
    3294:	07bd      	mov.n	a11, a7
    3296:	0016c2        	l16ui	a12, a6, 0
    3299:	16d8      	l32i.n	a13, a6, 4
    329b:	f288      	l32i.n	a8, a2, 60
    329d:	26e8      	l32i.n	a14, a6, 8
    329f:	0008e0        	excw
    32a2:	66cb      	addi.n	a6, a6, 12
    32a4:	771b      	addi.n	a7, a7, 1
    32a6:	e79737        	bne	a7, a3, 0x3291
    32a9:	fff425        	excw
    32ac:	0a0c      	movi.n	a10, 0
    32ae:	1b0c      	movi.n	a11, 1
    32b0:	b62f25        	excw
    32b3:	766861        	l32r	a6, 0xfffe0c54
    32b6:	2138      	l32i.n	a3, a1, 8
    32b8:	10c6c2        	addi	a12, a6, 16
    32bb:	0128      	l32i.n	a2, a1, 0
    32bd:	03e670        	rsr.ps	a7
    32c0:	2a0c      	movi.n	a10, 2
    32c2:	349070        	extui	a9, a7, 0, 4
    32c5:	022a97        	blt	a10, a9, 0x32cb
    32c8:	006270        	rsil	a7, 2
    32cb:	00fd      	mov.n	a15, a0
    32cd:	000005        	call0	0x32d0
    32d0:	008d      	mov.n	a8, a0
    32d2:	0f0d      	mov.n	a0, a15
    32d4:	158e80        	extui	a8, a8, 30, 2
    32d7:	11d0e0        	slli	a13, a0, 2
    32da:	404200        	ssai	2
    32dd:	81d8d0        	src	a13, a8, a13
    32e0:	0406a2        	l8ui	a10, a6, 4
    32e3:	90eaa0        	addx2	a14, a10, a10
    32e6:	a0cec0        	addx4	a12, a14, a12
    32e9:	1cd9      	s32i.n	a13, a12, 4
    32eb:	005c32        	s16i	a3, a12, 0
    32ee:	762eb1        	l32r	a11, 0xfffe0ba8
    32f1:	0020c0        	memw
    32f4:	a32bb2        	l32i	a11, a11, 0x28c
    32f7:	aa1b      	addi.n	a10, a10, 1
    32f9:	2cb9      	s32i.n	a11, a12, 8
    32fb:	eb1c      	movi.n	a11, 30
    32fd:	0690a5        	excw
    3300:	05cd      	mov.n	a12, a5
    3302:	0446a2        	s8i	a10, a6, 4
    3305:	13e670        	wsr.ps	a7
    3308:	002010        	rsync
    330b:	035432        	s16i	a3, a4, 6
    330e:	11b8      	l32i.n	a11, a1, 4
    3310:	a4cb      	addi.n	a10, a4, 12
    3312:	0454b2        	s16i	a11, a4, 8
    3315:	02bd      	mov.n	a11, a2
    3317:	06a3e5        	excw
    331a:	04bd      	mov.n	a11, a4
    331c:	760781        	l32r	a8, 0xfffe0b38
    331f:	7667a1        	l32r	a10, 0xfffe0cbc
    3322:	122882        	l32i	a8, a8, 72
    3325:	0aa8      	l32i.n	a10, a10, 0
    3327:	0008e0        	excw
    332a:	f01d      	excw
    332c:	004136        	excw
    332f:	767481        	l32r	a8, 0xfffe0d00
    3332:	767621        	l32r	a2, 0xfffe0d0c
    3335:	767541        	l32r	a4, 0xfffe0d0c
    3338:	767331        	l32r	a3, 0xfffe0d04
    333b:	7668a1        	l32r	a10, 0xfffe0cdc
    333e:	03b8      	l32i.n	a11, a3, 0
    3340:	1398      	l32i.n	a9, a3, 4
    3342:	2a99      	s32i.n	a9, a10, 8
    3344:	1349      	s32i.n	a4, a3, 4
    3346:	7329      	s32i.n	a2, a3, 28
    3348:	0389      	s32i.n	a8, a3, 0
    334a:	0ab9      	s32i.n	a11, a10, 0
    334c:	f01d      	excw
    334e:	360000        	excw
    3351:	0c0041        	l32r	a4, 0xfffc6354
    3354:	040c03        	excw
    3357:	760e51        	l32r	a5, 0xfffe0b90
    335a:	742030        	extui	a2, a3, 0, 8
    335d:	a02220        	addx4	a2, a2, a2
    3360:	b02250        	addx8	a2, a2, a5
    3363:	681222        	l16ui	a2, a2, 208
    3366:	331b      	addi.n	a3, a3, 1
    3368:	016207        	bbci	a2, 0, 0x336d
    336b:	441b      	addi.n	a4, a4, 1
    336d:	fe9316        	beqz	a3, 0x335a
    3370:	742040        	extui	a2, a4, 0, 8
    3373:	f01d      	excw
    3375:	000000        	ill
    3378:	004136        	excw
    337b:	767781        	l32r	a8, 0xfffe0d58
    337e:	78a192        	movi	a9, 0x178
    3381:	c19290        	mul16u	a9, a2, a9
    3384:	767831        	l32r	a3, 0xfffe0d64
    3387:	289a      	add.n	a2, a8, a9
    3389:	7f2292        	l32i	a9, a2, 0x1fc
    338c:	10a930        	and	a10, a9, a3
    338f:	1069d7        	bbci	a9, 13, 0x33a3
    3392:	0d69e7        	bbci	a9, 14, 0x33a3
    3395:	7679a1        	l32r	a10, 0xfffe0d7c
    3398:	0b0c      	movi.n	a11, 0
    339a:	b620a5        	excw
    339d:	7f2292        	l32i	a9, a2, 0x1fc
    33a0:	10a930        	and	a10, a9, a3
    33a3:	1acc      	bnez.n	a10, 0x33a8
    33a5:	037907        	bbci	a9, 16, 0x33ac
    33a8:	120c      	movi.n	a2, 1
    33aa:	f01d      	excw
    33ac:	020c      	movi.n	a2, 0
    33ae:	f01d      	excw
    33b0:	004136        	excw
    33b3:	767a81        	l32r	a8, 0xfffe0d9c
    33b6:	e40882        	l8ui	a8, a8, 228
    33b9:	238800        	excw
    33bc:	0718e6        	bgei	a8, 1, 0x33c7
    33bf:	7679a1        	l32r	a10, 0xfffe0da4
    33c2:	0b0c      	movi.n	a11, 0
    33c4:	b61de5        	excw
    33c7:	ffa092        	movi	a9, 255
    33ca:	079297        	bne	a2, a9, 0x33d5
    33cd:	7679a1        	l32r	a10, 0xfffe0db4
    33d0:	0b0c      	movi.n	a11, 0
    33d2:	b61d25        	excw
    33d5:	767b31        	l32r	a3, 0xfffe0dc4
    33d8:	78a182        	movi	a8, 0x178
    33db:	c18280        	mul16u	a8, a2, a8
    33de:	338a      	add.n	a3, a3, a8
    33e0:	7f03a2        	l8ui	a10, a3, 127
    33e3:	6acc      	bnez.n	a10, 0x33ed
    33e5:	7679a1        	l32r	a10, 0xfffe0dcc
    33e8:	0b0c      	movi.n	a11, 0
    33ea:	b61ba5        	excw
    33ed:	8003a2        	l8ui	a10, a3, 128
    33f0:	164ab6        	bltui	a10, 4, 0x340a
    33f3:	084a66        	bnei	a10, 4, 0x33ff
    33f6:	767c91        	l32r	a9, 0xfffe0de8
    33f9:	1e2992        	l32i	a9, a9, 120
    33fc:	0ab297        	bgeu	a2, a9, 0x340a
    33ff:	7679a1        	l32r	a10, 0xfffe0de4
    3402:	0b0c      	movi.n	a11, 0
    3404:	b619e5        	excw
    3407:	8003a2        	l8ui	a10, a3, 128
    340a:	760e21        	l32r	a2, 0xfffe0c44
    340d:	a02a20        	addx4	a2, a10, a2
    3410:	1228      	l32i.n	a2, a2, 4
    3412:	f01d      	excw
    3414:	004136        	excw
    3417:	02ad      	mov.n	a10, a2
    3419:	0b0c      	movi.n	a11, 0
    341b:	0c0c      	movi.n	a12, 0
    341d:	767d91        	l32r	a9, 0xfffe0e14
    3420:	766b81        	l32r	a8, 0xfffe0dcc
    3423:	0b4922        	s8i	a2, a9, 11
    3426:	112882        	l32i	a8, a8, 68
    3429:	0a4932        	s8i	a3, a9, 10
    342c:	0008e0        	excw
    342f:	762781        	l32r	a8, 0xfffe0ccc
    3432:	aa0c      	movi.n	a10, 10
    3434:	ff2882        	l32i	a8, a8, 0x3fc
    3437:	0b0c      	movi.n	a11, 0
    3439:	0008e0        	excw
    343c:	f01d      	excw
    343e:	360000        	excw
    3441:	820041        	l32r	a4, 0xfffe3c44
    3444:	87ffa0        	excw
    3447:	a10792        	l8ui	a9, a7, 161
    344a:	7679      	s32i.n	a7, a6, 28
    344c:	0b0c      	movi.n	a11, 0
    344e:	b61565        	excw
    3451:	34a020        	extui	a10, a2, 0, 4
    3454:	025ae6        	bgei	a10, 5, 0x345a
    3457:	113ae6        	bgei	a10, 3, 0x346c
    345a:	02aae6        	bgei	a10, 12, 0x3460
    345d:	0b8ae6        	bgei	a10, 8, 0x346c
    3460:	04bae6        	bgei	a10, 16, 0x3468
    3463:	e90c      	movi.n	a9, 14
    3465:	03aa97        	bge	a10, a9, 0x346c
    3468:	020c      	movi.n	a2, 0
    346a:	f01d      	excw
    346c:	120c      	movi.n	a2, 1
    346e:	f01d      	excw
    3470:	004136        	excw
    3473:	767eb1        	l32r	a11, 0xfffe0e6c
    3476:	767fc1        	l32r	a12, 0xfffe0e74
    3479:	768081        	l32r	a8, 0xfffe0e7c
    347c:	2ca8      	l32i.n	a10, a12, 8
    347e:	0888      	l32i.n	a8, a8, 0
    3480:	3cc8      	l32i.n	a12, a12, 12
    3482:	2e2882        	l32i	a8, a8, 184
    3485:	01ccf0        	slli	a12, a12, 17
    3488:	20aac0        	or	a10, a10, a12
    348b:	c8cc      	bnez.n	a8, 0x349b
    348d:	768191        	l32r	a9, 0xfffe0e94
    3490:	829290        	mull	a9, a2, a9
    3493:	8aec      	bnez.n	a10, 0x34bf
    3495:	7682a1        	l32r	a10, 0xfffe0ea0
    3498:	0008c6        	j	0x34bf
    349b:	0020c0        	memw
    349e:	a02bd2        	l32i	a13, a11, 0x280
    34a1:	3c0c      	movi.n	a12, 3
    34a3:	0d0cd7        	bnone	a12, a13, 0x34b4
    34a6:	768391        	l32r	a9, 0xfffe0eb4
    34a9:	829290        	mull	a9, a2, a9
    34ac:	facc      	bnez.n	a10, 0x34bf
    34ae:	7684a1        	l32r	a10, 0xfffe0ec0
    34b1:	000286        	j	0x34bf
    34b4:	768591        	l32r	a9, 0xfffe0ec8
    34b7:	829290        	mull	a9, a2, a9
    34ba:	1acc      	bnez.n	a10, 0x34bf
    34bc:	7686a1        	l32r	a10, 0xfffe0ed4
    34bf:	767cd1        	l32r	a13, 0xfffe0eb0
    34c2:	f9aa      	add.n	a15, a9, a10
    34c4:	652dd2        	l32i	a13, a13, 0x194
    34c7:	85c1f0        	extui	a12, a15, 17, 9
    34ca:	047d16        	beqz	a13, 0x3515
    34cd:	768721        	l32r	a2, 0xfffe0eec
    34d0:	0020c0        	memw
    34d3:	768be1        	l32r	a14, 0xfffe0f00
    34d6:	013ca0        	slli	a3, a12, 22
    34d9:	7688a1        	l32r	a10, 0xfffe0efc
    34dc:	7689d1        	l32r	a13, 0xfffe0f00
    34df:	768a91        	l32r	a9, 0xfffe0f08
    34e2:	a62b82        	l32i	a8, a11, 0x298
    34e5:	109f90        	and	a9, a15, a9
    34e8:	1088d0        	and	a8, a8, a13
    34eb:	1199b0        	slli	a9, a9, 5
    34ee:	1099a0        	and	a9, a9, a10
    34f1:	1033e0        	and	a3, a3, a14
    34f4:	208890        	or	a8, a8, a9
    34f7:	203380        	or	a3, a3, a8
    34fa:	203320        	or	a3, a3, a2
    34fd:	0020c0        	memw
    3500:	a66b32        	s32i	a3, a11, 0x298
    3503:	0020c0        	memw
    3506:	a62be2        	l32i	a14, a11, 0x298
    3509:	20ee20        	or	a14, a14, a2
    350c:	0020c0        	memw
    350f:	a66be2        	s32i	a14, a11, 0x298
    3512:	000646        	j	0x352f
    3515:	4a0c      	movi.n	a10, 4
    3517:	84a0b2        	movi	a11, 132
    351a:	00a1e2        	movi	a14, 0x100
    351d:	74d9f0        	extui	a13, a15, 9, 8
    3520:	762781        	l32r	a8, 0xfffe0dbc
    3523:	20dde0        	or	a13, a13, a14
    3526:	cc2882        	l32i	a8, a8, 0x330
    3529:	84e0f0        	extui	a14, a15, 0, 9
    352c:	0008e0        	excw
    352f:	768c81        	l32r	a8, 0xfffe0f60
    3532:	6888      	l32i.n	a8, a8, 24
    3534:	64a0a2        	movi	a10, 100
    3537:	0008e0        	excw
    353a:	f01d      	excw
    353c:	004136        	excw
    353f:	762b81        	l32r	a8, 0xfffe0dec
    3542:	040882        	l8ui	a8, a8, 4
    3545:	6f3826        	beqi	a8, 3, 0x35b8
    3548:	03e620        	rsr.ps	a2
    354b:	2b0c      	movi.n	a11, 2
    354d:	34a020        	extui	a10, a2, 0, 4
    3550:	022ba7        	blt	a11, a10, 0x3556
    3553:	006220        	rsil	a2, 2
    3556:	768d91        	l32r	a9, 0xfffe0f8c
    3559:	6c0992        	l8ui	a9, a9, 108
    355c:	050916        	beqz	a9, 0x35b0
    355f:	767c91        	l32r	a9, 0xfffe0f50
    3562:	5329c2        	l32i	a12, a9, 0x14c
    3565:	3e5c66        	bnei	a12, 5, 0x35a7
    3568:	dad9c2        	addmi	a12, a9, 0xffffda00
    356b:	700cc2        	l8ui	a12, a12, 112
    356e:	768eb1        	l32r	a11, 0xfffe0fa8
    3571:	252c66        	bnei	a12, 2, 0x359a
    3574:	880bd2        	l8ui	a13, a11, 136
    3577:	6c0ba2        	l8ui	a10, a11, 108
    357a:	0a6d07        	bbci	a13, 0, 0x3588
    357d:	265a26        	beqi	a10, 5, 0x35a7
    3580:	be0c      	movi.n	a14, 11
    3582:	211ae7        	beq	a10, a14, 0x35a7
    3585:	1e7a26        	beqi	a10, 7, 0x35a7
    3588:	0e2c66        	bnei	a12, 2, 0x359a
    358b:	880bf2        	l8ui	a15, a11, 136
    358e:	6c0ba2        	l8ui	a10, a11, 108
    3591:	056f07        	bbci	a15, 0, 0x359a
    3594:	0f6a26        	beqi	a10, 6, 0x35a7
    3597:	0c8a26        	beqi	a10, 8, 0x35a7
    359a:	768f81        	l32r	a8, 0xfffe0fd8
    359d:	4a0c      	movi.n	a10, 4
    359f:	142882        	l32i	a8, a8, 80
    35a2:	ab1c      	movi.n	a11, 26
    35a4:	0008e0        	excw
    35a7:	762781        	l32r	a8, 0xfffe0e44
    35aa:	c12882        	l32i	a8, a8, 0x304
    35ad:	0008e0        	excw
    35b0:	13e620        	wsr.ps	a2
    35b3:	002010        	rsync
    35b6:	f01d      	excw
    35b8:	767f81        	l32r	a8, 0xfffe0fb4
    35bb:	5888      	l32i.n	a8, a8, 20
    35bd:	0008e0        	excw
    35c0:	f01d      	excw
    35c2:	360000        	excw
    35c5:	8100e1        	l32r	a14, 0xfffe39c8
    35c8:	762b      	addi.n	a7, a6, 2
    35ca:	040882        	l8ui	a8, a8, 4
    35cd:	fdc882        	addi	a8, a8, -3
    35d0:	0c3816        	beqz	a8, 0x3697
    35d3:	762721        	l32r	a2, 0xfffe0e70
    35d6:	bf2282        	l32i	a8, a2, 0x2fc
    35d9:	0008e0        	excw
    35dc:	767c31        	l32r	a3, 0xfffe0fcc
    35df:	768ed1        	l32r	a13, 0xfffe1018
    35e2:	5323a2        	l32i	a10, a3, 0x14c
    35e5:	dad3c2        	addmi	a12, a3, 0xffffda00
    35e8:	2b5a26        	beqi	a10, 5, 0x3617
    35eb:	700cc2        	l8ui	a12, a12, 112
    35ee:	332c66        	bnei	a12, 2, 0x3625
    35f1:	880de2        	l8ui	a14, a13, 136
    35f4:	6c0db2        	l8ui	a11, a13, 108
    35f7:	0a6e07        	bbci	a14, 0, 0x3605
    35fa:	195b26        	beqi	a11, 5, 0x3617
    35fd:	bf0c      	movi.n	a15, 11
    35ff:	141bf7        	beq	a11, a15, 0x3617
    3602:	117b26        	beqi	a11, 7, 0x3617
    3605:	1c2c66        	bnei	a12, 2, 0x3625
    3608:	880d82        	l8ui	a8, a13, 136
    360b:	6c0db2        	l8ui	a11, a13, 108
    360e:	136807        	bbci	a8, 0, 0x3625
    3611:	026b26        	beqi	a11, 6, 0x3617
    3614:	0d8b66        	bnei	a11, 8, 0x3625
    3617:	768f81        	l32r	a8, 0xfffe1054
    361a:	132882        	l32i	a8, a8, 76
    361d:	4a0c      	movi.n	a10, 4
    361f:	0008e0        	excw
    3622:	5323a2        	l32i	a10, a3, 0x14c
    3625:	fbca92        	addi	a9, a10, -5
    3628:	073956        	bnez	a9, 0x369f
    362b:	7690a1        	l32r	a10, 0xfffe106c
    362e:	0af8      	l32i.n	a15, a10, 0
    3630:	1a88      	l32i.n	a8, a10, 4
    3632:	1189      	s32i.n	a8, a1, 4
    3634:	01f9      	s32i.n	a15, a1, 0
    3636:	2ad8      	l32i.n	a13, a10, 8
    3638:	3ae8      	l32i.n	a14, a10, 12
    363a:	31e9      	s32i.n	a14, a1, 12
    363c:	21d9      	s32i.n	a13, a1, 8
    363e:	4ab8      	l32i.n	a11, a10, 16
    3640:	5ac8      	l32i.n	a12, a10, 20
    3642:	51c9      	s32i.n	a12, a1, 20
    3644:	41b9      	s32i.n	a11, a1, 16
    3646:	6a88      	l32i.n	a8, a10, 24
    3648:	7a98      	l32i.n	a9, a10, 28
    364a:	7199      	s32i.n	a9, a1, 28
    364c:	6189      	s32i.n	a8, a1, 24
    364e:	8ae8      	l32i.n	a14, a10, 32
    3650:	9af8      	l32i.n	a15, a10, 36
    3652:	91f9      	s32i.n	a15, a1, 36
    3654:	81e9      	s32i.n	a14, a1, 32
    3656:	aac8      	l32i.n	a12, a10, 40
    3658:	bad8      	l32i.n	a13, a10, 44
    365a:	b1d9      	s32i.n	a13, a1, 44
    365c:	a1c9      	s32i.n	a12, a1, 40
    365e:	ca98      	l32i.n	a9, a10, 48
    3660:	dab8      	l32i.n	a11, a10, 52
    3662:	d1b9      	s32i.n	a11, a1, 52
    3664:	c199      	s32i.n	a9, a1, 48
    3666:	eaf8      	l32i.n	a15, a10, 56
    3668:	fa88      	l32i.n	a8, a10, 60
    366a:	f189      	s32i.n	a8, a1, 60
    366c:	e1f9      	s32i.n	a15, a1, 56
    366e:	102ad2        	l32i	a13, a10, 64
    3671:	112ae2        	l32i	a14, a10, 68
    3674:	1161e2        	s32i	a14, a1, 68
    3677:	1061d2        	s32i	a13, a1, 64
    367a:	122ab2        	l32i	a11, a10, 72
    367d:	132ac2        	l32i	a12, a10, 76
    3680:	1361c2        	s32i	a12, a1, 76
    3683:	1261b2        	s32i	a11, a1, 72
    3686:	88caa2        	addi	a10, a10, -120
    3689:	6d0aa2        	l8ui	a10, a10, 109
    368c:	b02282        	l32i	a8, a2, 0x2c0
    368f:	23aa00        	excw
    3692:	0008e0        	excw
    3695:	f01d      	excw
    3697:	767f81        	l32r	a8, 0xfffe1094
    369a:	6888      	l32i.n	a8, a8, 24
    369c:	0008e0        	excw
    369f:	f01d      	excw
    36a1:	000000        	ill
    36a4:	00a136        	excw
    36a7:	760fe1        	l32r	a14, 0xfffe0ee4
    36aa:	ffa0c2        	movi	a12, 255
    36ad:	769191        	l32r	a9, 0xfffe10f4
    36b0:	027d      	mov.n	a7, a2
    36b2:	769281        	l32r	a8, 0xfffe10fc
    36b5:	769361        	l32r	a6, 0xfffe1104
    36b8:	03ad      	mov.n	a10, a3
    36ba:	01a9      	s32i.n	a10, a1, 0
    36bc:	f9d652        	addmi	a5, a6, 0xfffff900
    36bf:	d0c842        	addi	a4, a8, -48
    36c2:	01d622        	addmi	a2, a6, 0x100
    36c5:	722632        	l32i	a3, a6, 0x1c8
    36c8:	150882        	l8ui	a8, a8, 21
    36cb:	c03730        	sub	a3, a7, a3
    36ce:	103390        	and	a3, a3, a9
    36d1:	1133f0        	slli	a3, a3, 1
    36d4:	6718c7        	beq	a8, a12, 0x373f
    36d7:	6a2e82        	l32i	a8, a14, 0x1a8
    36da:	0008e0        	excw
    36dd:	ffa0c2        	movi	a12, 255
    36e0:	05ba56        	bnez	a10, 0x373f
    36e3:	410492        	l8ui	a9, a4, 65
    36e6:	05e907        	bbsi	a9, 0, 0x36ef
    36e9:	e616b2        	l16ui	a11, a6, 0x1cc
    36ec:	4f23b7        	blt	a3, a11, 0x373f
    36ef:	769491        	l32r	a9, 0xfffe1140
    36f2:	4504b2        	l8ui	a11, a4, 69
    36f5:	78a1d2        	movi	a13, 0x178
    36f8:	c1dbd0        	mul16u	a13, a11, a13
    36fb:	9d9a      	add.n	a9, a13, a9
    36fd:	9c09e2        	l8ui	a14, a9, 156
    3700:	be8c      	beqz.n	a14, 0x370f
    3702:	2529e2        	l32i	a14, a9, 148
    3705:	ee1b      	addi.n	a14, a14, 1
    3707:	434e56        	bnez	a14, 0x3b3f
    370a:	0e0c      	movi.n	a14, 0
    370c:	011446        	j	0x3b61
    370f:	4704a2        	l8ui	a10, a4, 71
    3712:	049ac7        	bne	a10, a12, 0x371a
    3715:	0bad      	mov.n	a10, a11
    3717:	4744b2        	s8i	a11, a4, 71
    371a:	7692f1        	l32r	a15, 0xfffe1164
    371d:	78a182        	movi	a8, 0x178
    3720:	c18a80        	mul16u	a8, a10, a8
    3723:	ff8a      	add.n	a15, a15, a8
    3725:	830ff2        	l8ui	a15, a15, 131
    3728:	23ff00        	excw
    372b:	021fe6        	bgei	a15, 1, 0x3731
    372e:	012c86        	j	0x3be4
    3731:	760f81        	l32r	a8, 0xfffe0f70
    3734:	6d2882        	l32i	a8, a8, 0x1b4
    3737:	4b0c      	movi.n	a11, 4
    3739:	0008e0        	excw
    373c:	ffa0c2        	movi	a12, 255
    373f:	440432        	l8ui	a3, a4, 68
    3742:	7695f1        	l32r	a15, 0xfffe1198
    3745:	c0b3c0        	sub	a11, a3, a12
    3748:	35db16        	beqz	a11, 0x3aa9
    374b:	78a1d2        	movi	a13, 0x178
    374e:	c1d3d0        	mul16u	a13, a3, a13
    3751:	fdcfb2        	addi	a11, a15, -3
    3754:	bdba      	add.n	a11, a13, a11
    3756:	6b0be2        	l8ui	a14, a11, 107
    3759:	769671        	l32r	a7, 0xfffe11b4
    375c:	3eec      	bnez.n	a14, 0x3783
    375e:	4e05f2        	l8ui	a15, a5, 78
    3761:	efdc      	bnez.n	a15, 0x3783
    3763:	830b82        	l8ui	a8, a11, 131
    3766:	238800        	excw
    3769:	0818e6        	bgei	a8, 1, 0x3775
    376c:	820b92        	l8ui	a9, a11, 130
    376f:	239900        	excw
    3772:	0d19a6        	blti	a9, 1, 0x3783
    3775:	1588      	l32i.n	a8, a5, 4
    3777:	602bf2        	l32i	a15, a11, 0x180
    377a:	418180        	srli	a8, a8, 1
    377d:	c0ff80        	sub	a15, a15, a8
    3780:	433f16        	beqz	a15, 0x3bb7
    3783:	051e66        	bnei	a14, 1, 0x378c
    3786:	c61b92        	l16ui	a9, a11, 0x18c
    3789:	42a916        	beqz	a9, 0x3bb7
    378c:	0b0c      	movi.n	a11, 0
    378e:	11b9      	s32i.n	a11, a1, 4
    3790:	78a192        	movi	a9, 0x178
    3793:	c19390        	mul16u	a9, a3, a9
    3796:	797a      	add.n	a7, a9, a7
    3798:	8d07d2        	l8ui	a13, a7, 141
    379b:	7697a1        	l32r	a10, 0xfffe11f8
    379e:	059d16        	beqz	a13, 0x37fb
    37a1:	762ed1        	l32r	a13, 0xfffe105c
    37a4:	0020c0        	memw
    37a7:	422dd2        	l32i	a13, a13, 0x108
    37aa:	34d0d0        	extui	a13, a13, 0, 4
    37ad:	2d8d26        	beqi	a13, 8, 0x37de
    37b0:	c005e2        	l8ui	a14, a5, 192
    37b3:	29aa      	add.n	a2, a9, a10
    37b5:	ee9c      	beqz.n	a14, 0x37d7
    37b7:	1b02f2        	l8ui	a15, a2, 27
    37ba:	191f66        	bnei	a15, 1, 0x37d7
    37bd:	760b81        	l32r	a8, 0xfffe0fec
    37c0:	902882        	l32i	a8, a8, 0x240
    37c3:	03ad      	mov.n	a10, a3
    37c5:	0008e0        	excw
    37c8:	ffa0c2        	movi	a12, 255
    37cb:	1b0c      	movi.n	a11, 1
    37cd:	090c      	movi.n	a9, 0
    37cf:	839ba0        	moveqz	a9, a11, a10
    37d2:	6199      	s32i.n	a9, a1, 24
    37d4:	000306        	j	0x37e4
    37d7:	0e0c      	movi.n	a14, 0
    37d9:	61e9      	s32i.n	a14, a1, 24
    37db:	000146        	j	0x37e4
    37de:	29aa      	add.n	a2, a9, a10
    37e0:	0f0c      	movi.n	a15, 0
    37e2:	61f9      	s32i.n	a15, a1, 24
    37e4:	330282        	l8ui	a8, a2, 51
    37e7:	61b8      	l32i.n	a11, a1, 24
    37e9:	1d0c      	movi.n	a13, 1
    37eb:	7490b0        	extui	a9, a11, 0, 8
    37ee:	61d9      	s32i.n	a13, a1, 24
    37f0:	238800        	excw
    37f3:	0a18e6        	bgei	a8, 1, 0x3801
    37f6:	6199      	s32i.n	a9, a1, 24
    37f8:	000146        	j	0x3801
    37fb:	29aa      	add.n	a2, a9, a10
    37fd:	0d0c      	movi.n	a13, 0
    37ff:	61d9      	s32i.n	a13, a1, 24
    3801:	be0c      	movi.n	a14, 11
    3803:	7698b1        	l32r	a11, 0xfffe1264
    3806:	e81682        	l16ui	a8, a6, 0x1d0
    3809:	401300        	ssl	a3
    380c:	1a0c      	movi.n	a10, 1
    380e:	a1aa00        	sll	a10, a10
    3811:	2088a0        	or	a8, a8, a10
    3814:	685b82        	s16i	a8, a11, 208
    3817:	3302f2        	l8ui	a15, a2, 51
    381a:	51a9      	s32i.n	a10, a1, 20
    381c:	23ff00        	excw
    381f:	021fe6        	bgei	a15, 1, 0x3825
    3822:	002906        	j	0x38ca
    3825:	3d02d2        	l8ui	a13, a2, 61
    3828:	5dec      	bnez.n	a13, 0x3851
    382a:	8d07f2        	l8ui	a15, a7, 141
    382d:	0fac      	beqz.n	a15, 0x3851
    382f:	1b0282        	l8ui	a8, a2, 27
    3832:	1b1866        	bnei	a8, 1, 0x3851
    3835:	320292        	l8ui	a9, a2, 50
    3838:	239900        	excw
    383b:	1219e6        	bgei	a9, 1, 0x3851
    383e:	760f81        	l32r	a8, 0xfffe107c
    3841:	742882        	l32i	a8, a8, 0x1d0
    3844:	03ad      	mov.n	a10, a3
    3846:	0008e0        	excw
    3849:	ffa0c2        	movi	a12, 255
    384c:	be0c      	movi.n	a14, 11
    384e:	001cc6        	j	0x38c5
    3851:	769991        	l32r	a9, 0xfffe12b8
    3854:	cb0992        	l8ui	a9, a9, 203
    3857:	3e9937        	bne	a9, a3, 0x3899
    385a:	01b8      	l32i.n	a11, a1, 0
    385c:	39eb97        	bbsi	a11, 9, 0x3899
    385f:	3202d2        	l8ui	a13, a2, 50
    3862:	23dd00        	excw
    3865:	301de6        	bgei	a13, 1, 0x3899
    3868:	be0582        	l8ui	a8, a5, 190
    386b:	7605f2        	l8ui	a15, a5, 118
    386e:	273f87        	bltu	a15, a8, 0x3899
    3871:	1b0292        	l8ui	a9, a2, 27
    3874:	211966        	bnei	a9, 1, 0x3899
    3877:	7705d2        	l8ui	a13, a5, 119
    387a:	3e17b2        	l16ui	a11, a7, 124
    387d:	183bd7        	bltu	a11, a13, 0x3899
    3880:	2127f2        	l32i	a15, a7, 132
    3883:	129fe7        	bne	a15, a14, 0x3899
    3886:	760f81        	l32r	a8, 0xfffe10c4
    3889:	742882        	l32i	a8, a8, 0x1d0
    388c:	03ad      	mov.n	a10, a3
    388e:	0008e0        	excw
    3891:	ffa0c2        	movi	a12, 255
    3894:	be0c      	movi.n	a14, 11
    3896:	000ac6        	j	0x38c5
    3899:	4e0492        	l8ui	a9, a4, 78
    389c:	59ac      	beqz.n	a9, 0x38c5
    389e:	8d07b2        	l8ui	a11, a7, 141
    38a1:	2b9c      	beqz.n	a11, 0x38b7
    38a3:	15d8      	l32i.n	a13, a5, 4
    38a5:	a412f2        	l16ui	a15, a2, 0x148
    38a8:	e4d1d0        	extui	a13, a13, 1, 15
    38ab:	c0ddf0        	sub	a13, a13, a15
    38ae:	2d15f2        	l16ui	a15, a5, 90
    38b1:	e4d0d0        	extui	a13, a13, 0, 15
    38b4:	0dbdf7        	bgeu	a13, a15, 0x38c5
    38b7:	5188      	l32i.n	a8, a1, 20
    38b9:	e916f2        	l16ui	a15, a6, 0x1d2
    38bc:	20ff80        	or	a15, a15, a8
    38bf:	769881        	l32r	a8, 0xfffe1320
    38c2:	6958f2        	s16i	a15, a8, 210
    38c5:	030c      	movi.n	a3, 0
    38c7:	001606        	j	0x3923
    38ca:	4e0492        	l8ui	a9, a4, 78
    38cd:	c98c      	beqz.n	a9, 0x38dd
    38cf:	51d8      	l32i.n	a13, a1, 20
    38d1:	e916b2        	l16ui	a11, a6, 0x1d2
    38d4:	20bbd0        	or	a11, a11, a13
    38d7:	7698d1        	l32r	a13, 0xfffe1338
    38da:	695db2        	s16i	a11, a13, 210
    38dd:	1b02f2        	l8ui	a15, a2, 27
    38e0:	321f66        	bnei	a15, 1, 0x3916
    38e3:	320282        	l8ui	a8, a2, 50
    38e6:	238800        	excw
    38e9:	2918e6        	bgei	a8, 1, 0x3916
    38ec:	3b0292        	l8ui	a9, a2, 59
    38ef:	39ec      	bnez.n	a9, 0x3916
    38f1:	7705a2        	l8ui	a10, a5, 119
    38f4:	9e12b2        	l16ui	a11, a2, 0x13c
    38f7:	11daf0        	slli	a13, a10, 1
    38fa:	08abd7        	bge	a11, a13, 0x3906
    38fd:	5122f2        	l32i	a15, a2, 0x144
    3900:	129fe7        	bne	a15, a14, 0x3916
    3903:	0f3ba7        	bltu	a11, a10, 0x3916
    3906:	760f81        	l32r	a8, 0xfffe1144
    3909:	742882        	l32i	a8, a8, 0x1d0
    390c:	03ad      	mov.n	a10, a3
    390e:	0008e0        	excw
    3911:	ffa0c2        	movi	a12, 255
    3914:	be0c      	movi.n	a14, 11
    3916:	190c      	movi.n	a9, 1
    3918:	5122b2        	l32i	a11, a2, 0x144
    391b:	030c      	movi.n	a3, 0
    391d:	f7cbb2        	addi	a11, a11, -9
    3920:	8339b0        	moveqz	a3, a9, a11
    3923:	7631f1        	l32r	a15, 0xfffe11e8
    3926:	eb16d2        	l16ui	a13, a6, 0x1d6
    3929:	0c9df7        	bne	a13, a15, 0x3939
    392c:	7679a1        	l32r	a10, 0xfffe1310
    392f:	0b0c      	movi.n	a11, 0
    3931:	b5c725        	excw
    3934:	ffa0c2        	movi	a12, 255
    3937:	be0c      	movi.n	a14, 11
    3939:	4f04d2        	l8ui	a13, a4, 79
    393c:	790582        	l8ui	a8, a5, 121
    393f:	5d9c      	beqz.n	a13, 0x3958
    3941:	2127b2        	l32i	a11, a7, 132
    3944:	13bd87        	bgeu	a13, a8, 0x395b
    3947:	101be7        	beq	a11, a14, 0x395b
    394a:	990c      	movi.n	a9, 9
    394c:	0b1b97        	beq	a11, a9, 0x395b
    394f:	f1cbf2        	addi	a15, a11, -15
    3952:	12af56        	bnez	a15, 0x3a80
    3955:	000086        	j	0x395b
    3958:	2127b2        	l32i	a11, a7, 132
    395b:	eb1682        	l16ui	a8, a6, 0x1d6
    395e:	15f8      	l32i.n	a15, a5, 4
    3960:	2815a2        	l16ui	a10, a5, 80
    3963:	41a9      	s32i.n	a10, a1, 16
    3965:	41a1a0        	srli	a10, a10, 1
    3968:	4191f0        	srli	a9, a15, 1
    396b:	2199      	s32i.n	a9, a1, 8
    396d:	e4f1f0        	extui	a15, a15, 1, 15
    3970:	c0ff80        	sub	a15, a15, a8
    3973:	1c2792        	l32i	a9, a7, 112
    3976:	3199      	s32i.n	a9, a1, 12
    3978:	e4f0f0        	extui	a15, a15, 0, 15
    397b:	330282        	l8ui	a8, a2, 51
    397e:	0fdd      	mov.n	a13, a15
    3980:	238800        	excw
    3983:	0818e6        	bgei	a8, 1, 0x398f
    3986:	320282        	l8ui	a8, a2, 50
    3989:	238800        	excw
    398c:	0e18a6        	blti	a8, 1, 0x399e
    398f:	091be7        	beq	a11, a14, 0x399c
    3992:	990c      	movi.n	a9, 9
    3994:	041b97        	beq	a11, a9, 0x399c
    3997:	fe0c      	movi.n	a14, 15
    3999:	019be7        	bne	a11, a14, 0x399e
    399c:	130c      	movi.n	a3, 1
    399e:	f7cbe2        	addi	a14, a11, -9
    39a1:	190c      	movi.n	a9, 1
    39a3:	743030        	extui	a3, a3, 0, 8
    39a6:	8d0782        	l8ui	a8, a7, 141
    39a9:	8339e0        	moveqz	a3, a9, a14
    39ac:	88fc      	bnez.n	a8, 0x39e8
    39ae:	769981        	l32r	a8, 0xfffe1414
    39b1:	ce0882        	l8ui	a8, a8, 206
    39b4:	08bc      	beqz.n	a8, 0x39e8
    39b6:	7699b1        	l32r	a11, 0xfffe141c
    39b9:	769591        	l32r	a9, 0xfffe1410
    39bc:	cf0bb2        	l8ui	a11, a11, 207
    39bf:	78a1e2        	movi	a14, 0x178
    39c2:	c1bbe0        	mul16u	a11, a11, a14
    39c5:	99ba      	add.n	a9, a9, a11
    39c7:	800992        	l8ui	a9, a9, 128
    39ca:	239900        	excw
    39cd:	0419a6        	blti	a9, 1, 0x39d5
    39d0:	0a0c      	movi.n	a10, 0
    39d2:	000486        	j	0x39e8
    39d5:	71f9      	s32i.n	a15, a1, 28
    39d7:	be05b2        	l8ui	a11, a5, 190
    39da:	81d9      	s32i.n	a13, a1, 32
    39dc:	8b8c      	beqz.n	a11, 0x39e8
    39de:	062765        	excw
    39e1:	ffa0c2        	movi	a12, 255
    39e4:	71f8      	l32i.n	a15, a1, 28
    39e6:	81d8      	l32i.n	a13, a1, 32
    39e8:	1abaf7        	bgeu	a10, a15, 0x3a06
    39eb:	11e8      	l32i.n	a14, a1, 4
    39ed:	5e9c      	beqz.n	a14, 0x3a06
    39ef:	1b02f2        	l8ui	a15, a2, 27
    39f2:	0fdc      	bnez.n	a15, 0x3a06
    39f4:	700582        	l8ui	a8, a5, 112
    39f7:	b8cc      	bnez.n	a8, 0x3a06
    39f9:	0d0c      	movi.n	a13, 0
    39fb:	7a0792        	l8ui	a9, a7, 122
    39fe:	4b0c      	movi.n	a11, 4
    3a00:	2099b0        	or	a9, a9, a11
    3a03:	7a4792        	s8i	a9, a7, 122
    3a06:	2b3ad7        	bltu	a10, a13, 0x3a35
    3a09:	06e356        	bnez	a3, 0x3a7b
    3a0c:	11e8      	l32i.n	a14, a1, 4
    3a0e:	069e56        	bnez	a14, 0x3a7b
    3a11:	1b02f2        	l8ui	a15, a2, 27
    3a14:	141f26        	beqi	a15, 1, 0x3a2c
    3a17:	31b8      	l32i.n	a11, a1, 12
    3a19:	2198      	l32i.n	a9, a1, 8
    3a1b:	c099b0        	sub	a9, a9, a11
    3a1e:	7691b1        	l32r	a11, 0xfffe1464
    3a21:	4188      	l32i.n	a8, a1, 16
    3a23:	1099b0        	and	a9, a9, a11
    3a26:	1199f0        	slli	a9, a9, 1
    3a29:	4e3897        	bltu	a8, a9, 0x3a7b
    3a2c:	61e8      	l32i.n	a14, a1, 24
    3a2e:	3e8c      	beqz.n	a14, 0x3a35
    3a30:	af0c      	movi.n	a15, 10
    3a32:	45bfd7        	bgeu	a15, a13, 0x3a7b
    3a35:	4404a2        	l8ui	a10, a4, 68
    3a38:	311ac7        	beq	a10, a12, 0x3a6d
    3a3b:	769a91        	l32r	a9, 0xfffe14a4
    3a3e:	78a1b2        	movi	a11, 0x178
    3a41:	c1bab0        	mul16u	a11, a10, a11
    3a44:	99ba      	add.n	a9, a9, a11
    3a46:	760992        	l8ui	a9, a9, 118
    3a49:	444492        	s8i	a9, a4, 68
    3a4c:	1b0282        	l8ui	a8, a2, 27
    3a4f:	a8dc      	bnez.n	a8, 0x3a6d
    3a51:	7705e2        	l8ui	a14, a5, 119
    3a54:	9e12d2        	l16ui	a13, a2, 0x13c
    3a57:	123de7        	bltu	a13, a14, 0x3a6d
    3a5a:	5198      	l32i.n	a9, a1, 20
    3a5c:	e91682        	l16ui	a8, a6, 0x1d2
    3a5f:	208890        	or	a8, a8, a9
    3a62:	769891        	l32r	a9, 0xfffe14c4
    3a65:	0f0c      	movi.n	a15, 0
    3a67:	695982        	s16i	a8, a9, 210
    3a6a:	9e52f2        	s16i	a15, a2, 0x13c
    3a6d:	7631b1        	l32r	a11, 0xfffe1334
    3a70:	0e0c      	movi.n	a14, 0
    3a72:	7698d1        	l32r	a13, 0xfffe14d4
    3a75:	4e44e2        	s8i	a14, a4, 78
    3a78:	6b5db2        	s16i	a11, a13, 214
    3a7b:	0d0c      	movi.n	a13, 0
    3a7d:	4f44d2        	s8i	a13, a4, 79
    3a80:	769821        	l32r	a2, 0xfffe14e0
    3a83:	11b8      	l32i.n	a11, a1, 4
    3a85:	4404a2        	l8ui	a10, a4, 68
    3a88:	3d8c      	beqz.n	a13, 0x3a8f
    3a8a:	dd1b      	addi.n	a13, a13, 1
    3a8c:	4f44d2        	s8i	a13, a4, 79
    3a8f:	93dbb0        	movnez	a13, a11, a11
    3a92:	4f44d2        	s8i	a13, a4, 79
    3a95:	101ac7        	beq	a10, a12, 0x3aa9
    3a98:	9b1c      	movi.n	a11, 25
    3a9a:	091ac7        	beq	a10, a12, 0x3aa7
    3a9d:	ff9765        	excw
    3aa0:	1f0c      	movi.n	a15, 1
    3aa2:	4044f2        	s8i	a15, a4, 64
    3aa5:	f01d      	excw
    3aa7:	f01d      	excw
    3aa9:	4204a2        	l8ui	a10, a4, 66
    3aac:	080c      	movi.n	a8, 0
    3aae:	763191        	l32r	a9, 0xfffe1374
    3ab1:	6b5292        	s16i	a9, a2, 214
    3ab4:	4e4482        	s8i	a8, a4, 78
    3ab7:	4f4482        	s8i	a8, a4, 79
    3aba:	4444a2        	s8i	a10, a4, 68
    3abd:	471ac7        	beq	a10, a12, 0x3b08
    3ac0:	7694b1        	l32r	a11, 0xfffe1510
    3ac3:	78a1d2        	movi	a13, 0x178
    3ac6:	c1dad0        	mul16u	a13, a10, a13
    3ac9:	bdba      	add.n	a11, a13, a11
    3acb:	5d0bb2        	l8ui	a11, a11, 93
    3ace:	0e0b16        	beqz	a11, 0x3bb2
    3ad1:	8f05e2        	l8ui	a14, a5, 143
    3ad4:	ae9c      	beqz.n	a14, 0x3af2
    3ad6:	960582        	l8ui	a8, a5, 150
    3ad9:	be05f2        	l8ui	a15, a5, 190
    3adc:	5abf87        	bgeu	a15, a8, 0x3b3a
    3adf:	769591        	l32r	a9, 0xfffe1534
    3ae2:	9d9a      	add.n	a9, a13, a9
    3ae4:	800992        	l8ui	a9, a9, 128
    3ae7:	239900        	excw
    3aea:	04c916        	beqz	a9, 0x3b3a
    3aed:	130c      	movi.n	a3, 1
    3aef:	000046        	j	0x3af4
    3af2:	030c      	movi.n	a3, 0
    3af4:	760f81        	l32r	a8, 0xfffe1330
    3af7:	6a2882        	l32i	a8, a8, 0x1a8
    3afa:	0008e0        	excw
    3afd:	ffa0c2        	movi	a12, 255
    3b00:	190c      	movi.n	a9, 1
    3b02:	9339a0        	movnez	a3, a9, a10
    3b05:	000046        	j	0x3b0a
    3b08:	030c      	movi.n	a3, 0
    3b0a:	f3dc      	bnez.n	a3, 0x3b2d
    3b0c:	e816b2        	l16ui	a11, a6, 0x1d0
    3b0f:	15a8      	l32i.n	a10, a5, 4
    3b11:	e916d2        	l16ui	a13, a6, 0x1d2
    3b14:	e4a1a0        	extui	a10, a10, 1, 15
    3b17:	10ddb0        	and	a13, a13, a11
    3b1a:	c0bbd0        	sub	a11, a11, a13
    3b1d:	0acb56        	bnez	a11, 0x3bcd
    3b20:	0e0c      	movi.n	a14, 0
    3b22:	6952e2        	s16i	a14, a2, 210
    3b25:	6a52a2        	s16i	a10, a2, 212
    3b28:	0b5c      	movi.n	a11, 80
    3b2a:	000046        	j	0x3b2f
    3b2d:	9b1c      	movi.n	a11, 25
    3b2f:	4404a2        	l8ui	a10, a4, 68
    3b32:	0f0c      	movi.n	a15, 0
    3b34:	6852f2        	s16i	a15, a2, 208
    3b37:	ffd7c6        	j	0x3a9a
    3b3a:	030c      	movi.n	a3, 0
    3b3c:	ffed06        	j	0x3af4
    3b3f:	0bad      	mov.n	a10, a11
    3b41:	ff86e5        	excw
    3b44:	769481        	l32r	a8, 0xfffe1594
    3b47:	4504b2        	l8ui	a11, a4, 69
    3b4a:	78a1d2        	movi	a13, 0x178
    3b4d:	c1dbd0        	mul16u	a13, a11, a13
    3b50:	ffa0c2        	movi	a12, 255
    3b53:	8d8a      	add.n	a8, a13, a8
    3b55:	252882        	l32i	a8, a8, 148
    3b58:	761df1        	l32r	a15, 0xfffe13cc
    3b5b:	c0ea80        	sub	a14, a10, a8
    3b5e:	10eef0        	and	a14, a14, a15
    3b61:	4915f2        	l16ui	a15, a5, 146
    3b64:	02bef7        	bgeu	a14, a15, 0x3b6a
    3b67:	fee906        	j	0x370f
    3b6a:	8f0582        	l8ui	a8, a5, 143
    3b6d:	b9e816        	beqz	a8, 0x370f
    3b70:	769b91        	l32r	a9, 0xfffe15dc
    3b73:	ad9a      	add.n	a10, a13, a9
    3b75:	0c0aa2        	l8ui	a10, a10, 12
    3b78:	0b3d      	mov.n	a3, a11
    3b7a:	f29a16        	beqz	a10, 0x3aa7
    3b7d:	760751        	l32r	a5, 0xfffe139c
    3b80:	78a122        	movi	a2, 0x178
    3b83:	c12b20        	mul16u	a2, a11, a2
    3b86:	769c81        	l32r	a8, 0xfffe15f8
    3b89:	429a      	add.n	a4, a2, a9
    3b8b:	228a      	add.n	a2, a2, a8
    3b8d:	132582        	l32i	a8, a5, 76
    3b90:	32a8      	l32i.n	a10, a2, 12
    3b92:	0008e0        	excw
    3b95:	760f81        	l32r	a8, 0xfffe13d4
    3b98:	0abd      	mov.n	a11, a10
    3b9a:	f40292        	l8ui	a9, a2, 244
    3b9d:	03ad      	mov.n	a10, a3
    3b9f:	990b      	addi.n	a9, a9, -1
    3ba1:	542882        	l32i	a8, a8, 0x150
    3ba4:	f44292        	s8i	a9, a2, 244
    3ba7:	0008e0        	excw
    3baa:	0c0492        	l8ui	a9, a4, 12
    3bad:	fdc956        	bnez	a9, 0x3b8d
    3bb0:	f01d      	excw
    3bb2:	030c      	movi.n	a3, 0
    3bb4:	ffd486        	j	0x3b0a
    3bb7:	becc      	bnez.n	a14, 0x3bc6
    3bb9:	769ae1        	l32r	a14, 0xfffe1624
    3bbc:	edea      	add.n	a14, a13, a14
    3bbe:	880eb2        	l8ui	a11, a14, 136
    3bc1:	bb1b      	addi.n	a11, a11, 1
    3bc3:	884eb2        	s8i	a11, a14, 136
    3bc6:	1f0c      	movi.n	a15, 1
    3bc8:	11f9      	s32i.n	a15, a1, 4
    3bca:	fef086        	j	0x3790
    3bcd:	ea1692        	l16ui	a9, a6, 0x1d4
    3bd0:	78a082        	movi	a8, 120
    3bd3:	c09a90        	sub	a9, a10, a9
    3bd6:	e49090        	extui	a9, a9, 0, 15
    3bd9:	02b897        	bgeu	a8, a9, 0x3bdf
    3bdc:	ffd146        	j	0x3b25
    3bdf:	9b1c      	movi.n	a11, 25
    3be1:	ffd286        	j	0x3b2f
    3be4:	4104b2        	l8ui	a11, a4, 65
    3be7:	41eb07        	bbsi	a11, 0, 0x3c2c
    3bea:	e616d2        	l16ui	a13, a6, 0x1cc
    3bed:	2815a2        	l16ui	a10, a5, 80
    3bf0:	11ddf0        	slli	a13, a13, 1
    3bf3:	f4d0d0        	extui	a13, a13, 0, 16
    3bf6:	6652d2        	s16i	a13, a2, 204
    3bf9:	163da7        	bltu	a13, a10, 0x3c13
    3bfc:	762981        	l32r	a8, 0xfffe14a0
    3bff:	3888      	l32i.n	a8, a8, 12
    3c01:	6652a2        	s16i	a10, a2, 204
    3c04:	0008e0        	excw
    3c07:	ffa0c2        	movi	a12, 255
    3c0a:	1490a0        	extui	a9, a10, 0, 2
    3c0d:	4104b2        	l8ui	a11, a4, 65
    3c10:	000046        	j	0x3c15
    3c13:	090c      	movi.n	a9, 0
    3c15:	4704a2        	l8ui	a10, a4, 71
    3c18:	7691e1        	l32r	a14, 0xfffe165c
    3c1b:	c0d790        	sub	a13, a7, a9
    3c1e:	1f0c      	movi.n	a15, 1
    3c20:	20fbf0        	or	a15, a11, a15
    3c23:	4144f2        	s8i	a15, a4, 65
    3c26:	10dde0        	and	a13, a13, a14
    3c29:	7266d2        	s32i	a13, a6, 0x1c8
    3c2c:	0a2d      	mov.n	a2, a10
    3c2e:	c08ac0        	sub	a8, a10, a12
    3c31:	e72816        	beqz	a8, 0x3aa7
    3c34:	281592        	l16ui	a9, a5, 80
    3c37:	909990        	addx2	a9, a9, a9
    3c3a:	14a397        	bge	a3, a9, 0x3c52
    3c3d:	769ab1        	l32r	a11, 0xfffe16a8
    3c40:	78a1d2        	movi	a13, 0x178
    3c43:	c1dad0        	mul16u	a13, a10, a13
    3c46:	bbda      	add.n	a11, a11, a13
    3c48:	8a0bb2        	l8ui	a11, a11, 138
    3c4b:	3bcc      	bnez.n	a11, 0x3c52
    3c4d:	0b5c      	movi.n	a11, 80
    3c4f:	000046        	j	0x3c54
    3c52:	9b1c      	movi.n	a11, 25
    3c54:	ff7be5        	excw
    3c57:	7696e1        	l32r	a14, 0xfffe16b0
    3c5a:	78a1f2        	movi	a15, 0x178
    3c5d:	c1f2f0        	mul16u	a15, a2, a15
    3c60:	180c      	movi.n	a8, 1
    3c62:	eefa      	add.n	a14, a14, a15
    3c64:	ffa0f2        	movi	a15, 255
    3c67:	790ee2        	l8ui	a14, a14, 121
    3c6a:	404482        	s8i	a8, a4, 64
    3c6d:	4744e2        	s8i	a14, a4, 71
    3c70:	c0eef0        	sub	a14, a14, a15
    3c73:	e30e56        	bnez	a14, 0x3aa7
    3c76:	410482        	l8ui	a8, a4, 65
    3c79:	fea092        	movi	a9, 254
    3c7c:	108890        	and	a8, a8, a9
    3c7f:	414482        	s8i	a8, a4, 65
    3c82:	f01d      	excw
    3c84:	004136        	excw
    3c87:	768f81        	l32r	a8, 0xfffe16c4
    3c8a:	02ad      	mov.n	a10, a2
    3c8c:	712882        	l32i	a8, a8, 0x1c4
    3c8f:	03bd      	mov.n	a11, a3
    3c91:	0008e0        	excw
    3c94:	767db1        	l32r	a11, 0xfffe1688
    3c97:	1c0c      	movi.n	a12, 1
    3c99:	80cbd2        	addi	a13, a11, -128
    3c9c:	1afc      	bnez.n	a10, 0x3cd1
    3c9e:	4b0b92        	l8ui	a9, a11, 75
    3ca1:	4a0ba2        	l8ui	a10, a11, 74
    3ca4:	5c9927        	bne	a9, a2, 0x3d04
    3ca7:	591a66        	bnei	a10, 1, 0x3d04
    3caa:	1b0b92        	l8ui	a9, a11, 27
    3cad:	769da1        	l32r	a10, 0xfffe1724
    3cb0:	509966        	bnei	a9, 10, 0x3d04
    3cb3:	78a1e2        	movi	a14, 0x178
    3cb6:	c1e2e0        	mul16u	a14, a2, a14
    3cb9:	eaea      	add.n	a14, a10, a14
    3cbb:	800ee2        	l8ui	a14, a14, 128
    3cbe:	440bf2        	l8ui	a15, a11, 68
    3cc1:	fefc      	bnez.n	a14, 0x3d04
    3cc3:	3d6f07        	bbci	a15, 0, 0x3d04
    3cc6:	340a82        	l8ui	a8, a10, 52
    3cc9:	78bc      	beqz.n	a8, 0x3d04
    3ccb:	464bc2        	s8i	a12, a11, 70
    3cce:	000086        	j	0x3cd4
    3cd1:	1b0b92        	l8ui	a9, a11, 27
    3cd4:	1c9966        	bnei	a9, 10, 0x3cf4
    3cd7:	769ea1        	l32r	a10, 0xfffe1750
    3cda:	78a1d2        	movi	a13, 0x178
    3cdd:	c1d2d0        	mul16u	a13, a2, a13
    3ce0:	aada      	add.n	a10, a10, a13
    3ce2:	800a92        	l8ui	a9, a10, 128
    3ce5:	fba0e2        	movi	a14, 251
    3ce8:	086927        	bbci	a9, 2, 0x3cf4
    3ceb:	10e9e0        	and	a14, a9, a14
    3cee:	804ae2        	s8i	a14, a10, 128
    3cf1:	464bc2        	s8i	a12, a11, 70
    3cf4:	767f81        	l32r	a8, 0xfffe16f0
    3cf7:	02ad      	mov.n	a10, a2
    3cf9:	7888      	l32i.n	a8, a8, 28
    3cfb:	03bd      	mov.n	a11, a3
    3cfd:	0008e0        	excw
    3d00:	0a2d      	mov.n	a2, a10
    3d02:	f01d      	excw
    3d04:	762781        	l32r	a8, 0xfffe15a0
    3d07:	ba0da2        	l8ui	a10, a13, 186
    3d0a:	fd2882        	l32i	a8, a8, 0x3f4
    3d0d:	90aa30        	addx2	a10, a10, a3
    3d10:	0008e0        	excw
    3d13:	120c      	movi.n	a2, 1
    3d15:	f01d      	excw
    3d17:	813600        	src	a3, a6, a0
    3d1a:	035d00        	excw
    3d1d:	3b0c      	movi.n	a11, 3
    3d1f:	769271        	l32r	a7, 0xfffe1768
    3d22:	760f81        	l32r	a8, 0xfffe1560
    3d25:	78a192        	movi	a9, 0x178
    3d28:	c19290        	mul16u	a9, a2, a9
    3d2b:	832882        	l32i	a8, a8, 0x20c
    3d2e:	779a      	add.n	a7, a7, a9
    3d30:	9007a2        	l8ui	a10, a7, 144
    3d33:	0008e0        	excw
    3d36:	769f41        	l32r	a4, 0xfffe17b4
    3d39:	767a91        	l32r	a9, 0xfffe1724
    3d3c:	dbd432        	addmi	a3, a4, 0xffffdb00
    3d3f:	6224a2        	l32i	a10, a4, 0x188
    3d42:	01d462        	addmi	a6, a4, 0x100
    3d45:	180a66        	bnei	a10, -1, 0x3d61
    3d48:	e409b2        	l8ui	a11, a9, 228
    3d4b:	23bb00        	excw
    3d4e:	0a1be6        	bgei	a11, 1, 0x3d5c
    3d51:	7679a1        	l32r	a10, 0xfffe1738
    3d54:	0b0c      	movi.n	a11, 0
    3d56:	b584e5        	excw
    3d59:	767a91        	l32r	a9, 0xfffe1744
    3d5c:	13a8      	l32i.n	a10, a3, 4
    3d5e:	6264a2        	s32i	a10, a4, 0x188
    3d61:	e409c2        	l8ui	a12, a9, 228
    3d64:	23cc00        	excw
    3d67:	0a1ce6        	bgei	a12, 1, 0x3d75
    3d6a:	7679a1        	l32r	a10, 0xfffe1750
    3d6d:	0b0c      	movi.n	a11, 0
    3d6f:	b58365        	excw
    3d72:	2226a2        	l32i	a10, a6, 136
    3d75:	2326d2        	l32i	a13, a6, 140
    3d78:	13b8      	l32i.n	a11, a3, 4
    3d7a:	761dc1        	l32r	a12, 0xfffe15f0
    3d7d:	c0aba0        	sub	a10, a11, a10
    3d80:	10aac0        	and	a10, a10, a12
    3d83:	103ad7        	bltu	a10, a13, 0x3d97
    3d86:	760f81        	l32r	a8, 0xfffe15c4
    3d89:	02ad      	mov.n	a10, a2
    3d8b:	cf2882        	l32i	a8, a8, 0x33c
    3d8e:	0b0c      	movi.n	a11, 0
    3d90:	0008e0        	excw
    3d93:	120c      	movi.n	a2, 1
    3d95:	f01d      	excw
    3d97:	7631c1        	l32r	a12, 0xfffe165c
    3d9a:	c31492        	l16ui	a9, a4, 0x186
    3d9d:	11a9      	s32i.n	a10, a1, 4
    3d9f:	0599c7        	bne	a9, a12, 0x3da8
    3da2:	e4d1b0        	extui	a13, a11, 1, 15
    3da5:	4356d2        	s16i	a13, a6, 134
    3da8:	76a041        	l32r	a4, 0xfffe1828
    3dab:	242682        	l32i	a8, a6, 144
    3dae:	0020c0        	memw
    3db1:	906482        	s32i	a8, a4, 0x240
    3db4:	2426f2        	l32i	a15, a6, 144
    3db7:	2526e2        	l32i	a14, a6, 148
    3dba:	0020c0        	memw
    3dbd:	9164e2        	s32i	a14, a4, 0x244
    3dc0:	ff58e5        	excw
    3dc3:	76a181        	l32r	a8, 0xfffe1848
    3dc6:	11aa80        	slli	a10, a10, 8
    3dc9:	090c      	movi.n	a9, 0
    3dcb:	01daa2        	addmi	a10, a10, 0x100
    3dce:	94a0a0        	extui	a10, a10, 0, 10
    3dd1:	0020c0        	memw
    3dd4:	8e64a2        	s32i	a10, a4, 0x238
    3dd7:	0020c0        	memw
    3dda:	8d6492        	s32i	a9, a4, 0x234
    3ddd:	0020c0        	memw
    3de0:	8b6492        	s32i	a9, a4, 0x22c
    3de3:	c888      	l32i.n	a8, a8, 48
    3de5:	1a0c      	movi.n	a10, 1
    3de7:	0008e0        	excw
    3dea:	0020c0        	memw
    3ded:	4159      	s32i.n	a5, a1, 16
    3def:	76a181        	l32r	a8, 0xfffe1874
    3df2:	8c64a2        	s32i	a10, a4, 0x230
    3df5:	d888      	l32i.n	a8, a8, 52
    3df7:	1a0c      	movi.n	a10, 1
    3df9:	0008e0        	excw
    3dfc:	762e91        	l32r	a9, 0xfffe16b4
    3dff:	0020c0        	memw
    3e02:	8369a2        	s32i	a10, a9, 0x20c
    3e05:	760f81        	l32r	a8, 0xfffe1644
    3e08:	1198      	l32i.n	a9, a1, 4
    3e0a:	232652        	l32i	a5, a6, 140
    3e0d:	ca2882        	l32i	a8, a8, 0x328
    3e10:	c05590        	sub	a5, a5, a9
    3e13:	0008e0        	excw
    3e16:	76a2c1        	l32r	a12, 0xfffe18a0
    3e19:	41b8      	l32i.n	a11, a1, 16
    3e1b:	2c0ca7        	bnone	a12, a10, 0x3e4b
    3e1e:	769fa1        	l32r	a10, 0xfffe189c
    3e21:	1398      	l32i.n	a9, a3, 4
    3e23:	c31aa2        	l16ui	a10, a10, 0x186
    3e26:	e49190        	extui	a9, a9, 1, 15
    3e29:	c099a0        	sub	a9, a9, a10
    3e2c:	e49090        	extui	a9, a9, 0, 15
    3e2f:	1199f0        	slli	a9, a9, 1
    3e32:	f49090        	extui	a9, a9, 0, 16
    3e35:	02c9f6        	bgeui	a9, 32, 0x3e3b
    3e38:	007e06        	j	0x4034
    3e3b:	760f81        	l32r	a8, 0xfffe1678
    3e3e:	02ad      	mov.n	a10, a2
    3e40:	cf2882        	l32i	a8, a8, 0x33c
    3e43:	0b0c      	movi.n	a11, 0
    3e45:	0008e0        	excw
    3e48:	ffd1c6        	j	0x3d93
    3e4b:	763091        	l32r	a9, 0xfffe170c
    3e4e:	762bc1        	l32r	a12, 0xfffe16fc
    3e51:	763ad1        	l32r	a13, 0xfffe173c
    3e54:	040ca2        	l8ui	a10, a12, 4
    3e57:	635950        	excw
    3e5a:	6a8c      	beqz.n	a10, 0x3e64
    3e5c:	061ca2        	l16ui	a10, a12, 12
    3e5f:	01ba57        	bgeu	a10, a5, 0x3e64
    3e62:	0a5d      	mov.n	a5, a10
    3e64:	7699a1        	l32r	a10, 0xfffe18c8
    3e67:	fb1b      	addi.n	a15, a11, 1
    3e69:	ce0a92        	l8ui	a9, a10, 206
    3e6c:	1e8f16        	beqz	a15, 0x4058
    3e6f:	39cc      	bnez.n	a9, 0x3e76
    3e71:	fa7c      	movi.n	a10, -1
    3e73:	0003c6        	j	0x3e86
    3e76:	cf0ae2        	l8ui	a14, a10, 207
    3e79:	78a1f2        	movi	a15, 0x178
    3e7c:	c1eef0        	mul16u	a14, a14, a15
    3e7f:	4a0c      	movi.n	a10, 4
    3e81:	ddea      	add.n	a13, a13, a14
    3e83:	7e0dd2        	l8ui	a13, a13, 126
    3e86:	023ab7        	bltu	a10, a11, 0x3e8c
    3e89:	006bc6        	j	0x403c
    3e8c:	01a9      	s32i.n	a10, a1, 0
    3e8e:	284df6        	bgeui	a13, 4, 0x3eba
    3e91:	880c      	movi.n	a8, 8
    3e93:	76a3b1        	l32r	a11, 0xfffe1920
    3e96:	0e3c      	movi.n	a14, 48
    3e98:	760e91        	l32r	a9, 0xfffe16d0
    3e9b:	113dc0        	slli	a3, a13, 4
    3e9e:	a09d90        	addx4	a9, a13, a9
    3ea1:	1998      	l32i.n	a9, a9, 4
    3ea3:	1033e0        	and	a3, a3, a14
    3ea6:	99aa      	add.n	a9, a9, a10
    3ea8:	419190        	srli	a9, a9, 1
    3eab:	1199a0        	slli	a9, a9, 6
    3eae:	1099b0        	and	a9, a9, a11
    3eb1:	203390        	or	a3, a3, a9
    3eb4:	203380        	or	a3, a3, a8
    3eb7:	000046        	j	0x3ebc
    3eba:	030c      	movi.n	a3, 0
    3ebc:	0020c0        	memw
    3ebf:	aa6432        	s32i	a3, a4, 0x2a8
    3ec2:	0000c6        	j	0x3ec9
    3ec5:	450c      	movi.n	a5, 4
    3ec7:	030c      	movi.n	a3, 0
    3ec9:	768d91        	l32r	a9, 0xfffe1900
    3ecc:	0409a2        	l8ui	a10, a9, 4
    3ecf:	292a66        	bnei	a10, 2, 0x3efc
    3ed2:	76a4b1        	l32r	a11, 0xfffe1964
    3ed5:	1d3b57        	bltu	a11, a5, 0x3ef6
    3ed8:	02ad      	mov.n	a10, a2
    3eda:	768f81        	l32r	a8, 0xfffe1918
    3edd:	05bd      	mov.n	a11, a5
    3edf:	162882        	l32i	a8, a8, 88
    3ee2:	0c0c      	movi.n	a12, 0
    3ee4:	0008e0        	excw
    3ee7:	760e91        	l32r	a9, 0xfffe1720
    3eea:	8c2992        	l32i	a9, a9, 0x230
    3eed:	0a3d      	mov.n	a3, a10
    3eef:	639950        	excw
    3ef2:	0199      	s32i.n	a9, a1, 0
    3ef4:	556b      	addi.n	a5, a5, 6
    3ef6:	76a561        	l32r	a6, 0xfffe198c
    3ef9:	000046        	j	0x3efe
    3efc:	b60c      	movi.n	a6, 11
    3efe:	0020c0        	memw
    3f01:	aa6432        	s32i	a3, a4, 0x2a8
    3f04:	0020c0        	memw
    3f07:	8a6462        	s32i	a6, a4, 0x228
    3f0a:	e4b150        	extui	a11, a5, 1, 15
    3f0d:	0020c0        	memw
    3f10:	8f64b2        	s32i	a11, a4, 0x23c
    3f13:	1d27a2        	l32i	a10, a7, 116
    3f16:	7678b1        	l32r	a11, 0xfffe18f8
    3f19:	04a0a0        	extui	a10, a10, 0, 1
    3f1c:	11aa20        	slli	a10, a10, 14
    3f1f:	10aab0        	and	a10, a10, a11
    3f22:	0020c0        	memw
    3f25:	9d64a2        	s32i	a10, a4, 0x274
    3f28:	1d2792        	l32i	a9, a7, 116
    3f2b:	76a6a1        	l32r	a10, 0xfffe19c4
    3f2e:	049090        	extui	a9, a9, 0, 1
    3f31:	0199c0        	slli	a9, a9, 20
    3f34:	1099a0        	and	a9, a9, a10
    3f37:	0020c0        	memw
    3f3a:	0b0c      	movi.n	a11, 0
    3f3c:	9c6492        	s32i	a9, a4, 0x270
    3f3f:	762781        	l32r	a8, 0xfffe17dc
    3f42:	768da1        	l32r	a10, 0xfffe1978
    3f45:	a92882        	l32i	a8, a8, 0x2a4
    3f48:	050aa2        	l8ui	a10, a10, 5
    3f4b:	0008e0        	excw
    3f4e:	76a1b1        	l32r	a11, 0xfffe19d4
    3f51:	80a782        	movi	a8, 0x780
    3f54:	116290        	slli	a6, a2, 7
    3f57:	4c0c      	movi.n	a12, 4
    3f59:	106680        	and	a6, a6, a8
    3f5c:	2066c0        	or	a6, a6, a12
    3f5f:	0020c0        	memw
    3f62:	8624d2        	l32i	a13, a4, 0x218
    3f65:	0e7c      	movi.n	a14, -16
    3f67:	10dde0        	and	a13, a13, a14
    3f6a:	7e0c      	movi.n	a14, 7
    3f6c:	20dde0        	or	a13, a13, a14
    3f6f:	0020c0        	memw
    3f72:	8664d2        	s32i	a13, a4, 0x218
    3f75:	1d2792        	l32i	a9, a7, 116
    3f78:	767ce1        	l32r	a14, 0xfffe1968
    3f7b:	0e6967        	bbci	a9, 6, 0x3f8d
    3f7e:	76a7a1        	l32r	a10, 0xfffe1a1c
    3f81:	bfafd2        	movi	a13, -65
    3f84:	10d9d0        	and	a13, a9, a13
    3f87:	1d67d2        	s32i	a13, a7, 116
    3f8a:	2066a0        	or	a6, a6, a10
    3f8d:	232ee2        	l32i	a14, a14, 140
    3f90:	0b0e66        	bnei	a14, -1, 0x3f9f
    3f93:	76a8f1        	l32r	a15, 0xfffe1a34
    3f96:	0020c0        	memw
    3f99:	8964f2        	s32i	a15, a4, 0x224
    3f9c:	0001c6        	j	0x3fa7
    3f9f:	0020c0        	memw
    3fa2:	080c      	movi.n	a8, 0
    3fa4:	896482        	s32i	a8, a4, 0x224
    3fa7:	eb88      	l32i.n	a8, a11, 56
    3fa9:	1a0c      	movi.n	a10, 1
    3fab:	0008e0        	excw
    3fae:	1b0c      	movi.n	a11, 1
    3fb0:	0c0c      	movi.n	a12, 0
    3fb2:	766b81        	l32r	a8, 0xfffe1960
    3fb5:	21a9      	s32i.n	a10, a1, 8
    3fb7:	3888      	l32i.n	a8, a8, 12
    3fb9:	02ad      	mov.n	a10, a2
    3fbb:	0008e0        	excw
    3fbe:	1b0c      	movi.n	a11, 1
    3fc0:	766b81        	l32r	a8, 0xfffe196c
    3fc3:	31a9      	s32i.n	a10, a1, 12
    3fc5:	4888      	l32i.n	a8, a8, 16
    3fc7:	02ad      	mov.n	a10, a2
    3fc9:	0008e0        	excw
    3fcc:	76a9b1        	l32r	a11, 0xfffe1a70
    3fcf:	0a9d      	mov.n	a9, a10
    3fd1:	280bc2        	l8ui	a12, a11, 40
    3fd4:	762bd1        	l32r	a13, 0xfffe1880
    3fd7:	5cbc      	beqz.n	a12, 0x4010
    3fd9:	142dd2        	l32i	a13, a13, 80
    3fdc:	51a9      	s32i.n	a10, a1, 20
    3fde:	2e6d67        	bbci	a13, 6, 0x4010
    3fe1:	6a07a2        	l8ui	a10, a7, 106
    3fe4:	766b81        	l32r	a8, 0xfffe1990
    3fe7:	490c      	movi.n	a9, 4
    3fe9:	382882        	l32i	a8, a8, 224
    3fec:	2b4b92        	s8i	a9, a11, 43
    3fef:	0008e0        	excw
    3ff2:	766bb1        	l32r	a11, 0xfffe19a0
    3ff5:	76aac1        	l32r	a12, 0xfffe1aa0
    3ff8:	016337        	bbci	a3, 3, 0x3ffd
    3ffb:	0158      	l32i.n	a5, a1, 0
    3ffd:	02ad      	mov.n	a10, a2
    3fff:	3c2b82        	l32i	a8, a11, 240
    4002:	71a292        	movi	a9, 0x271
    4005:	829590        	mull	a9, a5, a9
    4008:	706c92        	s32i	a9, a12, 0x1c0
    400b:	0008e0        	excw
    400e:	5198      	l32i.n	a9, a1, 20
    4010:	0020c0        	memw
    4013:	762ec1        	l32r	a12, 0xfffe18cc
    4016:	21d8      	l32i.n	a13, a1, 8
    4018:	886cd2        	s32i	a13, a12, 0x220
    401b:	31b8      	l32i.n	a11, a1, 12
    401d:	20bb90        	or	a11, a11, a9
    4020:	0020c0        	memw
    4023:	8a6cb2        	s32i	a11, a12, 0x228
    4026:	0020c0        	memw
    4029:	767da1        	l32r	a10, 0xfffe1a20
    402c:	886462        	s32i	a6, a4, 0x220
    402f:	aa39      	s32i.n	a3, a10, 40
    4031:	ff5786        	j	0x3d93
    4034:	0e2c      	movi.n	a14, 32
    4036:	c09e90        	sub	a9, a14, a9
    4039:	ff8446        	j	0x3e4e
    403c:	02ad      	mov.n	a10, a2
    403e:	768f81        	l32r	a8, 0xfffe1a7c
    4041:	fb7c      	movi.n	a11, -1
    4043:	162882        	l32i	a8, a8, 88
    4046:	0c0c      	movi.n	a12, 0
    4048:	0008e0        	excw
    404b:	760e91        	l32r	a9, 0xfffe1884
    404e:	0a3d      	mov.n	a3, a10
    4050:	8c2992        	l32i	a9, a9, 0x230
    4053:	0199      	s32i.n	a9, a1, 0
    4055:	ff9c06        	j	0x3ec9
    4058:	e6b916        	beqz	a9, 0x3ec7
    405b:	2813b2        	l16ui	a11, a3, 80
    405e:	7691e1        	l32r	a14, 0xfffe1aa4
    4061:	cf0af2        	l8ui	a15, a10, 207
    4064:	78a182        	movi	a8, 0x178
    4067:	c1ff80        	mul16u	a15, a15, a8
    406a:	13a8      	l32i.n	a10, a3, 4
    406c:	fdfa      	add.n	a15, a13, a15
    406e:	652ff2        	l32i	a15, a15, 0x194
    4071:	41a1a0        	srli	a10, a10, 1
    4074:	c0aaf0        	sub	a10, a10, a15
    4077:	10aae0        	and	a10, a10, a14
    407a:	11aaf0        	slli	a10, a10, 1
    407d:	023ab7        	bltu	a10, a11, 0x4083
    4080:	ff9046        	j	0x3ec5
    4083:	c05ba0        	sub	a5, a11, a10
    4086:	ff8f46        	j	0x3ec7
    4089:	000000        	ill
    408c:	004136        	excw
    408f:	025d      	mov.n	a5, a2
    4091:	767c21        	l32r	a2, 0xfffe1a84
    4094:	76ab61        	l32r	a6, 0xfffe1b40
    4097:	312222        	l32i	a2, a2, 196
    409a:	18a132        	movi	a3, 0x118
    409d:	f42020        	extui	a2, a2, 0, 16
    40a0:	0b0357        	bnone	a3, a5, 0x40af
    40a3:	881662        	l16ui	a6, a6, 0x110
    40a6:	1166c0        	slli	a6, a6, 4
    40a9:	02a627        	bge	a6, a2, 0x40af
    40ac:	f42060        	extui	a2, a6, 0, 16
    40af:	0665a7        	bbci	a5, 10, 0x40b9
    40b2:	052c      	movi.n	a5, 32
    40b4:	01b527        	bgeu	a5, a2, 0x40b9
    40b7:	052d      	mov.n	a2, a5
    40b9:	f01d      	excw
    40bb:	813600        	src	a3, a6, a0
    40be:	a04100        	addx4	a4, a1, a0
    40c1:	03bd76        	excw
    40c4:	050c      	movi.n	a5, 0
    40c6:	76a131        	l32r	a3, 0xfffe1b4c
    40c9:	0020c0        	memw
    40cc:	8d6452        	s32i	a5, a4, 0x234
    40cf:	0020c0        	memw
    40d2:	8b6452        	s32i	a5, a4, 0x22c
    40d5:	3a0c      	movi.n	a10, 3
    40d7:	c388      	l32i.n	a8, a3, 48
    40d9:	21b9      	s32i.n	a11, a1, 8
    40db:	0008e0        	excw
    40de:	0020c0        	memw
    40e1:	8c64a2        	s32i	a10, a4, 0x230
    40e4:	d388      	l32i.n	a8, a3, 52
    40e6:	3a0c      	movi.n	a10, 3
    40e8:	0008e0        	excw
    40eb:	76ac51        	l32r	a5, 0xfffe1b9c
    40ee:	7627f1        	l32r	a15, 0xfffe198c
    40f1:	7678c1        	l32r	a12, 0xfffe1ad4
    40f4:	768db1        	l32r	a11, 0xfffe1b28
    40f7:	76a6d1        	l32r	a13, 0xfffe1b90
    40fa:	762e91        	l32r	a9, 0xfffe19b4
    40fd:	0020c0        	memw
    4100:	76ad61        	l32r	a6, 0xfffe1bb4
    4103:	8369a2        	s32i	a10, a9, 0x20c
    4106:	78a182        	movi	a8, 0x178
    4109:	c18280        	mul16u	a8, a2, a8
    410c:	3d0bb2        	l8ui	a11, a11, 61
    410f:	668a      	add.n	a6, a6, a8
    4111:	096b56        	bnez	a11, 0x41ab
    4114:	769fb1        	l32r	a11, 0xfffe1b90
    4117:	767ad1        	l32r	a13, 0xfffe1b00
    411a:	dbdb32        	addmi	a3, a11, 0xffffdb00
    411d:	702bc2        	l32i	a12, a11, 0x1c0
    4120:	01dba2        	addmi	a10, a11, 0x100
    4123:	1b0c66        	bnei	a12, -1, 0x4142
    4126:	e40de2        	l8ui	a14, a13, 228
    4129:	23ee00        	excw
    412c:	0d1ee6        	bgei	a14, 1, 0x413d
    412f:	7679a1        	l32r	a10, 0xfffe1b14
    4132:	0b0c      	movi.n	a11, 0
    4134:	b546e5        	excw
    4137:	767ca1        	l32r	a10, 0xfffe1b28
    413a:	ffdab2        	addmi	a11, a10, 0xffffff00
    413d:	13f8      	l32i.n	a15, a3, 4
    413f:	706bf2        	s32i	a15, a11, 0x1c0
    4142:	763191        	l32r	a9, 0xfffe1a08
    4145:	e41b82        	l16ui	a8, a11, 0x1c8
    4148:	7691e1        	l32r	a14, 0xfffe1b8c
    414b:	079897        	bne	a8, a9, 0x4156
    414e:	13c8      	l32i.n	a12, a3, 4
    4150:	e4c1c0        	extui	a12, a12, 1, 15
    4153:	645ac2        	s16i	a12, a10, 200
    4156:	76aec1        	l32r	a12, 0xfffe1c10
    4159:	768d91        	l32r	a9, 0xfffe1b90
    415c:	730682        	l8ui	a8, a6, 115
    415f:	4a09f2        	l8ui	a15, a9, 74
    4162:	0188b0        	slli	a8, a8, 21
    4165:	108850        	and	a8, a8, a5
    4168:	01ffe0        	slli	a15, a15, 18
    416b:	10ffc0        	and	a15, a15, a12
    416e:	20ff80        	or	a15, a15, a8
    4171:	b80c      	movi.n	a8, 11
    4173:	20ff80        	or	a15, a15, a8
    4176:	0020c0        	memw
    4179:	8a64f2        	s32i	a15, a4, 0x228
    417c:	342ac2        	l32i	a12, a10, 208
    417f:	0020c0        	memw
    4182:	9064c2        	s32i	a12, a4, 0x240
    4185:	342a82        	l32i	a8, a10, 208
    4188:	352af2        	l32i	a15, a10, 212
    418b:	0020c0        	memw
    418e:	9164f2        	s32i	a15, a4, 0x244
    4191:	2d2ac2        	l32i	a12, a10, 180
    4194:	10cce0        	and	a12, a12, a14
    4197:	0020c0        	memw
    419a:	9464c2        	s32i	a12, a4, 0x250
    419d:	3c0992        	l8ui	a9, a9, 60
    41a0:	80a0f2        	movi	a15, 128
    41a3:	150956        	bnez	a9, 0x42f7
    41a6:	150c      	movi.n	a5, 1
    41a8:	0054c6        	j	0x42ff
    41ab:	0020c0        	memw
    41ae:	0e0c      	movi.n	a14, 0
    41b0:	8f64e2        	s32i	a14, a4, 0x23c
    41b3:	0020c0        	memw
    41b6:	1b0c      	movi.n	a11, 1
    41b8:	8e64e2        	s32i	a14, a4, 0x238
    41bb:	1e26a2        	l32i	a10, a6, 120
    41be:	6f46b2        	s8i	a11, a6, 111
    41c1:	04a0a0        	extui	a10, a10, 0, 1
    41c4:	11aa20        	slli	a10, a10, 14
    41c7:	10aac0        	and	a10, a10, a12
    41ca:	0020c0        	memw
    41cd:	9d64a2        	s32i	a10, a4, 0x274
    41d0:	1e2692        	l32i	a9, a6, 120
    41d3:	76afa1        	l32r	a10, 0xfffe1c90
    41d6:	049090        	extui	a9, a9, 0, 1
    41d9:	0199c0        	slli	a9, a9, 20
    41dc:	1099d0        	and	a9, a9, a13
    41df:	2099a0        	or	a9, a9, a10
    41e2:	0020c0        	memw
    41e5:	0b0c      	movi.n	a11, 0
    41e7:	9c6492        	s32i	a9, a4, 0x270
    41ea:	a92f82        	l32i	a8, a15, 0x2a4
    41ed:	8d06a2        	l8ui	a10, a6, 141
    41f0:	0008e0        	excw
    41f3:	76b0c1        	l32r	a12, 0xfffe1cb4
    41f6:	768da1        	l32r	a10, 0xfffe1c2c
    41f9:	7306b2        	l8ui	a11, a6, 115
    41fc:	4a0aa2        	l8ui	a10, a10, 74
    41ff:	01bbb0        	slli	a11, a11, 21
    4202:	11aa10        	slli	a10, a10, 15
    4205:	10bb50        	and	a11, a11, a5
    4208:	10aac0        	and	a10, a10, a12
    420b:	20aab0        	or	a10, a10, a11
    420e:	bb0c      	movi.n	a11, 11
    4210:	20aab0        	or	a10, a10, a11
    4213:	0020c0        	memw
    4216:	80a792        	movi	a9, 0x780
    4219:	118290        	slli	a8, a2, 7
    421c:	8a64a2        	s32i	a10, a4, 0x228
    421f:	6f0632        	l8ui	a3, a6, 111
    4222:	108890        	and	a8, a8, a9
    4225:	094c      	movi.n	a9, 64
    4227:	1133a0        	slli	a3, a3, 6
    422a:	103390        	and	a3, a3, a9
    422d:	203380        	or	a3, a3, a8
    4230:	76a781        	l32r	a8, 0xfffe1ccc
    4233:	070c      	movi.n	a7, 0
    4235:	203380        	or	a3, a3, a8
    4238:	0020c0        	memw
    423b:	8624a2        	l32i	a10, a4, 0x218
    423e:	0b7c      	movi.n	a11, -16
    4240:	10aab0        	and	a10, a10, a11
    4243:	7b0c      	movi.n	a11, 7
    4245:	20aab0        	or	a10, a10, a11
    4248:	0020c0        	memw
    424b:	8664a2        	s32i	a10, a4, 0x218
    424e:	0020c0        	memw
    4251:	3a0c      	movi.n	a10, 3
    4253:	76a181        	l32r	a8, 0xfffe1cd8
    4256:	090c      	movi.n	a9, 0
    4258:	e888      	l32i.n	a8, a8, 56
    425a:	896492        	s32i	a9, a4, 0x224
    425d:	0008e0        	excw
    4260:	3b0c      	movi.n	a11, 3
    4262:	0c0c      	movi.n	a12, 0
    4264:	766b51        	l32r	a5, 0xfffe1c10
    4267:	31a9      	s32i.n	a10, a1, 12
    4269:	3588      	l32i.n	a8, a5, 12
    426b:	02ad      	mov.n	a10, a2
    426d:	0008e0        	excw
    4270:	3b0c      	movi.n	a11, 3
    4272:	41a9      	s32i.n	a10, a1, 16
    4274:	4588      	l32i.n	a8, a5, 16
    4276:	02ad      	mov.n	a10, a2
    4278:	0008e0        	excw
    427b:	76a991        	l32r	a9, 0xfffe1d20
    427e:	0a5d      	mov.n	a5, a10
    4280:	2809b2        	l8ui	a11, a9, 40
    4283:	762bc1        	l32r	a12, 0xfffe1b30
    4286:	049b16        	beqz	a11, 0x42d3
    4289:	142cc2        	l32i	a12, a12, 80
    428c:	436c67        	bbci	a12, 6, 0x42d3
    428f:	76a9a1        	l32r	a10, 0xfffe1d34
    4292:	349030        	extui	a9, a3, 0, 4
    4295:	766b81        	l32r	a8, 0xfffe1c44
    4298:	2b4a92        	s8i	a9, a10, 43
    429b:	382882        	l32i	a8, a8, 224
    429e:	6e06a2        	l8ui	a10, a6, 110
    42a1:	0008e0        	excw
    42a4:	76a991        	l32r	a9, 0xfffe1d48
    42a7:	2b09c2        	l8ui	a12, a9, 43
    42aa:	766bb1        	l32r	a11, 0xfffe1c58
    42ad:	6ccc      	bnez.n	a12, 0x42b7
    42af:	1d0c      	movi.n	a13, 1
    42b1:	2d49d2        	s8i	a13, a9, 45
    42b4:	0004c6        	j	0x42cb
    42b7:	76aaa1        	l32r	a10, 0xfffe1d60
    42ba:	04e370        	extui	a14, a7, 3, 1
    42bd:	1a3e56        	bnez	a14, 0x4464
    42c0:	71a2c2        	movi	a12, 0x271
    42c3:	0198      	l32i.n	a9, a1, 0
    42c5:	82f9c0        	mull	a15, a9, a12
    42c8:	706af2        	s32i	a15, a10, 0x1c0
    42cb:	3c2b82        	l32i	a8, a11, 240
    42ce:	02ad      	mov.n	a10, a2
    42d0:	0008e0        	excw
    42d3:	0020c0        	memw
    42d6:	762eb1        	l32r	a11, 0xfffe1b90
    42d9:	31c8      	l32i.n	a12, a1, 12
    42db:	886bc2        	s32i	a12, a11, 0x220
    42de:	41a8      	l32i.n	a10, a1, 16
    42e0:	20aa50        	or	a10, a10, a5
    42e3:	0020c0        	memw
    42e6:	8a6ba2        	s32i	a10, a11, 0x228
    42e9:	0020c0        	memw
    42ec:	767d91        	l32r	a9, 0xfffe1ce0
    42ef:	886432        	s32i	a3, a4, 0x220
    42f2:	a979      	s32i.n	a7, a9, 40
    42f4:	001c46        	j	0x4369
    42f7:	890b      	addi.n	a8, a9, -1
    42f9:	00a152        	movi	a5, 0x100
    42fc:	835f80        	moveqz	a5, a15, a8
    42ff:	ff0525        	excw
    4302:	9a1b      	addi.n	a9, a10, 1
    4304:	829590        	mull	a9, a5, a9
    4307:	760f81        	l32r	a8, 0xfffe1b44
    430a:	949090        	extui	a9, a9, 0, 10
    430d:	0020c0        	memw
    4310:	ca2882        	l32i	a8, a8, 0x328
    4313:	8e6492        	s32i	a9, a4, 0x238
    4316:	0008e0        	excw
    4319:	f4b0a0        	extui	a11, a10, 0, 16
    431c:	18a5c2        	movi	a12, 0x518
    431f:	4a0cb7        	bnone	a12, a11, 0x436d
    4322:	0bad      	mov.n	a10, a11
    4324:	ffd665        	excw
    4327:	769fc1        	l32r	a12, 0xfffe1da4
    432a:	13b8      	l32i.n	a11, a3, 4
    432c:	e41cc2        	l16ui	a12, a12, 0x1c8
    432f:	e4b1b0        	extui	a11, a11, 1, 15
    4332:	c0bbc0        	sub	a11, a11, a12
    4335:	e4b0b0        	extui	a11, a11, 0, 15
    4338:	11bbf0        	slli	a11, a11, 1
    433b:	f4b0b0        	extui	a11, a11, 0, 16
    433e:	02bba7        	bgeu	a11, a10, 0x4344
    4341:	004b86        	j	0x4473
    4344:	762781        	l32r	a8, 0xfffe1be0
    4347:	02ad      	mov.n	a10, a2
    4349:	812882        	l32i	a8, a8, 0x204
    434c:	0b0c      	movi.n	a11, 0
    434e:	0008e0        	excw
    4351:	8723b2        	l32i	a11, a3, 0x21c
    4354:	110b26        	beqi	a11, -1, 0x4369
    4357:	762781        	l32r	a8, 0xfffe1bf4
    435a:	822882        	l32i	a8, a8, 0x208
    435d:	02ad      	mov.n	a10, a2
    435f:	0008e0        	excw
    4362:	767da1        	l32r	a10, 0xfffe1d58
    4365:	f97c      	movi.n	a9, -1
    4367:	7a99      	s32i.n	a9, a10, 28
    4369:	120c      	movi.n	a2, 1
    436b:	f01d      	excw
    436d:	767c51        	l32r	a5, 0xfffe1d60
    4370:	312552        	l32i	a5, a5, 196
    4373:	760f81        	l32r	a8, 0xfffe1bb0
    4376:	d02882        	l32i	a8, a8, 0x340
    4379:	0008e0        	excw
    437c:	762b91        	l32r	a9, 0xfffe1c28
    437f:	21b8      	l32i.n	a11, a1, 8
    4381:	040992        	l8ui	a9, a9, 4
    4384:	635a50        	excw
    4387:	998c      	beqz.n	a9, 0x4394
    4389:	762ba1        	l32r	a10, 0xfffe1c38
    438c:	061aa2        	l16ui	a10, a10, 12
    438f:	01ba57        	bgeu	a10, a5, 0x4394
    4392:	0a5d      	mov.n	a5, a10
    4394:	020b66        	bnei	a11, -1, 0x439a
    4397:	002386        	j	0x4429
    439a:	0159      	s32i.n	a5, a1, 0
    439c:	02ad      	mov.n	a10, a2
    439e:	768f81        	l32r	a8, 0xfffe1ddc
    43a1:	fb7c      	movi.n	a11, -1
    43a3:	162882        	l32i	a8, a8, 88
    43a6:	0c0c      	movi.n	a12, 0
    43a8:	0008e0        	excw
    43ab:	0a7d      	mov.n	a7, a10
    43ad:	0020c0        	memw
    43b0:	aa64a2        	s32i	a10, a4, 0x2a8
    43b3:	8c2392        	l32i	a9, a3, 0x230
    43b6:	1199      	s32i.n	a9, a1, 4
    43b8:	0000c6        	j	0x43bf
    43bb:	0159      	s32i.n	a5, a1, 0
    43bd:	070c      	movi.n	a7, 0
    43bf:	e4b150        	extui	a11, a5, 1, 15
    43c2:	0020c0        	memw
    43c5:	8f64b2        	s32i	a11, a4, 0x23c
    43c8:	1e26a2        	l32i	a10, a6, 120
    43cb:	7678b1        	l32r	a11, 0xfffe1dac
    43ce:	04a0a0        	extui	a10, a10, 0, 1
    43d1:	11aa20        	slli	a10, a10, 14
    43d4:	10aab0        	and	a10, a10, a11
    43d7:	0020c0        	memw
    43da:	9d64a2        	s32i	a10, a4, 0x274
    43dd:	1e2692        	l32i	a9, a6, 120
    43e0:	76a6a1        	l32r	a10, 0xfffe1e78
    43e3:	049090        	extui	a9, a9, 0, 1
    43e6:	0199c0        	slli	a9, a9, 20
    43e9:	1099a0        	and	a9, a9, a10
    43ec:	0020c0        	memw
    43ef:	0b0c      	movi.n	a11, 0
    43f1:	762781        	l32r	a8, 0xfffe1c90
    43f4:	9c6492        	s32i	a9, a4, 0x270
    43f7:	a92882        	l32i	a8, a8, 0x2a4
    43fa:	8d06a2        	l8ui	a10, a6, 141
    43fd:	0008e0        	excw
    4400:	1e2692        	l32i	a9, a6, 120
    4403:	80a782        	movi	a8, 0x780
    4406:	113290        	slli	a3, a2, 7
    4409:	103380        	and	a3, a3, a8
    440c:	04c690        	extui	a12, a9, 6, 1
    440f:	280c      	movi.n	a8, 2
    4411:	203380        	or	a3, a3, a8
    4414:	e20c16        	beqz	a12, 0x4238
    4417:	76a7b1        	l32r	a11, 0xfffe1eb4
    441a:	bfafa2        	movi	a10, -65
    441d:	10a9a0        	and	a10, a9, a10
    4420:	2033b0        	or	a3, a3, a11
    4423:	1e66a2        	s32i	a10, a6, 120
    4426:	ff8386        	j	0x4238
    4429:	7699b1        	l32r	a11, 0xfffe1e90
    442c:	ce0bc2        	l8ui	a12, a11, 206
    442f:	f88c16        	beqz	a12, 0x43bb
    4432:	450c      	movi.n	a5, 4
    4434:	76b1c1        	l32r	a12, 0xfffe1ef8
    4437:	cf0bd2        	l8ui	a13, a11, 207
    443a:	78a1e2        	movi	a14, 0x178
    443d:	c1dde0        	mul16u	a13, a13, a14
    4440:	13b8      	l32i.n	a11, a3, 4
    4442:	ccda      	add.n	a12, a12, a13
    4444:	7f2cc2        	l32i	a12, a12, 0x1fc
    4447:	41b1b0        	srli	a11, a11, 1
    444a:	c0bbc0        	sub	a11, a11, a12
    444d:	7691c1        	l32r	a12, 0xfffe1e94
    4450:	2813a2        	l16ui	a10, a3, 80
    4453:	10bbc0        	and	a11, a11, a12
    4456:	11bbf0        	slli	a11, a11, 1
    4459:	0fbba7        	bgeu	a11, a10, 0x446c
    445c:	c05ab0        	sub	a5, a10, a11
    445f:	0159      	s32i.n	a5, a1, 0
    4461:	ffd606        	j	0x43bd
    4464:	1198      	l32i.n	a9, a1, 4
    4466:	71a2c2        	movi	a12, 0x271
    4469:	ff9606        	j	0x42c5
    446c:	0159      	s32i.n	a5, a1, 0
    446e:	450c      	movi.n	a5, 4
    4470:	ffd246        	j	0x43bd
    4473:	767af1        	l32r	a15, 0xfffe1e5c
    4476:	e40ff2        	l8ui	a15, a15, 228
    4479:	c05ab0        	sub	a5, a10, a11
    447c:	23ff00        	excw
    447f:	1b1fe6        	bgei	a15, 1, 0x449e
    4482:	7679a1        	l32r	a10, 0xfffe1e68
    4485:	0b0c      	movi.n	a11, 0
    4487:	b511e5        	excw
    448a:	767a81        	l32r	a8, 0xfffe1e74
    448d:	e40882        	l8ui	a8, a8, 228
    4490:	238800        	excw
    4493:	0718e6        	bgei	a8, 1, 0x449e
    4496:	7679a1        	l32r	a10, 0xfffe1e7c
    4499:	0b0c      	movi.n	a11, 0
    449b:	b510a5        	excw
    449e:	00a4c2        	movi	a12, 0x400
    44a1:	1398      	l32i.n	a9, a3, 4
    44a3:	80a3b2        	movi	a11, 0x380
    44a6:	b9ba      	add.n	a11, a9, a11
    44a8:	10bbc0        	and	a11, a11, a12
    44ab:	1099c0        	and	a9, a9, a12
    44ae:	c099b0        	sub	a9, a9, a11
    44b1:	ebe956        	bnez	a9, 0x4373
    44b4:	552b      	addi.n	a5, a5, 2
    44b6:	ffae46        	j	0x4373
    44b9:	000000        	ill
    44bc:	004136        	excw
    44bf:	7699c1        	l32r	a12, 0xfffe1f24
    44c2:	760e91        	l32r	a9, 0xfffe1cfc
    44c5:	9b0ca2        	l8ui	a10, a12, 155
    44c8:	ffa082        	movi	a8, 255
    44cb:	291a87        	beq	a10, a8, 0x44f8
    44ce:	4d0992        	l8ui	a9, a9, 77
    44d1:	760fb1        	l32r	a11, 0xfffe1d10
    44d4:	698c      	beqz.n	a9, 0x44de
    44d6:	232b82        	l32i	a8, a11, 140
    44d9:	0008e0        	excw
    44dc:	f01d      	excw
    44de:	b9cc92        	addi	a9, a12, -71
    44e1:	b09a90        	addx8	a9, a10, a9
    44e4:	800992        	l8ui	a9, a9, 128
    44e7:	0f4926        	beqi	a9, 4, 0x44fa
    44ea:	02ad      	mov.n	a10, a2
    44ec:	767f81        	l32r	a8, 0xfffe1ee8
    44ef:	03bd      	mov.n	a11, a3
    44f1:	8888      	l32i.n	a8, a8, 32
    44f3:	04cd      	mov.n	a12, a4
    44f5:	0008e0        	excw
    44f8:	f01d      	excw
    44fa:	fa1226        	beqi	a2, 1, 0x44f8
    44fd:	493c      	movi.n	a9, 52
    44ff:	f53937        	bltu	a9, a3, 0x44f8
    4502:	232b82        	l32i	a8, a11, 140
    4505:	0008e0        	excw
    4508:	f01d      	excw
    450a:	360000        	excw
    450d:	220161        	l32r	a6, 0xfffccd14
    4510:	411a61        	l32r	a6, 0xfffd4978
    4513:	7699      	s32i.n	a9, a6, 28
    4515:	190c      	movi.n	a9, 1
    4517:	ffa032        	movi	a3, 255
    451a:	f57c      	movi.n	a5, -1
    451c:	5159      	s32i.n	a5, a1, 20
    451e:	6159      	s32i.n	a5, a1, 24
    4520:	104132        	s8i	a3, a1, 16
    4523:	1c4132        	s8i	a3, a1, 28
    4526:	8159      	s32i.n	a5, a1, 32
    4528:	9159      	s32i.n	a5, a1, 36
    452a:	a199      	s32i.n	a9, a1, 40
    452c:	2c4132        	s8i	a3, a1, 44
    452f:	c159      	s32i.n	a5, a1, 48
    4531:	9b0482        	l8ui	a8, a4, 155
    4534:	d159      	s32i.n	a5, a1, 52
    4536:	079837        	bne	a8, a3, 0x4541
    4539:	7679a1        	l32r	a10, 0xfffe1f20
    453c:	0b0c      	movi.n	a11, 0
    453e:	b50665        	excw
    4541:	760e71        	l32r	a7, 0xfffe1d7c
    4544:	768f61        	l32r	a6, 0xfffe1f80
    4547:	17a8      	l32i.n	a10, a7, 4
    4549:	172682        	l32i	a8, a6, 92
    454c:	41a1a0        	srli	a10, a10, 1
    454f:	0008e0        	excw
    4552:	2e1c      	movi.n	a14, 18
    4554:	767d51        	l32r	a5, 0xfffe1f48
    4557:	020c      	movi.n	a2, 0
    4559:	cc04f2        	l8ui	a15, a4, 204
    455c:	1561f2        	s32i	a15, a1, 84
    455f:	1c5522        	s16i	a2, a5, 56
    4562:	3a4522        	s8i	a2, a5, 58
    4565:	4c45e2        	s8i	a14, a5, 76
    4568:	762ed1        	l32r	a13, 0xfffe1e20
    456b:	76a0a1        	l32r	a10, 0xfffe1fec
    456e:	cd0422        	l8ui	a2, a4, 205
    4571:	0020c0        	memw
    4574:	422dd2        	l32i	a13, a13, 0x108
    4577:	e1d9      	s32i.n	a13, a1, 56
    4579:	0020c0        	memw
    457c:	9e2ac2        	l32i	a12, a10, 0x278
    457f:	f1c9      	s32i.n	a12, a1, 60
    4581:	0020c0        	memw
    4584:	9f2ab2        	l32i	a11, a10, 0x27c
    4587:	1061b2        	s32i	a11, a1, 64
    458a:	0020c0        	memw
    458d:	952aa2        	l32i	a10, a10, 0x254
    4590:	64a7a0        	extui	a10, a10, 7, 7
    4593:	4441a2        	s8i	a10, a1, 68
    4596:	76b291        	l32r	a9, 0xfffe2060
    4599:	0020c0        	memw
    459c:	76b381        	l32r	a8, 0xfffe2068
    459f:	812992        	l32i	a9, a9, 0x204
    45a2:	462882        	l32i	a8, a8, 0x118
    45a5:	454192        	s8i	a9, a1, 69
    45a8:	0008e0        	excw
    45ab:	9b0c      	movi.n	a11, 9
    45ad:	760f61        	l32r	a6, 0xfffe1dec
    45b0:	146122        	s32i	a2, a1, 80
    45b3:	050a16        	beqz	a10, 0x4607
    45b6:	ca0482        	l8ui	a8, a4, 202
    45b9:	4a98b7        	bne	a8, a11, 0x4607
    45bc:	cb04b2        	l8ui	a11, a4, 203
    45bf:	441b37        	beq	a11, a3, 0x4607
    45c2:	76b491        	l32r	a9, 0xfffe2094
    45c5:	78a122        	movi	a2, 0x178
    45c8:	c12b20        	mul16u	a2, a11, a2
    45cb:	76b581        	l32r	a8, 0xfffe20a0
    45ce:	929a      	add.n	a9, a2, a9
    45d0:	800992        	l8ui	a9, a9, 128
    45d3:	878a      	add.n	a8, a7, a8
    45d5:	a09990        	addx4	a9, a9, a9
    45d8:	b09970        	addx8	a9, a9, a7
    45db:	681992        	l16ui	a9, a9, 208
    45de:	228a      	add.n	a2, a2, a8
    45e0:	236937        	bbci	a9, 3, 0x4607
    45e3:	bc0482        	l8ui	a8, a4, 188
    45e6:	f90c      	movi.n	a9, 15
    45e8:	1b9897        	bne	a8, a9, 0x4607
    45eb:	f1a8      	l32i.n	a10, a1, 60
    45ed:	16eab7        	bbsi	a10, 11, 0x4607
    45f0:	768c81        	l32r	a8, 0xfffe2020
    45f3:	6888      	l32i.n	a8, a8, 24
    45f5:	4a1c      	movi.n	a10, 20
    45f7:	0008e0        	excw
    45fa:	2902a2        	l8ui	a10, a2, 41
    45fd:	0b0c      	movi.n	a11, 0
    45ff:	ef2682        	l32i	a8, a6, 0x3bc
    4602:	1c0c      	movi.n	a12, 1
    4604:	0008e0        	excw
    4607:	767781        	l32r	a8, 0xfffe1fe4
    460a:	78a192        	movi	a9, 0x178
    460d:	76b621        	l32r	a2, 0xfffe20e8
    4610:	9b04a2        	l8ui	a10, a4, 155
    4613:	1661a2        	s32i	a10, a1, 88
    4616:	b0fa20        	addx8	a15, a10, a2
    4619:	810fe2        	l8ui	a14, a15, 129
    461c:	1c61e2        	s32i	a14, a1, 112
    461f:	c19e90        	mul16u	a9, a14, a9
    4622:	7f0ff2        	l8ui	a15, a15, 127
    4625:	889a      	add.n	a8, a8, a9
    4627:	767891        	l32r	a9, 0xfffe2008
    462a:	7f2882        	l32i	a8, a8, 0x1fc
    462d:	c0ae30        	sub	a10, a14, a3
    4630:	108890        	and	a8, a8, a9
    4633:	090c      	movi.n	a9, 0
    4635:	8389a0        	moveqz	a8, a9, a10
    4638:	1a2192        	l32i	a9, a1, 104
    463b:	196182        	s32i	a8, a1, 100
    463e:	38c1a2        	addi	a10, a1, 56
    4641:	766b81        	l32r	a8, 0xfffe1ff0
    4644:	3ad8      	l32i.n	a13, a10, 12
    4646:	2ac8      	l32i.n	a12, a10, 8
    4648:	1ab8      	l32i.n	a11, a10, 4
    464a:	0aa8      	l32i.n	a10, a10, 0
    464c:	0199      	s32i.n	a9, a1, 0
    464e:	4e2882        	l32i	a8, a8, 0x138
    4651:	1d61f2        	s32i	a15, a1, 116
    4654:	0008e0        	excw
    4657:	76b8c1        	l32r	a12, 0xfffe2138
    465a:	1a21b2        	l32i	a11, a1, 104
    465d:	76b761        	l32r	a6, 0xfffe213c
    4660:	1d2182        	l32i	a8, a1, 116
    4663:	5c2692        	l32i	a9, a6, 0x170
    4666:	908880        	addx2	a8, a8, a8
    4669:	10bbc0        	and	a11, a11, a12
    466c:	11a8e0        	slli	a10, a8, 2
    466f:	1861a2        	s32i	a10, a1, 96
    4672:	a08890        	addx4	a8, a8, a9
    4675:	1888      	l32i.n	a8, a8, 4
    4677:	1c21a2        	l32i	a10, a1, 112
    467a:	0008e0        	excw
    467d:	1c21e2        	l32i	a14, a1, 112
    4680:	766b81        	l32r	a8, 0xfffe202c
    4683:	1a2192        	l32i	a9, a1, 104
    4686:	38c1a2        	addi	a10, a1, 56
    4689:	3ad8      	l32i.n	a13, a10, 12
    468b:	2ac8      	l32i.n	a12, a10, 8
    468d:	1ab8      	l32i.n	a11, a10, 4
    468f:	0aa8      	l32i.n	a10, a10, 0
    4691:	0199      	s32i.n	a9, a1, 0
    4693:	4f2882        	l32i	a8, a8, 0x13c
    4696:	1d21f2        	l32i	a15, a1, 116
    4699:	0008e0        	excw
    469c:	768e21        	l32r	a2, 0xfffe20d4
    469f:	7627b1        	l32r	a11, 0xfffe1f3c
    46a2:	bc04c2        	l8ui	a12, a4, 188
    46a5:	9b0492        	l8ui	a9, a4, 155
    46a8:	e1c9      	s32i.n	a12, a1, 56
    46aa:	0b89f6        	bgeui	a9, 8, 0x46b9
    46ad:	fc2b82        	l32i	a8, a11, 0x3f0
    46b0:	1621a2        	l32i	a10, a1, 88
    46b3:	0008e0        	excw
    46b6:	0001c6        	j	0x46c1
    46b9:	049966        	bnei	a9, 10, 0x46c1
    46bc:	090c      	movi.n	a9, 0
    46be:	404292        	s8i	a9, a2, 64
    46c1:	1b4532        	s8i	a3, a5, 27
    46c4:	4002b2        	l8ui	a11, a2, 64
    46c7:	0f0c      	movi.n	a15, 0
    46c9:	1c21c2        	l32i	a12, a1, 112
    46cc:	1d21d2        	l32i	a13, a1, 116
    46cf:	4a45d2        	s8i	a13, a5, 74
    46d2:	4b45c2        	s8i	a12, a5, 75
    46d5:	95f9      	s32i.n	a15, a5, 36
    46d7:	4645f2        	s8i	a15, a5, 70
    46da:	0dbb56        	bnez	a11, 0x47b9
    46dd:	4302e2        	l8ui	a14, a2, 67
    46e0:	059e37        	bne	a14, a3, 0x46e9
    46e3:	4602f2        	l8ui	a15, a2, 70
    46e6:	0f1f37        	beq	a15, a3, 0x46f9
    46e9:	f1b8      	l32i.n	a11, a1, 60
    46eb:	760f81        	l32r	a8, 0xfffe1f28
    46ee:	17a8      	l32i.n	a10, a7, 4
    46f0:	6c2882        	l32i	a8, a8, 0x1b0
    46f3:	41a1a0        	srli	a10, a10, 1
    46f6:	0008e0        	excw
    46f9:	c80792        	l8ui	a9, a7, 200
    46fc:	4c6907        	bbci	a9, 0, 0x474c
    46ff:	2cc1a2        	addi	a10, a1, 44
    4702:	768f81        	l32r	a8, 0xfffe2140
    4705:	30c1b2        	addi	a11, a1, 48
    4708:	2b2882        	l32i	a8, a8, 172
    470b:	34c1c2        	addi	a12, a1, 52
    470e:	0008e0        	excw
    4711:	2c01f2        	l8ui	a15, a1, 44
    4714:	1f61a2        	s32i	a10, a1, 124
    4717:	c09f30        	sub	a9, a15, a3
    471a:	47b916        	beqz	a9, 0x4b99
    471d:	0fad      	mov.n	a10, a15
    471f:	6b0c      	movi.n	a11, 6
    4721:	76b9c1        	l32r	a12, 0xfffe2208
    4724:	766b81        	l32r	a8, 0xfffe20d0
    4727:	78a1d2        	movi	a13, 0x178
    472a:	c1dfd0        	mul16u	a13, a15, a13
    472d:	112882        	l32i	a8, a8, 68
    4730:	ccda      	add.n	a12, a12, a13
    4732:	930cc2        	l8ui	a12, a12, 147
    4735:	cca0d2        	movi	a13, 204
    4738:	a0ccc0        	addx4	a12, a12, a12
    473b:	b0cc70        	addx8	a12, a12, a7
    473e:	ccda      	add.n	a12, a12, a13
    4740:	1b61c2        	s32i	a12, a1, 108
    4743:	14ccc2        	addi	a12, a12, 20
    4746:	0008e0        	excw
    4749:	000246        	j	0x4756
    474c:	fe7c      	movi.n	a14, -1
    474e:	0f0c      	movi.n	a15, 0
    4750:	1b61f2        	s32i	a15, a1, 108
    4753:	1f61e2        	s32i	a14, a1, 124
    4756:	767a81        	l32r	a8, 0xfffe2140
    4759:	340882        	l8ui	a8, a8, 52
    475c:	c08830        	sub	a8, a8, a3
    475f:	0c2816        	beqz	a8, 0x4825
    4762:	1cc1a2        	addi	a10, a1, 28
    4765:	20c1b2        	addi	a11, a1, 32
    4768:	768f81        	l32r	a8, 0xfffe21a4
    476b:	24c1c2        	addi	a12, a1, 36
    476e:	572882        	l32i	a8, a8, 0x15c
    4771:	0d0c      	movi.n	a13, 0
    4773:	0008e0        	excw
    4776:	768f81        	l32r	a8, 0xfffe21b4
    4779:	0a6d      	mov.n	a6, a10
    477b:	182882        	l32i	a8, a8, 96
    477e:	1c01a2        	l8ui	a10, a1, 28
    4781:	0008e0        	excw
    4784:	4b0c      	movi.n	a11, 4
    4786:	28c1c2        	addi	a12, a1, 40
    4789:	766b81        	l32r	a8, 0xfffe2138
    478c:	a1a9      	s32i.n	a10, a1, 40
    478e:	112882        	l32i	a8, a8, 68
    4791:	1c01a2        	l8ui	a10, a1, 28
    4794:	0008e0        	excw
    4797:	1b2192        	l32i	a9, a1, 108
    479a:	1c0122        	l8ui	a2, a1, 28
    479d:	78a182        	movi	a8, 0x178
    47a0:	c12280        	mul16u	a2, a2, a8
    47a3:	76ba81        	l32r	a8, 0xfffe228c
    47a6:	272a      	add.n	a2, a7, a2
    47a8:	228a      	add.n	a2, a2, a8
    47aa:	06f916        	beqz	a9, 0x481d
    47ad:	0012a2        	l16ui	a10, a2, 0
    47b0:	0c09b2        	l8ui	a11, a9, 12
    47b3:	053ee5        	excw
    47b6:	001946        	j	0x481f
    47b9:	440262        	l8ui	a6, a2, 68
    47bc:	109637        	bne	a6, a3, 0x47d0
    47bf:	4202f2        	l8ui	a15, a2, 66
    47c2:	c0cf30        	sub	a12, a15, a3
    47c5:	f30c16        	beqz	a12, 0x46f9
    47c8:	049637        	bne	a6, a3, 0x47d0
    47cb:	036d      	mov.n	a6, a3
    47cd:	936fc0        	movnez	a6, a15, a12
    47d0:	c0e630        	sub	a14, a6, a3
    47d3:	f22e16        	beqz	a14, 0x46f9
    47d6:	76bbf1        	l32r	a15, 0xfffe22c4
    47d9:	78a182        	movi	a8, 0x178
    47dc:	c16680        	mul16u	a6, a6, a8
    47df:	f6fa      	add.n	a15, a6, a15
    47e1:	800ff2        	l8ui	a15, a15, 128
    47e4:	f11f16        	beqz	a15, 0x46f9
    47e7:	9607b2        	l8ui	a11, a7, 150
    47ea:	be0792        	l8ui	a9, a7, 190
    47ed:	0239b7        	bltu	a9, a11, 0x47f3
    47f0:	ffc146        	j	0x46f9
    47f3:	8f07f2        	l8ui	a15, a7, 143
    47f6:	efff16        	beqz	a15, 0x46f9
    47f9:	7695c1        	l32r	a12, 0xfffe2250
    47fc:	c6ca      	add.n	a12, a6, a12
    47fe:	800cc2        	l8ui	a12, a12, 128
    4801:	23cc00        	excw
    4804:	022fc7        	blt	a15, a12, 0x480a
    4807:	ffbb86        	j	0x46f9
    480a:	1a0c      	movi.n	a10, 1
    480c:	768f81        	l32r	a8, 0xfffe2248
    480f:	ffa0b2        	movi	a11, 255
    4812:	122882        	l32i	a8, a8, 72
    4815:	9c1c      	movi.n	a12, 25
    4817:	0008e0        	excw
    481a:	ffb6c6        	j	0x46f9
    481d:	0a0c      	movi.n	a10, 0
    481f:	1761a2        	s32i	a10, a1, 92
    4822:	000206        	j	0x482e
    4825:	020c      	movi.n	a2, 0
    4827:	f67c      	movi.n	a6, -1
    4829:	0b0c      	movi.n	a11, 0
    482b:	1761b2        	s32i	a11, a1, 92
    482e:	76bcc1        	l32r	a12, 0xfffe2320
    4831:	f10cc2        	l8ui	a12, a12, 241
    4834:	2a1c37        	beq	a12, a3, 0x4862
    4837:	10c1a2        	addi	a10, a1, 16
    483a:	14c1b2        	addi	a11, a1, 20
    483d:	763981        	l32r	a8, 0xfffe2124
    4840:	18c1c2        	addi	a12, a1, 24
    4843:	372882        	l32i	a8, a8, 220
    4846:	0d0c      	movi.n	a13, 0
    4848:	0008e0        	excw
    484b:	768f81        	l32r	a8, 0xfffe2288
    484e:	1261a2        	s32i	a10, a1, 72
    4851:	192882        	l32i	a8, a8, 100
    4854:	1001a2        	l8ui	a10, a1, 16
    4857:	0008e0        	excw
    485a:	0acd      	mov.n	a12, a10
    485c:	1221e2        	l32i	a14, a1, 72
    485f:	0000c6        	j	0x4866
    4862:	0c0c      	movi.n	a12, 0
    4864:	fe7c      	movi.n	a14, -1
    4866:	1f21b2        	l32i	a11, a1, 124
    4869:	bb1b      	addi.n	a11, a11, 1
    486b:	09db16        	beqz	a11, 0x490c
    486e:	1f21d2        	l32i	a13, a1, 124
    4871:	d1f8      	l32i.n	a15, a1, 52
    4873:	c188      	l32i.n	a8, a1, 48
    4875:	b589      	s32i.n	a8, a5, 44
    4877:	d5f9      	s32i.n	a15, a5, 52
    4879:	c5d9      	s32i.n	a13, a5, 48
    487b:	2c01f2        	l8ui	a15, a1, 44
    487e:	4745f2        	s8i	a15, a5, 71
    4881:	082d56        	bnez	a13, 0x4907
    4884:	1c01b2        	l8ui	a11, a1, 28
    4887:	c09b30        	sub	a9, a11, a3
    488a:	2e8916        	beqz	a9, 0x4b76
    488d:	1b21d2        	l32i	a13, a1, 108
    4890:	8a0782        	l8ui	a8, a7, 138
    4893:	140dd2        	l8ui	a13, a13, 20
    4896:	00a4a2        	movi	a10, 0x400
    4899:	073d87        	bltu	a13, a8, 0x48a4
    489c:	a188      	l32i.n	a8, a1, 40
    489e:	fec882        	addi	a8, a8, -2
    48a1:	32e816        	beqz	a8, 0x4bd3
    48a4:	8b0792        	l8ui	a9, a7, 139
    48a7:	073d97        	bltu	a13, a9, 0x48b2
    48aa:	a1d8      	l32i.n	a13, a1, 40
    48ac:	fdcdd2        	addi	a13, a13, -3
    48af:	320d16        	beqz	a13, 0x4bd3
    48b2:	76b981        	l32r	a8, 0xfffe2398
    48b5:	78a192        	movi	a9, 0x178
    48b8:	c19f90        	mul16u	a9, a15, a9
    48bb:	889a      	add.n	a8, a8, a9
    48bd:	930882        	l8ui	a8, a8, 147
    48c0:	a08880        	addx4	a8, a8, a8
    48c3:	b08870        	addx8	a8, a8, a7
    48c6:	681882        	l16ui	a8, a8, 208
    48c9:	0208a7        	bnone	a8, a10, 0x48cf
    48cc:	00c0c6        	j	0x4bd3
    48cf:	0f0c      	movi.n	a15, 0
    48d1:	1e1282        	l16ui	a8, a2, 60
    48d4:	4417d2        	l16ui	a13, a7, 136
    48d7:	153d87        	bltu	a13, a8, 0x48f0
    48da:	1f1292        	l16ui	a9, a2, 62
    48dd:	199c      	beqz.n	a9, 0x48f2
    48df:	763ad1        	l32r	a13, 0xfffe21c8
    48e2:	78a182        	movi	a8, 0x178
    48e5:	c18b80        	mul16u	a8, a11, a8
    48e8:	dd8a      	add.n	a13, a13, a8
    48ea:	512dd2        	l32i	a13, a13, 0x144
    48ed:	016da7        	bbci	a13, 10, 0x48f2
    48f0:	0f0c      	movi.n	a15, 0
    48f2:	318f16        	beqz	a15, 0x4c0e
    48f5:	4745b2        	s8i	a11, a5, 71
    48f8:	c569      	s32i.n	a6, a5, 48
    48fa:	9f0c      	movi.n	a15, 9
    48fc:	9198      	l32i.n	a9, a1, 36
    48fe:	81d8      	l32i.n	a13, a1, 32
    4900:	b5d9      	s32i.n	a13, a5, 44
    4902:	d599      	s32i.n	a9, a5, 52
    4904:	009c06        	j	0x4b78
    4907:	8f0c      	movi.n	a15, 8
    4909:	000046        	j	0x490e
    490c:	7f0c      	movi.n	a15, 7
    490e:	2f0e26        	beqi	a14, -1, 0x4941
    4911:	1f2182        	l32i	a8, a1, 124
    4914:	29be87        	bgeu	a14, a8, 0x4941
    4917:	c5e9      	s32i.n	a14, a5, 48
    4919:	6198      	l32i.n	a9, a1, 24
    491b:	51b8      	l32i.n	a11, a1, 20
    491d:	1001d2        	l8ui	a13, a1, 16
    4920:	4745d2        	s8i	a13, a5, 71
    4923:	b5b9      	s32i.n	a11, a5, 44
    4925:	d599      	s32i.n	a9, a5, 52
    4927:	4cdc      	bnez.n	a12, 0x493f
    4929:	0d96e7        	bne	a6, a14, 0x493a
    492c:	a198      	l32i.n	a9, a1, 40
    492e:	fec9f2        	addi	a15, a9, -2
    4931:	2def16        	beqz	a15, 0x4c13
    4934:	fdc982        	addi	a8, a9, -3
    4937:	2d8816        	beqz	a8, 0x4c13
    493a:	bf0c      	movi.n	a15, 11
    493c:	000046        	j	0x4941
    493f:	bf0c      	movi.n	a15, 11
    4941:	570626        	beqi	a6, -1, 0x499c
    4944:	1f2192        	l32i	a9, a1, 124
    4947:	51b697        	bgeu	a6, a9, 0x499c
    494a:	4eb6e7        	bgeu	a6, a14, 0x499c
    494d:	1361c2        	s32i	a12, a1, 76
    4950:	768eb1        	l32r	a11, 0xfffe2388
    4953:	1261e2        	s32i	a14, a1, 72
    4956:	400bb2        	l8ui	a11, a11, 64
    4959:	2161f2        	s32i	a15, a1, 132
    495c:	1b1b16        	beqz	a11, 0x4b11
    495f:	760f81        	l32r	a8, 0xfffe219c
    4962:	6a2882        	l32i	a8, a8, 0x1a8
    4965:	0008e0        	excw
    4968:	2121f2        	l32i	a15, a1, 132
    496b:	1221e2        	l32i	a14, a1, 72
    496e:	1321c2        	l32i	a12, a1, 76
    4971:	1c01b2        	l8ui	a11, a1, 28
    4974:	19ca16        	beqz	a10, 0x4b14
    4977:	763ad1        	l32r	a13, 0xfffe2260
    497a:	78a182        	movi	a8, 0x178
    497d:	c18b80        	mul16u	a8, a11, a8
    4980:	4317a2        	l16ui	a10, a7, 134
    4983:	dd8a      	add.n	a13, a13, a8
    4985:	961d92        	l16ui	a9, a13, 0x12c
    4988:	0239a7        	bltu	a9, a10, 0x498e
    498b:	006146        	j	0x4b14
    498e:	9a07a2        	l8ui	a10, a7, 154
    4991:	b81d92        	l16ui	a9, a13, 0x170
    4994:	0439a7        	bltu	a9, a10, 0x499c
    4997:	005e46        	j	0x4b14
    499a:	9f0c      	movi.n	a15, 9
    499c:	127f66        	bnei	a15, 7, 0x49b2
    499f:	474532        	s8i	a3, a5, 71
    49a2:	206122        	s32i	a2, a1, 128
    49a5:	fb7c      	movi.n	a11, -1
    49a7:	b5b9      	s32i.n	a11, a5, 44
    49a9:	d5b9      	s32i.n	a11, a5, 52
    49ab:	fb7c      	movi.n	a11, -1
    49ad:	c5b9      	s32i.n	a11, a5, 48
    49af:	000146        	j	0x49b8
    49b2:	8c27b2        	l32i	a11, a7, 0x230
    49b5:	206122        	s32i	a2, a1, 128
    49b8:	0b2d      	mov.n	a2, a11
    49ba:	052b56        	bnez	a11, 0x4a10
    49bd:	76bda1        	l32r	a10, 0xfffe24b4
    49c0:	9a0492        	l8ui	a9, a4, 154
    49c3:	d3ca82        	addi	a8, a10, -45
    49c6:	b08f80        	addx8	a8, a15, a8
    49c9:	b099a0        	addx8	a9, a9, a10
    49cc:	530992        	l8ui	a9, a9, 83
    49cf:	800882        	l8ui	a8, a8, 128
    49d2:	3ab897        	bgeu	a8, a9, 0x4a10
    49d5:	f8cf92        	addi	a9, a15, -8
    49d8:	1c5916        	beqz	a9, 0x4ba1
    49db:	f7cfa2        	addi	a10, a15, -9
    49de:	246a16        	beqz	a10, 0x4c28
    49e1:	ba0c      	movi.n	a10, 11
    49e3:	f5cfc2        	addi	a12, a15, -11
    49e6:	1e4c56        	bnez	a12, 0x4bce
    49e9:	0b0c      	movi.n	a11, 0
    49eb:	762781        	l32r	a8, 0xfffe2288
    49ee:	100192        	l8ui	a9, a1, 16
    49f1:	ff2882        	l32i	a8, a8, 0x3fc
    49f4:	134592        	s8i	a9, a5, 19
    49f7:	0008e0        	excw
    49fa:	1f2192        	l32i	a9, a1, 124
    49fd:	220c      	movi.n	a2, 2
    49ff:	639960        	excw
    4a02:	0a29b6        	bltui	a9, 2, 0x4a10
    4a05:	092d      	mov.n	a2, a9
    4a07:	000146        	j	0x4a10
    4a0a:	1b2122        	l32i	a2, a1, 108
    4a0d:	0c0222        	l8ui	a2, a2, 12
    4a10:	9a0462        	l8ui	a6, a4, 154
    4a13:	0aa6b6        	bltui	a6, 12, 0x4a21
    4a16:	7679a1        	l32r	a10, 0xfffe23fc
    4a19:	0b0c      	movi.n	a11, 0
    4a1b:	b4b8a5        	excw
    4a1e:	9a0462        	l8ui	a6, a4, 154
    4a21:	02bd      	mov.n	a11, a2
    4a23:	76b681        	l32r	a8, 0xfffe24fc
    4a26:	1b4562        	s8i	a6, a5, 27
    4a29:	b08680        	addx8	a8, a6, a8
    4a2c:	7e0892        	l8ui	a9, a8, 126
    4a2f:	1a4592        	s8i	a9, a5, 26
    4a32:	810862        	l8ui	a6, a8, 129
    4a35:	76b791        	l32r	a9, 0xfffe2514
    4a38:	7f0882        	l8ui	a8, a8, 127
    4a3b:	1e6182        	s32i	a8, a1, 120
    4a3e:	5c2992        	l32i	a9, a9, 0x170
    4a41:	908880        	addx2	a8, a8, a8
    4a44:	a08890        	addx4	a8, a8, a9
    4a47:	0888      	l32i.n	a8, a8, 0
    4a49:	06ad      	mov.n	a10, a6
    4a4b:	0008e0        	excw
    4a4e:	2c01f2        	l8ui	a15, a1, 44
    4a51:	76b991        	l32r	a9, 0xfffe2538
    4a54:	351f37        	beq	a15, a3, 0x4a8d
    4a57:	78a1b2        	movi	a11, 0x178
    4a5a:	c1bfb0        	mul16u	a11, a15, a11
    4a5d:	768de1        	l32r	a14, 0xfffe2494
    4a60:	99ba      	add.n	a9, a9, a11
    4a62:	6d0992        	l8ui	a9, a9, 109
    4a65:	300ee2        	l8ui	a14, a14, 48
    4a68:	19ec      	bnez.n	a9, 0x4a8d
    4a6a:	1f1e37        	beq	a14, a3, 0x4a8d
    4a6d:	1c16e7        	beq	a6, a14, 0x4a8d
    4a70:	1996f7        	bne	a6, a15, 0x4a8d
    4a73:	767c81        	l32r	a8, 0xfffe2464
    4a76:	769ff1        	l32r	a15, 0xfffe24f4
    4a79:	312882        	l32i	a8, a8, 196
    4a7c:	dd9ff2        	l16si	a15, a15, 0x1ba
    4a7f:	768db1        	l32r	a11, 0xfffe24b4
    4a82:	07bf87        	bgeu	a15, a8, 0x4a8d
    4a85:	380b92        	l8ui	a9, a11, 56
    4a88:	991b      	addi.n	a9, a9, 1
    4a8a:	384b92        	s8i	a9, a11, 56
    4a8d:	5acc      	bnez.n	a10, 0x4a96
    4a8f:	0a0c      	movi.n	a10, 0
    4a91:	1b0c      	movi.n	a11, 1
    4a93:	b4b125        	excw
    4a96:	9b04a2        	l8ui	a10, a4, 155
    4a99:	029a37        	bne	a10, a3, 0x4a9f
    4a9c:	ffdc06        	j	0x4a10
    4a9f:	766b81        	l32r	a8, 0xfffe244c
    4aa2:	06ad      	mov.n	a10, a6
    4aa4:	502882        	l32i	a8, a8, 0x140
    4aa7:	1e21b2        	l32i	a11, a1, 120
    4aaa:	0008e0        	excw
    4aad:	76b731        	l32r	a3, 0xfffe258c
    4ab0:	152162        	l32i	a6, a1, 84
    4ab3:	1d21b2        	l32i	a11, a1, 116
    4ab6:	1921d2        	l32i	a13, a1, 100
    4ab9:	38c1a2        	addi	a10, a1, 56
    4abc:	762781        	l32r	a8, 0xfffe2358
    4abf:	1c2122        	l32i	a2, a1, 112
    4ac2:	8c2882        	l32i	a8, a8, 0x230
    4ac5:	02cd      	mov.n	a12, a2
    4ac7:	0008e0        	excw
    4aca:	d80492        	l8ui	a9, a4, 216
    4acd:	0d6907        	bbci	a9, 0, 0x4ade
    4ad0:	760f81        	l32r	a8, 0xfffe230c
    4ad3:	17a8      	l32i.n	a10, a7, 4
    4ad5:	8d2882        	l32i	a8, a8, 0x234
    4ad8:	41a1a0        	srli	a10, a10, 1
    4adb:	0008e0        	excw
    4ade:	8727b2        	l32i	a11, a7, 0x21c
    4ae1:	120b26        	beqi	a11, -1, 0x4af7
    4ae4:	182192        	l32i	a9, a1, 96
    4ae7:	5c2382        	l32i	a8, a3, 0x170
    4aea:	02ad      	mov.n	a10, a2
    4aec:	889a      	add.n	a8, a8, a9
    4aee:	2888      	l32i.n	a8, a8, 8
    4af0:	f47c      	movi.n	a4, -1
    4af2:	0008e0        	excw
    4af5:	7549      	s32i.n	a4, a5, 28
    4af7:	2a1c      	movi.n	a10, 18
    4af9:	1216a7        	beq	a6, a10, 0x4b0f
    4afc:	1421a2        	l32i	a10, a1, 80
    4aff:	5c2392        	l32i	a9, a3, 0x170
    4b02:	908660        	addx2	a8, a6, a6
    4b05:	a08890        	addx4	a8, a8, a9
    4b08:	2888      	l32i.n	a8, a8, 8
    4b0a:	fb7c      	movi.n	a11, -1
    4b0c:	0008e0        	excw
    4b0f:	f01d      	excw
    4b11:	1c01b2        	l8ui	a11, a1, 28
    4b14:	4745b2        	s8i	a11, a5, 71
    4b17:	c569      	s32i.n	a6, a5, 48
    4b19:	1f21a2        	l32i	a10, a1, 124
    4b1c:	91d8      	l32i.n	a13, a1, 36
    4b1e:	81f8      	l32i.n	a15, a1, 32
    4b20:	b5f9      	s32i.n	a15, a5, 44
    4b22:	d5d9      	s32i.n	a13, a5, 52
    4b24:	fecaa2        	addi	a10, a10, -2
    4b27:	e6fa56        	bnez	a10, 0x499a
    4b2a:	132282        	l32i	a8, a2, 76
    4b2d:	fec882        	addi	a8, a8, -2
    4b30:	e66856        	bnez	a8, 0x499a
    4b33:	76b991        	l32r	a9, 0xfffe2618
    4b36:	763ad1        	l32r	a13, 0xfffe2420
    4b39:	2c01f2        	l8ui	a15, a1, 44
    4b3c:	78a1a2        	movi	a10, 0x178
    4b3f:	c18ba0        	mul16u	a8, a11, a10
    4b42:	c1afa0        	mul16u	a10, a15, a10
    4b45:	dd8a      	add.n	a13, a13, a8
    4b47:	99aa      	add.n	a9, a9, a10
    4b49:	7e0da2        	l8ui	a10, a13, 126
    4b4c:	6c0992        	l8ui	a9, a9, 108
    4b4f:	c099a0        	sub	a9, a9, a10
    4b52:	e44916        	beqz	a9, 0x499a
    4b55:	512d82        	l32i	a8, a13, 0x144
    4b58:	00a6b2        	movi	a11, 0x600
    4b5b:	028b87        	bany	a11, a8, 0x4b61
    4b5e:	005a86        	j	0x4ccc
    4b61:	4745f2        	s8i	a15, a5, 71
    4b64:	1f2192        	l32i	a9, a1, 124
    4b67:	d1a8      	l32i.n	a10, a1, 52
    4b69:	c1b8      	l32i.n	a11, a1, 48
    4b6b:	b5b9      	s32i.n	a11, a5, 44
    4b6d:	d5a9      	s32i.n	a10, a5, 52
    4b6f:	c599      	s32i.n	a9, a5, 48
    4b71:	8f0c      	movi.n	a15, 8
    4b73:	ff8946        	j	0x499c
    4b76:	8f0c      	movi.n	a15, 8
    4b78:	1f21d2        	l32i	a13, a1, 124
    4b7b:	c0dde0        	sub	a13, a13, a14
    4b7e:	d8cd56        	bnez	a13, 0x490e
    4b81:	d89c16        	beqz	a12, 0x490e
    4b84:	c5e9      	s32i.n	a14, a5, 48
    4b86:	5188      	l32i.n	a8, a1, 20
    4b88:	61f8      	l32i.n	a15, a1, 24
    4b8a:	100192        	l8ui	a9, a1, 16
    4b8d:	474592        	s8i	a9, a5, 71
    4b90:	d5f9      	s32i.n	a15, a5, 52
    4b92:	b589      	s32i.n	a8, a5, 44
    4b94:	bf0c      	movi.n	a15, 11
    4b96:	ff5d06        	j	0x490e
    4b99:	0b0c      	movi.n	a11, 0
    4b9b:	1b61b2        	s32i	a11, a1, 108
    4b9e:	feed06        	j	0x4756
    4ba1:	1361c2        	s32i	a12, a1, 76
    4ba4:	768df1        	l32r	a15, 0xfffe25d8
    4ba7:	76abd1        	l32r	a13, 0xfffe2654
    4baa:	380ff2        	l8ui	a15, a15, 56
    4bad:	8a9dd2        	l16si	a13, a13, 0x114
    4bb0:	1261e2        	s32i	a14, a1, 72
    4bb3:	022df7        	blt	a13, a15, 0x4bb9
    4bb6:	002106        	j	0x4c3e
    4bb9:	474532        	s8i	a3, a5, 71
    4bbc:	768da1        	l32r	a10, 0xfffe25f0
    4bbf:	090c      	movi.n	a9, 0
    4bc1:	fb7c      	movi.n	a11, -1
    4bc3:	f87c      	movi.n	a8, -1
    4bc5:	b589      	s32i.n	a8, a5, 44
    4bc7:	d589      	s32i.n	a8, a5, 52
    4bc9:	c5b9      	s32i.n	a11, a5, 48
    4bcb:	384a92        	s8i	a9, a10, 56
    4bce:	0b2d      	mov.n	a2, a11
    4bd0:	ff8f06        	j	0x4a10
    4bd3:	1f21d2        	l32i	a13, a1, 124
    4bd6:	2f1d67        	beq	a13, a6, 0x4c09
    4bd9:	0b2666        	bnei	a6, 2, 0x4be8
    4bdc:	021282        	l16ui	a8, a2, 4
    4bdf:	0a1826        	beqi	a8, 1, 0x4bed
    4be2:	172192        	l32i	a9, a1, 92
    4be5:	0469f6        	bgeui	a9, 6, 0x4bed
    4be8:	0f0c      	movi.n	a15, 0
    4bea:	ff38c6        	j	0x48d1
    4bed:	763a81        	l32r	a8, 0xfffe24d8
    4bf0:	78a192        	movi	a9, 0x178
    4bf3:	c1db90        	mul16u	a13, a11, a9
    4bf6:	c19f90        	mul16u	a9, a15, a9
    4bf9:	88da      	add.n	a8, a8, a13
    4bfb:	76b9d1        	l32r	a13, 0xfffe26e0
    4bfe:	7e0882        	l8ui	a8, a8, 126
    4c01:	dd9a      	add.n	a13, a13, a9
    4c03:	6c0dd2        	l8ui	a13, a13, 108
    4c06:	de1d87        	beq	a13, a8, 0x4be8
    4c09:	1f0c      	movi.n	a15, 1
    4c0b:	ff3086        	j	0x48d1
    4c0e:	8f0c      	movi.n	a15, 8
    4c10:	ffd906        	j	0x4b78
    4c13:	c569      	s32i.n	a6, a5, 48
    4c15:	91b8      	l32i.n	a11, a1, 36
    4c17:	1c01f2        	l8ui	a15, a1, 28
    4c1a:	81d8      	l32i.n	a13, a1, 32
    4c1c:	b5d9      	s32i.n	a13, a5, 44
    4c1e:	4745f2        	s8i	a15, a5, 71
    4c21:	d5b9      	s32i.n	a11, a5, 52
    4c23:	9f0c      	movi.n	a15, 9
    4c25:	ff4606        	j	0x4941
    4c28:	9a0c      	movi.n	a10, 9
    4c2a:	0b0c      	movi.n	a11, 0
    4c2c:	762781        	l32r	a8, 0xfffe24c8
    4c2f:	1c0192        	l8ui	a9, a1, 28
    4c32:	ff2882        	l32i	a8, a8, 0x3fc
    4c35:	034592        	s8i	a9, a5, 3
    4c38:	0008e0        	excw
    4c3b:	ff7446        	j	0x4a10
    4c3e:	8a0c      	movi.n	a10, 8
    4c40:	0b0c      	movi.n	a11, 0
    4c42:	762781        	l32r	a8, 0xfffe24e0
    4c45:	2c0192        	l8ui	a9, a1, 44
    4c48:	ff2882        	l32i	a8, a8, 0x3fc
    4c4b:	7b4492        	s8i	a9, a4, 123
    4c4e:	0008e0        	excw
    4c51:	1b21d2        	l32i	a13, a1, 108
    4c54:	8b07b2        	l8ui	a11, a7, 139
    4c57:	140dd2        	l8ui	a13, a13, 20
    4c5a:	2021f2        	l32i	a15, a1, 128
    4c5d:	373db7        	bltu	a13, a11, 0x4c98
    4c60:	234666        	bnei	a6, 4, 0x4c87
    4c63:	763a21        	l32r	a2, 0xfffe254c
    4c66:	76b9e1        	l32r	a14, 0xfffe274c
    4c69:	1c01a2        	l8ui	a10, a1, 28
    4c6c:	2c0182        	l8ui	a8, a1, 44
    4c6f:	78a192        	movi	a9, 0x178
    4c72:	c18890        	mul16u	a8, a8, a9
    4c75:	c1aa90        	mul16u	a10, a10, a9
    4c78:	ee8a      	add.n	a14, a14, a8
    4c7a:	22aa      	add.n	a2, a2, a10
    4c7c:	7e0222        	l8ui	a2, a2, 126
    4c7f:	6c0ee2        	l8ui	a14, a14, 108
    4c82:	011e27        	beq	a14, a2, 0x4c87
    4c85:	260c      	movi.n	a6, 2
    4c87:	062d      	mov.n	a2, a6
    4c89:	0b3db7        	bltu	a13, a11, 0x4c98
    4c8c:	1221b2        	l32i	a11, a1, 72
    4c8f:	1321c2        	l32i	a12, a1, 76
    4c92:	63b6b0        	excw
    4c95:	932bc0        	movnez	a2, a11, a12
    4c98:	8c27c2        	l32i	a12, a7, 0x230
    4c9b:	d21b      	addi.n	a13, a2, 1
    4c9d:	832cd0        	moveqz	a2, a12, a13
    4ca0:	d6c256        	bnez	a2, 0x4a10
    4ca3:	c0e260        	sub	a14, a2, a6
    4ca6:	d60e56        	bnez	a14, 0x4a0a
    4ca9:	132f92        	l32i	a9, a15, 76
    4cac:	051966        	bnei	a9, 1, 0x4cb5
    4caf:	021f82        	l16ui	a8, a15, 4
    4cb2:	1128f6        	bgeui	a8, 2, 0x4cc7
    4cb5:	fec9a2        	addi	a10, a9, -2
    4cb8:	d4ea56        	bnez	a10, 0x4a0a
    4cbb:	021fc2        	l16ui	a12, a15, 4
    4cbe:	1f1fb2        	l16ui	a11, a15, 62
    4cc1:	023bc7        	bltu	a11, a12, 0x4cc7
    4cc4:	ff5086        	j	0x4a0a
    4cc7:	220c      	movi.n	a2, 2
    4cc9:	ff50c6        	j	0x4a10
    4ccc:	9f0c      	movi.n	a15, 9
    4cce:	ff3286        	j	0x499c
    4cd1:	000000        	ill
    4cd4:	006136        	excw
    4cd7:	766b71        	l32r	a7, 0xfffe2684
    4cda:	767361        	l32r	a6, 0xfffe26a8
    4cdd:	762b31        	l32r	a3, 0xfffe258c
    4ce0:	0312b2        	l16ui	a11, a2, 6
    4ce3:	16a282        	movi	a8, 0x216
    4ce6:	1a9b87        	bne	a11, a8, 0x4d04
    4ce9:	040392        	l8ui	a9, a3, 4
    4cec:	fdc992        	addi	a9, a9, -3
    4cef:	21a956        	bnez	a9, 0x4f0d
    4cf2:	76a931        	l32r	a3, 0xfffe2798
    4cf5:	2803a2        	l8ui	a10, a3, 40
    4cf8:	1dba16        	beqz	a10, 0x4ed7
    4cfb:	1f2782        	l32i	a8, a7, 124
    4cfe:	0008e0        	excw
    4d01:	007886        	j	0x4ee7
    4d04:	767f51        	l32r	a5, 0xfffe2700
    4d07:	040c      	movi.n	a4, 0
    4d09:	1fa292        	movi	a9, 0x21f
    4d0c:	259b97        	bne	a11, a9, 0x4d35
    4d0f:	0403a2        	l8ui	a10, a3, 4
    4d12:	163a66        	bnei	a10, 3, 0x4d2c
    4d15:	1c2782        	l32i	a8, a7, 112
    4d18:	044542        	s8i	a4, a5, 4
    4d1b:	0008e0        	excw
    4d1e:	9a0c      	movi.n	a10, 9
    4d20:	0fa2b2        	movi	a11, 0x20f
    4d23:	0c0c      	movi.n	a12, 0
    4d25:	7688      	l32i.n	a8, a6, 28
    4d27:	0d0c      	movi.n	a13, 0
    4d29:	0008e0        	excw
    4d2c:	5688      	l32i.n	a8, a6, 20
    4d2e:	02ad      	mov.n	a10, a2
    4d30:	0008e0        	excw
    4d33:	f01d      	excw
    4d35:	0fa292        	movi	a9, 0x20f
    4d38:	429b97        	bne	a11, a9, 0x4d7e
    4d3b:	76bed1        	l32r	a13, 0xfffe2834
    4d3e:	76bfc1        	l32r	a12, 0xfffe283c
    4d41:	3c0db2        	l8ui	a11, a13, 60
    4d44:	3e0c      	movi.n	a14, 3
    4d46:	023bb6        	bltui	a11, 3, 0x4d4c
    4d49:	005bc6        	j	0x4ebc
    4d4c:	76c091        	l32r	a9, 0xfffe284c
    4d4f:	0403f2        	l8ui	a15, a3, 4
    4d52:	7627b1        	l32r	a11, 0xfffe25f0
    4d55:	fdcff2        	addi	a15, a15, -3
    4d58:	1baf16        	beqz	a15, 0x4f16
    4d5b:	bf2b82        	l32i	a8, a11, 0x2fc
    4d5e:	0008e0        	excw
    4d61:	760e91        	l32r	a9, 0xfffe259c
    4d64:	bc0992        	l8ui	a9, a9, 188
    4d67:	0239b6        	bltui	a9, 3, 0x4d6d
    4d6a:	002c86        	j	0x4e20
    4d6d:	9a0c      	movi.n	a10, 9
    4d6f:	0fa2b2        	movi	a11, 0x20f
    4d72:	0c0c      	movi.n	a12, 0
    4d74:	7688      	l32i.n	a8, a6, 28
    4d76:	0d0c      	movi.n	a13, 0
    4d78:	0008e0        	excw
    4d7b:	0053c6        	j	0x4ece
    4d7e:	9588      	l32i.n	a8, a5, 36
    4d80:	02ad      	mov.n	a10, a2
    4d82:	0008e0        	excw
    4d85:	f01d      	excw
    4d87:	212782        	l32i	a8, a7, 132
    4d8a:	0008e0        	excw
    4d8d:	83b8      	l32i.n	a11, a3, 32
    4d8f:	01b9      	s32i.n	a11, a1, 0
    4d91:	371a66        	bnei	a10, 1, 0x4dcc
    4d94:	4bfc      	bnez.n	a11, 0x4dcc
    4d96:	43d8      	l32i.n	a13, a3, 16
    4d98:	cdec      	bnez.n	a13, 0x4dc8
    4d9a:	76c0a1        	l32r	a10, 0xfffe289c
    4d9d:	0b0c      	movi.n	a11, 0
    4d9f:	0c1c      	movi.n	a12, 16
    4da1:	1e0c      	movi.n	a14, 1
    4da3:	43e9      	s32i.n	a14, a3, 16
    4da5:	050ce5        	excw
    4da8:	80a0a2        	movi	a10, 128
    4dab:	76c0b1        	l32r	a11, 0xfffe28ac
    4dae:	202782        	l32i	a8, a7, 128
    4db1:	044b42        	s8i	a4, a11, 4
    4db4:	0008e0        	excw
    4db7:	0020c0        	memw
    4dba:	762ea1        	l32r	a10, 0xfffe2674
    4dbd:	e8a3b2        	movi	a11, 0x3e8
    4dc0:	a32aa2        	l32i	a10, a10, 0x28c
    4dc3:	04e925        	excw
    4dc6:	05a9      	s32i.n	a10, a5, 0
    4dc8:	83b8      	l32i.n	a11, a3, 32
    4dca:	01b9      	s32i.n	a11, a1, 0
    4dcc:	0020c0        	memw
    4dcf:	762ea1        	l32r	a10, 0xfffe2688
    4dd2:	e8a3b2        	movi	a11, 0x3e8
    4dd5:	a32aa2        	l32i	a10, a10, 0x28c
    4dd8:	04e7a5        	excw
    4ddb:	01b8      	l32i.n	a11, a1, 0
    4ddd:	178b56        	bnez	a11, 0x4f59
    4de0:	63c8      	l32i.n	a12, a3, 24
    4de2:	cc0b      	addi.n	a12, a12, -1
    4de4:	166c56        	bnez	a12, 0x4f4e
    4de7:	6349      	s32i.n	a4, a3, 24
    4de9:	76c1a1        	l32r	a10, 0xfffe28f0
    4dec:	762981        	l32r	a8, 0xfffe2690
    4def:	190c      	movi.n	a9, 1
    4df1:	f888      	l32i.n	a8, a8, 60
    4df3:	5399      	s32i.n	a9, a3, 20
    4df5:	0008e0        	excw
    4df8:	762981        	l32r	a8, 0xfffe269c
    4dfb:	f888      	l32i.n	a8, a8, 60
    4dfd:	76c2a1        	l32r	a10, 0xfffe2908
    4e00:	0008e0        	excw
    4e03:	762781        	l32r	a8, 0xfffe26a0
    4e06:	bf2882        	l32i	a8, a8, 0x2fc
    4e09:	0008e0        	excw
    4e0c:	760e91        	l32r	a9, 0xfffe2644
    4e0f:	bc0992        	l8ui	a9, a9, 188
    4e12:	e239b6        	bltui	a9, 3, 0x4df8
    4e15:	762981        	l32r	a8, 0xfffe26bc
    4e18:	f888      	l32i.n	a8, a8, 60
    4e1a:	76c3a1        	l32r	a10, 0xfffe2928
    4e1d:	0008e0        	excw
    4e20:	76bf91        	l32r	a9, 0xfffe291c
    4e23:	0405b2        	l8ui	a11, a5, 4
    4e26:	000992        	l8ui	a9, a9, 0
    4e29:	76bec1        	l32r	a12, 0xfffe2924
    4e2c:	c9ac      	beqz.n	a9, 0x4e5c
    4e2e:	2a8bf6        	bgeui	a11, 8, 0x4e5c
    4e31:	762981        	l32r	a8, 0xfffe26d8
    4e34:	f888      	l32i.n	a8, a8, 60
    4e36:	76c4a1        	l32r	a10, 0xfffe2948
    4e39:	0008e0        	excw
    4e3c:	76bf91        	l32r	a9, 0xfffe2938
    4e3f:	762781        	l32r	a8, 0xfffe26dc
    4e42:	004942        	s8i	a4, a9, 0
    4e45:	040592        	l8ui	a9, a5, 4
    4e48:	c12882        	l32i	a8, a8, 0x304
    4e4b:	991b      	addi.n	a9, a9, 1
    4e4d:	044592        	s8i	a9, a5, 4
    4e50:	0008e0        	excw
    4e53:	76bea1        	l32r	a10, 0xfffe294c
    4e56:	3c4a42        	s8i	a4, a10, 60
    4e59:	000106        	j	0x4e61
    4e5c:	3b0c      	movi.n	a11, 3
    4e5e:	3c4cb2        	s8i	a11, a12, 60
    4e61:	5349      	s32i.n	a4, a3, 20
    4e63:	4349      	s32i.n	a4, a3, 16
    4e65:	8349      	s32i.n	a4, a3, 32
    4e67:	0549      	s32i.n	a4, a5, 0
    4e69:	6349      	s32i.n	a4, a3, 24
    4e6b:	76c0a1        	l32r	a10, 0xfffe296c
    4e6e:	0b0c      	movi.n	a11, 0
    4e70:	0c1c      	movi.n	a12, 16
    4e72:	050025        	excw
    4e75:	80a0a2        	movi	a10, 128
    4e78:	76c0b1        	l32r	a11, 0xfffe2978
    4e7b:	290c      	movi.n	a9, 2
    4e7d:	202782        	l32i	a8, a7, 128
    4e80:	044b92        	s8i	a9, a11, 4
    4e83:	0008e0        	excw
    4e86:	76c5a1        	l32r	a10, 0xfffe299c
    4e89:	000ab2        	l8ui	a11, a10, 0
    4e8c:	db8c      	beqz.n	a11, 0x4e9d
    4e8e:	004a42        	s8i	a4, a10, 0
    4e91:	76a181        	l32r	a8, 0xfffe2918
    4e94:	190c      	movi.n	a9, 1
    4e96:	9888      	l32i.n	a8, a8, 36
    4e98:	7399      	s32i.n	a9, a3, 28
    4e9a:	0008e0        	excw
    4e9d:	76bed1        	l32r	a13, 0xfffe2998
    4ea0:	76bfc1        	l32r	a12, 0xfffe299c
    4ea3:	3c0da2        	l8ui	a10, a13, 60
    4ea6:	3e0c      	movi.n	a14, 3
    4ea8:	103af6        	bgeui	a10, 3, 0x4ebc
    4eab:	9a0c      	movi.n	a10, 9
    4ead:	0fa2b2        	movi	a11, 0x20f
    4eb0:	0c0c      	movi.n	a12, 0
    4eb2:	7688      	l32i.n	a8, a6, 28
    4eb4:	0d0c      	movi.n	a13, 0
    4eb6:	0008e0        	excw
    4eb9:	000446        	j	0x4ece
    4ebc:	3c4de2        	s8i	a14, a13, 60
    4ebf:	004c42        	s8i	a4, a12, 0
    4ec2:	044542        	s8i	a4, a5, 4
    4ec5:	7699a1        	l32r	a10, 0xfffe292c
    4ec8:	ffa092        	movi	a9, 255
    4ecb:	724a92        	s8i	a9, a10, 114
    4ece:	5688      	l32i.n	a8, a6, 20
    4ed0:	02ad      	mov.n	a10, a2
    4ed2:	0008e0        	excw
    4ed5:	f01d      	excw
    4ed7:	70a0a2        	movi	a10, 112
    4eda:	202782        	l32i	a8, a7, 128
    4edd:	0b0c      	movi.n	a11, 0
    4edf:	0008e0        	excw
    4ee2:	190c      	movi.n	a9, 1
    4ee4:	284392        	s8i	a9, a3, 40
    4ee7:	76c6c1        	l32r	a12, 0xfffe2a00
    4eea:	03e6a0        	rsr.ps	a10
    4eed:	2f0c      	movi.n	a15, 2
    4eef:	34e0a0        	extui	a14, a10, 0, 4
    4ef2:	022fe7        	blt	a15, a14, 0x4ef8
    4ef5:	0062a0        	rsil	a10, 2
    4ef8:	fd6c      	movi.n	a13, -17
    4efa:	0020c0        	memw
    4efd:	0cb8      	l32i.n	a11, a12, 0
    4eff:	10bbd0        	and	a11, a11, a13
    4f02:	0020c0        	memw
    4f05:	0cb9      	s32i.n	a11, a12, 0
    4f07:	13e6a0        	wsr.ps	a10
    4f0a:	002010        	rsync
    4f0d:	5688      	l32i.n	a8, a6, 20
    4f0f:	02ad      	mov.n	a10, a2
    4f11:	0008e0        	excw
    4f14:	f01d      	excw
    4f16:	73c8      	l32i.n	a12, a3, 28
    4f18:	cc0b      	addi.n	a12, a12, -1
    4f1a:	e69c56        	bnez	a12, 0x4d87
    4f1d:	7349      	s32i.n	a4, a3, 28
    4f1f:	04bd      	mov.n	a11, a4
    4f21:	09ad      	mov.n	a10, a9
    4f23:	0c1c      	movi.n	a12, 16
    4f25:	1d0c      	movi.n	a13, 1
    4f27:	83d9      	s32i.n	a13, a3, 32
    4f29:	04f4a5        	excw
    4f2c:	80a0a2        	movi	a10, 128
    4f2f:	76c0b1        	l32r	a11, 0xfffe2a30
    4f32:	190c      	movi.n	a9, 1
    4f34:	202782        	l32i	a8, a7, 128
    4f37:	044b92        	s8i	a9, a11, 4
    4f3a:	0008e0        	excw
    4f3d:	9a0c      	movi.n	a10, 9
    4f3f:	0fa2b2        	movi	a11, 0x20f
    4f42:	0c0c      	movi.n	a12, 0
    4f44:	7688      	l32i.n	a8, a6, 28
    4f46:	0d0c      	movi.n	a13, 0
    4f48:	0008e0        	excw
    4f4b:	ffdfc6        	j	0x4ece
    4f4e:	05c8      	l32i.n	a12, a5, 0
    4f50:	32cc92        	addi	a9, a12, 50
    4f53:	023a97        	bltu	a10, a9, 0x4f59
    4f56:	e8dc56        	bnez	a12, 0x4de7
    4f59:	212782        	l32i	a8, a7, 132
    4f5c:	0008e0        	excw
    4f5f:	e84a16        	beqz	a10, 0x4de7
    4f62:	9a0c      	movi.n	a10, 9
    4f64:	0fa2b2        	movi	a11, 0x20f
    4f67:	0c0c      	movi.n	a12, 0
    4f69:	7688      	l32i.n	a8, a6, 28
    4f6b:	0d0c      	movi.n	a13, 0
    4f6d:	0008e0        	excw
    4f70:	ffd686        	j	0x4ece
    4f73:	413600        	srli	a3, a0, 6
    4f76:	12ec00        	excw
    4f79:	767f81        	l32r	a8, 0xfffe2978
    4f7c:	a888      	l32i.n	a8, a8, 40
    4f7e:	02ad      	mov.n	a10, a2
    4f80:	0008e0        	excw
    4f83:	2b0c      	movi.n	a11, 2
    4f85:	5e0c      	movi.n	a14, 5
    4f87:	76bed1        	l32r	a13, 0xfffe2a80
    4f8a:	0c0c      	movi.n	a12, 0
    4f8c:	0f4dc2        	s8i	a12, a13, 15
    4f8f:	80cda2        	addi	a10, a13, -128
    4f92:	0d98      	l32i.n	a9, a13, 0
    4f94:	774ae2        	s8i	a14, a10, 119
    4f97:	2099b0        	or	a9, a9, a11
    4f9a:	0d99      	s32i.n	a9, a13, 0
    4f9c:	f01d      	excw
    4f9e:	360000        	excw
    4fa1:	290061        	l32r	a6, 0xfffcf3a4
    4fa4:	995101        	l32r	a0, 0xfffeb4e8
    4fa7:	040c76        	excw
    4faa:	75c532        	addi	a3, a5, 117
    4fad:	01a8      	l32i.n	a10, a1, 0
    4faf:	ffa0b2        	movi	a11, 255
    4fb2:	ac0c      	movi.n	a12, 10
    4fb4:	04ebe5        	excw
    4fb7:	020c      	movi.n	a2, 0
    4fb9:	f74c      	movi.n	a7, 79
    4fbb:	f90c      	movi.n	a9, 15
    4fbd:	fa0c      	movi.n	a10, 15
    4fbf:	060c      	movi.n	a6, 0
    4fc1:	41f360        	srli	a15, a6, 3
    4fc4:	24e060        	extui	a14, a6, 0, 3
    4fc7:	770b      	addi.n	a7, a7, -1
    4fc9:	eb0c      	movi.n	a11, 14
    4fcb:	e005d2        	l8ui	a13, a5, 224
    4fce:	661b      	addi.n	a6, a6, 1
    4fd0:	746060        	extui	a6, a6, 0, 8
    4fd3:	cd0b      	addi.n	a12, a13, -1
    4fd5:	93bcd0        	movnez	a11, a12, a13
    4fd8:	0d0c      	movi.n	a13, 0
    4fda:	00a0c2        	movi	a12, 0
    4fdd:	28aa76        	excw
    4fe0:	ea0c      	movi.n	a10, 14
    4fe2:	a08bb0        	addx4	a8, a11, a11
    4fe5:	9088f0        	addx2	a8, a8, a15
    4fe8:	838a      	add.n	a8, a3, a8
    4fea:	800882        	l8ui	a8, a8, 128
    4fed:	400e00        	ssr	a14
    4ff0:	b18080        	sra	a8, a8
    4ff3:	046807        	bbci	a8, 0, 0x4ffb
    4ff6:	dd9a      	add.n	a13, a13, a9
    4ff8:	000046        	j	0x4ffd
    4ffb:	cc9a      	add.n	a12, a12, a9
    4ffd:	8b0b      	addi.n	a8, a11, -1
    4fff:	990b      	addi.n	a9, a9, -1
    5001:	749090        	extui	a9, a9, 0, 8
    5004:	93a8b0        	movnez	a10, a8, a11
    5007:	0abd      	mov.n	a11, a10
    5009:	f90c      	movi.n	a9, 15
    500b:	c0ac40        	sub	a10, a12, a4
    500e:	aaab      	addi.n	a10, a10, 10
    5010:	1cada7        	bge	a13, a10, 0x5030
    5013:	f87c      	movi.n	a8, -1
    5015:	01c8      	l32i.n	a12, a1, 0
    5017:	401e00        	ssl	a14
    501a:	1d0c      	movi.n	a13, 1
    501c:	a1dd00        	sll	a13, a13
    501f:	cfca      	add.n	a12, a15, a12
    5021:	000cb2        	l8ui	a11, a12, 0
    5024:	30dd80        	xor	a13, a13, a8
    5027:	10bbd0        	and	a11, a11, a13
    502a:	004cb2        	s8i	a11, a12, 0
    502d:	000106        	j	0x5035
    5030:	221b      	addi.n	a2, a2, 1
    5032:	742020        	extui	a2, a2, 0, 8
    5035:	fa0c      	movi.n	a10, 15
    5037:	41f360        	srli	a15, a6, 3
    503a:	24e060        	extui	a14, a6, 0, 3
    503d:	f86756        	bnez	a7, 0x4fc7
    5040:	442b      	addi.n	a4, a4, 2
    5042:	381c      	movi.n	a8, 19
    5044:	023827        	bltu	a8, a2, 0x504a
    5047:	ffd886        	j	0x4fad
    504a:	f01d      	excw
    504c:	004136        	excw
    504f:	769e81        	l32r	a8, 0xfffe2ac8
    5052:	78a192        	movi	a9, 0x178
    5055:	c19290        	mul16u	a9, a2, a9
    5058:	768eb1        	l32r	a11, 0xfffe2a90
    505b:	889a      	add.n	a8, a8, a9
    505d:	800882        	l8ui	a8, a8, 128
    5060:	450bb2        	l8ui	a11, a11, 69
    5063:	54e817        	bbsi	a8, 1, 0x50bb
    5066:	ffa0c2        	movi	a12, 255
    5069:	379bc7        	bne	a11, a12, 0x50a4
    506c:	490c      	movi.n	a9, 4
    506e:	762981        	l32r	a8, 0xfffe2914
    5071:	760e31        	l32r	a3, 0xfffe28ac
    5074:	3888      	l32i.n	a8, a8, 12
    5076:	08d3a2        	addmi	a10, a3, 0x800
    5079:	2023c2        	l32i	a12, a3, 128
    507c:	2813b2        	l16ui	a11, a3, 80
    507f:	04c0c0        	extui	a12, a12, 0, 1
    5082:	939bc0        	movnez	a9, a11, a12
    5085:	665a92        	s16i	a9, a10, 204
    5088:	0008e0        	excw
    508b:	7691b1        	l32r	a11, 0xfffe2ad0
    508e:	1398      	l32i.n	a9, a3, 4
    5090:	04a0a0        	extui	a10, a10, 0, 1
    5093:	419190        	srli	a9, a9, 1
    5096:	c099a0        	sub	a9, a9, a10
    5099:	7693a1        	l32r	a10, 0xfffe2ae8
    509c:	990b      	addi.n	a9, a9, -1
    509e:	1099b0        	and	a9, a9, a11
    50a1:	726a92        	s32i	a9, a10, 0x1c8
    50a4:	760f31        	l32r	a3, 0xfffe28e0
    50a7:	02ad      	mov.n	a10, a2
    50a9:	672382        	l32i	a8, a3, 0x19c
    50ac:	0b0c      	movi.n	a11, 0
    50ae:	0008e0        	excw
    50b1:	02bd      	mov.n	a11, a2
    50b3:	662382        	l32i	a8, a3, 0x198
    50b6:	2a0c      	movi.n	a10, 2
    50b8:	0008e0        	excw
    50bb:	f01d      	excw
    50bd:	000000        	ill
    50c0:	004136        	excw
    50c3:	768e61        	l32r	a6, 0xfffe2afc
    50c6:	440622        	l8ui	a2, a6, 68
    50c9:	ffa052        	movi	a5, 255
    50cc:	0a9257        	bne	a2, a5, 0x50da
    50cf:	420632        	l8ui	a3, a6, 66
    50d2:	052d      	mov.n	a2, a5
    50d4:	c04350        	sub	a4, a3, a5
    50d7:	932340        	movnez	a2, a3, a4
    50da:	371257        	beq	a2, a5, 0x5115
    50dd:	76c741        	l32r	a4, 0xfffe2bfc
    50e0:	78a182        	movi	a8, 0x178
    50e3:	c12280        	mul16u	a2, a2, a8
    50e6:	76c8a1        	l32r	a10, 0xfffe2c08
    50e9:	424a      	add.n	a4, a2, a4
    50eb:	810482        	l8ui	a8, a4, 129
    50ee:	22aa      	add.n	a2, a2, a10
    50f0:	18ac      	beqz.n	a8, 0x5115
    50f2:	7b0292        	l8ui	a9, a2, 123
    50f5:	760eb1        	l32r	a11, 0xfffe2930
    50f8:	239900        	excw
    50fb:	1019a6        	blti	a9, 1, 0x510f
    50fe:	1bb8      	l32i.n	a11, a11, 4
    5100:	3e14c2        	l16ui	a12, a4, 124
    5103:	e4b1b0        	extui	a11, a11, 1, 15
    5106:	c0bbc0        	sub	a11, a11, a12
    5109:	e4b0b0        	extui	a11, a11, 0, 15
    510c:	099bf6        	bgeui	a11, 10, 0x5119
    510f:	c212c2        	l16ui	a12, a2, 0x184
    5112:	032cb6        	bltui	a12, 2, 0x5119
    5115:	020c      	movi.n	a2, 0
    5117:	f01d      	excw
    5119:	120c      	movi.n	a2, 1
    511b:	f01d      	excw
    511d:	000000        	ill
    5120:	006136        	excw
    5123:	0d0c      	movi.n	a13, 0
    5125:	760f51        	l32r	a5, 0xfffe2964
    5128:	76c9e1        	l32r	a14, 0xfffe2c4c
    512b:	181c      	movi.n	a8, 17
    512d:	03cd      	mov.n	a12, a3
    512f:	78a162        	movi	a6, 0x178
    5132:	760e31        	l32r	a3, 0xfffe296c
    5135:	c16260        	mul16u	a6, a2, a6
    5138:	1378      	l32i.n	a7, a3, 4
    513a:	09d342        	addmi	a4, a3, 0x900
    513d:	464a      	add.n	a4, a6, a4
    513f:	417170        	srli	a7, a7, 1
    5142:	5164c2        	s32i	a12, a4, 0x144
    5145:	3fbc87        	bgeu	a12, a8, 0x5188
    5148:	21c9      	s32i.n	a12, a1, 8
    514a:	76ca91        	l32r	a9, 0xfffe2c74
    514d:	908cc0        	addx2	a8, a12, a12
    5150:	889a      	add.n	a8, a8, a9
    5152:	0008a0        	jx	a8
    5155:	000bc6        	j	0x5188
    5158:	000b06        	j	0x5188
    515b:	000ac6        	j	0x518a
    515e:	000e86        	j	0x519c
    5161:	0096c6        	j	0x53c0
    5164:	009606        	j	0x53c0
    5167:	000746        	j	0x5188
    516a:	000686        	j	0x5188
    516d:	0005c6        	j	0x5188
    5170:	007c86        	j	0x5366
    5173:	004a86        	j	0x52a1
    5176:	004006        	j	0x527a
    5179:	002a46        	j	0x5226
    517c:	002986        	j	0x5226
    517f:	002486        	j	0x5215
    5182:	001f86        	j	0x5204
    5185:	001886        	j	0x51eb
    5188:	f01d      	excw
    518a:	07bd      	mov.n	a11, a7
    518c:	76b5a1        	l32r	a10, 0xfffe2c60
    518f:	c92582        	l32i	a8, a5, 0x324
    5192:	a3aa      	add.n	a10, a3, a10
    5194:	a6aa      	add.n	a10, a6, a10
    5196:	0008e0        	excw
    5199:	76c9e1        	l32r	a14, 0xfffe2cc0
    519c:	b6ea      	add.n	a11, a6, a14
    519e:	6a0bb2        	l8ui	a11, a11, 106
    51a1:	8bcc      	bnez.n	a11, 0x51ad
    51a3:	02bd      	mov.n	a11, a2
    51a5:	662582        	l32i	a8, a5, 0x198
    51a8:	1a0c      	movi.n	a10, 1
    51aa:	0008e0        	excw
    51ad:	c22582        	l32i	a8, a5, 0x308
    51b0:	090c      	movi.n	a9, 0
    51b2:	9e5492        	s16i	a9, a4, 0x13c
    51b5:	9f5492        	s16i	a9, a4, 0x13e
    51b8:	0008e0        	excw
    51bb:	c42582        	l32i	a8, a5, 0x310
    51be:	0008e0        	excw
    51c1:	76cb91        	l32r	a9, 0xfffe2cf0
    51c4:	2998      	l32i.n	a9, a9, 8
    51c6:	149090        	extui	a9, a9, 0, 2
    51c9:	39dc      	bnez.n	a9, 0x51e0
    51cb:	76cc91        	l32r	a9, 0xfffe2cfc
    51ce:	960992        	l8ui	a9, a9, 150
    51d1:	0b6907        	bbci	a9, 0, 0x51e0
    51d4:	026977        	bbci	a9, 7, 0x51da
    51d7:	056967        	bbci	a9, 6, 0x51e0
    51da:	cc2582        	l32i	a8, a5, 0x330
    51dd:	0008e0        	excw
    51e0:	766b81        	l32r	a8, 0xfffe2b8c
    51e3:	142882        	l32i	a8, a8, 80
    51e6:	0008e0        	excw
    51e9:	f01d      	excw
    51eb:	7631a1        	l32r	a10, 0xfffe2ab0
    51ee:	07d392        	addmi	a9, a3, 0x700
    51f1:	eb1992        	l16ui	a9, a9, 0x1d6
    51f4:	9099a7        	bne	a9, a10, 0x5188
    51f7:	13a8      	l32i.n	a10, a3, 4
    51f9:	08d3b2        	addmi	a11, a3, 0x800
    51fc:	e4a1a0        	extui	a10, a10, 1, 15
    51ff:	6b5ba2        	s16i	a10, a11, 214
    5202:	f01d      	excw
    5204:	07bd      	mov.n	a11, a7
    5206:	76b5a1        	l32r	a10, 0xfffe2cdc
    5209:	c92582        	l32i	a8, a5, 0x324
    520c:	a3aa      	add.n	a10, a3, a10
    520e:	a6aa      	add.n	a10, a6, a10
    5210:	0008e0        	excw
    5213:	f01d      	excw
    5215:	07bd      	mov.n	a11, a7
    5217:	76b5a1        	l32r	a10, 0xfffe2cec
    521a:	c92582        	l32i	a8, a5, 0x324
    521d:	a3aa      	add.n	a10, a3, a10
    521f:	a6aa      	add.n	a10, a6, a10
    5221:	0008e0        	excw
    5224:	f01d      	excw
    5226:	0c3d      	mov.n	a3, a12
    5228:	1b0c      	movi.n	a11, 1
    522a:	672582        	l32i	a8, a5, 0x19c
    522d:	02ad      	mov.n	a10, a2
    522f:	0008e0        	excw
    5232:	c22582        	l32i	a8, a5, 0x308
    5235:	0008e0        	excw
    5238:	c42582        	l32i	a8, a5, 0x310
    523b:	0008e0        	excw
    523e:	76cb91        	l32r	a9, 0xfffe2d6c
    5241:	2998      	l32i.n	a9, a9, 8
    5243:	149090        	extui	a9, a9, 0, 2
    5246:	39dc      	bnez.n	a9, 0x525d
    5248:	76cc91        	l32r	a9, 0xfffe2d78
    524b:	960992        	l8ui	a9, a9, 150
    524e:	0b6907        	bbci	a9, 0, 0x525d
    5251:	026977        	bbci	a9, 7, 0x5257
    5254:	056967        	bbci	a9, 6, 0x525d
    5257:	cc2582        	l32i	a8, a5, 0x330
    525a:	0008e0        	excw
    525d:	f4c392        	addi	a9, a3, -12
    5260:	f24956        	bnez	a9, 0x5188
    5263:	76c9a1        	l32r	a10, 0xfffe2d88
    5266:	a6aa      	add.n	a10, a6, a10
    5268:	960aa2        	l8ui	a10, a10, 150
    526b:	f19a16        	beqz	a10, 0x5188
    526e:	766b81        	l32r	a8, 0xfffe2c1c
    5271:	c888      	l32i.n	a8, a8, 48
    5273:	02ad      	mov.n	a10, a2
    5275:	0008e0        	excw
    5278:	f01d      	excw
    527a:	4e0392        	l8ui	a9, a3, 78
    527d:	071926        	beqi	a9, 1, 0x5288
    5280:	a6ea      	add.n	a10, a6, a14
    5282:	770aa2        	l8ui	a10, a10, 119
    5285:	15aa16        	beqz	a10, 0x53e3
    5288:	9e14c2        	l16ui	a12, a4, 0x13c
    528b:	cc1b      	addi.n	a12, a12, 1
    528d:	9e54c2        	s16i	a12, a4, 0x13c
    5290:	07bd      	mov.n	a11, a7
    5292:	76b5a1        	l32r	a10, 0xfffe2d68
    5295:	c92582        	l32i	a8, a5, 0x324
    5298:	a3aa      	add.n	a10, a3, a10
    529a:	a6aa      	add.n	a10, a6, a10
    529c:	0008e0        	excw
    529f:	f01d      	excw
    52a1:	7691c1        	l32r	a12, 0xfffe2ce8
    52a4:	9e14b2        	l16ui	a11, a4, 0x13c
    52a7:	4c24a2        	l32i	a10, a4, 0x130
    52aa:	bb1b      	addi.n	a11, a11, 1
    52ac:	c0a7a0        	sub	a10, a7, a10
    52af:	10aac0        	and	a10, a10, a12
    52b2:	9e54b2        	s16i	a11, a4, 0x13c
    52b5:	2913b2        	l16ui	a11, a3, 82
    52b8:	11aaf0        	slli	a10, a10, 1
    52bb:	0eaab7        	bge	a10, a11, 0x52cd
    52be:	1414c2        	l16ui	a12, a4, 40
    52c1:	ec3c16        	beqz	a12, 0x5188
    52c4:	41d1c0        	srli	a13, a12, 1
    52c7:	022da7        	blt	a13, a10, 0x52cd
    52ca:	ffae86        	j	0x5188
    52cd:	180c      	movi.n	a8, 1
    52cf:	3b4482        	s8i	a8, a4, 59
    52d2:	2a13f2        	l16ui	a15, a3, 84
    52d5:	0eaaf7        	bge	a10, a15, 0x52e7
    52d8:	1414c2        	l16ui	a12, a4, 40
    52db:	ea9c16        	beqz	a12, 0x5188
    52de:	4191c0        	srli	a9, a12, 1
    52e1:	0229a7        	blt	a9, a10, 0x52e7
    52e4:	ffa806        	j	0x5188
    52e7:	11a9      	s32i.n	a10, a1, 4
    52e9:	2c0c      	movi.n	a12, 2
    52eb:	b6ea      	add.n	a11, a6, a14
    52ed:	6a0bb2        	l8ui	a11, a11, 106
    52f0:	3b44c2        	s8i	a12, a4, 59
    52f3:	152b66        	bnei	a11, 2, 0x530c
    52f6:	02ad      	mov.n	a10, a2
    52f8:	672582        	l32i	a8, a5, 0x19c
    52fb:	0b0c      	movi.n	a11, 0
    52fd:	0008e0        	excw
    5300:	1a0c      	movi.n	a10, 1
    5302:	662582        	l32i	a8, a5, 0x198
    5305:	02bd      	mov.n	a11, a2
    5307:	0008e0        	excw
    530a:	11a8      	l32i.n	a10, a1, 4
    530c:	1414b2        	l16ui	a11, a4, 40
    530f:	0d5b16        	beqz	a11, 0x53e8
    5312:	4191b0        	srli	a9, a11, 1
    5315:	10a9a7        	bge	a9, a10, 0x5329
    5318:	76cdc1        	l32r	a12, 0xfffe2e4c
    531b:	3d0c      	movi.n	a13, 3
    531d:	1c1cc2        	l16ui	a12, a12, 56
    5320:	3b44d2        	s8i	a13, a4, 59
    5323:	feccc2        	addi	a12, a12, -2
    5326:	3944c2        	s8i	a12, a4, 57
    5329:	e5bb16        	beqz	a11, 0x5188
    532c:	022ba7        	blt	a11, a10, 0x5332
    532f:	ff9546        	j	0x5188
    5332:	02ad      	mov.n	a10, a2
    5334:	672582        	l32i	a8, a5, 0x19c
    5337:	1b0c      	movi.n	a11, 1
    5339:	0008e0        	excw
    533c:	768f31        	l32r	a3, 0xfffe2d78
    533f:	562382        	l32i	a8, a3, 0x158
    5342:	02ad      	mov.n	a10, a2
    5344:	0008e0        	excw
    5347:	242382        	l32i	a8, a3, 144
    534a:	4104a2        	l8ui	a10, a4, 65
    534d:	0008e0        	excw
    5350:	004122        	s8i	a2, a1, 0
    5353:	2a0c      	movi.n	a10, 2
    5355:	03a2b2        	movi	a11, 0x203
    5358:	767381        	l32r	a8, 0xfffe2d24
    535b:	01cd      	mov.n	a12, a1
    535d:	7888      	l32i.n	a8, a8, 28
    535f:	1d0c      	movi.n	a13, 1
    5361:	0008e0        	excw
    5364:	f01d      	excw
    5366:	96ea      	add.n	a9, a6, a14
    5368:	6a0992        	l8ui	a9, a9, 106
    536b:	382966        	bnei	a9, 2, 0x53a7
    536e:	02ad      	mov.n	a10, a2
    5370:	672582        	l32i	a8, a5, 0x19c
    5373:	0b0c      	movi.n	a11, 0
    5375:	0008e0        	excw
    5378:	1a0c      	movi.n	a10, 1
    537a:	662582        	l32i	a8, a5, 0x198
    537d:	02bd      	mov.n	a11, a2
    537f:	0008e0        	excw
    5382:	768ea1        	l32r	a10, 0xfffe2dbc
    5385:	420a92        	l8ui	a9, a10, 66
    5388:	1b9927        	bne	a9, a2, 0x53a7
    538b:	440ab2        	l8ui	a11, a10, 68
    538e:	ffa0c2        	movi	a12, 255
    5391:	129bc7        	bne	a11, a12, 0x53a7
    5394:	444a22        	s8i	a2, a10, 68
    5397:	13d8      	l32i.n	a13, a3, 4
    5399:	0e0c      	movi.n	a14, 0
    539b:	4e4ae2        	s8i	a14, a10, 78
    539e:	4f4ae2        	s8i	a14, a10, 79
    53a1:	e4d1d0        	extui	a13, a13, 1, 15
    53a4:	2b5ad2        	s16i	a13, a10, 86
    53a7:	c92582        	l32i	a8, a5, 0x324
    53aa:	76b5a1        	l32r	a10, 0xfffe2e80
    53ad:	0b0c      	movi.n	a11, 0
    53af:	9e54b2        	s16i	a11, a4, 0x13c
    53b2:	9f54b2        	s16i	a11, a4, 0x13e
    53b5:	a3aa      	add.n	a10, a3, a10
    53b7:	a6aa      	add.n	a10, a6, a10
    53b9:	07bd      	mov.n	a11, a7
    53bb:	0008e0        	excw
    53be:	f01d      	excw
    53c0:	c6ea      	add.n	a12, a6, a14
    53c2:	6a0cc2        	l8ui	a12, a12, 106
    53c5:	152c66        	bnei	a12, 2, 0x53de
    53c8:	02ad      	mov.n	a10, a2
    53ca:	672582        	l32i	a8, a5, 0x19c
    53cd:	0b0c      	movi.n	a11, 0
    53cf:	0008e0        	excw
    53d2:	02bd      	mov.n	a11, a2
    53d4:	662582        	l32i	a8, a5, 0x198
    53d7:	1a0c      	movi.n	a10, 1
    53d9:	0008e0        	excw
    53dc:	0d0c      	movi.n	a13, 0
    53de:	9f54d2        	s16i	a13, a4, 0x13e
    53e1:	f01d      	excw
    53e3:	0dcd      	mov.n	a12, a13
    53e5:	ffa906        	j	0x528d
    53e8:	f01d      	excw
    53ea:	360000        	excw
    53ed:	8c0061        	l32r	a6, 0xfffe83f0
    53f0:	79a162        	movi	a6, 0x179
    53f3:	0b0c76        	excw
    53f6:	b41ae5        	excw
    53f9:	760e81        	l32r	a8, 0xfffe2c34
    53fc:	a04220        	addx4	a4, a2, a2
    53ff:	b04480        	addx8	a4, a4, a8
    5402:	681482        	l16ui	a8, a4, 208
    5405:	07e867        	bbsi	a8, 6, 0x5410
    5408:	7679a1        	l32r	a10, 0xfffe2dec
    540b:	0b0c      	movi.n	a11, 0
    540d:	b41965        	excw
    5410:	76b4f1        	l32r	a15, 0xfffe2ee0
    5413:	767c91        	l32r	a9, 0xfffe2e04
    5416:	db0472        	l8ui	a7, a4, 219
    5419:	484c      	movi.n	a8, 68
    541b:	c17780        	mul16u	a7, a7, a8
    541e:	282952        	l32i	a5, a9, 160
    5421:	ffa0e2        	movi	a14, 255
    5424:	557a      	add.n	a5, a5, a7
    5426:	0145e2        	s8i	a14, a5, 1
    5429:	d60482        	l8ui	a8, a4, 214
    542c:	78a1a2        	movi	a10, 0x178
    542f:	c188a0        	mul16u	a8, a8, a10
    5432:	070c      	movi.n	a7, 0
    5434:	ff8a      	add.n	a15, a15, a8
    5436:	804fe2        	s8i	a14, a15, 128
    5439:	1705b2        	l8ui	a11, a5, 23
    543c:	15d8      	l32i.n	a13, a5, 4
    543e:	11d9      	s32i.n	a13, a1, 4
    5440:	23bb00        	excw
    5443:	3dd8      	l32i.n	a13, a13, 12
    5445:	01d9      	s32i.n	a13, a1, 0
    5447:	2e1ba6        	blti	a11, 1, 0x5479
    544a:	073d      	mov.n	a3, a7
    544c:	a06350        	addx4	a6, a3, a5
    544f:	66a8      	l32i.n	a10, a6, 24
    5451:	ca9c      	beqz.n	a10, 0x5471
    5453:	760781        	l32r	a8, 0xfffe2c70
    5456:	8888      	l32i.n	a8, a8, 32
    5458:	0008e0        	excw
    545b:	01c8      	l32i.n	a12, a1, 0
    545d:	b0c3c0        	addx8	a12, a3, a12
    5460:	1cd8      	l32i.n	a13, a12, 4
    5462:	6679      	s32i.n	a7, a6, 24
    5464:	0c79      	s32i.n	a7, a12, 0
    5466:	04d0d0        	extui	a13, a13, 0, 1
    5469:	1cd9      	s32i.n	a13, a12, 4
    546b:	1705b2        	l8ui	a11, a5, 23
    546e:	23bb00        	excw
    5471:	331b      	addi.n	a3, a3, 1
    5473:	743030        	extui	a3, a3, 0, 8
    5476:	d223b7        	blt	a3, a11, 0x544c
    5479:	ffa032        	movi	a3, 255
    547c:	34c5b2        	addi	a11, a5, 52
    547f:	11a8      	l32i.n	a10, a1, 4
    5481:	760f61        	l32r	a6, 0xfffe2cc0
    5484:	4a79      	s32i.n	a7, a10, 16
    5486:	5a79      	s32i.n	a7, a10, 20
    5488:	164572        	s8i	a7, a5, 22
    548b:	154572        	s8i	a7, a5, 21
    548e:	f32682        	l32i	a8, a6, 0x3cc
    5491:	8aa8      	l32i.n	a10, a10, 32
    5493:	0008e0        	excw
    5496:	681492        	l16ui	a9, a4, 208
    5499:	26e987        	bbsi	a9, 8, 0x54c3
    549c:	086937        	bbci	a9, 3, 0x54a8
    549f:	c12682        	l32i	a8, a6, 0x304
    54a2:	ed04a2        	l8ui	a10, a4, 237
    54a5:	0008e0        	excw
    54a8:	764781        	l32r	a8, 0xfffe2dc4
    54ab:	1a0c      	movi.n	a10, 1
    54ad:	2888      	l32i.n	a8, a8, 8
    54af:	ffa0b2        	movi	a11, 255
    54b2:	0008e0        	excw
    54b5:	768f81        	l32r	a8, 0xfffe2ef4
    54b8:	02ad      	mov.n	a10, a2
    54ba:	302882        	l32i	a8, a8, 192
    54bd:	d604b2        	l8ui	a11, a4, 214
    54c0:	0008e0        	excw
    54c3:	766b81        	l32r	a8, 0xfffe2e70
    54c6:	c888      	l32i.n	a8, a8, 48
    54c8:	d604a2        	l8ui	a10, a4, 214
    54cb:	0008e0        	excw
    54ce:	ed4432        	s8i	a3, a4, 237
    54d1:	da4432        	s8i	a3, a4, 218
    54d4:	d94432        	s8i	a3, a4, 217
    54d7:	d64432        	s8i	a3, a4, 214
    54da:	e24472        	s8i	a7, a4, 226
    54dd:	e14472        	s8i	a7, a4, 225
    54e0:	795472        	s16i	a7, a4, 242
    54e3:	785472        	s16i	a7, a4, 240
    54e6:	ee4472        	s8i	a7, a4, 238
    54e9:	6a5472        	s16i	a7, a4, 212
    54ec:	695472        	s16i	a7, a4, 210
    54ef:	d84472        	s8i	a7, a4, 216
    54f2:	d74472        	s8i	a7, a4, 215
    54f5:	685472        	s16i	a7, a4, 208
    54f8:	767c51        	l32r	a5, 0xfffe2ee8
    54fb:	64a0a2        	movi	a10, 100
    54fe:	f97c      	movi.n	a9, -1
    5500:	376492        	s32i	a9, a4, 220
    5503:	e044a2        	s8i	a10, a4, 224
    5506:	1e25a2        	l32i	a10, a5, 120
    5509:	020c      	movi.n	a2, 0
    550b:	6abc      	beqz.n	a10, 0x5545
    550d:	76ce31        	l32r	a3, 0xfffe3048
    5510:	762741        	l32r	a4, 0xfffe2dac
    5513:	78a192        	movi	a9, 0x178
    5516:	c19290        	mul16u	a9, a2, a9
    5519:	939a      	add.n	a9, a3, a9
    551b:	800992        	l8ui	a9, a9, 128
    551e:	055926        	beqi	a9, 5, 0x5527
    5521:	023926        	beqi	a9, 3, 0x5527
    5524:	124966        	bnei	a9, 4, 0x553a
    5527:	922482        	l32i	a8, a4, 0x248
    552a:	02ad      	mov.n	a10, a2
    552c:	0008e0        	excw
    552f:	2e2682        	l32i	a8, a6, 184
    5532:	02ad      	mov.n	a10, a2
    5534:	0008e0        	excw
    5537:	1e25a2        	l32i	a10, a5, 120
    553a:	78a192        	movi	a9, 0x178
    553d:	221b      	addi.n	a2, a2, 1
    553f:	742020        	extui	a2, a2, 0, 8
    5542:	d032a7        	bltu	a2, a10, 0x5516
    5545:	932682        	l32i	a8, a6, 0x24c
    5548:	0008e0        	excw
    554b:	f01d      	excw
    554d:	000000        	ill
    5550:	004136        	excw
    5553:	628c      	beqz.n	a2, 0x555d
    5555:	7679a1        	l32r	a10, 0xfffe2f3c
    5558:	0b0c      	movi.n	a11, 0
    555a:	b404a5        	excw
    555d:	03dd      	mov.n	a13, a3
    555f:	fe7c      	movi.n	a14, -1
    5561:	a04220        	addx4	a4, a2, a2
    5564:	760f51        	l32r	a5, 0xfffe2da0
    5567:	760e21        	l32r	a2, 0xfffe2da0
    556a:	112582        	l32i	a8, a5, 68
    556d:	b04420        	addx8	a4, a4, a2
    5570:	d804b2        	l8ui	a11, a4, 216
    5573:	d704c2        	l8ui	a12, a4, 215
    5576:	d604a2        	l8ui	a10, a4, 214
    5579:	0008e0        	excw
    557c:	0a3d      	mov.n	a3, a10
    557e:	d604a2        	l8ui	a10, a4, 214
    5581:	fde2e5        	excw
    5584:	761dc1        	l32r	a12, 0xfffe2df8
    5587:	b3aa      	add.n	a11, a3, a10
    5589:	768f81        	l32r	a8, 0xfffe2fc8
    558c:	1a0c      	movi.n	a10, 1
    558e:	112882        	l32i	a8, a8, 68
    5591:	10bbc0        	and	a11, a11, a12
    5594:	3364b2        	s32i	a11, a4, 204
    5597:	c80292        	l8ui	a9, a2, 200
    559a:	0c0c      	movi.n	a12, 0
    559c:	2099a0        	or	a9, a9, a10
    559f:	76bea1        	l32r	a10, 0xfffe3098
    55a2:	ab0c      	movi.n	a11, 10
    55a4:	484a92        	s8i	a9, a10, 72
    55a7:	9a0c      	movi.n	a10, 9
    55a9:	0008e0        	excw
    55ac:	767c71        	l32r	a7, 0xfffe2f9c
    55af:	020c      	movi.n	a2, 0
    55b1:	1e27a2        	l32i	a10, a7, 120
    55b4:	762761        	l32r	a6, 0xfffe2e50
    55b7:	3abc      	beqz.n	a10, 0x55ee
    55b9:	76ce31        	l32r	a3, 0xfffe30f4
    55bc:	78a192        	movi	a9, 0x178
    55bf:	c19290        	mul16u	a9, a2, a9
    55c2:	939a      	add.n	a9, a3, a9
    55c4:	800992        	l8ui	a9, a9, 128
    55c7:	055926        	beqi	a9, 5, 0x55d0
    55ca:	023926        	beqi	a9, 3, 0x55d0
    55cd:	124966        	bnei	a9, 4, 0x55e3
    55d0:	922682        	l32i	a8, a6, 0x248
    55d3:	02ad      	mov.n	a10, a2
    55d5:	0008e0        	excw
    55d8:	2e2582        	l32i	a8, a5, 184
    55db:	02ad      	mov.n	a10, a2
    55dd:	0008e0        	excw
    55e0:	1e27a2        	l32i	a10, a7, 120
    55e3:	78a192        	movi	a9, 0x178
    55e6:	221b      	addi.n	a2, a2, 1
    55e8:	742020        	extui	a2, a2, 0, 8
    55eb:	d032a7        	bltu	a2, a10, 0x55bf
    55ee:	766b81        	l32r	a8, 0xfffe2f9c
    55f1:	d604a2        	l8ui	a10, a4, 214
    55f4:	b888      	l32i.n	a8, a8, 44
    55f6:	5b0c      	movi.n	a11, 5
    55f8:	0008e0        	excw
    55fb:	922582        	l32i	a8, a5, 0x248
    55fe:	0008e0        	excw
    5601:	f01d      	excw
    5603:	413600        	srli	a3, a0, 6
    5606:	a2c200        	excw
    5609:	a18270        	excw
    560c:	bc5154        	excw
    560f:	a13276        	excw
    5612:	42ea      	add.n	a4, a2, a14
    5614:	a24105        	call0	0xfffa7a28
    5617:	982d05        	call0	0xfff9d8e8
    561a:	caa2d5        	excw
    561d:	a0fd      	excw
    561f:	8338      	l32i.n	a3, a3, 32
    5621:	398c      	beqz.n	a9, 0x5628
    5623:	0219b2        	l16ui	a11, a9, 4
    5626:	3b3a      	add.n	a3, a11, a3
    5628:	07bc37        	bgeu	a12, a3, 0x5633
    562b:	7679a1        	l32r	a10, 0xfffe3010
    562e:	0b0c      	movi.n	a11, 0
    5630:	b3f725        	excw
    5633:	0b0c      	movi.n	a11, 0
    5635:	0a0c      	movi.n	a10, 0
    5637:	4205e2        	l8ui	a14, a5, 66
    563a:	3d0c      	movi.n	a13, 3
    563c:	934ee0        	movnez	a4, a14, a14
    563f:	744040        	extui	a4, a4, 0, 8
    5642:	0bad76        	excw
    5645:	0154b7        	bbc	a4, a11, 0x564a
    5648:	a3aa      	add.n	a10, a3, a10
    564a:	f3aa      	add.n	a15, a3, a10
    564c:	0132f7        	bltu	a2, a15, 0x5651
    564f:	bb1b      	addi.n	a11, a11, 1
    5651:	0a2d      	mov.n	a2, a10
    5653:	f01d      	excw
    5655:	000000        	ill
    5658:	004136        	excw
    565b:	0db327        	bgeu	a3, a2, 0x566c
    565e:	170c      	movi.n	a7, 1
    5660:	04b347        	bgeu	a3, a4, 0x5668
    5663:	01b427        	bgeu	a4, a2, 0x5668
    5666:	070c      	movi.n	a7, 0
    5668:	072d      	mov.n	a2, a7
    566a:	f01d      	excw
    566c:	070c      	movi.n	a7, 0
    566e:	043427        	bltu	a4, a2, 0x5676
    5671:	013347        	bltu	a3, a4, 0x5676
    5674:	170c      	movi.n	a7, 1
    5676:	072d      	mov.n	a2, a7
    5678:	f01d      	excw
    567a:	360000        	excw
    567d:	8200a1        	l32r	a10, 0xfffe5e80
    5680:	9db8a1        	l32r	a10, 0xfffecd60
    5683:	0e7103        	excw
    5686:	993176        	excw
    5689:	819976        	excw
    568c:	ba0362        	l8ui	a6, a3, 186
    568f:	9a0352        	l8ui	a5, a3, 154
    5692:	661b      	addi.n	a6, a6, 1
    5694:	b05570        	addx8	a5, a5, a7
    5697:	558a      	add.n	a5, a5, a8
    5699:	1166f0        	slli	a6, a6, 1
    569c:	0724f6        	bgeui	a4, 2, 0x56a7
    569f:	7679a1        	l32r	a10, 0xfffe3084
    56a2:	0b0c      	movi.n	a11, 0
    56a4:	b3efe5        	excw
    56a7:	253647        	bltu	a6, a4, 0x56d0
    56aa:	81a8      	l32i.n	a10, a1, 32
    56ac:	e2a4b2        	movi	a11, 0x4e2
    56af:	045f65        	excw
    56b2:	f4a0a0        	extui	a10, a10, 0, 16
    56b5:	e2a4b2        	movi	a11, 0x4e2
    56b8:	0459a5        	excw
    56bb:	f480a0        	extui	a8, a10, 0, 16
    56be:	908840        	addx2	a8, a8, a4
    56c1:	07b867        	bgeu	a8, a6, 0x56cc
    56c4:	7679a1        	l32r	a10, 0xfffe30a8
    56c7:	0b0c      	movi.n	a11, 0
    56c9:	b3eda5        	excw
    56cc:	020c      	movi.n	a2, 0
    56ce:	f01d      	excw
    56d0:	c90392        	l8ui	a9, a3, 201
    56d3:	c04460        	sub	a4, a4, a6
    56d6:	89cc      	bnez.n	a9, 0x56e2
    56d8:	0105a2        	l8ui	a10, a5, 1
    56db:	3a8c      	beqz.n	a10, 0x56e2
    56dd:	fec422        	addi	a2, a4, -2
    56e0:	f01d      	excw
    56e2:	2027b2        	l32i	a11, a7, 128
    56e5:	010592        	l8ui	a9, a5, 1
    56e8:	09eb27        	bbsi	a11, 2, 0x56f5
    56eb:	025926        	beqi	a9, 5, 0x56f1
    56ee:	033966        	bnei	a9, 3, 0x56f5
    56f1:	042d      	mov.n	a2, a4
    56f3:	f01d      	excw
    56f5:	01ad      	mov.n	a10, a1
    56f7:	768f61        	l32r	a6, 0xfffe3134
    56fa:	b14b      	addi.n	a11, a1, 4
    56fc:	1c2682        	l32i	a8, a6, 112
    56ff:	c18b      	addi.n	a12, a1, 8
    5701:	0008e0        	excw
    5704:	767be1        	l32r	a14, 0xfffe30f0
    5707:	e2a4b2        	movi	a11, 0x4e2
    570a:	76cfd1        	l32r	a13, 0xfffe3248
    570d:	0105c2        	l8ui	a12, a5, 1
    5710:	d90c      	movi.n	a9, 13
    5712:	2f9c97        	bne	a12, a9, 0x5745
    5715:	e1a4a2        	movi	a10, 0x4e1
    5718:	3f1752        	l16ui	a5, a7, 126
    571b:	9c1d82        	l16ui	a8, a13, 0x138
    571e:	78a162        	movi	a6, 0x178
    5721:	c16260        	mul16u	a6, a2, a6
    5724:	71a222        	movi	a2, 0x271
    5727:	6e6a      	add.n	a6, a14, a6
    5729:	800662        	l8ui	a6, a6, 128
    572c:	822420        	mull	a2, a4, a2
    572f:	906670        	addx2	a6, a6, a7
    5732:	0c1662        	l16ui	a6, a6, 24
    5735:	738850        	excw
    5738:	668a      	add.n	a6, a6, a8
    573a:	02ba67        	bgeu	a10, a6, 0x5740
    573d:	006b46        	j	0x58ee
    5740:	22ba      	add.n	a2, a2, a11
    5742:	006b46        	j	0x58f3
    5745:	7ea462        	movi	a6, 0x47e
    5748:	556c66        	bnei	a12, 6, 0x57a1
    574b:	76d081        	l32r	a8, 0xfffe328c
    574e:	76cca1        	l32r	a10, 0xfffe3280
    5751:	78a1f2        	movi	a15, 0x178
    5754:	c1f2f0        	mul16u	a15, a2, a15
    5757:	400a52        	l8ui	a5, a10, 64
    575a:	3f0ac2        	l8ui	a12, a10, 63
    575d:	fefa      	add.n	a15, a14, a15
    575f:	800ff2        	l8ui	a15, a15, 128
    5762:	410aa2        	l8ui	a10, a10, 65
    5765:	cc5a      	add.n	a12, a12, a5
    5767:	3f1752        	l16ui	a5, a7, 126
    576a:	aaca      	add.n	a10, a10, a12
    576c:	90ff70        	addx2	a15, a15, a7
    576f:	9c1dc2        	l16ui	a12, a13, 0x138
    5772:	0c1ff2        	l16ui	a15, a15, 24
    5775:	73cc50        	excw
    5778:	b0aaf0        	addx8	a10, a10, a15
    577b:	aaca      	add.n	a10, a10, a12
    577d:	02b8a7        	bgeu	a8, a10, 0x5783
    5780:	ffd646        	j	0x56dd
    5783:	045225        	excw
    5786:	0a2d      	mov.n	a2, a10
    5788:	e2a4b2        	movi	a11, 0x4e2
    578b:	81a8      	l32i.n	a10, a1, 32
    578d:	045165        	excw
    5790:	f480a0        	extui	a8, a10, 0, 16
    5793:	858a      	add.n	a8, a5, a8
    5795:	c08680        	sub	a8, a6, a8
    5798:	02b287        	bgeu	a2, a8, 0x579e
    579b:	ffd486        	j	0x56f1
    579e:	ffcec6        	j	0x56dd
    57a1:	81a8      	l32i.n	a10, a1, 32
    57a3:	c80362        	l8ui	a6, a3, 200
    57a6:	41c9      	s32i.n	a12, a1, 16
    57a8:	1166f0        	slli	a6, a6, 1
    57ab:	044fa5        	excw
    57ae:	7ea482        	movi	a8, 0x47e
    57b1:	21c8      	l32i.n	a12, a1, 8
    57b3:	f4d0a0        	extui	a13, a10, 0, 16
    57b6:	71d9      	s32i.n	a13, a1, 28
    57b8:	ccda      	add.n	a12, a12, a13
    57ba:	c6ca      	add.n	a12, a6, a12
    57bc:	1168      	l32i.n	a6, a1, 4
    57be:	c088c0        	sub	a8, a8, a12
    57c1:	02b867        	bgeu	a8, a6, 0x57c7
    57c4:	ffc546        	j	0x56dd
    57c7:	e2a4b2        	movi	a11, 0x4e2
    57ca:	ac6a      	add.n	a10, a12, a6
    57cc:	64caa2        	addi	a10, a10, 100
    57cf:	044d65        	excw
    57d2:	41c8      	l32i.n	a12, a1, 16
    57d4:	ca03b2        	l8ui	a11, a3, 202
    57d7:	61a9      	s32i.n	a10, a1, 24
    57d9:	089bc7        	bne	a11, a12, 0x57e5
    57dc:	cb03e2        	l8ui	a14, a3, 203
    57df:	0305d2        	l8ui	a13, a5, 3
    57e2:	171de7        	beq	a13, a14, 0x57fd
    57e5:	0a0c      	movi.n	a10, 0
    57e7:	768f81        	l32r	a8, 0xfffe3224
    57ea:	b1cb      	addi.n	a11, a1, 12
    57ec:	1c2882        	l32i	a8, a8, 112
    57ef:	c18b      	addi.n	a12, a1, 8
    57f1:	0008e0        	excw
    57f4:	3188      	l32i.n	a8, a1, 12
    57f6:	1168      	l32i.n	a6, a1, 4
    57f8:	636680        	excw
    57fb:	1169      	s32i.n	a6, a1, 4
    57fd:	767bc1        	l32r	a12, 0xfffe31ec
    5800:	78a1d2        	movi	a13, 0x178
    5803:	c1d2d0        	mul16u	a13, a2, a13
    5806:	e2a4b2        	movi	a11, 0x4e2
    5809:	ccda      	add.n	a12, a12, a13
    580b:	800cc2        	l8ui	a12, a12, 128
    580e:	01a8      	l32i.n	a10, a1, 0
    5810:	90cc70        	addx2	a12, a12, a7
    5813:	0c1cc2        	l16ui	a12, a12, 24
    5816:	51c9      	s32i.n	a12, a1, 20
    5818:	c0aac0        	sub	a10, a10, a12
    581b:	e2a4c2        	movi	a12, 0x4e2
    581e:	aaca      	add.n	a10, a10, a12
    5820:	044825        	excw
    5823:	0a2d      	mov.n	a2, a10
    5825:	eadc      	bnez.n	a10, 0x5847
    5827:	e2a4e2        	movi	a14, 0x4e2
    582a:	3f1782        	l16ui	a8, a7, 126
    582d:	71a8      	l32i.n	a10, a1, 28
    582f:	76cf91        	l32r	a9, 0xfffe336c
    5832:	51f8      	l32i.n	a15, a1, 20
    5834:	9c1992        	l16ui	a9, a9, 0x138
    5837:	ffaa      	add.n	a15, a15, a10
    5839:	738890        	excw
    583c:	ff8a      	add.n	a15, a15, a8
    583e:	64cff2        	addi	a15, a15, 100
    5841:	02bef7        	bgeu	a14, a15, 0x5847
    5844:	ffa546        	j	0x56dd
    5847:	06ad      	mov.n	a10, a6
    5849:	61b8      	l32i.n	a11, a1, 24
    584b:	02cd      	mov.n	a12, a2
    584d:	ffe0a5        	excw
    5850:	e9da16        	beqz	a10, 0x56f1
    5853:	0724f6        	bgeui	a4, 2, 0x585e
    5856:	7679a1        	l32r	a10, 0xfffe323c
    5859:	0b0c      	movi.n	a11, 0
    585b:	b3d4a5        	excw
    585e:	c403a2        	l8ui	a10, a3, 196
    5861:	04a0a0        	extui	a10, a10, 0, 1
    5864:	e75a16        	beqz	a10, 0x56dd
    5867:	768eb1        	l32r	a11, 0xfffe32a0
    586a:	4f0bc2        	l8ui	a12, a11, 79
    586d:	e6cc16        	beqz	a12, 0x56dd
    5870:	030592        	l8ui	a9, a5, 3
    5873:	78a1e2        	movi	a14, 0x178
    5876:	c1e9e0        	mul16u	a14, a9, a14
    5879:	1bcbd2        	addi	a13, a11, 27
    587c:	ddea      	add.n	a13, a13, a14
    587e:	800dd2        	l8ui	a13, a13, 128
    5881:	e58d56        	bnez	a13, 0x56dd
    5884:	fec4f2        	addi	a15, a4, -2
    5887:	e52f56        	bnez	a15, 0x56dd
    588a:	cb0382        	l8ui	a8, a3, 203
    588d:	c08890        	sub	a8, a8, a9
    5890:	e49856        	bnez	a8, 0x56dd
    5893:	010592        	l8ui	a9, a5, 1
    5896:	990b      	addi.n	a9, a9, -1
    5898:	e41956        	bnez	a9, 0x56dd
    589b:	ca03a2        	l8ui	a10, a3, 202
    589e:	aa0b      	addi.n	a10, a10, -1
    58a0:	e39a56        	bnez	a10, 0x56dd
    58a3:	7ea4a2        	movi	a10, 0x47e
    58a6:	3f17b2        	l16ui	a11, a7, 126
    58a9:	71c8      	l32i.n	a12, a1, 28
    58ab:	c80382        	l8ui	a8, a3, 200
    58ae:	c65c      	movi.n	a6, 92
    58b0:	c06680        	sub	a6, a6, a8
    58b3:	90c8c0        	addx2	a12, a8, a12
    58b6:	bbca      	add.n	a11, a11, a12
    58b8:	1169      	s32i.n	a6, a1, 4
    58ba:	c0aab0        	sub	a10, a10, a11
    58bd:	11a5b2        	movi	a11, 0x511
    58c0:	c0a6a0        	sub	a10, a6, a10
    58c3:	aaba      	add.n	a10, a10, a11
    58c5:	e2a4b2        	movi	a11, 0x4e2
    58c8:	043da5        	excw
    58cb:	0abd      	mov.n	a11, a10
    58cd:	02cd      	mov.n	a12, a2
    58cf:	06ad      	mov.n	a10, a6
    58d1:	ffd865        	excw
    58d4:	043a56        	bnez	a10, 0x591b
    58d7:	767df1        	l32r	a15, 0xfffe32cc
    58da:	9f17d2        	l16ui	a13, a7, 0x13e
    58dd:	1e0c      	movi.n	a14, 1
    58df:	dd1b      	addi.n	a13, a13, 1
    58e1:	464fe2        	s8i	a14, a15, 70
    58e4:	ffdfe2        	addmi	a14, a15, 0xffffff00
    58e7:	1f5ed2        	s16i	a13, a14, 62
    58ea:	220c      	movi.n	a2, 2
    58ec:	f01d      	excw
    58ee:	1eab82        	movi	a8, 0xfffffb1e
    58f1:	668a      	add.n	a6, a6, a8
    58f3:	81a8      	l32i.n	a10, a1, 32
    58f5:	e2a4b2        	movi	a11, 0x4e2
    58f8:	043aa5        	excw
    58fb:	f480a0        	extui	a8, a10, 0, 16
    58fe:	858a      	add.n	a8, a5, a8
    5900:	228a      	add.n	a2, a2, a8
    5902:	82ab82        	movi	a8, 0xfffffb82
    5905:	c02260        	sub	a2, a2, a6
    5908:	228a      	add.n	a2, a2, a8
    590a:	02ad      	mov.n	a10, a2
    590c:	ffcf65        	excw
    590f:	02b2a7        	bgeu	a2, a10, 0x5915
    5912:	ff71c6        	j	0x56dd
    5915:	dd8a56        	bnez	a10, 0x56f1
    5918:	ff7046        	j	0x56dd
    591b:	76d1a1        	l32r	a10, 0xfffe3460
    591e:	0305b2        	l8ui	a11, a5, 3
    5921:	78a1c2        	movi	a12, 0x178
    5924:	c1bbc0        	mul16u	a11, a11, a12
    5927:	c20792        	l8ui	a9, a7, 194
    592a:	aaba      	add.n	a10, a10, a11
    592c:	800aa2        	l8ui	a10, a10, 128
    592f:	0239a7        	bltu	a9, a10, 0x5935
    5932:	ff69c6        	j	0x56dd
    5935:	9f17d2        	l16ui	a13, a7, 0x13e
    5938:	76cfe1        	l32r	a14, 0xfffe3474
    593b:	dd1b      	addi.n	a13, a13, 1
    593d:	1f5ed2        	s16i	a13, a14, 62
    5940:	ffe986        	j	0x58ea
    5943:	413600        	srli	a3, a0, 6
    5946:	02ad00        	excw
    5949:	03bd      	mov.n	a11, a3
    594b:	090c      	movi.n	a9, 0
    594d:	762ec1        	l32r	a12, 0xfffe3208
    5950:	0020c0        	memw
    5953:	76d281        	l32r	a8, 0xfffe349c
    5956:	c56c92        	s32i	a9, a12, 0x314
    5959:	000882        	l8ui	a8, a8, 0
    595c:	2e1866        	bnei	a8, 1, 0x598e
    595f:	76d3e1        	l32r	a14, 0xfffe34ac
    5962:	76d4d1        	l32r	a13, 0xfffe34b4
    5965:	000ee2        	l8ui	a14, a14, 0
    5968:	04a4f2        	movi	a15, 0x404
    596b:	c1eef0        	mul16u	a14, a14, a15
    596e:	767a81        	l32r	a8, 0xfffe3358
    5971:	ddea      	add.n	a13, a13, a14
    5973:	f52dd2        	l32i	a13, a13, 0x3d4
    5976:	100882        	l8ui	a8, a8, 16
    5979:	6dcc      	bnez.n	a13, 0x5983
    597b:	76d5f1        	l32r	a15, 0xfffe34d0
    597e:	000ff2        	l8ui	a15, a15, 0
    5981:	9f8c      	beqz.n	a15, 0x598e
    5983:	78cc      	bnez.n	a8, 0x598e
    5985:	00a292        	movi	a9, 0x200
    5988:	0020c0        	memw
    598b:	c56c92        	s32i	a9, a12, 0x314
    598e:	767f81        	l32r	a8, 0xfffe338c
    5991:	b888      	l32i.n	a8, a8, 44
    5993:	0008e0        	excw
    5996:	0a2d      	mov.n	a2, a10
    5998:	f01d      	excw
    599a:	360000        	excw
    599d:	0c0041        	l32r	a4, 0xfffc89a0
    59a0:	81db      	addi.n	a8, a1, 13
    59a2:	0e          	.byte 0xe
    59a3:	d64176        	excw
    59a6:	a16276        	excw
    59a9:	6078      	l32i.n	a7, a0, 24
    59ab:	0cc162        	addi	a6, a1, 12
    59ae:	446a05        	call0	0x4a050
    59b1:	760f61        	l32r	a6, 0xfffe31f0
    59b4:	4d4852        	s8i	a5, a8, 77
    59b7:	832682        	l32i	a8, a6, 0x20c
    59ba:	9304a2        	l8ui	a10, a4, 147
    59bd:	0008e0        	excw
    59c0:	767a81        	l32r	a8, 0xfffe33a8
    59c3:	100882        	l8ui	a8, a8, 16
    59c6:	06d856        	bnez	a8, 0x5a37
    59c9:	768f81        	l32r	a8, 0xfffe3408
    59cc:	8888      	l32i.n	a8, a8, 32
    59ce:	0008e0        	excw
    59d1:	767ca1        	l32r	a10, 0xfffe33c4
    59d4:	76d2b1        	l32r	a11, 0xfffe351c
    59d7:	292aa2        	l32i	a10, a10, 164
    59da:	491c      	movi.n	a9, 20
    59dc:	5709a7        	bnone	a9, a10, 0x5a37
    59df:	000bb2        	l8ui	a11, a11, 0
    59e2:	76d3d1        	l32r	a13, 0xfffe3530
    59e5:	4e1b66        	bnei	a11, 1, 0x5a37
    59e8:	76d4c1        	l32r	a12, 0xfffe3538
    59eb:	000dd2        	l8ui	a13, a13, 0
    59ee:	04a4e2        	movi	a14, 0x404
    59f1:	c1dde0        	mul16u	a13, a13, a14
    59f4:	76d5e1        	l32r	a14, 0xfffe3548
    59f7:	ccda      	add.n	a12, a12, a13
    59f9:	f52cc2        	l32i	a12, a12, 0x3d4
    59fc:	000ee2        	l8ui	a14, a14, 0
    59ff:	0ccc      	bnez.n	a12, 0x5a03
    5a01:	2ebc      	beqz.n	a14, 0x5a37
    5a03:	222682        	l32i	a8, a6, 136
    5a06:	6d04a2        	l8ui	a10, a4, 109
    5a09:	0008e0        	excw
    5a0c:	762781        	l32r	a8, 0xfffe32a8
    5a0f:	6d4452        	s8i	a5, a4, 109
    5a12:	fd2882        	l32i	a8, a8, 0x3f4
    5a15:	76d7a1        	l32r	a10, 0xfffe3574
    5a18:	0008e0        	excw
    5a1b:	3a0c      	movi.n	a10, 3
    5a1d:	20a2b2        	movi	a11, 0x220
    5a20:	767381        	l32r	a8, 0xfffe33ec
    5a23:	0c0c      	movi.n	a12, 0
    5a25:	7888      	l32i.n	a8, a8, 28
    5a27:	0d0c      	movi.n	a13, 0
    5a29:	0008e0        	excw
    5a2c:	762e91        	l32r	a9, 0xfffe32e4
    5a2f:	0020c0        	memw
    5a32:	c56952        	s32i	a5, a9, 0x314
    5a35:	f01d      	excw
    5a37:	767f81        	l32r	a8, 0xfffe3434
    5a3a:	02ad      	mov.n	a10, a2
    5a3c:	c888      	l32i.n	a8, a8, 48
    5a3e:	03bd      	mov.n	a11, a3
    5a40:	0008e0        	excw
    5a43:	f01d      	excw
    5a45:	000000        	ill
    5a48:	004136        	excw
    5a4b:	768021        	l32r	a2, 0xfffe344c
    5a4e:	02a8      	l32i.n	a10, a2, 0
    5a50:	322a92        	l32i	a9, a10, 200
    5a53:	b9cc      	bnez.n	a9, 0x5a62
    5a55:	7679a1        	l32r	a10, 0xfffe343c
    5a58:	0b0c      	movi.n	a11, 0
    5a5a:	b3b4a5        	excw
    5a5d:	02a8      	l32i.n	a10, a2, 0
    5a5f:	322a92        	l32i	a9, a10, 200
    5a62:	2b1966        	bnei	a9, 1, 0x5a91
    5a65:	76d281        	l32r	a8, 0xfffe35b0
    5a68:	000882        	l8ui	a8, a8, 0
    5a6b:	020c      	movi.n	a2, 0
    5a6d:	221866        	bnei	a8, 1, 0x5a93
    5a70:	382a92        	l32i	a9, a10, 224
    5a73:	76d3b1        	l32r	a11, 0xfffe35c0
    5a76:	19f9f7        	bbsi	a9, 31, 0x5a93
    5a79:	76d4a1        	l32r	a10, 0xfffe35cc
    5a7c:	000bb2        	l8ui	a11, a11, 0
    5a7f:	04a4c2        	movi	a12, 0x404
    5a82:	c1bbc0        	mul16u	a11, a11, a12
    5a85:	aaba      	add.n	a10, a10, a11
    5a87:	f42aa2        	l32i	a10, a10, 0x3d0
    5a8a:	052a66        	bnei	a10, 2, 0x5a93
    5a8d:	120c      	movi.n	a2, 1
    5a8f:	f01d      	excw
    5a91:	020c      	movi.n	a2, 0
    5a93:	f01d      	excw
    5a95:	000000        	ill
    5a98:	004136        	excw
    5a9b:	0c0282        	l8ui	a8, a2, 12
    5a9e:	a88c      	beqz.n	a8, 0x5aac
    5aa0:	767f81        	l32r	a8, 0xfffe349c
    5aa3:	d888      	l32i.n	a8, a8, 52
    5aa5:	02ad      	mov.n	a10, a2
    5aa7:	0008e0        	excw
    5aaa:	f01d      	excw
    5aac:	762721        	l32r	a2, 0xfffe3348
    5aaf:	8e2282        	l32i	a8, a2, 0x238
    5ab2:	0008e0        	excw
    5ab5:	fff925        	excw
    5ab8:	feea16        	beqz	a10, 0x5aaa
    5abb:	0a0c      	movi.n	a10, 0
    5abd:	e12282        	l32i	a8, a2, 0x384
    5ac0:	1b0c      	movi.n	a11, 1
    5ac2:	0008e0        	excw
    5ac5:	762981        	l32r	a8, 0xfffe336c
    5ac8:	f888      	l32i.n	a8, a8, 60
    5aca:	76d8a1        	l32r	a10, 0xfffe362c
    5acd:	0008e0        	excw
    5ad0:	f01d      	excw
    5ad2:	360000        	excw
    5ad5:	610041        	l32r	a4, 0xfffdded8
    5ad8:	76d9      	s32i.n	a13, a6, 28
    5ada:	760771        	l32r	a7, 0xfffe32f8
    5add:	4a4c      	movi.n	a10, 68
    5adf:	76da41        	l32r	a4, 0xfffe3648
    5ae2:	767ce1        	l32r	a14, 0xfffe34d4
    5ae5:	78a152        	movi	a5, 0x178
    5ae8:	c15250        	mul16u	a5, a2, a5
    5aeb:	282ee2        	l32i	a14, a14, 160
    5aee:	454a      	add.n	a4, a5, a4
    5af0:	392482        	l32i	a8, a4, 228
    5af3:	8404f2        	l8ui	a15, a4, 132
    5af6:	770492        	l8ui	a9, a4, 119
    5af9:	c1ffa0        	mul16u	a15, a15, a10
    5afc:	239900        	excw
    5aff:	991b      	addi.n	a9, a9, 1
    5b01:	774492        	s8i	a9, a4, 119
    5b04:	0888      	l32i.n	a8, a8, 0
    5b06:	eefa      	add.n	a14, a14, a15
    5b08:	28ec      	bnez.n	a8, 0x5b2e
    5b0a:	ce8b      	addi.n	a12, a14, 8
    5b0c:	02ad      	mov.n	a10, a2
    5b0e:	03dd      	mov.n	a13, a3
    5b10:	760f81        	l32r	a8, 0xfffe334c
    5b13:	1eb8      	l32i.n	a11, a14, 4
    5b15:	e72882        	l32i	a8, a8, 0x39c
    5b18:	0bb8      	l32i.n	a11, a11, 0
    5b1a:	0008e0        	excw
    5b1d:	9a9c      	beqz.n	a10, 0x5b3a
    5b1f:	03bd      	mov.n	a11, a3
    5b21:	a56a      	add.n	a10, a5, a6
    5b23:	122782        	l32i	a8, a7, 72
    5b26:	aaa8      	l32i.n	a10, a10, 40
    5b28:	0008e0        	excw
    5b2b:	0002c6        	j	0x5b3a
    5b2e:	03bd      	mov.n	a11, a3
    5b30:	a56a      	add.n	a10, a5, a6
    5b32:	122782        	l32i	a8, a7, 72
    5b35:	aaa8      	l32i.n	a10, a10, 40
    5b37:	0008e0        	excw
    5b3a:	7704b2        	l8ui	a11, a4, 119
    5b3d:	8004c2        	l8ui	a12, a4, 128
    5b40:	23bb00        	excw
    5b43:	111b66        	bnei	a11, 1, 0x5b58
    5b46:	0e1c66        	bnei	a12, 1, 0x5b58
    5b49:	1a0c      	movi.n	a10, 1
    5b4b:	768f81        	l32r	a8, 0xfffe3588
    5b4e:	9b1c      	movi.n	a11, 25
    5b50:	112882        	l32i	a8, a8, 68
    5b53:	0c0c      	movi.n	a12, 0
    5b55:	0008e0        	excw
    5b58:	810492        	l8ui	a9, a4, 129
    5b5b:	a56a      	add.n	a10, a5, a6
    5b5d:	39cc      	bnez.n	a9, 0x5b64
    5b5f:	d50aa2        	l8ui	a10, a10, 213
    5b62:	bacc      	bnez.n	a10, 0x5b71
    5b64:	760f81        	l32r	a8, 0xfffe33a0
    5b67:	02ad      	mov.n	a10, a2
    5b69:	6d2882        	l32i	a8, a8, 0x1b4
    5b6c:	4b0c      	movi.n	a11, 4
    5b6e:	0008e0        	excw
    5b71:	f01d      	excw
    5b73:	a13600        	sll	a3, a6
    5b76:	0b0c00        	excw
    5b79:	039d      	mov.n	a9, a3
    5b7b:	78a1a2        	movi	a10, 0x178
    5b7e:	760e31        	l32r	a3, 0xfffe33b8
    5b81:	c1a2a0        	mul16u	a10, a2, a10
    5b84:	09d342        	addmi	a4, a3, 0x900
    5b87:	4d03c2        	l8ui	a12, a3, 77
    5b8a:	4d43b2        	s8i	a11, a3, 77
    5b8d:	4a4a      	add.n	a4, a10, a4
    5b8f:	1904d2        	l8ui	a13, a4, 25
    5b92:	760f71        	l32r	a7, 0xfffe33d0
    5b95:	098d66        	bnei	a13, 8, 0x5ba2
    5b98:	732782        	l32i	a8, a7, 0x1cc
    5b9b:	02ad      	mov.n	a10, a2
    5b9d:	0008e0        	excw
    5ba0:	f01d      	excw
    5ba2:	91c9      	s32i.n	a12, a1, 36
    5ba4:	61a9      	s32i.n	a10, a1, 24
    5ba6:	5199      	s32i.n	a9, a1, 20
    5ba8:	093d26        	beqi	a13, 3, 0x5bb5
    5bab:	7679a1        	l32r	a10, 0xfffe3590
    5bae:	0b0c      	movi.n	a11, 0
    5bb0:	b39f25        	excw
    5bb3:	91c8      	l32i.n	a12, a1, 36
    5bb5:	76a0a1        	l32r	a10, 0xfffe3638
    5bb8:	762e51        	l32r	a5, 0xfffe3470
    5bbb:	0020c0        	memw
    5bbe:	422552        	l32i	a5, a5, 0x108
    5bc1:	0020c0        	memw
    5bc4:	9e2a62        	l32i	a6, a10, 0x278
    5bc7:	0020c0        	memw
    5bca:	1b0492        	l8ui	a9, a4, 27
    5bcd:	0b1c      	movi.n	a11, 16
    5bcf:	345050        	extui	a5, a5, 0, 4
    5bd2:	767cd1        	l32r	a13, 0xfffe35c4
    5bd5:	952ae2        	l32i	a14, a10, 0x254
    5bd8:	292dd2        	l32i	a13, a13, 164
    5bdb:	64e7e0        	extui	a14, a14, 7, 7
    5bde:	21e9      	s32i.n	a14, a1, 8
    5be0:	05d5d0        	extui	a13, a13, 21, 1
    5be3:	935bd0        	movnez	a5, a11, a13
    5be6:	767ad1        	l32r	a13, 0xfffe35d0
    5be9:	041966        	bnei	a9, 1, 0x5bf1
    5bec:	016566        	bnei	a5, 6, 0x5bf1
    5bef:	051c      	movi.n	a5, 16
    5bf1:	060c16        	beqz	a12, 0x5c55
    5bf4:	0020c0        	memw
    5bf7:	ac2ac2        	l32i	a12, a10, 0x2b0
    5bfa:	40a682        	movi	a8, 0x640
    5bfd:	7691b1        	l32r	a11, 0xfffe3644
    5c00:	1398      	l32i.n	a9, a3, 4
    5c02:	4c24e2        	l32i	a14, a4, 0x130
    5c05:	419190        	srli	a9, a9, 1
    5c08:	c099e0        	sub	a9, a9, a14
    5c0b:	1099b0        	and	a9, a9, a11
    5c0e:	1199f0        	slli	a9, a9, 1
    5c11:	04b897        	bgeu	a8, a9, 0x5c19
    5c14:	1b0c      	movi.n	a11, 1
    5c16:	9e54b2        	s16i	a11, a4, 0x13c
    5c19:	e40de2        	l8ui	a14, a13, 228
    5c1c:	81c9      	s32i.n	a12, a1, 32
    5c1e:	23ee00        	excw
    5c21:	0f1ee6        	bgei	a14, 1, 0x5c34
    5c24:	7679a1        	l32r	a10, 0xfffe3608
    5c27:	0b0c      	movi.n	a11, 0
    5c29:	b397a5        	excw
    5c2c:	76a0a1        	l32r	a10, 0xfffe36ac
    5c2f:	767ad1        	l32r	a13, 0xfffe3618
    5c32:	81c8      	l32i.n	a12, a1, 32
    5c34:	13f8      	l32i.n	a15, a3, 4
    5c36:	41f1f0        	srli	a15, a15, 1
    5c39:	181cf7        	beq	a12, a15, 0x5c55
    5c3c:	0020c0        	memw
    5c3f:	a12a82        	l32i	a8, a10, 0x284
    5c42:	0f18c7        	beq	a8, a12, 0x5c55
    5c45:	4c64c2        	s32i	a12, a4, 0x130
    5c48:	051c      	movi.n	a5, 16
    5c4a:	87af92        	movi	a9, -121
    5c4d:	0b0c      	movi.n	a11, 0
    5c4f:	3b44b2        	s8i	a11, a4, 59
    5c52:	106690        	and	a6, a6, a9
    5c55:	76dbe1        	l32r	a14, 0xfffe37c4
    5c58:	380d92        	l8ui	a9, a13, 56
    5c5b:	00a4d2        	movi	a13, 0x400
    5c5e:	07e927        	bbsi	a9, 2, 0x5c69
    5c61:	066917        	bbci	a9, 1, 0x5c6b
    5c64:	3804c2        	l8ui	a12, a4, 56
    5c67:	0ccc      	bnez.n	a12, 0x5c6b
    5c69:	051c      	movi.n	a5, 16
    5c6b:	764bc1        	l32r	a12, 0xfffe3598
    5c6e:	181c      	movi.n	a8, 17
    5c70:	023587        	bltu	a5, a8, 0x5c76
    5c73:	003ec6        	j	0x5d72
    5c76:	76dc81        	l32r	a8, 0xfffe37e8
    5c79:	90b550        	addx2	a11, a5, a5
    5c7c:	bb8a      	add.n	a11, a11, a8
    5c7e:	000ba0        	jx	a11
    5c81:	000bc6        	j	0x5cb4
    5c84:	000b06        	j	0x5cb4
    5c87:	0039c6        	j	0x5d72
    5c8a:	00bb86        	j	0x5f7c
    5c8d:	009446        	j	0x5ee2
    5c90:	0068c6        	j	0x5e37
    5c93:	0054c6        	j	0x5dea
    5c96:	003886        	j	0x5d7c
    5c99:	005346        	j	0x5dea
    5c9c:	005286        	j	0x5dea
    5c9f:	0033c6        	j	0x5d72
    5ca2:	006146        	j	0x5e2b
    5ca5:	003246        	j	0x5d72
    5ca8:	003186        	j	0x5d72
    5cab:	0030c6        	j	0x5d72
    5cae:	004bc6        	j	0x5de1
    5cb1:	002f46        	j	0x5d72
    5cb4:	76b381        	l32r	a8, 0xfffe3780
    5cb7:	382882        	l32i	a8, a8, 224
    5cba:	0008e0        	excw
    5cbd:	0b1a56        	bnez	a10, 0x5d72
    5cc0:	2188      	l32i.n	a8, a1, 8
    5cc2:	76ddf1        	l32r	a15, 0xfffe3838
    5cc5:	1a04a2        	l8ui	a10, a4, 26
    5cc8:	cca0e2        	movi	a14, 204
    5ccb:	c1aae0        	mul16u	a10, a10, a14
    5cce:	b8a562        	movi	a6, 0x5b8
    5cd1:	9afa      	add.n	a9, a10, a15
    5cd3:	a00992        	l8ui	a9, a9, 160
    5cd6:	aa3a      	add.n	a10, a10, a3
    5cd8:	a099a0        	addx4	a9, a9, a10
    5cdb:	996a      	add.n	a9, a9, a6
    5cdd:	604982        	s8i	a8, a9, 96
    5ce0:	1a04d2        	l8ui	a13, a4, 26
    5ce3:	c1dde0        	mul16u	a13, a13, a14
    5ce6:	76de91        	l32r	a9, 0xfffe3860
    5ce9:	cdfa      	add.n	a12, a13, a15
    5ceb:	a00cc2        	l8ui	a12, a12, 160
    5cee:	dd3a      	add.n	a13, a13, a3
    5cf0:	a0ccd0        	addx4	a12, a12, a13
    5cf3:	cc6a      	add.n	a12, a12, a6
    5cf5:	0020c0        	memw
    5cf8:	8029a2        	l32i	a10, a9, 0x200
    5cfb:	04afa0        	extui	a10, a10, 15, 1
    5cfe:	2c0a16        	beqz	a10, 0x5fc2
    5d01:	f0a0b2        	movi	a11, 240
    5d04:	0020c0        	memw
    5d07:	8029a2        	l32i	a10, a9, 0x200
    5d0a:	34aca0        	extui	a10, a10, 12, 4
    5d0d:	20aab0        	or	a10, a10, a11
    5d10:	614ca2        	s8i	a10, a12, 97
    5d13:	1a04e2        	l8ui	a14, a4, 26
    5d16:	cca0b2        	movi	a11, 204
    5d19:	c1eeb0        	mul16u	a14, a14, a11
    5d1c:	76b281        	l32r	a8, 0xfffe37e4
    5d1f:	defa      	add.n	a13, a14, a15
    5d21:	a00dd2        	l8ui	a13, a13, 160
    5d24:	ee3a      	add.n	a14, a14, a3
    5d26:	a0dde0        	addx4	a13, a13, a14
    5d29:	dd6a      	add.n	a13, a13, a6
    5d2b:	0020c0        	memw
    5d2e:	812882        	l32i	a8, a8, 0x204
    5d31:	624d82        	s8i	a8, a13, 98
    5d34:	1a04e2        	l8ui	a14, a4, 26
    5d37:	c1eeb0        	mul16u	a14, a14, a11
    5d3a:	defa      	add.n	a13, a14, a15
    5d3c:	a00dd2        	l8ui	a13, a13, 160
    5d3f:	ee3a      	add.n	a14, a14, a3
    5d41:	a0dde0        	addx4	a13, a13, a14
    5d44:	dd6a      	add.n	a13, a13, a6
    5d46:	0020c0        	memw
    5d49:	852982        	l32i	a8, a9, 0x214
    5d4c:	634d82        	s8i	a8, a13, 99
    5d4f:	1a04e2        	l8ui	a14, a4, 26
    5d52:	c1eeb0        	mul16u	a14, a14, a11
    5d55:	efea      	add.n	a14, a15, a14
    5d57:	a00ed2        	l8ui	a13, a14, 160
    5d5a:	dd1b      	addi.n	a13, a13, 1
    5d5c:	a04ed2        	s8i	a13, a14, 160
    5d5f:	1a0492        	l8ui	a9, a4, 26
    5d62:	c199b0        	mul16u	a9, a9, a11
    5d65:	9f9a      	add.n	a9, a15, a9
    5d67:	a009b2        	l8ui	a11, a9, 160
    5d6a:	04bb66        	bnei	a11, 16, 0x5d72
    5d6d:	0f0c      	movi.n	a15, 0
    5d6f:	a049f2        	s8i	a15, a9, 160
    5d72:	02ad      	mov.n	a10, a2
    5d74:	6d2782        	l32i	a8, a7, 0x1b4
    5d77:	ab0c      	movi.n	a11, 10
    5d79:	0008e0        	excw
    5d7c:	060c      	movi.n	a6, 0
    5d7e:	090c      	movi.n	a9, 0
    5d80:	7199      	s32i.n	a9, a1, 28
    5d82:	3304a2        	l8ui	a10, a4, 51
    5d85:	94e8      	l32i.n	a14, a4, 36
    5d87:	23aa00        	excw
    5d8a:	2adc      	bnez.n	a10, 0x5da0
    5d8c:	9498      	l32i.n	a9, a4, 36
    5d8e:	4e03b2        	l8ui	a11, a3, 78
    5d91:	09ed      	mov.n	a14, a9
    5d93:	9b8c      	beqz.n	a11, 0x5da0
    5d95:	76dfe1        	l32r	a14, 0xfffe3914
    5d98:	10e9e0        	and	a14, a9, a14
    5d9b:	94e9      	s32i.n	a14, a4, 36
    5d9d:	ffffc6        	j	0x5da0
    5da0:	0e6e97        	bbci	a14, 9, 0x5db2
    5da3:	02ad      	mov.n	a10, a2
    5da5:	fd5d25        	excw
    5da8:	6acc      	bnez.n	a10, 0x5db2
    5daa:	b52782        	l32i	a8, a7, 0x2d4
    5dad:	02ad      	mov.n	a10, a2
    5daf:	0008e0        	excw
    5db2:	7198      	l32i.n	a9, a1, 28
    5db4:	f98c      	beqz.n	a9, 0x5dc7
    5db6:	0d6526        	beqi	a5, 6, 0x5dc7
    5db9:	4004a2        	l8ui	a10, a4, 64
    5dbc:	832782        	l32i	a8, a7, 0x20c
    5dbf:	cb1c      	movi.n	a11, 28
    5dc1:	0008e0        	excw
    5dc4:	000286        	j	0x5dd2
    5dc7:	4004a2        	l8ui	a10, a4, 64
    5dca:	832782        	l32i	a8, a7, 0x20c
    5dcd:	0b1c      	movi.n	a11, 16
    5dcf:	0008e0        	excw
    5dd2:	768f81        	l32r	a8, 0xfffe3810
    5dd5:	06bd      	mov.n	a11, a6
    5dd7:	7888      	l32i.n	a8, a8, 28
    5dd9:	74a050        	extui	a10, a5, 0, 8
    5ddc:	0008e0        	excw
    5ddf:	f01d      	excw
    5de1:	61a8      	l32i.n	a10, a1, 24
    5de3:	090c      	movi.n	a9, 0
    5de5:	aaea      	add.n	a10, a10, a14
    5de7:	a14a92        	s8i	a9, a10, 161
    5dea:	34a360        	extui	a10, a6, 3, 4
    5ded:	41a9      	s32i.n	a10, a1, 16
    5def:	fd6525        	excw
    5df2:	31a9      	s32i.n	a10, a1, 12
    5df4:	2213b2        	l16ui	a11, a3, 68
    5df7:	71a9      	s32i.n	a10, a1, 28
    5df9:	9b8c      	beqz.n	a11, 0x5e06
    5dfb:	768f81        	l32r	a8, 0xfffe3838
    5dfe:	6b2882        	l32i	a8, a8, 0x1ac
    5e01:	02ad      	mov.n	a10, a2
    5e03:	0008e0        	excw
    5e06:	3198      	l32i.n	a9, a1, 12
    5e08:	d98c      	beqz.n	a9, 0x5e19
    5e0a:	1a04a2        	l8ui	a10, a4, 26
    5e0d:	80a0b2        	movi	a11, 128
    5e10:	612782        	l32i	a8, a7, 0x184
    5e13:	10b6b0        	and	a11, a6, a11
    5e16:	0008e0        	excw
    5e19:	31d8      	l32i.n	a13, a1, 12
    5e1b:	6d27c2        	l32i	a12, a7, 0x1b4
    5e1e:	05bd16        	beqz	a13, 0x5e7d
    5e21:	02ad      	mov.n	a10, a2
    5e23:	9b0c      	movi.n	a11, 9
    5e25:	000ce0        	excw
    5e28:	001606        	j	0x5e84
    5e2b:	6188      	l32i.n	a8, a1, 24
    5e2d:	88ea      	add.n	a8, a8, a14
    5e2f:	a108f2        	l8ui	a15, a8, 161
    5e32:	ff1b      	addi.n	a15, a15, 1
    5e34:	a148f2        	s8i	a15, a8, 161
    5e37:	5198      	l32i.n	a9, a1, 20
    5e39:	10f9d0        	and	a15, a9, a13
    5e3c:	1589d7        	bany	a9, a13, 0x5e55
    5e3f:	1b04a2        	l8ui	a10, a4, 27
    5e42:	021a66        	bnei	a10, 1, 0x5e48
    5e45:	0ce677        	bbsi	a6, 7, 0x5e55
    5e48:	3304b2        	l8ui	a11, a4, 51
    5e4b:	23bb00        	excw
    5e4e:	dbcc      	bnez.n	a11, 0x5e5f
    5e50:	4e03d2        	l8ui	a13, a3, 78
    5e53:	8d8c      	beqz.n	a13, 0x5e5f
    5e55:	76df81        	l32r	a8, 0xfffe39d4
    5e58:	94e8      	l32i.n	a14, a4, 36
    5e5a:	10ee80        	and	a14, a14, a8
    5e5d:	94e9      	s32i.n	a14, a4, 36
    5e5f:	6fcc      	bnez.n	a15, 0x5e69
    5e61:	320492        	l8ui	a9, a4, 50
    5e64:	239900        	excw
    5e67:	59cc      	bnez.n	a9, 0x5e70
    5e69:	94a8      	l32i.n	a10, a4, 36
    5e6b:	10aac0        	and	a10, a10, a12
    5e6e:	94a9      	s32i.n	a10, a4, 36
    5e70:	02ad      	mov.n	a10, a2
    5e72:	6d2782        	l32i	a8, a7, 0x1b4
    5e75:	eb0c      	movi.n	a11, 14
    5e77:	0008e0        	excw
    5e7a:	ffbf86        	j	0x5d7c
    5e7d:	02ad      	mov.n	a10, a2
    5e7f:	bb0c      	movi.n	a11, 11
    5e81:	000ce0        	excw
    5e84:	00a4e2        	movi	a14, 0x400
    5e87:	51c8      	l32i.n	a12, a1, 20
    5e89:	3104d2        	l8ui	a13, a4, 49
    5e8c:	10cce0        	and	a12, a12, a14
    5e8f:	06dd16        	beqz	a13, 0x5f00
    5e92:	51f8      	l32i.n	a15, a1, 20
    5e94:	680fe7        	bnone	a15, a14, 0x5f00
    5e97:	a1c9      	s32i.n	a12, a1, 40
    5e99:	09e677        	bbsi	a6, 7, 0x5ea6
    5e9c:	7679a1        	l32r	a10, 0xfffe3880
    5e9f:	0b0c      	movi.n	a11, 0
    5ea1:	b37025        	excw
    5ea4:	a1c8      	l32i.n	a12, a1, 40
    5ea6:	94e8      	l32i.n	a14, a4, 36
    5ea8:	066e17        	bbci	a14, 1, 0x5eb2
    5eab:	d87c      	movi.n	a8, -3
    5ead:	10ee80        	and	a14, a14, a8
    5eb0:	94e9      	s32i.n	a14, a4, 36
    5eb2:	1e7e17        	bbci	a14, 17, 0x5ed4
    5eb5:	a1c9      	s32i.n	a12, a1, 40
    5eb7:	177e07        	bbci	a14, 16, 0x5ed2
    5eba:	852782        	l32i	a8, a7, 0x214
    5ebd:	76a691        	l32r	a9, 0xfffe3958
    5ec0:	76e0a1        	l32r	a10, 0xfffe3a40
    5ec3:	209e90        	or	a9, a14, a9
    5ec6:	1099a0        	and	a9, a9, a10
    5ec9:	9499      	s32i.n	a9, a4, 36
    5ecb:	02ad      	mov.n	a10, a2
    5ecd:	0008e0        	excw
    5ed0:	a1c8      	l32i.n	a12, a1, 40
    5ed2:	94e8      	l32i.n	a14, a4, 36
    5ed4:	7640a1        	l32r	a10, 0xfffe37d4
    5ed7:	3104d2        	l8ui	a13, a4, 49
    5eda:	10aea0        	and	a10, a14, a10
    5edd:	94a9      	s32i.n	a10, a4, 36
    5edf:	000746        	j	0x5f00
    5ee2:	02ad      	mov.n	a10, a2
    5ee4:	6d2782        	l32i	a8, a7, 0x1b4
    5ee7:	9b0c      	movi.n	a11, 9
    5ee9:	0008e0        	excw
    5eec:	00a4d2        	movi	a13, 0x400
    5eef:	51c8      	l32i.n	a12, a1, 20
    5ef1:	090c      	movi.n	a9, 0
    5ef3:	34a360        	extui	a10, a6, 3, 4
    5ef6:	41a9      	s32i.n	a10, a1, 16
    5ef8:	7199      	s32i.n	a9, a1, 28
    5efa:	10ccd0        	and	a12, a12, a13
    5efd:	3104d2        	l8ui	a13, a4, 49
    5f00:	1b0492        	l8ui	a9, a4, 27
    5f03:	41e8      	l32i.n	a14, a1, 16
    5f05:	fd1b      	addi.n	a15, a13, 1
    5f07:	3144f2        	s8i	a15, a4, 49
    5f0a:	74e0e0        	extui	a14, a14, 0, 8
    5f0d:	11e9      	s32i.n	a14, a1, 4
    5f0f:	1cdc      	bnez.n	a12, 0x5f24
    5f11:	021966        	bnei	a9, 1, 0x5f17
    5f14:	0ce677        	bbsi	a6, 7, 0x5f24
    5f17:	330482        	l8ui	a8, a4, 51
    5f1a:	238800        	excw
    5f1d:	d8cc      	bnez.n	a8, 0x5f2e
    5f1f:	4e03a2        	l8ui	a10, a3, 78
    5f22:	8a8c      	beqz.n	a10, 0x5f2e
    5f24:	76dfd1        	l32r	a13, 0xfffe3aa0
    5f27:	94b8      	l32i.n	a11, a4, 36
    5f29:	10bbd0        	and	a11, a11, a13
    5f2c:	94b9      	s32i.n	a11, a4, 36
    5f2e:	6ccc      	bnez.n	a12, 0x5f38
    5f30:	3204e2        	l8ui	a14, a4, 50
    5f33:	23ee00        	excw
    5f36:	8ecc      	bnez.n	a14, 0x5f42
    5f38:	764b81        	l32r	a8, 0xfffe3864
    5f3b:	94f8      	l32i.n	a15, a4, 36
    5f3d:	10ff80        	and	a15, a15, a8
    5f40:	94f9      	s32i.n	a15, a4, 36
    5f42:	d9cc      	bnez.n	a9, 0x5f53
    5f44:	0b6677        	bbci	a6, 7, 0x5f53
    5f47:	76dbb1        	l32r	a11, 0xfffe3ab4
    5f4a:	61a8      	l32i.n	a10, a1, 24
    5f4c:	090c      	movi.n	a9, 0
    5f4e:	aaba      	add.n	a10, a10, a11
    5f50:	5f4a92        	s8i	a9, a10, 95
    5f53:	94e8      	l32i.n	a14, a4, 36
    5f55:	1168      	l32i.n	a6, a1, 4
    5f57:	04cce0        	extui	a12, a14, 12, 1
    5f5a:	e24c16        	beqz	a12, 0x5d82
    5f5d:	004122        	s8i	a2, a1, 0
    5f60:	2a0c      	movi.n	a10, 2
    5f62:	0ca2b2        	movi	a11, 0x20c
    5f65:	01cd      	mov.n	a12, a1
    5f67:	1d0c      	movi.n	a13, 1
    5f69:	76e191        	l32r	a9, 0xfffe3af0
    5f6c:	767381        	l32r	a8, 0xfffe3938
    5f6f:	109e90        	and	a9, a14, a9
    5f72:	7888      	l32i.n	a8, a8, 28
    5f74:	9499      	s32i.n	a9, a4, 36
    5f76:	0008e0        	excw
    5f79:	ff8146        	j	0x5d82
    5f7c:	51a8      	l32i.n	a10, a1, 20
    5f7e:	10fad0        	and	a15, a10, a13
    5f81:	15eaa7        	bbsi	a10, 10, 0x5f9a
    5f84:	1b04b2        	l8ui	a11, a4, 27
    5f87:	021b66        	bnei	a11, 1, 0x5f8d
    5f8a:	0ce677        	bbsi	a6, 7, 0x5f9a
    5f8d:	3304d2        	l8ui	a13, a4, 51
    5f90:	23dd00        	excw
    5f93:	ddcc      	bnez.n	a13, 0x5fa4
    5f95:	4e03e2        	l8ui	a14, a3, 78
    5f98:	8e8c      	beqz.n	a14, 0x5fa4
    5f9a:	76df91        	l32r	a9, 0xfffe3b18
    5f9d:	9488      	l32i.n	a8, a4, 36
    5f9f:	108890        	and	a8, a8, a9
    5fa2:	9489      	s32i.n	a8, a4, 36
    5fa4:	6fcc      	bnez.n	a15, 0x5fae
    5fa6:	3204a2        	l8ui	a10, a4, 50
    5fa9:	23aa00        	excw
    5fac:	5acc      	bnez.n	a10, 0x5fb5
    5fae:	94b8      	l32i.n	a11, a4, 36
    5fb0:	10bbc0        	and	a11, a11, a12
    5fb3:	94b9      	s32i.n	a11, a4, 36
    5fb5:	02ad      	mov.n	a10, a2
    5fb7:	6d2782        	l32i	a8, a7, 0x1b4
    5fba:	eb0c      	movi.n	a11, 14
    5fbc:	0008e0        	excw
    5fbf:	ff6e46        	j	0x5d7c
    5fc2:	0020c0        	memw
    5fc5:	8029a2        	l32i	a10, a9, 0x200
    5fc8:	34aca0        	extui	a10, a10, 12, 4
    5fcb:	ff5046        	j	0x5d10
    5fce:	360000        	excw
    5fd1:	410041        	l32r	a4, 0xfffd63d4
    5fd4:	767d      	excw
    5fd6:	f80c      	movi.n	a8, 15
    5fd8:	3b4432        	s8i	a3, a4, 59
    5fdb:	3c4422        	s8i	a2, a4, 60
    5fde:	071287        	beq	a2, a8, 0x5fe9
    5fe1:	048226        	beqi	a2, 8, 0x5fe9
    5fe4:	014226        	beqi	a2, 4, 0x5fe9
    5fe7:	f01d      	excw
    5fe9:	769921        	l32r	a2, 0xfffe3a50
    5fec:	9b02a2        	l8ui	a10, a2, 155
    5fef:	ffa092        	movi	a9, 255
    5ff2:	0d9a97        	bne	a10, a9, 0x6003
    5ff5:	7679a1        	l32r	a10, 0xfffe39dc
    5ff8:	0b0c      	movi.n	a11, 0
    5ffa:	b35aa5        	excw
    5ffd:	9b02a2        	l8ui	a10, a2, 155
    6000:	bb0232        	l8ui	a3, a2, 187
    6003:	1c0c      	movi.n	a12, 1
    6005:	0b0c      	movi.n	a11, 0
    6007:	0223e6        	bgei	a3, 2, 0x600d
    600a:	0203d6        	bgez	a3, 0x602e
    600d:	0293e6        	bgei	a3, 10, 0x6013
    6010:	1123e6        	bgei	a3, 2, 0x6025
    6013:	dd0c      	movi.n	a13, 13
    6015:	022d37        	blt	a13, a3, 0x601b
    6018:	7593e6        	bgei	a3, 10, 0x6091
    601b:	06b3e6        	bgei	a3, 16, 0x6025
    601e:	ee0c      	movi.n	a14, 14
    6020:	0123e7        	blt	a3, a14, 0x6025
    6023:	2b0c      	movi.n	a11, 2
    6025:	3a44b2        	s8i	a11, a4, 58
    6028:	5ea1b2        	movi	a11, 0x15e
    602b:	000086        	j	0x6031
    602e:	3a44b2        	s8i	a11, a4, 58
    6031:	769df1        	l32r	a15, 0xfffe3aa8
    6034:	76e2c1        	l32r	a12, 0xfffe3bbc
    6037:	1c54b2        	s16i	a11, a4, 56
    603a:	b0aac0        	addx8	a10, a10, a12
    603d:	800aa2        	l8ui	a10, a10, 128
    6040:	78a182        	movi	a8, 0x178
    6043:	c18a80        	mul16u	a8, a10, a8
    6046:	767cc1        	l32r	a12, 0xfffe3a38
    6049:	ff8a      	add.n	a15, a15, a8
    604b:	800ff2        	l8ui	a15, a15, 128
    604e:	292cd2        	l32i	a13, a12, 164
    6051:	921f26        	beqi	a15, 1, 0x5fe7
    6054:	71a292        	movi	a9, 0x271
    6057:	31eda7        	bbsi	a13, 10, 0x608c
    605a:	dadcd2        	addmi	a13, a12, 0xffffda00
    605d:	892dd2        	l32i	a13, a13, 0x224
    6060:	35c0d0        	extui	a12, a13, 16, 4
    6063:	0cac      	beqz.n	a12, 0x6087
    6065:	768f81        	l32r	a8, 0xfffe3aa4
    6068:	05b4d0        	extui	a11, a13, 20, 1
    606b:	11bbc0        	slli	a11, a11, 4
    606e:	20bcb0        	or	a11, a12, a11
    6071:	5888      	l32i.n	a8, a8, 20
    6073:	74b0b0        	extui	a11, a11, 0, 8
    6076:	0008e0        	excw
    6079:	ba02c2        	l8ui	a12, a2, 186
    607c:	cfa392        	movi	a9, 0x3cf
    607f:	ccaa      	add.n	a12, a12, a10
    6081:	3a44c2        	s8i	a12, a4, 58
    6084:	000106        	j	0x608c
    6087:	93b930        	movnez	a11, a9, a3
    608a:	0b9d      	mov.n	a9, a11
    608c:	1c5492        	s16i	a9, a4, 56
    608f:	f01d      	excw
    6091:	3a44c2        	s8i	a12, a4, 58
    6094:	5ea1b2        	movi	a11, 0x15e
    6097:	ffe586        	j	0x6031
    609a:	360000        	excw
    609d:	810061        	l32r	a6, 0xfffe64a0
    60a0:	760b      	addi.n	a7, a6, -1
    60a2:	02ad      	mov.n	a10, a2
    60a4:	ef2882        	l32i	a8, a8, 0x3bc
    60a7:	01bd      	mov.n	a11, a1
    60a9:	0008e0        	excw
    60ac:	8a8c      	beqz.n	a10, 0x60b8
    60ae:	0001a2        	l8ui	a10, a1, 0
    60b1:	fcd3e5        	excw
    60b4:	0a2d      	mov.n	a2, a10
    60b6:	f01d      	excw
    60b8:	020c      	movi.n	a2, 0
    60ba:	f01d      	excw
    60bc:	004136        	excw
    60bf:	744020        	extui	a4, a2, 0, 8
    60c2:	ffa022        	movi	a2, 255
    60c5:	471427        	beq	a4, a2, 0x6110
    60c8:	03e620        	rsr.ps	a2
    60cb:	290c      	movi.n	a9, 2
    60cd:	348020        	extui	a8, a2, 0, 4
    60d0:	022987        	blt	a9, a8, 0x60d6
    60d3:	006220        	rsil	a2, 2
    60d6:	04ad      	mov.n	a10, a4
    60d8:	fffc25        	excw
    60db:	76e491        	l32r	a9, 0xfffe3c6c
    60de:	76e3b1        	l32r	a11, 0xfffe3c6c
    60e1:	0acd      	mov.n	a12, a10
    60e3:	760f81        	l32r	a8, 0xfffe3920
    60e6:	78a1a2        	movi	a10, 0x178
    60e9:	2e2882        	l32i	a8, a8, 184
    60ec:	c1a4a0        	mul16u	a10, a4, a10
    60ef:	20b3b0        	or	a11, a3, a11
    60f2:	933bc0        	movnez	a3, a11, a12
    60f5:	99aa      	add.n	a9, a9, a10
    60f7:	7f5932        	s16i	a3, a9, 254
    60fa:	04ad      	mov.n	a10, a4
    60fc:	0008e0        	excw
    60ff:	768f81        	l32r	a8, 0xfffe3b3c
    6102:	102882        	l32i	a8, a8, 64
    6105:	04ad      	mov.n	a10, a4
    6107:	0008e0        	excw
    610a:	13e620        	wsr.ps	a2
    610d:	002010        	rsync
    6110:	f01d      	excw
    6112:	360000        	excw
    6115:	810061        	l32r	a6, 0xfffe6518
    6118:	760b      	addi.n	a7, a6, -1
    611a:	02ad      	mov.n	a10, a2
    611c:	ef2882        	l32i	a8, a8, 0x3bc
    611f:	01bd      	mov.n	a11, a1
    6121:	0008e0        	excw
    6124:	aa9c      	beqz.n	a10, 0x6142
    6126:	fc7c      	movi.n	a12, -1
    6128:	1b0c      	movi.n	a11, 1
    612a:	76e5a1        	l32r	a10, 0xfffe3cc0
    612d:	0001d2        	l8ui	a13, a1, 0
    6130:	001a92        	l16ui	a9, a10, 0
    6133:	401d00        	ssl	a13
    6136:	a1bb00        	sll	a11, a11
    6139:	30bbc0        	xor	a11, a11, a12
    613c:	1099b0        	and	a9, a9, a11
    613f:	005a92        	s16i	a9, a10, 0
    6142:	767f81        	l32r	a8, 0xfffe3b40
    6145:	e888      	l32i.n	a8, a8, 56
    6147:	02ad      	mov.n	a10, a2
    6149:	0008e0        	excw
    614c:	0a2d      	mov.n	a2, a10
    614e:	f01d      	excw
    6150:	008136        	excw
    6153:	2129      	s32i.n	a2, a1, 8
    6155:	1a0c      	movi.n	a10, 1
    6157:	0b0c      	movi.n	a11, 0
    6159:	0c0c      	movi.n	a12, 0
    615b:	1149      	s32i.n	a4, a1, 4
    615d:	0139      	s32i.n	a3, a1, 0
    615f:	762781        	l32r	a8, 0xfffe39fc
    6162:	07dd      	mov.n	a13, a7
    6164:	4159      	s32i.n	a5, a1, 16
    6166:	5179      	s32i.n	a7, a1, 20
    6168:	075d      	mov.n	a5, a7
    616a:	76cc71        	l32r	a7, 0xfffe3c9c
    616d:	b92882        	l32i	a8, a8, 0x2e4
    6170:	650732        	l8ui	a3, a7, 101
    6173:	670742        	l8ui	a4, a7, 103
    6176:	660792        	l8ui	a9, a7, 102
    6179:	3199      	s32i.n	a9, a1, 12
    617b:	680772        	l8ui	a7, a7, 104
    617e:	0008e0        	excw
    6181:	768c81        	l32r	a8, 0xfffe3bb4
    6184:	0d0c      	movi.n	a13, 0
    6186:	290c      	movi.n	a9, 2
    6188:	76de21        	l32r	a2, 0xfffe3d00
    618b:	0020c0        	memw
    618e:	f0a0c2        	movi	a12, 240
    6191:	5c62d2        	s32i	a13, a2, 0x170
    6194:	11a700        	slli	a10, a7, 16
    6197:	76e6b1        	l32r	a11, 0xfffe3d30
    619a:	3178      	l32i.n	a7, a1, 12
    619c:	10aab0        	and	a10, a10, a11
    619f:	76e7b1        	l32r	a11, 0xfffe3d3c
    61a2:	0177c0        	slli	a7, a7, 20
    61a5:	1077b0        	and	a7, a7, a11
    61a8:	2077a0        	or	a7, a7, a10
    61ab:	21a8      	l32i.n	a10, a1, 8
    61ad:	76e9d1        	l32r	a13, 0xfffe3d54
    61b0:	11bac0        	slli	a11, a10, 4
    61b3:	10bbc0        	and	a11, a11, a12
    61b6:	34a0a0        	extui	a10, a10, 0, 4
    61b9:	20aab0        	or	a10, a10, a11
    61bc:	76e8c1        	l32r	a12, 0xfffe3d5c
    61bf:	11b440        	slli	a11, a4, 12
    61c2:	10bbc0        	and	a11, a11, a12
    61c5:	11c380        	slli	a12, a3, 8
    61c8:	10ccd0        	and	a12, a12, a13
    61cb:	20bbc0        	or	a11, a11, a12
    61ce:	20aab0        	or	a10, a10, a11
    61d1:	2077a0        	or	a7, a7, a10
    61d4:	0020c0        	memw
    61d7:	5d6272        	s32i	a7, a2, 0x174
    61da:	0020c0        	memw
    61dd:	5c6292        	s32i	a9, a2, 0x170
    61e0:	6888      	l32i.n	a8, a8, 24
    61e2:	1a0c      	movi.n	a10, 1
    61e4:	0008e0        	excw
    61e7:	0b0c      	movi.n	a11, 0
    61e9:	767fa1        	l32r	a10, 0xfffe3be8
    61ec:	e8a342        	movi	a4, 0x3e8
    61ef:	0020c0        	memw
    61f2:	5c22c2        	l32i	a12, a2, 0x170
    61f5:	bb1b      	addi.n	a11, a11, 1
    61f7:	f4b0b0        	extui	a11, a11, 0, 16
    61fa:	07b4b7        	bgeu	a4, a11, 0x6205
    61fd:	1c0c      	movi.n	a12, 1
    61ff:	3d4ac2        	s8i	a12, a10, 61
    6202:	000086        	j	0x6208
    6205:	e67cf7        	bbci	a12, 31, 0x61ef
    6208:	05dd      	mov.n	a13, a5
    620a:	0020c0        	memw
    620d:	01c8      	l32i.n	a12, a1, 0
    620f:	6722b2        	l32i	a11, a2, 0x19c
    6212:	400300        	ssr	a3
    6215:	0cb9      	s32i.n	a11, a12, 0
    6217:	b1b0b0        	sra	a11, a11
    621a:	0cb9      	s32i.n	a11, a12, 0
    621c:	0020c0        	memw
    621f:	11b8      	l32i.n	a11, a1, 4
    6221:	6b22a2        	l32i	a10, a2, 0x1ac
    6224:	400300        	ssr	a3
    6227:	0ba9      	s32i.n	a10, a11, 0
    6229:	b1a0a0        	sra	a10, a10
    622c:	0ba9      	s32i.n	a10, a11, 0
    622e:	0020c0        	memw
    6231:	1a0c      	movi.n	a10, 1
    6233:	1b0c      	movi.n	a11, 1
    6235:	1c0c      	movi.n	a12, 1
    6237:	762781        	l32r	a8, 0xfffe3ad4
    623a:	090c      	movi.n	a9, 0
    623c:	b92882        	l32i	a8, a8, 0x2e4
    623f:	5c6292        	s32i	a9, a2, 0x170
    6242:	0008e0        	excw
    6245:	050c      	movi.n	a5, 0
    6247:	490c      	movi.n	a9, 4
    6249:	0020c0        	memw
    624c:	5d6272        	s32i	a7, a2, 0x174
    624f:	0020c0        	memw
    6252:	768c81        	l32r	a8, 0xfffe3c84
    6255:	5c6292        	s32i	a9, a2, 0x170
    6258:	6888      	l32i.n	a8, a8, 24
    625a:	1a0c      	movi.n	a10, 1
    625c:	0008e0        	excw
    625f:	0b0c      	movi.n	a11, 0
    6261:	0020c0        	memw
    6264:	5c22c2        	l32i	a12, a2, 0x170
    6267:	bb1b      	addi.n	a11, a11, 1
    6269:	f4b0b0        	extui	a11, a11, 0, 16
    626c:	0ab4b7        	bgeu	a4, a11, 0x627a
    626f:	767fd1        	l32r	a13, 0xfffe3c6c
    6272:	2c0c      	movi.n	a12, 2
    6274:	3d4dc2        	s8i	a12, a13, 61
    6277:	000086        	j	0x627d
    627a:	e37cf7        	bbci	a12, 31, 0x6261
    627d:	0020c0        	memw
    6280:	41d8      	l32i.n	a13, a1, 16
    6282:	6722c2        	l32i	a12, a2, 0x19c
    6285:	400300        	ssr	a3
    6288:	1dc9      	s32i.n	a12, a13, 4
    628a:	b1c0c0        	sra	a12, a12
    628d:	1dc9      	s32i.n	a12, a13, 4
    628f:	0020c0        	memw
    6292:	400300        	ssr	a3
    6295:	6b22b2        	l32i	a11, a2, 0x1ac
    6298:	16b9      	s32i.n	a11, a6, 4
    629a:	b1b0b0        	sra	a11, a11
    629d:	16b9      	s32i.n	a11, a6, 4
    629f:	0020c0        	memw
    62a2:	5c6252        	s32i	a5, a2, 0x170
    62a5:	7638a1        	l32r	a10, 0xfffe3b88
    62a8:	20a7a0        	or	a10, a7, a10
    62ab:	0020c0        	memw
    62ae:	5d62a2        	s32i	a10, a2, 0x174
    62b1:	0020c0        	memw
    62b4:	1a0c      	movi.n	a10, 1
    62b6:	768c81        	l32r	a8, 0xfffe3ce8
    62b9:	490c      	movi.n	a9, 4
    62bb:	6888      	l32i.n	a8, a8, 24
    62bd:	5c6292        	s32i	a9, a2, 0x170
    62c0:	0008e0        	excw
    62c3:	0b0c      	movi.n	a11, 0
    62c5:	0020c0        	memw
    62c8:	5c22c2        	l32i	a12, a2, 0x170
    62cb:	bb1b      	addi.n	a11, a11, 1
    62cd:	f4b0b0        	extui	a11, a11, 0, 16
    62d0:	31b4b7        	bgeu	a4, a11, 0x6305
    62d3:	767fd1        	l32r	a13, 0xfffe3cd0
    62d6:	3c0c      	movi.n	a12, 3
    62d8:	3d4dc2        	s8i	a12, a13, 61
    62db:	0020c0        	memw
    62de:	4188      	l32i.n	a8, a1, 16
    62e0:	6722f2        	l32i	a15, a2, 0x19c
    62e3:	400300        	ssr	a3
    62e6:	08f9      	s32i.n	a15, a8, 0
    62e8:	b1f0f0        	sra	a15, a15
    62eb:	08f9      	s32i.n	a15, a8, 0
    62ed:	0020c0        	memw
    62f0:	400300        	ssr	a3
    62f3:	6b22e2        	l32i	a14, a2, 0x1ac
    62f6:	06e9      	s32i.n	a14, a6, 0
    62f8:	b1e0e0        	sra	a14, a14
    62fb:	06e9      	s32i.n	a14, a6, 0
    62fd:	0020c0        	memw
    6300:	5c6252        	s32i	a5, a2, 0x170
    6303:	f01d      	excw
    6305:	bc7cf7        	bbci	a12, 31, 0x62c5
    6308:	fff3c6        	j	0x62db
    630b:	413600        	srli	a3, a0, 6
    630e:	06dd01        	l32r	a0, 0xfffc7e84
    6311:	76cda1        	l32r	a10, 0xfffe3e48
    6314:	76cc91        	l32r	a9, 0xfffe3e44
    6317:	04fd      	mov.n	a15, a4
    6319:	05ed      	mov.n	a14, a5
    631b:	074d      	mov.n	a4, a7
    631d:	050c      	movi.n	a5, 0
    631f:	76b271        	l32r	a7, 0xfffe3de8
    6322:	1e6142        	s32i	a4, a1, 120
    6325:	f159      	s32i.n	a5, a1, 60
    6327:	e159      	s32i.n	a5, a1, 56
    6329:	d159      	s32i.n	a5, a1, 52
    632b:	6409b2        	l8ui	a11, a9, 100
    632e:	f91ac2        	l16ui	a12, a10, 0x1f2
    6331:	c1b9      	s32i.n	a11, a1, 48
    6333:	fa1ab2        	l16ui	a11, a10, 0x1f4
    6336:	690992        	l8ui	a9, a9, 105
    6339:	fb1aa2        	l16ui	a10, a10, 0x1f6
    633c:	0020c0        	memw
    633f:	1561e2        	s32i	a14, a1, 84
    6342:	1461d2        	s32i	a13, a1, 80
    6345:	186122        	s32i	a2, a1, 96
    6348:	176132        	s32i	a3, a1, 92
    634b:	952772        	l32i	a7, a7, 0x254
    634e:	1661f2        	s32i	a15, a1, 88
    6351:	146370        	extui	a6, a7, 3, 2
    6354:	768c      	beqz.n	a6, 0x635f
    6356:	0a2626        	beqi	a6, 2, 0x6364
    6359:	fdc6d2        	addi	a13, a6, -3
    635c:	0b7d16        	beqz	a13, 0x6417
    635f:	a60c      	movi.n	a6, 10
    6361:	000046        	j	0x6366
    6364:	960c      	movi.n	a6, 9
    6366:	196192        	s32i	a9, a1, 100
    6369:	1a61a2        	s32i	a10, a1, 104
    636c:	1b61b2        	s32i	a11, a1, 108
    636f:	1c61c2        	s32i	a12, a1, 112
    6372:	620c      	movi.n	a2, 6
    6374:	d159      	s32i.n	a5, a1, 52
    6376:	767f31        	l32r	a3, 0xfffe3d74
    6379:	24f070        	extui	a15, a7, 0, 3
    637c:	1d61f2        	s32i	a15, a1, 116
    637f:	070c      	movi.n	a7, 0
    6381:	3d4352        	s8i	a5, a3, 61
    6384:	04fd      	mov.n	a15, a4
    6386:	c1a8      	l32i.n	a10, a1, 48
    6388:	38c1b2        	addi	a11, a1, 56
    638b:	3cc1c2        	addi	a12, a1, 60
    638e:	762781        	l32r	a8, 0xfffe3c2c
    6391:	40c1d2        	addi	a13, a1, 64
    6394:	bc2882        	l32i	a8, a8, 0x2f0
    6397:	48c1e2        	addi	a14, a1, 72
    639a:	0008e0        	excw
    639d:	3d0392        	l8ui	a9, a3, 61
    63a0:	a71b      	addi.n	a10, a7, 1
    63a2:	898c      	beqz.n	a9, 0x63ae
    63a4:	3d4352        	s8i	a5, a3, 61
    63a7:	c20c      	movi.n	a2, 12
    63a9:	0a7d      	mov.n	a7, a10
    63ab:	001406        	j	0x63ff
    63ae:	192182        	l32i	a8, a1, 100
    63b1:	1821f2        	l32i	a15, a1, 96
    63b4:	1521b2        	l32i	a11, a1, 84
    63b7:	1621a2        	l32i	a10, a1, 88
    63ba:	1d2192        	l32i	a9, a1, 116
    63bd:	1421e2        	l32i	a14, a1, 80
    63c0:	f1d8      	l32i.n	a13, a1, 60
    63c2:	e1c8      	l32i.n	a12, a1, 56
    63c4:	0169      	s32i.n	a6, a1, 0
    63c6:	a1e9      	s32i.n	a14, a1, 40
    63c8:	7199      	s32i.n	a9, a1, 28
    63ca:	81a9      	s32i.n	a10, a1, 32
    63cc:	91b9      	s32i.n	a11, a1, 36
    63ce:	51f9      	s32i.n	a15, a1, 20
    63d0:	6189      	s32i.n	a8, a1, 24
    63d2:	30c1f2        	addi	a15, a1, 48
    63d5:	762781        	l32r	a8, 0xfffe3c74
    63d8:	1a21b2        	l32i	a11, a1, 104
    63db:	1b21a2        	l32i	a10, a1, 108
    63de:	1c2192        	l32i	a9, a1, 112
    63e1:	1721e2        	l32i	a14, a1, 92
    63e4:	41e9      	s32i.n	a14, a1, 16
    63e6:	1199      	s32i.n	a9, a1, 4
    63e8:	21a9      	s32i.n	a10, a1, 8
    63ea:	31b9      	s32i.n	a11, a1, 12
    63ec:	40c1a2        	addi	a10, a1, 64
    63ef:	48c1b2        	addi	a11, a1, 72
    63f2:	b32882        	l32i	a8, a8, 0x2cc
    63f5:	34c1e2        	addi	a14, a1, 52
    63f8:	0008e0        	excw
    63fb:	a71b      	addi.n	a10, a7, 1
    63fd:	0a7d      	mov.n	a7, a10
    63ff:	d1b8      	l32i.n	a11, a1, 52
    6401:	051b66        	bnei	a11, 1, 0x640a
    6404:	02ba27        	bgeu	a10, a2, 0x640a
    6407:	ffde46        	j	0x6384
    640a:	3c03f2        	l8ui	a15, a3, 60
    640d:	180c      	movi.n	a8, 1
    640f:	93f8b0        	movnez	a15, a8, a11
    6412:	3c43f2        	s8i	a15, a3, 60
    6415:	f01d      	excw
    6417:	860c      	movi.n	a6, 8
    6419:	ffd246        	j	0x6366
    641c:	008136        	excw
    641f:	7627e1        	l32r	a14, 0xfffe3cbc
    6422:	039d      	mov.n	a9, a3
    6424:	02dd      	mov.n	a13, a2
    6426:	07ad      	mov.n	a10, a7
    6428:	06bd      	mov.n	a11, a6
    642a:	05cd      	mov.n	a12, a5
    642c:	21c9      	s32i.n	a12, a1, 8
    642e:	11b9      	s32i.n	a11, a1, 4
    6430:	01a9      	s32i.n	a10, a1, 0
    6432:	76e971        	l32r	a7, 0xfffe3fd8
    6435:	76cc21        	l32r	a2, 0xfffe3f68
    6438:	f0a062        	movi	a6, 240
    643b:	1154c0        	slli	a5, a4, 4
    643e:	343040        	extui	a3, a4, 0, 4
    6441:	b92ee2        	l32i	a14, a14, 0x2e4
    6444:	122142        	l32i	a4, a1, 72
    6447:	105560        	and	a5, a5, a6
    644a:	203350        	or	a3, a3, a5
    644d:	650262        	l8ui	a6, a2, 101
    6450:	670252        	l8ui	a5, a2, 103
    6453:	116680        	slli	a6, a6, 8
    6456:	106670        	and	a6, a6, a7
    6459:	76e871        	l32r	a7, 0xfffe3ffc
    645c:	115540        	slli	a5, a5, 12
    645f:	105570        	and	a5, a5, a7
    6462:	070c      	movi.n	a7, 0
    6464:	205560        	or	a5, a5, a6
    6467:	203350        	or	a3, a3, a5
    646a:	76e661        	l32r	a6, 0xfffe4004
    646d:	680252        	l8ui	a5, a2, 104
    6470:	660222        	l8ui	a2, a2, 102
    6473:	115500        	slli	a5, a5, 16
    6476:	105560        	and	a5, a5, a6
    6479:	76e761        	l32r	a6, 0xfffe4018
    647c:	0122c0        	slli	a2, a2, 20
    647f:	102260        	and	a2, a2, a6
    6482:	861c      	movi.n	a6, 24
    6484:	202250        	or	a2, a2, a5
    6487:	202230        	or	a2, a2, a3
    648a:	112152        	l32i	a5, a1, 68
    648d:	4159      	s32i.n	a5, a1, 16
    648f:	102132        	l32i	a3, a1, 64
    6492:	5139      	s32i.n	a3, a1, 20
    6494:	e8a352        	movi	a5, 0x3e8
    6497:	76de31        	l32r	a3, 0xfffe4010
    649a:	7ddc      	bnez.n	a13, 0x64b5
    649c:	3199      	s32i.n	a9, a1, 12
    649e:	0020c0        	memw
    64a1:	5c6372        	s32i	a7, a3, 0x170
    64a4:	14a916        	beqz	a9, 0x65f2
    64a7:	1a0c      	movi.n	a10, 1
    64a9:	0b0c      	movi.n	a11, 0
    64ab:	0c0c      	movi.n	a12, 0
    64ad:	0d0c      	movi.n	a13, 0
    64af:	000ee0        	excw
    64b2:	0051c6        	j	0x65fd
    64b5:	0020c0        	memw
    64b8:	5c6372        	s32i	a7, a3, 0x170
    64bb:	1a0c      	movi.n	a10, 1
    64bd:	1b0c      	movi.n	a11, 1
    64bf:	1c0c      	movi.n	a12, 1
    64c1:	07dd      	mov.n	a13, a7
    64c3:	000ee0        	excw
    64c6:	763591        	l32r	a9, 0xfffe3d9c
    64c9:	209290        	or	a9, a2, a9
    64cc:	0020c0        	memw
    64cf:	5d6392        	s32i	a9, a3, 0x174
    64d2:	0020c0        	memw
    64d5:	768c81        	l32r	a8, 0xfffe3f08
    64d8:	5c6362        	s32i	a6, a3, 0x170
    64db:	6888      	l32i.n	a8, a8, 24
    64dd:	1a0c      	movi.n	a10, 1
    64df:	0008e0        	excw
    64e2:	767f21        	l32r	a2, 0xfffe3ee0
    64e5:	0a0c      	movi.n	a10, 0
    64e7:	0020c0        	memw
    64ea:	5c23b2        	l32i	a11, a3, 0x170
    64ed:	aa1b      	addi.n	a10, a10, 1
    64ef:	f4a0a0        	extui	a10, a10, 0, 16
    64f2:	47b5a7        	bgeu	a5, a10, 0x653d
    64f5:	bb0c      	movi.n	a11, 11
    64f7:	3c42b2        	s8i	a11, a2, 60
    64fa:	0020c0        	memw
    64fd:	21d8      	l32i.n	a13, a1, 8
    64ff:	6723c2        	l32i	a12, a3, 0x19c
    6502:	0dc9      	s32i.n	a12, a13, 0
    6504:	0020c0        	memw
    6507:	51b8      	l32i.n	a11, a1, 20
    6509:	6823a2        	l32i	a10, a3, 0x1a0
    650c:	0ba9      	s32i.n	a10, a11, 0
    650e:	0020c0        	memw
    6511:	1198      	l32i.n	a9, a1, 4
    6513:	6b2382        	l32i	a8, a3, 0x1ac
    6516:	0989      	s32i.n	a8, a9, 0
    6518:	0020c0        	memw
    651b:	41f8      	l32i.n	a15, a1, 16
    651d:	6c23e2        	l32i	a14, a3, 0x1b0
    6520:	0fe9      	s32i.n	a14, a15, 0
    6522:	0020c0        	memw
    6525:	01d8      	l32i.n	a13, a1, 0
    6527:	6923c2        	l32i	a12, a3, 0x1a4
    652a:	0dc9      	s32i.n	a12, a13, 0
    652c:	0020c0        	memw
    652f:	6a23e2        	l32i	a14, a3, 0x1a8
    6532:	0d7e17        	bbci	a14, 17, 0x6543
    6535:	ef6c      	movi.n	a15, -18
    6537:	20eef0        	or	a14, a14, a15
    653a:	000146        	j	0x6543
    653d:	a67bf7        	bbci	a11, 31, 0x64e7
    6540:	ffed86        	j	0x64fa
    6543:	04e9      	s32i.n	a14, a4, 0
    6545:	0020c0        	memw
    6548:	5c6372        	s32i	a7, a3, 0x170
    654b:	1a0c      	movi.n	a10, 1
    654d:	1b0c      	movi.n	a11, 1
    654f:	762781        	l32r	a8, 0xfffe3dec
    6552:	1c0c      	movi.n	a12, 1
    6554:	b92882        	l32i	a8, a8, 0x2e4
    6557:	1d0c      	movi.n	a13, 1
    6559:	0008e0        	excw
    655c:	762741        	l32r	a4, 0xfffe3df8
    655f:	0020c0        	memw
    6562:	768c81        	l32r	a8, 0xfffe3f94
    6565:	5c6362        	s32i	a6, a3, 0x170
    6568:	6888      	l32i.n	a8, a8, 24
    656a:	1a0c      	movi.n	a10, 1
    656c:	0008e0        	excw
    656f:	0a0c      	movi.n	a10, 0
    6571:	0020c0        	memw
    6574:	5c23b2        	l32i	a11, a3, 0x170
    6577:	aa1b      	addi.n	a10, a10, 1
    6579:	f4a0a0        	extui	a10, a10, 0, 16
    657c:	07b5a7        	bgeu	a5, a10, 0x6587
    657f:	cb0c      	movi.n	a11, 12
    6581:	3c42b2        	s8i	a11, a2, 60
    6584:	000086        	j	0x658a
    6587:	e67bf7        	bbci	a11, 31, 0x6571
    658a:	1321d2        	l32i	a13, a1, 76
    658d:	0020c0        	memw
    6590:	6723c2        	l32i	a12, a3, 0x19c
    6593:	0dc9      	s32i.n	a12, a13, 0
    6595:	58c1b2        	addi	a11, a1, 88
    6598:	0bb8      	l32i.n	a11, a11, 0
    659a:	0020c0        	memw
    659d:	6823a2        	l32i	a10, a3, 0x1a0
    65a0:	0ba9      	s32i.n	a10, a11, 0
    65a2:	50c192        	addi	a9, a1, 80
    65a5:	0998      	l32i.n	a9, a9, 0
    65a7:	0020c0        	memw
    65aa:	6b2382        	l32i	a8, a3, 0x1ac
    65ad:	0989      	s32i.n	a8, a9, 0
    65af:	5cc1f2        	addi	a15, a1, 92
    65b2:	0ff8      	l32i.n	a15, a15, 0
    65b4:	0020c0        	memw
    65b7:	6c23e2        	l32i	a14, a3, 0x1b0
    65ba:	0fe9      	s32i.n	a14, a15, 0
    65bc:	54c1d2        	addi	a13, a1, 84
    65bf:	0dd8      	l32i.n	a13, a13, 0
    65c1:	0020c0        	memw
    65c4:	6923c2        	l32i	a12, a3, 0x1a4
    65c7:	0dc9      	s32i.n	a12, a13, 0
    65c9:	0020c0        	memw
    65cc:	6a23e2        	l32i	a14, a3, 0x1a8
    65cf:	ef6c      	movi.n	a15, -18
    65d1:	027e17        	bbci	a14, 17, 0x65d7
    65d4:	20eef0        	or	a14, a14, a15
    65d7:	182192        	l32i	a9, a1, 96
    65da:	09e9      	s32i.n	a14, a9, 0
    65dc:	0020c0        	memw
    65df:	5c6372        	s32i	a7, a3, 0x170
    65e2:	1a0c      	movi.n	a10, 1
    65e4:	0b0c      	movi.n	a11, 0
    65e6:	0c0c      	movi.n	a12, 0
    65e8:	b92482        	l32i	a8, a4, 0x2e4
    65eb:	0d0c      	movi.n	a13, 0
    65ed:	0008e0        	excw
    65f0:	f01d      	excw
    65f2:	1a0c      	movi.n	a10, 1
    65f4:	1b0c      	movi.n	a11, 1
    65f6:	1c0c      	movi.n	a12, 1
    65f8:	0d0c      	movi.n	a13, 0
    65fa:	000ee0        	excw
    65fd:	0020c0        	memw
    6600:	5d6322        	s32i	a2, a3, 0x174
    6603:	31a8      	l32i.n	a10, a1, 12
    6605:	190c      	movi.n	a9, 1
    6607:	9369a0        	movnez	a6, a9, a10
    660a:	0020c0        	memw
    660d:	768c81        	l32r	a8, 0xfffe4040
    6610:	5c6362        	s32i	a6, a3, 0x170
    6613:	6888      	l32i.n	a8, a8, 24
    6615:	1a0c      	movi.n	a10, 1
    6617:	0008e0        	excw
    661a:	0a0c      	movi.n	a10, 0
    661c:	0020c0        	memw
    661f:	5c23b2        	l32i	a11, a3, 0x170
    6622:	aa1b      	addi.n	a10, a10, 1
    6624:	f4a0a0        	extui	a10, a10, 0, 16
    6627:	4ab5a7        	bgeu	a5, a10, 0x6675
    662a:	767fc1        	l32r	a12, 0xfffe4028
    662d:	ab0c      	movi.n	a11, 10
    662f:	3c4cb2        	s8i	a11, a12, 60
    6632:	0020c0        	memw
    6635:	21e8      	l32i.n	a14, a1, 8
    6637:	6723d2        	l32i	a13, a3, 0x19c
    663a:	0ed9      	s32i.n	a13, a14, 0
    663c:	0020c0        	memw
    663f:	51c8      	l32i.n	a12, a1, 20
    6641:	6823b2        	l32i	a11, a3, 0x1a0
    6644:	0cb9      	s32i.n	a11, a12, 0
    6646:	0020c0        	memw
    6649:	11a8      	l32i.n	a10, a1, 4
    664b:	6b2392        	l32i	a9, a3, 0x1ac
    664e:	0a99      	s32i.n	a9, a10, 0
    6650:	0020c0        	memw
    6653:	4188      	l32i.n	a8, a1, 16
    6655:	6c23f2        	l32i	a15, a3, 0x1b0
    6658:	08f9      	s32i.n	a15, a8, 0
    665a:	0020c0        	memw
    665d:	01e8      	l32i.n	a14, a1, 0
    665f:	6923d2        	l32i	a13, a3, 0x1a4
    6662:	0ed9      	s32i.n	a13, a14, 0
    6664:	0020c0        	memw
    6667:	6a23e2        	l32i	a14, a3, 0x1a8
    666a:	0d7e17        	bbci	a14, 17, 0x667b
    666d:	ef6c      	movi.n	a15, -18
    666f:	20eef0        	or	a14, a14, a15
    6672:	000146        	j	0x667b
    6675:	a37bf7        	bbci	a11, 31, 0x661c
    6678:	ffed86        	j	0x6632
    667b:	04e9      	s32i.n	a14, a4, 0
    667d:	0020c0        	memw
    6680:	5c6372        	s32i	a7, a3, 0x170
    6683:	f01d      	excw
    6685:	000000        	ill
    6688:	004136        	excw
    668b:	767f21        	l32r	a2, 0xfffe4088
    668e:	030c      	movi.n	a3, 0
    6690:	102282        	l32i	a8, a2, 64
    6693:	3c4232        	s8i	a3, a2, 60
    6696:	0008e0        	excw
    6699:	3c0292        	l8ui	a9, a2, 60
    669c:	299c      	beqz.n	a9, 0x66b2
    669e:	762781        	l32r	a8, 0xfffe3f3c
    66a1:	c12882        	l32i	a8, a8, 0x304
    66a4:	3c4232        	s8i	a3, a2, 60
    66a7:	0008e0        	excw
    66aa:	76bfa1        	l32r	a10, 0xfffe41a8
    66ad:	190c      	movi.n	a9, 1
    66af:	004a92        	s8i	a9, a10, 0
    66b2:	f01d      	excw
    66b4:	004136        	excw
    66b7:	76ede1        	l32r	a14, 0xfffe426c
    66ba:	76ec21        	l32r	a2, 0xfffe426c
    66bd:	76eeb1        	l32r	a11, 0xfffe4278
    66c0:	767f61        	l32r	a6, 0xfffe40bc
    66c3:	76efa1        	l32r	a10, 0xfffe4280
    66c6:	76ea31        	l32r	a3, 0xfffe4270
    66c9:	76f091        	l32r	a9, 0xfffe428c
    66cc:	c06392        	s32i	a9, a3, 0x300
    66cf:	8e63a2        	s32i	a10, a3, 0x238
    66d2:	01d352        	addmi	a5, a3, 0x100
    66d5:	04d3c2        	addmi	a12, a3, 0x400
    66d8:	ca2582        	l32i	a8, a5, 0x328
    66db:	cb2552        	l32i	a5, a5, 0x32c
    66de:	5689      	s32i.n	a8, a6, 20
    66e0:	76eb81        	l32r	a8, 0xfffe428c
    66e3:	6659      	s32i.n	a5, a6, 24
    66e5:	38d8      	l32i.n	a13, a8, 12
    66e7:	3163b2        	s32i	a11, a3, 196
    66ea:	38b9      	s32i.n	a11, a8, 12
    66ec:	166ce2        	s32i	a14, a12, 88
    66ef:	176c22        	s32i	a2, a12, 92
    66f2:	98f8      	l32i.n	a15, a8, 36
    66f4:	a848      	l32i.n	a4, a8, 40
    66f6:	76f151        	l32r	a5, 0xfffe42bc
    66f9:	6899      	s32i.n	a9, a8, 24
    66fb:	c8a9      	s32i.n	a10, a8, 48
    66fd:	76d9      	s32i.n	a13, a6, 28
    66ff:	76f4a1        	l32r	a10, 0xfffe42d0
    6702:	76f3d1        	l32r	a13, 0xfffe42d0
    6705:	76f591        	l32r	a9, 0xfffe42dc
    6708:	4859      	s32i.n	a5, a8, 16
    670a:	326352        	s32i	a5, a3, 200
    670d:	c649      	s32i.n	a4, a6, 48
    670f:	b6f9      	s32i.n	a15, a6, 44
    6711:	a829      	s32i.n	a2, a8, 40
    6713:	98e9      	s32i.n	a14, a8, 36
    6715:	76f221        	l32r	a2, 0xfffe42e0
    6718:	ffd3e2        	addmi	a14, a3, 0xffffff00
    671b:	1ef8      	l32i.n	a15, a14, 4
    671d:	3e48      	l32i.n	a4, a14, 12
    671f:	05d352        	addmi	a5, a3, 0x500
    6722:	1a6592        	s32i	a9, a5, 104
    6725:	9649      	s32i.n	a4, a6, 36
    6727:	1125b2        	l32i	a11, a5, 68
    672a:	a6f9      	s32i.n	a15, a6, 40
    672c:	1ed9      	s32i.n	a13, a14, 4
    672e:	76f9f1        	l32r	a15, 0xfffe4314
    6731:	76fbd1        	l32r	a13, 0xfffe4320
    6734:	86b9      	s32i.n	a11, a6, 32
    6736:	1165a2        	s32i	a10, a5, 68
    6739:	3e29      	s32i.n	a2, a14, 12
    673b:	76f741        	l32r	a4, 0xfffe4318
    673e:	1a2392        	l32i	a9, a3, 104
    6741:	d699      	s32i.n	a9, a6, 52
    6743:	7549      	s32i.n	a4, a5, 28
    6745:	76f821        	l32r	a2, 0xfffe4328
    6748:	f823a2        	l32i	a10, a3, 0x3e0
    674b:	76fcb1        	l32r	a11, 0xfffe433c
    674e:	666cd2        	s32i	a13, a12, 0x198
    6751:	bcf9      	s32i.n	a15, a12, 44
    6753:	7700d1        	l32r	a13, 0xfffe4354
    6756:	fed3f2        	addmi	a15, a3, 0xfffffe00
    6759:	3cb9      	s32i.n	a11, a12, 12
    675b:	46a9      	s32i.n	a10, a6, 16
    675d:	ac29      	s32i.n	a2, a12, 40
    675f:	76fd41        	l32r	a4, 0xfffe4354
    6762:	76fae1        	l32r	a14, 0xfffe434c
    6765:	770491        	l32r	a9, 0xfffe4378
    6768:	346392        	s32i	a9, a3, 208
    676b:	656ce2        	s32i	a14, a12, 0x194
    676e:	f86342        	s32i	a4, a3, 0x3e0
    6771:	76f681        	l32r	a8, 0xfffe434c
    6774:	76fe21        	l32r	a2, 0xfffe436c
    6777:	7703a1        	l32r	a10, 0xfffe4384
    677a:	7702b1        	l32r	a11, 0xfffe4384
    677d:	2c63b2        	s32i	a11, a3, 176
    6780:	5c63a2        	s32i	a10, a3, 0x170
    6783:	1a6322        	s32i	a2, a3, 104
    6786:	a589      	s32i.n	a8, a5, 40
    6788:	770841        	l32r	a4, 0xfffe43a8
    678b:	76ffe1        	l32r	a14, 0xfffe4388
    678e:	6f6fe2        	s32i	a14, a15, 0x1bc
    6791:	fc6342        	s32i	a4, a3, 0x3f0
    6794:	ff2352        	l32i	a5, a3, 0x3fc
    6797:	770921        	l32r	a2, 0xfffe43bc
    679a:	c72382        	l32i	a8, a3, 0x31c
    679d:	c763d2        	s32i	a13, a3, 0x31c
    67a0:	fb6322        	s32i	a2, a3, 0x3ec
    67a3:	e689      	s32i.n	a8, a6, 56
    67a5:	106652        	s32i	a5, a6, 64
    67a8:	7701c1        	l32r	a12, 0xfffe43ac
    67ab:	ff63c2        	s32i	a12, a3, 0x3fc
    67ae:	770751        	l32r	a5, 0xfffe43cc
    67b1:	770581        	l32r	a8, 0xfffe43c8
    67b4:	2a6382        	s32i	a8, a3, 168
    67b7:	146352        	s32i	a5, a3, 80
    67ba:	770661        	l32r	a6, 0xfffe43d4
    67bd:	2d6362        	s32i	a6, a3, 180
    67c0:	f01d      	excw
    67c2:	360000        	excw
    67c5:	ad0061        	l32r	a6, 0xffff1bc8
    67c8:	0ab103        	excw
    67cb:	4c0c77        	bnone	a12, a7, 0x681b
    67ce:	e80c      	movi.n	a8, 14
    67d0:	005482        	s16i	a8, a4, 0
    67d3:	035825        	excw
    67d6:	a34b      	addi.n	a10, a3, 4
    67d8:	770bb1        	l32r	a11, 0xfffe4404
    67db:	4c0c      	movi.n	a12, 4
    67dd:	035765        	excw
    67e0:	770c91        	l32r	a9, 0xfffe4410
    67e3:	0020c0        	memw
    67e6:	a38b      	addi.n	a10, a3, 8
    67e8:	01bd      	mov.n	a11, a1
    67ea:	4c0c      	movi.n	a12, 4
    67ec:	a02992        	l32i	a9, a9, 0x280
    67ef:	0199      	s32i.n	a9, a1, 0
    67f1:	035625        	excw
    67f4:	020c      	movi.n	a2, 0
    67f6:	2a0c      	movi.n	a10, 2
    67f8:	1b2c      	movi.n	a11, 33
    67fa:	0c43b2        	s8i	a11, a3, 12
    67fd:	0d43a2        	s8i	a10, a3, 13
    6800:	f01d      	excw
    6802:	360000        	excw
    6805:	660041        	l32r	a4, 0xfffe0008
    6808:	f13a12        	excw
    680b:	e27673        	excw
    680e:	810a03        	excw
    6811:	770d      	excw
    6813:	ee3a      	add.n	a14, a14, a3
    6815:	0d0eb2        	l8ui	a11, a14, 13
    6818:	0c0ea2        	l8ui	a10, a14, 12
    681b:	11bb80        	slli	a11, a11, 8
    681e:	aaba      	add.n	a10, a10, a11
    6820:	f4a0a0        	extui	a10, a10, 0, 16
    6823:	2c1a87        	beq	a10, a8, 0x6853
    6826:	770e81        	l32r	a8, 0xfffe4460
    6829:	770f91        	l32r	a9, 0xfffe4468
    682c:	231a87        	beq	a10, a8, 0x6853
    682f:	201a97        	beq	a10, a9, 0x6853
    6832:	7710b1        	l32r	a11, 0xfffe4474
    6835:	1a1ab7        	beq	a10, a11, 0x6853
    6838:	03cd      	mov.n	a12, a3
    683a:	3a0c      	movi.n	a10, 3
    683c:	8f88      	l32i.n	a8, a15, 32
    683e:	0b2c      	movi.n	a11, 32
    6840:	0008e0        	excw
    6843:	f01d      	excw
    6845:	771181        	l32r	a8, 0xfffe448c
    6848:	02ad      	mov.n	a10, a2
    684a:	0888      	l32i.n	a8, a8, 0
    684c:	03bd      	mov.n	a11, a3
    684e:	0008e0        	excw
    6851:	f01d      	excw
    6853:	cecb      	addi.n	a12, a14, 12
    6855:	3a0c      	movi.n	a10, 3
    6857:	7712b1        	l32r	a11, 0xfffe44a0
    685a:	7f88      	l32i.n	a8, a15, 28
    685c:	0213d2        	l16ui	a13, a3, 4
    685f:	0008e0        	excw
    6862:	764581        	l32r	a8, 0xfffe4178
    6865:	4a2882        	l32i	a8, a8, 0x128
    6868:	03ad      	mov.n	a10, a3
    686a:	0008e0        	excw
    686d:	f01d      	excw
    686f:	413600        	srli	a3, a0, 6
    6872:	7e3100        	excw
    6875:	20c076        	excw
    6878:	139100        	excw
    687b:	238277        	bany	a2, a7, 0x68a2
    687e:	8890c5        	call0	0xfff8f18c
    6881:	20c010        	or	a12, a0, a1
    6884:	638200        	excw
    6887:	20c0c5        	call0	0x27494
    688a:	232200        	excw
    688d:	42c8      	l32i.n	a12, a2, 16
    688f:	af          	.byte 0xaf
    6890:	7f          	.byte 0x7f
    6891:	102240        	and	a2, a2, a4
    6894:	0020c0        	memw
    6897:	c86322        	s32i	a2, a3, 0x320
    689a:	f01d      	excw
    689c:	004136        	excw
    689f:	76d2c1        	l32r	a12, 0xfffe43e8
    68a2:	767351        	l32r	a5, 0xfffe4270
    68a5:	771431        	l32r	a3, 0xfffe44f8
    68a8:	771281        	l32r	a8, 0xfffe44f0
    68ab:	0312a2        	l16ui	a10, a2, 6
    68ae:	771541        	l32r	a4, 0xfffe4504
    68b1:	409a87        	bne	a10, a8, 0x68f5
    68b4:	7716d1        	l32r	a13, 0xfffe450c
    68b7:	770d91        	l32r	a9, 0xfffe44ec
    68ba:	0d02b2        	l8ui	a11, a2, 13
    68bd:	0c02a2        	l8ui	a10, a2, 12
    68c0:	11bb80        	slli	a11, a11, 8
    68c3:	aaba      	add.n	a10, a10, a11
    68c5:	f4a0a0        	extui	a10, a10, 0, 16
    68c8:	799a97        	bne	a10, a9, 0x6945
    68cb:	0003c2        	l8ui	a12, a3, 0
    68ce:	04a4e2        	movi	a14, 0x404
    68d1:	c1cce0        	mul16u	a12, a12, a14
    68d4:	cdca      	add.n	a12, a13, a12
    68d6:	912cc2        	l32i	a12, a12, 0x244
    68d9:	0c2c66        	bnei	a12, 2, 0x68e9
    68dc:	762781        	l32r	a8, 0xfffe4178
    68df:	0a0c      	movi.n	a10, 0
    68e1:	e12882        	l32i	a8, a8, 0x384
    68e4:	0b0c      	movi.n	a11, 0
    68e6:	0008e0        	excw
    68e9:	fff865        	excw
    68ec:	5588      	l32i.n	a8, a5, 20
    68ee:	02ad      	mov.n	a10, a2
    68f0:	0008e0        	excw
    68f3:	f01d      	excw
    68f5:	20a292        	movi	a9, 0x220
    68f8:	3d9a97        	bne	a10, a9, 0x6939
    68fb:	000ca2        	l8ui	a10, a12, 0
    68fe:	010cb2        	l8ui	a11, a12, 1
    6901:	2b1a66        	bnei	a10, 1, 0x6930
    6904:	fb8c      	beqz.n	a11, 0x6917
    6906:	7680c1        	l32r	a12, 0xfffe4308
    6909:	0cc8      	l32i.n	a12, a12, 0
    690b:	342cc2        	l32i	a12, a12, 208
    690e:	053c26        	beqi	a12, 3, 0x6917
    6911:	021be5        	excw
    6914:	000606        	j	0x6930
    6917:	f52dd2        	l32i	a13, a13, 0x3d4
    691a:	2d9c      	beqz.n	a13, 0x6930
    691c:	0003a2        	l8ui	a10, a3, 0
    691f:	402482        	l32i	a8, a4, 0x100
    6922:	1b0c      	movi.n	a11, 1
    6924:	0008e0        	excw
    6927:	a02482        	l32i	a8, a4, 0x280
    692a:	0003a2        	l8ui	a10, a3, 0
    692d:	0008e0        	excw
    6930:	5588      	l32i.n	a8, a5, 20
    6932:	02ad      	mov.n	a10, a2
    6934:	0008e0        	excw
    6937:	f01d      	excw
    6939:	771181        	l32r	a8, 0xfffe4580
    693c:	1888      	l32i.n	a8, a8, 4
    693e:	02ad      	mov.n	a10, a2
    6940:	0008e0        	excw
    6943:	f01d      	excw
    6945:	770e91        	l32r	a9, 0xfffe4580
    6948:	160c      	movi.n	a6, 1
    694a:	1c9a97        	bne	a10, a9, 0x696a
    694d:	0f0292        	l8ui	a9, a2, 15
    6950:	f98916        	beqz	a9, 0x68ec
    6953:	9549f6        	bgeui	a9, 4, 0x68ec
    6956:	0003a2        	l8ui	a10, a3, 0
    6959:	04a4b2        	movi	a11, 0x404
    695c:	c1aab0        	mul16u	a10, a10, a11
    695f:	004c62        	s8i	a6, a12, 0
    6962:	adaa      	add.n	a10, a13, a10
    6964:	7d4a62        	s8i	a6, a10, 125
    6967:	ffe046        	j	0x68ec
    696a:	770fe1        	l32r	a14, 0xfffe45a8
    696d:	771081        	l32r	a8, 0xfffe45b0
    6970:	239ae7        	bne	a10, a14, 0x6997
    6973:	06bd      	mov.n	a11, a6
    6975:	402482        	l32i	a8, a4, 0x100
    6978:	76d3a1        	l32r	a10, 0xfffe44c4
    697b:	04a4f2        	movi	a15, 0x404
    697e:	090c      	movi.n	a9, 0
    6980:	0003e2        	l8ui	a14, a3, 0
    6983:	004c92        	s8i	a9, a12, 0
    6986:	c1cef0        	mul16u	a12, a14, a15
    6989:	000aa2        	l8ui	a10, a10, 0
    698c:	cdca      	add.n	a12, a13, a12
    698e:	7d4c92        	s8i	a9, a12, 125
    6991:	0008e0        	excw
    6994:	ffd506        	j	0x68ec
    6997:	c08a80        	sub	a8, a10, a8
    699a:	f4e856        	bnez	a8, 0x68ec
    699d:	652482        	l32i	a8, a4, 0x194
    69a0:	0008e0        	excw
    69a3:	7710a1        	l32r	a10, 0xfffe45e4
    69a6:	764381        	l32r	a8, 0xfffe42b4
    69a9:	0b0c      	movi.n	a11, 0
    69ab:	142882        	l32i	a8, a8, 80
    69ae:	1c0c      	movi.n	a12, 1
    69b0:	0008e0        	excw
    69b3:	764591        	l32r	a9, 0xfffe42c8
    69b6:	176962        	s32i	a6, a9, 92
    69b9:	ffcbc6        	j	0x68ec
    69bc:	004136        	excw
    69bf:	0a0c      	movi.n	a10, 0
    69c1:	7717d1        	l32r	a13, 0xfffe4620
    69c4:	0aa082        	movi	a8, 10
    69c7:	0402c2        	l8ui	a12, a2, 4
    69ca:	0302b2        	l8ui	a11, a2, 3
    69cd:	11cc80        	slli	a12, a12, 8
    69d0:	80bbc0        	add	a11, a11, a12
    69d3:	f4b0b0        	extui	a11, a11, 0, 16
    69d6:	7621c1        	l32r	a12, 0xfffe425c
    69d9:	1ea876        	excw
    69dc:	c8a022        	movi	a2, 200
    69df:	c12a20        	mul16u	a2, a10, a2
    69e2:	e2da      	add.n	a14, a2, a13
    69e4:	7f1ee2        	l16ui	a14, a14, 254
    69e7:	22ca      	add.n	a2, a2, a12
    69e9:	099eb7        	bne	a14, a11, 0x69f6
    69ec:	233a00        	excw
    69ef:	0d0366        	bnei	a3, -1, 0x6a00
    69f2:	220c      	movi.n	a2, 2
    69f4:	f01d      	excw
    69f6:	aa1b      	addi.n	a10, a10, 1
    69f8:	74a0a0        	extui	a10, a10, 0, 8
    69fb:	f37c      	movi.n	a3, -1
    69fd:	fffb86        	j	0x69ef
    6a00:	0102b2        	l8ui	a11, a2, 1
    6a03:	3d4b66        	bnei	a11, 4, 0x6a44
    6a06:	0d73e6        	bgei	a3, 7, 0x6a17
    6a09:	760f81        	l32r	a8, 0xfffe4248
    6a0c:	0002a2        	l8ui	a10, a2, 0
    6a0f:	442882        	l32i	a8, a8, 0x110
    6a12:	1b0c      	movi.n	a11, 1
    6a14:	0008e0        	excw
    6a17:	fea3a2        	movi	a10, 0x3fe
    6a1a:	0b0c      	movi.n	a11, 0
    6a1c:	2c0c      	movi.n	a12, 2
    6a1e:	761081        	l32r	a8, 0xfffe4260
    6a21:	0002d2        	l8ui	a13, a2, 0
    6a24:	142882        	l32i	a8, a8, 80
    6a27:	2e0c      	movi.n	a14, 2
    6a29:	0008e0        	excw
    6a2c:	03bd      	mov.n	a11, a3
    6a2e:	d24b      	addi.n	a13, a2, 4
    6a30:	4a0c      	movi.n	a10, 4
    6a32:	762481        	l32r	a8, 0xfffe42c4
    6a35:	7628c1        	l32r	a12, 0xfffe42d8
    6a38:	1d2882        	l32i	a8, a8, 116
    6a3b:	4e0c      	movi.n	a14, 4
    6a3d:	0008e0        	excw
    6a40:	020c      	movi.n	a2, 0
    6a42:	f01d      	excw
    6a44:	c20c      	movi.n	a2, 12
    6a46:	f01d      	excw
    6a48:	046136        	excw
    6a4b:	764541        	l32r	a4, 0xfffe4360
    6a4e:	771881        	l32r	a8, 0xfffe46b0
    6a51:	0a02e2        	l8ui	a14, a2, 10
    6a54:	0a0c      	movi.n	a10, 0
    6a56:	ee2a      	add.n	a14, a14, a2
    6a58:	befb      	addi.n	a11, a14, 15
    6a5a:	0c0e32        	l8ui	a3, a14, 12
    6a5d:	0d0e92        	l8ui	a9, a14, 13
    6a60:	0051a2        	s16i	a10, a1, 0
    6a63:	119980        	slli	a9, a9, 8
    6a66:	339a      	add.n	a3, a3, a9
    6a68:	f43030        	extui	a3, a3, 0, 16
    6a6b:	131387        	beq	a3, a8, 0x6a82
    6a6e:	7719f1        	l32r	a15, 0xfffe46d4
    6a71:	4a13f7        	beq	a3, a15, 0x6abf
    6a74:	771181        	l32r	a8, 0xfffe46b8
    6a77:	2888      	l32i.n	a8, a8, 8
    6a79:	02ad      	mov.n	a10, a2
    6a7b:	0008e0        	excw
    6a7e:	0a2d      	mov.n	a2, a10
    6a80:	f01d      	excw
    6a82:	0e0ea2        	l8ui	a10, a14, 14
    6a85:	10c1c2        	addi	a12, a1, 16
    6a88:	01dd      	mov.n	a13, a1
    6a8a:	001c65        	excw
    6a8d:	0c0c      	movi.n	a12, 0
    6a8f:	10c1d2        	addi	a13, a1, 16
    6a92:	0e0c      	movi.n	a14, 0
    6a94:	0a5d      	mov.n	a5, a10
    6a96:	512482        	l32i	a8, a4, 0x144
    6a99:	03ad      	mov.n	a10, a3
    6a9b:	74b050        	extui	a11, a5, 0, 8
    6a9e:	0008e0        	excw
    6aa1:	92a0a2        	movi	a10, 146
    6aa4:	764381        	l32r	a8, 0xfffe43b0
    6aa7:	10c1b2        	addi	a11, a1, 16
    6aaa:	2e2882        	l32i	a8, a8, 184
    6aad:	0011c2        	l16ui	a12, a1, 0
    6ab0:	0008e0        	excw
    6ab3:	4a2482        	l32i	a8, a4, 0x128
    6ab6:	02ad      	mov.n	a10, a2
    6ab8:	0008e0        	excw
    6abb:	052d      	mov.n	a2, a5
    6abd:	f01d      	excw
    6abf:	0bad      	mov.n	a10, a11
    6ac1:	ffefa5        	excw
    6ac4:	0c0c      	movi.n	a12, 0
    6ac6:	10c1d2        	addi	a13, a1, 16
    6ac9:	0e0c      	movi.n	a14, 0
    6acb:	0a5d      	mov.n	a5, a10
    6acd:	512482        	l32i	a8, a4, 0x144
    6ad0:	03ad      	mov.n	a10, a3
    6ad2:	74b050        	extui	a11, a5, 0, 8
    6ad5:	0008e0        	excw
    6ad8:	4a2482        	l32i	a8, a4, 0x128
    6adb:	02ad      	mov.n	a10, a2
    6add:	0008e0        	excw
    6ae0:	052d      	mov.n	a2, a5
    6ae2:	f01d      	excw
    6ae4:	004136        	excw
    6ae7:	762b81        	l32r	a8, 0xfffe4394
    6aea:	76cc91        	l32r	a9, 0xfffe461c
    6aed:	040882        	l8ui	a8, a8, 4
    6af0:	840992        	l8ui	a9, a9, 132
    6af3:	789c      	beqz.n	a8, 0x6b0e
    6af5:	599c      	beqz.n	a9, 0x6b0e
    6af7:	7680a1        	l32r	a10, 0xfffe44f8
    6afa:	0aa8      	l32i.n	a10, a10, 0
    6afc:	382aa2        	l32i	a10, a10, 224
    6aff:	0bfaf7        	bbsi	a10, 31, 0x6b0e
    6b02:	771181        	l32r	a8, 0xfffe4748
    6b05:	02ad      	mov.n	a10, a2
    6b07:	3888      	l32i.n	a8, a8, 12
    6b09:	03bd      	mov.n	a11, a3
    6b0b:	0008e0        	excw
    6b0e:	f01d      	excw
    6b10:	006136        	excw
    6b13:	768c41        	l32r	a4, 0xfffe4544
    6b16:	162482        	l32i	a8, a4, 88
    6b19:	0008e0        	excw
    6b1c:	0a2d      	mov.n	a2, a10
    6b1e:	3a1a66        	bnei	a10, 1, 0x6b5c
    6b21:	b488      	l32i.n	a8, a4, 44
    6b23:	0008e0        	excw
    6b26:	fb0c      	movi.n	a11, 15
    6b28:	309ab7        	bne	a10, a11, 0x6b5c
    6b2b:	bcf7e5        	excw
    6b2e:	92a0a2        	movi	a10, 146
    6b31:	01bd      	mov.n	a11, a1
    6b33:	2c0c      	movi.n	a12, 2
    6b35:	090c      	movi.n	a9, 0
    6b37:	764381        	l32r	a8, 0xfffe4444
    6b3a:	004192        	s8i	a9, a1, 0
    6b3d:	2e2882        	l32i	a8, a8, 184
    6b40:	014192        	s8i	a9, a1, 1
    6b43:	0008e0        	excw
    6b46:	7718a1        	l32r	a10, 0xfffe47a8
    6b49:	0b0c      	movi.n	a11, 0
    6b4b:	0c0c      	movi.n	a12, 0
    6b4d:	764581        	l32r	a8, 0xfffe4464
    6b50:	0d0c      	movi.n	a13, 0
    6b52:	512882        	l32i	a8, a8, 0x144
    6b55:	0e0c      	movi.n	a14, 0
    6b57:	0008e0        	excw
    6b5a:	f01d      	excw
    6b5c:	771131        	l32r	a3, 0xfffe47a0
    6b5f:	101266        	bnei	a2, 1, 0x6b73
    6b62:	b488      	l32i.n	a8, a4, 44
    6b64:	0008e0        	excw
    6b67:	083a66        	bnei	a10, 3, 0x6b73
    6b6a:	bcf3e5        	excw
    6b6d:	190c      	movi.n	a9, 1
    6b6f:	5399      	s32i.n	a9, a3, 20
    6b71:	f01d      	excw
    6b73:	4388      	l32i.n	a8, a3, 16
    6b75:	0008e0        	excw
    6b78:	f01d      	excw
    6b7a:	360000        	excw
    6b7d:	210041        	l32r	a4, 0xfffcef80
    6b80:	887711        	l32r	a1, 0xfffe8d5c
    6b83:	289c52        	l16si	a5, a12, 80
    6b86:	771aa1        	l32r	a10, 0xfffe47f0
    6b89:	764381        	l32r	a8, 0xfffe4498
    6b8c:	0b0c      	movi.n	a11, 0
    6b8e:	142882        	l32i	a8, a8, 80
    6b91:	1c0c      	movi.n	a12, 1
    6b93:	0008e0        	excw
    6b96:	090c      	movi.n	a9, 0
    6b98:	5299      	s32i.n	a9, a2, 20
    6b9a:	f01d      	excw
    6b9c:	004136        	excw
    6b9f:	0d0c      	movi.n	a13, 0
    6ba1:	764531        	l32r	a3, 0xfffe44b8
    6ba4:	764341        	l32r	a4, 0xfffe44b0
    6ba7:	0a0282        	l8ui	a8, a2, 10
    6baa:	7680c1        	l32r	a12, 0xfffe45ac
    6bad:	882a      	add.n	a8, a8, a2
    6baf:	0cc8      	l32i.n	a12, a12, 0
    6bb1:	0c0852        	l8ui	a5, a8, 12
    6bb4:	0d0882        	l8ui	a8, a8, 13
    6bb7:	382cb2        	l32i	a11, a12, 224
    6bba:	118880        	slli	a8, a8, 8
    6bbd:	558a      	add.n	a5, a5, a8
    6bbf:	f45050        	extui	a5, a5, 0, 16
    6bc2:	607bf7        	bbci	a11, 31, 0x6c26
    6bc5:	7718e1        	l32r	a14, 0xfffe4828
    6bc8:	771aa1        	l32r	a10, 0xfffe4830
    6bcb:	4b15e7        	beq	a5, a14, 0x6c1a
    6bce:	4b15a7        	beq	a5, a10, 0x6c1d
    6bd1:	1663d2        	s32i	a13, a3, 88
    6bd4:	272482        	l32i	a8, a4, 156
    6bd7:	1763d2        	s32i	a13, a3, 92
    6bda:	0008e0        	excw
    6bdd:	762481        	l32r	a8, 0xfffe4470
    6be0:	c52882        	l32i	a8, a8, 0x314
    6be3:	fa0c      	movi.n	a10, 15
    6be5:	0008e0        	excw
    6be8:	5b1c      	movi.n	a11, 21
    6bea:	767381        	l32r	a8, 0xfffe45b8
    6bed:	419850        	srli	a9, a5, 8
    6bf0:	1d0c      	movi.n	a13, 1
    6bf2:	0afd      	mov.n	a15, a10
    6bf4:	ce0c      	movi.n	a14, 12
    6bf6:	0a0aa2        	l8ui	a10, a10, 10
    6bf9:	0fcd      	mov.n	a12, a15
    6bfb:	aafa      	add.n	a10, a10, a15
    6bfd:	0c4ae2        	s8i	a14, a10, 12
    6c00:	0d4ad2        	s8i	a13, a10, 13
    6c03:	0e4a52        	s8i	a5, a10, 14
    6c06:	0f4a92        	s8i	a9, a10, 15
    6c09:	8888      	l32i.n	a8, a8, 32
    6c0b:	3a0c      	movi.n	a10, 3
    6c0d:	0008e0        	excw
    6c10:	4a2382        	l32i	a8, a3, 0x128
    6c13:	02ad      	mov.n	a10, a2
    6c15:	0008e0        	excw
    6c18:	f01d      	excw
    6c1a:	0895a7        	bne	a5, a10, 0x6c26
    6c1d:	771b91        	l32r	a9, 0xfffe488c
    6c20:	109b90        	and	a9, a11, a9
    6c23:	386c92        	s32i	a9, a12, 224
    6c26:	771ca1        	l32r	a10, 0xfffe4898
    6c29:	1595a7        	bne	a5, a10, 0x6c42
    6c2c:	1663d2        	s32i	a13, a3, 88
    6c2f:	272482        	l32i	a8, a4, 156
    6c32:	1763d2        	s32i	a13, a3, 92
    6c35:	0008e0        	excw
    6c38:	8d2482        	l32i	a8, a4, 0x234
    6c3b:	02ad      	mov.n	a10, a2
    6c3d:	0008e0        	excw
    6c40:	f01d      	excw
    6c42:	771181        	l32r	a8, 0xfffe4888
    6c45:	6888      	l32i.n	a8, a8, 24
    6c47:	02ad      	mov.n	a10, a2
    6c49:	0008e0        	excw
    6c4c:	f01d      	excw
    6c4e:	360000        	excw
    6c51:	0c0061        	l32r	a6, 0xfffc9c54
    6c54:	1e          	.byte 0x1e
    6c55:	768091        	l32r	a9, 0xfffe4658
    6c58:	7624f1        	l32r	a15, 0xfffe44e8
    6c5b:	7687c1        	l32r	a12, 0xfffe4678
    6c5e:	2a0c      	movi.n	a10, 2
    6c60:	000362        	l8ui	a6, a3, 0
    6c63:	02dd      	mov.n	a13, a2
    6c65:	0b0c      	movi.n	a11, 0
    6c67:	764521        	l32r	a2, 0xfffe457c
    6c6a:	0041b2        	s8i	a11, a1, 0
    6c6d:	0055a2        	s16i	a10, a5, 0
    6c70:	0e0616        	beqz	a6, 0x6d54
    6c73:	762771        	l32r	a7, 0xfffe4510
    6c76:	860b      	addi.n	a8, a6, -1
    6c78:	1ee816        	beqz	a8, 0x6e6a
    6c7b:	b0a0a2        	movi	a10, 176
    6c7e:	302626        	beqi	a6, 2, 0x6cb2
    6c81:	fdc682        	addi	a8, a6, -3
    6c84:	20e816        	beqz	a8, 0x6e96
    6c87:	f1a022        	movi	a2, 241
    6c8a:	6f4626        	beqi	a6, 4, 0x6cfd
    6c8d:	fbc6a2        	addi	a10, a6, -5
    6c90:	29da16        	beqz	a10, 0x6f31
    6c93:	771d71        	l32r	a7, 0xfffe4908
    6c96:	f8a022        	movi	a2, 248
    6c99:	fac682        	addi	a8, a6, -6
    6c9c:	08c816        	beqz	a8, 0x6d2c
    6c9f:	f9c6a2        	addi	a10, a6, -7
    6ca2:	2aca16        	beqz	a10, 0x6f52
    6ca5:	398626        	beqi	a6, 8, 0x6ce2
    6ca8:	0e2d      	mov.n	a2, a14
    6caa:	004462        	s8i	a6, a4, 0
    6cad:	014422        	s8i	a2, a4, 1
    6cb0:	f01d      	excw
    6cb2:	cd0b      	addi.n	a12, a13, -1
    6cb4:	74c0c0        	extui	a12, a12, 0, 8
    6cb7:	6c9ca7        	bne	a12, a10, 0x6d27
    6cba:	02dfc2        	addmi	a12, a15, 0x200
    6cbd:	8e03d2        	l8ui	a13, a3, 142
    6cc0:	8d03e2        	l8ui	a14, a3, 141
    6cc3:	11dd80        	slli	a13, a13, 8
    6cc6:	20dde0        	or	a13, a13, a14
    6cc9:	7614e1        	l32r	a14, 0xfffe451c
    6ccc:	e02cc2        	l32i	a12, a12, 0x380
    6ccf:	125ed2        	s16i	a13, a14, 36
    6cd2:	04d0d0        	extui	a13, a13, 0, 1
    6cd5:	0acd16        	beqz	a13, 0x6d85
    6cd8:	0a4c      	movi.n	a10, 64
    6cda:	1b0c      	movi.n	a11, 1
    6cdc:	000ce0        	excw
    6cdf:	0029c6        	j	0x6d8a
    6ce2:	09a8      	l32i.n	a10, a9, 0
    6ce4:	382aa2        	l32i	a10, a10, 224
    6ce7:	10aac0        	and	a10, a10, a12
    6cea:	83bea0        	moveqz	a11, a14, a10
    6ced:	0244b2        	s8i	a11, a4, 2
    6cf0:	001592        	l16ui	a9, a5, 0
    6cf3:	991b      	addi.n	a9, a9, 1
    6cf5:	005592        	s16i	a9, a5, 0
    6cf8:	020c      	movi.n	a2, 0
    6cfa:	ffeb06        	j	0x6caa
    6cfd:	bd0b      	addi.n	a11, a13, -1
    6cff:	74b0b0        	extui	a11, a11, 0, 8
    6d02:	4932b7        	bltu	a2, a11, 0x6d4f
    6d05:	a31b      	addi.n	a10, a3, 1
    6d07:	b11b      	addi.n	a11, a1, 1
    6d09:	c12b      	addi.n	a12, a1, 2
    6d0b:	02df82        	addmi	a8, a15, 0x200
    6d0e:	882882        	l32i	a8, a8, 0x220
    6d11:	d14b      	addi.n	a13, a1, 4
    6d13:	0008e0        	excw
    6d16:	f4a0a0        	extui	a10, a10, 0, 16
    6d19:	f0a092        	movi	a9, 240
    6d1c:	0239a7        	bltu	a9, a10, 0x6d22
    6d1f:	009186        	j	0x6f69
    6d22:	623c      	movi.n	a2, 54
    6d24:	ffe086        	j	0x6caa
    6d27:	221c      	movi.n	a2, 18
    6d29:	ffdf46        	j	0x6caa
    6d2c:	cd0b      	addi.n	a12, a13, -1
    6d2e:	74c0c0        	extui	a12, a12, 0, 8
    6d31:	159c27        	bne	a12, a2, 0x6d4a
    6d34:	02cd      	mov.n	a12, a2
    6d36:	07ad      	mov.n	a10, a7
    6d38:	0313a5        	excw
    6d3b:	07ad      	mov.n	a10, a7
    6d3d:	b31b      	addi.n	a11, a3, 1
    6d3f:	f8a0c2        	movi	a12, 248
    6d42:	030125        	excw
    6d45:	020c      	movi.n	a2, 0
    6d47:	ffd7c6        	j	0x6caa
    6d4a:	221c      	movi.n	a2, 18
    6d4c:	ffd686        	j	0x6caa
    6d4f:	221c      	movi.n	a2, 18
    6d51:	ffd546        	j	0x6caa
    6d54:	0bad      	mov.n	a10, a11
    6d56:	09d8      	l32i.n	a13, a9, 0
    6d58:	1e2f82        	l32i	a8, a15, 120
    6d5b:	382db2        	l32i	a11, a13, 224
    6d5e:	190c      	movi.n	a9, 1
    6d60:	20bbc0        	or	a11, a11, a12
    6d63:	386db2        	s32i	a11, a13, 224
    6d66:	166292        	s32i	a9, a2, 88
    6d69:	0008e0        	excw
    6d6c:	bcd1e5        	excw
    6d6f:	771581        	l32r	a8, 0xfffe49c4
    6d72:	652882        	l32i	a8, a8, 0x194
    6d75:	0008e0        	excw
    6d78:	768c81        	l32r	a8, 0xfffe47a8
    6d7b:	a888      	l32i.n	a8, a8, 40
    6d7d:	fa0c      	movi.n	a10, 15
    6d7f:	0008e0        	excw
    6d82:	ffdc86        	j	0x6cf8
    6d85:	0a4c      	movi.n	a10, 64
    6d87:	000ce0        	excw
    6d8a:	18c3b2        	addi	a11, a3, 24
    6d8d:	64a0c2        	movi	a12, 100
    6d90:	771ea1        	l32r	a10, 0xfffe4a08
    6d93:	040392        	l8ui	a9, a3, 4
    6d96:	c74a92        	s8i	a9, a10, 199
    6d99:	02fba5        	excw
    6d9c:	771f51        	l32r	a5, 0xfffe4a18
    6d9f:	02ad      	mov.n	a10, a2
    6da1:	7cc3b2        	addi	a11, a3, 124
    6da4:	8c0c      	movi.n	a12, 8
    6da6:	02fae5        	excw
    6da9:	05ad      	mov.n	a10, a5
    6dab:	8c0c      	movi.n	a12, 8
    6dad:	84a0b2        	movi	a11, 132
    6db0:	b3ba      	add.n	a11, a3, a11
    6db2:	02fa25        	excw
    6db5:	7720a1        	l32r	a10, 0xfffe4a38
    6db8:	763981        	l32r	a8, 0xfffe469c
    6dbb:	0b0c      	movi.n	a11, 0
    6dbd:	a888      	l32i.n	a8, a8, 40
    6dbf:	0c0c      	movi.n	a12, 0
    6dc1:	0008e0        	excw
    6dc4:	852782        	l32i	a8, a7, 0x214
    6dc7:	9003a2        	l8ui	a10, a3, 144
    6dca:	8f03b2        	l8ui	a11, a3, 143
    6dcd:	11aa80        	slli	a10, a10, 8
    6dd0:	20aab0        	or	a10, a10, a11
    6dd3:	0008e0        	excw
    6dd6:	e82782        	l32i	a8, a7, 0x3a0
    6dd9:	9203a2        	l8ui	a10, a3, 146
    6ddc:	9103b2        	l8ui	a11, a3, 145
    6ddf:	11aa80        	slli	a10, a10, 8
    6de2:	20aab0        	or	a10, a10, a11
    6de5:	9403b2        	l8ui	a11, a3, 148
    6de8:	9303c2        	l8ui	a12, a3, 147
    6deb:	11bb80        	slli	a11, a11, 8
    6dee:	20bbc0        	or	a11, a11, a12
    6df1:	0008e0        	excw
    6df4:	ea2782        	l32i	a8, a7, 0x3a8
    6df7:	9503a2        	l8ui	a10, a3, 149
    6dfa:	0008e0        	excw
    6dfd:	ec2782        	l32i	a8, a7, 0x3b0
    6e00:	9803a2        	l8ui	a10, a3, 152
    6e03:	9703b2        	l8ui	a11, a3, 151
    6e06:	11aa80        	slli	a10, a10, 8
    6e09:	20aab0        	or	a10, a10, a11
    6e0c:	9a03b2        	l8ui	a11, a3, 154
    6e0f:	9903c2        	l8ui	a12, a3, 153
    6e12:	11bb80        	slli	a11, a11, 8
    6e15:	20bbc0        	or	a11, a11, a12
    6e18:	0008e0        	excw
    6e1b:	ee2782        	l32i	a8, a7, 0x3b8
    6e1e:	9603a2        	l8ui	a10, a3, 150
    6e21:	0008e0        	excw
    6e24:	761a91        	l32r	a9, 0xfffe468c
    6e27:	760f81        	l32r	a8, 0xfffe4664
    6e2a:	0203a2        	l8ui	a10, a3, 2
    6e2d:	d32882        	l32i	a8, a8, 0x34c
    6e30:	5949a2        	s8i	a10, a9, 89
    6e33:	0008e0        	excw
    6e36:	772151        	l32r	a5, 0xfffe4abc
    6e39:	9da0a2        	movi	a10, 157
    6e3c:	e42782        	l32i	a8, a7, 0x390
    6e3f:	a3aa      	add.n	a10, a3, a10
    6e41:	0008e0        	excw
    6e44:	05ad      	mov.n	a10, a5
    6e46:	761a71        	l32r	a7, 0xfffe46b0
    6e49:	cc0c      	movi.n	a12, 12
    6e4b:	a1a0b2        	movi	a11, 161
    6e4e:	b3ba      	add.n	a11, a3, a11
    6e50:	02f025        	excw
    6e53:	ad03e2        	l8ui	a14, a3, 173
    6e56:	0d42e2        	s8i	a14, a2, 13
    6e59:	ae03d2        	l8ui	a13, a3, 174
    6e5c:	0e42d2        	s8i	a13, a2, 14
    6e5f:	020c      	movi.n	a2, 0
    6e61:	0503c2        	l8ui	a12, a3, 5
    6e64:	5c47c2        	s8i	a12, a7, 92
    6e67:	ff8fc6        	j	0x6caa
    6e6a:	e12782        	l32i	a8, a7, 0x384
    6e6d:	09c8      	l32i.n	a12, a9, 0
    6e6f:	771bd1        	l32r	a13, 0xfffe4adc
    6e72:	382cb2        	l32i	a11, a12, 224
    6e75:	761ba1        	l32r	a10, 0xfffe46e4
    6e78:	10bbd0        	and	a11, a11, a13
    6e7b:	386cb2        	s32i	a11, a12, 224
    6e7e:	dc0aa2        	l8ui	a10, a10, 220
    6e81:	2b0c      	movi.n	a11, 2
    6e83:	10bab0        	and	a11, a10, a11
    6e86:	04a0a0        	extui	a10, a10, 0, 1
    6e89:	0008e0        	excw
    6e8c:	7722e1        	l32r	a14, 0xfffe4b14
    6e8f:	1d0c      	movi.n	a13, 1
    6e91:	2ed9      	s32i.n	a13, a14, 8
    6e93:	ff9846        	j	0x6cf8
    6e96:	b0a032        	movi	a3, 176
    6e99:	a42b      	addi.n	a10, a4, 2
    6e9b:	7723b1        	l32r	a11, 0xfffe4b28
    6e9e:	8c1c      	movi.n	a12, 24
    6ea0:	02eb25        	excw
    6ea3:	771eb1        	l32r	a11, 0xfffe4b1c
    6ea6:	19c4a2        	addi	a10, a4, 25
    6ea9:	64a0c2        	movi	a12, 100
    6eac:	02ea65        	excw
    6eaf:	7dc4a2        	addi	a10, a4, 125
    6eb2:	02bd      	mov.n	a11, a2
    6eb4:	8c0c      	movi.n	a12, 8
    6eb6:	02e9e5        	excw
    6eb9:	771fb1        	l32r	a11, 0xfffe4b38
    6ebc:	8c0c      	movi.n	a12, 8
    6ebe:	85a0a2        	movi	a10, 133
    6ec1:	a4aa      	add.n	a10, a4, a10
    6ec3:	02e925        	excw
    6ec6:	eb2782        	l32i	a8, a7, 0x3ac
    6ec9:	772491        	l32r	a9, 0xfffe4b5c
    6ecc:	7614c1        	l32r	a12, 0xfffe471c
    6ecf:	fcd9b2        	addmi	a11, a9, 0xfffffc00
    6ed2:	121cc2        	l16ui	a12, a12, 36
    6ed5:	4754c2        	s16i	a12, a4, 142
    6ed8:	df1bb2        	l16ui	a11, a11, 0x1be
    6edb:	4854b2        	s16i	a11, a4, 144
    6ede:	4119a2        	l16ui	a10, a9, 130
    6ee1:	4954a2        	s16i	a10, a4, 146
    6ee4:	421992        	l16ui	a9, a9, 132
    6ee7:	4a5492        	s16i	a9, a4, 148
    6eea:	0008e0        	excw
    6eed:	772491        	l32r	a9, 0xfffe4b80
    6ef0:	9644a2        	s8i	a10, a4, 150
    6ef3:	ef2782        	l32i	a8, a7, 0x3bc
    6ef6:	4319a2        	l16ui	a10, a9, 134
    6ef9:	4c54a2        	s16i	a10, a4, 152
    6efc:	441992        	l16ui	a9, a9, 136
    6eff:	4d5492        	s16i	a9, a4, 154
    6f02:	0008e0        	excw
    6f05:	9744a2        	s8i	a10, a4, 151
    6f08:	9ea0a2        	movi	a10, 158
    6f0b:	e52782        	l32i	a8, a7, 0x394
    6f0e:	a4aa      	add.n	a10, a4, a10
    6f10:	0008e0        	excw
    6f13:	7721b1        	l32r	a11, 0xfffe4b98
    6f16:	cc0c      	movi.n	a12, 12
    6f18:	a2a0a2        	movi	a10, 162
    6f1b:	a4aa      	add.n	a10, a4, a10
    6f1d:	02e365        	excw
    6f20:	2139      	s32i.n	a3, a1, 8
    6f22:	0d02e2        	l8ui	a14, a2, 13
    6f25:	ae44e2        	s8i	a14, a4, 174
    6f28:	0e02d2        	l8ui	a13, a2, 14
    6f2b:	af44d2        	s8i	a13, a4, 175
    6f2e:	000586        	j	0x6f48
    6f31:	02cd      	mov.n	a12, a2
    6f33:	342b      	addi.n	a3, a4, 2
    6f35:	03ad      	mov.n	a10, a3
    6f37:	02f3e5        	excw
    6f3a:	03ad      	mov.n	a10, a3
    6f3c:	b43b      	addi.n	a11, a4, 3
    6f3e:	f12782        	l32i	a8, a7, 0x3c4
    6f41:	01cd      	mov.n	a12, a1
    6f43:	0008e0        	excw
    6f46:	2129      	s32i.n	a2, a1, 8
    6f48:	21a8      	l32i.n	a10, a1, 8
    6f4a:	001592        	l16ui	a9, a5, 0
    6f4d:	99aa      	add.n	a9, a9, a10
    6f4f:	ff6886        	j	0x6cf5
    6f52:	2f88      	l32i.n	a8, a15, 8
    6f54:	0008e0        	excw
    6f57:	07bd      	mov.n	a11, a7
    6f59:	a42b      	addi.n	a10, a4, 2
    6f5b:	f8a0c2        	movi	a12, 248
    6f5e:	02df65        	excw
    6f61:	001592        	l16ui	a9, a5, 0
    6f64:	992a      	add.n	a9, a9, a2
    6f66:	ff62c6        	j	0x6cf5
    6f69:	0101a2        	l8ui	a10, a1, 1
    6f6c:	11b8      	l32i.n	a11, a1, 4
    6f6e:	f02782        	l32i	a8, a7, 0x3c0
    6f71:	0201c2        	l8ui	a12, a1, 2
    6f74:	0008e0        	excw
    6f77:	020c      	movi.n	a2, 0
    6f79:	ff4b46        	j	0x6caa
    6f7c:	004136        	excw
    6f7f:	764561        	l32r	a6, 0xfffe4894
    6f82:	312682        	l32i	a8, a6, 196
    6f85:	7a0c      	movi.n	a10, 7
    6f87:	0008e0        	excw
    6f8a:	0a7d      	mov.n	a7, a10
    6f8c:	312682        	l32i	a8, a6, 196
    6f8f:	7a0c      	movi.n	a10, 7
    6f91:	0008e0        	excw
    6f94:	0a5d      	mov.n	a5, a10
    6f96:	322682        	l32i	a8, a6, 200
    6f99:	7a0c      	movi.n	a10, 7
    6f9b:	0008e0        	excw
    6f9e:	766e91        	l32r	a9, 0xfffe4958
    6fa1:	b45a      	add.n	a11, a4, a5
    6fa3:	aaba      	add.n	a10, a10, a11
    6fa5:	5d1992        	l16ui	a9, a9, 186
    6fa8:	aa3b      	addi.n	a10, a10, 3
    6faa:	f4a0a0        	extui	a10, a10, 0, 16
    6fad:	07b9a7        	bgeu	a9, a10, 0x6fb8
    6fb0:	7725a1        	l32r	a10, 0xfffe4c44
    6fb3:	0b0c      	movi.n	a11, 0
    6fb5:	b25ee5        	excw
    6fb8:	747a      	add.n	a7, a4, a7
    6fba:	764381        	l32r	a8, 0xfffe48c8
    6fbd:	773b      	addi.n	a7, a7, 3
    6fbf:	8888      	l32i.n	a8, a8, 32
    6fc1:	f4a070        	extui	a10, a7, 0, 16
    6fc4:	0008e0        	excw
    6fc7:	0a5d      	mov.n	a5, a10
    6fc9:	8acc      	bnez.n	a10, 0x6fd5
    6fcb:	7725a1        	l32r	a10, 0xfffe4c60
    6fce:	0b0c      	movi.n	a11, 0
    6fd0:	b25d25        	excw
    6fd3:	f01d      	excw
    6fd5:	841b      	addi.n	a8, a4, 1
    6fd7:	0a0ad2        	l8ui	a13, a10, 10
    6fda:	ffa092        	movi	a9, 255
    6fdd:	ddaa      	add.n	a13, a13, a10
    6fdf:	0e4d22        	s8i	a2, a13, 14
    6fe2:	0c4d92        	s8i	a9, a13, 12
    6fe5:	0d4d82        	s8i	a8, a13, 13
    6fe8:	738c      	beqz.n	a3, 0x6ff3
    6fea:	03bd      	mov.n	a11, a3
    6fec:	04cd      	mov.n	a12, a4
    6fee:	adfb      	addi.n	a10, a13, 15
    6ff0:	02d625        	excw
    6ff3:	760721        	l32r	a2, 0xfffe4810
    6ff6:	025572        	s16i	a7, a5, 4
    6ff9:	d288      	l32i.n	a8, a2, 52
    6ffb:	7a0c      	movi.n	a10, 7
    6ffd:	0008e0        	excw
    7000:	0abd      	mov.n	a11, a10
    7002:	9288      	l32i.n	a8, a2, 36
    7004:	05ad      	mov.n	a10, a5
    7006:	0008e0        	excw
    7009:	402682        	l32i	a8, a6, 0x100
    700c:	05ad      	mov.n	a10, a5
    700e:	0008e0        	excw
    7011:	f01d      	excw
    7013:	413600        	srli	a3, a0, 6
    7016:	804100        	add	a4, a1, a0
    7019:	049876        	excw
    701c:	322992        	l32i	a9, a9, 200
    701f:	b9cc      	bnez.n	a9, 0x702e
    7021:	7725a1        	l32r	a10, 0xfffe4cb8
    7024:	0b0c      	movi.n	a11, 0
    7026:	b257e5        	excw
    7029:	0498      	l32i.n	a9, a4, 0
    702b:	322992        	l32i	a9, a9, 200
    702e:	1a0c      	movi.n	a10, 1
    7030:	771121        	l32r	a2, 0xfffe4c74
    7033:	772631        	l32r	a3, 0xfffe4ccc
    7036:	042926        	beqi	a9, 2, 0x703e
    7039:	013926        	beqi	a9, 3, 0x703e
    703c:	0a0c      	movi.n	a10, 0
    703e:	7a8c      	beqz.n	a10, 0x7049
    7040:	7727a1        	l32r	a10, 0xfffe4cdc
    7043:	1063a2        	s32i	a10, a3, 64
    7046:	000a46        	j	0x7073
    7049:	b9cc      	bnez.n	a9, 0x7058
    704b:	7725a1        	l32r	a10, 0xfffe4ce0
    704e:	0b0c      	movi.n	a11, 0
    7050:	b25525        	excw
    7053:	0498      	l32i.n	a9, a4, 0
    7055:	322992        	l32i	a9, a9, 200
    7058:	171966        	bnei	a9, 1, 0x7073
    705b:	7728a1        	l32r	a10, 0xfffe4cfc
    705e:	7645c1        	l32r	a12, 0xfffe4974
    7061:	7729b1        	l32r	a11, 0xfffe4d08
    7064:	472cd2        	l32i	a13, a12, 0x11c
    7067:	372ce2        	l32i	a14, a12, 220
    706a:	12e9      	s32i.n	a14, a2, 4
    706c:	42d9      	s32i.n	a13, a2, 16
    706e:	376cb2        	s32i	a11, a12, 220
    7071:	73a9      	s32i.n	a10, a3, 28
    7073:	772da1        	l32r	a10, 0xfffe4d28
    7076:	772cb1        	l32r	a11, 0xfffe4d28
    7079:	772a81        	l32r	a8, 0xfffe4d24
    707c:	772bc1        	l32r	a12, 0xfffe4d28
    707f:	cd28f2        	l32i	a15, a8, 0x334
    7082:	762892        	l32i	a9, a8, 0x1d8
    7085:	5528d2        	l32i	a13, a8, 0x154
    7088:	6c28e2        	l32i	a14, a8, 0x1b0
    708b:	32e9      	s32i.n	a14, a2, 12
    708d:	62d9      	s32i.n	a13, a2, 24
    708f:	7668c2        	s32i	a12, a8, 0x1d8
    7092:	cd68b2        	s32i	a11, a8, 0x334
    7095:	6c68a2        	s32i	a10, a8, 0x1b0
    7098:	22f9      	s32i.n	a15, a2, 8
    709a:	0299      	s32i.n	a9, a2, 0
    709c:	772ff1        	l32r	a15, 0xfffe4d58
    709f:	772e91        	l32r	a9, 0xfffe4d58
    70a2:	556892        	s32i	a9, a8, 0x154
    70a5:	6e68f2        	s32i	a15, a8, 0x1b8
    70a8:	f01d      	excw
    70aa:	360000        	excw
    70ad:	420041        	l32r	a4, 0xfffd78b0
    70b0:	5178a1        	l32r	a10, 0xfffdb690
    70b3:	76bc      	beqz.n	a6, 0x70ee
    70b5:	c14240        	mul16u	a4, a2, a4
    70b8:	2e25a2        	l32i	a10, a5, 184
    70bb:	aa4a      	add.n	a10, a10, a4
    70bd:	040aa2        	l8ui	a10, a10, 4
    70c0:	da9c      	beqz.n	a10, 0x70e1
    70c2:	1bba26        	beqi	a10, 16, 0x70e1
    70c5:	183a26        	beqi	a10, 3, 0x70e1
    70c8:	157a26        	beqi	a10, 7, 0x70e1
    70cb:	769d91        	l32r	a9, 0xfffe4b40
    70ce:	949a      	add.n	a9, a4, a9
    70d0:	800992        	l8ui	a9, a9, 128
    70d3:	1a1926        	beqi	a9, 1, 0x70f1
    70d6:	07aa26        	beqi	a10, 12, 0x70e1
    70d9:	141926        	beqi	a9, 1, 0x70f1
    70dc:	cb1c      	movi.n	a11, 28
    70de:	0f9ab7        	bne	a10, a11, 0x70f1
    70e1:	773081        	l32r	a8, 0xfffe4da4
    70e4:	02ad      	mov.n	a10, a2
    70e6:	0888      	l32i.n	a8, a8, 0
    70e8:	03bd      	mov.n	a11, a3
    70ea:	0008e0        	excw
    70ed:	0a2d      	mov.n	a2, a10
    70ef:	f01d      	excw
    70f1:	763981        	l32r	a8, 0xfffe49d8
    70f4:	512882        	l32i	a8, a8, 0x144
    70f7:	02ad      	mov.n	a10, a2
    70f9:	0008e0        	excw
    70fc:	ea0c      	movi.n	a10, 14
    70fe:	0d0c      	movi.n	a13, 0
    7100:	764181        	l32r	a8, 0xfffe4a04
    7103:	2e25b2        	l32i	a11, a5, 184
    7106:	1e0c      	movi.n	a14, 1
    7108:	11c280        	slli	a12, a2, 8
    710b:	20cce0        	or	a12, a12, a14
    710e:	bb4a      	add.n	a11, a11, a4
    7110:	261bb2        	l16ui	a11, a11, 76
    7113:	7888      	l32i.n	a8, a8, 28
    7115:	a0bbb0        	addx4	a11, a11, a11
    7118:	11bbf0        	slli	a11, a11, 1
    711b:	0008e0        	excw
    711e:	2e25f2        	l32i	a15, a5, 184
    7121:	620c      	movi.n	a2, 6
    7123:	ff4a      	add.n	a15, a15, a4
    7125:	385fa2        	s16i	a10, a15, 112
    7128:	f01d      	excw
    712a:	360000        	excw
    712d:	4201c1        	l32r	a12, 0xfffd7934
    7130:	521b61        	l32r	a6, 0xfffdb99c
    7133:	691e61        	l32r	a6, 0xfffe15ac
    7136:	6132f1        	l32r	a15, 0xfffdf600
    7139:	612216        	beqz	a2, 0x774f
    713c:	9219      	s32i.n	a1, a2, 36
    713e:	821921        	l32r	a2, 0xfffe79a4
    7141:	791621        	l32r	a2, 0xfffe559c
    7144:	b897e1        	l32r	a14, 0xffff53a0
    7147:	ee0602        	l8ui	a0, a6, 238
    714a:	060c00        	excw
    714d:	f77c      	movi.n	a7, -1
    714f:	1e21f2        	l32i	a15, a1, 120
    7152:	1a0c      	movi.n	a10, 1
    7154:	040c      	movi.n	a4, 0
    7156:	0b0c      	movi.n	a11, 0
    7158:	0c0c      	movi.n	a12, 0
    715a:	0d0c      	movi.n	a13, 0
    715c:	1e0c      	movi.n	a14, 1
    715e:	1261e2        	s32i	a14, a1, 72
    7161:	1761d2        	s32i	a13, a1, 92
    7164:	1161c2        	s32i	a12, a1, 68
    7167:	1861b2        	s32i	a11, a1, 96
    716a:	1a6142        	s32i	a4, a1, 104
    716d:	1361a2        	s32i	a10, a1, 76
    7170:	140c      	movi.n	a4, 1
    7172:	000ff2        	l8ui	a15, a15, 0
    7175:	1561f2        	s32i	a15, a1, 84
    7178:	152182        	l32i	a8, a1, 84
    717b:	030c      	movi.n	a3, 0
    717d:	05d816        	beqz	a8, 0x71de
    7180:	1e2122        	l32i	a2, a1, 120
    7183:	015d      	mov.n	a5, a1
    7185:	1921a2        	l32i	a10, a1, 100
    7188:	1a2192        	l32i	a9, a1, 104
    718b:	0b0c      	movi.n	a11, 0
    718d:	0c0c      	movi.n	a12, 0
    718f:	2461c2        	s32i	a12, a1, 144
    7192:	1f61b2        	s32i	a11, a1, 124
    7195:	99aa      	add.n	a9, a9, a10
    7197:	f49090        	extui	a9, a9, 0, 16
    719a:	236192        	s32i	a9, a1, 140
    719d:	762981        	l32r	a8, 0xfffe4a44
    71a0:	0412a2        	l16ui	a10, a2, 8
    71a3:	7888      	l32i.n	a8, a8, 28
    71a5:	2321b2        	l32i	a11, a1, 140
    71a8:	0008e0        	excw
    71ab:	0055a2        	s16i	a10, a5, 0
    71ae:	162ab6        	bltui	a10, 2, 0x71c8
    71b1:	1f21c2        	l32i	a12, a1, 124
    71b4:	242192        	l32i	a9, a1, 144
    71b7:	dc1b      	addi.n	a13, a12, 1
    71b9:	73ba90        	excw
    71bc:	f490b0        	extui	a9, a11, 0, 16
    71bf:	f4c0d0        	extui	a12, a13, 0, 16
    71c2:	1f61c2        	s32i	a12, a1, 124
    71c5:	246192        	s32i	a9, a1, 144
    71c8:	552b      	addi.n	a5, a5, 2
    71ca:	1e21c2        	l32i	a12, a1, 120
    71cd:	14c222        	addi	a2, a2, 20
    71d0:	000cc2        	l8ui	a12, a12, 0
    71d3:	331b      	addi.n	a3, a3, 1
    71d5:	c433c7        	bltu	a3, a12, 0x719d
    71d8:	1561c2        	s32i	a12, a1, 84
    71db:	000246        	j	0x71e8
    71de:	0d0c      	movi.n	a13, 0
    71e0:	0e0c      	movi.n	a14, 0
    71e2:	2461e2        	s32i	a14, a1, 144
    71e5:	1f61d2        	s32i	a13, a1, 124
    71e8:	182182        	l32i	a8, a1, 96
    71eb:	1f21f2        	l32i	a15, a1, 124
    71ee:	02bf87        	bgeu	a15, a8, 0x71f4
    71f1:	0048c6        	j	0x7318
    71f4:	172192        	l32i	a9, a1, 92
    71f7:	1861f2        	s32i	a15, a1, 96
    71fa:	b9ec      	bnez.n	a9, 0x7229
    71fc:	1121b2        	l32i	a11, a1, 68
    71ff:	6bec      	bnez.n	a11, 0x7229
    7201:	1921c2        	l32i	a12, a1, 100
    7204:	1a21a2        	l32i	a10, a1, 104
    7207:	3b0c      	movi.n	a11, 3
    7209:	aaca      	add.n	a10, a10, a12
    720b:	1461a2        	s32i	a10, a1, 80
    720e:	f4a0a0        	extui	a10, a10, 0, 16
    7211:	02a925        	excw
    7214:	8a8c      	beqz.n	a10, 0x7220
    7216:	1321a2        	l32i	a10, a1, 76
    7219:	3b0c      	movi.n	a11, 3
    721b:	02a8a5        	excw
    721e:	7a8c      	beqz.n	a10, 0x7229
    7220:	1421d2        	l32i	a13, a1, 80
    7223:	f4d0d0        	extui	a13, a13, 0, 16
    7226:	1361d2        	s32i	a13, a1, 76
    7229:	1f21e2        	l32i	a14, a1, 124
    722c:	1521f2        	l32i	a15, a1, 84
    722f:	2061f2        	s32i	a15, a1, 128
    7232:	f4f0f0        	extui	a15, a15, 0, 16
    7235:	02bef7        	bgeu	a14, a15, 0x723b
    7238:	003706        	j	0x7318
    723b:	1921a2        	l32i	a10, a1, 100
    723e:	1a2192        	l32i	a9, a1, 104
    7241:	242122        	l32i	a2, a1, 144
    7244:	2c6122        	s32i	a2, a1, 176
    7247:	f42020        	extui	a2, a2, 0, 16
    724a:	99aa      	add.n	a9, a9, a10
    724c:	146192        	s32i	a9, a1, 80
    724f:	f49090        	extui	a9, a9, 0, 16
    7252:	236192        	s32i	a9, a1, 140
    7255:	02b927        	bgeu	a9, a2, 0x725b
    7258:	003606        	j	0x7334
    725b:	018d      	mov.n	a8, a1
    725d:	242192        	l32i	a9, a1, 144
    7260:	202132        	l32i	a3, a1, 128
    7263:	256192        	s32i	a9, a1, 148
    7266:	903380        	addx2	a3, a3, a8
    7269:	2021a2        	l32i	a10, a1, 128
    726c:	4a9c      	beqz.n	a10, 0x7284
    726e:	015d      	mov.n	a5, a1
    7270:	02ad      	mov.n	a10, a2
    7272:	0015b2        	l16ui	a11, a5, 0
    7275:	02a2e5        	excw
    7278:	3a8c      	beqz.n	a10, 0x727f
    727a:	090c      	movi.n	a9, 0
    727c:	000186        	j	0x7286
    727f:	552b      	addi.n	a5, a5, 2
    7281:	eb9537        	bne	a5, a3, 0x7270
    7284:	190c      	movi.n	a9, 1
    7286:	0b9956        	bnez	a9, 0x7343
    7289:	2321b2        	l32i	a11, a1, 140
    728c:	2421d2        	l32i	a13, a1, 144
    728f:	2521c2        	l32i	a12, a1, 148
    7292:	22da      	add.n	a2, a2, a13
    7294:	ccda      	add.n	a12, a12, a13
    7296:	f42020        	extui	a2, a2, 0, 16
    7299:	2561c2        	s32i	a12, a1, 148
    729c:	f4c0c0        	extui	a12, a12, 0, 16
    729f:	2c61c2        	s32i	a12, a1, 176
    72a2:	c3bb27        	bgeu	a11, a2, 0x7269
    72a5:	002446        	j	0x733a
    72a8:	2321a2        	l32i	a10, a1, 140
    72ab:	3b0c      	movi.n	a11, 3
    72ad:	029f65        	excw
    72b0:	0a5d      	mov.n	a5, a10
    72b2:	858c      	beqz.n	a5, 0x72be
    72b4:	1321a2        	l32i	a10, a1, 76
    72b7:	3b0c      	movi.n	a11, 3
    72b9:	029ea5        	excw
    72bc:	9a9c      	beqz.n	a10, 0x72d9
    72be:	142182        	l32i	a8, a1, 80
    72c1:	1d2192        	l32i	a9, a1, 116
    72c4:	2621a2        	l32i	a10, a1, 152
    72c7:	2221b2        	l32i	a11, a1, 136
    72ca:	1761b2        	s32i	a11, a1, 92
    72cd:	1261a2        	s32i	a10, a1, 72
    72d0:	106192        	s32i	a9, a1, 64
    72d3:	f48080        	extui	a8, a8, 0, 16
    72d6:	136182        	s32i	a8, a1, 76
    72d9:	1721c2        	l32i	a12, a1, 92
    72dc:	8cfc      	bnez.n	a12, 0x7318
    72de:	2321a2        	l32i	a10, a1, 140
    72e1:	3b0c      	movi.n	a11, 3
    72e3:	029c25        	excw
    72e6:	1121e2        	l32i	a14, a1, 68
    72e9:	2c21d2        	l32i	a13, a1, 176
    72ec:	0a5d      	mov.n	a5, a10
    72ee:	0bbde7        	bgeu	a13, a14, 0x72fd
    72f1:	3aec      	bnez.n	a10, 0x7318
    72f3:	1321a2        	l32i	a10, a1, 76
    72f6:	3b0c      	movi.n	a11, 3
    72f8:	029aa5        	excw
    72fb:	9a9c      	beqz.n	a10, 0x7318
    72fd:	858c      	beqz.n	a5, 0x7309
    72ff:	1321a2        	l32i	a10, a1, 76
    7302:	3b0c      	movi.n	a11, 3
    7304:	0299e5        	excw
    7307:	da8c      	beqz.n	a10, 0x7318
    7309:	2c21f2        	l32i	a15, a1, 176
    730c:	142182        	l32i	a8, a1, 80
    730f:	1161f2        	s32i	a15, a1, 68
    7312:	f48080        	extui	a8, a8, 0, 16
    7315:	136182        	s32i	a8, a1, 76
    7318:	162192        	l32i	a9, a1, 88
    731b:	1a21a2        	l32i	a10, a1, 104
    731e:	1921b2        	l32i	a11, a1, 100
    7321:	aa1b      	addi.n	a10, a10, 1
    7323:	1a61a2        	s32i	a10, a1, 104
    7326:	aaba      	add.n	a10, a10, a11
    7328:	f4a0a0        	extui	a10, a10, 0, 16
    732b:	0239a7        	bltu	a9, a10, 0x7331
    732e:	ff9186        	j	0x7178
    7331:	007646        	j	0x750e
    7334:	2421c2        	l32i	a12, a1, 144
    7337:	2561c2        	s32i	a12, a1, 148
    733a:	2521d2        	l32i	a13, a1, 148
    733d:	f4d0d0        	extui	a13, a13, 0, 16
    7340:	2c61d2        	s32i	a13, a1, 176
    7343:	fd7c      	movi.n	a13, -1
    7345:	30c1c2        	addi	a12, a1, 48
    7348:	090c      	movi.n	a9, 0
    734a:	2e0c      	movi.n	a14, 2
    734c:	2c21f2        	l32i	a15, a1, 176
    734f:	084c      	movi.n	a8, 64
    7351:	438f80        	excw
    7354:	f4f080        	extui	a15, a8, 0, 16
    7357:	2c61f2        	s32i	a15, a1, 176
    735a:	05ae76        	excw
    735d:	a9ca      	add.n	a10, a9, a12
    735f:	0ad9      	s32i.n	a13, a10, 0
    7361:	994b      	addi.n	a9, a9, 4
    7363:	2021b2        	l32i	a11, a1, 128
    7366:	0e9b16        	beqz	a11, 0x7453
    7369:	d138      	l32i.n	a3, a1, 52
    736b:	c128      	l32i.n	a2, a1, 48
    736d:	2021c2        	l32i	a12, a1, 128
    7370:	01ed      	mov.n	a14, a1
    7372:	0f0c      	movi.n	a15, 0
    7374:	1e21d2        	l32i	a13, a1, 120
    7377:	2b61d2        	s32i	a13, a1, 172
    737a:	2961f2        	s32i	a15, a1, 164
    737d:	2161e2        	s32i	a14, a1, 132
    7380:	a0ccc0        	addx4	a12, a12, a12
    7383:	a0ccd0        	addx4	a12, a12, a13
    7386:	1c61c2        	s32i	a12, a1, 112
    7389:	2b21a2        	l32i	a10, a1, 172
    738c:	2121b2        	l32i	a11, a1, 132
    738f:	031aa2        	l16ui	a10, a10, 6
    7392:	001bb2        	l16ui	a11, a11, 0
    7395:	2761b2        	s32i	a11, a1, 156
    7398:	0290a5        	excw
    739b:	2c21d2        	l32i	a13, a1, 176
    739e:	1b21e2        	l32i	a14, a1, 108
    73a1:	2b21f2        	l32i	a15, a1, 172
    73a4:	f4c0a0        	extui	a12, a10, 0, 16
    73a7:	051ff2        	l16ui	a15, a15, 10
    73aa:	2d61c2        	s32i	a12, a1, 180
    73ad:	63eef0        	excw
    73b0:	2861e2        	s32i	a14, a1, 160
    73b3:	76bcd7        	bgeu	a12, a13, 0x742d
    73b6:	2d2192        	l32i	a9, a1, 180
    73b9:	8e9a      	add.n	a8, a14, a9
    73bb:	2f6182        	s32i	a8, a1, 188
    73be:	2821a2        	l32i	a10, a1, 160
    73c1:	2b21b2        	l32i	a11, a1, 172
    73c4:	042a16        	beqz	a10, 0x740a
    73c7:	2d2152        	l32i	a5, a1, 180
    73ca:	041bb2        	l16ui	a11, a11, 8
    73cd:	2e61b2        	s32i	a11, a1, 184
    73d0:	06bd      	mov.n	a11, a6
    73d2:	04ad      	mov.n	a10, a4
    73d4:	05cd      	mov.n	a12, a5
    73d6:	0290e5        	excw
    73d9:	30ca70        	xor	a12, a10, a7
    73dc:	30db70        	xor	a13, a11, a7
    73df:	1033d0        	and	a3, a3, a13
    73e2:	1022c0        	and	a2, a2, a12
    73e5:	05ad      	mov.n	a10, a5
    73e7:	2e21b2        	l32i	a11, a1, 184
    73ea:	028ba5        	excw
    73ed:	0acd      	mov.n	a12, a10
    73ef:	06bd      	mov.n	a11, a6
    73f1:	04ad      	mov.n	a10, a4
    73f3:	028f25        	excw
    73f6:	2f21e2        	l32i	a14, a1, 188
    73f9:	551b      	addi.n	a5, a5, 1
    73fb:	30fb70        	xor	a15, a11, a7
    73fe:	308a70        	xor	a8, a10, a7
    7401:	102280        	and	a2, a2, a8
    7404:	1033f0        	and	a3, a3, a15
    7407:	c595e7        	bne	a5, a14, 0x73d0
    740a:	2c21a2        	l32i	a10, a1, 176
    740d:	2721d2        	l32i	a13, a1, 156
    7410:	2d2192        	l32i	a9, a1, 180
    7413:	2921b2        	l32i	a11, a1, 164
    7416:	01cd      	mov.n	a12, a1
    7418:	bbca      	add.n	a11, a11, a12
    741a:	001bb2        	l16ui	a11, a11, 0
    741d:	2f21c2        	l32i	a12, a1, 188
    7420:	9b9a      	add.n	a9, a11, a9
    7422:	ccda      	add.n	a12, a12, a13
    7424:	2f61c2        	s32i	a12, a1, 188
    7427:	2d6192        	s32i	a9, a1, 180
    742a:	9039a7        	bltu	a9, a10, 0x73be
    742d:	1c21e2        	l32i	a14, a1, 112
    7430:	292182        	l32i	a8, a1, 164
    7433:	2b21d2        	l32i	a13, a1, 172
    7436:	2121f2        	l32i	a15, a1, 132
    7439:	14cdd2        	addi	a13, a13, 20
    743c:	ff2b      	addi.n	a15, a15, 2
    743e:	882b      	addi.n	a8, a8, 2
    7440:	296182        	s32i	a8, a1, 164
    7443:	2161f2        	s32i	a15, a1, 132
    7446:	2b61d2        	s32i	a13, a1, 172
    7449:	021de7        	beq	a13, a14, 0x744f
    744c:	ffce46        	j	0x7389
    744f:	d139      	s32i.n	a3, a1, 52
    7451:	c129      	s32i.n	a2, a1, 48
    7453:	2c2192        	l32i	a9, a1, 176
    7456:	05a916        	beqz	a9, 0x74b4
    7459:	050c      	movi.n	a5, 0
    745b:	d138      	l32i.n	a3, a1, 52
    745d:	c128      	l32i.n	a2, a1, 48
    745f:	0a0c      	movi.n	a10, 0
    7461:	0b0c      	movi.n	a11, 0
    7463:	0c0c      	movi.n	a12, 0
    7465:	2661c2        	s32i	a12, a1, 152
    7468:	2a61b2        	s32i	a11, a1, 168
    746b:	2261a2        	s32i	a10, a1, 136
    746e:	03bd      	mov.n	a11, a3
    7470:	02ad      	mov.n	a10, a2
    7472:	05cd      	mov.n	a12, a5
    7474:	028865        	excw
    7477:	290a47        	bnone	a10, a4, 0x74a4
    747a:	2221d2        	l32i	a13, a1, 136
    747d:	262182        	l32i	a8, a1, 152
    7480:	2a21e2        	l32i	a14, a1, 168
    7483:	981b      	addi.n	a9, a8, 1
    7485:	fe1b      	addi.n	a15, a14, 1
    7487:	f4e0f0        	extui	a14, a15, 0, 16
    748a:	f48090        	extui	a8, a9, 0, 16
    748d:	266182        	s32i	a8, a1, 152
    7490:	2a61e2        	s32i	a14, a1, 168
    7493:	12bde7        	bgeu	a13, a14, 0x74a9
    7496:	2261e2        	s32i	a14, a1, 136
    7499:	c0b5e0        	sub	a11, a5, a14
    749c:	bb1b      	addi.n	a11, a11, 1
    749e:	1d61b2        	s32i	a11, a1, 116
    74a1:	000106        	j	0x74a9
    74a4:	0c0c      	movi.n	a12, 0
    74a6:	2a61c2        	s32i	a12, a1, 168
    74a9:	2c21d2        	l32i	a13, a1, 176
    74ac:	551b      	addi.n	a5, a5, 1
    74ae:	bc95d7        	bne	a5, a13, 0x746e
    74b1:	000246        	j	0x74be
    74b4:	0e0c      	movi.n	a14, 0
    74b6:	0f0c      	movi.n	a15, 0
    74b8:	2661f2        	s32i	a15, a1, 152
    74bb:	2261e2        	s32i	a14, a1, 136
    74be:	222192        	l32i	a9, a1, 136
    74c1:	172182        	l32i	a8, a1, 92
    74c4:	2f3897        	bltu	a8, a9, 0x74f7
    74c7:	0b9987        	bne	a9, a8, 0x74d6
    74ca:	1221d2        	l32i	a13, a1, 72
    74cd:	2621c2        	l32i	a12, a1, 152
    74d0:	023cd7        	bltu	a12, a13, 0x74d6
    74d3:	ff7446        	j	0x72a8
    74d6:	2221e2        	l32i	a14, a1, 136
    74d9:	dfce16        	beqz	a14, 0x72d9
    74dc:	2321a2        	l32i	a10, a1, 140
    74df:	3b0c      	movi.n	a11, 3
    74e1:	027c25        	excw
    74e4:	0a5d      	mov.n	a5, a10
    74e6:	defa56        	bnez	a10, 0x72d9
    74e9:	1321a2        	l32i	a10, a1, 76
    74ec:	3b0c      	movi.n	a11, 3
    74ee:	027b65        	excw
    74f1:	dbda56        	bnez	a10, 0x72b2
    74f4:	ff7846        	j	0x72d9
    74f7:	2321a2        	l32i	a10, a1, 140
    74fa:	3b0c      	movi.n	a11, 3
    74fc:	027a65        	excw
    74ff:	0a5d      	mov.n	a5, a10
    7501:	ff6b46        	j	0x72b2
    7504:	1f0c      	movi.n	a15, 1
    7506:	080c      	movi.n	a8, 0
    7508:	176182        	s32i	a8, a1, 92
    750b:	1361f2        	s32i	a15, a1, 76
    750e:	f1b8      	l32i.n	a11, a1, 60
    7510:	1321a2        	l32i	a10, a1, 76
    7513:	005ba2        	s16i	a10, a11, 0
    7516:	1721a2        	l32i	a10, a1, 92
    7519:	382192        	l32i	a9, a1, 224
    751c:	0a9c      	beqz.n	a10, 0x7530
    751e:	120c      	movi.n	a2, 1
    7520:	1721e2        	l32i	a14, a1, 92
    7523:	e188      	l32i.n	a8, a1, 56
    7525:	1021f2        	l32i	a15, a1, 64
    7528:	0058f2        	s16i	a15, a8, 0
    752b:	0059e2        	s16i	a14, a9, 0
    752e:	f01d      	excw
    7530:	020c      	movi.n	a2, 0
    7532:	e1d8      	l32i.n	a13, a1, 56
    7534:	2c21c2        	l32i	a12, a1, 176
    7537:	005dc2        	s16i	a12, a13, 0
    753a:	005922        	s16i	a2, a9, 0
    753d:	f01d      	excw
    753f:	413600        	srli	a3, a0, 6
    7542:	bc4100        	excw
    7545:	a09276        	excw
    7548:	ff          	.byte 0xff
    7549:	4c0482        	l8ui	a8, a4, 76
    754c:	640432        	l8ui	a3, a4, 100
    754f:	03e847        	bbsi	a8, 4, 0x7556
    7552:	c20c      	movi.n	a2, 12
    7554:	f01d      	excw
    7556:	0a9397        	bne	a3, a9, 0x7564
    7559:	7731a1        	l32r	a10, 0xfffe5220
    755c:	0b0c      	movi.n	a11, 0
    755e:	b20465        	excw
    7561:	640432        	l8ui	a3, a4, 100
    7564:	03e620        	rsr.ps	a2
    7567:	2c0c      	movi.n	a12, 2
    7569:	34b020        	extui	a11, a2, 0, 4
    756c:	022cb7        	blt	a12, a11, 0x7572
    756f:	006220        	rsil	a2, 2
    7572:	efa0a2        	movi	a10, 239
    7575:	4c0492        	l8ui	a9, a4, 76
    7578:	768f81        	l32r	a8, 0xfffe4fb4
    757b:	03bd      	mov.n	a11, a3
    757d:	1888      	l32i.n	a8, a8, 4
    757f:	1099a0        	and	a9, a9, a10
    7582:	4c4492        	s8i	a9, a4, 76
    7585:	ca0c      	movi.n	a10, 12
    7587:	0008e0        	excw
    758a:	763941        	l32r	a4, 0xfffe4e70
    758d:	5adc      	bnez.n	a10, 0x75a6
    758f:	312482        	l32i	a8, a4, 196
    7592:	03ad      	mov.n	a10, a3
    7594:	0008e0        	excw
    7597:	03ad      	mov.n	a10, a3
    7599:	2b0c      	movi.n	a11, 2
    759b:	132482        	l32i	a8, a4, 76
    759e:	0c0c      	movi.n	a12, 0
    75a0:	0008e0        	excw
    75a3:	000386        	j	0x75b5
    75a6:	152a66        	bnei	a10, 2, 0x75bf
    75a9:	03ad      	mov.n	a10, a3
    75ab:	2b0c      	movi.n	a11, 2
    75ad:	132482        	l32i	a8, a4, 76
    75b0:	0c0c      	movi.n	a12, 0
    75b2:	0008e0        	excw
    75b5:	13e620        	wsr.ps	a2
    75b8:	002010        	rsync
    75bb:	020c      	movi.n	a2, 0
    75bd:	f01d      	excw
    75bf:	13e620        	wsr.ps	a2
    75c2:	002010        	rsync
    75c5:	324c      	movi.n	a2, 67
    75c7:	f01d      	excw
    75c9:	000000        	ill
    75cc:	006136        	excw
    75cf:	76bc91        	l32r	a9, 0xfffe50c0
    75d2:	1c0c      	movi.n	a12, 1
    75d4:	2c0982        	l8ui	a8, a9, 44
    75d7:	4309a2        	l8ui	a10, a9, 67
    75da:	026807        	bbci	a8, 0, 0x75e0
    75dd:	11ea56        	bnez	a10, 0x76ff
    75e0:	4c09a2        	l8ui	a10, a9, 76
    75e3:	6209b2        	l8ui	a11, a9, 98
    75e6:	046a07        	bbci	a10, 0, 0x75ee
    75e9:	bb0b      	addi.n	a11, a11, -1
    75eb:	110b16        	beqz	a11, 0x76ff
    75ee:	076a47        	bbci	a10, 4, 0x75f9
    75f1:	7609d2        	l8ui	a13, a9, 118
    75f4:	dd0b      	addi.n	a13, a13, -1
    75f6:	105d16        	beqz	a13, 0x76ff
    75f9:	e67c      	movi.n	a6, -2
    75fb:	773251        	l32r	a5, 0xfffe52c4
    75fe:	7636d1        	l32r	a13, 0xfffe4ed8
    7601:	070c      	movi.n	a7, 0
    7603:	7733e1        	l32r	a14, 0xfffe52d0
    7606:	07bd      	mov.n	a11, a7
    7608:	4692e7        	bne	a2, a14, 0x7652
    760b:	072d      	mov.n	a2, a7
    760d:	05ad      	mov.n	a10, a5
    760f:	80a0f2        	movi	a15, 128
    7612:	33af76        	excw
    7615:	0020c0        	memw
    7618:	0f0c      	movi.n	a15, 0
    761a:	a72ae2        	l32i	a14, a10, 0x29c
    761d:	01e9      	s32i.n	a14, a1, 0
    761f:	11f9      	s32i.n	a15, a1, 4
    7621:	0020c0        	memw
    7624:	080c      	movi.n	a8, 0
    7626:	1c0c      	movi.n	a12, 1
    7628:	090c      	movi.n	a9, 0
    762a:	a82af2        	l32i	a15, a10, 0x2a0
    762d:	01e9      	s32i.n	a14, a1, 0
    762f:	11f9      	s32i.n	a15, a1, 4
    7631:	10eeb0        	and	a14, a14, a11
    7634:	10ffd0        	and	a15, a15, a13
    7637:	839cf0        	moveqz	a9, a12, a15
    763a:	838ce0        	moveqz	a8, a12, a14
    763d:	040897        	bnone	a8, a9, 0x7645
    7640:	190c      	movi.n	a9, 1
    7642:	000146        	j	0x764b
    7645:	aa8b      	addi.n	a10, a10, 8
    7647:	221b      	addi.n	a2, a2, 1
    7649:	090c      	movi.n	a9, 0
    764b:	0b4956        	bnez	a9, 0x7703
    764e:	720c      	movi.n	a2, 7
    7650:	f01d      	excw
    7652:	773481        	l32r	a8, 0xfffe5324
    7655:	7720f1        	l32r	a15, 0xfffe52d8
    7658:	021287        	beq	a2, a8, 0x765e
    765b:	001fc6        	j	0x76de
    765e:	01ad      	mov.n	a10, a1
    7660:	8c0c      	movi.n	a12, 8
    7662:	020c      	movi.n	a2, 0
    7664:	02bd      	mov.n	a11, a2
    7666:	0280e5        	excw
    7669:	04bd      	mov.n	a11, a4
    766b:	01ad      	mov.n	a10, a1
    766d:	6c0c      	movi.n	a12, 6
    766f:	026e65        	excw
    7672:	7732b1        	l32r	a11, 0xfffe533c
    7675:	1f0c      	movi.n	a15, 1
    7677:	404e10        	ssai	30
    767a:	1188      	l32i.n	a8, a1, 4
    767c:	0198      	l32i.n	a9, a1, 0
    767e:	043030        	extui	a3, a3, 0, 1
    7681:	1133f0        	slli	a3, a3, 1
    7684:	11a9e0        	slli	a10, a9, 2
    7687:	20a3a0        	or	a10, a3, a10
    768a:	818890        	src	a8, a8, a9
    768d:	313f30        	srai	a3, a3, 31
    7690:	202a20        	or	a2, a10, a2
    7693:	0129      	s32i.n	a2, a1, 0
    7695:	0a0c      	movi.n	a10, 0
    7697:	203380        	or	a3, a3, a8
    769a:	763681        	l32r	a8, 0xfffe4f74
    769d:	80a092        	movi	a9, 128
    76a0:	203380        	or	a3, a3, a8
    76a3:	1139      	s32i.n	a3, a1, 4
    76a5:	32a976        	excw
    76a8:	0020c0        	memw
    76ab:	a72bc2        	l32i	a12, a11, 0x29c
    76ae:	0020c0        	memw
    76b1:	0e0c      	movi.n	a14, 0
    76b3:	180c      	movi.n	a8, 1
    76b5:	040c      	movi.n	a4, 0
    76b7:	a82bd2        	l32i	a13, a11, 0x2a0
    76ba:	109c60        	and	a9, a12, a6
    76bd:	c09920        	sub	a9, a9, a2
    76c0:	c0dd30        	sub	a13, a13, a3
    76c3:	8348d0        	moveqz	a4, a8, a13
    76c6:	83e890        	moveqz	a14, a8, a9
    76c9:	040e47        	bnone	a14, a4, 0x76d1
    76cc:	190c      	movi.n	a9, 1
    76ce:	002586        	j	0x7768
    76d1:	020cf7        	bnone	a12, a15, 0x76d7
    76d4:	002386        	j	0x7766
    76d7:	bb8b      	addi.n	a11, a11, 8
    76d9:	aa1b      	addi.n	a10, a10, 1
    76db:	0021c6        	j	0x7766
    76de:	1992f7        	bne	a2, a15, 0x76fb
    76e1:	059d      	mov.n	a9, a5
    76e3:	00a182        	movi	a8, 0x100
    76e6:	07a876        	excw
    76e9:	0020c0        	memw
    76ec:	a76972        	s32i	a7, a9, 0x29c
    76ef:	994b      	addi.n	a9, a9, 4
    76f1:	0020c0        	memw
    76f4:	a765c2        	s32i	a12, a5, 0x29c
    76f7:	020c      	movi.n	a2, 0
    76f9:	f01d      	excw
    76fb:	072d      	mov.n	a2, a7
    76fd:	f01d      	excw
    76ff:	c20c      	movi.n	a2, 12
    7701:	f01d      	excw
    7703:	01ad      	mov.n	a10, a1
    7705:	0b0c      	movi.n	a11, 0
    7707:	8c0c      	movi.n	a12, 8
    7709:	0276a5        	excw
    770c:	04bd      	mov.n	a11, a4
    770e:	01ad      	mov.n	a10, a1
    7710:	6c0c      	movi.n	a12, 6
    7712:	026425        	excw
    7715:	404e10        	ssai	30
    7718:	11a8      	l32i.n	a10, a1, 4
    771a:	01c8      	l32i.n	a12, a1, 0
    771c:	049030        	extui	a9, a3, 0, 1
    771f:	1199f0        	slli	a9, a9, 1
    7722:	11bce0        	slli	a11, a12, 2
    7725:	20b9b0        	or	a11, a9, a11
    7728:	81aac0        	src	a10, a10, a12
    772b:	319f90        	srai	a9, a9, 31
    772e:	1c0c      	movi.n	a12, 1
    7730:	2099a0        	or	a9, a9, a10
    7733:	20bbc0        	or	a11, a11, a12
    7736:	7636a1        	l32r	a10, 0xfffe5010
    7739:	01b9      	s32i.n	a11, a1, 0
    773b:	2099a0        	or	a9, a9, a10
    773e:	1199      	s32i.n	a9, a1, 4
    7740:	b0a250        	addx8	a10, a2, a5
    7743:	0020c0        	memw
    7746:	a76ab2        	s32i	a11, a10, 0x29c
    7749:	0020c0        	memw
    774c:	a86a92        	s32i	a9, a10, 0x2a0
    774f:	fa4216        	beqz	a2, 0x76f7
    7752:	0020c0        	memw
    7755:	a52ab2        	l32i	a11, a10, 0x294
    7758:	10bb60        	and	a11, a11, a6
    775b:	0020c0        	memw
    775e:	a56ab2        	s32i	a11, a10, 0x294
    7761:	ffe486        	j	0x76f7
    7764:	0c0000        	excw
    7767:	cc09      	s32i.n	a0, a12, 48
    7769:	1c29      	s32i.n	a2, a12, 4
    776b:	f01d22        	l16ui	a2, a13, 0x1e0
    776e:	1c0cf7        	bnone	a12, a15, 0x778e
    7771:	b09a50        	addx8	a9, a10, a5
    7774:	0020c0        	memw
    7777:	a76972        	s32i	a7, a9, 0x29c
    777a:	0020c0        	memw
    777d:	a86972        	s32i	a7, a9, 0x2a0
    7780:	051a56        	bnez	a10, 0x77d5
    7783:	0020c0        	memw
    7786:	1c0c      	movi.n	a12, 1
    7788:	a765c2        	s32i	a12, a5, 0x29c
    778b:	ffda06        	j	0x76f7
    778e:	02eab6        	bltui	a10, 128, 0x7794
    7791:	ffd886        	j	0x76f7
    7794:	b09a50        	addx8	a9, a10, a5
    7797:	80a0d2        	movi	a13, 128
    779a:	c0dda0        	sub	a13, a13, a10
    779d:	319d76        	excw
    77a0:	0020c0        	memw
    77a3:	a92982        	l32i	a8, a9, 0x2a4
    77a6:	0020c0        	memw
    77a9:	a76982        	s32i	a8, a9, 0x29c
    77ac:	0020c0        	memw
    77af:	aa29f2        	l32i	a15, a9, 0x2a8
    77b2:	0020c0        	memw
    77b5:	a869f2        	s32i	a15, a9, 0x2a0
    77b8:	0020c0        	memw
    77bb:	a729e2        	l32i	a14, a9, 0x29c
    77be:	0e6e07        	bbci	a14, 0, 0x77d0
    77c1:	0020c0        	memw
    77c4:	a96972        	s32i	a7, a9, 0x2a4
    77c7:	0020c0        	memw
    77ca:	aa6972        	s32i	a7, a9, 0x2a8
    77cd:	ffc986        	j	0x76f7
    77d0:	998b      	addi.n	a9, a9, 8
    77d2:	ffc846        	j	0x76f7
    77d5:	0020c0        	memw
    77d8:	a529a2        	l32i	a10, a9, 0x294
    77db:	20aaf0        	or	a10, a10, a15
    77de:	0020c0        	memw
    77e1:	a569a2        	s32i	a10, a9, 0x294
    77e4:	ffc3c6        	j	0x76f7
    77e7:	613600        	excw
    77ea:	ca0c00        	excw
    77ed:	0b1c      	movi.n	a11, 16
    77ef:	760781        	l32r	a8, 0xfffe500c
    77f2:	76bc31        	l32r	a3, 0xfffe52e4
    77f5:	78a192        	movi	a9, 0x178
    77f8:	c19290        	mul16u	a9, a2, a9
    77fb:	2e2332        	l32i	a3, a3, 184
    77fe:	7888      	l32i.n	a8, a8, 28
    7800:	339a      	add.n	a3, a3, a9
    7802:	0008e0        	excw
    7805:	0a7d      	mov.n	a7, a10
    7807:	2acc      	bnez.n	a10, 0x780d
    7809:	324c      	movi.n	a2, 67
    780b:	f01d      	excw
    780d:	02ad      	mov.n	a10, a2
    780f:	690c      	movi.n	a9, 6
    7811:	2513f2        	l16ui	a15, a3, 74
    7814:	763981        	l32r	a8, 0xfffe50f8
    7817:	1d0c      	movi.n	a13, 1
    7819:	f4a0b2        	movi	a11, 244
    781c:	b3ba      	add.n	a11, a3, a11
    781e:	0dcd      	mov.n	a12, a13
    7820:	3a2882        	l32i	a8, a8, 232
    7823:	90fff0        	addx2	a15, a15, a15
    7826:	90ff90        	addx2	a15, a15, a9
    7829:	0051f2        	s16i	a15, a1, 0
    782c:	0413e2        	l16ui	a14, a3, 8
    782f:	b20392        	l8ui	a9, a3, 178
    7832:	eefa      	add.n	a14, a14, a15
    7834:	99ea      	add.n	a9, a9, a14
    7836:	992b      	addi.n	a9, a9, 2
    7838:	f49090        	extui	a9, a9, 0, 16
    783b:	005192        	s16i	a9, a1, 0
    783e:	839d90        	moveqz	a9, a13, a9
    7841:	005192        	s16i	a9, a1, 0
    7844:	0008e0        	excw
    7847:	831362        	l16ui	a6, a3, 0x106
    784a:	221342        	l16ui	a4, a3, 68
    784d:	801352        	l16ui	a5, a3, 0x100
    7850:	04ad      	mov.n	a10, a4
    7852:	05bd      	mov.n	a11, a5
    7854:	023fe5        	excw
    7857:	90c540        	addx2	a12, a5, a4
    785a:	4a1b      	addi.n	a4, a10, 1
    785c:	c14540        	mul16u	a4, a5, a4
    785f:	231382        	l16ui	a8, a3, 70
    7862:	464a      	add.n	a4, a6, a4
    7864:	c04480        	sub	a4, a4, a8
    7867:	f44040        	extui	a4, a4, 0, 16
    786a:	0d24c7        	blt	a4, a12, 0x787b
    786d:	7731a1        	l32r	a10, 0xfffe5534
    7870:	0b0c      	movi.n	a11, 0
    7872:	b1d325        	excw
    7875:	801352        	l16ui	a5, a3, 0x100
    7878:	831362        	l16ui	a6, a3, 0x106
    787b:	093457        	bltu	a4, a5, 0x7888
    787e:	04ad      	mov.n	a10, a4
    7880:	05bd      	mov.n	a11, a5
    7882:	024225        	excw
    7885:	f440a0        	extui	a4, a10, 0, 16
    7888:	811382        	l16ui	a8, a3, 0x102
    788b:	235362        	s16i	a6, a3, 70
    788e:	1188f0        	slli	a8, a8, 1
    7891:	245382        	s16i	a8, a3, 72
    7894:	07b547        	bgeu	a5, a4, 0x789f
    7897:	7731a1        	l32r	a10, 0xfffe555c
    789a:	0b0c      	movi.n	a11, 0
    789c:	b1d065        	excw
    789f:	160c      	movi.n	a6, 1
    78a1:	763951        	l32r	a5, 0xfffe5188
    78a4:	03ad      	mov.n	a10, a3
    78a6:	872582        	l32i	a8, a5, 0x21c
    78a9:	01bd      	mov.n	a11, a1
    78ab:	0008e0        	excw
    78ae:	41e940        	srli	a14, a4, 9
    78b1:	41f140        	srli	a15, a4, 1
    78b4:	0a0792        	l8ui	a9, a7, 10
    78b7:	0a3c      	movi.n	a10, 48
    78b9:	997a      	add.n	a9, a9, a7
    78bb:	0d0982        	l8ui	a8, a9, 13
    78be:	cfa0b2        	movi	a11, 207
    78c1:	1088b0        	and	a8, a8, a11
    78c4:	2088a0        	or	a8, a8, a10
    78c7:	0d4982        	s8i	a8, a9, 13
    78ca:	0a07d2        	l8ui	a13, a7, 10
    78cd:	0c0c      	movi.n	a12, 0
    78cf:	dd7a      	add.n	a13, a13, a7
    78d1:	104dc2        	s8i	a12, a13, 16
    78d4:	114d62        	s8i	a6, a13, 17
    78d7:	124df2        	s8i	a15, a13, 18
    78da:	134de2        	s8i	a14, a13, 19
    78dd:	8013b2        	l16ui	a11, a3, 0x100
    78e0:	41b1b0        	srli	a11, a11, 1
    78e3:	144db2        	s8i	a11, a13, 20
    78e6:	8013a2        	l16ui	a10, a3, 0x100
    78e9:	41a9a0        	srli	a10, a10, 9
    78ec:	154da2        	s8i	a10, a13, 21
    78ef:	821392        	l16ui	a9, a3, 0x104
    78f2:	164d92        	s8i	a9, a13, 22
    78f5:	821382        	l16ui	a8, a3, 0x104
    78f8:	418880        	srli	a8, a8, 8
    78fb:	174d82        	s8i	a8, a13, 23
    78fe:	7e13f2        	l16ui	a15, a3, 252
    7901:	184df2        	s8i	a15, a13, 24
    7904:	7e13e2        	l16ui	a14, a3, 252
    7907:	41e8e0        	srli	a14, a14, 8
    790a:	194de2        	s8i	a14, a13, 25
    790d:	0011b2        	l16ui	a11, a1, 0
    7910:	1a4db2        	s8i	a11, a13, 26
    7913:	001192        	l16ui	a9, a1, 0
    7916:	02ad      	mov.n	a10, a2
    7918:	419890        	srli	a9, a9, 8
    791b:	1b4d92        	s8i	a9, a13, 27
    791e:	4f2582        	l32i	a8, a5, 0x13c
    7921:	07bd      	mov.n	a11, a7
    7923:	0008e0        	excw
    7926:	020c      	movi.n	a2, 0
    7928:	4acc      	bnez.n	a10, 0x7930
    792a:	0011a2        	l16ui	a10, a1, 0
    792d:	5753a2        	s16i	a10, a3, 174
    7930:	f01d      	excw
    7932:	360000        	excw
    7935:	910041        	l32r	a4, 0xfffebd38
    7938:	a17736        	excw
    793b:	c17735        	excw
    793e:	217730        	srai	a7, a3, 7
    7941:	7739      	s32i.n	a3, a7, 28
    7943:	773841        	l32r	a4, 0xfffe5624
    7946:	763931        	l32r	a3, 0xfffe522c
    7949:	773781        	l32r	a8, 0xfffe5628
    794c:	1e6382        	s32i	a8, a3, 120
    794f:	a349      	s32i.n	a4, a3, 40
    7951:	6a6322        	s32i	a2, a3, 0x1a8
    7954:	4823b2        	l32i	a11, a3, 0x120
    7957:	0cb9      	s32i.n	a11, a12, 0
    7959:	4863a2        	s32i	a10, a3, 0x120
    795c:	7e6392        	s32i	a9, a3, 0x1f8
    795f:	f01d      	excw
    7961:	000000        	ill
    7964:	004136        	excw
    7967:	76a121        	l32r	a2, 0xfffe53ec
    796a:	76a0a1        	l32r	a10, 0xfffe53ec
    796d:	0020c0        	memw
    7970:	773ac1        	l32r	a12, 0xfffe5658
    7973:	762b91        	l32r	a9, 0xfffe5220
    7976:	842ab2        	l32i	a11, a10, 0x210
    7979:	050992        	l8ui	a9, a9, 5
    797c:	10bbc0        	and	a11, a11, a12
    797f:	76a8c1        	l32r	a12, 0xfffe5420
    7982:	019920        	slli	a9, a9, 30
    7985:	1099c0        	and	a9, a9, a12
    7988:	2099b0        	or	a9, a9, a11
    798b:	0020c0        	memw
    798e:	a288      	l32i.n	a8, a2, 40
    7990:	846a92        	s32i	a9, a10, 0x210
    7993:	0008e0        	excw
    7996:	b288      	l32i.n	a8, a2, 44
    7998:	0008e0        	excw
    799b:	773b21        	l32r	a2, 0xfffe5688
    799e:	6288      	l32i.n	a8, a2, 24
    79a0:	1a4c      	movi.n	a10, 65
    79a2:	0008e0        	excw
    79a5:	5288      	l32i.n	a8, a2, 20
    79a7:	773cb1        	l32r	a11, 0xfffe5698
    79aa:	0c1c      	movi.n	a12, 16
    79ac:	10bab0        	and	a11, a10, a11
    79af:	20bbc0        	or	a11, a11, a12
    79b2:	1a4c      	movi.n	a10, 65
    79b4:	0008e0        	excw
    79b7:	6288      	l32i.n	a8, a2, 24
    79b9:	2a4c      	movi.n	a10, 66
    79bb:	0008e0        	excw
    79be:	773d31        	l32r	a3, 0xfffe56b4
    79c1:	5288      	l32i.n	a8, a2, 20
    79c3:	10ba30        	and	a11, a10, a3
    79c6:	2a4c      	movi.n	a10, 66
    79c8:	0008e0        	excw
    79cb:	6288      	l32i.n	a8, a2, 24
    79cd:	3a4c      	movi.n	a10, 67
    79cf:	0008e0        	excw
    79d2:	10ba30        	and	a11, a10, a3
    79d5:	5288      	l32i.n	a8, a2, 20
    79d7:	3a4c      	movi.n	a10, 67
    79d9:	0008e0        	excw
    79dc:	6288      	l32i.n	a8, a2, 24
    79de:	4a4c      	movi.n	a10, 68
    79e0:	0008e0        	excw
    79e3:	10ba30        	and	a11, a10, a3
    79e6:	5288      	l32i.n	a8, a2, 20
    79e8:	4a4c      	movi.n	a10, 68
    79ea:	0008e0        	excw
    79ed:	a288      	l32i.n	a8, a2, 40
    79ef:	1a4c      	movi.n	a10, 65
    79f1:	0008e0        	excw
    79f4:	9288      	l32i.n	a8, a2, 36
    79f6:	2a4c      	movi.n	a10, 66
    79f8:	0008e0        	excw
    79fb:	9288      	l32i.n	a8, a2, 36
    79fd:	3a4c      	movi.n	a10, 67
    79ff:	0008e0        	excw
    7a02:	9288      	l32i.n	a8, a2, 36
    7a04:	4a4c      	movi.n	a10, 68
    7a06:	0008e0        	excw
    7a09:	f01d      	excw
    7a0b:	413600        	srli	a3, a0, 6
    7a0e:	3e8100        	excw
    7a11:	088877        	bany	a8, a7, 0x7a1d
    7a14:	0008e0        	excw
    7a17:	762b91        	l32r	a9, 0xfffe52c4
    7a1a:	89a8      	l32i.n	a10, a9, 32
    7a1c:	071a66        	bnei	a10, 1, 0x7a27
    7a1f:	1419b2        	l16ui	a11, a9, 40
    7a22:	bb1b      	addi.n	a11, a11, 1
    7a24:	1459b2        	s16i	a11, a9, 40
    7a27:	f01d      	excw
    7a29:	000000        	ill
    7a2c:	004136        	excw
    7a2f:	773e81        	l32r	a8, 0xfffe5728
    7a32:	1888      	l32i.n	a8, a8, 4
    7a34:	0008e0        	excw
    7a37:	762ba1        	l32r	a10, 0xfffe52e4
    7a3a:	040a92        	l8ui	a9, a10, 4
    7a3d:	142ab2        	l32i	a11, a10, 80
    7a40:	69cc      	bnez.n	a9, 0x7a4a
    7a42:	047bc7        	bbci	a11, 28, 0x7a4a
    7a45:	390c      	movi.n	a9, 3
    7a47:	044a92        	s8i	a9, a10, 4
    7a4a:	0b3966        	bnei	a9, 3, 0x7a59
    7a4d:	142ac2        	l32i	a12, a10, 80
    7a50:	bfafd2        	movi	a13, -65
    7a53:	10ccd0        	and	a12, a12, a13
    7a56:	146ac2        	s32i	a12, a10, 80
    7a59:	f01d      	excw
    7a5b:	413600        	srli	a3, a0, 6
    7a5e:	3f8100        	excw
    7a61:	412177        	blt	a1, a7, 0x7aa6
    7a64:	404177        	ball	a1, a7, 0x7aa8
    7a67:	a13177        	bltu	a1, a7, 0x7a0c
    7a6a:	3ea176        	excw
    7a6d:	93b877        	bgeu	a8, a7, 0x7a04
    7a70:	8398      	l32i.n	a9, a3, 32
    7a72:	1a99      	s32i.n	a9, a10, 4
    7a74:	8349      	s32i.n	a4, a3, 32
    7a76:	f329      	s32i.n	a2, a3, 60
    7a78:	9389      	s32i.n	a8, a3, 36
    7a7a:	0ab9      	s32i.n	a11, a10, 0
    7a7c:	f01d      	excw
    7a7e:	360000        	excw
    7a81:	310041        	l32r	a4, 0xfffd3e84
    7a84:	762b      	addi.n	a7, a6, 2
    7a86:	76a991        	l32r	a9, 0xfffe552c
    7a89:	040382        	l8ui	a8, a3, 4
    7a8c:	280992        	l8ui	a9, a9, 40
    7a8f:	143866        	bnei	a8, 3, 0x7aa7
    7a92:	199c      	beqz.n	a9, 0x7aa7
    7a94:	040292        	l8ui	a9, a2, 4
    7a97:	140c      	movi.n	a4, 1
    7a99:	0c4966        	bnei	a9, 4, 0x7aa9
    7a9c:	43b8      	l32i.n	a11, a3, 16
    7a9e:	63a8      	l32i.n	a10, a3, 24
    7aa0:	93a4b0        	movnez	a10, a4, a11
    7aa3:	63a9      	s32i.n	a10, a3, 24
    7aa5:	f01d      	excw
    7aa7:	f01d      	excw
    7aa9:	363966        	bnei	a9, 3, 0x7ae3
    7aac:	76aae1        	l32r	a14, 0xfffe5554
    7aaf:	020c      	movi.n	a2, 0
    7ab1:	732ed2        	l32i	a13, a14, 0x1cc
    7ab4:	43c8      	l32i.n	a12, a3, 16
    7ab6:	dd1b      	addi.n	a13, a13, 1
    7ab8:	736ed2        	s32i	a13, a14, 0x1cc
    7abb:	301c26        	beqi	a12, 1, 0x7aef
    7abe:	53e8      	l32i.n	a14, a3, 20
    7ac0:	2b1e26        	beqi	a14, 1, 0x7aef
    7ac3:	760f81        	l32r	a8, 0xfffe5300
    7ac6:	232882        	l32i	a8, a8, 140
    7ac9:	0008e0        	excw
    7acc:	760e91        	l32r	a9, 0xfffe5304
    7acf:	7349      	s32i.n	a4, a3, 28
    7ad1:	c80992        	l8ui	a9, a9, 200
    7ad4:	9329      	s32i.n	a2, a3, 36
    7ad6:	cde907        	bbsi	a9, 0, 0x7aa7
    7ad9:	76a181        	l32r	a8, 0xfffe5560
    7adc:	9888      	l32i.n	a8, a8, 36
    7ade:	0008e0        	excw
    7ae1:	f01d      	excw
    7ae3:	76c681        	l32r	a8, 0xfffe55fc
    7ae6:	1888      	l32i.n	a8, a8, 4
    7ae8:	02ad      	mov.n	a10, a2
    7aea:	0008e0        	excw
    7aed:	f01d      	excw
    7aef:	7329      	s32i.n	a2, a3, 28
    7af1:	76c591        	l32r	a9, 0xfffe5608
    7af4:	8329      	s32i.n	a2, a3, 32
    7af6:	004942        	s8i	a4, a9, 0
    7af9:	f01d      	excw
    7afb:	413600        	srli	a3, a0, 6
    7afe:	12b200        	excw
    7b01:	d57c03        	excw
    7b04:	0c0b16        	beqz	a11, 0x7bc8
    7b07:	76a941        	l32r	a4, 0xfffe55ac
    7b0a:	762ec1        	l32r	a12, 0xfffe53c4
    7b0d:	766b31        	l32r	a3, 0xfffe54bc
    7b10:	085c      	movi.n	a8, 80
    7b12:	711b87        	beq	a11, a8, 0x7b87
    7b15:	76c661        	l32r	a6, 0xfffe5630
    7b18:	85a392        	movi	a9, 0x385
    7b1b:	c09b90        	sub	a9, a11, a9
    7b1e:	0b2916        	beqz	a9, 0x7bd4
    7b21:	86a3a2        	movi	a10, 0x386
    7b24:	c0aba0        	sub	a10, a11, a10
    7b27:	09da56        	bnez	a10, 0x7bc8
    7b2a:	0020c0        	memw
    7b2d:	922c92        	l32i	a9, a12, 0x248
    7b30:	00a4b2        	movi	a11, 0x400
    7b33:	20b9b0        	or	a11, a9, a11
    7b36:	0020c0        	memw
    7b39:	926cb2        	s32i	a11, a12, 0x248
    7b3c:	ffaba2        	movi	a10, 0xfffffbff
    7b3f:	1099a0        	and	a9, a9, a10
    7b42:	0020c0        	memw
    7b45:	926c92        	s32i	a9, a12, 0x248
    7b48:	70a0a2        	movi	a10, 112
    7b4b:	202382        	l32i	a8, a3, 128
    7b4e:	0b0c      	movi.n	a11, 0
    7b50:	0008e0        	excw
    7b53:	2804c2        	l8ui	a12, a4, 40
    7b56:	9ccc      	bnez.n	a12, 0x7b63
    7b58:	190c      	movi.n	a9, 1
    7b5a:	142382        	l32i	a8, a3, 80
    7b5d:	284492        	s8i	a9, a4, 40
    7b60:	0008e0        	excw
    7b63:	03e6a0        	rsr.ps	a10
    7b66:	2d0c      	movi.n	a13, 2
    7b68:	34c0a0        	extui	a12, a10, 0, 4
    7b6b:	022dc7        	blt	a13, a12, 0x7b71
    7b6e:	0062a0        	rsil	a10, 2
    7b71:	0020c0        	memw
    7b74:	06b8      	l32i.n	a11, a6, 0
    7b76:	10bb50        	and	a11, a11, a5
    7b79:	0020c0        	memw
    7b7c:	06b9      	s32i.n	a11, a6, 0
    7b7e:	13e6a0        	wsr.ps	a10
    7b81:	002010        	rsync
    7b84:	001006        	j	0x7bc8
    7b87:	0020c0        	memw
    7b8a:	922cd2        	l32i	a13, a12, 0x248
    7b8d:	2e0c      	movi.n	a14, 2
    7b8f:	20ede0        	or	a14, a13, a14
    7b92:	0020c0        	memw
    7b95:	926ce2        	s32i	a14, a12, 0x248
    7b98:	10dd50        	and	a13, a13, a5
    7b9b:	0020c0        	memw
    7b9e:	926cd2        	s32i	a13, a12, 0x248
    7ba1:	0020c0        	memw
    7ba4:	142382        	l32i	a8, a3, 80
    7ba7:	090c      	movi.n	a9, 0
    7ba9:	992cc2        	l32i	a12, a12, 0x264
    7bac:	7742a1        	l32r	a10, 0xfffe58b4
    7baf:	f5c0c0        	extui	a12, a12, 16, 16
    7bb2:	ffdab2        	addmi	a11, a10, 0xffffff00
    7bb5:	b72bb2        	l32i	a11, a11, 0x2dc
    7bb8:	3144c2        	s8i	a12, a4, 49
    7bbb:	bb1b      	addi.n	a11, a11, 1
    7bbd:	776ab2        	s32i	a11, a10, 0x1dc
    7bc0:	05daa2        	addmi	a10, a10, 0x500
    7bc3:	aa99      	s32i.n	a9, a10, 40
    7bc5:	0008e0        	excw
    7bc8:	767381        	l32r	a8, 0xfffe5594
    7bcb:	5888      	l32i.n	a8, a8, 20
    7bcd:	02ad      	mov.n	a10, a2
    7bcf:	0008e0        	excw
    7bd2:	f01d      	excw
    7bd4:	222382        	l32i	a8, a3, 136
    7bd7:	0008e0        	excw
    7bda:	03e690        	rsr.ps	a9
    7bdd:	2d0c      	movi.n	a13, 2
    7bdf:	34c090        	extui	a12, a9, 0, 4
    7be2:	022dc7        	blt	a13, a12, 0x7be8
    7be5:	006290        	rsil	a9, 2
    7be8:	eb7c      	movi.n	a11, -2
    7bea:	0020c0        	memw
    7bed:	06a8      	l32i.n	a10, a6, 0
    7bef:	10aab0        	and	a10, a10, a11
    7bf2:	0020c0        	memw
    7bf5:	06a9      	s32i.n	a10, a6, 0
    7bf7:	13e690        	wsr.ps	a9
    7bfa:	002010        	rsync
    7bfd:	fff1c6        	j	0x7bc8
    7c00:	004136        	excw
    7c03:	74a020        	extui	a10, a2, 0, 8
    7c06:	0c5c      	movi.n	a12, 80
    7c08:	76a941        	l32r	a4, 0xfffe56ac
    7c0b:	762ed1        	l32r	a13, 0xfffe54c4
    7c0e:	1b0c      	movi.n	a11, 1
    7c10:	03e650        	rsr.ps	a5
    7c13:	290c      	movi.n	a9, 2
    7c15:	348050        	extui	a8, a5, 0, 4
    7c18:	022987        	blt	a9, a8, 0x7c1e
    7c1b:	006250        	rsil	a5, 2
    7c1e:	0020c0        	memw
    7c21:	a12d22        	l32i	a2, a13, 0x284
    7c24:	3e62c7        	bbci	a2, 12, 0x7c66
    7c27:	0020c0        	memw
    7c2a:	9a2de2        	l32i	a14, a13, 0x268
    7c2d:	086e07        	bbci	a14, 0, 0x7c39
    7c30:	0020c0        	memw
    7c33:	9a6db2        	s32i	a11, a13, 0x268
    7c36:	2944b2        	s8i	a11, a4, 41
    7c39:	201ac7        	beq	a10, a12, 0x7c5d
    7c3c:	60a0f2        	movi	a15, 96
    7c3f:	1a1af7        	beq	a10, a15, 0x7c5d
    7c42:	70a082        	movi	a8, 112
    7c45:	1d1a87        	beq	a10, a8, 0x7c66
    7c48:	6eea26        	beqi	a10, 128, 0x7cba
    7c4b:	a0a092        	movi	a9, 160
    7c4e:	141a97        	beq	a10, a9, 0x7c66
    7c51:	c0a0e2        	movi	a14, 192
    7c54:	0e1ae7        	beq	a10, a14, 0x7c66
    7c57:	ffa0f2        	movi	a15, 255
    7c5a:	081af7        	beq	a10, a15, 0x7c66
    7c5d:	13e650        	wsr.ps	a5
    7c60:	002010        	rsync
    7c63:	001906        	j	0x7ccb
    7c66:	119ac7        	bne	a10, a12, 0x7c7b
    7c69:	762b81        	l32r	a8, 0xfffe5518
    7c6c:	142882        	l32i	a8, a8, 80
    7c6f:	08e8a7        	bbsi	a8, 10, 0x7c7b
    7c72:	13e650        	wsr.ps	a5
    7c75:	002010        	rsync
    7c78:	0013c6        	j	0x7ccb
    7c7b:	2904e2        	l8ui	a14, a4, 41
    7c7e:	0c0c      	movi.n	a12, 0
    7c80:	2eec      	bnez.n	a14, 0x7ca6
    7c82:	7743f1        	l32r	a15, 0xfffe5990
    7c85:	049cf7        	bne	a12, a15, 0x7c8d
    7c88:	1e0c      	movi.n	a14, 1
    7c8a:	2944e2        	s8i	a14, a4, 41
    7c8d:	0020c0        	memw
    7c90:	9a2d92        	l32i	a9, a13, 0x268
    7c93:	0a6907        	bbci	a9, 0, 0x7ca1
    7c96:	0020c0        	memw
    7c99:	9a6db2        	s32i	a11, a13, 0x268
    7c9c:	1e0c      	movi.n	a14, 1
    7c9e:	2944e2        	s8i	a14, a4, 41
    7ca1:	cc1b      	addi.n	a12, a12, 1
    7ca3:	fdee16        	beqz	a14, 0x7c85
    7ca6:	13e650        	wsr.ps	a5
    7ca9:	002010        	rsync
    7cac:	76c681        	l32r	a8, 0xfffe57c4
    7caf:	2888      	l32i.n	a8, a8, 8
    7cb1:	03bd      	mov.n	a11, a3
    7cb3:	0008e0        	excw
    7cb6:	0a2d      	mov.n	a2, a10
    7cb8:	f01d      	excw
    7cba:	766b81        	l32r	a8, 0xfffe5668
    7cbd:	172882        	l32i	a8, a8, 92
    7cc0:	03bd      	mov.n	a11, a3
    7cc2:	0008e0        	excw
    7cc5:	13e650        	wsr.ps	a5
    7cc8:	002010        	rsync
    7ccb:	020c      	movi.n	a2, 0
    7ccd:	f01d      	excw
    7ccf:	413600        	srli	a3, a0, 6
    7cd2:	2e8100        	excw
    7cd5:	20c076        	excw
    7cd8:	288200        	excw
    7cdb:	791ca1        	l32r	a10, 0xfffe614c
    7cde:	0368c7        	bbci	a8, 12, 0x7ce5
    7ce1:	020c      	movi.n	a2, 0
    7ce3:	f01d      	excw
    7ce5:	041397        	beq	a3, a9, 0x7ced
    7ce8:	8a1c      	movi.n	a10, 24
    7cea:	1793a7        	bne	a3, a10, 0x7d05
    7ced:	762fc1        	l32r	a12, 0xfffe55ac
    7cf0:	78a1d2        	movi	a13, 0x178
    7cf3:	c1d2d0        	mul16u	a13, a2, a13
    7cf6:	ab1c      	movi.n	a11, 26
    7cf8:	ccda      	add.n	a12, a12, a13
    7cfa:	7f2cc2        	l32i	a12, a12, 0x1fc
    7cfd:	2d0c      	movi.n	a13, 2
    7cff:	10ccd0        	and	a12, a12, a13
    7d02:	933bc0        	movnez	a3, a11, a12
    7d05:	02ad      	mov.n	a10, a2
    7d07:	76c681        	l32r	a8, 0xfffe5820
    7d0a:	03bd      	mov.n	a11, a3
    7d0c:	3888      	l32i.n	a8, a8, 12
    7d0e:	04cd      	mov.n	a12, a4
    7d10:	0008e0        	excw
    7d13:	0a2d      	mov.n	a2, a10
    7d15:	f01d      	excw
    7d17:	413600        	srli	a3, a0, 6
    7d1a:	2e8100        	excw
    7d1d:	20c076        	excw
    7d20:	288200        	excw
    7d23:	68c7a1        	l32r	a10, 0xfffe2040
    7d26:	020c03        	excw
    7d29:	f01d      	excw
    7d2b:	76c681        	l32r	a8, 0xfffe5844
    7d2e:	02ad      	mov.n	a10, a2
    7d30:	4888      	l32i.n	a8, a8, 16
    7d32:	03bd      	mov.n	a11, a3
    7d34:	0008e0        	excw
    7d37:	0a2d      	mov.n	a2, a10
    7d39:	f01d      	excw
    7d3b:	413600        	srli	a3, a0, 6
    7d3e:	2e8100        	excw
    7d41:	20c076        	excw
    7d44:	288200        	excw
    7d47:	e8c7a1        	l32r	a10, 0x2064 (0xe50cad0b)
    7d4a:	8109      	s32i.n	a0, a1, 32
    7d4c:	8876c6        	j	0xfffe9f2b
    7d4f:	ad58      	l32i.n	a5, a13, 40
    7d51:	08e002        	excw
    7d54:	f01d00        	subx8	a1, a13, a0
    7d57:	813600        	src	a3, a6, a0
    7d5a:	1c0c00        	excw
    7d5d:	41c9      	s32i.n	a12, a1, 16
    7d5f:	039d      	mov.n	a9, a3
    7d61:	762e81        	l32r	a8, 0xfffe561c
    7d64:	0020c0        	memw
    7d67:	a12882        	l32i	a8, a8, 0x284
    7d6a:	7699a1        	l32r	a10, 0xfffe57d0
    7d6d:	048c80        	extui	a8, a8, 12, 1
    7d70:	111856        	bnez	a8, 0x7e85
    7d73:	7744b1        	l32r	a11, 0xfffe5a84
    7d76:	9b0ad2        	l8ui	a13, a10, 155
    7d79:	774531        	l32r	a3, 0xfffe5a90
    7d7c:	b0ddb0        	addx8	a13, a13, a11
    7d7f:	ec0dd2        	l8ui	a13, a13, 236
    7d82:	93e8      	l32i.n	a14, a3, 36
    7d84:	02adb6        	bltui	a13, 12, 0x7d8a
    7d87:	003e86        	j	0x7e85
    7d8a:	0f7e16        	beqz	a14, 0x7e85
    7d8d:	fcd3b2        	addmi	a11, a3, 0xfffffc00
    7d90:	fad3a2        	addmi	a10, a3, 0xfffffa00
    7d93:	763af1        	l32r	a15, 0xfffe567c
    7d96:	78a172        	movi	a7, 0x178
    7d99:	c17270        	mul16u	a7, a2, a7
    7d9c:	766b61        	l32r	a6, 0xfffe5748
    7d9f:	ff7a      	add.n	a15, a15, a7
    7da1:	61f9      	s32i.n	a15, a1, 24
    7da3:	7f0ff2        	l8ui	a15, a15, 127
    7da6:	76a971        	l32r	a7, 0xfffe584c
    7da9:	ff0b      	addi.n	a15, a15, -1
    7dab:	0d8f56        	bnez	a15, 0x7e87
    7dae:	5199      	s32i.n	a9, a1, 20
    7db0:	1f0916        	beqz	a9, 0x7fa4
    7db3:	02ad      	mov.n	a10, a2
    7db5:	05dd      	mov.n	a13, a5
    7db7:	0e0c      	movi.n	a14, 0
    7db9:	fd2bf2        	l32i	a15, a11, 0x3f4
    7dbc:	2d07c2        	l8ui	a12, a7, 45
    7dbf:	fe2b92        	l32i	a9, a11, 0x3f8
    7dc2:	0199      	s32i.n	a9, a1, 0
    7dc4:	2d2682        	l32i	a8, a6, 180
    7dc7:	1b0c      	movi.n	a11, 1
    7dc9:	0008e0        	excw
    7dcc:	76aaf1        	l32r	a15, 0xfffe5874
    7dcf:	0348      	l32i.n	a4, a3, 0
    7dd1:	7149      	s32i.n	a4, a1, 28
    7dd3:	ff2ff2        	l32i	a15, a15, 0x3fc
    7dd6:	2d2642        	l32i	a4, a6, 180
    7dd9:	23d516        	beqz	a5, 0x801a
    7ddc:	02ad      	mov.n	a10, a2
    7dde:	0b0c      	movi.n	a11, 0
    7de0:	05dd      	mov.n	a13, a5
    7de2:	0e0c      	movi.n	a14, 0
    7de4:	2d07c2        	l8ui	a12, a7, 45
    7de7:	7188      	l32i.n	a8, a1, 28
    7de9:	0189      	s32i.n	a8, a1, 0
    7deb:	0004e0        	excw
    7dee:	774691        	l32r	a9, 0xfffe5b08
    7df1:	ee2992        	l32i	a9, a9, 0x3b8
    7df4:	0ed916        	beqz	a9, 0x7ee5
    7df7:	7699a1        	l32r	a10, 0xfffe585c
    7dfa:	c70aa2        	l8ui	a10, a10, 199
    7dfd:	ffa0b2        	movi	a11, 255
    7e00:	c0bab0        	sub	a11, a10, a11
    7e03:	1ddb16        	beqz	a11, 0x7fe4
    7e06:	76b4b1        	l32r	a11, 0xfffe58d8
    7e09:	760ec1        	l32r	a12, 0xfffe5644
    7e0c:	78a1d2        	movi	a13, 0x178
    7e0f:	c1dad0        	mul16u	a13, a10, a13
    7e12:	8a0cc2        	l8ui	a12, a12, 138
    7e15:	bbda      	add.n	a11, a11, a13
    7e17:	800bb2        	l8ui	a11, a11, 128
    7e1a:	7744d1        	l32r	a13, 0xfffe5b2c
    7e1d:	a0bbb0        	addx4	a11, a11, a11
    7e20:	b0bbd0        	addx8	a11, a11, a13
    7e23:	130bb2        	l8ui	a11, a11, 19
    7e26:	1a0c      	movi.n	a10, 1
    7e28:	02bbc7        	bgeu	a11, a12, 0x7e2e
    7e2b:	006dc6        	j	0x7fe6
    7e2e:	0a0c      	movi.n	a10, 0
    7e30:	006c86        	j	0x7fe6
    7e33:	040c      	movi.n	a4, 0
    7e35:	0a0c      	movi.n	a10, 0
    7e37:	76aa31        	l32r	a3, 0xfffe58e0
    7e3a:	fd23f2        	l32i	a15, a3, 0x3f4
    7e3d:	fe2332        	l32i	a3, a3, 0x3f8
    7e40:	3e13f7        	beq	a3, a15, 0x7e82
    7e43:	02ad      	mov.n	a10, a2
    7e45:	05dd      	mov.n	a13, a5
    7e47:	190c      	movi.n	a9, 1
    7e49:	0e0c      	movi.n	a14, 0
    7e4b:	2f0782        	l8ui	a8, a7, 47
    7e4e:	2d07c2        	l8ui	a12, a7, 45
    7e51:	0139      	s32i.n	a3, a1, 0
    7e53:	880b      	addi.n	a8, a8, -1
    7e55:	83e980        	moveqz	a14, a9, a8
    7e58:	2d2682        	l32i	a8, a6, 180
    7e5b:	09bd      	mov.n	a11, a9
    7e5d:	0008e0        	excw
    7e60:	762b91        	l32r	a9, 0xfffe570c
    7e63:	142992        	l32i	a9, a9, 80
    7e66:	204a40        	or	a4, a10, a4
    7e69:	136997        	bbci	a9, 9, 0x7e80
    7e6c:	2a07a2        	l8ui	a10, a7, 42
    7e6f:	0d1a66        	bnei	a10, 1, 0x7e80
    7e72:	a48c      	beqz.n	a4, 0x7e80
    7e74:	60a0a2        	movi	a10, 96
    7e77:	202682        	l32i	a8, a6, 128
    7e7a:	10c1b2        	addi	a11, a1, 16
    7e7d:	0008e0        	excw
    7e80:	1a0c      	movi.n	a10, 1
    7e82:	05fa56        	bnez	a10, 0x7ee5
    7e85:	f01d      	excw
    7e87:	0c2916        	beqz	a9, 0x7f4d
    7e8a:	53f8      	l32i.n	a15, a3, 20
    7e8c:	2d2642        	l32i	a4, a6, 180
    7e8f:	5199      	s32i.n	a9, a1, 20
    7e91:	03d8      	l32i.n	a13, a3, 0
    7e93:	71d9      	s32i.n	a13, a1, 28
    7e95:	0f7516        	beqz	a5, 0x7f90
    7e98:	02ad      	mov.n	a10, a2
    7e9a:	0b0c      	movi.n	a11, 0
    7e9c:	2d07c2        	l8ui	a12, a7, 45
    7e9f:	71e8      	l32i.n	a14, a1, 28
    7ea1:	05dd      	mov.n	a13, a5
    7ea3:	01e9      	s32i.n	a14, a1, 0
    7ea5:	1e0c      	movi.n	a14, 1
    7ea7:	0004e0        	excw
    7eaa:	7746f1        	l32r	a15, 0xfffe5bc4
    7ead:	ee2ff2        	l32i	a15, a15, 0x3b8
    7eb0:	1fbc      	beqz.n	a15, 0x7ee5
    7eb2:	02ad      	mov.n	a10, a2
    7eb4:	1b0c      	movi.n	a11, 1
    7eb6:	05dd      	mov.n	a13, a5
    7eb8:	76aa91        	l32r	a9, 0xfffe5960
    7ebb:	2d07c2        	l8ui	a12, a7, 45
    7ebe:	fd29f2        	l32i	a15, a9, 0x3f4
    7ec1:	fe2992        	l32i	a9, a9, 0x3f8
    7ec4:	0199      	s32i.n	a9, a1, 0
    7ec6:	2d2682        	l32i	a8, a6, 180
    7ec9:	1e0c      	movi.n	a14, 1
    7ecb:	0008e0        	excw
    7ece:	02ad      	mov.n	a10, a2
    7ed0:	0b0c      	movi.n	a11, 0
    7ed2:	05dd      	mov.n	a13, a5
    7ed4:	2d07c2        	l8ui	a12, a7, 45
    7ed7:	33f8      	l32i.n	a15, a3, 12
    7ed9:	4398      	l32i.n	a9, a3, 16
    7edb:	0199      	s32i.n	a9, a1, 0
    7edd:	2d2682        	l32i	a8, a6, 180
    7ee0:	1e0c      	movi.n	a14, 1
    7ee2:	0008e0        	excw
    7ee5:	65ec      	bnez.n	a5, 0x7f0f
    7ee7:	61a8      	l32i.n	a10, a1, 24
    7ee9:	512aa2        	l32i	a10, a10, 0x144
    7eec:	1fea47        	bbsi	a10, 4, 0x7f0f
    7eef:	76aab1        	l32r	a11, 0xfffe5998
    7ef2:	eb2bb2        	l32i	a11, a11, 0x3ac
    7ef5:	6bdc      	bnez.n	a11, 0x7f0f
    7ef7:	76aac1        	l32r	a12, 0xfffe59a0
    7efa:	ea2cc2        	l32i	a12, a12, 0x3a8
    7efd:	ec8c      	beqz.n	a12, 0x7f0f
    7eff:	7746d1        	l32r	a13, 0xfffe5c18
    7f02:	dd2dd2        	l32i	a13, a13, 0x374
    7f05:	6dcc      	bnez.n	a13, 0x7f0f
    7f07:	7747f1        	l32r	a15, 0xfffe5c24
    7f0a:	1e0c      	movi.n	a14, 1
    7f0c:	1d6fe2        	s32i	a14, a15, 116
    7f0f:	762b81        	l32r	a8, 0xfffe57bc
    7f12:	142882        	l32i	a8, a8, 80
    7f15:	5198      	l32i.n	a9, a1, 20
    7f17:	02e897        	bbsi	a8, 9, 0x7f1d
    7f1a:	ffd9c6        	j	0x7e85
    7f1d:	f64916        	beqz	a9, 0x7e85
    7f20:	7746a1        	l32r	a10, 0xfffe5c38
    7f23:	7746b1        	l32r	a11, 0xfffe5c3c
    7f26:	de2aa2        	l32i	a10, a10, 0x378
    7f29:	df2bb2        	l32i	a11, a11, 0x37c
    7f2c:	f55a56        	bnez	a10, 0x7e85
    7f2f:	f52b56        	bnez	a11, 0x7e85
    7f32:	7746c1        	l32r	a12, 0xfffe5c4c
    7f35:	dd2cc2        	l32i	a12, a12, 0x374
    7f38:	f49c56        	bnez	a12, 0x7e85
    7f3b:	60a0a2        	movi	a10, 96
    7f3e:	10c1b2        	addi	a11, a1, 16
    7f41:	290c      	movi.n	a9, 2
    7f43:	202682        	l32i	a8, a6, 128
    7f46:	4199      	s32i.n	a9, a1, 16
    7f48:	0008e0        	excw
    7f4b:	f01d      	excw
    7f4d:	ed2ad2        	l32i	a13, a10, 0x3b4
    7f50:	5199      	s32i.n	a9, a1, 20
    7f52:	eddd16        	beqz	a13, 0x7e33
    7f55:	04cd      	mov.n	a12, a4
    7f57:	02ad      	mov.n	a10, a2
    7f59:	05dd      	mov.n	a13, a5
    7f5b:	0e0c      	movi.n	a14, 0
    7f5d:	ff2bf2        	l32i	a15, a11, 0x3fc
    7f60:	0398      	l32i.n	a9, a3, 0
    7f62:	0199      	s32i.n	a9, a1, 0
    7f64:	2d2682        	l32i	a8, a6, 180
    7f67:	0b0c      	movi.n	a11, 0
    7f69:	0008e0        	excw
    7f6c:	762b81        	l32r	a8, 0xfffe5818
    7f6f:	142882        	l32i	a8, a8, 80
    7f72:	0a4d      	mov.n	a4, a10
    7f74:	136897        	bbci	a8, 9, 0x7f8b
    7f77:	2a0792        	l8ui	a9, a7, 42
    7f7a:	0d1966        	bnei	a9, 1, 0x7f8b
    7f7d:	aa8c      	beqz.n	a10, 0x7f8b
    7f7f:	60a0a2        	movi	a10, 96
    7f82:	202682        	l32i	a8, a6, 128
    7f85:	10c1b2        	addi	a11, a1, 16
    7f88:	0008e0        	excw
    7f8b:	1a0c      	movi.n	a10, 1
    7f8d:	ffa986        	j	0x7e37
    7f90:	02ad      	mov.n	a10, a2
    7f92:	0b0c      	movi.n	a11, 0
    7f94:	ac0c      	movi.n	a12, 10
    7f96:	05dd      	mov.n	a13, a5
    7f98:	0e0c      	movi.n	a14, 0
    7f9a:	7198      	l32i.n	a9, a1, 28
    7f9c:	0199      	s32i.n	a9, a1, 0
    7f9e:	0004e0        	excw
    7fa1:	ffd006        	j	0x7ee5
    7fa4:	f67556        	bnez	a5, 0x7f0f
    7fa7:	02ad      	mov.n	a10, a2
    7fa9:	04cd      	mov.n	a12, a4
    7fab:	05dd      	mov.n	a13, a5
    7fad:	0e0c      	movi.n	a14, 0
    7faf:	ff2bf2        	l32i	a15, a11, 0x3fc
    7fb2:	0398      	l32i.n	a9, a3, 0
    7fb4:	0199      	s32i.n	a9, a1, 0
    7fb6:	2d2682        	l32i	a8, a6, 180
    7fb9:	0b0c      	movi.n	a11, 0
    7fbb:	0008e0        	excw
    7fbe:	762b81        	l32r	a8, 0xfffe586c
    7fc1:	142882        	l32i	a8, a8, 80
    7fc4:	048980        	extui	a8, a8, 9, 1
    7fc7:	f1a816        	beqz	a8, 0x7ee5
    7fca:	2a0792        	l8ui	a9, a7, 42
    7fcd:	990b      	addi.n	a9, a9, -1
    7fcf:	f12956        	bnez	a9, 0x7ee5
    7fd2:	f0fa16        	beqz	a10, 0x7ee5
    7fd5:	60a0a2        	movi	a10, 96
    7fd8:	202682        	l32i	a8, a6, 128
    7fdb:	10c1b2        	addi	a11, a1, 16
    7fde:	0008e0        	excw
    7fe1:	ffc006        	j	0x7ee5
    7fe4:	0a0c      	movi.n	a10, 0
    7fe6:	efba16        	beqz	a10, 0x7ee5
    7fe9:	02ad      	mov.n	a10, a2
    7feb:	1b0c      	movi.n	a11, 1
    7fed:	05dd      	mov.n	a13, a5
    7fef:	2d07c2        	l8ui	a12, a7, 45
    7ff2:	13f8      	l32i.n	a15, a3, 4
    7ff4:	2398      	l32i.n	a9, a3, 8
    7ff6:	0199      	s32i.n	a9, a1, 0
    7ff8:	2d2682        	l32i	a8, a6, 180
    7ffb:	0e0c      	movi.n	a14, 0
    7ffd:	0008e0        	excw
    8000:	02ad      	mov.n	a10, a2
    8002:	0b0c      	movi.n	a11, 0
    8004:	05dd      	mov.n	a13, a5
    8006:	33f8      	l32i.n	a15, a3, 12
    8008:	2d07c2        	l8ui	a12, a7, 45
    800b:	4398      	l32i.n	a9, a3, 16
    800d:	0199      	s32i.n	a9, a1, 0
    800f:	2d2682        	l32i	a8, a6, 180
    8012:	0e0c      	movi.n	a14, 0
    8014:	0008e0        	excw
    8017:	ffb286        	j	0x7ee5
    801a:	0b0c      	movi.n	a11, 0
    801c:	ac0c      	movi.n	a12, 10
    801e:	05dd      	mov.n	a13, a5
    8020:	71a8      	l32i.n	a10, a1, 28
    8022:	0e0c      	movi.n	a14, 0
    8024:	01a9      	s32i.n	a10, a1, 0
    8026:	02ad      	mov.n	a10, a2
    8028:	0004e0        	excw
    802b:	ffad86        	j	0x7ee5
    802e:	360000        	excw
    8031:	3100a1        	l32r	a10, 0xfffd4434
    8034:	2e          	.byte 0x2e
    8035:	20c076        	excw
    8038:	23a200        	excw
    803b:	c09b      	addi.n	a12, a0, 9
    803d:	a90020        	excw
    8040:	20c001        	l32r	a0, 0xfffd0340
    8043:	239200        	excw
    8046:	9f          	.byte 0x9f
    8047:	0020c0        	memw
    804a:	1199      	s32i.n	a9, a1, 4
    804c:	0020c0        	memw
    804f:	0188      	l32i.n	a8, a1, 0
    8051:	68cc      	bnez.n	a8, 0x805b
    8053:	0020c0        	memw
    8056:	11b8      	l32i.n	a11, a1, 4
    8058:	31ab16        	beqz	a11, 0x8376
    805b:	0020c0        	memw
    805e:	9e23e2        	l32i	a14, a3, 0x278
    8061:	0020c0        	memw
    8064:	21e9      	s32i.n	a14, a1, 8
    8066:	0020c0        	memw
    8069:	9a23d2        	l32i	a13, a3, 0x268
    806c:	0020c0        	memw
    806f:	31d9      	s32i.n	a13, a1, 12
    8071:	0020c0        	memw
    8074:	31c8      	l32i.n	a12, a1, 12
    8076:	041c      	movi.n	a4, 16
    8078:	2fac16        	beqz	a12, 0x8376
    807b:	774561        	l32r	a6, 0xfffe5d90
    807e:	76a971        	l32r	a7, 0xfffe5b24
    8081:	766b51        	l32r	a5, 0xfffe5a30
    8084:	0020c0        	memw
    8087:	21a8      	l32i.n	a10, a1, 8
    8089:	0020c0        	memw
    808c:	9e63a2        	s32i	a10, a3, 0x278
    808f:	e97c      	movi.n	a9, -2
    8091:	0020c0        	memw
    8094:	3188      	l32i.n	a8, a1, 12
    8096:	108890        	and	a8, a8, a9
    8099:	0020c0        	memw
    809c:	9a6382        	s32i	a8, a3, 0x268
    809f:	0020c0        	memw
    80a2:	31f8      	l32i.n	a15, a1, 12
    80a4:	7f6fa7        	bbci	a15, 10, 0x8127
    80a7:	0020c0        	memw
    80aa:	a12392        	l32i	a9, a3, 0x284
    80ad:	049c90        	extui	a9, a9, 12, 1
    80b0:	0020c0        	memw
    80b3:	104192        	s8i	a9, a1, 16
    80b6:	2a0722        	l8ui	a2, a7, 42
    80b9:	0020c0        	memw
    80bc:	100182        	l8ui	a8, a1, 16
    80bf:	1f0c      	movi.n	a15, 1
    80c1:	090c      	movi.n	a9, 0
    80c3:	839f80        	moveqz	a9, a15, a8
    80c6:	2a4792        	s8i	a9, a7, 42
    80c9:	5a1966        	bnei	a9, 1, 0x8127
    80cc:	a6a8      	l32i.n	a10, a6, 40
    80ce:	0a1a66        	bnei	a10, 1, 0x80dc
    80d1:	1e2582        	l32i	a8, a5, 120
    80d4:	2a0c      	movi.n	a10, 2
    80d6:	0008e0        	excw
    80d9:	2a0792        	l8ui	a9, a7, 42
    80dc:	471966        	bnei	a9, 1, 0x8127
    80df:	044256        	bnez	a2, 0x8127
    80e2:	7747e1        	l32r	a14, 0xfffe5e00
    80e5:	1c0c      	movi.n	a12, 1
    80e7:	762bd1        	l32r	a13, 0xfffe5994
    80ea:	76bfb1        	l32r	a11, 0xfffe5be8
    80ed:	5dd8      	l32i.n	a13, a13, 20
    80ef:	000ba2        	l8ui	a10, a11, 0
    80f2:	1c6ec2        	s32i	a12, a14, 112
    80f5:	93acd0        	movnez	a10, a12, a13
    80f8:	004ba2        	s8i	a10, a11, 0
    80fb:	0020c0        	memw
    80fe:	76c691        	l32r	a9, 0xfffe5c18
    8101:	0998      	l32i.n	a9, a9, 0
    8103:	20e947        	bbsi	a9, 4, 0x8127
    8106:	9a0c      	movi.n	a10, 9
    8108:	16a2b2        	movi	a11, 0x216
    810b:	767381        	l32r	a8, 0xfffe5ad8
    810e:	0c0c      	movi.n	a12, 0
    8110:	7888      	l32i.n	a8, a8, 28
    8112:	0d0c      	movi.n	a13, 0
    8114:	0008e0        	excw
    8117:	0020c0        	memw
    811a:	76c6a1        	l32r	a10, 0xfffe5c34
    811d:	0a98      	l32i.n	a9, a10, 0
    811f:	209940        	or	a9, a9, a4
    8122:	0020c0        	memw
    8125:	0a99      	s32i.n	a9, a10, 0
    8127:	0020c0        	memw
    812a:	31a8      	l32i.n	a10, a1, 12
    812c:	0b6a17        	bbci	a10, 1, 0x813b
    812f:	0020c0        	memw
    8132:	a023c2        	l32i	a12, a3, 0x280
    8135:	0020c0        	memw
    8138:	a063c2        	s32i	a12, a3, 0x280
    813b:	774241        	l32r	a4, 0xfffe5e44
    813e:	ffd422        	addmi	a2, a4, 0xffffff00
    8141:	0020c0        	memw
    8144:	31d8      	l32i.n	a13, a1, 12
    8146:	7748c1        	l32r	a12, 0xfffe5e68
    8149:	1a6d87        	bbci	a13, 8, 0x8167
    814c:	180ca2        	l8ui	a10, a12, 24
    814f:	ab22e2        	l32i	a14, a2, 0x2ac
    8152:	1f0c      	movi.n	a15, 1
    8154:	2947f2        	s8i	a15, a7, 41
    8157:	ee1b      	addi.n	a14, a14, 1
    8159:	6b64e2        	s32i	a14, a4, 0x1ac
    815c:	7a8c      	beqz.n	a10, 0x8167
    815e:	172582        	l32i	a8, a5, 92
    8161:	1cccb2        	addi	a11, a12, 28
    8164:	0008e0        	excw
    8167:	0020c0        	memw
    816a:	3198      	l32i.n	a9, a1, 12
    816c:	2f6997        	bbci	a9, 9, 0x819f
    816f:	0020c0        	memw
    8172:	9f23c2        	l32i	a12, a3, 0x27c
    8175:	0020c0        	memw
    8178:	01c9      	s32i.n	a12, a1, 0
    817a:	0020c0        	memw
    817d:	21b8      	l32i.n	a11, a1, 8
    817f:	0020c0        	memw
    8182:	01a8      	l32i.n	a10, a1, 0
    8184:	10aab0        	and	a10, a10, a11
    8187:	146a07        	bbci	a10, 0, 0x819f
    818a:	a6d8      	l32i.n	a13, a6, 40
    818c:	071d66        	bnei	a13, 1, 0x8197
    818f:	1e2582        	l32i	a8, a5, 120
    8192:	3a0c      	movi.n	a10, 3
    8194:	0008e0        	excw
    8197:	242582        	l32i	a8, a5, 144
    819a:	0a0c      	movi.n	a10, 0
    819c:	0008e0        	excw
    819f:	0020c0        	memw
    81a2:	3198      	l32i.n	a9, a1, 12
    81a4:	a6a8      	l32i.n	a10, a6, 40
    81a6:	116937        	bbci	a9, 3, 0x81bb
    81a9:	eacc      	bnez.n	a10, 0x81bb
    81ab:	1a0c      	movi.n	a10, 1
    81ad:	af2292        	l32i	a9, a2, 0x2bc
    81b0:	1e2582        	l32i	a8, a5, 120
    81b3:	991b      	addi.n	a9, a9, 1
    81b5:	6f6492        	s32i	a9, a4, 0x1bc
    81b8:	0008e0        	excw
    81bb:	0020c0        	memw
    81be:	31a8      	l32i.n	a10, a1, 12
    81c0:	b022b2        	l32i	a11, a2, 0x2c0
    81c3:	046ac7        	bbci	a10, 12, 0x81cb
    81c6:	bb1b      	addi.n	a11, a11, 1
    81c8:	7064b2        	s32i	a11, a4, 0x1c0
    81cb:	0020c0        	memw
    81ce:	31c8      	l32i.n	a12, a1, 12
    81d0:	b122d2        	l32i	a13, a2, 0x2c4
    81d3:	046cb7        	bbci	a12, 11, 0x81db
    81d6:	dd1b      	addi.n	a13, a13, 1
    81d8:	7164d2        	s32i	a13, a4, 0x1c4
    81db:	0020c0        	memw
    81de:	31e8      	l32i.n	a14, a1, 12
    81e0:	04e9e0        	extui	a14, a14, 9, 1
    81e3:	157e16        	beqz	a14, 0x833e
    81e6:	0020c0        	memw
    81e9:	9f2392        	l32i	a9, a3, 0x27c
    81ec:	0020c0        	memw
    81ef:	0199      	s32i.n	a9, a1, 0
    81f1:	0020c0        	memw
    81f4:	2188      	l32i.n	a8, a1, 8
    81f6:	0020c0        	memw
    81f9:	01f8      	l32i.n	a15, a1, 0
    81fb:	10ff80        	and	a15, a15, a8
    81fe:	71f9      	s32i.n	a15, a1, 28
    8200:	746f57        	bbci	a15, 5, 0x8278
    8203:	0020c0        	memw
    8206:	7749b1        	l32r	a11, 0xfffe5f2c
    8209:	a123a2        	l32i	a10, a3, 0x284
    820c:	190c      	movi.n	a9, 1
    820e:	34a8a0        	extui	a10, a10, 8, 4
    8211:	401a00        	ssl	a10
    8214:	a19900        	sll	a9, a9
    8217:	11a900        	slli	a10, a9, 16
    821a:	10aab0        	and	a10, a10, a11
    821d:	91a9      	s32i.n	a10, a1, 36
    821f:	0020c0        	memw
    8222:	9723c2        	l32i	a12, a3, 0x25c
    8225:	20cca0        	or	a12, a12, a10
    8228:	0020c0        	memw
    822b:	9763c2        	s32i	a12, a3, 0x25c
    822e:	0020c0        	memw
    8231:	9723b2        	l32i	a11, a3, 0x25c
    8234:	10b9b0        	and	a11, a9, a11
    8237:	f4b0b0        	extui	a11, a11, 0, 16
    823a:	dbdc      	bnez.n	a11, 0x825b
    823c:	a199      	s32i.n	a9, a1, 40
    823e:	768c81        	l32r	a8, 0xfffe5c70
    8241:	6888      	l32i.n	a8, a8, 24
    8243:	1a0c      	movi.n	a10, 1
    8245:	0008e0        	excw
    8248:	0020c0        	memw
    824b:	9723a2        	l32i	a10, a3, 0x25c
    824e:	a198      	l32i.n	a9, a1, 40
    8250:	10a9a0        	and	a10, a9, a10
    8253:	f4a0a0        	extui	a10, a10, 0, 16
    8256:	fe4a16        	beqz	a10, 0x823e
    8259:	91a8      	l32i.n	a10, a1, 36
    825b:	fe7c      	movi.n	a14, -1
    825d:	30dae0        	xor	a13, a10, a14
    8260:	0020c0        	memw
    8263:	9723c2        	l32i	a12, a3, 0x25c
    8266:	f4b090        	extui	a11, a9, 0, 16
    8269:	30bbe0        	xor	a11, a11, a14
    826c:	10ccd0        	and	a12, a12, a13
    826f:	10bbc0        	and	a11, a11, a12
    8272:	0020c0        	memw
    8275:	9763b2        	s32i	a11, a3, 0x25c
    8278:	71f8      	l32i.n	a15, a1, 28
    827a:	02ef87        	bbsi	a15, 8, 0x8280
    827d:	002086        	j	0x8303
    8280:	0020c0        	memw
    8283:	9923a2        	l32i	a10, a3, 0x264
    8286:	a688      	l32i.n	a8, a6, 40
    8288:	f5a0a0        	extui	a10, a10, 16, 16
    828b:	51a9      	s32i.n	a10, a1, 20
    828d:	06d856        	bnez	a8, 0x82fe
    8290:	fea062        	movi	a6, 254
    8293:	310792        	l8ui	a9, a7, 49
    8296:	ffa0b2        	movi	a11, 255
    8299:	c0b9b0        	sub	a11, a9, a11
    829c:	0e2b56        	bnez	a11, 0x8382
    829f:	51c8      	l32i.n	a12, a1, 20
    82a1:	059c16        	beqz	a12, 0x82fe
    82a4:	030c      	movi.n	a3, 0
    82a6:	762be1        	l32r	a14, 0xfffe5b54
    82a9:	11dcc0        	slli	a13, a12, 4
    82ac:	61d9      	s32i.n	a13, a1, 24
    82ae:	4222c2        	l32i	a12, a2, 0x108
    82b1:	142ee2        	l32i	a14, a14, 80
    82b4:	cc3a      	add.n	a12, a12, a3
    82b6:	277e07        	bbci	a14, 16, 0x82e1
    82b9:	040cf2        	l8ui	a15, a12, 4
    82bc:	5c4b      	addi.n	a5, a12, 4
    82be:	111f67        	beq	a15, a6, 0x82d3
    82c1:	9a0c      	movi.n	a10, 9
    82c3:	767381        	l32r	a8, 0xfffe5c90
    82c6:	1ea2b2        	movi	a11, 0x21e
    82c9:	7888      	l32i.n	a8, a8, 28
    82cb:	0d1c      	movi.n	a13, 16
    82cd:	0008e0        	excw
    82d0:	0001c6        	j	0x82db
    82d3:	b32292        	l32i	a9, a2, 0x2cc
    82d6:	991b      	addi.n	a9, a9, 1
    82d8:	736492        	s32i	a9, a4, 0x1cc
    82db:	004562        	s8i	a6, a5, 0
    82de:	000386        	j	0x82f0
    82e1:	9a0c      	movi.n	a10, 9
    82e3:	767381        	l32r	a8, 0xfffe5cb0
    82e6:	1ea2b2        	movi	a11, 0x21e
    82e9:	7888      	l32i.n	a8, a8, 28
    82eb:	0d1c      	movi.n	a13, 16
    82ed:	0008e0        	excw
    82f0:	762be1        	l32r	a14, 0xfffe5b9c
    82f3:	6198      	l32i.n	a9, a1, 24
    82f5:	10c332        	addi	a3, a3, 16
    82f8:	b29397        	bne	a3, a9, 0x82ae
    82fb:	766b51        	l32r	a5, 0xfffe5ca8
    82fe:	51a8      	l32i.n	a10, a1, 20
    8300:	3147a2        	s8i	a10, a7, 49
    8303:	71b8      	l32i.n	a11, a1, 28
    8305:	356bc7        	bbci	a11, 12, 0x833e
    8308:	242582        	l32i	a8, a5, 144
    830b:	1a0c      	movi.n	a10, 1
    830d:	0008e0        	excw
    8310:	0020c0        	memw
    8313:	76c691        	l32r	a9, 0xfffe5e2c
    8316:	0998      	l32i.n	a9, a9, 0
    8318:	22e917        	bbsi	a9, 1, 0x833e
    831b:	0a1c      	movi.n	a10, 16
    831d:	86a3b2        	movi	a11, 0x386
    8320:	767381        	l32r	a8, 0xfffe5cec
    8323:	0c0c      	movi.n	a12, 0
    8325:	7888      	l32i.n	a8, a8, 28
    8327:	0d0c      	movi.n	a13, 0
    8329:	0008e0        	excw
    832c:	0020c0        	memw
    832f:	76c6a1        	l32r	a10, 0xfffe5e48
    8332:	0a98      	l32i.n	a9, a10, 0
    8334:	2b0c      	movi.n	a11, 2
    8336:	2099b0        	or	a9, a9, a11
    8339:	0020c0        	memw
    833c:	0a99      	s32i.n	a9, a10, 0
    833e:	0020c0        	memw
    8341:	31c8      	l32i.n	a12, a1, 12
    8343:	076c27        	bbci	a12, 2, 0x834e
    8346:	b222d2        	l32i	a13, a2, 0x2c8
    8349:	dd1b      	addi.n	a13, a13, 1
    834b:	7264d2        	s32i	a13, a4, 0x1c8
    834e:	0020c0        	memw
    8351:	31e8      	l32i.n	a14, a1, 12
    8353:	076e77        	bbci	a14, 7, 0x835e
    8356:	ac22f2        	l32i	a15, a2, 0x2b0
    8359:	ff1b      	addi.n	a15, a15, 1
    835b:	6c64f2        	s32i	a15, a4, 0x1b0
    835e:	0020c0        	memw
    8361:	3188      	l32i.n	a8, a1, 12
    8363:	076857        	bbci	a8, 5, 0x836e
    8366:	ad2292        	l32i	a9, a2, 0x2b4
    8369:	991b      	addi.n	a9, a9, 1
    836b:	6d6492        	s32i	a9, a4, 0x1b4
    836e:	0020c0        	memw
    8371:	31a8      	l32i.n	a10, a1, 12
    8373:	01ea47        	bbsi	a10, 4, 0x8378
    8376:	f01d      	excw
    8378:	ae22b2        	l32i	a11, a2, 0x2b8
    837b:	bb1b      	addi.n	a11, a11, 1
    837d:	6e64b2        	s32i	a11, a4, 0x1b8
    8380:	f01d      	excw
    8382:	51c8      	l32i.n	a12, a1, 20
    8384:	c0cc90        	sub	a12, a12, a9
    8387:	24c0c0        	extui	a12, a12, 0, 3
    838a:	81c9      	s32i.n	a12, a1, 32
    838c:	f6ec16        	beqz	a12, 0x82fe
    838f:	762bd1        	l32r	a13, 0xfffe5c3c
    8392:	030c      	movi.n	a3, 0
    8394:	142dd2        	l32i	a13, a13, 80
    8397:	3107e2        	l8ui	a14, a7, 49
    839a:	4222c2        	l32i	a12, a2, 0x108
    839d:	e3ea      	add.n	a14, a3, a14
    839f:	24e0e0        	extui	a14, a14, 0, 3
    83a2:	11eec0        	slli	a14, a14, 4
    83a5:	ccea      	add.n	a12, a12, a14
    83a7:	277d07        	bbci	a13, 16, 0x83d2
    83aa:	040ce2        	l8ui	a14, a12, 4
    83ad:	5c4b      	addi.n	a5, a12, 4
    83af:	111e67        	beq	a14, a6, 0x83c4
    83b2:	9a0c      	movi.n	a10, 9
    83b4:	767381        	l32r	a8, 0xfffe5d80
    83b7:	1ea2b2        	movi	a11, 0x21e
    83ba:	7888      	l32i.n	a8, a8, 28
    83bc:	0d1c      	movi.n	a13, 16
    83be:	0008e0        	excw
    83c1:	0001c6        	j	0x83cc
    83c4:	b32292        	l32i	a9, a2, 0x2cc
    83c7:	991b      	addi.n	a9, a9, 1
    83c9:	736492        	s32i	a9, a4, 0x1cc
    83cc:	004562        	s8i	a6, a5, 0
    83cf:	000386        	j	0x83e1
    83d2:	9a0c      	movi.n	a10, 9
    83d4:	767381        	l32r	a8, 0xfffe5da0
    83d7:	1ea2b2        	movi	a11, 0x21e
    83da:	7888      	l32i.n	a8, a8, 28
    83dc:	0d1c      	movi.n	a13, 16
    83de:	0008e0        	excw
    83e1:	762bd1        	l32r	a13, 0xfffe5c90
    83e4:	8198      	l32i.n	a9, a1, 32
    83e6:	331b      	addi.n	a3, a3, 1
    83e8:	a89397        	bne	a3, a9, 0x8394
    83eb:	766b51        	l32r	a5, 0xfffe5d98
    83ee:	ffc306        	j	0x82fe
    83f1:	000000        	ill
    83f4:	004136        	excw
    83f7:	76db41        	l32r	a4, 0xfffe5f64
    83fa:	78a182        	movi	a8, 0x178
    83fd:	c18280        	mul16u	a8, a2, a8
    8400:	448a      	add.n	a4, a4, a8
    8402:	8004b2        	l8ui	a11, a4, 128
    8405:	3a13b7        	beq	a3, a11, 0x8443
    8408:	022b26        	beqi	a11, 2, 0x840e
    840b:	026b66        	bnei	a11, 6, 0x8411
    840e:	205326        	beqi	a3, 5, 0x8432
    8411:	1a5b26        	beqi	a11, 5, 0x842f
    8414:	176b26        	beqi	a11, 6, 0x842f
    8417:	766ac1        	l32r	a12, 0xfffe5dc0
    841a:	271326        	beqi	a3, 1, 0x8445
    841d:	244326        	beqi	a3, 4, 0x8445
    8420:	101b66        	bnei	a11, 1, 0x8434
    8423:	3a1c      	movi.n	a10, 19
    8425:	4c88      	l32i.n	a8, a12, 16
    8427:	0b0c      	movi.n	a11, 0
    8429:	0008e0        	excw
    842c:	000106        	j	0x8434
    842f:	e42366        	bnei	a3, 2, 0x8417
    8432:	630c      	movi.n	a3, 6
    8434:	02ad      	mov.n	a10, a2
    8436:	766b81        	l32r	a8, 0xfffe5de4
    8439:	804432        	s8i	a3, a4, 128
    843c:	d888      	l32i.n	a8, a8, 52
    843e:	1b0c      	movi.n	a11, 1
    8440:	0008e0        	excw
    8443:	f01d      	excw
    8445:	3a1c      	movi.n	a10, 19
    8447:	4c88      	l32i.n	a8, a12, 16
    8449:	1b0c      	movi.n	a11, 1
    844b:	0008e0        	excw
    844e:	fff886        	j	0x8434
    8451:	000000        	ill
    8454:	004136        	excw
    8457:	76db31        	l32r	a3, 0xfffe5fc4
    845a:	78a1c2        	movi	a12, 0x178
    845d:	c1c2c0        	mul16u	a12, a2, a12
    8460:	3c3a      	add.n	a3, a12, a3
    8462:	800392        	l8ui	a9, a3, 128
    8465:	766b41        	l32r	a4, 0xfffe5e14
    8468:	045916        	beqz	a9, 0x84b1
    846b:	226966        	bnei	a9, 6, 0x8491
    846e:	02ad      	mov.n	a10, a2
    8470:	1b0c      	movi.n	a11, 1
    8472:	d488      	l32i.n	a8, a4, 52
    8474:	5d0c      	movi.n	a13, 5
    8476:	76b4e1        	l32r	a14, 0xfffe5f48
    8479:	290c      	movi.n	a9, 2
    847b:	ecea      	add.n	a14, a12, a14
    847d:	800ee2        	l8ui	a14, a14, 128
    8480:	ffa0f2        	movi	a15, 255
    8483:	c0eef0        	sub	a14, a14, a15
    8486:	939de0        	movnez	a9, a13, a14
    8489:	804392        	s8i	a9, a3, 128
    848c:	0008e0        	excw
    848f:	f01d      	excw
    8491:	021926        	beqi	a9, 1, 0x8497
    8494:	0b4966        	bnei	a9, 4, 0x84a3
    8497:	766a81        	l32r	a8, 0xfffe5e40
    849a:	3a1c      	movi.n	a10, 19
    849c:	4888      	l32i.n	a8, a8, 16
    849e:	0b0c      	movi.n	a11, 0
    84a0:	0008e0        	excw
    84a3:	02ad      	mov.n	a10, a2
    84a5:	d488      	l32i.n	a8, a4, 52
    84a7:	0b0c      	movi.n	a11, 0
    84a9:	0008e0        	excw
    84ac:	090c      	movi.n	a9, 0
    84ae:	804392        	s8i	a9, a3, 128
    84b1:	f01d      	excw
    84b3:	613600        	excw
    84b6:	b02000        	addx8	a2, a0, a0
    84b9:	e64074        	excw
    84bc:	2d0c03        	excw
    84bf:	34c040        	extui	a12, a4, 0, 4
    84c2:	022dc7        	blt	a13, a12, 0x84c8
    84c5:	006240        	rsil	a4, 2
    84c8:	774ae1        	l32r	a14, 0xfffe61f0
    84cb:	78a1a2        	movi	a10, 0x178
    84ce:	c1aba0        	mul16u	a10, a11, a10
    84d1:	76a9c1        	l32r	a12, 0xfffe5f78
    84d4:	eaea      	add.n	a14, a10, a14
    84d6:	d00e92        	l8ui	a9, a14, 208
    84d9:	280cf2        	l8ui	a15, a12, 40
    84dc:	0ba916        	beqz	a9, 0x859a
    84df:	0b7f16        	beqz	a15, 0x859a
    84e2:	300c82        	l8ui	a8, a12, 48
    84e5:	0b1856        	bnez	a8, 0x859a
    84e8:	1f0c      	movi.n	a15, 1
    84ea:	7692d1        	l32r	a13, 0xfffe5f34
    84ed:	5c0c      	movi.n	a12, 5
    84ef:	aada      	add.n	a10, a10, a13
    84f1:	6a0a82        	l8ui	a8, a10, 106
    84f4:	774bd1        	l32r	a13, 0xfffe6220
    84f7:	1188e0        	slli	a8, a8, 2
    84fa:	88da      	add.n	a8, a8, a13
    84fc:	0020c0        	memw
    84ff:	1d2ad2        	l32i	a13, a10, 116
    8502:	6b0a22        	l8ui	a2, a10, 107
    8505:	c50c      	movi.n	a5, 12
    8507:	0888      	l32i.n	a8, a8, 0
    8509:	0189      	s32i.n	a8, a1, 0
    850b:	0541c2        	s8i	a12, a1, 5
    850e:	064192        	s8i	a9, a1, 6
    8511:	084132        	s8i	a3, a1, 8
    8514:	0741b2        	s8i	a11, a1, 7
    8517:	044152        	s8i	a5, a1, 4
    851a:	094122        	s8i	a2, a1, 9
    851d:	04d0d0        	extui	a13, a13, 0, 1
    8520:	0a41d2        	s8i	a13, a1, 10
    8523:	651366        	bnei	a3, 1, 0x858c
    8526:	0d0c      	movi.n	a13, 0
    8528:	2b0c      	movi.n	a11, 2
    852a:	743926        	beqi	a9, 3, 0x85a2
    852d:	5b79e6        	bgei	a9, 7, 0x858c
    8530:	5859a6        	blti	a9, 5, 0x858c
    8533:	910ae2        	l8ui	a14, a10, 145
    8536:	760e81        	l32r	a8, 0xfffe5d70
    8539:	a0eee0        	addx4	a14, a14, a14
    853c:	b0ee80        	addx8	a14, a14, a8
    853f:	d90ea2        	l8ui	a10, a14, 217
    8542:	ee0e82        	l8ui	a8, a14, 238
    8545:	d80e92        	l8ui	a9, a14, 216
    8548:	065192        	s16i	a9, a1, 12
    854b:	0e4182        	s8i	a8, a1, 14
    854e:	715a26        	beqi	a10, 5, 0x85c3
    8551:	736a26        	beqi	a10, 6, 0x85c8
    8554:	8d0c      	movi.n	a13, 8
    8556:	207a26        	beqi	a10, 7, 0x857a
    8559:	77aa26        	beqi	a10, 12, 0x85d4
    855c:	df0c      	movi.n	a15, 13
    855e:	251af7        	beq	a10, a15, 0x8587
    8561:	681c      	movi.n	a8, 22
    8563:	661a87        	beq	a10, a8, 0x85cd
    8566:	791c      	movi.n	a9, 23
    8568:	631a97        	beq	a10, a9, 0x85cf
    856b:	cb1c      	movi.n	a11, 28
    856d:	681ab7        	beq	a10, a11, 0x85d9
    8570:	dc1c      	movi.n	a12, 29
    8572:	169ac7        	bne	a10, a12, 0x858c
    8575:	990c      	movi.n	a9, 9
    8577:	000386        	j	0x8589
    857a:	681e82        	l16ui	a8, a14, 208
    857d:	3f0c      	movi.n	a15, 3
    857f:	1088d0        	and	a8, a8, a13
    8582:	93bf80        	movnez	a11, a15, a8
    8585:	0bcd      	mov.n	a12, a11
    8587:	0c9d      	mov.n	a9, a12
    8589:	0b4192        	s8i	a9, a1, 11
    858c:	766b81        	l32r	a8, 0xfffe5f38
    858f:	80a0a2        	movi	a10, 128
    8592:	202882        	l32i	a8, a8, 128
    8595:	01bd      	mov.n	a11, a1
    8597:	0008e0        	excw
    859a:	13e640        	wsr.ps	a4
    859d:	002010        	rsync
    85a0:	f01d      	excw
    85a2:	4c2a92        	l32i	a9, a10, 0x130
    85a5:	146917        	bbci	a9, 1, 0x85bd
    85a8:	181ea2        	l16ui	a10, a14, 48
    85ab:	191eb2        	l16ui	a11, a14, 50
    85ae:	161ec2        	l16ui	a12, a14, 44
    85b1:	0651c2        	s16i	a12, a1, 12
    85b4:	0e41b2        	s8i	a11, a1, 14
    85b7:	0f41a2        	s8i	a10, a1, 15
    85ba:	fff386        	j	0x858c
    85bd:	0651d2        	s16i	a13, a1, 12
    85c0:	fff206        	j	0x858c
    85c3:	0d9d      	mov.n	a9, a13
    85c5:	fff006        	j	0x8589
    85c8:	0fbd      	mov.n	a11, a15
    85ca:	ffedc6        	j	0x8585
    85cd:	6d0c      	movi.n	a13, 6
    85cf:	0d9d      	mov.n	a9, a13
    85d1:	ffed06        	j	0x8589
    85d4:	4c0c      	movi.n	a12, 4
    85d6:	ffeb46        	j	0x8587
    85d9:	790c      	movi.n	a9, 7
    85db:	ffea86        	j	0x8589
    85de:	360000        	excw
    85e1:	200041        	l32r	a4, 0xfffd05e4
    85e4:	667420        	excw
    85e7:	827ae2        	excw
    85ea:	920403        	excw
    85ed:	660503        	excw
    85f0:	54a8      	l32i.n	a10, a4, 20
    85f2:	516966        	bnei	a9, 6, 0x8647
    85f5:	03e6c0        	rsr.ps	a12
    85f8:	2d0c      	movi.n	a13, 2
    85fa:	34b0c0        	extui	a11, a12, 0, 4
    85fd:	022db7        	blt	a13, a11, 0x8603
    8600:	0062c0        	rsil	a12, 2
    8603:	0b0c      	movi.n	a11, 0
    8605:	774cd1        	l32r	a13, 0xfffe6338
    8608:	7746a1        	l32r	a10, 0xfffe6320
    860b:	940dd2        	l8ui	a13, a13, 148
    860e:	432aa2        	l32i	a10, a10, 0x10c
    8611:	2c9d76        	excw
    8614:	040ae2        	l8ui	a14, a10, 4
    8617:	bb1b      	addi.n	a11, a11, 1
    8619:	22ae66        	bnei	a14, 12, 0x863f
    861c:	050af2        	l8ui	a15, a10, 5
    861f:	070a82        	l8ui	a8, a10, 7
    8622:	196f66        	bnei	a15, 6, 0x863f
    8625:	070392        	l8ui	a9, a3, 7
    8628:	139897        	bne	a8, a9, 0x863f
    862b:	0803d2        	l8ui	a13, a3, 8
    862e:	0603b2        	l8ui	a11, a3, 6
    8631:	064ab2        	s8i	a11, a10, 6
    8634:	084ad2        	s8i	a13, a10, 8
    8637:	13e6c0        	wsr.ps	a12
    863a:	002010        	rsync
    863d:	f01d      	excw
    863f:	4aa8      	l32i.n	a10, a10, 16
    8641:	13e6c0        	wsr.ps	a12
    8644:	002010        	rsync
    8647:	766b21        	l32r	a2, 0xfffe5ff4
    864a:	5288      	l32i.n	a8, a2, 20
    864c:	0008e0        	excw
    864f:	0a4d      	mov.n	a4, a10
    8651:	fa8c      	beqz.n	a10, 0x8664
    8653:	03bd      	mov.n	a11, a3
    8655:	0c1c      	movi.n	a12, 16
    8657:	016fe5        	excw
    865a:	04ad      	mov.n	a10, a4
    865c:	8288      	l32i.n	a8, a2, 32
    865e:	774db1        	l32r	a11, 0xfffe6394
    8661:	0008e0        	excw
    8664:	f01d      	excw
    8666:	360000        	excw
    8669:	210061        	l32r	a6, 0xfffd0a6c
    866c:	76aa      	add.n	a7, a6, a10
    866e:	e822f2        	l32i	a15, a2, 0x3a0
    8671:	dfbc      	beqz.n	a15, 0x86b2
    8673:	01ad      	mov.n	a10, a1
    8675:	76a991        	l32r	a9, 0xfffe611c
    8678:	0f88      	l32i.n	a8, a15, 0
    867a:	3c0992        	l8ui	a9, a9, 60
    867d:	766b31        	l32r	a3, 0xfffe602c
    8680:	c08890        	sub	a8, a8, a9
    8683:	0f89      	s32i.n	a8, a15, 0
    8685:	e822e2        	l32i	a14, a2, 0x3a0
    8688:	362382        	l32i	a8, a3, 216
    868b:	0eb8      	l32i.n	a11, a14, 0
    868d:	1ec8      	l32i.n	a12, a14, 4
    868f:	2ed8      	l32i.n	a13, a14, 8
    8691:	3ee8      	l32i.n	a14, a14, 12
    8693:	0008e0        	excw
    8696:	0a5c      	movi.n	a10, 80
    8698:	01bd      	mov.n	a11, a1
    869a:	e82292        	l32i	a9, a2, 0x3a0
    869d:	202382        	l32i	a8, a3, 128
    86a0:	030c      	movi.n	a3, 0
    86a2:	5939      	s32i.n	a3, a9, 20
    86a4:	0008e0        	excw
    86a7:	7a8c      	beqz.n	a10, 0x86b2
    86a9:	e822b2        	l32i	a11, a2, 0x3a0
    86ac:	1a0c      	movi.n	a10, 1
    86ae:	6b39      	s32i.n	a3, a11, 24
    86b0:	5ba9      	s32i.n	a10, a11, 20
    86b2:	f01d      	excw
    86b4:	004136        	excw
    86b7:	76a9b1        	l32r	a11, 0xfffe615c
    86ba:	0a0c      	movi.n	a10, 0
    86bc:	284ba2        	s8i	a10, a11, 40
    86bf:	766b31        	l32r	a3, 0xfffe606c
    86c2:	fe7c      	movi.n	a14, -1
    86c4:	762ec1        	l32r	a12, 0xfffe5f7c
    86c7:	0020c0        	memw
    86ca:	9b6ca2        	s32i	a10, a12, 0x26c
    86cd:	0020c0        	memw
    86d0:	9f6ca2        	s32i	a10, a12, 0x27c
    86d3:	390c      	movi.n	a9, 3
    86d5:	0020c0        	memw
    86d8:	922c82        	l32i	a8, a12, 0x248
    86db:	208890        	or	a8, a8, a9
    86de:	0020c0        	memw
    86e1:	926c82        	s32i	a8, a12, 0x248
    86e4:	fca322        	movi	a2, 0x3fc
    86e7:	0020c0        	memw
    86ea:	922cf2        	l32i	a15, a12, 0x248
    86ed:	10ff20        	and	a15, a15, a2
    86f0:	0020c0        	memw
    86f3:	926cf2        	s32i	a15, a12, 0x248
    86f6:	0020c0        	memw
    86f9:	9a6ce2        	s32i	a14, a12, 0x268
    86fc:	0020c0        	memw
    86ff:	9e6ce2        	s32i	a14, a12, 0x278
    8702:	774ed1        	l32r	a13, 0xfffe643c
    8705:	0020c0        	memw
    8708:	9b6cd2        	s32i	a13, a12, 0x26c
    870b:	774fb1        	l32r	a11, 0xfffe6448
    870e:	0020c0        	memw
    8711:	9f6cb2        	s32i	a11, a12, 0x27c
    8714:	03e620        	rsr.ps	a2
    8717:	2a0c      	movi.n	a10, 2
    8719:	349020        	extui	a9, a2, 0, 4
    871c:	022a97        	blt	a10, a9, 0x8722
    871f:	006220        	rsil	a2, 2
    8722:	ffa0a2        	movi	a10, 255
    8725:	202382        	l32i	a8, a3, 128
    8728:	7750b1        	l32r	a11, 0xfffe6468
    872b:	0008e0        	excw
    872e:	c0a0a2        	movi	a10, 192
    8731:	202382        	l32i	a8, a3, 128
    8734:	0b0c      	movi.n	a11, 0
    8736:	0008e0        	excw
    8739:	13e620        	wsr.ps	a2
    873c:	002010        	rsync
    873f:	f01d      	excw
    8741:	000000        	ill
    8744:	006136        	excw
    8747:	0b0c      	movi.n	a11, 0
    8749:	774621        	l32r	a2, 0xfffe6464
    874c:	34a6c2        	movi	a12, 0x634
    874f:	02ad      	mov.n	a10, a2
    8751:	017225        	excw
    8754:	fea0b2        	movi	a11, 254
    8757:	775131        	l32r	a3, 0xfffe649c
    875a:	80a0c2        	movi	a12, 128
    875d:	03ad      	mov.n	a10, a3
    875f:	017165        	excw
    8762:	79a0a2        	movi	a10, 121
    8765:	775281        	l32r	a8, 0xfffe64b0
    8768:	01bd      	mov.n	a11, a1
    876a:	4888      	l32i.n	a8, a8, 16
    876c:	4c0c      	movi.n	a12, 4
    876e:	0008e0        	excw
    8771:	1e0c      	movi.n	a14, 1
    8773:	0c0c      	movi.n	a12, 0
    8775:	7745b1        	l32r	a11, 0xfffe648c
    8778:	ffa042        	movi	a4, 255
    877b:	12aa16        	beqz	a10, 0x88a9
    877e:	030192        	l8ui	a9, a1, 3
    8781:	0201a2        	l8ui	a10, a1, 2
    8784:	0101d2        	l8ui	a13, a1, 1
    8787:	0001f2        	l8ui	a15, a1, 0
    878a:	304bf2        	s8i	a15, a11, 48
    878d:	314bd2        	s8i	a13, a11, 49
    8790:	324ba2        	s8i	a10, a11, 50
    8793:	334b92        	s8i	a9, a11, 51
    8796:	7742a1        	l32r	a10, 0xfffe64a0
    8799:	8b0c      	movi.n	a11, 8
    879b:	2a39      	s32i.n	a3, a10, 8
    879d:	76a931        	l32r	a3, 0xfffe6244
    87a0:	005ab2        	s16i	a11, a10, 0
    87a3:	314342        	s8i	a4, a3, 49
    87a6:	770c91        	l32r	a9, 0xfffe63d8
    87a9:	01dab2        	addmi	a11, a10, 0x100
    87ac:	0020c0        	memw
    87af:	fd0c      	movi.n	a13, 15
    87b1:	7748f1        	l32r	a15, 0xfffe64d4
    87b4:	081c      	movi.n	a8, 16
    87b6:	942992        	l32i	a9, a9, 0x250
    87b9:	3243c2        	s8i	a12, a3, 50
    87bc:	2a43c2        	s8i	a12, a3, 42
    87bf:	3043c2        	s8i	a12, a3, 48
    87c2:	726b92        	s32i	a9, a11, 0x1c8
    87c5:	2943e2        	s8i	a14, a3, 41
    87c8:	00a0b2        	movi	a11, 0
    87cb:	adca92        	addi	a9, a10, -83
    87ce:	7753e1        	l32r	a14, 0xfffe651c
    87d1:	07a876        	excw
    87d4:	8049b2        	s8i	a11, a9, 128
    87d7:	18c992        	addi	a9, a9, 24
    87da:	bb1b      	addi.n	a11, a11, 1
    87dc:	2b4342        	s8i	a4, a3, 43
    87df:	656ec2        	s32i	a12, a14, 0x194
    87e2:	676ec2        	s32i	a12, a14, 0x19c
    87e5:	184fc2        	s8i	a12, a15, 24
    87e8:	00af92        	movi	a9, 0xffffff00
    87eb:	fb7c      	movi.n	a11, -1
    87ed:	d4ce82        	addi	a8, a14, -44
    87f0:	666e82        	s32i	a8, a14, 0x198
    87f3:	786ab2        	s32i	a11, a10, 0x1e0
    87f6:	796ab2        	s32i	a11, a10, 0x1e4
    87f9:	7b6a92        	s32i	a9, a10, 0x1ec
    87fc:	7a6ab2        	s32i	a11, a10, 0x1e8
    87ff:	f0ce92        	addi	a9, a14, -16
    8802:	7754a1        	l32r	a10, 0xfffe6554
    8805:	08ad76        	excw
    8808:	f26a92        	s32i	a9, a10, 0x3c8
    880b:	1ccaa2        	addi	a10, a10, 28
    880e:	1cc992        	addi	a9, a9, 28
    8811:	762da1        	l32r	a10, 0xfffe60c8
    8814:	686ec2        	s32i	a12, a14, 0x1a0
    8817:	626ec2        	s32i	a12, a14, 0x188
    881a:	762ed1        	l32r	a13, 0xfffe60d4
    881d:	3f0c      	movi.n	a15, 3
    881f:	76c6e1        	l32r	a14, 0xfffe6338
    8822:	0020c0        	memw
    8825:	0ec9      	s32i.n	a12, a14, 0
    8827:	4222b2        	l32i	a11, a2, 0x108
    882a:	0020c0        	memw
    882d:	986db2        	s32i	a11, a13, 0x260
    8830:	801292        	l16ui	a9, a2, 0x100
    8833:	0020c0        	memw
    8836:	762b81        	l32r	a8, 0xfffe60e4
    8839:	996d92        	s32i	a9, a13, 0x264
    883c:	142882        	l32i	a8, a8, 80
    883f:	148d80        	extui	a8, a8, 13, 2
    8842:	0020c0        	memw
    8845:	946d82        	s32i	a8, a13, 0x250
    8848:	0020c0        	memw
    884b:	936df2        	s32i	a15, a13, 0x24c
    884e:	0020c0        	memw
    8851:	7749e1        	l32r	a14, 0xfffe6578
    8854:	952dc2        	l32i	a12, a13, 0x254
    8857:	10cce0        	and	a12, a12, a14
    885a:	0020c0        	memw
    885d:	956dc2        	s32i	a12, a13, 0x254
    8860:	0020c0        	memw
    8863:	a22a92        	l32i	a9, a10, 0x288
    8866:	1b7c      	movi.n	a11, -15
    8868:	1099b0        	and	a9, a9, a11
    886b:	2b0c      	movi.n	a11, 2
    886d:	2099b0        	or	a9, a9, a11
    8870:	0020c0        	memw
    8873:	766b81        	l32r	a8, 0xfffe6220
    8876:	1d2882        	l32i	a8, a8, 116
    8879:	a26a92        	s32i	a9, a10, 0x288
    887c:	0008e0        	excw
    887f:	2c4342        	s8i	a4, a3, 44
    8882:	2e4342        	s8i	a4, a3, 46
    8885:	76a081        	l32r	a8, 0xfffe6308
    8888:	0020c0        	memw
    888b:	842882        	l32i	a8, a8, 0x210
    888e:	958680        	extui	a8, a8, 22, 10
    8891:	880b      	addi.n	a8, a8, -1
    8893:	3c4382        	s8i	a8, a3, 60
    8896:	7732f1        	l32r	a15, 0xfffe6560
    8899:	0020c0        	memw
    889c:	842ff2        	l32i	a15, a15, 0x210
    889f:	e5f1f0        	extui	a15, a15, 17, 15
    88a2:	ff0b      	addi.n	a15, a15, -1
    88a4:	3d43f2        	s8i	a15, a3, 61
    88a7:	f01d      	excw
    88a9:	324be2        	s8i	a14, a11, 50
    88ac:	5a0c      	movi.n	a10, 5
    88ae:	e91c      	movi.n	a9, 30
    88b0:	314b92        	s8i	a9, a11, 49
    88b3:	304ba2        	s8i	a10, a11, 48
    88b6:	0c9d      	mov.n	a9, a12
    88b8:	ffb5c6        	j	0x8793
    88bb:	413600        	srli	a3, a0, 6
    88be:	040c00        	extui	a0, a0, 12, 1
    88c1:	774731        	l32r	a3, 0xfffe65e0
    88c4:	767351        	l32r	a5, 0xfffe6290
    88c7:	fdd322        	addmi	a2, a3, 0xfffffd00
    88ca:	03e660        	rsr.ps	a6
    88cd:	2a0c      	movi.n	a10, 2
    88cf:	349060        	extui	a9, a6, 0, 4
    88d2:	022a97        	blt	a10, a9, 0x88d8
    88d5:	006260        	rsil	a6, 2
    88d8:	dc2282        	l32i	a8, a2, 0x370
    88db:	76c671        	l32r	a7, 0xfffe63f4
    88de:	68ac      	beqz.n	a8, 0x8908
    88e0:	0020c0        	memw
    88e3:	07b8      	l32i.n	a11, a7, 0
    88e5:	1ceb47        	bbsi	a11, 4, 0x8905
    88e8:	9a0c      	movi.n	a10, 9
    88ea:	16a2b2        	movi	a11, 0x216
    88ed:	0c0c      	movi.n	a12, 0
    88ef:	7588      	l32i.n	a8, a5, 28
    88f1:	0d0c      	movi.n	a13, 0
    88f3:	0008e0        	excw
    88f6:	0020c0        	memw
    88f9:	0798      	l32i.n	a9, a7, 0
    88fb:	0a1c      	movi.n	a10, 16
    88fd:	2099a0        	or	a9, a9, a10
    8900:	0020c0        	memw
    8903:	0799      	s32i.n	a9, a7, 0
    8905:	1c6342        	s32i	a4, a3, 112
    8908:	13e660        	wsr.ps	a6
    890b:	002010        	rsync
    890e:	03e660        	rsr.ps	a6
    8911:	2d0c      	movi.n	a13, 2
    8913:	34c060        	extui	a12, a6, 0, 4
    8916:	022dc7        	blt	a13, a12, 0x891c
    8919:	006260        	rsil	a6, 2
    891c:	dd22b2        	l32i	a11, a2, 0x374
    891f:	fb8c      	beqz.n	a11, 0x8932
    8921:	9a0c      	movi.n	a10, 9
    8923:	19a2b2        	movi	a11, 0x219
    8926:	0c0c      	movi.n	a12, 0
    8928:	7588      	l32i.n	a8, a5, 28
    892a:	0d0c      	movi.n	a13, 0
    892c:	0008e0        	excw
    892f:	1d6342        	s32i	a4, a3, 116
    8932:	13e660        	wsr.ps	a6
    8935:	002010        	rsync
    8938:	03e660        	rsr.ps	a6
    893b:	2b0c      	movi.n	a11, 2
    893d:	34a060        	extui	a10, a6, 0, 4
    8940:	022ba7        	blt	a11, a10, 0x8946
    8943:	006260        	rsil	a6, 2
    8946:	de2292        	l32i	a9, a2, 0x378
    8949:	099c      	beqz.n	a9, 0x895d
    894b:	9a0c      	movi.n	a10, 9
    894d:	18a2b2        	movi	a11, 0x218
    8950:	76a9c1        	l32r	a12, 0xfffe63f4
    8953:	7588      	l32i.n	a8, a5, 28
    8955:	4d1c      	movi.n	a13, 20
    8957:	0008e0        	excw
    895a:	1e6342        	s32i	a4, a3, 120
    895d:	13e660        	wsr.ps	a6
    8960:	002010        	rsync
    8963:	03e660        	rsr.ps	a6
    8966:	2b0c      	movi.n	a11, 2
    8968:	34a060        	extui	a10, a6, 0, 4
    896b:	022ba7        	blt	a11, a10, 0x8971
    896e:	006260        	rsil	a6, 2
    8971:	df2292        	l32i	a9, a2, 0x37c
    8974:	099c      	beqz.n	a9, 0x8988
    8976:	9a0c      	movi.n	a10, 9
    8978:	18a2b2        	movi	a11, 0x218
    897b:	7755c1        	l32r	a12, 0xfffe66d0
    897e:	7588      	l32i.n	a8, a5, 28
    8980:	4d1c      	movi.n	a13, 20
    8982:	0008e0        	excw
    8985:	1f6342        	s32i	a4, a3, 124
    8988:	13e660        	wsr.ps	a6
    898b:	002010        	rsync
    898e:	f01d      	excw
    8990:	004136        	excw
    8993:	770c31        	l32r	a3, 0xfffe65c4
    8996:	76a941        	l32r	a4, 0xfffe643c
    8999:	0020c0        	memw
    899c:	320482        	l8ui	a8, a4, 50
    899f:	7746a1        	l32r	a10, 0xfffe66b8
    89a2:	942332        	l32i	a3, a3, 0x250
    89a5:	f22aa2        	l32i	a10, a10, 0x3c8
    89a8:	090c      	movi.n	a9, 0
    89aa:	c0a3a0        	sub	a10, a3, a10
    89ad:	83a980        	moveqz	a10, a9, a8
    89b0:	988c      	beqz.n	a8, 0x89bd
    89b2:	775681        	l32r	a8, 0xfffe670c
    89b5:	b00882        	l8ui	a8, a8, 176
    89b8:	0138a7        	bltu	a8, a10, 0x89bd
    89bb:	a2bc      	beqz.n	a2, 0x89f9
    89bd:	150c      	movi.n	a5, 1
    89bf:	a28c      	beqz.n	a2, 0x89cd
    89c1:	766b81        	l32r	a8, 0xfffe6370
    89c4:	222882        	l32i	a8, a8, 136
    89c7:	0008e0        	excw
    89ca:	000a06        	j	0x89f6
    89cd:	76c621        	l32r	a2, 0xfffe64e8
    89d0:	0020c0        	memw
    89d3:	0298      	l32i.n	a9, a2, 0
    89d5:	1de907        	bbsi	a9, 0, 0x89f6
    89d8:	0a1c      	movi.n	a10, 16
    89da:	85a3b2        	movi	a11, 0x385
    89dd:	767381        	l32r	a8, 0xfffe63ac
    89e0:	0c0c      	movi.n	a12, 0
    89e2:	7888      	l32i.n	a8, a8, 28
    89e4:	0d0c      	movi.n	a13, 0
    89e6:	0008e0        	excw
    89e9:	0020c0        	memw
    89ec:	0298      	l32i.n	a9, a2, 0
    89ee:	209950        	or	a9, a9, a5
    89f1:	0020c0        	memw
    89f4:	0299      	s32i.n	a9, a2, 0
    89f6:	324452        	s8i	a5, a4, 50
    89f9:	76aaa1        	l32r	a10, 0xfffe64a4
    89fc:	726a32        	s32i	a3, a10, 0x1c8
    89ff:	f01d      	excw
    8a01:	000000        	ill
    8a04:	004136        	excw
    8a07:	775a91        	l32r	a9, 0xfffe6770
    8a0a:	7759a1        	l32r	a10, 0xfffe6770
    8a0d:	7758b1        	l32r	a11, 0xfffe6770
    8a10:	7757c1        	l32r	a12, 0xfffe676c
    8a13:	766b31        	l32r	a3, 0xfffe63c0
    8a16:	76c6e1        	l32r	a14, 0xfffe6530
    8a19:	3c23d2        	l32i	a13, a3, 240
    8a1c:	5ed9      	s32i.n	a13, a14, 20
    8a1e:	43f8      	l32i.n	a15, a3, 16
    8a20:	3328      	l32i.n	a2, a3, 12
    8a22:	202342        	l32i	a4, a3, 128
    8a25:	162382        	l32i	a8, a3, 88
    8a28:	1663c2        	s32i	a12, a3, 88
    8a2b:	2063b2        	s32i	a11, a3, 128
    8a2e:	33a9      	s32i.n	a10, a3, 12
    8a30:	4399      	s32i.n	a9, a3, 16
    8a32:	4ef9      	s32i.n	a15, a14, 16
    8a34:	1e89      	s32i.n	a8, a14, 4
    8a36:	3e29      	s32i.n	a2, a14, 12
    8a38:	2e49      	s32i.n	a4, a14, 8
    8a3a:	7760d1        	l32r	a13, 0xfffe67bc
    8a3d:	c3d9      	s32i.n	a13, a3, 48
    8a3f:	775c41        	l32r	a4, 0xfffe67b0
    8a42:	775d21        	l32r	a2, 0xfffe67b8
    8a45:	775b81        	l32r	a8, 0xfffe67b4
    8a48:	775ef1        	l32r	a15, 0xfffe67c0
    8a4b:	776491        	l32r	a9, 0xfffe67dc
    8a4e:	7763a1        	l32r	a10, 0xfffe67dc
    8a51:	7762b1        	l32r	a11, 0xfffe67dc
    8a54:	7761c1        	l32r	a12, 0xfffe67d8
    8a57:	d3c9      	s32i.n	a12, a3, 52
    8a59:	1763b2        	s32i	a11, a3, 92
    8a5c:	2a63a2        	s32i	a10, a3, 168
    8a5f:	1d6392        	s32i	a9, a3, 116
    8a62:	2563f2        	s32i	a15, a3, 148
    8a65:	3c6382        	s32i	a8, a3, 240
    8a68:	2e6322        	s32i	a2, a3, 184
    8a6b:	0349      	s32i.n	a4, a3, 0
    8a6d:	776721        	l32r	a2, 0xfffe680c
    8a70:	776641        	l32r	a4, 0xfffe6808
    8a73:	776581        	l32r	a8, 0xfffe6808
    8a76:	236382        	s32i	a8, a3, 140
    8a79:	266342        	s32i	a4, a3, 152
    8a7c:	246322        	s32i	a2, a3, 144
    8a7f:	775fe1        	l32r	a14, 0xfffe67fc
    8a82:	b3e9      	s32i.n	a14, a3, 44
    8a84:	f01d      	excw
    8a86:	360000        	excw
    8a89:	ad0041        	l32r	a4, 0xffff3e8c
    8a8c:	69b102        	excw
    8a8f:	688177        	bany	a1, a7, 0x8afb
    8a92:	6a9177        	bne	a1, a7, 0x8b00
    8a95:	088877        	bany	a8, a7, 0x8aa1
    8a98:	415b92        	s16i	a9, a11, 130
    8a9b:	0008e0        	excw
    8a9e:	0a2d      	mov.n	a2, a10
    8aa0:	f01d      	excw
    8aa2:	360000        	excw
    8aa5:	210041        	l32r	a4, 0xfffd0ea8
    8aa8:	776b      	addi.n	a7, a7, 6
    8aaa:	775231        	l32r	a3, 0xfffe67f4
    8aad:	776881        	l32r	a8, 0xfffe6850
    8ab0:	4a2342        	l32i	a4, a3, 0x128
    8ab3:	0849      	s32i.n	a4, a8, 0
    8ab5:	4a6322        	s32i	a2, a3, 0x128
    8ab8:	f01d      	excw
    8aba:	360000        	excw
    8abd:	810041        	l32r	a4, 0xfffe8ec0
    8ac0:	773b      	addi.n	a7, a7, 3
    8ac2:	ea5c      	movi.n	a10, 94
    8ac4:	5888      	l32i.n	a8, a8, 20
    8ac6:	776cb1        	l32r	a11, 0xfffe6878
    8ac9:	0008e0        	excw
    8acc:	f01d      	excw
    8ace:	360000        	excw
    8ad1:	210041        	l32r	a4, 0xfffd0ed4
    8ad4:	773b      	addi.n	a7, a7, 3
    8ad6:	b288      	l32i.n	a8, a2, 44
    8ad8:	ea5c      	movi.n	a10, 94
    8ada:	0008e0        	excw
    8add:	ea5c      	movi.n	a10, 94
    8adf:	5288      	l32i.n	a8, a2, 20
    8ae1:	776db1        	l32r	a11, 0xfffe6898
    8ae4:	0008e0        	excw
    8ae7:	9288      	l32i.n	a8, a2, 36
    8ae9:	ea5c      	movi.n	a10, 94
    8aeb:	0008e0        	excw
    8aee:	f01d      	excw
    8af0:	004136        	excw
    8af3:	62a0b2        	movi	a11, 98
    8af6:	776ea1        	l32r	a10, 0xfffe68b0
    8af9:	773b21        	l32r	a2, 0xfffe67e8
    8afc:	390c      	movi.n	a9, 3
    8afe:	1288      	l32i.n	a8, a2, 4
    8b00:	1d4a92        	s8i	a9, a10, 29
    8b03:	0008e0        	excw
    8b06:	fffb65        	excw
    8b09:	2288      	l32i.n	a8, a2, 8
    8b0b:	ea5c      	movi.n	a10, 94
    8b0d:	0008e0        	excw
    8b10:	3b0c      	movi.n	a11, 3
    8b12:	0c0c      	movi.n	a12, 0
    8b14:	aea8e5        	excw
    8b17:	f01d      	excw
    8b19:	000000        	ill
    8b1c:	006136        	excw
    8b1f:	766e41        	l32r	a4, 0xfffe64d8
    8b22:	060c      	movi.n	a6, 0
    8b24:	202442        	l32i	a4, a4, 128
    8b27:	03e690        	rsr.ps	a9
    8b2a:	2b0c      	movi.n	a11, 2
    8b2c:	34a090        	extui	a10, a9, 0, 4
    8b2f:	022ba7        	blt	a11, a10, 0x8b35
    8b32:	006290        	rsil	a9, 2
    8b35:	776f81        	l32r	a8, 0xfffe68f4
    8b38:	007d      	mov.n	a7, a0
    8b3a:	015d      	mov.n	a5, a1
    8b3c:	0888      	l32i.n	a8, a8, 0
    8b3e:	0008e0        	excw
    8b41:	76b381        	l32r	a8, 0xfffe6610
    8b44:	3d2882        	l32i	a8, a8, 244
    8b47:	0008e0        	excw
    8b4a:	7680e1        	l32r	a14, 0xfffe654c
    8b4d:	089a16        	beqz	a10, 0x8bda
    8b50:	7770a1        	l32r	a10, 0xfffe6910
    8b53:	777191        	l32r	a9, 0xfffe6918
    8b56:	7772b1        	l32r	a11, 0xfffe6920
    8b59:	771bd1        	l32r	a13, 0xfffe67c8
    8b5c:	762981        	l32r	a8, 0xfffe6400
    8b5f:	7773c1        	l32r	a12, 0xfffe692c
    8b62:	f888      	l32i.n	a8, a8, 60
    8b64:	832c20        	moveqz	a2, a12, a2
    8b67:	10d7d0        	and	a13, a7, a13
    8b6a:	01d9      	s32i.n	a13, a1, 0
    8b6c:	02cd      	mov.n	a12, a2
    8b6e:	83b930        	moveqz	a11, a9, a3
    8b71:	0008e0        	excw
    8b74:	160c      	movi.n	a6, 1
    8b76:	4c0c      	movi.n	a12, 4
    8b78:	7774f1        	l32r	a15, 0xfffe6948
    8b7b:	777571        	l32r	a7, 0xfffe6950
    8b7e:	7776b1        	l32r	a11, 0xfffe6958
    8b81:	7777a1        	l32r	a10, 0xfffe6960
    8b84:	7680e1        	l32r	a14, 0xfffe6584
    8b87:	f4add2        	movi	a13, 0xfffffdf4
    8b8a:	0e88      	l32i.n	a8, a14, 0
    8b8c:	0198      	l32i.n	a9, a1, 0
    8b8e:	7899      	s32i.n	a9, a8, 28
    8b90:	463547        	bltu	a5, a4, 0x8bda
    8b93:	433757        	bltu	a7, a5, 0x8bda
    8b96:	25da      	add.n	a2, a5, a13
    8b98:	802252        	l32i	a5, a2, 0x200
    8b9b:	7f2222        	l32i	a2, a2, 0x1fc
    8b9e:	1055a0        	and	a5, a5, a10
    8ba1:	1022a0        	and	a2, a2, a10
    8ba4:	e8bb27        	bgeu	a11, a2, 0x8b90
    8ba7:	11c9      	s32i.n	a12, a1, 4
    8ba9:	e3b2f7        	bgeu	a2, a15, 0x8b90
    8bac:	762981        	l32r	a8, 0xfffe6450
    8baf:	7778a1        	l32r	a10, 0xfffe6990
    8bb2:	f888      	l32i.n	a8, a8, 60
    8bb4:	02bd      	mov.n	a11, a2
    8bb6:	0008e0        	excw
    8bb9:	7777a1        	l32r	a10, 0xfffe6998
    8bbc:	7776b1        	l32r	a11, 0xfffe6994
    8bbf:	11c8      	l32i.n	a12, a1, 4
    8bc1:	7774f1        	l32r	a15, 0xfffe6994
    8bc4:	f4add2        	movi	a13, 0xfffffdf4
    8bc7:	7680e1        	l32r	a14, 0xfffe65c8
    8bca:	c246f6        	bgeui	a6, 4, 0x8b90
    8bcd:	0e98      	l32i.n	a9, a14, 0
    8bcf:	661b      	addi.n	a6, a6, 1
    8bd1:	99ca      	add.n	a9, a9, a12
    8bd3:	7929      	s32i.n	a2, a9, 28
    8bd5:	cc4b      	addi.n	a12, a12, 4
    8bd7:	ffed46        	j	0x8b90
    8bda:	1246f6        	bgeui	a6, 4, 0x8bf0
    8bdd:	0a0c      	movi.n	a10, 0
    8bdf:	0e98      	l32i.n	a9, a14, 0
    8be1:	4b0c      	movi.n	a11, 4
    8be3:	c0bb60        	sub	a11, a11, a6
    8be6:	a09690        	addx4	a9, a6, a9
    8be9:	039b76        	excw
    8bec:	79a9      	s32i.n	a10, a9, 28
    8bee:	994b      	addi.n	a9, a9, 4
    8bf0:	93cc      	bnez.n	a3, 0x8bfd
    8bf2:	76b381        	l32r	a8, 0xfffe66c0
    8bf5:	3d2882        	l32i	a8, a8, 244
    8bf8:	0008e0        	excw
    8bfb:	8a8c      	beqz.n	a10, 0x8c07
    8bfd:	768c81        	l32r	a8, 0xfffe6630
    8c00:	9888      	l32i.n	a8, a8, 36
    8c02:	2a0c      	movi.n	a10, 2
    8c04:	0008e0        	excw
    8c07:	020c      	movi.n	a2, 0
    8c09:	f01d      	excw
    8c0b:	413600        	srli	a3, a0, 6
    8c0e:	a02000        	addx4	a2, a0, a0
    8c11:	e6b074        	excw
    8c14:	290c03        	excw
    8c17:	3480b0        	extui	a8, a11, 0, 4
    8c1a:	022987        	blt	a9, a8, 0x8c20
    8c1d:	0062b0        	rsil	a11, 2
    8c20:	762b21        	l32r	a2, 0xfffe64cc
    8c23:	040222        	l8ui	a2, a2, 4
    8c26:	103266        	bnei	a2, 3, 0x8c3a
    8c29:	0c0c      	movi.n	a12, 0
    8c2b:	762ed1        	l32r	a13, 0xfffe64e4
    8c2e:	0020c0        	memw
    8c31:	9b6dc2        	s32i	a12, a13, 0x26c
    8c34:	0020c0        	memw
    8c37:	9f6dc2        	s32i	a12, a13, 0x27c
    8c3a:	13e6b0        	wsr.ps	a11
    8c3d:	002010        	rsync
    8c40:	777981        	l32r	a8, 0xfffe6a24
    8c43:	0888      	l32i.n	a8, a8, 0
    8c45:	0008e0        	excw
    8c48:	f01d      	excw
    8c4a:	360000        	excw
    8c4d:	810041        	l32r	a4, 0xfffe9050
    8c50:	76cb      	addi.n	a7, a6, 12
    8c52:	768031        	l32r	a3, 0xfffe6654
    8c55:	2888      	l32i.n	a8, a8, 8
    8c57:	03a8      	l32i.n	a10, a3, 0
    8c59:	048980        	extui	a8, a8, 9, 1
    8c5c:	0a2816        	beqz	a8, 0x8d02
    8c5f:	322a92        	l32i	a9, a10, 200
    8c62:	b9cc      	bnez.n	a9, 0x8c71
    8c64:	7771a1        	l32r	a10, 0xfffe6a28
    8c67:	0b0c      	movi.n	a11, 0
    8c69:	b093a5        	excw
    8c6c:	03a8      	l32i.n	a10, a3, 0
    8c6e:	322a92        	l32i	a9, a10, 200
    8c71:	211966        	bnei	a9, 1, 0x8c96
    8c74:	76d441        	l32r	a4, 0xfffe67c4
    8c77:	76d3b1        	l32r	a11, 0xfffe67c4
    8c7a:	777ad1        	l32r	a13, 0xfffe6a64
    8c7d:	eac8      	l32i.n	a12, a10, 56
    8c7f:	777b81        	l32r	a8, 0xfffe6a6c
    8c82:	c0ccd0        	sub	a12, a12, a13
    8c85:	838bc0        	moveqz	a8, a11, a12
    8c88:	000882        	l8ui	a8, a8, 0
    8c8b:	04a4b2        	movi	a11, 0x404
    8c8e:	c188b0        	mul16u	a8, a8, a11
    8c91:	448a      	add.n	a4, a4, a8
    8c93:	f52442        	l32i	a4, a4, 0x3d4
    8c96:	b9cc      	bnez.n	a9, 0x8ca5
    8c98:	7771a1        	l32r	a10, 0xfffe6a5c
    8c9b:	0b0c      	movi.n	a11, 0
    8c9d:	b09065        	excw
    8ca0:	03a8      	l32i.n	a10, a3, 0
    8ca2:	322a92        	l32i	a9, a10, 200
    8ca5:	777c21        	l32r	a2, 0xfffe6a98
    8ca8:	772251        	l32r	a5, 0xfffe6930
    8cab:	0a1966        	bnei	a9, 1, 0x8cb9
    8cae:	25e8      	l32i.n	a14, a5, 8
    8cb0:	05ee16        	beqz	a14, 0x8d12
    8cb3:	382af2        	l32i	a15, a10, 224
    8cb6:	58fff7        	bbsi	a15, 31, 0x8d12
    8cb9:	b9cc      	bnez.n	a9, 0x8cc8
    8cbb:	7771a1        	l32r	a10, 0xfffe6a80
    8cbe:	0b0c      	movi.n	a11, 0
    8cc0:	b08e25        	excw
    8cc3:	0398      	l32i.n	a9, a3, 0
    8cc5:	322992        	l32i	a9, a9, 200
    8cc8:	777da1        	l32r	a10, 0xfffe6abc
    8ccb:	141966        	bnei	a9, 1, 0x8ce3
    8cce:	25b8      	l32i.n	a11, a5, 8
    8cd0:	b90a92        	l8ui	a9, a10, 185
    8cd3:	fb8c      	beqz.n	a11, 0x8ce6
    8cd5:	0d6917        	bbci	a9, 1, 0x8ce6
    8cd8:	a48c      	beqz.n	a4, 0x8ce6
    8cda:	2288      	l32i.n	a8, a2, 8
    8cdc:	2a0c      	movi.n	a10, 2
    8cde:	0008e0        	excw
    8ce1:	f01d      	excw
    8ce3:	b90a92        	l8ui	a9, a10, 185
    8ce6:	116907        	bbci	a9, 0, 0x8cfb
    8ce9:	760f81        	l32r	a8, 0xfffe6528
    8cec:	c62882        	l32i	a8, a8, 0x318
    8cef:	0008e0        	excw
    8cf2:	ea8c      	beqz.n	a10, 0x8d04
    8cf4:	3288      	l32i.n	a8, a2, 12
    8cf6:	0008e0        	excw
    8cf9:	f01d      	excw
    8cfb:	2288      	l32i.n	a8, a2, 8
    8cfd:	1a0c      	movi.n	a10, 1
    8cff:	0008e0        	excw
    8d02:	f01d      	excw
    8d04:	4288      	l32i.n	a8, a2, 16
    8d06:	0008e0        	excw
    8d09:	2288      	l32i.n	a8, a2, 8
    8d0b:	1a0c      	movi.n	a10, 1
    8d0d:	0008e0        	excw
    8d10:	f01d      	excw
    8d12:	2288      	l32i.n	a8, a2, 8
    8d14:	2a0c      	movi.n	a10, 2
    8d16:	0008e0        	excw
    8d19:	f01d      	excw
    8d1b:	413600        	srli	a3, a0, 6
    8d1e:	80b100        	add	a11, a1, a0
    8d21:	818177        	bany	a1, a7, 0x8ca6
    8d24:	7ee177        	bbsi	a1, 7, 0x8da6
    8d27:	7fc177        	bnall	a1, a7, 0x8daa
    8d2a:	8cd177        	bbs	a1, a7, 0x8cba
    8d2d:	792176        	excw
    8d30:	adf877        	bbsi	a8, 23, 0x8ce1
    8d33:	02f9      	s32i.n	a15, a2, 0
    8d35:	768021        	l32r	a2, 0xfffe6738
    8d38:	176dc2        	s32i	a12, a13, 92
    8d3b:	02a8      	l32i.n	a10, a2, 0
    8d3d:	ade9      	s32i.n	a14, a13, 40
    8d3f:	322a92        	l32i	a9, a10, 200
    8d42:	2b89      	s32i.n	a8, a11, 8
    8d44:	b9cc      	bnez.n	a9, 0x8d53
    8d46:	7771a1        	l32r	a10, 0xfffe6b0c
    8d49:	0b0c      	movi.n	a11, 0
    8d4b:	b085a5        	excw
    8d4e:	02a8      	l32i.n	a10, a2, 0
    8d50:	322a92        	l32i	a9, a10, 200
    8d53:	1c1966        	bnei	a9, 1, 0x8d73
    8d56:	342a82        	l32i	a8, a10, 208
    8d59:	163826        	beqi	a8, 3, 0x8d73
    8d5c:	770ca1        	l32r	a10, 0xfffe698c
    8d5f:	0020c0        	memw
    8d62:	8a2a92        	l32i	a9, a10, 0x228
    8d65:	1b0c      	movi.n	a11, 1
    8d67:	2099b0        	or	a9, a9, a11
    8d6a:	0020c0        	memw
    8d6d:	8a6a92        	s32i	a9, a10, 0x228
    8d70:	ffd7e5        	excw
    8d73:	f01d      	excw
    8d75:	000000        	ill
    8d78:	004136        	excw
    8d7b:	778281        	l32r	a8, 0xfffe6b84
    8d7e:	4888      	l32i.n	a8, a8, 16
    8d80:	1a0c      	movi.n	a10, 1
    8d82:	0008e0        	excw
    8d85:	2c0c      	movi.n	a12, 2
    8d87:	770ca1        	l32r	a10, 0xfffe69b8
    8d8a:	0020c0        	memw
    8d8d:	886ac2        	s32i	a12, a10, 0x220
    8d90:	0020c0        	memw
    8d93:	802a92        	l32i	a9, a10, 0x200
    8d96:	20c9c0        	or	a12, a9, a12
    8d99:	0020c0        	memw
    8d9c:	806ac2        	s32i	a12, a10, 0x200
    8d9f:	db7c      	movi.n	a11, -3
    8da1:	1099b0        	and	a9, a9, a11
    8da4:	0020c0        	memw
    8da7:	778381        	l32r	a8, 0xfffe6bb4
    8daa:	0888      	l32i.n	a8, a8, 0
    8dac:	806a92        	s32i	a9, a10, 0x200
    8daf:	1b2882        	l32i	a8, a8, 108
    8db2:	02ad      	mov.n	a10, a2
    8db4:	0008e0        	excw
    8db7:	f01d      	excw
    8db9:	000000        	ill
    8dbc:	004136        	excw
    8dbf:	ffa032        	movi	a3, 255
    8dc2:	428c      	beqz.n	a2, 0x8dca
    8dc4:	c08230        	sub	a8, a2, a3
    8dc7:	0b1856        	bnez	a8, 0x8e7c
    8dca:	778341        	l32r	a4, 0xfffe6bd8
    8dcd:	0488      	l32i.n	a8, a4, 0
    8dcf:	d888      	l32i.n	a8, a8, 52
    8dd1:	0008e0        	excw
    8dd4:	7669a1        	l32r	a10, 0xfffe6778
    8dd7:	0020c0        	memw
    8dda:	76e6b1        	l32r	a11, 0xfffe6974
    8ddd:	912a92        	l32i	a9, a10, 0x244
    8de0:	2099b0        	or	a9, a9, a11
    8de3:	0020c0        	memw
    8de6:	916a92        	s32i	a9, a10, 0x244
    8de9:	7640b1        	l32r	a11, 0xfffe66ec
    8dec:	1099b0        	and	a9, a9, a11
    8def:	0020c0        	memw
    8df2:	0488      	l32i.n	a8, a4, 0
    8df4:	1d2882        	l32i	a8, a8, 116
    8df7:	916a92        	s32i	a9, a10, 0x244
    8dfa:	0008e0        	excw
    8dfd:	0488      	l32i.n	a8, a4, 0
    8dff:	3888      	l32i.n	a8, a8, 12
    8e01:	0a0c      	movi.n	a10, 0
    8e03:	0008e0        	excw
    8e06:	778451        	l32r	a5, 0xfffe6c18
    8e09:	880592        	l8ui	a9, a5, 136
    8e0c:	0a1937        	beq	a9, a3, 0x8e1a
    8e0f:	0488      	l32i.n	a8, a4, 0
    8e11:	0a0c      	movi.n	a10, 0
    8e13:	9888      	l32i.n	a8, a8, 36
    8e15:	02bd      	mov.n	a11, a2
    8e17:	0008e0        	excw
    8e1a:	890592        	l8ui	a9, a5, 137
    8e1d:	0a1937        	beq	a9, a3, 0x8e2b
    8e20:	0488      	l32i.n	a8, a4, 0
    8e22:	1a0c      	movi.n	a10, 1
    8e24:	9888      	l32i.n	a8, a8, 36
    8e26:	02bd      	mov.n	a11, a2
    8e28:	0008e0        	excw
    8e2b:	768061        	l32r	a6, 0xfffe682c
    8e2e:	06a8      	l32i.n	a10, a6, 0
    8e30:	322aa2        	l32i	a10, a10, 200
    8e33:	bacc      	bnez.n	a10, 0x8e42
    8e35:	7785a1        	l32r	a10, 0xfffe6c4c
    8e38:	0b0c      	movi.n	a11, 0
    8e3a:	b076a5        	excw
    8e3d:	06a8      	l32i.n	a10, a6, 0
    8e3f:	322aa2        	l32i	a10, a10, 200
    8e42:	7786f1        	l32r	a15, 0xfffe6c5c
    8e45:	181c      	movi.n	a8, 17
    8e47:	9e1c      	movi.n	a14, 25
    8e49:	fdca92        	addi	a9, a10, -3
    8e4c:	83e890        	moveqz	a14, a8, a9
    8e4f:	0020c0        	memw
    8e52:	846fe2        	s32i	a14, a15, 0x210
    8e55:	0c0c      	movi.n	a12, 0
    8e57:	7787d1        	l32r	a13, 0xfffe6c74
    8e5a:	0020c0        	memw
    8e5d:	04b8      	l32i.n	a11, a4, 0
    8e5f:	7c6dc2        	s32i	a12, a13, 0x1f0
    8e62:	3bb8      	l32i.n	a11, a11, 12
    8e64:	079237        	bne	a2, a3, 0x8e6f
    8e67:	0a0c      	movi.n	a10, 0
    8e69:	000be0        	excw
    8e6c:	000106        	j	0x8e74
    8e6f:	1a0c      	movi.n	a10, 1
    8e71:	000be0        	excw
    8e74:	1a0c      	movi.n	a10, 1
    8e76:	7d45a2        	s8i	a10, a5, 125
    8e79:	7e45a2        	s8i	a10, a5, 126
    8e7c:	f01d      	excw
    8e7e:	360000        	excw
    8e81:	810041        	l32r	a4, 0xfffe9284
    8e84:	887673        	excw
    8e87:	a128      	l32i.n	a2, a1, 40
    8e89:	7788      	l32i.n	a8, a7, 28
    8e8b:	0008e0        	excw
    8e8e:	7667c1        	l32r	a12, 0xfffe682c
    8e91:	4cc8      	l32i.n	a12, a12, 16
    8e93:	778a91        	l32r	a9, 0xfffe6cbc
    8e96:	b0cac0        	addx8	a12, a10, a12
    8e99:	7783a1        	l32r	a10, 0xfffe6ca8
    8e9c:	7789b1        	l32r	a11, 0xfffe6cc0
    8e9f:	0aa8      	l32i.n	a10, a10, 0
    8ea1:	1cb9      	s32i.n	a11, a12, 4
    8ea3:	1b6a92        	s32i	a9, a10, 108
    8ea6:	f01d      	excw
    8ea8:	004136        	excw
    8eab:	771441        	l32r	a4, 0xfffe6afc
    8eae:	000442        	l8ui	a4, a4, 0
    8eb1:	114410        	slli	a4, a4, 15
    8eb4:	424a      	add.n	a4, a2, a4
    8eb6:	0020c0        	memw
    8eb9:	0439      	s32i.n	a3, a4, 0
    8ebb:	f01d      	excw
    8ebd:	000000        	ill
    8ec0:	004136        	excw
    8ec3:	024d      	mov.n	a4, a2
    8ec5:	771421        	l32r	a2, 0xfffe6b18
    8ec8:	000222        	l8ui	a2, a2, 0
    8ecb:	112210        	slli	a2, a2, 15
    8ece:	242a      	add.n	a2, a4, a2
    8ed0:	0020c0        	memw
    8ed3:	0228      	l32i.n	a2, a2, 0
    8ed5:	f01d      	excw
    8ed7:	413600        	srli	a3, a0, 6
    8eda:	8ba100        	excw
    8edd:	fe2577        	blt	a5, a7, 0x8edf
    8ee0:	ff          	.byte 0xff
    8ee1:	6420a0        	extui	a2, a10, 0, 7
    8ee4:	f01d      	excw
    8ee6:	360000        	excw
    8ee9:	310041        	l32r	a4, 0xfffd52ec
    8eec:	4d7714        	excw
    8eef:	032202        	l32i	a0, a2, 12
    8ef2:	434200        	excw
    8ef5:	f01d00        	subx8	a1, a13, a0
    8ef8:	004136        	excw
    8efb:	771431        	l32r	a3, 0xfffe6b4c
    8efe:	004322        	s8i	a2, a3, 0
    8f01:	f01d      	excw
    8f03:	413600        	srli	a3, a0, 6
    8f06:	8ca100        	excw
    8f09:	fb6577        	bbci	a5, 7, 0x8f08
    8f0c:	ff          	.byte 0xff
    8f0d:	120c      	movi.n	a2, 1
    8f0f:	880c      	movi.n	a8, 8
    8f11:	0a9d      	mov.n	a9, a10
    8f13:	7680a1        	l32r	a10, 0xfffe6914
    8f16:	778db1        	l32r	a11, 0xfffe6d4c
    8f19:	0aa8      	l32i.n	a10, a10, 0
    8f1b:	1099b0        	and	a9, a9, a11
    8f1e:	1ccaa2        	addi	a10, a10, 28
    8f21:	10aab0        	and	a10, a10, a11
    8f24:	c099a0        	sub	a9, a9, a10
    8f27:	01b897        	bgeu	a8, a9, 0x8f2c
    8f2a:	020c      	movi.n	a2, 0
    8f2c:	f01d      	excw
    8f2e:	360000        	excw
    8f31:	a10061        	l32r	a6, 0xffff1334
    8f34:	8e          	.byte 0x8e
    8f35:	f8a577        	bge	a5, a7, 0x8f31
    8f38:	ff          	.byte 0xff
    8f39:	0a3d      	mov.n	a3, a10
    8f3b:	778fa1        	l32r	a10, 0xfffe6d78
    8f3e:	fff825        	excw
    8f41:	1033a0        	and	a3, a3, a10
    8f44:	f53030        	extui	a3, a3, 16, 16
    8f47:	0e0316        	beqz	a3, 0x902b
    8f4a:	040c      	movi.n	a4, 0
    8f4c:	04a030        	extui	a10, a3, 0, 1
    8f4f:	0cda16        	beqz	a10, 0x9020
    8f52:	771551        	l32r	a5, 0xfffe6ba8
    8f55:	02ad      	mov.n	a10, a2
    8f57:	5a2582        	l32i	a8, a5, 0x168
    8f5a:	04bd      	mov.n	a11, a4
    8f5c:	0008e0        	excw
    8f5f:	0a7d      	mov.n	a7, a10
    8f61:	0bba16        	beqz	a10, 0x9020
    8f64:	779061        	l32r	a6, 0xfffe6da4
    8f67:	1154b0        	slli	a5, a4, 5
    8f6a:	656a      	add.n	a6, a5, a6
    8f6c:	06ad      	mov.n	a10, a6
    8f6e:	fff525        	excw
    8f71:	11a9      	s32i.n	a10, a1, 4
    8f73:	0159      	s32i.n	a5, a1, 0
    8f75:	7791a1        	l32r	a10, 0xfffe6dbc
    8f78:	fff465        	excw
    8f7b:	1158      	l32i.n	a5, a1, 4
    8f7d:	1055a0        	and	a5, a5, a10
    8f80:	136507        	bbci	a5, 0, 0x8f97
    8f83:	06ad      	mov.n	a10, a6
    8f85:	1b0c      	movi.n	a11, 1
    8f87:	fff225        	excw
    8f8a:	771581        	l32r	a8, 0xfffe6be0
    8f8d:	02ad      	mov.n	a10, a2
    8f8f:	312882        	l32i	a8, a8, 196
    8f92:	07bd      	mov.n	a11, a7
    8f94:	0008e0        	excw
    8f97:	186527        	bbci	a5, 2, 0x8fb3
    8f9a:	778cb1        	l32r	a11, 0xfffe6dcc
    8f9d:	01a8      	l32i.n	a10, a1, 0
    8f9f:	aaba      	add.n	a10, a10, a11
    8fa1:	fff1e5        	excw
    8fa4:	06ad      	mov.n	a10, a6
    8fa6:	4b0c      	movi.n	a11, 4
    8fa8:	ffefe5        	excw
    8fab:	7792a1        	l32r	a10, 0xfffe6df4
    8fae:	0b0c      	movi.n	a11, 0
    8fb0:	b05f25        	excw
    8fb3:	3d6537        	bbci	a5, 3, 0x8ff4
    8fb6:	34fc      	bnez.n	a4, 0x8fed
    8fb8:	fff4a5        	excw
    8fbb:	1aac      	beqz.n	a10, 0x8fe0
    8fbd:	8c0c      	movi.n	a12, 8
    8fbf:	76d4a1        	l32r	a10, 0xfffe6b10
    8fc2:	04a4e2        	movi	a14, 0x404
    8fc5:	7714d1        	l32r	a13, 0xfffe6c18
    8fc8:	7680b1        	l32r	a11, 0xfffe69c8
    8fcb:	000dd2        	l8ui	a13, a13, 0
    8fce:	0bb8      	l32i.n	a11, a11, 0
    8fd0:	c1dde0        	mul16u	a13, a13, a14
    8fd3:	1ccbb2        	addi	a11, a11, 28
    8fd6:	aada      	add.n	a10, a10, a13
    8fd8:	f8a1d2        	movi	a13, 0x1f8
    8fdb:	aada      	add.n	a10, a10, a13
    8fdd:	00d765        	excw
    8fe0:	771581        	l32r	a8, 0xfffe6c34
    8fe3:	07bd      	mov.n	a11, a7
    8fe5:	312882        	l32i	a8, a8, 196
    8fe8:	02ad      	mov.n	a10, a2
    8fea:	0008e0        	excw
    8fed:	06ad      	mov.n	a10, a6
    8fef:	8b0c      	movi.n	a11, 8
    8ff1:	ffeb65        	excw
    8ff4:	286547        	bbci	a5, 4, 0x9020
    8ff7:	761591        	l32r	a9, 0xfffe684c
    8ffa:	2f1992        	l16ui	a9, a9, 94
    8ffd:	18e907        	bbsi	a9, 0, 0x9019
    9000:	779381        	l32r	a8, 0xfffe6e4c
    9003:	0158      	l32i.n	a5, a1, 0
    9005:	558a      	add.n	a5, a5, a8
    9007:	05ad      	mov.n	a10, a5
    9009:	ffeb65        	excw
    900c:	0abd      	mov.n	a11, a10
    900e:	764ac1        	l32r	a12, 0xfffe6938
    9011:	05ad      	mov.n	a10, a5
    9013:	20bbc0        	or	a11, a11, a12
    9016:	ffe925        	excw
    9019:	06ad      	mov.n	a10, a6
    901b:	0b1c      	movi.n	a11, 16
    901d:	ffe8a5        	excw
    9020:	413130        	srli	a3, a3, 1
    9023:	441b      	addi.n	a4, a4, 1
    9025:	744040        	extui	a4, a4, 0, 8
    9028:	f20356        	bnez	a3, 0x8f4c
    902b:	f01d      	excw
    902d:	000000        	ill
    9030:	004136        	excw
    9033:	7793a1        	l32r	a10, 0xfffe6e80
    9036:	ffe8a5        	excw
    9039:	0a3d      	mov.n	a3, a10
    903b:	778ba1        	l32r	a10, 0xfffe6e68
    903e:	ffe825        	excw
    9041:	8288      	l32i.n	a8, a2, 32
    9043:	7635c1        	l32r	a12, 0xfffe6918
    9046:	0a12d2        	l16ui	a13, a2, 20
    9049:	92f8      	l32i.n	a15, a2, 36
    904b:	80afb2        	movi	a11, -128
    904e:	b2e8      	l32i.n	a14, a2, 44
    9050:	10bab0        	and	a11, a10, a11
    9053:	778ba1        	l32r	a10, 0xfffe6e80
    9056:	c0eef0        	sub	a14, a14, a15
    9059:	63dde0        	excw
    905c:	64d0d0        	extui	a13, a13, 0, 7
    905f:	20bbd0        	or	a11, a11, a13
    9062:	20bbc0        	or	a11, a11, a12
    9065:	6490b0        	extui	a9, a11, 0, 7
    9068:	889a      	add.n	a8, a8, a9
    906a:	8289      	s32i.n	a8, a2, 32
    906c:	ffe3a5        	excw
    906f:	778ca1        	l32r	a10, 0xfffe6ea0
    9072:	778dc1        	l32r	a12, 0xfffe6ea8
    9075:	72b8      	l32i.n	a11, a2, 28
    9077:	62b9      	s32i.n	a11, a2, 24
    9079:	10bbc0        	and	a11, a11, a12
    907c:	ffe2a5        	excw
    907f:	7794b1        	l32r	a11, 0xfffe6ed0
    9082:	7793a1        	l32r	a10, 0xfffe6ed0
    9085:	20b3b0        	or	a11, a3, a11
    9088:	ffe1e5        	excw
    908b:	f01d      	excw
    908d:	000000        	ill
    9090:	006136        	excw
    9093:	778d61        	l32r	a6, 0xfffe6ec8
    9096:	779441        	l32r	a4, 0xfffe6ee8
    9099:	779551        	l32r	a5, 0xfffe6ef0
    909c:	763531        	l32r	a3, 0xfffe6970
    909f:	771491        	l32r	a9, 0xfffe6cf0
    90a2:	76d471        	l32r	a7, 0xfffe6bf4
    90a5:	000992        	l8ui	a9, a9, 0
    90a8:	04a4a2        	movi	a10, 0x404
    90ab:	c199a0        	mul16u	a9, a9, a10
    90ae:	2288      	l32i.n	a8, a2, 8
    90b0:	779a      	add.n	a7, a7, a9
    90b2:	0b6816        	beqz	a8, 0x916c
    90b5:	7680a1        	l32r	a10, 0xfffe6ab8
    90b8:	0aa8      	l32i.n	a10, a10, 0
    90ba:	777ab1        	l32r	a11, 0xfffe6ea4
    90bd:	eaa8      	l32i.n	a10, a10, 56
    90bf:	619ab7        	bne	a10, a11, 0x9124
    90c2:	771581        	l32r	a8, 0xfffe6d18
    90c5:	642882        	l32i	a8, a8, 0x190
    90c8:	0a0c      	movi.n	a10, 0
    90ca:	0008e0        	excw
    90cd:	f0aaa0        	subx8	a10, a10, a10
    90d0:	b0aa70        	addx8	a10, a10, a7
    90d3:	01a9      	s32i.n	a10, a1, 0
    90d5:	310aa2        	l8ui	a10, a10, 49
    90d8:	7796b1        	l32r	a11, 0xfffe6f30
    90db:	34a0a0        	extui	a10, a10, 0, 4
    90de:	11aab0        	slli	a10, a10, 5
    90e1:	aaba      	add.n	a10, a10, a11
    90e3:	ffdde5        	excw
    90e6:	3a7af7        	bbci	a10, 31, 0x9124
    90e9:	01b8      	l32i.n	a11, a1, 0
    90eb:	24a3d2        	movi	a13, 0x324
    90ee:	540bb2        	l8ui	a11, a11, 84
    90f1:	77da      	add.n	a7, a7, a13
    90f3:	dbac      	beqz.n	a11, 0x9124
    90f5:	8007c2        	l8ui	a12, a7, 128
    90f8:	8cec      	bnez.n	a12, 0x9124
    90fa:	7797a1        	l32r	a10, 0xfffe6f58
    90fd:	ffdc25        	excw
    9100:	0b4c      	movi.n	a11, 64
    9102:	20bab0        	or	a11, a10, a11
    9105:	7797a1        	l32r	a10, 0xfffe6f64
    9108:	ffd9e5        	excw
    910b:	7798a1        	l32r	a10, 0xfffe6f6c
    910e:	ffdb25        	excw
    9111:	80a0b2        	movi	a11, 128
    9114:	20bab0        	or	a11, a10, a11
    9117:	7798a1        	l32r	a10, 0xfffe6f78
    911a:	ffd8e5        	excw
    911d:	1c0c      	movi.n	a12, 1
    911f:	8047c2        	s8i	a12, a7, 128
    9122:	f01d      	excw
    9124:	7799a1        	l32r	a10, 0xfffe6f88
    9127:	ffd9a5        	excw
    912a:	b2d8      	l32i.n	a13, a2, 44
    912c:	10ca50        	and	a12, a10, a5
    912f:	3dec      	bnez.n	a13, 0x9156
    9131:	20bc30        	or	a11, a12, a3
    9134:	7799a1        	l32r	a10, 0xfffe6f98
    9137:	ffd725        	excw
    913a:	62b8      	l32i.n	a11, a2, 24
    913c:	779aa1        	l32r	a10, 0xfffe6fa4
    913f:	10bb60        	and	a11, a11, a6
    9142:	ffd665        	excw
    9145:	7796a1        	l32r	a10, 0xfffe6fa0
    9148:	ffd765        	excw
    914b:	20ba40        	or	a11, a10, a4
    914e:	7796a1        	l32r	a10, 0xfffe6fa8
    9151:	ffd565        	excw
    9154:	f01d      	excw
    9156:	0a12a2        	l16ui	a10, a2, 20
    9159:	0abad7        	bgeu	a10, a13, 0x9167
    915c:	82a9      	s32i.n	a10, a2, 32
    915e:	64d0a0        	extui	a13, a10, 0, 7
    9161:	20ccd0        	or	a12, a12, a13
    9164:	fff246        	j	0x9131
    9167:	0dad      	mov.n	a10, a13
    9169:	fffc46        	j	0x915e
    916c:	778ba1        	l32r	a10, 0xfffe6f98
    916f:	ffd525        	excw
    9172:	10ba50        	and	a11, a10, a5
    9175:	b2d8      	l32i.n	a13, a2, 44
    9177:	20bb30        	or	a11, a11, a3
    917a:	cd8c      	beqz.n	a13, 0x918a
    917c:	0a12a2        	l16ui	a10, a2, 20
    917f:	29bad7        	bgeu	a10, a13, 0x91ac
    9182:	82a9      	s32i.n	a10, a2, 32
    9184:	64c0a0        	extui	a12, a10, 0, 7
    9187:	20bbc0        	or	a11, a11, a12
    918a:	778ba1        	l32r	a10, 0xfffe6fb8
    918d:	ffd1a5        	excw
    9190:	62b8      	l32i.n	a11, a2, 24
    9192:	778ca1        	l32r	a10, 0xfffe6fc4
    9195:	10bb60        	and	a11, a11, a6
    9198:	ffd0e5        	excw
    919b:	7793a1        	l32r	a10, 0xfffe6fe8
    919e:	ffd225        	excw
    91a1:	20ba40        	or	a11, a10, a4
    91a4:	7793a1        	l32r	a10, 0xfffe6ff0
    91a7:	ffd025        	excw
    91aa:	f01d      	excw
    91ac:	0dad      	mov.n	a10, a13
    91ae:	fff486        	j	0x9184
    91b1:	000000        	ill
    91b4:	004136        	excw
    91b7:	2488      	l32i.n	a8, a4, 8
    91b9:	771551        	l32r	a5, 0xfffe6e10
    91bc:	888c      	beqz.n	a8, 0x91c8
    91be:	472582        	l32i	a8, a5, 0x11c
    91c1:	02ad      	mov.n	a10, a2
    91c3:	0008e0        	excw
    91c6:	f01d      	excw
    91c8:	0313c2        	l16ui	a12, a3, 6
    91cb:	2ca192        	movi	a9, 0x12c
    91ce:	7cac      	beqz.n	a12, 0x91f9
    91d0:	0ab9c7        	bgeu	a9, a12, 0x91de
    91d3:	7792a1        	l32r	a10, 0xfffe701c
    91d6:	0b0c      	movi.n	a11, 0
    91d8:	b03ca5        	excw
    91db:	0313c2        	l16ui	a12, a3, 6
    91de:	04ad      	mov.n	a10, a4
    91e0:	3ca2b2        	movi	a11, 0x23c
    91e3:	502582        	l32i	a8, a5, 0x140
    91e6:	b2ba      	add.n	a11, a2, a11
    91e8:	0008e0        	excw
    91eb:	04ad      	mov.n	a10, a4
    91ed:	090c      	movi.n	a9, 0
    91ef:	232582        	l32i	a8, a5, 140
    91f2:	a499      	s32i.n	a9, a4, 40
    91f4:	0008e0        	excw
    91f7:	f01d      	excw
    91f9:	02ad      	mov.n	a10, a2
    91fb:	302582        	l32i	a8, a5, 192
    91fe:	0b0c      	movi.n	a11, 0
    9200:	0008e0        	excw
    9203:	f01d      	excw
    9205:	000000        	ill
    9208:	004136        	excw
    920b:	8288      	l32i.n	a8, a2, 32
    920d:	779b41        	l32r	a4, 0xfffe707c
    9210:	183866        	bnei	a8, 3, 0x922c
    9213:	771551        	l32r	a5, 0xfffe6e68
    9216:	4f2582        	l32i	a8, a5, 0x13c
    9219:	03ad      	mov.n	a10, a3
    921b:	0008e0        	excw
    921e:	b3a8      	l32i.n	a10, a3, 44
    9220:	9398      	l32i.n	a9, a3, 36
    9222:	11b9a7        	bgeu	a9, a10, 0x9237
    9225:	03ad      	mov.n	a10, a3
    9227:	ffe0a5        	excw
    922a:	f01d      	excw
    922c:	02ad      	mov.n	a10, a2
    922e:	4488      	l32i.n	a8, a4, 16
    9230:	03bd      	mov.n	a11, a3
    9232:	0008e0        	excw
    9235:	f01d      	excw
    9237:	db2292        	l32i	a9, a2, 0x36c
    923a:	044916        	beqz	a9, 0x9282
    923d:	ea22a2        	l32i	a10, a2, 0x3a8
    9240:	3102b2        	l8ui	a11, a2, 49
    9243:	0aa8      	l32i.n	a10, a10, 0
    9245:	34b0b0        	extui	a11, a11, 0, 4
    9248:	3bcc      	bnez.n	a11, 0x924f
    924a:	0014b2        	l16ui	a11, a4, 0
    924d:	3bcc      	bnez.n	a11, 0x9254
    924f:	090c      	movi.n	a9, 0
    9251:	0007c6        	j	0x9274
    9254:	1c0c      	movi.n	a12, 1
    9256:	090c      	movi.n	a9, 0
    9258:	0a0ad2        	l8ui	a13, a10, 10
    925b:	771ae1        	l32r	a14, 0xfffe6ec4
    925e:	ddaa      	add.n	a13, a13, a10
    9260:	0d0df2        	l8ui	a15, a13, 13
    9263:	0c0dd2        	l8ui	a13, a13, 12
    9266:	11ff80        	slli	a15, a15, 8
    9269:	ddfa      	add.n	a13, a13, a15
    926b:	f4d0d0        	extui	a13, a13, 0, 16
    926e:	c0dde0        	sub	a13, a13, a14
    9271:	839cd0        	moveqz	a9, a12, a13
    9274:	779cf1        	l32r	a15, 0xfffe70e4
    9277:	000fe2        	l8ui	a14, a15, 0
    927a:	180c      	movi.n	a8, 1
    927c:	93e890        	movnez	a14, a8, a9
    927f:	004fe2        	s8i	a14, a15, 0
    9282:	02ad      	mov.n	a10, a2
    9284:	302582        	l32i	a8, a5, 192
    9287:	0b0c      	movi.n	a11, 0
    9289:	0008e0        	excw
    928c:	f01d      	excw
    928e:	360000        	excw
    9291:	0c0041        	l32r	a4, 0xfffcc294
    9294:	0c1b      	addi.n	a0, a12, 1
    9296:	155106        	j	0xe7de
    9299:	03d277        	bbs	a2, a7, 0x92a0
    929c:	a19201        	l32r	a0, 0xffff18e4
    929f:	bd16a0        	excw
    92a2:	8d0b05        	call0	0xfff96354
    92a5:	148816        	beqz	a8, 0x93f1
    92a8:	fdcda2        	addi	a10, a13, -3
    92ab:	156a16        	beqz	a10, 0x9405
    92ae:	fbcdc2        	addi	a12, a13, -5
    92b1:	188c16        	beqz	a12, 0x943d
    92b4:	facde2        	addi	a14, a13, -6
    92b7:	0c9e16        	beqz	a14, 0x9384
    92ba:	f9cdf2        	addi	a15, a13, -7
    92bd:	0b4f16        	beqz	a15, 0x9375
    92c0:	128d26        	beqi	a13, 8, 0x92d6
    92c3:	980c      	movi.n	a8, 9
    92c5:	681d87        	beq	a13, a8, 0x9331
    92c8:	02ad      	mov.n	a10, a2
    92ca:	03bd      	mov.n	a11, a3
    92cc:	1b2582        	l32i	a8, a5, 108
    92cf:	04cd      	mov.n	a12, a4
    92d1:	0008e0        	excw
    92d4:	f01d      	excw
    92d6:	0003a2        	l8ui	a10, a3, 0
    92d9:	02ea26        	beqi	a10, 128, 0x92df
    92dc:	0022c6        	j	0x936b
    92df:	a29a      	add.n	a10, a2, a9
    92e1:	680a82        	l8ui	a8, a10, 104
    92e4:	9c4a82        	s8i	a8, a10, 156
    92e7:	031372        	l16ui	a7, a3, 6
    92ea:	6377b0        	excw
    92ed:	f47070        	extui	a7, a7, 0, 16
    92f0:	09c756        	bnez	a7, 0x9390
    92f3:	02ad      	mov.n	a10, a2
    92f5:	4b2582        	l32i	a8, a5, 0x12c
    92f8:	06bd      	mov.n	a11, a6
    92fa:	0008e0        	excw
    92fd:	f01d      	excw
    92ff:	8422a2        	l32i	a10, a2, 0x210
    9302:	c29a      	add.n	a12, a2, a9
    9304:	4acc      	bnez.n	a10, 0x930c
    9306:	305c62        	s16i	a6, a12, 96
    9309:	0002c6        	j	0x9318
    930c:	690cd2        	l8ui	a13, a12, 105
    930f:	11ddf0        	slli	a13, a13, 1
    9312:	20ddb0        	or	a13, a13, a11
    9315:	305cd2        	s16i	a13, a12, 96
    9318:	02d2b2        	addmi	a11, a2, 0x200
    931b:	04ad      	mov.n	a10, a4
    931d:	502582        	l32i	a8, a5, 0x140
    9320:	2c0c      	movi.n	a12, 2
    9322:	0008e0        	excw
    9325:	a469      	s32i.n	a6, a4, 40
    9327:	232582        	l32i	a8, a5, 140
    932a:	04ad      	mov.n	a10, a4
    932c:	0008e0        	excw
    932f:	f01d      	excw
    9331:	000392        	l8ui	a9, a3, 0
    9334:	99ec      	bnez.n	a9, 0x9361
    9336:	03e640        	rsr.ps	a4
    9339:	2a0c      	movi.n	a10, 2
    933b:	349040        	extui	a9, a4, 0, 4
    933e:	022a97        	blt	a10, a9, 0x9344
    9341:	006240        	rsil	a4, 2
    9344:	0113b2        	l16ui	a11, a3, 2
    9347:	282582        	l32i	a8, a5, 160
    934a:	02ad      	mov.n	a10, a2
    934c:	0008e0        	excw
    934f:	13e640        	wsr.ps	a4
    9352:	002010        	rsync
    9355:	02ad      	mov.n	a10, a2
    9357:	4b2582        	l32i	a8, a5, 0x12c
    935a:	1b0c      	movi.n	a11, 1
    935c:	0008e0        	excw
    935f:	f01d      	excw
    9361:	472582        	l32i	a8, a5, 0x11c
    9364:	02ad      	mov.n	a10, a2
    9366:	0008e0        	excw
    9369:	f01d      	excw
    936b:	472582        	l32i	a8, a5, 0x11c
    936e:	02ad      	mov.n	a10, a2
    9370:	0008e0        	excw
    9373:	f01d      	excw
    9375:	031372        	l16ui	a7, a3, 6
    9378:	2ca182        	movi	a8, 0x12c
    937b:	637780        	excw
    937e:	f47070        	extui	a7, a7, 0, 16
    9381:	0002c6        	j	0x9390
    9384:	02ad      	mov.n	a10, a2
    9386:	1a2582        	l32i	a8, a5, 104
    9389:	03bd      	mov.n	a11, a3
    938b:	0008e0        	excw
    938e:	0a7d      	mov.n	a7, a10
    9390:	0d04b2        	l8ui	a11, a4, 13
    9393:	0498      	l32i.n	a9, a4, 0
    9395:	34b0b0        	extui	a11, a11, 0, 4
    9398:	11bbb0        	slli	a11, a11, 5
    939b:	74b0b0        	extui	a11, a11, 0, 8
    939e:	1f1966        	bnei	a9, 1, 0x93c1
    93a1:	24c8      	l32i.n	a12, a4, 8
    93a3:	cc8c      	beqz.n	a12, 0x93b3
    93a5:	7796a1        	l32r	a10, 0xfffe7200
    93a8:	abaa      	add.n	a10, a11, a10
    93aa:	ffb165        	excw
    93ad:	107a57        	bbci	a10, 21, 0x93c1
    93b0:	ffdec6        	j	0x932f
    93b3:	7793a1        	l32r	a10, 0xfffe7200
    93b6:	abaa      	add.n	a10, a11, a10
    93b8:	ffb065        	excw
    93bb:	05b5a0        	extui	a11, a10, 21, 1
    93be:	f6db56        	bnez	a11, 0x932f
    93c1:	0103d2        	l8ui	a13, a3, 1
    93c4:	086d26        	beqi	a13, 6, 0x93d0
    93c7:	057d26        	beqi	a13, 7, 0x93d0
    93ca:	f8cdc2        	addi	a12, a13, -8
    93cd:	f5ec56        	bnez	a12, 0x932f
    93d0:	04ad      	mov.n	a10, a4
    93d2:	07cd      	mov.n	a12, a7
    93d4:	3ca2b2        	movi	a11, 0x23c
    93d7:	502582        	l32i	a8, a5, 0x140
    93da:	b2ba      	add.n	a11, a2, a11
    93dc:	0008e0        	excw
    93df:	0313c2        	l16ui	a12, a3, 6
    93e2:	479c77        	bne	a12, a7, 0x942d
    93e5:	a469      	s32i.n	a6, a4, 40
    93e7:	232582        	l32i	a8, a5, 140
    93ea:	04ad      	mov.n	a10, a4
    93ec:	0008e0        	excw
    93ef:	f01d      	excw
    93f1:	8422a2        	l32i	a10, a2, 0x210
    93f4:	c29a      	add.n	a12, a2, a9
    93f6:	fadc      	bnez.n	a10, 0x9419
    93f8:	305c62        	s16i	a6, a12, 96
    93fb:	4b2582        	l32i	a8, a5, 0x12c
    93fe:	02ad      	mov.n	a10, a2
    9400:	0008e0        	excw
    9403:	f01d      	excw
    9405:	8422a2        	l32i	a10, a2, 0x210
    9408:	c29a      	add.n	a12, a2, a9
    940a:	5adc      	bnez.n	a10, 0x9423
    940c:	305c62        	s16i	a6, a12, 96
    940f:	4b2582        	l32i	a8, a5, 0x12c
    9412:	02ad      	mov.n	a10, a2
    9414:	0008e0        	excw
    9417:	f01d      	excw
    9419:	492582        	l32i	a8, a5, 0x124
    941c:	02ad      	mov.n	a10, a2
    941e:	0008e0        	excw
    9421:	f01d      	excw
    9423:	242582        	l32i	a8, a5, 144
    9426:	02ad      	mov.n	a10, a2
    9428:	0008e0        	excw
    942b:	f01d      	excw
    942d:	060c      	movi.n	a6, 0
    942f:	fb2716        	beqz	a7, 0x93e5
    9432:	54a070        	extui	a10, a7, 0, 6
    9435:	190c      	movi.n	a9, 1
    9437:	8369a0        	moveqz	a6, a9, a10
    943a:	ffe9c6        	j	0x93e5
    943d:	02ad      	mov.n	a10, a2
    943f:	482582        	l32i	a8, a5, 0x120
    9442:	03bd      	mov.n	a11, a3
    9444:	0008e0        	excw
    9447:	f01d      	excw
    9449:	000000        	ill
    944c:	004136        	excw
    944f:	779b81        	l32r	a8, 0xfffe72bc
    9452:	6888      	l32i.n	a8, a8, 24
    9454:	02ad      	mov.n	a10, a2
    9456:	0008e0        	excw
    9459:	02d2a2        	addmi	a10, a2, 0x200
    945c:	090c      	movi.n	a9, 0
    945e:	094a92        	s8i	a9, a10, 9
    9461:	f01d      	excw
    9463:	413600        	srli	a3, a0, 6
    9466:	9b8100        	excw
    9469:	788877        	bany	a8, a7, 0x94e5
    946c:	02ad      	mov.n	a10, a2
    946e:	0008e0        	excw
    9471:	02d2a2        	addmi	a10, a2, 0x200
    9474:	090c      	movi.n	a9, 0
    9476:	094a92        	s8i	a9, a10, 9
    9479:	f01d      	excw
    947b:	413600        	srli	a3, a0, 6
    947e:	038200        	excw
    9481:	986601        	l32r	a0, 0xfffef61c
    9484:	a12a      	add.n	a10, a1, a2
    9486:	779d      	excw
    9488:	771531        	l32r	a3, 0xfffe70dc
    948b:	190c      	movi.n	a9, 1
    948d:	3b2382        	l32i	a8, a3, 236
    9490:	004a92        	s8i	a9, a10, 0
    9493:	0008e0        	excw
    9496:	768c21        	l32r	a2, 0xfffe6ec8
    9499:	6288      	l32i.n	a8, a2, 24
    949b:	e8a3a2        	movi	a10, 0x3e8
    949e:	0008e0        	excw
    94a1:	3c2382        	l32i	a8, a3, 240
    94a4:	0008e0        	excw
    94a7:	a288      	l32i.n	a8, a2, 40
    94a9:	ca0c      	movi.n	a10, 12
    94ab:	0008e0        	excw
    94ae:	f01d      	excw
    94b0:	779b81        	l32r	a8, 0xfffe731c
    94b3:	02ad      	mov.n	a10, a2
    94b5:	8888      	l32i.n	a8, a8, 32
    94b7:	03bd      	mov.n	a11, a3
    94b9:	0008e0        	excw
    94bc:	f01d      	excw
    94be:	360000        	excw
    94c1:	bd0041        	l32r	a4, 0xffff88c4
    94c4:	9b8103        	excw
    94c7:	a4c277        	bnall	a2, a7, 0x946f
    94ca:	149104        	excw
    94cd:	02ad77        	bge	a13, a7, 0x94d3
    94d0:	000992        	l8ui	a9, a9, 0
    94d3:	76d421        	l32r	a2, 0xfffe7024
    94d6:	c199c0        	mul16u	a9, a9, a12
    94d9:	9888      	l32i.n	a8, a8, 36
    94db:	229a      	add.n	a2, a2, a9
    94dd:	0008e0        	excw
    94e0:	779da1        	l32r	a10, 0xfffe7354
    94e3:	000ab2        	l8ui	a11, a10, 0
    94e6:	111b66        	bnei	a11, 1, 0x94fb
    94e9:	2c0c      	movi.n	a12, 2
    94eb:	a1a1d2        	movi	a13, 0x1a1
    94ee:	0e0c      	movi.n	a14, 0
    94f0:	004ae2        	s8i	a14, a10, 0
    94f3:	d2da      	add.n	a13, a2, a13
    94f5:	804de2        	s8i	a14, a13, 128
    94f8:	7f4dc2        	s8i	a12, a13, 127
    94fb:	f01d      	excw
    94fd:	000000        	ill
    9500:	004136        	excw
    9503:	779b21        	l32r	a2, 0xfffe7370
    9506:	a288      	l32i.n	a8, a2, 40
    9508:	0008e0        	excw
    950b:	090c      	movi.n	a9, 0
    950d:	005292        	s16i	a9, a2, 0
    9510:	f01d      	excw
    9512:	360000        	excw
    9515:	c20041        	l32r	a4, 0xffff9d18
    9518:	d10313        	excw
    951b:	ac7715        	excw
    951e:	822c      	movi.n	a2, 40
    9520:	913004        	excw
    9523:	cc7680        	excw
    9526:	9888      	l32i.n	a8, a8, 36
    9528:	a109      	s32i.n	a0, a1, 40
    952a:	777a      	add.n	a7, a7, a7
    952c:	e998      	l32i.n	a9, a9, 56
    952e:	1119a7        	beq	a9, a10, 0x9543
    9531:	02ad      	mov.n	a10, a2
    9533:	04bd      	mov.n	a11, a4
    9535:	779b91        	l32r	a9, 0xfffe73a4
    9538:	332d82        	l32i	a8, a13, 204
    953b:	0059c2        	s16i	a12, a9, 0
    953e:	0008e0        	excw
    9541:	f01d      	excw
    9543:	02ad      	mov.n	a10, a2
    9545:	03bd      	mov.n	a11, a3
    9547:	1b2d82        	l32i	a8, a13, 108
    954a:	04cd      	mov.n	a12, a4
    954c:	0008e0        	excw
    954f:	f01d      	excw
    9551:	000000        	ill
    9554:	004136        	excw
    9557:	300392        	l8ui	a9, a3, 48
    955a:	3ca342        	movi	a4, 0x33c
    955d:	398c      	beqz.n	a9, 0x9564
    955f:	890b      	addi.n	a8, a9, -1
    9561:	304382        	s8i	a8, a3, 48
    9564:	0d0392        	l8ui	a9, a3, 13
    9567:	760751        	l32r	a5, 0xfffe6d84
    956a:	349090        	extui	a9, a9, 0, 4
    956d:	f9dc      	bnez.n	a9, 0x9590
    956f:	ea22a2        	l32i	a10, a2, 0x3a8
    9572:	0ab8      	l32i.n	a11, a10, 0
    9574:	624a      	add.n	a6, a2, a4
    9576:	9bcc      	bnez.n	a11, 0x9583
    9578:	7792a1        	l32r	a10, 0xfffe73c0
    957b:	0b0c      	movi.n	a11, 0
    957d:	b00265        	excw
    9580:	1b26a2        	l32i	a10, a6, 108
    9583:	132582        	l32i	a8, a5, 76
    9586:	0008e0        	excw
    9589:	0a5d      	mov.n	a5, a10
    958b:	1c0c      	movi.n	a12, 1
    958d:	000f06        	j	0x95cd
    9590:	771561        	l32r	a6, 0xfffe71e4
    9593:	642682        	l32i	a8, a6, 0x190
    9596:	1a0c      	movi.n	a10, 1
    9598:	0008e0        	excw
    959b:	5b2682        	l32i	a8, a6, 0x16c
    959e:	0008e0        	excw
    95a1:	0d03b2        	l8ui	a11, a3, 13
    95a4:	624a      	add.n	a6, a2, a4
    95a6:	34b0b0        	extui	a11, a11, 0, 4
    95a9:	1c9ab7        	bne	a10, a11, 0x95c9
    95ac:	1e26a2        	l32i	a10, a6, 120
    95af:	0ac8      	l32i.n	a12, a10, 0
    95b1:	9ccc      	bnez.n	a12, 0x95be
    95b3:	7792a1        	l32r	a10, 0xfffe73fc
    95b6:	0b0c      	movi.n	a11, 0
    95b8:	affea5        	excw
    95bb:	1e26a2        	l32i	a10, a6, 120
    95be:	132582        	l32i	a8, a5, 76
    95c1:	0008e0        	excw
    95c4:	0a5d      	mov.n	a5, a10
    95c6:	000046        	j	0x95cb
    95c9:	050c      	movi.n	a5, 0
    95cb:	2c0c      	movi.n	a12, 2
    95cd:	768071        	l32r	a7, 0xfffe6fd0
    95d0:	0798      	l32i.n	a9, a7, 0
    95d2:	777a61        	l32r	a6, 0xfffe73bc
    95d5:	e998      	l32i.n	a9, a9, 56
    95d7:	c09960        	sub	a9, a9, a6
    95da:	081916        	beqz	a9, 0x965f
    95dd:	0d03b2        	l8ui	a11, a3, 13
    95e0:	34b0b0        	extui	a11, a11, 0, 4
    95e3:	085b56        	bnez	a11, 0x966c
    95e6:	0215d2        	l16ui	a13, a5, 4
    95e9:	2ca1c2        	movi	a12, 0x12c
    95ec:	ddcb      	addi.n	a13, a13, 12
    95ee:	07bcd7        	bgeu	a12, a13, 0x95f9
    95f1:	7792a1        	l32r	a10, 0xfffe743c
    95f4:	0b0c      	movi.n	a11, 0
    95f6:	affae5        	excw
    95f9:	0a05e2        	l8ui	a14, a5, 10
    95fc:	771af1        	l32r	a15, 0xfffe7264
    95ff:	ee5a      	add.n	a14, a14, a5
    9601:	0d0e82        	l8ui	a8, a14, 13
    9604:	0c0ee2        	l8ui	a14, a14, 12
    9607:	118880        	slli	a8, a8, 8
    960a:	ee8a      	add.n	a14, a14, a8
    960c:	f4e0e0        	extui	a14, a14, 0, 16
    960f:	5b9ef7        	bne	a14, a15, 0x966e
    9612:	76b381        	l32r	a8, 0xfffe70e0
    9615:	472882        	l32i	a8, a8, 0x11c
    9618:	0008e0        	excw
    961b:	04fa16        	beqz	a10, 0x966e
    961e:	07d8      	l32i.n	a13, a7, 0
    9620:	ed69      	s32i.n	a6, a13, 56
    9622:	0302b2        	l8ui	a11, a2, 3
    9625:	1c0c      	movi.n	a12, 1
    9627:	20bbc0        	or	a11, a11, a12
    962a:	0342b2        	s8i	a11, a2, 3
    962d:	0d03a2        	l8ui	a10, a3, 13
    9630:	779e21        	l32r	a2, 0xfffe74a8
    9633:	34a0a0        	extui	a10, a10, 0, 4
    9636:	11aab0        	slli	a10, a10, 5
    9639:	aa2a      	add.n	a10, a10, a2
    963b:	ff8865        	excw
    963e:	0d03c2        	l8ui	a12, a3, 13
    9641:	0abd      	mov.n	a11, a10
    9643:	34a0c0        	extui	a10, a12, 0, 4
    9646:	2c0c      	movi.n	a12, 2
    9648:	11aab0        	slli	a10, a10, 5
    964b:	aa2a      	add.n	a10, a10, a2
    964d:	20bbc0        	or	a11, a11, a12
    9650:	ff8565        	excw
    9653:	768c81        	l32r	a8, 0xfffe7084
    9656:	a888      	l32i.n	a8, a8, 40
    9658:	da0c      	movi.n	a10, 13
    965a:	0008e0        	excw
    965d:	f01d      	excw
    965f:	764381        	l32r	a8, 0xfffe6f6c
    9662:	0cad      	mov.n	a10, a12
    9664:	362882        	l32i	a8, a8, 216
    9667:	05bd      	mov.n	a11, a5
    9669:	0008e0        	excw
    966c:	f01d      	excw
    966e:	924a      	add.n	a9, a2, a4
    9670:	900992        	l8ui	a9, a9, 144
    9673:	f5e927        	bbsi	a9, 2, 0x966c
    9676:	05cd      	mov.n	a12, a5
    9678:	767381        	l32r	a8, 0xfffe7044
    967b:	ba0c      	movi.n	a10, 11
    967d:	8888      	l32i.n	a8, a8, 32
    967f:	fda0b2        	movi	a11, 253
    9682:	0008e0        	excw
    9685:	f01d      	excw
    9687:	613600        	excw
    968a:	077100        	excw
    968d:	090c76        	excw
    9690:	0199      	s32i.n	a9, a1, 0
    9692:	025192        	s16i	a9, a1, 4
    9695:	0d0382        	l8ui	a8, a3, 13
    9698:	771541        	l32r	a4, 0xfffe72ec
    969b:	348080        	extui	a8, a8, 0, 4
    969e:	f8dc      	bnez.n	a8, 0x96c1
    96a0:	ea22a2        	l32i	a10, a2, 0x3a8
    96a3:	779b51        	l32r	a5, 0xfffe7510
    96a6:	132782        	l32i	a8, a7, 76
    96a9:	001552        	l16ui	a5, a5, 0
    96ac:	0008e0        	excw
    96af:	0abd      	mov.n	a11, a10
    96b1:	0a6d      	mov.n	a6, a10
    96b3:	142782        	l32i	a8, a7, 80
    96b6:	ea22a2        	l32i	a10, a2, 0x3a8
    96b9:	0008e0        	excw
    96bc:	1d0c      	movi.n	a13, 1
    96be:	000dc6        	j	0x96f9
    96c1:	642482        	l32i	a8, a4, 0x190
    96c4:	1a0c      	movi.n	a10, 1
    96c6:	0008e0        	excw
    96c9:	5b2482        	l32i	a8, a4, 0x16c
    96cc:	0008e0        	excw
    96cf:	0d0392        	l8ui	a9, a3, 13
    96d2:	349090        	extui	a9, a9, 0, 4
    96d5:	c09a90        	sub	a9, a10, a9
    96d8:	07d956        	bnez	a9, 0x9759
    96db:	121352        	l16ui	a5, a3, 36
    96de:	132782        	l32i	a8, a7, 76
    96e1:	ed22a2        	l32i	a10, a2, 0x3b4
    96e4:	0008e0        	excw
    96e7:	0abd      	mov.n	a11, a10
    96e9:	0a6d      	mov.n	a6, a10
    96eb:	142782        	l32i	a8, a7, 80
    96ee:	ed22a2        	l32i	a10, a2, 0x3b4
    96f1:	0008e0        	excw
    96f4:	ffffc6        	j	0x96f7
    96f7:	2d0c      	movi.n	a13, 2
    96f9:	04d516        	beqz	a5, 0x974a
    96fc:	06ad      	mov.n	a10, a6
    96fe:	05cd      	mov.n	a12, a5
    9700:	764381        	l32r	a8, 0xfffe700c
    9703:	01bd      	mov.n	a11, a1
    9705:	3a2882        	l32i	a8, a8, 232
    9708:	e14b      	addi.n	a14, a1, 4
    970a:	0008e0        	excw
    970d:	3003c2        	l8ui	a12, a3, 48
    9710:	1d1a66        	bnei	a10, 1, 0x9731
    9713:	0c5d      	mov.n	a5, a12
    9715:	02ad      	mov.n	a10, a2
    9717:	382482        	l32i	a8, a4, 224
    971a:	03bd      	mov.n	a11, a3
    971c:	0008e0        	excw
    971f:	300392        	l8ui	a9, a3, 48
    9722:	19bc      	beqz.n	a9, 0x9757
    9724:	2f1526        	beqi	a5, 1, 0x9757
    9727:	322482        	l32i	a8, a4, 200
    972a:	03ad      	mov.n	a10, a3
    972c:	0008e0        	excw
    972f:	f01d      	excw
    9731:	2cac      	beqz.n	a12, 0x9757
    9733:	03ad      	mov.n	a10, a3
    9735:	01b8      	l32i.n	a11, a1, 0
    9737:	502482        	l32i	a8, a4, 0x140
    973a:	0211c2        	l16ui	a12, a1, 4
    973d:	0008e0        	excw
    9740:	2d2482        	l32i	a8, a4, 180
    9743:	03ad      	mov.n	a10, a3
    9745:	0008e0        	excw
    9748:	f01d      	excw
    974a:	300392        	l8ui	a9, a3, 48
    974d:	698c      	beqz.n	a9, 0x9757
    974f:	322482        	l32i	a8, a4, 200
    9752:	03ad      	mov.n	a10, a3
    9754:	0008e0        	excw
    9757:	f01d      	excw
    9759:	642482        	l32i	a8, a4, 0x190
    975c:	3a0c      	movi.n	a10, 3
    975e:	0008e0        	excw
    9761:	5b2482        	l32i	a8, a4, 0x16c
    9764:	0008e0        	excw
    9767:	0d0392        	l8ui	a9, a3, 13
    976a:	060c      	movi.n	a6, 0
    976c:	349090        	extui	a9, a9, 0, 4
    976f:	c09a90        	sub	a9, a10, a9
    9772:	f81956        	bnez	a9, 0x96f7
    9775:	3003a2        	l8ui	a10, a3, 48
    9778:	fdba16        	beqz	a10, 0x9757
    977b:	322482        	l32i	a8, a4, 200
    977e:	03ad      	mov.n	a10, a3
    9780:	0008e0        	excw
    9783:	f01d      	excw
    9785:	000000        	ill
    9788:	004136        	excw
    978b:	c4a142        	movi	a4, 0x1c4
    978e:	db2282        	l32i	a8, a2, 0x36c
    9791:	424a      	add.n	a4, a2, a4
    9793:	48cc      	bnez.n	a8, 0x979b
    9795:	779f81        	l32r	a8, 0xfffe7614
    9798:	db6282        	s32i	a8, a2, 0x36c
    979b:	0d03a2        	l8ui	a10, a3, 13
    979e:	f90c      	movi.n	a9, 15
    97a0:	0709a7        	bnone	a9, a10, 0x97ab
    97a3:	7792a1        	l32r	a10, 0xfffe75ec
    97a6:	0b0c      	movi.n	a11, 0
    97a8:	afdfa5        	excw
    97ab:	7680b1        	l32r	a11, 0xfffe71ac
    97ae:	050c      	movi.n	a5, 0
    97b0:	0bb8      	l32i.n	a11, a11, 0
    97b2:	777ac1        	l32r	a12, 0xfffe759c
    97b5:	ebb8      	l32i.n	a11, a11, 56
    97b7:	760761        	l32r	a6, 0xfffe6fd4
    97ba:	181bc7        	beq	a11, a12, 0x97d6
    97bd:	20a1d2        	movi	a13, 0x120
    97c0:	1e0c      	movi.n	a14, 1
    97c2:	3ca2c2        	movi	a12, 0x23c
    97c5:	22ca      	add.n	a2, a2, a12
    97c7:	3043e2        	s8i	a14, a3, 48
    97ca:	1e6452        	s32i	a5, a4, 120
    97cd:	824452        	s8i	a5, a4, 130
    97d0:	3e54d2        	s16i	a13, a4, 124
    97d3:	000646        	j	0x97f0
    97d6:	7924a2        	l32i	a10, a4, 0x1e4
    97d9:	0af8      	l32i.n	a15, a10, 0
    97db:	9fcc      	bnez.n	a15, 0x97e8
    97dd:	7792a1        	l32r	a10, 0xfffe7628
    97e0:	05bd      	mov.n	a11, a5
    97e2:	afdc25        	excw
    97e5:	7924a2        	l32i	a10, a4, 0x1e4
    97e8:	132682        	l32i	a8, a6, 76
    97eb:	0008e0        	excw
    97ee:	0a2d      	mov.n	a2, a10
    97f0:	7924a2        	l32i	a10, a4, 0x1e4
    97f3:	142682        	l32i	a8, a6, 80
    97f6:	02bd      	mov.n	a11, a2
    97f8:	0008e0        	excw
    97fb:	03ad      	mov.n	a10, a3
    97fd:	771541        	l32r	a4, 0xfffe7454
    9800:	779bc1        	l32r	a12, 0xfffe766c
    9803:	0a02b2        	l8ui	a11, a2, 10
    9806:	001cc2        	l16ui	a12, a12, 0
    9809:	bb2a      	add.n	a11, a11, a2
    980b:	502482        	l32i	a8, a4, 0x140
    980e:	bbcb      	addi.n	a11, a11, 12
    9810:	0008e0        	excw
    9813:	03ad      	mov.n	a10, a3
    9815:	232482        	l32i	a8, a4, 140
    9818:	a359      	s32i.n	a5, a3, 40
    981a:	0008e0        	excw
    981d:	f01d      	excw
    981f:	413600        	srli	a3, a0, 6
    9822:	9b2100        	excw
    9825:	a03177        	bltu	a1, a7, 0x97c9
    9828:	72f877        	bbsi	a8, 23, 0x989e
    982b:	4f63f2        	s32i	a15, a3, 0x13c
    982e:	1288      	l32i.n	a8, a2, 4
    9830:	6248      	l32i.n	a4, a2, 24
    9832:	5298      	l32i.n	a9, a2, 20
    9834:	42a8      	l32i.n	a10, a2, 16
    9836:	32b8      	l32i.n	a11, a2, 12
    9838:	22c8      	l32i.n	a12, a2, 8
    983a:	92d8      	l32i.n	a13, a2, 36
    983c:	82e8      	l32i.n	a14, a2, 32
    983e:	8363e2        	s32i	a14, a3, 0x20c
    9841:	4263d2        	s32i	a13, a3, 0x108
    9844:	6363c2        	s32i	a12, a3, 0x18c
    9847:	5b63b2        	s32i	a11, a3, 0x16c
    984a:	5863a2        	s32i	a10, a3, 0x160
    984d:	5c6392        	s32i	a9, a3, 0x170
    9850:	446342        	s32i	a4, a3, 0x110
    9853:	516382        	s32i	a8, a3, 0x144
    9856:	b248      	l32i.n	a4, a2, 44
    9858:	e288      	l32i.n	a8, a2, 56
    985a:	d298      	l32i.n	a9, a2, 52
    985c:	c2a8      	l32i.n	a10, a2, 48
    985e:	7863a2        	s32i	a10, a3, 0x1e0
    9861:	5f6392        	s32i	a9, a3, 0x17c
    9864:	736382        	s32i	a8, a3, 0x1cc
    9867:	ad6342        	s32i	a4, a3, 0x2b4
    986a:	a228      	l32i.n	a2, a2, 40
    986c:	a36322        	s32i	a2, a3, 0x28c
    986f:	f01d      	excw
    9871:	000000        	ill
    9874:	004136        	excw
    9877:	77a031        	l32r	a3, 0xfffe76f8
    987a:	779bd1        	l32r	a13, 0xfffe76e8
    987d:	4223a2        	l32i	a10, a3, 0x108
    9880:	9da9      	s32i.n	a10, a13, 36
    9882:	77a2a1        	l32r	a10, 0xfffe770c
    9885:	512322        	l32i	a2, a3, 0x144
    9888:	8323b2        	l32i	a11, a3, 0x20c
    988b:	5b2382        	l32i	a8, a3, 0x16c
    988e:	632392        	l32i	a9, a3, 0x18c
    9891:	4f23c2        	l32i	a12, a3, 0x13c
    9894:	4423e2        	l32i	a14, a3, 0x110
    9897:	5c23f2        	l32i	a15, a3, 0x170
    989a:	582342        	l32i	a4, a3, 0x160
    989d:	5863a2        	s32i	a10, a3, 0x160
    98a0:	5df9      	s32i.n	a15, a13, 20
    98a2:	6de9      	s32i.n	a14, a13, 24
    98a4:	7dc9      	s32i.n	a12, a13, 28
    98a6:	2d99      	s32i.n	a9, a13, 8
    98a8:	3d89      	s32i.n	a8, a13, 12
    98aa:	4d49      	s32i.n	a4, a13, 16
    98ac:	8db9      	s32i.n	a11, a13, 32
    98ae:	1d29      	s32i.n	a2, a13, 4
    98b0:	77a1b1        	l32r	a11, 0xfffe7734
    98b3:	5f2322        	l32i	a2, a3, 0x17c
    98b6:	782342        	l32i	a4, a3, 0x1e0
    98b9:	77a481        	l32r	a8, 0xfffe774c
    98bc:	77a391        	l32r	a9, 0xfffe7748
    98bf:	a323c2        	l32i	a12, a3, 0x28c
    98c2:	ad23e2        	l32i	a14, a3, 0x2b4
    98c5:	7323f2        	l32i	a15, a3, 0x1cc
    98c8:	edf9      	s32i.n	a15, a13, 56
    98ca:	bde9      	s32i.n	a14, a13, 44
    98cc:	adc9      	s32i.n	a12, a13, 40
    98ce:	516392        	s32i	a9, a3, 0x144
    98d1:	5c6382        	s32i	a8, a3, 0x170
    98d4:	cd49      	s32i.n	a4, a13, 48
    98d6:	dd29      	s32i.n	a2, a13, 52
    98d8:	1ba9      	s32i.n	a10, a11, 4
    98da:	77a621        	l32r	a2, 0xfffe7774
    98dd:	77a541        	l32r	a4, 0xfffe7774
    98e0:	77ad81        	l32r	a8, 0xfffe7794
    98e3:	77ac91        	l32r	a9, 0xfffe7794
    98e6:	77aac1        	l32r	a12, 0xfffe7790
    98e9:	77a8e1        	l32r	a14, 0xfffe778c
    98ec:	77a7f1        	l32r	a15, 0xfffe7788
    98ef:	8363f2        	s32i	a15, a3, 0x20c
    98f2:	4263e2        	s32i	a14, a3, 0x108
    98f5:	5b63c2        	s32i	a12, a3, 0x16c
    98f8:	736392        	s32i	a9, a3, 0x1cc
    98fb:	ad6382        	s32i	a8, a3, 0x2b4
    98fe:	446342        	s32i	a4, a3, 0x110
    9901:	4f6322        	s32i	a2, a3, 0x13c
    9904:	779fa1        	l32r	a10, 0xfffe7780
    9907:	77abb1        	l32r	a11, 0xfffe77b4
    990a:	7863b2        	s32i	a11, a3, 0x1e0
    990d:	5f63a2        	s32i	a10, a3, 0x17c
    9910:	77af21        	l32r	a2, 0xfffe77cc
    9913:	77ae41        	l32r	a4, 0xfffe77cc
    9916:	a36342        	s32i	a4, a3, 0x28c
    9919:	cb6322        	s32i	a2, a3, 0x32c
    991c:	77a9d1        	l32r	a13, 0xfffe77c0
    991f:	6363d2        	s32i	a13, a3, 0x18c
    9922:	f01d      	excw
    9924:	014136        	excw
    9927:	5e0c      	movi.n	a14, 5
    9929:	c71c      	movi.n	a7, 28
    992b:	ba1c      	movi.n	a10, 27
    992d:	060c      	movi.n	a6, 0
    992f:	5298      	l32i.n	a9, a2, 20
    9931:	0c1242        	l16ui	a4, a2, 24
    9934:	77b081        	l32r	a8, 0xfffe77f4
    9937:	449a      	add.n	a4, a4, a9
    9939:	289487        	bne	a4, a8, 0x9965
    993c:	0002b2        	l8ui	a11, a2, 0
    993f:	229b77        	bne	a11, a7, 0x9965
    9942:	766651        	l32r	a5, 0xfffe72dc
    9945:	0588      	l32i.n	a8, a5, 0
    9947:	06ad      	mov.n	a10, a6
    9949:	0008e0        	excw
    994c:	0a9c      	beqz.n	a10, 0x9960
    994e:	0a0c      	movi.n	a10, 0
    9950:	80a0b2        	movi	a11, 128
    9953:	2588      	l32i.n	a8, a5, 8
    9955:	01cd      	mov.n	a12, a1
    9957:	0008e0        	excw
    995a:	80ca92        	addi	a9, a10, -128
    995d:	0be916        	beqz	a9, 0x9a1f
    9960:	050c      	movi.n	a5, 0
    9962:	0026c6        	j	0x9a01
    9965:	065d      	mov.n	a5, a6
    9967:	77b1c1        	l32r	a12, 0xfffe782c
    996a:	7665d1        	l32r	a13, 0xfffe7300
    996d:	0514c7        	beq	a4, a12, 0x9976
    9970:	77b2b1        	l32r	a11, 0xfffe7838
    9973:	5194b7        	bne	a4, a11, 0x99c8
    9976:	0002f2        	l8ui	a15, a2, 0
    9979:	1db8      	l32i.n	a11, a13, 4
    997b:	499f77        	bne	a15, a7, 0x99c8
    997e:	1194c7        	bne	a4, a12, 0x9993
    9981:	180c      	movi.n	a8, 1
    9983:	7298      	l32i.n	a9, a2, 28
    9985:	11f300        	slli	a15, a3, 16
    9988:	2099f0        	or	a9, a9, a15
    998b:	049b90        	extui	a9, a9, 11, 1
    998e:	93b890        	movnez	a11, a8, a9
    9991:	1db9      	s32i.n	a11, a13, 4
    9993:	0d88      	l32i.n	a8, a13, 0
    9995:	2f18b7        	beq	a8, a11, 0x99c8
    9998:	061282        	l16ui	a8, a2, 12
    999b:	071b16        	beqz	a11, 0x9a10
    999e:	77b391        	l32r	a9, 0xfffe786c
    99a1:	77b4b1        	l32r	a11, 0xfffe7874
    99a4:	c0f4c0        	sub	a15, a4, a12
    99a7:	93b9f0        	movnez	a11, a9, a15
    99aa:	881b      	addi.n	a8, a8, 1
    99ac:	051292        	l16ui	a9, a2, 10
    99af:	04b9      	s32i.n	a11, a4, 0
    99b1:	f48080        	extui	a8, a8, 0, 16
    99b4:	065282        	s16i	a8, a2, 12
    99b7:	083897        	bltu	a8, a9, 0x99c3
    99ba:	0042e2        	s8i	a14, a2, 0
    99bd:	065262        	s16i	a6, a2, 12
    99c0:	000086        	j	0x99c6
    99c3:	0042a2        	s8i	a10, a2, 0
    99c6:	150c      	movi.n	a5, 1
    99c8:	77b591        	l32r	a9, 0xfffe789c
    99cb:	239497        	bne	a4, a9, 0x99f2
    99ce:	0002a2        	l8ui	a10, a2, 0
    99d1:	1d9a77        	bne	a10, a7, 0x99f2
    99d4:	77b6c1        	l32r	a12, 0xfffe78ac
    99d7:	77b781        	l32r	a8, 0xfffe78b4
    99da:	768ae1        	l32r	a14, 0xfffe7404
    99dd:	72f8      	l32i.n	a15, a2, 28
    99df:	119300        	slli	a9, a3, 16
    99e2:	20ff90        	or	a15, a15, a9
    99e5:	41b5f0        	srli	a11, a15, 5
    99e8:	10bbe0        	and	a11, a11, a14
    99eb:	85f6f0        	extui	a15, a15, 22, 9
    99ee:	08f9      	s32i.n	a15, a8, 0
    99f0:	0cb9      	s32i.n	a11, a12, 0
    99f2:	75cc      	bnez.n	a5, 0x99fd
    99f4:	02ad      	mov.n	a10, a2
    99f6:	2d88      	l32i.n	a8, a13, 8
    99f8:	03bd      	mov.n	a11, a3
    99fa:	0008e0        	excw
    99fd:	f01d      	excw
    99ff:	050c      	movi.n	a5, 0
    9a01:	766681        	l32r	a8, 0xfffe739c
    9a04:	1888      	l32i.n	a8, a8, 4
    9a06:	0008e0        	excw
    9a09:	ba1c      	movi.n	a10, 27
    9a0b:	5e0c      	movi.n	a14, 5
    9a0d:	ffd586        	j	0x9967
    9a10:	77b891        	l32r	a9, 0xfffe78f0
    9a13:	77b9b1        	l32r	a11, 0xfffe78f8
    9a16:	c0f4c0        	sub	a15, a4, a12
    9a19:	93b9f0        	movnez	a11, a9, a15
    9a1c:	ffe286        	j	0x99aa
    9a1f:	0501b2        	l8ui	a11, a1, 5
    9a22:	0401a2        	l8ui	a10, a1, 4
    9a25:	11bb80        	slli	a11, a11, 8
    9a28:	aaba      	add.n	a10, a10, a11
    9a2a:	148ea0        	extui	a8, a10, 14, 2
    9a2d:	ce1866        	bnei	a8, 1, 0x99ff
    9a30:	119300        	slli	a9, a3, 16
    9a33:	7288      	l32i.n	a8, a2, 28
    9a35:	77bbf1        	l32r	a15, 0xfffe7924
    9a38:	0612c2        	l16ui	a12, a2, 12
    9a3b:	64e0a0        	extui	a14, a10, 0, 7
    9a3e:	64d7a0        	extui	a13, a10, 7, 7
    9a41:	11dd00        	slli	a13, a13, 16
    9a44:	01ee90        	slli	a14, a14, 23
    9a47:	cc1b      	addi.n	a12, a12, 1
    9a49:	10eef0        	and	a14, a14, a15
    9a4c:	208890        	or	a8, a8, a9
    9a4f:	7289      	s32i.n	a8, a2, 28
    9a51:	77ba91        	l32r	a9, 0xfffe793c
    9a54:	77bcf1        	l32r	a15, 0xfffe7944
    9a57:	108890        	and	a8, a8, a9
    9a5a:	20ee80        	or	a14, a14, a8
    9a5d:	10eef0        	and	a14, a14, a15
    9a60:	77bdf1        	l32r	a15, 0xfffe7954
    9a63:	f4c0c0        	extui	a12, a12, 0, 16
    9a66:	10ddf0        	and	a13, a13, a15
    9a69:	20dde0        	or	a13, a13, a14
    9a6c:	04d9      	s32i.n	a13, a4, 0
    9a6e:	0512d2        	l16ui	a13, a2, 10
    9a71:	0652c2        	s16i	a12, a2, 12
    9a74:	0a3cd7        	bltu	a12, a13, 0x9a82
    9a77:	065262        	s16i	a6, a2, 12
    9a7a:	5a0c      	movi.n	a10, 5
    9a7c:	0042a2        	s8i	a10, a2, 0
    9a7f:	000106        	j	0x9a87
    9a82:	bb1c      	movi.n	a11, 27
    9a84:	0042b2        	s8i	a11, a2, 0
    9a87:	150c      	movi.n	a5, 1
    9a89:	ffdd06        	j	0x9a01
    9a8c:	004136        	excw
    9a8f:	77be21        	l32r	a2, 0xfffe7988
    9a92:	76b331        	l32r	a3, 0xfffe7560
    9a95:	766581        	l32r	a8, 0xfffe742c
    9a98:	492342        	l32i	a4, a3, 0x124
    9a9b:	2849      	s32i.n	a4, a8, 8
    9a9d:	496322        	s32i	a2, a3, 0x124
    9aa0:	f01d      	excw
    9aa2:	360000        	excw
    9aa5:	560041        	l32r	a4, 0xfffdf2a8
    9aa8:	510642        	l8ui	a4, a6, 81
    9aab:	bf          	.byte 0xbf
    9aac:	060c77        	bnone	a12, a7, 0x9ab6
    9aaf:	770c31        	l32r	a3, 0xfffe76e0
    9ab2:	0020c0        	memw
    9ab5:	956362        	s32i	a6, a3, 0x254
    9ab8:	0020c0        	memw
    9abb:	1598      	l32i.n	a9, a5, 4
    9abd:	966362        	s32i	a6, a3, 0x258
    9ac0:	092d      	mov.n	a2, a9
    9ac2:	499c      	beqz.n	a9, 0x9ada
    9ac4:	0948      	l32i.n	a4, a9, 0
    9ac6:	59c8      	l32i.n	a12, a9, 20
    9ac8:	1549      	s32i.n	a4, a5, 4
    9aca:	1948      	l32i.n	a4, a9, 4
    9acc:	041c16        	beqz	a12, 0x9b11
    9acf:	0619a2        	l16ui	a10, a9, 12
    9ad2:	29b8      	l32i.n	a11, a9, 8
    9ad4:	000ce0        	excw
    9ad7:	0011c6        	j	0x9b22
    9ada:	040c      	movi.n	a4, 0
    9adc:	f9ac      	beqz.n	a9, 0x9b0f
    9ade:	19c8      	l32i.n	a12, a9, 4
    9ae0:	0020c0        	memw
    9ae3:	9363c2        	s32i	a12, a3, 0x24c
    9ae6:	0020c0        	memw
    9ae9:	966362        	s32i	a6, a3, 0x258
    9aec:	4b0c      	movi.n	a11, 4
    9aee:	0020c0        	memw
    9af1:	9563b2        	s32i	a11, a3, 0x254
    9af4:	15a8      	l32i.n	a10, a5, 4
    9af6:	1aa8      	l32i.n	a10, a10, 4
    9af8:	0020c0        	memw
    9afb:	942382        	l32i	a8, a3, 0x250
    9afe:	1d0c      	movi.n	a13, 1
    9b00:	c08a80        	sub	a8, a10, a8
    9b03:	0218a6        	blti	a8, 1, 0x9b09
    9b06:	059a47        	bne	a10, a4, 0x9b0f
    9b09:	0020c0        	memw
    9b0c:	9663d2        	s32i	a13, a3, 0x258
    9b0f:	f01d      	excw
    9b11:	0819a2        	l16ui	a10, a9, 16
    9b14:	0b5c      	movi.n	a11, 80
    9b16:	767381        	l32r	a8, 0xfffe74e4
    9b19:	c98b      	addi.n	a12, a9, 8
    9b1b:	7888      	l32i.n	a8, a8, 28
    9b1d:	8d0c      	movi.n	a13, 8
    9b1f:	0008e0        	excw
    9b22:	0598      	l32i.n	a9, a5, 0
    9b24:	0299      	s32i.n	a9, a2, 0
    9b26:	0529      	s32i.n	a2, a5, 0
    9b28:	1598      	l32i.n	a9, a5, 4
    9b2a:	ffeb86        	j	0x9adc
    9b2d:	000000        	ill
    9b30:	004136        	excw
    9b33:	764131        	l32r	a3, 0xfffe7438
    9b36:	77c021        	l32r	a2, 0xfffe7a38
    9b39:	9329      	s32i.n	a2, a3, 36
    9b3b:	f01d      	excw
    9b3d:	000000        	ill
    9b40:	004136        	excw
    9b43:	00a292        	movi	a9, 0x200
    9b46:	770ca1        	l32r	a10, 0xfffe7778
    9b49:	0020c0        	memw
    9b4c:	77c181        	l32r	a8, 0xfffe7a50
    9b4f:	0888      	l32i.n	a8, a8, 0
    9b51:	9e6a92        	s32i	a9, a10, 0x278
    9b54:	0008e0        	excw
    9b57:	f01d      	excw
    9b59:	000000        	ill
    9b5c:	004136        	excw
    9b5f:	77c181        	l32r	a8, 0xfffe7a64
    9b62:	1888      	l32i.n	a8, a8, 4
    9b64:	0008e0        	excw
    9b67:	766a81        	l32r	a8, 0xfffe7510
    9b6a:	fa1c      	movi.n	a10, 31
    9b6c:	4888      	l32i.n	a8, a8, 16
    9b6e:	1b0c      	movi.n	a11, 1
    9b70:	0008e0        	excw
    9b73:	f01d      	excw
    9b75:	000000        	ill
    9b78:	004136        	excw
    9b7b:	77c241        	l32r	a4, 0xfffe7a84
    9b7e:	77c321        	l32r	a2, 0xfffe7a8c
    9b81:	766a31        	l32r	a3, 0xfffe752c
    9b84:	77c191        	l32r	a9, 0xfffe7a88
    9b87:	1b23a2        	l32i	a10, a3, 108
    9b8a:	6388      	l32i.n	a8, a3, 24
    9b8c:	1989      	s32i.n	a8, a9, 4
    9b8e:	6329      	s32i.n	a2, a3, 24
    9b90:	09a9      	s32i.n	a10, a9, 0
    9b92:	1b6342        	s32i	a4, a3, 108
    9b95:	f01d      	excw
    9b97:	413600        	srli	a3, a0, 6
    9b9a:	f01d00        	subx8	a1, a13, a0
    9b9d:	000000        	ill
    9ba0:	002136        	excw
    9ba3:	307230        	xor	a7, a2, a3
    9ba6:	606120        	abs	a6, a2
    9ba9:	603130        	abs	a3, a3
    9bac:	3423b6        	bltui	a3, 2, 0x9be4
    9baf:	415160        	srli	a5, a6, 1
    9bb2:	3a3537        	bltu	a5, a3, 0x9bf0
    9bb5:	40f650        	nsau	a5, a6
    9bb8:	40f340        	nsau	a4, a3
    9bbb:	c04450        	sub	a4, a4, a5
    9bbe:	401400        	ssl	a4
    9bc1:	a13300        	sll	a3, a3
    9bc4:	020c      	movi.n	a2, 0
    9bc6:	0d9476        	excw
    9bc9:	043637        	bltu	a6, a3, 0x9bd1
    9bcc:	c06630        	sub	a6, a6, a3
    9bcf:	221b      	addi.n	a2, a2, 1
    9bd1:	1122f0        	slli	a2, a2, 1
    9bd4:	413130        	srli	a3, a3, 1
    9bd7:	013637        	bltu	a6, a3, 0x9bdc
    9bda:	221b      	addi.n	a2, a2, 1
    9bdc:	605020        	neg	a5, a2
    9bdf:	a32570        	movltz	a2, a5, a7
    9be2:	f01d      	excw
    9be4:	539c      	beqz.n	a3, 0x9bfd
    9be6:	602060        	neg	a2, a6
    9be9:	b32670        	movgez	a2, a6, a7
    9bec:	f01d      	excw
    9bee:	370000        	excw
    9bf1:	0c1036        	excw
    9bf4:	f47c12        	excw
    9bf7:	a32470        	movltz	a2, a4, a7
    9bfa:	f01d      	excw
    9bfc:	000000        	ill
    9bff:	494400        	excw
    9c02:	0c3056        	bnez	a0, 0x9cc9
    9c05:	f01d02        	l16ui	a0, a13, 0x1e0
    9c08:	002136        	excw
    9c0b:	207220        	or	a7, a2, a2
    9c0e:	602120        	abs	a2, a2
    9c11:	603130        	abs	a3, a3
    9c14:	2c23b6        	bltui	a3, 2, 0x9c44
    9c17:	40f250        	nsau	a5, a2
    9c1a:	40f340        	nsau	a4, a3
    9c1d:	14b547        	bgeu	a5, a4, 0x9c35
    9c20:	c04450        	sub	a4, a4, a5
    9c23:	401400        	ssl	a4
    9c26:	a13300        	sll	a3, a3
    9c29:	089476        	excw
    9c2c:	023237        	bltu	a2, a3, 0x9c32
    9c2f:	c02230        	sub	a2, a2, a3
    9c32:	413130        	srli	a3, a3, 1
    9c35:	023237        	bltu	a2, a3, 0x9c3b
    9c38:	c02230        	sub	a2, a2, a3
    9c3b:	0027d6        	bgez	a7, 0x9c41
    9c3e:	602020        	neg	a2, a2
    9c41:	f01d      	excw
    9c43:	53cc00        	excw
    9c46:	000000        	ill
    9c49:	564944        	excw
    9c4c:	020c30        	excw
    9c4f:	f01d      	excw
    9c51:	000000        	ill
    9c54:	002136        	excw
    9c57:	2f23b6        	bltui	a3, 2, 0x9c8a
    9c5a:	026d      	mov.n	a6, a2
    9c5c:	40f650        	nsau	a5, a6
    9c5f:	40f340        	nsau	a4, a3
    9c62:	2ab547        	bgeu	a5, a4, 0x9c90
    9c65:	c04450        	sub	a4, a4, a5
    9c68:	401400        	ssl	a4
    9c6b:	a13300        	sll	a3, a3
    9c6e:	00a022        	movi	a2, 0
    9c71:	0d9476        	excw
    9c74:	043637        	bltu	a6, a3, 0x9c7c
    9c77:	c06630        	sub	a6, a6, a3
    9c7a:	221b      	addi.n	a2, a2, 1
    9c7c:	1122f0        	slli	a2, a2, 1
    9c7f:	413130        	srli	a3, a3, 1
    9c82:	023637        	bltu	a6, a3, 0x9c88
    9c85:	01c222        	addi	a2, a2, 1
    9c88:	f01d      	excw
    9c8a:	b38c      	beqz.n	a3, 0x9c99
    9c8c:	f01d      	excw
    9c8e:	370000        	excw
    9c91:	0c0c36        	excw
    9c94:	f01d12        	l16ui	a1, a13, 0x1e0
    9c97:	000000        	ill
    9c9a:	440000        	extui	a0, a0, 0, 5
    9c9d:	5649      	s32i.n	a4, a6, 20
    9c9f:	020c30        	excw
    9ca2:	f01d      	excw
    9ca4:	002136        	excw
    9ca7:	2923b6        	bltui	a3, 2, 0x9cd4
    9caa:	40f250        	nsau	a5, a2
    9cad:	40f340        	nsau	a4, a3
    9cb0:	16b547        	bgeu	a5, a4, 0x9cca
    9cb3:	c04450        	sub	a4, a4, a5
    9cb6:	401400        	ssl	a4
    9cb9:	a13300        	sll	a3, a3
    9cbc:	f03d      	nop.n
    9cbe:	089476        	excw
    9cc1:	023237        	bltu	a2, a3, 0x9cc7
    9cc4:	c02230        	sub	a2, a2, a3
    9cc7:	413130        	srli	a3, a3, 1
    9cca:	023237        	bltu	a2, a3, 0x9cd0
    9ccd:	c02230        	sub	a2, a2, a3
    9cd0:	f01d      	excw
    9cd2:	cc0000        	excw
    9cd5:	000053        	excw
    9cd8:	494400        	excw
    9cdb:	0c3056        	bnez	a0, 0x9da2
    9cde:	f01d02        	l16ui	a0, a13, 0x1e0
    9ce1:	000000        	ill
    9ce4:	002136        	excw
    9ce7:	401400        	ssl	a4
    9cea:	07c4e6        	bgei	a4, 32, 0x9cf5
    9ced:	813320        	src	a3, a3, a2
    9cf0:	a12200        	sll	a2, a2
    9cf3:	f01d      	excw
    9cf5:	a13200        	sll	a3, a2
    9cf8:	020c      	movi.n	a2, 0
    9cfa:	f01d      	excw
    9cfc:	002136        	excw
    9cff:	400400        	ssr	a4
    9d02:	07c4e6        	bgei	a4, 32, 0x9d0d
    9d05:	812320        	src	a2, a3, a2
    9d08:	913030        	srl	a3, a3
    9d0b:	f01d      	excw
    9d0d:	912030        	srl	a2, a3
    9d10:	030c      	movi.n	a3, 0
    9d12:	f01d      	excw
    9d14:	947600        	extui	a7, a0, 6, 10
    9d17:	6209      	s32i.n	a0, a2, 24
    9d19:	1b0003        	excw
    9d1c:	456233        	excw
    9d1f:	551b00        	extui	a1, a0, 27, 6
    9d22:	f01d      	excw
    9d24:	ed74b6        	bltui	a4, 7, 0x9d15
    9d27:	000362        	l8ui	a6, a3, 0
    9d2a:	331b      	addi.n	a3, a3, 1
    9d2c:	ffc442        	addi	a4, a4, -1
    9d2f:	004562        	s8i	a6, a5, 0
    9d32:	01c552        	addi	a5, a5, 1
    9d35:	276517        	bbci	a5, 1, 0x9d60
    9d38:	d964b6        	bltui	a4, 6, 0x9d15
    9d3b:	000362        	l8ui	a6, a3, 0
    9d3e:	010372        	l8ui	a7, a3, 1
    9d41:	332b      	addi.n	a3, a3, 2
    9d43:	fec442        	addi	a4, a4, -2
    9d46:	004562        	s8i	a6, a5, 0
    9d49:	014572        	s8i	a7, a5, 1
    9d4c:	552b      	addi.n	a5, a5, 2
    9d4e:	000386        	j	0x9d60
    9d51:	000000        	ill
    9d54:	002136        	excw
    9d57:	205220        	or	a5, a2, a2
    9d5a:	c6e207        	bbsi	a2, 0, 0x9d24
    9d5d:	d7e217        	bbsi	a2, 1, 0x9d38
    9d60:	417440        	srli	a7, a4, 4
    9d63:	03a082        	movi	a8, 3
    9d66:	5a8387        	bany	a3, a8, 0x9dc4
    9d69:	159776        	excw
    9d6c:	0368      	l32i.n	a6, a3, 0
    9d6e:	1378      	l32i.n	a7, a3, 4
    9d70:	0569      	s32i.n	a6, a5, 0
    9d72:	2368      	l32i.n	a6, a3, 8
    9d74:	1579      	s32i.n	a7, a5, 4
    9d76:	3378      	l32i.n	a7, a3, 12
    9d78:	2569      	s32i.n	a6, a5, 8
    9d7a:	10c332        	addi	a3, a3, 16
    9d7d:	3579      	s32i.n	a7, a5, 12
    9d7f:	10c552        	addi	a5, a5, 16
    9d82:	0b6437        	bbci	a4, 3, 0x9d91
    9d85:	0368      	l32i.n	a6, a3, 0
    9d87:	1378      	l32i.n	a7, a3, 4
    9d89:	338b      	addi.n	a3, a3, 8
    9d8b:	0569      	s32i.n	a6, a5, 0
    9d8d:	1579      	s32i.n	a7, a5, 4
    9d8f:	558b      	addi.n	a5, a5, 8
    9d91:	07e427        	bbsi	a4, 2, 0x9d9c
    9d94:	14e417        	bbsi	a4, 1, 0x9dac
    9d97:	21e407        	bbsi	a4, 0, 0x9dbc
    9d9a:	f01d      	excw
    9d9c:	0368      	l32i.n	a6, a3, 0
    9d9e:	334b      	addi.n	a3, a3, 4
    9da0:	0569      	s32i.n	a6, a5, 0
    9da2:	554b      	addi.n	a5, a5, 4
    9da4:	04e417        	bbsi	a4, 1, 0x9dac
    9da7:	11e407        	bbsi	a4, 0, 0x9dbc
    9daa:	f01d      	excw
    9dac:	001362        	l16ui	a6, a3, 0
    9daf:	332b      	addi.n	a3, a3, 2
    9db1:	005562        	s16i	a6, a5, 0
    9db4:	552b      	addi.n	a5, a5, 2
    9db6:	02e407        	bbsi	a4, 0, 0x9dbc
    9db9:	f01d      	excw
    9dbb:	036200        	excw
    9dbe:	456200        	extui	a6, a0, 18, 5
    9dc1:	f01d00        	subx8	a1, a13, a0
    9dc4:	ffa416        	beqz	a4, 0x9dc2
    9dc7:	402300        	ssa8l	a3
    9dca:	10b380        	and	a11, a3, a8
    9dcd:	c033b0        	sub	a3, a3, a11
    9dd0:	0368      	l32i.n	a6, a3, 0
    9dd2:	219776        	excw
    9dd5:	1378      	l32i.n	a7, a3, 4
    9dd7:	2388      	l32i.n	a8, a3, 8
    9dd9:	816760        	src	a6, a7, a6
    9ddc:	0569      	s32i.n	a6, a5, 0
    9dde:	3398      	l32i.n	a9, a3, 12
    9de0:	817870        	src	a7, a8, a7
    9de3:	1579      	s32i.n	a7, a5, 4
    9de5:	4368      	l32i.n	a6, a3, 16
    9de7:	818980        	src	a8, a9, a8
    9dea:	2589      	s32i.n	a8, a5, 8
    9dec:	10c332        	addi	a3, a3, 16
    9def:	819690        	src	a9, a6, a9
    9df2:	3599      	s32i.n	a9, a5, 12
    9df4:	10c552        	addi	a5, a5, 16
    9df7:	156437        	bbci	a4, 3, 0x9e10
    9dfa:	1378      	l32i.n	a7, a3, 4
    9dfc:	2388      	l32i.n	a8, a3, 8
    9dfe:	816760        	src	a6, a7, a6
    9e01:	0569      	s32i.n	a6, a5, 0
    9e03:	338b      	addi.n	a3, a3, 8
    9e05:	817870        	src	a7, a8, a7
    9e08:	1579      	s32i.n	a7, a5, 4
    9e0a:	08c552        	addi	a5, a5, 8
    9e0d:	206880        	or	a6, a8, a8
    9e10:	0c6427        	bbci	a4, 2, 0x9e20
    9e13:	1378      	l32i.n	a7, a3, 4
    9e15:	334b      	addi.n	a3, a3, 4
    9e17:	816760        	src	a6, a7, a6
    9e1a:	0569      	s32i.n	a6, a5, 0
    9e1c:	554b      	addi.n	a5, a5, 4
    9e1e:	076d      	mov.n	a6, a7
    9e20:	33ba      	add.n	a3, a3, a11
    9e22:	06e417        	bbsi	a4, 1, 0x9e2c
    9e25:	18e407        	bbsi	a4, 0, 0x9e41
    9e28:	f01d      	excw
    9e2a:	620000        	excw
    9e2d:	720003        	excw
    9e30:	2b0103        	excw
    9e33:	456233        	excw
    9e36:	457200        	extui	a7, a0, 18, 5
    9e39:	552b01        	l32r	a0, 0xfffdf2e8
    9e3c:	01e407        	bbsi	a4, 0, 0x9e41
    9e3f:	f01d      	excw
    9e41:	000362        	l8ui	a6, a3, 0
    9e44:	004562        	s8i	a6, a5, 0
    9e47:	f01d      	excw
    9e49:	000000        	ill
    9e4c:	947600        	extui	a7, a0, 6, 10
    9e4f:	453204        	excw
    9e52:	551b00        	extui	a1, a0, 27, 6
    9e55:	f01d      	excw
    9e57:	84b600        	extui	a11, a0, 6, 9
    9e5a:	4532f1        	l32r	a15, 0xfffdb324
    9e5d:	551b00        	extui	a1, a0, 27, 6
    9e60:	440b      	addi.n	a4, a4, -1
    9e62:	286517        	bbci	a5, 1, 0x9e8e
    9e65:	e484b6        	bltui	a4, 8, 0x9e4d
    9e68:	005532        	s16i	a3, a5, 0
    9e6b:	552b      	addi.n	a5, a5, 2
    9e6d:	fec442        	addi	a4, a4, -2
    9e70:	000686        	j	0x9e8e
    9e73:	213600        	srai	a3, a0, 6
    9e76:	303000        	xor	a3, a0, a0
    9e79:	738074        	excw
    9e7c:	337011        	l32r	a1, 0xfffd6c3c
    9e7f:	730020        	excw
    9e82:	337011        	l32r	a1, 0xfffd6c44
    9e85:	025d20        	excw
    9e88:	cce207        	bbsi	a2, 0, 0x9e58
    9e8b:	d6e217        	bbsi	a2, 1, 0x9e65
    9e8e:	417440        	srli	a7, a4, 4
    9e91:	0a9776        	excw
    9e94:	0539      	s32i.n	a3, a5, 0
    9e96:	1539      	s32i.n	a3, a5, 4
    9e98:	2539      	s32i.n	a3, a5, 8
    9e9a:	3539      	s32i.n	a3, a5, 12
    9e9c:	10c552        	addi	a5, a5, 16
    9e9f:	066437        	bbci	a4, 3, 0x9ea9
    9ea2:	0539      	s32i.n	a3, a5, 0
    9ea4:	1539      	s32i.n	a3, a5, 4
    9ea6:	08c552        	addi	a5, a5, 8
    9ea9:	036427        	bbci	a4, 2, 0x9eb0
    9eac:	0539      	s32i.n	a3, a5, 0
    9eae:	554b      	addi.n	a5, a5, 4
    9eb0:	046417        	bbci	a4, 1, 0x9eb8
    9eb3:	005532        	s16i	a3, a5, 0
    9eb6:	552b      	addi.n	a5, a5, 2
    9eb8:	026407        	bbci	a4, 0, 0x9ebe
    9ebb:	004532        	s8i	a3, a5, 0
    9ebe:	f01d      	excw
    9ec0:	000000        	ill
    9ec3:	000000        	ill
    9ec6:	3c3101        	l32r	a0, 0xfffd8f8c
    9ec9:	000000        	ill