../git/linux-firmware/./RTL8192E/main.img:     file format binary


Disassembly of section .data:

00000000 <.data>:
       0:	40046800 	mfc0	a0,$13
       4:	40057000 	mfc0	a1,$14
       8:	40064000 	mfc0	a2,$8
       c:	0c001298 	jal	0x4a60
      10:	00000000 	nop
      14:	401a6800 	mfc0	k0,$13
      18:	335b003c 	andi	k1,k0,0x3c
      1c:	17600009 	bnez	k1,0x44
      20:	00000000 	nop
      24:	401b6000 	mfc0	k1,$12
      28:	00000000 	nop
      2c:	035bd024 	and	k0,k0,k1
      30:	401a7000 	mfc0	k0,$14
      34:	03400008 	jr	k0
      38:	42000010 	c0	0x10
	...
      44:	3c02ffff 	lui	v0,0xffff
      48:	3442ffff 	ori	v0,v0,0xffff
      4c:	8c430000 	lw	v1,0(v0)
      50:	3c03b003 	lui	v1,0xb003
      54:	3c028000 	lui	v0,0x8000
      58:	34630020 	ori	v1,v1,0x20
      5c:	244200d0 	addiu	v0,v0,208
      60:	ac620000 	sw	v0,0(v1)
      64:	00002021 	move	a0,zero
      68:	27858b70 	addiu	a1,gp,-29840
      6c:	00851821 	addu	v1,a0,a1
      70:	24840001 	addiu	a0,a0,1
      74:	2882000a 	slti	v0,a0,10
      78:	1440fffc 	bnez	v0,0x6c
      7c:	a0600000 	sb	zero,0(v1)
      80:	27828b7a 	addiu	v0,gp,-29830
      84:	24040006 	li	a0,6
      88:	2484ffff 	addiu	a0,a0,-1
      8c:	a4400000 	sh	zero,0(v0)
      90:	0481fffd 	bgez	a0,0x88
      94:	24420002 	addiu	v0,v0,2
      98:	24020003 	li	v0,3
      9c:	a3828b70 	sb	v0,-29840(gp)
      a0:	2402000a 	li	v0,10
      a4:	240309c4 	li	v1,2500
      a8:	a3828b72 	sb	v0,-29838(gp)
      ac:	24020004 	li	v0,4
      b0:	24040001 	li	a0,1
      b4:	24050002 	li	a1,2
      b8:	a7838b86 	sh	v1,-29818(gp)
      bc:	a3828b78 	sb	v0,-29832(gp)
      c0:	24030400 	li	v1,1024
      c4:	24020200 	li	v0,512
      c8:	af838b8c 	sw	v1,-29812(gp)
      cc:	a3858b79 	sb	a1,-29831(gp)
      d0:	a7828b7a 	sh	v0,-29830(gp)
      d4:	a7848b7c 	sh	a0,-29828(gp)
      d8:	af848b88 	sw	a0,-29816(gp)
      dc:	a3848b71 	sb	a0,-29839(gp)
      e0:	a3808b73 	sb	zero,-29837(gp)
      e4:	a3808b74 	sb	zero,-29836(gp)
      e8:	a3808b75 	sb	zero,-29835(gp)
      ec:	a3848b76 	sb	a0,-29834(gp)
      f0:	a3858b77 	sb	a1,-29833(gp)
      f4:	03e00008 	jr	ra
      f8:	00000000 	nop
      fc:	3c03b003 	lui	v1,0xb003
     100:	3c028000 	lui	v0,0x8000
     104:	2442017c 	addiu	v0,v0,380
     108:	34630020 	ori	v1,v1,0x20
     10c:	ac620000 	sw	v0,0(v1)
     110:	27848b98 	addiu	a0,gp,-29800
     114:	00001021 	move	v0,zero
     118:	24420001 	addiu	v0,v0,1
     11c:	00021600 	sll	v0,v0,0x18
     120:	00021603 	sra	v0,v0,0x18
     124:	28430003 	slti	v1,v0,3
     128:	ac80fffc 	sw	zero,-4(a0)
     12c:	a0800000 	sb	zero,0(a0)
     130:	1460fff9 	bnez	v1,0x118
     134:	2484000c 	addiu	a0,a0,12
     138:	03e00008 	jr	ra
     13c:	00000000 	nop
     140:	3c03b003 	lui	v1,0xb003
     144:	3c028000 	lui	v0,0x8000
     148:	34630020 	ori	v1,v1,0x20
     14c:	244201c0 	addiu	v0,v0,448
     150:	3c08b003 	lui	t0,0xb003
     154:	ac620000 	sw	v0,0(v1)
     158:	35080070 	ori	t0,t0,0x70
     15c:	8d020000 	lw	v0,0(t0)
     160:	00a04821 	move	t1,a1
     164:	00042600 	sll	a0,a0,0x18
     168:	00022a43 	sra	a1,v0,0x9
     16c:	00063600 	sll	a2,a2,0x18
     170:	00073e00 	sll	a3,a3,0x18
     174:	00021203 	sra	v0,v0,0x8
     178:	29230003 	slti	v1,t1,3
     17c:	00045603 	sra	t2,a0,0x18
     180:	00063603 	sra	a2,a2,0x18
     184:	00073e03 	sra	a3,a3,0x18
     188:	30480001 	andi	t0,v0,0x1
     18c:	10600011 	beqz	v1,0x1d4
     190:	30a50007 	andi	a1,a1,0x7
     194:	24020002 	li	v0,2
     198:	00491023 	subu	v0,v0,t1
     19c:	00451007 	srav	v0,a1,v0
     1a0:	30420001 	andi	v0,v0,0x1
     1a4:	10400066 	beqz	v0,0x340
     1a8:	00000000 	nop
     1ac:	8fa20010 	lw	v0,16(sp)
     1b0:	00000000 	nop
     1b4:	00022143 	sra	a0,v0,0x5
     1b8:	11000010 	beqz	t0,0x1fc
     1bc:	0007200b 	.word	0x7200b
     1c0:	15200006 	bnez	t1,0x1dc
     1c4:	24020001 	li	v0,1
     1c8:	3c02b005 	lui	v0,0xb005
     1cc:	34420120 	ori	v0,v0,0x120
     1d0:	a4440000 	sh	a0,0(v0)
     1d4:	03e00008 	jr	ra
     1d8:	00000000 	nop
     1dc:	11220004 	beq	t1,v0,0x1f0
     1e0:	00000000 	nop
     1e4:	3c02b005 	lui	v0,0xb005
     1e8:	08000094 	j	0x250
     1ec:	34420124 	ori	v0,v0,0x124
     1f0:	3c02b005 	lui	v0,0xb005
     1f4:	08000094 	j	0x250
     1f8:	34420122 	ori	v0,v0,0x122
     1fc:	15200054 	bnez	t1,0x350
     200:	24020001 	li	v0,1
     204:	3c02b003 	lui	v0,0xb003
     208:	34420074 	ori	v0,v0,0x74
     20c:	90430000 	lbu	v1,0(v0)
     210:	00000000 	nop
     214:	af838b94 	sw	v1,-29804(gp)
     218:	3c02b003 	lui	v0,0xb003
     21c:	34420070 	ori	v0,v0,0x70
     220:	90430000 	lbu	v1,0(v0)
     224:	00000000 	nop
     228:	306b0008 	andi	t3,v1,0x8
     22c:	11600018 	beqz	t3,0x290
     230:	00092840 	sll	a1,t1,0x1
     234:	00004021 	move	t0,zero
     238:	27858b90 	addiu	a1,gp,-29808
     23c:	8ca30000 	lw	v1,0(a1)
     240:	8ca20004 	lw	v0,4(a1)
     244:	00000000 	nop
     248:	00623823 	subu	a3,v1,v0
     24c:	0043102a 	slt	v0,v0,v1
     250:	1040003d 	beqz	v0,0x348
     254:	00000000 	nop
     258:	aca70000 	sw	a3,0(a1)
     25c:	25020001 	addiu	v0,t0,1
     260:	00021600 	sll	v0,v0,0x18
     264:	00024603 	sra	t0,v0,0x18
     268:	29030003 	slti	v1,t0,3
     26c:	1460fff3 	bnez	v1,0x23c
     270:	24a5000c 	addiu	a1,a1,12
     274:	3c03b003 	lui	v1,0xb003
     278:	34630070 	ori	v1,v1,0x70
     27c:	90620000 	lbu	v0,0(v1)
     280:	00000000 	nop
     284:	004b1023 	subu	v0,v0,t3
     288:	a0620000 	sb	v0,0(v1)
     28c:	00092840 	sll	a1,t1,0x1
     290:	00a91021 	addu	v0,a1,t1
     294:	00021080 	sll	v0,v0,0x2
     298:	27838b98 	addiu	v1,gp,-29800
     29c:	000a200b 	.word	0xa200b
     2a0:	00431821 	addu	v1,v0,v1
     2a4:	10c00005 	beqz	a2,0x2bc
     2a8:	00003821 	move	a3,zero
     2ac:	80620001 	lb	v0,1(v1)
     2b0:	00000000 	nop
     2b4:	14400005 	bnez	v0,0x2cc
     2b8:	00000000 	nop
     2bc:	80620000 	lb	v0,0(v1)
     2c0:	00000000 	nop
     2c4:	14400003 	bnez	v0,0x2d4
     2c8:	00a91021 	addu	v0,a1,t1
     2cc:	24070001 	li	a3,1
     2d0:	00a91021 	addu	v0,a1,t1
     2d4:	00023080 	sll	a2,v0,0x2
     2d8:	27828b98 	addiu	v0,gp,-29800
     2dc:	a0670001 	sb	a3,1(v1)
     2e0:	00c23821 	addu	a3,a2,v0
     2e4:	80e30001 	lb	v1,1(a3)
     2e8:	00000000 	nop
     2ec:	10600007 	beqz	v1,0x30c
     2f0:	00000000 	nop
     2f4:	27838b90 	addiu	v1,gp,-29808
     2f8:	00c31821 	addu	v1,a2,v1
     2fc:	8c620000 	lw	v0,0(v1)
     300:	00000000 	nop
     304:	00441021 	addu	v0,v0,a0
     308:	ac620000 	sw	v0,0(v1)
     30c:	27858b94 	addiu	a1,gp,-29804
     310:	27828b90 	addiu	v0,gp,-29808
     314:	00c52821 	addu	a1,a2,a1
     318:	00c21021 	addu	v0,a2,v0
     31c:	8c430000 	lw	v1,0(v0)
     320:	8ca40000 	lw	a0,0(a1)
     324:	00000000 	nop
     328:	0064182a 	slt	v1,v1,a0
     32c:	14600003 	bnez	v1,0x33c
     330:	24020001 	li	v0,1
     334:	03e00008 	jr	ra
     338:	a0e20000 	sb	v0,0(a3)
     33c:	a0e00000 	sb	zero,0(a3)
     340:	03e00008 	jr	ra
     344:	00000000 	nop
     348:	080000b7 	j	0x2dc
     34c:	aca00000 	sw	zero,0(a1)
     350:	11220008 	beq	t1,v0,0x374
     354:	00000000 	nop
     358:	3c02b003 	lui	v0,0xb003
     35c:	3442007c 	ori	v0,v0,0x7c
     360:	90430000 	lbu	v1,0(v0)
     364:	00000000 	nop
     368:	af838bac 	sw	v1,-29780(gp)
     36c:	080000a7 	j	0x29c
     370:	3c02b003 	lui	v0,0xb003
     374:	3c02b003 	lui	v0,0xb003
     378:	34420078 	ori	v0,v0,0x78
     37c:	90430000 	lbu	v1,0(v0)
     380:	00000000 	nop
     384:	af838ba0 	sw	v1,-29792(gp)
     388:	080000a7 	j	0x29c
     38c:	3c02b003 	lui	v0,0xb003
     390:	3c03b003 	lui	v1,0xb003
     394:	3c028000 	lui	v0,0x8000
     398:	34630020 	ori	v1,v1,0x20
     39c:	24420410 	addiu	v0,v0,1040
     3a0:	3c05b003 	lui	a1,0xb003
     3a4:	ac620000 	sw	v0,0(v1)
     3a8:	34a50070 	ori	a1,a1,0x70
     3ac:	8ca20000 	lw	v0,0(a1)
     3b0:	90840008 	lbu	a0,8(a0)
     3b4:	3c06b003 	lui	a2,0xb003
     3b8:	00021600 	sll	v0,v0,0x18
     3bc:	2c830003 	sltiu	v1,a0,3
     3c0:	34c60072 	ori	a2,a2,0x72
     3c4:	24070001 	li	a3,1
     3c8:	10600011 	beqz	v1,0x410
     3cc:	00022fc2 	srl	a1,v0,0x1f
     3d0:	90c20000 	lbu	v0,0(a2)
     3d4:	00001821 	move	v1,zero
     3d8:	00021600 	sll	v0,v0,0x18
     3dc:	10a70009 	beq	a1,a3,0x404
     3e0:	00021603 	sra	v0,v0,0x18
     3e4:	1480000c 	bnez	a0,0x418
     3e8:	30430003 	andi	v1,v0,0x3
     3ec:	83828b98 	lb	v0,-29800(gp)
     3f0:	00000000 	nop
     3f4:	00021080 	sll	v0,v0,0x2
     3f8:	00431021 	addu	v0,v0,v1
     3fc:	00021600 	sll	v0,v0,0x18
     400:	00021e03 	sra	v1,v0,0x18
     404:	3c02b003 	lui	v0,0xb003
     408:	34420072 	ori	v0,v0,0x72
     40c:	a0430000 	sb	v1,0(v0)
     410:	03e00008 	jr	ra
     414:	00000000 	nop
     418:	30450005 	andi	a1,v0,0x5
     41c:	10870004 	beq	a0,a3,0x430
     420:	30430006 	andi	v1,v0,0x6
     424:	93828bb0 	lbu	v0,-29776(gp)
     428:	0800011f 	j	0x47c
     42c:	00431021 	addu	v0,v0,v1
     430:	83828ba4 	lb	v0,-29788(gp)
     434:	00000000 	nop
     438:	00021040 	sll	v0,v0,0x1
     43c:	0800011f 	j	0x47c
     440:	00451021 	addu	v0,v0,a1
     444:	10800005 	beqz	a0,0x45c
     448:	00001821 	move	v1,zero
     44c:	24630001 	addiu	v1,v1,1
     450:	0064102b 	sltu	v0,v1,a0
     454:	1440fffd 	bnez	v0,0x44c
     458:	00000000 	nop
     45c:	03e00008 	jr	ra
     460:	00000000 	nop
     464:	3c03b003 	lui	v1,0xb003
     468:	3c028000 	lui	v0,0x8000
     46c:	244204e4 	addiu	v0,v0,1252
     470:	3c04b002 	lui	a0,0xb002
     474:	34630020 	ori	v1,v1,0x20
     478:	ac620000 	sw	v0,0(v1)
     47c:	34840008 	ori	a0,a0,0x8
     480:	24020001 	li	v0,1
     484:	af848bc0 	sw	a0,-29760(gp)
     488:	a3828bd0 	sb	v0,-29744(gp)
     48c:	a7808bc4 	sh	zero,-29756(gp)
     490:	a7808bc6 	sh	zero,-29754(gp)
     494:	af808bc8 	sw	zero,-29752(gp)
     498:	af808bcc 	sw	zero,-29748(gp)
     49c:	03e00008 	jr	ra
     4a0:	00000000 	nop
     4a4:	3c03b003 	lui	v1,0xb003
     4a8:	3c028000 	lui	v0,0x8000
     4ac:	34630020 	ori	v1,v1,0x20
     4b0:	24420524 	addiu	v0,v0,1316
     4b4:	3c04b003 	lui	a0,0xb003
     4b8:	ac620000 	sw	v0,0(v1)
     4bc:	348400ac 	ori	a0,a0,0xac
     4c0:	80a20015 	lb	v0,21(a1)
     4c4:	8c830000 	lw	v1,0(a0)
     4c8:	27bdfff0 	addiu	sp,sp,-16
     4cc:	00431021 	addu	v0,v0,v1
     4d0:	ac820000 	sw	v0,0(a0)
     4d4:	03e00008 	jr	ra
     4d8:	27bd0010 	addiu	sp,sp,16
     4dc:	3c02b003 	lui	v0,0xb003
     4e0:	3c038000 	lui	v1,0x8000
     4e4:	34420020 	ori	v0,v0,0x20
     4e8:	2463055c 	addiu	v1,v1,1372
     4ec:	27bdffe0 	addiu	sp,sp,-32
     4f0:	ac430000 	sw	v1,0(v0)
     4f4:	afb10014 	sw	s1,20(sp)
     4f8:	afb00010 	sw	s0,16(sp)
     4fc:	afbf0018 	sw	ra,24(sp)
     500:	8f908bc0 	lw	s0,-29760(gp)
     504:	0c000298 	jal	0xa60
     508:	00808821 	move	s1,a0
     50c:	1440002a 	bnez	v0,0x5b8
     510:	3c020080 	lui	v0,0x80
     514:	16200002 	bnez	s1,0x520
     518:	34420201 	ori	v0,v0,0x201
     51c:	24020201 	li	v0,513
     520:	ae020000 	sw	v0,0(s0)
     524:	97848bc4 	lhu	a0,-29756(gp)
     528:	97828bc6 	lhu	v0,-29754(gp)
     52c:	3c03b002 	lui	v1,0xb002
     530:	00832021 	addu	a0,a0,v1
     534:	24420004 	addiu	v0,v0,4
     538:	a7828bc6 	sh	v0,-29754(gp)
     53c:	a4820000 	sh	v0,0(a0)
     540:	8f848bc8 	lw	a0,-29752(gp)
     544:	8f828bc0 	lw	v0,-29760(gp)
     548:	93858b72 	lbu	a1,-29838(gp)
     54c:	24840001 	addiu	a0,a0,1
     550:	24420004 	addiu	v0,v0,4
     554:	24038fff 	li	v1,-28673
     558:	3c07b006 	lui	a3,0xb006
     55c:	3c06b003 	lui	a2,0xb003
     560:	00431024 	and	v0,v0,v1
     564:	0085282a 	slt	a1,a0,a1
     568:	34e78018 	ori	a3,a3,0x8018
     56c:	af828bc0 	sw	v0,-29760(gp)
     570:	af848bc8 	sw	a0,-29752(gp)
     574:	10a00008 	beqz	a1,0x598
     578:	34c60108 	ori	a2,a2,0x108
     57c:	8f838bcc 	lw	v1,-29748(gp)
     580:	8f848b8c 	lw	a0,-29812(gp)
     584:	8cc20000 	lw	v0,0(a2)
     588:	00641821 	addu	v1,v1,a0
     58c:	0043102b 	sltu	v0,v0,v1
     590:	14400009 	bnez	v0,0x5b8
     594:	00000000 	nop
     598:	8ce20000 	lw	v0,0(a3)
     59c:	3c030f00 	lui	v1,0xf00
     5a0:	3c040400 	lui	a0,0x400
     5a4:	00431024 	and	v0,v0,v1
     5a8:	10440003 	beq	v0,a0,0x5b8
     5ac:	00000000 	nop
     5b0:	0c000496 	jal	0x1258
     5b4:	00000000 	nop
     5b8:	8fbf0018 	lw	ra,24(sp)
     5bc:	7bb000bc 	.word	0x7bb000bc
     5c0:	03e00008 	jr	ra
     5c4:	27bd0020 	addiu	sp,sp,32
     5c8:	27bdffd8 	addiu	sp,sp,-40
     5cc:	3c02b003 	lui	v0,0xb003
     5d0:	3c038000 	lui	v1,0x8000
     5d4:	24630648 	addiu	v1,v1,1608
     5d8:	afb00010 	sw	s0,16(sp)
     5dc:	34420020 	ori	v0,v0,0x20
     5e0:	8f908bc0 	lw	s0,-29760(gp)
     5e4:	ac430000 	sw	v1,0(v0)
     5e8:	afb3001c 	sw	s3,28(sp)
     5ec:	afb20018 	sw	s2,24(sp)
     5f0:	afb10014 	sw	s1,20(sp)
     5f4:	afbf0020 	sw	ra,32(sp)
     5f8:	00808821 	move	s1,a0
     5fc:	00a09021 	move	s2,a1
     600:	0c000298 	jal	0xa60
     604:	00c09821 	move	s3,a2
     608:	24078fff 	li	a3,-28673
     60c:	14400019 	bnez	v0,0x674
     610:	26030004 	addiu	v1,s0,4
     614:	24020e03 	li	v0,3587
     618:	ae020000 	sw	v0,0(s0)
     61c:	00678024 	and	s0,v1,a3
     620:	26020004 	addiu	v0,s0,4
     624:	ae110000 	sw	s1,0(s0)
     628:	00478024 	and	s0,v0,a3
     62c:	97868bc4 	lhu	a2,-29756(gp)
     630:	26030004 	addiu	v1,s0,4
     634:	ae120000 	sw	s2,0(s0)
     638:	00678024 	and	s0,v1,a3
     63c:	ae130000 	sw	s3,0(s0)
     640:	8f848bc0 	lw	a0,-29760(gp)
     644:	3c02b002 	lui	v0,0xb002
     648:	97858bc6 	lhu	a1,-29754(gp)
     64c:	00c23021 	addu	a2,a2,v0
     650:	8f828bc8 	lw	v0,-29752(gp)
     654:	24840010 	addiu	a0,a0,16
     658:	24a50010 	addiu	a1,a1,16
     65c:	00872024 	and	a0,a0,a3
     660:	24420001 	addiu	v0,v0,1
     664:	a7858bc6 	sh	a1,-29754(gp)
     668:	af848bc0 	sw	a0,-29760(gp)
     66c:	af828bc8 	sw	v0,-29752(gp)
     670:	a4c50000 	sh	a1,0(a2)
     674:	8fbf0020 	lw	ra,32(sp)
     678:	7bb200fc 	.word	0x7bb200fc
     67c:	7bb000bc 	.word	0x7bb000bc
     680:	03e00008 	jr	ra
     684:	27bd0028 	addiu	sp,sp,40
     688:	27bdffe8 	addiu	sp,sp,-24
     68c:	afbf0010 	sw	ra,16(sp)
     690:	94820004 	lhu	v0,4(a0)
     694:	00000000 	nop
     698:	3042e000 	andi	v0,v0,0xe000
     69c:	14400014 	bnez	v0,0x6f0
     6a0:	00000000 	nop
     6a4:	90820002 	lbu	v0,2(a0)
     6a8:	00000000 	nop
     6ac:	304200fc 	andi	v0,v0,0xfc
     6b0:	00822821 	addu	a1,a0,v0
     6b4:	8ca40000 	lw	a0,0(a1)
     6b8:	3c020070 	lui	v0,0x70
     6bc:	8ca60008 	lw	a2,8(a1)
     6c0:	00821021 	addu	v0,a0,v0
     6c4:	2c430006 	sltiu	v1,v0,6
     6c8:	10600009 	beqz	v1,0x6f0
     6cc:	3c038001 	lui	v1,0x8001
     6d0:	00021080 	sll	v0,v0,0x2
     6d4:	246301e8 	addiu	v1,v1,488
     6d8:	00431021 	addu	v0,v0,v1
     6dc:	8c440000 	lw	a0,0(v0)
     6e0:	00000000 	nop
     6e4:	00800008 	jr	a0
     6e8:	00000000 	nop
     6ec:	af868014 	sw	a2,-32748(gp)
     6f0:	8fbf0010 	lw	ra,16(sp)
     6f4:	00000000 	nop
     6f8:	03e00008 	jr	ra
     6fc:	27bd0018 	addiu	sp,sp,24
     700:	8ca40000 	lw	a0,0(a1)
     704:	0c001784 	jal	0x5e10
     708:	00000000 	nop
     70c:	080001dc 	j	0x770
     710:	00000000 	nop
     714:	0c002449 	jal	0x9124
     718:	00c02021 	move	a0,a2
     71c:	080001dc 	j	0x770
     720:	00000000 	nop
     724:	3c02b003 	lui	v0,0xb003
     728:	34420108 	ori	v0,v0,0x108
     72c:	8c440000 	lw	a0,0(v0)
     730:	8f828018 	lw	v0,-32744(gp)
     734:	3c03000f 	lui	v1,0xf
     738:	34634240 	ori	v1,v1,0x4240
     73c:	00431021 	addu	v0,v0,v1
     740:	0082202b 	sltu	a0,a0,v0
     744:	10800009 	beqz	a0,0x76c
     748:	24030005 	li	v1,5
     74c:	8f828360 	lw	v0,-31904(gp)
     750:	00000000 	nop
     754:	24420001 	addiu	v0,v0,1
     758:	af828360 	sw	v0,-31904(gp)
     75c:	10430003 	beq	v0,v1,0x76c
     760:	00000000 	nop
     764:	03e00008 	jr	ra
     768:	00000000 	nop
     76c:	3c03b003 	lui	v1,0xb003
     770:	8c630108 	lw	v1,264(v1)
     774:	24020001 	li	v0,1
     778:	a3828011 	sb	v0,-32751(gp)
     77c:	af808360 	sw	zero,-31904(gp)
     780:	af838018 	sw	v1,-32744(gp)
     784:	080001f9 	j	0x7e4
     788:	00000000 	nop
     78c:	308400ff 	andi	a0,a0,0xff
     790:	1480002f 	bnez	a0,0x850
     794:	00000000 	nop
     798:	8f828014 	lw	v0,-32748(gp)
     79c:	a3858393 	sb	a1,-31853(gp)
     7a0:	1040002b 	beqz	v0,0x850
     7a4:	2ca20004 	sltiu	v0,a1,4
     7a8:	14400006 	bnez	v0,0x7c4
     7ac:	00051040 	sll	v0,a1,0x1
     7b0:	24a2fffc 	addiu	v0,a1,-4
     7b4:	2c420008 	sltiu	v0,v0,8
     7b8:	10400009 	beqz	v0,0x7e0
     7bc:	24a2fff0 	addiu	v0,a1,-16
     7c0:	00051040 	sll	v0,a1,0x1
     7c4:	2784839c 	addiu	a0,gp,-31844
     7c8:	00441021 	addu	v0,v0,a0
     7cc:	94430000 	lhu	v1,0(v0)
     7d0:	00000000 	nop
     7d4:	24630001 	addiu	v1,v1,1
     7d8:	03e00008 	jr	ra
     7dc:	a4430000 	sh	v1,0(v0)
     7e0:	2c420010 	sltiu	v0,v0,16
     7e4:	1440000a 	bnez	v0,0x810
     7e8:	00051040 	sll	v0,a1,0x1
     7ec:	24a2ffe0 	addiu	v0,a1,-32
     7f0:	2c420010 	sltiu	v0,v0,16
     7f4:	14400006 	bnez	v0,0x810
     7f8:	00051040 	sll	v0,a1,0x1
     7fc:	24a2ffd0 	addiu	v0,a1,-48
     800:	2c420010 	sltiu	v0,v0,16
     804:	10400009 	beqz	v0,0x82c
     808:	24a2ffc0 	addiu	v0,a1,-64
     80c:	00051040 	sll	v0,a1,0x1
     810:	2784839c 	addiu	a0,gp,-31844
     814:	00441021 	addu	v0,v0,a0
     818:	9443fff8 	lhu	v1,-8(v0)
     81c:	00000000 	nop
     820:	24630001 	addiu	v1,v1,1
     824:	03e00008 	jr	ra
     828:	a443fff8 	sh	v1,-8(v0)
     82c:	2c420010 	sltiu	v0,v0,16
     830:	10400007 	beqz	v0,0x850
     834:	00051040 	sll	v0,a1,0x1
     838:	2784839c 	addiu	a0,gp,-31844
     83c:	00441021 	addu	v0,v0,a0
     840:	9443fff8 	lhu	v1,-8(v0)
     844:	00000000 	nop
     848:	24630001 	addiu	v1,v1,1
     84c:	a443fff8 	sh	v1,-8(v0)
     850:	03e00008 	jr	ra
     854:	00000000 	nop
     858:	8f868bc0 	lw	a2,-29760(gp)
     85c:	8f828014 	lw	v0,-32748(gp)
     860:	27bdffe8 	addiu	sp,sp,-24
     864:	afbf0010 	sw	ra,16(sp)
     868:	1040002a 	beqz	v0,0x914
     86c:	00c03821 	move	a3,a2
     870:	24020007 	li	v0,7
     874:	2403ff9c 	li	v1,-100
     878:	a382839b 	sb	v0,-31845(gp)
     87c:	a383839a 	sb	v1,-31846(gp)
     880:	278a8398 	addiu	t2,gp,-31848
     884:	00002021 	move	a0,zero
     888:	24098fff 	li	t1,-28673
     88c:	00041080 	sll	v0,a0,0x2
     890:	004a2821 	addu	a1,v0,t2
     894:	8ca20000 	lw	v0,0(a1)
     898:	24e30004 	addiu	v1,a3,4
     89c:	24880001 	addiu	t0,a0,1
     8a0:	ace20000 	sw	v0,0(a3)
     8a4:	10800002 	beqz	a0,0x8b0
     8a8:	00693824 	and	a3,v1,t1
     8ac:	aca00000 	sw	zero,0(a1)
     8b0:	310400ff 	andi	a0,t0,0xff
     8b4:	2c820027 	sltiu	v0,a0,39
     8b8:	1440fff5 	bnez	v0,0x890
     8bc:	00041080 	sll	v0,a0,0x2
     8c0:	97838bc6 	lhu	v1,-29754(gp)
     8c4:	97858bc4 	lhu	a1,-29756(gp)
     8c8:	3c02b002 	lui	v0,0xb002
     8cc:	2463009c 	addiu	v1,v1,156
     8d0:	00a22821 	addu	a1,a1,v0
     8d4:	3c04b006 	lui	a0,0xb006
     8d8:	a7838bc6 	sh	v1,-29754(gp)
     8dc:	34848018 	ori	a0,a0,0x8018
     8e0:	a4a30000 	sh	v1,0(a1)
     8e4:	8c850000 	lw	a1,0(a0)
     8e8:	24028fff 	li	v0,-28673
     8ec:	24c6009c 	addiu	a2,a2,156
     8f0:	3c030f00 	lui	v1,0xf00
     8f4:	00c23024 	and	a2,a2,v0
     8f8:	00a32824 	and	a1,a1,v1
     8fc:	3c020400 	lui	v0,0x400
     900:	af868bc0 	sw	a2,-29760(gp)
     904:	10a20003 	beq	a1,v0,0x914
     908:	00000000 	nop
     90c:	0c000496 	jal	0x1258
     910:	00000000 	nop
     914:	8fbf0010 	lw	ra,16(sp)
     918:	00000000 	nop
     91c:	03e00008 	jr	ra
     920:	27bd0018 	addiu	sp,sp,24
     924:	8f868bc0 	lw	a2,-29760(gp)
     928:	27bdffc8 	addiu	sp,sp,-56
     92c:	24020008 	li	v0,8
     930:	24030020 	li	v1,32
     934:	afbf0030 	sw	ra,48(sp)
     938:	a3a20013 	sb	v0,19(sp)
     93c:	a3a30012 	sb	v1,18(sp)
     940:	a7a40010 	sh	a0,16(sp)
     944:	00c02821 	move	a1,a2
     948:	27a90010 	addiu	t1,sp,16
     94c:	00003821 	move	a3,zero
     950:	24088fff 	li	t0,-28673
     954:	00071080 	sll	v0,a3,0x2
     958:	00491021 	addu	v0,v0,t1
     95c:	8c440000 	lw	a0,0(v0)
     960:	24e30001 	addiu	v1,a3,1
     964:	306700ff 	andi	a3,v1,0xff
     968:	24a20004 	addiu	v0,a1,4
     96c:	2ce30008 	sltiu	v1,a3,8
     970:	aca40000 	sw	a0,0(a1)
     974:	1460fff7 	bnez	v1,0x954
     978:	00482824 	and	a1,v0,t0
     97c:	97838bc6 	lhu	v1,-29754(gp)
     980:	97858bc4 	lhu	a1,-29756(gp)
     984:	3c02b002 	lui	v0,0xb002
     988:	24630020 	addiu	v1,v1,32
     98c:	00a22821 	addu	a1,a1,v0
     990:	3c04b006 	lui	a0,0xb006
     994:	a7838bc6 	sh	v1,-29754(gp)
     998:	34848018 	ori	a0,a0,0x8018
     99c:	a4a30000 	sh	v1,0(a1)
     9a0:	8c850000 	lw	a1,0(a0)
     9a4:	24028fff 	li	v0,-28673
     9a8:	24c60020 	addiu	a2,a2,32
     9ac:	3c030f00 	lui	v1,0xf00
     9b0:	00c23024 	and	a2,a2,v0
     9b4:	00a32824 	and	a1,a1,v1
     9b8:	3c020400 	lui	v0,0x400
     9bc:	af868bc0 	sw	a2,-29760(gp)
     9c0:	10a20003 	beq	a1,v0,0x9d0
     9c4:	00000000 	nop
     9c8:	0c000496 	jal	0x1258
     9cc:	00000000 	nop
     9d0:	8fbf0030 	lw	ra,48(sp)
     9d4:	00000000 	nop
     9d8:	03e00008 	jr	ra
     9dc:	27bd0038 	addiu	sp,sp,56
     9e0:	93828bd0 	lbu	v0,-29744(gp)
     9e4:	00000000 	nop
     9e8:	10400011 	beqz	v0,0xa30
     9ec:	24060001 	li	a2,1
     9f0:	8f828bc8 	lw	v0,-29752(gp)
     9f4:	3c05b006 	lui	a1,0xb006
     9f8:	3c04b003 	lui	a0,0xb003
     9fc:	34a58018 	ori	a1,a1,0x8018
     a00:	34840108 	ori	a0,a0,0x108
     a04:	14400009 	bnez	v0,0xa2c
     a08:	00003021 	move	a2,zero
     a0c:	97828bc4 	lhu	v0,-29756(gp)
     a10:	8c840000 	lw	a0,0(a0)
     a14:	3c03b002 	lui	v1,0xb002
     a18:	00431021 	addu	v0,v0,v1
     a1c:	af848bcc 	sw	a0,-29748(gp)
     a20:	a7808bc6 	sh	zero,-29754(gp)
     a24:	ac400000 	sw	zero,0(v0)
     a28:	ac400004 	sw	zero,4(v0)
     a2c:	8ca20000 	lw	v0,0(a1)
     a30:	03e00008 	jr	ra
     a34:	00c01021 	move	v0,a2
     a38:	8f868bc0 	lw	a2,-29760(gp)
     a3c:	8f828bc8 	lw	v0,-29752(gp)
     a40:	27bdffe8 	addiu	sp,sp,-24
     a44:	afbf0010 	sw	ra,16(sp)
     a48:	00c04021 	move	t0,a2
     a4c:	1440000a 	bnez	v0,0xa78
     a50:	00405021 	move	t2,v0
     a54:	00003821 	move	a3,zero
     a58:	27898368 	addiu	t1,gp,-31896
     a5c:	24e20001 	addiu	v0,a3,1
     a60:	00071880 	sll	v1,a3,0x2
     a64:	304700ff 	andi	a3,v0,0xff
     a68:	00691821 	addu	v1,v1,t1
     a6c:	2ce2000a 	sltiu	v0,a3,10
     a70:	1440fffa 	bnez	v0,0xa5c
     a74:	ac600000 	sw	zero,0(v1)
     a78:	3c020080 	lui	v0,0x80
     a7c:	1082006f 	beq	a0,v0,0xc3c
     a80:	00000000 	nop
     a84:	9782836e 	lhu	v0,-31890(gp)
     a88:	00000000 	nop
     a8c:	24420001 	addiu	v0,v0,1
     a90:	a782836e 	sh	v0,-31890(gp)
     a94:	90a30015 	lbu	v1,21(a1)
     a98:	97828370 	lhu	v0,-31888(gp)
     a9c:	00031e00 	sll	v1,v1,0x18
     aa0:	00031e03 	sra	v1,v1,0x18
     aa4:	00431021 	addu	v0,v0,v1
     aa8:	a7828370 	sh	v0,-31888(gp)
     aac:	8ca40020 	lw	a0,32(a1)
     ab0:	3c020060 	lui	v0,0x60
     ab4:	3c030020 	lui	v1,0x20
     ab8:	00822024 	and	a0,a0,v0
     abc:	10830054 	beq	a0,v1,0xc10
     ac0:	00000000 	nop
     ac4:	14800047 	bnez	a0,0xbe4
     ac8:	00000000 	nop
     acc:	97828374 	lhu	v0,-31884(gp)
     ad0:	00000000 	nop
     ad4:	24420001 	addiu	v0,v0,1
     ad8:	a7828374 	sh	v0,-31884(gp)
     adc:	84a30006 	lh	v1,6(a1)
     ae0:	8f828384 	lw	v0,-31868(gp)
     ae4:	00000000 	nop
     ae8:	00431021 	addu	v0,v0,v1
     aec:	af828384 	sw	v0,-31868(gp)
     af0:	25420001 	addiu	v0,t2,1
     af4:	28432710 	slti	v1,v0,10000
     af8:	af828bc8 	sw	v0,-29752(gp)
     afc:	10600009 	beqz	v1,0xb24
     b00:	24020004 	li	v0,4
     b04:	93838011 	lbu	v1,-32751(gp)
     b08:	24020001 	li	v0,1
     b0c:	10620005 	beq	v1,v0,0xb24
     b10:	24020004 	li	v0,4
     b14:	8fbf0010 	lw	ra,16(sp)
     b18:	00000000 	nop
     b1c:	03e00008 	jr	ra
     b20:	27bd0018 	addiu	sp,sp,24
     b24:	24030028 	li	v1,40
     b28:	a383836a 	sb	v1,-31894(gp)
     b2c:	a382836b 	sb	v0,-31893(gp)
     b30:	90a20018 	lbu	v0,24(a1)
     b34:	93838393 	lbu	v1,-31853(gp)
     b38:	00003821 	move	a3,zero
     b3c:	00021600 	sll	v0,v0,0x18
     b40:	00021603 	sra	v0,v0,0x18
     b44:	a782837e 	sh	v0,-31874(gp)
     b48:	a383838c 	sb	v1,-31860(gp)
     b4c:	27898368 	addiu	t1,gp,-31896
     b50:	24058fff 	li	a1,-28673
     b54:	00071080 	sll	v0,a3,0x2
     b58:	00491021 	addu	v0,v0,t1
     b5c:	8c440000 	lw	a0,0(v0)
     b60:	24e30001 	addiu	v1,a3,1
     b64:	306700ff 	andi	a3,v1,0xff
     b68:	25020004 	addiu	v0,t0,4
     b6c:	2ce3000a 	sltiu	v1,a3,10
     b70:	ad040000 	sw	a0,0(t0)
     b74:	1460fff7 	bnez	v1,0xb54
     b78:	00454024 	and	t0,v0,a1
     b7c:	97838bc6 	lhu	v1,-29754(gp)
     b80:	97858bc4 	lhu	a1,-29756(gp)
     b84:	3c02b002 	lui	v0,0xb002
     b88:	24630028 	addiu	v1,v1,40
     b8c:	00a22821 	addu	a1,a1,v0
     b90:	3c04b006 	lui	a0,0xb006
     b94:	a7838bc6 	sh	v1,-29754(gp)
     b98:	34848018 	ori	a0,a0,0x8018
     b9c:	a4a30000 	sh	v1,0(a1)
     ba0:	8c850000 	lw	a1,0(a0)
     ba4:	24028fff 	li	v0,-28673
     ba8:	24c60028 	addiu	a2,a2,40
     bac:	3c030f00 	lui	v1,0xf00
     bb0:	00c23024 	and	a2,a2,v0
     bb4:	00a32824 	and	a1,a1,v1
     bb8:	3c020400 	lui	v0,0x400
     bbc:	af868bc0 	sw	a2,-29760(gp)
     bc0:	10a20003 	beq	a1,v0,0xbd0
     bc4:	00000000 	nop
     bc8:	0c000496 	jal	0x1258
     bcc:	00000000 	nop
     bd0:	0c000236 	jal	0x8d8
     bd4:	00000000 	nop
     bd8:	a3808011 	sb	zero,-32751(gp)
     bdc:	080002e5 	j	0xb94
     be0:	00000000 	nop
     be4:	97828376 	lhu	v0,-31882(gp)
     be8:	00000000 	nop
     bec:	24420001 	addiu	v0,v0,1
     bf0:	a7828376 	sh	v0,-31882(gp)
     bf4:	84a30006 	lh	v1,6(a1)
     bf8:	8f828388 	lw	v0,-31864(gp)
     bfc:	00000000 	nop
     c00:	00431021 	addu	v0,v0,v1
     c04:	af828388 	sw	v0,-31864(gp)
     c08:	080002dd 	j	0xb74
     c0c:	25420001 	addiu	v0,t2,1
     c10:	97828372 	lhu	v0,-31886(gp)
     c14:	00000000 	nop
     c18:	24420001 	addiu	v0,v0,1
     c1c:	a7828372 	sh	v0,-31886(gp)
     c20:	84a30006 	lh	v1,6(a1)
     c24:	8f828380 	lw	v0,-31872(gp)
     c28:	00000000 	nop
     c2c:	00431021 	addu	v0,v0,v1
     c30:	af828380 	sw	v0,-31872(gp)
     c34:	080002dd 	j	0xb74
     c38:	25420001 	addiu	v0,t2,1
     c3c:	9782836c 	lhu	v0,-31892(gp)
     c40:	00000000 	nop
     c44:	24420001 	addiu	v0,v0,1
     c48:	a782836c 	sh	v0,-31892(gp)
     c4c:	080002c5 	j	0xb14
     c50:	00000000 	nop
     c54:	27bdffd0 	addiu	sp,sp,-48
     c58:	afbf0028 	sw	ra,40(sp)
     c5c:	8ca30020 	lw	v1,32(a1)
     c60:	8f8a8bc0 	lw	t2,-29760(gp)
     c64:	3c020010 	lui	v0,0x10
     c68:	00621024 	and	v0,v1,v0
     c6c:	00a03821 	move	a3,a1
     c70:	01404821 	move	t1,t2
     c74:	1040003d 	beqz	v0,0xd6c
     c78:	00802821 	move	a1,a0
     c7c:	8ce4001c 	lw	a0,28(a3)
     c80:	34a51206 	ori	a1,a1,0x1206
     c84:	afa50010 	sw	a1,16(sp)
     c88:	8c820008 	lw	v0,8(a0)
     c8c:	00031c42 	srl	v1,v1,0x11
     c90:	30630030 	andi	v1,v1,0x30
     c94:	00021302 	srl	v0,v0,0xc
     c98:	30420040 	andi	v0,v0,0x40
     c9c:	00431025 	or	v0,v0,v1
     ca0:	90e60010 	lbu	a2,16(a3)
     ca4:	90e40013 	lbu	a0,19(a3)
     ca8:	94e8000c 	lhu	t0,12(a3)
     cac:	94e3001a 	lhu	v1,26(a3)
     cb0:	00021600 	sll	v0,v0,0x18
     cb4:	90e70012 	lbu	a3,18(a3)
     cb8:	00a22825 	or	a1,a1,v0
     cbc:	24021234 	li	v0,4660
     cc0:	a7a2001c 	sh	v0,28(sp)
     cc4:	24025678 	li	v0,22136
     cc8:	afa50010 	sw	a1,16(sp)
     ccc:	a3a60018 	sb	a2,24(sp)
     cd0:	a3a7001f 	sb	a3,31(sp)
     cd4:	a7a3001a 	sh	v1,26(sp)
     cd8:	a3a40019 	sb	a0,25(sp)
     cdc:	a7a80020 	sh	t0,32(sp)
     ce0:	a7a20022 	sh	v0,34(sp)
     ce4:	00002821 	move	a1,zero
     ce8:	27a70010 	addiu	a3,sp,16
     cec:	24068fff 	li	a2,-28673
     cf0:	00051080 	sll	v0,a1,0x2
     cf4:	00471021 	addu	v0,v0,a3
     cf8:	8c440000 	lw	a0,0(v0)
     cfc:	24a30001 	addiu	v1,a1,1
     d00:	306500ff 	andi	a1,v1,0xff
     d04:	25220004 	addiu	v0,t1,4
     d08:	2ca30005 	sltiu	v1,a1,5
     d0c:	ad240000 	sw	a0,0(t1)
     d10:	1460fff7 	bnez	v1,0xcf0
     d14:	00464824 	and	t1,v0,a2
     d18:	97838bc6 	lhu	v1,-29754(gp)
     d1c:	97858bc4 	lhu	a1,-29756(gp)
     d20:	3c02b002 	lui	v0,0xb002
     d24:	24630014 	addiu	v1,v1,20
     d28:	00a22821 	addu	a1,a1,v0
     d2c:	3c04b006 	lui	a0,0xb006
     d30:	a7838bc6 	sh	v1,-29754(gp)
     d34:	34848018 	ori	a0,a0,0x8018
     d38:	a4a30000 	sh	v1,0(a1)
     d3c:	8c850000 	lw	a1,0(a0)
     d40:	24028fff 	li	v0,-28673
     d44:	25460014 	addiu	a2,t2,20
     d48:	3c030f00 	lui	v1,0xf00
     d4c:	00c25024 	and	t2,a2,v0
     d50:	00a32824 	and	a1,a1,v1
     d54:	3c020400 	lui	v0,0x400
     d58:	af8a8bc0 	sw	t2,-29760(gp)
     d5c:	10a20003 	beq	a1,v0,0xd6c
     d60:	00000000 	nop
     d64:	0c000496 	jal	0x1258
     d68:	00000000 	nop
     d6c:	8fbf0028 	lw	ra,40(sp)
     d70:	00000000 	nop
     d74:	03e00008 	jr	ra
     d78:	27bd0030 	addiu	sp,sp,48
     d7c:	3c05b003 	lui	a1,0xb003
     d80:	3c028000 	lui	v0,0x8000
     d84:	27bdffc8 	addiu	sp,sp,-56
     d88:	00042200 	sll	a0,a0,0x8
     d8c:	34a50020 	ori	a1,a1,0x20
     d90:	24420dfc 	addiu	v0,v0,3580
     d94:	3c03b000 	lui	v1,0xb000
     d98:	afb50024 	sw	s5,36(sp)
     d9c:	afb40020 	sw	s4,32(sp)
     da0:	afb20018 	sw	s2,24(sp)
     da4:	afb00010 	sw	s0,16(sp)
     da8:	afbf0030 	sw	ra,48(sp)
     dac:	00838021 	addu	s0,a0,v1
     db0:	afb7002c 	sw	s7,44(sp)
     db4:	afb60028 	sw	s6,40(sp)
     db8:	afb3001c 	sw	s3,28(sp)
     dbc:	afb10014 	sw	s1,20(sp)
     dc0:	aca20000 	sw	v0,0(a1)
     dc4:	8e090000 	lw	t1,0(s0)
     dc8:	00009021 	move	s2,zero
     dcc:	26100008 	addiu	s0,s0,8
     dd0:	0009a602 	srl	s4,t1,0x18
     dd4:	12800013 	beqz	s4,0xe24
     dd8:	0000a821 	move	s5,zero
     ddc:	24130002 	li	s3,2
     de0:	3c1600ff 	lui	s6,0xff
     de4:	3c17ff00 	lui	s7,0xff00
     de8:	8e090000 	lw	t1,0(s0)
     dec:	00000000 	nop
     df0:	00091202 	srl	v0,t1,0x8
     df4:	24420002 	addiu	v0,v0,2
     df8:	312500ff 	andi	a1,t1,0xff
     dfc:	10b30076 	beq	a1,s3,0xfd8
     e00:	305100ff 	andi	s1,v0,0xff
     e04:	24020003 	li	v0,3
     e08:	10a20018 	beq	a1,v0,0xe6c
     e0c:	00000000 	nop
     e10:	02511021 	addu	v0,s2,s1
     e14:	3052ffff 	andi	s2,v0,0xffff
     e18:	0254182b 	sltu	v1,s2,s4
     e1c:	1460fff2 	bnez	v1,0xde8
     e20:	02118021 	addu	s0,s0,s1
     e24:	12a0000a 	beqz	s5,0xe50
     e28:	3c02b006 	lui	v0,0xb006
     e2c:	34428018 	ori	v0,v0,0x8018
     e30:	8c430000 	lw	v1,0(v0)
     e34:	3c040f00 	lui	a0,0xf00
     e38:	3c020400 	lui	v0,0x400
     e3c:	00641824 	and	v1,v1,a0
     e40:	10620003 	beq	v1,v0,0xe50
     e44:	00000000 	nop
     e48:	0c000496 	jal	0x1258
     e4c:	00000000 	nop
     e50:	8fbf0030 	lw	ra,48(sp)
     e54:	7bb6017c 	.word	0x7bb6017c
     e58:	7bb4013c 	.word	0x7bb4013c
     e5c:	7bb200fc 	.word	0x7bb200fc
     e60:	7bb000bc 	.word	0x7bb000bc
     e64:	03e00008 	jr	ra
     e68:	27bd0038 	addiu	sp,sp,56
     e6c:	8e090004 	lw	t1,4(s0)
     e70:	24150001 	li	s5,1
     e74:	8e06000c 	lw	a2,12(s0)
     e78:	00091142 	srl	v0,t1,0x5
     e7c:	000918c2 	srl	v1,t1,0x3
     e80:	30480003 	andi	t0,v0,0x3
     e84:	00091402 	srl	v0,t1,0x10
     e88:	306c0003 	andi	t4,v1,0x3
     e8c:	00092602 	srl	a0,t1,0x18
     e90:	11150045 	beq	t0,s5,0xfa8
     e94:	3043000f 	andi	v1,v0,0xf
     e98:	29020002 	slti	v0,t0,2
     e9c:	14400026 	bnez	v0,0xf38
     ea0:	00000000 	nop
     ea4:	1113000f 	beq	t0,s3,0xee4
     ea8:	00003821 	move	a3,zero
     eac:	00072202 	srl	a0,a3,0x8
     eb0:	3084ff00 	andi	a0,a0,0xff00
     eb4:	3c0300ff 	lui	v1,0xff
     eb8:	00072e02 	srl	a1,a3,0x18
     ebc:	00071200 	sll	v0,a3,0x8
     ec0:	00431024 	and	v0,v0,v1
     ec4:	00a42825 	or	a1,a1,a0
     ec8:	00a22825 	or	a1,a1,v0
     ecc:	00071e00 	sll	v1,a3,0x18
     ed0:	00a32825 	or	a1,a1,v1
     ed4:	0c000192 	jal	0x648
     ed8:	01202021 	move	a0,t1
     edc:	080003a5 	j	0xe94
     ee0:	02511021 	addu	v0,s2,s1
     ee4:	1195000f 	beq	t4,s5,0xf24
     ee8:	00000000 	nop
     eec:	11880007 	beq	t4,t0,0xf0c
     ef0:	00000000 	nop
     ef4:	00041080 	sll	v0,a0,0x2
     ef8:	27838b70 	addiu	v1,gp,-29840
     efc:	00431021 	addu	v0,v0,v1
     f00:	8c470018 	lw	a3,24(v0)
     f04:	080003cc 	j	0xf30
     f08:	00072202 	srl	a0,a3,0x8
     f0c:	00041040 	sll	v0,a0,0x1
     f10:	27838b78 	addiu	v1,gp,-29832
     f14:	00431021 	addu	v0,v0,v1
     f18:	94470002 	lhu	a3,2(v0)
     f1c:	080003cc 	j	0xf30
     f20:	00072202 	srl	a0,a3,0x8
     f24:	27828b70 	addiu	v0,gp,-29840
     f28:	00821021 	addu	v0,a0,v0
     f2c:	90470000 	lbu	a3,0(v0)
     f30:	080003cc 	j	0xf30
     f34:	00072202 	srl	a0,a3,0x8
     f38:	1500ffdc 	bnez	t0,0xeac
     f3c:	00003821 	move	a3,zero
     f40:	10750005 	beq	v1,s5,0xf58
     f44:	00803821 	move	a3,a0
     f48:	00651826 	xor	v1,v1,a1
     f4c:	24820100 	addiu	v0,a0,256
     f50:	00003821 	move	a3,zero
     f54:	0043380a 	.word	0x43380a
     f58:	24020001 	li	v0,1
     f5c:	1182000e 	beq	t4,v0,0xf98
     f60:	3c02b003 	lui	v0,0xb003
     f64:	24020002 	li	v0,2
     f68:	11820006 	beq	t4,v0,0xf84
     f6c:	00000000 	nop
     f70:	3c02b003 	lui	v0,0xb003
     f74:	00e21021 	addu	v0,a3,v0
     f78:	8c470000 	lw	a3,0(v0)
     f7c:	080003cc 	j	0xf30
     f80:	00072202 	srl	a0,a3,0x8
     f84:	3c02b003 	lui	v0,0xb003
     f88:	00e21021 	addu	v0,a3,v0
     f8c:	94430000 	lhu	v1,0(v0)
     f90:	080003cb 	j	0xf2c
     f94:	3067ffff 	andi	a3,v1,0xffff
     f98:	00e21021 	addu	v0,a3,v0
     f9c:	90430000 	lbu	v1,0(v0)
     fa0:	080003cb 	j	0xf2c
     fa4:	306700ff 	andi	a3,v1,0xff
     fa8:	30620003 	andi	v0,v1,0x3
     fac:	00021200 	sll	v0,v0,0x8
     fb0:	11950007 	beq	t4,s5,0xfd0
     fb4:	00443821 	addu	a3,v0,a0
     fb8:	11930003 	beq	t4,s3,0xfc8
     fbc:	00000000 	nop
     fc0:	080003fd 	j	0xff4
     fc4:	3c02b00a 	lui	v0,0xb00a
     fc8:	08000402 	j	0x1008
     fcc:	3c02b00a 	lui	v0,0xb00a
     fd0:	08000406 	j	0x1018
     fd4:	3c02b00a 	lui	v0,0xb00a
     fd8:	8e090004 	lw	t1,4(s0)
     fdc:	8e020008 	lw	v0,8(s0)
     fe0:	8e03000c 	lw	v1,12(s0)
     fe4:	00094142 	srl	t0,t1,0x5
     fe8:	00022202 	srl	a0,v0,0x8
     fec:	00033a02 	srl	a3,v1,0x8
     ff0:	3084ff00 	andi	a0,a0,0xff00
     ff4:	30e7ff00 	andi	a3,a3,0xff00
     ff8:	00025e02 	srl	t3,v0,0x18
     ffc:	00023200 	sll	a2,v0,0x8
    1000:	00035602 	srl	t2,v1,0x18
    1004:	00032a00 	sll	a1,v1,0x8
    1008:	01645825 	or	t3,t3,a0
    100c:	00d63024 	and	a2,a2,s6
    1010:	01475025 	or	t2,t2,a3
    1014:	00021600 	sll	v0,v0,0x18
    1018:	00b62824 	and	a1,a1,s6
    101c:	00031e00 	sll	v1,v1,0x18
    1020:	01665825 	or	t3,t3,a2
    1024:	01455025 	or	t2,t2,a1
    1028:	00571024 	and	v0,v0,s7
    102c:	00771824 	and	v1,v1,s7
    1030:	01623825 	or	a3,t3,v0
    1034:	01433025 	or	a2,t2,v1
    1038:	000910c2 	srl	v0,t1,0x3
    103c:	00091c02 	srl	v1,t1,0x10
    1040:	31080003 	andi	t0,t0,0x3
    1044:	304c0003 	andi	t4,v0,0x3
    1048:	3063000f 	andi	v1,v1,0xf
    104c:	00092602 	srl	a0,t1,0x18
    1050:	00e05821 	move	t3,a3
    1054:	15000028 	bnez	t0,0x10f8
    1058:	00c05021 	move	t2,a2
    105c:	24020001 	li	v0,1
    1060:	10620006 	beq	v1,v0,0x107c
    1064:	00802821 	move	a1,a0
    1068:	24020003 	li	v0,3
    106c:	1462ff69 	bne	v1,v0,0xe14
    1070:	02511021 	addu	v0,s2,s1
    1074:	24850100 	addiu	a1,a0,256
    1078:	24020001 	li	v0,1
    107c:	11820015 	beq	t4,v0,0x10d4
    1080:	24020002 	li	v0,2
    1084:	1182000a 	beq	t4,v0,0x10b0
    1088:	3c03b003 	lui	v1,0xb003
    108c:	00a31821 	addu	v1,a1,v1
    1090:	8c620000 	lw	v0,0(v1)
    1094:	000a2027 	nor	a0,zero,t2
    1098:	016a2824 	and	a1,t3,t2
    109c:	00441024 	and	v0,v0,a0
    10a0:	00451025 	or	v0,v0,a1
    10a4:	ac620000 	sw	v0,0(v1)
    10a8:	080003a5 	j	0xe94
    10ac:	02511021 	addu	v0,s2,s1
    10b0:	00a31821 	addu	v1,a1,v1
    10b4:	94620000 	lhu	v0,0(v1)
    10b8:	000a2027 	nor	a0,zero,t2
    10bc:	016a2824 	and	a1,t3,t2
    10c0:	00441024 	and	v0,v0,a0
    10c4:	00451025 	or	v0,v0,a1
    10c8:	a4620000 	sh	v0,0(v1)
    10cc:	080003a5 	j	0xe94
    10d0:	02511021 	addu	v0,s2,s1
    10d4:	3c03b003 	lui	v1,0xb003
    10d8:	00a31821 	addu	v1,a1,v1
    10dc:	90620000 	lbu	v0,0(v1)
    10e0:	000a2027 	nor	a0,zero,t2
    10e4:	016a2824 	and	a1,t3,t2
    10e8:	00441024 	and	v0,v0,a0
    10ec:	00451025 	or	v0,v0,a1
    10f0:	080003a4 	j	0xe90
    10f4:	a0620000 	sb	v0,0(v1)
    10f8:	24020001 	li	v0,1
    10fc:	11020021 	beq	t0,v0,0x1184
    1100:	00000000 	nop
    1104:	1513ff42 	bne	t0,s3,0xe10
    1108:	00000000 	nop
    110c:	11820017 	beq	t4,v0,0x116c
    1110:	00000000 	nop
    1114:	1188000b 	beq	t4,t0,0x1144
    1118:	00000000 	nop
    111c:	27838b70 	addiu	v1,gp,-29840
    1120:	00042080 	sll	a0,a0,0x2
    1124:	00832021 	addu	a0,a0,v1
    1128:	8c820018 	lw	v0,24(a0)
    112c:	00061827 	nor	v1,zero,a2
    1130:	00e62824 	and	a1,a3,a2
    1134:	00431024 	and	v0,v0,v1
    1138:	00451025 	or	v0,v0,a1
    113c:	080003a4 	j	0xe90
    1140:	ac820018 	sw	v0,24(a0)
    1144:	27838b78 	addiu	v1,gp,-29832
    1148:	00042040 	sll	a0,a0,0x1
    114c:	00832021 	addu	a0,a0,v1
    1150:	94820002 	lhu	v0,2(a0)
    1154:	00061827 	nor	v1,zero,a2
    1158:	00e62824 	and	a1,a3,a2
    115c:	00431024 	and	v0,v0,v1
    1160:	00451025 	or	v0,v0,a1
    1164:	080003a4 	j	0xe90
    1168:	a4820002 	sh	v0,2(a0)
    116c:	27838b70 	addiu	v1,gp,-29840
    1170:	00831821 	addu	v1,a0,v1
    1174:	90620000 	lbu	v0,0(v1)
    1178:	00062027 	nor	a0,zero,a2
    117c:	0800045a 	j	0x1168
    1180:	00e62824 	and	a1,a3,a2
    1184:	30620007 	andi	v0,v1,0x7
    1188:	00021200 	sll	v0,v0,0x8
    118c:	1188000f 	beq	t4,t0,0x11cc
    1190:	00441021 	addu	v0,v0,a0
    1194:	11930007 	beq	t4,s3,0x11b4
    1198:	00000000 	nop
    119c:	3c03b00a 	lui	v1,0xb00a
    11a0:	00431821 	addu	v1,v0,v1
    11a4:	8c620000 	lw	v0,0(v1)
    11a8:	00062027 	nor	a0,zero,a2
    11ac:	08000447 	j	0x111c
    11b0:	00e62824 	and	a1,a3,a2
    11b4:	3c03b00a 	lui	v1,0xb00a
    11b8:	00431821 	addu	v1,v0,v1
    11bc:	94620000 	lhu	v0,0(v1)
    11c0:	00062027 	nor	a0,zero,a2
    11c4:	08000450 	j	0x1140
    11c8:	00e62824 	and	a1,a3,a2
    11cc:	3c03b00a 	lui	v1,0xb00a
    11d0:	0800047d 	j	0x11f4
    11d4:	00431821 	addu	v1,v0,v1
    11d8:	97858bc4 	lhu	a1,-29756(gp)
    11dc:	3c07b002 	lui	a3,0xb002
    11e0:	3c04b003 	lui	a0,0xb003
    11e4:	3c028000 	lui	v0,0x8000
    11e8:	00a72821 	addu	a1,a1,a3
    11ec:	34840020 	ori	a0,a0,0x20
    11f0:	24421258 	addiu	v0,v0,4696
    11f4:	2403ff80 	li	v1,-128
    11f8:	ac820000 	sw	v0,0(a0)
    11fc:	a0a30007 	sb	v1,7(a1)
    1200:	97828bc6 	lhu	v0,-29754(gp)
    1204:	97858bc4 	lhu	a1,-29756(gp)
    1208:	3c06b006 	lui	a2,0xb006
    120c:	3042fff8 	andi	v0,v0,0xfff8
    1210:	24420010 	addiu	v0,v0,16
    1214:	00a21021 	addu	v0,a1,v0
    1218:	30420fff 	andi	v0,v0,0xfff
    121c:	24440008 	addiu	a0,v0,8
    1220:	30840fff 	andi	a0,a0,0xfff
    1224:	000528c2 	srl	a1,a1,0x3
    1228:	3c030040 	lui	v1,0x40
    122c:	00a32825 	or	a1,a1,v1
    1230:	00872021 	addu	a0,a0,a3
    1234:	34c68018 	ori	a2,a2,0x8018
    1238:	acc50000 	sw	a1,0(a2)
    123c:	af848bc0 	sw	a0,-29760(gp)
    1240:	a7828bc4 	sh	v0,-29756(gp)
    1244:	a7808bc6 	sh	zero,-29754(gp)
    1248:	af808bc8 	sw	zero,-29752(gp)
    124c:	03e00008 	jr	ra
    1250:	00000000 	nop
    1254:	30a500ff 	andi	a1,a1,0xff
    1258:	308400ff 	andi	a0,a0,0xff
    125c:	24020001 	li	v0,1
    1260:	00e04821 	move	t1,a3
    1264:	30c600ff 	andi	a2,a2,0xff
    1268:	8fa70010 	lw	a3,16(sp)
    126c:	10820007 	beq	a0,v0,0x128c
    1270:	00a04021 	move	t0,a1
    1274:	24020003 	li	v0,3
    1278:	10820003 	beq	a0,v0,0x1288
    127c:	00000000 	nop
    1280:	03e00008 	jr	ra
    1284:	00000000 	nop
    1288:	24a80100 	addiu	t0,a1,256
    128c:	3c03b003 	lui	v1,0xb003
    1290:	24020001 	li	v0,1
    1294:	00072027 	nor	a0,zero,a3
    1298:	01272824 	and	a1,t1,a3
    129c:	10c20014 	beq	a2,v0,0x12f0
    12a0:	01031821 	addu	v1,t0,v1
    12a4:	24020002 	li	v0,2
    12a8:	10c20009 	beq	a2,v0,0x12d0
    12ac:	00075027 	nor	t2,zero,a3
    12b0:	3c03b003 	lui	v1,0xb003
    12b4:	01031821 	addu	v1,t0,v1
    12b8:	8c620000 	lw	v0,0(v1)
    12bc:	00000000 	nop
    12c0:	004a1024 	and	v0,v0,t2
    12c4:	00451025 	or	v0,v0,a1
    12c8:	080004e1 	j	0x1384
    12cc:	ac620000 	sw	v0,0(v1)
    12d0:	3c03b003 	lui	v1,0xb003
    12d4:	01031821 	addu	v1,t0,v1
    12d8:	94620000 	lhu	v0,0(v1)
    12dc:	00000000 	nop
    12e0:	004a1024 	and	v0,v0,t2
    12e4:	00451025 	or	v0,v0,a1
    12e8:	03e00008 	jr	ra
    12ec:	a4620000 	sh	v0,0(v1)
    12f0:	90620000 	lbu	v0,0(v1)
    12f4:	00000000 	nop
    12f8:	00441024 	and	v0,v0,a0
    12fc:	00451025 	or	v0,v0,a1
    1300:	a0620000 	sb	v0,0(v1)
    1304:	03e00008 	jr	ra
    1308:	00000000 	nop
    130c:	30840007 	andi	a0,a0,0x7
    1310:	00042200 	sll	a0,a0,0x8
    1314:	30a500ff 	andi	a1,a1,0xff
    1318:	00852821 	addu	a1,a0,a1
    131c:	3c02b00a 	lui	v0,0xb00a
    1320:	00a24021 	addu	t0,a1,v0
    1324:	30c600ff 	andi	a2,a2,0xff
    1328:	24020001 	li	v0,1
    132c:	8fa40010 	lw	a0,16(sp)
    1330:	10c20014 	beq	a2,v0,0x1384
    1334:	24020002 	li	v0,2
    1338:	00045027 	nor	t2,zero,a0
    133c:	10c20009 	beq	a2,v0,0x1364
    1340:	00e44824 	and	t1,a3,a0
    1344:	3c03b00a 	lui	v1,0xb00a
    1348:	00a31821 	addu	v1,a1,v1
    134c:	8c620000 	lw	v0,0(v1)
    1350:	00000000 	nop
    1354:	004a1024 	and	v0,v0,t2
    1358:	00491025 	or	v0,v0,t1
    135c:	03e00008 	jr	ra
    1360:	ac620000 	sw	v0,0(v1)
    1364:	3c03b00a 	lui	v1,0xb00a
    1368:	00a31821 	addu	v1,a1,v1
    136c:	94620000 	lhu	v0,0(v1)
    1370:	00000000 	nop
    1374:	004a1024 	and	v0,v0,t2
    1378:	00491025 	or	v0,v0,t1
    137c:	03e00008 	jr	ra
    1380:	a4620000 	sh	v0,0(v1)
    1384:	91020000 	lbu	v0,0(t0)
    1388:	00041827 	nor	v1,zero,a0
    138c:	00e42024 	and	a0,a3,a0
    1390:	00431024 	and	v0,v0,v1
    1394:	00441025 	or	v0,v0,a0
    1398:	03e00008 	jr	ra
    139c:	a1020000 	sb	v0,0(t0)
    13a0:	30a900ff 	andi	t1,a1,0xff
    13a4:	27838b70 	addiu	v1,gp,-29840
    13a8:	308500ff 	andi	a1,a0,0xff
    13ac:	24020001 	li	v0,1
    13b0:	00075027 	nor	t2,zero,a3
    13b4:	00c74024 	and	t0,a2,a3
    13b8:	11220017 	beq	t1,v0,0x1418
    13bc:	00a31821 	addu	v1,a1,v1
    13c0:	00052040 	sll	a0,a1,0x1
    13c4:	27828b70 	addiu	v0,gp,-29840
    13c8:	00052880 	sll	a1,a1,0x2
    13cc:	27838b78 	addiu	v1,gp,-29832
    13d0:	00835021 	addu	t2,a0,v1
    13d4:	00a22021 	addu	a0,a1,v0
    13d8:	24020002 	li	v0,2
    13dc:	00074027 	nor	t0,zero,a3
    13e0:	11220007 	beq	t1,v0,0x1400
    13e4:	00c72824 	and	a1,a2,a3
    13e8:	8c820018 	lw	v0,24(a0)
    13ec:	00000000 	nop
    13f0:	00481024 	and	v0,v0,t0
    13f4:	00451025 	or	v0,v0,a1
    13f8:	03e00008 	jr	ra
    13fc:	ac820018 	sw	v0,24(a0)
    1400:	95420002 	lhu	v0,2(t2)
    1404:	00000000 	nop
    1408:	00481024 	and	v0,v0,t0
    140c:	00451025 	or	v0,v0,a1
    1410:	03e00008 	jr	ra
    1414:	a5420002 	sh	v0,2(t2)
    1418:	90620000 	lbu	v0,0(v1)
    141c:	00000000 	nop
    1420:	004a1024 	and	v0,v0,t2
    1424:	00481025 	or	v0,v0,t0
    1428:	03e00008 	jr	ra
    142c:	a0620000 	sb	v0,0(v1)
    1430:	00043202 	srl	a2,a0,0x8
    1434:	30c6ff00 	andi	a2,a2,0xff00
    1438:	00041602 	srl	v0,a0,0x18
    143c:	00041a00 	sll	v1,a0,0x8
    1440:	3c0500ff 	lui	a1,0xff
    1444:	00651824 	and	v1,v1,a1
    1448:	00461025 	or	v0,v0,a2
    144c:	00431025 	or	v0,v0,v1
    1450:	00042600 	sll	a0,a0,0x18
    1454:	03e00008 	jr	ra
    1458:	00441025 	or	v0,v0,a0
    145c:	3c03b003 	lui	v1,0xb003
    1460:	3c028000 	lui	v0,0x8000
    1464:	27bdffe8 	addiu	sp,sp,-24
    1468:	34630020 	ori	v1,v1,0x20
    146c:	244214dc 	addiu	v0,v0,5340
    1470:	3c04b003 	lui	a0,0xb003
    1474:	afbf0014 	sw	ra,20(sp)
    1478:	ac620000 	sw	v0,0(v1)
    147c:	afb00010 	sw	s0,16(sp)
    1480:	3484002c 	ori	a0,a0,0x2c
    1484:	8c830000 	lw	v1,0(a0)
    1488:	a780bc00 	sh	zero,-17408(gp)
    148c:	00031202 	srl	v0,v1,0x8
    1490:	00032d02 	srl	a1,v1,0x14
    1494:	30420fff 	andi	v0,v0,0xfff
    1498:	a383bc08 	sb	v1,-17400(gp)
    149c:	a785bc0c 	sh	a1,-17396(gp)
    14a0:	a782bc0a 	sh	v0,-17398(gp)
    14a4:	a780bc02 	sh	zero,-17406(gp)
    14a8:	a780bc04 	sh	zero,-17404(gp)
    14ac:	a780bc06 	sh	zero,-17402(gp)
    14b0:	0c0006d1 	jal	0x1b44
    14b4:	24040500 	li	a0,1280
    14b8:	3c050800 	lui	a1,0x800
    14bc:	00452825 	or	a1,v0,a1
    14c0:	24040500 	li	a0,1280
    14c4:	0c0006bf 	jal	0x1afc
    14c8:	00408021 	move	s0,v0
    14cc:	3c02f7ff 	lui	v0,0xf7ff
    14d0:	3442ffff 	ori	v0,v0,0xffff
    14d4:	02028024 	and	s0,s0,v0
    14d8:	02002821 	move	a1,s0
    14dc:	0c0006bf 	jal	0x1afc
    14e0:	24040500 	li	a0,1280
    14e4:	3c02b003 	lui	v0,0xb003
    14e8:	3c03b003 	lui	v1,0xb003
    14ec:	34420108 	ori	v0,v0,0x108
    14f0:	34630118 	ori	v1,v1,0x118
    14f4:	8c450000 	lw	a1,0(v0)
    14f8:	8c640000 	lw	a0,0(v1)
    14fc:	3c02000f 	lui	v0,0xf
    1500:	3c03004c 	lui	v1,0x4c
    1504:	30840200 	andi	a0,a0,0x200
    1508:	34634b40 	ori	v1,v1,0x4b40
    150c:	af85bc10 	sw	a1,-17392(gp)
    1510:	10800006 	beqz	a0,0x152c
    1514:	34424240 	ori	v0,v0,0x4240
    1518:	af83bc14 	sw	v1,-17388(gp)
    151c:	8fbf0014 	lw	ra,20(sp)
    1520:	8fb00010 	lw	s0,16(sp)
    1524:	03e00008 	jr	ra
    1528:	27bd0018 	addiu	sp,sp,24
    152c:	af82bc14 	sw	v0,-17388(gp)
    1530:	08000567 	j	0x159c
    1534:	00000000 	nop
    1538:	3c03b003 	lui	v1,0xb003
    153c:	3c028000 	lui	v0,0x8000
    1540:	27bdffc8 	addiu	sp,sp,-56
    1544:	34630020 	ori	v1,v1,0x20
    1548:	244215b8 	addiu	v0,v0,5560
    154c:	308400ff 	andi	a0,a0,0xff
    1550:	afbf0030 	sw	ra,48(sp)
    1554:	afb7002c 	sw	s7,44(sp)
    1558:	afb60028 	sw	s6,40(sp)
    155c:	afb50024 	sw	s5,36(sp)
    1560:	afb40020 	sw	s4,32(sp)
    1564:	afb3001c 	sw	s3,28(sp)
    1568:	afb20018 	sw	s2,24(sp)
    156c:	afb10014 	sw	s1,20(sp)
    1570:	afb00010 	sw	s0,16(sp)
    1574:	ac620000 	sw	v0,0(v1)
    1578:	1080001c 	beqz	a0,0x15ec
    157c:	24020002 	li	v0,2
    1580:	10820008 	beq	a0,v0,0x15a4
    1584:	00000000 	nop
    1588:	8fbf0030 	lw	ra,48(sp)
    158c:	7bb6017c 	.word	0x7bb6017c
    1590:	7bb4013c 	.word	0x7bb4013c
    1594:	7bb200fc 	.word	0x7bb200fc
    1598:	7bb000bc 	.word	0x7bb000bc
    159c:	03e00008 	jr	ra
    15a0:	27bd0038 	addiu	sp,sp,56
    15a4:	a780bc00 	sh	zero,-17408(gp)
    15a8:	a780bc02 	sh	zero,-17406(gp)
    15ac:	a780bc04 	sh	zero,-17404(gp)
    15b0:	a780bc06 	sh	zero,-17402(gp)
    15b4:	0c0006d1 	jal	0x1b44
    15b8:	24040500 	li	a0,1280
    15bc:	3c050800 	lui	a1,0x800
    15c0:	00452825 	or	a1,v0,a1
    15c4:	24040500 	li	a0,1280
    15c8:	0c0006bf 	jal	0x1afc
    15cc:	00408021 	move	s0,v0
    15d0:	3c05f7ff 	lui	a1,0xf7ff
    15d4:	34a5ffff 	ori	a1,a1,0xffff
    15d8:	02052824 	and	a1,s0,a1
    15dc:	0c0006bf 	jal	0x1afc
    15e0:	24040500 	li	a0,1280
    15e4:	08000582 	j	0x1608
    15e8:	00000000 	nop
    15ec:	0c0006d1 	jal	0x1b44
    15f0:	240405a0 	li	a0,1440
    15f4:	240405a4 	li	a0,1444
    15f8:	0c0006d1 	jal	0x1b44
    15fc:	0002bc02 	srl	s7,v0,0x10
    1600:	240405a8 	li	a0,1448
    1604:	0002b402 	srl	s6,v0,0x10
    1608:	0c0006d1 	jal	0x1b44
    160c:	3055ffff 	andi	s5,v0,0xffff
    1610:	00408021 	move	s0,v0
    1614:	9784bc00 	lhu	a0,-17408(gp)
    1618:	9782bc02 	lhu	v0,-17406(gp)
    161c:	9783bc06 	lhu	v1,-17402(gp)
    1620:	02e42023 	subu	a0,s7,a0
    1624:	02a21023 	subu	v0,s5,v0
    1628:	00822021 	addu	a0,a0,v0
    162c:	9782bc04 	lhu	v0,-17404(gp)
    1630:	3214ffff 	andi	s4,s0,0xffff
    1634:	02831823 	subu	v1,s4,v1
    1638:	02c21023 	subu	v0,s6,v0
    163c:	00822021 	addu	a0,a0,v0
    1640:	9382bc08 	lbu	v0,-17400(gp)
    1644:	00832021 	addu	a0,a0,v1
    1648:	3084ffff 	andi	a0,a0,0xffff
    164c:	0082102b 	sltu	v0,a0,v0
    1650:	144000aa 	bnez	v0,0x18fc
    1654:	00000000 	nop
    1658:	9782bc0c 	lhu	v0,-17396(gp)
    165c:	00000000 	nop
    1660:	0044102b 	sltu	v0,v0,a0
    1664:	1440007f 	bnez	v0,0x1864
    1668:	00000000 	nop
    166c:	9782bc0a 	lhu	v0,-17398(gp)
    1670:	00000000 	nop
    1674:	0044102b 	sltu	v0,v0,a0
    1678:	1040003a 	beqz	v0,0x1764
    167c:	00000000 	nop
    1680:	0c0006d1 	jal	0x1b44
    1684:	24040450 	li	a0,1104
    1688:	3051007f 	andi	s1,v0,0x7f
    168c:	00408021 	move	s0,v0
    1690:	2e220032 	sltiu	v0,s1,50
    1694:	10400013 	beqz	v0,0x16e4
    1698:	24020020 	li	v0,32
    169c:	12220017 	beq	s1,v0,0x16fc
    16a0:	2402ff80 	li	v0,-128
    16a4:	02021024 	and	v0,s0,v0
    16a8:	26310001 	addiu	s1,s1,1
    16ac:	00518025 	or	s0,v0,s1
    16b0:	02002821 	move	a1,s0
    16b4:	0c0006bf 	jal	0x1afc
    16b8:	24040450 	li	a0,1104
    16bc:	02002821 	move	a1,s0
    16c0:	0c0006bf 	jal	0x1afc
    16c4:	24040458 	li	a0,1112
    16c8:	02002821 	move	a1,s0
    16cc:	0c0006bf 	jal	0x1afc
    16d0:	24040460 	li	a0,1120
    16d4:	02002821 	move	a1,s0
    16d8:	24040468 	li	a0,1128
    16dc:	0c0006bf 	jal	0x1afc
    16e0:	00000000 	nop
    16e4:	a797bc00 	sh	s7,-17408(gp)
    16e8:	a795bc02 	sh	s5,-17406(gp)
    16ec:	a796bc04 	sh	s6,-17404(gp)
    16f0:	a794bc06 	sh	s4,-17402(gp)
    16f4:	08000582 	j	0x1608
    16f8:	00000000 	nop
    16fc:	0c0006d1 	jal	0x1b44
    1700:	24040208 	li	a0,520
    1704:	3c0400c0 	lui	a0,0xc0
    1708:	00402821 	move	a1,v0
    170c:	00441024 	and	v0,v0,a0
    1710:	00021582 	srl	v0,v0,0x16
    1714:	24030003 	li	v1,3
    1718:	10430007 	beq	v0,v1,0x1738
    171c:	00000000 	nop
    1720:	3c02ff3f 	lui	v0,0xff3f
    1724:	3442ffff 	ori	v0,v0,0xffff
    1728:	00a21024 	and	v0,a1,v0
    172c:	00442825 	or	a1,v0,a0
    1730:	0c0006bf 	jal	0x1afc
    1734:	24040208 	li	a0,520
    1738:	0c0006d1 	jal	0x1b44
    173c:	2404022c 	li	a0,556
    1740:	00409021 	move	s2,v0
    1744:	3c02ffff 	lui	v0,0xffff
    1748:	34423fff 	ori	v0,v0,0x3fff
    174c:	02429024 	and	s2,s2,v0
    1750:	02402821 	move	a1,s2
    1754:	0c0006bf 	jal	0x1afc
    1758:	2404022c 	li	a0,556
    175c:	080005c9 	j	0x1724
    1760:	2402ff80 	li	v0,-128
    1764:	0c0006d1 	jal	0x1b44
    1768:	24040450 	li	a0,1104
    176c:	3051007f 	andi	s1,v0,0x7f
    1770:	24020020 	li	v0,32
    1774:	1622ffdb 	bne	s1,v0,0x16e4
    1778:	00000000 	nop
    177c:	0c0006d1 	jal	0x1b44
    1780:	2404022c 	li	a0,556
    1784:	34524000 	ori	s2,v0,0x4000
    1788:	02402821 	move	a1,s2
    178c:	0c0006bf 	jal	0x1afc
    1790:	2404022c 	li	a0,556
    1794:	0c0006d1 	jal	0x1b44
    1798:	24040258 	li	a0,600
    179c:	2404025c 	li	a0,604
    17a0:	0c0006d1 	jal	0x1b44
    17a4:	00029e02 	srl	s3,v0,0x18
    17a8:	304300ff 	andi	v1,v0,0xff
    17ac:	00131200 	sll	v0,s3,0x8
    17b0:	00431025 	or	v0,v0,v1
    17b4:	2c430004 	sltiu	v1,v0,4
    17b8:	1460001d 	bnez	v1,0x1830
    17bc:	2c420011 	sltiu	v0,v0,17
    17c0:	1040000b 	beqz	v0,0x17f0
    17c4:	00000000 	nop
    17c8:	3c02ffff 	lui	v0,0xffff
    17cc:	34423fff 	ori	v0,v0,0x3fff
    17d0:	02429024 	and	s2,s2,v0
    17d4:	02402821 	move	a1,s2
    17d8:	2404022c 	li	a0,556
    17dc:	0c0006bf 	jal	0x1afc
    17e0:	36528000 	ori	s2,s2,0x8000
    17e4:	02402821 	move	a1,s2
    17e8:	080005d7 	j	0x175c
    17ec:	2404022c 	li	a0,556
    17f0:	0c0006d1 	jal	0x1b44
    17f4:	24040208 	li	a0,520
    17f8:	3c0400c0 	lui	a0,0xc0
    17fc:	00402821 	move	a1,v0
    1800:	00441024 	and	v0,v0,a0
    1804:	00021582 	srl	v0,v0,0x16
    1808:	24030002 	li	v1,2
    180c:	1443ffee 	bne	v0,v1,0x17c8
    1810:	3c02ff3f 	lui	v0,0xff3f
    1814:	3442ffff 	ori	v0,v0,0xffff
    1818:	00a21024 	and	v0,a1,v0
    181c:	00442825 	or	a1,v0,a0
    1820:	0c0006bf 	jal	0x1afc
    1824:	24040208 	li	a0,520
    1828:	08000613 	j	0x184c
    182c:	3c02ffff 	lui	v0,0xffff
    1830:	0c0006d1 	jal	0x1b44
    1834:	24040208 	li	a0,520
    1838:	00402821 	move	a1,v0
    183c:	00021582 	srl	v0,v0,0x16
    1840:	30420003 	andi	v0,v0,0x3
    1844:	24030003 	li	v1,3
    1848:	1443ffdf 	bne	v0,v1,0x17c8
    184c:	3c02ff3f 	lui	v0,0xff3f
    1850:	3442ffff 	ori	v0,v0,0xffff
    1854:	00a21024 	and	v0,a1,v0
    1858:	3c030080 	lui	v1,0x80
    185c:	08000628 	j	0x18a0
    1860:	00432825 	or	a1,v0,v1
    1864:	0c0006d1 	jal	0x1b44
    1868:	24040450 	li	a0,1104
    186c:	3051007f 	andi	s1,v0,0x7f
    1870:	00408021 	move	s0,v0
    1874:	2e220032 	sltiu	v0,s1,50
    1878:	1040ff9a 	beqz	v0,0x16e4
    187c:	24020020 	li	v0,32
    1880:	12220004 	beq	s1,v0,0x1894
    1884:	2402ff80 	li	v0,-128
    1888:	02021024 	and	v0,s0,v0
    188c:	080005cb 	j	0x172c
    1890:	26310002 	addiu	s1,s1,2
    1894:	0c0006d1 	jal	0x1b44
    1898:	24040208 	li	a0,520
    189c:	3c0400c0 	lui	a0,0xc0
    18a0:	00402821 	move	a1,v0
    18a4:	00441024 	and	v0,v0,a0
    18a8:	00021582 	srl	v0,v0,0x16
    18ac:	24030003 	li	v1,3
    18b0:	10430007 	beq	v0,v1,0x18d0
    18b4:	00000000 	nop
    18b8:	3c02ff3f 	lui	v0,0xff3f
    18bc:	3442ffff 	ori	v0,v0,0xffff
    18c0:	00a21024 	and	v0,a1,v0
    18c4:	00442825 	or	a1,v0,a0
    18c8:	0c0006bf 	jal	0x1afc
    18cc:	24040208 	li	a0,520
    18d0:	0c0006d1 	jal	0x1b44
    18d4:	2404022c 	li	a0,556
    18d8:	00409021 	move	s2,v0
    18dc:	3c02ffff 	lui	v0,0xffff
    18e0:	34423fff 	ori	v0,v0,0x3fff
    18e4:	02429024 	and	s2,s2,v0
    18e8:	02402821 	move	a1,s2
    18ec:	0c0006bf 	jal	0x1afc
    18f0:	2404022c 	li	a0,556
    18f4:	08000642 	j	0x1908
    18f8:	2402ff80 	li	v0,-128
    18fc:	0c0006d1 	jal	0x1b44
    1900:	24040450 	li	a0,1104
    1904:	00408021 	move	s0,v0
    1908:	3051007f 	andi	s1,v0,0x7f
    190c:	24020020 	li	v0,32
    1910:	1222001d 	beq	s1,v0,0x1988
    1914:	2e220021 	sltiu	v0,s1,33
    1918:	1440ff72 	bnez	v0,0x16e4
    191c:	2402ff80 	li	v0,-128
    1920:	02021024 	and	v0,s0,v0
    1924:	2631ffff 	addiu	s1,s1,-1
    1928:	00518025 	or	s0,v0,s1
    192c:	24040450 	li	a0,1104
    1930:	0c0006bf 	jal	0x1afc
    1934:	02002821 	move	a1,s0
    1938:	24040458 	li	a0,1112
    193c:	0c0006bf 	jal	0x1afc
    1940:	02002821 	move	a1,s0
    1944:	24040460 	li	a0,1120
    1948:	0c0006bf 	jal	0x1afc
    194c:	02002821 	move	a1,s0
    1950:	02002821 	move	a1,s0
    1954:	0c0006bf 	jal	0x1afc
    1958:	24040468 	li	a0,1128
    195c:	24020020 	li	v0,32
    1960:	1622ff60 	bne	s1,v0,0x16e4
    1964:	00000000 	nop
    1968:	0c0006d1 	jal	0x1b44
    196c:	2404022c 	li	a0,556
    1970:	00409021 	move	s2,v0
    1974:	3c02ffff 	lui	v0,0xffff
    1978:	34423fff 	ori	v0,v0,0x3fff
    197c:	02421024 	and	v0,s2,v0
    1980:	08000619 	j	0x1864
    1984:	34528000 	ori	s2,v0,0x8000
    1988:	0c0006d1 	jal	0x1b44
    198c:	2404022c 	li	a0,556
    1990:	34524000 	ori	s2,v0,0x4000
    1994:	02402821 	move	a1,s2
    1998:	0c0006bf 	jal	0x1afc
    199c:	2404022c 	li	a0,556
    19a0:	0c0006d1 	jal	0x1b44
    19a4:	24040258 	li	a0,600
    19a8:	2404025c 	li	a0,604
    19ac:	0c0006d1 	jal	0x1b44
    19b0:	00029e02 	srl	s3,v0,0x18
    19b4:	304300ff 	andi	v1,v0,0xff
    19b8:	00131200 	sll	v0,s3,0x8
    19bc:	00431025 	or	v0,v0,v1
    19c0:	2c430004 	sltiu	v1,v0,4
    19c4:	14600020 	bnez	v1,0x1a48
    19c8:	2c420011 	sltiu	v0,v0,17
    19cc:	1040000d 	beqz	v0,0x1a04
    19d0:	00000000 	nop
    19d4:	3c02ffff 	lui	v0,0xffff
    19d8:	34423fff 	ori	v0,v0,0x3fff
    19dc:	02429024 	and	s2,s2,v0
    19e0:	02402821 	move	a1,s2
    19e4:	2404022c 	li	a0,556
    19e8:	0c0006bf 	jal	0x1afc
    19ec:	36528000 	ori	s2,s2,0x8000
    19f0:	02402821 	move	a1,s2
    19f4:	0c0006bf 	jal	0x1afc
    19f8:	2404022c 	li	a0,556
    19fc:	08000666 	j	0x1998
    1a00:	2e220021 	sltiu	v0,s1,33
    1a04:	0c0006d1 	jal	0x1b44
    1a08:	24040208 	li	a0,520
    1a0c:	3c0400c0 	lui	a0,0xc0
    1a10:	00402821 	move	a1,v0
    1a14:	00441024 	and	v0,v0,a0
    1a18:	00021582 	srl	v0,v0,0x16
    1a1c:	24030002 	li	v1,2
    1a20:	1443ffec 	bne	v0,v1,0x19d4
    1a24:	00000000 	nop
    1a28:	3c02ff3f 	lui	v0,0xff3f
    1a2c:	3442ffff 	ori	v0,v0,0xffff
    1a30:	00a21024 	and	v0,a1,v0
    1a34:	00442825 	or	a1,v0,a0
    1a38:	0c0006bf 	jal	0x1afc
    1a3c:	24040208 	li	a0,520
    1a40:	08000696 	j	0x1a58
    1a44:	3c02ffff 	lui	v0,0xffff
    1a48:	0c0006d1 	jal	0x1b44
    1a4c:	24040208 	li	a0,520
    1a50:	00402821 	move	a1,v0
    1a54:	00021582 	srl	v0,v0,0x16
    1a58:	30420003 	andi	v0,v0,0x3
    1a5c:	24030003 	li	v1,3
    1a60:	1443ffdc 	bne	v0,v1,0x19d4
    1a64:	3c030080 	lui	v1,0x80
    1a68:	3c02ff3f 	lui	v0,0xff3f
    1a6c:	3442ffff 	ori	v0,v0,0xffff
    1a70:	00a21024 	and	v0,a1,v0
    1a74:	080006ae 	j	0x1ab8
    1a78:	00432825 	or	a1,v0,v1
    1a7c:	30830003 	andi	v1,a0,0x3
    1a80:	00042040 	sll	a0,a0,0x1
    1a84:	00832023 	subu	a0,a0,v1
    1a88:	3c02b00a 	lui	v0,0xb00a
    1a8c:	00822021 	addu	a0,a0,v0
    1a90:	3c060001 	lui	a2,0x1
    1a94:	ac850000 	sw	a1,0(a0)
    1a98:	24070001 	li	a3,1
    1a9c:	00002821 	move	a1,zero
    1aa0:	34c6869f 	ori	a2,a2,0x869f
    1aa4:	8c821000 	lw	v0,4096(a0)
    1aa8:	24a50001 	addiu	a1,a1,1
    1aac:	10470003 	beq	v0,a3,0x1abc
    1ab0:	00c5182b 	sltu	v1,a2,a1
    1ab4:	1060fffb 	beqz	v1,0x1aa4
    1ab8:	00000000 	nop
    1abc:	03e00008 	jr	ra
    1ac0:	00000000 	nop
    1ac4:	30830003 	andi	v1,a0,0x3
    1ac8:	00042040 	sll	a0,a0,0x1
    1acc:	3c02b00a 	lui	v0,0xb00a
    1ad0:	00832023 	subu	a0,a0,v1
    1ad4:	00822021 	addu	a0,a0,v0
    1ad8:	3c060001 	lui	a2,0x1
    1adc:	2402ffff 	li	v0,-1
    1ae0:	ac821000 	sw	v0,4096(a0)
    1ae4:	00002821 	move	a1,zero
    1ae8:	24070001 	li	a3,1
    1aec:	34c6869f 	ori	a2,a2,0x869f
    1af0:	8c821000 	lw	v0,4096(a0)
    1af4:	24a50001 	addiu	a1,a1,1
    1af8:	10470003 	beq	v0,a3,0x1b08
    1afc:	00c5182b 	sltu	v1,a2,a1
    1b00:	1060fffb 	beqz	v1,0x1af0
    1b04:	00000000 	nop
    1b08:	8c820000 	lw	v0,0(a0)
    1b0c:	03e00008 	jr	ra
    1b10:	00000000 	nop
    1b14:	3c05b003 	lui	a1,0xb003
    1b18:	3c028000 	lui	v0,0x8000
    1b1c:	24421b94 	addiu	v0,v0,7060
    1b20:	24030001 	li	v1,1
    1b24:	34a50020 	ori	a1,a1,0x20
    1b28:	3c06b003 	lui	a2,0xb003
    1b2c:	aca20000 	sw	v0,0(a1)
    1b30:	34c60104 	ori	a2,a2,0x104
    1b34:	a0830048 	sb	v1,72(a0)
    1b38:	a0800004 	sb	zero,4(a0)
    1b3c:	a0800005 	sb	zero,5(a0)
    1b40:	a0800006 	sb	zero,6(a0)
    1b44:	a0800007 	sb	zero,7(a0)
    1b48:	a0800008 	sb	zero,8(a0)
    1b4c:	a0800009 	sb	zero,9(a0)
    1b50:	a080000a 	sb	zero,10(a0)
    1b54:	a0800011 	sb	zero,17(a0)
    1b58:	a0800013 	sb	zero,19(a0)
    1b5c:	a0800049 	sb	zero,73(a0)
    1b60:	94c20000 	lhu	v0,0(a2)
    1b64:	ac800000 	sw	zero,0(a0)
    1b68:	a080004e 	sb	zero,78(a0)
    1b6c:	00021400 	sll	v0,v0,0x10
    1b70:	00021403 	sra	v0,v0,0x10
    1b74:	304300ff 	andi	v1,v0,0xff
    1b78:	3042ff00 	andi	v0,v0,0xff00
    1b7c:	a4820044 	sh	v0,68(a0)
    1b80:	a4830046 	sh	v1,70(a0)
    1b84:	ac800024 	sw	zero,36(a0)
    1b88:	ac800028 	sw	zero,40(a0)
    1b8c:	ac80002c 	sw	zero,44(a0)
    1b90:	ac800030 	sw	zero,48(a0)
    1b94:	ac800034 	sw	zero,52(a0)
    1b98:	ac800038 	sw	zero,56(a0)
    1b9c:	ac80003c 	sw	zero,60(a0)
    1ba0:	03e00008 	jr	ra
    1ba4:	ac800040 	sw	zero,64(a0)
    1ba8:	8483000c 	lh	v1,12(a0)
    1bac:	3c07b003 	lui	a3,0xb003
    1bb0:	34e70020 	ori	a3,a3,0x20
    1bb4:	000310c0 	sll	v0,v1,0x3
    1bb8:	00431021 	addu	v0,v0,v1
    1bbc:	00021080 	sll	v0,v0,0x2
    1bc0:	27839004 	addiu	v1,gp,-28668
    1bc4:	00431021 	addu	v0,v0,v1
    1bc8:	8c480018 	lw	t0,24(v0)
    1bcc:	3c028000 	lui	v0,0x8000
    1bd0:	24421c28 	addiu	v0,v0,7208
    1bd4:	ace20000 	sw	v0,0(a3)
    1bd8:	8d030008 	lw	v1,8(t0)
    1bdc:	80820013 	lb	v0,19(a0)
    1be0:	00052c00 	sll	a1,a1,0x10
    1be4:	00031e02 	srl	v1,v1,0x18
    1be8:	00021200 	sll	v0,v0,0x8
    1bec:	3063007e 	andi	v1,v1,0x7e
    1bf0:	00621821 	addu	v1,v1,v0
    1bf4:	00651821 	addu	v1,v1,a1
    1bf8:	3c02c000 	lui	v0,0xc000
    1bfc:	3c05b005 	lui	a1,0xb005
    1c00:	34420400 	ori	v0,v0,0x400
    1c04:	24630001 	addiu	v1,v1,1
    1c08:	3c07b005 	lui	a3,0xb005
    1c0c:	3c08b005 	lui	t0,0xb005
    1c10:	34a50420 	ori	a1,a1,0x420
    1c14:	aca30000 	sw	v1,0(a1)
    1c18:	00c23021 	addu	a2,a2,v0
    1c1c:	34e70424 	ori	a3,a3,0x424
    1c20:	35080228 	ori	t0,t0,0x228
    1c24:	24020001 	li	v0,1
    1c28:	24030020 	li	v1,32
    1c2c:	ace60000 	sw	a2,0(a3)
    1c30:	ac82003c 	sw	v0,60(a0)
    1c34:	03e00008 	jr	ra
    1c38:	a1030000 	sb	v1,0(t0)
    1c3c:	27bdffa8 	addiu	sp,sp,-88
    1c40:	00076080 	sll	t4,a3,0x2
    1c44:	2782b400 	addiu	v0,gp,-19456
    1c48:	afbe0050 	sw	s8,80(sp)
    1c4c:	afb7004c 	sw	s7,76(sp)
    1c50:	afb50044 	sw	s5,68(sp)
    1c54:	afb40040 	sw	s4,64(sp)
    1c58:	afbf0054 	sw	ra,84(sp)
    1c5c:	afb60048 	sw	s6,72(sp)
    1c60:	afb3003c 	sw	s3,60(sp)
    1c64:	afb20038 	sw	s2,56(sp)
    1c68:	afb10034 	sw	s1,52(sp)
    1c6c:	afb00030 	sw	s0,48(sp)
    1c70:	01821021 	addu	v0,t4,v0
    1c74:	8c430000 	lw	v1,0(v0)
    1c78:	00e07021 	move	t6,a3
    1c7c:	3c028000 	lui	v0,0x8000
    1c80:	94730014 	lhu	s3,20(v1)
    1c84:	3c07b003 	lui	a3,0xb003
    1c88:	34e70020 	ori	a3,a3,0x20
    1c8c:	24421cbc 	addiu	v0,v0,7356
    1c90:	3c03b005 	lui	v1,0xb005
    1c94:	ace20000 	sw	v0,0(a3)
    1c98:	34630128 	ori	v1,v1,0x128
    1c9c:	90670000 	lbu	a3,0(v1)
    1ca0:	0013a8c0 	sll	s5,s3,0x3
    1ca4:	02b31821 	addu	v1,s5,s3
    1ca8:	27829004 	addiu	v0,gp,-28668
    1cac:	00031880 	sll	v1,v1,0x2
    1cb0:	00621821 	addu	v1,v1,v0
    1cb4:	00052c00 	sll	a1,a1,0x10
    1cb8:	00073e00 	sll	a3,a3,0x18
    1cbc:	28c20003 	slti	v0,a2,3
    1cc0:	00c0a021 	move	s4,a2
    1cc4:	00807821 	move	t7,a0
    1cc8:	0005bc03 	sra	s7,a1,0x10
    1ccc:	8c680018 	lw	t0,24(v1)
    1cd0:	02a05821 	move	t3,s5
    1cd4:	10400181 	beqz	v0,0x22dc
    1cd8:	0007f603 	sra	s8,a3,0x18
    1cdc:	00de1007 	srav	v0,s8,a2
    1ce0:	305e0001 	andi	s8,v0,0x1
    1ce4:	01731021 	addu	v0,t3,s3
    1ce8:	27839008 	addiu	v1,gp,-28664
    1cec:	00021080 	sll	v0,v0,0x2
    1cf0:	00431021 	addu	v0,v0,v1
    1cf4:	804d0006 	lb	t5,6(v0)
    1cf8:	8d030000 	lw	v1,0(t0)
    1cfc:	8d020004 	lw	v0,4(t0)
    1d00:	8d0a0008 	lw	t2,8(t0)
    1d04:	8d03000c 	lw	v1,12(t0)
    1d08:	afa20020 	sw	v0,32(sp)
    1d0c:	11a00171 	beqz	t5,0x22d4
    1d10:	afa30018 	sw	v1,24(sp)
    1d14:	2782b400 	addiu	v0,gp,-19456
    1d18:	01821021 	addu	v0,t4,v0
    1d1c:	8c440000 	lw	a0,0(v0)
    1d20:	00000000 	nop
    1d24:	90830016 	lbu	v1,22(a0)
    1d28:	00000000 	nop
    1d2c:	30630004 	andi	v1,v1,0x4
    1d30:	14600012 	bnez	v1,0x1d7c
    1d34:	0000b021 	move	s6,zero
    1d38:	3c02b009 	lui	v0,0xb009
    1d3c:	34420146 	ori	v0,v0,0x146
    1d40:	90430000 	lbu	v1,0(v0)
    1d44:	2a840004 	slti	a0,s4,4
    1d48:	10800156 	beqz	a0,0x22a4
    1d4c:	30650001 	andi	a1,v1,0x1
    1d50:	91e20009 	lbu	v0,9(t7)
    1d54:	00000000 	nop
    1d58:	12820002 	beq	s4,v0,0x1d64
    1d5c:	00000000 	nop
    1d60:	00002821 	move	a1,zero
    1d64:	14a00003 	bnez	a1,0x1d74
    1d68:	00003821 	move	a3,zero
    1d6c:	13c00003 	beqz	s8,0x1d7c
    1d70:	38f60001 	xori	s6,a3,0x1
    1d74:	24070001 	li	a3,1
    1d78:	38f60001 	xori	s6,a3,0x1
    1d7c:	01731021 	addu	v0,t3,s3
    1d80:	00023080 	sll	a2,v0,0x2
    1d84:	27839010 	addiu	v1,gp,-28656
    1d88:	00c34821 	addu	t1,a2,v1
    1d8c:	91250000 	lbu	a1,0(t1)
    1d90:	8fa40020 	lw	a0,32(sp)
    1d94:	2ca30004 	sltiu	v1,a1,4
    1d98:	000411c3 	sra	v0,a0,0x7
    1d9c:	30420001 	andi	v0,v0,0x1
    1da0:	0003b00b 	.word	0x3b00b
    1da4:	12c000d8 	beqz	s6,0x2108
    1da8:	afa20024 	sw	v0,36(sp)
    1dac:	9390bbea 	lbu	s0,-17430(gp)
    1db0:	000a1642 	srl	v0,t2,0x19
    1db4:	3052003f 	andi	s2,v0,0x3f
    1db8:	2e06000c 	sltiu	a2,s0,12
    1dbc:	10c000c0 	beqz	a2,0x20c0
    1dc0:	00a02021 	move	a0,a1
    1dc4:	2ca20010 	sltiu	v0,a1,16
    1dc8:	14400004 	bnez	v0,0x1ddc
    1dcc:	0090102b 	sltu	v0,a0,s0
    1dd0:	30a20007 	andi	v0,a1,0x7
    1dd4:	24440004 	addiu	a0,v0,4
    1dd8:	0090102b 	sltu	v0,a0,s0
    1ddc:	1040000b 	beqz	v0,0x1e0c
    1de0:	01731021 	addu	v0,t3,s3
    1de4:	2785bb1c 	addiu	a1,gp,-17636
    1de8:	00101040 	sll	v0,s0,0x1
    1dec:	00501021 	addu	v0,v0,s0
    1df0:	00451021 	addu	v0,v0,a1
    1df4:	90500000 	lbu	s0,0(v0)
    1df8:	00000000 	nop
    1dfc:	0090182b 	sltu	v1,a0,s0
    1e00:	1460fffa 	bnez	v1,0x1dec
    1e04:	00101040 	sll	v0,s0,0x1
    1e08:	01731021 	addu	v0,t3,s3
    1e0c:	00021080 	sll	v0,v0,0x2
    1e10:	27839008 	addiu	v1,gp,-28664
    1e14:	00431021 	addu	v0,v0,v1
    1e18:	31a40001 	andi	a0,t5,0x1
    1e1c:	108000a5 	beqz	a0,0x20b4
    1e20:	a0500007 	sb	s0,7(v0)
    1e24:	3c04b005 	lui	a0,0xb005
    1e28:	34840008 	ori	a0,a0,0x8
    1e2c:	24020001 	li	v0,1
    1e30:	3c038000 	lui	v1,0x8000
    1e34:	a1e2004e 	sb	v0,78(t7)
    1e38:	ac830000 	sw	v1,0(a0)
    1e3c:	8c850000 	lw	a1,0(a0)
    1e40:	3c0200f0 	lui	v0,0xf0
    1e44:	3c0340f0 	lui	v1,0x40f0
    1e48:	3442f000 	ori	v0,v0,0xf000
    1e4c:	3463f000 	ori	v1,v1,0xf000
    1e50:	2417000e 	li	s7,14
    1e54:	24130106 	li	s3,262
    1e58:	ac820000 	sw	v0,0(a0)
    1e5c:	ac830000 	sw	v1,0(a0)
    1e60:	2782b400 	addiu	v0,gp,-19456
    1e64:	01821021 	addu	v0,t4,v0
    1e68:	8c430000 	lw	v1,0(v0)
    1e6c:	24050001 	li	a1,1
    1e70:	afa5001c 	sw	a1,28(sp)
    1e74:	90620016 	lbu	v0,22(v1)
    1e78:	0013a8c0 	sll	s5,s3,0x3
    1e7c:	32510002 	andi	s1,s2,0x2
    1e80:	34420004 	ori	v0,v0,0x4
    1e84:	a0620016 	sb	v0,22(v1)
    1e88:	8fa30020 	lw	v1,32(sp)
    1e8c:	8fa40018 	lw	a0,24(sp)
    1e90:	00031343 	sra	v0,v1,0xd
    1e94:	00041a02 	srl	v1,a0,0x8
    1e98:	30470001 	andi	a3,v0,0x1
    1e9c:	12200004 	beqz	s1,0x1eb0
    1ea0:	306407ff 	andi	a0,v1,0x7ff
    1ea4:	2e030004 	sltiu	v1,s0,4
    1ea8:	32420033 	andi	v0,s2,0x33
    1eac:	0043900b 	.word	0x43900b
    1eb0:	8fa50024 	lw	a1,36(sp)
    1eb4:	8fa6001c 	lw	a2,28(sp)
    1eb8:	00121040 	sll	v0,s2,0x1
    1ebc:	000519c0 	sll	v1,a1,0x7
    1ec0:	00471021 	addu	v0,v0,a3
    1ec4:	00062a80 	sll	a1,a2,0xa
    1ec8:	00431021 	addu	v0,v0,v1
    1ecc:	00103200 	sll	a2,s0,0x8
    1ed0:	00042480 	sll	a0,a0,0x12
    1ed4:	02652821 	addu	a1,s3,a1
    1ed8:	00a42821 	addu	a1,a1,a0
    1edc:	00461021 	addu	v0,v0,a2
    1ee0:	00171c00 	sll	v1,s7,0x10
    1ee4:	3c04c000 	lui	a0,0xc000
    1ee8:	00433021 	addu	a2,v0,v1
    1eec:	16800029 	bnez	s4,0x1f94
    1ef0:	00a42821 	addu	a1,a1,a0
    1ef4:	3c02b005 	lui	v0,0xb005
    1ef8:	34420400 	ori	v0,v0,0x400
    1efc:	3c03b005 	lui	v1,0xb005
    1f00:	3c04b005 	lui	a0,0xb005
    1f04:	ac460000 	sw	a2,0(v0)
    1f08:	34630404 	ori	v1,v1,0x404
    1f0c:	34840228 	ori	a0,a0,0x228
    1f10:	24020001 	li	v0,1
    1f14:	ac650000 	sw	a1,0(v1)
    1f18:	a0820000 	sb	v0,0(a0)
    1f1c:	3c02b009 	lui	v0,0xb009
    1f20:	34420146 	ori	v0,v0,0x146
    1f24:	90440000 	lbu	a0,0(v0)
    1f28:	91e30009 	lbu	v1,9(t7)
    1f2c:	30860001 	andi	a2,a0,0x1
    1f30:	02831826 	xor	v1,s4,v1
    1f34:	0003300b 	.word	0x3300b
    1f38:	14c00003 	bnez	a2,0x1f48
    1f3c:	00002821 	move	a1,zero
    1f40:	13c00003 	beqz	s8,0x1f50
    1f44:	02b31021 	addu	v0,s5,s3
    1f48:	24050001 	li	a1,1
    1f4c:	02b31021 	addu	v0,s5,s3
    1f50:	27839008 	addiu	v1,gp,-28664
    1f54:	00021080 	sll	v0,v0,0x2
    1f58:	00431021 	addu	v0,v0,v1
    1f5c:	84480004 	lh	t0,4(v0)
    1f60:	00a03021 	move	a2,a1
    1f64:	00e02021 	move	a0,a3
    1f68:	02802821 	move	a1,s4
    1f6c:	02c03821 	move	a3,s6
    1f70:	0c000070 	jal	0x1c0
    1f74:	afa80010 	sw	t0,16(sp)
    1f78:	7bbe02bc 	.word	0x7bbe02bc
    1f7c:	7bb6027c 	.word	0x7bb6027c
    1f80:	7bb4023c 	.word	0x7bb4023c
    1f84:	7bb201fc 	.word	0x7bb201fc
    1f88:	7bb001bc 	.word	0x7bb001bc
    1f8c:	03e00008 	jr	ra
    1f90:	27bd0058 	addiu	sp,sp,88
    1f94:	24020001 	li	v0,1
    1f98:	1282003d 	beq	s4,v0,0x2090
    1f9c:	3c02b005 	lui	v0,0xb005
    1fa0:	24020002 	li	v0,2
    1fa4:	12820031 	beq	s4,v0,0x206c
    1fa8:	3c02b005 	lui	v0,0xb005
    1fac:	24020003 	li	v0,3
    1fb0:	12820025 	beq	s4,v0,0x2048
    1fb4:	3c02b005 	lui	v0,0xb005
    1fb8:	24020010 	li	v0,16
    1fbc:	12820019 	beq	s4,v0,0x2024
    1fc0:	3c02b005 	lui	v0,0xb005
    1fc4:	24020011 	li	v0,17
    1fc8:	1282000d 	beq	s4,v0,0x2000
    1fcc:	3c02b005 	lui	v0,0xb005
    1fd0:	24020012 	li	v0,18
    1fd4:	1682ffd1 	bne	s4,v0,0x1f1c
    1fd8:	3c02b005 	lui	v0,0xb005
    1fdc:	3c03b005 	lui	v1,0xb005
    1fe0:	34420420 	ori	v0,v0,0x420
    1fe4:	3c04b005 	lui	a0,0xb005
    1fe8:	34630424 	ori	v1,v1,0x424
    1fec:	ac460000 	sw	a2,0(v0)
    1ff0:	34840228 	ori	a0,a0,0x228
    1ff4:	ac650000 	sw	a1,0(v1)
    1ff8:	080007e6 	j	0x1f98
    1ffc:	24020020 	li	v0,32
    2000:	34420440 	ori	v0,v0,0x440
    2004:	3c03b005 	lui	v1,0xb005
    2008:	3c04b005 	lui	a0,0xb005
    200c:	ac460000 	sw	a2,0(v0)
    2010:	34630444 	ori	v1,v1,0x444
    2014:	34840228 	ori	a0,a0,0x228
    2018:	24020040 	li	v0,64
    201c:	080007e6 	j	0x1f98
    2020:	ac650000 	sw	a1,0(v1)
    2024:	34420428 	ori	v0,v0,0x428
    2028:	3c03b005 	lui	v1,0xb005
    202c:	3c04b005 	lui	a0,0xb005
    2030:	ac460000 	sw	a2,0(v0)
    2034:	3463042c 	ori	v1,v1,0x42c
    2038:	34840228 	ori	a0,a0,0x228
    203c:	2402ff80 	li	v0,-128
    2040:	080007e6 	j	0x1f98
    2044:	ac650000 	sw	a1,0(v1)
    2048:	34420418 	ori	v0,v0,0x418
    204c:	3c03b005 	lui	v1,0xb005
    2050:	3c04b005 	lui	a0,0xb005
    2054:	ac460000 	sw	a2,0(v0)
    2058:	3463041c 	ori	v1,v1,0x41c
    205c:	34840228 	ori	a0,a0,0x228
    2060:	24020008 	li	v0,8
    2064:	080007e6 	j	0x1f98
    2068:	ac650000 	sw	a1,0(v1)
    206c:	34420410 	ori	v0,v0,0x410
    2070:	3c03b005 	lui	v1,0xb005
    2074:	3c04b005 	lui	a0,0xb005
    2078:	ac460000 	sw	a2,0(v0)
    207c:	34630414 	ori	v1,v1,0x414
    2080:	34840228 	ori	a0,a0,0x228
    2084:	24020004 	li	v0,4
    2088:	080007e6 	j	0x1f98
    208c:	ac650000 	sw	a1,0(v1)
    2090:	34420408 	ori	v0,v0,0x408
    2094:	3c03b005 	lui	v1,0xb005
    2098:	3c04b005 	lui	a0,0xb005
    209c:	ac460000 	sw	a2,0(v0)
    20a0:	3463040c 	ori	v1,v1,0x40c
    20a4:	34840228 	ori	a0,a0,0x228
    20a8:	24020002 	li	v0,2
    20ac:	080007e6 	j	0x1f98
    20b0:	ac650000 	sw	a1,0(v1)
    20b4:	24170014 	li	s7,20
    20b8:	080007b8 	j	0x1ee0
    20bc:	24130102 	li	s3,258
    20c0:	30a20007 	andi	v0,a1,0x7
    20c4:	2444000c 	addiu	a0,v0,12
    20c8:	0090182b 	sltu	v1,a0,s0
    20cc:	1060000c 	beqz	v1,0x2100
    20d0:	26020004 	addiu	v0,s0,4
    20d4:	2785bb1c 	addiu	a1,gp,-17636
    20d8:	00101040 	sll	v0,s0,0x1
    20dc:	00501021 	addu	v0,v0,s0
    20e0:	00451021 	addu	v0,v0,a1
    20e4:	90500000 	lbu	s0,0(v0)
    20e8:	00000000 	nop
    20ec:	0090182b 	sltu	v1,a0,s0
    20f0:	1460fffa 	bnez	v1,0x20dc
    20f4:	00101040 	sll	v0,s0,0x1
    20f8:	2e06000c 	sltiu	a2,s0,12
    20fc:	26020004 	addiu	v0,s0,4
    2100:	080007a2 	j	0x1e88
    2104:	0046800a 	.word	0x46800a
    2108:	2782b400 	addiu	v0,gp,-19456
    210c:	01822021 	addu	a0,t4,v0
    2110:	8c870000 	lw	a3,0(a0)
    2114:	00000000 	nop
    2118:	90e20019 	lbu	v0,25(a3)
    211c:	00000000 	nop
    2120:	14400007 	bnez	v0,0x2140
    2124:	00000000 	nop
    2128:	27829020 	addiu	v0,gp,-28640
    212c:	00c21021 	addu	v0,a2,v0
    2130:	90430000 	lbu	v1,0(v0)
    2134:	00000000 	nop
    2138:	10600014 	beqz	v1,0x218c
    213c:	00000000 	nop
    2140:	90e30016 	lbu	v1,22(a3)
    2144:	27829008 	addiu	v0,gp,-28664
    2148:	00c21021 	addu	v0,a2,v0
    214c:	34630020 	ori	v1,v1,0x20
    2150:	90500007 	lbu	s0,7(v0)
    2154:	a0e30016 	sb	v1,22(a3)
    2158:	8c840000 	lw	a0,0(a0)
    215c:	000a1e42 	srl	v1,t2,0x19
    2160:	24060001 	li	a2,1
    2164:	90820016 	lbu	v0,22(a0)
    2168:	30710002 	andi	s1,v1,0x2
    216c:	3072003f 	andi	s2,v1,0x3f
    2170:	304200fb 	andi	v0,v0,0xfb
    2174:	24170018 	li	s7,24
    2178:	24130103 	li	s3,259
    217c:	24150818 	li	s5,2072
    2180:	afa6001c 	sw	a2,28(sp)
    2184:	080007c2 	j	0x1f08
    2188:	a0820016 	sb	v0,22(a0)
    218c:	8d020004 	lw	v0,4(t0)
    2190:	000a1c42 	srl	v1,t2,0x11
    2194:	30420010 	andi	v0,v0,0x10
    2198:	14400015 	bnez	v0,0x21f0
    219c:	3072003f 	andi	s2,v1,0x3f
    21a0:	81220005 	lb	v0,5(t1)
    21a4:	00000000 	nop
    21a8:	14400011 	bnez	v0,0x21f0
    21ac:	3072003e 	andi	s2,v1,0x3e
    21b0:	27839018 	addiu	v1,gp,-28648
    21b4:	00c31821 	addu	v1,a2,v1
    21b8:	80640000 	lb	a0,0(v1)
    21bc:	2783b578 	addiu	v1,gp,-19080
    21c0:	00041100 	sll	v0,a0,0x4
    21c4:	00441023 	subu	v0,v0,a0
    21c8:	00021080 	sll	v0,v0,0x2
    21cc:	00441023 	subu	v0,v0,a0
    21d0:	00021080 	sll	v0,v0,0x2
    21d4:	00431021 	addu	v0,v0,v1
    21d8:	90440005 	lbu	a0,5(v0)
    21dc:	90430004 	lbu	v1,4(v0)
    21e0:	00000000 	nop
    21e4:	00641824 	and	v1,v1,a0
    21e8:	30630001 	andi	v1,v1,0x1
    21ec:	02439025 	or	s2,s2,v1
    21f0:	2785b400 	addiu	a1,gp,-19456
    21f4:	01852821 	addu	a1,t4,a1
    21f8:	8ca60000 	lw	a2,0(a1)
    21fc:	01731021 	addu	v0,t3,s3
    2200:	27839010 	addiu	v1,gp,-28656
    2204:	90c40016 	lbu	a0,22(a2)
    2208:	00021080 	sll	v0,v0,0x2
    220c:	00431021 	addu	v0,v0,v1
    2210:	308400df 	andi	a0,a0,0xdf
    2214:	90500000 	lbu	s0,0(v0)
    2218:	a0c40016 	sb	a0,22(a2)
    221c:	80c60012 	lb	a2,18(a2)
    2220:	8ca30000 	lw	v1,0(a1)
    2224:	2dc40002 	sltiu	a0,t6,2
    2228:	afa6001c 	sw	a2,28(sp)
    222c:	90620016 	lbu	v0,22(v1)
    2230:	00000000 	nop
    2234:	304200fb 	andi	v0,v0,0xfb
    2238:	14800006 	bnez	a0,0x2254
    223c:	a0620016 	sb	v0,22(v1)
    2240:	24020006 	li	v0,6
    2244:	11c20003 	beq	t6,v0,0x2254
    2248:	24020004 	li	v0,4
    224c:	15c2ff0e 	bne	t6,v0,0x1e88
    2250:	32510002 	andi	s1,s2,0x2
    2254:	32510002 	andi	s1,s2,0x2
    2258:	2e02000c 	sltiu	v0,s0,12
    225c:	1440000f 	bnez	v0,0x229c
    2260:	0011182b 	sltu	v1,zero,s1
    2264:	3202000f 	andi	v0,s0,0xf
    2268:	34420010 	ori	v0,v0,0x10
    226c:	00031900 	sll	v1,v1,0x4
    2270:	00431821 	addu	v1,v0,v1
    2274:	3c02b003 	lui	v0,0xb003
    2278:	344200e0 	ori	v0,v0,0xe0
    227c:	a0430000 	sb	v1,0(v0)
    2280:	00002021 	move	a0,zero
    2284:	02002821 	move	a1,s0
    2288:	0c000203 	jal	0x80c
    228c:	afaf0028 	sw	t7,40(sp)
    2290:	8faf0028 	lw	t7,40(sp)
    2294:	080007c2 	j	0x1f08
    2298:	00000000 	nop
    229c:	080008bd 	j	0x22f4
    22a0:	320300ff 	andi	v1,s0,0xff
    22a4:	3c03b005 	lui	v1,0xb005
    22a8:	34630242 	ori	v1,v1,0x242
    22ac:	90620000 	lbu	v0,0(v1)
    22b0:	00000000 	nop
    22b4:	3042000f 	andi	v0,v0,0xf
    22b8:	1440feaa 	bnez	v0,0x1d64
    22bc:	00000000 	nop
    22c0:	91e20009 	lbu	v0,9(t7)
    22c4:	00000000 	nop
    22c8:	02821026 	xor	v0,s4,v0
    22cc:	08000779 	j	0x1de4
    22d0:	0002280b 	.word	0x2280b
    22d4:	0800077f 	j	0x1dfc
    22d8:	0000b021 	move	s6,zero
    22dc:	24020010 	li	v0,16
    22e0:	10c20008 	beq	a2,v0,0x2304
    22e4:	24020011 	li	v0,17
    22e8:	10c2fe7d 	beq	a2,v0,0x1ce0
    22ec:	00071783 	sra	v0,a3,0x1e
    22f0:	24020012 	li	v0,18
    22f4:	14c2fe7b 	bne	a2,v0,0x1ce4
    22f8:	00071743 	sra	v0,a3,0x1d
    22fc:	08000759 	j	0x1d64
    2300:	305e0001 	andi	s8,v0,0x1
    2304:	08000759 	j	0x1d64
    2308:	0007f7c2 	srl	s8,a3,0x1f
    230c:	00041040 	sll	v0,a0,0x1
    2310:	2783801c 	addiu	v1,gp,-32740
    2314:	00431021 	addu	v0,v0,v1
    2318:	00804021 	move	t0,a0
    231c:	94440000 	lhu	a0,0(v0)
    2320:	2d070004 	sltiu	a3,t0,4
    2324:	24c20003 	addiu	v0,a2,3
    2328:	0047300a 	.word	0x47300a
    232c:	00860018 	mult	a0,a2
    2330:	3c03b003 	lui	v1,0xb003
    2334:	3c028000 	lui	v0,0x8000
    2338:	34630020 	ori	v1,v1,0x20
    233c:	2442238c 	addiu	v0,v0,9100
    2340:	ac620000 	sw	v0,0(v1)
    2344:	2d060010 	sltiu	a2,t0,16
    2348:	00002012 	mflo	a0
    234c:	00042242 	srl	a0,a0,0x9
    2350:	24840001 	addiu	a0,a0,1
    2354:	248300c0 	addiu	v1,a0,192
    2358:	10e0000b 	beqz	a3,0x2388
    235c:	24820060 	addiu	v0,a0,96
    2360:	00402021 	move	a0,v0
    2364:	0065200a 	.word	0x65200a
    2368:	3c03b003 	lui	v1,0xb003
    236c:	34630100 	ori	v1,v1,0x100
    2370:	90620000 	lbu	v0,0(v1)
    2374:	00000000 	nop
    2378:	30420001 	andi	v0,v0,0x1
    237c:	00442004 	sllv	a0,a0,v0
    2380:	03e00008 	jr	ra
    2384:	00801021 	move	v0,a0
    2388:	24850028 	addiu	a1,a0,40
    238c:	24830024 	addiu	v1,a0,36
    2390:	31020008 	andi	v0,t0,0x8
    2394:	14c0fff4 	bnez	a2,0x2368
    2398:	24840014 	addiu	a0,a0,20
    239c:	00602021 	move	a0,v1
    23a0:	080008fa 	j	0x23e8
    23a4:	00a2200b 	.word	0xa2200b
    23a8:	27bdffe0 	addiu	sp,sp,-32
    23ac:	3c03b003 	lui	v1,0xb003
    23b0:	3c028000 	lui	v0,0x8000
    23b4:	afb00010 	sw	s0,16(sp)
    23b8:	24422428 	addiu	v0,v0,9256
    23bc:	00808021 	move	s0,a0
    23c0:	34630020 	ori	v1,v1,0x20
    23c4:	3c04b003 	lui	a0,0xb003
    23c8:	afb20018 	sw	s2,24(sp)
    23cc:	afb10014 	sw	s1,20(sp)
    23d0:	afbf001c 	sw	ra,28(sp)
    23d4:	83b10033 	lb	s1,51(sp)
    23d8:	83a80037 	lb	t0,55(sp)
    23dc:	34840110 	ori	a0,a0,0x110
    23e0:	ac620000 	sw	v0,0(v1)
    23e4:	2e020010 	sltiu	v0,s0,16
    23e8:	00e09021 	move	s2,a3
    23ec:	8c870000 	lw	a3,0(a0)
    23f0:	1440000c 	bnez	v0,0x2424
    23f4:	2e02000c 	sltiu	v0,s0,12
    23f8:	3c02000f 	lui	v0,0xf
    23fc:	3442f000 	ori	v0,v0,0xf000
    2400:	00e21024 	and	v0,a3,v0
    2404:	14400037 	bnez	v0,0x24e4
    2408:	32020008 	andi	v0,s0,0x8
    240c:	32020007 	andi	v0,s0,0x7
    2410:	278380cc 	addiu	v1,gp,-32564
    2414:	00431021 	addu	v0,v0,v1
    2418:	90500000 	lbu	s0,0(v0)
    241c:	00000000 	nop
    2420:	2e02000c 	sltiu	v0,s0,12
    2424:	14400003 	bnez	v0,0x2434
    2428:	02002021 	move	a0,s0
    242c:	3202000f 	andi	v0,s0,0xf
    2430:	2444000c 	addiu	a0,v0,12
    2434:	00871006 	srlv	v0,a3,a0
    2438:	30420001 	andi	v0,v0,0x1
    243c:	14400007 	bnez	v0,0x245c
    2440:	2c82000c 	sltiu	v0,a0,12
    2444:	00041080 	sll	v0,a0,0x2
    2448:	2783b450 	addiu	v1,gp,-19376
    244c:	00431021 	addu	v0,v0,v1
    2450:	8c440000 	lw	a0,0(v0)
    2454:	00000000 	nop
    2458:	2c82000c 	sltiu	v0,a0,12
    245c:	14400005 	bnez	v0,0x2474
    2460:	00051040 	sll	v0,a1,0x1
    2464:	00461021 	addu	v0,v0,a2
    2468:	00021100 	sll	v0,v0,0x4
    246c:	00821021 	addu	v0,a0,v0
    2470:	24440004 	addiu	a0,v0,4
    2474:	15000002 	bnez	t0,0x2480
    2478:	24060020 	li	a2,32
    247c:	2406000e 	li	a2,14
    2480:	0c0008e3 	jal	0x238c
    2484:	00000000 	nop
    2488:	00403021 	move	a2,v0
    248c:	3c02b003 	lui	v0,0xb003
    2490:	34420100 	ori	v0,v0,0x100
    2494:	90430000 	lbu	v1,0(v0)
    2498:	2e040004 	sltiu	a0,s0,4
    249c:	24020010 	li	v0,16
    24a0:	2405000a 	li	a1,10
    24a4:	0044280a 	.word	0x44280a
    24a8:	30630001 	andi	v1,v1,0x1
    24ac:	14600002 	bnez	v1,0x24b8
    24b0:	00051040 	sll	v0,a1,0x1
    24b4:	00a01021 	move	v0,a1
    24b8:	304500ff 	andi	a1,v0,0xff
    24bc:	00c51021 	addu	v0,a2,a1
    24c0:	24460046 	addiu	a2,v0,70
    24c4:	02261804 	sllv	v1,a2,s1
    24c8:	a6430000 	sh	v1,0(s2)
    24cc:	8fbf001c 	lw	ra,28(sp)
    24d0:	8fb20018 	lw	s2,24(sp)
    24d4:	7bb000bc 	.word	0x7bb000bc
    24d8:	00c01021 	move	v0,a2
    24dc:	03e00008 	jr	ra
    24e0:	27bd0020 	addiu	sp,sp,32
    24e4:	1040ffcf 	beqz	v0,0x2424
    24e8:	2e02000c 	sltiu	v0,s0,12
    24ec:	32020007 	andi	v0,s0,0x7
    24f0:	278380c4 	addiu	v1,gp,-32572
    24f4:	00431021 	addu	v0,v0,v1
    24f8:	90440000 	lbu	a0,0(v0)
    24fc:	08000928 	j	0x24a0
    2500:	02048023 	subu	s0,s0,a0
    2504:	27bdffb8 	addiu	sp,sp,-72
    2508:	00053880 	sll	a3,a1,0x2
    250c:	2782b400 	addiu	v0,gp,-19456
    2510:	afbe0040 	sw	s8,64(sp)
    2514:	afb60038 	sw	s6,56(sp)
    2518:	afb3002c 	sw	s3,44(sp)
    251c:	afbf0044 	sw	ra,68(sp)
    2520:	afb7003c 	sw	s7,60(sp)
    2524:	afb50034 	sw	s5,52(sp)
    2528:	afb40030 	sw	s4,48(sp)
    252c:	afb20028 	sw	s2,40(sp)
    2530:	afb10024 	sw	s1,36(sp)
    2534:	afb00020 	sw	s0,32(sp)
    2538:	00e23821 	addu	a3,a3,v0
    253c:	8ce60000 	lw	a2,0(a3)
    2540:	afa5004c 	sw	a1,76(sp)
    2544:	3c028000 	lui	v0,0x8000
    2548:	3c05b003 	lui	a1,0xb003
    254c:	34a50020 	ori	a1,a1,0x20
    2550:	24422584 	addiu	v0,v0,9604
    2554:	24030001 	li	v1,1
    2558:	aca20000 	sw	v0,0(a1)
    255c:	a0c30012 	sb	v1,18(a2)
    2560:	8ce50000 	lw	a1,0(a3)
    2564:	94c30006 	lhu	v1,6(a2)
    2568:	90a20016 	lbu	v0,22(a1)
    256c:	a4c30014 	sh	v1,20(a2)
    2570:	27839000 	addiu	v1,gp,-28672
    2574:	34420008 	ori	v0,v0,0x8
    2578:	a0a20016 	sb	v0,22(a1)
    257c:	8ce80000 	lw	t0,0(a3)
    2580:	afa40048 	sw	a0,72(sp)
    2584:	27829004 	addiu	v0,gp,-28668
    2588:	95110014 	lhu	s1,20(t0)
    258c:	00000000 	nop
    2590:	001198c0 	sll	s3,s1,0x3
    2594:	02712021 	addu	a0,s3,s1
    2598:	00042080 	sll	a0,a0,0x2
    259c:	00821021 	addu	v0,a0,v0
    25a0:	8c520018 	lw	s2,24(v0)
    25a4:	00831821 	addu	v1,a0,v1
    25a8:	84750006 	lh	s5,6(v1)
    25ac:	8e450008 	lw	a1,8(s2)
    25b0:	8e460004 	lw	a2,4(s2)
    25b4:	8e470004 	lw	a3,4(s2)
    25b8:	00051c82 	srl	v1,a1,0x12
    25bc:	00063142 	srl	a2,a2,0x5
    25c0:	27829010 	addiu	v0,gp,-28656
    25c4:	30630001 	andi	v1,v1,0x1
    25c8:	30c60001 	andi	a2,a2,0x1
    25cc:	00822021 	addu	a0,a0,v0
    25d0:	a515001a 	sh	s5,26(t0)
    25d4:	00051442 	srl	v0,a1,0x11
    25d8:	afa30018 	sw	v1,24(sp)
    25dc:	afa6001c 	sw	a2,28(sp)
    25e0:	30e70010 	andi	a3,a3,0x10
    25e4:	30560001 	andi	s6,v0,0x1
    25e8:	80970006 	lb	s7,6(a0)
    25ec:	14e00047 	bnez	a3,0x270c
    25f0:	0005f7c2 	srl	s8,a1,0x1f
    25f4:	80820005 	lb	v0,5(a0)
    25f8:	00000000 	nop
    25fc:	14400044 	bnez	v0,0x2710
    2600:	02711021 	addu	v0,s3,s1
    2604:	9390bbe9 	lbu	s0,-17431(gp)
    2608:	00000000 	nop
    260c:	2e02000c 	sltiu	v0,s0,12
    2610:	14400006 	bnez	v0,0x262c
    2614:	02002021 	move	a0,s0
    2618:	00161040 	sll	v0,s6,0x1
    261c:	00431021 	addu	v0,v0,v1
    2620:	00021100 	sll	v0,v0,0x4
    2624:	02021021 	addu	v0,s0,v0
    2628:	24440004 	addiu	a0,v0,4
    262c:	02711021 	addu	v0,s3,s1
    2630:	00021080 	sll	v0,v0,0x2
    2634:	27839010 	addiu	v1,gp,-28656
    2638:	00431021 	addu	v0,v0,v1
    263c:	00808021 	move	s0,a0
    2640:	a0440003 	sb	a0,3(v0)
    2644:	a0440000 	sb	a0,0(v0)
    2648:	02002021 	move	a0,s0
    264c:	02c02821 	move	a1,s6
    2650:	0c0008e3 	jal	0x238c
    2654:	02a03021 	move	a2,s5
    2658:	02711821 	addu	v1,s3,s1
    265c:	00038880 	sll	s1,v1,0x2
    2660:	0040a021 	move	s4,v0
    2664:	27829020 	addiu	v0,gp,-28640
    2668:	02221021 	addu	v0,s1,v0
    266c:	8c440000 	lw	a0,0(v0)
    2670:	26e30002 	addiu	v1,s7,2
    2674:	000317c2 	srl	v0,v1,0x1f
    2678:	00621821 	addu	v1,v1,v0
    267c:	000425c2 	srl	a0,a0,0x17
    2680:	00031843 	sra	v1,v1,0x1
    2684:	30840001 	andi	a0,a0,0x1
    2688:	00031840 	sll	v1,v1,0x1
    268c:	03c42024 	and	a0,s8,a0
    2690:	14800015 	bnez	a0,0x26e8
    2694:	02433821 	addu	a3,s2,v1
    2698:	3c08b003 	lui	t0,0xb003
    269c:	35080028 	ori	t0,t0,0x28
    26a0:	8d030000 	lw	v1,0(t0)
    26a4:	8fa6004c 	lw	a2,76(sp)
    26a8:	8fa40048 	lw	a0,72(sp)
    26ac:	27829008 	addiu	v0,gp,-28664
    26b0:	02221021 	addu	v0,s1,v0
    26b4:	24630001 	addiu	v1,v1,1
    26b8:	02a02821 	move	a1,s5
    26bc:	a4540004 	sh	s4,4(v0)
    26c0:	00c03821 	move	a3,a2
    26c4:	0c00072f 	jal	0x1cbc
    26c8:	ad030000 	sw	v1,0(t0)
    26cc:	7bbe023c 	.word	0x7bbe023c
    26d0:	7bb601fc 	.word	0x7bb601fc
    26d4:	7bb401bc 	.word	0x7bb401bc
    26d8:	7bb2017c 	.word	0x7bb2017c
    26dc:	7bb0013c 	.word	0x7bb0013c
    26e0:	03e00008 	jr	ra
    26e4:	27bd0048 	addiu	sp,sp,72
    26e8:	8fa2001c 	lw	v0,28(sp)
    26ec:	8fa60018 	lw	a2,24(sp)
    26f0:	02002021 	move	a0,s0
    26f4:	02c02821 	move	a1,s6
    26f8:	afa20010 	sw	v0,16(sp)
    26fc:	0c00090a 	jal	0x2428
    2700:	afa00014 	sw	zero,20(sp)
    2704:	080009c6 	j	0x2718
    2708:	0282a021 	addu	s4,s4,v0
    270c:	02711021 	addu	v0,s3,s1
    2710:	00021080 	sll	v0,v0,0x2
    2714:	27839010 	addiu	v1,gp,-28656
    2718:	00431021 	addu	v0,v0,v1
    271c:	90500000 	lbu	s0,0(v0)
    2720:	080009b2 	j	0x26c8
    2724:	a0500003 	sb	s0,3(v0)
    2728:	27bdffb8 	addiu	sp,sp,-72
    272c:	afb10024 	sw	s1,36(sp)
    2730:	8fb1005c 	lw	s1,92(sp)
    2734:	3c03b003 	lui	v1,0xb003
    2738:	3c028000 	lui	v0,0x8000
    273c:	34630020 	ori	v1,v1,0x20
    2740:	244227a8 	addiu	v0,v0,10152
    2744:	afbe0040 	sw	s8,64(sp)
    2748:	afb7003c 	sw	s7,60(sp)
    274c:	afb60038 	sw	s6,56(sp)
    2750:	afb50034 	sw	s5,52(sp)
    2754:	afb40030 	sw	s4,48(sp)
    2758:	afa5004c 	sw	a1,76(sp)
    275c:	8fb50058 	lw	s5,88(sp)
    2760:	afbf0044 	sw	ra,68(sp)
    2764:	afb3002c 	sw	s3,44(sp)
    2768:	afb20028 	sw	s2,40(sp)
    276c:	afb00020 	sw	s0,32(sp)
    2770:	00e0b021 	move	s6,a3
    2774:	ac620000 	sw	v0,0(v1)
    2778:	0080f021 	move	s8,a0
    277c:	0000b821 	move	s7,zero
    2780:	1620002b 	bnez	s1,0x2830
    2784:	0000a021 	move	s4,zero
    2788:	2785b400 	addiu	a1,gp,-19456
    278c:	00071080 	sll	v0,a3,0x2
    2790:	00451021 	addu	v0,v0,a1
    2794:	8c530000 	lw	s3,0(v0)
    2798:	00151880 	sll	v1,s5,0x2
    279c:	00651821 	addu	v1,v1,a1
    27a0:	92620016 	lbu	v0,22(s3)
    27a4:	8c720000 	lw	s2,0(v1)
    27a8:	30420003 	andi	v0,v0,0x3
    27ac:	1440002d 	bnez	v0,0x2864
    27b0:	00000000 	nop
    27b4:	92420016 	lbu	v0,22(s2)
    27b8:	00000000 	nop
    27bc:	30420003 	andi	v0,v0,0x3
    27c0:	14400028 	bnez	v0,0x2864
    27c4:	00000000 	nop
    27c8:	8c820034 	lw	v0,52(a0)
    27cc:	00000000 	nop
    27d0:	14400018 	bnez	v0,0x2834
    27d4:	02201021 	move	v0,s1
    27d8:	8c820038 	lw	v0,56(a0)
    27dc:	00000000 	nop
    27e0:	14400014 	bnez	v0,0x2834
    27e4:	02201021 	move	v0,s1
    27e8:	8c82003c 	lw	v0,60(a0)
    27ec:	00000000 	nop
    27f0:	1440000f 	bnez	v0,0x2830
    27f4:	3c03b009 	lui	v1,0xb009
    27f8:	3c05b005 	lui	a1,0xb005
    27fc:	34630144 	ori	v1,v1,0x144
    2800:	34a50252 	ori	a1,a1,0x252
    2804:	94660000 	lhu	a2,0(v1)
    2808:	90a20000 	lbu	v0,0(a1)
    280c:	8fa3004c 	lw	v1,76(sp)
    2810:	00000000 	nop
    2814:	00621006 	srlv	v0,v0,v1
    2818:	30420001 	andi	v0,v0,0x1
    281c:	10400004 	beqz	v0,0x2830
    2820:	30c6ffff 	andi	a2,a2,0xffff
    2824:	2cc20041 	sltiu	v0,a2,65
    2828:	10400009 	beqz	v0,0x2850
    282c:	24050014 	li	a1,20
    2830:	02201021 	move	v0,s1
    2834:	7bbe023c 	.word	0x7bbe023c
    2838:	7bb601fc 	.word	0x7bb601fc
    283c:	7bb401bc 	.word	0x7bb401bc
    2840:	7bb2017c 	.word	0x7bb2017c
    2844:	7bb0013c 	.word	0x7bb0013c
    2848:	03e00008 	jr	ra
    284c:	27bd0048 	addiu	sp,sp,72
    2850:	0c00070a 	jal	0x1c28
    2854:	24060107 	li	a2,263
    2858:	24020001 	li	v0,1
    285c:	08000a2c 	j	0x28b0
    2860:	a3c20011 	sb	v0,17(s8)
    2864:	10c0001c 	beqz	a2,0x28d8
    2868:	24020001 	li	v0,1
    286c:	10c20017 	beq	a2,v0,0x28cc
    2870:	00c08821 	move	s1,a2
    2874:	9654001a 	lhu	s4,26(s2)
    2878:	02a0b821 	move	s7,s5
    287c:	1220ffed 	beqz	s1,0x2834
    2880:	02201021 	move	v0,s1
    2884:	2783b400 	addiu	v1,gp,-19456
    2888:	00171080 	sll	v0,s7,0x2
    288c:	00431021 	addu	v0,v0,v1
    2890:	8c440000 	lw	a0,0(v0)
    2894:	3c03b003 	lui	v1,0xb003
    2898:	34630028 	ori	v1,v1,0x28
    289c:	80860012 	lb	a2,18(a0)
    28a0:	8c620000 	lw	v0,0(v1)
    28a4:	00142c00 	sll	a1,s4,0x10
    28a8:	00052c03 	sra	a1,a1,0x10
    28ac:	00461021 	addu	v0,v0,a2
    28b0:	8fa6004c 	lw	a2,76(sp)
    28b4:	02e03821 	move	a3,s7
    28b8:	03c02021 	move	a0,s8
    28bc:	0c00072f 	jal	0x1cbc
    28c0:	ac620000 	sw	v0,0(v1)
    28c4:	08000a2c 	j	0x28b0
    28c8:	afd10040 	sw	s1,64(s8)
    28cc:	9674001a 	lhu	s4,26(s3)
    28d0:	08000a3f 	j	0x28fc
    28d4:	02c0b821 	move	s7,s6
    28d8:	3c02b003 	lui	v0,0xb003
    28dc:	34420108 	ori	v0,v0,0x108
    28e0:	8c500000 	lw	s0,0(v0)
    28e4:	02602021 	move	a0,s3
    28e8:	0c001ef3 	jal	0x7bcc
    28ec:	02002821 	move	a1,s0
    28f0:	304200ff 	andi	v0,v0,0xff
    28f4:	02002821 	move	a1,s0
    28f8:	02402021 	move	a0,s2
    28fc:	0c001ef3 	jal	0x7bcc
    2900:	afa20018 	sw	v0,24(sp)
    2904:	8fa40018 	lw	a0,24(sp)
    2908:	00000000 	nop
    290c:	108000ed 	beqz	a0,0x2cc4
    2910:	305000ff 	andi	s0,v0,0xff
    2914:	12000018 	beqz	s0,0x2978
    2918:	24110001 	li	s1,1
    291c:	96630014 	lhu	v1,20(s3)
    2920:	96440014 	lhu	a0,20(s2)
    2924:	27859000 	addiu	a1,gp,-28672
    2928:	000310c0 	sll	v0,v1,0x3
    292c:	00431021 	addu	v0,v0,v1
    2930:	00021080 	sll	v0,v0,0x2
    2934:	00451021 	addu	v0,v0,a1
    2938:	000418c0 	sll	v1,a0,0x3
    293c:	8c460008 	lw	a2,8(v0)
    2940:	00641821 	addu	v1,v1,a0
    2944:	00031880 	sll	v1,v1,0x2
    2948:	00651821 	addu	v1,v1,a1
    294c:	00061702 	srl	v0,a2,0x1c
    2950:	240400ff 	li	a0,255
    2954:	8c630008 	lw	v1,8(v1)
    2958:	104400d6 	beq	v0,a0,0x2cb4
    295c:	00031702 	srl	v0,v1,0x1c
    2960:	104400d5 	beq	v0,a0,0x2cb8
    2964:	3c028000 	lui	v0,0x8000
    2968:	0066182b 	sltu	v1,v1,a2
    296c:	24110002 	li	s1,2
    2970:	24020001 	li	v0,1
    2974:	0043880a 	.word	0x43880a
    2978:	24020001 	li	v0,1
    297c:	1222005a 	beq	s1,v0,0x2ae8
    2980:	24020002 	li	v0,2
    2984:	1622ffbd 	bne	s1,v0,0x287c
    2988:	00000000 	nop
    298c:	96490014 	lhu	t1,20(s2)
    2990:	27829004 	addiu	v0,gp,-28668
    2994:	02a0b821 	move	s7,s5
    2998:	000950c0 	sll	t2,t1,0x3
    299c:	01491821 	addu	v1,t2,t1
    29a0:	00034080 	sll	t0,v1,0x2
    29a4:	01021021 	addu	v0,t0,v0
    29a8:	8c430018 	lw	v1,24(v0)
    29ac:	00000000 	nop
    29b0:	8c650008 	lw	a1,8(v1)
    29b4:	8c62000c 	lw	v0,12(v1)
    29b8:	8c620004 	lw	v0,4(v1)
    29bc:	00052442 	srl	a0,a1,0x11
    29c0:	00051c82 	srl	v1,a1,0x12
    29c4:	30420010 	andi	v0,v0,0x10
    29c8:	30660001 	andi	a2,v1,0x1
    29cc:	14400041 	bnez	v0,0x2ad4
    29d0:	30870001 	andi	a3,a0,0x1
    29d4:	27829018 	addiu	v0,gp,-28648
    29d8:	01021021 	addu	v0,t0,v0
    29dc:	80440000 	lb	a0,0(v0)
    29e0:	2782b578 	addiu	v0,gp,-19080
    29e4:	00041900 	sll	v1,a0,0x4
    29e8:	00641823 	subu	v1,v1,a0
    29ec:	00031880 	sll	v1,v1,0x2
    29f0:	00641823 	subu	v1,v1,a0
    29f4:	00031880 	sll	v1,v1,0x2
    29f8:	00621021 	addu	v0,v1,v0
    29fc:	90450005 	lbu	a1,5(v0)
    2a00:	2784b4a0 	addiu	a0,gp,-19296
    2a04:	00641821 	addu	v1,v1,a0
    2a08:	90630000 	lbu	v1,0(v1)
    2a0c:	10a0002b 	beqz	a1,0x2abc
    2a10:	2c64000c 	sltiu	a0,v1,12
    2a14:	14800004 	bnez	a0,0x2a28
    2a18:	00601021 	move	v0,v1
    2a1c:	00061100 	sll	v0,a2,0x4
    2a20:	00621021 	addu	v0,v1,v0
    2a24:	24420024 	addiu	v0,v0,36
    2a28:	3c01b003 	lui	at,0xb003
    2a2c:	a02200e1 	sb	v0,225(at)
    2a30:	14800006 	bnez	a0,0x2a4c
    2a34:	00602821 	move	a1,v1
    2a38:	00071040 	sll	v0,a3,0x1
    2a3c:	00461021 	addu	v0,v0,a2
    2a40:	00021100 	sll	v0,v0,0x4
    2a44:	00621021 	addu	v0,v1,v0
    2a48:	24450004 	addiu	a1,v0,4
    2a4c:	01491021 	addu	v0,t2,t1
    2a50:	27839010 	addiu	v1,gp,-28656
    2a54:	00021080 	sll	v0,v0,0x2
    2a58:	00431021 	addu	v0,v0,v1
    2a5c:	00a01821 	move	v1,a1
    2a60:	a0450003 	sb	a1,3(v0)
    2a64:	a0450000 	sb	a1,0(v0)
    2a68:	24020008 	li	v0,8
    2a6c:	1202000b 	beq	s0,v0,0x2a9c
    2a70:	24020001 	li	v0,1
    2a74:	00602821 	move	a1,v1
    2a78:	02402021 	move	a0,s2
    2a7c:	0c001f6f 	jal	0x7dbc
    2a80:	afa20010 	sw	v0,16(sp)
    2a84:	3054ffff 	andi	s4,v0,0xffff
    2a88:	92420016 	lbu	v0,22(s2)
    2a8c:	00000000 	nop
    2a90:	02021025 	or	v0,s0,v0
    2a94:	08000a3f 	j	0x28fc
    2a98:	a2420016 	sb	v0,22(s2)
    2a9c:	00602821 	move	a1,v1
    2aa0:	02402021 	move	a0,s2
    2aa4:	0c001f20 	jal	0x7c80
    2aa8:	afa00010 	sw	zero,16(sp)
    2aac:	08000ac2 	j	0x2b08
    2ab0:	3054ffff 	andi	s4,v0,0xffff
    2ab4:	08000aaa 	j	0x2aa8
    2ab8:	00601021 	move	v0,v1
    2abc:	1480fffd 	bnez	a0,0x2ab4
    2ac0:	00000000 	nop
    2ac4:	00061100 	sll	v0,a2,0x4
    2ac8:	00621021 	addu	v0,v1,v0
    2acc:	08000aaa 	j	0x2aa8
    2ad0:	24420004 	addiu	v0,v0,4
    2ad4:	27829010 	addiu	v0,gp,-28656
    2ad8:	01021021 	addu	v0,t0,v0
    2adc:	90430000 	lbu	v1,0(v0)
    2ae0:	08000aba 	j	0x2ae8
    2ae4:	a0430003 	sb	v1,3(v0)
    2ae8:	96690014 	lhu	t1,20(s3)
    2aec:	02c0b821 	move	s7,s6
    2af0:	240b0001 	li	t3,1
    2af4:	000910c0 	sll	v0,t1,0x3
    2af8:	00491821 	addu	v1,v0,t1
    2afc:	00034080 	sll	t0,v1,0x2
    2b00:	00405021 	move	t2,v0
    2b04:	27829004 	addiu	v0,gp,-28668
    2b08:	01021021 	addu	v0,t0,v0
    2b0c:	8c430018 	lw	v1,24(v0)
    2b10:	00000000 	nop
    2b14:	8c650008 	lw	a1,8(v1)
    2b18:	8c62000c 	lw	v0,12(v1)
    2b1c:	8c620004 	lw	v0,4(v1)
    2b20:	00052442 	srl	a0,a1,0x11
    2b24:	00051c82 	srl	v1,a1,0x12
    2b28:	30420010 	andi	v0,v0,0x10
    2b2c:	30660001 	andi	a2,v1,0x1
    2b30:	1040000d 	beqz	v0,0x2b68
    2b34:	30870001 	andi	a3,a0,0x1
    2b38:	27829018 	addiu	v0,gp,-28648
    2b3c:	01021021 	addu	v0,t0,v0
    2b40:	80430000 	lb	v1,0(v0)
    2b44:	00005821 	move	t3,zero
    2b48:	00031100 	sll	v0,v1,0x4
    2b4c:	00431023 	subu	v0,v0,v1
    2b50:	00021080 	sll	v0,v0,0x2
    2b54:	00431023 	subu	v0,v0,v1
    2b58:	00021080 	sll	v0,v0,0x2
    2b5c:	2783b570 	addiu	v1,gp,-19088
    2b60:	00431021 	addu	v0,v0,v1
    2b64:	a0400004 	sb	zero,4(v0)
    2b68:	1160004f 	beqz	t3,0x2ca8
    2b6c:	00000000 	nop
    2b70:	01491021 	addu	v0,t2,t1
    2b74:	00022080 	sll	a0,v0,0x2
    2b78:	27859010 	addiu	a1,gp,-28656
    2b7c:	00851021 	addu	v0,a0,a1
    2b80:	80430005 	lb	v1,5(v0)
    2b84:	00000000 	nop
    2b88:	14600042 	bnez	v1,0x2c94
    2b8c:	01491021 	addu	v0,t2,t1
    2b90:	27829018 	addiu	v0,gp,-28648
    2b94:	00821021 	addu	v0,a0,v0
    2b98:	80440000 	lb	a0,0(v0)
    2b9c:	2782b578 	addiu	v0,gp,-19080
    2ba0:	00041900 	sll	v1,a0,0x4
    2ba4:	00641823 	subu	v1,v1,a0
    2ba8:	00031880 	sll	v1,v1,0x2
    2bac:	00641823 	subu	v1,v1,a0
    2bb0:	00031880 	sll	v1,v1,0x2
    2bb4:	00621021 	addu	v0,v1,v0
    2bb8:	90450005 	lbu	a1,5(v0)
    2bbc:	2784b4a0 	addiu	a0,gp,-19296
    2bc0:	00641821 	addu	v1,v1,a0
    2bc4:	90630000 	lbu	v1,0(v1)
    2bc8:	10a0002c 	beqz	a1,0x2c7c
    2bcc:	2c64000c 	sltiu	a0,v1,12
    2bd0:	14800004 	bnez	a0,0x2be4
    2bd4:	00601021 	move	v0,v1
    2bd8:	00061100 	sll	v0,a2,0x4
    2bdc:	00621021 	addu	v0,v1,v0
    2be0:	24420024 	addiu	v0,v0,36
    2be4:	3c01b003 	lui	at,0xb003
    2be8:	a02200e1 	sb	v0,225(at)
    2bec:	14800006 	bnez	a0,0x2c08
    2bf0:	00602821 	move	a1,v1
    2bf4:	00071040 	sll	v0,a3,0x1
    2bf8:	00461021 	addu	v0,v0,a2
    2bfc:	00021100 	sll	v0,v0,0x4
    2c00:	00621021 	addu	v0,v1,v0
    2c04:	24450004 	addiu	a1,v0,4
    2c08:	01491021 	addu	v0,t2,t1
    2c0c:	27839010 	addiu	v1,gp,-28656
    2c10:	00021080 	sll	v0,v0,0x2
    2c14:	00431021 	addu	v0,v0,v1
    2c18:	00a01821 	move	v1,a1
    2c1c:	a0450003 	sb	a1,3(v0)
    2c20:	a0450000 	sb	a1,0(v0)
    2c24:	8fa40018 	lw	a0,24(sp)
    2c28:	24020008 	li	v0,8
    2c2c:	1082000c 	beq	a0,v0,0x2c60
    2c30:	00602821 	move	a1,v1
    2c34:	24020001 	li	v0,1
    2c38:	02602021 	move	a0,s3
    2c3c:	0c001f6f 	jal	0x7dbc
    2c40:	afa20010 	sw	v0,16(sp)
    2c44:	8fa30018 	lw	v1,24(sp)
    2c48:	3054ffff 	andi	s4,v0,0xffff
    2c4c:	92620016 	lbu	v0,22(s3)
    2c50:	00000000 	nop
    2c54:	00621025 	or	v0,v1,v0
    2c58:	08000a3f 	j	0x28fc
    2c5c:	a2620016 	sb	v0,22(s3)
    2c60:	02602021 	move	a0,s3
    2c64:	0c001f20 	jal	0x7c80
    2c68:	afa00010 	sw	zero,16(sp)
    2c6c:	08000b31 	j	0x2cc4
    2c70:	00000000 	nop
    2c74:	08000b19 	j	0x2c64
    2c78:	00601021 	move	v0,v1
    2c7c:	1480fffd 	bnez	a0,0x2c74
    2c80:	00000000 	nop
    2c84:	00061100 	sll	v0,a2,0x4
    2c88:	00621021 	addu	v0,v1,v0
    2c8c:	08000b19 	j	0x2c64
    2c90:	24420004 	addiu	v0,v0,4
    2c94:	00021080 	sll	v0,v0,0x2
    2c98:	00451021 	addu	v0,v0,a1
    2c9c:	90430000 	lbu	v1,0(v0)
    2ca0:	08000b29 	j	0x2ca4
    2ca4:	a0430003 	sb	v1,3(v0)
    2ca8:	27859010 	addiu	a1,gp,-28656
    2cac:	08000b45 	j	0x2d14
    2cb0:	01491021 	addu	v0,t2,t1
    2cb4:	3c028000 	lui	v0,0x8000
    2cb8:	00621826 	xor	v1,v1,v0
    2cbc:	08000a7a 	j	0x29e8
    2cc0:	00c23026 	xor	a2,a2,v0
    2cc4:	1200ff2d 	beqz	s0,0x297c
    2cc8:	24020001 	li	v0,1
    2ccc:	08000a7f 	j	0x29fc
    2cd0:	24110002 	li	s1,2
    2cd4:	3c03b003 	lui	v1,0xb003
    2cd8:	3c028000 	lui	v0,0x8000
    2cdc:	27bdffd0 	addiu	sp,sp,-48
    2ce0:	24422d54 	addiu	v0,v0,11604
    2ce4:	34630020 	ori	v1,v1,0x20
    2ce8:	3c05b005 	lui	a1,0xb005
    2cec:	afb30024 	sw	s3,36(sp)
    2cf0:	afb20020 	sw	s2,32(sp)
    2cf4:	afb1001c 	sw	s1,28(sp)
    2cf8:	afbf0028 	sw	ra,40(sp)
    2cfc:	afb00018 	sw	s0,24(sp)
    2d00:	ac620000 	sw	v0,0(v1)
    2d04:	34a50242 	ori	a1,a1,0x242
    2d08:	90a20000 	lbu	v0,0(a1)
    2d0c:	00809021 	move	s2,a0
    2d10:	24110010 	li	s1,16
    2d14:	305300ff 	andi	s3,v0,0xff
    2d18:	24020010 	li	v0,16
    2d1c:	122200cf 	beq	s1,v0,0x305c
    2d20:	00001821 	move	v1,zero
    2d24:	24020011 	li	v0,17
    2d28:	122200c1 	beq	s1,v0,0x3030
    2d2c:	24020012 	li	v0,18
    2d30:	122200b4 	beq	s1,v0,0x3004
    2d34:	00000000 	nop
    2d38:	146000ad 	bnez	v1,0x2ff0
    2d3c:	ae430040 	sw	v1,64(s2)
    2d40:	3c02b005 	lui	v0,0xb005
    2d44:	3442022c 	ori	v0,v0,0x22c
    2d48:	8c440000 	lw	a0,0(v0)
    2d4c:	3c030002 	lui	v1,0x2
    2d50:	346300ff 	ori	v1,v1,0xff
    2d54:	00838024 	and	s0,a0,v1
    2d58:	00101443 	sra	v0,s0,0x11
    2d5c:	10400005 	beqz	v0,0x2d74
    2d60:	00000000 	nop
    2d64:	8e420034 	lw	v0,52(s2)
    2d68:	00000000 	nop
    2d6c:	14400092 	bnez	v0,0x2fb8
    2d70:	00000000 	nop
    2d74:	93838b71 	lbu	v1,-29839(gp)
    2d78:	00000000 	nop
    2d7c:	30620002 	andi	v0,v1,0x2
    2d80:	10400004 	beqz	v0,0x2d94
    2d84:	321000ff 	andi	s0,s0,0xff
    2d88:	001011c3 	sra	v0,s0,0x7
    2d8c:	14400086 	bnez	v0,0x2fa8
    2d90:	00000000 	nop
    2d94:	16000015 	bnez	s0,0x2dec
    2d98:	02001021 	move	v0,s0
    2d9c:	26220001 	addiu	v0,s1,1
    2da0:	305100ff 	andi	s1,v0,0xff
    2da4:	2e230013 	sltiu	v1,s1,19
    2da8:	1460ffdb 	bnez	v1,0x2d18
    2dac:	24030002 	li	v1,2
    2db0:	12630073 	beq	s3,v1,0x2f80
    2db4:	24020005 	li	v0,5
    2db8:	2a620003 	slti	v0,s3,3
    2dbc:	10400058 	beqz	v0,0x2f20
    2dc0:	24020004 	li	v0,4
    2dc4:	24020001 	li	v0,1
    2dc8:	1262004b 	beq	s3,v0,0x2ef8
    2dcc:	02402021 	move	a0,s2
    2dd0:	3c02b005 	lui	v0,0xb005
    2dd4:	3442022c 	ori	v0,v0,0x22c
    2dd8:	8c430000 	lw	v1,0(v0)
    2ddc:	00000000 	nop
    2de0:	307000ff 	andi	s0,v1,0xff
    2de4:	12000006 	beqz	s0,0x2e00
    2de8:	02001021 	move	v0,s0
    2dec:	8fbf0028 	lw	ra,40(sp)
    2df0:	7bb2013c 	.word	0x7bb2013c
    2df4:	7bb000fc 	.word	0x7bb000fc
    2df8:	03e00008 	jr	ra
    2dfc:	27bd0030 	addiu	sp,sp,48
    2e00:	92460004 	lbu	a2,4(s2)
    2e04:	8e430024 	lw	v1,36(s2)
    2e08:	24020007 	li	v0,7
    2e0c:	02402021 	move	a0,s2
    2e10:	00002821 	move	a1,zero
    2e14:	24070006 	li	a3,6
    2e18:	afa20010 	sw	v0,16(sp)
    2e1c:	0c0009ea 	jal	0x27a8
    2e20:	afa30014 	sw	v1,20(sp)
    2e24:	ae420024 	sw	v0,36(s2)
    2e28:	3c02b005 	lui	v0,0xb005
    2e2c:	8c42022c 	lw	v0,556(v0)
    2e30:	00000000 	nop
    2e34:	305000ff 	andi	s0,v0,0xff
    2e38:	1600ffec 	bnez	s0,0x2dec
    2e3c:	02001021 	move	v0,s0
    2e40:	92460005 	lbu	a2,5(s2)
    2e44:	8e430028 	lw	v1,40(s2)
    2e48:	24020005 	li	v0,5
    2e4c:	02402021 	move	a0,s2
    2e50:	24050001 	li	a1,1
    2e54:	24070004 	li	a3,4
    2e58:	afa20010 	sw	v0,16(sp)
    2e5c:	0c0009ea 	jal	0x27a8
    2e60:	afa30014 	sw	v1,20(sp)
    2e64:	ae420028 	sw	v0,40(s2)
    2e68:	3c02b005 	lui	v0,0xb005
    2e6c:	8c42022c 	lw	v0,556(v0)
    2e70:	00000000 	nop
    2e74:	305000ff 	andi	s0,v0,0xff
    2e78:	1600ffdc 	bnez	s0,0x2dec
    2e7c:	02001021 	move	v0,s0
    2e80:	92460006 	lbu	a2,6(s2)
    2e84:	8e43002c 	lw	v1,44(s2)
    2e88:	24020003 	li	v0,3
    2e8c:	02402021 	move	a0,s2
    2e90:	24050002 	li	a1,2
    2e94:	00003821 	move	a3,zero
    2e98:	afa20010 	sw	v0,16(sp)
    2e9c:	0c0009ea 	jal	0x27a8
    2ea0:	afa30014 	sw	v1,20(sp)
    2ea4:	ae42002c 	sw	v0,44(s2)
    2ea8:	3c02b005 	lui	v0,0xb005
    2eac:	8c42022c 	lw	v0,556(v0)
    2eb0:	00000000 	nop
    2eb4:	305000ff 	andi	s0,v0,0xff
    2eb8:	1600ffcc 	bnez	s0,0x2dec
    2ebc:	02001021 	move	v0,s0
    2ec0:	92460007 	lbu	a2,7(s2)
    2ec4:	8e430030 	lw	v1,48(s2)
    2ec8:	24020002 	li	v0,2
    2ecc:	02402021 	move	a0,s2
    2ed0:	24050003 	li	a1,3
    2ed4:	24070001 	li	a3,1
    2ed8:	afa20010 	sw	v0,16(sp)
    2edc:	0c0009ea 	jal	0x27a8
    2ee0:	afa30014 	sw	v1,20(sp)
    2ee4:	ae420030 	sw	v0,48(s2)
    2ee8:	3c02b005 	lui	v0,0xb005
    2eec:	8c42022c 	lw	v0,556(v0)
    2ef0:	08000b9b 	j	0x2e6c
    2ef4:	304200ff 	andi	v0,v0,0xff
    2ef8:	92460004 	lbu	a2,4(s2)
    2efc:	8e430024 	lw	v1,36(s2)
    2f00:	24020007 	li	v0,7
    2f04:	00002821 	move	a1,zero
    2f08:	24070006 	li	a3,6
    2f0c:	afa20010 	sw	v0,16(sp)
    2f10:	0c0009ea 	jal	0x27a8
    2f14:	afa30014 	sw	v1,20(sp)
    2f18:	08000b94 	j	0x2e50
    2f1c:	ae420024 	sw	v0,36(s2)
    2f20:	1262000d 	beq	s3,v0,0x2f58
    2f24:	24020003 	li	v0,3
    2f28:	24020008 	li	v0,8
    2f2c:	1662ffa8 	bne	s3,v0,0x2dd0
    2f30:	02402021 	move	a0,s2
    2f34:	92460007 	lbu	a2,7(s2)
    2f38:	8e420030 	lw	v0,48(s2)
    2f3c:	24050003 	li	a1,3
    2f40:	24070001 	li	a3,1
    2f44:	afa30010 	sw	v1,16(sp)
    2f48:	0c0009ea 	jal	0x27a8
    2f4c:	afa20014 	sw	v0,20(sp)
    2f50:	08000b94 	j	0x2e50
    2f54:	ae420030 	sw	v0,48(s2)
    2f58:	92460006 	lbu	a2,6(s2)
    2f5c:	8e43002c 	lw	v1,44(s2)
    2f60:	02402021 	move	a0,s2
    2f64:	24050002 	li	a1,2
    2f68:	00003821 	move	a3,zero
    2f6c:	afa20010 	sw	v0,16(sp)
    2f70:	0c0009ea 	jal	0x27a8
    2f74:	afa30014 	sw	v1,20(sp)
    2f78:	08000b94 	j	0x2e50
    2f7c:	ae42002c 	sw	v0,44(s2)
    2f80:	92460005 	lbu	a2,5(s2)
    2f84:	8e430028 	lw	v1,40(s2)
    2f88:	02402021 	move	a0,s2
    2f8c:	24050001 	li	a1,1
    2f90:	24070004 	li	a3,4
    2f94:	afa20010 	sw	v0,16(sp)
    2f98:	0c0009ea 	jal	0x27a8
    2f9c:	afa30014 	sw	v1,20(sp)
    2fa0:	08000b94 	j	0x2e50
    2fa4:	ae420028 	sw	v0,40(s2)
    2fa8:	0c000157 	jal	0x55c
    2fac:	24040001 	li	a0,1
    2fb0:	08000b85 	j	0x2e14
    2fb4:	00000000 	nop
    2fb8:	8f84b440 	lw	a0,-19392(gp)
    2fbc:	ae400034 	sw	zero,52(s2)
    2fc0:	94850014 	lhu	a1,20(a0)
    2fc4:	0c001b66 	jal	0x6d98
    2fc8:	00000000 	nop
    2fcc:	93838b71 	lbu	v1,-29839(gp)
    2fd0:	00000000 	nop
    2fd4:	30620002 	andi	v0,v1,0x2
    2fd8:	1040ff69 	beqz	v0,0x2d80
    2fdc:	00000000 	nop
    2fe0:	0c000157 	jal	0x55c
    2fe4:	00002021 	move	a0,zero
    2fe8:	08000b7d 	j	0x2df4
    2fec:	00000000 	nop
    2ff0:	02402021 	move	a0,s2
    2ff4:	0c000961 	jal	0x2584
    2ff8:	02202821 	move	a1,s1
    2ffc:	08000b71 	j	0x2dc4
    3000:	3c02b005 	lui	v0,0xb005
    3004:	8e42003c 	lw	v0,60(s2)
    3008:	00000000 	nop
    300c:	1440ff4a 	bnez	v0,0x2d38
    3010:	00000000 	nop
    3014:	8f82b448 	lw	v0,-19384(gp)
    3018:	00000000 	nop
    301c:	9042000a 	lbu	v0,10(v0)
    3020:	00000000 	nop
    3024:	0002182b 	sltu	v1,zero,v0
    3028:	08000b6e 	j	0x2db8
    302c:	ae43003c 	sw	v1,60(s2)
    3030:	8e420038 	lw	v0,56(s2)
    3034:	00000000 	nop
    3038:	1440ff3d 	bnez	v0,0x2d30
    303c:	24020012 	li	v0,18
    3040:	8f82b444 	lw	v0,-19388(gp)
    3044:	00000000 	nop
    3048:	9042000a 	lbu	v0,10(v0)
    304c:	00000000 	nop
    3050:	0002182b 	sltu	v1,zero,v0
    3054:	08000b6e 	j	0x2db8
    3058:	ae430038 	sw	v1,56(s2)
    305c:	8e420034 	lw	v0,52(s2)
    3060:	00000000 	nop
    3064:	1440ff30 	bnez	v0,0x2d28
    3068:	24020011 	li	v0,17
    306c:	8f82b440 	lw	v0,-19392(gp)
    3070:	00000000 	nop
    3074:	9042000a 	lbu	v0,10(v0)
    3078:	00000000 	nop
    307c:	0002182b 	sltu	v1,zero,v0
    3080:	08000b6e 	j	0x2db8
    3084:	ae430034 	sw	v1,52(s2)
    3088:	3c03b003 	lui	v1,0xb003
    308c:	3c028000 	lui	v0,0x8000
    3090:	27bdffe0 	addiu	sp,sp,-32
    3094:	34630020 	ori	v1,v1,0x20
    3098:	24423108 	addiu	v0,v0,12552
    309c:	3c08b003 	lui	t0,0xb003
    30a0:	afb10014 	sw	s1,20(sp)
    30a4:	ac620000 	sw	v0,0(v1)
    30a8:	35080100 	ori	t0,t0,0x100
    30ac:	afbf0018 	sw	ra,24(sp)
    30b0:	afb00010 	sw	s0,16(sp)
    30b4:	91030000 	lbu	v1,0(t0)
    30b8:	00a04821 	move	t1,a1
    30bc:	2411000a 	li	s1,10
    30c0:	2ca50004 	sltiu	a1,a1,4
    30c4:	24020010 	li	v0,16
    30c8:	0045880a 	.word	0x45880a
    30cc:	30630001 	andi	v1,v1,0x1
    30d0:	00c02821 	move	a1,a2
    30d4:	14600002 	bnez	v1,0x30e0
    30d8:	00114040 	sll	t0,s1,0x1
    30dc:	02204021 	move	t0,s1
    30e0:	8483000c 	lh	v1,12(a0)
    30e4:	311100ff 	andi	s1,t0,0xff
    30e8:	01202021 	move	a0,t1
    30ec:	000310c0 	sll	v0,v1,0x3
    30f0:	00431021 	addu	v0,v0,v1
    30f4:	00021080 	sll	v0,v0,0x2
    30f8:	27839008 	addiu	v1,gp,-28664
    30fc:	00431021 	addu	v0,v0,v1
    3100:	84430004 	lh	v1,4(v0)
    3104:	2406000e 	li	a2,14
    3108:	10e00006 	beqz	a3,0x3124
    310c:	02238021 	addu	s0,s1,v1
    3110:	02001021 	move	v0,s0
    3114:	8fbf0018 	lw	ra,24(sp)
    3118:	7bb000bc 	.word	0x7bb000bc
    311c:	03e00008 	jr	ra
    3120:	27bd0020 	addiu	sp,sp,32
    3124:	0c0008e3 	jal	0x238c
    3128:	00000000 	nop
    312c:	02111821 	addu	v1,s0,s1
    3130:	08000c64 	j	0x3190
    3134:	00628021 	addu	s0,v1,v0
    3138:	27bdffd0 	addiu	sp,sp,-48
    313c:	afbf0028 	sw	ra,40(sp)
    3140:	afb40020 	sw	s4,32(sp)
    3144:	afb3001c 	sw	s3,28(sp)
    3148:	afb20018 	sw	s2,24(sp)
    314c:	afb50024 	sw	s5,36(sp)
    3150:	afb10014 	sw	s1,20(sp)
    3154:	afb00010 	sw	s0,16(sp)
    3158:	8482000c 	lh	v0,12(a0)
    315c:	3c06b003 	lui	a2,0xb003
    3160:	34c60020 	ori	a2,a2,0x20
    3164:	000218c0 	sll	v1,v0,0x3
    3168:	00621821 	addu	v1,v1,v0
    316c:	00031880 	sll	v1,v1,0x2
    3170:	27829004 	addiu	v0,gp,-28668
    3174:	00621021 	addu	v0,v1,v0
    3178:	8c550018 	lw	s5,24(v0)
    317c:	3c028000 	lui	v0,0x8000
    3180:	244231b8 	addiu	v0,v0,12728
    3184:	acc20000 	sw	v0,0(a2)
    3188:	8eb00008 	lw	s0,8(s5)
    318c:	27829008 	addiu	v0,gp,-28664
    3190:	00621821 	addu	v1,v1,v0
    3194:	90710007 	lbu	s1,7(v1)
    3198:	00108643 	sra	s0,s0,0x19
    319c:	32100001 	andi	s0,s0,0x1
    31a0:	00a03821 	move	a3,a1
    31a4:	02003021 	move	a2,s0
    31a8:	00a09821 	move	s3,a1
    31ac:	02202821 	move	a1,s1
    31b0:	0c000c42 	jal	0x3108
    31b4:	00809021 	move	s2,a0
    31b8:	02202021 	move	a0,s1
    31bc:	02002821 	move	a1,s0
    31c0:	24060014 	li	a2,20
    31c4:	0c0008e3 	jal	0x238c
    31c8:	0040a021 	move	s4,v0
    31cc:	8643000c 	lh	v1,12(s2)
    31d0:	3c09b009 	lui	t1,0xb009
    31d4:	3c08b009 	lui	t0,0xb009
    31d8:	000310c0 	sll	v0,v1,0x3
    31dc:	00431021 	addu	v0,v0,v1
    31e0:	00021080 	sll	v0,v0,0x2
    31e4:	27839010 	addiu	v1,gp,-28656
    31e8:	00431021 	addu	v0,v0,v1
    31ec:	80430006 	lb	v1,6(v0)
    31f0:	3c07b009 	lui	a3,0xb009
    31f4:	3c05b009 	lui	a1,0xb009
    31f8:	28620000 	slti	v0,v1,0
    31fc:	24640003 	addiu	a0,v1,3
    3200:	0082180b 	.word	0x82180b
    3204:	00031883 	sra	v1,v1,0x2
    3208:	3c02b009 	lui	v0,0xb009
    320c:	00031880 	sll	v1,v1,0x2
    3210:	34420102 	ori	v0,v0,0x102
    3214:	35290110 	ori	t1,t1,0x110
    3218:	35080114 	ori	t0,t0,0x114
    321c:	34e70120 	ori	a3,a3,0x120
    3220:	34a50124 	ori	a1,a1,0x124
    3224:	a4540000 	sh	s4,0(v0)
    3228:	12600011 	beqz	s3,0x3270
    322c:	02a3a821 	addu	s5,s5,v1
    3230:	8ea2000c 	lw	v0,12(s5)
    3234:	8ea30008 	lw	v1,8(s5)
    3238:	00021400 	sll	v0,v0,0x10
    323c:	00031c02 	srl	v1,v1,0x10
    3240:	00431021 	addu	v0,v0,v1
    3244:	ad220000 	sw	v0,0(t1)
    3248:	8ea3000c 	lw	v1,12(s5)
    324c:	00000000 	nop
    3250:	00031c02 	srl	v1,v1,0x10
    3254:	a5030000 	sh	v1,0(t0)
    3258:	8fbf0028 	lw	ra,40(sp)
    325c:	7bb4013c 	.word	0x7bb4013c
    3260:	7bb200fc 	.word	0x7bb200fc
    3264:	7bb000bc 	.word	0x7bb000bc
    3268:	03e00008 	jr	ra
    326c:	27bd0030 	addiu	sp,sp,48
    3270:	8ea20004 	lw	v0,4(s5)
    3274:	00000000 	nop
    3278:	ad220000 	sw	v0,0(t1)
    327c:	8ea40008 	lw	a0,8(s5)
    3280:	00000000 	nop
    3284:	a5040000 	sh	a0,0(t0)
    3288:	7aa2007c 	.word	0x7aa2007c
    328c:	00000000 	nop
    3290:	00031c00 	sll	v1,v1,0x10
    3294:	00021402 	srl	v0,v0,0x10
    3298:	00621821 	addu	v1,v1,v0
    329c:	ace30000 	sw	v1,0(a3)
    32a0:	8ea2000c 	lw	v0,12(s5)
    32a4:	00000000 	nop
    32a8:	00021402 	srl	v0,v0,0x10
    32ac:	08000cb6 	j	0x32d8
    32b0:	a4a20000 	sh	v0,0(a1)
    32b4:	27bdffe0 	addiu	sp,sp,-32
    32b8:	afb20018 	sw	s2,24(sp)
    32bc:	afb00010 	sw	s0,16(sp)
    32c0:	afbf001c 	sw	ra,28(sp)
    32c4:	afb10014 	sw	s1,20(sp)
    32c8:	8482000c 	lh	v0,12(a0)
    32cc:	00809021 	move	s2,a0
    32d0:	3c05b003 	lui	a1,0xb003
    32d4:	000220c0 	sll	a0,v0,0x3
    32d8:	00822021 	addu	a0,a0,v0
    32dc:	00042080 	sll	a0,a0,0x2
    32e0:	27829004 	addiu	v0,gp,-28668
    32e4:	00821021 	addu	v0,a0,v0
    32e8:	8c510018 	lw	s1,24(v0)
    32ec:	3c028000 	lui	v0,0x8000
    32f0:	34a50020 	ori	a1,a1,0x20
    32f4:	24423334 	addiu	v0,v0,13108
    32f8:	27839008 	addiu	v1,gp,-28664
    32fc:	aca20000 	sw	v0,0(a1)
    3300:	00832021 	addu	a0,a0,v1
    3304:	3c02b003 	lui	v0,0xb003
    3308:	90860007 	lbu	a2,7(a0)
    330c:	34420100 	ori	v0,v0,0x100
    3310:	8e230008 	lw	v1,8(s1)
    3314:	90440000 	lbu	a0,0(v0)
    3318:	2cc50004 	sltiu	a1,a2,4
    331c:	24020010 	li	v0,16
    3320:	2410000a 	li	s0,10
    3324:	0045800a 	.word	0x45800a
    3328:	00031e43 	sra	v1,v1,0x19
    332c:	30840001 	andi	a0,a0,0x1
    3330:	30650001 	andi	a1,v1,0x1
    3334:	14800002 	bnez	a0,0x3340
    3338:	00101040 	sll	v0,s0,0x1
    333c:	02001021 	move	v0,s0
    3340:	00c02021 	move	a0,a2
    3344:	24060020 	li	a2,32
    3348:	0c0008e3 	jal	0x238c
    334c:	305000ff 	andi	s0,v0,0xff
    3350:	8644000c 	lh	a0,12(s2)
    3354:	27859010 	addiu	a1,gp,-28656
    3358:	3c06b009 	lui	a2,0xb009
    335c:	000418c0 	sll	v1,a0,0x3
    3360:	00641821 	addu	v1,v1,a0
    3364:	00031880 	sll	v1,v1,0x2
    3368:	00651821 	addu	v1,v1,a1
    336c:	80640006 	lb	a0,6(v1)
    3370:	00501021 	addu	v0,v0,s0
    3374:	34c60102 	ori	a2,a2,0x102
    3378:	24850003 	addiu	a1,a0,3
    337c:	28830000 	slti	v1,a0,0
    3380:	00a3200b 	.word	0xa3200b
    3384:	00042083 	sra	a0,a0,0x2
    3388:	00042080 	sll	a0,a0,0x2
    338c:	a4c20000 	sh	v0,0(a2)
    3390:	02242021 	addu	a0,s1,a0
    3394:	8c830004 	lw	v1,4(a0)
    3398:	3c02b009 	lui	v0,0xb009
    339c:	34420110 	ori	v0,v0,0x110
    33a0:	ac430000 	sw	v1,0(v0)
    33a4:	8c860008 	lw	a2,8(a0)
    33a8:	3c02b009 	lui	v0,0xb009
    33ac:	34420114 	ori	v0,v0,0x114
    33b0:	a4460000 	sh	a2,0(v0)
    33b4:	8c85000c 	lw	a1,12(a0)
    33b8:	8c820008 	lw	v0,8(a0)
    33bc:	3c06b009 	lui	a2,0xb009
    33c0:	00052c00 	sll	a1,a1,0x10
    33c4:	00021402 	srl	v0,v0,0x10
    33c8:	00a22821 	addu	a1,a1,v0
    33cc:	34c60120 	ori	a2,a2,0x120
    33d0:	acc50000 	sw	a1,0(a2)
    33d4:	8c83000c 	lw	v1,12(a0)
    33d8:	3c05b009 	lui	a1,0xb009
    33dc:	34a50124 	ori	a1,a1,0x124
    33e0:	00031c02 	srl	v1,v1,0x10
    33e4:	a4a30000 	sh	v1,0(a1)
    33e8:	9242000a 	lbu	v0,10(s2)
    33ec:	3c03b009 	lui	v1,0xb009
    33f0:	34630130 	ori	v1,v1,0x130
    33f4:	00021300 	sll	v0,v0,0xc
    33f8:	24420004 	addiu	v0,v0,4
    33fc:	3042ffff 	andi	v0,v0,0xffff
    3400:	a4620000 	sh	v0,0(v1)
    3404:	8644000c 	lh	a0,12(s2)
    3408:	27839018 	addiu	v1,gp,-28648
    340c:	8fbf001c 	lw	ra,28(sp)
    3410:	000410c0 	sll	v0,a0,0x3
    3414:	00441021 	addu	v0,v0,a0
    3418:	00021080 	sll	v0,v0,0x2
    341c:	00431021 	addu	v0,v0,v1
    3420:	94440002 	lhu	a0,2(v0)
    3424:	8fb20018 	lw	s2,24(sp)
    3428:	7bb000bc 	.word	0x7bb000bc
    342c:	3c05b009 	lui	a1,0xb009
    3430:	34a50132 	ori	a1,a1,0x132
    3434:	a4a40000 	sh	a0,0(a1)
    3438:	03e00008 	jr	ra
    343c:	27bd0020 	addiu	sp,sp,32
    3440:	27bdffe0 	addiu	sp,sp,-32
    3444:	3c02b003 	lui	v0,0xb003
    3448:	3c038000 	lui	v1,0x8000
    344c:	afb00010 	sw	s0,16(sp)
    3450:	34420020 	ori	v0,v0,0x20
    3454:	00a08021 	move	s0,a1
    3458:	246334c0 	addiu	v1,v1,13504
    345c:	00052c43 	sra	a1,a1,0x11
    3460:	afb10014 	sw	s1,20(sp)
    3464:	afbf0018 	sw	ra,24(sp)
    3468:	ac430000 	sw	v1,0(v0)
    346c:	10a00005 	beqz	a1,0x3484
    3470:	00808821 	move	s1,a0
    3474:	8c820034 	lw	v0,52(a0)
    3478:	00000000 	nop
    347c:	144000b6 	bnez	v0,0x3758
    3480:	00000000 	nop
    3484:	321000ff 	andi	s0,s0,0xff
    3488:	1200004c 	beqz	s0,0x35bc
    348c:	00001021 	move	v0,zero
    3490:	24020008 	li	v0,8
    3494:	120200a3 	beq	s0,v0,0x3724
    3498:	2a020009 	slti	v0,s0,9
    349c:	10400089 	beqz	v0,0x36c4
    34a0:	24020040 	li	v0,64
    34a4:	24040002 	li	a0,2
    34a8:	12040079 	beq	s0,a0,0x3690
    34ac:	2a020003 	slti	v0,s0,3
    34b0:	10400069 	beqz	v0,0x3658
    34b4:	24020004 	li	v0,4
    34b8:	24020001 	li	v0,1
    34bc:	1202005a 	beq	s0,v0,0x3628
    34c0:	00000000 	nop
    34c4:	3c02b005 	lui	v0,0xb005
    34c8:	34420008 	ori	v0,v0,0x8
    34cc:	3c038000 	lui	v1,0x8000
    34d0:	a220004e 	sb	zero,78(s1)
    34d4:	ac430000 	sw	v1,0(v0)
    34d8:	82240011 	lb	a0,17(s1)
    34dc:	92270011 	lbu	a3,17(s1)
    34e0:	1080004e 	beqz	a0,0x361c
    34e4:	00000000 	nop
    34e8:	9226000a 	lbu	a2,10(s1)
    34ec:	24020012 	li	v0,18
    34f0:	10460009 	beq	v0,a2,0x3518
    34f4:	30c200ff 	andi	v0,a2,0xff
    34f8:	2783b400 	addiu	v1,gp,-19456
    34fc:	00021080 	sll	v0,v0,0x2
    3500:	00431021 	addu	v0,v0,v1
    3504:	8c440000 	lw	a0,0(v0)
    3508:	00000000 	nop
    350c:	94830014 	lhu	v1,20(a0)
    3510:	00000000 	nop
    3514:	a623000c 	sh	v1,12(s1)
    3518:	3c02b009 	lui	v0,0xb009
    351c:	34420040 	ori	v0,v0,0x40
    3520:	90430000 	lbu	v1,0(v0)
    3524:	00000000 	nop
    3528:	30630003 	andi	v1,v1,0x3
    352c:	a2230010 	sb	v1,16(s1)
    3530:	1460002b 	bnez	v1,0x35e0
    3534:	30650001 	andi	a1,v1,0x1
    3538:	30c200ff 	andi	v0,a2,0xff
    353c:	2783b400 	addiu	v1,gp,-19456
    3540:	00021080 	sll	v0,v0,0x2
    3544:	00431021 	addu	v0,v0,v1
    3548:	8c440000 	lw	a0,0(v0)
    354c:	82230012 	lb	v1,18(s1)
    3550:	90820016 	lbu	v0,22(a0)
    3554:	00000000 	nop
    3558:	00021142 	srl	v0,v0,0x5
    355c:	30420001 	andi	v0,v0,0x1
    3560:	00621821 	addu	v1,v1,v0
    3564:	00032600 	sll	a0,v1,0x18
    3568:	14800018 	bnez	a0,0x35cc
    356c:	a2230012 	sb	v1,18(s1)
    3570:	00071600 	sll	v0,a3,0x18
    3574:	14400011 	bnez	v0,0x35bc
    3578:	24020001 	li	v0,1
    357c:	9623000c 	lhu	v1,12(s1)
    3580:	27849010 	addiu	a0,gp,-28656
    3584:	000310c0 	sll	v0,v1,0x3
    3588:	00431021 	addu	v0,v0,v1
    358c:	00021080 	sll	v0,v0,0x2
    3590:	00441021 	addu	v0,v0,a0
    3594:	80450006 	lb	a1,6(v0)
    3598:	00031a00 	sll	v1,v1,0x8
    359c:	3c02b000 	lui	v0,0xb000
    35a0:	00651821 	addu	v1,v1,a1
    35a4:	00621821 	addu	v1,v1,v0
    35a8:	90640000 	lbu	a0,0(v1)
    35ac:	90620004 	lbu	v0,4(v1)
    35b0:	a2200015 	sb	zero,21(s1)
    35b4:	a3808bd4 	sb	zero,-29740(gp)
    35b8:	24020001 	li	v0,1
    35bc:	8fbf0018 	lw	ra,24(sp)
    35c0:	7bb000bc 	.word	0x7bb000bc
    35c4:	03e00008 	jr	ra
    35c8:	27bd0020 	addiu	sp,sp,32
    35cc:	0c000ccd 	jal	0x3334
    35d0:	02202021 	move	a0,s1
    35d4:	92270011 	lbu	a3,17(s1)
    35d8:	08000d7d 	j	0x35f4
    35dc:	00071600 	sll	v0,a3,0x18
    35e0:	0c000c6e 	jal	0x31b8
    35e4:	02202021 	move	a0,s1
    35e8:	8623000c 	lh	v1,12(s1)
    35ec:	27849008 	addiu	a0,gp,-28664
    35f0:	000310c0 	sll	v0,v1,0x3
    35f4:	00431021 	addu	v0,v0,v1
    35f8:	00021080 	sll	v0,v0,0x2
    35fc:	00442021 	addu	a0,v0,a0
    3600:	90850007 	lbu	a1,7(a0)
    3604:	27839010 	addiu	v1,gp,-28656
    3608:	00431021 	addu	v0,v0,v1
    360c:	a2250013 	sb	a1,19(s1)
    3610:	90830007 	lbu	v1,7(a0)
    3614:	08000d95 	j	0x3654
    3618:	a0430002 	sb	v1,2(v0)
    361c:	9226000a 	lbu	a2,10(s1)
    3620:	08000d5e 	j	0x3578
    3624:	30c200ff 	andi	v0,a2,0xff
    3628:	8e220024 	lw	v0,36(s1)
    362c:	00000000 	nop
    3630:	10500007 	beq	v0,s0,0x3650
    3634:	a2200008 	sb	zero,8(s1)
    3638:	24020007 	li	v0,7
    363c:	a222000a 	sb	v0,10(s1)
    3640:	92220027 	lbu	v0,39(s1)
    3644:	ae200024 	sw	zero,36(s1)
    3648:	08000d51 	j	0x3544
    364c:	a2220004 	sb	v0,4(s1)
    3650:	08000daf 	j	0x36bc
    3654:	24020006 	li	v0,6
    3658:	1602ff9b 	bne	s0,v0,0x34c8
    365c:	3c02b005 	lui	v0,0xb005
    3660:	8e23002c 	lw	v1,44(s1)
    3664:	24020001 	li	v0,1
    3668:	10620007 	beq	v1,v0,0x3688
    366c:	a2240008 	sb	a0,8(s1)
    3670:	24020003 	li	v0,3
    3674:	a222000a 	sb	v0,10(s1)
    3678:	9222002f 	lbu	v0,47(s1)
    367c:	ae20002c 	sw	zero,44(s1)
    3680:	08000d51 	j	0x3544
    3684:	a2220006 	sb	v0,6(s1)
    3688:	08000dbe 	j	0x36f8
    368c:	a220000a 	sb	zero,10(s1)
    3690:	8e220028 	lw	v0,40(s1)
    3694:	24030001 	li	v1,1
    3698:	24040001 	li	a0,1
    369c:	10440007 	beq	v0,a0,0x36bc
    36a0:	a2230008 	sb	v1,8(s1)
    36a4:	24020005 	li	v0,5
    36a8:	a222000a 	sb	v0,10(s1)
    36ac:	9222002b 	lbu	v0,43(s1)
    36b0:	ae200028 	sw	zero,40(s1)
    36b4:	08000d51 	j	0x3544
    36b8:	a2220005 	sb	v0,5(s1)
    36bc:	08000dca 	j	0x3728
    36c0:	24020004 	li	v0,4
    36c4:	12020012 	beq	s0,v0,0x3710
    36c8:	2a020041 	slti	v0,s0,65
    36cc:	10400009 	beqz	v0,0x36f4
    36d0:	24020080 	li	v0,128
    36d4:	24020020 	li	v0,32
    36d8:	1602ff7b 	bne	s0,v0,0x34c8
    36dc:	3c02b005 	lui	v0,0xb005
    36e0:	24020012 	li	v0,18
    36e4:	a222000a 	sb	v0,10(s1)
    36e8:	a2220008 	sb	v0,8(s1)
    36ec:	08000d51 	j	0x3544
    36f0:	ae20003c 	sw	zero,60(s1)
    36f4:	1602ff74 	bne	s0,v0,0x34c8
    36f8:	3c02b005 	lui	v0,0xb005
    36fc:	24020010 	li	v0,16
    3700:	a222000a 	sb	v0,10(s1)
    3704:	a2220008 	sb	v0,8(s1)
    3708:	08000d51 	j	0x3544
    370c:	ae200034 	sw	zero,52(s1)
    3710:	24020011 	li	v0,17
    3714:	a222000a 	sb	v0,10(s1)
    3718:	a2220008 	sb	v0,8(s1)
    371c:	08000d51 	j	0x3544
    3720:	ae200038 	sw	zero,56(s1)
    3724:	8e240030 	lw	a0,48(s1)
    3728:	24020003 	li	v0,3
    372c:	24030001 	li	v1,1
    3730:	10830007 	beq	a0,v1,0x3750
    3734:	a2220008 	sb	v0,8(s1)
    3738:	24020002 	li	v0,2
    373c:	a222000a 	sb	v0,10(s1)
    3740:	92220033 	lbu	v0,51(s1)
    3744:	ae200030 	sw	zero,48(s1)
    3748:	08000d51 	j	0x3544
    374c:	a2220007 	sb	v0,7(s1)
    3750:	08000df0 	j	0x37c0
    3754:	a224000a 	sb	a0,10(s1)
    3758:	8f84b440 	lw	a0,-19392(gp)
    375c:	ae200034 	sw	zero,52(s1)
    3760:	94850014 	lhu	a1,20(a0)
    3764:	0c001b66 	jal	0x6d98
    3768:	321000ff 	andi	s0,s0,0xff
    376c:	08000d42 	j	0x3508
    3770:	00000000 	nop
    3774:	3c03b003 	lui	v1,0xb003
    3778:	3c028000 	lui	v0,0x8000
    377c:	244237f4 	addiu	v0,v0,14324
    3780:	34630020 	ori	v1,v1,0x20
    3784:	ac620000 	sw	v0,0(v1)
    3788:	80a20015 	lb	v0,21(a1)
    378c:	3c06b005 	lui	a2,0xb005
    3790:	1040000a 	beqz	v0,0x37bc
    3794:	34c60254 	ori	a2,a2,0x254
    3798:	83838bd4 	lb	v1,-29740(gp)
    379c:	00000000 	nop
    37a0:	ac830024 	sw	v1,36(a0)
    37a4:	8cc20000 	lw	v0,0(a2)
    37a8:	00000000 	nop
    37ac:	00021742 	srl	v0,v0,0x1d
    37b0:	30420001 	andi	v0,v0,0x1
    37b4:	03e00008 	jr	ra
    37b8:	ac820028 	sw	v0,40(a0)
    37bc:	8c82002c 	lw	v0,44(a0)
    37c0:	3c06b005 	lui	a2,0xb005
    37c4:	34c60450 	ori	a2,a2,0x450
    37c8:	00021843 	sra	v1,v0,0x1
    37cc:	30630001 	andi	v1,v1,0x1
    37d0:	10400004 	beqz	v0,0x37e4
    37d4:	30450001 	andi	a1,v0,0x1
    37d8:	ac830028 	sw	v1,40(a0)
    37dc:	03e00008 	jr	ra
    37e0:	ac850024 	sw	a1,36(a0)
    37e4:	90c20000 	lbu	v0,0(a2)
    37e8:	00000000 	nop
    37ec:	304200ff 	andi	v0,v0,0xff
    37f0:	30430002 	andi	v1,v0,0x2
    37f4:	30420001 	andi	v0,v0,0x1
    37f8:	ac830028 	sw	v1,40(a0)
    37fc:	03e00008 	jr	ra
    3800:	ac820024 	sw	v0,36(a0)
    3804:	3c03b003 	lui	v1,0xb003
    3808:	3c028000 	lui	v0,0x8000
    380c:	27bdffd8 	addiu	sp,sp,-40
    3810:	34630020 	ori	v1,v1,0x20
    3814:	24423884 	addiu	v0,v0,14468
    3818:	ac620000 	sw	v0,0(v1)
    381c:	afb1001c 	sw	s1,28(sp)
    3820:	afbf0020 	sw	ra,32(sp)
    3824:	afb00018 	sw	s0,24(sp)
    3828:	90a6000a 	lbu	a2,10(a1)
    382c:	2783b400 	addiu	v1,gp,-19456
    3830:	00a08821 	move	s1,a1
    3834:	00061080 	sll	v0,a2,0x2
    3838:	00431021 	addu	v0,v0,v1
    383c:	8c500000 	lw	s0,0(v0)
    3840:	80a50011 	lb	a1,17(a1)
    3844:	92030012 	lbu	v1,18(s0)
    3848:	10a00004 	beqz	a1,0x385c
    384c:	a2200015 	sb	zero,21(s1)
    3850:	24020012 	li	v0,18
    3854:	10c200da 	beq	a2,v0,0x3bc0
    3858:	00000000 	nop
    385c:	82220012 	lb	v0,18(s1)
    3860:	00000000 	nop
    3864:	10400067 	beqz	v0,0x3a04
    3868:	00000000 	nop
    386c:	a2200012 	sb	zero,18(s1)
    3870:	a2000019 	sb	zero,25(s0)
    3874:	8623000c 	lh	v1,12(s1)
    3878:	00000000 	nop
    387c:	000310c0 	sll	v0,v1,0x3
    3880:	00431021 	addu	v0,v0,v1
    3884:	00021080 	sll	v0,v0,0x2
    3888:	27839020 	addiu	v1,gp,-28640
    388c:	00431021 	addu	v0,v0,v1
    3890:	a0400000 	sb	zero,0(v0)
    3894:	92030016 	lbu	v1,22(s0)
    3898:	00000000 	nop
    389c:	306300df 	andi	v1,v1,0xdf
    38a0:	a2030016 	sb	v1,22(s0)
    38a4:	82020012 	lb	v0,18(s0)
    38a8:	00000000 	nop
    38ac:	14400020 	bnez	v0,0x3930
    38b0:	00000000 	nop
    38b4:	92230008 	lbu	v1,8(s1)
    38b8:	00000000 	nop
    38bc:	14600045 	bnez	v1,0x39d4
    38c0:	24020001 	li	v0,1
    38c4:	a2200004 	sb	zero,4(s1)
    38c8:	92080004 	lbu	t0,4(s0)
    38cc:	00000000 	nop
    38d0:	1500001e 	bnez	t0,0x394c
    38d4:	24020001 	li	v0,1
    38d8:	9207000a 	lbu	a3,10(s0)
    38dc:	a2020017 	sb	v0,23(s0)
    38e0:	92020016 	lbu	v0,22(s0)
    38e4:	30e300ff 	andi	v1,a3,0xff
    38e8:	304200e4 	andi	v0,v0,0xe4
    38ec:	10600003 	beqz	v1,0x38fc
    38f0:	a2020016 	sb	v0,22(s0)
    38f4:	34420001 	ori	v0,v0,0x1
    38f8:	a2020016 	sb	v0,22(s0)
    38fc:	11000005 	beqz	t0,0x3914
    3900:	00000000 	nop
    3904:	92020016 	lbu	v0,22(s0)
    3908:	00000000 	nop
    390c:	34420002 	ori	v0,v0,0x2
    3910:	a2020016 	sb	v0,22(s0)
    3914:	92020017 	lbu	v0,23(s0)
    3918:	00000000 	nop
    391c:	10400008 	beqz	v0,0x3940
    3920:	00000000 	nop
    3924:	96020006 	lhu	v0,6(s0)
    3928:	00000000 	nop
    392c:	a6020014 	sh	v0,20(s0)
    3930:	8fbf0020 	lw	ra,32(sp)
    3934:	7bb000fc 	.word	0x7bb000fc
    3938:	03e00008 	jr	ra
    393c:	27bd0028 	addiu	sp,sp,40
    3940:	96020000 	lhu	v0,0(s0)
    3944:	08000e6c 	j	0x39b0
    3948:	a6020014 	sh	v0,20(s0)
    394c:	9207000a 	lbu	a3,10(s0)
    3950:	00000000 	nop
    3954:	14e00003 	bnez	a3,0x3964
    3958:	00000000 	nop
    395c:	08000e58 	j	0x3960
    3960:	a2000017 	sb	zero,23(s0)
    3964:	96040000 	lhu	a0,0(s0)
    3968:	96050006 	lhu	a1,6(s0)
    396c:	27869000 	addiu	a2,gp,-28672
    3970:	000418c0 	sll	v1,a0,0x3
    3974:	00641821 	addu	v1,v1,a0
    3978:	000510c0 	sll	v0,a1,0x3
    397c:	00451021 	addu	v0,v0,a1
    3980:	00031880 	sll	v1,v1,0x2
    3984:	00661821 	addu	v1,v1,a2
    3988:	00021080 	sll	v0,v0,0x2
    398c:	00461021 	addu	v0,v0,a2
    3990:	8c660008 	lw	a2,8(v1)
    3994:	8c450008 	lw	a1,8(v0)
    3998:	3c038000 	lui	v1,0x8000
    399c:	00c32024 	and	a0,a2,v1
    39a0:	10800008 	beqz	a0,0x39c4
    39a4:	00a31024 	and	v0,a1,v1
    39a8:	10400004 	beqz	v0,0x39bc
    39ac:	00001821 	move	v1,zero
    39b0:	10800002 	beqz	a0,0x39bc
    39b4:	24030001 	li	v1,1
    39b8:	00a6182b 	sltu	v1,a1,a2
    39bc:	08000e58 	j	0x3960
    39c0:	a2030017 	sb	v1,23(s0)
    39c4:	1040fffd 	beqz	v0,0x39bc
    39c8:	00a6182b 	sltu	v1,a1,a2
    39cc:	08000e8c 	j	0x3a30
    39d0:	00000000 	nop
    39d4:	10620009 	beq	v1,v0,0x39fc
    39d8:	24020002 	li	v0,2
    39dc:	10620005 	beq	v1,v0,0x39f4
    39e0:	24020003 	li	v0,3
    39e4:	1462ffb8 	bne	v1,v0,0x38c8
    39e8:	00000000 	nop
    39ec:	08000e52 	j	0x3948
    39f0:	a2200007 	sb	zero,7(s1)
    39f4:	08000e52 	j	0x3948
    39f8:	a2200006 	sb	zero,6(s1)
    39fc:	08000e52 	j	0x3948
    3a00:	a2200005 	sb	zero,5(s1)
    3a04:	82220010 	lb	v0,16(s1)
    3a08:	00000000 	nop
    3a0c:	14400069 	bnez	v0,0x3bb4
    3a10:	2c620002 	sltiu	v0,v1,2
    3a14:	10400049 	beqz	v0,0x3b3c
    3a18:	3c02b009 	lui	v0,0xb009
    3a1c:	92250008 	lbu	a1,8(s1)
    3a20:	00000000 	nop
    3a24:	30a600ff 	andi	a2,a1,0xff
    3a28:	2cc20004 	sltiu	v0,a2,4
    3a2c:	1040003b 	beqz	v0,0x3b1c
    3a30:	2cc20010 	sltiu	v0,a2,16
    3a34:	3c04b005 	lui	a0,0xb005
    3a38:	34840229 	ori	a0,a0,0x229
    3a3c:	90830000 	lbu	v1,0(a0)
    3a40:	24020001 	li	v0,1
    3a44:	00c21004 	sllv	v0,v0,a2
    3a48:	00021027 	nor	v0,zero,v0
    3a4c:	00621824 	and	v1,v1,v0
    3a50:	a0830000 	sb	v1,0(a0)
    3a54:	8623000c 	lh	v1,12(s1)
    3a58:	9626000c 	lhu	a2,12(s1)
    3a5c:	000310c0 	sll	v0,v1,0x3
    3a60:	00431021 	addu	v0,v0,v1
    3a64:	00022880 	sll	a1,v0,0x2
    3a68:	27839004 	addiu	v1,gp,-28668
    3a6c:	00a31821 	addu	v1,a1,v1
    3a70:	8c640018 	lw	a0,24(v1)
    3a74:	00000000 	nop
    3a78:	8c820004 	lw	v0,4(a0)
    3a7c:	00000000 	nop
    3a80:	30420010 	andi	v0,v0,0x10
    3a84:	10400018 	beqz	v0,0x3ae8
    3a88:	24070001 	li	a3,1
    3a8c:	93828b71 	lbu	v0,-29839(gp)
    3a90:	00000000 	nop
    3a94:	30420001 	andi	v0,v0,0x1
    3a98:	1440000a 	bnez	v0,0x3ac4
    3a9c:	24050024 	li	a1,36
    3aa0:	00062c00 	sll	a1,a2,0x10
    3aa4:	00052c03 	sra	a1,a1,0x10
    3aa8:	0c001b66 	jal	0x6d98
    3aac:	02002021 	move	a0,s0
    3ab0:	92020016 	lbu	v0,22(s0)
    3ab4:	a2000012 	sb	zero,18(s0)
    3ab8:	304200e7 	andi	v0,v0,0xe7
    3abc:	08000e49 	j	0x3924
    3ac0:	a2020016 	sb	v0,22(s0)
    3ac4:	f0c50006 	scd	a1,6(a2)
    3ac8:	00002812 	mflo	a1
    3acc:	27829000 	addiu	v0,gp,-28672
    3ad0:	00a22821 	addu	a1,a1,v0
    3ad4:	0c000149 	jal	0x524
    3ad8:	3c040080 	lui	a0,0x80
    3adc:	9626000c 	lhu	a2,12(s1)
    3ae0:	08000ec9 	j	0x3b24
    3ae4:	00062c00 	sll	a1,a2,0x10
    3ae8:	27839010 	addiu	v1,gp,-28656
    3aec:	27829018 	addiu	v0,gp,-28648
    3af0:	00a21021 	addu	v0,a1,v0
    3af4:	00a31821 	addu	v1,a1,v1
    3af8:	90440000 	lbu	a0,0(v0)
    3afc:	90650005 	lbu	a1,5(v1)
    3b00:	93828010 	lbu	v0,-32752(gp)
    3b04:	00003021 	move	a2,zero
    3b08:	0c00219a 	jal	0x8668
    3b0c:	afa20010 	sw	v0,16(sp)
    3b10:	9626000c 	lhu	a2,12(s1)
    3b14:	08000ec3 	j	0x3b0c
    3b18:	00000000 	nop
    3b1c:	1440ffcd 	bnez	v0,0x3a54
    3b20:	3c04b005 	lui	a0,0xb005
    3b24:	34840229 	ori	a0,a0,0x229
    3b28:	90830000 	lbu	v1,0(a0)
    3b2c:	30a5000f 	andi	a1,a1,0xf
    3b30:	24020080 	li	v0,128
    3b34:	08000eb2 	j	0x3ac8
    3b38:	00a21007 	srav	v0,v0,a1
    3b3c:	8626000c 	lh	a2,12(s1)
    3b40:	3c03b009 	lui	v1,0xb009
    3b44:	34420172 	ori	v0,v0,0x172
    3b48:	34630178 	ori	v1,v1,0x178
    3b4c:	94470000 	lhu	a3,0(v0)
    3b50:	8c650000 	lw	a1,0(v1)
    3b54:	000610c0 	sll	v0,a2,0x3
    3b58:	00461021 	addu	v0,v0,a2
    3b5c:	3c04b009 	lui	a0,0xb009
    3b60:	ae25001c 	sw	a1,28(s1)
    3b64:	3484017c 	ori	a0,a0,0x17c
    3b68:	27839004 	addiu	v1,gp,-28668
    3b6c:	00021080 	sll	v0,v0,0x2
    3b70:	8c850000 	lw	a1,0(a0)
    3b74:	00431021 	addu	v0,v0,v1
    3b78:	8c430018 	lw	v1,24(v0)
    3b7c:	ae250020 	sw	a1,32(s1)
    3b80:	a6270018 	sh	a3,24(s1)
    3b84:	8c660008 	lw	a2,8(v1)
    3b88:	02202021 	move	a0,s1
    3b8c:	0c000f19 	jal	0x3c64
    3b90:	00002821 	move	a1,zero
    3b94:	86250018 	lh	a1,24(s1)
    3b98:	8e26001c 	lw	a2,28(s1)
    3b9c:	8e270020 	lw	a3,32(s1)
    3ba0:	02202021 	move	a0,s1
    3ba4:	0c001c68 	jal	0x71a0
    3ba8:	afa20010 	sw	v0,16(sp)
    3bac:	08000e49 	j	0x3924
    3bb0:	a2020012 	sb	v0,18(s0)
    3bb4:	92220008 	lbu	v0,8(s1)
    3bb8:	08000e49 	j	0x3924
    3bbc:	a2220009 	sb	v0,9(s1)
    3bc0:	a2200011 	sb	zero,17(s1)
    3bc4:	80820050 	lb	v0,80(a0)
    3bc8:	00000000 	nop
    3bcc:	10400003 	beqz	v0,0x3bdc
    3bd0:	3c02b003 	lui	v0,0xb003
    3bd4:	344200d0 	ori	v0,v0,0xd0
    3bd8:	ac400000 	sw	zero,0(v0)
    3bdc:	08000e49 	j	0x3924
    3be0:	a0800050 	sb	zero,80(a0)
    3be4:	948a000c 	lhu	t2,12(a0)
    3be8:	24030024 	li	v1,36
    3bec:	00807021 	move	t6,a0
    3bf0:	3c028000 	lui	v0,0x8000
    3bf4:	3c04b003 	lui	a0,0xb003
    3bf8:	24423c64 	addiu	v0,v0,15460
    3bfc:	f1430006 	scd	v1,6(t2)
    3c00:	34840020 	ori	a0,a0,0x20
    3c04:	00001812 	mflo	v1
    3c08:	00a06821 	move	t5,a1
    3c0c:	ac820000 	sw	v0,0(a0)
    3c10:	27859010 	addiu	a1,gp,-28656
    3c14:	2782900f 	addiu	v0,gp,-28657
    3c18:	27bdfff8 	addiu	sp,sp,-8
    3c1c:	00626021 	addu	t4,v1,v0
    3c20:	00655821 	addu	t3,v1,a1
    3c24:	0000c021 	move	t8,zero
    3c28:	11a000cc 	beqz	t5,0x3f5c
    3c2c:	00007821 	move	t7,zero
    3c30:	000a1c00 	sll	v1,t2,0x10
    3c34:	00031c03 	sra	v1,v1,0x10
    3c38:	000310c0 	sll	v0,v1,0x3
    3c3c:	00431021 	addu	v0,v0,v1
    3c40:	00021080 	sll	v0,v0,0x2
    3c44:	00451021 	addu	v0,v0,a1
    3c48:	91870000 	lbu	a3,0(t4)
    3c4c:	80480004 	lb	t0,4(v0)
    3c50:	03a06021 	move	t4,sp
    3c54:	000a1c00 	sll	v1,t2,0x10
    3c58:	00031c03 	sra	v1,v1,0x10
    3c5c:	000310c0 	sll	v0,v1,0x3
    3c60:	00431021 	addu	v0,v0,v1
    3c64:	00024880 	sll	t1,v0,0x2
    3c68:	27839004 	addiu	v1,gp,-28668
    3c6c:	a3a70000 	sb	a3,0(sp)
    3c70:	01231821 	addu	v1,t1,v1
    3c74:	8c640018 	lw	a0,24(v1)
    3c78:	2502ffff 	addiu	v0,t0,-1
    3c7c:	0048400b 	.word	0x48400b
    3c80:	8c830004 	lw	v1,4(a0)
    3c84:	2d050007 	sltiu	a1,t0,7
    3c88:	24020006 	li	v0,6
    3c8c:	30630008 	andi	v1,v1,0x8
    3c90:	14600035 	bnez	v1,0x3d68
    3c94:	0045400a 	.word	0x45400a
    3c98:	93a70000 	lbu	a3,0(sp)
    3c9c:	27829018 	addiu	v0,gp,-28648
    3ca0:	01221021 	addu	v0,t1,v0
    3ca4:	30e300f0 	andi	v1,a3,0xf0
    3ca8:	38630050 	xori	v1,v1,0x50
    3cac:	30e500ff 	andi	a1,a3,0xff
    3cb0:	0005202b 	sltu	a0,zero,a1
    3cb4:	0003182b 	sltu	v1,zero,v1
    3cb8:	00641824 	and	v1,v1,a0
    3cbc:	90490000 	lbu	t1,0(v0)
    3cc0:	10600016 	beqz	v1,0x3d1c
    3cc4:	30e4000f 	andi	a0,a3,0xf
    3cc8:	24020004 	li	v0,4
    3ccc:	10a2009d 	beq	a1,v0,0x3f44
    3cd0:	00000000 	nop
    3cd4:	11a0003a 	beqz	t5,0x3dc0
    3cd8:	2ca2000c 	sltiu	v0,a1,12
    3cdc:	10400002 	beqz	v0,0x3ce8
    3ce0:	2484000c 	addiu	a0,a0,12
    3ce4:	00e02021 	move	a0,a3
    3ce8:	308400ff 	andi	a0,a0,0xff
    3cec:	00041040 	sll	v0,a0,0x1
    3cf0:	2783bb1c 	addiu	v1,gp,-17636
    3cf4:	00441021 	addu	v0,v0,a0
    3cf8:	00431021 	addu	v0,v0,v1
    3cfc:	90470000 	lbu	a3,0(v0)
    3d00:	00000000 	nop
    3d04:	2ce3000c 	sltiu	v1,a3,12
    3d08:	a3a70000 	sb	a3,0(sp)
    3d0c:	10600002 	beqz	v1,0x3d18
    3d10:	24e20004 	addiu	v0,a3,4
    3d14:	00e01021 	move	v0,a3
    3d18:	a3a20000 	sb	v0,0(sp)
    3d1c:	91650000 	lbu	a1,0(t3)
    3d20:	91820000 	lbu	v0,0(t4)
    3d24:	30a300ff 	andi	v1,a1,0xff
    3d28:	0062102b 	sltu	v0,v1,v0
    3d2c:	1040000e 	beqz	v0,0x3d68
    3d30:	2c62000c 	sltiu	v0,v1,12
    3d34:	14400003 	bnez	v0,0x3d44
    3d38:	00602021 	move	a0,v1
    3d3c:	30a2000f 	andi	v0,a1,0xf
    3d40:	2444000c 	addiu	a0,v0,12
    3d44:	00041040 	sll	v0,a0,0x1
    3d48:	00442021 	addu	a0,v0,a0
    3d4c:	2783bb1c 	addiu	v1,gp,-17636
    3d50:	00831821 	addu	v1,a0,v1
    3d54:	90620002 	lbu	v0,2(v1)
    3d58:	00000000 	nop
    3d5c:	10400005 	beqz	v0,0x3d74
    3d60:	00091100 	sll	v0,t1,0x4
    3d64:	a1850000 	sb	a1,0(t4)
    3d68:	93a20000 	lbu	v0,0(sp)
    3d6c:	03e00008 	jr	ra
    3d70:	27bd0008 	addiu	sp,sp,8
    3d74:	00491023 	subu	v0,v0,t1
    3d78:	00021080 	sll	v0,v0,0x2
    3d7c:	00491023 	subu	v0,v0,t1
    3d80:	00021080 	sll	v0,v0,0x2
    3d84:	00441021 	addu	v0,v0,a0
    3d88:	2783b4a8 	addiu	v1,gp,-19288
    3d8c:	00431021 	addu	v0,v0,v1
    3d90:	90440000 	lbu	a0,0(v0)
    3d94:	00000000 	nop
    3d98:	2c83000c 	sltiu	v1,a0,12
    3d9c:	14600006 	bnez	v1,0x3db8
    3da0:	00801021 	move	v0,a0
    3da4:	00181040 	sll	v0,t8,0x1
    3da8:	004f1021 	addu	v0,v0,t7
    3dac:	00021100 	sll	v0,v0,0x4
    3db0:	00821021 	addu	v0,a0,v0
    3db4:	24420004 	addiu	v0,v0,4
    3db8:	08000f7a 	j	0x3de8
    3dbc:	a1820000 	sb	v0,0(t4)
    3dc0:	8f8d815c 	lw	t5,-32420(gp)
    3dc4:	00000000 	nop
    3dc8:	01a81021 	addu	v0,t5,t0
    3dcc:	90430000 	lbu	v1,0(v0)
    3dd0:	00000000 	nop
    3dd4:	1060ffd1 	beqz	v1,0x3d1c
    3dd8:	00002821 	move	a1,zero
    3ddc:	00067482 	srl	t6,a2,0x12
    3de0:	30e200ff 	andi	v0,a3,0xff
    3de4:	2c42000c 	sltiu	v0,v0,12
    3de8:	14400003 	bnez	v0,0x3df8
    3dec:	00e01021 	move	v0,a3
    3df0:	30e2000f 	andi	v0,a3,0xf
    3df4:	2442000c 	addiu	v0,v0,12
    3df8:	304400ff 	andi	a0,v0,0xff
    3dfc:	a3a20000 	sb	v0,0(sp)
    3e00:	2402000c 	li	v0,12
    3e04:	1082000d 	beq	a0,v0,0x3e3c
    3e08:	00091100 	sll	v0,t1,0x4
    3e0c:	00491023 	subu	v0,v0,t1
    3e10:	00021080 	sll	v0,v0,0x2
    3e14:	00041840 	sll	v1,a0,0x1
    3e18:	00491023 	subu	v0,v0,t1
    3e1c:	00641821 	addu	v1,v1,a0
    3e20:	00021080 	sll	v0,v0,0x2
    3e24:	00431021 	addu	v0,v0,v1
    3e28:	2784b4a8 	addiu	a0,gp,-19288
    3e2c:	00441021 	addu	v0,v0,a0
    3e30:	90470000 	lbu	a3,0(v0)
    3e34:	00000000 	nop
    3e38:	a3a70000 	sb	a3,0(sp)
    3e3c:	000a1c00 	sll	v1,t2,0x10
    3e40:	00031c03 	sra	v1,v1,0x10
    3e44:	000310c0 	sll	v0,v1,0x3
    3e48:	00431021 	addu	v0,v0,v1
    3e4c:	00021080 	sll	v0,v0,0x2
    3e50:	27839004 	addiu	v1,gp,-28668
    3e54:	00431021 	addu	v0,v0,v1
    3e58:	8c440018 	lw	a0,24(v0)
    3e5c:	00000000 	nop
    3e60:	8c830004 	lw	v1,4(a0)
    3e64:	00000000 	nop
    3e68:	30630010 	andi	v1,v1,0x10
    3e6c:	14600033 	bnez	v1,0x3f3c
    3e70:	00061442 	srl	v0,a2,0x11
    3e74:	00091100 	sll	v0,t1,0x4
    3e78:	00491023 	subu	v0,v0,t1
    3e7c:	00021080 	sll	v0,v0,0x2
    3e80:	00491023 	subu	v0,v0,t1
    3e84:	2783b578 	addiu	v1,gp,-19080
    3e88:	00021080 	sll	v0,v0,0x2
    3e8c:	00431021 	addu	v0,v0,v1
    3e90:	90440004 	lbu	a0,4(v0)
    3e94:	90430005 	lbu	v1,5(v0)
    3e98:	00000000 	nop
    3e9c:	0064c024 	and	t8,v1,a0
    3ea0:	93a70000 	lbu	a3,0(sp)
    3ea4:	00000000 	nop
    3ea8:	2ce2000f 	sltiu	v0,a3,15
    3eac:	1040000f 	beqz	v0,0x3eec
    3eb0:	31cf0001 	andi	t7,t6,0x1
    3eb4:	000a1c00 	sll	v1,t2,0x10
    3eb8:	00031c03 	sra	v1,v1,0x10
    3ebc:	000310c0 	sll	v0,v1,0x3
    3ec0:	00431021 	addu	v0,v0,v1
    3ec4:	00021080 	sll	v0,v0,0x2
    3ec8:	27849000 	addiu	a0,gp,-28672
    3ecc:	00441021 	addu	v0,v0,a0
    3ed0:	84430006 	lh	v1,6(v0)
    3ed4:	00000000 	nop
    3ed8:	28630641 	slti	v1,v1,1601
    3edc:	14600004 	bnez	v1,0x3ef0
    3ee0:	30e200ff 	andi	v0,a3,0xff
    3ee4:	2407000f 	li	a3,15
    3ee8:	a3a70000 	sb	a3,0(sp)
    3eec:	30e200ff 	andi	v0,a3,0xff
    3ef0:	2c42000c 	sltiu	v0,v0,12
    3ef4:	14400006 	bnez	v0,0x3f10
    3ef8:	00e01021 	move	v0,a3
    3efc:	00181040 	sll	v0,t8,0x1
    3f00:	004f1021 	addu	v0,v0,t7
    3f04:	00021100 	sll	v0,v0,0x4
    3f08:	00471021 	addu	v0,v0,a3
    3f0c:	24420004 	addiu	v0,v0,4
    3f10:	a3a20000 	sb	v0,0(sp)
    3f14:	00403821 	move	a3,v0
    3f18:	01a81021 	addu	v0,t5,t0
    3f1c:	90430000 	lbu	v1,0(v0)
    3f20:	24a40001 	addiu	a0,a1,1
    3f24:	3085ffff 	andi	a1,a0,0xffff
    3f28:	00a3182b 	sltu	v1,a1,v1
    3f2c:	1460ffad 	bnez	v1,0x3de4
    3f30:	30e200ff 	andi	v0,a3,0xff
    3f34:	08000f67 	j	0x3d9c
    3f38:	00000000 	nop
    3f3c:	08000fc8 	j	0x3f20
    3f40:	30580001 	andi	t8,v0,0x1
    3f44:	81c20048 	lb	v0,72(t6)
    3f48:	00000000 	nop
    3f4c:	1040ff73 	beqz	v0,0x3d1c
    3f50:	00000000 	nop
    3f54:	08000f55 	j	0x3d54
    3f58:	00000000 	nop
    3f5c:	000a1c00 	sll	v1,t2,0x10
    3f60:	00031c03 	sra	v1,v1,0x10
    3f64:	000310c0 	sll	v0,v1,0x3
    3f68:	00431021 	addu	v0,v0,v1
    3f6c:	00021080 	sll	v0,v0,0x2
    3f70:	00451021 	addu	v0,v0,a1
    3f74:	80480005 	lb	t0,5(v0)
    3f78:	91670000 	lbu	a3,0(t3)
    3f7c:	08000f35 	j	0x3cd4
    3f80:	03a05821 	move	t3,sp
    3f84:	3c03b003 	lui	v1,0xb003
    3f88:	3c028000 	lui	v0,0x8000
    3f8c:	34630020 	ori	v1,v1,0x20
    3f90:	24424004 	addiu	v0,v0,16388
    3f94:	03e00008 	jr	ra
    3f98:	ac620000 	sw	v0,0(v1)
    3f9c:	27bdffc0 	addiu	sp,sp,-64
    3fa0:	afb70034 	sw	s7,52(sp)
    3fa4:	afb60030 	sw	s6,48(sp)
    3fa8:	afb5002c 	sw	s5,44(sp)
    3fac:	afb40028 	sw	s4,40(sp)
    3fb0:	afb30024 	sw	s3,36(sp)
    3fb4:	afb20020 	sw	s2,32(sp)
    3fb8:	afbf003c 	sw	ra,60(sp)
    3fbc:	afbe0038 	sw	s8,56(sp)
    3fc0:	afb1001c 	sw	s1,28(sp)
    3fc4:	afb00018 	sw	s0,24(sp)
    3fc8:	8482000c 	lh	v0,12(a0)
    3fcc:	27939004 	addiu	s3,gp,-28668
    3fd0:	3c05b003 	lui	a1,0xb003
    3fd4:	000218c0 	sll	v1,v0,0x3
    3fd8:	00621821 	addu	v1,v1,v0
    3fdc:	00031880 	sll	v1,v1,0x2
    3fe0:	00731021 	addu	v0,v1,s3
    3fe4:	8c5e0018 	lw	s8,24(v0)
    3fe8:	3c028000 	lui	v0,0x8000
    3fec:	34a50020 	ori	a1,a1,0x20
    3ff0:	2442401c 	addiu	v0,v0,16412
    3ff4:	aca20000 	sw	v0,0(a1)
    3ff8:	8fd00008 	lw	s0,8(s8)
    3ffc:	27959010 	addiu	s5,gp,-28656
    4000:	00751821 	addu	v1,v1,s5
    4004:	00002821 	move	a1,zero
    4008:	02003021 	move	a2,s0
    400c:	90710000 	lbu	s1,0(v1)
    4010:	0c000f19 	jal	0x3c64
    4014:	0080b021 	move	s6,a0
    4018:	00409021 	move	s2,v0
    401c:	00101442 	srl	v0,s0,0x11
    4020:	30540001 	andi	s4,v0,0x1
    4024:	02402021 	move	a0,s2
    4028:	00101482 	srl	v0,s0,0x12
    402c:	02802821 	move	a1,s4
    4030:	12510023 	beq	s2,s1,0x40c0
    4034:	0010bfc2 	srl	s7,s0,0x1f
    4038:	86c3000c 	lh	v1,12(s6)
    403c:	30500001 	andi	s0,v0,0x1
    4040:	000310c0 	sll	v0,v1,0x3
    4044:	00431021 	addu	v0,v0,v1
    4048:	00021080 	sll	v0,v0,0x2
    404c:	00551021 	addu	v0,v0,s5
    4050:	a0520000 	sb	s2,0(v0)
    4054:	86c3000c 	lh	v1,12(s6)
    4058:	00000000 	nop
    405c:	000310c0 	sll	v0,v1,0x3
    4060:	00431021 	addu	v0,v0,v1
    4064:	00021080 	sll	v0,v0,0x2
    4068:	00533021 	addu	a2,v0,s3
    406c:	8cc70018 	lw	a3,24(a2)
    4070:	27839000 	addiu	v1,gp,-28672
    4074:	00431021 	addu	v0,v0,v1
    4078:	8ce30004 	lw	v1,4(a3)
    407c:	84460006 	lh	a2,6(v0)
    4080:	00031942 	srl	v1,v1,0x5
    4084:	0c0008e3 	jal	0x238c
    4088:	30730001 	andi	s3,v1,0x1
    408c:	00408821 	move	s1,v0
    4090:	02402021 	move	a0,s2
    4094:	02802821 	move	a1,s4
    4098:	16e00010 	bnez	s7,0x40dc
    409c:	02003021 	move	a2,s0
    40a0:	86c2000c 	lh	v0,12(s6)
    40a4:	00000000 	nop
    40a8:	000218c0 	sll	v1,v0,0x3
    40ac:	00621821 	addu	v1,v1,v0
    40b0:	00031880 	sll	v1,v1,0x2
    40b4:	27829008 	addiu	v0,gp,-28664
    40b8:	00621821 	addu	v1,v1,v0
    40bc:	a4710004 	sh	s1,4(v1)
    40c0:	7bbe01fc 	.word	0x7bbe01fc
    40c4:	7bb601bc 	.word	0x7bb601bc
    40c8:	7bb4017c 	.word	0x7bb4017c
    40cc:	7bb2013c 	.word	0x7bb2013c
    40d0:	7bb000fc 	.word	0x7bb000fc
    40d4:	03e00008 	jr	ra
    40d8:	27bd0040 	addiu	sp,sp,64
    40dc:	86c3000c 	lh	v1,12(s6)
    40e0:	afb30010 	sw	s3,16(sp)
    40e4:	afa00014 	sw	zero,20(sp)
    40e8:	000310c0 	sll	v0,v1,0x3
    40ec:	00431021 	addu	v0,v0,v1
    40f0:	00021080 	sll	v0,v0,0x2
    40f4:	00551021 	addu	v0,v0,s5
    40f8:	80470006 	lb	a3,6(v0)
    40fc:	00000000 	nop
    4100:	24e70002 	addiu	a3,a3,2
    4104:	000717c2 	srl	v0,a3,0x1f
    4108:	00e23821 	addu	a3,a3,v0
    410c:	00073843 	sra	a3,a3,0x1
    4110:	00073840 	sll	a3,a3,0x1
    4114:	0c00090a 	jal	0x2428
    4118:	03c73821 	addu	a3,s8,a3
    411c:	08001048 	j	0x4120
    4120:	02228821 	addu	s1,s1,v0
    4124:	3c03b003 	lui	v1,0xb003
    4128:	3c028000 	lui	v0,0x8000
    412c:	27bdffd0 	addiu	sp,sp,-48
    4130:	34630020 	ori	v1,v1,0x20
    4134:	244241a4 	addiu	v0,v0,16804
    4138:	afb20020 	sw	s2,32(sp)
    413c:	ac620000 	sw	v0,0(v1)
    4140:	afbf0028 	sw	ra,40(sp)
    4144:	afb30024 	sw	s3,36(sp)
    4148:	afb1001c 	sw	s1,28(sp)
    414c:	afb00018 	sw	s0,24(sp)
    4150:	3c02b003 	lui	v0,0xb003
    4154:	9083000a 	lbu	v1,10(a0)
    4158:	34420104 	ori	v0,v0,0x104
    415c:	94450000 	lhu	a1,0(v0)
    4160:	00031880 	sll	v1,v1,0x2
    4164:	2782b400 	addiu	v0,gp,-19456
    4168:	00621821 	addu	v1,v1,v0
    416c:	30a6ffff 	andi	a2,a1,0xffff
    4170:	8c710000 	lw	s1,0(v1)
    4174:	80850012 	lb	a1,18(a0)
    4178:	30c900ff 	andi	t1,a2,0xff
    417c:	00063202 	srl	a2,a2,0x8
    4180:	a4860044 	sh	a2,68(a0)
    4184:	a4890046 	sh	t1,70(a0)
    4188:	82220012 	lb	v0,18(s1)
    418c:	00809021 	move	s2,a0
    4190:	10a0001b 	beqz	a1,0x4200
    4194:	a0800015 	sb	zero,21(a0)
    4198:	00c5102a 	slt	v0,a2,a1
    419c:	10400014 	beqz	v0,0x41f0
    41a0:	00000000 	nop
    41a4:	a2200019 	sb	zero,25(s1)
    41a8:	8483000c 	lh	v1,12(a0)
    41ac:	00000000 	nop
    41b0:	000310c0 	sll	v0,v1,0x3
    41b4:	00431021 	addu	v0,v0,v1
    41b8:	00021080 	sll	v0,v0,0x2
    41bc:	27839020 	addiu	v1,gp,-28640
    41c0:	00431021 	addu	v0,v0,v1
    41c4:	a0400000 	sb	zero,0(v0)
    41c8:	a0800012 	sb	zero,18(a0)
    41cc:	92220016 	lbu	v0,22(s1)
    41d0:	00000000 	nop
    41d4:	304200df 	andi	v0,v0,0xdf
    41d8:	a2220016 	sb	v0,22(s1)
    41dc:	8fbf0028 	lw	ra,40(sp)
    41e0:	7bb2013c 	.word	0x7bb2013c
    41e4:	7bb000fc 	.word	0x7bb000fc
    41e8:	03e00008 	jr	ra
    41ec:	27bd0030 	addiu	sp,sp,48
    41f0:	0c001001 	jal	0x4004
    41f4:	00000000 	nop
    41f8:	08001097 	j	0x425c
    41fc:	00000000 	nop
    4200:	28420002 	slti	v0,v0,2
    4204:	10400176 	beqz	v0,0x47e0
    4208:	00002821 	move	a1,zero
    420c:	9487000c 	lhu	a3,12(a0)
    4210:	00000000 	nop
    4214:	00e01021 	move	v0,a3
    4218:	00021400 	sll	v0,v0,0x10
    421c:	00021403 	sra	v0,v0,0x10
    4220:	00072400 	sll	a0,a3,0x10
    4224:	00042403 	sra	a0,a0,0x10
    4228:	000218c0 	sll	v1,v0,0x3
    422c:	00621821 	addu	v1,v1,v0
    4230:	000428c0 	sll	a1,a0,0x3
    4234:	00a42821 	addu	a1,a1,a0
    4238:	27829020 	addiu	v0,gp,-28640
    423c:	00031880 	sll	v1,v1,0x2
    4240:	00621821 	addu	v1,v1,v0
    4244:	00052880 	sll	a1,a1,0x2
    4248:	27829008 	addiu	v0,gp,-28664
    424c:	00a21021 	addu	v0,a1,v0
    4250:	8c680000 	lw	t0,0(v1)
    4254:	80440006 	lb	a0,6(v0)
    4258:	27829010 	addiu	v0,gp,-28656
    425c:	00081d02 	srl	v1,t0,0x14
    4260:	00a22821 	addu	a1,a1,v0
    4264:	38840000 	xori	a0,a0,0x0
    4268:	30630001 	andi	v1,v1,0x1
    426c:	0124300b 	.word	0x124300b
    4270:	80aa0004 	lb	t2,4(a1)
    4274:	80a90005 	lb	t1,5(a1)
    4278:	10600002 	beqz	v1,0x4284
    427c:	00081402 	srl	v0,t0,0x10
    4280:	3046000f 	andi	a2,v0,0xf
    4284:	15200028 	bnez	t1,0x4328
    4288:	01491021 	addu	v0,t2,t1
    428c:	15400011 	bnez	t2,0x42d4
    4290:	30e3ffff 	andi	v1,a3,0xffff
    4294:	92450008 	lbu	a1,8(s2)
    4298:	00000000 	nop
    429c:	30a800ff 	andi	t0,a1,0xff
    42a0:	2d020004 	sltiu	v0,t0,4
    42a4:	10400146 	beqz	v0,0x47c0
    42a8:	2d020010 	sltiu	v0,t0,16
    42ac:	3c04b005 	lui	a0,0xb005
    42b0:	34840229 	ori	a0,a0,0x229
    42b4:	90830000 	lbu	v1,0(a0)
    42b8:	24020001 	li	v0,1
    42bc:	01021004 	sllv	v0,v0,t0
    42c0:	00621825 	or	v1,v1,v0
    42c4:	a0830000 	sb	v1,0(a0)
    42c8:	9647000c 	lhu	a3,12(s2)
    42cc:	00000000 	nop
    42d0:	30e3ffff 	andi	v1,a3,0xffff
    42d4:	000310c0 	sll	v0,v1,0x3
    42d8:	00431021 	addu	v0,v0,v1
    42dc:	27849010 	addiu	a0,gp,-28656
    42e0:	00021080 	sll	v0,v0,0x2
    42e4:	00441021 	addu	v0,v0,a0
    42e8:	80450006 	lb	a1,6(v0)
    42ec:	00031a00 	sll	v1,v1,0x8
    42f0:	3c04b000 	lui	a0,0xb000
    42f4:	00651821 	addu	v1,v1,a1
    42f8:	00642021 	addu	a0,v1,a0
    42fc:	94820000 	lhu	v0,0(a0)
    4300:	82430010 	lb	v1,16(s2)
    4304:	00021400 	sll	v0,v0,0x10
    4308:	14600006 	bnez	v1,0x4324
    430c:	00023c03 	sra	a3,v0,0x10
    4310:	30e20004 	andi	v0,a3,0x4
    4314:	14400004 	bnez	v0,0x4328
    4318:	01491021 	addu	v0,t2,t1
    431c:	34e20800 	ori	v0,a3,0x800
    4320:	a4820000 	sh	v0,0(a0)
    4324:	01491021 	addu	v0,t2,t1
    4328:	00021600 	sll	v0,v0,0x18
    432c:	00021603 	sra	v0,v0,0x18
    4330:	0046102a 	slt	v0,v0,a2
    4334:	1040007c 	beqz	v0,0x4528
    4338:	00000000 	nop
    433c:	82420010 	lb	v0,16(s2)
    4340:	00000000 	nop
    4344:	1040000e 	beqz	v0,0x4380
    4348:	00000000 	nop
    434c:	8643000c 	lh	v1,12(s2)
    4350:	25440001 	addiu	a0,t2,1
    4354:	000310c0 	sll	v0,v1,0x3
    4358:	00431021 	addu	v0,v0,v1
    435c:	00021080 	sll	v0,v0,0x2
    4360:	27839010 	addiu	v1,gp,-28656
    4364:	00431021 	addu	v0,v0,v1
    4368:	a0440004 	sb	a0,4(v0)
    436c:	92230016 	lbu	v1,22(s1)
    4370:	02402021 	move	a0,s2
    4374:	306300fb 	andi	v1,v1,0xfb
    4378:	0800109c 	j	0x4270
    437c:	a2230016 	sb	v1,22(s1)
    4380:	8643000c 	lh	v1,12(s2)
    4384:	25240001 	addiu	a0,t1,1
    4388:	000310c0 	sll	v0,v1,0x3
    438c:	00431021 	addu	v0,v0,v1
    4390:	00021080 	sll	v0,v0,0x2
    4394:	27839010 	addiu	v1,gp,-28656
    4398:	00431021 	addu	v0,v0,v1
    439c:	a0440005 	sb	a0,5(v0)
    43a0:	8645000c 	lh	a1,12(s2)
    43a4:	0c001eea 	jal	0x7ba8
    43a8:	02202021 	move	a0,s1
    43ac:	1040005a 	beqz	v0,0x4518
    43b0:	00000000 	nop
    43b4:	92450008 	lbu	a1,8(s2)
    43b8:	00000000 	nop
    43bc:	30a600ff 	andi	a2,a1,0xff
    43c0:	2cc20004 	sltiu	v0,a2,4
    43c4:	1040004c 	beqz	v0,0x44f8
    43c8:	2cc20010 	sltiu	v0,a2,16
    43cc:	3c04b005 	lui	a0,0xb005
    43d0:	34840229 	ori	a0,a0,0x229
    43d4:	90830000 	lbu	v1,0(a0)
    43d8:	24020001 	li	v0,1
    43dc:	00c21004 	sllv	v0,v0,a2
    43e0:	00021027 	nor	v0,zero,v0
    43e4:	00621824 	and	v1,v1,v0
    43e8:	a0830000 	sb	v1,0(a0)
    43ec:	92450008 	lbu	a1,8(s2)
    43f0:	00000000 	nop
    43f4:	30a500ff 	andi	a1,a1,0xff
    43f8:	14a00033 	bnez	a1,0x44c8
    43fc:	24020001 	li	v0,1
    4400:	a2400004 	sb	zero,4(s2)
    4404:	92220004 	lbu	v0,4(s1)
    4408:	00000000 	nop
    440c:	1440000c 	bnez	v0,0x4440
    4410:	24020001 	li	v0,1
    4414:	a2220017 	sb	v0,23(s1)
    4418:	92220017 	lbu	v0,23(s1)
    441c:	00000000 	nop
    4420:	10400004 	beqz	v0,0x4434
    4424:	00000000 	nop
    4428:	96220006 	lhu	v0,6(s1)
    442c:	08001097 	j	0x425c
    4430:	a6220014 	sh	v0,20(s1)
    4434:	96220000 	lhu	v0,0(s1)
    4438:	08001097 	j	0x425c
    443c:	a6220014 	sh	v0,20(s1)
    4440:	9222000a 	lbu	v0,10(s1)
    4444:	00000000 	nop
    4448:	14400003 	bnez	v0,0x4458
    444c:	00000000 	nop
    4450:	08001126 	j	0x4498
    4454:	a2200017 	sb	zero,23(s1)
    4458:	96240000 	lhu	a0,0(s1)
    445c:	96250006 	lhu	a1,6(s1)
    4460:	27869000 	addiu	a2,gp,-28672
    4464:	000418c0 	sll	v1,a0,0x3
    4468:	00641821 	addu	v1,v1,a0
    446c:	000510c0 	sll	v0,a1,0x3
    4470:	00451021 	addu	v0,v0,a1
    4474:	00031880 	sll	v1,v1,0x2
    4478:	00661821 	addu	v1,v1,a2
    447c:	00021080 	sll	v0,v0,0x2
    4480:	00461021 	addu	v0,v0,a2
    4484:	8c650008 	lw	a1,8(v1)
    4488:	8c440008 	lw	a0,8(v0)
    448c:	3c038000 	lui	v1,0x8000
    4490:	00a33024 	and	a2,a1,v1
    4494:	10c00008 	beqz	a2,0x44b8
    4498:	00831024 	and	v0,a0,v1
    449c:	10400004 	beqz	v0,0x44b0
    44a0:	00001821 	move	v1,zero
    44a4:	10c00002 	beqz	a2,0x44b0
    44a8:	24030001 	li	v1,1
    44ac:	0085182b 	sltu	v1,a0,a1
    44b0:	08001126 	j	0x4498
    44b4:	a2230017 	sb	v1,23(s1)
    44b8:	1040fffd 	beqz	v0,0x44b0
    44bc:	0085182b 	sltu	v1,a0,a1
    44c0:	08001149 	j	0x4524
    44c4:	00000000 	nop
    44c8:	10a20009 	beq	a1,v0,0x44f0
    44cc:	24020002 	li	v0,2
    44d0:	10a20005 	beq	a1,v0,0x44e8
    44d4:	24020003 	li	v0,3
    44d8:	14a2ffca 	bne	a1,v0,0x4404
    44dc:	00000000 	nop
    44e0:	08001121 	j	0x4484
    44e4:	a2400007 	sb	zero,7(s2)
    44e8:	08001121 	j	0x4484
    44ec:	a2400006 	sb	zero,6(s2)
    44f0:	08001121 	j	0x4484
    44f4:	a2400005 	sb	zero,5(s2)
    44f8:	1440ffbe 	bnez	v0,0x43f4
    44fc:	3c04b005 	lui	a0,0xb005
    4500:	34840229 	ori	a0,a0,0x229
    4504:	90830000 	lbu	v1,0(a0)
    4508:	30a5000f 	andi	a1,a1,0xf
    450c:	24020080 	li	v0,128
    4510:	08001118 	j	0x4460
    4514:	00a21007 	srav	v0,v0,a1
    4518:	0c001007 	jal	0x401c
    451c:	02402021 	move	a0,s2
    4520:	08001097 	j	0x425c
    4524:	00000000 	nop
    4528:	92450008 	lbu	a1,8(s2)
    452c:	00000000 	nop
    4530:	30a600ff 	andi	a2,a1,0xff
    4534:	2cc20004 	sltiu	v0,a2,4
    4538:	10400099 	beqz	v0,0x47a0
    453c:	2cc20010 	sltiu	v0,a2,16
    4540:	3c04b005 	lui	a0,0xb005
    4544:	34840229 	ori	a0,a0,0x229
    4548:	90830000 	lbu	v1,0(a0)
    454c:	24020001 	li	v0,1
    4550:	00c21004 	sllv	v0,v0,a2
    4554:	00021027 	nor	v0,zero,v0
    4558:	00621824 	and	v1,v1,v0
    455c:	a0830000 	sb	v1,0(a0)
    4560:	92450008 	lbu	a1,8(s2)
    4564:	00000000 	nop
    4568:	30a500ff 	andi	a1,a1,0xff
    456c:	14a00080 	bnez	a1,0x4770
    4570:	24020001 	li	v0,1
    4574:	a2400004 	sb	zero,4(s2)
    4578:	8643000c 	lh	v1,12(s2)
    457c:	27939004 	addiu	s3,gp,-28668
    4580:	9647000c 	lhu	a3,12(s2)
    4584:	000310c0 	sll	v0,v1,0x3
    4588:	00431021 	addu	v0,v0,v1
    458c:	00022880 	sll	a1,v0,0x2
    4590:	00b31821 	addu	v1,a1,s3
    4594:	8c640018 	lw	a0,24(v1)
    4598:	00000000 	nop
    459c:	8c820004 	lw	v0,4(a0)
    45a0:	00000000 	nop
    45a4:	30420010 	andi	v0,v0,0x10
    45a8:	10400064 	beqz	v0,0x473c
    45ac:	00003021 	move	a2,zero
    45b0:	00071c00 	sll	v1,a3,0x10
    45b4:	00031c03 	sra	v1,v1,0x10
    45b8:	000310c0 	sll	v0,v1,0x3
    45bc:	00431021 	addu	v0,v0,v1
    45c0:	00021080 	sll	v0,v0,0x2
    45c4:	00531021 	addu	v0,v0,s3
    45c8:	8c430018 	lw	v1,24(v0)
    45cc:	93828b71 	lbu	v0,-29839(gp)
    45d0:	8c640004 	lw	a0,4(v1)
    45d4:	30420001 	andi	v0,v0,0x1
    45d8:	00042142 	srl	a0,a0,0x5
    45dc:	1440004d 	bnez	v0,0x4714
    45e0:	30900001 	andi	s0,a0,0x1
    45e4:	00072c00 	sll	a1,a3,0x10
    45e8:	00052c03 	sra	a1,a1,0x10
    45ec:	0c001b66 	jal	0x6d98
    45f0:	02202021 	move	a0,s1
    45f4:	96260006 	lhu	a2,6(s1)
    45f8:	12000014 	beqz	s0,0x464c
    45fc:	30c5ffff 	andi	a1,a2,0xffff
    4600:	02609021 	move	s2,s3
    4604:	000510c0 	sll	v0,a1,0x3
    4608:	00451021 	addu	v0,v0,a1
    460c:	00021080 	sll	v0,v0,0x2
    4610:	00521821 	addu	v1,v0,s2
    4614:	9222000a 	lbu	v0,10(s1)
    4618:	00000000 	nop
    461c:	1040000b 	beqz	v0,0x464c
    4620:	02202021 	move	a0,s1
    4624:	8c630018 	lw	v1,24(v1)
    4628:	00000000 	nop
    462c:	8c620004 	lw	v0,4(v1)
    4630:	00000000 	nop
    4634:	00021142 	srl	v0,v0,0x5
    4638:	0c001b66 	jal	0x6d98
    463c:	30500001 	andi	s0,v0,0x1
    4640:	96260006 	lhu	a2,6(s1)
    4644:	1600ffef 	bnez	s0,0x4604
    4648:	30c5ffff 	andi	a1,a2,0xffff
    464c:	92220004 	lbu	v0,4(s1)
    4650:	00000000 	nop
    4654:	1440000d 	bnez	v0,0x468c
    4658:	24020001 	li	v0,1
    465c:	a2220017 	sb	v0,23(s1)
    4660:	92220017 	lbu	v0,23(s1)
    4664:	00000000 	nop
    4668:	10400005 	beqz	v0,0x4680
    466c:	00000000 	nop
    4670:	a6260014 	sh	a2,20(s1)
    4674:	92220016 	lbu	v0,22(s1)
    4678:	08001096 	j	0x4258
    467c:	304200c3 	andi	v0,v0,0xc3
    4680:	96220000 	lhu	v0,0(s1)
    4684:	080011bd 	j	0x46f4
    4688:	a6220014 	sh	v0,20(s1)
    468c:	9222000a 	lbu	v0,10(s1)
    4690:	00000000 	nop
    4694:	14400003 	bnez	v0,0x46a4
    4698:	00000000 	nop
    469c:	080011b8 	j	0x46e0
    46a0:	a2200017 	sb	zero,23(s1)
    46a4:	96240000 	lhu	a0,0(s1)
    46a8:	30c5ffff 	andi	a1,a2,0xffff
    46ac:	000518c0 	sll	v1,a1,0x3
    46b0:	000410c0 	sll	v0,a0,0x3
    46b4:	00441021 	addu	v0,v0,a0
    46b8:	00651821 	addu	v1,v1,a1
    46bc:	27849000 	addiu	a0,gp,-28672
    46c0:	00021080 	sll	v0,v0,0x2
    46c4:	00441021 	addu	v0,v0,a0
    46c8:	00031880 	sll	v1,v1,0x2
    46cc:	8c450008 	lw	a1,8(v0)
    46d0:	00641821 	addu	v1,v1,a0
    46d4:	8c640008 	lw	a0,8(v1)
    46d8:	3c028000 	lui	v0,0x8000
    46dc:	00a23824 	and	a3,a1,v0
    46e0:	10e00008 	beqz	a3,0x4704
    46e4:	00821024 	and	v0,a0,v0
    46e8:	10400004 	beqz	v0,0x46fc
    46ec:	00001821 	move	v1,zero
    46f0:	10e00002 	beqz	a3,0x46fc
    46f4:	24030001 	li	v1,1
    46f8:	0085182b 	sltu	v1,a0,a1
    46fc:	080011b8 	j	0x46e0
    4700:	a2230017 	sb	v1,23(s1)
    4704:	1040fffd 	beqz	v0,0x46fc
    4708:	0085182b 	sltu	v1,a0,a1
    470c:	080011dc 	j	0x4770
    4710:	00000000 	nop
    4714:	24050024 	li	a1,36
    4718:	f0e50006 	scd	a1,6(a3)
    471c:	00002812 	mflo	a1
    4720:	27829000 	addiu	v0,gp,-28672
    4724:	00a22821 	addu	a1,a1,v0
    4728:	0c000149 	jal	0x524
    472c:	00002021 	move	a0,zero
    4730:	9647000c 	lhu	a3,12(s2)
    4734:	0800119a 	j	0x4668
    4738:	00072c00 	sll	a1,a3,0x10
    473c:	27839010 	addiu	v1,gp,-28656
    4740:	27829018 	addiu	v0,gp,-28648
    4744:	00a21021 	addu	v0,a1,v0
    4748:	00a31821 	addu	v1,a1,v1
    474c:	90440000 	lbu	a0,0(v0)
    4750:	90650005 	lbu	a1,5(v1)
    4754:	93828010 	lbu	v0,-32752(gp)
    4758:	24070001 	li	a3,1
    475c:	0c00219a 	jal	0x8668
    4760:	afa20010 	sw	v0,16(sp)
    4764:	9647000c 	lhu	a3,12(s2)
    4768:	0800118d 	j	0x4634
    476c:	00071c00 	sll	v1,a3,0x10
    4770:	10a20009 	beq	a1,v0,0x4798
    4774:	24020002 	li	v0,2
    4778:	10a20005 	beq	a1,v0,0x4790
    477c:	24020003 	li	v0,3
    4780:	14a2ff7d 	bne	a1,v0,0x4578
    4784:	00000000 	nop
    4788:	0800117e 	j	0x45f8
    478c:	a2400007 	sb	zero,7(s2)
    4790:	0800117e 	j	0x45f8
    4794:	a2400006 	sb	zero,6(s2)
    4798:	0800117e 	j	0x45f8
    479c:	a2400005 	sb	zero,5(s2)
    47a0:	1440ff71 	bnez	v0,0x4568
    47a4:	3c04b005 	lui	a0,0xb005
    47a8:	34840229 	ori	a0,a0,0x229
    47ac:	90830000 	lbu	v1,0(a0)
    47b0:	30a5000f 	andi	a1,a1,0xf
    47b4:	24020080 	li	v0,128
    47b8:	08001175 	j	0x45d4
    47bc:	00a21007 	srav	v0,v0,a1
    47c0:	1440fec3 	bnez	v0,0x42d0
    47c4:	3c04b005 	lui	a0,0xb005
    47c8:	34840229 	ori	a0,a0,0x229
    47cc:	90830000 	lbu	v1,0(a0)
    47d0:	30a5000f 	andi	a1,a1,0xf
    47d4:	24020080 	li	v0,128
    47d8:	080010d0 	j	0x4340
    47dc:	00a21007 	srav	v0,v0,a1
    47e0:	8483000c 	lh	v1,12(a0)
    47e4:	00000000 	nop
    47e8:	000310c0 	sll	v0,v1,0x3
    47ec:	00431021 	addu	v0,v0,v1
    47f0:	00021080 	sll	v0,v0,0x2
    47f4:	27839004 	addiu	v1,gp,-28668
    47f8:	00431021 	addu	v0,v0,v1
    47fc:	8c470018 	lw	a3,24(v0)
    4800:	00000000 	nop
    4804:	8ce60008 	lw	a2,8(a3)
    4808:	0c000f19 	jal	0x3c64
    480c:	00000000 	nop
    4810:	02402021 	move	a0,s2
    4814:	00002821 	move	a1,zero
    4818:	00003021 	move	a2,zero
    481c:	00003821 	move	a3,zero
    4820:	0c001c68 	jal	0x71a0
    4824:	afa20010 	sw	v0,16(sp)
    4828:	00021e00 	sll	v1,v0,0x18
    482c:	1460fe6b 	bnez	v1,0x41dc
    4830:	a2220012 	sb	v0,18(s1)
    4834:	92430008 	lbu	v1,8(s2)
    4838:	00000000 	nop
    483c:	14600040 	bnez	v1,0x4940
    4840:	24020001 	li	v0,1
    4844:	a2400004 	sb	zero,4(s2)
    4848:	92280004 	lbu	t0,4(s1)
    484c:	00000000 	nop
    4850:	15000019 	bnez	t0,0x48b8
    4854:	24020001 	li	v0,1
    4858:	9227000a 	lbu	a3,10(s1)
    485c:	a2220017 	sb	v0,23(s1)
    4860:	92220017 	lbu	v0,23(s1)
    4864:	00000000 	nop
    4868:	10400010 	beqz	v0,0x48ac
    486c:	00000000 	nop
    4870:	96220006 	lhu	v0,6(s1)
    4874:	00000000 	nop
    4878:	a6220014 	sh	v0,20(s1)
    487c:	92220016 	lbu	v0,22(s1)
    4880:	30e300ff 	andi	v1,a3,0xff
    4884:	304200c0 	andi	v0,v0,0xc0
    4888:	10600003 	beqz	v1,0x4898
    488c:	a2220016 	sb	v0,22(s1)
    4890:	34420001 	ori	v0,v0,0x1
    4894:	a2220016 	sb	v0,22(s1)
    4898:	1100fe50 	beqz	t0,0x41dc
    489c:	00000000 	nop
    48a0:	92220016 	lbu	v0,22(s1)
    48a4:	08001096 	j	0x4258
    48a8:	34420002 	ori	v0,v0,0x2
    48ac:	96220000 	lhu	v0,0(s1)
    48b0:	0800123f 	j	0x48fc
    48b4:	a6220014 	sh	v0,20(s1)
    48b8:	9227000a 	lbu	a3,10(s1)
    48bc:	00000000 	nop
    48c0:	14e00003 	bnez	a3,0x48d0
    48c4:	00000000 	nop
    48c8:	08001238 	j	0x48e0
    48cc:	a2200017 	sb	zero,23(s1)
    48d0:	96240000 	lhu	a0,0(s1)
    48d4:	96250006 	lhu	a1,6(s1)
    48d8:	27869000 	addiu	a2,gp,-28672
    48dc:	000418c0 	sll	v1,a0,0x3
    48e0:	00641821 	addu	v1,v1,a0
    48e4:	000510c0 	sll	v0,a1,0x3
    48e8:	00451021 	addu	v0,v0,a1
    48ec:	00031880 	sll	v1,v1,0x2
    48f0:	00661821 	addu	v1,v1,a2
    48f4:	00021080 	sll	v0,v0,0x2
    48f8:	00461021 	addu	v0,v0,a2
    48fc:	8c650008 	lw	a1,8(v1)
    4900:	8c440008 	lw	a0,8(v0)
    4904:	3c038000 	lui	v1,0x8000
    4908:	00a33024 	and	a2,a1,v1
    490c:	10c00008 	beqz	a2,0x4930
    4910:	00831024 	and	v0,a0,v1
    4914:	10400004 	beqz	v0,0x4928
    4918:	00001821 	move	v1,zero
    491c:	10c00002 	beqz	a2,0x4928
    4920:	24030001 	li	v1,1
    4924:	0085182b 	sltu	v1,a0,a1
    4928:	08001238 	j	0x48e0
    492c:	a2230017 	sb	v1,23(s1)
    4930:	1040fffd 	beqz	v0,0x4928
    4934:	0085182b 	sltu	v1,a0,a1
    4938:	08001267 	j	0x499c
    493c:	00000000 	nop
    4940:	10620009 	beq	v1,v0,0x4968
    4944:	24020002 	li	v0,2
    4948:	10620005 	beq	v1,v0,0x4960
    494c:	24020003 	li	v0,3
    4950:	1462ffbd 	bne	v1,v0,0x4848
    4954:	00000000 	nop
    4958:	08001232 	j	0x48c8
    495c:	a2400007 	sb	zero,7(s2)
    4960:	08001232 	j	0x48c8
    4964:	a2400006 	sb	zero,6(s2)
    4968:	08001232 	j	0x48c8
    496c:	a2400005 	sb	zero,5(s2)
    4970:	3c028000 	lui	v0,0x8000
    4974:	00823024 	and	a2,a0,v0
    4978:	10c00008 	beqz	a2,0x499c
    497c:	00a21824 	and	v1,a1,v0
    4980:	10600004 	beqz	v1,0x4994
    4984:	00001021 	move	v0,zero
    4988:	10c00002 	beqz	a2,0x4994
    498c:	24020001 	li	v0,1
    4990:	00a4102b 	sltu	v0,a1,a0
    4994:	03e00008 	jr	ra
    4998:	00000000 	nop
    499c:	1060fffd 	beqz	v1,0x4994
    49a0:	00a4102b 	sltu	v0,a1,a0
    49a4:	08001282 	j	0x4a08
    49a8:	00000000 	nop
    49ac:	3082ffff 	andi	v0,a0,0xffff
    49b0:	000218c0 	sll	v1,v0,0x3
    49b4:	00621821 	addu	v1,v1,v0
    49b8:	27849010 	addiu	a0,gp,-28656
    49bc:	00031880 	sll	v1,v1,0x2
    49c0:	00641821 	addu	v1,v1,a0
    49c4:	80660006 	lb	a2,6(v1)
    49c8:	00021200 	sll	v0,v0,0x8
    49cc:	3c03b000 	lui	v1,0xb000
    49d0:	00461021 	addu	v0,v0,a2
    49d4:	00451021 	addu	v0,v0,a1
    49d8:	03e00008 	jr	ra
    49dc:	00431021 	addu	v0,v0,v1
    49e0:	27bdffe0 	addiu	sp,sp,-32
    49e4:	3082007c 	andi	v0,a0,0x7c
    49e8:	3084ff00 	andi	a0,a0,0xff00
    49ec:	afbf001c 	sw	ra,28(sp)
    49f0:	afb20018 	sw	s2,24(sp)
    49f4:	afb10014 	sw	s1,20(sp)
    49f8:	afb00010 	sw	s0,16(sp)
    49fc:	14400041 	bnez	v0,0x4b04
    4a00:	00042203 	sra	a0,a0,0x8
    4a04:	24020004 	li	v0,4
    4a08:	3c10b003 	lui	s0,0xb003
    4a0c:	8e100000 	lw	s0,0(s0)
    4a10:	10820032 	beq	a0,v0,0x4adc
    4a14:	24020008 	li	v0,8
    4a18:	10820003 	beq	a0,v0,0x4a28
    4a1c:	32020020 	andi	v0,s0,0x20
    4a20:	080012a8 	j	0x4aa0
    4a24:	00000000 	nop
    4a28:	10400017 	beqz	v0,0x4a88
    4a2c:	3c02b006 	lui	v0,0xb006
    4a30:	34428024 	ori	v0,v0,0x8024
    4a34:	8c430000 	lw	v1,0(v0)
    4a38:	00000000 	nop
    4a3c:	306700ff 	andi	a3,v1,0xff
    4a40:	10e00023 	beqz	a3,0x4ad0
    4a44:	00008821 	move	s1,zero
    4a48:	8f858fe0 	lw	a1,-28704(gp)
    4a4c:	00403021 	move	a2,v0
    4a50:	94a20008 	lhu	v0,8(a1)
    4a54:	8cc30000 	lw	v1,0(a2)
    4a58:	26310001 	addiu	s1,s1,1
    4a5c:	24420002 	addiu	v0,v0,2
    4a60:	304201ff 	andi	v0,v0,0x1ff
    4a64:	34630100 	ori	v1,v1,0x100
    4a68:	0227202a 	slt	a0,s1,a3
    4a6c:	a4a20008 	sh	v0,8(a1)
    4a70:	1480fff7 	bnez	a0,0x4a50
    4a74:	acc30000 	sw	v1,0(a2)
    4a78:	84a30008 	lh	v1,8(a1)
    4a7c:	3c02b003 	lui	v0,0xb003
    4a80:	34420030 	ori	v0,v0,0x30
    4a84:	ac430000 	sw	v1,0(v0)
    4a88:	2792b400 	addiu	s2,gp,-19456
    4a8c:	24110012 	li	s1,18
    4a90:	8e440000 	lw	a0,0(s2)
    4a94:	2631ffff 	addiu	s1,s1,-1
    4a98:	90820010 	lbu	v0,16(a0)
    4a9c:	00000000 	nop
    4aa0:	10400003 	beqz	v0,0x4ab0
    4aa4:	26520004 	addiu	s2,s2,4
    4aa8:	0c0018d0 	jal	0x6340
    4aac:	00000000 	nop
    4ab0:	0621fff7 	bgez	s1,0x4a90
    4ab4:	2402ffdf 	li	v0,-33
    4ab8:	02028024 	and	s0,s0,v0
    4abc:	3c01b003 	lui	at,0xb003
    4ac0:	0c00131c 	jal	0x4c70
    4ac4:	ac300000 	sw	s0,0(at)
    4ac8:	080012a8 	j	0x4aa0
    4acc:	00000000 	nop
    4ad0:	8f858fe0 	lw	a1,-28704(gp)
    4ad4:	080012be 	j	0x4af8
    4ad8:	00000000 	nop
    4adc:	2402ff95 	li	v0,-107
    4ae0:	3c03b003 	lui	v1,0xb003
    4ae4:	02028024 	and	s0,s0,v0
    4ae8:	34630030 	ori	v1,v1,0x30
    4aec:	3c01b003 	lui	at,0xb003
    4af0:	ac300000 	sw	s0,0(at)
    4af4:	0c0012e5 	jal	0x4b94
    4af8:	ac600000 	sw	zero,0(v1)
    4afc:	080012a8 	j	0x4aa0
    4b00:	00000000 	nop
    4b04:	3c02b003 	lui	v0,0xb003
    4b08:	34420050 	ori	v0,v0,0x50
    4b0c:	080012a8 	j	0x4aa0
    4b10:	ac460000 	sw	a2,0(v0)
    4b14:	3c0a8000 	lui	t2,0x8000
    4b18:	254a4b94 	addiu	t2,t2,19348
    4b1c:	3c0bb003 	lui	t3,0xb003
    4b20:	ad6a0020 	sw	t2,32(t3)
    4b24:	3c088001 	lui	t0,0x8001
    4b28:	25080000 	addiu	t0,t0,0
    4b2c:	3c098001 	lui	t1,0x8001
    4b30:	25290350 	addiu	t1,t1,848
    4b34:	11090010 	beq	t0,t1,0x4b78
    4b38:	00000000 	nop
    4b3c:	3c0a8000 	lui	t2,0x8000
    4b40:	254a4bbc 	addiu	t2,t2,19388
    4b44:	3c0bb003 	lui	t3,0xb003
    4b48:	ad6a0020 	sw	t2,32(t3)
    4b4c:	3c08b006 	lui	t0,0xb006
    4b50:	35088010 	ori	t0,t0,0x8010
	...
    4b5c:	8d090000 	lw	t1,0(t0)
    4b60:	00000000 	nop
    4b64:	31290001 	andi	t1,t1,0x1
    4b68:	00000000 	nop
    4b6c:	24010001 	li	at,1
    4b70:	1521fff2 	bne	t1,at,0x4b3c
    4b74:	00000000 	nop
    4b78:	3c0a8000 	lui	t2,0x8000
    4b7c:	254a4bf8 	addiu	t2,t2,19448
    4b80:	3c0bb003 	lui	t3,0xb003
    4b84:	ad6a0020 	sw	t2,32(t3)
    4b88:	3c02b003 	lui	v0,0xb003
    4b8c:	8c430000 	lw	v1,0(v0)
    4b90:	00000000 	nop
    4b94:	34630040 	ori	v1,v1,0x40
    4b98:	00000000 	nop
    4b9c:	ac430000 	sw	v1,0(v0)
    4ba0:	00000000 	nop
    4ba4:	3c0a8000 	lui	t2,0x8000
    4ba8:	254a4c24 	addiu	t2,t2,19492
    4bac:	3c0bb003 	lui	t3,0xb003
    4bb0:	ad6a0020 	sw	t2,32(t3)
    4bb4:	3c028001 	lui	v0,0x8001
    4bb8:	24420000 	addiu	v0,v0,0
    4bbc:	3c038001 	lui	v1,0x8001
    4bc0:	24630350 	addiu	v1,v1,848
    4bc4:	3c04b000 	lui	a0,0xb000
    4bc8:	8c850000 	lw	a1,0(a0)
    4bcc:	00000000 	nop
    4bd0:	ac450000 	sw	a1,0(v0)
    4bd4:	24420004 	addiu	v0,v0,4
    4bd8:	24840004 	addiu	a0,a0,4
    4bdc:	0043082a 	slt	at,v0,v1
    4be0:	1420fff9 	bnez	at,0x4bc8
    4be4:	00000000 	nop
    4be8:	0c00131c 	jal	0x4c70
    4bec:	00000000 	nop
    4bf0:	3c0a8000 	lui	t2,0x8000
    4bf4:	254a4c70 	addiu	t2,t2,19568
    4bf8:	3c0bb003 	lui	t3,0xb003
    4bfc:	ad6a0020 	sw	t2,32(t3)
    4c00:	3c028001 	lui	v0,0x8001
    4c04:	24420350 	addiu	v0,v0,848
    4c08:	3c038001 	lui	v1,0x8001
    4c0c:	24633f24 	addiu	v1,v1,16164
    4c10:	ac400000 	sw	zero,0(v0)
    4c14:	ac400004 	sw	zero,4(v0)
    4c18:	ac400008 	sw	zero,8(v0)
    4c1c:	ac40000c 	sw	zero,12(v0)
    4c20:	24420010 	addiu	v0,v0,16
    4c24:	0043082a 	slt	at,v0,v1
    4c28:	1420fff9 	bnez	at,0x4c10
    4c2c:	00000000 	nop
    4c30:	3c0a8000 	lui	t2,0x8000
    4c34:	254a4cb0 	addiu	t2,t2,19632
    4c38:	3c0bb003 	lui	t3,0xb003
    4c3c:	ad6a0020 	sw	t2,32(t3)
    4c40:	3c1c8001 	lui	gp,0x8001
    4c44:	279c7ff0 	addiu	gp,gp,32752
    4c48:	279d8be0 	addiu	sp,gp,-29728
    4c4c:	00000000 	nop
    4c50:	279d8fc8 	addiu	sp,gp,-28728
    4c54:	3c0a8000 	lui	t2,0x8000
    4c58:	254a4cd4 	addiu	t2,t2,19668
    4c5c:	3c0bb003 	lui	t3,0xb003
    4c60:	ad6a0020 	sw	t2,32(t3)
    4c64:	40806800 	mtc0	zero,$13
    4c68:	40086000 	mfc0	t0,$12
    4c6c:	00000000 	nop
    4c70:	3508ff01 	ori	t0,t0,0xff01
    4c74:	40886000 	mtc0	t0,$12
    4c78:	00000000 	nop
    4c7c:	0c001562 	jal	0x5588
    4c80:	00000000 	nop
    4c84:	2484f800 	addiu	a0,a0,-2048
    4c88:	30870003 	andi	a3,a0,0x3
    4c8c:	00043040 	sll	a2,a0,0x1
    4c90:	00c72023 	subu	a0,a2,a3
    4c94:	3c02b00a 	lui	v0,0xb00a
    4c98:	27bdffe0 	addiu	sp,sp,-32
    4c9c:	2403ffff 	li	v1,-1
    4ca0:	00822021 	addu	a0,a0,v0
    4ca4:	afb10014 	sw	s1,20(sp)
    4ca8:	ac831000 	sw	v1,4096(a0)
    4cac:	afbf0018 	sw	ra,24(sp)
    4cb0:	afb00010 	sw	s0,16(sp)
    4cb4:	00a08821 	move	s1,a1
    4cb8:	24030001 	li	v1,1
    4cbc:	8c821000 	lw	v0,4096(a0)
    4cc0:	00000000 	nop
    4cc4:	1443fffd 	bne	v0,v1,0x4cbc
    4cc8:	00c71023 	subu	v0,a2,a3
    4ccc:	3c03b00a 	lui	v1,0xb00a
    4cd0:	00431021 	addu	v0,v0,v1
    4cd4:	8c500000 	lw	s0,0(v0)
    4cd8:	0c001399 	jal	0x4e64
    4cdc:	02202021 	move	a0,s1
    4ce0:	02118024 	and	s0,s0,s1
    4ce4:	00508006 	srlv	s0,s0,v0
    4ce8:	02001021 	move	v0,s0
    4cec:	8fbf0018 	lw	ra,24(sp)
    4cf0:	7bb000bc 	.word	0x7bb000bc
    4cf4:	03e00008 	jr	ra
    4cf8:	27bd0020 	addiu	sp,sp,32
    4cfc:	27bdffd8 	addiu	sp,sp,-40
    4d00:	afb20018 	sw	s2,24(sp)
    4d04:	00a09021 	move	s2,a1
    4d08:	2405ffff 	li	a1,-1
    4d0c:	afb3001c 	sw	s3,28(sp)
    4d10:	afbf0020 	sw	ra,32(sp)
    4d14:	afb10014 	sw	s1,20(sp)
    4d18:	afb00010 	sw	s0,16(sp)
    4d1c:	00c09821 	move	s3,a2
    4d20:	12450023 	beq	s2,a1,0x4db0
    4d24:	2484f800 	addiu	a0,a0,-2048
    4d28:	30830003 	andi	v1,a0,0x3
    4d2c:	00041040 	sll	v0,a0,0x1
    4d30:	00408821 	move	s1,v0
    4d34:	00602021 	move	a0,v1
    4d38:	00431023 	subu	v0,v0,v1
    4d3c:	3c03b00a 	lui	v1,0xb00a
    4d40:	00431021 	addu	v0,v0,v1
    4d44:	ac451000 	sw	a1,4096(v0)
    4d48:	00401821 	move	v1,v0
    4d4c:	24050001 	li	a1,1
    4d50:	8c621000 	lw	v0,4096(v1)
    4d54:	00000000 	nop
    4d58:	1445fffd 	bne	v0,a1,0x4d50
    4d5c:	3c02b00a 	lui	v0,0xb00a
    4d60:	02248823 	subu	s1,s1,a0
    4d64:	02228821 	addu	s1,s1,v0
    4d68:	8e300000 	lw	s0,0(s1)
    4d6c:	0c001399 	jal	0x4e64
    4d70:	02402021 	move	a0,s2
    4d74:	00121827 	nor	v1,zero,s2
    4d78:	02038024 	and	s0,s0,v1
    4d7c:	00531004 	sllv	v0,s3,v0
    4d80:	02028025 	or	s0,s0,v0
    4d84:	ae300000 	sw	s0,0(s1)
    4d88:	24030001 	li	v1,1
    4d8c:	8e221000 	lw	v0,4096(s1)
    4d90:	00000000 	nop
    4d94:	1443fffd 	bne	v0,v1,0x4d8c
    4d98:	00000000 	nop
    4d9c:	8fbf0020 	lw	ra,32(sp)
    4da0:	7bb200fc 	.word	0x7bb200fc
    4da4:	7bb000bc 	.word	0x7bb000bc
    4da8:	03e00008 	jr	ra
    4dac:	27bd0028 	addiu	sp,sp,40
    4db0:	30820003 	andi	v0,a0,0x3
    4db4:	00041840 	sll	v1,a0,0x1
    4db8:	00621823 	subu	v1,v1,v0
    4dbc:	3c04b00a 	lui	a0,0xb00a
    4dc0:	00641821 	addu	v1,v1,a0
    4dc4:	ac660000 	sw	a2,0(v1)
    4dc8:	24040001 	li	a0,1
    4dcc:	8c621000 	lw	v0,4096(v1)
    4dd0:	00000000 	nop
    4dd4:	1444fffd 	bne	v0,a0,0x4dcc
    4dd8:	00000000 	nop
    4ddc:	08001387 	j	0x4e1c
    4de0:	00000000 	nop
    4de4:	00001821 	move	v1,zero
    4de8:	00641006 	srlv	v0,a0,v1
    4dec:	30420001 	andi	v0,v0,0x1
    4df0:	14400005 	bnez	v0,0x4e08
    4df4:	00000000 	nop
    4df8:	24630001 	addiu	v1,v1,1
    4dfc:	2c620020 	sltiu	v0,v1,32
    4e00:	1440fff9 	bnez	v0,0x4de8
    4e04:	00000000 	nop
    4e08:	03e00008 	jr	ra
    4e0c:	00601021 	move	v0,v1
    4e10:	27bdffe0 	addiu	sp,sp,-32
    4e14:	3c03b005 	lui	v1,0xb005
    4e18:	afb20018 	sw	s2,24(sp)
    4e1c:	afb10014 	sw	s1,20(sp)
    4e20:	afb00010 	sw	s0,16(sp)
    4e24:	afbf001c 	sw	ra,28(sp)
    4e28:	00809021 	move	s2,a0
    4e2c:	00a08021 	move	s0,a1
    4e30:	00c08821 	move	s1,a2
    4e34:	3463022e 	ori	v1,v1,0x22e
    4e38:	90620000 	lbu	v0,0(v1)
    4e3c:	00000000 	nop
    4e40:	30420001 	andi	v0,v0,0x1
    4e44:	1440fffc 	bnez	v0,0x4e38
    4e48:	24040824 	li	a0,2084
    4e4c:	3c0500c0 	lui	a1,0xc0
    4e50:	0c00135f 	jal	0x4d7c
    4e54:	24060003 	li	a2,3
    4e58:	24040834 	li	a0,2100
    4e5c:	3c0500c0 	lui	a1,0xc0
    4e60:	0c00135f 	jal	0x4d7c
    4e64:	24060003 	li	a2,3
    4e68:	3c02c000 	lui	v0,0xc000
    4e6c:	00101c00 	sll	v1,s0,0x10
    4e70:	34420400 	ori	v0,v0,0x400
    4e74:	3c04b005 	lui	a0,0xb005
    4e78:	3c05b005 	lui	a1,0xb005
    4e7c:	24631609 	addiu	v1,v1,5641
    4e80:	02221021 	addu	v0,s1,v0
    4e84:	34840420 	ori	a0,a0,0x420
    4e88:	34a50424 	ori	a1,a1,0x424
    4e8c:	3c06b005 	lui	a2,0xb005
    4e90:	ac830000 	sw	v1,0(a0)
    4e94:	24070001 	li	a3,1
    4e98:	aca20000 	sw	v0,0(a1)
    4e9c:	34c60228 	ori	a2,a2,0x228
    4ea0:	24020020 	li	v0,32
    4ea4:	ae47003c 	sw	a3,60(s2)
    4ea8:	24040824 	li	a0,2084
    4eac:	a0c20000 	sb	v0,0(a2)
    4eb0:	3c0500c0 	lui	a1,0xc0
    4eb4:	a2470011 	sb	a3,17(s2)
    4eb8:	0c00135f 	jal	0x4d7c
    4ebc:	24060001 	li	a2,1
    4ec0:	24040834 	li	a0,2100
    4ec4:	3c0500c0 	lui	a1,0xc0
    4ec8:	0c00135f 	jal	0x4d7c
    4ecc:	24060001 	li	a2,1
    4ed0:	8fbf001c 	lw	ra,28(sp)
    4ed4:	8fb20018 	lw	s2,24(sp)
    4ed8:	7bb000bc 	.word	0x7bb000bc
    4edc:	03e00008 	jr	ra
    4ee0:	27bd0020 	addiu	sp,sp,32
    4ee4:	24020006 	li	v0,6
    4ee8:	ac82000c 	sw	v0,12(a0)
    4eec:	a0800050 	sb	zero,80(a0)
    4ef0:	ac800000 	sw	zero,0(a0)
    4ef4:	ac800004 	sw	zero,4(a0)
    4ef8:	ac800008 	sw	zero,8(a0)
    4efc:	ac800014 	sw	zero,20(a0)
    4f00:	ac800018 	sw	zero,24(a0)
    4f04:	ac80001c 	sw	zero,28(a0)
    4f08:	a4800020 	sh	zero,32(a0)
    4f0c:	ac800024 	sw	zero,36(a0)
    4f10:	ac800028 	sw	zero,40(a0)
    4f14:	ac80002c 	sw	zero,44(a0)
    4f18:	a0800030 	sb	zero,48(a0)
    4f1c:	a0800031 	sb	zero,49(a0)
    4f20:	ac800034 	sw	zero,52(a0)
    4f24:	ac800038 	sw	zero,56(a0)
    4f28:	a080003c 	sb	zero,60(a0)
    4f2c:	ac820010 	sw	v0,16(a0)
    4f30:	a0800044 	sb	zero,68(a0)
    4f34:	ac800048 	sw	zero,72(a0)
    4f38:	03e00008 	jr	ra
    4f3c:	ac80004c 	sw	zero,76(a0)
    4f40:	3c04b006 	lui	a0,0xb006
    4f44:	34848000 	ori	a0,a0,0x8000
    4f48:	8c830000 	lw	v1,0(a0)
    4f4c:	3c021200 	lui	v0,0x1200
    4f50:	3c05b003 	lui	a1,0xb003
    4f54:	00621825 	or	v1,v1,v0
    4f58:	34a5008b 	ori	a1,a1,0x8b
    4f5c:	2402ff80 	li	v0,-128
    4f60:	ac830000 	sw	v1,0(a0)
    4f64:	03e00008 	jr	ra
    4f68:	a0a20000 	sb	v0,0(a1)
    4f6c:	3c04b003 	lui	a0,0xb003
    4f70:	3484000b 	ori	a0,a0,0xb
    4f74:	24020022 	li	v0,34
    4f78:	3c05b001 	lui	a1,0xb001
    4f7c:	3c064567 	lui	a2,0x4567
    4f80:	3c0ab009 	lui	t2,0xb009
    4f84:	a0820000 	sb	v0,0(a0)
    4f88:	34a50004 	ori	a1,a1,0x4
    4f8c:	34c689aa 	ori	a2,a2,0x89aa
    4f90:	354a0004 	ori	t2,t2,0x4
    4f94:	24020123 	li	v0,291
    4f98:	3c0bb009 	lui	t3,0xb009
    4f9c:	3c070123 	lui	a3,0x123
    4fa0:	3c0cb009 	lui	t4,0xb009
    4fa4:	3c01b001 	lui	at,0xb001
    4fa8:	ac200000 	sw	zero,0(at)
    4fac:	27bdffe0 	addiu	sp,sp,-32
    4fb0:	aca00000 	sw	zero,0(a1)
    4fb4:	356b0008 	ori	t3,t3,0x8
    4fb8:	3c01b009 	lui	at,0xb009
    4fbc:	ac260000 	sw	a2,0(at)
    4fc0:	34e74566 	ori	a3,a3,0x4566
    4fc4:	a5420000 	sh	v0,0(t2)
    4fc8:	358c000c 	ori	t4,t4,0xc
    4fcc:	2402cdef 	li	v0,-12817
    4fd0:	3c0db009 	lui	t5,0xb009
    4fd4:	3c08cdef 	lui	t0,0xcdef
    4fd8:	3c0eb009 	lui	t6,0xb009
    4fdc:	ad670000 	sw	a3,0(t3)
    4fe0:	afb7001c 	sw	s7,28(sp)
    4fe4:	a5820000 	sh	v0,0(t4)
    4fe8:	afb60018 	sw	s6,24(sp)
    4fec:	afb50014 	sw	s5,20(sp)
    4ff0:	afb40010 	sw	s4,16(sp)
    4ff4:	afb3000c 	sw	s3,12(sp)
    4ff8:	afb20008 	sw	s2,8(sp)
    4ffc:	afb10004 	sw	s1,4(sp)
    5000:	afb00000 	sw	s0,0(sp)
    5004:	35ad0010 	ori	t5,t5,0x10
    5008:	35080122 	ori	t0,t0,0x122
    500c:	35ce0014 	ori	t6,t6,0x14
    5010:	240289ab 	li	v0,-30293
    5014:	3c0fb009 	lui	t7,0xb009
    5018:	3c0989ab 	lui	t1,0x89ab
    501c:	3c10b009 	lui	s0,0xb009
    5020:	3c11b009 	lui	s1,0xb009
    5024:	3c12b009 	lui	s2,0xb009
    5028:	3c13b009 	lui	s3,0xb009
    502c:	3c14b009 	lui	s4,0xb009
    5030:	3c15b009 	lui	s5,0xb009
    5034:	3c16b009 	lui	s6,0xb009
    5038:	3c17b009 	lui	s7,0xb009
    503c:	ada80000 	sw	t0,0(t5)
    5040:	2403ffff 	li	v1,-1
    5044:	a5c20000 	sh	v0,0(t6)
    5048:	35ef0018 	ori	t7,t7,0x18
    504c:	3529cdee 	ori	t1,t1,0xcdee
    5050:	3610001c 	ori	s0,s0,0x1c
    5054:	36310020 	ori	s1,s1,0x20
    5058:	36520024 	ori	s2,s2,0x24
    505c:	36730028 	ori	s3,s3,0x28
    5060:	3694002c 	ori	s4,s4,0x2c
    5064:	36b50030 	ori	s5,s5,0x30
    5068:	36d60034 	ori	s6,s6,0x34
    506c:	36f70038 	ori	s7,s7,0x38
    5070:	24024567 	li	v0,17767
    5074:	ade90000 	sw	t1,0(t7)
    5078:	a6020000 	sh	v0,0(s0)
    507c:	ae230000 	sw	v1,0(s1)
    5080:	8fb00000 	lw	s0,0(sp)
    5084:	a6430000 	sh	v1,0(s2)
    5088:	8fb10004 	lw	s1,4(sp)
    508c:	ae630000 	sw	v1,0(s3)
    5090:	8fb20008 	lw	s2,8(sp)
    5094:	a6830000 	sh	v1,0(s4)
    5098:	8fb3000c 	lw	s3,12(sp)
    509c:	aea30000 	sw	v1,0(s5)
    50a0:	8fb40010 	lw	s4,16(sp)
    50a4:	a6c30000 	sh	v1,0(s6)
    50a8:	8fb50014 	lw	s5,20(sp)
    50ac:	aee30000 	sw	v1,0(s7)
    50b0:	7bb600fc 	.word	0x7bb600fc
    50b4:	3c18b009 	lui	t8,0xb009
    50b8:	3718003c 	ori	t8,t8,0x3c
    50bc:	a7030000 	sh	v1,0(t8)
    50c0:	03e00008 	jr	ra
    50c4:	27bd0020 	addiu	sp,sp,32
    50c8:	3c03b003 	lui	v1,0xb003
    50cc:	3c028000 	lui	v0,0x8000
    50d0:	34630020 	ori	v1,v1,0x20
    50d4:	24425148 	addiu	v0,v0,20808
    50d8:	ac620000 	sw	v0,0(v1)
    50dc:	8c830034 	lw	v1,52(a0)
    50e0:	3402ffff 	li	v0,0xffff
    50e4:	0043102a 	slt	v0,v0,v1
    50e8:	14400104 	bnez	v0,0x54fc
    50ec:	00802821 	move	a1,a0
    50f0:	8c860008 	lw	a2,8(a0)
    50f4:	24020003 	li	v0,3
    50f8:	10c200f7 	beq	a2,v0,0x54d8
    50fc:	00000000 	nop
    5100:	8ca2002c 	lw	v0,44(a1)
    5104:	00000000 	nop
    5108:	1440004f 	bnez	v0,0x5248
    510c:	24020006 	li	v0,6
    5110:	3c03b005 	lui	v1,0xb005
    5114:	34630450 	ori	v1,v1,0x450
    5118:	90620000 	lbu	v0,0(v1)
    511c:	00000000 	nop
    5120:	304200ff 	andi	v0,v0,0xff
    5124:	144000dd 	bnez	v0,0x549c
    5128:	aca2002c 	sw	v0,44(a1)
    512c:	24020001 	li	v0,1
    5130:	10c200dc 	beq	a2,v0,0x54a4
    5134:	00000000 	nop
    5138:	24020002 	li	v0,2
    513c:	10c200ca 	beq	a2,v0,0x5468
    5140:	00000000 	nop
    5144:	8ca70004 	lw	a3,4(a1)
    5148:	24020002 	li	v0,2
    514c:	10e200c0 	beq	a3,v0,0x5450
    5150:	00000000 	nop
    5154:	8ca20014 	lw	v0,20(a1)
    5158:	00000000 	nop
    515c:	14400009 	bnez	v0,0x5184
    5160:	24020001 	li	v0,1
    5164:	3c03b009 	lui	v1,0xb009
    5168:	34630160 	ori	v1,v1,0x160
    516c:	90620000 	lbu	v0,0(v1)
    5170:	00000000 	nop
    5174:	304200ff 	andi	v0,v0,0xff
    5178:	10400005 	beqz	v0,0x5190
    517c:	aca20014 	sw	v0,20(a1)
    5180:	24020001 	li	v0,1
    5184:	aca20000 	sw	v0,0(a1)
    5188:	03e00008 	jr	ra
    518c:	aca00014 	sw	zero,20(a1)
    5190:	3c02b003 	lui	v0,0xb003
    5194:	344200d0 	ori	v0,v0,0xd0
    5198:	8c430000 	lw	v1,0(v0)
    519c:	00000000 	nop
    51a0:	04610019 	bgez	v1,0x5208
    51a4:	3c02b003 	lui	v0,0xb003
    51a8:	3c03b005 	lui	v1,0xb005
    51ac:	3463022e 	ori	v1,v1,0x22e
    51b0:	90620000 	lbu	v0,0(v1)
    51b4:	00000000 	nop
    51b8:	30420001 	andi	v0,v0,0x1
    51bc:	14400012 	bnez	v0,0x5208
    51c0:	3c02b003 	lui	v0,0xb003
    51c4:	3c02b005 	lui	v0,0xb005
    51c8:	34420242 	ori	v0,v0,0x242
    51cc:	90430000 	lbu	v1,0(v0)
    51d0:	00000000 	nop
    51d4:	1460000c 	bnez	v1,0x5208
    51d8:	3c02b003 	lui	v0,0xb003
    51dc:	80a20050 	lb	v0,80(a1)
    51e0:	00000000 	nop
    51e4:	14400008 	bnez	v0,0x5208
    51e8:	3c02b003 	lui	v0,0xb003
    51ec:	14c00007 	bnez	a2,0x520c
    51f0:	3442003f 	ori	v0,v0,0x3f
    51f4:	2402000e 	li	v0,14
    51f8:	24030001 	li	v1,1
    51fc:	aca20000 	sw	v0,0(a1)
    5200:	03e00008 	jr	ra
    5204:	a0a30050 	sb	v1,80(a1)
    5208:	3442003f 	ori	v0,v0,0x3f
    520c:	90440000 	lbu	a0,0(v0)
    5210:	24030001 	li	v1,1
    5214:	1064007f 	beq	v1,a0,0x5414
    5218:	3c03b005 	lui	v1,0xb005
    521c:	80a20031 	lb	v0,49(a1)
    5220:	00000000 	nop
    5224:	1040000a 	beqz	v0,0x5250
    5228:	3c02b006 	lui	v0,0xb006
    522c:	34428018 	ori	v0,v0,0x8018
    5230:	8c430000 	lw	v1,0(v0)
    5234:	3c04f000 	lui	a0,0xf000
    5238:	3c028000 	lui	v0,0x8000
    523c:	00641824 	and	v1,v1,a0
    5240:	10620003 	beq	v1,v0,0x5250
    5244:	24020009 	li	v0,9
    5248:	03e00008 	jr	ra
    524c:	aca20000 	sw	v0,0(a1)
    5250:	8ca20040 	lw	v0,64(a1)
    5254:	00000000 	nop
    5258:	8c430000 	lw	v1,0(v0)
    525c:	00000000 	nop
    5260:	10600009 	beqz	v1,0x5288
    5264:	3c03b003 	lui	v1,0xb003
    5268:	3c02b005 	lui	v0,0xb005
    526c:	3442022c 	ori	v0,v0,0x22c
    5270:	8c430000 	lw	v1,0(v0)
    5274:	3c040002 	lui	a0,0x2
    5278:	00641824 	and	v1,v1,a0
    527c:	1460fff2 	bnez	v1,0x5248
    5280:	24020010 	li	v0,16
    5284:	3c03b003 	lui	v1,0xb003
    5288:	34630201 	ori	v1,v1,0x201
    528c:	90620000 	lbu	v0,0(v1)
    5290:	00000000 	nop
    5294:	30420080 	andi	v0,v0,0x80
    5298:	1040000e 	beqz	v0,0x52d4
    529c:	00000000 	nop
    52a0:	8ca3000c 	lw	v1,12(a1)
    52a4:	00000000 	nop
    52a8:	aca30010 	sw	v1,16(a1)
    52ac:	3c02b003 	lui	v0,0xb003
    52b0:	90420201 	lbu	v0,513(v0)
    52b4:	00000000 	nop
    52b8:	3042000f 	andi	v0,v0,0xf
    52bc:	aca2000c 	sw	v0,12(a1)
    52c0:	90a3000f 	lbu	v1,15(a1)
    52c4:	2402000d 	li	v0,13
    52c8:	3c01b003 	lui	at,0xb003
    52cc:	080014b2 	j	0x52c8
    52d0:	a0230201 	sb	v1,513(at)
    52d4:	3c02b009 	lui	v0,0xb009
    52d8:	34420180 	ori	v0,v0,0x180
    52dc:	90440000 	lbu	a0,0(v0)
    52e0:	00000000 	nop
    52e4:	00041e00 	sll	v1,a0,0x18
    52e8:	00031e03 	sra	v1,v1,0x18
    52ec:	10600015 	beqz	v1,0x5344
    52f0:	a0a40044 	sb	a0,68(a1)
    52f4:	24020001 	li	v0,1
    52f8:	1062000b 	beq	v1,v0,0x5328
    52fc:	24020002 	li	v0,2
    5300:	10620003 	beq	v1,v0,0x5310
    5304:	2403000d 	li	v1,13
    5308:	03e00008 	jr	ra
    530c:	00000000 	nop
    5310:	8ca2000c 	lw	v0,12(a1)
    5314:	aca30000 	sw	v1,0(a1)
    5318:	24030004 	li	v1,4
    531c:	aca20010 	sw	v0,16(a1)
    5320:	03e00008 	jr	ra
    5324:	aca3000c 	sw	v1,12(a1)
    5328:	2402000d 	li	v0,13
    532c:	aca20000 	sw	v0,0(a1)
    5330:	24030004 	li	v1,4
    5334:	24020006 	li	v0,6
    5338:	aca30010 	sw	v1,16(a1)
    533c:	03e00008 	jr	ra
    5340:	aca2000c 	sw	v0,12(a1)
    5344:	8ca30038 	lw	v1,56(a1)
    5348:	24040001 	li	a0,1
    534c:	1064002d 	beq	v1,a0,0x5404
    5350:	24020002 	li	v0,2
    5354:	10600019 	beqz	v1,0x53bc
    5358:	00000000 	nop
    535c:	10620010 	beq	v1,v0,0x53a0
    5360:	24020004 	li	v0,4
    5364:	10620004 	beq	v1,v0,0x5378
    5368:	00000000 	nop
    536c:	aca00038 	sw	zero,56(a1)
    5370:	03e00008 	jr	ra
    5374:	aca00000 	sw	zero,0(a1)
    5378:	10e40007 	beq	a3,a0,0x5398
    537c:	24020003 	li	v0,3
    5380:	80a20030 	lb	v0,48(a1)
    5384:	00000000 	nop
    5388:	0002180b 	.word	0x2180b
    538c:	aca30000 	sw	v1,0(a1)
    5390:	03e00008 	jr	ra
    5394:	aca00038 	sw	zero,56(a1)
    5398:	08001504 	j	0x5410
    539c:	aca20000 	sw	v0,0(a1)
    53a0:	10e40002 	beq	a3,a0,0x53ac
    53a4:	24020003 	li	v0,3
    53a8:	2402000c 	li	v0,12
    53ac:	aca20000 	sw	v0,0(a1)
    53b0:	24020004 	li	v0,4
    53b4:	03e00008 	jr	ra
    53b8:	aca20038 	sw	v0,56(a1)
    53bc:	10e4000e 	beq	a3,a0,0x53f8
    53c0:	3c03b006 	lui	v1,0xb006
    53c4:	34638024 	ori	v1,v1,0x8024
    53c8:	8c620000 	lw	v0,0(v1)
    53cc:	00000000 	nop
    53d0:	304200ff 	andi	v0,v0,0xff
    53d4:	10400006 	beqz	v0,0x53f0
    53d8:	aca20018 	sw	v0,24(a1)
    53dc:	24020002 	li	v0,2
    53e0:	aca20000 	sw	v0,0(a1)
    53e4:	aca00018 	sw	zero,24(a1)
    53e8:	0800150d 	j	0x5434
    53ec:	24020001 	li	v0,1
    53f0:	0800151a 	j	0x5468
    53f4:	aca00000 	sw	zero,0(a1)
    53f8:	24020003 	li	v0,3
    53fc:	0800151a 	j	0x5468
    5400:	aca20000 	sw	v0,0(a1)
    5404:	2403000b 	li	v1,11
    5408:	aca20038 	sw	v0,56(a1)
    540c:	03e00008 	jr	ra
    5410:	aca30000 	sw	v1,0(a1)
    5414:	3463022e 	ori	v1,v1,0x22e
    5418:	90620000 	lbu	v0,0(v1)
    541c:	00000000 	nop
    5420:	30420001 	andi	v0,v0,0x1
    5424:	1440ff7d 	bnez	v0,0x521c
    5428:	3c02b005 	lui	v0,0xb005
    542c:	34420242 	ori	v0,v0,0x242
    5430:	90430000 	lbu	v1,0(v0)
    5434:	00000000 	nop
    5438:	1460ff78 	bnez	v1,0x521c
    543c:	00000000 	nop
    5440:	10c0ff81 	beqz	a2,0x5248
    5444:	2402000e 	li	v0,14
    5448:	080014a7 	j	0x529c
    544c:	00000000 	nop
    5450:	80a20030 	lb	v0,48(a1)
    5454:	00000000 	nop
    5458:	1440ff3e 	bnez	v0,0x5154
    545c:	24020004 	li	v0,4
    5460:	080014b2 	j	0x52c8
    5464:	00000000 	nop
    5468:	84a20020 	lh	v0,32(a1)
    546c:	00000000 	nop
    5470:	1040ff75 	beqz	v0,0x5248
    5474:	24020006 	li	v0,6
    5478:	3c02b005 	lui	v0,0xb005
    547c:	3442022e 	ori	v0,v0,0x22e
    5480:	90430000 	lbu	v1,0(v0)
    5484:	00000000 	nop
    5488:	30630001 	andi	v1,v1,0x1
    548c:	306300ff 	andi	v1,v1,0xff
    5490:	00601021 	move	v0,v1
    5494:	1440ff2b 	bnez	v0,0x5144
    5498:	a4a30020 	sh	v1,32(a1)
    549c:	080014b2 	j	0x52c8
    54a0:	24020006 	li	v0,6
    54a4:	8ca2001c 	lw	v0,28(a1)
    54a8:	00000000 	nop
    54ac:	1440ff66 	bnez	v0,0x5248
    54b0:	24020005 	li	v0,5
    54b4:	3c03b005 	lui	v1,0xb005
    54b8:	3463022c 	ori	v1,v1,0x22c
    54bc:	8c620000 	lw	v0,0(v1)
    54c0:	00000000 	nop
    54c4:	304200ff 	andi	v0,v0,0xff
    54c8:	1040ff1b 	beqz	v0,0x5138
    54cc:	aca2001c 	sw	v0,28(a1)
    54d0:	080014b2 	j	0x52c8
    54d4:	24020005 	li	v0,5
    54d8:	3c02b005 	lui	v0,0xb005
    54dc:	8c420000 	lw	v0,0(v0)
    54e0:	00000000 	nop
    54e4:	00021742 	srl	v0,v0,0x1d
    54e8:	30420001 	andi	v0,v0,0x1
    54ec:	1440ff56 	bnez	v0,0x5248
    54f0:	24020006 	li	v0,6
    54f4:	08001460 	j	0x5180
    54f8:	00000000 	nop
    54fc:	2402000a 	li	v0,10
    5500:	03e00008 	jr	ra
    5504:	ac820000 	sw	v0,0(a0)
    5508:	27bdffd8 	addiu	sp,sp,-40
    550c:	afb00010 	sw	s0,16(sp)
    5510:	27908658 	addiu	s0,gp,-31144
    5514:	afbf0020 	sw	ra,32(sp)
    5518:	afb3001c 	sw	s3,28(sp)
    551c:	afb20018 	sw	s2,24(sp)
    5520:	0c0029e4 	jal	0xa790
    5524:	afb10014 	sw	s1,20(sp)
    5528:	af908fe0 	sw	s0,-28704(gp)
    552c:	48020000 	mfc2	v0,$0
    5530:	0c0013f0 	jal	0x4fc0
    5534:	00000000 	nop
    5538:	0c00181f 	jal	0x607c
    553c:	02002021 	move	a0,s0
    5540:	3c02b003 	lui	v0,0xb003
    5544:	3442003a 	ori	v0,v0,0x3a
    5548:	94430000 	lhu	v1,0(v0)
    554c:	00000000 	nop
    5550:	a3838fe4 	sb	v1,-28700(gp)
    5554:	0c000034 	jal	0xd0
    5558:	00000000 	nop
    555c:	0c0013fb 	jal	0x4fec
    5560:	00000000 	nop
    5564:	27848498 	addiu	a0,gp,-31592
    5568:	0c002759 	jal	0x9d64
    556c:	00000000 	nop
    5570:	93848010 	lbu	a0,-32752(gp)
    5574:	0c00213f 	jal	0x84fc
    5578:	00000000 	nop
    557c:	27848918 	addiu	a0,gp,-30440
    5580:	0c0006e5 	jal	0x1b94
    5584:	00000000 	nop
    5588:	0c000139 	jal	0x4e4
    558c:	00000000 	nop
    5590:	27848440 	addiu	a0,gp,-31680
    5594:	0c0013d9 	jal	0x4f64
    5598:	00000000 	nop
    559c:	2782894c 	addiu	v0,gp,-30388
    55a0:	af828480 	sw	v0,-31616(gp)
    55a4:	0c00005f 	jal	0x17c
    55a8:	00000000 	nop
    55ac:	3c03b003 	lui	v1,0xb003
    55b0:	34630108 	ori	v1,v1,0x108
    55b4:	3c04b009 	lui	a0,0xb009
    55b8:	3c05b009 	lui	a1,0xb009
    55bc:	8c660000 	lw	a2,0(v1)
    55c0:	34840168 	ori	a0,a0,0x168
    55c4:	34a50140 	ori	a1,a1,0x140
    55c8:	2402c880 	li	v0,-14208
    55cc:	2403000a 	li	v1,10
    55d0:	a4820000 	sh	v0,0(a0)
    55d4:	a4a30000 	sh	v1,0(a1)
    55d8:	3c04b003 	lui	a0,0xb003
    55dc:	8c820000 	lw	v0,0(a0)
    55e0:	8f858440 	lw	a1,-31680(gp)
    55e4:	af868438 	sw	a2,-31688(gp)
    55e8:	34420020 	ori	v0,v0,0x20
    55ec:	ac820000 	sw	v0,0(a0)
    55f0:	3c02b003 	lui	v0,0xb003
    55f4:	34420058 	ori	v0,v0,0x58
    55f8:	8c430000 	lw	v1,0(v0)
    55fc:	2ca40011 	sltiu	a0,a1,17
    5600:	34630100 	ori	v1,v1,0x100
    5604:	ac430000 	sw	v1,0(v0)
    5608:	1080fffa 	beqz	a0,0x55f4
    560c:	3c02b003 	lui	v0,0xb003
    5610:	3c038001 	lui	v1,0x8001
    5614:	00051080 	sll	v0,a1,0x2
    5618:	24630200 	addiu	v1,v1,512
    561c:	00431021 	addu	v0,v0,v1
    5620:	8c440000 	lw	a0,0(v0)
    5624:	00000000 	nop
    5628:	00800008 	jr	a0
    562c:	00000000 	nop
    5630:	27848498 	addiu	a0,gp,-31592
    5634:	0c00268e 	jal	0x9a38
    5638:	00000000 	nop
    563c:	27848440 	addiu	a0,gp,-31680
    5640:	0c001452 	jal	0x5148
    5644:	00000000 	nop
    5648:	938381f1 	lbu	v1,-32271(gp)
    564c:	24020001 	li	v0,1
    5650:	10620008 	beq	v1,v0,0x5674
    5654:	00000000 	nop
    5658:	8f858440 	lw	a1,-31680(gp)
    565c:	8f828474 	lw	v0,-31628(gp)
    5660:	00000000 	nop
    5664:	24420001 	addiu	v0,v0,1
    5668:	af828474 	sw	v0,-31628(gp)
    566c:	0800159d 	j	0x5674
    5670:	3c02b003 	lui	v0,0xb003
    5674:	27848498 	addiu	a0,gp,-31592
    5678:	0c00270d 	jal	0x9c34
    567c:	00000000 	nop
    5680:	080015b6 	j	0x56d8
    5684:	00000000 	nop
    5688:	27848498 	addiu	a0,gp,-31592
    568c:	0c0028ec 	jal	0xa3b0
    5690:	00000000 	nop
    5694:	a3828471 	sb	v0,-31631(gp)
    5698:	8f828474 	lw	v0,-31628(gp)
    569c:	af808440 	sw	zero,-31680(gp)
    56a0:	24420001 	addiu	v0,v0,1
    56a4:	af828474 	sw	v0,-31628(gp)
    56a8:	0800159c 	j	0x5670
    56ac:	00002821 	move	a1,zero
    56b0:	27848658 	addiu	a0,gp,-31144
    56b4:	0c00195b 	jal	0x656c
    56b8:	00000000 	nop
    56bc:	304200ff 	andi	v0,v0,0xff
    56c0:	14400005 	bnez	v0,0x56d8
    56c4:	3c03b005 	lui	v1,0xb005
    56c8:	af808440 	sw	zero,-31680(gp)
    56cc:	af808444 	sw	zero,-31676(gp)
    56d0:	080015b6 	j	0x56d8
    56d4:	00000000 	nop
    56d8:	34630450 	ori	v1,v1,0x450
    56dc:	90620000 	lbu	v0,0(v1)
    56e0:	00000000 	nop
    56e4:	304200ff 	andi	v0,v0,0xff
    56e8:	af82846c 	sw	v0,-31636(gp)
    56ec:	14400020 	bnez	v0,0x5770
    56f0:	24020001 	li	v0,1
    56f4:	8f848448 	lw	a0,-31672(gp)
    56f8:	00000000 	nop
    56fc:	10820020 	beq	a0,v0,0x5780
    5700:	3c03b009 	lui	v1,0xb009
    5704:	34630160 	ori	v1,v1,0x160
    5708:	90620000 	lbu	v0,0(v1)
    570c:	00000000 	nop
    5710:	304200ff 	andi	v0,v0,0xff
    5714:	af828454 	sw	v0,-31660(gp)
    5718:	14400015 	bnez	v0,0x5770
    571c:	24020001 	li	v0,1
    5720:	24020002 	li	v0,2
    5724:	10820007 	beq	a0,v0,0x5744
    5728:	00000000 	nop
    572c:	24050003 	li	a1,3
    5730:	24020001 	li	v0,1
    5734:	af828444 	sw	v0,-31676(gp)
    5738:	af858440 	sw	a1,-31680(gp)
    573c:	080015b6 	j	0x56d8
    5740:	00000000 	nop
    5744:	3c02b005 	lui	v0,0xb005
    5748:	3442022e 	ori	v0,v0,0x22e
    574c:	90430000 	lbu	v1,0(v0)
    5750:	00000000 	nop
    5754:	30630001 	andi	v1,v1,0x1
    5758:	306300ff 	andi	v1,v1,0xff
    575c:	00601021 	move	v0,v1
    5760:	a7838460 	sh	v1,-31648(gp)
    5764:	1440fff1 	bnez	v0,0x572c
    5768:	00000000 	nop
    576c:	24020001 	li	v0,1
    5770:	af828444 	sw	v0,-31676(gp)
    5774:	af808440 	sw	zero,-31680(gp)
    5778:	080015b6 	j	0x56d8
    577c:	00000000 	nop
    5780:	3c03b005 	lui	v1,0xb005
    5784:	3463022c 	ori	v1,v1,0x22c
    5788:	8c620000 	lw	v0,0(v1)
    578c:	00000000 	nop
    5790:	304200ff 	andi	v0,v0,0xff
    5794:	af82845c 	sw	v0,-31652(gp)
    5798:	1440fff5 	bnez	v0,0x5770
    579c:	24020001 	li	v0,1
    57a0:	080015e1 	j	0x5784
    57a4:	3c03b009 	lui	v1,0xb009
    57a8:	27848658 	addiu	a0,gp,-31144
    57ac:	0c001ad1 	jal	0x6b44
    57b0:	00000000 	nop
    57b4:	83828470 	lb	v0,-31632(gp)
    57b8:	00000000 	nop
    57bc:	1440ffec 	bnez	v0,0x5770
    57c0:	24020002 	li	v0,2
    57c4:	3c03b005 	lui	v1,0xb005
    57c8:	34630450 	ori	v1,v1,0x450
    57cc:	90620000 	lbu	v0,0(v1)
    57d0:	00000000 	nop
    57d4:	304200ff 	andi	v0,v0,0xff
    57d8:	af82846c 	sw	v0,-31636(gp)
    57dc:	1440ffe4 	bnez	v0,0x5770
    57e0:	24020002 	li	v0,2
    57e4:	8f848448 	lw	a0,-31672(gp)
    57e8:	24020001 	li	v0,1
    57ec:	10820012 	beq	a0,v0,0x5838
    57f0:	24020002 	li	v0,2
    57f4:	10820004 	beq	a0,v0,0x5808
    57f8:	00000000 	nop
    57fc:	24050004 	li	a1,4
    5800:	080015ed 	j	0x57b4
    5804:	24020002 	li	v0,2
    5808:	3c02b005 	lui	v0,0xb005
    580c:	3442022e 	ori	v0,v0,0x22e
    5810:	90430000 	lbu	v1,0(v0)
    5814:	00000000 	nop
    5818:	30630001 	andi	v1,v1,0x1
    581c:	306300ff 	andi	v1,v1,0xff
    5820:	00601021 	move	v0,v1
    5824:	a7838460 	sh	v1,-31648(gp)
    5828:	1440fff4 	bnez	v0,0x57fc
    582c:	00000000 	nop
    5830:	080015fc 	j	0x57f0
    5834:	24020002 	li	v0,2
    5838:	3c03b005 	lui	v1,0xb005
    583c:	3463022c 	ori	v1,v1,0x22c
    5840:	8c620000 	lw	v0,0(v1)
    5844:	00000000 	nop
    5848:	304200ff 	andi	v0,v0,0xff
    584c:	af82845c 	sw	v0,-31652(gp)
    5850:	1440fff7 	bnez	v0,0x5830
    5854:	00000000 	nop
    5858:	0800161d 	j	0x5874
    585c:	24020002 	li	v0,2
    5860:	27848918 	addiu	a0,gp,-30440
    5864:	0c000b55 	jal	0x2d54
    5868:	00000000 	nop
    586c:	8f838444 	lw	v1,-31676(gp)
    5870:	af82845c 	sw	v0,-31652(gp)
    5874:	38640002 	xori	a0,v1,0x2
    5878:	0004180a 	.word	0x4180a
    587c:	af838444 	sw	v1,-31676(gp)
    5880:	1440ffad 	bnez	v0,0x5738
    5884:	24050005 	li	a1,5
    5888:	8f828958 	lw	v0,-30376(gp)
    588c:	af808440 	sw	zero,-31680(gp)
    5890:	10400002 	beqz	v0,0x589c
    5894:	24040001 	li	a0,1
    5898:	af848448 	sw	a0,-31672(gp)
    589c:	93828966 	lbu	v0,-30362(gp)
    58a0:	00000000 	nop
    58a4:	1040ff6c 	beqz	v0,0x5658
    58a8:	00000000 	nop
    58ac:	3c02b005 	lui	v0,0xb005
    58b0:	34420008 	ori	v0,v0,0x8
    58b4:	8c430000 	lw	v1,0(v0)
    58b8:	3c042000 	lui	a0,0x2000
    58bc:	00641824 	and	v1,v1,a0
    58c0:	1060ff65 	beqz	v1,0x5658
    58c4:	00000000 	nop
    58c8:	3c02b003 	lui	v0,0xb003
    58cc:	344200a0 	ori	v0,v0,0xa0
    58d0:	8c430000 	lw	v1,0(v0)
    58d4:	3c048000 	lui	a0,0x8000
    58d8:	af808940 	sw	zero,-30400(gp)
    58dc:	24630001 	addiu	v1,v1,1
    58e0:	ac430000 	sw	v1,0(v0)
    58e4:	3c01b005 	lui	at,0xb005
    58e8:	ac240008 	sw	a0,8(at)
    58ec:	af80893c 	sw	zero,-30404(gp)
    58f0:	af808944 	sw	zero,-30396(gp)
    58f4:	af808948 	sw	zero,-30392(gp)
    58f8:	af808954 	sw	zero,-30380(gp)
    58fc:	af80894c 	sw	zero,-30388(gp)
    5900:	080015b6 	j	0x56d8
    5904:	00000000 	nop
    5908:	83828490 	lb	v0,-31600(gp)
    590c:	00000000 	nop
    5910:	10400002 	beqz	v0,0x591c
    5914:	24020020 	li	v0,32
    5918:	af82845c 	sw	v0,-31652(gp)
    591c:	8f85845c 	lw	a1,-31652(gp)
    5920:	27848918 	addiu	a0,gp,-30440
    5924:	0c000d30 	jal	0x34c0
    5928:	00000000 	nop
    592c:	00021e00 	sll	v1,v0,0x18
    5930:	a3828470 	sb	v0,-31632(gp)
    5934:	af80845c 	sw	zero,-31652(gp)
    5938:	1060ff8e 	beqz	v1,0x5774
    593c:	00000000 	nop
    5940:	3c02b005 	lui	v0,0xb005
    5944:	3442022e 	ori	v0,v0,0x22e
    5948:	90430000 	lbu	v1,0(v0)
    594c:	00000000 	nop
    5950:	30630001 	andi	v1,v1,0x1
    5954:	306300ff 	andi	v1,v1,0xff
    5958:	00601021 	move	v0,v1
    595c:	a7838460 	sh	v1,-31648(gp)
    5960:	10400004 	beqz	v0,0x5974
    5964:	24040002 	li	a0,2
    5968:	af848448 	sw	a0,-31672(gp)
    596c:	080015fd 	j	0x57f4
    5970:	00000000 	nop
    5974:	080015ee 	j	0x57b8
    5978:	24050006 	li	a1,6
    597c:	27848440 	addiu	a0,gp,-31680
    5980:	27858918 	addiu	a1,gp,-30440
    5984:	0c000dfd 	jal	0x37f4
    5988:	00000000 	nop
    598c:	8f828464 	lw	v0,-31644(gp)
    5990:	af80846c 	sw	zero,-31636(gp)
    5994:	14400019 	bnez	v0,0x59fc
    5998:	00401821 	move	v1,v0
    599c:	8f828468 	lw	v0,-31640(gp)
    59a0:	00000000 	nop
    59a4:	14400015 	bnez	v0,0x59fc
    59a8:	24020002 	li	v0,2
    59ac:	8f838448 	lw	v1,-31672(gp)
    59b0:	00000000 	nop
    59b4:	1062000b 	beq	v1,v0,0x59e4
    59b8:	3c024000 	lui	v0,0x4000
    59bc:	8f838444 	lw	v1,-31676(gp)
    59c0:	24020001 	li	v0,1
    59c4:	10620002 	beq	v1,v0,0x59d0
    59c8:	24050003 	li	a1,3
    59cc:	24050006 	li	a1,6
    59d0:	af858440 	sw	a1,-31680(gp)
    59d4:	24040003 	li	a0,3
    59d8:	af848448 	sw	a0,-31672(gp)
    59dc:	080015b6 	j	0x56d8
    59e0:	00000000 	nop
    59e4:	34420014 	ori	v0,v0,0x14
    59e8:	3c01b005 	lui	at,0xb005
    59ec:	ac220000 	sw	v0,0(at)
    59f0:	af808440 	sw	zero,-31680(gp)
    59f4:	08001696 	j	0x5a58
    59f8:	24040003 	li	a0,3
    59fc:	10600010 	beqz	v1,0x5a40
    5a00:	00000000 	nop
    5a04:	27858918 	addiu	a1,gp,-30440
    5a08:	27848440 	addiu	a0,gp,-31680
    5a0c:	0c000e21 	jal	0x3884
    5a10:	00000000 	nop
    5a14:	8f838444 	lw	v1,-31676(gp)
    5a18:	24020001 	li	v0,1
    5a1c:	a3808470 	sb	zero,-31632(gp)
    5a20:	af808448 	sw	zero,-31672(gp)
    5a24:	10620002 	beq	v1,v0,0x5a30
    5a28:	24050003 	li	a1,3
    5a2c:	24050004 	li	a1,4
    5a30:	af858440 	sw	a1,-31680(gp)
    5a34:	af808464 	sw	zero,-31644(gp)
    5a38:	080015b6 	j	0x56d8
    5a3c:	00000000 	nop
    5a40:	83828490 	lb	v0,-31600(gp)
    5a44:	00000000 	nop
    5a48:	14400004 	bnez	v0,0x5a5c
    5a4c:	00000000 	nop
    5a50:	27848918 	addiu	a0,gp,-30440
    5a54:	0c001069 	jal	0x41a4
    5a58:	00000000 	nop
    5a5c:	8f828444 	lw	v0,-31676(gp)
    5a60:	a3808470 	sb	zero,-31632(gp)
    5a64:	af808440 	sw	zero,-31680(gp)
    5a68:	af808448 	sw	zero,-31672(gp)
    5a6c:	14400003 	bnez	v0,0x5a7c
    5a70:	00000000 	nop
    5a74:	24020002 	li	v0,2
    5a78:	af828444 	sw	v0,-31676(gp)
    5a7c:	af808468 	sw	zero,-31640(gp)
    5a80:	080015b6 	j	0x56d8
    5a84:	00000000 	nop
    5a88:	27848440 	addiu	a0,gp,-31680
    5a8c:	27858918 	addiu	a1,gp,-30440
    5a90:	0c000e21 	jal	0x3884
    5a94:	00000000 	nop
    5a98:	8f828444 	lw	v0,-31676(gp)
    5a9c:	a3808470 	sb	zero,-31632(gp)
    5aa0:	af808440 	sw	zero,-31680(gp)
    5aa4:	af808448 	sw	zero,-31672(gp)
    5aa8:	1440feeb 	bnez	v0,0x5658
    5aac:	00000000 	nop
    5ab0:	24020002 	li	v0,2
    5ab4:	af828444 	sw	v0,-31676(gp)
    5ab8:	080015b6 	j	0x56d8
    5abc:	00000000 	nop
    5ac0:	27848918 	addiu	a0,gp,-30440
    5ac4:	0c001069 	jal	0x41a4
    5ac8:	00000000 	nop
    5acc:	080016c6 	j	0x5b18
    5ad0:	00000000 	nop
    5ad4:	27848498 	addiu	a0,gp,-31592
    5ad8:	0c002982 	jal	0xa608
    5adc:	00000000 	nop
    5ae0:	080015c5 	j	0x5714
    5ae4:	00000000 	nop
    5ae8:	0c002405 	jal	0x9014
    5aec:	00000000 	nop
    5af0:	0c0026ff 	jal	0x9bfc
    5af4:	00000000 	nop
    5af8:	0c001811 	jal	0x6044
    5afc:	00000000 	nop
    5b00:	9383bc18 	lbu	v1,-17384(gp)
    5b04:	00000000 	nop
    5b08:	1460002b 	bnez	v1,0x5bb8
    5b0c:	3c02b003 	lui	v0,0xb003
    5b10:	34420108 	ori	v0,v0,0x108
    5b14:	8c440000 	lw	a0,0(v0)
    5b18:	8f83bc10 	lw	v1,-17392(gp)
    5b1c:	8f82bc14 	lw	v0,-17388(gp)
    5b20:	00831823 	subu	v1,a0,v1
    5b24:	0043102b 	sltu	v0,v0,v1
    5b28:	10400023 	beqz	v0,0x5bb8
    5b2c:	3c02b003 	lui	v0,0xb003
    5b30:	240405a0 	li	a0,1440
    5b34:	34420118 	ori	v0,v0,0x118
    5b38:	8c420000 	lw	v0,0(v0)
    5b3c:	0c0006d1 	jal	0x1b44
    5b40:	00000000 	nop
    5b44:	240405a4 	li	a0,1444
    5b48:	0c0006d1 	jal	0x1b44
    5b4c:	00028402 	srl	s0,v0,0x10
    5b50:	3051ffff 	andi	s1,v0,0xffff
    5b54:	240405a8 	li	a0,1448
    5b58:	00029402 	srl	s2,v0,0x10
    5b5c:	0c0006d1 	jal	0x1b44
    5b60:	3a10ffff 	xori	s0,s0,0xffff
    5b64:	3a31ffff 	xori	s1,s1,0xffff
    5b68:	3042ffff 	andi	v0,v0,0xffff
    5b6c:	2e100001 	sltiu	s0,s0,1
    5b70:	2e310001 	sltiu	s1,s1,1
    5b74:	3a52ffff 	xori	s2,s2,0xffff
    5b78:	02118025 	or	s0,s0,s1
    5b7c:	2e520001 	sltiu	s2,s2,1
    5b80:	3842ffff 	xori	v0,v0,0xffff
    5b84:	02128025 	or	s0,s0,s2
    5b88:	2c420001 	sltiu	v0,v0,1
    5b8c:	02028025 	or	s0,s0,v0
    5b90:	16000002 	bnez	s0,0x5b9c
    5b94:	24040002 	li	a0,2
    5b98:	00002021 	move	a0,zero
    5b9c:	0c00056e 	jal	0x15b8
    5ba0:	00000000 	nop
    5ba4:	3c02b003 	lui	v0,0xb003
    5ba8:	34420108 	ori	v0,v0,0x108
    5bac:	8c430000 	lw	v1,0(v0)
    5bb0:	00000000 	nop
    5bb4:	af83bc10 	sw	v1,-17392(gp)
    5bb8:	0c0001e9 	jal	0x7a4
    5bbc:	00000000 	nop
    5bc0:	af808440 	sw	zero,-31680(gp)
    5bc4:	af808474 	sw	zero,-31628(gp)
    5bc8:	0800159c 	j	0x5670
    5bcc:	00002821 	move	a1,zero
    5bd0:	2790b400 	addiu	s0,gp,-19456
    5bd4:	24110012 	li	s1,18
    5bd8:	8e040000 	lw	a0,0(s0)
    5bdc:	00000000 	nop
    5be0:	90820010 	lbu	v0,16(a0)
    5be4:	00000000 	nop
    5be8:	10400003 	beqz	v0,0x5bf8
    5bec:	00000000 	nop
    5bf0:	0c0018d0 	jal	0x6340
    5bf4:	00000000 	nop
    5bf8:	2631ffff 	addiu	s1,s1,-1
    5bfc:	0621fff6 	bgez	s1,0x5bd8
    5c00:	26100004 	addiu	s0,s0,4
    5c04:	af808440 	sw	zero,-31680(gp)
    5c08:	080015b7 	j	0x56dc
    5c0c:	00002821 	move	a1,zero
    5c10:	3c02b003 	lui	v0,0xb003
    5c14:	34420108 	ori	v0,v0,0x108
    5c18:	8c440000 	lw	a0,0(v0)
    5c1c:	8f828438 	lw	v0,-31688(gp)
    5c20:	000419c2 	srl	v1,a0,0x7
    5c24:	000211c2 	srl	v0,v0,0x7
    5c28:	1062fff6 	beq	v1,v0,0x5c04
    5c2c:	00000000 	nop
    5c30:	3c02b003 	lui	v0,0xb003
    5c34:	34420102 	ori	v0,v0,0x102
    5c38:	90430000 	lbu	v1,0(v0)
    5c3c:	3c12b005 	lui	s2,0xb005
    5c40:	af848438 	sw	a0,-31688(gp)
    5c44:	306300ff 	andi	v1,v1,0xff
    5c48:	00031140 	sll	v0,v1,0x5
    5c4c:	00431023 	subu	v0,v0,v1
    5c50:	00021080 	sll	v0,v0,0x2
    5c54:	00431021 	addu	v0,v0,v1
    5c58:	00029900 	sll	s3,v0,0x4
    5c5c:	00008821 	move	s1,zero
    5c60:	3652022c 	ori	s2,s2,0x22c
    5c64:	2790b400 	addiu	s0,gp,-19456
    5c68:	8e040000 	lw	a0,0(s0)
    5c6c:	00000000 	nop
    5c70:	90830016 	lbu	v1,22(a0)
    5c74:	00000000 	nop
    5c78:	30620003 	andi	v0,v1,0x3
    5c7c:	10400006 	beqz	v0,0x5c98
    5c80:	3062001c 	andi	v0,v1,0x1c
    5c84:	14400004 	bnez	v0,0x5c98
    5c88:	00000000 	nop
    5c8c:	8f858438 	lw	a1,-31688(gp)
    5c90:	0c001e94 	jal	0x7a50
    5c94:	02603021 	move	a2,s3
    5c98:	8e420000 	lw	v0,0(s2)
    5c9c:	00000000 	nop
    5ca0:	304200ff 	andi	v0,v0,0xff
    5ca4:	1440ffd7 	bnez	v0,0x5c04
    5ca8:	00000000 	nop
    5cac:	26310001 	addiu	s1,s1,1
    5cb0:	2a220013 	slti	v0,s1,19
    5cb4:	1440ffec 	bnez	v0,0x5c68
    5cb8:	26100004 	addiu	s0,s0,4
    5cbc:	08001721 	j	0x5c84
    5cc0:	00000000 	nop
    5cc4:	8f84844c 	lw	a0,-31668(gp)
    5cc8:	27858918 	addiu	a1,gp,-30440
    5ccc:	0c0017a4 	jal	0x5e90
    5cd0:	00000000 	nop
    5cd4:	8f83844c 	lw	v1,-31668(gp)
    5cd8:	24020004 	li	v0,4
    5cdc:	1462fea5 	bne	v1,v0,0x5774
    5ce0:	00000000 	nop
    5ce4:	080015ee 	j	0x57b8
    5ce8:	24050005 	li	a1,5
    5cec:	3c02b003 	lui	v0,0xb003
    5cf0:	3442003f 	ori	v0,v0,0x3f
    5cf4:	90440000 	lbu	a0,0(v0)
    5cf8:	24030001 	li	v1,1
    5cfc:	10640008 	beq	v1,a0,0x5d20
    5d00:	00000000 	nop
    5d04:	27848918 	addiu	a0,gp,-30440
    5d08:	0c00242c 	jal	0x90b0
    5d0c:	00000000 	nop
    5d10:	24050005 	li	a1,5
    5d14:	af858440 	sw	a1,-31680(gp)
    5d18:	080015b7 	j	0x56dc
    5d1c:	00000000 	nop
    5d20:	3c02b003 	lui	v0,0xb003
    5d24:	34420014 	ori	v0,v0,0x14
    5d28:	8c440000 	lw	a0,0(v0)
    5d2c:	0c002449 	jal	0x9124
    5d30:	00000000 	nop
    5d34:	08001765 	j	0x5d94
    5d38:	24050005 	li	a1,5
    5d3c:	8f82894c 	lw	v0,-30388(gp)
    5d40:	00000000 	nop
    5d44:	1040000d 	beqz	v0,0x5d7c
    5d48:	00000000 	nop
    5d4c:	8f84b440 	lw	a0,-19392(gp)
    5d50:	af80894c 	sw	zero,-30388(gp)
    5d54:	94850014 	lhu	a1,20(a0)
    5d58:	0c001b66 	jal	0x6d98
    5d5c:	00000000 	nop
    5d60:	93828b71 	lbu	v0,-29839(gp)
    5d64:	00000000 	nop
    5d68:	30420002 	andi	v0,v0,0x2
    5d6c:	10400003 	beqz	v0,0x5d7c
    5d70:	00000000 	nop
    5d74:	0c000157 	jal	0x55c
    5d78:	00002021 	move	a0,zero
    5d7c:	8f84b440 	lw	a0,-19392(gp)
    5d80:	0c0018d0 	jal	0x6340
    5d84:	00000000 	nop
    5d88:	08001721 	j	0x5c84
    5d8c:	00000000 	nop
    5d90:	3c02ff90 	lui	v0,0xff90
    5d94:	27bdffe8 	addiu	sp,sp,-24
    5d98:	00801821 	move	v1,a0
    5d9c:	34420001 	ori	v0,v0,0x1
    5da0:	27848918 	addiu	a0,gp,-30440
    5da4:	10620005 	beq	v1,v0,0x5dbc
    5da8:	afbf0010 	sw	ra,16(sp)
    5dac:	8fbf0010 	lw	ra,16(sp)
    5db0:	00000000 	nop
    5db4:	03e00008 	jr	ra
    5db8:	27bd0018 	addiu	sp,sp,24
    5dbc:	0c0006e5 	jal	0x1b94
    5dc0:	00000000 	nop
    5dc4:	27848658 	addiu	a0,gp,-31144
    5dc8:	0c00181f 	jal	0x607c
    5dcc:	00000000 	nop
    5dd0:	27848440 	addiu	a0,gp,-31680
    5dd4:	0c0013d9 	jal	0x4f64
    5dd8:	00000000 	nop
    5ddc:	0800178b 	j	0x5e2c
    5de0:	00000000 	nop
    5de4:	8f828958 	lw	v0,-30376(gp)
    5de8:	00000000 	nop
    5dec:	14400005 	bnez	v0,0x5e04
    5df0:	00001821 	move	v1,zero
    5df4:	8f828448 	lw	v0,-31672(gp)
    5df8:	00000000 	nop
    5dfc:	10400002 	beqz	v0,0x5e08
    5e00:	00000000 	nop
    5e04:	24030001 	li	v1,1
    5e08:	03e00008 	jr	ra
    5e0c:	00601021 	move	v0,v1
    5e10:	27bdffe0 	addiu	sp,sp,-32
    5e14:	3c06b003 	lui	a2,0xb003
    5e18:	afb10014 	sw	s1,20(sp)
    5e1c:	afb00010 	sw	s0,16(sp)
    5e20:	34c6005f 	ori	a2,a2,0x5f
    5e24:	afbf0018 	sw	ra,24(sp)
    5e28:	90c30000 	lbu	v1,0(a2)
    5e2c:	3c07b003 	lui	a3,0xb003
    5e30:	34e7005d 	ori	a3,a3,0x5d
    5e34:	34630001 	ori	v1,v1,0x1
    5e38:	3c09b003 	lui	t1,0xb003
    5e3c:	24020001 	li	v0,1
    5e40:	a0c30000 	sb	v1,0(a2)
    5e44:	00808021 	move	s0,a0
    5e48:	a0e20000 	sb	v0,0(a3)
    5e4c:	00a08821 	move	s1,a1
    5e50:	3529005e 	ori	t1,t1,0x5e
    5e54:	00e04021 	move	t0,a3
    5e58:	24040001 	li	a0,1
    5e5c:	91220000 	lbu	v0,0(t1)
    5e60:	91030000 	lbu	v1,0(t0)
    5e64:	30420001 	andi	v0,v0,0x1
    5e68:	14830003 	bne	a0,v1,0x5e78
    5e6c:	30420001 	andi	v0,v0,0x1
    5e70:	1440fffa 	bnez	v0,0x5e5c
    5e74:	00000000 	nop
    5e78:	24020004 	li	v0,4
    5e7c:	1202002c 	beq	s0,v0,0x5f30
    5e80:	24050f00 	li	a1,3840
    5e84:	24020006 	li	v0,6
    5e88:	12020008 	beq	s0,v0,0x5eac
    5e8c:	2405000f 	li	a1,15
    5e90:	3c02b003 	lui	v0,0xb003
    5e94:	34420200 	ori	v0,v0,0x200
    5e98:	a0500000 	sb	s0,0(v0)
    5e9c:	8fbf0018 	lw	ra,24(sp)
    5ea0:	7bb000bc 	.word	0x7bb000bc
    5ea4:	03e00008 	jr	ra
    5ea8:	27bd0020 	addiu	sp,sp,32
    5eac:	24040c04 	li	a0,3076
    5eb0:	0c00135f 	jal	0x4d7c
    5eb4:	2406000f 	li	a2,15
    5eb8:	24040d04 	li	a0,3332
    5ebc:	2405000f 	li	a1,15
    5ec0:	0c00135f 	jal	0x4d7c
    5ec4:	2406000f 	li	a2,15
    5ec8:	24040880 	li	a0,2176
    5ecc:	24051e00 	li	a1,7680
    5ed0:	0c00135f 	jal	0x4d7c
    5ed4:	2406000f 	li	a2,15
    5ed8:	2404088c 	li	a0,2188
    5edc:	24050f00 	li	a1,3840
    5ee0:	0c00135f 	jal	0x4d7c
    5ee4:	2406000f 	li	a2,15
    5ee8:	24040824 	li	a0,2084
    5eec:	3c050030 	lui	a1,0x30
    5ef0:	0c00135f 	jal	0x4d7c
    5ef4:	24060002 	li	a2,2
    5ef8:	2404082c 	li	a0,2092
    5efc:	3c050030 	lui	a1,0x30
    5f00:	0c00135f 	jal	0x4d7c
    5f04:	24060002 	li	a2,2
    5f08:	24040834 	li	a0,2100
    5f0c:	3c050030 	lui	a1,0x30
    5f10:	0c00135f 	jal	0x4d7c
    5f14:	24060002 	li	a2,2
    5f18:	2404083c 	li	a0,2108
    5f1c:	3c050030 	lui	a1,0x30
    5f20:	0c00135f 	jal	0x4d7c
    5f24:	24060002 	li	a2,2
    5f28:	080017c5 	j	0x5f14
    5f2c:	3c02b003 	lui	v0,0xb003
    5f30:	2404088c 	li	a0,2188
    5f34:	0c00135f 	jal	0x4d7c
    5f38:	24060004 	li	a2,4
    5f3c:	24040880 	li	a0,2176
    5f40:	24051e00 	li	a1,7680
    5f44:	0c00135f 	jal	0x4d7c
    5f48:	24060004 	li	a2,4
    5f4c:	24040c04 	li	a0,3076
    5f50:	2405000f 	li	a1,15
    5f54:	0c00135f 	jal	0x4d7c
    5f58:	24060004 	li	a2,4
    5f5c:	24040d04 	li	a0,3332
    5f60:	2405000f 	li	a1,15
    5f64:	0c00135f 	jal	0x4d7c
    5f68:	24060004 	li	a2,4
    5f6c:	24040824 	li	a0,2084
    5f70:	3c050030 	lui	a1,0x30
    5f74:	0c00135f 	jal	0x4d7c
    5f78:	24060003 	li	a2,3
    5f7c:	2404082c 	li	a0,2092
    5f80:	3c050030 	lui	a1,0x30
    5f84:	0c00135f 	jal	0x4d7c
    5f88:	24060003 	li	a2,3
    5f8c:	24040834 	li	a0,2100
    5f90:	3c050030 	lui	a1,0x30
    5f94:	0c00135f 	jal	0x4d7c
    5f98:	24060002 	li	a2,2
    5f9c:	3c050030 	lui	a1,0x30
    5fa0:	24060003 	li	a2,3
    5fa4:	0c00135f 	jal	0x4d7c
    5fa8:	2404083c 	li	a0,2108
    5fac:	02202021 	move	a0,s1
    5fb0:	24050014 	li	a1,20
    5fb4:	0c0013a4 	jal	0x4e90
    5fb8:	24060107 	li	a2,263
    5fbc:	080017c5 	j	0x5f14
    5fc0:	3c02b003 	lui	v0,0xb003
    5fc4:	3c03b003 	lui	v1,0xb003
    5fc8:	34630073 	ori	v1,v1,0x73
    5fcc:	90620000 	lbu	v0,0(v1)
    5fd0:	00000000 	nop
    5fd4:	30420002 	andi	v0,v0,0x2
    5fd8:	14400004 	bnez	v0,0x5fec
    5fdc:	00000000 	nop
    5fe0:	a3808158 	sb	zero,-32424(gp)
    5fe4:	03e00008 	jr	ra
    5fe8:	00000000 	nop
    5fec:	24020001 	li	v0,1
    5ff0:	a3828158 	sb	v0,-32424(gp)
    5ff4:	03e00008 	jr	ra
    5ff8:	00000000 	nop
    5ffc:	3c03b003 	lui	v1,0xb003
    6000:	3c028000 	lui	v0,0x8000
    6004:	00807021 	move	t6,a0
    6008:	34630020 	ori	v1,v1,0x20
    600c:	2442607c 	addiu	v0,v0,24700
    6010:	3c04b003 	lui	a0,0xb003
    6014:	ac620000 	sw	v0,0(v1)
    6018:	34840030 	ori	a0,a0,0x30
    601c:	adc002b8 	sw	zero,696(t6)
    6020:	8c830000 	lw	v1,0(a0)
    6024:	240200ff 	li	v0,255
    6028:	a5c0000a 	sh	zero,10(t6)
    602c:	00003021 	move	a2,zero
    6030:	a7828ff0 	sh	v0,-28688(gp)
    6034:	27889000 	addiu	t0,gp,-28672
    6038:	a5c30008 	sh	v1,8(t6)
    603c:	3c07b008 	lui	a3,0xb008
    6040:	30c2ffff 	andi	v0,a2,0xffff
    6044:	000220c0 	sll	a0,v0,0x3
    6048:	24c30001 	addiu	v1,a2,1
    604c:	00821021 	addu	v0,a0,v0
    6050:	00603021 	move	a2,v1
    6054:	00021080 	sll	v0,v0,0x2
    6058:	3063ffff 	andi	v1,v1,0xffff
    605c:	00481021 	addu	v0,v0,t0
    6060:	00872021 	addu	a0,a0,a3
    6064:	28c500ff 	slti	a1,a2,255
    6068:	ac830000 	sw	v1,0(a0)
    606c:	14a0fff4 	bnez	a1,0x6040
    6070:	a4430000 	sh	v1,0(v0)
    6074:	3c02b008 	lui	v0,0xb008
    6078:	3403ffff 	li	v1,0xffff
    607c:	25c4000c 	addiu	a0,t6,12
    6080:	240a0002 	li	t2,2
    6084:	344207f8 	ori	v0,v0,0x7f8
    6088:	3c06b003 	lui	a2,0xb003
    608c:	a783b3dc 	sh	v1,-19492(gp)
    6090:	ac430000 	sw	v1,0(v0)
    6094:	af84b400 	sw	a0,-19456(gp)
    6098:	34c60064 	ori	a2,a2,0x64
    609c:	a08a0018 	sb	t2,24(a0)
    60a0:	94c50000 	lhu	a1,0(a2)
    60a4:	8f82b400 	lw	v0,-19456(gp)
    60a8:	25c40030 	addiu	a0,t6,48
    60ac:	24080003 	li	t0,3
    60b0:	3c03b003 	lui	v1,0xb003
    60b4:	a0450021 	sb	a1,33(v0)
    60b8:	34630066 	ori	v1,v1,0x66
    60bc:	af84b404 	sw	a0,-19452(gp)
    60c0:	a0880018 	sb	t0,24(a0)
    60c4:	94650000 	lhu	a1,0(v1)
    60c8:	8f82b404 	lw	v0,-19452(gp)
    60cc:	25c40054 	addiu	a0,t6,84
    60d0:	25c70078 	addiu	a3,t6,120
    60d4:	a0450021 	sb	a1,33(v0)
    60d8:	af84b408 	sw	a0,-19448(gp)
    60dc:	a0880018 	sb	t0,24(a0)
    60e0:	94650000 	lhu	a1,0(v1)
    60e4:	8f82b408 	lw	v0,-19448(gp)
    60e8:	25c8009c 	addiu	t0,t6,156
    60ec:	24090001 	li	t1,1
    60f0:	a0450021 	sb	a1,33(v0)
    60f4:	af87b40c 	sw	a3,-19444(gp)
    60f8:	a0ea0018 	sb	t2,24(a3)
    60fc:	94c40000 	lhu	a0,0(a2)
    6100:	8f82b40c 	lw	v0,-19444(gp)
    6104:	3c03b003 	lui	v1,0xb003
    6108:	34630062 	ori	v1,v1,0x62
    610c:	a0440021 	sb	a0,33(v0)
    6110:	af88b410 	sw	t0,-19440(gp)
    6114:	a1090018 	sb	t1,24(t0)
    6118:	94650000 	lhu	a1,0(v1)
    611c:	8f82b410 	lw	v0,-19440(gp)
    6120:	25c400c0 	addiu	a0,t6,192
    6124:	3c06b003 	lui	a2,0xb003
    6128:	a0450021 	sb	a1,33(v0)
    612c:	af84b414 	sw	a0,-19436(gp)
    6130:	a0890018 	sb	t1,24(a0)
    6134:	94650000 	lhu	a1,0(v1)
    6138:	8f82b414 	lw	v0,-19436(gp)
    613c:	25c400e4 	addiu	a0,t6,228
    6140:	34c60060 	ori	a2,a2,0x60
    6144:	a0450021 	sb	a1,33(v0)
    6148:	af84b418 	sw	a0,-19432(gp)
    614c:	a0800018 	sb	zero,24(a0)
    6150:	94c50000 	lhu	a1,0(a2)
    6154:	8f82b418 	lw	v0,-19432(gp)
    6158:	25c30108 	addiu	v1,t6,264
    615c:	25c7012c 	addiu	a3,t6,300
    6160:	a0450021 	sb	a1,33(v0)
    6164:	af83b41c 	sw	v1,-19428(gp)
    6168:	a0600018 	sb	zero,24(v1)
    616c:	94c80000 	lhu	t0,0(a2)
    6170:	8f82b41c 	lw	v0,-19428(gp)
    6174:	25c40150 	addiu	a0,t6,336
    6178:	25c50174 	addiu	a1,t6,372
    617c:	a0480021 	sb	t0,33(v0)
    6180:	25c60198 	addiu	a2,t6,408
    6184:	25c901bc 	addiu	t1,t6,444
    6188:	25ca01e0 	addiu	t2,t6,480
    618c:	25cb0204 	addiu	t3,t6,516
    6190:	25cc0228 	addiu	t4,t6,552
    6194:	25cd024c 	addiu	t5,t6,588
    6198:	24020010 	li	v0,16
    619c:	3c03b003 	lui	v1,0xb003
    61a0:	af87b420 	sw	a3,-19424(gp)
    61a4:	34630038 	ori	v1,v1,0x38
    61a8:	a0e00018 	sb	zero,24(a3)
    61ac:	af84b424 	sw	a0,-19420(gp)
    61b0:	a0800018 	sb	zero,24(a0)
    61b4:	af85b428 	sw	a1,-19416(gp)
    61b8:	a0a00018 	sb	zero,24(a1)
    61bc:	af86b42c 	sw	a2,-19412(gp)
    61c0:	a0c00018 	sb	zero,24(a2)
    61c4:	af89b430 	sw	t1,-19408(gp)
    61c8:	a1200018 	sb	zero,24(t1)
    61cc:	af8ab434 	sw	t2,-19404(gp)
    61d0:	a1400018 	sb	zero,24(t2)
    61d4:	af8bb438 	sw	t3,-19400(gp)
    61d8:	a1600018 	sb	zero,24(t3)
    61dc:	af8cb43c 	sw	t4,-19396(gp)
    61e0:	a1800018 	sb	zero,24(t4)
    61e4:	af8db440 	sw	t5,-19392(gp)
    61e8:	a1a20018 	sb	v0,24(t5)
    61ec:	94640000 	lhu	a0,0(v1)
    61f0:	8f82b440 	lw	v0,-19392(gp)
    61f4:	25c50270 	addiu	a1,t6,624
    61f8:	3c03b003 	lui	v1,0xb003
    61fc:	a0440021 	sb	a0,33(v0)
    6200:	24020011 	li	v0,17
    6204:	af85b444 	sw	a1,-19388(gp)
    6208:	3463006e 	ori	v1,v1,0x6e
    620c:	a0a20018 	sb	v0,24(a1)
    6210:	94640000 	lhu	a0,0(v1)
    6214:	8f82b444 	lw	v0,-19388(gp)
    6218:	25c50294 	addiu	a1,t6,660
    621c:	3c03b003 	lui	v1,0xb003
    6220:	a0440021 	sb	a0,33(v0)
    6224:	24020012 	li	v0,18
    6228:	af85b448 	sw	a1,-19384(gp)
    622c:	3463006c 	ori	v1,v1,0x6c
    6230:	a0a20018 	sb	v0,24(a1)
    6234:	94640000 	lhu	a0,0(v1)
    6238:	8f82b448 	lw	v0,-19384(gp)
    623c:	2405ffff 	li	a1,-1
    6240:	24070001 	li	a3,1
    6244:	a0440021 	sb	a0,33(v0)
    6248:	24060012 	li	a2,18
    624c:	2784b400 	addiu	a0,gp,-19456
    6250:	8c820000 	lw	v0,0(a0)
    6254:	24c6ffff 	addiu	a2,a2,-1
    6258:	a0400004 	sb	zero,4(v0)
    625c:	8c830000 	lw	v1,0(a0)
    6260:	a4450000 	sh	a1,0(v0)
    6264:	a4450002 	sh	a1,2(v0)
    6268:	a060000a 	sb	zero,10(v1)
    626c:	8c820000 	lw	v0,0(a0)
    6270:	a4650006 	sh	a1,6(v1)
    6274:	a4650008 	sh	a1,8(v1)
    6278:	a0400010 	sb	zero,16(v0)
    627c:	8c830000 	lw	v1,0(a0)
    6280:	a445000c 	sh	a1,12(v0)
    6284:	a445000e 	sh	a1,14(v0)
    6288:	a0600012 	sb	zero,18(v1)
    628c:	8c820000 	lw	v0,0(a0)
    6290:	00000000 	nop
    6294:	a0400016 	sb	zero,22(v0)
    6298:	8c830000 	lw	v1,0(a0)
    629c:	a4450014 	sh	a1,20(v0)
    62a0:	a0670017 	sb	a3,23(v1)
    62a4:	8c820000 	lw	v0,0(a0)
    62a8:	24840004 	addiu	a0,a0,4
    62ac:	a0400020 	sb	zero,32(v0)
    62b0:	04c1ffe7 	bgez	a2,0x6250
    62b4:	ac40001c 	sw	zero,28(v0)
    62b8:	03e00008 	jr	ra
    62bc:	00000000 	nop
    62c0:	3c02b003 	lui	v0,0xb003
    62c4:	3c038000 	lui	v1,0x8000
    62c8:	34420020 	ori	v0,v0,0x20
    62cc:	24636340 	addiu	v1,v1,25408
    62d0:	ac430000 	sw	v1,0(v0)
    62d4:	90820010 	lbu	v0,16(a0)
    62d8:	00806021 	move	t4,a0
    62dc:	10400056 	beqz	v0,0x6438
    62e0:	00007021 	move	t6,zero
    62e4:	97828ff0 	lhu	v0,-28688(gp)
    62e8:	948a000c 	lhu	t2,12(a0)
    62ec:	27879000 	addiu	a3,gp,-28672
    62f0:	000240c0 	sll	t0,v0,0x3
    62f4:	01021021 	addu	v0,t0,v0
    62f8:	00021080 	sll	v0,v0,0x2
    62fc:	00471021 	addu	v0,v0,a3
    6300:	908b0018 	lbu	t3,24(a0)
    6304:	a44a0000 	sh	t2,0(v0)
    6308:	9483000e 	lhu	v1,14(a0)
    630c:	39640010 	xori	a0,t3,0x10
    6310:	2c840001 	sltiu	a0,a0,1
    6314:	000310c0 	sll	v0,v1,0x3
    6318:	00431021 	addu	v0,v0,v1
    631c:	34850002 	ori	a1,a0,0x2
    6320:	39630011 	xori	v1,t3,0x11
    6324:	0083280b 	.word	0x83280b
    6328:	34a30008 	ori	v1,a1,0x8
    632c:	39640012 	xori	a0,t3,0x12
    6330:	00021080 	sll	v0,v0,0x2
    6334:	00a4180b 	.word	0xa4180b
    6338:	00471021 	addu	v0,v0,a3
    633c:	94490004 	lhu	t1,4(v0)
    6340:	34640020 	ori	a0,v1,0x20
    6344:	006b200b 	.word	0x6b200b
    6348:	34830040 	ori	v1,a0,0x40
    634c:	39620001 	xori	v0,t3,0x1
    6350:	0082180b 	.word	0x82180b
    6354:	000930c0 	sll	a2,t1,0x3
    6358:	34640080 	ori	a0,v1,0x80
    635c:	00c92821 	addu	a1,a2,t1
    6360:	39620002 	xori	v0,t3,0x2
    6364:	00606821 	move	t5,v1
    6368:	0082680a 	.word	0x82680a
    636c:	00052880 	sll	a1,a1,0x2
    6370:	3c02b008 	lui	v0,0xb008
    6374:	00a72821 	addu	a1,a1,a3
    6378:	00c23021 	addu	a2,a2,v0
    637c:	01024021 	addu	t0,t0,v0
    6380:	3403ffff 	li	v1,0xffff
    6384:	35a40100 	ori	a0,t5,0x100
    6388:	39620003 	xori	v0,t3,0x3
    638c:	2d670013 	sltiu	a3,t3,19
    6390:	ad0a0000 	sw	t2,0(t0)
    6394:	a4a30000 	sh	v1,0(a1)
    6398:	acc30000 	sw	v1,0(a2)
    639c:	a7898ff0 	sh	t1,-28688(gp)
    63a0:	10e0000f 	beqz	a3,0x63e0
    63a4:	0082680a 	.word	0x82680a
    63a8:	3c038001 	lui	v1,0x8001
    63ac:	000b1080 	sll	v0,t3,0x2
    63b0:	24630244 	addiu	v1,v1,580
    63b4:	00431021 	addu	v0,v0,v1
    63b8:	8c440000 	lw	a0,0(v0)
    63bc:	00000000 	nop
    63c0:	00800008 	jr	a0
    63c4:	00000000 	nop
    63c8:	3c03b003 	lui	v1,0xb003
    63cc:	34630060 	ori	v1,v1,0x60
    63d0:	94620000 	lhu	v0,0(v1)
    63d4:	00000000 	nop
    63d8:	00021400 	sll	v0,v0,0x10
    63dc:	00027403 	sra	t6,v0,0x10
    63e0:	3c02b003 	lui	v0,0xb003
    63e4:	3442003a 	ori	v0,v0,0x3a
    63e8:	94440000 	lhu	a0,0(v0)
    63ec:	93838fe4 	lbu	v1,-28700(gp)
    63f0:	91820021 	lbu	v0,33(t4)
    63f4:	01c42021 	addu	a0,t6,a0
    63f8:	91850010 	lbu	a1,16(t4)
    63fc:	00042400 	sll	a0,a0,0x10
    6400:	00621821 	addu	v1,v1,v0
    6404:	00047403 	sra	t6,a0,0x10
    6408:	006e1823 	subu	v1,v1,t6
    640c:	0065102a 	slt	v0,v1,a1
    6410:	00a2180a 	.word	0xa2180a
    6414:	000d2400 	sll	a0,t5,0x10
    6418:	3c02b006 	lui	v0,0xb006
    641c:	2405ffff 	li	a1,-1
    6420:	00641825 	or	v1,v1,a0
    6424:	34428020 	ori	v0,v0,0x8020
    6428:	ac430000 	sw	v1,0(v0)
    642c:	a585000e 	sh	a1,14(t4)
    6430:	a1800010 	sb	zero,16(t4)
    6434:	a585000c 	sh	a1,12(t4)
    6438:	03e00008 	jr	ra
    643c:	00000000 	nop
    6440:	3c03b003 	lui	v1,0xb003
    6444:	08001914 	j	0x6450
    6448:	34630062 	ori	v1,v1,0x62
    644c:	3c03b003 	lui	v1,0xb003
    6450:	08001914 	j	0x6450
    6454:	34630064 	ori	v1,v1,0x64
    6458:	3c03b003 	lui	v1,0xb003
    645c:	08001914 	j	0x6450
    6460:	34630066 	ori	v1,v1,0x66
    6464:	3c03b003 	lui	v1,0xb003
    6468:	08001914 	j	0x6450
    646c:	34630038 	ori	v1,v1,0x38
    6470:	3c03b003 	lui	v1,0xb003
    6474:	08001914 	j	0x6450
    6478:	3463006e 	ori	v1,v1,0x6e
    647c:	3c03b003 	lui	v1,0xb003
    6480:	08001914 	j	0x6450
    6484:	3463006c 	ori	v1,v1,0x6c
    6488:	3c03b003 	lui	v1,0xb003
    648c:	3c028000 	lui	v0,0x8000
    6490:	34630020 	ori	v1,v1,0x20
    6494:	24426508 	addiu	v0,v0,25864
    6498:	00052840 	sll	a1,a1,0x1
    649c:	ac620000 	sw	v0,0(v1)
    64a0:	00a62821 	addu	a1,a1,a2
    64a4:	2ce20010 	sltiu	v0,a3,16
    64a8:	14800006 	bnez	a0,0x64c4
    64ac:	00001821 	move	v1,zero
    64b0:	10400002 	beqz	v0,0x64bc
    64b4:	00000000 	nop
    64b8:	00e01821 	move	v1,a3
    64bc:	03e00008 	jr	ra
    64c0:	00601021 	move	v0,v1
    64c4:	24020020 	li	v0,32
    64c8:	10e20006 	beq	a3,v0,0x64e4
    64cc:	2ce40010 	sltiu	a0,a3,16
    64d0:	24a20001 	addiu	v0,a1,1
    64d4:	1080fff9 	beqz	a0,0x64bc
    64d8:	00021100 	sll	v0,v0,0x4
    64dc:	0800194f 	j	0x653c
    64e0:	00471821 	addu	v1,v0,a3
    64e4:	0800194f 	j	0x653c
    64e8:	24a30050 	addiu	v1,a1,80
    64ec:	27bdffc8 	addiu	sp,sp,-56
    64f0:	afb3001c 	sw	s3,28(sp)
    64f4:	afb20018 	sw	s2,24(sp)
    64f8:	afb10014 	sw	s1,20(sp)
    64fc:	afbf0030 	sw	ra,48(sp)
    6500:	afb7002c 	sw	s7,44(sp)
    6504:	afb60028 	sw	s6,40(sp)
    6508:	afb50024 	sw	s5,36(sp)
    650c:	afb40020 	sw	s4,32(sp)
    6510:	afb00010 	sw	s0,16(sp)
    6514:	00808821 	move	s1,a0
    6518:	84840008 	lh	a0,8(a0)
    651c:	3c05b003 	lui	a1,0xb003
    6520:	3c028000 	lui	v0,0x8000
    6524:	34a50020 	ori	a1,a1,0x20
    6528:	2442656c 	addiu	v0,v0,25964
    652c:	3c03b006 	lui	v1,0xb006
    6530:	00042080 	sll	a0,a0,0x2
    6534:	aca20000 	sw	v0,0(a1)
    6538:	00832021 	addu	a0,a0,v1
    653c:	3c06b006 	lui	a2,0xb006
    6540:	8c820000 	lw	v0,0(a0)
    6544:	34c68024 	ori	a2,a2,0x8024
    6548:	8c880000 	lw	t0,0(a0)
    654c:	8cc40000 	lw	a0,0(a2)
    6550:	96250008 	lhu	a1,8(s1)
    6554:	3052ffff 	andi	s2,v0,0xffff
    6558:	00084402 	srl	t0,t0,0x10
    655c:	34840100 	ori	a0,a0,0x100
    6560:	3c02b000 	lui	v0,0xb000
    6564:	000818c0 	sll	v1,t0,0x3
    6568:	00123a00 	sll	a3,s2,0x8
    656c:	acc40000 	sw	a0,0(a2)
    6570:	00e23821 	addu	a3,a3,v0
    6574:	ae3202b8 	sw	s2,696(s1)
    6578:	00681821 	addu	v1,v1,t0
    657c:	24a50002 	addiu	a1,a1,2
    6580:	8cf60000 	lw	s6,0(a3)
    6584:	30a501ff 	andi	a1,a1,0x1ff
    6588:	8cf40004 	lw	s4,4(a3)
    658c:	27869000 	addiu	a2,gp,-28672
    6590:	00031880 	sll	v1,v1,0x2
    6594:	001298c0 	sll	s3,s2,0x3
    6598:	a6250008 	sh	a1,8(s1)
    659c:	00661821 	addu	v1,v1,a2
    65a0:	02721021 	addu	v0,s3,s2
    65a4:	94650000 	lhu	a1,0(v1)
    65a8:	00024880 	sll	t1,v0,0x2
    65ac:	01263021 	addu	a2,t1,a2
    65b0:	2402ffff 	li	v0,-1
    65b4:	00141a02 	srl	v1,s4,0x8
    65b8:	27849010 	addiu	a0,gp,-28656
    65bc:	a4c20002 	sh	v0,2(a2)
    65c0:	3063001f 	andi	v1,v1,0x1f
    65c4:	24020010 	li	v0,16
    65c8:	01242021 	addu	a0,t1,a0
    65cc:	a4c80004 	sh	t0,4(a2)
    65d0:	8cf00008 	lw	s0,8(a3)
    65d4:	a6230006 	sh	v1,6(s1)
    65d8:	a625000a 	sh	a1,10(s1)
    65dc:	a0820006 	sb	v0,6(a0)
    65e0:	86250006 	lh	a1,6(s1)
    65e4:	27829004 	addiu	v0,gp,-28668
    65e8:	01221021 	addu	v0,t1,v0
    65ec:	24030013 	li	v1,19
    65f0:	10a300ee 	beq	a1,v1,0x69ac
    65f4:	ac470018 	sw	a3,24(v0)
    65f8:	3c03b003 	lui	v1,0xb003
    65fc:	34630100 	ori	v1,v1,0x100
    6600:	a6200002 	sh	zero,2(s1)
    6604:	3c02b003 	lui	v0,0xb003
    6608:	90640000 	lbu	a0,0(v1)
    660c:	34420108 	ori	v0,v0,0x108
    6610:	8c450000 	lw	a1,0(v0)
    6614:	00101bc2 	srl	v1,s0,0xf
    6618:	00042082 	srl	a0,a0,0x2
    661c:	30630001 	andi	v1,v1,0x1
    6620:	acc50008 	sw	a1,8(a2)
    6624:	106000c7 	beqz	v1,0x6944
    6628:	30970001 	andi	s7,a0,0x1
    662c:	00101682 	srl	v0,s0,0x1a
    6630:	30460001 	andi	a2,v0,0x1
    6634:	00101202 	srl	v0,s0,0x8
    6638:	001019c2 	srl	v1,s0,0x7
    663c:	00102602 	srl	a0,s0,0x18
    6640:	00102e42 	srl	a1,s0,0x19
    6644:	3048007f 	andi	t0,v0,0x7f
    6648:	24020001 	li	v0,1
    664c:	30750001 	andi	s5,v1,0x1
    6650:	30840001 	andi	a0,a0,0x1
    6654:	10c200b3 	beq	a2,v0,0x6924
    6658:	30a30001 	andi	v1,a1,0x1
    665c:	00602821 	move	a1,v1
    6660:	0c001942 	jal	0x6508
    6664:	01003821 	move	a3,t0
    6668:	02721821 	addu	v1,s3,s2
    666c:	00031880 	sll	v1,v1,0x2
    6670:	2c460054 	sltiu	a2,v0,84
    6674:	27859010 	addiu	a1,gp,-28656
    6678:	27849008 	addiu	a0,gp,-28664
    667c:	0006100a 	.word	0x6100a
    6680:	00652821 	addu	a1,v1,a1
    6684:	26a60002 	addiu	a2,s5,2
    6688:	00641821 	addu	v1,v1,a0
    668c:	a0a20002 	sb	v0,2(a1)
    6690:	a0660006 	sb	a2,6(v1)
    6694:	a0620007 	sb	v0,7(v1)
    6698:	a0a20001 	sb	v0,1(a1)
    669c:	02722821 	addu	a1,s3,s2
    66a0:	00052880 	sll	a1,a1,0x2
    66a4:	27829004 	addiu	v0,gp,-28668
    66a8:	00a25821 	addu	t3,a1,v0
    66ac:	8d640018 	lw	a0,24(t3)
    66b0:	001015c2 	srl	v0,s0,0x17
    66b4:	30420001 	andi	v0,v0,0x1
    66b8:	8c83000c 	lw	v1,12(a0)
    66bc:	27849020 	addiu	a0,gp,-28640
    66c0:	00a44821 	addu	t1,a1,a0
    66c4:	a6220000 	sh	v0,0(s1)
    66c8:	a6360004 	sh	s6,4(s1)
    66cc:	8d260000 	lw	a2,0(t1)
    66d0:	00031942 	srl	v1,v1,0x5
    66d4:	3c02ffef 	lui	v0,0xffef
    66d8:	3442ffff 	ori	v0,v0,0xffff
    66dc:	30630001 	andi	v1,v1,0x1
    66e0:	00c24024 	and	t0,a2,v0
    66e4:	00031d00 	sll	v1,v1,0x14
    66e8:	01034025 	or	t0,t0,v1
    66ec:	00081502 	srl	v0,t0,0x14
    66f0:	00141982 	srl	v1,s4,0x6
    66f4:	00142582 	srl	a0,s4,0x16
    66f8:	00103442 	srl	a2,s0,0x11
    66fc:	00103c82 	srl	a3,s0,0x12
    6700:	00102c02 	srl	a1,s0,0x10
    6704:	30420001 	andi	v0,v0,0x1
    6708:	30cd0001 	andi	t5,a2,0x1
    670c:	306c0001 	andi	t4,v1,0x1
    6710:	30e60001 	andi	a2,a3,0x1
    6714:	308a0003 	andi	t2,a0,0x3
    6718:	32940007 	andi	s4,s4,0x7
    671c:	30a50001 	andi	a1,a1,0x1
    6720:	ad280000 	sw	t0,0(t1)
    6724:	1040000b 	beqz	v0,0x6754
    6728:	3207007f 	andi	a3,s0,0x7f
    672c:	8d640018 	lw	a0,24(t3)
    6730:	3c03fff0 	lui	v1,0xfff0
    6734:	3463ffff 	ori	v1,v1,0xffff
    6738:	8c82000c 	lw	v0,12(a0)
    673c:	01031824 	and	v1,t0,v1
    6740:	00021382 	srl	v0,v0,0xe
    6744:	3042000f 	andi	v0,v0,0xf
    6748:	00021400 	sll	v0,v0,0x10
    674c:	00621825 	or	v1,v1,v0
    6750:	ad230000 	sw	v1,0(t1)
    6754:	24020001 	li	v0,1
    6758:	10c2006a 	beq	a2,v0,0x6904
    675c:	00000000 	nop
    6760:	15800003 	bnez	t4,0x6770
    6764:	00000000 	nop
    6768:	1540005b 	bnez	t2,0x68d8
    676c:	24020001 	li	v0,1
    6770:	96220004 	lhu	v0,4(s1)
    6774:	00000000 	nop
    6778:	24420004 	addiu	v0,v0,4
    677c:	a6220004 	sh	v0,4(s1)
    6780:	00a02021 	move	a0,a1
    6784:	0c001942 	jal	0x6508
    6788:	01a02821 	move	a1,t5
    678c:	02721821 	addu	v1,s3,s2
    6790:	00034080 	sll	t0,v1,0x2
    6794:	2c450054 	sltiu	a1,v0,84
    6798:	27849010 	addiu	a0,gp,-28656
    679c:	01042021 	addu	a0,t0,a0
    67a0:	0005100a 	.word	0x5100a
    67a4:	a0820000 	sb	v0,0(a0)
    67a8:	a0800004 	sb	zero,4(a0)
    67ac:	a0800005 	sb	zero,5(a0)
    67b0:	96230004 	lhu	v1,4(s1)
    67b4:	27829000 	addiu	v0,gp,-28672
    67b8:	01021021 	addu	v0,t0,v0
    67bc:	a4430006 	sh	v1,6(v0)
    67c0:	27829004 	addiu	v0,gp,-28668
    67c4:	92260001 	lbu	a2,1(s1)
    67c8:	01021021 	addu	v0,t0,v0
    67cc:	8c450018 	lw	a1,24(v0)
    67d0:	27839020 	addiu	v1,gp,-28640
    67d4:	01031821 	addu	v1,t0,v1
    67d8:	a0600000 	sb	zero,0(v1)
    67dc:	a0860007 	sb	a2,7(a0)
    67e0:	94a20010 	lhu	v0,16(a1)
    67e4:	24030004 	li	v1,4
    67e8:	3042000f 	andi	v0,v0,0xf
    67ec:	10430036 	beq	v0,v1,0x68c8
    67f0:	24a50010 	addiu	a1,a1,16
    67f4:	94a30016 	lhu	v1,22(a1)
    67f8:	27879018 	addiu	a3,gp,-28648
    67fc:	01071021 	addu	v0,t0,a3
    6800:	a4430002 	sh	v1,2(v0)
    6804:	94a20004 	lhu	v0,4(a1)
    6808:	00000000 	nop
    680c:	30420001 	andi	v0,v0,0x1
    6810:	14400024 	bnez	v0,0x68a4
    6814:	02722021 	addu	a0,s3,s2
    6818:	94a20000 	lhu	v0,0(a1)
    681c:	240300a4 	li	v1,164
    6820:	304200ff 	andi	v0,v0,0xff
    6824:	1043001f 	beq	v0,v1,0x68a4
    6828:	00000000 	nop
    682c:	94a20000 	lhu	v0,0(a1)
    6830:	24030088 	li	v1,136
    6834:	30420088 	andi	v0,v0,0x88
    6838:	10430014 	beq	v0,v1,0x688c
    683c:	02721821 	addu	v1,s3,s2
    6840:	27849020 	addiu	a0,gp,-28640
    6844:	00031880 	sll	v1,v1,0x2
    6848:	00641821 	addu	v1,v1,a0
    684c:	8c620000 	lw	v0,0(v1)
    6850:	3c040080 	lui	a0,0x80
    6854:	00441025 	or	v0,v0,a0
    6858:	ac620000 	sw	v0,0(v1)
    685c:	02721021 	addu	v0,s3,s2
    6860:	00021080 	sll	v0,v0,0x2
    6864:	00471021 	addu	v0,v0,a3
    6868:	a0540000 	sb	s4,0(v0)
    686c:	8fbf0030 	lw	ra,48(sp)
    6870:	7bb6017c 	.word	0x7bb6017c
    6874:	7bb4013c 	.word	0x7bb4013c
    6878:	7bb200fc 	.word	0x7bb200fc
    687c:	7bb000bc 	.word	0x7bb000bc
    6880:	24020001 	li	v0,1
    6884:	03e00008 	jr	ra
    6888:	27bd0038 	addiu	sp,sp,56
    688c:	94a20018 	lhu	v0,24(a1)
    6890:	00000000 	nop
    6894:	30420060 	andi	v0,v0,0x60
    6898:	1040ffe9 	beqz	v0,0x6840
    689c:	02721821 	addu	v1,s3,s2
    68a0:	02722021 	addu	a0,s3,s2
    68a4:	27829020 	addiu	v0,gp,-28640
    68a8:	00042080 	sll	a0,a0,0x2
    68ac:	00822021 	addu	a0,a0,v0
    68b0:	8c830000 	lw	v1,0(a0)
    68b4:	3c02ff7f 	lui	v0,0xff7f
    68b8:	3442ffff 	ori	v0,v0,0xffff
    68bc:	00621824 	and	v1,v1,v0
    68c0:	08001a37 	j	0x68dc
    68c4:	ac830000 	sw	v1,0(a0)
    68c8:	27879018 	addiu	a3,gp,-28648
    68cc:	01071021 	addu	v0,t0,a3
    68d0:	08001a21 	j	0x6884
    68d4:	a4400002 	sh	zero,2(v0)
    68d8:	11420007 	beq	t2,v0,0x68f8
    68dc:	00000000 	nop
    68e0:	2d420002 	sltiu	v0,t2,2
    68e4:	1440ffa7 	bnez	v0,0x6784
    68e8:	00a02021 	move	a0,a1
    68ec:	96220004 	lhu	v0,4(s1)
    68f0:	080019ff 	j	0x67fc
    68f4:	2442000c 	addiu	v0,v0,12
    68f8:	96220004 	lhu	v0,4(s1)
    68fc:	080019ff 	j	0x67fc
    6900:	24420008 	addiu	v0,v0,8
    6904:	16e6ff96 	bne	s7,a2,0x6760
    6908:	3c02fffb 	lui	v0,0xfffb
    690c:	8d630018 	lw	v1,24(t3)
    6910:	3442ffff 	ori	v0,v0,0xffff
    6914:	02021024 	and	v0,s0,v0
    6918:	ac620008 	sw	v0,8(v1)
    691c:	080019f8 	j	0x67e0
    6920:	00003021 	move	a2,zero
    6924:	16e6ff4e 	bne	s7,a2,0x6660
    6928:	00602821 	move	a1,v1
    692c:	3c02fbff 	lui	v0,0xfbff
    6930:	3442ffff 	ori	v0,v0,0xffff
    6934:	02021024 	and	v0,s0,v0
    6938:	ace20008 	sw	v0,8(a3)
    693c:	080019b7 	j	0x66dc
    6940:	00003021 	move	a2,zero
    6944:	9387bb14 	lbu	a3,-17644(gp)
    6948:	00101e42 	srl	v1,s0,0x19
    694c:	00102682 	srl	a0,s0,0x1a
    6950:	27829008 	addiu	v0,gp,-28664
    6954:	2ce5000c 	sltiu	a1,a3,12
    6958:	01224821 	addu	t1,t1,v0
    695c:	30630001 	andi	v1,v1,0x1
    6960:	30860001 	andi	a2,a0,0x1
    6964:	14a00006 	bnez	a1,0x6980
    6968:	00e04021 	move	t0,a3
    696c:	00031040 	sll	v0,v1,0x1
    6970:	00461021 	addu	v0,v0,a2
    6974:	00021100 	sll	v0,v0,0x4
    6978:	00e21021 	addu	v0,a3,v0
    697c:	24480004 	addiu	t0,v0,4
    6980:	02721021 	addu	v0,s3,s2
    6984:	00021080 	sll	v0,v0,0x2
    6988:	27849010 	addiu	a0,gp,-28656
    698c:	27839008 	addiu	v1,gp,-28664
    6990:	00442021 	addu	a0,v0,a0
    6994:	00431021 	addu	v0,v0,v1
    6998:	a1280007 	sb	t0,7(t1)
    699c:	a0400006 	sb	zero,6(v0)
    69a0:	a0800002 	sb	zero,2(a0)
    69a4:	080019c7 	j	0x671c
    69a8:	a0800001 	sb	zero,1(a0)
    69ac:	24020001 	li	v0,1
    69b0:	a6220002 	sh	v0,2(s1)
    69b4:	0c0001c2 	jal	0x708
    69b8:	00e02021 	move	a0,a3
    69bc:	08001a3b 	j	0x68ec
    69c0:	00000000 	nop
    69c4:	30a7ffff 	andi	a3,a1,0xffff
    69c8:	000718c0 	sll	v1,a3,0x3
    69cc:	00671821 	addu	v1,v1,a3
    69d0:	3c06b003 	lui	a2,0xb003
    69d4:	3c028000 	lui	v0,0x8000
    69d8:	24426a44 	addiu	v0,v0,27204
    69dc:	27859010 	addiu	a1,gp,-28656
    69e0:	00031880 	sll	v1,v1,0x2
    69e4:	34c60020 	ori	a2,a2,0x20
    69e8:	00651821 	addu	v1,v1,a1
    69ec:	acc20000 	sw	v0,0(a2)
    69f0:	80620007 	lb	v0,7(v1)
    69f4:	00000000 	nop
    69f8:	10400029 	beqz	v0,0x6aa0
    69fc:	00802821 	move	a1,a0
    6a00:	90820016 	lbu	v0,22(a0)
    6a04:	00000000 	nop
    6a08:	34420002 	ori	v0,v0,0x2
    6a0c:	30430001 	andi	v1,v0,0x1
    6a10:	14600002 	bnez	v1,0x6a1c
    6a14:	a0820016 	sb	v0,22(a0)
    6a18:	a0800017 	sb	zero,23(a0)
    6a1c:	90a20004 	lbu	v0,4(a1)
    6a20:	3c03b003 	lui	v1,0xb003
    6a24:	27869000 	addiu	a2,gp,-28672
    6a28:	14400006 	bnez	v0,0x6a44
    6a2c:	34630020 	ori	v1,v1,0x20
    6a30:	24020001 	li	v0,1
    6a34:	a0a20004 	sb	v0,4(a1)
    6a38:	a4a70002 	sh	a3,2(a1)
    6a3c:	03e00008 	jr	ra
    6a40:	a4a70000 	sh	a3,0(a1)
    6a44:	94a40002 	lhu	a0,2(a1)
    6a48:	3c028001 	lui	v0,0x8001
    6a4c:	2442826c 	addiu	v0,v0,-32148
    6a50:	ac620000 	sw	v0,0(v1)
    6a54:	000418c0 	sll	v1,a0,0x3
    6a58:	00641821 	addu	v1,v1,a0
    6a5c:	00031880 	sll	v1,v1,0x2
    6a60:	00661821 	addu	v1,v1,a2
    6a64:	94620004 	lhu	v0,4(v1)
    6a68:	a4670002 	sh	a3,2(v1)
    6a6c:	3c03b008 	lui	v1,0xb008
    6a70:	000220c0 	sll	a0,v0,0x3
    6a74:	00821021 	addu	v0,a0,v0
    6a78:	00021080 	sll	v0,v0,0x2
    6a7c:	00461021 	addu	v0,v0,a2
    6a80:	00832021 	addu	a0,a0,v1
    6a84:	a4470000 	sh	a3,0(v0)
    6a88:	ac870000 	sw	a3,0(a0)
    6a8c:	90a20004 	lbu	v0,4(a1)
    6a90:	a4a70002 	sh	a3,2(a1)
    6a94:	24420001 	addiu	v0,v0,1
    6a98:	03e00008 	jr	ra
    6a9c:	a0a20004 	sb	v0,4(a1)
    6aa0:	90820016 	lbu	v0,22(a0)
    6aa4:	24850006 	addiu	a1,a0,6
    6aa8:	34420001 	ori	v0,v0,0x1
    6aac:	30430002 	andi	v1,v0,0x2
    6ab0:	1460ffda 	bnez	v1,0x6a1c
    6ab4:	a0820016 	sb	v0,22(a0)
    6ab8:	24020001 	li	v0,1
    6abc:	08001aa7 	j	0x6a9c
    6ac0:	a0820017 	sb	v0,23(a0)
    6ac4:	27bdffe8 	addiu	sp,sp,-24
    6ac8:	afbf0010 	sw	ra,16(sp)
    6acc:	00803821 	move	a3,a0
    6ad0:	84840002 	lh	a0,2(a0)
    6ad4:	3c03b003 	lui	v1,0xb003
    6ad8:	3c028000 	lui	v0,0x8000
    6adc:	3c0ab006 	lui	t2,0xb006
    6ae0:	34630020 	ori	v1,v1,0x20
    6ae4:	24426b44 	addiu	v0,v0,27460
    6ae8:	3c0bb008 	lui	t3,0xb008
    6aec:	27899000 	addiu	t1,gp,-28672
    6af0:	340cffff 	li	t4,0xffff
    6af4:	354a8020 	ori	t2,t2,0x8020
    6af8:	10800030 	beqz	a0,0x6bbc
    6afc:	ac620000 	sw	v0,0(v1)
    6b00:	97828ff0 	lhu	v0,-28688(gp)
    6b04:	94e602ba 	lhu	a2,698(a3)
    6b08:	000218c0 	sll	v1,v0,0x3
    6b0c:	006b2821 	addu	a1,v1,t3
    6b10:	aca60000 	sw	a2,0(a1)
    6b14:	8ce402b8 	lw	a0,696(a3)
    6b18:	00621821 	addu	v1,v1,v0
    6b1c:	00031880 	sll	v1,v1,0x2
    6b20:	000410c0 	sll	v0,a0,0x3
    6b24:	00441021 	addu	v0,v0,a0
    6b28:	00021080 	sll	v0,v0,0x2
    6b2c:	00491021 	addu	v0,v0,t1
    6b30:	94480004 	lhu	t0,4(v0)
    6b34:	00691821 	addu	v1,v1,t1
    6b38:	a4660000 	sh	a2,0(v1)
    6b3c:	000828c0 	sll	a1,t0,0x3
    6b40:	00ab1021 	addu	v0,a1,t3
    6b44:	ac4c0000 	sw	t4,0(v0)
    6b48:	8ce402b8 	lw	a0,696(a3)
    6b4c:	27829004 	addiu	v0,gp,-28668
    6b50:	00a82821 	addu	a1,a1,t0
    6b54:	000418c0 	sll	v1,a0,0x3
    6b58:	00641821 	addu	v1,v1,a0
    6b5c:	00031880 	sll	v1,v1,0x2
    6b60:	00621021 	addu	v0,v1,v0
    6b64:	8c460018 	lw	a2,24(v0)
    6b68:	27849010 	addiu	a0,gp,-28656
    6b6c:	00641821 	addu	v1,v1,a0
    6b70:	8cc20000 	lw	v0,0(a2)
    6b74:	80670006 	lb	a3,6(v1)
    6b78:	00052880 	sll	a1,a1,0x2
    6b7c:	3042ffff 	andi	v0,v0,0xffff
    6b80:	00471021 	addu	v0,v0,a3
    6b84:	304300ff 	andi	v1,v0,0xff
    6b88:	0003182b 	sltu	v1,zero,v1
    6b8c:	00021202 	srl	v0,v0,0x8
    6b90:	00431021 	addu	v0,v0,v1
    6b94:	3c040004 	lui	a0,0x4
    6b98:	00a92821 	addu	a1,a1,t1
    6b9c:	00441025 	or	v0,v0,a0
    6ba0:	a4ac0000 	sh	t4,0(a1)
    6ba4:	ad420000 	sw	v0,0(t2)
    6ba8:	a7888ff0 	sh	t0,-28688(gp)
    6bac:	8fbf0010 	lw	ra,16(sp)
    6bb0:	00000000 	nop
    6bb4:	03e00008 	jr	ra
    6bb8:	27bd0018 	addiu	sp,sp,24
    6bbc:	84e30006 	lh	v1,6(a3)
    6bc0:	2782b400 	addiu	v0,gp,-19456
    6bc4:	94e502ba 	lhu	a1,698(a3)
    6bc8:	00031880 	sll	v1,v1,0x2
    6bcc:	00621821 	addu	v1,v1,v0
    6bd0:	8c640000 	lw	a0,0(v1)
    6bd4:	0c001a91 	jal	0x6a44
    6bd8:	00000000 	nop
    6bdc:	08001b0b 	j	0x6c2c
    6be0:	00000000 	nop
    6be4:	94880000 	lhu	t0,0(a0)
    6be8:	00805821 	move	t3,a0
    6bec:	278a9000 	addiu	t2,gp,-28672
    6bf0:	000818c0 	sll	v1,t0,0x3
    6bf4:	00681821 	addu	v1,v1,t0
    6bf8:	3c04b003 	lui	a0,0xb003
    6bfc:	00031880 	sll	v1,v1,0x2
    6c00:	3c028000 	lui	v0,0x8000
    6c04:	006a1821 	addu	v1,v1,t2
    6c08:	34840020 	ori	a0,a0,0x20
    6c0c:	24426c64 	addiu	v0,v0,27748
    6c10:	30a5ffff 	andi	a1,a1,0xffff
    6c14:	ac820000 	sw	v0,0(a0)
    6c18:	94670002 	lhu	a3,2(v1)
    6c1c:	11050035 	beq	t0,a1,0x6cf4
    6c20:	24040001 	li	a0,1
    6c24:	91660004 	lbu	a2,4(t3)
    6c28:	00000000 	nop
    6c2c:	0086102a 	slt	v0,a0,a2
    6c30:	10400010 	beqz	v0,0x6c74
    6c34:	00c04821 	move	t1,a2
    6c38:	3c0db003 	lui	t5,0xb003
    6c3c:	01406021 	move	t4,t2
    6c40:	35ad0020 	ori	t5,t5,0x20
    6c44:	10e5000d 	beq	a3,a1,0x6c7c
    6c48:	24840001 	addiu	a0,a0,1
    6c4c:	000710c0 	sll	v0,a3,0x3
    6c50:	00471021 	addu	v0,v0,a3
    6c54:	00021080 	sll	v0,v0,0x2
    6c58:	01203021 	move	a2,t1
    6c5c:	004a1021 	addu	v0,v0,t2
    6c60:	0086182a 	slt	v1,a0,a2
    6c64:	00e04021 	move	t0,a3
    6c68:	94470002 	lhu	a3,2(v0)
    6c6c:	1460fff5 	bnez	v1,0x6c44
    6c70:	00000000 	nop
    6c74:	03e00008 	jr	ra
    6c78:	00001021 	move	v0,zero
    6c7c:	000820c0 	sll	a0,t0,0x3
    6c80:	00882021 	addu	a0,a0,t0
    6c84:	24c2ffff 	addiu	v0,a2,-1
    6c88:	00042080 	sll	a0,a0,0x2
    6c8c:	a1620004 	sb	v0,4(t3)
    6c90:	008c2021 	addu	a0,a0,t4
    6c94:	94830004 	lhu	v1,4(a0)
    6c98:	000710c0 	sll	v0,a3,0x3
    6c9c:	00471021 	addu	v0,v0,a3
    6ca0:	00021080 	sll	v0,v0,0x2
    6ca4:	004c1021 	addu	v0,v0,t4
    6ca8:	000328c0 	sll	a1,v1,0x3
    6cac:	94460002 	lhu	a2,2(v0)
    6cb0:	00a31821 	addu	v1,a1,v1
    6cb4:	00031880 	sll	v1,v1,0x2
    6cb8:	006c1821 	addu	v1,v1,t4
    6cbc:	a4660000 	sh	a2,0(v1)
    6cc0:	a4860002 	sh	a2,2(a0)
    6cc4:	95640002 	lhu	a0,2(t3)
    6cc8:	3c03b008 	lui	v1,0xb008
    6ccc:	3c028001 	lui	v0,0x8001
    6cd0:	00a32821 	addu	a1,a1,v1
    6cd4:	2442826c 	addiu	v0,v0,-32148
    6cd8:	ada20000 	sw	v0,0(t5)
    6cdc:	10870003 	beq	a0,a3,0x6cec
    6ce0:	aca60000 	sw	a2,0(a1)
    6ce4:	03e00008 	jr	ra
    6ce8:	24020001 	li	v0,1
    6cec:	08001b59 	j	0x6d64
    6cf0:	a5680002 	sh	t0,2(t3)
    6cf4:	91620004 	lbu	v0,4(t3)
    6cf8:	a5670000 	sh	a3,0(t3)
    6cfc:	2442ffff 	addiu	v0,v0,-1
    6d00:	304300ff 	andi	v1,v0,0xff
    6d04:	1460fff7 	bnez	v1,0x6ce4
    6d08:	a1620004 	sb	v0,4(t3)
    6d0c:	2402ffff 	li	v0,-1
    6d10:	08001b59 	j	0x6d64
    6d14:	a5620002 	sh	v0,2(t3)
    6d18:	000540c0 	sll	t0,a1,0x3
    6d1c:	01053021 	addu	a2,t0,a1
    6d20:	27bdffd8 	addiu	sp,sp,-40
    6d24:	00063080 	sll	a2,a2,0x2
    6d28:	27829004 	addiu	v0,gp,-28668
    6d2c:	afb20018 	sw	s2,24(sp)
    6d30:	afb10014 	sw	s1,20(sp)
    6d34:	afbf0020 	sw	ra,32(sp)
    6d38:	afb3001c 	sw	s3,28(sp)
    6d3c:	afb00010 	sw	s0,16(sp)
    6d40:	00c21021 	addu	v0,a2,v0
    6d44:	8c470018 	lw	a3,24(v0)
    6d48:	00a09021 	move	s2,a1
    6d4c:	3c028000 	lui	v0,0x8000
    6d50:	3c05b003 	lui	a1,0xb003
    6d54:	34a50020 	ori	a1,a1,0x20
    6d58:	24426d98 	addiu	v0,v0,28056
    6d5c:	aca20000 	sw	v0,0(a1)
    6d60:	27839010 	addiu	v1,gp,-28656
    6d64:	00c33021 	addu	a2,a2,v1
    6d68:	8ce20000 	lw	v0,0(a3)
    6d6c:	80c50006 	lb	a1,6(a2)
    6d70:	00808821 	move	s1,a0
    6d74:	3042ffff 	andi	v0,v0,0xffff
    6d78:	00451021 	addu	v0,v0,a1
    6d7c:	304300ff 	andi	v1,v0,0xff
    6d80:	10600002 	beqz	v1,0x6d8c
    6d84:	00021202 	srl	v0,v0,0x8
    6d88:	24420001 	addiu	v0,v0,1
    6d8c:	305300ff 	andi	s3,v0,0xff
    6d90:	01121021 	addu	v0,t0,s2
    6d94:	00021080 	sll	v0,v0,0x2
    6d98:	27839010 	addiu	v1,gp,-28656
    6d9c:	00431021 	addu	v0,v0,v1
    6da0:	80440007 	lb	a0,7(v0)
    6da4:	00000000 	nop
    6da8:	1080004b 	beqz	a0,0x6ed8
    6dac:	26240006 	addiu	a0,s1,6
    6db0:	3250ffff 	andi	s0,s2,0xffff
    6db4:	02202021 	move	a0,s1
    6db8:	0c001b19 	jal	0x6c64
    6dbc:	02002821 	move	a1,s0
    6dc0:	92220010 	lbu	v0,16(s1)
    6dc4:	00000000 	nop
    6dc8:	1440002e 	bnez	v0,0x6e84
    6dcc:	3c03b008 	lui	v1,0xb008
    6dd0:	3c098001 	lui	t1,0x8001
    6dd4:	27889000 	addiu	t0,gp,-28672
    6dd8:	a632000c 	sh	s2,12(s1)
    6ddc:	001020c0 	sll	a0,s0,0x3
    6de0:	00902021 	addu	a0,a0,s0
    6de4:	00042080 	sll	a0,a0,0x2
    6de8:	00882021 	addu	a0,a0,t0
    6dec:	94820004 	lhu	v0,4(a0)
    6df0:	3c03b008 	lui	v1,0xb008
    6df4:	3c07b003 	lui	a3,0xb003
    6df8:	000228c0 	sll	a1,v0,0x3
    6dfc:	00a21021 	addu	v0,a1,v0
    6e00:	00021080 	sll	v0,v0,0x2
    6e04:	00481021 	addu	v0,v0,t0
    6e08:	00a32821 	addu	a1,a1,v1
    6e0c:	2526826c 	addiu	a2,t1,-32148
    6e10:	3403ffff 	li	v1,0xffff
    6e14:	34e70020 	ori	a3,a3,0x20
    6e18:	ace60000 	sw	a2,0(a3)
    6e1c:	a4830002 	sh	v1,2(a0)
    6e20:	a4430000 	sh	v1,0(v0)
    6e24:	aca30000 	sw	v1,0(a1)
    6e28:	92220010 	lbu	v0,16(s1)
    6e2c:	9223000a 	lbu	v1,10(s1)
    6e30:	a632000e 	sh	s2,14(s1)
    6e34:	02621021 	addu	v0,s3,v0
    6e38:	14600005 	bnez	v1,0x6e50
    6e3c:	a2220010 	sb	v0,16(s1)
    6e40:	92220016 	lbu	v0,22(s1)
    6e44:	00000000 	nop
    6e48:	304200fe 	andi	v0,v0,0xfe
    6e4c:	a2220016 	sb	v0,22(s1)
    6e50:	92220004 	lbu	v0,4(s1)
    6e54:	00000000 	nop
    6e58:	14400005 	bnez	v0,0x6e70
    6e5c:	00000000 	nop
    6e60:	92220016 	lbu	v0,22(s1)
    6e64:	00000000 	nop
    6e68:	304200fd 	andi	v0,v0,0xfd
    6e6c:	a2220016 	sb	v0,22(s1)
    6e70:	8fbf0020 	lw	ra,32(sp)
    6e74:	7bb200fc 	.word	0x7bb200fc
    6e78:	7bb000bc 	.word	0x7bb000bc
    6e7c:	03e00008 	jr	ra
    6e80:	27bd0028 	addiu	sp,sp,40
    6e84:	9622000e 	lhu	v0,14(s1)
    6e88:	27889000 	addiu	t0,gp,-28672
    6e8c:	000220c0 	sll	a0,v0,0x3
    6e90:	00822021 	addu	a0,a0,v0
    6e94:	00042080 	sll	a0,a0,0x2
    6e98:	00882021 	addu	a0,a0,t0
    6e9c:	94820004 	lhu	v0,4(a0)
    6ea0:	3c06b003 	lui	a2,0xb003
    6ea4:	3c098001 	lui	t1,0x8001
    6ea8:	000228c0 	sll	a1,v0,0x3
    6eac:	00a21021 	addu	v0,a1,v0
    6eb0:	00021080 	sll	v0,v0,0x2
    6eb4:	00a32821 	addu	a1,a1,v1
    6eb8:	00481021 	addu	v0,v0,t0
    6ebc:	34c60020 	ori	a2,a2,0x20
    6ec0:	2523826c 	addiu	v1,t1,-32148
    6ec4:	acc30000 	sw	v1,0(a2)
    6ec8:	a4500000 	sh	s0,0(v0)
    6ecc:	acb00000 	sw	s0,0(a1)
    6ed0:	08001b97 	j	0x6e5c
    6ed4:	a4900002 	sh	s0,2(a0)
    6ed8:	08001b8e 	j	0x6e38
    6edc:	3250ffff 	andi	s0,s2,0xffff
    6ee0:	3c03b003 	lui	v1,0xb003
    6ee4:	3c028000 	lui	v0,0x8000
    6ee8:	24426f60 	addiu	v0,v0,28512
    6eec:	34630020 	ori	v1,v1,0x20
    6ef0:	ac620000 	sw	v0,0(v1)
    6ef4:	90820004 	lbu	v0,4(a0)
    6ef8:	97aa0012 	lhu	t2,18(sp)
    6efc:	00806021 	move	t4,a0
    6f00:	30a8ffff 	andi	t0,a1,0xffff
    6f04:	004a2023 	subu	a0,v0,t2
    6f08:	3409ffff 	li	t1,0xffff
    6f0c:	30cfffff 	andi	t7,a2,0xffff
    6f10:	30eeffff 	andi	t6,a3,0xffff
    6f14:	11090073 	beq	t0,t1,0x70e4
    6f18:	a1840004 	sb	a0,4(t4)
    6f1c:	000ec0c0 	sll	t8,t6,0x3
    6f20:	000810c0 	sll	v0,t0,0x3
    6f24:	00481021 	addu	v0,v0,t0
    6f28:	030e2021 	addu	a0,t8,t6
    6f2c:	278d9000 	addiu	t5,gp,-28672
    6f30:	00042080 	sll	a0,a0,0x2
    6f34:	00021080 	sll	v0,v0,0x2
    6f38:	004d1021 	addu	v0,v0,t5
    6f3c:	008d2021 	addu	a0,a0,t5
    6f40:	94860002 	lhu	a2,2(a0)
    6f44:	94430004 	lhu	v1,4(v0)
    6f48:	3c198001 	lui	t9,0x8001
    6f4c:	a4460002 	sh	a2,2(v0)
    6f50:	000328c0 	sll	a1,v1,0x3
    6f54:	00a31821 	addu	v1,a1,v1
    6f58:	94870002 	lhu	a3,2(a0)
    6f5c:	3c02b008 	lui	v0,0xb008
    6f60:	00031880 	sll	v1,v1,0x2
    6f64:	00a22821 	addu	a1,a1,v0
    6f68:	006d1821 	addu	v1,v1,t5
    6f6c:	2722826c 	addiu	v0,t9,-32148
    6f70:	3c01b003 	lui	at,0xb003
    6f74:	ac220020 	sw	v0,32(at)
    6f78:	a4660000 	sh	a2,0(v1)
    6f7c:	10e90057 	beq	a3,t1,0x70dc
    6f80:	aca60000 	sw	a2,0(a1)
    6f84:	01e03021 	move	a2,t7
    6f88:	1140001d 	beqz	t2,0x7000
    6f8c:	00004821 	move	t1,zero
    6f90:	01403821 	move	a3,t2
    6f94:	278b9004 	addiu	t3,gp,-28668
    6f98:	278a9010 	addiu	t2,gp,-28656
    6f9c:	000640c0 	sll	t0,a2,0x3
    6fa0:	01061821 	addu	v1,t0,a2
    6fa4:	00031880 	sll	v1,v1,0x2
    6fa8:	006b1021 	addu	v0,v1,t3
    6fac:	8c440018 	lw	a0,24(v0)
    6fb0:	006a1821 	addu	v1,v1,t2
    6fb4:	80650006 	lb	a1,6(v1)
    6fb8:	8c820000 	lw	v0,0(a0)
    6fbc:	00000000 	nop
    6fc0:	3042ffff 	andi	v0,v0,0xffff
    6fc4:	00451021 	addu	v0,v0,a1
    6fc8:	304400ff 	andi	a0,v0,0xff
    6fcc:	00021202 	srl	v0,v0,0x8
    6fd0:	01221821 	addu	v1,t1,v0
    6fd4:	24620001 	addiu	v0,v1,1
    6fd8:	14800002 	bnez	a0,0x6fe4
    6fdc:	304900ff 	andi	t1,v0,0xff
    6fe0:	306900ff 	andi	t1,v1,0xff
    6fe4:	01061021 	addu	v0,t0,a2
    6fe8:	00021080 	sll	v0,v0,0x2
    6fec:	004d1021 	addu	v0,v0,t5
    6ff0:	24e7ffff 	addiu	a3,a3,-1
    6ff4:	94460002 	lhu	a2,2(v0)
    6ff8:	14e0ffe9 	bnez	a3,0x6fa0
    6ffc:	000640c0 	sll	t0,a2,0x3
    7000:	91820010 	lbu	v0,16(t4)
    7004:	00000000 	nop
    7008:	14400020 	bnez	v0,0x708c
    700c:	3c06b003 	lui	a2,0xb003
    7010:	a58f000c 	sh	t7,12(t4)
    7014:	030e2021 	addu	a0,t8,t6
    7018:	00042080 	sll	a0,a0,0x2
    701c:	008d2021 	addu	a0,a0,t5
    7020:	94820004 	lhu	v0,4(a0)
    7024:	3c03b008 	lui	v1,0xb008
    7028:	3c07b003 	lui	a3,0xb003
    702c:	000228c0 	sll	a1,v0,0x3
    7030:	00a21021 	addu	v0,a1,v0
    7034:	00021080 	sll	v0,v0,0x2
    7038:	004d1021 	addu	v0,v0,t5
    703c:	00a32821 	addu	a1,a1,v1
    7040:	2726826c 	addiu	a2,t9,-32148
    7044:	3403ffff 	li	v1,0xffff
    7048:	34e70020 	ori	a3,a3,0x20
    704c:	ace60000 	sw	a2,0(a3)
    7050:	a4830002 	sh	v1,2(a0)
    7054:	a4430000 	sh	v1,0(v0)
    7058:	aca30000 	sw	v1,0(a1)
    705c:	91820010 	lbu	v0,16(t4)
    7060:	91830004 	lbu	v1,4(t4)
    7064:	a58e000e 	sh	t6,14(t4)
    7068:	01221021 	addu	v0,t1,v0
    706c:	14600005 	bnez	v1,0x7084
    7070:	a1820010 	sb	v0,16(t4)
    7074:	91820016 	lbu	v0,22(t4)
    7078:	00000000 	nop
    707c:	304200fd 	andi	v0,v0,0xfd
    7080:	a1820016 	sb	v0,22(t4)
    7084:	03e00008 	jr	ra
    7088:	00000000 	nop
    708c:	9582000e 	lhu	v0,14(t4)
    7090:	3c03b008 	lui	v1,0xb008
    7094:	000220c0 	sll	a0,v0,0x3
    7098:	00822021 	addu	a0,a0,v0
    709c:	00042080 	sll	a0,a0,0x2
    70a0:	008d2021 	addu	a0,a0,t5
    70a4:	94820004 	lhu	v0,4(a0)
    70a8:	34c60020 	ori	a2,a2,0x20
    70ac:	2727826c 	addiu	a3,t9,-32148
    70b0:	000228c0 	sll	a1,v0,0x3
    70b4:	00a21021 	addu	v0,a1,v0
    70b8:	00021080 	sll	v0,v0,0x2
    70bc:	00a32821 	addu	a1,a1,v1
    70c0:	004d1021 	addu	v0,v0,t5
    70c4:	acc70000 	sw	a3,0(a2)
    70c8:	a48f0002 	sh	t7,2(a0)
    70cc:	a44f0000 	sh	t7,0(v0)
    70d0:	acaf0000 	sw	t7,0(a1)
    70d4:	08001c26 	j	0x7098
    70d8:	030e2021 	addu	a0,t8,t6
    70dc:	08001c01 	j	0x7004
    70e0:	a5880002 	sh	t0,2(t4)
    70e4:	000ec0c0 	sll	t8,t6,0x3
    70e8:	030e1021 	addu	v0,t8,t6
    70ec:	00021080 	sll	v0,v0,0x2
    70f0:	278d9000 	addiu	t5,gp,-28672
    70f4:	004d1021 	addu	v0,v0,t5
    70f8:	94430002 	lhu	v1,2(v0)
    70fc:	308400ff 	andi	a0,a0,0xff
    7100:	14800005 	bnez	a0,0x7118
    7104:	a5830000 	sh	v1,0(t4)
    7108:	2402ffff 	li	v0,-1
    710c:	3c198001 	lui	t9,0x8001
    7110:	08001c01 	j	0x7004
    7114:	a5820002 	sh	v0,2(t4)
    7118:	08001c01 	j	0x7004
    711c:	3c198001 	lui	t9,0x8001
    7120:	3c08b003 	lui	t0,0xb003
    7124:	3c028000 	lui	v0,0x8000
    7128:	27bdff78 	addiu	sp,sp,-136
    712c:	35080020 	ori	t0,t0,0x20
    7130:	244271a0 	addiu	v0,v0,29088
    7134:	afb20068 	sw	s2,104(sp)
    7138:	afb10064 	sw	s1,100(sp)
    713c:	afb00060 	sw	s0,96(sp)
    7140:	ad020000 	sw	v0,0(t0)
    7144:	afbf0084 	sw	ra,132(sp)
    7148:	afbe0080 	sw	s8,128(sp)
    714c:	afb7007c 	sw	s7,124(sp)
    7150:	afb60078 	sw	s6,120(sp)
    7154:	afb50074 	sw	s5,116(sp)
    7158:	afb40070 	sw	s4,112(sp)
    715c:	afb3006c 	sw	s3,108(sp)
    7160:	afa40088 	sw	a0,136(sp)
    7164:	9083000a 	lbu	v1,10(a0)
    7168:	2782b400 	addiu	v0,gp,-19456
    716c:	afa60090 	sw	a2,144(sp)
    7170:	00031880 	sll	v1,v1,0x2
    7174:	00621821 	addu	v1,v1,v0
    7178:	8c630000 	lw	v1,0(v1)
    717c:	afa70094 	sw	a3,148(sp)
    7180:	27869004 	addiu	a2,gp,-28668
    7184:	afa3001c 	sw	v1,28(sp)
    7188:	94630014 	lhu	v1,20(v1)
    718c:	30b1ffff 	andi	s1,a1,0xffff
    7190:	24080001 	li	t0,1
    7194:	000320c0 	sll	a0,v1,0x3
    7198:	afa30018 	sw	v1,24(sp)
    719c:	00831821 	addu	v1,a0,v1
    71a0:	afa40054 	sw	a0,84(sp)
    71a4:	00031880 	sll	v1,v1,0x2
    71a8:	27849010 	addiu	a0,gp,-28656
    71ac:	00642021 	addu	a0,v1,a0
    71b0:	80820006 	lb	v0,6(a0)
    71b4:	00661821 	addu	v1,v1,a2
    71b8:	8c660018 	lw	a2,24(v1)
    71bc:	24420002 	addiu	v0,v0,2
    71c0:	00021fc2 	srl	v1,v0,0x1f
    71c4:	8cc40008 	lw	a0,8(a2)
    71c8:	00431021 	addu	v0,v0,v1
    71cc:	00021043 	sra	v0,v0,0x1
    71d0:	00021040 	sll	v0,v0,0x1
    71d4:	00042fc2 	srl	a1,a0,0x1f
    71d8:	00041c82 	srl	v1,a0,0x12
    71dc:	00c23821 	addu	a3,a2,v0
    71e0:	00042442 	srl	a0,a0,0x11
    71e4:	8fa2001c 	lw	v0,28(sp)
    71e8:	30630001 	andi	v1,v1,0x1
    71ec:	30840001 	andi	a0,a0,0x1
    71f0:	afa5003c 	sw	a1,60(sp)
    71f4:	afa30034 	sw	v1,52(sp)
    71f8:	afa40038 	sw	a0,56(sp)
    71fc:	afa00040 	sw	zero,64(sp)
    7200:	afa00044 	sw	zero,68(sp)
    7204:	afa00050 	sw	zero,80(sp)
    7208:	afa80020 	sw	t0,32(sp)
    720c:	80420012 	lb	v0,18(v0)
    7210:	8fb20018 	lw	s2,24(sp)
    7214:	afa20028 	sw	v0,40(sp)
    7218:	8cd0000c 	lw	s0,12(a2)
    721c:	14a001e4 	bnez	a1,0x79b0
    7220:	00603021 	move	a2,v1
    7224:	00101082 	srl	v0,s0,0x2
    7228:	30450007 	andi	a1,v0,0x7
    722c:	10a00011 	beqz	a1,0x7274
    7230:	afa00030 	sw	zero,48(sp)
    7234:	8fa40098 	lw	a0,152(sp)
    7238:	2782801c 	addiu	v0,gp,-32740
    723c:	00041840 	sll	v1,a0,0x1
    7240:	00621821 	addu	v1,v1,v0
    7244:	24a20006 	addiu	v0,a1,6
    7248:	8fa50020 	lw	a1,32(sp)
    724c:	94640000 	lhu	a0,0(v1)
    7250:	00451004 	sllv	v0,a1,v0
    7254:	0044001a 	div	zero,v0,a0
    7258:	14800002 	bnez	a0,0x7264
    725c:	00000000 	nop
    7260:	0007000d 	break	0x7
    7264:	00001012 	mflo	v0
    7268:	24420020 	addiu	v0,v0,32
    726c:	3042fffc 	andi	v0,v0,0xfffc
    7270:	afa20030 	sw	v0,48(sp)
    7274:	8fa30018 	lw	v1,24(sp)
    7278:	8fa40028 	lw	a0,40(sp)
    727c:	3402ffff 	li	v0,0xffff
    7280:	afa0002c 	sw	zero,44(sp)
    7284:	afa20048 	sw	v0,72(sp)
    7288:	afa3004c 	sw	v1,76(sp)
    728c:	0060f021 	move	s8,v1
    7290:	0000b821 	move	s7,zero
    7294:	18800048 	blez	a0,0x73b8
    7298:	afa00024 	sw	zero,36(sp)
    729c:	00118902 	srl	s1,s1,0x4
    72a0:	afb10058 	sw	s1,88(sp)
    72a4:	0080a821 	move	s5,a0
    72a8:	001210c0 	sll	v0,s2,0x3
    72ac:	00521821 	addu	v1,v0,s2
    72b0:	00038080 	sll	s0,v1,0x2
    72b4:	27859000 	addiu	a1,gp,-28672
    72b8:	02402021 	move	a0,s2
    72bc:	0040a021 	move	s4,v0
    72c0:	02051021 	addu	v0,s0,a1
    72c4:	94560002 	lhu	s6,2(v0)
    72c8:	0c00128b 	jal	0x4a2c
    72cc:	00002821 	move	a1,zero
    72d0:	90420000 	lbu	v0,0(v0)
    72d4:	24030008 	li	v1,8
    72d8:	3042000c 	andi	v0,v0,0xc
    72dc:	1043019e 	beq	v0,v1,0x7958
    72e0:	24040001 	li	a0,1
    72e4:	24020001 	li	v0,1
    72e8:	1082017c 	beq	a0,v0,0x78dc
    72ec:	3c02b003 	lui	v0,0xb003
    72f0:	8fa60088 	lw	a2,136(sp)
    72f4:	34420104 	ori	v0,v0,0x104
    72f8:	84c5000c 	lh	a1,12(a2)
    72fc:	02921821 	addu	v1,s4,s2
    7300:	94460000 	lhu	a2,0(v0)
    7304:	000520c0 	sll	a0,a1,0x3
    7308:	00852021 	addu	a0,a0,a1
    730c:	00031880 	sll	v1,v1,0x2
    7310:	27829010 	addiu	v0,gp,-28656
    7314:	27859008 	addiu	a1,gp,-28664
    7318:	00652821 	addu	a1,v1,a1
    731c:	00621821 	addu	v1,v1,v0
    7320:	80710005 	lb	s1,5(v1)
    7324:	80730004 	lb	s3,4(v1)
    7328:	8fa30088 	lw	v1,136(sp)
    732c:	30d0ffff 	andi	s0,a2,0xffff
    7330:	00103a03 	sra	a3,s0,0x8
    7334:	320800ff 	andi	t0,s0,0xff
    7338:	27829020 	addiu	v0,gp,-28640
    733c:	00042080 	sll	a0,a0,0x2
    7340:	80a60006 	lb	a2,6(a1)
    7344:	00822021 	addu	a0,a0,v0
    7348:	a4670044 	sh	a3,68(v1)
    734c:	a4680046 	sh	t0,70(v1)
    7350:	8c840000 	lw	a0,0(a0)
    7354:	38c60000 	xori	a2,a2,0x0
    7358:	01008021 	move	s0,t0
    735c:	00041502 	srl	v0,a0,0x14
    7360:	30420001 	andi	v0,v0,0x1
    7364:	10400003 	beqz	v0,0x7374
    7368:	00e6800a 	.word	0xe6800a
    736c:	00041402 	srl	v0,a0,0x10
    7370:	3050000f 	andi	s0,v0,0xf
    7374:	12200150 	beqz	s1,0x78b8
    7378:	02402021 	move	a0,s2
    737c:	02711021 	addu	v0,s3,s1
    7380:	0050102a 	slt	v0,v0,s0
    7384:	144000ed 	bnez	v0,0x773c
    7388:	02921021 	addu	v0,s4,s2
    738c:	93828b71 	lbu	v0,-29839(gp)
    7390:	00000000 	nop
    7394:	30420001 	andi	v0,v0,0x1
    7398:	144000e0 	bnez	v0,0x771c
    739c:	02922821 	addu	a1,s4,s2
    73a0:	26e20001 	addiu	v0,s7,1
    73a4:	3057ffff 	andi	s7,v0,0xffff
    73a8:	0240f021 	move	s8,s2
    73ac:	26b5ffff 	addiu	s5,s5,-1
    73b0:	16a0ffbd 	bnez	s5,0x72a8
    73b4:	02c09021 	move	s2,s6
    73b8:	16e000d0 	bnez	s7,0x76fc
    73bc:	00000000 	nop
    73c0:	8fa30098 	lw	v1,152(sp)
    73c4:	00000000 	nop
    73c8:	2c620010 	sltiu	v0,v1,16
    73cc:	1040002e 	beqz	v0,0x7488
    73d0:	00000000 	nop
    73d4:	8fa40024 	lw	a0,36(sp)
    73d8:	00000000 	nop
    73dc:	1880002a 	blez	a0,0x7488
    73e0:	24030001 	li	v1,1
    73e4:	8fa5001c 	lw	a1,28(sp)
    73e8:	27849004 	addiu	a0,gp,-28668
    73ec:	94b20014 	lhu	s2,20(a1)
    73f0:	a0a30012 	sb	v1,18(a1)
    73f4:	8fa6003c 	lw	a2,60(sp)
    73f8:	001210c0 	sll	v0,s2,0x3
    73fc:	00521021 	addu	v0,v0,s2
    7400:	00028080 	sll	s0,v0,0x2
    7404:	27829010 	addiu	v0,gp,-28656
    7408:	02021021 	addu	v0,s0,v0
    740c:	80430006 	lb	v1,6(v0)
    7410:	02042021 	addu	a0,s0,a0
    7414:	8c850018 	lw	a1,24(a0)
    7418:	24630002 	addiu	v1,v1,2
    741c:	000317c2 	srl	v0,v1,0x1f
    7420:	00621821 	addu	v1,v1,v0
    7424:	00031843 	sra	v1,v1,0x1
    7428:	00031840 	sll	v1,v1,0x1
    742c:	14c0000e 	bnez	a2,0x7468
    7430:	00a33821 	addu	a3,a1,v1
    7434:	27829000 	addiu	v0,gp,-28672
    7438:	02021021 	addu	v0,s0,v0
    743c:	94430006 	lhu	v1,6(v0)
    7440:	8fa8001c 	lw	t0,28(sp)
    7444:	24020001 	li	v0,1
    7448:	a503001a 	sh	v1,26(t0)
    744c:	7bbe043c 	.word	0x7bbe043c
    7450:	7bb603fc 	.word	0x7bb603fc
    7454:	7bb403bc 	.word	0x7bb403bc
    7458:	7bb2037c 	.word	0x7bb2037c
    745c:	7bb0033c 	.word	0x7bb0033c
    7460:	03e00008 	jr	ra
    7464:	27bd0088 	addiu	sp,sp,136
    7468:	8fa40098 	lw	a0,152(sp)
    746c:	8fa50038 	lw	a1,56(sp)
    7470:	8fa60034 	lw	a2,52(sp)
    7474:	afa00010 	sw	zero,16(sp)
    7478:	0c00090a 	jal	0x2428
    747c:	afa00014 	sw	zero,20(sp)
    7480:	08001d2d 	j	0x74b4
    7484:	00000000 	nop
    7488:	8fa30044 	lw	v1,68(sp)
    748c:	93828158 	lbu	v0,-32424(gp)
    7490:	00000000 	nop
    7494:	10400061 	beqz	v0,0x761c
    7498:	30690003 	andi	t1,v1,0x3
    749c:	8fa40024 	lw	a0,36(sp)
    74a0:	8fa50028 	lw	a1,40(sp)
    74a4:	00000000 	nop
    74a8:	0085102a 	slt	v0,a0,a1
    74ac:	1040008f 	beqz	v0,0x76ec
    74b0:	00000000 	nop
    74b4:	8fa6001c 	lw	a2,28(sp)
    74b8:	00000000 	nop
    74bc:	90c40004 	lbu	a0,4(a2)
    74c0:	00000000 	nop
    74c4:	308300ff 	andi	v1,a0,0xff
    74c8:	00a3102a 	slt	v0,a1,v1
    74cc:	10400087 	beqz	v0,0x76ec
    74d0:	00000000 	nop
    74d4:	8fa80024 	lw	t0,36(sp)
    74d8:	00000000 	nop
    74dc:	11000083 	beqz	t0,0x76ec
    74e0:	00651023 	subu	v0,v1,a1
    74e4:	00a81823 	subu	v1,a1,t0
    74e8:	0062102a 	slt	v0,v1,v0
    74ec:	1440007d 	bnez	v0,0x76e4
    74f0:	306300ff 	andi	v1,v1,0xff
    74f4:	00851023 	subu	v0,a0,a1
    74f8:	304200ff 	andi	v0,v0,0xff
    74fc:	afa20050 	sw	v0,80(sp)
    7500:	8fa20050 	lw	v0,80(sp)
    7504:	00000000 	nop
    7508:	10400073 	beqz	v0,0x76d8
    750c:	0000a821 	move	s5,zero
    7510:	278c9000 	addiu	t4,gp,-28672
    7514:	3c0b80ff 	lui	t3,0x80ff
    7518:	24100004 	li	s0,4
    751c:	27919004 	addiu	s1,gp,-28668
    7520:	356bffff 	ori	t3,t3,0xffff
    7524:	3c0d7f00 	lui	t5,0x7f00
    7528:	278e9010 	addiu	t6,gp,-28656
    752c:	01807821 	move	t7,t4
    7530:	001230c0 	sll	a2,s2,0x3
    7534:	00d21021 	addu	v0,a2,s2
    7538:	00021080 	sll	v0,v0,0x2
    753c:	004c1021 	addu	v0,v0,t4
    7540:	94420006 	lhu	v0,6(v0)
    7544:	8fa3002c 	lw	v1,44(sp)
    7548:	8fa40030 	lw	a0,48(sp)
    754c:	afa20044 	sw	v0,68(sp)
    7550:	8fa50044 	lw	a1,68(sp)
    7554:	30490003 	andi	t1,v0,0x3
    7558:	02091023 	subu	v0,s0,t1
    755c:	30420003 	andi	v0,v0,0x3
    7560:	00a21021 	addu	v0,a1,v0
    7564:	8fa80030 	lw	t0,48(sp)
    7568:	24420004 	addiu	v0,v0,4
    756c:	3042ffff 	andi	v0,v0,0xffff
    7570:	00643821 	addu	a3,v1,a0
    7574:	01022823 	subu	a1,t0,v0
    7578:	00621821 	addu	v1,v1,v0
    757c:	0048102b 	sltu	v0,v0,t0
    7580:	10400052 	beqz	v0,0x76cc
    7584:	00002021 	move	a0,zero
    7588:	30e7ffff 	andi	a3,a3,0xffff
    758c:	30a4ffff 	andi	a0,a1,0xffff
    7590:	afa7002c 	sw	a3,44(sp)
    7594:	00d21021 	addu	v0,a2,s2
    7598:	00021080 	sll	v0,v0,0x2
    759c:	00511821 	addu	v1,v0,s1
    75a0:	8c650018 	lw	a1,24(v1)
    75a4:	00042540 	sll	a0,a0,0x15
    75a8:	008d2024 	and	a0,a0,t5
    75ac:	8ca80004 	lw	t0,4(a1)
    75b0:	004e1821 	addu	v1,v0,t6
    75b4:	004f5021 	addu	t2,v0,t7
    75b8:	010b4024 	and	t0,t0,t3
    75bc:	01044025 	or	t0,t0,a0
    75c0:	aca80004 	sw	t0,4(a1)
    75c4:	8fa40098 	lw	a0,152(sp)
    75c8:	8fa20050 	lw	v0,80(sp)
    75cc:	26b50001 	addiu	s5,s5,1
    75d0:	a0640000 	sb	a0,0(v1)
    75d4:	8ca40008 	lw	a0,8(a1)
    75d8:	00000000 	nop
    75dc:	0481000c 	bgez	a0,0x7610
    75e0:	02a2302a 	slt	a2,s5,v0
    75e4:	80620006 	lb	v0,6(v1)
    75e8:	00000000 	nop
    75ec:	24420002 	addiu	v0,v0,2
    75f0:	00021fc2 	srl	v1,v0,0x1f
    75f4:	00431021 	addu	v0,v0,v1
    75f8:	00021043 	sra	v0,v0,0x1
    75fc:	00021040 	sll	v0,v0,0x1
    7600:	00a23821 	addu	a3,a1,v0
    7604:	8fa50040 	lw	a1,64(sp)
    7608:	00000000 	nop
    760c:	a4e50000 	sh	a1,0(a3)
    7610:	95520002 	lhu	s2,2(t2)
    7614:	14c0ffc7 	bnez	a2,0x7534
    7618:	001230c0 	sll	a2,s2,0x3
    761c:	8fa40024 	lw	a0,36(sp)
    7620:	8fa50050 	lw	a1,80(sp)
    7624:	8fa6001c 	lw	a2,28(sp)
    7628:	8fa3002c 	lw	v1,44(sp)
    762c:	00858021 	addu	s0,a0,a1
    7630:	a0d00012 	sb	s0,18(a2)
    7634:	00091023 	negu	v0,t1
    7638:	30420003 	andi	v0,v0,0x3
    763c:	8fa80088 	lw	t0,136(sp)
    7640:	00621023 	subu	v0,v1,v0
    7644:	a4c2001a 	sh	v0,26(a2)
    7648:	8503000c 	lh	v1,12(t0)
    764c:	00000000 	nop
    7650:	000310c0 	sll	v0,v1,0x3
    7654:	00431021 	addu	v0,v0,v1
    7658:	00021080 	sll	v0,v0,0x2
    765c:	27839004 	addiu	v1,gp,-28668
    7660:	00431021 	addu	v0,v0,v1
    7664:	8c440018 	lw	a0,24(v0)
    7668:	00000000 	nop
    766c:	8c830004 	lw	v1,4(a0)
    7670:	00000000 	nop
    7674:	30630010 	andi	v1,v1,0x10
    7678:	1460ff74 	bnez	v1,0x744c
    767c:	02001021 	move	v0,s0
    7680:	8fa30054 	lw	v1,84(sp)
    7684:	8fa40018 	lw	a0,24(sp)
    7688:	8fa50024 	lw	a1,36(sp)
    768c:	00641021 	addu	v0,v1,a0
    7690:	00021080 	sll	v0,v0,0x2
    7694:	27839018 	addiu	v1,gp,-28648
    7698:	00431021 	addu	v0,v0,v1
    769c:	90440000 	lbu	a0,0(v0)
    76a0:	10a00003 	beqz	a1,0x76b0
    76a4:	00003021 	move	a2,zero
    76a8:	08001d33 	j	0x74cc
    76ac:	02001021 	move	v0,s0
    76b0:	93828010 	lbu	v0,-32752(gp)
    76b4:	00002821 	move	a1,zero
    76b8:	00003821 	move	a3,zero
    76bc:	0c00219a 	jal	0x8668
    76c0:	afa20010 	sw	v0,16(sp)
    76c4:	08001d33 	j	0x74cc
    76c8:	02001021 	move	v0,s0
    76cc:	3063ffff 	andi	v1,v1,0xffff
    76d0:	08001d85 	j	0x7614
    76d4:	afa3002c 	sw	v1,44(sp)
    76d8:	8fa80044 	lw	t0,68(sp)
    76dc:	08001da7 	j	0x769c
    76e0:	31090003 	andi	t1,t0,0x3
    76e4:	08001d60 	j	0x7580
    76e8:	afa30050 	sw	v1,80(sp)
    76ec:	8fa60044 	lw	a2,68(sp)
    76f0:	afa00050 	sw	zero,80(sp)
    76f4:	08001da7 	j	0x769c
    76f8:	30c90003 	andi	t1,a2,0x3
    76fc:	8fa50048 	lw	a1,72(sp)
    7700:	8fa6004c 	lw	a2,76(sp)
    7704:	8fa4001c 	lw	a0,28(sp)
    7708:	03c03821 	move	a3,s8
    770c:	0c001bd8 	jal	0x6f60
    7710:	afb70010 	sw	s7,16(sp)
    7714:	08001d10 	j	0x7440
    7718:	00000000 	nop
    771c:	00052880 	sll	a1,a1,0x2
    7720:	27829000 	addiu	v0,gp,-28672
    7724:	00a22821 	addu	a1,a1,v0
    7728:	00002021 	move	a0,zero
    772c:	0c000149 	jal	0x524
    7730:	00000000 	nop
    7734:	08001d09 	j	0x7424
    7738:	26e20001 	addiu	v0,s7,1
    773c:	00028080 	sll	s0,v0,0x2
    7740:	27839010 	addiu	v1,gp,-28656
    7744:	8fa4001c 	lw	a0,28(sp)
    7748:	02031821 	addu	v1,s0,v1
    774c:	26310001 	addiu	s1,s1,1
    7750:	02402821 	move	a1,s2
    7754:	0c001eea 	jal	0x7ba8
    7758:	a0710005 	sb	s1,5(v1)
    775c:	1440ff13 	bnez	v0,0x73ac
    7760:	00000000 	nop
    7764:	16e0004d 	bnez	s7,0x789c
    7768:	03c03821 	move	a3,s8
    776c:	8fa40024 	lw	a0,36(sp)
    7770:	8fa50020 	lw	a1,32(sp)
    7774:	24020001 	li	v0,1
    7778:	24840001 	addiu	a0,a0,1
    777c:	afb20048 	sw	s2,72(sp)
    7780:	afb6004c 	sw	s6,76(sp)
    7784:	02c0f021 	move	s8,s6
    7788:	10a20041 	beq	a1,v0,0x7890
    778c:	afa40024 	sw	a0,36(sp)
    7790:	27829000 	addiu	v0,gp,-28672
    7794:	02021021 	addu	v0,s0,v0
    7798:	94420006 	lhu	v0,6(v0)
    779c:	8fa40030 	lw	a0,48(sp)
    77a0:	afa00020 	sw	zero,32(sp)
    77a4:	afa20044 	sw	v0,68(sp)
    77a8:	30490003 	andi	t1,v0,0x3
    77ac:	8fa80044 	lw	t0,68(sp)
    77b0:	00091023 	negu	v0,t1
    77b4:	30420003 	andi	v0,v0,0x3
    77b8:	01021021 	addu	v0,t0,v0
    77bc:	24420004 	addiu	v0,v0,4
    77c0:	3042ffff 	andi	v0,v0,0xffff
    77c4:	0044182b 	sltu	v1,v0,a0
    77c8:	1060002b 	beqz	v1,0x7878
    77cc:	00000000 	nop
    77d0:	8fa5002c 	lw	a1,44(sp)
    77d4:	00821023 	subu	v0,a0,v0
    77d8:	00a41821 	addu	v1,a1,a0
    77dc:	3063ffff 	andi	v1,v1,0xffff
    77e0:	3044ffff 	andi	a0,v0,0xffff
    77e4:	afa3002c 	sw	v1,44(sp)
    77e8:	02922821 	addu	a1,s4,s2
    77ec:	00052880 	sll	a1,a1,0x2
    77f0:	27829004 	addiu	v0,gp,-28668
    77f4:	00a21021 	addu	v0,a1,v0
    77f8:	8c460018 	lw	a2,24(v0)
    77fc:	3c0380ff 	lui	v1,0x80ff
    7800:	3c027f00 	lui	v0,0x7f00
    7804:	8cc80004 	lw	t0,4(a2)
    7808:	00042540 	sll	a0,a0,0x15
    780c:	3463ffff 	ori	v1,v1,0xffff
    7810:	00822024 	and	a0,a0,v0
    7814:	01034024 	and	t0,t0,v1
    7818:	01044025 	or	t0,t0,a0
    781c:	acc80004 	sw	t0,4(a2)
    7820:	8fa80098 	lw	t0,152(sp)
    7824:	27829010 	addiu	v0,gp,-28656
    7828:	00a21021 	addu	v0,a1,v0
    782c:	a0480000 	sb	t0,0(v0)
    7830:	8cc40008 	lw	a0,8(a2)
    7834:	00000000 	nop
    7838:	000427c2 	srl	a0,a0,0x1f
    783c:	1080fedb 	beqz	a0,0x73ac
    7840:	afa4003c 	sw	a0,60(sp)
    7844:	80420006 	lb	v0,6(v0)
    7848:	00000000 	nop
    784c:	24420002 	addiu	v0,v0,2
    7850:	00021fc2 	srl	v1,v0,0x1f
    7854:	00431021 	addu	v0,v0,v1
    7858:	00021043 	sra	v0,v0,0x1
    785c:	00021040 	sll	v0,v0,0x1
    7860:	00c23821 	addu	a3,a2,v0
    7864:	8fa20040 	lw	v0,64(sp)
    7868:	00000000 	nop
    786c:	a4e20000 	sh	v0,0(a3)
    7870:	08001d0c 	j	0x7430
    7874:	26b5ffff 	addiu	s5,s5,-1
    7878:	8fa6002c 	lw	a2,44(sp)
    787c:	00002021 	move	a0,zero
    7880:	00c21021 	addu	v0,a2,v0
    7884:	3042ffff 	andi	v0,v0,0xffff
    7888:	08001e1a 	j	0x7868
    788c:	afa2002c 	sw	v0,44(sp)
    7890:	8fa6001c 	lw	a2,28(sp)
    7894:	08001e04 	j	0x7810
    7898:	a4d20014 	sh	s2,20(a2)
    789c:	8fa50048 	lw	a1,72(sp)
    78a0:	8fa6004c 	lw	a2,76(sp)
    78a4:	8fa4001c 	lw	a0,28(sp)
    78a8:	0c001bd8 	jal	0x6f60
    78ac:	afb70010 	sw	s7,16(sp)
    78b0:	08001dfb 	j	0x77ec
    78b4:	0000b821 	move	s7,zero
    78b8:	0c00128b 	jal	0x4a2c
    78bc:	00002821 	move	a1,zero
    78c0:	00401821 	move	v1,v0
    78c4:	94420000 	lhu	v0,0(v0)
    78c8:	00000000 	nop
    78cc:	34420800 	ori	v0,v0,0x800
    78d0:	a4620000 	sh	v0,0(v1)
    78d4:	08001d00 	j	0x7400
    78d8:	02711021 	addu	v0,s3,s1
    78dc:	02921821 	addu	v1,s4,s2
    78e0:	00038080 	sll	s0,v1,0x2
    78e4:	27829004 	addiu	v0,gp,-28668
    78e8:	02021021 	addu	v0,s0,v0
    78ec:	8c440018 	lw	a0,24(v0)
    78f0:	00000000 	nop
    78f4:	8c830004 	lw	v1,4(a0)
    78f8:	00000000 	nop
    78fc:	30630010 	andi	v1,v1,0x10
    7900:	10600009 	beqz	v1,0x7928
    7904:	24060001 	li	a2,1
    7908:	93828b71 	lbu	v0,-29839(gp)
    790c:	00000000 	nop
    7910:	30420001 	andi	v0,v0,0x1
    7914:	1040fea2 	beqz	v0,0x73a0
    7918:	3c040080 	lui	a0,0x80
    791c:	27859000 	addiu	a1,gp,-28672
    7920:	08001deb 	j	0x77ac
    7924:	02052821 	addu	a1,s0,a1
    7928:	27839018 	addiu	v1,gp,-28648
    792c:	27829010 	addiu	v0,gp,-28656
    7930:	02031821 	addu	v1,s0,v1
    7934:	02021021 	addu	v0,s0,v0
    7938:	90640000 	lbu	a0,0(v1)
    793c:	90450005 	lbu	a1,5(v0)
    7940:	93838010 	lbu	v1,-32752(gp)
    7944:	00003821 	move	a3,zero
    7948:	0c00219a 	jal	0x8668
    794c:	afa30010 	sw	v1,16(sp)
    7950:	08001e62 	j	0x7988
    7954:	00000000 	nop
    7958:	27829018 	addiu	v0,gp,-28648
    795c:	02021021 	addu	v0,s0,v0
    7960:	94430002 	lhu	v1,2(v0)
    7964:	8fa60058 	lw	a2,88(sp)
    7968:	00031902 	srl	v1,v1,0x4
    796c:	00661823 	subu	v1,v1,a2
    7970:	30630fff 	andi	v1,v1,0xfff
    7974:	28620020 	slti	v0,v1,32
    7978:	10400006 	beqz	v0,0x7994
    797c:	28620040 	slti	v0,v1,64
    7980:	8fa80090 	lw	t0,144(sp)
    7984:	00000000 	nop
    7988:	00681006 	srlv	v0,t0,v1
    798c:	08001cd9 	j	0x7364
    7990:	30440001 	andi	a0,v0,0x1
    7994:	10400004 	beqz	v0,0x79a8
    7998:	00000000 	nop
    799c:	8fa40094 	lw	a0,148(sp)
    79a0:	08001e83 	j	0x7a0c
    79a4:	00641006 	srlv	v0,a0,v1
    79a8:	08001cd9 	j	0x7364
    79ac:	00002021 	move	a0,zero
    79b0:	8fa40098 	lw	a0,152(sp)
    79b4:	8fa50038 	lw	a1,56(sp)
    79b8:	afa00010 	sw	zero,16(sp)
    79bc:	0c00090a 	jal	0x2428
    79c0:	afa80014 	sw	t0,20(sp)
    79c4:	3042ffff 	andi	v0,v0,0xffff
    79c8:	08001ca9 	j	0x72a4
    79cc:	afa20040 	sw	v0,64(sp)
    79d0:	3c02b003 	lui	v0,0xb003
    79d4:	3c038000 	lui	v1,0x8000
    79d8:	27bdffe0 	addiu	sp,sp,-32
    79dc:	34420020 	ori	v0,v0,0x20
    79e0:	24637a50 	addiu	v1,v1,31312
    79e4:	afb10014 	sw	s1,20(sp)
    79e8:	afb00010 	sw	s0,16(sp)
    79ec:	afbf0018 	sw	ra,24(sp)
    79f0:	ac430000 	sw	v1,0(v0)
    79f4:	9082000a 	lbu	v0,10(a0)
    79f8:	00808021 	move	s0,a0
    79fc:	14400045 	bnez	v0,0x7b14
    7a00:	00008821 	move	s1,zero
    7a04:	92020004 	lbu	v0,4(s0)
    7a08:	00000000 	nop
    7a0c:	1440003c 	bnez	v0,0x7b00
    7a10:	00000000 	nop
    7a14:	12200018 	beqz	s1,0x7a78
    7a18:	00000000 	nop
    7a1c:	92020016 	lbu	v0,22(s0)
    7a20:	9205000a 	lbu	a1,10(s0)
    7a24:	304200fc 	andi	v0,v0,0xfc
    7a28:	10a00003 	beqz	a1,0x7a38
    7a2c:	a2020016 	sb	v0,22(s0)
    7a30:	34420001 	ori	v0,v0,0x1
    7a34:	a2020016 	sb	v0,22(s0)
    7a38:	92040004 	lbu	a0,4(s0)
    7a3c:	00000000 	nop
    7a40:	308300ff 	andi	v1,a0,0xff
    7a44:	10600005 	beqz	v1,0x7a5c
    7a48:	00000000 	nop
    7a4c:	92020016 	lbu	v0,22(s0)
    7a50:	00000000 	nop
    7a54:	34420002 	ori	v0,v0,0x2
    7a58:	a2020016 	sb	v0,22(s0)
    7a5c:	1060000a 	beqz	v1,0x7a88
    7a60:	00000000 	nop
    7a64:	14a00008 	bnez	a1,0x7a88
    7a68:	00000000 	nop
    7a6c:	96020000 	lhu	v0,0(s0)
    7a70:	a2000017 	sb	zero,23(s0)
    7a74:	a6020014 	sh	v0,20(s0)
    7a78:	8fbf0018 	lw	ra,24(sp)
    7a7c:	7bb000bc 	.word	0x7bb000bc
    7a80:	03e00008 	jr	ra
    7a84:	27bd0020 	addiu	sp,sp,32
    7a88:	14800005 	bnez	a0,0x7aa0
    7a8c:	24020001 	li	v0,1
    7a90:	96030006 	lhu	v1,6(s0)
    7a94:	a2020017 	sb	v0,23(s0)
    7a98:	08001ebe 	j	0x7af8
    7a9c:	a6030014 	sh	v1,20(s0)
    7aa0:	96040000 	lhu	a0,0(s0)
    7aa4:	96050006 	lhu	a1,6(s0)
    7aa8:	27869000 	addiu	a2,gp,-28672
    7aac:	000410c0 	sll	v0,a0,0x3
    7ab0:	000518c0 	sll	v1,a1,0x3
    7ab4:	00441021 	addu	v0,v0,a0
    7ab8:	00651821 	addu	v1,v1,a1
    7abc:	00021080 	sll	v0,v0,0x2
    7ac0:	00031880 	sll	v1,v1,0x2
    7ac4:	00661821 	addu	v1,v1,a2
    7ac8:	00461021 	addu	v0,v0,a2
    7acc:	8c650008 	lw	a1,8(v1)
    7ad0:	8c440008 	lw	a0,8(v0)
    7ad4:	0c00127c 	jal	0x49f0
    7ad8:	00000000 	nop
    7adc:	304300ff 	andi	v1,v0,0xff
    7ae0:	10600004 	beqz	v1,0x7af4
    7ae4:	a2020017 	sb	v0,23(s0)
    7ae8:	96020006 	lhu	v0,6(s0)
    7aec:	08001ebe 	j	0x7af8
    7af0:	a6020014 	sh	v0,20(s0)
    7af4:	96020000 	lhu	v0,0(s0)
    7af8:	08001ebe 	j	0x7af8
    7afc:	a6020014 	sh	v0,20(s0)
    7b00:	96050000 	lhu	a1,0(s0)
    7b04:	0c001eea 	jal	0x7ba8
    7b08:	02002021 	move	a0,s0
    7b0c:	08001ea5 	j	0x7a94
    7b10:	02228821 	addu	s1,s1,v0
    7b14:	94850006 	lhu	a1,6(a0)
    7b18:	0c001eea 	jal	0x7ba8
    7b1c:	00000000 	nop
    7b20:	08001ea1 	j	0x7a84
    7b24:	00408821 	move	s1,v0
    7b28:	3c03b003 	lui	v1,0xb003
    7b2c:	3c028000 	lui	v0,0x8000
    7b30:	34630020 	ori	v1,v1,0x20
    7b34:	24427ba8 	addiu	v0,v0,31656
    7b38:	27bdfff0 	addiu	sp,sp,-16
    7b3c:	ac620000 	sw	v0,0(v1)
    7b40:	00001021 	move	v0,zero
    7b44:	03e00008 	jr	ra
    7b48:	27bd0010 	addiu	sp,sp,16
    7b4c:	3c03b003 	lui	v1,0xb003
    7b50:	3c028000 	lui	v0,0x8000
    7b54:	34630020 	ori	v1,v1,0x20
    7b58:	24427bcc 	addiu	v0,v0,31692
    7b5c:	ac620000 	sw	v0,0(v1)
    7b60:	9089000a 	lbu	t1,10(a0)
    7b64:	00803021 	move	a2,a0
    7b68:	11200005 	beqz	t1,0x7b80
    7b6c:	00a05021 	move	t2,a1
    7b70:	90820017 	lbu	v0,23(a0)
    7b74:	00000000 	nop
    7b78:	1440001b 	bnez	v0,0x7be8
    7b7c:	00000000 	nop
    7b80:	90c70004 	lbu	a3,4(a2)
    7b84:	00000000 	nop
    7b88:	10e0001b 	beqz	a3,0x7bf8
    7b8c:	00000000 	nop
    7b90:	94c80000 	lhu	t0,0(a2)
    7b94:	27839000 	addiu	v1,gp,-28672
    7b98:	93858b70 	lbu	a1,-29840(gp)
    7b9c:	000810c0 	sll	v0,t0,0x3
    7ba0:	00481021 	addu	v0,v0,t0
    7ba4:	00021080 	sll	v0,v0,0x2
    7ba8:	00431021 	addu	v0,v0,v1
    7bac:	8c440008 	lw	a0,8(v0)
    7bb0:	00e5282b 	sltu	a1,a3,a1
    7bb4:	10a00006 	beqz	a1,0x7bd0
    7bb8:	01441823 	subu	v1,t2,a0
    7bbc:	8f828b88 	lw	v0,-29816(gp)
    7bc0:	00000000 	nop
    7bc4:	0043102b 	sltu	v0,v0,v1
    7bc8:	10400005 	beqz	v0,0x7be0
    7bcc:	00000000 	nop
    7bd0:	24030010 	li	v1,16
    7bd4:	a4c80014 	sh	t0,20(a2)
    7bd8:	03e00008 	jr	ra
    7bdc:	00601021 	move	v0,v1
    7be0:	11200005 	beqz	t1,0x7bf8
    7be4:	00000000 	nop
    7be8:	94c20006 	lhu	v0,6(a2)
    7bec:	24030008 	li	v1,8
    7bf0:	08001f16 	j	0x7c58
    7bf4:	a4c20014 	sh	v0,20(a2)
    7bf8:	08001f16 	j	0x7c58
    7bfc:	00001821 	move	v1,zero
    7c00:	27bdffc8 	addiu	sp,sp,-56
    7c04:	afb5002c 	sw	s5,44(sp)
    7c08:	afb40028 	sw	s4,40(sp)
    7c0c:	afb30024 	sw	s3,36(sp)
    7c10:	afb00018 	sw	s0,24(sp)
    7c14:	afbf0030 	sw	ra,48(sp)
    7c18:	afb20020 	sw	s2,32(sp)
    7c1c:	afb1001c 	sw	s1,28(sp)
    7c20:	94910006 	lhu	s1,6(a0)
    7c24:	0080a021 	move	s4,a0
    7c28:	3c028000 	lui	v0,0x8000
    7c2c:	3c04b003 	lui	a0,0xb003
    7c30:	0011a8c0 	sll	s5,s1,0x3
    7c34:	34840020 	ori	a0,a0,0x20
    7c38:	24427c80 	addiu	v0,v0,31872
    7c3c:	02b14821 	addu	t1,s5,s1
    7c40:	ac820000 	sw	v0,0(a0)
    7c44:	00094880 	sll	t1,t1,0x2
    7c48:	24030001 	li	v1,1
    7c4c:	27829010 	addiu	v0,gp,-28656
    7c50:	a2830012 	sb	v1,18(s4)
    7c54:	01221021 	addu	v0,t1,v0
    7c58:	27849004 	addiu	a0,gp,-28668
    7c5c:	01242021 	addu	a0,t1,a0
    7c60:	80480006 	lb	t0,6(v0)
    7c64:	8c8a0018 	lw	t2,24(a0)
    7c68:	27839020 	addiu	v1,gp,-28640
    7c6c:	01234821 	addu	t1,t1,v1
    7c70:	8d240000 	lw	a0,0(t1)
    7c74:	25080002 	addiu	t0,t0,2
    7c78:	8d420000 	lw	v0,0(t2)
    7c7c:	8d490004 	lw	t1,4(t2)
    7c80:	000817c2 	srl	v0,t0,0x1f
    7c84:	8d430008 	lw	v1,8(t2)
    7c88:	01024021 	addu	t0,t0,v0
    7c8c:	000425c2 	srl	a0,a0,0x17
    7c90:	00084043 	sra	t0,t0,0x1
    7c94:	30840001 	andi	a0,a0,0x1
    7c98:	00031fc2 	srl	v1,v1,0x1f
    7c9c:	00084040 	sll	t0,t0,0x1
    7ca0:	00e08021 	move	s0,a3
    7ca4:	00641824 	and	v1,v1,a0
    7ca8:	00094942 	srl	t1,t1,0x5
    7cac:	01481021 	addu	v0,t2,t0
    7cb0:	00a09821 	move	s3,a1
    7cb4:	00a02021 	move	a0,a1
    7cb8:	00403821 	move	a3,v0
    7cbc:	02002821 	move	a1,s0
    7cc0:	14600019 	bnez	v1,0x7d28
    7cc4:	31290001 	andi	t1,t1,0x1
    7cc8:	94420000 	lhu	v0,0(v0)
    7ccc:	02b18821 	addu	s1,s5,s1
    7cd0:	02002821 	move	a1,s0
    7cd4:	00118880 	sll	s1,s1,0x2
    7cd8:	27909000 	addiu	s0,gp,-28672
    7cdc:	02308021 	addu	s0,s1,s0
    7ce0:	96030006 	lhu	v1,6(s0)
    7ce4:	3052ffff 	andi	s2,v0,0xffff
    7ce8:	02602021 	move	a0,s3
    7cec:	00603021 	move	a2,v1
    7cf0:	a683001a 	sh	v1,26(s4)
    7cf4:	27829008 	addiu	v0,gp,-28664
    7cf8:	0c0008e3 	jal	0x238c
    7cfc:	02228821 	addu	s1,s1,v0
    7d00:	00521021 	addu	v0,v0,s2
    7d04:	96030006 	lhu	v1,6(s0)
    7d08:	a6220004 	sh	v0,4(s1)
    7d0c:	8fbf0030 	lw	ra,48(sp)
    7d10:	7bb4017c 	.word	0x7bb4017c
    7d14:	7bb2013c 	.word	0x7bb2013c
    7d18:	7bb000fc 	.word	0x7bb000fc
    7d1c:	00601021 	move	v0,v1
    7d20:	03e00008 	jr	ra
    7d24:	27bd0038 	addiu	sp,sp,56
    7d28:	afa90010 	sw	t1,16(sp)
    7d2c:	0c00090a 	jal	0x2428
    7d30:	afa00014 	sw	zero,20(sp)
    7d34:	08001f54 	j	0x7d50
    7d38:	02b18821 	addu	s1,s5,s1
    7d3c:	27bdffc0 	addiu	sp,sp,-64
    7d40:	afbe0038 	sw	s8,56(sp)
    7d44:	afb70034 	sw	s7,52(sp)
    7d48:	afb60030 	sw	s6,48(sp)
    7d4c:	afb5002c 	sw	s5,44(sp)
    7d50:	afb30024 	sw	s3,36(sp)
    7d54:	afb1001c 	sw	s1,28(sp)
    7d58:	afbf003c 	sw	ra,60(sp)
    7d5c:	afb40028 	sw	s4,40(sp)
    7d60:	afb20020 	sw	s2,32(sp)
    7d64:	afb00018 	sw	s0,24(sp)
    7d68:	94900000 	lhu	s0,0(a0)
    7d6c:	3c08b003 	lui	t0,0xb003
    7d70:	35080020 	ori	t0,t0,0x20
    7d74:	001010c0 	sll	v0,s0,0x3
    7d78:	00501821 	addu	v1,v0,s0
    7d7c:	00408821 	move	s1,v0
    7d80:	3c028000 	lui	v0,0x8000
    7d84:	00034880 	sll	t1,v1,0x2
    7d88:	24427dbc 	addiu	v0,v0,32188
    7d8c:	00809821 	move	s3,a0
    7d90:	27849010 	addiu	a0,gp,-28656
    7d94:	01242021 	addu	a0,t1,a0
    7d98:	93b70053 	lbu	s7,83(sp)
    7d9c:	ad020000 	sw	v0,0(t0)
    7da0:	80830006 	lb	v1,6(a0)
    7da4:	27829004 	addiu	v0,gp,-28668
    7da8:	01221021 	addu	v0,t1,v0
    7dac:	8c440018 	lw	a0,24(v0)
    7db0:	24630002 	addiu	v1,v1,2
    7db4:	000317c2 	srl	v0,v1,0x1f
    7db8:	8c880008 	lw	t0,8(a0)
    7dbc:	00621821 	addu	v1,v1,v0
    7dc0:	00031843 	sra	v1,v1,0x1
    7dc4:	00031840 	sll	v1,v1,0x1
    7dc8:	afa7004c 	sw	a3,76(sp)
    7dcc:	2ca20010 	sltiu	v0,a1,16
    7dd0:	00a0a821 	move	s5,a1
    7dd4:	00835021 	addu	t2,a0,v1
    7dd8:	000847c2 	srl	t0,t0,0x1f
    7ddc:	00c05821 	move	t3,a2
    7de0:	0000b021 	move	s6,zero
    7de4:	8c92000c 	lw	s2,12(a0)
    7de8:	14400013 	bnez	v0,0x7e38
    7dec:	0000f021 	move	s8,zero
    7df0:	92670004 	lbu	a3,4(s3)
    7df4:	24140001 	li	s4,1
    7df8:	12870010 	beq	s4,a3,0x7e3c
    7dfc:	02301021 	addu	v0,s1,s0
    7e00:	27839018 	addiu	v1,gp,-28648
    7e04:	01231821 	addu	v1,t1,v1
    7e08:	80640000 	lb	a0,0(v1)
    7e0c:	2783b570 	addiu	v1,gp,-19088
    7e10:	00041100 	sll	v0,a0,0x4
    7e14:	00441023 	subu	v0,v0,a0
    7e18:	00021080 	sll	v0,v0,0x2
    7e1c:	00441023 	subu	v0,v0,a0
    7e20:	00021080 	sll	v0,v0,0x2
    7e24:	00431021 	addu	v0,v0,v1
    7e28:	90440004 	lbu	a0,4(v0)
    7e2c:	00000000 	nop
    7e30:	10800023 	beqz	a0,0x7ec0
    7e34:	00000000 	nop
    7e38:	02301021 	addu	v0,s1,s0
    7e3c:	00028080 	sll	s0,v0,0x2
    7e40:	24040001 	li	a0,1
    7e44:	27839020 	addiu	v1,gp,-28640
    7e48:	a2640012 	sb	a0,18(s3)
    7e4c:	02031821 	addu	v1,s0,v1
    7e50:	8c620000 	lw	v0,0(v1)
    7e54:	00000000 	nop
    7e58:	000215c2 	srl	v0,v0,0x17
    7e5c:	30420001 	andi	v0,v0,0x1
    7e60:	01021024 	and	v0,t0,v0
    7e64:	1440000e 	bnez	v0,0x7ea0
    7e68:	02a02021 	move	a0,s5
    7e6c:	27829000 	addiu	v0,gp,-28672
    7e70:	02021021 	addu	v0,s0,v0
    7e74:	94430006 	lhu	v1,6(v0)
    7e78:	00000000 	nop
    7e7c:	a663001a 	sh	v1,26(s3)
    7e80:	94420006 	lhu	v0,6(v0)
    7e84:	7bbe01fc 	.word	0x7bbe01fc
    7e88:	7bb601bc 	.word	0x7bb601bc
    7e8c:	7bb4017c 	.word	0x7bb4017c
    7e90:	7bb2013c 	.word	0x7bb2013c
    7e94:	7bb000fc 	.word	0x7bb000fc
    7e98:	03e00008 	jr	ra
    7e9c:	27bd0040 	addiu	sp,sp,64
    7ea0:	8fa5004c 	lw	a1,76(sp)
    7ea4:	01603021 	move	a2,t3
    7ea8:	01403821 	move	a3,t2
    7eac:	afa00010 	sw	zero,16(sp)
    7eb0:	0c00090a 	jal	0x2428
    7eb4:	afa00014 	sw	zero,20(sp)
    7eb8:	08001fbb 	j	0x7eec
    7ebc:	00000000 	nop
    7ec0:	27839020 	addiu	v1,gp,-28640
    7ec4:	01231821 	addu	v1,t1,v1
    7ec8:	8c620000 	lw	v0,0(v1)
    7ecc:	00000000 	nop
    7ed0:	000215c2 	srl	v0,v0,0x17
    7ed4:	30420001 	andi	v0,v0,0x1
    7ed8:	01021024 	and	v0,t0,v0
    7edc:	144000af 	bnez	v0,0x819c
    7ee0:	00a02021 	move	a0,a1
    7ee4:	324f0003 	andi	t7,s2,0x3
    7ee8:	00121082 	srl	v0,s2,0x2
    7eec:	25e3000d 	addiu	v1,t7,13
    7ef0:	30450007 	andi	a1,v0,0x7
    7ef4:	00747804 	sllv	t7,s4,v1
    7ef8:	10a0000e 	beqz	a1,0x7f34
    7efc:	00009021 	move	s2,zero
    7f00:	2782801c 	addiu	v0,gp,-32740
    7f04:	00151840 	sll	v1,s5,0x1
    7f08:	00621821 	addu	v1,v1,v0
    7f0c:	94640000 	lhu	a0,0(v1)
    7f10:	24a20006 	addiu	v0,a1,6
    7f14:	00541004 	sllv	v0,s4,v0
    7f18:	0044001a 	div	zero,v0,a0
    7f1c:	14800002 	bnez	a0,0x7f28
    7f20:	00000000 	nop
    7f24:	0007000d 	break	0x7
    7f28:	00001012 	mflo	v0
    7f2c:	24420020 	addiu	v0,v0,32
    7f30:	3052fffc 	andi	s2,v0,0xfffc
    7f34:	02301021 	addu	v0,s1,s0
    7f38:	27839010 	addiu	v1,gp,-28656
    7f3c:	00021080 	sll	v0,v0,0x2
    7f40:	00431021 	addu	v0,v0,v1
    7f44:	90440003 	lbu	a0,3(v0)
    7f48:	00000000 	nop
    7f4c:	308300ff 	andi	v1,a0,0xff
    7f50:	2c62000c 	sltiu	v0,v1,12
    7f54:	14400004 	bnez	v0,0x7f68
    7f58:	2c620019 	sltiu	v0,v1,25
    7f5c:	3082000f 	andi	v0,a0,0xf
    7f60:	2443000c 	addiu	v1,v0,12
    7f64:	2c620019 	sltiu	v0,v1,25
    7f68:	10400019 	beqz	v0,0x7fd0
    7f6c:	240e0020 	li	t6,32
    7f70:	2462ffe9 	addiu	v0,v1,-23
    7f74:	2c420002 	sltiu	v0,v0,2
    7f78:	14400015 	bnez	v0,0x7fd0
    7f7c:	240e0010 	li	t6,16
    7f80:	2462ffeb 	addiu	v0,v1,-21
    7f84:	2c420002 	sltiu	v0,v0,2
    7f88:	14400011 	bnez	v0,0x7fd0
    7f8c:	240e0008 	li	t6,8
    7f90:	24020014 	li	v0,20
    7f94:	1062000e 	beq	v1,v0,0x7fd0
    7f98:	240e0002 	li	t6,2
    7f9c:	2462ffef 	addiu	v0,v1,-17
    7fa0:	2c420003 	sltiu	v0,v0,3
    7fa4:	1440000a 	bnez	v0,0x7fd0
    7fa8:	240e0010 	li	t6,16
    7fac:	2462fff1 	addiu	v0,v1,-15
    7fb0:	2c420002 	sltiu	v0,v0,2
    7fb4:	14400006 	bnez	v0,0x7fd0
    7fb8:	240e0008 	li	t6,8
    7fbc:	2462fff3 	addiu	v0,v1,-13
    7fc0:	2c420002 	sltiu	v0,v0,2
    7fc4:	240e0004 	li	t6,4
    7fc8:	24030002 	li	v1,2
    7fcc:	0062700a 	.word	0x62700a
    7fd0:	30e200ff 	andi	v0,a3,0xff
    7fd4:	00004821 	move	t1,zero
    7fd8:	00006821 	move	t5,zero
    7fdc:	1040006d 	beqz	v0,0x8194
    7fe0:	00005821 	move	t3,zero
    7fe4:	3c1480ff 	lui	s4,0x80ff
    7fe8:	27999000 	addiu	t9,gp,-28672
    7fec:	01f2c023 	subu	t8,t7,s2
    7ff0:	3694ffff 	ori	s4,s4,0xffff
    7ff4:	01c9102a 	slt	v0,t6,t1
    7ff8:	14400064 	bnez	v0,0x818c
    7ffc:	24030004 	li	v1,4
    8000:	001028c0 	sll	a1,s0,0x3
    8004:	00b01021 	addu	v0,a1,s0
    8008:	00021080 	sll	v0,v0,0x2
    800c:	00591021 	addu	v0,v0,t9
    8010:	94560006 	lhu	s6,6(v0)
    8014:	00000000 	nop
    8018:	32cc0003 	andi	t4,s6,0x3
    801c:	006c1023 	subu	v0,v1,t4
    8020:	30420003 	andi	v0,v0,0x3
    8024:	02c21021 	addu	v0,s6,v0
    8028:	24420004 	addiu	v0,v0,4
    802c:	3051ffff 	andi	s1,v0,0xffff
    8030:	0232182b 	sltu	v1,s1,s2
    8034:	1060004d 	beqz	v1,0x816c
    8038:	01f11023 	subu	v0,t7,s1
    803c:	02511023 	subu	v0,s2,s1
    8040:	0178182b 	sltu	v1,t3,t8
    8044:	10600034 	beqz	v1,0x8118
    8048:	3044ffff 	andi	a0,v0,0xffff
    804c:	29220040 	slti	v0,t1,64
    8050:	10400031 	beqz	v0,0x8118
    8054:	01721821 	addu	v1,t3,s2
    8058:	25220001 	addiu	v0,t1,1
    805c:	00021600 	sll	v0,v0,0x18
    8060:	00024e03 	sra	t1,v0,0x18
    8064:	00b01021 	addu	v0,a1,s0
    8068:	00023080 	sll	a2,v0,0x2
    806c:	27829004 	addiu	v0,gp,-28668
    8070:	306bffff 	andi	t3,v1,0xffff
    8074:	00c21821 	addu	v1,a2,v0
    8078:	8c670018 	lw	a3,24(v1)
    807c:	00042540 	sll	a0,a0,0x15
    8080:	3c037f00 	lui	v1,0x7f00
    8084:	8ce20004 	lw	v0,4(a3)
    8088:	00832024 	and	a0,a0,v1
    808c:	27839010 	addiu	v1,gp,-28656
    8090:	00541024 	and	v0,v0,s4
    8094:	00c32821 	addu	a1,a2,v1
    8098:	00441025 	or	v0,v0,a0
    809c:	ace20004 	sw	v0,4(a3)
    80a0:	16e00002 	bnez	s7,0x80ac
    80a4:	a0b50000 	sb	s5,0(a1)
    80a8:	a0b50003 	sb	s5,3(a1)
    80ac:	27849020 	addiu	a0,gp,-28640
    80b0:	00c41821 	addu	v1,a2,a0
    80b4:	8c620000 	lw	v0,0(v1)
    80b8:	8ce80008 	lw	t0,8(a3)
    80bc:	000215c2 	srl	v0,v0,0x17
    80c0:	000847c2 	srl	t0,t0,0x1f
    80c4:	30420001 	andi	v0,v0,0x1
    80c8:	01021024 	and	v0,t0,v0
    80cc:	1040000a 	beqz	v0,0x80f8
    80d0:	00000000 	nop
    80d4:	80a20006 	lb	v0,6(a1)
    80d8:	00000000 	nop
    80dc:	24420002 	addiu	v0,v0,2
    80e0:	00021fc2 	srl	v1,v0,0x1f
    80e4:	00431021 	addu	v0,v0,v1
    80e8:	00021043 	sra	v0,v0,0x1
    80ec:	00021040 	sll	v0,v0,0x1
    80f0:	00e25021 	addu	t2,a3,v0
    80f4:	a55e0000 	sh	s8,0(t2)
    80f8:	92620004 	lbu	v0,4(s3)
    80fc:	25ad0001 	addiu	t5,t5,1
    8100:	27849000 	addiu	a0,gp,-28672
    8104:	00c41821 	addu	v1,a2,a0
    8108:	01a2102a 	slt	v0,t5,v0
    810c:	94700002 	lhu	s0,2(v1)
    8110:	1440ffb8 	bnez	v0,0x7ff4
    8114:	00000000 	nop
    8118:	96630014 	lhu	v1,20(s3)
    811c:	000c1023 	negu	v0,t4
    8120:	a2690012 	sb	t1,18(s3)
    8124:	30420003 	andi	v0,v0,0x3
    8128:	01621023 	subu	v0,t3,v0
    812c:	000380c0 	sll	s0,v1,0x3
    8130:	8fa5004c 	lw	a1,76(sp)
    8134:	304bffff 	andi	t3,v0,0xffff
    8138:	02038021 	addu	s0,s0,v1
    813c:	27829008 	addiu	v0,gp,-28664
    8140:	00108080 	sll	s0,s0,0x2
    8144:	a66b001a 	sh	t3,26(s3)
    8148:	02a02021 	move	a0,s5
    814c:	01603021 	move	a2,t3
    8150:	01608821 	move	s1,t3
    8154:	0c0008e3 	jal	0x238c
    8158:	02028021 	addu	s0,s0,v0
    815c:	005e1021 	addu	v0,v0,s8
    8160:	a6020004 	sh	v0,4(s0)
    8164:	08001fc1 	j	0x7f04
    8168:	02201021 	move	v0,s1
    816c:	0162102b 	sltu	v0,t3,v0
    8170:	1040ffe9 	beqz	v0,0x8118
    8174:	00002021 	move	a0,zero
    8178:	29220040 	slti	v0,t1,64
    817c:	1040ffe6 	beqz	v0,0x8118
    8180:	01711821 	addu	v1,t3,s1
    8184:	08002037 	j	0x80dc
    8188:	25220001 	addiu	v0,t1,1
    818c:	08002066 	j	0x8198
    8190:	32cc0003 	andi	t4,s6,0x3
    8194:	08002066 	j	0x8198
    8198:	00006021 	move	t4,zero
    819c:	8fa5004c 	lw	a1,76(sp)
    81a0:	01403821 	move	a3,t2
    81a4:	afa00010 	sw	zero,16(sp)
    81a8:	0c00090a 	jal	0x2428
    81ac:	afb40014 	sw	s4,20(sp)
    81b0:	92670004 	lbu	a3,4(s3)
    81b4:	08001fd9 	j	0x7f64
    81b8:	305effff 	andi	s8,v0,0xffff
    81bc:	3084ffff 	andi	a0,a0,0xffff
    81c0:	000430c0 	sll	a2,a0,0x3
    81c4:	00c42021 	addu	a0,a2,a0
    81c8:	00042080 	sll	a0,a0,0x2
    81cc:	27829000 	addiu	v0,gp,-28672
    81d0:	3c03b008 	lui	v1,0xb008
    81d4:	30a5ffff 	andi	a1,a1,0xffff
    81d8:	00822021 	addu	a0,a0,v0
    81dc:	00c33021 	addu	a2,a2,v1
    81e0:	acc50000 	sw	a1,0(a2)
    81e4:	03e00008 	jr	ra
    81e8:	a4850000 	sh	a1,0(a0)
    81ec:	3084ffff 	andi	a0,a0,0xffff
    81f0:	000430c0 	sll	a2,a0,0x3
    81f4:	00c43021 	addu	a2,a2,a0
    81f8:	27889000 	addiu	t0,gp,-28672
    81fc:	00063080 	sll	a2,a2,0x2
    8200:	00c83021 	addu	a2,a2,t0
    8204:	94c30004 	lhu	v1,4(a2)
    8208:	3c02b008 	lui	v0,0xb008
    820c:	3c07b003 	lui	a3,0xb003
    8210:	000320c0 	sll	a0,v1,0x3
    8214:	00831821 	addu	v1,a0,v1
    8218:	00031880 	sll	v1,v1,0x2
    821c:	00822021 	addu	a0,a0,v0
    8220:	3c028001 	lui	v0,0x8001
    8224:	30a5ffff 	andi	a1,a1,0xffff
    8228:	00681821 	addu	v1,v1,t0
    822c:	34e70020 	ori	a3,a3,0x20
    8230:	2442826c 	addiu	v0,v0,-32148
    8234:	ace20000 	sw	v0,0(a3)
    8238:	a4c50002 	sh	a1,2(a2)
    823c:	a4650000 	sh	a1,0(v1)
    8240:	03e00008 	jr	ra
    8244:	ac850000 	sw	a1,0(a0)
    8248:	3084ffff 	andi	a0,a0,0xffff
    824c:	000410c0 	sll	v0,a0,0x3
    8250:	00441021 	addu	v0,v0,a0
    8254:	27899000 	addiu	t1,gp,-28672
    8258:	00021080 	sll	v0,v0,0x2
    825c:	00491021 	addu	v0,v0,t1
    8260:	97838ff0 	lhu	v1,-28688(gp)
    8264:	944a0004 	lhu	t2,4(v0)
    8268:	3c02b008 	lui	v0,0xb008
    826c:	000338c0 	sll	a3,v1,0x3
    8270:	000a40c0 	sll	t0,t2,0x3
    8274:	00e31821 	addu	v1,a3,v1
    8278:	010a2821 	addu	a1,t0,t2
    827c:	00e23821 	addu	a3,a3,v0
    8280:	01024021 	addu	t0,t0,v0
    8284:	00031880 	sll	v1,v1,0x2
    8288:	00052880 	sll	a1,a1,0x2
    828c:	3c06b003 	lui	a2,0xb003
    8290:	3c028001 	lui	v0,0x8001
    8294:	00a92821 	addu	a1,a1,t1
    8298:	00691821 	addu	v1,v1,t1
    829c:	34c60020 	ori	a2,a2,0x20
    82a0:	3409ffff 	li	t1,0xffff
    82a4:	244282c8 	addiu	v0,v0,-32056
    82a8:	acc20000 	sw	v0,0(a2)
    82ac:	a4640000 	sh	a0,0(v1)
    82b0:	ace40000 	sw	a0,0(a3)
    82b4:	a4a90000 	sh	t1,0(a1)
    82b8:	ad090000 	sw	t1,0(t0)
    82bc:	a78a8ff0 	sh	t2,-28688(gp)
    82c0:	03e00008 	jr	ra
    82c4:	00000000 	nop
    82c8:	3c03b003 	lui	v1,0xb003
    82cc:	3c028001 	lui	v0,0x8001
    82d0:	34630020 	ori	v1,v1,0x20
    82d4:	24428348 	addiu	v0,v0,-31928
    82d8:	3c04b003 	lui	a0,0xb003
    82dc:	ac620000 	sw	v0,0(v1)
    82e0:	34840110 	ori	a0,a0,0x110
    82e4:	8c820000 	lw	v0,0(a0)
    82e8:	97838160 	lhu	v1,-32416(gp)
    82ec:	3042ffff 	andi	v0,v0,0xffff
    82f0:	10620016 	beq	v1,v0,0x834c
    82f4:	240a0001 	li	t2,1
    82f8:	a7828160 	sh	v0,-32416(gp)
    82fc:	af80b450 	sw	zero,-19376(gp)
    8300:	00402821 	move	a1,v0
    8304:	24060001 	li	a2,1
    8308:	2784b454 	addiu	a0,gp,-19372
    830c:	2543ffff 	addiu	v1,t2,-1
    8310:	00661004 	sllv	v0,a2,v1
    8314:	00a21024 	and	v0,a1,v0
    8318:	14400007 	bnez	v0,0x8338
    831c:	00000000 	nop
    8320:	8c83fffc 	lw	v1,-4(a0)
    8324:	00000000 	nop
    8328:	00661004 	sllv	v0,a2,v1
    832c:	00a21024 	and	v0,a1,v0
    8330:	38420000 	xori	v0,v0,0x0
    8334:	0142180a 	.word	0x142180a
    8338:	254a0001 	addiu	t2,t2,1
    833c:	2d420014 	sltiu	v0,t2,20
    8340:	ac830000 	sw	v1,0(a0)
    8344:	1440fff1 	bnez	v0,0x830c
    8348:	24840004 	addiu	a0,a0,4
    834c:	3c0bb003 	lui	t3,0xb003
    8350:	00005021 	move	t2,zero
    8354:	3c0c8000 	lui	t4,0x8000
    8358:	2789b4a0 	addiu	t1,gp,-19296
    835c:	356b0120 	ori	t3,t3,0x120
    8360:	8d680000 	lw	t0,0(t3)
    8364:	8d230004 	lw	v1,4(t1)
    8368:	010c1024 	and	v0,t0,t4
    836c:	000217c2 	srl	v0,v0,0x1f
    8370:	11030037 	beq	t0,v1,0x8450
    8374:	a12200dc 	sb	v0,220(t1)
    8378:	a12000d5 	sb	zero,213(t1)
    837c:	a12000d6 	sb	zero,214(t1)
    8380:	01203021 	move	a2,t1
    8384:	00003821 	move	a3,zero
    8388:	00002821 	move	a1,zero
    838c:	01202021 	move	a0,t1
    8390:	00a81006 	srlv	v0,t0,a1
    8394:	30420001 	andi	v0,v0,0x1
    8398:	10e00010 	beqz	a3,0x83dc
    839c:	a082000a 	sb	v0,10(a0)
    83a0:	90820007 	lbu	v0,7(a0)
    83a4:	00000000 	nop
    83a8:	10400031 	beqz	v0,0x8470
    83ac:	24a2ffff 	addiu	v0,a1,-1
    83b0:	a0820008 	sb	v0,8(a0)
    83b4:	9082000a 	lbu	v0,10(a0)
    83b8:	00000000 	nop
    83bc:	10400009 	beqz	v0,0x83e4
    83c0:	00000000 	nop
    83c4:	90830008 	lbu	v1,8(a0)
    83c8:	00000000 	nop
    83cc:	00031040 	sll	v0,v1,0x1
    83d0:	00431021 	addu	v0,v0,v1
    83d4:	00461021 	addu	v0,v0,a2
    83d8:	a0450009 	sb	a1,9(v0)
    83dc:	9082000a 	lbu	v0,10(a0)
    83e0:	00000000 	nop
    83e4:	10400007 	beqz	v0,0x8404
    83e8:	00000000 	nop
    83ec:	14e00004 	bnez	a3,0x8400
    83f0:	00000000 	nop
    83f4:	a0c500d5 	sb	a1,213(a2)
    83f8:	24070001 	li	a3,1
    83fc:	a0850008 	sb	a1,8(a0)
    8400:	a0c500d6 	sb	a1,214(a2)
    8404:	24a50001 	addiu	a1,a1,1
    8408:	2ca2001c 	sltiu	v0,a1,28
    840c:	1440ffe0 	bnez	v0,0x8390
    8410:	24840003 	addiu	a0,a0,3
    8414:	90c400d5 	lbu	a0,213(a2)
    8418:	00002821 	move	a1,zero
    841c:	00a4102b 	sltu	v0,a1,a0
    8420:	1040000b 	beqz	v0,0x8450
    8424:	00000000 	nop
    8428:	00c01821 	move	v1,a2
    842c:	a0640008 	sb	a0,8(v1)
    8430:	90c200d5 	lbu	v0,213(a2)
    8434:	24a50001 	addiu	a1,a1,1
    8438:	a0620009 	sb	v0,9(v1)
    843c:	90c400d5 	lbu	a0,213(a2)
    8440:	00000000 	nop
    8444:	00a4102b 	sltu	v0,a1,a0
    8448:	1440fff8 	bnez	v0,0x842c
    844c:	24630003 	addiu	v1,v1,3
    8450:	254a0001 	addiu	t2,t2,1
    8454:	2d420008 	sltiu	v0,t2,8
    8458:	ad280004 	sw	t0,4(t1)
    845c:	256b0004 	addiu	t3,t3,4
    8460:	1440ffbf 	bnez	v0,0x8360
    8464:	252900ec 	addiu	t1,t1,236
    8468:	03e00008 	jr	ra
    846c:	00000000 	nop
    8470:	90820005 	lbu	v0,5(a0)
    8474:	0800210d 	j	0x8434
    8478:	a0820008 	sb	v0,8(a0)
    847c:	97858b7a 	lhu	a1,-29830(gp)
    8480:	3c03b003 	lui	v1,0xb003
    8484:	3c028001 	lui	v0,0x8001
    8488:	27bdffe8 	addiu	sp,sp,-24
    848c:	34630020 	ori	v1,v1,0x20
    8490:	244284fc 	addiu	v0,v0,-31492
    8494:	afb00010 	sw	s0,16(sp)
    8498:	afbf0014 	sw	ra,20(sp)
    849c:	ac620000 	sw	v0,0(v1)
    84a0:	309000ff 	andi	s0,a0,0xff
    84a4:	00052842 	srl	a1,a1,0x1
    84a8:	00004821 	move	t1,zero
    84ac:	278fb4a4 	addiu	t7,gp,-19292
    84b0:	00005021 	move	t2,zero
    84b4:	00005821 	move	t3,zero
    84b8:	2798b584 	addiu	t8,gp,-19068
    84bc:	2799b580 	addiu	t9,gp,-19072
    84c0:	278eb57e 	addiu	t6,gp,-19074
    84c4:	278cb4a8 	addiu	t4,gp,-19288
    84c8:	278db500 	addiu	t5,gp,-19200
    84cc:	2788b578 	addiu	t0,gp,-19080
    84d0:	000a1880 	sll	v1,t2,0x2
    84d4:	016f1021 	addu	v0,t3,t7
    84d8:	ac400000 	sw	zero,0(v0)
    84dc:	ac450058 	sw	a1,88(v0)
    84e0:	006e2021 	addu	a0,v1,t6
    84e4:	00781021 	addu	v0,v1,t8
    84e8:	a100fffc 	sb	zero,-4(t0)
    84ec:	ad000000 	sw	zero,0(t0)
    84f0:	a1000004 	sb	zero,4(t0)
    84f4:	a1000005 	sb	zero,5(t0)
    84f8:	ad00fff8 	sw	zero,-8(t0)
    84fc:	00791821 	addu	v1,v1,t9
    8500:	24060001 	li	a2,1
    8504:	24c6ffff 	addiu	a2,a2,-1
    8508:	a0800000 	sb	zero,0(a0)
    850c:	a4600000 	sh	zero,0(v1)
    8510:	ac400000 	sw	zero,0(v0)
    8514:	24630002 	addiu	v1,v1,2
    8518:	24420004 	addiu	v0,v0,4
    851c:	04c1fff9 	bgez	a2,0x8504
    8520:	24840001 	addiu	a0,a0,1
    8524:	000a1080 	sll	v0,t2,0x2
    8528:	004d2021 	addu	a0,v0,t5
    852c:	00003021 	move	a2,zero
    8530:	004c1821 	addu	v1,v0,t4
    8534:	27878164 	addiu	a3,gp,-32412
    8538:	8ce20000 	lw	v0,0(a3)
    853c:	24e70004 	addiu	a3,a3,4
    8540:	ac820000 	sw	v0,0(a0)
    8544:	a0660000 	sb	a2,0(v1)
    8548:	a0660001 	sb	a2,1(v1)
    854c:	24c60001 	addiu	a2,a2,1
    8550:	28c2001c 	slti	v0,a2,28
    8554:	a0600002 	sb	zero,2(v1)
    8558:	24840004 	addiu	a0,a0,4
    855c:	1440fff6 	bnez	v0,0x8538
    8560:	24630003 	addiu	v1,v1,3
    8564:	25290001 	addiu	t1,t1,1
    8568:	29220008 	slti	v0,t1,8
    856c:	254a003b 	addiu	t2,t2,59
    8570:	250800ec 	addiu	t0,t0,236
    8574:	1440ffd6 	bnez	v0,0x84d0
    8578:	256b00ec 	addiu	t3,t3,236
    857c:	a7808160 	sh	zero,-32416(gp)
    8580:	00004821 	move	t1,zero
    8584:	2783b450 	addiu	v1,gp,-19376
    8588:	ac690000 	sw	t1,0(v1)
    858c:	25290001 	addiu	t1,t1,1
    8590:	2922000c 	slti	v0,t1,12
    8594:	1440fffc 	bnez	v0,0x8588
    8598:	24630004 	addiu	v1,v1,4
    859c:	0c0020d2 	jal	0x8348
    85a0:	00000000 	nop
    85a4:	2e040014 	sltiu	a0,s0,20
    85a8:	2783b4a0 	addiu	v1,gp,-19296
    85ac:	24090007 	li	t1,7
    85b0:	1080000a 	beqz	a0,0x85dc
    85b4:	00000000 	nop
    85b8:	906200d5 	lbu	v0,213(v1)
    85bc:	2529ffff 	addiu	t1,t1,-1
    85c0:	a0620000 	sb	v0,0(v1)
    85c4:	0521fffa 	bgez	t1,0x85b0
    85c8:	246300ec 	addiu	v1,v1,236
    85cc:	8fbf0014 	lw	ra,20(sp)
    85d0:	8fb00010 	lw	s0,16(sp)
    85d4:	03e00008 	jr	ra
    85d8:	27bd0018 	addiu	sp,sp,24
    85dc:	906200d6 	lbu	v0,214(v1)
    85e0:	08002190 	j	0x8640
    85e4:	2529ffff 	addiu	t1,t1,-1
    85e8:	308400ff 	andi	a0,a0,0xff
    85ec:	00041100 	sll	v0,a0,0x4
    85f0:	00441023 	subu	v0,v0,a0
    85f4:	00021080 	sll	v0,v0,0x2
    85f8:	00441023 	subu	v0,v0,a0
    85fc:	00021080 	sll	v0,v0,0x2
    8600:	2783b4a0 	addiu	v1,gp,-19296
    8604:	00436021 	addu	t4,v0,v1
    8608:	3c04b003 	lui	a0,0xb003
    860c:	3c028001 	lui	v0,0x8001
    8610:	34840020 	ori	a0,a0,0x20
    8614:	24428668 	addiu	v0,v0,-31128
    8618:	30c600ff 	andi	a2,a2,0xff
    861c:	93aa0013 	lbu	t2,19(sp)
    8620:	30a500ff 	andi	a1,a1,0xff
    8624:	30e700ff 	andi	a3,a3,0xff
    8628:	ac820000 	sw	v0,0(a0)
    862c:	10c000e8 	beqz	a2,0x89d0
    8630:	258f00d0 	addiu	t7,t4,208
    8634:	91820000 	lbu	v0,0(t4)
    8638:	00000000 	nop
    863c:	2442fffc 	addiu	v0,v0,-4
    8640:	2c430018 	sltiu	v1,v0,24
    8644:	106000c7 	beqz	v1,0x8964
    8648:	3c038001 	lui	v1,0x8001
    864c:	00021080 	sll	v0,v0,0x2
    8650:	24630290 	addiu	v1,v1,656
    8654:	00431021 	addu	v0,v0,v1
    8658:	8c440000 	lw	a0,0(v0)
    865c:	00000000 	nop
    8660:	00800008 	jr	a0
    8664:	00000000 	nop
    8668:	2d420030 	sltiu	v0,t2,48
    866c:	1440001c 	bnez	v0,0x86e0
    8670:	00000000 	nop
    8674:	10a00017 	beqz	a1,0x86d4
    8678:	00000000 	nop
    867c:	24020001 	li	v0,1
    8680:	10a20011 	beq	a1,v0,0x86c8
    8684:	00000000 	nop
    8688:	24020002 	li	v0,2
    868c:	10a2000c 	beq	a1,v0,0x86c0
    8690:	00000000 	nop
    8694:	24020003 	li	v0,3
    8698:	10a20006 	beq	a1,v0,0x86b4
    869c:	00000000 	nop
    86a0:	8d8200d0 	lw	v0,208(t4)
    86a4:	00000000 	nop
    86a8:	2442ffe0 	addiu	v0,v0,-32
    86ac:	03e00008 	jr	ra
    86b0:	ad8200d0 	sw	v0,208(t4)
    86b4:	8d8200d0 	lw	v0,208(t4)
    86b8:	080021cb 	j	0x872c
    86bc:	2442ffe8 	addiu	v0,v0,-24
    86c0:	03e00008 	jr	ra
    86c4:	00000000 	nop
    86c8:	8d8200d0 	lw	v0,208(t4)
    86cc:	080021cb 	j	0x872c
    86d0:	24420001 	addiu	v0,v0,1
    86d4:	8d8200d0 	lw	v0,208(t4)
    86d8:	080021cb 	j	0x872c
    86dc:	24420002 	addiu	v0,v0,2
    86e0:	10a0fff9 	beqz	a1,0x86c8
    86e4:	00000000 	nop
    86e8:	24020001 	li	v0,1
    86ec:	10a2000a 	beq	a1,v0,0x8718
    86f0:	00000000 	nop
    86f4:	24020002 	li	v0,2
    86f8:	10a2ffe9 	beq	a1,v0,0x86a0
    86fc:	00000000 	nop
    8700:	24020003 	li	v0,3
    8704:	10a2ffe6 	beq	a1,v0,0x86a0
    8708:	00000000 	nop
    870c:	8d8200d0 	lw	v0,208(t4)
    8710:	080021cb 	j	0x872c
    8714:	2442ffd0 	addiu	v0,v0,-48
    8718:	8d8200d0 	lw	v0,208(t4)
    871c:	080021cb 	j	0x872c
    8720:	2442fffc 	addiu	v0,v0,-4
    8724:	10a0ffeb 	beqz	a1,0x86d4
    8728:	00000000 	nop
    872c:	24020001 	li	v0,1
    8730:	10a2ffe5 	beq	a1,v0,0x86c8
    8734:	00000000 	nop
    8738:	24020002 	li	v0,2
    873c:	10a2ffe0 	beq	a1,v0,0x86c0
    8740:	24020003 	li	v0,3
    8744:	14a2ffdb 	bne	a1,v0,0x86b4
    8748:	00000000 	nop
    874c:	8d8200d0 	lw	v0,208(t4)
    8750:	080021cb 	j	0x872c
    8754:	2442fff8 	addiu	v0,v0,-8
    8758:	2d420019 	sltiu	v0,t2,25
    875c:	1440ffc5 	bnez	v0,0x8674
    8760:	00000000 	nop
    8764:	10a0ffdb 	beqz	a1,0x86d4
    8768:	00000000 	nop
    876c:	24020001 	li	v0,1
    8770:	10a2ffd5 	beq	a1,v0,0x86c8
    8774:	00000000 	nop
    8778:	24020002 	li	v0,2
    877c:	10a2ffd0 	beq	a1,v0,0x86c0
    8780:	24020003 	li	v0,3
    8784:	10a2fff1 	beq	a1,v0,0x874c
    8788:	00000000 	nop
    878c:	8d8200d0 	lw	v0,208(t4)
    8790:	080021cb 	j	0x872c
    8794:	2442fff0 	addiu	v0,v0,-16
    8798:	2d42001b 	sltiu	v0,t2,27
    879c:	1040fff1 	beqz	v0,0x8764
    87a0:	00000000 	nop
    87a4:	10a0ffcb 	beqz	a1,0x86d4
    87a8:	00000000 	nop
    87ac:	24020001 	li	v0,1
    87b0:	10a2ffc5 	beq	a1,v0,0x86c8
    87b4:	00000000 	nop
    87b8:	24020002 	li	v0,2
    87bc:	14a2ffb5 	bne	a1,v0,0x8694
    87c0:	00000000 	nop
    87c4:	8d8200d0 	lw	v0,208(t4)
    87c8:	080021cb 	j	0x872c
    87cc:	2442fff4 	addiu	v0,v0,-12
    87d0:	2d42001e 	sltiu	v0,t2,30
    87d4:	1040ffe3 	beqz	v0,0x8764
    87d8:	00000000 	nop
    87dc:	10a0ffbd 	beqz	a1,0x86d4
    87e0:	00000000 	nop
    87e4:	24020001 	li	v0,1
    87e8:	10a2ffb5 	beq	a1,v0,0x86c0
    87ec:	24020002 	li	v0,2
    87f0:	10a2ffd6 	beq	a1,v0,0x874c
    87f4:	00000000 	nop
    87f8:	080021c6 	j	0x8718
    87fc:	24020003 	li	v0,3
    8800:	2d420023 	sltiu	v0,t2,35
    8804:	1040ffd7 	beqz	v0,0x8764
    8808:	00000000 	nop
    880c:	10a0ffae 	beqz	a1,0x86c8
    8810:	00000000 	nop
    8814:	24020001 	li	v0,1
    8818:	10a2ffa9 	beq	a1,v0,0x86c0
    881c:	24020002 	li	v0,2
    8820:	14a2ffb7 	bne	a1,v0,0x8700
    8824:	00000000 	nop
    8828:	08002203 	j	0x880c
    882c:	00000000 	nop
    8830:	2d420025 	sltiu	v0,t2,37
    8834:	1040ffcb 	beqz	v0,0x8764
    8838:	00000000 	nop
    883c:	080021d8 	j	0x8760
    8840:	00000000 	nop
    8844:	2d420016 	sltiu	v0,t2,22
    8848:	1440000e 	bnez	v0,0x8884
    884c:	00000000 	nop
    8850:	10a0ffa0 	beqz	a1,0x86d4
    8854:	00000000 	nop
    8858:	24020001 	li	v0,1
    885c:	10a2ff9a 	beq	a1,v0,0x86c8
    8860:	00000000 	nop
    8864:	24020002 	li	v0,2
    8868:	10a2ff95 	beq	a1,v0,0x86c0
    886c:	24020003 	li	v0,3
    8870:	14a2ffb6 	bne	a1,v0,0x874c
    8874:	00000000 	nop
    8878:	8d8200d0 	lw	v0,208(t4)
    887c:	080021cb 	j	0x872c
    8880:	2442fffa 	addiu	v0,v0,-6
    8884:	10a0ff93 	beqz	a1,0x86d4
    8888:	00000000 	nop
    888c:	24020001 	li	v0,1
    8890:	10a2ff8d 	beq	a1,v0,0x86c8
    8894:	00000000 	nop
    8898:	24020002 	li	v0,2
    889c:	10a2ff88 	beq	a1,v0,0x86c0
    88a0:	00000000 	nop
    88a4:	080021f3 	j	0x87cc
    88a8:	00000000 	nop
    88ac:	2d420017 	sltiu	v0,t2,23
    88b0:	1440ffac 	bnez	v0,0x8764
    88b4:	00000000 	nop
    88b8:	08002234 	j	0x88d0
    88bc:	00000000 	nop
    88c0:	2d420019 	sltiu	v0,t2,25
    88c4:	1040ffe2 	beqz	v0,0x8850
    88c8:	00000000 	nop
    88cc:	10a0ff81 	beqz	a1,0x86d4
    88d0:	00000000 	nop
    88d4:	24020001 	li	v0,1
    88d8:	10a2ff7b 	beq	a1,v0,0x86c8
    88dc:	00000000 	nop
    88e0:	24020002 	li	v0,2
    88e4:	10a2ff76 	beq	a1,v0,0x86c0
    88e8:	24020003 	li	v0,3
    88ec:	10a2ff97 	beq	a1,v0,0x874c
    88f0:	00000000 	nop
    88f4:	080021c8 	j	0x8720
    88f8:	00000000 	nop
    88fc:	08002251 	j	0x8944
    8900:	2d42001b 	sltiu	v0,t2,27
    8904:	2d42001e 	sltiu	v0,t2,30
    8908:	1040ffde 	beqz	v0,0x8884
    890c:	00000000 	nop
    8910:	10a0ff70 	beqz	a1,0x86d4
    8914:	00000000 	nop
    8918:	24020001 	li	v0,1
    891c:	10a2ff6a 	beq	a1,v0,0x86c8
    8920:	00000000 	nop
    8924:	24020002 	li	v0,2
    8928:	10a2ff65 	beq	a1,v0,0x86c0
    892c:	24020003 	li	v0,3
    8930:	10a2ff96 	beq	a1,v0,0x878c
    8934:	00000000 	nop
    8938:	080021c8 	j	0x8720
    893c:	00000000 	nop
    8940:	2d420023 	sltiu	v0,t2,35
    8944:	1440fff2 	bnez	v0,0x8910
    8948:	00000000 	nop
    894c:	080021f9 	j	0x87e4
    8950:	00000000 	nop
    8954:	080021f7 	j	0x87dc
    8958:	2d420025 	sltiu	v0,t2,37
    895c:	0800222d 	j	0x88b4
    8960:	2d420027 	sltiu	v0,t2,39
    8964:	10a0ff5b 	beqz	a1,0x86d4
    8968:	00000000 	nop
    896c:	24020001 	li	v0,1
    8970:	10a2ff55 	beq	a1,v0,0x86c8
    8974:	00000000 	nop
    8978:	24020002 	li	v0,2
    897c:	10a2ff50 	beq	a1,v0,0x86c0
    8980:	24020003 	li	v0,3
    8984:	14a2ff71 	bne	a1,v0,0x874c
    8988:	00000000 	nop
    898c:	080021e6 	j	0x8798
    8990:	00000000 	nop
    8994:	2d420027 	sltiu	v0,t2,39
    8998:	1440ffad 	bnez	v0,0x8850
    899c:	00000000 	nop
    89a0:	08002279 	j	0x89e4
    89a4:	00000000 	nop
    89a8:	2d42002a 	sltiu	v0,t2,42
    89ac:	1440ffd8 	bnez	v0,0x8910
    89b0:	00000000 	nop
    89b4:	080021e9 	j	0x87a4
    89b8:	00000000 	nop
    89bc:	2d42002c 	sltiu	v0,t2,44
    89c0:	1440ff78 	bnez	v0,0x87a4
    89c4:	00000000 	nop
    89c8:	080021bd 	j	0x86f4
    89cc:	00000000 	nop
    89d0:	91860000 	lbu	a2,0(t4)
    89d4:	918300d4 	lbu	v1,212(t4)
    89d8:	258d005c 	addiu	t5,t4,92
    89dc:	30c400ff 	andi	a0,a2,0xff
    89e0:	00041040 	sll	v0,a0,0x1
    89e4:	00441021 	addu	v0,v0,a0
    89e8:	00044880 	sll	t1,a0,0x2
    89ec:	01825821 	addu	t3,t4,v0
    89f0:	01894021 	addu	t0,t4,t1
    89f4:	25780008 	addiu	t8,t3,8
    89f8:	10600037 	beqz	v1,0x8ad8
    89fc:	250e0060 	addiu	t6,t0,96
    8a00:	2ca20003 	sltiu	v0,a1,3
    8a04:	14400025 	bnez	v0,0x8a9c
    8a08:	00000000 	nop
    8a0c:	918200dd 	lbu	v0,221(t4)
    8a10:	00000000 	nop
    8a14:	1440001e 	bnez	v0,0x8a90
    8a18:	00000000 	nop
    8a1c:	27878164 	addiu	a3,gp,-32412
    8a20:	01271021 	addu	v0,t1,a3
    8a24:	8c430000 	lw	v1,0(v0)
    8a28:	00000000 	nop
    8a2c:	ad030060 	sw	v1,96(t0)
    8a30:	91620008 	lbu	v0,8(t3)
    8a34:	00000000 	nop
    8a38:	00403021 	move	a2,v0
    8a3c:	a1820000 	sb	v0,0(t4)
    8a40:	30c200ff 	andi	v0,a2,0xff
    8a44:	00021080 	sll	v0,v0,0x2
    8a48:	00471021 	addu	v0,v0,a3
    8a4c:	8c430000 	lw	v1,0(v0)
    8a50:	00000000 	nop
    8a54:	00031842 	srl	v1,v1,0x1
    8a58:	ada30000 	sw	v1,0(t5)
    8a5c:	91840000 	lbu	a0,0(t4)
    8a60:	8dc50000 	lw	a1,0(t6)
    8a64:	00042080 	sll	a0,a0,0x2
    8a68:	00871021 	addu	v0,a0,a3
    8a6c:	8c430000 	lw	v1,0(v0)
    8a70:	00052840 	sll	a1,a1,0x1
    8a74:	008c2021 	addu	a0,a0,t4
    8a78:	00031880 	sll	v1,v1,0x2
    8a7c:	00a3102b 	sltu	v0,a1,v1
    8a80:	0062280a 	.word	0x62280a
    8a84:	ac850060 	sw	a1,96(a0)
    8a88:	03e00008 	jr	ra
    8a8c:	a18000d4 	sb	zero,212(t4)
    8a90:	27878164 	addiu	a3,gp,-32412
    8a94:	080022b0 	j	0x8ac0
    8a98:	a18000dd 	sb	zero,221(t4)
    8a9c:	278281d4 	addiu	v0,gp,-32300
    8aa0:	8d8300d8 	lw	v1,216(t4)
    8aa4:	00821021 	addu	v0,a0,v0
    8aa8:	90440000 	lbu	a0,0(v0)
    8aac:	24630001 	addiu	v1,v1,1
    8ab0:	0064202b 	sltu	a0,v1,a0
    8ab4:	1480ff02 	bnez	a0,0x86c0
    8ab8:	ad8300d8 	sw	v1,216(t4)
    8abc:	8d020060 	lw	v0,96(t0)
    8ac0:	a18000d4 	sb	zero,212(t4)
    8ac4:	00021fc2 	srl	v1,v0,0x1f
    8ac8:	00431021 	addu	v0,v0,v1
    8acc:	00021043 	sra	v0,v0,0x1
    8ad0:	03e00008 	jr	ra
    8ad4:	ad82005c 	sw	v0,92(t4)
    8ad8:	10e0001d 	beqz	a3,0x8b50
    8adc:	2483fffc 	addiu	v1,a0,-4
    8ae0:	2c620018 	sltiu	v0,v1,24
    8ae4:	10400110 	beqz	v0,0x8f28
    8ae8:	00031080 	sll	v0,v1,0x2
    8aec:	3c038001 	lui	v1,0x8001
    8af0:	246302f0 	addiu	v1,v1,752
    8af4:	00431021 	addu	v0,v0,v1
    8af8:	8c440000 	lw	a0,0(v0)
    8afc:	00000000 	nop
    8b00:	00800008 	jr	a0
    8b04:	00000000 	nop
    8b08:	2d420030 	sltiu	v0,t2,48
    8b0c:	14400065 	bnez	v0,0x8ca4
    8b10:	00000000 	nop
    8b14:	10a00060 	beqz	a1,0x8c98
    8b18:	00000000 	nop
    8b1c:	24020001 	li	v0,1
    8b20:	10a2005a 	beq	a1,v0,0x8c8c
    8b24:	00000000 	nop
    8b28:	24020002 	li	v0,2
    8b2c:	10a20008 	beq	a1,v0,0x8b50
    8b30:	00000000 	nop
    8b34:	24020003 	li	v0,3
    8b38:	10a20051 	beq	a1,v0,0x8c80
    8b3c:	00000000 	nop
    8b40:	8d8200d0 	lw	v0,208(t4)
    8b44:	00000000 	nop
    8b48:	2442ffe0 	addiu	v0,v0,-32
    8b4c:	ad8200d0 	sw	v0,208(t4)
    8b50:	8de30000 	lw	v1,0(t7)
    8b54:	8da20000 	lw	v0,0(t5)
    8b58:	00000000 	nop
    8b5c:	00431021 	addu	v0,v0,v1
    8b60:	ada20000 	sw	v0,0(t5)
    8b64:	ade00000 	sw	zero,0(t7)
    8b68:	8da30000 	lw	v1,0(t5)
    8b6c:	8dc40000 	lw	a0,0(t6)
    8b70:	00000000 	nop
    8b74:	0083102a 	slt	v0,a0,v1
    8b78:	10400022 	beqz	v0,0x8c04
    8b7c:	00000000 	nop
    8b80:	93050001 	lbu	a1,1(t8)
    8b84:	91820000 	lbu	v0,0(t4)
    8b88:	00000000 	nop
    8b8c:	10450005 	beq	v0,a1,0x8ba4
    8b90:	24020001 	li	v0,1
    8b94:	a1850000 	sb	a1,0(t4)
    8b98:	a18200d4 	sb	v0,212(t4)
    8b9c:	03e00008 	jr	ra
    8ba0:	ad8000d8 	sw	zero,216(t4)
    8ba4:	918200dd 	lbu	v0,221(t4)
    8ba8:	24030001 	li	v1,1
    8bac:	10430005 	beq	v0,v1,0x8bc4
    8bb0:	00000000 	nop
    8bb4:	a18300d4 	sb	v1,212(t4)
    8bb8:	ad8000d8 	sw	zero,216(t4)
    8bbc:	03e00008 	jr	ra
    8bc0:	a18300dd 	sb	v1,221(t4)
    8bc4:	000417c2 	srl	v0,a0,0x1f
    8bc8:	00821021 	addu	v0,a0,v0
    8bcc:	00021043 	sra	v0,v0,0x1
    8bd0:	ada20000 	sw	v0,0(t5)
    8bd4:	91830000 	lbu	v1,0(t4)
    8bd8:	27828164 	addiu	v0,gp,-32412
    8bdc:	8dc50000 	lw	a1,0(t6)
    8be0:	00031880 	sll	v1,v1,0x2
    8be4:	00621821 	addu	v1,v1,v0
    8be8:	8c640000 	lw	a0,0(v1)
    8bec:	00052840 	sll	a1,a1,0x1
    8bf0:	00041880 	sll	v1,a0,0x2
    8bf4:	00a3102b 	sltu	v0,a1,v1
    8bf8:	0062280a 	.word	0x62280a
    8bfc:	080022c2 	j	0x8b08
    8c00:	adc50000 	sw	a1,0(t6)
    8c04:	97828b7c 	lhu	v0,-29828(gp)
    8c08:	00000000 	nop
    8c0c:	0062102a 	slt	v0,v1,v0
    8c10:	1040feab 	beqz	v0,0x86c0
    8c14:	00000000 	nop
    8c18:	918200dd 	lbu	v0,221(t4)
    8c1c:	00000000 	nop
    8c20:	14400015 	bnez	v0,0x8c78
    8c24:	00000000 	nop
    8c28:	91830000 	lbu	v1,0(t4)
    8c2c:	27828164 	addiu	v0,gp,-32412
    8c30:	00031880 	sll	v1,v1,0x2
    8c34:	00621021 	addu	v0,v1,v0
    8c38:	8c440000 	lw	a0,0(v0)
    8c3c:	006c1821 	addu	v1,v1,t4
    8c40:	ac640060 	sw	a0,96(v1)
    8c44:	93050000 	lbu	a1,0(t8)
    8c48:	00000000 	nop
    8c4c:	00051080 	sll	v0,a1,0x2
    8c50:	01821021 	addu	v0,t4,v0
    8c54:	244e0060 	addiu	t6,v0,96
    8c58:	a1850000 	sb	a1,0(t4)
    8c5c:	8dc20000 	lw	v0,0(t6)
    8c60:	00000000 	nop
    8c64:	00021fc2 	srl	v1,v0,0x1f
    8c68:	00431021 	addu	v0,v0,v1
    8c6c:	00021043 	sra	v0,v0,0x1
    8c70:	03e00008 	jr	ra
    8c74:	ada20000 	sw	v0,0(t5)
    8c78:	08002337 	j	0x8cdc
    8c7c:	a18000dd 	sb	zero,221(t4)
    8c80:	8d8200d0 	lw	v0,208(t4)
    8c84:	080022f3 	j	0x8bcc
    8c88:	2442ffe8 	addiu	v0,v0,-24
    8c8c:	8d8200d0 	lw	v0,208(t4)
    8c90:	080022f3 	j	0x8bcc
    8c94:	24420001 	addiu	v0,v0,1
    8c98:	8d8200d0 	lw	v0,208(t4)
    8c9c:	080022f3 	j	0x8bcc
    8ca0:	24420002 	addiu	v0,v0,2
    8ca4:	10a0fff9 	beqz	a1,0x8c8c
    8ca8:	00000000 	nop
    8cac:	24020001 	li	v0,1
    8cb0:	10a2000a 	beq	a1,v0,0x8cdc
    8cb4:	00000000 	nop
    8cb8:	24020002 	li	v0,2
    8cbc:	10a2ffa0 	beq	a1,v0,0x8b40
    8cc0:	00000000 	nop
    8cc4:	24020003 	li	v0,3
    8cc8:	10a2ff9d 	beq	a1,v0,0x8b40
    8ccc:	00000000 	nop
    8cd0:	8d8200d0 	lw	v0,208(t4)
    8cd4:	080022f3 	j	0x8bcc
    8cd8:	2442ffd0 	addiu	v0,v0,-48
    8cdc:	8d8200d0 	lw	v0,208(t4)
    8ce0:	080022f3 	j	0x8bcc
    8ce4:	2442fffc 	addiu	v0,v0,-4
    8ce8:	10a0ffeb 	beqz	a1,0x8c98
    8cec:	00000000 	nop
    8cf0:	24020001 	li	v0,1
    8cf4:	10a2ffe5 	beq	a1,v0,0x8c8c
    8cf8:	00000000 	nop
    8cfc:	24020002 	li	v0,2
    8d00:	10a2ff93 	beq	a1,v0,0x8b50
    8d04:	24020003 	li	v0,3
    8d08:	14a2ffdd 	bne	a1,v0,0x8c80
    8d0c:	00000000 	nop
    8d10:	8d8200d0 	lw	v0,208(t4)
    8d14:	080022f3 	j	0x8bcc
    8d18:	2442fff8 	addiu	v0,v0,-8
    8d1c:	2d420019 	sltiu	v0,t2,25
    8d20:	1440ff7c 	bnez	v0,0x8b14
    8d24:	00000000 	nop
    8d28:	10a0ffdb 	beqz	a1,0x8c98
    8d2c:	00000000 	nop
    8d30:	24020001 	li	v0,1
    8d34:	10a2ffd5 	beq	a1,v0,0x8c8c
    8d38:	00000000 	nop
    8d3c:	24020002 	li	v0,2
    8d40:	10a2ff83 	beq	a1,v0,0x8b50
    8d44:	24020003 	li	v0,3
    8d48:	10a2fff1 	beq	a1,v0,0x8d10
    8d4c:	00000000 	nop
    8d50:	8d8200d0 	lw	v0,208(t4)
    8d54:	080022f3 	j	0x8bcc
    8d58:	2442fff0 	addiu	v0,v0,-16
    8d5c:	2d42001b 	sltiu	v0,t2,27
    8d60:	1040fff1 	beqz	v0,0x8d28
    8d64:	00000000 	nop
    8d68:	10a0ffcb 	beqz	a1,0x8c98
    8d6c:	00000000 	nop
    8d70:	24020001 	li	v0,1
    8d74:	10a2ffc5 	beq	a1,v0,0x8c8c
    8d78:	00000000 	nop
    8d7c:	24020002 	li	v0,2
    8d80:	14a2ff6c 	bne	a1,v0,0x8b34
    8d84:	00000000 	nop
    8d88:	8d8200d0 	lw	v0,208(t4)
    8d8c:	080022f3 	j	0x8bcc
    8d90:	2442fff4 	addiu	v0,v0,-12
    8d94:	2d42001e 	sltiu	v0,t2,30
    8d98:	1040ffe3 	beqz	v0,0x8d28
    8d9c:	00000000 	nop
    8da0:	10a0ffbd 	beqz	a1,0x8c98
    8da4:	00000000 	nop
    8da8:	24020001 	li	v0,1
    8dac:	10a2ff68 	beq	a1,v0,0x8b50
    8db0:	24020002 	li	v0,2
    8db4:	10a2ffd6 	beq	a1,v0,0x8d10
    8db8:	00000000 	nop
    8dbc:	080022ee 	j	0x8bb8
    8dc0:	24020003 	li	v0,3
    8dc4:	2d420023 	sltiu	v0,t2,35
    8dc8:	1040ffd7 	beqz	v0,0x8d28
    8dcc:	00000000 	nop
    8dd0:	10a0ffae 	beqz	a1,0x8c8c
    8dd4:	00000000 	nop
    8dd8:	24020001 	li	v0,1
    8ddc:	10a2ff5c 	beq	a1,v0,0x8b50
    8de0:	24020002 	li	v0,2
    8de4:	14a2ffb7 	bne	a1,v0,0x8cc4
    8de8:	00000000 	nop
    8dec:	08002374 	j	0x8dd0
    8df0:	00000000 	nop
    8df4:	2d420025 	sltiu	v0,t2,37
    8df8:	1040ffcb 	beqz	v0,0x8d28
    8dfc:	00000000 	nop
    8e00:	08002349 	j	0x8d24
    8e04:	00000000 	nop
    8e08:	2d420016 	sltiu	v0,t2,22
    8e0c:	1440000e 	bnez	v0,0x8e48
    8e10:	00000000 	nop
    8e14:	10a0ffa0 	beqz	a1,0x8c98
    8e18:	00000000 	nop
    8e1c:	24020001 	li	v0,1
    8e20:	10a2ff9a 	beq	a1,v0,0x8c8c
    8e24:	00000000 	nop
    8e28:	24020002 	li	v0,2
    8e2c:	10a2ff48 	beq	a1,v0,0x8b50
    8e30:	24020003 	li	v0,3
    8e34:	14a2ffb6 	bne	a1,v0,0x8d10
    8e38:	00000000 	nop
    8e3c:	8d8200d0 	lw	v0,208(t4)
    8e40:	080022f3 	j	0x8bcc
    8e44:	2442fffa 	addiu	v0,v0,-6
    8e48:	10a0ff93 	beqz	a1,0x8c98
    8e4c:	00000000 	nop
    8e50:	24020001 	li	v0,1
    8e54:	10a2ff8d 	beq	a1,v0,0x8c8c
    8e58:	00000000 	nop
    8e5c:	24020002 	li	v0,2
    8e60:	10a2ff3b 	beq	a1,v0,0x8b50
    8e64:	00000000 	nop
    8e68:	08002364 	j	0x8d90
    8e6c:	00000000 	nop
    8e70:	2d420017 	sltiu	v0,t2,23
    8e74:	1440ffac 	bnez	v0,0x8d28
    8e78:	00000000 	nop
    8e7c:	080023a5 	j	0x8e94
    8e80:	00000000 	nop
    8e84:	2d420019 	sltiu	v0,t2,25
    8e88:	1040ffe2 	beqz	v0,0x8e14
    8e8c:	00000000 	nop
    8e90:	10a0ff81 	beqz	a1,0x8c98
    8e94:	00000000 	nop
    8e98:	24020001 	li	v0,1
    8e9c:	10a2ff7b 	beq	a1,v0,0x8c8c
    8ea0:	00000000 	nop
    8ea4:	24020002 	li	v0,2
    8ea8:	10a2ff29 	beq	a1,v0,0x8b50
    8eac:	24020003 	li	v0,3
    8eb0:	10a2ff97 	beq	a1,v0,0x8d10
    8eb4:	00000000 	nop
    8eb8:	080022f0 	j	0x8bc0
    8ebc:	00000000 	nop
    8ec0:	080023c2 	j	0x8f08
    8ec4:	2d42001b 	sltiu	v0,t2,27
    8ec8:	2d42001e 	sltiu	v0,t2,30
    8ecc:	1040ffde 	beqz	v0,0x8e48
    8ed0:	00000000 	nop
    8ed4:	10a0ff70 	beqz	a1,0x8c98
    8ed8:	00000000 	nop
    8edc:	24020001 	li	v0,1
    8ee0:	10a2ff6a 	beq	a1,v0,0x8c8c
    8ee4:	00000000 	nop
    8ee8:	24020002 	li	v0,2
    8eec:	10a2ff18 	beq	a1,v0,0x8b50
    8ef0:	24020003 	li	v0,3
    8ef4:	10a2ff96 	beq	a1,v0,0x8d50
    8ef8:	00000000 	nop
    8efc:	080022f0 	j	0x8bc0
    8f00:	00000000 	nop
    8f04:	2d420023 	sltiu	v0,t2,35
    8f08:	1440fff2 	bnez	v0,0x8ed4
    8f0c:	00000000 	nop
    8f10:	0800236a 	j	0x8da8
    8f14:	00000000 	nop
    8f18:	08002368 	j	0x8da0
    8f1c:	2d420025 	sltiu	v0,t2,37
    8f20:	0800239e 	j	0x8e78
    8f24:	2d420027 	sltiu	v0,t2,39
    8f28:	10a0ff5b 	beqz	a1,0x8c98
    8f2c:	00000000 	nop
    8f30:	24020001 	li	v0,1
    8f34:	10a2ff55 	beq	a1,v0,0x8c8c
    8f38:	00000000 	nop
    8f3c:	24020002 	li	v0,2
    8f40:	10a2ff03 	beq	a1,v0,0x8b50
    8f44:	24020003 	li	v0,3
    8f48:	14a2ff71 	bne	a1,v0,0x8d10
    8f4c:	00000000 	nop
    8f50:	08002357 	j	0x8d5c
    8f54:	00000000 	nop
    8f58:	2d420027 	sltiu	v0,t2,39
    8f5c:	1440ffad 	bnez	v0,0x8e14
    8f60:	00000000 	nop
    8f64:	080023ea 	j	0x8fa8
    8f68:	00000000 	nop
    8f6c:	2d42002a 	sltiu	v0,t2,42
    8f70:	1440ffd8 	bnez	v0,0x8ed4
    8f74:	00000000 	nop
    8f78:	0800235a 	j	0x8d68
    8f7c:	00000000 	nop
    8f80:	2d42002c 	sltiu	v0,t2,44
    8f84:	1440ff78 	bnez	v0,0x8d68
    8f88:	00000000 	nop
    8f8c:	080022e5 	j	0x8b94
    8f90:	00000000 	nop
    8f94:	27bdffe8 	addiu	sp,sp,-24
    8f98:	3c02b003 	lui	v0,0xb003
    8f9c:	afbf0014 	sw	ra,20(sp)
    8fa0:	afb00010 	sw	s0,16(sp)
    8fa4:	34420118 	ori	v0,v0,0x118
    8fa8:	3c03b003 	lui	v1,0xb003
    8fac:	8c500000 	lw	s0,0(v0)
    8fb0:	3463012c 	ori	v1,v1,0x12c
    8fb4:	90620000 	lbu	v0,0(v1)
    8fb8:	32050001 	andi	a1,s0,0x1
    8fbc:	a3828010 	sb	v0,-32752(gp)
    8fc0:	14a00014 	bnez	a1,0x9014
    8fc4:	304400ff 	andi	a0,v0,0xff
    8fc8:	32020100 	andi	v0,s0,0x100
    8fcc:	14400009 	bnez	v0,0x8ff4
    8fd0:	00000000 	nop
    8fd4:	32020800 	andi	v0,s0,0x800
    8fd8:	10400002 	beqz	v0,0x8fe4
    8fdc:	24020001 	li	v0,1
    8fe0:	a382bc18 	sb	v0,-17384(gp)
    8fe4:	8fbf0014 	lw	ra,20(sp)
    8fe8:	8fb00010 	lw	s0,16(sp)
    8fec:	03e00008 	jr	ra
    8ff0:	27bd0018 	addiu	sp,sp,24
    8ff4:	0c000537 	jal	0x14dc
    8ff8:	00000000 	nop
    8ffc:	2602ff00 	addiu	v0,s0,-256
    9000:	a380bc18 	sb	zero,-17384(gp)
    9004:	3c01b003 	lui	at,0xb003
    9008:	ac220118 	sw	v0,280(at)
    900c:	08002416 	j	0x9058
    9010:	32020800 	andi	v0,s0,0x800
    9014:	0c00213f 	jal	0x84fc
    9018:	00000000 	nop
    901c:	2602ffff 	addiu	v0,s0,-1
    9020:	3c01b003 	lui	at,0xb003
    9024:	ac220118 	sw	v0,280(at)
    9028:	08002413 	j	0x904c
    902c:	32020100 	andi	v0,s0,0x100
    9030:	27bdffe0 	addiu	sp,sp,-32
    9034:	3c02b003 	lui	v0,0xb003
    9038:	344200d0 	ori	v0,v0,0xd0
    903c:	afbf0018 	sw	ra,24(sp)
    9040:	8c430000 	lw	v1,0(v0)
    9044:	3c020040 	lui	v0,0x40
    9048:	24070fff 	li	a3,4095
    904c:	00033302 	srl	a2,v1,0xc
    9050:	00032d02 	srl	a1,v1,0x14
    9054:	00034302 	srl	t0,v1,0xc
    9058:	30690fff 	andi	t1,v1,0xfff
    905c:	00621824 	and	v1,v1,v0
    9060:	30a50003 	andi	a1,a1,0x3
    9064:	30c600ff 	andi	a2,a2,0xff
    9068:	10600008 	beqz	v1,0x908c
    906c:	310800ff 	andi	t0,t0,0xff
    9070:	01003021 	move	a2,t0
    9074:	0c0024df 	jal	0x937c
    9078:	afa90010 	sw	t1,16(sp)
    907c:	8fbf0018 	lw	ra,24(sp)
    9080:	00000000 	nop
    9084:	03e00008 	jr	ra
    9088:	27bd0020 	addiu	sp,sp,32
    908c:	0c002531 	jal	0x94c4
    9090:	00000000 	nop
    9094:	3c03b003 	lui	v1,0xb003
    9098:	346300d4 	ori	v1,v1,0xd4
    909c:	0800243f 	j	0x90fc
    90a0:	ac620000 	sw	v0,0(v1)
    90a4:	27bdffc0 	addiu	sp,sp,-64
    90a8:	3c02b003 	lui	v0,0xb003
    90ac:	afbe0038 	sw	s8,56(sp)
    90b0:	afb5002c 	sw	s5,44(sp)
    90b4:	afb1001c 	sw	s1,28(sp)
    90b8:	afb00018 	sw	s0,24(sp)
    90bc:	afbf003c 	sw	ra,60(sp)
    90c0:	afb70034 	sw	s7,52(sp)
    90c4:	afb60030 	sw	s6,48(sp)
    90c8:	afb40028 	sw	s4,40(sp)
    90cc:	afb30024 	sw	s3,36(sp)
    90d0:	afb20020 	sw	s2,32(sp)
    90d4:	3442003f 	ori	v0,v0,0x3f
    90d8:	90430000 	lbu	v1,0(v0)
    90dc:	00808021 	move	s0,a0
    90e0:	0000f021 	move	s8,zero
    90e4:	00008821 	move	s1,zero
    90e8:	10600076 	beqz	v1,0x92c4
    90ec:	0000a821 	move	s5,zero
    90f0:	3c01b003 	lui	at,0xb003
    90f4:	a020003f 	sb	zero,63(at)
    90f8:	00101202 	srl	v0,s0,0x8
    90fc:	24040614 	li	a0,1556
    9100:	0c0006d1 	jal	0x1b44
    9104:	3054000f 	andi	s4,v0,0xf
    9108:	24040614 	li	a0,1556
    910c:	0c0006d1 	jal	0x1b44
    9110:	afa20010 	sw	v0,16(sp)
    9114:	3c0300ff 	lui	v1,0xff
    9118:	3463ffff 	ori	v1,v1,0xffff
    911c:	3210007f 	andi	s0,s0,0x7f
    9120:	00431024 	and	v0,v0,v1
    9124:	00108600 	sll	s0,s0,0x18
    9128:	02028025 	or	s0,s0,v0
    912c:	02002821 	move	a1,s0
    9130:	24040614 	li	a0,1556
    9134:	3c13bfff 	lui	s3,0xbfff
    9138:	0c0006bf 	jal	0x1afc
    913c:	3c16b003 	lui	s6,0xb003
    9140:	00009021 	move	s2,zero
    9144:	3c174000 	lui	s7,0x4000
    9148:	3673ffff 	ori	s3,s3,0xffff
    914c:	36d6003e 	ori	s6,s6,0x3e
    9150:	0c0006d1 	jal	0x1b44
    9154:	24040400 	li	a0,1024
    9158:	00571025 	or	v0,v0,s7
    915c:	00402821 	move	a1,v0
    9160:	0c0006bf 	jal	0x1afc
    9164:	24040400 	li	a0,1024
    9168:	00008021 	move	s0,zero
    916c:	0c0025f9 	jal	0x97e4
    9170:	00000000 	nop
    9174:	26030001 	addiu	v1,s0,1
    9178:	10400046 	beqz	v0,0x9294
    917c:	307000ff 	andi	s0,v1,0xff
    9180:	1200fffa 	beqz	s0,0x916c
    9184:	00000000 	nop
    9188:	0c0006d1 	jal	0x1b44
    918c:	24040400 	li	a0,1024
    9190:	00531024 	and	v0,v0,s3
    9194:	00402821 	move	a1,v0
    9198:	0c0006bf 	jal	0x1afc
    919c:	24040400 	li	a0,1024
    91a0:	24020001 	li	v0,1
    91a4:	12820037 	beq	s4,v0,0x9284
    91a8:	00000000 	nop
    91ac:	12800035 	beqz	s4,0x9284
    91b0:	00000000 	nop
    91b4:	3231007f 	andi	s1,s1,0x7f
    91b8:	12200004 	beqz	s1,0x91cc
    91bc:	24030004 	li	v1,4
    91c0:	27c20001 	addiu	v0,s8,1
    91c4:	305e00ff 	andi	s8,v0,0xff
    91c8:	02b1a821 	addu	s5,s5,s1
    91cc:	1243002a 	beq	s2,v1,0x9278
    91d0:	3c03b003 	lui	v1,0xb003
    91d4:	02431021 	addu	v0,s2,v1
    91d8:	a0510034 	sb	s1,52(v0)
    91dc:	26420001 	addiu	v0,s2,1
    91e0:	305200ff 	andi	s2,v0,0xff
    91e4:	2e430005 	sltiu	v1,s2,5
    91e8:	1460ffd9 	bnez	v1,0x9150
    91ec:	00000000 	nop
    91f0:	8fa50010 	lw	a1,16(sp)
    91f4:	0c0006bf 	jal	0x1afc
    91f8:	24040614 	li	a0,1556
    91fc:	12a0000e 	beqz	s5,0x9238
    9200:	3c02b003 	lui	v0,0xb003
    9204:	13c0000d 	beqz	s8,0x923c
    9208:	3442003c 	ori	v0,v0,0x3c
    920c:	00151040 	sll	v0,s5,0x1
    9210:	00551021 	addu	v0,v0,s5
    9214:	000210c0 	sll	v0,v0,0x3
    9218:	00551021 	addu	v0,v0,s5
    921c:	0002a880 	sll	s5,v0,0x2
    9220:	02be001b 	divu	zero,s5,s8
    9224:	17c00002 	bnez	s8,0x9230
    9228:	00000000 	nop
    922c:	0007000d 	break	0x7
    9230:	0000a812 	mflo	s5
    9234:	3c02b003 	lui	v0,0xb003
    9238:	3442003c 	ori	v0,v0,0x3c
    923c:	3c03b003 	lui	v1,0xb003
    9240:	3c04b003 	lui	a0,0xb003
    9244:	a4550000 	sh	s5,0(v0)
    9248:	3463001c 	ori	v1,v1,0x1c
    924c:	3484001d 	ori	a0,a0,0x1d
    9250:	24020001 	li	v0,1
    9254:	a0600000 	sb	zero,0(v1)
    9258:	a0820000 	sb	v0,0(a0)
    925c:	7bbe01fc 	.word	0x7bbe01fc
    9260:	7bb601bc 	.word	0x7bb601bc
    9264:	7bb4017c 	.word	0x7bb4017c
    9268:	7bb2013c 	.word	0x7bb2013c
    926c:	7bb000fc 	.word	0x7bb000fc
    9270:	03e00008 	jr	ra
    9274:	27bd0040 	addiu	sp,sp,64
    9278:	a2d10000 	sb	s1,0(s6)
    927c:	08002498 	j	0x9260
    9280:	26420001 	addiu	v0,s2,1
    9284:	0c0006d1 	jal	0x1b44
    9288:	240404fc 	li	a0,1276
    928c:	0800248d 	j	0x9234
    9290:	00408821 	move	s1,v0
    9294:	3c03b003 	lui	v1,0xb003
    9298:	3463003c 	ori	v1,v1,0x3c
    929c:	3c04b003 	lui	a0,0xb003
    92a0:	3c05b003 	lui	a1,0xb003
    92a4:	a4600000 	sh	zero,0(v1)
    92a8:	3484001c 	ori	a0,a0,0x1c
    92ac:	34a5001d 	ori	a1,a1,0x1d
    92b0:	24020002 	li	v0,2
    92b4:	24030001 	li	v1,1
    92b8:	a0820000 	sb	v0,0(a0)
    92bc:	080024b7 	j	0x92dc
    92c0:	a0a30000 	sb	v1,0(a1)
    92c4:	0c001799 	jal	0x5e64
    92c8:	00000000 	nop
    92cc:	1040ff8b 	beqz	v0,0x90fc
    92d0:	00101202 	srl	v0,s0,0x8
    92d4:	3c02b003 	lui	v0,0xb003
    92d8:	3c04b003 	lui	a0,0xb003
    92dc:	3442003c 	ori	v0,v0,0x3c
    92e0:	34840014 	ori	a0,a0,0x14
    92e4:	24030001 	li	v1,1
    92e8:	a4400000 	sh	zero,0(v0)
    92ec:	3c01b003 	lui	at,0xb003
    92f0:	a023003f 	sb	v1,63(at)
    92f4:	080024b7 	j	0x92dc
    92f8:	ac900000 	sw	s0,0(a0)
    92fc:	27bdffd8 	addiu	sp,sp,-40
    9300:	afb00010 	sw	s0,16(sp)
    9304:	30d000ff 	andi	s0,a2,0xff
    9308:	2e02002e 	sltiu	v0,s0,46
    930c:	afb20018 	sw	s2,24(sp)
    9310:	afb10014 	sw	s1,20(sp)
    9314:	afbf0020 	sw	ra,32(sp)
    9318:	afb3001c 	sw	s3,28(sp)
    931c:	30b100ff 	andi	s1,a1,0xff
    9320:	14400006 	bnez	v0,0x933c
    9324:	00809021 	move	s2,a0
    9328:	8fbf0020 	lw	ra,32(sp)
    932c:	7bb200fc 	.word	0x7bb200fc
    9330:	7bb000bc 	.word	0x7bb000bc
    9334:	03e00008 	jr	ra
    9338:	27bd0028 	addiu	sp,sp,40
    933c:	2e130010 	sltiu	s3,s0,16
    9340:	24050014 	li	a1,20
    9344:	0c0013a4 	jal	0x4e90
    9348:	24060107 	li	a2,263
    934c:	12600038 	beqz	s3,0x9430
    9350:	02003021 	move	a2,s0
    9354:	8fa20038 	lw	v0,56(sp)
    9358:	30c3003f 	andi	v1,a2,0x3f
    935c:	3c04b009 	lui	a0,0xb009
    9360:	00021400 	sll	v0,v0,0x10
    9364:	00433025 	or	a2,v0,v1
    9368:	34840160 	ori	a0,a0,0x160
    936c:	90820000 	lbu	v0,0(a0)
    9370:	00000000 	nop
    9374:	1440fffd 	bnez	v0,0x936c
    9378:	24020001 	li	v0,1
    937c:	1222002a 	beq	s1,v0,0x9428
    9380:	2a220002 	slti	v0,s1,2
    9384:	14400024 	bnez	v0,0x9418
    9388:	24020002 	li	v0,2
    938c:	12220020 	beq	s1,v0,0x9410
    9390:	24020003 	li	v0,3
    9394:	12220019 	beq	s1,v0,0x93fc
    9398:	00000000 	nop
    939c:	1660ffe2 	bnez	s3,0x9328
    93a0:	24020001 	li	v0,1
    93a4:	12220013 	beq	s1,v0,0x93f4
    93a8:	2a220002 	slti	v0,s1,2
    93ac:	1440000d 	bnez	v0,0x93e4
    93b0:	24020002 	li	v0,2
    93b4:	12220009 	beq	s1,v0,0x93dc
    93b8:	24020003 	li	v0,3
    93bc:	1622ffda 	bne	s1,v0,0x9328
    93c0:	00000000 	nop
    93c4:	2404084c 	li	a0,2124
    93c8:	2405ffff 	li	a1,-1
    93cc:	0c00135f 	jal	0x4d7c
    93d0:	3c060cb8 	lui	a2,0xcb8
    93d4:	080024ea 	j	0x93a8
    93d8:	00000000 	nop
    93dc:	08002512 	j	0x9448
    93e0:	24040848 	li	a0,2120
    93e4:	1620ffd0 	bnez	s1,0x9328
    93e8:	00000000 	nop
    93ec:	08002512 	j	0x9448
    93f0:	24040840 	li	a0,2112
    93f4:	08002512 	j	0x9448
    93f8:	24040844 	li	a0,2116
    93fc:	2404084c 	li	a0,2124
    9400:	0c00135f 	jal	0x4d7c
    9404:	2405ffff 	li	a1,-1
    9408:	08002507 	j	0x941c
    940c:	00000000 	nop
    9410:	08002520 	j	0x9480
    9414:	24040848 	li	a0,2120
    9418:	1620ffe0 	bnez	s1,0x939c
    941c:	00000000 	nop
    9420:	08002520 	j	0x9480
    9424:	24040840 	li	a0,2112
    9428:	08002520 	j	0x9480
    942c:	24040844 	li	a0,2116
    9430:	02402021 	move	a0,s2
    9434:	0c002571 	jal	0x95c4
    9438:	02202821 	move	a1,s1
    943c:	080024f5 	j	0x93d4
    9440:	00403021 	move	a2,v0
    9444:	27bdffd8 	addiu	sp,sp,-40
    9448:	2cc2002e 	sltiu	v0,a2,46
    944c:	afb20018 	sw	s2,24(sp)
    9450:	afb10014 	sw	s1,20(sp)
    9454:	afb00010 	sw	s0,16(sp)
    9458:	afbf0020 	sw	ra,32(sp)
    945c:	afb3001c 	sw	s3,28(sp)
    9460:	00c08021 	move	s0,a2
    9464:	30b100ff 	andi	s1,a1,0xff
    9468:	00809021 	move	s2,a0
    946c:	14400007 	bnez	v0,0x948c
    9470:	00001821 	move	v1,zero
    9474:	8fbf0020 	lw	ra,32(sp)
    9478:	7bb200fc 	.word	0x7bb200fc
    947c:	7bb000bc 	.word	0x7bb000bc
    9480:	00601021 	move	v0,v1
    9484:	03e00008 	jr	ra
    9488:	27bd0028 	addiu	sp,sp,40
    948c:	2e130010 	sltiu	s3,s0,16
    9490:	24050014 	li	a1,20
    9494:	0c0013a4 	jal	0x4e90
    9498:	24060107 	li	a2,263
    949c:	12600024 	beqz	s3,0x9530
    94a0:	02003021 	move	a2,s0
    94a4:	3c03b009 	lui	v1,0xb009
    94a8:	34630160 	ori	v1,v1,0x160
    94ac:	90620000 	lbu	v0,0(v1)
    94b0:	00000000 	nop
    94b4:	1440fffd 	bnez	v0,0x94ac
    94b8:	30c5003f 	andi	a1,a2,0x3f
    94bc:	0c0025ae 	jal	0x96b8
    94c0:	02202021 	move	a0,s1
    94c4:	1660000a 	bnez	s3,0x94f0
    94c8:	00408021 	move	s0,v0
    94cc:	24020001 	li	v0,1
    94d0:	12220015 	beq	s1,v0,0x9528
    94d4:	2a220002 	slti	v0,s1,2
    94d8:	1440000f 	bnez	v0,0x9518
    94dc:	24020002 	li	v0,2
    94e0:	1222000b 	beq	s1,v0,0x9510
    94e4:	24020003 	li	v0,3
    94e8:	12220003 	beq	s1,v0,0x94f8
    94ec:	00000000 	nop
    94f0:	0800253d 	j	0x94f4
    94f4:	02001821 	move	v1,s0
    94f8:	2404084c 	li	a0,2124
    94fc:	2405ffff 	li	a1,-1
    9500:	0c00135f 	jal	0x4d7c
    9504:	3c060cb8 	lui	a2,0xcb8
    9508:	0800253d 	j	0x94f4
    950c:	02001821 	move	v1,s0
    9510:	0800255f 	j	0x957c
    9514:	24040848 	li	a0,2120
    9518:	1620fff5 	bnez	s1,0x94f0
    951c:	00000000 	nop
    9520:	0800255f 	j	0x957c
    9524:	24040840 	li	a0,2112
    9528:	0800255f 	j	0x957c
    952c:	24040844 	li	a0,2116
    9530:	02402021 	move	a0,s2
    9534:	0c002571 	jal	0x95c4
    9538:	02202821 	move	a1,s1
    953c:	08002549 	j	0x9524
    9540:	00403021 	move	a2,v0
    9544:	27bdffe8 	addiu	sp,sp,-24
    9548:	2cc2001f 	sltiu	v0,a2,31
    954c:	afb00010 	sw	s0,16(sp)
    9550:	afbf0014 	sw	ra,20(sp)
    9554:	00c08021 	move	s0,a2
    9558:	1440001d 	bnez	v0,0x95d0
    955c:	30a500ff 	andi	a1,a1,0xff
    9560:	24020001 	li	v0,1
    9564:	10a20018 	beq	a1,v0,0x95c8
    9568:	28a20002 	slti	v0,a1,2
    956c:	14400012 	bnez	v0,0x95b8
    9570:	24020002 	li	v0,2
    9574:	10a2000e 	beq	a1,v0,0x95b0
    9578:	24020003 	li	v0,3
    957c:	10a20007 	beq	a1,v0,0x959c
    9580:	2404084c 	li	a0,2124
    9584:	2610ffe2 	addiu	s0,s0,-30
    9588:	02001021 	move	v0,s0
    958c:	8fbf0014 	lw	ra,20(sp)
    9590:	8fb00010 	lw	s0,16(sp)
    9594:	03e00008 	jr	ra
    9598:	27bd0018 	addiu	sp,sp,24
    959c:	2405ffff 	li	a1,-1
    95a0:	0c00135f 	jal	0x4d7c
    95a4:	3c060df8 	lui	a2,0xdf8
    95a8:	08002582 	j	0x9608
    95ac:	2610ffe2 	addiu	s0,s0,-30
    95b0:	08002587 	j	0x961c
    95b4:	24040848 	li	a0,2120
    95b8:	14a0fff2 	bnez	a1,0x9584
    95bc:	24040840 	li	a0,2112
    95c0:	08002588 	j	0x9620
    95c4:	2405ffff 	li	a1,-1
    95c8:	08002587 	j	0x961c
    95cc:	24040844 	li	a0,2116
    95d0:	2cc20010 	sltiu	v0,a2,16
    95d4:	1440ffec 	bnez	v0,0x9588
    95d8:	24020001 	li	v0,1
    95dc:	10a20014 	beq	a1,v0,0x9630
    95e0:	28a20002 	slti	v0,a1,2
    95e4:	1440000e 	bnez	v0,0x9620
    95e8:	24020002 	li	v0,2
    95ec:	10a2000a 	beq	a1,v0,0x9618
    95f0:	24020003 	li	v0,3
    95f4:	10a20003 	beq	a1,v0,0x9604
    95f8:	2404084c 	li	a0,2124
    95fc:	08002582 	j	0x9608
    9600:	2610fff1 	addiu	s0,s0,-15
    9604:	2405ffff 	li	a1,-1
    9608:	0c00135f 	jal	0x4d7c
    960c:	3c060db8 	lui	a2,0xdb8
    9610:	08002582 	j	0x9608
    9614:	2610fff1 	addiu	s0,s0,-15
    9618:	080025a1 	j	0x9684
    961c:	24040848 	li	a0,2120
    9620:	14a0fff6 	bnez	a1,0x95fc
    9624:	24040840 	li	a0,2112
    9628:	080025a2 	j	0x9688
    962c:	2405ffff 	li	a1,-1
    9630:	080025a1 	j	0x9684
    9634:	24040844 	li	a0,2116
    9638:	27bdffe8 	addiu	sp,sp,-24
    963c:	308400ff 	andi	a0,a0,0xff
    9640:	24020001 	li	v0,1
    9644:	10820039 	beq	a0,v0,0x972c
    9648:	afbf0010 	sw	ra,16(sp)
    964c:	28820002 	slti	v0,a0,2
    9650:	14400027 	bnez	v0,0x96f0
    9654:	00000000 	nop
    9658:	24020002 	li	v0,2
    965c:	10820017 	beq	a0,v0,0x96bc
    9660:	00a03021 	move	a2,a1
    9664:	24020003 	li	v0,3
    9668:	10820005 	beq	a0,v0,0x9680
    966c:	2404083c 	li	a0,2108
    9670:	8fbf0010 	lw	ra,16(sp)
    9674:	00000000 	nop
    9678:	03e00008 	jr	ra
    967c:	27bd0018 	addiu	sp,sp,24
    9680:	0c00135f 	jal	0x4d7c
    9684:	3c053f00 	lui	a1,0x3f00
    9688:	2404083c 	li	a0,2108
    968c:	3c058000 	lui	a1,0x8000
    9690:	0c00135f 	jal	0x4d7c
    9694:	00003021 	move	a2,zero
    9698:	2404083c 	li	a0,2108
    969c:	3c058000 	lui	a1,0x8000
    96a0:	0c00135f 	jal	0x4d7c
    96a4:	24060001 	li	a2,1
    96a8:	240408ac 	li	a0,2220
    96ac:	0c001341 	jal	0x4d04
    96b0:	24050fff 	li	a1,4095
    96b4:	080025bc 	j	0x96f0
    96b8:	00000000 	nop
    96bc:	24040834 	li	a0,2100
    96c0:	0c00135f 	jal	0x4d7c
    96c4:	3c053f00 	lui	a1,0x3f00
    96c8:	24040834 	li	a0,2100
    96cc:	3c058000 	lui	a1,0x8000
    96d0:	0c00135f 	jal	0x4d7c
    96d4:	00003021 	move	a2,zero
    96d8:	24040834 	li	a0,2100
    96dc:	3c058000 	lui	a1,0x8000
    96e0:	0c00135f 	jal	0x4d7c
    96e4:	24060001 	li	a2,1
    96e8:	080025cb 	j	0x972c
    96ec:	240408a8 	li	a0,2216
    96f0:	1480ffdf 	bnez	a0,0x9670
    96f4:	00a03021 	move	a2,a1
    96f8:	24040824 	li	a0,2084
    96fc:	0c00135f 	jal	0x4d7c
    9700:	3c053f00 	lui	a1,0x3f00
    9704:	24040824 	li	a0,2084
    9708:	3c058000 	lui	a1,0x8000
    970c:	0c00135f 	jal	0x4d7c
    9710:	00003021 	move	a2,zero
    9714:	24040824 	li	a0,2084
    9718:	3c058000 	lui	a1,0x8000
    971c:	0c00135f 	jal	0x4d7c
    9720:	24060001 	li	a2,1
    9724:	080025cb 	j	0x972c
    9728:	240408a0 	li	a0,2208
    972c:	00a03021 	move	a2,a1
    9730:	2404082c 	li	a0,2092
    9734:	0c00135f 	jal	0x4d7c
    9738:	3c053f00 	lui	a1,0x3f00
    973c:	2404082c 	li	a0,2092
    9740:	3c058000 	lui	a1,0x8000
    9744:	0c00135f 	jal	0x4d7c
    9748:	00003021 	move	a2,zero
    974c:	2404082c 	li	a0,2092
    9750:	3c058000 	lui	a1,0x8000
    9754:	0c00135f 	jal	0x4d7c
    9758:	24060001 	li	a2,1
    975c:	080025cb 	j	0x972c
    9760:	240408a4 	li	a0,2212
    9764:	3c050014 	lui	a1,0x14
    9768:	3c02b005 	lui	v0,0xb005
    976c:	34420420 	ori	v0,v0,0x420
    9770:	3c06c000 	lui	a2,0xc000
    9774:	3c03b005 	lui	v1,0xb005
    9778:	3c04b005 	lui	a0,0xb005
    977c:	34a51709 	ori	a1,a1,0x1709
    9780:	ac450000 	sw	a1,0(v0)
    9784:	34c60507 	ori	a2,a2,0x507
    9788:	34630424 	ori	v1,v1,0x424
    978c:	34840228 	ori	a0,a0,0x228
    9790:	3c07b005 	lui	a3,0xb005
    9794:	24020020 	li	v0,32
    9798:	ac660000 	sw	a2,0(v1)
    979c:	34e70450 	ori	a3,a3,0x450
    97a0:	a0820000 	sb	v0,0(a0)
    97a4:	90e20000 	lbu	v0,0(a3)
    97a8:	00000000 	nop
    97ac:	30420003 	andi	v0,v0,0x3
    97b0:	1040fffc 	beqz	v0,0x97a4
    97b4:	24020001 	li	v0,1
    97b8:	03e00008 	jr	ra
    97bc:	00000000 	nop
    97c0:	938581f1 	lbu	a1,-32271(gp)
    97c4:	24020001 	li	v0,1
    97c8:	14a20053 	bne	a1,v0,0x9918
    97cc:	00804021 	move	t0,a0
    97d0:	8c890004 	lw	t1,4(a0)
    97d4:	3c02b001 	lui	v0,0xb001
    97d8:	01223021 	addu	a2,t1,v0
    97dc:	8cc30004 	lw	v1,4(a2)
    97e0:	3c020100 	lui	v0,0x100
    97e4:	00621024 	and	v0,v1,v0
    97e8:	1040004b 	beqz	v0,0x9918
    97ec:	30620008 	andi	v0,v1,0x8
    97f0:	10450059 	beq	v0,a1,0x9958
    97f4:	00000000 	nop
    97f8:	94c20038 	lhu	v0,56(a2)
    97fc:	240300b4 	li	v1,180
    9800:	304400ff 	andi	a0,v0,0xff
    9804:	10830061 	beq	a0,v1,0x998c
    9808:	240200c4 	li	v0,196
    980c:	10820054 	beq	a0,v0,0x9960
    9810:	24020094 	li	v0,148
    9814:	10820045 	beq	a0,v0,0x992c
    9818:	00000000 	nop
    981c:	94c20038 	lhu	v0,56(a2)
    9820:	00000000 	nop
    9824:	3047ffff 	andi	a3,v0,0xffff
    9828:	30e340ff 	andi	v1,a3,0x40ff
    982c:	24024088 	li	v0,16520
    9830:	14620039 	bne	v1,v0,0x9918
    9834:	30e30300 	andi	v1,a3,0x300
    9838:	24020300 	li	v0,768
    983c:	10620038 	beq	v1,v0,0x9920
    9840:	00000000 	nop
    9844:	94c20056 	lhu	v0,86(a2)
    9848:	00000000 	nop
    984c:	3047ffff 	andi	a3,v0,0xffff
    9850:	30e20080 	andi	v0,a3,0x80
    9854:	14400030 	bnez	v0,0x9918
    9858:	3c02b001 	lui	v0,0xb001
    985c:	01223021 	addu	a2,t1,v0
    9860:	94c30060 	lhu	v1,96(a2)
    9864:	24020008 	li	v0,8
    9868:	1443003b 	bne	v0,v1,0x9958
    986c:	00000000 	nop
    9870:	90c20062 	lbu	v0,98(a2)
    9874:	24030004 	li	v1,4
    9878:	00023902 	srl	a3,v0,0x4
    987c:	10e30015 	beq	a3,v1,0x98d4
    9880:	24020006 	li	v0,6
    9884:	14e20034 	bne	a3,v0,0x9958
    9888:	00000000 	nop
    988c:	8d0501ac 	lw	a1,428(t0)
    9890:	94c40066 	lhu	a0,102(a2)
    9894:	27828968 	addiu	v0,gp,-30360
    9898:	00052880 	sll	a1,a1,0x2
    989c:	3087ffff 	andi	a3,a0,0xffff
    98a0:	00a22821 	addu	a1,a1,v0
    98a4:	00071a00 	sll	v1,a3,0x8
    98a8:	8ca40000 	lw	a0,0(a1)
    98ac:	00071202 	srl	v0,a3,0x8
    98b0:	00431025 	or	v0,v0,v1
    98b4:	2442005e 	addiu	v0,v0,94
    98b8:	2403c000 	li	v1,-16384
    98bc:	3047ffff 	andi	a3,v0,0xffff
    98c0:	00832024 	and	a0,a0,v1
    98c4:	00872025 	or	a0,a0,a3
    98c8:	aca40000 	sw	a0,0(a1)
    98cc:	08002676 	j	0x99d8
    98d0:	ad070010 	sw	a3,16(t0)
    98d4:	8d0501ac 	lw	a1,428(t0)
    98d8:	94c40064 	lhu	a0,100(a2)
    98dc:	27828968 	addiu	v0,gp,-30360
    98e0:	00052880 	sll	a1,a1,0x2
    98e4:	3087ffff 	andi	a3,a0,0xffff
    98e8:	00a22821 	addu	a1,a1,v0
    98ec:	00071a00 	sll	v1,a3,0x8
    98f0:	8ca40000 	lw	a0,0(a1)
    98f4:	00071202 	srl	v0,a3,0x8
    98f8:	00431025 	or	v0,v0,v1
    98fc:	24420036 	addiu	v0,v0,54
    9900:	3c03ffff 	lui	v1,0xffff
    9904:	3047ffff 	andi	a3,v0,0xffff
    9908:	00832024 	and	a0,a0,v1
    990c:	00872025 	or	a0,a0,a3
    9910:	aca40000 	sw	a0,0(a1)
    9914:	ad070010 	sw	a3,16(t0)
    9918:	03e00008 	jr	ra
    991c:	00000000 	nop
    9920:	94c20050 	lhu	v0,80(a2)
    9924:	08002634 	j	0x98d0
    9928:	3047ffff 	andi	a3,v0,0xffff
    992c:	8d0401ac 	lw	a0,428(t0)
    9930:	27838968 	addiu	v1,gp,-30360
    9934:	00042080 	sll	a0,a0,0x2
    9938:	00832021 	addu	a0,a0,v1
    993c:	8c820000 	lw	v0,0(a0)
    9940:	3c03ffff 	lui	v1,0xffff
    9944:	00431024 	and	v0,v0,v1
    9948:	3442002e 	ori	v0,v0,0x2e
    994c:	ac820000 	sw	v0,0(a0)
    9950:	2403002e 	li	v1,46
    9954:	ad030010 	sw	v1,16(t0)
    9958:	03e00008 	jr	ra
    995c:	00000000 	nop
    9960:	8d0401ac 	lw	a0,428(t0)
    9964:	27838968 	addiu	v1,gp,-30360
    9968:	00042080 	sll	a0,a0,0x2
    996c:	00832021 	addu	a0,a0,v1
    9970:	8c820000 	lw	v0,0(a0)
    9974:	3c03ffff 	lui	v1,0xffff
    9978:	00431024 	and	v0,v0,v1
    997c:	3442000e 	ori	v0,v0,0xe
    9980:	2403000e 	li	v1,14
    9984:	08002675 	j	0x99d4
    9988:	ac820000 	sw	v0,0(a0)
    998c:	8d0401ac 	lw	a0,428(t0)
    9990:	27838968 	addiu	v1,gp,-30360
    9994:	00042080 	sll	a0,a0,0x2
    9998:	00832021 	addu	a0,a0,v1
    999c:	8c820000 	lw	v0,0(a0)
    99a0:	3c03ffff 	lui	v1,0xffff
    99a4:	00431024 	and	v0,v0,v1
    99a8:	34420014 	ori	v0,v0,0x14
    99ac:	24030014 	li	v1,20
    99b0:	08002675 	j	0x99d4
    99b4:	ac820000 	sw	v0,0(a0)
    99b8:	03e00008 	jr	ra
    99bc:	00000000 	nop
    99c0:	30c600ff 	andi	a2,a2,0xff
    99c4:	00064840 	sll	t1,a2,0x1
    99c8:	01261021 	addu	v0,t1,a2
    99cc:	00021080 	sll	v0,v0,0x2
    99d0:	278bbc30 	addiu	t3,gp,-17360
    99d4:	2783bc36 	addiu	v1,gp,-17354
    99d8:	004b4021 	addu	t0,v0,t3
    99dc:	00431021 	addu	v0,v0,v1
    99e0:	94470000 	lhu	a3,0(v0)
    99e4:	30a23fff 	andi	v0,a1,0x3fff
    99e8:	10e20029 	beq	a3,v0,0x9a90
    99ec:	308affff 	andi	t2,a0,0xffff
    99f0:	95020002 	lhu	v0,2(t0)
    99f4:	24030001 	li	v1,1
    99f8:	00021182 	srl	v0,v0,0x6
    99fc:	30420001 	andi	v0,v0,0x1
    9a00:	10430018 	beq	v0,v1,0x9a64
    9a04:	00000000 	nop
    9a08:	01261021 	addu	v0,t1,a2
    9a0c:	00021080 	sll	v0,v0,0x2
    9a10:	004b3021 	addu	a2,v0,t3
    9a14:	94c40002 	lhu	a0,2(a2)
    9a18:	2783bc36 	addiu	v1,gp,-17354
    9a1c:	2785bc34 	addiu	a1,gp,-17356
    9a20:	00452821 	addu	a1,v0,a1
    9a24:	3084ffdf 	andi	a0,a0,0xffdf
    9a28:	00431021 	addu	v0,v0,v1
    9a2c:	a4c40002 	sh	a0,2(a2)
    9a30:	a4400000 	sh	zero,0(v0)
    9a34:	a4a00000 	sh	zero,0(a1)
    9a38:	94c30002 	lhu	v1,2(a2)
    9a3c:	3c04b001 	lui	a0,0xb001
    9a40:	01442021 	addu	a0,t2,a0
    9a44:	3063ffbf 	andi	v1,v1,0xffbf
    9a48:	a4c30002 	sh	v1,2(a2)
    9a4c:	a0c00000 	sb	zero,0(a2)
    9a50:	8c820004 	lw	v0,4(a0)
    9a54:	2403f0ff 	li	v1,-3841
    9a58:	00431024 	and	v0,v0,v1
    9a5c:	03e00008 	jr	ra
    9a60:	ac820004 	sw	v0,4(a0)
    9a64:	2402c000 	li	v0,-16384
    9a68:	91040001 	lbu	a0,1(t0)
    9a6c:	00a21024 	and	v0,a1,v0
    9a70:	00472825 	or	a1,v0,a3
    9a74:	3c03b001 	lui	v1,0xb001
    9a78:	24020002 	li	v0,2
    9a7c:	1482ffe2 	bne	a0,v0,0x9a08
    9a80:	01431821 	addu	v1,t2,v1
    9a84:	ac650000 	sw	a1,0(v1)
    9a88:	080026a3 	j	0x9a8c
    9a8c:	01261021 	addu	v0,t1,a2
    9a90:	080026a3 	j	0x9a8c
    9a94:	01261021 	addu	v0,t1,a2
    9a98:	938381f1 	lbu	v1,-32271(gp)
    9a9c:	24020001 	li	v0,1
    9aa0:	1462000d 	bne	v1,v0,0x9ad8
    9aa4:	3c02b001 	lui	v0,0xb001
    9aa8:	8c840004 	lw	a0,4(a0)
    9aac:	3c06b009 	lui	a2,0xb009
    9ab0:	00822021 	addu	a0,a0,v0
    9ab4:	8c850008 	lw	a1,8(a0)
    9ab8:	8c830004 	lw	v1,4(a0)
    9abc:	3c020100 	lui	v0,0x100
    9ac0:	34c60100 	ori	a2,a2,0x100
    9ac4:	00621824 	and	v1,v1,v0
    9ac8:	14600005 	bnez	v1,0x9ae0
    9acc:	30a52000 	andi	a1,a1,0x2000
    9ad0:	24020006 	li	v0,6
    9ad4:	a0c20000 	sb	v0,0(a2)
    9ad8:	03e00008 	jr	ra
    9adc:	00000000 	nop
    9ae0:	3c03b009 	lui	v1,0xb009
    9ae4:	10a0fffc 	beqz	a1,0x9ad8
    9ae8:	34630100 	ori	v1,v1,0x100
    9aec:	2402000e 	li	v0,14
    9af0:	080026d6 	j	0x9b58
    9af4:	a0620000 	sb	v0,0(v1)
    9af8:	3c02b001 	lui	v0,0xb001
    9afc:	30a5ffff 	andi	a1,a1,0xffff
    9b00:	00a22821 	addu	a1,a1,v0
    9b04:	8ca30000 	lw	v1,0(a1)
    9b08:	3c021000 	lui	v0,0x1000
    9b0c:	00803021 	move	a2,a0
    9b10:	00621824 	and	v1,v1,v0
    9b14:	8ca20004 	lw	v0,4(a1)
    9b18:	10600004 	beqz	v1,0x9b2c
    9b1c:	00000000 	nop
    9b20:	30428000 	andi	v0,v0,0x8000
    9b24:	10400013 	beqz	v0,0x9b74
    9b28:	00000000 	nop
    9b2c:	8cc201a8 	lw	v0,424(a2)
    9b30:	00000000 	nop
    9b34:	24440001 	addiu	a0,v0,1
    9b38:	28830000 	slti	v1,a0,0
    9b3c:	24420040 	addiu	v0,v0,64
    9b40:	0083100a 	.word	0x83100a
    9b44:	938381f0 	lbu	v1,-32272(gp)
    9b48:	00021183 	sra	v0,v0,0x6
    9b4c:	00021180 	sll	v0,v0,0x6
    9b50:	00822023 	subu	a0,a0,v0
    9b54:	2463ffff 	addiu	v1,v1,-1
    9b58:	acc401a8 	sw	a0,424(a2)
    9b5c:	a38381f0 	sb	v1,-32272(gp)
    9b60:	8cc401ac 	lw	a0,428(a2)
    9b64:	8cc201a8 	lw	v0,424(a2)
    9b68:	00000000 	nop
    9b6c:	00441026 	xor	v0,v0,a0
    9b70:	0002102b 	sltu	v0,zero,v0
    9b74:	03e00008 	jr	ra
    9b78:	00000000 	nop
    9b7c:	3c03b003 	lui	v1,0xb003
    9b80:	34630073 	ori	v1,v1,0x73
    9b84:	90620000 	lbu	v0,0(v1)
    9b88:	00000000 	nop
    9b8c:	30420001 	andi	v0,v0,0x1
    9b90:	14400004 	bnez	v0,0x9ba4
    9b94:	00000000 	nop
    9b98:	a38081f1 	sb	zero,-32271(gp)
    9b9c:	03e00008 	jr	ra
    9ba0:	00000000 	nop
    9ba4:	24020001 	li	v0,1
    9ba8:	a38281f1 	sb	v0,-32271(gp)
    9bac:	03e00008 	jr	ra
    9bb0:	00000000 	nop
    9bb4:	8c820004 	lw	v0,4(a0)
    9bb8:	3c05b001 	lui	a1,0xb001
    9bbc:	00805021 	move	t2,a0
    9bc0:	00451021 	addu	v0,v0,a1
    9bc4:	8c430004 	lw	v1,4(v0)
    9bc8:	24020005 	li	v0,5
    9bcc:	00031a02 	srl	v1,v1,0x8
    9bd0:	3069000f 	andi	t1,v1,0xf
    9bd4:	1122000b 	beq	t1,v0,0x9c04
    9bd8:	24020007 	li	v0,7
    9bdc:	11220009 	beq	t1,v0,0x9c04
    9be0:	2402000a 	li	v0,10
    9be4:	11220007 	beq	t1,v0,0x9c04
    9be8:	2402000b 	li	v0,11
    9bec:	11220005 	beq	t1,v0,0x9c04
    9bf0:	24020001 	li	v0,1
    9bf4:	938381f0 	lbu	v1,-32272(gp)
    9bf8:	3c04b006 	lui	a0,0xb006
    9bfc:	10620003 	beq	v1,v0,0x9c0c
    9c00:	34848018 	ori	a0,a0,0x8018
    9c04:	03e00008 	jr	ra
    9c08:	00000000 	nop
    9c0c:	8c820000 	lw	v0,0(a0)
    9c10:	00000000 	nop
    9c14:	00021702 	srl	v0,v0,0x1c
    9c18:	1440fffa 	bnez	v0,0x9c04
    9c1c:	00000000 	nop
    9c20:	8d4301a8 	lw	v1,424(t2)
    9c24:	27828968 	addiu	v0,gp,-30360
    9c28:	00031880 	sll	v1,v1,0x2
    9c2c:	006a2021 	addu	a0,v1,t2
    9c30:	8c8700a8 	lw	a3,168(a0)
    9c34:	00621821 	addu	v1,v1,v0
    9c38:	8c680000 	lw	t0,0(v1)
    9c3c:	00e52821 	addu	a1,a3,a1
    9c40:	8ca90000 	lw	t1,0(a1)
    9c44:	3c02ffff 	lui	v0,0xffff
    9c48:	27838a68 	addiu	v1,gp,-30104
    9c4c:	01221024 	and	v0,t1,v0
    9c50:	00481025 	or	v0,v0,t0
    9c54:	aca20000 	sw	v0,0(a1)
    9c58:	8d4401a8 	lw	a0,424(t2)
    9c5c:	000730c2 	srl	a2,a3,0x3
    9c60:	3c020080 	lui	v0,0x80
    9c64:	00042080 	sll	a0,a0,0x2
    9c68:	00832021 	addu	a0,a0,v1
    9c6c:	00063200 	sll	a2,a2,0x8
    9c70:	8ca90004 	lw	t1,4(a1)
    9c74:	00c23025 	or	a2,a2,v0
    9c78:	8c820000 	lw	v0,0(a0)
    9c7c:	3c038000 	lui	v1,0x8000
    9c80:	01221025 	or	v0,t1,v0
    9c84:	00431025 	or	v0,v0,v1
    9c88:	aca20004 	sw	v0,4(a1)
    9c8c:	af87bc20 	sw	a3,-17376(gp)
    9c90:	8ca20000 	lw	v0,0(a1)
    9c94:	00000000 	nop
    9c98:	af82bc28 	sw	v0,-17368(gp)
    9c9c:	8ca30004 	lw	v1,4(a1)
    9ca0:	3c01b007 	lui	at,0xb007
    9ca4:	ac268018 	sw	a2,-32744(at)
    9ca8:	8d4201a8 	lw	v0,424(t2)
    9cac:	af83bc24 	sw	v1,-17372(gp)
    9cb0:	938581f0 	lbu	a1,-32272(gp)
    9cb4:	24440001 	addiu	a0,v0,1
    9cb8:	28830000 	slti	v1,a0,0
    9cbc:	24420040 	addiu	v0,v0,64
    9cc0:	0083100a 	.word	0x83100a
    9cc4:	00021183 	sra	v0,v0,0x6
    9cc8:	00021180 	sll	v0,v0,0x6
    9ccc:	24a5ffff 	addiu	a1,a1,-1
    9cd0:	00822023 	subu	a0,a0,v0
    9cd4:	ad4401a8 	sw	a0,424(t2)
    9cd8:	a38581f0 	sb	a1,-32272(gp)
    9cdc:	08002721 	j	0x9c84
    9ce0:	00000000 	nop
    9ce4:	3c05b003 	lui	a1,0xb003
    9ce8:	3c028001 	lui	v0,0x8001
    9cec:	34a50020 	ori	a1,a1,0x20
    9cf0:	24429d64 	addiu	v0,v0,-25244
    9cf4:	aca20000 	sw	v0,0(a1)
    9cf8:	24020002 	li	v0,2
    9cfc:	24030020 	li	v1,32
    9d00:	ac820064 	sw	v0,100(a0)
    9d04:	3c028001 	lui	v0,0x8001
    9d08:	ac830060 	sw	v1,96(a0)
    9d0c:	ac800000 	sw	zero,0(a0)
    9d10:	ac800004 	sw	zero,4(a0)
    9d14:	ac800008 	sw	zero,8(a0)
    9d18:	ac80004c 	sw	zero,76(a0)
    9d1c:	ac800050 	sw	zero,80(a0)
    9d20:	ac800054 	sw	zero,84(a0)
    9d24:	ac80000c 	sw	zero,12(a0)
    9d28:	ac800058 	sw	zero,88(a0)
    9d2c:	a080005c 	sb	zero,92(a0)
    9d30:	24429e28 	addiu	v0,v0,-25048
    9d34:	24830068 	addiu	v1,a0,104
    9d38:	2405000f 	li	a1,15
    9d3c:	24a5ffff 	addiu	a1,a1,-1
    9d40:	ac620000 	sw	v0,0(v1)
    9d44:	04a1fffd 	bgez	a1,0x9d3c
    9d48:	24630004 	addiu	v1,v1,4
    9d4c:	3c028001 	lui	v0,0x8001
    9d50:	24429f4c 	addiu	v0,v0,-24756
    9d54:	ac820078 	sw	v0,120(a0)
    9d58:	3c038001 	lui	v1,0x8001
    9d5c:	3c028001 	lui	v0,0x8001
    9d60:	2463a0d8 	addiu	v1,v1,-24360
    9d64:	2442a044 	addiu	v0,v0,-24508
    9d68:	ac830088 	sw	v1,136(a0)
    9d6c:	ac820098 	sw	v0,152(a0)
    9d70:	3c038001 	lui	v1,0x8001
    9d74:	3c028001 	lui	v0,0x8001
    9d78:	2463a180 	addiu	v1,v1,-24192
    9d7c:	2442a298 	addiu	v0,v0,-23912
    9d80:	ac8300a0 	sw	v1,160(a0)
    9d84:	ac8200a4 	sw	v0,164(a0)
    9d88:	a08001ba 	sb	zero,442(a0)
    9d8c:	ac8001a8 	sw	zero,424(a0)
    9d90:	ac8001ac 	sw	zero,428(a0)
    9d94:	ac8001b0 	sw	zero,432(a0)
    9d98:	ac8001b4 	sw	zero,436(a0)
    9d9c:	a08001b8 	sb	zero,440(a0)
    9da0:	03e00008 	jr	ra
    9da4:	a08001b9 	sb	zero,441(a0)
    9da8:	3c03b003 	lui	v1,0xb003
    9dac:	3c028001 	lui	v0,0x8001
    9db0:	34630020 	ori	v1,v1,0x20
    9db4:	24429e28 	addiu	v0,v0,-25048
    9db8:	03e00008 	jr	ra
    9dbc:	ac620000 	sw	v0,0(v1)
    9dc0:	938581f1 	lbu	a1,-32271(gp)
    9dc4:	3c03b003 	lui	v1,0xb003
    9dc8:	3c028001 	lui	v0,0x8001
    9dcc:	24429e40 	addiu	v0,v0,-25024
    9dd0:	34630020 	ori	v1,v1,0x20
    9dd4:	ac620000 	sw	v0,0(v1)
    9dd8:	24020001 	li	v0,1
    9ddc:	10a2000c 	beq	a1,v0,0x9e10
    9de0:	00803021 	move	a2,a0
    9de4:	8c820004 	lw	v0,4(a0)
    9de8:	3c03b001 	lui	v1,0xb001
    9dec:	00431021 	addu	v0,v0,v1
    9df0:	8c440000 	lw	a0,0(v0)
    9df4:	00000000 	nop
    9df8:	00041c02 	srl	v1,a0,0x10
    9dfc:	306300ff 	andi	v1,v1,0xff
    9e00:	30823fff 	andi	v0,a0,0x3fff
    9e04:	acc20010 	sw	v0,16(a2)
    9e08:	acc40040 	sw	a0,64(a2)
    9e0c:	acc30014 	sw	v1,20(a2)
    9e10:	8cc20010 	lw	v0,16(a2)
    9e14:	00000000 	nop
    9e18:	10400011 	beqz	v0,0x9e60
    9e1c:	00000000 	nop
    9e20:	8cc20014 	lw	v0,20(a2)
    9e24:	00000000 	nop
    9e28:	1040000d 	beqz	v0,0x9e60
    9e2c:	00000000 	nop
    9e30:	8cc40010 	lw	a0,16(a2)
    9e34:	8cc30014 	lw	v1,20(a2)
    9e38:	8cc20004 	lw	v0,4(a2)
    9e3c:	00832021 	addu	a0,a0,v1
    9e40:	00441021 	addu	v0,v0,a0
    9e44:	304300ff 	andi	v1,v0,0xff
    9e48:	0003182b 	sltu	v1,zero,v1
    9e4c:	00021202 	srl	v0,v0,0x8
    9e50:	00431021 	addu	v0,v0,v1
    9e54:	00021200 	sll	v0,v0,0x8
    9e58:	30423fff 	andi	v0,v0,0x3fff
    9e5c:	acc20004 	sw	v0,4(a2)
    9e60:	acc0004c 	sw	zero,76(a2)
    9e64:	acc00000 	sw	zero,0(a2)
    9e68:	acc00050 	sw	zero,80(a2)
    9e6c:	acc00054 	sw	zero,84(a2)
    9e70:	03e00008 	jr	ra
    9e74:	acc0000c 	sw	zero,12(a2)
    9e78:	3c03b003 	lui	v1,0xb003
    9e7c:	3c028001 	lui	v0,0x8001
    9e80:	34630020 	ori	v1,v1,0x20
    9e84:	24429ef8 	addiu	v0,v0,-24840
    9e88:	ac620000 	sw	v0,0(v1)
    9e8c:	8c860004 	lw	a2,4(a0)
    9e90:	3c02b001 	lui	v0,0xb001
    9e94:	24030001 	li	v1,1
    9e98:	00c21021 	addu	v0,a2,v0
    9e9c:	8c450000 	lw	a1,0(v0)
    9ea0:	ac83004c 	sw	v1,76(a0)
    9ea4:	00051402 	srl	v0,a1,0x10
    9ea8:	30a33fff 	andi	v1,a1,0x3fff
    9eac:	304200ff 	andi	v0,v0,0xff
    9eb0:	ac830010 	sw	v1,16(a0)
    9eb4:	ac820014 	sw	v0,20(a0)
    9eb8:	8c830014 	lw	v1,20(a0)
    9ebc:	ac850040 	sw	a1,64(a0)
    9ec0:	00c33021 	addu	a2,a2,v1
    9ec4:	03e00008 	jr	ra
    9ec8:	ac860008 	sw	a2,8(a0)
    9ecc:	3c02b003 	lui	v0,0xb003
    9ed0:	3c038001 	lui	v1,0x8001
    9ed4:	27bdffe8 	addiu	sp,sp,-24
    9ed8:	34420020 	ori	v0,v0,0x20
    9edc:	24639f4c 	addiu	v1,v1,-24756
    9ee0:	afb00010 	sw	s0,16(sp)
    9ee4:	afbf0014 	sw	ra,20(sp)
    9ee8:	ac430000 	sw	v1,0(v0)
    9eec:	8c82004c 	lw	v0,76(a0)
    9ef0:	00000000 	nop
    9ef4:	1040000a 	beqz	v0,0x9f20
    9ef8:	00808021 	move	s0,a0
    9efc:	ae000000 	sw	zero,0(s0)
    9f00:	ae00004c 	sw	zero,76(s0)
    9f04:	ae000050 	sw	zero,80(s0)
    9f08:	ae000054 	sw	zero,84(s0)
    9f0c:	ae00000c 	sw	zero,12(s0)
    9f10:	8fbf0014 	lw	ra,20(sp)
    9f14:	8fb00010 	lw	s0,16(sp)
    9f18:	03e00008 	jr	ra
    9f1c:	27bd0018 	addiu	sp,sp,24
    9f20:	0c0027be 	jal	0x9ef8
    9f24:	00000000 	nop
    9f28:	080027e0 	j	0x9f80
    9f2c:	ae000000 	sw	zero,0(s0)
    9f30:	3c02b003 	lui	v0,0xb003
    9f34:	3c038001 	lui	v1,0x8001
    9f38:	27bdffe8 	addiu	sp,sp,-24
    9f3c:	34420020 	ori	v0,v0,0x20
    9f40:	24639fb0 	addiu	v1,v1,-24656
    9f44:	afb00010 	sw	s0,16(sp)
    9f48:	afbf0014 	sw	ra,20(sp)
    9f4c:	ac430000 	sw	v1,0(v0)
    9f50:	8c82004c 	lw	v0,76(a0)
    9f54:	00000000 	nop
    9f58:	10400016 	beqz	v0,0x9fb4
    9f5c:	00808021 	move	s0,a0
    9f60:	8e030008 	lw	v1,8(s0)
    9f64:	3c02b001 	lui	v0,0xb001
    9f68:	8e040044 	lw	a0,68(s0)
    9f6c:	00621821 	addu	v1,v1,v0
    9f70:	90650000 	lbu	a1,0(v1)
    9f74:	24020001 	li	v0,1
    9f78:	ae020050 	sw	v0,80(s0)
    9f7c:	30a300ff 	andi	v1,a1,0xff
    9f80:	00031082 	srl	v0,v1,0x2
    9f84:	00042302 	srl	a0,a0,0xc
    9f88:	3084000f 	andi	a0,a0,0xf
    9f8c:	30420003 	andi	v0,v0,0x3
    9f90:	00031902 	srl	v1,v1,0x4
    9f94:	ae040034 	sw	a0,52(s0)
    9f98:	ae02002c 	sw	v0,44(s0)
    9f9c:	ae030030 	sw	v1,48(s0)
    9fa0:	a2050048 	sb	a1,72(s0)
    9fa4:	8fbf0014 	lw	ra,20(sp)
    9fa8:	8fb00010 	lw	s0,16(sp)
    9fac:	03e00008 	jr	ra
    9fb0:	27bd0018 	addiu	sp,sp,24
    9fb4:	0c0027be 	jal	0x9ef8
    9fb8:	00000000 	nop
    9fbc:	080027f8 	j	0x9fe0
    9fc0:	00000000 	nop
    9fc4:	3c02b003 	lui	v0,0xb003
    9fc8:	3c038001 	lui	v1,0x8001
    9fcc:	27bdffe8 	addiu	sp,sp,-24
    9fd0:	34420020 	ori	v0,v0,0x20
    9fd4:	2463a044 	addiu	v1,v1,-24508
    9fd8:	afb00010 	sw	s0,16(sp)
    9fdc:	afbf0014 	sw	ra,20(sp)
    9fe0:	ac430000 	sw	v1,0(v0)
    9fe4:	8c820050 	lw	v0,80(a0)
    9fe8:	00000000 	nop
    9fec:	10400016 	beqz	v0,0xa048
    9ff0:	00808021 	move	s0,a0
    9ff4:	92030044 	lbu	v1,68(s0)
    9ff8:	8e020040 	lw	v0,64(s0)
    9ffc:	83858bd4 	lb	a1,-29740(gp)
    a000:	92040041 	lbu	a0,65(s0)
    a004:	30630001 	andi	v1,v1,0x1
    a008:	00021602 	srl	v0,v0,0x18
    a00c:	ae040014 	sw	a0,20(s0)
    a010:	00003021 	move	a2,zero
    a014:	ae020018 	sw	v0,24(s0)
    a018:	10a00004 	beqz	a1,0xa02c
    a01c:	ae03003c 	sw	v1,60(s0)
    a020:	10600003 	beqz	v1,0xa030
    a024:	24020001 	li	v0,1
    a028:	24060001 	li	a2,1
    a02c:	24020001 	li	v0,1
    a030:	a3868bd4 	sb	a2,-29740(gp)
    a034:	8fbf0014 	lw	ra,20(sp)
    a038:	ae020054 	sw	v0,84(s0)
    a03c:	8fb00010 	lw	s0,16(sp)
    a040:	03e00008 	jr	ra
    a044:	27bd0018 	addiu	sp,sp,24
    a048:	0c0027ec 	jal	0x9fb0
    a04c:	00000000 	nop
    a050:	0800281d 	j	0xa074
    a054:	00000000 	nop
    a058:	3c02b003 	lui	v0,0xb003
    a05c:	3c038001 	lui	v1,0x8001
    a060:	27bdffe8 	addiu	sp,sp,-24
    a064:	34420020 	ori	v0,v0,0x20
    a068:	2463a0d8 	addiu	v1,v1,-24360
    a06c:	afb00010 	sw	s0,16(sp)
    a070:	afbf0014 	sw	ra,20(sp)
    a074:	ac430000 	sw	v1,0(v0)
    a078:	8c820050 	lw	v0,80(a0)
    a07c:	00000000 	nop
    a080:	1040001b 	beqz	v0,0xa0f0
    a084:	00808021 	move	s0,a0
    a088:	3c02b003 	lui	v0,0xb003
    a08c:	8c420000 	lw	v0,0(v0)
    a090:	92040044 	lbu	a0,68(s0)
    a094:	8e030040 	lw	v1,64(s0)
    a098:	83868bd4 	lb	a2,-29740(gp)
    a09c:	92050041 	lbu	a1,65(s0)
    a0a0:	30420800 	andi	v0,v0,0x800
    a0a4:	30840001 	andi	a0,a0,0x1
    a0a8:	000212c2 	srl	v0,v0,0xb
    a0ac:	00031e02 	srl	v1,v1,0x18
    a0b0:	00822025 	or	a0,a0,v0
    a0b4:	ae050014 	sw	a1,20(s0)
    a0b8:	00003821 	move	a3,zero
    a0bc:	ae030018 	sw	v1,24(s0)
    a0c0:	10c00004 	beqz	a2,0xa0d4
    a0c4:	ae04003c 	sw	a0,60(s0)
    a0c8:	10800003 	beqz	a0,0xa0d8
    a0cc:	24020001 	li	v0,1
    a0d0:	24070001 	li	a3,1
    a0d4:	24020001 	li	v0,1
    a0d8:	a3878bd4 	sb	a3,-29740(gp)
    a0dc:	8fbf0014 	lw	ra,20(sp)
    a0e0:	ae020054 	sw	v0,84(s0)
    a0e4:	8fb00010 	lw	s0,16(sp)
    a0e8:	03e00008 	jr	ra
    a0ec:	27bd0018 	addiu	sp,sp,24
    a0f0:	0c0027ec 	jal	0x9fb0
    a0f4:	00000000 	nop
    a0f8:	08002842 	j	0xa108
    a0fc:	00000000 	nop
    a100:	3c02b003 	lui	v0,0xb003
    a104:	3c038001 	lui	v1,0x8001
    a108:	27bdffe8 	addiu	sp,sp,-24
    a10c:	34420020 	ori	v0,v0,0x20
    a110:	2463a180 	addiu	v1,v1,-24192
    a114:	afb00010 	sw	s0,16(sp)
    a118:	afbf0014 	sw	ra,20(sp)
    a11c:	ac430000 	sw	v1,0(v0)
    a120:	8c820054 	lw	v0,84(a0)
    a124:	00000000 	nop
    a128:	10400037 	beqz	v0,0xa208
    a12c:	00808021 	move	s0,a0
    a130:	8e040004 	lw	a0,4(s0)
    a134:	8e030044 	lw	v1,68(s0)
    a138:	3c028000 	lui	v0,0x8000
    a13c:	3c05b001 	lui	a1,0xb001
    a140:	34420010 	ori	v0,v0,0x10
    a144:	00852021 	addu	a0,a0,a1
    a148:	00621825 	or	v1,v1,v0
    a14c:	ac830004 	sw	v1,4(a0)
    a150:	8e020004 	lw	v0,4(s0)
    a154:	8e0301ac 	lw	v1,428(s0)
    a158:	02002021 	move	a0,s0
    a15c:	00451021 	addu	v0,v0,a1
    a160:	8c460000 	lw	a2,0(v0)
    a164:	00031880 	sll	v1,v1,0x2
    a168:	27828968 	addiu	v0,gp,-30360
    a16c:	00621821 	addu	v1,v1,v0
    a170:	ac660000 	sw	a2,0(v1)
    a174:	8e020004 	lw	v0,4(s0)
    a178:	8e0301ac 	lw	v1,428(s0)
    a17c:	00451021 	addu	v0,v0,a1
    a180:	8c460004 	lw	a2,4(v0)
    a184:	00031880 	sll	v1,v1,0x2
    a188:	27828a68 	addiu	v0,gp,-30104
    a18c:	00621821 	addu	v1,v1,v0
    a190:	0c002610 	jal	0x9840
    a194:	ac660000 	sw	a2,0(v1)
    a198:	8e0301ac 	lw	v1,428(s0)
    a19c:	8e070004 	lw	a3,4(s0)
    a1a0:	3c06b003 	lui	a2,0xb003
    a1a4:	24650001 	addiu	a1,v1,1
    a1a8:	28a40000 	slti	a0,a1,0
    a1ac:	24620040 	addiu	v0,v1,64
    a1b0:	00a4100a 	.word	0xa4100a
    a1b4:	00021183 	sra	v0,v0,0x6
    a1b8:	00021180 	sll	v0,v0,0x6
    a1bc:	00031880 	sll	v1,v1,0x2
    a1c0:	00a22823 	subu	a1,a1,v0
    a1c4:	00701821 	addu	v1,v1,s0
    a1c8:	ae0501ac 	sw	a1,428(s0)
    a1cc:	ac6700a8 	sw	a3,168(v1)
    a1d0:	34c60030 	ori	a2,a2,0x30
    a1d4:	8cc30000 	lw	v1,0(a2)
    a1d8:	938281f0 	lbu	v0,-32272(gp)
    a1dc:	02002021 	move	a0,s0
    a1e0:	24630001 	addiu	v1,v1,1
    a1e4:	24420001 	addiu	v0,v0,1
    a1e8:	acc30000 	sw	v1,0(a2)
    a1ec:	a38281f0 	sb	v0,-32272(gp)
    a1f0:	0c002790 	jal	0x9e40
    a1f4:	00000000 	nop
    a1f8:	8fbf0014 	lw	ra,20(sp)
    a1fc:	8fb00010 	lw	s0,16(sp)
    a200:	03e00008 	jr	ra
    a204:	27bd0018 	addiu	sp,sp,24
    a208:	0c002836 	jal	0xa0d8
    a20c:	00000000 	nop
    a210:	0800286c 	j	0xa1b0
    a214:	00000000 	nop
    a218:	3c02b003 	lui	v0,0xb003
    a21c:	3c038001 	lui	v1,0x8001
    a220:	27bdffe8 	addiu	sp,sp,-24
    a224:	34420020 	ori	v0,v0,0x20
    a228:	2463a298 	addiu	v1,v1,-23912
    a22c:	afb00010 	sw	s0,16(sp)
    a230:	afbf0014 	sw	ra,20(sp)
    a234:	ac430000 	sw	v1,0(v0)
    a238:	8c820054 	lw	v0,84(a0)
    a23c:	00000000 	nop
    a240:	10400037 	beqz	v0,0xa320
    a244:	00808021 	move	s0,a0
    a248:	8e040004 	lw	a0,4(s0)
    a24c:	8e030044 	lw	v1,68(s0)
    a250:	3c028000 	lui	v0,0x8000
    a254:	3c05b001 	lui	a1,0xb001
    a258:	34420010 	ori	v0,v0,0x10
    a25c:	00852021 	addu	a0,a0,a1
    a260:	00621825 	or	v1,v1,v0
    a264:	ac830004 	sw	v1,4(a0)
    a268:	8e020004 	lw	v0,4(s0)
    a26c:	8e0301ac 	lw	v1,428(s0)
    a270:	02002021 	move	a0,s0
    a274:	00451021 	addu	v0,v0,a1
    a278:	8c460000 	lw	a2,0(v0)
    a27c:	00031880 	sll	v1,v1,0x2
    a280:	27828968 	addiu	v0,gp,-30360
    a284:	00621821 	addu	v1,v1,v0
    a288:	ac660000 	sw	a2,0(v1)
    a28c:	8e020004 	lw	v0,4(s0)
    a290:	8e0301ac 	lw	v1,428(s0)
    a294:	00451021 	addu	v0,v0,a1
    a298:	8c460004 	lw	a2,4(v0)
    a29c:	00031880 	sll	v1,v1,0x2
    a2a0:	27828a68 	addiu	v0,gp,-30104
    a2a4:	00621821 	addu	v1,v1,v0
    a2a8:	0c002610 	jal	0x9840
    a2ac:	ac660000 	sw	a2,0(v1)
    a2b0:	8e0301ac 	lw	v1,428(s0)
    a2b4:	8e070004 	lw	a3,4(s0)
    a2b8:	3c06b003 	lui	a2,0xb003
    a2bc:	24650001 	addiu	a1,v1,1
    a2c0:	28a40000 	slti	a0,a1,0
    a2c4:	24620040 	addiu	v0,v1,64
    a2c8:	00a4100a 	.word	0xa4100a
    a2cc:	00021183 	sra	v0,v0,0x6
    a2d0:	00021180 	sll	v0,v0,0x6
    a2d4:	00031880 	sll	v1,v1,0x2
    a2d8:	00a22823 	subu	a1,a1,v0
    a2dc:	00701821 	addu	v1,v1,s0
    a2e0:	ae0501ac 	sw	a1,428(s0)
    a2e4:	ac6700a8 	sw	a3,168(v1)
    a2e8:	34c60030 	ori	a2,a2,0x30
    a2ec:	8cc30000 	lw	v1,0(a2)
    a2f0:	938281f0 	lbu	v0,-32272(gp)
    a2f4:	02002021 	move	a0,s0
    a2f8:	24630001 	addiu	v1,v1,1
    a2fc:	24420001 	addiu	v0,v0,1
    a300:	acc30000 	sw	v1,0(a2)
    a304:	a38281f0 	sb	v0,-32272(gp)
    a308:	0c002790 	jal	0x9e40
    a30c:	00000000 	nop
    a310:	8fbf0014 	lw	ra,20(sp)
    a314:	8fb00010 	lw	s0,16(sp)
    a318:	03e00008 	jr	ra
    a31c:	27bd0018 	addiu	sp,sp,24
    a320:	0c002836 	jal	0xa0d8
    a324:	00000000 	nop
    a328:	080028b2 	j	0xa2c8
    a32c:	00000000 	nop
    a330:	3c02b003 	lui	v0,0xb003
    a334:	3c038001 	lui	v1,0x8001
    a338:	34420020 	ori	v0,v0,0x20
    a33c:	2463a3b0 	addiu	v1,v1,-23632
    a340:	27bdffe0 	addiu	sp,sp,-32
    a344:	ac430000 	sw	v1,0(v0)
    a348:	3c028001 	lui	v0,0x8001
    a34c:	afb20018 	sw	s2,24(sp)
    a350:	afb10014 	sw	s1,20(sp)
    a354:	afb00010 	sw	s0,16(sp)
    a358:	afbf001c 	sw	ra,28(sp)
    a35c:	00808021 	move	s0,a0
    a360:	24529e28 	addiu	s2,v0,-25048
    a364:	00008821 	move	s1,zero
    a368:	3c03b009 	lui	v1,0xb009
    a36c:	34630006 	ori	v1,v1,0x6
    a370:	8e060004 	lw	a2,4(s0)
    a374:	90620000 	lbu	v0,0(v1)
    a378:	00062202 	srl	a0,a2,0x8
    a37c:	00441023 	subu	v0,v0,a0
    a380:	24440040 	addiu	a0,v0,64
    a384:	28830000 	slti	v1,a0,0
    a388:	2442007f 	addiu	v0,v0,127
    a38c:	0083100a 	.word	0x83100a
    a390:	00021183 	sra	v0,v0,0x6
    a394:	00021180 	sll	v0,v0,0x6
    a398:	2484ffff 	addiu	a0,a0,-1
    a39c:	10440068 	beq	v0,a0,0xa540
    a3a0:	00002821 	move	a1,zero
    a3a4:	3c02b001 	lui	v0,0xb001
    a3a8:	00c21021 	addu	v0,a2,v0
    a3ac:	8c440004 	lw	a0,4(v0)
    a3b0:	3c037c00 	lui	v1,0x7c00
    a3b4:	346300f0 	ori	v1,v1,0xf0
    a3b8:	00831824 	and	v1,a0,v1
    a3bc:	ae040044 	sw	a0,68(s0)
    a3c0:	8c440000 	lw	a0,0(v0)
    a3c4:	10600069 	beqz	v1,0xa56c
    a3c8:	00003821 	move	a3,zero
    a3cc:	3c09b003 	lui	t1,0xb003
    a3d0:	3c067c00 	lui	a2,0x7c00
    a3d4:	35290099 	ori	t1,t1,0x99
    a3d8:	3c0ab001 	lui	t2,0xb001
    a3dc:	24080040 	li	t0,64
    a3e0:	34c600f0 	ori	a2,a2,0xf0
    a3e4:	3c0bffff 	lui	t3,0xffff
    a3e8:	3c0c2838 	lui	t4,0x2838
    a3ec:	16200006 	bnez	s1,0xa408
    a3f0:	24a50001 	addiu	a1,a1,1
    a3f4:	938281f6 	lbu	v0,-32266(gp)
    a3f8:	24110001 	li	s1,1
    a3fc:	24420001 	addiu	v0,v0,1
    a400:	a1220000 	sb	v0,0(t1)
    a404:	a38281f6 	sb	v0,-32266(gp)
    a408:	8e020004 	lw	v0,4(s0)
    a40c:	24070001 	li	a3,1
    a410:	24420100 	addiu	v0,v0,256
    a414:	30423fff 	andi	v0,v0,0x3fff
    a418:	ae020004 	sw	v0,4(s0)
    a41c:	004a1021 	addu	v0,v0,t2
    a420:	8c430004 	lw	v1,4(v0)
    a424:	00000000 	nop
    a428:	ae030044 	sw	v1,68(s0)
    a42c:	8c440000 	lw	a0,0(v0)
    a430:	10a8002d 	beq	a1,t0,0xa4e8
    a434:	00661824 	and	v1,v1,a2
    a438:	1460ffec 	bnez	v1,0xa3ec
    a43c:	008b1024 	and	v0,a0,t3
    a440:	144cffea 	bne	v0,t4,0xa3ec
    a444:	24020001 	li	v0,1
    a448:	10e2002f 	beq	a3,v0,0xa508
    a44c:	3c03b009 	lui	v1,0xb009
    a450:	8e020044 	lw	v0,68(s0)
    a454:	8e040060 	lw	a0,96(s0)
    a458:	00021e42 	srl	v1,v0,0x19
    a45c:	00021202 	srl	v0,v0,0x8
    a460:	3042000f 	andi	v0,v0,0xf
    a464:	30630001 	andi	v1,v1,0x1
    a468:	ae020000 	sw	v0,0(s0)
    a46c:	1044001a 	beq	v0,a0,0xa4d8
    a470:	ae030058 	sw	v1,88(s0)
    a474:	8e020064 	lw	v0,100(s0)
    a478:	8e040058 	lw	a0,88(s0)
    a47c:	00000000 	nop
    a480:	10820005 	beq	a0,v0,0xa498
    a484:	00000000 	nop
    a488:	ae00004c 	sw	zero,76(s0)
    a48c:	ae000050 	sw	zero,80(s0)
    a490:	ae000054 	sw	zero,84(s0)
    a494:	ae00000c 	sw	zero,12(s0)
    a498:	8e030000 	lw	v1,0(s0)
    a49c:	00000000 	nop
    a4a0:	00031080 	sll	v0,v1,0x2
    a4a4:	00501021 	addu	v0,v0,s0
    a4a8:	8c420068 	lw	v0,104(v0)
    a4ac:	00000000 	nop
    a4b0:	10520006 	beq	v0,s2,0xa4cc
    a4b4:	00000000 	nop
    a4b8:	0040f809 	jalr	v0
    a4bc:	02002021 	move	a0,s0
    a4c0:	8e040058 	lw	a0,88(s0)
    a4c4:	8e030000 	lw	v1,0(s0)
    a4c8:	00000000 	nop
    a4cc:	ae030060 	sw	v1,96(s0)
    a4d0:	080028fa 	j	0xa3e8
    a4d4:	ae040064 	sw	a0,100(s0)
    a4d8:	8e020064 	lw	v0,100(s0)
    a4dc:	00000000 	nop
    a4e0:	1462ffe5 	bne	v1,v0,0xa478
    a4e4:	00000000 	nop
    a4e8:	7a020d7c 	.word	0x7a020d7c
    a4ec:	8fbf001c 	lw	ra,28(sp)
    a4f0:	8fb20018 	lw	s2,24(sp)
    a4f4:	7bb000bc 	.word	0x7bb000bc
    a4f8:	00431026 	xor	v0,v0,v1
    a4fc:	0002102b 	sltu	v0,zero,v0
    a500:	03e00008 	jr	ra
    a504:	27bd0020 	addiu	sp,sp,32
    a508:	34630006 	ori	v1,v1,0x6
    a50c:	8e040004 	lw	a0,4(s0)
    a510:	90620000 	lbu	v0,0(v1)
    a514:	00042202 	srl	a0,a0,0x8
    a518:	00441023 	subu	v0,v0,a0
    a51c:	24440040 	addiu	a0,v0,64
    a520:	28830000 	slti	v1,a0,0
    a524:	2442007f 	addiu	v0,v0,127
    a528:	0083100a 	.word	0x83100a
    a52c:	00021183 	sra	v0,v0,0x6
    a530:	00021180 	sll	v0,v0,0x6
    a534:	00822023 	subu	a0,a0,v0
    a538:	1487ffc5 	bne	a0,a3,0xa450
    a53c:	00000000 	nop
    a540:	8e030000 	lw	v1,0(s0)
    a544:	00000000 	nop
    a548:	2c620003 	sltiu	v0,v1,3
    a54c:	14400005 	bnez	v0,0xa564
    a550:	2402000d 	li	v0,13
    a554:	10620003 	beq	v1,v0,0xa564
    a558:	24020001 	li	v0,1
    a55c:	0800295a 	j	0xa568
    a560:	a202005c 	sb	v0,92(s0)
    a564:	0800295a 	j	0xa568
    a568:	a200005c 	sb	zero,92(s0)
    a56c:	3c02ffff 	lui	v0,0xffff
    a570:	00821024 	and	v0,a0,v0
    a574:	3c032838 	lui	v1,0x2838
    a578:	1443ff94 	bne	v0,v1,0xa3cc
    a57c:	24020001 	li	v0,1
    a580:	08002932 	j	0xa4c8
    a584:	00000000 	nop
    a588:	3c02b003 	lui	v0,0xb003
    a58c:	3c038001 	lui	v1,0x8001
    a590:	34420020 	ori	v0,v0,0x20
    a594:	2463a608 	addiu	v1,v1,-23032
    a598:	ac430000 	sw	v1,0(v0)
    a59c:	8c8301a8 	lw	v1,424(a0)
    a5a0:	8c8201ac 	lw	v0,428(a0)
    a5a4:	00804021 	move	t0,a0
    a5a8:	10620020 	beq	v1,v0,0xa62c
    a5ac:	00002021 	move	a0,zero
    a5b0:	938281f1 	lbu	v0,-32271(gp)
    a5b4:	00032880 	sll	a1,v1,0x2
    a5b8:	3c07b006 	lui	a3,0xb006
    a5bc:	00a81821 	addu	v1,a1,t0
    a5c0:	24040001 	li	a0,1
    a5c4:	8c6600a8 	lw	a2,168(v1)
    a5c8:	1044001c 	beq	v0,a0,0xa63c
    a5cc:	34e78018 	ori	a3,a3,0x8018
    a5d0:	3c05b001 	lui	a1,0xb001
    a5d4:	af86bc20 	sw	a2,-17376(gp)
    a5d8:	00c52821 	addu	a1,a2,a1
    a5dc:	8ca30000 	lw	v1,0(a1)
    a5e0:	000620c2 	srl	a0,a2,0x3
    a5e4:	3c020080 	lui	v0,0x80
    a5e8:	00042200 	sll	a0,a0,0x8
    a5ec:	00822025 	or	a0,a0,v0
    a5f0:	af83bc28 	sw	v1,-17368(gp)
    a5f4:	8ca20004 	lw	v0,4(a1)
    a5f8:	ace40000 	sw	a0,0(a3)
    a5fc:	8d0301a8 	lw	v1,424(t0)
    a600:	af82bc24 	sw	v0,-17372(gp)
    a604:	24640001 	addiu	a0,v1,1
    a608:	0480000a 	bltz	a0,0xa634
    a60c:	00801021 	move	v0,a0
    a610:	00021183 	sra	v0,v0,0x6
    a614:	8d0301ac 	lw	v1,428(t0)
    a618:	00021180 	sll	v0,v0,0x6
    a61c:	00821023 	subu	v0,a0,v0
    a620:	00431826 	xor	v1,v0,v1
    a624:	ad0201a8 	sw	v0,424(t0)
    a628:	0003202b 	sltu	a0,zero,v1
    a62c:	03e00008 	jr	ra
    a630:	00801021 	move	v0,a0
    a634:	080029a4 	j	0xa690
    a638:	24620040 	addiu	v0,v1,64
    a63c:	27828968 	addiu	v0,gp,-30360
    a640:	000620c2 	srl	a0,a2,0x3
    a644:	00042200 	sll	a0,a0,0x8
    a648:	00a24821 	addu	t1,a1,v0
    a64c:	3c020080 	lui	v0,0x80
    a650:	00825825 	or	t3,a0,v0
    a654:	938281f0 	lbu	v0,-32272(gp)
    a658:	3c0ab006 	lui	t2,0xb006
    a65c:	3c03b001 	lui	v1,0xb001
    a660:	2c420002 	sltiu	v0,v0,2
    a664:	00c33821 	addu	a3,a2,v1
    a668:	354a8018 	ori	t2,t2,0x8018
    a66c:	1440ffef 	bnez	v0,0xa62c
    a670:	00002021 	move	a0,zero
    a674:	8ce50000 	lw	a1,0(a3)
    a678:	8d230000 	lw	v1,0(t1)
    a67c:	2402c000 	li	v0,-16384
    a680:	00a21024 	and	v0,a1,v0
    a684:	00431025 	or	v0,v0,v1
    a688:	ace20000 	sw	v0,0(a3)
    a68c:	8d0401a8 	lw	a0,424(t0)
    a690:	27838a68 	addiu	v1,gp,-30104
    a694:	8ce50004 	lw	a1,4(a3)
    a698:	00042080 	sll	a0,a0,0x2
    a69c:	00832021 	addu	a0,a0,v1
    a6a0:	8c820000 	lw	v0,0(a0)
    a6a4:	3c038000 	lui	v1,0x8000
    a6a8:	00a21025 	or	v0,a1,v0
    a6ac:	00431025 	or	v0,v0,v1
    a6b0:	ace20004 	sw	v0,4(a3)
    a6b4:	af86bc20 	sw	a2,-17376(gp)
    a6b8:	8ce20000 	lw	v0,0(a3)
    a6bc:	938581f0 	lbu	a1,-32272(gp)
    a6c0:	af82bc28 	sw	v0,-17368(gp)
    a6c4:	8ce30004 	lw	v1,4(a3)
    a6c8:	ad4b0000 	sw	t3,0(t2)
    a6cc:	8d0201a8 	lw	v0,424(t0)
    a6d0:	af83bc24 	sw	v1,-17372(gp)
    a6d4:	24a5ffff 	addiu	a1,a1,-1
    a6d8:	24440001 	addiu	a0,v0,1
    a6dc:	28830000 	slti	v1,a0,0
    a6e0:	24420040 	addiu	v0,v0,64
    a6e4:	0083100a 	.word	0x83100a
    a6e8:	00021183 	sra	v0,v0,0x6
    a6ec:	00021180 	sll	v0,v0,0x6
    a6f0:	00822023 	subu	a0,a0,v0
    a6f4:	ad0401a8 	sw	a0,424(t0)
    a6f8:	a38581f0 	sb	a1,-32272(gp)
    a6fc:	79020d7c 	.word	0x79020d7c
    a700:	00000000 	nop
    a704:	00431026 	xor	v0,v0,v1
    a708:	080029ab 	j	0xa6ac
    a70c:	0002202b 	sltu	a0,zero,v0
    a710:	3c04b003 	lui	a0,0xb003
    a714:	3c06b007 	lui	a2,0xb007
    a718:	3c028001 	lui	v0,0x8001
    a71c:	34c60018 	ori	a2,a2,0x18
    a720:	34840020 	ori	a0,a0,0x20
    a724:	2442a790 	addiu	v0,v0,-22640
    a728:	2403ff83 	li	v1,-125
    a72c:	ac820000 	sw	v0,0(a0)
    a730:	a0c30000 	sb	v1,0(a2)
    a734:	90c40000 	lbu	a0,0(a2)
    a738:	27bdfff8 	addiu	sp,sp,-8
    a73c:	3c03b007 	lui	v1,0xb007
    a740:	2402ff82 	li	v0,-126
    a744:	a3a40000 	sb	a0,0(sp)
    a748:	a0620000 	sb	v0,0(v1)
    a74c:	90640000 	lbu	a0,0(v1)
    a750:	3c02b007 	lui	v0,0xb007
    a754:	34420008 	ori	v0,v0,0x8
    a758:	a3a40001 	sb	a0,1(sp)
    a75c:	a0400000 	sb	zero,0(v0)
    a760:	90430000 	lbu	v1,0(v0)
    a764:	24020003 	li	v0,3
    a768:	3c05b007 	lui	a1,0xb007
    a76c:	a3a30000 	sb	v1,0(sp)
    a770:	a0c20000 	sb	v0,0(a2)
    a774:	90c40000 	lbu	a0,0(a2)
    a778:	34a50010 	ori	a1,a1,0x10
    a77c:	24020006 	li	v0,6
    a780:	3c03b007 	lui	v1,0xb007
    a784:	a3a40000 	sb	a0,0(sp)
    a788:	34630038 	ori	v1,v1,0x38
    a78c:	a0a20000 	sb	v0,0(a1)
    a790:	90640000 	lbu	a0,0(v1)
    a794:	3c02b007 	lui	v0,0xb007
    a798:	34420020 	ori	v0,v0,0x20
    a79c:	a3a40000 	sb	a0,0(sp)
    a7a0:	a0a00000 	sb	zero,0(a1)
    a7a4:	90a30000 	lbu	v1,0(a1)
    a7a8:	af82bf30 	sw	v0,-16592(gp)
    a7ac:	a3a30000 	sb	v1,0(sp)
    a7b0:	a0400000 	sb	zero,0(v0)
    a7b4:	90430000 	lbu	v1,0(v0)
    a7b8:	03e00008 	jr	ra
    a7bc:	27bd0008 	addiu	sp,sp,8