../git/linux-firmware/./bnx2/bnx2-mips-09-6.0.17.fw:     file format binary


Disassembly of section .data:

00000000 <.data>:
       0:	08000118 	j	0x460
       4:	08000000 	j	0x0
       8:	00005594 	.word	0x5594
       c:	000000c8 	.word	0xc8
	...
      1c:	08005594 	j	0x15650
      20:	00000038 	dsll	zero,zero,0x0
      24:	0000565c 	.word	0x565c
      28:	080000a0 	j	0x280
      2c:	08000000 	j	0x0
      30:	00005744 	.word	0x5744
      34:	00005694 	.word	0x5694
      38:	08005920 	j	0x16480
      3c:	00000084 	.word	0x84
      40:	0000add8 	.word	0xadd8
      44:	08005744 	j	0x15d10
      48:	000001c0 	sll	zero,zero,0x7
      4c:	0000ae5c 	.word	0xae5c
      50:	08003210 	j	0xc840
      54:	08000000 	j	0x0
      58:	00009090 	.word	0x9090
      5c:	0000b01c 	.word	0xb01c
	...
      6c:	08009090 	j	0x24240
      70:	0000033c 	dsll32	zero,zero,0xc
      74:	000140ac 	.word	0x140ac
      78:	08000490 	j	0x1240
      7c:	08000400 	j	0x1000
      80:	000012fc 	dsll32	v0,zero,0xb
      84:	000143e8 	.word	0x143e8
	...
      94:	080016fc 	j	0x5bf0
      98:	00000004 	sllv	zero,zero,zero
      9c:	000156e4 	.word	0x156e4
      a0:	080000a8 	j	0x2a0
      a4:	08000000 	j	0x0
      a8:	00003d28 	.word	0x3d28
      ac:	000156e8 	.word	0x156e8
	...
      bc:	08003d28 	j	0xf4a0
      c0:	00000030 	tge	zero,zero
      c4:	00019410 	.word	0x19410
      c8:	0a000046 	j	0x8000118
      cc:	00000000 	nop
      d0:	00000000 	nop
      d4:	0000000d 	break
      d8:	636f6d36 	daddi	t7,k1,27958
      dc:	2e302e31 	sltiu	s0,s1,11825
      e0:	37000000 	ori	zero,t8,0x0
      e4:	06001102 	bltz	s0,0x44f0
      e8:	00000000 	nop
      ec:	00000003 	sra	zero,zero,0x0
      f0:	000000c8 	.word	0xc8
      f4:	00000032 	tlt	zero,zero
      f8:	00000003 	sra	zero,zero,0x0
	...
     110:	00000010 	mfhi	zero
     114:	00000136 	tne	zero,zero,0x4
     118:	0000ea60 	.word	0xea60
     11c:	00000005 	.word	0x5
	...
     12c:	00000008 	jr	zero
     130:	00000000 	nop
	...
     160:	00000002 	srl	zero,zero,0x0
	...
     188:	00000010 	mfhi	zero
	...
     1e4:	10000003 	b	0x1f4
     1e8:	00000000 	nop
     1ec:	0000000d 	break
     1f0:	0000000d 	break
     1f4:	3c020800 	lui	v0,0x800
     1f8:	24425608 	addiu	v0,v0,22024
     1fc:	3c030800 	lui	v1,0x800
     200:	24635754 	addiu	v1,v1,22356
     204:	ac400000 	sw	zero,0(v0)
     208:	0043202b 	sltu	a0,v0,v1
     20c:	1480fffd 	bnez	a0,0x204
     210:	24420004 	addiu	v0,v0,4
     214:	3c1d0800 	lui	sp,0x800
     218:	37bd9ffc 	ori	sp,sp,0x9ffc
     21c:	03a0f021 	move	s8,sp
     220:	3c100800 	lui	s0,0x800
     224:	26100118 	addiu	s0,s0,280
     228:	3c1c0800 	lui	gp,0x800
     22c:	279c5608 	addiu	gp,gp,22024
     230:	0e000256 	jal	0x8000958
     234:	00000000 	nop
     238:	0000000d 	break
     23c:	27bdffb4 	addiu	sp,sp,-76
     240:	afa10000 	sw	at,0(sp)
     244:	afa20004 	sw	v0,4(sp)
     248:	afa30008 	sw	v1,8(sp)
     24c:	afa4000c 	sw	a0,12(sp)
     250:	afa50010 	sw	a1,16(sp)
     254:	afa60014 	sw	a2,20(sp)
     258:	afa70018 	sw	a3,24(sp)
     25c:	afa8001c 	sw	t0,28(sp)
     260:	afa90020 	sw	t1,32(sp)
     264:	afaa0024 	sw	t2,36(sp)
     268:	afab0028 	sw	t3,40(sp)
     26c:	afac002c 	sw	t4,44(sp)
     270:	afad0030 	sw	t5,48(sp)
     274:	afae0034 	sw	t6,52(sp)
     278:	afaf0038 	sw	t7,56(sp)
     27c:	afb8003c 	sw	t8,60(sp)
     280:	afb90040 	sw	t9,64(sp)
     284:	afbc0044 	sw	gp,68(sp)
     288:	afbf0048 	sw	ra,72(sp)
     28c:	0e001544 	jal	0x8005510
     290:	00000000 	nop
     294:	8fbf0048 	lw	ra,72(sp)
     298:	8fbc0044 	lw	gp,68(sp)
     29c:	8fb90040 	lw	t9,64(sp)
     2a0:	8fb8003c 	lw	t8,60(sp)
     2a4:	8faf0038 	lw	t7,56(sp)
     2a8:	8fae0034 	lw	t6,52(sp)
     2ac:	8fad0030 	lw	t5,48(sp)
     2b0:	8fac002c 	lw	t4,44(sp)
     2b4:	8fab0028 	lw	t3,40(sp)
     2b8:	8faa0024 	lw	t2,36(sp)
     2bc:	8fa90020 	lw	t1,32(sp)
     2c0:	8fa8001c 	lw	t0,28(sp)
     2c4:	8fa70018 	lw	a3,24(sp)
     2c8:	8fa60014 	lw	a2,20(sp)
     2cc:	8fa50010 	lw	a1,16(sp)
     2d0:	8fa4000c 	lw	a0,12(sp)
     2d4:	8fa30008 	lw	v1,8(sp)
     2d8:	8fa20004 	lw	v0,4(sp)
     2dc:	8fa10000 	lw	at,0(sp)
     2e0:	27bd004c 	addiu	sp,sp,76
     2e4:	3c1b6010 	lui	k1,0x6010
     2e8:	8f7a5030 	lw	k0,20528(k1)
     2ec:	377b5028 	ori	k1,k1,0x5028
     2f0:	03400008 	jr	k0
     2f4:	af7a0000 	sw	k0,0(k1)
     2f8:	8f820024 	lw	v0,36(gp)
     2fc:	27bdffe0 	addiu	sp,sp,-32
     300:	afb00010 	sw	s0,16(sp)
     304:	afbf0018 	sw	ra,24(sp)
     308:	afb10014 	sw	s1,20(sp)
     30c:	8c42000c 	lw	v0,12(v0)
     310:	3c108000 	lui	s0,0x8000
     314:	8e110100 	lw	s1,256(s0)
     318:	10400034 	beqz	v0,0x3ec
     31c:	8fbf0018 	lw	ra,24(sp)
     320:	0e000d84 	jal	0x8003610
     324:	00000000 	nop
     328:	8f850020 	lw	a1,32(gp)
     32c:	24047fff 	li	a0,32767
     330:	0091202b 	sltu	a0,a0,s1
     334:	acb10000 	sw	s1,0(a1)
     338:	8e030104 	lw	v1,260(s0)
     33c:	96020108 	lhu	v0,264(s0)
     340:	00031c00 	sll	v1,v1,0x10
     344:	3042ffff 	andi	v0,v0,0xffff
     348:	00621825 	or	v1,v1,v0
     34c:	aca30004 	sw	v1,4(a1)
     350:	9202010a 	lbu	v0,266(s0)
     354:	96030114 	lhu	v1,276(s0)
     358:	304200ff 	andi	v0,v0,0xff
     35c:	3063ffff 	andi	v1,v1,0xffff
     360:	00021400 	sll	v0,v0,0x10
     364:	00431025 	or	v0,v0,v1
     368:	aca20008 	sw	v0,8(a1)
     36c:	9603010c 	lhu	v1,268(s0)
     370:	9602010e 	lhu	v0,270(s0)
     374:	00031c00 	sll	v1,v1,0x10
     378:	3042ffff 	andi	v0,v0,0xffff
     37c:	00621825 	or	v1,v1,v0
     380:	aca3000c 	sw	v1,12(a1)
     384:	96030110 	lhu	v1,272(s0)
     388:	96020112 	lhu	v0,274(s0)
     38c:	00031c00 	sll	v1,v1,0x10
     390:	3042ffff 	andi	v0,v0,0xffff
     394:	00621825 	or	v1,v1,v0
     398:	aca30010 	sw	v1,16(a1)
     39c:	8e020118 	lw	v0,280(s0)
     3a0:	aca20014 	sw	v0,20(a1)
     3a4:	8e02011c 	lw	v0,284(s0)
     3a8:	aca20018 	sw	v0,24(a1)
     3ac:	14800008 	bnez	a0,0x3d0
     3b0:	8f820024 	lw	v0,36(gp)
     3b4:	97820000 	lhu	v0,0(gp)
     3b8:	3c042005 	lui	a0,0x2005
     3bc:	00441825 	or	v1,v0,a0
     3c0:	24420001 	addiu	v0,v0,1
     3c4:	aca3001c 	sw	v1,28(a1)
     3c8:	0a0000c6 	j	0x8000318
     3cc:	a7820000 	sh	v0,0(gp)
     3d0:	3c034018 	lui	v1,0x4018
     3d4:	9442001e 	lhu	v0,30(v0)
     3d8:	00431025 	or	v0,v0,v1
     3dc:	aca2001c 	sw	v0,28(a1)
     3e0:	0e000db8 	jal	0x80036e0
     3e4:	24040001 	li	a0,1
     3e8:	8fbf0018 	lw	ra,24(sp)
     3ec:	8fb10014 	lw	s1,20(sp)
     3f0:	8fb00010 	lw	s0,16(sp)
     3f4:	00001021 	move	v0,zero
     3f8:	03e00008 	jr	ra
     3fc:	27bd0020 	addiu	sp,sp,32
     400:	3c078000 	lui	a3,0x8000
     404:	8ce202b8 	lw	v0,696(a3)
     408:	34e50100 	ori	a1,a3,0x100
     40c:	04410008 	bgez	v0,0x430
     410:	24030001 	li	v1,1
     414:	3c020800 	lui	v0,0x800
     418:	8c420060 	lw	v0,96(v0)
     41c:	24420001 	addiu	v0,v0,1
     420:	3c010800 	lui	at,0x800
     424:	ac220060 	sw	v0,96(at)
     428:	03e00008 	jr	ra
     42c:	00601021 	move	v0,v1
     430:	3c020800 	lui	v0,0x800
     434:	8c42005c 	lw	v0,92(v0)
     438:	8ca40020 	lw	a0,32(a1)
     43c:	94a30016 	lhu	v1,22(a1)
     440:	8ca60004 	lw	a2,4(a1)
     444:	94a5000e 	lhu	a1,14(a1)
     448:	24420001 	addiu	v0,v0,1
     44c:	ace40280 	sw	a0,640(a3)
     450:	2463fffc 	addiu	v1,v1,-4
     454:	3c010800 	lui	at,0x800
     458:	ac22005c 	sw	v0,92(at)
     45c:	3c021000 	lui	v0,0x1000
     460:	a4e30284 	sh	v1,644(a3)
     464:	a4e50286 	sh	a1,646(a3)
     468:	00001821 	move	v1,zero
     46c:	ace60288 	sw	a2,648(a3)
     470:	ace202b8 	sw	v0,696(a3)
     474:	03e00008 	jr	ra
     478:	00601021 	move	v0,v1
     47c:	27bdffe0 	addiu	sp,sp,-32
     480:	3c028000 	lui	v0,0x8000
     484:	afb00010 	sw	s0,16(sp)
     488:	34420100 	ori	v0,v0,0x100
     48c:	afbf001c 	sw	ra,28(sp)
     490:	afb20018 	sw	s2,24(sp)
     494:	afb10014 	sw	s1,20(sp)
     498:	8c430000 	lw	v1,0(v0)
     49c:	94450008 	lhu	a1,8(v0)
     4a0:	2462fe00 	addiu	v0,v1,-512
     4a4:	2c420381 	sltiu	v0,v0,897
     4a8:	10400003 	beqz	v0,0x4b8
     4ac:	000381c2 	srl	s0,v1,0x7
     4b0:	0a000102 	j	0x8000408
     4b4:	26100004 	addiu	s0,s0,4
     4b8:	24020100 	li	v0,256
     4bc:	14620005 	bne	v1,v0,0x4d4
     4c0:	3c118000 	lui	s1,0x8000
     4c4:	3c028008 	lui	v0,0x8008
     4c8:	90420004 	lbu	v0,4(v0)
     4cc:	305000ff 	andi	s0,v0,0xff
     4d0:	3c118000 	lui	s1,0x8000
     4d4:	36320100 	ori	s2,s1,0x100
     4d8:	96430014 	lhu	v1,20(s2)
     4dc:	3202000f 	andi	v0,s0,0xf
     4e0:	00021500 	sll	v0,v0,0x14
     4e4:	00431025 	or	v0,v0,v1
     4e8:	3c030800 	lui	v1,0x800
     4ec:	8c630044 	lw	v1,68(v1)
     4f0:	30a40004 	andi	a0,a1,0x4
     4f4:	ae220080 	sw	v0,128(s1)
     4f8:	24630001 	addiu	v1,v1,1
     4fc:	3c010800 	lui	at,0x800
     500:	ac230044 	sw	v1,68(at)
     504:	10800007 	beqz	a0,0x524
     508:	30a20002 	andi	v0,a1,0x2
     50c:	8fbf001c 	lw	ra,28(sp)
     510:	8fb20018 	lw	s2,24(sp)
     514:	8fb10014 	lw	s1,20(sp)
     518:	8fb00010 	lw	s0,16(sp)
     51c:	0a0000ce 	j	0x8000338
     520:	27bd0020 	addiu	sp,sp,32
     524:	1040002d 	beqz	v0,0x5dc
     528:	00001821 	move	v1,zero
     52c:	30a20080 	andi	v0,a1,0x80
     530:	10400005 	beqz	v0,0x548
     534:	36220070 	ori	v0,s1,0x70
     538:	8e44001c 	lw	a0,28(s2)
     53c:	0e000c67 	jal	0x800319c
     540:	240500a0 	li	a1,160
     544:	36220070 	ori	v0,s1,0x70
     548:	8c440000 	lw	a0,0(v0)
     54c:	8f82000c 	lw	v0,12(gp)
     550:	00821023 	subu	v0,a0,v0
     554:	2c43012c 	sltiu	v1,v0,300
     558:	10600004 	beqz	v1,0x56c
     55c:	af820010 	sw	v0,16(gp)
     560:	24030001 	li	v1,1
     564:	0a000145 	j	0x8000514
     568:	af84000c 	sw	a0,12(gp)
     56c:	8e420004 	lw	v0,4(s2)
     570:	3c036020 	lui	v1,0x6020
     574:	af84000c 	sw	a0,12(gp)
     578:	ac620014 	sw	v0,20(v1)
     57c:	3c020800 	lui	v0,0x800
     580:	8c420058 	lw	v0,88(v0)
     584:	50400015 	beqzl	v0,0x5dc
     588:	00001821 	move	v1,zero
     58c:	8c620004 	lw	v0,4(v1)
     590:	240301fe 	li	v1,510
     594:	304203ff 	andi	v0,v0,0x3ff
     598:	14430010 	bne	v0,v1,0x5dc
     59c:	00001821 	move	v1,zero
     5a0:	2e020004 	sltiu	v0,s0,4
     5a4:	10400003 	beqz	v0,0x5b4
     5a8:	2e020008 	sltiu	v0,s0,8
     5ac:	0a000140 	j	0x8000500
     5b0:	00008021 	move	s0,zero
     5b4:	14400003 	bnez	v0,0x5c4
     5b8:	00000000 	nop
     5bc:	0a000140 	j	0x8000500
     5c0:	2610fff9 	addiu	s0,s0,-7
     5c4:	0000000d 	break
     5c8:	24020002 	li	v0,2
     5cc:	02021004 	sllv	v0,v0,s0
     5d0:	3c036000 	lui	v1,0x6000
     5d4:	ac626914 	sw	v0,26900(v1)
     5d8:	00001821 	move	v1,zero
     5dc:	8fbf001c 	lw	ra,28(sp)
     5e0:	8fb20018 	lw	s2,24(sp)
     5e4:	8fb10014 	lw	s1,20(sp)
     5e8:	8fb00010 	lw	s0,16(sp)
     5ec:	00601021 	move	v0,v1
     5f0:	03e00008 	jr	ra
     5f4:	27bd0020 	addiu	sp,sp,32
     5f8:	3c048000 	lui	a0,0x8000
     5fc:	8c830100 	lw	v1,256(a0)
     600:	24020100 	li	v0,256
     604:	50620003 	beql	v1,v0,0x614
     608:	3c028008 	lui	v0,0x8008
     60c:	0000000d 	break
     610:	3c028008 	lui	v0,0x8008
     614:	90430004 	lbu	v1,4(v0)
     618:	00001021 	move	v0,zero
     61c:	3063000f 	andi	v1,v1,0xf
     620:	00031d00 	sll	v1,v1,0x14
     624:	03e00008 	jr	ra
     628:	ac830080 	sw	v1,128(a0)
     62c:	00041880 	sll	v1,a0,0x2
     630:	2782ff9c 	addiu	v0,gp,-100
     634:	00621821 	addu	v1,v1,v0
     638:	000410c0 	sll	v0,a0,0x3
     63c:	00441023 	subu	v0,v0,a0
     640:	8c640000 	lw	a0,0(v1)
     644:	000210c0 	sll	v0,v0,0x3
     648:	3c030800 	lui	v1,0x800
     64c:	246356e4 	addiu	v1,v1,22244
     650:	00431021 	addu	v0,v0,v1
     654:	3c038000 	lui	v1,0x8000
     658:	ac640090 	sw	a0,144(v1)
     65c:	03e00008 	jr	ra
     660:	af820024 	sw	v0,36(gp)
     664:	3c020800 	lui	v0,0x800
     668:	8c420114 	lw	v0,276(v0)
     66c:	10400019 	beqz	v0,0x6d4
     670:	30844000 	andi	a0,a0,0x4000
     674:	30a2007f 	andi	v0,a1,0x7f
     678:	000231c0 	sll	a2,v0,0x7
     67c:	3c020200 	lui	v0,0x200
     680:	10800014 	beqz	a0,0x6d4
     684:	00a21825 	or	v1,a1,v0
     688:	3c026020 	lui	v0,0x6020
     68c:	ac430014 	sw	v1,20(v0)
     690:	3c040800 	lui	a0,0x800
     694:	8c8456b8 	lw	a0,22200(a0)
     698:	3c030800 	lui	v1,0x800
     69c:	8c630110 	lw	v1,272(v1)
     6a0:	3c028000 	lui	v0,0x8000
     6a4:	24050900 	li	a1,2304
     6a8:	ac450020 	sw	a1,32(v0)
     6ac:	00862021 	addu	a0,a0,a2
     6b0:	24630001 	addiu	v1,v1,1
     6b4:	3c028008 	lui	v0,0x8008
     6b8:	ac440064 	sw	a0,100(v0)
     6bc:	3c010800 	lui	at,0x800
     6c0:	ac230110 	sw	v1,272(at)
     6c4:	3c010800 	lui	at,0x800
     6c8:	ac2456b8 	sw	a0,22200(at)
     6cc:	03e00008 	jr	ra
     6d0:	00000000 	nop
     6d4:	3c026020 	lui	v0,0x6020
     6d8:	03e00008 	jr	ra
     6dc:	ac450014 	sw	a1,20(v0)
     6e0:	03e00008 	jr	ra
     6e4:	00001021 	move	v0,zero
     6e8:	03e00008 	jr	ra
     6ec:	00001021 	move	v0,zero
     6f0:	30a20008 	andi	v0,a1,0x8
     6f4:	10400008 	beqz	v0,0x718
     6f8:	24020100 	li	v0,256
     6fc:	3c020800 	lui	v0,0x800
     700:	8c42010c 	lw	v0,268(v0)
     704:	24420001 	addiu	v0,v0,1
     708:	3c010800 	lui	at,0x800
     70c:	ac22010c 	sw	v0,268(at)
     710:	03e00008 	jr	ra
     714:	00000000 	nop
     718:	14820008 	bne	a0,v0,0x73c
     71c:	00000000 	nop
     720:	3c020800 	lui	v0,0x800
     724:	8c4200fc 	lw	v0,252(v0)
     728:	24420001 	addiu	v0,v0,1
     72c:	3c010800 	lui	at,0x800
     730:	ac2200fc 	sw	v0,252(at)
     734:	0a0001a3 	j	0x800068c
     738:	30a20020 	andi	v0,a1,0x20
     73c:	3c020800 	lui	v0,0x800
     740:	8c420084 	lw	v0,132(v0)
     744:	24420001 	addiu	v0,v0,1
     748:	3c010800 	lui	at,0x800
     74c:	ac220084 	sw	v0,132(at)
     750:	30a20020 	andi	v0,a1,0x20
     754:	10400008 	beqz	v0,0x778
     758:	30a20010 	andi	v0,a1,0x10
     75c:	3c020800 	lui	v0,0x800
     760:	8c420108 	lw	v0,264(v0)
     764:	24420001 	addiu	v0,v0,1
     768:	3c010800 	lui	at,0x800
     76c:	ac220108 	sw	v0,264(at)
     770:	03e00008 	jr	ra
     774:	00000000 	nop
     778:	10400008 	beqz	v0,0x79c
     77c:	00000000 	nop
     780:	3c020800 	lui	v0,0x800
     784:	8c420104 	lw	v0,260(v0)
     788:	24420001 	addiu	v0,v0,1
     78c:	3c010800 	lui	at,0x800
     790:	ac220104 	sw	v0,260(at)
     794:	03e00008 	jr	ra
     798:	00000000 	nop
     79c:	3c020800 	lui	v0,0x800
     7a0:	8c420100 	lw	v0,256(v0)
     7a4:	24420001 	addiu	v0,v0,1
     7a8:	3c010800 	lui	at,0x800
     7ac:	ac220100 	sw	v0,256(at)
     7b0:	03e00008 	jr	ra
     7b4:	00000000 	nop
     7b8:	27bdffe0 	addiu	sp,sp,-32
     7bc:	afb10014 	sw	s1,20(sp)
     7c0:	3c118000 	lui	s1,0x8000
     7c4:	afb20018 	sw	s2,24(sp)
     7c8:	afbf001c 	sw	ra,28(sp)
     7cc:	afb00010 	sw	s0,16(sp)
     7d0:	36320100 	ori	s2,s1,0x100
     7d4:	96500008 	lhu	s0,8(s2)
     7d8:	32020004 	andi	v0,s0,0x4
     7dc:	10400007 	beqz	v0,0x7fc
     7e0:	32030002 	andi	v1,s0,0x2
     7e4:	8fbf001c 	lw	ra,28(sp)
     7e8:	8fb20018 	lw	s2,24(sp)
     7ec:	8fb10014 	lw	s1,20(sp)
     7f0:	8fb00010 	lw	s0,16(sp)
     7f4:	0a0000ce 	j	0x8000338
     7f8:	27bd0020 	addiu	sp,sp,32
     7fc:	1060000b 	beqz	v1,0x82c
     800:	02002821 	move	a1,s0
     804:	8e240100 	lw	a0,256(s1)
     808:	0e00018a 	jal	0x8000628
     80c:	00000000 	nop
     810:	32020080 	andi	v0,s0,0x80
     814:	10400003 	beqz	v0,0x824
     818:	240500a1 	li	a1,161
     81c:	0e000c67 	jal	0x800319c
     820:	8e44001c 	lw	a0,28(s2)
     824:	0a0001e3 	j	0x800078c
     828:	24020001 	li	v0,1
     82c:	8e230104 	lw	v1,260(s1)
     830:	8f820008 	lw	v0,8(gp)
     834:	10430006 	beq	v0,v1,0x850
     838:	02002821 	move	a1,s0
     83c:	8e240100 	lw	a0,256(s1)
     840:	0e00018a 	jal	0x8000628
     844:	00000000 	nop
     848:	8e220104 	lw	v0,260(s1)
     84c:	af820008 	sw	v0,8(gp)
     850:	00001021 	move	v0,zero
     854:	8fbf001c 	lw	ra,28(sp)
     858:	8fb20018 	lw	s2,24(sp)
     85c:	8fb10014 	lw	s1,20(sp)
     860:	8fb00010 	lw	s0,16(sp)
     864:	03e00008 	jr	ra
     868:	27bd0020 	addiu	sp,sp,32
     86c:	2c820004 	sltiu	v0,a0,4
     870:	14400002 	bnez	v0,0x87c
     874:	00001821 	move	v1,zero
     878:	2483fffd 	addiu	v1,a0,-3
     87c:	24020002 	li	v0,2
     880:	00621004 	sllv	v0,v0,v1
     884:	3c036000 	lui	v1,0x6000
     888:	03e00008 	jr	ra
     88c:	ac626914 	sw	v0,26900(v1)
     890:	27bdffe0 	addiu	sp,sp,-32
     894:	afbf001c 	sw	ra,28(sp)
     898:	afb20018 	sw	s2,24(sp)
     89c:	afb10014 	sw	s1,20(sp)
     8a0:	afb00010 	sw	s0,16(sp)
     8a4:	3c048000 	lui	a0,0x8000
     8a8:	94820108 	lhu	v0,264(a0)
     8ac:	30437000 	andi	v1,v0,0x7000
     8b0:	24022000 	li	v0,8192
     8b4:	1062000a 	beq	v1,v0,0x8e0
     8b8:	28622001 	slti	v0,v1,8193
     8bc:	54400052 	bnezl	v0,0xa08
     8c0:	8fbf001c 	lw	ra,28(sp)
     8c4:	24024000 	li	v0,16384
     8c8:	10620048 	beq	v1,v0,0x9ec
     8cc:	24026000 	li	v0,24576
     8d0:	1062004a 	beq	v1,v0,0x9fc
     8d4:	8fbf001c 	lw	ra,28(sp)
     8d8:	0a000251 	j	0x8000944
     8dc:	8fb20018 	lw	s2,24(sp)
     8e0:	34820100 	ori	v0,a0,0x100
     8e4:	90430009 	lbu	v1,9(v0)
     8e8:	8c500018 	lw	s0,24(v0)
     8ec:	9451000c 	lhu	s1,12(v0)
     8f0:	24020009 	li	v0,9
     8f4:	1062001c 	beq	v1,v0,0x968
     8f8:	00009021 	move	s2,zero
     8fc:	28620009 	slti	v0,v1,9
     900:	14400021 	bnez	v0,0x988
     904:	8f820024 	lw	v0,36(gp)
     908:	2402000a 	li	v0,10
     90c:	50620012 	beql	v1,v0,0x958
     910:	323100ff 	andi	s1,s1,0xff
     914:	2402000b 	li	v0,11
     918:	1062000f 	beq	v1,v0,0x958
     91c:	00000000 	nop
     920:	2402000c 	li	v0,12
     924:	14620018 	bne	v1,v0,0x988
     928:	8f820024 	lw	v0,36(gp)
     92c:	3c020800 	lui	v0,0x800
     930:	8c4256b8 	lw	v0,22200(v0)
     934:	24030900 	li	v1,2304
     938:	ac830020 	sw	v1,32(a0)
     93c:	00501021 	addu	v0,v0,s0
     940:	3c038008 	lui	v1,0x8008
     944:	ac620064 	sw	v0,100(v1)
     948:	3c010800 	lui	at,0x800
     94c:	ac2256b8 	sw	v0,22200(at)
     950:	0a000250 	j	0x8000940
     954:	8fbf001c 	lw	ra,28(sp)
     958:	0e0001e9 	jal	0x80007a4
     95c:	00102602 	srl	a0,s0,0x18
     960:	0a000230 	j	0x80008c0
     964:	8f820024 	lw	v0,36(gp)
     968:	0e0001e9 	jal	0x80007a4
     96c:	00102602 	srl	a0,s0,0x18
     970:	3c038008 	lui	v1,0x8008
     974:	9462001a 	lhu	v0,26(v1)
     978:	8c72000c 	lw	s2,12(v1)
     97c:	3042ffff 	andi	v0,v0,0xffff
     980:	02028025 	or	s0,s0,v0
     984:	8f820024 	lw	v0,36(gp)
     988:	8c42000c 	lw	v0,12(v0)
     98c:	5040001e 	beqzl	v0,0xa08
     990:	8fbf001c 	lw	ra,28(sp)
     994:	0e000d84 	jal	0x8003610
     998:	00000000 	nop
     99c:	3c028000 	lui	v0,0x8000
     9a0:	34420100 	ori	v0,v0,0x100
     9a4:	94430008 	lhu	v1,8(v0)
     9a8:	8f820024 	lw	v0,36(gp)
     9ac:	00031c00 	sll	v1,v1,0x10
     9b0:	9444001e 	lhu	a0,30(v0)
     9b4:	8f820020 	lw	v0,32(gp)
     9b8:	00641825 	or	v1,v1,a0
     9bc:	ac500000 	sw	s0,0(v0)
     9c0:	24040001 	li	a0,1
     9c4:	ac510004 	sw	s1,4(v0)
     9c8:	ac520008 	sw	s2,8(v0)
     9cc:	ac40000c 	sw	zero,12(v0)
     9d0:	ac400010 	sw	zero,16(v0)
     9d4:	ac400014 	sw	zero,20(v0)
     9d8:	ac400018 	sw	zero,24(v0)
     9dc:	0e000db8 	jal	0x80036e0
     9e0:	ac43001c 	sw	v1,28(v0)
     9e4:	0a000250 	j	0x8000940
     9e8:	8fbf001c 	lw	ra,28(sp)
     9ec:	0e000440 	jal	0x8001100
     9f0:	00000000 	nop
     9f4:	0a000250 	j	0x8000940
     9f8:	8fbf001c 	lw	ra,28(sp)
     9fc:	0e000c9f 	jal	0x800327c
     a00:	00000000 	nop
     a04:	8fbf001c 	lw	ra,28(sp)
     a08:	8fb20018 	lw	s2,24(sp)
     a0c:	8fb10014 	lw	s1,20(sp)
     a10:	8fb00010 	lw	s0,16(sp)
     a14:	00001021 	move	v0,zero
     a18:	03e00008 	jr	ra
     a1c:	27bd0020 	addiu	sp,sp,32
     a20:	27bdffd8 	addiu	sp,sp,-40
     a24:	afb40020 	sw	s4,32(sp)
     a28:	3c036010 	lui	v1,0x6010
     a2c:	afbf0024 	sw	ra,36(sp)
     a30:	afb3001c 	sw	s3,28(sp)
     a34:	afb20018 	sw	s2,24(sp)
     a38:	afb10014 	sw	s1,20(sp)
     a3c:	afb00010 	sw	s0,16(sp)
     a40:	8c645000 	lw	a0,20480(v1)
     a44:	2402ff7f 	li	v0,-129
     a48:	3c140800 	lui	s4,0x800
     a4c:	26945638 	addiu	s4,s4,22072
     a50:	00822024 	and	a0,a0,v0
     a54:	3484380c 	ori	a0,a0,0x380c
     a58:	ac645000 	sw	a0,20480(v1)
     a5c:	3c028000 	lui	v0,0x8000
     a60:	24030037 	li	v1,55
     a64:	0e0014b0 	jal	0x80052c0
     a68:	ac430008 	sw	v1,8(v0)
     a6c:	3c070800 	lui	a3,0x800
     a70:	24e70618 	addiu	a3,a3,1560
     a74:	02801021 	move	v0,s4
     a78:	2404001d 	li	a0,29
     a7c:	2484ffff 	addiu	a0,a0,-1
     a80:	ac470000 	sw	a3,0(v0)
     a84:	0481fffd 	bgez	a0,0xa7c
     a88:	24420004 	addiu	v0,v0,4
     a8c:	3c020800 	lui	v0,0x800
     a90:	244207c8 	addiu	v0,v0,1992
     a94:	3c010800 	lui	at,0x800
     a98:	ac225640 	sw	v0,22080(at)
     a9c:	3c020800 	lui	v0,0x800
     aa0:	24420230 	addiu	v0,v0,560
     aa4:	3c030800 	lui	v1,0x800
     aa8:	24630620 	addiu	v1,v1,1568
     aac:	3c040800 	lui	a0,0x800
     ab0:	248403b4 	addiu	a0,a0,948
     ab4:	3c050800 	lui	a1,0x800
     ab8:	24a506f0 	addiu	a1,a1,1776
     abc:	3c060800 	lui	a2,0x800
     ac0:	24c62c9c 	addiu	a2,a2,11420
     ac4:	3c010800 	lui	at,0x800
     ac8:	ac225680 	sw	v0,22144(at)
     acc:	3c020800 	lui	v0,0x800
     ad0:	24420530 	addiu	v0,v0,1328
     ad4:	3c010800 	lui	at,0x800
     ad8:	ac275684 	sw	a3,22148(at)
     adc:	3c010800 	lui	at,0x800
     ae0:	ac265694 	sw	a2,22164(at)
     ae4:	3c010800 	lui	at,0x800
     ae8:	ac23569c 	sw	v1,22172(at)
     aec:	3c010800 	lui	at,0x800
     af0:	ac2456a0 	sw	a0,22176(at)
     af4:	3c010800 	lui	at,0x800
     af8:	ac2556a4 	sw	a1,22180(at)
     afc:	3c010800 	lui	at,0x800
     b00:	ac2256a8 	sw	v0,22184(at)
     b04:	3c010800 	lui	at,0x800
     b08:	ac23563c 	sw	v1,22076(at)
     b0c:	3c010800 	lui	at,0x800
     b10:	ac245644 	sw	a0,22084(at)
     b14:	3c010800 	lui	at,0x800
     b18:	ac205660 	sw	zero,22112(at)
     b1c:	3c010800 	lui	at,0x800
     b20:	ac255664 	sw	a1,22116(at)
     b24:	3c010800 	lui	at,0x800
     b28:	ac205670 	sw	zero,22128(at)
     b2c:	3c010800 	lui	at,0x800
     b30:	ac27567c 	sw	a3,22140(at)
     b34:	3c010800 	lui	at,0x800
     b38:	ac265690 	sw	a2,22160(at)
     b3c:	3c010800 	lui	at,0x800
     b40:	ac235698 	sw	v1,22168(at)
     b44:	0e00056e 	jal	0x80015b8
     b48:	00000000 	nop
     b4c:	af80000c 	sw	zero,12(gp)
     b50:	3c028000 	lui	v0,0x8000
     b54:	8c530000 	lw	s3,0(v0)
     b58:	8f830004 	lw	v1,4(gp)
     b5c:	3c020800 	lui	v0,0x800
     b60:	8c420020 	lw	v0,32(v0)
     b64:	10620021 	beq	v1,v0,0xbec
     b68:	32620007 	andi	v0,s3,0x7
     b6c:	00008821 	move	s1,zero
     b70:	2792ff9c 	addiu	s2,gp,-100
     b74:	3c100800 	lui	s0,0x800
     b78:	261056e4 	addiu	s0,s0,22244
     b7c:	3c020800 	lui	v0,0x800
     b80:	8c420020 	lw	v0,32(v0)
     b84:	24050001 	li	a1,1
     b88:	02251804 	sllv	v1,a1,s1
     b8c:	00432024 	and	a0,v0,v1
     b90:	8f820004 	lw	v0,4(gp)
     b94:	00431024 	and	v0,v0,v1
     b98:	5044000c 	beql	v0,a0,0xbcc
     b9c:	26310001 	addiu	s1,s1,1
     ba0:	10800008 	beqz	a0,0xbc4
     ba4:	af900024 	sw	s0,36(gp)
     ba8:	8e430000 	lw	v1,0(s2)
     bac:	3c028000 	lui	v0,0x8000
     bb0:	ac430090 	sw	v1,144(v0)
     bb4:	0e000d4b 	jal	0x800352c
     bb8:	ae05000c 	sw	a1,12(s0)
     bbc:	0a0002c1 	j	0x8000b04
     bc0:	26310001 	addiu	s1,s1,1
     bc4:	ae00000c 	sw	zero,12(s0)
     bc8:	26310001 	addiu	s1,s1,1
     bcc:	2e220002 	sltiu	v0,s1,2
     bd0:	26100038 	addiu	s0,s0,56
     bd4:	1440ffe9 	bnez	v0,0xb7c
     bd8:	26520004 	addiu	s2,s2,4
     bdc:	3c020800 	lui	v0,0x800
     be0:	8c420020 	lw	v0,32(v0)
     be4:	af820004 	sw	v0,4(gp)
     be8:	32620007 	andi	v0,s3,0x7
     bec:	1040ffd9 	beqz	v0,0xb54
     bf0:	3c028000 	lui	v0,0x8000
     bf4:	32620001 	andi	v0,s3,0x1
     bf8:	1040002d 	beqz	v0,0xcb0
     bfc:	32620002 	andi	v0,s3,0x2
     c00:	3c058000 	lui	a1,0x8000
     c04:	8ca20100 	lw	v0,256(a1)
     c08:	00002021 	move	a0,zero
     c0c:	aca20020 	sw	v0,32(a1)
     c10:	8ca30104 	lw	v1,260(a1)
     c14:	2c420781 	sltiu	v0,v0,1921
     c18:	10400008 	beqz	v0,0xc3c
     c1c:	aca300a8 	sw	v1,168(a1)
     c20:	94a20108 	lhu	v0,264(a1)
     c24:	24032000 	li	v1,8192
     c28:	30427000 	andi	v0,v0,0x7000
     c2c:	14430003 	bne	v0,v1,0xc3c
     c30:	3c028008 	lui	v0,0x8008
     c34:	90420005 	lbu	v0,5(v0)
     c38:	304400ff 	andi	a0,v0,0xff
     c3c:	0e000159 	jal	0x8000564
     c40:	00000000 	nop
     c44:	3c028000 	lui	v0,0x8000
     c48:	9042010b 	lbu	v0,267(v0)
     c4c:	304300ff 	andi	v1,v0,0xff
     c50:	2c62001e 	sltiu	v0,v1,30
     c54:	54400004 	bnezl	v0,0xc68
     c58:	00031080 	sll	v0,v1,0x2
     c5c:	0e000186 	jal	0x8000618
     c60:	0a0002ec 	j	0x8000bb0
     c64:	00000000 	nop
     c68:	00541021 	addu	v0,v0,s4
     c6c:	8c420000 	lw	v0,0(v0)
     c70:	0040f809 	jalr	v0
     c74:	00000000 	nop
     c78:	10400004 	beqz	v0,0xc8c
     c7c:	3c028000 	lui	v0,0x8000
     c80:	8c430104 	lw	v1,260(v0)
     c84:	3c026020 	lui	v0,0x6020
     c88:	ac430014 	sw	v1,20(v0)
     c8c:	3c020800 	lui	v0,0x800
     c90:	8c420034 	lw	v0,52(v0)
     c94:	3c044000 	lui	a0,0x4000
     c98:	3c038000 	lui	v1,0x8000
     c9c:	24420001 	addiu	v0,v0,1
     ca0:	ac640138 	sw	a0,312(v1)
     ca4:	3c010800 	lui	at,0x800
     ca8:	ac220034 	sw	v0,52(at)
     cac:	32620002 	andi	v0,s3,0x2
     cb0:	10400010 	beqz	v0,0xcf4
     cb4:	32620004 	andi	v0,s3,0x4
     cb8:	3c108000 	lui	s0,0x8000
     cbc:	8e020140 	lw	v0,320(s0)
     cc0:	00002021 	move	a0,zero
     cc4:	0e000159 	jal	0x8000564
     cc8:	ae020020 	sw	v0,32(s0)
     ccc:	0e000383 	jal	0x8000e0c
     cd0:	00000000 	nop
     cd4:	3c024000 	lui	v0,0x4000
     cd8:	ae020178 	sw	v0,376(s0)
     cdc:	3c020800 	lui	v0,0x800
     ce0:	8c420038 	lw	v0,56(v0)
     ce4:	24420001 	addiu	v0,v0,1
     ce8:	3c010800 	lui	at,0x800
     cec:	ac220038 	sw	v0,56(at)
     cf0:	32620004 	andi	v0,s3,0x4
     cf4:	1040ff97 	beqz	v0,0xb54
     cf8:	3c028000 	lui	v0,0x8000
     cfc:	3c108000 	lui	s0,0x8000
     d00:	8e020180 	lw	v0,384(s0)
     d04:	00002021 	move	a0,zero
     d08:	0e000159 	jal	0x8000564
     d0c:	ae020020 	sw	v0,32(s0)
     d10:	8e030180 	lw	v1,384(s0)
     d14:	24020f00 	li	v0,3840
     d18:	54620007 	bnel	v1,v0,0xd38
     d1c:	3c028008 	lui	v0,0x8008
     d20:	8e020188 	lw	v0,392(s0)
     d24:	3c0300e0 	lui	v1,0xe0
     d28:	3042ffff 	andi	v0,v0,0xffff
     d2c:	00431025 	or	v0,v0,v1
     d30:	0a000328 	j	0x8000ca0
     d34:	ae020080 	sw	v0,128(s0)
     d38:	34420080 	ori	v0,v0,0x80
     d3c:	90420000 	lbu	v0,0(v0)
     d40:	24030050 	li	v1,80
     d44:	304200ff 	andi	v0,v0,0xff
     d48:	14430007 	bne	v0,v1,0xd68
     d4c:	00000000 	nop
     d50:	0e000362 	jal	0x8000d88
     d54:	00000000 	nop
     d58:	14400003 	bnez	v0,0xd68
     d5c:	00000000 	nop
     d60:	0e000971 	jal	0x80025c4
     d64:	00000000 	nop
     d68:	3c020800 	lui	v0,0x800
     d6c:	8c42003c 	lw	v0,60(v0)
     d70:	3c044000 	lui	a0,0x4000
     d74:	3c038000 	lui	v1,0x8000
     d78:	24420001 	addiu	v0,v0,1
     d7c:	ac6401b8 	sw	a0,440(v1)
     d80:	3c010800 	lui	at,0x800
     d84:	ac22003c 	sw	v0,60(at)
     d88:	0a0002a3 	j	0x8000a8c
     d8c:	3c028000 	lui	v0,0x8000
     d90:	3c029000 	lui	v0,0x9000
     d94:	34420001 	ori	v0,v0,0x1
     d98:	00822025 	or	a0,a0,v0
     d9c:	3c028000 	lui	v0,0x8000
     da0:	ac440020 	sw	a0,32(v0)
     da4:	3c038000 	lui	v1,0x8000
     da8:	8c620020 	lw	v0,32(v1)
     dac:	0440fffe 	bltz	v0,0xda8
     db0:	00000000 	nop
     db4:	03e00008 	jr	ra
     db8:	00000000 	nop
     dbc:	3c028000 	lui	v0,0x8000
     dc0:	34430001 	ori	v1,v0,0x1
     dc4:	00832025 	or	a0,a0,v1
     dc8:	03e00008 	jr	ra
     dcc:	ac440020 	sw	a0,32(v0)
     dd0:	27bdffe0 	addiu	sp,sp,-32
     dd4:	afb10014 	sw	s1,20(sp)
     dd8:	afb00010 	sw	s0,16(sp)
     ddc:	00808821 	move	s1,a0
     de0:	afbf0018 	sw	ra,24(sp)
     de4:	0e000332 	jal	0x8000cc8
     de8:	30b000ff 	andi	s0,a1,0xff
     dec:	8f83ff94 	lw	v1,-108(gp)
     df0:	02202021 	move	a0,s1
     df4:	90620025 	lbu	v0,37(v1)
     df8:	02028025 	or	s0,s0,v0
     dfc:	a0700025 	sb	s0,37(v1)
     e00:	8c700018 	lw	s0,24(v1)
     e04:	3c028000 	lui	v0,0x8000
     e08:	0e00033d 	jal	0x8000cf4
     e0c:	02028024 	and	s0,s0,v0
     e10:	1600000b 	bnez	s0,0xe40
     e14:	8fbf0018 	lw	ra,24(sp)
     e18:	3c048000 	lui	a0,0x8000
     e1c:	8c8201f8 	lw	v0,504(a0)
     e20:	0440fffe 	bltz	v0,0xe1c
     e24:	348201c0 	ori	v0,a0,0x1c0
     e28:	24030002 	li	v1,2
     e2c:	ac510000 	sw	s1,0(v0)
     e30:	a0430004 	sb	v1,4(v0)
     e34:	3c021000 	lui	v0,0x1000
     e38:	ac8201f8 	sw	v0,504(a0)
     e3c:	8fbf0018 	lw	ra,24(sp)
     e40:	8fb10014 	lw	s1,20(sp)
     e44:	8fb00010 	lw	s0,16(sp)
     e48:	03e00008 	jr	ra
     e4c:	27bd0020 	addiu	sp,sp,32
     e50:	27bdffe8 	addiu	sp,sp,-24
     e54:	3c028000 	lui	v0,0x8000
     e58:	afbf0010 	sw	ra,16(sp)
     e5c:	34420180 	ori	v0,v0,0x180
     e60:	94430004 	lhu	v1,4(v0)
     e64:	8c440008 	lw	a0,8(v0)
     e68:	30630200 	andi	v1,v1,0x200
     e6c:	10600005 	beqz	v1,0xe84
     e70:	00002821 	move	a1,zero
     e74:	0e00100c 	jal	0x8004030
     e78:	00000000 	nop
     e7c:	0a000378 	j	0x8000de0
     e80:	24050001 	li	a1,1
     e84:	3c02ff00 	lui	v0,0xff00
     e88:	04800007 	bltz	a0,0xea8
     e8c:	00821824 	and	v1,a0,v0
     e90:	3c020400 	lui	v0,0x400
     e94:	14620004 	bne	v1,v0,0xea8
     e98:	24050001 	li	a1,1
     e9c:	8f82ff94 	lw	v0,-108(gp)
     ea0:	90420008 	lbu	v0,8(v0)
     ea4:	24050001 	li	a1,1
     ea8:	8fbf0010 	lw	ra,16(sp)
     eac:	00a01021 	move	v0,a1
     eb0:	03e00008 	jr	ra
     eb4:	27bd0018 	addiu	sp,sp,24
     eb8:	8f82ff98 	lw	v0,-104(gp)
     ebc:	24050001 	li	a1,1
     ec0:	a040001a 	sb	zero,26(v0)
     ec4:	3c028000 	lui	v0,0x8000
     ec8:	34420140 	ori	v0,v0,0x140
     ecc:	0a000342 	j	0x8000d08
     ed0:	8c440000 	lw	a0,0(v0)
     ed4:	8f85ff94 	lw	a1,-108(gp)
     ed8:	27bdffe0 	addiu	sp,sp,-32
     edc:	afbf001c 	sw	ra,28(sp)
     ee0:	afb20018 	sw	s2,24(sp)
     ee4:	afb10014 	sw	s1,20(sp)
     ee8:	afb00010 	sw	s0,16(sp)
     eec:	90a20000 	lbu	v0,0(a1)
     ef0:	304400ff 	andi	a0,v0,0xff
     ef4:	38830020 	xori	v1,a0,0x20
     ef8:	38820030 	xori	v0,a0,0x30
     efc:	0003182b 	sltu	v1,zero,v1
     f00:	0002102b 	sltu	v0,zero,v0
     f04:	00621824 	and	v1,v1,v0
     f08:	10600003 	beqz	v1,0xf18
     f0c:	24020050 	li	v0,80
     f10:	148200a8 	bne	a0,v0,0x11b4
     f14:	8fbf001c 	lw	ra,28(sp)
     f18:	90a20005 	lbu	v0,5(a1)
     f1c:	30420001 	andi	v0,v0,0x1
     f20:	104000a4 	beqz	v0,0x11b4
     f24:	8fbf001c 	lw	ra,28(sp)
     f28:	3c028000 	lui	v0,0x8000
     f2c:	34420140 	ori	v0,v0,0x140
     f30:	90420008 	lbu	v0,8(v0)
     f34:	2443ffff 	addiu	v1,v0,-1
     f38:	2c620005 	sltiu	v0,v1,5
     f3c:	1040009e 	beqz	v0,0x11b8
     f40:	8fb20018 	lw	s2,24(sp)
     f44:	00031080 	sll	v0,v1,0x2
     f48:	3c030800 	lui	v1,0x800
     f4c:	246355ac 	addiu	v1,v1,21932
     f50:	00431021 	addu	v0,v0,v1
     f54:	8c420000 	lw	v0,0(v0)
     f58:	00400008 	jr	v0
     f5c:	00000000 	nop
     f60:	3c028000 	lui	v0,0x8000
     f64:	34510140 	ori	s1,v0,0x140
     f68:	0e000332 	jal	0x8000cc8
     f6c:	8e240000 	lw	a0,0(s1)
     f70:	8f92ff94 	lw	s2,-108(gp)
     f74:	8e220004 	lw	v0,4(s1)
     f78:	8e50000c 	lw	s0,12(s2)
     f7c:	16020002 	bne	s0,v0,0xf88
     f80:	24020001 	li	v0,1
     f84:	ae42000c 	sw	v0,12(s2)
     f88:	0e00033d 	jal	0x8000cf4
     f8c:	8e240000 	lw	a0,0(s1)
     f90:	8e220004 	lw	v0,4(s1)
     f94:	14500006 	bne	v0,s0,0xfb0
     f98:	8fbf001c 	lw	ra,28(sp)
     f9c:	8fb20018 	lw	s2,24(sp)
     fa0:	8fb10014 	lw	s1,20(sp)
     fa4:	8fb00010 	lw	s0,16(sp)
     fa8:	0a000f78 	j	0x8003de0
     fac:	27bd0020 	addiu	sp,sp,32
     fb0:	8e42000c 	lw	v0,12(s2)
     fb4:	0a000419 	j	0x8001064
     fb8:	00000000 	nop
     fbc:	3c048000 	lui	a0,0x8000
     fc0:	34820140 	ori	v0,a0,0x140
     fc4:	94a30010 	lhu	v1,16(a1)
     fc8:	8c420004 	lw	v0,4(v0)
     fcc:	3063ffff 	andi	v1,v1,0xffff
     fd0:	1443001c 	bne	v0,v1,0x1044
     fd4:	00000000 	nop
     fd8:	24020001 	li	v0,1
     fdc:	a4a20010 	sh	v0,16(a1)
     fe0:	8c820238 	lw	v0,568(a0)
     fe4:	0441000f 	bgez	v0,0x1024
     fe8:	3c038000 	lui	v1,0x8000
     fec:	3c02003f 	lui	v0,0x3f
     ff0:	3448f000 	ori	t0,v0,0xf000
     ff4:	3c076000 	lui	a3,0x6000
     ff8:	3c06ffc0 	lui	a2,0xffc0
     ffc:	8ce22bbc 	lw	v0,11196(a3)
    1000:	00461824 	and	v1,v0,a2
    1004:	00481024 	and	v0,v0,t0
    1008:	00021302 	srl	v0,v0,0xc
    100c:	00031d82 	srl	v1,v1,0x16
    1010:	10620058 	beq	v1,v0,0x1174
    1014:	3c028000 	lui	v0,0x8000
    1018:	8c820238 	lw	v0,568(a0)
    101c:	0440fff7 	bltz	v0,0xffc
    1020:	3c038000 	lui	v1,0x8000
    1024:	34620140 	ori	v0,v1,0x140
    1028:	8c440000 	lw	a0,0(v0)
    102c:	34620200 	ori	v0,v1,0x200
    1030:	ac440000 	sw	a0,0(v0)
    1034:	3c021000 	lui	v0,0x1000
    1038:	ac620238 	sw	v0,568(v1)
    103c:	0a00043b 	j	0x80010ec
    1040:	8fbf001c 	lw	ra,28(sp)
    1044:	94a20010 	lhu	v0,16(a1)
    1048:	0a000419 	j	0x8001064
    104c:	00000000 	nop
    1050:	24020020 	li	v0,32
    1054:	1482000f 	bne	a0,v0,0x1094
    1058:	3c028000 	lui	v0,0x8000
    105c:	3c038000 	lui	v1,0x8000
    1060:	94a20012 	lhu	v0,18(a1)
    1064:	34630140 	ori	v1,v1,0x140
    1068:	8c630004 	lw	v1,4(v1)
    106c:	3042ffff 	andi	v0,v0,0xffff
    1070:	14620005 	bne	v1,v0,0x1088
    1074:	00000000 	nop
    1078:	24020001 	li	v0,1
    107c:	a4a20012 	sh	v0,18(a1)
    1080:	0a000402 	j	0x8001008
    1084:	8fbf001c 	lw	ra,28(sp)
    1088:	94a20012 	lhu	v0,18(a1)
    108c:	0a000419 	j	0x8001064
    1090:	00000000 	nop
    1094:	34510140 	ori	s1,v0,0x140
    1098:	0e000332 	jal	0x8000cc8
    109c:	8e240000 	lw	a0,0(s1)
    10a0:	8f92ff94 	lw	s2,-108(gp)
    10a4:	8e230004 	lw	v1,4(s1)
    10a8:	96420012 	lhu	v0,18(s2)
    10ac:	3050ffff 	andi	s0,v0,0xffff
    10b0:	16030002 	bne	s0,v1,0x10bc
    10b4:	24020001 	li	v0,1
    10b8:	a6420012 	sh	v0,18(s2)
    10bc:	0e00033d 	jal	0x8000cf4
    10c0:	8e240000 	lw	a0,0(s1)
    10c4:	8e220004 	lw	v0,4(s1)
    10c8:	16020006 	bne	s0,v0,0x10e4
    10cc:	8fbf001c 	lw	ra,28(sp)
    10d0:	8fb20018 	lw	s2,24(sp)
    10d4:	8fb10014 	lw	s1,20(sp)
    10d8:	8fb00010 	lw	s0,16(sp)
    10dc:	0a00037c 	j	0x8000df0
    10e0:	27bd0020 	addiu	sp,sp,32
    10e4:	96420012 	lhu	v0,18(s2)
    10e8:	0a000419 	j	0x8001064
    10ec:	00000000 	nop
    10f0:	3c038000 	lui	v1,0x8000
    10f4:	94a20014 	lhu	v0,20(a1)
    10f8:	34630140 	ori	v1,v1,0x140
    10fc:	8c630004 	lw	v1,4(v1)
    1100:	3042ffff 	andi	v0,v0,0xffff
    1104:	14620008 	bne	v1,v0,0x1128
    1108:	24020001 	li	v0,1
    110c:	8fbf001c 	lw	ra,28(sp)
    1110:	8fb20018 	lw	s2,24(sp)
    1114:	8fb10014 	lw	s1,20(sp)
    1118:	8fb00010 	lw	s0,16(sp)
    111c:	a4a20014 	sh	v0,20(a1)
    1120:	0a001463 	j	0x800518c
    1124:	27bd0020 	addiu	sp,sp,32
    1128:	94a20014 	lhu	v0,20(a1)
    112c:	14400021 	bnez	v0,0x11b4
    1130:	8fbf001c 	lw	ra,28(sp)
    1134:	0a000435 	j	0x80010d4
    1138:	00000000 	nop
    113c:	3c038000 	lui	v1,0x8000
    1140:	94a20016 	lhu	v0,22(a1)
    1144:	34630140 	ori	v1,v1,0x140
    1148:	8c630004 	lw	v1,4(v1)
    114c:	3042ffff 	andi	v0,v0,0xffff
    1150:	1462000d 	bne	v1,v0,0x1188
    1154:	24020001 	li	v0,1
    1158:	8fbf001c 	lw	ra,28(sp)
    115c:	8fb20018 	lw	s2,24(sp)
    1160:	8fb10014 	lw	s1,20(sp)
    1164:	8fb00010 	lw	s0,16(sp)
    1168:	a4a20016 	sh	v0,22(a1)
    116c:	0a000b14 	j	0x8002c50
    1170:	27bd0020 	addiu	sp,sp,32
    1174:	94420078 	lhu	v0,120(v0)
    1178:	24420004 	addiu	v0,v0,4
    117c:	a4a20010 	sh	v0,16(a1)
    1180:	0a00043b 	j	0x80010ec
    1184:	8fbf001c 	lw	ra,28(sp)
    1188:	94a20016 	lhu	v0,22(a1)
    118c:	24030001 	li	v1,1
    1190:	3042ffff 	andi	v0,v0,0xffff
    1194:	14430007 	bne	v0,v1,0x11b4
    1198:	8fbf001c 	lw	ra,28(sp)
    119c:	3c020800 	lui	v0,0x800
    11a0:	8c420070 	lw	v0,112(v0)
    11a4:	24420001 	addiu	v0,v0,1
    11a8:	3c010800 	lui	at,0x800
    11ac:	ac220070 	sw	v0,112(at)
    11b0:	8fbf001c 	lw	ra,28(sp)
    11b4:	8fb20018 	lw	s2,24(sp)
    11b8:	8fb10014 	lw	s1,20(sp)
    11bc:	8fb00010 	lw	s0,16(sp)
    11c0:	03e00008 	jr	ra
    11c4:	27bd0020 	addiu	sp,sp,32
    11c8:	27bdffd8 	addiu	sp,sp,-40
    11cc:	afb20018 	sw	s2,24(sp)
    11d0:	8f92ff94 	lw	s2,-108(gp)
    11d4:	afb10014 	sw	s1,20(sp)
    11d8:	afbf0020 	sw	ra,32(sp)
    11dc:	afb3001c 	sw	s3,28(sp)
    11e0:	afb00010 	sw	s0,16(sp)
    11e4:	3c028000 	lui	v0,0x8000
    11e8:	34510100 	ori	s1,v0,0x100
    11ec:	8c500100 	lw	s0,256(v0)
    11f0:	92420000 	lbu	v0,0(s2)
    11f4:	92230009 	lbu	v1,9(s1)
    11f8:	304400ff 	andi	a0,v0,0xff
    11fc:	2402001f 	li	v0,31
    1200:	106200ab 	beq	v1,v0,0x14b0
    1204:	28620020 	slti	v0,v1,32
    1208:	10400019 	beqz	v0,0x1270
    120c:	24020038 	li	v0,56
    1210:	2862000a 	slti	v0,v1,10
    1214:	1040000d 	beqz	v0,0x124c
    1218:	2402000b 	li	v0,11
    121c:	28620008 	slti	v0,v1,8
    1220:	1040002e 	beqz	v0,0x12dc
    1224:	8f820024 	lw	v0,36(gp)
    1228:	04600104 	bltz	v1,0x163c
    122c:	28620002 	slti	v0,v1,2
    1230:	1440002a 	bnez	v0,0x12dc
    1234:	8f820024 	lw	v0,36(gp)
    1238:	24020006 	li	v0,6
    123c:	10620026 	beq	v1,v0,0x12d8
    1240:	8fbf0020 	lw	ra,32(sp)
    1244:	0a00055f 	j	0x800157c
    1248:	8fb3001c 	lw	s3,28(sp)
    124c:	10620060 	beq	v1,v0,0x13d0
    1250:	2862000b 	slti	v0,v1,11
    1254:	144000fa 	bnez	v0,0x1640
    1258:	8fbf0020 	lw	ra,32(sp)
    125c:	2402000e 	li	v0,14
    1260:	10620078 	beq	v1,v0,0x1444
    1264:	8f820024 	lw	v0,36(gp)
    1268:	0a00055f 	j	0x800157c
    126c:	8fb3001c 	lw	s3,28(sp)
    1270:	106200d2 	beq	v1,v0,0x15bc
    1274:	28620039 	slti	v0,v1,57
    1278:	1040000a 	beqz	v0,0x12a4
    127c:	24020080 	li	v0,128
    1280:	24020036 	li	v0,54
    1284:	106200e5 	beq	v1,v0,0x161c
    1288:	28620037 	slti	v0,v1,55
    128c:	104000c3 	beqz	v0,0x159c
    1290:	24020035 	li	v0,53
    1294:	106200d9 	beq	v1,v0,0x15fc
    1298:	8fbf0020 	lw	ra,32(sp)
    129c:	0a00055f 	j	0x800157c
    12a0:	8fb3001c 	lw	s3,28(sp)
    12a4:	1062002d 	beq	v1,v0,0x135c
    12a8:	28620081 	slti	v0,v1,129
    12ac:	10400006 	beqz	v0,0x12c8
    12b0:	240200c8 	li	v0,200
    12b4:	24020039 	li	v0,57
    12b8:	106200c9 	beq	v1,v0,0x15e0
    12bc:	8fbf0020 	lw	ra,32(sp)
    12c0:	0a00055f 	j	0x800157c
    12c4:	8fb3001c 	lw	s3,28(sp)
    12c8:	106200a2 	beq	v1,v0,0x1554
    12cc:	8fbf0020 	lw	ra,32(sp)
    12d0:	0a00055f 	j	0x800157c
    12d4:	8fb3001c 	lw	s3,28(sp)
    12d8:	8f820024 	lw	v0,36(gp)
    12dc:	8c42000c 	lw	v0,12(v0)
    12e0:	104000d7 	beqz	v0,0x1640
    12e4:	8fbf0020 	lw	ra,32(sp)
    12e8:	0e000d84 	jal	0x8003610
    12ec:	00000000 	nop
    12f0:	3c038000 	lui	v1,0x8000
    12f4:	34630100 	ori	v1,v1,0x100
    12f8:	8c620000 	lw	v0,0(v1)
    12fc:	8f850020 	lw	a1,32(gp)
    1300:	94670008 	lhu	a3,8(v1)
    1304:	9466000c 	lhu	a2,12(v1)
    1308:	aca20000 	sw	v0,0(a1)
    130c:	8c640004 	lw	a0,4(v1)
    1310:	8f820024 	lw	v0,36(gp)
    1314:	00063400 	sll	a2,a2,0x10
    1318:	aca40004 	sw	a0,4(a1)
    131c:	9448001e 	lhu	t0,30(v0)
    1320:	8c620018 	lw	v0,24(v1)
    1324:	00073c00 	sll	a3,a3,0x10
    1328:	00e83825 	or	a3,a3,t0
    132c:	aca20008 	sw	v0,8(a1)
    1330:	8c62001c 	lw	v0,28(v1)
    1334:	24040001 	li	a0,1
    1338:	aca2000c 	sw	v0,12(a1)
    133c:	9062000a 	lbu	v0,10(v1)
    1340:	00c23025 	or	a2,a2,v0
    1344:	aca60010 	sw	a2,16(a1)
    1348:	aca00014 	sw	zero,20(a1)
    134c:	aca00018 	sw	zero,24(a1)
    1350:	aca7001c 	sw	a3,28(a1)
    1354:	0a00051d 	j	0x8001474
    1358:	8fbf0020 	lw	ra,32(sp)
    135c:	8f820024 	lw	v0,36(gp)
    1360:	8c42000c 	lw	v0,12(v0)
    1364:	104000b6 	beqz	v0,0x1640
    1368:	8fbf0020 	lw	ra,32(sp)
    136c:	0e000d84 	jal	0x8003610
    1370:	00000000 	nop
    1374:	8f820024 	lw	v0,36(gp)
    1378:	96240008 	lhu	a0,8(s1)
    137c:	9625000c 	lhu	a1,12(s1)
    1380:	9443001e 	lhu	v1,30(v0)
    1384:	00042202 	srl	a0,a0,0x8
    1388:	9626000e 	lhu	a2,14(s1)
    138c:	8f820020 	lw	v0,32(gp)
    1390:	00042600 	sll	a0,a0,0x18
    1394:	00832025 	or	a0,a0,v1
    1398:	00052c00 	sll	a1,a1,0x10
    139c:	3c030080 	lui	v1,0x80
    13a0:	00a62825 	or	a1,a1,a2
    13a4:	00832025 	or	a0,a0,v1
    13a8:	ac400000 	sw	zero,0(v0)
    13ac:	ac400004 	sw	zero,4(v0)
    13b0:	ac400008 	sw	zero,8(v0)
    13b4:	ac40000c 	sw	zero,12(v0)
    13b8:	ac450010 	sw	a1,16(v0)
    13bc:	ac400014 	sw	zero,20(v0)
    13c0:	ac400018 	sw	zero,24(v0)
    13c4:	ac44001c 	sw	a0,28(v0)
    13c8:	0a00051c 	j	0x8001470
    13cc:	24040001 	li	a0,1
    13d0:	9622000c 	lhu	v0,12(s1)
    13d4:	14400018 	bnez	v0,0x1438
    13d8:	00000000 	nop
    13dc:	92420005 	lbu	v0,5(s2)
    13e0:	30420010 	andi	v0,v0,0x10
    13e4:	14400014 	bnez	v0,0x1438
    13e8:	00000000 	nop
    13ec:	0e000332 	jal	0x8000cc8
    13f0:	02002021 	move	a0,s0
    13f4:	92420005 	lbu	v0,5(s2)
    13f8:	02002021 	move	a0,s0
    13fc:	34420010 	ori	v0,v0,0x10
    1400:	0e00033d 	jal	0x8000cf4
    1404:	a2420005 	sb	v0,5(s2)
    1408:	92420000 	lbu	v0,0(s2)
    140c:	24030020 	li	v1,32
    1410:	304200ff 	andi	v0,v0,0xff
    1414:	10430089 	beq	v0,v1,0x163c
    1418:	02002021 	move	a0,s0
    141c:	8fbf0020 	lw	ra,32(sp)
    1420:	8fb3001c 	lw	s3,28(sp)
    1424:	8fb20018 	lw	s2,24(sp)
    1428:	8fb10014 	lw	s1,20(sp)
    142c:	8fb00010 	lw	s0,16(sp)
    1430:	0a001075 	j	0x80041d4
    1434:	27bd0028 	addiu	sp,sp,40
    1438:	0000000d 	break
    143c:	0a00055e 	j	0x8001578
    1440:	8fbf0020 	lw	ra,32(sp)
    1444:	8c42000c 	lw	v0,12(v0)
    1448:	1040007d 	beqz	v0,0x1640
    144c:	8fbf0020 	lw	ra,32(sp)
    1450:	0e000d84 	jal	0x8003610
    1454:	00000000 	nop
    1458:	8e220004 	lw	v0,4(s1)
    145c:	8f840020 	lw	a0,32(gp)
    1460:	9623000c 	lhu	v1,12(s1)
    1464:	ac820000 	sw	v0,0(a0)
    1468:	3c028008 	lui	v0,0x8008
    146c:	9445002c 	lhu	a1,44(v0)
    1470:	8f820024 	lw	v0,36(gp)
    1474:	00031c00 	sll	v1,v1,0x10
    1478:	30a5ffff 	andi	a1,a1,0xffff
    147c:	9446001e 	lhu	a2,30(v0)
    1480:	3c02400e 	lui	v0,0x400e
    1484:	00651825 	or	v1,v1,a1
    1488:	00c23025 	or	a2,a2,v0
    148c:	ac830004 	sw	v1,4(a0)
    1490:	ac800008 	sw	zero,8(a0)
    1494:	ac80000c 	sw	zero,12(a0)
    1498:	ac800010 	sw	zero,16(a0)
    149c:	ac800014 	sw	zero,20(a0)
    14a0:	ac800018 	sw	zero,24(a0)
    14a4:	ac86001c 	sw	a2,28(a0)
    14a8:	0a00051c 	j	0x8001470
    14ac:	24040001 	li	a0,1
    14b0:	0e000332 	jal	0x8000cc8
    14b4:	02002021 	move	a0,s0
    14b8:	8f93ff98 	lw	s3,-104(gp)
    14bc:	02002021 	move	a0,s0
    14c0:	0e00033d 	jal	0x8000cf4
    14c4:	a660000c 	sh	zero,12(s3)
    14c8:	02002021 	move	a0,s0
    14cc:	0e000342 	jal	0x8000d08
    14d0:	24050001 	li	a1,1
    14d4:	8f820024 	lw	v0,36(gp)
    14d8:	8c42000c 	lw	v0,12(v0)
    14dc:	10400058 	beqz	v0,0x1640
    14e0:	8fbf0020 	lw	ra,32(sp)
    14e4:	0e000d84 	jal	0x8003610
    14e8:	00000000 	nop
    14ec:	9622000c 	lhu	v0,12(s1)
    14f0:	8f830020 	lw	v1,32(gp)
    14f4:	00021400 	sll	v0,v0,0x10
    14f8:	ac700000 	sw	s0,0(v1)
    14fc:	ac620004 	sw	v0,4(v1)
    1500:	ac600008 	sw	zero,8(v1)
    1504:	8e440038 	lw	a0,56(s2)
    1508:	8f820024 	lw	v0,36(gp)
    150c:	ac64000c 	sw	a0,12(v1)
    1510:	8e46003c 	lw	a2,60(s2)
    1514:	9445001e 	lhu	a1,30(v0)
    1518:	3c02401f 	lui	v0,0x401f
    151c:	ac660010 	sw	a2,16(v1)
    1520:	00a22825 	or	a1,a1,v0
    1524:	8e620004 	lw	v0,4(s3)
    1528:	24040001 	li	a0,1
    152c:	ac620014 	sw	v0,20(v1)
    1530:	ac600018 	sw	zero,24(v1)
    1534:	ac65001c 	sw	a1,28(v1)
    1538:	8fbf0020 	lw	ra,32(sp)
    153c:	8fb3001c 	lw	s3,28(sp)
    1540:	8fb20018 	lw	s2,24(sp)
    1544:	8fb10014 	lw	s1,20(sp)
    1548:	8fb00010 	lw	s0,16(sp)
    154c:	0a000db8 	j	0x80036e0
    1550:	27bd0028 	addiu	sp,sp,40
    1554:	24020020 	li	v0,32
    1558:	1082003a 	beq	a0,v0,0x1644
    155c:	8fb3001c 	lw	s3,28(sp)
    1560:	0e000f5e 	jal	0x8003d78
    1564:	00000000 	nop
    1568:	10400035 	beqz	v0,0x1640
    156c:	8fbf0020 	lw	ra,32(sp)
    1570:	3c048000 	lui	a0,0x8000
    1574:	8c8201f8 	lw	v0,504(a0)
    1578:	0440fffe 	bltz	v0,0x1574
    157c:	348201c0 	ori	v0,a0,0x1c0
    1580:	24030002 	li	v1,2
    1584:	ac500000 	sw	s0,0(v0)
    1588:	a0430004 	sb	v1,4(v0)
    158c:	3c021000 	lui	v0,0x1000
    1590:	ac8201f8 	sw	v0,504(a0)
    1594:	0a00055e 	j	0x8001578
    1598:	8fbf0020 	lw	ra,32(sp)
    159c:	02002021 	move	a0,s0
    15a0:	8fbf0020 	lw	ra,32(sp)
    15a4:	8fb3001c 	lw	s3,28(sp)
    15a8:	8fb20018 	lw	s2,24(sp)
    15ac:	8fb10014 	lw	s1,20(sp)
    15b0:	8fb00010 	lw	s0,16(sp)
    15b4:	0a000ea7 	j	0x8003a9c
    15b8:	27bd0028 	addiu	sp,sp,40
    15bc:	9625000c 	lhu	a1,12(s1)
    15c0:	02002021 	move	a0,s0
    15c4:	8fbf0020 	lw	ra,32(sp)
    15c8:	8fb3001c 	lw	s3,28(sp)
    15cc:	8fb20018 	lw	s2,24(sp)
    15d0:	8fb10014 	lw	s1,20(sp)
    15d4:	8fb00010 	lw	s0,16(sp)
    15d8:	0a000ecc 	j	0x8003b30
    15dc:	27bd0028 	addiu	sp,sp,40
    15e0:	02002021 	move	a0,s0
    15e4:	8fb3001c 	lw	s3,28(sp)
    15e8:	8fb20018 	lw	s2,24(sp)
    15ec:	8fb10014 	lw	s1,20(sp)
    15f0:	8fb00010 	lw	s0,16(sp)
    15f4:	0a000ef7 	j	0x8003bdc
    15f8:	27bd0028 	addiu	sp,sp,40
    15fc:	9225000d 	lbu	a1,13(s1)
    1600:	02002021 	move	a0,s0
    1604:	8fb3001c 	lw	s3,28(sp)
    1608:	8fb20018 	lw	s2,24(sp)
    160c:	8fb10014 	lw	s1,20(sp)
    1610:	8fb00010 	lw	s0,16(sp)
    1614:	0a000f48 	j	0x8003d20
    1618:	27bd0028 	addiu	sp,sp,40
    161c:	02002021 	move	a0,s0
    1620:	8fbf0020 	lw	ra,32(sp)
    1624:	8fb3001c 	lw	s3,28(sp)
    1628:	8fb20018 	lw	s2,24(sp)
    162c:	8fb10014 	lw	s1,20(sp)
    1630:	8fb00010 	lw	s0,16(sp)
    1634:	0a000f1f 	j	0x8003c7c
    1638:	27bd0028 	addiu	sp,sp,40
    163c:	8fbf0020 	lw	ra,32(sp)
    1640:	8fb3001c 	lw	s3,28(sp)
    1644:	8fb20018 	lw	s2,24(sp)
    1648:	8fb10014 	lw	s1,20(sp)
    164c:	8fb00010 	lw	s0,16(sp)
    1650:	03e00008 	jr	ra
    1654:	27bd0028 	addiu	sp,sp,40
    1658:	3c058000 	lui	a1,0x8000
    165c:	8ca20278 	lw	v0,632(a1)
    1660:	0440fffe 	bltz	v0,0x165c
    1664:	34a20240 	ori	v0,a1,0x240
    1668:	24030002 	li	v1,2
    166c:	ac440000 	sw	a0,0(v0)
    1670:	a0430004 	sb	v1,4(v0)
    1674:	3c021000 	lui	v0,0x1000
    1678:	03e00008 	jr	ra
    167c:	aca20278 	sw	v0,632(a1)
    1680:	a3800018 	sb	zero,24(gp)
    1684:	03e00008 	jr	ra
    1688:	a3800019 	sb	zero,25(gp)
    168c:	3c038000 	lui	v1,0x8000
    1690:	8c620278 	lw	v0,632(v1)
    1694:	0440fffe 	bltz	v0,0x1690
    1698:	8f82001c 	lw	v0,28(gp)
    169c:	ac620240 	sw	v0,576(v1)
    16a0:	24020002 	li	v0,2
    16a4:	a0620244 	sb	v0,580(v1)
    16a8:	3c021000 	lui	v0,0x1000
    16ac:	03e00008 	jr	ra
    16b0:	ac620278 	sw	v0,632(v1)
    16b4:	3c026000 	lui	v0,0x6000
    16b8:	03e00008 	jr	ra
    16bc:	8c425404 	lw	v0,21508(v0)
    16c0:	90830030 	lbu	v1,48(a0)
    16c4:	24020005 	li	v0,5
    16c8:	00804021 	move	t0,a0
    16cc:	3063003f 	andi	v1,v1,0x3f
    16d0:	00004821 	move	t1,zero
    16d4:	14620005 	bne	v1,v0,0x16ec
    16d8:	00005021 	move	t2,zero
    16dc:	9082004c 	lbu	v0,76(a0)
    16e0:	9483004e 	lhu	v1,78(a0)
    16e4:	304900ff 	andi	t1,v0,0xff
    16e8:	306affff 	andi	t2,v1,0xffff
    16ec:	ad00000c 	sw	zero,12(t0)
    16f0:	ad000010 	sw	zero,16(t0)
    16f4:	ad000024 	sw	zero,36(t0)
    16f8:	95020014 	lhu	v0,20(t0)
    16fc:	8d05001c 	lw	a1,28(t0)
    1700:	8d040018 	lw	a0,24(t0)
    1704:	3042ffff 	andi	v0,v0,0xffff
    1708:	00491023 	subu	v0,v0,t1
    170c:	00021100 	sll	v0,v0,0x4
    1710:	000237c3 	sra	a2,v0,0x1f
    1714:	00403821 	move	a3,v0
    1718:	00862023 	subu	a0,a0,a2
    171c:	00a2102b 	sltu	v0,a1,v0
    1720:	00822023 	subu	a0,a0,v0
    1724:	00a72823 	subu	a1,a1,a3
    1728:	ad05001c 	sw	a1,28(t0)
    172c:	ad040018 	sw	a0,24(t0)
    1730:	a5090014 	sh	t1,20(t0)
    1734:	a5090020 	sh	t1,32(t0)
    1738:	a50a0016 	sh	t2,22(t0)
    173c:	03e00008 	jr	ra
    1740:	a50a0022 	sh	t2,34(t0)
    1744:	03e00008 	jr	ra
    1748:	00000000 	nop
    174c:	27bdffd8 	addiu	sp,sp,-40
    1750:	afb20018 	sw	s2,24(sp)
    1754:	3c128008 	lui	s2,0x8008
    1758:	afb40020 	sw	s4,32(sp)
    175c:	afb3001c 	sw	s3,28(sp)
    1760:	afb10014 	sw	s1,20(sp)
    1764:	afbf0024 	sw	ra,36(sp)
    1768:	afb00010 	sw	s0,16(sp)
    176c:	36510100 	ori	s1,s2,0x100
    1770:	3c026000 	lui	v0,0x6000
    1774:	8c425404 	lw	v0,21508(v0)
    1778:	9222000c 	lbu	v0,12(s1)
    177c:	3c140800 	lui	s4,0x800
    1780:	929400f7 	lbu	s4,247(s4)
    1784:	304300ff 	andi	v1,v0,0xff
    1788:	24020001 	li	v0,1
    178c:	10620032 	beq	v1,v0,0x1858
    1790:	00809821 	move	s3,a0
    1794:	24020002 	li	v0,2
    1798:	14620035 	bne	v1,v0,0x1870
    179c:	36500080 	ori	s0,s2,0x80
    17a0:	0e00143d 	jal	0x80050f4
    17a4:	00000000 	nop
    17a8:	9202004c 	lbu	v0,76(s0)
    17ac:	2403ff80 	li	v1,-128
    17b0:	3c048000 	lui	a0,0x8000
    17b4:	3042007f 	andi	v0,v0,0x7f
    17b8:	000211c0 	sll	v0,v0,0x7
    17bc:	24420240 	addiu	v0,v0,576
    17c0:	02621021 	addu	v0,s3,v0
    17c4:	00431824 	and	v1,v0,v1
    17c8:	ac830094 	sw	v1,148(a0)
    17cc:	92450008 	lbu	a1,8(s2)
    17d0:	9204004c 	lbu	a0,76(s0)
    17d4:	3042007f 	andi	v0,v0,0x7f
    17d8:	3c038006 	lui	v1,0x8006
    17dc:	14850007 	bne	a0,a1,0x17fc
    17e0:	00438021 	addu	s0,v0,v1
    17e4:	2402ffff 	li	v0,-1
    17e8:	a2220011 	sb	v0,17(s1)
    17ec:	2402ffff 	li	v0,-1
    17f0:	a6220012 	sh	v0,18(s1)
    17f4:	0a0005d2 	j	0x8001748
    17f8:	2402ffff 	li	v0,-1
    17fc:	96020020 	lhu	v0,32(s0)
    1800:	a2220011 	sb	v0,17(s1)
    1804:	96020022 	lhu	v0,34(s0)
    1808:	a6220012 	sh	v0,18(s1)
    180c:	8e020024 	lw	v0,36(s0)
    1810:	3c048008 	lui	a0,0x8008
    1814:	ae220014 	sw	v0,20(s1)
    1818:	34850080 	ori	a1,a0,0x80
    181c:	90a2004c 	lbu	v0,76(a1)
    1820:	34830100 	ori	v1,a0,0x100
    1824:	a0620010 	sb	v0,16(v1)
    1828:	8ca2003c 	lw	v0,60(a1)
    182c:	ac620018 	sw	v0,24(v1)
    1830:	8c820068 	lw	v0,104(a0)
    1834:	ac6200f4 	sw	v0,244(v1)
    1838:	8c820064 	lw	v0,100(a0)
    183c:	ac6200f0 	sw	v0,240(v1)
    1840:	8c82006c 	lw	v0,108(a0)
    1844:	ac6200f8 	sw	v0,248(v1)
    1848:	24020001 	li	v0,1
    184c:	a0a20068 	sb	v0,104(a1)
    1850:	0a0005ee 	j	0x80017b8
    1854:	3c048008 	lui	a0,0x8008
    1858:	0e001456 	jal	0x8005158
    185c:	00000000 	nop
    1860:	36420080 	ori	v0,s2,0x80
    1864:	a0400068 	sb	zero,104(v0)
    1868:	0a0005ee 	j	0x80017b8
    186c:	3c048008 	lui	a0,0x8008
    1870:	a2000068 	sb	zero,104(s0)
    1874:	a2000069 	sb	zero,105(s0)
    1878:	0a000629 	j	0x80018a4
    187c:	3c028008 	lui	v0,0x8008
    1880:	34830080 	ori	v1,a0,0x80
    1884:	8c620038 	lw	v0,56(v1)
    1888:	34850100 	ori	a1,a0,0x100
    188c:	ac62006c 	sw	v0,108(v1)
    1890:	24020001 	li	v0,1
    1894:	a0620069 	sb	v0,105(v1)
    1898:	90a200d5 	lbu	v0,213(a1)
    189c:	90830008 	lbu	v1,8(a0)
    18a0:	305100ff 	andi	s1,v0,0xff
    18a4:	3072007f 	andi	s2,v1,0x7f
    18a8:	12320019 	beq	s1,s2,0x1910
    18ac:	001111c0 	sll	v0,s1,0x7
    18b0:	24420240 	addiu	v0,v0,576
    18b4:	02621021 	addu	v0,s3,v0
    18b8:	2403ff80 	li	v1,-128
    18bc:	00431824 	and	v1,v0,v1
    18c0:	3c048000 	lui	a0,0x8000
    18c4:	ac830094 	sw	v1,148(a0)
    18c8:	3042007f 	andi	v0,v0,0x7f
    18cc:	3c038006 	lui	v1,0x8006
    18d0:	00438021 	addu	s0,v0,v1
    18d4:	8e02000c 	lw	v0,12(s0)
    18d8:	1040000d 	beqz	v0,0x1910
    18dc:	02002021 	move	a0,s0
    18e0:	0e00057e 	jal	0x80015f8
    18e4:	00000000 	nop
    18e8:	26220001 	addiu	v0,s1,1
    18ec:	305100ff 	andi	s1,v0,0xff
    18f0:	9203003c 	lbu	v1,60(s0)
    18f4:	02341026 	xor	v0,s1,s4
    18f8:	0002102b 	sltu	v0,zero,v0
    18fc:	00021023 	negu	v0,v0
    1900:	3063007f 	andi	v1,v1,0x7f
    1904:	02228824 	and	s1,s1,v0
    1908:	0a0005f8 	j	0x80017e0
    190c:	a203003c 	sb	v1,60(s0)
    1910:	3c088008 	lui	t0,0x8008
    1914:	35040100 	ori	a0,t0,0x100
    1918:	8c8200e0 	lw	v0,224(a0)
    191c:	35070080 	ori	a3,t0,0x80
    1920:	ace2003c 	sw	v0,60(a3)
    1924:	8c8200e0 	lw	v0,224(a0)
    1928:	ad020000 	sw	v0,0(t0)
    192c:	90e5004c 	lbu	a1,76(a3)
    1930:	908600d5 	lbu	a2,213(a0)
    1934:	90e3004c 	lbu	v1,76(a3)
    1938:	908400d5 	lbu	a0,213(a0)
    193c:	2402ff80 	li	v0,-128
    1940:	00a22824 	and	a1,a1,v0
    1944:	3063007f 	andi	v1,v1,0x7f
    1948:	308400ff 	andi	a0,a0,0xff
    194c:	00a62825 	or	a1,a1,a2
    1950:	0064182a 	slt	v1,v1,a0
    1954:	10600002 	beqz	v1,0x1960
    1958:	30a500ff 	andi	a1,a1,0xff
    195c:	38a50080 	xori	a1,a1,0x80
    1960:	a0e5004c 	sb	a1,76(a3)
    1964:	a1050009 	sb	a1,9(t0)
    1968:	3c028008 	lui	v0,0x8008
    196c:	9043000e 	lbu	v1,14(v0)
    1970:	34440080 	ori	a0,v0,0x80
    1974:	3c058000 	lui	a1,0x8000
    1978:	a043000a 	sb	v1,10(v0)
    197c:	8c830018 	lw	v1,24(a0)
    1980:	3c027fff 	lui	v0,0x7fff
    1984:	3442ffff 	ori	v0,v0,0xffff
    1988:	00621824 	and	v1,v1,v0
    198c:	ac830018 	sw	v1,24(a0)
    1990:	8ca201f8 	lw	v0,504(a1)
    1994:	0440fffe 	bltz	v0,0x1990
    1998:	00000000 	nop
    199c:	acb301c0 	sw	s3,448(a1)
    19a0:	8fbf0024 	lw	ra,36(sp)
    19a4:	8fb40020 	lw	s4,32(sp)
    19a8:	8fb3001c 	lw	s3,28(sp)
    19ac:	8fb20018 	lw	s2,24(sp)
    19b0:	8fb10014 	lw	s1,20(sp)
    19b4:	8fb00010 	lw	s0,16(sp)
    19b8:	24020002 	li	v0,2
    19bc:	a0a201c4 	sb	v0,452(a1)
    19c0:	27bd0028 	addiu	sp,sp,40
    19c4:	3c021000 	lui	v0,0x1000
    19c8:	03e00008 	jr	ra
    19cc:	aca201f8 	sw	v0,504(a1)
    19d0:	90a20000 	lbu	v0,0(a1)
    19d4:	24420001 	addiu	v0,v0,1
    19d8:	a0a20000 	sb	v0,0(a1)
    19dc:	3c030800 	lui	v1,0x800
    19e0:	8c6300f4 	lw	v1,244(v1)
    19e4:	304200ff 	andi	v0,v0,0xff
    19e8:	14430002 	bne	v0,v1,0x19f4
    19ec:	00803021 	move	a2,a0
    19f0:	a0a00000 	sb	zero,0(a1)
    19f4:	90a20000 	lbu	v0,0(a1)
    19f8:	8f84001c 	lw	a0,28(gp)
    19fc:	000211c0 	sll	v0,v0,0x7
    1a00:	24420240 	addiu	v0,v0,576
    1a04:	24830040 	addiu	v1,a0,64
    1a08:	00822021 	addu	a0,a0,v0
    1a0c:	2402ff80 	li	v0,-128
    1a10:	00822024 	and	a0,a0,v0
    1a14:	3063007f 	andi	v1,v1,0x7f
    1a18:	3c02800a 	lui	v0,0x800a
    1a1c:	00621821 	addu	v1,v1,v0
    1a20:	3c028000 	lui	v0,0x8000
    1a24:	ac440024 	sw	a0,36(v0)
    1a28:	03e00008 	jr	ra
    1a2c:	acc30000 	sw	v1,0(a2)
    1a30:	94820006 	lhu	v0,6(a0)
    1a34:	90830005 	lbu	v1,5(a0)
    1a38:	8c85000c 	lw	a1,12(a0)
    1a3c:	8c860010 	lw	a2,16(a0)
    1a40:	8c870018 	lw	a3,24(a0)
    1a44:	8c88001c 	lw	t0,28(a0)
    1a48:	8c840020 	lw	a0,32(a0)
    1a4c:	3c010800 	lui	at,0x800
    1a50:	a42256c6 	sh	v0,22214(at)
    1a54:	3c010800 	lui	at,0x800
    1a58:	a02356c5 	sb	v1,22213(at)
    1a5c:	3c010800 	lui	at,0x800
    1a60:	ac2556cc 	sw	a1,22220(at)
    1a64:	3c010800 	lui	at,0x800
    1a68:	ac2656d0 	sw	a2,22224(at)
    1a6c:	3c010800 	lui	at,0x800
    1a70:	ac2756d8 	sw	a3,22232(at)
    1a74:	3c010800 	lui	at,0x800
    1a78:	ac2856dc 	sw	t0,22236(at)
    1a7c:	3c010800 	lui	at,0x800
    1a80:	ac2456e0 	sw	a0,22240(at)
    1a84:	03e00008 	jr	ra
    1a88:	00000000 	nop
    1a8c:	3c028008 	lui	v0,0x8008
    1a90:	34420100 	ori	v0,v0,0x100
    1a94:	8c440034 	lw	a0,52(v0)
    1a98:	3c038000 	lui	v1,0x8000
    1a9c:	34650400 	ori	a1,v1,0x400
    1aa0:	ac640038 	sw	a0,56(v1)
    1aa4:	8c420038 	lw	v0,56(v0)
    1aa8:	af850028 	sw	a1,40(gp)
    1aac:	ac62003c 	sw	v0,60(v1)
    1ab0:	3c020005 	lui	v0,0x5
    1ab4:	ac620030 	sw	v0,48(v1)
	...
    1ac0:	03e00008 	jr	ra
    1ac4:	00000000 	nop
    1ac8:	3c020006 	lui	v0,0x6
    1acc:	308400ff 	andi	a0,a0,0xff
    1ad0:	00822025 	or	a0,a0,v0
    1ad4:	3c028000 	lui	v0,0x8000
    1ad8:	ac440030 	sw	a0,48(v0)
	...
    1ae8:	3c038000 	lui	v1,0x8000
    1aec:	8c620000 	lw	v0,0(v1)
    1af0:	30420010 	andi	v0,v0,0x10
    1af4:	1040fffd 	beqz	v0,0x1aec
    1af8:	34620400 	ori	v0,v1,0x400
    1afc:	03e00008 	jr	ra
    1b00:	af820028 	sw	v0,40(gp)
    1b04:	94c20000 	lhu	v0,0(a2)
    1b08:	3c080800 	lui	t0,0x800
    1b0c:	950800ca 	lhu	t0,202(t0)
    1b10:	30e7ffff 	andi	a3,a3,0xffff
    1b14:	00804821 	move	t1,a0
    1b18:	01021021 	addu	v0,t0,v0
    1b1c:	a4c20000 	sh	v0,0(a2)
    1b20:	94c20000 	lhu	v0,0(a2)
    1b24:	3042ffff 	andi	v0,v0,0xffff
    1b28:	00e2102b 	sltu	v0,a3,v0
    1b2c:	54400001 	bnezl	v0,0x1b34
    1b30:	a4c70000 	sh	a3,0(a2)
    1b34:	94a20000 	lhu	v0,0(a1)
    1b38:	3c030800 	lui	v1,0x800
    1b3c:	8c6300cc 	lw	v1,204(v1)
    1b40:	24420001 	addiu	v0,v0,1
    1b44:	a4a20000 	sh	v0,0(a1)
    1b48:	94a20000 	lhu	v0,0(a1)
    1b4c:	3042ffff 	andi	v0,v0,0xffff
    1b50:	14430007 	bne	v0,v1,0x1b70
    1b54:	3c028008 	lui	v0,0x8008
    1b58:	0107102b 	sltu	v0,t0,a3
    1b5c:	a4a00000 	sh	zero,0(a1)
    1b60:	54400001 	bnezl	v0,0x1b68
    1b64:	01003821 	move	a3,t0
    1b68:	a4c70000 	sh	a3,0(a2)
    1b6c:	3c028008 	lui	v0,0x8008
    1b70:	34460100 	ori	a2,v0,0x100
    1b74:	8cc30028 	lw	v1,40(a2)
    1b78:	94a20000 	lhu	v0,0(a1)
    1b7c:	3c048000 	lui	a0,0x8000
    1b80:	3042fffe 	andi	v0,v0,0xfffe
    1b84:	000210c0 	sll	v0,v0,0x3
    1b88:	00621021 	addu	v0,v1,v0
    1b8c:	ac82003c 	sw	v0,60(a0)
    1b90:	8c82003c 	lw	v0,60(a0)
    1b94:	00621823 	subu	v1,v1,v0
    1b98:	18600004 	blez	v1,0x1bac
    1b9c:	00000000 	nop
    1ba0:	8cc20024 	lw	v0,36(a2)
    1ba4:	0a0006ba 	j	0x8001ae8
    1ba8:	24420001 	addiu	v0,v0,1
    1bac:	8cc20024 	lw	v0,36(a2)
    1bb0:	ac820038 	sw	v0,56(a0)
    1bb4:	3c020050 	lui	v0,0x50
    1bb8:	34420010 	ori	v0,v0,0x10
    1bbc:	3c038000 	lui	v1,0x8000
    1bc0:	ac620030 	sw	v0,48(v1)
	...
    1bd0:	8c620000 	lw	v0,0(v1)
    1bd4:	30420020 	andi	v0,v0,0x20
    1bd8:	1040fffd 	beqz	v0,0x1bd0
    1bdc:	00000000 	nop
    1be0:	94a20000 	lhu	v0,0(a1)
    1be4:	3c048000 	lui	a0,0x8000
    1be8:	30420001 	andi	v0,v0,0x1
    1bec:	000210c0 	sll	v0,v0,0x3
    1bf0:	00441021 	addu	v0,v0,a0
    1bf4:	8c430400 	lw	v1,1024(v0)
    1bf8:	ad230000 	sw	v1,0(t1)
    1bfc:	8c420404 	lw	v0,1028(v0)
    1c00:	ad220004 	sw	v0,4(t1)
    1c04:	3c020020 	lui	v0,0x20
    1c08:	03e00008 	jr	ra
    1c0c:	ac820030 	sw	v0,48(a0)
    1c10:	27bdffe0 	addiu	sp,sp,-32
    1c14:	afb20018 	sw	s2,24(sp)
    1c18:	afb10014 	sw	s1,20(sp)
    1c1c:	afb00010 	sw	s0,16(sp)
    1c20:	afbf001c 	sw	ra,28(sp)
    1c24:	94c20000 	lhu	v0,0(a2)
    1c28:	00c08021 	move	s0,a2
    1c2c:	3c120800 	lui	s2,0x800
    1c30:	965200c6 	lhu	s2,198(s2)
    1c34:	24420001 	addiu	v0,v0,1
    1c38:	a6020000 	sh	v0,0(s0)
    1c3c:	96030000 	lhu	v1,0(s0)
    1c40:	94e20000 	lhu	v0,0(a3)
    1c44:	00e03021 	move	a2,a3
    1c48:	14430005 	bne	v0,v1,0x1c60
    1c4c:	8fb10030 	lw	s1,48(sp)
    1c50:	0e00068f 	jal	0x8001a3c
    1c54:	02403821 	move	a3,s2
    1c58:	0a0006f1 	j	0x8001bc4
    1c5c:	00000000 	nop
    1c60:	8c830004 	lw	v1,4(a0)
    1c64:	8c820004 	lw	v0,4(a0)
    1c68:	24420040 	addiu	v0,v0,64
    1c6c:	04610007 	bgez	v1,0x1c8c
    1c70:	ac820004 	sw	v0,4(a0)
    1c74:	8c820004 	lw	v0,4(a0)
    1c78:	04400004 	bltz	v0,0x1c8c
    1c7c:	00000000 	nop
    1c80:	8c820000 	lw	v0,0(a0)
    1c84:	24420001 	addiu	v0,v0,1
    1c88:	ac820000 	sw	v0,0(a0)
    1c8c:	96020000 	lhu	v0,0(s0)
    1c90:	3042ffff 	andi	v0,v0,0xffff
    1c94:	50520001 	beql	v0,s2,0x1c9c
    1c98:	a6000000 	sh	zero,0(s0)
    1c9c:	96220000 	lhu	v0,0(s1)
    1ca0:	24420001 	addiu	v0,v0,1
    1ca4:	a6220000 	sh	v0,0(s1)
    1ca8:	3c028008 	lui	v0,0x8008
    1cac:	34420100 	ori	v0,v0,0x100
    1cb0:	96230000 	lhu	v1,0(s1)
    1cb4:	9442003c 	lhu	v0,60(v0)
    1cb8:	14430004 	bne	v0,v1,0x1ccc
    1cbc:	8fbf001c 	lw	ra,28(sp)
    1cc0:	24020001 	li	v0,1
    1cc4:	a6220000 	sh	v0,0(s1)
    1cc8:	8fbf001c 	lw	ra,28(sp)
    1ccc:	8fb20018 	lw	s2,24(sp)
    1cd0:	8fb10014 	lw	s1,20(sp)
    1cd4:	8fb00010 	lw	s0,16(sp)
    1cd8:	03e00008 	jr	ra
    1cdc:	27bd0020 	addiu	sp,sp,32
    1ce0:	27bdffe0 	addiu	sp,sp,-32
    1ce4:	3c028008 	lui	v0,0x8008
    1ce8:	afbf0018 	sw	ra,24(sp)
    1cec:	34420100 	ori	v0,v0,0x100
    1cf0:	8c480034 	lw	t0,52(v0)
    1cf4:	3c038000 	lui	v1,0x8000
    1cf8:	34690400 	ori	t1,v1,0x400
    1cfc:	ac680038 	sw	t0,56(v1)
    1d00:	8c420038 	lw	v0,56(v0)
    1d04:	30e700ff 	andi	a3,a3,0xff
    1d08:	af890028 	sw	t1,40(gp)
    1d0c:	ac62003c 	sw	v0,60(v1)
    1d10:	3c020005 	lui	v0,0x5
    1d14:	ac620030 	sw	v0,48(v1)
	...
    1d30:	8c82000c 	lw	v0,12(a0)
    1d34:	8c82000c 	lw	v0,12(a0)
    1d38:	97830016 	lhu	v1,22(gp)
    1d3c:	ad220000 	sw	v0,0(t1)
    1d40:	8c820010 	lw	v0,16(a0)
    1d44:	00604021 	move	t0,v1
    1d48:	ad220004 	sw	v0,4(t1)
    1d4c:	8c820018 	lw	v0,24(a0)
    1d50:	ad220008 	sw	v0,8(t1)
    1d54:	8c82001c 	lw	v0,28(a0)
    1d58:	ad22000c 	sw	v0,12(t1)
    1d5c:	8ca20014 	lw	v0,20(a1)
    1d60:	ad220010 	sw	v0,16(t1)
    1d64:	8c820020 	lw	v0,32(a0)
    1d68:	ad220014 	sw	v0,20(t1)
    1d6c:	90820005 	lbu	v0,5(a0)
    1d70:	304200ff 	andi	v0,v0,0xff
    1d74:	00021200 	sll	v0,v0,0x8
    1d78:	ad220018 	sw	v0,24(t1)
    1d7c:	8ca20018 	lw	v0,24(a1)
    1d80:	ad22001c 	sw	v0,28(t1)
    1d84:	8ca2000c 	lw	v0,12(a1)
    1d88:	ad220020 	sw	v0,32(t1)
    1d8c:	8ca20010 	lw	v0,16(a1)
    1d90:	ad220024 	sw	v0,36(t1)
    1d94:	8ca2001c 	lw	v0,28(a1)
    1d98:	ad220028 	sw	v0,40(t1)
    1d9c:	8ca20020 	lw	v0,32(a1)
    1da0:	ad22002c 	sw	v0,44(t1)
    1da4:	3402ffff 	li	v0,0xffff
    1da8:	ad260030 	sw	a2,48(t1)
    1dac:	ad200034 	sw	zero,52(t1)
    1db0:	50620001 	beql	v1,v0,0x1db8
    1db4:	3408ffff 	li	t0,0xffff
    1db8:	ad280038 	sw	t0,56(t1)
    1dbc:	50e00011 	beqzl	a3,0x1e04
    1dc0:	3c028008 	lui	v0,0x8008
    1dc4:	3c048008 	lui	a0,0x8008
    1dc8:	34840100 	ori	a0,a0,0x100
    1dcc:	94820050 	lhu	v0,80(a0)
    1dd0:	3042ffff 	andi	v0,v0,0xffff
    1dd4:	ad22003c 	sw	v0,60(t1)
    1dd8:	94830044 	lhu	v1,68(a0)
    1ddc:	94850044 	lhu	a1,68(a0)
    1de0:	24020001 	li	v0,1
    1de4:	3063ffff 	andi	v1,v1,0xffff
    1de8:	000318c2 	srl	v1,v1,0x3
    1dec:	00641821 	addu	v1,v1,a0
    1df0:	90640064 	lbu	a0,100(v1)
    1df4:	30a50007 	andi	a1,a1,0x7
    1df8:	00a21004 	sllv	v0,v0,a1
    1dfc:	0a00075c 	j	0x8001d70
    1e00:	00441025 	or	v0,v0,a0
    1e04:	34420100 	ori	v0,v0,0x100
    1e08:	ad20003c 	sw	zero,60(t1)
    1e0c:	94430044 	lhu	v1,68(v0)
    1e10:	94440044 	lhu	a0,68(v0)
    1e14:	3063ffff 	andi	v1,v1,0xffff
    1e18:	000318c2 	srl	v1,v1,0x3
    1e1c:	00621821 	addu	v1,v1,v0
    1e20:	30840007 	andi	a0,a0,0x7
    1e24:	90650064 	lbu	a1,100(v1)
    1e28:	24020001 	li	v0,1
    1e2c:	00821004 	sllv	v0,v0,a0
    1e30:	00021027 	nor	v0,zero,v0
    1e34:	00451024 	and	v0,v0,a1
    1e38:	a0620064 	sb	v0,100(v1)
	...
    1e48:	3c020006 	lui	v0,0x6
    1e4c:	34420040 	ori	v0,v0,0x40
    1e50:	3c038000 	lui	v1,0x8000
    1e54:	ac620030 	sw	v0,48(v1)
	...
    1e64:	8c620000 	lw	v0,0(v1)
    1e68:	30420010 	andi	v0,v0,0x10
    1e6c:	1040fffd 	beqz	v0,0x1e64
    1e70:	3c068008 	lui	a2,0x8008
    1e74:	34c20150 	ori	v0,a2,0x150
    1e78:	34630400 	ori	v1,v1,0x400
    1e7c:	34c7014a 	ori	a3,a2,0x14a
    1e80:	34c40134 	ori	a0,a2,0x134
    1e84:	34c50140 	ori	a1,a2,0x140
    1e88:	34c60144 	ori	a2,a2,0x144
    1e8c:	afa20010 	sw	v0,16(sp)
    1e90:	0e0006d2 	jal	0x8001b48
    1e94:	af830028 	sw	v1,40(gp)
    1e98:	8fbf0018 	lw	ra,24(sp)
    1e9c:	03e00008 	jr	ra
    1ea0:	27bd0020 	addiu	sp,sp,32
    1ea4:	8f830014 	lw	v1,20(gp)
    1ea8:	3c060800 	lui	a2,0x800
    1eac:	8cc600e8 	lw	a2,232(a2)
    1eb0:	8f82001c 	lw	v0,28(gp)
    1eb4:	30633fff 	andi	v1,v1,0x3fff
    1eb8:	00031980 	sll	v1,v1,0x6
    1ebc:	00461021 	addu	v0,v0,a2
    1ec0:	00431021 	addu	v0,v0,v1
    1ec4:	2403ff80 	li	v1,-128
    1ec8:	00431824 	and	v1,v0,v1
    1ecc:	3c068000 	lui	a2,0x8000
    1ed0:	acc30028 	sw	v1,40(a2)
    1ed4:	3042007f 	andi	v0,v0,0x7f
    1ed8:	3c03800c 	lui	v1,0x800c
    1edc:	00433021 	addu	a2,v0,v1
    1ee0:	90c2000d 	lbu	v0,13(a2)
    1ee4:	30a500ff 	andi	a1,a1,0xff
    1ee8:	00003821 	move	a3,zero
    1eec:	34420010 	ori	v0,v0,0x10
    1ef0:	a0c2000d 	sb	v0,13(a2)
    1ef4:	8f890014 	lw	t1,20(gp)
    1ef8:	3c028008 	lui	v0,0x8008
    1efc:	34420100 	ori	v0,v0,0x100
    1f00:	94430044 	lhu	v1,68(v0)
    1f04:	00091382 	srl	v0,t1,0xe
    1f08:	30480003 	andi	t0,v0,0x3
    1f0c:	24020001 	li	v0,1
    1f10:	a4c3000e 	sh	v1,14(a2)
    1f14:	1102000b 	beq	t0,v0,0x1f44
    1f18:	29020002 	slti	v0,t0,2
    1f1c:	10400005 	beqz	v0,0x1f34
    1f20:	24020002 	li	v0,2
    1f24:	1100000c 	beqz	t0,0x1f58
    1f28:	24030001 	li	v1,1
    1f2c:	0a0007a4 	j	0x8001e90
    1f30:	00001821 	move	v1,zero
    1f34:	11020006 	beq	t0,v0,0x1f50
    1f38:	00000000 	nop
    1f3c:	0a0007a4 	j	0x8001e90
    1f40:	00001821 	move	v1,zero
    1f44:	8cc2002c 	lw	v0,44(a2)
    1f48:	0a0007a4 	j	0x8001e90
    1f4c:	24430001 	addiu	v1,v0,1
    1f50:	8cc20014 	lw	v0,20(a2)
    1f54:	24430001 	addiu	v1,v0,1
    1f58:	8cc20018 	lw	v0,24(a2)
    1f5c:	0043102b 	sltu	v0,v0,v1
    1f60:	5040000a 	beqzl	v0,0x1f8c
    1f64:	24070001 	li	a3,1
    1f68:	24020027 	li	v0,39
    1f6c:	14a20003 	bne	a1,v0,0x1f7c
    1f70:	3c038008 	lui	v1,0x8008
    1f74:	0a0007b1 	j	0x8001ec4
    1f78:	24070001 	li	a3,1
    1f7c:	34630100 	ori	v1,v1,0x100
    1f80:	9462004c 	lhu	v0,76(v1)
    1f84:	24420001 	addiu	v0,v0,1
    1f88:	a462004c 	sh	v0,76(v1)
    1f8c:	00091382 	srl	v0,t1,0xe
    1f90:	30430003 	andi	v1,v0,0x3
    1f94:	2c620002 	sltiu	v0,v1,2
    1f98:	10400009 	beqz	v0,0x1fc0
    1f9c:	00802821 	move	a1,a0
    1fa0:	14600004 	bnez	v1,0x1fb4
    1fa4:	00000000 	nop
    1fa8:	94c20034 	lhu	v0,52(a2)
    1fac:	0a0007c1 	j	0x8001f04
    1fb0:	3046ffff 	andi	a2,v0,0xffff
    1fb4:	8cc60038 	lw	a2,56(a2)
    1fb8:	0a0007c1 	j	0x8001f04
    1fbc:	00802821 	move	a1,a0
    1fc0:	00003021 	move	a2,zero
    1fc4:	3c040800 	lui	a0,0x800
    1fc8:	248456c0 	addiu	a0,a0,22208
    1fcc:	0a000706 	j	0x8001c18
    1fd0:	00000000 	nop
    1fd4:	27bdff90 	addiu	sp,sp,-112
    1fd8:	afb60068 	sw	s6,104(sp)
    1fdc:	afb50064 	sw	s5,100(sp)
    1fe0:	afb40060 	sw	s4,96(sp)
    1fe4:	afb3005c 	sw	s3,92(sp)
    1fe8:	afb20058 	sw	s2,88(sp)
    1fec:	afb10054 	sw	s1,84(sp)
    1ff0:	afbf006c 	sw	ra,108(sp)
    1ff4:	afb00050 	sw	s0,80(sp)
    1ff8:	8c900000 	lw	s0,0(a0)
    1ffc:	0080b021 	move	s6,a0
    2000:	3c020800 	lui	v0,0x800
    2004:	8c4200e8 	lw	v0,232(v0)
    2008:	96040032 	lhu	a0,50(s0)
    200c:	8f83001c 	lw	v1,28(gp)
    2010:	2414ff80 	li	s4,-128
    2014:	30843fff 	andi	a0,a0,0x3fff
    2018:	00621821 	addu	v1,v1,v0
    201c:	00042180 	sll	a0,a0,0x6
    2020:	00641821 	addu	v1,v1,a0
    2024:	00741024 	and	v0,v1,s4
    2028:	3c138000 	lui	s3,0x8000
    202c:	00a09021 	move	s2,a1
    2030:	90a50000 	lbu	a1,0(a1)
    2034:	ae620028 	sw	v0,40(s3)
    2038:	92040032 	lbu	a0,50(s0)
    203c:	3c02800c 	lui	v0,0x800c
    2040:	3063007f 	andi	v1,v1,0x7f
    2044:	00628821 	addu	s1,v1,v0
    2048:	308400c0 	andi	a0,a0,0xc0
    204c:	24020040 	li	v0,64
    2050:	14820032 	bne	a0,v0,0x211c
    2054:	0000a821 	move	s5,zero
    2058:	8e350038 	lw	s5,56(s1)
    205c:	8e220018 	lw	v0,24(s1)
    2060:	14400002 	bnez	v0,0x206c
    2064:	24020001 	li	v0,1
    2068:	ae220018 	sw	v0,24(s1)
    206c:	9202003c 	lbu	v0,60(s0)
    2070:	30420020 	andi	v0,v0,0x20
    2074:	1440000e 	bnez	v0,0x20b0
    2078:	8f83001c 	lw	v1,28(gp)
    207c:	000511c0 	sll	v0,a1,0x7
    2080:	24420240 	addiu	v0,v0,576
    2084:	00621821 	addu	v1,v1,v0
    2088:	30640078 	andi	a0,v1,0x78
    208c:	3c020080 	lui	v0,0x80
    2090:	00822025 	or	a0,a0,v0
    2094:	00741824 	and	v1,v1,s4
    2098:	ae630800 	sw	v1,2048(s3)
    209c:	ae640810 	sw	a0,2064(s3)
    20a0:	8e220018 	lw	v0,24(s1)
    20a4:	8e030008 	lw	v1,8(s0)
    20a8:	00431021 	addu	v0,v0,v1
    20ac:	ae220018 	sw	v0,24(s1)
    20b0:	8e22002c 	lw	v0,44(s1)
    20b4:	8e230018 	lw	v1,24(s1)
    20b8:	24420001 	addiu	v0,v0,1
    20bc:	0062182b 	sltu	v1,v1,v0
    20c0:	10600043 	beqz	v1,0x21d0
    20c4:	00000000 	nop
    20c8:	92420000 	lbu	v0,0(s2)
    20cc:	24420001 	addiu	v0,v0,1
    20d0:	a2420000 	sb	v0,0(s2)
    20d4:	3c030800 	lui	v1,0x800
    20d8:	8c6300f4 	lw	v1,244(v1)
    20dc:	304200ff 	andi	v0,v0,0xff
    20e0:	50430001 	beql	v0,v1,0x20e8
    20e4:	a2400000 	sb	zero,0(s2)
    20e8:	92420000 	lbu	v0,0(s2)
    20ec:	8f84001c 	lw	a0,28(gp)
    20f0:	000211c0 	sll	v0,v0,0x7
    20f4:	24420240 	addiu	v0,v0,576
    20f8:	24830040 	addiu	v1,a0,64
    20fc:	3063007f 	andi	v1,v1,0x7f
    2100:	00822021 	addu	a0,a0,v0
    2104:	3c02800a 	lui	v0,0x800a
    2108:	00942024 	and	a0,a0,s4
    210c:	00621821 	addu	v1,v1,v0
    2110:	ae640024 	sw	a0,36(s3)
    2114:	0a0008d2 	j	0x8002348
    2118:	aec30000 	sw	v1,0(s6)
    211c:	92030032 	lbu	v1,50(s0)
    2120:	2402ffc0 	li	v0,-64
    2124:	00431024 	and	v0,v0,v1
    2128:	304200ff 	andi	v0,v0,0xff
    212c:	14400005 	bnez	v0,0x2144
    2130:	24020001 	li	v0,1
    2134:	ae220018 	sw	v0,24(s1)
    2138:	96220034 	lhu	v0,52(s1)
    213c:	0a000842 	j	0x8002108
    2140:	3055ffff 	andi	s5,v0,0xffff
    2144:	8e220014 	lw	v0,20(s1)
    2148:	24420001 	addiu	v0,v0,1
    214c:	ae220018 	sw	v0,24(s1)
    2150:	92020030 	lbu	v0,48(s0)
    2154:	00021600 	sll	v0,v0,0x18
    2158:	00021603 	sra	v0,v0,0x18
    215c:	0441001c 	bgez	v0,0x21d0
    2160:	00000000 	nop
    2164:	96020032 	lhu	v0,50(s0)
    2168:	27a40010 	addiu	a0,sp,16
    216c:	00802821 	move	a1,a0
    2170:	a7a20016 	sh	v0,22(sp)
    2174:	96020032 	lhu	v0,50(s0)
    2178:	00003021 	move	a2,zero
    217c:	24070001 	li	a3,1
    2180:	3042ffff 	andi	v0,v0,0xffff
    2184:	af820014 	sw	v0,20(gp)
    2188:	0e000706 	jal	0x8001c18
    218c:	afa0001c 	sw	zero,28(sp)
    2190:	96020032 	lhu	v0,50(s0)
    2194:	8f83001c 	lw	v1,28(gp)
    2198:	3c040800 	lui	a0,0x800
    219c:	8c8400e8 	lw	a0,232(a0)
    21a0:	30423fff 	andi	v0,v0,0x3fff
    21a4:	00021180 	sll	v0,v0,0x6
    21a8:	00641821 	addu	v1,v1,a0
    21ac:	00621821 	addu	v1,v1,v0
    21b0:	00741024 	and	v0,v1,s4
    21b4:	ae62002c 	sw	v0,44(s3)
    21b8:	3063007f 	andi	v1,v1,0x7f
    21bc:	3c02800e 	lui	v0,0x800e
    21c0:	00621821 	addu	v1,v1,v0
    21c4:	9062000d 	lbu	v0,13(v1)
    21c8:	3042007f 	andi	v0,v0,0x7f
    21cc:	a062000d 	sb	v0,13(v1)
    21d0:	9222000d 	lbu	v0,13(s1)
    21d4:	30420010 	andi	v0,v0,0x10
    21d8:	50400078 	beqzl	v0,0x23bc
    21dc:	92420000 	lbu	v0,0(s2)
    21e0:	3c028008 	lui	v0,0x8008
    21e4:	34440100 	ori	a0,v0,0x100
    21e8:	9482004c 	lhu	v0,76(a0)
    21ec:	8ec30000 	lw	v1,0(s6)
    21f0:	3c130800 	lui	s3,0x800
    21f4:	967300c6 	lhu	s3,198(s3)
    21f8:	2442ffff 	addiu	v0,v0,-1
    21fc:	a482004c 	sh	v0,76(a0)
    2200:	94620032 	lhu	v0,50(v1)
    2204:	9623000e 	lhu	v1,14(s1)
    2208:	3054ffff 	andi	s4,v0,0xffff
    220c:	3070ffff 	andi	s0,v1,0xffff
    2210:	3c030800 	lui	v1,0x800
    2214:	8c6300d0 	lw	v1,208(v1)
    2218:	00701807 	srav	v1,s0,v1
    221c:	a7a30038 	sh	v1,56(sp)
    2220:	9482003e 	lhu	v0,62(a0)
    2224:	3063ffff 	andi	v1,v1,0xffff
    2228:	3042ffff 	andi	v0,v0,0xffff
    222c:	14620007 	bne	v1,v0,0x224c
    2230:	00000000 	nop
    2234:	8c820030 	lw	v0,48(a0)
    2238:	3c038000 	lui	v1,0x8000
    223c:	24420030 	addiu	v0,v0,48
    2240:	ac62003c 	sw	v0,60(v1)
    2244:	0a00086a 	j	0x80021a8
    2248:	8c82002c 	lw	v0,44(a0)
    224c:	94820040 	lhu	v0,64(a0)
    2250:	3042ffff 	andi	v0,v0,0xffff
    2254:	54620009 	bnel	v1,v0,0x227c
    2258:	27a40040 	addiu	a0,sp,64
    225c:	8c820038 	lw	v0,56(a0)
    2260:	3c038000 	lui	v1,0x8000
    2264:	24420030 	addiu	v0,v0,48
    2268:	ac62003c 	sw	v0,60(v1)
    226c:	8c820034 	lw	v0,52(a0)
    2270:	ac620038 	sw	v0,56(v1)
    2274:	0a000879 	j	0x80021e4
    2278:	3c038000 	lui	v1,0x8000
    227c:	27a50038 	addiu	a1,sp,56
    2280:	27a60048 	addiu	a2,sp,72
    2284:	02603821 	move	a3,s3
    2288:	0e00068f 	jal	0x8001a3c
    228c:	a7a00048 	sh	zero,72(sp)
    2290:	8fa30040 	lw	v1,64(sp)
    2294:	3c028000 	lui	v0,0x8000
    2298:	24630030 	addiu	v1,v1,48
    229c:	ac430038 	sw	v1,56(v0)
    22a0:	8fa30044 	lw	v1,68(sp)
    22a4:	ac43003c 	sw	v1,60(v0)
    22a8:	3c038000 	lui	v1,0x8000
    22ac:	3c020005 	lui	v0,0x5
    22b0:	ac620030 	sw	v0,48(v1)
    22b4:	3c028008 	lui	v0,0x8008
    22b8:	34440100 	ori	a0,v0,0x100
    22bc:	94820042 	lhu	v0,66(a0)
    22c0:	34630400 	ori	v1,v1,0x400
    22c4:	3042ffff 	andi	v0,v0,0xffff
    22c8:	0202102b 	sltu	v0,s0,v0
    22cc:	14400007 	bnez	v0,0x22ec
    22d0:	af830028 	sw	v1,40(gp)
    22d4:	9482004e 	lhu	v0,78(a0)
    22d8:	94830042 	lhu	v1,66(a0)
    22dc:	02021021 	addu	v0,s0,v0
    22e0:	00431023 	subu	v0,v0,v1
    22e4:	0a00088f 	j	0x800223c
    22e8:	3043ffff 	andi	v1,v0,0xffff
    22ec:	9483004e 	lhu	v1,78(a0)
    22f0:	94820042 	lhu	v0,66(a0)
    22f4:	02631821 	addu	v1,s3,v1
    22f8:	00501023 	subu	v0,v0,s0
    22fc:	00621823 	subu	v1,v1,v0
    2300:	3063ffff 	andi	v1,v1,0xffff
    2304:	3c028008 	lui	v0,0x8008
    2308:	34440100 	ori	a0,v0,0x100
    230c:	9482003c 	lhu	v0,60(a0)
    2310:	3042ffff 	andi	v0,v0,0xffff
    2314:	14430003 	bne	v0,v1,0x2324
    2318:	00000000 	nop
    231c:	0a00089f 	j	0x800227c
    2320:	24030001 	li	v1,1
    2324:	9482003c 	lhu	v0,60(a0)
    2328:	3042ffff 	andi	v0,v0,0xffff
    232c:	0062102b 	sltu	v0,v1,v0
    2330:	14400005 	bnez	v0,0x2348
    2334:	8f820028 	lw	v0,40(gp)
    2338:	9482003c 	lhu	v0,60(a0)
    233c:	00621023 	subu	v0,v1,v0
    2340:	3043ffff 	andi	v1,v0,0xffff
    2344:	8f820028 	lw	v0,40(gp)
    2348:	ac550000 	sw	s5,0(v0)
    234c:	ac400004 	sw	zero,4(v0)
    2350:	ac540008 	sw	s4,8(v0)
    2354:	ac43000c 	sw	v1,12(v0)
    2358:	3c020006 	lui	v0,0x6
    235c:	34420010 	ori	v0,v0,0x10
    2360:	3c038000 	lui	v1,0x8000
    2364:	ac620030 	sw	v0,48(v1)
	...
    2374:	8c620000 	lw	v0,0(v1)
    2378:	30420010 	andi	v0,v0,0x10
    237c:	1040fffd 	beqz	v0,0x2374
    2380:	3c048008 	lui	a0,0x8008
    2384:	34840100 	ori	a0,a0,0x100
    2388:	001018c2 	srl	v1,s0,0x3
    238c:	00641821 	addu	v1,v1,a0
    2390:	90650064 	lbu	a1,100(v1)
    2394:	32020007 	andi	v0,s0,0x7
    2398:	24060001 	li	a2,1
    239c:	00461004 	sllv	v0,a2,v0
    23a0:	00451025 	or	v0,v0,a1
    23a4:	a0620064 	sb	v0,100(v1)
    23a8:	94830042 	lhu	v1,66(a0)
    23ac:	9622000e 	lhu	v0,14(s1)
    23b0:	50430001 	beql	v0,v1,0x23b8
    23b4:	a3860018 	sb	a2,24(gp)
    23b8:	92420000 	lbu	v0,0(s2)
    23bc:	24420001 	addiu	v0,v0,1
    23c0:	a2420000 	sb	v0,0(s2)
    23c4:	3c030800 	lui	v1,0x800
    23c8:	8c6300f4 	lw	v1,244(v1)
    23cc:	304200ff 	andi	v0,v0,0xff
    23d0:	50430001 	beql	v0,v1,0x23d8
    23d4:	a2400000 	sb	zero,0(s2)
    23d8:	92420000 	lbu	v0,0(s2)
    23dc:	8f84001c 	lw	a0,28(gp)
    23e0:	000211c0 	sll	v0,v0,0x7
    23e4:	24420240 	addiu	v0,v0,576
    23e8:	24830040 	addiu	v1,a0,64
    23ec:	00822021 	addu	a0,a0,v0
    23f0:	2402ff80 	li	v0,-128
    23f4:	00822024 	and	a0,a0,v0
    23f8:	3063007f 	andi	v1,v1,0x7f
    23fc:	3c02800a 	lui	v0,0x800a
    2400:	00621821 	addu	v1,v1,v0
    2404:	3c028000 	lui	v0,0x8000
    2408:	ac440024 	sw	a0,36(v0)
    240c:	aec30000 	sw	v1,0(s6)
    2410:	8fbf006c 	lw	ra,108(sp)
    2414:	8fb60068 	lw	s6,104(sp)
    2418:	8fb50064 	lw	s5,100(sp)
    241c:	8fb40060 	lw	s4,96(sp)
    2420:	8fb3005c 	lw	s3,92(sp)
    2424:	8fb20058 	lw	s2,88(sp)
    2428:	8fb10054 	lw	s1,84(sp)
    242c:	8fb00050 	lw	s0,80(sp)
    2430:	03e00008 	jr	ra
    2434:	27bd0070 	addiu	sp,sp,112
    2438:	27bdffd8 	addiu	sp,sp,-40
    243c:	afb3001c 	sw	s3,28(sp)
    2440:	afb20018 	sw	s2,24(sp)
    2444:	afb10014 	sw	s1,20(sp)
    2448:	afb00010 	sw	s0,16(sp)
    244c:	afbf0020 	sw	ra,32(sp)
    2450:	00809821 	move	s3,a0
    2454:	00e08021 	move	s0,a3
    2458:	30b1ffff 	andi	s1,a1,0xffff
    245c:	0e000d84 	jal	0x8003610
    2460:	30d200ff 	andi	s2,a2,0xff
	...
    2470:	8f820020 	lw	v0,32(gp)
    2474:	8f830024 	lw	v1,36(gp)
    2478:	ac510000 	sw	s1,0(v0)
    247c:	ac520004 	sw	s2,4(v0)
    2480:	ac530008 	sw	s3,8(v0)
    2484:	ac40000c 	sw	zero,12(v0)
    2488:	ac400010 	sw	zero,16(v0)
    248c:	ac400014 	sw	zero,20(v0)
    2490:	ac400018 	sw	zero,24(v0)
    2494:	9463001e 	lhu	v1,30(v1)
    2498:	02038025 	or	s0,s0,v1
    249c:	ac50001c 	sw	s0,28(v0)
	...
    24ac:	24040001 	li	a0,1
    24b0:	8fbf0020 	lw	ra,32(sp)
    24b4:	8fb3001c 	lw	s3,28(sp)
    24b8:	8fb20018 	lw	s2,24(sp)
    24bc:	8fb10014 	lw	s1,20(sp)
    24c0:	8fb00010 	lw	s0,16(sp)
    24c4:	0a000db8 	j	0x80036e0
    24c8:	27bd0028 	addiu	sp,sp,40
    24cc:	30a5ffff 	andi	a1,a1,0xffff
    24d0:	0a0008dc 	j	0x8002370
    24d4:	30c600ff 	andi	a2,a2,0xff
    24d8:	3c028008 	lui	v0,0x8008
    24dc:	34430100 	ori	v1,v0,0x100
    24e0:	9462000e 	lhu	v0,14(v1)
    24e4:	3c080800 	lui	t0,0x800
    24e8:	950800c6 	lhu	t0,198(t0)
    24ec:	3046ffff 	andi	a2,v0,0xffff
    24f0:	14c00004 	bnez	a2,0x2504
    24f4:	3402ffff 	li	v0,0xffff
    24f8:	946500ea 	lhu	a1,234(v1)
    24fc:	0a000929 	j	0x80024a4
    2500:	8f84001c 	lw	a0,28(gp)
    2504:	10c20027 	beq	a2,v0,0x25a4
    2508:	00000000 	nop
    250c:	9462004e 	lhu	v0,78(v1)
    2510:	9464003c 	lhu	a0,60(v1)
    2514:	3045ffff 	andi	a1,v0,0xffff
    2518:	00a61023 	subu	v0,a1,a2
    251c:	00a6182b 	sltu	v1,a1,a2
    2520:	3087ffff 	andi	a3,a0,0xffff
    2524:	10600004 	beqz	v1,0x2538
    2528:	3044ffff 	andi	a0,v0,0xffff
    252c:	00c51023 	subu	v0,a2,a1
    2530:	00e21023 	subu	v0,a3,v0
    2534:	3044ffff 	andi	a0,v0,0xffff
    2538:	0088102b 	sltu	v0,a0,t0
    253c:	1040000e 	beqz	v0,0x2578
    2540:	00e81023 	subu	v0,a3,t0
    2544:	3c028008 	lui	v0,0x8008
    2548:	34440100 	ori	a0,v0,0x100
    254c:	24030001 	li	v1,1
    2550:	34420080 	ori	v0,v0,0x80
    2554:	a4430016 	sh	v1,22(v0)
    2558:	2402ffff 	li	v0,-1
    255c:	a482000e 	sh	v0,14(a0)
    2560:	948500ea 	lhu	a1,234(a0)
    2564:	8f84001c 	lw	a0,28(gp)
    2568:	00003021 	move	a2,zero
    256c:	30a5ffff 	andi	a1,a1,0xffff
    2570:	0a000901 	j	0x8002404
    2574:	3c076020 	lui	a3,0x6020
    2578:	0044102a 	slt	v0,v0,a0
    257c:	10400009 	beqz	v0,0x25a4
    2580:	3c028008 	lui	v0,0x8008
    2584:	34430080 	ori	v1,v0,0x80
    2588:	94620016 	lhu	v0,22(v1)
    258c:	30420001 	andi	v0,v0,0x1
    2590:	10400004 	beqz	v0,0x25a4
    2594:	3c028000 	lui	v0,0x8000
    2598:	9442007e 	lhu	v0,126(v0)
    259c:	24420014 	addiu	v0,v0,20
    25a0:	a4620016 	sh	v0,22(v1)
    25a4:	03e00008 	jr	ra
    25a8:	00000000 	nop
    25ac:	27bdffe0 	addiu	sp,sp,-32
    25b0:	3c028008 	lui	v0,0x8008
    25b4:	afbf001c 	sw	ra,28(sp)
    25b8:	afb00018 	sw	s0,24(sp)
    25bc:	34420100 	ori	v0,v0,0x100
    25c0:	94430042 	lhu	v1,66(v0)
    25c4:	9442004c 	lhu	v0,76(v0)
    25c8:	10400019 	beqz	v0,0x2630
    25cc:	3068ffff 	andi	t0,v1,0xffff
    25d0:	93830018 	lbu	v1,24(gp)
    25d4:	24020001 	li	v0,1
    25d8:	14620029 	bne	v1,v0,0x2680
    25dc:	8fbf001c 	lw	ra,28(sp)
    25e0:	3c068008 	lui	a2,0x8008
    25e4:	34d00100 	ori	s0,a2,0x100
    25e8:	000810c2 	srl	v0,t0,0x3
    25ec:	00501021 	addu	v0,v0,s0
    25f0:	90420064 	lbu	v0,100(v0)
    25f4:	31030007 	andi	v1,t0,0x7
    25f8:	34c70148 	ori	a3,a2,0x148
    25fc:	304200ff 	andi	v0,v0,0xff
    2600:	00621007 	srav	v0,v0,v1
    2604:	30420001 	andi	v0,v0,0x1
    2608:	34c9014e 	ori	t1,a2,0x14e
    260c:	34c4012c 	ori	a0,a2,0x12c
    2610:	34c5013e 	ori	a1,a2,0x13e
    2614:	10400016 	beqz	v0,0x2670
    2618:	34c60142 	ori	a2,a2,0x142
    261c:	0e0006d2 	jal	0x8001b48
    2620:	afa90010 	sw	t1,16(sp)
    2624:	96020042 	lhu	v0,66(s0)
    2628:	0a000946 	j	0x8002518
    262c:	3048ffff 	andi	t0,v0,0xffff
    2630:	3c028008 	lui	v0,0x8008
    2634:	34440100 	ori	a0,v0,0x100
    2638:	94830044 	lhu	v1,68(a0)
    263c:	94820042 	lhu	v0,66(a0)
    2640:	1043000f 	beq	v0,v1,0x2680
    2644:	8fbf001c 	lw	ra,28(sp)
    2648:	94820044 	lhu	v0,68(a0)
    264c:	a4820042 	sh	v0,66(a0)
    2650:	94820050 	lhu	v0,80(a0)
    2654:	a482004e 	sh	v0,78(a0)
    2658:	8c820038 	lw	v0,56(a0)
    265c:	ac820030 	sw	v0,48(a0)
    2660:	94820040 	lhu	v0,64(a0)
    2664:	a482003e 	sh	v0,62(a0)
    2668:	9482004a 	lhu	v0,74(a0)
    266c:	a4820048 	sh	v0,72(a0)
    2670:	8fbf001c 	lw	ra,28(sp)
    2674:	8fb00018 	lw	s0,24(sp)
    2678:	0a000904 	j	0x8002410
    267c:	27bd0020 	addiu	sp,sp,32
    2680:	8fb00018 	lw	s0,24(sp)
    2684:	03e00008 	jr	ra
    2688:	27bd0020 	addiu	sp,sp,32
    268c:	27bdffa0 	addiu	sp,sp,-96
    2690:	afb1004c 	sw	s1,76(sp)
    2694:	3c118000 	lui	s1,0x8000
    2698:	afbf0058 	sw	ra,88(sp)
    269c:	afb30054 	sw	s3,84(sp)
    26a0:	afb20050 	sw	s2,80(sp)
    26a4:	afb00048 	sw	s0,72(sp)
    26a8:	36260188 	ori	a2,s1,0x188
    26ac:	90c20003 	lbu	v0,3(a2)
    26b0:	3044007f 	andi	a0,v0,0x7f
    26b4:	a3a40010 	sb	a0,16(sp)
    26b8:	8e320180 	lw	s2,384(s1)
    26bc:	90c20000 	lbu	v0,0(a2)
    26c0:	3043007f 	andi	v1,v0,0x7f
    26c4:	24020003 	li	v0,3
    26c8:	1062003b 	beq	v1,v0,0x27b8
    26cc:	af92001c 	sw	s2,28(gp)
    26d0:	28620004 	slti	v0,v1,4
    26d4:	10400006 	beqz	v0,0x26f0
    26d8:	24020004 	li	v0,4
    26dc:	24020002 	li	v0,2
    26e0:	10620009 	beq	v1,v0,0x2708
    26e4:	8fbf0058 	lw	ra,88(sp)
    26e8:	0a000b0f 	j	0x8002c3c
    26ec:	8fb30054 	lw	s3,84(sp)
    26f0:	1062004d 	beq	v1,v0,0x2828
    26f4:	24020005 	li	v0,5
    26f8:	1062014e 	beq	v1,v0,0x2c34
    26fc:	8fbf0058 	lw	ra,88(sp)
    2700:	0a000b0f 	j	0x8002c3c
    2704:	8fb30054 	lw	s3,84(sp)
    2708:	000411c0 	sll	v0,a0,0x7
    270c:	02421021 	addu	v0,s2,v0
    2710:	2404ff80 	li	a0,-128
    2714:	24420240 	addiu	v0,v0,576
    2718:	00441024 	and	v0,v0,a0
    271c:	26430040 	addiu	v1,s2,64
    2720:	ae220024 	sw	v0,36(s1)
    2724:	3063007f 	andi	v1,v1,0x7f
    2728:	3c02800a 	lui	v0,0x800a
    272c:	00621821 	addu	v1,v1,v0
    2730:	9062003c 	lbu	v0,60(v1)
    2734:	afa3003c 	sw	v1,60(sp)
    2738:	00441025 	or	v0,v0,a0
    273c:	a062003c 	sb	v0,60(v1)
    2740:	8fa3003c 	lw	v1,60(sp)
    2744:	9062003c 	lbu	v0,60(v1)
    2748:	30420040 	andi	v0,v0,0x40
    274c:	1040016c 	beqz	v0,0x2d00
    2750:	8fbf0058 	lw	ra,88(sp)
    2754:	3c108008 	lui	s0,0x8008
    2758:	a3800018 	sb	zero,24(gp)
    275c:	36100100 	ori	s0,s0,0x100
    2760:	8e0200e0 	lw	v0,224(s0)
    2764:	8c630034 	lw	v1,52(v1)
    2768:	27a4003c 	addiu	a0,sp,60
    276c:	27a50010 	addiu	a1,sp,16
    2770:	00431021 	addu	v0,v0,v1
    2774:	0e0007c3 	jal	0x8001f0c
    2778:	ae0200e0 	sw	v0,224(s0)
    277c:	93a20010 	lbu	v0,16(sp)
    2780:	3c038000 	lui	v1,0x8000
    2784:	a20200d5 	sb	v0,213(s0)
    2788:	8c620278 	lw	v0,632(v1)
    278c:	0440fffe 	bltz	v0,0x2788
    2790:	8f82001c 	lw	v0,28(gp)
    2794:	ac620240 	sw	v0,576(v1)
    2798:	24020002 	li	v0,2
    279c:	a0620244 	sb	v0,580(v1)
    27a0:	3c021000 	lui	v0,0x1000
    27a4:	ac620278 	sw	v0,632(v1)
    27a8:	0e000939 	jal	0x80024e4
    27ac:	00000000 	nop
    27b0:	0a000b0e 	j	0x8002c38
    27b4:	8fbf0058 	lw	ra,88(sp)
    27b8:	3c058008 	lui	a1,0x8008
    27bc:	90c30001 	lbu	v1,1(a2)
    27c0:	90a2000b 	lbu	v0,11(a1)
    27c4:	1443014e 	bne	v0,v1,0x2d00
    27c8:	8fbf0058 	lw	ra,88(sp)
    27cc:	34a40080 	ori	a0,a1,0x80
    27d0:	8c820018 	lw	v0,24(a0)
    27d4:	9082004c 	lbu	v0,76(a0)
    27d8:	90a20008 	lbu	v0,8(a1)
    27dc:	3c026000 	lui	v0,0x6000
    27e0:	8c425404 	lw	v0,21508(v0)
    27e4:	8c830018 	lw	v1,24(a0)
    27e8:	3c027fff 	lui	v0,0x7fff
    27ec:	3442ffff 	ori	v0,v0,0xffff
    27f0:	00621824 	and	v1,v1,v0
    27f4:	3c020800 	lui	v0,0x800
    27f8:	8c4200b4 	lw	v0,180(v0)
    27fc:	ac830018 	sw	v1,24(a0)
    2800:	3c038000 	lui	v1,0x8000
    2804:	24420001 	addiu	v0,v0,1
    2808:	3c010800 	lui	at,0x800
    280c:	ac2200b4 	sw	v0,180(at)
    2810:	8c6201f8 	lw	v0,504(v1)
    2814:	0440fffe 	bltz	v0,0x2810
    2818:	8f82001c 	lw	v0,28(gp)
    281c:	ac6201c0 	sw	v0,448(v1)
    2820:	0a000ad6 	j	0x8002b58
    2824:	24020002 	li	v0,2
    2828:	3c108008 	lui	s0,0x8008
    282c:	90c30001 	lbu	v1,1(a2)
    2830:	9202000b 	lbu	v0,11(s0)
    2834:	14430132 	bne	v0,v1,0x2d00
    2838:	8fbf0058 	lw	ra,88(sp)
    283c:	27a40018 	addiu	a0,sp,24
    2840:	36050110 	ori	a1,s0,0x110
    2844:	24060003 	li	a2,3
    2848:	3c026000 	lui	v0,0x6000
    284c:	8c425404 	lw	v0,21508(v0)
    2850:	0e000e47 	jal	0x800391c
    2854:	00000000 	nop
    2858:	27a40028 	addiu	a0,sp,40
    285c:	360501f0 	ori	a1,s0,0x1f0
    2860:	0e000e47 	jal	0x800391c
    2864:	24060003 	li	a2,3
    2868:	8fa20028 	lw	v0,40(sp)
    286c:	36030100 	ori	v1,s0,0x100
    2870:	ae020064 	sw	v0,100(s0)
    2874:	8fa2002c 	lw	v0,44(sp)
    2878:	ae020068 	sw	v0,104(s0)
    287c:	8fa20030 	lw	v0,48(sp)
    2880:	ae02006c 	sw	v0,108(s0)
    2884:	93a40018 	lbu	a0,24(sp)
    2888:	906300d5 	lbu	v1,213(v1)
    288c:	2402ff80 	li	v0,-128
    2890:	00821024 	and	v0,a0,v0
    2894:	00431025 	or	v0,v0,v1
    2898:	304900ff 	andi	t1,v0,0xff
    289c:	3084007f 	andi	a0,a0,0x7f
    28a0:	3122007f 	andi	v0,t1,0x7f
    28a4:	0082102a 	slt	v0,a0,v0
    28a8:	54400001 	bnezl	v0,0x28b0
    28ac:	39290080 	xori	t1,t1,0x80
    28b0:	000411c0 	sll	v0,a0,0x7
    28b4:	24420240 	addiu	v0,v0,576
    28b8:	2403ff80 	li	v1,-128
    28bc:	02421021 	addu	v0,s2,v0
    28c0:	00431024 	and	v0,v0,v1
    28c4:	ae220094 	sw	v0,148(s1)
    28c8:	26420040 	addiu	v0,s2,64
    28cc:	3042007f 	andi	v0,v0,0x7f
    28d0:	3c038006 	lui	v1,0x8006
    28d4:	00434021 	addu	t0,v0,v1
    28d8:	8fa3001c 	lw	v1,28(sp)
    28dc:	2402ffff 	li	v0,-1
    28e0:	afa80040 	sw	t0,64(sp)
    28e4:	3c130800 	lui	s3,0x800
    28e8:	927300f7 	lbu	s3,247(s3)
    28ec:	10620033 	beq	v1,v0,0x29bc
    28f0:	93a20019 	lbu	v0,25(sp)
    28f4:	95030014 	lhu	v1,20(t0)
    28f8:	304400ff 	andi	a0,v0,0xff
    28fc:	3063ffff 	andi	v1,v1,0xffff
    2900:	0064182b 	sltu	v1,v1,a0
    2904:	10600010 	beqz	v1,0x2948
    2908:	00000000 	nop
    290c:	95040014 	lhu	a0,20(t0)
    2910:	8d07001c 	lw	a3,28(t0)
    2914:	8d060018 	lw	a2,24(t0)
    2918:	3084ffff 	andi	a0,a0,0xffff
    291c:	00442023 	subu	a0,v0,a0
    2920:	00042100 	sll	a0,a0,0x4
    2924:	00e43821 	addu	a3,a3,a0
    2928:	00001021 	move	v0,zero
    292c:	00e4202b 	sltu	a0,a3,a0
    2930:	00c23021 	addu	a2,a2,v0
    2934:	00c43021 	addu	a2,a2,a0
    2938:	ad07001c 	sw	a3,28(t0)
    293c:	ad060018 	sw	a2,24(t0)
    2940:	0a000a2f 	j	0x80028bc
    2944:	93a20019 	lbu	v0,25(sp)
    2948:	95040014 	lhu	a0,20(t0)
    294c:	8d07001c 	lw	a3,28(t0)
    2950:	8d060018 	lw	a2,24(t0)
    2954:	3084ffff 	andi	a0,a0,0xffff
    2958:	00822023 	subu	a0,a0,v0
    295c:	00042100 	sll	a0,a0,0x4
    2960:	00001021 	move	v0,zero
    2964:	00801821 	move	v1,a0
    2968:	00c23023 	subu	a2,a2,v0
    296c:	00e4202b 	sltu	a0,a3,a0
    2970:	00c43023 	subu	a2,a2,a0
    2974:	00e33823 	subu	a3,a3,v1
    2978:	ad07001c 	sw	a3,28(t0)
    297c:	ad060018 	sw	a2,24(t0)
    2980:	93a20019 	lbu	v0,25(sp)
    2984:	8fa30040 	lw	v1,64(sp)
    2988:	a4620014 	sh	v0,20(v1)
    298c:	97a2001a 	lhu	v0,26(sp)
    2990:	a4620016 	sh	v0,22(v1)
    2994:	8fa2001c 	lw	v0,28(sp)
    2998:	ac620010 	sw	v0,16(v1)
    299c:	8fa2001c 	lw	v0,28(sp)
    29a0:	ac62000c 	sw	v0,12(v1)
    29a4:	93a20019 	lbu	v0,25(sp)
    29a8:	a4620020 	sh	v0,32(v1)
    29ac:	97a2001a 	lhu	v0,26(sp)
    29b0:	a4620022 	sh	v0,34(v1)
    29b4:	8fa2001c 	lw	v0,28(sp)
    29b8:	ac620024 	sw	v0,36(v1)
    29bc:	3c048008 	lui	a0,0x8008
    29c0:	34830080 	ori	v1,a0,0x80
    29c4:	8c620038 	lw	v0,56(v1)
    29c8:	8fa20020 	lw	v0,32(sp)
    29cc:	01208821 	move	s1,t1
    29d0:	ac62003c 	sw	v0,60(v1)
    29d4:	8fa20020 	lw	v0,32(sp)
    29d8:	ac820000 	sw	v0,0(a0)
    29dc:	93a20018 	lbu	v0,24(sp)
    29e0:	a062004c 	sb	v0,76(v1)
    29e4:	93a20018 	lbu	v0,24(sp)
    29e8:	a0820009 	sb	v0,9(a0)
    29ec:	a0600068 	sb	zero,104(v1)
    29f0:	93a20018 	lbu	v0,24(sp)
    29f4:	10510051 	beq	v0,s1,0x2b3c
    29f8:	2407ff80 	li	a3,-128
    29fc:	3229007f 	andi	t1,s1,0x7f
    2a00:	000911c0 	sll	v0,t1,0x7
    2a04:	24420240 	addiu	v0,v0,576
    2a08:	02421021 	addu	v0,s2,v0
    2a0c:	3046007f 	andi	a2,v0,0x7f
    2a10:	3c038000 	lui	v1,0x8000
    2a14:	00471024 	and	v0,v0,a3
    2a18:	ac620094 	sw	v0,148(v1)
    2a1c:	3c028006 	lui	v0,0x8006
    2a20:	00c23021 	addu	a2,a2,v0
    2a24:	90c2003c 	lbu	v0,60(a2)
    2a28:	afa60040 	sw	a2,64(sp)
    2a2c:	00002021 	move	a0,zero
    2a30:	00471025 	or	v0,v0,a3
    2a34:	a0c2003c 	sb	v0,60(a2)
    2a38:	8fa80040 	lw	t0,64(sp)
    2a3c:	95020002 	lhu	v0,2(t0)
    2a40:	95030014 	lhu	v1,20(t0)
    2a44:	8d07001c 	lw	a3,28(t0)
    2a48:	3042ffff 	andi	v0,v0,0xffff
    2a4c:	3063ffff 	andi	v1,v1,0xffff
    2a50:	8d060018 	lw	a2,24(t0)
    2a54:	00431023 	subu	v0,v0,v1
    2a58:	00021100 	sll	v0,v0,0x4
    2a5c:	00e23821 	addu	a3,a3,v0
    2a60:	00e2102b 	sltu	v0,a3,v0
    2a64:	00c43021 	addu	a2,a2,a0
    2a68:	00c23021 	addu	a2,a2,v0
    2a6c:	ad07001c 	sw	a3,28(t0)
    2a70:	ad060018 	sw	a2,24(t0)
    2a74:	95020002 	lhu	v0,2(t0)
    2a78:	a5020014 	sh	v0,20(t0)
    2a7c:	a5000016 	sh	zero,22(t0)
    2a80:	8d020008 	lw	v0,8(t0)
    2a84:	ad020010 	sw	v0,16(t0)
    2a88:	8d020008 	lw	v0,8(t0)
    2a8c:	ad02000c 	sw	v0,12(t0)
    2a90:	95020002 	lhu	v0,2(t0)
    2a94:	a5020020 	sh	v0,32(t0)
    2a98:	a5000022 	sh	zero,34(t0)
    2a9c:	8d020008 	lw	v0,8(t0)
    2aa0:	ad020024 	sw	v0,36(t0)
    2aa4:	9102003c 	lbu	v0,60(t0)
    2aa8:	30420040 	andi	v0,v0,0x40
    2aac:	1040001a 	beqz	v0,0x2b18
    2ab0:	26220001 	addiu	v0,s1,1
    2ab4:	3c108008 	lui	s0,0x8008
    2ab8:	a3a90038 	sb	t1,56(sp)
    2abc:	a3800018 	sb	zero,24(gp)
    2ac0:	36100100 	ori	s0,s0,0x100
    2ac4:	8e0200e0 	lw	v0,224(s0)
    2ac8:	8d030034 	lw	v1,52(t0)
    2acc:	27a40040 	addiu	a0,sp,64
    2ad0:	27a50038 	addiu	a1,sp,56
    2ad4:	00431021 	addu	v0,v0,v1
    2ad8:	0e0007c3 	jal	0x8001f0c
    2adc:	ae0200e0 	sw	v0,224(s0)
    2ae0:	93a20038 	lbu	v0,56(sp)
    2ae4:	3c038000 	lui	v1,0x8000
    2ae8:	a20200d5 	sb	v0,213(s0)
    2aec:	8c620278 	lw	v0,632(v1)
    2af0:	0440fffe 	bltz	v0,0x2aec
    2af4:	8f82001c 	lw	v0,28(gp)
    2af8:	ac620240 	sw	v0,576(v1)
    2afc:	24020002 	li	v0,2
    2b00:	a0620244 	sb	v0,580(v1)
    2b04:	3c021000 	lui	v0,0x1000
    2b08:	ac620278 	sw	v0,632(v1)
    2b0c:	0e000939 	jal	0x80024e4
    2b10:	00000000 	nop
    2b14:	26220001 	addiu	v0,s1,1
    2b18:	3043007f 	andi	v1,v0,0x7f
    2b1c:	14730004 	bne	v1,s3,0x2b30
    2b20:	00402021 	move	a0,v0
    2b24:	2403ff80 	li	v1,-128
    2b28:	02231024 	and	v0,s1,v1
    2b2c:	00432026 	xor	a0,v0,v1
    2b30:	93a20018 	lbu	v0,24(sp)
    2b34:	0a000a4b 	j	0x800292c
    2b38:	309100ff 	andi	s1,a0,0xff
    2b3c:	93a40018 	lbu	a0,24(sp)
    2b40:	8fa3001c 	lw	v1,28(sp)
    2b44:	2402ffff 	li	v0,-1
    2b48:	1062000a 	beq	v1,v0,0x2b74
    2b4c:	308900ff 	andi	t1,a0,0xff
    2b50:	24820001 	addiu	v0,a0,1
    2b54:	24830001 	addiu	v1,a0,1
    2b58:	3042007f 	andi	v0,v0,0x7f
    2b5c:	14530005 	bne	v0,s3,0x2b74
    2b60:	306900ff 	andi	t1,v1,0xff
    2b64:	2403ff80 	li	v1,-128
    2b68:	00831024 	and	v0,a0,v1
    2b6c:	00431026 	xor	v0,v0,v1
    2b70:	304900ff 	andi	t1,v0,0xff
    2b74:	3c028008 	lui	v0,0x8008
    2b78:	90420008 	lbu	v0,8(v0)
    2b7c:	01208821 	move	s1,t1
    2b80:	305000ff 	andi	s0,v0,0xff
    2b84:	12300019 	beq	s1,s0,0x2bec
    2b88:	3222007f 	andi	v0,s1,0x7f
    2b8c:	000211c0 	sll	v0,v0,0x7
    2b90:	02421021 	addu	v0,s2,v0
    2b94:	24420240 	addiu	v0,v0,576
    2b98:	2403ff80 	li	v1,-128
    2b9c:	00431824 	and	v1,v0,v1
    2ba0:	3c048000 	lui	a0,0x8000
    2ba4:	ac830094 	sw	v1,148(a0)
    2ba8:	3042007f 	andi	v0,v0,0x7f
    2bac:	3c038006 	lui	v1,0x8006
    2bb0:	00431021 	addu	v0,v0,v1
    2bb4:	8c43000c 	lw	v1,12(v0)
    2bb8:	00402021 	move	a0,v0
    2bbc:	1060000b 	beqz	v1,0x2bec
    2bc0:	afa20040 	sw	v0,64(sp)
    2bc4:	0e00057e 	jal	0x80015f8
    2bc8:	00000000 	nop
    2bcc:	26230001 	addiu	v1,s1,1
    2bd0:	2405ff80 	li	a1,-128
    2bd4:	3062007f 	andi	v0,v1,0x7f
    2bd8:	14530002 	bne	v0,s3,0x2be4
    2bdc:	02252024 	and	a0,s1,a1
    2be0:	00851826 	xor	v1,a0,a1
    2be4:	0a000aaf 	j	0x8002abc
    2be8:	307100ff 	andi	s1,v1,0xff
    2bec:	3c048008 	lui	a0,0x8008
    2bf0:	34840080 	ori	a0,a0,0x80
    2bf4:	8c830018 	lw	v1,24(a0)
    2bf8:	3c027fff 	lui	v0,0x7fff
    2bfc:	3442ffff 	ori	v0,v0,0xffff
    2c00:	00621824 	and	v1,v1,v0
    2c04:	ac830018 	sw	v1,24(a0)
    2c08:	3c038000 	lui	v1,0x8000
    2c0c:	8c6201f8 	lw	v0,504(v1)
    2c10:	0440fffe 	bltz	v0,0x2c0c
    2c14:	00000000 	nop
    2c18:	ac7201c0 	sw	s2,448(v1)
    2c1c:	24020002 	li	v0,2
    2c20:	a06201c4 	sb	v0,452(v1)
    2c24:	3c021000 	lui	v0,0x1000
    2c28:	ac6201f8 	sw	v0,504(v1)
    2c2c:	0a000b0e 	j	0x8002c38
    2c30:	8fbf0058 	lw	ra,88(sp)
    2c34:	3c048008 	lui	a0,0x8008
    2c38:	90c30001 	lbu	v1,1(a2)
    2c3c:	9082000b 	lbu	v0,11(a0)
    2c40:	1443002f 	bne	v0,v1,0x2d00
    2c44:	8fbf0058 	lw	ra,88(sp)
    2c48:	34900080 	ori	s0,a0,0x80
    2c4c:	92020008 	lbu	v0,8(s0)
    2c50:	30420040 	andi	v0,v0,0x40
    2c54:	10400020 	beqz	v0,0x2cd8
    2c58:	00000000 	nop
    2c5c:	92020008 	lbu	v0,8(s0)
    2c60:	00021600 	sll	v0,v0,0x18
    2c64:	00021603 	sra	v0,v0,0x18
    2c68:	04410005 	bgez	v0,0x2c80
    2c6c:	02402021 	move	a0,s2
    2c70:	0e000ecc 	jal	0x8003b30
    2c74:	24050093 	li	a1,147
    2c78:	0a000b0e 	j	0x8002c38
    2c7c:	8fbf0058 	lw	ra,88(sp)
    2c80:	92020009 	lbu	v0,9(s0)
    2c84:	24030018 	li	v1,24
    2c88:	304200ff 	andi	v0,v0,0xff
    2c8c:	1443000d 	bne	v0,v1,0x2cc4
    2c90:	02402021 	move	a0,s2
    2c94:	24050039 	li	a1,57
    2c98:	0e000e64 	jal	0x8003990
    2c9c:	00003021 	move	a2,zero
    2ca0:	0e000332 	jal	0x8000cc8
    2ca4:	8f84001c 	lw	a0,28(gp)
    2ca8:	8f82ff94 	lw	v0,-108(gp)
    2cac:	24030012 	li	v1,18
    2cb0:	a0430009 	sb	v1,9(v0)
    2cb4:	0e00033d 	jal	0x8000cf4
    2cb8:	8f84001c 	lw	a0,28(gp)
    2cbc:	0a000b0e 	j	0x8002c38
    2cc0:	8fbf0058 	lw	ra,88(sp)
    2cc4:	24050036 	li	a1,54
    2cc8:	0e000e64 	jal	0x8003990
    2ccc:	00003021 	move	a2,zero
    2cd0:	0a000b0e 	j	0x8002c38
    2cd4:	8fbf0058 	lw	ra,88(sp)
    2cd8:	0e000332 	jal	0x8000cc8
    2cdc:	02402021 	move	a0,s2
    2ce0:	92020005 	lbu	v0,5(s0)
    2ce4:	8f84001c 	lw	a0,28(gp)
    2ce8:	34420020 	ori	v0,v0,0x20
    2cec:	0e00033d 	jal	0x8000cf4
    2cf0:	a2020005 	sb	v0,5(s0)
    2cf4:	0e001075 	jal	0x80041d4
    2cf8:	8f84001c 	lw	a0,28(gp)
    2cfc:	8fbf0058 	lw	ra,88(sp)
    2d00:	8fb30054 	lw	s3,84(sp)
    2d04:	8fb20050 	lw	s2,80(sp)
    2d08:	8fb1004c 	lw	s1,76(sp)
    2d0c:	8fb00048 	lw	s0,72(sp)
    2d10:	03e00008 	jr	ra
    2d14:	27bd0060 	addiu	sp,sp,96
    2d18:	3c028008 	lui	v0,0x8008
    2d1c:	34450100 	ori	a1,v0,0x100
    2d20:	3c028000 	lui	v0,0x8000
    2d24:	8c420140 	lw	v0,320(v0)
    2d28:	94a3000e 	lhu	v1,14(a1)
    2d2c:	00003021 	move	a2,zero
    2d30:	00402021 	move	a0,v0
    2d34:	af82001c 	sw	v0,28(gp)
    2d38:	3063ffff 	andi	v1,v1,0xffff
    2d3c:	3402ffff 	li	v0,0xffff
    2d40:	10620006 	beq	v1,v0,0x2d5c
    2d44:	3c076020 	lui	a3,0x6020
    2d48:	2402ffff 	li	v0,-1
    2d4c:	a4a2000e 	sh	v0,14(a1)
    2d50:	94a500ea 	lhu	a1,234(a1)
    2d54:	0a000901 	j	0x8002404
    2d58:	30a5ffff 	andi	a1,a1,0xffff
    2d5c:	03e00008 	jr	ra
    2d60:	00000000 	nop
    2d64:	27bdffc8 	addiu	sp,sp,-56
    2d68:	3c028000 	lui	v0,0x8000
    2d6c:	3c068008 	lui	a2,0x8008
    2d70:	afb5002c 	sw	s5,44(sp)
    2d74:	afb1001c 	sw	s1,28(sp)
    2d78:	afbf0030 	sw	ra,48(sp)
    2d7c:	afb40028 	sw	s4,40(sp)
    2d80:	afb30024 	sw	s3,36(sp)
    2d84:	afb20020 	sw	s2,32(sp)
    2d88:	afb00018 	sw	s0,24(sp)
    2d8c:	34510100 	ori	s1,v0,0x100
    2d90:	34c50100 	ori	a1,a2,0x100
    2d94:	8c430100 	lw	v1,256(v0)
    2d98:	8e220014 	lw	v0,20(s1)
    2d9c:	8ca400e4 	lw	a0,228(a1)
    2da0:	0000a821 	move	s5,zero
    2da4:	af83001c 	sw	v1,28(gp)
    2da8:	00441023 	subu	v0,v0,a0
    2dac:	18400052 	blez	v0,0x2ef8
    2db0:	a3800018 	sb	zero,24(gp)
    2db4:	8e220014 	lw	v0,20(s1)
    2db8:	00005021 	move	t2,zero
    2dbc:	aca200e4 	sw	v0,228(a1)
    2dc0:	90c30008 	lbu	v1,8(a2)
    2dc4:	90a200d5 	lbu	v0,213(a1)
    2dc8:	3073007f 	andi	s3,v1,0x7f
    2dcc:	a3a20010 	sb	v0,16(sp)
    2dd0:	8cb200e0 	lw	s2,224(a1)
    2dd4:	8cb400e4 	lw	s4,228(a1)
    2dd8:	304200ff 	andi	v0,v0,0xff
    2ddc:	1053003b 	beq	v0,s3,0x2ecc
    2de0:	93a20010 	lbu	v0,16(sp)
    2de4:	8f83001c 	lw	v1,28(gp)
    2de8:	2407ff80 	li	a3,-128
    2dec:	000211c0 	sll	v0,v0,0x7
    2df0:	00621021 	addu	v0,v1,v0
    2df4:	24420240 	addiu	v0,v0,576
    2df8:	24630040 	addiu	v1,v1,64
    2dfc:	00471024 	and	v0,v0,a3
    2e00:	3063007f 	andi	v1,v1,0x7f
    2e04:	3c098000 	lui	t1,0x8000
    2e08:	3c08800a 	lui	t0,0x800a
    2e0c:	00681821 	addu	v1,v1,t0
    2e10:	ad220024 	sw	v0,36(t1)
    2e14:	8c620034 	lw	v0,52(v1)
    2e18:	27a40014 	addiu	a0,sp,20
    2e1c:	27a50010 	addiu	a1,sp,16
    2e20:	02428021 	addu	s0,s2,v0
    2e24:	02901023 	subu	v0,s4,s0
    2e28:	04400028 	bltz	v0,0x2ecc
    2e2c:	afa30014 	sw	v1,20(sp)
    2e30:	9062003c 	lbu	v0,60(v1)
    2e34:	00e21024 	and	v0,a3,v0
    2e38:	304200ff 	andi	v0,v0,0xff
    2e3c:	14400019 	bnez	v0,0x2ea4
    2e40:	02009021 	move	s2,s0
    2e44:	9062003c 	lbu	v0,60(v1)
    2e48:	34420040 	ori	v0,v0,0x40
    2e4c:	a062003c 	sb	v0,60(v1)
    2e50:	8f86001c 	lw	a2,28(gp)
    2e54:	93a30010 	lbu	v1,16(sp)
    2e58:	24c20040 	addiu	v0,a2,64
    2e5c:	3042007f 	andi	v0,v0,0x7f
    2e60:	00482821 	addu	a1,v0,t0
    2e64:	3c020800 	lui	v0,0x800
    2e68:	8c4200f4 	lw	v0,244(v0)
    2e6c:	24630001 	addiu	v1,v1,1
    2e70:	306400ff 	andi	a0,v1,0xff
    2e74:	14820002 	bne	a0,v0,0x2e80
    2e78:	a3a30010 	sb	v1,16(sp)
    2e7c:	a3a00010 	sb	zero,16(sp)
    2e80:	93a20010 	lbu	v0,16(sp)
    2e84:	afa50014 	sw	a1,20(sp)
    2e88:	000211c0 	sll	v0,v0,0x7
    2e8c:	24420240 	addiu	v0,v0,576
    2e90:	00c21021 	addu	v0,a2,v0
    2e94:	00471024 	and	v0,v0,a3
    2e98:	ad220024 	sw	v0,36(t1)
    2e9c:	0a000b45 	j	0x8002d14
    2ea0:	93a20010 	lbu	v0,16(sp)
    2ea4:	0e0007c3 	jal	0x8001f0c
    2ea8:	00000000 	nop
    2eac:	3c028008 	lui	v0,0x8008
    2eb0:	34420100 	ori	v0,v0,0x100
    2eb4:	ac5000e0 	sw	s0,224(v0)
    2eb8:	93a30010 	lbu	v1,16(sp)
    2ebc:	240a0001 	li	t2,1
    2ec0:	a04300d5 	sb	v1,213(v0)
    2ec4:	0a000b45 	j	0x8002d14
    2ec8:	93a20010 	lbu	v0,16(sp)
    2ecc:	24020001 	li	v0,1
    2ed0:	15420009 	bne	t2,v0,0x2ef8
    2ed4:	3c038000 	lui	v1,0x8000
    2ed8:	8c620278 	lw	v0,632(v1)
    2edc:	0440fffe 	bltz	v0,0x2ed8
    2ee0:	8f82001c 	lw	v0,28(gp)
    2ee4:	ac620240 	sw	v0,576(v1)
    2ee8:	24020002 	li	v0,2
    2eec:	a0620244 	sb	v0,580(v1)
    2ef0:	3c021000 	lui	v0,0x1000
    2ef4:	ac620278 	sw	v0,632(v1)
    2ef8:	9222000b 	lbu	v0,11(s1)
    2efc:	24030002 	li	v1,2
    2f00:	304200ff 	andi	v0,v0,0xff
    2f04:	14430072 	bne	v0,v1,0x30d0
    2f08:	00000000 	nop
    2f0c:	96220008 	lhu	v0,8(s1)
    2f10:	304300ff 	andi	v1,v0,0xff
    2f14:	24020082 	li	v0,130
    2f18:	14620040 	bne	v1,v0,0x301c
    2f1c:	24020084 	li	v0,132
    2f20:	3c028000 	lui	v0,0x8000
    2f24:	34490100 	ori	t1,v0,0x100
    2f28:	8d22000c 	lw	v0,12(t1)
    2f2c:	95230006 	lhu	v1,6(t1)
    2f30:	00021602 	srl	v0,v0,0x18
    2f34:	3063ffff 	andi	v1,v1,0xffff
    2f38:	3045003f 	andi	a1,v0,0x3f
    2f3c:	24020027 	li	v0,39
    2f40:	10a2000f 	beq	a1,v0,0x2f80
    2f44:	af830014 	sw	v1,20(gp)
    2f48:	28a20028 	slti	v0,a1,40
    2f4c:	10400008 	beqz	v0,0x2f70
    2f50:	24020031 	li	v0,49
    2f54:	24020021 	li	v0,33
    2f58:	10a20009 	beq	a1,v0,0x2f80
    2f5c:	24020025 	li	v0,37
    2f60:	10a20007 	beq	a1,v0,0x2f80
    2f64:	93820019 	lbu	v0,25(gp)
    2f68:	0a000bbd 	j	0x8002ef4
    2f6c:	00000000 	nop
    2f70:	10a20007 	beq	a1,v0,0x2f90
    2f74:	93820019 	lbu	v0,25(gp)
    2f78:	0a000bbd 	j	0x8002ef4
    2f7c:	00000000 	nop
    2f80:	0e000777 	jal	0x8001ddc
    2f84:	01202021 	move	a0,t1
    2f88:	0a000c3d 	j	0x80030f4
    2f8c:	00000000 	nop
    2f90:	3c038000 	lui	v1,0x8000
    2f94:	8c620278 	lw	v0,632(v1)
    2f98:	0440fffe 	bltz	v0,0x2f94
    2f9c:	8f82001c 	lw	v0,28(gp)
    2fa0:	ac620240 	sw	v0,576(v1)
    2fa4:	24020002 	li	v0,2
    2fa8:	a0620244 	sb	v0,580(v1)
    2fac:	3c021000 	lui	v0,0x1000
    2fb0:	ac620278 	sw	v0,632(v1)
    2fb4:	0a000c3d 	j	0x80030f4
    2fb8:	00000000 	nop
    2fbc:	95230006 	lhu	v1,6(t1)
    2fc0:	91240005 	lbu	a0,5(t1)
    2fc4:	8d25000c 	lw	a1,12(t1)
    2fc8:	8d260010 	lw	a2,16(t1)
    2fcc:	8d270018 	lw	a3,24(t1)
    2fd0:	8d28001c 	lw	t0,28(t1)
    2fd4:	8d290020 	lw	t1,32(t1)
    2fd8:	24420001 	addiu	v0,v0,1
    2fdc:	3c010800 	lui	at,0x800
    2fe0:	a42356c6 	sh	v1,22214(at)
    2fe4:	3c010800 	lui	at,0x800
    2fe8:	a02456c5 	sb	a0,22213(at)
    2fec:	3c010800 	lui	at,0x800
    2ff0:	ac2556cc 	sw	a1,22220(at)
    2ff4:	3c010800 	lui	at,0x800
    2ff8:	ac2656d0 	sw	a2,22224(at)
    2ffc:	3c010800 	lui	at,0x800
    3000:	ac2756d8 	sw	a3,22232(at)
    3004:	3c010800 	lui	at,0x800
    3008:	ac2856dc 	sw	t0,22236(at)
    300c:	3c010800 	lui	at,0x800
    3010:	ac2956e0 	sw	t1,22240(at)
    3014:	0a000c3d 	j	0x80030f4
    3018:	a3820019 	sb	v0,25(gp)
    301c:	1462000a 	bne	v1,v0,0x3048
    3020:	24020081 	li	v0,129
    3024:	3c028008 	lui	v0,0x8008
    3028:	34420100 	ori	v0,v0,0x100
    302c:	944500ea 	lhu	a1,234(v0)
    3030:	92260005 	lbu	a2,5(s1)
    3034:	8f84001c 	lw	a0,28(gp)
    3038:	30a5ffff 	andi	a1,a1,0xffff
    303c:	30c600ff 	andi	a2,a2,0xff
    3040:	0a000bfe 	j	0x8002ff8
    3044:	3c076021 	lui	a3,0x6021
    3048:	1462005c 	bne	v1,v0,0x31bc
    304c:	00000000 	nop
    3050:	9222000a 	lbu	v0,10(s1)
    3054:	304300ff 	andi	v1,v0,0xff
    3058:	30620020 	andi	v0,v1,0x20
    305c:	10400007 	beqz	v0,0x307c
    3060:	30620040 	andi	v0,v1,0x40
    3064:	3c028008 	lui	v0,0x8008
    3068:	34420100 	ori	v0,v0,0x100
    306c:	944500ea 	lhu	a1,234(v0)
    3070:	8f84001c 	lw	a0,28(gp)
    3074:	0a000bfc 	j	0x8002ff0
    3078:	24060040 	li	a2,64
    307c:	10400007 	beqz	v0,0x309c
    3080:	00031600 	sll	v0,v1,0x18
    3084:	3c028008 	lui	v0,0x8008
    3088:	34420100 	ori	v0,v0,0x100
    308c:	944500ea 	lhu	a1,234(v0)
    3090:	8f84001c 	lw	a0,28(gp)
    3094:	0a000bfc 	j	0x8002ff0
    3098:	24060041 	li	a2,65
    309c:	00021603 	sra	v0,v0,0x18
    30a0:	04410046 	bgez	v0,0x31bc
    30a4:	3c028008 	lui	v0,0x8008
    30a8:	34420100 	ori	v0,v0,0x100
    30ac:	944500ea 	lhu	a1,234(v0)
    30b0:	8f84001c 	lw	a0,28(gp)
    30b4:	24060042 	li	a2,66
    30b8:	30a5ffff 	andi	a1,a1,0xffff
    30bc:	3c076019 	lui	a3,0x6019
    30c0:	0e000901 	jal	0x8002404
    30c4:	00000000 	nop
    30c8:	0a000c3d 	j	0x80030f4
    30cc:	00000000 	nop
    30d0:	9222000b 	lbu	v0,11(s1)
    30d4:	24040016 	li	a0,22
    30d8:	304200ff 	andi	v0,v0,0xff
    30dc:	10440006 	beq	v0,a0,0x30f8
    30e0:	3c068000 	lui	a2,0x8000
    30e4:	9222000b 	lbu	v0,11(s1)
    30e8:	24030017 	li	v1,23
    30ec:	304200ff 	andi	v0,v0,0xff
    30f0:	14430032 	bne	v0,v1,0x31bc
    30f4:	00000000 	nop
    30f8:	34c50100 	ori	a1,a2,0x100
    30fc:	90a2000b 	lbu	v0,11(a1)
    3100:	304200ff 	andi	v0,v0,0xff
    3104:	1444000b 	bne	v0,a0,0x3134
    3108:	00008021 	move	s0,zero
    310c:	8ca20020 	lw	v0,32(a1)
    3110:	8ca40020 	lw	a0,32(a1)
    3114:	2403ff80 	li	v1,-128
    3118:	00431024 	and	v0,v0,v1
    311c:	00021140 	sll	v0,v0,0x5
    3120:	3084007f 	andi	a0,a0,0x7f
    3124:	00441025 	or	v0,v0,a0
    3128:	3c032000 	lui	v1,0x2000
    312c:	00431025 	or	v0,v0,v1
    3130:	acc20830 	sw	v0,2096(a2)
    3134:	94a20008 	lhu	v0,8(a1)
    3138:	00021400 	sll	v0,v0,0x10
    313c:	00021403 	sra	v0,v0,0x10
    3140:	04420001 	bltzl	v0,0x3148
    3144:	24100001 	li	s0,1
    3148:	94a20008 	lhu	v0,8(a1)
    314c:	30420080 	andi	v0,v0,0x80
    3150:	5040001a 	beqzl	v0,0x31bc
    3154:	0200a821 	move	s5,s0
    3158:	94a20008 	lhu	v0,8(a1)
    315c:	30422000 	andi	v0,v0,0x2000
    3160:	50400016 	beqzl	v0,0x31bc
    3164:	0200a821 	move	s5,s0
    3168:	8ca30018 	lw	v1,24(a1)
    316c:	3c021c2d 	lui	v0,0x1c2d
    3170:	344219ed 	ori	v0,v0,0x19ed
    3174:	10620011 	beq	v1,v0,0x31bc
    3178:	0200a821 	move	s5,s0
    317c:	3c020800 	lui	v0,0x800
    3180:	8c4200d4 	lw	v0,212(v0)
    3184:	10400005 	beqz	v0,0x319c
    3188:	3c028008 	lui	v0,0x8008
    318c:	24030004 	li	v1,4
    3190:	34420100 	ori	v0,v0,0x100
    3194:	a04300fc 	sb	v1,252(v0)
    3198:	3c028008 	lui	v0,0x8008
    319c:	34420100 	ori	v0,v0,0x100
    31a0:	944500ea 	lhu	a1,234(v0)
    31a4:	8f84001c 	lw	a0,28(gp)
    31a8:	24060006 	li	a2,6
    31ac:	30a5ffff 	andi	a1,a1,0xffff
    31b0:	0e000901 	jal	0x8002404
    31b4:	3c076021 	lui	a3,0x6021
    31b8:	0200a821 	move	s5,s0
    31bc:	0e000939 	jal	0x80024e4
    31c0:	00000000 	nop
    31c4:	9222000a 	lbu	v0,10(s1)
    31c8:	30420008 	andi	v0,v0,0x8
    31cc:	10400004 	beqz	v0,0x31e0
    31d0:	02a01021 	move	v0,s5
    31d4:	0e001379 	jal	0x8004de4
    31d8:	00000000 	nop
    31dc:	02a01021 	move	v0,s5
    31e0:	8fbf0030 	lw	ra,48(sp)
    31e4:	8fb5002c 	lw	s5,44(sp)
    31e8:	8fb40028 	lw	s4,40(sp)
    31ec:	8fb30024 	lw	s3,36(sp)
    31f0:	8fb20020 	lw	s2,32(sp)
    31f4:	8fb1001c 	lw	s1,28(sp)
    31f8:	8fb00018 	lw	s0,24(sp)
    31fc:	03e00008 	jr	ra
    3200:	27bd0038 	addiu	sp,sp,56
    3204:	2402ff80 	li	v0,-128
    3208:	00822024 	and	a0,a0,v0
    320c:	3c029000 	lui	v0,0x9000
    3210:	34420007 	ori	v0,v0,0x7
    3214:	00822025 	or	a0,a0,v0
    3218:	3c028000 	lui	v0,0x8000
    321c:	ac440020 	sw	a0,32(v0)
    3220:	3c038000 	lui	v1,0x8000
    3224:	8c620020 	lw	v0,32(v1)
    3228:	0440fffe 	bltz	v0,0x3224
    322c:	00000000 	nop
    3230:	03e00008 	jr	ra
    3234:	00000000 	nop
    3238:	3c038000 	lui	v1,0x8000
    323c:	2402ff80 	li	v0,-128
    3240:	00822024 	and	a0,a0,v0
    3244:	34620007 	ori	v0,v1,0x7
    3248:	00822025 	or	a0,a0,v0
    324c:	ac640020 	sw	a0,32(v1)
    3250:	8c620020 	lw	v0,32(v1)
    3254:	0440fffe 	bltz	v0,0x3250
    3258:	00000000 	nop
    325c:	03e00008 	jr	ra
    3260:	00000000 	nop
    3264:	27bdffd8 	addiu	sp,sp,-40
    3268:	afb3001c 	sw	s3,28(sp)
    326c:	afb10014 	sw	s1,20(sp)
    3270:	afb00010 	sw	s0,16(sp)
    3274:	afbf0020 	sw	ra,32(sp)
    3278:	afb20018 	sw	s2,24(sp)
    327c:	3c118000 	lui	s1,0x8000
    3280:	3c028008 	lui	v0,0x8008
    3284:	8e320020 	lw	s2,32(s1)
    3288:	34530100 	ori	s3,v0,0x100
    328c:	ae240020 	sw	a0,32(s1)
    3290:	966300ea 	lhu	v1,234(s3)
    3294:	00051400 	sll	v0,a1,0x10
    3298:	3c074000 	lui	a3,0x4000
    329c:	00473825 	or	a3,v0,a3
    32a0:	00a08021 	move	s0,a1
    32a4:	00003021 	move	a2,zero
    32a8:	0e000901 	jal	0x8002404
    32ac:	3065ffff 	andi	a1,v1,0xffff
    32b0:	240200a1 	li	v0,161
    32b4:	16020002 	bne	s0,v0,0x32c0
    32b8:	2402ffff 	li	v0,-1
    32bc:	a2620009 	sb	v0,9(s3)
    32c0:	ae320020 	sw	s2,32(s1)
    32c4:	8fbf0020 	lw	ra,32(sp)
    32c8:	8fb3001c 	lw	s3,28(sp)
    32cc:	8fb20018 	lw	s2,24(sp)
    32d0:	8fb10014 	lw	s1,20(sp)
    32d4:	8fb00010 	lw	s0,16(sp)
    32d8:	03e00008 	jr	ra
    32dc:	27bd0028 	addiu	sp,sp,40
    32e0:	3c028008 	lui	v0,0x8008
    32e4:	24030005 	li	v1,5
    32e8:	27bdffe8 	addiu	sp,sp,-24
    32ec:	34420100 	ori	v0,v0,0x100
    32f0:	a04300fc 	sb	v1,252(v0)
    32f4:	afbf0010 	sw	ra,16(sp)
    32f8:	3c028000 	lui	v0,0x8000
    32fc:	8c420100 	lw	v0,256(v0)
    3300:	240500a1 	li	a1,161
    3304:	00402021 	move	a0,v0
    3308:	0e000c67 	jal	0x800319c
    330c:	af82001c 	sw	v0,28(gp)
    3310:	3c038000 	lui	v1,0x8000
    3314:	8c620278 	lw	v0,632(v1)
    3318:	0440fffe 	bltz	v0,0x3314
    331c:	8f82001c 	lw	v0,28(gp)
    3320:	8fbf0010 	lw	ra,16(sp)
    3324:	27bd0018 	addiu	sp,sp,24
    3328:	ac620240 	sw	v0,576(v1)
    332c:	24020002 	li	v0,2
    3330:	a0620244 	sb	v0,580(v1)
    3334:	3c021000 	lui	v0,0x1000
    3338:	ac620278 	sw	v0,632(v1)
    333c:	03e00008 	jr	ra
    3340:	00000000 	nop
    3344:	27bdffe8 	addiu	sp,sp,-24
    3348:	3c068000 	lui	a2,0x8000
    334c:	afbf0010 	sw	ra,16(sp)
    3350:	34c70100 	ori	a3,a2,0x100
    3354:	94e20008 	lhu	v0,8(a3)
    3358:	304400ff 	andi	a0,v0,0xff
    335c:	38830082 	xori	v1,a0,0x82
    3360:	38820084 	xori	v0,a0,0x84
    3364:	2c630001 	sltiu	v1,v1,1
    3368:	2c420001 	sltiu	v0,v0,1
    336c:	00621825 	or	v1,v1,v0
    3370:	1060002d 	beqz	v1,0x3428
    3374:	24020083 	li	v0,131
    3378:	93820019 	lbu	v0,25(gp)
    337c:	5040003b 	beqzl	v0,0x346c
    3380:	8fbf0010 	lw	ra,16(sp)
    3384:	3c020800 	lui	v0,0x800
    3388:	904256cc 	lbu	v0,22220(v0)
    338c:	8cc40100 	lw	a0,256(a2)
    3390:	3c060800 	lui	a2,0x800
    3394:	94c656c6 	lhu	a2,22214(a2)
    3398:	3045003f 	andi	a1,v0,0x3f
    339c:	38a30032 	xori	v1,a1,0x32
    33a0:	38a2003f 	xori	v0,a1,0x3f
    33a4:	2c630001 	sltiu	v1,v1,1
    33a8:	2c420001 	sltiu	v0,v0,1
    33ac:	00621825 	or	v1,v1,v0
    33b0:	af84001c 	sw	a0,28(gp)
    33b4:	af860014 	sw	a2,20(gp)
    33b8:	a3800019 	sb	zero,25(gp)
    33bc:	14600007 	bnez	v1,0x33dc
    33c0:	00e02021 	move	a0,a3
    33c4:	24020020 	li	v0,32
    33c8:	14a20012 	bne	a1,v0,0x3414
    33cc:	00000000 	nop
    33d0:	3402ffff 	li	v0,0xffff
    33d4:	14c2000f 	bne	a2,v0,0x3414
    33d8:	00000000 	nop
    33dc:	24020020 	li	v0,32
    33e0:	14a20005 	bne	a1,v0,0x33f8
    33e4:	00e02821 	move	a1,a3
    33e8:	8ce30014 	lw	v1,20(a3)
    33ec:	2402ffff 	li	v0,-1
    33f0:	5062000b 	beql	v1,v0,0x3420
    33f4:	8fbf0010 	lw	ra,16(sp)
    33f8:	3c040800 	lui	a0,0x800
    33fc:	248456c0 	addiu	a0,a0,22208
    3400:	00003021 	move	a2,zero
    3404:	0e000706 	jal	0x8001c18
    3408:	24070001 	li	a3,1
    340c:	0a000cd6 	j	0x8003358
    3410:	8fbf0010 	lw	ra,16(sp)
    3414:	0e000777 	jal	0x8001ddc
    3418:	00000000 	nop
    341c:	8fbf0010 	lw	ra,16(sp)
    3420:	0a000939 	j	0x80024e4
    3424:	27bd0018 	addiu	sp,sp,24
    3428:	14820004 	bne	a0,v0,0x343c
    342c:	24020085 	li	v0,133
    3430:	8cc50104 	lw	a1,260(a2)
    3434:	0a000ce1 	j	0x8003384
    3438:	00002021 	move	a0,zero
    343c:	14820006 	bne	a0,v0,0x3458
    3440:	2482ff80 	addiu	v0,a0,-128
    3444:	8cc50104 	lw	a1,260(a2)
    3448:	24044000 	li	a0,16384
    344c:	8fbf0010 	lw	ra,16(sp)
    3450:	0a000167 	j	0x800059c
    3454:	27bd0018 	addiu	sp,sp,24
    3458:	304200ff 	andi	v0,v0,0xff
    345c:	2c420002 	sltiu	v0,v0,2
    3460:	10400004 	beqz	v0,0x3474
    3464:	24020022 	li	v0,34
    3468:	8fbf0010 	lw	ra,16(sp)
    346c:	0a000b27 	j	0x8002c9c
    3470:	27bd0018 	addiu	sp,sp,24
    3474:	14820004 	bne	a0,v0,0x3488
    3478:	8f820024 	lw	v0,36(gp)
    347c:	8fbf0010 	lw	ra,16(sp)
    3480:	0a000c86 	j	0x8003218
    3484:	27bd0018 	addiu	sp,sp,24
    3488:	8c42000c 	lw	v0,12(v0)
    348c:	1040001e 	beqz	v0,0x3508
    3490:	00e02821 	move	a1,a3
    3494:	90e30009 	lbu	v1,9(a3)
    3498:	24020018 	li	v0,24
    349c:	14620003 	bne	v1,v0,0x34ac
    34a0:	24020016 	li	v0,22
    34a4:	0a000cfc 	j	0x80033f0
    34a8:	24030008 	li	v1,8
    34ac:	14620007 	bne	v1,v0,0x34cc
    34b0:	24020017 	li	v0,23
    34b4:	24030012 	li	v1,18
    34b8:	3c028008 	lui	v0,0x8008
    34bc:	34420080 	ori	v0,v0,0x80
    34c0:	a0430009 	sb	v1,9(v0)
    34c4:	0a000d09 	j	0x8003424
    34c8:	94a70008 	lhu	a3,8(a1)
    34cc:	54620007 	bnel	v1,v0,0x34ec
    34d0:	94a70008 	lhu	a3,8(a1)
    34d4:	8f82ff94 	lw	v0,-108(gp)
    34d8:	2404fffe 	li	a0,-2
    34dc:	90430005 	lbu	v1,5(v0)
    34e0:	00641824 	and	v1,v1,a0
    34e4:	a0430005 	sb	v1,5(v0)
    34e8:	94a70008 	lhu	a3,8(a1)
    34ec:	90a6001b 	lbu	a2,27(a1)
    34f0:	8ca40000 	lw	a0,0(a1)
    34f4:	94a50006 	lhu	a1,6(a1)
    34f8:	8fbf0010 	lw	ra,16(sp)
    34fc:	00073c00 	sll	a3,a3,0x10
    3500:	0a0008dc 	j	0x8002370
    3504:	27bd0018 	addiu	sp,sp,24
    3508:	8fbf0010 	lw	ra,16(sp)
    350c:	03e00008 	jr	ra
    3510:	27bd0018 	addiu	sp,sp,24
    3514:	8f850024 	lw	a1,36(gp)
    3518:	3c048000 	lui	a0,0x8000
    351c:	94a2002a 	lhu	v0,42(a1)
    3520:	8ca30034 	lw	v1,52(a1)
    3524:	000230c0 	sll	a2,v0,0x3
    3528:	2402fff0 	li	v0,-16
    352c:	00c21024 	and	v0,a2,v0
    3530:	00621821 	addu	v1,v1,v0
    3534:	ac83003c 	sw	v1,60(a0)
    3538:	8ca20030 	lw	v0,48(a1)
    353c:	3c038000 	lui	v1,0x8000
    3540:	ac820038 	sw	v0,56(a0)
    3544:	3c020050 	lui	v0,0x50
    3548:	34420010 	ori	v0,v0,0x10
    354c:	ac620030 	sw	v0,48(v1)
	...
    355c:	8c620000 	lw	v0,0(v1)
    3560:	30420020 	andi	v0,v0,0x20
    3564:	1040fffd 	beqz	v0,0x355c
    3568:	30c20008 	andi	v0,a2,0x8
    356c:	10400006 	beqz	v0,0x3588
    3570:	3c028000 	lui	v0,0x8000
    3574:	8c620408 	lw	v0,1032(v1)
    3578:	aca20020 	sw	v0,32(a1)
    357c:	8c62040c 	lw	v0,1036(v1)
    3580:	0a000d34 	j	0x80034d0
    3584:	aca20024 	sw	v0,36(a1)
    3588:	8c430400 	lw	v1,1024(v0)
    358c:	aca30020 	sw	v1,32(a1)
    3590:	8c420404 	lw	v0,1028(v0)
    3594:	aca20024 	sw	v0,36(a1)
    3598:	3c030020 	lui	v1,0x20
    359c:	3c028000 	lui	v0,0x8000
    35a0:	ac430030 	sw	v1,48(v0)
    35a4:	3c048000 	lui	a0,0x8000
    35a8:	8c820030 	lw	v0,48(a0)
    35ac:	00431024 	and	v0,v0,v1
    35b0:	1440fffd 	bnez	v0,0x35a8
    35b4:	8f860024 	lw	a2,36(gp)
    35b8:	3c020040 	lui	v0,0x40
    35bc:	ac820030 	sw	v0,48(a0)
    35c0:	94c3002a 	lhu	v1,42(a2)
    35c4:	94c20028 	lhu	v0,40(a2)
    35c8:	94c4002c 	lhu	a0,44(a2)
    35cc:	94c5002e 	lhu	a1,46(a2)
    35d0:	24630001 	addiu	v1,v1,1
    35d4:	00441021 	addu	v0,v0,a0
    35d8:	3064ffff 	andi	a0,v1,0xffff
    35dc:	a4c20028 	sh	v0,40(a2)
    35e0:	14850002 	bne	a0,a1,0x35ec
    35e4:	a4c3002a 	sh	v1,42(a2)
    35e8:	a4c0002a 	sh	zero,42(a2)
    35ec:	03e00008 	jr	ra
    35f0:	00000000 	nop
    35f4:	8f840024 	lw	a0,36(gp)
    35f8:	27bdffe8 	addiu	sp,sp,-24
    35fc:	3c058004 	lui	a1,0x8004
    3600:	24840010 	addiu	a0,a0,16
    3604:	afbf0010 	sw	ra,16(sp)
    3608:	0e000e47 	jal	0x800391c
    360c:	2406000a 	li	a2,10
    3610:	8f840024 	lw	a0,36(gp)
    3614:	94820012 	lhu	v0,18(a0)
    3618:	9483002e 	lhu	v1,46(a0)
    361c:	3042000f 	andi	v0,v0,0xf
    3620:	24420003 	addiu	v0,v0,3
    3624:	00431804 	sllv	v1,v1,v0
    3628:	24027fff 	li	v0,32767
    362c:	0043102b 	sltu	v0,v0,v1
    3630:	10400002 	beqz	v0,0x363c
    3634:	ac830000 	sw	v1,0(a0)
    3638:	0000000d 	break
    363c:	0e000d13 	jal	0x800344c
    3640:	00000000 	nop
    3644:	8f830024 	lw	v1,36(gp)
    3648:	8fbf0010 	lw	ra,16(sp)
    364c:	27bd0018 	addiu	sp,sp,24
    3650:	94620014 	lhu	v0,20(v1)
    3654:	9463001a 	lhu	v1,26(v1)
    3658:	3042000f 	andi	v0,v0,0xf
    365c:	00021500 	sll	v0,v0,0x14
    3660:	00621825 	or	v1,v1,v0
    3664:	3c028000 	lui	v0,0x8000
    3668:	03e00008 	jr	ra
    366c:	ac4300a0 	sw	v1,160(v0)
    3670:	8f830024 	lw	v1,36(gp)
    3674:	3c028004 	lui	v0,0x8004
    3678:	94440006 	lhu	a0,6(v0)
    367c:	9462001a 	lhu	v0,26(v1)
    3680:	8c650000 	lw	a1,0(v1)
    3684:	a4640016 	sh	a0,22(v1)
    3688:	00441023 	subu	v0,v0,a0
    368c:	3042ffff 	andi	v0,v0,0xffff
    3690:	0045102b 	sltu	v0,v0,a1
    3694:	03e00008 	jr	ra
    3698:	38420001 	xori	v0,v0,0x1
    369c:	8f840024 	lw	a0,36(gp)
    36a0:	3c078004 	lui	a3,0x8004
    36a4:	9486001a 	lhu	a2,26(a0)
    36a8:	8c850000 	lw	a1,0(a0)
    36ac:	94e20006 	lhu	v0,6(a3)
    36b0:	a4820016 	sh	v0,22(a0)
    36b4:	94e30006 	lhu	v1,6(a3)
    36b8:	00c31023 	subu	v0,a2,v1
    36bc:	3042ffff 	andi	v0,v0,0xffff
    36c0:	0045102b 	sltu	v0,v0,a1
    36c4:	38420001 	xori	v0,v0,0x1
    36c8:	1440fff8 	bnez	v0,0x36ac
    36cc:	a4830016 	sh	v1,22(a0)
    36d0:	03e00008 	jr	ra
    36d4:	00000000 	nop
    36d8:	8f840024 	lw	a0,36(gp)
    36dc:	3c028004 	lui	v0,0x8004
    36e0:	94420006 	lhu	v0,6(v0)
    36e4:	9483001a 	lhu	v1,26(a0)
    36e8:	8c850000 	lw	a1,0(a0)
    36ec:	a4820016 	sh	v0,22(a0)
    36f0:	00621023 	subu	v0,v1,v0
    36f4:	3042ffff 	andi	v0,v0,0xffff
    36f8:	0045102b 	sltu	v0,v0,a1
    36fc:	38420001 	xori	v0,v0,0x1
    3700:	5040000d 	beqzl	v0,0x3738
    3704:	8f850024 	lw	a1,36(gp)
    3708:	00603021 	move	a2,v1
    370c:	3c078004 	lui	a3,0x8004
    3710:	94e20006 	lhu	v0,6(a3)
    3714:	a4820016 	sh	v0,22(a0)
    3718:	94e30006 	lhu	v1,6(a3)
    371c:	00c31023 	subu	v0,a2,v1
    3720:	3042ffff 	andi	v0,v0,0xffff
    3724:	0045102b 	sltu	v0,v0,a1
    3728:	38420001 	xori	v0,v0,0x1
    372c:	1440fff8 	bnez	v0,0x3710
    3730:	a4830016 	sh	v1,22(a0)
    3734:	8f850024 	lw	a1,36(gp)
    3738:	3c038000 	lui	v1,0x8000
    373c:	34620400 	ori	v0,v1,0x400
    3740:	8ca40020 	lw	a0,32(a1)
    3744:	af820020 	sw	v0,32(gp)
    3748:	ac640038 	sw	a0,56(v1)
    374c:	8ca20024 	lw	v0,36(a1)
    3750:	ac62003c 	sw	v0,60(v1)
    3754:	3c020005 	lui	v0,0x5
    3758:	ac620030 	sw	v0,48(v1)
    375c:	03e00008 	jr	ra
    3760:	aca00004 	sw	zero,4(a1)
    3764:	8f840024 	lw	a0,36(gp)
    3768:	3c030006 	lui	v1,0x6
    376c:	8c820004 	lw	v0,4(a0)
    3770:	00021140 	sll	v0,v0,0x5
    3774:	00431025 	or	v0,v0,v1
    3778:	3c038000 	lui	v1,0x8000
    377c:	ac620030 	sw	v0,48(v1)
	...
    378c:	8c620000 	lw	v0,0(v1)
    3790:	30420010 	andi	v0,v0,0x10
    3794:	1040fffd 	beqz	v0,0x378c
    3798:	34620400 	ori	v0,v1,0x400
    379c:	ac800004 	sw	zero,4(a0)
    37a0:	03e00008 	jr	ra
    37a4:	af820020 	sw	v0,32(gp)
    37a8:	8f860024 	lw	a2,36(gp)
    37ac:	27bdffe0 	addiu	sp,sp,-32
    37b0:	afb10014 	sw	s1,20(sp)
    37b4:	afb00010 	sw	s0,16(sp)
    37b8:	afbf0018 	sw	ra,24(sp)
    37bc:	8cc30004 	lw	v1,4(a2)
    37c0:	8cc50024 	lw	a1,36(a2)
    37c4:	8f820020 	lw	v0,32(gp)
    37c8:	309000ff 	andi	s0,a0,0xff
    37cc:	94c4001a 	lhu	a0,26(a2)
    37d0:	24630001 	addiu	v1,v1,1
    37d4:	24420020 	addiu	v0,v0,32
    37d8:	24840001 	addiu	a0,a0,1
    37dc:	24a70020 	addiu	a3,a1,32
    37e0:	acc30004 	sw	v1,4(a2)
    37e4:	af820020 	sw	v0,32(gp)
    37e8:	a4c4001a 	sh	a0,26(a2)
    37ec:	acc70024 	sw	a3,36(a2)
    37f0:	04a10006 	bgez	a1,0x380c
    37f4:	00008821 	move	s1,zero
    37f8:	04e20005 	bltzl	a3,0x3810
    37fc:	94c2001a 	lhu	v0,26(a2)
    3800:	8cc20020 	lw	v0,32(a2)
    3804:	24420001 	addiu	v0,v0,1
    3808:	acc20020 	sw	v0,32(a2)
    380c:	94c2001a 	lhu	v0,26(a2)
    3810:	94c30028 	lhu	v1,40(a2)
    3814:	2e040001 	sltiu	a0,s0,1
    3818:	00431026 	xor	v0,v0,v1
    381c:	2c420001 	sltiu	v0,v0,1
    3820:	00441024 	and	v0,v0,a0
    3824:	50400005 	beqzl	v0,0x383c
    3828:	94c2001a 	lhu	v0,26(a2)
    382c:	24020001 	li	v0,1
    3830:	acc20008 	sw	v0,8(a2)
    3834:	94c2001a 	lhu	v0,26(a2)
    3838:	94c30028 	lhu	v1,40(a2)
    383c:	0010202b 	sltu	a0,zero,s0
    3840:	00431026 	xor	v0,v0,v1
    3844:	2c420001 	sltiu	v0,v0,1
    3848:	00441025 	or	v0,v0,a0
    384c:	14400007 	bnez	v0,0x386c
    3850:	00000000 	nop
    3854:	8cc20008 	lw	v0,8(a2)
    3858:	14400004 	bnez	v0,0x386c
    385c:	24020010 	li	v0,16
    3860:	8cc30004 	lw	v1,4(a2)
    3864:	1462000f 	bne	v1,v0,0x38a4
    3868:	8f850024 	lw	a1,36(gp)
    386c:	0e000da7 	jal	0x800369c
    3870:	24110001 	li	s1,1
    3874:	8f820024 	lw	v0,36(gp)
    3878:	94430028 	lhu	v1,40(v0)
    387c:	9442001a 	lhu	v0,26(v0)
    3880:	14430003 	bne	v0,v1,0x3890
    3884:	00000000 	nop
    3888:	0e000d13 	jal	0x800344c
    388c:	00000000 	nop
    3890:	16000004 	bnez	s0,0x38a4
    3894:	8f850024 	lw	a1,36(gp)
    3898:	0e000d84 	jal	0x8003610
    389c:	00000000 	nop
    38a0:	8f850024 	lw	a1,36(gp)
    38a4:	94a2001e 	lhu	v0,30(a1)
    38a8:	94a4001c 	lhu	a0,28(a1)
    38ac:	24420001 	addiu	v0,v0,1
    38b0:	3043ffff 	andi	v1,v0,0xffff
    38b4:	14640002 	bne	v1,a0,0x38c0
    38b8:	a4a2001e 	sh	v0,30(a1)
    38bc:	a4a0001e 	sh	zero,30(a1)
    38c0:	1200000a 	beqz	s0,0x38ec
    38c4:	3c028004 	lui	v0,0x8004
    38c8:	94a20014 	lhu	v0,20(a1)
    38cc:	94a3001a 	lhu	v1,26(a1)
    38d0:	3042000f 	andi	v0,v0,0xf
    38d4:	00021500 	sll	v0,v0,0x14
    38d8:	00621825 	or	v1,v1,v0
    38dc:	3c028000 	lui	v0,0x8000
    38e0:	ac4300a0 	sw	v1,160(v0)
    38e4:	0a000e1e 	j	0x8003878
    38e8:	aca00008 	sw	zero,8(a1)
    38ec:	94420006 	lhu	v0,6(v0)
    38f0:	94a3001a 	lhu	v1,26(a1)
    38f4:	8ca40000 	lw	a0,0(a1)
    38f8:	a4a20016 	sh	v0,22(a1)
    38fc:	00621023 	subu	v0,v1,v0
    3900:	3042ffff 	andi	v0,v0,0xffff
    3904:	0044102b 	sltu	v0,v0,a0
    3908:	38420001 	xori	v0,v0,0x1
    390c:	1040000d 	beqz	v0,0x3944
    3910:	02201021 	move	v0,s1
    3914:	00603021 	move	a2,v1
    3918:	3c078004 	lui	a3,0x8004
    391c:	94e20006 	lhu	v0,6(a3)
    3920:	a4a20016 	sh	v0,22(a1)
    3924:	94e30006 	lhu	v1,6(a3)
    3928:	00c31023 	subu	v0,a2,v1
    392c:	3042ffff 	andi	v0,v0,0xffff
    3930:	0044102b 	sltu	v0,v0,a0
    3934:	38420001 	xori	v0,v0,0x1
    3938:	1440fff8 	bnez	v0,0x391c
    393c:	a4a30016 	sh	v1,22(a1)
    3940:	02201021 	move	v0,s1
    3944:	8fbf0018 	lw	ra,24(sp)
    3948:	8fb10014 	lw	s1,20(sp)
    394c:	8fb00010 	lw	s0,16(sp)
    3950:	03e00008 	jr	ra
    3954:	27bd0020 	addiu	sp,sp,32
    3958:	03e00008 	jr	ra
    395c:	00000000 	nop
    3960:	8f82002c 	lw	v0,44(gp)
    3964:	3c030006 	lui	v1,0x6
    3968:	00021140 	sll	v0,v0,0x5
    396c:	00431025 	or	v0,v0,v1
    3970:	3c038000 	lui	v1,0x8000
    3974:	ac620030 	sw	v0,48(v1)
	...
    3984:	8c620000 	lw	v0,0(v1)
    3988:	30420010 	andi	v0,v0,0x10
    398c:	1040fffd 	beqz	v0,0x3984
    3990:	34620400 	ori	v0,v1,0x400
    3994:	af820028 	sw	v0,40(gp)
    3998:	03e00008 	jr	ra
    399c:	af80002c 	sw	zero,44(gp)
    39a0:	03e00008 	jr	ra
    39a4:	00001021 	move	v0,zero
    39a8:	03e00008 	jr	ra
    39ac:	00000000 	nop
    39b0:	3084ffff 	andi	a0,a0,0xffff
    39b4:	30a5ffff 	andi	a1,a1,0xffff
    39b8:	00001821 	move	v1,zero
    39bc:	10800007 	beqz	a0,0x39dc
    39c0:	00000000 	nop
    39c4:	30820001 	andi	v0,a0,0x1
    39c8:	10400002 	beqz	v0,0x39d4
    39cc:	00042042 	srl	a0,a0,0x1
    39d0:	00651821 	addu	v1,v1,a1
    39d4:	0a000e3d 	j	0x80038f4
    39d8:	00052840 	sll	a1,a1,0x1
    39dc:	03e00008 	jr	ra
    39e0:	00601021 	move	v0,v1
    39e4:	10c00006 	beqz	a2,0x3a00
    39e8:	24c6ffff 	addiu	a2,a2,-1
    39ec:	8ca20000 	lw	v0,0(a1)
    39f0:	24a50004 	addiu	a1,a1,4
    39f4:	ac820000 	sw	v0,0(a0)
    39f8:	0a000e47 	j	0x800391c
    39fc:	24840004 	addiu	a0,a0,4
    3a00:	03e00008 	jr	ra
    3a04:	00000000 	nop
    3a08:	10a00008 	beqz	a1,0x3a2c
    3a0c:	24a3ffff 	addiu	v1,a1,-1
    3a10:	ac860000 	sw	a2,0(a0)
	...
    3a1c:	2402ffff 	li	v0,-1
    3a20:	2463ffff 	addiu	v1,v1,-1
    3a24:	1462fffa 	bne	v1,v0,0x3a10
    3a28:	24840004 	addiu	a0,a0,4
    3a2c:	03e00008 	jr	ra
    3a30:	00000000 	nop
    3a34:	3c028008 	lui	v0,0x8008
    3a38:	34420080 	ori	v0,v0,0x80
    3a3c:	24030001 	li	v1,1
    3a40:	ac43000c 	sw	v1,12(v0)
    3a44:	a4430010 	sh	v1,16(v0)
    3a48:	a4430012 	sh	v1,18(v0)
    3a4c:	a4430014 	sh	v1,20(v0)
    3a50:	03e00008 	jr	ra
    3a54:	a4430016 	sh	v1,22(v0)
    3a58:	8f820024 	lw	v0,36(gp)
    3a5c:	27bdffd8 	addiu	sp,sp,-40
    3a60:	afb3001c 	sw	s3,28(sp)
    3a64:	afb20018 	sw	s2,24(sp)
    3a68:	afb10014 	sw	s1,20(sp)
    3a6c:	afb00010 	sw	s0,16(sp)
    3a70:	afbf0020 	sw	ra,32(sp)
    3a74:	8c47000c 	lw	a3,12(v0)
    3a78:	24820080 	addiu	v0,a0,128
    3a7c:	2409ff80 	li	t1,-128
    3a80:	3c08800e 	lui	t0,0x800e
    3a84:	3043007f 	andi	v1,v0,0x7f
    3a88:	00808021 	move	s0,a0
    3a8c:	3c0a8000 	lui	t2,0x8000
    3a90:	00492024 	and	a0,v0,t1
    3a94:	00681821 	addu	v1,v1,t0
    3a98:	30b100ff 	andi	s1,a1,0xff
    3a9c:	30d200ff 	andi	s2,a2,0xff
    3aa0:	10e00029 	beqz	a3,0x3b48
    3aa4:	00009821 	move	s3,zero
    3aa8:	26020100 	addiu	v0,s0,256
    3aac:	ad44002c 	sw	a0,44(t2)
    3ab0:	00492824 	and	a1,v0,t1
    3ab4:	3042007f 	andi	v0,v0,0x7f
    3ab8:	00482021 	addu	a0,v0,t0
    3abc:	90620000 	lbu	v0,0(v1)
    3ac0:	24030050 	li	v1,80
    3ac4:	304200ff 	andi	v0,v0,0xff
    3ac8:	14430004 	bne	v0,v1,0x3adc
    3acc:	00000000 	nop
    3ad0:	ad45002c 	sw	a1,44(t2)
    3ad4:	948200ea 	lhu	v0,234(a0)
    3ad8:	3053ffff 	andi	s3,v0,0xffff
    3adc:	0e000d84 	jal	0x8003610
    3ae0:	00000000 	nop
    3ae4:	8f820024 	lw	v0,36(gp)
    3ae8:	8f830020 	lw	v1,32(gp)
    3aec:	00112c00 	sll	a1,s1,0x10
    3af0:	9442001e 	lhu	v0,30(v0)
    3af4:	00122400 	sll	a0,s2,0x10
    3af8:	34840001 	ori	a0,a0,0x1
    3afc:	00a22825 	or	a1,a1,v0
    3b00:	3c024000 	lui	v0,0x4000
    3b04:	00a22825 	or	a1,a1,v0
    3b08:	ac700000 	sw	s0,0(v1)
    3b0c:	8fbf0020 	lw	ra,32(sp)
    3b10:	ac600004 	sw	zero,4(v1)
    3b14:	8fb20018 	lw	s2,24(sp)
    3b18:	ac730008 	sw	s3,8(v1)
    3b1c:	8fb10014 	lw	s1,20(sp)
    3b20:	ac60000c 	sw	zero,12(v1)
    3b24:	8fb3001c 	lw	s3,28(sp)
    3b28:	ac640010 	sw	a0,16(v1)
    3b2c:	8fb00010 	lw	s0,16(sp)
    3b30:	ac600014 	sw	zero,20(v1)
    3b34:	24040001 	li	a0,1
    3b38:	ac600018 	sw	zero,24(v1)
    3b3c:	27bd0028 	addiu	sp,sp,40
    3b40:	0a000db8 	j	0x80036e0
    3b44:	ac65001c 	sw	a1,28(v1)
    3b48:	8fbf0020 	lw	ra,32(sp)
    3b4c:	8fb3001c 	lw	s3,28(sp)
    3b50:	8fb20018 	lw	s2,24(sp)
    3b54:	8fb10014 	lw	s1,20(sp)
    3b58:	8fb00010 	lw	s0,16(sp)
    3b5c:	03e00008 	jr	ra
    3b60:	27bd0028 	addiu	sp,sp,40
    3b64:	3c068000 	lui	a2,0x8000
    3b68:	34c20100 	ori	v0,a2,0x100
    3b6c:	9043000f 	lbu	v1,15(v0)
    3b70:	24020010 	li	v0,16
    3b74:	1062000e 	beq	v1,v0,0x3bb0
    3b78:	28650011 	slti	a1,v1,17
    3b7c:	10a00007 	beqz	a1,0x3b9c
    3b80:	24020012 	li	v0,18
    3b84:	24020008 	li	v0,8
    3b88:	2405003a 	li	a1,58
    3b8c:	10620006 	beq	v1,v0,0x3ba8
    3b90:	00003021 	move	a2,zero
    3b94:	03e00008 	jr	ra
    3b98:	00000000 	nop
    3b9c:	24050035 	li	a1,53
    3ba0:	1462fffc 	bne	v1,v0,0x3b94
    3ba4:	00003021 	move	a2,zero
    3ba8:	0a000e64 	j	0x8003990
    3bac:	00000000 	nop
    3bb0:	8cc20074 	lw	v0,116(a2)
    3bb4:	8f83ff94 	lw	v1,-108(gp)
    3bb8:	24420fa0 	addiu	v0,v0,4000
    3bbc:	03e00008 	jr	ra
    3bc0:	ac62000c 	sw	v0,12(v1)
    3bc4:	27bdffe8 	addiu	sp,sp,-24
    3bc8:	afbf0010 	sw	ra,16(sp)
    3bcc:	0e000342 	jal	0x8000d08
    3bd0:	24050001 	li	a1,1
    3bd4:	3c048008 	lui	a0,0x8008
    3bd8:	8fbf0010 	lw	ra,16(sp)
    3bdc:	24020001 	li	v0,1
    3be0:	34830080 	ori	v1,a0,0x80
    3be4:	a4620012 	sh	v0,18(v1)
    3be8:	27bd0018 	addiu	sp,sp,24
    3bec:	24020001 	li	v0,1
    3bf0:	03e00008 	jr	ra
    3bf4:	a080001a 	sb	zero,26(a0)
    3bf8:	27bdffe0 	addiu	sp,sp,-32
    3bfc:	afb20018 	sw	s2,24(sp)
    3c00:	afb10014 	sw	s1,20(sp)
    3c04:	afb00010 	sw	s0,16(sp)
    3c08:	afbf001c 	sw	ra,28(sp)
    3c0c:	30b2ffff 	andi	s2,a1,0xffff
    3c10:	0e000332 	jal	0x8000cc8
    3c14:	00808821 	move	s1,a0
    3c18:	3c028008 	lui	v0,0x8008
    3c1c:	34500080 	ori	s0,v0,0x80
    3c20:	92020009 	lbu	v0,9(s0)
    3c24:	24030004 	li	v1,4
    3c28:	304200ff 	andi	v0,v0,0xff
    3c2c:	1443000c 	bne	v0,v1,0x3c60
    3c30:	3c028008 	lui	v0,0x8008
    3c34:	12400008 	beqz	s2,0x3c58
    3c38:	2402000a 	li	v0,10
    3c3c:	0e000e5b 	jal	0x800396c
    3c40:	00000000 	nop
    3c44:	92020005 	lbu	v0,5(s0)
    3c48:	2403fffe 	li	v1,-2
    3c4c:	00431024 	and	v0,v0,v1
    3c50:	a2020005 	sb	v0,5(s0)
    3c54:	24020012 	li	v0,18
    3c58:	a2020009 	sb	v0,9(s0)
    3c5c:	3c028008 	lui	v0,0x8008
    3c60:	34420080 	ori	v0,v0,0x80
    3c64:	02202021 	move	a0,s1
    3c68:	0e00033d 	jal	0x8000cf4
    3c6c:	a0400027 	sb	zero,39(v0)
    3c70:	16400003 	bnez	s2,0x3c80
    3c74:	02202021 	move	a0,s1
    3c78:	0e000ebf 	jal	0x8003afc
    3c7c:	00000000 	nop
    3c80:	02202021 	move	a0,s1
    3c84:	324600ff 	andi	a2,s2,0xff
    3c88:	8fbf001c 	lw	ra,28(sp)
    3c8c:	8fb20018 	lw	s2,24(sp)
    3c90:	8fb10014 	lw	s1,20(sp)
    3c94:	8fb00010 	lw	s0,16(sp)
    3c98:	24050038 	li	a1,56
    3c9c:	0a000e64 	j	0x8003990
    3ca0:	27bd0020 	addiu	sp,sp,32
    3ca4:	27bdffe0 	addiu	sp,sp,-32
    3ca8:	afbf001c 	sw	ra,28(sp)
    3cac:	afb20018 	sw	s2,24(sp)
    3cb0:	afb10014 	sw	s1,20(sp)
    3cb4:	afb00010 	sw	s0,16(sp)
    3cb8:	0e000332 	jal	0x8000cc8
    3cbc:	00808021 	move	s0,a0
    3cc0:	0e000e5b 	jal	0x800396c
    3cc4:	00000000 	nop
    3cc8:	3c028008 	lui	v0,0x8008
    3ccc:	34450080 	ori	a1,v0,0x80
    3cd0:	90a20009 	lbu	v0,9(a1)
    3cd4:	24120018 	li	s2,24
    3cd8:	305100ff 	andi	s1,v0,0xff
    3cdc:	12320003 	beq	s1,s2,0x3cec
    3ce0:	02002021 	move	a0,s0
    3ce4:	24020012 	li	v0,18
    3ce8:	a0a20009 	sb	v0,9(a1)
    3cec:	90a20005 	lbu	v0,5(a1)
    3cf0:	2403fffe 	li	v1,-2
    3cf4:	00431024 	and	v0,v0,v1
    3cf8:	0e00033d 	jal	0x8000cf4
    3cfc:	a0a20005 	sb	v0,5(a1)
    3d00:	02002021 	move	a0,s0
    3d04:	24050020 	li	a1,32
    3d08:	16320007 	bne	s1,s2,0x3d28
    3d0c:	00003021 	move	a2,zero
    3d10:	8fbf001c 	lw	ra,28(sp)
    3d14:	8fb20018 	lw	s2,24(sp)
    3d18:	8fb10014 	lw	s1,20(sp)
    3d1c:	8fb00010 	lw	s0,16(sp)
    3d20:	0a000342 	j	0x8000d08
    3d24:	27bd0020 	addiu	sp,sp,32
    3d28:	8fbf001c 	lw	ra,28(sp)
    3d2c:	8fb20018 	lw	s2,24(sp)
    3d30:	8fb10014 	lw	s1,20(sp)
    3d34:	8fb00010 	lw	s0,16(sp)
    3d38:	24050039 	li	a1,57
    3d3c:	0a000e64 	j	0x8003990
    3d40:	27bd0020 	addiu	sp,sp,32
    3d44:	27bdffe8 	addiu	sp,sp,-24
    3d48:	3c028000 	lui	v0,0x8000
    3d4c:	afb00010 	sw	s0,16(sp)
    3d50:	afbf0014 	sw	ra,20(sp)
    3d54:	34420100 	ori	v0,v0,0x100
    3d58:	9442000c 	lhu	v0,12(v0)
    3d5c:	24050036 	li	a1,54
    3d60:	00808021 	move	s0,a0
    3d64:	14400012 	bnez	v0,0x3db0
    3d68:	304600ff 	andi	a2,v0,0xff
    3d6c:	0e000332 	jal	0x8000cc8
    3d70:	00000000 	nop
    3d74:	3c028008 	lui	v0,0x8008
    3d78:	34420080 	ori	v0,v0,0x80
    3d7c:	24030012 	li	v1,18
    3d80:	a0430009 	sb	v1,9(v0)
    3d84:	90430005 	lbu	v1,5(v0)
    3d88:	34630010 	ori	v1,v1,0x10
    3d8c:	0e000e5b 	jal	0x800396c
    3d90:	a0430005 	sb	v1,5(v0)
    3d94:	0e00033d 	jal	0x8000cf4
    3d98:	02002021 	move	a0,s0
    3d9c:	02002021 	move	a0,s0
    3da0:	0e000342 	jal	0x8000d08
    3da4:	24050020 	li	a1,32
    3da8:	0a000f3c 	j	0x8003cf0
    3dac:	00000000 	nop
    3db0:	0e000e64 	jal	0x8003990
    3db4:	00000000 	nop
    3db8:	0e000332 	jal	0x8000cc8
    3dbc:	02002021 	move	a0,s0
    3dc0:	3c028008 	lui	v0,0x8008
    3dc4:	9043001b 	lbu	v1,27(v0)
    3dc8:	2405ff9f 	li	a1,-97
    3dcc:	02002021 	move	a0,s0
    3dd0:	00651824 	and	v1,v1,a1
    3dd4:	8fbf0014 	lw	ra,20(sp)
    3dd8:	8fb00010 	lw	s0,16(sp)
    3ddc:	a043001b 	sb	v1,27(v0)
    3de0:	0a00033d 	j	0x8000cf4
    3de4:	27bd0018 	addiu	sp,sp,24
    3de8:	27bdffe0 	addiu	sp,sp,-32
    3dec:	afbf0018 	sw	ra,24(sp)
    3df0:	afb10014 	sw	s1,20(sp)
    3df4:	afb00010 	sw	s0,16(sp)
    3df8:	30b100ff 	andi	s1,a1,0xff
    3dfc:	0e000332 	jal	0x8000cc8
    3e00:	00808021 	move	s0,a0
    3e04:	3c028008 	lui	v0,0x8008
    3e08:	24030012 	li	v1,18
    3e0c:	34420080 	ori	v0,v0,0x80
    3e10:	0e000e5b 	jal	0x800396c
    3e14:	a0430009 	sb	v1,9(v0)
    3e18:	0e00033d 	jal	0x8000cf4
    3e1c:	02002021 	move	a0,s0
    3e20:	02002021 	move	a0,s0
    3e24:	02203021 	move	a2,s1
    3e28:	8fbf0018 	lw	ra,24(sp)
    3e2c:	8fb10014 	lw	s1,20(sp)
    3e30:	8fb00010 	lw	s0,16(sp)
    3e34:	24050035 	li	a1,53
    3e38:	0a000e64 	j	0x8003990
    3e3c:	27bd0020 	addiu	sp,sp,32
    3e40:	3c048008 	lui	a0,0x8008
    3e44:	9083000e 	lbu	v1,14(a0)
    3e48:	9082000a 	lbu	v0,10(a0)
    3e4c:	1443000b 	bne	v0,v1,0x3e7c
    3e50:	00002821 	move	a1,zero
    3e54:	8f82ff94 	lw	v0,-108(gp)
    3e58:	24030050 	li	v1,80
    3e5c:	24050001 	li	a1,1
    3e60:	90420000 	lbu	v0,0(v0)
    3e64:	304200ff 	andi	v0,v0,0xff
    3e68:	14430004 	bne	v0,v1,0x3e7c
    3e6c:	00000000 	nop
    3e70:	9082000e 	lbu	v0,14(a0)
    3e74:	24420001 	addiu	v0,v0,1
    3e78:	a082000e 	sb	v0,14(a0)
    3e7c:	03e00008 	jr	ra
    3e80:	00a01021 	move	v0,a1
    3e84:	3c038000 	lui	v1,0x8000
    3e88:	8c6201f8 	lw	v0,504(v1)
    3e8c:	0440fffe 	bltz	v0,0x3e88
    3e90:	24020002 	li	v0,2
    3e94:	ac6401c0 	sw	a0,448(v1)
    3e98:	a06201c4 	sb	v0,452(v1)
    3e9c:	3c021000 	lui	v0,0x1000
    3ea0:	03e00008 	jr	ra
    3ea4:	ac6201f8 	sw	v0,504(v1)
    3ea8:	27bdffe0 	addiu	sp,sp,-32
    3eac:	afb20018 	sw	s2,24(sp)
    3eb0:	3c128008 	lui	s2,0x8008
    3eb4:	afb10014 	sw	s1,20(sp)
    3eb8:	afbf001c 	sw	ra,28(sp)
    3ebc:	afb00010 	sw	s0,16(sp)
    3ec0:	36510080 	ori	s1,s2,0x80
    3ec4:	92220009 	lbu	v0,9(s1)
    3ec8:	2403000a 	li	v1,10
    3ecc:	304200ff 	andi	v0,v0,0xff
    3ed0:	1443003e 	bne	v0,v1,0x3fcc
    3ed4:	00000000 	nop
    3ed8:	8e430004 	lw	v1,4(s2)
    3edc:	8e220038 	lw	v0,56(s1)
    3ee0:	50620080 	beql	v1,v0,0x40e4
    3ee4:	8fbf001c 	lw	ra,28(sp)
    3ee8:	92220000 	lbu	v0,0(s1)
    3eec:	24030050 	li	v1,80
    3ef0:	304200ff 	andi	v0,v0,0xff
    3ef4:	14430025 	bne	v0,v1,0x3f8c
    3ef8:	3c028000 	lui	v0,0x8000
    3efc:	8c420140 	lw	v0,320(v0)
    3f00:	8e430004 	lw	v1,4(s2)
    3f04:	36420100 	ori	v0,s2,0x100
    3f08:	02202821 	move	a1,s1
    3f0c:	ac43001c 	sw	v1,28(v0)
    3f10:	9622005c 	lhu	v0,92(s1)
    3f14:	8e230038 	lw	v1,56(s1)
    3f18:	3042ffff 	andi	v0,v0,0xffff
    3f1c:	00021040 	sll	v0,v0,0x1
    3f20:	00621821 	addu	v1,v1,v0
    3f24:	ae23001c 	sw	v1,28(s1)
    3f28:	8e430004 	lw	v1,4(s2)
    3f2c:	8e240038 	lw	a0,56(s1)
    3f30:	9622005c 	lhu	v0,92(s1)
    3f34:	00641823 	subu	v1,v1,a0
    3f38:	3042ffff 	andi	v0,v0,0xffff
    3f3c:	00031843 	sra	v1,v1,0x1
    3f40:	00021040 	sll	v0,v0,0x1
    3f44:	0043102a 	slt	v0,v0,v1
    3f48:	10400006 	beqz	v0,0x3f64
    3f4c:	00000000 	nop
    3f50:	8e420004 	lw	v0,4(s2)
    3f54:	8e230038 	lw	v1,56(s1)
    3f58:	00431023 	subu	v0,v0,v1
    3f5c:	0a000faa 	j	0x8003ea8
    3f60:	00022043 	sra	a0,v0,0x1
    3f64:	9622005c 	lhu	v0,92(s1)
    3f68:	3042ffff 	andi	v0,v0,0xffff
    3f6c:	00022040 	sll	a0,v0,0x1
    3f70:	3c028008 	lui	v0,0x8008
    3f74:	34430100 	ori	v1,v0,0x100
    3f78:	34420080 	ori	v0,v0,0x80
    3f7c:	aca4002c 	sw	a0,44(a1)
    3f80:	a0400024 	sb	zero,36(v0)
    3f84:	24020001 	li	v0,1
    3f88:	a062000c 	sb	v0,12(v1)
    3f8c:	0e000f5e 	jal	0x8003d78
    3f90:	00000000 	nop
    3f94:	10400053 	beqz	v0,0x40e4
    3f98:	8fbf001c 	lw	ra,28(sp)
    3f9c:	3c028000 	lui	v0,0x8000
    3fa0:	8c440140 	lw	a0,320(v0)
    3fa4:	3c038000 	lui	v1,0x8000
    3fa8:	8c6201f8 	lw	v0,504(v1)
    3fac:	0440fffe 	bltz	v0,0x3fa8
    3fb0:	24020002 	li	v0,2
    3fb4:	ac6401c0 	sw	a0,448(v1)
    3fb8:	a06201c4 	sb	v0,452(v1)
    3fbc:	3c021000 	lui	v0,0x1000
    3fc0:	ac6201f8 	sw	v0,504(v1)
    3fc4:	0a001007 	j	0x800401c
    3fc8:	8fbf001c 	lw	ra,28(sp)
    3fcc:	92220009 	lbu	v0,9(s1)
    3fd0:	24030010 	li	v1,16
    3fd4:	304200ff 	andi	v0,v0,0xff
    3fd8:	14430004 	bne	v0,v1,0x3fec
    3fdc:	3c028000 	lui	v0,0x8000
    3fe0:	8c440140 	lw	a0,320(v0)
    3fe4:	0a000fee 	j	0x8003fb8
    3fe8:	00002821 	move	a1,zero
    3fec:	92220009 	lbu	v0,9(s1)
    3ff0:	24030016 	li	v1,22
    3ff4:	304200ff 	andi	v0,v0,0xff
    3ff8:	14430006 	bne	v0,v1,0x4014
    3ffc:	24020014 	li	v0,20
    4000:	a2220009 	sb	v0,9(s1)
    4004:	3c028000 	lui	v0,0x8000
    4008:	8c440140 	lw	a0,320(v0)
    400c:	0a001001 	j	0x8004004
    4010:	8fbf001c 	lw	ra,28(sp)
    4014:	8e220038 	lw	v0,56(s1)
    4018:	8e23003c 	lw	v1,60(s1)
    401c:	00431023 	subu	v0,v0,v1
    4020:	04410030 	bgez	v0,0x40e4
    4024:	8fbf001c 	lw	ra,28(sp)
    4028:	92220027 	lbu	v0,39(s1)
    402c:	24420001 	addiu	v0,v0,1
    4030:	a2220027 	sb	v0,39(s1)
    4034:	92220027 	lbu	v0,39(s1)
    4038:	2c420004 	sltiu	v0,v0,4
    403c:	14400016 	bnez	v0,0x4098
    4040:	3c108000 	lui	s0,0x8000
    4044:	92220009 	lbu	v0,9(s1)
    4048:	24030004 	li	v1,4
    404c:	304200ff 	andi	v0,v0,0xff
    4050:	14430009 	bne	v0,v1,0x4078
    4054:	3c028000 	lui	v0,0x8000
    4058:	8c440140 	lw	a0,320(v0)
    405c:	8fbf001c 	lw	ra,28(sp)
    4060:	8fb20018 	lw	s2,24(sp)
    4064:	8fb10014 	lw	s1,20(sp)
    4068:	8fb00010 	lw	s0,16(sp)
    406c:	24050093 	li	a1,147
    4070:	0a000ecc 	j	0x8003b30
    4074:	27bd0020 	addiu	sp,sp,32
    4078:	8c440140 	lw	a0,320(v0)
    407c:	24050093 	li	a1,147
    4080:	8fbf001c 	lw	ra,28(sp)
    4084:	8fb20018 	lw	s2,24(sp)
    4088:	8fb10014 	lw	s1,20(sp)
    408c:	8fb00010 	lw	s0,16(sp)
    4090:	0a000f48 	j	0x8003d20
    4094:	27bd0020 	addiu	sp,sp,32
    4098:	8e040140 	lw	a0,320(s0)
    409c:	0e000332 	jal	0x8000cc8
    40a0:	00000000 	nop
    40a4:	8e420004 	lw	v0,4(s2)
    40a8:	2442ffff 	addiu	v0,v0,-1
    40ac:	ae420004 	sw	v0,4(s2)
    40b0:	8e22003c 	lw	v0,60(s1)
    40b4:	2442ffff 	addiu	v0,v0,-1
    40b8:	ae22003c 	sw	v0,60(s1)
    40bc:	0e00033d 	jal	0x8000cf4
    40c0:	8e040140 	lw	a0,320(s0)
    40c4:	8e040140 	lw	a0,320(s0)
    40c8:	8fbf001c 	lw	ra,28(sp)
    40cc:	8fb20018 	lw	s2,24(sp)
    40d0:	8fb10014 	lw	s1,20(sp)
    40d4:	8fb00010 	lw	s0,16(sp)
    40d8:	24050004 	li	a1,4
    40dc:	0a000342 	j	0x8000d08
    40e0:	27bd0020 	addiu	sp,sp,32
    40e4:	8fb20018 	lw	s2,24(sp)
    40e8:	8fb10014 	lw	s1,20(sp)
    40ec:	8fb00010 	lw	s0,16(sp)
    40f0:	03e00008 	jr	ra
    40f4:	27bd0020 	addiu	sp,sp,32
    40f8:	3c068000 	lui	a2,0x8000
    40fc:	8cc20188 	lw	v0,392(a2)
    4100:	3c038008 	lui	v1,0x8008
    4104:	34650080 	ori	a1,v1,0x80
    4108:	9063000e 	lbu	v1,14(v1)
    410c:	00021402 	srl	v0,v0,0x10
    4110:	304400ff 	andi	a0,v0,0xff
    4114:	306300ff 	andi	v1,v1,0xff
    4118:	1464000e 	bne	v1,a0,0x4154
    411c:	3c028008 	lui	v0,0x8008
    4120:	90a20026 	lbu	v0,38(a1)
    4124:	304200ff 	andi	v0,v0,0xff
    4128:	10440009 	beq	v0,a0,0x4150
    412c:	8f82ff94 	lw	v0,-108(gp)
    4130:	a0a40026 	sb	a0,38(a1)
    4134:	24030050 	li	v1,80
    4138:	90420000 	lbu	v0,0(v0)
    413c:	304200ff 	andi	v0,v0,0xff
    4140:	14430006 	bne	v0,v1,0x415c
    4144:	00000000 	nop
    4148:	0a0005a1 	j	0x8001684
    414c:	8cc40180 	lw	a0,384(a2)
    4150:	3c028008 	lui	v0,0x8008
    4154:	34420080 	ori	v0,v0,0x80
    4158:	a0440026 	sb	a0,38(v0)
    415c:	03e00008 	jr	ra
    4160:	00000000 	nop
    4164:	27bdffe0 	addiu	sp,sp,-32
    4168:	30e700ff 	andi	a3,a3,0xff
    416c:	afb20018 	sw	s2,24(sp)
    4170:	afbf001c 	sw	ra,28(sp)
    4174:	afb10014 	sw	s1,20(sp)
    4178:	afb00010 	sw	s0,16(sp)
    417c:	00809021 	move	s2,a0
    4180:	14e00006 	bnez	a3,0x419c
    4184:	30c600ff 	andi	a2,a2,0xff
    4188:	00000000 	nop
    418c:	0000000d 	break
    4190:	00000000 	nop
    4194:	0a001060 	j	0x8004180
    4198:	24000116 	li	zero,278
    419c:	3c038008 	lui	v1,0x8008
    41a0:	9062000e 	lbu	v0,14(v1)
    41a4:	304200ff 	andi	v0,v0,0xff
    41a8:	14460023 	bne	v0,a2,0x4238
    41ac:	34620080 	ori	v0,v1,0x80
    41b0:	90420026 	lbu	v0,38(v0)
    41b4:	304200ff 	andi	v0,v0,0xff
    41b8:	1446001f 	bne	v0,a2,0x4238
    41bc:	00000000 	nop
    41c0:	9062000f 	lbu	v0,15(v1)
    41c4:	304200ff 	andi	v0,v0,0xff
    41c8:	1446001b 	bne	v0,a2,0x4238
    41cc:	00000000 	nop
    41d0:	9062000a 	lbu	v0,10(v1)
    41d4:	304200ff 	andi	v0,v0,0xff
    41d8:	14460003 	bne	v0,a2,0x41e8
    41dc:	8f90ff94 	lw	s0,-108(gp)
    41e0:	0000000d 	break
    41e4:	8f90ff94 	lw	s0,-108(gp)
    41e8:	8f82ff98 	lw	v0,-104(gp)
    41ec:	3c118000 	lui	s1,0x8000
    41f0:	ae05003c 	sw	a1,60(s0)
    41f4:	ac450000 	sw	a1,0(v0)
    41f8:	a066000a 	sb	a2,10(v1)
    41fc:	0e000332 	jal	0x8000cc8
    4200:	8e240100 	lw	a0,256(s1)
    4204:	a2000024 	sb	zero,36(s0)
    4208:	0e00033d 	jal	0x8000cf4
    420c:	8e240100 	lw	a0,256(s1)
    4210:	3c038000 	lui	v1,0x8000
    4214:	8c6201f8 	lw	v0,504(v1)
    4218:	0440fffe 	bltz	v0,0x4214
    421c:	24020002 	li	v0,2
    4220:	ac7201c0 	sw	s2,448(v1)
    4224:	a06201c4 	sb	v0,452(v1)
    4228:	3c021000 	lui	v0,0x1000
    422c:	ac6201f8 	sw	v0,504(v1)
    4230:	0a001061 	j	0x8004184
    4234:	8fbf001c 	lw	ra,28(sp)
    4238:	00000000 	nop
    423c:	0000000d 	break
    4240:	00000000 	nop
    4244:	2400013f 	li	zero,319
    4248:	8fbf001c 	lw	ra,28(sp)
    424c:	8fb20018 	lw	s2,24(sp)
    4250:	8fb10014 	lw	s1,20(sp)
    4254:	8fb00010 	lw	s0,16(sp)
    4258:	03e00008 	jr	ra
    425c:	27bd0020 	addiu	sp,sp,32
    4260:	8f83ff94 	lw	v1,-108(gp)
    4264:	3c028000 	lui	v0,0x8000
    4268:	8c440100 	lw	a0,256(v0)
    426c:	34420100 	ori	v0,v0,0x100
    4270:	8c65003c 	lw	a1,60(v1)
    4274:	9046001b 	lbu	a2,27(v0)
    4278:	0a001027 	j	0x800409c
    427c:	24070001 	li	a3,1
    4280:	3c028008 	lui	v0,0x8008
    4284:	9043000e 	lbu	v1,14(v0)
    4288:	9042000a 	lbu	v0,10(v0)
    428c:	00431026 	xor	v0,v0,v1
    4290:	304200ff 	andi	v0,v0,0xff
    4294:	03e00008 	jr	ra
    4298:	0002102b 	sltu	v0,zero,v0
    429c:	27bdffe0 	addiu	sp,sp,-32
    42a0:	3c028008 	lui	v0,0x8008
    42a4:	afb10014 	sw	s1,20(sp)
    42a8:	afb00010 	sw	s0,16(sp)
    42ac:	afbf0018 	sw	ra,24(sp)
    42b0:	34500080 	ori	s0,v0,0x80
    42b4:	92020005 	lbu	v0,5(s0)
    42b8:	24030030 	li	v1,48
    42bc:	30420030 	andi	v0,v0,0x30
    42c0:	14430085 	bne	v0,v1,0x44d8
    42c4:	00808821 	move	s1,a0
    42c8:	8f820024 	lw	v0,36(gp)
    42cc:	8c42000c 	lw	v0,12(v0)
    42d0:	10400082 	beqz	v0,0x44dc
    42d4:	8fbf0018 	lw	ra,24(sp)
    42d8:	0e000d84 	jal	0x8003610
    42dc:	00000000 	nop
    42e0:	8f860020 	lw	a2,32(gp)
    42e4:	acd10000 	sw	s1,0(a2)
    42e8:	92020008 	lbu	v0,8(s0)
    42ec:	92030009 	lbu	v1,9(s0)
    42f0:	304200ff 	andi	v0,v0,0xff
    42f4:	00021200 	sll	v0,v0,0x8
    42f8:	306300ff 	andi	v1,v1,0xff
    42fc:	00431025 	or	v0,v0,v1
    4300:	acc20004 	sw	v0,4(a2)
    4304:	9202004d 	lbu	v0,77(s0)
    4308:	00021600 	sll	v0,v0,0x18
    430c:	00021603 	sra	v0,v0,0x18
    4310:	04410005 	bgez	v0,0x4328
    4314:	00000000 	nop
    4318:	3c030800 	lui	v1,0x800
    431c:	8c630048 	lw	v1,72(v1)
    4320:	0a00109f 	j	0x800427c
    4324:	3c108008 	lui	s0,0x8008
    4328:	92020008 	lbu	v0,8(s0)
    432c:	30420040 	andi	v0,v0,0x40
    4330:	14400003 	bnez	v0,0x4340
    4334:	00001821 	move	v1,zero
    4338:	92020027 	lbu	v0,39(s0)
    433c:	304300ff 	andi	v1,v0,0xff
    4340:	3c108008 	lui	s0,0x8008
    4344:	36110080 	ori	s1,s0,0x80
    4348:	9222004d 	lbu	v0,77(s1)
    434c:	00031e00 	sll	v1,v1,0x18
    4350:	304200ff 	andi	v0,v0,0xff
    4354:	00021400 	sll	v0,v0,0x10
    4358:	00621825 	or	v1,v1,v0
    435c:	acc30008 	sw	v1,8(a2)
    4360:	8e240030 	lw	a0,48(s1)
    4364:	8f820024 	lw	v0,36(gp)
    4368:	acc4000c 	sw	a0,12(a2)
    436c:	8e250034 	lw	a1,52(s1)
    4370:	9443001e 	lhu	v1,30(v0)
    4374:	3c02c00b 	lui	v0,0xc00b
    4378:	acc50010 	sw	a1,16(a2)
    437c:	00621825 	or	v1,v1,v0
    4380:	8e220038 	lw	v0,56(s1)
    4384:	00002021 	move	a0,zero
    4388:	acc20014 	sw	v0,20(a2)
    438c:	8e22003c 	lw	v0,60(s1)
    4390:	acc20018 	sw	v0,24(a2)
    4394:	0e000db8 	jal	0x80036e0
    4398:	acc3001c 	sw	v1,28(a2)
    439c:	8e020004 	lw	v0,4(s0)
    43a0:	8f840020 	lw	a0,32(gp)
    43a4:	3c058000 	lui	a1,0x8000
    43a8:	ac820000 	sw	v0,0(a0)
    43ac:	8e220020 	lw	v0,32(s1)
    43b0:	ac820004 	sw	v0,4(a0)
    43b4:	8e22001c 	lw	v0,28(s1)
    43b8:	ac820008 	sw	v0,8(a0)
    43bc:	8e220058 	lw	v0,88(s1)
    43c0:	8ca30074 	lw	v1,116(a1)
    43c4:	00431021 	addu	v0,v0,v1
    43c8:	ac82000c 	sw	v0,12(a0)
    43cc:	8e22002c 	lw	v0,44(s1)
    43d0:	ac820010 	sw	v0,16(a0)
    43d4:	8e220040 	lw	v0,64(s1)
    43d8:	8e230044 	lw	v1,68(s1)
    43dc:	00021400 	sll	v0,v0,0x10
    43e0:	00431025 	or	v0,v0,v1
    43e4:	ac820014 	sw	v0,20(a0)
    43e8:	9222004d 	lbu	v0,77(s1)
    43ec:	24030080 	li	v1,128
    43f0:	304200ff 	andi	v0,v0,0xff
    43f4:	14430004 	bne	v0,v1,0x4408
    43f8:	00000000 	nop
    43fc:	ac800018 	sw	zero,24(a0)
    4400:	0a0010e3 	j	0x800438c
    4404:	8f820024 	lw	v0,36(gp)
    4408:	8e23000c 	lw	v1,12(s1)
    440c:	24020001 	li	v0,1
    4410:	1062000e 	beq	v1,v0,0x444c
    4414:	2402ffff 	li	v0,-1
    4418:	92220008 	lbu	v0,8(s1)
    441c:	30420040 	andi	v0,v0,0x40
    4420:	1440000a 	bnez	v0,0x444c
    4424:	2402ffff 	li	v0,-1
    4428:	8e23000c 	lw	v1,12(s1)
    442c:	8ca20074 	lw	v0,116(a1)
    4430:	00621823 	subu	v1,v1,v0
    4434:	3c020800 	lui	v0,0x800
    4438:	00621024 	and	v0,v1,v0
    443c:	14400002 	bnez	v0,0x4448
    4440:	00002821 	move	a1,zero
    4444:	00602821 	move	a1,v1
    4448:	00051043 	sra	v0,a1,0x1
    444c:	ac820018 	sw	v0,24(a0)
    4450:	8f820024 	lw	v0,36(gp)
    4454:	00002021 	move	a0,zero
    4458:	9443001e 	lhu	v1,30(v0)
    445c:	3c02c00c 	lui	v0,0xc00c
    4460:	00621825 	or	v1,v1,v0
    4464:	8f820020 	lw	v0,32(gp)
    4468:	0e000db8 	jal	0x80036e0
    446c:	ac43001c 	sw	v1,28(v0)
    4470:	3c038008 	lui	v1,0x8008
    4474:	34620100 	ori	v0,v1,0x100
    4478:	8c420000 	lw	v0,0(v0)
    447c:	8f850020 	lw	a1,32(gp)
    4480:	34630080 	ori	v1,v1,0x80
    4484:	8fbf0018 	lw	ra,24(sp)
    4488:	aca20000 	sw	v0,0(a1)
    448c:	aca00004 	sw	zero,4(a1)
    4490:	8c640048 	lw	a0,72(v1)
    4494:	8f820024 	lw	v0,36(gp)
    4498:	8fb10014 	lw	s1,20(sp)
    449c:	aca40008 	sw	a0,8(a1)
    44a0:	aca0000c 	sw	zero,12(a1)
    44a4:	aca00010 	sw	zero,16(a1)
    44a8:	90630005 	lbu	v1,5(v1)
    44ac:	9446001e 	lhu	a2,30(v0)
    44b0:	3c02400d 	lui	v0,0x400d
    44b4:	00031e00 	sll	v1,v1,0x18
    44b8:	00c23025 	or	a2,a2,v0
    44bc:	aca30014 	sw	v1,20(a1)
    44c0:	8fb00010 	lw	s0,16(sp)
    44c4:	aca00018 	sw	zero,24(a1)
    44c8:	24040001 	li	a0,1
    44cc:	aca6001c 	sw	a2,28(a1)
    44d0:	0a000db8 	j	0x80036e0
    44d4:	27bd0020 	addiu	sp,sp,32
    44d8:	8fbf0018 	lw	ra,24(sp)
    44dc:	8fb10014 	lw	s1,20(sp)
    44e0:	8fb00010 	lw	s0,16(sp)
    44e4:	03e00008 	jr	ra
    44e8:	27bd0020 	addiu	sp,sp,32
    44ec:	3c028000 	lui	v0,0x8000
    44f0:	9443007c 	lhu	v1,124(v0)
    44f4:	3c028008 	lui	v0,0x8008
    44f8:	34460100 	ori	a2,v0,0x100
    44fc:	308400ff 	andi	a0,a0,0xff
    4500:	3065ffff 	andi	a1,v1,0xffff
    4504:	24020005 	li	v0,5
    4508:	24a34650 	addiu	v1,a1,18000
    450c:	a0c4000c 	sb	a0,12(a2)
    4510:	5482000c 	bnel	a0,v0,0x4544
    4514:	3065ffff 	andi	a1,v1,0xffff
    4518:	90c2000d 	lbu	v0,13(a2)
    451c:	2c420007 	sltiu	v0,v0,7
    4520:	10400007 	beqz	v0,0x4540
    4524:	24a30a00 	addiu	v1,a1,2560
    4528:	90c3000d 	lbu	v1,13(a2)
    452c:	24020014 	li	v0,20
    4530:	00621004 	sllv	v0,v0,v1
    4534:	00a21021 	addu	v0,a1,v0
    4538:	0a00111f 	j	0x800447c
    453c:	3045ffff 	andi	a1,v0,0xffff
    4540:	3065ffff 	andi	a1,v1,0xffff
    4544:	3c028008 	lui	v0,0x8008
    4548:	34420080 	ori	v0,v0,0x80
    454c:	03e00008 	jr	ra
    4550:	a4450014 	sh	a1,20(v0)
    4554:	3c038008 	lui	v1,0x8008
    4558:	34680080 	ori	t0,v1,0x80
    455c:	ad050038 	sw	a1,56(t0)
    4560:	34670100 	ori	a3,v1,0x100
    4564:	8ce2001c 	lw	v0,28(a3)
    4568:	308400ff 	andi	a0,a0,0xff
    456c:	00a21023 	subu	v0,a1,v0
    4570:	18400003 	blez	v0,0x4580
    4574:	30c600ff 	andi	a2,a2,0xff
    4578:	24a2fffc 	addiu	v0,a1,-4
    457c:	ace2001c 	sw	v0,28(a3)
    4580:	30820001 	andi	v0,a0,0x1
    4584:	50400008 	beqzl	v0,0x45a8
    4588:	3c038008 	lui	v1,0x8008
    458c:	8d02003c 	lw	v0,60(t0)
    4590:	00a21023 	subu	v0,a1,v0
    4594:	04410012 	bgez	v0,0x45e0
    4598:	24040005 	li	a0,5
    459c:	8c620004 	lw	v0,4(v1)
    45a0:	10a2000f 	beq	a1,v0,0x45e0
    45a4:	3c038008 	lui	v1,0x8008
    45a8:	8c620004 	lw	v0,4(v1)
    45ac:	14a2001e 	bne	a1,v0,0x4628
    45b0:	00000000 	nop
    45b4:	3c020800 	lui	v0,0x800
    45b8:	8c4200d8 	lw	v0,216(v0)
    45bc:	30420020 	andi	v0,v0,0x20
    45c0:	10400009 	beqz	v0,0x45e8
    45c4:	3c028008 	lui	v0,0x8008
    45c8:	34620080 	ori	v0,v1,0x80
    45cc:	90630008 	lbu	v1,8(v1)
    45d0:	9042004c 	lbu	v0,76(v0)
    45d4:	14430004 	bne	v0,v1,0x45e8
    45d8:	3c028008 	lui	v0,0x8008
    45dc:	24040004 	li	a0,4
    45e0:	0a001109 	j	0x8004424
    45e4:	00000000 	nop
    45e8:	34430080 	ori	v1,v0,0x80
    45ec:	34420100 	ori	v0,v0,0x100
    45f0:	a040000c 	sb	zero,12(v0)
    45f4:	24020001 	li	v0,1
    45f8:	a4620014 	sh	v0,20(v1)
    45fc:	10c0000a 	beqz	a2,0x4628
    4600:	3c028000 	lui	v0,0x8000
    4604:	8c440100 	lw	a0,256(v0)
    4608:	3c038000 	lui	v1,0x8000
    460c:	8c6201f8 	lw	v0,504(v1)
    4610:	0440fffe 	bltz	v0,0x460c
    4614:	24020002 	li	v0,2
    4618:	ac6401c0 	sw	a0,448(v1)
    461c:	a06201c4 	sb	v0,452(v1)
    4620:	3c021000 	lui	v0,0x1000
    4624:	ac6201f8 	sw	v0,504(v1)
    4628:	03e00008 	jr	ra
    462c:	00000000 	nop
    4630:	27bdffe8 	addiu	sp,sp,-24
    4634:	00a61823 	subu	v1,a1,a2
    4638:	afbf0010 	sw	ra,16(sp)
    463c:	18600080 	blez	v1,0x4840
    4640:	308800ff 	andi	t0,a0,0xff
    4644:	3c028008 	lui	v0,0x8008
    4648:	34470080 	ori	a3,v0,0x80
    464c:	a0e00024 	sb	zero,36(a3)
    4650:	34440100 	ori	a0,v0,0x100
    4654:	a0e00027 	sb	zero,39(a3)
    4658:	8c82001c 	lw	v0,28(a0)
    465c:	00a21023 	subu	v0,a1,v0
    4660:	04400056 	bltz	v0,0x47bc
    4664:	00000000 	nop
    4668:	8ce2003c 	lw	v0,60(a3)
    466c:	94e3005c 	lhu	v1,92(a3)
    4670:	8ce4002c 	lw	a0,44(a3)
    4674:	00453023 	subu	a2,v0,a1
    4678:	3063ffff 	andi	v1,v1,0xffff
    467c:	00c31821 	addu	v1,a2,v1
    4680:	0083202b 	sltu	a0,a0,v1
    4684:	10800004 	beqz	a0,0x4698
    4688:	00e01821 	move	v1,a3
    468c:	8ce2002c 	lw	v0,44(a3)
    4690:	0a001178 	j	0x80045e0
    4694:	00a21021 	addu	v0,a1,v0
    4698:	94e2005c 	lhu	v0,92(a3)
    469c:	3042ffff 	andi	v0,v0,0xffff
    46a0:	00c21021 	addu	v0,a2,v0
    46a4:	00a21021 	addu	v0,a1,v0
    46a8:	ac62001c 	sw	v0,28(v1)
    46ac:	3c028008 	lui	v0,0x8008
    46b0:	34440080 	ori	a0,v0,0x80
    46b4:	9482005c 	lhu	v0,92(a0)
    46b8:	8c83001c 	lw	v1,28(a0)
    46bc:	3042ffff 	andi	v0,v0,0xffff
    46c0:	00021040 	sll	v0,v0,0x1
    46c4:	00a21021 	addu	v0,a1,v0
    46c8:	0043102b 	sltu	v0,v0,v1
    46cc:	10400004 	beqz	v0,0x46e0
    46d0:	00000000 	nop
    46d4:	8c82001c 	lw	v0,28(a0)
    46d8:	0a00118b 	j	0x800462c
    46dc:	3c068008 	lui	a2,0x8008
    46e0:	9482005c 	lhu	v0,92(a0)
    46e4:	3042ffff 	andi	v0,v0,0xffff
    46e8:	00021040 	sll	v0,v0,0x1
    46ec:	00a21021 	addu	v0,a1,v0
    46f0:	3c068008 	lui	a2,0x8008
    46f4:	34c30100 	ori	v1,a2,0x100
    46f8:	34c70080 	ori	a3,a2,0x80
    46fc:	ac82001c 	sw	v0,28(a0)
    4700:	a060000c 	sb	zero,12(v1)
    4704:	ace50038 	sw	a1,56(a3)
    4708:	8c62001c 	lw	v0,28(v1)
    470c:	00a21023 	subu	v0,a1,v0
    4710:	18400002 	blez	v0,0x471c
    4714:	24a2fffc 	addiu	v0,a1,-4
    4718:	ac62001c 	sw	v0,28(v1)
    471c:	31020001 	andi	v0,t0,0x1
    4720:	10400008 	beqz	v0,0x4744
    4724:	3c038008 	lui	v1,0x8008
    4728:	8ce2003c 	lw	v0,60(a3)
    472c:	00a21023 	subu	v0,a1,v0
    4730:	04410012 	bgez	v0,0x477c
    4734:	24040005 	li	a0,5
    4738:	8cc20004 	lw	v0,4(a2)
    473c:	10a20010 	beq	a1,v0,0x4780
    4740:	8fbf0010 	lw	ra,16(sp)
    4744:	8c620004 	lw	v0,4(v1)
    4748:	14a2004f 	bne	a1,v0,0x4888
    474c:	8fbf0010 	lw	ra,16(sp)
    4750:	3c020800 	lui	v0,0x800
    4754:	8c4200d8 	lw	v0,216(v0)
    4758:	30420020 	andi	v0,v0,0x20
    475c:	1040000a 	beqz	v0,0x4788
    4760:	3c028008 	lui	v0,0x8008
    4764:	34620080 	ori	v0,v1,0x80
    4768:	90630008 	lbu	v1,8(v1)
    476c:	9042004c 	lbu	v0,76(v0)
    4770:	14430005 	bne	v0,v1,0x4788
    4774:	3c028008 	lui	v0,0x8008
    4778:	24040004 	li	a0,4
    477c:	8fbf0010 	lw	ra,16(sp)
    4780:	0a001109 	j	0x8004424
    4784:	27bd0018 	addiu	sp,sp,24
    4788:	34430080 	ori	v1,v0,0x80
    478c:	34420100 	ori	v0,v0,0x100
    4790:	a040000c 	sb	zero,12(v0)
    4794:	24020001 	li	v0,1
    4798:	a4620014 	sh	v0,20(v1)
    479c:	3c028000 	lui	v0,0x8000
    47a0:	8c440100 	lw	a0,256(v0)
    47a4:	3c038000 	lui	v1,0x8000
    47a8:	8c6201f8 	lw	v0,504(v1)
    47ac:	0440fffe 	bltz	v0,0x47a8
    47b0:	24020002 	li	v0,2
    47b4:	0a0011d8 	j	0x8004760
    47b8:	00000000 	nop
    47bc:	8ce2001c 	lw	v0,28(a3)
    47c0:	00461023 	subu	v0,v0,a2
    47c4:	0043102b 	sltu	v0,v0,v1
    47c8:	54400001 	bnezl	v0,0x47d0
    47cc:	ace5001c 	sw	a1,28(a3)
    47d0:	94e2005c 	lhu	v0,92(a3)
    47d4:	3042ffff 	andi	v0,v0,0xffff
    47d8:	0062102b 	sltu	v0,v1,v0
    47dc:	14400007 	bnez	v0,0x47fc
    47e0:	24020002 	li	v0,2
    47e4:	94e2005c 	lhu	v0,92(a3)
    47e8:	8ce3001c 	lw	v1,28(a3)
    47ec:	3042ffff 	andi	v0,v0,0xffff
    47f0:	00621821 	addu	v1,v1,v0
    47f4:	ace3001c 	sw	v1,28(a3)
    47f8:	24020002 	li	v0,2
    47fc:	ace50038 	sw	a1,56(a3)
    4800:	0e000f5e 	jal	0x8003d78
    4804:	a082000c 	sb	v0,12(a0)
    4808:	1040001f 	beqz	v0,0x4888
    480c:	8fbf0010 	lw	ra,16(sp)
    4810:	3c028000 	lui	v0,0x8000
    4814:	8c440100 	lw	a0,256(v0)
    4818:	3c038000 	lui	v1,0x8000
    481c:	8c6201f8 	lw	v0,504(v1)
    4820:	0440fffe 	bltz	v0,0x481c
    4824:	24020002 	li	v0,2
    4828:	ac6401c0 	sw	a0,448(v1)
    482c:	a06201c4 	sb	v0,452(v1)
    4830:	3c021000 	lui	v0,0x1000
    4834:	ac6201f8 	sw	v0,504(v1)
    4838:	0a0011f0 	j	0x80047c0
    483c:	8fbf0010 	lw	ra,16(sp)
    4840:	31020010 	andi	v0,t0,0x10
    4844:	10400010 	beqz	v0,0x4888
    4848:	8fbf0010 	lw	ra,16(sp)
    484c:	3c028008 	lui	v0,0x8008
    4850:	34450080 	ori	a1,v0,0x80
    4854:	8ca3001c 	lw	v1,28(a1)
    4858:	94a2005c 	lhu	v0,92(a1)
    485c:	00661823 	subu	v1,v1,a2
    4860:	3042ffff 	andi	v0,v0,0xffff
    4864:	00621821 	addu	v1,v1,v0
    4868:	3c023fff 	lui	v0,0x3fff
    486c:	3444ffff 	ori	a0,v0,0xffff
    4870:	0083102b 	sltu	v0,a0,v1
    4874:	54400001 	bnezl	v0,0x487c
    4878:	00801821 	move	v1,a0
    487c:	00c31021 	addu	v0,a2,v1
    4880:	aca2001c 	sw	v0,28(a1)
    4884:	8fbf0010 	lw	ra,16(sp)
    4888:	03e00008 	jr	ra
    488c:	27bd0018 	addiu	sp,sp,24
    4890:	27bdffe8 	addiu	sp,sp,-24
    4894:	00c04021 	move	t0,a2
    4898:	00a63023 	subu	a2,a1,a2
    489c:	afbf0010 	sw	ra,16(sp)
    48a0:	18c00026 	blez	a2,0x493c
    48a4:	308a00ff 	andi	t2,a0,0xff
    48a8:	3c028008 	lui	v0,0x8008
    48ac:	34490080 	ori	t1,v0,0x80
    48b0:	8d24001c 	lw	a0,28(t1)
    48b4:	8d23002c 	lw	v1,44(t1)
    48b8:	00882023 	subu	a0,a0,t0
    48bc:	0064182b 	sltu	v1,v1,a0
    48c0:	1060000f 	beqz	v1,0x4900
    48c4:	34470100 	ori	a3,v0,0x100
    48c8:	8ce20020 	lw	v0,32(a3)
    48cc:	00461021 	addu	v0,v0,a2
    48d0:	ace20020 	sw	v0,32(a3)
    48d4:	8ce20020 	lw	v0,32(a3)
    48d8:	0044102b 	sltu	v0,v0,a0
    48dc:	1440000b 	bnez	v0,0x490c
    48e0:	3c023fff 	lui	v0,0x3fff
    48e4:	8ce20020 	lw	v0,32(a3)
    48e8:	00441023 	subu	v0,v0,a0
    48ec:	ace20020 	sw	v0,32(a3)
    48f0:	9522005c 	lhu	v0,92(t1)
    48f4:	3042ffff 	andi	v0,v0,0xffff
    48f8:	0a001210 	j	0x8004840
    48fc:	00822021 	addu	a0,a0,v0
    4900:	ace00020 	sw	zero,32(a3)
    4904:	00862021 	addu	a0,a0,a2
    4908:	3c023fff 	lui	v0,0x3fff
    490c:	3443ffff 	ori	v1,v0,0xffff
    4910:	0064102b 	sltu	v0,v1,a0
    4914:	54400001 	bnezl	v0,0x491c
    4918:	00602021 	move	a0,v1
    491c:	3c028008 	lui	v0,0x8008
    4920:	34420080 	ori	v0,v0,0x80
    4924:	00851821 	addu	v1,a0,a1
    4928:	ac43001c 	sw	v1,28(v0)
    492c:	a0400024 	sb	zero,36(v0)
    4930:	a0400027 	sb	zero,39(v0)
    4934:	0a001262 	j	0x8004988
    4938:	3c038008 	lui	v1,0x8008
    493c:	31420010 	andi	v0,t2,0x10
    4940:	10400043 	beqz	v0,0x4a50
    4944:	3c038008 	lui	v1,0x8008
    4948:	3c068008 	lui	a2,0x8008
    494c:	34c40080 	ori	a0,a2,0x80
    4950:	8c82003c 	lw	v0,60(a0)
    4954:	00481023 	subu	v0,v0,t0
    4958:	5840003e 	blezl	v0,0x4a54
    495c:	34660080 	ori	a2,v1,0x80
    4960:	90820024 	lbu	v0,36(a0)
    4964:	24420001 	addiu	v0,v0,1
    4968:	a0820024 	sb	v0,36(a0)
    496c:	90820024 	lbu	v0,36(a0)
    4970:	3c030800 	lui	v1,0x800
    4974:	8c630024 	lw	v1,36(v1)
    4978:	304200ff 	andi	v0,v0,0xff
    497c:	0043102b 	sltu	v0,v0,v1
    4980:	14400068 	bnez	v0,0x4b24
    4984:	8fbf0010 	lw	ra,16(sp)
    4988:	34c20100 	ori	v0,a2,0x100
    498c:	8c42001c 	lw	v0,28(v0)
    4990:	00a21023 	subu	v0,a1,v0
    4994:	18400063 	blez	v0,0x4b24
    4998:	00000000 	nop
    499c:	8cc30004 	lw	v1,4(a2)
    49a0:	9482005c 	lhu	v0,92(a0)
    49a4:	00681823 	subu	v1,v1,t0
    49a8:	3042ffff 	andi	v0,v0,0xffff
    49ac:	00031843 	sra	v1,v1,0x1
    49b0:	00021040 	sll	v0,v0,0x1
    49b4:	0043102a 	slt	v0,v0,v1
    49b8:	10400005 	beqz	v0,0x49d0
    49bc:	00000000 	nop
    49c0:	8cc20004 	lw	v0,4(a2)
    49c4:	00481023 	subu	v0,v0,t0
    49c8:	0a001245 	j	0x8004914
    49cc:	00021043 	sra	v0,v0,0x1
    49d0:	9482005c 	lhu	v0,92(a0)
    49d4:	3042ffff 	andi	v0,v0,0xffff
    49d8:	00021040 	sll	v0,v0,0x1
    49dc:	3c068008 	lui	a2,0x8008
    49e0:	ac82002c 	sw	v0,44(a0)
    49e4:	34c50080 	ori	a1,a2,0x80
    49e8:	94a2005c 	lhu	v0,92(a1)
    49ec:	8ca4002c 	lw	a0,44(a1)
    49f0:	94a3005c 	lhu	v1,92(a1)
    49f4:	3042ffff 	andi	v0,v0,0xffff
    49f8:	00021040 	sll	v0,v0,0x1
    49fc:	00822021 	addu	a0,a0,v0
    4a00:	3063ffff 	andi	v1,v1,0xffff
    4a04:	00832021 	addu	a0,a0,v1
    4a08:	01041021 	addu	v0,t0,a0
    4a0c:	aca2001c 	sw	v0,28(a1)
    4a10:	8cc20004 	lw	v0,4(a2)
    4a14:	34c60100 	ori	a2,a2,0x100
    4a18:	acc2001c 	sw	v0,28(a2)
    4a1c:	24020002 	li	v0,2
    4a20:	0e000f5e 	jal	0x8003d78
    4a24:	a0c2000c 	sb	v0,12(a2)
    4a28:	1040003e 	beqz	v0,0x4b24
    4a2c:	8fbf0010 	lw	ra,16(sp)
    4a30:	3c028000 	lui	v0,0x8000
    4a34:	8c440100 	lw	a0,256(v0)
    4a38:	3c038000 	lui	v1,0x8000
    4a3c:	8c6201f8 	lw	v0,504(v1)
    4a40:	0440fffe 	bltz	v0,0x4a3c
    4a44:	24020002 	li	v0,2
    4a48:	0a001292 	j	0x8004a48
    4a4c:	00000000 	nop
    4a50:	34660080 	ori	a2,v1,0x80
    4a54:	acc50038 	sw	a1,56(a2)
    4a58:	34640100 	ori	a0,v1,0x100
    4a5c:	8c82001c 	lw	v0,28(a0)
    4a60:	00a21023 	subu	v0,a1,v0
    4a64:	18400002 	blez	v0,0x4a70
    4a68:	24a2fffc 	addiu	v0,a1,-4
    4a6c:	ac82001c 	sw	v0,28(a0)
    4a70:	31420001 	andi	v0,t2,0x1
    4a74:	5040000a 	beqzl	v0,0x4aa0
    4a78:	3c038008 	lui	v1,0x8008
    4a7c:	8cc2003c 	lw	v0,60(a2)
    4a80:	00a21023 	subu	v0,a1,v0
    4a84:	04430014 	bgezl	v0,0x4ad8
    4a88:	24040005 	li	a0,5
    4a8c:	8c620004 	lw	v0,4(v1)
    4a90:	14a20003 	bne	a1,v0,0x4aa0
    4a94:	3c038008 	lui	v1,0x8008
    4a98:	0a001284 	j	0x8004a10
    4a9c:	24040005 	li	a0,5
    4aa0:	8c620004 	lw	v0,4(v1)
    4aa4:	14a2001f 	bne	a1,v0,0x4b24
    4aa8:	8fbf0010 	lw	ra,16(sp)
    4aac:	3c020800 	lui	v0,0x800
    4ab0:	8c4200d8 	lw	v0,216(v0)
    4ab4:	30420020 	andi	v0,v0,0x20
    4ab8:	1040000a 	beqz	v0,0x4ae4
    4abc:	3c028008 	lui	v0,0x8008
    4ac0:	34620080 	ori	v0,v1,0x80
    4ac4:	90630008 	lbu	v1,8(v1)
    4ac8:	9042004c 	lbu	v0,76(v0)
    4acc:	14430005 	bne	v0,v1,0x4ae4
    4ad0:	3c028008 	lui	v0,0x8008
    4ad4:	24040004 	li	a0,4
    4ad8:	8fbf0010 	lw	ra,16(sp)
    4adc:	0a001109 	j	0x8004424
    4ae0:	27bd0018 	addiu	sp,sp,24
    4ae4:	34430080 	ori	v1,v0,0x80
    4ae8:	34420100 	ori	v0,v0,0x100
    4aec:	a040000c 	sb	zero,12(v0)
    4af0:	24020001 	li	v0,1
    4af4:	a4620014 	sh	v0,20(v1)
    4af8:	3c028000 	lui	v0,0x8000
    4afc:	8c440100 	lw	a0,256(v0)
    4b00:	3c038000 	lui	v1,0x8000
    4b04:	8c6201f8 	lw	v0,504(v1)
    4b08:	0440fffe 	bltz	v0,0x4b04
    4b0c:	24020002 	li	v0,2
    4b10:	ac6401c0 	sw	a0,448(v1)
    4b14:	a06201c4 	sb	v0,452(v1)
    4b18:	3c021000 	lui	v0,0x1000
    4b1c:	ac6201f8 	sw	v0,504(v1)
    4b20:	8fbf0010 	lw	ra,16(sp)
    4b24:	03e00008 	jr	ra
    4b28:	27bd0018 	addiu	sp,sp,24
    4b2c:	27bdffe8 	addiu	sp,sp,-24
    4b30:	3c0a8008 	lui	t2,0x8008
    4b34:	afbf0010 	sw	ra,16(sp)
    4b38:	35490080 	ori	t1,t2,0x80
    4b3c:	8d22003c 	lw	v0,60(t1)
    4b40:	00c04021 	move	t0,a2
    4b44:	308400ff 	andi	a0,a0,0xff
    4b48:	00461023 	subu	v0,v0,a2
    4b4c:	1840009d 	blez	v0,0x4dc4
    4b50:	30e700ff 	andi	a3,a3,0xff
    4b54:	35470100 	ori	a3,t2,0x100
    4b58:	24020001 	li	v0,1
    4b5c:	00a63023 	subu	a2,a1,a2
    4b60:	a0e0000c 	sb	zero,12(a3)
    4b64:	a0e0000d 	sb	zero,13(a3)
    4b68:	a5220014 	sh	v0,20(t1)
    4b6c:	18c00024 	blez	a2,0x4c00
    4b70:	30820010 	andi	v0,a0,0x10
    4b74:	8d23001c 	lw	v1,28(t1)
    4b78:	8d22002c 	lw	v0,44(t1)
    4b7c:	00681823 	subu	v1,v1,t0
    4b80:	0043102b 	sltu	v0,v0,v1
    4b84:	1040000f 	beqz	v0,0x4bc4
    4b88:	00000000 	nop
    4b8c:	8ce20020 	lw	v0,32(a3)
    4b90:	00461021 	addu	v0,v0,a2
    4b94:	ace20020 	sw	v0,32(a3)
    4b98:	8ce20020 	lw	v0,32(a3)
    4b9c:	0043102b 	sltu	v0,v0,v1
    4ba0:	1440000b 	bnez	v0,0x4bd0
    4ba4:	3c023fff 	lui	v0,0x3fff
    4ba8:	8ce20020 	lw	v0,32(a3)
    4bac:	00431023 	subu	v0,v0,v1
    4bb0:	ace20020 	sw	v0,32(a3)
    4bb4:	9522005c 	lhu	v0,92(t1)
    4bb8:	3042ffff 	andi	v0,v0,0xffff
    4bbc:	0a0012c1 	j	0x8004b04
    4bc0:	00621821 	addu	v1,v1,v0
    4bc4:	ace00020 	sw	zero,32(a3)
    4bc8:	00661821 	addu	v1,v1,a2
    4bcc:	3c023fff 	lui	v0,0x3fff
    4bd0:	3446ffff 	ori	a2,v0,0xffff
    4bd4:	00c3102b 	sltu	v0,a2,v1
    4bd8:	54400001 	bnezl	v0,0x4be0
    4bdc:	00c01821 	move	v1,a2
    4be0:	3c028008 	lui	v0,0x8008
    4be4:	34420080 	ori	v0,v0,0x80
    4be8:	00651821 	addu	v1,v1,a1
    4bec:	ac43001c 	sw	v1,28(v0)
    4bf0:	a0400024 	sb	zero,36(v0)
    4bf4:	a0400027 	sb	zero,39(v0)
    4bf8:	0a00130f 	j	0x8004c3c
    4bfc:	3c038008 	lui	v1,0x8008
    4c00:	10400040 	beqz	v0,0x4d04
    4c04:	3c038008 	lui	v1,0x8008
    4c08:	8d22003c 	lw	v0,60(t1)
    4c0c:	00481023 	subu	v0,v0,t0
    4c10:	5840003d 	blezl	v0,0x4d08
    4c14:	34670080 	ori	a3,v1,0x80
    4c18:	91220024 	lbu	v0,36(t1)
    4c1c:	24420001 	addiu	v0,v0,1
    4c20:	a1220024 	sb	v0,36(t1)
    4c24:	91220024 	lbu	v0,36(t1)
    4c28:	3c030800 	lui	v1,0x800
    4c2c:	8c630024 	lw	v1,36(v1)
    4c30:	304200ff 	andi	v0,v0,0xff
    4c34:	0043102b 	sltu	v0,v0,v1
    4c38:	1440009a 	bnez	v0,0x4ea4
    4c3c:	8fbf0010 	lw	ra,16(sp)
    4c40:	8ce2001c 	lw	v0,28(a3)
    4c44:	00a21023 	subu	v0,a1,v0
    4c48:	18400096 	blez	v0,0x4ea4
    4c4c:	00000000 	nop
    4c50:	8d430004 	lw	v1,4(t2)
    4c54:	9522005c 	lhu	v0,92(t1)
    4c58:	00681823 	subu	v1,v1,t0
    4c5c:	3042ffff 	andi	v0,v0,0xffff
    4c60:	00031843 	sra	v1,v1,0x1
    4c64:	00021040 	sll	v0,v0,0x1
    4c68:	0043102a 	slt	v0,v0,v1
    4c6c:	10400005 	beqz	v0,0x4c84
    4c70:	01202021 	move	a0,t1
    4c74:	8d420004 	lw	v0,4(t2)
    4c78:	00481023 	subu	v0,v0,t0
    4c7c:	0a0012f2 	j	0x8004bc8
    4c80:	00021043 	sra	v0,v0,0x1
    4c84:	9522005c 	lhu	v0,92(t1)
    4c88:	3042ffff 	andi	v0,v0,0xffff
    4c8c:	00021040 	sll	v0,v0,0x1
    4c90:	3c068008 	lui	a2,0x8008
    4c94:	ac82002c 	sw	v0,44(a0)
    4c98:	34c50080 	ori	a1,a2,0x80
    4c9c:	94a2005c 	lhu	v0,92(a1)
    4ca0:	8ca4002c 	lw	a0,44(a1)
    4ca4:	94a3005c 	lhu	v1,92(a1)
    4ca8:	3042ffff 	andi	v0,v0,0xffff
    4cac:	00021040 	sll	v0,v0,0x1
    4cb0:	00822021 	addu	a0,a0,v0
    4cb4:	3063ffff 	andi	v1,v1,0xffff
    4cb8:	00831821 	addu	v1,a0,v1
    4cbc:	01031021 	addu	v0,t0,v1
    4cc0:	aca2001c 	sw	v0,28(a1)
    4cc4:	8cc20004 	lw	v0,4(a2)
    4cc8:	34c60100 	ori	a2,a2,0x100
    4ccc:	acc2001c 	sw	v0,28(a2)
    4cd0:	24020002 	li	v0,2
    4cd4:	0e000f5e 	jal	0x8003d78
    4cd8:	a0c2000c 	sb	v0,12(a2)
    4cdc:	10400071 	beqz	v0,0x4ea4
    4ce0:	8fbf0010 	lw	ra,16(sp)
    4ce4:	3c028000 	lui	v0,0x8000
    4ce8:	8c440100 	lw	a0,256(v0)
    4cec:	3c038000 	lui	v1,0x8000
    4cf0:	8c6201f8 	lw	v0,504(v1)
    4cf4:	0440fffe 	bltz	v0,0x4cf0
    4cf8:	24020002 	li	v0,2
    4cfc:	0a001339 	j	0x8004ce4
    4d00:	00000000 	nop
    4d04:	34670080 	ori	a3,v1,0x80
    4d08:	ace50038 	sw	a1,56(a3)
    4d0c:	34660100 	ori	a2,v1,0x100
    4d10:	8cc2001c 	lw	v0,28(a2)
    4d14:	00a21023 	subu	v0,a1,v0
    4d18:	18400002 	blez	v0,0x4d24
    4d1c:	24a2fffc 	addiu	v0,a1,-4
    4d20:	acc2001c 	sw	v0,28(a2)
    4d24:	30820001 	andi	v0,a0,0x1
    4d28:	50400008 	beqzl	v0,0x4d4c
    4d2c:	3c038008 	lui	v1,0x8008
    4d30:	8ce2003c 	lw	v0,60(a3)
    4d34:	00a21023 	subu	v0,a1,v0
    4d38:	04430051 	bgezl	v0,0x4e80
    4d3c:	24040005 	li	a0,5
    4d40:	8c620004 	lw	v0,4(v1)
    4d44:	10a2003e 	beq	a1,v0,0x4e40
    4d48:	3c038008 	lui	v1,0x8008
    4d4c:	8c620004 	lw	v0,4(v1)
    4d50:	54a20054 	bnel	a1,v0,0x4ea4
    4d54:	8fbf0010 	lw	ra,16(sp)
    4d58:	3c020800 	lui	v0,0x800
    4d5c:	8c4200d8 	lw	v0,216(v0)
    4d60:	30420020 	andi	v0,v0,0x20
    4d64:	10400006 	beqz	v0,0x4d80
    4d68:	3c028008 	lui	v0,0x8008
    4d6c:	34620080 	ori	v0,v1,0x80
    4d70:	90630008 	lbu	v1,8(v1)
    4d74:	9042004c 	lbu	v0,76(v0)
    4d78:	10430040 	beq	v0,v1,0x4e7c
    4d7c:	3c028008 	lui	v0,0x8008
    4d80:	34430080 	ori	v1,v0,0x80
    4d84:	34420100 	ori	v0,v0,0x100
    4d88:	a040000c 	sb	zero,12(v0)
    4d8c:	24020001 	li	v0,1
    4d90:	a4620014 	sh	v0,20(v1)
    4d94:	3c028000 	lui	v0,0x8000
    4d98:	8c440100 	lw	a0,256(v0)
    4d9c:	3c038000 	lui	v1,0x8000
    4da0:	8c6201f8 	lw	v0,504(v1)
    4da4:	0440fffe 	bltz	v0,0x4da0
    4da8:	24020002 	li	v0,2
    4dac:	ac6401c0 	sw	a0,448(v1)
    4db0:	a06201c4 	sb	v0,452(v1)
    4db4:	3c021000 	lui	v0,0x1000
    4db8:	ac6201f8 	sw	v0,504(v1)
    4dbc:	0a001377 	j	0x8004ddc
    4dc0:	8fbf0010 	lw	ra,16(sp)
    4dc4:	24020005 	li	v0,5
    4dc8:	a1200027 	sb	zero,39(t1)
    4dcc:	14e2000a 	bne	a3,v0,0x4df8
    4dd0:	3c038008 	lui	v1,0x8008
    4dd4:	35430100 	ori	v1,t2,0x100
    4dd8:	9062000d 	lbu	v0,13(v1)
    4ddc:	2c420006 	sltiu	v0,v0,6
    4de0:	50400005 	beqzl	v0,0x4df8
    4de4:	3c038008 	lui	v1,0x8008
    4de8:	9062000d 	lbu	v0,13(v1)
    4dec:	24420001 	addiu	v0,v0,1
    4df0:	a062000d 	sb	v0,13(v1)
    4df4:	3c038008 	lui	v1,0x8008
    4df8:	34670080 	ori	a3,v1,0x80
    4dfc:	ace50038 	sw	a1,56(a3)
    4e00:	34660100 	ori	a2,v1,0x100
    4e04:	8cc2001c 	lw	v0,28(a2)
    4e08:	00a21023 	subu	v0,a1,v0
    4e0c:	18400002 	blez	v0,0x4e18
    4e10:	24a2fffc 	addiu	v0,a1,-4
    4e14:	acc2001c 	sw	v0,28(a2)
    4e18:	30820001 	andi	v0,a0,0x1
    4e1c:	5040000a 	beqzl	v0,0x4e48
    4e20:	3c038008 	lui	v1,0x8008
    4e24:	8ce2003c 	lw	v0,60(a3)
    4e28:	00a21023 	subu	v0,a1,v0
    4e2c:	04410014 	bgez	v0,0x4e80
    4e30:	24040005 	li	a0,5
    4e34:	8c620004 	lw	v0,4(v1)
    4e38:	14a20003 	bne	a1,v0,0x4e48
    4e3c:	3c038008 	lui	v1,0x8008
    4e40:	0a00136e 	j	0x8004db8
    4e44:	24040005 	li	a0,5
    4e48:	8c620004 	lw	v0,4(v1)
    4e4c:	14a20015 	bne	a1,v0,0x4ea4
    4e50:	8fbf0010 	lw	ra,16(sp)
    4e54:	3c020800 	lui	v0,0x800
    4e58:	8c4200d8 	lw	v0,216(v0)
    4e5c:	30420020 	andi	v0,v0,0x20
    4e60:	1040000a 	beqz	v0,0x4e8c
    4e64:	3c028008 	lui	v0,0x8008
    4e68:	34620080 	ori	v0,v1,0x80
    4e6c:	90630008 	lbu	v1,8(v1)
    4e70:	9042004c 	lbu	v0,76(v0)
    4e74:	14430005 	bne	v0,v1,0x4e8c
    4e78:	3c028008 	lui	v0,0x8008
    4e7c:	24040004 	li	a0,4
    4e80:	8fbf0010 	lw	ra,16(sp)
    4e84:	0a001109 	j	0x8004424
    4e88:	27bd0018 	addiu	sp,sp,24
    4e8c:	34430080 	ori	v1,v0,0x80
    4e90:	34420100 	ori	v0,v0,0x100
    4e94:	a040000c 	sb	zero,12(v0)
    4e98:	24020001 	li	v0,1
    4e9c:	a4620014 	sh	v0,20(v1)
    4ea0:	8fbf0010 	lw	ra,16(sp)
    4ea4:	03e00008 	jr	ra
    4ea8:	27bd0018 	addiu	sp,sp,24
    4eac:	3c0b8008 	lui	t3,0x8008
    4eb0:	27bdffe8 	addiu	sp,sp,-24
    4eb4:	3c028000 	lui	v0,0x8000
    4eb8:	afbf0010 	sw	ra,16(sp)
    4ebc:	34420100 	ori	v0,v0,0x100
    4ec0:	356a0080 	ori	t2,t3,0x80
    4ec4:	9044000a 	lbu	a0,10(v0)
    4ec8:	35690100 	ori	t1,t3,0x100
    4ecc:	8c450014 	lw	a1,20(v0)
    4ed0:	8d480038 	lw	t0,56(t2)
    4ed4:	9123000c 	lbu	v1,12(t1)
    4ed8:	308400ff 	andi	a0,a0,0xff
    4edc:	01051023 	subu	v0,t0,a1
    4ee0:	1c4000b3 	bgtz	v0,0x51b0
    4ee4:	306700ff 	andi	a3,v1,0xff
    4ee8:	2ce20006 	sltiu	v0,a3,6
    4eec:	504000b1 	beqzl	v0,0x51b4
    4ef0:	8fbf0010 	lw	ra,16(sp)
    4ef4:	24020001 	li	v0,1
    4ef8:	00e23004 	sllv	a2,v0,a3
    4efc:	30c20003 	andi	v0,a2,0x3
    4f00:	54400008 	bnezl	v0,0x4f24
    4f04:	00a83023 	subu	a2,a1,t0
    4f08:	30c2000c 	andi	v0,a2,0xc
    4f0c:	144000a1 	bnez	v0,0x5194
    4f10:	30c20030 	andi	v0,a2,0x30
    4f14:	144000a3 	bnez	v0,0x51a4
    4f18:	8fbf0010 	lw	ra,16(sp)
    4f1c:	0a00143b 	j	0x80050ec
    4f20:	00000000 	nop
    4f24:	18c00024 	blez	a2,0x4fb8
    4f28:	30820010 	andi	v0,a0,0x10
    4f2c:	8d43001c 	lw	v1,28(t2)
    4f30:	8d42002c 	lw	v0,44(t2)
    4f34:	00681823 	subu	v1,v1,t0
    4f38:	0043102b 	sltu	v0,v0,v1
    4f3c:	1040000f 	beqz	v0,0x4f7c
    4f40:	00000000 	nop
    4f44:	8d220020 	lw	v0,32(t1)
    4f48:	00461021 	addu	v0,v0,a2
    4f4c:	ad220020 	sw	v0,32(t1)
    4f50:	8d220020 	lw	v0,32(t1)
    4f54:	0043102b 	sltu	v0,v0,v1
    4f58:	1440000b 	bnez	v0,0x4f88
    4f5c:	3c023fff 	lui	v0,0x3fff
    4f60:	8d220020 	lw	v0,32(t1)
    4f64:	00431023 	subu	v0,v0,v1
    4f68:	ad220020 	sw	v0,32(t1)
    4f6c:	9542005c 	lhu	v0,92(t2)
    4f70:	3042ffff 	andi	v0,v0,0xffff
    4f74:	0a0013af 	j	0x8004ebc
    4f78:	00621821 	addu	v1,v1,v0
    4f7c:	ad200020 	sw	zero,32(t1)
    4f80:	00661821 	addu	v1,v1,a2
    4f84:	3c023fff 	lui	v0,0x3fff
    4f88:	3446ffff 	ori	a2,v0,0xffff
    4f8c:	00c3102b 	sltu	v0,a2,v1
    4f90:	54400001 	bnezl	v0,0x4f98
    4f94:	00c01821 	move	v1,a2
    4f98:	3c028008 	lui	v0,0x8008
    4f9c:	34420080 	ori	v0,v0,0x80
    4fa0:	00651821 	addu	v1,v1,a1
    4fa4:	ac43001c 	sw	v1,28(v0)
    4fa8:	a0400024 	sb	zero,36(v0)
    4fac:	a0400027 	sb	zero,39(v0)
    4fb0:	0a0013fd 	j	0x8004ff4
    4fb4:	3c038008 	lui	v1,0x8008
    4fb8:	10400040 	beqz	v0,0x50bc
    4fbc:	3c038008 	lui	v1,0x8008
    4fc0:	8d42003c 	lw	v0,60(t2)
    4fc4:	00481023 	subu	v0,v0,t0
    4fc8:	1840003d 	blez	v0,0x50c0
    4fcc:	34670080 	ori	a3,v1,0x80
    4fd0:	91420024 	lbu	v0,36(t2)
    4fd4:	24420001 	addiu	v0,v0,1
    4fd8:	a1420024 	sb	v0,36(t2)
    4fdc:	91420024 	lbu	v0,36(t2)
    4fe0:	3c030800 	lui	v1,0x800
    4fe4:	8c630024 	lw	v1,36(v1)
    4fe8:	304200ff 	andi	v0,v0,0xff
    4fec:	0043102b 	sltu	v0,v0,v1
    4ff0:	14400070 	bnez	v0,0x51b4
    4ff4:	8fbf0010 	lw	ra,16(sp)
    4ff8:	8d22001c 	lw	v0,28(t1)
    4ffc:	00a21023 	subu	v0,a1,v0
    5000:	1840006c 	blez	v0,0x51b4
    5004:	00000000 	nop
    5008:	8d630004 	lw	v1,4(t3)
    500c:	9542005c 	lhu	v0,92(t2)
    5010:	00681823 	subu	v1,v1,t0
    5014:	3042ffff 	andi	v0,v0,0xffff
    5018:	00031843 	sra	v1,v1,0x1
    501c:	00021040 	sll	v0,v0,0x1
    5020:	0043102a 	slt	v0,v0,v1
    5024:	10400005 	beqz	v0,0x503c
    5028:	01402021 	move	a0,t2
    502c:	8d620004 	lw	v0,4(t3)
    5030:	00481023 	subu	v0,v0,t0
    5034:	0a0013e0 	j	0x8004f80
    5038:	00021043 	sra	v0,v0,0x1
    503c:	9542005c 	lhu	v0,92(t2)
    5040:	3042ffff 	andi	v0,v0,0xffff
    5044:	00021040 	sll	v0,v0,0x1
    5048:	3c068008 	lui	a2,0x8008
    504c:	ac82002c 	sw	v0,44(a0)
    5050:	34c50080 	ori	a1,a2,0x80
    5054:	94a2005c 	lhu	v0,92(a1)
    5058:	8ca4002c 	lw	a0,44(a1)
    505c:	94a3005c 	lhu	v1,92(a1)
    5060:	3042ffff 	andi	v0,v0,0xffff
    5064:	00021040 	sll	v0,v0,0x1
    5068:	00822021 	addu	a0,a0,v0
    506c:	3063ffff 	andi	v1,v1,0xffff
    5070:	00831821 	addu	v1,a0,v1
    5074:	01031021 	addu	v0,t0,v1
    5078:	aca2001c 	sw	v0,28(a1)
    507c:	8cc20004 	lw	v0,4(a2)
    5080:	34c60100 	ori	a2,a2,0x100
    5084:	acc2001c 	sw	v0,28(a2)
    5088:	24020002 	li	v0,2
    508c:	0e000f5e 	jal	0x8003d78
    5090:	a0c2000c 	sb	v0,12(a2)
    5094:	10400047 	beqz	v0,0x51b4
    5098:	8fbf0010 	lw	ra,16(sp)
    509c:	3c028000 	lui	v0,0x8000
    50a0:	8c440100 	lw	a0,256(v0)
    50a4:	3c038000 	lui	v1,0x8000
    50a8:	8c6201f8 	lw	v0,504(v1)
    50ac:	0440fffe 	bltz	v0,0x50a8
    50b0:	24020002 	li	v0,2
    50b4:	0a00142d 	j	0x80050b4
    50b8:	00000000 	nop
    50bc:	34670080 	ori	a3,v1,0x80
    50c0:	ace50038 	sw	a1,56(a3)
    50c4:	34660100 	ori	a2,v1,0x100
    50c8:	8cc2001c 	lw	v0,28(a2)
    50cc:	00a21023 	subu	v0,a1,v0
    50d0:	18400002 	blez	v0,0x50dc
    50d4:	24a2fffc 	addiu	v0,a1,-4
    50d8:	acc2001c 	sw	v0,28(a2)
    50dc:	30820001 	andi	v0,a0,0x1
    50e0:	5040000a 	beqzl	v0,0x510c
    50e4:	3c038008 	lui	v1,0x8008
    50e8:	8ce2003c 	lw	v0,60(a3)
    50ec:	00a21023 	subu	v0,a1,v0
    50f0:	04430014 	bgezl	v0,0x5144
    50f4:	24040005 	li	a0,5
    50f8:	8c620004 	lw	v0,4(v1)
    50fc:	14a20003 	bne	a1,v0,0x510c
    5100:	3c038008 	lui	v1,0x8008
    5104:	0a00141f 	j	0x800507c
    5108:	24040005 	li	a0,5
    510c:	8c620004 	lw	v0,4(v1)
    5110:	14a20028 	bne	a1,v0,0x51b4
    5114:	8fbf0010 	lw	ra,16(sp)
    5118:	3c020800 	lui	v0,0x800
    511c:	8c4200d8 	lw	v0,216(v0)
    5120:	30420020 	andi	v0,v0,0x20
    5124:	1040000a 	beqz	v0,0x5150
    5128:	3c028008 	lui	v0,0x8008
    512c:	34620080 	ori	v0,v1,0x80
    5130:	90630008 	lbu	v1,8(v1)
    5134:	9042004c 	lbu	v0,76(v0)
    5138:	14430005 	bne	v0,v1,0x5150
    513c:	3c028008 	lui	v0,0x8008
    5140:	24040004 	li	a0,4
    5144:	8fbf0010 	lw	ra,16(sp)
    5148:	0a001109 	j	0x8004424
    514c:	27bd0018 	addiu	sp,sp,24
    5150:	34430080 	ori	v1,v0,0x80
    5154:	34420100 	ori	v0,v0,0x100
    5158:	a040000c 	sb	zero,12(v0)
    515c:	24020001 	li	v0,1
    5160:	a4620014 	sh	v0,20(v1)
    5164:	3c028000 	lui	v0,0x8000
    5168:	8c440100 	lw	a0,256(v0)
    516c:	3c038000 	lui	v1,0x8000
    5170:	8c6201f8 	lw	v0,504(v1)
    5174:	0440fffe 	bltz	v0,0x5170
    5178:	24020002 	li	v0,2
    517c:	ac6401c0 	sw	a0,448(v1)
    5180:	a06201c4 	sb	v0,452(v1)
    5184:	3c021000 	lui	v0,0x1000
    5188:	ac6201f8 	sw	v0,504(v1)
    518c:	0a00143b 	j	0x80050ec
    5190:	8fbf0010 	lw	ra,16(sp)
    5194:	8fbf0010 	lw	ra,16(sp)
    5198:	01003021 	move	a2,t0
    519c:	0a00115a 	j	0x8004568
    51a0:	27bd0018 	addiu	sp,sp,24
    51a4:	01003021 	move	a2,t0
    51a8:	0a001299 	j	0x8004a64
    51ac:	27bd0018 	addiu	sp,sp,24
    51b0:	8fbf0010 	lw	ra,16(sp)
    51b4:	03e00008 	jr	ra
    51b8:	27bd0018 	addiu	sp,sp,24
    51bc:	3c038008 	lui	v1,0x8008
    51c0:	34640100 	ori	a0,v1,0x100
    51c4:	24020003 	li	v0,3
    51c8:	a082000c 	sb	v0,12(a0)
    51cc:	8c620004 	lw	v0,4(v1)
    51d0:	03e00008 	jr	ra
    51d4:	ac82001c 	sw	v0,28(a0)
    51d8:	3c058008 	lui	a1,0x8008
    51dc:	34a30080 	ori	v1,a1,0x80
    51e0:	90620027 	lbu	v0,39(v1)
    51e4:	34a50100 	ori	a1,a1,0x100
    51e8:	24060043 	li	a2,67
    51ec:	24420001 	addiu	v0,v0,1
    51f0:	a0620027 	sb	v0,39(v1)
    51f4:	90630027 	lbu	v1,39(v1)
    51f8:	3c020800 	lui	v0,0x800
    51fc:	8c420048 	lw	v0,72(v0)
    5200:	306300ff 	andi	v1,v1,0xff
    5204:	14620004 	bne	v1,v0,0x5218
    5208:	3c076021 	lui	a3,0x6021
    520c:	94a500ea 	lhu	a1,234(a1)
    5210:	0a000901 	j	0x8002404
    5214:	30a5ffff 	andi	a1,a1,0xffff
    5218:	03e00008 	jr	ra
    521c:	00000000 	nop
    5220:	27bdffe8 	addiu	sp,sp,-24
    5224:	afbf0010 	sw	ra,16(sp)
    5228:	3c028000 	lui	v0,0x8000
    522c:	0e001444 	jal	0x8005110
    5230:	8c440180 	lw	a0,384(v0)
    5234:	3c028008 	lui	v0,0x8008
    5238:	34430100 	ori	v1,v0,0x100
    523c:	a060000c 	sb	zero,12(v1)
    5240:	8c420004 	lw	v0,4(v0)
    5244:	8fbf0010 	lw	ra,16(sp)
    5248:	27bd0018 	addiu	sp,sp,24
    524c:	03e00008 	jr	ra
    5250:	ac62001c 	sw	v0,28(v1)
    5254:	27bdffe0 	addiu	sp,sp,-32
    5258:	3c028008 	lui	v0,0x8008
    525c:	afbf0018 	sw	ra,24(sp)
    5260:	afb10014 	sw	s1,20(sp)
    5264:	afb00010 	sw	s0,16(sp)
    5268:	34450080 	ori	a1,v0,0x80
    526c:	34460100 	ori	a2,v0,0x100
    5270:	3c088000 	lui	t0,0x8000
    5274:	8d090140 	lw	t1,320(t0)
    5278:	90c3000c 	lbu	v1,12(a2)
    527c:	8ca4003c 	lw	a0,60(a1)
    5280:	8ca20038 	lw	v0,56(a1)
    5284:	1482003b 	bne	a0,v0,0x5374
    5288:	306700ff 	andi	a3,v1,0xff
    528c:	9502007c 	lhu	v0,124(t0)
    5290:	90a30027 	lbu	v1,39(a1)
    5294:	14600009 	bnez	v1,0x52bc
    5298:	3045ffff 	andi	a1,v0,0xffff
    529c:	24020005 	li	v0,5
    52a0:	54e20008 	bnel	a3,v0,0x52c4
    52a4:	3c048008 	lui	a0,0x8008
    52a8:	90c2000d 	lbu	v0,13(a2)
    52ac:	24420001 	addiu	v0,v0,1
    52b0:	a0c2000d 	sb	v0,13(a2)
    52b4:	0a00147f 	j	0x80051fc
    52b8:	3c048008 	lui	a0,0x8008
    52bc:	a0c0000d 	sb	zero,13(a2)
    52c0:	3c048008 	lui	a0,0x8008
    52c4:	34820100 	ori	v0,a0,0x100
    52c8:	9042000c 	lbu	v0,12(v0)
    52cc:	24030005 	li	v1,5
    52d0:	304200ff 	andi	v0,v0,0xff
    52d4:	1443000a 	bne	v0,v1,0x5300
    52d8:	24a205dc 	addiu	v0,a1,1500
    52dc:	34830080 	ori	v1,a0,0x80
    52e0:	90620027 	lbu	v0,39(v1)
    52e4:	2c420007 	sltiu	v0,v0,7
    52e8:	50400005 	beqzl	v0,0x5300
    52ec:	24a20a00 	addiu	v0,a1,2560
    52f0:	90630027 	lbu	v1,39(v1)
    52f4:	24020014 	li	v0,20
    52f8:	00621004 	sllv	v0,v0,v1
    52fc:	00a21021 	addu	v0,a1,v0
    5300:	3c108008 	lui	s0,0x8008
    5304:	36100080 	ori	s0,s0,0x80
    5308:	3045ffff 	andi	a1,v0,0xffff
    530c:	01202021 	move	a0,t1
    5310:	0e001444 	jal	0x8005110
    5314:	a6050014 	sh	a1,20(s0)
    5318:	9602005c 	lhu	v0,92(s0)
    531c:	8e030038 	lw	v1,56(s0)
    5320:	3c118000 	lui	s1,0x8000
    5324:	3042ffff 	andi	v0,v0,0xffff
    5328:	00021040 	sll	v0,v0,0x1
    532c:	00621821 	addu	v1,v1,v0
    5330:	ae03001c 	sw	v1,28(s0)
    5334:	0e000332 	jal	0x8000cc8
    5338:	8e240140 	lw	a0,320(s1)
    533c:	92020025 	lbu	v0,37(s0)
    5340:	34420040 	ori	v0,v0,0x40
    5344:	a2020025 	sb	v0,37(s0)
    5348:	0e00033d 	jal	0x8000cf4
    534c:	8e240140 	lw	a0,320(s1)
    5350:	8e240140 	lw	a0,320(s1)
    5354:	3c038000 	lui	v1,0x8000
    5358:	8c6201f8 	lw	v0,504(v1)
    535c:	0440fffe 	bltz	v0,0x5358
    5360:	24020002 	li	v0,2
    5364:	ac6401c0 	sw	a0,448(v1)
    5368:	a06201c4 	sb	v0,452(v1)
    536c:	3c021000 	lui	v0,0x1000
    5370:	ac6201f8 	sw	v0,504(v1)
    5374:	8fbf0018 	lw	ra,24(sp)
    5378:	8fb10014 	lw	s1,20(sp)
    537c:	8fb00010 	lw	s0,16(sp)
    5380:	03e00008 	jr	ra
    5384:	27bd0020 	addiu	sp,sp,32
    5388:	3c036010 	lui	v1,0x6010
    538c:	3c020800 	lui	v0,0x800
    5390:	24420174 	addiu	v0,v0,372
    5394:	ac62502c 	sw	v0,20524(v1)
    5398:	8c625000 	lw	v0,20480(v1)
    539c:	3c048000 	lui	a0,0x8000
    53a0:	34420080 	ori	v0,v0,0x80
    53a4:	ac625000 	sw	v0,20480(v1)
    53a8:	3c020800 	lui	v0,0x800
    53ac:	2442547c 	addiu	v0,v0,21628
    53b0:	3c010800 	lui	at,0x800
    53b4:	ac225600 	sw	v0,22016(at)
    53b8:	3c020800 	lui	v0,0x800
    53bc:	24425438 	addiu	v0,v0,21560
    53c0:	3c010800 	lui	at,0x800
    53c4:	ac225604 	sw	v0,22020(at)
    53c8:	3c020002 	lui	v0,0x2
    53cc:	ac840008 	sw	a0,8(a0)
    53d0:	ac82000c 	sw	v0,12(a0)
    53d4:	03e00008 	jr	ra
    53d8:	24020001 	li	v0,1
    53dc:	00a03021 	move	a2,a1
    53e0:	3c1c0800 	lui	gp,0x800
    53e4:	279c5608 	addiu	gp,gp,22024
    53e8:	3c020002 	lui	v0,0x2
    53ec:	3c050400 	lui	a1,0x400
    53f0:	00852826 	xor	a1,a0,a1
    53f4:	00822026 	xor	a0,a0,v0
    53f8:	0004102b 	sltu	v0,zero,a0
    53fc:	2ca50001 	sltiu	a1,a1,1
    5400:	2c840001 	sltiu	a0,a0,1
    5404:	00021080 	sll	v0,v0,0x2
    5408:	3c030800 	lui	v1,0x800
    540c:	24635600 	addiu	v1,v1,22016
    5410:	00852025 	or	a0,a0,a1
    5414:	00431821 	addu	v1,v0,v1
    5418:	10800003 	beqz	a0,0x5428
    541c:	00001021 	move	v0,zero
    5420:	ac660000 	sw	a2,0(v1)
    5424:	24020001 	li	v0,1
    5428:	03e00008 	jr	ra
    542c:	00000000 	nop
    5430:	3c1c0800 	lui	gp,0x800
    5434:	279c5608 	addiu	gp,gp,22024
    5438:	3c020002 	lui	v0,0x2
    543c:	3c050400 	lui	a1,0x400
    5440:	00852826 	xor	a1,a0,a1
    5444:	00822026 	xor	a0,a0,v0
    5448:	0004102b 	sltu	v0,zero,a0
    544c:	2ca50001 	sltiu	a1,a1,1
    5450:	2c840001 	sltiu	a0,a0,1
    5454:	00021080 	sll	v0,v0,0x2
    5458:	3c030800 	lui	v1,0x800
    545c:	24635600 	addiu	v1,v1,22016
    5460:	00852025 	or	a0,a0,a1
    5464:	00431821 	addu	v1,v0,v1
    5468:	10800005 	beqz	a0,0x5480
    546c:	00001021 	move	v0,zero
    5470:	3c020800 	lui	v0,0x800
    5474:	24425438 	addiu	v0,v0,21560
    5478:	ac620000 	sw	v0,0(v1)
    547c:	24020001 	li	v0,1
    5480:	03e00008 	jr	ra
    5484:	00000000 	nop
    5488:	3c020002 	lui	v0,0x2
    548c:	3c030400 	lui	v1,0x400
    5490:	00821026 	xor	v0,a0,v0
    5494:	00831826 	xor	v1,a0,v1
    5498:	2c420001 	sltiu	v0,v0,1
    549c:	2c630001 	sltiu	v1,v1,1
    54a0:	00431025 	or	v0,v0,v1
    54a4:	1040000b 	beqz	v0,0x54d4
    54a8:	00002821 	move	a1,zero
    54ac:	3c1c0800 	lui	gp,0x800
    54b0:	279c5608 	addiu	gp,gp,22024
    54b4:	3c038000 	lui	v1,0x8000
    54b8:	8c620008 	lw	v0,8(v1)
    54bc:	24050001 	li	a1,1
    54c0:	00431025 	or	v0,v0,v1
    54c4:	ac620008 	sw	v0,8(v1)
    54c8:	8c62000c 	lw	v0,12(v1)
    54cc:	00441025 	or	v0,v0,a0
    54d0:	ac62000c 	sw	v0,12(v1)
    54d4:	03e00008 	jr	ra
    54d8:	00a01021 	move	v0,a1
    54dc:	3c1c0800 	lui	gp,0x800
    54e0:	279c5608 	addiu	gp,gp,22024
    54e4:	3c058000 	lui	a1,0x8000
    54e8:	8ca3000c 	lw	v1,12(a1)
    54ec:	00042027 	nor	a0,zero,a0
    54f0:	24020001 	li	v0,1
    54f4:	00641824 	and	v1,v1,a0
    54f8:	03e00008 	jr	ra
    54fc:	aca3000c 	sw	v1,12(a1)
    5500:	3c020002 	lui	v0,0x2
    5504:	14820006 	bne	a0,v0,0x5520
    5508:	3c056000 	lui	a1,0x6000
    550c:	8ca208d0 	lw	v0,2256(a1)
    5510:	2403fffe 	li	v1,-2
    5514:	00431024 	and	v0,v0,v1
    5518:	03e00008 	jr	ra
    551c:	aca208d0 	sw	v0,2256(a1)
    5520:	3c020400 	lui	v0,0x400
    5524:	14820005 	bne	a0,v0,0x553c
    5528:	00000000 	nop
    552c:	8ca208d0 	lw	v0,2256(a1)
    5530:	2403fffd 	li	v1,-3
    5534:	00431024 	and	v0,v0,v1
    5538:	aca208d0 	sw	v0,2256(a1)
    553c:	03e00008 	jr	ra
    5540:	00000000 	nop
    5544:	3c02601a 	lui	v0,0x601a
    5548:	34420010 	ori	v0,v0,0x10
    554c:	8c430080 	lw	v1,128(v0)
    5550:	27bdfff8 	addiu	sp,sp,-8
    5554:	8c440084 	lw	a0,132(v0)
    5558:	afa30000 	sw	v1,0(sp)
    555c:	93a30000 	lbu	v1,0(sp)
    5560:	24020004 	li	v0,4
    5564:	1462001a 	bne	v1,v0,0x55d0
    5568:	afa40004 	sw	a0,4(sp)
    556c:	93a20001 	lbu	v0,1(sp)
    5570:	10400007 	beqz	v0,0x5590
    5574:	97a30002 	lhu	v1,2(sp)
    5578:	3062fffc 	andi	v0,v1,0xfffc
    557c:	3c038000 	lui	v1,0x8000
    5580:	00431021 	addu	v0,v0,v1
    5584:	8c420000 	lw	v0,0(v0)
    5588:	0a001536 	j	0x80054d8
    558c:	afa20004 	sw	v0,4(sp)
    5590:	3062fffc 	andi	v0,v1,0xfffc
    5594:	3c038000 	lui	v1,0x8000
    5598:	00431021 	addu	v0,v0,v1
    559c:	ac440000 	sw	a0,0(v0)
    55a0:	a3a00000 	sb	zero,0(sp)
    55a4:	3c056000 	lui	a1,0x6000
    55a8:	8ca208d0 	lw	v0,2256(a1)
    55ac:	2403fffe 	li	v1,-2
    55b0:	3c04601a 	lui	a0,0x601a
    55b4:	00431024 	and	v0,v0,v1
    55b8:	aca208d0 	sw	v0,2256(a1)
    55bc:	8fa30004 	lw	v1,4(sp)
    55c0:	8fa20000 	lw	v0,0(sp)
    55c4:	34840010 	ori	a0,a0,0x10
    55c8:	ac830084 	sw	v1,132(a0)
    55cc:	ac820080 	sw	v0,128(a0)
    55d0:	03e00008 	jr	ra
    55d4:	27bd0008 	addiu	sp,sp,8
    55d8:	27bdffe8 	addiu	sp,sp,-24
    55dc:	afbf0010 	sw	ra,16(sp)
    55e0:	3c1c0800 	lui	gp,0x800
    55e4:	279c5608 	addiu	gp,gp,22024
    55e8:	3c028000 	lui	v0,0x8000
    55ec:	8c43000c 	lw	v1,12(v0)
    55f0:	8c420004 	lw	v0,4(v0)
    55f4:	00431824 	and	v1,v0,v1
    55f8:	3c020002 	lui	v0,0x2
    55fc:	10600014 	beqz	v1,0x5650
    5600:	00622824 	and	a1,v1,v0
    5604:	3c020400 	lui	v0,0x400
    5608:	3c040002 	lui	a0,0x2
    560c:	10a00005 	beqz	a1,0x5624
    5610:	00621024 	and	v0,v1,v0
    5614:	3c020800 	lui	v0,0x800
    5618:	8c425600 	lw	v0,22016(v0)
    561c:	0a00155b 	j	0x800556c
    5620:	00000000 	nop
    5624:	10400007 	beqz	v0,0x5644
    5628:	3c040400 	lui	a0,0x400
    562c:	3c020800 	lui	v0,0x800
    5630:	8c425604 	lw	v0,22020(v0)
    5634:	0040f809 	jalr	v0
    5638:	00000000 	nop
    563c:	0a001560 	j	0x8005580
    5640:	00000000 	nop
    5644:	0000000d 	break
    5648:	3c1c0800 	lui	gp,0x800
    564c:	279c5608 	addiu	gp,gp,22024
    5650:	8fbf0010 	lw	ra,16(sp)
    5654:	03e00008 	jr	ra
    5658:	27bd0018 	addiu	sp,sp,24
    565c:	80080240 	lb	t0,576(zero)
    5660:	80080100 	lb	t0,256(zero)
    5664:	80080080 	lb	t0,128(zero)
    5668:	80080000 	lb	t0,0(zero)
    566c:	00000c80 	sll	at,zero,0x12
    5670:	00003200 	sll	a2,zero,0x8
    5674:	08000e98 	j	0x3a60
    5678:	08000ef4 	j	0x3bd0
    567c:	08000f88 	j	0x3e20
    5680:	08001028 	j	0x40a0
    5684:	08001074 	j	0x41d0
    5688:	80080100 	lb	t0,256(zero)
    568c:	80080080 	lb	t0,128(zero)
    5690:	80080000 	lb	t0,0(zero)
    5694:	0a000028 	j	0x80000a0
    5698:	00000000 	nop
    569c:	00000000 	nop
    56a0:	0000000d 	break
    56a4:	6370362e 	daddi	s0,k1,13870
    56a8:	302e3137 	andi	t6,at,0x3137
    56ac:	00000000 	nop
    56b0:	06001104 	bltz	s0,0x9ac4
    56b4:	00000000 	nop
	...
    56c8:	38003c00 	xori	zero,zero,0x3c00
	...
    56dc:	00000020 	add	zero,zero,zero
	...
    5708:	21003800 	addi	zero,t0,14336
    570c:	00000001 	.word	0x1
    5710:	0000002b 	sltu	zero,zero,zero
    5714:	00000000 	nop
    5718:	00000004 	sllv	zero,zero,zero
    571c:	00030d40 	sll	at,v1,0x15
	...
    5738:	10000003 	b	0x5748
    573c:	00000000 	nop
    5740:	0000000d 	break
    5744:	0000000d 	break
    5748:	3c020800 	lui	v0,0x800
    574c:	244259ac 	addiu	v0,v0,22956
    5750:	3c030800 	lui	v1,0x800
    5754:	24635bf4 	addiu	v1,v1,23540
    5758:	ac400000 	sw	zero,0(v0)
    575c:	0043202b 	sltu	a0,v0,v1
    5760:	1480fffd 	bnez	a0,0x5758
    5764:	24420004 	addiu	v0,v0,4
    5768:	3c1d0800 	lui	sp,0x800
    576c:	37bd9ffc 	ori	sp,sp,0x9ffc
    5770:	03a0f021 	move	s8,sp
    5774:	3c100800 	lui	s0,0x800
    5778:	261000a0 	addiu	s0,s0,160
    577c:	3c1c0800 	lui	gp,0x800
    5780:	279c59ac 	addiu	gp,gp,22956
    5784:	0e0002f6 	jal	0x8000bd8
    5788:	00000000 	nop
    578c:	0000000d 	break
    5790:	27bdffb4 	addiu	sp,sp,-76
    5794:	afa10000 	sw	at,0(sp)
    5798:	afa20004 	sw	v0,4(sp)
    579c:	afa30008 	sw	v1,8(sp)
    57a0:	afa4000c 	sw	a0,12(sp)
    57a4:	afa50010 	sw	a1,16(sp)
    57a8:	afa60014 	sw	a2,20(sp)
    57ac:	afa70018 	sw	a3,24(sp)
    57b0:	afa8001c 	sw	t0,28(sp)
    57b4:	afa90020 	sw	t1,32(sp)
    57b8:	afaa0024 	sw	t2,36(sp)
    57bc:	afab0028 	sw	t3,40(sp)
    57c0:	afac002c 	sw	t4,44(sp)
    57c4:	afad0030 	sw	t5,48(sp)
    57c8:	afae0034 	sw	t6,52(sp)
    57cc:	afaf0038 	sw	t7,56(sp)
    57d0:	afb8003c 	sw	t8,60(sp)
    57d4:	afb90040 	sw	t9,64(sp)
    57d8:	afbc0044 	sw	gp,68(sp)
    57dc:	afbf0048 	sw	ra,72(sp)
    57e0:	0e000820 	jal	0x8002080
    57e4:	00000000 	nop
    57e8:	8fbf0048 	lw	ra,72(sp)
    57ec:	8fbc0044 	lw	gp,68(sp)
    57f0:	8fb90040 	lw	t9,64(sp)
    57f4:	8fb8003c 	lw	t8,60(sp)
    57f8:	8faf0038 	lw	t7,56(sp)
    57fc:	8fae0034 	lw	t6,52(sp)
    5800:	8fad0030 	lw	t5,48(sp)
    5804:	8fac002c 	lw	t4,44(sp)
    5808:	8fab0028 	lw	t3,40(sp)
    580c:	8faa0024 	lw	t2,36(sp)
    5810:	8fa90020 	lw	t1,32(sp)
    5814:	8fa8001c 	lw	t0,28(sp)
    5818:	8fa70018 	lw	a3,24(sp)
    581c:	8fa60014 	lw	a2,20(sp)
    5820:	8fa50010 	lw	a1,16(sp)
    5824:	8fa4000c 	lw	a0,12(sp)
    5828:	8fa30008 	lw	v1,8(sp)
    582c:	8fa20004 	lw	v0,4(sp)
    5830:	8fa10000 	lw	at,0(sp)
    5834:	27bd004c 	addiu	sp,sp,76
    5838:	3c1b6018 	lui	k1,0x6018
    583c:	8f7a5030 	lw	k0,20528(k1)
    5840:	377b5028 	ori	k1,k1,0x5028
    5844:	03400008 	jr	k0
    5848:	af7a0000 	sw	k0,0(k1)
    584c:	00a01821 	move	v1,a1
    5850:	00801021 	move	v0,a0
    5854:	00802821 	move	a1,a0
    5858:	3c046000 	lui	a0,0x6000
    585c:	3c076000 	lui	a3,0x6000
    5860:	24060008 	li	a2,8
    5864:	10600006 	beqz	v1,0x5880
    5868:	34842078 	ori	a0,a0,0x2078
    586c:	8c420000 	lw	v0,0(v0)
    5870:	ace22008 	sw	v0,8200(a3)
    5874:	8c630000 	lw	v1,0(v1)
    5878:	03e00008 	jr	ra
    587c:	ace3200c 	sw	v1,8204(a3)
    5880:	0a000f81 	j	0x8003e04
    5884:	00000000 	nop
    5888:	24030040 	li	v1,64
    588c:	3c026000 	lui	v0,0x6000
    5890:	03e00008 	jr	ra
    5894:	ac432000 	sw	v1,8192(v0)
    5898:	3c076000 	lui	a3,0x6000
    589c:	8f860004 	lw	a2,4(gp)
    58a0:	8ce52074 	lw	a1,8308(a3)
    58a4:	00861021 	addu	v0,a0,a2
    58a8:	00a2182b 	sltu	v1,a1,v0
    58ac:	14600007 	bnez	v1,0x58cc
    58b0:	00002821 	move	a1,zero
    58b4:	8f8afda0 	lw	t2,-608(gp)
    58b8:	24050001 	li	a1,1
    58bc:	a1440013 	sb	a0,19(t2)
    58c0:	8f890004 	lw	t1,4(gp)
    58c4:	01244021 	addu	t0,t1,a0
    58c8:	af880004 	sw	t0,4(gp)
    58cc:	03e00008 	jr	ra
    58d0:	00a01021 	move	v0,a1
    58d4:	8f84fda0 	lw	a0,-608(gp)
    58d8:	8f850004 	lw	a1,4(gp)
    58dc:	90860013 	lbu	a2,19(a0)
    58e0:	30c300ff 	andi	v1,a2,0xff
    58e4:	00a31023 	subu	v0,a1,v1
    58e8:	af820004 	sw	v0,4(gp)
    58ec:	03e00008 	jr	ra
    58f0:	a0800013 	sb	zero,19(a0)
    58f4:	8f84fda0 	lw	a0,-608(gp)
    58f8:	27bdffe8 	addiu	sp,sp,-24
    58fc:	afb00010 	sw	s0,16(sp)
    5900:	afbf0014 	sw	ra,20(sp)
    5904:	90890011 	lbu	t1,17(a0)
    5908:	90870011 	lbu	a3,17(a0)
    590c:	24020028 	li	v0,40
    5910:	312800ff 	andi	t0,t1,0xff
    5914:	39060028 	xori	a2,t0,0x28
    5918:	30e300ff 	andi	v1,a3,0xff
    591c:	2485002c 	addiu	a1,a0,44
    5920:	2cd00001 	sltiu	s0,a2,1
    5924:	10620016 	beq	v1,v0,0x5980
    5928:	2484001c 	addiu	a0,a0,28
    592c:	0e00006e 	jal	0x80001b8
    5930:	00000000 	nop
    5934:	8f8ffda0 	lw	t7,-608(gp)
    5938:	3c056000 	lui	a1,0x6000
    593c:	24020204 	li	v0,516
    5940:	95ee003e 	lhu	t6,62(t7)
    5944:	95ed003c 	lhu	t5,60(t7)
    5948:	000e5c00 	sll	t3,t6,0x10
    594c:	31acffff 	andi	t4,t5,0xffff
    5950:	016c5025 	or	t2,t3,t4
    5954:	acaa2010 	sw	t2,8208(a1)
    5958:	52000001 	beqzl	s0,0x5960
    595c:	24020004 	li	v0,4
    5960:	aca22000 	sw	v0,8192(a1)
	...
    5970:	8fbf0014 	lw	ra,20(sp)
    5974:	8fb00010 	lw	s0,16(sp)
    5978:	03e00008 	jr	ra
    597c:	27bd0018 	addiu	sp,sp,24
    5980:	0a0000a6 	j	0x8000298
    5984:	00002821 	move	a1,zero
    5988:	8f85fda0 	lw	a1,-608(gp)
    598c:	27bdffd8 	addiu	sp,sp,-40
    5990:	afbf0020 	sw	ra,32(sp)
    5994:	afb3001c 	sw	s3,28(sp)
    5998:	afb20018 	sw	s2,24(sp)
    599c:	afb10014 	sw	s1,20(sp)
    59a0:	afb00010 	sw	s0,16(sp)
    59a4:	00809821 	move	s3,a0
    59a8:	90a40011 	lbu	a0,17(a1)
    59ac:	24b0001c 	addiu	s0,a1,28
    59b0:	24b1002c 	addiu	s1,a1,44
    59b4:	308300ff 	andi	v1,a0,0xff
    59b8:	38620028 	xori	v0,v1,0x28
    59bc:	0e000090 	jal	0x8000240
    59c0:	2c520001 	sltiu	s2,v0,1
    59c4:	0e000098 	jal	0x8000260
    59c8:	00000000 	nop
    59cc:	02002021 	move	a0,s0
    59d0:	12400002 	beqz	s2,0x59dc
    59d4:	02202821 	move	a1,s1
    59d8:	00002821 	move	a1,zero
    59dc:	0e00006e 	jal	0x80001b8
    59e0:	00000000 	nop
    59e4:	8f8dfda0 	lw	t5,-608(gp)
    59e8:	3c088000 	lui	t0,0x8000
    59ec:	3c056000 	lui	a1,0x6000
    59f0:	95ac003e 	lhu	t4,62(t5)
    59f4:	95ab003c 	lhu	t3,60(t5)
    59f8:	02683025 	or	a2,s3,t0
    59fc:	000c4c00 	sll	t1,t4,0x10
    5a00:	316affff 	andi	t2,t3,0xffff
    5a04:	012a3825 	or	a3,t1,t2
    5a08:	aca72010 	sw	a3,8208(a1)
    5a0c:	24020202 	li	v0,514
    5a10:	aca62014 	sw	a2,8212(a1)
    5a14:	52400001 	beqzl	s2,0x5a1c
    5a18:	24020002 	li	v0,2
    5a1c:	8fbf0020 	lw	ra,32(sp)
    5a20:	8fb3001c 	lw	s3,28(sp)
    5a24:	8fb20018 	lw	s2,24(sp)
    5a28:	8fb10014 	lw	s1,20(sp)
    5a2c:	8fb00010 	lw	s0,16(sp)
    5a30:	27bd0028 	addiu	sp,sp,40
    5a34:	03e00008 	jr	ra
    5a38:	aca22000 	sw	v0,8192(a1)
    5a3c:	27bdffe0 	addiu	sp,sp,-32
    5a40:	afb20018 	sw	s2,24(sp)
    5a44:	afb10014 	sw	s1,20(sp)
    5a48:	afb00010 	sw	s0,16(sp)
    5a4c:	afbf001c 	sw	ra,28(sp)
    5a50:	3c116000 	lui	s1,0x6000
    5a54:	8e232074 	lw	v1,8308(s1)
    5a58:	8f820004 	lw	v0,4(gp)
    5a5c:	30d0ffff 	andi	s0,a2,0xffff
    5a60:	30f2ffff 	andi	s2,a3,0xffff
    5a64:	1062000c 	beq	v1,v0,0x5a98
    5a68:	2406008f 	li	a2,143
    5a6c:	0e00006e 	jal	0x80001b8
    5a70:	00000000 	nop
    5a74:	3c06801f 	lui	a2,0x801f
    5a78:	00104400 	sll	t0,s0,0x10
    5a7c:	34c5ff00 	ori	a1,a2,0xff00
    5a80:	01123825 	or	a3,t0,s2
    5a84:	24040002 	li	a0,2
    5a88:	ae272010 	sw	a3,8208(s1)
    5a8c:	00003021 	move	a2,zero
    5a90:	ae252014 	sw	a1,8212(s1)
    5a94:	ae242000 	sw	a0,8192(s1)
    5a98:	8fbf001c 	lw	ra,28(sp)
    5a9c:	8fb20018 	lw	s2,24(sp)
    5aa0:	8fb10014 	lw	s1,20(sp)
    5aa4:	8fb00010 	lw	s0,16(sp)
    5aa8:	00c01021 	move	v0,a2
    5aac:	03e00008 	jr	ra
    5ab0:	27bd0020 	addiu	sp,sp,32
    5ab4:	27bdffe0 	addiu	sp,sp,-32
    5ab8:	afb00010 	sw	s0,16(sp)
    5abc:	30d0ffff 	andi	s0,a2,0xffff
    5ac0:	afbf0018 	sw	ra,24(sp)
    5ac4:	afb10014 	sw	s1,20(sp)
    5ac8:	0e00006e 	jal	0x80001b8
    5acc:	30f1ffff 	andi	s1,a3,0xffff
    5ad0:	00102400 	sll	a0,s0,0x10
    5ad4:	00918025 	or	s0,a0,s1
    5ad8:	3c036000 	lui	v1,0x6000
    5adc:	ac702010 	sw	s0,8208(v1)
    5ae0:	8fbf0018 	lw	ra,24(sp)
    5ae4:	8fb10014 	lw	s1,20(sp)
    5ae8:	8fb00010 	lw	s0,16(sp)
    5aec:	24020004 	li	v0,4
    5af0:	ac622000 	sw	v0,8192(v1)
    5af4:	27bd0020 	addiu	sp,sp,32
    5af8:	03e00008 	jr	ra
    5afc:	00001021 	move	v0,zero
    5b00:	27bdffe0 	addiu	sp,sp,-32
    5b04:	3c046018 	lui	a0,0x6018
    5b08:	afbf0018 	sw	ra,24(sp)
    5b0c:	afb10014 	sw	s1,20(sp)
    5b10:	afb00010 	sw	s0,16(sp)
    5b14:	8c885000 	lw	t0,20480(a0)
    5b18:	2403ff7f 	li	v1,-129
    5b1c:	34028071 	li	v0,0x8071
    5b20:	01033824 	and	a3,t0,v1
    5b24:	34e5380c 	ori	a1,a3,0x380c
    5b28:	241f0031 	li	ra,49
    5b2c:	3c198000 	lui	t9,0x8000
    5b30:	ac855000 	sw	a1,20480(a0)
    5b34:	3c11800a 	lui	s1,0x800a
    5b38:	ac8253bc 	sw	v0,21436(a0)
    5b3c:	af3f0008 	sw	ra,8(t9)
    5b40:	0e00054c 	jal	0x8001530
    5b44:	af910040 	sw	s1,64(gp)
    5b48:	0e00050a 	jal	0x8001428
    5b4c:	3c116000 	lui	s1,0x6000
    5b50:	0e00007d 	jal	0x80001f4
    5b54:	00000000 	nop
    5b58:	8e300808 	lw	s0,2056(s1)
    5b5c:	3c0f5709 	lui	t7,0x5709
    5b60:	2418fff0 	li	t8,-16
    5b64:	02186024 	and	t4,s0,t8
    5b68:	35eee000 	ori	t6,t7,0xe000
    5b6c:	35edf000 	ori	t5,t7,0xf000
    5b70:	018e5026 	xor	t2,t4,t6
    5b74:	018d5826 	xor	t3,t4,t5
    5b78:	2d460001 	sltiu	a2,t2,1
    5b7c:	2d690001 	sltiu	t1,t3,1
    5b80:	af86004c 	sw	a2,76(gp)
    5b84:	0e000d09 	jal	0x8003424
    5b88:	af890050 	sw	t1,80(gp)
    5b8c:	3c066016 	lui	a2,0x6016
    5b90:	8cc70000 	lw	a3,0(a2)
    5b94:	3c086014 	lui	t0,0x6014
    5b98:	8d0500a0 	lw	a1,160(t0)
    5b9c:	3c03ffff 	lui	v1,0xffff
    5ba0:	00e32024 	and	a0,a3,v1
    5ba4:	3c025353 	lui	v0,0x5353
    5ba8:	00052fc2 	srl	a1,a1,0x1f
    5bac:	10820055 	beq	a0,v0,0x5d04
    5bb0:	34d07c00 	ori	s0,a2,0x7c00
    5bb4:	960201f2 	lhu	v0,498(s0)
    5bb8:	a780006c 	sh	zero,108(gp)
    5bbc:	10400003 	beqz	v0,0x5bcc
    5bc0:	a780007c 	sh	zero,124(gp)
    5bc4:	384b1e1e 	xori	t3,v0,0x1e1e
    5bc8:	a78b006c 	sh	t3,108(gp)
    5bcc:	960201f8 	lhu	v0,504(s0)
    5bd0:	10400004 	beqz	v0,0x5be4
    5bd4:	8f8d0050 	lw	t5,80(gp)
    5bd8:	384c1e1e 	xori	t4,v0,0x1e1e
    5bdc:	a78c007c 	sh	t4,124(gp)
    5be0:	8f8d0050 	lw	t5,80(gp)
    5be4:	11a00005 	beqz	t5,0x5bfc
    5be8:	8f83004c 	lw	v1,76(gp)
    5bec:	240e0020 	li	t6,32
    5bf0:	a78e007c 	sh	t6,124(gp)
    5bf4:	a78e006c 	sh	t6,108(gp)
    5bf8:	8f83004c 	lw	v1,76(gp)
    5bfc:	10600005 	beqz	v1,0x5c14
    5c00:	9785007c 	lhu	a1,124(gp)
    5c04:	240f0020 	li	t7,32
    5c08:	a78f007c 	sh	t7,124(gp)
    5c0c:	a78f006c 	sh	t7,108(gp)
    5c10:	9785007c 	lhu	a1,124(gp)
    5c14:	2cb80081 	sltiu	t8,a1,129
    5c18:	53000001 	beqzl	t8,0x5c20
    5c1c:	24050080 	li	a1,128
    5c20:	9784006c 	lhu	a0,108(gp)
    5c24:	2c910401 	sltiu	s1,a0,1025
    5c28:	52200001 	beqzl	s1,0x5c30
    5c2c:	24040400 	li	a0,1024
    5c30:	1060000b 	beqz	v1,0x5c60
    5c34:	3c026000 	lui	v0,0x6000
    5c38:	8fbf0018 	lw	ra,24(sp)
    5c3c:	8fb10014 	lw	s1,20(sp)
    5c40:	8fb00010 	lw	s0,16(sp)
    5c44:	27bd0020 	addiu	sp,sp,32
    5c48:	a784006c 	sh	a0,108(gp)
    5c4c:	a785007c 	sh	a1,124(gp)
    5c50:	a380007e 	sb	zero,126(gp)
    5c54:	a7800074 	sh	zero,116(gp)
    5c58:	03e00008 	jr	ra
    5c5c:	a7800092 	sh	zero,146(gp)
    5c60:	8c470438 	lw	a3,1080(v0)
    5c64:	2419103c 	li	t9,4156
    5c68:	30ffffff 	andi	ra,a3,0xffff
    5c6c:	13f90003 	beq	ra,t9,0x5c7c
    5c70:	30a8ffff 	andi	t0,a1,0xffff
    5c74:	11000046 	beqz	t0,0x5d90
    5c78:	24030050 	li	v1,80
    5c7c:	a380007e 	sb	zero,126(gp)
    5c80:	9386007e 	lbu	a2,126(gp)
    5c84:	50c00024 	beqzl	a2,0x5d18
    5c88:	a785007c 	sh	a1,124(gp)
    5c8c:	a780007c 	sh	zero,124(gp)
    5c90:	9798007c 	lhu	t8,124(gp)
    5c94:	a780006c 	sh	zero,108(gp)
    5c98:	a7800074 	sh	zero,116(gp)
    5c9c:	a7800092 	sh	zero,146(gp)
    5ca0:	3c010800 	lui	at,0x800
    5ca4:	ac380080 	sw	t8,128(at)
    5ca8:	0e000787 	jal	0x8001e1c
    5cac:	00000000 	nop
    5cb0:	3c0f6000 	lui	t7,0x6000
    5cb4:	8ded0808 	lw	t5,2056(t7)
    5cb8:	240efff0 	li	t6,-16
    5cbc:	3c0b600e 	lui	t3,0x600e
    5cc0:	260c0388 	addiu	t4,s0,904
    5cc4:	356a0010 	ori	t2,t3,0x10
    5cc8:	00004821 	move	t1,zero
    5ccc:	00002821 	move	a1,zero
    5cd0:	01ae2024 	and	a0,t5,t6
    5cd4:	3c105709 	lui	s0,0x5709
    5cd8:	af8c0010 	sw	t4,16(gp)
    5cdc:	af8a0048 	sw	t2,72(gp)
    5ce0:	af890018 	sw	t1,24(gp)
    5ce4:	10900023 	beq	a0,s0,0x5d74
    5ce8:	af850014 	sw	a1,20(gp)
    5cec:	8fbf0018 	lw	ra,24(sp)
    5cf0:	8fb10014 	lw	s1,20(sp)
    5cf4:	8fb00010 	lw	s0,16(sp)
    5cf8:	27bd0020 	addiu	sp,sp,32
    5cfc:	03e00008 	jr	ra
    5d00:	af800054 	sw	zero,84(gp)
    5d04:	00055080 	sll	t2,a1,0x2
    5d08:	01464821 	addu	t1,t2,a2
    5d0c:	8d260004 	lw	a2,4(t1)
    5d10:	0a000148 	j	0x8000520
    5d14:	00d18021 	addu	s0,a2,s1
    5d18:	9798007c 	lhu	t8,124(gp)
    5d1c:	a784006c 	sh	a0,108(gp)
    5d20:	a7800074 	sh	zero,116(gp)
    5d24:	a7800092 	sh	zero,146(gp)
    5d28:	3c010800 	lui	at,0x800
    5d2c:	ac380080 	sw	t8,128(at)
    5d30:	0e000787 	jal	0x8001e1c
    5d34:	00000000 	nop
    5d38:	3c0f6000 	lui	t7,0x6000
    5d3c:	8ded0808 	lw	t5,2056(t7)
    5d40:	240efff0 	li	t6,-16
    5d44:	3c0b600e 	lui	t3,0x600e
    5d48:	260c0388 	addiu	t4,s0,904
    5d4c:	356a0010 	ori	t2,t3,0x10
    5d50:	00004821 	move	t1,zero
    5d54:	00002821 	move	a1,zero
    5d58:	01ae2024 	and	a0,t5,t6
    5d5c:	3c105709 	lui	s0,0x5709
    5d60:	af8c0010 	sw	t4,16(gp)
    5d64:	af8a0048 	sw	t2,72(gp)
    5d68:	af890018 	sw	t1,24(gp)
    5d6c:	1490ffdf 	bne	a0,s0,0x5cec
    5d70:	af850014 	sw	a1,20(gp)
    5d74:	24110001 	li	s1,1
    5d78:	af910054 	sw	s1,84(gp)
    5d7c:	8fbf0018 	lw	ra,24(sp)
    5d80:	8fb10014 	lw	s1,20(sp)
    5d84:	8fb00010 	lw	s0,16(sp)
    5d88:	03e00008 	jr	ra
    5d8c:	27bd0020 	addiu	sp,sp,32
    5d90:	0a00017b 	j	0x80005ec
    5d94:	a383007e 	sb	v1,126(gp)
    5d98:	3083ffff 	andi	v1,a0,0xffff
    5d9c:	8f880040 	lw	t0,64(gp)
    5da0:	8f87003c 	lw	a3,60(gp)
    5da4:	00032140 	sll	a0,v1,0x5
    5da8:	3c058000 	lui	a1,0x8000
    5dac:	3c020050 	lui	v0,0x50
    5db0:	00824825 	or	t1,a0,v0
    5db4:	3c066000 	lui	a2,0x6000
    5db8:	3c0a0100 	lui	t2,0x100
    5dbc:	34ac0400 	ori	t4,a1,0x400
    5dc0:	8ccd08e0 	lw	t5,2272(a2)
    5dc4:	01aa5824 	and	t3,t5,t2
    5dc8:	11600005 	beqz	t3,0x5de0
    5dcc:	00000000 	nop
    5dd0:	8ccf08e0 	lw	t7,2272(a2)
    5dd4:	24e70001 	addiu	a3,a3,1
    5dd8:	01ea7025 	or	t6,t7,t2
    5ddc:	acce08e0 	sw	t6,2272(a2)
    5de0:	8d190010 	lw	t9,16(t0)
    5de4:	01805821 	move	t3,t4
    5de8:	acb90038 	sw	t9,56(a1)
    5dec:	8d180014 	lw	t8,20(t0)
    5df0:	acb8003c 	sw	t8,60(a1)
    5df4:	aca90030 	sw	t1,48(a1)
	...
    5e18:	3c038000 	lui	v1,0x8000
    5e1c:	8c640000 	lw	a0,0(v1)
    5e20:	30820020 	andi	v0,a0,0x20
    5e24:	1040fffd 	beqz	v0,0x5e1c
    5e28:	3c0f6000 	lui	t7,0x6000
    5e2c:	8ded08e0 	lw	t5,2272(t7)
    5e30:	3c0e0100 	lui	t6,0x100
    5e34:	01ae1824 	and	v1,t5,t6
    5e38:	1460ffe1 	bnez	v1,0x5dc0
    5e3c:	00000000 	nop
    5e40:	af87003c 	sw	a3,60(gp)
    5e44:	03e00008 	jr	ra
    5e48:	af8b0058 	sw	t3,88(gp)
    5e4c:	8f850040 	lw	a1,64(gp)
    5e50:	240bfff0 	li	t3,-16
    5e54:	3c068000 	lui	a2,0x8000
    5e58:	94a7001a 	lhu	a3,26(a1)
    5e5c:	8ca90024 	lw	t1,36(a1)
    5e60:	30ecffff 	andi	t4,a3,0xffff
    5e64:	000c38c0 	sll	a3,t4,0x3
    5e68:	00eb5024 	and	t2,a3,t3
    5e6c:	012a4021 	addu	t0,t1,t2
    5e70:	acc8003c 	sw	t0,60(a2)
    5e74:	8ca40024 	lw	a0,36(a1)
    5e78:	8cc3003c 	lw	v1,60(a2)
    5e7c:	00831023 	subu	v0,a0,v1
    5e80:	18400033 	blez	v0,0x5f50
    5e84:	00000000 	nop
    5e88:	8cad0020 	lw	t5,32(a1)
    5e8c:	25a20001 	addiu	v0,t5,1
    5e90:	3c0f0050 	lui	t7,0x50
    5e94:	acc20038 	sw	v0,56(a2)
    5e98:	35ee0010 	ori	t6,t7,0x10
    5e9c:	3c068000 	lui	a2,0x8000
    5ea0:	acce0030 	sw	t6,48(a2)
	...
    5ec4:	3c048000 	lui	a0,0x8000
    5ec8:	8c990000 	lw	t9,0(a0)
    5ecc:	33380020 	andi	t8,t9,0x20
    5ed0:	1300fffd 	beqz	t8,0x5ec8
    5ed4:	30e20008 	andi	v0,a3,0x8
    5ed8:	10400017 	beqz	v0,0x5f38
    5edc:	3c098000 	lui	t1,0x8000
    5ee0:	8c880408 	lw	t0,1032(a0)
    5ee4:	aca80010 	sw	t0,16(a1)
    5ee8:	8c83040c 	lw	v1,1036(a0)
    5eec:	aca30014 	sw	v1,20(a1)
    5ef0:	3c190020 	lui	t9,0x20
    5ef4:	3c188000 	lui	t8,0x8000
    5ef8:	af190030 	sw	t9,48(t8)
    5efc:	94ae0018 	lhu	t6,24(a1)
    5f00:	94af001c 	lhu	t7,28(a1)
    5f04:	01cf3021 	addu	a2,t6,t7
    5f08:	a4a60018 	sh	a2,24(a1)
    5f0c:	94ad001a 	lhu	t5,26(a1)
    5f10:	25a70001 	addiu	a3,t5,1
    5f14:	a4a7001a 	sh	a3,26(a1)
    5f18:	94ab001a 	lhu	t3,26(a1)
    5f1c:	94ac001e 	lhu	t4,30(a1)
    5f20:	118b0003 	beq	t4,t3,0x5f30
    5f24:	00000000 	nop
    5f28:	03e00008 	jr	ra
    5f2c:	00000000 	nop
    5f30:	03e00008 	jr	ra
    5f34:	a4a0001a 	sh	zero,26(a1)
    5f38:	8d2a0400 	lw	t2,1024(t1)
    5f3c:	acaa0010 	sw	t2,16(a1)
    5f40:	8d240404 	lw	a0,1028(t1)
    5f44:	aca40014 	sw	a0,20(a1)
    5f48:	0a000218 	j	0x8000860
    5f4c:	3c190020 	lui	t9,0x20
    5f50:	8ca20020 	lw	v0,32(a1)
    5f54:	0a000200 	j	0x8000800
    5f58:	3c0f0050 	lui	t7,0x50
    5f5c:	0a0001ee 	j	0x80007b8
    5f60:	00000000 	nop
    5f64:	27bdffe8 	addiu	sp,sp,-24
    5f68:	afbf0010 	sw	ra,16(sp)
    5f6c:	0e000232 	jal	0x80008c8
    5f70:	00000000 	nop
    5f74:	8f890040 	lw	t1,64(gp)
    5f78:	8fbf0010 	lw	ra,16(sp)
    5f7c:	3c038000 	lui	v1,0x8000
    5f80:	a520000a 	sh	zero,10(t1)
    5f84:	9528000a 	lhu	t0,10(t1)
    5f88:	95270004 	lhu	a3,4(t1)
    5f8c:	27bd0018 	addiu	sp,sp,24
    5f90:	3105ffff 	andi	a1,t0,0xffff
    5f94:	30e6000f 	andi	a2,a3,0xf
    5f98:	00061500 	sll	v0,a2,0x14
    5f9c:	00a22025 	or	a0,a1,v0
    5fa0:	03e00008 	jr	ra
    5fa4:	ac640080 	sw	a0,128(v1)
    5fa8:	3c050800 	lui	a1,0x800
    5fac:	8ca50020 	lw	a1,32(a1)
    5fb0:	8f83000c 	lw	v1,12(gp)
    5fb4:	27bdffe8 	addiu	sp,sp,-24
    5fb8:	afb00010 	sw	s0,16(sp)
    5fbc:	afbf0014 	sw	ra,20(sp)
    5fc0:	10a30010 	beq	a1,v1,0x6004
    5fc4:	00008021 	move	s0,zero
    5fc8:	24040001 	li	a0,1
    5fcc:	02043004 	sllv	a2,a0,s0
    5fd0:	00a62024 	and	a0,a1,a2
    5fd4:	00c31024 	and	v0,a2,v1
    5fd8:	50440006 	beql	v0,a0,0x5ff4
    5fdc:	26100001 	addiu	s0,s0,1
    5fe0:	00101880 	sll	v1,s0,0x2
    5fe4:	2787fda4 	addiu	a3,gp,-604
    5fe8:	1480000a 	bnez	a0,0x6014
    5fec:	00671821 	addu	v1,v1,a3
    5ff0:	26100001 	addiu	s0,s0,1
    5ff4:	2e090002 	sltiu	t1,s0,2
    5ff8:	5520fff3 	bnezl	t1,0x5fc8
    5ffc:	8f83000c 	lw	v1,12(gp)
    6000:	af85000c 	sw	a1,12(gp)
    6004:	8fbf0014 	lw	ra,20(sp)
    6008:	8fb00010 	lw	s0,16(sp)
    600c:	03e00008 	jr	ra
    6010:	27bd0018 	addiu	sp,sp,24
    6014:	8c680000 	lw	t0,0(v1)
    6018:	3c058000 	lui	a1,0x8000
    601c:	aca80024 	sw	t0,36(a1)
    6020:	0e000234 	jal	0x80008d0
    6024:	26100001 	addiu	s0,s0,1
    6028:	3c050800 	lui	a1,0x800
    602c:	8ca50020 	lw	a1,32(a1)
    6030:	0a000259 	j	0x8000964
    6034:	2e090002 	sltiu	t1,s0,2
    6038:	24050001 	li	a1,1
    603c:	00851804 	sllv	v1,a1,a0
    6040:	3c040800 	lui	a0,0x800
    6044:	8c840020 	lw	a0,32(a0)
    6048:	27bdffc8 	addiu	sp,sp,-56
    604c:	afbf0034 	sw	ra,52(sp)
    6050:	00831024 	and	v0,a0,v1
    6054:	afbe0030 	sw	s8,48(sp)
    6058:	afb7002c 	sw	s7,44(sp)
    605c:	afb60028 	sw	s6,40(sp)
    6060:	afb50024 	sw	s5,36(sp)
    6064:	afb40020 	sw	s4,32(sp)
    6068:	afb3001c 	sw	s3,28(sp)
    606c:	afb20018 	sw	s2,24(sp)
    6070:	afb10014 	sw	s1,20(sp)
    6074:	10400051 	beqz	v0,0x61bc
    6078:	afb00010 	sw	s0,16(sp)
    607c:	8f840040 	lw	a0,64(gp)
    6080:	94870006 	lhu	a3,6(a0)
    6084:	9488000a 	lhu	t0,10(a0)
    6088:	00e83023 	subu	a2,a3,t0
    608c:	30d5ffff 	andi	s5,a2,0xffff
    6090:	12a0004b 	beqz	s5,0x61c0
    6094:	8fbf0034 	lw	ra,52(sp)
    6098:	948b0018 	lhu	t3,24(a0)
    609c:	948c000a 	lhu	t4,10(a0)
    60a0:	016c5023 	subu	t2,t3,t4
    60a4:	3142ffff 	andi	v0,t2,0xffff
    60a8:	02a2482b 	sltu	t1,s5,v0
    60ac:	15200002 	bnez	t1,0x60b8
    60b0:	02a02021 	move	a0,s5
    60b4:	00402021 	move	a0,v0
    60b8:	2c8f0005 	sltiu	t7,a0,5
    60bc:	15e00002 	bnez	t7,0x60c8
    60c0:	00809821 	move	s3,a0
    60c4:	24130004 	li	s3,4
    60c8:	0e0001c1 	jal	0x8000704
    60cc:	02602021 	move	a0,s3
    60d0:	8f870040 	lw	a3,64(gp)
    60d4:	02609021 	move	s2,s3
    60d8:	af800044 	sw	zero,68(gp)
    60dc:	94f4000a 	lhu	s4,10(a3)
    60e0:	02608021 	move	s0,s3
    60e4:	1260004e 	beqz	s3,0x6220
    60e8:	3291ffff 	andi	s1,s4,0xffff
    60ec:	3c167000 	lui	s6,0x7000
    60f0:	3c144000 	lui	s4,0x4000
    60f4:	3c1e2000 	lui	s8,0x2000
    60f8:	3c176000 	lui	s7,0x6000
    60fc:	8f990058 	lw	t9,88(gp)
    6100:	8f380000 	lw	t8,0(t9)
    6104:	03161824 	and	v1,t8,s6
    6108:	1074004f 	beq	v1,s4,0x6248
    610c:	0283f82b 	sltu	ra,s4,v1
    6110:	17e00036 	bnez	ra,0x61ec
    6114:	00000000 	nop
    6118:	107e0047 	beq	v1,s8,0x6238
    611c:	8f860044 	lw	a2,68(gp)
    6120:	14c0003a 	bnez	a2,0x620c
    6124:	24030001 	li	v1,1
    6128:	02031023 	subu	v0,s0,v1
    612c:	02232021 	addu	a0,s1,v1
    6130:	3050ffff 	andi	s0,v0,0xffff
    6134:	1600fff1 	bnez	s0,0x60fc
    6138:	3091ffff 	andi	s1,a0,0xffff
    613c:	8f870040 	lw	a3,64(gp)
    6140:	3c110020 	lui	s1,0x20
    6144:	3c108000 	lui	s0,0x8000
    6148:	ae110030 	sw	s1,48(s0)
    614c:	94eb000a 	lhu	t3,10(a3)
    6150:	3c178000 	lui	s7,0x8000
    6154:	024b5021 	addu	t2,s2,t3
    6158:	a4ea000a 	sh	t2,10(a3)
    615c:	94e9000a 	lhu	t1,10(a3)
    6160:	94e80004 	lhu	t0,4(a3)
    6164:	3123ffff 	andi	v1,t1,0xffff
    6168:	3106000f 	andi	a2,t0,0xf
    616c:	00062d00 	sll	a1,a2,0x14
    6170:	0065f025 	or	s8,v1,a1
    6174:	aefe0080 	sw	s8,128(s7)
    6178:	94f3000a 	lhu	s3,10(a3)
    617c:	94f60018 	lhu	s6,24(a3)
    6180:	12d30036 	beq	s6,s3,0x625c
    6184:	00122140 	sll	a0,s2,0x5
    6188:	8cff0014 	lw	ra,20(a3)
    618c:	8cf40010 	lw	s4,16(a3)
    6190:	03e46821 	addu	t5,ra,a0
    6194:	0000c021 	move	t8,zero
    6198:	01a4782b 	sltu	t7,t5,a0
    619c:	02987021 	addu	t6,s4,t8
    61a0:	01cf6021 	addu	t4,t6,t7
    61a4:	aced0014 	sw	t5,20(a3)
    61a8:	acec0010 	sw	t4,16(a3)
    61ac:	02b23823 	subu	a3,s5,s2
    61b0:	30f5ffff 	andi	s5,a3,0xffff
    61b4:	16a0ffb8 	bnez	s5,0x6098
    61b8:	8f840040 	lw	a0,64(gp)
    61bc:	8fbf0034 	lw	ra,52(sp)
    61c0:	8fbe0030 	lw	s8,48(sp)
    61c4:	8fb7002c 	lw	s7,44(sp)
    61c8:	8fb60028 	lw	s6,40(sp)
    61cc:	8fb50024 	lw	s5,36(sp)
    61d0:	8fb40020 	lw	s4,32(sp)
    61d4:	8fb3001c 	lw	s3,28(sp)
    61d8:	8fb20018 	lw	s2,24(sp)
    61dc:	8fb10014 	lw	s1,20(sp)
    61e0:	8fb00010 	lw	s0,16(sp)
    61e4:	03e00008 	jr	ra
    61e8:	27bd0038 	addiu	sp,sp,56
    61ec:	1477ffcc 	bne	v1,s7,0x6120
    61f0:	8f860044 	lw	a2,68(gp)
    61f4:	0e000ee2 	jal	0x8003b88
    61f8:	02002021 	move	a0,s0
    61fc:	00401821 	move	v1,v0
    6200:	8f860044 	lw	a2,68(gp)
    6204:	10c0ffc9 	beqz	a2,0x612c
    6208:	02031023 	subu	v0,s0,v1
    620c:	02707023 	subu	t6,s3,s0
    6210:	8f870040 	lw	a3,64(gp)
    6214:	01c36821 	addu	t5,t6,v1
    6218:	0a0002e4 	j	0x8000b90
    621c:	31b2ffff 	andi	s2,t5,0xffff
    6220:	8f860044 	lw	a2,68(gp)
    6224:	14c0ffc9 	bnez	a2,0x614c
    6228:	3c110020 	lui	s1,0x20
    622c:	3c108000 	lui	s0,0x8000
    6230:	0a0002ae 	j	0x8000ab8
    6234:	ae110030 	sw	s1,48(s0)
    6238:	0e000466 	jal	0x8001198
    623c:	02002021 	move	a0,s0
    6240:	0a0002db 	j	0x8000b6c
    6244:	00401821 	move	v1,v0
    6248:	02002021 	move	a0,s0
    624c:	0e000939 	jal	0x80024e4
    6250:	02202821 	move	a1,s1
    6254:	0a0002db 	j	0x8000b6c
    6258:	00401821 	move	v1,v0
    625c:	0e0001ee 	jal	0x80007b8
    6260:	00000000 	nop
    6264:	0a0002c7 	j	0x8000b1c
    6268:	02b23823 	subu	a3,s5,s2
    626c:	27bdffc8 	addiu	sp,sp,-56
    6270:	afb7002c 	sw	s7,44(sp)
    6274:	afb60028 	sw	s6,40(sp)
    6278:	afb50024 	sw	s5,36(sp)
    627c:	afb40020 	sw	s4,32(sp)
    6280:	afb3001c 	sw	s3,28(sp)
    6284:	afb20018 	sw	s2,24(sp)
    6288:	afb10014 	sw	s1,20(sp)
    628c:	afb00010 	sw	s0,16(sp)
    6290:	afbf0030 	sw	ra,48(sp)
    6294:	0e00011b 	jal	0x800046c
    6298:	24130001 	li	s3,1
    629c:	3c047fff 	lui	a0,0x7fff
    62a0:	3c038008 	lui	v1,0x8008
    62a4:	3c022000 	lui	v0,0x2000
    62a8:	3c010800 	lui	at,0x800
    62ac:	ac200070 	sw	zero,112(at)
    62b0:	3496ffff 	ori	s6,a0,0xffff
    62b4:	34770080 	ori	s7,v1,0x80
    62b8:	34520003 	ori	s2,v0,0x3
    62bc:	3c1512c0 	lui	s5,0x12c0
    62c0:	24140001 	li	s4,1
    62c4:	3c108000 	lui	s0,0x8000
    62c8:	2411ff80 	li	s1,-128
    62cc:	0e000245 	jal	0x8000914
    62d0:	00000000 	nop
    62d4:	8f870048 	lw	a3,72(gp)
    62d8:	8f8b0018 	lw	t3,24(gp)
    62dc:	8f890014 	lw	t1,20(gp)
    62e0:	8cea00ec 	lw	t2,236(a3)
    62e4:	8ce800e8 	lw	t0,232(a3)
    62e8:	014b302b 	sltu	a2,t2,t3
    62ec:	01092823 	subu	a1,t0,t1
    62f0:	00a61023 	subu	v0,a1,a2
    62f4:	14400006 	bnez	v0,0x6310
    62f8:	014b1823 	subu	v1,t2,t3
    62fc:	1440000e 	bnez	v0,0x6338
    6300:	3c058000 	lui	a1,0x8000
    6304:	02a3602b 	sltu	t4,s5,v1
    6308:	1180000b 	beqz	t4,0x6338
    630c:	00000000 	nop
    6310:	3c056000 	lui	a1,0x6000
    6314:	8cee00ec 	lw	t6,236(a3)
    6318:	8ced00e8 	lw	t5,232(a3)
    631c:	8ca4180c 	lw	a0,6156(a1)
    6320:	af8e0018 	sw	t6,24(gp)
    6324:	04800053 	bltz	a0,0x6474
    6328:	af8d0014 	sw	t5,20(gp)
    632c:	8f8f0010 	lw	t7,16(gp)
    6330:	adf40000 	sw	s4,0(t7)
    6334:	3c058000 	lui	a1,0x8000
    6338:	8cbf0000 	lw	ra,0(a1)
    633c:	3bf90001 	xori	t9,ra,0x1
    6340:	33380001 	andi	t8,t9,0x1
    6344:	1700ffe1 	bnez	t8,0x62cc
    6348:	3c038000 	lui	v1,0x8000
    634c:	8c620100 	lw	v0,256(v1)
    6350:	24060c00 	li	a2,3072
    6354:	10460009 	beq	v0,a2,0x637c
    6358:	00000000 	nop
    635c:	8c680100 	lw	t0,256(v1)
    6360:	2d043080 	sltiu	a0,t0,12416
    6364:	54800010 	bnezl	a0,0x63a8
    6368:	3c048000 	lui	a0,0x8000
    636c:	8c690100 	lw	t1,256(v1)
    6370:	2d233181 	sltiu	v1,t1,12673
    6374:	1060000c 	beqz	v1,0x63a8
    6378:	3c048000 	lui	a0,0x8000
    637c:	8caa0100 	lw	t2,256(a1)
    6380:	11460004 	beq	t2,a2,0x6394
    6384:	00002021 	move	a0,zero
    6388:	8ca60100 	lw	a2,256(a1)
    638c:	24c5ff81 	addiu	a1,a2,-127
    6390:	30a400ff 	andi	a0,a1,0xff
    6394:	8e0b0100 	lw	t3,256(s0)
    6398:	0e000269 	jal	0x80009a4
    639c:	ae0b0024 	sw	t3,36(s0)
    63a0:	0a00034f 	j	0x8000d3c
    63a4:	3c048000 	lui	a0,0x8000
    63a8:	8c8d0100 	lw	t5,256(a0)
    63ac:	2dac3300 	sltiu	t4,t5,13056
    63b0:	11800022 	beqz	t4,0x643c
    63b4:	00000000 	nop
    63b8:	3c070800 	lui	a3,0x800
    63bc:	8ce70098 	lw	a3,152(a3)
    63c0:	24ee0001 	addiu	t6,a3,1
    63c4:	3c010800 	lui	at,0x800
    63c8:	ac2e0098 	sw	t6,152(at)
    63cc:	3c048000 	lui	a0,0x8000
    63d0:	8c820100 	lw	v0,256(a0)
    63d4:	14400003 	bnez	v0,0x63e4
    63d8:	00000000 	nop
    63dc:	56600014 	bnezl	s3,0x6430
    63e0:	3c044000 	lui	a0,0x4000
    63e4:	8c9f0100 	lw	ra,256(a0)
    63e8:	8c980100 	lw	t8,256(a0)
    63ec:	00009821 	move	s3,zero
    63f0:	03f1c824 	and	t9,ra,s1
    63f4:	00193940 	sll	a3,t9,0x5
    63f8:	330f007f 	andi	t7,t8,0x7f
    63fc:	00ef7025 	or	t6,a3,t7
    6400:	01d26825 	or	t5,t6,s2
    6404:	ac8d0830 	sw	t5,2096(a0)
    6408:	8c8c0100 	lw	t4,256(a0)
    640c:	8c850100 	lw	a1,256(a0)
    6410:	258b0100 	addiu	t3,t4,256
    6414:	01713024 	and	a2,t3,s1
    6418:	00065140 	sll	t2,a2,0x5
    641c:	30a3007f 	andi	v1,a1,0x7f
    6420:	01434825 	or	t1,t2,v1
    6424:	01324025 	or	t0,t1,s2
    6428:	ac880830 	sw	t0,2096(a0)
    642c:	3c044000 	lui	a0,0x4000
    6430:	ae040138 	sw	a0,312(s0)
    6434:	0a00030e 	j	0x8000c38
    6438:	00000000 	nop
    643c:	8c990100 	lw	t9,256(a0)
    6440:	240f0020 	li	t7,32
    6444:	ac990020 	sw	t9,32(a0)
    6448:	92f80000 	lbu	t8,0(s7)
    644c:	330300ff 	andi	v1,t8,0xff
    6450:	106f000c 	beq	v1,t7,0x6484
    6454:	241f0050 	li	ra,80
    6458:	547fffdd 	bnel	v1,ra,0x63d0
    645c:	3c048000 	lui	a0,0x8000
    6460:	8c840100 	lw	a0,256(a0)
    6464:	0e00154e 	jal	0x8005538
    6468:	00000000 	nop
    646c:	0a00034f 	j	0x8000d3c
    6470:	3c048000 	lui	a0,0x8000
    6474:	00963824 	and	a3,a0,s6
    6478:	aca7180c 	sw	a3,6156(a1)
    647c:	0a000327 	j	0x8000c9c
    6480:	8f8f0010 	lw	t7,16(gp)
    6484:	8c850100 	lw	a1,256(a0)
    6488:	0e0008f7 	jal	0x80023dc
    648c:	24040080 	li	a0,128
    6490:	0a00034f 	j	0x8000d3c
    6494:	3c048000 	lui	a0,0x8000
    6498:	00a4102b 	sltu	v0,a1,a0
    649c:	24030001 	li	v1,1
    64a0:	10400009 	beqz	v0,0x64c8
    64a4:	00003021 	move	a2,zero
    64a8:	00052840 	sll	a1,a1,0x1
    64ac:	00a4102b 	sltu	v0,a1,a0
    64b0:	04a00003 	bltz	a1,0x64c0
    64b4:	00031840 	sll	v1,v1,0x1
    64b8:	5440fffc 	bnezl	v0,0x64ac
    64bc:	00052840 	sll	a1,a1,0x1
    64c0:	5060000a 	beqzl	v1,0x64ec
    64c4:	0004182b 	sltu	v1,zero,a0
    64c8:	0085382b 	sltu	a3,a0,a1
    64cc:	54e00004 	bnezl	a3,0x64e0
    64d0:	00031842 	srl	v1,v1,0x1
    64d4:	00c33025 	or	a2,a2,v1
    64d8:	00852023 	subu	a0,a0,a1
    64dc:	00031842 	srl	v1,v1,0x1
    64e0:	1460fff9 	bnez	v1,0x64c8
    64e4:	00052842 	srl	a1,a1,0x1
    64e8:	0004182b 	sltu	v1,zero,a0
    64ec:	03e00008 	jr	ra
    64f0:	00c31021 	addu	v0,a2,v1
    64f4:	3084ffff 	andi	a0,a0,0xffff
    64f8:	30c600ff 	andi	a2,a2,0xff
    64fc:	3c078000 	lui	a3,0x8000
    6500:	8ce201b8 	lw	v0,440(a3)
    6504:	0440fffe 	bltz	v0,0x6500
    6508:	00064c00 	sll	t1,a2,0x10
    650c:	01243025 	or	a2,t1,a0
    6510:	3c082000 	lui	t0,0x2000
    6514:	00c82025 	or	a0,a2,t0
    6518:	3c031000 	lui	v1,0x1000
    651c:	ace00180 	sw	zero,384(a3)
    6520:	ace50184 	sw	a1,388(a3)
    6524:	ace40188 	sw	a0,392(a3)
    6528:	03e00008 	jr	ra
    652c:	ace301b8 	sw	v1,440(a3)
    6530:	3c066000 	lui	a2,0x6000
    6534:	8cc5201c 	lw	a1,8220(a2)
    6538:	2402fff0 	li	v0,-16
    653c:	30830200 	andi	v1,a0,0x200
    6540:	30860100 	andi	a2,a0,0x100
    6544:	1060000e 	beqz	v1,0x6580
    6548:	00a22824 	and	a1,a1,v0
    654c:	34a50001 	ori	a1,a1,0x1
    6550:	30873000 	andi	a3,a0,0x3000
    6554:	10e00005 	beqz	a3,0x656c
    6558:	30830c00 	andi	v1,a0,0xc00
    655c:	34a50004 	ori	a1,a1,0x4
    6560:	3c046000 	lui	a0,0x6000
    6564:	03e00008 	jr	ra
    6568:	ac85201c 	sw	a1,8220(a0)
    656c:	1060fffd 	beqz	v1,0x6564
    6570:	3c046000 	lui	a0,0x6000
    6574:	34a50008 	ori	a1,a1,0x8
    6578:	03e00008 	jr	ra
    657c:	ac85201c 	sw	a1,8220(a0)
    6580:	54c0fff3 	bnezl	a2,0x6550
    6584:	34a50002 	ori	a1,a1,0x2
    6588:	0a0003b0 	j	0x8000ec0
    658c:	30873000 	andi	a3,a0,0x3000
    6590:	27bdffe8 	addiu	sp,sp,-24
    6594:	afb00010 	sw	s0,16(sp)
    6598:	afbf0014 	sw	ra,20(sp)
    659c:	3c076000 	lui	a3,0x6000
    65a0:	24060002 	li	a2,2
    65a4:	10800011 	beqz	a0,0x65ec
    65a8:	00a08021 	move	s0,a1
    65ac:	8f830058 	lw	v1,88(gp)
    65b0:	0e0003a7 	jal	0x8000e9c
    65b4:	8c640018 	lw	a0,24(v1)
    65b8:	8f820058 	lw	v0,88(gp)
    65bc:	00002021 	move	a0,zero
    65c0:	24060001 	li	a2,1
    65c4:	8c45000c 	lw	a1,12(v0)
    65c8:	0e000398 	jal	0x8000e60
    65cc:	00000000 	nop
    65d0:	16000002 	bnez	s0,0x65dc
    65d4:	24020003 	li	v0,3
    65d8:	00001021 	move	v0,zero
    65dc:	8fbf0014 	lw	ra,20(sp)
    65e0:	8fb00010 	lw	s0,16(sp)
    65e4:	03e00008 	jr	ra
    65e8:	27bd0018 	addiu	sp,sp,24
    65ec:	8ce8201c 	lw	t0,8220(a3)
    65f0:	2409fff0 	li	t1,-16
    65f4:	01092824 	and	a1,t0,t1
    65f8:	ace5201c 	sw	a1,8220(a3)
    65fc:	8f870058 	lw	a3,88(gp)
    6600:	0a0003cd 	j	0x8000f34
    6604:	8ce5000c 	lw	a1,12(a3)
    6608:	3c02600e 	lui	v0,0x600e
    660c:	00804021 	move	t0,a0
    6610:	34460100 	ori	a2,v0,0x100
    6614:	24090018 	li	t1,24
	...
    6624:	3c0a0050 	lui	t2,0x50
    6628:	3c038000 	lui	v1,0x8000
    662c:	35470200 	ori	a3,t2,0x200
    6630:	ac680038 	sw	t0,56(v1)
    6634:	34640400 	ori	a0,v1,0x400
    6638:	ac65003c 	sw	a1,60(v1)
    663c:	ac670030 	sw	a3,48(v1)
    6640:	8c6c0000 	lw	t4,0(v1)
    6644:	318b0020 	andi	t3,t4,0x20
    6648:	1160fffd 	beqz	t3,0x6640
    664c:	2407ffff 	li	a3,-1
    6650:	2403007f 	li	v1,127
    6654:	8c8d0000 	lw	t5,0(a0)
    6658:	2463ffff 	addiu	v1,v1,-1
    665c:	24840004 	addiu	a0,a0,4
    6660:	accd0000 	sw	t5,0(a2)
    6664:	1467fffb 	bne	v1,a3,0x6654
    6668:	24c60004 	addiu	a2,a2,4
	...
    6678:	24a40200 	addiu	a0,a1,512
    667c:	0085282b 	sltu	a1,a0,a1
    6680:	3c030020 	lui	v1,0x20
    6684:	3c0e8000 	lui	t6,0x8000
    6688:	2529ffff 	addiu	t1,t1,-1
    668c:	01054021 	addu	t0,t0,a1
    6690:	adc30030 	sw	v1,48(t6)
    6694:	1520ffe0 	bnez	t1,0x6618
    6698:	00802821 	move	a1,a0
    669c:	03e00008 	jr	ra
    66a0:	00000000 	nop
    66a4:	8f820058 	lw	v0,88(gp)
    66a8:	27bdffd8 	addiu	sp,sp,-40
    66ac:	afb3001c 	sw	s3,28(sp)
    66b0:	afbf0020 	sw	ra,32(sp)
    66b4:	afb20018 	sw	s2,24(sp)
    66b8:	afb10014 	sw	s1,20(sp)
    66bc:	afb00010 	sw	s0,16(sp)
    66c0:	94460002 	lhu	a2,2(v0)
    66c4:	00809821 	move	s3,a0
    66c8:	8c520018 	lw	s2,24(v0)
    66cc:	2cc30081 	sltiu	v1,a2,129
    66d0:	8c480004 	lw	t0,4(v0)
    66d4:	8c470008 	lw	a3,8(v0)
    66d8:	8c51000c 	lw	s1,12(v0)
    66dc:	8c490010 	lw	t1,16(v0)
    66e0:	10600007 	beqz	v1,0x6700
    66e4:	8c4a0014 	lw	t2,20(v0)
    66e8:	2cc40004 	sltiu	a0,a2,4
    66ec:	14800013 	bnez	a0,0x673c
    66f0:	30eb0007 	andi	t3,a3,0x7
    66f4:	30c50003 	andi	a1,a2,0x3
    66f8:	10a00010 	beqz	a1,0x673c
    66fc:	00000000 	nop
    6700:	2410008b 	li	s0,139
    6704:	02002021 	move	a0,s0
    6708:	02202821 	move	a1,s1
    670c:	0e000398 	jal	0x8000e60
    6710:	24060003 	li	a2,3
    6714:	16600002 	bnez	s3,0x6720
    6718:	24020003 	li	v0,3
    671c:	00001021 	move	v0,zero
    6720:	8fbf0020 	lw	ra,32(sp)
    6724:	8fb3001c 	lw	s3,28(sp)
    6728:	8fb20018 	lw	s2,24(sp)
    672c:	8fb10014 	lw	s1,20(sp)
    6730:	8fb00010 	lw	s0,16(sp)
    6734:	03e00008 	jr	ra
    6738:	27bd0028 	addiu	sp,sp,40
    673c:	1560fff1 	bnez	t3,0x6704
    6740:	2410008b 	li	s0,139
    6744:	3c0c8000 	lui	t4,0x8000
    6748:	3c030020 	lui	v1,0x20
    674c:	241f0001 	li	ra,1
    6750:	ad830030 	sw	v1,48(t4)
    6754:	af9f0044 	sw	ra,68(gp)
	...
    6764:	2419fff0 	li	t9,-16
    6768:	24d8000f 	addiu	t8,a2,15
    676c:	03197824 	and	t7,t8,t9
    6770:	3c1000d0 	lui	s0,0xd0
    6774:	ad880038 	sw	t0,56(t4)
    6778:	01f07025 	or	t6,t7,s0
    677c:	24cd0003 	addiu	t5,a2,3
    6780:	3c08600e 	lui	t0,0x600e
    6784:	ad87003c 	sw	a3,60(t4)
    6788:	35850400 	ori	a1,t4,0x400
    678c:	ad8e0030 	sw	t6,48(t4)
    6790:	000d3882 	srl	a3,t5,0x2
    6794:	3504003c 	ori	a0,t0,0x3c
    6798:	3c038000 	lui	v1,0x8000
    679c:	8c6b0000 	lw	t3,0(v1)
    67a0:	31620020 	andi	v0,t3,0x20
    67a4:	1040fffd 	beqz	v0,0x679c
    67a8:	00000000 	nop
    67ac:	10e00008 	beqz	a3,0x67d0
    67b0:	24e3ffff 	addiu	v1,a3,-1
    67b4:	2407ffff 	li	a3,-1
    67b8:	8ca80000 	lw	t0,0(a1)
    67bc:	2463ffff 	addiu	v1,v1,-1
    67c0:	24a50004 	addiu	a1,a1,4
    67c4:	ac880000 	sw	t0,0(a0)
    67c8:	1467fffb 	bne	v1,a3,0x67b8
    67cc:	24840004 	addiu	a0,a0,4
    67d0:	3c05600e 	lui	a1,0x600e
    67d4:	aca60038 	sw	a2,56(a1)
	...
    67e4:	8f860054 	lw	a2,84(gp)
    67e8:	3c040020 	lui	a0,0x20
    67ec:	3c078000 	lui	a3,0x8000
    67f0:	ace40030 	sw	a0,48(a3)
    67f4:	54c00006 	bnezl	a2,0x6810
    67f8:	01202021 	move	a0,t1
    67fc:	02402021 	move	a0,s2
    6800:	0e0003a7 	jal	0x8000e9c
    6804:	00008021 	move	s0,zero
    6808:	0a00041d 	j	0x8001074
    680c:	02002021 	move	a0,s0
    6810:	0e0003dd 	jal	0x8000f74
    6814:	01402821 	move	a1,t2
    6818:	02402021 	move	a0,s2
    681c:	0e0003a7 	jal	0x8000e9c
    6820:	00008021 	move	s0,zero
    6824:	0a00041d 	j	0x8001074
    6828:	02002021 	move	a0,s0
    682c:	27bdffe0 	addiu	sp,sp,-32
    6830:	afb20018 	sw	s2,24(sp)
    6834:	3092ffff 	andi	s2,a0,0xffff
    6838:	afb10014 	sw	s1,20(sp)
    683c:	afbf001c 	sw	ra,28(sp)
    6840:	afb00010 	sw	s0,16(sp)
    6844:	1640000d 	bnez	s2,0x687c
    6848:	00008821 	move	s1,zero
    684c:	0a000493 	j	0x800124c
    6850:	02201021 	move	v0,s1
    6854:	24050003 	li	a1,3
    6858:	50850027 	beql	a0,a1,0x68f8
    685c:	8ce5000c 	lw	a1,12(a3)
    6860:	0000000d 	break
    6864:	26280001 	addiu	t0,s1,1
    6868:	3111ffff 	andi	s1,t0,0xffff
    686c:	24e20020 	addiu	v0,a3,32
    6870:	0232802b 	sltu	s0,s1,s2
    6874:	12000019 	beqz	s0,0x68dc
    6878:	af820058 	sw	v0,88(gp)
    687c:	8f820044 	lw	v0,68(gp)
    6880:	14400016 	bnez	v0,0x68dc
    6884:	8f870058 	lw	a3,88(gp)
    6888:	3c067000 	lui	a2,0x7000
    688c:	3c032000 	lui	v1,0x2000
    6890:	8ce50000 	lw	a1,0(a3)
    6894:	00a62024 	and	a0,a1,a2
    6898:	14830010 	bne	a0,v1,0x68dc
    689c:	8f840060 	lw	a0,96(gp)
    68a0:	00054402 	srl	t0,a1,0x10
    68a4:	3c098000 	lui	t1,0x8000
    68a8:	00a98024 	and	s0,a1,t1
    68ac:	1480ffe9 	bnez	a0,0x6854
    68b0:	310600ff 	andi	a2,t0,0xff
    68b4:	2cca000b 	sltiu	t2,a2,11
    68b8:	5140ffeb 	beqzl	t2,0x6868
    68bc:	26280001 	addiu	t0,s1,1
    68c0:	00066880 	sll	t5,a2,0x2
    68c4:	3c0e0800 	lui	t6,0x800
    68c8:	25ce5758 	addiu	t6,t6,22360
    68cc:	01ae6021 	addu	t4,t5,t6
    68d0:	8d8b0000 	lw	t3,0(t4)
    68d4:	01600008 	jr	t3
    68d8:	00000000 	nop
    68dc:	02201021 	move	v0,s1
    68e0:	8fbf001c 	lw	ra,28(sp)
    68e4:	8fb20018 	lw	s2,24(sp)
    68e8:	8fb10014 	lw	s1,20(sp)
    68ec:	8fb00010 	lw	s0,16(sp)
    68f0:	03e00008 	jr	ra
    68f4:	27bd0020 	addiu	sp,sp,32
    68f8:	0e000398 	jal	0x8000e60
    68fc:	24040084 	li	a0,132
    6900:	1600ffd8 	bnez	s0,0x6864
    6904:	8f870058 	lw	a3,88(gp)
    6908:	0a000474 	j	0x80011d0
    690c:	af800060 	sw	zero,96(gp)
    6910:	02002821 	move	a1,s0
    6914:	0e0003bf 	jal	0x8000efc
    6918:	24040001 	li	a0,1
    691c:	8f870058 	lw	a3,88(gp)
    6920:	0a000474 	j	0x80011d0
    6924:	af820060 	sw	v0,96(gp)
    6928:	02002821 	move	a1,s0
    692c:	0e0003bf 	jal	0x8000efc
    6930:	00002021 	move	a0,zero
    6934:	0a0004a3 	j	0x800128c
    6938:	8f870058 	lw	a3,88(gp)
    693c:	0e000404 	jal	0x8001010
    6940:	02002021 	move	a0,s0
    6944:	8f870058 	lw	a3,88(gp)
    6948:	0a000474 	j	0x80011d0
    694c:	af820060 	sw	v0,96(gp)
    6950:	30afffff 	andi	t7,a1,0xffff
    6954:	000f19c0 	sll	v1,t7,0x7
    6958:	3c048000 	lui	a0,0x8000
    695c:	8c9001b8 	lw	s0,440(a0)
    6960:	0600fffe 	bltz	s0,0x695c
    6964:	3c192004 	lui	t9,0x2004
    6968:	3c181000 	lui	t8,0x1000
    696c:	ac830180 	sw	v1,384(a0)
    6970:	ac800184 	sw	zero,388(a0)
    6974:	ac990188 	sw	t9,392(a0)
    6978:	ac9801b8 	sw	t8,440(a0)
    697c:	0a000475 	j	0x80011d4
    6980:	26280001 	addiu	t0,s1,1
    6984:	90e20003 	lbu	v0,3(a3)
    6988:	90e30002 	lbu	v1,2(a3)
    698c:	00002021 	move	a0,zero
    6990:	0002fe00 	sll	ra,v0,0x18
    6994:	00033a00 	sll	a3,v1,0x8
    6998:	00ff2825 	or	a1,a3,ra
    699c:	24060008 	li	a2,8
    69a0:	0e000398 	jal	0x8000e60
    69a4:	00000000 	nop
    69a8:	1600ffdc 	bnez	s0,0x691c
    69ac:	24020003 	li	v0,3
    69b0:	8f870058 	lw	a3,88(gp)
    69b4:	00001021 	move	v0,zero
    69b8:	0a000474 	j	0x80011d0
    69bc:	af820060 	sw	v0,96(gp)
    69c0:	90e80002 	lbu	t0,2(a3)
    69c4:	00002021 	move	a0,zero
    69c8:	24060009 	li	a2,9
    69cc:	0a0004c3 	j	0x800130c
    69d0:	00082e00 	sll	a1,t0,0x18
    69d4:	90e4000c 	lbu	a0,12(a3)
    69d8:	240900ff 	li	t1,255
    69dc:	308500ff 	andi	a1,a0,0xff
    69e0:	10a90015 	beq	a1,t1,0x6a38
    69e4:	00003021 	move	a2,zero
    69e8:	90f90002 	lbu	t9,2(a3)
    69ec:	90f80003 	lbu	t8,3(a3)
    69f0:	308f00ff 	andi	t7,a0,0xff
    69f4:	94eb0004 	lhu	t3,4(a3)
    69f8:	00196e00 	sll	t5,t9,0x18
    69fc:	00187400 	sll	t6,t8,0x10
    6a00:	000f6200 	sll	t4,t7,0x8
    6a04:	01862025 	or	a0,t4,a2
    6a08:	01ae5025 	or	t2,t5,t6
    6a0c:	014b2825 	or	a1,t2,t3
    6a10:	3084ff8b 	andi	a0,a0,0xff8b
    6a14:	0a0004c3 	j	0x800130c
    6a18:	2406000a 	li	a2,10
    6a1c:	90e30002 	lbu	v1,2(a3)
    6a20:	90ff0004 	lbu	ra,4(a3)
    6a24:	00002021 	move	a0,zero
    6a28:	00033600 	sll	a2,v1,0x18
    6a2c:	00df2825 	or	a1,a2,ra
    6a30:	0a0004c3 	j	0x800130c
    6a34:	2406000b 	li	a2,11
    6a38:	0a0004d5 	j	0x8001354
    6a3c:	2406008b 	li	a2,139
    6a40:	000449c2 	srl	t1,a0,0x7
    6a44:	3127003f 	andi	a3,t1,0x3f
    6a48:	00044342 	srl	t0,a0,0xd
    6a4c:	3c028000 	lui	v0,0x8000
    6a50:	00082040 	sll	a0,t0,0x1
    6a54:	24031680 	li	v1,5760
    6a58:	2ce60020 	sltiu	a2,a3,32
    6a5c:	ac43002c 	sw	v1,44(v0)
    6a60:	24eaffe0 	addiu	t2,a3,-32
    6a64:	24820001 	addiu	v0,a0,1
    6a68:	14c00003 	bnez	a2,0x6a78
    6a6c:	30a900ff 	andi	t1,a1,0xff
    6a70:	00801021 	move	v0,a0
    6a74:	314700ff 	andi	a3,t2,0xff
    6a78:	00026080 	sll	t4,v0,0x2
    6a7c:	3c0d8000 	lui	t5,0x8000
    6a80:	240a0001 	li	t2,1
    6a84:	018d2021 	addu	a0,t4,t5
    6a88:	3c0b000e 	lui	t3,0xe
    6a8c:	00ea2804 	sllv	a1,t2,a3
    6a90:	008b3021 	addu	a2,a0,t3
    6a94:	11200005 	beqz	t1,0x6aac
    6a98:	00053827 	nor	a3,zero,a1
    6a9c:	8cce0000 	lw	t6,0(a2)
    6aa0:	01c53825 	or	a3,t6,a1
    6aa4:	03e00008 	jr	ra
    6aa8:	acc70000 	sw	a3,0(a2)
    6aac:	8cd80000 	lw	t8,0(a2)
    6ab0:	03077824 	and	t7,t8,a3
    6ab4:	03e00008 	jr	ra
    6ab8:	accf0000 	sw	t7,0(a2)
    6abc:	27bdffe0 	addiu	sp,sp,-32
    6ac0:	afb10014 	sw	s1,20(sp)
    6ac4:	afb00010 	sw	s0,16(sp)
    6ac8:	afbf0018 	sw	ra,24(sp)
    6acc:	3c076000 	lui	a3,0x6000
    6ad0:	8ce40808 	lw	a0,2056(a3)
    6ad4:	3402f000 	li	v0,0xf000
    6ad8:	3c116000 	lui	s1,0x6000
    6adc:	3083f000 	andi	v1,a0,0xf000
    6ae0:	240501c0 	li	a1,448
    6ae4:	3c04800e 	lui	a0,0x800e
    6ae8:	00003021 	move	a2,zero
    6aec:	10620006 	beq	v1,v0,0x6b08
    6af0:	24100001 	li	s0,1
    6af4:	8cea0808 	lw	t2,2056(a3)
    6af8:	3149f000 	andi	t1,t2,0xf000
    6afc:	3928e000 	xori	t0,t1,0xe000
    6b00:	0008382b 	sltu	a3,zero,t0
    6b04:	00078040 	sll	s0,a3,0x1
    6b08:	3c0d0200 	lui	t5,0x200
    6b0c:	ae2d0814 	sw	t5,2068(s1)
    6b10:	240c1680 	li	t4,5760
    6b14:	3c0b8000 	lui	t3,0x8000
    6b18:	8e274400 	lw	a3,17408(s1)
    6b1c:	0e000f8b 	jal	0x8003e2c
    6b20:	ad6c002c 	sw	t4,44(t3)
    6b24:	12000004 	beqz	s0,0x6b38
    6b28:	3c021691 	lui	v0,0x1691
    6b2c:	24050001 	li	a1,1
    6b30:	12050010 	beq	s0,a1,0x6b74
    6b34:	3c023d2c 	lui	v0,0x3d2c
    6b38:	345800e0 	ori	t8,v0,0xe0
    6b3c:	ae384408 	sw	t8,17416(s1)
    6b40:	3c110800 	lui	s1,0x800
    6b44:	8e31007c 	lw	s1,124(s1)
    6b48:	8fbf0018 	lw	ra,24(sp)
    6b4c:	3c066000 	lui	a2,0x6000
    6b50:	00118540 	sll	s0,s1,0x15
    6b54:	360f1680 	ori	t7,s0,0x1680
    6b58:	8fb10014 	lw	s1,20(sp)
    6b5c:	8fb00010 	lw	s0,16(sp)
    6b60:	3c0e0200 	lui	t6,0x200
    6b64:	27bd0020 	addiu	sp,sp,32
    6b68:	accf4420 	sw	t7,17440(a2)
    6b6c:	03e00008 	jr	ra
    6b70:	acce0810 	sw	t6,2064(a2)
    6b74:	3c0218da 	lui	v0,0x18da
    6b78:	345800e0 	ori	t8,v0,0xe0
    6b7c:	ae384408 	sw	t8,17416(s1)
    6b80:	3c110800 	lui	s1,0x800
    6b84:	8e31007c 	lw	s1,124(s1)
    6b88:	8fbf0018 	lw	ra,24(sp)
    6b8c:	3c066000 	lui	a2,0x6000
    6b90:	00118540 	sll	s0,s1,0x15
    6b94:	360f1680 	ori	t7,s0,0x1680
    6b98:	8fb10014 	lw	s1,20(sp)
    6b9c:	8fb00010 	lw	s0,16(sp)
    6ba0:	3c0e0200 	lui	t6,0x200
    6ba4:	27bd0020 	addiu	sp,sp,32
    6ba8:	accf4420 	sw	t7,17440(a2)
    6bac:	03e00008 	jr	ra
    6bb0:	acce0810 	sw	t6,2064(a2)
    6bb4:	0a0004eb 	j	0x80013ac
    6bb8:	24050001 	li	a1,1
    6bbc:	0a0004eb 	j	0x80013ac
    6bc0:	00002821 	move	a1,zero
    6bc4:	24020400 	li	v0,1024
    6bc8:	a7820024 	sh	v0,36(gp)
    6bcc:	a780001c 	sh	zero,28(gp)
    6bd0:	00002021 	move	a0,zero
    6bd4:	3c060800 	lui	a2,0x800
    6bd8:	24c65a58 	addiu	a2,a2,23128
    6bdc:	2405ffff 	li	a1,-1
    6be0:	24890001 	addiu	t1,a0,1
    6be4:	00044080 	sll	t0,a0,0x2
    6be8:	3124ffff 	andi	a0,t1,0xffff
    6bec:	01061821 	addu	v1,t0,a2
    6bf0:	2c870020 	sltiu	a3,a0,32
    6bf4:	14e0fffa 	bnez	a3,0x6be0
    6bf8:	ac650000 	sw	a1,0(v1)
    6bfc:	24040400 	li	a0,1024
    6c00:	a7840026 	sh	a0,38(gp)
    6c04:	a780001e 	sh	zero,30(gp)
    6c08:	00002021 	move	a0,zero
    6c0c:	3c060800 	lui	a2,0x800
    6c10:	24c65ad8 	addiu	a2,a2,23256
    6c14:	2405ffff 	li	a1,-1
    6c18:	248d0001 	addiu	t5,a0,1
    6c1c:	00046080 	sll	t4,a0,0x2
    6c20:	31a4ffff 	andi	a0,t5,0xffff
    6c24:	01865821 	addu	t3,t4,a2
    6c28:	2c8a0020 	sltiu	t2,a0,32
    6c2c:	1540fffa 	bnez	t2,0x6c18
    6c30:	ad650000 	sw	a1,0(t3)
    6c34:	a7800028 	sh	zero,40(gp)
    6c38:	a7800020 	sh	zero,32(gp)
    6c3c:	a7800022 	sh	zero,34(gp)
    6c40:	00002021 	move	a0,zero
    6c44:	3c060800 	lui	a2,0x800
    6c48:	24c65b58 	addiu	a2,a2,23384
    6c4c:	2405ffff 	li	a1,-1
    6c50:	24990001 	addiu	t9,a0,1
    6c54:	0004c080 	sll	t8,a0,0x2
    6c58:	3324ffff 	andi	a0,t9,0xffff
    6c5c:	03067821 	addu	t7,t8,a2
    6c60:	2c8e0004 	sltiu	t6,a0,4
    6c64:	15c0fffa 	bnez	t6,0x6c50
    6c68:	ade50000 	sw	a1,0(t7)
    6c6c:	3c056000 	lui	a1,0x6000
    6c70:	8ca73d00 	lw	a3,15616(a1)
    6c74:	2403e08f 	li	v1,-8049
    6c78:	00e31024 	and	v0,a3,v1
    6c7c:	34460140 	ori	a2,v0,0x140
    6c80:	03e00008 	jr	ra
    6c84:	aca63d00 	sw	a2,15616(a1)
    6c88:	2487007f 	addiu	a3,a0,127
    6c8c:	000731c2 	srl	a2,a3,0x7
    6c90:	24c5ffff 	addiu	a1,a2,-1
    6c94:	000518c2 	srl	v1,a1,0x3
    6c98:	24640001 	addiu	a0,v1,1
    6c9c:	3082ffff 	andi	v0,a0,0xffff
    6ca0:	000238c0 	sll	a3,v0,0x3
    6ca4:	a7840030 	sh	a0,48(gp)
    6ca8:	3c010800 	lui	at,0x800
    6cac:	ac270030 	sw	a3,48(at)
    6cb0:	af80002c 	sw	zero,44(gp)
    6cb4:	00002821 	move	a1,zero
    6cb8:	00002021 	move	a0,zero
    6cbc:	00003021 	move	a2,zero
    6cc0:	24890001 	addiu	t1,a0,1
    6cc4:	00a72821 	addu	a1,a1,a3
    6cc8:	3124ffff 	andi	a0,t1,0xffff
    6ccc:	2ca81701 	sltiu	t0,a1,5889
    6cd0:	11000003 	beqz	t0,0x6ce0
    6cd4:	2c830080 	sltiu	v1,a0,128
    6cd8:	1460fff9 	bnez	v1,0x6cc0
    6cdc:	24c60001 	addiu	a2,a2,1
    6ce0:	00c02821 	move	a1,a2
    6ce4:	af86002c 	sw	a2,44(gp)
    6ce8:	10c0001d 	beqz	a2,0x6d60
    6cec:	a786002a 	sh	a2,42(gp)
    6cf0:	24caffff 	addiu	t2,a2,-1
    6cf4:	000a1142 	srl	v0,t2,0x5
    6cf8:	3c080800 	lui	t0,0x800
    6cfc:	25085b58 	addiu	t0,t0,23384
    6d00:	1040000a 	beqz	v0,0x6d2c
    6d04:	00002021 	move	a0,zero
    6d08:	00403021 	move	a2,v0
    6d0c:	2407ffff 	li	a3,-1
    6d10:	248e0001 	addiu	t6,a0,1
    6d14:	00046880 	sll	t5,a0,0x2
    6d18:	31c4ffff 	andi	a0,t6,0xffff
    6d1c:	01a86021 	addu	t4,t5,t0
    6d20:	0086582b 	sltu	t3,a0,a2
    6d24:	1560fffa 	bnez	t3,0x6d10
    6d28:	ad870000 	sw	a3,0(t4)
    6d2c:	30a2001f 	andi	v0,a1,0x1f
    6d30:	50400008 	beqzl	v0,0x6d54
    6d34:	00043080 	sll	a2,a0,0x2
    6d38:	24030001 	li	v1,1
    6d3c:	0043c804 	sllv	t9,v1,v0
    6d40:	00041080 	sll	v0,a0,0x2
    6d44:	00487821 	addu	t7,v0,t0
    6d48:	2738ffff 	addiu	t8,t9,-1
    6d4c:	03e00008 	jr	ra
    6d50:	adf80000 	sw	t8,0(t7)
    6d54:	00c82021 	addu	a0,a2,t0
    6d58:	2405ffff 	li	a1,-1
    6d5c:	ac850000 	sw	a1,0(a0)
    6d60:	03e00008 	jr	ra
    6d64:	00000000 	nop
    6d68:	30a5ffff 	andi	a1,a1,0xffff
    6d6c:	30c6ffff 	andi	a2,a2,0xffff
    6d70:	30a8001f 	andi	t0,a1,0x1f
    6d74:	00806021 	move	t4,a0
    6d78:	30e700ff 	andi	a3,a3,0xff
    6d7c:	00052942 	srl	a1,a1,0x5
    6d80:	00005021 	move	t2,zero
    6d84:	10c0001d 	beqz	a2,0x6dfc
    6d88:	24090001 	li	t1,1
    6d8c:	240b0001 	li	t3,1
    6d90:	25180001 	addiu	t8,t0,1
    6d94:	010b2004 	sllv	a0,t3,t0
    6d98:	330800ff 	andi	t0,t8,0xff
    6d9c:	01267826 	xor	t7,t1,a2
    6da0:	390e0020 	xori	t6,t0,0x20
    6da4:	2ded0001 	sltiu	t5,t7,1
    6da8:	2dc20001 	sltiu	v0,t6,1
    6dac:	01a21825 	or	v1,t5,v0
    6db0:	1060000d 	beqz	v1,0x6de8
    6db4:	01445025 	or	t2,t2,a0
    6db8:	0005c880 	sll	t9,a1,0x2
    6dbc:	032c4021 	addu	t0,t9,t4
    6dc0:	01001821 	move	v1,t0
    6dc4:	10e0000f 	beqz	a3,0x6e04
    6dc8:	000a2027 	nor	a0,zero,t2
    6dcc:	8d040000 	lw	a0,0(t0)
    6dd0:	008a1825 	or	v1,a0,t2
    6dd4:	ad030000 	sw	v1,0(t0)
    6dd8:	24ad0001 	addiu	t5,a1,1
    6ddc:	00004021 	move	t0,zero
    6de0:	00005021 	move	t2,zero
    6de4:	31a5ffff 	andi	a1,t5,0xffff
    6de8:	252e0001 	addiu	t6,t1,1
    6dec:	31c9ffff 	andi	t1,t6,0xffff
    6df0:	00c9102b 	sltu	v0,a2,t1
    6df4:	1040ffe7 	beqz	v0,0x6d94
    6df8:	25180001 	addiu	t8,t0,1
    6dfc:	03e00008 	jr	ra
    6e00:	00000000 	nop
    6e04:	8d0a0000 	lw	t2,0(t0)
    6e08:	01444024 	and	t0,t2,a0
    6e0c:	0a0005d1 	j	0x8001744
    6e10:	ac680000 	sw	t0,0(v1)
    6e14:	27bdffe8 	addiu	sp,sp,-24
    6e18:	30a5ffff 	andi	a1,a1,0xffff
    6e1c:	30c6ffff 	andi	a2,a2,0xffff
    6e20:	afb00010 	sw	s0,16(sp)
    6e24:	afbf0014 	sw	ra,20(sp)
    6e28:	30e7ffff 	andi	a3,a3,0xffff
    6e2c:	00005021 	move	t2,zero
    6e30:	3410ffff 	li	s0,0xffff
    6e34:	00006021 	move	t4,zero
    6e38:	24af001f 	addiu	t7,a1,31
    6e3c:	00c04821 	move	t1,a2
    6e40:	24180001 	li	t8,1
    6e44:	24190020 	li	t9,32
    6e48:	05e00016 	bltz	t7,0x6ea4
    6e4c:	01e01021 	move	v0,t7
    6e50:	0002f943 	sra	ra,v0,0x5
    6e54:	019f682a 	slt	t5,t4,ra
    6e58:	0009702b 	sltu	t6,zero,t1
    6e5c:	01ae4024 	and	t0,t5,t6
    6e60:	11000017 	beqz	t0,0x6ec0
    6e64:	000c1880 	sll	v1,t4,0x2
    6e68:	00641021 	addu	v0,v1,a0
    6e6c:	10e00005 	beqz	a3,0x6e84
    6e70:	8c4b0000 	lw	t3,0(v0)
    6e74:	00f84004 	sllv	t0,t8,a3
    6e78:	00083823 	negu	a3,t0
    6e7c:	01675824 	and	t3,t3,a3
    6e80:	00003821 	move	a3,zero
    6e84:	15400041 	bnez	t2,0x6f8c
    6e88:	00004021 	move	t0,zero
    6e8c:	55600016 	bnezl	t3,0x6ee8
    6e90:	3169ffff 	andi	t1,t3,0xffff
    6e94:	258b0001 	addiu	t3,t4,1
    6e98:	316cffff 	andi	t4,t3,0xffff
    6e9c:	05e1ffec 	bgez	t7,0x6e50
    6ea0:	01e01021 	move	v0,t7
    6ea4:	24a2003e 	addiu	v0,a1,62
    6ea8:	0002f943 	sra	ra,v0,0x5
    6eac:	019f682a 	slt	t5,t4,ra
    6eb0:	0009702b 	sltu	t6,zero,t1
    6eb4:	01ae4024 	and	t0,t5,t6
    6eb8:	1500ffeb 	bnez	t0,0x6e68
    6ebc:	000c1880 	sll	v1,t4,0x2
    6ec0:	15460005 	bne	t2,a2,0x6ed8
    6ec4:	3402ffff 	li	v0,0xffff
    6ec8:	02002821 	move	a1,s0
    6ecc:	0e0005b5 	jal	0x80016d4
    6ed0:	00003821 	move	a3,zero
    6ed4:	02001021 	move	v0,s0
    6ed8:	8fbf0014 	lw	ra,20(sp)
    6edc:	8fb00010 	lw	s0,16(sp)
    6ee0:	03e00008 	jr	ra
    6ee4:	27bd0018 	addiu	sp,sp,24
    6ee8:	15200003 	bnez	t1,0x6ef8
    6eec:	01601821 	move	v1,t3
    6ef0:	000b1c02 	srl	v1,t3,0x10
    6ef4:	24080010 	li	t0,16
    6ef8:	306a00ff 	andi	t2,v1,0xff
    6efc:	15400005 	bnez	t2,0x6f14
    6f00:	306e000f 	andi	t6,v1,0xf
    6f04:	250d0008 	addiu	t5,t0,8
    6f08:	00031a02 	srl	v1,v1,0x8
    6f0c:	31a800ff 	andi	t0,t5,0xff
    6f10:	306e000f 	andi	t6,v1,0xf
    6f14:	15c00005 	bnez	t6,0x6f2c
    6f18:	307f0003 	andi	ra,v1,0x3
    6f1c:	25100004 	addiu	s0,t0,4
    6f20:	00031902 	srl	v1,v1,0x4
    6f24:	320800ff 	andi	t0,s0,0xff
    6f28:	307f0003 	andi	ra,v1,0x3
    6f2c:	17e00005 	bnez	ra,0x6f44
    6f30:	38690001 	xori	t1,v1,0x1
    6f34:	25020002 	addiu	v0,t0,2
    6f38:	00031882 	srl	v1,v1,0x2
    6f3c:	304800ff 	andi	t0,v0,0xff
    6f40:	38690001 	xori	t1,v1,0x1
    6f44:	31230001 	andi	v1,t1,0x1
    6f48:	10600004 	beqz	v1,0x6f5c
    6f4c:	310300ff 	andi	v1,t0,0xff
    6f50:	250a0001 	addiu	t2,t0,1
    6f54:	314800ff 	andi	t0,t2,0xff
    6f58:	310300ff 	andi	v1,t0,0xff
    6f5c:	000c6940 	sll	t5,t4,0x5
    6f60:	01a34021 	addu	t0,t5,v1
    6f64:	240a0001 	li	t2,1
    6f68:	10caffd5 	beq	a2,t2,0x6ec0
    6f6c:	3110ffff 	andi	s0,t0,0xffff
    6f70:	246e0001 	addiu	t6,v1,1
    6f74:	31c800ff 	andi	t0,t6,0xff
    6f78:	1119ffc6 	beq	t0,t9,0x6e94
    6f7c:	38c90001 	xori	t1,a2,0x1
    6f80:	2d1f0020 	sltiu	ra,t0,32
    6f84:	53e0001c 	beqzl	ra,0x6ff8
    6f88:	258b0001 	addiu	t3,t4,1
    6f8c:	240d0001 	li	t5,1
    6f90:	0a000648 	j	0x8001920
    6f94:	240e0020 	li	t6,32
    6f98:	51460017 	beql	t2,a2,0x6ff8
    6f9c:	258b0001 	addiu	t3,t4,1
    6fa0:	25090001 	addiu	t1,t0,1
    6fa4:	312800ff 	andi	t0,t1,0xff
    6fa8:	2d090020 	sltiu	t1,t0,32
    6fac:	51200012 	beqzl	t1,0x6ff8
    6fb0:	258b0001 	addiu	t3,t4,1
    6fb4:	25430001 	addiu	v1,t2,1
    6fb8:	010d5004 	sllv	t2,t5,t0
    6fbc:	014b1024 	and	v0,t2,t3
    6fc0:	25090001 	addiu	t1,t0,1
    6fc4:	1440fff4 	bnez	v0,0x6f98
    6fc8:	306affff 	andi	t2,v1,0xffff
    6fcc:	3127ffff 	andi	a3,t1,0xffff
    6fd0:	10ee000c 	beq	a3,t6,0x7004
    6fd4:	2582ffff 	addiu	v0,t4,-1
    6fd8:	304cffff 	andi	t4,v0,0xffff
    6fdc:	00005021 	move	t2,zero
    6fe0:	3410ffff 	li	s0,0xffff
    6fe4:	312800ff 	andi	t0,t1,0xff
    6fe8:	2d090020 	sltiu	t1,t0,32
    6fec:	5520fff2 	bnezl	t1,0x6fb8
    6ff0:	25430001 	addiu	v1,t2,1
    6ff4:	258b0001 	addiu	t3,t4,1
    6ff8:	01464826 	xor	t1,t2,a2
    6ffc:	0a000602 	j	0x8001808
    7000:	316cffff 	andi	t4,t3,0xffff
    7004:	00003821 	move	a3,zero
    7008:	00005021 	move	t2,zero
    700c:	0a000654 	j	0x8001950
    7010:	3410ffff 	li	s0,0xffff
    7014:	27bdffd8 	addiu	sp,sp,-40
    7018:	afb00010 	sw	s0,16(sp)
    701c:	30f0ffff 	andi	s0,a3,0xffff
    7020:	afb10014 	sw	s1,20(sp)
    7024:	00103942 	srl	a3,s0,0x5
    7028:	3211ffe0 	andi	s1,s0,0xffe0
    702c:	00071080 	sll	v0,a3,0x2
    7030:	afb3001c 	sw	s3,28(sp)
    7034:	00b12823 	subu	a1,a1,s1
    7038:	30d3ffff 	andi	s3,a2,0xffff
    703c:	afb20018 	sw	s2,24(sp)
    7040:	30a5ffff 	andi	a1,a1,0xffff
    7044:	00809021 	move	s2,a0
    7048:	02603021 	move	a2,s3
    704c:	00442021 	addu	a0,v0,a0
    7050:	afbf0020 	sw	ra,32(sp)
    7054:	0e0005e0 	jal	0x8001780
    7058:	3207001f 	andi	a3,s0,0x1f
    705c:	02228821 	addu	s1,s1,v0
    7060:	3403ffff 	li	v1,0xffff
    7064:	02402021 	move	a0,s2
    7068:	02002821 	move	a1,s0
    706c:	02603021 	move	a2,s3
    7070:	00003821 	move	a3,zero
    7074:	10430009 	beq	v0,v1,0x709c
    7078:	3231ffff 	andi	s1,s1,0xffff
    707c:	02201021 	move	v0,s1
    7080:	8fbf0020 	lw	ra,32(sp)
    7084:	8fb3001c 	lw	s3,28(sp)
    7088:	8fb20018 	lw	s2,24(sp)
    708c:	8fb10014 	lw	s1,20(sp)
    7090:	8fb00010 	lw	s0,16(sp)
    7094:	03e00008 	jr	ra
    7098:	27bd0028 	addiu	sp,sp,40
    709c:	0e0005e0 	jal	0x8001780
    70a0:	00000000 	nop
    70a4:	00408821 	move	s1,v0
    70a8:	02201021 	move	v0,s1
    70ac:	8fbf0020 	lw	ra,32(sp)
    70b0:	8fb3001c 	lw	s3,28(sp)
    70b4:	8fb20018 	lw	s2,24(sp)
    70b8:	8fb10014 	lw	s1,20(sp)
    70bc:	8fb00010 	lw	s0,16(sp)
    70c0:	03e00008 	jr	ra
    70c4:	27bd0028 	addiu	sp,sp,40
    70c8:	00042400 	sll	a0,a0,0x10
    70cc:	3c036000 	lui	v1,0x6000
    70d0:	ac603d08 	sw	zero,15624(v1)
    70d4:	10a00002 	beqz	a1,0x70e0
    70d8:	34821006 	ori	v0,a0,0x1006
    70dc:	34821016 	ori	v0,a0,0x1016
    70e0:	03e00008 	jr	ra
    70e4:	ac623d04 	sw	v0,15620(v1)
    70e8:	27bdffe0 	addiu	sp,sp,-32
    70ec:	afb00010 	sw	s0,16(sp)
    70f0:	309000ff 	andi	s0,a0,0xff
    70f4:	2e020006 	sltiu	v0,s0,6
    70f8:	afbf0018 	sw	ra,24(sp)
    70fc:	10400008 	beqz	v0,0x7120
    7100:	afb10014 	sw	s1,20(sp)
    7104:	00103080 	sll	a2,s0,0x2
    7108:	3c030800 	lui	v1,0x800
    710c:	24635784 	addiu	v1,v1,22404
    7110:	00c32821 	addu	a1,a2,v1
    7114:	8ca40000 	lw	a0,0(a1)
    7118:	00800008 	jr	a0
    711c:	00000000 	nop
    7120:	00002021 	move	a0,zero
    7124:	8fbf0018 	lw	ra,24(sp)
    7128:	8fb10014 	lw	s1,20(sp)
    712c:	8fb00010 	lw	s0,16(sp)
    7130:	00801021 	move	v0,a0
    7134:	03e00008 	jr	ra
    7138:	27bd0020 	addiu	sp,sp,32
    713c:	9791002a 	lhu	s1,42(gp)
    7140:	16200051 	bnez	s1,0x7288
    7144:	00002021 	move	a0,zero
    7148:	3c020800 	lui	v0,0x800
    714c:	90420033 	lbu	v0,51(v0)
    7150:	0a0006bb 	j	0x8001aec
    7154:	00000000 	nop
    7158:	978d0026 	lhu	t5,38(gp)
    715c:	15a00031 	bnez	t5,0x7224
    7160:	00002021 	move	a0,zero
    7164:	0a0006bb 	j	0x8001aec
    7168:	24020008 	li	v0,8
    716c:	97870024 	lhu	a3,36(gp)
    7170:	14e0001a 	bnez	a3,0x71dc
    7174:	00001821 	move	v1,zero
    7178:	00602021 	move	a0,v1
    717c:	24020001 	li	v0,1
    7180:	1080ffe9 	beqz	a0,0x7128
    7184:	8fbf0018 	lw	ra,24(sp)
    7188:	000429c2 	srl	a1,a0,0x7
    718c:	00453021 	addu	a2,v0,a1
    7190:	00a6582b 	sltu	t3,a1,a2
    7194:	1160ffe4 	beqz	t3,0x7128
    7198:	3c088000 	lui	t0,0x8000
    719c:	3c072000 	lui	a3,0x2000
    71a0:	000569c0 	sll	t5,a1,0x7
    71a4:	01a76025 	or	t4,t5,a3
    71a8:	ad0c0020 	sw	t4,32(t0)
    71ac:	3c038008 	lui	v1,0x8008
    71b0:	2402001f 	li	v0,31
    71b4:	2442ffff 	addiu	v0,v0,-1
    71b8:	ac600000 	sw	zero,0(v1)
    71bc:	0441fffd 	bgez	v0,0x71b4
    71c0:	24630004 	addiu	v1,v1,4
    71c4:	24a50001 	addiu	a1,a1,1
    71c8:	00a6702b 	sltu	t6,a1,a2
    71cc:	15c0fff5 	bnez	t6,0x71a4
    71d0:	000569c0 	sll	t5,a1,0x7
    71d4:	0a0006a5 	j	0x8001a94
    71d8:	8fbf0018 	lw	ra,24(sp)
    71dc:	9787001c 	lhu	a3,28(gp)
    71e0:	3c040800 	lui	a0,0x800
    71e4:	24845a58 	addiu	a0,a0,23128
    71e8:	24050400 	li	a1,1024
    71ec:	0e000660 	jal	0x8001980
    71f0:	24060001 	li	a2,1
    71f4:	978b0024 	lhu	t3,36(gp)
    71f8:	24440001 	addiu	a0,v0,1
    71fc:	308affff 	andi	t2,a0,0xffff
    7200:	2569ffff 	addiu	t1,t3,-1
    7204:	2d480400 	sltiu	t0,t2,1024
    7208:	00402821 	move	a1,v0
    720c:	15000040 	bnez	t0,0x7310
    7210:	a7890024 	sh	t1,36(gp)
    7214:	24ac3800 	addiu	t4,a1,14336
    7218:	000c19c0 	sll	v1,t4,0x7
    721c:	0a0006b9 	j	0x8001ae4
    7220:	a780001c 	sh	zero,28(gp)
    7224:	9787001e 	lhu	a3,30(gp)
    7228:	3c040800 	lui	a0,0x800
    722c:	24845ad8 	addiu	a0,a0,23256
    7230:	24050400 	li	a1,1024
    7234:	0e000660 	jal	0x8001980
    7238:	24060001 	li	a2,1
    723c:	97990026 	lhu	t9,38(gp)
    7240:	24440001 	addiu	a0,v0,1
    7244:	3098ffff 	andi	t8,a0,0xffff
    7248:	272fffff 	addiu	t7,t9,-1
    724c:	2f0e0400 	sltiu	t6,t8,1024
    7250:	00408821 	move	s1,v0
    7254:	15c0002c 	bnez	t6,0x7308
    7258:	a78f0026 	sh	t7,38(gp)
    725c:	a780001e 	sh	zero,30(gp)
    7260:	3a020003 	xori	v0,s0,0x3
    7264:	26240100 	addiu	a0,s1,256
    7268:	3084ffff 	andi	a0,a0,0xffff
    726c:	0e00068d 	jal	0x8001a34
    7270:	2c450001 	sltiu	a1,v0,1
    7274:	0011f8c0 	sll	ra,s1,0x3
    7278:	27f00100 	addiu	s0,ra,256
    727c:	001021c0 	sll	a0,s0,0x7
    7280:	0a0006bb 	j	0x8001aec
    7284:	24020008 	li	v0,8
    7288:	9785002e 	lhu	a1,46(gp)
    728c:	97870022 	lhu	a3,34(gp)
    7290:	3c040800 	lui	a0,0x800
    7294:	24845b58 	addiu	a0,a0,23384
    7298:	0e000660 	jal	0x8001980
    729c:	24060001 	li	a2,1
    72a0:	9787002a 	lhu	a3,42(gp)
    72a4:	8f89002c 	lw	t1,44(gp)
    72a8:	24450001 	addiu	a1,v0,1
    72ac:	30a8ffff 	andi	t0,a1,0xffff
    72b0:	24e3ffff 	addiu	v1,a3,-1
    72b4:	0109302b 	sltu	a2,t0,t1
    72b8:	00408021 	move	s0,v0
    72bc:	14c00018 	bnez	a2,0x7320
    72c0:	a783002a 	sh	v1,42(gp)
    72c4:	a7800022 	sh	zero,34(gp)
    72c8:	97850030 	lhu	a1,48(gp)
    72cc:	0e000f75 	jal	0x8003dd4
    72d0:	02002021 	move	a0,s0
    72d4:	244a0500 	addiu	t2,v0,1280
    72d8:	3144ffff 	andi	a0,t2,0xffff
    72dc:	0e00068d 	jal	0x8001a34
    72e0:	24050001 	li	a1,1
    72e4:	3c050800 	lui	a1,0x800
    72e8:	94a50032 	lhu	a1,50(a1)
    72ec:	0e000f75 	jal	0x8003dd4
    72f0:	02002021 	move	a0,s0
    72f4:	24452100 	addiu	a1,v0,8448
    72f8:	3c020800 	lui	v0,0x800
    72fc:	90420033 	lbu	v0,51(v0)
    7300:	0a0006bb 	j	0x8001aec
    7304:	000521c0 	sll	a0,a1,0x7
    7308:	0a0006f3 	j	0x8001bcc
    730c:	a784001e 	sh	a0,30(gp)
    7310:	24ac3800 	addiu	t4,a1,14336
    7314:	000c19c0 	sll	v1,t4,0x7
    7318:	0a0006b9 	j	0x8001ae4
    731c:	a784001c 	sh	a0,28(gp)
    7320:	0a00070d 	j	0x8001c34
    7324:	a7850022 	sh	a1,34(gp)
    7328:	308400ff 	andi	a0,a0,0xff
    732c:	27bdffe8 	addiu	sp,sp,-24
    7330:	2c820006 	sltiu	v0,a0,6
    7334:	afbf0014 	sw	ra,20(sp)
    7338:	afb00010 	sw	s0,16(sp)
    733c:	10400015 	beqz	v0,0x7394
    7340:	00a03821 	move	a3,a1
    7344:	00044080 	sll	t0,a0,0x2
    7348:	3c030800 	lui	v1,0x800
    734c:	2463579c 	addiu	v1,v1,22428
    7350:	01032821 	addu	a1,t0,v1
    7354:	8ca40000 	lw	a0,0(a1)
    7358:	00800008 	jr	a0
    735c:	00000000 	nop
    7360:	24cc007f 	addiu	t4,a2,127
    7364:	000751c2 	srl	t2,a3,0x7
    7368:	000c59c2 	srl	t3,t4,0x7
    736c:	3170ffff 	andi	s0,t3,0xffff
    7370:	2547c400 	addiu	a3,t2,-15360
    7374:	30e5ffff 	andi	a1,a3,0xffff
    7378:	2784001c 	addiu	a0,gp,28
    737c:	02003021 	move	a2,s0
    7380:	0e0005b5 	jal	0x80016d4
    7384:	24070001 	li	a3,1
    7388:	97860028 	lhu	a2,40(gp)
    738c:	02062021 	addu	a0,s0,a2
    7390:	a7840028 	sh	a0,40(gp)
    7394:	8fbf0014 	lw	ra,20(sp)
    7398:	8fb00010 	lw	s0,16(sp)
    739c:	03e00008 	jr	ra
    73a0:	27bd0018 	addiu	sp,sp,24
    73a4:	3c050800 	lui	a1,0x800
    73a8:	8ca50030 	lw	a1,48(a1)
    73ac:	000779c2 	srl	t7,a3,0x7
    73b0:	0e000381 	jal	0x8000e04
    73b4:	25e4df00 	addiu	a0,t7,-8448
    73b8:	3045ffff 	andi	a1,v0,0xffff
    73bc:	3c040800 	lui	a0,0x800
    73c0:	24845b58 	addiu	a0,a0,23384
    73c4:	24060001 	li	a2,1
    73c8:	0e0005b5 	jal	0x80016d4
    73cc:	24070001 	li	a3,1
    73d0:	978e002a 	lhu	t6,42(gp)
    73d4:	8fbf0014 	lw	ra,20(sp)
    73d8:	8fb00010 	lw	s0,16(sp)
    73dc:	25cd0001 	addiu	t5,t6,1
    73e0:	27bd0018 	addiu	sp,sp,24
    73e4:	03e00008 	jr	ra
    73e8:	a78d002a 	sh	t5,42(gp)
    73ec:	0007c9c2 	srl	t9,a3,0x7
    73f0:	2738ff00 	addiu	t8,t9,-256
    73f4:	001878c2 	srl	t7,t8,0x3
    73f8:	31f0ffff 	andi	s0,t7,0xffff
    73fc:	3c040800 	lui	a0,0x800
    7400:	24845ad8 	addiu	a0,a0,23256
    7404:	02002821 	move	a1,s0
    7408:	24060001 	li	a2,1
    740c:	0e0005b5 	jal	0x80016d4
    7410:	24070001 	li	a3,1
    7414:	978d0026 	lhu	t5,38(gp)
    7418:	260e0100 	addiu	t6,s0,256
    741c:	000e8400 	sll	s0,t6,0x10
    7420:	25ac0001 	addiu	t4,t5,1
    7424:	3c0b6000 	lui	t3,0x6000
    7428:	a78c0026 	sh	t4,38(gp)
    742c:	ad603d08 	sw	zero,15624(t3)
    7430:	36040006 	ori	a0,s0,0x6
    7434:	00003021 	move	a2,zero
    7438:	3c076000 	lui	a3,0x6000
    743c:	8ce23d04 	lw	v0,15620(a3)
    7440:	305f0006 	andi	ra,v0,0x6
    7444:	17e0fffd 	bnez	ra,0x743c
    7448:	24c90001 	addiu	t1,a2,1
    744c:	00061b00 	sll	v1,a2,0xc
    7450:	312600ff 	andi	a2,t1,0xff
    7454:	00644025 	or	t0,v1,a0
    7458:	2cc50004 	sltiu	a1,a2,4
    745c:	ace83d04 	sw	t0,15620(a3)
    7460:	14a0fff6 	bnez	a1,0x743c
    7464:	8fbf0014 	lw	ra,20(sp)
    7468:	8fb00010 	lw	s0,16(sp)
    746c:	03e00008 	jr	ra
    7470:	27bd0018 	addiu	sp,sp,24
    7474:	000751c2 	srl	t2,a3,0x7
    7478:	2549c800 	addiu	t1,t2,-14336
    747c:	24060001 	li	a2,1
    7480:	24070001 	li	a3,1
    7484:	3c040800 	lui	a0,0x800
    7488:	24845a58 	addiu	a0,a0,23128
    748c:	0e0005b5 	jal	0x80016d4
    7490:	3125ffff 	andi	a1,t1,0xffff
    7494:	97870024 	lhu	a3,36(gp)
    7498:	8fbf0014 	lw	ra,20(sp)
    749c:	8fb00010 	lw	s0,16(sp)
    74a0:	24e60001 	addiu	a2,a3,1
    74a4:	27bd0018 	addiu	sp,sp,24
    74a8:	03e00008 	jr	ra
    74ac:	a7860024 	sh	a2,36(gp)
    74b0:	3c066018 	lui	a2,0x6018
    74b4:	3c090800 	lui	t1,0x800
    74b8:	252900fc 	addiu	t1,t1,252
    74bc:	acc9502c 	sw	t1,20524(a2)
    74c0:	8cc85000 	lw	t0,20480(a2)
    74c4:	3c058000 	lui	a1,0x8000
    74c8:	3c020002 	lui	v0,0x2
    74cc:	35070080 	ori	a3,t0,0x80
    74d0:	acc75000 	sw	a3,20480(a2)
    74d4:	3c040800 	lui	a0,0x800
    74d8:	24841fe0 	addiu	a0,a0,8160
    74dc:	3c030800 	lui	v1,0x800
    74e0:	24631f98 	addiu	v1,v1,8088
    74e4:	aca50008 	sw	a1,8(a1)
    74e8:	aca2000c 	sw	v0,12(a1)
    74ec:	3c010800 	lui	at,0x800
    74f0:	ac2459a4 	sw	a0,22948(at)
    74f4:	3c010800 	lui	at,0x800
    74f8:	ac2359a8 	sw	v1,22952(at)
    74fc:	03e00008 	jr	ra
    7500:	24020001 	li	v0,1
    7504:	00a03021 	move	a2,a1
    7508:	3c1c0800 	lui	gp,0x800
    750c:	279c59ac 	addiu	gp,gp,22956
    7510:	3c0c0400 	lui	t4,0x400
    7514:	3c0b0002 	lui	t3,0x2
    7518:	008b3826 	xor	a3,a0,t3
    751c:	008c4026 	xor	t0,a0,t4
    7520:	2ce20001 	sltiu	v0,a3,1
    7524:	0007502b 	sltu	t2,zero,a3
    7528:	2d050001 	sltiu	a1,t0,1
    752c:	000a4880 	sll	t1,t2,0x2
    7530:	3c030800 	lui	v1,0x800
    7534:	246359a4 	addiu	v1,v1,22948
    7538:	00452025 	or	a0,v0,a1
    753c:	01231821 	addu	v1,t1,v1
    7540:	10800003 	beqz	a0,0x7550
    7544:	00001021 	move	v0,zero
    7548:	ac660000 	sw	a2,0(v1)
    754c:	24020001 	li	v0,1
    7550:	03e00008 	jr	ra
    7554:	00000000 	nop
    7558:	3c1c0800 	lui	gp,0x800
    755c:	279c59ac 	addiu	gp,gp,22956
    7560:	3c0b0400 	lui	t3,0x400
    7564:	3c0a0002 	lui	t2,0x2
    7568:	008a3026 	xor	a2,a0,t2
    756c:	008b3826 	xor	a3,a0,t3
    7570:	2cc20001 	sltiu	v0,a2,1
    7574:	0006482b 	sltu	t1,zero,a2
    7578:	2ce50001 	sltiu	a1,a3,1
    757c:	00094080 	sll	t0,t1,0x2
    7580:	3c030800 	lui	v1,0x800
    7584:	246359a4 	addiu	v1,v1,22948
    7588:	00452025 	or	a0,v0,a1
    758c:	01031821 	addu	v1,t0,v1
    7590:	10800005 	beqz	a0,0x75a8
    7594:	00001021 	move	v0,zero
    7598:	3c0c0800 	lui	t4,0x800
    759c:	258c1f98 	addiu	t4,t4,8088
    75a0:	ac6c0000 	sw	t4,0(v1)
    75a4:	24020001 	li	v0,1
    75a8:	03e00008 	jr	ra
    75ac:	00000000 	nop
    75b0:	3c090002 	lui	t1,0x2
    75b4:	3c080400 	lui	t0,0x400
    75b8:	00883026 	xor	a2,a0,t0
    75bc:	00893826 	xor	a3,a0,t1
    75c0:	2cc30001 	sltiu	v1,a2,1
    75c4:	00802821 	move	a1,a0
    75c8:	2ce40001 	sltiu	a0,a3,1
    75cc:	00831025 	or	v0,a0,v1
    75d0:	1040000b 	beqz	v0,0x7600
    75d4:	00003021 	move	a2,zero
    75d8:	3c1c0800 	lui	gp,0x800
    75dc:	279c59ac 	addiu	gp,gp,22956
    75e0:	3c0a8000 	lui	t2,0x8000
    75e4:	8d4e0008 	lw	t6,8(t2)
    75e8:	24060001 	li	a2,1
    75ec:	01ca6825 	or	t5,t6,t2
    75f0:	ad4d0008 	sw	t5,8(t2)
    75f4:	8d4c000c 	lw	t4,12(t2)
    75f8:	01855825 	or	t3,t4,a1
    75fc:	ad4b000c 	sw	t3,12(t2)
    7600:	03e00008 	jr	ra
    7604:	00c01021 	move	v0,a2
    7608:	3c1c0800 	lui	gp,0x800
    760c:	279c59ac 	addiu	gp,gp,22956
    7610:	3c058000 	lui	a1,0x8000
    7614:	8ca6000c 	lw	a2,12(a1)
    7618:	00042027 	nor	a0,zero,a0
    761c:	24020001 	li	v0,1
    7620:	00c41824 	and	v1,a2,a0
    7624:	03e00008 	jr	ra
    7628:	aca3000c 	sw	v1,12(a1)
    762c:	3c020002 	lui	v0,0x2
    7630:	1082000b 	beq	a0,v0,0x7660
    7634:	3c056000 	lui	a1,0x6000
    7638:	3c070400 	lui	a3,0x400
    763c:	10870003 	beq	a0,a3,0x764c
    7640:	00000000 	nop
    7644:	03e00008 	jr	ra
    7648:	00000000 	nop
    764c:	8ca908d0 	lw	t1,2256(a1)
    7650:	240afffd 	li	t2,-3
    7654:	012a4024 	and	t0,t1,t2
    7658:	03e00008 	jr	ra
    765c:	aca808d0 	sw	t0,2256(a1)
    7660:	8ca408d0 	lw	a0,2256(a1)
    7664:	2406fffe 	li	a2,-2
    7668:	00861824 	and	v1,a0,a2
    766c:	03e00008 	jr	ra
    7670:	aca308d0 	sw	v1,2256(a1)
    7674:	3c05601a 	lui	a1,0x601a
    7678:	34a60010 	ori	a2,a1,0x10
    767c:	8cc30080 	lw	v1,128(a2)
    7680:	27bdfff8 	addiu	sp,sp,-8
    7684:	8cc50084 	lw	a1,132(a2)
    7688:	afa30000 	sw	v1,0(sp)
    768c:	93a40000 	lbu	a0,0(sp)
    7690:	24020010 	li	v0,16
    7694:	10820003 	beq	a0,v0,0x76a4
    7698:	afa50004 	sw	a1,4(sp)
    769c:	03e00008 	jr	ra
    76a0:	27bd0008 	addiu	sp,sp,8
    76a4:	93a70001 	lbu	a3,1(sp)
    76a8:	14e00014 	bnez	a3,0x76fc
    76ac:	97ac0002 	lhu	t4,2(sp)
    76b0:	97b80002 	lhu	t8,2(sp)
    76b4:	3c0f8000 	lui	t7,0x8000
    76b8:	330efffc 	andi	t6,t8,0xfffc
    76bc:	01cf6821 	addu	t5,t6,t7
    76c0:	ada50000 	sw	a1,0(t5)
    76c4:	a3a00000 	sb	zero,0(sp)
    76c8:	3c066000 	lui	a2,0x6000
    76cc:	8cc708d0 	lw	a3,2256(a2)
    76d0:	2408fffe 	li	t0,-2
    76d4:	3c04601a 	lui	a0,0x601a
    76d8:	00e82824 	and	a1,a3,t0
    76dc:	acc508d0 	sw	a1,2256(a2)
    76e0:	8fa30004 	lw	v1,4(sp)
    76e4:	8fa20000 	lw	v0,0(sp)
    76e8:	34990010 	ori	t9,a0,0x10
    76ec:	27bd0008 	addiu	sp,sp,8
    76f0:	af220080 	sw	v0,128(t9)
    76f4:	03e00008 	jr	ra
    76f8:	af230084 	sw	v1,132(t9)
    76fc:	3c0b8000 	lui	t3,0x8000
    7700:	318afffc 	andi	t2,t4,0xfffc
    7704:	014b4821 	addu	t1,t2,t3
    7708:	8d280000 	lw	t0,0(t1)
    770c:	0a00080c 	j	0x8002030
    7710:	afa80004 	sw	t0,4(sp)
    7714:	27bdffe8 	addiu	sp,sp,-24
    7718:	afbf0010 	sw	ra,16(sp)
    771c:	3c1c0800 	lui	gp,0x800
    7720:	279c59ac 	addiu	gp,gp,22956
    7724:	3c058000 	lui	a1,0x8000
    7728:	8ca4000c 	lw	a0,12(a1)
    772c:	8ca20004 	lw	v0,4(a1)
    7730:	3c030002 	lui	v1,0x2
    7734:	00442824 	and	a1,v0,a0
    7738:	10a0000a 	beqz	a1,0x7764
    773c:	00a31824 	and	v1,a1,v1
    7740:	3c060400 	lui	a2,0x400
    7744:	3c040002 	lui	a0,0x2
    7748:	14600009 	bnez	v1,0x7770
    774c:	00a61024 	and	v0,a1,a2
    7750:	1440000f 	bnez	v0,0x7790
    7754:	3c040400 	lui	a0,0x400
    7758:	0000000d 	break
    775c:	3c1c0800 	lui	gp,0x800
    7760:	279c59ac 	addiu	gp,gp,22956
    7764:	8fbf0010 	lw	ra,16(sp)
    7768:	03e00008 	jr	ra
    776c:	27bd0018 	addiu	sp,sp,24
    7770:	3c020800 	lui	v0,0x800
    7774:	8c4259a4 	lw	v0,22948(v0)
    7778:	0040f809 	jalr	v0
    777c:	00000000 	nop
    7780:	3c1c0800 	lui	gp,0x800
    7784:	279c59ac 	addiu	gp,gp,22956
    7788:	0a000835 	j	0x80020d4
    778c:	8fbf0010 	lw	ra,16(sp)
    7790:	3c020800 	lui	v0,0x800
    7794:	8c4259a8 	lw	v0,22952(v0)
    7798:	0040f809 	jalr	v0
    779c:	00000000 	nop
    77a0:	0a00083b 	j	0x80020ec
    77a4:	00000000 	nop
    77a8:	3c088000 	lui	t0,0x8000
    77ac:	8d0201b8 	lw	v0,440(t0)
    77b0:	0440fffe 	bltz	v0,0x77ac
    77b4:	35090180 	ori	t1,t0,0x180
    77b8:	ad240000 	sw	a0,0(t1)
    77bc:	3c031000 	lui	v1,0x1000
    77c0:	24040040 	li	a0,64
    77c4:	ad250004 	sw	a1,4(t1)
    77c8:	a1240008 	sb	a0,8(t1)
    77cc:	a1260009 	sb	a2,9(t1)
    77d0:	a527000a 	sh	a3,10(t1)
    77d4:	03e00008 	jr	ra
    77d8:	ad0301b8 	sw	v1,440(t0)
    77dc:	3084ffff 	andi	a0,a0,0xffff
    77e0:	00803821 	move	a3,a0
    77e4:	30a5ffff 	andi	a1,a1,0xffff
    77e8:	00002021 	move	a0,zero
    77ec:	0a000845 	j	0x8002114
    77f0:	24060080 	li	a2,128
    77f4:	3087ffff 	andi	a3,a0,0xffff
    77f8:	8ca40000 	lw	a0,0(a1)
    77fc:	24060038 	li	a2,56
    7800:	0a000845 	j	0x8002114
    7804:	00002821 	move	a1,zero
    7808:	8f830078 	lw	v1,120(gp)
    780c:	8f860070 	lw	a2,112(gp)
    7810:	1066000b 	beq	v1,a2,0x7840
    7814:	00804021 	move	t0,a0
    7818:	3c070800 	lui	a3,0x800
    781c:	24e75b68 	addiu	a3,a3,23400
    7820:	000328c0 	sll	a1,v1,0x3
    7824:	00a71021 	addu	v0,a1,a3
    7828:	8c440000 	lw	a0,0(v0)
    782c:	24630001 	addiu	v1,v1,1
    7830:	10880005 	beq	a0,t0,0x7848
    7834:	3063000f 	andi	v1,v1,0xf
    7838:	5466fffa 	bnel	v1,a2,0x7824
    783c:	000328c0 	sll	a1,v1,0x3
    7840:	03e00008 	jr	ra
    7844:	00001021 	move	v0,zero
    7848:	3c070800 	lui	a3,0x800
    784c:	24e75b6c 	addiu	a3,a3,23404
    7850:	00a73021 	addu	a2,a1,a3
    7854:	03e00008 	jr	ra
    7858:	8cc20000 	lw	v0,0(a2)
    785c:	3c039000 	lui	v1,0x9000
    7860:	34620001 	ori	v0,v1,0x1
    7864:	00822025 	or	a0,a0,v0
    7868:	3c038000 	lui	v1,0x8000
    786c:	ac640020 	sw	a0,32(v1)
    7870:	8c650020 	lw	a1,32(v1)
    7874:	04a0fffe 	bltz	a1,0x7870
    7878:	00000000 	nop
    787c:	03e00008 	jr	ra
    7880:	00000000 	nop
    7884:	3c028000 	lui	v0,0x8000
    7888:	34430001 	ori	v1,v0,0x1
    788c:	00832025 	or	a0,a0,v1
    7890:	03e00008 	jr	ra
    7894:	ac440020 	sw	a0,32(v0)
    7898:	27bdffe0 	addiu	sp,sp,-32
    789c:	afb10014 	sw	s1,20(sp)
    78a0:	3091ffff 	andi	s1,a0,0xffff
    78a4:	afb00010 	sw	s0,16(sp)
    78a8:	afbf0018 	sw	ra,24(sp)
    78ac:	12200013 	beqz	s1,0x78fc
    78b0:	00a08021 	move	s0,a1
    78b4:	8ca20000 	lw	v0,0(a1)
    78b8:	24040002 	li	a0,2
    78bc:	24060200 	li	a2,512
    78c0:	1040000f 	beqz	v0,0x7900
    78c4:	00402821 	move	a1,v0
    78c8:	0e000725 	jal	0x8001c94
    78cc:	00000000 	nop
    78d0:	00001021 	move	v0,zero
    78d4:	ae000000 	sw	zero,0(s0)
    78d8:	02203821 	move	a3,s1
    78dc:	8fbf0018 	lw	ra,24(sp)
    78e0:	8fb10014 	lw	s1,20(sp)
    78e4:	8fb00010 	lw	s0,16(sp)
    78e8:	00402021 	move	a0,v0
    78ec:	00002821 	move	a1,zero
    78f0:	00003021 	move	a2,zero
    78f4:	0a000845 	j	0x8002114
    78f8:	27bd0020 	addiu	sp,sp,32
    78fc:	8ca20000 	lw	v0,0(a1)
    7900:	02203821 	move	a3,s1
    7904:	8fbf0018 	lw	ra,24(sp)
    7908:	8fb10014 	lw	s1,20(sp)
    790c:	8fb00010 	lw	s0,16(sp)
    7910:	00402021 	move	a0,v0
    7914:	00002821 	move	a1,zero
    7918:	00003021 	move	a2,zero
    791c:	0a000845 	j	0x8002114
    7920:	27bd0020 	addiu	sp,sp,32
    7924:	00a01021 	move	v0,a1
    7928:	3087ffff 	andi	a3,a0,0xffff
    792c:	8ca50004 	lw	a1,4(a1)
    7930:	8c440000 	lw	a0,0(v0)
    7934:	0a000845 	j	0x8002114
    7938:	24060006 	li	a2,6
    793c:	8f83fd9c 	lw	v1,-612(gp)
    7940:	27bdffe8 	addiu	sp,sp,-24
    7944:	afbf0014 	sw	ra,20(sp)
    7948:	afb00010 	sw	s0,16(sp)
    794c:	90670008 	lbu	a3,8(v1)
    7950:	00801021 	move	v0,a0
    7954:	00802821 	move	a1,a0
    7958:	30e60040 	andi	a2,a3,0x40
    795c:	00002021 	move	a0,zero
    7960:	10c00008 	beqz	a2,0x7984
    7964:	8c500000 	lw	s0,0(v0)
    7968:	0e0000bd 	jal	0x80002f4
    796c:	02002021 	move	a0,s0
    7970:	02002021 	move	a0,s0
    7974:	8fbf0014 	lw	ra,20(sp)
    7978:	8fb00010 	lw	s0,16(sp)
    797c:	0a000548 	j	0x8001520
    7980:	27bd0018 	addiu	sp,sp,24
    7984:	0e0008a4 	jal	0x8002290
    7988:	00000000 	nop
    798c:	0e0000bd 	jal	0x80002f4
    7990:	02002021 	move	a0,s0
    7994:	02002021 	move	a0,s0
    7998:	8fbf0014 	lw	ra,20(sp)
    799c:	8fb00010 	lw	s0,16(sp)
    79a0:	0a000548 	j	0x8001520
    79a4:	27bd0018 	addiu	sp,sp,24
    79a8:	27bdffe0 	addiu	sp,sp,-32
    79ac:	afb00010 	sw	s0,16(sp)
    79b0:	8f90fd9c 	lw	s0,-612(gp)
    79b4:	afbf001c 	sw	ra,28(sp)
    79b8:	afb20018 	sw	s2,24(sp)
    79bc:	afb10014 	sw	s1,20(sp)
    79c0:	92060001 	lbu	a2,1(s0)
    79c4:	00808821 	move	s1,a0
    79c8:	0e000872 	jal	0x80021c8
    79cc:	30d20004 	andi	s2,a2,0x4
    79d0:	92040005 	lbu	a0,5(s0)
    79d4:	001129c2 	srl	a1,s1,0x7
    79d8:	a6050000 	sh	a1,0(s0)
    79dc:	34830040 	ori	v1,a0,0x40
    79e0:	a2030005 	sb	v1,5(s0)
    79e4:	0e00087c 	jal	0x80021f0
    79e8:	02202021 	move	a0,s1
    79ec:	0e00054a 	jal	0x8001528
    79f0:	02202021 	move	a0,s1
    79f4:	24020001 	li	v0,1
    79f8:	ae02000c 	sw	v0,12(s0)
    79fc:	02202821 	move	a1,s1
    7a00:	a6020010 	sh	v0,16(s0)
    7a04:	24040002 	li	a0,2
    7a08:	a6020012 	sh	v0,18(s0)
    7a0c:	24060200 	li	a2,512
    7a10:	a6020014 	sh	v0,20(s0)
    7a14:	0e000725 	jal	0x8001c94
    7a18:	a6020016 	sh	v0,22(s0)
    7a1c:	1640000f 	bnez	s2,0x7a5c
    7a20:	8fbf001c 	lw	ra,28(sp)
    7a24:	978c0074 	lhu	t4,116(gp)
    7a28:	3c0b0800 	lui	t3,0x800
    7a2c:	8d6b0078 	lw	t3,120(t3)
    7a30:	2588ffff 	addiu	t0,t4,-1
    7a34:	3109ffff 	andi	t1,t0,0xffff
    7a38:	256a0001 	addiu	t2,t3,1
    7a3c:	012a382b 	sltu	a3,t1,t2
    7a40:	10e00006 	beqz	a3,0x7a5c
    7a44:	a7880074 	sh	t0,116(gp)
    7a48:	3c0f6006 	lui	t7,0x6006
    7a4c:	240e0016 	li	t6,22
    7a50:	35ed0010 	ori	t5,t7,0x10
    7a54:	adae0050 	sw	t6,80(t5)
    7a58:	8fbf001c 	lw	ra,28(sp)
    7a5c:	8fb20018 	lw	s2,24(sp)
    7a60:	8fb10014 	lw	s1,20(sp)
    7a64:	8fb00010 	lw	s0,16(sp)
    7a68:	03e00008 	jr	ra
    7a6c:	27bd0020 	addiu	sp,sp,32
    7a70:	27bdffe0 	addiu	sp,sp,-32
    7a74:	afb10014 	sw	s1,20(sp)
    7a78:	afbf0018 	sw	ra,24(sp)
    7a7c:	afb00010 	sw	s0,16(sp)
    7a80:	10800004 	beqz	a0,0x7a94
    7a84:	00a08821 	move	s1,a1
    7a88:	24020080 	li	v0,128
    7a8c:	10820007 	beq	a0,v0,0x7aac
    7a90:	00000000 	nop
    7a94:	0000000d 	break
    7a98:	8fbf0018 	lw	ra,24(sp)
    7a9c:	8fb10014 	lw	s1,20(sp)
    7aa0:	8fb00010 	lw	s0,16(sp)
    7aa4:	03e00008 	jr	ra
    7aa8:	27bd0020 	addiu	sp,sp,32
    7aac:	0e000872 	jal	0x80021c8
    7ab0:	00a02021 	move	a0,a1
    7ab4:	8f86fd9c 	lw	a2,-612(gp)
    7ab8:	02202021 	move	a0,s1
    7abc:	90c50005 	lbu	a1,5(a2)
    7ac0:	0e00087c 	jal	0x80021f0
    7ac4:	30b000ff 	andi	s0,a1,0xff
    7ac8:	2403003e 	li	v1,62
    7acc:	1603fff1 	bne	s0,v1,0x7a94
    7ad0:	3c068000 	lui	a2,0x8000
    7ad4:	8cc40178 	lw	a0,376(a2)
    7ad8:	0480fffe 	bltz	a0,0x7ad4
    7adc:	34c80140 	ori	t0,a2,0x140
    7ae0:	24090007 	li	t1,7
    7ae4:	3c071000 	lui	a3,0x1000
    7ae8:	ad110000 	sw	s1,0(t0)
    7aec:	02202021 	move	a0,s1
    7af0:	a1090004 	sb	t1,4(t0)
    7af4:	8fbf0018 	lw	ra,24(sp)
    7af8:	8fb10014 	lw	s1,20(sp)
    7afc:	8fb00010 	lw	s0,16(sp)
    7b00:	acc70178 	sw	a3,376(a2)
    7b04:	0a0008c5 	j	0x8002314
    7b08:	27bd0020 	addiu	sp,sp,32
    7b0c:	27bdffe0 	addiu	sp,sp,-32
    7b10:	afb00010 	sw	s0,16(sp)
    7b14:	afbf0018 	sw	ra,24(sp)
    7b18:	afb10014 	sw	s1,20(sp)
    7b1c:	3c108000 	lui	s0,0x8000
    7b20:	8e110020 	lw	s1,32(s0)
    7b24:	00000000 	nop
    7b28:	0e00054a 	jal	0x8001528
    7b2c:	ae040020 	sw	a0,32(s0)
    7b30:	ae110020 	sw	s1,32(s0)
    7b34:	8fbf0018 	lw	ra,24(sp)
    7b38:	8fb10014 	lw	s1,20(sp)
    7b3c:	8fb00010 	lw	s0,16(sp)
    7b40:	03e00008 	jr	ra
    7b44:	27bd0020 	addiu	sp,sp,32
    7b48:	3084ffff 	andi	a0,a0,0xffff
    7b4c:	00803821 	move	a3,a0
    7b50:	24060035 	li	a2,53
    7b54:	00a02021 	move	a0,a1
    7b58:	0a000845 	j	0x8002114
    7b5c:	00002821 	move	a1,zero
    7b60:	3084ffff 	andi	a0,a0,0xffff
    7b64:	00803821 	move	a3,a0
    7b68:	24060036 	li	a2,54
    7b6c:	00a02021 	move	a0,a1
    7b70:	0a000845 	j	0x8002114
    7b74:	00002821 	move	a1,zero
    7b78:	27bdffd0 	addiu	sp,sp,-48
    7b7c:	afb50024 	sw	s5,36(sp)
    7b80:	3095ffff 	andi	s5,a0,0xffff
    7b84:	afb60028 	sw	s6,40(sp)
    7b88:	afb40020 	sw	s4,32(sp)
    7b8c:	afbf002c 	sw	ra,44(sp)
    7b90:	afb3001c 	sw	s3,28(sp)
    7b94:	afb20018 	sw	s2,24(sp)
    7b98:	afb10014 	sw	s1,20(sp)
    7b9c:	afb00010 	sw	s0,16(sp)
    7ba0:	30b6ffff 	andi	s6,a1,0xffff
    7ba4:	12a00027 	beqz	s5,0x7c44
    7ba8:	0000a021 	move	s4,zero
    7bac:	8f920058 	lw	s2,88(gp)
    7bb0:	8e430000 	lw	v1,0(s2)
    7bb4:	3c068000 	lui	a2,0x8000
    7bb8:	24020040 	li	v0,64
    7bbc:	00033e02 	srl	a3,v1,0x18
    7bc0:	00032c02 	srl	a1,v1,0x10
    7bc4:	30e4007f 	andi	a0,a3,0x7f
    7bc8:	00669824 	and	s3,v1,a2
    7bcc:	1482001d 	bne	a0,v0,0x7c44
    7bd0:	30a500ff 	andi	a1,a1,0xff
    7bd4:	8f830068 	lw	v1,104(gp)
    7bd8:	2c68000a 	sltiu	t0,v1,10
    7bdc:	11000010 	beqz	t0,0x7c20
    7be0:	8f8d0044 	lw	t5,68(gp)
    7be4:	00035880 	sll	t3,v1,0x2
    7be8:	3c0c0800 	lui	t4,0x800
    7bec:	258c57b8 	addiu	t4,t4,22456
    7bf0:	016c5021 	addu	t2,t3,t4
    7bf4:	8d490000 	lw	t1,0(t2)
    7bf8:	01200008 	jr	t1
    7bfc:	00000000 	nop
    7c00:	02d43021 	addu	a2,s6,s4
    7c04:	30c5ffff 	andi	a1,a2,0xffff
    7c08:	0e000852 	jal	0x8002148
    7c0c:	24040084 	li	a0,132
    7c10:	16600002 	bnez	s3,0x7c1c
    7c14:	8f920058 	lw	s2,88(gp)
    7c18:	af800068 	sw	zero,104(gp)
    7c1c:	8f8d0044 	lw	t5,68(gp)
    7c20:	26590020 	addiu	t9,s2,32
    7c24:	26980001 	addiu	t8,s4,1
    7c28:	03209021 	move	s2,t9
    7c2c:	3314ffff 	andi	s4,t8,0xffff
    7c30:	15a00004 	bnez	t5,0x7c44
    7c34:	af990058 	sw	t9,88(gp)
    7c38:	0295202b 	sltu	a0,s4,s5
    7c3c:	1480ffdc 	bnez	a0,0x7bb0
    7c40:	00000000 	nop
    7c44:	02801021 	move	v0,s4
    7c48:	8fbf002c 	lw	ra,44(sp)
    7c4c:	8fb60028 	lw	s6,40(sp)
    7c50:	8fb50024 	lw	s5,36(sp)
    7c54:	8fb40020 	lw	s4,32(sp)
    7c58:	8fb3001c 	lw	s3,28(sp)
    7c5c:	8fb20018 	lw	s2,24(sp)
    7c60:	8fb10014 	lw	s1,20(sp)
    7c64:	8fb00010 	lw	s0,16(sp)
    7c68:	03e00008 	jr	ra
    7c6c:	27bd0030 	addiu	sp,sp,48
    7c70:	24070034 	li	a3,52
    7c74:	14a70149 	bne	a1,a3,0x819c
    7c78:	00000000 	nop
    7c7c:	9247000e 	lbu	a3,14(s2)
    7c80:	8f9ffda0 	lw	ra,-608(gp)
    7c84:	8f90fd9c 	lw	s0,-612(gp)
    7c88:	24181600 	li	t8,5632
    7c8c:	a3e70019 	sb	a3,25(ra)
    7c90:	9242000d 	lbu	v0,13(s2)
    7c94:	3c088000 	lui	t0,0x8000
    7c98:	3c07800c 	lui	a3,0x800c
    7c9c:	a3e20018 	sb	v0,24(ra)
    7ca0:	964a0012 	lhu	t2,18(s2)
    7ca4:	3c0d6000 	lui	t5,0x6000
    7ca8:	3c117fff 	lui	s1,0x7fff
    7cac:	a60a005c 	sh	t2,92(s0)
    7cb0:	96440010 	lhu	a0,16(s2)
    7cb4:	3623ffff 	ori	v1,s1,0xffff
    7cb8:	24020005 	li	v0,5
    7cbc:	3099ffff 	andi	t9,a0,0xffff
    7cc0:	ae190054 	sw	t9,84(s0)
    7cc4:	8e46001c 	lw	a2,28(s2)
    7cc8:	ad180028 	sw	t8,40(t0)
    7ccc:	8cef0000 	lw	t7,0(a3)
    7cd0:	8dae4448 	lw	t6,17480(t5)
    7cd4:	01e64826 	xor	t1,t7,a2
    7cd8:	01c93021 	addu	a2,t6,t1
    7cdc:	ae060038 	sw	a2,56(s0)
    7ce0:	8e050038 	lw	a1,56(s0)
    7ce4:	24cb0001 	addiu	t3,a2,1
    7ce8:	3c0e7f00 	lui	t6,0x7f00
    7cec:	ae05003c 	sw	a1,60(s0)
    7cf0:	8e0c003c 	lw	t4,60(s0)
    7cf4:	afec0004 	sw	t4,4(ra)
    7cf8:	ae0b0020 	sw	t3,32(s0)
    7cfc:	8e130020 	lw	s3,32(s0)
    7d00:	ae13001c 	sw	s3,28(s0)
    7d04:	a3e0001b 	sb	zero,27(ra)
    7d08:	ae03002c 	sw	v1,44(s0)
    7d0c:	a3e20012 	sb	v0,18(ra)
    7d10:	8e4a0014 	lw	t2,20(s2)
    7d14:	24130050 	li	s3,80
    7d18:	ae0a0034 	sw	t2,52(s0)
    7d1c:	8e040034 	lw	a0,52(s0)
    7d20:	afe40014 	sw	a0,20(ra)
    7d24:	8e590018 	lw	t9,24(s2)
    7d28:	ae190048 	sw	t9,72(s0)
    7d2c:	9258000c 	lbu	t8,12(s2)
    7d30:	a218004e 	sb	t8,78(s0)
    7d34:	920d0008 	lbu	t5,8(s0)
    7d38:	35af0020 	ori	t7,t5,0x20
    7d3c:	a20f0008 	sb	t7,8(s0)
    7d40:	8e090018 	lw	t1,24(s0)
    7d44:	012e2824 	and	a1,t1,t6
    7d48:	34ac4000 	ori	t4,a1,0x4000
    7d4c:	ae0c0018 	sw	t4,24(s0)
    7d50:	920b0000 	lbu	t3,0(s0)
    7d54:	317200ff 	andi	s2,t3,0xff
    7d58:	1253027f 	beq	s2,s3,0x8758
    7d5c:	2403ff80 	li	v1,-128
    7d60:	3c040800 	lui	a0,0x800
    7d64:	24845be8 	addiu	a0,a0,23528
    7d68:	0e0008aa 	jal	0x80022a8
    7d6c:	00000000 	nop
    7d70:	3c110800 	lui	s1,0x800
    7d74:	8e315be8 	lw	s1,23528(s1)
    7d78:	0e000872 	jal	0x80021c8
    7d7c:	02202021 	move	a0,s1
    7d80:	24050004 	li	a1,4
    7d84:	24080001 	li	t0,1
    7d88:	a2050025 	sb	a1,37(s0)
    7d8c:	02202021 	move	a0,s1
    7d90:	0e00087c 	jal	0x80021f0
    7d94:	a2080005 	sb	t0,5(s0)
    7d98:	3c058000 	lui	a1,0x8000
    7d9c:	8cb00178 	lw	s0,376(a1)
    7da0:	0600fffe 	bltz	s0,0x7d9c
    7da4:	8f920058 	lw	s2,88(gp)
    7da8:	34ae0140 	ori	t6,a1,0x140
    7dac:	240f0002 	li	t7,2
    7db0:	3c091000 	lui	t1,0x1000
    7db4:	add10000 	sw	s1,0(t6)
    7db8:	a1cf0004 	sb	t7,4(t6)
    7dbc:	aca90178 	sw	t1,376(a1)
    7dc0:	0a000962 	j	0x8002588
    7dc4:	af800068 	sw	zero,104(gp)
    7dc8:	2cad0037 	sltiu	t5,a1,55
    7dcc:	51a0ff94 	beqzl	t5,0x7c20
    7dd0:	8f8d0044 	lw	t5,68(gp)
    7dd4:	00058080 	sll	s0,a1,0x2
    7dd8:	3c110800 	lui	s1,0x800
    7ddc:	263157e0 	addiu	s1,s1,22496
    7de0:	02117821 	addu	t7,s0,s1
    7de4:	8dee0000 	lw	t6,0(t7)
    7de8:	01c00008 	jr	t6
    7dec:	00000000 	nop
    7df0:	24110004 	li	s1,4
    7df4:	14b1008c 	bne	a1,s1,0x8028
    7df8:	3c078000 	lui	a3,0x8000
    7dfc:	3c080800 	lui	t0,0x800
    7e00:	8d085be8 	lw	t0,23528(t0)
    7e04:	8f86fd9c 	lw	a2,-612(gp)
    7e08:	ace80020 	sw	t0,32(a3)
    7e0c:	8e450008 	lw	a1,8(s2)
    7e10:	8f99fda0 	lw	t9,-608(gp)
    7e14:	240d0050 	li	t5,80
    7e18:	acc50030 	sw	a1,48(a2)
    7e1c:	8e4c0008 	lw	t4,8(s2)
    7e20:	accc0050 	sw	t4,80(a2)
    7e24:	8e4b000c 	lw	t3,12(s2)
    7e28:	accb0034 	sw	t3,52(a2)
    7e2c:	8e430010 	lw	v1,16(s2)
    7e30:	acc30038 	sw	v1,56(a2)
    7e34:	8e4a0010 	lw	t2,16(s2)
    7e38:	acca0054 	sw	t2,84(a2)
    7e3c:	8e420014 	lw	v0,20(s2)
    7e40:	acc2003c 	sw	v0,60(a2)
    7e44:	8e5f0018 	lw	ra,24(s2)
    7e48:	af3f0004 	sw	ra,4(t9)
    7e4c:	8e50001c 	lw	s0,28(s2)
    7e50:	acd00020 	sw	s0,32(a2)
    7e54:	90c40000 	lbu	a0,0(a2)
    7e58:	309800ff 	andi	t8,a0,0xff
    7e5c:	130d024a 	beq	t8,t5,0x8788
    7e60:	00000000 	nop
    7e64:	8cc40034 	lw	a0,52(a2)
    7e68:	8cd00030 	lw	s0,48(a2)
    7e6c:	00903023 	subu	a2,a0,s0
    7e70:	04c000f1 	bltz	a2,0x8238
    7e74:	2404008c 	li	a0,140
    7e78:	126000ee 	beqz	s3,0x8234
    7e7c:	24020003 	li	v0,3
    7e80:	0a000962 	j	0x8002588
    7e84:	af820068 	sw	v0,104(gp)
    7e88:	24190005 	li	t9,5
    7e8c:	14b90066 	bne	a1,t9,0x8028
    7e90:	3c058000 	lui	a1,0x8000
    7e94:	3c080800 	lui	t0,0x800
    7e98:	8d085be8 	lw	t0,23528(t0)
    7e9c:	8f86fd9c 	lw	a2,-612(gp)
    7ea0:	aca80020 	sw	t0,32(a1)
    7ea4:	8e4c0004 	lw	t4,4(s2)
    7ea8:	8f8afda0 	lw	t2,-608(gp)
    7eac:	24072000 	li	a3,8192
    7eb0:	accc001c 	sw	t4,28(a2)
    7eb4:	924b0008 	lbu	t3,8(s2)
    7eb8:	24120008 	li	s2,8
    7ebc:	a14b0019 	sb	t3,25(t2)
    7ec0:	8f820058 	lw	v0,88(gp)
    7ec4:	90430009 	lbu	v1,9(v0)
    7ec8:	a1430018 	sb	v1,24(t2)
    7ecc:	8f850058 	lw	a1,88(gp)
    7ed0:	90bf000a 	lbu	ra,10(a1)
    7ed4:	33e400ff 	andi	a0,ra,0xff
    7ed8:	10920010 	beq	a0,s2,0x7f1c
    7edc:	28890009 	slti	t1,a0,9
    7ee0:	152000ba 	bnez	t1,0x81cc
    7ee4:	240e0002 	li	t6,2
    7ee8:	240d0020 	li	t5,32
    7eec:	108d000b 	beq	a0,t5,0x7f1c
    7ef0:	34078000 	li	a3,0x8000
    7ef4:	28980021 	slti	t8,a0,33
    7ef8:	17000008 	bnez	t8,0x7f1c
    7efc:	24074000 	li	a3,16384
    7f00:	24100040 	li	s0,64
    7f04:	10900005 	beq	a0,s0,0x7f1c
    7f08:	3c070001 	lui	a3,0x1
    7f0c:	24190080 	li	t9,128
    7f10:	10990002 	beq	a0,t9,0x7f1c
    7f14:	3c070002 	lui	a3,0x2
    7f18:	24074000 	li	a3,16384
    7f1c:	8cc20018 	lw	v0,24(a2)
    7f20:	3c03ff00 	lui	v1,0xff00
    7f24:	00435024 	and	t2,v0,v1
    7f28:	0147f825 	or	ra,t2,a3
    7f2c:	acdf0018 	sw	ra,24(a2)
    7f30:	90b2000b 	lbu	s2,11(a1)
    7f34:	a0d20027 	sb	s2,39(a2)
    7f38:	8f830058 	lw	v1,88(gp)
    7f3c:	9464000c 	lhu	a0,12(v1)
    7f40:	108001fe 	beqz	a0,0x873c
    7f44:	00000000 	nop
    7f48:	9467000c 	lhu	a3,12(v1)
    7f4c:	3c1f8000 	lui	ra,0x8000
    7f50:	2405ffbf 	li	a1,-65
    7f54:	a4c7005c 	sh	a3,92(a2)
    7f58:	9063000e 	lbu	v1,14(v1)
    7f5c:	24070004 	li	a3,4
    7f60:	a0c30008 	sb	v1,8(a2)
    7f64:	8f820058 	lw	v0,88(gp)
    7f68:	904a000f 	lbu	t2,15(v0)
    7f6c:	a0ca0009 	sb	t2,9(a2)
    7f70:	8f890058 	lw	t1,88(gp)
    7f74:	8d320010 	lw	s2,16(t1)
    7f78:	8fe40074 	lw	a0,116(ra)
    7f7c:	0244c823 	subu	t9,s2,a0
    7f80:	acd90058 	sw	t9,88(a2)
    7f84:	8d300014 	lw	s0,20(t1)
    7f88:	acd0002c 	sw	s0,44(a2)
    7f8c:	95380018 	lhu	t8,24(t1)
    7f90:	330dffff 	andi	t5,t8,0xffff
    7f94:	accd0040 	sw	t5,64(a2)
    7f98:	9531001a 	lhu	s1,26(t1)
    7f9c:	322fffff 	andi	t7,s1,0xffff
    7fa0:	accf0044 	sw	t7,68(a2)
    7fa4:	8d2e001c 	lw	t6,28(t1)
    7fa8:	acce0048 	sw	t6,72(a2)
    7fac:	9128000e 	lbu	t0,14(t1)
    7fb0:	a0c80008 	sb	t0,8(a2)
    7fb4:	90cc0008 	lbu	t4,8(a2)
    7fb8:	01855824 	and	t3,t4,a1
    7fbc:	126001b6 	beqz	s3,0x8698
    7fc0:	a0cb0008 	sb	t3,8(a2)
    7fc4:	8f920058 	lw	s2,88(gp)
    7fc8:	0a000962 	j	0x8002588
    7fcc:	af870068 	sw	a3,104(gp)
    7fd0:	24060006 	li	a2,6
    7fd4:	14a60014 	bne	a1,a2,0x8028
    7fd8:	3c0e8000 	lui	t6,0x8000
    7fdc:	3c0f0800 	lui	t7,0x800
    7fe0:	8def5be8 	lw	t7,23528(t7)
    7fe4:	8f85fd98 	lw	a1,-616(gp)
    7fe8:	adcf0020 	sw	t7,32(t6)
    7fec:	8e490018 	lw	t1,24(s2)
    7ff0:	8f86fd9c 	lw	a2,-612(gp)
    7ff4:	8f8bfda0 	lw	t3,-608(gp)
    7ff8:	aca90000 	sw	t1,0(a1)
    7ffc:	8cc80038 	lw	t0,56(a2)
    8000:	24040005 	li	a0,5
    8004:	aca80004 	sw	t0,4(a1)
    8008:	8ccc003c 	lw	t4,60(a2)
    800c:	12600081 	beqz	s3,0x8214
    8010:	ad6c0000 	sw	t4,0(t3)
    8014:	0a000962 	j	0x8002588
    8018:	af840068 	sw	a0,104(gp)
    801c:	24110007 	li	s1,7
    8020:	10b1004b 	beq	a1,s1,0x8150
    8024:	24040006 	li	a0,6
    8028:	3c050800 	lui	a1,0x800
    802c:	24a55be8 	addiu	a1,a1,23528
    8030:	0e000881 	jal	0x8002204
    8034:	24040081 	li	a0,129
    8038:	8f920058 	lw	s2,88(gp)
    803c:	0013102b 	sltu	v0,zero,s3
    8040:	0a000962 	j	0x8002588
    8044:	af820068 	sw	v0,104(gp)
    8048:	241f0023 	li	ra,35
    804c:	14bffff6 	bne	a1,ra,0x8028
    8050:	3c0c8000 	lui	t4,0x8000
    8054:	3c050800 	lui	a1,0x800
    8058:	8ca55be8 	lw	a1,23528(a1)
    805c:	8f8bfda0 	lw	t3,-608(gp)
    8060:	ad850020 	sw	a1,32(t4)
    8064:	8f91fd9c 	lw	s1,-612(gp)
    8068:	8e460004 	lw	a2,4(s2)
    806c:	25640020 	addiu	a0,t3,32
    8070:	26450014 	addiu	a1,s2,20
    8074:	ae260028 	sw	a2,40(s1)
    8078:	24060003 	li	a2,3
    807c:	0e000f81 	jal	0x8003e04
    8080:	25700030 	addiu	s0,t3,48
    8084:	8f870058 	lw	a3,88(gp)
    8088:	02002021 	move	a0,s0
    808c:	24060003 	li	a2,3
    8090:	0e000f81 	jal	0x8003e04
    8094:	24e50008 	addiu	a1,a3,8
    8098:	3c040800 	lui	a0,0x800
    809c:	24845be8 	addiu	a0,a0,23528
    80a0:	0e0008aa 	jal	0x80022a8
    80a4:	00000000 	nop
    80a8:	92230000 	lbu	v1,0(s1)
    80ac:	240a0050 	li	t2,80
    80b0:	306200ff 	andi	v0,v1,0xff
    80b4:	544affe1 	bnel	v0,t2,0x803c
    80b8:	8f920058 	lw	s2,88(gp)
    80bc:	0e000f6c 	jal	0x8003db0
    80c0:	00000000 	nop
    80c4:	0a000a6a 	j	0x80029a8
    80c8:	8f920058 	lw	s2,88(gp)
    80cc:	24080033 	li	t0,51
    80d0:	14a80032 	bne	a1,t0,0x819c
    80d4:	3c038000 	lui	v1,0x8000
    80d8:	3c110800 	lui	s1,0x800
    80dc:	8e315be8 	lw	s1,23528(s1)
    80e0:	8f8ffda0 	lw	t7,-608(gp)
    80e4:	ac710020 	sw	s1,32(v1)
    80e8:	8e420008 	lw	v0,8(s2)
    80ec:	240d0028 	li	t5,40
    80f0:	8f89fd9c 	lw	t1,-612(gp)
    80f4:	ade20030 	sw	v0,48(t7)
    80f8:	8e4a000c 	lw	t2,12(s2)
    80fc:	24060009 	li	a2,9
    8100:	adea0034 	sw	t2,52(t7)
    8104:	8e5f0010 	lw	ra,16(s2)
    8108:	adff0038 	sw	ra,56(t7)
    810c:	8e440014 	lw	a0,20(s2)
    8110:	ade40020 	sw	a0,32(t7)
    8114:	8e590018 	lw	t9,24(s2)
    8118:	adf90024 	sw	t9,36(t7)
    811c:	8e58001c 	lw	t8,28(s2)
    8120:	adf80028 	sw	t8,40(t7)
    8124:	a1ed0011 	sb	t5,17(t7)
    8128:	8e4e0004 	lw	t6,4(s2)
    812c:	12600031 	beqz	s3,0x81f4
    8130:	ad2e0028 	sw	t6,40(t1)
    8134:	8f920058 	lw	s2,88(gp)
    8138:	0a000962 	j	0x8002588
    813c:	af860068 	sw	a2,104(gp)
    8140:	240d0022 	li	t5,34
    8144:	14adffb8 	bne	a1,t5,0x8028
    8148:	00000000 	nop
    814c:	24040007 	li	a0,7
    8150:	3c100800 	lui	s0,0x800
    8154:	8e105be8 	lw	s0,23528(s0)
    8158:	3c188000 	lui	t8,0x8000
    815c:	af100020 	sw	s0,32(t8)
    8160:	5660feae 	bnezl	s3,0x7c1c
    8164:	af840068 	sw	a0,104(gp)
    8168:	3c040800 	lui	a0,0x800
    816c:	24845be8 	addiu	a0,a0,23528
    8170:	0e0008aa 	jal	0x80022a8
    8174:	24130050 	li	s3,80
    8178:	8f84fd9c 	lw	a0,-612(gp)
    817c:	90920000 	lbu	s2,0(a0)
    8180:	325900ff 	andi	t9,s2,0xff
    8184:	1333014b 	beq	t9,s3,0x86b4
    8188:	00000000 	nop
    818c:	8f920058 	lw	s2,88(gp)
    8190:	00002021 	move	a0,zero
    8194:	0a000962 	j	0x8002588
    8198:	af840068 	sw	a0,104(gp)
    819c:	3c050800 	lui	a1,0x800
    81a0:	24a55be8 	addiu	a1,a1,23528
    81a4:	0e000858 	jal	0x8002160
    81a8:	24040081 	li	a0,129
    81ac:	0a000a6a 	j	0x80029a8
    81b0:	8f920058 	lw	s2,88(gp)
    81b4:	02d49821 	addu	s3,s6,s4
    81b8:	3265ffff 	andi	a1,s3,0xffff
    81bc:	0e000852 	jal	0x8002148
    81c0:	24040084 	li	a0,132
    81c4:	0a000962 	j	0x8002588
    81c8:	8f920058 	lw	s2,88(gp)
    81cc:	108eff53 	beq	a0,t6,0x7f1c
    81d0:	24070400 	li	a3,1024
    81d4:	28870003 	slti	a3,a0,3
    81d8:	10e00179 	beqz	a3,0x87c0
    81dc:	24110004 	li	s1,4
    81e0:	240f0001 	li	t7,1
    81e4:	548fff4d 	bnel	a0,t7,0x7f1c
    81e8:	24074000 	li	a3,16384
    81ec:	0a000a22 	j	0x8002888
    81f0:	24070100 	li	a3,256
    81f4:	3c050800 	lui	a1,0x800
    81f8:	24a55be8 	addiu	a1,a1,23528
    81fc:	0e0008a4 	jal	0x8002290
    8200:	24040082 	li	a0,130
    8204:	8f920058 	lw	s2,88(gp)
    8208:	00003021 	move	a2,zero
    820c:	0a000962 	j	0x8002588
    8210:	af860068 	sw	a2,104(gp)
    8214:	3c040800 	lui	a0,0x800
    8218:	24845be8 	addiu	a0,a0,23528
    821c:	8cc20038 	lw	v0,56(a2)
    8220:	0e0008aa 	jal	0x80022a8
    8224:	8cc3003c 	lw	v1,60(a2)
    8228:	8f920058 	lw	s2,88(gp)
    822c:	0a000ac0 	j	0x8002b00
    8230:	00002021 	move	a0,zero
    8234:	24040082 	li	a0,130
    8238:	3c050800 	lui	a1,0x800
    823c:	24a55be8 	addiu	a1,a1,23528
    8240:	0e0008a4 	jal	0x8002290
    8244:	00000000 	nop
    8248:	8f920058 	lw	s2,88(gp)
    824c:	00001021 	move	v0,zero
    8250:	0a000962 	j	0x8002588
    8254:	af820068 	sw	v0,104(gp)
    8258:	8e500004 	lw	s0,4(s2)
    825c:	8f91fd9c 	lw	s1,-612(gp)
    8260:	3c078000 	lui	a3,0x8000
    8264:	acf00020 	sw	s0,32(a3)
    8268:	922c0005 	lbu	t4,5(s1)
    826c:	02002821 	move	a1,s0
    8270:	318b0002 	andi	t3,t4,0x2
    8274:	15600156 	bnez	t3,0x87d0
    8278:	2404008a 	li	a0,138
    827c:	8f92fda0 	lw	s2,-608(gp)
    8280:	2404008d 	li	a0,141
    8284:	9245001b 	lbu	a1,27(s2)
    8288:	30a60020 	andi	a2,a1,0x20
    828c:	14c00150 	bnez	a2,0x87d0
    8290:	02002821 	move	a1,s0
    8294:	922e0009 	lbu	t6,9(s1)
    8298:	24080012 	li	t0,18
    829c:	31c900ff 	andi	t1,t6,0xff
    82a0:	1128014b 	beq	t1,t0,0x87d0
    82a4:	24040081 	li	a0,129
    82a8:	0e000872 	jal	0x80021c8
    82ac:	02002021 	move	a0,s0
    82b0:	9258001b 	lbu	t8,27(s2)
    82b4:	240f0004 	li	t7,4
    82b8:	02002021 	move	a0,s0
    82bc:	370d0042 	ori	t5,t8,0x42
    82c0:	a24d001b 	sb	t5,27(s2)
    82c4:	0e00087c 	jal	0x80021f0
    82c8:	a22f0025 	sb	t7,37(s1)
    82cc:	3c058000 	lui	a1,0x8000
    82d0:	8ca40178 	lw	a0,376(a1)
    82d4:	0480fffe 	bltz	a0,0x82d0
    82d8:	34b90140 	ori	t9,a1,0x140
    82dc:	241f0002 	li	ra,2
    82e0:	af300000 	sw	s0,0(t9)
    82e4:	a33f0004 	sb	ra,4(t9)
    82e8:	8f920058 	lw	s2,88(gp)
    82ec:	3c101000 	lui	s0,0x1000
    82f0:	acb00178 	sw	s0,376(a1)
    82f4:	0a000a6b 	j	0x80029ac
    82f8:	0013102b 	sltu	v0,zero,s3
    82fc:	8e500004 	lw	s0,4(s2)
    8300:	8f91fd9c 	lw	s1,-612(gp)
    8304:	3c038000 	lui	v1,0x8000
    8308:	ac700020 	sw	s0,32(v1)
    830c:	922a0005 	lbu	t2,5(s1)
    8310:	02002821 	move	a1,s0
    8314:	31420002 	andi	v0,t2,0x2
    8318:	14400017 	bnez	v0,0x8378
    831c:	2404008a 	li	a0,138
    8320:	922c0009 	lbu	t4,9(s1)
    8324:	24120004 	li	s2,4
    8328:	02002821 	move	a1,s0
    832c:	318b00ff 	andi	t3,t4,0xff
    8330:	11720011 	beq	t3,s2,0x8378
    8334:	24040081 	li	a0,129
    8338:	0e000872 	jal	0x80021c8
    833c:	02002021 	move	a0,s0
    8340:	8f89fda0 	lw	t1,-608(gp)
    8344:	24080012 	li	t0,18
    8348:	2405fffe 	li	a1,-2
    834c:	912f001b 	lbu	t7,27(t1)
    8350:	02002021 	move	a0,s0
    8354:	35ee0020 	ori	t6,t7,0x20
    8358:	a12e001b 	sb	t6,27(t1)
    835c:	a2280009 	sb	t0,9(s1)
    8360:	92260005 	lbu	a2,5(s1)
    8364:	00c53824 	and	a3,a2,a1
    8368:	0e00087c 	jal	0x80021f0
    836c:	a2270005 	sb	a3,5(s1)
    8370:	02002821 	move	a1,s0
    8374:	00002021 	move	a0,zero
    8378:	0e000933 	jal	0x80024cc
    837c:	00000000 	nop
    8380:	0a000a6a 	j	0x80029a8
    8384:	8f920058 	lw	s2,88(gp)
    8388:	8e4c0004 	lw	t4,4(s2)
    838c:	3c078000 	lui	a3,0x8000
    8390:	3c100800 	lui	s0,0x800
    8394:	26105be8 	addiu	s0,s0,23528
    8398:	acec0020 	sw	t4,32(a3)
    839c:	3c010800 	lui	at,0x800
    83a0:	ac2c5be8 	sw	t4,23528(at)
    83a4:	924b0003 	lbu	t3,3(s2)
    83a8:	31710004 	andi	s1,t3,0x4
    83ac:	1220013b 	beqz	s1,0x889c
    83b0:	8f84fd9c 	lw	a0,-612(gp)
    83b4:	24020006 	li	v0,6
    83b8:	a0820009 	sb	v0,9(a0)
    83bc:	924f001b 	lbu	t7,27(s2)
    83c0:	240effc0 	li	t6,-64
    83c4:	31e9003f 	andi	t1,t7,0x3f
    83c8:	012e4025 	or	t0,t1,t6
    83cc:	a0880008 	sb	t0,8(a0)
    83d0:	92450003 	lbu	a1,3(s2)
    83d4:	30a60001 	andi	a2,a1,0x1
    83d8:	14c00132 	bnez	a2,0x88a4
    83dc:	00000000 	nop
    83e0:	8e420008 	lw	v0,8(s2)
    83e4:	ae020008 	sw	v0,8(s0)
    83e8:	3c020800 	lui	v0,0x800
    83ec:	8c425bf0 	lw	v0,23536(v0)
    83f0:	10400131 	beqz	v0,0x88b8
    83f4:	8f90fda0 	lw	s0,-608(gp)
    83f8:	000219c2 	srl	v1,v0,0x7
    83fc:	8f8dfd9c 	lw	t5,-612(gp)
    8400:	a603000c 	sh	v1,12(s0)
    8404:	8e4a000c 	lw	t2,12(s2)
    8408:	24180001 	li	t8,1
    840c:	24040014 	li	a0,20
    8410:	ae0a002c 	sw	t2,44(s0)
    8414:	8e420010 	lw	v0,16(s2)
    8418:	ae02001c 	sw	v0,28(s0)
    841c:	965f0016 	lhu	ra,22(s2)
    8420:	a61f003c 	sh	ra,60(s0)
    8424:	96590014 	lhu	t9,20(s2)
    8428:	a619003e 	sh	t9,62(s0)
    842c:	adb8000c 	sw	t8,12(t5)
    8430:	a5b80010 	sh	t8,16(t5)
    8434:	a5b80012 	sh	t8,18(t5)
    8438:	a5b80014 	sh	t8,20(t5)
    843c:	a5b80016 	sh	t8,22(t5)
    8440:	12600144 	beqz	s3,0x8954
    8444:	a2040011 	sb	a0,17(s0)
    8448:	92510003 	lbu	s1,3(s2)
    844c:	32320002 	andi	s2,s1,0x2
    8450:	2e530001 	sltiu	s3,s2,1
    8454:	8f920058 	lw	s2,88(gp)
    8458:	26620008 	addiu	v0,s3,8
    845c:	0a000962 	j	0x8002588
    8460:	af820068 	sw	v0,104(gp)
    8464:	8e440004 	lw	a0,4(s2)
    8468:	3c198000 	lui	t9,0x8000
    846c:	3c068008 	lui	a2,0x8008
    8470:	af240020 	sw	a0,32(t9)
    8474:	8e450008 	lw	a1,8(s2)
    8478:	90d80000 	lbu	t8,0(a2)
    847c:	240d0050 	li	t5,80
    8480:	331100ff 	andi	s1,t8,0xff
    8484:	122d009c 	beq	s1,t5,0x86f8
    8488:	24070088 	li	a3,136
    848c:	24060009 	li	a2,9
    8490:	0e000845 	jal	0x8002114
    8494:	00000000 	nop
    8498:	0a000a6a 	j	0x80029a8
    849c:	8f920058 	lw	s2,88(gp)
    84a0:	8e500004 	lw	s0,4(s2)
    84a4:	3c098000 	lui	t1,0x8000
    84a8:	3c118008 	lui	s1,0x8008
    84ac:	ad300020 	sw	s0,32(t1)
    84b0:	92280000 	lbu	t0,0(s1)
    84b4:	24050050 	li	a1,80
    84b8:	310400ff 	andi	a0,t0,0xff
    84bc:	10850110 	beq	a0,a1,0x8900
    84c0:	24070088 	li	a3,136
    84c4:	02002021 	move	a0,s0
    84c8:	00002821 	move	a1,zero
    84cc:	0e000845 	jal	0x8002114
    84d0:	2406000e 	li	a2,14
    84d4:	922d0000 	lbu	t5,0(s1)
    84d8:	2418ff80 	li	t8,-128
    84dc:	02002821 	move	a1,s0
    84e0:	01b88025 	or	s0,t5,t8
    84e4:	24040004 	li	a0,4
    84e8:	24060030 	li	a2,48
    84ec:	0e000725 	jal	0x8001c94
    84f0:	a2300000 	sb	s0,0(s1)
    84f4:	0a000a6a 	j	0x80029a8
    84f8:	8f920058 	lw	s2,88(gp)
    84fc:	8e500004 	lw	s0,4(s2)
    8500:	8f91fda0 	lw	s1,-608(gp)
    8504:	3c028000 	lui	v0,0x8000
    8508:	ac500020 	sw	s0,32(v0)
    850c:	923f001b 	lbu	ra,27(s1)
    8510:	33f90010 	andi	t9,ra,0x10
    8514:	1320006c 	beqz	t9,0x86c8
    8518:	24070081 	li	a3,129
    851c:	02002021 	move	a0,s0
    8520:	00002821 	move	a1,zero
    8524:	2406001f 	li	a2,31
    8528:	0e000845 	jal	0x8002114
    852c:	00000000 	nop
    8530:	0a000a6a 	j	0x80029a8
    8534:	8f920058 	lw	s2,88(gp)
    8538:	8e44001c 	lw	a0,28(s2)
    853c:	0e00085d 	jal	0x8002174
    8540:	00000000 	nop
    8544:	104000e3 	beqz	v0,0x88d4
    8548:	00404821 	move	t1,v0
    854c:	8f880058 	lw	t0,88(gp)
    8550:	24070089 	li	a3,137
    8554:	01202021 	move	a0,t1
    8558:	8d05001c 	lw	a1,28(t0)
    855c:	24060001 	li	a2,1
    8560:	0e000845 	jal	0x8002114
    8564:	00000000 	nop
    8568:	0a000a6a 	j	0x80029a8
    856c:	8f920058 	lw	s2,88(gp)
    8570:	96490002 	lhu	t1,2(s2)
    8574:	3c100800 	lui	s0,0x800
    8578:	26105be8 	addiu	s0,s0,23528
    857c:	31280004 	andi	t0,t1,0x4
    8580:	11000097 	beqz	t0,0x87e0
    8584:	3c046000 	lui	a0,0x6000
    8588:	8e4e001c 	lw	t6,28(s2)
    858c:	3c0f8000 	lui	t7,0x8000
    8590:	adee0020 	sw	t6,32(t7)
    8594:	3c010800 	lui	at,0x800
    8598:	ac2e5be8 	sw	t6,23528(at)
    859c:	96470002 	lhu	a3,2(s2)
    85a0:	30e40001 	andi	a0,a3,0x1
    85a4:	148000e6 	bnez	a0,0x8940
    85a8:	00000000 	nop
    85ac:	8e420004 	lw	v0,4(s2)
    85b0:	ae020008 	sw	v0,8(s0)
    85b4:	3c100800 	lui	s0,0x800
    85b8:	8e105bf0 	lw	s0,23536(s0)
    85bc:	120000ec 	beqz	s0,0x8970
    85c0:	3c0f8000 	lui	t7,0x8000
    85c4:	8f92fd9c 	lw	s2,-612(gp)
    85c8:	24100001 	li	s0,1
    85cc:	8e4e0018 	lw	t6,24(s2)
    85d0:	8f8dfda0 	lw	t5,-608(gp)
    85d4:	8f9ffd98 	lw	ra,-616(gp)
    85d8:	01cf4825 	or	t1,t6,t7
    85dc:	ae490018 	sw	t1,24(s2)
    85e0:	a2400005 	sb	zero,5(s2)
    85e4:	ae50000c 	sw	s0,12(s2)
    85e8:	3c080800 	lui	t0,0x800
    85ec:	8d085bf0 	lw	t0,23536(t0)
    85f0:	8f840058 	lw	a0,88(gp)
    85f4:	a6500010 	sh	s0,16(s2)
    85f8:	000839c2 	srl	a3,t0,0x7
    85fc:	a6500012 	sh	s0,18(s2)
    8600:	a6500014 	sh	s0,20(s2)
    8604:	a6500016 	sh	s0,22(s2)
    8608:	a5a7000c 	sh	a3,12(t5)
    860c:	8c8c0008 	lw	t4,8(a0)
    8610:	8f8b0058 	lw	t3,88(gp)
    8614:	8f8a0058 	lw	t2,88(gp)
    8618:	adac002c 	sw	t4,44(t5)
    861c:	8d63000c 	lw	v1,12(t3)
    8620:	24070002 	li	a3,2
    8624:	ada3001c 	sw	v1,28(t5)
    8628:	91460010 	lbu	a2,16(t2)
    862c:	a1a60011 	sb	a2,17(t5)
    8630:	8f820058 	lw	v0,88(gp)
    8634:	90450011 	lbu	a1,17(v0)
    8638:	a3e50008 	sb	a1,8(ra)
    863c:	8f990058 	lw	t9,88(gp)
    8640:	93380012 	lbu	t8,18(t9)
    8644:	a258004e 	sb	t8,78(s2)
    8648:	8f910058 	lw	s1,88(gp)
    864c:	922f0013 	lbu	t7,19(s1)
    8650:	a1af0012 	sb	t7,18(t5)
    8654:	8f920058 	lw	s2,88(gp)
    8658:	964e0014 	lhu	t6,20(s2)
    865c:	a5ae003c 	sh	t6,60(t5)
    8660:	96490016 	lhu	t1,22(s2)
    8664:	a5a9003e 	sh	t1,62(t5)
    8668:	8e480018 	lw	t0,24(s2)
    866c:	ada80014 	sw	t0,20(t5)
    8670:	5660fd6a 	bnezl	s3,0x7c1c
    8674:	af870068 	sw	a3,104(gp)
    8678:	3c050800 	lui	a1,0x800
    867c:	24a55be8 	addiu	a1,a1,23528
    8680:	0e000881 	jal	0x8002204
    8684:	00002021 	move	a0,zero
    8688:	8f920058 	lw	s2,88(gp)
    868c:	00003821 	move	a3,zero
    8690:	0a000962 	j	0x8002588
    8694:	af870068 	sw	a3,104(gp)
    8698:	3c050800 	lui	a1,0x800
    869c:	24a55be8 	addiu	a1,a1,23528
    86a0:	0e0008a4 	jal	0x8002290
    86a4:	24040082 	li	a0,130
    86a8:	8f920058 	lw	s2,88(gp)
    86ac:	0a000a4d 	j	0x8002934
    86b0:	00003821 	move	a3,zero
    86b4:	0e000f6c 	jal	0x8003db0
    86b8:	00000000 	nop
    86bc:	8f920058 	lw	s2,88(gp)
    86c0:	0a000ac0 	j	0x8002b00
    86c4:	00002021 	move	a0,zero
    86c8:	0e000872 	jal	0x80021c8
    86cc:	02002021 	move	a0,s0
    86d0:	9223001b 	lbu	v1,27(s1)
    86d4:	02002021 	move	a0,s0
    86d8:	346a0010 	ori	t2,v1,0x10
    86dc:	0e00087c 	jal	0x80021f0
    86e0:	a22a001b 	sb	t2,27(s1)
    86e4:	00003821 	move	a3,zero
    86e8:	02002021 	move	a0,s0
    86ec:	00002821 	move	a1,zero
    86f0:	0a000ba5 	j	0x8002e94
    86f4:	2406001f 	li	a2,31
    86f8:	9242000c 	lbu	v0,12(s2)
    86fc:	305f0001 	andi	ra,v0,0x1
    8700:	13e00003 	beqz	ra,0x8710
    8704:	00000000 	nop
    8708:	964a000e 	lhu	t2,14(s2)
    870c:	a4ca002c 	sh	t2,44(a2)
    8710:	924b000c 	lbu	t3,12(s2)
    8714:	31630002 	andi	v1,t3,0x2
    8718:	50600006 	beqzl	v1,0x8734
    871c:	00003821 	move	a3,zero
    8720:	8e470014 	lw	a3,20(s2)
    8724:	964c0012 	lhu	t4,18(s2)
    8728:	acc7001c 	sw	a3,28(a2)
    872c:	a4cc001a 	sh	t4,26(a2)
    8730:	00003821 	move	a3,zero
    8734:	0a000b7f 	j	0x8002dfc
    8738:	24060009 	li	a2,9
    873c:	3c050800 	lui	a1,0x800
    8740:	24a55be8 	addiu	a1,a1,23528
    8744:	0e0008a4 	jal	0x8002290
    8748:	2404008b 	li	a0,139
    874c:	8f920058 	lw	s2,88(gp)
    8750:	0a000a4d 	j	0x8002934
    8754:	0013382b 	sltu	a3,zero,s3
    8758:	3c0c0800 	lui	t4,0x800
    875c:	8d8c5be8 	lw	t4,23528(t4)
    8760:	24dffffe 	addiu	ra,a2,-2
    8764:	25930100 	addiu	s3,t4,256
    8768:	326b007f 	andi	t3,s3,0x7f
    876c:	01679021 	addu	s2,t3,a3
    8770:	02638824 	and	s1,s3,v1
    8774:	ad110028 	sw	s1,40(t0)
    8778:	ae4600e0 	sw	a2,224(s2)
    877c:	ae4000e4 	sw	zero,228(s2)
    8780:	0a0009b3 	j	0x80026cc
    8784:	ae5f001c 	sw	ra,28(s2)
    8788:	acc00054 	sw	zero,84(a2)
    878c:	3c0d0800 	lui	t5,0x800
    8790:	8dad5be8 	lw	t5,23528(t5)
    8794:	3c18800c 	lui	t8,0x800c
    8798:	37090100 	ori	t1,t8,0x100
    879c:	aced0028 	sw	t5,40(a3)
    87a0:	8e510014 	lw	s1,20(s2)
    87a4:	ad3100e0 	sw	s1,224(t1)
    87a8:	8e4f0014 	lw	t7,20(s2)
    87ac:	ad2f00e4 	sw	t7,228(t1)
    87b0:	8e4e0010 	lw	t6,16(s2)
    87b4:	25c7fffe 	addiu	a3,t6,-2
    87b8:	0a0009f4 	j	0x80027d0
    87bc:	ad27001c 	sw	a3,28(t1)
    87c0:	5491fdd6 	bnel	a0,s1,0x7f1c
    87c4:	24074000 	li	a3,16384
    87c8:	0a000a22 	j	0x8002888
    87cc:	24071000 	li	a3,4096
    87d0:	0e00092d 	jal	0x80024b4
    87d4:	00000000 	nop
    87d8:	0a000a6a 	j	0x80029a8
    87dc:	8f920058 	lw	s2,88(gp)
    87e0:	8c83442c 	lw	v1,17452(a0)
    87e4:	3c12dead 	lui	s2,0xdead
    87e8:	3651beef 	ori	s1,s2,0xbeef
    87ec:	3c010800 	lui	at,0x800
    87f0:	ac205be8 	sw	zero,23528(at)
    87f4:	10710062 	beq	v1,s1,0x8980
    87f8:	00000000 	nop
    87fc:	3c196c62 	lui	t9,0x6c62
    8800:	37387970 	ori	t8,t9,0x7970
    8804:	14780008 	bne	v1,t8,0x8828
    8808:	24040002 	li	a0,2
    880c:	97850074 	lhu	a1,116(gp)
    8810:	9782006c 	lhu	v0,108(gp)
    8814:	24040092 	li	a0,146
    8818:	00a2f82b 	sltu	ra,a1,v0
    881c:	13e00019 	beqz	ra,0x8884
    8820:	02002821 	move	a1,s0
    8824:	24040002 	li	a0,2
    8828:	0e000695 	jal	0x8001a54
    882c:	24050200 	li	a1,512
    8830:	3c068000 	lui	a2,0x8000
    8834:	acc20020 	sw	v0,32(a2)
    8838:	3c010800 	lui	at,0x800
    883c:	ac225be8 	sw	v0,23528(at)
    8840:	1040000d 	beqz	v0,0x8878
    8844:	8f8c0058 	lw	t4,88(gp)
    8848:	240a0028 	li	t2,40
    884c:	24040003 	li	a0,3
    8850:	918b0010 	lbu	t3,16(t4)
    8854:	316300ff 	andi	v1,t3,0xff
    8858:	546a0001 	bnel	v1,t2,0x8860
    885c:	24040001 	li	a0,1
    8860:	0e000081 	jal	0x8000204
    8864:	00000000 	nop
    8868:	10400004 	beqz	v0,0x887c
    886c:	24040083 	li	a0,131
    8870:	0a000bc2 	j	0x8002f08
    8874:	8f920058 	lw	s2,88(gp)
    8878:	24040083 	li	a0,131
    887c:	3c050800 	lui	a1,0x800
    8880:	24a55be8 	addiu	a1,a1,23528
    8884:	0e000881 	jal	0x8002204
    8888:	00000000 	nop
    888c:	8f920058 	lw	s2,88(gp)
    8890:	0013382b 	sltu	a3,zero,s3
    8894:	0a000962 	j	0x8002588
    8898:	af870068 	sw	a3,104(gp)
    889c:	0a000b49 	j	0x8002d24
    88a0:	24020012 	li	v0,18
    88a4:	8e440008 	lw	a0,8(s2)
    88a8:	0e00085d 	jal	0x8002174
    88ac:	00000000 	nop
    88b0:	0a000b55 	j	0x8002d54
    88b4:	ae020008 	sw	v0,8(s0)
    88b8:	3c050800 	lui	a1,0x800
    88bc:	24a55be8 	addiu	a1,a1,23528
    88c0:	0e000858 	jal	0x8002160
    88c4:	24040087 	li	a0,135
    88c8:	8f920058 	lw	s2,88(gp)
    88cc:	0a000b72 	j	0x8002dc8
    88d0:	0013102b 	sltu	v0,zero,s3
    88d4:	24040004 	li	a0,4
    88d8:	0e000695 	jal	0x8001a54
    88dc:	24050030 	li	a1,48
    88e0:	1440002a 	bnez	v0,0x898c
    88e4:	00404821 	move	t1,v0
    88e8:	8f880058 	lw	t0,88(gp)
    88ec:	24070083 	li	a3,131
    88f0:	01202021 	move	a0,t1
    88f4:	8d05001c 	lw	a1,28(t0)
    88f8:	0a000bb3 	j	0x8002ecc
    88fc:	24060001 	li	a2,1
    8900:	8f830078 	lw	v1,120(gp)
    8904:	8f860070 	lw	a2,112(gp)
    8908:	1066feee 	beq	v1,a2,0x84c4
    890c:	00003821 	move	a3,zero
    8910:	3c070800 	lui	a3,0x800
    8914:	24e75b6c 	addiu	a3,a3,23404
    8918:	000320c0 	sll	a0,v1,0x3
    891c:	00872821 	addu	a1,a0,a3
    8920:	8cae0000 	lw	t6,0(a1)
    8924:	11d0005d 	beq	t6,s0,0x8a9c
    8928:	246f0001 	addiu	t7,v1,1
    892c:	31e3000f 	andi	v1,t7,0xf
    8930:	5466fffa 	bnel	v1,a2,0x891c
    8934:	000320c0 	sll	a0,v1,0x3
    8938:	0a000b8c 	j	0x8002e30
    893c:	00003821 	move	a3,zero
    8940:	8e440004 	lw	a0,4(s2)
    8944:	0e00085d 	jal	0x8002174
    8948:	00000000 	nop
    894c:	0a000bc8 	j	0x8002f20
    8950:	ae020008 	sw	v0,8(s0)
    8954:	3c050800 	lui	a1,0x800
    8958:	24a55be8 	addiu	a1,a1,23528
    895c:	0e0008a4 	jal	0x8002290
    8960:	24040082 	li	a0,130
    8964:	8f920058 	lw	s2,88(gp)
    8968:	0a000b72 	j	0x8002dc8
    896c:	00001021 	move	v0,zero
    8970:	3c050800 	lui	a1,0x800
    8974:	24a55be8 	addiu	a1,a1,23528
    8978:	0a000c7c 	j	0x80031f0
    897c:	24040087 	li	a0,135
    8980:	8c83442c 	lw	v1,17452(a0)
    8984:	0a000c5b 	j	0x800316c
    8988:	3c196c62 	lui	t9,0x6c62
    898c:	8f880058 	lw	t0,88(gp)
    8990:	3c078008 	lui	a3,0x8008
    8994:	3c0c8000 	lui	t4,0x8000
    8998:	240b0050 	li	t3,80
    899c:	240a0001 	li	t2,1
    89a0:	ad820020 	sw	v0,32(t4)
    89a4:	a0eb0000 	sb	t3,0(a3)
    89a8:	a0ea0001 	sb	t2,1(a3)
    89ac:	91030004 	lbu	v1,4(t0)
    89b0:	a0e30018 	sb	v1,24(a3)
    89b4:	91040005 	lbu	a0,5(t0)
    89b8:	a0e40019 	sb	a0,25(a3)
    89bc:	91060006 	lbu	a2,6(t0)
    89c0:	3c040800 	lui	a0,0x800
    89c4:	24845b6c 	addiu	a0,a0,23404
    89c8:	a0e6001a 	sb	a2,26(a3)
    89cc:	91020007 	lbu	v0,7(t0)
    89d0:	3c060800 	lui	a2,0x800
    89d4:	24c65b68 	addiu	a2,a2,23400
    89d8:	a0e2001b 	sb	v0,27(a3)
    89dc:	91050008 	lbu	a1,8(t0)
    89e0:	a0e5001c 	sb	a1,28(a3)
    89e4:	911f0009 	lbu	ra,9(t0)
    89e8:	a0ff001d 	sb	ra,29(a3)
    89ec:	9119000a 	lbu	t9,10(t0)
    89f0:	a0f9001e 	sb	t9,30(a3)
    89f4:	9118000b 	lbu	t8,11(t0)
    89f8:	a0f8001f 	sb	t8,31(a3)
    89fc:	9112000c 	lbu	s2,12(t0)
    8a00:	a0f20020 	sb	s2,32(a3)
    8a04:	9111000d 	lbu	s1,13(t0)
    8a08:	a0f10021 	sb	s1,33(a3)
    8a0c:	9110000e 	lbu	s0,14(t0)
    8a10:	a0f00022 	sb	s0,34(a3)
    8a14:	910f000f 	lbu	t7,15(t0)
    8a18:	a0ef0023 	sb	t7,35(a3)
    8a1c:	910e0010 	lbu	t6,16(t0)
    8a20:	a0ee0024 	sb	t6,36(a3)
    8a24:	910d0011 	lbu	t5,17(t0)
    8a28:	a0ed0025 	sb	t5,37(a3)
    8a2c:	950c0014 	lhu	t4,20(t0)
    8a30:	a4ec0028 	sh	t4,40(a3)
    8a34:	950b0016 	lhu	t3,22(t0)
    8a38:	8f8a0070 	lw	t2,112(gp)
    8a3c:	8f920078 	lw	s2,120(gp)
    8a40:	a4eb002a 	sh	t3,42(a3)
    8a44:	95030018 	lhu	v1,24(t0)
    8a48:	000a10c0 	sll	v0,t2,0x3
    8a4c:	25450001 	addiu	a1,t2,1
    8a50:	a4e3002c 	sh	v1,44(a3)
    8a54:	8d1f001c 	lw	ra,28(t0)
    8a58:	0044c021 	addu	t8,v0,a0
    8a5c:	0046c821 	addu	t9,v0,a2
    8a60:	30a5000f 	andi	a1,a1,0xf
    8a64:	af3f0000 	sw	ra,0(t9)
    8a68:	af090000 	sw	t1,0(t8)
    8a6c:	10b20006 	beq	a1,s2,0x8a88
    8a70:	af850070 	sw	a1,112(gp)
    8a74:	00003821 	move	a3,zero
    8a78:	8d05001c 	lw	a1,28(t0)
    8a7c:	01202021 	move	a0,t1
    8a80:	0a000bb3 	j	0x8002ecc
    8a84:	24060001 	li	a2,1
    8a88:	24ad0001 	addiu	t5,a1,1
    8a8c:	31a7000f 	andi	a3,t5,0xf
    8a90:	af870078 	sw	a3,120(gp)
    8a94:	0a000cf9 	j	0x80033e4
    8a98:	00003821 	move	a3,zero
    8a9c:	3c060800 	lui	a2,0x800
    8aa0:	24c65b68 	addiu	a2,a2,23400
    8aa4:	00869021 	addu	s2,a0,a2
    8aa8:	00003821 	move	a3,zero
    8aac:	aca00000 	sw	zero,0(a1)
    8ab0:	0a000b8c 	j	0x8002e30
    8ab4:	ae400000 	sw	zero,0(s2)
    8ab8:	3c048201 	lui	a0,0x8201
    8abc:	3c036000 	lui	v1,0x6000
    8ac0:	34820e02 	ori	v0,a0,0xe02
    8ac4:	ac603d68 	sw	zero,15720(v1)
    8ac8:	af800098 	sw	zero,152(gp)
    8acc:	03e00008 	jr	ra
    8ad0:	ac623d6c 	sw	v0,15724(v1)
    8ad4:	27bdffe8 	addiu	sp,sp,-24
    8ad8:	afb00010 	sw	s0,16(sp)
    8adc:	3090ffff 	andi	s0,a0,0xffff
    8ae0:	00101842 	srl	v1,s0,0x1
    8ae4:	2c620041 	sltiu	v0,v1,65
    8ae8:	afbf0014 	sw	ra,20(sp)
    8aec:	14400002 	bnez	v0,0x8af8
    8af0:	24040080 	li	a0,128
    8af4:	24030040 	li	v1,64
    8af8:	3c010800 	lui	at,0x800
    8afc:	ac300060 	sw	s0,96(at)
    8b00:	3c010800 	lui	at,0x800
    8b04:	ac230064 	sw	v1,100(at)
    8b08:	0e000f75 	jal	0x8003dd4
    8b0c:	00602821 	move	a1,v1
    8b10:	244802bf 	addiu	t0,v0,703
    8b14:	2409ff80 	li	t1,-128
    8b18:	01092824 	and	a1,t0,t1
    8b1c:	00103980 	sll	a3,s0,0x6
    8b20:	00103040 	sll	a2,s0,0x1
    8b24:	8fbf0014 	lw	ra,20(sp)
    8b28:	8fb00010 	lw	s0,16(sp)
    8b2c:	00a72021 	addu	a0,a1,a3
    8b30:	00861821 	addu	v1,a0,a2
    8b34:	af830080 	sw	v1,128(gp)
    8b38:	3c010800 	lui	at,0x800
    8b3c:	ac250058 	sw	a1,88(at)
    8b40:	3c010800 	lui	at,0x800
    8b44:	ac24005c 	sw	a0,92(at)
    8b48:	03e00008 	jr	ra
    8b4c:	27bd0018 	addiu	sp,sp,24
    8b50:	308300ff 	andi	v1,a0,0xff
    8b54:	30c6ffff 	andi	a2,a2,0xffff
    8b58:	30e400ff 	andi	a0,a3,0xff
    8b5c:	3c088000 	lui	t0,0x8000
    8b60:	8d0201b8 	lw	v0,440(t0)
    8b64:	0440fffe 	bltz	v0,0x8b60
    8b68:	00035400 	sll	t2,v1,0x10
    8b6c:	01443825 	or	a3,t2,a0
    8b70:	3c096000 	lui	t1,0x6000
    8b74:	00e92025 	or	a0,a3,t1
    8b78:	3c031000 	lui	v1,0x1000
    8b7c:	ad050180 	sw	a1,384(t0)
    8b80:	ad060184 	sw	a2,388(t0)
    8b84:	ad040188 	sw	a0,392(t0)
    8b88:	03e00008 	jr	ra
    8b8c:	ad0301b8 	sw	v1,440(t0)
    8b90:	8f850058 	lw	a1,88(gp)
    8b94:	3c0a6012 	lui	t2,0x6012
    8b98:	35480010 	ori	t0,t2,0x10
    8b9c:	8cac0004 	lw	t4,4(a1)
    8ba0:	3c0d600e 	lui	t5,0x600e
    8ba4:	35a60010 	ori	a2,t5,0x10
    8ba8:	318b0006 	andi	t3,t4,0x6
    8bac:	2d690001 	sltiu	t1,t3,1
    8bb0:	ad0900c4 	sw	t1,196(t0)
    8bb4:	8ca70004 	lw	a3,4(a1)
    8bb8:	acc73180 	sw	a3,12672(a2)
    8bbc:	8ca20008 	lw	v0,8(a1)
    8bc0:	94a40002 	lhu	a0,2(a1)
    8bc4:	acc23184 	sw	v0,12676(a2)
    8bc8:	8ca3001c 	lw	v1,28(a1)
    8bcc:	04600003 	bltz	v1,0x8bdc
    8bd0:	a7840090 	sh	a0,144(gp)
    8bd4:	03e00008 	jr	ra
    8bd8:	00000000 	nop
    8bdc:	8caf0018 	lw	t7,24(a1)
    8be0:	accf31d0 	sw	t7,12752(a2)
    8be4:	8cae001c 	lw	t6,28(a1)
    8be8:	03e00008 	jr	ra
    8bec:	acce31d4 	sw	t6,12756(a2)
    8bf0:	8f850058 	lw	a1,88(gp)
    8bf4:	8f87ff28 	lw	a3,-216(gp)
    8bf8:	8f86ff30 	lw	a2,-208(gp)
    8bfc:	8cae0004 	lw	t6,4(a1)
    8c00:	3c0f6012 	lui	t7,0x6012
    8c04:	35e80010 	ori	t0,t7,0x10
    8c08:	acee0078 	sw	t6,120(a3)
    8c0c:	8cad0008 	lw	t5,8(a1)
    8c10:	aced007c 	sw	t5,124(a3)
    8c14:	8cac0010 	lw	t4,16(a1)
    8c18:	accc004c 	sw	t4,76(a2)
    8c1c:	8cab000c 	lw	t3,12(a1)
    8c20:	accb0048 	sw	t3,72(a2)
    8c24:	94ca0054 	lhu	t2,84(a2)
    8c28:	3c020800 	lui	v0,0x800
    8c2c:	8c420044 	lw	v0,68(v0)
    8c30:	25490001 	addiu	t1,t2,1
    8c34:	a4c90054 	sh	t1,84(a2)
    8c38:	94c40054 	lhu	a0,84(a2)
    8c3c:	3083ffff 	andi	v1,a0,0xffff
    8c40:	10620017 	beq	v1,v0,0x8ca0
    8c44:	00000000 	nop
    8c48:	3c020800 	lui	v0,0x800
    8c4c:	8c420040 	lw	v0,64(v0)
    8c50:	a4c20052 	sh	v0,82(a2)
    8c54:	8ca30018 	lw	v1,24(a1)
    8c58:	ace30030 	sw	v1,48(a3)
    8c5c:	8ca20014 	lw	v0,20(a1)
    8c60:	ace2002c 	sw	v0,44(a3)
    8c64:	8cb90018 	lw	t9,24(a1)
    8c68:	acf90038 	sw	t9,56(a3)
    8c6c:	8cb80014 	lw	t8,20(a1)
    8c70:	24050001 	li	a1,1
    8c74:	acf80034 	sw	t8,52(a3)
    8c78:	8d0600bc 	lw	a2,188(t0)
    8c7c:	50c50019 	beql	a2,a1,0x8ce4
    8c80:	8d0200b4 	lw	v0,180(t0)
    8c84:	8d0200b8 	lw	v0,184(t0)
    8c88:	a4e20048 	sh	v0,72(a3)
    8c8c:	94e40048 	lhu	a0,72(a3)
    8c90:	a4e4004a 	sh	a0,74(a3)
    8c94:	94e800ea 	lhu	t0,234(a3)
    8c98:	03e00008 	jr	ra
    8c9c:	3102ffff 	andi	v0,t0,0xffff
    8ca0:	3c020800 	lui	v0,0x800
    8ca4:	8c420024 	lw	v0,36(v0)
    8ca8:	a4c00054 	sh	zero,84(a2)
    8cac:	a4c20052 	sh	v0,82(a2)
    8cb0:	8ca30018 	lw	v1,24(a1)
    8cb4:	ace30030 	sw	v1,48(a3)
    8cb8:	8ca20014 	lw	v0,20(a1)
    8cbc:	ace2002c 	sw	v0,44(a3)
    8cc0:	8cb90018 	lw	t9,24(a1)
    8cc4:	acf90038 	sw	t9,56(a3)
    8cc8:	8cb80014 	lw	t8,20(a1)
    8ccc:	24050001 	li	a1,1
    8cd0:	acf80034 	sw	t8,52(a3)
    8cd4:	8d0600bc 	lw	a2,188(t0)
    8cd8:	54c5ffeb 	bnel	a2,a1,0x8c88
    8cdc:	8d0200b8 	lw	v0,184(t0)
    8ce0:	8d0200b4 	lw	v0,180(t0)
    8ce4:	a4e20048 	sh	v0,72(a3)
    8ce8:	94e40048 	lhu	a0,72(a3)
    8cec:	a4e4004a 	sh	a0,74(a3)
    8cf0:	94e800ea 	lhu	t0,234(a3)
    8cf4:	03e00008 	jr	ra
    8cf8:	3102ffff 	andi	v0,t0,0xffff
    8cfc:	8f860058 	lw	a2,88(gp)
    8d00:	3c048000 	lui	a0,0x8000
    8d04:	8cc90008 	lw	t1,8(a2)
    8d08:	8cc80008 	lw	t0,8(a2)
    8d0c:	000929c0 	sll	a1,t1,0x7
    8d10:	000839c0 	sll	a3,t0,0x7
    8d14:	ac870020 	sw	a3,32(a0)
    8d18:	90c30007 	lbu	v1,7(a2)
    8d1c:	30620004 	andi	v0,v1,0x4
    8d20:	1040003e 	beqz	v0,0x8e1c
    8d24:	af850094 	sw	a1,148(gp)
    8d28:	90cb0007 	lbu	t3,7(a2)
    8d2c:	316a0008 	andi	t2,t3,0x8
    8d30:	1140003d 	beqz	t2,0x8e28
    8d34:	8f87ff2c 	lw	a3,-212(gp)
    8d38:	8ccd000c 	lw	t5,12(a2)
    8d3c:	8cce0014 	lw	t6,20(a2)
    8d40:	01ae602b 	sltu	t4,t5,t6
    8d44:	11800036 	beqz	t4,0x8e20
    8d48:	00000000 	nop
    8d4c:	8cc2000c 	lw	v0,12(a2)
    8d50:	ace20070 	sw	v0,112(a3)
    8d54:	8ccb0018 	lw	t3,24(a2)
    8d58:	8f85ff28 	lw	a1,-216(gp)
    8d5c:	8f88ff30 	lw	t0,-208(gp)
    8d60:	aceb0074 	sw	t3,116(a3)
    8d64:	8cca0010 	lw	t2,16(a2)
    8d68:	2402fff8 	li	v0,-8
    8d6c:	acaa00d8 	sw	t2,216(a1)
    8d70:	8cc9000c 	lw	t1,12(a2)
    8d74:	ad090060 	sw	t1,96(t0)
    8d78:	8cc4001c 	lw	a0,28(a2)
    8d7c:	aca400d0 	sw	a0,208(a1)
    8d80:	90e3007c 	lbu	v1,124(a3)
    8d84:	0062c824 	and	t9,v1,v0
    8d88:	a0f9007c 	sb	t9,124(a3)
    8d8c:	90d80007 	lbu	t8,7(a2)
    8d90:	330f0008 	andi	t7,t8,0x8
    8d94:	11e00004 	beqz	t7,0x8da8
    8d98:	00000000 	nop
    8d9c:	90ed007c 	lbu	t5,124(a3)
    8da0:	35ac0001 	ori	t4,t5,0x1
    8da4:	a0ec007c 	sb	t4,124(a3)
    8da8:	90cf0007 	lbu	t7,7(a2)
    8dac:	31ee0001 	andi	t6,t7,0x1
    8db0:	11c00006 	beqz	t6,0x8dcc
    8db4:	00000000 	nop
    8db8:	90e3007c 	lbu	v1,124(a3)
    8dbc:	24180034 	li	t8,52
    8dc0:	34790002 	ori	t9,v1,0x2
    8dc4:	a0f9007c 	sb	t9,124(a3)
    8dc8:	acb800dc 	sw	t8,220(a1)
    8dcc:	90c20007 	lbu	v0,7(a2)
    8dd0:	30460002 	andi	a2,v0,0x2
    8dd4:	10c00004 	beqz	a2,0x8de8
    8dd8:	00000000 	nop
    8ddc:	90e8007c 	lbu	t0,124(a3)
    8de0:	35040004 	ori	a0,t0,0x4
    8de4:	a0e4007c 	sb	a0,124(a3)
    8de8:	90ed007d 	lbu	t5,125(a3)
    8dec:	3c0b600e 	lui	t3,0x600e
    8df0:	356a0010 	ori	t2,t3,0x10
    8df4:	31ac003f 	andi	t4,t5,0x3f
    8df8:	a0ec007d 	sb	t4,125(a3)
    8dfc:	8d4931d4 	lw	t1,12756(t2)
    8e00:	31270001 	andi	a3,t1,0x1
    8e04:	10e00002 	beqz	a3,0x8e10
    8e08:	240e0001 	li	t6,1
    8e0c:	a0ae0009 	sb	t6,9(a1)
    8e10:	94af00ea 	lhu	t7,234(a1)
    8e14:	03e00008 	jr	ra
    8e18:	31e2ffff 	andi	v0,t7,0xffff
    8e1c:	8f87ff2c 	lw	a3,-212(gp)
    8e20:	0a000daf 	j	0x80036bc
    8e24:	8cc20014 	lw	v0,20(a2)
    8e28:	0a000db0 	j	0x80036c0
    8e2c:	ace00070 	sw	zero,112(a3)
    8e30:	8f8c0058 	lw	t4,88(gp)
    8e34:	27bdffd8 	addiu	sp,sp,-40
    8e38:	afb3001c 	sw	s3,28(sp)
    8e3c:	afb20018 	sw	s2,24(sp)
    8e40:	afb00010 	sw	s0,16(sp)
    8e44:	afbf0020 	sw	ra,32(sp)
    8e48:	afb10014 	sw	s1,20(sp)
    8e4c:	918f0015 	lbu	t7,21(t4)
    8e50:	3c13600e 	lui	s3,0x600e
    8e54:	36730010 	ori	s3,s3,0x10
    8e58:	31eb000f 	andi	t3,t7,0xf
    8e5c:	a38b009c 	sb	t3,156(gp)
    8e60:	8d8f0004 	lw	t7,4(t4)
    8e64:	8d8b0008 	lw	t3,8(t4)
    8e68:	959f0012 	lhu	ra,18(t4)
    8e6c:	95990010 	lhu	t9,16(t4)
    8e70:	9584001a 	lhu	a0,26(t4)
    8e74:	9598001e 	lhu	t8,30(t4)
    8e78:	958e001c 	lhu	t6,28(t4)
    8e7c:	33edffff 	andi	t5,ra,0xffff
    8e80:	332affff 	andi	t2,t9,0xffff
    8e84:	3089ffff 	andi	t1,a0,0xffff
    8e88:	3308ffff 	andi	t0,t8,0xffff
    8e8c:	31c7ffff 	andi	a3,t6,0xffff
    8e90:	3c010800 	lui	at,0x800
    8e94:	ac2d0024 	sw	t5,36(at)
    8e98:	3c010800 	lui	at,0x800
    8e9c:	ac290044 	sw	t1,68(at)
    8ea0:	3c010800 	lui	at,0x800
    8ea4:	ac2a0040 	sw	t2,64(at)
    8ea8:	ae683178 	sw	t0,12664(s3)
    8eac:	ae67317c 	sw	a3,12668(s3)
    8eb0:	91850015 	lbu	a1,21(t4)
    8eb4:	95910016 	lhu	s1,22(t4)
    8eb8:	3c126012 	lui	s2,0x6012
    8ebc:	36520010 	ori	s2,s2,0x10
    8ec0:	30a200ff 	andi	v0,a1,0xff
    8ec4:	3230ffff 	andi	s0,s1,0xffff
    8ec8:	ae623188 	sw	v0,12680(s3)
    8ecc:	ae5000b4 	sw	s0,180(s2)
    8ed0:	91830014 	lbu	v1,20(t4)
    8ed4:	959f0018 	lhu	ra,24(t4)
    8ed8:	24060001 	li	a2,1
    8edc:	0066c804 	sllv	t9,a2,v1
    8ee0:	33f8ffff 	andi	t8,ra,0xffff
    8ee4:	ae5900b8 	sw	t9,184(s2)
    8ee8:	ae5800bc 	sw	t8,188(s2)
    8eec:	918e0014 	lbu	t6,20(t4)
    8ef0:	af8f0084 	sw	t7,132(gp)
    8ef4:	3c086006 	lui	t0,0x6006
    8ef8:	31cd00ff 	andi	t5,t6,0xff
    8efc:	ae4d00c0 	sw	t5,192(s2)
    8f00:	918a0015 	lbu	t2,21(t4)
    8f04:	9584000e 	lhu	a0,14(t4)
    8f08:	3c07600a 	lui	a3,0x600a
    8f0c:	314900ff 	andi	t1,t2,0xff
    8f10:	af8b0088 	sw	t3,136(gp)
    8f14:	3084ffff 	andi	a0,a0,0xffff
    8f18:	ae4900c8 	sw	t1,200(s2)
    8f1c:	35110010 	ori	s1,t0,0x10
    8f20:	0e000d10 	jal	0x8003440
    8f24:	34f00410 	ori	s0,a3,0x410
    8f28:	3c020800 	lui	v0,0x800
    8f2c:	8c420060 	lw	v0,96(v0)
    8f30:	3c030800 	lui	v1,0x800
    8f34:	8c630064 	lw	v1,100(v1)
    8f38:	3c060800 	lui	a2,0x800
    8f3c:	8cc60058 	lw	a2,88(a2)
    8f40:	3c050800 	lui	a1,0x800
    8f44:	8ca5005c 	lw	a1,92(a1)
    8f48:	8f840080 	lw	a0,128(gp)
    8f4c:	8fbf0020 	lw	ra,32(sp)
    8f50:	ae23004c 	sw	v1,76(s1)
    8f54:	ae65319c 	sw	a1,12700(s3)
    8f58:	ae030054 	sw	v1,84(s0)
    8f5c:	ae4500dc 	sw	a1,220(s2)
    8f60:	ae6231a0 	sw	v0,12704(s3)
    8f64:	ae6331a4 	sw	v1,12708(s3)
    8f68:	ae663198 	sw	a2,12696(s3)
    8f6c:	ae220048 	sw	v0,72(s1)
    8f70:	8fb3001c 	lw	s3,28(sp)
    8f74:	ae020050 	sw	v0,80(s0)
    8f78:	8fb10014 	lw	s1,20(sp)
    8f7c:	ae4200e0 	sw	v0,224(s2)
    8f80:	ae4300e4 	sw	v1,228(s2)
    8f84:	ae4600d8 	sw	a2,216(s2)
    8f88:	8fb00010 	lw	s0,16(sp)
    8f8c:	8fb20018 	lw	s2,24(sp)
    8f90:	0a00057d 	j	0x80015f4
    8f94:	27bd0028 	addiu	sp,sp,40
    8f98:	97850092 	lhu	a1,146(gp)
    8f9c:	9783007c 	lhu	v1,124(gp)
    8fa0:	27bdffe8 	addiu	sp,sp,-24
    8fa4:	afb00010 	sw	s0,16(sp)
    8fa8:	00a3102b 	sltu	v0,a1,v1
    8fac:	afbf0014 	sw	ra,20(sp)
    8fb0:	24040005 	li	a0,5
    8fb4:	8f900058 	lw	s0,88(gp)
    8fb8:	10400055 	beqz	v0,0x9110
    8fbc:	24090002 	li	t1,2
    8fc0:	0e000695 	jal	0x8001a54
    8fc4:	8f850080 	lw	a1,128(gp)
    8fc8:	af820094 	sw	v0,148(gp)
    8fcc:	24040003 	li	a0,3
    8fd0:	1040004f 	beqz	v0,0x9110
    8fd4:	24090002 	li	t1,2
    8fd8:	3c068000 	lui	a2,0x8000
    8fdc:	0e000081 	jal	0x8000204
    8fe0:	acc20020 	sw	v0,32(a2)
    8fe4:	24070001 	li	a3,1
    8fe8:	24082000 	li	t0,8192
    8fec:	1040004d 	beqz	v0,0x9124
    8ff0:	24040005 	li	a0,5
    8ff4:	978e0092 	lhu	t6,146(gp)
    8ff8:	8f8aff2c 	lw	t2,-212(gp)
    8ffc:	24090050 	li	t1,80
    9000:	25c50001 	addiu	a1,t6,1
    9004:	a7850092 	sh	a1,146(gp)
    9008:	a1490000 	sb	t1,0(t2)
    900c:	3c0d0800 	lui	t5,0x800
    9010:	8dad0064 	lw	t5,100(t5)
    9014:	24038000 	li	v1,-32768
    9018:	8f84ff28 	lw	a0,-216(gp)
    901c:	000d6600 	sll	t4,t5,0x18
    9020:	ad4c0018 	sw	t4,24(t2)
    9024:	a5400006 	sh	zero,6(t2)
    9028:	954b000a 	lhu	t3,10(t2)
    902c:	8f85ff30 	lw	a1,-208(gp)
    9030:	2402ff80 	li	v0,-128
    9034:	01633024 	and	a2,t3,v1
    9038:	a546000a 	sh	a2,10(t2)
    903c:	915f000a 	lbu	ra,10(t2)
    9040:	00004821 	move	t1,zero
    9044:	03e2c825 	or	t9,ra,v0
    9048:	a159000a 	sb	t9,10(t2)
    904c:	a0a00008 	sb	zero,8(a1)
    9050:	a140004c 	sb	zero,76(t2)
    9054:	a08000d5 	sb	zero,213(a0)
    9058:	96180002 	lhu	t8,2(s0)
    905c:	97830090 	lhu	v1,144(gp)
    9060:	3c020004 	lui	v0,0x4
    9064:	a49800ea 	sh	t8,234(a0)
    9068:	960f0002 	lhu	t7,2(s0)
    906c:	2418ffbf 	li	t8,-65
    9070:	25ee2401 	addiu	t6,t7,9217
    9074:	a48e00be 	sh	t6,190(a0)
    9078:	8e0d0004 	lw	t5,4(s0)
    907c:	acad0044 	sw	t5,68(a1)
    9080:	8e0c0008 	lw	t4,8(s0)
    9084:	acac0040 	sw	t4,64(a1)
    9088:	a4a00050 	sh	zero,80(a1)
    908c:	a4a00054 	sh	zero,84(a1)
    9090:	8e0b000c 	lw	t3,12(s0)
    9094:	240c0030 	li	t4,48
    9098:	ac8b0028 	sw	t3,40(a0)
    909c:	8e060010 	lw	a2,16(s0)
    90a0:	ac860024 	sw	a2,36(a0)
    90a4:	a480003e 	sh	zero,62(a0)
    90a8:	a487004e 	sh	a3,78(a0)
    90ac:	a4870050 	sh	a3,80(a0)
    90b0:	a483003c 	sh	v1,60(a0)
    90b4:	ad420074 	sw	v0,116(t2)
    90b8:	ac8800d8 	sw	t0,216(a0)
    90bc:	aca80060 	sw	t0,96(a1)
    90c0:	a08700fc 	sb	a3,252(a0)
    90c4:	909f00d4 	lbu	ra,212(a0)
    90c8:	33f9007f 	andi	t9,ra,0x7f
    90cc:	a09900d4 	sb	t9,212(a0)
    90d0:	909000d4 	lbu	s0,212(a0)
    90d4:	02187824 	and	t7,s0,t8
    90d8:	a08f00d4 	sb	t7,212(a0)
    90dc:	914e007c 	lbu	t6,124(t2)
    90e0:	35cd0001 	ori	t5,t6,0x1
    90e4:	a14d007c 	sb	t5,124(t2)
    90e8:	938b009c 	lbu	t3,156(gp)
    90ec:	ad480070 	sw	t0,112(t2)
    90f0:	ac8c00dc 	sw	t4,220(a0)
    90f4:	a08b00d6 	sb	t3,214(a0)
    90f8:	8f880088 	lw	t0,136(gp)
    90fc:	8f870084 	lw	a3,132(gp)
    9100:	ac8800c4 	sw	t0,196(a0)
    9104:	ac8700c8 	sw	a3,200(a0)
    9108:	a5400078 	sh	zero,120(t2)
    910c:	a540007a 	sh	zero,122(t2)
    9110:	8fbf0014 	lw	ra,20(sp)
    9114:	8fb00010 	lw	s0,16(sp)
    9118:	01201021 	move	v0,t1
    911c:	03e00008 	jr	ra
    9120:	27bd0018 	addiu	sp,sp,24
    9124:	8f850094 	lw	a1,148(gp)
    9128:	0e000725 	jal	0x8001c94
    912c:	8f860080 	lw	a2,128(gp)
    9130:	0a000e9f 	j	0x8003a7c
    9134:	24090002 	li	t1,2
    9138:	27bdffe0 	addiu	sp,sp,-32
    913c:	afb00010 	sw	s0,16(sp)
    9140:	8f900058 	lw	s0,88(gp)
    9144:	afb10014 	sw	s1,20(sp)
    9148:	afbf0018 	sw	ra,24(sp)
    914c:	8e090004 	lw	t1,4(s0)
    9150:	0e00054a 	jal	0x8001528
    9154:	000921c0 	sll	a0,t1,0x7
    9158:	8e080004 	lw	t0,4(s0)
    915c:	8f84ff28 	lw	a0,-216(gp)
    9160:	8f82ff30 	lw	v0,-208(gp)
    9164:	000839c0 	sll	a3,t0,0x7
    9168:	3c068000 	lui	a2,0x8000
    916c:	acc70020 	sw	a3,32(a2)
    9170:	948500ea 	lhu	a1,234(a0)
    9174:	90430013 	lbu	v1,19(v0)
    9178:	1460001c 	bnez	v1,0x91ec
    917c:	30b1ffff 	andi	s1,a1,0xffff
    9180:	8f8cff2c 	lw	t4,-212(gp)
    9184:	918b0008 	lbu	t3,8(t4)
    9188:	316a0040 	andi	t2,t3,0x40
    918c:	1540000b 	bnez	t2,0x91bc
    9190:	00000000 	nop
    9194:	8e0d0004 	lw	t5,4(s0)
    9198:	02203021 	move	a2,s1
    919c:	8fbf0018 	lw	ra,24(sp)
    91a0:	8fb10014 	lw	s1,20(sp)
    91a4:	8fb00010 	lw	s0,16(sp)
    91a8:	24040022 	li	a0,34
    91ac:	00003821 	move	a3,zero
    91b0:	000d29c0 	sll	a1,t5,0x7
    91b4:	0a000d2f 	j	0x80034bc
    91b8:	27bd0020 	addiu	sp,sp,32
    91bc:	0e000098 	jal	0x8000260
    91c0:	00000000 	nop
    91c4:	8e0d0004 	lw	t5,4(s0)
    91c8:	02203021 	move	a2,s1
    91cc:	8fbf0018 	lw	ra,24(sp)
    91d0:	8fb10014 	lw	s1,20(sp)
    91d4:	8fb00010 	lw	s0,16(sp)
    91d8:	24040022 	li	a0,34
    91dc:	00003821 	move	a3,zero
    91e0:	000d29c0 	sll	a1,t5,0x7
    91e4:	0a000d2f 	j	0x80034bc
    91e8:	27bd0020 	addiu	sp,sp,32
    91ec:	0e000090 	jal	0x8000240
    91f0:	00000000 	nop
    91f4:	8e0d0004 	lw	t5,4(s0)
    91f8:	02203021 	move	a2,s1
    91fc:	8fbf0018 	lw	ra,24(sp)
    9200:	8fb10014 	lw	s1,20(sp)
    9204:	8fb00010 	lw	s0,16(sp)
    9208:	24040022 	li	a0,34
    920c:	00003821 	move	a3,zero
    9210:	000d29c0 	sll	a1,t5,0x7
    9214:	0a000d2f 	j	0x80034bc
    9218:	27bd0020 	addiu	sp,sp,32
    921c:	27bdffe0 	addiu	sp,sp,-32
    9220:	afb20018 	sw	s2,24(sp)
    9224:	3092ffff 	andi	s2,a0,0xffff
    9228:	afb00010 	sw	s0,16(sp)
    922c:	afbf001c 	sw	ra,28(sp)
    9230:	afb10014 	sw	s1,20(sp)
    9234:	1240001e 	beqz	s2,0x92b0
    9238:	00008021 	move	s0,zero
    923c:	8f860058 	lw	a2,88(gp)
    9240:	8cc50000 	lw	a1,0(a2)
    9244:	24030006 	li	v1,6
    9248:	00053f02 	srl	a3,a1,0x1c
    924c:	00051402 	srl	v0,a1,0x10
    9250:	30e40007 	andi	a0,a3,0x7
    9254:	14830016 	bne	a0,v1,0x92b0
    9258:	304500ff 	andi	a1,v0,0xff
    925c:	2ca80006 	sltiu	t0,a1,6
    9260:	11000040 	beqz	t0,0x9364
    9264:	00055880 	sll	t3,a1,0x2
    9268:	3c0c0800 	lui	t4,0x800
    926c:	258c58bc 	addiu	t4,t4,22716
    9270:	016c5021 	addu	t2,t3,t4
    9274:	8d490000 	lw	t1,0(t2)
    9278:	01200008 	jr	t1
    927c:	00000000 	nop
    9280:	8f8e0098 	lw	t6,152(gp)
    9284:	240d0001 	li	t5,1
    9288:	11cd0050 	beq	t6,t5,0x93cc
    928c:	24020002 	li	v0,2
    9290:	af820098 	sw	v0,152(gp)
    9294:	26090001 	addiu	t1,s0,1
    9298:	3130ffff 	andi	s0,t1,0xffff
    929c:	24c80020 	addiu	t0,a2,32
    92a0:	0212202b 	sltu	a0,s0,s2
    92a4:	01003021 	move	a2,t0
    92a8:	1480ffe5 	bnez	a0,0x9240
    92ac:	af880058 	sw	t0,88(gp)
    92b0:	02001021 	move	v0,s0
    92b4:	8fbf001c 	lw	ra,28(sp)
    92b8:	8fb20018 	lw	s2,24(sp)
    92bc:	8fb10014 	lw	s1,20(sp)
    92c0:	8fb00010 	lw	s0,16(sp)
    92c4:	03e00008 	jr	ra
    92c8:	27bd0020 	addiu	sp,sp,32
    92cc:	9387007e 	lbu	a3,126(gp)
    92d0:	54e00034 	bnezl	a3,0x93a4
    92d4:	00003021 	move	a2,zero
    92d8:	0e000de7 	jal	0x800379c
    92dc:	00000000 	nop
    92e0:	8f860058 	lw	a2,88(gp)
    92e4:	0a000eff 	j	0x8003bfc
    92e8:	24020001 	li	v0,1
    92ec:	8f870098 	lw	a3,152(gp)
    92f0:	24050002 	li	a1,2
    92f4:	10e50031 	beq	a3,a1,0x93bc
    92f8:	24040013 	li	a0,19
    92fc:	00002821 	move	a1,zero
    9300:	00003021 	move	a2,zero
    9304:	24070001 	li	a3,1
    9308:	0e000d2f 	jal	0x80034bc
    930c:	00000000 	nop
    9310:	0a000f00 	j	0x8003c00
    9314:	8f860058 	lw	a2,88(gp)
    9318:	8f830098 	lw	v1,152(gp)
    931c:	24020002 	li	v0,2
    9320:	1462fff6 	bne	v1,v0,0x92fc
    9324:	24040012 	li	a0,18
    9328:	0e000d9a 	jal	0x8003668
    932c:	00000000 	nop
    9330:	8f850094 	lw	a1,148(gp)
    9334:	00403021 	move	a2,v0
    9338:	24040012 	li	a0,18
    933c:	0e000d2f 	jal	0x80034bc
    9340:	00003821 	move	a3,zero
    9344:	0a000f00 	j	0x8003c00
    9348:	8f860058 	lw	a2,88(gp)
    934c:	8f830098 	lw	v1,152(gp)
    9350:	24110003 	li	s1,3
    9354:	10710029 	beq	v1,s1,0x93fc
    9358:	241f0002 	li	ra,2
    935c:	107fffce 	beq	v1,ra,0x9298
    9360:	26090001 	addiu	t1,s0,1
    9364:	24040010 	li	a0,16
    9368:	00002821 	move	a1,zero
    936c:	00003021 	move	a2,zero
    9370:	0a000f1d 	j	0x8003c74
    9374:	24070001 	li	a3,1
    9378:	8f910098 	lw	s1,152(gp)
    937c:	24060002 	li	a2,2
    9380:	1626fff9 	bne	s1,a2,0x9368
    9384:	24040010 	li	a0,16
    9388:	0e000e41 	jal	0x8003904
    938c:	00000000 	nop
    9390:	14400023 	bnez	v0,0x9420
    9394:	8f980058 	lw	t8,88(gp)
    9398:	8f860058 	lw	a2,88(gp)
    939c:	0a000eff 	j	0x8003bfc
    93a0:	24020003 	li	v0,3
    93a4:	24040014 	li	a0,20
    93a8:	0e000d2f 	jal	0x80034bc
    93ac:	00002821 	move	a1,zero
    93b0:	8f860058 	lw	a2,88(gp)
    93b4:	0a000eff 	j	0x8003bfc
    93b8:	24020002 	li	v0,2
    93bc:	0e000ea9 	jal	0x8003aa4
    93c0:	00000000 	nop
    93c4:	0a000f00 	j	0x8003c00
    93c8:	8f860058 	lw	a2,88(gp)
    93cc:	0e000d3f 	jal	0x80034fc
    93d0:	00000000 	nop
    93d4:	24190002 	li	t9,2
    93d8:	24040014 	li	a0,20
    93dc:	00002821 	move	a1,zero
    93e0:	00003021 	move	a2,zero
    93e4:	00003821 	move	a3,zero
    93e8:	af990098 	sw	t9,152(gp)
    93ec:	0e000d2f 	jal	0x80034bc
    93f0:	00000000 	nop
    93f4:	0a000f00 	j	0x8003c00
    93f8:	8f860058 	lw	a2,88(gp)
    93fc:	0e000d57 	jal	0x800355c
    9400:	00000000 	nop
    9404:	8f850094 	lw	a1,148(gp)
    9408:	24190002 	li	t9,2
    940c:	00403021 	move	a2,v0
    9410:	24040010 	li	a0,16
    9414:	00003821 	move	a3,zero
    9418:	0a000f56 	j	0x8003d58
    941c:	af990098 	sw	t9,152(gp)
    9420:	00403821 	move	a3,v0
    9424:	24040010 	li	a0,16
    9428:	970f0002 	lhu	t7,2(t8)
    942c:	00002821 	move	a1,zero
    9430:	0e000d2f 	jal	0x80034bc
    9434:	31e6ffff 	andi	a2,t7,0xffff
    9438:	8f860058 	lw	a2,88(gp)
    943c:	0a000f00 	j	0x8003c00
    9440:	af910098 	sw	s1,152(gp)
    9444:	8f84ff2c 	lw	a0,-212(gp)
    9448:	3c077fff 	lui	a3,0x7fff
    944c:	34e6ffff 	ori	a2,a3,0xffff
    9450:	8c850018 	lw	a1,24(a0)
    9454:	24020001 	li	v0,1
    9458:	00a61824 	and	v1,a1,a2
    945c:	ac830018 	sw	v1,24(a0)
    9460:	03e00008 	jr	ra
    9464:	a0820005 	sb	v0,5(a0)
    9468:	3084ffff 	andi	a0,a0,0xffff
    946c:	30a5ffff 	andi	a1,a1,0xffff
    9470:	10800007 	beqz	a0,0x9490
    9474:	00001821 	move	v1,zero
    9478:	30820001 	andi	v0,a0,0x1
    947c:	10400002 	beqz	v0,0x9488
    9480:	00042042 	srl	a0,a0,0x1
    9484:	00651821 	addu	v1,v1,a1
    9488:	1480fffb 	bnez	a0,0x9478
    948c:	00052840 	sll	a1,a1,0x1
    9490:	03e00008 	jr	ra
    9494:	00601021 	move	v0,v1
    9498:	10c00007 	beqz	a2,0x94b8
    949c:	00000000 	nop
    94a0:	8ca20000 	lw	v0,0(a1)
    94a4:	24c6ffff 	addiu	a2,a2,-1
    94a8:	24a50004 	addiu	a1,a1,4
    94ac:	ac820000 	sw	v0,0(a0)
    94b0:	14c0fffb 	bnez	a2,0x94a0
    94b4:	24840004 	addiu	a0,a0,4
    94b8:	03e00008 	jr	ra
    94bc:	00000000 	nop
    94c0:	10a00008 	beqz	a1,0x94e4
    94c4:	24a3ffff 	addiu	v1,a1,-1
    94c8:	ac860000 	sw	a2,0(a0)
	...
    94d4:	2402ffff 	li	v0,-1
    94d8:	2463ffff 	addiu	v1,v1,-1
    94dc:	1462fffa 	bne	v1,v0,0x94c8
    94e0:	24840004 	addiu	a0,a0,4
    94e4:	03e00008 	jr	ra
    94e8:	00000000 	nop
    94ec:	000411c0 	sll	v0,a0,0x7
    94f0:	03e00008 	jr	ra
    94f4:	24420240 	addiu	v0,v0,576
    94f8:	27bdffe8 	addiu	sp,sp,-24
    94fc:	afb00010 	sw	s0,16(sp)
    9500:	00808021 	move	s0,a0
    9504:	afbf0014 	sw	ra,20(sp)
    9508:	0e000f96 	jal	0x8003e58
    950c:	00a02021 	move	a0,a1
    9510:	00504821 	addu	t1,v0,s0
    9514:	240aff80 	li	t2,-128
    9518:	8fbf0014 	lw	ra,20(sp)
    951c:	8fb00010 	lw	s0,16(sp)
    9520:	012a3024 	and	a2,t1,t2
    9524:	3127007f 	andi	a3,t1,0x7f
    9528:	3c08800a 	lui	t0,0x800a
    952c:	3c042100 	lui	a0,0x2100
    9530:	00e81021 	addu	v0,a3,t0
    9534:	00c42825 	or	a1,a2,a0
    9538:	3c038000 	lui	v1,0x8000
    953c:	27bd0018 	addiu	sp,sp,24
    9540:	ac650024 	sw	a1,36(v1)
    9544:	af820038 	sw	v0,56(gp)
    9548:	ac400000 	sw	zero,0(v0)
    954c:	ac650024 	sw	a1,36(v1)
    9550:	03e00008 	jr	ra
    9554:	ac400040 	sw	zero,64(v0)
    9558:	3c0d0800 	lui	t5,0x800
    955c:	8dad0058 	lw	t5,88(t5)
    9560:	00056180 	sll	t4,a1,0x6
    9564:	240aff80 	li	t2,-128
    9568:	01a45821 	addu	t3,t5,a0
    956c:	016c4821 	addu	t1,t3,t4
    9570:	012a3024 	and	a2,t1,t2
    9574:	3127007f 	andi	a3,t1,0x7f
    9578:	3c08800c 	lui	t0,0x800c
    957c:	3c042100 	lui	a0,0x2100
    9580:	00e81021 	addu	v0,a3,t0
    9584:	00c42825 	or	a1,a2,a0
    9588:	3c038000 	lui	v1,0x8000
    958c:	ac650028 	sw	a1,40(v1)
    9590:	af820034 	sw	v0,52(gp)
    9594:	03e00008 	jr	ra
    9598:	ac400024 	sw	zero,36(v0)
    959c:	30a5ffff 	andi	a1,a1,0xffff
    95a0:	3c068000 	lui	a2,0x8000
    95a4:	8cc201b8 	lw	v0,440(a2)
    95a8:	0440fffe 	bltz	v0,0x95a4
    95ac:	3c086015 	lui	t0,0x6015
    95b0:	00a83825 	or	a3,a1,t0
    95b4:	3c031000 	lui	v1,0x1000
    95b8:	acc40180 	sw	a0,384(a2)
    95bc:	acc00184 	sw	zero,388(a2)
    95c0:	acc70188 	sw	a3,392(a2)
    95c4:	03e00008 	jr	ra
    95c8:	acc301b8 	sw	v1,440(a2)
    95cc:	3c0d0800 	lui	t5,0x800
    95d0:	8dad0058 	lw	t5,88(t5)
    95d4:	00056180 	sll	t4,a1,0x6
    95d8:	240aff80 	li	t2,-128
    95dc:	01a45821 	addu	t3,t5,a0
    95e0:	016c4021 	addu	t0,t3,t4
    95e4:	010a4824 	and	t1,t0,t2
    95e8:	00093140 	sll	a2,t1,0x5
    95ec:	3107007f 	andi	a3,t0,0x7f
    95f0:	00c72825 	or	a1,a2,a3
    95f4:	3c042000 	lui	a0,0x2000
    95f8:	00a41825 	or	v1,a1,a0
    95fc:	3c028000 	lui	v0,0x8000
    9600:	ac430830 	sw	v1,2096(v0)
    9604:	03e00008 	jr	ra
    9608:	af800034 	sw	zero,52(gp)
    960c:	27bdffe8 	addiu	sp,sp,-24
    9610:	afb00010 	sw	s0,16(sp)
    9614:	00808021 	move	s0,a0
    9618:	afbf0014 	sw	ra,20(sp)
    961c:	0e000f96 	jal	0x8003e58
    9620:	00a02021 	move	a0,a1
    9624:	00504821 	addu	t1,v0,s0
    9628:	240bff80 	li	t3,-128
    962c:	012b5024 	and	t2,t1,t3
    9630:	000a3940 	sll	a3,t2,0x5
    9634:	3128007f 	andi	t0,t1,0x7f
    9638:	3c062000 	lui	a2,0x2000
    963c:	8fbf0014 	lw	ra,20(sp)
    9640:	8fb00010 	lw	s0,16(sp)
    9644:	00e82825 	or	a1,a3,t0
    9648:	34c20001 	ori	v0,a2,0x1
    964c:	00a21825 	or	v1,a1,v0
    9650:	3c048000 	lui	a0,0x8000
    9654:	27bd0018 	addiu	sp,sp,24
    9658:	ac830830 	sw	v1,2096(a0)
    965c:	03e00008 	jr	ra
    9660:	af800038 	sw	zero,56(gp)
    9664:	3c058008 	lui	a1,0x8008
    9668:	8ca70060 	lw	a3,96(a1)
    966c:	3c068008 	lui	a2,0x8008
    9670:	0087102b 	sltu	v0,a0,a3
    9674:	14400011 	bnez	v0,0x96bc
    9678:	2c834000 	sltiu	v1,a0,16384
    967c:	8ca80060 	lw	t0,96(a1)
    9680:	2d034000 	sltiu	v1,t0,16384
    9684:	1060000f 	beqz	v1,0x96c4
    9688:	24034000 	li	v1,16384
    968c:	8cc90060 	lw	t1,96(a2)
    9690:	0089282b 	sltu	a1,a0,t1
    9694:	14a00002 	bnez	a1,0x96a0
    9698:	00801821 	move	v1,a0
    969c:	8cc30060 	lw	v1,96(a2)
    96a0:	00035a42 	srl	t3,v1,0x9
    96a4:	000b3080 	sll	a2,t3,0x2
    96a8:	3c0a0800 	lui	t2,0x800
    96ac:	254a5920 	addiu	t2,t2,22816
    96b0:	00ca2021 	addu	a0,a2,t2
    96b4:	03e00008 	jr	ra
    96b8:	8c820000 	lw	v0,0(a0)
    96bc:	1460fff3 	bnez	v1,0x968c
    96c0:	24034000 	li	v1,16384
    96c4:	00035a42 	srl	t3,v1,0x9
    96c8:	000b3080 	sll	a2,t3,0x2
    96cc:	3c0a0800 	lui	t2,0x800
    96d0:	254a5920 	addiu	t2,t2,22816
    96d4:	00ca2021 	addu	a0,a2,t2
    96d8:	03e00008 	jr	ra
    96dc:	8c820000 	lw	v0,0(a0)
    96e0:	3c058008 	lui	a1,0x8008
    96e4:	90a60008 	lbu	a2,8(a1)
    96e8:	938400ab 	lbu	a0,171(gp)
    96ec:	24c20001 	addiu	v0,a2,1
    96f0:	304200ff 	andi	v0,v0,0xff
    96f4:	3043007f 	andi	v1,v0,0x7f
    96f8:	1064000c 	beq	v1,a0,0x972c
    96fc:	00023827 	nor	a3,zero,v0
    9700:	a0a20008 	sb	v0,8(a1)
    9704:	3c048000 	lui	a0,0x8000
    9708:	8c850178 	lw	a1,376(a0)
    970c:	04a0fffe 	bltz	a1,0x9708
    9710:	8f8a00a0 	lw	t2,160(gp)
    9714:	24090002 	li	t1,2
    9718:	3c081000 	lui	t0,0x1000
    971c:	ac8a0140 	sw	t2,320(a0)
    9720:	a0890144 	sb	t1,324(a0)
    9724:	03e00008 	jr	ra
    9728:	ac880178 	sw	t0,376(a0)
    972c:	0a00101b 	j	0x800406c
    9730:	30e20080 	andi	v0,a3,0x80
    9734:	27bdffd8 	addiu	sp,sp,-40
    9738:	afb20018 	sw	s2,24(sp)
    973c:	8f9200a4 	lw	s2,164(gp)
    9740:	afbf0020 	sw	ra,32(sp)
    9744:	afb3001c 	sw	s3,28(sp)
    9748:	afb00010 	sw	s0,16(sp)
    974c:	afb10014 	sw	s1,20(sp)
    9750:	8f930034 	lw	s3,52(gp)
    9754:	8e590028 	lw	t9,40(s2)
    9758:	3c100080 	lui	s0,0x80
    975c:	3c0effef 	lui	t6,0xffef
    9760:	ae790000 	sw	t9,0(s3)
    9764:	8e580024 	lw	t8,36(s2)
    9768:	a260000a 	sb	zero,10(s3)
    976c:	35cdffff 	ori	t5,t6,0xffff
    9770:	ae780004 	sw	t8,4(s3)
    9774:	9251002c 	lbu	s1,44(s2)
    9778:	3c0bff9f 	lui	t3,0xff9f
    977c:	356affff 	ori	t2,t3,0xffff
    9780:	a271000c 	sb	s1,12(s3)
    9784:	8e6f000c 	lw	t7,12(s3)
    9788:	3c080040 	lui	t0,0x40
    978c:	a271000b 	sb	s1,11(s3)
    9790:	01f06025 	or	t4,t7,s0
    9794:	018d4824 	and	t1,t4,t5
    9798:	012a3824 	and	a3,t1,t2
    979c:	00e83025 	or	a2,a3,t0
    97a0:	ae66000c 	sw	a2,12(s3)
    97a4:	8e450004 	lw	a1,4(s2)
    97a8:	ae600018 	sw	zero,24(s3)
    97ac:	3c0400ff 	lui	a0,0xff
    97b0:	ae650014 	sw	a1,20(s3)
    97b4:	8e43002c 	lw	v1,44(s2)
    97b8:	3482ffff 	ori	v0,a0,0xffff
    97bc:	a6600008 	sh	zero,8(s3)
    97c0:	0062f824 	and	ra,v1,v0
    97c4:	ae7f0010 	sw	ra,16(s3)
    97c8:	8e590008 	lw	t9,8(s2)
    97cc:	8f9000a0 	lw	s0,160(gp)
    97d0:	964e0012 	lhu	t6,18(s2)
    97d4:	ae790020 	sw	t9,32(s3)
    97d8:	8e51000c 	lw	s1,12(s2)
    97dc:	31d83fff 	andi	t8,t6,0x3fff
    97e0:	00187980 	sll	t7,t8,0x6
    97e4:	ae710024 	sw	s1,36(s3)
    97e8:	8e4d0014 	lw	t5,20(s2)
    97ec:	01f06021 	addu	t4,t7,s0
    97f0:	31cb0001 	andi	t3,t6,0x1
    97f4:	ae6d0028 	sw	t5,40(s3)
    97f8:	8e4a0018 	lw	t2,24(s2)
    97fc:	000c41c2 	srl	t0,t4,0x7
    9800:	000b4b80 	sll	t1,t3,0xe
    9804:	ae6a002c 	sw	t2,44(s3)
    9808:	8e46001c 	lw	a2,28(s2)
    980c:	01093821 	addu	a3,t0,t1
    9810:	a667001c 	sh	a3,28(s3)
    9814:	ae660030 	sw	a2,48(s3)
    9818:	96450002 	lhu	a1,2(s2)
    981c:	8e440020 	lw	a0,32(s2)
    9820:	a665001e 	sh	a1,30(s3)
    9824:	ae640034 	sw	a0,52(s3)
    9828:	92430033 	lbu	v1,51(s2)
    982c:	30620004 	andi	v0,v1,0x4
    9830:	54400006 	bnezl	v0,0x984c
    9834:	92470000 	lbu	a3,0(s2)
    9838:	3c028008 	lui	v0,0x8008
    983c:	34430100 	ori	v1,v0,0x100
    9840:	8c7f00d0 	lw	ra,208(v1)
    9844:	ae7f0030 	sw	ra,48(s3)
    9848:	92470000 	lbu	a3,0(s2)
    984c:	8f860038 	lw	a2,56(gp)
    9850:	a0c70030 	sb	a3,48(a2)
    9854:	92450033 	lbu	a1,51(s2)
    9858:	30a40002 	andi	a0,a1,0x2
    985c:	50800007 	beqzl	a0,0x987c
    9860:	92510001 	lbu	s1,1(s2)
    9864:	8f880038 	lw	t0,56(gp)
    9868:	240bff80 	li	t3,-128
    986c:	910a0030 	lbu	t2,48(t0)
    9870:	014b4825 	or	t1,t2,t3
    9874:	a1090030 	sb	t1,48(t0)
    9878:	92510001 	lbu	s1,1(s2)
    987c:	8f900038 	lw	s0,56(gp)
    9880:	240cffbf 	li	t4,-65
    9884:	2404ffdf 	li	a0,-33
    9888:	a2110031 	sb	s1,49(s0)
    988c:	8f8d0038 	lw	t5,56(gp)
    9890:	3c188008 	lui	t8,0x8008
    9894:	37110080 	ori	s1,t8,0x80
    9898:	91af003c 	lbu	t7,60(t5)
    989c:	31ee007f 	andi	t6,t7,0x7f
    98a0:	a1ae003c 	sb	t6,60(t5)
    98a4:	8f890038 	lw	t1,56(gp)
    98a8:	912b003c 	lbu	t3,60(t1)
    98ac:	016c5024 	and	t2,t3,t4
    98b0:	a12a003c 	sb	t2,60(t1)
    98b4:	8f9f0038 	lw	ra,56(gp)
    98b8:	8e680014 	lw	t0,20(s3)
    98bc:	93e6003c 	lbu	a2,60(ra)
    98c0:	2d070001 	sltiu	a3,t0,1
    98c4:	00071140 	sll	v0,a3,0x5
    98c8:	00c42824 	and	a1,a2,a0
    98cc:	00a21825 	or	v1,a1,v0
    98d0:	a3e3003c 	sb	v1,60(ra)
    98d4:	8f870038 	lw	a3,56(gp)
    98d8:	96590012 	lhu	t9,18(s2)
    98dc:	a4f90032 	sh	t9,50(a3)
    98e0:	8e450004 	lw	a1,4(s2)
    98e4:	922e007c 	lbu	t6,124(s1)
    98e8:	30b00003 	andi	s0,a1,0x3
    98ec:	00107823 	negu	t7,s0
    98f0:	31ed0003 	andi	t5,t7,0x3
    98f4:	00ad1021 	addu	v0,a1,t5
    98f8:	31cc0002 	andi	t4,t6,0x2
    98fc:	15800002 	bnez	t4,0x9908
    9900:	24460034 	addiu	a2,v0,52
    9904:	24460030 	addiu	a2,v0,48
    9908:	3c028008 	lui	v0,0x8008
    990c:	34430080 	ori	v1,v0,0x80
    9910:	907f007c 	lbu	ra,124(v1)
    9914:	00bfc824 	and	t9,a1,ra
    9918:	33380004 	andi	t8,t9,0x4
    991c:	17000002 	bnez	t8,0x9928
    9920:	24c20004 	addiu	v0,a2,4
    9924:	00c01021 	move	v0,a2
    9928:	8f980038 	lw	t8,56(gp)
    992c:	24190002 	li	t9,2
    9930:	ace20034 	sw	v0,52(a3)
    9934:	a3190000 	sb	t9,0(t8)
    9938:	924f003f 	lbu	t7,63(s2)
    993c:	8f8e0038 	lw	t6,56(gp)
    9940:	3c0c8008 	lui	t4,0x8008
    9944:	358b0080 	ori	t3,t4,0x80
    9948:	a1cf0001 	sb	t7,1(t6)
    994c:	8f910038 	lw	s1,56(gp)
    9950:	924d003f 	lbu	t5,63(s2)
    9954:	8e440004 	lw	a0,4(s2)
    9958:	a62d0002 	sh	t5,2(s1)
    995c:	956a005c 	lhu	t2,92(t3)
    9960:	0e000ff4 	jal	0x8003fd0
    9964:	3150ffff 	andi	s0,t2,0xffff
    9968:	00024b80 	sll	t1,v0,0xe
    996c:	02093825 	or	a3,s0,t1
    9970:	3c084200 	lui	t0,0x4200
    9974:	00e82825 	or	a1,a3,t0
    9978:	ae250004 	sw	a1,4(s1)
    997c:	8e440038 	lw	a0,56(s2)
    9980:	8f850038 	lw	a1,56(gp)
    9984:	aca40018 	sw	a0,24(a1)
    9988:	8e460034 	lw	a2,52(s2)
    998c:	aca6001c 	sw	a2,28(a1)
    9990:	aca0000c 	sw	zero,12(a1)
    9994:	aca00010 	sw	zero,16(a1)
    9998:	a4a00014 	sh	zero,20(a1)
    999c:	a4a00016 	sh	zero,22(a1)
    99a0:	a4a00020 	sh	zero,32(a1)
    99a4:	a4a00022 	sh	zero,34(a1)
    99a8:	aca00024 	sw	zero,36(a1)
    99ac:	8e620014 	lw	v0,20(s3)
    99b0:	50400001 	beqzl	v0,0x99b8
    99b4:	24020001 	li	v0,1
    99b8:	8fbf0020 	lw	ra,32(sp)
    99bc:	8fb3001c 	lw	s3,28(sp)
    99c0:	8fb20018 	lw	s2,24(sp)
    99c4:	8fb10014 	lw	s1,20(sp)
    99c8:	8fb00010 	lw	s0,16(sp)
    99cc:	aca20008 	sw	v0,8(a1)
    99d0:	0a001013 	j	0x800404c
    99d4:	27bd0028 	addiu	sp,sp,40
    99d8:	27bdffc8 	addiu	sp,sp,-56
    99dc:	3c058008 	lui	a1,0x8008
    99e0:	34a40080 	ori	a0,a1,0x80
    99e4:	afbf0034 	sw	ra,52(sp)
    99e8:	afbe0030 	sw	s8,48(sp)
    99ec:	afb7002c 	sw	s7,44(sp)
    99f0:	afb60028 	sw	s6,40(sp)
    99f4:	afb50024 	sw	s5,36(sp)
    99f8:	afb40020 	sw	s4,32(sp)
    99fc:	afb3001c 	sw	s3,28(sp)
    9a00:	afb20018 	sw	s2,24(sp)
    9a04:	afb10014 	sw	s1,20(sp)
    9a08:	afb00010 	sw	s0,16(sp)
    9a0c:	94830078 	lhu	v1,120(a0)
    9a10:	9482007a 	lhu	v0,122(a0)
    9a14:	10430051 	beq	v0,v1,0x9b5c
    9a18:	2405ffff 	li	a1,-1
    9a1c:	0080f021 	move	s8,a0
    9a20:	0a001123 	j	0x800448c
    9a24:	0080b821 	move	s7,a0
    9a28:	108b004d 	beq	a0,t3,0x9b60
    9a2c:	8fbf0034 	lw	ra,52(sp)
    9a30:	8f8600a0 	lw	a2,160(gp)
    9a34:	3c180800 	lui	t8,0x800
    9a38:	8f18005c 	lw	t8,92(t8)
    9a3c:	2411ff80 	li	s1,-128
    9a40:	3c168000 	lui	s6,0x8000
    9a44:	03067821 	addu	t7,t8,a2
    9a48:	01f18024 	and	s0,t7,s1
    9a4c:	aed0002c 	sw	s0,44(s6)
    9a50:	96ee007a 	lhu	t6,122(s7)
    9a54:	31ec007f 	andi	t4,t7,0x7f
    9a58:	3c0d800e 	lui	t5,0x800e
    9a5c:	31cb7fff 	andi	t3,t6,0x7fff
    9a60:	018d5021 	addu	t2,t4,t5
    9a64:	000b4840 	sll	t1,t3,0x1
    9a68:	012aa821 	addu	s5,t1,t2
    9a6c:	96a40000 	lhu	a0,0(s5)
    9a70:	3c080800 	lui	t0,0x800
    9a74:	8d080058 	lw	t0,88(t0)
    9a78:	2405ff80 	li	a1,-128
    9a7c:	30953fff 	andi	s5,a0,0x3fff
    9a80:	01061821 	addu	v1,t0,a2
    9a84:	00153980 	sll	a3,s5,0x6
    9a88:	0067c821 	addu	t9,v1,a3
    9a8c:	0325f824 	and	ra,t9,a1
    9a90:	3c020100 	lui	v0,0x100
    9a94:	03e29025 	or	s2,ra,v0
    9a98:	3338007f 	andi	t8,t9,0x7f
    9a9c:	3c11800c 	lui	s1,0x800c
    9aa0:	aed20028 	sw	s2,40(s6)
    9aa4:	03119021 	addu	s2,t8,s1
    9aa8:	9250000d 	lbu	s0,13(s2)
    9aac:	320f0004 	andi	t7,s0,0x4
    9ab0:	11e00037 	beqz	t7,0x9b90
    9ab4:	02e09821 	move	s3,s7
    9ab8:	96e3007a 	lhu	v1,122(s7)
    9abc:	96e8007a 	lhu	t0,122(s7)
    9ac0:	96e5007a 	lhu	a1,122(s7)
    9ac4:	24048000 	li	a0,-32768
    9ac8:	31077fff 	andi	a3,t0,0x7fff
    9acc:	24e30001 	addiu	v1,a3,1
    9ad0:	30627fff 	andi	v0,v1,0x7fff
    9ad4:	00a4f824 	and	ra,a1,a0
    9ad8:	03e2c825 	or	t9,ra,v0
    9adc:	a6f9007a 	sh	t9,122(s7)
    9ae0:	96e6007a 	lhu	a2,122(s7)
    9ae4:	3c140800 	lui	s4,0x800
    9ae8:	8e940060 	lw	s4,96(s4)
    9aec:	30d67fff 	andi	s6,a2,0x7fff
    9af0:	12d400c1 	beq	s6,s4,0x9df8
    9af4:	00000000 	nop
    9af8:	8e580018 	lw	t8,24(s2)
    9afc:	8f8400a0 	lw	a0,160(gp)
    9b00:	02a02821 	move	a1,s5
    9b04:	2713ffff 	addiu	s3,t8,-1
    9b08:	0e000fce 	jal	0x8003f38
    9b0c:	ae53002c 	sw	s3,44(s2)
    9b10:	97d50078 	lhu	s5,120(s8)
    9b14:	97d4007a 	lhu	s4,122(s8)
    9b18:	12950010 	beq	s4,s5,0x9b5c
    9b1c:	00002821 	move	a1,zero
    9b20:	3c098008 	lui	t1,0x8008
    9b24:	35240100 	ori	a0,t1,0x100
    9b28:	3c0a8008 	lui	t2,0x8008
    9b2c:	91480008 	lbu	t0,8(t2)
    9b30:	908700d5 	lbu	a3,213(a0)
    9b34:	3114007f 	andi	s4,t0,0x7f
    9b38:	30e400ff 	andi	a0,a3,0xff
    9b3c:	0284302b 	sltu	a2,s4,a0
    9b40:	14c0ffb9 	bnez	a2,0x9a28
    9b44:	268b0001 	addiu	t3,s4,1
    9b48:	938e00ab 	lbu	t6,171(gp)
    9b4c:	268c0001 	addiu	t4,s4,1
    9b50:	008e6821 	addu	t5,a0,t6
    9b54:	15acffb7 	bne	t5,t4,0x9a34
    9b58:	8f8600a0 	lw	a2,160(gp)
    9b5c:	8fbf0034 	lw	ra,52(sp)
    9b60:	8fbe0030 	lw	s8,48(sp)
    9b64:	8fb7002c 	lw	s7,44(sp)
    9b68:	8fb60028 	lw	s6,40(sp)
    9b6c:	8fb50024 	lw	s5,36(sp)
    9b70:	8fb40020 	lw	s4,32(sp)
    9b74:	8fb3001c 	lw	s3,28(sp)
    9b78:	8fb20018 	lw	s2,24(sp)
    9b7c:	8fb10014 	lw	s1,20(sp)
    9b80:	8fb00010 	lw	s0,16(sp)
    9b84:	00a01021 	move	v0,a1
    9b88:	03e00008 	jr	ra
    9b8c:	27bd0038 	addiu	sp,sp,56
    9b90:	00c02021 	move	a0,a2
    9b94:	0e000f99 	jal	0x8003e64
    9b98:	02802821 	move	a1,s4
    9b9c:	8e4b0010 	lw	t3,16(s2)
    9ba0:	8e4c0030 	lw	t4,48(s2)
    9ba4:	8f840038 	lw	a0,56(gp)
    9ba8:	24090002 	li	t1,2
    9bac:	016c5023 	subu	t2,t3,t4
    9bb0:	ae4a0010 	sw	t2,16(s2)
    9bb4:	a0890000 	sb	t1,0(a0)
    9bb8:	96e3005c 	lhu	v1,92(s7)
    9bbc:	8e440030 	lw	a0,48(s2)
    9bc0:	8f910038 	lw	s1,56(gp)
    9bc4:	0e000ff4 	jal	0x8003fd0
    9bc8:	3070ffff 	andi	s0,v1,0xffff
    9bcc:	00024380 	sll	t0,v0,0xe
    9bd0:	02083825 	or	a3,s0,t0
    9bd4:	3c024200 	lui	v0,0x4200
    9bd8:	00e22825 	or	a1,a3,v0
    9bdc:	ae250004 	sw	a1,4(s1)
    9be0:	8e5f0004 	lw	ra,4(s2)
    9be4:	8f8a0038 	lw	t2,56(gp)
    9be8:	8e590000 	lw	t9,0(s2)
    9bec:	240b0008 	li	t3,8
    9bf0:	ad5f001c 	sw	ra,28(t2)
    9bf4:	ad590018 	sw	t9,24(t2)
    9bf8:	ad40000c 	sw	zero,12(t2)
    9bfc:	ad400010 	sw	zero,16(t2)
    9c00:	9246000a 	lbu	a2,10(s2)
    9c04:	24040005 	li	a0,5
    9c08:	2408c000 	li	t0,-16384
    9c0c:	30d000ff 	andi	s0,a2,0xff
    9c10:	a5500014 	sh	s0,20(t2)
    9c14:	96580008 	lhu	t8,8(s2)
    9c18:	a5580016 	sh	t8,22(t2)
    9c1c:	9251000a 	lbu	s1,10(s2)
    9c20:	3c188008 	lui	t8,0x8008
    9c24:	322f00ff 	andi	t7,s1,0xff
    9c28:	a54f0020 	sh	t7,32(t2)
    9c2c:	964e0008 	lhu	t6,8(s2)
    9c30:	37110100 	ori	s1,t8,0x100
    9c34:	a54e0022 	sh	t6,34(t2)
    9c38:	ad400024 	sw	zero,36(t2)
    9c3c:	924d000b 	lbu	t5,11(s2)
    9c40:	31ac00ff 	andi	t4,t5,0xff
    9c44:	a54c0002 	sh	t4,2(t2)
    9c48:	a14b0001 	sb	t3,1(t2)
    9c4c:	8e490030 	lw	t1,48(s2)
    9c50:	8f830038 	lw	v1,56(gp)
    9c54:	240bffbf 	li	t3,-65
    9c58:	ac690008 	sw	t1,8(v1)
    9c5c:	a0640030 	sb	a0,48(v1)
    9c60:	8f900038 	lw	s0,56(gp)
    9c64:	2403ffdf 	li	v1,-33
    9c68:	96070032 	lhu	a3,50(s0)
    9c6c:	00e82824 	and	a1,a3,t0
    9c70:	00b51025 	or	v0,a1,s5
    9c74:	a6020032 	sh	v0,50(s0)
    9c78:	921f0032 	lbu	ra,50(s0)
    9c7c:	33f9003f 	andi	t9,ra,0x3f
    9c80:	37260040 	ori	a2,t9,0x40
    9c84:	a2060032 	sb	a2,50(s0)
    9c88:	8f8c0038 	lw	t4,56(gp)
    9c8c:	ad800034 	sw	zero,52(t4)
    9c90:	8e2f00d0 	lw	t7,208(s1)
    9c94:	ad8f0038 	sw	t7,56(t4)
    9c98:	918e003c 	lbu	t6,60(t4)
    9c9c:	3c0f7fff 	lui	t7,0x7fff
    9ca0:	31cd007f 	andi	t5,t6,0x7f
    9ca4:	a18d003c 	sb	t5,60(t4)
    9ca8:	8f840038 	lw	a0,56(gp)
    9cac:	35eeffff 	ori	t6,t7,0xffff
    9cb0:	908a003c 	lbu	t2,60(a0)
    9cb4:	014b4824 	and	t1,t2,t3
    9cb8:	a089003c 	sb	t1,60(a0)
    9cbc:	8f850038 	lw	a1,56(gp)
    9cc0:	90a8003c 	lbu	t0,60(a1)
    9cc4:	01033824 	and	a3,t0,v1
    9cc8:	a0a7003c 	sb	a3,60(a1)
    9ccc:	8e420034 	lw	v0,52(s2)
    9cd0:	8f910038 	lw	s1,56(gp)
    9cd4:	3c038008 	lui	v1,0x8008
    9cd8:	ae220040 	sw	v0,64(s1)
    9cdc:	8e59002c 	lw	t9,44(s2)
    9ce0:	8e5f0030 	lw	ra,48(s2)
    9ce4:	033f3023 	subu	a2,t9,ra
    9ce8:	ae260044 	sw	a2,68(s1)
    9cec:	92300048 	lbu	s0,72(s1)
    9cf0:	3218007f 	andi	t8,s0,0x7f
    9cf4:	a2380048 	sb	t8,72(s1)
    9cf8:	8f880038 	lw	t0,56(gp)
    9cfc:	8e4d0030 	lw	t5,48(s2)
    9d00:	8d0c0048 	lw	t4,72(t0)
    9d04:	01ae5824 	and	t3,t5,t6
    9d08:	01965024 	and	t2,t4,s6
    9d0c:	014b4825 	or	t1,t2,t3
    9d10:	ad090048 	sw	t1,72(t0)
    9d14:	9244000a 	lbu	a0,10(s2)
    9d18:	a104004c 	sb	a0,76(t0)
    9d1c:	96470008 	lhu	a3,8(s2)
    9d20:	8f850038 	lw	a1,56(gp)
    9d24:	a4a7004e 	sh	a3,78(a1)
    9d28:	8e500030 	lw	s0,48(s2)
    9d2c:	8e440030 	lw	a0,48(s2)
    9d30:	0e000381 	jal	0x8000e04
    9d34:	8c650060 	lw	a1,96(v1)
    9d38:	92f9007c 	lbu	t9,124(s7)
    9d3c:	0002f940 	sll	ra,v0,0x5
    9d40:	00402821 	move	a1,v0
    9d44:	00021100 	sll	v0,v0,0x4
    9d48:	03e23021 	addu	a2,ra,v0
    9d4c:	33360002 	andi	s6,t9,0x2
    9d50:	12c00003 	beqz	s6,0x9d60
    9d54:	02068021 	addu	s0,s0,a2
    9d58:	0005b080 	sll	s6,a1,0x2
    9d5c:	02168021 	addu	s0,s0,s6
    9d60:	926d007c 	lbu	t5,124(s3)
    9d64:	31b30004 	andi	s3,t5,0x4
    9d68:	12600002 	beqz	s3,0x9d74
    9d6c:	00057080 	sll	t6,a1,0x2
    9d70:	020e8021 	addu	s0,s0,t6
    9d74:	8e4b0030 	lw	t3,48(s2)
    9d78:	8f880038 	lw	t0,56(gp)
    9d7c:	24058000 	li	a1,-32768
    9d80:	316a0003 	andi	t2,t3,0x3
    9d84:	000a4823 	negu	t1,t2
    9d88:	31240003 	andi	a0,t1,0x3
    9d8c:	02041821 	addu	v1,s0,a0
    9d90:	ad030034 	sw	v1,52(t0)
    9d94:	96e4007a 	lhu	a0,122(s7)
    9d98:	96f0007a 	lhu	s0,122(s7)
    9d9c:	96f1007a 	lhu	s1,122(s7)
    9da0:	32027fff 	andi	v0,s0,0x7fff
    9da4:	24470001 	addiu	a3,v0,1
    9da8:	30ff7fff 	andi	ra,a3,0x7fff
    9dac:	0225c824 	and	t9,s1,a1
    9db0:	033f3025 	or	a2,t9,ra
    9db4:	a6e6007a 	sh	a2,122(s7)
    9db8:	96f8007a 	lhu	t8,122(s7)
    9dbc:	3c120800 	lui	s2,0x800
    9dc0:	8e520060 	lw	s2,96(s2)
    9dc4:	330f7fff 	andi	t7,t8,0x7fff
    9dc8:	11f20018 	beq	t7,s2,0x9e2c
    9dcc:	00000000 	nop
    9dd0:	8f8400a0 	lw	a0,160(gp)
    9dd4:	0e000fce 	jal	0x8003f38
    9dd8:	02a02821 	move	a1,s5
    9ddc:	8f8400a0 	lw	a0,160(gp)
    9de0:	0e000fde 	jal	0x8003f78
    9de4:	02802821 	move	a1,s4
    9de8:	0e001013 	jal	0x800404c
    9dec:	00000000 	nop
    9df0:	0a00111f 	j	0x800447c
    9df4:	00000000 	nop
    9df8:	96f1007a 	lhu	s1,122(s7)
    9dfc:	02248024 	and	s0,s1,a0
    9e00:	a6f0007a 	sh	s0,122(s7)
    9e04:	92ef007a 	lbu	t7,122(s7)
    9e08:	92eb007a 	lbu	t3,122(s7)
    9e0c:	31ee00ff 	andi	t6,t7,0xff
    9e10:	000e69c2 	srl	t5,t6,0x7
    9e14:	000d6027 	nor	t4,zero,t5
    9e18:	000c51c0 	sll	t2,t4,0x7
    9e1c:	3169007f 	andi	t1,t3,0x7f
    9e20:	012a2025 	or	a0,t1,t2
    9e24:	0a001119 	j	0x8004464
    9e28:	a2e4007a 	sb	a0,122(s7)
    9e2c:	96e6007a 	lhu	a2,122(s7)
    9e30:	00c5c024 	and	t8,a2,a1
    9e34:	a6f8007a 	sh	t8,122(s7)
    9e38:	92ef007a 	lbu	t7,122(s7)
    9e3c:	92f3007a 	lbu	s3,122(s7)
    9e40:	31f200ff 	andi	s2,t7,0xff
    9e44:	001271c2 	srl	t6,s2,0x7
    9e48:	000e6827 	nor	t5,zero,t6
    9e4c:	000db1c0 	sll	s6,t5,0x7
    9e50:	326c007f 	andi	t4,s3,0x7f
    9e54:	01962825 	or	a1,t4,s6
    9e58:	a2e5007a 	sb	a1,122(s7)
    9e5c:	0a0011d0 	j	0x8004740
    9e60:	8f8400a0 	lw	a0,160(gp)
    9e64:	3c038000 	lui	v1,0x8000
    9e68:	3084ffff 	andi	a0,a0,0xffff
    9e6c:	30a5ffff 	andi	a1,a1,0xffff
    9e70:	ac640018 	sw	a0,24(v1)
    9e74:	ac65001c 	sw	a1,28(v1)
    9e78:	03e00008 	jr	ra
    9e7c:	8c620014 	lw	v0,20(v1)
    9e80:	27bdffa0 	addiu	sp,sp,-96
    9e84:	3c068008 	lui	a2,0x8008
    9e88:	afbf005c 	sw	ra,92(sp)
    9e8c:	afbe0058 	sw	s8,88(sp)
    9e90:	afb70054 	sw	s7,84(sp)
    9e94:	afb60050 	sw	s6,80(sp)
    9e98:	afb5004c 	sw	s5,76(sp)
    9e9c:	afb40048 	sw	s4,72(sp)
    9ea0:	afb30044 	sw	s3,68(sp)
    9ea4:	afb20040 	sw	s2,64(sp)
    9ea8:	afb1003c 	sw	s1,60(sp)
    9eac:	afb00038 	sw	s0,56(sp)
    9eb0:	34c80100 	ori	t0,a2,0x100
    9eb4:	910500d5 	lbu	a1,213(t0)
    9eb8:	90c70008 	lbu	a3,8(a2)
    9ebc:	3084ffff 	andi	a0,a0,0xffff
    9ec0:	30a500ff 	andi	a1,a1,0xff
    9ec4:	30e2007f 	andi	v0,a3,0x7f
    9ec8:	0045182a 	slt	v1,v0,a1
    9ecc:	afa40010 	sw	a0,16(sp)
    9ed0:	a7a00018 	sh	zero,24(sp)
    9ed4:	a7a00026 	sh	zero,38(sp)
    9ed8:	10600055 	beqz	v1,0xa030
    9edc:	afa00014 	sw	zero,20(sp)
    9ee0:	90ca0008 	lbu	t2,8(a2)
    9ee4:	3149007f 	andi	t1,t2,0x7f
    9ee8:	00a93023 	subu	a2,a1,t1
    9eec:	24d3ffff 	addiu	s3,a2,-1
    9ef0:	0013802b 	sltu	s0,zero,s3
    9ef4:	8fb40010 	lw	s4,16(sp)
    9ef8:	0014902b 	sltu	s2,zero,s4
    9efc:	02128824 	and	s1,s0,s2
    9f00:	52200088 	beqzl	s1,0xa124
    9f04:	8fb30014 	lw	s3,20(sp)
    9f08:	3c038008 	lui	v1,0x8008
    9f0c:	94790052 	lhu	t9,82(v1)
    9f10:	947e0050 	lhu	s8,80(v1)
    9f14:	8fb60010 	lw	s6,16(sp)
    9f18:	033ec023 	subu	t8,t9,s8
    9f1c:	0018bc00 	sll	s7,t8,0x10
    9f20:	00171403 	sra	v0,s7,0x10
    9f24:	0016fc00 	sll	ra,s6,0x10
    9f28:	02c2a82a 	slt	s5,s6,v0
    9f2c:	16a00002 	bnez	s5,0x9f38
    9f30:	001f2c03 	sra	a1,ra,0x10
    9f34:	00402821 	move	a1,v0
    9f38:	00133c00 	sll	a3,s3,0x10
    9f3c:	00072403 	sra	a0,a3,0x10
    9f40:	00a4102a 	slt	v0,a1,a0
    9f44:	54400001 	bnezl	v0,0x9f4c
    9f48:	00a02021 	move	a0,a1
    9f4c:	28850009 	slti	a1,a0,9
    9f50:	14a00002 	bnez	a1,0x9f5c
    9f54:	0080a021 	move	s4,a0
    9f58:	24140008 	li	s4,8
    9f5c:	3c0c8008 	lui	t4,0x8008
    9f60:	8d860048 	lw	a2,72(t4)
    9f64:	00145980 	sll	t3,s4,0x6
    9f68:	8d88004c 	lw	t0,76(t4)
    9f6c:	3c038000 	lui	v1,0x8000
    9f70:	3169ffff 	andi	t1,t3,0xffff
    9f74:	3c0a0010 	lui	t2,0x10
    9f78:	012a2025 	or	a0,t1,t2
    9f7c:	34710400 	ori	s1,v1,0x400
    9f80:	ac660038 	sw	a2,56(v1)
    9f84:	af9100a4 	sw	s1,164(gp)
    9f88:	ac68003c 	sw	t0,60(v1)
    9f8c:	ac640030 	sw	a0,48(v1)
	...
    9fb0:	8c6e0000 	lw	t6,0(v1)
    9fb4:	31cd0020 	andi	t5,t6,0x20
    9fb8:	11a0fffd 	beqz	t5,0x9fb0
    9fbc:	0014782a 	slt	t7,zero,s4
    9fc0:	01f01024 	and	v0,t7,s0
    9fc4:	10400039 	beqz	v0,0xa0ac
    9fc8:	0000a821 	move	s5,zero
    9fcc:	3c168008 	lui	s6,0x8008
    9fd0:	92d70008 	lbu	s7,8(s6)
    9fd4:	3c128000 	lui	s2,0x8000
    9fd8:	8e440100 	lw	a0,256(s2)
    9fdc:	32f6007f 	andi	s6,s7,0x7f
    9fe0:	0e000f99 	jal	0x8003e64
    9fe4:	02c02821 	move	a1,s6
    9fe8:	8e390010 	lw	t9,16(s1)
    9fec:	8e440100 	lw	a0,256(s2)
    9ff0:	00009021 	move	s2,zero
    9ff4:	33373fff 	andi	s7,t9,0x3fff
    9ff8:	0e000fb1 	jal	0x8003ec4
    9ffc:	02e02821 	move	a1,s7
    a000:	92380000 	lbu	t8,0(s1)
    a004:	3302003f 	andi	v0,t8,0x3f
    a008:	2c500008 	sltiu	s0,v0,8
    a00c:	52000010 	beqzl	s0,0xa050
    a010:	00008821 	move	s1,zero
    a014:	00021080 	sll	v0,v0,0x2
    a018:	3c030800 	lui	v1,0x800
    a01c:	246358e4 	addiu	v1,v1,22756
    a020:	0043f821 	addu	ra,v0,v1
    a024:	8ffe0000 	lw	s8,0(ra)
    a028:	03c00008 	jr	s8
    a02c:	00000000 	nop
    a030:	90cf0008 	lbu	t7,8(a2)
    a034:	938c00ab 	lbu	t4,171(gp)
    a038:	31ee007f 	andi	t6,t7,0x7f
    a03c:	00ae6823 	subu	t5,a1,t6
    a040:	018d5821 	addu	t3,t4,t5
    a044:	0a001217 	j	0x800485c
    a048:	2573ffff 	addiu	s3,t3,-1
    a04c:	00008821 	move	s1,zero
    a050:	3c1e8000 	lui	s8,0x8000
    a054:	8fc40100 	lw	a0,256(s8)
    a058:	0e000fce 	jal	0x8003f38
    a05c:	02e02821 	move	a1,s7
    a060:	8fc40100 	lw	a0,256(s8)
    a064:	0e000fde 	jal	0x8003f78
    a068:	02c02821 	move	a1,s6
    a06c:	1220000f 	beqz	s1,0xa0ac
    a070:	0013802b 	sltu	s0,zero,s3
    a074:	8f8b00a4 	lw	t3,164(gp)
    a078:	26a40001 	addiu	a0,s5,1
    a07c:	0004ac00 	sll	s5,a0,0x10
    a080:	02729823 	subu	s3,s3,s2
    a084:	0015ac03 	sra	s5,s5,0x10
    a088:	25780040 	addiu	t8,t3,64
    a08c:	02b4b02a 	slt	s6,s5,s4
    a090:	0013802b 	sltu	s0,zero,s3
    a094:	24170001 	li	s7,1
    a098:	03008821 	move	s1,t8
    a09c:	02d01024 	and	v0,s6,s0
    a0a0:	af9800a4 	sw	t8,164(gp)
    a0a4:	1440ffc9 	bnez	v0,0x9fcc
    a0a8:	afb70014 	sw	s7,20(sp)
    a0ac:	3c078008 	lui	a3,0x8008
    a0b0:	94e20050 	lhu	v0,80(a3)
    a0b4:	8fae0010 	lw	t6,16(sp)
    a0b8:	3c058000 	lui	a1,0x8000
    a0bc:	02a28821 	addu	s1,s5,v0
    a0c0:	3c060020 	lui	a2,0x20
    a0c4:	a4f10050 	sh	s1,80(a3)
    a0c8:	aca60030 	sw	a2,48(a1)
    a0cc:	94f40050 	lhu	s4,80(a3)
    a0d0:	94ef0052 	lhu	t7,82(a3)
    a0d4:	01d51823 	subu	v1,t6,s5
    a0d8:	306cffff 	andi	t4,v1,0xffff
    a0dc:	11f4001e 	beq	t7,s4,0xa158
    a0e0:	afac0010 	sw	t4,16(sp)
    a0e4:	8cef004c 	lw	t7,76(a3)
    a0e8:	00156180 	sll	t4,s5,0x6
    a0ec:	8cf50048 	lw	s5,72(a3)
    a0f0:	01ec2821 	addu	a1,t7,t4
    a0f4:	00002021 	move	a0,zero
    a0f8:	00ac582b 	sltu	t3,a1,t4
    a0fc:	02a4c021 	addu	t8,s5,a0
    a100:	030bb021 	addu	s6,t8,t3
    a104:	ace5004c 	sw	a1,76(a3)
    a108:	acf60048 	sw	s6,72(a3)
    a10c:	8fb40010 	lw	s4,16(sp)
    a110:	0014902b 	sltu	s2,zero,s4
    a114:	02128824 	and	s1,s0,s2
    a118:	1620ff7c 	bnez	s1,0x9f0c
    a11c:	3c038008 	lui	v1,0x8008
    a120:	8fb30014 	lw	s3,20(sp)
    a124:	8fbf005c 	lw	ra,92(sp)
    a128:	8fbe0058 	lw	s8,88(sp)
    a12c:	3a620001 	xori	v0,s3,0x1
    a130:	8fb70054 	lw	s7,84(sp)
    a134:	8fb60050 	lw	s6,80(sp)
    a138:	8fb5004c 	lw	s5,76(sp)
    a13c:	8fb40048 	lw	s4,72(sp)
    a140:	8fb30044 	lw	s3,68(sp)
    a144:	8fb20040 	lw	s2,64(sp)
    a148:	8fb1003c 	lw	s1,60(sp)
    a14c:	8fb00038 	lw	s0,56(sp)
    a150:	03e00008 	jr	ra
    a154:	27bd0060 	addiu	sp,sp,96
    a158:	94fe0054 	lhu	s8,84(a3)
    a15c:	8cf20044 	lw	s2,68(a3)
    a160:	33c9fffe 	andi	t1,s8,0xfffe
    a164:	0009c8c0 	sll	t9,t1,0x3
    a168:	0259f821 	addu	ra,s2,t9
    a16c:	acbf003c 	sw	ra,60(a1)
    a170:	8ce80044 	lw	t0,68(a3)
    a174:	8cad003c 	lw	t5,60(a1)
    a178:	010d5023 	subu	t2,t0,t5
    a17c:	1940003b 	blez	t2,0xa26c
    a180:	00000000 	nop
    a184:	8cf70040 	lw	s7,64(a3)
    a188:	26e20001 	addiu	v0,s7,1
    a18c:	aca20038 	sw	v0,56(a1)
    a190:	3c050050 	lui	a1,0x50
    a194:	34a70010 	ori	a3,a1,0x10
    a198:	3c038000 	lui	v1,0x8000
    a19c:	ac670030 	sw	a3,48(v1)
	...
    a1c0:	8c780000 	lw	t8,0(v1)
    a1c4:	33160020 	andi	s6,t8,0x20
    a1c8:	12c0fffd 	beqz	s6,0xa1c0
    a1cc:	3c118008 	lui	s1,0x8008
    a1d0:	96220054 	lhu	v0,84(s1)
    a1d4:	3c158000 	lui	s5,0x8000
    a1d8:	3c068008 	lui	a2,0x8008
    a1dc:	304e0001 	andi	t6,v0,0x1
    a1e0:	000e18c0 	sll	v1,t6,0x3
    a1e4:	00757821 	addu	t7,v1,s5
    a1e8:	8dec0400 	lw	t4,1024(t7)
    a1ec:	3c070800 	lui	a3,0x800
    a1f0:	8ce70044 	lw	a3,68(a3)
    a1f4:	3c040020 	lui	a0,0x20
    a1f8:	accc0048 	sw	t4,72(a2)
    a1fc:	8df40404 	lw	s4,1028(t7)
    a200:	240b0001 	li	t3,1
    a204:	acd4004c 	sw	s4,76(a2)
    a208:	10eb0260 	beq	a3,t3,0xab8c
    a20c:	aea40030 	sw	a0,48(s5)
    a210:	96390052 	lhu	t9,82(s1)
    a214:	3c050800 	lui	a1,0x800
    a218:	8ca50040 	lw	a1,64(a1)
    a21c:	00b99021 	addu	s2,a1,t9
    a220:	a6320052 	sh	s2,82(s1)
    a224:	963f0054 	lhu	ra,84(s1)
    a228:	27ed0001 	addiu	t5,ra,1
    a22c:	a62d0054 	sh	t5,84(s1)
    a230:	96260054 	lhu	a2,84(s1)
    a234:	30c4ffff 	andi	a0,a2,0xffff
    a238:	5487ff2f 	bnel	a0,a3,0x9ef8
    a23c:	8fb40010 	lw	s4,16(sp)
    a240:	30a5ffff 	andi	a1,a1,0xffff
    a244:	0e0011f4 	jal	0x80047d0
    a248:	a6200054 	sh	zero,84(s1)
    a24c:	3c070800 	lui	a3,0x800
    a250:	8ce70024 	lw	a3,36(a3)
    a254:	963e0052 	lhu	s8,82(s1)
    a258:	0047b823 	subu	s7,v0,a3
    a25c:	03d74823 	subu	t1,s8,s7
    a260:	a6290052 	sh	t1,82(s1)
    a264:	0a001219 	j	0x8004864
    a268:	8fb40010 	lw	s4,16(sp)
    a26c:	8ce20040 	lw	v0,64(a3)
    a270:	0a0012be 	j	0x8004af8
    a274:	00000000 	nop
    a278:	92240001 	lbu	a0,1(s1)
    a27c:	24070001 	li	a3,1
    a280:	3085007f 	andi	a1,a0,0x7f
    a284:	14a7001c 	bne	a1,a3,0xa2f8
    a288:	97ad0026 	lhu	t5,38(sp)
    a28c:	8e2b0014 	lw	t3,20(s1)
    a290:	240cc000 	li	t4,-16384
    a294:	316a3fff 	andi	t2,t3,0x3fff
    a298:	01ac4824 	and	t1,t5,t4
    a29c:	3c060800 	lui	a2,0x800
    a2a0:	8cc60060 	lw	a2,96(a2)
    a2a4:	012a4025 	or	t0,t1,t2
    a2a8:	31043fff 	andi	a0,t0,0x3fff
    a2ac:	0086882b 	sltu	s1,a0,a2
    a2b0:	12200011 	beqz	s1,0xa2f8
    a2b4:	a7a80026 	sh	t0,38(sp)
    a2b8:	3c050800 	lui	a1,0x800
    a2bc:	8ca50058 	lw	a1,88(a1)
    a2c0:	8f9100a0 	lw	s1,160(gp)
    a2c4:	00043980 	sll	a3,a0,0x6
    a2c8:	2402ff80 	li	v0,-128
    a2cc:	00b11821 	addu	v1,a1,s1
    a2d0:	0067f821 	addu	ra,v1,a3
    a2d4:	03e2f024 	and	s8,ra,v0
    a2d8:	33f8007f 	andi	t8,ra,0x7f
    a2dc:	3c128000 	lui	s2,0x8000
    a2e0:	3c19800e 	lui	t9,0x800e
    a2e4:	ae5e002c 	sw	s8,44(s2)
    a2e8:	03197021 	addu	t6,t8,t9
    a2ec:	91d0000d 	lbu	s0,13(t6)
    a2f0:	360f0004 	ori	t7,s0,0x4
    a2f4:	a1cf000d 	sb	t7,13(t6)
    a2f8:	0e001028 	jal	0x80040a0
    a2fc:	24120001 	li	s2,1
    a300:	24110001 	li	s1,1
    a304:	3c1e8000 	lui	s8,0x8000
    a308:	8fc40100 	lw	a0,256(s8)
    a30c:	0e000fce 	jal	0x8003f38
    a310:	02e02821 	move	a1,s7
    a314:	8fc40100 	lw	a0,256(s8)
    a318:	0e000fde 	jal	0x8003f78
    a31c:	02c02821 	move	a1,s6
    a320:	1620ff55 	bnez	s1,0xa078
    a324:	8f8b00a4 	lw	t3,164(gp)
    a328:	0a001286 	j	0x8004a18
    a32c:	0013802b 	sltu	s0,zero,s3
    a330:	8f8600a4 	lw	a2,164(gp)
    a334:	90c80001 	lbu	t0,1(a2)
    a338:	31040020 	andi	a0,t0,0x20
    a33c:	10800191 	beqz	a0,0xa984
    a340:	24100001 	li	s0,1
    a344:	3c048008 	lui	a0,0x8008
    a348:	348b0080 	ori	t3,a0,0x80
    a34c:	916a007c 	lbu	t2,124(t3)
    a350:	8f9e0034 	lw	s8,52(gp)
    a354:	afa0002c 	sw	zero,44(sp)
    a358:	31490001 	andi	t1,t2,0x1
    a35c:	1120000f 	beqz	t1,0xa39c
    a360:	afb00028 	sw	s0,40(sp)
    a364:	8ccd0014 	lw	t5,20(a2)
    a368:	8c8e0060 	lw	t6,96(a0)
    a36c:	01ae602b 	sltu	t4,t5,t6
    a370:	15800002 	bnez	t4,0xa37c
    a374:	01a03821 	move	a3,t5
    a378:	8c870060 	lw	a3,96(a0)
    a37c:	3c188008 	lui	t8,0x8008
    a380:	37030080 	ori	v1,t8,0x80
    a384:	8c700070 	lw	s0,112(v1)
    a388:	00f0782b 	sltu	t7,a3,s0
    a38c:	15e00002 	bnez	t7,0xa398
    a390:	00e02021 	move	a0,a3
    a394:	8c640070 	lw	a0,112(v1)
    a398:	afa4002c 	sw	a0,44(sp)
    a39c:	3c028008 	lui	v0,0x8008
    a3a0:	34450080 	ori	a1,v0,0x80
    a3a4:	8cd20014 	lw	s2,20(a2)
    a3a8:	8cbf0070 	lw	ra,112(a1)
    a3ac:	025fc82b 	sltu	t9,s2,ra
    a3b0:	17200002 	bnez	t9,0xa3bc
    a3b4:	02402021 	move	a0,s2
    a3b8:	8ca40070 	lw	a0,112(a1)
    a3bc:	8fa7002c 	lw	a3,44(sp)
    a3c0:	00871823 	subu	v1,a0,a3
    a3c4:	10600003 	beqz	v1,0xa3d4
    a3c8:	afa30030 	sw	v1,48(sp)
    a3cc:	24050002 	li	a1,2
    a3d0:	afa50028 	sw	a1,40(sp)
    a3d4:	8fa40028 	lw	a0,40(sp)
    a3d8:	0264882b 	sltu	s1,s3,a0
    a3dc:	162000ba 	bnez	s1,0xa6c8
    a3e0:	00001821 	move	v1,zero
    a3e4:	8cd00038 	lw	s0,56(a2)
    a3e8:	8fce000c 	lw	t6,12(s8)
    a3ec:	3c0f0080 	lui	t7,0x80
    a3f0:	afd00000 	sw	s0,0(s8)
    a3f4:	8ccd0034 	lw	t5,52(a2)
    a3f8:	3c0cff9f 	lui	t4,0xff9f
    a3fc:	01cf5825 	or	t3,t6,t7
    a400:	afcd0004 	sw	t5,4(s8)
    a404:	90ca003f 	lbu	t2,63(a2)
    a408:	3586ffff 	ori	a2,t4,0xffff
    a40c:	01662024 	and	a0,t3,a2
    a410:	3c090020 	lui	t1,0x20
    a414:	3c08ffef 	lui	t0,0xffef
    a418:	a3ca000b 	sb	t2,11(s8)
    a41c:	00893825 	or	a3,a0,t1
    a420:	3511ffff 	ori	s1,t0,0xffff
    a424:	00f11824 	and	v1,a3,s1
    a428:	3c050008 	lui	a1,0x8
    a42c:	8f8700a4 	lw	a3,164(gp)
    a430:	0065c825 	or	t9,v1,a1
    a434:	afd9000c 	sw	t9,12(s8)
    a438:	8ce20014 	lw	v0,20(a3)
    a43c:	afc00018 	sw	zero,24(s8)
    a440:	8fa60030 	lw	a2,48(sp)
    a444:	afc20014 	sw	v0,20(s8)
    a448:	8cf80018 	lw	t8,24(a3)
    a44c:	8fb0002c 	lw	s0,44(sp)
    a450:	3c1ffffb 	lui	ra,0xfffb
    a454:	afd8001c 	sw	t8,28(s8)
    a458:	8cef0008 	lw	t7,8(a3)
    a45c:	37f2ffff 	ori	s2,ra,0xffff
    a460:	03326824 	and	t5,t9,s2
    a464:	afcf0024 	sw	t7,36(s8)
    a468:	8cec000c 	lw	t4,12(a3)
    a46c:	02067021 	addu	t6,s0,a2
    a470:	afcd000c 	sw	t5,12(s8)
    a474:	a7c00038 	sh	zero,56(s8)
    a478:	a7c0003a 	sh	zero,58(s8)
    a47c:	afce002c 	sw	t6,44(s8)
    a480:	afcc0020 	sw	t4,32(s8)
    a484:	afc00028 	sw	zero,40(s8)
    a488:	8cea0014 	lw	t2,20(a3)
    a48c:	8fab002c 	lw	t3,44(sp)
    a490:	014b4823 	subu	t1,t2,t3
    a494:	01264023 	subu	t0,t1,a2
    a498:	11000011 	beqz	t0,0xa4e0
    a49c:	afc80010 	sw	t0,16(s8)
    a4a0:	90eb003d 	lbu	t3,61(a3)
    a4a4:	8fc90004 	lw	t1,4(s8)
    a4a8:	8fc80000 	lw	t0,0(s8)
    a4ac:	000b5100 	sll	t2,t3,0x4
    a4b0:	012a2821 	addu	a1,t1,t2
    a4b4:	00001021 	move	v0,zero
    a4b8:	00aa882b 	sltu	s1,a1,t2
    a4bc:	01021821 	addu	v1,t0,v0
    a4c0:	0071f821 	addu	ra,v1,s1
    a4c4:	afc50004 	sw	a1,4(s8)
    a4c8:	afdf0000 	sw	ra,0(s8)
    a4cc:	90f2003d 	lbu	s2,61(a3)
    a4d0:	a3d2000a 	sb	s2,10(s8)
    a4d4:	8f9900a4 	lw	t9,164(gp)
    a4d8:	97380006 	lhu	t8,6(t9)
    a4dc:	a7d80008 	sh	t8,8(s8)
    a4e0:	8f910038 	lw	s1,56(gp)
    a4e4:	24080002 	li	t0,2
    a4e8:	3c038008 	lui	v1,0x8008
    a4ec:	a2280000 	sb	t0,0(s1)
    a4f0:	34650080 	ori	a1,v1,0x80
    a4f4:	94bf005c 	lhu	ra,92(a1)
    a4f8:	8fa4002c 	lw	a0,44(sp)
    a4fc:	33f0ffff 	andi	s0,ra,0xffff
    a500:	0e000ff4 	jal	0x8003fd0
    a504:	8f920038 	lw	s2,56(gp)
    a508:	0002cb80 	sll	t9,v0,0xe
    a50c:	8f8500a4 	lw	a1,164(gp)
    a510:	02197825 	or	t7,s0,t9
    a514:	3c184200 	lui	t8,0x4200
    a518:	01f87025 	or	t6,t7,t8
    a51c:	ae4e0004 	sw	t6,4(s2)
    a520:	8f840038 	lw	a0,56(gp)
    a524:	8cad0038 	lw	t5,56(a1)
    a528:	ac8d0018 	sw	t5,24(a0)
    a52c:	8cac0034 	lw	t4,52(a1)
    a530:	ac8c001c 	sw	t4,28(a0)
    a534:	ac80000c 	sw	zero,12(a0)
    a538:	ac800010 	sw	zero,16(a0)
    a53c:	a4800014 	sh	zero,20(a0)
    a540:	a4800016 	sh	zero,22(a0)
    a544:	a4800020 	sh	zero,32(a0)
    a548:	a4800022 	sh	zero,34(a0)
    a54c:	ac800024 	sw	zero,36(a0)
    a550:	90a6003f 	lbu	a2,63(a1)
    a554:	8fa7002c 	lw	a3,44(sp)
    a558:	a4860002 	sh	a2,2(a0)
    a55c:	50e00192 	beqzl	a3,0xaba8
    a560:	24070001 	li	a3,1
    a564:	8fa20030 	lw	v0,48(sp)
    a568:	50400002 	beqzl	v0,0xa574
    a56c:	90a2003d 	lbu	v0,61(a1)
    a570:	90a2003e 	lbu	v0,62(a1)
    a574:	244a0001 	addiu	t2,v0,1
    a578:	a08a0001 	sb	t2,1(a0)
    a57c:	8f840038 	lw	a0,56(gp)
    a580:	8fa9002c 	lw	t1,44(sp)
    a584:	ac890008 	sw	t1,8(a0)
    a588:	3c128008 	lui	s2,0x8008
    a58c:	364d0080 	ori	t5,s2,0x80
    a590:	91ac007c 	lbu	t4,124(t5)
    a594:	31860002 	andi	a2,t4,0x2
    a598:	14c00002 	bnez	a2,0xa5a4
    a59c:	24070034 	li	a3,52
    a5a0:	24070030 	li	a3,48
    a5a4:	8f8500a4 	lw	a1,164(gp)
    a5a8:	3c198008 	lui	t9,0x8008
    a5ac:	373f0080 	ori	ra,t9,0x80
    a5b0:	90b00000 	lbu	s0,0(a1)
    a5b4:	93f9007c 	lbu	t9,124(ra)
    a5b8:	240e0004 	li	t6,4
    a5bc:	a0900030 	sb	s0,48(a0)
    a5c0:	8f8f00a4 	lw	t7,164(gp)
    a5c4:	8fb8002c 	lw	t8,44(sp)
    a5c8:	8f8d0038 	lw	t5,56(gp)
    a5cc:	91f20001 	lbu	s2,1(t7)
    a5d0:	33040003 	andi	a0,t8,0x3
    a5d4:	01c46023 	subu	t4,t6,a0
    a5d8:	a1b20031 	sb	s2,49(t5)
    a5dc:	8f8e0038 	lw	t6,56(gp)
    a5e0:	8f8600a4 	lw	a2,164(gp)
    a5e4:	2402c000 	li	v0,-16384
    a5e8:	95ca0032 	lhu	t2,50(t6)
    a5ec:	94c90012 	lhu	t1,18(a2)
    a5f0:	8fab002c 	lw	t3,44(sp)
    a5f4:	01424024 	and	t0,t2,v0
    a5f8:	31233fff 	andi	v1,t1,0x3fff
    a5fc:	01038825 	or	s1,t0,v1
    a600:	a5d10032 	sh	s1,50(t6)
    a604:	91d00032 	lbu	s0,50(t6)
    a608:	31850003 	andi	a1,t4,0x3
    a60c:	00ebf821 	addu	ra,a3,t3
    a610:	3218003f 	andi	t8,s0,0x3f
    a614:	370f0040 	ori	t7,t8,0x40
    a618:	a1cf0032 	sb	t7,50(t6)
    a61c:	8fa4002c 	lw	a0,44(sp)
    a620:	03e53821 	addu	a3,ra,a1
    a624:	33280004 	andi	t0,t9,0x4
    a628:	10800002 	beqz	a0,0xa634
    a62c:	8f850038 	lw	a1,56(gp)
    a630:	00e83821 	addu	a3,a3,t0
    a634:	3c0a8008 	lui	t2,0x8008
    a638:	aca70034 	sw	a3,52(a1)
    a63c:	35490100 	ori	t1,t2,0x100
    a640:	8d2800d0 	lw	t0,208(t1)
    a644:	8fa3002c 	lw	v1,44(sp)
    a648:	2419ffbf 	li	t9,-65
    a64c:	aca80038 	sw	t0,56(a1)
    a650:	90b1003c 	lbu	s1,60(a1)
    a654:	2c640001 	sltiu	a0,v1,1
    a658:	240fffdf 	li	t7,-33
    a65c:	3227007f 	andi	a3,s1,0x7f
    a660:	a0a7003c 	sb	a3,60(a1)
    a664:	8f980038 	lw	t8,56(gp)
    a668:	00049140 	sll	s2,a0,0x5
    a66c:	931f003c 	lbu	ra,60(t8)
    a670:	03f98024 	and	s0,ra,t9
    a674:	a310003c 	sb	s0,60(t8)
    a678:	8f8c0038 	lw	t4,56(gp)
    a67c:	918e003c 	lbu	t6,60(t4)
    a680:	01cf6824 	and	t5,t6,t7
    a684:	01b23025 	or	a2,t5,s2
    a688:	a186003c 	sb	a2,60(t4)
    a68c:	8f8900a4 	lw	t1,164(gp)
    a690:	8f880038 	lw	t0,56(gp)
    a694:	8d2b0020 	lw	t3,32(t1)
    a698:	ad0b0040 	sw	t3,64(t0)
    a69c:	8d220024 	lw	v0,36(t1)
    a6a0:	ad020044 	sw	v0,68(t0)
    a6a4:	8d2a0028 	lw	t2,40(t1)
    a6a8:	ad0a0048 	sw	t2,72(t0)
    a6ac:	8d23002c 	lw	v1,44(t1)
    a6b0:	0e001013 	jal	0x800404c
    a6b4:	ad03004c 	sw	v1,76(t0)
    a6b8:	8fb10028 	lw	s1,40(sp)
    a6bc:	24070002 	li	a3,2
    a6c0:	12270011 	beq	s1,a3,0xa708
    a6c4:	8fa30028 	lw	v1,40(sp)
    a6c8:	0003282b 	sltu	a1,zero,v1
    a6cc:	00058023 	negu	s0,a1
    a6d0:	02709824 	and	s3,s3,s0
    a6d4:	00608021 	move	s0,v1
    a6d8:	00609021 	move	s2,v1
    a6dc:	0a00126f 	j	0x80049bc
    a6e0:	0010882b 	sltu	s1,zero,s0
    a6e4:	96290012 	lhu	t1,18(s1)
    a6e8:	8f8400a0 	lw	a0,160(gp)
    a6ec:	00009021 	move	s2,zero
    a6f0:	3125ffff 	andi	a1,t1,0xffff
    a6f4:	a7a90018 	sh	t1,24(sp)
    a6f8:	0e000fc2 	jal	0x8003f08
    a6fc:	24110001 	li	s1,1
    a700:	0a00131d 	j	0x8004c74
    a704:	3c1e8000 	lui	s8,0x8000
    a708:	3c0b8000 	lui	t3,0x8000
    a70c:	3c128008 	lui	s2,0x8008
    a710:	8d640100 	lw	a0,256(t3)
    a714:	92490008 	lbu	t1,8(s2)
    a718:	8f92ff34 	lw	s2,-204(gp)
    a71c:	0e000f99 	jal	0x8003e64
    a720:	3125007f 	andi	a1,t1,0x7f
    a724:	8f990038 	lw	t9,56(gp)
    a728:	8fa70028 	lw	a3,40(sp)
    a72c:	8fa40030 	lw	a0,48(sp)
    a730:	a3270000 	sb	a3,0(t9)
    a734:	965f005c 	lhu	ra,92(s2)
    a738:	33f0ffff 	andi	s0,ra,0xffff
    a73c:	0e000ff4 	jal	0x8003fd0
    a740:	8f910038 	lw	s1,56(gp)
    a744:	00026b80 	sll	t5,v0,0xe
    a748:	020d8025 	or	s0,s0,t5
    a74c:	3c084200 	lui	t0,0x4200
    a750:	8f8d00a4 	lw	t5,164(gp)
    a754:	02085025 	or	t2,s0,t0
    a758:	ae2a0004 	sw	t2,4(s1)
    a75c:	8da50038 	lw	a1,56(t5)
    a760:	8f8a0038 	lw	t2,56(gp)
    a764:	00007821 	move	t7,zero
    a768:	000f1100 	sll	v0,t7,0x4
    a76c:	ad450018 	sw	a1,24(t2)
    a770:	8db80034 	lw	t8,52(t5)
    a774:	3c047fff 	lui	a0,0x7fff
    a778:	3488ffff 	ori	t0,a0,0xffff
    a77c:	ad58001c 	sw	t8,28(t2)
    a780:	91a6003e 	lbu	a2,62(t5)
    a784:	8d4c001c 	lw	t4,28(t2)
    a788:	8d490018 	lw	t1,24(t2)
    a78c:	00061900 	sll	v1,a2,0x4
    a790:	00067702 	srl	t6,a2,0x1c
    a794:	0183c821 	addu	t9,t4,v1
    a798:	004e5825 	or	t3,v0,t6
    a79c:	0323882b 	sltu	s1,t9,v1
    a7a0:	012b3821 	addu	a3,t1,t3
    a7a4:	00f1f821 	addu	ra,a3,s1
    a7a8:	ad59001c 	sw	t9,28(t2)
    a7ac:	ad5f0018 	sw	ra,24(t2)
    a7b0:	ad40000c 	sw	zero,12(t2)
    a7b4:	ad400010 	sw	zero,16(t2)
    a7b8:	91b0003e 	lbu	s0,62(t5)
    a7bc:	8fa40030 	lw	a0,48(sp)
    a7c0:	24090005 	li	t1,5
    a7c4:	a5500014 	sh	s0,20(t2)
    a7c8:	95a50004 	lhu	a1,4(t5)
    a7cc:	2419c000 	li	t9,-16384
    a7d0:	00884024 	and	t0,a0,t0
    a7d4:	a5450016 	sh	a1,22(t2)
    a7d8:	91b8003e 	lbu	t8,62(t5)
    a7dc:	a5580020 	sh	t8,32(t2)
    a7e0:	95af0004 	lhu	t7,4(t5)
    a7e4:	a54f0022 	sh	t7,34(t2)
    a7e8:	ad400024 	sw	zero,36(t2)
    a7ec:	91ae003f 	lbu	t6,63(t5)
    a7f0:	a54e0002 	sh	t6,2(t2)
    a7f4:	91a6003e 	lbu	a2,62(t5)
    a7f8:	91ac003d 	lbu	t4,61(t5)
    a7fc:	01861023 	subu	v0,t4,a2
    a800:	244b0001 	addiu	t3,v0,1
    a804:	a14b0001 	sb	t3,1(t2)
    a808:	8f910038 	lw	s1,56(gp)
    a80c:	8fa30030 	lw	v1,48(sp)
    a810:	3c028008 	lui	v0,0x8008
    a814:	344b0100 	ori	t3,v0,0x100
    a818:	ae230008 	sw	v1,8(s1)
    a81c:	a2290030 	sb	t1,48(s1)
    a820:	8f8c0038 	lw	t4,56(gp)
    a824:	8f8700a4 	lw	a3,164(gp)
    a828:	959f0032 	lhu	ra,50(t4)
    a82c:	94f00012 	lhu	s0,18(a3)
    a830:	2407ffbf 	li	a3,-65
    a834:	033fc024 	and	t8,t9,ra
    a838:	32053fff 	andi	a1,s0,0x3fff
    a83c:	03057825 	or	t7,t8,a1
    a840:	a58f0032 	sh	t7,50(t4)
    a844:	918e0032 	lbu	t6,50(t4)
    a848:	2418ffdf 	li	t8,-33
    a84c:	31cd003f 	andi	t5,t6,0x3f
    a850:	35a60040 	ori	a2,t5,0x40
    a854:	a1860032 	sb	a2,50(t4)
    a858:	8f910038 	lw	s1,56(gp)
    a85c:	240dffff 	li	t5,-1
    a860:	240cff80 	li	t4,-128
    a864:	ae200034 	sw	zero,52(s1)
    a868:	8d6a00d0 	lw	t2,208(t3)
    a86c:	ae2a0038 	sw	t2,56(s1)
    a870:	9223003c 	lbu	v1,60(s1)
    a874:	3069007f 	andi	t1,v1,0x7f
    a878:	a229003c 	sb	t1,60(s1)
    a87c:	8f900038 	lw	s0,56(gp)
    a880:	3c038000 	lui	v1,0x8000
    a884:	9219003c 	lbu	t9,60(s0)
    a888:	0327f824 	and	ra,t9,a3
    a88c:	a21f003c 	sb	ra,60(s0)
    a890:	8f8e0038 	lw	t6,56(gp)
    a894:	91c5003c 	lbu	a1,60(t6)
    a898:	00b87824 	and	t7,a1,t8
    a89c:	a1cf003c 	sb	t7,60(t6)
    a8a0:	8f8a0038 	lw	t2,56(gp)
    a8a4:	3c0e8008 	lui	t6,0x8008
    a8a8:	ad4d0040 	sw	t5,64(t2)
    a8ac:	8fa6002c 	lw	a2,44(sp)
    a8b0:	ad460044 	sw	a2,68(t2)
    a8b4:	91420048 	lbu	v0,72(t2)
    a8b8:	004c5825 	or	t3,v0,t4
    a8bc:	a14b0048 	sb	t3,72(t2)
    a8c0:	8f900038 	lw	s0,56(gp)
    a8c4:	8f9900a4 	lw	t9,164(gp)
    a8c8:	8e090048 	lw	t1,72(s0)
    a8cc:	01238824 	and	s1,t1,v1
    a8d0:	02283825 	or	a3,s1,t0
    a8d4:	ae070048 	sw	a3,72(s0)
    a8d8:	933f003e 	lbu	ra,62(t9)
    a8dc:	a21f004c 	sb	ra,76(s0)
    a8e0:	8f9800a4 	lw	t8,164(gp)
    a8e4:	8f8f0038 	lw	t7,56(gp)
    a8e8:	97050004 	lhu	a1,4(t8)
    a8ec:	a5e5004e 	sh	a1,78(t7)
    a8f0:	0e000381 	jal	0x8000e04
    a8f4:	8dc50060 	lw	a1,96(t6)
    a8f8:	9246007c 	lbu	a2,124(s2)
    a8fc:	8fac0030 	lw	t4,48(sp)
    a900:	00026940 	sll	t5,v0,0x5
    a904:	00029100 	sll	s2,v0,0x4
    a908:	00402821 	move	a1,v0
    a90c:	30cb0002 	andi	t3,a2,0x2
    a910:	01b21021 	addu	v0,t5,s2
    a914:	156000aa 	bnez	t3,0xabc0
    a918:	01823021 	addu	a2,t4,v0
    a91c:	3c0e8008 	lui	t6,0x8008
    a920:	35c20080 	ori	v0,t6,0x80
    a924:	904c007c 	lbu	t4,124(v0)
    a928:	31830004 	andi	v1,t4,0x4
    a92c:	10600003 	beqz	v1,0xa93c
    a930:	8fb90030 	lw	t9,48(sp)
    a934:	00057880 	sll	t7,a1,0x2
    a938:	00cf3021 	addu	a2,a2,t7
    a93c:	241f0004 	li	ra,4
    a940:	8f910038 	lw	s1,56(gp)
    a944:	332d0003 	andi	t5,t9,0x3
    a948:	03ed8023 	subu	s0,ra,t5
    a94c:	32080003 	andi	t0,s0,0x3
    a950:	00c85021 	addu	t2,a2,t0
    a954:	ae2a0034 	sw	t2,52(s1)
    a958:	3c188000 	lui	t8,0x8000
    a95c:	a7c50038 	sh	a1,56(s8)
    a960:	3c068008 	lui	a2,0x8008
    a964:	8f040100 	lw	a0,256(t8)
    a968:	90de0008 	lbu	s8,8(a2)
    a96c:	0e000fde 	jal	0x8003f78
    a970:	33c5007f 	andi	a1,s8,0x7f
    a974:	0e001013 	jal	0x800404c
    a978:	00000000 	nop
    a97c:	0a00140d 	j	0x8005034
    a980:	8fa30028 	lw	v1,40(sp)
    a984:	8f980034 	lw	t8,52(gp)
    a988:	8cc90038 	lw	t1,56(a2)
    a98c:	241f0003 	li	ra,3
    a990:	a7000008 	sh	zero,8(t8)
    a994:	af090000 	sw	t1,0(t8)
    a998:	8cc50034 	lw	a1,52(a2)
    a99c:	a300000a 	sb	zero,10(t8)
    a9a0:	8f9900a4 	lw	t9,164(gp)
    a9a4:	af050004 	sw	a1,4(t8)
    a9a8:	3c080080 	lui	t0,0x80
    a9ac:	932d003f 	lbu	t5,63(t9)
    a9b0:	a31f000c 	sb	ra,12(t8)
    a9b4:	8f0a000c 	lw	t2,12(t8)
    a9b8:	3c02ff9f 	lui	v0,0xff9f
    a9bc:	a30d000b 	sb	t5,11(t8)
    a9c0:	0148f025 	or	s8,t2,t0
    a9c4:	3451ffff 	ori	s1,v0,0xffff
    a9c8:	3c12ffef 	lui	s2,0xffef
    a9cc:	8f9900a4 	lw	t9,164(gp)
    a9d0:	03d17024 	and	t6,s8,s1
    a9d4:	3646ffff 	ori	a2,s2,0xffff
    a9d8:	01c61824 	and	v1,t6,a2
    a9dc:	af03000c 	sw	v1,12(t8)
    a9e0:	8f2c0014 	lw	t4,20(t9)
    a9e4:	97290012 	lhu	t1,18(t9)
    a9e8:	8f8400a0 	lw	a0,160(gp)
    a9ec:	af0c0010 	sw	t4,16(t8)
    a9f0:	8f2f0014 	lw	t7,20(t9)
    a9f4:	af000018 	sw	zero,24(t8)
    a9f8:	af000020 	sw	zero,32(t8)
    a9fc:	af0f0014 	sw	t7,20(t8)
    aa00:	af000024 	sw	zero,36(t8)
    aa04:	8f270018 	lw	a3,24(t9)
    aa08:	312f3fff 	andi	t7,t1,0x3fff
    aa0c:	000f5980 	sll	t3,t7,0x6
    aa10:	af070028 	sw	a3,40(t8)
    aa14:	8f250008 	lw	a1,8(t9)
    aa18:	0164f821 	addu	ra,t3,a0
    aa1c:	312d0001 	andi	t5,t1,0x1
    aa20:	af050030 	sw	a1,48(t8)
    aa24:	8f31000c 	lw	s1,12(t9)
    aa28:	8f920038 	lw	s2,56(gp)
    aa2c:	001f51c2 	srl	t2,ra,0x7
    aa30:	000d4380 	sll	t0,t5,0xe
    aa34:	01481021 	addu	v0,t2,t0
    aa38:	241e0002 	li	s8,2
    aa3c:	3c068008 	lui	a2,0x8008
    aa40:	a702001c 	sh	v0,28(t8)
    aa44:	a7000034 	sh	zero,52(t8)
    aa48:	af11002c 	sw	s1,44(t8)
    aa4c:	a25e0000 	sb	s8,0(s2)
    aa50:	34d20080 	ori	s2,a2,0x80
    aa54:	964e005c 	lhu	t6,92(s2)
    aa58:	8f990038 	lw	t9,56(gp)
    aa5c:	3c034200 	lui	v1,0x4200
    aa60:	31ccffff 	andi	t4,t6,0xffff
    aa64:	01833825 	or	a3,t4,v1
    aa68:	af270004 	sw	a3,4(t9)
    aa6c:	8f8b00a4 	lw	t3,164(gp)
    aa70:	24050001 	li	a1,1
    aa74:	2402c000 	li	v0,-16384
    aa78:	8d640038 	lw	a0,56(t3)
    aa7c:	24070034 	li	a3,52
    aa80:	af240018 	sw	a0,24(t9)
    aa84:	8d690034 	lw	t1,52(t3)
    aa88:	af29001c 	sw	t1,28(t9)
    aa8c:	af20000c 	sw	zero,12(t9)
    aa90:	af200010 	sw	zero,16(t9)
    aa94:	a7200014 	sh	zero,20(t9)
    aa98:	a7200016 	sh	zero,22(t9)
    aa9c:	a7200020 	sh	zero,32(t9)
    aaa0:	a7200022 	sh	zero,34(t9)
    aaa4:	af200024 	sw	zero,36(t9)
    aaa8:	a7300002 	sh	s0,2(t9)
    aaac:	a3250001 	sb	a1,1(t9)
    aab0:	8f880038 	lw	t0,56(gp)
    aab4:	8f9f00a4 	lw	ra,164(gp)
    aab8:	ad100008 	sw	s0,8(t0)
    aabc:	93ed0000 	lbu	t5,0(ra)
    aac0:	a10d0030 	sb	t5,48(t0)
    aac4:	8f8a00a4 	lw	t2,164(gp)
    aac8:	8f980038 	lw	t8,56(gp)
    aacc:	91510001 	lbu	s1,1(t2)
    aad0:	a3110031 	sb	s1,49(t8)
    aad4:	8f8b0038 	lw	t3,56(gp)
    aad8:	957e0032 	lhu	s8,50(t3)
    aadc:	03c27024 	and	t6,s8,v0
    aae0:	01cf6025 	or	t4,t6,t7
    aae4:	a56c0032 	sh	t4,50(t3)
    aae8:	91630032 	lbu	v1,50(t3)
    aaec:	3064003f 	andi	a0,v1,0x3f
    aaf0:	a1640032 	sb	a0,50(t3)
    aaf4:	9249007c 	lbu	t1,124(s2)
    aaf8:	31250002 	andi	a1,t1,0x2
    aafc:	14a00002 	bnez	a1,0xab08
    ab00:	8f840038 	lw	a0,56(gp)
    ab04:	24070030 	li	a3,48
    ab08:	3c198008 	lui	t9,0x8008
    ab0c:	ac870034 	sw	a3,52(a0)
    ab10:	37320100 	ori	s2,t9,0x100
    ab14:	8e5f00d0 	lw	ra,208(s2)
    ab18:	240affbf 	li	t2,-65
    ab1c:	02009021 	move	s2,s0
    ab20:	ac9f0038 	sw	ra,56(a0)
    ab24:	908d003c 	lbu	t5,60(a0)
    ab28:	31a8007f 	andi	t0,t5,0x7f
    ab2c:	a088003c 	sb	t0,60(a0)
    ab30:	8f9e0038 	lw	s8,56(gp)
    ab34:	93c2003c 	lbu	v0,60(s8)
    ab38:	004a8824 	and	s1,v0,t2
    ab3c:	a3d1003c 	sb	s1,60(s8)
    ab40:	8f830038 	lw	v1,56(gp)
    ab44:	0010882b 	sltu	s1,zero,s0
    ab48:	9066003c 	lbu	a2,60(v1)
    ab4c:	34ce0020 	ori	t6,a2,0x20
    ab50:	a06e003c 	sb	t6,60(v1)
    ab54:	8f8400a4 	lw	a0,164(gp)
    ab58:	8f980038 	lw	t8,56(gp)
    ab5c:	8c8c0020 	lw	t4,32(a0)
    ab60:	af0c0040 	sw	t4,64(t8)
    ab64:	8c8f0024 	lw	t7,36(a0)
    ab68:	af0f0044 	sw	t7,68(t8)
    ab6c:	8c870028 	lw	a3,40(a0)
    ab70:	af070048 	sw	a3,72(t8)
    ab74:	8c8b002c 	lw	t3,44(a0)
    ab78:	af0b004c 	sw	t3,76(t8)
    ab7c:	0e001013 	jal	0x800404c
    ab80:	3c1e8000 	lui	s8,0x8000
    ab84:	0a001270 	j	0x80049c0
    ab88:	00000000 	nop
    ab8c:	94c80052 	lhu	t0,82(a2)
    ab90:	3c0a0800 	lui	t2,0x800
    ab94:	8d4a0024 	lw	t2,36(t2)
    ab98:	01488821 	addu	s1,t2,t0
    ab9c:	a4d10052 	sh	s1,82(a2)
    aba0:	0a001219 	j	0x8004864
    aba4:	8fb40010 	lw	s4,16(sp)
    aba8:	a0870001 	sb	a3,1(a0)
    abac:	8f840038 	lw	a0,56(gp)
    abb0:	240b0001 	li	t3,1
    abb4:	ac8b0008 	sw	t3,8(a0)
    abb8:	0a0013be 	j	0x8004ef8
    abbc:	3c128008 	lui	s2,0x8008
    abc0:	00052080 	sll	a0,a1,0x2
    abc4:	0a0014a2 	j	0x8005288
    abc8:	00c43021 	addu	a2,a2,a0
    abcc:	27bdffe0 	addiu	sp,sp,-32
    abd0:	3c0d8008 	lui	t5,0x8008
    abd4:	afb20018 	sw	s2,24(sp)
    abd8:	afb00010 	sw	s0,16(sp)
    abdc:	afbf001c 	sw	ra,28(sp)
    abe0:	afb10014 	sw	s1,20(sp)
    abe4:	35b20080 	ori	s2,t5,0x80
    abe8:	8e4c0018 	lw	t4,24(s2)
    abec:	35a80100 	ori	t0,t5,0x100
    abf0:	964b0006 	lhu	t3,6(s2)
    abf4:	95a70050 	lhu	a3,80(t5)
    abf8:	910900fc 	lbu	t1,252(t0)
    abfc:	000c5602 	srl	t2,t4,0x18
    ac00:	01672823 	subu	a1,t3,a3
    ac04:	3143007f 	andi	v1,t2,0x7f
    ac08:	312600ff 	andi	a2,t1,0xff
    ac0c:	24020003 	li	v0,3
    ac10:	af8300a8 	sw	v1,168(gp)
    ac14:	af8400a0 	sw	a0,160(gp)
    ac18:	10c2001b 	beq	a2,v0,0xac88
    ac1c:	30b0ffff 	andi	s0,a1,0xffff
    ac20:	910600fc 	lbu	a2,252(t0)
    ac24:	24120005 	li	s2,5
    ac28:	30c200ff 	andi	v0,a2,0xff
    ac2c:	10520033 	beq	v0,s2,0xacfc
    ac30:	00000000 	nop
    ac34:	16000009 	bnez	s0,0xac5c
    ac38:	8fbf001c 	lw	ra,28(sp)
    ac3c:	8fb20018 	lw	s2,24(sp)
    ac40:	8fb10014 	lw	s1,20(sp)
    ac44:	8fb00010 	lw	s0,16(sp)
    ac48:	240d0c00 	li	t5,3072
    ac4c:	3c0c8000 	lui	t4,0x8000
    ac50:	27bd0020 	addiu	sp,sp,32
    ac54:	03e00008 	jr	ra
    ac58:	ad8d0024 	sw	t5,36(t4)
    ac5c:	0e0011fb 	jal	0x80047ec
    ac60:	02002021 	move	a0,s0
    ac64:	8fbf001c 	lw	ra,28(sp)
    ac68:	8fb20018 	lw	s2,24(sp)
    ac6c:	8fb10014 	lw	s1,20(sp)
    ac70:	8fb00010 	lw	s0,16(sp)
    ac74:	240d0c00 	li	t5,3072
    ac78:	3c0c8000 	lui	t4,0x8000
    ac7c:	27bd0020 	addiu	sp,sp,32
    ac80:	03e00008 	jr	ra
    ac84:	ad8d0024 	sw	t5,36(t4)
    ac88:	96580078 	lhu	t8,120(s2)
    ac8c:	9651007a 	lhu	s1,122(s2)
    ac90:	924e007d 	lbu	t6,125(s2)
    ac94:	02387826 	xor	t7,s1,t8
    ac98:	31e8ffff 	andi	t0,t7,0xffff
    ac9c:	31c400c0 	andi	a0,t6,0xc0
    aca0:	14800009 	bnez	a0,0xacc8
    aca4:	2d110001 	sltiu	s1,t0,1
    aca8:	16000037 	bnez	s0,0xad88
    acac:	00000000 	nop
    acb0:	5620ffe2 	bnezl	s1,0xac3c
    acb4:	8fbf001c 	lw	ra,28(sp)
    acb8:	0e0010d1 	jal	0x8004344
    acbc:	00000000 	nop
    acc0:	0a00156a 	j	0x80055a8
    acc4:	8fbf001c 	lw	ra,28(sp)
    acc8:	1620ffda 	bnez	s1,0xac34
    accc:	00000000 	nop
    acd0:	0e0010d1 	jal	0x8004344
    acd4:	00000000 	nop
    acd8:	1440ffd8 	bnez	v0,0xac3c
    acdc:	8fbf001c 	lw	ra,28(sp)
    ace0:	16000022 	bnez	s0,0xad6c
    ace4:	00000000 	nop
    ace8:	925f007d 	lbu	ra,125(s2)
    acec:	33e2003f 	andi	v0,ra,0x3f
    acf0:	a242007d 	sb	v0,125(s2)
    acf4:	0a00156a 	j	0x80055a8
    acf8:	8fbf001c 	lw	ra,28(sp)
    acfc:	950900ea 	lhu	t1,234(t0)
    ad00:	8f860080 	lw	a2,128(gp)
    ad04:	00802821 	move	a1,a0
    ad08:	24040005 	li	a0,5
    ad0c:	0e000725 	jal	0x8001c94
    ad10:	3130ffff 	andi	s0,t1,0xffff
    ad14:	97830092 	lhu	v1,146(gp)
    ad18:	3c048000 	lui	a0,0x8000
    ad1c:	2465ffff 	addiu	a1,v1,-1
    ad20:	a7850092 	sh	a1,146(gp)
    ad24:	8c8a01b8 	lw	t2,440(a0)
    ad28:	0540fffe 	bltz	t2,0xad24
    ad2c:	00000000 	nop
    ad30:	ac800180 	sw	zero,384(a0)
    ad34:	8fbf001c 	lw	ra,28(sp)
    ad38:	ac900184 	sw	s0,388(a0)
    ad3c:	8fb20018 	lw	s2,24(sp)
    ad40:	8fb10014 	lw	s1,20(sp)
    ad44:	8fb00010 	lw	s0,16(sp)
    ad48:	3c076013 	lui	a3,0x6013
    ad4c:	3c0b1000 	lui	t3,0x1000
    ad50:	240d0c00 	li	t5,3072
    ad54:	3c0c8000 	lui	t4,0x8000
    ad58:	27bd0020 	addiu	sp,sp,32
    ad5c:	ac870188 	sw	a3,392(a0)
    ad60:	ac8b01b8 	sw	t3,440(a0)
    ad64:	03e00008 	jr	ra
    ad68:	ad8d0024 	sw	t5,36(t4)
    ad6c:	0e0011fb 	jal	0x80047ec
    ad70:	02002021 	move	a0,s0
    ad74:	5040ffb1 	beqzl	v0,0xac3c
    ad78:	8fbf001c 	lw	ra,28(sp)
    ad7c:	925f007d 	lbu	ra,125(s2)
    ad80:	0a001597 	j	0x800565c
    ad84:	33e2003f 	andi	v0,ra,0x3f
    ad88:	0e0011fb 	jal	0x80047ec
    ad8c:	02002021 	move	a0,s0
    ad90:	1440ffaa 	bnez	v0,0xac3c
    ad94:	8fbf001c 	lw	ra,28(sp)
    ad98:	12200007 	beqz	s1,0xadb8
    ad9c:	00000000 	nop
    ada0:	9259007d 	lbu	t9,125(s2)
    ada4:	3330003f 	andi	s0,t9,0x3f
    ada8:	36020040 	ori	v0,s0,0x40
    adac:	a242007d 	sb	v0,125(s2)
    adb0:	0a00156a 	j	0x80055a8
    adb4:	8fbf001c 	lw	ra,28(sp)
    adb8:	0e0010d1 	jal	0x8004344
    adbc:	00000000 	nop
    adc0:	5040ff9e 	beqzl	v0,0xac3c
    adc4:	8fbf001c 	lw	ra,28(sp)
    adc8:	9259007d 	lbu	t9,125(s2)
    adcc:	3330003f 	andi	s0,t9,0x3f
    add0:	0a0015c6 	j	0x8005718
    add4:	36020040 	ori	v0,s0,0x40
    add8:	00000000 	nop
    addc:	0000001b 	divu	zero,zero,zero
    ade0:	0000000f 	sync
    ade4:	0000000a 	.word	0xa
    ade8:	00000008 	jr	zero
    adec:	00000006 	srlv	zero,zero,zero
    adf0:	00000005 	.word	0x5
    adf4:	00000005 	.word	0x5
    adf8:	00000004 	sllv	zero,zero,zero
    adfc:	00000004 	sllv	zero,zero,zero
    ae00:	00000003 	sra	zero,zero,0x0
    ae04:	00000003 	sra	zero,zero,0x0
    ae08:	00000003 	sra	zero,zero,0x0
    ae0c:	00000003 	sra	zero,zero,0x0
    ae10:	00000003 	sra	zero,zero,0x0
    ae14:	00000002 	srl	zero,zero,0x0
    ae18:	00000002 	srl	zero,zero,0x0
    ae1c:	00000002 	srl	zero,zero,0x0
    ae20:	00000002 	srl	zero,zero,0x0
    ae24:	00000002 	srl	zero,zero,0x0
    ae28:	00000002 	srl	zero,zero,0x0
    ae2c:	00000002 	srl	zero,zero,0x0
    ae30:	00000002 	srl	zero,zero,0x0
    ae34:	00000002 	srl	zero,zero,0x0
    ae38:	00000002 	srl	zero,zero,0x0
    ae3c:	00000002 	srl	zero,zero,0x0
    ae40:	00000002 	srl	zero,zero,0x0
    ae44:	00000002 	srl	zero,zero,0x0
    ae48:	00000002 	srl	zero,zero,0x0
    ae4c:	00000002 	srl	zero,zero,0x0
    ae50:	00000001 	.word	0x1
    ae54:	00000001 	.word	0x1
    ae58:	00000001 	.word	0x1
    ae5c:	80080100 	lb	t0,256(zero)
    ae60:	80080080 	lb	t0,128(zero)
    ae64:	80080000 	lb	t0,0(zero)
    ae68:	00000c00 	sll	at,zero,0x10
    ae6c:	00003080 	sll	a2,zero,0x2
    ae70:	080011d0 	j	0x4740
    ae74:	0800127c 	j	0x49f0
    ae78:	08001294 	j	0x4a50
    ae7c:	080012a8 	j	0x4aa0
    ae80:	080012bc 	j	0x4af0
    ae84:	080011d0 	j	0x4740
    ae88:	080011d0 	j	0x4740
    ae8c:	080012f0 	j	0x4bc0
    ae90:	0800132c 	j	0x4cb0
    ae94:	08001340 	j	0x4d00
    ae98:	08001388 	j	0x4e20
    ae9c:	08001a8c 	j	0x6a30
    aea0:	08001a8c 	j	0x6a30
    aea4:	08001ac4 	j	0x6b10
    aea8:	08001ac4 	j	0x6b10
    aeac:	08001ad8 	j	0x6b60
    aeb0:	08001aa8 	j	0x6aa0
    aeb4:	08001d00 	j	0x7400
    aeb8:	08001ccc 	j	0x7330
    aebc:	08001d58 	j	0x7560
    aec0:	08001d58 	j	0x7560
    aec4:	08001de0 	j	0x7780
    aec8:	08001d10 	j	0x7440
    aecc:	80080240 	lb	t0,576(zero)
    aed0:	08002734 	j	0x9cd0
    aed4:	0800256c 	j	0x95b0
    aed8:	0800275c 	j	0x9d70
    aedc:	080027f4 	j	0x9fd0
    aee0:	0800293c 	j	0xa4f0
    aee4:	08002988 	j	0xa620
    aee8:	08002aac 	j	0xaab0
    aeec:	080029b4 	j	0xa6d0
    aef0:	08002a38 	j	0xa8e0
    aef4:	080025dc 	j	0x9770
    aef8:	08002edc 	j	0xbb70
    aefc:	08002ea4 	j	0xba90
    af00:	08002588 	j	0x9620
    af04:	08002588 	j	0x9620
    af08:	08002588 	j	0x9620
    af0c:	08002b20 	j	0xac80
    af10:	08002b20 	j	0xac80
    af14:	08002588 	j	0x9620
    af18:	08002588 	j	0x9620
    af1c:	08002dd0 	j	0xb740
    af20:	08002588 	j	0x9620
    af24:	08002588 	j	0x9620
    af28:	08002588 	j	0x9620
    af2c:	08002588 	j	0x9620
    af30:	08002e0c 	j	0xb830
    af34:	08002588 	j	0x9620
    af38:	08002588 	j	0x9620
    af3c:	08002588 	j	0x9620
    af40:	08002588 	j	0x9620
    af44:	08002588 	j	0x9620
    af48:	08002588 	j	0x9620
    af4c:	08002588 	j	0x9620
    af50:	08002588 	j	0x9620
    af54:	08002588 	j	0x9620
    af58:	08002588 	j	0x9620
    af5c:	08002588 	j	0x9620
    af60:	08002588 	j	0x9620
    af64:	08002588 	j	0x9620
    af68:	08002588 	j	0x9620
    af6c:	080029a8 	j	0xa6a0
    af70:	08002588 	j	0x9620
    af74:	08002588 	j	0x9620
    af78:	08002e68 	j	0xb9a0
    af7c:	08002588 	j	0x9620
    af80:	08002588 	j	0x9620
    af84:	08002588 	j	0x9620
    af88:	08002588 	j	0x9620
    af8c:	08002588 	j	0x9620
    af90:	08002588 	j	0x9620
    af94:	08002588 	j	0x9620
    af98:	08002588 	j	0x9620
    af9c:	08002588 	j	0x9620
    afa0:	08002588 	j	0x9620
    afa4:	08002588 	j	0x9620
    afa8:	08002588 	j	0x9620
    afac:	08002588 	j	0x9620
    afb0:	08002588 	j	0x9620
    afb4:	08002588 	j	0x9620
    afb8:	08002588 	j	0x9620
    afbc:	08002588 	j	0x9620
    afc0:	08002cf4 	j	0xb3d0
    afc4:	08002588 	j	0x9620
    afc8:	08002588 	j	0x9620
    afcc:	08002c68 	j	0xb1a0
    afd0:	08002bc4 	j	0xaf10
    afd4:	08003ce4 	j	0xf390
    afd8:	08003cb8 	j	0xf2e0
    afdc:	08003c84 	j	0xf210
    afe0:	08003c58 	j	0xf160
    afe4:	08003c38 	j	0xf0e0
    afe8:	08003bec 	j	0xefb0
    afec:	80080100 	lb	t0,256(zero)
    aff0:	80080080 	lb	t0,128(zero)
    aff4:	80080000 	lb	t0,0(zero)
    aff8:	80080080 	lb	t0,128(zero)
    affc:	08004c64 	j	0x13190
    b000:	08004c9c 	j	0x13270
    b004:	08004be4 	j	0x12f90
    b008:	08004c64 	j	0x13190
    b00c:	08004c64 	j	0x13190
    b010:	080049b8 	j	0x126e0
    b014:	08004c64 	j	0x13190
    b018:	08005050 	j	0x14140
    b01c:	0a000c84 	j	0x8003210
    b020:	00000000 	nop
    b024:	00000000 	nop
    b028:	0000000d 	break
    b02c:	72787036 	.word	0x72787036
    b030:	2e302e31 	sltiu	s0,s1,11825
    b034:	37000000 	ori	zero,t8,0x0
    b038:	06001103 	bltz	s0,0xf448
    b03c:	00000000 	nop
    b040:	00000001 	.word	0x1
	...
    e1fc:	00000080 	sll	zero,zero,0x2
	...
    e220:	0000000a 	.word	0xa
	...
    e230:	10000003 	b	0xe240
    e234:	00000000 	nop
    e238:	0000000d 	break
    e23c:	0000000d 	break
    e240:	3c020801 	lui	v0,0x801
    e244:	24429400 	addiu	v0,v0,-27648
    e248:	3c030801 	lui	v1,0x801
    e24c:	24639634 	addiu	v1,v1,-27084
    e250:	ac400000 	sw	zero,0(v0)
    e254:	0043202b 	sltu	a0,v0,v1
    e258:	1480fffd 	bnez	a0,0xe250
    e25c:	24420004 	addiu	v0,v0,4
    e260:	3c1d0800 	lui	sp,0x800
    e264:	37bd9ffc 	ori	sp,sp,0x9ffc
    e268:	03a0f021 	move	s8,sp
    e26c:	3c100800 	lui	s0,0x800
    e270:	26103210 	addiu	s0,s0,12816
    e274:	3c1c0801 	lui	gp,0x801
    e278:	279c9400 	addiu	gp,gp,-27648
    e27c:	0e001274 	jal	0x80049d0
    e280:	00000000 	nop
    e284:	0000000d 	break
    e288:	3c028000 	lui	v0,0x8000
    e28c:	30a5ffff 	andi	a1,a1,0xffff
    e290:	30c600ff 	andi	a2,a2,0xff
    e294:	34430180 	ori	v1,v0,0x180
    e298:	3c088000 	lui	t0,0x8000
    e29c:	8d0901b8 	lw	t1,440(t0)
    e2a0:	0520fffe 	bltz	t1,0xe29c
    e2a4:	00000000 	nop
    e2a8:	ac640000 	sw	a0,0(v1)
    e2ac:	24040002 	li	a0,2
    e2b0:	a4650008 	sh	a1,8(v1)
    e2b4:	a066000a 	sb	a2,10(v1)
    e2b8:	a064000b 	sb	a0,11(v1)
    e2bc:	ac670018 	sw	a3,24(v1)
    e2c0:	3c031000 	lui	v1,0x1000
    e2c4:	03e00008 	jr	ra
    e2c8:	ad0301b8 	sw	v1,440(t0)
    e2cc:	3c056000 	lui	a1,0x6000
    e2d0:	8ca24ff8 	lw	v0,20472(a1)
    e2d4:	0440fffe 	bltz	v0,0xe2d0
    e2d8:	00000000 	nop
    e2dc:	aca44fc0 	sw	a0,20416(a1)
    e2e0:	3c031000 	lui	v1,0x1000
    e2e4:	3c040200 	lui	a0,0x200
    e2e8:	aca44fc4 	sw	a0,20420(a1)
    e2ec:	03e00008 	jr	ra
    e2f0:	aca34ff8 	sw	v1,20472(a1)
    e2f4:	9486000c 	lhu	a2,12(a0)
    e2f8:	00a05021 	move	t2,a1
    e2fc:	24880014 	addiu	t0,a0,20
    e300:	00062b02 	srl	a1,a2,0xc
    e304:	00051080 	sll	v0,a1,0x2
    e308:	00444821 	addu	t1,v0,a0
    e30c:	0109182b 	sltu	v1,t0,t1
    e310:	10600011 	beqz	v1,0xe358
    e314:	00000000 	nop
    e318:	91030000 	lbu	v1,0(t0)
    e31c:	2c640009 	sltiu	a0,v1,9
    e320:	50800009 	beqzl	a0,0xe348
    e324:	91190001 	lbu	t9,1(t0)
    e328:	00036080 	sll	t4,v1,0x2
    e32c:	3c0d0801 	lui	t5,0x801
    e330:	25ad9090 	addiu	t5,t5,-28528
    e334:	018d5821 	addu	t3,t4,t5
    e338:	8d670000 	lw	a3,0(t3)
    e33c:	00e00008 	jr	a3
    e340:	00000000 	nop
    e344:	91190001 	lbu	t9,1(t0)
    e348:	01194021 	addu	t0,t0,t9
    e34c:	0109302b 	sltu	a2,t0,t1
    e350:	54c0fff2 	bnezl	a2,0xe31c
    e354:	91030000 	lbu	v1,0(t0)
    e358:	03e00008 	jr	ra
    e35c:	00001021 	move	v0,zero
    e360:	0a000ccc 	j	0x8003330
    e364:	25080001 	addiu	t0,t0,1
    e368:	910f0001 	lbu	t7,1(t0)
    e36c:	240e000a 	li	t6,10
    e370:	15ee0040 	bne	t7,t6,0xe474
    e374:	0128c823 	subu	t9,t1,t0
    e378:	2f38000a 	sltiu	t8,t9,10
    e37c:	1700003d 	bnez	t8,0xe474
    e380:	250d0002 	addiu	t5,t0,2
    e384:	8d580000 	lw	t8,0(t2)
    e388:	250f0006 	addiu	t7,t0,6
    e38c:	370e0100 	ori	t6,t8,0x100
    e390:	ad4e0000 	sw	t6,0(t2)
    e394:	910c0002 	lbu	t4,2(t0)
    e398:	91ab0001 	lbu	t3,1(t5)
    e39c:	91a40002 	lbu	a0,2(t5)
    e3a0:	91a60003 	lbu	a2,3(t5)
    e3a4:	000c2e00 	sll	a1,t4,0x18
    e3a8:	000b3c00 	sll	a3,t3,0x10
    e3ac:	00a71025 	or	v0,a1,a3
    e3b0:	00041a00 	sll	v1,a0,0x8
    e3b4:	0043c825 	or	t9,v0,v1
    e3b8:	0326c025 	or	t8,t9,a2
    e3bc:	ad580004 	sw	t8,4(t2)
    e3c0:	910e0006 	lbu	t6,6(t0)
    e3c4:	91ed0001 	lbu	t5,1(t7)
    e3c8:	91e70002 	lbu	a3,2(t7)
    e3cc:	91e50003 	lbu	a1,3(t7)
    e3d0:	000e5e00 	sll	t3,t6,0x18
    e3d4:	000d6400 	sll	t4,t5,0x10
    e3d8:	016c3025 	or	a2,t3,t4
    e3dc:	00072200 	sll	a0,a3,0x8
    e3e0:	00c41025 	or	v0,a2,a0
    e3e4:	00451825 	or	v1,v0,a1
    e3e8:	2508000a 	addiu	t0,t0,10
    e3ec:	0a000ccc 	j	0x8003330
    e3f0:	ad430008 	sw	v1,8(t2)
    e3f4:	910f0001 	lbu	t7,1(t0)
    e3f8:	25040002 	addiu	a0,t0,2
    e3fc:	24080002 	li	t0,2
    e400:	55e80001 	bnel	t7,t0,0xe408
    e404:	01202021 	move	a0,t1
    e408:	0a000ccc 	j	0x8003330
    e40c:	00804021 	move	t0,a0
    e410:	910c0001 	lbu	t4,1(t0)
    e414:	240b0003 	li	t3,3
    e418:	158b0016 	bne	t4,t3,0xe474
    e41c:	00000000 	nop
    e420:	8d580000 	lw	t8,0(t2)
    e424:	910e0002 	lbu	t6,2(t0)
    e428:	25080003 	addiu	t0,t0,3
    e42c:	370d0008 	ori	t5,t8,0x8
    e430:	a14e0010 	sb	t6,16(t2)
    e434:	0a000ccc 	j	0x8003330
    e438:	ad4d0000 	sw	t5,0(t2)
    e43c:	91190001 	lbu	t9,1(t0)
    e440:	240f0004 	li	t7,4
    e444:	172f000b 	bne	t9,t7,0xe474
    e448:	00000000 	nop
    e44c:	91070002 	lbu	a3,2(t0)
    e450:	91040003 	lbu	a0,3(t0)
    e454:	8d430000 	lw	v1,0(t2)
    e458:	00072a00 	sll	a1,a3,0x8
    e45c:	00a41025 	or	v0,a1,a0
    e460:	34660004 	ori	a2,v1,0x4
    e464:	25080004 	addiu	t0,t0,4
    e468:	ad42000c 	sw	v0,12(t2)
    e46c:	0a000ccc 	j	0x8003330
    e470:	ad460000 	sw	a2,0(t2)
    e474:	03e00008 	jr	ra
    e478:	24020001 	li	v0,1
    e47c:	27bdffe8 	addiu	sp,sp,-24
    e480:	afbf0014 	sw	ra,20(sp)
    e484:	afb00010 	sw	s0,16(sp)
    e488:	0e0015e5 	jal	0x8005794
    e48c:	00808021 	move	s0,a0
    e490:	3c048008 	lui	a0,0x8008
    e494:	34850080 	ori	a1,a0,0x80
    e498:	90a60005 	lbu	a2,5(a1)
    e49c:	2403fffe 	li	v1,-2
    e4a0:	02002021 	move	a0,s0
    e4a4:	00c31024 	and	v0,a2,v1
    e4a8:	8fbf0014 	lw	ra,20(sp)
    e4ac:	8fb00010 	lw	s0,16(sp)
    e4b0:	a0a20005 	sb	v0,5(a1)
    e4b4:	0a0015ef 	j	0x80057bc
    e4b8:	27bd0018 	addiu	sp,sp,24
    e4bc:	27bdffe8 	addiu	sp,sp,-24
    e4c0:	afb00010 	sw	s0,16(sp)
    e4c4:	afbf0014 	sw	ra,20(sp)
    e4c8:	0e000fd4 	jal	0x8003f50
    e4cc:	00808021 	move	s0,a0
    e4d0:	3c068008 	lui	a2,0x8008
    e4d4:	34c50080 	ori	a1,a2,0x80
    e4d8:	90a40000 	lbu	a0,0(a1)
    e4dc:	24020050 	li	v0,80
    e4e0:	308300ff 	andi	v1,a0,0xff
    e4e4:	10620007 	beq	v1,v0,0xe504
    e4e8:	3c098000 	lui	t1,0x8000
    e4ec:	02002021 	move	a0,s0
    e4f0:	8fbf0014 	lw	ra,20(sp)
    e4f4:	8fb00010 	lw	s0,16(sp)
    e4f8:	ad200180 	sw	zero,384(t1)
    e4fc:	0a0010a6 	j	0x8004298
    e500:	27bd0018 	addiu	sp,sp,24
    e504:	24080100 	li	t0,256
    e508:	3c078000 	lui	a3,0x8000
    e50c:	02002021 	move	a0,s0
    e510:	8fbf0014 	lw	ra,20(sp)
    e514:	8fb00010 	lw	s0,16(sp)
    e518:	ace80180 	sw	t0,384(a3)
    e51c:	0a0010a6 	j	0x8004298
    e520:	27bd0018 	addiu	sp,sp,24
    e524:	27bdff78 	addiu	sp,sp,-136
    e528:	3c058008 	lui	a1,0x8008
    e52c:	afbe0080 	sw	s8,128(sp)
    e530:	afb7007c 	sw	s7,124(sp)
    e534:	afb3006c 	sw	s3,108(sp)
    e538:	afb10064 	sw	s1,100(sp)
    e53c:	afbf0084 	sw	ra,132(sp)
    e540:	afb60078 	sw	s6,120(sp)
    e544:	afb50074 	sw	s5,116(sp)
    e548:	afb40070 	sw	s4,112(sp)
    e54c:	afb20068 	sw	s2,104(sp)
    e550:	afb00060 	sw	s0,96(sp)
    e554:	34a60080 	ori	a2,a1,0x80
    e558:	3c058000 	lui	a1,0x8000
    e55c:	8cb20128 	lw	s2,296(a1)
    e560:	90c40009 	lbu	a0,9(a2)
    e564:	8ca70104 	lw	a3,260(a1)
    e568:	3c020001 	lui	v0,0x1
    e56c:	309100ff 	andi	s1,a0,0xff
    e570:	00e21824 	and	v1,a3,v0
    e574:	0000b821 	move	s7,zero
    e578:	0000f021 	move	s8,zero
    e57c:	10600007 	beqz	v1,0xe59c
    e580:	00009821 	move	s3,zero
    e584:	3c090800 	lui	t1,0x800
    e588:	8d2931f0 	lw	t1,12784(t1)
    e58c:	24130001 	li	s3,1
    e590:	25280001 	addiu	t0,t1,1
    e594:	3c010800 	lui	at,0x800
    e598:	ac2831f0 	sw	t0,12784(at)
    e59c:	aca00084 	sw	zero,132(a1)
    e5a0:	90cc0005 	lbu	t4,5(a2)
    e5a4:	000c5827 	nor	t3,zero,t4
    e5a8:	316a0001 	andi	t2,t3,0x1
    e5ac:	15400072 	bnez	t2,0xe778
    e5b0:	afa00050 	sw	zero,80(sp)
    e5b4:	90cd0000 	lbu	t5,0(a2)
    e5b8:	24060020 	li	a2,32
    e5bc:	31a400ff 	andi	a0,t5,0xff
    e5c0:	10860018 	beq	a0,a2,0xe624
    e5c4:	240e0050 	li	t6,80
    e5c8:	108e0093 	beq	a0,t6,0xe818
    e5cc:	00000000 	nop
    e5d0:	3c100800 	lui	s0,0x800
    e5d4:	8e1000dc 	lw	s0,220(s0)
    e5d8:	260f0001 	addiu	t7,s0,1
    e5dc:	3c010800 	lui	at,0x800
    e5e0:	ac2f00dc 	sw	t7,220(at)
    e5e4:	0e00165e 	jal	0x8005978
    e5e8:	00000000 	nop
    e5ec:	00401821 	move	v1,v0
    e5f0:	8fbf0084 	lw	ra,132(sp)
    e5f4:	8fbe0080 	lw	s8,128(sp)
    e5f8:	8fb7007c 	lw	s7,124(sp)
    e5fc:	8fb60078 	lw	s6,120(sp)
    e600:	8fb50074 	lw	s5,116(sp)
    e604:	8fb40070 	lw	s4,112(sp)
    e608:	8fb3006c 	lw	s3,108(sp)
    e60c:	8fb20068 	lw	s2,104(sp)
    e610:	8fb10064 	lw	s1,100(sp)
    e614:	8fb00060 	lw	s0,96(sp)
    e618:	00601021 	move	v0,v1
    e61c:	03e00008 	jr	ra
    e620:	27bd0088 	addiu	sp,sp,136
    e624:	0000000d 	break
    e628:	3c1f8000 	lui	ra,0x8000
    e62c:	afa00030 	sw	zero,48(sp)
    e630:	97e50116 	lhu	a1,278(ra)
    e634:	8fe20104 	lw	v0,260(ra)
    e638:	3c040020 	lui	a0,0x20
    e63c:	30b9ffff 	andi	t9,a1,0xffff
    e640:	00443824 	and	a3,v0,a0
    e644:	0007182b 	sltu	v1,zero,a3
    e648:	00033140 	sll	a2,v1,0x5
    e64c:	afa60030 	sw	a2,48(sp)
    e650:	8ff50104 	lw	s5,260(ra)
    e654:	37f80c00 	ori	t8,ra,0xc00
    e658:	3c160040 	lui	s6,0x40
    e65c:	03388021 	addu	s0,t9,t8
    e660:	02b6a024 	and	s4,s5,s6
    e664:	34c40040 	ori	a0,a2,0x40
    e668:	12800047 	beqz	s4,0xe788
    e66c:	9215000d 	lbu	s5,13(s0)
    e670:	32a80020 	andi	t0,s5,0x20
    e674:	15000002 	bnez	t0,0xe680
    e678:	34860080 	ori	a2,a0,0x80
    e67c:	00803021 	move	a2,a0
    e680:	14c0009f 	bnez	a2,0xe900
    e684:	afa60030 	sw	a2,48(sp)
    e688:	3c0d8008 	lui	t5,0x8008
    e68c:	35a60080 	ori	a2,t5,0x80
    e690:	90cc0008 	lbu	t4,8(a2)
    e694:	318b0040 	andi	t3,t4,0x40
    e698:	51600006 	beqzl	t3,0xe6b4
    e69c:	3c068008 	lui	a2,0x8008
    e6a0:	240e0004 	li	t6,4
    e6a4:	122e00a8 	beq	s1,t6,0xe948
    e6a8:	240f0012 	li	t7,18
    e6ac:	122f0032 	beq	s1,t7,0xe778
    e6b0:	3c068008 	lui	a2,0x8008
    e6b4:	34c40100 	ori	a0,a2,0x100
    e6b8:	3c028000 	lui	v0,0x8000
    e6bc:	9447011a 	lhu	a3,282(v0)
    e6c0:	9619000e 	lhu	t9,14(s0)
    e6c4:	909f0008 	lbu	ra,8(a0)
    e6c8:	8e180008 	lw	t8,8(s0)
    e6cc:	30e3ffff 	andi	v1,a3,0xffff
    e6d0:	03f9b004 	sllv	s6,t9,ra
    e6d4:	32b40004 	andi	s4,s5,0x4
    e6d8:	afb6005c 	sw	s6,92(sp)
    e6dc:	afa30058 	sw	v1,88(sp)
    e6e0:	8e160004 	lw	s6,4(s0)
    e6e4:	1280002e 	beqz	s4,0xe7a0
    e6e8:	afb80054 	sw	t8,84(sp)
    e6ec:	34c30080 	ori	v1,a2,0x80
    e6f0:	90680008 	lbu	t0,8(v1)
    e6f4:	31050040 	andi	a1,t0,0x40
    e6f8:	14a00025 	bnez	a1,0xe790
    e6fc:	00000000 	nop
    e700:	8c700050 	lw	s0,80(v1)
    e704:	02d09023 	subu	s2,s6,s0
    e708:	06400005 	bltz	s2,0xe720
    e70c:	00000000 	nop
    e710:	8c710034 	lw	s1,52(v1)
    e714:	02d1a823 	subu	s5,s6,s1
    e718:	06a20167 	bltzl	s5,0xecb8
    e71c:	8ee20008 	lw	v0,8(s7)
    e720:	12600006 	beqz	s3,0xe73c
    e724:	3c128000 	lui	s2,0x8000
    e728:	3c150800 	lui	s5,0x800
    e72c:	8eb531f4 	lw	s5,12788(s5)
    e730:	26b60001 	addiu	s6,s5,1
    e734:	3c010800 	lui	at,0x800
    e738:	ac3631f4 	sw	s6,12788(at)
    e73c:	ae400044 	sw	zero,68(s2)
    e740:	24030001 	li	v1,1
    e744:	8fbf0084 	lw	ra,132(sp)
    e748:	8fbe0080 	lw	s8,128(sp)
    e74c:	8fb7007c 	lw	s7,124(sp)
    e750:	8fb60078 	lw	s6,120(sp)
    e754:	8fb50074 	lw	s5,116(sp)
    e758:	8fb40070 	lw	s4,112(sp)
    e75c:	8fb3006c 	lw	s3,108(sp)
    e760:	8fb20068 	lw	s2,104(sp)
    e764:	8fb10064 	lw	s1,100(sp)
    e768:	8fb00060 	lw	s0,96(sp)
    e76c:	00601021 	move	v0,v1
    e770:	03e00008 	jr	ra
    e774:	27bd0088 	addiu	sp,sp,136
    e778:	0e000d28 	jal	0x80034a0
    e77c:	00002021 	move	a0,zero
    e780:	0a000d75 	j	0x80035d4
    e784:	00401821 	move	v1,v0
    e788:	0a000d95 	j	0x8003654
    e78c:	00c02021 	move	a0,a2
    e790:	0e0016ae 	jal	0x8005ab8
    e794:	02c02021 	move	a0,s6
    e798:	1440ffe1 	bnez	v0,0xe720
    e79c:	00000000 	nop
    e7a0:	3c0b8008 	lui	t3,0x8008
    e7a4:	35640080 	ori	a0,t3,0x80
    e7a8:	8c8a0034 	lw	t2,52(a0)
    e7ac:	02ca4823 	subu	t1,s6,t2
    e7b0:	0520001d 	bltz	t1,0xe828
    e7b4:	00000000 	nop
    e7b8:	3c1e0800 	lui	s8,0x800
    e7bc:	8fde3100 	lw	s8,12544(s8)
    e7c0:	27d70001 	addiu	s7,s8,1
    e7c4:	3c010800 	lui	at,0x800
    e7c8:	ac373100 	sw	s7,12544(at)
    e7cc:	12600006 	beqz	s3,0xe7e8
    e7d0:	02402021 	move	a0,s2
    e7d4:	3c140800 	lui	s4,0x800
    e7d8:	8e9431f4 	lw	s4,12788(s4)
    e7dc:	26900001 	addiu	s0,s4,1
    e7e0:	3c010800 	lui	at,0x800
    e7e4:	ac3031f4 	sw	s0,12788(at)
    e7e8:	0e0015e5 	jal	0x8005794
    e7ec:	3c1e8008 	lui	s8,0x8008
    e7f0:	37cd0080 	ori	t5,s8,0x80
    e7f4:	91b70025 	lbu	s7,37(t5)
    e7f8:	02402021 	move	a0,s2
    e7fc:	36ee0004 	ori	t6,s7,0x4
    e800:	0e0015ef 	jal	0x80057bc
    e804:	a1ae0025 	sb	t6,37(t5)
    e808:	0e000cac 	jal	0x80032b0
    e80c:	02402021 	move	a0,s2
    e810:	0a000dca 	j	0x8003728
    e814:	24030001 	li	v1,1
    e818:	3c170801 	lui	s7,0x801
    e81c:	26f794f8 	addiu	s7,s7,-27400
    e820:	0a000d84 	j	0x8003610
    e824:	3c1f8000 	lui	ra,0x8000
    e828:	8c860030 	lw	a2,48(a0)
    e82c:	02c66023 	subu	t4,s6,a2
    e830:	1980000c 	blez	t4,0xe864
    e834:	2419000c 	li	t9,12
    e838:	908f004f 	lbu	t7,79(a0)
    e83c:	3c140800 	lui	s4,0x800
    e840:	8e943100 	lw	s4,12544(s4)
    e844:	32b500fc 	andi	s5,s5,0xfc
    e848:	35ed0001 	ori	t5,t7,0x1
    e84c:	268e0001 	addiu	t6,s4,1
    e850:	3c010800 	lui	at,0x800
    e854:	ac2e3100 	sw	t6,12544(at)
    e858:	a08d004f 	sb	t5,79(a0)
    e85c:	afa00058 	sw	zero,88(sp)
    e860:	2419000c 	li	t9,12
    e864:	afb90030 	sw	t9,48(sp)
    e868:	8c980030 	lw	t8,48(a0)
    e86c:	0316a023 	subu	s4,t8,s6
    e870:	1a80010b 	blez	s4,0xeca0
    e874:	8fa30058 	lw	v1,88(sp)
    e878:	0074f82a 	slt	ra,v1,s4
    e87c:	17e0ffd3 	bnez	ra,0xe7cc
    e880:	00000000 	nop
    e884:	1074002a 	beq	v1,s4,0xe930
    e888:	8fa50058 	lw	a1,88(sp)
    e88c:	02d4b021 	addu	s6,s6,s4
    e890:	00b41023 	subu	v0,a1,s4
    e894:	3044ffff 	andi	a0,v0,0xffff
    e898:	afa40058 	sw	a0,88(sp)
    e89c:	32a80002 	andi	t0,s5,0x2
    e8a0:	1100002e 	beqz	t0,0xe95c
    e8a4:	32ab0010 	andi	t3,s5,0x10
    e8a8:	3c158008 	lui	s5,0x8008
    e8ac:	36b00080 	ori	s0,s5,0x80
    e8b0:	92160008 	lbu	s6,8(s0)
    e8b4:	32d30040 	andi	s3,s6,0x40
    e8b8:	526000fb 	beqzl	s3,0xeca8
    e8bc:	8ee20008 	lw	v0,8(s7)
    e8c0:	0e0015e5 	jal	0x8005794
    e8c4:	02402021 	move	a0,s2
    e8c8:	240a0018 	li	t2,24
    e8cc:	a20a0009 	sb	t2,9(s0)
    e8d0:	92110005 	lbu	s1,5(s0)
    e8d4:	2409fffe 	li	t1,-2
    e8d8:	02402021 	move	a0,s2
    e8dc:	02299024 	and	s2,s1,t1
    e8e0:	0e0015ef 	jal	0x80057bc
    e8e4:	a2120005 	sb	s2,5(s0)
    e8e8:	24040039 	li	a0,57
    e8ec:	00002821 	move	a1,zero
    e8f0:	0e001689 	jal	0x8005a24
    e8f4:	24060018 	li	a2,24
    e8f8:	0a000dca 	j	0x8003728
    e8fc:	24030001 	li	v1,1
    e900:	92fe000c 	lbu	s8,12(s7)
    e904:	3c0a8008 	lui	t2,0x8008
    e908:	35490080 	ori	t1,t2,0x80
    e90c:	001ebb00 	sll	s7,s8,0xc
    e910:	8d270038 	lw	a3,56(t1)
    e914:	36f10081 	ori	s1,s7,0x81
    e918:	02402021 	move	a0,s2
    e91c:	3225f081 	andi	a1,s1,0xf081
    e920:	0e000c9b 	jal	0x800326c
    e924:	30c600ff 	andi	a2,a2,0xff
    e928:	0a000dc1 	j	0x8003704
    e92c:	00000000 	nop
    e930:	3aa70001 	xori	a3,s5,0x1
    e934:	30e30001 	andi	v1,a3,0x1
    e938:	1460ffa4 	bnez	v1,0xe7cc
    e93c:	02d4b021 	addu	s6,s6,s4
    e940:	0a000e1d 	j	0x8003874
    e944:	00000000 	nop
    e948:	02402021 	move	a0,s2
    e94c:	0e0016cb 	jal	0x8005b2c
    e950:	02002821 	move	a1,s0
    e954:	0a000d75 	j	0x80035d4
    e958:	00401821 	move	v1,v0
    e95c:	1160ff70 	beqz	t3,0xe720
    e960:	3c0f8008 	lui	t7,0x8008
    e964:	3c0d8008 	lui	t5,0x8008
    e968:	35ee0080 	ori	t6,t7,0x80
    e96c:	8dc40038 	lw	a0,56(t6)
    e970:	8fa30054 	lw	v1,84(sp)
    e974:	8da60004 	lw	a2,4(t5)
    e978:	00666023 	subu	t4,v1,a2
    e97c:	1d80ff68 	bgtz	t4,0xe720
    e980:	00000000 	nop
    e984:	0064c023 	subu	t8,v1,a0
    e988:	07020001 	bltzl	t8,0xe990
    e98c:	afa40054 	sw	a0,84(sp)
    e990:	3c1f0800 	lui	ra,0x800
    e994:	8fff31e4 	lw	ra,12772(ra)
    e998:	33f90001 	andi	t9,ra,0x1
    e99c:	13200015 	beqz	t9,0xe9f4
    e9a0:	8fac0058 	lw	t4,88(sp)
    e9a4:	3c078000 	lui	a3,0x8000
    e9a8:	94e3011a 	lhu	v1,282(a3)
    e9ac:	10600012 	beqz	v1,0xe9f8
    e9b0:	3c068008 	lui	a2,0x8008
    e9b4:	0e0020f8 	jal	0x80083e0
    e9b8:	02402021 	move	a0,s2
    e9bc:	3c030801 	lui	v1,0x801
    e9c0:	90639529 	lbu	v1,-27351(v1)
    e9c4:	30640002 	andi	a0,v1,0x2
    e9c8:	14800145 	bnez	a0,0xeee0
    e9cc:	00000000 	nop
    e9d0:	306c0004 	andi	t4,v1,0x4
    e9d4:	11800007 	beqz	t4,0xe9f4
    e9d8:	8fac0058 	lw	t4,88(sp)
    e9dc:	306600fb 	andi	a2,v1,0xfb
    e9e0:	3c010801 	lui	at,0x801
    e9e4:	a0269529 	sb	a2,-27351(at)
    e9e8:	32b500fc 	andi	s5,s5,0xfc
    e9ec:	afa00058 	sw	zero,88(sp)
    e9f0:	8fac0058 	lw	t4,88(sp)
    e9f4:	3c068008 	lui	a2,0x8008
    e9f8:	34d30080 	ori	s3,a2,0x80
    e9fc:	afb40018 	sw	s4,24(sp)
    ea00:	afb60010 	sw	s6,16(sp)
    ea04:	afac0014 	sw	t4,20(sp)
    ea08:	3c088000 	lui	t0,0x8000
    ea0c:	950b0120 	lhu	t3,288(t0)
    ea10:	8e6f0030 	lw	t7,48(s3)
    ea14:	966a005c 	lhu	t2,92(s3)
    ea18:	8fa3005c 	lw	v1,92(sp)
    ea1c:	8fbf0030 	lw	ra,48(sp)
    ea20:	3169ffff 	andi	t1,t3,0xffff
    ea24:	3144ffff 	andi	a0,t2,0xffff
    ea28:	8fae0054 	lw	t6,84(sp)
    ea2c:	01341021 	addu	v0,t1,s4
    ea30:	35054000 	ori	a1,t0,0x4000
    ea34:	0064382b 	sltu	a3,v1,a0
    ea38:	0045c821 	addu	t9,v0,a1
    ea3c:	03e7c025 	or	t8,ra,a3
    ea40:	afb90020 	sw	t9,32(sp)
    ea44:	afaf0028 	sw	t7,40(sp)
    ea48:	afb80030 	sw	t8,48(sp)
    ea4c:	afaf0024 	sw	t7,36(sp)
    ea50:	afa0002c 	sw	zero,44(sp)
    ea54:	afae0034 	sw	t6,52(sp)
    ea58:	926d0008 	lbu	t5,8(s3)
    ea5c:	31b40008 	andi	s4,t5,0x8
    ea60:	168000bb 	bnez	s4,0xed50
    ea64:	02002021 	move	a0,s0
    ea68:	8ee20004 	lw	v0,4(s7)
    ea6c:	0040f809 	jalr	v0
    ea70:	27a40010 	addiu	a0,sp,16
    ea74:	8faf0030 	lw	t7,48(sp)
    ea78:	31f30002 	andi	s3,t7,0x2
    ea7c:	56600001 	bnezl	s3,0xea84
    ea80:	32b500fe 	andi	s5,s5,0xfe
    ea84:	3c048008 	lui	a0,0x8008
    ea88:	349f0080 	ori	ra,a0,0x80
    ea8c:	93f90008 	lbu	t9,8(ra)
    ea90:	33380040 	andi	t8,t9,0x40
    ea94:	53000013 	beqzl	t8,0xeae4
    ea98:	8fa40024 	lw	a0,36(sp)
    ea9c:	8c850004 	lw	a1,4(a0)
    eaa0:	8fa70054 	lw	a3,84(sp)
    eaa4:	10a700d5 	beq	a1,a3,0xedfc
    eaa8:	24040014 	li	a0,20
    eaac:	32b00001 	andi	s0,s5,0x1
    eab0:	1200000c 	beqz	s0,0xeae4
    eab4:	8fa40024 	lw	a0,36(sp)
    eab8:	2414000c 	li	s4,12
    eabc:	1234011a 	beq	s1,s4,0xef28
    eac0:	2a2d000d 	slti	t5,s1,13
    eac4:	11a00102 	beqz	t5,0xeed0
    eac8:	2413000e 	li	s3,14
    eacc:	240e000a 	li	t6,10
    ead0:	522e0001 	beql	s1,t6,0xead8
    ead4:	241e0008 	li	s8,8
    ead8:	8faf0024 	lw	t7,36(sp)
    eadc:	25e40001 	addiu	a0,t7,1
    eae0:	afa40024 	sw	a0,36(sp)
    eae4:	8faa0014 	lw	t2,20(sp)
    eae8:	3c0b8008 	lui	t3,0x8008
    eaec:	35650080 	ori	a1,t3,0x80
    eaf0:	008a4821 	addu	t1,a0,t2
    eaf4:	8cb10030 	lw	s1,48(a1)
    eaf8:	aca90030 	sw	t1,48(a1)
    eafc:	90a4004e 	lbu	a0,78(a1)
    eb00:	8ca70030 	lw	a3,48(a1)
    eb04:	3408fffc 	li	t0,0xfffc
    eb08:	00881804 	sllv	v1,t0,a0
    eb0c:	00e3f821 	addu	ra,a3,v1
    eb10:	acbf0034 	sw	ra,52(a1)
    eb14:	8fa60030 	lw	a2,48(sp)
    eb18:	8fb90054 	lw	t9,84(sp)
    eb1c:	8fb8005c 	lw	t8,92(sp)
    eb20:	30c20008 	andi	v0,a2,0x8
    eb24:	1040000b 	beqz	v0,0xeb54
    eb28:	03389821 	addu	s3,t9,t8
    eb2c:	8cac0020 	lw	t4,32(a1)
    eb30:	119300d3 	beq	t4,s3,0xee80
    eb34:	30c600ff 	andi	a2,a2,0xff
    eb38:	92ee000c 	lbu	t6,12(s7)
    eb3c:	8fa70034 	lw	a3,52(sp)
    eb40:	02402021 	move	a0,s2
    eb44:	000e6b00 	sll	t5,t6,0xc
    eb48:	35b40080 	ori	s4,t5,0x80
    eb4c:	0e000c9b 	jal	0x800326c
    eb50:	3285f080 	andi	a1,s4,0xf080
    eb54:	3c028008 	lui	v0,0x8008
    eb58:	34500080 	ori	s0,v0,0x80
    eb5c:	8e0f0030 	lw	t7,48(s0)
    eb60:	01f13023 	subu	a2,t7,s1
    eb64:	18c00097 	blez	a2,0xedc4
    eb68:	26480080 	addiu	t0,s2,128
    eb6c:	3c070800 	lui	a3,0x800
    eb70:	8ce731e4 	lw	a3,12772(a3)
    eb74:	2404ff80 	li	a0,-128
    eb78:	01041824 	and	v1,t0,a0
    eb7c:	3118007f 	andi	t8,t0,0x7f
    eb80:	3c1f8000 	lui	ra,0x8000
    eb84:	3c198004 	lui	t9,0x8004
    eb88:	30f10001 	andi	s1,a3,0x1
    eb8c:	afe30090 	sw	v1,144(ra)
    eb90:	12200006 	beqz	s1,0xebac
    eb94:	03192821 	addu	a1,t8,t9
    eb98:	3c030801 	lui	v1,0x801
    eb9c:	90639529 	lbu	v1,-27351(v1)
    eba0:	30690008 	andi	t1,v1,0x8
    eba4:	152000c6 	bnez	t1,0xeec0
    eba8:	306a00f7 	andi	t2,v1,0xf7
    ebac:	3c108008 	lui	s0,0x8008
    ebb0:	36040080 	ori	a0,s0,0x80
    ebb4:	908c004f 	lbu	t4,79(a0)
    ebb8:	318b0001 	andi	t3,t4,0x1
    ebbc:	15600042 	bnez	t3,0xecc8
    ebc0:	00000000 	nop
    ebc4:	3c060800 	lui	a2,0x800
    ebc8:	8cc63198 	lw	a2,12696(a2)
    ebcc:	30ce0010 	andi	t6,a2,0x10
    ebd0:	51c00042 	beqzl	t6,0xecdc
    ebd4:	30f90001 	andi	t9,a3,0x1
    ebd8:	90af006b 	lbu	t7,107(a1)
    ebdc:	55e0003f 	bnezl	t7,0xecdc
    ebe0:	30f90001 	andi	t9,a3,0x1
    ebe4:	24180001 	li	t8,1
    ebe8:	a0b8006b 	sb	t8,107(a1)
    ebec:	3c118000 	lui	s1,0x8000
    ebf0:	9622007a 	lhu	v0,122(s1)
    ebf4:	24470064 	addiu	a3,v0,100
    ebf8:	a4870012 	sh	a3,18(a0)
    ebfc:	3c0d8008 	lui	t5,0x8008
    ec00:	35a50080 	ori	a1,t5,0x80
    ec04:	90b40008 	lbu	s4,8(a1)
    ec08:	32900040 	andi	s0,s4,0x40
    ec0c:	16000004 	bnez	s0,0xec20
    ec10:	3c038008 	lui	v1,0x8008
    ec14:	32ae0001 	andi	t6,s5,0x1
    ec18:	15c0008b 	bnez	t6,0xee48
    ec1c:	00000000 	nop
    ec20:	34640080 	ori	a0,v1,0x80
    ec24:	8c860020 	lw	a2,32(a0)
    ec28:	10d3000a 	beq	a2,s3,0xec54
    ec2c:	34630100 	ori	v1,v1,0x100
    ec30:	8c670000 	lw	a3,0(v1)
    ec34:	02c77823 	subu	t7,s6,a3
    ec38:	19e00097 	blez	t7,0xee98
    ec3c:	8fbf0054 	lw	ra,84(sp)
    ec40:	ac930020 	sw	s3,32(a0)
    ec44:	24130001 	li	s3,1
    ec48:	ac760000 	sw	s6,0(v1)
    ec4c:	afb30050 	sw	s3,80(sp)
    ec50:	ac7f0004 	sw	ra,4(v1)
    ec54:	17c0004e 	bnez	s8,0xed90
    ec58:	00000000 	nop
    ec5c:	8fa90050 	lw	t1,80(sp)
    ec60:	1520000b 	bnez	t1,0xec90
    ec64:	00000000 	nop
    ec68:	3c030801 	lui	v1,0x801
    ec6c:	90639529 	lbu	v1,-27351(v1)
    ec70:	306a0001 	andi	t2,v1,0x1
    ec74:	1140002e 	beqz	t2,0xed30
    ec78:	8fab0058 	lw	t3,88(sp)
    ec7c:	306400fe 	andi	a0,v1,0xfe
    ec80:	3c010801 	lui	at,0x801
    ec84:	a0249529 	sb	a0,-27351(at)
    ec88:	0a000d75 	j	0x80035d4
    ec8c:	00001821 	move	v1,zero
    ec90:	0e000cac 	jal	0x80032b0
    ec94:	02402021 	move	a0,s2
    ec98:	0a000f13 	j	0x8003c4c
    ec9c:	00000000 	nop
    eca0:	0a000e20 	j	0x8003880
    eca4:	0000a021 	move	s4,zero
    eca8:	0040f809 	jalr	v0
    ecac:	24040017 	li	a0,23
    ecb0:	0a000dca 	j	0x8003728
    ecb4:	24030001 	li	v1,1
    ecb8:	0040f809 	jalr	v0
    ecbc:	24040016 	li	a0,22
    ecc0:	0a000dca 	j	0x8003728
    ecc4:	24030001 	li	v1,1
    ecc8:	9094004f 	lbu	s4,79(a0)
    eccc:	240dfffe 	li	t5,-2
    ecd0:	028d2824 	and	a1,s4,t5
    ecd4:	a085004f 	sb	a1,79(a0)
    ecd8:	30f90001 	andi	t9,a3,0x1
    ecdc:	13200006 	beqz	t9,0xecf8
    ece0:	3c048008 	lui	a0,0x8008
    ece4:	3c030801 	lui	v1,0x801
    ece8:	90639529 	lbu	v1,-27351(v1)
    ecec:	307f0010 	andi	ra,v1,0x10
    ecf0:	17e00051 	bnez	ra,0xee38
    ecf4:	306800ef 	andi	t0,v1,0xef
    ecf8:	34900080 	ori	s0,a0,0x80
    ecfc:	240a0001 	li	t2,1
    ed00:	02402021 	move	a0,s2
    ed04:	0e0015e5 	jal	0x8005794
    ed08:	a60a0012 	sh	t2,18(s0)
    ed0c:	92030025 	lbu	v1,37(s0)
    ed10:	24090001 	li	t1,1
    ed14:	afa90050 	sw	t1,80(sp)
    ed18:	34620001 	ori	v0,v1,0x1
    ed1c:	02402021 	move	a0,s2
    ed20:	0e0015ef 	jal	0x80057bc
    ed24:	a2020025 	sb	v0,37(s0)
    ed28:	0a000ef9 	j	0x8003be4
    ed2c:	3c0d8008 	lui	t5,0x8008
    ed30:	1160fe83 	beqz	t3,0xe740
    ed34:	00001821 	move	v1,zero
    ed38:	8fa50030 	lw	a1,48(sp)
    ed3c:	30ac0004 	andi	t4,a1,0x4
    ed40:	1180fe2c 	beqz	t4,0xe5f4
    ed44:	8fbf0084 	lw	ra,132(sp)
    ed48:	0a000dcb 	j	0x800372c
    ed4c:	24030001 	li	v1,1
    ed50:	27a50038 	addiu	a1,sp,56
    ed54:	0e000cb6 	jal	0x80032d8
    ed58:	afa00038 	sw	zero,56(sp)
    ed5c:	5440ff43 	bnezl	v0,0xea6c
    ed60:	8ee20004 	lw	v0,4(s7)
    ed64:	8fb40038 	lw	s4,56(sp)
    ed68:	32900100 	andi	s0,s4,0x100
    ed6c:	5200ff3f 	beqzl	s0,0xea6c
    ed70:	8ee20004 	lw	v0,4(s7)
    ed74:	8fa3003c 	lw	v1,60(sp)
    ed78:	8e6e0058 	lw	t6,88(s3)
    ed7c:	006e6823 	subu	t5,v1,t6
    ed80:	05a3ff39 	bgezl	t5,0xea68
    ed84:	ae630058 	sw	v1,88(s3)
    ed88:	0a000e94 	j	0x8003a50
    ed8c:	8ee20004 	lw	v0,4(s7)
    ed90:	0e0015e5 	jal	0x8005794
    ed94:	02402021 	move	a0,s2
    ed98:	3c038008 	lui	v1,0x8008
    ed9c:	34680080 	ori	t0,v1,0x80
    eda0:	02402021 	move	a0,s2
    eda4:	0e0015ef 	jal	0x80057bc
    eda8:	a11e0009 	sb	s8,9(t0)
    edac:	03c03021 	move	a2,s8
    edb0:	24040037 	li	a0,55
    edb4:	0e001689 	jal	0x8005a24
    edb8:	00002821 	move	a1,zero
    edbc:	0a000f11 	j	0x8003c44
    edc0:	8fa90050 	lw	t1,80(sp)
    edc4:	8fab0018 	lw	t3,24(sp)
    edc8:	5960ff8d 	blezl	t3,0xec00
    edcc:	3c0d8008 	lui	t5,0x8008
    edd0:	0e0015e5 	jal	0x8005794
    edd4:	02402021 	move	a0,s2
    edd8:	920c0025 	lbu	t4,37(s0)
    eddc:	24050001 	li	a1,1
    ede0:	afa50050 	sw	a1,80(sp)
    ede4:	35820004 	ori	v0,t4,0x4
    ede8:	02402021 	move	a0,s2
    edec:	0e0015ef 	jal	0x80057bc
    edf0:	a2020025 	sb	v0,37(s0)
    edf4:	0a000ef9 	j	0x8003be4
    edf8:	3c0d8008 	lui	t5,0x8008
    edfc:	12240059 	beq	s1,a0,0xef64
    ee00:	2a230015 	slti	v1,s1,21
    ee04:	1060004d 	beqz	v1,0xef3c
    ee08:	24090016 	li	t1,22
    ee0c:	2408000c 	li	t0,12
    ee10:	5628ff27 	bnel	s1,t0,0xeab0
    ee14:	32b00001 	andi	s0,s5,0x1
    ee18:	3c0a8008 	lui	t2,0x8008
    ee1c:	914c001b 	lbu	t4,27(t2)
    ee20:	2406ffbd 	li	a2,-67
    ee24:	241e000e 	li	s8,14
    ee28:	01865824 	and	t3,t4,a2
    ee2c:	a14b001b 	sb	t3,27(t2)
    ee30:	0a000ea5 	j	0x8003a94
    ee34:	32b00001 	andi	s0,s5,0x1
    ee38:	3c010801 	lui	at,0x801
    ee3c:	a0289529 	sb	t0,-27351(at)
    ee40:	0a000ef9 	j	0x8003be4
    ee44:	3c0d8008 	lui	t5,0x8008
    ee48:	8cb50030 	lw	s5,48(a1)
    ee4c:	8efe0008 	lw	s8,8(s7)
    ee50:	24040018 	li	a0,24
    ee54:	26b60001 	addiu	s6,s5,1
    ee58:	03c0f809 	jalr	s8
    ee5c:	acb60030 	sw	s6,48(a1)
    ee60:	3c030801 	lui	v1,0x801
    ee64:	90639529 	lbu	v1,-27351(v1)
    ee68:	30770001 	andi	s7,v1,0x1
    ee6c:	16e0ff81 	bnez	s7,0xec74
    ee70:	306a0001 	andi	t2,v1,0x1
    ee74:	8fb20030 	lw	s2,48(sp)
    ee78:	0a000d75 	j	0x80035d4
    ee7c:	32430004 	andi	v1,s2,0x4
    ee80:	3c108000 	lui	s0,0x8000
    ee84:	9605011a 	lhu	a1,282(s0)
    ee88:	50a0ff2b 	beqzl	a1,0xeb38
    ee8c:	34c60010 	ori	a2,a2,0x10
    ee90:	0a000ec8 	j	0x8003b20
    ee94:	92ee000c 	lbu	t6,12(s7)
    ee98:	8c620000 	lw	v0,0(v1)
    ee9c:	1456ff6d 	bne	v0,s6,0xec54
    eea0:	00000000 	nop
    eea4:	8c780004 	lw	t8,4(v1)
    eea8:	8fb90054 	lw	t9,84(sp)
    eeac:	03388823 	subu	s1,t9,t8
    eeb0:	0621ff63 	bgez	s1,0xec40
    eeb4:	8fbf0054 	lw	ra,84(sp)
    eeb8:	0a000f0e 	j	0x8003c38
    eebc:	00000000 	nop
    eec0:	3c010801 	lui	at,0x801
    eec4:	a02a9529 	sb	t2,-27351(at)
    eec8:	0a000f30 	j	0x8003cc0
    eecc:	30f90001 	andi	t9,a3,0x1
    eed0:	1633ff02 	bne	s1,s3,0xeadc
    eed4:	8faf0024 	lw	t7,36(sp)
    eed8:	0a000eb0 	j	0x8003ac0
    eedc:	241e0010 	li	s8,16
    eee0:	0e0015e5 	jal	0x8005794
    eee4:	02402021 	move	a0,s2
    eee8:	3c0b8008 	lui	t3,0x8008
    eeec:	35680080 	ori	t0,t3,0x80
    eef0:	91090025 	lbu	t1,37(t0)
    eef4:	240a0001 	li	t2,1
    eef8:	afaa0050 	sw	t2,80(sp)
    eefc:	35330004 	ori	s3,t1,0x4
    ef00:	02402021 	move	a0,s2
    ef04:	0e0015ef 	jal	0x80057bc
    ef08:	a1130025 	sb	s3,37(t0)
    ef0c:	3c050801 	lui	a1,0x801
    ef10:	90a59529 	lbu	a1,-27351(a1)
    ef14:	30a200fd 	andi	v0,a1,0xfd
    ef18:	3c010801 	lui	at,0x801
    ef1c:	a0229529 	sb	v0,-27351(at)
    ef20:	0a000e6d 	j	0x80039b4
    ef24:	00401821 	move	v1,v0
    ef28:	2411000e 	li	s1,14
    ef2c:	53d1feea 	beql	s8,s1,0xead8
    ef30:	241e0010 	li	s8,16
    ef34:	0a000eaf 	j	0x8003abc
    ef38:	241e0016 	li	s8,22
    ef3c:	5629fedc 	bnel	s1,t1,0xeab0
    ef40:	32b00001 	andi	s0,s5,0x1
    ef44:	3c0a8008 	lui	t2,0x8008
    ef48:	914c001b 	lbu	t4,27(t2)
    ef4c:	2406ffbd 	li	a2,-67
    ef50:	241e0010 	li	s8,16
    ef54:	01865824 	and	t3,t4,a2
    ef58:	a14b001b 	sb	t3,27(t2)
    ef5c:	0a000ea5 	j	0x8003a94
    ef60:	32b00001 	andi	s0,s5,0x1
    ef64:	0a000ea4 	j	0x8003a90
    ef68:	241e0012 	li	s8,18
    ef6c:	3c038000 	lui	v1,0x8000
    ef70:	8c6201b8 	lw	v0,440(v1)
    ef74:	0440fffe 	bltz	v0,0xef70
    ef78:	24040800 	li	a0,2048
    ef7c:	ac6401b8 	sw	a0,440(v1)
    ef80:	03e00008 	jr	ra
    ef84:	00000000 	nop
    ef88:	00805021 	move	t2,a0
    ef8c:	30a5ffff 	andi	a1,a1,0xffff
    ef90:	30c6ffff 	andi	a2,a2,0xffff
    ef94:	3c048000 	lui	a0,0x8000
    ef98:	8c8201b8 	lw	v0,440(a0)
    ef9c:	0440fffe 	bltz	v0,0xef98
    efa0:	34880180 	ori	t0,a0,0x180
    efa4:	ad0a0000 	sw	t2,0(t0)
    efa8:	3c078008 	lui	a3,0x8008
    efac:	ac8a0020 	sw	t2,32(a0)
    efb0:	94e30048 	lhu	v1,72(a3)
    efb4:	3067ffff 	andi	a3,v1,0xffff
    efb8:	10e00042 	beqz	a3,0xf0c4
    efbc:	3c0d8000 	lui	t5,0x8000
    efc0:	24ab0012 	addiu	t3,a1,18
    efc4:	00eb482b 	sltu	t1,a3,t3
    efc8:	5120003f 	beqzl	t1,0xf0c8
    efcc:	24040003 	li	a0,3
    efd0:	34820100 	ori	v0,a0,0x100
    efd4:	94590020 	lhu	t9,32(v0)
    efd8:	8f890000 	lw	t1,0(gp)
    efdc:	2404001a 	li	a0,26
    efe0:	3338ffff 	andi	t8,t9,0xffff
    efe4:	270bfffe 	addiu	t3,t8,-2
    efe8:	00eb782b 	sltu	t7,a3,t3
    efec:	39ee0001 	xori	t6,t7,0x1
    eff0:	00096b82 	srl	t5,t1,0xe
    eff4:	01ae6024 	and	t4,t5,t6
    eff8:	a104000b 	sb	a0,11(t0)
    effc:	51800049 	beqzl	t4,0xf124
    f000:	8f8b0004 	lw	t3,4(gp)
    f004:	8f830004 	lw	v1,4(gp)
    f008:	a50b0014 	sh	t3,20(t0)
    f00c:	34680001 	ori	t0,v1,0x1
    f010:	af880004 	sw	t0,4(gp)
    f014:	30ce0040 	andi	t6,a2,0x40
    f018:	15c00033 	bnez	t6,0xf0e8
    f01c:	3c048000 	lui	a0,0x8000
    f020:	3c028000 	lui	v0,0x8000
    f024:	34420180 	ori	v0,v0,0x180
    f028:	a445000e 	sh	a1,14(v0)
    f02c:	3c078000 	lui	a3,0x8000
    f030:	34ec0180 	ori	t4,a3,0x180
    f034:	a585001a 	sh	a1,26(t4)
    f038:	8f85000c 	lw	a1,12(gp)
    f03c:	310b8000 	andi	t3,t0,0x8000
    f040:	a5890010 	sh	t1,16(t4)
    f044:	ad850028 	sw	a1,40(t4)
    f048:	a5860008 	sh	a2,8(t4)
    f04c:	1160000f 	beqz	t3,0xf08c
    f050:	8f850014 	lw	a1,20(gp)
    f054:	34ea0100 	ori	t2,a3,0x100
    f058:	954e0016 	lhu	t6,22(t2)
    f05c:	31cdfffc 	andi	t5,t6,0xfffc
    f060:	25a40004 	addiu	a0,t5,4
    f064:	00871821 	addu	v1,a0,a3
    f068:	8c674000 	lw	a3,16384(v1)
    f06c:	30e6ffff 	andi	a2,a3,0xffff
    f070:	14c00007 	bnez	a2,0xf090
    f074:	3c048000 	lui	a0,0x8000
    f078:	3c18ffff 	lui	t8,0xffff
    f07c:	370f7fff 	ori	t7,t8,0x7fff
    f080:	010f4024 	and	t0,t0,t7
    f084:	af880004 	sw	t0,4(gp)
    f088:	8f850014 	lw	a1,20(gp)
    f08c:	3c048000 	lui	a0,0x8000
    f090:	2402bfff 	li	v0,-16385
    f094:	34830180 	ori	v1,a0,0x180
    f098:	0102c824 	and	t9,t0,v0
    f09c:	a4790026 	sh	t9,38(v1)
    f0a0:	10a00004 	beqz	a1,0xf0b4
    f0a4:	ac69002c 	sw	t1,44(v1)
    f0a8:	00054402 	srl	t0,a1,0x10
    f0ac:	a4650010 	sh	a1,16(v1)
    f0b0:	a4680026 	sh	t0,38(v1)
    f0b4:	3c091000 	lui	t1,0x1000
    f0b8:	ac8901b8 	sw	t1,440(a0)
    f0bc:	03e00008 	jr	ra
    f0c0:	00000000 	nop
    f0c4:	24040003 	li	a0,3
    f0c8:	35ac0180 	ori	t4,t5,0x180
    f0cc:	30ce0040 	andi	t6,a2,0x40
    f0d0:	8f890000 	lw	t1,0(gp)
    f0d4:	8f880004 	lw	t0,4(gp)
    f0d8:	a184000b 	sb	a0,11(t4)
    f0dc:	51c0ffd1 	beqzl	t6,0xf024
    f0e0:	3c028000 	lui	v0,0x8000
    f0e4:	3c048000 	lui	a0,0x8000
    f0e8:	ac8a0020 	sw	t2,32(a0)
    f0ec:	3c0f8008 	lui	t7,0x8008
    f0f0:	95ea0040 	lhu	t2,64(t7)
    f0f4:	3143ffff 	andi	v1,t2,0xffff
    f0f8:	50600008 	beqzl	v1,0xf11c
    f0fc:	34820180 	ori	v0,a0,0x180
    f100:	00a3c02b 	sltu	t8,a1,v1
    f104:	57000001 	bnezl	t8,0xf10c
    f108:	00a01821 	move	v1,a1
    f10c:	34990180 	ori	t9,a0,0x180
    f110:	a723000e 	sh	v1,14(t9)
    f114:	0a001005 	j	0x8004014
    f118:	3c078000 	lui	a3,0x8000
    f11c:	0a001003 	j	0x800400c
    f120:	30c6ffbf 	andi	a2,a2,0xffbf
    f124:	2407fffe 	li	a3,-2
    f128:	01674024 	and	t0,t3,a3
    f12c:	0a000ffe 	j	0x8003ff8
    f130:	af880004 	sw	t0,4(gp)
    f134:	27bdffe8 	addiu	sp,sp,-24
    f138:	8fa20028 	lw	v0,40(sp)
    f13c:	30a5ffff 	andi	a1,a1,0xffff
    f140:	30c6ffff 	andi	a2,a2,0xffff
    f144:	afbf0010 	sw	ra,16(sp)
    f148:	af87000c 	sw	a3,12(gp)
    f14c:	af820014 	sw	v0,20(gp)
    f150:	af800004 	sw	zero,4(gp)
    f154:	0e000fdb 	jal	0x8003f6c
    f158:	af800000 	sw	zero,0(gp)
    f15c:	8fbf0010 	lw	ra,16(sp)
    f160:	27bd0018 	addiu	sp,sp,24
    f164:	03e00008 	jr	ra
    f168:	af800014 	sw	zero,20(gp)
    f16c:	3c068000 	lui	a2,0x8000
    f170:	34c40070 	ori	a0,a2,0x70
    f174:	34c70100 	ori	a3,a2,0x100
    f178:	8c8a0000 	lw	t2,0(a0)
    f17c:	90e50012 	lbu	a1,18(a3)
    f180:	8f840000 	lw	a0,0(gp)
    f184:	27bdfff0 	addiu	sp,sp,-16
    f188:	30a300ff 	andi	v1,a1,0xff
    f18c:	00031882 	srl	v1,v1,0x2
    f190:	30824000 	andi	v0,a0,0x4000
    f194:	10400037 	beqz	v0,0xf274
    f198:	24650003 	addiu	a1,v1,3
    f19c:	0005c880 	sll	t9,a1,0x2
    f1a0:	0326c021 	addu	t8,t9,a2
    f1a4:	8f0e4000 	lw	t6,16384(t8)
    f1a8:	246f0004 	addiu	t7,v1,4
    f1ac:	000f6880 	sll	t5,t7,0x2
    f1b0:	afae0000 	sw	t6,0(sp)
    f1b4:	01a66021 	addu	t4,t5,a2
    f1b8:	8d8b4000 	lw	t3,16384(t4)
    f1bc:	afab0004 	sw	t3,4(sp)
    f1c0:	94e90016 	lhu	t1,22(a3)
    f1c4:	3128fffc 	andi	t0,t1,0xfffc
    f1c8:	01063821 	addu	a3,t0,a2
    f1cc:	8ce64000 	lw	a2,16384(a3)
    f1d0:	afa60008 	sw	a2,8(sp)
    f1d4:	8fa90008 	lw	t1,8(sp)
    f1d8:	00003021 	move	a2,zero
    f1dc:	00002821 	move	a1,zero
    f1e0:	3c070800 	lui	a3,0x800
    f1e4:	24e70100 	addiu	a3,a3,256
    f1e8:	0a00107e 	j	0x80041f8
    f1ec:	24080008 	li	t0,8
    f1f0:	90590000 	lbu	t9,0(v0)
    f1f4:	24a50001 	addiu	a1,a1,1
    f1f8:	2cac000c 	sltiu	t4,a1,12
    f1fc:	0079c021 	addu	t8,v1,t9
    f200:	00187880 	sll	t7,t8,0x2
    f204:	01e77021 	addu	t6,t7,a3
    f208:	8dcd0000 	lw	t5,0(t6)
    f20c:	11800006 	beqz	t4,0xf228
    f210:	00cd3026 	xor	a2,a2,t5
    f214:	03a51021 	addu	v0,sp,a1
    f218:	14a8fff5 	bne	a1,t0,0xf1f0
    f21c:	00051a00 	sll	v1,a1,0x8
    f220:	5520fff4 	bnezl	t1,0xf1f4
    f224:	90590000 	lbu	t9,0(v0)
    f228:	3c048000 	lui	a0,0x8000
    f22c:	34870070 	ori	a3,a0,0x70
    f230:	3c050800 	lui	a1,0x800
    f234:	8ca53104 	lw	a1,12548(a1)
    f238:	8ce30000 	lw	v1,0(a3)
    f23c:	2ca20020 	sltiu	v0,a1,32
    f240:	10400009 	beqz	v0,0xf268
    f244:	006a3823 	subu	a3,v1,t2
    f248:	00054880 	sll	t1,a1,0x2
    f24c:	3c0b0800 	lui	t3,0x800
    f250:	256b3108 	addiu	t3,t3,12552
    f254:	012b4021 	addu	t0,t1,t3
    f258:	24aa0001 	addiu	t2,a1,1
    f25c:	ad070000 	sw	a3,0(t0)
    f260:	3c010800 	lui	at,0x800
    f264:	ac2a3104 	sw	t2,12548(at)
    f268:	00c01021 	move	v0,a2
    f26c:	03e00008 	jr	ra
    f270:	27bd0010 	addiu	sp,sp,16
    f274:	30822000 	andi	v0,a0,0x2000
    f278:	1040000b 	beqz	v0,0xf2a8
    f27c:	00055880 	sll	t3,a1,0x2
    f280:	01664821 	addu	t1,t3,a2
    f284:	8d244000 	lw	a0,16384(t1)
    f288:	24680004 	addiu	t0,v1,4
    f28c:	00083880 	sll	a3,t0,0x2
    f290:	afa40000 	sw	a0,0(sp)
    f294:	00e61821 	addu	v1,a3,a2
    f298:	8c654000 	lw	a1,16384(v1)
    f29c:	afa00008 	sw	zero,8(sp)
    f2a0:	0a00106e 	j	0x80041b8
    f2a4:	afa50004 	sw	a1,4(sp)
    f2a8:	0000000d 	break
    f2ac:	0a00106f 	j	0x80041bc
    f2b0:	8fa90008 	lw	t1,8(sp)
    f2b4:	27bdffd8 	addiu	sp,sp,-40
    f2b8:	3c058000 	lui	a1,0x8000
    f2bc:	afb10014 	sw	s1,20(sp)
    f2c0:	afb00010 	sw	s0,16(sp)
    f2c4:	afbf0024 	sw	ra,36(sp)
    f2c8:	afb40020 	sw	s4,32(sp)
    f2cc:	afb3001c 	sw	s3,28(sp)
    f2d0:	afb20018 	sw	s2,24(sp)
    f2d4:	8f870000 	lw	a3,0(gp)
    f2d8:	34a40100 	ori	a0,a1,0x100
    f2dc:	9483000e 	lhu	v1,14(a0)
    f2e0:	30e24000 	andi	v0,a3,0x4000
    f2e4:	00008021 	move	s0,zero
    f2e8:	10400010 	beqz	v0,0xf32c
    f2ec:	3071ffff 	andi	s1,v1,0xffff
    f2f0:	3c080020 	lui	t0,0x20
    f2f4:	00e83024 	and	a2,a3,t0
    f2f8:	10c0000d 	beqz	a2,0xf330
    f2fc:	30eb8000 	andi	t3,a3,0x8000
    f300:	8f890004 	lw	t1,4(gp)
    f304:	240abfff 	li	t2,-16385
    f308:	00ea3824 	and	a3,a3,t2
    f30c:	35231000 	ori	v1,t1,0x1000
    f310:	af870000 	sw	a3,0(gp)
    f314:	30f32000 	andi	s3,a3,0x2000
    f318:	1660000b 	bnez	s3,0xf348
    f31c:	3c180004 	lui	t8,0x4
    f320:	2419ffbf 	li	t9,-65
    f324:	0a0010cf 	j	0x800433c
    f328:	00791024 	and	v0,v1,t9
    f32c:	30eb8000 	andi	t3,a3,0x8000
    f330:	1560004d 	bnez	t3,0xf468
    f334:	3c0d0020 	lui	t5,0x20
    f338:	30f32000 	andi	s3,a3,0x2000
    f33c:	1260fff8 	beqz	s3,0xf320
    f340:	8f830004 	lw	v1,4(gp)
    f344:	3c180004 	lui	t8,0x4
    f348:	00f8a024 	and	s4,a3,t8
    f34c:	1280fff5 	beqz	s4,0xf324
    f350:	2419ffbf 	li	t9,-65
    f354:	34620040 	ori	v0,v1,0x40
    f358:	30ff0100 	andi	ra,a3,0x100
    f35c:	13e00010 	beqz	ra,0xf3a0
    f360:	af820004 	sw	v0,4(gp)
    f364:	8f820028 	lw	v0,40(gp)
    f368:	10400006 	beqz	v0,0xf384
    f36c:	3c0e8000 	lui	t6,0x8000
    f370:	3c040020 	lui	a0,0x20
    f374:	00e41824 	and	v1,a3,a0
    f378:	146000ce 	bnez	v1,0xf6b4
    f37c:	3c060004 	lui	a2,0x4
    f380:	3c0e8000 	lui	t6,0x8000
    f384:	35cd0100 	ori	t5,t6,0x100
    f388:	95ac001e 	lhu	t4,30(t5)
    f38c:	95ab001c 	lhu	t3,28(t5)
    f390:	3189ffff 	andi	t1,t4,0xffff
    f394:	000b5400 	sll	t2,t3,0x10
    f398:	012a4025 	or	t0,t1,t2
    f39c:	af88000c 	sw	t0,12(gp)
    f3a0:	3c138000 	lui	s3,0x8000
    f3a4:	36740100 	ori	s4,s3,0x100
    f3a8:	9692000c 	lhu	s2,12(s4)
    f3ac:	8e634000 	lw	v1,16384(s3)
    f3b0:	340fffff 	li	t7,0xffff
    f3b4:	106f0084 	beq	v1,t7,0xf5c8
    f3b8:	3244ffff 	andi	a0,s2,0xffff
    f3bc:	30780100 	andi	t8,v1,0x100
    f3c0:	57000001 	bnezl	t8,0xf3c8
    f3c4:	24100010 	li	s0,16
    f3c8:	30f91000 	andi	t9,a3,0x1000
    f3cc:	53200008 	beqzl	t9,0xf3f0
    f3d0:	36120001 	ori	s2,s0,0x1
    f3d4:	30ff0020 	andi	ra,a3,0x20
    f3d8:	17e00073 	bnez	ra,0xf5a8
    f3dc:	3c031000 	lui	v1,0x1000
    f3e0:	00e31024 	and	v0,a3,v1
    f3e4:	1440006a 	bnez	v0,0xf590
    f3e8:	3c0a0c00 	lui	t2,0xc00
    f3ec:	36120001 	ori	s2,s0,0x1
    f3f0:	30ec0100 	andi	t4,a3,0x100
    f3f4:	1580000b 	bnez	t4,0xf424
    f3f8:	3c060001 	lui	a2,0x1
    f3fc:	8f880004 	lw	t0,4(gp)
    f400:	310d4000 	andi	t5,t0,0x4000
    f404:	15a00008 	bnez	t5,0xf428
    f408:	00e62824 	and	a1,a3,a2
    f40c:	3c131f01 	lui	s3,0x1f01
    f410:	00f37824 	and	t7,a3,s3
    f414:	3c0e1000 	lui	t6,0x1000
    f418:	11ee00ae 	beq	t7,t6,0xf6d4
    f41c:	30940200 	andi	s4,a0,0x200
    f420:	3c060001 	lui	a2,0x1
    f424:	00e62824 	and	a1,a3,a2
    f428:	10a00019 	beqz	a1,0xf490
    f42c:	3c191000 	lui	t9,0x1000
    f430:	3c040800 	lui	a0,0x800
    f434:	8c840024 	lw	a0,36(a0)
    f438:	30940002 	andi	s4,a0,0x2
    f43c:	168000d9 	bnez	s4,0xf7a4
    f440:	24030001 	li	v1,1
    f444:	8fbf0024 	lw	ra,36(sp)
    f448:	8fb40020 	lw	s4,32(sp)
    f44c:	8fb3001c 	lw	s3,28(sp)
    f450:	8fb20018 	lw	s2,24(sp)
    f454:	8fb10014 	lw	s1,20(sp)
    f458:	8fb00010 	lw	s0,16(sp)
    f45c:	00601021 	move	v0,v1
    f460:	03e00008 	jr	ra
    f464:	27bd0028 	addiu	sp,sp,40
    f468:	00ed6024 	and	t4,a3,t5
    f46c:	1180ffb3 	beqz	t4,0xf33c
    f470:	30f32000 	andi	s3,a3,0x2000
    f474:	8f8e0004 	lw	t6,4(gp)
    f478:	3c12ffff 	lui	s2,0xffff
    f47c:	364f7fff 	ori	t7,s2,0x7fff
    f480:	00ef3824 	and	a3,a3,t7
    f484:	35c38000 	ori	v1,t6,0x8000
    f488:	0a0010be 	j	0x80042f8
    f48c:	af870000 	sw	a3,0(gp)
    f490:	00f9c024 	and	t8,a3,t9
    f494:	1700004e 	bnez	t8,0xf5d0
    f498:	00002021 	move	a0,zero
    f49c:	af800010 	sw	zero,16(gp)
    f4a0:	3c038000 	lui	v1,0x8000
    f4a4:	34650100 	ori	a1,v1,0x100
    f4a8:	94ae000e 	lhu	t6,14(a1)
    f4ac:	8f910010 	lw	s1,16(gp)
    f4b0:	31caffff 	andi	t2,t6,0xffff
    f4b4:	108000c6 	beqz	a0,0xf7d0
    f4b8:	25530004 	addiu	s3,t2,4
    f4bc:	30ef0100 	andi	t7,a3,0x100
    f4c0:	15e00070 	bnez	t7,0xf684
    f4c4:	3c180f00 	lui	t8,0xf00
    f4c8:	3a280002 	xori	t0,s1,0x2
    f4cc:	2e7003ef 	sltiu	s0,s3,1007
    f4d0:	2d190001 	sltiu	t9,t0,1
    f4d4:	3a1f0001 	xori	ra,s0,0x1
    f4d8:	033f2824 	and	a1,t9,ra
    f4dc:	14a00022 	bnez	a1,0xf568
    f4e0:	24040001 	li	a0,1
    f4e4:	3c030800 	lui	v1,0x800
    f4e8:	8c6300d0 	lw	v1,208(v1)
    f4ec:	2e25000c 	sltiu	a1,s1,12
    f4f0:	001121c0 	sll	a0,s1,0x7
    f4f4:	386c0001 	xori	t4,v1,0x1
    f4f8:	2d8b0001 	sltiu	t3,t4,1
    f4fc:	01651024 	and	v0,t3,a1
    f500:	14400014 	bnez	v0,0xf554
    f504:	3270ffff 	andi	s0,s3,0xffff
    f508:	262dfffc 	addiu	t5,s1,-4
    f50c:	2da40004 	sltiu	a0,t5,4
    f510:	14800103 	bnez	a0,0xf920
    f514:	00002021 	move	a0,zero
    f518:	386a0002 	xori	t2,v1,0x2
    f51c:	2d460001 	sltiu	a2,t2,1
    f520:	00c51824 	and	v1,a2,a1
    f524:	546000ff 	bnezl	v1,0xf924
    f528:	02002821 	move	a1,s0
    f52c:	262ffff8 	addiu	t7,s1,-8
    f530:	2dee0004 	sltiu	t6,t7,4
    f534:	15c00007 	bnez	t6,0xf554
    f538:	00000000 	nop
    f53c:	0007a242 	srl	s4,a3,0x9
    f540:	0011c02b 	sltu	t8,zero,s1
    f544:	02984824 	and	t1,s4,t8
    f548:	15200109 	bnez	t1,0xf970
    f54c:	02002821 	move	a1,s0
    f550:	001121c0 	sll	a0,s1,0x7
    f554:	02002821 	move	a1,s0
    f558:	36460002 	ori	a2,s2,0x2
    f55c:	0e000fdb 	jal	0x8003f6c
    f560:	00000000 	nop
    f564:	00002021 	move	a0,zero
    f568:	00801821 	move	v1,a0
    f56c:	8fbf0024 	lw	ra,36(sp)
    f570:	8fb40020 	lw	s4,32(sp)
    f574:	8fb3001c 	lw	s3,28(sp)
    f578:	8fb20018 	lw	s2,24(sp)
    f57c:	8fb10014 	lw	s1,20(sp)
    f580:	8fb00010 	lw	s0,16(sp)
    f584:	00601021 	move	v0,v1
    f588:	03e00008 	jr	ra
    f58c:	27bd0028 	addiu	sp,sp,40
    f590:	3c090bff 	lui	t1,0xbff
    f594:	00ea4024 	and	t0,a3,t2
    f598:	3526ffff 	ori	a2,t1,0xffff
    f59c:	00c8282b 	sltu	a1,a2,t0
    f5a0:	50a0ff93 	beqzl	a1,0xf3f0
    f5a4:	36120001 	ori	s2,s0,0x1
    f5a8:	3c0b0800 	lui	t3,0x800
    f5ac:	8d6b002c 	lw	t3,44(t3)
    f5b0:	36120005 	ori	s2,s0,0x5
    f5b4:	25700001 	addiu	s0,t3,1
    f5b8:	3c010800 	lui	at,0x800
    f5bc:	ac30002c 	sw	s0,44(at)
    f5c0:	0a0010f6 	j	0x80043d8
    f5c4:	30ec0100 	andi	t4,a3,0x100
    f5c8:	0a0010eb 	j	0x80043ac
    f5cc:	24100020 	li	s0,32
    f5d0:	00071602 	srl	v0,a3,0x18
    f5d4:	305f000f 	andi	ra,v0,0xf
    f5d8:	001f80c0 	sll	s0,ra,0x3
    f5dc:	3c030801 	lui	v1,0x801
    f5e0:	24639478 	addiu	v1,v1,-27528
    f5e4:	02032021 	addu	a0,s0,v1
    f5e8:	1080ffad 	beqz	a0,0xf4a0
    f5ec:	af9f0010 	sw	ra,16(gp)
    f5f0:	90880000 	lbu	t0,0(a0)
    f5f4:	5100ffab 	beqzl	t0,0xf4a4
    f5f8:	3c038000 	lui	v1,0x8000
    f5fc:	3c0d8000 	lui	t5,0x8000
    f600:	35a90100 	ori	t1,t5,0x100
    f604:	952c000e 	lhu	t4,14(t1)
    f608:	240b0003 	li	t3,3
    f60c:	02403021 	move	a2,s2
    f610:	318affff 	andi	t2,t4,0xffff
    f614:	25450004 	addiu	a1,t2,4
    f618:	110b00d9 	beq	t0,t3,0xf980
    f61c:	00005021 	move	t2,zero
    f620:	90880001 	lbu	t0,1(a0)
    f624:	24140002 	li	s4,2
    f628:	311100ff 	andi	s1,t0,0xff
    f62c:	123400bf 	beq	s1,s4,0xf92c
    f630:	30f80040 	andi	t8,a3,0x40
    f634:	310300ff 	andi	v1,t0,0xff
    f638:	24080001 	li	t0,1
    f63c:	106800c8 	beq	v1,t0,0xf960
    f640:	30e20040 	andi	v0,a3,0x40
    f644:	8c8a0004 	lw	t2,4(a0)
    f648:	8f8b0024 	lw	t3,36(gp)
    f64c:	55600006 	bnezl	t3,0xf668
    f650:	34c60002 	ori	a2,a2,0x2
    f654:	254dfe00 	addiu	t5,t2,-512
    f658:	2dac0381 	sltiu	t4,t5,897
    f65c:	55800001 	bnezl	t4,0xf664
    f660:	36460040 	ori	a2,s2,0x40
    f664:	34c60002 	ori	a2,a2,0x2
    f668:	01402021 	move	a0,t2
    f66c:	30a5ffff 	andi	a1,a1,0xffff
    f670:	0e000fdb 	jal	0x8003f6c
    f674:	30c6ffff 	andi	a2,a2,0xffff
    f678:	00004021 	move	t0,zero
    f67c:	0a00110a 	j	0x8004428
    f680:	01001821 	move	v1,t0
    f684:	00f8a024 	and	s4,a3,t8
    f688:	3c090200 	lui	t1,0x200
    f68c:	1289ff8f 	beq	s4,t1,0xf4cc
    f690:	3a280002 	xori	t0,s1,0x2
    f694:	90b10013 	lbu	s1,19(a1)
    f698:	3270ffff 	andi	s0,s3,0xffff
    f69c:	02002821 	move	a1,s0
    f6a0:	322700ff 	andi	a3,s1,0xff
    f6a4:	24f30004 	addiu	s3,a3,4
    f6a8:	001321c0 	sll	a0,s3,0x7
    f6ac:	0a001150 	j	0x8004540
    f6b0:	36460002 	ori	a2,s2,0x2
    f6b4:	00e62824 	and	a1,a3,a2
    f6b8:	14a0ff32 	bnez	a1,0xf384
    f6bc:	3c0e8000 	lui	t6,0x8000
    f6c0:	0e001054 	jal	0x8004150
    f6c4:	3c138000 	lui	s3,0x8000
    f6c8:	8f870000 	lw	a3,0(gp)
    f6cc:	0a0010e2 	j	0x8004388
    f6d0:	af82000c 	sw	v0,12(gp)
    f6d4:	1680ff53 	bnez	s4,0xf424
    f6d8:	3c060001 	lui	a2,0x1
    f6dc:	26240004 	addiu	a0,s1,4
    f6e0:	3085ffff 	andi	a1,a0,0xffff
    f6e4:	36460002 	ori	a2,s2,0x2
    f6e8:	3c038000 	lui	v1,0x8000
    f6ec:	8c7101b8 	lw	s1,440(v1)
    f6f0:	0620fffe 	bltz	s1,0xf6ec
    f6f4:	8f890008 	lw	t1,8(gp)
    f6f8:	346a0180 	ori	t2,v1,0x180
    f6fc:	ad400000 	sw	zero,0(t2)
    f700:	112000b2 	beqz	t1,0xf9cc
    f704:	3c0d8000 	lui	t5,0x8000
    f708:	24b80012 	addiu	t8,a1,18
    f70c:	0138902b 	sltu	s2,t1,t8
    f710:	124000af 	beqz	s2,0xf9d0
    f714:	240c0003 	li	t4,3
    f718:	34700100 	ori	s0,v1,0x100
    f71c:	96030020 	lhu	v1,32(s0)
    f720:	2402001a 	li	v0,26
    f724:	30f94000 	andi	t9,a3,0x4000
    f728:	307fffff 	andi	ra,v1,0xffff
    f72c:	a142000b 	sb	v0,11(t2)
    f730:	132000ab 	beqz	t9,0xf9e0
    f734:	27e3fffe 	addiu	v1,ra,-2
    f738:	0123582b 	sltu	t3,t1,v1
    f73c:	156000a9 	bnez	t3,0xf9e4
    f740:	2409fffe 	li	t1,-2
    f744:	35080001 	ori	t0,t0,0x1
    f748:	a5430014 	sh	v1,20(t2)
    f74c:	af880004 	sw	t0,4(gp)
    f750:	3c0e8000 	lui	t6,0x8000
    f754:	2413bfff 	li	s3,-16385
    f758:	01137824 	and	t7,t0,s3
    f75c:	35c80180 	ori	t0,t6,0x180
    f760:	a505000e 	sh	a1,14(t0)
    f764:	a505001a 	sh	a1,26(t0)
    f768:	a5060008 	sh	a2,8(t0)
    f76c:	a50f0026 	sh	t7,38(t0)
    f770:	a5070010 	sh	a3,16(t0)
    f774:	3c071000 	lui	a3,0x1000
    f778:	adc701b8 	sw	a3,440(t6)
    f77c:	00001821 	move	v1,zero
    f780:	8fbf0024 	lw	ra,36(sp)
    f784:	8fb40020 	lw	s4,32(sp)
    f788:	8fb3001c 	lw	s3,28(sp)
    f78c:	8fb20018 	lw	s2,24(sp)
    f790:	8fb10014 	lw	s1,20(sp)
    f794:	8fb00010 	lw	s0,16(sp)
    f798:	00601021 	move	v0,v1
    f79c:	03e00008 	jr	ra
    f7a0:	27bd0028 	addiu	sp,sp,40
    f7a4:	3c120800 	lui	s2,0x800
    f7a8:	8e5200d8 	lw	s2,216(s2)
    f7ac:	02202821 	move	a1,s1
    f7b0:	24040080 	li	a0,128
    f7b4:	26510001 	addiu	s1,s2,1
    f7b8:	3c010800 	lui	at,0x800
    f7bc:	ac3100d8 	sw	s1,216(at)
    f7c0:	0e000fdb 	jal	0x8003f6c
    f7c4:	24060003 	li	a2,3
    f7c8:	0a0011d9 	j	0x8004764
    f7cc:	00001821 	move	v1,zero
    f7d0:	8c654000 	lw	a1,16384(v1)
    f7d4:	30b10100 	andi	s1,a1,0x100
    f7d8:	12200046 	beqz	s1,0xf8f4
    f7dc:	32590004 	andi	t9,s2,0x4
    f7e0:	3c1f0800 	lui	ra,0x800
    f7e4:	8fff0024 	lw	ra,36(ra)
    f7e8:	24140004 	li	s4,4
    f7ec:	17200002 	bnez	t9,0xf7f8
    f7f0:	33f0000d 	andi	s0,ra,0xd
    f7f4:	24140002 	li	s4,2
    f7f8:	00076ac2 	srl	t5,a3,0xb
    f7fc:	39a40001 	xori	a0,t5,0x1
    f800:	2e6c03ef 	sltiu	t4,s3,1007
    f804:	30820001 	andi	v0,a0,0x1
    f808:	398b0001 	xori	t3,t4,0x1
    f80c:	004b4025 	or	t0,v0,t3
    f810:	11000003 	beqz	t0,0xf820
    f814:	3251fffb 	andi	s1,s2,0xfffb
    f818:	2412fffb 	li	s2,-5
    f81c:	02128024 	and	s0,s0,s2
    f820:	30e30100 	andi	v1,a3,0x100
    f824:	50600015 	beqzl	v1,0xf87c
    f828:	321f0001 	andi	ra,s0,0x1
    f82c:	3c0a0f00 	lui	t2,0xf00
    f830:	00ea3024 	and	a2,a3,t2
    f834:	3c070200 	lui	a3,0x200
    f838:	10c7000f 	beq	a2,a3,0xf878
    f83c:	3c198000 	lui	t9,0x8000
    f840:	37250100 	ori	a1,t9,0x100
    f844:	90a90013 	lbu	t1,19(a1)
    f848:	2418fffe 	li	t8,-2
    f84c:	02188024 	and	s0,s0,t8
    f850:	312f00ff 	andi	t7,t1,0xff
    f854:	25ee0004 	addiu	t6,t7,4
    f858:	000e21c0 	sll	a0,t6,0x7
    f85c:	12000002 	beqz	s0,0xf868
    f860:	02343025 	or	a2,s1,s4
    f864:	3226ffff 	andi	a2,s1,0xffff
    f868:	0e000fdb 	jal	0x8003f6c
    f86c:	3265ffff 	andi	a1,s3,0xffff
    f870:	1200ff3d 	beqz	s0,0xf568
    f874:	00002021 	move	a0,zero
    f878:	321f0001 	andi	ra,s0,0x1
    f87c:	13e0000d 	beqz	ra,0xf8b4
    f880:	320b0004 	andi	t3,s0,0x4
    f884:	24080001 	li	t0,1
    f888:	12080002 	beq	s0,t0,0xf894
    f88c:	02343025 	or	a2,s1,s4
    f890:	3226ffff 	andi	a2,s1,0xffff
    f894:	00002021 	move	a0,zero
    f898:	0e000fdb 	jal	0x8003f6c
    f89c:	3265ffff 	andi	a1,s3,0xffff
    f8a0:	2402fffe 	li	v0,-2
    f8a4:	02028024 	and	s0,s0,v0
    f8a8:	1200ff2f 	beqz	s0,0xf568
    f8ac:	00002021 	move	a0,zero
    f8b0:	320b0004 	andi	t3,s0,0x4
    f8b4:	5160000d 	beqzl	t3,0xf8ec
    f8b8:	24040001 	li	a0,1
    f8bc:	02343025 	or	a2,s1,s4
    f8c0:	24140004 	li	s4,4
    f8c4:	56140001 	bnel	s0,s4,0xf8cc
    f8c8:	3226ffff 	andi	a2,s1,0xffff
    f8cc:	2411fffb 	li	s1,-5
    f8d0:	3265ffff 	andi	a1,s3,0xffff
    f8d4:	24040100 	li	a0,256
    f8d8:	0e000fdb 	jal	0x8003f6c
    f8dc:	02119824 	and	s3,s0,s1
    f8e0:	1260ff21 	beqz	s3,0xf568
    f8e4:	00002021 	move	a0,zero
    f8e8:	24040001 	li	a0,1
    f8ec:	0a001154 	j	0x8004550
    f8f0:	00801821 	move	v1,a0
    f8f4:	3c0c0800 	lui	t4,0x800
    f8f8:	8d8c0024 	lw	t4,36(t4)
    f8fc:	31900001 	andi	s0,t4,0x1
    f900:	5200ff19 	beqzl	s0,0xf568
    f904:	00002021 	move	a0,zero
    f908:	3265ffff 	andi	a1,s3,0xffff
    f90c:	36460002 	ori	a2,s2,0x2
    f910:	0e000fdb 	jal	0x8003f6c
    f914:	00002021 	move	a0,zero
    f918:	0a001153 	j	0x800454c
    f91c:	00002021 	move	a0,zero
    f920:	02002821 	move	a1,s0
    f924:	0a001150 	j	0x8004540
    f928:	36460002 	ori	a2,s2,0x2
    f92c:	13000006 	beqz	t8,0xf948
    f930:	00000000 	nop
    f934:	95300010 	lhu	s0,16(t1)
    f938:	949f0002 	lhu	ra,2(a0)
    f93c:	32190fff 	andi	t9,s0,0xfff
    f940:	13f9ff3d 	beq	ra,t9,0xf638
    f944:	310300ff 	andi	v1,t0,0xff
    f948:	3c040801 	lui	a0,0x801
    f94c:	90849479 	lbu	a0,-27527(a0)
    f950:	1080ff3d 	beqz	a0,0xf648
    f954:	24080001 	li	t0,1
    f958:	0a00110a 	j	0x8004428
    f95c:	01001821 	move	v1,t0
    f960:	5040ff39 	beqzl	v0,0xf648
    f964:	8c8a0004 	lw	t2,4(a0)
    f968:	0a00124b 	j	0x800492c
    f96c:	00000000 	nop
    f970:	0e000fdb 	jal	0x8003f6c
    f974:	3246fffb 	andi	a2,s2,0xfffb
    f978:	0a00114e 	j	0x8004538
    f97c:	001121c0 	sll	a0,s1,0x7
    f980:	90830001 	lbu	v1,1(a0)
    f984:	240e0001 	li	t6,1
    f988:	106eff3c 	beq	v1,t6,0xf67c
    f98c:	24080001 	li	t0,1
    f990:	240f0002 	li	t7,2
    f994:	106f0004 	beq	v1,t7,0xf9a8
    f998:	30f30040 	andi	s3,a3,0x40
    f99c:	24080001 	li	t0,1
    f9a0:	0a00110a 	j	0x8004428
    f9a4:	01001821 	move	v1,t0
    f9a8:	5260fffd 	beqzl	s3,0xf9a0
    f9ac:	24080001 	li	t0,1
    f9b0:	95250010 	lhu	a1,16(t1)
    f9b4:	94870002 	lhu	a3,2(a0)
    f9b8:	30a9ffff 	andi	t1,a1,0xffff
    f9bc:	50e9fea1 	beql	a3,t1,0xf444
    f9c0:	01001821 	move	v1,t0
    f9c4:	0a001261 	j	0x8004984
    f9c8:	24080001 	li	t0,1
    f9cc:	240c0003 	li	t4,3
    f9d0:	35aa0180 	ori	t2,t5,0x180
    f9d4:	a14c000b 	sb	t4,11(t2)
    f9d8:	0a0011ce 	j	0x8004738
    f9dc:	3c0e8000 	lui	t6,0x8000
    f9e0:	2409fffe 	li	t1,-2
    f9e4:	0a0011cc 	j	0x8004730
    f9e8:	01094024 	and	t0,t0,t1
    f9ec:	27bdffc0 	addiu	sp,sp,-64
    f9f0:	afb00018 	sw	s0,24(sp)
    f9f4:	afbf003c 	sw	ra,60(sp)
    f9f8:	3c10600c 	lui	s0,0x600c
    f9fc:	afbe0038 	sw	s8,56(sp)
    fa00:	afb70034 	sw	s7,52(sp)
    fa04:	afb60030 	sw	s6,48(sp)
    fa08:	afb5002c 	sw	s5,44(sp)
    fa0c:	afb40028 	sw	s4,40(sp)
    fa10:	afb30024 	sw	s3,36(sp)
    fa14:	afb20020 	sw	s2,32(sp)
    fa18:	afb1001c 	sw	s1,28(sp)
    fa1c:	8e0e5000 	lw	t6,20480(s0)
    fa20:	240fff7f 	li	t7,-129
    fa24:	3c068000 	lui	a2,0x8000
    fa28:	01cf6824 	and	t5,t6,t7
    fa2c:	35ac380c 	ori	t4,t5,0x380c
    fa30:	240b0003 	li	t3,3
    fa34:	ae0c5000 	sw	t4,20480(s0)
    fa38:	accb0008 	sw	t3,8(a2)
    fa3c:	3c010800 	lui	at,0x800
    fa40:	ac200020 	sw	zero,32(at)
    fa44:	0e0017b0 	jal	0x8005ec0
    fa48:	00000000 	nop
    fa4c:	3c0a0010 	lui	t2,0x10
    fa50:	35498051 	ori	t1,t2,0x8051
    fa54:	3c066016 	lui	a2,0x6016
    fa58:	ae09537c 	sw	t1,21372(s0)
    fa5c:	8cc70000 	lw	a3,0(a2)
    fa60:	3c086014 	lui	t0,0x6014
    fa64:	8d0500a0 	lw	a1,160(t0)
    fa68:	3c03ffff 	lui	v1,0xffff
    fa6c:	00e32024 	and	a0,a3,v1
    fa70:	3c025353 	lui	v0,0x5353
    fa74:	00051fc2 	srl	v1,a1,0x1f
    fa78:	1082029b 	beq	a0,v0,0x104e8
    fa7c:	34c57c00 	ori	a1,a2,0x7c00
    fa80:	8cbf007c 	lw	ra,124(a1)
    fa84:	8ca20078 	lw	v0,120(a1)
    fa88:	3c1e6000 	lui	s8,0x6000
    fa8c:	37c42020 	ori	a0,s8,0x2020
    fa90:	3c050801 	lui	a1,0x801
    fa94:	24a590c0 	addiu	a1,a1,-28480
    fa98:	af820018 	sw	v0,24(gp)
    fa9c:	af9f001c 	sw	ra,28(gp)
    faa0:	0e001674 	jal	0x80059d0
    faa4:	2406000a 	li	a2,10
    faa8:	3c190001 	lui	t9,0x1
    faac:	27399478 	addiu	t9,t9,-27528
    fab0:	3c010800 	lui	at,0x800
    fab4:	ac3931dc 	sw	t9,12764(at)
    fab8:	0e00206b 	jal	0x80081ac
    fabc:	af800014 	sw	zero,20(gp)
    fac0:	8fd70808 	lw	s7,2056(s8)
    fac4:	2418fff0 	li	t8,-16
    fac8:	3c155709 	lui	s5,0x5709
    facc:	02f8b024 	and	s6,s7,t8
    fad0:	12d5028b 	beq	s6,s5,0x10500
    fad4:	24040001 	li	a0,1
    fad8:	af800028 	sw	zero,40(gp)
    fadc:	3c148000 	lui	s4,0x8000
    fae0:	36970100 	ori	s7,s4,0x100
    fae4:	02e0f021 	move	s8,s7
    fae8:	8e900000 	lw	s0,0(s4)
    faec:	32050003 	andi	a1,s0,0x3
    faf0:	10a0fffd 	beqz	a1,0xfae8
    faf4:	32070001 	andi	a3,s0,0x1
    faf8:	14e0005d 	bnez	a3,0xfc70
    fafc:	32060002 	andi	a2,s0,0x2
    fb00:	10c0fff9 	beqz	a2,0xfae8
    fb04:	3c078000 	lui	a3,0x8000
    fb08:	34e50140 	ori	a1,a3,0x140
    fb0c:	8cb90000 	lw	t9,0(a1)
    fb10:	24100040 	li	s0,64
    fb14:	acf90020 	sw	t9,32(a3)
    fb18:	90b80008 	lbu	t8,8(a1)
    fb1c:	33030070 	andi	v1,t8,0x70
    fb20:	1070010b 	beq	v1,s0,0xff50
    fb24:	28690041 	slti	t1,v1,65
    fb28:	11200008 	beqz	t1,0xfb4c
    fb2c:	24080060 	li	t0,96
    fb30:	241f0020 	li	ra,32
    fb34:	107f000e 	beq	v1,ra,0xfb70
    fb38:	3c0b4000 	lui	t3,0x4000
    fb3c:	3c068000 	lui	a2,0x8000
    fb40:	accb0178 	sw	t3,376(a2)
    fb44:	0a0012b3 	j	0x8004acc
    fb48:	00000000 	nop
    fb4c:	1468fffb 	bne	v1,t0,0xfb3c
    fb50:	3c0b4000 	lui	t3,0x4000
    fb54:	0e001f88 	jal	0x8007e20
    fb58:	00000000 	nop
    fb5c:	3c0b4000 	lui	t3,0x4000
    fb60:	3c068000 	lui	a2,0x8000
    fb64:	accb0178 	sw	t3,376(a2)
    fb68:	0a0012b3 	j	0x8004acc
    fb6c:	00000000 	nop
    fb70:	90ab0009 	lbu	t3,9(a1)
    fb74:	24110004 	li	s1,4
    fb78:	8ca70000 	lw	a3,0(a1)
    fb7c:	316800ff 	andi	t0,t3,0xff
    fb80:	1111015d 	beq	t0,s1,0x100f8
    fb84:	2512fffa 	addiu	s2,t0,-6
    fb88:	2e530006 	sltiu	s3,s2,6
    fb8c:	12600016 	beqz	s3,0xfbe8
    fb90:	3c068000 	lui	a2,0x8000
    fb94:	8caa0004 	lw	t2,4(a1)
    fb98:	8f860024 	lw	a2,36(gp)
    fb9c:	94a3000a 	lhu	v1,10(a1)
    fba0:	000a3e02 	srl	a3,t2,0x18
    fba4:	310500ff 	andi	a1,t0,0xff
    fba8:	10c00005 	beqz	a2,0xfbc0
    fbac:	3064ffff 	andi	a0,v1,0xffff
    fbb0:	2cec0008 	sltiu	t4,a3,8
    fbb4:	15800002 	bnez	t4,0xfbc0
    fbb8:	24e70004 	addiu	a3,a3,4
    fbbc:	24070003 	li	a3,3
    fbc0:	240e0009 	li	t6,9
    fbc4:	10ae01a1 	beq	a1,t6,0x1024c
    fbc8:	28af000a 	slti	t7,a1,10
    fbcc:	11e00184 	beqz	t7,0x101e0
    fbd0:	2410000a 	li	s0,10
    fbd4:	24040008 	li	a0,8
    fbd8:	10a4001a 	beq	a1,a0,0xfc44
    fbdc:	000749c0 	sll	t1,a3,0x7
    fbe0:	01203821 	move	a3,t1
    fbe4:	3c068000 	lui	a2,0x8000
    fbe8:	8cd001b8 	lw	s0,440(a2)
    fbec:	0600fffe 	bltz	s0,0xfbe8
    fbf0:	34c40180 	ori	a0,a2,0x180
    fbf4:	ac870000 	sw	a3,0(a0)
    fbf8:	34c50140 	ori	a1,a2,0x140
    fbfc:	90b60008 	lbu	s6,8(a1)
    fc00:	24190002 	li	t9,2
    fc04:	3c0b4000 	lui	t3,0x4000
    fc08:	32c200ff 	andi	v0,s6,0xff
    fc0c:	00028a00 	sll	s1,v0,0x8
    fc10:	0228f825 	or	ra,s1,t0
    fc14:	a49f0008 	sh	ra,8(a0)
    fc18:	a099000b 	sb	t9,11(a0)
    fc1c:	94a7000a 	lhu	a3,10(a1)
    fc20:	3c081000 	lui	t0,0x1000
    fc24:	a4870010 	sh	a3,16(a0)
    fc28:	8cb80004 	lw	t8,4(a1)
    fc2c:	ac980024 	sw	t8,36(a0)
    fc30:	acc801b8 	sw	t0,440(a2)
    fc34:	3c068000 	lui	a2,0x8000
    fc38:	accb0178 	sw	t3,376(a2)
    fc3c:	0a0012b3 	j	0x8004acc
    fc40:	00000000 	nop
    fc44:	000ac202 	srl	t8,t2,0x8
    fc48:	330300ff 	andi	v1,t8,0xff
    fc4c:	24050001 	li	a1,1
    fc50:	5465ffe4 	bnel	v1,a1,0xfbe4
    fc54:	01203821 	move	a3,t1
    fc58:	8f990020 	lw	t9,32(gp)
    fc5c:	af830024 	sw	v1,36(gp)
    fc60:	27270001 	addiu	a3,t9,1
    fc64:	af870020 	sw	a3,32(gp)
    fc68:	0a0012f2 	j	0x8004bc8
    fc6c:	01203821 	move	a3,t1
    fc70:	8fd10028 	lw	s1,40(s8)
    fc74:	3c0b8008 	lui	t3,0x8008
    fc78:	ae910020 	sw	s1,32(s4)
    fc7c:	8fc60004 	lw	a2,4(s8)
    fc80:	8fca0000 	lw	t2,0(s8)
    fc84:	95690048 	lhu	t1,72(t3)
    fc88:	af860000 	sw	a2,0(gp)
    fc8c:	af8a0004 	sw	t2,4(gp)
    fc90:	3128ffff 	andi	t0,t1,0xffff
    fc94:	0e000fd4 	jal	0x8003f50
    fc98:	af880008 	sw	t0,8(gp)
    fc9c:	3c030800 	lui	v1,0x800
    fca0:	8c6300c0 	lw	v1,192(v1)
    fca4:	10600025 	beqz	v1,0xfd3c
    fca8:	8f870000 	lw	a3,0(gp)
    fcac:	3c0e0800 	lui	t6,0x800
    fcb0:	8dce00c4 	lw	t6,196(t6)
    fcb4:	25cd0001 	addiu	t5,t6,1
    fcb8:	3c010800 	lui	at,0x800
    fcbc:	ac2d00c4 	sw	t5,196(at)
    fcc0:	3c1f8000 	lui	ra,0x8000
    fcc4:	37e90100 	ori	t1,ra,0x100
    fcc8:	8d390024 	lw	t9,36(t1)
    fccc:	3c076020 	lui	a3,0x6020
    fcd0:	acf90014 	sw	t9,20(a3)
    fcd4:	00000000 	nop
    fcd8:	3c068000 	lui	a2,0x8000
    fcdc:	3c084000 	lui	t0,0x4000
    fce0:	acc80138 	sw	t0,312(a2)
    fce4:	00000000 	nop
    fce8:	5220ff85 	beqzl	s1,0xfb00
    fcec:	32060002 	andi	a2,s0,0x2
    fcf0:	262d0140 	addiu	t5,s1,320
    fcf4:	262e0080 	addiu	t6,s1,128
    fcf8:	2404ff80 	li	a0,-128
    fcfc:	01a42824 	and	a1,t5,a0
    fd00:	01c47824 	and	t7,t6,a0
    fd04:	000f1940 	sll	v1,t7,0x5
    fd08:	31cc007f 	andi	t4,t6,0x7f
    fd0c:	00059940 	sll	s3,a1,0x5
    fd10:	31b2007f 	andi	s2,t5,0x7f
    fd14:	3c152000 	lui	s5,0x2000
    fd18:	36a20002 	ori	v0,s5,0x2
    fd1c:	006c5025 	or	t2,v1,t4
    fd20:	0272b025 	or	s6,s3,s2
    fd24:	02c28825 	or	s1,s6,v0
    fd28:	01425825 	or	t3,t2,v0
    fd2c:	accb0830 	sw	t3,2096(a2)
    fd30:	acd10830 	sw	s1,2096(a2)
    fd34:	0a0012b9 	j	0x8004ae4
    fd38:	32060002 	andi	a2,s0,0x2
    fd3c:	3c120010 	lui	s2,0x10
    fd40:	00f27824 	and	t7,a3,s2
    fd44:	15e00070 	bnez	t7,0xff08
    fd48:	8f830004 	lw	v1,4(gp)
    fd4c:	3c180800 	lui	t8,0x800
    fd50:	8f180020 	lw	t8,32(t8)
    fd54:	97d6000e 	lhu	s6,14(s8)
    fd58:	30f54000 	andi	s5,a3,0x4000
    fd5c:	27130001 	addiu	s3,t8,1
    fd60:	3c010800 	lui	at,0x800
    fd64:	ac330020 	sw	s3,32(at)
    fd68:	00009021 	move	s2,zero
    fd6c:	12a00081 	beqz	s5,0xff74
    fd70:	32d3ffff 	andi	s3,s6,0xffff
    fd74:	3c1f0020 	lui	ra,0x20
    fd78:	00ffc824 	and	t9,a3,ra
    fd7c:	1320007e 	beqz	t9,0xff78
    fd80:	30e58000 	andi	a1,a3,0x8000
    fd84:	8f820004 	lw	v0,4(gp)
    fd88:	2404bfff 	li	a0,-16385
    fd8c:	00e43824 	and	a3,a3,a0
    fd90:	34431000 	ori	v1,v0,0x1000
    fd94:	af870000 	sw	a3,0(gp)
    fd98:	30eb2000 	andi	t3,a3,0x2000
    fd9c:	11600073 	beqz	t3,0xff6c
    fda0:	240effbf 	li	t6,-65
    fda4:	3c0d0004 	lui	t5,0x4
    fda8:	00ed6024 	and	t4,a3,t5
    fdac:	11800002 	beqz	t4,0xfdb8
    fdb0:	006e1024 	and	v0,v1,t6
    fdb4:	34620040 	ori	v0,v1,0x40
    fdb8:	30ef0100 	andi	t7,a3,0x100
    fdbc:	11e00010 	beqz	t7,0xfe00
    fdc0:	af820004 	sw	v0,4(gp)
    fdc4:	8f950028 	lw	s5,40(gp)
    fdc8:	12a00007 	beqz	s5,0xfde8
    fdcc:	3c180020 	lui	t8,0x20
    fdd0:	00f8b024 	and	s6,a3,t8
    fdd4:	12c00004 	beqz	s6,0xfde8
    fdd8:	3c1f0004 	lui	ra,0x4
    fddc:	00ffc824 	and	t9,a3,ra
    fde0:	1320016d 	beqz	t9,0x10398
    fde4:	00000000 	nop
    fde8:	96e3001e 	lhu	v1,30(s7)
    fdec:	96e8001c 	lhu	t0,28(s7)
    fdf0:	3065ffff 	andi	a1,v1,0xffff
    fdf4:	00081400 	sll	v0,t0,0x10
    fdf8:	00a22025 	or	a0,a1,v0
    fdfc:	af84000c 	sw	a0,12(gp)
    fe00:	96ea000c 	lhu	t2,12(s7)
    fe04:	8e844000 	lw	a0,16384(s4)
    fe08:	3409ffff 	li	t1,0xffff
    fe0c:	10890085 	beq	a0,t1,0x10024
    fe10:	3145ffff 	andi	a1,t2,0xffff
    fe14:	30860100 	andi	a2,a0,0x100
    fe18:	54c00001 	bnezl	a2,0xfe20
    fe1c:	24120010 	li	s2,16
    fe20:	30eb1000 	andi	t3,a3,0x1000
    fe24:	11600013 	beqz	t3,0xfe74
    fe28:	36560001 	ori	s6,s2,0x1
    fe2c:	30ec0020 	andi	t4,a3,0x20
    fe30:	1580000a 	bnez	t4,0xfe5c
    fe34:	3c0e1000 	lui	t6,0x1000
    fe38:	00ee6824 	and	t5,a3,t6
    fe3c:	11a0000d 	beqz	t5,0xfe74
    fe40:	3c190c00 	lui	t9,0xc00
    fe44:	3c180bff 	lui	t8,0xbff
    fe48:	00f9b024 	and	s6,a3,t9
    fe4c:	3715ffff 	ori	s5,t8,0xffff
    fe50:	02b6782b 	sltu	t7,s5,s6
    fe54:	11e00007 	beqz	t7,0xfe74
    fe58:	36560001 	ori	s6,s2,0x1
    fe5c:	3c1f0800 	lui	ra,0x800
    fe60:	8fff002c 	lw	ra,44(ra)
    fe64:	36560005 	ori	s6,s2,0x5
    fe68:	27f20001 	addiu	s2,ra,1
    fe6c:	3c010800 	lui	at,0x800
    fe70:	ac32002c 	sw	s2,44(at)
    fe74:	30e40100 	andi	a0,a3,0x100
    fe78:	1480000b 	bnez	a0,0xfea8
    fe7c:	3c060001 	lui	a2,0x1
    fe80:	8f880004 	lw	t0,4(gp)
    fe84:	31024000 	andi	v0,t0,0x4000
    fe88:	54400008 	bnezl	v0,0xfeac
    fe8c:	00e62824 	and	a1,a3,a2
    fe90:	3c0a1f01 	lui	t2,0x1f01
    fe94:	00ea4824 	and	t1,a3,t2
    fe98:	3c031000 	lui	v1,0x1000
    fe9c:	11230109 	beq	t1,v1,0x102c4
    fea0:	30a60200 	andi	a2,a1,0x200
    fea4:	3c060001 	lui	a2,0x1
    fea8:	00e62824 	and	a1,a3,a2
    feac:	10a0003e 	beqz	a1,0xffa8
    feb0:	3c181000 	lui	t8,0x1000
    feb4:	3c0d0800 	lui	t5,0x800
    feb8:	8dad0024 	lw	t5,36(t5)
    febc:	31ac0002 	andi	t4,t5,0x2
    fec0:	15800006 	bnez	t4,0xfedc
    fec4:	24030001 	li	v1,1
    fec8:	00601021 	move	v0,v1
    fecc:	1040ff83 	beqz	v0,0xfcdc
    fed0:	3c068000 	lui	a2,0x8000
    fed4:	0a00132a 	j	0x8004ca8
    fed8:	3c1f8000 	lui	ra,0x8000
    fedc:	3c0f0800 	lui	t7,0x800
    fee0:	8def00d8 	lw	t7,216(t7)
    fee4:	02602821 	move	a1,s3
    fee8:	24040080 	li	a0,128
    feec:	25ee0001 	addiu	t6,t7,1
    fef0:	3c010800 	lui	at,0x800
    fef4:	ac2e00d8 	sw	t6,216(at)
    fef8:	0e000fdb 	jal	0x8003f6c
    fefc:	24060003 	li	a2,3
    ff00:	0a0013ab 	j	0x8004eac
    ff04:	00001821 	move	v1,zero
    ff08:	2405bfff 	li	a1,-16385
    ff0c:	00656824 	and	t5,v1,a1
    ff10:	11a00007 	beqz	t5,0xff30
    ff14:	240f87ff 	li	t7,-30721
    ff18:	006f7024 	and	t6,v1,t7
    ff1c:	15c00008 	bnez	t6,0xff40
    ff20:	3c180060 	lui	t8,0x60
    ff24:	00f82024 	and	a0,a3,t8
    ff28:	10800005 	beqz	a0,0xff40
    ff2c:	00000000 	nop
    ff30:	0e000d42 	jal	0x8003508
    ff34:	00000000 	nop
    ff38:	0a0013ac 	j	0x8004eb0
    ff3c:	00000000 	nop
    ff40:	0e00159c 	jal	0x8005670
    ff44:	00000000 	nop
    ff48:	0a0013ac 	j	0x8004eb0
    ff4c:	00000000 	nop
    ff50:	0e0015f4 	jal	0x80057d0
    ff54:	00000000 	nop
    ff58:	3c0b4000 	lui	t3,0x4000
    ff5c:	3c068000 	lui	a2,0x8000
    ff60:	accb0178 	sw	t3,376(a2)
    ff64:	0a0012b3 	j	0x8004acc
    ff68:	00000000 	nop
    ff6c:	0a001367 	j	0x8004d9c
    ff70:	006e1024 	and	v0,v1,t6
    ff74:	30e58000 	andi	a1,a3,0x8000
    ff78:	10a0ff87 	beqz	a1,0xfd98
    ff7c:	8f830004 	lw	v1,4(gp)
    ff80:	3c080020 	lui	t0,0x20
    ff84:	00e81824 	and	v1,a3,t0
    ff88:	5060ff83 	beqzl	v1,0xfd98
    ff8c:	8f830004 	lw	v1,4(gp)
    ff90:	8f890004 	lw	t1,4(gp)
    ff94:	3c06ffff 	lui	a2,0xffff
    ff98:	34ca7fff 	ori	t2,a2,0x7fff
    ff9c:	00ea3824 	and	a3,a3,t2
    ffa0:	0a00135e 	j	0x8004d78
    ffa4:	35238000 	ori	v1,t1,0x8000
    ffa8:	00f8a824 	and	s5,a3,t8
    ffac:	16a0001f 	bnez	s5,0x1002c
    ffb0:	00004021 	move	t0,zero
    ffb4:	af800010 	sw	zero,16(gp)
    ffb8:	3c038000 	lui	v1,0x8000
    ffbc:	34640100 	ori	a0,v1,0x100
    ffc0:	9486000e 	lhu	a2,14(a0)
    ffc4:	8f930010 	lw	s3,16(gp)
    ffc8:	30c5ffff 	andi	a1,a2,0xffff
    ffcc:	1100014e 	beqz	t0,0x10508
    ffd0:	24b50004 	addiu	s5,a1,4
    ffd4:	30ea0100 	andi	t2,a3,0x100
    ffd8:	11400055 	beqz	t2,0x10130
    ffdc:	3a7f0002 	xori	ra,s3,0x2
    ffe0:	3c0e0f00 	lui	t6,0xf00
    ffe4:	00ee6824 	and	t5,a3,t6
    ffe8:	3c0c0200 	lui	t4,0x200
    ffec:	11ac0051 	beq	t5,t4,0x10134
    fff0:	2eb203ef 	sltiu	s2,s5,1007
    fff4:	908f0013 	lbu	t7,19(a0)
    fff8:	32b2ffff 	andi	s2,s5,0xffff
    fffc:	31e400ff 	andi	a0,t7,0xff
   10000:	24870004 	addiu	a3,a0,4
   10004:	000721c0 	sll	a0,a3,0x7
   10008:	02402821 	move	a1,s2
   1000c:	36c60002 	ori	a2,s6,0x2
   10010:	0e000fdb 	jal	0x8003f6c
   10014:	00000000 	nop
   10018:	00002021 	move	a0,zero
   1001c:	0a0013ab 	j	0x8004eac
   10020:	00801821 	move	v1,a0
   10024:	0a001381 	j	0x8004e04
   10028:	24120020 	li	s2,32
   1002c:	00072602 	srl	a0,a3,0x18
   10030:	3099000f 	andi	t9,a0,0xf
   10034:	0019f8c0 	sll	ra,t9,0x3
   10038:	3c120801 	lui	s2,0x801
   1003c:	26529478 	addiu	s2,s2,-27528
   10040:	03f24021 	addu	t0,ra,s2
   10044:	1100ffdc 	beqz	t0,0xffb8
   10048:	af990010 	sw	t9,16(gp)
   1004c:	91090000 	lbu	t1,0(t0)
   10050:	1120ffda 	beqz	t1,0xffbc
   10054:	3c038000 	lui	v1,0x8000
   10058:	3c138000 	lui	s3,0x8000
   1005c:	366a0100 	ori	t2,s3,0x100
   10060:	954b000e 	lhu	t3,14(t2)
   10064:	24030003 	li	v1,3
   10068:	02c03021 	move	a2,s6
   1006c:	3162ffff 	andi	v0,t3,0xffff
   10070:	24450004 	addiu	a1,v0,4
   10074:	112300ec 	beq	t1,v1,0x10428
   10078:	00002021 	move	a0,zero
   1007c:	91090001 	lbu	t1,1(t0)
   10080:	240d0002 	li	t5,2
   10084:	312e00ff 	andi	t6,t1,0xff
   10088:	11cd00fa 	beq	t6,t5,0x10474
   1008c:	313200ff 	andi	s2,t1,0xff
   10090:	24090001 	li	t1,1
   10094:	12490010 	beq	s2,t1,0x100d8
   10098:	30ff0040 	andi	ra,a3,0x40
   1009c:	8d040004 	lw	a0,4(t0)
   100a0:	8f830024 	lw	v1,36(gp)
   100a4:	14600006 	bnez	v1,0x100c0
   100a8:	34d30002 	ori	s3,a2,0x2
   100ac:	248bfe00 	addiu	t3,a0,-512
   100b0:	2d620381 	sltiu	v0,t3,897
   100b4:	54400001 	bnezl	v0,0x100bc
   100b8:	36c60040 	ori	a2,s6,0x40
   100bc:	34d30002 	ori	s3,a2,0x2
   100c0:	30a5ffff 	andi	a1,a1,0xffff
   100c4:	0e000fdb 	jal	0x8003f6c
   100c8:	3266ffff 	andi	a2,s3,0xffff
   100cc:	00004821 	move	t1,zero
   100d0:	0a0013ab 	j	0x8004eac
   100d4:	01201821 	move	v1,t1
   100d8:	53e0fff1 	beqzl	ra,0x100a0
   100dc:	8d040004 	lw	a0,4(t0)
   100e0:	3c080801 	lui	t0,0x801
   100e4:	91089479 	lbu	t0,-27527(t0)
   100e8:	1100ffed 	beqz	t0,0x100a0
   100ec:	24090001 	li	t1,1
   100f0:	0a0013ab 	j	0x8004eac
   100f4:	01201821 	move	v1,t1
   100f8:	3c048000 	lui	a0,0x8000
   100fc:	8c8a01b8 	lw	t2,440(a0)
   10100:	0540fffe 	bltz	t2,0x100fc
   10104:	34960180 	ori	s6,a0,0x180
   10108:	2415001c 	li	s5,28
   1010c:	aec70000 	sw	a3,0(s6)
   10110:	a2d5000b 	sb	s5,11(s6)
   10114:	3c021000 	lui	v0,0x1000
   10118:	ac8201b8 	sw	v0,440(a0)
   1011c:	3c0b4000 	lui	t3,0x4000
   10120:	3c068000 	lui	a2,0x8000
   10124:	accb0178 	sw	t3,376(a2)
   10128:	0a0012b3 	j	0x8004acc
   1012c:	00000000 	nop
   10130:	2eb203ef 	sltiu	s2,s5,1007
   10134:	2ff90001 	sltiu	t9,ra,1
   10138:	3a490001 	xori	t1,s2,0x1
   1013c:	0329c024 	and	t8,t9,t1
   10140:	1700ffb6 	bnez	t8,0x1001c
   10144:	24040001 	li	a0,1
   10148:	3c030800 	lui	v1,0x800
   1014c:	8c6300d0 	lw	v1,208(v1)
   10150:	2e65000c 	sltiu	a1,s3,12
   10154:	001321c0 	sll	a0,s3,0x7
   10158:	386b0001 	xori	t3,v1,0x1
   1015c:	2d620001 	sltiu	v0,t3,1
   10160:	00454024 	and	t0,v0,a1
   10164:	1500ffa8 	bnez	t0,0x10008
   10168:	32b2ffff 	andi	s2,s5,0xffff
   1016c:	266afffc 	addiu	t2,s3,-4
   10170:	2d460004 	sltiu	a2,t2,4
   10174:	14c00013 	bnez	a2,0x101c4
   10178:	00002021 	move	a0,zero
   1017c:	386d0002 	xori	t5,v1,0x2
   10180:	2dac0001 	sltiu	t4,t5,1
   10184:	01851824 	and	v1,t4,a1
   10188:	1460000f 	bnez	v1,0x101c8
   1018c:	02402821 	move	a1,s2
   10190:	266efff8 	addiu	t6,s3,-8
   10194:	2dc50004 	sltiu	a1,t6,4
   10198:	14a0ff9b 	bnez	a1,0x10008
   1019c:	00000000 	nop
   101a0:	00077a42 	srl	t7,a3,0x9
   101a4:	0013382b 	sltu	a3,zero,s3
   101a8:	01e7a824 	and	s5,t7,a3
   101ac:	56a00008 	bnezl	s5,0x101d0
   101b0:	02402821 	move	a1,s2
   101b4:	001321c0 	sll	a0,s3,0x7
   101b8:	02402821 	move	a1,s2
   101bc:	0a0013fd 	j	0x8004ff4
   101c0:	36c60002 	ori	a2,s6,0x2
   101c4:	02402821 	move	a1,s2
   101c8:	0a0013fd 	j	0x8004ff4
   101cc:	36c60002 	ori	a2,s6,0x2
   101d0:	0e000fdb 	jal	0x8003f6c
   101d4:	32c6fffb 	andi	a2,s6,0xfffb
   101d8:	0a001467 	j	0x800519c
   101dc:	001321c0 	sll	a0,s3,0x7
   101e0:	10b00072 	beq	a1,s0,0x103ac
   101e4:	00045a02 	srl	t3,a0,0x8
   101e8:	2406000b 	li	a2,11
   101ec:	14a6fe7c 	bne	a1,a2,0xfbe0
   101f0:	000749c0 	sll	t1,a3,0x7
   101f4:	314600ff 	andi	a2,t2,0xff
   101f8:	00065600 	sll	t2,a2,0x18
   101fc:	000a5e03 	sra	t3,t2,0x18
   10200:	056200b0 	bltzl	t3,0x104c4
   10204:	30c6007f 	andi	a2,a2,0x7f
   10208:	000670c0 	sll	t6,a2,0x3
   1020c:	3c0f0801 	lui	t7,0x801
   10210:	25ef9478 	addiu	t7,t7,-27528
   10214:	01cfa821 	addu	s5,t6,t7
   10218:	a2a00001 	sb	zero,1(s5)
   1021c:	a2a00000 	sb	zero,0(s5)
   10220:	3c136000 	lui	s3,0x6000
   10224:	8e631820 	lw	v1,6176(s3)
   10228:	240d0001 	li	t5,1
   1022c:	00cd4804 	sllv	t1,t5,a2
   10230:	00096027 	nor	t4,zero,t1
   10234:	000749c0 	sll	t1,a3,0x7
   10238:	006c9024 	and	s2,v1,t4
   1023c:	01203821 	move	a3,t1
   10240:	ae721820 	sw	s2,6176(s3)
   10244:	0a0012f2 	j	0x8004bc8
   10248:	a6a00002 	sh	zero,2(s5)
   1024c:	14c0004b 	bnez	a2,0x1037c
   10250:	8f8c0020 	lw	t4,32(gp)
   10254:	000749c0 	sll	t1,a3,0x7
   10258:	3c0b8000 	lui	t3,0x8000
   1025c:	ad690020 	sw	t1,32(t3)
   10260:	3c118008 	lui	s1,0x8008
   10264:	963f0040 	lhu	ra,64(s1)
   10268:	13e00002 	beqz	ra,0x10274
   1026c:	24050001 	li	a1,1
   10270:	24050041 	li	a1,65
   10274:	3c048000 	lui	a0,0x8000
   10278:	8c8a01b8 	lw	t2,440(a0)
   1027c:	0540fffe 	bltz	t2,0x10278
   10280:	34960180 	ori	s6,a0,0x180
   10284:	24120003 	li	s2,3
   10288:	aec90000 	sw	t1,0(s6)
   1028c:	a2d2000b 	sb	s2,11(s6)
   10290:	a6c0000e 	sh	zero,14(s6)
   10294:	a6c0001a 	sh	zero,26(s6)
   10298:	a6c00010 	sh	zero,16(s6)
   1029c:	aec00028 	sw	zero,40(s6)
   102a0:	a6c50008 	sh	a1,8(s6)
   102a4:	96d30026 	lhu	s3,38(s6)
   102a8:	36750001 	ori	s5,s3,0x1
   102ac:	a6d50026 	sh	s5,38(s6)
   102b0:	aec0002c 	sw	zero,44(s6)
   102b4:	3c021000 	lui	v0,0x1000
   102b8:	ac8201b8 	sw	v0,440(a0)
   102bc:	0a0012f2 	j	0x8004bc8
   102c0:	01203821 	move	a3,t1
   102c4:	14c0fef8 	bnez	a2,0xfea8
   102c8:	3c060001 	lui	a2,0x1
   102cc:	266b0004 	addiu	t3,s3,4
   102d0:	3165ffff 	andi	a1,t3,0xffff
   102d4:	36c60002 	ori	a2,s6,0x2
   102d8:	3c038000 	lui	v1,0x8000
   102dc:	8c7301b8 	lw	s3,440(v1)
   102e0:	0660fffe 	bltz	s3,0x102dc
   102e4:	8f890008 	lw	t1,8(gp)
   102e8:	3c0d8000 	lui	t5,0x8000
   102ec:	35ac0180 	ori	t4,t5,0x180
   102f0:	ad800000 	sw	zero,0(t4)
   102f4:	512000dd 	beqzl	t1,0x1066c
   102f8:	3c098000 	lui	t1,0x8000
   102fc:	24af0012 	addiu	t7,a1,18
   10300:	012f702b 	sltu	t6,t1,t7
   10304:	51c000d9 	beqzl	t6,0x1066c
   10308:	3c098000 	lui	t1,0x8000
   1030c:	96f20020 	lhu	s2,32(s7)
   10310:	3c198000 	lui	t9,0x8000
   10314:	2418001a 	li	t8,26
   10318:	3256ffff 	andi	s6,s2,0xffff
   1031c:	372a0180 	ori	t2,t9,0x180
   10320:	30f54000 	andi	s5,a3,0x4000
   10324:	a158000b 	sb	t8,11(t2)
   10328:	12a000d5 	beqz	s5,0x10680
   1032c:	26c3fffe 	addiu	v1,s6,-2
   10330:	0123f82b 	sltu	ra,t1,v1
   10334:	17e000d3 	bnez	ra,0x10684
   10338:	2404fffe 	li	a0,-2
   1033c:	35080001 	ori	t0,t0,0x1
   10340:	a5430014 	sh	v1,20(t2)
   10344:	af880004 	sw	t0,4(gp)
   10348:	2413bfff 	li	s3,-16385
   1034c:	3c0b8000 	lui	t3,0x8000
   10350:	01135024 	and	t2,t0,s3
   10354:	35680180 	ori	t0,t3,0x180
   10358:	a505000e 	sh	a1,14(t0)
   1035c:	a505001a 	sh	a1,26(t0)
   10360:	a5060008 	sh	a2,8(t0)
   10364:	a50a0026 	sh	t2,38(t0)
   10368:	a5070010 	sh	a3,16(t0)
   1036c:	3c071000 	lui	a3,0x1000
   10370:	ae8701b8 	sw	a3,440(s4)
   10374:	0a0013ab 	j	0x8004eac
   10378:	00001821 	move	v1,zero
   1037c:	000749c0 	sll	t1,a3,0x7
   10380:	2583ffff 	addiu	v1,t4,-1
   10384:	1460fe16 	bnez	v1,0xfbe0
   10388:	af830020 	sw	v1,32(gp)
   1038c:	01203821 	move	a3,t1
   10390:	0a0012f2 	j	0x8004bc8
   10394:	af800024 	sw	zero,36(gp)
   10398:	0e001054 	jal	0x8004150
   1039c:	00000000 	nop
   103a0:	8f870000 	lw	a3,0(gp)
   103a4:	0a001379 	j	0x8004de4
   103a8:	af82000c 	sw	v0,12(gp)
   103ac:	240300ff 	li	v1,255
   103b0:	1163fe0b 	beq	t3,v1,0xfbe0
   103b4:	000749c0 	sll	t1,a3,0x7
   103b8:	10c00038 	beqz	a2,0x1049c
   103bc:	000b7600 	sll	t6,t3,0x18
   103c0:	000b20c0 	sll	a0,t3,0x3
   103c4:	3c090801 	lui	t1,0x801
   103c8:	25299478 	addiu	t1,t1,-27528
   103cc:	00891821 	addu	v1,a0,t1
   103d0:	24020001 	li	v0,1
   103d4:	a0620000 	sb	v0,0(v1)
   103d8:	3c160801 	lui	s6,0x801
   103dc:	26d69478 	addiu	s6,s6,-27528
   103e0:	3c020801 	lui	v0,0x801
   103e4:	2442947c 	addiu	v0,v0,-27524
   103e8:	00962821 	addu	a1,a0,s6
   103ec:	000749c0 	sll	t1,a3,0x7
   103f0:	00828821 	addu	s1,a0,v0
   103f4:	000afc02 	srl	ra,t2,0x10
   103f8:	ae290000 	sw	t1,0(s1)
   103fc:	a0bf0001 	sb	ra,1(a1)
   10400:	3c046000 	lui	a0,0x6000
   10404:	8c981820 	lw	t8,6176(a0)
   10408:	24190001 	li	t9,1
   1040c:	01793804 	sllv	a3,t9,t3
   10410:	03073025 	or	a2,t8,a3
   10414:	01203821 	move	a3,t1
   10418:	a4aa0002 	sh	t2,2(a1)
   1041c:	ac861820 	sw	a2,6176(a0)
   10420:	0a0012f3 	j	0x8004bcc
   10424:	3c068000 	lui	a2,0x8000
   10428:	91030001 	lbu	v1,1(t0)
   1042c:	24160001 	li	s6,1
   10430:	1076ff27 	beq	v1,s6,0x100d0
   10434:	24090001 	li	t1,1
   10438:	24050002 	li	a1,2
   1043c:	10650004 	beq	v1,a1,0x10450
   10440:	30e60040 	andi	a2,a3,0x40
   10444:	24090001 	li	t1,1
   10448:	0a0013ab 	j	0x8004eac
   1044c:	01201821 	move	v1,t1
   10450:	50c0fffd 	beqzl	a2,0x10448
   10454:	24090001 	li	t1,1
   10458:	954c0010 	lhu	t4,16(t2)
   1045c:	950a0002 	lhu	t2,2(t0)
   10460:	3187ffff 	andi	a3,t4,0xffff
   10464:	5147fe98 	beql	t2,a3,0xfec8
   10468:	01201821 	move	v1,t1
   1046c:	0a00150b 	j	0x800542c
   10470:	24090001 	li	t1,1
   10474:	30ef0040 	andi	t7,a3,0x40
   10478:	11e0ff19 	beqz	t7,0x100e0
   1047c:	00000000 	nop
   10480:	95590010 	lhu	t9,16(t2)
   10484:	95180002 	lhu	t8,2(t0)
   10488:	33350fff 	andi	s5,t9,0xfff
   1048c:	1715ff14 	bne	t8,s5,0x100e0
   10490:	313200ff 	andi	s2,t1,0xff
   10494:	0a00141e 	j	0x8005078
   10498:	24090001 	li	t1,1
   1049c:	000e6e03 	sra	t5,t6,0x18
   104a0:	05a2000f 	bltzl	t5,0x104e0
   104a4:	316b007f 	andi	t3,t3,0x7f
   104a8:	10e30008 	beq	a3,v1,0x104cc
   104ac:	000b20c0 	sll	a0,t3,0x3
   104b0:	3c100801 	lui	s0,0x801
   104b4:	26109478 	addiu	s0,s0,-27528
   104b8:	00901821 	addu	v1,a0,s0
   104bc:	0a0014ee 	j	0x80053b8
   104c0:	24020002 	li	v0,2
   104c4:	0a00147b 	j	0x80051ec
   104c8:	af800020 	sw	zero,32(gp)
   104cc:	3c0f0801 	lui	t7,0x801
   104d0:	25ef9478 	addiu	t7,t7,-27528
   104d4:	008f1821 	addu	v1,a0,t7
   104d8:	0a0014ee 	j	0x80053b8
   104dc:	24020003 	li	v0,3
   104e0:	0a001523 	j	0x800548c
   104e4:	af8b0020 	sw	t3,32(gp)
   104e8:	0003a080 	sll	s4,v1,0x2
   104ec:	02869821 	addu	s3,s4,a2
   104f0:	8e720004 	lw	s2,4(s3)
   104f4:	3c116000 	lui	s1,0x6000
   104f8:	0a001299 	j	0x8004a64
   104fc:	02512821 	addu	a1,s2,s1
   10500:	0a0012b0 	j	0x8004ac0
   10504:	af840028 	sw	a0,40(gp)
   10508:	8c644000 	lw	a0,16384(v1)
   1050c:	30930100 	andi	s3,a0,0x100
   10510:	1260004b 	beqz	s3,0x10640
   10514:	24090004 	li	t1,4
   10518:	3c190800 	lui	t9,0x800
   1051c:	8f390024 	lw	t9,36(t9)
   10520:	32d80004 	andi	t8,s6,0x4
   10524:	afa90010 	sw	t1,16(sp)
   10528:	17000003 	bnez	t8,0x10538
   1052c:	3332000d 	andi	s2,t9,0xd
   10530:	241f0002 	li	ra,2
   10534:	afbf0010 	sw	ra,16(sp)
   10538:	00071ac2 	srl	v1,a3,0xb
   1053c:	386a0001 	xori	t2,v1,0x1
   10540:	2ea603ef 	sltiu	a2,s5,1007
   10544:	31420001 	andi	v0,t2,0x1
   10548:	38cb0001 	xori	t3,a2,0x1
   1054c:	004b4025 	or	t0,v0,t3
   10550:	11000003 	beqz	t0,0x10560
   10554:	32d3fffb 	andi	s3,s6,0xfffb
   10558:	2416fffb 	li	s6,-5
   1055c:	02569024 	and	s2,s2,s6
   10560:	30ec0100 	andi	t4,a3,0x100
   10564:	11800016 	beqz	t4,0x105c0
   10568:	32480001 	andi	t0,s2,0x1
   1056c:	3c0e0f00 	lui	t6,0xf00
   10570:	00ee2824 	and	a1,a3,t6
   10574:	3c0d0200 	lui	t5,0x200
   10578:	10ad0011 	beq	a1,t5,0x105c0
   1057c:	3c1f8000 	lui	ra,0x8000
   10580:	37e90100 	ori	t1,ra,0x100
   10584:	91380013 	lbu	t8,19(t1)
   10588:	8faf0010 	lw	t7,16(sp)
   1058c:	2419fffe 	li	t9,-2
   10590:	330400ff 	andi	a0,t8,0xff
   10594:	24870004 	addiu	a3,a0,4
   10598:	02599024 	and	s2,s2,t9
   1059c:	000721c0 	sll	a0,a3,0x7
   105a0:	12400002 	beqz	s2,0x105ac
   105a4:	026f3025 	or	a2,s3,t7
   105a8:	3266ffff 	andi	a2,s3,0xffff
   105ac:	0e000fdb 	jal	0x8003f6c
   105b0:	32a5ffff 	andi	a1,s5,0xffff
   105b4:	1240fe99 	beqz	s2,0x1001c
   105b8:	00002021 	move	a0,zero
   105bc:	32480001 	andi	t0,s2,0x1
   105c0:	1100000e 	beqz	t0,0x105fc
   105c4:	324a0004 	andi	t2,s2,0x4
   105c8:	8fab0010 	lw	t3,16(sp)
   105cc:	24020001 	li	v0,1
   105d0:	12420002 	beq	s2,v0,0x105dc
   105d4:	026b3025 	or	a2,s3,t3
   105d8:	3266ffff 	andi	a2,s3,0xffff
   105dc:	00002021 	move	a0,zero
   105e0:	0e000fdb 	jal	0x8003f6c
   105e4:	32a5ffff 	andi	a1,s5,0xffff
   105e8:	2406fffe 	li	a2,-2
   105ec:	02469024 	and	s2,s2,a2
   105f0:	1240fe8a 	beqz	s2,0x1001c
   105f4:	00002021 	move	a0,zero
   105f8:	324a0004 	andi	t2,s2,0x4
   105fc:	5140000e 	beqzl	t2,0x10638
   10600:	24040001 	li	a0,1
   10604:	8fb60010 	lw	s6,16(sp)
   10608:	24030004 	li	v1,4
   1060c:	12430002 	beq	s2,v1,0x10618
   10610:	02763025 	or	a2,s3,s6
   10614:	3266ffff 	andi	a2,s3,0xffff
   10618:	2413fffb 	li	s3,-5
   1061c:	32a5ffff 	andi	a1,s5,0xffff
   10620:	24040100 	li	a0,256
   10624:	0e000fdb 	jal	0x8003f6c
   10628:	0253a824 	and	s5,s2,s3
   1062c:	12a0fe7b 	beqz	s5,0x1001c
   10630:	00002021 	move	a0,zero
   10634:	24040001 	li	a0,1
   10638:	0a0013ab 	j	0x8004eac
   1063c:	00801821 	move	v1,a0
   10640:	3c0c0800 	lui	t4,0x800
   10644:	8d8c0024 	lw	t4,36(t4)
   10648:	31920001 	andi	s2,t4,0x1
   1064c:	5240fe73 	beqzl	s2,0x1001c
   10650:	00002021 	move	a0,zero
   10654:	32a5ffff 	andi	a1,s5,0xffff
   10658:	36c60002 	ori	a2,s6,0x2
   1065c:	0e000fdb 	jal	0x8003f6c
   10660:	00002021 	move	a0,zero
   10664:	0a001400 	j	0x8005000
   10668:	00002021 	move	a0,zero
   1066c:	24020003 	li	v0,3
   10670:	35230180 	ori	v1,t1,0x180
   10674:	a062000b 	sb	v0,11(v1)
   10678:	0a0014cc 	j	0x8005330
   1067c:	2413bfff 	li	s3,-16385
   10680:	2404fffe 	li	a0,-2
   10684:	0a0014ca 	j	0x8005328
   10688:	01044024 	and	t0,t0,a0
   1068c:	3c038000 	lui	v1,0x8000
   10690:	34640100 	ori	a0,v1,0x100
   10694:	8c850000 	lw	a1,0(a0)
   10698:	30a2003e 	andi	v0,a1,0x3e
   1069c:	14400008 	bnez	v0,0x106c0
   106a0:	00000000 	nop
   106a4:	ac600048 	sw	zero,72(v1)
   106a8:	8c870000 	lw	a3,0(a0)
   106ac:	30e607c0 	andi	a2,a3,0x7c0
   106b0:	10c00005 	beqz	a2,0x106c8
   106b4:	00000000 	nop
   106b8:	ac60004c 	sw	zero,76(v1)
   106bc:	ac600050 	sw	zero,80(v1)
   106c0:	03e00008 	jr	ra
   106c4:	24020001 	li	v0,1
   106c8:	ac600054 	sw	zero,84(v1)
   106cc:	ac600040 	sw	zero,64(v1)
   106d0:	8c880000 	lw	t0,0(a0)
   106d4:	31043800 	andi	a0,t0,0x3800
   106d8:	1080fff9 	beqz	a0,0x106c0
   106dc:	00000000 	nop
   106e0:	24020001 	li	v0,1
   106e4:	03e00008 	jr	ra
   106e8:	ac600044 	sw	zero,68(v1)
   106ec:	3c038000 	lui	v1,0x8000
   106f0:	8c6201b8 	lw	v0,440(v1)
   106f4:	0440fffe 	bltz	v0,0x106f0
   106f8:	34670180 	ori	a3,v1,0x180
   106fc:	ace40000 	sw	a0,0(a3)
   10700:	24080001 	li	t0,1
   10704:	ace00004 	sw	zero,4(a3)
   10708:	a4e50008 	sh	a1,8(a3)
   1070c:	24050002 	li	a1,2
   10710:	a0e8000a 	sb	t0,10(a3)
   10714:	34640140 	ori	a0,v1,0x140
   10718:	a0e5000b 	sb	a1,11(a3)
   1071c:	9483000a 	lhu	v1,10(a0)
   10720:	14c00008 	bnez	a2,0x10744
   10724:	a4e30010 	sh	v1,16(a3)
   10728:	ace00024 	sw	zero,36(a3)
   1072c:	3c078000 	lui	a3,0x8000
   10730:	34e90180 	ori	t1,a3,0x180
   10734:	3c041000 	lui	a0,0x1000
   10738:	ad200028 	sw	zero,40(t1)
   1073c:	03e00008 	jr	ra
   10740:	ace401b8 	sw	a0,440(a3)
   10744:	8c860004 	lw	a2,4(a0)
   10748:	3c041000 	lui	a0,0x1000
   1074c:	ace60024 	sw	a2,36(a3)
   10750:	3c078000 	lui	a3,0x8000
   10754:	34e90180 	ori	t1,a3,0x180
   10758:	ad200028 	sw	zero,40(t1)
   1075c:	03e00008 	jr	ra
   10760:	ace401b8 	sw	a0,440(a3)
   10764:	3c068000 	lui	a2,0x8000
   10768:	8cc201b8 	lw	v0,440(a2)
   1076c:	0440fffe 	bltz	v0,0x10768
   10770:	34c70180 	ori	a3,a2,0x180
   10774:	24090002 	li	t1,2
   10778:	ace40000 	sw	a0,0(a3)
   1077c:	ace40004 	sw	a0,4(a3)
   10780:	a4e50008 	sh	a1,8(a3)
   10784:	a0e9000a 	sb	t1,10(a3)
   10788:	34c50140 	ori	a1,a2,0x140
   1078c:	a0e9000b 	sb	t1,11(a3)
   10790:	94a8000a 	lhu	t0,10(a1)
   10794:	3c041000 	lui	a0,0x1000
   10798:	a4e80010 	sh	t0,16(a3)
   1079c:	ace00024 	sw	zero,36(a3)
   107a0:	8ca30004 	lw	v1,4(a1)
   107a4:	ace30028 	sw	v1,40(a3)
   107a8:	03e00008 	jr	ra
   107ac:	acc401b8 	sw	a0,440(a2)
   107b0:	3c039000 	lui	v1,0x9000
   107b4:	34620001 	ori	v0,v1,0x1
   107b8:	00822025 	or	a0,a0,v0
   107bc:	3c038000 	lui	v1,0x8000
   107c0:	ac640020 	sw	a0,32(v1)
   107c4:	8c650020 	lw	a1,32(v1)
   107c8:	04a0fffe 	bltz	a1,0x107c4
   107cc:	00000000 	nop
   107d0:	03e00008 	jr	ra
   107d4:	00000000 	nop
   107d8:	3c028000 	lui	v0,0x8000
   107dc:	34430001 	ori	v1,v0,0x1
   107e0:	00832025 	or	a0,a0,v1
   107e4:	03e00008 	jr	ra
   107e8:	ac440020 	sw	a0,32(v0)
   107ec:	27bdffe0 	addiu	sp,sp,-32
   107f0:	3c098000 	lui	t1,0x8000
   107f4:	afbf0018 	sw	ra,24(sp)
   107f8:	afb10014 	sw	s1,20(sp)
   107fc:	afb00010 	sw	s0,16(sp)
   10800:	35280140 	ori	t0,t1,0x140
   10804:	8d100000 	lw	s0,0(t0)
   10808:	91040009 	lbu	a0,9(t0)
   1080c:	91070008 	lbu	a3,8(t0)
   10810:	91050008 	lbu	a1,8(t0)
   10814:	308400ff 	andi	a0,a0,0xff
   10818:	30e600ff 	andi	a2,a3,0xff
   1081c:	00061a00 	sll	v1,a2,0x8
   10820:	2c820081 	sltiu	v0,a0,129
   10824:	00833025 	or	a2,a0,v1
   10828:	1040002a 	beqz	v0,0x108d4
   1082c:	30a50080 	andi	a1,a1,0x80
   10830:	00046080 	sll	t4,a0,0x2
   10834:	3c0d0801 	lui	t5,0x801
   10838:	25ad90e8 	addiu	t5,t5,-28440
   1083c:	018d5821 	addu	t3,t4,t5
   10840:	8d6a0000 	lw	t2,0(t3)
   10844:	01400008 	jr	t2
   10848:	00000000 	nop
   1084c:	3c038000 	lui	v1,0x8000
   10850:	34620140 	ori	v0,v1,0x140
   10854:	9445000a 	lhu	a1,10(v0)
   10858:	14a0001e 	bnez	a1,0x108d4
   1085c:	8f91fcb8 	lw	s1,-840(gp)
   10860:	92270005 	lbu	a3,5(s1)
   10864:	30e60004 	andi	a2,a3,0x4
   10868:	14c0001a 	bnez	a2,0x108d4
   1086c:	00000000 	nop
   10870:	0e0015e5 	jal	0x8005794
   10874:	02002021 	move	a0,s0
   10878:	922a0005 	lbu	t2,5(s1)
   1087c:	02002021 	move	a0,s0
   10880:	35490004 	ori	t1,t2,0x4
   10884:	0e0015ef 	jal	0x80057bc
   10888:	a2290005 	sb	t1,5(s1)
   1088c:	92280005 	lbu	t0,5(s1)
   10890:	31040004 	andi	a0,t0,0x4
   10894:	14800002 	bnez	a0,0x108a0
   10898:	00000000 	nop
   1089c:	0000000d 	break
   108a0:	922d0000 	lbu	t5,0(s1)
   108a4:	240b0020 	li	t3,32
   108a8:	31ac00ff 	andi	t4,t5,0xff
   108ac:	158b0009 	bne	t4,t3,0x108d4
   108b0:	3c058000 	lui	a1,0x8000
   108b4:	8cae01b8 	lw	t6,440(a1)
   108b8:	05c0fffe 	bltz	t6,0x108b4
   108bc:	34b10180 	ori	s1,a1,0x180
   108c0:	ae300000 	sw	s0,0(s1)
   108c4:	3c0f1000 	lui	t7,0x1000
   108c8:	24100005 	li	s0,5
   108cc:	a230000b 	sb	s0,11(s1)
   108d0:	acaf01b8 	sw	t7,440(a1)
   108d4:	0000000d 	break
   108d8:	8fbf0018 	lw	ra,24(sp)
   108dc:	8fb10014 	lw	s1,20(sp)
   108e0:	8fb00010 	lw	s0,16(sp)
   108e4:	03e00008 	jr	ra
   108e8:	27bd0020 	addiu	sp,sp,32
   108ec:	02002021 	move	a0,s0
   108f0:	00c02821 	move	a1,a2
   108f4:	8fbf0018 	lw	ra,24(sp)
   108f8:	8fb10014 	lw	s1,20(sp)
   108fc:	8fb00010 	lw	s0,16(sp)
   10900:	24060001 	li	a2,1
   10904:	0a0015b4 	j	0x80056d0
   10908:	27bd0020 	addiu	sp,sp,32
   1090c:	0000000d 	break
   10910:	02002021 	move	a0,s0
   10914:	00c02821 	move	a1,a2
   10918:	8fbf0018 	lw	ra,24(sp)
   1091c:	8fb10014 	lw	s1,20(sp)
   10920:	8fb00010 	lw	s0,16(sp)
   10924:	00003021 	move	a2,zero
   10928:	0a0015b4 	j	0x80056d0
   1092c:	27bd0020 	addiu	sp,sp,32
   10930:	14a0ffe8 	bnez	a1,0x108d4
   10934:	00000000 	nop
   10938:	02002021 	move	a0,s0
   1093c:	8fbf0018 	lw	ra,24(sp)
   10940:	8fb10014 	lw	s1,20(sp)
   10944:	8fb00010 	lw	s0,16(sp)
   10948:	00c02821 	move	a1,a2
   1094c:	0a0015d2 	j	0x8005748
   10950:	27bd0020 	addiu	sp,sp,32
   10954:	3c078000 	lui	a3,0x8000
   10958:	8cee01b8 	lw	t6,440(a3)
   1095c:	05c0fffe 	bltz	t6,0x10958
   10960:	34f00180 	ori	s0,a3,0x180
   10964:	241f0002 	li	ra,2
   10968:	a21f000b 	sb	ra,11(s0)
   1096c:	34f80140 	ori	t8,a3,0x140
   10970:	a6060008 	sh	a2,8(s0)
   10974:	9719000a 	lhu	t9,10(t8)
   10978:	3c0f1000 	lui	t7,0x1000
   1097c:	a6190010 	sh	t9,16(s0)
   10980:	8f110004 	lw	s1,4(t8)
   10984:	a6110012 	sh	s1,18(s0)
   10988:	acef01b8 	sw	t7,440(a3)
   1098c:	0a001630 	j	0x80058c0
   10990:	8fbf0018 	lw	ra,24(sp)
   10994:	27bdffe8 	addiu	sp,sp,-24
   10998:	afbf0010 	sw	ra,16(sp)
   1099c:	0e000fd4 	jal	0x8003f50
   109a0:	00000000 	nop
   109a4:	3c028000 	lui	v0,0x8000
   109a8:	8fbf0010 	lw	ra,16(sp)
   109ac:	00002021 	move	a0,zero
   109b0:	ac400180 	sw	zero,384(v0)
   109b4:	0a0010a6 	j	0x8004298
   109b8:	27bd0018 	addiu	sp,sp,24
   109bc:	3084ffff 	andi	a0,a0,0xffff
   109c0:	30a5ffff 	andi	a1,a1,0xffff
   109c4:	10800007 	beqz	a0,0x109e4
   109c8:	00001821 	move	v1,zero
   109cc:	30820001 	andi	v0,a0,0x1
   109d0:	10400002 	beqz	v0,0x109dc
   109d4:	00042042 	srl	a0,a0,0x1
   109d8:	00651821 	addu	v1,v1,a1
   109dc:	1480fffb 	bnez	a0,0x109cc
   109e0:	00052840 	sll	a1,a1,0x1
   109e4:	03e00008 	jr	ra
   109e8:	00601021 	move	v0,v1
   109ec:	10c00007 	beqz	a2,0x10a0c
   109f0:	00000000 	nop
   109f4:	8ca20000 	lw	v0,0(a1)
   109f8:	24c6ffff 	addiu	a2,a2,-1
   109fc:	24a50004 	addiu	a1,a1,4
   10a00:	ac820000 	sw	v0,0(a0)
   10a04:	14c0fffb 	bnez	a2,0x109f4
   10a08:	24840004 	addiu	a0,a0,4
   10a0c:	03e00008 	jr	ra
   10a10:	00000000 	nop
   10a14:	10a00008 	beqz	a1,0x10a38
   10a18:	24a3ffff 	addiu	v1,a1,-1
   10a1c:	ac860000 	sw	a2,0(a0)
	...
   10a28:	2402ffff 	li	v0,-1
   10a2c:	2463ffff 	addiu	v1,v1,-1
   10a30:	1462fffa 	bne	v1,v0,0x10a1c
   10a34:	24840004 	addiu	a0,a0,4
   10a38:	03e00008 	jr	ra
   10a3c:	00000000 	nop
   10a40:	3c038000 	lui	v1,0x8000
   10a44:	27bdfff8 	addiu	sp,sp,-8
   10a48:	34620180 	ori	v0,v1,0x180
   10a4c:	afa20000 	sw	v0,0(sp)
   10a50:	308c00ff 	andi	t4,a0,0xff
   10a54:	30ad00ff 	andi	t5,a1,0xff
   10a58:	30ce00ff 	andi	t6,a2,0xff
   10a5c:	3c0b8000 	lui	t3,0x8000
   10a60:	8d6401b8 	lw	a0,440(t3)
   10a64:	0480fffe 	bltz	a0,0x10a60
   10a68:	00000000 	nop
   10a6c:	8fa90000 	lw	t1,0(sp)
   10a70:	8d680128 	lw	t0,296(t3)
   10a74:	8faa0000 	lw	t2,0(sp)
   10a78:	8fa70000 	lw	a3,0(sp)
   10a7c:	8fa40000 	lw	a0,0(sp)
   10a80:	24050001 	li	a1,1
   10a84:	24020002 	li	v0,2
   10a88:	a085000a 	sb	a1,10(a0)
   10a8c:	8fa30000 	lw	v1,0(sp)
   10a90:	35994000 	ori	t9,t4,0x4000
   10a94:	3c051000 	lui	a1,0x1000
   10a98:	a062000b 	sb	v0,11(v1)
   10a9c:	8fb80000 	lw	t8,0(sp)
   10aa0:	8fac0000 	lw	t4,0(sp)
   10aa4:	8fa60000 	lw	a2,0(sp)
   10aa8:	8faf0000 	lw	t7,0(sp)
   10aac:	27bd0008 	addiu	sp,sp,8
   10ab0:	ad280000 	sw	t0,0(t1)
   10ab4:	ad400004 	sw	zero,4(t2)
   10ab8:	ad800024 	sw	zero,36(t4)
   10abc:	acc00028 	sw	zero,40(a2)
   10ac0:	a4f90008 	sh	t9,8(a3)
   10ac4:	a70d0010 	sh	t5,16(t8)
   10ac8:	a5ee0012 	sh	t6,18(t7)
   10acc:	03e00008 	jr	ra
   10ad0:	ad6501b8 	sw	a1,440(t3)
   10ad4:	3c068008 	lui	a2,0x8008
   10ad8:	27bdffe8 	addiu	sp,sp,-24
   10adc:	34c50080 	ori	a1,a2,0x80
   10ae0:	afbf0010 	sw	ra,16(sp)
   10ae4:	90a70009 	lbu	a3,9(a1)
   10ae8:	24020012 	li	v0,18
   10aec:	30e300ff 	andi	v1,a3,0xff
   10af0:	1062000b 	beq	v1,v0,0x10b20
   10af4:	00803021 	move	a2,a0
   10af8:	8ca80050 	lw	t0,80(a1)
   10afc:	00882023 	subu	a0,a0,t0
   10b00:	04800008 	bltz	a0,0x10b24
   10b04:	8fbf0010 	lw	ra,16(sp)
   10b08:	8caa0034 	lw	t2,52(a1)
   10b0c:	24040039 	li	a0,57
   10b10:	00002821 	move	a1,zero
   10b14:	00ca4823 	subu	t1,a2,t2
   10b18:	05200005 	bltz	t1,0x10b30
   10b1c:	24060012 	li	a2,18
   10b20:	8fbf0010 	lw	ra,16(sp)
   10b24:	24020001 	li	v0,1
   10b28:	03e00008 	jr	ra
   10b2c:	27bd0018 	addiu	sp,sp,24
   10b30:	0e001689 	jal	0x8005a24
   10b34:	00000000 	nop
   10b38:	8fbf0010 	lw	ra,16(sp)
   10b3c:	24020001 	li	v0,1
   10b40:	03e00008 	jr	ra
   10b44:	27bd0018 	addiu	sp,sp,24
   10b48:	27bdffc8 	addiu	sp,sp,-56
   10b4c:	afb20030 	sw	s2,48(sp)
   10b50:	afb00028 	sw	s0,40(sp)
   10b54:	afbf0034 	sw	ra,52(sp)
   10b58:	afb1002c 	sw	s1,44(sp)
   10b5c:	00a08021 	move	s0,a1
   10b60:	90a5000d 	lbu	a1,13(a1)
   10b64:	30a60010 	andi	a2,a1,0x10
   10b68:	10c00010 	beqz	a2,0x10bac
   10b6c:	00809021 	move	s2,a0
   10b70:	3c028008 	lui	v0,0x8008
   10b74:	8c440004 	lw	a0,4(v0)
   10b78:	8e030008 	lw	v1,8(s0)
   10b7c:	1064000c 	beq	v1,a0,0x10bb0
   10b80:	30a70005 	andi	a3,a1,0x5
   10b84:	30a60005 	andi	a2,a1,0x5
   10b88:	10c00093 	beqz	a2,0x10dd8
   10b8c:	24040001 	li	a0,1
   10b90:	8fbf0034 	lw	ra,52(sp)
   10b94:	8fb20030 	lw	s2,48(sp)
   10b98:	8fb1002c 	lw	s1,44(sp)
   10b9c:	8fb00028 	lw	s0,40(sp)
   10ba0:	00801021 	move	v0,a0
   10ba4:	03e00008 	jr	ra
   10ba8:	27bd0038 	addiu	sp,sp,56
   10bac:	30a70005 	andi	a3,a1,0x5
   10bb0:	10e0000f 	beqz	a3,0x10bf0
   10bb4:	30ab0012 	andi	t3,a1,0x12
   10bb8:	10c00006 	beqz	a2,0x10bd4
   10bbc:	24040001 	li	a0,1
   10bc0:	3c098008 	lui	t1,0x8008
   10bc4:	8e080008 	lw	t0,8(s0)
   10bc8:	8d250004 	lw	a1,4(t1)
   10bcc:	5105009c 	beql	t0,a1,0x10e40
   10bd0:	24040038 	li	a0,56
   10bd4:	8fbf0034 	lw	ra,52(sp)
   10bd8:	8fb20030 	lw	s2,48(sp)
   10bdc:	8fb1002c 	lw	s1,44(sp)
   10be0:	8fb00028 	lw	s0,40(sp)
   10be4:	00801021 	move	v0,a0
   10be8:	03e00008 	jr	ra
   10bec:	27bd0038 	addiu	sp,sp,56
   10bf0:	240a0012 	li	t2,18
   10bf4:	156affe6 	bne	t3,t2,0x10b90
   10bf8:	24040001 	li	a0,1
   10bfc:	02002021 	move	a0,s0
   10c00:	27a50010 	addiu	a1,sp,16
   10c04:	0e000cb6 	jal	0x80032d8
   10c08:	afa00010 	sw	zero,16(sp)
   10c0c:	1440007c 	bnez	v0,0x10e00
   10c10:	3c198008 	lui	t9,0x8008
   10c14:	37240080 	ori	a0,t9,0x80
   10c18:	90980008 	lbu	t8,8(a0)
   10c1c:	33110008 	andi	s1,t8,0x8
   10c20:	1220000a 	beqz	s1,0x10c4c
   10c24:	8fa70010 	lw	a3,16(sp)
   10c28:	30ff0100 	andi	ra,a3,0x100
   10c2c:	13e000a4 	beqz	ra,0x10ec0
   10c30:	8fa30014 	lw	v1,20(sp)
   10c34:	8c860058 	lw	a2,88(a0)
   10c38:	00661023 	subu	v0,v1,a2
   10c3c:	04400004 	bltz	v0,0x10c50
   10c40:	3c0a8008 	lui	t2,0x8008
   10c44:	ac830058 	sw	v1,88(a0)
   10c48:	8fa70010 	lw	a3,16(sp)
   10c4c:	3c0a8008 	lui	t2,0x8008
   10c50:	35480080 	ori	t0,t2,0x80
   10c54:	91090008 	lbu	t1,8(t0)
   10c58:	31240008 	andi	a0,t1,0x8
   10c5c:	14800002 	bnez	a0,0x10c68
   10c60:	24080003 	li	t0,3
   10c64:	00004021 	move	t0,zero
   10c68:	3c1f8008 	lui	ra,0x8008
   10c6c:	93f10011 	lbu	s1,17(ra)
   10c70:	93f90012 	lbu	t9,18(ra)
   10c74:	37e60080 	ori	a2,ra,0x80
   10c78:	8ccc0054 	lw	t4,84(a2)
   10c7c:	333800ff 	andi	t8,t9,0xff
   10c80:	03087821 	addu	t7,t8,t0
   10c84:	322d00ff 	andi	t5,s1,0xff
   10c88:	000f7080 	sll	t6,t7,0x2
   10c8c:	01ae2821 	addu	a1,t5,t6
   10c90:	00ac582b 	sltu	t3,a1,t4
   10c94:	1160006f 	beqz	t3,0x10e54
   10c98:	00000000 	nop
   10c9c:	94ca005c 	lhu	t2,92(a2)
   10ca0:	8cc90054 	lw	t1,84(a2)
   10ca4:	3144ffff 	andi	a0,t2,0xffff
   10ca8:	01251023 	subu	v0,t1,a1
   10cac:	0082182b 	sltu	v1,a0,v0
   10cb0:	14600068 	bnez	v1,0x10e54
   10cb4:	00000000 	nop
   10cb8:	8ccb0054 	lw	t3,84(a2)
   10cbc:	01651823 	subu	v1,t3,a1
   10cc0:	30ec0004 	andi	t4,a3,0x4
   10cc4:	1180006c 	beqz	t4,0x10e78
   10cc8:	00083080 	sll	a2,t0,0x2
   10ccc:	8fa8001c 	lw	t0,28(sp)
   10cd0:	0068102b 	sltu	v0,v1,t0
   10cd4:	10400062 	beqz	v0,0x10e60
   10cd8:	30ed0004 	andi	t5,a3,0x4
   10cdc:	00661023 	subu	v0,v1,a2
   10ce0:	2c460080 	sltiu	a2,v0,128
   10ce4:	10c00002 	beqz	a2,0x10cf0
   10ce8:	00408821 	move	s1,v0
   10cec:	24110080 	li	s1,128
   10cf0:	0e0015e5 	jal	0x8005794
   10cf4:	02402021 	move	a0,s2
   10cf8:	3c0d8008 	lui	t5,0x8008
   10cfc:	35a60080 	ori	a2,t5,0x80
   10d00:	24070001 	li	a3,1
   10d04:	acc7000c 	sw	a3,12(a2)
   10d08:	90c80008 	lbu	t0,8(a2)
   10d0c:	00114840 	sll	t1,s1,0x1
   10d10:	35a70100 	ori	a3,t5,0x100
   10d14:	310c007f 	andi	t4,t0,0x7f
   10d18:	a0cc0008 	sb	t4,8(a2)
   10d1c:	8e050004 	lw	a1,4(s0)
   10d20:	24ab0001 	addiu	t3,a1,1
   10d24:	accb0030 	sw	t3,48(a2)
   10d28:	a4d1005c 	sh	s1,92(a2)
   10d2c:	8cca003c 	lw	t2,60(a2)
   10d30:	9602000e 	lhu	v0,14(s0)
   10d34:	01422021 	addu	a0,t2,v0
   10d38:	acc40020 	sw	a0,32(a2)
   10d3c:	8cc3003c 	lw	v1,60(a2)
   10d40:	0069f821 	addu	ra,v1,t1
   10d44:	acdf001c 	sw	ra,28(a2)
   10d48:	8e190004 	lw	t9,4(s0)
   10d4c:	acf90000 	sw	t9,0(a3)
   10d50:	8e180008 	lw	t8,8(s0)
   10d54:	acf80004 	sw	t8,4(a3)
   10d58:	8fb10010 	lw	s1,16(sp)
   10d5c:	322f0008 	andi	t7,s1,0x8
   10d60:	55e00047 	bnezl	t7,0x10e80
   10d64:	93a60020 	lbu	a2,32(sp)
   10d68:	a0c0004e 	sb	zero,78(a2)
   10d6c:	90d8004e 	lbu	t8,78(a2)
   10d70:	2411ffdf 	li	s1,-33
   10d74:	a0f80008 	sb	t8,8(a3)
   10d78:	90cf0008 	lbu	t7,8(a2)
   10d7c:	01f17024 	and	t6,t7,s1
   10d80:	a0ce0008 	sb	t6,8(a2)
   10d84:	8e050008 	lw	a1,8(s0)
   10d88:	3c0b8008 	lui	t3,0x8008
   10d8c:	35690080 	ori	t1,t3,0x80
   10d90:	ad250038 	sw	a1,56(t1)
   10d94:	8d6a0014 	lw	t2,20(t3)
   10d98:	8d220030 	lw	v0,48(t1)
   10d9c:	24190050 	li	t9,80
   10da0:	01422021 	addu	a0,t2,v0
   10da4:	ad240034 	sw	a0,52(t1)
   10da8:	91230000 	lbu	v1,0(t1)
   10dac:	307f00ff 	andi	ra,v1,0xff
   10db0:	13f90036 	beq	ra,t9,0x10e8c
   10db4:	264f0100 	addiu	t7,s2,256
   10db8:	0e0015ef 	jal	0x80057bc
   10dbc:	02402021 	move	a0,s2
   10dc0:	24040038 	li	a0,56
   10dc4:	00002821 	move	a1,zero
   10dc8:	0e001689 	jal	0x8005a24
   10dcc:	2406000a 	li	a2,10
   10dd0:	0a0016ee 	j	0x8005bb8
   10dd4:	24040001 	li	a0,1
   10dd8:	0e000d28 	jal	0x80034a0
   10ddc:	00002021 	move	a0,zero
   10de0:	8fbf0034 	lw	ra,52(sp)
   10de4:	8fb20030 	lw	s2,48(sp)
   10de8:	8fb1002c 	lw	s1,44(sp)
   10dec:	8fb00028 	lw	s0,40(sp)
   10df0:	00402021 	move	a0,v0
   10df4:	00801021 	move	v0,a0
   10df8:	03e00008 	jr	ra
   10dfc:	27bd0038 	addiu	sp,sp,56
   10e00:	8e0e0008 	lw	t6,8(s0)
   10e04:	3c0f8008 	lui	t7,0x8008
   10e08:	35f00080 	ori	s0,t7,0x80
   10e0c:	ae0e0054 	sw	t6,84(s0)
   10e10:	02402021 	move	a0,s2
   10e14:	ae000030 	sw	zero,48(s0)
   10e18:	0e0015e5 	jal	0x8005794
   10e1c:	00000000 	nop
   10e20:	920d0025 	lbu	t5,37(s0)
   10e24:	02402021 	move	a0,s2
   10e28:	35ac0020 	ori	t4,t5,0x20
   10e2c:	0e0015ef 	jal	0x80057bc
   10e30:	a20c0025 	sb	t4,37(s0)
   10e34:	0e000cac 	jal	0x80032b0
   10e38:	02402021 	move	a0,s2
   10e3c:	24040038 	li	a0,56
   10e40:	2405008d 	li	a1,141
   10e44:	0e001689 	jal	0x8005a24
   10e48:	24060012 	li	a2,18
   10e4c:	0a0016ee 	j	0x8005bb8
   10e50:	24040001 	li	a0,1
   10e54:	94c5005c 	lhu	a1,92(a2)
   10e58:	0a001729 	j	0x8005ca4
   10e5c:	30a3ffff 	andi	v1,a1,0xffff
   10e60:	24070218 	li	a3,536
   10e64:	11a0ff9e 	beqz	t5,0x10ce0
   10e68:	00e61023 	subu	v0,a3,a2
   10e6c:	8fae001c 	lw	t6,28(sp)
   10e70:	0a001731 	j	0x8005cc4
   10e74:	01c61023 	subu	v0,t6,a2
   10e78:	0a00172e 	j	0x8005cb8
   10e7c:	2c620218 	sltiu	v0,v1,536
   10e80:	a0e60008 	sb	a2,8(a3)
   10e84:	0a00175b 	j	0x8005d6c
   10e88:	8e050008 	lw	a1,8(s0)
   10e8c:	2406ff80 	li	a2,-128
   10e90:	01e6c024 	and	t8,t7,a2
   10e94:	3c118000 	lui	s1,0x8000
   10e98:	ae380028 	sw	t8,40(s1)
   10e9c:	8e0d0008 	lw	t5,8(s0)
   10ea0:	31e7007f 	andi	a3,t7,0x7f
   10ea4:	3c0e800c 	lui	t6,0x800c
   10ea8:	00ee6021 	addu	t4,a3,t6
   10eac:	ad8d00e0 	sw	t5,224(t4)
   10eb0:	8e080008 	lw	t0,8(s0)
   10eb4:	af8c0034 	sw	t4,52(gp)
   10eb8:	0a001767 	j	0x8005d9c
   10ebc:	ad8800e4 	sw	t0,228(t4)
   10ec0:	ac800058 	sw	zero,88(a0)
   10ec4:	90850008 	lbu	a1,8(a0)
   10ec8:	2403fff7 	li	v1,-9
   10ecc:	00a33824 	and	a3,a1,v1
   10ed0:	a0870008 	sb	a3,8(a0)
   10ed4:	0a00170c 	j	0x8005c30
   10ed8:	8fa70010 	lw	a3,16(sp)
   10edc:	3c050800 	lui	a1,0x800
   10ee0:	24a55f04 	addiu	a1,a1,24324
   10ee4:	3c040800 	lui	a0,0x800
   10ee8:	24846e50 	addiu	a0,a0,28240
   10eec:	3c020800 	lui	v0,0x800
   10ef0:	24425f0c 	addiu	v0,v0,24332
   10ef4:	24030006 	li	v1,6
   10ef8:	3c010801 	lui	at,0x801
   10efc:	ac2594f8 	sw	a1,-27400(at)
   10f00:	3c010801 	lui	at,0x801
   10f04:	ac2494fc 	sw	a0,-27396(at)
   10f08:	3c010801 	lui	at,0x801
   10f0c:	ac229500 	sw	v0,-27392(at)
   10f10:	3c010801 	lui	at,0x801
   10f14:	a0239504 	sb	v1,-27388(at)
   10f18:	03e00008 	jr	ra
   10f1c:	00000000 	nop
   10f20:	03e00008 	jr	ra
   10f24:	24020001 	li	v0,1
   10f28:	3c028000 	lui	v0,0x8000
   10f2c:	308800ff 	andi	t0,a0,0xff
   10f30:	34470180 	ori	a3,v0,0x180
   10f34:	3c068000 	lui	a2,0x8000
   10f38:	8cc301b8 	lw	v1,440(a2)
   10f3c:	0460fffe 	bltz	v1,0x10f38
   10f40:	00000000 	nop
   10f44:	8cc50128 	lw	a1,296(a2)
   10f48:	2418ff80 	li	t8,-128
   10f4c:	3c0d800a 	lui	t5,0x800a
   10f50:	24af0100 	addiu	t7,a1,256
   10f54:	01f87024 	and	t6,t7,t8
   10f58:	31ec007f 	andi	t4,t7,0x7f
   10f5c:	acce0024 	sw	t6,36(a2)
   10f60:	018d2021 	addu	a0,t4,t5
   10f64:	ace50000 	sw	a1,0(a3)
   10f68:	948b00ea 	lhu	t3,234(a0)
   10f6c:	35096000 	ori	t1,t0,0x6000
   10f70:	24080002 	li	t0,2
   10f74:	316affff 	andi	t2,t3,0xffff
   10f78:	acea0004 	sw	t2,4(a3)
   10f7c:	24020001 	li	v0,1
   10f80:	a4e90008 	sh	t1,8(a3)
   10f84:	a0e8000b 	sb	t0,11(a3)
   10f88:	ace00024 	sw	zero,36(a3)
   10f8c:	3c071000 	lui	a3,0x1000
   10f90:	acc701b8 	sw	a3,440(a2)
   10f94:	af840034 	sw	a0,52(gp)
   10f98:	03e00008 	jr	ra
   10f9c:	af850068 	sw	a1,104(gp)
   10fa0:	93880044 	lbu	t0,68(gp)
   10fa4:	8f89005c 	lw	t1,92(gp)
   10fa8:	8f820034 	lw	v0,52(gp)
   10fac:	30c600ff 	andi	a2,a2,0xff
   10fb0:	01093823 	subu	a3,t0,t1
   10fb4:	30e900ff 	andi	t1,a3,0xff
   10fb8:	01221821 	addu	v1,t1,v0
   10fbc:	30a500ff 	andi	a1,a1,0xff
   10fc0:	24680088 	addiu	t0,v1,136
   10fc4:	10c00002 	beqz	a2,0x10fd0
   10fc8:	01243821 	addu	a3,t1,a0
   10fcc:	00803821 	move	a3,a0
   10fd0:	30e40003 	andi	a0,a3,0x3
   10fd4:	14800003 	bnez	a0,0x10fe4
   10fd8:	30aa0003 	andi	t2,a1,0x3
   10fdc:	1140000d 	beqz	t2,0x11014
   10fe0:	312b0003 	andi	t3,t1,0x3
   10fe4:	10a00009 	beqz	a1,0x1100c
   10fe8:	00001021 	move	v0,zero
   10fec:	90ed0000 	lbu	t5,0(a3)
   10ff0:	244e0001 	addiu	t6,v0,1
   10ff4:	31c200ff 	andi	v0,t6,0xff
   10ff8:	0045602b 	sltu	t4,v0,a1
   10ffc:	a10d0000 	sb	t5,0(t0)
   11000:	24e70001 	addiu	a3,a3,1
   11004:	1580fff9 	bnez	t4,0x10fec
   11008:	25080001 	addiu	t0,t0,1
   1100c:	03e00008 	jr	ra
   11010:	00000000 	nop
   11014:	1560fff3 	bnez	t3,0x10fe4
   11018:	00000000 	nop
   1101c:	10a0fffb 	beqz	a1,0x1100c
   11020:	00001021 	move	v0,zero
   11024:	8cf80000 	lw	t8,0(a3)
   11028:	24590004 	addiu	t9,v0,4
   1102c:	332200ff 	andi	v0,t9,0xff
   11030:	0045782b 	sltu	t7,v0,a1
   11034:	ad180000 	sw	t8,0(t0)
   11038:	24e70004 	addiu	a3,a3,4
   1103c:	15e0fff9 	bnez	t7,0x11024
   11040:	25080004 	addiu	t0,t0,4
   11044:	03e00008 	jr	ra
   11048:	00000000 	nop
   1104c:	93850044 	lbu	a1,68(gp)
   11050:	93880054 	lbu	t0,84(gp)
   11054:	8f87005c 	lw	a3,92(gp)
   11058:	00043200 	sll	a2,a0,0x8
   1105c:	3103007f 	andi	v1,t0,0x7f
   11060:	00e5102b 	sltu	v0,a3,a1
   11064:	30c47f00 	andi	a0,a2,0x7f00
   11068:	1040000f 	beqz	v0,0x110a8
   1106c:	00642825 	or	a1,v1,a0
   11070:	8f840034 	lw	a0,52(gp)
   11074:	3c098000 	lui	t1,0x8000
   11078:	8c8a00ec 	lw	t2,236(a0)
   1107c:	ad2a00a4 	sw	t2,164(t1)
   11080:	3c038000 	lui	v1,0x8000
   11084:	00a35825 	or	t3,a1,v1
   11088:	ac6b00a0 	sw	t3,160(v1)
   1108c:	8c6c00a0 	lw	t4,160(v1)
   11090:	0580fffe 	bltz	t4,0x1108c
   11094:	00000000 	nop
   11098:	8c6d00ac 	lw	t5,172(v1)
   1109c:	ac8d00ec 	sw	t5,236(a0)
   110a0:	03e00008 	jr	ra
   110a4:	8c6200a8 	lw	v0,168(v1)
   110a8:	0a001819 	j	0x8006064
   110ac:	8f840034 	lw	a0,52(gp)
   110b0:	93880055 	lbu	t0,85(gp)
   110b4:	3c028000 	lui	v0,0x8000
   110b8:	00805021 	move	t2,a0
   110bc:	310300fe 	andi	v1,t0,0xfe
   110c0:	a3830055 	sb	v1,85(gp)
   110c4:	30abffff 	andi	t3,a1,0xffff
   110c8:	30cc00ff 	andi	t4,a2,0xff
   110cc:	30e7ffff 	andi	a3,a3,0xffff
   110d0:	34480180 	ori	t0,v0,0x180
   110d4:	3c098000 	lui	t1,0x8000
   110d8:	8d2401b8 	lw	a0,440(t1)
   110dc:	0480fffe 	bltz	a0,0x110d8
   110e0:	8f8d0068 	lw	t5,104(gp)
   110e4:	24180016 	li	t8,22
   110e8:	ad0d0000 	sw	t5,0(t0)
   110ec:	8d220124 	lw	v0,292(t1)
   110f0:	8f8d0034 	lw	t5,52(gp)
   110f4:	ad020004 	sw	v0,4(t0)
   110f8:	8d590020 	lw	t9,32(t2)
   110fc:	a5070008 	sh	a3,8(t0)
   11100:	240201c4 	li	v0,452
   11104:	a119000a 	sb	t9,10(t0)
   11108:	a118000b 	sb	t8,11(t0)
   1110c:	952f0120 	lhu	t7,288(t1)
   11110:	8d4e0008 	lw	t6,8(t2)
   11114:	8d470004 	lw	a3,4(t2)
   11118:	97830058 	lhu	v1,88(gp)
   1111c:	8d590024 	lw	t9,36(t2)
   11120:	01cf3021 	addu	a2,t6,t7
   11124:	00c72821 	addu	a1,a2,a3
   11128:	00a32023 	subu	a0,a1,v1
   1112c:	2418ffff 	li	t8,-1
   11130:	a504000c 	sh	a0,12(t0)
   11134:	a50b000e 	sh	t3,14(t0)
   11138:	a5020010 	sh	v0,16(t0)
   1113c:	a50c0012 	sh	t4,18(t0)
   11140:	ad190018 	sw	t9,24(t0)
   11144:	ad180024 	sw	t8,36(t0)
   11148:	95af00e8 	lhu	t7,232(t5)
   1114c:	3c0b1000 	lui	t3,0x1000
   11150:	2407fff7 	li	a3,-9
   11154:	31eeffff 	andi	t6,t7,0xffff
   11158:	ad0e0028 	sw	t6,40(t0)
   1115c:	8dac0084 	lw	t4,132(t5)
   11160:	ad0c002c 	sw	t4,44(t0)
   11164:	ad2b01b8 	sw	t3,440(t1)
   11168:	8d460020 	lw	a2,32(t2)
   1116c:	00c72824 	and	a1,a2,a3
   11170:	03e00008 	jr	ra
   11174:	ad450020 	sw	a1,32(t2)
   11178:	8f880034 	lw	t0,52(gp)
   1117c:	00805821 	move	t3,a0
   11180:	30e7ffff 	andi	a3,a3,0xffff
   11184:	910900d6 	lbu	t1,214(t0)
   11188:	3c028000 	lui	v0,0x8000
   1118c:	30a5ffff 	andi	a1,a1,0xffff
   11190:	312400ff 	andi	a0,t1,0xff
   11194:	00041a00 	sll	v1,a0,0x8
   11198:	00675025 	or	t2,v1,a3
   1119c:	30c600ff 	andi	a2,a2,0xff
   111a0:	34470180 	ori	a3,v0,0x180
   111a4:	3c098000 	lui	t1,0x8000
   111a8:	8d2c01b8 	lw	t4,440(t1)
   111ac:	0580fffe 	bltz	t4,0x111a8
   111b0:	8f820068 	lw	v0,104(gp)
   111b4:	240f0017 	li	t7,23
   111b8:	ace20000 	sw	v0,0(a3)
   111bc:	8d390124 	lw	t9,292(t1)
   111c0:	acf90004 	sw	t9,4(a3)
   111c4:	8d780020 	lw	t8,32(t3)
   111c8:	a4ea0008 	sh	t2,8(a3)
   111cc:	241901c4 	li	t9,452
   111d0:	a0f8000a 	sb	t8,10(a3)
   111d4:	a0ef000b 	sb	t7,11(a3)
   111d8:	95230120 	lhu	v1,288(t1)
   111dc:	8d6e0008 	lw	t6,8(t3)
   111e0:	8d6d0004 	lw	t5,4(t3)
   111e4:	97840058 	lhu	a0,88(gp)
   111e8:	01c35021 	addu	t2,t6,v1
   111ec:	014d6021 	addu	t4,t2,t5
   111f0:	01841023 	subu	v0,t4,a0
   111f4:	a4e2000c 	sh	v0,12(a3)
   111f8:	a4e5000e 	sh	a1,14(a3)
   111fc:	a4f90010 	sh	t9,16(a3)
   11200:	a4e60012 	sh	a2,18(a3)
   11204:	ace00014 	sw	zero,20(a3)
   11208:	8d780024 	lw	t8,36(t3)
   1120c:	240dffff 	li	t5,-1
   11210:	acf80018 	sw	t8,24(a3)
   11214:	8d0f007c 	lw	t7,124(t0)
   11218:	acef001c 	sw	t7,28(a3)
   1121c:	8d0e0078 	lw	t6,120(t0)
   11220:	3c0f1000 	lui	t7,0x1000
   11224:	acee0020 	sw	t6,32(a3)
   11228:	aced0024 	sw	t5,36(a3)
   1122c:	950a00be 	lhu	t2,190(t0)
   11230:	240dfff7 	li	t5,-9
   11234:	3146ffff 	andi	a2,t2,0xffff
   11238:	ace60028 	sw	a2,40(a3)
   1123c:	950c0080 	lhu	t4,128(t0)
   11240:	95040082 	lhu	a0,130(t0)
   11244:	31837fff 	andi	v1,t4,0x7fff
   11248:	0003ca00 	sll	t9,v1,0x8
   1124c:	3082ffff 	andi	v0,a0,0xffff
   11250:	0322c021 	addu	t8,t9,v0
   11254:	acf8002c 	sw	t8,44(a3)
   11258:	ad2f01b8 	sw	t7,440(t1)
   1125c:	950e0082 	lhu	t6,130(t0)
   11260:	8d6a0020 	lw	t2,32(t3)
   11264:	00ae3021 	addu	a2,a1,t6
   11268:	014d2824 	and	a1,t2,t5
   1126c:	a5060082 	sh	a2,130(t0)
   11270:	03e00008 	jr	ra
   11274:	ad650020 	sw	a1,32(t3)
   11278:	3c028000 	lui	v0,0x8000
   1127c:	34450180 	ori	a1,v0,0x180
   11280:	3c048000 	lui	a0,0x8000
   11284:	8c8301b8 	lw	v1,440(a0)
   11288:	0460fffe 	bltz	v1,0x11284
   1128c:	8f8a0040 	lw	t2,64(gp)
   11290:	24060019 	li	a2,25
   11294:	9549001c 	lhu	t1,28(t2)
   11298:	3128ffff 	andi	t0,t1,0xffff
   1129c:	000839c0 	sll	a3,t0,0x7
   112a0:	aca70000 	sw	a3,0(a1)
   112a4:	a0a6000b 	sb	a2,11(a1)
   112a8:	3c051000 	lui	a1,0x1000
   112ac:	03e00008 	jr	ra
   112b0:	ac8501b8 	sw	a1,440(a0)
   112b4:	8f870048 	lw	a3,72(gp)
   112b8:	00804021 	move	t0,a0
   112bc:	30c400ff 	andi	a0,a2,0xff
   112c0:	3c068000 	lui	a2,0x8000
   112c4:	8cc201b8 	lw	v0,440(a2)
   112c8:	0440fffe 	bltz	v0,0x112c4
   112cc:	8f890068 	lw	t1,104(gp)
   112d0:	93830064 	lbu	v1,100(gp)
   112d4:	34996000 	ori	t9,a0,0x6000
   112d8:	aca90000 	sw	t1,0(a1)
   112dc:	a0a30005 	sb	v1,5(a1)
   112e0:	8ce20010 	lw	v0,16(a3)
   112e4:	240f0002 	li	t7,2
   112e8:	2403fff7 	li	v1,-9
   112ec:	a4a20006 	sh	v0,6(a1)
   112f0:	a4b90008 	sh	t9,8(a1)
   112f4:	8d180020 	lw	t8,32(t0)
   112f8:	a0b8000a 	sb	t8,10(a1)
   112fc:	a0af000b 	sb	t7,11(a1)
   11300:	8cee0000 	lw	t6,0(a3)
   11304:	acae0010 	sw	t6,16(a1)
   11308:	8ced0004 	lw	t5,4(a3)
   1130c:	acad0014 	sw	t5,20(a1)
   11310:	8cec001c 	lw	t4,28(a3)
   11314:	acac0024 	sw	t4,36(a1)
   11318:	8ceb0020 	lw	t3,32(a3)
   1131c:	acab0028 	sw	t3,40(a1)
   11320:	8cea002c 	lw	t2,44(a3)
   11324:	3c071000 	lui	a3,0x1000
   11328:	acaa002c 	sw	t2,44(a1)
   1132c:	8d090024 	lw	t1,36(t0)
   11330:	aca90018 	sw	t1,24(a1)
   11334:	acc701b8 	sw	a3,440(a2)
   11338:	8d050020 	lw	a1,32(t0)
   1133c:	00a32024 	and	a0,a1,v1
   11340:	03e00008 	jr	ra
   11344:	ad040020 	sw	a0,32(t0)
   11348:	8f860034 	lw	a2,52(gp)
   1134c:	27bdffe0 	addiu	sp,sp,-32
   11350:	afb10014 	sw	s1,20(sp)
   11354:	afbf0018 	sw	ra,24(sp)
   11358:	afb00010 	sw	s0,16(sp)
   1135c:	90c300d4 	lbu	v1,212(a2)
   11360:	30a500ff 	andi	a1,a1,0xff
   11364:	30620020 	andi	v0,v1,0x20
   11368:	10400008 	beqz	v0,0x1138c
   1136c:	00808821 	move	s1,a0
   11370:	8ccb00d0 	lw	t3,208(a2)
   11374:	2409ffdf 	li	t1,-33
   11378:	256a0001 	addiu	t2,t3,1
   1137c:	acca00d0 	sw	t2,208(a2)
   11380:	90c800d4 	lbu	t0,212(a2)
   11384:	01093824 	and	a3,t0,t1
   11388:	a0c700d4 	sb	a3,212(a2)
   1138c:	14a00040 	bnez	a1,0x11490
   11390:	3c0c8000 	lui	t4,0x8000
   11394:	8f840034 	lw	a0,52(gp)
   11398:	908700d4 	lbu	a3,212(a0)
   1139c:	2418ffbf 	li	t8,-65
   113a0:	2406ffef 	li	a2,-17
   113a4:	30e3007f 	andi	v1,a3,0x7f
   113a8:	a08300d4 	sb	v1,212(a0)
   113ac:	979f0058 	lhu	ra,88(gp)
   113b0:	8f82005c 	lw	v0,92(gp)
   113b4:	8f8d0034 	lw	t5,52(gp)
   113b8:	03e2c823 	subu	t9,ra,v0
   113bc:	a7990058 	sh	t9,88(gp)
   113c0:	a5a000bc 	sh	zero,188(t5)
   113c4:	91af00d4 	lbu	t7,212(t5)
   113c8:	01f87024 	and	t6,t7,t8
   113cc:	a1ae00d4 	sb	t6,212(t5)
   113d0:	8f8c0034 	lw	t4,52(gp)
   113d4:	a18000d7 	sb	zero,215(t4)
   113d8:	8f8a0034 	lw	t2,52(gp)
   113dc:	a5400082 	sh	zero,130(t2)
   113e0:	ad4000ec 	sw	zero,236(t2)
   113e4:	914500d4 	lbu	a1,212(t2)
   113e8:	00a65824 	and	t3,a1,a2
   113ec:	a14b00d4 	sb	t3,212(t2)
   113f0:	8f900030 	lw	s0,48(gp)
   113f4:	8f84005c 	lw	a0,92(gp)
   113f8:	97860058 	lhu	a2,88(gp)
   113fc:	02042821 	addu	a1,s0,a0
   11400:	10c0000f 	beqz	a2,0x11440
   11404:	af850030 	sw	a1,48(gp)
   11408:	a3800054 	sb	zero,84(gp)
   1140c:	3c078000 	lui	a3,0x8000
   11410:	8e2c0008 	lw	t4,8(s1)
   11414:	94ed0120 	lhu	t5,288(a3)
   11418:	8e2b0004 	lw	t3,4(s1)
   1141c:	018d5021 	addu	t2,t4,t5
   11420:	014b8021 	addu	s0,t2,t3
   11424:	02062023 	subu	a0,s0,a2
   11428:	3086ffff 	andi	a2,a0,0xffff
   1142c:	30c8000f 	andi	t0,a2,0xf
   11430:	39090001 	xori	t1,t0,0x1
   11434:	31310001 	andi	s1,t1,0x1
   11438:	16200009 	bnez	s1,0x11460
   1143c:	a3880054 	sb	t0,84(gp)
   11440:	93860044 	lbu	a2,68(gp)
   11444:	8fbf0018 	lw	ra,24(sp)
   11448:	8fb10014 	lw	s1,20(sp)
   1144c:	8fb00010 	lw	s0,16(sp)
   11450:	27bd0020 	addiu	sp,sp,32
   11454:	af850060 	sw	a1,96(gp)
   11458:	03e00008 	jr	ra
   1145c:	af86005c 	sw	a2,92(gp)
   11460:	00c87023 	subu	t6,a2,t0
   11464:	8fbf0018 	lw	ra,24(sp)
   11468:	93860044 	lbu	a2,68(gp)
   1146c:	8fb10014 	lw	s1,20(sp)
   11470:	8fb00010 	lw	s0,16(sp)
   11474:	34ef0c00 	ori	t7,a3,0xc00
   11478:	010f2821 	addu	a1,t0,t7
   1147c:	27bd0020 	addiu	sp,sp,32
   11480:	acee0084 	sw	t6,132(a3)
   11484:	af850060 	sw	a1,96(gp)
   11488:	03e00008 	jr	ra
   1148c:	af86005c 	sw	a2,92(gp)
   11490:	35900180 	ori	s0,t4,0x180
   11494:	02002821 	move	a1,s0
   11498:	0e0018a6 	jal	0x8006298
   1149c:	24060082 	li	a2,130
   114a0:	8f840034 	lw	a0,52(gp)
   114a4:	908600d4 	lbu	a2,212(a0)
   114a8:	30c50040 	andi	a1,a2,0x40
   114ac:	50a0ffba 	beqzl	a1,0x11398
   114b0:	a3800064 	sb	zero,100(gp)
   114b4:	8f850048 	lw	a1,72(gp)
   114b8:	3c068000 	lui	a2,0x8000
   114bc:	8ccd01b8 	lw	t5,440(a2)
   114c0:	05a0fffe 	bltz	t5,0x114bc
   114c4:	8f890068 	lw	t1,104(gp)
   114c8:	24086082 	li	t0,24706
   114cc:	24070002 	li	a3,2
   114d0:	ae090000 	sw	t1,0(s0)
   114d4:	a6080008 	sh	t0,8(s0)
   114d8:	a207000b 	sb	a3,11(s0)
   114dc:	8ca30008 	lw	v1,8(a1)
   114e0:	3c0e1000 	lui	t6,0x1000
   114e4:	ae030010 	sw	v1,16(s0)
   114e8:	8ca2000c 	lw	v0,12(a1)
   114ec:	ae020014 	sw	v0,20(s0)
   114f0:	8cbf0014 	lw	ra,20(a1)
   114f4:	ae1f0018 	sw	ra,24(s0)
   114f8:	8cb90018 	lw	t9,24(a1)
   114fc:	ae190024 	sw	t9,36(s0)
   11500:	8cb80024 	lw	t8,36(a1)
   11504:	ae180028 	sw	t8,40(s0)
   11508:	8caf0028 	lw	t7,40(a1)
   1150c:	ae0f002c 	sw	t7,44(s0)
   11510:	acce01b8 	sw	t6,440(a2)
   11514:	0a0018df 	j	0x800637c
   11518:	a3800064 	sb	zero,100(gp)
   1151c:	8f8a0034 	lw	t2,52(gp)
   11520:	27bdffe0 	addiu	sp,sp,-32
   11524:	afb10014 	sw	s1,20(sp)
   11528:	afb00010 	sw	s0,16(sp)
   1152c:	8f88005c 	lw	t0,92(gp)
   11530:	afbf0018 	sw	ra,24(sp)
   11534:	93890038 	lbu	t1,56(gp)
   11538:	954200bc 	lhu	v0,188(t2)
   1153c:	30d100ff 	andi	s1,a2,0xff
   11540:	0109182b 	sltu	v1,t0,t1
   11544:	00808021 	move	s0,a0
   11548:	30ac00ff 	andi	t4,a1,0xff
   1154c:	3047ffff 	andi	a3,v0,0xffff
   11550:	00005821 	move	t3,zero
   11554:	14600003 	bnez	v1,0x11564
   11558:	310600ff 	andi	a2,t0,0xff
   1155c:	01203021 	move	a2,t1
   11560:	01095823 	subu	t3,t0,t1
   11564:	97830058 	lhu	v1,88(gp)
   11568:	0068202b 	sltu	a0,v1,t0
   1156c:	14800027 	bnez	a0,0x1160c
   11570:	00000000 	nop
   11574:	10680056 	beq	v1,t0,0x116d0
   11578:	24190001 	li	t9,1
   1157c:	11990063 	beq	t4,t9,0x1170c
   11580:	34e70880 	ori	a3,a3,0x880
   11584:	3165ffff 	andi	a1,t3,0xffff
   11588:	0e001857 	jal	0x800615c
   1158c:	02002021 	move	a0,s0
   11590:	8f830068 	lw	v1,104(gp)
   11594:	3c078000 	lui	a3,0x8000
   11598:	34e60180 	ori	a2,a3,0x180
   1159c:	3c058000 	lui	a1,0x8000
   115a0:	8cab01b8 	lw	t3,440(a1)
   115a4:	0560fffe 	bltz	t3,0x115a0
   115a8:	240a0018 	li	t2,24
   115ac:	8f840034 	lw	a0,52(gp)
   115b0:	acc30000 	sw	v1,0(a2)
   115b4:	a0ca000b 	sb	t2,11(a2)
   115b8:	948900be 	lhu	t1,190(a0)
   115bc:	3c081000 	lui	t0,0x1000
   115c0:	a4c90010 	sh	t1,16(a2)
   115c4:	acc00030 	sw	zero,48(a2)
   115c8:	aca801b8 	sw	t0,440(a1)
   115cc:	94820080 	lhu	v0,128(a0)
   115d0:	24430001 	addiu	v1,v0,1
   115d4:	a4830080 	sh	v1,128(a0)
   115d8:	949f0080 	lhu	ra,128(a0)
   115dc:	3c060800 	lui	a2,0x800
   115e0:	8cc63188 	lw	a2,12680(a2)
   115e4:	33ec7fff 	andi	t4,ra,0x7fff
   115e8:	1186005e 	beq	t4,a2,0x11764
   115ec:	00000000 	nop
   115f0:	02002021 	move	a0,s0
   115f4:	02202821 	move	a1,s1
   115f8:	8fbf0018 	lw	ra,24(sp)
   115fc:	8fb10014 	lw	s1,20(sp)
   11600:	8fb00010 	lw	s0,16(sp)
   11604:	0a0018cb 	j	0x800632c
   11608:	27bd0020 	addiu	sp,sp,32
   1160c:	914400d4 	lbu	a0,212(t2)
   11610:	2403ff80 	li	v1,-128
   11614:	00838825 	or	s1,a0,v1
   11618:	a15100d4 	sb	s1,212(t2)
   1161c:	97840058 	lhu	a0,88(gp)
   11620:	3088ffff 	andi	t0,a0,0xffff
   11624:	51000023 	beqzl	t0,0x116b4
   11628:	938c0038 	lbu	t4,56(gp)
   1162c:	8f850034 	lw	a1,52(gp)
   11630:	2402efff 	li	v0,-4097
   11634:	008b7823 	subu	t7,a0,t3
   11638:	94ae00bc 	lhu	t6,188(a1)
   1163c:	0168502b 	sltu	t2,t3,t0
   11640:	31e900ff 	andi	t1,t7,0xff
   11644:	01c26824 	and	t5,t6,v0
   11648:	a4ad00bc 	sh	t5,188(a1)
   1164c:	51400039 	beqzl	t2,0x11734
   11650:	01005821 	move	t3,t0
   11654:	3c1f8000 	lui	ra,0x8000
   11658:	37e60100 	ori	a2,ra,0x100
   1165c:	8cd80004 	lw	t8,4(a2)
   11660:	3c190001 	lui	t9,0x1
   11664:	03194024 	and	t0,t8,t9
   11668:	55000001 	bnezl	t0,0x11670
   1166c:	34e74000 	ori	a3,a3,0x4000
   11670:	8e0a0020 	lw	t2,32(s0)
   11674:	2403fffb 	li	v1,-5
   11678:	24110001 	li	s1,1
   1167c:	01432024 	and	a0,t2,v1
   11680:	ae040020 	sw	a0,32(s0)
   11684:	1191002d 	beq	t4,s1,0x1173c
   11688:	34e78000 	ori	a3,a3,0x8000
   1168c:	02002021 	move	a0,s0
   11690:	01203021 	move	a2,t1
   11694:	0e001857 	jal	0x800615c
   11698:	3165ffff 	andi	a1,t3,0xffff
   1169c:	97870058 	lhu	a3,88(gp)
   116a0:	8f89005c 	lw	t1,92(gp)
   116a4:	a7800058 	sh	zero,88(gp)
   116a8:	01278023 	subu	s0,t1,a3
   116ac:	af90005c 	sw	s0,92(gp)
   116b0:	938c0038 	lbu	t4,56(gp)
   116b4:	8f8b0034 	lw	t3,52(gp)
   116b8:	8fbf0018 	lw	ra,24(sp)
   116bc:	8fb10014 	lw	s1,20(sp)
   116c0:	8fb00010 	lw	s0,16(sp)
   116c4:	27bd0020 	addiu	sp,sp,32
   116c8:	03e00008 	jr	ra
   116cc:	a16c00d7 	sb	t4,215(t3)
   116d0:	3c0d8000 	lui	t5,0x8000
   116d4:	35aa0100 	ori	t2,t5,0x100
   116d8:	8d480004 	lw	t0,4(t2)
   116dc:	3c090001 	lui	t1,0x1
   116e0:	01092824 	and	a1,t0,t1
   116e4:	54a00001 	bnezl	a1,0x116ec
   116e8:	34e74000 	ori	a3,a3,0x4000
   116ec:	8e0f0020 	lw	t7,32(s0)
   116f0:	2418fffb 	li	t8,-5
   116f4:	34e78000 	ori	a3,a3,0x8000
   116f8:	01f87024 	and	t6,t7,t8
   116fc:	24190001 	li	t9,1
   11700:	ae0e0020 	sw	t6,32(s0)
   11704:	1599ff9f 	bne	t4,t9,0x11584
   11708:	34e70880 	ori	a3,a3,0x880
   1170c:	02002021 	move	a0,s0
   11710:	0e001825 	jal	0x8006094
   11714:	3165ffff 	andi	a1,t3,0xffff
   11718:	02002021 	move	a0,s0
   1171c:	02202821 	move	a1,s1
   11720:	8fbf0018 	lw	ra,24(sp)
   11724:	8fb10014 	lw	s1,20(sp)
   11728:	8fb00010 	lw	s0,16(sp)
   1172c:	0a0018cb 	j	0x800632c
   11730:	27bd0020 	addiu	sp,sp,32
   11734:	0a00198e 	j	0x8006638
   11738:	00004821 	move	t1,zero
   1173c:	02002021 	move	a0,s0
   11740:	01203021 	move	a2,t1
   11744:	0e001825 	jal	0x8006094
   11748:	3165ffff 	andi	a1,t3,0xffff
   1174c:	97870058 	lhu	a3,88(gp)
   11750:	8f89005c 	lw	t1,92(gp)
   11754:	a7800058 	sh	zero,88(gp)
   11758:	01278023 	subu	s0,t1,a3
   1175c:	0a0019a5 	j	0x8006694
   11760:	af90005c 	sw	s0,92(gp)
   11764:	948c0080 	lhu	t4,128(a0)
   11768:	241f8000 	li	ra,-32768
   1176c:	019f3024 	and	a2,t4,ra
   11770:	a4860080 	sh	a2,128(a0)
   11774:	908b0080 	lbu	t3,128(a0)
   11778:	908f0080 	lbu	t7,128(a0)
   1177c:	316700ff 	andi	a3,t3,0xff
   11780:	0007c9c2 	srl	t9,a3,0x7
   11784:	0019c027 	nor	t8,zero,t9
   11788:	001871c0 	sll	t6,t8,0x7
   1178c:	31ed007f 	andi	t5,t7,0x7f
   11790:	01ae2825 	or	a1,t5,t6
   11794:	a0850080 	sb	a1,128(a0)
   11798:	0a001976 	j	0x80065d8
   1179c:	02002021 	move	a0,s0
   117a0:	93850064 	lbu	a1,100(gp)
   117a4:	24030001 	li	v1,1
   117a8:	27bdffe8 	addiu	sp,sp,-24
   117ac:	00a33004 	sllv	a2,v1,a1
   117b0:	2ca20020 	sltiu	v0,a1,32
   117b4:	afb00010 	sw	s0,16(sp)
   117b8:	afbf0014 	sw	ra,20(sp)
   117bc:	00c01821 	move	v1,a2
   117c0:	10400013 	beqz	v0,0x11810
   117c4:	2410fffe 	li	s0,-2
   117c8:	3c070800 	lui	a3,0x800
   117cc:	8ce73190 	lw	a3,12688(a3)
   117d0:	00e61024 	and	v0,a3,a2
   117d4:	3c088000 	lui	t0,0x8000
   117d8:	35050180 	ori	a1,t0,0x180
   117dc:	14400005 	bnez	v0,0x117f4
   117e0:	24060084 	li	a2,132
   117e4:	8f890034 	lw	t1,52(gp)
   117e8:	240a0004 	li	t2,4
   117ec:	2410ffff 	li	s0,-1
   117f0:	a12a00fc 	sb	t2,252(t1)
   117f4:	0e0018a6 	jal	0x8006298
   117f8:	00000000 	nop
   117fc:	02001021 	move	v0,s0
   11800:	8fbf0014 	lw	ra,20(sp)
   11804:	8fb00010 	lw	s0,16(sp)
   11808:	03e00008 	jr	ra
   1180c:	27bd0018 	addiu	sp,sp,24
   11810:	3c060800 	lui	a2,0x800
   11814:	8cc63194 	lw	a2,12692(a2)
   11818:	0a0019ee 	j	0x80067b8
   1181c:	00c31024 	and	v0,a2,v1
   11820:	8f870040 	lw	a3,64(gp)
   11824:	27bdffe0 	addiu	sp,sp,-32
   11828:	afb20018 	sw	s2,24(sp)
   1182c:	afb10014 	sw	s1,20(sp)
   11830:	afb00010 	sw	s0,16(sp)
   11834:	afbf001c 	sw	ra,28(sp)
   11838:	30d000ff 	andi	s0,a2,0xff
   1183c:	90e6000d 	lbu	a2,13(a3)
   11840:	00a08821 	move	s1,a1
   11844:	00809021 	move	s2,a0
   11848:	30c5007f 	andi	a1,a2,0x7f
   1184c:	a0e5000d 	sb	a1,13(a3)
   11850:	8f850034 	lw	a1,52(gp)
   11854:	8e230018 	lw	v1,24(s1)
   11858:	8ca200d0 	lw	v0,208(a1)
   1185c:	1062002e 	beq	v1,v0,0x11918
   11860:	240a000e 	li	t2,14
   11864:	0e0019e1 	jal	0x8006784
   11868:	a38a0064 	sb	t2,100(gp)
   1186c:	2409ffff 	li	t1,-1
   11870:	10490022 	beq	v0,t1,0x118fc
   11874:	2404ffff 	li	a0,-1
   11878:	52000020 	beqzl	s0,0x118fc
   1187c:	00002021 	move	a0,zero
   11880:	8e260000 	lw	a2,0(s1)
   11884:	3c0c0010 	lui	t4,0x10
   11888:	00cc5824 	and	t3,a2,t4
   1188c:	15600039 	bnez	t3,0x11974
   11890:	3c0e0008 	lui	t6,0x8
   11894:	00ce6824 	and	t5,a2,t6
   11898:	55a0003f 	bnezl	t5,0x11998
   1189c:	02402021 	move	a0,s2
   118a0:	3c180002 	lui	t8,0x2
   118a4:	00d88024 	and	s0,a2,t8
   118a8:	1200001f 	beqz	s0,0x11928
   118ac:	3c0a0004 	lui	t2,0x4
   118b0:	8f870040 	lw	a3,64(gp)
   118b4:	8ce20014 	lw	v0,20(a3)
   118b8:	8ce30010 	lw	v1,16(a3)
   118bc:	8ce50014 	lw	a1,20(a3)
   118c0:	0043f823 	subu	ra,v0,v1
   118c4:	03e5c82b 	sltu	t9,ra,a1
   118c8:	13200005 	beqz	t9,0x118e0
   118cc:	02402021 	move	a0,s2
   118d0:	8e24002c 	lw	a0,44(s1)
   118d4:	8cf10010 	lw	s1,16(a3)
   118d8:	10910031 	beq	a0,s1,0x119a0
   118dc:	02402021 	move	a0,s2
   118e0:	24020012 	li	v0,18
   118e4:	a3820064 	sb	v0,100(gp)
   118e8:	0e0019e1 	jal	0x8006784
   118ec:	2412ffff 	li	s2,-1
   118f0:	10520002 	beq	v0,s2,0x118fc
   118f4:	2404ffff 	li	a0,-1
   118f8:	00002021 	move	a0,zero
   118fc:	8fbf001c 	lw	ra,28(sp)
   11900:	8fb20018 	lw	s2,24(sp)
   11904:	8fb10014 	lw	s1,20(sp)
   11908:	8fb00010 	lw	s0,16(sp)
   1190c:	00801021 	move	v0,a0
   11910:	03e00008 	jr	ra
   11914:	27bd0020 	addiu	sp,sp,32
   11918:	90a800d4 	lbu	t0,212(a1)
   1191c:	35040020 	ori	a0,t0,0x20
   11920:	0a001a17 	j	0x800685c
   11924:	a0a400d4 	sb	a0,212(a1)
   11928:	00ca4824 	and	t1,a2,t2
   1192c:	1520000b 	bnez	t1,0x1195c
   11930:	8f8b0040 	lw	t3,64(gp)
   11934:	8f8d0040 	lw	t5,64(gp)
   11938:	8dac0010 	lw	t4,16(t5)
   1193c:	1580000b 	bnez	t4,0x1196c
   11940:	02402021 	move	a0,s2
   11944:	8e2e002c 	lw	t6,44(s1)
   11948:	51c0ffec 	beqzl	t6,0x118fc
   1194c:	00002021 	move	a0,zero
   11950:	02402021 	move	a0,s2
   11954:	0a001a32 	j	0x80068c8
   11958:	24020017 	li	v0,23
   1195c:	8d660010 	lw	a2,16(t3)
   11960:	50c0ffe6 	beqzl	a2,0x118fc
   11964:	00002021 	move	a0,zero
   11968:	02402021 	move	a0,s2
   1196c:	0a001a32 	j	0x80068c8
   11970:	24020011 	li	v0,17
   11974:	02402021 	move	a0,s2
   11978:	24020015 	li	v0,21
   1197c:	0e0019e1 	jal	0x8006784
   11980:	a3820064 	sb	v0,100(gp)
   11984:	240fffff 	li	t7,-1
   11988:	104fffdc 	beq	v0,t7,0x118fc
   1198c:	2404ffff 	li	a0,-1
   11990:	0a001a21 	j	0x8006884
   11994:	8e260000 	lw	a2,0(s1)
   11998:	0a001a58 	j	0x8006960
   1199c:	24020014 	li	v0,20
   119a0:	3c080004 	lui	t0,0x4
   119a4:	00c83824 	and	a3,a2,t0
   119a8:	50e0ffd4 	beqzl	a3,0x118fc
   119ac:	00002021 	move	a0,zero
   119b0:	02402021 	move	a0,s2
   119b4:	0a001a32 	j	0x80068c8
   119b8:	24020013 	li	v0,19
   119bc:	8f850034 	lw	a1,52(gp)
   119c0:	27bdffd8 	addiu	sp,sp,-40
   119c4:	afb3001c 	sw	s3,28(sp)
   119c8:	afb20018 	sw	s2,24(sp)
   119cc:	afb10014 	sw	s1,20(sp)
   119d0:	afb00010 	sw	s0,16(sp)
   119d4:	afbf0020 	sw	ra,32(sp)
   119d8:	90a700d4 	lbu	a3,212(a1)
   119dc:	8f900048 	lw	s0,72(gp)
   119e0:	2412ffff 	li	s2,-1
   119e4:	34e20040 	ori	v0,a3,0x40
   119e8:	92060000 	lbu	a2,0(s0)
   119ec:	a0a200d4 	sb	v0,212(a1)
   119f0:	8e030010 	lw	v1,16(s0)
   119f4:	00809821 	move	s3,a0
   119f8:	10720006 	beq	v1,s2,0x11a14
   119fc:	30d1003f 	andi	s1,a2,0x3f
   11a00:	2408000d 	li	t0,13
   11a04:	0e0019e1 	jal	0x8006784
   11a08:	a3880064 	sb	t0,100(gp)
   11a0c:	10520025 	beq	v0,s2,0x11aa4
   11a10:	2404ffff 	li	a0,-1
   11a14:	8f8a0034 	lw	t2,52(gp)
   11a18:	8e090018 	lw	t1,24(s0)
   11a1c:	8d4400d0 	lw	a0,208(t2)
   11a20:	11240007 	beq	t1,a0,0x11a40
   11a24:	02602021 	move	a0,s3
   11a28:	240c000e 	li	t4,14
   11a2c:	0e0019e1 	jal	0x8006784
   11a30:	a38c0064 	sb	t4,100(gp)
   11a34:	240bffff 	li	t3,-1
   11a38:	104b001a 	beq	v0,t3,0x11aa4
   11a3c:	2404ffff 	li	a0,-1
   11a40:	24040020 	li	a0,32
   11a44:	12240004 	beq	s1,a0,0x11a58
   11a48:	8f8d0034 	lw	t5,52(gp)
   11a4c:	91af00d4 	lbu	t7,212(t5)
   11a50:	35ee0020 	ori	t6,t7,0x20
   11a54:	a1ae00d4 	sb	t6,212(t5)
   11a58:	8f850050 	lw	a1,80(gp)
   11a5c:	10a00019 	beqz	a1,0x11ac4
   11a60:	00000000 	nop
   11a64:	1224004a 	beq	s1,a0,0x11b90
   11a68:	8f980034 	lw	t8,52(gp)
   11a6c:	8f92fcb8 	lw	s2,-840(gp)
   11a70:	97100080 	lhu	s0,128(t8)
   11a74:	9651000a 	lhu	s1,10(s2)
   11a78:	52300048 	beql	s1,s0,0x11b9c
   11a7c:	8f93003c 	lw	s3,60(gp)
   11a80:	3c1f0800 	lui	ra,0x800
   11a84:	8fff318c 	lw	ra,12684(ra)
   11a88:	03e5c82b 	sltu	t9,ra,a1
   11a8c:	1720001e 	bnez	t9,0x11b08
   11a90:	02602021 	move	a0,s3
   11a94:	00002821 	move	a1,zero
   11a98:	0e001940 	jal	0x8006500
   11a9c:	24060001 	li	a2,1
   11aa0:	00002021 	move	a0,zero
   11aa4:	8fbf0020 	lw	ra,32(sp)
   11aa8:	8fb3001c 	lw	s3,28(sp)
   11aac:	8fb20018 	lw	s2,24(sp)
   11ab0:	8fb10014 	lw	s1,20(sp)
   11ab4:	8fb00010 	lw	s0,16(sp)
   11ab8:	00801021 	move	v0,a0
   11abc:	03e00008 	jr	ra
   11ac0:	27bd0028 	addiu	sp,sp,40
   11ac4:	5224002a 	beql	s1,a0,0x11b70
   11ac8:	8e050014 	lw	a1,20(s0)
   11acc:	8f840034 	lw	a0,52(gp)
   11ad0:	948a0080 	lhu	t2,128(a0)
   11ad4:	25490001 	addiu	t1,t2,1
   11ad8:	a4890080 	sh	t1,128(a0)
   11adc:	94880080 	lhu	t0,128(a0)
   11ae0:	3c020800 	lui	v0,0x800
   11ae4:	8c423188 	lw	v0,12680(v0)
   11ae8:	31077fff 	andi	a3,t0,0x7fff
   11aec:	10e2000e 	beq	a3,v0,0x11b28
   11af0:	00000000 	nop
   11af4:	02602021 	move	a0,s3
   11af8:	0e0018cb 	jal	0x800632c
   11afc:	24050001 	li	a1,1
   11b00:	0a001aa2 	j	0x8006a88
   11b04:	00002021 	move	a0,zero
   11b08:	2402002d 	li	v0,45
   11b0c:	0e0019e1 	jal	0x8006784
   11b10:	a3820064 	sb	v0,100(gp)
   11b14:	2403ffff 	li	v1,-1
   11b18:	1443ffe1 	bne	v0,v1,0x11aa0
   11b1c:	2404ffff 	li	a0,-1
   11b20:	0a001aa3 	j	0x8006a8c
   11b24:	8fbf0020 	lw	ra,32(sp)
   11b28:	94990080 	lhu	t9,128(a0)
   11b2c:	241f8000 	li	ra,-32768
   11b30:	24050001 	li	a1,1
   11b34:	033fc024 	and	t8,t9,ra
   11b38:	a4980080 	sh	t8,128(a0)
   11b3c:	90920080 	lbu	s2,128(a0)
   11b40:	908e0080 	lbu	t6,128(a0)
   11b44:	325100ff 	andi	s1,s2,0xff
   11b48:	001181c2 	srl	s0,s1,0x7
   11b4c:	00107827 	nor	t7,zero,s0
   11b50:	000f69c0 	sll	t5,t7,0x7
   11b54:	31cc007f 	andi	t4,t6,0x7f
   11b58:	018d5825 	or	t3,t4,t5
   11b5c:	a08b0080 	sb	t3,128(a0)
   11b60:	0e0018cb 	jal	0x800632c
   11b64:	02602021 	move	a0,s3
   11b68:	0a001aa2 	j	0x8006a88
   11b6c:	00002021 	move	a0,zero
   11b70:	2406ffff 	li	a2,-1
   11b74:	54a6ffd6 	bnel	a1,a2,0x11ad0
   11b78:	8f840034 	lw	a0,52(gp)
   11b7c:	02602021 	move	a0,s3
   11b80:	0e0018cb 	jal	0x800632c
   11b84:	24050001 	li	a1,1
   11b88:	0a001aa2 	j	0x8006a88
   11b8c:	00002021 	move	a0,zero
   11b90:	02602021 	move	a0,s3
   11b94:	0a001abc 	j	0x8006af0
   11b98:	2402000a 	li	v0,10
   11b9c:	2404fffd 	li	a0,-3
   11ba0:	0a001aa2 	j	0x8006a88
   11ba4:	af93005c 	sw	s3,92(gp)
   11ba8:	8f880034 	lw	t0,52(gp)
   11bac:	27bdffe8 	addiu	sp,sp,-24
   11bb0:	afb00010 	sw	s0,16(sp)
   11bb4:	afbf0014 	sw	ra,20(sp)
   11bb8:	910a00d4 	lbu	t2,212(t0)
   11bbc:	8f870048 	lw	a3,72(gp)
   11bc0:	00808021 	move	s0,a0
   11bc4:	35490040 	ori	t1,t2,0x40
   11bc8:	8ce60010 	lw	a2,16(a3)
   11bcc:	a10900d4 	sb	t1,212(t0)
   11bd0:	3c020800 	lui	v0,0x800
   11bd4:	8c4231b0 	lw	v0,12720(v0)
   11bd8:	30c53fff 	andi	a1,a2,0x3fff
   11bdc:	00a2182b 	sltu	v1,a1,v0
   11be0:	10600007 	beqz	v1,0x11c00
   11be4:	8f85004c 	lw	a1,76(gp)
   11be8:	240dff80 	li	t5,-128
   11bec:	90ae000d 	lbu	t6,13(a1)
   11bf0:	01ae6024 	and	t4,t5,t6
   11bf4:	318b00ff 	andi	t3,t4,0xff
   11bf8:	15600008 	bnez	t3,0x11c1c
   11bfc:	0006c382 	srl	t8,a2,0xe
   11c00:	02002021 	move	a0,s0
   11c04:	2403000d 	li	v1,13
   11c08:	8fbf0014 	lw	ra,20(sp)
   11c0c:	8fb00010 	lw	s0,16(sp)
   11c10:	27bd0018 	addiu	sp,sp,24
   11c14:	0a0019e1 	j	0x8006784
   11c18:	a3830064 	sb	v1,100(gp)
   11c1c:	33060003 	andi	a2,t8,0x3
   11c20:	240f0002 	li	t7,2
   11c24:	54cffff7 	bnel	a2,t7,0x11c04
   11c28:	02002021 	move	a0,s0
   11c2c:	94a2001c 	lhu	v0,28(a1)
   11c30:	8f850034 	lw	a1,52(gp)
   11c34:	24190023 	li	t9,35
   11c38:	a4a200e8 	sh	v0,232(a1)
   11c3c:	8ce80000 	lw	t0,0(a3)
   11c40:	00081e02 	srl	v1,t0,0x18
   11c44:	307f003f 	andi	ra,v1,0x3f
   11c48:	13f90035 	beq	ra,t9,0x11d20
   11c4c:	3c0a0083 	lui	t2,0x83
   11c50:	8ce80018 	lw	t0,24(a3)
   11c54:	8ca600d0 	lw	a2,208(a1)
   11c58:	11060008 	beq	t0,a2,0x11c7c
   11c5c:	00000000 	nop
   11c60:	2405000e 	li	a1,14
   11c64:	0e0019e1 	jal	0x8006784
   11c68:	a3850064 	sb	a1,100(gp)
   11c6c:	2407ffff 	li	a3,-1
   11c70:	10470018 	beq	v0,a3,0x11cd4
   11c74:	2404ffff 	li	a0,-1
   11c78:	8f850034 	lw	a1,52(gp)
   11c7c:	90a900d4 	lbu	t1,212(a1)
   11c80:	35240020 	ori	a0,t1,0x20
   11c84:	a0a400d4 	sb	a0,212(a1)
   11c88:	8f8c0040 	lw	t4,64(gp)
   11c8c:	918e000d 	lbu	t6,13(t4)
   11c90:	31cd007f 	andi	t5,t6,0x7f
   11c94:	a18d000d 	sb	t5,13(t4)
   11c98:	8f830050 	lw	v1,80(gp)
   11c9c:	1060001c 	beqz	v1,0x11d10
   11ca0:	02002021 	move	a0,s0
   11ca4:	8f84004c 	lw	a0,76(gp)
   11ca8:	8c980010 	lw	t8,16(a0)
   11cac:	0303782b 	sltu	t7,t8,v1
   11cb0:	11e0000d 	beqz	t7,0x11ce8
   11cb4:	24190018 	li	t9,24
   11cb8:	02002021 	move	a0,s0
   11cbc:	a3990064 	sb	t9,100(gp)
   11cc0:	0e0019e1 	jal	0x8006784
   11cc4:	2410ffff 	li	s0,-1
   11cc8:	10500002 	beq	v0,s0,0x11cd4
   11ccc:	2404ffff 	li	a0,-1
   11cd0:	00002021 	move	a0,zero
   11cd4:	8fbf0014 	lw	ra,20(sp)
   11cd8:	8fb00010 	lw	s0,16(sp)
   11cdc:	00801021 	move	v0,a0
   11ce0:	03e00008 	jr	ra
   11ce4:	27bd0018 	addiu	sp,sp,24
   11ce8:	8c860010 	lw	a2,16(a0)
   11cec:	8f9f0040 	lw	ra,64(gp)
   11cf0:	02002021 	move	a0,s0
   11cf4:	00c31023 	subu	v0,a2,v1
   11cf8:	afe20010 	sw	v0,16(ra)
   11cfc:	24050001 	li	a1,1
   11d00:	0e001940 	jal	0x8006500
   11d04:	24060001 	li	a2,1
   11d08:	0a001b2e 	j	0x8006cb8
   11d0c:	00002021 	move	a0,zero
   11d10:	0e0018cb 	jal	0x800632c
   11d14:	24050001 	li	a1,1
   11d18:	0a001b2e 	j	0x8006cb8
   11d1c:	00002021 	move	a0,zero
   11d20:	010a5824 	and	t3,t0,t2
   11d24:	156affd9 	bne	t3,t2,0x11c8c
   11d28:	8f8c0040 	lw	t4,64(gp)
   11d2c:	a0a600fc 	sb	a2,252(a1)
   11d30:	0a001b1b 	j	0x8006c6c
   11d34:	a3860056 	sb	a2,86(gp)
   11d38:	30a500ff 	andi	a1,a1,0xff
   11d3c:	24060001 	li	a2,1
   11d40:	24a90001 	addiu	t1,a1,1
   11d44:	00c9102b 	sltu	v0,a2,t1
   11d48:	1040000c 	beqz	v0,0x11d7c
   11d4c:	00004021 	move	t0,zero
   11d50:	240a0001 	li	t2,1
   11d54:	00a61823 	subu	v1,a1,a2
   11d58:	308b0001 	andi	t3,a0,0x1
   11d5c:	24c60001 	addiu	a2,a2,1
   11d60:	006a3804 	sllv	a3,t2,v1
   11d64:	00042042 	srl	a0,a0,0x1
   11d68:	11600002 	beqz	t3,0x11d74
   11d6c:	00c9182b 	sltu	v1,a2,t1
   11d70:	01074025 	or	t0,t0,a3
   11d74:	1460fff8 	bnez	v1,0x11d58
   11d78:	00a61823 	subu	v1,a1,a2
   11d7c:	03e00008 	jr	ra
   11d80:	01001021 	move	v0,t0
   11d84:	27bdffd8 	addiu	sp,sp,-40
   11d88:	afb00018 	sw	s0,24(sp)
   11d8c:	8f900048 	lw	s0,72(gp)
   11d90:	afb1001c 	sw	s1,28(sp)
   11d94:	afbf0020 	sw	ra,32(sp)
   11d98:	2403ffff 	li	v1,-1
   11d9c:	2411002f 	li	s1,47
   11da0:	afa30010 	sw	v1,16(sp)
   11da4:	92060000 	lbu	a2,0(s0)
   11da8:	24050008 	li	a1,8
   11dac:	26100001 	addiu	s0,s0,1
   11db0:	00662026 	xor	a0,v1,a2
   11db4:	0e001b47 	jal	0x8006d1c
   11db8:	308400ff 	andi	a0,a0,0xff
   11dbc:	00021e00 	sll	v1,v0,0x18
   11dc0:	3c021edc 	lui	v0,0x1edc
   11dc4:	34466f41 	ori	a2,v0,0x6f41
   11dc8:	0a001b6f 	j	0x8006dbc
   11dcc:	00001021 	move	v0,zero
   11dd0:	10a00009 	beqz	a1,0x11df8
   11dd4:	00801821 	move	v1,a0
   11dd8:	24450001 	addiu	a1,v0,1
   11ddc:	30a2ffff 	andi	v0,a1,0xffff
   11de0:	2c450008 	sltiu	a1,v0,8
   11de4:	0461fffa 	bgez	v1,0x11dd0
   11de8:	00032040 	sll	a0,v1,0x1
   11dec:	00862026 	xor	a0,a0,a2
   11df0:	14a0fff9 	bnez	a1,0x11dd8
   11df4:	00801821 	move	v1,a0
   11df8:	0e001b47 	jal	0x8006d1c
   11dfc:	24050020 	li	a1,32
   11e00:	8fa30010 	lw	v1,16(sp)
   11e04:	2629ffff 	addiu	t1,s1,-1
   11e08:	313100ff 	andi	s1,t1,0xff
   11e0c:	00034202 	srl	t0,v1,0x8
   11e10:	240700ff 	li	a3,255
   11e14:	1627ffe2 	bne	s1,a3,0x11da0
   11e18:	01021826 	xor	v1,t0,v0
   11e1c:	00035027 	nor	t2,zero,v1
   11e20:	afaa0014 	sw	t2,20(sp)
   11e24:	afaa0010 	sw	t2,16(sp)
   11e28:	00003021 	move	a2,zero
   11e2c:	27a80010 	addiu	t0,sp,16
   11e30:	27a70014 	addiu	a3,sp,20
   11e34:	00e67823 	subu	t7,a3,a2
   11e38:	91ed0003 	lbu	t5,3(t7)
   11e3c:	24ce0001 	addiu	t6,a2,1
   11e40:	00c86021 	addu	t4,a2,t0
   11e44:	31c600ff 	andi	a2,t6,0xff
   11e48:	2ccb0004 	sltiu	t3,a2,4
   11e4c:	1560fff9 	bnez	t3,0x11e34
   11e50:	a18d0000 	sb	t5,0(t4)
   11e54:	8fa20010 	lw	v0,16(sp)
   11e58:	8fbf0020 	lw	ra,32(sp)
   11e5c:	8fb1001c 	lw	s1,28(sp)
   11e60:	8fb00018 	lw	s0,24(sp)
   11e64:	03e00008 	jr	ra
   11e68:	27bd0028 	addiu	sp,sp,40
   11e6c:	27bdffd0 	addiu	sp,sp,-48
   11e70:	afb3001c 	sw	s3,28(sp)
   11e74:	afb00010 	sw	s0,16(sp)
   11e78:	afbf0028 	sw	ra,40(sp)
   11e7c:	afb50024 	sw	s5,36(sp)
   11e80:	afb40020 	sw	s4,32(sp)
   11e84:	afb20018 	sw	s2,24(sp)
   11e88:	afb10014 	sw	s1,20(sp)
   11e8c:	3c0c8000 	lui	t4,0x8000
   11e90:	8d880128 	lw	t0,296(t4)
   11e94:	240fff80 	li	t7,-128
   11e98:	3c06800a 	lui	a2,0x800a
   11e9c:	25100100 	addiu	s0,t0,256
   11ea0:	250b0080 	addiu	t3,t0,128
   11ea4:	020f6824 	and	t5,s0,t7
   11ea8:	3205007f 	andi	a1,s0,0x7f
   11eac:	016f7024 	and	t6,t3,t7
   11eb0:	ad8e0090 	sw	t6,144(t4)
   11eb4:	00a62821 	addu	a1,a1,a2
   11eb8:	ad8d0024 	sw	t5,36(t4)
   11ebc:	90a600fc 	lbu	a2,252(a1)
   11ec0:	3169007f 	andi	t1,t3,0x7f
   11ec4:	3c0a8004 	lui	t2,0x8004
   11ec8:	012a1821 	addu	v1,t1,t2
   11ecc:	a3860056 	sb	a2,86(gp)
   11ed0:	9067007c 	lbu	a3,124(v1)
   11ed4:	00809821 	move	s3,a0
   11ed8:	af83002c 	sw	v1,44(gp)
   11edc:	30e20002 	andi	v0,a3,0x2
   11ee0:	af880068 	sw	t0,104(gp)
   11ee4:	af850034 	sw	a1,52(gp)
   11ee8:	00a01821 	move	v1,a1
   11eec:	14400002 	bnez	v0,0x11ef8
   11ef0:	24040034 	li	a0,52
   11ef4:	24040030 	li	a0,48
   11ef8:	a3840044 	sb	a0,68(gp)
   11efc:	8c7200dc 	lw	s2,220(v1)
   11f00:	30d100ff 	andi	s1,a2,0xff
   11f04:	24040004 	li	a0,4
   11f08:	af92005c 	sw	s2,92(gp)
   11f0c:	12240004 	beq	s1,a0,0x11f20
   11f10:	a3800064 	sb	zero,100(gp)
   11f14:	8e740004 	lw	s4,4(s3)
   11f18:	1680001e 	bnez	s4,0x11f94
   11f1c:	3c088000 	lui	t0,0x8000
   11f20:	93860055 	lbu	a2,85(gp)
   11f24:	30c70001 	andi	a3,a2,0x1
   11f28:	50e0000f 	beqzl	a3,0x11f68
   11f2c:	8f86005c 	lw	a2,92(gp)
   11f30:	8ca40084 	lw	a0,132(a1)
   11f34:	8ca80084 	lw	t0,132(a1)
   11f38:	2413ff80 	li	s3,-128
   11f3c:	00936024 	and	t4,a0,s3
   11f40:	000c4940 	sll	t1,t4,0x5
   11f44:	3110007f 	andi	s0,t0,0x7f
   11f48:	01307825 	or	t7,t1,s0
   11f4c:	3c192000 	lui	t9,0x2000
   11f50:	01f96825 	or	t5,t7,t9
   11f54:	30df00fe 	andi	ra,a2,0xfe
   11f58:	3c038000 	lui	v1,0x8000
   11f5c:	ac6d0830 	sw	t5,2096(v1)
   11f60:	a39f0055 	sb	ra,85(gp)
   11f64:	8f86005c 	lw	a2,92(gp)
   11f68:	8fbf0028 	lw	ra,40(sp)
   11f6c:	8fb50024 	lw	s5,36(sp)
   11f70:	8fb40020 	lw	s4,32(sp)
   11f74:	8fb3001c 	lw	s3,28(sp)
   11f78:	8fb20018 	lw	s2,24(sp)
   11f7c:	8fb10014 	lw	s1,20(sp)
   11f80:	8fb00010 	lw	s0,16(sp)
   11f84:	24020001 	li	v0,1
   11f88:	27bd0030 	addiu	sp,sp,48
   11f8c:	03e00008 	jr	ra
   11f90:	aca600dc 	sw	a2,220(a1)
   11f94:	8e7f0008 	lw	ra,8(s3)
   11f98:	95020120 	lhu	v0,288(t0)
   11f9c:	8e670010 	lw	a3,16(s3)
   11fa0:	03e2c821 	addu	t9,ra,v0
   11fa4:	3326ffff 	andi	a2,t9,0xffff
   11fa8:	30d8000f 	andi	t8,a2,0xf
   11fac:	33150001 	andi	s5,t8,0x1
   11fb0:	af870030 	sw	a3,48(gp)
   11fb4:	16a00058 	bnez	s5,0x12118
   11fb8:	a3980054 	sb	t8,84(gp)
   11fbc:	35090c00 	ori	t1,t0,0xc00
   11fc0:	03093821 	addu	a3,t8,t1
   11fc4:	00d81823 	subu	v1,a2,t8
   11fc8:	ad030084 	sw	v1,132(t0)
   11fcc:	af870060 	sw	a3,96(gp)
   11fd0:	8e6a0004 	lw	t2,4(s3)
   11fd4:	3148ffff 	andi	t0,t2,0xffff
   11fd8:	1100007e 	beqz	t0,0x121d4
   11fdc:	a78a0058 	sh	t2,88(gp)
   11fe0:	90ac00d4 	lbu	t4,212(a1)
   11fe4:	2407ff80 	li	a3,-128
   11fe8:	00ec3024 	and	a2,a3,t4
   11fec:	30cb00ff 	andi	t3,a2,0xff
   11ff0:	1560004b 	bnez	t3,0x12120
   11ff4:	97860058 	lhu	a2,88(gp)
   11ff8:	938e0056 	lbu	t6,86(gp)
   11ffc:	240d0002 	li	t5,2
   12000:	30d5ffff 	andi	s5,a2,0xffff
   12004:	11cd02a2 	beq	t6,t5,0x12a90
   12008:	0000a021 	move	s4,zero
   1200c:	8f85005c 	lw	a1,92(gp)
   12010:	02a5802b 	sltu	s0,s5,a1
   12014:	160000bc 	bnez	s0,0x12308
   12018:	93880044 	lbu	t0,68(gp)
   1201c:	3c118000 	lui	s1,0x8000
   12020:	96240120 	lhu	a0,288(s1)
   12024:	310400ff 	andi	a0,t0,0xff
   12028:	14850088 	bne	a0,a1,0x1224c
   1202c:	8f840060 	lw	a0,96(gp)
   12030:	8f980030 	lw	t8,48(gp)
   12034:	33120003 	andi	s2,t8,0x3
   12038:	56400085 	bnezl	s2,0x12250
   1203c:	30a500ff 	andi	a1,a1,0xff
   12040:	8f900060 	lw	s0,96(gp)
   12044:	310c00ff 	andi	t4,t0,0xff
   12048:	24060034 	li	a2,52
   1204c:	11860095 	beq	t4,a2,0x122a4
   12050:	af900048 	sw	s0,72(gp)
   12054:	92040004 	lbu	a0,4(s0)
   12058:	14800119 	bnez	a0,0x124c0
   1205c:	8f8e0034 	lw	t6,52(gp)
   12060:	a3800038 	sb	zero,56(gp)
   12064:	8e0d0004 	lw	t5,4(s0)
   12068:	8dc800d8 	lw	t0,216(t6)
   1206c:	3c0600ff 	lui	a2,0xff
   12070:	34ccffff 	ori	t4,a2,0xffff
   12074:	01ac3024 	and	a2,t5,t4
   12078:	0106182b 	sltu	v1,t0,a2
   1207c:	14600121 	bnez	v1,0x12504
   12080:	af860050 	sw	a2,80(gp)
   12084:	8f87005c 	lw	a3,92(gp)
   12088:	97980058 	lhu	t8,88(gp)
   1208c:	af87003c 	sw	a3,60(gp)
   12090:	03074023 	subu	t0,t8,a3
   12094:	10c000c7 	beqz	a2,0x123b4
   12098:	a7880058 	sh	t0,88(gp)
   1209c:	8f91002c 	lw	s1,44(gp)
   120a0:	30c30003 	andi	v1,a2,0x3
   120a4:	00035823 	negu	t3,v1
   120a8:	922a007c 	lbu	t2,124(s1)
   120ac:	31710003 	andi	s1,t3,0x3
   120b0:	02261021 	addu	v0,s1,a2
   120b4:	000a2082 	srl	a0,t2,0x2
   120b8:	30920001 	andi	s2,a0,0x1
   120bc:	00124880 	sll	t1,s2,0x2
   120c0:	00492821 	addu	a1,v0,t1
   120c4:	311fffff 	andi	ra,t0,0xffff
   120c8:	03e5c82b 	sltu	t9,ra,a1
   120cc:	13200120 	beqz	t9,0x12550
   120d0:	8f880034 	lw	t0,52(gp)
   120d4:	8f850030 	lw	a1,48(gp)
   120d8:	8f880060 	lw	t0,96(gp)
   120dc:	1105025a 	beq	t0,a1,0x12a48
   120e0:	3c0e3f01 	lui	t6,0x3f01
   120e4:	8e060000 	lw	a2,0(s0)
   120e8:	3c0c2500 	lui	t4,0x2500
   120ec:	00ce6824 	and	t5,a2,t6
   120f0:	11ac0163 	beq	t5,t4,0x12680
   120f4:	8f840048 	lw	a0,72(gp)
   120f8:	30e500ff 	andi	a1,a3,0xff
   120fc:	0e0017e1 	jal	0x8005f84
   12100:	00003021 	move	a2,zero
   12104:	8f880034 	lw	t0,52(gp)
   12108:	8f87005c 	lw	a3,92(gp)
   1210c:	8f850030 	lw	a1,48(gp)
   12110:	0a001d4e 	j	0x8007538
   12114:	8f860050 	lw	a2,80(gp)
   12118:	0a001bed 	j	0x8006fb4
   1211c:	af870060 	sw	a3,96(gp)
   12120:	90ac00d4 	lbu	t4,212(a1)
   12124:	00ec2024 	and	a0,a3,t4
   12128:	309000ff 	andi	s0,a0,0xff
   1212c:	12000016 	beqz	s0,0x12188
   12130:	93860055 	lbu	a2,85(gp)
   12134:	90b50088 	lbu	s5,136(a1)
   12138:	90b400d7 	lbu	s4,215(a1)
   1213c:	24a80088 	addiu	t0,a1,136
   12140:	32a2003f 	andi	v0,s5,0x3f
   12144:	2446ffe0 	addiu	a2,v0,-32
   12148:	2cd10020 	sltiu	s1,a2,32
   1214c:	a3940038 	sb	s4,56(gp)
   12150:	1220000c 	beqz	s1,0x12184
   12154:	af880048 	sw	t0,72(gp)
   12158:	240e0001 	li	t6,1
   1215c:	00ce2004 	sllv	a0,t6,a2
   12160:	308a0019 	andi	t2,a0,0x19
   12164:	1540012b 	bnez	t2,0x12614
   12168:	3c068000 	lui	a2,0x8000
   1216c:	34d80002 	ori	t8,a2,0x2
   12170:	00985824 	and	t3,a0,t8
   12174:	1560022e 	bnez	t3,0x12a30
   12178:	30920020 	andi	s2,a0,0x20
   1217c:	16400234 	bnez	s2,0x12a50
   12180:	00000000 	nop
   12184:	93860055 	lbu	a2,85(gp)
   12188:	30ce0001 	andi	t6,a2,0x1
   1218c:	11c0000f 	beqz	t6,0x121cc
   12190:	97880058 	lhu	t0,88(gp)
   12194:	8ca90084 	lw	t1,132(a1)
   12198:	8caf0084 	lw	t7,132(a1)
   1219c:	2410ff80 	li	s0,-128
   121a0:	0130c824 	and	t9,t1,s0
   121a4:	00191940 	sll	v1,t9,0x5
   121a8:	31ed007f 	andi	t5,t7,0x7f
   121ac:	006d3825 	or	a3,v1,t5
   121b0:	3c1f2000 	lui	ra,0x2000
   121b4:	00ff9025 	or	s2,a3,ra
   121b8:	30cb00fe 	andi	t3,a2,0xfe
   121bc:	3c188000 	lui	t8,0x8000
   121c0:	af120830 	sw	s2,2096(t8)
   121c4:	a38b0055 	sb	t3,85(gp)
   121c8:	97880058 	lhu	t0,88(gp)
   121cc:	1500ff84 	bnez	t0,0x11fe0
   121d0:	00000000 	nop
   121d4:	8e630020 	lw	v1,32(s3)
   121d8:	306c0004 	andi	t4,v1,0x4
   121dc:	1180ff51 	beqz	t4,0x11f24
   121e0:	93860055 	lbu	a2,85(gp)
   121e4:	2404fffb 	li	a0,-5
   121e8:	00643024 	and	a2,v1,a0
   121ec:	3c038000 	lui	v1,0x8000
   121f0:	ae660020 	sw	a2,32(s3)
   121f4:	34660180 	ori	a2,v1,0x180
   121f8:	8c7301b8 	lw	s3,440(v1)
   121fc:	0660fffe 	bltz	s3,0x121f8
   12200:	8f8e0068 	lw	t6,104(gp)
   12204:	346a0100 	ori	t2,v1,0x100
   12208:	3c150001 	lui	s5,0x1
   1220c:	acce0000 	sw	t6,0(a2)
   12210:	8c620124 	lw	v0,292(v1)
   12214:	24076085 	li	a3,24709
   12218:	acc20004 	sw	v0,4(a2)
   1221c:	8d540004 	lw	s4,4(t2)
   12220:	02958824 	and	s1,s4,s5
   12224:	52200001 	beqzl	s1,0x1222c
   12228:	24076083 	li	a3,24707
   1222c:	24120002 	li	s2,2
   12230:	3c181000 	lui	t8,0x1000
   12234:	3c0b8000 	lui	t3,0x8000
   12238:	a4c70008 	sh	a3,8(a2)
   1223c:	a0d2000b 	sb	s2,11(a2)
   12240:	ad7801b8 	sw	t8,440(t3)
   12244:	0a001bc2 	j	0x8006f08
   12248:	93860055 	lbu	a2,85(gp)
   1224c:	30a500ff 	andi	a1,a1,0xff
   12250:	0e0017e1 	jal	0x8005f84
   12254:	24060001 	li	a2,1
   12258:	8f880068 	lw	t0,104(gp)
   1225c:	3c058000 	lui	a1,0x8000
   12260:	34a90900 	ori	t1,a1,0x900
   12264:	25020188 	addiu	v0,t0,392
   12268:	93880044 	lbu	t0,68(gp)
   1226c:	304a0007 	andi	t2,v0,0x7
   12270:	304b0078 	andi	t3,v0,0x78
   12274:	3c034080 	lui	v1,0x4080
   12278:	2407ff80 	li	a3,-128
   1227c:	0163c825 	or	t9,t3,v1
   12280:	01498021 	addu	s0,t2,t1
   12284:	0047f824 	and	ra,v0,a3
   12288:	310c00ff 	andi	t4,t0,0xff
   1228c:	24060034 	li	a2,52
   12290:	acbf0800 	sw	ra,2048(a1)
   12294:	af900048 	sw	s0,72(gp)
   12298:	acb90810 	sw	t9,2064(a1)
   1229c:	5586ff6e 	bnel	t4,a2,0x12058
   122a0:	92040004 	lbu	a0,4(s0)
   122a4:	8f840034 	lw	a0,52(gp)
   122a8:	8e110030 	lw	s1,48(s0)
   122ac:	908e00d4 	lbu	t6,212(a0)
   122b0:	31cd0010 	andi	t5,t6,0x10
   122b4:	15a00010 	bnez	t5,0x122f8
   122b8:	8f83005c 	lw	v1,92(gp)
   122bc:	2c6f0005 	sltiu	t7,v1,5
   122c0:	15e000e4 	bnez	t7,0x12654
   122c4:	00000000 	nop
   122c8:	909800d4 	lbu	t8,212(a0)
   122cc:	2465fffc 	addiu	a1,v1,-4
   122d0:	33120010 	andi	s2,t8,0x10
   122d4:	16400008 	bnez	s2,0x122f8
   122d8:	30a400ff 	andi	a0,a1,0xff
   122dc:	8f9f0060 	lw	ra,96(gp)
   122e0:	8f990030 	lw	t9,48(gp)
   122e4:	13f90004 	beq	ra,t9,0x122f8
   122e8:	38870001 	xori	a3,a0,0x1
   122ec:	30e20001 	andi	v0,a3,0x1
   122f0:	144001c8 	bnez	v0,0x12a14
   122f4:	00000000 	nop
   122f8:	0e001b5a 	jal	0x8006d68
   122fc:	00000000 	nop
   12300:	0a001d8f 	j	0x800763c
   12304:	00000000 	nop
   12308:	8f840060 	lw	a0,96(gp)
   1230c:	30c500ff 	andi	a1,a2,0xff
   12310:	0e0017e1 	jal	0x8005f84
   12314:	24060001 	li	a2,1
   12318:	938e0044 	lbu	t6,68(gp)
   1231c:	240a0034 	li	t2,52
   12320:	11ca00a0 	beq	t6,t2,0x125a4
   12324:	8f850034 	lw	a1,52(gp)
   12328:	8f86005c 	lw	a2,92(gp)
   1232c:	97830058 	lhu	v1,88(gp)
   12330:	3062ffff 	andi	v0,v1,0xffff
   12334:	00c28823 	subu	s1,a2,v0
   12338:	af91005c 	sw	s1,92(gp)
   1233c:	a7800058 	sh	zero,88(gp)
   12340:	1280ff90 	beqz	s4,0x12184
   12344:	02801821 	move	v1,s4
   12348:	2414fffd 	li	s4,-3
   1234c:	5474ffa2 	bnel	v1,s4,0x121d8
   12350:	8e630020 	lw	v1,32(s3)
   12354:	8e690004 	lw	t1,4(s3)
   12358:	2403ffbf 	li	v1,-65
   1235c:	240bffef 	li	t3,-17
   12360:	0135c823 	subu	t9,t1,s5
   12364:	ae790004 	sw	t9,4(s3)
   12368:	90af00d4 	lbu	t7,212(a1)
   1236c:	31ed007f 	andi	t5,t7,0x7f
   12370:	a0ad00d4 	sb	t5,212(a1)
   12374:	8e660020 	lw	a2,32(s3)
   12378:	8f980034 	lw	t8,52(gp)
   1237c:	a7800058 	sh	zero,88(gp)
   12380:	34df0002 	ori	ra,a2,0x2
   12384:	ae7f0020 	sw	ra,32(s3)
   12388:	a70000bc 	sh	zero,188(t8)
   1238c:	931200d4 	lbu	s2,212(t8)
   12390:	02434024 	and	t0,s2,v1
   12394:	a30800d4 	sb	t0,212(t8)
   12398:	8f950034 	lw	s5,52(gp)
   1239c:	aea000ec 	sw	zero,236(s5)
   123a0:	92ae00d4 	lbu	t6,212(s5)
   123a4:	01cb5024 	and	t2,t6,t3
   123a8:	a2aa00d4 	sb	t2,212(s5)
   123ac:	0a001c6e 	j	0x80071b8
   123b0:	8f850034 	lw	a1,52(gp)
   123b4:	8f910030 	lw	s1,48(gp)
   123b8:	af80005c 	sw	zero,92(gp)
   123bc:	02275821 	addu	t3,s1,a3
   123c0:	af8b0030 	sw	t3,48(gp)
   123c4:	00002021 	move	a0,zero
   123c8:	2403ffff 	li	v1,-1
   123cc:	108301b4 	beq	a0,v1,0x12aa0
   123d0:	8f850034 	lw	a1,52(gp)
   123d4:	8e0c0010 	lw	t4,16(s0)
   123d8:	3c0d0800 	lui	t5,0x800
   123dc:	8dad31b0 	lw	t5,12720(t5)
   123e0:	92080000 	lbu	t0,0(s0)
   123e4:	31843fff 	andi	a0,t4,0x3fff
   123e8:	008d802b 	sltu	s0,a0,t5
   123ec:	12000023 	beqz	s0,0x1247c
   123f0:	310d003f 	andi	t5,t0,0x3f
   123f4:	3c190800 	lui	t9,0x800
   123f8:	8f3931a8 	lw	t9,12712(t9)
   123fc:	8f9f0068 	lw	ra,104(gp)
   12400:	00047980 	sll	t7,a0,0x6
   12404:	2408ff80 	li	t0,-128
   12408:	033f2021 	addu	a0,t9,ra
   1240c:	008fc821 	addu	t9,a0,t7
   12410:	93850055 	lbu	a1,85(gp)
   12414:	0328f824 	and	ra,t9,t0
   12418:	3c060080 	lui	a2,0x80
   1241c:	3c0f8000 	lui	t7,0x8000
   12420:	34d80001 	ori	t8,a2,0x1
   12424:	001f9140 	sll	s2,ra,0x5
   12428:	3331007f 	andi	s1,t9,0x7f
   1242c:	8f860034 	lw	a2,52(gp)
   12430:	02515025 	or	t2,s2,s1
   12434:	35ee0940 	ori	t6,t7,0x940
   12438:	332b0078 	andi	t3,t9,0x78
   1243c:	33300007 	andi	s0,t9,0x7
   12440:	3c031000 	lui	v1,0x1000
   12444:	3c02800c 	lui	v0,0x800c
   12448:	01789025 	or	s2,t3,t8
   1244c:	020e4821 	addu	t1,s0,t6
   12450:	0143c025 	or	t8,t2,v1
   12454:	02223821 	addu	a3,s1,v0
   12458:	34ae0001 	ori	t6,a1,0x1
   1245c:	adff0804 	sw	ra,2052(t7)
   12460:	af89004c 	sw	t1,76(gp)
   12464:	adf20814 	sw	s2,2068(t7)
   12468:	af870040 	sw	a3,64(gp)
   1246c:	adff0028 	sw	ra,40(t7)
   12470:	acd90084 	sw	t9,132(a2)
   12474:	adf80830 	sw	t8,2096(t7)
   12478:	a38e0055 	sb	t6,85(gp)
   1247c:	93830056 	lbu	v1,86(gp)
   12480:	24070003 	li	a3,3
   12484:	50670028 	beql	v1,a3,0x12528
   12488:	25a3ffe0 	addiu	v1,t5,-32
   1248c:	240c0001 	li	t4,1
   12490:	146cffab 	bne	v1,t4,0x12340
   12494:	8f850034 	lw	a1,52(gp)
   12498:	24110023 	li	s1,35
   1249c:	11b10084 	beq	t5,s1,0x126b0
   124a0:	00000000 	nop
   124a4:	2402000b 	li	v0,11
   124a8:	02602021 	move	a0,s3
   124ac:	0e0019e1 	jal	0x8006784
   124b0:	a3820064 	sb	v0,100(gp)
   124b4:	0040a021 	move	s4,v0
   124b8:	0a001cc9 	j	0x8007324
   124bc:	8f850034 	lw	a1,52(gp)
   124c0:	02602021 	move	a0,s3
   124c4:	240b000c 	li	t3,12
   124c8:	0e0019e1 	jal	0x8006784
   124cc:	a38b0064 	sb	t3,100(gp)
   124d0:	240affff 	li	t2,-1
   124d4:	104affbc 	beq	v0,t2,0x123c8
   124d8:	2404ffff 	li	a0,-1
   124dc:	8f8e0034 	lw	t6,52(gp)
   124e0:	a3800038 	sb	zero,56(gp)
   124e4:	8e0d0004 	lw	t5,4(s0)
   124e8:	8dc800d8 	lw	t0,216(t6)
   124ec:	3c0600ff 	lui	a2,0xff
   124f0:	34ccffff 	ori	t4,a2,0xffff
   124f4:	01ac3024 	and	a2,t5,t4
   124f8:	0106182b 	sltu	v1,t0,a2
   124fc:	1060fee1 	beqz	v1,0x12084
   12500:	af860050 	sw	a2,80(gp)
   12504:	02602021 	move	a0,s3
   12508:	24120019 	li	s2,25
   1250c:	0e0019e1 	jal	0x8006784
   12510:	a3920064 	sb	s2,100(gp)
   12514:	240fffff 	li	t7,-1
   12518:	104fffab 	beq	v0,t7,0x123c8
   1251c:	2404ffff 	li	a0,-1
   12520:	0a001c1a 	j	0x8007068
   12524:	8f860050 	lw	a2,80(gp)
   12528:	2c740020 	sltiu	s4,v1,32
   1252c:	1280ffde 	beqz	s4,0x124a8
   12530:	2402000b 	li	v0,11
   12534:	00032880 	sll	a1,v1,0x2
   12538:	3c110801 	lui	s1,0x801
   1253c:	263192ec 	addiu	s1,s1,-27924
   12540:	00b14821 	addu	t1,a1,s1
   12544:	8d2d0000 	lw	t5,0(t1)
   12548:	01a00008 	jr	t5
   1254c:	00000000 	nop
   12550:	8f850030 	lw	a1,48(gp)
   12554:	00a71021 	addu	v0,a1,a3
   12558:	93850038 	lbu	a1,56(gp)
   1255c:	af820030 	sw	v0,48(gp)
   12560:	02251821 	addu	v1,s1,a1
   12564:	a3830038 	sb	v1,56(gp)
   12568:	951f00bc 	lhu	ra,188(t0)
   1256c:	02262821 	addu	a1,s1,a2
   12570:	37f91000 	ori	t9,ra,0x1000
   12574:	a51900bc 	sh	t9,188(t0)
   12578:	5240ff92 	beqzl	s2,0x123c4
   1257c:	af85005c 	sw	a1,92(gp)
   12580:	246a0004 	addiu	t2,v1,4
   12584:	a38a0038 	sb	t2,56(gp)
   12588:	950900bc 	lhu	t1,188(t0)
   1258c:	24a40004 	addiu	a0,a1,4
   12590:	af84005c 	sw	a0,92(gp)
   12594:	35322000 	ori	s2,t1,0x2000
   12598:	a51200bc 	sh	s2,188(t0)
   1259c:	0a001ceb 	j	0x80073ac
   125a0:	00002021 	move	a0,zero
   125a4:	8f86005c 	lw	a2,92(gp)
   125a8:	2ccb0005 	sltiu	t3,a2,5
   125ac:	1560ff60 	bnez	t3,0x12330
   125b0:	97830058 	lhu	v1,88(gp)
   125b4:	3072ffff 	andi	s2,v1,0xffff
   125b8:	00d24023 	subu	t0,a2,s2
   125bc:	2d180005 	sltiu	t8,t0,5
   125c0:	13000003 	beqz	t8,0x125d0
   125c4:	306400ff 	andi	a0,v1,0xff
   125c8:	24dffffc 	addiu	ra,a2,-4
   125cc:	33e400ff 	andi	a0,ra,0xff
   125d0:	8f850060 	lw	a1,96(gp)
   125d4:	8f860030 	lw	a2,48(gp)
   125d8:	10a60004 	beq	a1,a2,0x125ec
   125dc:	388f0001 	xori	t7,a0,0x1
   125e0:	31ed0001 	andi	t5,t7,0x1
   125e4:	15a00138 	bnez	t5,0x12ac8
   125e8:	00000000 	nop
   125ec:	8f840034 	lw	a0,52(gp)
   125f0:	908c00d4 	lbu	t4,212(a0)
   125f4:	35870010 	ori	a3,t4,0x10
   125f8:	a08700d4 	sb	a3,212(a0)
   125fc:	8f850034 	lw	a1,52(gp)
   12600:	8f86005c 	lw	a2,92(gp)
   12604:	97830058 	lhu	v1,88(gp)
   12608:	aca000ec 	sw	zero,236(a1)
   1260c:	0a001cc6 	j	0x8007318
   12610:	3062ffff 	andi	v0,v1,0xffff
   12614:	8caa0084 	lw	t2,132(a1)
   12618:	8cb50084 	lw	s5,132(a1)
   1261c:	3c041000 	lui	a0,0x1000
   12620:	01471024 	and	v0,t2,a3
   12624:	00028940 	sll	s1,v0,0x5
   12628:	32b4007f 	andi	s4,s5,0x7f
   1262c:	02343025 	or	a2,s1,s4
   12630:	00c46025 	or	t4,a2,a0
   12634:	3c088000 	lui	t0,0x8000
   12638:	24050001 	li	a1,1
   1263c:	02602021 	move	a0,s3
   12640:	24060001 	li	a2,1
   12644:	0e001940 	jal	0x8006500
   12648:	ad0c0830 	sw	t4,2096(t0)
   1264c:	0a001c5a 	j	0x8007168
   12650:	8f850034 	lw	a1,52(gp)
   12654:	8c8200ec 	lw	v0,236(a0)
   12658:	1222fe7e 	beq	s1,v0,0x12054
   1265c:	02602021 	move	a0,s3
   12660:	24090005 	li	t1,5
   12664:	a3890064 	sb	t1,100(gp)
   12668:	0e0019e1 	jal	0x8006784
   1266c:	2411ffff 	li	s1,-1
   12670:	1451fe78 	bne	v0,s1,0x12054
   12674:	2404ffff 	li	a0,-1
   12678:	0a001cec 	j	0x80073b0
   1267c:	2403ffff 	li	v1,-1
   12680:	8f8f0048 	lw	t7,72(gp)
   12684:	8f880034 	lw	t0,52(gp)
   12688:	8df80000 	lw	t8,0(t7)
   1268c:	ad180088 	sw	t8,136(t0)
   12690:	8de70010 	lw	a3,16(t7)
   12694:	ad070098 	sw	a3,152(t0)
   12698:	8f87005c 	lw	a3,92(gp)
   1269c:	0a001d4e 	j	0x8007538
   126a0:	8f860050 	lw	a2,80(gp)
   126a4:	2407ffff 	li	a3,-1
   126a8:	11870005 	beq	t4,a3,0x126c0
   126ac:	00000000 	nop
   126b0:	0e001ae3 	jal	0x8006b8c
   126b4:	02602021 	move	a0,s3
   126b8:	0a001d27 	j	0x800749c
   126bc:	0040a021 	move	s4,v0
   126c0:	0e001a68 	jal	0x80069a0
   126c4:	02602021 	move	a0,s3
   126c8:	0a001d27 	j	0x800749c
   126cc:	0040a021 	move	s4,v0
   126d0:	8f900048 	lw	s0,72(gp)
   126d4:	3c090800 	lui	t1,0x800
   126d8:	8d2931b0 	lw	t1,12720(t1)
   126dc:	8e110010 	lw	s1,16(s0)
   126e0:	32323fff 	andi	s2,s1,0x3fff
   126e4:	0249682b 	sltu	t5,s2,t1
   126e8:	11a0000c 	beqz	t5,0x1271c
   126ec:	240aff80 	li	t2,-128
   126f0:	8f85004c 	lw	a1,76(gp)
   126f4:	90ae000d 	lbu	t6,13(a1)
   126f8:	014e1024 	and	v0,t2,t6
   126fc:	304c00ff 	andi	t4,v0,0xff
   12700:	11800007 	beqz	t4,0x12720
   12704:	02602021 	move	a0,s3
   12708:	0011c382 	srl	t8,s1,0xe
   1270c:	33030003 	andi	v1,t8,0x3
   12710:	240b0001 	li	t3,1
   12714:	106b0105 	beq	v1,t3,0x12b2c
   12718:	00000000 	nop
   1271c:	02602021 	move	a0,s3
   12720:	2418000d 	li	t8,13
   12724:	0e0019e1 	jal	0x8006784
   12728:	a3980064 	sb	t8,100(gp)
   1272c:	00402021 	move	a0,v0
   12730:	8f850034 	lw	a1,52(gp)
   12734:	0a001cc9 	j	0x8007324
   12738:	0080a021 	move	s4,a0
   1273c:	8f900048 	lw	s0,72(gp)
   12740:	3c0a0800 	lui	t2,0x800
   12744:	8d4a31b0 	lw	t2,12720(t2)
   12748:	8f85004c 	lw	a1,76(gp)
   1274c:	8e040010 	lw	a0,16(s0)
   12750:	0000a021 	move	s4,zero
   12754:	8cb10014 	lw	s1,20(a1)
   12758:	30823fff 	andi	v0,a0,0x3fff
   1275c:	004a602b 	sltu	t4,v0,t2
   12760:	8cb20020 	lw	s2,32(a1)
   12764:	5180ffee 	beqzl	t4,0x12720
   12768:	02602021 	move	a0,s3
   1276c:	90b8000d 	lbu	t8,13(a1)
   12770:	240bff80 	li	t3,-128
   12774:	01787024 	and	t6,t3,t8
   12778:	31c300ff 	andi	v1,t6,0xff
   1277c:	5060ffe8 	beqzl	v1,0x12720
   12780:	02602021 	move	a0,s3
   12784:	00044382 	srl	t0,a0,0xe
   12788:	31060003 	andi	a2,t0,0x3
   1278c:	14c0ffe4 	bnez	a2,0x12720
   12790:	02602021 	move	a0,s3
   12794:	94bf001c 	lhu	ra,28(a1)
   12798:	8f990034 	lw	t9,52(gp)
   1279c:	8e060028 	lw	a2,40(s0)
   127a0:	a73f00e8 	sh	ra,232(t9)
   127a4:	8caf0010 	lw	t7,16(a1)
   127a8:	022f2023 	subu	a0,s1,t7
   127ac:	14c40139 	bne	a2,a0,0x12c94
   127b0:	02602021 	move	a0,s3
   127b4:	8f830050 	lw	v1,80(gp)
   127b8:	00c36821 	addu	t5,a2,v1
   127bc:	022d382b 	sltu	a3,s1,t5
   127c0:	14e00135 	bnez	a3,0x12c98
   127c4:	24020018 	li	v0,24
   127c8:	8f8a0040 	lw	t2,64(gp)
   127cc:	8f82002c 	lw	v0,44(gp)
   127d0:	02439021 	addu	s2,s2,v1
   127d4:	8d4b0010 	lw	t3,16(t2)
   127d8:	01637023 	subu	t6,t3,v1
   127dc:	ad4e0010 	sw	t6,16(t2)
   127e0:	ad520020 	sw	s2,32(t2)
   127e4:	8c4c0074 	lw	t4,116(v0)
   127e8:	0192282b 	sltu	a1,t4,s2
   127ec:	14a00156 	bnez	a1,0x12d48
   127f0:	02602021 	move	a0,s3
   127f4:	8f84004c 	lw	a0,76(gp)
   127f8:	8e080024 	lw	t0,36(s0)
   127fc:	8c860024 	lw	a2,36(a0)
   12800:	11060007 	beq	t0,a2,0x12820
   12804:	02602021 	move	a0,s3
   12808:	2419001c 	li	t9,28
   1280c:	0e0019e1 	jal	0x8006784
   12810:	a3990064 	sb	t9,100(gp)
   12814:	240fffff 	li	t7,-1
   12818:	104fffc5 	beq	v0,t7,0x12730
   1281c:	2404ffff 	li	a0,-1
   12820:	8f840040 	lw	a0,64(gp)
   12824:	8c870024 	lw	a3,36(a0)
   12828:	24ff0001 	addiu	ra,a3,1
   1282c:	ac9f0024 	sw	ra,36(a0)
   12830:	12510133 	beq	s2,s1,0x12d00
   12834:	8f8d002c 	lw	t5,44(gp)
   12838:	8db10074 	lw	s1,116(t5)
   1283c:	12320130 	beq	s1,s2,0x12d00
   12840:	3c0b0080 	lui	t3,0x80
   12844:	8e0e0000 	lw	t6,0(s0)
   12848:	01cb5024 	and	t2,t6,t3
   1284c:	15400075 	bnez	t2,0x12a24
   12850:	00000000 	nop
   12854:	8e030014 	lw	v1,20(s0)
   12858:	2411ffff 	li	s1,-1
   1285c:	10710006 	beq	v1,s1,0x12878
   12860:	02602021 	move	a0,s3
   12864:	2418001b 	li	t8,27
   12868:	0e0019e1 	jal	0x8006784
   1286c:	a3980064 	sb	t8,100(gp)
   12870:	1051ffaf 	beq	v0,s1,0x12730
   12874:	2404ffff 	li	a0,-1
   12878:	8e030000 	lw	v1,0(s0)
   1287c:	3c080001 	lui	t0,0x1
   12880:	00683024 	and	a2,v1,t0
   12884:	10c00013 	beqz	a2,0x128d4
   12888:	3c040080 	lui	a0,0x80
   1288c:	0064a024 	and	s4,v1,a0
   12890:	16800009 	bnez	s4,0x128b8
   12894:	02002821 	move	a1,s0
   12898:	02602021 	move	a0,s3
   1289c:	2419001a 	li	t9,26
   128a0:	0e0019e1 	jal	0x8006784
   128a4:	a3990064 	sb	t9,100(gp)
   128a8:	240fffff 	li	t7,-1
   128ac:	104fffa0 	beq	v0,t7,0x12730
   128b0:	2404ffff 	li	a0,-1
   128b4:	02002821 	move	a1,s0
   128b8:	02602021 	move	a0,s3
   128bc:	0e001a01 	jal	0x8006804
   128c0:	24060001 	li	a2,1
   128c4:	2410ffff 	li	s0,-1
   128c8:	1050ff99 	beq	v0,s0,0x12730
   128cc:	2404ffff 	li	a0,-1
   128d0:	24140001 	li	s4,1
   128d4:	8f9f0040 	lw	ra,64(gp)
   128d8:	02602021 	move	a0,s3
   128dc:	02803021 	move	a2,s4
   128e0:	97f10034 	lhu	s1,52(ra)
   128e4:	24050001 	li	a1,1
   128e8:	26270001 	addiu	a3,s1,1
   128ec:	a7e70034 	sh	a3,52(ra)
   128f0:	0e001940 	jal	0x8006500
   128f4:	00000000 	nop
   128f8:	00002021 	move	a0,zero
   128fc:	8f850034 	lw	a1,52(gp)
   12900:	0a001cc9 	j	0x8007324
   12904:	0080a021 	move	s4,a0
   12908:	8f900048 	lw	s0,72(gp)
   1290c:	3c140800 	lui	s4,0x800
   12910:	8e9431b0 	lw	s4,12720(s4)
   12914:	8e070010 	lw	a3,16(s0)
   12918:	30e83fff 	andi	t0,a3,0x3fff
   1291c:	0114302b 	sltu	a2,t0,s4
   12920:	10c00061 	beqz	a2,0x12aa8
   12924:	8f86004c 	lw	a2,76(gp)
   12928:	241fff80 	li	ra,-128
   1292c:	90c5000d 	lbu	a1,13(a2)
   12930:	03e52024 	and	a0,ra,a1
   12934:	309200ff 	andi	s2,a0,0xff
   12938:	5240005c 	beqzl	s2,0x12aac
   1293c:	02602021 	move	a0,s3
   12940:	8f8d0050 	lw	t5,80(gp)
   12944:	11a00007 	beqz	t5,0x12964
   12948:	00078b82 	srl	s1,a3,0xe
   1294c:	8f850034 	lw	a1,52(gp)
   12950:	8f89fcb8 	lw	t1,-840(gp)
   12954:	94af0080 	lhu	t7,128(a1)
   12958:	9539000a 	lhu	t9,10(t1)
   1295c:	132f00f6 	beq	t9,t7,0x12d38
   12960:	8f87003c 	lw	a3,60(gp)
   12964:	322c0003 	andi	t4,s1,0x3
   12968:	15800063 	bnez	t4,0x12af8
   1296c:	00000000 	nop
   12970:	92020002 	lbu	v0,2(s0)
   12974:	104000d7 	beqz	v0,0x12cd4
   12978:	00000000 	nop
   1297c:	8e0a0024 	lw	t2,36(s0)
   12980:	154000d8 	bnez	t2,0x12ce4
   12984:	02602021 	move	a0,s3
   12988:	92040003 	lbu	a0,3(s0)
   1298c:	24060002 	li	a2,2
   12990:	308800ff 	andi	t0,a0,0xff
   12994:	15060005 	bne	t0,a2,0x129ac
   12998:	308500ff 	andi	a1,a0,0xff
   1299c:	8f940050 	lw	s4,80(gp)
   129a0:	528000f2 	beqzl	s4,0x12d6c
   129a4:	02602021 	move	a0,s3
   129a8:	308500ff 	andi	a1,a0,0xff
   129ac:	38ad0010 	xori	t5,a1,0x10
   129b0:	2da40001 	sltiu	a0,t5,1
   129b4:	2cbf0001 	sltiu	ra,a1,1
   129b8:	03e43025 	or	a2,ra,a0
   129bc:	02002821 	move	a1,s0
   129c0:	0e001a01 	jal	0x8006804
   129c4:	02602021 	move	a0,s3
   129c8:	2410ffff 	li	s0,-1
   129cc:	105000be 	beq	v0,s0,0x12cc8
   129d0:	8f850034 	lw	a1,52(gp)
   129d4:	8f830050 	lw	v1,80(gp)
   129d8:	106000c4 	beqz	v1,0x12cec
   129dc:	24050001 	li	a1,1
   129e0:	3c190800 	lui	t9,0x800
   129e4:	8f39318c 	lw	t9,12684(t9)
   129e8:	0323782b 	sltu	t7,t9,v1
   129ec:	15e000b1 	bnez	t7,0x12cb4
   129f0:	2409002d 	li	t1,45
   129f4:	02602021 	move	a0,s3
   129f8:	00002821 	move	a1,zero
   129fc:	0e001940 	jal	0x8006500
   12a00:	24060001 	li	a2,1
   12a04:	8f850034 	lw	a1,52(gp)
   12a08:	00001821 	move	v1,zero
   12a0c:	0a001cc9 	j	0x8007324
   12a10:	0060a021 	move	s4,v1
   12a14:	0e00180c 	jal	0x8006030
   12a18:	00000000 	nop
   12a1c:	0a001d8f 	j	0x800763c
   12a20:	00000000 	nop
   12a24:	ac800020 	sw	zero,32(a0)
   12a28:	0a001e0f 	j	0x800783c
   12a2c:	8e030014 	lw	v1,20(s0)
   12a30:	00002821 	move	a1,zero
   12a34:	02602021 	move	a0,s3
   12a38:	0e001940 	jal	0x8006500
   12a3c:	24060001 	li	a2,1
   12a40:	0a001c5a 	j	0x8007168
   12a44:	8f850034 	lw	a1,52(gp)
   12a48:	0a001d4e 	j	0x8007538
   12a4c:	8f880034 	lw	t0,52(gp)
   12a50:	8cb00084 	lw	s0,132(a1)
   12a54:	8cb90084 	lw	t9,132(a1)
   12a58:	3c031000 	lui	v1,0x1000
   12a5c:	02074824 	and	t1,s0,a3
   12a60:	00096940 	sll	t5,t1,0x5
   12a64:	332f007f 	andi	t7,t9,0x7f
   12a68:	01aff825 	or	ra,t5,t7
   12a6c:	03e32825 	or	a1,ra,v1
   12a70:	acc50830 	sw	a1,2096(a2)
   12a74:	91070001 	lbu	a3,1(t0)
   12a78:	24050001 	li	a1,1
   12a7c:	02602021 	move	a0,s3
   12a80:	0e001940 	jal	0x8006500
   12a84:	30e60001 	andi	a2,a3,0x1
   12a88:	0a001c5a 	j	0x8007168
   12a8c:	8f850034 	lw	a1,52(gp)
   12a90:	938f0044 	lbu	t7,68(gp)
   12a94:	2403fffd 	li	v1,-3
   12a98:	0a001ccb 	j	0x800732c
   12a9c:	af8f005c 	sw	t7,92(gp)
   12aa0:	0a001ccb 	j	0x800732c
   12aa4:	2403ffff 	li	v1,-1
   12aa8:	02602021 	move	a0,s3
   12aac:	2410000d 	li	s0,13
   12ab0:	0e0019e1 	jal	0x8006784
   12ab4:	a3900064 	sb	s0,100(gp)
   12ab8:	00401821 	move	v1,v0
   12abc:	8f850034 	lw	a1,52(gp)
   12ac0:	0a001cc9 	j	0x8007324
   12ac4:	0060a021 	move	s4,v1
   12ac8:	0e00180c 	jal	0x8006030
   12acc:	00000000 	nop
   12ad0:	97830058 	lhu	v1,88(gp)
   12ad4:	8f86005c 	lw	a2,92(gp)
   12ad8:	3070ffff 	andi	s0,v1,0xffff
   12adc:	00d04823 	subu	t1,a2,s0
   12ae0:	2d390005 	sltiu	t9,t1,5
   12ae4:	1320fe12 	beqz	t9,0x12330
   12ae8:	8f850034 	lw	a1,52(gp)
   12aec:	aca200ec 	sw	v0,236(a1)
   12af0:	0a001cc6 	j	0x8007318
   12af4:	3062ffff 	andi	v0,v1,0xffff
   12af8:	90c3000d 	lbu	v1,13(a2)
   12afc:	30780008 	andi	t8,v1,0x8
   12b00:	5700ffa2 	bnezl	t8,0x1298c
   12b04:	92040003 	lbu	a0,3(s0)
   12b08:	02602021 	move	a0,s3
   12b0c:	24020010 	li	v0,16
   12b10:	0e0019e1 	jal	0x8006784
   12b14:	a3820064 	sb	v0,100(gp)
   12b18:	2403ffff 	li	v1,-1
   12b1c:	5443ff9b 	bnel	v0,v1,0x1298c
   12b20:	92040003 	lbu	a0,3(s0)
   12b24:	0a001ea9 	j	0x8007aa4
   12b28:	8f850034 	lw	a1,52(gp)
   12b2c:	90a8000d 	lbu	t0,13(a1)
   12b30:	31060008 	andi	a2,t0,0x8
   12b34:	10c00095 	beqz	a2,0x12d8c
   12b38:	8f940050 	lw	s4,80(gp)
   12b3c:	1680009e 	bnez	s4,0x12db8
   12b40:	02602021 	move	a0,s3
   12b44:	8e0f000c 	lw	t7,12(s0)
   12b48:	8ca40020 	lw	a0,32(a1)
   12b4c:	55e40005 	bnel	t7,a0,0x12b64
   12b50:	02602021 	move	a0,s3
   12b54:	8e1f0008 	lw	ra,8(s0)
   12b58:	8cb90024 	lw	t9,36(a1)
   12b5c:	13f9003a 	beq	ra,t9,0x12c48
   12b60:	02602021 	move	a0,s3
   12b64:	24020020 	li	v0,32
   12b68:	0e0019e1 	jal	0x8006784
   12b6c:	a3820064 	sb	v0,100(gp)
   12b70:	2405ffff 	li	a1,-1
   12b74:	1045feee 	beq	v0,a1,0x12730
   12b78:	2404ffff 	li	a0,-1
   12b7c:	8f8f0040 	lw	t7,64(gp)
   12b80:	240cfff7 	li	t4,-9
   12b84:	2403ff80 	li	v1,-128
   12b88:	91e9000d 	lbu	t1,13(t7)
   12b8c:	3c14800e 	lui	s4,0x800e
   12b90:	3c0b8000 	lui	t3,0x8000
   12b94:	012cc824 	and	t9,t1,t4
   12b98:	a1f9000d 	sb	t9,13(t7)
   12b9c:	8f8f002c 	lw	t7,44(gp)
   12ba0:	3c070800 	lui	a3,0x800
   12ba4:	8ce731ac 	lw	a3,12716(a3)
   12ba8:	8f8d0068 	lw	t5,104(gp)
   12bac:	95e50078 	lhu	a1,120(t7)
   12bb0:	8f990040 	lw	t9,64(gp)
   12bb4:	00ed9021 	addu	s2,a3,t5
   12bb8:	30bf7fff 	andi	ra,a1,0x7fff
   12bbc:	001f2040 	sll	a0,ra,0x1
   12bc0:	02443021 	addu	a2,s2,a0
   12bc4:	30c8007f 	andi	t0,a2,0x7f
   12bc8:	00c3c024 	and	t8,a2,v1
   12bcc:	01147021 	addu	t6,t0,s4
   12bd0:	ad78002c 	sw	t8,44(t3)
   12bd4:	a5d10000 	sh	s1,0(t6)
   12bd8:	8f2a0028 	lw	t2,40(t9)
   12bdc:	25420001 	addiu	v0,t2,1
   12be0:	af220028 	sw	v0,40(t9)
   12be4:	8f29002c 	lw	t1,44(t9)
   12be8:	8e0c002c 	lw	t4,44(s0)
   12bec:	012c6821 	addu	t5,t1,t4
   12bf0:	af2d002c 	sw	t5,44(t9)
   12bf4:	8e07002c 	lw	a3,44(s0)
   12bf8:	af270030 	sw	a3,48(t9)
   12bfc:	8e050014 	lw	a1,20(s0)
   12c00:	af250034 	sw	a1,52(t9)
   12c04:	973f003a 	lhu	ra,58(t9)
   12c08:	27e40001 	addiu	a0,ra,1
   12c0c:	a724003a 	sh	a0,58(t9)
   12c10:	95f20078 	lhu	s2,120(t7)
   12c14:	3c100800 	lui	s0,0x800
   12c18:	8e1031b0 	lw	s0,12720(s0)
   12c1c:	26430001 	addiu	v1,s2,1
   12c20:	30717fff 	andi	s1,v1,0x7fff
   12c24:	1230005c 	beq	s1,s0,0x12d98
   12c28:	00603021 	move	a2,v1
   12c2c:	8f83002c 	lw	v1,44(gp)
   12c30:	02602021 	move	a0,s3
   12c34:	24050001 	li	a1,1
   12c38:	0e0018cb 	jal	0x800632c
   12c3c:	a4660078 	sh	a2,120(v1)
   12c40:	0a001e38 	j	0x80078e0
   12c44:	00002021 	move	a0,zero
   12c48:	8e070014 	lw	a3,20(s0)
   12c4c:	2412ffff 	li	s2,-1
   12c50:	10f20063 	beq	a3,s2,0x12de0
   12c54:	8f8c0034 	lw	t4,52(gp)
   12c58:	8e090018 	lw	t1,24(s0)
   12c5c:	8d8d00d0 	lw	t5,208(t4)
   12c60:	152d005d 	bne	t1,t5,0x12dd8
   12c64:	02602021 	move	a0,s3
   12c68:	8e0a0024 	lw	t2,36(s0)
   12c6c:	8ca20028 	lw	v0,40(a1)
   12c70:	11420053 	beq	t2,v0,0x12dc0
   12c74:	24020021 	li	v0,33
   12c78:	0e0019e1 	jal	0x8006784
   12c7c:	a3820064 	sb	v0,100(gp)
   12c80:	1452ffbe 	bne	v0,s2,0x12b7c
   12c84:	2404ffff 	li	a0,-1
   12c88:	8f850034 	lw	a1,52(gp)
   12c8c:	0a001cc9 	j	0x8007324
   12c90:	0080a021 	move	s4,a0
   12c94:	2402001f 	li	v0,31
   12c98:	0e0019e1 	jal	0x8006784
   12c9c:	a3820064 	sb	v0,100(gp)
   12ca0:	2409ffff 	li	t1,-1
   12ca4:	1049fea2 	beq	v0,t1,0x12730
   12ca8:	2404ffff 	li	a0,-1
   12cac:	0a001deb 	j	0x80077ac
   12cb0:	8f830050 	lw	v1,80(gp)
   12cb4:	02602021 	move	a0,s3
   12cb8:	0e0019e1 	jal	0x8006784
   12cbc:	a3890064 	sb	t1,100(gp)
   12cc0:	1450ff51 	bne	v0,s0,0x12a08
   12cc4:	8f850034 	lw	a1,52(gp)
   12cc8:	2403ffff 	li	v1,-1
   12ccc:	0a001cc9 	j	0x8007324
   12cd0:	0060a021 	move	s4,v1
   12cd4:	8cce0024 	lw	t6,36(a2)
   12cd8:	8e0b0024 	lw	t3,36(s0)
   12cdc:	116eff2a 	beq	t3,t6,0x12988
   12ce0:	02602021 	move	a0,s3
   12ce4:	0a001ebd 	j	0x8007af4
   12ce8:	2402000f 	li	v0,15
   12cec:	0e0018cb 	jal	0x800632c
   12cf0:	02602021 	move	a0,s3
   12cf4:	8f850034 	lw	a1,52(gp)
   12cf8:	0a001e7c 	j	0x80079f0
   12cfc:	00001821 	move	v1,zero
   12d00:	8e090000 	lw	t1,0(s0)
   12d04:	3c050080 	lui	a1,0x80
   12d08:	01259024 	and	s2,t1,a1
   12d0c:	1640ff45 	bnez	s2,0x12a24
   12d10:	2402001a 	li	v0,26
   12d14:	02602021 	move	a0,s3
   12d18:	0e0019e1 	jal	0x8006784
   12d1c:	a3820064 	sb	v0,100(gp)
   12d20:	240cffff 	li	t4,-1
   12d24:	144cfecb 	bne	v0,t4,0x12854
   12d28:	2404ffff 	li	a0,-1
   12d2c:	8f850034 	lw	a1,52(gp)
   12d30:	0a001cc9 	j	0x8007324
   12d34:	0080a021 	move	s4,a0
   12d38:	2403fffd 	li	v1,-3
   12d3c:	0060a021 	move	s4,v1
   12d40:	0a001cc9 	j	0x8007324
   12d44:	af87005c 	sw	a3,92(gp)
   12d48:	2418001d 	li	t8,29
   12d4c:	0e0019e1 	jal	0x8006784
   12d50:	a3980064 	sb	t8,100(gp)
   12d54:	2403ffff 	li	v1,-1
   12d58:	1443fea6 	bne	v0,v1,0x127f4
   12d5c:	2404ffff 	li	a0,-1
   12d60:	8f850034 	lw	a1,52(gp)
   12d64:	0a001cc9 	j	0x8007324
   12d68:	0080a021 	move	s4,a0
   12d6c:	2412002c 	li	s2,44
   12d70:	0e0019e1 	jal	0x8006784
   12d74:	a3920064 	sb	s2,100(gp)
   12d78:	2403ffff 	li	v1,-1
   12d7c:	1043ff50 	beq	v0,v1,0x12ac0
   12d80:	8f850034 	lw	a1,52(gp)
   12d84:	0a001e63 	j	0x800798c
   12d88:	92040003 	lbu	a0,3(s0)
   12d8c:	02602021 	move	a0,s3
   12d90:	0a001ed3 	j	0x8007b4c
   12d94:	24020024 	li	v0,36
   12d98:	240b8000 	li	t3,-32768
   12d9c:	006b7024 	and	t6,v1,t3
   12da0:	31caffff 	andi	t2,t6,0xffff
   12da4:	000a13c2 	srl	v0,t2,0xf
   12da8:	305100ff 	andi	s1,v0,0xff
   12dac:	00118027 	nor	s0,zero,s1
   12db0:	0a001f04 	j	0x8007c10
   12db4:	001033c0 	sll	a2,s0,0xf
   12db8:	0a001ed3 	j	0x8007b4c
   12dbc:	24020027 	li	v0,39
   12dc0:	8e060028 	lw	a2,40(s0)
   12dc4:	8cae002c 	lw	t6,44(a1)
   12dc8:	10ce0008 	beq	a2,t6,0x12dec
   12dcc:	02602021 	move	a0,s3
   12dd0:	0a001f17 	j	0x8007c5c
   12dd4:	2402001f 	li	v0,31
   12dd8:	0a001f17 	j	0x8007c5c
   12ddc:	2402000e 	li	v0,14
   12de0:	02602021 	move	a0,s3
   12de4:	0a001f17 	j	0x8007c5c
   12de8:	24020025 	li	v0,37
   12dec:	8e04002c 	lw	a0,44(s0)
   12df0:	1080000d 	beqz	a0,0x12e28
   12df4:	8f83002c 	lw	v1,44(gp)
   12df8:	8c780074 	lw	t8,116(v1)
   12dfc:	0304582b 	sltu	t3,t8,a0
   12e00:	5560000c 	bnezl	t3,0x12e34
   12e04:	02602021 	move	a0,s3
   12e08:	8ca80014 	lw	t0,20(a1)
   12e0c:	0086a021 	addu	s4,a0,a2
   12e10:	0114302b 	sltu	a2,t0,s4
   12e14:	10c0ff5a 	beqz	a2,0x12b80
   12e18:	8f8f0040 	lw	t7,64(gp)
   12e1c:	02602021 	move	a0,s3
   12e20:	0a001f17 	j	0x8007c5c
   12e24:	24020022 	li	v0,34
   12e28:	02602021 	move	a0,s3
   12e2c:	0a001f17 	j	0x8007c5c
   12e30:	24020023 	li	v0,35
   12e34:	0a001f17 	j	0x8007c5c
   12e38:	24020026 	li	v0,38
   12e3c:	27bdffd8 	addiu	sp,sp,-40
   12e40:	afb3001c 	sw	s3,28(sp)
   12e44:	afb10014 	sw	s1,20(sp)
   12e48:	afbf0020 	sw	ra,32(sp)
   12e4c:	afb20018 	sw	s2,24(sp)
   12e50:	afb00010 	sw	s0,16(sp)
   12e54:	3c028000 	lui	v0,0x8000
   12e58:	8c520140 	lw	s2,320(v0)
   12e5c:	8c4b0148 	lw	t3,328(v0)
   12e60:	3c048000 	lui	a0,0x8000
   12e64:	000b8c02 	srl	s1,t3,0x10
   12e68:	322300ff 	andi	v1,s1,0xff
   12e6c:	317300ff 	andi	s3,t3,0xff
   12e70:	8c8501b8 	lw	a1,440(a0)
   12e74:	04a0fffe 	bltz	a1,0x12e70
   12e78:	34900180 	ori	s0,a0,0x180
   12e7c:	ae120000 	sw	s2,0(s0)
   12e80:	8c870144 	lw	a3,324(a0)
   12e84:	2464fff0 	addiu	a0,v1,-16
   12e88:	24060002 	li	a2,2
   12e8c:	2c830013 	sltiu	v1,a0,19
   12e90:	ae070004 	sw	a3,4(s0)
   12e94:	a6110008 	sh	s1,8(s0)
   12e98:	a206000b 	sb	a2,11(s0)
   12e9c:	ae130024 	sw	s3,36(s0)
   12ea0:	1060004f 	beqz	v1,0x12fe0
   12ea4:	8fbf0020 	lw	ra,32(sp)
   12ea8:	00044880 	sll	t1,a0,0x2
   12eac:	3c0a0801 	lui	t2,0x801
   12eb0:	254a936c 	addiu	t2,t2,-27796
   12eb4:	012a4021 	addu	t0,t1,t2
   12eb8:	8d040000 	lw	a0,0(t0)
   12ebc:	00800008 	jr	a0
   12ec0:	00000000 	nop
   12ec4:	3c030800 	lui	v1,0x800
   12ec8:	8c6331a8 	lw	v1,12712(v1)
   12ecc:	31693fff 	andi	t1,t3,0x3fff
   12ed0:	00099980 	sll	s3,t1,0x6
   12ed4:	00728021 	addu	s0,v1,s2
   12ed8:	02137021 	addu	t6,s0,s3
   12edc:	2405ff80 	li	a1,-128
   12ee0:	264d0100 	addiu	t5,s2,256
   12ee4:	264c0080 	addiu	t4,s2,128
   12ee8:	3c028000 	lui	v0,0x8000
   12eec:	31b1007f 	andi	s1,t5,0x7f
   12ef0:	3198007f 	andi	t8,t4,0x7f
   12ef4:	31ca007f 	andi	t2,t6,0x7f
   12ef8:	3c1f800a 	lui	ra,0x800a
   12efc:	3c198004 	lui	t9,0x8004
   12f00:	3c0f800c 	lui	t7,0x800c
   12f04:	01c52024 	and	a0,t6,a1
   12f08:	01a53024 	and	a2,t5,a1
   12f0c:	01853824 	and	a3,t4,a1
   12f10:	014f1821 	addu	v1,t2,t7
   12f14:	ac460024 	sw	a2,36(v0)
   12f18:	023f4021 	addu	t0,s1,ra
   12f1c:	03194821 	addu	t1,t8,t9
   12f20:	ac470090 	sw	a3,144(v0)
   12f24:	ac440028 	sw	a0,40(v0)
   12f28:	af830040 	sw	v1,64(gp)
   12f2c:	af880034 	sw	t0,52(gp)
   12f30:	af89002c 	sw	t1,44(gp)
   12f34:	0e001897 	jal	0x800625c
   12f38:	01608021 	move	s0,t3
   12f3c:	3c038000 	lui	v1,0x8000
   12f40:	8c6b01b8 	lw	t3,440(v1)
   12f44:	0560fffe 	bltz	t3,0x12f40
   12f48:	8f870040 	lw	a3,64(gp)
   12f4c:	8f860034 	lw	a2,52(gp)
   12f50:	34650180 	ori	a1,v1,0x180
   12f54:	90e8000d 	lbu	t0,13(a3)
   12f58:	acb20000 	sw	s2,0(a1)
   12f5c:	a4b00006 	sh	s0,6(a1)
   12f60:	00082600 	sll	a0,t0,0x18
   12f64:	00041603 	sra	v0,a0,0x18
   12f68:	00029027 	nor	s2,zero,v0
   12f6c:	001227c2 	srl	a0,s2,0x1f
   12f70:	10800081 	beqz	a0,0x13178
   12f74:	24c20088 	addiu	v0,a2,136
   12f78:	241f6082 	li	ra,24706
   12f7c:	a4bf0008 	sh	ra,8(a1)
   12f80:	a0a00005 	sb	zero,5(a1)
   12f84:	24020002 	li	v0,2
   12f88:	a0a2000b 	sb	v0,11(a1)
   12f8c:	8f8b002c 	lw	t3,44(gp)
   12f90:	00042400 	sll	a0,a0,0x10
   12f94:	3c082700 	lui	t0,0x2700
   12f98:	00889025 	or	s2,a0,t0
   12f9c:	acb20010 	sw	s2,16(a1)
   12fa0:	aca00014 	sw	zero,20(a1)
   12fa4:	aca00024 	sw	zero,36(a1)
   12fa8:	aca00028 	sw	zero,40(a1)
   12fac:	aca0002c 	sw	zero,44(a1)
   12fb0:	8d690038 	lw	t1,56(t3)
   12fb4:	2413ff80 	li	s3,-128
   12fb8:	aca90018 	sw	t1,24(a1)
   12fbc:	90e3000d 	lbu	v1,13(a3)
   12fc0:	02638024 	and	s0,s3,v1
   12fc4:	320500ff 	andi	a1,s0,0xff
   12fc8:	10a00005 	beqz	a1,0x12fe0
   12fcc:	8fbf0020 	lw	ra,32(sp)
   12fd0:	90ed000d 	lbu	t5,13(a3)
   12fd4:	31ac007f 	andi	t4,t5,0x7f
   12fd8:	a0ec000d 	sb	t4,13(a3)
   12fdc:	8fbf0020 	lw	ra,32(sp)
   12fe0:	8fb3001c 	lw	s3,28(sp)
   12fe4:	8fb20018 	lw	s2,24(sp)
   12fe8:	8fb10014 	lw	s1,20(sp)
   12fec:	8fb00010 	lw	s0,16(sp)
   12ff0:	3c0a1000 	lui	t2,0x1000
   12ff4:	3c0e8000 	lui	t6,0x8000
   12ff8:	27bd0028 	addiu	sp,sp,40
   12ffc:	03e00008 	jr	ra
   13000:	adca01b8 	sw	t2,440(t6)
   13004:	265f0100 	addiu	ra,s2,256
   13008:	2405ff80 	li	a1,-128
   1300c:	33f8007f 	andi	t8,ra,0x7f
   13010:	3c068000 	lui	a2,0x8000
   13014:	03e57824 	and	t7,ra,a1
   13018:	3c19800a 	lui	t9,0x800a
   1301c:	03192021 	addu	a0,t8,t9
   13020:	accf0024 	sw	t7,36(a2)
   13024:	908e00d4 	lbu	t6,212(a0)
   13028:	00ae6824 	and	t5,a1,t6
   1302c:	31ac00ff 	andi	t4,t5,0xff
   13030:	11800024 	beqz	t4,0x130c4
   13034:	af840034 	sw	a0,52(gp)
   13038:	248e0088 	addiu	t6,a0,136
   1303c:	95cd0012 	lhu	t5,18(t6)
   13040:	3c0c0800 	lui	t4,0x800
   13044:	8d8c31a8 	lw	t4,12712(t4)
   13048:	31ab3fff 	andi	t3,t5,0x3fff
   1304c:	01924821 	addu	t1,t4,s2
   13050:	000b5180 	sll	t2,t3,0x6
   13054:	012a4021 	addu	t0,t1,t2
   13058:	01052024 	and	a0,t0,a1
   1305c:	acc40028 	sw	a0,40(a2)
   13060:	3107007f 	andi	a3,t0,0x7f
   13064:	3c06800c 	lui	a2,0x800c
   13068:	00e62021 	addu	a0,a3,a2
   1306c:	9083000d 	lbu	v1,13(a0)
   13070:	00a31024 	and	v0,a1,v1
   13074:	304500ff 	andi	a1,v0,0xff
   13078:	10a0ffd8 	beqz	a1,0x12fdc
   1307c:	af840040 	sw	a0,64(gp)
   13080:	9098000d 	lbu	t8,13(a0)
   13084:	330f0010 	andi	t7,t8,0x10
   13088:	15e0ffd5 	bnez	t7,0x12fe0
   1308c:	8fbf0020 	lw	ra,32(sp)
   13090:	0e001897 	jal	0x800625c
   13094:	00000000 	nop
   13098:	3c038000 	lui	v1,0x8000
   1309c:	8c7901b8 	lw	t9,440(v1)
   130a0:	0720fffe 	bltz	t9,0x1309c
   130a4:	00000000 	nop
   130a8:	ae120000 	sw	s2,0(s0)
   130ac:	8c7f0144 	lw	ra,324(v1)
   130b0:	ae1f0004 	sw	ra,4(s0)
   130b4:	a6110008 	sh	s1,8(s0)
   130b8:	24110002 	li	s1,2
   130bc:	a211000b 	sb	s1,11(s0)
   130c0:	ae130024 	sw	s3,36(s0)
   130c4:	3c130801 	lui	s3,0x801
   130c8:	92739528 	lbu	s3,-27352(s3)
   130cc:	32700001 	andi	s0,s3,0x1
   130d0:	5200ffc3 	beqzl	s0,0x12fe0
   130d4:	8fbf0020 	lw	ra,32(sp)
   130d8:	0e0020d4 	jal	0x8008350
   130dc:	02402021 	move	a0,s2
   130e0:	0a001ff1 	j	0x8007fc4
   130e4:	8fbf0020 	lw	ra,32(sp)
   130e8:	3c126000 	lui	s2,0x6000
   130ec:	8e452c08 	lw	a1,11272(s2)
   130f0:	3c03f003 	lui	v1,0xf003
   130f4:	3462ffff 	ori	v0,v1,0xffff
   130f8:	00a2f824 	and	ra,a1,v0
   130fc:	ae5f2c08 	sw	ra,11272(s2)
   13100:	8e582c08 	lw	t8,11272(s2)
   13104:	3c1901c0 	lui	t9,0x1c0
   13108:	03199825 	or	s3,t8,t9
   1310c:	ae532c08 	sw	s3,11272(s2)
   13110:	0a001ff1 	j	0x8007fc4
   13114:	8fbf0020 	lw	ra,32(sp)
   13118:	264d0100 	addiu	t5,s2,256
   1311c:	31af007f 	andi	t7,t5,0x7f
   13120:	3c10800a 	lui	s0,0x800a
   13124:	240eff80 	li	t6,-128
   13128:	01f02821 	addu	a1,t7,s0
   1312c:	01ae6024 	and	t4,t5,t6
   13130:	3c0b8000 	lui	t3,0x8000
   13134:	ad6c0024 	sw	t4,36(t3)
   13138:	1660ffa8 	bnez	s3,0x12fdc
   1313c:	af850034 	sw	a1,52(gp)
   13140:	24110003 	li	s1,3
   13144:	a0b100fc 	sb	s1,252(a1)
   13148:	0a001ff1 	j	0x8007fc4
   1314c:	8fbf0020 	lw	ra,32(sp)
   13150:	26480100 	addiu	t0,s2,256
   13154:	310a007f 	andi	t2,t0,0x7f
   13158:	3c0b800a 	lui	t3,0x800a
   1315c:	2409ff80 	li	t1,-128
   13160:	014b3021 	addu	a2,t2,t3
   13164:	01092024 	and	a0,t0,t1
   13168:	3c078000 	lui	a3,0x8000
   1316c:	ace40024 	sw	a0,36(a3)
   13170:	0a001ff0 	j	0x8007fc0
   13174:	af860034 	sw	a2,52(gp)
   13178:	944e0012 	lhu	t6,18(v0)
   1317c:	320c3fff 	andi	t4,s0,0x3fff
   13180:	31cd3fff 	andi	t5,t6,0x3fff
   13184:	15acff7d 	bne	t5,t4,0x12f7c
   13188:	241f6082 	li	ra,24706
   1318c:	90d900d4 	lbu	t9,212(a2)
   13190:	2418ff80 	li	t8,-128
   13194:	03197824 	and	t7,t8,t9
   13198:	31ea00ff 	andi	t2,t7,0xff
   1319c:	1140ff77 	beqz	t2,0x12f7c
   131a0:	00000000 	nop
   131a4:	24070004 	li	a3,4
   131a8:	a0c700fc 	sb	a3,252(a2)
   131ac:	8f870040 	lw	a3,64(gp)
   131b0:	24116084 	li	s1,24708
   131b4:	2406000d 	li	a2,13
   131b8:	a4b10008 	sh	s1,8(a1)
   131bc:	a0a60005 	sb	a2,5(a1)
   131c0:	0a001fdb 	j	0x8007f6c
   131c4:	24020002 	li	v0,2
   131c8:	3c040001 	lui	a0,0x1
   131cc:	24849514 	addiu	a0,a0,-27372
   131d0:	24030014 	li	v1,20
   131d4:	240200fe 	li	v0,254
   131d8:	3c010800 	lui	at,0x800
   131dc:	ac2431ec 	sw	a0,12780(at)
   131e0:	3c010800 	lui	at,0x800
   131e4:	ac2331e8 	sw	v1,12776(at)
   131e8:	3c010801 	lui	at,0x801
   131ec:	a4229530 	sh	v0,-27344(at)
   131f0:	3c040801 	lui	a0,0x801
   131f4:	24849530 	addiu	a0,a0,-27344
   131f8:	00001821 	move	v1,zero
   131fc:	00643021 	addu	a2,v1,a0
   13200:	a0c30004 	sb	v1,4(a2)
   13204:	24630001 	addiu	v1,v1,1
   13208:	2c6500ff 	sltiu	a1,v1,255
   1320c:	54a0fffc 	bnezl	a1,0x13200
   13210:	00643021 	addu	a2,v1,a0
   13214:	3c070800 	lui	a3,0x800
   13218:	24e70100 	addiu	a3,a3,256
   1321c:	03e00008 	jr	ra
   13220:	af870074 	sw	a3,116(gp)
   13224:	00a05821 	move	t3,a1
   13228:	00804821 	move	t1,a0
   1322c:	00001021 	move	v0,zero
   13230:	14a00012 	bnez	a1,0x1327c
   13234:	00005021 	move	t2,zero
   13238:	0a0020d0 	j	0x8008340
   1323c:	00000000 	nop
   13240:	3c010801 	lui	at,0x801
   13244:	a4209530 	sh	zero,-27344(at)
   13248:	3c050801 	lui	a1,0x801
   1324c:	94a59530 	lhu	a1,-27344(a1)
   13250:	8f820074 	lw	v0,116(gp)
   13254:	3c0c0801 	lui	t4,0x801
   13258:	258c9530 	addiu	t4,t4,-27344
   1325c:	00e21821 	addu	v1,a3,v0
   13260:	00ac2021 	addu	a0,a1,t4
   13264:	014b302b 	sltu	a2,t2,t3
   13268:	a0890004 	sb	t1,4(a0)
   1326c:	00001021 	move	v0,zero
   13270:	a4600008 	sh	zero,8(v1)
   13274:	10c00039 	beqz	a2,0x1335c
   13278:	01004821 	move	t1,t0
   1327c:	8f860074 	lw	a2,116(gp)
   13280:	00093840 	sll	a3,t1,0x1
   13284:	00e94021 	addu	t0,a3,t1
   13288:	00083880 	sll	a3,t0,0x2
   1328c:	00e62821 	addu	a1,a3,a2
   13290:	90a8000b 	lbu	t0,11(a1)
   13294:	90b9000a 	lbu	t9,10(a1)
   13298:	00082040 	sll	a0,t0,0x1
   1329c:	00881021 	addu	v0,a0,t0
   132a0:	00021880 	sll	v1,v0,0x2
   132a4:	0066c021 	addu	t8,v1,a2
   132a8:	a319000a 	sb	t9,10(t8)
   132ac:	8f850074 	lw	a1,116(gp)
   132b0:	00e57821 	addu	t7,a3,a1
   132b4:	91ee000a 	lbu	t6,10(t7)
   132b8:	91e6000b 	lbu	a2,11(t7)
   132bc:	000e6840 	sll	t5,t6,0x1
   132c0:	01ae6021 	addu	t4,t5,t6
   132c4:	000c2080 	sll	a0,t4,0x2
   132c8:	00851021 	addu	v0,a0,a1
   132cc:	a046000b 	sb	a2,11(v0)
   132d0:	3c030801 	lui	v1,0x801
   132d4:	9063952a 	lbu	v1,-27350(v1)
   132d8:	10600022 	beqz	v1,0x13364
   132dc:	2462ffff 	addiu	v0,v1,-1
   132e0:	8f830034 	lw	v1,52(gp)
   132e4:	3c010801 	lui	at,0x801
   132e8:	a022952a 	sb	v0,-27350(at)
   132ec:	906c00ff 	lbu	t4,255(v1)
   132f0:	11800004 	beqz	t4,0x13304
   132f4:	00000000 	nop
   132f8:	906e00ff 	lbu	t6,255(v1)
   132fc:	25cdffff 	addiu	t5,t6,-1
   13300:	a06d00ff 	sb	t5,255(v1)
   13304:	3c190801 	lui	t9,0x801
   13308:	97399530 	lhu	t9,-27344(t9)
   1330c:	27230001 	addiu	v1,t9,1
   13310:	3078ffff 	andi	t8,v1,0xffff
   13314:	2f0f00ff 	sltiu	t7,t8,255
   13318:	11e0ffc9 	beqz	t7,0x13240
   1331c:	254a0001 	addiu	t2,t2,1
   13320:	3c010801 	lui	at,0x801
   13324:	a4239530 	sh	v1,-27344(at)
   13328:	3c050801 	lui	a1,0x801
   1332c:	94a59530 	lhu	a1,-27344(a1)
   13330:	8f820074 	lw	v0,116(gp)
   13334:	3c0c0801 	lui	t4,0x801
   13338:	258c9530 	addiu	t4,t4,-27344
   1333c:	00e21821 	addu	v1,a3,v0
   13340:	00ac2021 	addu	a0,a1,t4
   13344:	014b302b 	sltu	a2,t2,t3
   13348:	a0890004 	sb	t1,4(a0)
   1334c:	00001021 	move	v0,zero
   13350:	a4600008 	sh	zero,8(v1)
   13354:	14c0ffc9 	bnez	a2,0x1327c
   13358:	01004821 	move	t1,t0
   1335c:	03e00008 	jr	ra
   13360:	00000000 	nop
   13364:	03e00008 	jr	ra
   13368:	24020002 	li	v0,2
   1336c:	27bdffe0 	addiu	sp,sp,-32
   13370:	24850100 	addiu	a1,a0,256
   13374:	2407ff80 	li	a3,-128
   13378:	afb00010 	sw	s0,16(sp)
   1337c:	afbf0018 	sw	ra,24(sp)
   13380:	afb10014 	sw	s1,20(sp)
   13384:	00a71824 	and	v1,a1,a3
   13388:	3c108000 	lui	s0,0x8000
   1338c:	30a4007f 	andi	a0,a1,0x7f
   13390:	3c06800a 	lui	a2,0x800a
   13394:	00862821 	addu	a1,a0,a2
   13398:	8e110024 	lw	s1,36(s0)
   1339c:	ae030024 	sw	v1,36(s0)
   133a0:	90a200ff 	lbu	v0,255(a1)
   133a4:	14400008 	bnez	v0,0x133c8
   133a8:	af850034 	sw	a1,52(gp)
   133ac:	a0a00009 	sb	zero,9(a1)
   133b0:	8fbf0018 	lw	ra,24(sp)
   133b4:	ae110024 	sw	s1,36(s0)
   133b8:	8fb10014 	lw	s1,20(sp)
   133bc:	8fb00010 	lw	s0,16(sp)
   133c0:	03e00008 	jr	ra
   133c4:	27bd0020 	addiu	sp,sp,32
   133c8:	90a900fd 	lbu	t1,253(a1)
   133cc:	90a800ff 	lbu	t0,255(a1)
   133d0:	312400ff 	andi	a0,t1,0xff
   133d4:	0e002082 	jal	0x8008208
   133d8:	310500ff 	andi	a1,t0,0xff
   133dc:	8f850034 	lw	a1,52(gp)
   133e0:	8fbf0018 	lw	ra,24(sp)
   133e4:	a0a00009 	sb	zero,9(a1)
   133e8:	ae110024 	sw	s1,36(s0)
   133ec:	8fb10014 	lw	s1,20(sp)
   133f0:	8fb00010 	lw	s0,16(sp)
   133f4:	03e00008 	jr	ra
   133f8:	27bd0020 	addiu	sp,sp,32
   133fc:	27bdffd0 	addiu	sp,sp,-48
   13400:	afb20020 	sw	s2,32(sp)
   13404:	afb1001c 	sw	s1,28(sp)
   13408:	afb00018 	sw	s0,24(sp)
   1340c:	afbf002c 	sw	ra,44(sp)
   13410:	afb40028 	sw	s4,40(sp)
   13414:	afb30024 	sw	s3,36(sp)
   13418:	3c098000 	lui	t1,0x8000
   1341c:	95330116 	lhu	s3,278(t1)
   13420:	35320c00 	ori	s2,t1,0xc00
   13424:	952f011a 	lhu	t7,282(t1)
   13428:	3271ffff 	andi	s1,s3,0xffff
   1342c:	02328021 	addu	s0,s1,s2
   13430:	8e080004 	lw	t0,4(s0)
   13434:	31eeffff 	andi	t6,t7,0xffff
   13438:	248b0100 	addiu	t3,a0,256
   1343c:	010e6821 	addu	t5,t0,t6
   13440:	240cff80 	li	t4,-128
   13444:	25a5ffff 	addiu	a1,t5,-1
   13448:	016c5024 	and	t2,t3,t4
   1344c:	3166007f 	andi	a2,t3,0x7f
   13450:	3c07800a 	lui	a3,0x800a
   13454:	ad2a0024 	sw	t2,36(t1)
   13458:	00c73021 	addu	a2,a2,a3
   1345c:	af850070 	sw	a1,112(gp)
   13460:	af88006c 	sw	t0,108(gp)
   13464:	3c010801 	lui	at,0x801
   13468:	a0209529 	sb	zero,-27351(at)
   1346c:	90c30009 	lbu	v1,9(a2)
   13470:	0200d021 	move	k0,s0
   13474:	00809821 	move	s3,a0
   13478:	306300ff 	andi	v1,v1,0xff
   1347c:	28620005 	slti	v0,v1,5
   13480:	10400048 	beqz	v0,0x135a4
   13484:	af860034 	sw	a2,52(gp)
   13488:	28640002 	slti	a0,v1,2
   1348c:	1480008e 	bnez	a0,0x136c8
   13490:	24140001 	li	s4,1
   13494:	240d0005 	li	t5,5
   13498:	3c010801 	lui	at,0x801
   1349c:	a02d950d 	sb	t5,-27379(at)
   134a0:	90cc00fd 	lbu	t4,253(a2)
   134a4:	3c010801 	lui	at,0x801
   134a8:	a020950e 	sb	zero,-27378(at)
   134ac:	3c010801 	lui	at,0x801
   134b0:	a020950f 	sb	zero,-27377(at)
   134b4:	90cb000a 	lbu	t3,10(a2)
   134b8:	240aff80 	li	t2,-128
   134bc:	318500ff 	andi	a1,t4,0xff
   134c0:	014b4824 	and	t1,t2,t3
   134c4:	312700ff 	andi	a3,t1,0xff
   134c8:	10e0000c 	beqz	a3,0x134fc
   134cc:	00005821 	move	t3,zero
   134d0:	3c128008 	lui	s2,0x8008
   134d4:	36510080 	ori	s1,s2,0x80
   134d8:	8e2f0030 	lw	t7,48(s1)
   134dc:	8cd0005c 	lw	s0,92(a2)
   134e0:	01f07023 	subu	t6,t7,s0
   134e4:	05c0018e 	bltz	t6,0x13b20
   134e8:	8f87006c 	lw	a3,108(gp)
   134ec:	90d4000a 	lbu	s4,10(a2)
   134f0:	3284007f 	andi	a0,s4,0x7f
   134f4:	a0c4000a 	sb	a0,10(a2)
   134f8:	8f860034 	lw	a2,52(gp)
   134fc:	3c118008 	lui	s1,0x8008
   13500:	36300080 	ori	s0,s1,0x80
   13504:	8e0f0030 	lw	t7,48(s0)
   13508:	8f87006c 	lw	a3,108(gp)
   1350c:	00ef7023 	subu	t6,a3,t7
   13510:	19c000ee 	blez	t6,0x138cc
   13514:	00000000 	nop
   13518:	90d40009 	lbu	s4,9(a2)
   1351c:	24120002 	li	s2,2
   13520:	328400ff 	andi	a0,s4,0xff
   13524:	10920247 	beq	a0,s2,0x13e44
   13528:	00000000 	nop
   1352c:	8cc20058 	lw	v0,88(a2)
   13530:	00e2f823 	subu	ra,a3,v0
   13534:	27f9ffff 	addiu	t9,ra,-1
   13538:	1b200130 	blez	t9,0x139fc
   1353c:	00000000 	nop
   13540:	90c50009 	lbu	a1,9(a2)
   13544:	24080004 	li	t0,4
   13548:	30a300ff 	andi	v1,a1,0xff
   1354c:	10680057 	beq	v1,t0,0x136ac
   13550:	240a0001 	li	t2,1
   13554:	3c010801 	lui	at,0x801
   13558:	a02a950d 	sb	t2,-27379(at)
   1355c:	90c900ff 	lbu	t1,255(a2)
   13560:	25270001 	addiu	a3,t1,1
   13564:	3c010801 	lui	at,0x801
   13568:	a027950c 	sb	a3,-27380(at)
   1356c:	3c030801 	lui	v1,0x801
   13570:	9063950d 	lbu	v1,-27379(v1)
   13574:	24060005 	li	a2,5
   13578:	1066006a 	beq	v1,a2,0x13724
   1357c:	2c780005 	sltiu	t8,v1,5
   13580:	130000c4 	beqz	t8,0x13894
   13584:	00009021 	move	s2,zero
   13588:	0003f880 	sll	ra,v1,0x2
   1358c:	3c040801 	lui	a0,0x801
   13590:	248493b8 	addiu	a0,a0,-27720
   13594:	03e4c821 	addu	t9,ra,a0
   13598:	8f250000 	lw	a1,0(t9)
   1359c:	00a00008 	jr	a1
   135a0:	00000000 	nop
   135a4:	241800ff 	li	t8,255
   135a8:	1078005c 	beq	v1,t8,0x1371c
   135ac:	00000000 	nop
   135b0:	90cc000a 	lbu	t4,10(a2)
   135b4:	90ca0009 	lbu	t2,9(a2)
   135b8:	3c080801 	lui	t0,0x801
   135bc:	91089529 	lbu	t0,-27351(t0)
   135c0:	31870080 	andi	a3,t4,0x80
   135c4:	00ea4825 	or	t1,a3,t2
   135c8:	3c010801 	lui	at,0x801
   135cc:	a0299514 	sb	t1,-27372(at)
   135d0:	90c500fd 	lbu	a1,253(a2)
   135d4:	3c140801 	lui	s4,0x801
   135d8:	9294952a 	lbu	s4,-27350(s4)
   135dc:	31110001 	andi	s1,t0,0x1
   135e0:	3c010801 	lui	at,0x801
   135e4:	a0259515 	sb	a1,-27371(at)
   135e8:	90df00fe 	lbu	ra,254(a2)
   135ec:	3c010801 	lui	at,0x801
   135f0:	a03f9516 	sb	ra,-27370(at)
   135f4:	90d200ff 	lbu	s2,255(a2)
   135f8:	3c010801 	lui	at,0x801
   135fc:	a0329517 	sb	s2,-27369(at)
   13600:	8cd90054 	lw	t9,84(a2)
   13604:	3c010801 	lui	at,0x801
   13608:	ac399518 	sw	t9,-27368(at)
   1360c:	8cd00058 	lw	s0,88(a2)
   13610:	3c010801 	lui	at,0x801
   13614:	ac30951c 	sw	s0,-27364(at)
   13618:	8cc3005c 	lw	v1,92(a2)
   1361c:	3c010801 	lui	at,0x801
   13620:	ac349524 	sw	s4,-27356(at)
   13624:	3c010801 	lui	at,0x801
   13628:	ac239520 	sw	v1,-27360(at)
   1362c:	16200008 	bnez	s1,0x13650
   13630:	8fbf002c 	lw	ra,44(sp)
   13634:	8fb40028 	lw	s4,40(sp)
   13638:	8fb30024 	lw	s3,36(sp)
   1363c:	8fb20020 	lw	s2,32(sp)
   13640:	8fb1001c 	lw	s1,28(sp)
   13644:	8fb00018 	lw	s0,24(sp)
   13648:	03e00008 	jr	ra
   1364c:	27bd0030 	addiu	sp,sp,48
   13650:	3c118000 	lui	s1,0x8000
   13654:	9624010e 	lhu	a0,270(s1)
   13658:	0e000fd4 	jal	0x8003f50
   1365c:	3094ffff 	andi	s4,a0,0xffff
   13660:	3c0b0801 	lui	t3,0x801
   13664:	8d6b952c 	lw	t3,-27348(t3)
   13668:	02603821 	move	a3,s3
   1366c:	02802821 	move	a1,s4
   13670:	ae2b0180 	sw	t3,384(s1)
   13674:	3c130801 	lui	s3,0x801
   13678:	8e73950c 	lw	s3,-27380(s3)
   1367c:	01602021 	move	a0,t3
   13680:	24060083 	li	a2,131
   13684:	0e001046 	jal	0x8004118
   13688:	afb30010 	sw	s3,16(sp)
   1368c:	8fbf002c 	lw	ra,44(sp)
   13690:	8fb40028 	lw	s4,40(sp)
   13694:	8fb30024 	lw	s3,36(sp)
   13698:	8fb20020 	lw	s2,32(sp)
   1369c:	8fb1001c 	lw	s1,28(sp)
   136a0:	8fb00018 	lw	s0,24(sp)
   136a4:	03e00008 	jr	ra
   136a8:	27bd0030 	addiu	sp,sp,48
   136ac:	3c180800 	lui	t8,0x800
   136b0:	8f1831fc 	lw	t8,12796(t8)
   136b4:	270f0001 	addiu	t7,t8,1
   136b8:	3c010800 	lui	at,0x800
   136bc:	ac2f31fc 	sw	t7,12796(at)
   136c0:	0a002165 	j	0x8008594
   136c4:	00000000 	nop
   136c8:	1474ffb9 	bne	v1,s4,0x135b0
   136cc:	00000000 	nop
   136d0:	a0c000ff 	sb	zero,255(a2)
   136d4:	3c050800 	lui	a1,0x800
   136d8:	8ca531e4 	lw	a1,12772(a1)
   136dc:	3c030800 	lui	v1,0x800
   136e0:	8c6331e0 	lw	v1,12768(v1)
   136e4:	3c020800 	lui	v0,0x800
   136e8:	8c423204 	lw	v0,12804(v0)
   136ec:	8f990034 	lw	t9,52(gp)
   136f0:	34a80001 	ori	t0,a1,0x1
   136f4:	241f0002 	li	ra,2
   136f8:	3c010801 	lui	at,0x801
   136fc:	ac23952c 	sw	v1,-27348(at)
   13700:	3c010801 	lui	at,0x801
   13704:	a0289528 	sb	t0,-27352(at)
   13708:	3c010801 	lui	at,0x801
   1370c:	a022952b 	sb	v0,-27349(at)
   13710:	a33f0009 	sb	ra,9(t9)
   13714:	0a00211e 	j	0x8008478
   13718:	8f860034 	lw	a2,52(gp)
   1371c:	0e0020d4 	jal	0x8008350
   13720:	00000000 	nop
   13724:	0a002165 	j	0x8008594
   13728:	8f860034 	lw	a2,52(gp)
   1372c:	3c1f0801 	lui	ra,0x801
   13730:	93ff950c 	lbu	ra,-27380(ra)
   13734:	24190001 	li	t9,1
   13738:	13f90229 	beq	ra,t9,0x13fe0
   1373c:	8f87006c 	lw	a3,108(gp)
   13740:	3c100801 	lui	s0,0x801
   13744:	92109510 	lbu	s0,-27376(s0)
   13748:	3c060801 	lui	a2,0x801
   1374c:	90c6950e 	lbu	a2,-27378(a2)
   13750:	10c00005 	beqz	a2,0x13768
   13754:	0200a021 	move	s4,s0
   13758:	3c040801 	lui	a0,0x801
   1375c:	90849511 	lbu	a0,-27375(a0)
   13760:	109001e4 	beq	a0,s0,0x13ef4
   13764:	8f870074 	lw	a3,116(gp)
   13768:	00108840 	sll	s1,s0,0x1
   1376c:	8f9f0074 	lw	ra,116(gp)
   13770:	02304821 	addu	t1,s1,s0
   13774:	0009c880 	sll	t9,t1,0x2
   13778:	033f7021 	addu	t6,t9,ra
   1377c:	95d80008 	lhu	t8,8(t6)
   13780:	270f0001 	addiu	t7,t8,1
   13784:	a5cf0008 	sh	t7,8(t6)
   13788:	3c040801 	lui	a0,0x801
   1378c:	90849511 	lbu	a0,-27375(a0)
   13790:	3c050801 	lui	a1,0x801
   13794:	90a5950e 	lbu	a1,-27378(a1)
   13798:	0e002082 	jal	0x8008208
   1379c:	00000000 	nop
   137a0:	8f870074 	lw	a3,116(gp)
   137a4:	02302021 	addu	a0,s1,s0
   137a8:	00043080 	sll	a2,a0,0x2
   137ac:	00c72021 	addu	a0,a2,a3
   137b0:	8c850004 	lw	a1,4(a0)
   137b4:	8f820070 	lw	v0,112(gp)
   137b8:	00a24023 	subu	t0,a1,v0
   137bc:	05020006 	bltzl	t0,0x137d8
   137c0:	ac820004 	sw	v0,4(a0)
   137c4:	8c8a0000 	lw	t2,0(a0)
   137c8:	8f83006c 	lw	v1,108(gp)
   137cc:	01431023 	subu	v0,t2,v1
   137d0:	5c400001 	bgtzl	v0,0x137d8
   137d4:	ac830000 	sw	v1,0(a0)
   137d8:	8f860034 	lw	a2,52(gp)
   137dc:	90cb00ff 	lbu	t3,255(a2)
   137e0:	2d6c0002 	sltiu	t4,t3,2
   137e4:	5580002d 	bnezl	t4,0x1389c
   137e8:	24140001 	li	s4,1
   137ec:	0230f821 	addu	ra,s1,s0
   137f0:	001f4080 	sll	t0,ra,0x2
   137f4:	01072821 	addu	a1,t0,a3
   137f8:	90b9000b 	lbu	t9,11(a1)
   137fc:	8cae0004 	lw	t6,4(a1)
   13800:	0019c040 	sll	t8,t9,0x1
   13804:	03197821 	addu	t7,t8,t9
   13808:	000f1880 	sll	v1,t7,0x2
   1380c:	00671021 	addu	v0,v1,a3
   13810:	8c4d0000 	lw	t5,0(v0)
   13814:	01ae8823 	subu	s1,t5,t6
   13818:	2630ffff 	addiu	s0,s1,-1
   1381c:	5e00001f 	bgtzl	s0,0x1389c
   13820:	24140001 	li	s4,1
   13824:	8c440004 	lw	a0,4(v0)
   13828:	8caa0000 	lw	t2,0(a1)
   1382c:	008a4823 	subu	t1,a0,t2
   13830:	19200019 	blez	t1,0x13898
   13834:	240e0004 	li	t6,4
   13838:	3c010801 	lui	at,0x801
   1383c:	a02e950d 	sb	t6,-27379(at)
   13840:	90ad000b 	lbu	t5,11(a1)
   13844:	8cab0004 	lw	t3,4(a1)
   13848:	000d8840 	sll	s1,t5,0x1
   1384c:	022d8021 	addu	s0,s1,t5
   13850:	00101080 	sll	v0,s0,0x2
   13854:	00471021 	addu	v0,v0,a3
   13858:	8c440004 	lw	a0,4(v0)
   1385c:	01646023 	subu	t4,t3,a0
   13860:	05820200 	bltzl	t4,0x14064
   13864:	94430008 	lhu	v1,8(v0)
   13868:	90df00fe 	lbu	ra,254(a2)
   1386c:	90b9000b 	lbu	t9,11(a1)
   13870:	33e500ff 	andi	a1,ra,0xff
   13874:	54b90004 	bnel	a1,t9,0x13888
   13878:	0107a021 	addu	s4,t0,a3
   1387c:	a0d400fe 	sb	s4,254(a2)
   13880:	8f870074 	lw	a3,116(gp)
   13884:	0107a021 	addu	s4,t0,a3
   13888:	9284000b 	lbu	a0,11(s4)
   1388c:	0e002082 	jal	0x8008208
   13890:	24050001 	li	a1,1
   13894:	8f860034 	lw	a2,52(gp)
   13898:	24140001 	li	s4,1
   1389c:	12540096 	beq	s2,s4,0x13af8
   138a0:	2e500001 	sltiu	s0,s2,1
   138a4:	16000042 	bnez	s0,0x139b0
   138a8:	3c08ffff 	lui	t0,0xffff
   138ac:	24190002 	li	t9,2
   138b0:	1659ff3f 	bne	s2,t9,0x135b0
   138b4:	00000000 	nop
   138b8:	a0c000ff 	sb	zero,255(a2)
   138bc:	8f860034 	lw	a2,52(gp)
   138c0:	a0d20009 	sb	s2,9(a2)
   138c4:	0a002165 	j	0x8008594
   138c8:	8f860034 	lw	a2,52(gp)
   138cc:	90c70009 	lbu	a3,9(a2)
   138d0:	24040002 	li	a0,2
   138d4:	30e300ff 	andi	v1,a3,0xff
   138d8:	1064016f 	beq	v1,a0,0x13e98
   138dc:	24090004 	li	t1,4
   138e0:	10690152 	beq	v1,t1,0x13e2c
   138e4:	8f880070 	lw	t0,112(gp)
   138e8:	8cce0054 	lw	t6,84(a2)
   138ec:	010e6823 	subu	t5,t0,t6
   138f0:	25b10001 	addiu	s1,t5,1
   138f4:	06200175 	bltz	s1,0x13ecc
   138f8:	24180004 	li	t8,4
   138fc:	3c010801 	lui	at,0x801
   13900:	a038950d 	sb	t8,-27379(at)
   13904:	3c010801 	lui	at,0x801
   13908:	a020950c 	sb	zero,-27380(at)
   1390c:	90d400fd 	lbu	s4,253(a2)
   13910:	90d200ff 	lbu	s2,255(a2)
   13914:	2e4f0002 	sltiu	t7,s2,2
   13918:	15e0ff14 	bnez	t7,0x1356c
   1391c:	328400ff 	andi	a0,s4,0xff
   13920:	00043840 	sll	a3,a0,0x1
   13924:	8f890074 	lw	t1,116(gp)
   13928:	90df00ff 	lbu	ra,255(a2)
   1392c:	00e41021 	addu	v0,a3,a0
   13930:	00022080 	sll	a0,v0,0x2
   13934:	0089c821 	addu	t9,a0,t1
   13938:	2fe50002 	sltiu	a1,ra,2
   1393c:	9324000b 	lbu	a0,11(t9)
   13940:	14a0ff0a 	bnez	a1,0x1356c
   13944:	24070002 	li	a3,2
   13948:	00041840 	sll	v1,a0,0x1
   1394c:	00648021 	addu	s0,v1,a0
   13950:	00105880 	sll	t3,s0,0x2
   13954:	01692821 	addu	a1,t3,t1
   13958:	8cac0004 	lw	t4,4(a1)
   1395c:	010c5023 	subu	t2,t0,t4
   13960:	0540ff02 	bltz	t2,0x1356c
   13964:	00000000 	nop
   13968:	3c030801 	lui	v1,0x801
   1396c:	9063950e 	lbu	v1,-27378(v1)
   13970:	14600005 	bnez	v1,0x13988
   13974:	246f0001 	addiu	t7,v1,1
   13978:	3c010801 	lui	at,0x801
   1397c:	a0249511 	sb	a0,-27375(at)
   13980:	3c010801 	lui	at,0x801
   13984:	a027950f 	sb	a3,-27377(at)
   13988:	3c010801 	lui	at,0x801
   1398c:	a02f950e 	sb	t7,-27378(at)
   13990:	90ce00ff 	lbu	t6,255(a2)
   13994:	24e70001 	addiu	a3,a3,1
   13998:	31cd00ff 	andi	t5,t6,0xff
   1399c:	01a7882b 	sltu	s1,t5,a3
   139a0:	1220ffe9 	beqz	s1,0x13948
   139a4:	90a4000b 	lbu	a0,11(a1)
   139a8:	0a002154 	j	0x8008550
   139ac:	00000000 	nop
   139b0:	3c050801 	lui	a1,0x801
   139b4:	8ca5950c 	lw	a1,-27380(a1)
   139b8:	3c120004 	lui	s2,0x4
   139bc:	00a8f824 	and	ra,a1,t0
   139c0:	13f20006 	beq	ra,s2,0x139dc
   139c4:	24020005 	li	v0,5
   139c8:	3c090801 	lui	t1,0x801
   139cc:	9129950d 	lbu	t1,-27379(t1)
   139d0:	15200002 	bnez	t1,0x139dc
   139d4:	24020003 	li	v0,3
   139d8:	24020005 	li	v0,5
   139dc:	3c010801 	lui	at,0x801
   139e0:	a0229529 	sb	v0,-27351(at)
   139e4:	90c700ff 	lbu	a3,255(a2)
   139e8:	14e00120 	bnez	a3,0x13e6c
   139ec:	24020002 	li	v0,2
   139f0:	a0c20009 	sb	v0,9(a2)
   139f4:	0a002165 	j	0x8008594
   139f8:	8f860034 	lw	a2,52(gp)
   139fc:	90cc00ff 	lbu	t4,255(a2)
   13a00:	1180feda 	beqz	t4,0x1356c
   13a04:	240a0001 	li	t2,1
   13a08:	8f8c0070 	lw	t4,112(gp)
   13a0c:	8f890074 	lw	t1,116(gp)
   13a10:	240f0003 	li	t7,3
   13a14:	01806821 	move	t5,t4
   13a18:	1160001e 	beqz	t3,0x13a94
   13a1c:	240e0002 	li	t6,2
   13a20:	00054040 	sll	t0,a1,0x1
   13a24:	0105a021 	addu	s4,t0,a1
   13a28:	00142080 	sll	a0,s4,0x2
   13a2c:	00899021 	addu	s2,a0,t1
   13a30:	8e510004 	lw	s1,4(s2)
   13a34:	01918023 	subu	s0,t4,s1
   13a38:	0600fecc 	bltz	s0,0x1356c
   13a3c:	00000000 	nop
   13a40:	3c020801 	lui	v0,0x801
   13a44:	9042950e 	lbu	v0,-27378(v0)
   13a48:	14400005 	bnez	v0,0x13a60
   13a4c:	24580001 	addiu	t8,v0,1
   13a50:	3c010801 	lui	at,0x801
   13a54:	a02a950f 	sb	t2,-27377(at)
   13a58:	3c010801 	lui	at,0x801
   13a5c:	a0259511 	sb	a1,-27375(at)
   13a60:	3c010801 	lui	at,0x801
   13a64:	a038950e 	sb	t8,-27378(at)
   13a68:	90df00ff 	lbu	ra,255(a2)
   13a6c:	01051021 	addu	v0,t0,a1
   13a70:	0002c880 	sll	t9,v0,0x2
   13a74:	33e500ff 	andi	a1,ra,0xff
   13a78:	254a0001 	addiu	t2,t2,1
   13a7c:	03292021 	addu	a0,t9,t1
   13a80:	00aa402b 	sltu	t0,a1,t2
   13a84:	1500feb9 	bnez	t0,0x1356c
   13a88:	9085000b 	lbu	a1,11(a0)
   13a8c:	1560ffe5 	bnez	t3,0x13a24
   13a90:	00054040 	sll	t0,a1,0x1
   13a94:	00054040 	sll	t0,a1,0x1
   13a98:	01051821 	addu	v1,t0,a1
   13a9c:	00031080 	sll	v0,v1,0x2
   13aa0:	3c010801 	lui	at,0x801
   13aa4:	a02a950c 	sb	t2,-27380(at)
   13aa8:	3c010801 	lui	at,0x801
   13aac:	a0259510 	sb	a1,-27376(at)
   13ab0:	00491821 	addu	v1,v0,t1
   13ab4:	8c640004 	lw	a0,4(v1)
   13ab8:	00e4f823 	subu	ra,a3,a0
   13abc:	27f9ffff 	addiu	t9,ra,-1
   13ac0:	1f20ffe9 	bgtz	t9,0x13a68
   13ac4:	00000000 	nop
   13ac8:	8c630000 	lw	v1,0(v1)
   13acc:	00e35823 	subu	t3,a3,v1
   13ad0:	0560013a 	bltz	t3,0x13fbc
   13ad4:	01a38823 	subu	s1,t5,v1
   13ad8:	10e30117 	beq	a3,v1,0x13f38
   13adc:	0184c023 	subu	t8,t4,a0
   13ae0:	1b00fea2 	blez	t8,0x1356c
   13ae4:	00000000 	nop
   13ae8:	3c010801 	lui	at,0x801
   13aec:	a02e950d 	sb	t6,-27379(at)
   13af0:	0a002293 	j	0x8008a4c
   13af4:	240b0001 	li	t3,1
   13af8:	240e0004 	li	t6,4
   13afc:	a0ce0009 	sb	t6,9(a2)
   13b00:	3c0d0800 	lui	t5,0x800
   13b04:	8dad31f8 	lw	t5,12792(t5)
   13b08:	8f860034 	lw	a2,52(gp)
   13b0c:	25a20001 	addiu	v0,t5,1
   13b10:	3c010800 	lui	at,0x800
   13b14:	ac2231f8 	sw	v0,12792(at)
   13b18:	0a002165 	j	0x8008594
   13b1c:	00000000 	nop
   13b20:	8cd9005c 	lw	t9,92(a2)
   13b24:	00f9c023 	subu	t8,a3,t9
   13b28:	1f00fe7b 	bgtz	t8,0x13518
   13b2c:	00000000 	nop
   13b30:	8cdf005c 	lw	ra,92(a2)
   13b34:	10ffff65 	beq	a3,ra,0x138cc
   13b38:	8f840070 	lw	a0,112(gp)
   13b3c:	8cc3005c 	lw	v1,92(a2)
   13b40:	00834023 	subu	t0,a0,v1
   13b44:	25020001 	addiu	v0,t0,1
   13b48:	1c40ff60 	bgtz	v0,0x138cc
   13b4c:	00000000 	nop
   13b50:	8cc9005c 	lw	t1,92(a2)
   13b54:	24870001 	addiu	a3,a0,1
   13b58:	00e9282b 	sltu	a1,a3,t1
   13b5c:	10a0fe94 	beqz	a1,0x135b0
   13b60:	3c0d8000 	lui	t5,0x8000
   13b64:	8dab0104 	lw	t3,260(t5)
   13b68:	3c0c0001 	lui	t4,0x1
   13b6c:	016c5024 	and	t2,t3,t4
   13b70:	1140fe8f 	beqz	t2,0x135b0
   13b74:	24020010 	li	v0,16
   13b78:	3c010801 	lui	at,0x801
   13b7c:	a0229529 	sb	v0,-27351(at)
   13b80:	0a002165 	j	0x8008594
   13b84:	00000000 	nop
   13b88:	8f910070 	lw	s1,112(gp)
   13b8c:	8f860034 	lw	a2,52(gp)
   13b90:	26220001 	addiu	v0,s1,1
   13b94:	acc2005c 	sw	v0,92(a2)
   13b98:	0a002220 	j	0x8008880
   13b9c:	24140001 	li	s4,1
   13ba0:	8f870034 	lw	a3,52(gp)
   13ba4:	2404ff80 	li	a0,-128
   13ba8:	00008821 	move	s1,zero
   13bac:	90e9000a 	lbu	t1,10(a3)
   13bb0:	24140001 	li	s4,1
   13bb4:	01243025 	or	a2,t1,a0
   13bb8:	a0e6000a 	sb	a2,10(a3)
   13bbc:	3c050801 	lui	a1,0x801
   13bc0:	90a5950e 	lbu	a1,-27378(a1)
   13bc4:	3c040801 	lui	a0,0x801
   13bc8:	90849511 	lbu	a0,-27375(a0)
   13bcc:	0e002082 	jal	0x8008208
   13bd0:	00000000 	nop
   13bd4:	8f860034 	lw	a2,52(gp)
   13bd8:	8f850074 	lw	a1,116(gp)
   13bdc:	90c800fd 	lbu	t0,253(a2)
   13be0:	310700ff 	andi	a3,t0,0xff
   13be4:	00074040 	sll	t0,a3,0x1
   13be8:	0107f821 	addu	ra,t0,a3
   13bec:	001fc080 	sll	t8,ra,0x2
   13bf0:	0305c821 	addu	t9,t8,a1
   13bf4:	9323000b 	lbu	v1,11(t9)
   13bf8:	a0c300fd 	sb	v1,253(a2)
   13bfc:	8f850074 	lw	a1,116(gp)
   13c00:	8f860034 	lw	a2,52(gp)
   13c04:	03056021 	addu	t4,t8,a1
   13c08:	918f000b 	lbu	t7,11(t4)
   13c0c:	000f7040 	sll	t6,t7,0x1
   13c10:	01cf6821 	addu	t5,t6,t7
   13c14:	000d8080 	sll	s0,t5,0x2
   13c18:	02051021 	addu	v0,s0,a1
   13c1c:	8c4b0000 	lw	t3,0(v0)
   13c20:	accb0054 	sw	t3,84(a2)
   13c24:	8d840004 	lw	a0,4(t4)
   13c28:	8f830070 	lw	v1,112(gp)
   13c2c:	00645023 	subu	t2,v1,a0
   13c30:	19400002 	blez	t2,0x13c3c
   13c34:	24820001 	addiu	v0,a0,1
   13c38:	24620001 	addiu	v0,v1,1
   13c3c:	01074821 	addu	t1,t0,a3
   13c40:	acc2005c 	sw	v0,92(a2)
   13c44:	00093080 	sll	a2,t1,0x2
   13c48:	00c54021 	addu	t0,a2,a1
   13c4c:	00e02021 	move	a0,a3
   13c50:	24050001 	li	a1,1
   13c54:	0e002082 	jal	0x8008208
   13c58:	9110000b 	lbu	s0,11(t0)
   13c5c:	8f860034 	lw	a2,52(gp)
   13c60:	90c500ff 	lbu	a1,255(a2)
   13c64:	10a0ff0c 	beqz	a1,0x13898
   13c68:	00107040 	sll	t6,s0,0x1
   13c6c:	8f850074 	lw	a1,116(gp)
   13c70:	01d06821 	addu	t5,t6,s0
   13c74:	000d1080 	sll	v0,t5,0x2
   13c78:	00455821 	addu	t3,v0,a1
   13c7c:	8d640000 	lw	a0,0(t3)
   13c80:	8f8c0070 	lw	t4,112(gp)
   13c84:	01845023 	subu	t2,t4,a0
   13c88:	25470001 	addiu	a3,t2,1
   13c8c:	04e0ff02 	bltz	a3,0x13898
   13c90:	26310001 	addiu	s1,s1,1
   13c94:	3c030801 	lui	v1,0x801
   13c98:	9063950e 	lbu	v1,-27378(v1)
   13c9c:	2e2f0002 	sltiu	t7,s1,2
   13ca0:	24780001 	addiu	t8,v1,1
   13ca4:	3c010801 	lui	at,0x801
   13ca8:	a038950e 	sb	t8,-27378(at)
   13cac:	3c010801 	lui	at,0x801
   13cb0:	a034950f 	sb	s4,-27377(at)
   13cb4:	11e0fef8 	beqz	t7,0x13898
   13cb8:	02003821 	move	a3,s0
   13cbc:	0a0022f3 	j	0x8008bcc
   13cc0:	00074040 	sll	t0,a3,0x1
   13cc4:	8f840034 	lw	a0,52(gp)
   13cc8:	8f830070 	lw	v1,112(gp)
   13ccc:	8c850058 	lw	a1,88(a0)
   13cd0:	00a34023 	subu	t0,a1,v1
   13cd4:	0502fe9a 	bltzl	t0,0x13740
   13cd8:	ac830058 	sw	v1,88(a0)
   13cdc:	0a0021c9 	j	0x8008724
   13ce0:	00000000 	nop
   13ce4:	3c070801 	lui	a3,0x801
   13ce8:	90e7952a 	lbu	a3,-27350(a3)
   13cec:	240200ff 	li	v0,255
   13cf0:	10e200be 	beq	a3,v0,0x13fec
   13cf4:	8f860034 	lw	a2,52(gp)
   13cf8:	3c110801 	lui	s1,0x801
   13cfc:	96319532 	lhu	s1,-27342(s1)
   13d00:	3c030801 	lui	v1,0x801
   13d04:	24639530 	addiu	v1,v1,-27344
   13d08:	26250001 	addiu	a1,s1,1
   13d0c:	3230ffff 	andi	s0,s1,0xffff
   13d10:	30abffff 	andi	t3,a1,0xffff
   13d14:	02036021 	addu	t4,s0,v1
   13d18:	2d6a00ff 	sltiu	t2,t3,255
   13d1c:	1540008d 	bnez	t2,0x13f54
   13d20:	91870004 	lbu	a3,4(t4)
   13d24:	3c010801 	lui	at,0x801
   13d28:	a4209532 	sh	zero,-27342(at)
   13d2c:	8f880034 	lw	t0,52(gp)
   13d30:	00074840 	sll	t1,a3,0x1
   13d34:	01272821 	addu	a1,t1,a3
   13d38:	911800ff 	lbu	t8,255(t0)
   13d3c:	00053080 	sll	a2,a1,0x2
   13d40:	24050001 	li	a1,1
   13d44:	27140001 	addiu	s4,t8,1
   13d48:	a11400ff 	sb	s4,255(t0)
   13d4c:	3c120801 	lui	s2,0x801
   13d50:	9252952a 	lbu	s2,-27350(s2)
   13d54:	8f880074 	lw	t0,116(gp)
   13d58:	8f8e006c 	lw	t6,108(gp)
   13d5c:	264f0001 	addiu	t7,s2,1
   13d60:	00c82021 	addu	a0,a2,t0
   13d64:	3c010801 	lui	at,0x801
   13d68:	a02f952a 	sb	t7,-27350(at)
   13d6c:	ac8e0000 	sw	t6,0(a0)
   13d70:	8f8d0070 	lw	t5,112(gp)
   13d74:	a4850008 	sh	a1,8(a0)
   13d78:	ac8d0004 	sw	t5,4(a0)
   13d7c:	3c030801 	lui	v1,0x801
   13d80:	9063950c 	lbu	v1,-27380(v1)
   13d84:	14600077 	bnez	v1,0x13f64
   13d88:	00009021 	move	s2,zero
   13d8c:	3c010801 	lui	at,0x801
   13d90:	a025950c 	sb	a1,-27380(at)
   13d94:	a087000b 	sb	a3,11(a0)
   13d98:	8f8c0074 	lw	t4,116(gp)
   13d9c:	00cc5021 	addu	t2,a2,t4
   13da0:	a147000a 	sb	a3,10(t2)
   13da4:	8f820034 	lw	v0,52(gp)
   13da8:	a04700fd 	sb	a3,253(v0)
   13dac:	8f840034 	lw	a0,52(gp)
   13db0:	a08700fe 	sb	a3,254(a0)
   13db4:	8f860034 	lw	a2,52(gp)
   13db8:	8f9f006c 	lw	ra,108(gp)
   13dbc:	acdf0054 	sw	ra,84(a2)
   13dc0:	8f990070 	lw	t9,112(gp)
   13dc4:	acd90058 	sw	t9,88(a2)
   13dc8:	8f8d0074 	lw	t5,116(gp)
   13dcc:	0127c021 	addu	t8,t1,a3
   13dd0:	00185880 	sll	t3,t8,0x2
   13dd4:	016da021 	addu	s4,t3,t5
   13dd8:	928f000a 	lbu	t7,10(s4)
   13ddc:	000f7040 	sll	t6,t7,0x1
   13de0:	01cf1821 	addu	v1,t6,t7
   13de4:	00038880 	sll	s1,v1,0x2
   13de8:	022d8021 	addu	s0,s1,t5
   13dec:	a207000b 	sb	a3,11(s0)
   13df0:	8f860074 	lw	a2,116(gp)
   13df4:	01666021 	addu	t4,t3,a2
   13df8:	918a000b 	lbu	t2,11(t4)
   13dfc:	000a1040 	sll	v0,t2,0x1
   13e00:	004a2021 	addu	a0,v0,t2
   13e04:	00042880 	sll	a1,a0,0x2
   13e08:	00a64021 	addu	t0,a1,a2
   13e0c:	a107000a 	sb	a3,10(t0)
   13e10:	3c078008 	lui	a3,0x8008
   13e14:	34e90080 	ori	t1,a3,0x80
   13e18:	8d220030 	lw	v0,48(t1)
   13e1c:	8f860034 	lw	a2,52(gp)
   13e20:	acc2005c 	sw	v0,92(a2)
   13e24:	0a002220 	j	0x8008880
   13e28:	24140001 	li	s4,1
   13e2c:	90ca00ff 	lbu	t2,255(a2)
   13e30:	1540fead 	bnez	t2,0x138e8
   13e34:	8f880070 	lw	t0,112(gp)
   13e38:	a0c40009 	sb	a0,9(a2)
   13e3c:	0a002165 	j	0x8008594
   13e40:	8f860034 	lw	a2,52(gp)
   13e44:	a0c000fd 	sb	zero,253(a2)
   13e48:	8f980034 	lw	t8,52(gp)
   13e4c:	24060001 	li	a2,1
   13e50:	a30000fe 	sb	zero,254(t8)
   13e54:	3c010801 	lui	at,0x801
   13e58:	a026950d 	sb	a2,-27379(at)
   13e5c:	3c010801 	lui	at,0x801
   13e60:	a020950c 	sb	zero,-27380(at)
   13e64:	0a002154 	j	0x8008550
   13e68:	00000000 	nop
   13e6c:	90cb00ff 	lbu	t3,255(a2)
   13e70:	3c040801 	lui	a0,0x801
   13e74:	9084952b 	lbu	a0,-27349(a0)
   13e78:	316c00ff 	andi	t4,t3,0xff
   13e7c:	0184502b 	sltu	t2,t4,a0
   13e80:	1540000f 	bnez	t2,0x13ec0
   13e84:	24020003 	li	v0,3
   13e88:	24020004 	li	v0,4
   13e8c:	a0c20009 	sb	v0,9(a2)
   13e90:	0a002165 	j	0x8008594
   13e94:	8f860034 	lw	a2,52(gp)
   13e98:	90c3000a 	lbu	v1,10(a2)
   13e9c:	2410ff80 	li	s0,-128
   13ea0:	02035824 	and	t3,s0,v1
   13ea4:	316c00ff 	andi	t4,t3,0xff
   13ea8:	1180fdc1 	beqz	t4,0x135b0
   13eac:	00000000 	nop
   13eb0:	3c010801 	lui	at,0x801
   13eb4:	a020950d 	sb	zero,-27379(at)
   13eb8:	0a002154 	j	0x8008550
   13ebc:	00000000 	nop
   13ec0:	a0c20009 	sb	v0,9(a2)
   13ec4:	0a002165 	j	0x8008594
   13ec8:	8f860034 	lw	a2,52(gp)
   13ecc:	90d4000a 	lbu	s4,10(a2)
   13ed0:	2412ff80 	li	s2,-128
   13ed4:	02544824 	and	t1,s2,s4
   13ed8:	312800ff 	andi	t0,t1,0xff
   13edc:	1500fff4 	bnez	t0,0x13eb0
   13ee0:	24020008 	li	v0,8
   13ee4:	3c010801 	lui	at,0x801
   13ee8:	a0229529 	sb	v0,-27351(at)
   13eec:	0a002165 	j	0x8008594
   13ef0:	00000000 	nop
   13ef4:	00108840 	sll	s1,s0,0x1
   13ef8:	8f8b006c 	lw	t3,108(gp)
   13efc:	02301821 	addu	v1,s1,s0
   13f00:	00036880 	sll	t5,v1,0x2
   13f04:	01a72021 	addu	a0,t5,a3
   13f08:	ac8b0000 	sw	t3,0(a0)
   13f0c:	8f8a0070 	lw	t2,112(gp)
   13f10:	240c0001 	li	t4,1
   13f14:	a48c0008 	sh	t4,8(a0)
   13f18:	ac8a0004 	sw	t2,4(a0)
   13f1c:	3c050801 	lui	a1,0x801
   13f20:	90a5950e 	lbu	a1,-27378(a1)
   13f24:	24020001 	li	v0,1
   13f28:	10a2fe1e 	beq	a1,v0,0x137a4
   13f2c:	24a5ffff 	addiu	a1,a1,-1
   13f30:	0a0021df 	j	0x800877c
   13f34:	9084000b 	lbu	a0,11(a0)
   13f38:	0184a023 	subu	s4,t4,a0
   13f3c:	1a80fd8b 	blez	s4,0x1356c
   13f40:	00000000 	nop
   13f44:	3c010801 	lui	at,0x801
   13f48:	a02e950d 	sb	t6,-27379(at)
   13f4c:	0a002293 	j	0x8008a4c
   13f50:	240b0001 	li	t3,1
   13f54:	3c010801 	lui	at,0x801
   13f58:	a4259532 	sh	a1,-27342(at)
   13f5c:	0a002345 	j	0x8008d14
   13f60:	8f880034 	lw	t0,52(gp)
   13f64:	240b0001 	li	t3,1
   13f68:	106b0022 	beq	v1,t3,0x13ff4
   13f6c:	8f980034 	lw	t8,52(gp)
   13f70:	8f850034 	lw	a1,52(gp)
   13f74:	90bf00ff 	lbu	ra,255(a1)
   13f78:	33f900ff 	andi	t9,ra,0xff
   13f7c:	1079002b 	beq	v1,t9,0x1402c
   13f80:	00000000 	nop
   13f84:	3c1f0801 	lui	ra,0x801
   13f88:	93ff9510 	lbu	ra,-27376(ra)
   13f8c:	001fc840 	sll	t9,ra,0x1
   13f90:	033fc021 	addu	t8,t9,ra
   13f94:	0018a080 	sll	s4,t8,0x2
   13f98:	02887821 	addu	t7,s4,t0
   13f9c:	91ee000a 	lbu	t6,10(t7)
   13fa0:	a08e000a 	sb	t6,10(a0)
   13fa4:	8f8d0074 	lw	t5,116(gp)
   13fa8:	3c030801 	lui	v1,0x801
   13fac:	90639510 	lbu	v1,-27376(v1)
   13fb0:	00cd8821 	addu	s1,a2,t5
   13fb4:	0a00236b 	j	0x8008dac
   13fb8:	a223000b 	sb	v1,11(s1)
   13fbc:	26300001 	addiu	s0,s1,1
   13fc0:	06000031 	bltz	s0,0x14088
   13fc4:	01a49023 	subu	s2,t5,a0
   13fc8:	0640002b 	bltz	s2,0x14078
   13fcc:	24020003 	li	v0,3
   13fd0:	3c010801 	lui	at,0x801
   13fd4:	a02f950d 	sb	t7,-27379(at)
   13fd8:	0a002293 	j	0x8008a4c
   13fdc:	240b0001 	li	t3,1
   13fe0:	8f890034 	lw	t1,52(gp)
   13fe4:	0a0021c9 	j	0x8008724
   13fe8:	ad270054 	sw	a3,84(t1)
   13fec:	0a00221f 	j	0x800887c
   13ff0:	24120001 	li	s2,1
   13ff4:	931400fd 	lbu	s4,253(t8)
   13ff8:	a094000b 	sb	s4,11(a0)
   13ffc:	8f880034 	lw	t0,52(gp)
   14000:	8f8f0074 	lw	t7,116(gp)
   14004:	910e00fe 	lbu	t6,254(t0)
   14008:	00cf6821 	addu	t5,a2,t7
   1400c:	a1ae000a 	sb	t6,10(t5)
   14010:	8f910034 	lw	s1,52(gp)
   14014:	a22700fd 	sb	a3,253(s1)
   14018:	8f83006c 	lw	v1,108(gp)
   1401c:	8f900034 	lw	s0,52(gp)
   14020:	ae030054 	sw	v1,84(s0)
   14024:	0a00236c 	j	0x8008db0
   14028:	8f8d0074 	lw	t5,116(gp)
   1402c:	90b000fe 	lbu	s0,254(a1)
   14030:	a090000a 	sb	s0,10(a0)
   14034:	8f8b0034 	lw	t3,52(gp)
   14038:	8f8c0074 	lw	t4,116(gp)
   1403c:	916a00fd 	lbu	t2,253(t3)
   14040:	00cc1021 	addu	v0,a2,t4
   14044:	a04a000b 	sb	t2,11(v0)
   14048:	8f840034 	lw	a0,52(gp)
   1404c:	a08700fe 	sb	a3,254(a0)
   14050:	8f860070 	lw	a2,112(gp)
   14054:	8f850034 	lw	a1,52(gp)
   14058:	aca60058 	sw	a2,88(a1)
   1405c:	0a00236c 	j	0x8008db0
   14060:	8f8d0074 	lw	t5,116(gp)
   14064:	94b80008 	lhu	t8,8(a1)
   14068:	aca40004 	sw	a0,4(a1)
   1406c:	03037821 	addu	t7,t8,v1
   14070:	0a002213 	j	0x800884c
   14074:	a4af0008 	sh	t7,8(a1)
   14078:	3c010801 	lui	at,0x801
   1407c:	a022950d 	sb	v0,-27379(at)
   14080:	0a002154 	j	0x8008550
   14084:	00000000 	nop
   14088:	90cf0009 	lbu	t7,9(a2)
   1408c:	240d0004 	li	t5,4
   14090:	31ee00ff 	andi	t6,t7,0xff
   14094:	11cdfd85 	beq	t6,t5,0x136ac
   14098:	24020001 	li	v0,1
   1409c:	3c010801 	lui	at,0x801
   140a0:	a022950d 	sb	v0,-27379(at)
   140a4:	0a002154 	j	0x8008550
   140a8:	00000000 	nop
   140ac:	08003344 	j	0xcd10
   140b0:	08003344 	j	0xcd10
   140b4:	08003420 	j	0xd080
   140b8:	080033f4 	j	0xcfd0
   140bc:	080033d8 	j	0xcf60
   140c0:	08003328 	j	0xcca0
   140c4:	08003328 	j	0xcca0
   140c8:	08003328 	j	0xcca0
   140cc:	0800334c 	j	0xcd30
   140d0:	80080100 	lb	t0,256(zero)
   140d4:	80080080 	lb	t0,128(zero)
   140d8:	80080000 	lb	t0,0(zero)
   140dc:	5f865437 	.word	0x5f865437
   140e0:	e4ac62cc 	swc1	$f12,25292(a1)
   140e4:	50103a45 	beql	zero,s0,0x229fc
   140e8:	36621985 	ori	v0,s3,0x1985
   140ec:	bf14c0e8 	cache	0x14,-16152(t8)
   140f0:	1bc27a1e 	.word	0x1bc27a1e
   140f4:	84f4b556 	lh	s4,-19114(a3)
   140f8:	094ea6fe 	j	0x53a9bf8
   140fc:	7dda01e7 	.word	0x7dda01e7
   14100:	c04d7481 	ll	t5,29825(v0)
   14104:	080058d0 	j	0x16340
   14108:	08005914 	j	0x16450
   1410c:	080058b8 	j	0x162e0
   14110:	080058b8 	j	0x162e0
   14114:	080058b8 	j	0x162e0
   14118:	080058b8 	j	0x162e0
   1411c:	080058d0 	j	0x16340
   14120:	080058b8 	j	0x162e0
   14124:	080058b8 	j	0x162e0
   14128:	0800591c 	j	0x16470
   1412c:	080058b8 	j	0x162e0
   14130:	08005830 	j	0x160c0
   14134:	080058b8 	j	0x162e0
   14138:	080058b8 	j	0x162e0
   1413c:	0800591c 	j	0x16470
   14140:	080058b8 	j	0x162e0
   14144:	080058b8 	j	0x162e0
   14148:	080058b8 	j	0x162e0
   1414c:	080058b8 	j	0x162e0
   14150:	080058b8 	j	0x162e0
   14154:	080058b8 	j	0x162e0
   14158:	080058b8 	j	0x162e0
   1415c:	080058b8 	j	0x162e0
   14160:	080058b8 	j	0x162e0
   14164:	080058b8 	j	0x162e0
   14168:	080058f0 	j	0x163c0
   1416c:	080058b8 	j	0x162e0
   14170:	080058f0 	j	0x163c0
   14174:	080058b8 	j	0x162e0
   14178:	080058b8 	j	0x162e0
   1417c:	080058b8 	j	0x162e0
   14180:	080058f4 	j	0x163d0
   14184:	080058f0 	j	0x163c0
   14188:	080058b8 	j	0x162e0
   1418c:	080058b8 	j	0x162e0
   14190:	080058b8 	j	0x162e0
   14194:	080058b8 	j	0x162e0
   14198:	080058b8 	j	0x162e0
   1419c:	080058b8 	j	0x162e0
   141a0:	080058b8 	j	0x162e0
   141a4:	080058b8 	j	0x162e0
   141a8:	080058b8 	j	0x162e0
   141ac:	080058b8 	j	0x162e0
   141b0:	080058b8 	j	0x162e0
   141b4:	080058b8 	j	0x162e0
   141b8:	080058b8 	j	0x162e0
   141bc:	080058b8 	j	0x162e0
   141c0:	080058b8 	j	0x162e0
   141c4:	080058b8 	j	0x162e0
   141c8:	080058b8 	j	0x162e0
   141cc:	080058b8 	j	0x162e0
   141d0:	080058b8 	j	0x162e0
   141d4:	080058b8 	j	0x162e0
   141d8:	080058f4 	j	0x163d0
   141dc:	080058f4 	j	0x163d0
   141e0:	080058b8 	j	0x162e0
   141e4:	080058f4 	j	0x163d0
   141e8:	080058b8 	j	0x162e0
   141ec:	080058b8 	j	0x162e0
   141f0:	080058b8 	j	0x162e0
   141f4:	080058b8 	j	0x162e0
   141f8:	080058b8 	j	0x162e0
   141fc:	080058b8 	j	0x162e0
   14200:	080058b8 	j	0x162e0
   14204:	080058b8 	j	0x162e0
   14208:	080058b8 	j	0x162e0
   1420c:	080058b8 	j	0x162e0
   14210:	080058b8 	j	0x162e0
   14214:	080058b8 	j	0x162e0
   14218:	080058b8 	j	0x162e0
   1421c:	080058b8 	j	0x162e0
   14220:	080058b8 	j	0x162e0
   14224:	080058b8 	j	0x162e0
   14228:	080058b8 	j	0x162e0
   1422c:	080058b8 	j	0x162e0
   14230:	080058b8 	j	0x162e0
   14234:	080058b8 	j	0x162e0
   14238:	080058b8 	j	0x162e0
   1423c:	080058b8 	j	0x162e0
   14240:	080058b8 	j	0x162e0
   14244:	080058b8 	j	0x162e0
   14248:	080058b8 	j	0x162e0
   1424c:	080058b8 	j	0x162e0
   14250:	080058b8 	j	0x162e0
   14254:	080058b8 	j	0x162e0
   14258:	080058b8 	j	0x162e0
   1425c:	080058b8 	j	0x162e0
   14260:	080058b8 	j	0x162e0
   14264:	080058b8 	j	0x162e0
   14268:	080058b8 	j	0x162e0
   1426c:	080058b8 	j	0x162e0
   14270:	080058b8 	j	0x162e0
   14274:	080058b8 	j	0x162e0
   14278:	080058b8 	j	0x162e0
   1427c:	080058b8 	j	0x162e0
   14280:	080058b8 	j	0x162e0
   14284:	080058b8 	j	0x162e0
   14288:	080058b8 	j	0x162e0
   1428c:	080058b8 	j	0x162e0
   14290:	080058b8 	j	0x162e0
   14294:	080058b8 	j	0x162e0
   14298:	080058b8 	j	0x162e0
   1429c:	080058b8 	j	0x162e0
   142a0:	080058b8 	j	0x162e0
   142a4:	080058b8 	j	0x162e0
   142a8:	080058b8 	j	0x162e0
   142ac:	080058b8 	j	0x162e0
   142b0:	080058b8 	j	0x162e0
   142b4:	080058b8 	j	0x162e0
   142b8:	080058b8 	j	0x162e0
   142bc:	080058b8 	j	0x162e0
   142c0:	080058b8 	j	0x162e0
   142c4:	080058b8 	j	0x162e0
   142c8:	080058b8 	j	0x162e0
   142cc:	080058b8 	j	0x162e0
   142d0:	080058b8 	j	0x162e0
   142d4:	080058b8 	j	0x162e0
   142d8:	080058b8 	j	0x162e0
   142dc:	080058b8 	j	0x162e0
   142e0:	080058b8 	j	0x162e0
   142e4:	080058b8 	j	0x162e0
   142e8:	080058b8 	j	0x162e0
   142ec:	080058b8 	j	0x162e0
   142f0:	080058b8 	j	0x162e0
   142f4:	080058b8 	j	0x162e0
   142f8:	080058b8 	j	0x162e0
   142fc:	080058b8 	j	0x162e0
   14300:	080058b8 	j	0x162e0
   14304:	08005938 	j	0x164e0
   14308:	08007688 	j	0x1da20
   1430c:	080078ec 	j	0x1e3b0
   14310:	08007694 	j	0x1da50
   14314:	08007488 	j	0x1d220
   14318:	08007694 	j	0x1da50
   1431c:	08007720 	j	0x1dc80
   14320:	08007694 	j	0x1da50
   14324:	08007488 	j	0x1d220
   14328:	08007488 	j	0x1d220
   1432c:	08007488 	j	0x1d220
   14330:	08007488 	j	0x1d220
   14334:	08007488 	j	0x1d220
   14338:	08007488 	j	0x1d220
   1433c:	08007488 	j	0x1d220
   14340:	08007488 	j	0x1d220
   14344:	08007488 	j	0x1d220
   14348:	08007488 	j	0x1d220
   1434c:	080076b4 	j	0x1dad0
   14350:	080076a4 	j	0x1da90
   14354:	08007488 	j	0x1d220
   14358:	08007488 	j	0x1d220
   1435c:	08007488 	j	0x1d220
   14360:	08007488 	j	0x1d220
   14364:	08007488 	j	0x1d220
   14368:	08007488 	j	0x1d220
   1436c:	08007488 	j	0x1d220
   14370:	08007488 	j	0x1d220
   14374:	08007488 	j	0x1d220
   14378:	08007488 	j	0x1d220
   1437c:	08007488 	j	0x1d220
   14380:	08007488 	j	0x1d220
   14384:	080076a4 	j	0x1da90
   14388:	08008134 	j	0x204d0
   1438c:	08007fc0 	j	0x1ff00
   14390:	080080fc 	j	0x203f0
   14394:	08007fc0 	j	0x1ff00
   14398:	080080cc 	j	0x20330
   1439c:	08007ea8 	j	0x1faa0
   143a0:	08007fc0 	j	0x1ff00
   143a4:	08007fc0 	j	0x1ff00
   143a8:	08007fc0 	j	0x1ff00
   143ac:	08007fc0 	j	0x1ff00
   143b0:	08007fc0 	j	0x1ff00
   143b4:	08007fc0 	j	0x1ff00
   143b8:	08007fc0 	j	0x1ff00
   143bc:	08007fc0 	j	0x1ff00
   143c0:	08007fc0 	j	0x1ff00
   143c4:	08007fc0 	j	0x1ff00
   143c8:	08007fc0 	j	0x1ff00
   143cc:	08007fc0 	j	0x1ff00
   143d0:	08007fe8 	j	0x1ffa0
   143d4:	08008b6c 	j	0x22db0
   143d8:	08008cc8 	j	0x23320
   143dc:	08008ca8 	j	0x232a0
   143e0:	08008710 	j	0x21c40
   143e4:	08008b84 	j	0x22e10
   143e8:	0a000124 	j	0x8000490
   143ec:	00000000 	nop
   143f0:	00000000 	nop
   143f4:	0000000d 	break
   143f8:	74706136 	jalx	0x1c184d9
   143fc:	2e302e31 	sltiu	s0,s1,11825
   14400:	37000000 	ori	zero,t8,0x0
   14404:	06001101 	bltz	s0,0x1880c
   14408:	00000000 	nop
	...
   1447c:	10000003 	b	0x1448c
   14480:	00000000 	nop
   14484:	0000000d 	break
   14488:	0000000d 	break
   1448c:	3c020800 	lui	v0,0x800
   14490:	24421720 	addiu	v0,v0,5920
   14494:	3c030800 	lui	v1,0x800
   14498:	24632a10 	addiu	v1,v1,10768
   1449c:	ac400000 	sw	zero,0(v0)
   144a0:	0043202b 	sltu	a0,v0,v1
   144a4:	1480fffd 	bnez	a0,0x1449c
   144a8:	24420004 	addiu	v0,v0,4
   144ac:	3c1d0800 	lui	sp,0x800
   144b0:	37bd2ffc 	ori	sp,sp,0x2ffc
   144b4:	03a0f021 	move	s8,sp
   144b8:	3c100800 	lui	s0,0x800
   144bc:	26100490 	addiu	s0,s0,1168
   144c0:	3c1c0800 	lui	gp,0x800
   144c4:	279c1720 	addiu	gp,gp,5920
   144c8:	0e000262 	jal	0x8000988
   144cc:	00000000 	nop
   144d0:	0000000d 	break
   144d4:	2402ff80 	li	v0,-128
   144d8:	27bdffe0 	addiu	sp,sp,-32
   144dc:	00821024 	and	v0,a0,v0
   144e0:	afb00010 	sw	s0,16(sp)
   144e4:	af420020 	sw	v0,32(k0)
   144e8:	afbf0018 	sw	ra,24(sp)
   144ec:	afb10014 	sw	s1,20(sp)
   144f0:	93650004 	lbu	a1,4(k1)
   144f4:	3084007f 	andi	a0,a0,0x7f
   144f8:	03441821 	addu	v1,k0,a0
   144fc:	3c020008 	lui	v0,0x8
   14500:	00621821 	addu	v1,v1,v0
   14504:	30a50020 	andi	a1,a1,0x20
   14508:	03608021 	move	s0,k1
   1450c:	3c080111 	lui	t0,0x111
   14510:	277b0008 	addiu	k1,k1,8
   14514:	14a00002 	bnez	a1,0x14520
   14518:	2466005c 	addiu	a2,v1,92
   1451c:	24660058 	addiu	a2,v1,88
   14520:	92020004 	lbu	v0,4(s0)
   14524:	97430104 	lhu	v1,260(k0)
   14528:	92040004 	lbu	a0,4(s0)
   1452c:	3047000f 	andi	a3,v0,0xf
   14530:	3063ffff 	andi	v1,v1,0xffff
   14534:	30840040 	andi	a0,a0,0x40
   14538:	00672823 	subu	a1,v1,a3
   1453c:	10800009 	beqz	a0,0x14564
   14540:	00004821 	move	t1,zero
   14544:	92020005 	lbu	v0,5(s0)
   14548:	30420004 	andi	v0,v0,0x4
   1454c:	10400005 	beqz	v0,0x14564
   14550:	00000000 	nop
   14554:	10a00003 	beqz	a1,0x14564
   14558:	00000000 	nop
   1455c:	24a5fffc 	addiu	a1,a1,-4
   14560:	24090004 	li	t1,4
   14564:	92020005 	lbu	v0,5(s0)
   14568:	30420004 	andi	v0,v0,0x4
   1456c:	10400012 	beqz	v0,0x145b8
   14570:	00000000 	nop
   14574:	10a00010 	beqz	a1,0x145b8
   14578:	00000000 	nop
   1457c:	96020002 	lhu	v0,2(s0)
   14580:	00a72021 	addu	a0,a1,a3
   14584:	01044025 	or	t0,t0,a0
   14588:	2442fffe 	addiu	v0,v0,-2
   1458c:	a7421016 	sh	v0,4118(k0)
   14590:	92030004 	lbu	v1,4(s0)
   14594:	2402ff80 	li	v0,-128
   14598:	00431024 	and	v0,v0,v1
   1459c:	304200ff 	andi	v0,v0,0xff
   145a0:	10400003 	beqz	v0,0x145b0
   145a4:	3c020400 	lui	v0,0x400
   145a8:	0a000174 	j	0x80005d0
   145ac:	01024025 	or	t0,t0,v0
   145b0:	8cc20000 	lw	v0,0(a2)
   145b4:	af421018 	sw	v0,4120(k0)
   145b8:	8f420178 	lw	v0,376(k0)
   145bc:	0440fffe 	bltz	v0,0x145b8
   145c0:	2402000a 	li	v0,10
   145c4:	a7420140 	sh	v0,320(k0)
   145c8:	96020002 	lhu	v0,2(s0)
   145cc:	24040009 	li	a0,9
   145d0:	30420007 	andi	v0,v0,0x7
   145d4:	00021023 	negu	v0,v0
   145d8:	30420007 	andi	v0,v0,0x7
   145dc:	a7420142 	sh	v0,322(k0)
   145e0:	96020002 	lhu	v0,2(s0)
   145e4:	2442fffe 	addiu	v0,v0,-2
   145e8:	a7420144 	sh	v0,324(k0)
   145ec:	a7400146 	sh	zero,326(k0)
   145f0:	97420104 	lhu	v0,260(k0)
   145f4:	a7420148 	sh	v0,328(k0)
   145f8:	8f420108 	lw	v0,264(k0)
   145fc:	30420020 	andi	v0,v0,0x20
   14600:	50400001 	beqzl	v0,0x14608
   14604:	24040001 	li	a0,1
   14608:	92020004 	lbu	v0,4(s0)
   1460c:	30420010 	andi	v0,v0,0x10
   14610:	14400002 	bnez	v0,0x1461c
   14614:	34830010 	ori	v1,a0,0x10
   14618:	00801821 	move	v1,a0
   1461c:	a743014a 	sh	v1,330(k0)
	...
   14630:	af481000 	sw	t0,4096(k0)
	...
   14644:	8f421000 	lw	v0,4096(k0)
   14648:	0441fffe 	bgez	v0,0x14644
   1464c:	3102ffff 	andi	v0,t0,0xffff
   14650:	10400007 	beqz	v0,0x14670
   14654:	00000000 	nop
   14658:	92020004 	lbu	v0,4(s0)
   1465c:	30420040 	andi	v0,v0,0x40
   14660:	14400003 	bnez	v0,0x14670
   14664:	00000000 	nop
   14668:	8f421018 	lw	v0,4120(k0)
   1466c:	acc20000 	sw	v0,0(a2)
   14670:	96020006 	lhu	v0,6(s0)
   14674:	3042ffff 	andi	v0,v0,0xffff
   14678:	24420002 	addiu	v0,v0,2
   1467c:	00021043 	sra	v0,v0,0x1
   14680:	00021040 	sll	v0,v0,0x1
   14684:	03628821 	addu	s1,k1,v0
   14688:	96220000 	lhu	v0,0(s1)
   1468c:	1120000d 	beqz	t1,0x146c4
   14690:	3044ffff 	andi	a0,v0,0xffff
   14694:	00a71021 	addu	v0,a1,a3
   14698:	8f830038 	lw	v1,56(gp)
   1469c:	8f45101c 	lw	a1,4124(k0)
   146a0:	00021082 	srl	v0,v0,0x2
   146a4:	00021080 	sll	v0,v0,0x2
   146a8:	00431021 	addu	v0,v0,v1
   146ac:	ac450000 	sw	a1,0(v0)
   146b0:	30a6ffff 	andi	a2,a1,0xffff
   146b4:	0e00058d 	jal	0x8001634
   146b8:	00052c02 	srl	a1,a1,0x10
   146bc:	00402021 	move	a0,v0
   146c0:	a6220000 	sh	v0,0(s1)
   146c4:	92030004 	lbu	v1,4(s0)
   146c8:	2402ff80 	li	v0,-128
   146cc:	00431024 	and	v0,v0,v1
   146d0:	304200ff 	andi	v0,v0,0xff
   146d4:	1040001f 	beqz	v0,0x14754
   146d8:	00000000 	nop
   146dc:	92020005 	lbu	v0,5(s0)
   146e0:	30420002 	andi	v0,v0,0x2
   146e4:	1040001b 	beqz	v0,0x14754
   146e8:	00000000 	nop
   146ec:	9742100c 	lhu	v0,4108(k0)
   146f0:	2442fffe 	addiu	v0,v0,-2
   146f4:	a7421016 	sh	v0,4118(k0)
   146f8:	00000000 	nop
   146fc:	3c020400 	lui	v0,0x400
   14700:	34420030 	ori	v0,v0,0x30
   14704:	af421000 	sw	v0,4096(k0)
	...
   14718:	8f421000 	lw	v0,4096(k0)
   1471c:	0441fffe 	bgez	v0,0x14718
   14720:	00000000 	nop
   14724:	9742100c 	lhu	v0,4108(k0)
   14728:	8f45101c 	lw	a1,4124(k0)
   1472c:	3042ffff 	andi	v0,v0,0xffff
   14730:	24420030 	addiu	v0,v0,48
   14734:	00021082 	srl	v0,v0,0x2
   14738:	00021080 	sll	v0,v0,0x2
   1473c:	005b1021 	addu	v0,v0,k1
   14740:	ac450000 	sw	a1,0(v0)
   14744:	30a6ffff 	andi	a2,a1,0xffff
   14748:	0e00058d 	jal	0x8001634
   1474c:	00052c02 	srl	a1,a1,0x10
   14750:	a6220000 	sh	v0,0(s1)
   14754:	96040002 	lhu	a0,2(s0)
   14758:	24840008 	addiu	a0,a0,8
   1475c:	0e0001e9 	jal	0x80007a4
   14760:	3084ffff 	andi	a0,a0,0xffff
   14764:	97440104 	lhu	a0,260(k0)
   14768:	0e0001f7 	jal	0x80007dc
   1476c:	3084ffff 	andi	a0,a0,0xffff
   14770:	8fbf0018 	lw	ra,24(sp)
   14774:	8fb10014 	lw	s1,20(sp)
   14778:	8fb00010 	lw	s0,16(sp)
   1477c:	3c021000 	lui	v0,0x1000
   14780:	27bd0020 	addiu	sp,sp,32
   14784:	03e00008 	jr	ra
   14788:	af420178 	sw	v0,376(k0)
   1478c:	3084ffff 	andi	a0,a0,0xffff
   14790:	30820007 	andi	v0,a0,0x7
   14794:	8f850024 	lw	a1,36(gp)
   14798:	10400002 	beqz	v0,0x147a4
   1479c:	24830007 	addiu	v1,a0,7
   147a0:	3064fff8 	andi	a0,v1,0xfff8
   147a4:	00a41021 	addu	v0,a1,a0
   147a8:	30421fff 	andi	v0,v0,0x1fff
   147ac:	03421821 	addu	v1,k0,v0
   147b0:	247b4000 	addiu	k1,v1,16384
   147b4:	af850028 	sw	a1,40(gp)
   147b8:	af820024 	sw	v0,36(gp)
   147bc:	03e00008 	jr	ra
   147c0:	af420084 	sw	v0,132(k0)
   147c4:	3084ffff 	andi	a0,a0,0xffff
   147c8:	3082000f 	andi	v0,a0,0xf
   147cc:	8f85002c 	lw	a1,44(gp)
   147d0:	8f860034 	lw	a2,52(gp)
   147d4:	10400002 	beqz	v0,0x147e0
   147d8:	2483000f 	addiu	v1,a0,15
   147dc:	3064fff0 	andi	a0,v1,0xfff0
   147e0:	00a41021 	addu	v0,a1,a0
   147e4:	0046182b 	sltu	v1,v0,a2
   147e8:	af850030 	sw	a1,48(gp)
   147ec:	00462023 	subu	a0,v0,a2
   147f0:	14600002 	bnez	v1,0x147fc
   147f4:	af82002c 	sw	v0,44(gp)
   147f8:	af84002c 	sw	a0,44(gp)
   147fc:	8f82002c 	lw	v0,44(gp)
   14800:	34048000 	li	a0,0x8000
   14804:	03421821 	addu	v1,k0,v0
   14808:	00641821 	addu	v1,v1,a0
   1480c:	af830038 	sw	v1,56(gp)
   14810:	03e00008 	jr	ra
   14814:	af420080 	sw	v0,128(k0)
   14818:	8f820014 	lw	v0,20(gp)
   1481c:	10400008 	beqz	v0,0x14840
   14820:	8f820004 	lw	v0,4(gp)
   14824:	8f82ffdc 	lw	v0,-36(gp)
   14828:	14400005 	bnez	v0,0x14840
   1482c:	8f820004 	lw	v0,4(gp)
   14830:	3c02ffbf 	lui	v0,0xffbf
   14834:	3442ffff 	ori	v0,v0,0xffff
   14838:	00822024 	and	a0,a0,v0
   1483c:	8f820004 	lw	v0,4(gp)
   14840:	30430006 	andi	v1,v0,0x6
   14844:	24020002 	li	v0,2
   14848:	1062000f 	beq	v1,v0,0x14888
   1484c:	3c020101 	lui	v0,0x101
   14850:	2c620003 	sltiu	v0,v1,3
   14854:	50400005 	beqzl	v0,0x1486c
   14858:	24020004 	li	v0,4
   1485c:	1060000f 	beqz	v1,0x1489c
   14860:	3c020001 	lui	v0,0x1
   14864:	0a000230 	j	0x80008c0
   14868:	00000000 	nop
   1486c:	10620005 	beq	v1,v0,0x14884
   14870:	24020006 	li	v0,6
   14874:	1462000c 	bne	v1,v0,0x148a8
   14878:	3c020111 	lui	v0,0x111
   1487c:	0a000229 	j	0x80008a4
   14880:	00821025 	or	v0,a0,v0
   14884:	3c020011 	lui	v0,0x11
   14888:	00821025 	or	v0,a0,v0
   1488c:	af421000 	sw	v0,4096(k0)
   14890:	24020001 	li	v0,1
   14894:	0a000230 	j	0x80008c0
   14898:	af82000c 	sw	v0,12(gp)
   1489c:	00821025 	or	v0,a0,v0
   148a0:	af421000 	sw	v0,4096(k0)
   148a4:	af80000c 	sw	zero,12(gp)
	...
   148b4:	03e00008 	jr	ra
   148b8:	00000000 	nop
   148bc:	8f82000c 	lw	v0,12(gp)
   148c0:	10400004 	beqz	v0,0x148d4
   148c4:	00000000 	nop
   148c8:	8f421000 	lw	v0,4096(k0)
   148cc:	0441fffe 	bgez	v0,0x148c8
   148d0:	00000000 	nop
   148d4:	03e00008 	jr	ra
   148d8:	00000000 	nop
   148dc:	8f820010 	lw	v0,16(gp)
   148e0:	2443f800 	addiu	v1,v0,-2048
   148e4:	000231c2 	srl	a2,v0,0x7
   148e8:	24c2fff0 	addiu	v0,a2,-16
   148ec:	2c630301 	sltiu	v1,v1,769
   148f0:	10600003 	beqz	v1,0x14900
   148f4:	00021042 	srl	v0,v0,0x1
   148f8:	0a000257 	j	0x800095c
   148fc:	ac820000 	sw	v0,0(a0)
   14900:	8f850018 	lw	a1,24(gp)
   14904:	00c5102b 	sltu	v0,a2,a1
   14908:	1440000b 	bnez	v0,0x14938
   1490c:	00001821 	move	v1,zero
   14910:	00c51023 	subu	v0,a2,a1
   14914:	24470001 	addiu	a3,v0,1
   14918:	8f82001c 	lw	v0,28(gp)
   1491c:	00a21021 	addu	v0,a1,v0
   14920:	2442ffff 	addiu	v0,v0,-1
   14924:	0046102b 	sltu	v0,v0,a2
   14928:	54400004 	bnezl	v0,0x1493c
   1492c:	2402ffff 	li	v0,-1
   14930:	0a000257 	j	0x800095c
   14934:	ac870000 	sw	a3,0(a0)
   14938:	2402ffff 	li	v0,-1
   1493c:	0a000260 	j	0x8000980
   14940:	ac820000 	sw	v0,0(a0)
   14944:	8c820000 	lw	v0,0(a0)
   14948:	00021940 	sll	v1,v0,0x5
   1494c:	00621821 	addu	v1,v1,v0
   14950:	00031880 	sll	v1,v1,0x2
   14954:	00621821 	addu	v1,v1,v0
   14958:	00031880 	sll	v1,v1,0x2
   1495c:	3c020800 	lui	v0,0x800
   14960:	2442175c 	addiu	v0,v0,5980
   14964:	00621821 	addu	v1,v1,v0
   14968:	03e00008 	jr	ra
   1496c:	00601021 	move	v0,v1
   14970:	27bdffd8 	addiu	sp,sp,-40
   14974:	afbf0020 	sw	ra,32(sp)
   14978:	afb1001c 	sw	s1,28(sp)
   1497c:	afb00018 	sw	s0,24(sp)
   14980:	3c046008 	lui	a0,0x6008
   14984:	8c825000 	lw	v0,20480(a0)
   14988:	2403ff7f 	li	v1,-129
   1498c:	3c066000 	lui	a2,0x6000
   14990:	00431024 	and	v0,v0,v1
   14994:	3442380c 	ori	v0,v0,0x380c
   14998:	ac825000 	sw	v0,20480(a0)
   1499c:	8cc24c1c 	lw	v0,19484(a2)
   149a0:	3c1a8000 	lui	k0,0x8000
   149a4:	00021602 	srl	v0,v0,0x18
   149a8:	3042000f 	andi	v0,v0,0xf
   149ac:	10400007 	beqz	v0,0x149cc
   149b0:	af82001c 	sw	v0,28(gp)
   149b4:	8cc34c1c 	lw	v1,19484(a2)
   149b8:	3c02001f 	lui	v0,0x1f
   149bc:	3442fc00 	ori	v0,v0,0xfc00
   149c0:	00621824 	and	v1,v1,v0
   149c4:	000319c2 	srl	v1,v1,0x7
   149c8:	af830018 	sw	v1,24(gp)
   149cc:	8f420008 	lw	v0,8(k0)
   149d0:	275b4000 	addiu	k1,k0,16384
   149d4:	34420001 	ori	v0,v0,0x1
   149d8:	af420008 	sw	v0,8(k0)
   149dc:	af800024 	sw	zero,36(gp)
   149e0:	3c02601c 	lui	v0,0x601c
   149e4:	af400080 	sw	zero,128(k0)
   149e8:	af400084 	sw	zero,132(k0)
   149ec:	8c450008 	lw	a1,8(v0)
   149f0:	8cc30808 	lw	v1,2056(a2)
   149f4:	34028000 	li	v0,0x8000
   149f8:	03422021 	addu	a0,k0,v0
   149fc:	2402fff0 	li	v0,-16
   14a00:	00621824 	and	v1,v1,v0
   14a04:	3c020080 	lui	v0,0x80
   14a08:	3c010800 	lui	at,0x800
   14a0c:	ac220420 	sw	v0,1056(at)
   14a10:	3c025709 	lui	v0,0x5709
   14a14:	af840038 	sw	a0,56(gp)
   14a18:	14620004 	bne	v1,v0,0x14a2c
   14a1c:	af850034 	sw	a1,52(gp)
   14a20:	24020001 	li	v0,1
   14a24:	0a000292 	j	0x8000a48
   14a28:	af820014 	sw	v0,20(gp)
   14a2c:	af800014 	sw	zero,20(gp)
   14a30:	8f420000 	lw	v0,0(k0)
   14a34:	38420001 	xori	v0,v0,0x1
   14a38:	30420001 	andi	v0,v0,0x1
   14a3c:	1440fffc 	bnez	v0,0x14a30
   14a40:	8f820014 	lw	v0,20(gp)
   14a44:	10400016 	beqz	v0,0x14aa0
   14a48:	00000000 	nop
   14a4c:	97420104 	lhu	v0,260(k0)
   14a50:	10400005 	beqz	v0,0x14a68
   14a54:	8f830000 	lw	v1,0(gp)
   14a58:	14600007 	bnez	v1,0x14a78
   14a5c:	2462ffff 	addiu	v0,v1,-1
   14a60:	0a0002a7 	j	0x8000a9c
   14a64:	2c62000a 	sltiu	v0,v1,10
   14a68:	2c620010 	sltiu	v0,v1,16
   14a6c:	50400004 	beqzl	v0,0x14a80
   14a70:	8f830000 	lw	v1,0(gp)
   14a74:	24620001 	addiu	v0,v1,1
   14a78:	af820000 	sw	v0,0(gp)
   14a7c:	8f830000 	lw	v1,0(gp)
   14a80:	2c62000a 	sltiu	v0,v1,10
   14a84:	14400003 	bnez	v0,0x14a94
   14a88:	2c620007 	sltiu	v0,v1,7
   14a8c:	0a0002ae 	j	0x8000ab8
   14a90:	af80ffdc 	sw	zero,-36(gp)
   14a94:	10400002 	beqz	v0,0x14aa0
   14a98:	24020001 	li	v0,1
   14a9c:	af82ffdc 	sw	v0,-36(gp)
   14aa0:	8f430108 	lw	v1,264(k0)
   14aa4:	8f440100 	lw	a0,256(k0)
   14aa8:	30622000 	andi	v0,v1,0x2000
   14aac:	af830004 	sw	v1,4(gp)
   14ab0:	10400008 	beqz	v0,0x14ad4
   14ab4:	af840010 	sw	a0,16(gp)
   14ab8:	3c020800 	lui	v0,0x800
   14abc:	8c42042c 	lw	v0,1068(v0)
   14ac0:	24420001 	addiu	v0,v0,1
   14ac4:	3c010800 	lui	at,0x800
   14ac8:	ac22042c 	sw	v0,1068(at)
   14acc:	0a00058a 	j	0x8001628
   14ad0:	3c024000 	lui	v0,0x4000
   14ad4:	30650200 	andi	a1,v1,0x200
   14ad8:	14a00003 	bnez	a1,0x14ae8
   14adc:	24020f00 	li	v0,3840
   14ae0:	14820260 	bne	a0,v0,0x15464
   14ae4:	24020d00 	li	v0,3328
   14ae8:	97420104 	lhu	v0,260(k0)
   14aec:	104002c8 	beqz	v0,0x15610
   14af0:	3c024000 	lui	v0,0x4000
   14af4:	30624000 	andi	v0,v1,0x4000
   14af8:	144000ad 	bnez	v0,0x14db0
   14afc:	8f820038 	lw	v0,56(gp)
   14b00:	8c440008 	lw	a0,8(v0)
   14b04:	8f420178 	lw	v0,376(k0)
   14b08:	0440fffe 	bltz	v0,0x14b04
   14b0c:	24020800 	li	v0,2048
   14b10:	af420178 	sw	v0,376(k0)
   14b14:	24020008 	li	v0,8
   14b18:	a7420140 	sh	v0,320(k0)
   14b1c:	a7400142 	sh	zero,322(k0)
   14b20:	97420104 	lhu	v0,260(k0)
   14b24:	8f840004 	lw	a0,4(gp)
   14b28:	3051ffff 	andi	s1,v0,0xffff
   14b2c:	30820001 	andi	v0,a0,0x1
   14b30:	10400007 	beqz	v0,0x14b50
   14b34:	02208021 	move	s0,s1
   14b38:	2623fffe 	addiu	v1,s1,-2
   14b3c:	24020002 	li	v0,2
   14b40:	3070ffff 	andi	s0,v1,0xffff
   14b44:	a7420146 	sh	v0,326(k0)
   14b48:	0a0002db 	j	0x8000b6c
   14b4c:	a7430148 	sh	v1,328(k0)
   14b50:	a7400146 	sh	zero,326(k0)
   14b54:	3c020800 	lui	v0,0x800
   14b58:	8c42043c 	lw	v0,1084(v0)
   14b5c:	1440000d 	bnez	v0,0x14b94
   14b60:	8f830010 	lw	v1,16(gp)
   14b64:	30820020 	andi	v0,a0,0x20
   14b68:	14400002 	bnez	v0,0x14b74
   14b6c:	24030009 	li	v1,9
   14b70:	24030001 	li	v1,1
   14b74:	00602021 	move	a0,v1
   14b78:	8f830010 	lw	v1,16(gp)
   14b7c:	24020900 	li	v0,2304
   14b80:	50620001 	beql	v1,v0,0x14b88
   14b84:	34840004 	ori	a0,a0,0x4
   14b88:	a744014a 	sh	a0,330(k0)
   14b8c:	0a0002f6 	j	0x8000bd8
   14b90:	00000000 	nop
   14b94:	24020f00 	li	v0,3840
   14b98:	14620005 	bne	v1,v0,0x14bb0
   14b9c:	30820020 	andi	v0,a0,0x20
   14ba0:	14400006 	bnez	v0,0x14bbc
   14ba4:	2403000d 	li	v1,13
   14ba8:	0a0002f5 	j	0x8000bd4
   14bac:	24030005 	li	v1,5
   14bb0:	14400002 	bnez	v0,0x14bbc
   14bb4:	24030009 	li	v1,9
   14bb8:	24030001 	li	v1,1
   14bbc:	a743014a 	sh	v1,330(k0)
   14bc0:	3c020800 	lui	v0,0x800
   14bc4:	8c420420 	lw	v0,1056(v0)
   14bc8:	3c040048 	lui	a0,0x48
   14bcc:	0e00020c 	jal	0x8000830
   14bd0:	00442025 	or	a0,v0,a0
   14bd4:	0e000235 	jal	0x80008d4
   14bd8:	00000000 	nop
   14bdc:	8f82000c 	lw	v0,12(gp)
   14be0:	1040003e 	beqz	v0,0x14cdc
   14be4:	00000000 	nop
   14be8:	8f421000 	lw	v0,4096(k0)
   14bec:	3c030020 	lui	v1,0x20
   14bf0:	00431024 	and	v0,v0,v1
   14bf4:	10400039 	beqz	v0,0x14cdc
   14bf8:	8f820004 	lw	v0,4(gp)
   14bfc:	30420002 	andi	v0,v0,0x2
   14c00:	10400036 	beqz	v0,0x14cdc
   14c04:	00000000 	nop
   14c08:	97421014 	lhu	v0,4116(k0)
   14c0c:	14400033 	bnez	v0,0x14cdc
   14c10:	00000000 	nop
   14c14:	97421008 	lhu	v0,4104(k0)
   14c18:	8f880038 	lw	t0,56(gp)
   14c1c:	3042ffff 	andi	v0,v0,0xffff
   14c20:	24420006 	addiu	v0,v0,6
   14c24:	00021882 	srl	v1,v0,0x2
   14c28:	00033880 	sll	a3,v1,0x2
   14c2c:	00e83021 	addu	a2,a3,t0
   14c30:	30430001 	andi	v1,v0,0x1
   14c34:	8cc40000 	lw	a0,0(a2)
   14c38:	10600004 	beqz	v1,0x14c4c
   14c3c:	30420003 	andi	v0,v0,0x3
   14c40:	0000000d 	break
   14c44:	0a000337 	j	0x8000cdc
   14c48:	00e81021 	addu	v0,a3,t0
   14c4c:	54400010 	bnezl	v0,0x14c90
   14c50:	3084ffff 	andi	a0,a0,0xffff
   14c54:	3c05ffff 	lui	a1,0xffff
   14c58:	00852024 	and	a0,a0,a1
   14c5c:	00851826 	xor	v1,a0,a1
   14c60:	0003182b 	sltu	v1,zero,v1
   14c64:	0004102b 	sltu	v0,zero,a0
   14c68:	00431024 	and	v0,v0,v1
   14c6c:	10400005 	beqz	v0,0x14c84
   14c70:	00000000 	nop
   14c74:	00000000 	nop
   14c78:	0000000d 	break
   14c7c:	00000000 	nop
   14c80:	24000222 	li	zero,546
   14c84:	8cc20000 	lw	v0,0(a2)
   14c88:	0a000336 	j	0x8000cd8
   14c8c:	00452025 	or	a0,v0,a1
   14c90:	3883ffff 	xori	v1,a0,0xffff
   14c94:	0003182b 	sltu	v1,zero,v1
   14c98:	0004102b 	sltu	v0,zero,a0
   14c9c:	00431024 	and	v0,v0,v1
   14ca0:	10400005 	beqz	v0,0x14cb8
   14ca4:	00000000 	nop
   14ca8:	00000000 	nop
   14cac:	0000000d 	break
   14cb0:	00000000 	nop
   14cb4:	2400022b 	li	zero,555
   14cb8:	8cc20000 	lw	v0,0(a2)
   14cbc:	3444ffff 	ori	a0,v0,0xffff
   14cc0:	00e81021 	addu	v0,a3,t0
   14cc4:	ac440000 	sw	a0,0(v0)
   14cc8:	3c020800 	lui	v0,0x800
   14ccc:	8c420430 	lw	v0,1072(v0)
   14cd0:	24420001 	addiu	v0,v0,1
   14cd4:	3c010800 	lui	at,0x800
   14cd8:	ac220430 	sw	v0,1072(at)
   14cdc:	8f620000 	lw	v0,0(k1)
   14ce0:	8f840038 	lw	a0,56(gp)
   14ce4:	af820008 	sw	v0,8(gp)
   14ce8:	8c830000 	lw	v1,0(a0)
   14cec:	3402ffff 	li	v0,0xffff
   14cf0:	1462000f 	bne	v1,v0,0x14d30
   14cf4:	00001021 	move	v0,zero
   14cf8:	3c050800 	lui	a1,0x800
   14cfc:	8ca50454 	lw	a1,1108(a1)
   14d00:	3c040800 	lui	a0,0x800
   14d04:	8c840450 	lw	a0,1104(a0)
   14d08:	00b02821 	addu	a1,a1,s0
   14d0c:	00b0302b 	sltu	a2,a1,s0
   14d10:	00822021 	addu	a0,a0,v0
   14d14:	00862021 	addu	a0,a0,a2
   14d18:	3c010800 	lui	at,0x800
   14d1c:	ac250454 	sw	a1,1108(at)
   14d20:	3c010800 	lui	at,0x800
   14d24:	ac240450 	sw	a0,1104(at)
   14d28:	0a000580 	j	0x8001600
   14d2c:	24040008 	li	a0,8
   14d30:	8c820000 	lw	v0,0(a0)
   14d34:	30420100 	andi	v0,v0,0x100
   14d38:	1040000f 	beqz	v0,0x14d78
   14d3c:	00001021 	move	v0,zero
   14d40:	3c050800 	lui	a1,0x800
   14d44:	8ca5044c 	lw	a1,1100(a1)
   14d48:	3c040800 	lui	a0,0x800
   14d4c:	8c840448 	lw	a0,1096(a0)
   14d50:	00b02821 	addu	a1,a1,s0
   14d54:	00b0302b 	sltu	a2,a1,s0
   14d58:	00822021 	addu	a0,a0,v0
   14d5c:	00862021 	addu	a0,a0,a2
   14d60:	3c010800 	lui	at,0x800
   14d64:	ac25044c 	sw	a1,1100(at)
   14d68:	3c010800 	lui	at,0x800
   14d6c:	ac240448 	sw	a0,1096(at)
   14d70:	0a000580 	j	0x8001600
   14d74:	24040008 	li	a0,8
   14d78:	3c050800 	lui	a1,0x800
   14d7c:	8ca50444 	lw	a1,1092(a1)
   14d80:	3c040800 	lui	a0,0x800
   14d84:	8c840440 	lw	a0,1088(a0)
   14d88:	00b02821 	addu	a1,a1,s0
   14d8c:	00b0302b 	sltu	a2,a1,s0
   14d90:	00822021 	addu	a0,a0,v0
   14d94:	00862021 	addu	a0,a0,a2
   14d98:	3c010800 	lui	at,0x800
   14d9c:	ac250444 	sw	a1,1092(at)
   14da0:	3c010800 	lui	at,0x800
   14da4:	ac240440 	sw	a0,1088(at)
   14da8:	0a000580 	j	0x8001600
   14dac:	24040008 	li	a0,8
   14db0:	8f620008 	lw	v0,8(k1)
   14db4:	8f620000 	lw	v0,0(k1)
   14db8:	00021602 	srl	v0,v0,0x18
   14dbc:	304300f0 	andi	v1,v0,0xf0
   14dc0:	24020030 	li	v0,48
   14dc4:	10620005 	beq	v1,v0,0x14ddc
   14dc8:	24020040 	li	v0,64
   14dcc:	106200e0 	beq	v1,v0,0x15150
   14dd0:	8f820020 	lw	v0,32(gp)
   14dd4:	0a000588 	j	0x8001620
   14dd8:	24420001 	addiu	v0,v0,1
   14ddc:	14a00005 	bnez	a1,0x14df4
   14de0:	00000000 	nop
   14de4:	00000000 	nop
   14de8:	0000000d 	break
   14dec:	00000000 	nop
   14df0:	24000256 	li	zero,598
   14df4:	8f420178 	lw	v0,376(k0)
   14df8:	0440fffe 	bltz	v0,0x14df4
   14dfc:	00000000 	nop
   14e00:	0e00023d 	jal	0x80008f4
   14e04:	27a40010 	addiu	a0,sp,16
   14e08:	14400005 	bnez	v0,0x14e20
   14e0c:	00408021 	move	s0,v0
   14e10:	00000000 	nop
   14e14:	0000000d 	break
   14e18:	00000000 	nop
   14e1c:	2400025d 	li	zero,605
   14e20:	8e020000 	lw	v0,0(s0)
   14e24:	10400005 	beqz	v0,0x14e3c
   14e28:	00000000 	nop
   14e2c:	00000000 	nop
   14e30:	0000000d 	break
   14e34:	00000000 	nop
   14e38:	24000260 	li	zero,608
   14e3c:	8f62000c 	lw	v0,12(k1)
   14e40:	04430003 	bgezl	v0,0x14e50
   14e44:	24020001 	li	v0,1
   14e48:	0a00042e 	j	0x80010b8
   14e4c:	ae000000 	sw	zero,0(s0)
   14e50:	ae020000 	sw	v0,0(s0)
   14e54:	8f820038 	lw	v0,56(gp)
   14e58:	8c480008 	lw	t0,8(v0)
   14e5c:	a2000007 	sb	zero,7(s0)
   14e60:	8f65000c 	lw	a1,12(k1)
   14e64:	8f640004 	lw	a0,4(k1)
   14e68:	30a3ffff 	andi	v1,a1,0xffff
   14e6c:	00042402 	srl	a0,a0,0x10
   14e70:	00852023 	subu	a0,a0,a1
   14e74:	308200ff 	andi	v0,a0,0xff
   14e78:	00431021 	addu	v0,v0,v1
   14e7c:	24420005 	addiu	v0,v0,5
   14e80:	00023083 	sra	a2,v0,0x2
   14e84:	2cc20081 	sltiu	v0,a2,129
   14e88:	a605000a 	sh	a1,10(s0)
   14e8c:	14400005 	bnez	v0,0x14ea4
   14e90:	a2040004 	sb	a0,4(s0)
   14e94:	00000000 	nop
   14e98:	0000000d 	break
   14e9c:	00000000 	nop
   14ea0:	24000278 	li	zero,632
   14ea4:	8f850038 	lw	a1,56(gp)
   14ea8:	0e0005ab 	jal	0x80016ac
   14eac:	26040014 	addiu	a0,s0,20
   14eb0:	8f620004 	lw	v0,4(k1)
   14eb4:	8f430108 	lw	v1,264(k0)
   14eb8:	a6020008 	sh	v0,8(s0)
   14ebc:	3c021000 	lui	v0,0x1000
   14ec0:	00621824 	and	v1,v1,v0
   14ec4:	10600008 	beqz	v1,0x14ee8
   14ec8:	00000000 	nop
   14ecc:	97420104 	lhu	v0,260(k0)
   14ed0:	92030007 	lbu	v1,7(s0)
   14ed4:	2442ffec 	addiu	v0,v0,-20
   14ed8:	34630002 	ori	v1,v1,0x2
   14edc:	3045ffff 	andi	a1,v0,0xffff
   14ee0:	0a0003c3 	j	0x8000f0c
   14ee4:	a2030007 	sb	v1,7(s0)
   14ee8:	97420104 	lhu	v0,260(k0)
   14eec:	2442fff0 	addiu	v0,v0,-16
   14ef0:	3045ffff 	andi	a1,v0,0xffff
   14ef4:	96060008 	lhu	a2,8(s0)
   14ef8:	2cc20013 	sltiu	v0,a2,19
   14efc:	54400005 	bnezl	v0,0x14f14
   14f00:	92030007 	lbu	v1,7(s0)
   14f04:	92020007 	lbu	v0,7(s0)
   14f08:	34420001 	ori	v0,v0,0x1
   14f0c:	a2020007 	sb	v0,7(s0)
   14f10:	92030007 	lbu	v1,7(s0)
   14f14:	24020001 	li	v0,1
   14f18:	10620005 	beq	v1,v0,0x14f30
   14f1c:	24020003 	li	v0,3
   14f20:	1062000b 	beq	v1,v0,0x14f50
   14f24:	8f820038 	lw	v0,56(gp)
   14f28:	0a0003e0 	j	0x8000f80
   14f2c:	30c6ffff 	andi	a2,a2,0xffff
   14f30:	8f820038 	lw	v0,56(gp)
   14f34:	3c04ffff 	lui	a0,0xffff
   14f38:	8c43000c 	lw	v1,12(v0)
   14f3c:	00641824 	and	v1,v1,a0
   14f40:	00651825 	or	v1,v1,a1
   14f44:	ac43000c 	sw	v1,12(v0)
   14f48:	0a0003e0 	j	0x8000f80
   14f4c:	30c6ffff 	andi	a2,a2,0xffff
   14f50:	3c04ffff 	lui	a0,0xffff
   14f54:	8c430010 	lw	v1,16(v0)
   14f58:	00641824 	and	v1,v1,a0
   14f5c:	00651825 	or	v1,v1,a1
   14f60:	ac430010 	sw	v1,16(v0)
   14f64:	30c6ffff 	andi	a2,a2,0xffff
   14f68:	24c20002 	addiu	v0,a2,2
   14f6c:	00021083 	sra	v0,v0,0x2
   14f70:	a2020005 	sb	v0,5(s0)
   14f74:	8f830038 	lw	v1,56(gp)
   14f78:	304200ff 	andi	v0,v0,0xff
   14f7c:	00021080 	sll	v0,v0,0x2
   14f80:	00432821 	addu	a1,v0,v1
   14f84:	8ca80000 	lw	t0,0(a1)
   14f88:	8ca20000 	lw	v0,0(a1)
   14f8c:	24030004 	li	v1,4
   14f90:	00021702 	srl	v0,v0,0x1c
   14f94:	14430012 	bne	v0,v1,0x14fe0
   14f98:	00000000 	nop
   14f9c:	97420104 	lhu	v0,260(k0)
   14fa0:	3c03ffff 	lui	v1,0xffff
   14fa4:	01031824 	and	v1,t0,v1
   14fa8:	3042ffff 	andi	v0,v0,0xffff
   14fac:	00461023 	subu	v0,v0,a2
   14fb0:	2442fffe 	addiu	v0,v0,-2
   14fb4:	00624025 	or	t0,v1,v0
   14fb8:	aca80000 	sw	t0,0(a1)
   14fbc:	92030005 	lbu	v1,5(s0)
   14fc0:	306200ff 	andi	v0,v1,0xff
   14fc4:	00021080 	sll	v0,v0,0x2
   14fc8:	00501021 	addu	v0,v0,s0
   14fcc:	90420014 	lbu	v0,20(v0)
   14fd0:	3042000f 	andi	v0,v0,0xf
   14fd4:	00431021 	addu	v0,v0,v1
   14fd8:	0a000415 	j	0x8001054
   14fdc:	a2020006 	sb	v0,6(s0)
   14fe0:	8ca40004 	lw	a0,4(a1)
   14fe4:	97420104 	lhu	v0,260(k0)
   14fe8:	9603000a 	lhu	v1,10(s0)
   14fec:	3088ffff 	andi	t0,a0,0xffff
   14ff0:	3042ffff 	andi	v0,v0,0xffff
   14ff4:	00461023 	subu	v0,v0,a2
   14ff8:	2442ffd6 	addiu	v0,v0,-42
   14ffc:	00021400 	sll	v0,v0,0x10
   15000:	01024025 	or	t0,t0,v0
   15004:	aca80004 	sw	t0,4(a1)
   15008:	92020007 	lbu	v0,7(s0)
   1500c:	92040005 	lbu	a0,5(s0)
   15010:	24630028 	addiu	v1,v1,40
   15014:	00031883 	sra	v1,v1,0x2
   15018:	00641821 	addu	v1,v1,a0
   1501c:	34420004 	ori	v0,v0,0x4
   15020:	a2030006 	sb	v1,6(s0)
   15024:	a2020007 	sb	v0,7(s0)
   15028:	8f820004 	lw	v0,4(gp)
   1502c:	2403fffb 	li	v1,-5
   15030:	34420002 	ori	v0,v0,0x2
   15034:	00431024 	and	v0,v0,v1
   15038:	af820004 	sw	v0,4(gp)
   1503c:	92030006 	lbu	v1,6(s0)
   15040:	8f870038 	lw	a3,56(gp)
   15044:	00031880 	sll	v1,v1,0x2
   15048:	00701021 	addu	v0,v1,s0
   1504c:	8c440020 	lw	a0,32(v0)
   15050:	3c02fff6 	lui	v0,0xfff6
   15054:	3442ffff 	ori	v0,v0,0xffff
   15058:	00824024 	and	t0,a0,v0
   1505c:	00671821 	addu	v1,v1,a3
   15060:	ae04000c 	sw	a0,12(s0)
   15064:	ac68000c 	sw	t0,12(v1)
   15068:	92050006 	lbu	a1,6(s0)
   1506c:	3c03ff7f 	lui	v1,0xff7f
   15070:	8e02000c 	lw	v0,12(s0)
   15074:	00052880 	sll	a1,a1,0x2
   15078:	00b02021 	addu	a0,a1,s0
   1507c:	3463ffff 	ori	v1,v1,0xffff
   15080:	01033024 	and	a2,t0,v1
   15084:	94880026 	lhu	t0,38(a0)
   15088:	00a72821 	addu	a1,a1,a3
   1508c:	00431024 	and	v0,v0,v1
   15090:	ae02000c 	sw	v0,12(s0)
   15094:	ac860020 	sw	a2,32(a0)
   15098:	ac880024 	sw	t0,36(a0)
   1509c:	aca80010 	sw	t0,16(a1)
   150a0:	24020010 	li	v0,16
   150a4:	a7420140 	sh	v0,320(k0)
   150a8:	24020002 	li	v0,2
   150ac:	a7400142 	sh	zero,322(k0)
   150b0:	a7400144 	sh	zero,324(k0)
   150b4:	a7420146 	sh	v0,326(k0)
   150b8:	97420104 	lhu	v0,260(k0)
   150bc:	3c040008 	lui	a0,0x8
   150c0:	2442fffe 	addiu	v0,v0,-2
   150c4:	a7420148 	sh	v0,328(k0)
   150c8:	24020001 	li	v0,1
   150cc:	0e00020c 	jal	0x8000830
   150d0:	a742014a 	sh	v0,330(k0)
   150d4:	9603000a 	lhu	v1,10(s0)
   150d8:	92020004 	lbu	v0,4(s0)
   150dc:	00431021 	addu	v0,v0,v1
   150e0:	24420002 	addiu	v0,v0,2
   150e4:	30420007 	andi	v0,v0,0x7
   150e8:	00021023 	negu	v0,v0
   150ec:	30420007 	andi	v0,v0,0x7
   150f0:	0e000235 	jal	0x80008d4
   150f4:	ae020010 	sw	v0,16(s0)
   150f8:	8f620000 	lw	v0,0(k1)
   150fc:	3c030800 	lui	v1,0x800
   15100:	8c630444 	lw	v1,1092(v1)
   15104:	24040010 	li	a0,16
   15108:	af820008 	sw	v0,8(gp)
   1510c:	97420104 	lhu	v0,260(k0)
   15110:	3042ffff 	andi	v0,v0,0xffff
   15114:	2442fffe 	addiu	v0,v0,-2
   15118:	00403821 	move	a3,v0
   1511c:	000237c3 	sra	a2,v0,0x1f
   15120:	3c020800 	lui	v0,0x800
   15124:	8c420440 	lw	v0,1088(v0)
   15128:	00671821 	addu	v1,v1,a3
   1512c:	0067282b 	sltu	a1,v1,a3
   15130:	00461021 	addu	v0,v0,a2
   15134:	00451021 	addu	v0,v0,a1
   15138:	3c010800 	lui	at,0x800
   1513c:	ac230444 	sw	v1,1092(at)
   15140:	3c010800 	lui	at,0x800
   15144:	ac220440 	sw	v0,1088(at)
   15148:	0a000515 	j	0x8001454
   1514c:	00000000 	nop
   15150:	14a00005 	bnez	a1,0x15168
   15154:	00000000 	nop
   15158:	00000000 	nop
   1515c:	0000000d 	break
   15160:	00000000 	nop
   15164:	2400030a 	li	zero,778
   15168:	8f420178 	lw	v0,376(k0)
   1516c:	0440fffe 	bltz	v0,0x15168
   15170:	00000000 	nop
   15174:	0e00023d 	jal	0x80008f4
   15178:	27a40014 	addiu	a0,sp,20
   1517c:	14400005 	bnez	v0,0x15194
   15180:	00408021 	move	s0,v0
   15184:	00000000 	nop
   15188:	0000000d 	break
   1518c:	00000000 	nop
   15190:	24000311 	li	zero,785
   15194:	8e020000 	lw	v0,0(s0)
   15198:	54400006 	bnezl	v0,0x151b4
   1519c:	92020007 	lbu	v0,7(s0)
   151a0:	00000000 	nop
   151a4:	0000000d 	break
   151a8:	00000000 	nop
   151ac:	2400031c 	li	zero,796
   151b0:	92020007 	lbu	v0,7(s0)
   151b4:	30420004 	andi	v0,v0,0x4
   151b8:	10400005 	beqz	v0,0x151d0
   151bc:	8f820004 	lw	v0,4(gp)
   151c0:	2403fffb 	li	v1,-5
   151c4:	34420002 	ori	v0,v0,0x2
   151c8:	00431024 	and	v0,v0,v1
   151cc:	af820004 	sw	v0,4(gp)
   151d0:	8f620004 	lw	v0,4(k1)
   151d4:	04430008 	bgezl	v0,0x151f8
   151d8:	92020007 	lbu	v0,7(s0)
   151dc:	92020006 	lbu	v0,6(s0)
   151e0:	8e03000c 	lw	v1,12(s0)
   151e4:	ae000000 	sw	zero,0(s0)
   151e8:	00021080 	sll	v0,v0,0x2
   151ec:	00501021 	addu	v0,v0,s0
   151f0:	ac430020 	sw	v1,32(v0)
   151f4:	92020007 	lbu	v0,7(s0)
   151f8:	30420004 	andi	v0,v0,0x4
   151fc:	54400009 	bnezl	v0,0x15224
   15200:	9602000a 	lhu	v0,10(s0)
   15204:	92020005 	lbu	v0,5(s0)
   15208:	3c030001 	lui	v1,0x1
   1520c:	00021080 	sll	v0,v0,0x2
   15210:	00501021 	addu	v0,v0,s0
   15214:	8c460018 	lw	a2,24(v0)
   15218:	00c33021 	addu	a2,a2,v1
   1521c:	ac460018 	sw	a2,24(v0)
   15220:	9602000a 	lhu	v0,10(s0)
   15224:	92060004 	lbu	a2,4(s0)
   15228:	27710008 	addiu	s1,k1,8
   1522c:	02202021 	move	a0,s1
   15230:	00c23021 	addu	a2,a2,v0
   15234:	24c60005 	addiu	a2,a2,5
   15238:	26050014 	addiu	a1,s0,20
   1523c:	0e0005ab 	jal	0x80016ac
   15240:	00063082 	srl	a2,a2,0x2
   15244:	92040006 	lbu	a0,6(s0)
   15248:	8f650004 	lw	a1,4(k1)
   1524c:	3c027fff 	lui	v0,0x7fff
   15250:	00042080 	sll	a0,a0,0x2
   15254:	00912021 	addu	a0,a0,s1
   15258:	8c830004 	lw	v1,4(a0)
   1525c:	3442ffff 	ori	v0,v0,0xffff
   15260:	00a22824 	and	a1,a1,v0
   15264:	00651821 	addu	v1,v1,a1
   15268:	ac830004 	sw	v1,4(a0)
   1526c:	92020007 	lbu	v0,7(s0)
   15270:	92040005 	lbu	a0,5(s0)
   15274:	92030004 	lbu	v1,4(s0)
   15278:	30420004 	andi	v0,v0,0x4
   1527c:	10400014 	beqz	v0,0x152d0
   15280:	96070008 	lhu	a3,8(s0)
   15284:	308400ff 	andi	a0,a0,0xff
   15288:	00042080 	sll	a0,a0,0x2
   1528c:	00912021 	addu	a0,a0,s1
   15290:	8c860004 	lw	a2,4(a0)
   15294:	97420104 	lhu	v0,260(k0)
   15298:	9605000a 	lhu	a1,10(s0)
   1529c:	306300ff 	andi	v1,v1,0xff
   152a0:	3042ffff 	andi	v0,v0,0xffff
   152a4:	00431021 	addu	v0,v0,v1
   152a8:	00451021 	addu	v0,v0,a1
   152ac:	30e3ffff 	andi	v1,a3,0xffff
   152b0:	00431023 	subu	v0,v0,v1
   152b4:	2442ffd8 	addiu	v0,v0,-40
   152b8:	30c6ffff 	andi	a2,a2,0xffff
   152bc:	00021400 	sll	v0,v0,0x10
   152c0:	00c23025 	or	a2,a2,v0
   152c4:	ac860004 	sw	a2,4(a0)
   152c8:	0a0004c9 	j	0x8001324
   152cc:	92030007 	lbu	v1,7(s0)
   152d0:	308500ff 	andi	a1,a0,0xff
   152d4:	00052880 	sll	a1,a1,0x2
   152d8:	00b12821 	addu	a1,a1,s1
   152dc:	8ca40000 	lw	a0,0(a1)
   152e0:	97420104 	lhu	v0,260(k0)
   152e4:	306300ff 	andi	v1,v1,0xff
   152e8:	3042ffff 	andi	v0,v0,0xffff
   152ec:	00431021 	addu	v0,v0,v1
   152f0:	00471023 	subu	v0,v0,a3
   152f4:	3c03ffff 	lui	v1,0xffff
   152f8:	00832024 	and	a0,a0,v1
   152fc:	3042ffff 	andi	v0,v0,0xffff
   15300:	00822025 	or	a0,a0,v0
   15304:	aca40000 	sw	a0,0(a1)
   15308:	92030007 	lbu	v1,7(s0)
   1530c:	24020001 	li	v0,1
   15310:	10620006 	beq	v1,v0,0x1532c
   15314:	00000000 	nop
   15318:	24020003 	li	v0,3
   1531c:	10620011 	beq	v1,v0,0x15364
   15320:	00000000 	nop
   15324:	0a0004ec 	j	0x80013b0
   15328:	8e030010 	lw	v1,16(s0)
   1532c:	97420104 	lhu	v0,260(k0)
   15330:	92030004 	lbu	v1,4(s0)
   15334:	9605000a 	lhu	a1,10(s0)
   15338:	8e24000c 	lw	a0,12(s1)
   1533c:	00431021 	addu	v0,v0,v1
   15340:	00451021 	addu	v0,v0,a1
   15344:	2442fff2 	addiu	v0,v0,-14
   15348:	3c03ffff 	lui	v1,0xffff
   1534c:	00832024 	and	a0,a0,v1
   15350:	3042ffff 	andi	v0,v0,0xffff
   15354:	00822025 	or	a0,a0,v0
   15358:	ae24000c 	sw	a0,12(s1)
   1535c:	0a0004ec 	j	0x80013b0
   15360:	8e030010 	lw	v1,16(s0)
   15364:	97420104 	lhu	v0,260(k0)
   15368:	92030004 	lbu	v1,4(s0)
   1536c:	9605000a 	lhu	a1,10(s0)
   15370:	8e240010 	lw	a0,16(s1)
   15374:	00431021 	addu	v0,v0,v1
   15378:	00451021 	addu	v0,v0,a1
   1537c:	2442ffee 	addiu	v0,v0,-18
   15380:	3c03ffff 	lui	v1,0xffff
   15384:	00832024 	and	a0,a0,v1
   15388:	3042ffff 	andi	v0,v0,0xffff
   1538c:	00822025 	or	a0,a0,v0
   15390:	ae240010 	sw	a0,16(s1)
   15394:	8e030010 	lw	v1,16(s0)
   15398:	2402000a 	li	v0,10
   1539c:	a7420140 	sh	v0,320(k0)
   153a0:	a7430142 	sh	v1,322(k0)
   153a4:	9603000a 	lhu	v1,10(s0)
   153a8:	92020004 	lbu	v0,4(s0)
   153ac:	3c040040 	lui	a0,0x40
   153b0:	00431021 	addu	v0,v0,v1
   153b4:	a7420144 	sh	v0,324(k0)
   153b8:	a7400146 	sh	zero,326(k0)
   153bc:	97420104 	lhu	v0,260(k0)
   153c0:	a7420148 	sh	v0,328(k0)
   153c4:	24020001 	li	v0,1
   153c8:	0e00020c 	jal	0x8000830
   153cc:	a742014a 	sh	v0,330(k0)
   153d0:	0e000235 	jal	0x80008d4
   153d4:	00000000 	nop
   153d8:	8f620000 	lw	v0,0(k1)
   153dc:	92030004 	lbu	v1,4(s0)
   153e0:	00002021 	move	a0,zero
   153e4:	af820008 	sw	v0,8(gp)
   153e8:	97420104 	lhu	v0,260(k0)
   153ec:	9606000a 	lhu	a2,10(s0)
   153f0:	3042ffff 	andi	v0,v0,0xffff
   153f4:	00621821 	addu	v1,v1,v0
   153f8:	00602821 	move	a1,v1
   153fc:	3c030800 	lui	v1,0x800
   15400:	8c630444 	lw	v1,1092(v1)
   15404:	3c020800 	lui	v0,0x800
   15408:	8c420440 	lw	v0,1088(v0)
   1540c:	00651821 	addu	v1,v1,a1
   15410:	00441021 	addu	v0,v0,a0
   15414:	0065382b 	sltu	a3,v1,a1
   15418:	00471021 	addu	v0,v0,a3
   1541c:	3c010800 	lui	at,0x800
   15420:	ac230444 	sw	v1,1092(at)
   15424:	3c010800 	lui	at,0x800
   15428:	ac220440 	sw	v0,1088(at)
   1542c:	92040004 	lbu	a0,4(s0)
   15430:	00862021 	addu	a0,a0,a2
   15434:	2484000a 	addiu	a0,a0,10
   15438:	3084ffff 	andi	a0,a0,0xffff
   1543c:	0e0001e9 	jal	0x80007a4
   15440:	00000000 	nop
   15444:	97440104 	lhu	a0,260(k0)
   15448:	3084ffff 	andi	a0,a0,0xffff
   1544c:	0e0001f7 	jal	0x80007dc
   15450:	00000000 	nop
   15454:	3c021000 	lui	v0,0x1000
   15458:	af420178 	sw	v0,376(k0)
   1545c:	0a000587 	j	0x800161c
   15460:	8f820020 	lw	v0,32(gp)
   15464:	14820027 	bne	a0,v0,0x15504
   15468:	30620006 	andi	v0,v1,0x6
   1546c:	97420104 	lhu	v0,260(k0)
   15470:	10400067 	beqz	v0,0x15610
   15474:	3c024000 	lui	v0,0x4000
   15478:	30624000 	andi	v0,v1,0x4000
   1547c:	10400005 	beqz	v0,0x15494
   15480:	00000000 	nop
   15484:	00000000 	nop
   15488:	0000000d 	break
   1548c:	00000000 	nop
   15490:	24000420 	li	zero,1056
   15494:	8f420178 	lw	v0,376(k0)
   15498:	0440fffe 	bltz	v0,0x15494
   1549c:	24020800 	li	v0,2048
   154a0:	af420178 	sw	v0,376(k0)
   154a4:	24020008 	li	v0,8
   154a8:	a7420140 	sh	v0,320(k0)
   154ac:	a7400142 	sh	zero,322(k0)
   154b0:	8f820004 	lw	v0,4(gp)
   154b4:	97430104 	lhu	v1,260(k0)
   154b8:	30420001 	andi	v0,v0,0x1
   154bc:	10400007 	beqz	v0,0x154dc
   154c0:	3070ffff 	andi	s0,v1,0xffff
   154c4:	2603fffe 	addiu	v1,s0,-2
   154c8:	24020002 	li	v0,2
   154cc:	a7420146 	sh	v0,326(k0)
   154d0:	a7430148 	sh	v1,328(k0)
   154d4:	0a00053f 	j	0x80014fc
   154d8:	2402000d 	li	v0,13
   154dc:	a7400146 	sh	zero,326(k0)
   154e0:	2402000d 	li	v0,13
   154e4:	a742014a 	sh	v0,330(k0)
   154e8:	8f620000 	lw	v0,0(k1)
   154ec:	24040008 	li	a0,8
   154f0:	af820008 	sw	v0,8(gp)
   154f4:	0e0001e9 	jal	0x80007a4
   154f8:	00000000 	nop
   154fc:	0a000519 	j	0x8001464
   15500:	02002021 	move	a0,s0
   15504:	10400042 	beqz	v0,0x15610
   15508:	3c024000 	lui	v0,0x4000
   1550c:	93620000 	lbu	v0,0(k1)
   15510:	304300f0 	andi	v1,v0,0xf0
   15514:	24020010 	li	v0,16
   15518:	10620005 	beq	v1,v0,0x15530
   1551c:	24020070 	li	v0,112
   15520:	10620035 	beq	v1,v0,0x155f8
   15524:	8f820020 	lw	v0,32(gp)
   15528:	0a000588 	j	0x8001620
   1552c:	24420001 	addiu	v0,v0,1
   15530:	8f620000 	lw	v0,0(k1)
   15534:	97430104 	lhu	v1,260(k0)
   15538:	3050ffff 	andi	s0,v0,0xffff
   1553c:	3071ffff 	andi	s1,v1,0xffff
   15540:	8f420178 	lw	v0,376(k0)
   15544:	0440fffe 	bltz	v0,0x15540
   15548:	32020007 	andi	v0,s0,0x7
   1554c:	00021023 	negu	v0,v0
   15550:	30420007 	andi	v0,v0,0x7
   15554:	2403000a 	li	v1,10
   15558:	2604fffe 	addiu	a0,s0,-2
   1555c:	a7430140 	sh	v1,320(k0)
   15560:	a7420142 	sh	v0,322(k0)
   15564:	a7440144 	sh	a0,324(k0)
   15568:	a7400146 	sh	zero,326(k0)
   1556c:	a7510148 	sh	s1,328(k0)
   15570:	8f420108 	lw	v0,264(k0)
   15574:	30420020 	andi	v0,v0,0x20
   15578:	14400002 	bnez	v0,0x15584
   1557c:	24030009 	li	v1,9
   15580:	24030001 	li	v1,1
   15584:	a743014a 	sh	v1,330(k0)
   15588:	0e00020c 	jal	0x8000830
   1558c:	3c040040 	lui	a0,0x40
   15590:	0e000235 	jal	0x80008d4
   15594:	00000000 	nop
   15598:	3c070800 	lui	a3,0x800
   1559c:	8ce70444 	lw	a3,1092(a3)
   155a0:	02111021 	addu	v0,s0,s1
   155a4:	2442fffe 	addiu	v0,v0,-2
   155a8:	3c060800 	lui	a2,0x800
   155ac:	8cc60440 	lw	a2,1088(a2)
   155b0:	00401821 	move	v1,v0
   155b4:	00e33821 	addu	a3,a3,v1
   155b8:	00001021 	move	v0,zero
   155bc:	8f650000 	lw	a1,0(k1)
   155c0:	00e3402b 	sltu	t0,a3,v1
   155c4:	00c23021 	addu	a2,a2,v0
   155c8:	26040008 	addiu	a0,s0,8
   155cc:	00c83021 	addu	a2,a2,t0
   155d0:	3084ffff 	andi	a0,a0,0xffff
   155d4:	af850008 	sw	a1,8(gp)
   155d8:	3c010800 	lui	at,0x800
   155dc:	ac270444 	sw	a3,1092(at)
   155e0:	3c010800 	lui	at,0x800
   155e4:	ac260440 	sw	a2,1088(at)
   155e8:	0e0001e9 	jal	0x80007a4
   155ec:	00000000 	nop
   155f0:	0a000519 	j	0x8001464
   155f4:	02202021 	move	a0,s1
   155f8:	0e00013b 	jal	0x80004ec
   155fc:	00000000 	nop
   15600:	8f820020 	lw	v0,32(gp)
   15604:	24420001 	addiu	v0,v0,1
   15608:	af820020 	sw	v0,32(gp)
   1560c:	3c024000 	lui	v0,0x4000
   15610:	af420138 	sw	v0,312(k0)
   15614:	0a000292 	j	0x8000a48
   15618:	00000000 	nop
   1561c:	3084ffff 	andi	a0,a0,0xffff
   15620:	30c6ffff 	andi	a2,a2,0xffff
   15624:	00052c00 	sll	a1,a1,0x10
   15628:	00a62825 	or	a1,a1,a2
   1562c:	3882ffff 	xori	v0,a0,0xffff
   15630:	00451021 	addu	v0,v0,a1
   15634:	0045282b 	sltu	a1,v0,a1
   15638:	00451021 	addu	v0,v0,a1
   1563c:	00021c02 	srl	v1,v0,0x10
   15640:	3042ffff 	andi	v0,v0,0xffff
   15644:	00431021 	addu	v0,v0,v1
   15648:	00021c02 	srl	v1,v0,0x10
   1564c:	3042ffff 	andi	v0,v0,0xffff
   15650:	00431021 	addu	v0,v0,v1
   15654:	3842ffff 	xori	v0,v0,0xffff
   15658:	03e00008 	jr	ra
   1565c:	3042ffff 	andi	v0,v0,0xffff
   15660:	3084ffff 	andi	a0,a0,0xffff
   15664:	30a5ffff 	andi	a1,a1,0xffff
   15668:	00001821 	move	v1,zero
   1566c:	10800007 	beqz	a0,0x1568c
   15670:	00000000 	nop
   15674:	30820001 	andi	v0,a0,0x1
   15678:	10400002 	beqz	v0,0x15684
   1567c:	00042042 	srl	a0,a0,0x1
   15680:	00651821 	addu	v1,v1,a1
   15684:	0a0005a1 	j	0x8001684
   15688:	00052840 	sll	a1,a1,0x1
   1568c:	03e00008 	jr	ra
   15690:	00601021 	move	v0,v1
   15694:	10c00006 	beqz	a2,0x156b0
   15698:	24c6ffff 	addiu	a2,a2,-1
   1569c:	8ca20000 	lw	v0,0(a1)
   156a0:	24a50004 	addiu	a1,a1,4
   156a4:	ac820000 	sw	v0,0(a0)
   156a8:	0a0005ab 	j	0x80016ac
   156ac:	24840004 	addiu	a0,a0,4
   156b0:	03e00008 	jr	ra
   156b4:	00000000 	nop
   156b8:	10a00008 	beqz	a1,0x156dc
   156bc:	24a3ffff 	addiu	v1,a1,-1
   156c0:	ac860000 	sw	a2,0(a0)
	...
   156cc:	2402ffff 	li	v0,-1
   156d0:	2463ffff 	addiu	v1,v1,-1
   156d4:	1462fffa 	bne	v1,v0,0x156c0
   156d8:	24840004 	addiu	a0,a0,4
   156dc:	03e00008 	jr	ra
   156e0:	00000000 	nop
   156e4:	00000001 	.word	0x1
   156e8:	0a00002a 	j	0x80000a8
   156ec:	00000000 	nop
   156f0:	00000000 	nop
   156f4:	0000000d 	break
   156f8:	74787036 	jalx	0x1e1c0d9
   156fc:	2e302e31 	sltiu	s0,s1,11825
   15700:	37000000 	ori	zero,t8,0x0
   15704:	06001100 	bltz	s0,0x19b08
   15708:	00000000 	nop
   1570c:	00000136 	tne	zero,zero,0x4
   15710:	0000ea60 	.word	0xea60
	...
   15748:	00000016 	dsrlv	zero,zero,zero
	...
   15780:	00001388 	.word	0x1388
   15784:	00000000 	nop
   15788:	000005dc 	.word	0x5dc
	...
   15794:	10000003 	b	0x157a4
   15798:	00000000 	nop
   1579c:	0000000d 	break
   157a0:	0000000d 	break
   157a4:	3c020800 	lui	v0,0x800
   157a8:	24423d88 	addiu	v0,v0,15752
   157ac:	3c030800 	lui	v1,0x800
   157b0:	2463403c 	addiu	v1,v1,16444
   157b4:	ac400000 	sw	zero,0(v0)
   157b8:	0043202b 	sltu	a0,v0,v1
   157bc:	1480fffd 	bnez	a0,0x157b4
   157c0:	24420004 	addiu	v0,v0,4
   157c4:	3c1d0800 	lui	sp,0x800
   157c8:	37bd7ffc 	ori	sp,sp,0x7ffc
   157cc:	03a0f021 	move	s8,sp
   157d0:	3c100800 	lui	s0,0x800
   157d4:	261000a8 	addiu	s0,s0,168
   157d8:	3c1c0800 	lui	gp,0x800
   157dc:	279c3d88 	addiu	gp,gp,15752
   157e0:	0e00044e 	jal	0x8001138
   157e4:	00000000 	nop
   157e8:	0000000d 	break
   157ec:	27bdffb4 	addiu	sp,sp,-76
   157f0:	afa10000 	sw	at,0(sp)
   157f4:	afa20004 	sw	v0,4(sp)
   157f8:	afa30008 	sw	v1,8(sp)
   157fc:	afa4000c 	sw	a0,12(sp)
   15800:	afa50010 	sw	a1,16(sp)
   15804:	afa60014 	sw	a2,20(sp)
   15808:	afa70018 	sw	a3,24(sp)
   1580c:	afa8001c 	sw	t0,28(sp)
   15810:	afa90020 	sw	t1,32(sp)
   15814:	afaa0024 	sw	t2,36(sp)
   15818:	afab0028 	sw	t3,40(sp)
   1581c:	afac002c 	sw	t4,44(sp)
   15820:	afad0030 	sw	t5,48(sp)
   15824:	afae0034 	sw	t6,52(sp)
   15828:	afaf0038 	sw	t7,56(sp)
   1582c:	afb8003c 	sw	t8,60(sp)
   15830:	afb90040 	sw	t9,64(sp)
   15834:	afbc0044 	sw	gp,68(sp)
   15838:	afbf0048 	sw	ra,72(sp)
   1583c:	0e000591 	jal	0x8001644
   15840:	00000000 	nop
   15844:	8fbf0048 	lw	ra,72(sp)
   15848:	8fbc0044 	lw	gp,68(sp)
   1584c:	8fb90040 	lw	t9,64(sp)
   15850:	8fb8003c 	lw	t8,60(sp)
   15854:	8faf0038 	lw	t7,56(sp)
   15858:	8fae0034 	lw	t6,52(sp)
   1585c:	8fad0030 	lw	t5,48(sp)
   15860:	8fac002c 	lw	t4,44(sp)
   15864:	8fab0028 	lw	t3,40(sp)
   15868:	8faa0024 	lw	t2,36(sp)
   1586c:	8fa90020 	lw	t1,32(sp)
   15870:	8fa8001c 	lw	t0,28(sp)
   15874:	8fa70018 	lw	a3,24(sp)
   15878:	8fa60014 	lw	a2,20(sp)
   1587c:	8fa50010 	lw	a1,16(sp)
   15880:	8fa4000c 	lw	a0,12(sp)
   15884:	8fa30008 	lw	v1,8(sp)
   15888:	8fa20004 	lw	v0,4(sp)
   1588c:	8fa10000 	lw	at,0(sp)
   15890:	27bd004c 	addiu	sp,sp,76
   15894:	3c1b6004 	lui	k1,0x6004
   15898:	8f7a5030 	lw	k0,20528(k1)
   1589c:	377b5028 	ori	k1,k1,0x5028
   158a0:	03400008 	jr	k0
   158a4:	af7a0000 	sw	k0,0(k1)
   158a8:	8f86003c 	lw	a2,60(gp)
   158ac:	3c039000 	lui	v1,0x9000
   158b0:	3c028000 	lui	v0,0x8000
   158b4:	00862825 	or	a1,a0,a2
   158b8:	00a32025 	or	a0,a1,v1
   158bc:	ac440020 	sw	a0,32(v0)
   158c0:	3c038000 	lui	v1,0x8000
   158c4:	8c670020 	lw	a3,32(v1)
   158c8:	04e0fffe 	bltz	a3,0x158c4
   158cc:	00000000 	nop
   158d0:	03e00008 	jr	ra
   158d4:	00000000 	nop
   158d8:	0a000070 	j	0x80001c0
   158dc:	24040001 	li	a0,1
   158e0:	8f85003c 	lw	a1,60(gp)
   158e4:	3c048000 	lui	a0,0x8000
   158e8:	34830001 	ori	v1,a0,0x1
   158ec:	00a31025 	or	v0,a1,v1
   158f0:	03e00008 	jr	ra
   158f4:	ac820020 	sw	v0,32(a0)
   158f8:	03e00008 	jr	ra
   158fc:	00001021 	move	v0,zero
   15900:	3084ffff 	andi	a0,a0,0xffff
   15904:	30a5ffff 	andi	a1,a1,0xffff
   15908:	10800007 	beqz	a0,0x15928
   1590c:	00001821 	move	v1,zero
   15910:	30820001 	andi	v0,a0,0x1
   15914:	10400002 	beqz	v0,0x15920
   15918:	00042042 	srl	a0,a0,0x1
   1591c:	00651821 	addu	v1,v1,a1
   15920:	1480fffb 	bnez	a0,0x15910
   15924:	00052840 	sll	a1,a1,0x1
   15928:	03e00008 	jr	ra
   1592c:	00601021 	move	v0,v1
   15930:	10c00007 	beqz	a2,0x15950
   15934:	00000000 	nop
   15938:	8ca20000 	lw	v0,0(a1)
   1593c:	24c6ffff 	addiu	a2,a2,-1
   15940:	24a50004 	addiu	a1,a1,4
   15944:	ac820000 	sw	v0,0(a0)
   15948:	14c0fffb 	bnez	a2,0x15938
   1594c:	24840004 	addiu	a0,a0,4
   15950:	03e00008 	jr	ra
   15954:	00000000 	nop
   15958:	10a00008 	beqz	a1,0x1597c
   1595c:	24a3ffff 	addiu	v1,a1,-1
   15960:	ac860000 	sw	a2,0(a0)
	...
   1596c:	2402ffff 	li	v0,-1
   15970:	2463ffff 	addiu	v1,v1,-1
   15974:	1462fffa 	bne	v1,v0,0x15960
   15978:	24840004 	addiu	a0,a0,4
   1597c:	03e00008 	jr	ra
   15980:	00000000 	nop
   15984:	90aa0031 	lbu	t2,49(a1)
   15988:	8fab0010 	lw	t3,16(sp)
   1598c:	8cac0040 	lw	t4,64(a1)
   15990:	3c0300ff 	lui	v1,0xff
   15994:	8d680004 	lw	t0,4(t3)
   15998:	ad6c0020 	sw	t4,32(t3)
   1599c:	8cad0044 	lw	t5,68(a1)
   159a0:	00e06021 	move	t4,a3
   159a4:	3462ffff 	ori	v0,v1,0xffff
   159a8:	ad6d0024 	sw	t5,36(t3)
   159ac:	8ca70048 	lw	a3,72(a1)
   159b0:	3c09ff00 	lui	t1,0xff00
   159b4:	0109c024 	and	t8,t0,t1
   159b8:	ad670028 	sw	a3,40(t3)
   159bc:	8cae004c 	lw	t6,76(a1)
   159c0:	0182c824 	and	t9,t4,v0
   159c4:	03197825 	or	t7,t8,t9
   159c8:	ad6f0004 	sw	t7,4(t3)
   159cc:	ad6e002c 	sw	t6,44(t3)
   159d0:	8cad0038 	lw	t5,56(a1)
   159d4:	314a00ff 	andi	t2,t2,0xff
   159d8:	ad6d001c 	sw	t5,28(t3)
   159dc:	94a90032 	lhu	t1,50(a1)
   159e0:	3128ffff 	andi	t0,t1,0xffff
   159e4:	ad680010 	sw	t0,16(t3)
   159e8:	90a70030 	lbu	a3,48(a1)
   159ec:	a5600002 	sh	zero,2(t3)
   159f0:	a1600004 	sb	zero,4(t3)
   159f4:	a1670000 	sb	a3,0(t3)
   159f8:	90a30032 	lbu	v1,50(a1)
   159fc:	306200ff 	andi	v0,v1,0xff
   15a00:	00021982 	srl	v1,v0,0x6
   15a04:	10600005 	beqz	v1,0x15a1c
   15a08:	24050001 	li	a1,1
   15a0c:	1065000e 	beq	v1,a1,0x15a48
   15a10:	00000000 	nop
   15a14:	03e00008 	jr	ra
   15a18:	a16a0001 	sb	t2,1(t3)
   15a1c:	8cd80028 	lw	t8,40(a2)
   15a20:	354a0080 	ori	t2,t2,0x80
   15a24:	ad780018 	sw	t8,24(t3)
   15a28:	8ccf0014 	lw	t7,20(a2)
   15a2c:	ad6f0014 	sw	t7,20(t3)
   15a30:	8cce0030 	lw	t6,48(a2)
   15a34:	ad6e0008 	sw	t6,8(t3)
   15a38:	8cc4002c 	lw	a0,44(a2)
   15a3c:	a16a0001 	sb	t2,1(t3)
   15a40:	03e00008 	jr	ra
   15a44:	ad64000c 	sw	a0,12(t3)
   15a48:	8ccd001c 	lw	t5,28(a2)
   15a4c:	ad6d0018 	sw	t5,24(t3)
   15a50:	8cc90014 	lw	t1,20(a2)
   15a54:	ad690014 	sw	t1,20(t3)
   15a58:	8cc80024 	lw	t0,36(a2)
   15a5c:	ad680008 	sw	t0,8(t3)
   15a60:	8cc70020 	lw	a3,32(a2)
   15a64:	ad67000c 	sw	a3,12(t3)
   15a68:	8cc20014 	lw	v0,20(a2)
   15a6c:	8c830070 	lw	v1,112(a0)
   15a70:	0043c82b 	sltu	t9,v0,v1
   15a74:	13200007 	beqz	t9,0x15a94
   15a78:	00000000 	nop
   15a7c:	8cc20014 	lw	v0,20(a2)
   15a80:	144cffe4 	bne	v0,t4,0x15a14
   15a84:	00000000 	nop
   15a88:	354a0080 	ori	t2,t2,0x80
   15a8c:	03e00008 	jr	ra
   15a90:	a16a0001 	sb	t2,1(t3)
   15a94:	8c820070 	lw	v0,112(a0)
   15a98:	0a0000e6 	j	0x8000398
   15a9c:	00000000 	nop
   15aa0:	90890030 	lbu	t1,48(a0)
   15aa4:	27bdfff8 	addiu	sp,sp,-8
   15aa8:	8fa8001c 	lw	t0,28(sp)
   15aac:	a3a90000 	sb	t1,0(sp)
   15ab0:	8fa30000 	lw	v1,0(sp)
   15ab4:	3c0dff80 	lui	t5,0xff80
   15ab8:	35a2ffff 	ori	v0,t5,0xffff
   15abc:	8cac002c 	lw	t4,44(a1)
   15ac0:	00625824 	and	t3,v1,v0
   15ac4:	afab0000 	sw	t3,0(sp)
   15ac8:	a1000004 	sb	zero,4(t0)
   15acc:	00c05821 	move	t3,a2
   15ad0:	a7a00002 	sh	zero,2(sp)
   15ad4:	8d060004 	lw	a2,4(t0)
   15ad8:	00a04821 	move	t1,a1
   15adc:	0167c821 	addu	t9,t3,a3
   15ae0:	8fa50000 	lw	a1,0(sp)
   15ae4:	00805021 	move	t2,a0
   15ae8:	3c18ff7f 	lui	t8,0xff7f
   15aec:	032c2026 	xor	a0,t9,t4
   15af0:	3c0e00ff 	lui	t6,0xff
   15af4:	2c8c0001 	sltiu	t4,a0,1
   15af8:	370fffff 	ori	t7,t8,0xffff
   15afc:	35cdffff 	ori	t5,t6,0xffff
   15b00:	3c02ff00 	lui	v0,0xff00
   15b04:	00afc824 	and	t9,a1,t7
   15b08:	00edc024 	and	t8,a3,t5
   15b0c:	00c27824 	and	t7,a2,v0
   15b10:	000c1dc0 	sll	v1,t4,0x17
   15b14:	03236825 	or	t5,t9,v1
   15b18:	01f87025 	or	t6,t7,t8
   15b1c:	ad0d0000 	sw	t5,0(t0)
   15b20:	ad0e0004 	sw	t6,4(t0)
   15b24:	8d240024 	lw	a0,36(t1)
   15b28:	afad0000 	sw	t5,0(sp)
   15b2c:	ad040008 	sw	a0,8(t0)
   15b30:	8d2c0020 	lw	t4,32(t1)
   15b34:	2404ffff 	li	a0,-1
   15b38:	ad0c000c 	sw	t4,12(t0)
   15b3c:	95470032 	lhu	a3,50(t2)
   15b40:	30e6ffff 	andi	a2,a3,0xffff
   15b44:	ad060010 	sw	a2,16(t0)
   15b48:	91450048 	lbu	a1,72(t2)
   15b4c:	30a200ff 	andi	v0,a1,0xff
   15b50:	000219c2 	srl	v1,v0,0x7
   15b54:	50600001 	beqzl	v1,0x15b5c
   15b58:	8d240034 	lw	a0,52(t1)
   15b5c:	ad040014 	sw	a0,20(t0)
   15b60:	8d470038 	lw	a3,56(t2)
   15b64:	8faa0018 	lw	t2,24(sp)
   15b68:	27bd0008 	addiu	sp,sp,8
   15b6c:	ad0b0028 	sw	t3,40(t0)
   15b70:	ad0a0024 	sw	t2,36(t0)
   15b74:	ad07001c 	sw	a3,28(t0)
   15b78:	ad00002c 	sw	zero,44(t0)
   15b7c:	ad000018 	sw	zero,24(t0)
   15b80:	03e00008 	jr	ra
   15b84:	ad000020 	sw	zero,32(t0)
   15b88:	27bdffe0 	addiu	sp,sp,-32
   15b8c:	afb20018 	sw	s2,24(sp)
   15b90:	afb10014 	sw	s1,20(sp)
   15b94:	afb00010 	sw	s0,16(sp)
   15b98:	afbf001c 	sw	ra,28(sp)
   15b9c:	90980030 	lbu	t8,48(a0)
   15ba0:	00c08821 	move	s1,a2
   15ba4:	3c0d00ff 	lui	t5,0xff
   15ba8:	330f007f 	andi	t7,t8,0x7f
   15bac:	a0cf0000 	sb	t7,0(a2)
   15bb0:	908e0031 	lbu	t6,49(a0)
   15bb4:	35acffff 	ori	t4,t5,0xffff
   15bb8:	3c0aff00 	lui	t2,0xff00
   15bbc:	a0ce0001 	sb	t6,1(a2)
   15bc0:	94a6001e 	lhu	a2,30(a1)
   15bc4:	a2200004 	sb	zero,4(s1)
   15bc8:	8cab0014 	lw	t3,20(a1)
   15bcc:	8e290004 	lw	t1,4(s1)
   15bd0:	00a08021 	move	s0,a1
   15bd4:	016c2824 	and	a1,t3,t4
   15bd8:	012a4024 	and	t0,t1,t2
   15bdc:	00809021 	move	s2,a0
   15be0:	01052025 	or	a0,t0,a1
   15be4:	a6260002 	sh	a2,2(s1)
   15be8:	ae240004 	sw	a0,4(s1)
   15bec:	26050020 	addiu	a1,s0,32
   15bf0:	26240008 	addiu	a0,s1,8
   15bf4:	0e000092 	jal	0x8000248
   15bf8:	24060002 	li	a2,2
   15bfc:	92470030 	lbu	a3,48(s2)
   15c00:	26050028 	addiu	a1,s0,40
   15c04:	26240014 	addiu	a0,s1,20
   15c08:	00071e00 	sll	v1,a3,0x18
   15c0c:	00031603 	sra	v0,v1,0x18
   15c10:	24060004 	li	a2,4
   15c14:	04400003 	bltz	v0,0x15c24
   15c18:	2403ffff 	li	v1,-1
   15c1c:	96590032 	lhu	t9,50(s2)
   15c20:	3323ffff 	andi	v1,t9,0xffff
   15c24:	0e000092 	jal	0x8000248
   15c28:	ae230010 	sw	v1,16(s1)
   15c2c:	26240024 	addiu	a0,s1,36
   15c30:	8fbf001c 	lw	ra,28(sp)
   15c34:	8fb20018 	lw	s2,24(sp)
   15c38:	8fb10014 	lw	s1,20(sp)
   15c3c:	8fb00010 	lw	s0,16(sp)
   15c40:	24050003 	li	a1,3
   15c44:	00003021 	move	a2,zero
   15c48:	0a00009c 	j	0x8000270
   15c4c:	27bd0020 	addiu	sp,sp,32
   15c50:	27bdffd8 	addiu	sp,sp,-40
   15c54:	afb1001c 	sw	s1,28(sp)
   15c58:	afb00018 	sw	s0,24(sp)
   15c5c:	afbf0020 	sw	ra,32(sp)
   15c60:	90a90030 	lbu	t1,48(a1)
   15c64:	24020001 	li	v0,1
   15c68:	00e05021 	move	t2,a3
   15c6c:	3123003f 	andi	v1,t1,0x3f
   15c70:	00a04021 	move	t0,a1
   15c74:	8fb00040 	lw	s0,64(sp)
   15c78:	00808821 	move	s1,a0
   15c7c:	00c04821 	move	t1,a2
   15c80:	10620014 	beq	v1,v0,0x15cd4
   15c84:	8fa70038 	lw	a3,56(sp)
   15c88:	240b0005 	li	t3,5
   15c8c:	00a02021 	move	a0,a1
   15c90:	00c02821 	move	a1,a2
   15c94:	106b0013 	beq	v1,t3,0x15ce4
   15c98:	02003021 	move	a2,s0
   15c9c:	0e000128 	jal	0x80004a0
   15ca0:	00000000 	nop
   15ca4:	9225007c 	lbu	a1,124(s1)
   15ca8:	30a40002 	andi	a0,a1,0x2
   15cac:	10800003 	beqz	a0,0x15cbc
   15cb0:	26030030 	addiu	v1,s0,48
   15cb4:	ae000030 	sw	zero,48(s0)
   15cb8:	26030034 	addiu	v1,s0,52
   15cbc:	8fbf0020 	lw	ra,32(sp)
   15cc0:	8fb1001c 	lw	s1,28(sp)
   15cc4:	8fb00018 	lw	s0,24(sp)
   15cc8:	00601021 	move	v0,v1
   15ccc:	03e00008 	jr	ra
   15cd0:	27bd0028 	addiu	sp,sp,40
   15cd4:	0e0000a7 	jal	0x800029c
   15cd8:	afb00010 	sw	s0,16(sp)
   15cdc:	0a00016f 	j	0x80005bc
   15ce0:	00000000 	nop
   15ce4:	8fa3003c 	lw	v1,60(sp)
   15ce8:	01002021 	move	a0,t0
   15cec:	01202821 	move	a1,t1
   15cf0:	01403021 	move	a2,t2
   15cf4:	afa30010 	sw	v1,16(sp)
   15cf8:	0e0000ee 	jal	0x80003b8
   15cfc:	afb00014 	sw	s0,20(sp)
   15d00:	0a00016f 	j	0x80005bc
   15d04:	00000000 	nop
   15d08:	3c068000 	lui	a2,0x8000
   15d0c:	34c20e00 	ori	v0,a2,0xe00
   15d10:	8c440010 	lw	a0,16(v0)
   15d14:	8f850044 	lw	a1,68(gp)
   15d18:	aca40020 	sw	a0,32(a1)
   15d1c:	8c430018 	lw	v1,24(v0)
   15d20:	03e00008 	jr	ra
   15d24:	aca30024 	sw	v1,36(a1)
   15d28:	3c068000 	lui	a2,0x8000
   15d2c:	34c20e00 	ori	v0,a2,0xe00
   15d30:	8c440014 	lw	a0,20(v0)
   15d34:	8f850044 	lw	a1,68(gp)
   15d38:	aca40020 	sw	a0,32(a1)
   15d3c:	8c43001c 	lw	v1,28(v0)
   15d40:	03e00008 	jr	ra
   15d44:	aca30024 	sw	v1,36(a1)
   15d48:	9382000c 	lbu	v0,12(gp)
   15d4c:	1040001b 	beqz	v0,0x15dbc
   15d50:	2483000f 	addiu	v1,a0,15
   15d54:	2404fff0 	li	a0,-16
   15d58:	00643824 	and	a3,v1,a0
   15d5c:	10e00019 	beqz	a3,0x15dc4
   15d60:	978b0010 	lhu	t3,16(gp)
   15d64:	9784000e 	lhu	a0,14(gp)
   15d68:	9389000d 	lbu	t1,13(gp)
   15d6c:	3c0a601c 	lui	t2,0x601c
   15d70:	0a0001ac 	j	0x80006b0
   15d74:	01644023 	subu	t0,t3,a0
   15d78:	01037021 	addu	t6,t0,v1
   15d7c:	00642823 	subu	a1,v1,a0
   15d80:	11260002 	beq	t1,a2,0x15d8c
   15d84:	31c2ffff 	andi	v0,t6,0xffff
   15d88:	30a2ffff 	andi	v0,a1,0xffff
   15d8c:	0047302b 	sltu	a2,v0,a3
   15d90:	50c0000e 	beqzl	a2,0x15dcc
   15d94:	00e44821 	addu	t1,a3,a0
   15d98:	8d4d000c 	lw	t5,12(t2)
   15d9c:	31a3ffff 	andi	v1,t5,0xffff
   15da0:	00036400 	sll	t4,v1,0x10
   15da4:	000c2c03 	sra	a1,t4,0x10
   15da8:	04a1fff3 	bgez	a1,0x15d78
   15dac:	00003021 	move	a2,zero
   15db0:	30637fff 	andi	v1,v1,0x7fff
   15db4:	0a0001a4 	j	0x8000690
   15db8:	24060001 	li	a2,1
   15dbc:	03e00008 	jr	ra
   15dc0:	00000000 	nop
   15dc4:	9784000e 	lhu	a0,14(gp)
   15dc8:	00e44821 	addu	t1,a3,a0
   15dcc:	3123ffff 	andi	v1,t1,0xffff
   15dd0:	3168ffff 	andi	t0,t3,0xffff
   15dd4:	0068382b 	sltu	a3,v1,t0
   15dd8:	54e0fff8 	bnezl	a3,0x15dbc
   15ddc:	a783000e 	sh	v1,14(gp)
   15de0:	938a000d 	lbu	t2,13(gp)
   15de4:	11400005 	beqz	t2,0x15dfc
   15de8:	240f0001 	li	t7,1
   15dec:	006bc023 	subu	t8,v1,t3
   15df0:	a380000d 	sb	zero,13(gp)
   15df4:	03e00008 	jr	ra
   15df8:	a798000e 	sh	t8,14(gp)
   15dfc:	006bc023 	subu	t8,v1,t3
   15e00:	a38f000d 	sb	t7,13(gp)
   15e04:	03e00008 	jr	ra
   15e08:	a798000e 	sh	t8,14(gp)
   15e0c:	03e00008 	jr	ra
   15e10:	00000000 	nop
   15e14:	27bdffe8 	addiu	sp,sp,-24
   15e18:	afb00010 	sw	s0,16(sp)
   15e1c:	3c108000 	lui	s0,0x8000
   15e20:	36030140 	ori	v1,s0,0x140
   15e24:	308bffff 	andi	t3,a0,0xffff
   15e28:	93aa002b 	lbu	t2,43(sp)
   15e2c:	afbf0014 	sw	ra,20(sp)
   15e30:	a46b0004 	sh	t3,4(v1)
   15e34:	36040e00 	ori	a0,s0,0xe00
   15e38:	94880016 	lhu	t0,22(a0)
   15e3c:	30c600ff 	andi	a2,a2,0xff
   15e40:	8fa90030 	lw	t1,48(sp)
   15e44:	a4680006 	sh	t0,6(v1)
   15e48:	ac650008 	sw	a1,8(v1)
   15e4c:	a0660012 	sb	a2,18(v1)
   15e50:	a46a001a 	sh	t2,26(v1)
   15e54:	ac670020 	sw	a3,32(v1)
   15e58:	8fa5002c 	lw	a1,44(sp)
   15e5c:	a4690018 	sh	t1,24(v1)
   15e60:	01202021 	move	a0,t1
   15e64:	0e000198 	jal	0x8000660
   15e68:	ac650014 	sw	a1,20(v1)
   15e6c:	3c021000 	lui	v0,0x1000
   15e70:	ae020178 	sw	v0,376(s0)
   15e74:	8fbf0014 	lw	ra,20(sp)
   15e78:	8fb00010 	lw	s0,16(sp)
   15e7c:	03e00008 	jr	ra
   15e80:	27bd0018 	addiu	sp,sp,24
   15e84:	8f850000 	lw	a1,0(gp)
   15e88:	24840007 	addiu	a0,a0,7
   15e8c:	27bdfff8 	addiu	sp,sp,-8
   15e90:	3084fff8 	andi	a0,a0,0xfff8
   15e94:	3c068000 	lui	a2,0x8000
   15e98:	94cb008a 	lhu	t3,138(a2)
   15e9c:	316affff 	andi	t2,t3,0xffff
   15ea0:	afaa0000 	sw	t2,0(sp)
   15ea4:	8fa90000 	lw	t1,0(sp)
   15ea8:	01254023 	subu	t0,t1,a1
   15eac:	2507ffff 	addiu	a3,t0,-1
   15eb0:	30e31fff 	andi	v1,a3,0x1fff
   15eb4:	0064102b 	sltu	v0,v1,a0
   15eb8:	1440fff7 	bnez	v0,0x15e98
   15ebc:	00056882 	srl	t5,a1,0x2
   15ec0:	000d2880 	sll	a1,t5,0x2
   15ec4:	34cc4000 	ori	t4,a2,0x4000
   15ec8:	00ac1021 	addu	v0,a1,t4
   15ecc:	03e00008 	jr	ra
   15ed0:	27bd0008 	addiu	sp,sp,8
   15ed4:	8f820000 	lw	v0,0(gp)
   15ed8:	24860007 	addiu	a2,a0,7
   15edc:	30c5fff8 	andi	a1,a2,0xfff8
   15ee0:	00a21821 	addu	v1,a1,v0
   15ee4:	30641fff 	andi	a0,v1,0x1fff
   15ee8:	03e00008 	jr	ra
   15eec:	af840000 	sw	a0,0(gp)
   15ef0:	8f87003c 	lw	a3,60(gp)
   15ef4:	8f840044 	lw	a0,68(gp)
   15ef8:	27bdffb0 	addiu	sp,sp,-80
   15efc:	afb70044 	sw	s7,68(sp)
   15f00:	afb40038 	sw	s4,56(sp)
   15f04:	afb1002c 	sw	s1,44(sp)
   15f08:	afbf0048 	sw	ra,72(sp)
   15f0c:	afb60040 	sw	s6,64(sp)
   15f10:	afb5003c 	sw	s5,60(sp)
   15f14:	afb30034 	sw	s3,52(sp)
   15f18:	afb20030 	sw	s2,48(sp)
   15f1c:	afb00028 	sw	s0,40(sp)
   15f20:	3c0b8000 	lui	t3,0x8000
   15f24:	8c860024 	lw	a2,36(a0)
   15f28:	ad670080 	sw	a3,128(t3)
   15f2c:	8c8a0020 	lw	t2,32(a0)
   15f30:	35670e00 	ori	a3,t3,0xe00
   15f34:	35690100 	ori	t1,t3,0x100
   15f38:	acea0010 	sw	t2,16(a3)
   15f3c:	8c880024 	lw	t0,36(a0)
   15f40:	8d250004 	lw	a1,4(t1)
   15f44:	0000b821 	move	s7,zero
   15f48:	ace80018 	sw	t0,24(a3)
   15f4c:	8ce30010 	lw	v1,16(a3)
   15f50:	00a68823 	subu	s1,a1,a2
   15f54:	0000a021 	move	s4,zero
   15f58:	ace30014 	sw	v1,20(a3)
   15f5c:	8ce20018 	lw	v0,24(a3)
   15f60:	ace2001c 	sw	v0,28(a3)
   15f64:	122000fe 	beqz	s1,0x16360
   15f68:	00e0b021 	move	s6,a3
   15f6c:	936c0008 	lbu	t4,8(k1)
   15f70:	118000f4 	beqz	t4,0x16344
   15f74:	00000000 	nop
   15f78:	976f0010 	lhu	t7,16(k1)
   15f7c:	31eeffff 	andi	t6,t7,0xffff
   15f80:	022e682b 	sltu	t5,s1,t6
   15f84:	15a000ef 	bnez	t5,0x16344
   15f88:	00000000 	nop
   15f8c:	97720010 	lhu	s2,16(k1)
   15f90:	3250ffff 	andi	s0,s2,0xffff
   15f94:	aed00000 	sw	s0,0(s6)
   15f98:	3c038000 	lui	v1,0x8000
   15f9c:	8c740000 	lw	s4,0(v1)
   15fa0:	32930008 	andi	s3,s4,0x8
   15fa4:	1260fffd 	beqz	s3,0x15f9c
   15fa8:	00000000 	nop
   15fac:	96d80008 	lhu	t8,8(s6)
   15fb0:	8ec70004 	lw	a3,4(s6)
   15fb4:	3305ffff 	andi	a1,t8,0xffff
   15fb8:	30b50001 	andi	s5,a1,0x1
   15fbc:	12a000e4 	beqz	s5,0x16350
   15fc0:	00000000 	nop
   15fc4:	0000000d 	break
   15fc8:	30bfa040 	andi	ra,a1,0xa040
   15fcc:	24190040 	li	t9,64
   15fd0:	13f9011b 	beq	ra,t9,0x16440
   15fd4:	30b4a000 	andi	s4,a1,0xa000
   15fd8:	128000df 	beqz	s4,0x16358
   15fdc:	00000000 	nop
   15fe0:	93730008 	lbu	s3,8(k1)
   15fe4:	12600008 	beqz	s3,0x16008
   15fe8:	00000000 	nop
   15fec:	976d0010 	lhu	t5,16(k1)
   15ff0:	31acffff 	andi	t4,t5,0xffff
   15ff4:	00ec202b 	sltu	a0,a3,t4
   15ff8:	10800003 	beqz	a0,0x16008
   15ffc:	30ae0040 	andi	t6,a1,0x40
   16000:	11c000d5 	beqz	t6,0x16358
   16004:	00000000 	nop
   16008:	a7850040 	sh	a1,64(gp)
   1600c:	af870038 	sw	a3,56(gp)
   16010:	93630008 	lbu	v1,8(k1)
   16014:	02202821 	move	a1,s1
   16018:	afb10020 	sw	s1,32(sp)
   1601c:	146000f5 	bnez	v1,0x163f4
   16020:	27b40020 	addiu	s4,sp,32
   16024:	af60000c 	sw	zero,12(k1)
   16028:	978f0040 	lhu	t7,64(gp)
   1602c:	31f14000 	andi	s1,t7,0x4000
   16030:	16200002 	bnez	s1,0x1603c
   16034:	24030016 	li	v1,22
   16038:	2403000e 	li	v1,14
   1603c:	24054007 	li	a1,16391
   16040:	a363000a 	sb	v1,10(k1)
   16044:	af650014 	sw	a1,20(k1)
   16048:	938a0042 	lbu	t2,66(gp)
   1604c:	8f700014 	lw	s0,20(k1)
   16050:	31550001 	andi	s5,t2,0x1
   16054:	00151240 	sll	v0,s5,0x9
   16058:	02024825 	or	t1,s0,v0
   1605c:	af690014 	sw	t1,20(k1)
   16060:	979f0040 	lhu	ra,64(gp)
   16064:	8f780014 	lw	t8,20(k1)
   16068:	33f90010 	andi	t9,ra,0x10
   1606c:	03194025 	or	t0,t8,t9
   16070:	af680014 	sw	t0,20(k1)
   16074:	97920040 	lhu	s2,64(gp)
   16078:	32470008 	andi	a3,s2,0x8
   1607c:	10e0016e 	beqz	a3,0x16638
   16080:	00000000 	nop
   16084:	8f670014 	lw	a3,20(k1)
   16088:	3c121000 	lui	s2,0x1000
   1608c:	3c118000 	lui	s1,0x8000
   16090:	00f27825 	or	t7,a3,s2
   16094:	af6f0014 	sw	t7,20(k1)
   16098:	36230e00 	ori	v1,s1,0xe00
   1609c:	946e000a 	lhu	t6,10(v1)
   160a0:	3c0d8100 	lui	t5,0x8100
   160a4:	2406000e 	li	a2,14
   160a8:	31ccffff 	andi	t4,t6,0xffff
   160ac:	018d2025 	or	a0,t4,t5
   160b0:	af640004 	sw	a0,4(k1)
   160b4:	a3660002 	sb	a2,2(k1)
   160b8:	9373000a 	lbu	s3,10(k1)
   160bc:	3406fffc 	li	a2,0xfffc
   160c0:	266b0004 	addiu	t3,s3,4
   160c4:	a36b000a 	sb	t3,10(k1)
   160c8:	97980040 	lhu	t8,64(gp)
   160cc:	33082000 	andi	t0,t8,0x2000
   160d0:	1100015f 	beqz	t0,0x16650
   160d4:	00000000 	nop
   160d8:	3c058000 	lui	a1,0x8000
   160dc:	34a90e00 	ori	t1,a1,0xe00
   160e0:	97990040 	lhu	t9,64(gp)
   160e4:	9538000c 	lhu	t8,12(t1)
   160e8:	97870040 	lhu	a3,64(gp)
   160ec:	00194042 	srl	t0,t9,0x1
   160f0:	3312c000 	andi	s2,t8,0xc000
   160f4:	31030003 	andi	v1,t0,0x3
   160f8:	00127b03 	sra	t7,s2,0xc
   160fc:	30f11000 	andi	s1,a3,0x1000
   16100:	006f6825 	or	t5,v1,t7
   16104:	00117203 	sra	t6,s1,0x8
   16108:	01ae6025 	or	t4,t5,t6
   1610c:	000c20c0 	sll	a0,t4,0x3
   16110:	a7640012 	sh	a0,18(k1)
   16114:	97930040 	lhu	s3,64(gp)
   16118:	936a000a 	lbu	t2,10(k1)
   1611c:	00135982 	srl	t3,s3,0x6
   16120:	3175003c 	andi	s5,t3,0x3c
   16124:	02aa1021 	addu	v0,s5,t2
   16128:	2450003c 	addiu	s0,v0,60
   1612c:	a3700009 	sb	s0,9(k1)
   16130:	953f000c 	lhu	ra,12(t1)
   16134:	33f93fff 	andi	t9,ra,0x3fff
   16138:	a7790010 	sh	t9,16(k1)
   1613c:	97700012 	lhu	s0,18(k1)
   16140:	93690009 	lbu	t1,9(k1)
   16144:	0130f821 	addu	ra,t1,s0
   16148:	27e50002 	addiu	a1,ra,2
   1614c:	30b90007 	andi	t9,a1,0x7
   16150:	0019c023 	negu	t8,t9
   16154:	33080007 	andi	t0,t8,0x7
   16158:	a368000b 	sb	t0,11(k1)
   1615c:	93710009 	lbu	s1,9(k1)
   16160:	97720012 	lhu	s2,18(k1)
   16164:	976f0010 	lhu	t7,16(k1)
   16168:	322700ff 	andi	a3,s1,0xff
   1616c:	8f910038 	lw	s1,56(gp)
   16170:	978d0040 	lhu	t5,64(gp)
   16174:	00f21821 	addu	v1,a3,s2
   16178:	006f7021 	addu	t6,v1,t7
   1617c:	01c66021 	addu	t4,t6,a2
   16180:	31a60040 	andi	a2,t5,0x40
   16184:	10c00005 	beqz	a2,0x1619c
   16188:	3185ffff 	andi	a1,t4,0xffff
   1618c:	00b1102b 	sltu	v0,a1,s1
   16190:	3c128000 	lui	s2,0x8000
   16194:	10400017 	beqz	v0,0x161f4
   16198:	00009821 	move	s3,zero
   1619c:	0225a82b 	sltu	s5,s1,a1
   161a0:	56a0013e 	bnezl	s5,0x1669c
   161a4:	8fa50020 	lw	a1,32(sp)
   161a8:	3c048000 	lui	a0,0x8000
   161ac:	348a0e00 	ori	t2,a0,0xe00
   161b0:	8d530014 	lw	s3,20(t2)
   161b4:	3c068000 	lui	a2,0x8000
   161b8:	ad530010 	sw	s3,16(t2)
   161bc:	8d4b001c 	lw	t3,28(t2)
   161c0:	ad4b0018 	sw	t3,24(t2)
   161c4:	ad450000 	sw	a1,0(t2)
   161c8:	8ccd0000 	lw	t5,0(a2)
   161cc:	31ac0008 	andi	t4,t5,0x8
   161d0:	1180fffd 	beqz	t4,0x161c8
   161d4:	34ce0e00 	ori	t6,a2,0xe00
   161d8:	95c30008 	lhu	v1,8(t6)
   161dc:	00a08821 	move	s1,a1
   161e0:	00009021 	move	s2,zero
   161e4:	a7830040 	sh	v1,64(gp)
   161e8:	8dc60004 	lw	a2,4(t6)
   161ec:	24130001 	li	s3,1
   161f0:	af860038 	sw	a2,56(gp)
   161f4:	976f0010 	lhu	t7,16(k1)
   161f8:	31f5ffff 	andi	s5,t7,0xffff
   161fc:	8e9f0000 	lw	ra,0(s4)
   16200:	03f12823 	subu	a1,ra,s1
   16204:	10a0011f 	beqz	a1,0x16684
   16208:	ae850000 	sw	a1,0(s4)
   1620c:	93620008 	lbu	v0,8(k1)
   16210:	144000dd 	bnez	v0,0x16588
   16214:	00000000 	nop
   16218:	0e0001e7 	jal	0x800079c
   1621c:	24040010 	li	a0,16
   16220:	8f900048 	lw	s0,72(gp)
   16224:	00402821 	move	a1,v0
   16228:	3c023200 	lui	v0,0x3200
   1622c:	320600ff 	andi	a2,s0,0xff
   16230:	00065400 	sll	t2,a2,0x10
   16234:	0142f825 	or	ra,t2,v0
   16238:	26090001 	addiu	t1,s0,1
   1623c:	af890048 	sw	t1,72(gp)
   16240:	acbf0000 	sw	ra,0(a1)
   16244:	93790009 	lbu	t9,9(k1)
   16248:	97780012 	lhu	t8,18(k1)
   1624c:	936f000a 	lbu	t7,10(k1)
   16250:	332800ff 	andi	t0,t9,0xff
   16254:	3303ffff 	andi	v1,t8,0xffff
   16258:	01033821 	addu	a3,t0,v1
   1625c:	00076c00 	sll	t5,a3,0x10
   16260:	31ee00ff 	andi	t6,t7,0xff
   16264:	01ae6025 	or	t4,t5,t6
   16268:	acac0004 	sw	t4,4(a1)
   1626c:	8f840048 	lw	a0,72(gp)
   16270:	978b0040 	lhu	t3,64(gp)
   16274:	316a2000 	andi	t2,t3,0x2000
   16278:	1140010a 	beqz	t2,0x166a4
   1627c:	aca40008 	sw	a0,8(a1)
   16280:	97640012 	lhu	a0,18(k1)
   16284:	308bffff 	andi	t3,a0,0xffff
   16288:	06400108 	bltz	s2,0x166ac
   1628c:	acab000c 	sw	t3,12(a1)
   16290:	978e0040 	lhu	t6,64(gp)
   16294:	31c50008 	andi	a1,t6,0x8
   16298:	14a00002 	bnez	a1,0x162a4
   1629c:	26280006 	addiu	t0,s1,6
   162a0:	26280002 	addiu	t0,s1,2
   162a4:	3c1f8000 	lui	ra,0x8000
   162a8:	37e70e00 	ori	a3,ra,0xe00
   162ac:	94f90014 	lhu	t9,20(a3)
   162b0:	8ce5001c 	lw	a1,28(a3)
   162b4:	8f670004 	lw	a3,4(k1)
   162b8:	93780002 	lbu	t8,2(k1)
   162bc:	3324ffff 	andi	a0,t9,0xffff
   162c0:	330300ff 	andi	v1,t8,0xff
   162c4:	afa30010 	sw	v1,16(sp)
   162c8:	8f6f0014 	lw	t7,20(k1)
   162cc:	afa80018 	sw	t0,24(sp)
   162d0:	0e0001cb 	jal	0x800072c
   162d4:	afaf0014 	sw	t7,20(sp)
   162d8:	24040010 	li	a0,16
   162dc:	0e0001fb 	jal	0x80007ec
   162e0:	00000000 	nop
   162e4:	8e920000 	lw	s2,0(s4)
   162e8:	16400005 	bnez	s2,0x16300
   162ec:	00000000 	nop
   162f0:	8f780014 	lw	t8,20(k1)
   162f4:	2403ffbf 	li	v1,-65
   162f8:	0303a024 	and	s4,t8,v1
   162fc:	af740014 	sw	s4,20(k1)
   16300:	8f67000c 	lw	a3,12(k1)
   16304:	00f5c821 	addu	t9,a3,s5
   16308:	af79000c 	sw	t9,12(k1)
   1630c:	93750008 	lbu	s5,8(k1)
   16310:	16a00008 	bnez	s5,0x16334
   16314:	00000000 	nop
   16318:	12600006 	beqz	s3,0x16334
   1631c:	00000000 	nop
   16320:	8f680014 	lw	t0,20(k1)
   16324:	3c0aefff 	lui	t2,0xefff
   16328:	3549fffe 	ori	t1,t2,0xfffe
   1632c:	0109f824 	and	ra,t0,t1
   16330:	af7f0014 	sw	ra,20(k1)
   16334:	a3730008 	sb	s3,8(k1)
   16338:	8fa50020 	lw	a1,32(sp)
   1633c:	0a00034f 	j	0x8000d3c
   16340:	02202021 	move	a0,s1
   16344:	aed10000 	sw	s1,0(s6)
   16348:	0a00022d 	j	0x80008b4
   1634c:	3c038000 	lui	v1,0x8000
   16350:	14e0ff1e 	bnez	a3,0x15fcc
   16354:	30bfa040 	andi	ra,a1,0xa040
   16358:	0e000190 	jal	0x8000640
   1635c:	0000a021 	move	s4,zero
   16360:	2e910001 	sltiu	s1,s4,1
   16364:	0237b025 	or	s6,s1,s7
   16368:	12c00018 	beqz	s6,0x163cc
   1636c:	8fbf0048 	lw	ra,72(sp)
   16370:	8f87003c 	lw	a3,60(gp)
   16374:	24170f00 	li	s7,3840
   16378:	10f700d4 	beq	a3,s7,0x166cc
   1637c:	3c068000 	lui	a2,0x8000
   16380:	8cd90178 	lw	t9,376(a2)
   16384:	0720fffe 	bltz	t9,0x16380
   16388:	241f0f00 	li	ra,3840
   1638c:	10ff00f6 	beq	a3,ra,0x16768
   16390:	34ca0e00 	ori	t2,a2,0xe00
   16394:	8d560014 	lw	s6,20(t2)
   16398:	34c70140 	ori	a3,a2,0x140
   1639c:	24080240 	li	t0,576
   163a0:	acf60004 	sw	s6,4(a3)
   163a4:	8d49001c 	lw	t1,28(t2)
   163a8:	3c141000 	lui	s4,0x1000
   163ac:	ace90008 	sw	t1,8(a3)
   163b0:	a0e00012 	sb	zero,18(a3)
   163b4:	a4e0001a 	sh	zero,26(a3)
   163b8:	ace00020 	sw	zero,32(a3)
   163bc:	a4e00018 	sh	zero,24(a3)
   163c0:	ace80014 	sw	t0,20(a3)
   163c4:	acd40178 	sw	s4,376(a2)
   163c8:	8fbf0048 	lw	ra,72(sp)
   163cc:	8fb70044 	lw	s7,68(sp)
   163d0:	8fb60040 	lw	s6,64(sp)
   163d4:	8fb5003c 	lw	s5,60(sp)
   163d8:	8fb40038 	lw	s4,56(sp)
   163dc:	8fb30034 	lw	s3,52(sp)
   163e0:	8fb20030 	lw	s2,48(sp)
   163e4:	8fb1002c 	lw	s1,44(sp)
   163e8:	8fb00028 	lw	s0,40(sp)
   163ec:	03e00008 	jr	ra
   163f0:	27bd0050 	addiu	sp,sp,80
   163f4:	8f910038 	lw	s1,56(gp)
   163f8:	97880040 	lhu	t0,64(gp)
   163fc:	3c128000 	lui	s2,0x8000
   16400:	0220a821 	move	s5,s1
   16404:	31070040 	andi	a3,t0,0x40
   16408:	14e0ff7c 	bnez	a3,0x161fc
   1640c:	00009821 	move	s3,zero
   16410:	97790010 	lhu	t9,16(k1)
   16414:	8f920038 	lw	s2,56(gp)
   16418:	3338ffff 	andi	t8,t9,0xffff
   1641c:	131200a8 	beq	t8,s2,0x166c0
   16420:	00002021 	move	a0,zero
   16424:	0080a021 	move	s4,a0
   16428:	108000f3 	beqz	a0,0x167f8
   1642c:	00a08821 	move	s1,a1
   16430:	1620fece 	bnez	s1,0x15f6c
   16434:	00000000 	nop
   16438:	0a00031f 	j	0x8000c7c
   1643c:	2e910001 	sltiu	s1,s4,1
   16440:	3c038000 	lui	v1,0x8000
   16444:	8c620178 	lw	v0,376(v1)
   16448:	0440fffe 	bltz	v0,0x16444
   1644c:	24080800 	li	t0,2048
   16450:	8f860000 	lw	a2,0(gp)
   16454:	ac680178 	sw	t0,376(v1)
   16458:	3c038000 	lui	v1,0x8000
   1645c:	946d008a 	lhu	t5,138(v1)
   16460:	31acffff 	andi	t4,t5,0xffff
   16464:	01865823 	subu	t3,t4,a2
   16468:	256affff 	addiu	t2,t3,-1
   1646c:	31441fff 	andi	a0,t2,0x1fff
   16470:	2c890008 	sltiu	t1,a0,8
   16474:	1520fff9 	bnez	t1,0x1645c
   16478:	00000000 	nop
   1647c:	8f8f0048 	lw	t7,72(gp)
   16480:	34704000 	ori	s0,v1,0x4000
   16484:	8f83003c 	lw	v1,60(gp)
   16488:	00e0a021 	move	s4,a3
   1648c:	240e0f00 	li	t6,3840
   16490:	25e70001 	addiu	a3,t7,1
   16494:	af870048 	sw	a3,72(gp)
   16498:	00d03021 	addu	a2,a2,s0
   1649c:	02348823 	subu	s1,s1,s4
   164a0:	3c088000 	lui	t0,0x8000
   164a4:	31f500ff 	andi	s5,t7,0xff
   164a8:	106e0005 	beq	v1,t6,0x164c0
   164ac:	24070001 	li	a3,1
   164b0:	93980042 	lbu	t8,66(gp)
   164b4:	33130001 	andi	s3,t8,0x1
   164b8:	00139240 	sll	s2,s3,0x9
   164bc:	36470001 	ori	a3,s2,0x1
   164c0:	00152400 	sll	a0,s5,0x10
   164c4:	3c0a0100 	lui	t2,0x100
   164c8:	008a4825 	or	t1,a0,t2
   164cc:	acc90000 	sw	t1,0(a2)
   164d0:	8f820048 	lw	v0,72(gp)
   164d4:	30bf0036 	andi	ra,a1,0x36
   164d8:	30b90008 	andi	t9,a1,0x8
   164dc:	acc20004 	sw	v0,4(a2)
   164e0:	13200099 	beqz	t9,0x16748
   164e4:	00ff9825 	or	s3,a3,ra
   164e8:	35120e00 	ori	s2,t0,0xe00
   164ec:	9650000a 	lhu	s0,10(s2)
   164f0:	8f870000 	lw	a3,0(gp)
   164f4:	3c0f8100 	lui	t7,0x8100
   164f8:	3203ffff 	andi	v1,s0,0xffff
   164fc:	24ed0008 	addiu	t5,a3,8
   16500:	35060140 	ori	a2,t0,0x140
   16504:	006f6025 	or	t4,v1,t7
   16508:	3c0e1000 	lui	t6,0x1000
   1650c:	31ab1fff 	andi	t3,t5,0x1fff
   16510:	26920006 	addiu	s2,s4,6
   16514:	2405000e 	li	a1,14
   16518:	accc0020 	sw	t4,32(a2)
   1651c:	026e9825 	or	s3,s3,t6
   16520:	a4c5001a 	sh	a1,26(a2)
   16524:	af8b0000 	sw	t3,0(gp)
   16528:	a4d20018 	sh	s2,24(a2)
   1652c:	16200008 	bnez	s1,0x16550
   16530:	3c108000 	lui	s0,0x8000
   16534:	8f89003c 	lw	t1,60(gp)
   16538:	24020f00 	li	v0,3840
   1653c:	51220002 	beql	t1,v0,0x16548
   16540:	24170001 	li	s7,1
   16544:	36730040 	ori	s3,s3,0x40
   16548:	0e000188 	jal	0x8000620
   1654c:	3c108000 	lui	s0,0x8000
   16550:	36060e00 	ori	a2,s0,0xe00
   16554:	8ccb0014 	lw	t3,20(a2)
   16558:	360a0140 	ori	t2,s0,0x140
   1655c:	02402021 	move	a0,s2
   16560:	ad4b0004 	sw	t3,4(t2)
   16564:	8cc5001c 	lw	a1,28(a2)
   16568:	ad450008 	sw	a1,8(t2)
   1656c:	a1550012 	sb	s5,18(t2)
   16570:	ad530014 	sw	s3,20(t2)
   16574:	0e000198 	jal	0x8000660
   16578:	3c151000 	lui	s5,0x1000
   1657c:	ae150178 	sw	s5,376(s0)
   16580:	0a000352 	j	0x8000d48
   16584:	00000000 	nop
   16588:	936f0009 	lbu	t7,9(k1)
   1658c:	976e0012 	lhu	t6,18(k1)
   16590:	936d000b 	lbu	t5,11(k1)
   16594:	31e500ff 	andi	a1,t7,0xff
   16598:	00ae2021 	addu	a0,a1,t6
   1659c:	31ac00ff 	andi	t4,t5,0xff
   165a0:	008c8021 	addu	s0,a0,t4
   165a4:	2602000a 	addiu	v0,s0,10
   165a8:	3050ffff 	andi	s0,v0,0xffff
   165ac:	0e0001e7 	jal	0x800079c
   165b0:	02002021 	move	a0,s0
   165b4:	8f860048 	lw	a2,72(gp)
   165b8:	3c034100 	lui	v1,0x4100
   165bc:	3c058000 	lui	a1,0x8000
   165c0:	24cb0001 	addiu	t3,a2,1
   165c4:	af8b0048 	sw	t3,72(gp)
   165c8:	936a0009 	lbu	t2,9(k1)
   165cc:	97690012 	lhu	t1,18(k1)
   165d0:	30c600ff 	andi	a2,a2,0xff
   165d4:	315f00ff 	andi	ra,t2,0xff
   165d8:	3128ffff 	andi	t0,t1,0xffff
   165dc:	03e83821 	addu	a3,ra,t0
   165e0:	24f90002 	addiu	t9,a3,2
   165e4:	0006c400 	sll	t8,a2,0x10
   165e8:	03197825 	or	t7,t8,t9
   165ec:	01e37025 	or	t6,t7,v1
   165f0:	ac4e0000 	sw	t6,0(v0)
   165f4:	8f6d000c 	lw	t5,12(k1)
   165f8:	34a40e00 	ori	a0,a1,0xe00
   165fc:	948b0014 	lhu	t3,20(a0)
   16600:	01b26025 	or	t4,t5,s2
   16604:	ac4c0004 	sw	t4,4(v0)
   16608:	8c85001c 	lw	a1,28(a0)
   1660c:	8f670004 	lw	a3,4(k1)
   16610:	936a0002 	lbu	t2,2(k1)
   16614:	3164ffff 	andi	a0,t3,0xffff
   16618:	314900ff 	andi	t1,t2,0xff
   1661c:	afa90010 	sw	t1,16(sp)
   16620:	8f680014 	lw	t0,20(k1)
   16624:	afb10018 	sw	s1,24(sp)
   16628:	0e0001cb 	jal	0x800072c
   1662c:	afa80014 	sw	t0,20(sp)
   16630:	0a0002fd 	j	0x8000bf4
   16634:	02002021 	move	a0,s0
   16638:	af600004 	sw	zero,4(k1)
   1663c:	a3600002 	sb	zero,2(k1)
   16640:	97980040 	lhu	t8,64(gp)
   16644:	33082000 	andi	t0,t8,0x2000
   16648:	1500fea3 	bnez	t0,0x160d8
   1664c:	00003021 	move	a2,zero
   16650:	a7600012 	sh	zero,18(k1)
   16654:	97840040 	lhu	a0,64(gp)
   16658:	936b000a 	lbu	t3,10(k1)
   1665c:	3c108000 	lui	s0,0x8000
   16660:	30931f00 	andi	s3,a0,0x1f00
   16664:	00135183 	sra	t2,s3,0x6
   16668:	014ba821 	addu	s5,t2,t3
   1666c:	26a20028 	addiu	v0,s5,40
   16670:	a3620009 	sb	v0,9(k1)
   16674:	36090e00 	ori	t1,s0,0xe00
   16678:	953f000c 	lhu	ra,12(t1)
   1667c:	0a000295 	j	0x8000a54
   16680:	a77f0010 	sh	ra,16(k1)
   16684:	8f700014 	lw	s0,20(k1)
   16688:	36090040 	ori	t1,s0,0x40
   1668c:	0e000188 	jal	0x8000620
   16690:	af690014 	sw	t1,20(k1)
   16694:	0a0002c9 	j	0x8000b24
   16698:	00000000 	nop
   1669c:	0a00034f 	j	0x8000d3c
   166a0:	00002021 	move	a0,zero
   166a4:	0641fefa 	bgez	s2,0x16290
   166a8:	aca0000c 	sw	zero,12(a1)
   166ac:	8cac000c 	lw	t4,12(a1)
   166b0:	3c0d8000 	lui	t5,0x8000
   166b4:	018d9025 	or	s2,t4,t5
   166b8:	0a0002ea 	j	0x8000ba8
   166bc:	acb2000c 	sw	s2,12(a1)
   166c0:	00009021 	move	s2,zero
   166c4:	0a0002c5 	j	0x8000b14
   166c8:	24130001 	li	s3,1
   166cc:	12800007 	beqz	s4,0x166ec
   166d0:	3c028000 	lui	v0,0x8000
   166d4:	344b0e00 	ori	t3,v0,0xe00
   166d8:	95660008 	lhu	a2,8(t3)
   166dc:	30d30040 	andi	s3,a2,0x40
   166e0:	12600049 	beqz	s3,0x16808
   166e4:	00000000 	nop
   166e8:	3c068000 	lui	a2,0x8000
   166ec:	8cd00178 	lw	s0,376(a2)
   166f0:	0600fffe 	bltz	s0,0x166ec
   166f4:	34c50e00 	ori	a1,a2,0xe00
   166f8:	94b50010 	lhu	s5,16(a1)
   166fc:	3c030500 	lui	v1,0x500
   16700:	34cc0140 	ori	t4,a2,0x140
   16704:	32b8ffff 	andi	t8,s5,0xffff
   16708:	03039025 	or	s2,t8,v1
   1670c:	ad92000c 	sw	s2,12(t4)
   16710:	8caf0014 	lw	t7,20(a1)
   16714:	240d2000 	li	t5,8192
   16718:	3c041000 	lui	a0,0x1000
   1671c:	ad8f0004 	sw	t7,4(t4)
   16720:	8cae001c 	lw	t6,28(a1)
   16724:	ad8e0008 	sw	t6,8(t4)
   16728:	a1800012 	sb	zero,18(t4)
   1672c:	a580001a 	sh	zero,26(t4)
   16730:	ad800020 	sw	zero,32(t4)
   16734:	a5800018 	sh	zero,24(t4)
   16738:	ad8d0014 	sw	t5,20(t4)
   1673c:	acc40178 	sw	a0,376(a2)
   16740:	0a000326 	j	0x8000c98
   16744:	3c068000 	lui	a2,0x8000
   16748:	8f9f0000 	lw	ra,0(gp)
   1674c:	35180140 	ori	t8,t0,0x140
   16750:	26920002 	addiu	s2,s4,2
   16754:	27f90008 	addiu	t9,ra,8
   16758:	33281fff 	andi	t0,t9,0x1fff
   1675c:	a7120018 	sh	s2,24(t8)
   16760:	0a000391 	j	0x8000e44
   16764:	af880000 	sw	t0,0(gp)
   16768:	3c028000 	lui	v0,0x8000
   1676c:	34450140 	ori	a1,v0,0x140
   16770:	aca0000c 	sw	zero,12(a1)
   16774:	1280001b 	beqz	s4,0x167e4
   16778:	34530e00 	ori	s3,v0,0xe00
   1677c:	34510e00 	ori	s1,v0,0xe00
   16780:	8e370010 	lw	s7,16(s1)
   16784:	acb70004 	sw	s7,4(a1)
   16788:	8e240018 	lw	a0,24(s1)
   1678c:	3c0b8000 	lui	t3,0x8000
   16790:	aca40008 	sw	a0,8(a1)
   16794:	35700140 	ori	s0,t3,0x140
   16798:	24040040 	li	a0,64
   1679c:	a2000012 	sb	zero,18(s0)
   167a0:	8fbf0048 	lw	ra,72(sp)
   167a4:	a600001a 	sh	zero,26(s0)
   167a8:	8fb70044 	lw	s7,68(sp)
   167ac:	ae000020 	sw	zero,32(s0)
   167b0:	8fb60040 	lw	s6,64(sp)
   167b4:	a6000018 	sh	zero,24(s0)
   167b8:	8fb5003c 	lw	s5,60(sp)
   167bc:	ae040014 	sw	a0,20(s0)
   167c0:	8fb40038 	lw	s4,56(sp)
   167c4:	8fb30034 	lw	s3,52(sp)
   167c8:	8fb20030 	lw	s2,48(sp)
   167cc:	8fb1002c 	lw	s1,44(sp)
   167d0:	8fb00028 	lw	s0,40(sp)
   167d4:	3c021000 	lui	v0,0x1000
   167d8:	27bd0050 	addiu	sp,sp,80
   167dc:	03e00008 	jr	ra
   167e0:	ad620178 	sw	v0,376(t3)
   167e4:	8e660014 	lw	a2,20(s3)
   167e8:	aca60004 	sw	a2,4(a1)
   167ec:	8e64001c 	lw	a0,28(s3)
   167f0:	0a00042a 	j	0x80010a8
   167f4:	3c0b8000 	lui	t3,0x8000
   167f8:	0e000190 	jal	0x8000640
   167fc:	2e910001 	sltiu	s1,s4,1
   16800:	0a000320 	j	0x8000c80
   16804:	0237b025 	or	s6,s1,s7
   16808:	00000000 	nop
   1680c:	0000000d 	break
   16810:	00000000 	nop
   16814:	24000369 	li	zero,873
   16818:	0a000401 	j	0x8001004
   1681c:	3c068000 	lui	a2,0x8000
   16820:	27bdffd8 	addiu	sp,sp,-40
   16824:	afbf0020 	sw	ra,32(sp)
   16828:	3c098000 	lui	t1,0x8000
   1682c:	3c1f20ff 	lui	ra,0x20ff
   16830:	afb20018 	sw	s2,24(sp)
   16834:	3c076000 	lui	a3,0x6000
   16838:	35320e00 	ori	s2,t1,0xe00
   1683c:	24020010 	li	v0,16
   16840:	37f9fffd 	ori	t9,ra,0xfffd
   16844:	ace23008 	sw	v0,12296(a3)
   16848:	afb3001c 	sw	s3,28(sp)
   1684c:	afb10014 	sw	s1,20(sp)
   16850:	afb00010 	sw	s0,16(sp)
   16854:	ae590000 	sw	t9,0(s2)
	...
   1686c:	3c1800ff 	lui	t8,0xff
   16870:	3713fffd 	ori	s3,t8,0xfffd
   16874:	ae530000 	sw	s3,0(s2)
   16878:	3c0b6004 	lui	t3,0x6004
   1687c:	8d705000 	lw	s0,20480(t3)
   16880:	2411ff7f 	li	s1,-129
   16884:	3c0e0002 	lui	t6,0x2
   16888:	02117824 	and	t7,s0,s1
   1688c:	35ec380c 	ori	t4,t7,0x380c
   16890:	35cd0109 	ori	t5,t6,0x109
   16894:	aced4c18 	sw	t5,19480(a3)
   16898:	240a0009 	li	t2,9
   1689c:	ad6c5000 	sw	t4,20480(t3)
   168a0:	8ce80438 	lw	t0,1080(a3)
   168a4:	ad2a0008 	sw	t2,8(t1)
   168a8:	ad200014 	sw	zero,20(t1)
   168ac:	8ce54c1c 	lw	a1,19484(a3)
   168b0:	3106ffff 	andi	a2,t0,0xffff
   168b4:	38c42f71 	xori	a0,a2,0x2f71
   168b8:	00051e02 	srl	v1,a1,0x18
   168bc:	3062000f 	andi	v0,v1,0xf
   168c0:	2486c0b3 	addiu	a2,a0,-16205
   168c4:	10400007 	beqz	v0,0x168e4
   168c8:	af820008 	sw	v0,8(gp)
   168cc:	8ce54c1c 	lw	a1,19484(a3)
   168d0:	3c09001f 	lui	t1,0x1f
   168d4:	3528fc00 	ori	t0,t1,0xfc00
   168d8:	00a81824 	and	v1,a1,t0
   168dc:	000321c2 	srl	a0,v1,0x7
   168e0:	af840004 	sw	a0,4(gp)
   168e4:	8cf10808 	lw	s1,2056(a3)
   168e8:	3c0f5709 	lui	t7,0x5709
   168ec:	2412f000 	li	s2,-4096
   168f0:	02327024 	and	t6,s1,s2
   168f4:	35f00010 	ori	s0,t7,0x10
   168f8:	01d06026 	xor	t4,t6,s0
   168fc:	01cf6826 	xor	t5,t6,t7
   16900:	2daa0001 	sltiu	t2,t5,1
   16904:	2d8b0001 	sltiu	t3,t4,1
   16908:	014b3825 	or	a3,t2,t3
   1690c:	50e00009 	beqzl	a3,0x16934
   16910:	a380000c 	sb	zero,12(gp)
   16914:	3c1f601c 	lui	ra,0x601c
   16918:	8ff80008 	lw	t8,8(ra)
   1691c:	24190001 	li	t9,1
   16920:	a399000c 	sb	t9,12(gp)
   16924:	33137c00 	andi	s3,t8,0x7c00
   16928:	a7930010 	sh	s3,16(gp)
   1692c:	a780000e 	sh	zero,14(gp)
   16930:	a380000d 	sb	zero,13(gp)
   16934:	af800048 	sw	zero,72(gp)
   16938:	14c00003 	bnez	a2,0x16948
   1693c:	af800000 	sw	zero,0(gp)
   16940:	3c066000 	lui	a2,0x6000
   16944:	acc0442c 	sw	zero,17452(a2)
   16948:	0e0005b9 	jal	0x80016e4
   1694c:	3c108000 	lui	s0,0x8000
   16950:	0e000f24 	jal	0x8003c90
   16954:	36110100 	ori	s1,s0,0x100
   16958:	3c120800 	lui	s2,0x800
   1695c:	26523df0 	addiu	s2,s2,15856
   16960:	3c130800 	lui	s3,0x800
   16964:	26733e70 	addiu	s3,s3,15984
   16968:	8e030000 	lw	v1,0(s0)
   1696c:	38640001 	xori	a0,v1,0x1
   16970:	30820001 	andi	v0,a0,0x1
   16974:	1440fffc 	bnez	v0,0x16968
   16978:	3c0b800a 	lui	t3,0x800a
   1697c:	8e260000 	lw	a2,0(s1)
   16980:	2407ff80 	li	a3,-128
   16984:	24c90240 	addiu	t1,a2,576
   16988:	312a007f 	andi	t2,t1,0x7f
   1698c:	014b4021 	addu	t0,t2,t3
   16990:	01272824 	and	a1,t1,a3
   16994:	ae060020 	sw	a2,32(s0)
   16998:	af880044 	sw	t0,68(gp)
   1699c:	ae050024 	sw	a1,36(s0)
   169a0:	3c048000 	lui	a0,0x8000
   169a4:	af86003c 	sw	a2,60(gp)
   169a8:	8c8c0178 	lw	t4,376(a0)
   169ac:	0580fffe 	bltz	t4,0x169a8
   169b0:	24180800 	li	t8,2048
   169b4:	922f0008 	lbu	t7,8(s1)
   169b8:	ac980178 	sw	t8,376(a0)
   169bc:	a38f0042 	sb	t7,66(gp)
   169c0:	938e0042 	lbu	t6,66(gp)
   169c4:	31cd0001 	andi	t5,t6,0x1
   169c8:	11a0000f 	beqz	t5,0x16a08
   169cc:	24050d00 	li	a1,3328
   169d0:	24dff800 	addiu	ra,a2,-2048
   169d4:	2ff90301 	sltiu	t9,ra,769
   169d8:	1320001c 	beqz	t9,0x16a4c
   169dc:	000629c2 	srl	a1,a2,0x7
   169e0:	24a4fff0 	addiu	a0,a1,-16
   169e4:	00041042 	srl	v0,a0,0x1
   169e8:	00023140 	sll	a2,v0,0x5
   169ec:	0e000202 	jal	0x8000808
   169f0:	00d2d821 	addu	k1,a2,s2
   169f4:	3c024000 	lui	v0,0x4000
   169f8:	3c068000 	lui	a2,0x8000
   169fc:	acc20138 	sw	v0,312(a2)
   16a00:	0a0004a0 	j	0x8001280
   16a04:	00000000 	nop
   16a08:	10c50023 	beq	a2,a1,0x16a98
   16a0c:	240d0f00 	li	t5,3840
   16a10:	10cd0027 	beq	a2,t5,0x16ab0
   16a14:	3c1f8008 	lui	ra,0x8008
   16a18:	37f90080 	ori	t9,ra,0x80
   16a1c:	93380000 	lbu	t8,0(t9)
   16a20:	240e0050 	li	t6,80
   16a24:	330f00ff 	andi	t7,t8,0xff
   16a28:	15eefff3 	bne	t7,t6,0x169f8
   16a2c:	3c024000 	lui	v0,0x4000
   16a30:	0e000a40 	jal	0x8002900
   16a34:	00000000 	nop
   16a38:	3c024000 	lui	v0,0x4000
   16a3c:	3c068000 	lui	a2,0x8000
   16a40:	acc20138 	sw	v0,312(a2)
   16a44:	0a0004a0 	j	0x8001280
   16a48:	00000000 	nop
   16a4c:	8f830004 	lw	v1,4(gp)
   16a50:	00a3402b 	sltu	t0,a1,v1
   16a54:	1500000b 	bnez	t0,0x16a84
   16a58:	8f8b0008 	lw	t3,8(gp)
   16a5c:	006b5021 	addu	t2,v1,t3
   16a60:	2547ffff 	addiu	a3,t2,-1
   16a64:	00e5482b 	sltu	t1,a3,a1
   16a68:	15200006 	bnez	t1,0x16a84
   16a6c:	00a36023 	subu	t4,a1,v1
   16a70:	000c1940 	sll	v1,t4,0x5
   16a74:	0e000202 	jal	0x8000808
   16a78:	0073d821 	addu	k1,v1,s3
   16a7c:	0a0004c4 	j	0x8001310
   16a80:	3c024000 	lui	v0,0x4000
   16a84:	0000000d 	break
   16a88:	0e000202 	jal	0x8000808
   16a8c:	00000000 	nop
   16a90:	0a0004c4 	j	0x8001310
   16a94:	3c024000 	lui	v0,0x4000
   16a98:	3c1b0800 	lui	k1,0x800
   16a9c:	277b3f70 	addiu	k1,k1,16240
   16aa0:	0e000202 	jal	0x8000808
   16aa4:	00000000 	nop
   16aa8:	0a0004c4 	j	0x8001310
   16aac:	3c024000 	lui	v0,0x4000
   16ab0:	3c1b0800 	lui	k1,0x800
   16ab4:	277b3f90 	addiu	k1,k1,16272
   16ab8:	0e000202 	jal	0x8000808
   16abc:	00000000 	nop
   16ac0:	0a0004c4 	j	0x8001310
   16ac4:	3c024000 	lui	v0,0x4000
   16ac8:	3c066004 	lui	a2,0x6004
   16acc:	3c090800 	lui	t1,0x800
   16ad0:	25290104 	addiu	t1,t1,260
   16ad4:	acc9502c 	sw	t1,20524(a2)
   16ad8:	8cc85000 	lw	t0,20480(a2)
   16adc:	3c058000 	lui	a1,0x8000
   16ae0:	3c020002 	lui	v0,0x2
   16ae4:	35070080 	ori	a3,t0,0x80
   16ae8:	acc75000 	sw	a3,20480(a2)
   16aec:	3c040800 	lui	a0,0x800
   16af0:	248415a4 	addiu	a0,a0,5540
   16af4:	3c030800 	lui	v1,0x800
   16af8:	2463155c 	addiu	v1,v1,5468
   16afc:	aca50008 	sw	a1,8(a1)
   16b00:	aca2000c 	sw	v0,12(a1)
   16b04:	3c010800 	lui	at,0x800
   16b08:	ac243d80 	sw	a0,15744(at)
   16b0c:	3c010800 	lui	at,0x800
   16b10:	ac233d84 	sw	v1,15748(at)
   16b14:	03e00008 	jr	ra
   16b18:	24020001 	li	v0,1
   16b1c:	00a03021 	move	a2,a1
   16b20:	3c1c0800 	lui	gp,0x800
   16b24:	279c3d88 	addiu	gp,gp,15752
   16b28:	3c0c0400 	lui	t4,0x400
   16b2c:	3c0b0002 	lui	t3,0x2
   16b30:	008b3826 	xor	a3,a0,t3
   16b34:	008c4026 	xor	t0,a0,t4
   16b38:	2ce20001 	sltiu	v0,a3,1
   16b3c:	0007502b 	sltu	t2,zero,a3
   16b40:	2d050001 	sltiu	a1,t0,1
   16b44:	000a4880 	sll	t1,t2,0x2
   16b48:	3c030800 	lui	v1,0x800
   16b4c:	24633d80 	addiu	v1,v1,15744
   16b50:	00452025 	or	a0,v0,a1
   16b54:	01231821 	addu	v1,t1,v1
   16b58:	10800003 	beqz	a0,0x16b68
   16b5c:	00001021 	move	v0,zero
   16b60:	ac660000 	sw	a2,0(v1)
   16b64:	24020001 	li	v0,1
   16b68:	03e00008 	jr	ra
   16b6c:	00000000 	nop
   16b70:	3c1c0800 	lui	gp,0x800
   16b74:	279c3d88 	addiu	gp,gp,15752
   16b78:	3c0b0400 	lui	t3,0x400
   16b7c:	3c0a0002 	lui	t2,0x2
   16b80:	008a3026 	xor	a2,a0,t2
   16b84:	008b3826 	xor	a3,a0,t3
   16b88:	2cc20001 	sltiu	v0,a2,1
   16b8c:	0006482b 	sltu	t1,zero,a2
   16b90:	2ce50001 	sltiu	a1,a3,1
   16b94:	00094080 	sll	t0,t1,0x2
   16b98:	3c030800 	lui	v1,0x800
   16b9c:	24633d80 	addiu	v1,v1,15744
   16ba0:	00452025 	or	a0,v0,a1
   16ba4:	01031821 	addu	v1,t0,v1
   16ba8:	10800005 	beqz	a0,0x16bc0
   16bac:	00001021 	move	v0,zero
   16bb0:	3c0c0800 	lui	t4,0x800
   16bb4:	258c155c 	addiu	t4,t4,5468
   16bb8:	ac6c0000 	sw	t4,0(v1)
   16bbc:	24020001 	li	v0,1
   16bc0:	03e00008 	jr	ra
   16bc4:	00000000 	nop
   16bc8:	3c090002 	lui	t1,0x2
   16bcc:	3c080400 	lui	t0,0x400
   16bd0:	00883026 	xor	a2,a0,t0
   16bd4:	00893826 	xor	a3,a0,t1
   16bd8:	2cc30001 	sltiu	v1,a2,1
   16bdc:	00802821 	move	a1,a0
   16be0:	2ce40001 	sltiu	a0,a3,1
   16be4:	00831025 	or	v0,a0,v1
   16be8:	1040000b 	beqz	v0,0x16c18
   16bec:	00003021 	move	a2,zero
   16bf0:	3c1c0800 	lui	gp,0x800
   16bf4:	279c3d88 	addiu	gp,gp,15752
   16bf8:	3c0a8000 	lui	t2,0x8000
   16bfc:	8d4e0008 	lw	t6,8(t2)
   16c00:	24060001 	li	a2,1
   16c04:	01ca6825 	or	t5,t6,t2
   16c08:	ad4d0008 	sw	t5,8(t2)
   16c0c:	8d4c000c 	lw	t4,12(t2)
   16c10:	01855825 	or	t3,t4,a1
   16c14:	ad4b000c 	sw	t3,12(t2)
   16c18:	03e00008 	jr	ra
   16c1c:	00c01021 	move	v0,a2
   16c20:	3c1c0800 	lui	gp,0x800
   16c24:	279c3d88 	addiu	gp,gp,15752
   16c28:	3c058000 	lui	a1,0x8000
   16c2c:	8ca6000c 	lw	a2,12(a1)
   16c30:	00042027 	nor	a0,zero,a0
   16c34:	24020001 	li	v0,1
   16c38:	00c41824 	and	v1,a2,a0
   16c3c:	03e00008 	jr	ra
   16c40:	aca3000c 	sw	v1,12(a1)
   16c44:	3c020002 	lui	v0,0x2
   16c48:	1082000b 	beq	a0,v0,0x16c78
   16c4c:	3c056000 	lui	a1,0x6000
   16c50:	3c070400 	lui	a3,0x400
   16c54:	10870003 	beq	a0,a3,0x16c64
   16c58:	00000000 	nop
   16c5c:	03e00008 	jr	ra
   16c60:	00000000 	nop
   16c64:	8ca908d0 	lw	t1,2256(a1)
   16c68:	240afffd 	li	t2,-3
   16c6c:	012a4024 	and	t0,t1,t2
   16c70:	03e00008 	jr	ra
   16c74:	aca808d0 	sw	t0,2256(a1)
   16c78:	8ca408d0 	lw	a0,2256(a1)
   16c7c:	2406fffe 	li	a2,-2
   16c80:	00861824 	and	v1,a0,a2
   16c84:	03e00008 	jr	ra
   16c88:	aca308d0 	sw	v1,2256(a1)
   16c8c:	3c05601a 	lui	a1,0x601a
   16c90:	34a60010 	ori	a2,a1,0x10
   16c94:	8cc30080 	lw	v1,128(a2)
   16c98:	27bdfff8 	addiu	sp,sp,-8
   16c9c:	8cc50084 	lw	a1,132(a2)
   16ca0:	afa30000 	sw	v1,0(sp)
   16ca4:	93a40000 	lbu	a0,0(sp)
   16ca8:	24020001 	li	v0,1
   16cac:	10820003 	beq	a0,v0,0x16cbc
   16cb0:	afa50004 	sw	a1,4(sp)
   16cb4:	03e00008 	jr	ra
   16cb8:	27bd0008 	addiu	sp,sp,8
   16cbc:	93a70001 	lbu	a3,1(sp)
   16cc0:	14e00014 	bnez	a3,0x16d14
   16cc4:	97ac0002 	lhu	t4,2(sp)
   16cc8:	97b80002 	lhu	t8,2(sp)
   16ccc:	3c0f8000 	lui	t7,0x8000
   16cd0:	330efffc 	andi	t6,t8,0xfffc
   16cd4:	01cf6821 	addu	t5,t6,t7
   16cd8:	ada50000 	sw	a1,0(t5)
   16cdc:	a3a00000 	sb	zero,0(sp)
   16ce0:	3c066000 	lui	a2,0x6000
   16ce4:	8cc708d0 	lw	a3,2256(a2)
   16ce8:	2408fffe 	li	t0,-2
   16cec:	3c04601a 	lui	a0,0x601a
   16cf0:	00e82824 	and	a1,a3,t0
   16cf4:	acc508d0 	sw	a1,2256(a2)
   16cf8:	8fa30004 	lw	v1,4(sp)
   16cfc:	8fa20000 	lw	v0,0(sp)
   16d00:	34990010 	ori	t9,a0,0x10
   16d04:	27bd0008 	addiu	sp,sp,8
   16d08:	af220080 	sw	v0,128(t9)
   16d0c:	03e00008 	jr	ra
   16d10:	af230084 	sw	v1,132(t9)
   16d14:	3c0b8000 	lui	t3,0x8000
   16d18:	318afffc 	andi	t2,t4,0xfffc
   16d1c:	014b4821 	addu	t1,t2,t3
   16d20:	8d280000 	lw	t0,0(t1)
   16d24:	0a00057d 	j	0x80015f4
   16d28:	afa80004 	sw	t0,4(sp)
   16d2c:	27bdffe8 	addiu	sp,sp,-24
   16d30:	afbf0010 	sw	ra,16(sp)
   16d34:	3c1c0800 	lui	gp,0x800
   16d38:	279c3d88 	addiu	gp,gp,15752
   16d3c:	3c058000 	lui	a1,0x8000
   16d40:	8ca4000c 	lw	a0,12(a1)
   16d44:	8ca20004 	lw	v0,4(a1)
   16d48:	3c030002 	lui	v1,0x2
   16d4c:	00442824 	and	a1,v0,a0
   16d50:	10a0000a 	beqz	a1,0x16d7c
   16d54:	00a31824 	and	v1,a1,v1
   16d58:	3c060400 	lui	a2,0x400
   16d5c:	3c040002 	lui	a0,0x2
   16d60:	14600009 	bnez	v1,0x16d88
   16d64:	00a61024 	and	v0,a1,a2
   16d68:	1440000f 	bnez	v0,0x16da8
   16d6c:	3c040400 	lui	a0,0x400
   16d70:	0000000d 	break
   16d74:	3c1c0800 	lui	gp,0x800
   16d78:	279c3d88 	addiu	gp,gp,15752
   16d7c:	8fbf0010 	lw	ra,16(sp)
   16d80:	03e00008 	jr	ra
   16d84:	27bd0018 	addiu	sp,sp,24
   16d88:	3c020800 	lui	v0,0x800
   16d8c:	8c423d80 	lw	v0,15744(v0)
   16d90:	0040f809 	jalr	v0
   16d94:	00000000 	nop
   16d98:	3c1c0800 	lui	gp,0x800
   16d9c:	279c3d88 	addiu	gp,gp,15752
   16da0:	0a0005a6 	j	0x8001698
   16da4:	8fbf0010 	lw	ra,16(sp)
   16da8:	3c020800 	lui	v0,0x800
   16dac:	8c423d84 	lw	v0,15748(v0)
   16db0:	0040f809 	jalr	v0
   16db4:	00000000 	nop
   16db8:	0a0005ac 	j	0x80016b0
   16dbc:	00000000 	nop
   16dc0:	000411c0 	sll	v0,a0,0x7
   16dc4:	03e00008 	jr	ra
   16dc8:	24420240 	addiu	v0,v0,576
   16dcc:	3c040800 	lui	a0,0x800
   16dd0:	24843fd4 	addiu	a0,a0,16340
   16dd4:	2405001a 	li	a1,26
   16dd8:	0a00009c 	j	0x8000270
   16ddc:	00003021 	move	a2,zero
   16de0:	27bdffe0 	addiu	sp,sp,-32
   16de4:	afb00010 	sw	s0,16(sp)
   16de8:	3c108000 	lui	s0,0x8000
   16dec:	afbf0018 	sw	ra,24(sp)
   16df0:	afb10014 	sw	s1,20(sp)
   16df4:	36110100 	ori	s1,s0,0x100
   16df8:	92220009 	lbu	v0,9(s1)
   16dfc:	0e0005b6 	jal	0x80016d8
   16e00:	3044007f 	andi	a0,v0,0x7f
   16e04:	8e3f0000 	lw	ra,0(s1)
   16e08:	8f89003c 	lw	t1,60(gp)
   16e0c:	3c0f0080 	lui	t7,0x80
   16e10:	03e26021 	addu	t4,ra,v0
   16e14:	25880040 	addiu	t0,t4,64
   16e18:	0049f821 	addu	ra,v0,t1
   16e1c:	240dff80 	li	t5,-128
   16e20:	310e0078 	andi	t6,t0,0x78
   16e24:	31980078 	andi	t8,t4,0x78
   16e28:	35f90001 	ori	t9,t7,0x1
   16e2c:	35f10002 	ori	s1,t7,0x2
   16e30:	03193825 	or	a3,t8,t9
   16e34:	01d14825 	or	t1,t6,s1
   16e38:	010d3024 	and	a2,t0,t5
   16e3c:	03ed5824 	and	t3,ra,t5
   16e40:	018d2824 	and	a1,t4,t5
   16e44:	240a0040 	li	t2,64
   16e48:	24040080 	li	a0,128
   16e4c:	240300c0 	li	v1,192
   16e50:	ae0b0024 	sw	t3,36(s0)
   16e54:	ae000810 	sw	zero,2064(s0)
   16e58:	ae0a0814 	sw	t2,2068(s0)
   16e5c:	ae040818 	sw	a0,2072(s0)
   16e60:	ae03081c 	sw	v1,2076(s0)
   16e64:	ae050804 	sw	a1,2052(s0)
   16e68:	ae070820 	sw	a3,2080(s0)
   16e6c:	ae060808 	sw	a2,2056(s0)
   16e70:	ae090824 	sw	t1,2084(s0)
   16e74:	36090900 	ori	t1,s0,0x900
   16e78:	9539000c 	lhu	t9,12(t1)
   16e7c:	36050980 	ori	a1,s0,0x980
   16e80:	33ed007f 	andi	t5,ra,0x7f
   16e84:	3338ffff 	andi	t8,t9,0xffff
   16e88:	001889c0 	sll	s1,t8,0x7
   16e8c:	ae110800 	sw	s1,2048(s0)
   16e90:	ae0f0828 	sw	t7,2088(s0)
   16e94:	952c000c 	lhu	t4,12(t1)
   16e98:	8fbf0018 	lw	ra,24(sp)
   16e9c:	8fb10014 	lw	s1,20(sp)
   16ea0:	318bffff 	andi	t3,t4,0xffff
   16ea4:	000b51c0 	sll	t2,t3,0x7
   16ea8:	ae0a002c 	sw	t2,44(s0)
   16eac:	8ca40050 	lw	a0,80(a1)
   16eb0:	8fb00010 	lw	s0,16(sp)
   16eb4:	8ca3003c 	lw	v1,60(a1)
   16eb8:	8d270004 	lw	a3,4(t1)
   16ebc:	8ca8001c 	lw	t0,28(a1)
   16ec0:	8ca60038 	lw	a2,56(a1)
   16ec4:	3c0e800a 	lui	t6,0x800a
   16ec8:	01ae1021 	addu	v0,t5,t6
   16ecc:	27bd0020 	addiu	sp,sp,32
   16ed0:	af820044 	sw	v0,68(gp)
   16ed4:	af840050 	sw	a0,80(gp)
   16ed8:	af830054 	sw	v1,84(gp)
   16edc:	af87004c 	sw	a3,76(gp)
   16ee0:	af88005c 	sw	t0,92(gp)
   16ee4:	03e00008 	jr	ra
   16ee8:	af860060 	sw	a2,96(gp)
   16eec:	3c090800 	lui	t1,0x800
   16ef0:	91293ff9 	lbu	t1,16377(t1)
   16ef4:	24a80002 	addiu	t0,a1,2
   16ef8:	3c051100 	lui	a1,0x1100
   16efc:	00093c00 	sll	a3,t1,0x10
   16f00:	00e83025 	or	a2,a3,t0
   16f04:	00c51825 	or	v1,a2,a1
   16f08:	24820008 	addiu	v0,a0,8
   16f0c:	ac830000 	sw	v1,0(a0)
   16f10:	03e00008 	jr	ra
   16f14:	ac800004 	sw	zero,4(a0)
   16f18:	3c098000 	lui	t1,0x8000
   16f1c:	35230900 	ori	v1,t1,0x900
   16f20:	9128010b 	lbu	t0,267(t1)
   16f24:	906a0011 	lbu	t2,17(v1)
   16f28:	24020028 	li	v0,40
   16f2c:	00804821 	move	t1,a0
   16f30:	314700ff 	andi	a3,t2,0xff
   16f34:	00a07021 	move	t6,a1
   16f38:	00c06821 	move	t5,a2
   16f3c:	31080040 	andi	t0,t0,0x40
   16f40:	10e20002 	beq	a3,v0,0x16f4c
   16f44:	340c86dd 	li	t4,0x86dd
   16f48:	240c0800 	li	t4,2048
   16f4c:	3c0a8000 	lui	t2,0x8000
   16f50:	35420a9a 	ori	v0,t2,0xa9a
   16f54:	94470000 	lhu	a3,0(v0)
   16f58:	354b0a9c 	ori	t3,t2,0xa9c
   16f5c:	35460aa0 	ori	a2,t2,0xaa0
   16f60:	30f9ffff 	andi	t9,a3,0xffff
   16f64:	ad390000 	sw	t9,0(t1)
   16f68:	8d780000 	lw	t8,0(t3)
   16f6c:	354b0a80 	ori	t3,t2,0xa80
   16f70:	24040001 	li	a0,1
   16f74:	ad380004 	sw	t8,4(t1)
   16f78:	8ccf0000 	lw	t7,0(a2)
   16f7c:	ad2f0008 	sw	t7,8(t1)
   16f80:	91650019 	lbu	a1,25(t3)
   16f84:	30a30003 	andi	v1,a1,0x3
   16f88:	1064009a 	beq	v1,a0,0x171f4
   16f8c:	28640002 	slti	a0,v1,2
   16f90:	148000b9 	bnez	a0,0x17278
   16f94:	24050002 	li	a1,2
   16f98:	106500a8 	beq	v1,a1,0x1723c
   16f9c:	240f0003 	li	t7,3
   16fa0:	106f00be 	beq	v1,t7,0x1729c
   16fa4:	35450aa4 	ori	a1,t2,0xaa4
   16fa8:	240a0800 	li	t2,2048
   16fac:	118a004d 	beq	t4,t2,0x170e4
   16fb0:	00000000 	nop
   16fb4:	51000042 	beqzl	t0,0x170c0
   16fb8:	3c0b8000 	lui	t3,0x8000
   16fbc:	3c048000 	lui	a0,0x8000
   16fc0:	34830900 	ori	v1,a0,0x900
   16fc4:	90670012 	lbu	a3,18(v1)
   16fc8:	30e200ff 	andi	v0,a3,0xff
   16fcc:	004d7821 	addu	t7,v0,t5
   16fd0:	000fc880 	sll	t9,t7,0x2
   16fd4:	27240001 	addiu	a0,t9,1
   16fd8:	3c0a8000 	lui	t2,0x8000
   16fdc:	354f0900 	ori	t7,t2,0x900
   16fe0:	91e50019 	lbu	a1,25(t7)
   16fe4:	354c0980 	ori	t4,t2,0x980
   16fe8:	8d870028 	lw	a3,40(t4)
   16fec:	30a300ff 	andi	v1,a1,0xff
   16ff0:	00031500 	sll	v0,v1,0x14
   16ff4:	00475825 	or	t3,v0,a3
   16ff8:	0004c400 	sll	t8,a0,0x10
   16ffc:	3c196000 	lui	t9,0x6000
   17000:	01793025 	or	a2,t3,t9
   17004:	370806ff 	ori	t0,t8,0x6ff
   17008:	ad260000 	sw	a2,0(t1)
   1700c:	ad280004 	sw	t0,4(t1)
   17010:	8dea002c 	lw	t2,44(t7)
   17014:	25280028 	addiu	t0,t1,40
   17018:	ad2a0008 	sw	t2,8(t1)
   1701c:	8dec0030 	lw	t4,48(t7)
   17020:	ad2c000c 	sw	t4,12(t1)
   17024:	8de50034 	lw	a1,52(t7)
   17028:	ad250010 	sw	a1,16(t1)
   1702c:	8de40038 	lw	a0,56(t7)
   17030:	ad240014 	sw	a0,20(t1)
   17034:	8de3001c 	lw	v1,28(t7)
   17038:	ad230018 	sw	v1,24(t1)
   1703c:	8de70020 	lw	a3,32(t7)
   17040:	ad27001c 	sw	a3,28(t1)
   17044:	8de20024 	lw	v0,36(t7)
   17048:	ad220020 	sw	v0,32(t1)
   1704c:	8df90028 	lw	t9,40(t7)
   17050:	ad390024 	sw	t9,36(t1)
   17054:	3c098000 	lui	t1,0x8000
   17058:	3526093c 	ori	a2,t1,0x93c
   1705c:	8ccf0000 	lw	t7,0(a2)
   17060:	352a0100 	ori	t2,t1,0x100
   17064:	ad0e0004 	sw	t6,4(t0)
   17068:	ad0f0000 	sw	t7,0(t0)
   1706c:	8d4e000c 	lw	t6,12(t2)
   17070:	35230900 	ori	v1,t1,0x900
   17074:	35250980 	ori	a1,t1,0x980
   17078:	ad0e0008 	sw	t6,8(t0)
   1707c:	906c0012 	lbu	t4,18(v1)
   17080:	8d47000c 	lw	a3,12(t2)
   17084:	8cb90034 	lw	t9,52(a1)
   17088:	3c180800 	lui	t8,0x800
   1708c:	93183ff8 	lbu	t8,16376(t8)
   17090:	318200ff 	andi	v0,t4,0xff
   17094:	004d5821 	addu	t3,v0,t5
   17098:	03277823 	subu	t7,t9,a3
   1709c:	000b3700 	sll	a2,t3,0x1c
   170a0:	00182400 	sll	a0,t8,0x10
   170a4:	00c47025 	or	t6,a2,a0
   170a8:	31e9fffc 	andi	t1,t7,0xfffc
   170ac:	01c96825 	or	t5,t6,t1
   170b0:	25020014 	addiu	v0,t0,20
   170b4:	ad0d000c 	sw	t5,12(t0)
   170b8:	03e00008 	jr	ra
   170bc:	ad000010 	sw	zero,16(t0)
   170c0:	35780900 	ori	t8,t3,0x900
   170c4:	93060012 	lbu	a2,18(t8)
   170c8:	3c050800 	lui	a1,0x800
   170cc:	94a53fe8 	lhu	a1,16360(a1)
   170d0:	30c800ff 	andi	t0,a2,0xff
   170d4:	010d5021 	addu	t2,t0,t5
   170d8:	000a6080 	sll	t4,t2,0x2
   170dc:	0a00063c 	j	0x80018f0
   170e0:	01852021 	addu	a0,t4,a1
   170e4:	15000060 	bnez	t0,0x17268
   170e8:	00000000 	nop
   170ec:	3c080800 	lui	t0,0x800
   170f0:	95083fee 	lhu	t0,16366(t0)
   170f4:	3c060800 	lui	a2,0x800
   170f8:	94c63fe8 	lhu	a2,16360(a2)
   170fc:	01061021 	addu	v0,t0,a2
   17100:	3c0b8000 	lui	t3,0x8000
   17104:	35790900 	ori	t9,t3,0x900
   17108:	93380011 	lbu	t8,17(t9)
   1710c:	932a0019 	lbu	t2,25(t9)
   17110:	35660a80 	ori	a2,t3,0xa80
   17114:	330800ff 	andi	t0,t8,0xff
   17118:	94cf002a 	lhu	t7,42(a2)
   1711c:	00086082 	srl	t4,t0,0x2
   17120:	314500ff 	andi	a1,t2,0xff
   17124:	978a0058 	lhu	t2,88(gp)
   17128:	000c1e00 	sll	v1,t4,0x18
   1712c:	00052400 	sll	a0,a1,0x10
   17130:	3047ffff 	andi	a3,v0,0xffff
   17134:	00641025 	or	v0,v1,a0
   17138:	0047c025 	or	t8,v0,a3
   1713c:	01ea3021 	addu	a2,t7,t2
   17140:	3c0b4000 	lui	t3,0x4000
   17144:	030b4025 	or	t0,t8,t3
   17148:	00066400 	sll	t4,a2,0x10
   1714c:	ad280000 	sw	t0,0(t1)
   17150:	ad2c0004 	sw	t4,4(t1)
   17154:	93250018 	lbu	a1,24(t9)
   17158:	3c030006 	lui	v1,0x6
   1715c:	25280014 	addiu	t0,t1,20
   17160:	00053e00 	sll	a3,a1,0x18
   17164:	00e31025 	or	v0,a3,v1
   17168:	ad220008 	sw	v0,8(t1)
   1716c:	8f24002c 	lw	a0,44(t9)
   17170:	254f0001 	addiu	t7,t2,1
   17174:	31eb7fff 	andi	t3,t7,0x7fff
   17178:	ad24000c 	sw	a0,12(t1)
   1717c:	8f38001c 	lw	t8,28(t9)
   17180:	a78b0058 	sh	t3,88(gp)
   17184:	ad380010 	sw	t8,16(t1)
   17188:	3c098000 	lui	t1,0x8000
   1718c:	3526093c 	ori	a2,t1,0x93c
   17190:	8ccf0000 	lw	t7,0(a2)
   17194:	352a0100 	ori	t2,t1,0x100
   17198:	ad0e0004 	sw	t6,4(t0)
   1719c:	ad0f0000 	sw	t7,0(t0)
   171a0:	8d4e000c 	lw	t6,12(t2)
   171a4:	35230900 	ori	v1,t1,0x900
   171a8:	35250980 	ori	a1,t1,0x980
   171ac:	ad0e0008 	sw	t6,8(t0)
   171b0:	906c0012 	lbu	t4,18(v1)
   171b4:	8d47000c 	lw	a3,12(t2)
   171b8:	8cb90034 	lw	t9,52(a1)
   171bc:	3c180800 	lui	t8,0x800
   171c0:	93183ff8 	lbu	t8,16376(t8)
   171c4:	318200ff 	andi	v0,t4,0xff
   171c8:	004d5821 	addu	t3,v0,t5
   171cc:	03277823 	subu	t7,t9,a3
   171d0:	000b3700 	sll	a2,t3,0x1c
   171d4:	00182400 	sll	a0,t8,0x10
   171d8:	00c47025 	or	t6,a2,a0
   171dc:	31e9fffc 	andi	t1,t7,0xfffc
   171e0:	01c96825 	or	t5,t6,t1
   171e4:	25020014 	addiu	v0,t0,20
   171e8:	ad0d000c 	sw	t5,12(t0)
   171ec:	03e00008 	jr	ra
   171f0:	ad000010 	sw	zero,16(t0)
   171f4:	3c020800 	lui	v0,0x800
   171f8:	94423ff2 	lhu	v0,16370(v0)
   171fc:	3c050800 	lui	a1,0x800
   17200:	94a53fe8 	lhu	a1,16360(a1)
   17204:	35440aa4 	ori	a0,t2,0xaa4
   17208:	3c070800 	lui	a3,0x800
   1720c:	94e73fe4 	lhu	a3,16356(a3)
   17210:	948b0000 	lhu	t3,0(a0)
   17214:	0045c821 	addu	t9,v0,a1
   17218:	0327c023 	subu	t8,t9,a3
   1721c:	000b1c00 	sll	v1,t3,0x10
   17220:	2706fff2 	addiu	a2,t8,-14
   17224:	00665025 	or	t2,v1,a2
   17228:	ad2a000c 	sw	t2,12(t1)
   1722c:	ad200010 	sw	zero,16(t1)
   17230:	ad2c0014 	sw	t4,20(t1)
   17234:	0a000630 	j	0x80018c0
   17238:	25290018 	addiu	t1,t1,24
   1723c:	354f0aa4 	ori	t7,t2,0xaa4
   17240:	95e50000 	lhu	a1,0(t7)
   17244:	95640028 	lhu	a0,40(t3)
   17248:	00051400 	sll	v0,a1,0x10
   1724c:	00043c00 	sll	a3,a0,0x10
   17250:	34598100 	ori	t9,v0,0x8100
   17254:	00ec5825 	or	t3,a3,t4
   17258:	ad39000c 	sw	t9,12(t1)
   1725c:	ad2b0010 	sw	t3,16(t1)
   17260:	0a000630 	j	0x80018c0
   17264:	25290014 	addiu	t1,t1,20
   17268:	3c0c0800 	lui	t4,0x800
   1726c:	958c3fee 	lhu	t4,16366(t4)
   17270:	0a000686 	j	0x8001a18
   17274:	25820001 	addiu	v0,t4,1
   17278:	5460ff4c 	bnezl	v1,0x16fac
   1727c:	240a0800 	li	t2,2048
   17280:	35580aa4 	ori	t8,t2,0xaa4
   17284:	97060000 	lhu	a2,0(t8)
   17288:	00061c00 	sll	v1,a2,0x10
   1728c:	006c5025 	or	t2,v1,t4
   17290:	ad2a000c 	sw	t2,12(t1)
   17294:	0a000630 	j	0x80018c0
   17298:	25290010 	addiu	t1,t1,16
   1729c:	3c030800 	lui	v1,0x800
   172a0:	94633ff2 	lhu	v1,16370(v1)
   172a4:	3c070800 	lui	a3,0x800
   172a8:	94e73fe8 	lhu	a3,16360(a3)
   172ac:	3c0f0800 	lui	t7,0x800
   172b0:	95ef3fe4 	lhu	t7,16356(t7)
   172b4:	94a40000 	lhu	a0,0(a1)
   172b8:	95790028 	lhu	t9,40(t3)
   172bc:	00671021 	addu	v0,v1,a3
   172c0:	004f5823 	subu	t3,v0,t7
   172c4:	00041c00 	sll	v1,a0,0x10
   172c8:	00193400 	sll	a2,t9,0x10
   172cc:	2578ffee 	addiu	t8,t3,-18
   172d0:	00d87825 	or	t7,a2,t8
   172d4:	346a8100 	ori	t2,v1,0x8100
   172d8:	ad2a000c 	sw	t2,12(t1)
   172dc:	ad2f0010 	sw	t7,16(t1)
   172e0:	ad200014 	sw	zero,20(t1)
   172e4:	ad2c0018 	sw	t4,24(t1)
   172e8:	0a000630 	j	0x80018c0
   172ec:	2529001c 	addiu	t1,t1,28
   172f0:	03e00008 	jr	ra
   172f4:	240207d0 	li	v0,2000
   172f8:	27bdffe0 	addiu	sp,sp,-32
   172fc:	afb20018 	sw	s2,24(sp)
   17300:	afb10014 	sw	s1,20(sp)
   17304:	afb00010 	sw	s0,16(sp)
   17308:	afbf001c 	sw	ra,28(sp)
   1730c:	0e00007c 	jal	0x80001f0
   17310:	00808821 	move	s1,a0
   17314:	8f880054 	lw	t0,84(gp)
   17318:	8f87004c 	lw	a3,76(gp)
   1731c:	3c058008 	lui	a1,0x8008
   17320:	34b20080 	ori	s2,a1,0x80
   17324:	01112821 	addu	a1,t0,s1
   17328:	3c108000 	lui	s0,0x8000
   1732c:	24020080 	li	v0,128
   17330:	240300c0 	li	v1,192
   17334:	00a72023 	subu	a0,a1,a3
   17338:	ae020818 	sw	v0,2072(s0)
   1733c:	3c068008 	lui	a2,0x8008
   17340:	ae03081c 	sw	v1,2076(s0)
   17344:	18800004 	blez	a0,0x17358
   17348:	af850054 	sw	a1,84(gp)
   1734c:	acc50004 	sw	a1,4(a2)
   17350:	8cc90004 	lw	t1,4(a2)
   17354:	af89004c 	sw	t1,76(gp)
   17358:	12200009 	beqz	s1,0x17380
   1735c:	36040980 	ori	a0,s0,0x980
   17360:	0e000702 	jal	0x8001c08
   17364:	00000000 	nop
   17368:	924c0027 	lbu	t4,39(s2)
   1736c:	8e0b0074 	lw	t3,116(s0)
   17370:	01825004 	sllv	t2,v0,t4
   17374:	014b3021 	addu	a2,t2,t3
   17378:	ae46000c 	sw	a2,12(s2)
   1737c:	36040980 	ori	a0,s0,0x980
   17380:	8c8e001c 	lw	t6,28(a0)
   17384:	8f8f005c 	lw	t7,92(gp)
   17388:	01cf6823 	subu	t5,t6,t7
   1738c:	19a00004 	blez	t5,0x173a0
   17390:	8fbf001c 	lw	ra,28(sp)
   17394:	8c90001c 	lw	s0,28(a0)
   17398:	af90005c 	sw	s0,92(gp)
   1739c:	8fbf001c 	lw	ra,28(sp)
   173a0:	8fb20018 	lw	s2,24(sp)
   173a4:	8fb10014 	lw	s1,20(sp)
   173a8:	8fb00010 	lw	s0,16(sp)
   173ac:	0a00007e 	j	0x80001f8
   173b0:	27bd0020 	addiu	sp,sp,32
   173b4:	8f860050 	lw	a2,80(gp)
   173b8:	8f830054 	lw	v1,84(gp)
   173bc:	8f82004c 	lw	v0,76(gp)
   173c0:	3c058008 	lui	a1,0x8008
   173c4:	34a40080 	ori	a0,a1,0x80
   173c8:	ac860050 	sw	a2,80(a0)
   173cc:	ac83003c 	sw	v1,60(a0)
   173d0:	03e00008 	jr	ra
   173d4:	aca20004 	sw	v0,4(a1)
   173d8:	3c030800 	lui	v1,0x800
   173dc:	8c630054 	lw	v1,84(v1)
   173e0:	27bdfff8 	addiu	sp,sp,-8
   173e4:	308400ff 	andi	a0,a0,0xff
   173e8:	24620001 	addiu	v0,v1,1
   173ec:	30a500ff 	andi	a1,a1,0xff
   173f0:	3c010800 	lui	at,0x800
   173f4:	ac220054 	sw	v0,84(at)
   173f8:	30c600ff 	andi	a2,a2,0xff
   173fc:	3c078000 	lui	a3,0x8000
   17400:	8ce80178 	lw	t0,376(a3)
   17404:	0500fffe 	bltz	t0,0x17400
   17408:	3c0c7fff 	lui	t4,0x7fff
   1740c:	a3a40003 	sb	a0,3(sp)
   17410:	8faa0000 	lw	t2,0(sp)
   17414:	358bffff 	ori	t3,t4,0xffff
   17418:	014b4824 	and	t1,t2,t3
   1741c:	000627c0 	sll	a0,a2,0x1f
   17420:	01244025 	or	t0,t1,a0
   17424:	afa80000 	sw	t0,0(sp)
   17428:	34e20100 	ori	v0,a3,0x100
   1742c:	9043000a 	lbu	v1,10(v0)
   17430:	a3a00002 	sb	zero,2(sp)
   17434:	3c1980ff 	lui	t9,0x80ff
   17438:	a3a30001 	sb	v1,1(sp)
   1743c:	8faf0000 	lw	t7,0(sp)
   17440:	30ae007f 	andi	t6,a1,0x7f
   17444:	3738ffff 	ori	t8,t9,0xffff
   17448:	01f86024 	and	t4,t7,t8
   1744c:	000e6e00 	sll	t5,t6,0x18
   17450:	3c0a0020 	lui	t2,0x20
   17454:	34e50140 	ori	a1,a3,0x140
   17458:	018d5825 	or	t3,t4,t5
   1745c:	35492000 	ori	t1,t2,0x2000
   17460:	2406ff80 	li	a2,-128
   17464:	3c041000 	lui	a0,0x1000
   17468:	27bd0008 	addiu	sp,sp,8
   1746c:	acab000c 	sw	t3,12(a1)
   17470:	aca90014 	sw	t1,20(a1)
   17474:	a4a00018 	sh	zero,24(a1)
   17478:	a0a60012 	sb	a2,18(a1)
   1747c:	03e00008 	jr	ra
   17480:	ace40178 	sw	a0,376(a3)
   17484:	308800ff 	andi	t0,a0,0xff
   17488:	30a700ff 	andi	a3,a1,0xff
   1748c:	3c038000 	lui	v1,0x8000
   17490:	8c620178 	lw	v0,376(v1)
   17494:	0440fffe 	bltz	v0,0x17490
   17498:	3c0c8000 	lui	t4,0x8000
   1749c:	358a0a00 	ori	t2,t4,0xa00
   174a0:	8d4b0020 	lw	t3,32(t2)
   174a4:	35840140 	ori	a0,t4,0x140
   174a8:	35850980 	ori	a1,t4,0x980
   174ac:	ac8b0004 	sw	t3,4(a0)
   174b0:	8d490024 	lw	t1,36(t2)
   174b4:	0007302b 	sltu	a2,zero,a3
   174b8:	00061540 	sll	v0,a2,0x15
   174bc:	ac890008 	sw	t1,8(a0)
   174c0:	a0880010 	sb	t0,16(a0)
   174c4:	90a3004c 	lbu	v1,76(a1)
   174c8:	a083002d 	sb	v1,45(a0)
   174cc:	03e00008 	jr	ra
   174d0:	a4800018 	sh	zero,24(a0)
   174d4:	27bdffe8 	addiu	sp,sp,-24
   174d8:	308400ff 	andi	a0,a0,0xff
   174dc:	afbf0010 	sw	ra,16(sp)
   174e0:	0e000767 	jal	0x8001d9c
   174e4:	30a500ff 	andi	a1,a1,0xff
   174e8:	8f830054 	lw	v1,84(gp)
   174ec:	8fbf0010 	lw	ra,16(sp)
   174f0:	3c068000 	lui	a2,0x8000
   174f4:	34c50140 	ori	a1,a2,0x140
   174f8:	34470040 	ori	a3,v0,0x40
   174fc:	2404ff90 	li	a0,-112
   17500:	3c021000 	lui	v0,0x1000
   17504:	27bd0018 	addiu	sp,sp,24
   17508:	aca3000c 	sw	v1,12(a1)
   1750c:	a0a40012 	sb	a0,18(a1)
   17510:	aca70014 	sw	a3,20(a1)
   17514:	03e00008 	jr	ra
   17518:	acc20178 	sw	v0,376(a2)
   1751c:	27bdffe0 	addiu	sp,sp,-32
   17520:	3c088008 	lui	t0,0x8008
   17524:	afbf001c 	sw	ra,28(sp)
   17528:	afb20018 	sw	s2,24(sp)
   1752c:	afb10014 	sw	s1,20(sp)
   17530:	afb00010 	sw	s0,16(sp)
   17534:	35100080 	ori	s0,t0,0x80
   17538:	8e060018 	lw	a2,24(s0)
   1753c:	3c078000 	lui	a3,0x8000
   17540:	309200ff 	andi	s2,a0,0xff
   17544:	00c72025 	or	a0,a2,a3
   17548:	ae040018 	sw	a0,24(s0)
   1754c:	0e00007c 	jal	0x80001f0
   17550:	30b100ff 	andi	s1,a1,0xff
   17554:	92030005 	lbu	v1,5(s0)
   17558:	34620008 	ori	v0,v1,0x8
   1755c:	0e00007e 	jal	0x80001f8
   17560:	a2020005 	sb	v0,5(s0)
   17564:	02402021 	move	a0,s2
   17568:	0e00077b 	jal	0x8001dec
   1756c:	02202821 	move	a1,s1
   17570:	02402021 	move	a0,s2
   17574:	8fbf001c 	lw	ra,28(sp)
   17578:	8fb20018 	lw	s2,24(sp)
   1757c:	8fb10014 	lw	s1,20(sp)
   17580:	8fb00010 	lw	s0,16(sp)
   17584:	24050005 	li	a1,5
   17588:	24060001 	li	a2,1
   1758c:	0a00073c 	j	0x8001cf0
   17590:	27bd0020 	addiu	sp,sp,32
   17594:	3c058000 	lui	a1,0x8000
   17598:	34a30980 	ori	v1,a1,0x980
   1759c:	90660008 	lbu	a2,8(v1)
   175a0:	30c20008 	andi	v0,a2,0x8
   175a4:	1040000f 	beqz	v0,0x175e4
   175a8:	3c0a0101 	lui	t2,0x101
   175ac:	3549080a 	ori	t1,t2,0x80a
   175b0:	ac890000 	sw	t1,0(a0)
   175b4:	8ca80074 	lw	t0,116(a1)
   175b8:	ac880004 	sw	t0,4(a0)
   175bc:	3c070800 	lui	a3,0x800
   175c0:	90e73ff8 	lbu	a3,16376(a3)
   175c4:	30e50010 	andi	a1,a3,0x10
   175c8:	50a00008 	beqzl	a1,0x175ec
   175cc:	ac800008 	sw	zero,8(a0)
   175d0:	3c0d8008 	lui	t5,0x8008
   175d4:	35ac0080 	ori	t4,t5,0x80
   175d8:	8d8b0058 	lw	t3,88(t4)
   175dc:	ac8b0008 	sw	t3,8(a0)
   175e0:	2484000c 	addiu	a0,a0,12
   175e4:	03e00008 	jr	ra
   175e8:	00801021 	move	v0,a0
   175ec:	0a0007bf 	j	0x8001efc
   175f0:	2484000c 	addiu	a0,a0,12
   175f4:	27bdffe8 	addiu	sp,sp,-24
   175f8:	3c098000 	lui	t1,0x8000
   175fc:	afb00010 	sw	s0,16(sp)
   17600:	afbf0014 	sw	ra,20(sp)
   17604:	35260980 	ori	a2,t1,0x980
   17608:	90c80009 	lbu	t0,9(a2)
   1760c:	24020006 	li	v0,6
   17610:	00a05821 	move	t3,a1
   17614:	310300ff 	andi	v1,t0,0xff
   17618:	35270900 	ori	a3,t1,0x900
   1761c:	00808021 	move	s0,a0
   17620:	24050004 	li	a1,4
   17624:	1062007b 	beq	v1,v0,0x17814
   17628:	24080002 	li	t0,2
   1762c:	94cf005c 	lhu	t7,92(a2)
   17630:	3c0e0204 	lui	t6,0x204
   17634:	31edffff 	andi	t5,t7,0xffff
   17638:	01ae6025 	or	t4,t5,t6
   1763c:	ae0c0000 	sw	t4,0(s0)
   17640:	90ca0008 	lbu	t2,8(a2)
   17644:	31440020 	andi	a0,t2,0x20
   17648:	10800008 	beqz	a0,0x1766c
   1764c:	00000000 	nop
   17650:	90c2004e 	lbu	v0,78(a2)
   17654:	3c1f0103 	lui	ra,0x103
   17658:	37f90300 	ori	t9,ra,0x300
   1765c:	305800ff 	andi	t8,v0,0xff
   17660:	03193025 	or	a2,t8,t9
   17664:	24050008 	li	a1,8
   17668:	ae060004 	sw	a2,4(s0)
   1766c:	90f90011 	lbu	t9,17(a3)
   17670:	90e60012 	lbu	a2,18(a3)
   17674:	90e40011 	lbu	a0,17(a3)
   17678:	333800ff 	andi	t8,t9,0xff
   1767c:	00187082 	srl	t6,t8,0x2
   17680:	30cf00ff 	andi	t7,a2,0xff
   17684:	01cf5021 	addu	t2,t6,t7
   17688:	014b6821 	addu	t5,t2,t3
   1768c:	308900ff 	andi	t1,a0,0xff
   17690:	31aaffff 	andi	t2,t5,0xffff
   17694:	39230028 	xori	v1,t1,0x28
   17698:	000a6080 	sll	t4,t2,0x2
   1769c:	1460002c 	bnez	v1,0x17750
   176a0:	020c4823 	subu	t1,s0,t4
   176a4:	90e40012 	lbu	a0,18(a3)
   176a8:	3c198000 	lui	t9,0x8000
   176ac:	372f0100 	ori	t7,t9,0x100
   176b0:	308c00ff 	andi	t4,a0,0xff
   176b4:	018b1821 	addu	v1,t4,t3
   176b8:	00031080 	sll	v0,v1,0x2
   176bc:	0045f821 	addu	ra,v0,a1
   176c0:	001f8400 	sll	s0,ra,0x10
   176c4:	360706ff 	ori	a3,s0,0x6ff
   176c8:	ad270004 	sw	a3,4(t1)
   176cc:	373f0900 	ori	ra,t9,0x900
   176d0:	93ec0011 	lbu	t4,17(ra)
   176d4:	93ee0012 	lbu	t6,18(ra)
   176d8:	37260980 	ori	a2,t9,0x980
   176dc:	0005c082 	srl	t8,a1,0x2
   176e0:	8de4000c 	lw	a0,12(t7)
   176e4:	8cc50034 	lw	a1,52(a2)
   176e8:	31cd00ff 	andi	t5,t6,0xff
   176ec:	01ab1021 	addu	v0,t5,t3
   176f0:	00581821 	addu	v1,v0,t8
   176f4:	00a4f823 	subu	ra,a1,a0
   176f8:	00088400 	sll	s0,t0,0x10
   176fc:	00033f00 	sll	a3,v1,0x1c
   17700:	00f03025 	or	a2,a3,s0
   17704:	33f9ffff 	andi	t9,ra,0xffff
   17708:	318f00fc 	andi	t7,t4,0xfc
   1770c:	00d97025 	or	t6,a2,t9
   17710:	01582021 	addu	a0,t2,t8
   17714:	01e96821 	addu	t5,t7,t1
   17718:	00045080 	sll	t2,a0,0x2
   1771c:	adae000c 	sw	t6,12(t5)
   17720:	0e00007c 	jal	0x80001f0
   17724:	012a8021 	addu	s0,t1,t2
   17728:	3c088008 	lui	t0,0x8008
   1772c:	240b0004 	li	t3,4
   17730:	35050080 	ori	a1,t0,0x80
   17734:	0e00007e 	jal	0x80001f8
   17738:	a0ab0009 	sb	t3,9(a1)
   1773c:	02001021 	move	v0,s0
   17740:	8fbf0014 	lw	ra,20(sp)
   17744:	8fb00010 	lw	s0,16(sp)
   17748:	03e00008 	jr	ra
   1774c:	27bd0018 	addiu	sp,sp,24
   17750:	90ec0011 	lbu	t4,17(a3)
   17754:	90e30019 	lbu	v1,25(a3)
   17758:	3c180800 	lui	t8,0x800
   1775c:	97183fee 	lhu	t8,16366(t8)
   17760:	318200ff 	andi	v0,t4,0xff
   17764:	0002f882 	srl	ra,v0,0x2
   17768:	307000ff 	andi	s0,v1,0xff
   1776c:	001fce00 	sll	t9,ra,0x18
   17770:	00103c00 	sll	a3,s0,0x10
   17774:	03273025 	or	a2,t9,a3
   17778:	00d87025 	or	t6,a2,t8
   1777c:	3c0f4000 	lui	t7,0x4000
   17780:	01cf6825 	or	t5,t6,t7
   17784:	3c198000 	lui	t9,0x8000
   17788:	ad2d0000 	sw	t5,0(t1)
   1778c:	373f0900 	ori	ra,t9,0x900
   17790:	93ec0011 	lbu	t4,17(ra)
   17794:	93ee0012 	lbu	t6,18(ra)
   17798:	372f0100 	ori	t7,t9,0x100
   1779c:	37260980 	ori	a2,t9,0x980
   177a0:	0005c082 	srl	t8,a1,0x2
   177a4:	8de4000c 	lw	a0,12(t7)
   177a8:	8cc50034 	lw	a1,52(a2)
   177ac:	31cd00ff 	andi	t5,t6,0xff
   177b0:	01ab1021 	addu	v0,t5,t3
   177b4:	00581821 	addu	v1,v0,t8
   177b8:	00a4f823 	subu	ra,a1,a0
   177bc:	00088400 	sll	s0,t0,0x10
   177c0:	00033f00 	sll	a3,v1,0x1c
   177c4:	00f03025 	or	a2,a3,s0
   177c8:	33f9ffff 	andi	t9,ra,0xffff
   177cc:	318f00fc 	andi	t7,t4,0xfc
   177d0:	00d97025 	or	t6,a2,t9
   177d4:	01582021 	addu	a0,t2,t8
   177d8:	01e96821 	addu	t5,t7,t1
   177dc:	00045080 	sll	t2,a0,0x2
   177e0:	adae000c 	sw	t6,12(t5)
   177e4:	0e00007c 	jal	0x80001f0
   177e8:	012a8021 	addu	s0,t1,t2
   177ec:	3c088008 	lui	t0,0x8008
   177f0:	240b0004 	li	t3,4
   177f4:	35050080 	ori	a1,t0,0x80
   177f8:	0e00007e 	jal	0x80001f8
   177fc:	a0ab0009 	sb	t3,9(a1)
   17800:	02001021 	move	v0,s0
   17804:	8fbf0014 	lw	ra,20(sp)
   17808:	8fb00010 	lw	s0,16(sp)
   1780c:	03e00008 	jr	ra
   17810:	27bd0018 	addiu	sp,sp,24
   17814:	0a0007d1 	j	0x8001f44
   17818:	24080012 	li	t0,18
   1781c:	27bdffd0 	addiu	sp,sp,-48
   17820:	3c038000 	lui	v1,0x8000
   17824:	afb60028 	sw	s6,40(sp)
   17828:	afb50024 	sw	s5,36(sp)
   1782c:	afb40020 	sw	s4,32(sp)
   17830:	afb10014 	sw	s1,20(sp)
   17834:	afbf002c 	sw	ra,44(sp)
   17838:	afb3001c 	sw	s3,28(sp)
   1783c:	afb20018 	sw	s2,24(sp)
   17840:	afb00010 	sw	s0,16(sp)
   17844:	34670100 	ori	a3,v1,0x100
   17848:	90e6000b 	lbu	a2,11(a3)
   1784c:	309400ff 	andi	s4,a0,0xff
   17850:	30b500ff 	andi	s5,a1,0xff
   17854:	30c20030 	andi	v0,a2,0x30
   17858:	0000b021 	move	s6,zero
   1785c:	10400099 	beqz	v0,0x17ac4
   17860:	00008821 	move	s1,zero
   17864:	34640980 	ori	a0,v1,0x980
   17868:	90880008 	lbu	t0,8(a0)
   1786c:	00082e00 	sll	a1,t0,0x18
   17870:	00051e03 	sra	v1,a1,0x18
   17874:	046000c0 	bltz	v1,0x17b78
   17878:	24040004 	li	a0,4
   1787c:	8f860054 	lw	a2,84(gp)
   17880:	3c010800 	lui	at,0x800
   17884:	a0243ff8 	sb	a0,16376(at)
   17888:	3c0c8000 	lui	t4,0x8000
   1788c:	ad800048 	sw	zero,72(t4)
   17890:	3c048000 	lui	a0,0x8000
   17894:	348e0100 	ori	t6,a0,0x100
   17898:	91cd000b 	lbu	t5,11(t6)
   1789c:	31a50020 	andi	a1,t5,0x20
   178a0:	10a00007 	beqz	a1,0x178c0
   178a4:	3c078000 	lui	a3,0x8000
   178a8:	34930980 	ori	s3,a0,0x980
   178ac:	92720008 	lbu	s2,8(s3)
   178b0:	00128600 	sll	s0,s2,0x18
   178b4:	00107e03 	sra	t7,s0,0x18
   178b8:	05e000c4 	bltz	t7,0x17bcc
   178bc:	3c1f8008 	lui	ra,0x8008
   178c0:	34ec0100 	ori	t4,a3,0x100
   178c4:	918a000b 	lbu	t2,11(t4)
   178c8:	34eb0980 	ori	t3,a3,0x980
   178cc:	91690008 	lbu	t1,8(t3)
   178d0:	31440040 	andi	a0,t2,0x40
   178d4:	0004402b 	sltu	t0,zero,a0
   178d8:	31230008 	andi	v1,t1,0x8
   178dc:	00c89823 	subu	s3,a2,t0
   178e0:	14600002 	bnez	v1,0x178ec
   178e4:	24120003 	li	s2,3
   178e8:	00009021 	move	s2,zero
   178ec:	3c108000 	lui	s0,0x8000
   178f0:	36180a80 	ori	t8,s0,0xa80
   178f4:	36040900 	ori	a0,s0,0x900
   178f8:	970e002c 	lhu	t6,44(t8)
   178fc:	90830011 	lbu	v1,17(a0)
   17900:	90890012 	lbu	t1,18(a0)
   17904:	93050018 	lbu	a1,24(t8)
   17908:	307f00ff 	andi	ra,v1,0xff
   1790c:	312800ff 	andi	t0,t1,0xff
   17910:	02481021 	addu	v0,s2,t0
   17914:	0002c880 	sll	t9,v0,0x2
   17918:	930d0018 	lbu	t5,24(t8)
   1791c:	033f7821 	addu	t7,t9,ra
   17920:	01f13021 	addu	a2,t7,s1
   17924:	30b100ff 	andi	s1,a1,0xff
   17928:	00d11821 	addu	v1,a2,s1
   1792c:	a78e0058 	sh	t6,88(gp)
   17930:	3c010800 	lui	at,0x800
   17934:	a4263fee 	sh	a2,16366(at)
   17938:	3c010800 	lui	at,0x800
   1793c:	a4233ff0 	sh	v1,16368(at)
   17940:	15a00002 	bnez	t5,0x1794c
   17944:	00000000 	nop
   17948:	0000000d 	break
   1794c:	920b010b 	lbu	t3,267(s0)
   17950:	3065ffff 	andi	a1,v1,0xffff
   17954:	3c010800 	lui	at,0x800
   17958:	a4233ff2 	sh	v1,16370(at)
   1795c:	316a0040 	andi	t2,t3,0x40
   17960:	3c010800 	lui	at,0x800
   17964:	a4203fe8 	sh	zero,16360(at)
   17968:	3c010800 	lui	at,0x800
   1796c:	a4203fe4 	sh	zero,16356(at)
   17970:	11400002 	beqz	t2,0x1797c
   17974:	24a4000a 	addiu	a0,a1,10
   17978:	24a4000b 	addiu	a0,a1,11
   1797c:	3091ffff 	andi	s1,a0,0xffff
   17980:	0e0001e7 	jal	0x800079c
   17984:	02202021 	move	a0,s1
   17988:	9206010b 	lbu	a2,267(s0)
   1798c:	3c0c0800 	lui	t4,0x800
   17990:	958c3ff2 	lhu	t4,16370(t4)
   17994:	00402021 	move	a0,v0
   17998:	00066982 	srl	t5,a2,0x6
   1799c:	31a70001 	andi	a3,t5,0x1
   179a0:	0e000601 	jal	0x8001804
   179a4:	01872821 	addu	a1,t4,a3
   179a8:	00402021 	move	a0,v0
   179ac:	02602821 	move	a1,s3
   179b0:	0e00060c 	jal	0x8001830
   179b4:	02403021 	move	a2,s2
   179b8:	0e0007ab 	jal	0x8001eac
   179bc:	00402021 	move	a0,v0
   179c0:	16c00069 	bnez	s6,0x17b68
   179c4:	00402021 	move	a0,v0
   179c8:	9212010b 	lbu	s2,267(s0)
   179cc:	32560040 	andi	s6,s2,0x40
   179d0:	12c00005 	beqz	s6,0x179e8
   179d4:	3c0500ff 	lui	a1,0xff
   179d8:	8c930000 	lw	s3,0(a0)
   179dc:	34aeffff 	ori	t6,a1,0xffff
   179e0:	026e8024 	and	s0,s3,t6
   179e4:	ac900000 	sw	s0,0(a0)
   179e8:	0e0001fb 	jal	0x80007ec
   179ec:	02202021 	move	a0,s1
   179f0:	3c0f0800 	lui	t7,0x800
   179f4:	91ef3ff8 	lbu	t7,16376(t7)
   179f8:	31f10003 	andi	s1,t7,0x3
   179fc:	12200016 	beqz	s1,0x17a58
   17a00:	3c138008 	lui	s3,0x8008
   17a04:	8f820054 	lw	v0,84(gp)
   17a08:	3c098008 	lui	t1,0x8008
   17a0c:	35280080 	ori	t0,t1,0x80
   17a10:	245f0001 	addiu	ra,v0,1
   17a14:	ad1f003c 	sw	ra,60(t0)
   17a18:	3c058008 	lui	a1,0x8008
   17a1c:	8cb90004 	lw	t9,4(a1)
   17a20:	03e02021 	move	a0,ra
   17a24:	033fc023 	subu	t8,t9,ra
   17a28:	1b000002 	blez	t8,0x17a34
   17a2c:	af9f0054 	sw	ra,84(gp)
   17a30:	8ca40004 	lw	a0,4(a1)
   17a34:	0e000702 	jal	0x8001c08
   17a38:	aca40004 	sw	a0,4(a1)
   17a3c:	3c078000 	lui	a3,0x8000
   17a40:	8ceb0074 	lw	t3,116(a3)
   17a44:	3c048008 	lui	a0,0x8008
   17a48:	34830080 	ori	v1,a0,0x80
   17a4c:	004b5021 	addu	t2,v0,t3
   17a50:	ac6a000c 	sw	t2,12(v1)
   17a54:	3c138008 	lui	s3,0x8008
   17a58:	36700080 	ori	s0,s3,0x80
   17a5c:	02802021 	move	a0,s4
   17a60:	02a02821 	move	a1,s5
   17a64:	a200006b 	sb	zero,107(s0)
   17a68:	0e000767 	jal	0x8001d9c
   17a6c:	3c148000 	lui	s4,0x8000
   17a70:	8f920054 	lw	s2,84(gp)
   17a74:	368c0140 	ori	t4,s4,0x140
   17a78:	ad92000c 	sw	s2,12(t4)
   17a7c:	8f860048 	lw	a2,72(gp)
   17a80:	3c151000 	lui	s5,0x1000
   17a84:	344d0006 	ori	t5,v0,0x6
   17a88:	24d60001 	addiu	s6,a2,1
   17a8c:	af960048 	sw	s6,72(gp)
   17a90:	8fbf002c 	lw	ra,44(sp)
   17a94:	a1860012 	sb	a2,18(t4)
   17a98:	8fb60028 	lw	s6,40(sp)
   17a9c:	ad8d0014 	sw	t5,20(t4)
   17aa0:	8fb3001c 	lw	s3,28(sp)
   17aa4:	ae950178 	sw	s5,376(s4)
   17aa8:	8fb20018 	lw	s2,24(sp)
   17aac:	8fb50024 	lw	s5,36(sp)
   17ab0:	8fb40020 	lw	s4,32(sp)
   17ab4:	8fb10014 	lw	s1,20(sp)
   17ab8:	8fb00010 	lw	s0,16(sp)
   17abc:	03e00008 	jr	ra
   17ac0:	27bd0030 	addiu	sp,sp,48
   17ac4:	34640980 	ori	a0,v1,0x980
   17ac8:	908f0008 	lbu	t7,8(a0)
   17acc:	000f7600 	sll	t6,t7,0x18
   17ad0:	000e6e03 	sra	t5,t6,0x18
   17ad4:	05a00033 	bltz	t5,0x17ba4
   17ad8:	347f0900 	ori	ra,v1,0x900
   17adc:	93f8001b 	lbu	t8,27(ra)
   17ae0:	24190010 	li	t9,16
   17ae4:	3c010800 	lui	at,0x800
   17ae8:	a0393ff8 	sb	t9,16376(at)
   17aec:	33130002 	andi	s3,t8,0x2
   17af0:	1260ff67 	beqz	s3,0x17890
   17af4:	8f860054 	lw	a2,84(gp)
   17af8:	8f820060 	lw	v0,96(gp)
   17afc:	1446ff65 	bne	v0,a2,0x17894
   17b00:	3c048000 	lui	a0,0x8000
   17b04:	0e00007c 	jal	0x80001f0
   17b08:	00000000 	nop
   17b0c:	3c048008 	lui	a0,0x8008
   17b10:	34850080 	ori	a1,a0,0x80
   17b14:	90a80009 	lbu	t0,9(a1)
   17b18:	24060016 	li	a2,22
   17b1c:	310300ff 	andi	v1,t0,0xff
   17b20:	1066000d 	beq	v1,a2,0x17b58
   17b24:	00000000 	nop
   17b28:	90ab0009 	lbu	t3,9(a1)
   17b2c:	3c070800 	lui	a3,0x800
   17b30:	90e73ff8 	lbu	a3,16376(a3)
   17b34:	24090008 	li	t1,8
   17b38:	316400ff 	andi	a0,t3,0xff
   17b3c:	34ea0001 	ori	t2,a3,0x1
   17b40:	3c010800 	lui	at,0x800
   17b44:	a02a3ff8 	sb	t2,16376(at)
   17b48:	1089002f 	beq	a0,t1,0x17c08
   17b4c:	240c000a 	li	t4,10
   17b50:	108c0028 	beq	a0,t4,0x17bf4
   17b54:	2402000c 	li	v0,12
   17b58:	0e00007e 	jal	0x80001f8
   17b5c:	00000000 	nop
   17b60:	0a00086a 	j	0x80021a8
   17b64:	8f860054 	lw	a2,84(gp)
   17b68:	0e0007c3 	jal	0x8001f0c
   17b6c:	02402821 	move	a1,s2
   17b70:	0a0008b8 	j	0x80022e0
   17b74:	00402021 	move	a0,v0
   17b78:	3c0b8008 	lui	t3,0x8008
   17b7c:	356a0080 	ori	t2,t3,0x80
   17b80:	8d460054 	lw	a2,84(t2)
   17b84:	8ce9000c 	lw	t1,12(a3)
   17b88:	1120ff3d 	beqz	t1,0x17880
   17b8c:	af860054 	sw	a2,84(gp)
   17b90:	24070014 	li	a3,20
   17b94:	3c010800 	lui	at,0x800
   17b98:	a0273ff8 	sb	a3,16376(at)
   17b9c:	0a000869 	j	0x80021a4
   17ba0:	3c0c8000 	lui	t4,0x8000
   17ba4:	90910008 	lbu	s1,8(a0)
   17ba8:	24120002 	li	s2,2
   17bac:	3c010800 	lui	at,0x800
   17bb0:	a0323ff8 	sb	s2,16376(at)
   17bb4:	32300020 	andi	s0,s1,0x20
   17bb8:	1200000b 	beqz	s0,0x17be8
   17bbc:	24160001 	li	s6,1
   17bc0:	8f860054 	lw	a2,84(gp)
   17bc4:	0a00086a 	j	0x80021a8
   17bc8:	24110008 	li	s1,8
   17bcc:	37f80080 	ori	t8,ra,0x80
   17bd0:	8f020038 	lw	v0,56(t8)
   17bd4:	afe20004 	sw	v0,4(ra)
   17bd8:	8ff90004 	lw	t9,4(ra)
   17bdc:	af19003c 	sw	t9,60(t8)
   17be0:	0a000876 	j	0x80021d8
   17be4:	3c078000 	lui	a3,0x8000
   17be8:	8f860054 	lw	a2,84(gp)
   17bec:	0a00086a 	j	0x80021a8
   17bf0:	24110004 	li	s1,4
   17bf4:	a0a20009 	sb	v0,9(a1)
   17bf8:	0e00007e 	jal	0x80001f8
   17bfc:	00000000 	nop
   17c00:	0a00086a 	j	0x80021a8
   17c04:	8f860054 	lw	a2,84(gp)
   17c08:	24020014 	li	v0,20
   17c0c:	0a000944 	j	0x8002510
   17c10:	a0a20009 	sb	v0,9(a1)
   17c14:	27bdffe8 	addiu	sp,sp,-24
   17c18:	afb00010 	sw	s0,16(sp)
   17c1c:	3c108000 	lui	s0,0x8000
   17c20:	afbf0014 	sw	ra,20(sp)
   17c24:	36020100 	ori	v0,s0,0x100
   17c28:	90440009 	lbu	a0,9(v0)
   17c2c:	0e000767 	jal	0x8001d9c
   17c30:	24050001 	li	a1,1
   17c34:	3c048008 	lui	a0,0x8008
   17c38:	9099000e 	lbu	t9,14(a0)
   17c3c:	34830080 	ori	v1,a0,0x80
   17c40:	909f000f 	lbu	ra,15(a0)
   17c44:	906f0026 	lbu	t7,38(v1)
   17c48:	9089000a 	lbu	t1,10(a0)
   17c4c:	33f800ff 	andi	t8,ra,0xff
   17c50:	00196e00 	sll	t5,t9,0x18
   17c54:	00187400 	sll	t6,t8,0x10
   17c58:	31ec00ff 	andi	t4,t7,0xff
   17c5c:	01ae5025 	or	t2,t5,t6
   17c60:	000c5a00 	sll	t3,t4,0x8
   17c64:	014b3825 	or	a3,t2,t3
   17c68:	312800ff 	andi	t0,t1,0xff
   17c6c:	36030140 	ori	v1,s0,0x140
   17c70:	34456000 	ori	a1,v0,0x6000
   17c74:	00e83025 	or	a2,a3,t0
   17c78:	2402ff81 	li	v0,-127
   17c7c:	3c041000 	lui	a0,0x1000
   17c80:	ac66000c 	sw	a2,12(v1)
   17c84:	8fbf0014 	lw	ra,20(sp)
   17c88:	ac650014 	sw	a1,20(v1)
   17c8c:	a0620012 	sb	v0,18(v1)
   17c90:	ae040178 	sw	a0,376(s0)
   17c94:	8fb00010 	lw	s0,16(sp)
   17c98:	03e00008 	jr	ra
   17c9c:	27bd0018 	addiu	sp,sp,24
   17ca0:	27bdffe8 	addiu	sp,sp,-24
   17ca4:	308400ff 	andi	a0,a0,0xff
   17ca8:	afbf0010 	sw	ra,16(sp)
   17cac:	0e000767 	jal	0x8001d9c
   17cb0:	30a500ff 	andi	a1,a1,0xff
   17cb4:	3c058000 	lui	a1,0x8000
   17cb8:	34a40140 	ori	a0,a1,0x140
   17cbc:	34470040 	ori	a3,v0,0x40
   17cc0:	2406ff92 	li	a2,-110
   17cc4:	ac870014 	sw	a3,20(a0)
   17cc8:	a0860012 	sb	a2,18(a0)
   17ccc:	8f830054 	lw	v1,84(gp)
   17cd0:	8fbf0010 	lw	ra,16(sp)
   17cd4:	3c021000 	lui	v0,0x1000
   17cd8:	27bd0018 	addiu	sp,sp,24
   17cdc:	ac83000c 	sw	v1,12(a0)
   17ce0:	03e00008 	jr	ra
   17ce4:	aca20178 	sw	v0,376(a1)
   17ce8:	27bdffd8 	addiu	sp,sp,-40
   17cec:	afb00010 	sw	s0,16(sp)
   17cf0:	308400ff 	andi	a0,a0,0xff
   17cf4:	30b000ff 	andi	s0,a1,0xff
   17cf8:	3c058000 	lui	a1,0x8000
   17cfc:	afb10014 	sw	s1,20(sp)
   17d00:	afbf0020 	sw	ra,32(sp)
   17d04:	afb3001c 	sw	s3,28(sp)
   17d08:	afb20018 	sw	s2,24(sp)
   17d0c:	000410c2 	srl	v0,a0,0x3
   17d10:	34a60100 	ori	a2,a1,0x100
   17d14:	32030002 	andi	v1,s0,0x2
   17d18:	30510001 	andi	s1,v0,0x1
   17d1c:	14600007 	bnez	v1,0x17d3c
   17d20:	90d20009 	lbu	s2,9(a2)
   17d24:	3c098008 	lui	t1,0x8008
   17d28:	35330080 	ori	s3,t1,0x80
   17d2c:	92680005 	lbu	t0,5(s3)
   17d30:	31070008 	andi	a3,t0,0x8
   17d34:	10e0000c 	beqz	a3,0x17d68
   17d38:	308a0010 	andi	t2,a0,0x10
   17d3c:	02402021 	move	a0,s2
   17d40:	0e00078d 	jal	0x8001e34
   17d44:	02202821 	move	a1,s1
   17d48:	24020001 	li	v0,1
   17d4c:	8fbf0020 	lw	ra,32(sp)
   17d50:	8fb3001c 	lw	s3,28(sp)
   17d54:	8fb20018 	lw	s2,24(sp)
   17d58:	8fb10014 	lw	s1,20(sp)
   17d5c:	8fb00010 	lw	s0,16(sp)
   17d60:	03e00008 	jr	ra
   17d64:	27bd0028 	addiu	sp,sp,40
   17d68:	15400034 	bnez	t2,0x17e3c
   17d6c:	34a50a00 	ori	a1,a1,0xa00
   17d70:	8cb80024 	lw	t8,36(a1)
   17d74:	8caf0008 	lw	t7,8(a1)
   17d78:	130f004b 	beq	t8,t7,0x17ea8
   17d7c:	00003821 	move	a3,zero
   17d80:	3c0d8008 	lui	t5,0x8008
   17d84:	35b30080 	ori	s3,t5,0x80
   17d88:	926c0068 	lbu	t4,104(s3)
   17d8c:	24060002 	li	a2,2
   17d90:	318b00ff 	andi	t3,t4,0xff
   17d94:	11660084 	beq	t3,a2,0x17fa8
   17d98:	3c068000 	lui	a2,0x8000
   17d9c:	34c20100 	ori	v0,a2,0x100
   17da0:	9263004c 	lbu	v1,76(s3)
   17da4:	90590009 	lbu	t9,9(v0)
   17da8:	307f00ff 	andi	ra,v1,0xff
   17dac:	53f90004 	beql	ra,t9,0x17dc0
   17db0:	3213007c 	andi	s3,s0,0x7c
   17db4:	10e00069 	beqz	a3,0x17f5c
   17db8:	00000000 	nop
   17dbc:	3213007c 	andi	s3,s0,0x7c
   17dc0:	5660005c 	bnezl	s3,0x17f34
   17dc4:	02402021 	move	a0,s2
   17dc8:	16200009 	bnez	s1,0x17df0
   17dcc:	320d0001 	andi	t5,s0,0x1
   17dd0:	3c0c8000 	lui	t4,0x8000
   17dd4:	35840100 	ori	a0,t4,0x100
   17dd8:	358b0a00 	ori	t3,t4,0xa00
   17ddc:	8d650024 	lw	a1,36(t3)
   17de0:	8c860004 	lw	a2,4(a0)
   17de4:	14a6ffd9 	bne	a1,a2,0x17d4c
   17de8:	00001021 	move	v0,zero
   17dec:	320d0001 	andi	t5,s0,0x1
   17df0:	11a0000e 	beqz	t5,0x17e2c
   17df4:	02402021 	move	a0,s2
   17df8:	3c188000 	lui	t8,0x8000
   17dfc:	37100100 	ori	s0,t8,0x100
   17e00:	8e0f000c 	lw	t7,12(s0)
   17e04:	8f8e0050 	lw	t6,80(gp)
   17e08:	11ee0008 	beq	t7,t6,0x17e2c
   17e0c:	00000000 	nop
   17e10:	0e00084d 	jal	0x8002134
   17e14:	02202821 	move	a1,s1
   17e18:	8e19000c 	lw	t9,12(s0)
   17e1c:	3c1f8008 	lui	ra,0x8008
   17e20:	37f00080 	ori	s0,ra,0x80
   17e24:	ae190050 	sw	t9,80(s0)
   17e28:	02402021 	move	a0,s2
   17e2c:	0e00077b 	jal	0x8001dec
   17e30:	02202821 	move	a1,s1
   17e34:	0a000999 	j	0x8002664
   17e38:	24020001 	li	v0,1
   17e3c:	3c050800 	lui	a1,0x800
   17e40:	8ca50064 	lw	a1,100(a1)
   17e44:	24a40001 	addiu	a0,a1,1
   17e48:	3c010800 	lui	at,0x800
   17e4c:	ac240064 	sw	a0,100(at)
   17e50:	1600000d 	bnez	s0,0x17e88
   17e54:	00000000 	nop
   17e58:	02202821 	move	a1,s1
   17e5c:	0e00077b 	jal	0x8001dec
   17e60:	02402021 	move	a0,s2
   17e64:	926e0068 	lbu	t6,104(s3)
   17e68:	240c0002 	li	t4,2
   17e6c:	31cd00ff 	andi	t5,t6,0xff
   17e70:	11ac0022 	beq	t5,t4,0x17efc
   17e74:	02402021 	move	a0,s2
   17e78:	0e00094b 	jal	0x800252c
   17e7c:	00000000 	nop
   17e80:	0a000999 	j	0x8002664
   17e84:	24020001 	li	v0,1
   17e88:	0e000070 	jal	0x80001c0
   17e8c:	24040001 	li	a0,1
   17e90:	926b0025 	lbu	t3,37(s3)
   17e94:	020b3025 	or	a2,s0,t3
   17e98:	0e00007e 	jal	0x80001f8
   17e9c:	a2660025 	sb	a2,37(s3)
   17ea0:	0a0009dd 	j	0x8002774
   17ea4:	02202821 	move	a1,s1
   17ea8:	8e620018 	lw	v0,24(s3)
   17eac:	8cdf0004 	lw	ra,4(a2)
   17eb0:	8cb90024 	lw	t9,36(a1)
   17eb4:	00021e02 	srl	v1,v0,0x18
   17eb8:	17f9ffb1 	bne	ra,t9,0x17d80
   17ebc:	3065007f 	andi	a1,v1,0x7f
   17ec0:	9268004c 	lbu	t0,76(s3)
   17ec4:	26440001 	addiu	a0,s2,1
   17ec8:	3093007f 	andi	s3,a0,0x7f
   17ecc:	12650040 	beq	s3,a1,0x17fd0
   17ed0:	310300ff 	andi	v1,t0,0xff
   17ed4:	1464ffab 	bne	v1,a0,0x17d84
   17ed8:	3c0d8008 	lui	t5,0x8008
   17edc:	26470001 	addiu	a3,s2,1
   17ee0:	30f1007f 	andi	s1,a3,0x7f
   17ee4:	30e200ff 	andi	v0,a3,0xff
   17ee8:	1225000b 	beq	s1,a1,0x17f18
   17eec:	24070001 	li	a3,1
   17ef0:	00409021 	move	s2,v0
   17ef4:	0a0009a6 	j	0x8002698
   17ef8:	24110001 	li	s1,1
   17efc:	24050004 	li	a1,4
   17f00:	0e00073c 	jal	0x8001cf0
   17f04:	24060001 	li	a2,1
   17f08:	0e00094b 	jal	0x800252c
   17f0c:	00000000 	nop
   17f10:	0a000999 	j	0x8002664
   17f14:	24020001 	li	v0,1
   17f18:	2405ff80 	li	a1,-128
   17f1c:	02452024 	and	a0,s2,a1
   17f20:	00859026 	xor	s2,a0,a1
   17f24:	324200ff 	andi	v0,s2,0xff
   17f28:	00409021 	move	s2,v0
   17f2c:	0a0009a6 	j	0x8002698
   17f30:	24110001 	li	s1,1
   17f34:	0e00084d 	jal	0x8002134
   17f38:	02202821 	move	a1,s1
   17f3c:	32070030 	andi	a3,s0,0x30
   17f40:	10e0ffa1 	beqz	a3,0x17dc8
   17f44:	32100082 	andi	s0,s0,0x82
   17f48:	02402021 	move	a0,s2
   17f4c:	0e00078d 	jal	0x8001e34
   17f50:	02202821 	move	a1,s1
   17f54:	0a000999 	j	0x8002664
   17f58:	24020001 	li	v0,1
   17f5c:	8e690018 	lw	t1,24(s3)
   17f60:	02402021 	move	a0,s2
   17f64:	02202821 	move	a1,s1
   17f68:	01264025 	or	t0,t1,a2
   17f6c:	0e00096e 	jal	0x80025b8
   17f70:	ae680018 	sw	t0,24(s3)
   17f74:	9264004c 	lbu	a0,76(s3)
   17f78:	24050003 	li	a1,3
   17f7c:	24060001 	li	a2,1
   17f80:	0e00073c 	jal	0x8001cf0
   17f84:	308400ff 	andi	a0,a0,0xff
   17f88:	0e000070 	jal	0x80001c0
   17f8c:	24040001 	li	a0,1
   17f90:	92710025 	lbu	s1,37(s3)
   17f94:	02115025 	or	t2,s0,s1
   17f98:	0e00007e 	jal	0x80001f8
   17f9c:	a26a0025 	sb	t2,37(s3)
   17fa0:	0a000999 	j	0x8002664
   17fa4:	24020001 	li	v0,1
   17fa8:	8e6f0018 	lw	t7,24(s3)
   17fac:	3c188000 	lui	t8,0x8000
   17fb0:	02402021 	move	a0,s2
   17fb4:	01f87025 	or	t6,t7,t8
   17fb8:	02202821 	move	a1,s1
   17fbc:	0e00077b 	jal	0x8001dec
   17fc0:	ae6e0018 	sw	t6,24(s3)
   17fc4:	9264004c 	lbu	a0,76(s3)
   17fc8:	0a000a25 	j	0x8002894
   17fcc:	24050004 	li	a1,4
   17fd0:	324a0080 	andi	t2,s2,0x80
   17fd4:	39490080 	xori	t1,t2,0x80
   17fd8:	1469ff6a 	bne	v1,t1,0x17d84
   17fdc:	3c0d8008 	lui	t5,0x8008
   17fe0:	0a0009fe 	j	0x80027f8
   17fe4:	26470001 	addiu	a3,s2,1
   17fe8:	27bdffc0 	addiu	sp,sp,-64
   17fec:	afb00018 	sw	s0,24(sp)
   17ff0:	3c108000 	lui	s0,0x8000
   17ff4:	afbf0038 	sw	ra,56(sp)
   17ff8:	afb70034 	sw	s7,52(sp)
   17ffc:	afb60030 	sw	s6,48(sp)
   18000:	afb5002c 	sw	s5,44(sp)
   18004:	afb40028 	sw	s4,40(sp)
   18008:	afb30024 	sw	s3,36(sp)
   1800c:	afb20020 	sw	s2,32(sp)
   18010:	0e0005be 	jal	0x80016f8
   18014:	afb1001c 	sw	s1,28(sp)
   18018:	36020100 	ori	v0,s0,0x100
   1801c:	9045000b 	lbu	a1,11(v0)
   18020:	0e000980 	jal	0x8002600
   18024:	90440008 	lbu	a0,8(v0)
   18028:	144000e7 	bnez	v0,0x183c8
   1802c:	8fbf0038 	lw	ra,56(sp)
   18030:	3c088008 	lui	t0,0x8008
   18034:	35070080 	ori	a3,t0,0x80
   18038:	a0e0006b 	sb	zero,107(a3)
   1803c:	36060980 	ori	a2,s0,0x980
   18040:	90c50000 	lbu	a1,0(a2)
   18044:	24030050 	li	v1,80
   18048:	3c170800 	lui	s7,0x800
   1804c:	26f73fb0 	addiu	s7,s7,16304
   18050:	30a400ff 	andi	a0,a1,0xff
   18054:	3c130800 	lui	s3,0x800
   18058:	26733fc0 	addiu	s3,s3,16320
   1805c:	10830003 	beq	a0,v1,0x1806c
   18060:	3c108000 	lui	s0,0x8000
   18064:	0000b821 	move	s7,zero
   18068:	00009821 	move	s3,zero
   1806c:	241f0010 	li	ra,16
   18070:	36110100 	ori	s1,s0,0x100
   18074:	36120a00 	ori	s2,s0,0xa00
   18078:	36150980 	ori	s5,s0,0x980
   1807c:	8e580024 	lw	t8,36(s2)
   18080:	8e340004 	lw	s4,4(s1)
   18084:	8eaf0020 	lw	t7,32(s5)
   18088:	8f8c0054 	lw	t4,84(gp)
   1808c:	3c010800 	lui	at,0x800
   18090:	a03f3ff8 	sb	ra,16376(at)
   18094:	36190a80 	ori	t9,s0,0xa80
   18098:	972b002c 	lhu	t3,44(t9)
   1809c:	8ef60000 	lw	s6,0(s7)
   180a0:	932a0018 	lbu	t2,24(t9)
   180a4:	02987023 	subu	t6,s4,t8
   180a8:	01ec6823 	subu	t5,t7,t4
   180ac:	3c010800 	lui	at,0x800
   180b0:	ac2e3fd4 	sw	t6,16340(at)
   180b4:	3c010800 	lui	at,0x800
   180b8:	ac2d3fd8 	sw	t5,16344(at)
   180bc:	3c010800 	lui	at,0x800
   180c0:	ac2c3ffc 	sw	t4,16380(at)
   180c4:	a78b0058 	sh	t3,88(gp)
   180c8:	02c0f809 	jalr	s6
   180cc:	315400ff 	andi	s4,t2,0xff
   180d0:	30490002 	andi	t1,v0,0x2
   180d4:	152000e9 	bnez	t1,0x1847c
   180d8:	30420001 	andi	v0,v0,0x1
   180dc:	504000c4 	beqzl	v0,0x183f0
   180e0:	92270009 	lbu	a3,9(s1)
   180e4:	92a90008 	lbu	t1,8(s5)
   180e8:	31280008 	andi	t0,t1,0x8
   180ec:	15000002 	bnez	t0,0x180f8
   180f0:	24150003 	li	s5,3
   180f4:	0000a821 	move	s5,zero
   180f8:	3c0a8000 	lui	t2,0x8000
   180fc:	35430900 	ori	v1,t2,0x900
   18100:	35440a00 	ori	a0,t2,0xa00
   18104:	8c8d0024 	lw	t5,36(a0)
   18108:	90720011 	lbu	s2,17(v1)
   1810c:	90700012 	lbu	s0,18(v1)
   18110:	907f0011 	lbu	ra,17(v1)
   18114:	325900ff 	andi	t9,s2,0xff
   18118:	321100ff 	andi	s1,s0,0xff
   1811c:	02b11021 	addu	v0,s5,s1
   18120:	0002c080 	sll	t8,v0,0x2
   18124:	33ef00ff 	andi	t7,ra,0xff
   18128:	0319b021 	addu	s6,t8,t9
   1812c:	028f7021 	addu	t6,s4,t7
   18130:	02d46021 	addu	t4,s6,s4
   18134:	25cb0010 	addiu	t3,t6,16
   18138:	3c010800 	lui	at,0x800
   1813c:	a4363fee 	sh	s6,16366(at)
   18140:	3c010800 	lui	at,0x800
   18144:	ac2d4000 	sw	t5,16384(at)
   18148:	3c010800 	lui	at,0x800
   1814c:	a42c3ff0 	sh	t4,16368(at)
   18150:	3c010800 	lui	at,0x800
   18154:	a42b3fec 	sh	t3,16364(at)
   18158:	35560100 	ori	s6,t2,0x100
   1815c:	35540980 	ori	s4,t2,0x980
   18160:	35510e00 	ori	s1,t2,0xe00
   18164:	8f870054 	lw	a3,84(gp)
   18168:	8f89005c 	lw	t1,92(gp)
   1816c:	8e850020 	lw	a1,32(s4)
   18170:	24080006 	li	t0,6
   18174:	01273023 	subu	a2,t1,a3
   18178:	3c010800 	lui	at,0x800
   1817c:	ac283ff4 	sw	t0,16372(at)
   18180:	00a72823 	subu	a1,a1,a3
   18184:	04c000b5 	bltz	a2,0x1845c
   18188:	00009021 	move	s2,zero
   1818c:	04a000b3 	bltz	a1,0x1845c
   18190:	00c5502b 	sltu	t2,a2,a1
   18194:	114000b5 	beqz	t2,0x1846c
   18198:	00000000 	nop
   1819c:	3c010800 	lui	at,0x800
   181a0:	ac263fd8 	sw	a2,16344(at)
   181a4:	8e620000 	lw	v0,0(s3)
   181a8:	0040f809 	jalr	v0
   181ac:	00000000 	nop
   181b0:	30460002 	andi	a2,v0,0x2
   181b4:	14c00074 	bnez	a2,0x18388
   181b8:	00408021 	move	s0,v0
   181bc:	304b0001 	andi	t3,v0,0x1
   181c0:	55600011 	bnezl	t3,0x18208
   181c4:	8e620004 	lw	v0,4(s3)
   181c8:	3c0d0800 	lui	t5,0x800
   181cc:	8dad3fdc 	lw	t5,16348(t5)
   181d0:	3c0ec000 	lui	t6,0xc000
   181d4:	3c048000 	lui	a0,0x8000
   181d8:	01ae6025 	or	t4,t5,t6
   181dc:	ae2c0000 	sw	t4,0(s1)
   181e0:	8c980000 	lw	t8,0(a0)
   181e4:	330f0008 	andi	t7,t8,0x8
   181e8:	11e0fffd 	beqz	t7,0x181e0
   181ec:	00000000 	nop
   181f0:	963f0008 	lhu	ra,8(s1)
   181f4:	24120001 	li	s2,1
   181f8:	a79f0040 	sh	ra,64(gp)
   181fc:	8e390004 	lw	t9,4(s1)
   18200:	af990038 	sw	t9,56(gp)
   18204:	8e620004 	lw	v0,4(s3)
   18208:	0040f809 	jalr	v0
   1820c:	00000000 	nop
   18210:	02028025 	or	s0,s0,v0
   18214:	32030002 	andi	v1,s0,0x2
   18218:	146000b3 	bnez	v1,0x184e8
   1821c:	00000000 	nop
   18220:	3c090800 	lui	t1,0x800
   18224:	95293fe4 	lhu	t1,16356(t1)
   18228:	3c060800 	lui	a2,0x800
   1822c:	94c63ff0 	lhu	a2,16368(a2)
   18230:	3c0a0800 	lui	t2,0x800
   18234:	954a3fe6 	lhu	t2,16358(t2)
   18238:	3c070800 	lui	a3,0x800
   1823c:	8ce73fdc 	lw	a3,16348(a3)
   18240:	01267021 	addu	t6,t1,a2
   18244:	3c030800 	lui	v1,0x800
   18248:	8c634000 	lw	v1,16384(v1)
   1824c:	3c080800 	lui	t0,0x800
   18250:	95083ffa 	lhu	t0,16378(t0)
   18254:	01ca2021 	addu	a0,t6,t2
   18258:	8ed9000c 	lw	t9,12(s6)
   1825c:	00e92821 	addu	a1,a3,t1
   18260:	249f0002 	addiu	ra,a0,2
   18264:	00a87821 	addu	t7,a1,t0
   18268:	0067c021 	addu	t8,v1,a3
   1826c:	33e4ffff 	andi	a0,ra,0xffff
   18270:	af990050 	sw	t9,80(gp)
   18274:	3c010800 	lui	at,0x800
   18278:	ac384000 	sw	t8,16384(at)
   1827c:	3c010800 	lui	at,0x800
   18280:	a42f3fe8 	sh	t7,16360(at)
   18284:	3c010800 	lui	at,0x800
   18288:	a42e3ff2 	sh	t6,16370(at)
   1828c:	0e0001e7 	jal	0x800079c
   18290:	00000000 	nop
   18294:	8f8d0048 	lw	t5,72(gp)
   18298:	00402021 	move	a0,v0
   1829c:	3c010800 	lui	at,0x800
   182a0:	a02d3ff9 	sb	t5,16377(at)
   182a4:	8e620008 	lw	v0,8(s3)
   182a8:	25ac0001 	addiu	t4,t5,1
   182ac:	af8c0048 	sw	t4,72(gp)
   182b0:	0040f809 	jalr	v0
   182b4:	00000000 	nop
   182b8:	8f850054 	lw	a1,84(gp)
   182bc:	02a03021 	move	a2,s5
   182c0:	0e00060c 	jal	0x8001830
   182c4:	00402021 	move	a0,v0
   182c8:	0e0007ab 	jal	0x8001eac
   182cc:	00402021 	move	a0,v0
   182d0:	8e6b000c 	lw	t3,12(s3)
   182d4:	0160f809 	jalr	t3
   182d8:	00402021 	move	a0,v0
   182dc:	3c0a0800 	lui	t2,0x800
   182e0:	954a3ff2 	lhu	t2,16370(t2)
   182e4:	3c060800 	lui	a2,0x800
   182e8:	94c63fe6 	lhu	a2,16358(a2)
   182ec:	01464821 	addu	t1,t2,a2
   182f0:	25280002 	addiu	t0,t1,2
   182f4:	0e0001fb 	jal	0x80007ec
   182f8:	3104ffff 	andi	a0,t0,0xffff
   182fc:	3c050800 	lui	a1,0x800
   18300:	8ca53fd4 	lw	a1,16340(a1)
   18304:	3c070800 	lui	a3,0x800
   18308:	8ce73fdc 	lw	a3,16348(a3)
   1830c:	00a72023 	subu	a0,a1,a3
   18310:	3c010800 	lui	at,0x800
   18314:	ac243fd4 	sw	a0,16340(at)
   18318:	14800006 	bnez	a0,0x18334
   1831c:	00000000 	nop
   18320:	3c020800 	lui	v0,0x800
   18324:	8c423ff4 	lw	v0,16372(v0)
   18328:	344b0040 	ori	t3,v0,0x40
   1832c:	3c010800 	lui	at,0x800
   18330:	ac2b3ff4 	sw	t3,16372(at)
   18334:	12400043 	beqz	s2,0x18444
   18338:	8f8e0044 	lw	t6,68(gp)
   1833c:	8e2d0010 	lw	t5,16(s1)
   18340:	8f920044 	lw	s2,68(gp)
   18344:	ae4d0020 	sw	t5,32(s2)
   18348:	8e2c0018 	lw	t4,24(s1)
   1834c:	ae4c0024 	sw	t4,36(s2)
   18350:	3c040800 	lui	a0,0x800
   18354:	94843fe8 	lhu	a0,16360(a0)
   18358:	0e000704 	jal	0x8001c10
   1835c:	00000000 	nop
   18360:	8f9f0054 	lw	ra,84(gp)
   18364:	8e670010 	lw	a3,16(s3)
   18368:	3c010800 	lui	at,0x800
   1836c:	ac3f3ffc 	sw	ra,16380(at)
   18370:	00e0f809 	jalr	a3
   18374:	00000000 	nop
   18378:	3c190800 	lui	t9,0x800
   1837c:	8f393fd4 	lw	t9,16340(t9)
   18380:	1720ff79 	bnez	t9,0x18168
   18384:	8f870054 	lw	a3,84(gp)
   18388:	97930058 	lhu	s3,88(gp)
   1838c:	3c11800e 	lui	s1,0x800e
   18390:	32160100 	andi	s6,s0,0x100
   18394:	0e000733 	jal	0x8001ccc
   18398:	a633002c 	sh	s3,44(s1)
   1839c:	16c00045 	bnez	s6,0x184b4
   183a0:	32030010 	andi	v1,s0,0x10
   183a4:	5460004c 	bnezl	v1,0x184d8
   183a8:	8ee50004 	lw	a1,4(s7)
   183ac:	32080040 	andi	t0,s0,0x40
   183b0:	5500001d 	bnezl	t0,0x18428
   183b4:	8ef00008 	lw	s0,8(s7)
   183b8:	8ee4000c 	lw	a0,12(s7)
   183bc:	0080f809 	jalr	a0
   183c0:	00000000 	nop
   183c4:	8fbf0038 	lw	ra,56(sp)
   183c8:	8fb70034 	lw	s7,52(sp)
   183cc:	8fb60030 	lw	s6,48(sp)
   183d0:	8fb5002c 	lw	s5,44(sp)
   183d4:	8fb40028 	lw	s4,40(sp)
   183d8:	8fb30024 	lw	s3,36(sp)
   183dc:	8fb20020 	lw	s2,32(sp)
   183e0:	8fb1001c 	lw	s1,28(sp)
   183e4:	8fb00018 	lw	s0,24(sp)
   183e8:	03e00008 	jr	ra
   183ec:	27bd0040 	addiu	sp,sp,64
   183f0:	8f86003c 	lw	a2,60(gp)
   183f4:	36110e00 	ori	s1,s0,0xe00
   183f8:	00072e00 	sll	a1,a3,0x18
   183fc:	00a62025 	or	a0,a1,a2
   18400:	ae040080 	sw	a0,128(s0)
   18404:	8e430020 	lw	v1,32(s2)
   18408:	8e500024 	lw	s0,36(s2)
   1840c:	afa30010 	sw	v1,16(sp)
   18410:	ae230014 	sw	v1,20(s1)
   18414:	8fb20010 	lw	s2,16(sp)
   18418:	ae320010 	sw	s2,16(s1)
   1841c:	ae30001c 	sw	s0,28(s1)
   18420:	0a000a7f 	j	0x80029fc
   18424:	ae300018 	sw	s0,24(s1)
   18428:	0200f809 	jalr	s0
   1842c:	00000000 	nop
   18430:	8ee4000c 	lw	a0,12(s7)
   18434:	0080f809 	jalr	a0
   18438:	00000000 	nop
   1843c:	0a000b38 	j	0x8002ce0
   18440:	8fbf0038 	lw	ra,56(sp)
   18444:	24180001 	li	t8,1
   18448:	240f0001 	li	t7,1
   1844c:	a5c00020 	sh	zero,32(t6)
   18450:	a5d80022 	sh	t8,34(t6)
   18454:	0a000b1a 	j	0x8002c68
   18458:	adcf0024 	sw	t7,36(t6)
   1845c:	3c010800 	lui	at,0x800
   18460:	ac203fd8 	sw	zero,16344(at)
   18464:	0a000ab0 	j	0x8002ac0
   18468:	8e620000 	lw	v0,0(s3)
   1846c:	3c010800 	lui	at,0x800
   18470:	ac253fd8 	sw	a1,16344(at)
   18474:	0a000ab0 	j	0x8002ac0
   18478:	8e620000 	lw	v0,0(s3)
   1847c:	92240009 	lbu	a0,9(s1)
   18480:	0e00077b 	jal	0x8001dec
   18484:	00002821 	move	a1,zero
   18488:	8fbf0038 	lw	ra,56(sp)
   1848c:	8fb70034 	lw	s7,52(sp)
   18490:	8fb60030 	lw	s6,48(sp)
   18494:	8fb5002c 	lw	s5,44(sp)
   18498:	8fb40028 	lw	s4,40(sp)
   1849c:	8fb30024 	lw	s3,36(sp)
   184a0:	8fb20020 	lw	s2,32(sp)
   184a4:	8fb1001c 	lw	s1,28(sp)
   184a8:	8fb00018 	lw	s0,24(sp)
   184ac:	03e00008 	jr	ra
   184b0:	27bd0040 	addiu	sp,sp,64
   184b4:	3c148000 	lui	s4,0x8000
   184b8:	92950109 	lbu	s5,265(s4)
   184bc:	00002821 	move	a1,zero
   184c0:	0e00084d 	jal	0x8002134
   184c4:	32a400ff 	andi	a0,s5,0xff
   184c8:	32030010 	andi	v1,s0,0x10
   184cc:	5060ffb8 	beqzl	v1,0x183b0
   184d0:	32080040 	andi	t0,s0,0x40
   184d4:	8ee50004 	lw	a1,4(s7)
   184d8:	00a0f809 	jalr	a1
   184dc:	00000000 	nop
   184e0:	0a000b32 	j	0x8002cc8
   184e4:	32080040 	andi	t0,s0,0x40
   184e8:	5240ffa8 	beqzl	s2,0x1838c
   184ec:	97930058 	lhu	s3,88(gp)
   184f0:	8e340014 	lw	s4,20(s1)
   184f4:	8f930044 	lw	s3,68(gp)
   184f8:	ae740020 	sw	s4,32(s3)
   184fc:	8e35001c 	lw	s5,28(s1)
   18500:	ae750024 	sw	s5,36(s3)
   18504:	0a000b29 	j	0x8002ca4
   18508:	97930058 	lhu	s3,88(gp)
   1850c:	8f820014 	lw	v0,20(gp)
   18510:	00042180 	sll	a0,a0,0x6
   18514:	03e00008 	jr	ra
   18518:	00821021 	addu	v0,a0,v0
   1851c:	3c078008 	lui	a3,0x8008
   18520:	34e20080 	ori	v0,a3,0x80
   18524:	90430069 	lbu	v1,105(v0)
   18528:	00804021 	move	t0,a0
   1852c:	10600009 	beqz	v1,0x18554
   18530:	3c040100 	lui	a0,0x100
   18534:	3c070800 	lui	a3,0x800
   18538:	8ce73ffc 	lw	a3,16380(a3)
   1853c:	8f830030 	lw	v1,48(gp)
   18540:	00e32023 	subu	a0,a3,v1
   18544:	04800008 	bltz	a0,0x18568
   18548:	9389001c 	lbu	t1,28(gp)
   1854c:	14e30003 	bne	a3,v1,0x1855c
   18550:	01002021 	move	a0,t0
   18554:	03e00008 	jr	ra
   18558:	00801021 	move	v0,a0
   1855c:	3c040100 	lui	a0,0x100
   18560:	03e00008 	jr	ra
   18564:	00801021 	move	v0,a0
   18568:	1120000b 	beqz	t1,0x18598
   1856c:	00673823 	subu	a3,v1,a3
   18570:	3c0d8000 	lui	t5,0x8000
   18574:	35ac0980 	ori	t4,t5,0x980
   18578:	918b007c 	lbu	t3,124(t4)
   1857c:	316a0002 	andi	t2,t3,0x2
   18580:	11400020 	beqz	t2,0x18604
   18584:	24090034 	li	t1,52
   18588:	00e9702b 	sltu	t6,a3,t1
   1858c:	15c0fff1 	bnez	t6,0x18554
   18590:	01002021 	move	a0,t0
   18594:	00e93823 	subu	a3,a3,t1
   18598:	2403fffc 	li	v1,-4
   1859c:	00a3c824 	and	t9,a1,v1
   185a0:	00e3c024 	and	t8,a3,v1
   185a4:	00f9782b 	sltu	t7,a3,t9
   185a8:	15e0ffea 	bnez	t7,0x18554
   185ac:	03082021 	addu	a0,t8,t0
   185b0:	30c40003 	andi	a0,a2,0x3
   185b4:	00041023 	negu	v0,a0
   185b8:	14c00014 	bnez	a2,0x1860c
   185bc:	30490003 	andi	t1,v0,0x3
   185c0:	00003021 	move	a2,zero
   185c4:	00a97821 	addu	t7,a1,t1
   185c8:	01e67021 	addu	t6,t7,a2
   185cc:	00ee682b 	sltu	t5,a3,t6
   185d0:	11a0ffe0 	beqz	t5,0x18554
   185d4:	3c040100 	lui	a0,0x100
   185d8:	2d380001 	sltiu	t8,t1,1
   185dc:	0006c82b 	sltu	t9,zero,a2
   185e0:	01054821 	addu	t1,t0,a1
   185e4:	03193824 	and	a3,t8,t9
   185e8:	14e0ffda 	bnez	a3,0x18554
   185ec:	2524fffc 	addiu	a0,t1,-4
   185f0:	2402fffc 	li	v0,-4
   185f4:	00a21824 	and	v1,a1,v0
   185f8:	00682021 	addu	a0,v1,t0
   185fc:	03e00008 	jr	ra
   18600:	00801021 	move	v0,a0
   18604:	0a000ba8 	j	0x8002ea0
   18608:	24090030 	li	t1,48
   1860c:	3c0c8000 	lui	t4,0x8000
   18610:	35860980 	ori	a2,t4,0x980
   18614:	90cb007c 	lbu	t3,124(a2)
   18618:	316a0004 	andi	t2,t3,0x4
   1861c:	1540ffe9 	bnez	t2,0x185c4
   18620:	24060004 	li	a2,4
   18624:	0a000bb7 	j	0x8002edc
   18628:	00003021 	move	a2,zero
   1862c:	3c030800 	lui	v1,0x800
   18630:	8c63005c 	lw	v1,92(v1)
   18634:	8f820018 	lw	v0,24(gp)
   18638:	27bdffe0 	addiu	sp,sp,-32
   1863c:	afbf0018 	sw	ra,24(sp)
   18640:	afb10014 	sw	s1,20(sp)
   18644:	10620005 	beq	v1,v0,0x1865c
   18648:	afb00010 	sw	s0,16(sp)
   1864c:	000329c0 	sll	a1,v1,0x7
   18650:	24a40280 	addiu	a0,a1,640
   18654:	af840014 	sw	a0,20(gp)
   18658:	af830018 	sw	v1,24(gp)
   1865c:	3c108000 	lui	s0,0x8000
   18660:	36020a00 	ori	v0,s0,0xa00
   18664:	94450032 	lhu	a1,50(v0)
   18668:	36110100 	ori	s1,s0,0x100
   1866c:	0e000b89 	jal	0x8002e24
   18670:	30a43fff 	andi	a0,a1,0x3fff
   18674:	8e240000 	lw	a0,0(s1)
   18678:	241fff80 	li	ra,-128
   1867c:	3c110080 	lui	s1,0x80
   18680:	0082c021 	addu	t8,a0,v0
   18684:	031f6024 	and	t4,t8,ra
   18688:	3309007f 	andi	t1,t8,0x7f
   1868c:	000cc940 	sll	t9,t4,0x5
   18690:	03294025 	or	t0,t9,t1
   18694:	330e0078 	andi	t6,t8,0x78
   18698:	362f0003 	ori	t7,s1,0x3
   1869c:	3c0d1000 	lui	t5,0x1000
   186a0:	010d5025 	or	t2,t0,t5
   186a4:	01cf5825 	or	t3,t6,t7
   186a8:	ae0c0028 	sw	t4,40(s0)
   186ac:	36080980 	ori	t0,s0,0x980
   186b0:	ae0c080c 	sw	t4,2060(s0)
   186b4:	ae0b082c 	sw	t3,2092(s0)
   186b8:	ae0a0830 	sw	t2,2096(s0)
   186bc:	91030069 	lbu	v1,105(t0)
   186c0:	3c06800c 	lui	a2,0x800c
   186c4:	01263821 	addu	a3,t1,a2
   186c8:	10600006 	beqz	v1,0x186e4
   186cc:	af870034 	sw	a3,52(gp)
   186d0:	8d09003c 	lw	t1,60(t0)
   186d4:	8d03006c 	lw	v1,108(t0)
   186d8:	01233823 	subu	a3,t1,v1
   186dc:	18e00082 	blez	a3,0x188e8
   186e0:	00000000 	nop
   186e4:	3c0b8008 	lui	t3,0x8008
   186e8:	356a0080 	ori	t2,t3,0x80
   186ec:	3c108000 	lui	s0,0x8000
   186f0:	a1400069 	sb	zero,105(t2)
   186f4:	36060980 	ori	a2,s0,0x980
   186f8:	8cc20038 	lw	v0,56(a2)
   186fc:	3c068000 	lui	a2,0x8000
   18700:	34c50a00 	ori	a1,a2,0xa00
   18704:	90a8003c 	lbu	t0,60(a1)
   18708:	310c0020 	andi	t4,t0,0x20
   1870c:	1180001a 	beqz	t4,0x18778
   18710:	af820030 	sw	v0,48(gp)
   18714:	240d0001 	li	t5,1
   18718:	3c0e8000 	lui	t6,0x8000
   1871c:	35d10a00 	ori	s1,t6,0xa00
   18720:	a38d001c 	sb	t5,28(gp)
   18724:	af800024 	sw	zero,36(gp)
   18728:	8e240024 	lw	a0,36(s1)
   1872c:	8f850024 	lw	a1,36(gp)
   18730:	240d0008 	li	t5,8
   18734:	af800020 	sw	zero,32(gp)
   18738:	af800028 	sw	zero,40(gp)
   1873c:	3c010800 	lui	at,0x800
   18740:	a42d3fe6 	sh	t5,16358(at)
   18744:	3c010800 	lui	at,0x800
   18748:	a4203ffa 	sh	zero,16378(at)
   1874c:	0e000b8d 	jal	0x8002e34
   18750:	00003021 	move	a2,zero
   18754:	9228003c 	lbu	t0,60(s1)
   18758:	8fbf0018 	lw	ra,24(sp)
   1875c:	8fb10014 	lw	s1,20(sp)
   18760:	8fb00010 	lw	s0,16(sp)
   18764:	00086142 	srl	t4,t0,0x5
   18768:	af82002c 	sw	v0,44(gp)
   1876c:	27bd0020 	addiu	sp,sp,32
   18770:	03e00008 	jr	ra
   18774:	31820001 	andi	v0,t4,0x1
   18778:	90b80032 	lbu	t8,50(a1)
   1877c:	240e0001 	li	t6,1
   18780:	330f00ff 	andi	t7,t8,0xff
   18784:	000f2182 	srl	a0,t7,0x6
   18788:	108e0041 	beq	a0,t6,0x18890
   1878c:	24190002 	li	t9,2
   18790:	10990064 	beq	a0,t9,0x18924
   18794:	34c40ac0 	ori	a0,a2,0xac0
   18798:	3c038000 	lui	v1,0x8000
   1879c:	34640a00 	ori	a0,v1,0xa00
   187a0:	8c8f0024 	lw	t7,36(a0)
   187a4:	15e0001e 	bnez	t7,0x18820
   187a8:	34660900 	ori	a2,v1,0x900
   187ac:	909f0030 	lbu	ra,48(a0)
   187b0:	24180005 	li	t8,5
   187b4:	33f9003f 	andi	t9,ra,0x3f
   187b8:	1338004e 	beq	t9,t8,0x188f4
   187bc:	24030001 	li	v1,1
   187c0:	8f860020 	lw	a2,32(gp)
   187c4:	a383001c 	sb	v1,28(gp)
   187c8:	af860028 	sw	a2,40(gp)
   187cc:	af860024 	sw	a2,36(gp)
   187d0:	3c0e8000 	lui	t6,0x8000
   187d4:	35d10a00 	ori	s1,t6,0xa00
   187d8:	8e240024 	lw	a0,36(s1)
   187dc:	8f850024 	lw	a1,36(gp)
   187e0:	240d0008 	li	t5,8
   187e4:	3c010800 	lui	at,0x800
   187e8:	a42d3fe6 	sh	t5,16358(at)
   187ec:	3c010800 	lui	at,0x800
   187f0:	a4203ffa 	sh	zero,16378(at)
   187f4:	0e000b8d 	jal	0x8002e34
   187f8:	00000000 	nop
   187fc:	9228003c 	lbu	t0,60(s1)
   18800:	8fbf0018 	lw	ra,24(sp)
   18804:	8fb10014 	lw	s1,20(sp)
   18808:	8fb00010 	lw	s0,16(sp)
   1880c:	00086142 	srl	t4,t0,0x5
   18810:	af82002c 	sw	v0,44(gp)
   18814:	27bd0020 	addiu	sp,sp,32
   18818:	03e00008 	jr	ra
   1881c:	31820001 	andi	v0,t4,0x1
   18820:	8c8a0008 	lw	t2,8(a0)
   18824:	8c8b0024 	lw	t3,36(a0)
   18828:	8cd00064 	lw	s0,100(a2)
   1882c:	3c0e8000 	lui	t6,0x8000
   18830:	35d10a00 	ori	s1,t6,0xa00
   18834:	014b2823 	subu	a1,t2,t3
   18838:	af900024 	sw	s0,36(gp)
   1883c:	a380001c 	sb	zero,28(gp)
   18840:	af850028 	sw	a1,40(gp)
   18844:	8e240024 	lw	a0,36(s1)
   18848:	8f860020 	lw	a2,32(gp)
   1884c:	8f850024 	lw	a1,36(gp)
   18850:	240d0008 	li	t5,8
   18854:	3c010800 	lui	at,0x800
   18858:	a42d3fe6 	sh	t5,16358(at)
   1885c:	3c010800 	lui	at,0x800
   18860:	a4203ffa 	sh	zero,16378(at)
   18864:	0e000b8d 	jal	0x8002e34
   18868:	00000000 	nop
   1886c:	9228003c 	lbu	t0,60(s1)
   18870:	8fbf0018 	lw	ra,24(sp)
   18874:	8fb10014 	lw	s1,20(sp)
   18878:	8fb00010 	lw	s0,16(sp)
   1887c:	00086142 	srl	t4,t0,0x5
   18880:	af82002c 	sw	v0,44(gp)
   18884:	27bd0020 	addiu	sp,sp,32
   18888:	03e00008 	jr	ra
   1888c:	31820001 	andi	v0,t4,0x1
   18890:	90a20030 	lbu	v0,48(a1)
   18894:	3051003f 	andi	s1,v0,0x3f
   18898:	52240028 	beql	s1,a0,0x1893c
   1889c:	34c50ac0 	ori	a1,a2,0xac0
   188a0:	8cb00024 	lw	s0,36(a1)
   188a4:	16000022 	bnez	s0,0x18930
   188a8:	34cb0900 	ori	t3,a2,0x900
   188ac:	8ca60048 	lw	a2,72(a1)
   188b0:	3c0a7fff 	lui	t2,0x7fff
   188b4:	3545ffff 	ori	a1,t2,0xffff
   188b8:	00c51024 	and	v0,a2,a1
   188bc:	3c0e8000 	lui	t6,0x8000
   188c0:	af820020 	sw	v0,32(gp)
   188c4:	35c50900 	ori	a1,t6,0x900
   188c8:	8f880020 	lw	t0,32(gp)
   188cc:	8cad0060 	lw	t5,96(a1)
   188d0:	010d602b 	sltu	t4,t0,t5
   188d4:	15800002 	bnez	t4,0x188e0
   188d8:	01002021 	move	a0,t0
   188dc:	8ca40060 	lw	a0,96(a1)
   188e0:	0a000c2c 	j	0x80030b0
   188e4:	af840020 	sw	a0,32(gp)
   188e8:	8d02006c 	lw	v0,108(t0)
   188ec:	0a000c06 	j	0x8003018
   188f0:	3c068000 	lui	a2,0x8000
   188f4:	8c820048 	lw	v0,72(a0)
   188f8:	8f860020 	lw	a2,32(gp)
   188fc:	3c097fff 	lui	t1,0x7fff
   18900:	3527ffff 	ori	a3,t1,0xffff
   18904:	00478824 	and	s1,v0,a3
   18908:	3c048008 	lui	a0,0x8008
   1890c:	24030001 	li	v1,1
   18910:	af910028 	sw	s1,40(gp)
   18914:	ac80006c 	sw	zero,108(a0)
   18918:	a383001c 	sb	v1,28(gp)
   1891c:	0a000c3a 	j	0x80030e8
   18920:	af860024 	sw	a2,36(gp)
   18924:	8c9f0014 	lw	ra,20(a0)
   18928:	0a000c2c 	j	0x80030b0
   1892c:	af9f0020 	sw	ra,32(gp)
   18930:	8d620068 	lw	v0,104(t3)
   18934:	0a000c76 	j	0x80031d8
   18938:	3c0e8000 	lui	t6,0x8000
   1893c:	34c40980 	ori	a0,a2,0x980
   18940:	8c890070 	lw	t1,112(a0)
   18944:	8ca30014 	lw	v1,20(a1)
   18948:	0123382b 	sltu	a3,t1,v1
   1894c:	10e00004 	beqz	a3,0x18960
   18950:	00000000 	nop
   18954:	8c820070 	lw	v0,112(a0)
   18958:	0a000c76 	j	0x80031d8
   1895c:	3c0e8000 	lui	t6,0x8000
   18960:	8ca20014 	lw	v0,20(a1)
   18964:	0a000c76 	j	0x80031d8
   18968:	3c0e8000 	lui	t6,0x8000
   1896c:	8f850024 	lw	a1,36(gp)
   18970:	27bdffe0 	addiu	sp,sp,-32
   18974:	afbf0018 	sw	ra,24(sp)
   18978:	afb10014 	sw	s1,20(sp)
   1897c:	14a00008 	bnez	a1,0x189a0
   18980:	afb00010 	sw	s0,16(sp)
   18984:	3c048000 	lui	a0,0x8000
   18988:	34870a00 	ori	a3,a0,0xa00
   1898c:	90e60030 	lbu	a2,48(a3)
   18990:	24020005 	li	v0,5
   18994:	30c3003f 	andi	v1,a2,0x3f
   18998:	106200b9 	beq	v1,v0,0x18c80
   1899c:	34840900 	ori	a0,a0,0x900
   189a0:	8f910020 	lw	s1,32(gp)
   189a4:	00a08021 	move	s0,a1
   189a8:	3c048000 	lui	a0,0x8000
   189ac:	348e0a00 	ori	t6,a0,0xa00
   189b0:	8dcd0004 	lw	t5,4(t6)
   189b4:	3c060800 	lui	a2,0x800
   189b8:	8cc63fd8 	lw	a2,16344(a2)
   189bc:	31a73fff 	andi	a3,t5,0x3fff
   189c0:	00e6602b 	sltu	t4,a3,a2
   189c4:	55800001 	bnezl	t4,0x189cc
   189c8:	00e03021 	move	a2,a3
   189cc:	938f001c 	lbu	t7,28(gp)
   189d0:	11e00078 	beqz	t7,0x18bb4
   189d4:	00d0282b 	sltu	a1,a2,s0
   189d8:	349f0980 	ori	ra,a0,0x980
   189dc:	93f9007c 	lbu	t9,124(ra)
   189e0:	33380002 	andi	t8,t9,0x2
   189e4:	13000079 	beqz	t8,0x18bcc
   189e8:	24030034 	li	v1,52
   189ec:	00c3102b 	sltu	v0,a2,v1
   189f0:	144000d9 	bnez	v0,0x18d58
   189f4:	00000000 	nop
   189f8:	00c33023 	subu	a2,a2,v1
   189fc:	00d0282b 	sltu	a1,a2,s0
   18a00:	3c010800 	lui	at,0x800
   18a04:	a4233fe4 	sh	v1,16356(at)
   18a08:	14a0006e 	bnez	a1,0x18bc4
   18a0c:	02001821 	move	v1,s0
   18a10:	3c040800 	lui	a0,0x800
   18a14:	8c843fd4 	lw	a0,16340(a0)
   18a18:	0064402b 	sltu	t0,v1,a0
   18a1c:	55000001 	bnezl	t0,0x18a24
   18a20:	00602021 	move	a0,v1
   18a24:	3c058000 	lui	a1,0x8000
   18a28:	34a90a00 	ori	t1,a1,0xa00
   18a2c:	912a003c 	lbu	t2,60(t1)
   18a30:	3c010800 	lui	at,0x800
   18a34:	ac243fdc 	sw	a0,16348(at)
   18a38:	31430020 	andi	v1,t2,0x20
   18a3c:	14600003 	bnez	v1,0x18a4c
   18a40:	00004821 	move	t1,zero
   18a44:	34ab0e00 	ori	t3,a1,0xe00
   18a48:	8d690018 	lw	t1,24(t3)
   18a4c:	8f88002c 	lw	t0,44(gp)
   18a50:	0128202b 	sltu	a0,t1,t0
   18a54:	1080005f 	beqz	a0,0x18bd4
   18a58:	00000000 	nop
   18a5c:	3c050800 	lui	a1,0x800
   18a60:	8ca53fdc 	lw	a1,16348(a1)
   18a64:	00a96821 	addu	t5,a1,t1
   18a68:	010d602b 	sltu	t4,t0,t5
   18a6c:	1180005c 	beqz	t4,0x18be0
   18a70:	00b0702b 	sltu	t6,a1,s0
   18a74:	01093823 	subu	a3,t0,t1
   18a78:	00e02821 	move	a1,a3
   18a7c:	3c010800 	lui	at,0x800
   18a80:	ac273fdc 	sw	a3,16348(at)
   18a84:	12000003 	beqz	s0,0x18a94
   18a88:	240afffc 	li	t2,-4
   18a8c:	10b0008d 	beq	a1,s0,0x18cc4
   18a90:	32240003 	andi	a0,s1,0x3
   18a94:	00aa1824 	and	v1,a1,t2
   18a98:	3c010800 	lui	at,0x800
   18a9c:	a4203ffa 	sh	zero,16378(at)
   18aa0:	3c010800 	lui	at,0x800
   18aa4:	ac233fdc 	sw	v1,16348(at)
   18aa8:	00602821 	move	a1,v1
   18aac:	8f840024 	lw	a0,36(gp)
   18ab0:	12040006 	beq	s0,a0,0x18acc
   18ab4:	3c0b8008 	lui	t3,0x8008
   18ab8:	8d6c006c 	lw	t4,108(t3)
   18abc:	02002021 	move	a0,s0
   18ac0:	af910020 	sw	s1,32(gp)
   18ac4:	25900001 	addiu	s0,t4,1
   18ac8:	ad70006c 	sw	s0,108(t3)
   18acc:	8f8d0028 	lw	t5,40(gp)
   18ad0:	00858823 	subu	s1,a0,a1
   18ad4:	af910024 	sw	s1,36(gp)
   18ad8:	01a52023 	subu	a0,t5,a1
   18adc:	af840028 	sw	a0,40(gp)
   18ae0:	12200002 	beqz	s1,0x18aec
   18ae4:	24070018 	li	a3,24
   18ae8:	24070010 	li	a3,16
   18aec:	3c188008 	lui	t8,0x8008
   18af0:	37060080 	ori	a2,t8,0x80
   18af4:	90cf0068 	lbu	t7,104(a2)
   18af8:	3c010800 	lui	at,0x800
   18afc:	a0273ff8 	sb	a3,16376(at)
   18b00:	24070001 	li	a3,1
   18b04:	31ee00ff 	andi	t6,t7,0xff
   18b08:	11c70047 	beq	t6,a3,0x18c28
   18b0c:	00000000 	nop
   18b10:	14800018 	bnez	a0,0x18b74
   18b14:	00002821 	move	a1,zero
   18b18:	3c068000 	lui	a2,0x8000
   18b1c:	34d10980 	ori	s1,a2,0x980
   18b20:	34cd0100 	ori	t5,a2,0x100
   18b24:	91a60009 	lbu	a2,9(t5)
   18b28:	8e2c0018 	lw	t4,24(s1)
   18b2c:	24c40001 	addiu	a0,a2,1
   18b30:	000c8602 	srl	s0,t4,0x18
   18b34:	3205007f 	andi	a1,s0,0x7f
   18b38:	308b007f 	andi	t3,a0,0x7f
   18b3c:	1165007f 	beq	t3,a1,0x18d3c
   18b40:	2407ff80 	li	a3,-128
   18b44:	3c198008 	lui	t9,0x8008
   18b48:	37290080 	ori	t1,t9,0x80
   18b4c:	a124004c 	sb	a0,76(t1)
   18b50:	3c080800 	lui	t0,0x800
   18b54:	8d083ff4 	lw	t0,16372(t0)
   18b58:	24180002 	li	t8,2
   18b5c:	3c010800 	lui	at,0x800
   18b60:	a0384039 	sb	t8,16441(at)
   18b64:	350f0008 	ori	t7,t0,0x8
   18b68:	3c010800 	lui	at,0x800
   18b6c:	ac2f3ff4 	sw	t7,16372(at)
   18b70:	24050010 	li	a1,16
   18b74:	3c028000 	lui	v0,0x8000
   18b78:	34440a00 	ori	a0,v0,0xa00
   18b7c:	9083003c 	lbu	v1,60(a0)
   18b80:	307f0020 	andi	ra,v1,0x20
   18b84:	13e00005 	beqz	ra,0x18b9c
   18b88:	00a02021 	move	a0,a1
   18b8c:	240a0001 	li	t2,1
   18b90:	3c010800 	lui	at,0x800
   18b94:	ac2a3fdc 	sw	t2,16348(at)
   18b98:	34a40001 	ori	a0,a1,0x1
   18b9c:	8fbf0018 	lw	ra,24(sp)
   18ba0:	8fb10014 	lw	s1,20(sp)
   18ba4:	8fb00010 	lw	s0,16(sp)
   18ba8:	00801021 	move	v0,a0
   18bac:	03e00008 	jr	ra
   18bb0:	27bd0020 	addiu	sp,sp,32
   18bb4:	3c010800 	lui	at,0x800
   18bb8:	a4203fe4 	sh	zero,16356(at)
   18bbc:	10a0ff94 	beqz	a1,0x18a10
   18bc0:	02001821 	move	v1,s0
   18bc4:	0a000cca 	j	0x8003328
   18bc8:	00c01821 	move	v1,a2
   18bcc:	0a000cc1 	j	0x8003304
   18bd0:	24030030 	li	v1,48
   18bd4:	3c050800 	lui	a1,0x800
   18bd8:	8ca53fdc 	lw	a1,16348(a1)
   18bdc:	00b0702b 	sltu	t6,a1,s0
   18be0:	11c0ffa8 	beqz	t6,0x18a84
   18be4:	00000000 	nop
   18be8:	3c190800 	lui	t9,0x800
   18bec:	97393fe4 	lhu	t9,16356(t9)
   18bf0:	0325c021 	addu	t8,t9,a1
   18bf4:	0307782b 	sltu	t7,t8,a3
   18bf8:	11e00007 	beqz	t7,0x18c18
   18bfc:	2caa0004 	sltiu	t2,a1,4
   18c00:	3c036000 	lui	v1,0x6000
   18c04:	8c625404 	lw	v0,21508(v1)
   18c08:	305f003f 	andi	ra,v0,0x3f
   18c0c:	17e0ffe3 	bnez	ra,0x18b9c
   18c10:	24040042 	li	a0,66
   18c14:	2caa0004 	sltiu	t2,a1,4
   18c18:	1140ff9a 	beqz	t2,0x18a84
   18c1c:	24040042 	li	a0,66
   18c20:	0a000d2e 	j	0x80034b8
   18c24:	8fbf0018 	lw	ra,24(sp)
   18c28:	1528ffb9 	bne	t1,t0,0x18b10
   18c2c:	00000000 	nop
   18c30:	8cca0018 	lw	t2,24(a2)
   18c34:	3c1f8000 	lui	ra,0x8000
   18c38:	24020002 	li	v0,2
   18c3c:	015f1825 	or	v1,t2,ra
   18c40:	acc30018 	sw	v1,24(a2)
   18c44:	37f90a00 	ori	t9,ra,0xa00
   18c48:	a0c20068 	sb	v0,104(a2)
   18c4c:	9329003c 	lbu	t1,60(t9)
   18c50:	24040004 	li	a0,4
   18c54:	00a01021 	move	v0,a1
   18c58:	31280020 	andi	t0,t1,0x20
   18c5c:	3c010800 	lui	at,0x800
   18c60:	a0244039 	sb	a0,16441(at)
   18c64:	11000002 	beqz	t0,0x18c70
   18c68:	24050010 	li	a1,16
   18c6c:	24020001 	li	v0,1
   18c70:	3c010800 	lui	at,0x800
   18c74:	ac223fd4 	sw	v0,16340(at)
   18c78:	0a000d24 	j	0x8003490
   18c7c:	3c028000 	lui	v0,0x8000
   18c80:	8f880028 	lw	t0,40(gp)
   18c84:	8c890060 	lw	t1,96(a0)
   18c88:	0109282b 	sltu	a1,t0,t1
   18c8c:	14a00002 	bnez	a1,0x18c98
   18c90:	01008821 	move	s1,t0
   18c94:	8c910060 	lw	s1,96(a0)
   18c98:	3c048000 	lui	a0,0x8000
   18c9c:	348b0e00 	ori	t3,a0,0xe00
   18ca0:	8d640018 	lw	a0,24(t3)
   18ca4:	240a0001 	li	t2,1
   18ca8:	02202821 	move	a1,s1
   18cac:	02203021 	move	a2,s1
   18cb0:	a38a001c 	sb	t2,28(gp)
   18cb4:	0e000b8d 	jal	0x8002e34
   18cb8:	02208021 	move	s0,s1
   18cbc:	0a000cb0 	j	0x80032c0
   18cc0:	af82002c 	sw	v0,44(gp)
   18cc4:	00045823 	negu	t3,a0
   18cc8:	12200007 	beqz	s1,0x18ce8
   18ccc:	31640003 	andi	a0,t3,0x3
   18cd0:	3c0e8000 	lui	t6,0x8000
   18cd4:	35c70980 	ori	a3,t6,0x980
   18cd8:	90ed007c 	lbu	t5,124(a3)
   18cdc:	31ac0004 	andi	t4,t5,0x4
   18ce0:	15800019 	bnez	t4,0x18d48
   18ce4:	248f0004 	addiu	t7,a0,4
   18ce8:	3c010800 	lui	at,0x800
   18cec:	a4243ffa 	sh	a0,16378(at)
   18cf0:	3c1f0800 	lui	ra,0x800
   18cf4:	97ff3ffa 	lhu	ra,16378(ra)
   18cf8:	03e5c821 	addu	t9,ra,a1
   18cfc:	00d9c02b 	sltu	t8,a2,t9
   18d00:	1300ff6b 	beqz	t8,0x18ab0
   18d04:	8f840024 	lw	a0,36(gp)
   18d08:	2ca60005 	sltiu	a2,a1,5
   18d0c:	14c0ffa3 	bnez	a2,0x18b9c
   18d10:	24040042 	li	a0,66
   18d14:	30a20003 	andi	v0,a1,0x3
   18d18:	14400002 	bnez	v0,0x18d24
   18d1c:	00a21823 	subu	v1,a1,v0
   18d20:	24a3fffc 	addiu	v1,a1,-4
   18d24:	3c010800 	lui	at,0x800
   18d28:	ac233fdc 	sw	v1,16348(at)
   18d2c:	3c010800 	lui	at,0x800
   18d30:	a4203ffa 	sh	zero,16378(at)
   18d34:	0a000cf1 	j	0x80033c4
   18d38:	00602821 	move	a1,v1
   18d3c:	00c77024 	and	t6,a2,a3
   18d40:	0a000d17 	j	0x800345c
   18d44:	01c72026 	xor	a0,t6,a3
   18d48:	3c010800 	lui	at,0x800
   18d4c:	a42f3ffa 	sh	t7,16378(at)
   18d50:	0a000d82 	j	0x8003608
   18d54:	00000000 	nop
   18d58:	3c010800 	lui	at,0x800
   18d5c:	ac203fdc 	sw	zero,16348(at)
   18d60:	0a000d2d 	j	0x80034b4
   18d64:	24040042 	li	a0,66
   18d68:	8f830028 	lw	v1,40(gp)
   18d6c:	3c058000 	lui	a1,0x8000
   18d70:	34aa0a00 	ori	t2,a1,0xa00
   18d74:	14600006 	bnez	v1,0x18d90
   18d78:	00001021 	move	v0,zero
   18d7c:	91470030 	lbu	a3,48(t2)
   18d80:	24060005 	li	a2,5
   18d84:	30e400ff 	andi	a0,a3,0xff
   18d88:	10860003 	beq	a0,a2,0x18d98
   18d8c:	00000000 	nop
   18d90:	03e00008 	jr	ra
   18d94:	00000000 	nop
   18d98:	914b0048 	lbu	t3,72(t2)
   18d9c:	316900ff 	andi	t1,t3,0xff
   18da0:	000941c2 	srl	t0,t1,0x7
   18da4:	1500fffa 	bnez	t0,0x18d90
   18da8:	3c068008 	lui	a2,0x8008
   18dac:	3c040800 	lui	a0,0x800
   18db0:	94843fe4 	lhu	a0,16356(a0)
   18db4:	3c030800 	lui	v1,0x800
   18db8:	8c633ffc 	lw	v1,16380(v1)
   18dbc:	3c190800 	lui	t9,0x800
   18dc0:	8f393fdc 	lw	t9,16348(t9)
   18dc4:	3c0f0800 	lui	t7,0x800
   18dc8:	95ef3ffa 	lhu	t7,16378(t7)
   18dcc:	0064c021 	addu	t8,v1,a0
   18dd0:	8ccd0004 	lw	t5,4(a2)
   18dd4:	03197021 	addu	t6,t8,t9
   18dd8:	01cf6021 	addu	t4,t6,t7
   18ddc:	34ab0e00 	ori	t3,a1,0xe00
   18de0:	018d2823 	subu	a1,t4,t5
   18de4:	18a0001d 	blez	a1,0x18e5c
   18de8:	00000000 	nop
   18dec:	914f004c 	lbu	t7,76(t2)
   18df0:	8f8c0034 	lw	t4,52(gp)
   18df4:	956d0010 	lhu	t5,16(t3)
   18df8:	31ee00ff 	andi	t6,t7,0xff
   18dfc:	8d890004 	lw	t1,4(t4)
   18e00:	01ae3023 	subu	a2,t5,t6
   18e04:	8d8a0000 	lw	t2,0(t4)
   18e08:	30ceffff 	andi	t6,a2,0xffff
   18e0c:	000e2900 	sll	a1,t6,0x4
   18e10:	0125c821 	addu	t9,t1,a1
   18e14:	00003821 	move	a3,zero
   18e18:	01472021 	addu	a0,t2,a3
   18e1c:	0325182b 	sltu	v1,t9,a1
   18e20:	0083c021 	addu	t8,a0,v1
   18e24:	ad990004 	sw	t9,4(t4)
   18e28:	ad980000 	sw	t8,0(t4)
   18e2c:	918f000a 	lbu	t7,10(t4)
   18e30:	01cf6821 	addu	t5,t6,t7
   18e34:	a18d000a 	sb	t5,10(t4)
   18e38:	95650012 	lhu	a1,18(t3)
   18e3c:	8f8a0034 	lw	t2,52(gp)
   18e40:	a5450008 	sh	a1,8(t2)
   18e44:	954b0038 	lhu	t3,56(t2)
   18e48:	25690001 	addiu	t1,t3,1
   18e4c:	a5490038 	sh	t1,56(t2)
   18e50:	9148000d 	lbu	t0,13(t2)
   18e54:	35070008 	ori	a3,t0,0x8
   18e58:	a147000d 	sb	a3,13(t2)
   18e5c:	03e00008 	jr	ra
   18e60:	00000000 	nop
   18e64:	27bdffd8 	addiu	sp,sp,-40
   18e68:	afb00018 	sw	s0,24(sp)
   18e6c:	9388001c 	lbu	t0,28(gp)
   18e70:	8fb00014 	lw	s0,20(sp)
   18e74:	3c0a8000 	lui	t2,0x8000
   18e78:	3c197fff 	lui	t9,0x7fff
   18e7c:	8f870024 	lw	a3,36(gp)
   18e80:	3738ffff 	ori	t8,t9,0xffff
   18e84:	afbf0020 	sw	ra,32(sp)
   18e88:	afb1001c 	sw	s1,28(sp)
   18e8c:	355f0a00 	ori	ra,t2,0xa00
   18e90:	02181824 	and	v1,s0,t8
   18e94:	93eb003c 	lbu	t3,60(ra)
   18e98:	00087fc0 	sll	t7,t0,0x1f
   18e9c:	3c02bfff 	lui	v0,0xbfff
   18ea0:	006f6025 	or	t4,v1,t7
   18ea4:	2cf00001 	sltiu	s0,a3,1
   18ea8:	3449ffff 	ori	t1,v0,0xffff
   18eac:	3c1f0800 	lui	ra,0x800
   18eb0:	8fff3ffc 	lw	ra,16380(ra)
   18eb4:	8f990030 	lw	t9,48(gp)
   18eb8:	3c180800 	lui	t8,0x800
   18ebc:	97183ff2 	lhu	t8,16370(t8)
   18ec0:	01897824 	and	t7,t4,t1
   18ec4:	00104780 	sll	t0,s0,0x1e
   18ec8:	3c07efff 	lui	a3,0xefff
   18ecc:	3c05f0ff 	lui	a1,0xf0ff
   18ed0:	01e81825 	or	v1,t7,t0
   18ed4:	3c118000 	lui	s1,0x8000
   18ed8:	31690020 	andi	t1,t3,0x20
   18edc:	34e2ffff 	ori	v0,a3,0xffff
   18ee0:	34adffff 	ori	t5,a1,0xffff
   18ee4:	362e0980 	ori	t6,s1,0x980
   18ee8:	27a50010 	addiu	a1,sp,16
   18eec:	24060002 	li	a2,2
   18ef0:	03f96023 	subu	t4,ra,t9
   18ef4:	270b0002 	addiu	t3,t8,2
   18ef8:	354a0e00 	ori	t2,t2,0xe00
   18efc:	00621824 	and	v1,v1,v0
   18f00:	00808021 	move	s0,a0
   18f04:	15200002 	bnez	t1,0x18f10
   18f08:	00004021 	move	t0,zero
   18f0c:	8d48001c 	lw	t0,28(t2)
   18f10:	a7ab0012 	sh	t3,18(sp)
   18f14:	05800039 	bltz	t4,0x18ffc
   18f18:	24070000 	li	a3,0
   18f1c:	30e800ff 	andi	t0,a3,0xff
   18f20:	00083f00 	sll	a3,t0,0x1c
   18f24:	00675825 	or	t3,v1,a3
   18f28:	3c028008 	lui	v0,0x8008
   18f2c:	afab0014 	sw	t3,20(sp)
   18f30:	344f0080 	ori	t7,v0,0x80
   18f34:	91ea0068 	lbu	t2,104(t7)
   18f38:	3c080800 	lui	t0,0x800
   18f3c:	91083ff9 	lbu	t0,16377(t0)
   18f40:	3c09dfff 	lui	t1,0xdfff
   18f44:	352cffff 	ori	t4,t1,0xffff
   18f48:	000af82b 	sltu	ra,zero,t2
   18f4c:	3c020800 	lui	v0,0x800
   18f50:	94423fec 	lhu	v0,16364(v0)
   18f54:	a3a80011 	sb	t0,17(sp)
   18f58:	016cc024 	and	t8,t3,t4
   18f5c:	001fcf40 	sll	t9,ra,0x1d
   18f60:	03191825 	or	v1,t8,t9
   18f64:	8fa70010 	lw	a3,16(sp)
   18f68:	afa30014 	sw	v1,20(sp)
   18f6c:	3c0c0800 	lui	t4,0x800
   18f70:	918c3ffb 	lbu	t4,16379(t4)
   18f74:	a7a20016 	sh	v0,22(sp)
   18f78:	8fab0014 	lw	t3,20(sp)
   18f7c:	00ed4824 	and	t1,a3,t5
   18f80:	3c0f0100 	lui	t7,0x100
   18f84:	3c0a0fff 	lui	t2,0xfff
   18f88:	012fc825 	or	t9,t1,t7
   18f8c:	31980003 	andi	t8,t4,0x3
   18f90:	355fffff 	ori	ra,t2,0xffff
   18f94:	016d4024 	and	t0,t3,t5
   18f98:	3c027000 	lui	v0,0x7000
   18f9c:	033f3824 	and	a3,t9,ra
   18fa0:	00181e00 	sll	v1,t8,0x18
   18fa4:	00e24825 	or	t1,a3,v0
   18fa8:	01037825 	or	t7,t0,v1
   18fac:	afaf0014 	sw	t7,20(sp)
   18fb0:	afa90010 	sw	t1,16(sp)
   18fb4:	91cc007c 	lbu	t4,124(t6)
   18fb8:	0e000092 	jal	0x8000248
   18fbc:	a3ac0015 	sb	t4,21(sp)
   18fc0:	362d0a00 	ori	t5,s1,0xa00
   18fc4:	91a6003c 	lbu	a2,60(t5)
   18fc8:	30c40020 	andi	a0,a2,0x20
   18fcc:	10800006 	beqz	a0,0x18fe8
   18fd0:	26020008 	addiu	v0,s0,8
   18fd4:	3c110800 	lui	s1,0x800
   18fd8:	96313fe8 	lhu	s1,16360(s1)
   18fdc:	262effff 	addiu	t6,s1,-1
   18fe0:	3c010800 	lui	at,0x800
   18fe4:	a42e3fe8 	sh	t6,16360(at)
   18fe8:	8fbf0020 	lw	ra,32(sp)
   18fec:	8fb1001c 	lw	s1,28(sp)
   18ff0:	8fb00018 	lw	s0,24(sp)
   18ff4:	03e00008 	jr	ra
   18ff8:	27bd0028 	addiu	sp,sp,40
   18ffc:	8f8b002c 	lw	t3,44(gp)
   19000:	010b502b 	sltu	t2,t0,t3
   19004:	5540ffc5 	bnezl	t2,0x18f1c
   19008:	24070001 	li	a3,1
   1900c:	0a000e0e 	j	0x8003838
   19010:	30e800ff 	andi	t0,a3,0xff
   19014:	9383001c 	lbu	v1,28(gp)
   19018:	3c028000 	lui	v0,0x8000
   1901c:	27bdffd8 	addiu	sp,sp,-40
   19020:	34480a00 	ori	t0,v0,0xa00
   19024:	00805021 	move	t2,a0
   19028:	afbf0020 	sw	ra,32(sp)
   1902c:	34460ac0 	ori	a2,v0,0xac0
   19030:	01002821 	move	a1,t0
   19034:	1060000e 	beqz	v1,0x19070
   19038:	34440980 	ori	a0,v0,0x980
   1903c:	91070030 	lbu	a3,48(t0)
   19040:	240b0005 	li	t3,5
   19044:	8f890020 	lw	t1,32(gp)
   19048:	30ec003f 	andi	t4,a3,0x3f
   1904c:	118b000b 	beq	t4,t3,0x1907c
   19050:	00003821 	move	a3,zero
   19054:	afa90010 	sw	t1,16(sp)
   19058:	3c0b8008 	lui	t3,0x8008
   1905c:	8d69006c 	lw	t1,108(t3)
   19060:	afaa0018 	sw	t2,24(sp)
   19064:	0e00015a 	jal	0x8000568
   19068:	afa90014 	sw	t1,20(sp)
   1906c:	a380001c 	sb	zero,28(gp)
   19070:	8fbf0020 	lw	ra,32(sp)
   19074:	03e00008 	jr	ra
   19078:	27bd0028 	addiu	sp,sp,40
   1907c:	8d1f0048 	lw	ra,72(t0)
   19080:	3c180800 	lui	t8,0x800
   19084:	8f183fdc 	lw	t8,16348(t8)
   19088:	8f990028 	lw	t9,40(gp)
   1908c:	3c027fff 	lui	v0,0x7fff
   19090:	8d080044 	lw	t0,68(t0)
   19094:	3443ffff 	ori	v1,v0,0xffff
   19098:	afa90010 	sw	t1,16(sp)
   1909c:	3c0b8008 	lui	t3,0x8008
   190a0:	8d69006c 	lw	t1,108(t3)
   190a4:	03e37024 	and	t6,ra,v1
   190a8:	03197821 	addu	t7,t8,t9
   190ac:	01cf6823 	subu	t5,t6,t7
   190b0:	01a83821 	addu	a3,t5,t0
   190b4:	afaa0018 	sw	t2,24(sp)
   190b8:	0e00015a 	jal	0x8000568
   190bc:	afa90014 	sw	t1,20(sp)
   190c0:	0a000e62 	j	0x8003988
   190c4:	a380001c 	sb	zero,28(gp)
   190c8:	3c058000 	lui	a1,0x8000
   190cc:	34a60a00 	ori	a2,a1,0xa00
   190d0:	90c7003c 	lbu	a3,60(a2)
   190d4:	3c060800 	lui	a2,0x800
   190d8:	94c63ffa 	lhu	a2,16378(a2)
   190dc:	3c020800 	lui	v0,0x800
   190e0:	8c423ff4 	lw	v0,16372(v0)
   190e4:	30e30020 	andi	v1,a3,0x20
   190e8:	00062400 	sll	a0,a2,0x10
   190ec:	1060001e 	beqz	v1,0x19168
   190f0:	00443825 	or	a3,v0,a0
   190f4:	3c088008 	lui	t0,0x8008
   190f8:	35050080 	ori	a1,t0,0x80
   190fc:	90a30068 	lbu	v1,104(a1)
   19100:	00004821 	move	t1,zero
   19104:	24080001 	li	t0,1
   19108:	00002821 	move	a1,zero
   1910c:	24040001 	li	a0,1
   19110:	3c068000 	lui	a2,0x8000
   19114:	8ccd0178 	lw	t5,376(a2)
   19118:	05a0fffe 	bltz	t5,0x19114
   1911c:	34cf0140 	ori	t7,a2,0x140
   19120:	ade80008 	sw	t0,8(t7)
   19124:	3c020800 	lui	v0,0x800
   19128:	8c423ffc 	lw	v0,16380(v0)
   1912c:	a5e50004 	sh	a1,4(t7)
   19130:	a5e40006 	sh	a0,6(t7)
   19134:	ade2000c 	sw	v0,12(t7)
   19138:	3c040800 	lui	a0,0x800
   1913c:	90843ff9 	lbu	a0,16377(a0)
   19140:	3c038008 	lui	v1,0x8008
   19144:	34790080 	ori	t9,v1,0x80
   19148:	a1e40012 	sb	a0,18(t7)
   1914c:	ade70014 	sw	a3,20(t7)
   19150:	a5e90018 	sh	t1,24(t7)
   19154:	9338004c 	lbu	t8,76(t9)
   19158:	3c0e1000 	lui	t6,0x1000
   1915c:	a1f8002d 	sb	t8,45(t7)
   19160:	03e00008 	jr	ra
   19164:	acce0178 	sw	t6,376(a2)
   19168:	34a90e00 	ori	t1,a1,0xe00
   1916c:	8d28001c 	lw	t0,28(t1)
   19170:	3c0c0800 	lui	t4,0x800
   19174:	8d8c3fdc 	lw	t4,16348(t4)
   19178:	952b0016 	lhu	t3,22(t1)
   1917c:	952a0014 	lhu	t2,20(t1)
   19180:	01864821 	addu	t1,t4,a2
   19184:	3164ffff 	andi	a0,t3,0xffff
   19188:	0a000e8a 	j	0x8003a28
   1918c:	3145ffff 	andi	a1,t2,0xffff
   19190:	3c048000 	lui	a0,0x8000
   19194:	34830a00 	ori	v1,a0,0xa00
   19198:	9065003c 	lbu	a1,60(v1)
   1919c:	30a20020 	andi	v0,a1,0x20
   191a0:	10400019 	beqz	v0,0x19208
   191a4:	34870e00 	ori	a3,a0,0xe00
   191a8:	00004021 	move	t0,zero
   191ac:	00003821 	move	a3,zero
   191b0:	00002021 	move	a0,zero
   191b4:	3c068000 	lui	a2,0x8000
   191b8:	8cc90178 	lw	t1,376(a2)
   191bc:	0520fffe 	bltz	t1,0x191b8
   191c0:	34ca0140 	ori	t2,a2,0x140
   191c4:	34cf0100 	ori	t7,a2,0x100
   191c8:	91eb0009 	lbu	t3,9(t7)
   191cc:	ad480008 	sw	t0,8(t2)
   191d0:	3c0e0800 	lui	t6,0x800
   191d4:	8dce3ffc 	lw	t6,16380(t6)
   191d8:	240dff91 	li	t5,-111
   191dc:	240c0040 	li	t4,64
   191e0:	3c081000 	lui	t0,0x1000
   191e4:	a5440004 	sh	a0,4(t2)
   191e8:	a5470006 	sh	a3,6(t2)
   191ec:	ad4e000c 	sw	t6,12(t2)
   191f0:	a14d0012 	sb	t5,18(t2)
   191f4:	ad4c0014 	sw	t4,20(t2)
   191f8:	a5400018 	sh	zero,24(t2)
   191fc:	a14b002d 	sb	t3,45(t2)
   19200:	03e00008 	jr	ra
   19204:	acc80178 	sw	t0,376(a2)
   19208:	8ce80018 	lw	t0,24(a3)
   1920c:	94e60012 	lhu	a2,18(a3)
   19210:	94e40010 	lhu	a0,16(a3)
   19214:	30c7ffff 	andi	a3,a2,0xffff
   19218:	0a000eb3 	j	0x8003acc
   1921c:	3084ffff 	andi	a0,a0,0xffff
   19220:	3c048000 	lui	a0,0x8000
   19224:	34830a00 	ori	v1,a0,0xa00
   19228:	9065003c 	lbu	a1,60(v1)
   1922c:	30a20020 	andi	v0,a1,0x20
   19230:	10400027 	beqz	v0,0x192d0
   19234:	27bdfff8 	addiu	sp,sp,-8
   19238:	24090001 	li	t1,1
   1923c:	00003821 	move	a3,zero
   19240:	24080001 	li	t0,1
   19244:	3c068000 	lui	a2,0x8000
   19248:	8cca0178 	lw	t2,376(a2)
   1924c:	0540fffe 	bltz	t2,0x19248
   19250:	3c0280ff 	lui	v0,0x80ff
   19254:	34c40100 	ori	a0,a2,0x100
   19258:	908d0009 	lbu	t5,9(a0)
   1925c:	3c0c0800 	lui	t4,0x800
   19260:	918c4039 	lbu	t4,16441(t4)
   19264:	a3ad0003 	sb	t5,3(sp)
   19268:	8fab0000 	lw	t3,0(sp)
   1926c:	3185007f 	andi	a1,t4,0x7f
   19270:	3459ffff 	ori	t9,v0,0xffff
   19274:	01665025 	or	t2,t3,a2
   19278:	afaa0000 	sw	t2,0(sp)
   1927c:	9083000a 	lbu	v1,10(a0)
   19280:	a3a00002 	sb	zero,2(sp)
   19284:	00057e00 	sll	t7,a1,0x18
   19288:	a3a30001 	sb	v1,1(sp)
   1928c:	8fb80000 	lw	t8,0(sp)
   19290:	34cb0140 	ori	t3,a2,0x140
   19294:	240c3000 	li	t4,12288
   19298:	03197024 	and	t6,t8,t9
   1929c:	01cf6825 	or	t5,t6,t7
   192a0:	ad6d000c 	sw	t5,12(t3)
   192a4:	27bd0008 	addiu	sp,sp,8
   192a8:	ad6c0014 	sw	t4,20(t3)
   192ac:	a5600018 	sh	zero,24(t3)
   192b0:	ad690008 	sw	t1,8(t3)
   192b4:	a5670004 	sh	a3,4(t3)
   192b8:	2409ff80 	li	t1,-128
   192bc:	a5680006 	sh	t0,6(t3)
   192c0:	3c081000 	lui	t0,0x1000
   192c4:	a1690012 	sb	t1,18(t3)
   192c8:	03e00008 	jr	ra
   192cc:	acc80178 	sw	t0,376(a2)
   192d0:	34870e00 	ori	a3,a0,0xe00
   192d4:	8ce90018 	lw	t1,24(a3)
   192d8:	94e60012 	lhu	a2,18(a3)
   192dc:	94e40010 	lhu	a0,16(a3)
   192e0:	30c8ffff 	andi	t0,a2,0xffff
   192e4:	0a000ed7 	j	0x8003b5c
   192e8:	3087ffff 	andi	a3,a0,0xffff
   192ec:	27bdffe0 	addiu	sp,sp,-32
   192f0:	afb10014 	sw	s1,20(sp)
   192f4:	3c118000 	lui	s1,0x8000
   192f8:	afb00010 	sw	s0,16(sp)
   192fc:	afbf0018 	sw	ra,24(sp)
   19300:	36380a00 	ori	t8,s1,0xa00
   19304:	970f0032 	lhu	t7,50(t8)
   19308:	36300100 	ori	s0,s1,0x100
   1930c:	0e000b89 	jal	0x8002e24
   19310:	31e43fff 	andi	a0,t7,0x3fff
   19314:	8e0e0000 	lw	t6,0(s0)
   19318:	240dff80 	li	t5,-128
   1931c:	3c042000 	lui	a0,0x2000
   19320:	01c25821 	addu	t3,t6,v0
   19324:	016d6024 	and	t4,t3,t5
   19328:	000c4940 	sll	t1,t4,0x5
   1932c:	316a007f 	andi	t2,t3,0x7f
   19330:	012a4025 	or	t0,t1,t2
   19334:	01043825 	or	a3,t0,a0
   19338:	3c048008 	lui	a0,0x8008
   1933c:	ae270830 	sw	a3,2096(s1)
   19340:	34860080 	ori	a2,a0,0x80
   19344:	90c50068 	lbu	a1,104(a2)
   19348:	24030002 	li	v1,2
   1934c:	30a200ff 	andi	v0,a1,0xff
   19350:	10430004 	beq	v0,v1,0x19364
   19354:	8f9f0020 	lw	ra,32(gp)
   19358:	8f990024 	lw	t9,36(gp)
   1935c:	ac9f0068 	sw	ra,104(a0)
   19360:	ac990064 	sw	t9,100(a0)
   19364:	8fbf0018 	lw	ra,24(sp)
   19368:	8fb10014 	lw	s1,20(sp)
   1936c:	8fb00010 	lw	s0,16(sp)
   19370:	03e00008 	jr	ra
   19374:	27bd0020 	addiu	sp,sp,32
   19378:	3c0a0800 	lui	t2,0x800
   1937c:	254a3aa8 	addiu	t2,t2,15016
   19380:	3c090800 	lui	t1,0x800
   19384:	25293b38 	addiu	t1,t1,15160
   19388:	3c080800 	lui	t0,0x800
   1938c:	25082f44 	addiu	t0,t0,12100
   19390:	3c070800 	lui	a3,0x800
   19394:	24e73c04 	addiu	a3,a3,15364
   19398:	3c060800 	lui	a2,0x800
   1939c:	24c6392c 	addiu	a2,a2,14636
   193a0:	3c050800 	lui	a1,0x800
   193a4:	24a53680 	addiu	a1,a1,13952
   193a8:	3c040800 	lui	a0,0x800
   193ac:	24843284 	addiu	a0,a0,12932
   193b0:	3c030800 	lui	v1,0x800
   193b4:	246339e0 	addiu	v1,v1,14816
   193b8:	3c020800 	lui	v0,0x800
   193bc:	2442377c 	addiu	v0,v0,14204
   193c0:	3c010800 	lui	at,0x800
   193c4:	ac2a3fb8 	sw	t2,16312(at)
   193c8:	3c010800 	lui	at,0x800
   193cc:	ac293fb4 	sw	t1,16308(at)
   193d0:	3c010800 	lui	at,0x800
   193d4:	ac283fb0 	sw	t0,16304(at)
   193d8:	3c010800 	lui	at,0x800
   193dc:	ac273fbc 	sw	a3,16316(at)
   193e0:	3c010800 	lui	at,0x800
   193e4:	ac263fcc 	sw	a2,16332(at)
   193e8:	3c010800 	lui	at,0x800
   193ec:	ac253fc4 	sw	a1,16324(at)
   193f0:	3c010800 	lui	at,0x800
   193f4:	ac243fc0 	sw	a0,16320(at)
   193f8:	3c010800 	lui	at,0x800
   193fc:	ac233fd0 	sw	v1,16336(at)
   19400:	3c010800 	lui	at,0x800
   19404:	ac223fc8 	sw	v0,16328(at)
   19408:	03e00008 	jr	ra
   1940c:	00000000 	nop
   19410:	80000940 	lb	zero,2368(zero)
   19414:	80000900 	lb	zero,2304(zero)
   19418:	80080100 	lb	t0,256(zero)
   1941c:	80080080 	lb	t0,128(zero)
   19420:	80080000 	lb	t0,0(zero)
   19424:	800e0000 	lb	t6,0(zero)
   19428:	80080080 	lb	t0,128(zero)
   1942c:	80080000 	lb	t0,0(zero)
   19430:	80000a80 	lb	zero,2688(zero)
   19434:	80000a00 	lb	zero,2560(zero)
   19438:	80000980 	lb	zero,2432(zero)
   1943c:	80000900 	lb	zero,2304(zero)