../git/linux-firmware/./acenic/tg1.bin:     file format binary


Disassembly of section .data:

00000000 <.data>:
       0:	0c040b00 	jal	0x102c00
       4:	00004000 	sll	t0,zero,0x0
       8:	00004000 	sll	t0,zero,0x0
       c:	10000003 	b	0x1c
      10:	00000000 	nop
      14:	0000000d 	break
      18:	0000000d 	break
      1c:	3c1d0001 	lui	sp,0x1
      20:	8fbd5c54 	lw	sp,23636(sp)
      24:	03a0f021 	move	s8,sp
      28:	3c100000 	lui	s0,0x0
      2c:	26104000 	addiu	s0,s0,16384
      30:	0c00100c 	jal	0x4030
      34:	00000000 	nop
      38:	0000000d 	break
      3c:	27bdffd8 	addiu	sp,sp,-40
      40:	3c1cc000 	lui	gp,0xc000
      44:	3c1b0013 	lui	k1,0x13
      48:	377bd800 	ori	k1,k1,0xd800
      4c:	0000d021 	move	k0,zero
      50:	3c170013 	lui	s7,0x13
      54:	36f75418 	ori	s7,s7,0x5418
      58:	02e02021 	move	a0,s7
      5c:	340583e8 	li	a1,0x83e8
      60:	afbf0024 	sw	ra,36(sp)
      64:	0c002488 	jal	0x9220
      68:	afb00020 	sw	s0,32(sp)
      6c:	0c0023e8 	jal	0x8fa0
      70:	00000000 	nop
      74:	3c040001 	lui	a0,0x1
      78:	248451a4 	addiu	a0,a0,20900
      7c:	24050001 	li	a1,1
      80:	02e03021 	move	a2,s7
      84:	00003821 	move	a3,zero
      88:	3c100001 	lui	s0,0x1
      8c:	26107e50 	addiu	s0,s0,32336
      90:	afb00010 	sw	s0,16(sp)
      94:	0c002403 	jal	0x900c
      98:	afbb0014 	sw	k1,20(sp)
      9c:	3c02000f 	lui	v0,0xf
      a0:	3442ffff 	ori	v0,v0,0xffff
      a4:	02021024 	and	v0,s0,v0
      a8:	0362102b 	sltu	v0,k1,v0
      ac:	10400009 	beqz	v0,0xd4
      b0:	24050003 	li	a1,3
      b4:	3c040001 	lui	a0,0x1
      b8:	248451b0 	addiu	a0,a0,20912
      bc:	02003021 	move	a2,s0
      c0:	03603821 	move	a3,k1
      c4:	3c020010 	lui	v0,0x10
      c8:	afa20010 	sw	v0,16(sp)
      cc:	0c002403 	jal	0x900c
      d0:	afa00014 	sw	zero,20(sp)
      d4:	00002021 	move	a0,zero
      d8:	3405c000 	li	a1,0xc000
      dc:	3c010001 	lui	at,0x1
      e0:	00370821 	addu	at,at,s7
      e4:	a02083b0 	sb	zero,-31824(at)
      e8:	3c010001 	lui	at,0x1
      ec:	00370821 	addu	at,at,s7
      f0:	a02083b2 	sb	zero,-31822(at)
      f4:	3c010001 	lui	at,0x1
      f8:	00370821 	addu	at,at,s7
      fc:	a02083b3 	sb	zero,-31821(at)
     100:	3c010001 	lui	at,0x1
     104:	00370821 	addu	at,at,s7
     108:	ac2083b4 	sw	zero,-31820(at)
     10c:	a2e004d8 	sb	zero,1240(s7)
     110:	000418c0 	sll	v1,a0,0x3
     114:	24840001 	addiu	a0,a0,1
     118:	00771021 	addu	v0,v1,s7
     11c:	ac40727c 	sw	zero,29308(v0)
     120:	00771021 	addu	v0,v1,s7
     124:	ac407280 	sw	zero,29312(v0)
     128:	02e31021 	addu	v0,s7,v1
     12c:	a445727c 	sh	a1,29308(v0)
     130:	2c820020 	sltiu	v0,a0,32
     134:	1440fff7 	bnez	v0,0x114
     138:	000418c0 	sll	v1,a0,0x3
     13c:	00002021 	move	a0,zero
     140:	3405c000 	li	a1,0xc000
     144:	000418c0 	sll	v1,a0,0x3
     148:	24840001 	addiu	a0,a0,1
     14c:	00771021 	addu	v0,v1,s7
     150:	ac40737c 	sw	zero,29564(v0)
     154:	00771021 	addu	v0,v1,s7
     158:	ac407380 	sw	zero,29568(v0)
     15c:	02e31021 	addu	v0,s7,v1
     160:	a445737c 	sh	a1,29564(v0)
     164:	2c820080 	sltiu	v0,a0,128
     168:	5440fff7 	bnezl	v0,0x148
     16c:	000418c0 	sll	v1,a0,0x3
     170:	af800054 	sw	zero,84(gp)
     174:	af80011c 	sw	zero,284(gp)
     178:	8f820044 	lw	v0,68(gp)
     17c:	34420040 	ori	v0,v0,0x40
     180:	af820044 	sw	v0,68(gp)
     184:	8f820044 	lw	v0,68(gp)
     188:	34420020 	ori	v0,v0,0x20
     18c:	af820044 	sw	v0,68(gp)
     190:	8f420218 	lw	v0,536(k0)
     194:	30420002 	andi	v0,v0,0x2
     198:	10400009 	beqz	v0,0x1c0
     19c:	00000000 	nop
     1a0:	8f420220 	lw	v0,544(k0)
     1a4:	3c030002 	lui	v1,0x2
     1a8:	34630004 	ori	v1,v1,0x4
     1ac:	00431025 	or	v0,v0,v1
     1b0:	aee204c4 	sw	v0,1220(s7)
     1b4:	8f42021c 	lw	v0,540(k0)
     1b8:	08001074 	j	0x41d0
     1bc:	34420004 	ori	v0,v0,0x4
     1c0:	8f420220 	lw	v0,544(k0)
     1c4:	3c030002 	lui	v1,0x2
     1c8:	34630006 	ori	v1,v1,0x6
     1cc:	00431025 	or	v0,v0,v1
     1d0:	aee204c4 	sw	v0,1220(s7)
     1d4:	8f42021c 	lw	v0,540(k0)
     1d8:	34420006 	ori	v0,v0,0x6
     1dc:	aee204cc 	sw	v0,1228(s7)
     1e0:	8f420218 	lw	v0,536(k0)
     1e4:	30420010 	andi	v0,v0,0x10
     1e8:	1040000a 	beqz	v0,0x214
     1ec:	00000000 	nop
     1f0:	8f42021c 	lw	v0,540(k0)
     1f4:	34420004 	ori	v0,v0,0x4
     1f8:	aee204c8 	sw	v0,1224(s7)
     1fc:	8f420220 	lw	v0,544(k0)
     200:	3c03000a 	lui	v1,0xa
     204:	34630004 	ori	v1,v1,0x4
     208:	00431025 	or	v0,v0,v1
     20c:	0800108a 	j	0x4228
     210:	aee204c0 	sw	v0,1216(s7)
     214:	8f420220 	lw	v0,544(k0)
     218:	3c03000a 	lui	v1,0xa
     21c:	34630006 	ori	v1,v1,0x6
     220:	00431025 	or	v0,v0,v1
     224:	aee204c0 	sw	v0,1216(s7)
     228:	8f42021c 	lw	v0,540(k0)
     22c:	34420006 	ori	v0,v0,0x6
     230:	aee204c8 	sw	v0,1224(s7)
     234:	8f420218 	lw	v0,536(k0)
     238:	30420200 	andi	v0,v0,0x200
     23c:	10400003 	beqz	v0,0x24c
     240:	24020001 	li	v0,1
     244:	08001091 	j	0x4244
     248:	a2e27248 	sb	v0,29256(s7)
     24c:	a2e07248 	sb	zero,29256(s7)
     250:	24020001 	li	v0,1
     254:	af8200a0 	sw	v0,160(gp)
     258:	af8200b0 	sw	v0,176(gp)
     25c:	8f830054 	lw	v1,84(gp)
     260:	8f820054 	lw	v0,84(gp)
     264:	08001099 	j	0x4264
     268:	24630064 	addiu	v1,v1,100
     26c:	8f820054 	lw	v0,84(gp)
     270:	00621023 	subu	v0,v1,v0
     274:	2c420065 	sltiu	v0,v0,101
     278:	1440fffc 	bnez	v0,0x26c
     27c:	00000000 	nop
     280:	af800044 	sw	zero,68(gp)
     284:	8f420208 	lw	v0,520(k0)
     288:	8f43020c 	lw	v1,524(k0)
     28c:	aee20010 	sw	v0,16(s7)
     290:	aee30014 	sw	v1,20(s7)
     294:	8ee40010 	lw	a0,16(s7)
     298:	8ee50014 	lw	a1,20(s7)
     29c:	26e20030 	addiu	v0,s7,48
     2a0:	aee20028 	sw	v0,40(s7)
     2a4:	24020490 	li	v0,1168
     2a8:	aee20018 	sw	v0,24(s7)
     2ac:	af840090 	sw	a0,144(gp)
     2b0:	af850094 	sw	a1,148(gp)
     2b4:	8ee20028 	lw	v0,40(s7)
     2b8:	af8200b4 	sw	v0,180(gp)
     2bc:	96e2001a 	lhu	v0,26(s7)
     2c0:	af82009c 	sw	v0,156(gp)
     2c4:	8f8200b0 	lw	v0,176(gp)
     2c8:	8ee304cc 	lw	v1,1228(s7)
     2cc:	00431025 	or	v0,v0,v1
     2d0:	af8200b0 	sw	v0,176(gp)
     2d4:	8f8200b0 	lw	v0,176(gp)
     2d8:	30420004 	andi	v0,v0,0x4
     2dc:	1440fffd 	bnez	v0,0x2d4
     2e0:	00000000 	nop
     2e4:	8ee20450 	lw	v0,1104(s7)
     2e8:	8ee30454 	lw	v1,1108(s7)
     2ec:	aee304fc 	sw	v1,1276(s7)
     2f0:	8ee204fc 	lw	v0,1276(s7)
     2f4:	2442e000 	addiu	v0,v0,-8192
     2f8:	2c422001 	sltiu	v0,v0,8193
     2fc:	1440000d 	bnez	v0,0x334
     300:	26e40030 	addiu	a0,s7,48
     304:	8ee20450 	lw	v0,1104(s7)
     308:	8ee30454 	lw	v1,1108(s7)
     30c:	3c040001 	lui	a0,0x1
     310:	248451bc 	addiu	a0,a0,20924
     314:	3c050001 	lui	a1,0x1
     318:	afa00010 	sw	zero,16(sp)
     31c:	afa00014 	sw	zero,20(sp)
     320:	8ee704fc 	lw	a3,1276(s7)
     324:	34a5f000 	ori	a1,a1,0xf000
     328:	0c002403 	jal	0x900c
     32c:	00603021 	move	a2,v1
     330:	26e40030 	addiu	a0,s7,48
     334:	0c002488 	jal	0x9220
     338:	24050400 	li	a1,1024
     33c:	27440080 	addiu	a0,k0,128
     340:	0c002488 	jal	0x9220
     344:	24050080 	li	a1,128
     348:	26e4777c 	addiu	a0,s7,30588
     34c:	0c002488 	jal	0x9220
     350:	24050400 	li	a1,1024
     354:	8f42025c 	lw	v0,604(k0)
     358:	26e40094 	addiu	a0,s7,148
     35c:	aee20060 	sw	v0,96(s7)
     360:	8f420260 	lw	v0,608(k0)
     364:	27450200 	addiu	a1,k0,512
     368:	24060008 	li	a2,8
     36c:	aee20068 	sw	v0,104(s7)
     370:	24020006 	li	v0,6
     374:	0c00249a 	jal	0x9268
     378:	aee20064 	sw	v0,100(s7)
     37c:	3c023b9a 	lui	v0,0x3b9a
     380:	3442ca00 	ori	v0,v0,0xca00
     384:	00002021 	move	a0,zero
     388:	24030002 	li	v1,2
     38c:	aee30074 	sw	v1,116(s7)
     390:	aee30070 	sw	v1,112(s7)
     394:	aee2006c 	sw	v0,108(s7)
     398:	240203e8 	li	v0,1000
     39c:	aee20104 	sw	v0,260(s7)
     3a0:	24020001 	li	v0,1
     3a4:	aee30100 	sw	v1,256(s7)
     3a8:	aee2010c 	sw	v0,268(s7)
     3ac:	3c030001 	lui	v1,0x1
     3b0:	00641821 	addu	v1,v1,a0
     3b4:	90635c20 	lbu	v1,23584(v1)
     3b8:	02e41021 	addu	v0,s7,a0
     3bc:	24840001 	addiu	a0,a0,1
     3c0:	a043009c 	sb	v1,156(v0)
     3c4:	2c82000f 	sltiu	v0,a0,15
     3c8:	1440fff8 	bnez	v0,0x3ac
     3cc:	00000000 	nop
     3d0:	8f820040 	lw	v0,64(gp)
     3d4:	02e41821 	addu	v1,s7,a0
     3d8:	24840001 	addiu	a0,a0,1
     3dc:	00021702 	srl	v0,v0,0x1c
     3e0:	24420030 	addiu	v0,v0,48
     3e4:	a062009c 	sb	v0,156(v1)
     3e8:	02e41021 	addu	v0,s7,a0
     3ec:	a040009c 	sb	zero,156(v0)
     3f0:	96e2046a 	lhu	v0,1130(s7)
     3f4:	30420003 	andi	v0,v0,0x3
     3f8:	14400009 	bnez	v0,0x420
     3fc:	00000000 	nop
     400:	96e2047a 	lhu	v0,1146(s7)
     404:	30420003 	andi	v0,v0,0x3
     408:	50400131 	beqzl	v0,0x8d0
     40c:	3c030800 	lui	v1,0x800
     410:	96e2046a 	lhu	v0,1130(s7)
     414:	30420003 	andi	v0,v0,0x3
     418:	1040002a 	beqz	v0,0x4c4
     41c:	3c020700 	lui	v0,0x700
     420:	96e2047a 	lhu	v0,1146(s7)
     424:	30420003 	andi	v0,v0,0x3
     428:	10400026 	beqz	v0,0x4c4
     42c:	3c020700 	lui	v0,0x700
     430:	96e3047a 	lhu	v1,1146(s7)
     434:	96e2046a 	lhu	v0,1130(s7)
     438:	14620022 	bne	v1,v0,0x4c4
     43c:	3c020700 	lui	v0,0x700
     440:	8ee204c0 	lw	v0,1216(s7)
     444:	24030001 	li	v1,1
     448:	a2e34e20 	sb	v1,20000(s7)
     44c:	34420e00 	ori	v0,v0,0xe00
     450:	aee204c0 	sw	v0,1216(s7)
     454:	8f420218 	lw	v0,536(k0)
     458:	30420100 	andi	v0,v0,0x100
     45c:	10400005 	beqz	v0,0x474
     460:	00000000 	nop
     464:	3c020001 	lui	v0,0x1
     468:	2442e168 	addiu	v0,v0,-7832
     46c:	0800111d 	j	0x4474
     470:	00021100 	sll	v0,v0,0x4
     474:	3c020001 	lui	v0,0x1
     478:	2442d35c 	addiu	v0,v0,-11428
     47c:	00021100 	sll	v0,v0,0x4
     480:	00021182 	srl	v0,v0,0x6
     484:	3c030800 	lui	v1,0x800
     488:	00431025 	or	v0,v0,v1
     48c:	3c010001 	lui	at,0x1
     490:	ac221238 	sw	v0,4664(at)
     494:	3c020001 	lui	v0,0x1
     498:	2442f680 	addiu	v0,v0,-2432
     49c:	00021100 	sll	v0,v0,0x4
     4a0:	00021182 	srl	v0,v0,0x6
     4a4:	3c030800 	lui	v1,0x800
     4a8:	00431025 	or	v0,v0,v1
     4ac:	3c010001 	lui	at,0x1
     4b0:	ac221278 	sw	v0,4728(at)
     4b4:	8ee20000 	lw	v0,0(s7)
     4b8:	34424000 	ori	v0,v0,0x4000
     4bc:	08001238 	j	0x48e0
     4c0:	aee20000 	sw	v0,0(s7)
     4c4:	34423000 	ori	v0,v0,0x3000
     4c8:	afa20018 	sw	v0,24(sp)
     4cc:	8ee20608 	lw	v0,1544(s7)
     4d0:	8f430228 	lw	v1,552(k0)
     4d4:	24420001 	addiu	v0,v0,1
     4d8:	304900ff 	andi	t1,v0,0xff
     4dc:	512300e2 	beql	t1,v1,0x868
     4e0:	afa00010 	sw	zero,16(sp)
     4e4:	8ee20608 	lw	v0,1544(s7)
     4e8:	000210c0 	sll	v0,v0,0x3
     4ec:	00571021 	addu	v0,v0,s7
     4f0:	8fa30018 	lw	v1,24(sp)
     4f4:	8fa4001c 	lw	a0,28(sp)
     4f8:	ac43060c 	sw	v1,1548(v0)
     4fc:	ac440610 	sw	a0,1552(v0)
     500:	8f870120 	lw	a3,288(gp)
     504:	27623800 	addiu	v0,k1,14336
     508:	24e80020 	addiu	t0,a3,32
     50c:	0102102b 	sltu	v0,t0,v0
     510:	50400001 	beqzl	v0,0x518
     514:	27683000 	addiu	t0,k1,12288
     518:	8f820128 	lw	v0,296(gp)
     51c:	11020004 	beq	t0,v0,0x530
     520:	00000000 	nop
     524:	8f820124 	lw	v0,292(gp)
     528:	15020007 	bne	t0,v0,0x548
     52c:	00001021 	move	v0,zero
     530:	8ee201a4 	lw	v0,420(s7)
     534:	00003021 	move	a2,zero
     538:	24420001 	addiu	v0,v0,1
     53c:	aee201a4 	sw	v0,420(s7)
     540:	080011a0 	j	0x4680
     544:	8ee201a4 	lw	v0,420(s7)
     548:	8ee40608 	lw	a0,1544(s7)
     54c:	000420c0 	sll	a0,a0,0x3
     550:	00801821 	move	v1,a0
     554:	8ee40430 	lw	a0,1072(s7)
     558:	8ee50434 	lw	a1,1076(s7)
     55c:	00a32821 	addu	a1,a1,v1
     560:	00a3302b 	sltu	a2,a1,v1
     564:	00822021 	addu	a0,a0,v0
     568:	00862021 	addu	a0,a0,a2
     56c:	ace40000 	sw	a0,0(a3)
     570:	ace50004 	sw	a1,4(a3)
     574:	8ee30608 	lw	v1,1544(s7)
     578:	24020008 	li	v0,8
     57c:	a4e2000e 	sh	v0,14(a3)
     580:	2402000d 	li	v0,13
     584:	ace20018 	sw	v0,24(a3)
     588:	ace9001c 	sw	t1,28(a3)
     58c:	000318c0 	sll	v1,v1,0x3
     590:	2463060c 	addiu	v1,v1,1548
     594:	02e31021 	addu	v0,s7,v1
     598:	ace20008 	sw	v0,8(a3)
     59c:	8ee204c4 	lw	v0,1220(s7)
     5a0:	ace20010 	sw	v0,16(a3)
     5a4:	af880120 	sw	t0,288(gp)
     5a8:	92e24e20 	lbu	v0,20000(s7)
     5ac:	14400037 	bnez	v0,0x68c
     5b0:	24060001 	li	a2,1
     5b4:	8ee24e30 	lw	v0,20016(s7)
     5b8:	000210c0 	sll	v0,v0,0x3
     5bc:	24425038 	addiu	v0,v0,20536
     5c0:	02e22021 	addu	a0,s7,v0
     5c4:	8c830000 	lw	v1,0(a0)
     5c8:	24020007 	li	v0,7
     5cc:	1462001f 	bne	v1,v0,0x64c
     5d0:	00000000 	nop
     5d4:	8ee34e30 	lw	v1,20016(s7)
     5d8:	8ee24e34 	lw	v0,20020(s7)
     5dc:	1062001b 	beq	v1,v0,0x64c
     5e0:	24030040 	li	v1,64
     5e4:	8c820004 	lw	v0,4(a0)
     5e8:	24420001 	addiu	v0,v0,1
     5ec:	ac820004 	sw	v0,4(a0)
     5f0:	8ee24e34 	lw	v0,20020(s7)
     5f4:	8ee54e30 	lw	a1,20016(s7)
     5f8:	24420001 	addiu	v0,v0,1
     5fc:	10430007 	beq	v0,v1,0x61c
     600:	00000000 	nop
     604:	8ee24e34 	lw	v0,20020(s7)
     608:	24420001 	addiu	v0,v0,1
     60c:	10a20005 	beq	a1,v0,0x624
     610:	00000000 	nop
     614:	0800118a 	j	0x4628
     618:	00000000 	nop
     61c:	14a00005 	bnez	a1,0x634
     620:	00000000 	nop
     624:	8f820128 	lw	v0,296(gp)
     628:	24420020 	addiu	v0,v0,32
     62c:	af820128 	sw	v0,296(gp)
     630:	8f820128 	lw	v0,296(gp)
     634:	8c820004 	lw	v0,4(a0)
     638:	2c420011 	sltiu	v0,v0,17
     63c:	50400013 	beqzl	v0,0x68c
     640:	ac800000 	sw	zero,0(a0)
     644:	080011a0 	j	0x4680
     648:	00000000 	nop
     64c:	8ee24e30 	lw	v0,20016(s7)
     650:	24030040 	li	v1,64
     654:	24420001 	addiu	v0,v0,1
     658:	50430003 	beql	v0,v1,0x668
     65c:	00001021 	move	v0,zero
     660:	8ee24e30 	lw	v0,20016(s7)
     664:	24420001 	addiu	v0,v0,1
     668:	aee24e30 	sw	v0,20016(s7)
     66c:	8ee24e30 	lw	v0,20016(s7)
     670:	000210c0 	sll	v0,v0,0x3
     674:	24425038 	addiu	v0,v0,20536
     678:	02e22021 	addu	a0,s7,v0
     67c:	24020007 	li	v0,7
     680:	ac820000 	sw	v0,0(a0)
     684:	24020001 	li	v0,1
     688:	ac820004 	sw	v0,4(a0)
     68c:	54c0000c 	bnezl	a2,0x6c0
     690:	aee90608 	sw	t1,1544(s7)
     694:	3c040001 	lui	a0,0x1
     698:	248451c8 	addiu	a0,a0,20936
     69c:	afa00010 	sw	zero,16(sp)
     6a0:	afa00014 	sw	zero,20(sp)
     6a4:	8ee60608 	lw	a2,1544(s7)
     6a8:	8f470228 	lw	a3,552(k0)
     6ac:	3c050009 	lui	a1,0x9
     6b0:	0c002403 	jal	0x900c
     6b4:	34a5f000 	ori	a1,a1,0xf000
     6b8:	08001223 	j	0x488c
     6bc:	00000000 	nop
     6c0:	8f830120 	lw	v1,288(gp)
     6c4:	27623800 	addiu	v0,k1,14336
     6c8:	24660020 	addiu	a2,v1,32
     6cc:	00c2102b 	sltu	v0,a2,v0
     6d0:	50400001 	beqzl	v0,0x6d8
     6d4:	27663000 	addiu	a2,k1,12288
     6d8:	8f820128 	lw	v0,296(gp)
     6dc:	10c20004 	beq	a2,v0,0x6f0
     6e0:	00000000 	nop
     6e4:	8f820124 	lw	v0,292(gp)
     6e8:	14c20007 	bne	a2,v0,0x708
     6ec:	00000000 	nop
     6f0:	8ee201a4 	lw	v0,420(s7)
     6f4:	00003021 	move	a2,zero
     6f8:	24420001 	addiu	v0,v0,1
     6fc:	aee201a4 	sw	v0,420(s7)
     700:	08001207 	j	0x481c
     704:	8ee201a4 	lw	v0,420(s7)
     708:	8ee20608 	lw	v0,1544(s7)
     70c:	ac62001c 	sw	v0,28(v1)
     710:	8ee404a0 	lw	a0,1184(s7)
     714:	8ee504a4 	lw	a1,1188(s7)
     718:	2462001c 	addiu	v0,v1,28
     71c:	ac620008 	sw	v0,8(v1)
     720:	24020008 	li	v0,8
     724:	a462000e 	sh	v0,14(v1)
     728:	24020011 	li	v0,17
     72c:	ac620018 	sw	v0,24(v1)
     730:	ac640000 	sw	a0,0(v1)
     734:	ac650004 	sw	a1,4(v1)
     738:	8ee204c4 	lw	v0,1220(s7)
     73c:	ac620010 	sw	v0,16(v1)
     740:	af860120 	sw	a2,288(gp)
     744:	92e24e20 	lbu	v0,20000(s7)
     748:	14400037 	bnez	v0,0x828
     74c:	24060001 	li	a2,1
     750:	8ee24e30 	lw	v0,20016(s7)
     754:	000210c0 	sll	v0,v0,0x3
     758:	24425038 	addiu	v0,v0,20536
     75c:	02e22021 	addu	a0,s7,v0
     760:	8c830000 	lw	v1,0(a0)
     764:	24020012 	li	v0,18
     768:	1462001f 	bne	v1,v0,0x7e8
     76c:	00000000 	nop
     770:	8ee34e30 	lw	v1,20016(s7)
     774:	8ee24e34 	lw	v0,20020(s7)
     778:	1062001b 	beq	v1,v0,0x7e8
     77c:	24030040 	li	v1,64
     780:	8c820004 	lw	v0,4(a0)
     784:	24420001 	addiu	v0,v0,1
     788:	ac820004 	sw	v0,4(a0)
     78c:	8ee24e34 	lw	v0,20020(s7)
     790:	8ee54e30 	lw	a1,20016(s7)
     794:	24420001 	addiu	v0,v0,1
     798:	10430007 	beq	v0,v1,0x7b8
     79c:	00000000 	nop
     7a0:	8ee24e34 	lw	v0,20020(s7)
     7a4:	24420001 	addiu	v0,v0,1
     7a8:	10a20005 	beq	a1,v0,0x7c0
     7ac:	00000000 	nop
     7b0:	080011f1 	j	0x47c4
     7b4:	00000000 	nop
     7b8:	14a00005 	bnez	a1,0x7d0
     7bc:	00000000 	nop
     7c0:	8f820128 	lw	v0,296(gp)
     7c4:	24420020 	addiu	v0,v0,32
     7c8:	af820128 	sw	v0,296(gp)
     7cc:	8f820128 	lw	v0,296(gp)
     7d0:	8c820004 	lw	v0,4(a0)
     7d4:	2c420011 	sltiu	v0,v0,17
     7d8:	50400013 	beqzl	v0,0x828
     7dc:	ac800000 	sw	zero,0(a0)
     7e0:	08001207 	j	0x481c
     7e4:	00000000 	nop
     7e8:	8ee24e30 	lw	v0,20016(s7)
     7ec:	24030040 	li	v1,64
     7f0:	24420001 	addiu	v0,v0,1
     7f4:	50430003 	beql	v0,v1,0x804
     7f8:	00001021 	move	v0,zero
     7fc:	8ee24e30 	lw	v0,20016(s7)
     800:	24420001 	addiu	v0,v0,1
     804:	aee24e30 	sw	v0,20016(s7)
     808:	8ee24e30 	lw	v0,20016(s7)
     80c:	000210c0 	sll	v0,v0,0x3
     810:	24425038 	addiu	v0,v0,20536
     814:	02e22021 	addu	a0,s7,v0
     818:	24020012 	li	v0,18
     81c:	ac820000 	sw	v0,0(a0)
     820:	24020001 	li	v0,1
     824:	ac820004 	sw	v0,4(a0)
     828:	14c0001b 	bnez	a2,0x898
     82c:	00000000 	nop
     830:	3c040001 	lui	a0,0x1
     834:	248451d0 	addiu	a0,a0,20944
     838:	afa00010 	sw	zero,16(sp)
     83c:	afa00014 	sw	zero,20(sp)
     840:	8ee60608 	lw	a2,1544(s7)
     844:	8f470228 	lw	a3,552(k0)
     848:	3c050009 	lui	a1,0x9
     84c:	0c002403 	jal	0x900c
     850:	34a5f001 	ori	a1,a1,0xf001
     854:	8ee201b0 	lw	v0,432(s7)
     858:	24420001 	addiu	v0,v0,1
     85c:	aee201b0 	sw	v0,432(s7)
     860:	08001223 	j	0x488c
     864:	8ee201b0 	lw	v0,432(s7)
     868:	3c040001 	lui	a0,0x1
     86c:	248451dc 	addiu	a0,a0,20956
     870:	afa00014 	sw	zero,20(sp)
     874:	8ee60608 	lw	a2,1544(s7)
     878:	8f470228 	lw	a3,552(k0)
     87c:	3c050009 	lui	a1,0x9
     880:	0c002403 	jal	0x900c
     884:	34a5f005 	ori	a1,a1,0xf005
     888:	8ee201ac 	lw	v0,428(s7)
     88c:	24420001 	addiu	v0,v0,1
     890:	aee201ac 	sw	v0,428(s7)
     894:	8ee201ac 	lw	v0,428(s7)
     898:	8ee20160 	lw	v0,352(s7)
     89c:	3c040001 	lui	a0,0x1
     8a0:	248451e8 	addiu	a0,a0,20968
     8a4:	3405f001 	li	a1,0xf001
     8a8:	24420001 	addiu	v0,v0,1
     8ac:	aee20160 	sw	v0,352(s7)
     8b0:	8ee20160 	lw	v0,352(s7)
     8b4:	00003021 	move	a2,zero
     8b8:	00003821 	move	a3,zero
     8bc:	afa00010 	sw	zero,16(sp)
     8c0:	0c002403 	jal	0x900c
     8c4:	afa00014 	sw	zero,20(sp)
     8c8:	08001238 	j	0x48e0
     8cc:	00000000 	nop
     8d0:	3c020001 	lui	v0,0x1
     8d4:	2442f5a8 	addiu	v0,v0,-2648
     8d8:	00021100 	sll	v0,v0,0x4
     8dc:	00021182 	srl	v0,v0,0x6
     8e0:	00431025 	or	v0,v0,v1
     8e4:	3c010001 	lui	at,0x1
     8e8:	ac221278 	sw	v0,4728(at)
     8ec:	96e2045a 	lhu	v0,1114(s7)
     8f0:	30420003 	andi	v0,v0,0x3
     8f4:	10400025 	beqz	v0,0x98c
     8f8:	3c050fff 	lui	a1,0xfff
     8fc:	8ee204c8 	lw	v0,1224(s7)
     900:	34a5ffff 	ori	a1,a1,0xffff
     904:	34420a00 	ori	v0,v0,0xa00
     908:	aee204c8 	sw	v0,1224(s7)
     90c:	8ee304c8 	lw	v1,1224(s7)
     910:	3c040001 	lui	a0,0x1
     914:	248451f4 	addiu	a0,a0,20980
     918:	24020001 	li	v0,1
     91c:	a2e204ec 	sb	v0,1260(s7)
     920:	a2e204ed 	sb	v0,1261(s7)
     924:	3c020002 	lui	v0,0x2
     928:	00621825 	or	v1,v1,v0
     92c:	3c020001 	lui	v0,0x1
     930:	2442a390 	addiu	v0,v0,-23664
     934:	00451024 	and	v0,v0,a1
     938:	00021082 	srl	v0,v0,0x2
     93c:	aee304c8 	sw	v1,1224(s7)
     940:	3c030800 	lui	v1,0x800
     944:	00431025 	or	v0,v0,v1
     948:	3c010001 	lui	at,0x1
     94c:	ac221220 	sw	v0,4640(at)
     950:	3c020001 	lui	v0,0x1
     954:	2442add4 	addiu	v0,v0,-21036
     958:	00451024 	and	v0,v0,a1
     95c:	00021082 	srl	v0,v0,0x2
     960:	00431025 	or	v0,v0,v1
     964:	3c010001 	lui	at,0x1
     968:	ac221280 	sw	v0,4736(at)
     96c:	96e6045a 	lhu	a2,1114(s7)
     970:	00003821 	move	a3,zero
     974:	24050011 	li	a1,17
     978:	afa00010 	sw	zero,16(sp)
     97c:	0c002403 	jal	0x900c
     980:	afa00014 	sw	zero,20(sp)
     984:	08001268 	j	0x49a0
     988:	00000000 	nop
     98c:	3c020001 	lui	v0,0x1
     990:	2442a9d4 	addiu	v0,v0,-22060
     994:	00021100 	sll	v0,v0,0x4
     998:	00021182 	srl	v0,v0,0x6
     99c:	3c030800 	lui	v1,0x800
     9a0:	00431025 	or	v0,v0,v1
     9a4:	3c010001 	lui	at,0x1
     9a8:	ac221280 	sw	v0,4736(at)
     9ac:	96e2046a 	lhu	v0,1130(s7)
     9b0:	30420010 	andi	v0,v0,0x10
     9b4:	14400009 	bnez	v0,0x9dc
     9b8:	00000000 	nop
     9bc:	96e2047a 	lhu	v0,1146(s7)
     9c0:	30420010 	andi	v0,v0,0x10
     9c4:	10400112 	beqz	v0,0xe10
     9c8:	00000000 	nop
     9cc:	96e2046a 	lhu	v0,1130(s7)
     9d0:	30420010 	andi	v0,v0,0x10
     9d4:	10400005 	beqz	v0,0x9ec
     9d8:	3c020700 	lui	v0,0x700
     9dc:	96e2047a 	lhu	v0,1146(s7)
     9e0:	30420010 	andi	v0,v0,0x10
     9e4:	14400102 	bnez	v0,0xdf0
     9e8:	3c020700 	lui	v0,0x700
     9ec:	34423000 	ori	v0,v0,0x3000
     9f0:	afa20018 	sw	v0,24(sp)
     9f4:	8ee20608 	lw	v0,1544(s7)
     9f8:	8f430228 	lw	v1,552(k0)
     9fc:	24420001 	addiu	v0,v0,1
     a00:	304900ff 	andi	t1,v0,0xff
     a04:	512300e2 	beql	t1,v1,0xd90
     a08:	afa00010 	sw	zero,16(sp)
     a0c:	8ee20608 	lw	v0,1544(s7)
     a10:	000210c0 	sll	v0,v0,0x3
     a14:	00571021 	addu	v0,v0,s7
     a18:	8fa30018 	lw	v1,24(sp)
     a1c:	8fa4001c 	lw	a0,28(sp)
     a20:	ac43060c 	sw	v1,1548(v0)
     a24:	ac440610 	sw	a0,1552(v0)
     a28:	8f870120 	lw	a3,288(gp)
     a2c:	27623800 	addiu	v0,k1,14336
     a30:	24e80020 	addiu	t0,a3,32
     a34:	0102102b 	sltu	v0,t0,v0
     a38:	50400001 	beqzl	v0,0xa40
     a3c:	27683000 	addiu	t0,k1,12288
     a40:	8f820128 	lw	v0,296(gp)
     a44:	11020004 	beq	t0,v0,0xa58
     a48:	00000000 	nop
     a4c:	8f820124 	lw	v0,292(gp)
     a50:	15020007 	bne	t0,v0,0xa70
     a54:	00001021 	move	v0,zero
     a58:	8ee201a4 	lw	v0,420(s7)
     a5c:	00003021 	move	a2,zero
     a60:	24420001 	addiu	v0,v0,1
     a64:	aee201a4 	sw	v0,420(s7)
     a68:	080012ea 	j	0x4ba8
     a6c:	8ee201a4 	lw	v0,420(s7)
     a70:	8ee40608 	lw	a0,1544(s7)
     a74:	000420c0 	sll	a0,a0,0x3
     a78:	00801821 	move	v1,a0
     a7c:	8ee40430 	lw	a0,1072(s7)
     a80:	8ee50434 	lw	a1,1076(s7)
     a84:	00a32821 	addu	a1,a1,v1
     a88:	00a3302b 	sltu	a2,a1,v1
     a8c:	00822021 	addu	a0,a0,v0
     a90:	00862021 	addu	a0,a0,a2
     a94:	ace40000 	sw	a0,0(a3)
     a98:	ace50004 	sw	a1,4(a3)
     a9c:	8ee30608 	lw	v1,1544(s7)
     aa0:	24020008 	li	v0,8
     aa4:	a4e2000e 	sh	v0,14(a3)
     aa8:	2402000d 	li	v0,13
     aac:	ace20018 	sw	v0,24(a3)
     ab0:	ace9001c 	sw	t1,28(a3)
     ab4:	000318c0 	sll	v1,v1,0x3
     ab8:	2463060c 	addiu	v1,v1,1548
     abc:	02e31021 	addu	v0,s7,v1
     ac0:	ace20008 	sw	v0,8(a3)
     ac4:	8ee204c4 	lw	v0,1220(s7)
     ac8:	ace20010 	sw	v0,16(a3)
     acc:	af880120 	sw	t0,288(gp)
     ad0:	92e24e20 	lbu	v0,20000(s7)
     ad4:	14400037 	bnez	v0,0xbb4
     ad8:	24060001 	li	a2,1
     adc:	8ee24e30 	lw	v0,20016(s7)
     ae0:	000210c0 	sll	v0,v0,0x3
     ae4:	24425038 	addiu	v0,v0,20536
     ae8:	02e22021 	addu	a0,s7,v0
     aec:	8c830000 	lw	v1,0(a0)
     af0:	24020007 	li	v0,7
     af4:	1462001f 	bne	v1,v0,0xb74
     af8:	00000000 	nop
     afc:	8ee34e30 	lw	v1,20016(s7)
     b00:	8ee24e34 	lw	v0,20020(s7)
     b04:	1062001b 	beq	v1,v0,0xb74
     b08:	24030040 	li	v1,64
     b0c:	8c820004 	lw	v0,4(a0)
     b10:	24420001 	addiu	v0,v0,1
     b14:	ac820004 	sw	v0,4(a0)
     b18:	8ee24e34 	lw	v0,20020(s7)
     b1c:	8ee54e30 	lw	a1,20016(s7)
     b20:	24420001 	addiu	v0,v0,1
     b24:	10430007 	beq	v0,v1,0xb44
     b28:	00000000 	nop
     b2c:	8ee24e34 	lw	v0,20020(s7)
     b30:	24420001 	addiu	v0,v0,1
     b34:	10a20005 	beq	a1,v0,0xb4c
     b38:	00000000 	nop
     b3c:	080012d4 	j	0x4b50
     b40:	00000000 	nop
     b44:	14a00005 	bnez	a1,0xb5c
     b48:	00000000 	nop
     b4c:	8f820128 	lw	v0,296(gp)
     b50:	24420020 	addiu	v0,v0,32
     b54:	af820128 	sw	v0,296(gp)
     b58:	8f820128 	lw	v0,296(gp)
     b5c:	8c820004 	lw	v0,4(a0)
     b60:	2c420011 	sltiu	v0,v0,17
     b64:	50400013 	beqzl	v0,0xbb4
     b68:	ac800000 	sw	zero,0(a0)
     b6c:	080012ea 	j	0x4ba8
     b70:	00000000 	nop
     b74:	8ee24e30 	lw	v0,20016(s7)
     b78:	24030040 	li	v1,64
     b7c:	24420001 	addiu	v0,v0,1
     b80:	50430003 	beql	v0,v1,0xb90
     b84:	00001021 	move	v0,zero
     b88:	8ee24e30 	lw	v0,20016(s7)
     b8c:	24420001 	addiu	v0,v0,1
     b90:	aee24e30 	sw	v0,20016(s7)
     b94:	8ee24e30 	lw	v0,20016(s7)
     b98:	000210c0 	sll	v0,v0,0x3
     b9c:	24425038 	addiu	v0,v0,20536
     ba0:	02e22021 	addu	a0,s7,v0
     ba4:	24020007 	li	v0,7
     ba8:	ac820000 	sw	v0,0(a0)
     bac:	24020001 	li	v0,1
     bb0:	ac820004 	sw	v0,4(a0)
     bb4:	54c0000c 	bnezl	a2,0xbe8
     bb8:	aee90608 	sw	t1,1544(s7)
     bbc:	3c040001 	lui	a0,0x1
     bc0:	248451c8 	addiu	a0,a0,20936
     bc4:	afa00010 	sw	zero,16(sp)
     bc8:	afa00014 	sw	zero,20(sp)
     bcc:	8ee60608 	lw	a2,1544(s7)
     bd0:	8f470228 	lw	a3,552(k0)
     bd4:	3c050009 	lui	a1,0x9
     bd8:	0c002403 	jal	0x900c
     bdc:	34a5f000 	ori	a1,a1,0xf000
     be0:	0800136d 	j	0x4db4
     be4:	00000000 	nop
     be8:	8f830120 	lw	v1,288(gp)
     bec:	27623800 	addiu	v0,k1,14336
     bf0:	24660020 	addiu	a2,v1,32
     bf4:	00c2102b 	sltu	v0,a2,v0
     bf8:	50400001 	beqzl	v0,0xc00
     bfc:	27663000 	addiu	a2,k1,12288
     c00:	8f820128 	lw	v0,296(gp)
     c04:	10c20004 	beq	a2,v0,0xc18
     c08:	00000000 	nop
     c0c:	8f820124 	lw	v0,292(gp)
     c10:	14c20007 	bne	a2,v0,0xc30
     c14:	00000000 	nop
     c18:	8ee201a4 	lw	v0,420(s7)
     c1c:	00003021 	move	a2,zero
     c20:	24420001 	addiu	v0,v0,1
     c24:	aee201a4 	sw	v0,420(s7)
     c28:	08001351 	j	0x4d44
     c2c:	8ee201a4 	lw	v0,420(s7)
     c30:	8ee20608 	lw	v0,1544(s7)
     c34:	ac62001c 	sw	v0,28(v1)
     c38:	8ee404a0 	lw	a0,1184(s7)
     c3c:	8ee504a4 	lw	a1,1188(s7)
     c40:	2462001c 	addiu	v0,v1,28
     c44:	ac620008 	sw	v0,8(v1)
     c48:	24020008 	li	v0,8
     c4c:	a462000e 	sh	v0,14(v1)
     c50:	24020011 	li	v0,17
     c54:	ac620018 	sw	v0,24(v1)
     c58:	ac640000 	sw	a0,0(v1)
     c5c:	ac650004 	sw	a1,4(v1)
     c60:	8ee204c4 	lw	v0,1220(s7)
     c64:	ac620010 	sw	v0,16(v1)
     c68:	af860120 	sw	a2,288(gp)
     c6c:	92e24e20 	lbu	v0,20000(s7)
     c70:	14400037 	bnez	v0,0xd50
     c74:	24060001 	li	a2,1
     c78:	8ee24e30 	lw	v0,20016(s7)
     c7c:	000210c0 	sll	v0,v0,0x3
     c80:	24425038 	addiu	v0,v0,20536
     c84:	02e22021 	addu	a0,s7,v0
     c88:	8c830000 	lw	v1,0(a0)
     c8c:	24020012 	li	v0,18
     c90:	1462001f 	bne	v1,v0,0xd10
     c94:	00000000 	nop
     c98:	8ee34e30 	lw	v1,20016(s7)
     c9c:	8ee24e34 	lw	v0,20020(s7)
     ca0:	1062001b 	beq	v1,v0,0xd10
     ca4:	24030040 	li	v1,64
     ca8:	8c820004 	lw	v0,4(a0)
     cac:	24420001 	addiu	v0,v0,1
     cb0:	ac820004 	sw	v0,4(a0)
     cb4:	8ee24e34 	lw	v0,20020(s7)
     cb8:	8ee54e30 	lw	a1,20016(s7)
     cbc:	24420001 	addiu	v0,v0,1
     cc0:	10430007 	beq	v0,v1,0xce0
     cc4:	00000000 	nop
     cc8:	8ee24e34 	lw	v0,20020(s7)
     ccc:	24420001 	addiu	v0,v0,1
     cd0:	10a20005 	beq	a1,v0,0xce8
     cd4:	00000000 	nop
     cd8:	0800133b 	j	0x4cec
     cdc:	00000000 	nop
     ce0:	14a00005 	bnez	a1,0xcf8
     ce4:	00000000 	nop
     ce8:	8f820128 	lw	v0,296(gp)
     cec:	24420020 	addiu	v0,v0,32
     cf0:	af820128 	sw	v0,296(gp)
     cf4:	8f820128 	lw	v0,296(gp)
     cf8:	8c820004 	lw	v0,4(a0)
     cfc:	2c420011 	sltiu	v0,v0,17
     d00:	50400013 	beqzl	v0,0xd50
     d04:	ac800000 	sw	zero,0(a0)
     d08:	08001351 	j	0x4d44
     d0c:	00000000 	nop
     d10:	8ee24e30 	lw	v0,20016(s7)
     d14:	24030040 	li	v1,64
     d18:	24420001 	addiu	v0,v0,1
     d1c:	50430003 	beql	v0,v1,0xd2c
     d20:	00001021 	move	v0,zero
     d24:	8ee24e30 	lw	v0,20016(s7)
     d28:	24420001 	addiu	v0,v0,1
     d2c:	aee24e30 	sw	v0,20016(s7)
     d30:	8ee24e30 	lw	v0,20016(s7)
     d34:	000210c0 	sll	v0,v0,0x3
     d38:	24425038 	addiu	v0,v0,20536
     d3c:	02e22021 	addu	a0,s7,v0
     d40:	24020012 	li	v0,18
     d44:	ac820000 	sw	v0,0(a0)
     d48:	24020001 	li	v0,1
     d4c:	ac820004 	sw	v0,4(a0)
     d50:	14c0001b 	bnez	a2,0xdc0
     d54:	00000000 	nop
     d58:	3c040001 	lui	a0,0x1
     d5c:	248451d0 	addiu	a0,a0,20944
     d60:	afa00010 	sw	zero,16(sp)
     d64:	afa00014 	sw	zero,20(sp)
     d68:	8ee60608 	lw	a2,1544(s7)
     d6c:	8f470228 	lw	a3,552(k0)
     d70:	3c050009 	lui	a1,0x9
     d74:	0c002403 	jal	0x900c
     d78:	34a5f001 	ori	a1,a1,0xf001
     d7c:	8ee201b0 	lw	v0,432(s7)
     d80:	24420001 	addiu	v0,v0,1
     d84:	aee201b0 	sw	v0,432(s7)
     d88:	0800136d 	j	0x4db4
     d8c:	8ee201b0 	lw	v0,432(s7)
     d90:	3c040001 	lui	a0,0x1
     d94:	248451dc 	addiu	a0,a0,20956
     d98:	afa00014 	sw	zero,20(sp)
     d9c:	8ee60608 	lw	a2,1544(s7)
     da0:	8f470228 	lw	a3,552(k0)
     da4:	3c050009 	lui	a1,0x9
     da8:	0c002403 	jal	0x900c
     dac:	34a5f005 	ori	a1,a1,0xf005
     db0:	8ee201ac 	lw	v0,428(s7)
     db4:	24420001 	addiu	v0,v0,1
     db8:	aee201ac 	sw	v0,428(s7)
     dbc:	8ee201ac 	lw	v0,428(s7)
     dc0:	8ee20160 	lw	v0,352(s7)
     dc4:	3c040001 	lui	a0,0x1
     dc8:	248451e8 	addiu	a0,a0,20968
     dcc:	3405f002 	li	a1,0xf002
     dd0:	24420001 	addiu	v0,v0,1
     dd4:	aee20160 	sw	v0,352(s7)
     dd8:	8ee20160 	lw	v0,352(s7)
     ddc:	00003021 	move	a2,zero
     de0:	00003821 	move	a3,zero
     de4:	afa00010 	sw	zero,16(sp)
     de8:	0c002403 	jal	0x900c
     dec:	afa00014 	sw	zero,20(sp)
     df0:	96e6047a 	lhu	a2,1146(s7)
     df4:	96e7046a 	lhu	a3,1130(s7)
     df8:	3c040001 	lui	a0,0x1
     dfc:	24845200 	addiu	a0,a0,20992
     e00:	24050012 	li	a1,18
     e04:	afa00010 	sw	zero,16(sp)
     e08:	0c002403 	jal	0x900c
     e0c:	afa00014 	sw	zero,20(sp)
     e10:	0c004500 	jal	0x11400
     e14:	00000000 	nop
     e18:	0c002318 	jal	0x8c60
     e1c:	00000000 	nop
     e20:	3c060001 	lui	a2,0x1
     e24:	34c63800 	ori	a2,a2,0x3800
     e28:	aee00608 	sw	zero,1544(s7)
     e2c:	af400228 	sw	zero,552(k0)
     e30:	af40022c 	sw	zero,556(k0)
     e34:	96e30458 	lhu	v1,1112(s7)
     e38:	8ee40000 	lw	a0,0(s7)
     e3c:	3c0512d8 	lui	a1,0x12d8
     e40:	34a5c358 	ori	a1,a1,0xc358
     e44:	27623800 	addiu	v0,k1,14336
     e48:	aee27258 	sw	v0,29272(s7)
     e4c:	27623800 	addiu	v0,k1,14336
     e50:	aee27260 	sw	v0,29280(s7)
     e54:	27623800 	addiu	v0,k1,14336
     e58:	aee27264 	sw	v0,29284(s7)
     e5c:	03661021 	addu	v0,k1,a2
     e60:	aee27270 	sw	v0,29296(s7)
     e64:	2402ffff 	li	v0,-1
     e68:	aee004d4 	sw	zero,1236(s7)
     e6c:	aee004e0 	sw	zero,1248(s7)
     e70:	aee004e4 	sw	zero,1252(s7)
     e74:	aee004f0 	sw	zero,1264(s7)
     e78:	a2e004f4 	sb	zero,1268(s7)
     e7c:	aee00e0c 	sw	zero,3596(s7)
     e80:	aee00e18 	sw	zero,3608(s7)
     e84:	aee00e10 	sw	zero,3600(s7)
     e88:	aee00e14 	sw	zero,3604(s7)
     e8c:	aee00e1c 	sw	zero,3612(s7)
     e90:	aee0724c 	sw	zero,29260(s7)
     e94:	aee05244 	sw	zero,21060(s7)
     e98:	aee05240 	sw	zero,21056(s7)
     e9c:	aee0523c 	sw	zero,21052(s7)
     ea0:	aee07250 	sw	zero,29264(s7)
     ea4:	aee07254 	sw	zero,29268(s7)
     ea8:	aee0725c 	sw	zero,29276(s7)
     eac:	aee07268 	sw	zero,29288(s7)
     eb0:	aee004d0 	sw	zero,1232(s7)
     eb4:	2463ffff 	addiu	v1,v1,-1
     eb8:	00852025 	or	a0,a0,a1
     ebc:	aee304f8 	sw	v1,1272(s7)
     ec0:	aee40000 	sw	a0,0(s7)
     ec4:	af800060 	sw	zero,96(gp)
     ec8:	af820064 	sw	v0,100(gp)
     ecc:	3c020100 	lui	v0,0x100
     ed0:	afa20018 	sw	v0,24(sp)
     ed4:	8ee20608 	lw	v0,1544(s7)
     ed8:	8f430228 	lw	v1,552(k0)
     edc:	24420001 	addiu	v0,v0,1
     ee0:	304900ff 	andi	t1,v0,0xff
     ee4:	512300e2 	beql	t1,v1,0x1270
     ee8:	afa00010 	sw	zero,16(sp)
     eec:	8ee20608 	lw	v0,1544(s7)
     ef0:	000210c0 	sll	v0,v0,0x3
     ef4:	00571021 	addu	v0,v0,s7
     ef8:	8fa30018 	lw	v1,24(sp)
     efc:	8fa4001c 	lw	a0,28(sp)
     f00:	ac43060c 	sw	v1,1548(v0)
     f04:	ac440610 	sw	a0,1552(v0)
     f08:	8f870120 	lw	a3,288(gp)
     f0c:	27623800 	addiu	v0,k1,14336
     f10:	24e80020 	addiu	t0,a3,32
     f14:	0102102b 	sltu	v0,t0,v0
     f18:	50400001 	beqzl	v0,0xf20
     f1c:	27683000 	addiu	t0,k1,12288
     f20:	8f820128 	lw	v0,296(gp)
     f24:	11020004 	beq	t0,v0,0xf38
     f28:	00000000 	nop
     f2c:	8f820124 	lw	v0,292(gp)
     f30:	15020007 	bne	t0,v0,0xf50
     f34:	00001021 	move	v0,zero
     f38:	8ee201a4 	lw	v0,420(s7)
     f3c:	00003021 	move	a2,zero
     f40:	24420001 	addiu	v0,v0,1
     f44:	aee201a4 	sw	v0,420(s7)
     f48:	08001422 	j	0x5088
     f4c:	8ee201a4 	lw	v0,420(s7)
     f50:	8ee40608 	lw	a0,1544(s7)
     f54:	000420c0 	sll	a0,a0,0x3
     f58:	00801821 	move	v1,a0
     f5c:	8ee40430 	lw	a0,1072(s7)
     f60:	8ee50434 	lw	a1,1076(s7)
     f64:	00a32821 	addu	a1,a1,v1
     f68:	00a3302b 	sltu	a2,a1,v1
     f6c:	00822021 	addu	a0,a0,v0
     f70:	00862021 	addu	a0,a0,a2
     f74:	ace40000 	sw	a0,0(a3)
     f78:	ace50004 	sw	a1,4(a3)
     f7c:	8ee30608 	lw	v1,1544(s7)
     f80:	24020008 	li	v0,8
     f84:	a4e2000e 	sh	v0,14(a3)
     f88:	2402000d 	li	v0,13
     f8c:	ace20018 	sw	v0,24(a3)
     f90:	ace9001c 	sw	t1,28(a3)
     f94:	000318c0 	sll	v1,v1,0x3
     f98:	2463060c 	addiu	v1,v1,1548
     f9c:	02e31021 	addu	v0,s7,v1
     fa0:	ace20008 	sw	v0,8(a3)
     fa4:	8ee204c4 	lw	v0,1220(s7)
     fa8:	ace20010 	sw	v0,16(a3)
     fac:	af880120 	sw	t0,288(gp)
     fb0:	92e24e20 	lbu	v0,20000(s7)
     fb4:	14400037 	bnez	v0,0x1094
     fb8:	24060001 	li	a2,1
     fbc:	8ee24e30 	lw	v0,20016(s7)
     fc0:	000210c0 	sll	v0,v0,0x3
     fc4:	24425038 	addiu	v0,v0,20536
     fc8:	02e22021 	addu	a0,s7,v0
     fcc:	8c830000 	lw	v1,0(a0)
     fd0:	24020007 	li	v0,7
     fd4:	1462001f 	bne	v1,v0,0x1054
     fd8:	00000000 	nop
     fdc:	8ee34e30 	lw	v1,20016(s7)
     fe0:	8ee24e34 	lw	v0,20020(s7)
     fe4:	1062001b 	beq	v1,v0,0x1054
     fe8:	24030040 	li	v1,64
     fec:	8c820004 	lw	v0,4(a0)
     ff0:	24420001 	addiu	v0,v0,1
     ff4:	ac820004 	sw	v0,4(a0)
     ff8:	8ee24e34 	lw	v0,20020(s7)
     ffc:	8ee54e30 	lw	a1,20016(s7)
    1000:	24420001 	addiu	v0,v0,1
    1004:	10430007 	beq	v0,v1,0x1024
    1008:	00000000 	nop
    100c:	8ee24e34 	lw	v0,20020(s7)
    1010:	24420001 	addiu	v0,v0,1
    1014:	10a20005 	beq	a1,v0,0x102c
    1018:	00000000 	nop
    101c:	0800140c 	j	0x5030
    1020:	00000000 	nop
    1024:	14a00005 	bnez	a1,0x103c
    1028:	00000000 	nop
    102c:	8f820128 	lw	v0,296(gp)
    1030:	24420020 	addiu	v0,v0,32
    1034:	af820128 	sw	v0,296(gp)
    1038:	8f820128 	lw	v0,296(gp)
    103c:	8c820004 	lw	v0,4(a0)
    1040:	2c420011 	sltiu	v0,v0,17
    1044:	50400013 	beqzl	v0,0x1094
    1048:	ac800000 	sw	zero,0(a0)
    104c:	08001422 	j	0x5088
    1050:	00000000 	nop
    1054:	8ee24e30 	lw	v0,20016(s7)
    1058:	24030040 	li	v1,64
    105c:	24420001 	addiu	v0,v0,1
    1060:	50430003 	beql	v0,v1,0x1070
    1064:	00001021 	move	v0,zero
    1068:	8ee24e30 	lw	v0,20016(s7)
    106c:	24420001 	addiu	v0,v0,1
    1070:	aee24e30 	sw	v0,20016(s7)
    1074:	8ee24e30 	lw	v0,20016(s7)
    1078:	000210c0 	sll	v0,v0,0x3
    107c:	24425038 	addiu	v0,v0,20536
    1080:	02e22021 	addu	a0,s7,v0
    1084:	24020007 	li	v0,7
    1088:	ac820000 	sw	v0,0(a0)
    108c:	24020001 	li	v0,1
    1090:	ac820004 	sw	v0,4(a0)
    1094:	54c0000c 	bnezl	a2,0x10c8
    1098:	aee90608 	sw	t1,1544(s7)
    109c:	3c040001 	lui	a0,0x1
    10a0:	248451c8 	addiu	a0,a0,20936
    10a4:	afa00010 	sw	zero,16(sp)
    10a8:	afa00014 	sw	zero,20(sp)
    10ac:	8ee60608 	lw	a2,1544(s7)
    10b0:	8f470228 	lw	a3,552(k0)
    10b4:	3c050009 	lui	a1,0x9
    10b8:	0c002403 	jal	0x900c
    10bc:	34a5f000 	ori	a1,a1,0xf000
    10c0:	080014a5 	j	0x5294
    10c4:	00000000 	nop
    10c8:	8f830120 	lw	v1,288(gp)
    10cc:	27623800 	addiu	v0,k1,14336
    10d0:	24660020 	addiu	a2,v1,32
    10d4:	00c2102b 	sltu	v0,a2,v0
    10d8:	50400001 	beqzl	v0,0x10e0
    10dc:	27663000 	addiu	a2,k1,12288
    10e0:	8f820128 	lw	v0,296(gp)
    10e4:	10c20004 	beq	a2,v0,0x10f8
    10e8:	00000000 	nop
    10ec:	8f820124 	lw	v0,292(gp)
    10f0:	14c20007 	bne	a2,v0,0x1110
    10f4:	00000000 	nop
    10f8:	8ee201a4 	lw	v0,420(s7)
    10fc:	00003021 	move	a2,zero
    1100:	24420001 	addiu	v0,v0,1
    1104:	aee201a4 	sw	v0,420(s7)
    1108:	08001489 	j	0x5224
    110c:	8ee201a4 	lw	v0,420(s7)
    1110:	8ee20608 	lw	v0,1544(s7)
    1114:	ac62001c 	sw	v0,28(v1)
    1118:	8ee404a0 	lw	a0,1184(s7)
    111c:	8ee504a4 	lw	a1,1188(s7)
    1120:	2462001c 	addiu	v0,v1,28
    1124:	ac620008 	sw	v0,8(v1)
    1128:	24020008 	li	v0,8
    112c:	a462000e 	sh	v0,14(v1)
    1130:	24020011 	li	v0,17
    1134:	ac620018 	sw	v0,24(v1)
    1138:	ac640000 	sw	a0,0(v1)
    113c:	ac650004 	sw	a1,4(v1)
    1140:	8ee204c4 	lw	v0,1220(s7)
    1144:	ac620010 	sw	v0,16(v1)
    1148:	af860120 	sw	a2,288(gp)
    114c:	92e24e20 	lbu	v0,20000(s7)
    1150:	14400037 	bnez	v0,0x1230
    1154:	24060001 	li	a2,1
    1158:	8ee24e30 	lw	v0,20016(s7)
    115c:	000210c0 	sll	v0,v0,0x3
    1160:	24425038 	addiu	v0,v0,20536
    1164:	02e22021 	addu	a0,s7,v0
    1168:	8c830000 	lw	v1,0(a0)
    116c:	24020012 	li	v0,18
    1170:	1462001f 	bne	v1,v0,0x11f0
    1174:	00000000 	nop
    1178:	8ee34e30 	lw	v1,20016(s7)
    117c:	8ee24e34 	lw	v0,20020(s7)
    1180:	1062001b 	beq	v1,v0,0x11f0
    1184:	24030040 	li	v1,64
    1188:	8c820004 	lw	v0,4(a0)
    118c:	24420001 	addiu	v0,v0,1
    1190:	ac820004 	sw	v0,4(a0)
    1194:	8ee24e34 	lw	v0,20020(s7)
    1198:	8ee54e30 	lw	a1,20016(s7)
    119c:	24420001 	addiu	v0,v0,1
    11a0:	10430007 	beq	v0,v1,0x11c0
    11a4:	00000000 	nop
    11a8:	8ee24e34 	lw	v0,20020(s7)
    11ac:	24420001 	addiu	v0,v0,1
    11b0:	10a20005 	beq	a1,v0,0x11c8
    11b4:	00000000 	nop
    11b8:	08001473 	j	0x51cc
    11bc:	00000000 	nop
    11c0:	14a00005 	bnez	a1,0x11d8
    11c4:	00000000 	nop
    11c8:	8f820128 	lw	v0,296(gp)
    11cc:	24420020 	addiu	v0,v0,32
    11d0:	af820128 	sw	v0,296(gp)
    11d4:	8f820128 	lw	v0,296(gp)
    11d8:	8c820004 	lw	v0,4(a0)
    11dc:	2c420011 	sltiu	v0,v0,17
    11e0:	50400013 	beqzl	v0,0x1230
    11e4:	ac800000 	sw	zero,0(a0)
    11e8:	08001489 	j	0x5224
    11ec:	00000000 	nop
    11f0:	8ee24e30 	lw	v0,20016(s7)
    11f4:	24030040 	li	v1,64
    11f8:	24420001 	addiu	v0,v0,1
    11fc:	50430003 	beql	v0,v1,0x120c
    1200:	00001021 	move	v0,zero
    1204:	8ee24e30 	lw	v0,20016(s7)
    1208:	24420001 	addiu	v0,v0,1
    120c:	aee24e30 	sw	v0,20016(s7)
    1210:	8ee24e30 	lw	v0,20016(s7)
    1214:	000210c0 	sll	v0,v0,0x3
    1218:	24425038 	addiu	v0,v0,20536
    121c:	02e22021 	addu	a0,s7,v0
    1220:	24020012 	li	v0,18
    1224:	ac820000 	sw	v0,0(a0)
    1228:	24020001 	li	v0,1
    122c:	ac820004 	sw	v0,4(a0)
    1230:	14c0001b 	bnez	a2,0x12a0
    1234:	00000000 	nop
    1238:	3c040001 	lui	a0,0x1
    123c:	248451d0 	addiu	a0,a0,20944
    1240:	afa00010 	sw	zero,16(sp)
    1244:	afa00014 	sw	zero,20(sp)
    1248:	8ee60608 	lw	a2,1544(s7)
    124c:	8f470228 	lw	a3,552(k0)
    1250:	3c050009 	lui	a1,0x9
    1254:	0c002403 	jal	0x900c
    1258:	34a5f001 	ori	a1,a1,0xf001
    125c:	8ee201b0 	lw	v0,432(s7)
    1260:	24420001 	addiu	v0,v0,1
    1264:	aee201b0 	sw	v0,432(s7)
    1268:	080014a5 	j	0x5294
    126c:	8ee201b0 	lw	v0,432(s7)
    1270:	3c040001 	lui	a0,0x1
    1274:	248451dc 	addiu	a0,a0,20956
    1278:	afa00014 	sw	zero,20(sp)
    127c:	8ee60608 	lw	a2,1544(s7)
    1280:	8f470228 	lw	a3,552(k0)
    1284:	3c050009 	lui	a1,0x9
    1288:	0c002403 	jal	0x900c
    128c:	34a5f005 	ori	a1,a1,0xf005
    1290:	8ee201ac 	lw	v0,428(s7)
    1294:	24420001 	addiu	v0,v0,1
    1298:	aee201ac 	sw	v0,428(s7)
    129c:	8ee201ac 	lw	v0,428(s7)
    12a0:	8ee20154 	lw	v0,340(s7)
    12a4:	24420001 	addiu	v0,v0,1
    12a8:	aee20154 	sw	v0,340(s7)
    12ac:	0c0014dc 	jal	0x5370
    12b0:	8ee20154 	lw	v0,340(s7)
    12b4:	8f8200a0 	lw	v0,160(gp)
    12b8:	30420004 	andi	v0,v0,0x4
    12bc:	1440fffd 	bnez	v0,0x12b4
    12c0:	00000000 	nop
    12c4:	8f820040 	lw	v0,64(gp)
    12c8:	30420001 	andi	v0,v0,0x1
    12cc:	14400008 	bnez	v0,0x12f0
    12d0:	00000000 	nop
    12d4:	8f430104 	lw	v1,260(k0)
    12d8:	24020001 	li	v0,1
    12dc:	10620004 	beq	v1,v0,0x12f0
    12e0:	00000000 	nop
    12e4:	8f420264 	lw	v0,612(k0)
    12e8:	10400006 	beqz	v0,0x1304
    12ec:	00000000 	nop
    12f0:	8ee2017c 	lw	v0,380(s7)
    12f4:	24420001 	addiu	v0,v0,1
    12f8:	aee2017c 	sw	v0,380(s7)
    12fc:	080014c5 	j	0x5314
    1300:	8ee2017c 	lw	v0,380(s7)
    1304:	8f820044 	lw	v0,68(gp)
    1308:	34420004 	ori	v0,v0,0x4
    130c:	af820044 	sw	v0,68(gp)
    1310:	8ee20178 	lw	v0,376(s7)
    1314:	24420001 	addiu	v0,v0,1
    1318:	aee20178 	sw	v0,376(s7)
    131c:	8ee20178 	lw	v0,376(s7)
    1320:	8f8200d8 	lw	v0,216(gp)
    1324:	8f8300d4 	lw	v1,212(gp)
    1328:	00431023 	subu	v0,v0,v1
    132c:	aee2726c 	sw	v0,29292(s7)
    1330:	8ee2726c 	lw	v0,29292(s7)
    1334:	1c400003 	bgtz	v0,0x1344
    1338:	3c030001 	lui	v1,0x1
    133c:	00431021 	addu	v0,v0,v1
    1340:	aee2726c 	sw	v0,29292(s7)
    1344:	0c004064 	jal	0x10190
    1348:	00000000 	nop
    134c:	0c004440 	jal	0x11100
    1350:	af800228 	sw	zero,552(gp)
    1354:	8fbf0024 	lw	ra,36(sp)
    1358:	8fb00020 	lw	s0,32(sp)
    135c:	03e00008 	jr	ra
    1360:	27bd0028 	addiu	sp,sp,40
    1364:	03e00008 	jr	ra
    1368:	00000000 	nop
    136c:	03e00008 	jr	ra
    1370:	00000000 	nop
	...
    137c:	2402002c 	li	v0,44
    1380:	af820050 	sw	v0,80(gp)
    1384:	aee07274 	sw	zero,29300(s7)
    1388:	8f420238 	lw	v0,568(k0)
    138c:	aee27278 	sw	v0,29304(s7)
    1390:	8f820054 	lw	v0,84(gp)
    1394:	24420067 	addiu	v0,v0,103
    1398:	af820058 	sw	v0,88(gp)
    139c:	aee07b88 	sw	zero,31624(s7)
    13a0:	aee07b8c 	sw	zero,31628(s7)
    13a4:	aee07b84 	sw	zero,31620(s7)
    13a8:	3c010001 	lui	at,0x1
    13ac:	00370821 	addu	at,at,s7
    13b0:	ac2083bc 	sw	zero,-31812(at)
    13b4:	3c010001 	lui	at,0x1
    13b8:	00370821 	addu	at,at,s7
    13bc:	03e00008 	jr	ra
    13c0:	a02083b9 	sb	zero,-31815(at)
    13c4:	27bdffd8 	addiu	sp,sp,-40
    13c8:	afbf0024 	sw	ra,36(sp)
    13cc:	afb00020 	sw	s0,32(sp)
    13d0:	8f820054 	lw	v0,84(gp)
    13d4:	3c030001 	lui	v1,0x1
    13d8:	8c635cd8 	lw	v1,23768(v1)
    13dc:	24420067 	addiu	v0,v0,103
    13e0:	1060000d 	beqz	v1,0x1418
    13e4:	af820058 	sw	v0,88(gp)
    13e8:	3c020001 	lui	v0,0x1
    13ec:	00571021 	addu	v0,v0,s7
    13f0:	904283b8 	lbu	v0,-31816(v0)
    13f4:	10400005 	beqz	v0,0x140c
    13f8:	3c030200 	lui	v1,0x200
    13fc:	3c010001 	lui	at,0x1
    1400:	00370821 	addu	at,at,s7
    1404:	08001503 	j	0x540c
    1408:	a02083b8 	sb	zero,-31816(at)
    140c:	8ee20000 	lw	v0,0(s7)
    1410:	00431025 	or	v0,v0,v1
    1414:	aee20000 	sw	v0,0(s7)
    1418:	8f420218 	lw	v0,536(k0)
    141c:	30420100 	andi	v0,v0,0x100
    1420:	104000c6 	beqz	v0,0x173c
    1424:	00000000 	nop
    1428:	8f8200b0 	lw	v0,176(gp)
    142c:	30420004 	andi	v0,v0,0x4
    1430:	104000c2 	beqz	v0,0x173c
    1434:	00000000 	nop
    1438:	3c030001 	lui	v1,0x1
    143c:	00771821 	addu	v1,v1,s7
    1440:	8c6383d0 	lw	v1,-31792(v1)
    1444:	8f820104 	lw	v0,260(gp)
    1448:	146200b4 	bne	v1,v0,0x171c
    144c:	00000000 	nop
    1450:	3c030001 	lui	v1,0x1
    1454:	00771821 	addu	v1,v1,s7
    1458:	8c6383d4 	lw	v1,-31788(v1)
    145c:	8f8200b4 	lw	v0,180(gp)
    1460:	146200ae 	bne	v1,v0,0x171c
    1464:	00000000 	nop
    1468:	8f8200b0 	lw	v0,176(gp)
    146c:	3c030080 	lui	v1,0x80
    1470:	00431024 	and	v0,v0,v1
    1474:	1040000d 	beqz	v0,0x14ac
    1478:	00000000 	nop
    147c:	8f82011c 	lw	v0,284(gp)
    1480:	34420002 	ori	v0,v0,0x2
    1484:	af82011c 	sw	v0,284(gp)
    1488:	8f8200b0 	lw	v0,176(gp)
    148c:	2403fffb 	li	v1,-5
    1490:	00431024 	and	v0,v0,v1
    1494:	af8200b0 	sw	v0,176(gp)
    1498:	8f82011c 	lw	v0,284(gp)
    149c:	2403fffd 	li	v1,-3
    14a0:	00431024 	and	v0,v0,v1
    14a4:	080015cc 	j	0x5730
    14a8:	af82011c 	sw	v0,284(gp)
    14ac:	3c030001 	lui	v1,0x1
    14b0:	00771821 	addu	v1,v1,s7
    14b4:	8c6383d0 	lw	v1,-31792(v1)
    14b8:	8f820104 	lw	v0,260(gp)
    14bc:	14620082 	bne	v1,v0,0x16c8
    14c0:	00000000 	nop
    14c4:	3c030001 	lui	v1,0x1
    14c8:	00771821 	addu	v1,v1,s7
    14cc:	8c6383d4 	lw	v1,-31788(v1)
    14d0:	8f8200b4 	lw	v0,180(gp)
    14d4:	1462007c 	bne	v1,v0,0x16c8
    14d8:	00000000 	nop
    14dc:	3c070001 	lui	a3,0x1
    14e0:	00f73821 	addu	a3,a3,s7
    14e4:	8ce783d0 	lw	a3,-31792(a3)
    14e8:	8f8200b0 	lw	v0,176(gp)
    14ec:	3c040001 	lui	a0,0x1
    14f0:	24845270 	addiu	a0,a0,21104
    14f4:	afa00014 	sw	zero,20(sp)
    14f8:	afa20010 	sw	v0,16(sp)
    14fc:	8f8600b0 	lw	a2,176(gp)
    1500:	3c050005 	lui	a1,0x5
    1504:	0c002403 	jal	0x900c
    1508:	34a50900 	ori	a1,a1,0x900
    150c:	8f82011c 	lw	v0,284(gp)
    1510:	34420002 	ori	v0,v0,0x2
    1514:	af82011c 	sw	v0,284(gp)
    1518:	8f830104 	lw	v1,260(gp)
    151c:	8f8200b0 	lw	v0,176(gp)
    1520:	34420001 	ori	v0,v0,0x1
    1524:	af8200b0 	sw	v0,176(gp)
    1528:	af830104 	sw	v1,260(gp)
    152c:	8f830120 	lw	v1,288(gp)
    1530:	27623800 	addiu	v0,k1,14336
    1534:	24660020 	addiu	a2,v1,32
    1538:	00c2102b 	sltu	v0,a2,v0
    153c:	50400001 	beqzl	v0,0x1544
    1540:	27663000 	addiu	a2,k1,12288
    1544:	8f820128 	lw	v0,296(gp)
    1548:	10c20004 	beq	a2,v0,0x155c
    154c:	00000000 	nop
    1550:	8f820124 	lw	v0,292(gp)
    1554:	14c20006 	bne	a2,v0,0x1570
    1558:	00000000 	nop
    155c:	8ee201a4 	lw	v0,420(s7)
    1560:	24420001 	addiu	v0,v0,1
    1564:	aee201a4 	sw	v0,420(s7)
    1568:	080015a0 	j	0x5680
    156c:	8ee201a4 	lw	v0,420(s7)
    1570:	8f440208 	lw	a0,520(k0)
    1574:	8f45020c 	lw	a1,524(k0)
    1578:	26e20030 	addiu	v0,s7,48
    157c:	ac620008 	sw	v0,8(v1)
    1580:	24020400 	li	v0,1024
    1584:	a462000e 	sh	v0,14(v1)
    1588:	2402000f 	li	v0,15
    158c:	ac620018 	sw	v0,24(v1)
    1590:	ac60001c 	sw	zero,28(v1)
    1594:	ac640000 	sw	a0,0(v1)
    1598:	ac650004 	sw	a1,4(v1)
    159c:	8ee204c4 	lw	v0,1220(s7)
    15a0:	ac620010 	sw	v0,16(v1)
    15a4:	af860120 	sw	a2,288(gp)
    15a8:	92e24e20 	lbu	v0,20000(s7)
    15ac:	14400037 	bnez	v0,0x168c
    15b0:	00000000 	nop
    15b4:	8ee24e30 	lw	v0,20016(s7)
    15b8:	000210c0 	sll	v0,v0,0x3
    15bc:	24425038 	addiu	v0,v0,20536
    15c0:	02e22021 	addu	a0,s7,v0
    15c4:	8c830000 	lw	v1,0(a0)
    15c8:	24020007 	li	v0,7
    15cc:	1462001f 	bne	v1,v0,0x164c
    15d0:	00000000 	nop
    15d4:	8ee34e30 	lw	v1,20016(s7)
    15d8:	8ee24e34 	lw	v0,20020(s7)
    15dc:	1062001b 	beq	v1,v0,0x164c
    15e0:	24030040 	li	v1,64
    15e4:	8c820004 	lw	v0,4(a0)
    15e8:	24420001 	addiu	v0,v0,1
    15ec:	ac820004 	sw	v0,4(a0)
    15f0:	8ee24e34 	lw	v0,20020(s7)
    15f4:	8ee54e30 	lw	a1,20016(s7)
    15f8:	24420001 	addiu	v0,v0,1
    15fc:	10430007 	beq	v0,v1,0x161c
    1600:	00000000 	nop
    1604:	8ee24e34 	lw	v0,20020(s7)
    1608:	24420001 	addiu	v0,v0,1
    160c:	10a20005 	beq	a1,v0,0x1624
    1610:	00000000 	nop
    1614:	0800158a 	j	0x5628
    1618:	00000000 	nop
    161c:	14a00005 	bnez	a1,0x1634
    1620:	00000000 	nop
    1624:	8f820128 	lw	v0,296(gp)
    1628:	24420020 	addiu	v0,v0,32
    162c:	af820128 	sw	v0,296(gp)
    1630:	8f820128 	lw	v0,296(gp)
    1634:	8c820004 	lw	v0,4(a0)
    1638:	2c420011 	sltiu	v0,v0,17
    163c:	50400013 	beqzl	v0,0x168c
    1640:	ac800000 	sw	zero,0(a0)
    1644:	080015a0 	j	0x5680
    1648:	00000000 	nop
    164c:	8ee24e30 	lw	v0,20016(s7)
    1650:	24030040 	li	v1,64
    1654:	24420001 	addiu	v0,v0,1
    1658:	50430003 	beql	v0,v1,0x1668
    165c:	00001021 	move	v0,zero
    1660:	8ee24e30 	lw	v0,20016(s7)
    1664:	24420001 	addiu	v0,v0,1
    1668:	aee24e30 	sw	v0,20016(s7)
    166c:	8ee24e30 	lw	v0,20016(s7)
    1670:	000210c0 	sll	v0,v0,0x3
    1674:	24425038 	addiu	v0,v0,20536
    1678:	02e22021 	addu	a0,s7,v0
    167c:	24020007 	li	v0,7
    1680:	ac820000 	sw	v0,0(a0)
    1684:	24020001 	li	v0,1
    1688:	ac820004 	sw	v0,4(a0)
    168c:	8f82011c 	lw	v0,284(gp)
    1690:	2403fffd 	li	v1,-3
    1694:	00431024 	and	v0,v0,v1
    1698:	af82011c 	sw	v0,284(gp)
    169c:	8ee201e4 	lw	v0,484(s7)
    16a0:	3c070001 	lui	a3,0x1
    16a4:	00f73821 	addu	a3,a3,s7
    16a8:	8ce783d0 	lw	a3,-31792(a3)
    16ac:	24420001 	addiu	v0,v0,1
    16b0:	aee201e4 	sw	v0,484(s7)
    16b4:	8ee201e4 	lw	v0,484(s7)
    16b8:	3c040001 	lui	a0,0x1
    16bc:	2484527c 	addiu	a0,a0,21116
    16c0:	080015bd 	j	0x56f4
    16c4:	afa00010 	sw	zero,16(sp)
    16c8:	8f820104 	lw	v0,260(gp)
    16cc:	3c010001 	lui	at,0x1
    16d0:	00370821 	addu	at,at,s7
    16d4:	ac2283d0 	sw	v0,-31792(at)
    16d8:	8f8200b4 	lw	v0,180(gp)
    16dc:	3c070001 	lui	a3,0x1
    16e0:	00f73821 	addu	a3,a3,s7
    16e4:	8ce783d0 	lw	a3,-31792(a3)
    16e8:	3c040001 	lui	a0,0x1
    16ec:	24845284 	addiu	a0,a0,21124
    16f0:	3c010001 	lui	at,0x1
    16f4:	00370821 	addu	at,at,s7
    16f8:	ac2283d4 	sw	v0,-31788(at)
    16fc:	afa00010 	sw	zero,16(sp)
    1700:	afa00014 	sw	zero,20(sp)
    1704:	8f8600b0 	lw	a2,176(gp)
    1708:	3c050005 	lui	a1,0x5
    170c:	0c002403 	jal	0x900c
    1710:	34a50900 	ori	a1,a1,0x900
    1714:	080015cc 	j	0x5730
    1718:	00000000 	nop
    171c:	8f820104 	lw	v0,260(gp)
    1720:	3c010001 	lui	at,0x1
    1724:	00370821 	addu	at,at,s7
    1728:	ac2283d0 	sw	v0,-31792(at)
    172c:	8f8200b4 	lw	v0,180(gp)
    1730:	3c010001 	lui	at,0x1
    1734:	00370821 	addu	at,at,s7
    1738:	ac2283d4 	sw	v0,-31788(at)
    173c:	8ee27274 	lw	v0,29300(s7)
    1740:	92e304f4 	lbu	v1,1268(s7)
    1744:	24420067 	addiu	v0,v0,103
    1748:	14600006 	bnez	v1,0x1764
    174c:	aee27274 	sw	v0,29300(s7)
    1750:	8ee27274 	lw	v0,29300(s7)
    1754:	8f430234 	lw	v1,564(k0)
    1758:	0043102b 	sltu	v0,v0,v1
    175c:	1440007b 	bnez	v0,0x194c
    1760:	00000000 	nop
    1764:	8ee304e4 	lw	v1,1252(s7)
    1768:	8ee204f8 	lw	v0,1272(s7)
    176c:	14620004 	bne	v1,v0,0x1780
    1770:	00000000 	nop
    1774:	92e204f4 	lbu	v0,1268(s7)
    1778:	50400074 	beqzl	v0,0x194c
    177c:	a2e004f4 	sb	zero,1268(s7)
    1780:	8f830120 	lw	v1,288(gp)
    1784:	27623800 	addiu	v0,k1,14336
    1788:	24660020 	addiu	a2,v1,32
    178c:	00c2102b 	sltu	v0,a2,v0
    1790:	50400001 	beqzl	v0,0x1798
    1794:	27663000 	addiu	a2,k1,12288
    1798:	8f820128 	lw	v0,296(gp)
    179c:	10c20004 	beq	a2,v0,0x17b0
    17a0:	00000000 	nop
    17a4:	8f820124 	lw	v0,292(gp)
    17a8:	14c20007 	bne	a2,v0,0x17c8
    17ac:	00000000 	nop
    17b0:	8ee201a4 	lw	v0,420(s7)
    17b4:	00008021 	move	s0,zero
    17b8:	24420001 	addiu	v0,v0,1
    17bc:	aee201a4 	sw	v0,420(s7)
    17c0:	08001637 	j	0x58dc
    17c4:	8ee201a4 	lw	v0,420(s7)
    17c8:	8ee204e4 	lw	v0,1252(s7)
    17cc:	ac62001c 	sw	v0,28(v1)
    17d0:	8ee404b0 	lw	a0,1200(s7)
    17d4:	8ee504b4 	lw	a1,1204(s7)
    17d8:	2462001c 	addiu	v0,v1,28
    17dc:	ac620008 	sw	v0,8(v1)
    17e0:	24020008 	li	v0,8
    17e4:	a462000e 	sh	v0,14(v1)
    17e8:	24020011 	li	v0,17
    17ec:	ac620018 	sw	v0,24(v1)
    17f0:	ac640000 	sw	a0,0(v1)
    17f4:	ac650004 	sw	a1,4(v1)
    17f8:	8ee204c4 	lw	v0,1220(s7)
    17fc:	ac620010 	sw	v0,16(v1)
    1800:	af860120 	sw	a2,288(gp)
    1804:	92e24e20 	lbu	v0,20000(s7)
    1808:	14400037 	bnez	v0,0x18e8
    180c:	24100001 	li	s0,1
    1810:	8ee24e30 	lw	v0,20016(s7)
    1814:	000210c0 	sll	v0,v0,0x3
    1818:	24425038 	addiu	v0,v0,20536
    181c:	02e22021 	addu	a0,s7,v0
    1820:	8c830000 	lw	v1,0(a0)
    1824:	24020012 	li	v0,18
    1828:	1462001f 	bne	v1,v0,0x18a8
    182c:	00000000 	nop
    1830:	8ee34e30 	lw	v1,20016(s7)
    1834:	8ee24e34 	lw	v0,20020(s7)
    1838:	1062001b 	beq	v1,v0,0x18a8
    183c:	24030040 	li	v1,64
    1840:	8c820004 	lw	v0,4(a0)
    1844:	24420001 	addiu	v0,v0,1
    1848:	ac820004 	sw	v0,4(a0)
    184c:	8ee24e34 	lw	v0,20020(s7)
    1850:	8ee54e30 	lw	a1,20016(s7)
    1854:	24420001 	addiu	v0,v0,1
    1858:	10430007 	beq	v0,v1,0x1878
    185c:	00000000 	nop
    1860:	8ee24e34 	lw	v0,20020(s7)
    1864:	24420001 	addiu	v0,v0,1
    1868:	10a20005 	beq	a1,v0,0x1880
    186c:	00000000 	nop
    1870:	08001621 	j	0x5884
    1874:	00000000 	nop
    1878:	14a00005 	bnez	a1,0x1890
    187c:	00000000 	nop
    1880:	8f820128 	lw	v0,296(gp)
    1884:	24420020 	addiu	v0,v0,32
    1888:	af820128 	sw	v0,296(gp)
    188c:	8f820128 	lw	v0,296(gp)
    1890:	8c820004 	lw	v0,4(a0)
    1894:	2c420011 	sltiu	v0,v0,17
    1898:	50400013 	beqzl	v0,0x18e8
    189c:	ac800000 	sw	zero,0(a0)
    18a0:	08001637 	j	0x58dc
    18a4:	00000000 	nop
    18a8:	8ee24e30 	lw	v0,20016(s7)
    18ac:	24030040 	li	v1,64
    18b0:	24420001 	addiu	v0,v0,1
    18b4:	50430003 	beql	v0,v1,0x18c4
    18b8:	00001021 	move	v0,zero
    18bc:	8ee24e30 	lw	v0,20016(s7)
    18c0:	24420001 	addiu	v0,v0,1
    18c4:	aee24e30 	sw	v0,20016(s7)
    18c8:	8ee24e30 	lw	v0,20016(s7)
    18cc:	000210c0 	sll	v0,v0,0x3
    18d0:	24425038 	addiu	v0,v0,20536
    18d4:	02e22021 	addu	a0,s7,v0
    18d8:	24020012 	li	v0,18
    18dc:	ac820000 	sw	v0,0(a0)
    18e0:	24020001 	li	v0,1
    18e4:	ac820004 	sw	v0,4(a0)
    18e8:	5600000b 	bnezl	s0,0x1918
    18ec:	24100001 	li	s0,1
    18f0:	8ee204e4 	lw	v0,1252(s7)
    18f4:	3c040001 	lui	a0,0x1
    18f8:	2484528c 	addiu	a0,a0,21132
    18fc:	afa00014 	sw	zero,20(sp)
    1900:	afa20010 	sw	v0,16(sp)
    1904:	8ee60608 	lw	a2,1544(s7)
    1908:	8f470228 	lw	a3,552(k0)
    190c:	3c050009 	lui	a1,0x9
    1910:	0c002403 	jal	0x900c
    1914:	34a5f006 	ori	a1,a1,0xf006
    1918:	16000003 	bnez	s0,0x1928
    191c:	24020001 	li	v0,1
    1920:	08001650 	j	0x5940
    1924:	a2e204f4 	sb	v0,1268(s7)
    1928:	8ee20170 	lw	v0,368(s7)
    192c:	24420001 	addiu	v0,v0,1
    1930:	aee20170 	sw	v0,368(s7)
    1934:	8ee20170 	lw	v0,368(s7)
    1938:	8ee204e4 	lw	v0,1252(s7)
    193c:	a2e004f4 	sb	zero,1268(s7)
    1940:	aee004f0 	sw	zero,1264(s7)
    1944:	aee07274 	sw	zero,29300(s7)
    1948:	aee204f8 	sw	v0,1272(s7)
    194c:	8ee20e1c 	lw	v0,3612(s7)
    1950:	1040006d 	beqz	v0,0x1b08
    1954:	00000000 	nop
    1958:	8f830120 	lw	v1,288(gp)
    195c:	27623800 	addiu	v0,k1,14336
    1960:	24660020 	addiu	a2,v1,32
    1964:	00c2102b 	sltu	v0,a2,v0
    1968:	50400001 	beqzl	v0,0x1970
    196c:	27663000 	addiu	a2,k1,12288
    1970:	8f820128 	lw	v0,296(gp)
    1974:	10c20004 	beq	a2,v0,0x1988
    1978:	00000000 	nop
    197c:	8f820124 	lw	v0,292(gp)
    1980:	14c20007 	bne	a2,v0,0x19a0
    1984:	00000000 	nop
    1988:	8ee201a4 	lw	v0,420(s7)
    198c:	00008021 	move	s0,zero
    1990:	24420001 	addiu	v0,v0,1
    1994:	aee201a4 	sw	v0,420(s7)
    1998:	080016ad 	j	0x5ab4
    199c:	8ee201a4 	lw	v0,420(s7)
    19a0:	8ee2724c 	lw	v0,29260(s7)
    19a4:	ac62001c 	sw	v0,28(v1)
    19a8:	8ee404a8 	lw	a0,1192(s7)
    19ac:	8ee504ac 	lw	a1,1196(s7)
    19b0:	2462001c 	addiu	v0,v1,28
    19b4:	ac620008 	sw	v0,8(v1)
    19b8:	24020008 	li	v0,8
    19bc:	a462000e 	sh	v0,14(v1)
    19c0:	24020011 	li	v0,17
    19c4:	ac620018 	sw	v0,24(v1)
    19c8:	ac640000 	sw	a0,0(v1)
    19cc:	ac650004 	sw	a1,4(v1)
    19d0:	8ee204c4 	lw	v0,1220(s7)
    19d4:	ac620010 	sw	v0,16(v1)
    19d8:	af860120 	sw	a2,288(gp)
    19dc:	92e24e20 	lbu	v0,20000(s7)
    19e0:	14400037 	bnez	v0,0x1ac0
    19e4:	24100001 	li	s0,1
    19e8:	8ee24e30 	lw	v0,20016(s7)
    19ec:	000210c0 	sll	v0,v0,0x3
    19f0:	24425038 	addiu	v0,v0,20536
    19f4:	02e22021 	addu	a0,s7,v0
    19f8:	8c830000 	lw	v1,0(a0)
    19fc:	24020012 	li	v0,18
    1a00:	1462001f 	bne	v1,v0,0x1a80
    1a04:	00000000 	nop
    1a08:	8ee34e30 	lw	v1,20016(s7)
    1a0c:	8ee24e34 	lw	v0,20020(s7)
    1a10:	1062001b 	beq	v1,v0,0x1a80
    1a14:	24030040 	li	v1,64
    1a18:	8c820004 	lw	v0,4(a0)
    1a1c:	24420001 	addiu	v0,v0,1
    1a20:	ac820004 	sw	v0,4(a0)
    1a24:	8ee24e34 	lw	v0,20020(s7)
    1a28:	8ee54e30 	lw	a1,20016(s7)
    1a2c:	24420001 	addiu	v0,v0,1
    1a30:	10430007 	beq	v0,v1,0x1a50
    1a34:	00000000 	nop
    1a38:	8ee24e34 	lw	v0,20020(s7)
    1a3c:	24420001 	addiu	v0,v0,1
    1a40:	10a20005 	beq	a1,v0,0x1a58
    1a44:	00000000 	nop
    1a48:	08001697 	j	0x5a5c
    1a4c:	00000000 	nop
    1a50:	14a00005 	bnez	a1,0x1a68
    1a54:	00000000 	nop
    1a58:	8f820128 	lw	v0,296(gp)
    1a5c:	24420020 	addiu	v0,v0,32
    1a60:	af820128 	sw	v0,296(gp)
    1a64:	8f820128 	lw	v0,296(gp)
    1a68:	8c820004 	lw	v0,4(a0)
    1a6c:	2c420011 	sltiu	v0,v0,17
    1a70:	50400013 	beqzl	v0,0x1ac0
    1a74:	ac800000 	sw	zero,0(a0)
    1a78:	080016ad 	j	0x5ab4
    1a7c:	00000000 	nop
    1a80:	8ee24e30 	lw	v0,20016(s7)
    1a84:	24030040 	li	v1,64
    1a88:	24420001 	addiu	v0,v0,1
    1a8c:	50430003 	beql	v0,v1,0x1a9c
    1a90:	00001021 	move	v0,zero
    1a94:	8ee24e30 	lw	v0,20016(s7)
    1a98:	24420001 	addiu	v0,v0,1
    1a9c:	aee24e30 	sw	v0,20016(s7)
    1aa0:	8ee24e30 	lw	v0,20016(s7)
    1aa4:	000210c0 	sll	v0,v0,0x3
    1aa8:	24425038 	addiu	v0,v0,20536
    1aac:	02e22021 	addu	a0,s7,v0
    1ab0:	24020012 	li	v0,18
    1ab4:	ac820000 	sw	v0,0(a0)
    1ab8:	24020001 	li	v0,1
    1abc:	ac820004 	sw	v0,4(a0)
    1ac0:	5600000b 	bnezl	s0,0x1af0
    1ac4:	24100001 	li	s0,1
    1ac8:	8ee2724c 	lw	v0,29260(s7)
    1acc:	3c040001 	lui	a0,0x1
    1ad0:	24845298 	addiu	a0,a0,21144
    1ad4:	afa00014 	sw	zero,20(sp)
    1ad8:	afa20010 	sw	v0,16(sp)
    1adc:	8ee6724c 	lw	a2,29260(s7)
    1ae0:	8f470280 	lw	a3,640(k0)
    1ae4:	3c050009 	lui	a1,0x9
    1ae8:	0c002403 	jal	0x900c
    1aec:	34a5f008 	ori	a1,a1,0xf008
    1af0:	56000001 	bnezl	s0,0x1af8
    1af4:	aee00e1c 	sw	zero,3612(s7)
    1af8:	8ee20174 	lw	v0,372(s7)
    1afc:	24420001 	addiu	v0,v0,1
    1b00:	aee20174 	sw	v0,372(s7)
    1b04:	8ee20174 	lw	v0,372(s7)
    1b08:	8ee24e24 	lw	v0,20004(s7)
    1b0c:	10400019 	beqz	v0,0x1b74
    1b10:	00000000 	nop
    1b14:	aee04e24 	sw	zero,20004(s7)
    1b18:	8f820040 	lw	v0,64(gp)
    1b1c:	30420001 	andi	v0,v0,0x1
    1b20:	14400008 	bnez	v0,0x1b44
    1b24:	00000000 	nop
    1b28:	8f430104 	lw	v1,260(k0)
    1b2c:	24020001 	li	v0,1
    1b30:	10620004 	beq	v1,v0,0x1b44
    1b34:	00000000 	nop
    1b38:	8f420264 	lw	v0,612(k0)
    1b3c:	10400006 	beqz	v0,0x1b58
    1b40:	00000000 	nop
    1b44:	8ee2017c 	lw	v0,380(s7)
    1b48:	24420001 	addiu	v0,v0,1
    1b4c:	aee2017c 	sw	v0,380(s7)
    1b50:	080016da 	j	0x5b68
    1b54:	8ee2017c 	lw	v0,380(s7)
    1b58:	8f820044 	lw	v0,68(gp)
    1b5c:	34420004 	ori	v0,v0,0x4
    1b60:	af820044 	sw	v0,68(gp)
    1b64:	8ee20178 	lw	v0,376(s7)
    1b68:	24420001 	addiu	v0,v0,1
    1b6c:	aee20178 	sw	v0,376(s7)
    1b70:	8ee20178 	lw	v0,376(s7)
    1b74:	8ee27278 	lw	v0,29304(s7)
    1b78:	2442ff99 	addiu	v0,v0,-103
    1b7c:	aee27278 	sw	v0,29304(s7)
    1b80:	8ee27278 	lw	v0,29304(s7)
    1b84:	1c4002ad 	bgtz	v0,0x263c
    1b88:	00000000 	nop
    1b8c:	8f420238 	lw	v0,568(k0)
    1b90:	104002aa 	beqz	v0,0x263c
    1b94:	00000000 	nop
    1b98:	3c020001 	lui	v0,0x1
    1b9c:	00571021 	addu	v0,v0,s7
    1ba0:	904283e0 	lbu	v0,-31776(v0)
    1ba4:	144002a5 	bnez	v0,0x263c
    1ba8:	00000000 	nop
    1bac:	8f420080 	lw	v0,128(k0)
    1bb0:	aee2004c 	sw	v0,76(s7)
    1bb4:	8f4200c0 	lw	v0,192(k0)
    1bb8:	aee20048 	sw	v0,72(s7)
    1bbc:	8f420084 	lw	v0,132(k0)
    1bc0:	aee20038 	sw	v0,56(s7)
    1bc4:	8f420084 	lw	v0,132(k0)
    1bc8:	aee20244 	sw	v0,580(s7)
    1bcc:	8f420088 	lw	v0,136(k0)
    1bd0:	aee20248 	sw	v0,584(s7)
    1bd4:	8f42008c 	lw	v0,140(k0)
    1bd8:	aee2024c 	sw	v0,588(s7)
    1bdc:	8f420090 	lw	v0,144(k0)
    1be0:	aee20250 	sw	v0,592(s7)
    1be4:	8f420094 	lw	v0,148(k0)
    1be8:	aee20254 	sw	v0,596(s7)
    1bec:	8f420098 	lw	v0,152(k0)
    1bf0:	aee20258 	sw	v0,600(s7)
    1bf4:	8f42009c 	lw	v0,156(k0)
    1bf8:	aee2025c 	sw	v0,604(s7)
    1bfc:	8f4200a0 	lw	v0,160(k0)
    1c00:	aee20260 	sw	v0,608(s7)
    1c04:	8f4200a4 	lw	v0,164(k0)
    1c08:	aee20264 	sw	v0,612(s7)
    1c0c:	8f4200a8 	lw	v0,168(k0)
    1c10:	aee20268 	sw	v0,616(s7)
    1c14:	8f4200ac 	lw	v0,172(k0)
    1c18:	aee2026c 	sw	v0,620(s7)
    1c1c:	8f4200b0 	lw	v0,176(k0)
    1c20:	aee20270 	sw	v0,624(s7)
    1c24:	8f4200b4 	lw	v0,180(k0)
    1c28:	aee20274 	sw	v0,628(s7)
    1c2c:	8f4200b8 	lw	v0,184(k0)
    1c30:	aee20278 	sw	v0,632(s7)
    1c34:	8f4200bc 	lw	v0,188(k0)
    1c38:	24040001 	li	a0,1
    1c3c:	aee2027c 	sw	v0,636(s7)
    1c40:	aee0003c 	sw	zero,60(s7)
    1c44:	00041080 	sll	v0,a0,0x2
    1c48:	00571021 	addu	v0,v0,s7
    1c4c:	8ee3003c 	lw	v1,60(s7)
    1c50:	8c420244 	lw	v0,580(v0)
    1c54:	24840001 	addiu	a0,a0,1
    1c58:	00621821 	addu	v1,v1,v0
    1c5c:	2c82000f 	sltiu	v0,a0,15
    1c60:	aee3003c 	sw	v1,60(s7)
    1c64:	1440fff8 	bnez	v0,0x1c48
    1c68:	00041080 	sll	v0,a0,0x2
    1c6c:	8f4200cc 	lw	v0,204(k0)
    1c70:	aee20050 	sw	v0,80(s7)
    1c74:	8f4200d0 	lw	v0,208(k0)
    1c78:	aee20054 	sw	v0,84(s7)
    1c7c:	8f830120 	lw	v1,288(gp)
    1c80:	27623800 	addiu	v0,k1,14336
    1c84:	24660020 	addiu	a2,v1,32
    1c88:	00c2102b 	sltu	v0,a2,v0
    1c8c:	50400001 	beqzl	v0,0x1c94
    1c90:	27663000 	addiu	a2,k1,12288
    1c94:	8f820128 	lw	v0,296(gp)
    1c98:	10c20004 	beq	a2,v0,0x1cac
    1c9c:	00000000 	nop
    1ca0:	8f820124 	lw	v0,292(gp)
    1ca4:	14c20007 	bne	a2,v0,0x1cc4
    1ca8:	00000000 	nop
    1cac:	8ee201a4 	lw	v0,420(s7)
    1cb0:	00008021 	move	s0,zero
    1cb4:	24420001 	addiu	v0,v0,1
    1cb8:	aee201a4 	sw	v0,420(s7)
    1cbc:	08001775 	j	0x5dd4
    1cc0:	8ee201a4 	lw	v0,420(s7)
    1cc4:	8f440208 	lw	a0,520(k0)
    1cc8:	8f45020c 	lw	a1,524(k0)
    1ccc:	26e20030 	addiu	v0,s7,48
    1cd0:	ac620008 	sw	v0,8(v1)
    1cd4:	24020400 	li	v0,1024
    1cd8:	a462000e 	sh	v0,14(v1)
    1cdc:	2402000f 	li	v0,15
    1ce0:	ac620018 	sw	v0,24(v1)
    1ce4:	ac60001c 	sw	zero,28(v1)
    1ce8:	ac640000 	sw	a0,0(v1)
    1cec:	ac650004 	sw	a1,4(v1)
    1cf0:	8ee204c4 	lw	v0,1220(s7)
    1cf4:	ac620010 	sw	v0,16(v1)
    1cf8:	af860120 	sw	a2,288(gp)
    1cfc:	92e24e20 	lbu	v0,20000(s7)
    1d00:	14400037 	bnez	v0,0x1de0
    1d04:	24100001 	li	s0,1
    1d08:	8ee24e30 	lw	v0,20016(s7)
    1d0c:	000210c0 	sll	v0,v0,0x3
    1d10:	24425038 	addiu	v0,v0,20536
    1d14:	02e22021 	addu	a0,s7,v0
    1d18:	8c830000 	lw	v1,0(a0)
    1d1c:	24020007 	li	v0,7
    1d20:	1462001f 	bne	v1,v0,0x1da0
    1d24:	00000000 	nop
    1d28:	8ee34e30 	lw	v1,20016(s7)
    1d2c:	8ee24e34 	lw	v0,20020(s7)
    1d30:	1062001b 	beq	v1,v0,0x1da0
    1d34:	24030040 	li	v1,64
    1d38:	8c820004 	lw	v0,4(a0)
    1d3c:	24420001 	addiu	v0,v0,1
    1d40:	ac820004 	sw	v0,4(a0)
    1d44:	8ee24e34 	lw	v0,20020(s7)
    1d48:	8ee54e30 	lw	a1,20016(s7)
    1d4c:	24420001 	addiu	v0,v0,1
    1d50:	10430007 	beq	v0,v1,0x1d70
    1d54:	00000000 	nop
    1d58:	8ee24e34 	lw	v0,20020(s7)
    1d5c:	24420001 	addiu	v0,v0,1
    1d60:	10a20005 	beq	a1,v0,0x1d78
    1d64:	00000000 	nop
    1d68:	0800175f 	j	0x5d7c
    1d6c:	00000000 	nop
    1d70:	14a00005 	bnez	a1,0x1d88
    1d74:	00000000 	nop
    1d78:	8f820128 	lw	v0,296(gp)
    1d7c:	24420020 	addiu	v0,v0,32
    1d80:	af820128 	sw	v0,296(gp)
    1d84:	8f820128 	lw	v0,296(gp)
    1d88:	8c820004 	lw	v0,4(a0)
    1d8c:	2c420011 	sltiu	v0,v0,17
    1d90:	50400013 	beqzl	v0,0x1de0
    1d94:	ac800000 	sw	zero,0(a0)
    1d98:	08001775 	j	0x5dd4
    1d9c:	00000000 	nop
    1da0:	8ee24e30 	lw	v0,20016(s7)
    1da4:	24030040 	li	v1,64
    1da8:	24420001 	addiu	v0,v0,1
    1dac:	50430003 	beql	v0,v1,0x1dbc
    1db0:	00001021 	move	v0,zero
    1db4:	8ee24e30 	lw	v0,20016(s7)
    1db8:	24420001 	addiu	v0,v0,1
    1dbc:	aee24e30 	sw	v0,20016(s7)
    1dc0:	8ee24e30 	lw	v0,20016(s7)
    1dc4:	000210c0 	sll	v0,v0,0x3
    1dc8:	24425038 	addiu	v0,v0,20536
    1dcc:	02e22021 	addu	a0,s7,v0
    1dd0:	24020007 	li	v0,7
    1dd4:	ac820000 	sw	v0,0(a0)
    1dd8:	24020001 	li	v0,1
    1ddc:	ac820004 	sw	v0,4(a0)
    1de0:	12000212 	beqz	s0,0x262c
    1de4:	3c020400 	lui	v0,0x400
    1de8:	afa20018 	sw	v0,24(sp)
    1dec:	3c020001 	lui	v0,0x1
    1df0:	00571021 	addu	v0,v0,s7
    1df4:	904283b0 	lbu	v0,-31824(v0)
    1df8:	1040010b 	beqz	v0,0x2228
    1dfc:	00000000 	nop
    1e00:	8ee20608 	lw	v0,1544(s7)
    1e04:	8f430228 	lw	v1,552(k0)
    1e08:	24420001 	addiu	v0,v0,1
    1e0c:	304a00ff 	andi	t2,v0,0xff
    1e10:	514300fd 	beql	t2,v1,0x2208
    1e14:	afa00010 	sw	zero,16(sp)
    1e18:	8ee20608 	lw	v0,1544(s7)
    1e1c:	000210c0 	sll	v0,v0,0x3
    1e20:	00571021 	addu	v0,v0,s7
    1e24:	8fa30018 	lw	v1,24(sp)
    1e28:	8fa4001c 	lw	a0,28(sp)
    1e2c:	ac43060c 	sw	v1,1548(v0)
    1e30:	ac440610 	sw	a0,1552(v0)
    1e34:	8f830054 	lw	v1,84(gp)
    1e38:	8f820054 	lw	v0,84(gp)
    1e3c:	24690032 	addiu	t1,v1,50
    1e40:	01221023 	subu	v0,t1,v0
    1e44:	2c420033 	sltiu	v0,v0,51
    1e48:	1040006a 	beqz	v0,0x1ff4
    1e4c:	00005821 	move	t3,zero
    1e50:	24180008 	li	t8,8
    1e54:	240f000d 	li	t7,13
    1e58:	240d0007 	li	t5,7
    1e5c:	240c0040 	li	t4,64
    1e60:	240e0001 	li	t6,1
    1e64:	8f870120 	lw	a3,288(gp)
    1e68:	27623800 	addiu	v0,k1,14336
    1e6c:	24e80020 	addiu	t0,a3,32
    1e70:	0102102b 	sltu	v0,t0,v0
    1e74:	50400001 	beqzl	v0,0x1e7c
    1e78:	27683000 	addiu	t0,k1,12288
    1e7c:	8f820128 	lw	v0,296(gp)
    1e80:	11020004 	beq	t0,v0,0x1e94
    1e84:	00000000 	nop
    1e88:	8f820124 	lw	v0,292(gp)
    1e8c:	15020007 	bne	t0,v0,0x1eac
    1e90:	00001021 	move	v0,zero
    1e94:	8ee201a4 	lw	v0,420(s7)
    1e98:	00008021 	move	s0,zero
    1e9c:	24420001 	addiu	v0,v0,1
    1ea0:	aee201a4 	sw	v0,420(s7)
    1ea4:	080017f3 	j	0x5fcc
    1ea8:	8ee201a4 	lw	v0,420(s7)
    1eac:	8ee40608 	lw	a0,1544(s7)
    1eb0:	000420c0 	sll	a0,a0,0x3
    1eb4:	00801821 	move	v1,a0
    1eb8:	8ee40430 	lw	a0,1072(s7)
    1ebc:	8ee50434 	lw	a1,1076(s7)
    1ec0:	00a32821 	addu	a1,a1,v1
    1ec4:	00a3302b 	sltu	a2,a1,v1
    1ec8:	00822021 	addu	a0,a0,v0
    1ecc:	00862021 	addu	a0,a0,a2
    1ed0:	ace40000 	sw	a0,0(a3)
    1ed4:	ace50004 	sw	a1,4(a3)
    1ed8:	8ee20608 	lw	v0,1544(s7)
    1edc:	a4f8000e 	sh	t8,14(a3)
    1ee0:	acef0018 	sw	t7,24(a3)
    1ee4:	acea001c 	sw	t2,28(a3)
    1ee8:	000210c0 	sll	v0,v0,0x3
    1eec:	2442060c 	addiu	v0,v0,1548
    1ef0:	02e21021 	addu	v0,s7,v0
    1ef4:	ace20008 	sw	v0,8(a3)
    1ef8:	8ee204c4 	lw	v0,1220(s7)
    1efc:	ace20010 	sw	v0,16(a3)
    1f00:	af880120 	sw	t0,288(gp)
    1f04:	92e24e20 	lbu	v0,20000(s7)
    1f08:	14400033 	bnez	v0,0x1fd8
    1f0c:	24100001 	li	s0,1
    1f10:	8ee24e30 	lw	v0,20016(s7)
    1f14:	000210c0 	sll	v0,v0,0x3
    1f18:	24425038 	addiu	v0,v0,20536
    1f1c:	02e22021 	addu	a0,s7,v0
    1f20:	8c820000 	lw	v0,0(a0)
    1f24:	144d001f 	bne	v0,t5,0x1fa4
    1f28:	00000000 	nop
    1f2c:	8ee34e30 	lw	v1,20016(s7)
    1f30:	8ee24e34 	lw	v0,20020(s7)
    1f34:	1062001b 	beq	v1,v0,0x1fa4
    1f38:	00000000 	nop
    1f3c:	8c820004 	lw	v0,4(a0)
    1f40:	24420001 	addiu	v0,v0,1
    1f44:	ac820004 	sw	v0,4(a0)
    1f48:	8ee24e34 	lw	v0,20020(s7)
    1f4c:	8ee34e30 	lw	v1,20016(s7)
    1f50:	24420001 	addiu	v0,v0,1
    1f54:	104c0007 	beq	v0,t4,0x1f74
    1f58:	00000000 	nop
    1f5c:	8ee24e34 	lw	v0,20020(s7)
    1f60:	24420001 	addiu	v0,v0,1
    1f64:	10620005 	beq	v1,v0,0x1f7c
    1f68:	00000000 	nop
    1f6c:	080017e0 	j	0x5f80
    1f70:	00000000 	nop
    1f74:	14600005 	bnez	v1,0x1f8c
    1f78:	00000000 	nop
    1f7c:	8f820128 	lw	v0,296(gp)
    1f80:	24420020 	addiu	v0,v0,32
    1f84:	af820128 	sw	v0,296(gp)
    1f88:	8f820128 	lw	v0,296(gp)
    1f8c:	8c820004 	lw	v0,4(a0)
    1f90:	2c420011 	sltiu	v0,v0,17
    1f94:	50400010 	beqzl	v0,0x1fd8
    1f98:	ac800000 	sw	zero,0(a0)
    1f9c:	080017f3 	j	0x5fcc
    1fa0:	00000000 	nop
    1fa4:	8ee24e30 	lw	v0,20016(s7)
    1fa8:	24420001 	addiu	v0,v0,1
    1fac:	504c0003 	beql	v0,t4,0x1fbc
    1fb0:	00001021 	move	v0,zero
    1fb4:	8ee24e30 	lw	v0,20016(s7)
    1fb8:	24420001 	addiu	v0,v0,1
    1fbc:	aee24e30 	sw	v0,20016(s7)
    1fc0:	8ee24e30 	lw	v0,20016(s7)
    1fc4:	000210c0 	sll	v0,v0,0x3
    1fc8:	24425038 	addiu	v0,v0,20536
    1fcc:	02e22021 	addu	a0,s7,v0
    1fd0:	ac8d0000 	sw	t5,0(a0)
    1fd4:	ac8e0004 	sw	t6,4(a0)
    1fd8:	56000006 	bnezl	s0,0x1ff4
    1fdc:	240b0001 	li	t3,1
    1fe0:	8f820054 	lw	v0,84(gp)
    1fe4:	01221023 	subu	v0,t1,v0
    1fe8:	2c420033 	sltiu	v0,v0,51
    1fec:	1440ff9d 	bnez	v0,0x1e64
    1ff0:	00000000 	nop
    1ff4:	316300ff 	andi	v1,t3,0xff
    1ff8:	24020001 	li	v0,1
    1ffc:	14620077 	bne	v1,v0,0x21dc
    2000:	3c050009 	lui	a1,0x9
    2004:	aeea0608 	sw	t2,1544(s7)
    2008:	8f830054 	lw	v1,84(gp)
    200c:	8f820054 	lw	v0,84(gp)
    2010:	24690032 	addiu	t1,v1,50
    2014:	01221023 	subu	v0,t1,v0
    2018:	2c420033 	sltiu	v0,v0,51
    201c:	10400061 	beqz	v0,0x21a4
    2020:	00005821 	move	t3,zero
    2024:	240d0008 	li	t5,8
    2028:	240c0011 	li	t4,17
    202c:	24080012 	li	t0,18
    2030:	24070040 	li	a3,64
    2034:	240a0001 	li	t2,1
    2038:	8f830120 	lw	v1,288(gp)
    203c:	27623800 	addiu	v0,k1,14336
    2040:	24660020 	addiu	a2,v1,32
    2044:	00c2102b 	sltu	v0,a2,v0
    2048:	50400001 	beqzl	v0,0x2050
    204c:	27663000 	addiu	a2,k1,12288
    2050:	8f820128 	lw	v0,296(gp)
    2054:	10c20004 	beq	a2,v0,0x2068
    2058:	00000000 	nop
    205c:	8f820124 	lw	v0,292(gp)
    2060:	14c20007 	bne	a2,v0,0x2080
    2064:	00000000 	nop
    2068:	8ee201a4 	lw	v0,420(s7)
    206c:	00008021 	move	s0,zero
    2070:	24420001 	addiu	v0,v0,1
    2074:	aee201a4 	sw	v0,420(s7)
    2078:	0800185f 	j	0x617c
    207c:	8ee201a4 	lw	v0,420(s7)
    2080:	8ee20608 	lw	v0,1544(s7)
    2084:	ac62001c 	sw	v0,28(v1)
    2088:	8ee404a0 	lw	a0,1184(s7)
    208c:	8ee504a4 	lw	a1,1188(s7)
    2090:	2462001c 	addiu	v0,v1,28
    2094:	ac620008 	sw	v0,8(v1)
    2098:	a46d000e 	sh	t5,14(v1)
    209c:	ac6c0018 	sw	t4,24(v1)
    20a0:	ac640000 	sw	a0,0(v1)
    20a4:	ac650004 	sw	a1,4(v1)
    20a8:	8ee204c4 	lw	v0,1220(s7)
    20ac:	ac620010 	sw	v0,16(v1)
    20b0:	af860120 	sw	a2,288(gp)
    20b4:	92e24e20 	lbu	v0,20000(s7)
    20b8:	14400033 	bnez	v0,0x2188
    20bc:	24100001 	li	s0,1
    20c0:	8ee24e30 	lw	v0,20016(s7)
    20c4:	000210c0 	sll	v0,v0,0x3
    20c8:	24425038 	addiu	v0,v0,20536
    20cc:	02e22021 	addu	a0,s7,v0
    20d0:	8c820000 	lw	v0,0(a0)
    20d4:	1448001f 	bne	v0,t0,0x2154
    20d8:	00000000 	nop
    20dc:	8ee34e30 	lw	v1,20016(s7)
    20e0:	8ee24e34 	lw	v0,20020(s7)
    20e4:	1062001b 	beq	v1,v0,0x2154
    20e8:	00000000 	nop
    20ec:	8c820004 	lw	v0,4(a0)
    20f0:	24420001 	addiu	v0,v0,1
    20f4:	ac820004 	sw	v0,4(a0)
    20f8:	8ee24e34 	lw	v0,20020(s7)
    20fc:	8ee34e30 	lw	v1,20016(s7)
    2100:	24420001 	addiu	v0,v0,1
    2104:	10470007 	beq	v0,a3,0x2124
    2108:	00000000 	nop
    210c:	8ee24e34 	lw	v0,20020(s7)
    2110:	24420001 	addiu	v0,v0,1
    2114:	10620005 	beq	v1,v0,0x212c
    2118:	00000000 	nop
    211c:	0800184c 	j	0x6130
    2120:	00000000 	nop
    2124:	14600005 	bnez	v1,0x213c
    2128:	00000000 	nop
    212c:	8f820128 	lw	v0,296(gp)
    2130:	24420020 	addiu	v0,v0,32
    2134:	af820128 	sw	v0,296(gp)
    2138:	8f820128 	lw	v0,296(gp)
    213c:	8c820004 	lw	v0,4(a0)
    2140:	2c420011 	sltiu	v0,v0,17
    2144:	50400010 	beqzl	v0,0x2188
    2148:	ac800000 	sw	zero,0(a0)
    214c:	0800185f 	j	0x617c
    2150:	00000000 	nop
    2154:	8ee24e30 	lw	v0,20016(s7)
    2158:	24420001 	addiu	v0,v0,1
    215c:	50470003 	beql	v0,a3,0x216c
    2160:	00001021 	move	v0,zero
    2164:	8ee24e30 	lw	v0,20016(s7)
    2168:	24420001 	addiu	v0,v0,1
    216c:	aee24e30 	sw	v0,20016(s7)
    2170:	8ee24e30 	lw	v0,20016(s7)
    2174:	000210c0 	sll	v0,v0,0x3
    2178:	24425038 	addiu	v0,v0,20536
    217c:	02e22021 	addu	a0,s7,v0
    2180:	ac880000 	sw	t0,0(a0)
    2184:	ac8a0004 	sw	t2,4(a0)
    2188:	56000006 	bnezl	s0,0x21a4
    218c:	240b0001 	li	t3,1
    2190:	8f820054 	lw	v0,84(gp)
    2194:	01221023 	subu	v0,t1,v0
    2198:	2c420033 	sltiu	v0,v0,51
    219c:	1440ffa6 	bnez	v0,0x2038
    21a0:	00000000 	nop
    21a4:	316300ff 	andi	v1,t3,0xff
    21a8:	24020001 	li	v0,1
    21ac:	14620003 	bne	v1,v0,0x21bc
    21b0:	3c050009 	lui	a1,0x9
    21b4:	0800197c 	j	0x65f0
    21b8:	24100001 	li	s0,1
    21bc:	3c040001 	lui	a0,0x1
    21c0:	248452a4 	addiu	a0,a0,21156
    21c4:	afa00010 	sw	zero,16(sp)
    21c8:	afa00014 	sw	zero,20(sp)
    21cc:	8f860120 	lw	a2,288(gp)
    21d0:	8f870124 	lw	a3,292(gp)
    21d4:	0800187b 	j	0x61ec
    21d8:	34a5f011 	ori	a1,a1,0xf011
    21dc:	3c040001 	lui	a0,0x1
    21e0:	248452b0 	addiu	a0,a0,21168
    21e4:	afa00010 	sw	zero,16(sp)
    21e8:	afa00014 	sw	zero,20(sp)
    21ec:	8f860120 	lw	a2,288(gp)
    21f0:	8f870124 	lw	a3,292(gp)
    21f4:	34a5f010 	ori	a1,a1,0xf010
    21f8:	0c002403 	jal	0x900c
    21fc:	00008021 	move	s0,zero
    2200:	0800197c 	j	0x65f0
    2204:	00000000 	nop
    2208:	3c040001 	lui	a0,0x1
    220c:	248452bc 	addiu	a0,a0,21180
    2210:	afa00014 	sw	zero,20(sp)
    2214:	8ee60608 	lw	a2,1544(s7)
    2218:	8f470228 	lw	a3,552(k0)
    221c:	3c050009 	lui	a1,0x9
    2220:	08001975 	j	0x65d4
    2224:	34a5f00f 	ori	a1,a1,0xf00f
    2228:	8ee20608 	lw	v0,1544(s7)
    222c:	8f430228 	lw	v1,552(k0)
    2230:	24420001 	addiu	v0,v0,1
    2234:	304900ff 	andi	t1,v0,0xff
    2238:	512300e2 	beql	t1,v1,0x25c4
    223c:	afa00010 	sw	zero,16(sp)
    2240:	8ee20608 	lw	v0,1544(s7)
    2244:	000210c0 	sll	v0,v0,0x3
    2248:	00571021 	addu	v0,v0,s7
    224c:	8fa30018 	lw	v1,24(sp)
    2250:	8fa4001c 	lw	a0,28(sp)
    2254:	ac43060c 	sw	v1,1548(v0)
    2258:	ac440610 	sw	a0,1552(v0)
    225c:	8f870120 	lw	a3,288(gp)
    2260:	27623800 	addiu	v0,k1,14336
    2264:	24e80020 	addiu	t0,a3,32
    2268:	0102102b 	sltu	v0,t0,v0
    226c:	50400001 	beqzl	v0,0x2274
    2270:	27683000 	addiu	t0,k1,12288
    2274:	8f820128 	lw	v0,296(gp)
    2278:	11020004 	beq	t0,v0,0x228c
    227c:	00000000 	nop
    2280:	8f820124 	lw	v0,292(gp)
    2284:	15020007 	bne	t0,v0,0x22a4
    2288:	00001021 	move	v0,zero
    228c:	8ee201a4 	lw	v0,420(s7)
    2290:	00008021 	move	s0,zero
    2294:	24420001 	addiu	v0,v0,1
    2298:	aee201a4 	sw	v0,420(s7)
    229c:	080018f7 	j	0x63dc
    22a0:	8ee201a4 	lw	v0,420(s7)
    22a4:	8ee40608 	lw	a0,1544(s7)
    22a8:	000420c0 	sll	a0,a0,0x3
    22ac:	00801821 	move	v1,a0
    22b0:	8ee40430 	lw	a0,1072(s7)
    22b4:	8ee50434 	lw	a1,1076(s7)
    22b8:	00a32821 	addu	a1,a1,v1
    22bc:	00a3302b 	sltu	a2,a1,v1
    22c0:	00822021 	addu	a0,a0,v0
    22c4:	00862021 	addu	a0,a0,a2
    22c8:	ace40000 	sw	a0,0(a3)
    22cc:	ace50004 	sw	a1,4(a3)
    22d0:	8ee30608 	lw	v1,1544(s7)
    22d4:	24020008 	li	v0,8
    22d8:	a4e2000e 	sh	v0,14(a3)
    22dc:	2402000d 	li	v0,13
    22e0:	ace20018 	sw	v0,24(a3)
    22e4:	ace9001c 	sw	t1,28(a3)
    22e8:	000318c0 	sll	v1,v1,0x3
    22ec:	2463060c 	addiu	v1,v1,1548
    22f0:	02e31021 	addu	v0,s7,v1
    22f4:	ace20008 	sw	v0,8(a3)
    22f8:	8ee204c4 	lw	v0,1220(s7)
    22fc:	ace20010 	sw	v0,16(a3)
    2300:	af880120 	sw	t0,288(gp)
    2304:	92e24e20 	lbu	v0,20000(s7)
    2308:	14400037 	bnez	v0,0x23e8
    230c:	24100001 	li	s0,1
    2310:	8ee24e30 	lw	v0,20016(s7)
    2314:	000210c0 	sll	v0,v0,0x3
    2318:	24425038 	addiu	v0,v0,20536
    231c:	02e22021 	addu	a0,s7,v0
    2320:	8c830000 	lw	v1,0(a0)
    2324:	24020007 	li	v0,7
    2328:	1462001f 	bne	v1,v0,0x23a8
    232c:	00000000 	nop
    2330:	8ee34e30 	lw	v1,20016(s7)
    2334:	8ee24e34 	lw	v0,20020(s7)
    2338:	1062001b 	beq	v1,v0,0x23a8
    233c:	24030040 	li	v1,64
    2340:	8c820004 	lw	v0,4(a0)
    2344:	24420001 	addiu	v0,v0,1
    2348:	ac820004 	sw	v0,4(a0)
    234c:	8ee24e34 	lw	v0,20020(s7)
    2350:	8ee54e30 	lw	a1,20016(s7)
    2354:	24420001 	addiu	v0,v0,1
    2358:	10430007 	beq	v0,v1,0x2378
    235c:	00000000 	nop
    2360:	8ee24e34 	lw	v0,20020(s7)
    2364:	24420001 	addiu	v0,v0,1
    2368:	10a20005 	beq	a1,v0,0x2380
    236c:	00000000 	nop
    2370:	080018e1 	j	0x6384
    2374:	00000000 	nop
    2378:	14a00005 	bnez	a1,0x2390
    237c:	00000000 	nop
    2380:	8f820128 	lw	v0,296(gp)
    2384:	24420020 	addiu	v0,v0,32
    2388:	af820128 	sw	v0,296(gp)
    238c:	8f820128 	lw	v0,296(gp)
    2390:	8c820004 	lw	v0,4(a0)
    2394:	2c420011 	sltiu	v0,v0,17
    2398:	50400013 	beqzl	v0,0x23e8
    239c:	ac800000 	sw	zero,0(a0)
    23a0:	080018f7 	j	0x63dc
    23a4:	00000000 	nop
    23a8:	8ee24e30 	lw	v0,20016(s7)
    23ac:	24030040 	li	v1,64
    23b0:	24420001 	addiu	v0,v0,1
    23b4:	50430003 	beql	v0,v1,0x23c4
    23b8:	00001021 	move	v0,zero
    23bc:	8ee24e30 	lw	v0,20016(s7)
    23c0:	24420001 	addiu	v0,v0,1
    23c4:	aee24e30 	sw	v0,20016(s7)
    23c8:	8ee24e30 	lw	v0,20016(s7)
    23cc:	000210c0 	sll	v0,v0,0x3
    23d0:	24425038 	addiu	v0,v0,20536
    23d4:	02e22021 	addu	a0,s7,v0
    23d8:	24020007 	li	v0,7
    23dc:	ac820000 	sw	v0,0(a0)
    23e0:	24020001 	li	v0,1
    23e4:	ac820004 	sw	v0,4(a0)
    23e8:	5600000c 	bnezl	s0,0x241c
    23ec:	aee90608 	sw	t1,1544(s7)
    23f0:	3c040001 	lui	a0,0x1
    23f4:	248452c8 	addiu	a0,a0,21192
    23f8:	afa00010 	sw	zero,16(sp)
    23fc:	afa00014 	sw	zero,20(sp)
    2400:	8ee60608 	lw	a2,1544(s7)
    2404:	8f470228 	lw	a3,552(k0)
    2408:	3c050009 	lui	a1,0x9
    240c:	0c002403 	jal	0x900c
    2410:	34a5f000 	ori	a1,a1,0xf000
    2414:	0800197c 	j	0x65f0
    2418:	00000000 	nop
    241c:	8f830120 	lw	v1,288(gp)
    2420:	27623800 	addiu	v0,k1,14336
    2424:	24660020 	addiu	a2,v1,32
    2428:	00c2102b 	sltu	v0,a2,v0
    242c:	50400001 	beqzl	v0,0x2434
    2430:	27663000 	addiu	a2,k1,12288
    2434:	8f820128 	lw	v0,296(gp)
    2438:	10c20004 	beq	a2,v0,0x244c
    243c:	00000000 	nop
    2440:	8f820124 	lw	v0,292(gp)
    2444:	14c20007 	bne	a2,v0,0x2464
    2448:	00000000 	nop
    244c:	8ee201a4 	lw	v0,420(s7)
    2450:	00008021 	move	s0,zero
    2454:	24420001 	addiu	v0,v0,1
    2458:	aee201a4 	sw	v0,420(s7)
    245c:	0800195e 	j	0x6578
    2460:	8ee201a4 	lw	v0,420(s7)
    2464:	8ee20608 	lw	v0,1544(s7)
    2468:	ac62001c 	sw	v0,28(v1)
    246c:	8ee404a0 	lw	a0,1184(s7)
    2470:	8ee504a4 	lw	a1,1188(s7)
    2474:	2462001c 	addiu	v0,v1,28
    2478:	ac620008 	sw	v0,8(v1)
    247c:	24020008 	li	v0,8
    2480:	a462000e 	sh	v0,14(v1)
    2484:	24020011 	li	v0,17
    2488:	ac620018 	sw	v0,24(v1)
    248c:	ac640000 	sw	a0,0(v1)
    2490:	ac650004 	sw	a1,4(v1)
    2494:	8ee204c4 	lw	v0,1220(s7)
    2498:	ac620010 	sw	v0,16(v1)
    249c:	af860120 	sw	a2,288(gp)
    24a0:	92e24e20 	lbu	v0,20000(s7)
    24a4:	14400037 	bnez	v0,0x2584
    24a8:	24100001 	li	s0,1
    24ac:	8ee24e30 	lw	v0,20016(s7)
    24b0:	000210c0 	sll	v0,v0,0x3
    24b4:	24425038 	addiu	v0,v0,20536
    24b8:	02e22021 	addu	a0,s7,v0
    24bc:	8c830000 	lw	v1,0(a0)
    24c0:	24020012 	li	v0,18
    24c4:	1462001f 	bne	v1,v0,0x2544
    24c8:	00000000 	nop
    24cc:	8ee34e30 	lw	v1,20016(s7)
    24d0:	8ee24e34 	lw	v0,20020(s7)
    24d4:	1062001b 	beq	v1,v0,0x2544
    24d8:	24030040 	li	v1,64
    24dc:	8c820004 	lw	v0,4(a0)
    24e0:	24420001 	addiu	v0,v0,1
    24e4:	ac820004 	sw	v0,4(a0)
    24e8:	8ee24e34 	lw	v0,20020(s7)
    24ec:	8ee54e30 	lw	a1,20016(s7)
    24f0:	24420001 	addiu	v0,v0,1
    24f4:	10430007 	beq	v0,v1,0x2514
    24f8:	00000000 	nop
    24fc:	8ee24e34 	lw	v0,20020(s7)
    2500:	24420001 	addiu	v0,v0,1
    2504:	10a20005 	beq	a1,v0,0x251c
    2508:	00000000 	nop
    250c:	08001948 	j	0x6520
    2510:	00000000 	nop
    2514:	14a00005 	bnez	a1,0x252c
    2518:	00000000 	nop
    251c:	8f820128 	lw	v0,296(gp)
    2520:	24420020 	addiu	v0,v0,32
    2524:	af820128 	sw	v0,296(gp)
    2528:	8f820128 	lw	v0,296(gp)
    252c:	8c820004 	lw	v0,4(a0)
    2530:	2c420011 	sltiu	v0,v0,17
    2534:	50400013 	beqzl	v0,0x2584
    2538:	ac800000 	sw	zero,0(a0)
    253c:	0800195e 	j	0x6578
    2540:	00000000 	nop
    2544:	8ee24e30 	lw	v0,20016(s7)
    2548:	24030040 	li	v1,64
    254c:	24420001 	addiu	v0,v0,1
    2550:	50430003 	beql	v0,v1,0x2560
    2554:	00001021 	move	v0,zero
    2558:	8ee24e30 	lw	v0,20016(s7)
    255c:	24420001 	addiu	v0,v0,1
    2560:	aee24e30 	sw	v0,20016(s7)
    2564:	8ee24e30 	lw	v0,20016(s7)
    2568:	000210c0 	sll	v0,v0,0x3
    256c:	24425038 	addiu	v0,v0,20536
    2570:	02e22021 	addu	a0,s7,v0
    2574:	24020012 	li	v0,18
    2578:	ac820000 	sw	v0,0(a0)
    257c:	24020001 	li	v0,1
    2580:	ac820004 	sw	v0,4(a0)
    2584:	5600001d 	bnezl	s0,0x25fc
    2588:	24100001 	li	s0,1
    258c:	3c040001 	lui	a0,0x1
    2590:	248452d0 	addiu	a0,a0,21200
    2594:	afa00010 	sw	zero,16(sp)
    2598:	afa00014 	sw	zero,20(sp)
    259c:	8ee60608 	lw	a2,1544(s7)
    25a0:	8f470228 	lw	a3,552(k0)
    25a4:	3c050009 	lui	a1,0x9
    25a8:	0c002403 	jal	0x900c
    25ac:	34a5f001 	ori	a1,a1,0xf001
    25b0:	8ee201b0 	lw	v0,432(s7)
    25b4:	24420001 	addiu	v0,v0,1
    25b8:	aee201b0 	sw	v0,432(s7)
    25bc:	0800197c 	j	0x65f0
    25c0:	8ee201b0 	lw	v0,432(s7)
    25c4:	3c040001 	lui	a0,0x1
    25c8:	248452dc 	addiu	a0,a0,21212
    25cc:	afa00014 	sw	zero,20(sp)
    25d0:	8ee60608 	lw	a2,1544(s7)
    25d4:	8f470228 	lw	a3,552(k0)
    25d8:	3c050009 	lui	a1,0x9
    25dc:	34a5f005 	ori	a1,a1,0xf005
    25e0:	0c002403 	jal	0x900c
    25e4:	00000000 	nop
    25e8:	8ee201ac 	lw	v0,428(s7)
    25ec:	00008021 	move	s0,zero
    25f0:	24420001 	addiu	v0,v0,1
    25f4:	aee201ac 	sw	v0,428(s7)
    25f8:	8ee201ac 	lw	v0,428(s7)
    25fc:	1200000c 	beqz	s0,0x2630
    2600:	24020001 	li	v0,1
    2604:	3c010001 	lui	at,0x1
    2608:	00370821 	addu	at,at,s7
    260c:	a02083b0 	sb	zero,-31824(at)
    2610:	8f420238 	lw	v0,568(k0)
    2614:	8ee30158 	lw	v1,344(s7)
    2618:	24630001 	addiu	v1,v1,1
    261c:	aee30158 	sw	v1,344(s7)
    2620:	8ee30158 	lw	v1,344(s7)
    2624:	0800198c 	j	0x6630
    2628:	aee27278 	sw	v0,29304(s7)
    262c:	24020001 	li	v0,1
    2630:	3c010001 	lui	at,0x1
    2634:	00370821 	addu	at,at,s7
    2638:	a02283b0 	sb	v0,-31824(at)
    263c:	3c020001 	lui	v0,0x1
    2640:	8c425cd8 	lw	v0,23768(v0)
    2644:	10400187 	beqz	v0,0x2c64
    2648:	00000000 	nop
    264c:	8ee27b84 	lw	v0,31620(s7)
    2650:	24430001 	addiu	v1,v0,1
    2654:	284200c9 	slti	v0,v0,201
    2658:	144001a4 	bnez	v0,0x2cec
    265c:	aee37b84 	sw	v1,31620(s7)
    2660:	8ee204d4 	lw	v0,1236(s7)
    2664:	30420002 	andi	v0,v0,0x2
    2668:	14400119 	bnez	v0,0x2ad0
    266c:	aee07b84 	sw	zero,31620(s7)
    2670:	8ee204d4 	lw	v0,1236(s7)
    2674:	3c030600 	lui	v1,0x600
    2678:	34631000 	ori	v1,v1,0x1000
    267c:	34420002 	ori	v0,v0,0x2
    2680:	aee204d4 	sw	v0,1236(s7)
    2684:	afa30018 	sw	v1,24(sp)
    2688:	8ee20608 	lw	v0,1544(s7)
    268c:	8f430228 	lw	v1,552(k0)
    2690:	24420001 	addiu	v0,v0,1
    2694:	304a00ff 	andi	t2,v0,0xff
    2698:	514300fd 	beql	t2,v1,0x2a90
    269c:	afa00010 	sw	zero,16(sp)
    26a0:	8ee20608 	lw	v0,1544(s7)
    26a4:	000210c0 	sll	v0,v0,0x3
    26a8:	00571021 	addu	v0,v0,s7
    26ac:	8fa30018 	lw	v1,24(sp)
    26b0:	8fa4001c 	lw	a0,28(sp)
    26b4:	ac43060c 	sw	v1,1548(v0)
    26b8:	ac440610 	sw	a0,1552(v0)
    26bc:	8f830054 	lw	v1,84(gp)
    26c0:	8f820054 	lw	v0,84(gp)
    26c4:	24690032 	addiu	t1,v1,50
    26c8:	01221023 	subu	v0,t1,v0
    26cc:	2c420033 	sltiu	v0,v0,51
    26d0:	1040006a 	beqz	v0,0x287c
    26d4:	00005821 	move	t3,zero
    26d8:	24180008 	li	t8,8
    26dc:	240f000d 	li	t7,13
    26e0:	240d0007 	li	t5,7
    26e4:	240c0040 	li	t4,64
    26e8:	240e0001 	li	t6,1
    26ec:	8f870120 	lw	a3,288(gp)
    26f0:	27623800 	addiu	v0,k1,14336
    26f4:	24e80020 	addiu	t0,a3,32
    26f8:	0102102b 	sltu	v0,t0,v0
    26fc:	50400001 	beqzl	v0,0x2704
    2700:	27683000 	addiu	t0,k1,12288
    2704:	8f820128 	lw	v0,296(gp)
    2708:	11020004 	beq	t0,v0,0x271c
    270c:	00000000 	nop
    2710:	8f820124 	lw	v0,292(gp)
    2714:	15020007 	bne	t0,v0,0x2734
    2718:	00001021 	move	v0,zero
    271c:	8ee201a4 	lw	v0,420(s7)
    2720:	00008021 	move	s0,zero
    2724:	24420001 	addiu	v0,v0,1
    2728:	aee201a4 	sw	v0,420(s7)
    272c:	08001a15 	j	0x6854
    2730:	8ee201a4 	lw	v0,420(s7)
    2734:	8ee40608 	lw	a0,1544(s7)
    2738:	000420c0 	sll	a0,a0,0x3
    273c:	00801821 	move	v1,a0
    2740:	8ee40430 	lw	a0,1072(s7)
    2744:	8ee50434 	lw	a1,1076(s7)
    2748:	00a32821 	addu	a1,a1,v1
    274c:	00a3302b 	sltu	a2,a1,v1
    2750:	00822021 	addu	a0,a0,v0
    2754:	00862021 	addu	a0,a0,a2
    2758:	ace40000 	sw	a0,0(a3)
    275c:	ace50004 	sw	a1,4(a3)
    2760:	8ee20608 	lw	v0,1544(s7)
    2764:	a4f8000e 	sh	t8,14(a3)
    2768:	acef0018 	sw	t7,24(a3)
    276c:	acea001c 	sw	t2,28(a3)
    2770:	000210c0 	sll	v0,v0,0x3
    2774:	2442060c 	addiu	v0,v0,1548
    2778:	02e21021 	addu	v0,s7,v0
    277c:	ace20008 	sw	v0,8(a3)
    2780:	8ee204c4 	lw	v0,1220(s7)
    2784:	ace20010 	sw	v0,16(a3)
    2788:	af880120 	sw	t0,288(gp)
    278c:	92e24e20 	lbu	v0,20000(s7)
    2790:	14400033 	bnez	v0,0x2860
    2794:	24100001 	li	s0,1
    2798:	8ee24e30 	lw	v0,20016(s7)
    279c:	000210c0 	sll	v0,v0,0x3
    27a0:	24425038 	addiu	v0,v0,20536
    27a4:	02e22021 	addu	a0,s7,v0
    27a8:	8c820000 	lw	v0,0(a0)
    27ac:	144d001f 	bne	v0,t5,0x282c
    27b0:	00000000 	nop
    27b4:	8ee34e30 	lw	v1,20016(s7)
    27b8:	8ee24e34 	lw	v0,20020(s7)
    27bc:	1062001b 	beq	v1,v0,0x282c
    27c0:	00000000 	nop
    27c4:	8c820004 	lw	v0,4(a0)
    27c8:	24420001 	addiu	v0,v0,1
    27cc:	ac820004 	sw	v0,4(a0)
    27d0:	8ee24e34 	lw	v0,20020(s7)
    27d4:	8ee34e30 	lw	v1,20016(s7)
    27d8:	24420001 	addiu	v0,v0,1
    27dc:	104c0007 	beq	v0,t4,0x27fc
    27e0:	00000000 	nop
    27e4:	8ee24e34 	lw	v0,20020(s7)
    27e8:	24420001 	addiu	v0,v0,1
    27ec:	10620005 	beq	v1,v0,0x2804
    27f0:	00000000 	nop
    27f4:	08001a02 	j	0x6808
    27f8:	00000000 	nop
    27fc:	14600005 	bnez	v1,0x2814
    2800:	00000000 	nop
    2804:	8f820128 	lw	v0,296(gp)
    2808:	24420020 	addiu	v0,v0,32
    280c:	af820128 	sw	v0,296(gp)
    2810:	8f820128 	lw	v0,296(gp)
    2814:	8c820004 	lw	v0,4(a0)
    2818:	2c420011 	sltiu	v0,v0,17
    281c:	50400010 	beqzl	v0,0x2860
    2820:	ac800000 	sw	zero,0(a0)
    2824:	08001a15 	j	0x6854
    2828:	00000000 	nop
    282c:	8ee24e30 	lw	v0,20016(s7)
    2830:	24420001 	addiu	v0,v0,1
    2834:	504c0003 	beql	v0,t4,0x2844
    2838:	00001021 	move	v0,zero
    283c:	8ee24e30 	lw	v0,20016(s7)
    2840:	24420001 	addiu	v0,v0,1
    2844:	aee24e30 	sw	v0,20016(s7)
    2848:	8ee24e30 	lw	v0,20016(s7)
    284c:	000210c0 	sll	v0,v0,0x3
    2850:	24425038 	addiu	v0,v0,20536
    2854:	02e22021 	addu	a0,s7,v0
    2858:	ac8d0000 	sw	t5,0(a0)
    285c:	ac8e0004 	sw	t6,4(a0)
    2860:	56000006 	bnezl	s0,0x287c
    2864:	240b0001 	li	t3,1
    2868:	8f820054 	lw	v0,84(gp)
    286c:	01221023 	subu	v0,t1,v0
    2870:	2c420033 	sltiu	v0,v0,51
    2874:	1440ff9d 	bnez	v0,0x26ec
    2878:	00000000 	nop
    287c:	316300ff 	andi	v1,t3,0xff
    2880:	24020001 	li	v0,1
    2884:	54620078 	bnel	v1,v0,0x2a68
    2888:	afa00010 	sw	zero,16(sp)
    288c:	aeea0608 	sw	t2,1544(s7)
    2890:	8f830054 	lw	v1,84(gp)
    2894:	8f820054 	lw	v0,84(gp)
    2898:	24690032 	addiu	t1,v1,50
    289c:	01221023 	subu	v0,t1,v0
    28a0:	2c420033 	sltiu	v0,v0,51
    28a4:	10400061 	beqz	v0,0x2a2c
    28a8:	00005821 	move	t3,zero
    28ac:	240d0008 	li	t5,8
    28b0:	240c0011 	li	t4,17
    28b4:	24080012 	li	t0,18
    28b8:	24070040 	li	a3,64
    28bc:	240a0001 	li	t2,1
    28c0:	8f830120 	lw	v1,288(gp)
    28c4:	27623800 	addiu	v0,k1,14336
    28c8:	24660020 	addiu	a2,v1,32
    28cc:	00c2102b 	sltu	v0,a2,v0
    28d0:	50400001 	beqzl	v0,0x28d8
    28d4:	27663000 	addiu	a2,k1,12288
    28d8:	8f820128 	lw	v0,296(gp)
    28dc:	10c20004 	beq	a2,v0,0x28f0
    28e0:	00000000 	nop
    28e4:	8f820124 	lw	v0,292(gp)
    28e8:	14c20007 	bne	a2,v0,0x2908
    28ec:	00000000 	nop
    28f0:	8ee201a4 	lw	v0,420(s7)
    28f4:	00008021 	move	s0,zero
    28f8:	24420001 	addiu	v0,v0,1
    28fc:	aee201a4 	sw	v0,420(s7)
    2900:	08001a81 	j	0x6a04
    2904:	8ee201a4 	lw	v0,420(s7)
    2908:	8ee20608 	lw	v0,1544(s7)
    290c:	ac62001c 	sw	v0,28(v1)
    2910:	8ee404a0 	lw	a0,1184(s7)
    2914:	8ee504a4 	lw	a1,1188(s7)
    2918:	2462001c 	addiu	v0,v1,28
    291c:	ac620008 	sw	v0,8(v1)
    2920:	a46d000e 	sh	t5,14(v1)
    2924:	ac6c0018 	sw	t4,24(v1)
    2928:	ac640000 	sw	a0,0(v1)
    292c:	ac650004 	sw	a1,4(v1)
    2930:	8ee204c4 	lw	v0,1220(s7)
    2934:	ac620010 	sw	v0,16(v1)
    2938:	af860120 	sw	a2,288(gp)
    293c:	92e24e20 	lbu	v0,20000(s7)
    2940:	14400033 	bnez	v0,0x2a10
    2944:	24100001 	li	s0,1
    2948:	8ee24e30 	lw	v0,20016(s7)
    294c:	000210c0 	sll	v0,v0,0x3
    2950:	24425038 	addiu	v0,v0,20536
    2954:	02e22021 	addu	a0,s7,v0
    2958:	8c820000 	lw	v0,0(a0)
    295c:	1448001f 	bne	v0,t0,0x29dc
    2960:	00000000 	nop
    2964:	8ee34e30 	lw	v1,20016(s7)
    2968:	8ee24e34 	lw	v0,20020(s7)
    296c:	1062001b 	beq	v1,v0,0x29dc
    2970:	00000000 	nop
    2974:	8c820004 	lw	v0,4(a0)
    2978:	24420001 	addiu	v0,v0,1
    297c:	ac820004 	sw	v0,4(a0)
    2980:	8ee24e34 	lw	v0,20020(s7)
    2984:	8ee34e30 	lw	v1,20016(s7)
    2988:	24420001 	addiu	v0,v0,1
    298c:	10470007 	beq	v0,a3,0x29ac
    2990:	00000000 	nop
    2994:	8ee24e34 	lw	v0,20020(s7)
    2998:	24420001 	addiu	v0,v0,1
    299c:	10620005 	beq	v1,v0,0x29b4
    29a0:	00000000 	nop
    29a4:	08001a6e 	j	0x69b8
    29a8:	00000000 	nop
    29ac:	14600005 	bnez	v1,0x29c4
    29b0:	00000000 	nop
    29b4:	8f820128 	lw	v0,296(gp)
    29b8:	24420020 	addiu	v0,v0,32
    29bc:	af820128 	sw	v0,296(gp)
    29c0:	8f820128 	lw	v0,296(gp)
    29c4:	8c820004 	lw	v0,4(a0)
    29c8:	2c420011 	sltiu	v0,v0,17
    29cc:	50400010 	beqzl	v0,0x2a10
    29d0:	ac800000 	sw	zero,0(a0)
    29d4:	08001a81 	j	0x6a04
    29d8:	00000000 	nop
    29dc:	8ee24e30 	lw	v0,20016(s7)
    29e0:	24420001 	addiu	v0,v0,1
    29e4:	50470003 	beql	v0,a3,0x29f4
    29e8:	00001021 	move	v0,zero
    29ec:	8ee24e30 	lw	v0,20016(s7)
    29f0:	24420001 	addiu	v0,v0,1
    29f4:	aee24e30 	sw	v0,20016(s7)
    29f8:	8ee24e30 	lw	v0,20016(s7)
    29fc:	000210c0 	sll	v0,v0,0x3
    2a00:	24425038 	addiu	v0,v0,20536
    2a04:	02e22021 	addu	a0,s7,v0
    2a08:	ac880000 	sw	t0,0(a0)
    2a0c:	ac8a0004 	sw	t2,4(a0)
    2a10:	56000006 	bnezl	s0,0x2a2c
    2a14:	240b0001 	li	t3,1
    2a18:	8f820054 	lw	v0,84(gp)
    2a1c:	01221023 	subu	v0,t1,v0
    2a20:	2c420033 	sltiu	v0,v0,51
    2a24:	1440ffa6 	bnez	v0,0x28c0
    2a28:	00000000 	nop
    2a2c:	316300ff 	andi	v1,t3,0xff
    2a30:	24020001 	li	v0,1
    2a34:	10620022 	beq	v1,v0,0x2ac0
    2a38:	00000000 	nop
    2a3c:	3c040001 	lui	a0,0x1
    2a40:	248452a4 	addiu	a0,a0,21156
    2a44:	afa00010 	sw	zero,16(sp)
    2a48:	afa00014 	sw	zero,20(sp)
    2a4c:	8f860120 	lw	a2,288(gp)
    2a50:	8f870124 	lw	a3,292(gp)
    2a54:	3c050009 	lui	a1,0x9
    2a58:	0c002403 	jal	0x900c
    2a5c:	34a5f011 	ori	a1,a1,0xf011
    2a60:	08001aad 	j	0x6ab4
    2a64:	00000000 	nop
    2a68:	3c040001 	lui	a0,0x1
    2a6c:	248452b0 	addiu	a0,a0,21168
    2a70:	afa00014 	sw	zero,20(sp)
    2a74:	8f860120 	lw	a2,288(gp)
    2a78:	8f870124 	lw	a3,292(gp)
    2a7c:	3c050009 	lui	a1,0x9
    2a80:	0c002403 	jal	0x900c
    2a84:	34a5f010 	ori	a1,a1,0xf010
    2a88:	08001aad 	j	0x6ab4
    2a8c:	00000000 	nop
    2a90:	3c040001 	lui	a0,0x1
    2a94:	248452bc 	addiu	a0,a0,21180
    2a98:	afa00014 	sw	zero,20(sp)
    2a9c:	8ee60608 	lw	a2,1544(s7)
    2aa0:	8f470228 	lw	a3,552(k0)
    2aa4:	3c050009 	lui	a1,0x9
    2aa8:	0c002403 	jal	0x900c
    2aac:	34a5f00f 	ori	a1,a1,0xf00f
    2ab0:	8ee201ac 	lw	v0,428(s7)
    2ab4:	24420001 	addiu	v0,v0,1
    2ab8:	aee201ac 	sw	v0,428(s7)
    2abc:	8ee201ac 	lw	v0,428(s7)
    2ac0:	8ee2015c 	lw	v0,348(s7)
    2ac4:	24420001 	addiu	v0,v0,1
    2ac8:	aee2015c 	sw	v0,348(s7)
    2acc:	8ee2015c 	lw	v0,348(s7)
    2ad0:	8ee204d4 	lw	v0,1236(s7)
    2ad4:	30420001 	andi	v0,v0,0x1
    2ad8:	10400055 	beqz	v0,0x2c30
    2adc:	00000000 	nop
    2ae0:	8f420218 	lw	v0,536(k0)
    2ae4:	30420080 	andi	v0,v0,0x80
    2ae8:	10400029 	beqz	v0,0x2b90
    2aec:	00000000 	nop
    2af0:	8f820044 	lw	v0,68(gp)
    2af4:	34420040 	ori	v0,v0,0x40
    2af8:	af820044 	sw	v0,68(gp)
    2afc:	8ee27b7c 	lw	v0,31612(s7)
    2b00:	00402821 	move	a1,v0
    2b04:	8ee200c0 	lw	v0,192(s7)
    2b08:	8ee300c4 	lw	v1,196(s7)
    2b0c:	24060000 	li	a2,0
    2b10:	2407ffff 	li	a3,-1
    2b14:	00002021 	move	a0,zero
    2b18:	00461024 	and	v0,v0,a2
    2b1c:	1444000d 	bne	v0,a0,0x2b54
    2b20:	00671824 	and	v1,v1,a3
    2b24:	1465000b 	bne	v1,a1,0x2b54
    2b28:	00000000 	nop
    2b2c:	8ee27b80 	lw	v0,31616(s7)
    2b30:	00402821 	move	a1,v0
    2b34:	8ee200e0 	lw	v0,224(s7)
    2b38:	8ee300e4 	lw	v1,228(s7)
    2b3c:	00002021 	move	a0,zero
    2b40:	00461024 	and	v0,v0,a2
    2b44:	14440003 	bne	v0,a0,0x2b54
    2b48:	00671824 	and	v1,v1,a3
    2b4c:	1065000b 	beq	v1,a1,0x2b7c
    2b50:	00000000 	nop
    2b54:	8ee200c0 	lw	v0,192(s7)
    2b58:	8ee300c4 	lw	v1,196(s7)
    2b5c:	8ee400e0 	lw	a0,224(s7)
    2b60:	8ee500e4 	lw	a1,228(s7)
    2b64:	aee37b7c 	sw	v1,31612(s7)
    2b68:	aee57b80 	sw	a1,31616(s7)
    2b6c:	8f820044 	lw	v0,68(gp)
    2b70:	38420020 	xori	v0,v0,0x20
    2b74:	08001b38 	j	0x6ce0
    2b78:	af820044 	sw	v0,68(gp)
    2b7c:	8f820044 	lw	v0,68(gp)
    2b80:	2403ffdf 	li	v1,-33
    2b84:	00431024 	and	v0,v0,v1
    2b88:	08001b38 	j	0x6ce0
    2b8c:	af820044 	sw	v0,68(gp)
    2b90:	8f820044 	lw	v0,68(gp)
    2b94:	2403ffdf 	li	v1,-33
    2b98:	00431024 	and	v0,v0,v1
    2b9c:	af820044 	sw	v0,68(gp)
    2ba0:	8ee27b7c 	lw	v0,31612(s7)
    2ba4:	00402821 	move	a1,v0
    2ba8:	8ee200c0 	lw	v0,192(s7)
    2bac:	8ee300c4 	lw	v1,196(s7)
    2bb0:	24060000 	li	a2,0
    2bb4:	2407ffff 	li	a3,-1
    2bb8:	00002021 	move	a0,zero
    2bbc:	00461024 	and	v0,v0,a2
    2bc0:	1444000d 	bne	v0,a0,0x2bf8
    2bc4:	00671824 	and	v1,v1,a3
    2bc8:	1465000b 	bne	v1,a1,0x2bf8
    2bcc:	00000000 	nop
    2bd0:	8ee27b80 	lw	v0,31616(s7)
    2bd4:	00402821 	move	a1,v0
    2bd8:	8ee200e0 	lw	v0,224(s7)
    2bdc:	8ee300e4 	lw	v1,228(s7)
    2be0:	00002021 	move	a0,zero
    2be4:	00461024 	and	v0,v0,a2
    2be8:	14440003 	bne	v0,a0,0x2bf8
    2bec:	00671824 	and	v1,v1,a3
    2bf0:	1065000b 	beq	v1,a1,0x2c20
    2bf4:	00000000 	nop
    2bf8:	8ee200c0 	lw	v0,192(s7)
    2bfc:	8ee300c4 	lw	v1,196(s7)
    2c00:	8ee400e0 	lw	a0,224(s7)
    2c04:	8ee500e4 	lw	a1,228(s7)
    2c08:	aee37b7c 	sw	v1,31612(s7)
    2c0c:	aee57b80 	sw	a1,31616(s7)
    2c10:	8f820044 	lw	v0,68(gp)
    2c14:	38420040 	xori	v0,v0,0x40
    2c18:	08001b38 	j	0x6ce0
    2c1c:	af820044 	sw	v0,68(gp)
    2c20:	8f820044 	lw	v0,68(gp)
    2c24:	34420040 	ori	v0,v0,0x40
    2c28:	08001b38 	j	0x6ce0
    2c2c:	af820044 	sw	v0,68(gp)
    2c30:	8f820044 	lw	v0,68(gp)
    2c34:	34420040 	ori	v0,v0,0x40
    2c38:	af820044 	sw	v0,68(gp)
    2c3c:	8ee27b8c 	lw	v0,31628(s7)
    2c40:	24430001 	addiu	v1,v0,1
    2c44:	28420015 	slti	v0,v0,21
    2c48:	14400028 	bnez	v0,0x2cec
    2c4c:	aee37b8c 	sw	v1,31628(s7)
    2c50:	8f820044 	lw	v0,68(gp)
    2c54:	38420020 	xori	v0,v0,0x20
    2c58:	af820044 	sw	v0,68(gp)
    2c5c:	08001b38 	j	0x6ce0
    2c60:	aee07b8c 	sw	zero,31628(s7)
    2c64:	8ee204d4 	lw	v0,1236(s7)
    2c68:	30420001 	andi	v0,v0,0x1
    2c6c:	10400011 	beqz	v0,0x2cb4
    2c70:	00000000 	nop
    2c74:	8f420218 	lw	v0,536(k0)
    2c78:	30420080 	andi	v0,v0,0x80
    2c7c:	10400009 	beqz	v0,0x2ca4
    2c80:	00000000 	nop
    2c84:	8f820044 	lw	v0,68(gp)
    2c88:	34420020 	ori	v0,v0,0x20
    2c8c:	af820044 	sw	v0,68(gp)
    2c90:	8f820044 	lw	v0,68(gp)
    2c94:	2403ffbf 	li	v1,-65
    2c98:	00431024 	and	v0,v0,v1
    2c9c:	08001b36 	j	0x6cd8
    2ca0:	af820044 	sw	v0,68(gp)
    2ca4:	8f820044 	lw	v0,68(gp)
    2ca8:	34420060 	ori	v0,v0,0x60
    2cac:	08001b36 	j	0x6cd8
    2cb0:	af820044 	sw	v0,68(gp)
    2cb4:	8f820044 	lw	v0,68(gp)
    2cb8:	34420040 	ori	v0,v0,0x40
    2cbc:	af820044 	sw	v0,68(gp)
    2cc0:	8ee27b88 	lw	v0,31624(s7)
    2cc4:	24430001 	addiu	v1,v0,1
    2cc8:	28421389 	slti	v0,v0,5001
    2ccc:	14400005 	bnez	v0,0x2ce4
    2cd0:	aee37b88 	sw	v1,31624(s7)
    2cd4:	8f820044 	lw	v0,68(gp)
    2cd8:	38420020 	xori	v0,v0,0x20
    2cdc:	af820044 	sw	v0,68(gp)
    2ce0:	aee07b88 	sw	zero,31624(s7)
    2ce4:	0c004603 	jal	0x1180c
    2ce8:	00000000 	nop
    2cec:	8fbf0024 	lw	ra,36(sp)
    2cf0:	8fb00020 	lw	s0,32(sp)
    2cf4:	03e00008 	jr	ra
    2cf8:	27bd0028 	addiu	sp,sp,40
    2cfc:	27bdffb8 	addiu	sp,sp,-72
    2d00:	afbf0044 	sw	ra,68(sp)
    2d04:	afb60040 	sw	s6,64(sp)
    2d08:	afb5003c 	sw	s5,60(sp)
    2d0c:	afb40038 	sw	s4,56(sp)
    2d10:	afb30034 	sw	s3,52(sp)
    2d14:	afb20030 	sw	s2,48(sp)
    2d18:	afb1002c 	sw	s1,44(sp)
    2d1c:	afb00028 	sw	s0,40(sp)
    2d20:	8f960064 	lw	s6,100(gp)
    2d24:	32c20004 	andi	v0,s6,0x4
    2d28:	1040000c 	beqz	v0,0x2d5c
    2d2c:	24020004 	li	v0,4
    2d30:	af820064 	sw	v0,100(gp)
    2d34:	8f420114 	lw	v0,276(k0)
    2d38:	aee204e0 	sw	v0,1248(s7)
    2d3c:	8f820060 	lw	v0,96(gp)
    2d40:	34420008 	ori	v0,v0,0x8
    2d44:	af820060 	sw	v0,96(gp)
    2d48:	8ee2016c 	lw	v0,364(s7)
    2d4c:	24420001 	addiu	v0,v0,1
    2d50:	aee2016c 	sw	v0,364(s7)
    2d54:	080022f4 	j	0x8bd0
    2d58:	8ee2016c 	lw	v0,364(s7)
    2d5c:	32c20001 	andi	v0,s6,0x1
    2d60:	10400004 	beqz	v0,0x2d74
    2d64:	24020001 	li	v0,1
    2d68:	af820064 	sw	v0,100(gp)
    2d6c:	080022f4 	j	0x8bd0
    2d70:	00000000 	nop
    2d74:	32c20002 	andi	v0,s6,0x2
    2d78:	1440000c 	bnez	v0,0x2dac
    2d7c:	3c050003 	lui	a1,0x3
    2d80:	3c040001 	lui	a0,0x1
    2d84:	24845354 	addiu	a0,a0,21332
    2d88:	34a50001 	ori	a1,a1,0x1
    2d8c:	02c03021 	move	a2,s6
    2d90:	00003821 	move	a3,zero
    2d94:	afa00010 	sw	zero,16(sp)
    2d98:	0c002403 	jal	0x900c
    2d9c:	afa00014 	sw	zero,20(sp)
    2da0:	2402fff8 	li	v0,-8
    2da4:	080022f4 	j	0x8bd0
    2da8:	af820064 	sw	v0,100(gp)
    2dac:	8f43022c 	lw	v1,556(k0)
    2db0:	8f42010c 	lw	v0,268(k0)
    2db4:	5062000c 	beql	v1,v0,0x2de8
    2db8:	afa00010 	sw	zero,16(sp)
    2dbc:	8f42022c 	lw	v0,556(k0)
    2dc0:	00021080 	sll	v0,v0,0x2
    2dc4:	005a1021 	addu	v0,v0,k0
    2dc8:	8c420300 	lw	v0,768(v0)
    2dcc:	afa20020 	sw	v0,32(sp)
    2dd0:	8f42022c 	lw	v0,556(k0)
    2dd4:	24070001 	li	a3,1
    2dd8:	24420001 	addiu	v0,v0,1
    2ddc:	3042003f 	andi	v0,v0,0x3f
    2de0:	08001b80 	j	0x6e00
    2de4:	af42022c 	sw	v0,556(k0)
    2de8:	3c040001 	lui	a0,0x1
    2dec:	24845360 	addiu	a0,a0,21344
    2df0:	afa00014 	sw	zero,20(sp)
    2df4:	8f46022c 	lw	a2,556(k0)
    2df8:	8f47010c 	lw	a3,268(k0)
    2dfc:	3c050003 	lui	a1,0x3
    2e00:	0c002403 	jal	0x900c
    2e04:	34a5f01f 	ori	a1,a1,0xf01f
    2e08:	00003821 	move	a3,zero
    2e0c:	14e00003 	bnez	a3,0x2e1c
    2e10:	00000000 	nop
    2e14:	080022ed 	j	0x8bb4
    2e18:	af960064 	sw	s6,100(gp)
    2e1c:	93a20020 	lbu	v0,32(sp)
    2e20:	2443ffff 	addiu	v1,v0,-1
    2e24:	2c620011 	sltiu	v0,v1,17
    2e28:	10400658 	beqz	v0,0x478c
    2e2c:	00031080 	sll	v0,v1,0x2
    2e30:	3c010001 	lui	at,0x1
    2e34:	00220821 	addu	at,at,v0
    2e38:	8c225418 	lw	v0,21528(at)
    2e3c:	00400008 	jr	v0
    2e40:	00000000 	nop
    2e44:	8fa20020 	lw	v0,32(sp)
    2e48:	30420fff 	andi	v0,v0,0xfff
    2e4c:	aee20e0c 	sw	v0,3596(s7)
    2e50:	8f820060 	lw	v0,96(gp)
    2e54:	34420200 	ori	v0,v0,0x200
    2e58:	af820060 	sw	v0,96(gp)
    2e5c:	8ee20118 	lw	v0,280(s7)
    2e60:	24420001 	addiu	v0,v0,1
    2e64:	aee20118 	sw	v0,280(s7)
    2e68:	080022e8 	j	0x8ba0
    2e6c:	8ee20118 	lw	v0,280(s7)
    2e70:	8fa20020 	lw	v0,32(sp)
    2e74:	24030001 	li	v1,1
    2e78:	3c010001 	lui	at,0x1
    2e7c:	00370821 	addu	at,at,s7
    2e80:	a02383b1 	sb	v1,-31823(at)
    2e84:	30420fff 	andi	v0,v0,0xfff
    2e88:	aee25238 	sw	v0,21048(s7)
    2e8c:	8f820060 	lw	v0,96(gp)
    2e90:	34420100 	ori	v0,v0,0x100
    2e94:	af820060 	sw	v0,96(gp)
    2e98:	8ee20144 	lw	v0,324(s7)
    2e9c:	24420001 	addiu	v0,v0,1
    2ea0:	aee20144 	sw	v0,324(s7)
    2ea4:	080022e8 	j	0x8ba0
    2ea8:	8ee20144 	lw	v0,324(s7)
    2eac:	8fa20020 	lw	v0,32(sp)
    2eb0:	00021200 	sll	v0,v0,0x8
    2eb4:	00022502 	srl	a0,v0,0x14
    2eb8:	24020001 	li	v0,1
    2ebc:	10820005 	beq	a0,v0,0x2ed4
    2ec0:	24020002 	li	v0,2
    2ec4:	10820009 	beq	a0,v0,0x2eec
    2ec8:	2402fffe 	li	v0,-2
    2ecc:	08001bc9 	j	0x6f24
    2ed0:	afa00010 	sw	zero,16(sp)
    2ed4:	8ee204d4 	lw	v0,1236(s7)
    2ed8:	aee40070 	sw	a0,112(s7)
    2edc:	aee40074 	sw	a0,116(s7)
    2ee0:	34420001 	ori	v0,v0,0x1
    2ee4:	08001bbd 	j	0x6ef4
    2ee8:	aee204d4 	sw	v0,1236(s7)
    2eec:	8ee304d4 	lw	v1,1236(s7)
    2ef0:	aee40070 	sw	a0,112(s7)
    2ef4:	aee40074 	sw	a0,116(s7)
    2ef8:	00621824 	and	v1,v1,v0
    2efc:	aee304d4 	sw	v1,1236(s7)
    2f00:	8f840054 	lw	a0,84(gp)
    2f04:	00041442 	srl	v0,a0,0x11
    2f08:	00041c82 	srl	v1,a0,0x12
    2f0c:	00431021 	addu	v0,v0,v1
    2f10:	00041cc2 	srl	v1,a0,0x13
    2f14:	00431023 	subu	v0,v0,v1
    2f18:	00041d02 	srl	v1,a0,0x14
    2f1c:	00431021 	addu	v0,v0,v1
    2f20:	00041d42 	srl	v1,a0,0x15
    2f24:	00431023 	subu	v0,v0,v1
    2f28:	08001bd0 	j	0x6f40
    2f2c:	aee20078 	sw	v0,120(s7)
    2f30:	3c040001 	lui	a0,0x1
    2f34:	2484536c 	addiu	a0,a0,21356
    2f38:	afa00014 	sw	zero,20(sp)
    2f3c:	8fa60020 	lw	a2,32(sp)
    2f40:	3c050003 	lui	a1,0x3
    2f44:	0c002403 	jal	0x900c
    2f48:	34a50004 	ori	a1,a1,0x4
    2f4c:	8ee20110 	lw	v0,272(s7)
    2f50:	24420001 	addiu	v0,v0,1
    2f54:	aee20110 	sw	v0,272(s7)
    2f58:	080022e8 	j	0x8ba0
    2f5c:	8ee20110 	lw	v0,272(s7)
    2f60:	27440212 	addiu	a0,k0,530
    2f64:	0c0022fe 	jal	0x8bf8
    2f68:	24050006 	li	a1,6
    2f6c:	3049001f 	andi	t1,v0,0x1f
    2f70:	000920c0 	sll	a0,t1,0x3
    2f74:	02e41021 	addu	v0,s7,a0
    2f78:	9442727c 	lhu	v0,29308(v0)
    2f7c:	30424000 	andi	v0,v0,0x4000
    2f80:	1040000a 	beqz	v0,0x2fac
    2f84:	00971021 	addu	v0,a0,s7
    2f88:	97430212 	lhu	v1,530(k0)
    2f8c:	a443727e 	sh	v1,29310(v0)
    2f90:	8f430214 	lw	v1,532(k0)
    2f94:	00971021 	addu	v0,a0,s7
    2f98:	ac437280 	sw	v1,29312(v0)
    2f9c:	02e41821 	addu	v1,s7,a0
    2fa0:	34028000 	li	v0,0x8000
    2fa4:	08001c79 	j	0x71e4
    2fa8:	a462727c 	sh	v0,29308(v1)
    2fac:	9443727e 	lhu	v1,29310(v0)
    2fb0:	97420212 	lhu	v0,530(k0)
    2fb4:	14620006 	bne	v1,v0,0x2fd0
    2fb8:	02e41021 	addu	v0,s7,a0
    2fbc:	00971021 	addu	v0,a0,s7
    2fc0:	8c437280 	lw	v1,29312(v0)
    2fc4:	8f420214 	lw	v0,532(k0)
    2fc8:	1062009f 	beq	v1,v0,0x3248
    2fcc:	02e41021 	addu	v0,s7,a0
    2fd0:	9442727c 	lhu	v0,29308(v0)
    2fd4:	30428000 	andi	v0,v0,0x8000
    2fd8:	1040002a 	beqz	v0,0x3084
    2fdc:	2406ffff 	li	a2,-1
    2fe0:	00002021 	move	a0,zero
    2fe4:	000410c0 	sll	v0,a0,0x3
    2fe8:	02e21021 	addu	v0,s7,v0
    2fec:	9442737c 	lhu	v0,29564(v0)
    2ff0:	30424000 	andi	v0,v0,0x4000
    2ff4:	54400005 	bnezl	v0,0x300c
    2ff8:	00803021 	move	a2,a0
    2ffc:	24840001 	addiu	a0,a0,1
    3000:	2c820080 	sltiu	v0,a0,128
    3004:	1440fff8 	bnez	v0,0x2fe8
    3008:	000410c0 	sll	v0,a0,0x3
    300c:	04c10010 	bgez	a2,0x3050
    3010:	000618c0 	sll	v1,a2,0x3
    3014:	000610c0 	sll	v0,a2,0x3
    3018:	00571821 	addu	v1,v0,s7
    301c:	8c63737c 	lw	v1,29564(v1)
    3020:	00571021 	addu	v0,v0,s7
    3024:	afa30010 	sw	v1,16(sp)
    3028:	8c427380 	lw	v0,29568(v0)
    302c:	3c040001 	lui	a0,0x1
    3030:	24845378 	addiu	a0,a0,21368
    3034:	afa20014 	sw	v0,20(sp)
    3038:	8f470214 	lw	a3,532(k0)
    303c:	3c050003 	lui	a1,0x3
    3040:	0c002403 	jal	0x900c
    3044:	34a50013 	ori	a1,a1,0x13
    3048:	08001c90 	j	0x7240
    304c:	3c020800 	lui	v0,0x800
    3050:	97440212 	lhu	a0,530(k0)
    3054:	00771021 	addu	v0,v1,s7
    3058:	a444737e 	sh	a0,29566(v0)
    305c:	8f440214 	lw	a0,532(k0)
    3060:	00771021 	addu	v0,v1,s7
    3064:	02e31821 	addu	v1,s7,v1
    3068:	ac447380 	sw	a0,29568(v0)
    306c:	34028000 	li	v0,0x8000
    3070:	a462737c 	sh	v0,29564(v1)
    3074:	000910c0 	sll	v0,t1,0x3
    3078:	02e21021 	addu	v0,s7,v0
    307c:	08001c79 	j	0x71e4
    3080:	a446727c 	sh	a2,29308(v0)
    3084:	02e41021 	addu	v0,s7,a0
    3088:	9445727c 	lhu	a1,29308(v0)
    308c:	08001c2e 	j	0x70b8
    3090:	000510c0 	sll	v0,a1,0x3
    3094:	9443737e 	lhu	v1,29566(v0)
    3098:	97420212 	lhu	v0,530(k0)
    309c:	14620006 	bne	v1,v0,0x30b8
    30a0:	000510c0 	sll	v0,a1,0x3
    30a4:	00971021 	addu	v0,a0,s7
    30a8:	8c437380 	lw	v1,29568(v0)
    30ac:	8f420214 	lw	v0,532(k0)
    30b0:	10620065 	beq	v1,v0,0x3248
    30b4:	000510c0 	sll	v0,a1,0x3
    30b8:	02e21021 	addu	v0,s7,v0
    30bc:	9445737c 	lhu	a1,29564(v0)
    30c0:	000510c0 	sll	v0,a1,0x3
    30c4:	02e21021 	addu	v0,s7,v0
    30c8:	9442737c 	lhu	v0,29564(v0)
    30cc:	30428000 	andi	v0,v0,0x8000
    30d0:	1040fff0 	beqz	v0,0x3094
    30d4:	00971021 	addu	v0,a0,s7
    30d8:	000520c0 	sll	a0,a1,0x3
    30dc:	00971021 	addu	v0,a0,s7
    30e0:	9443737e 	lhu	v1,29566(v0)
    30e4:	97420212 	lhu	v0,530(k0)
    30e8:	14620006 	bne	v1,v0,0x3104
    30ec:	2406ffff 	li	a2,-1
    30f0:	00971021 	addu	v0,a0,s7
    30f4:	8c437380 	lw	v1,29568(v0)
    30f8:	8f420214 	lw	v0,532(k0)
    30fc:	10620053 	beq	v1,v0,0x324c
    3100:	3c020800 	lui	v0,0x800
    3104:	00002021 	move	a0,zero
    3108:	000410c0 	sll	v0,a0,0x3
    310c:	02e21021 	addu	v0,s7,v0
    3110:	9442737c 	lhu	v0,29564(v0)
    3114:	30424000 	andi	v0,v0,0x4000
    3118:	54400005 	bnezl	v0,0x3130
    311c:	00803021 	move	a2,a0
    3120:	24840001 	addiu	a0,a0,1
    3124:	2c820080 	sltiu	v0,a0,128
    3128:	1440fff8 	bnez	v0,0x310c
    312c:	000410c0 	sll	v0,a0,0x3
    3130:	04c10023 	bgez	a2,0x31c0
    3134:	000618c0 	sll	v1,a2,0x3
    3138:	000910c0 	sll	v0,t1,0x3
    313c:	00571821 	addu	v1,v0,s7
    3140:	8c63727c 	lw	v1,29308(v1)
    3144:	00571021 	addu	v0,v0,s7
    3148:	afa30010 	sw	v1,16(sp)
    314c:	8c427280 	lw	v0,29312(v0)
    3150:	3c040001 	lui	a0,0x1
    3154:	24845384 	addiu	a0,a0,21380
    3158:	afa20014 	sw	v0,20(sp)
    315c:	8f470214 	lw	a3,532(k0)
    3160:	3c050003 	lui	a1,0x3
    3164:	0c002403 	jal	0x900c
    3168:	34a5f017 	ori	a1,a1,0xf017
    316c:	08001c90 	j	0x7240
    3170:	3c020800 	lui	v0,0x800
    3174:	8f430210 	lw	v1,528(k0)
    3178:	00b71021 	addu	v0,a1,s7
    317c:	ac43777c 	sw	v1,30588(v0)
    3180:	8f430214 	lw	v1,532(k0)
    3184:	00b71021 	addu	v0,a1,s7
    3188:	ac437780 	sw	v1,30592(v0)
    318c:	3c020001 	lui	v0,0x1
    3190:	00571021 	addu	v0,v0,s7
    3194:	8c4283b4 	lw	v0,-31820(v0)
    3198:	24420001 	addiu	v0,v0,1
    319c:	3c010001 	lui	at,0x1
    31a0:	00370821 	addu	at,at,s7
    31a4:	ac2283b4 	sw	v0,-31820(at)
    31a8:	3c030001 	lui	v1,0x1
    31ac:	00771821 	addu	v1,v1,s7
    31b0:	8c6383b4 	lw	v1,-31820(v1)
    31b4:	02e51021 	addu	v0,s7,a1
    31b8:	08001c82 	j	0x7208
    31bc:	a443777c 	sh	v1,30588(v0)
    31c0:	97440212 	lhu	a0,530(k0)
    31c4:	00771021 	addu	v0,v1,s7
    31c8:	a444737e 	sh	a0,29566(v0)
    31cc:	8f440214 	lw	a0,532(k0)
    31d0:	00771021 	addu	v0,v1,s7
    31d4:	02e31821 	addu	v1,s7,v1
    31d8:	ac447380 	sw	a0,29568(v0)
    31dc:	34028000 	li	v0,0x8000
    31e0:	a462737c 	sh	v0,29564(v1)
    31e4:	000510c0 	sll	v0,a1,0x3
    31e8:	02e21021 	addu	v0,s7,v0
    31ec:	a446737c 	sh	a2,29564(v0)
    31f0:	00002021 	move	a0,zero
    31f4:	000428c0 	sll	a1,a0,0x3
    31f8:	02e51021 	addu	v0,s7,a1
    31fc:	9442777c 	lhu	v0,30588(v0)
    3200:	1040ffdc 	beqz	v0,0x3174
    3204:	24840001 	addiu	a0,a0,1
    3208:	2c820080 	sltiu	v0,a0,128
    320c:	5440fffa 	bnezl	v0,0x31f8
    3210:	000428c0 	sll	a1,a0,0x3
    3214:	92e204d8 	lbu	v0,1240(s7)
    3218:	10400006 	beqz	v0,0x3234
    321c:	24020001 	li	v0,1
    3220:	8ee304dc 	lw	v1,1244(s7)
    3224:	01221004 	sllv	v0,v0,t1
    3228:	00621825 	or	v1,v1,v0
    322c:	08001c8f 	j	0x723c
    3230:	aee304dc 	sw	v1,1244(s7)
    3234:	8f830228 	lw	v1,552(gp)
    3238:	24020001 	li	v0,1
    323c:	01221004 	sllv	v0,v0,t1
    3240:	00621825 	or	v1,v1,v0
    3244:	af830228 	sw	v1,552(gp)
    3248:	3c020800 	lui	v0,0x800
    324c:	34421000 	ori	v0,v0,0x1000
    3250:	afa20018 	sw	v0,24(sp)
    3254:	8ee20608 	lw	v0,1544(s7)
    3258:	8f430228 	lw	v1,552(k0)
    325c:	24420001 	addiu	v0,v0,1
    3260:	304a00ff 	andi	t2,v0,0xff
    3264:	514300fd 	beql	t2,v1,0x365c
    3268:	afa00010 	sw	zero,16(sp)
    326c:	8ee20608 	lw	v0,1544(s7)
    3270:	000210c0 	sll	v0,v0,0x3
    3274:	00571021 	addu	v0,v0,s7
    3278:	8fa30018 	lw	v1,24(sp)
    327c:	8fa4001c 	lw	a0,28(sp)
    3280:	ac43060c 	sw	v1,1548(v0)
    3284:	ac440610 	sw	a0,1552(v0)
    3288:	8f830054 	lw	v1,84(gp)
    328c:	8f820054 	lw	v0,84(gp)
    3290:	24690032 	addiu	t1,v1,50
    3294:	01221023 	subu	v0,t1,v0
    3298:	2c420033 	sltiu	v0,v0,51
    329c:	1040006a 	beqz	v0,0x3448
    32a0:	00005821 	move	t3,zero
    32a4:	24100008 	li	s0,8
    32a8:	240f000d 	li	t7,13
    32ac:	240d0007 	li	t5,7
    32b0:	240c0040 	li	t4,64
    32b4:	240e0001 	li	t6,1
    32b8:	8f870120 	lw	a3,288(gp)
    32bc:	27623800 	addiu	v0,k1,14336
    32c0:	24e80020 	addiu	t0,a3,32
    32c4:	0102102b 	sltu	v0,t0,v0
    32c8:	50400001 	beqzl	v0,0x32d0
    32cc:	27683000 	addiu	t0,k1,12288
    32d0:	8f820128 	lw	v0,296(gp)
    32d4:	11020004 	beq	t0,v0,0x32e8
    32d8:	00000000 	nop
    32dc:	8f820124 	lw	v0,292(gp)
    32e0:	15020007 	bne	t0,v0,0x3300
    32e4:	00001021 	move	v0,zero
    32e8:	8ee201a4 	lw	v0,420(s7)
    32ec:	00003821 	move	a3,zero
    32f0:	24420001 	addiu	v0,v0,1
    32f4:	aee201a4 	sw	v0,420(s7)
    32f8:	08001d08 	j	0x7420
    32fc:	8ee201a4 	lw	v0,420(s7)
    3300:	8ee40608 	lw	a0,1544(s7)
    3304:	000420c0 	sll	a0,a0,0x3
    3308:	00801821 	move	v1,a0
    330c:	8ee40430 	lw	a0,1072(s7)
    3310:	8ee50434 	lw	a1,1076(s7)
    3314:	00a32821 	addu	a1,a1,v1
    3318:	00a3302b 	sltu	a2,a1,v1
    331c:	00822021 	addu	a0,a0,v0
    3320:	00862021 	addu	a0,a0,a2
    3324:	ace40000 	sw	a0,0(a3)
    3328:	ace50004 	sw	a1,4(a3)
    332c:	8ee20608 	lw	v0,1544(s7)
    3330:	a4f0000e 	sh	s0,14(a3)
    3334:	acef0018 	sw	t7,24(a3)
    3338:	acea001c 	sw	t2,28(a3)
    333c:	000210c0 	sll	v0,v0,0x3
    3340:	2442060c 	addiu	v0,v0,1548
    3344:	02e21021 	addu	v0,s7,v0
    3348:	ace20008 	sw	v0,8(a3)
    334c:	8ee204c4 	lw	v0,1220(s7)
    3350:	ace20010 	sw	v0,16(a3)
    3354:	af880120 	sw	t0,288(gp)
    3358:	92e24e20 	lbu	v0,20000(s7)
    335c:	14400033 	bnez	v0,0x342c
    3360:	24070001 	li	a3,1
    3364:	8ee24e30 	lw	v0,20016(s7)
    3368:	000210c0 	sll	v0,v0,0x3
    336c:	24425038 	addiu	v0,v0,20536
    3370:	02e22021 	addu	a0,s7,v0
    3374:	8c820000 	lw	v0,0(a0)
    3378:	144d001f 	bne	v0,t5,0x33f8
    337c:	00000000 	nop
    3380:	8ee34e30 	lw	v1,20016(s7)
    3384:	8ee24e34 	lw	v0,20020(s7)
    3388:	1062001b 	beq	v1,v0,0x33f8
    338c:	00000000 	nop
    3390:	8c820004 	lw	v0,4(a0)
    3394:	24420001 	addiu	v0,v0,1
    3398:	ac820004 	sw	v0,4(a0)
    339c:	8ee24e34 	lw	v0,20020(s7)
    33a0:	8ee34e30 	lw	v1,20016(s7)
    33a4:	24420001 	addiu	v0,v0,1
    33a8:	104c0007 	beq	v0,t4,0x33c8
    33ac:	00000000 	nop
    33b0:	8ee24e34 	lw	v0,20020(s7)
    33b4:	24420001 	addiu	v0,v0,1
    33b8:	10620005 	beq	v1,v0,0x33d0
    33bc:	00000000 	nop
    33c0:	08001cf5 	j	0x73d4
    33c4:	00000000 	nop
    33c8:	14600005 	bnez	v1,0x33e0
    33cc:	00000000 	nop
    33d0:	8f820128 	lw	v0,296(gp)
    33d4:	24420020 	addiu	v0,v0,32
    33d8:	af820128 	sw	v0,296(gp)
    33dc:	8f820128 	lw	v0,296(gp)
    33e0:	8c820004 	lw	v0,4(a0)
    33e4:	2c420011 	sltiu	v0,v0,17
    33e8:	50400010 	beqzl	v0,0x342c
    33ec:	ac800000 	sw	zero,0(a0)
    33f0:	08001d08 	j	0x7420
    33f4:	00000000 	nop
    33f8:	8ee24e30 	lw	v0,20016(s7)
    33fc:	24420001 	addiu	v0,v0,1
    3400:	504c0003 	beql	v0,t4,0x3410
    3404:	00001021 	move	v0,zero
    3408:	8ee24e30 	lw	v0,20016(s7)
    340c:	24420001 	addiu	v0,v0,1
    3410:	aee24e30 	sw	v0,20016(s7)
    3414:	8ee24e30 	lw	v0,20016(s7)
    3418:	000210c0 	sll	v0,v0,0x3
    341c:	24425038 	addiu	v0,v0,20536
    3420:	02e22021 	addu	a0,s7,v0
    3424:	ac8d0000 	sw	t5,0(a0)
    3428:	ac8e0004 	sw	t6,4(a0)
    342c:	54e00006 	bnezl	a3,0x3448
    3430:	240b0001 	li	t3,1
    3434:	8f820054 	lw	v0,84(gp)
    3438:	01221023 	subu	v0,t1,v0
    343c:	2c420033 	sltiu	v0,v0,51
    3440:	1440ff9d 	bnez	v0,0x32b8
    3444:	00000000 	nop
    3448:	316300ff 	andi	v1,t3,0xff
    344c:	24020001 	li	v0,1
    3450:	54620078 	bnel	v1,v0,0x3634
    3454:	afa00010 	sw	zero,16(sp)
    3458:	aeea0608 	sw	t2,1544(s7)
    345c:	8f830054 	lw	v1,84(gp)
    3460:	8f820054 	lw	v0,84(gp)
    3464:	24690032 	addiu	t1,v1,50
    3468:	01221023 	subu	v0,t1,v0
    346c:	2c420033 	sltiu	v0,v0,51
    3470:	10400061 	beqz	v0,0x35f8
    3474:	00005821 	move	t3,zero
    3478:	240e0008 	li	t6,8
    347c:	240d0011 	li	t5,17
    3480:	240a0012 	li	t2,18
    3484:	24080040 	li	t0,64
    3488:	240c0001 	li	t4,1
    348c:	8f830120 	lw	v1,288(gp)
    3490:	27623800 	addiu	v0,k1,14336
    3494:	24660020 	addiu	a2,v1,32
    3498:	00c2102b 	sltu	v0,a2,v0
    349c:	50400001 	beqzl	v0,0x34a4
    34a0:	27663000 	addiu	a2,k1,12288
    34a4:	8f820128 	lw	v0,296(gp)
    34a8:	10c20004 	beq	a2,v0,0x34bc
    34ac:	00000000 	nop
    34b0:	8f820124 	lw	v0,292(gp)
    34b4:	14c20007 	bne	a2,v0,0x34d4
    34b8:	00000000 	nop
    34bc:	8ee201a4 	lw	v0,420(s7)
    34c0:	00003821 	move	a3,zero
    34c4:	24420001 	addiu	v0,v0,1
    34c8:	aee201a4 	sw	v0,420(s7)
    34cc:	08001d74 	j	0x75d0
    34d0:	8ee201a4 	lw	v0,420(s7)
    34d4:	8ee20608 	lw	v0,1544(s7)
    34d8:	ac62001c 	sw	v0,28(v1)
    34dc:	8ee404a0 	lw	a0,1184(s7)
    34e0:	8ee504a4 	lw	a1,1188(s7)
    34e4:	2462001c 	addiu	v0,v1,28
    34e8:	ac620008 	sw	v0,8(v1)
    34ec:	a46e000e 	sh	t6,14(v1)
    34f0:	ac6d0018 	sw	t5,24(v1)
    34f4:	ac640000 	sw	a0,0(v1)
    34f8:	ac650004 	sw	a1,4(v1)
    34fc:	8ee204c4 	lw	v0,1220(s7)
    3500:	ac620010 	sw	v0,16(v1)
    3504:	af860120 	sw	a2,288(gp)
    3508:	92e24e20 	lbu	v0,20000(s7)
    350c:	14400033 	bnez	v0,0x35dc
    3510:	24070001 	li	a3,1
    3514:	8ee24e30 	lw	v0,20016(s7)
    3518:	000210c0 	sll	v0,v0,0x3
    351c:	24425038 	addiu	v0,v0,20536
    3520:	02e22021 	addu	a0,s7,v0
    3524:	8c820000 	lw	v0,0(a0)
    3528:	144a001f 	bne	v0,t2,0x35a8
    352c:	00000000 	nop
    3530:	8ee34e30 	lw	v1,20016(s7)
    3534:	8ee24e34 	lw	v0,20020(s7)
    3538:	1062001b 	beq	v1,v0,0x35a8
    353c:	00000000 	nop
    3540:	8c820004 	lw	v0,4(a0)
    3544:	24420001 	addiu	v0,v0,1
    3548:	ac820004 	sw	v0,4(a0)
    354c:	8ee24e34 	lw	v0,20020(s7)
    3550:	8ee34e30 	lw	v1,20016(s7)
    3554:	24420001 	addiu	v0,v0,1
    3558:	10480007 	beq	v0,t0,0x3578
    355c:	00000000 	nop
    3560:	8ee24e34 	lw	v0,20020(s7)
    3564:	24420001 	addiu	v0,v0,1
    3568:	10620005 	beq	v1,v0,0x3580
    356c:	00000000 	nop
    3570:	08001d61 	j	0x7584
    3574:	00000000 	nop
    3578:	14600005 	bnez	v1,0x3590
    357c:	00000000 	nop
    3580:	8f820128 	lw	v0,296(gp)
    3584:	24420020 	addiu	v0,v0,32
    3588:	af820128 	sw	v0,296(gp)
    358c:	8f820128 	lw	v0,296(gp)
    3590:	8c820004 	lw	v0,4(a0)
    3594:	2c420011 	sltiu	v0,v0,17
    3598:	50400010 	beqzl	v0,0x35dc
    359c:	ac800000 	sw	zero,0(a0)
    35a0:	08001d74 	j	0x75d0
    35a4:	00000000 	nop
    35a8:	8ee24e30 	lw	v0,20016(s7)
    35ac:	24420001 	addiu	v0,v0,1
    35b0:	50480003 	beql	v0,t0,0x35c0
    35b4:	00001021 	move	v0,zero
    35b8:	8ee24e30 	lw	v0,20016(s7)
    35bc:	24420001 	addiu	v0,v0,1
    35c0:	aee24e30 	sw	v0,20016(s7)
    35c4:	8ee24e30 	lw	v0,20016(s7)
    35c8:	000210c0 	sll	v0,v0,0x3
    35cc:	24425038 	addiu	v0,v0,20536
    35d0:	02e22021 	addu	a0,s7,v0
    35d4:	ac8a0000 	sw	t2,0(a0)
    35d8:	ac8c0004 	sw	t4,4(a0)
    35dc:	54e00006 	bnezl	a3,0x35f8
    35e0:	240b0001 	li	t3,1
    35e4:	8f820054 	lw	v0,84(gp)
    35e8:	01221023 	subu	v0,t1,v0
    35ec:	2c420033 	sltiu	v0,v0,51
    35f0:	1440ffa6 	bnez	v0,0x348c
    35f4:	00000000 	nop
    35f8:	316300ff 	andi	v1,t3,0xff
    35fc:	24020001 	li	v0,1
    3600:	10620022 	beq	v1,v0,0x368c
    3604:	00000000 	nop
    3608:	3c040001 	lui	a0,0x1
    360c:	24845390 	addiu	a0,a0,21392
    3610:	afa00010 	sw	zero,16(sp)
    3614:	afa00014 	sw	zero,20(sp)
    3618:	8f860120 	lw	a2,288(gp)
    361c:	8f870124 	lw	a3,292(gp)
    3620:	3c050009 	lui	a1,0x9
    3624:	0c002403 	jal	0x900c
    3628:	34a5f011 	ori	a1,a1,0xf011
    362c:	08001da0 	j	0x7680
    3630:	00000000 	nop
    3634:	3c040001 	lui	a0,0x1
    3638:	2484539c 	addiu	a0,a0,21404
    363c:	afa00014 	sw	zero,20(sp)
    3640:	8f860120 	lw	a2,288(gp)
    3644:	8f870124 	lw	a3,292(gp)
    3648:	3c050009 	lui	a1,0x9
    364c:	0c002403 	jal	0x900c
    3650:	34a5f010 	ori	a1,a1,0xf010
    3654:	08001da0 	j	0x7680
    3658:	00000000 	nop
    365c:	3c040001 	lui	a0,0x1
    3660:	248453a8 	addiu	a0,a0,21416
    3664:	afa00014 	sw	zero,20(sp)
    3668:	8ee60608 	lw	a2,1544(s7)
    366c:	8f470228 	lw	a3,552(k0)
    3670:	3c050009 	lui	a1,0x9
    3674:	0c002403 	jal	0x900c
    3678:	34a5f00f 	ori	a1,a1,0xf00f
    367c:	8ee201ac 	lw	v0,428(s7)
    3680:	24420001 	addiu	v0,v0,1
    3684:	aee201ac 	sw	v0,428(s7)
    3688:	8ee201ac 	lw	v0,428(s7)
    368c:	8ee20124 	lw	v0,292(s7)
    3690:	24420001 	addiu	v0,v0,1
    3694:	aee20124 	sw	v0,292(s7)
    3698:	08001f97 	j	0x7e5c
    369c:	8ee20124 	lw	v0,292(s7)
    36a0:	27440212 	addiu	a0,k0,530
    36a4:	0c0022fe 	jal	0x8bf8
    36a8:	24050006 	li	a1,6
    36ac:	3049001f 	andi	t1,v0,0x1f
    36b0:	000928c0 	sll	a1,t1,0x3
    36b4:	02e51021 	addu	v0,s7,a1
    36b8:	9442727c 	lhu	v0,29308(v0)
    36bc:	30428000 	andi	v0,v0,0x8000
    36c0:	1040002f 	beqz	v0,0x3780
    36c4:	02e51021 	addu	v0,s7,a1
    36c8:	9442727c 	lhu	v0,29308(v0)
    36cc:	30424000 	andi	v0,v0,0x4000
    36d0:	1440001c 	bnez	v0,0x3744
    36d4:	00b71021 	addu	v0,a1,s7
    36d8:	9443727e 	lhu	v1,29310(v0)
    36dc:	97420212 	lhu	v0,530(k0)
    36e0:	14620018 	bne	v1,v0,0x3744
    36e4:	00b71021 	addu	v0,a1,s7
    36e8:	8c437280 	lw	v1,29312(v0)
    36ec:	8f420214 	lw	v0,532(k0)
    36f0:	54620016 	bnel	v1,v0,0x374c
    36f4:	afa20010 	sw	v0,16(sp)
    36f8:	92e204d8 	lbu	v0,1240(s7)
    36fc:	10400007 	beqz	v0,0x371c
    3700:	24020001 	li	v0,1
    3704:	8ee304dc 	lw	v1,1244(s7)
    3708:	01221004 	sllv	v0,v0,t1
    370c:	00021027 	nor	v0,zero,v0
    3710:	00621824 	and	v1,v1,v0
    3714:	08001dc9 	j	0x7724
    3718:	aee304dc 	sw	v1,1244(s7)
    371c:	8f830228 	lw	v1,552(gp)
    3720:	01221004 	sllv	v0,v0,t1
    3724:	00021027 	nor	v0,zero,v0
    3728:	00621824 	and	v1,v1,v0
    372c:	af830228 	sw	v1,552(gp)
    3730:	000910c0 	sll	v0,t1,0x3
    3734:	02e21821 	addu	v1,s7,v0
    3738:	3402c000 	li	v0,0xc000
    373c:	08001e4e 	j	0x7938
    3740:	a462727c 	sh	v0,29308(v1)
    3744:	8f420214 	lw	v0,532(k0)
    3748:	afa20010 	sw	v0,16(sp)
    374c:	000910c0 	sll	v0,t1,0x3
    3750:	00571021 	addu	v0,v0,s7
    3754:	8c42727c 	lw	v0,29308(v0)
    3758:	3c040001 	lui	a0,0x1
    375c:	248453b4 	addiu	a0,a0,21428
    3760:	3c050003 	lui	a1,0x3
    3764:	afa20014 	sw	v0,20(sp)
    3768:	8f470210 	lw	a3,528(k0)
    376c:	34a5f01c 	ori	a1,a1,0xf01c
    3770:	0c002403 	jal	0x900c
    3774:	01203021 	move	a2,t1
    3778:	08001e83 	j	0x7a0c
    377c:	3c020800 	lui	v0,0x800
    3780:	00b71021 	addu	v0,a1,s7
    3784:	9443727e 	lhu	v1,29310(v0)
    3788:	97420212 	lhu	v0,530(k0)
    378c:	14620019 	bne	v1,v0,0x37f4
    3790:	000918c0 	sll	v1,t1,0x3
    3794:	00b71021 	addu	v0,a1,s7
    3798:	8c437280 	lw	v1,29312(v0)
    379c:	8f420214 	lw	v0,532(k0)
    37a0:	14620014 	bne	v1,v0,0x37f4
    37a4:	000918c0 	sll	v1,t1,0x3
    37a8:	02e51021 	addu	v0,s7,a1
    37ac:	9447727c 	lhu	a3,29308(v0)
    37b0:	000720c0 	sll	a0,a3,0x3
    37b4:	00971021 	addu	v0,a0,s7
    37b8:	9443737e 	lhu	v1,29566(v0)
    37bc:	00b71021 	addu	v0,a1,s7
    37c0:	a443727e 	sh	v1,29310(v0)
    37c4:	00971021 	addu	v0,a0,s7
    37c8:	8c437380 	lw	v1,29568(v0)
    37cc:	00b71021 	addu	v0,a1,s7
    37d0:	ac437280 	sw	v1,29312(v0)
    37d4:	02e41021 	addu	v0,s7,a0
    37d8:	9443737c 	lhu	v1,29564(v0)
    37dc:	02e51021 	addu	v0,s7,a1
    37e0:	a443727c 	sh	v1,29308(v0)
    37e4:	02e41821 	addu	v1,s7,a0
    37e8:	3402c000 	li	v0,0xc000
    37ec:	08001e4e 	j	0x7938
    37f0:	a462737c 	sh	v0,29564(v1)
    37f4:	02e31021 	addu	v0,s7,v1
    37f8:	9447727c 	lhu	a3,29308(v0)
    37fc:	00003021 	move	a2,zero
    3800:	000720c0 	sll	a0,a3,0x3
    3804:	02e41021 	addu	v0,s7,a0
    3808:	9442737c 	lhu	v0,29564(v0)
    380c:	00004021 	move	t0,zero
    3810:	30428000 	andi	v0,v0,0x8000
    3814:	14400025 	bnez	v0,0x38ac
    3818:	00e02821 	move	a1,a3
    381c:	00605021 	move	t2,v1
    3820:	340bc000 	li	t3,0xc000
    3824:	00971021 	addu	v0,a0,s7
    3828:	9443737e 	lhu	v1,29566(v0)
    382c:	97420212 	lhu	v0,530(k0)
    3830:	54620015 	bnel	v1,v0,0x3888
    3834:	00e02821 	move	a1,a3
    3838:	00971021 	addu	v0,a0,s7
    383c:	8c437380 	lw	v1,29568(v0)
    3840:	8f420214 	lw	v0,532(k0)
    3844:	54620010 	bnel	v1,v0,0x3888
    3848:	00e02821 	move	a1,a3
    384c:	11000006 	beqz	t0,0x3868
    3850:	02e41021 	addu	v0,s7,a0
    3854:	9443737c 	lhu	v1,29564(v0)
    3858:	000510c0 	sll	v0,a1,0x3
    385c:	02e21021 	addu	v0,s7,v0
    3860:	08001e1a 	j	0x7868
    3864:	a443737c 	sh	v1,29564(v0)
    3868:	9443737c 	lhu	v1,29564(v0)
    386c:	02ea1021 	addu	v0,s7,t2
    3870:	a443727c 	sh	v1,29308(v0)
    3874:	000710c0 	sll	v0,a3,0x3
    3878:	02e21021 	addu	v0,s7,v0
    387c:	a44b737c 	sh	t3,29564(v0)
    3880:	08001e28 	j	0x78a0
    3884:	24060001 	li	a2,1
    3888:	000510c0 	sll	v0,a1,0x3
    388c:	02e21021 	addu	v0,s7,v0
    3890:	9447737c 	lhu	a3,29564(v0)
    3894:	000720c0 	sll	a0,a3,0x3
    3898:	02e41021 	addu	v0,s7,a0
    389c:	9442737c 	lhu	v0,29564(v0)
    38a0:	30428000 	andi	v0,v0,0x8000
    38a4:	1040ffdf 	beqz	v0,0x3824
    38a8:	25080001 	addiu	t0,t0,1
    38ac:	30c200ff 	andi	v0,a2,0xff
    38b0:	14400025 	bnez	v0,0x3948
    38b4:	00002021 	move	a0,zero
    38b8:	000720c0 	sll	a0,a3,0x3
    38bc:	00971021 	addu	v0,a0,s7
    38c0:	9443737e 	lhu	v1,29566(v0)
    38c4:	97420212 	lhu	v0,530(k0)
    38c8:	1462000f 	bne	v1,v0,0x3908
    38cc:	000910c0 	sll	v0,t1,0x3
    38d0:	00971021 	addu	v0,a0,s7
    38d4:	8c437380 	lw	v1,29568(v0)
    38d8:	8f420214 	lw	v0,532(k0)
    38dc:	1462000a 	bne	v1,v0,0x3908
    38e0:	000910c0 	sll	v0,t1,0x3
    38e4:	02e41821 	addu	v1,s7,a0
    38e8:	3402c000 	li	v0,0xc000
    38ec:	15000015 	bnez	t0,0x3944
    38f0:	a462737c 	sh	v0,29564(v1)
    38f4:	000910c0 	sll	v0,t1,0x3
    38f8:	02e21821 	addu	v1,s7,v0
    38fc:	34028000 	li	v0,0x8000
    3900:	08001e4e 	j	0x7938
    3904:	a462727c 	sh	v0,29308(v1)
    3908:	00571021 	addu	v0,v0,s7
    390c:	8c42727c 	lw	v0,29308(v0)
    3910:	3c040001 	lui	a0,0x1
    3914:	248453c0 	addiu	a0,a0,21440
    3918:	3c050003 	lui	a1,0x3
    391c:	afa20010 	sw	v0,16(sp)
    3920:	000710c0 	sll	v0,a3,0x3
    3924:	00571021 	addu	v0,v0,s7
    3928:	8c42737c 	lw	v0,29564(v0)
    392c:	34a5001e 	ori	a1,a1,0x1e
    3930:	01203021 	move	a2,t1
    3934:	0c002403 	jal	0x900c
    3938:	afa20014 	sw	v0,20(sp)
    393c:	08001e83 	j	0x7a0c
    3940:	3c020800 	lui	v0,0x800
    3944:	00002021 	move	a0,zero
    3948:	000428c0 	sll	a1,a0,0x3
    394c:	00b71021 	addu	v0,a1,s7
    3950:	9443777e 	lhu	v1,30590(v0)
    3954:	97420212 	lhu	v0,530(k0)
    3958:	5462002b 	bnel	v1,v0,0x3a08
    395c:	24840001 	addiu	a0,a0,1
    3960:	00b71021 	addu	v0,a1,s7
    3964:	8c437780 	lw	v1,30592(v0)
    3968:	8f420214 	lw	v0,532(k0)
    396c:	54620026 	bnel	v1,v0,0x3a08
    3970:	24840001 	addiu	a0,a0,1
    3974:	3c020001 	lui	v0,0x1
    3978:	00571021 	addu	v0,v0,s7
    397c:	8c4283b4 	lw	v0,-31820(v0)
    3980:	2442ffff 	addiu	v0,v0,-1
    3984:	3c010001 	lui	at,0x1
    3988:	00370821 	addu	at,at,s7
    398c:	ac2283b4 	sw	v0,-31820(at)
    3990:	3c020001 	lui	v0,0x1
    3994:	00571021 	addu	v0,v0,s7
    3998:	8c4283b4 	lw	v0,-31820(v0)
    399c:	00809021 	move	s2,a0
    39a0:	0242102b 	sltu	v0,s2,v0
    39a4:	1040000e 	beqz	v0,0x39e0
    39a8:	24b1777c 	addiu	s1,a1,30588
    39ac:	24b07784 	addiu	s0,a1,30596
    39b0:	02f02021 	addu	a0,s7,s0
    39b4:	02f12821 	addu	a1,s7,s1
    39b8:	0c002490 	jal	0x9240
    39bc:	24060008 	li	a2,8
    39c0:	26310008 	addiu	s1,s1,8
    39c4:	3c020001 	lui	v0,0x1
    39c8:	00571021 	addu	v0,v0,s7
    39cc:	8c4283b4 	lw	v0,-31820(v0)
    39d0:	26520001 	addiu	s2,s2,1
    39d4:	0242102b 	sltu	v0,s2,v0
    39d8:	1440fff5 	bnez	v0,0x39b0
    39dc:	26100008 	addiu	s0,s0,8
    39e0:	3c040001 	lui	a0,0x1
    39e4:	00972021 	addu	a0,a0,s7
    39e8:	8c8483b4 	lw	a0,-31820(a0)
    39ec:	24050008 	li	a1,8
    39f0:	000420c0 	sll	a0,a0,0x3
    39f4:	2484777c 	addiu	a0,a0,30588
    39f8:	0c002488 	jal	0x9220
    39fc:	02e42021 	addu	a0,s7,a0
    3a00:	08001e83 	j	0x7a0c
    3a04:	3c020800 	lui	v0,0x800
    3a08:	2c820080 	sltiu	v0,a0,128
    3a0c:	1440ffcf 	bnez	v0,0x394c
    3a10:	000428c0 	sll	a1,a0,0x3
    3a14:	3c020800 	lui	v0,0x800
    3a18:	34422000 	ori	v0,v0,0x2000
    3a1c:	afa20018 	sw	v0,24(sp)
    3a20:	8ee20608 	lw	v0,1544(s7)
    3a24:	8f430228 	lw	v1,552(k0)
    3a28:	24420001 	addiu	v0,v0,1
    3a2c:	304a00ff 	andi	t2,v0,0xff
    3a30:	514300fd 	beql	t2,v1,0x3e28
    3a34:	afa00010 	sw	zero,16(sp)
    3a38:	8ee20608 	lw	v0,1544(s7)
    3a3c:	000210c0 	sll	v0,v0,0x3
    3a40:	00571021 	addu	v0,v0,s7
    3a44:	8fa30018 	lw	v1,24(sp)
    3a48:	8fa4001c 	lw	a0,28(sp)
    3a4c:	ac43060c 	sw	v1,1548(v0)
    3a50:	ac440610 	sw	a0,1552(v0)
    3a54:	8f830054 	lw	v1,84(gp)
    3a58:	8f820054 	lw	v0,84(gp)
    3a5c:	24690032 	addiu	t1,v1,50
    3a60:	01221023 	subu	v0,t1,v0
    3a64:	2c420033 	sltiu	v0,v0,51
    3a68:	1040006a 	beqz	v0,0x3c14
    3a6c:	00005821 	move	t3,zero
    3a70:	24100008 	li	s0,8
    3a74:	240f000d 	li	t7,13
    3a78:	240d0007 	li	t5,7
    3a7c:	240c0040 	li	t4,64
    3a80:	240e0001 	li	t6,1
    3a84:	8f870120 	lw	a3,288(gp)
    3a88:	27623800 	addiu	v0,k1,14336
    3a8c:	24e80020 	addiu	t0,a3,32
    3a90:	0102102b 	sltu	v0,t0,v0
    3a94:	50400001 	beqzl	v0,0x3a9c
    3a98:	27683000 	addiu	t0,k1,12288
    3a9c:	8f820128 	lw	v0,296(gp)
    3aa0:	11020004 	beq	t0,v0,0x3ab4
    3aa4:	00000000 	nop
    3aa8:	8f820124 	lw	v0,292(gp)
    3aac:	15020007 	bne	t0,v0,0x3acc
    3ab0:	00001021 	move	v0,zero
    3ab4:	8ee201a4 	lw	v0,420(s7)
    3ab8:	00003821 	move	a3,zero
    3abc:	24420001 	addiu	v0,v0,1
    3ac0:	aee201a4 	sw	v0,420(s7)
    3ac4:	08001efb 	j	0x7bec
    3ac8:	8ee201a4 	lw	v0,420(s7)
    3acc:	8ee40608 	lw	a0,1544(s7)
    3ad0:	000420c0 	sll	a0,a0,0x3
    3ad4:	00801821 	move	v1,a0
    3ad8:	8ee40430 	lw	a0,1072(s7)
    3adc:	8ee50434 	lw	a1,1076(s7)
    3ae0:	00a32821 	addu	a1,a1,v1
    3ae4:	00a3302b 	sltu	a2,a1,v1
    3ae8:	00822021 	addu	a0,a0,v0
    3aec:	00862021 	addu	a0,a0,a2
    3af0:	ace40000 	sw	a0,0(a3)
    3af4:	ace50004 	sw	a1,4(a3)
    3af8:	8ee20608 	lw	v0,1544(s7)
    3afc:	a4f0000e 	sh	s0,14(a3)
    3b00:	acef0018 	sw	t7,24(a3)
    3b04:	acea001c 	sw	t2,28(a3)
    3b08:	000210c0 	sll	v0,v0,0x3
    3b0c:	2442060c 	addiu	v0,v0,1548
    3b10:	02e21021 	addu	v0,s7,v0
    3b14:	ace20008 	sw	v0,8(a3)
    3b18:	8ee204c4 	lw	v0,1220(s7)
    3b1c:	ace20010 	sw	v0,16(a3)
    3b20:	af880120 	sw	t0,288(gp)
    3b24:	92e24e20 	lbu	v0,20000(s7)
    3b28:	14400033 	bnez	v0,0x3bf8
    3b2c:	24070001 	li	a3,1
    3b30:	8ee24e30 	lw	v0,20016(s7)
    3b34:	000210c0 	sll	v0,v0,0x3
    3b38:	24425038 	addiu	v0,v0,20536
    3b3c:	02e22021 	addu	a0,s7,v0
    3b40:	8c820000 	lw	v0,0(a0)
    3b44:	144d001f 	bne	v0,t5,0x3bc4
    3b48:	00000000 	nop
    3b4c:	8ee34e30 	lw	v1,20016(s7)
    3b50:	8ee24e34 	lw	v0,20020(s7)
    3b54:	1062001b 	beq	v1,v0,0x3bc4
    3b58:	00000000 	nop
    3b5c:	8c820004 	lw	v0,4(a0)
    3b60:	24420001 	addiu	v0,v0,1
    3b64:	ac820004 	sw	v0,4(a0)
    3b68:	8ee24e34 	lw	v0,20020(s7)
    3b6c:	8ee34e30 	lw	v1,20016(s7)
    3b70:	24420001 	addiu	v0,v0,1
    3b74:	104c0007 	beq	v0,t4,0x3b94
    3b78:	00000000 	nop
    3b7c:	8ee24e34 	lw	v0,20020(s7)
    3b80:	24420001 	addiu	v0,v0,1
    3b84:	10620005 	beq	v1,v0,0x3b9c
    3b88:	00000000 	nop
    3b8c:	08001ee8 	j	0x7ba0
    3b90:	00000000 	nop
    3b94:	14600005 	bnez	v1,0x3bac
    3b98:	00000000 	nop
    3b9c:	8f820128 	lw	v0,296(gp)
    3ba0:	24420020 	addiu	v0,v0,32
    3ba4:	af820128 	sw	v0,296(gp)
    3ba8:	8f820128 	lw	v0,296(gp)
    3bac:	8c820004 	lw	v0,4(a0)
    3bb0:	2c420011 	sltiu	v0,v0,17
    3bb4:	50400010 	beqzl	v0,0x3bf8
    3bb8:	ac800000 	sw	zero,0(a0)
    3bbc:	08001efb 	j	0x7bec
    3bc0:	00000000 	nop
    3bc4:	8ee24e30 	lw	v0,20016(s7)
    3bc8:	24420001 	addiu	v0,v0,1
    3bcc:	504c0003 	beql	v0,t4,0x3bdc
    3bd0:	00001021 	move	v0,zero
    3bd4:	8ee24e30 	lw	v0,20016(s7)
    3bd8:	24420001 	addiu	v0,v0,1
    3bdc:	aee24e30 	sw	v0,20016(s7)
    3be0:	8ee24e30 	lw	v0,20016(s7)
    3be4:	000210c0 	sll	v0,v0,0x3
    3be8:	24425038 	addiu	v0,v0,20536
    3bec:	02e22021 	addu	a0,s7,v0
    3bf0:	ac8d0000 	sw	t5,0(a0)
    3bf4:	ac8e0004 	sw	t6,4(a0)
    3bf8:	54e00006 	bnezl	a3,0x3c14
    3bfc:	240b0001 	li	t3,1
    3c00:	8f820054 	lw	v0,84(gp)
    3c04:	01221023 	subu	v0,t1,v0
    3c08:	2c420033 	sltiu	v0,v0,51
    3c0c:	1440ff9d 	bnez	v0,0x3a84
    3c10:	00000000 	nop
    3c14:	316300ff 	andi	v1,t3,0xff
    3c18:	24020001 	li	v0,1
    3c1c:	54620078 	bnel	v1,v0,0x3e00
    3c20:	afa00010 	sw	zero,16(sp)
    3c24:	aeea0608 	sw	t2,1544(s7)
    3c28:	8f830054 	lw	v1,84(gp)
    3c2c:	8f820054 	lw	v0,84(gp)
    3c30:	24690032 	addiu	t1,v1,50
    3c34:	01221023 	subu	v0,t1,v0
    3c38:	2c420033 	sltiu	v0,v0,51
    3c3c:	10400061 	beqz	v0,0x3dc4
    3c40:	00005821 	move	t3,zero
    3c44:	240e0008 	li	t6,8
    3c48:	240d0011 	li	t5,17
    3c4c:	240a0012 	li	t2,18
    3c50:	24080040 	li	t0,64
    3c54:	240c0001 	li	t4,1
    3c58:	8f830120 	lw	v1,288(gp)
    3c5c:	27623800 	addiu	v0,k1,14336
    3c60:	24660020 	addiu	a2,v1,32
    3c64:	00c2102b 	sltu	v0,a2,v0
    3c68:	50400001 	beqzl	v0,0x3c70
    3c6c:	27663000 	addiu	a2,k1,12288
    3c70:	8f820128 	lw	v0,296(gp)
    3c74:	10c20004 	beq	a2,v0,0x3c88
    3c78:	00000000 	nop
    3c7c:	8f820124 	lw	v0,292(gp)
    3c80:	14c20007 	bne	a2,v0,0x3ca0
    3c84:	00000000 	nop
    3c88:	8ee201a4 	lw	v0,420(s7)
    3c8c:	00003821 	move	a3,zero
    3c90:	24420001 	addiu	v0,v0,1
    3c94:	aee201a4 	sw	v0,420(s7)
    3c98:	08001f67 	j	0x7d9c
    3c9c:	8ee201a4 	lw	v0,420(s7)
    3ca0:	8ee20608 	lw	v0,1544(s7)
    3ca4:	ac62001c 	sw	v0,28(v1)
    3ca8:	8ee404a0 	lw	a0,1184(s7)
    3cac:	8ee504a4 	lw	a1,1188(s7)
    3cb0:	2462001c 	addiu	v0,v1,28
    3cb4:	ac620008 	sw	v0,8(v1)
    3cb8:	a46e000e 	sh	t6,14(v1)
    3cbc:	ac6d0018 	sw	t5,24(v1)
    3cc0:	ac640000 	sw	a0,0(v1)
    3cc4:	ac650004 	sw	a1,4(v1)
    3cc8:	8ee204c4 	lw	v0,1220(s7)
    3ccc:	ac620010 	sw	v0,16(v1)
    3cd0:	af860120 	sw	a2,288(gp)
    3cd4:	92e24e20 	lbu	v0,20000(s7)
    3cd8:	14400033 	bnez	v0,0x3da8
    3cdc:	24070001 	li	a3,1
    3ce0:	8ee24e30 	lw	v0,20016(s7)
    3ce4:	000210c0 	sll	v0,v0,0x3
    3ce8:	24425038 	addiu	v0,v0,20536
    3cec:	02e22021 	addu	a0,s7,v0
    3cf0:	8c820000 	lw	v0,0(a0)
    3cf4:	144a001f 	bne	v0,t2,0x3d74
    3cf8:	00000000 	nop
    3cfc:	8ee34e30 	lw	v1,20016(s7)
    3d00:	8ee24e34 	lw	v0,20020(s7)
    3d04:	1062001b 	beq	v1,v0,0x3d74
    3d08:	00000000 	nop
    3d0c:	8c820004 	lw	v0,4(a0)
    3d10:	24420001 	addiu	v0,v0,1
    3d14:	ac820004 	sw	v0,4(a0)
    3d18:	8ee24e34 	lw	v0,20020(s7)
    3d1c:	8ee34e30 	lw	v1,20016(s7)
    3d20:	24420001 	addiu	v0,v0,1
    3d24:	10480007 	beq	v0,t0,0x3d44
    3d28:	00000000 	nop
    3d2c:	8ee24e34 	lw	v0,20020(s7)
    3d30:	24420001 	addiu	v0,v0,1
    3d34:	10620005 	beq	v1,v0,0x3d4c
    3d38:	00000000 	nop
    3d3c:	08001f54 	j	0x7d50
    3d40:	00000000 	nop
    3d44:	14600005 	bnez	v1,0x3d5c
    3d48:	00000000 	nop
    3d4c:	8f820128 	lw	v0,296(gp)
    3d50:	24420020 	addiu	v0,v0,32
    3d54:	af820128 	sw	v0,296(gp)
    3d58:	8f820128 	lw	v0,296(gp)
    3d5c:	8c820004 	lw	v0,4(a0)
    3d60:	2c420011 	sltiu	v0,v0,17
    3d64:	50400010 	beqzl	v0,0x3da8
    3d68:	ac800000 	sw	zero,0(a0)
    3d6c:	08001f67 	j	0x7d9c
    3d70:	00000000 	nop
    3d74:	8ee24e30 	lw	v0,20016(s7)
    3d78:	24420001 	addiu	v0,v0,1
    3d7c:	50480003 	beql	v0,t0,0x3d8c
    3d80:	00001021 	move	v0,zero
    3d84:	8ee24e30 	lw	v0,20016(s7)
    3d88:	24420001 	addiu	v0,v0,1
    3d8c:	aee24e30 	sw	v0,20016(s7)
    3d90:	8ee24e30 	lw	v0,20016(s7)
    3d94:	000210c0 	sll	v0,v0,0x3
    3d98:	24425038 	addiu	v0,v0,20536
    3d9c:	02e22021 	addu	a0,s7,v0
    3da0:	ac8a0000 	sw	t2,0(a0)
    3da4:	ac8c0004 	sw	t4,4(a0)
    3da8:	54e00006 	bnezl	a3,0x3dc4
    3dac:	240b0001 	li	t3,1
    3db0:	8f820054 	lw	v0,84(gp)
    3db4:	01221023 	subu	v0,t1,v0
    3db8:	2c420033 	sltiu	v0,v0,51
    3dbc:	1440ffa6 	bnez	v0,0x3c58
    3dc0:	00000000 	nop
    3dc4:	316300ff 	andi	v1,t3,0xff
    3dc8:	24020001 	li	v0,1
    3dcc:	10620022 	beq	v1,v0,0x3e58
    3dd0:	00000000 	nop
    3dd4:	3c040001 	lui	a0,0x1
    3dd8:	24845390 	addiu	a0,a0,21392
    3ddc:	afa00010 	sw	zero,16(sp)
    3de0:	afa00014 	sw	zero,20(sp)
    3de4:	8f860120 	lw	a2,288(gp)
    3de8:	8f870124 	lw	a3,292(gp)
    3dec:	3c050009 	lui	a1,0x9
    3df0:	0c002403 	jal	0x900c
    3df4:	34a5f011 	ori	a1,a1,0xf011
    3df8:	08001f93 	j	0x7e4c
    3dfc:	00000000 	nop
    3e00:	3c040001 	lui	a0,0x1
    3e04:	2484539c 	addiu	a0,a0,21404
    3e08:	afa00014 	sw	zero,20(sp)
    3e0c:	8f860120 	lw	a2,288(gp)
    3e10:	8f870124 	lw	a3,292(gp)
    3e14:	3c050009 	lui	a1,0x9
    3e18:	0c002403 	jal	0x900c
    3e1c:	34a5f010 	ori	a1,a1,0xf010
    3e20:	08001f93 	j	0x7e4c
    3e24:	00000000 	nop
    3e28:	3c040001 	lui	a0,0x1
    3e2c:	248453a8 	addiu	a0,a0,21416
    3e30:	afa00014 	sw	zero,20(sp)
    3e34:	8ee60608 	lw	a2,1544(s7)
    3e38:	8f470228 	lw	a3,552(k0)
    3e3c:	3c050009 	lui	a1,0x9
    3e40:	0c002403 	jal	0x900c
    3e44:	34a5f00f 	ori	a1,a1,0xf00f
    3e48:	8ee201ac 	lw	v0,428(s7)
    3e4c:	24420001 	addiu	v0,v0,1
    3e50:	aee201ac 	sw	v0,428(s7)
    3e54:	8ee201ac 	lw	v0,428(s7)
    3e58:	8ee20128 	lw	v0,296(s7)
    3e5c:	24420001 	addiu	v0,v0,1
    3e60:	aee20128 	sw	v0,296(s7)
    3e64:	8ee20128 	lw	v0,296(s7)
    3e68:	8ee20164 	lw	v0,356(s7)
    3e6c:	24420001 	addiu	v0,v0,1
    3e70:	aee20164 	sw	v0,356(s7)
    3e74:	080022e8 	j	0x8ba0
    3e78:	8ee20164 	lw	v0,356(s7)
    3e7c:	8fa20020 	lw	v0,32(sp)
    3e80:	00021200 	sll	v0,v0,0x8
    3e84:	00021d02 	srl	v1,v0,0x14
    3e88:	24020001 	li	v0,1
    3e8c:	10620005 	beq	v1,v0,0x3ea4
    3e90:	24020002 	li	v0,2
    3e94:	1062000d 	beq	v1,v0,0x3ecc
    3e98:	00000000 	nop
    3e9c:	08001fb7 	j	0x7edc
    3ea0:	afa00010 	sw	zero,16(sp)
    3ea4:	92e204d8 	lbu	v0,1240(s7)
    3ea8:	14400006 	bnez	v0,0x3ec4
    3eac:	24020001 	li	v0,1
    3eb0:	8f820228 	lw	v0,552(gp)
    3eb4:	aee204dc 	sw	v0,1244(s7)
    3eb8:	2402ffff 	li	v0,-1
    3ebc:	af820228 	sw	v0,552(gp)
    3ec0:	24020001 	li	v0,1
    3ec4:	08001fbe 	j	0x7ef8
    3ec8:	a2e204d8 	sb	v0,1240(s7)
    3ecc:	92e204d8 	lbu	v0,1240(s7)
    3ed0:	5040000c 	beqzl	v0,0x3f04
    3ed4:	a2e004d8 	sb	zero,1240(s7)
    3ed8:	8ee204dc 	lw	v0,1244(s7)
    3edc:	af820228 	sw	v0,552(gp)
    3ee0:	08001fbe 	j	0x7ef8
    3ee4:	a2e004d8 	sb	zero,1240(s7)
    3ee8:	3c040001 	lui	a0,0x1
    3eec:	248453c8 	addiu	a0,a0,21448
    3ef0:	afa00014 	sw	zero,20(sp)
    3ef4:	8fa60020 	lw	a2,32(sp)
    3ef8:	3c050003 	lui	a1,0x3
    3efc:	0c002403 	jal	0x900c
    3f00:	34a5f009 	ori	a1,a1,0xf009
    3f04:	8ee2013c 	lw	v0,316(s7)
    3f08:	24420001 	addiu	v0,v0,1
    3f0c:	aee2013c 	sw	v0,316(s7)
    3f10:	080022e8 	j	0x8ba0
    3f14:	8ee2013c 	lw	v0,316(s7)
    3f18:	8fa20020 	lw	v0,32(sp)
    3f1c:	00021200 	sll	v0,v0,0x8
    3f20:	00022502 	srl	a0,v0,0x14
    3f24:	24020001 	li	v0,1
    3f28:	10820005 	beq	a0,v0,0x3f40
    3f2c:	24020002 	li	v0,2
    3f30:	1082000f 	beq	a0,v0,0x3f70
    3f34:	00000000 	nop
    3f38:	08001fe3 	j	0x7f8c
    3f3c:	afa00010 	sw	zero,16(sp)
    3f40:	8f820220 	lw	v0,544(gp)
    3f44:	3c0308ff 	lui	v1,0x8ff
    3f48:	3463ffff 	ori	v1,v1,0xffff
    3f4c:	00431024 	and	v0,v0,v1
    3f50:	34420008 	ori	v0,v0,0x8
    3f54:	af820220 	sw	v0,544(gp)
    3f58:	24020001 	li	v0,1
    3f5c:	3c010001 	lui	at,0x1
    3f60:	00370821 	addu	at,at,s7
    3f64:	a02283b2 	sb	v0,-31822(at)
    3f68:	08001fea 	j	0x7fa8
    3f6c:	aee40108 	sw	a0,264(s7)
    3f70:	8f820220 	lw	v0,544(gp)
    3f74:	3c0308ff 	lui	v1,0x8ff
    3f78:	3463fff7 	ori	v1,v1,0xfff7
    3f7c:	00431024 	and	v0,v0,v1
    3f80:	af820220 	sw	v0,544(gp)
    3f84:	3c010001 	lui	at,0x1
    3f88:	00370821 	addu	at,at,s7
    3f8c:	a02083b2 	sb	zero,-31822(at)
    3f90:	08001fea 	j	0x7fa8
    3f94:	aee40108 	sw	a0,264(s7)
    3f98:	3c040001 	lui	a0,0x1
    3f9c:	248453d4 	addiu	a0,a0,21460
    3fa0:	afa00014 	sw	zero,20(sp)
    3fa4:	8fa60020 	lw	a2,32(sp)
    3fa8:	3c050003 	lui	a1,0x3
    3fac:	0c002403 	jal	0x900c
    3fb0:	34a5f00a 	ori	a1,a1,0xf00a
    3fb4:	8ee2012c 	lw	v0,300(s7)
    3fb8:	24420001 	addiu	v0,v0,1
    3fbc:	aee2012c 	sw	v0,300(s7)
    3fc0:	080022e8 	j	0x8ba0
    3fc4:	8ee2012c 	lw	v0,300(s7)
    3fc8:	8fa20020 	lw	v0,32(sp)
    3fcc:	00021200 	sll	v0,v0,0x8
    3fd0:	00021d02 	srl	v1,v0,0x14
    3fd4:	24020001 	li	v0,1
    3fd8:	10620005 	beq	v1,v0,0x3ff0
    3fdc:	24020002 	li	v0,2
    3fe0:	1062000e 	beq	v1,v0,0x401c
    3fe4:	00000000 	nop
    3fe8:	08002011 	j	0x8044
    3fec:	afa00010 	sw	zero,16(sp)
    3ff0:	8f820220 	lw	v0,544(gp)
    3ff4:	3c0308ff 	lui	v1,0x8ff
    3ff8:	3463ffff 	ori	v1,v1,0xffff
    3ffc:	00431024 	and	v0,v0,v1
    4000:	34420008 	ori	v0,v0,0x8
    4004:	af820220 	sw	v0,544(gp)
    4008:	24020001 	li	v0,1
    400c:	3c010001 	lui	at,0x1
    4010:	00370821 	addu	at,at,s7
    4014:	08002018 	j	0x8060
    4018:	a02283b3 	sb	v0,-31821(at)
    401c:	3c020001 	lui	v0,0x1
    4020:	00571021 	addu	v0,v0,s7
    4024:	904283b2 	lbu	v0,-31822(v0)
    4028:	3c010001 	lui	at,0x1
    402c:	00370821 	addu	at,at,s7
    4030:	1440000e 	bnez	v0,0x406c
    4034:	a02083b3 	sb	zero,-31821(at)
    4038:	8f820220 	lw	v0,544(gp)
    403c:	3c0308ff 	lui	v1,0x8ff
    4040:	3463fff7 	ori	v1,v1,0xfff7
    4044:	00431024 	and	v0,v0,v1
    4048:	08002018 	j	0x8060
    404c:	af820220 	sw	v0,544(gp)
    4050:	3c040001 	lui	a0,0x1
    4054:	248453e0 	addiu	a0,a0,21472
    4058:	afa00014 	sw	zero,20(sp)
    405c:	8fa60020 	lw	a2,32(sp)
    4060:	3c050003 	lui	a1,0x3
    4064:	0c002403 	jal	0x900c
    4068:	34a5f00b 	ori	a1,a1,0xf00b
    406c:	8ee20114 	lw	v0,276(s7)
    4070:	24420001 	addiu	v0,v0,1
    4074:	aee20114 	sw	v0,276(s7)
    4078:	080022e8 	j	0x8ba0
    407c:	8ee20114 	lw	v0,276(s7)
    4080:	27840208 	addiu	a0,gp,520
    4084:	27450200 	addiu	a1,k0,512
    4088:	0c00249a 	jal	0x9268
    408c:	24060008 	li	a2,8
    4090:	26e40094 	addiu	a0,s7,148
    4094:	27450200 	addiu	a1,k0,512
    4098:	0c00249a 	jal	0x9268
    409c:	24060008 	li	a2,8
    40a0:	8ee20134 	lw	v0,308(s7)
    40a4:	24420001 	addiu	v0,v0,1
    40a8:	aee20134 	sw	v0,308(s7)
    40ac:	080022e8 	j	0x8ba0
    40b0:	8ee20134 	lw	v0,308(s7)
    40b4:	8f460248 	lw	a2,584(k0)
    40b8:	00002021 	move	a0,zero
    40bc:	0c005108 	jal	0x14420
    40c0:	24050004 	li	a1,4
    40c4:	8ee20130 	lw	v0,304(s7)
    40c8:	24420001 	addiu	v0,v0,1
    40cc:	aee20130 	sw	v0,304(s7)
    40d0:	080022e8 	j	0x8ba0
    40d4:	8ee20130 	lw	v0,304(s7)
    40d8:	8ef301cc 	lw	s3,460(s7)
    40dc:	8ef401d0 	lw	s4,464(s7)
    40e0:	8ef501d8 	lw	s5,472(s7)
    40e4:	8ee20140 	lw	v0,320(s7)
    40e8:	26e40030 	addiu	a0,s7,48
    40ec:	24420001 	addiu	v0,v0,1
    40f0:	aee20140 	sw	v0,320(s7)
    40f4:	8ef00140 	lw	s0,320(s7)
    40f8:	8ef10074 	lw	s1,116(s7)
    40fc:	8ef20070 	lw	s2,112(s7)
    4100:	0c002488 	jal	0x9220
    4104:	24050400 	li	a1,1024
    4108:	aef301cc 	sw	s3,460(s7)
    410c:	aef401d0 	sw	s4,464(s7)
    4110:	aef501d8 	sw	s5,472(s7)
    4114:	aef00140 	sw	s0,320(s7)
    4118:	aef10074 	sw	s1,116(s7)
    411c:	aef20070 	sw	s2,112(s7)
    4120:	8f42025c 	lw	v0,604(k0)
    4124:	26e40094 	addiu	a0,s7,148
    4128:	aee20060 	sw	v0,96(s7)
    412c:	8f420260 	lw	v0,608(k0)
    4130:	27450200 	addiu	a1,k0,512
    4134:	24060008 	li	a2,8
    4138:	aee20068 	sw	v0,104(s7)
    413c:	24020006 	li	v0,6
    4140:	0c00249a 	jal	0x9268
    4144:	aee20064 	sw	v0,100(s7)
    4148:	3c023b9a 	lui	v0,0x3b9a
    414c:	3442ca00 	ori	v0,v0,0xca00
    4150:	aee2006c 	sw	v0,108(s7)
    4154:	240203e8 	li	v0,1000
    4158:	24040002 	li	a0,2
    415c:	24030001 	li	v1,1
    4160:	aee20104 	sw	v0,260(s7)
    4164:	aee40100 	sw	a0,256(s7)
    4168:	aee3010c 	sw	v1,268(s7)
    416c:	8f820220 	lw	v0,544(gp)
    4170:	30420008 	andi	v0,v0,0x8
    4174:	10400004 	beqz	v0,0x4188
    4178:	00000000 	nop
    417c:	aee30108 	sw	v1,264(s7)
    4180:	08002061 	j	0x8184
    4184:	00002021 	move	a0,zero
    4188:	aee40108 	sw	a0,264(s7)
    418c:	00002021 	move	a0,zero
    4190:	3c030001 	lui	v1,0x1
    4194:	00641821 	addu	v1,v1,a0
    4198:	90635c30 	lbu	v1,23600(v1)
    419c:	02e41021 	addu	v0,s7,a0
    41a0:	24840001 	addiu	a0,a0,1
    41a4:	a043009c 	sb	v1,156(v0)
    41a8:	2c82000f 	sltiu	v0,a0,15
    41ac:	1440fff8 	bnez	v0,0x4190
    41b0:	00000000 	nop
    41b4:	8f820040 	lw	v0,64(gp)
    41b8:	02e41821 	addu	v1,s7,a0
    41bc:	24840001 	addiu	a0,a0,1
    41c0:	00021702 	srl	v0,v0,0x1c
    41c4:	24420030 	addiu	v0,v0,48
    41c8:	a062009c 	sb	v0,156(v1)
    41cc:	02e41021 	addu	v0,s7,a0
    41d0:	080022e8 	j	0x8ba0
    41d4:	a040009c 	sb	zero,156(v0)
    41d8:	24020001 	li	v0,1
    41dc:	3c010001 	lui	at,0x1
    41e0:	00370821 	addu	at,at,s7
    41e4:	a02283e0 	sb	v0,-31776(at)
    41e8:	240b0400 	li	t3,1024
    41ec:	24080014 	li	t0,20
    41f0:	240a0040 	li	t2,64
    41f4:	24090001 	li	t1,1
    41f8:	8f830100 	lw	v1,256(gp)
    41fc:	27623000 	addiu	v0,k1,12288
    4200:	24660020 	addiu	a2,v1,32
    4204:	00c2102b 	sltu	v0,a2,v0
    4208:	50400001 	beqzl	v0,0x4210
    420c:	27662800 	addiu	a2,k1,10240
    4210:	8f820108 	lw	v0,264(gp)
    4214:	10c20004 	beq	a2,v0,0x4228
    4218:	00000000 	nop
    421c:	8f820104 	lw	v0,260(gp)
    4220:	14c20007 	bne	a2,v0,0x4240
    4224:	26e20030 	addiu	v0,s7,48
    4228:	8ee201a8 	lw	v0,424(s7)
    422c:	00003821 	move	a3,zero
    4230:	24420001 	addiu	v0,v0,1
    4234:	aee201a8 	sw	v0,424(s7)
    4238:	080020a8 	j	0x82a0
    423c:	8ee201a8 	lw	v0,424(s7)
    4240:	8ee404b8 	lw	a0,1208(s7)
    4244:	8ee504bc 	lw	a1,1212(s7)
    4248:	ac620008 	sw	v0,8(v1)
    424c:	a46b000e 	sh	t3,14(v1)
    4250:	ac680018 	sw	t0,24(v1)
    4254:	ac60001c 	sw	zero,28(v1)
    4258:	ac640000 	sw	a0,0(v1)
    425c:	ac650004 	sw	a1,4(v1)
    4260:	8ee204cc 	lw	v0,1228(s7)
    4264:	ac620010 	sw	v0,16(v1)
    4268:	af860100 	sw	a2,256(gp)
    426c:	92e204ec 	lbu	v0,1260(s7)
    4270:	1440000e 	bnez	v0,0x42ac
    4274:	24070001 	li	a3,1
    4278:	8ee24e28 	lw	v0,20008(s7)
    427c:	24420001 	addiu	v0,v0,1
    4280:	504a0003 	beql	v0,t2,0x4290
    4284:	00001021 	move	v0,zero
    4288:	8ee24e28 	lw	v0,20008(s7)
    428c:	24420001 	addiu	v0,v0,1
    4290:	aee24e28 	sw	v0,20008(s7)
    4294:	8ee24e28 	lw	v0,20008(s7)
    4298:	000210c0 	sll	v0,v0,0x3
    429c:	24424e38 	addiu	v0,v0,20024
    42a0:	02e21021 	addu	v0,s7,v0
    42a4:	ac480000 	sw	t0,0(v0)
    42a8:	ac490004 	sw	t1,4(v0)
    42ac:	10e0ffd2 	beqz	a3,0x41f8
    42b0:	00000000 	nop
    42b4:	080022e8 	j	0x8ba0
    42b8:	00000000 	nop
    42bc:	3c020900 	lui	v0,0x900
    42c0:	aee05238 	sw	zero,21048(s7)
    42c4:	aee0523c 	sw	zero,21052(s7)
    42c8:	aee05240 	sw	zero,21056(s7)
    42cc:	aee05244 	sw	zero,21060(s7)
    42d0:	aee001d0 	sw	zero,464(s7)
    42d4:	3c010001 	lui	at,0x1
    42d8:	00370821 	addu	at,at,s7
    42dc:	a02083b1 	sb	zero,-31823(at)
    42e0:	afa20018 	sw	v0,24(sp)
    42e4:	8ee20608 	lw	v0,1544(s7)
    42e8:	8f430228 	lw	v1,552(k0)
    42ec:	24420001 	addiu	v0,v0,1
    42f0:	304a00ff 	andi	t2,v0,0xff
    42f4:	514300fd 	beql	t2,v1,0x46ec
    42f8:	afa00010 	sw	zero,16(sp)
    42fc:	8ee20608 	lw	v0,1544(s7)
    4300:	000210c0 	sll	v0,v0,0x3
    4304:	00571021 	addu	v0,v0,s7
    4308:	8fa30018 	lw	v1,24(sp)
    430c:	8fa4001c 	lw	a0,28(sp)
    4310:	ac43060c 	sw	v1,1548(v0)
    4314:	ac440610 	sw	a0,1552(v0)
    4318:	8f830054 	lw	v1,84(gp)
    431c:	8f820054 	lw	v0,84(gp)
    4320:	24690032 	addiu	t1,v1,50
    4324:	01221023 	subu	v0,t1,v0
    4328:	2c420033 	sltiu	v0,v0,51
    432c:	1040006a 	beqz	v0,0x44d8
    4330:	00005821 	move	t3,zero
    4334:	24100008 	li	s0,8
    4338:	240f000d 	li	t7,13
    433c:	240d0007 	li	t5,7
    4340:	240c0040 	li	t4,64
    4344:	240e0001 	li	t6,1
    4348:	8f870120 	lw	a3,288(gp)
    434c:	27623800 	addiu	v0,k1,14336
    4350:	24e80020 	addiu	t0,a3,32
    4354:	0102102b 	sltu	v0,t0,v0
    4358:	50400001 	beqzl	v0,0x4360
    435c:	27683000 	addiu	t0,k1,12288
    4360:	8f820128 	lw	v0,296(gp)
    4364:	11020004 	beq	t0,v0,0x4378
    4368:	00000000 	nop
    436c:	8f820124 	lw	v0,292(gp)
    4370:	15020007 	bne	t0,v0,0x4390
    4374:	00001021 	move	v0,zero
    4378:	8ee201a4 	lw	v0,420(s7)
    437c:	00003821 	move	a3,zero
    4380:	24420001 	addiu	v0,v0,1
    4384:	aee201a4 	sw	v0,420(s7)
    4388:	0800212c 	j	0x84b0
    438c:	8ee201a4 	lw	v0,420(s7)
    4390:	8ee40608 	lw	a0,1544(s7)
    4394:	000420c0 	sll	a0,a0,0x3
    4398:	00801821 	move	v1,a0
    439c:	8ee40430 	lw	a0,1072(s7)
    43a0:	8ee50434 	lw	a1,1076(s7)
    43a4:	00a32821 	addu	a1,a1,v1
    43a8:	00a3302b 	sltu	a2,a1,v1
    43ac:	00822021 	addu	a0,a0,v0
    43b0:	00862021 	addu	a0,a0,a2
    43b4:	ace40000 	sw	a0,0(a3)
    43b8:	ace50004 	sw	a1,4(a3)
    43bc:	8ee20608 	lw	v0,1544(s7)
    43c0:	a4f0000e 	sh	s0,14(a3)
    43c4:	acef0018 	sw	t7,24(a3)
    43c8:	acea001c 	sw	t2,28(a3)
    43cc:	000210c0 	sll	v0,v0,0x3
    43d0:	2442060c 	addiu	v0,v0,1548
    43d4:	02e21021 	addu	v0,s7,v0
    43d8:	ace20008 	sw	v0,8(a3)
    43dc:	8ee204c4 	lw	v0,1220(s7)
    43e0:	ace20010 	sw	v0,16(a3)
    43e4:	af880120 	sw	t0,288(gp)
    43e8:	92e24e20 	lbu	v0,20000(s7)
    43ec:	14400033 	bnez	v0,0x44bc
    43f0:	24070001 	li	a3,1
    43f4:	8ee24e30 	lw	v0,20016(s7)
    43f8:	000210c0 	sll	v0,v0,0x3
    43fc:	24425038 	addiu	v0,v0,20536
    4400:	02e22021 	addu	a0,s7,v0
    4404:	8c820000 	lw	v0,0(a0)
    4408:	144d001f 	bne	v0,t5,0x4488
    440c:	00000000 	nop
    4410:	8ee34e30 	lw	v1,20016(s7)
    4414:	8ee24e34 	lw	v0,20020(s7)
    4418:	1062001b 	beq	v1,v0,0x4488
    441c:	00000000 	nop
    4420:	8c820004 	lw	v0,4(a0)
    4424:	24420001 	addiu	v0,v0,1
    4428:	ac820004 	sw	v0,4(a0)
    442c:	8ee24e34 	lw	v0,20020(s7)
    4430:	8ee34e30 	lw	v1,20016(s7)
    4434:	24420001 	addiu	v0,v0,1
    4438:	104c0007 	beq	v0,t4,0x4458
    443c:	00000000 	nop
    4440:	8ee24e34 	lw	v0,20020(s7)
    4444:	24420001 	addiu	v0,v0,1
    4448:	10620005 	beq	v1,v0,0x4460
    444c:	00000000 	nop
    4450:	08002119 	j	0x8464
    4454:	00000000 	nop
    4458:	14600005 	bnez	v1,0x4470
    445c:	00000000 	nop
    4460:	8f820128 	lw	v0,296(gp)
    4464:	24420020 	addiu	v0,v0,32
    4468:	af820128 	sw	v0,296(gp)
    446c:	8f820128 	lw	v0,296(gp)
    4470:	8c820004 	lw	v0,4(a0)
    4474:	2c420011 	sltiu	v0,v0,17
    4478:	50400010 	beqzl	v0,0x44bc
    447c:	ac800000 	sw	zero,0(a0)
    4480:	0800212c 	j	0x84b0
    4484:	00000000 	nop
    4488:	8ee24e30 	lw	v0,20016(s7)
    448c:	24420001 	addiu	v0,v0,1
    4490:	504c0003 	beql	v0,t4,0x44a0
    4494:	00001021 	move	v0,zero
    4498:	8ee24e30 	lw	v0,20016(s7)
    449c:	24420001 	addiu	v0,v0,1
    44a0:	aee24e30 	sw	v0,20016(s7)
    44a4:	8ee24e30 	lw	v0,20016(s7)
    44a8:	000210c0 	sll	v0,v0,0x3
    44ac:	24425038 	addiu	v0,v0,20536
    44b0:	02e22021 	addu	a0,s7,v0
    44b4:	ac8d0000 	sw	t5,0(a0)
    44b8:	ac8e0004 	sw	t6,4(a0)
    44bc:	54e00006 	bnezl	a3,0x44d8
    44c0:	240b0001 	li	t3,1
    44c4:	8f820054 	lw	v0,84(gp)
    44c8:	01221023 	subu	v0,t1,v0
    44cc:	2c420033 	sltiu	v0,v0,51
    44d0:	1440ff9d 	bnez	v0,0x4348
    44d4:	00000000 	nop
    44d8:	316300ff 	andi	v1,t3,0xff
    44dc:	24020001 	li	v0,1
    44e0:	54620078 	bnel	v1,v0,0x46c4
    44e4:	afa00010 	sw	zero,16(sp)
    44e8:	aeea0608 	sw	t2,1544(s7)
    44ec:	8f830054 	lw	v1,84(gp)
    44f0:	8f820054 	lw	v0,84(gp)
    44f4:	24690032 	addiu	t1,v1,50
    44f8:	01221023 	subu	v0,t1,v0
    44fc:	2c420033 	sltiu	v0,v0,51
    4500:	10400061 	beqz	v0,0x4688
    4504:	00005821 	move	t3,zero
    4508:	240e0008 	li	t6,8
    450c:	240d0011 	li	t5,17
    4510:	240a0012 	li	t2,18
    4514:	24080040 	li	t0,64
    4518:	240c0001 	li	t4,1
    451c:	8f830120 	lw	v1,288(gp)
    4520:	27623800 	addiu	v0,k1,14336
    4524:	24660020 	addiu	a2,v1,32
    4528:	00c2102b 	sltu	v0,a2,v0
    452c:	50400001 	beqzl	v0,0x4534
    4530:	27663000 	addiu	a2,k1,12288
    4534:	8f820128 	lw	v0,296(gp)
    4538:	10c20004 	beq	a2,v0,0x454c
    453c:	00000000 	nop
    4540:	8f820124 	lw	v0,292(gp)
    4544:	14c20007 	bne	a2,v0,0x4564
    4548:	00000000 	nop
    454c:	8ee201a4 	lw	v0,420(s7)
    4550:	00003821 	move	a3,zero
    4554:	24420001 	addiu	v0,v0,1
    4558:	aee201a4 	sw	v0,420(s7)
    455c:	08002198 	j	0x8660
    4560:	8ee201a4 	lw	v0,420(s7)
    4564:	8ee20608 	lw	v0,1544(s7)
    4568:	ac62001c 	sw	v0,28(v1)
    456c:	8ee404a0 	lw	a0,1184(s7)
    4570:	8ee504a4 	lw	a1,1188(s7)
    4574:	2462001c 	addiu	v0,v1,28
    4578:	ac620008 	sw	v0,8(v1)
    457c:	a46e000e 	sh	t6,14(v1)
    4580:	ac6d0018 	sw	t5,24(v1)
    4584:	ac640000 	sw	a0,0(v1)
    4588:	ac650004 	sw	a1,4(v1)
    458c:	8ee204c4 	lw	v0,1220(s7)
    4590:	ac620010 	sw	v0,16(v1)
    4594:	af860120 	sw	a2,288(gp)
    4598:	92e24e20 	lbu	v0,20000(s7)
    459c:	14400033 	bnez	v0,0x466c
    45a0:	24070001 	li	a3,1
    45a4:	8ee24e30 	lw	v0,20016(s7)
    45a8:	000210c0 	sll	v0,v0,0x3
    45ac:	24425038 	addiu	v0,v0,20536
    45b0:	02e22021 	addu	a0,s7,v0
    45b4:	8c820000 	lw	v0,0(a0)
    45b8:	144a001f 	bne	v0,t2,0x4638
    45bc:	00000000 	nop
    45c0:	8ee34e30 	lw	v1,20016(s7)
    45c4:	8ee24e34 	lw	v0,20020(s7)
    45c8:	1062001b 	beq	v1,v0,0x4638
    45cc:	00000000 	nop
    45d0:	8c820004 	lw	v0,4(a0)
    45d4:	24420001 	addiu	v0,v0,1
    45d8:	ac820004 	sw	v0,4(a0)
    45dc:	8ee24e34 	lw	v0,20020(s7)
    45e0:	8ee34e30 	lw	v1,20016(s7)
    45e4:	24420001 	addiu	v0,v0,1
    45e8:	10480007 	beq	v0,t0,0x4608
    45ec:	00000000 	nop
    45f0:	8ee24e34 	lw	v0,20020(s7)
    45f4:	24420001 	addiu	v0,v0,1
    45f8:	10620005 	beq	v1,v0,0x4610
    45fc:	00000000 	nop
    4600:	08002185 	j	0x8614
    4604:	00000000 	nop
    4608:	14600005 	bnez	v1,0x4620
    460c:	00000000 	nop
    4610:	8f820128 	lw	v0,296(gp)
    4614:	24420020 	addiu	v0,v0,32
    4618:	af820128 	sw	v0,296(gp)
    461c:	8f820128 	lw	v0,296(gp)
    4620:	8c820004 	lw	v0,4(a0)
    4624:	2c420011 	sltiu	v0,v0,17
    4628:	50400010 	beqzl	v0,0x466c
    462c:	ac800000 	sw	zero,0(a0)
    4630:	08002198 	j	0x8660
    4634:	00000000 	nop
    4638:	8ee24e30 	lw	v0,20016(s7)
    463c:	24420001 	addiu	v0,v0,1
    4640:	50480003 	beql	v0,t0,0x4650
    4644:	00001021 	move	v0,zero
    4648:	8ee24e30 	lw	v0,20016(s7)
    464c:	24420001 	addiu	v0,v0,1
    4650:	aee24e30 	sw	v0,20016(s7)
    4654:	8ee24e30 	lw	v0,20016(s7)
    4658:	000210c0 	sll	v0,v0,0x3
    465c:	24425038 	addiu	v0,v0,20536
    4660:	02e22021 	addu	a0,s7,v0
    4664:	ac8a0000 	sw	t2,0(a0)
    4668:	ac8c0004 	sw	t4,4(a0)
    466c:	54e00006 	bnezl	a3,0x4688
    4670:	240b0001 	li	t3,1
    4674:	8f820054 	lw	v0,84(gp)
    4678:	01221023 	subu	v0,t1,v0
    467c:	2c420033 	sltiu	v0,v0,51
    4680:	1440ffa6 	bnez	v0,0x451c
    4684:	00000000 	nop
    4688:	316300ff 	andi	v1,t3,0xff
    468c:	24020001 	li	v0,1
    4690:	10620022 	beq	v1,v0,0x471c
    4694:	00000000 	nop
    4698:	3c040001 	lui	a0,0x1
    469c:	24845390 	addiu	a0,a0,21392
    46a0:	afa00010 	sw	zero,16(sp)
    46a4:	afa00014 	sw	zero,20(sp)
    46a8:	8f860120 	lw	a2,288(gp)
    46ac:	8f870124 	lw	a3,292(gp)
    46b0:	3c050009 	lui	a1,0x9
    46b4:	0c002403 	jal	0x900c
    46b8:	34a5f011 	ori	a1,a1,0xf011
    46bc:	080021c4 	j	0x8710
    46c0:	00000000 	nop
    46c4:	3c040001 	lui	a0,0x1
    46c8:	2484539c 	addiu	a0,a0,21404
    46cc:	afa00014 	sw	zero,20(sp)
    46d0:	8f860120 	lw	a2,288(gp)
    46d4:	8f870124 	lw	a3,292(gp)
    46d8:	3c050009 	lui	a1,0x9
    46dc:	0c002403 	jal	0x900c
    46e0:	34a5f010 	ori	a1,a1,0xf010
    46e4:	080021c4 	j	0x8710
    46e8:	00000000 	nop
    46ec:	3c040001 	lui	a0,0x1
    46f0:	248453a8 	addiu	a0,a0,21416
    46f4:	afa00014 	sw	zero,20(sp)
    46f8:	8ee60608 	lw	a2,1544(s7)
    46fc:	8f470228 	lw	a3,552(k0)
    4700:	3c050009 	lui	a1,0x9
    4704:	0c002403 	jal	0x900c
    4708:	34a5f00f 	ori	a1,a1,0xf00f
    470c:	8ee201ac 	lw	v0,428(s7)
    4710:	24420001 	addiu	v0,v0,1
    4714:	aee201ac 	sw	v0,428(s7)
    4718:	8ee201ac 	lw	v0,428(s7)
    471c:	8ee20120 	lw	v0,288(s7)
    4720:	24420001 	addiu	v0,v0,1
    4724:	aee20120 	sw	v0,288(s7)
    4728:	8ee20120 	lw	v0,288(s7)
    472c:	8ee20168 	lw	v0,360(s7)
    4730:	24420001 	addiu	v0,v0,1
    4734:	aee20168 	sw	v0,360(s7)
    4738:	080022e8 	j	0x8ba0
    473c:	8ee20168 	lw	v0,360(s7)
    4740:	8f42025c 	lw	v0,604(k0)
    4744:	26e40094 	addiu	a0,s7,148
    4748:	aee20060 	sw	v0,96(s7)
    474c:	8f420260 	lw	v0,608(k0)
    4750:	27450200 	addiu	a1,k0,512
    4754:	24060008 	li	a2,8
    4758:	0c00249a 	jal	0x9268
    475c:	aee20068 	sw	v0,104(s7)
    4760:	8f820220 	lw	v0,544(gp)
    4764:	30420008 	andi	v0,v0,0x8
    4768:	14400002 	bnez	v0,0x4774
    476c:	24020001 	li	v0,1
    4770:	24020002 	li	v0,2
    4774:	aee20108 	sw	v0,264(s7)
    4778:	8ee2011c 	lw	v0,284(s7)
    477c:	24420001 	addiu	v0,v0,1
    4780:	aee2011c 	sw	v0,284(s7)
    4784:	080022e8 	j	0x8ba0
    4788:	8ee2011c 	lw	v0,284(s7)
    478c:	3c040001 	lui	a0,0x1
    4790:	248453ec 	addiu	a0,a0,21484
    4794:	afa00010 	sw	zero,16(sp)
    4798:	afa00014 	sw	zero,20(sp)
    479c:	8fa60020 	lw	a2,32(sp)
    47a0:	3c050003 	lui	a1,0x3
    47a4:	0c002403 	jal	0x900c
    47a8:	34a5f00f 	ori	a1,a1,0xf00f
    47ac:	93a20020 	lbu	v0,32(sp)
    47b0:	3c030700 	lui	v1,0x700
    47b4:	34631000 	ori	v1,v1,0x1000
    47b8:	00431025 	or	v0,v0,v1
    47bc:	afa20018 	sw	v0,24(sp)
    47c0:	8ee20608 	lw	v0,1544(s7)
    47c4:	8f430228 	lw	v1,552(k0)
    47c8:	24420001 	addiu	v0,v0,1
    47cc:	304900ff 	andi	t1,v0,0xff
    47d0:	512300e2 	beql	t1,v1,0x4b5c
    47d4:	afa00010 	sw	zero,16(sp)
    47d8:	8ee20608 	lw	v0,1544(s7)
    47dc:	000210c0 	sll	v0,v0,0x3
    47e0:	00571021 	addu	v0,v0,s7
    47e4:	8fa30018 	lw	v1,24(sp)
    47e8:	8fa4001c 	lw	a0,28(sp)
    47ec:	ac43060c 	sw	v1,1548(v0)
    47f0:	ac440610 	sw	a0,1552(v0)
    47f4:	8f870120 	lw	a3,288(gp)
    47f8:	27623800 	addiu	v0,k1,14336
    47fc:	24e80020 	addiu	t0,a3,32
    4800:	0102102b 	sltu	v0,t0,v0
    4804:	50400001 	beqzl	v0,0x480c
    4808:	27683000 	addiu	t0,k1,12288
    480c:	8f820128 	lw	v0,296(gp)
    4810:	11020004 	beq	t0,v0,0x4824
    4814:	00000000 	nop
    4818:	8f820124 	lw	v0,292(gp)
    481c:	15020007 	bne	t0,v0,0x483c
    4820:	00001021 	move	v0,zero
    4824:	8ee201a4 	lw	v0,420(s7)
    4828:	00003821 	move	a3,zero
    482c:	24420001 	addiu	v0,v0,1
    4830:	aee201a4 	sw	v0,420(s7)
    4834:	0800225d 	j	0x8974
    4838:	8ee201a4 	lw	v0,420(s7)
    483c:	8ee40608 	lw	a0,1544(s7)
    4840:	000420c0 	sll	a0,a0,0x3
    4844:	00801821 	move	v1,a0
    4848:	8ee40430 	lw	a0,1072(s7)
    484c:	8ee50434 	lw	a1,1076(s7)
    4850:	00a32821 	addu	a1,a1,v1
    4854:	00a3302b 	sltu	a2,a1,v1
    4858:	00822021 	addu	a0,a0,v0
    485c:	00862021 	addu	a0,a0,a2
    4860:	ace40000 	sw	a0,0(a3)
    4864:	ace50004 	sw	a1,4(a3)
    4868:	8ee30608 	lw	v1,1544(s7)
    486c:	24020008 	li	v0,8
    4870:	a4e2000e 	sh	v0,14(a3)
    4874:	2402000d 	li	v0,13
    4878:	ace20018 	sw	v0,24(a3)
    487c:	ace9001c 	sw	t1,28(a3)
    4880:	000318c0 	sll	v1,v1,0x3
    4884:	2463060c 	addiu	v1,v1,1548
    4888:	02e31021 	addu	v0,s7,v1
    488c:	ace20008 	sw	v0,8(a3)
    4890:	8ee204c4 	lw	v0,1220(s7)
    4894:	ace20010 	sw	v0,16(a3)
    4898:	af880120 	sw	t0,288(gp)
    489c:	92e24e20 	lbu	v0,20000(s7)
    48a0:	14400037 	bnez	v0,0x4980
    48a4:	24070001 	li	a3,1
    48a8:	8ee24e30 	lw	v0,20016(s7)
    48ac:	000210c0 	sll	v0,v0,0x3
    48b0:	24425038 	addiu	v0,v0,20536
    48b4:	02e22021 	addu	a0,s7,v0
    48b8:	8c830000 	lw	v1,0(a0)
    48bc:	24020007 	li	v0,7
    48c0:	1462001f 	bne	v1,v0,0x4940
    48c4:	00000000 	nop
    48c8:	8ee34e30 	lw	v1,20016(s7)
    48cc:	8ee24e34 	lw	v0,20020(s7)
    48d0:	1062001b 	beq	v1,v0,0x4940
    48d4:	24030040 	li	v1,64
    48d8:	8c820004 	lw	v0,4(a0)
    48dc:	24420001 	addiu	v0,v0,1
    48e0:	ac820004 	sw	v0,4(a0)
    48e4:	8ee24e34 	lw	v0,20020(s7)
    48e8:	8ee54e30 	lw	a1,20016(s7)
    48ec:	24420001 	addiu	v0,v0,1
    48f0:	10430007 	beq	v0,v1,0x4910
    48f4:	00000000 	nop
    48f8:	8ee24e34 	lw	v0,20020(s7)
    48fc:	24420001 	addiu	v0,v0,1
    4900:	10a20005 	beq	a1,v0,0x4918
    4904:	00000000 	nop
    4908:	08002247 	j	0x891c
    490c:	00000000 	nop
    4910:	14a00005 	bnez	a1,0x4928
    4914:	00000000 	nop
    4918:	8f820128 	lw	v0,296(gp)
    491c:	24420020 	addiu	v0,v0,32
    4920:	af820128 	sw	v0,296(gp)
    4924:	8f820128 	lw	v0,296(gp)
    4928:	8c820004 	lw	v0,4(a0)
    492c:	2c420011 	sltiu	v0,v0,17
    4930:	50400013 	beqzl	v0,0x4980
    4934:	ac800000 	sw	zero,0(a0)
    4938:	0800225d 	j	0x8974
    493c:	00000000 	nop
    4940:	8ee24e30 	lw	v0,20016(s7)
    4944:	24030040 	li	v1,64
    4948:	24420001 	addiu	v0,v0,1
    494c:	50430003 	beql	v0,v1,0x495c
    4950:	00001021 	move	v0,zero
    4954:	8ee24e30 	lw	v0,20016(s7)
    4958:	24420001 	addiu	v0,v0,1
    495c:	aee24e30 	sw	v0,20016(s7)
    4960:	8ee24e30 	lw	v0,20016(s7)
    4964:	000210c0 	sll	v0,v0,0x3
    4968:	24425038 	addiu	v0,v0,20536
    496c:	02e22021 	addu	a0,s7,v0
    4970:	24020007 	li	v0,7
    4974:	ac820000 	sw	v0,0(a0)
    4978:	24020001 	li	v0,1
    497c:	ac820004 	sw	v0,4(a0)
    4980:	54e0000c 	bnezl	a3,0x49b4
    4984:	aee90608 	sw	t1,1544(s7)
    4988:	3c040001 	lui	a0,0x1
    498c:	248453f4 	addiu	a0,a0,21492
    4990:	afa00010 	sw	zero,16(sp)
    4994:	afa00014 	sw	zero,20(sp)
    4998:	8ee60608 	lw	a2,1544(s7)
    499c:	8f470228 	lw	a3,552(k0)
    49a0:	3c050009 	lui	a1,0x9
    49a4:	0c002403 	jal	0x900c
    49a8:	34a5f000 	ori	a1,a1,0xf000
    49ac:	080022e0 	j	0x8b80
    49b0:	00000000 	nop
    49b4:	8f830120 	lw	v1,288(gp)
    49b8:	27623800 	addiu	v0,k1,14336
    49bc:	24660020 	addiu	a2,v1,32
    49c0:	00c2102b 	sltu	v0,a2,v0
    49c4:	50400001 	beqzl	v0,0x49cc
    49c8:	27663000 	addiu	a2,k1,12288
    49cc:	8f820128 	lw	v0,296(gp)
    49d0:	10c20004 	beq	a2,v0,0x49e4
    49d4:	00000000 	nop
    49d8:	8f820124 	lw	v0,292(gp)
    49dc:	14c20007 	bne	a2,v0,0x49fc
    49e0:	00000000 	nop
    49e4:	8ee201a4 	lw	v0,420(s7)
    49e8:	00003821 	move	a3,zero
    49ec:	24420001 	addiu	v0,v0,1
    49f0:	aee201a4 	sw	v0,420(s7)
    49f4:	080022c4 	j	0x8b10
    49f8:	8ee201a4 	lw	v0,420(s7)
    49fc:	8ee20608 	lw	v0,1544(s7)
    4a00:	ac62001c 	sw	v0,28(v1)
    4a04:	8ee404a0 	lw	a0,1184(s7)
    4a08:	8ee504a4 	lw	a1,1188(s7)
    4a0c:	2462001c 	addiu	v0,v1,28
    4a10:	ac620008 	sw	v0,8(v1)
    4a14:	24020008 	li	v0,8
    4a18:	a462000e 	sh	v0,14(v1)
    4a1c:	24020011 	li	v0,17
    4a20:	ac620018 	sw	v0,24(v1)
    4a24:	ac640000 	sw	a0,0(v1)
    4a28:	ac650004 	sw	a1,4(v1)
    4a2c:	8ee204c4 	lw	v0,1220(s7)
    4a30:	ac620010 	sw	v0,16(v1)
    4a34:	af860120 	sw	a2,288(gp)
    4a38:	92e24e20 	lbu	v0,20000(s7)
    4a3c:	14400037 	bnez	v0,0x4b1c
    4a40:	24070001 	li	a3,1
    4a44:	8ee24e30 	lw	v0,20016(s7)
    4a48:	000210c0 	sll	v0,v0,0x3
    4a4c:	24425038 	addiu	v0,v0,20536
    4a50:	02e22021 	addu	a0,s7,v0
    4a54:	8c830000 	lw	v1,0(a0)
    4a58:	24020012 	li	v0,18
    4a5c:	1462001f 	bne	v1,v0,0x4adc
    4a60:	00000000 	nop
    4a64:	8ee34e30 	lw	v1,20016(s7)
    4a68:	8ee24e34 	lw	v0,20020(s7)
    4a6c:	1062001b 	beq	v1,v0,0x4adc
    4a70:	24030040 	li	v1,64
    4a74:	8c820004 	lw	v0,4(a0)
    4a78:	24420001 	addiu	v0,v0,1
    4a7c:	ac820004 	sw	v0,4(a0)
    4a80:	8ee24e34 	lw	v0,20020(s7)
    4a84:	8ee54e30 	lw	a1,20016(s7)
    4a88:	24420001 	addiu	v0,v0,1
    4a8c:	10430007 	beq	v0,v1,0x4aac
    4a90:	00000000 	nop
    4a94:	8ee24e34 	lw	v0,20020(s7)
    4a98:	24420001 	addiu	v0,v0,1
    4a9c:	10a20005 	beq	a1,v0,0x4ab4
    4aa0:	00000000 	nop
    4aa4:	080022ae 	j	0x8ab8
    4aa8:	00000000 	nop
    4aac:	14a00005 	bnez	a1,0x4ac4
    4ab0:	00000000 	nop
    4ab4:	8f820128 	lw	v0,296(gp)
    4ab8:	24420020 	addiu	v0,v0,32
    4abc:	af820128 	sw	v0,296(gp)
    4ac0:	8f820128 	lw	v0,296(gp)
    4ac4:	8c820004 	lw	v0,4(a0)
    4ac8:	2c420011 	sltiu	v0,v0,17
    4acc:	50400013 	beqzl	v0,0x4b1c
    4ad0:	ac800000 	sw	zero,0(a0)
    4ad4:	080022c4 	j	0x8b10
    4ad8:	00000000 	nop
    4adc:	8ee24e30 	lw	v0,20016(s7)
    4ae0:	24030040 	li	v1,64
    4ae4:	24420001 	addiu	v0,v0,1
    4ae8:	50430003 	beql	v0,v1,0x4af8
    4aec:	00001021 	move	v0,zero
    4af0:	8ee24e30 	lw	v0,20016(s7)
    4af4:	24420001 	addiu	v0,v0,1
    4af8:	aee24e30 	sw	v0,20016(s7)
    4afc:	8ee24e30 	lw	v0,20016(s7)
    4b00:	000210c0 	sll	v0,v0,0x3
    4b04:	24425038 	addiu	v0,v0,20536
    4b08:	02e22021 	addu	a0,s7,v0
    4b0c:	24020012 	li	v0,18
    4b10:	ac820000 	sw	v0,0(a0)
    4b14:	24020001 	li	v0,1
    4b18:	ac820004 	sw	v0,4(a0)
    4b1c:	14e0001b 	bnez	a3,0x4b8c
    4b20:	00000000 	nop
    4b24:	3c040001 	lui	a0,0x1
    4b28:	248453fc 	addiu	a0,a0,21500
    4b2c:	afa00010 	sw	zero,16(sp)
    4b30:	afa00014 	sw	zero,20(sp)
    4b34:	8ee60608 	lw	a2,1544(s7)
    4b38:	8f470228 	lw	a3,552(k0)
    4b3c:	3c050009 	lui	a1,0x9
    4b40:	0c002403 	jal	0x900c
    4b44:	34a5f001 	ori	a1,a1,0xf001
    4b48:	8ee201b0 	lw	v0,432(s7)
    4b4c:	24420001 	addiu	v0,v0,1
    4b50:	aee201b0 	sw	v0,432(s7)
    4b54:	080022e0 	j	0x8b80
    4b58:	8ee201b0 	lw	v0,432(s7)
    4b5c:	3c040001 	lui	a0,0x1
    4b60:	24845408 	addiu	a0,a0,21512
    4b64:	afa00014 	sw	zero,20(sp)
    4b68:	8ee60608 	lw	a2,1544(s7)
    4b6c:	8f470228 	lw	a3,552(k0)
    4b70:	3c050009 	lui	a1,0x9
    4b74:	0c002403 	jal	0x900c
    4b78:	34a5f005 	ori	a1,a1,0xf005
    4b7c:	8ee201ac 	lw	v0,428(s7)
    4b80:	24420001 	addiu	v0,v0,1
    4b84:	aee201ac 	sw	v0,428(s7)
    4b88:	8ee201ac 	lw	v0,428(s7)
    4b8c:	8ee20150 	lw	v0,336(s7)
    4b90:	24420001 	addiu	v0,v0,1
    4b94:	aee20150 	sw	v0,336(s7)
    4b98:	8ee20150 	lw	v0,336(s7)
    4b9c:	8ee20160 	lw	v0,352(s7)
    4ba0:	24420001 	addiu	v0,v0,1
    4ba4:	aee20160 	sw	v0,352(s7)
    4ba8:	8ee20160 	lw	v0,352(s7)
    4bac:	8f43022c 	lw	v1,556(k0)
    4bb0:	8f42010c 	lw	v0,268(k0)
    4bb4:	14620009 	bne	v1,v0,0x4bdc
    4bb8:	24020002 	li	v0,2
    4bbc:	af820064 	sw	v0,100(gp)
    4bc0:	8f820064 	lw	v0,100(gp)
    4bc4:	14400005 	bnez	v0,0x4bdc
    4bc8:	00000000 	nop
    4bcc:	8f43022c 	lw	v1,556(k0)
    4bd0:	8f42010c 	lw	v0,268(k0)
    4bd4:	1462f875 	bne	v1,v0,0x2dac
    4bd8:	00000000 	nop
    4bdc:	8fbf0044 	lw	ra,68(sp)
    4be0:	8fb60040 	lw	s6,64(sp)
    4be4:	8fb5003c 	lw	s5,60(sp)
    4be8:	8fb40038 	lw	s4,56(sp)
    4bec:	8fb30034 	lw	s3,52(sp)
    4bf0:	8fb20030 	lw	s2,48(sp)
    4bf4:	8fb1002c 	lw	s1,44(sp)
    4bf8:	8fb00028 	lw	s0,40(sp)
    4bfc:	03e00008 	jr	ra
    4c00:	27bd0048 	addiu	sp,sp,72
    4c04:	27bdfff8 	addiu	sp,sp,-8
    4c08:	2408ffff 	li	t0,-1
    4c0c:	10a00014 	beqz	a1,0x4c60
    4c10:	00004821 	move	t1,zero
    4c14:	3c0aedb8 	lui	t2,0xedb8
    4c18:	354a8320 	ori	t2,t2,0x8320
    4c1c:	90870000 	lbu	a3,0(a0)
    4c20:	24840001 	addiu	a0,a0,1
    4c24:	00003021 	move	a2,zero
    4c28:	01071026 	xor	v0,t0,a3
    4c2c:	30420001 	andi	v0,v0,0x1
    4c30:	10400002 	beqz	v0,0x4c3c
    4c34:	00081842 	srl	v1,t0,0x1
    4c38:	006a1826 	xor	v1,v1,t2
    4c3c:	00604021 	move	t0,v1
    4c40:	24c60001 	addiu	a2,a2,1
    4c44:	2cc20008 	sltiu	v0,a2,8
    4c48:	1440fff7 	bnez	v0,0x4c28
    4c4c:	00073842 	srl	a3,a3,0x1
    4c50:	25290001 	addiu	t1,t1,1
    4c54:	0125102b 	sltu	v0,t1,a1
    4c58:	1440fff0 	bnez	v0,0x4c1c
    4c5c:	00000000 	nop
    4c60:	01001021 	move	v0,t0
    4c64:	03e00008 	jr	ra
    4c68:	27bd0008 	addiu	sp,sp,8
    4c6c:	27bdffe8 	addiu	sp,sp,-24
    4c70:	27642800 	addiu	a0,k1,10240
    4c74:	afbf0010 	sw	ra,16(sp)
    4c78:	0c002488 	jal	0x9220
    4c7c:	24051000 	li	a1,4096
    4c80:	24020021 	li	v0,33
    4c84:	af800100 	sw	zero,256(gp)
    4c88:	af800104 	sw	zero,260(gp)
    4c8c:	af800108 	sw	zero,264(gp)
    4c90:	af800110 	sw	zero,272(gp)
    4c94:	af800114 	sw	zero,276(gp)
    4c98:	af800118 	sw	zero,280(gp)
    4c9c:	af800120 	sw	zero,288(gp)
    4ca0:	af800124 	sw	zero,292(gp)
    4ca4:	af800128 	sw	zero,296(gp)
    4ca8:	af800130 	sw	zero,304(gp)
    4cac:	af800134 	sw	zero,308(gp)
    4cb0:	af800138 	sw	zero,312(gp)
    4cb4:	aee04e28 	sw	zero,20008(s7)
    4cb8:	aee04e2c 	sw	zero,20012(s7)
    4cbc:	aee04e30 	sw	zero,20016(s7)
    4cc0:	aee04e34 	sw	zero,20020(s7)
    4cc4:	af82011c 	sw	v0,284(gp)
    4cc8:	8f420218 	lw	v0,536(k0)
    4ccc:	30420040 	andi	v0,v0,0x40
    4cd0:	10400004 	beqz	v0,0x4ce4
    4cd4:	00000000 	nop
    4cd8:	8f82011c 	lw	v0,284(gp)
    4cdc:	34420004 	ori	v0,v0,0x4
    4ce0:	af82011c 	sw	v0,284(gp)
    4ce4:	8fbf0010 	lw	ra,16(sp)
    4ce8:	03e00008 	jr	ra
    4cec:	27bd0018 	addiu	sp,sp,24
    4cf0:	27bdffe0 	addiu	sp,sp,-32
    4cf4:	afbf0018 	sw	ra,24(sp)
    4cf8:	8f820104 	lw	v0,260(gp)
    4cfc:	afa20010 	sw	v0,16(sp)
    4d00:	8f820100 	lw	v0,256(gp)
    4d04:	3c050002 	lui	a1,0x2
    4d08:	afa20014 	sw	v0,20(sp)
    4d0c:	8f8600b0 	lw	a2,176(gp)
    4d10:	8f87011c 	lw	a3,284(gp)
    4d14:	3c040001 	lui	a0,0x1
    4d18:	248454c0 	addiu	a0,a0,21696
    4d1c:	0c002403 	jal	0x900c
    4d20:	34a5f000 	ori	a1,a1,0xf000
    4d24:	8f8300b0 	lw	v1,176(gp)
    4d28:	3c027f00 	lui	v0,0x7f00
    4d2c:	00621824 	and	v1,v1,v0
    4d30:	3c020400 	lui	v0,0x400
    4d34:	10620029 	beq	v1,v0,0x4ddc
    4d38:	0043102b 	sltu	v0,v0,v1
    4d3c:	14400008 	bnez	v0,0x4d60
    4d40:	3c022000 	lui	v0,0x2000
    4d44:	3c020100 	lui	v0,0x100
    4d48:	10620024 	beq	v1,v0,0x4ddc
    4d4c:	3c020200 	lui	v0,0x200
    4d50:	10620011 	beq	v1,v0,0x4d98
    4d54:	00000000 	nop
    4d58:	08002374 	j	0x8dd0
    4d5c:	00000000 	nop
    4d60:	10620008 	beq	v1,v0,0x4d84
    4d64:	3c024000 	lui	v0,0x4000
    4d68:	1462001c 	bne	v1,v0,0x4ddc
    4d6c:	00000000 	nop
    4d70:	8ee20190 	lw	v0,400(s7)
    4d74:	24420001 	addiu	v0,v0,1
    4d78:	aee20190 	sw	v0,400(s7)
    4d7c:	08002374 	j	0x8dd0
    4d80:	8ee20190 	lw	v0,400(s7)
    4d84:	8ee2018c 	lw	v0,396(s7)
    4d88:	24420001 	addiu	v0,v0,1
    4d8c:	aee2018c 	sw	v0,396(s7)
    4d90:	08002374 	j	0x8dd0
    4d94:	8ee2018c 	lw	v0,396(s7)
    4d98:	8f82011c 	lw	v0,284(gp)
    4d9c:	34420002 	ori	v0,v0,0x2
    4da0:	af82011c 	sw	v0,284(gp)
    4da4:	8f830104 	lw	v1,260(gp)
    4da8:	8f8200b0 	lw	v0,176(gp)
    4dac:	34420001 	ori	v0,v0,0x1
    4db0:	af8200b0 	sw	v0,176(gp)
    4db4:	af830104 	sw	v1,260(gp)
    4db8:	8f82011c 	lw	v0,284(gp)
    4dbc:	2403fffd 	li	v1,-3
    4dc0:	00431024 	and	v0,v0,v1
    4dc4:	af82011c 	sw	v0,284(gp)
    4dc8:	8ee201a0 	lw	v0,416(s7)
    4dcc:	24420001 	addiu	v0,v0,1
    4dd0:	aee201a0 	sw	v0,416(s7)
    4dd4:	08002377 	j	0x8ddc
    4dd8:	8ee201a0 	lw	v0,416(s7)
    4ddc:	8f8200b0 	lw	v0,176(gp)
    4de0:	34420001 	ori	v0,v0,0x1
    4de4:	af8200b0 	sw	v0,176(gp)
    4de8:	8fbf0018 	lw	ra,24(sp)
    4dec:	03e00008 	jr	ra
    4df0:	27bd0020 	addiu	sp,sp,32
    4df4:	27bdffe0 	addiu	sp,sp,-32
    4df8:	afbf001c 	sw	ra,28(sp)
    4dfc:	afb00018 	sw	s0,24(sp)
    4e00:	8f820120 	lw	v0,288(gp)
    4e04:	afa20010 	sw	v0,16(sp)
    4e08:	8f820124 	lw	v0,292(gp)
    4e0c:	3c050001 	lui	a1,0x1
    4e10:	afa20014 	sw	v0,20(sp)
    4e14:	8f8600a0 	lw	a2,160(gp)
    4e18:	8f87011c 	lw	a3,284(gp)
    4e1c:	3c040001 	lui	a0,0x1
    4e20:	248454cc 	addiu	a0,a0,21708
    4e24:	0c002403 	jal	0x900c
    4e28:	34a5f000 	ori	a1,a1,0xf000
    4e2c:	8f8300a0 	lw	v1,160(gp)
    4e30:	3c027f00 	lui	v0,0x7f00
    4e34:	00621824 	and	v1,v1,v0
    4e38:	3c020400 	lui	v0,0x400
    4e3c:	10620053 	beq	v1,v0,0x4f8c
    4e40:	00008021 	move	s0,zero
    4e44:	0043102b 	sltu	v0,v0,v1
    4e48:	14400008 	bnez	v0,0x4e6c
    4e4c:	3c042000 	lui	a0,0x2000
    4e50:	3c020100 	lui	v0,0x100
    4e54:	1062004d 	beq	v1,v0,0x4f8c
    4e58:	3c020200 	lui	v0,0x200
    4e5c:	1062003a 	beq	v1,v0,0x4f48
    4e60:	00000000 	nop
    4e64:	080023e0 	j	0x8f80
    4e68:	00000000 	nop
    4e6c:	10640003 	beq	v1,a0,0x4e7c
    4e70:	3c024000 	lui	v0,0x4000
    4e74:	14620045 	bne	v1,v0,0x4f8c
    4e78:	00000000 	nop
    4e7c:	8f8200a0 	lw	v0,160(gp)
    4e80:	00441024 	and	v0,v0,a0
    4e84:	10400006 	beqz	v0,0x4ea0
    4e88:	00000000 	nop
    4e8c:	8ee20194 	lw	v0,404(s7)
    4e90:	24420001 	addiu	v0,v0,1
    4e94:	aee20194 	sw	v0,404(s7)
    4e98:	080023a9 	j	0x8ea4
    4e9c:	8ee20194 	lw	v0,404(s7)
    4ea0:	8ee20198 	lw	v0,408(s7)
    4ea4:	24420001 	addiu	v0,v0,1
    4ea8:	aee20198 	sw	v0,408(s7)
    4eac:	8ee20198 	lw	v0,408(s7)
    4eb0:	8f82011c 	lw	v0,284(gp)
    4eb4:	34420002 	ori	v0,v0,0x2
    4eb8:	af82011c 	sw	v0,284(gp)
    4ebc:	8f82011c 	lw	v0,284(gp)
    4ec0:	30420200 	andi	v0,v0,0x200
    4ec4:	1040001b 	beqz	v0,0x4f34
    4ec8:	00000000 	nop
    4ecc:	8f8300a0 	lw	v1,160(gp)
    4ed0:	8f840124 	lw	a0,292(gp)
    4ed4:	8f8200ac 	lw	v0,172(gp)
    4ed8:	14400007 	bnez	v0,0x4ef8
    4edc:	24020001 	li	v0,1
    4ee0:	3c020001 	lui	v0,0x1
    4ee4:	3442f000 	ori	v0,v0,0xf000
    4ee8:	00621024 	and	v0,v1,v0
    4eec:	50400001 	beqzl	v0,0x4ef4
    4ef0:	24100001 	li	s0,1
    4ef4:	24020001 	li	v0,1
    4ef8:	1200000d 	beqz	s0,0x4f30
    4efc:	af8200a0 	sw	v0,160(gp)
    4f00:	8f820124 	lw	v0,292(gp)
    4f04:	2442ffe0 	addiu	v0,v0,-32
    4f08:	af820124 	sw	v0,292(gp)
    4f0c:	8f820124 	lw	v0,292(gp)
    4f10:	8f820124 	lw	v0,292(gp)
    4f14:	27633000 	addiu	v1,k1,12288
    4f18:	0043102b 	sltu	v0,v0,v1
    4f1c:	10400005 	beqz	v0,0x4f34
    4f20:	276237e0 	addiu	v0,k1,14304
    4f24:	af820124 	sw	v0,292(gp)
    4f28:	080023ca 	j	0x8f28
    4f2c:	00000000 	nop
    4f30:	af840124 	sw	a0,292(gp)
    4f34:	8f82011c 	lw	v0,284(gp)
    4f38:	2403fffd 	li	v1,-3
    4f3c:	00431024 	and	v0,v0,v1
    4f40:	080023e3 	j	0x8f8c
    4f44:	af82011c 	sw	v0,284(gp)
    4f48:	8f82011c 	lw	v0,284(gp)
    4f4c:	34420002 	ori	v0,v0,0x2
    4f50:	af82011c 	sw	v0,284(gp)
    4f54:	8f830124 	lw	v1,292(gp)
    4f58:	8f8200a0 	lw	v0,160(gp)
    4f5c:	34420001 	ori	v0,v0,0x1
    4f60:	af8200a0 	sw	v0,160(gp)
    4f64:	af830124 	sw	v1,292(gp)
    4f68:	8f82011c 	lw	v0,284(gp)
    4f6c:	2403fffd 	li	v1,-3
    4f70:	00431024 	and	v0,v0,v1
    4f74:	af82011c 	sw	v0,284(gp)
    4f78:	8ee2019c 	lw	v0,412(s7)
    4f7c:	24420001 	addiu	v0,v0,1
    4f80:	aee2019c 	sw	v0,412(s7)
    4f84:	080023e3 	j	0x8f8c
    4f88:	8ee2019c 	lw	v0,412(s7)
    4f8c:	8f8200a0 	lw	v0,160(gp)
    4f90:	34420001 	ori	v0,v0,0x1
    4f94:	af8200a0 	sw	v0,160(gp)
    4f98:	8fbf001c 	lw	ra,28(sp)
    4f9c:	8fb00018 	lw	s0,24(sp)
    4fa0:	03e00008 	jr	ra
    4fa4:	27bd0020 	addiu	sp,sp,32
    4fa8:	00000000 	nop
    4fac:	3c020001 	lui	v0,0x1
    4fb0:	8c425c58 	lw	v0,23640(v0)
    4fb4:	27bdffe8 	addiu	sp,sp,-24
    4fb8:	afbf0014 	sw	ra,20(sp)
    4fbc:	14400012 	bnez	v0,0x5008
    4fc0:	afb00010 	sw	s0,16(sp)
    4fc4:	3c100001 	lui	s0,0x1
    4fc8:	26105dd0 	addiu	s0,s0,24016
    4fcc:	02002021 	move	a0,s0
    4fd0:	0c002488 	jal	0x9220
    4fd4:	24052000 	li	a1,8192
    4fd8:	26021fe0 	addiu	v0,s0,8160
    4fdc:	3c010001 	lui	at,0x1
    4fe0:	ac225d94 	sw	v0,23956(at)
    4fe4:	3c010001 	lui	at,0x1
    4fe8:	ac225d90 	sw	v0,23952(at)
    4fec:	af420250 	sw	v0,592(k0)
    4ff0:	24022000 	li	v0,8192
    4ff4:	af500254 	sw	s0,596(k0)
    4ff8:	af420258 	sw	v0,600(k0)
    4ffc:	24020001 	li	v0,1
    5000:	3c010001 	lui	at,0x1
    5004:	ac225c58 	sw	v0,23640(at)
    5008:	8fbf0014 	lw	ra,20(sp)
    500c:	8fb00010 	lw	s0,16(sp)
    5010:	03e00008 	jr	ra
    5014:	27bd0018 	addiu	sp,sp,24
    5018:	3c030001 	lui	v1,0x1
    501c:	8c635d94 	lw	v1,23956(v1)
    5020:	8c820000 	lw	v0,0(a0)
    5024:	8fa80010 	lw	t0,16(sp)
    5028:	8fa90014 	lw	t1,20(sp)
    502c:	ac620000 	sw	v0,0(v1)
    5030:	3c020001 	lui	v0,0x1
    5034:	8c425d94 	lw	v0,23956(v0)
    5038:	8c830004 	lw	v1,4(a0)
    503c:	ac430004 	sw	v1,4(v0)
    5040:	ac450008 	sw	a1,8(v0)
    5044:	8f840054 	lw	a0,84(gp)
    5048:	2443ffe0 	addiu	v1,v0,-32
    504c:	ac460010 	sw	a2,16(v0)
    5050:	ac470014 	sw	a3,20(v0)
    5054:	ac480018 	sw	t0,24(v0)
    5058:	ac49001c 	sw	t1,28(v0)
    505c:	3c010001 	lui	at,0x1
    5060:	ac235d94 	sw	v1,23956(at)
    5064:	ac44000c 	sw	a0,12(v0)
    5068:	3c020001 	lui	v0,0x1
    506c:	24425dd0 	addiu	v0,v0,24016
    5070:	0062182b 	sltu	v1,v1,v0
    5074:	10600005 	beqz	v1,0x508c
    5078:	00000000 	nop
    507c:	3c020001 	lui	v0,0x1
    5080:	8c425d90 	lw	v0,23952(v0)
    5084:	3c010001 	lui	at,0x1
    5088:	ac225d94 	sw	v0,23956(at)
    508c:	3c030001 	lui	v1,0x1
    5090:	8c635d94 	lw	v1,23956(v1)
    5094:	3c020001 	lui	v0,0x1
    5098:	8c425c40 	lw	v0,23616(v0)
    509c:	ac620000 	sw	v0,0(v1)
    50a0:	3c030001 	lui	v1,0x1
    50a4:	8c635d94 	lw	v1,23956(v1)
    50a8:	3c020001 	lui	v0,0x1
    50ac:	8c425c40 	lw	v0,23616(v0)
    50b0:	ac620004 	sw	v0,4(v1)
    50b4:	03e00008 	jr	ra
    50b8:	af430250 	sw	v1,592(k0)
    50bc:	3c030001 	lui	v1,0x1
    50c0:	8c635d94 	lw	v1,23956(v1)
    50c4:	3c020001 	lui	v0,0x1
    50c8:	8c425c40 	lw	v0,23616(v0)
    50cc:	27bdffd0 	addiu	sp,sp,-48
    50d0:	afb40020 	sw	s4,32(sp)
    50d4:	8fb40040 	lw	s4,64(sp)
    50d8:	afb00010 	sw	s0,16(sp)
    50dc:	00808021 	move	s0,a0
    50e0:	afb50024 	sw	s5,36(sp)
    50e4:	8fb50044 	lw	s5,68(sp)
    50e8:	8fa40048 	lw	a0,72(sp)
    50ec:	afb10014 	sw	s1,20(sp)
    50f0:	00a08821 	move	s1,a1
    50f4:	afbf0028 	sw	ra,40(sp)
    50f8:	afb3001c 	sw	s3,28(sp)
    50fc:	afb20018 	sw	s2,24(sp)
    5100:	ac620000 	sw	v0,0(v1)
    5104:	3c050001 	lui	a1,0x1
    5108:	8ca55d94 	lw	a1,23956(a1)
    510c:	3c020001 	lui	v0,0x1
    5110:	8c425c40 	lw	v0,23616(v0)
    5114:	00c09021 	move	s2,a2
    5118:	00e09821 	move	s3,a3
    511c:	10800006 	beqz	a0,0x5138
    5120:	aca20004 	sw	v0,4(a1)
    5124:	24a50008 	addiu	a1,a1,8
    5128:	0c002490 	jal	0x9240
    512c:	24060018 	li	a2,24
    5130:	0800244e 	j	0x9138
    5134:	00000000 	nop
    5138:	24a40008 	addiu	a0,a1,8
    513c:	0c002488 	jal	0x9220
    5140:	24050018 	li	a1,24
    5144:	3c020001 	lui	v0,0x1
    5148:	8c425d94 	lw	v0,23956(v0)
    514c:	3c050001 	lui	a1,0x1
    5150:	24a55dd0 	addiu	a1,a1,24016
    5154:	2442ffe0 	addiu	v0,v0,-32
    5158:	3c010001 	lui	at,0x1
    515c:	ac225d94 	sw	v0,23956(at)
    5160:	0045102b 	sltu	v0,v0,a1
    5164:	10400005 	beqz	v0,0x517c
    5168:	00000000 	nop
    516c:	3c020001 	lui	v0,0x1
    5170:	8c425d90 	lw	v0,23952(v0)
    5174:	3c010001 	lui	at,0x1
    5178:	ac225d94 	sw	v0,23956(at)
    517c:	3c030001 	lui	v1,0x1
    5180:	8c635d94 	lw	v1,23956(v1)
    5184:	8e020000 	lw	v0,0(s0)
    5188:	ac620000 	sw	v0,0(v1)
    518c:	3c030001 	lui	v1,0x1
    5190:	8c635d94 	lw	v1,23956(v1)
    5194:	8e020004 	lw	v0,4(s0)
    5198:	ac620004 	sw	v0,4(v1)
    519c:	ac710008 	sw	s1,8(v1)
    51a0:	8f840054 	lw	a0,84(gp)
    51a4:	2462ffe0 	addiu	v0,v1,-32
    51a8:	3c010001 	lui	at,0x1
    51ac:	ac225d94 	sw	v0,23956(at)
    51b0:	0045102b 	sltu	v0,v0,a1
    51b4:	ac720010 	sw	s2,16(v1)
    51b8:	ac730014 	sw	s3,20(v1)
    51bc:	ac740018 	sw	s4,24(v1)
    51c0:	ac75001c 	sw	s5,28(v1)
    51c4:	10400005 	beqz	v0,0x51dc
    51c8:	ac64000c 	sw	a0,12(v1)
    51cc:	3c020001 	lui	v0,0x1
    51d0:	8c425d90 	lw	v0,23952(v0)
    51d4:	3c010001 	lui	at,0x1
    51d8:	ac225d94 	sw	v0,23956(at)
    51dc:	3c030001 	lui	v1,0x1
    51e0:	8c635d94 	lw	v1,23956(v1)
    51e4:	3c020001 	lui	v0,0x1
    51e8:	8c425c40 	lw	v0,23616(v0)
    51ec:	ac620000 	sw	v0,0(v1)
    51f0:	3c030001 	lui	v1,0x1
    51f4:	8c635d94 	lw	v1,23956(v1)
    51f8:	3c020001 	lui	v0,0x1
    51fc:	8c425c40 	lw	v0,23616(v0)
    5200:	ac620004 	sw	v0,4(v1)
    5204:	af430250 	sw	v1,592(k0)
    5208:	8fbf0028 	lw	ra,40(sp)
    520c:	8fb50024 	lw	s5,36(sp)
    5210:	8fb40020 	lw	s4,32(sp)
    5214:	8fb3001c 	lw	s3,28(sp)
    5218:	8fb20018 	lw	s2,24(sp)
    521c:	8fb10014 	lw	s1,20(sp)
    5220:	8fb00010 	lw	s0,16(sp)
    5224:	03e00008 	jr	ra
    5228:	27bd0030 	addiu	sp,sp,48
    522c:	10a00005 	beqz	a1,0x5244
    5230:	00000000 	nop
    5234:	ac800000 	sw	zero,0(a0)
    5238:	24a5fffc 	addiu	a1,a1,-4
    523c:	14a0fffd 	bnez	a1,0x5234
    5240:	24840004 	addiu	a0,a0,4
    5244:	03e00008 	jr	ra
    5248:	00000000 	nop
    524c:	10c00007 	beqz	a2,0x526c
    5250:	00000000 	nop
    5254:	8c820000 	lw	v0,0(a0)
    5258:	24840004 	addiu	a0,a0,4
    525c:	24c6fffc 	addiu	a2,a2,-4
    5260:	aca20000 	sw	v0,0(a1)
    5264:	14c0fffb 	bnez	a2,0x5254
    5268:	24a50004 	addiu	a1,a1,4
    526c:	03e00008 	jr	ra
    5270:	00000000 	nop
    5274:	10c00007 	beqz	a2,0x5294
    5278:	00000000 	nop
    527c:	8ca20000 	lw	v0,0(a1)
    5280:	24a50004 	addiu	a1,a1,4
    5284:	24c6fffc 	addiu	a2,a2,-4
    5288:	ac820000 	sw	v0,0(a0)
    528c:	14c0fffb 	bnez	a2,0x527c
    5290:	24840004 	addiu	a0,a0,4
    5294:	03e00008 	jr	ra
    5298:	00000000 	nop
    529c:	03e00008 	jr	ra
    52a0:	00000000 	nop
    52a4:	27bdffd8 	addiu	sp,sp,-40
    52a8:	afbf0020 	sw	ra,32(sp)
    52ac:	8ee304e4 	lw	v1,1252(s7)
    52b0:	8ee204e0 	lw	v0,1248(s7)
    52b4:	10620436 	beq	v1,v0,0x6390
    52b8:	00000000 	nop
    52bc:	8ee204e4 	lw	v0,1252(s7)
    52c0:	8ee304fc 	lw	v1,1276(s7)
    52c4:	00021100 	sll	v0,v0,0x4
    52c8:	00626021 	addu	t4,v1,v0
    52cc:	95870008 	lhu	a3,8(t4)
    52d0:	8d8a0000 	lw	t2,0(t4)
    52d4:	8d8b0004 	lw	t3,4(t4)
    52d8:	958d000a 	lhu	t5,10(t4)
    52dc:	8ee2725c 	lw	v0,29276(s7)
    52e0:	8ee3726c 	lw	v1,29292(s7)
    52e4:	30e4ffff 	andi	a0,a3,0xffff
    52e8:	00441021 	addu	v0,v0,a0
    52ec:	0062182b 	sltu	v1,v1,v0
    52f0:	10600015 	beqz	v1,0x5348
    52f4:	31a20004 	andi	v0,t5,0x4
    52f8:	8f8200d8 	lw	v0,216(gp)
    52fc:	8ee37258 	lw	v1,29272(s7)
    5300:	00431023 	subu	v0,v0,v1
    5304:	aee2726c 	sw	v0,29292(s7)
    5308:	8ee2726c 	lw	v0,29292(s7)
    530c:	1c400003 	bgtz	v0,0x531c
    5310:	3c030001 	lui	v1,0x1
    5314:	00431021 	addu	v0,v0,v1
    5318:	aee2726c 	sw	v0,29292(s7)
    531c:	8ee2725c 	lw	v0,29276(s7)
    5320:	8ee3726c 	lw	v1,29292(s7)
    5324:	00441021 	addu	v0,v0,a0
    5328:	0062182b 	sltu	v1,v1,v0
    532c:	10600006 	beqz	v1,0x5348
    5330:	31a20004 	andi	v0,t5,0x4
    5334:	8ee201b8 	lw	v0,440(s7)
    5338:	24420001 	addiu	v0,v0,1
    533c:	aee201b8 	sw	v0,440(s7)
    5340:	080028e1 	j	0xa384
    5344:	8ee201b8 	lw	v0,440(s7)
    5348:	10400240 	beqz	v0,0x5c4c
    534c:	31a20200 	andi	v0,t5,0x200
    5350:	1040014d 	beqz	v0,0x5888
    5354:	00004821 	move	t1,zero
    5358:	96e2045a 	lhu	v0,1114(s7)
    535c:	30420010 	andi	v0,v0,0x10
    5360:	10400149 	beqz	v0,0x5888
    5364:	00000000 	nop
    5368:	8f840100 	lw	a0,256(gp)
    536c:	27623000 	addiu	v0,k1,12288
    5370:	24850020 	addiu	a1,a0,32
    5374:	00a2102b 	sltu	v0,a1,v0
    5378:	50400001 	beqzl	v0,0x5380
    537c:	27652800 	addiu	a1,k1,10240
    5380:	8f820108 	lw	v0,264(gp)
    5384:	10a20004 	beq	a1,v0,0x5398
    5388:	00000000 	nop
    538c:	8f820104 	lw	v0,260(gp)
    5390:	14a20006 	bne	a1,v0,0x53ac
    5394:	2402000c 	li	v0,12
    5398:	8ee201a8 	lw	v0,424(s7)
    539c:	24420001 	addiu	v0,v0,1
    53a0:	aee201a8 	sw	v0,424(s7)
    53a4:	0800252c 	j	0x94b0
    53a8:	8ee201a8 	lw	v0,424(s7)
    53ac:	ac8a0000 	sw	t2,0(a0)
    53b0:	ac8b0004 	sw	t3,4(a0)
    53b4:	8ee37264 	lw	v1,29284(s7)
    53b8:	24060005 	li	a2,5
    53bc:	a482000e 	sh	v0,14(a0)
    53c0:	ac860018 	sw	a2,24(a0)
    53c4:	ac830008 	sw	v1,8(a0)
    53c8:	8ee204e4 	lw	v0,1252(s7)
    53cc:	ac82001c 	sw	v0,28(a0)
    53d0:	8ee204c8 	lw	v0,1224(s7)
    53d4:	ac820010 	sw	v0,16(a0)
    53d8:	af850100 	sw	a1,256(gp)
    53dc:	92e204ec 	lbu	v0,1260(s7)
    53e0:	14400036 	bnez	v0,0x54bc
    53e4:	24090001 	li	t1,1
    53e8:	8ee24e28 	lw	v0,20008(s7)
    53ec:	000210c0 	sll	v0,v0,0x3
    53f0:	24424e38 	addiu	v0,v0,20024
    53f4:	02e22021 	addu	a0,s7,v0
    53f8:	8c820000 	lw	v0,0(a0)
    53fc:	1446001f 	bne	v0,a2,0x547c
    5400:	00000000 	nop
    5404:	8ee34e28 	lw	v1,20008(s7)
    5408:	8ee24e2c 	lw	v0,20012(s7)
    540c:	1062001b 	beq	v1,v0,0x547c
    5410:	24030040 	li	v1,64
    5414:	8c820004 	lw	v0,4(a0)
    5418:	24420001 	addiu	v0,v0,1
    541c:	ac820004 	sw	v0,4(a0)
    5420:	8ee24e2c 	lw	v0,20012(s7)
    5424:	8ee54e28 	lw	a1,20008(s7)
    5428:	24420001 	addiu	v0,v0,1
    542c:	10430007 	beq	v0,v1,0x544c
    5430:	00000000 	nop
    5434:	8ee24e2c 	lw	v0,20012(s7)
    5438:	24420001 	addiu	v0,v0,1
    543c:	10a20005 	beq	a1,v0,0x5454
    5440:	00000000 	nop
    5444:	08002516 	j	0x9458
    5448:	00000000 	nop
    544c:	14a00005 	bnez	a1,0x5464
    5450:	00000000 	nop
    5454:	8f820108 	lw	v0,264(gp)
    5458:	24420020 	addiu	v0,v0,32
    545c:	af820108 	sw	v0,264(gp)
    5460:	8f820108 	lw	v0,264(gp)
    5464:	8c820004 	lw	v0,4(a0)
    5468:	2c420011 	sltiu	v0,v0,17
    546c:	50400013 	beqzl	v0,0x54bc
    5470:	ac800000 	sw	zero,0(a0)
    5474:	0800252c 	j	0x94b0
    5478:	00000000 	nop
    547c:	8ee24e28 	lw	v0,20008(s7)
    5480:	24030040 	li	v1,64
    5484:	24420001 	addiu	v0,v0,1
    5488:	50430003 	beql	v0,v1,0x5498
    548c:	00001021 	move	v0,zero
    5490:	8ee24e28 	lw	v0,20008(s7)
    5494:	24420001 	addiu	v0,v0,1
    5498:	aee24e28 	sw	v0,20008(s7)
    549c:	8ee24e28 	lw	v0,20008(s7)
    54a0:	000210c0 	sll	v0,v0,0x3
    54a4:	24424e38 	addiu	v0,v0,20024
    54a8:	02e22021 	addu	a0,s7,v0
    54ac:	24020005 	li	v0,5
    54b0:	ac820000 	sw	v0,0(a0)
    54b4:	24020001 	li	v0,1
    54b8:	ac820004 	sw	v0,4(a0)
    54bc:	1520000a 	bnez	t1,0x54e8
    54c0:	3c040001 	lui	a0,0x1
    54c4:	afab0010 	sw	t3,16(sp)
    54c8:	8ee27264 	lw	v0,29284(s7)
    54cc:	3c040001 	lui	a0,0x1
    54d0:	24845730 	addiu	a0,a0,22320
    54d4:	3c050004 	lui	a1,0x4
    54d8:	afa20014 	sw	v0,20(sp)
    54dc:	8ee604e4 	lw	a2,1252(s7)
    54e0:	080028be 	j	0xa2f8
    54e4:	34a5f114 	ori	a1,a1,0xf114
    54e8:	8ee27264 	lw	v0,29284(s7)
    54ec:	34843800 	ori	a0,a0,0x3800
    54f0:	03641821 	addu	v1,k1,a0
    54f4:	24420010 	addiu	v0,v0,16
    54f8:	0043102b 	sltu	v0,v0,v1
    54fc:	14400073 	bnez	v0,0x56cc
    5500:	00000000 	nop
    5504:	8ee27264 	lw	v0,29284(s7)
    5508:	24480010 	addiu	t0,v0,16
    550c:	03641021 	addu	v0,k1,a0
    5510:	0102102b 	sltu	v0,t0,v0
    5514:	14400002 	bnez	v0,0x5520
    5518:	3c02ffff 	lui	v0,0xffff
    551c:	01024021 	addu	t0,t0,v0
    5520:	8f850100 	lw	a1,256(gp)
    5524:	27623000 	addiu	v0,k1,12288
    5528:	24a60020 	addiu	a2,a1,32
    552c:	00c2102b 	sltu	v0,a2,v0
    5530:	50400001 	beqzl	v0,0x5538
    5534:	27662800 	addiu	a2,k1,10240
    5538:	8f820108 	lw	v0,264(gp)
    553c:	10c20004 	beq	a2,v0,0x5550
    5540:	00000000 	nop
    5544:	8f820104 	lw	v0,260(gp)
    5548:	14c20007 	bne	a2,v0,0x5568
    554c:	2563000c 	addiu	v1,t3,12
    5550:	8ee201a8 	lw	v0,424(s7)
    5554:	00004821 	move	t1,zero
    5558:	24420001 	addiu	v0,v0,1
    555c:	aee201a8 	sw	v0,424(s7)
    5560:	080025a0 	j	0x9680
    5564:	8ee201a8 	lw	v0,424(s7)
    5568:	2c64000c 	sltiu	a0,v1,12
    556c:	01441021 	addu	v0,t2,a0
    5570:	aca20000 	sw	v0,0(a1)
    5574:	aca30004 	sw	v1,4(a1)
    5578:	24e2fff4 	addiu	v0,a3,-12
    557c:	a4a2000e 	sh	v0,14(a1)
    5580:	24020006 	li	v0,6
    5584:	aca80008 	sw	t0,8(a1)
    5588:	aca20018 	sw	v0,24(a1)
    558c:	8ee204e4 	lw	v0,1252(s7)
    5590:	aca2001c 	sw	v0,28(a1)
    5594:	8ee204c8 	lw	v0,1224(s7)
    5598:	3c030002 	lui	v1,0x2
    559c:	00431025 	or	v0,v0,v1
    55a0:	aca20010 	sw	v0,16(a1)
    55a4:	af860100 	sw	a2,256(gp)
    55a8:	92e204ec 	lbu	v0,1260(s7)
    55ac:	14400037 	bnez	v0,0x568c
    55b0:	24090001 	li	t1,1
    55b4:	8ee24e28 	lw	v0,20008(s7)
    55b8:	000210c0 	sll	v0,v0,0x3
    55bc:	24424e38 	addiu	v0,v0,20024
    55c0:	02e22021 	addu	a0,s7,v0
    55c4:	8c830000 	lw	v1,0(a0)
    55c8:	24020005 	li	v0,5
    55cc:	1462001f 	bne	v1,v0,0x564c
    55d0:	00000000 	nop
    55d4:	8ee34e28 	lw	v1,20008(s7)
    55d8:	8ee24e2c 	lw	v0,20012(s7)
    55dc:	1062001b 	beq	v1,v0,0x564c
    55e0:	24030040 	li	v1,64
    55e4:	8c820004 	lw	v0,4(a0)
    55e8:	24420001 	addiu	v0,v0,1
    55ec:	ac820004 	sw	v0,4(a0)
    55f0:	8ee24e2c 	lw	v0,20012(s7)
    55f4:	8ee54e28 	lw	a1,20008(s7)
    55f8:	24420001 	addiu	v0,v0,1
    55fc:	10430007 	beq	v0,v1,0x561c
    5600:	00000000 	nop
    5604:	8ee24e2c 	lw	v0,20012(s7)
    5608:	24420001 	addiu	v0,v0,1
    560c:	10a20005 	beq	a1,v0,0x5624
    5610:	00000000 	nop
    5614:	0800258a 	j	0x9628
    5618:	00000000 	nop
    561c:	14a00005 	bnez	a1,0x5634
    5620:	00000000 	nop
    5624:	8f820108 	lw	v0,264(gp)
    5628:	24420020 	addiu	v0,v0,32
    562c:	af820108 	sw	v0,264(gp)
    5630:	8f820108 	lw	v0,264(gp)
    5634:	8c820004 	lw	v0,4(a0)
    5638:	2c420011 	sltiu	v0,v0,17
    563c:	50400013 	beqzl	v0,0x568c
    5640:	ac800000 	sw	zero,0(a0)
    5644:	080025a0 	j	0x9680
    5648:	00000000 	nop
    564c:	8ee24e28 	lw	v0,20008(s7)
    5650:	24030040 	li	v1,64
    5654:	24420001 	addiu	v0,v0,1
    5658:	50430003 	beql	v0,v1,0x5668
    565c:	00001021 	move	v0,zero
    5660:	8ee24e28 	lw	v0,20008(s7)
    5664:	24420001 	addiu	v0,v0,1
    5668:	aee24e28 	sw	v0,20008(s7)
    566c:	8ee24e28 	lw	v0,20008(s7)
    5670:	000210c0 	sll	v0,v0,0x3
    5674:	24424e38 	addiu	v0,v0,20024
    5678:	02e22021 	addu	a0,s7,v0
    567c:	24020005 	li	v0,5
    5680:	ac820000 	sw	v0,0(a0)
    5684:	24020001 	li	v0,1
    5688:	ac820004 	sw	v0,4(a0)
    568c:	1520000a 	bnez	t1,0x56b8
    5690:	2508fffc 	addiu	t0,t0,-4
    5694:	afab0010 	sw	t3,16(sp)
    5698:	8ee27264 	lw	v0,29284(s7)
    569c:	3c040001 	lui	a0,0x1
    56a0:	24845730 	addiu	a0,a0,22320
    56a4:	3c050004 	lui	a1,0x4
    56a8:	afa20014 	sw	v0,20(sp)
    56ac:	8ee604e4 	lw	a2,1252(s7)
    56b0:	080028be 	j	0xa2f8
    56b4:	34a5f125 	ori	a1,a1,0xf125
    56b8:	34028100 	li	v0,0x8100
    56bc:	a5020000 	sh	v0,0(t0)
    56c0:	9582000e 	lhu	v0,14(t4)
    56c4:	0800261d 	j	0x9874
    56c8:	a5020002 	sh	v0,2(t0)
    56cc:	8f850100 	lw	a1,256(gp)
    56d0:	27623000 	addiu	v0,k1,12288
    56d4:	24a60020 	addiu	a2,a1,32
    56d8:	00c2102b 	sltu	v0,a2,v0
    56dc:	50400001 	beqzl	v0,0x56e4
    56e0:	27662800 	addiu	a2,k1,10240
    56e4:	8f820108 	lw	v0,264(gp)
    56e8:	10c20004 	beq	a2,v0,0x56fc
    56ec:	00000000 	nop
    56f0:	8f820104 	lw	v0,260(gp)
    56f4:	14c20007 	bne	a2,v0,0x5714
    56f8:	2563000c 	addiu	v1,t3,12
    56fc:	8ee201a8 	lw	v0,424(s7)
    5700:	00004821 	move	t1,zero
    5704:	24420001 	addiu	v0,v0,1
    5708:	aee201a8 	sw	v0,424(s7)
    570c:	0800260d 	j	0x9834
    5710:	8ee201a8 	lw	v0,424(s7)
    5714:	2c64000c 	sltiu	a0,v1,12
    5718:	01441021 	addu	v0,t2,a0
    571c:	aca20000 	sw	v0,0(a1)
    5720:	aca30004 	sw	v1,4(a1)
    5724:	8ee37264 	lw	v1,29284(s7)
    5728:	24e2fff4 	addiu	v0,a3,-12
    572c:	a4a2000e 	sh	v0,14(a1)
    5730:	24020006 	li	v0,6
    5734:	aca20018 	sw	v0,24(a1)
    5738:	24630010 	addiu	v1,v1,16
    573c:	aca30008 	sw	v1,8(a1)
    5740:	8ee204e4 	lw	v0,1252(s7)
    5744:	aca2001c 	sw	v0,28(a1)
    5748:	8ee204c8 	lw	v0,1224(s7)
    574c:	3c030002 	lui	v1,0x2
    5750:	00431025 	or	v0,v0,v1
    5754:	aca20010 	sw	v0,16(a1)
    5758:	af860100 	sw	a2,256(gp)
    575c:	92e204ec 	lbu	v0,1260(s7)
    5760:	14400037 	bnez	v0,0x5840
    5764:	24090001 	li	t1,1
    5768:	8ee24e28 	lw	v0,20008(s7)
    576c:	000210c0 	sll	v0,v0,0x3
    5770:	24424e38 	addiu	v0,v0,20024
    5774:	02e22021 	addu	a0,s7,v0
    5778:	8c830000 	lw	v1,0(a0)
    577c:	24020005 	li	v0,5
    5780:	1462001f 	bne	v1,v0,0x5800
    5784:	00000000 	nop
    5788:	8ee34e28 	lw	v1,20008(s7)
    578c:	8ee24e2c 	lw	v0,20012(s7)
    5790:	1062001b 	beq	v1,v0,0x5800
    5794:	24030040 	li	v1,64
    5798:	8c820004 	lw	v0,4(a0)
    579c:	24420001 	addiu	v0,v0,1
    57a0:	ac820004 	sw	v0,4(a0)
    57a4:	8ee24e2c 	lw	v0,20012(s7)
    57a8:	8ee54e28 	lw	a1,20008(s7)
    57ac:	24420001 	addiu	v0,v0,1
    57b0:	10430007 	beq	v0,v1,0x57d0
    57b4:	00000000 	nop
    57b8:	8ee24e2c 	lw	v0,20012(s7)
    57bc:	24420001 	addiu	v0,v0,1
    57c0:	10a20005 	beq	a1,v0,0x57d8
    57c4:	00000000 	nop
    57c8:	080025f7 	j	0x97dc
    57cc:	00000000 	nop
    57d0:	14a00005 	bnez	a1,0x57e8
    57d4:	00000000 	nop
    57d8:	8f820108 	lw	v0,264(gp)
    57dc:	24420020 	addiu	v0,v0,32
    57e0:	af820108 	sw	v0,264(gp)
    57e4:	8f820108 	lw	v0,264(gp)
    57e8:	8c820004 	lw	v0,4(a0)
    57ec:	2c420011 	sltiu	v0,v0,17
    57f0:	50400013 	beqzl	v0,0x5840
    57f4:	ac800000 	sw	zero,0(a0)
    57f8:	0800260d 	j	0x9834
    57fc:	00000000 	nop
    5800:	8ee24e28 	lw	v0,20008(s7)
    5804:	24030040 	li	v1,64
    5808:	24420001 	addiu	v0,v0,1
    580c:	50430003 	beql	v0,v1,0x581c
    5810:	00001021 	move	v0,zero
    5814:	8ee24e28 	lw	v0,20008(s7)
    5818:	24420001 	addiu	v0,v0,1
    581c:	aee24e28 	sw	v0,20008(s7)
    5820:	8ee24e28 	lw	v0,20008(s7)
    5824:	000210c0 	sll	v0,v0,0x3
    5828:	24424e38 	addiu	v0,v0,20024
    582c:	02e22021 	addu	a0,s7,v0
    5830:	24020005 	li	v0,5
    5834:	ac820000 	sw	v0,0(a0)
    5838:	24020001 	li	v0,1
    583c:	ac820004 	sw	v0,4(a0)
    5840:	1520000a 	bnez	t1,0x586c
    5844:	34028100 	li	v0,0x8100
    5848:	afab0010 	sw	t3,16(sp)
    584c:	8ee27264 	lw	v0,29284(s7)
    5850:	3c040001 	lui	a0,0x1
    5854:	24845730 	addiu	a0,a0,22320
    5858:	3c050004 	lui	a1,0x4
    585c:	afa20014 	sw	v0,20(sp)
    5860:	8ee604e4 	lw	a2,1252(s7)
    5864:	080028be 	j	0xa2f8
    5868:	34a5f015 	ori	a1,a1,0xf015
    586c:	8ee37264 	lw	v1,29284(s7)
    5870:	a462000c 	sh	v0,12(v1)
    5874:	8ee37264 	lw	v1,29284(s7)
    5878:	9582000e 	lhu	v0,14(t4)
    587c:	a462000e 	sh	v0,14(v1)
    5880:	08002681 	j	0x9a04
    5884:	24e70004 	addiu	a3,a3,4
    5888:	8f840100 	lw	a0,256(gp)
    588c:	27623000 	addiu	v0,k1,12288
    5890:	24850020 	addiu	a1,a0,32
    5894:	00a2102b 	sltu	v0,a1,v0
    5898:	50400001 	beqzl	v0,0x58a0
    589c:	27652800 	addiu	a1,k1,10240
    58a0:	8f820108 	lw	v0,264(gp)
    58a4:	10a20004 	beq	a1,v0,0x58b8
    58a8:	00000000 	nop
    58ac:	8f820104 	lw	v0,260(gp)
    58b0:	14a20007 	bne	a1,v0,0x58d0
    58b4:	24020006 	li	v0,6
    58b8:	8ee201a8 	lw	v0,424(s7)
    58bc:	00004821 	move	t1,zero
    58c0:	24420001 	addiu	v0,v0,1
    58c4:	aee201a8 	sw	v0,424(s7)
    58c8:	08002677 	j	0x99dc
    58cc:	8ee201a8 	lw	v0,424(s7)
    58d0:	ac8a0000 	sw	t2,0(a0)
    58d4:	ac8b0004 	sw	t3,4(a0)
    58d8:	8ee37264 	lw	v1,29284(s7)
    58dc:	a487000e 	sh	a3,14(a0)
    58e0:	ac820018 	sw	v0,24(a0)
    58e4:	ac830008 	sw	v1,8(a0)
    58e8:	8ee204e4 	lw	v0,1252(s7)
    58ec:	ac82001c 	sw	v0,28(a0)
    58f0:	8ee204c8 	lw	v0,1224(s7)
    58f4:	3c030002 	lui	v1,0x2
    58f8:	00431025 	or	v0,v0,v1
    58fc:	ac820010 	sw	v0,16(a0)
    5900:	af850100 	sw	a1,256(gp)
    5904:	92e204ec 	lbu	v0,1260(s7)
    5908:	14400037 	bnez	v0,0x59e8
    590c:	24090001 	li	t1,1
    5910:	8ee24e28 	lw	v0,20008(s7)
    5914:	000210c0 	sll	v0,v0,0x3
    5918:	24424e38 	addiu	v0,v0,20024
    591c:	02e22021 	addu	a0,s7,v0
    5920:	8c830000 	lw	v1,0(a0)
    5924:	24020005 	li	v0,5
    5928:	1462001f 	bne	v1,v0,0x59a8
    592c:	00000000 	nop
    5930:	8ee34e28 	lw	v1,20008(s7)
    5934:	8ee24e2c 	lw	v0,20012(s7)
    5938:	1062001b 	beq	v1,v0,0x59a8
    593c:	24030040 	li	v1,64
    5940:	8c820004 	lw	v0,4(a0)
    5944:	24420001 	addiu	v0,v0,1
    5948:	ac820004 	sw	v0,4(a0)
    594c:	8ee24e2c 	lw	v0,20012(s7)
    5950:	8ee54e28 	lw	a1,20008(s7)
    5954:	24420001 	addiu	v0,v0,1
    5958:	10430007 	beq	v0,v1,0x5978
    595c:	00000000 	nop
    5960:	8ee24e2c 	lw	v0,20012(s7)
    5964:	24420001 	addiu	v0,v0,1
    5968:	10a20005 	beq	a1,v0,0x5980
    596c:	00000000 	nop
    5970:	08002661 	j	0x9984
    5974:	00000000 	nop
    5978:	14a00005 	bnez	a1,0x5990
    597c:	00000000 	nop
    5980:	8f820108 	lw	v0,264(gp)
    5984:	24420020 	addiu	v0,v0,32
    5988:	af820108 	sw	v0,264(gp)
    598c:	8f820108 	lw	v0,264(gp)
    5990:	8c820004 	lw	v0,4(a0)
    5994:	2c420011 	sltiu	v0,v0,17
    5998:	50400013 	beqzl	v0,0x59e8
    599c:	ac800000 	sw	zero,0(a0)
    59a0:	08002677 	j	0x99dc
    59a4:	00000000 	nop
    59a8:	8ee24e28 	lw	v0,20008(s7)
    59ac:	24030040 	li	v1,64
    59b0:	24420001 	addiu	v0,v0,1
    59b4:	50430003 	beql	v0,v1,0x59c4
    59b8:	00001021 	move	v0,zero
    59bc:	8ee24e28 	lw	v0,20008(s7)
    59c0:	24420001 	addiu	v0,v0,1
    59c4:	aee24e28 	sw	v0,20008(s7)
    59c8:	8ee24e28 	lw	v0,20008(s7)
    59cc:	000210c0 	sll	v0,v0,0x3
    59d0:	24424e38 	addiu	v0,v0,20024
    59d4:	02e22021 	addu	a0,s7,v0
    59d8:	24020005 	li	v0,5
    59dc:	ac820000 	sw	v0,0(a0)
    59e0:	24020001 	li	v0,1
    59e4:	ac820004 	sw	v0,4(a0)
    59e8:	15200009 	bnez	t1,0x5a10
    59ec:	3c050004 	lui	a1,0x4
    59f0:	afab0010 	sw	t3,16(sp)
    59f4:	8ee27264 	lw	v0,29284(s7)
    59f8:	3c040001 	lui	a0,0x1
    59fc:	24845730 	addiu	a0,a0,22320
    5a00:	afa20014 	sw	v0,20(sp)
    5a04:	8ee604e4 	lw	a2,1252(s7)
    5a08:	080028be 	j	0xa2f8
    5a0c:	34a5f004 	ori	a1,a1,0xf004
    5a10:	8ee2725c 	lw	v0,29276(s7)
    5a14:	30e7ffff 	andi	a3,a3,0xffff
    5a18:	00471021 	addu	v0,v0,a3
    5a1c:	aee2725c 	sw	v0,29276(s7)
    5a20:	8ee204e4 	lw	v0,1252(s7)
    5a24:	8ee304fc 	lw	v1,1276(s7)
    5a28:	8ee47258 	lw	a0,29272(s7)
    5a2c:	00021100 	sll	v0,v0,0x4
    5a30:	00431021 	addu	v0,v0,v1
    5a34:	ac44000c 	sw	a0,12(v0)
    5a38:	8ee27258 	lw	v0,29272(s7)
    5a3c:	afa20018 	sw	v0,24(sp)
    5a40:	8ee3725c 	lw	v1,29276(s7)
    5a44:	afa3001c 	sw	v1,28(sp)
    5a48:	8ee2725c 	lw	v0,29276(s7)
    5a4c:	2c42003c 	sltiu	v0,v0,60
    5a50:	10400004 	beqz	v0,0x5a64
    5a54:	24620001 	addiu	v0,v1,1
    5a58:	2403fffe 	li	v1,-2
    5a5c:	00431024 	and	v0,v0,v1
    5a60:	afa2001c 	sw	v0,28(sp)
    5a64:	8ee27264 	lw	v0,29284(s7)
    5a68:	3c060001 	lui	a2,0x1
    5a6c:	34c63800 	ori	a2,a2,0x3800
    5a70:	8ee3725c 	lw	v1,29276(s7)
    5a74:	2405fff8 	li	a1,-8
    5a78:	00471021 	addu	v0,v0,a3
    5a7c:	24420007 	addiu	v0,v0,7
    5a80:	00451024 	and	v0,v0,a1
    5a84:	24630007 	addiu	v1,v1,7
    5a88:	aee27258 	sw	v0,29272(s7)
    5a8c:	8ee2726c 	lw	v0,29292(s7)
    5a90:	8ee47258 	lw	a0,29272(s7)
    5a94:	00651824 	and	v1,v1,a1
    5a98:	00431023 	subu	v0,v0,v1
    5a9c:	aee2726c 	sw	v0,29292(s7)
    5aa0:	03661021 	addu	v0,k1,a2
    5aa4:	0082202b 	sltu	a0,a0,v0
    5aa8:	14800004 	bnez	a0,0x5abc
    5aac:	3c03ffff 	lui	v1,0xffff
    5ab0:	8ee27258 	lw	v0,29272(s7)
    5ab4:	00431021 	addu	v0,v0,v1
    5ab8:	aee27258 	sw	v0,29272(s7)
    5abc:	8ee27258 	lw	v0,29272(s7)
    5ac0:	aee27264 	sw	v0,29284(s7)
    5ac4:	8f8200f0 	lw	v0,240(gp)
    5ac8:	24470008 	addiu	a3,v0,8
    5acc:	27621800 	addiu	v0,k1,6144
    5ad0:	00e2102b 	sltu	v0,a3,v0
    5ad4:	50400001 	beqzl	v0,0x5adc
    5ad8:	27671000 	addiu	a3,k1,4096
    5adc:	8f8200f4 	lw	v0,244(gp)
    5ae0:	14e20007 	bne	a3,v0,0x5b00
    5ae4:	00000000 	nop
    5ae8:	8ee201b4 	lw	v0,436(s7)
    5aec:	00004821 	move	t1,zero
    5af0:	24420001 	addiu	v0,v0,1
    5af4:	aee201b4 	sw	v0,436(s7)
    5af8:	080026c4 	j	0x9b10
    5afc:	8ee201b4 	lw	v0,436(s7)
    5b00:	8f8200f0 	lw	v0,240(gp)
    5b04:	24090001 	li	t1,1
    5b08:	8fa30018 	lw	v1,24(sp)
    5b0c:	8fa4001c 	lw	a0,28(sp)
    5b10:	ac430000 	sw	v1,0(v0)
    5b14:	ac440004 	sw	a0,4(v0)
    5b18:	af8700f0 	sw	a3,240(gp)
    5b1c:	15200012 	bnez	t1,0x5b68
    5b20:	000d1142 	srl	v0,t5,0x5
    5b24:	8f8200f0 	lw	v0,240(gp)
    5b28:	afa20010 	sw	v0,16(sp)
    5b2c:	8f8200f4 	lw	v0,244(gp)
    5b30:	3c040001 	lui	a0,0x1
    5b34:	2484573c 	addiu	a0,a0,22332
    5b38:	afa20014 	sw	v0,20(sp)
    5b3c:	8fa60018 	lw	a2,24(sp)
    5b40:	8fa7001c 	lw	a3,28(sp)
    5b44:	3c050004 	lui	a1,0x4
    5b48:	0c002403 	jal	0x900c
    5b4c:	34a5f005 	ori	a1,a1,0xf005
    5b50:	8ee20088 	lw	v0,136(s7)
    5b54:	24420001 	addiu	v0,v0,1
    5b58:	aee20088 	sw	v0,136(s7)
    5b5c:	8ee20088 	lw	v0,136(s7)
    5b60:	080028d3 	j	0xa34c
    5b64:	aee0725c 	sw	zero,29276(s7)
    5b68:	30430003 	andi	v1,v0,0x3
    5b6c:	24020002 	li	v0,2
    5b70:	10620016 	beq	v1,v0,0x5bcc
    5b74:	28620003 	slti	v0,v1,3
    5b78:	10400005 	beqz	v0,0x5b90
    5b7c:	24020001 	li	v0,1
    5b80:	10620008 	beq	v1,v0,0x5ba4
    5b84:	00000000 	nop
    5b88:	08002703 	j	0x9c0c
    5b8c:	00000000 	nop
    5b90:	24020003 	li	v0,3
    5b94:	10620017 	beq	v1,v0,0x5bf4
    5b98:	00000000 	nop
    5b9c:	08002703 	j	0x9c0c
    5ba0:	00000000 	nop
    5ba4:	8ee200e8 	lw	v0,232(s7)
    5ba8:	8ee300ec 	lw	v1,236(s7)
    5bac:	24630001 	addiu	v1,v1,1
    5bb0:	2c640001 	sltiu	a0,v1,1
    5bb4:	00441021 	addu	v0,v0,a0
    5bb8:	aee200e8 	sw	v0,232(s7)
    5bbc:	aee300ec 	sw	v1,236(s7)
    5bc0:	8ee200e8 	lw	v0,232(s7)
    5bc4:	08002703 	j	0x9c0c
    5bc8:	8ee300ec 	lw	v1,236(s7)
    5bcc:	8ee200f0 	lw	v0,240(s7)
    5bd0:	8ee300f4 	lw	v1,244(s7)
    5bd4:	24630001 	addiu	v1,v1,1
    5bd8:	2c640001 	sltiu	a0,v1,1
    5bdc:	00441021 	addu	v0,v0,a0
    5be0:	aee200f0 	sw	v0,240(s7)
    5be4:	aee300f4 	sw	v1,244(s7)
    5be8:	8ee200f0 	lw	v0,240(s7)
    5bec:	08002703 	j	0x9c0c
    5bf0:	8ee300f4 	lw	v1,244(s7)
    5bf4:	8ee200f8 	lw	v0,248(s7)
    5bf8:	8ee300fc 	lw	v1,252(s7)
    5bfc:	24630001 	addiu	v1,v1,1
    5c00:	2c640001 	sltiu	a0,v1,1
    5c04:	00441021 	addu	v0,v0,a0
    5c08:	aee200f8 	sw	v0,248(s7)
    5c0c:	aee300fc 	sw	v1,252(s7)
    5c10:	8ee200f8 	lw	v0,248(s7)
    5c14:	8ee300fc 	lw	v1,252(s7)
    5c18:	8ee2725c 	lw	v0,29276(s7)
    5c1c:	8ee400e0 	lw	a0,224(s7)
    5c20:	8ee500e4 	lw	a1,228(s7)
    5c24:	00401821 	move	v1,v0
    5c28:	00001021 	move	v0,zero
    5c2c:	00a32821 	addu	a1,a1,v1
    5c30:	00a3302b 	sltu	a2,a1,v1
    5c34:	00822021 	addu	a0,a0,v0
    5c38:	00862021 	addu	a0,a0,a2
    5c3c:	aee400e0 	sw	a0,224(s7)
    5c40:	aee500e4 	sw	a1,228(s7)
    5c44:	080028d3 	j	0xa34c
    5c48:	aee0725c 	sw	zero,29276(s7)
    5c4c:	30e2ffff 	andi	v0,a3,0xffff
    5c50:	104001c1 	beqz	v0,0x6358
    5c54:	31a20200 	andi	v0,t5,0x200
    5c58:	1040014d 	beqz	v0,0x6190
    5c5c:	00004821 	move	t1,zero
    5c60:	96e2045a 	lhu	v0,1114(s7)
    5c64:	30420010 	andi	v0,v0,0x10
    5c68:	10400149 	beqz	v0,0x6190
    5c6c:	00000000 	nop
    5c70:	8f840100 	lw	a0,256(gp)
    5c74:	27623000 	addiu	v0,k1,12288
    5c78:	24850020 	addiu	a1,a0,32
    5c7c:	00a2102b 	sltu	v0,a1,v0
    5c80:	50400001 	beqzl	v0,0x5c88
    5c84:	27652800 	addiu	a1,k1,10240
    5c88:	8f820108 	lw	v0,264(gp)
    5c8c:	10a20004 	beq	a1,v0,0x5ca0
    5c90:	00000000 	nop
    5c94:	8f820104 	lw	v0,260(gp)
    5c98:	14a20006 	bne	a1,v0,0x5cb4
    5c9c:	2402000c 	li	v0,12
    5ca0:	8ee201a8 	lw	v0,424(s7)
    5ca4:	24420001 	addiu	v0,v0,1
    5ca8:	aee201a8 	sw	v0,424(s7)
    5cac:	0800276e 	j	0x9db8
    5cb0:	8ee201a8 	lw	v0,424(s7)
    5cb4:	ac8a0000 	sw	t2,0(a0)
    5cb8:	ac8b0004 	sw	t3,4(a0)
    5cbc:	8ee37264 	lw	v1,29284(s7)
    5cc0:	24060005 	li	a2,5
    5cc4:	a482000e 	sh	v0,14(a0)
    5cc8:	ac860018 	sw	a2,24(a0)
    5ccc:	ac830008 	sw	v1,8(a0)
    5cd0:	8ee204e4 	lw	v0,1252(s7)
    5cd4:	ac82001c 	sw	v0,28(a0)
    5cd8:	8ee204c8 	lw	v0,1224(s7)
    5cdc:	ac820010 	sw	v0,16(a0)
    5ce0:	af850100 	sw	a1,256(gp)
    5ce4:	92e204ec 	lbu	v0,1260(s7)
    5ce8:	14400036 	bnez	v0,0x5dc4
    5cec:	24090001 	li	t1,1
    5cf0:	8ee24e28 	lw	v0,20008(s7)
    5cf4:	000210c0 	sll	v0,v0,0x3
    5cf8:	24424e38 	addiu	v0,v0,20024
    5cfc:	02e22021 	addu	a0,s7,v0
    5d00:	8c820000 	lw	v0,0(a0)
    5d04:	1446001f 	bne	v0,a2,0x5d84
    5d08:	00000000 	nop
    5d0c:	8ee34e28 	lw	v1,20008(s7)
    5d10:	8ee24e2c 	lw	v0,20012(s7)
    5d14:	1062001b 	beq	v1,v0,0x5d84
    5d18:	24030040 	li	v1,64
    5d1c:	8c820004 	lw	v0,4(a0)
    5d20:	24420001 	addiu	v0,v0,1
    5d24:	ac820004 	sw	v0,4(a0)
    5d28:	8ee24e2c 	lw	v0,20012(s7)
    5d2c:	8ee54e28 	lw	a1,20008(s7)
    5d30:	24420001 	addiu	v0,v0,1
    5d34:	10430007 	beq	v0,v1,0x5d54
    5d38:	00000000 	nop
    5d3c:	8ee24e2c 	lw	v0,20012(s7)
    5d40:	24420001 	addiu	v0,v0,1
    5d44:	10a20005 	beq	a1,v0,0x5d5c
    5d48:	00000000 	nop
    5d4c:	08002758 	j	0x9d60
    5d50:	00000000 	nop
    5d54:	14a00005 	bnez	a1,0x5d6c
    5d58:	00000000 	nop
    5d5c:	8f820108 	lw	v0,264(gp)
    5d60:	24420020 	addiu	v0,v0,32
    5d64:	af820108 	sw	v0,264(gp)
    5d68:	8f820108 	lw	v0,264(gp)
    5d6c:	8c820004 	lw	v0,4(a0)
    5d70:	2c420011 	sltiu	v0,v0,17
    5d74:	50400013 	beqzl	v0,0x5dc4
    5d78:	ac800000 	sw	zero,0(a0)
    5d7c:	0800276e 	j	0x9db8
    5d80:	00000000 	nop
    5d84:	8ee24e28 	lw	v0,20008(s7)
    5d88:	24030040 	li	v1,64
    5d8c:	24420001 	addiu	v0,v0,1
    5d90:	50430003 	beql	v0,v1,0x5da0
    5d94:	00001021 	move	v0,zero
    5d98:	8ee24e28 	lw	v0,20008(s7)
    5d9c:	24420001 	addiu	v0,v0,1
    5da0:	aee24e28 	sw	v0,20008(s7)
    5da4:	8ee24e28 	lw	v0,20008(s7)
    5da8:	000210c0 	sll	v0,v0,0x3
    5dac:	24424e38 	addiu	v0,v0,20024
    5db0:	02e22021 	addu	a0,s7,v0
    5db4:	24020005 	li	v0,5
    5db8:	ac820000 	sw	v0,0(a0)
    5dbc:	24020001 	li	v0,1
    5dc0:	ac820004 	sw	v0,4(a0)
    5dc4:	1520000a 	bnez	t1,0x5df0
    5dc8:	3c040001 	lui	a0,0x1
    5dcc:	afab0010 	sw	t3,16(sp)
    5dd0:	8ee27264 	lw	v0,29284(s7)
    5dd4:	3c040001 	lui	a0,0x1
    5dd8:	24845730 	addiu	a0,a0,22320
    5ddc:	3c050004 	lui	a1,0x4
    5de0:	afa20014 	sw	v0,20(sp)
    5de4:	8ee604e4 	lw	a2,1252(s7)
    5de8:	080028be 	j	0xa2f8
    5dec:	34a5f014 	ori	a1,a1,0xf014
    5df0:	8ee27264 	lw	v0,29284(s7)
    5df4:	34843800 	ori	a0,a0,0x3800
    5df8:	03641821 	addu	v1,k1,a0
    5dfc:	24420010 	addiu	v0,v0,16
    5e00:	0043102b 	sltu	v0,v0,v1
    5e04:	14400073 	bnez	v0,0x5fd4
    5e08:	00000000 	nop
    5e0c:	8ee27264 	lw	v0,29284(s7)
    5e10:	24480010 	addiu	t0,v0,16
    5e14:	03641021 	addu	v0,k1,a0
    5e18:	0102102b 	sltu	v0,t0,v0
    5e1c:	14400002 	bnez	v0,0x5e28
    5e20:	3c02ffff 	lui	v0,0xffff
    5e24:	01024021 	addu	t0,t0,v0
    5e28:	8f850100 	lw	a1,256(gp)
    5e2c:	27623000 	addiu	v0,k1,12288
    5e30:	24a60020 	addiu	a2,a1,32
    5e34:	00c2102b 	sltu	v0,a2,v0
    5e38:	50400001 	beqzl	v0,0x5e40
    5e3c:	27662800 	addiu	a2,k1,10240
    5e40:	8f820108 	lw	v0,264(gp)
    5e44:	10c20004 	beq	a2,v0,0x5e58
    5e48:	00000000 	nop
    5e4c:	8f820104 	lw	v0,260(gp)
    5e50:	14c20007 	bne	a2,v0,0x5e70
    5e54:	2563000c 	addiu	v1,t3,12
    5e58:	8ee201a8 	lw	v0,424(s7)
    5e5c:	00004821 	move	t1,zero
    5e60:	24420001 	addiu	v0,v0,1
    5e64:	aee201a8 	sw	v0,424(s7)
    5e68:	080027e2 	j	0x9f88
    5e6c:	8ee201a8 	lw	v0,424(s7)
    5e70:	2c64000c 	sltiu	a0,v1,12
    5e74:	01441021 	addu	v0,t2,a0
    5e78:	aca20000 	sw	v0,0(a1)
    5e7c:	aca30004 	sw	v1,4(a1)
    5e80:	24e2fff4 	addiu	v0,a3,-12
    5e84:	a4a2000e 	sh	v0,14(a1)
    5e88:	24020006 	li	v0,6
    5e8c:	aca80008 	sw	t0,8(a1)
    5e90:	aca20018 	sw	v0,24(a1)
    5e94:	8ee204e4 	lw	v0,1252(s7)
    5e98:	aca2001c 	sw	v0,28(a1)
    5e9c:	8ee204c8 	lw	v0,1224(s7)
    5ea0:	3c030002 	lui	v1,0x2
    5ea4:	00431025 	or	v0,v0,v1
    5ea8:	aca20010 	sw	v0,16(a1)
    5eac:	af860100 	sw	a2,256(gp)
    5eb0:	92e204ec 	lbu	v0,1260(s7)
    5eb4:	14400037 	bnez	v0,0x5f94
    5eb8:	24090001 	li	t1,1
    5ebc:	8ee24e28 	lw	v0,20008(s7)
    5ec0:	000210c0 	sll	v0,v0,0x3
    5ec4:	24424e38 	addiu	v0,v0,20024
    5ec8:	02e22021 	addu	a0,s7,v0
    5ecc:	8c830000 	lw	v1,0(a0)
    5ed0:	24020005 	li	v0,5
    5ed4:	1462001f 	bne	v1,v0,0x5f54
    5ed8:	00000000 	nop
    5edc:	8ee34e28 	lw	v1,20008(s7)
    5ee0:	8ee24e2c 	lw	v0,20012(s7)
    5ee4:	1062001b 	beq	v1,v0,0x5f54
    5ee8:	24030040 	li	v1,64
    5eec:	8c820004 	lw	v0,4(a0)
    5ef0:	24420001 	addiu	v0,v0,1
    5ef4:	ac820004 	sw	v0,4(a0)
    5ef8:	8ee24e2c 	lw	v0,20012(s7)
    5efc:	8ee54e28 	lw	a1,20008(s7)
    5f00:	24420001 	addiu	v0,v0,1
    5f04:	10430007 	beq	v0,v1,0x5f24
    5f08:	00000000 	nop
    5f0c:	8ee24e2c 	lw	v0,20012(s7)
    5f10:	24420001 	addiu	v0,v0,1
    5f14:	10a20005 	beq	a1,v0,0x5f2c
    5f18:	00000000 	nop
    5f1c:	080027cc 	j	0x9f30
    5f20:	00000000 	nop
    5f24:	14a00005 	bnez	a1,0x5f3c
    5f28:	00000000 	nop
    5f2c:	8f820108 	lw	v0,264(gp)
    5f30:	24420020 	addiu	v0,v0,32
    5f34:	af820108 	sw	v0,264(gp)
    5f38:	8f820108 	lw	v0,264(gp)
    5f3c:	8c820004 	lw	v0,4(a0)
    5f40:	2c420011 	sltiu	v0,v0,17
    5f44:	50400013 	beqzl	v0,0x5f94
    5f48:	ac800000 	sw	zero,0(a0)
    5f4c:	080027e2 	j	0x9f88
    5f50:	00000000 	nop
    5f54:	8ee24e28 	lw	v0,20008(s7)
    5f58:	24030040 	li	v1,64
    5f5c:	24420001 	addiu	v0,v0,1
    5f60:	50430003 	beql	v0,v1,0x5f70
    5f64:	00001021 	move	v0,zero
    5f68:	8ee24e28 	lw	v0,20008(s7)
    5f6c:	24420001 	addiu	v0,v0,1
    5f70:	aee24e28 	sw	v0,20008(s7)
    5f74:	8ee24e28 	lw	v0,20008(s7)
    5f78:	000210c0 	sll	v0,v0,0x3
    5f7c:	24424e38 	addiu	v0,v0,20024
    5f80:	02e22021 	addu	a0,s7,v0
    5f84:	24020005 	li	v0,5
    5f88:	ac820000 	sw	v0,0(a0)
    5f8c:	24020001 	li	v0,1
    5f90:	ac820004 	sw	v0,4(a0)
    5f94:	1520000a 	bnez	t1,0x5fc0
    5f98:	2508fffc 	addiu	t0,t0,-4
    5f9c:	afab0010 	sw	t3,16(sp)
    5fa0:	8ee27264 	lw	v0,29284(s7)
    5fa4:	3c040001 	lui	a0,0x1
    5fa8:	24845730 	addiu	a0,a0,22320
    5fac:	3c050004 	lui	a1,0x4
    5fb0:	afa20014 	sw	v0,20(sp)
    5fb4:	8ee604e4 	lw	a2,1252(s7)
    5fb8:	080028be 	j	0xa2f8
    5fbc:	34a5f015 	ori	a1,a1,0xf015
    5fc0:	34028100 	li	v0,0x8100
    5fc4:	a5020000 	sh	v0,0(t0)
    5fc8:	9582000e 	lhu	v0,14(t4)
    5fcc:	0800285f 	j	0xa17c
    5fd0:	a5020002 	sh	v0,2(t0)
    5fd4:	8f850100 	lw	a1,256(gp)
    5fd8:	27623000 	addiu	v0,k1,12288
    5fdc:	24a60020 	addiu	a2,a1,32
    5fe0:	00c2102b 	sltu	v0,a2,v0
    5fe4:	50400001 	beqzl	v0,0x5fec
    5fe8:	27662800 	addiu	a2,k1,10240
    5fec:	8f820108 	lw	v0,264(gp)
    5ff0:	10c20004 	beq	a2,v0,0x6004
    5ff4:	00000000 	nop
    5ff8:	8f820104 	lw	v0,260(gp)
    5ffc:	14c20007 	bne	a2,v0,0x601c
    6000:	2563000c 	addiu	v1,t3,12
    6004:	8ee201a8 	lw	v0,424(s7)
    6008:	00004821 	move	t1,zero
    600c:	24420001 	addiu	v0,v0,1
    6010:	aee201a8 	sw	v0,424(s7)
    6014:	0800284f 	j	0xa13c
    6018:	8ee201a8 	lw	v0,424(s7)
    601c:	2c64000c 	sltiu	a0,v1,12
    6020:	01441021 	addu	v0,t2,a0
    6024:	aca20000 	sw	v0,0(a1)
    6028:	aca30004 	sw	v1,4(a1)
    602c:	8ee37264 	lw	v1,29284(s7)
    6030:	24e2fff4 	addiu	v0,a3,-12
    6034:	a4a2000e 	sh	v0,14(a1)
    6038:	24020006 	li	v0,6
    603c:	aca20018 	sw	v0,24(a1)
    6040:	24630010 	addiu	v1,v1,16
    6044:	aca30008 	sw	v1,8(a1)
    6048:	8ee204e4 	lw	v0,1252(s7)
    604c:	aca2001c 	sw	v0,28(a1)
    6050:	8ee204c8 	lw	v0,1224(s7)
    6054:	3c030002 	lui	v1,0x2
    6058:	00431025 	or	v0,v0,v1
    605c:	aca20010 	sw	v0,16(a1)
    6060:	af860100 	sw	a2,256(gp)
    6064:	92e204ec 	lbu	v0,1260(s7)
    6068:	14400037 	bnez	v0,0x6148
    606c:	24090001 	li	t1,1
    6070:	8ee24e28 	lw	v0,20008(s7)
    6074:	000210c0 	sll	v0,v0,0x3
    6078:	24424e38 	addiu	v0,v0,20024
    607c:	02e22021 	addu	a0,s7,v0
    6080:	8c830000 	lw	v1,0(a0)
    6084:	24020005 	li	v0,5
    6088:	1462001f 	bne	v1,v0,0x6108
    608c:	00000000 	nop
    6090:	8ee34e28 	lw	v1,20008(s7)
    6094:	8ee24e2c 	lw	v0,20012(s7)
    6098:	1062001b 	beq	v1,v0,0x6108
    609c:	24030040 	li	v1,64
    60a0:	8c820004 	lw	v0,4(a0)
    60a4:	24420001 	addiu	v0,v0,1
    60a8:	ac820004 	sw	v0,4(a0)
    60ac:	8ee24e2c 	lw	v0,20012(s7)
    60b0:	8ee54e28 	lw	a1,20008(s7)
    60b4:	24420001 	addiu	v0,v0,1
    60b8:	10430007 	beq	v0,v1,0x60d8
    60bc:	00000000 	nop
    60c0:	8ee24e2c 	lw	v0,20012(s7)
    60c4:	24420001 	addiu	v0,v0,1
    60c8:	10a20005 	beq	a1,v0,0x60e0
    60cc:	00000000 	nop
    60d0:	08002839 	j	0xa0e4
    60d4:	00000000 	nop
    60d8:	14a00005 	bnez	a1,0x60f0
    60dc:	00000000 	nop
    60e0:	8f820108 	lw	v0,264(gp)
    60e4:	24420020 	addiu	v0,v0,32
    60e8:	af820108 	sw	v0,264(gp)
    60ec:	8f820108 	lw	v0,264(gp)
    60f0:	8c820004 	lw	v0,4(a0)
    60f4:	2c420011 	sltiu	v0,v0,17
    60f8:	50400013 	beqzl	v0,0x6148
    60fc:	ac800000 	sw	zero,0(a0)
    6100:	0800284f 	j	0xa13c
    6104:	00000000 	nop
    6108:	8ee24e28 	lw	v0,20008(s7)
    610c:	24030040 	li	v1,64
    6110:	24420001 	addiu	v0,v0,1
    6114:	50430003 	beql	v0,v1,0x6124
    6118:	00001021 	move	v0,zero
    611c:	8ee24e28 	lw	v0,20008(s7)
    6120:	24420001 	addiu	v0,v0,1
    6124:	aee24e28 	sw	v0,20008(s7)
    6128:	8ee24e28 	lw	v0,20008(s7)
    612c:	000210c0 	sll	v0,v0,0x3
    6130:	24424e38 	addiu	v0,v0,20024
    6134:	02e22021 	addu	a0,s7,v0
    6138:	24020005 	li	v0,5
    613c:	ac820000 	sw	v0,0(a0)
    6140:	24020001 	li	v0,1
    6144:	ac820004 	sw	v0,4(a0)
    6148:	1520000a 	bnez	t1,0x6174
    614c:	34028100 	li	v0,0x8100
    6150:	afab0010 	sw	t3,16(sp)
    6154:	8ee27264 	lw	v0,29284(s7)
    6158:	3c040001 	lui	a0,0x1
    615c:	24845730 	addiu	a0,a0,22320
    6160:	3c050004 	lui	a1,0x4
    6164:	afa20014 	sw	v0,20(sp)
    6168:	8ee604e4 	lw	a2,1252(s7)
    616c:	080028be 	j	0xa2f8
    6170:	34a5f016 	ori	a1,a1,0xf016
    6174:	8ee37264 	lw	v1,29284(s7)
    6178:	a462000c 	sh	v0,12(v1)
    617c:	8ee37264 	lw	v1,29284(s7)
    6180:	9582000e 	lhu	v0,14(t4)
    6184:	a462000e 	sh	v0,14(v1)
    6188:	080028c2 	j	0xa308
    618c:	24e70004 	addiu	a3,a3,4
    6190:	8f830100 	lw	v1,256(gp)
    6194:	27623000 	addiu	v0,k1,12288
    6198:	24640020 	addiu	a0,v1,32
    619c:	0082102b 	sltu	v0,a0,v0
    61a0:	50400001 	beqzl	v0,0x61a8
    61a4:	27642800 	addiu	a0,k1,10240
    61a8:	8f820108 	lw	v0,264(gp)
    61ac:	10820004 	beq	a0,v0,0x61c0
    61b0:	00000000 	nop
    61b4:	8f820104 	lw	v0,260(gp)
    61b8:	14820007 	bne	a0,v0,0x61d8
    61bc:	24050005 	li	a1,5
    61c0:	8ee201a8 	lw	v0,424(s7)
    61c4:	00004821 	move	t1,zero
    61c8:	24420001 	addiu	v0,v0,1
    61cc:	aee201a8 	sw	v0,424(s7)
    61d0:	080028b6 	j	0xa2d8
    61d4:	8ee201a8 	lw	v0,424(s7)
    61d8:	ac6a0000 	sw	t2,0(v1)
    61dc:	ac6b0004 	sw	t3,4(v1)
    61e0:	8ee27264 	lw	v0,29284(s7)
    61e4:	a467000e 	sh	a3,14(v1)
    61e8:	ac650018 	sw	a1,24(v1)
    61ec:	ac620008 	sw	v0,8(v1)
    61f0:	8ee204e4 	lw	v0,1252(s7)
    61f4:	ac62001c 	sw	v0,28(v1)
    61f8:	8ee204c8 	lw	v0,1224(s7)
    61fc:	ac620010 	sw	v0,16(v1)
    6200:	af840100 	sw	a0,256(gp)
    6204:	92e204ec 	lbu	v0,1260(s7)
    6208:	14400036 	bnez	v0,0x62e4
    620c:	24090001 	li	t1,1
    6210:	8ee24e28 	lw	v0,20008(s7)
    6214:	000210c0 	sll	v0,v0,0x3
    6218:	24424e38 	addiu	v0,v0,20024
    621c:	02e22021 	addu	a0,s7,v0
    6220:	8c820000 	lw	v0,0(a0)
    6224:	1445001f 	bne	v0,a1,0x62a4
    6228:	00000000 	nop
    622c:	8ee34e28 	lw	v1,20008(s7)
    6230:	8ee24e2c 	lw	v0,20012(s7)
    6234:	1062001b 	beq	v1,v0,0x62a4
    6238:	24030040 	li	v1,64
    623c:	8c820004 	lw	v0,4(a0)
    6240:	24420001 	addiu	v0,v0,1
    6244:	ac820004 	sw	v0,4(a0)
    6248:	8ee24e2c 	lw	v0,20012(s7)
    624c:	8ee54e28 	lw	a1,20008(s7)
    6250:	24420001 	addiu	v0,v0,1
    6254:	10430007 	beq	v0,v1,0x6274
    6258:	00000000 	nop
    625c:	8ee24e2c 	lw	v0,20012(s7)
    6260:	24420001 	addiu	v0,v0,1
    6264:	10a20005 	beq	a1,v0,0x627c
    6268:	00000000 	nop
    626c:	080028a0 	j	0xa280
    6270:	00000000 	nop
    6274:	14a00005 	bnez	a1,0x628c
    6278:	00000000 	nop
    627c:	8f820108 	lw	v0,264(gp)
    6280:	24420020 	addiu	v0,v0,32
    6284:	af820108 	sw	v0,264(gp)
    6288:	8f820108 	lw	v0,264(gp)
    628c:	8c820004 	lw	v0,4(a0)
    6290:	2c420011 	sltiu	v0,v0,17
    6294:	50400013 	beqzl	v0,0x62e4
    6298:	ac800000 	sw	zero,0(a0)
    629c:	080028b6 	j	0xa2d8
    62a0:	00000000 	nop
    62a4:	8ee24e28 	lw	v0,20008(s7)
    62a8:	24030040 	li	v1,64
    62ac:	24420001 	addiu	v0,v0,1
    62b0:	50430003 	beql	v0,v1,0x62c0
    62b4:	00001021 	move	v0,zero
    62b8:	8ee24e28 	lw	v0,20008(s7)
    62bc:	24420001 	addiu	v0,v0,1
    62c0:	aee24e28 	sw	v0,20008(s7)
    62c4:	8ee24e28 	lw	v0,20008(s7)
    62c8:	000210c0 	sll	v0,v0,0x3
    62cc:	24424e38 	addiu	v0,v0,20024
    62d0:	02e22021 	addu	a0,s7,v0
    62d4:	24020005 	li	v0,5
    62d8:	ac820000 	sw	v0,0(a0)
    62dc:	24020001 	li	v0,1
    62e0:	ac820004 	sw	v0,4(a0)
    62e4:	1520000b 	bnez	t1,0x6314
    62e8:	3c050004 	lui	a1,0x4
    62ec:	3c040001 	lui	a0,0x1
    62f0:	24845748 	addiu	a0,a0,22344
    62f4:	afab0010 	sw	t3,16(sp)
    62f8:	afa00014 	sw	zero,20(sp)
    62fc:	8ee604e4 	lw	a2,1252(s7)
    6300:	34a5f017 	ori	a1,a1,0xf017
    6304:	0c002403 	jal	0x900c
    6308:	30e7ffff 	andi	a3,a3,0xffff
    630c:	080028e1 	j	0xa384
    6310:	00000000 	nop
    6314:	8ee27264 	lw	v0,29284(s7)
    6318:	3c050001 	lui	a1,0x1
    631c:	30e4ffff 	andi	a0,a3,0xffff
    6320:	00441021 	addu	v0,v0,a0
    6324:	aee27264 	sw	v0,29284(s7)
    6328:	8ee2725c 	lw	v0,29276(s7)
    632c:	8ee37264 	lw	v1,29284(s7)
    6330:	34a53800 	ori	a1,a1,0x3800
    6334:	00441021 	addu	v0,v0,a0
    6338:	aee2725c 	sw	v0,29276(s7)
    633c:	03651021 	addu	v0,k1,a1
    6340:	0062182b 	sltu	v1,v1,v0
    6344:	14600004 	bnez	v1,0x6358
    6348:	3c03ffff 	lui	v1,0xffff
    634c:	8ee27264 	lw	v0,29284(s7)
    6350:	00431021 	addu	v0,v0,v1
    6354:	aee27264 	sw	v0,29284(s7)
    6358:	8ee304e4 	lw	v1,1252(s7)
    635c:	96e20458 	lhu	v0,1112(s7)
    6360:	24630001 	addiu	v1,v1,1
    6364:	2442ffff 	addiu	v0,v0,-1
    6368:	00621824 	and	v1,v1,v0
    636c:	aee304e4 	sw	v1,1252(s7)
    6370:	8ee304e4 	lw	v1,1252(s7)
    6374:	8ee204e0 	lw	v0,1248(s7)
    6378:	14620005 	bne	v1,v0,0x6390
    637c:	00000000 	nop
    6380:	8f820060 	lw	v0,96(gp)
    6384:	2403fff7 	li	v1,-9
    6388:	00431024 	and	v0,v0,v1
    638c:	af820060 	sw	v0,96(gp)
    6390:	8fbf0020 	lw	ra,32(sp)
    6394:	03e00008 	jr	ra
    6398:	27bd0028 	addiu	sp,sp,40
    639c:	27bdffe0 	addiu	sp,sp,-32
    63a0:	afbf0018 	sw	ra,24(sp)
    63a4:	8ee304e8 	lw	v1,1256(s7)
    63a8:	8ee204e0 	lw	v0,1248(s7)
    63ac:	10620189 	beq	v1,v0,0x69d4
    63b0:	00000000 	nop
    63b4:	8ee204e8 	lw	v0,1256(s7)
    63b8:	8ee304fc 	lw	v1,1276(s7)
    63bc:	00021100 	sll	v0,v0,0x4
    63c0:	00621821 	addu	v1,v1,v0
    63c4:	94670008 	lhu	a3,8(v1)
    63c8:	92e204ed 	lbu	v0,1261(s7)
    63cc:	8c680000 	lw	t0,0(v1)
    63d0:	8c690004 	lw	t1,4(v1)
    63d4:	10400023 	beqz	v0,0x6464
    63d8:	946a000a 	lhu	t2,10(v1)
    63dc:	8ee204c8 	lw	v0,1224(s7)
    63e0:	34460400 	ori	a2,v0,0x400
    63e4:	31420200 	andi	v0,t2,0x200
    63e8:	1040001f 	beqz	v0,0x6468
    63ec:	00000000 	nop
    63f0:	96e2045a 	lhu	v0,1114(s7)
    63f4:	30420010 	andi	v0,v0,0x10
    63f8:	1040001b 	beqz	v0,0x6468
    63fc:	3c028000 	lui	v0,0x8000
    6400:	3c010001 	lui	at,0x1
    6404:	00370821 	addu	at,at,s7
    6408:	ac2283d8 	sw	v0,-31784(at)
    640c:	8ee27264 	lw	v0,29284(s7)
    6410:	9464000e 	lhu	a0,14(v1)
    6414:	3c050001 	lui	a1,0x1
    6418:	34a53800 	ori	a1,a1,0x3800
    641c:	24420004 	addiu	v0,v0,4
    6420:	aee27264 	sw	v0,29284(s7)
    6424:	8ee37264 	lw	v1,29284(s7)
    6428:	00042400 	sll	a0,a0,0x10
    642c:	03651021 	addu	v0,k1,a1
    6430:	3c010001 	lui	at,0x1
    6434:	00370821 	addu	at,at,s7
    6438:	ac2483dc 	sw	a0,-31780(at)
    643c:	0062182b 	sltu	v1,v1,v0
    6440:	14600005 	bnez	v1,0x6458
    6444:	24e70004 	addiu	a3,a3,4
    6448:	8ee27264 	lw	v0,29284(s7)
    644c:	3c03ffff 	lui	v1,0xffff
    6450:	00431021 	addu	v0,v0,v1
    6454:	aee27264 	sw	v0,29284(s7)
    6458:	8ee27264 	lw	v0,29284(s7)
    645c:	08002917 	j	0xa45c
    6460:	aee27258 	sw	v0,29272(s7)
    6464:	8ee604c8 	lw	a2,1224(s7)
    6468:	8ee2726c 	lw	v0,29292(s7)
    646c:	30e4ffff 	andi	a0,a3,0xffff
    6470:	0044102a 	slt	v0,v0,a0
    6474:	10400015 	beqz	v0,0x64cc
    6478:	00000000 	nop
    647c:	8f8200d8 	lw	v0,216(gp)
    6480:	8ee37258 	lw	v1,29272(s7)
    6484:	00431023 	subu	v0,v0,v1
    6488:	aee2726c 	sw	v0,29292(s7)
    648c:	8ee2726c 	lw	v0,29292(s7)
    6490:	1c400007 	bgtz	v0,0x64b0
    6494:	0044102a 	slt	v0,v0,a0
    6498:	8ee2726c 	lw	v0,29292(s7)
    649c:	3c030001 	lui	v1,0x1
    64a0:	00431021 	addu	v0,v0,v1
    64a4:	aee2726c 	sw	v0,29292(s7)
    64a8:	8ee2726c 	lw	v0,29292(s7)
    64ac:	0044102a 	slt	v0,v0,a0
    64b0:	10400006 	beqz	v0,0x64cc
    64b4:	00000000 	nop
    64b8:	8ee201b8 	lw	v0,440(s7)
    64bc:	24420001 	addiu	v0,v0,1
    64c0:	aee201b8 	sw	v0,440(s7)
    64c4:	08002a72 	j	0xa9c8
    64c8:	8ee201b8 	lw	v0,440(s7)
    64cc:	3c020001 	lui	v0,0x1
    64d0:	00571021 	addu	v0,v0,s7
    64d4:	8c4283d8 	lw	v0,-31784(v0)
    64d8:	54400001 	bnezl	v0,0x64e0
    64dc:	24e7fffc 	addiu	a3,a3,-4
    64e0:	31420004 	andi	v0,t2,0x4
    64e4:	104000b9 	beqz	v0,0x67cc
    64e8:	30e2ffff 	andi	v0,a3,0xffff
    64ec:	3c020001 	lui	v0,0x1
    64f0:	00571021 	addu	v0,v0,s7
    64f4:	8c4283d8 	lw	v0,-31784(v0)
    64f8:	1040002f 	beqz	v0,0x65b8
    64fc:	00005021 	move	t2,zero
    6500:	8f840100 	lw	a0,256(gp)
    6504:	27623000 	addiu	v0,k1,12288
    6508:	24850020 	addiu	a1,a0,32
    650c:	00a2102b 	sltu	v0,a1,v0
    6510:	50400001 	beqzl	v0,0x6518
    6514:	27652800 	addiu	a1,k1,10240
    6518:	8f820108 	lw	v0,264(gp)
    651c:	10a20032 	beq	a1,v0,0x65e8
    6520:	00000000 	nop
    6524:	8f820104 	lw	v0,260(gp)
    6528:	10a2002f 	beq	a1,v0,0x65e8
    652c:	24020015 	li	v0,21
    6530:	ac880000 	sw	t0,0(a0)
    6534:	ac890004 	sw	t1,4(a0)
    6538:	8ee37264 	lw	v1,29284(s7)
    653c:	a487000e 	sh	a3,14(a0)
    6540:	ac820018 	sw	v0,24(a0)
    6544:	ac830008 	sw	v1,8(a0)
    6548:	8ee204e8 	lw	v0,1256(s7)
    654c:	3c030001 	lui	v1,0x1
    6550:	00771821 	addu	v1,v1,s7
    6554:	8c6383dc 	lw	v1,-31780(v1)
    6558:	ac860010 	sw	a2,16(a0)
    655c:	00431025 	or	v0,v0,v1
    6560:	ac82001c 	sw	v0,28(a0)
    6564:	af850100 	sw	a1,256(gp)
    6568:	92e204ec 	lbu	v0,1260(s7)
    656c:	14400066 	bnez	v0,0x6708
    6570:	240a0001 	li	t2,1
    6574:	8ee24e28 	lw	v0,20008(s7)
    6578:	24030040 	li	v1,64
    657c:	24420001 	addiu	v0,v0,1
    6580:	50430003 	beql	v0,v1,0x6590
    6584:	00001021 	move	v0,zero
    6588:	8ee24e28 	lw	v0,20008(s7)
    658c:	24420001 	addiu	v0,v0,1
    6590:	aee24e28 	sw	v0,20008(s7)
    6594:	8ee24e28 	lw	v0,20008(s7)
    6598:	000210c0 	sll	v0,v0,0x3
    659c:	24424e38 	addiu	v0,v0,20024
    65a0:	02e21821 	addu	v1,s7,v0
    65a4:	24020015 	li	v0,21
    65a8:	ac620000 	sw	v0,0(v1)
    65ac:	24020001 	li	v0,1
    65b0:	080029bf 	j	0xa6fc
    65b4:	ac620004 	sw	v0,4(v1)
    65b8:	8f840100 	lw	a0,256(gp)
    65bc:	27623000 	addiu	v0,k1,12288
    65c0:	24850020 	addiu	a1,a0,32
    65c4:	00a2102b 	sltu	v0,a1,v0
    65c8:	50400001 	beqzl	v0,0x65d0
    65cc:	27652800 	addiu	a1,k1,10240
    65d0:	8f820108 	lw	v0,264(gp)
    65d4:	10a20004 	beq	a1,v0,0x65e8
    65d8:	00000000 	nop
    65dc:	8f820104 	lw	v0,260(gp)
    65e0:	14a20006 	bne	a1,v0,0x65fc
    65e4:	24020006 	li	v0,6
    65e8:	8ee201a8 	lw	v0,424(s7)
    65ec:	24420001 	addiu	v0,v0,1
    65f0:	aee201a8 	sw	v0,424(s7)
    65f4:	080029bf 	j	0xa6fc
    65f8:	8ee201a8 	lw	v0,424(s7)
    65fc:	ac880000 	sw	t0,0(a0)
    6600:	ac890004 	sw	t1,4(a0)
    6604:	8ee37264 	lw	v1,29284(s7)
    6608:	a487000e 	sh	a3,14(a0)
    660c:	ac820018 	sw	v0,24(a0)
    6610:	ac830008 	sw	v1,8(a0)
    6614:	8ee204e8 	lw	v0,1256(s7)
    6618:	ac860010 	sw	a2,16(a0)
    661c:	ac82001c 	sw	v0,28(a0)
    6620:	af850100 	sw	a1,256(gp)
    6624:	92e204ec 	lbu	v0,1260(s7)
    6628:	14400037 	bnez	v0,0x6708
    662c:	240a0001 	li	t2,1
    6630:	8ee24e28 	lw	v0,20008(s7)
    6634:	000210c0 	sll	v0,v0,0x3
    6638:	24424e38 	addiu	v0,v0,20024
    663c:	02e22021 	addu	a0,s7,v0
    6640:	8c830000 	lw	v1,0(a0)
    6644:	24020005 	li	v0,5
    6648:	1462001f 	bne	v1,v0,0x66c8
    664c:	00000000 	nop
    6650:	8ee34e28 	lw	v1,20008(s7)
    6654:	8ee24e2c 	lw	v0,20012(s7)
    6658:	1062001b 	beq	v1,v0,0x66c8
    665c:	24030040 	li	v1,64
    6660:	8c820004 	lw	v0,4(a0)
    6664:	24420001 	addiu	v0,v0,1
    6668:	ac820004 	sw	v0,4(a0)
    666c:	8ee24e2c 	lw	v0,20012(s7)
    6670:	8ee54e28 	lw	a1,20008(s7)
    6674:	24420001 	addiu	v0,v0,1
    6678:	10430007 	beq	v0,v1,0x6698
    667c:	00000000 	nop
    6680:	8ee24e2c 	lw	v0,20012(s7)
    6684:	24420001 	addiu	v0,v0,1
    6688:	10a20005 	beq	a1,v0,0x66a0
    668c:	00000000 	nop
    6690:	080029a9 	j	0xa6a4
    6694:	00000000 	nop
    6698:	14a00005 	bnez	a1,0x66b0
    669c:	00000000 	nop
    66a0:	8f820108 	lw	v0,264(gp)
    66a4:	24420020 	addiu	v0,v0,32
    66a8:	af820108 	sw	v0,264(gp)
    66ac:	8f820108 	lw	v0,264(gp)
    66b0:	8c820004 	lw	v0,4(a0)
    66b4:	2c420011 	sltiu	v0,v0,17
    66b8:	50400013 	beqzl	v0,0x6708
    66bc:	ac800000 	sw	zero,0(a0)
    66c0:	080029bf 	j	0xa6fc
    66c4:	00000000 	nop
    66c8:	8ee24e28 	lw	v0,20008(s7)
    66cc:	24030040 	li	v1,64
    66d0:	24420001 	addiu	v0,v0,1
    66d4:	50430003 	beql	v0,v1,0x66e4
    66d8:	00001021 	move	v0,zero
    66dc:	8ee24e28 	lw	v0,20008(s7)
    66e0:	24420001 	addiu	v0,v0,1
    66e4:	aee24e28 	sw	v0,20008(s7)
    66e8:	8ee24e28 	lw	v0,20008(s7)
    66ec:	000210c0 	sll	v0,v0,0x3
    66f0:	24424e38 	addiu	v0,v0,20024
    66f4:	02e22021 	addu	a0,s7,v0
    66f8:	24020005 	li	v0,5
    66fc:	ac820000 	sw	v0,0(a0)
    6700:	24020001 	li	v0,1
    6704:	ac820004 	sw	v0,4(a0)
    6708:	1540000a 	bnez	t2,0x6734
    670c:	24020001 	li	v0,1
    6710:	afa90010 	sw	t1,16(sp)
    6714:	8ee27264 	lw	v0,29284(s7)
    6718:	3c040001 	lui	a0,0x1
    671c:	24845730 	addiu	a0,a0,22320
    6720:	3c050004 	lui	a1,0x4
    6724:	afa20014 	sw	v0,20(sp)
    6728:	8ee604e4 	lw	a2,1252(s7)
    672c:	08002a4f 	j	0xa93c
    6730:	34a5f204 	ori	a1,a1,0xf204
    6734:	a2e204ed 	sb	v0,1261(s7)
    6738:	8ee204e8 	lw	v0,1256(s7)
    673c:	8ee304fc 	lw	v1,1276(s7)
    6740:	8ee47258 	lw	a0,29272(s7)
    6744:	3c060001 	lui	a2,0x1
    6748:	34c63800 	ori	a2,a2,0x3800
    674c:	3c010001 	lui	at,0x1
    6750:	00370821 	addu	at,at,s7
    6754:	ac2083d8 	sw	zero,-31784(at)
    6758:	3c010001 	lui	at,0x1
    675c:	00370821 	addu	at,at,s7
    6760:	ac2083dc 	sw	zero,-31780(at)
    6764:	00021100 	sll	v0,v0,0x4
    6768:	00431021 	addu	v0,v0,v1
    676c:	ac44000c 	sw	a0,12(v0)
    6770:	8ee27264 	lw	v0,29284(s7)
    6774:	2405fff8 	li	a1,-8
    6778:	30e3ffff 	andi	v1,a3,0xffff
    677c:	00431021 	addu	v0,v0,v1
    6780:	24420007 	addiu	v0,v0,7
    6784:	00451024 	and	v0,v0,a1
    6788:	24630007 	addiu	v1,v1,7
    678c:	aee27258 	sw	v0,29272(s7)
    6790:	8ee2726c 	lw	v0,29292(s7)
    6794:	8ee47258 	lw	a0,29272(s7)
    6798:	00651824 	and	v1,v1,a1
    679c:	00431023 	subu	v0,v0,v1
    67a0:	aee2726c 	sw	v0,29292(s7)
    67a4:	03661021 	addu	v0,k1,a2
    67a8:	0082202b 	sltu	a0,a0,v0
    67ac:	14800004 	bnez	a0,0x67c0
    67b0:	3c03ffff 	lui	v1,0xffff
    67b4:	8ee27258 	lw	v0,29272(s7)
    67b8:	00431021 	addu	v0,v0,v1
    67bc:	aee27258 	sw	v0,29272(s7)
    67c0:	8ee27258 	lw	v0,29272(s7)
    67c4:	08002a64 	j	0xa990
    67c8:	aee27264 	sw	v0,29284(s7)
    67cc:	10400073 	beqz	v0,0x699c
    67d0:	00000000 	nop
    67d4:	8f830100 	lw	v1,256(gp)
    67d8:	27623000 	addiu	v0,k1,12288
    67dc:	24640020 	addiu	a0,v1,32
    67e0:	0082102b 	sltu	v0,a0,v0
    67e4:	14400002 	bnez	v0,0x67f0
    67e8:	00005021 	move	t2,zero
    67ec:	27642800 	addiu	a0,k1,10240
    67f0:	8f820108 	lw	v0,264(gp)
    67f4:	10820004 	beq	a0,v0,0x6808
    67f8:	00000000 	nop
    67fc:	8f820104 	lw	v0,260(gp)
    6800:	14820006 	bne	a0,v0,0x681c
    6804:	24050005 	li	a1,5
    6808:	8ee201a8 	lw	v0,424(s7)
    680c:	24420001 	addiu	v0,v0,1
    6810:	aee201a8 	sw	v0,424(s7)
    6814:	08002a46 	j	0xa918
    6818:	8ee201a8 	lw	v0,424(s7)
    681c:	ac680000 	sw	t0,0(v1)
    6820:	ac690004 	sw	t1,4(v1)
    6824:	8ee27264 	lw	v0,29284(s7)
    6828:	a467000e 	sh	a3,14(v1)
    682c:	ac650018 	sw	a1,24(v1)
    6830:	ac620008 	sw	v0,8(v1)
    6834:	8ee204e8 	lw	v0,1256(s7)
    6838:	ac660010 	sw	a2,16(v1)
    683c:	ac62001c 	sw	v0,28(v1)
    6840:	af840100 	sw	a0,256(gp)
    6844:	92e204ec 	lbu	v0,1260(s7)
    6848:	14400036 	bnez	v0,0x6924
    684c:	240a0001 	li	t2,1
    6850:	8ee24e28 	lw	v0,20008(s7)
    6854:	000210c0 	sll	v0,v0,0x3
    6858:	24424e38 	addiu	v0,v0,20024
    685c:	02e22021 	addu	a0,s7,v0
    6860:	8c820000 	lw	v0,0(a0)
    6864:	1445001f 	bne	v0,a1,0x68e4
    6868:	00000000 	nop
    686c:	8ee34e28 	lw	v1,20008(s7)
    6870:	8ee24e2c 	lw	v0,20012(s7)
    6874:	1062001b 	beq	v1,v0,0x68e4
    6878:	24030040 	li	v1,64
    687c:	8c820004 	lw	v0,4(a0)
    6880:	24420001 	addiu	v0,v0,1
    6884:	ac820004 	sw	v0,4(a0)
    6888:	8ee24e2c 	lw	v0,20012(s7)
    688c:	8ee54e28 	lw	a1,20008(s7)
    6890:	24420001 	addiu	v0,v0,1
    6894:	10430007 	beq	v0,v1,0x68b4
    6898:	00000000 	nop
    689c:	8ee24e2c 	lw	v0,20012(s7)
    68a0:	24420001 	addiu	v0,v0,1
    68a4:	10a20005 	beq	a1,v0,0x68bc
    68a8:	00000000 	nop
    68ac:	08002a30 	j	0xa8c0
    68b0:	00000000 	nop
    68b4:	14a00005 	bnez	a1,0x68cc
    68b8:	00000000 	nop
    68bc:	8f820108 	lw	v0,264(gp)
    68c0:	24420020 	addiu	v0,v0,32
    68c4:	af820108 	sw	v0,264(gp)
    68c8:	8f820108 	lw	v0,264(gp)
    68cc:	8c820004 	lw	v0,4(a0)
    68d0:	2c420011 	sltiu	v0,v0,17
    68d4:	50400013 	beqzl	v0,0x6924
    68d8:	ac800000 	sw	zero,0(a0)
    68dc:	08002a46 	j	0xa918
    68e0:	00000000 	nop
    68e4:	8ee24e28 	lw	v0,20008(s7)
    68e8:	24030040 	li	v1,64
    68ec:	24420001 	addiu	v0,v0,1
    68f0:	50430003 	beql	v0,v1,0x6900
    68f4:	00001021 	move	v0,zero
    68f8:	8ee24e28 	lw	v0,20008(s7)
    68fc:	24420001 	addiu	v0,v0,1
    6900:	aee24e28 	sw	v0,20008(s7)
    6904:	8ee24e28 	lw	v0,20008(s7)
    6908:	000210c0 	sll	v0,v0,0x3
    690c:	24424e38 	addiu	v0,v0,20024
    6910:	02e22021 	addu	a0,s7,v0
    6914:	24020005 	li	v0,5
    6918:	ac820000 	sw	v0,0(a0)
    691c:	24020001 	li	v0,1
    6920:	ac820004 	sw	v0,4(a0)
    6924:	1540000c 	bnez	t2,0x6958
    6928:	30e5ffff 	andi	a1,a3,0xffff
    692c:	3c040001 	lui	a0,0x1
    6930:	24845748 	addiu	a0,a0,22344
    6934:	3c050004 	lui	a1,0x4
    6938:	afa90010 	sw	t1,16(sp)
    693c:	afa00014 	sw	zero,20(sp)
    6940:	8ee604e4 	lw	a2,1252(s7)
    6944:	34a5f237 	ori	a1,a1,0xf237
    6948:	0c002403 	jal	0x900c
    694c:	30e7ffff 	andi	a3,a3,0xffff
    6950:	08002a72 	j	0xa9c8
    6954:	00000000 	nop
    6958:	8ee27264 	lw	v0,29284(s7)
    695c:	00451021 	addu	v0,v0,a1
    6960:	aee27264 	sw	v0,29284(s7)
    6964:	8ee2726c 	lw	v0,29292(s7)
    6968:	8ee37264 	lw	v1,29284(s7)
    696c:	3c040001 	lui	a0,0x1
    6970:	34843800 	ori	a0,a0,0x3800
    6974:	a2e004ed 	sb	zero,1261(s7)
    6978:	00451023 	subu	v0,v0,a1
    697c:	aee2726c 	sw	v0,29292(s7)
    6980:	03641021 	addu	v0,k1,a0
    6984:	0062182b 	sltu	v1,v1,v0
    6988:	14600004 	bnez	v1,0x699c
    698c:	3c03ffff 	lui	v1,0xffff
    6990:	8ee27264 	lw	v0,29284(s7)
    6994:	00431021 	addu	v0,v0,v1
    6998:	aee27264 	sw	v0,29284(s7)
    699c:	8ee304e8 	lw	v1,1256(s7)
    69a0:	96e20458 	lhu	v0,1112(s7)
    69a4:	24630001 	addiu	v1,v1,1
    69a8:	2442ffff 	addiu	v0,v0,-1
    69ac:	00621824 	and	v1,v1,v0
    69b0:	aee304e8 	sw	v1,1256(s7)
    69b4:	8ee304e8 	lw	v1,1256(s7)
    69b8:	8ee204e0 	lw	v0,1248(s7)
    69bc:	14620005 	bne	v1,v0,0x69d4
    69c0:	00000000 	nop
    69c4:	8f820060 	lw	v0,96(gp)
    69c8:	2403fff7 	li	v1,-9
    69cc:	00431024 	and	v0,v0,v1
    69d0:	af820060 	sw	v0,96(gp)
    69d4:	8fbf0018 	lw	ra,24(sp)
    69d8:	03e00008 	jr	ra
    69dc:	27bd0020 	addiu	sp,sp,32
    69e0:	27bdffe0 	addiu	sp,sp,-32
    69e4:	afbf001c 	sw	ra,28(sp)
    69e8:	afb00018 	sw	s0,24(sp)
    69ec:	8f820100 	lw	v0,256(gp)
    69f0:	8ee34e2c 	lw	v1,20012(s7)
    69f4:	8f820104 	lw	v0,260(gp)
    69f8:	8f850108 	lw	a1,264(gp)
    69fc:	24020040 	li	v0,64
    6a00:	24630001 	addiu	v1,v1,1
    6a04:	50620003 	beql	v1,v0,0x6a14
    6a08:	00001021 	move	v0,zero
    6a0c:	8ee24e2c 	lw	v0,20012(s7)
    6a10:	24420001 	addiu	v0,v0,1
    6a14:	aee24e2c 	sw	v0,20012(s7)
    6a18:	8ee24e2c 	lw	v0,20012(s7)
    6a1c:	8ee34e2c 	lw	v1,20012(s7)
    6a20:	000210c0 	sll	v0,v0,0x3
    6a24:	24424e38 	addiu	v0,v0,20024
    6a28:	02e22021 	addu	a0,s7,v0
    6a2c:	8ee24e28 	lw	v0,20008(s7)
    6a30:	8c870004 	lw	a3,4(a0)
    6a34:	14620007 	bne	v1,v0,0x6a54
    6a38:	00a03021 	move	a2,a1
    6a3c:	8f820108 	lw	v0,264(gp)
    6a40:	24420020 	addiu	v0,v0,32
    6a44:	af820108 	sw	v0,264(gp)
    6a48:	8f820108 	lw	v0,264(gp)
    6a4c:	08002aa2 	j	0xaa88
    6a50:	ac800000 	sw	zero,0(a0)
    6a54:	8ee24e2c 	lw	v0,20012(s7)
    6a58:	24030040 	li	v1,64
    6a5c:	24420001 	addiu	v0,v0,1
    6a60:	50430003 	beql	v0,v1,0x6a70
    6a64:	00001021 	move	v0,zero
    6a68:	8ee24e2c 	lw	v0,20012(s7)
    6a6c:	24420001 	addiu	v0,v0,1
    6a70:	000210c0 	sll	v0,v0,0x3
    6a74:	24424e38 	addiu	v0,v0,20024
    6a78:	02e22021 	addu	a0,s7,v0
    6a7c:	8c820004 	lw	v0,4(a0)
    6a80:	8f830108 	lw	v1,264(gp)
    6a84:	00021140 	sll	v0,v0,0x5
    6a88:	00621821 	addu	v1,v1,v0
    6a8c:	af830108 	sw	v1,264(gp)
    6a90:	ac800000 	sw	zero,0(a0)
    6a94:	8cc20018 	lw	v0,24(a2)
    6a98:	2443fffe 	addiu	v1,v0,-2
    6a9c:	2c620013 	sltiu	v0,v1,19
    6aa0:	104000c1 	beqz	v0,0x6da8
    6aa4:	00031080 	sll	v0,v1,0x2
    6aa8:	3c010001 	lui	at,0x1
    6aac:	00220821 	addu	at,at,v0
    6ab0:	8c225770 	lw	v0,22384(at)
    6ab4:	00400008 	jr	v0
    6ab8:	00000000 	nop
    6abc:	8ee204f0 	lw	v0,1264(s7)
    6ac0:	00471021 	addu	v0,v0,a3
    6ac4:	aee204f0 	sw	v0,1264(s7)
    6ac8:	8ee204f0 	lw	v0,1264(s7)
    6acc:	8f43023c 	lw	v1,572(k0)
    6ad0:	0043102b 	sltu	v0,v0,v1
    6ad4:	144000be 	bnez	v0,0x6dd0
    6ad8:	00000000 	nop
    6adc:	8ee304e4 	lw	v1,1252(s7)
    6ae0:	8ee204f8 	lw	v0,1272(s7)
    6ae4:	506200ba 	beql	v1,v0,0x6dd0
    6ae8:	a2e004f4 	sb	zero,1268(s7)
    6aec:	8f830120 	lw	v1,288(gp)
    6af0:	27623800 	addiu	v0,k1,14336
    6af4:	24660020 	addiu	a2,v1,32
    6af8:	00c2102b 	sltu	v0,a2,v0
    6afc:	50400001 	beqzl	v0,0x6b04
    6b00:	27663000 	addiu	a2,k1,12288
    6b04:	8f820128 	lw	v0,296(gp)
    6b08:	10c20004 	beq	a2,v0,0x6b1c
    6b0c:	00000000 	nop
    6b10:	8f820124 	lw	v0,292(gp)
    6b14:	14c20007 	bne	a2,v0,0x6b34
    6b18:	00000000 	nop
    6b1c:	8ee201a4 	lw	v0,420(s7)
    6b20:	00008021 	move	s0,zero
    6b24:	24420001 	addiu	v0,v0,1
    6b28:	aee201a4 	sw	v0,420(s7)
    6b2c:	08002b12 	j	0xac48
    6b30:	8ee201a4 	lw	v0,420(s7)
    6b34:	8ee204e4 	lw	v0,1252(s7)
    6b38:	ac62001c 	sw	v0,28(v1)
    6b3c:	8ee404b0 	lw	a0,1200(s7)
    6b40:	8ee504b4 	lw	a1,1204(s7)
    6b44:	2462001c 	addiu	v0,v1,28
    6b48:	ac620008 	sw	v0,8(v1)
    6b4c:	24020008 	li	v0,8
    6b50:	a462000e 	sh	v0,14(v1)
    6b54:	24020011 	li	v0,17
    6b58:	ac620018 	sw	v0,24(v1)
    6b5c:	ac640000 	sw	a0,0(v1)
    6b60:	ac650004 	sw	a1,4(v1)
    6b64:	8ee204c4 	lw	v0,1220(s7)
    6b68:	ac620010 	sw	v0,16(v1)
    6b6c:	af860120 	sw	a2,288(gp)
    6b70:	92e24e20 	lbu	v0,20000(s7)
    6b74:	14400037 	bnez	v0,0x6c54
    6b78:	24100001 	li	s0,1
    6b7c:	8ee24e30 	lw	v0,20016(s7)
    6b80:	000210c0 	sll	v0,v0,0x3
    6b84:	24425038 	addiu	v0,v0,20536
    6b88:	02e22021 	addu	a0,s7,v0
    6b8c:	8c830000 	lw	v1,0(a0)
    6b90:	24020012 	li	v0,18
    6b94:	1462001f 	bne	v1,v0,0x6c14
    6b98:	00000000 	nop
    6b9c:	8ee34e30 	lw	v1,20016(s7)
    6ba0:	8ee24e34 	lw	v0,20020(s7)
    6ba4:	1062001b 	beq	v1,v0,0x6c14
    6ba8:	24030040 	li	v1,64
    6bac:	8c820004 	lw	v0,4(a0)
    6bb0:	24420001 	addiu	v0,v0,1
    6bb4:	ac820004 	sw	v0,4(a0)
    6bb8:	8ee24e34 	lw	v0,20020(s7)
    6bbc:	8ee54e30 	lw	a1,20016(s7)
    6bc0:	24420001 	addiu	v0,v0,1
    6bc4:	10430007 	beq	v0,v1,0x6be4
    6bc8:	00000000 	nop
    6bcc:	8ee24e34 	lw	v0,20020(s7)
    6bd0:	24420001 	addiu	v0,v0,1
    6bd4:	10a20005 	beq	a1,v0,0x6bec
    6bd8:	00000000 	nop
    6bdc:	08002afc 	j	0xabf0
    6be0:	00000000 	nop
    6be4:	14a00005 	bnez	a1,0x6bfc
    6be8:	00000000 	nop
    6bec:	8f820128 	lw	v0,296(gp)
    6bf0:	24420020 	addiu	v0,v0,32
    6bf4:	af820128 	sw	v0,296(gp)
    6bf8:	8f820128 	lw	v0,296(gp)
    6bfc:	8c820004 	lw	v0,4(a0)
    6c00:	2c420011 	sltiu	v0,v0,17
    6c04:	50400013 	beqzl	v0,0x6c54
    6c08:	ac800000 	sw	zero,0(a0)
    6c0c:	08002b12 	j	0xac48
    6c10:	00000000 	nop
    6c14:	8ee24e30 	lw	v0,20016(s7)
    6c18:	24030040 	li	v1,64
    6c1c:	24420001 	addiu	v0,v0,1
    6c20:	50430003 	beql	v0,v1,0x6c30
    6c24:	00001021 	move	v0,zero
    6c28:	8ee24e30 	lw	v0,20016(s7)
    6c2c:	24420001 	addiu	v0,v0,1
    6c30:	aee24e30 	sw	v0,20016(s7)
    6c34:	8ee24e30 	lw	v0,20016(s7)
    6c38:	000210c0 	sll	v0,v0,0x3
    6c3c:	24425038 	addiu	v0,v0,20536
    6c40:	02e22021 	addu	a0,s7,v0
    6c44:	24020012 	li	v0,18
    6c48:	ac820000 	sw	v0,0(a0)
    6c4c:	24020001 	li	v0,1
    6c50:	ac820004 	sw	v0,4(a0)
    6c54:	5600000b 	bnezl	s0,0x6c84
    6c58:	24100001 	li	s0,1
    6c5c:	8ee204e4 	lw	v0,1252(s7)
    6c60:	3c040001 	lui	a0,0x1
    6c64:	24845754 	addiu	a0,a0,22356
    6c68:	afa00014 	sw	zero,20(sp)
    6c6c:	afa20010 	sw	v0,16(sp)
    6c70:	8ee60608 	lw	a2,1544(s7)
    6c74:	8f470228 	lw	a3,552(k0)
    6c78:	3c050009 	lui	a1,0x9
    6c7c:	0c002403 	jal	0x900c
    6c80:	34a5f006 	ori	a1,a1,0xf006
    6c84:	16000003 	bnez	s0,0x6c94
    6c88:	24020001 	li	v0,1
    6c8c:	08002b71 	j	0xadc4
    6c90:	a2e204f4 	sb	v0,1268(s7)
    6c94:	8ee20170 	lw	v0,368(s7)
    6c98:	24420001 	addiu	v0,v0,1
    6c9c:	aee20170 	sw	v0,368(s7)
    6ca0:	8ee20170 	lw	v0,368(s7)
    6ca4:	8ee204e4 	lw	v0,1252(s7)
    6ca8:	a2e004f4 	sb	zero,1268(s7)
    6cac:	aee004f0 	sw	zero,1264(s7)
    6cb0:	aee204f8 	sw	v0,1272(s7)
    6cb4:	8f42023c 	lw	v0,572(k0)
    6cb8:	50400045 	beqzl	v0,0x6dd0
    6cbc:	aee07274 	sw	zero,29300(s7)
    6cc0:	8ee20184 	lw	v0,388(s7)
    6cc4:	24420001 	addiu	v0,v0,1
    6cc8:	aee20184 	sw	v0,388(s7)
    6ccc:	8ee20184 	lw	v0,388(s7)
    6cd0:	08002b71 	j	0xadc4
    6cd4:	aee07274 	sw	zero,29300(s7)
    6cd8:	8ee20504 	lw	v0,1284(s7)
    6cdc:	24030040 	li	v1,64
    6ce0:	24420001 	addiu	v0,v0,1
    6ce4:	50430003 	beql	v0,v1,0x6cf4
    6ce8:	00001021 	move	v0,zero
    6cec:	8ee20504 	lw	v0,1284(s7)
    6cf0:	24420001 	addiu	v0,v0,1
    6cf4:	aee20504 	sw	v0,1284(s7)
    6cf8:	8ee20504 	lw	v0,1284(s7)
    6cfc:	8cc30018 	lw	v1,24(a2)
    6d00:	00021080 	sll	v0,v0,0x2
    6d04:	00571021 	addu	v0,v0,s7
    6d08:	8c440508 	lw	a0,1288(v0)
    6d0c:	24020003 	li	v0,3
    6d10:	1462000f 	bne	v1,v0,0x6d50
    6d14:	00000000 	nop
    6d18:	3c020001 	lui	v0,0x1
    6d1c:	00571021 	addu	v0,v0,s7
    6d20:	904283b1 	lbu	v0,-31823(v0)
    6d24:	10400014 	beqz	v0,0x6d78
    6d28:	00000000 	nop
    6d2c:	8ee201d0 	lw	v0,464(s7)
    6d30:	8ee35240 	lw	v1,21056(s7)
    6d34:	00441021 	addu	v0,v0,a0
    6d38:	aee201d0 	sw	v0,464(s7)
    6d3c:	8ee201d8 	lw	v0,472(s7)
    6d40:	00641821 	addu	v1,v1,a0
    6d44:	306300ff 	andi	v1,v1,0xff
    6d48:	08002b59 	j	0xad64
    6d4c:	aee35240 	sw	v1,21056(s7)
    6d50:	8ee201cc 	lw	v0,460(s7)
    6d54:	8ee30e10 	lw	v1,3600(s7)
    6d58:	00441021 	addu	v0,v0,a0
    6d5c:	aee201cc 	sw	v0,460(s7)
    6d60:	8ee201d8 	lw	v0,472(s7)
    6d64:	00641821 	addu	v1,v1,a0
    6d68:	306301ff 	andi	v1,v1,0x1ff
    6d6c:	aee30e10 	sw	v1,3600(s7)
    6d70:	00441021 	addu	v0,v0,a0
    6d74:	aee201d8 	sw	v0,472(s7)
    6d78:	8ee20000 	lw	v0,0(s7)
    6d7c:	34420040 	ori	v0,v0,0x40
    6d80:	08002b71 	j	0xadc4
    6d84:	aee20000 	sw	v0,0(s7)
    6d88:	8ee2014c 	lw	v0,332(s7)
    6d8c:	3c010001 	lui	at,0x1
    6d90:	00370821 	addu	at,at,s7
    6d94:	a02083e0 	sb	zero,-31776(at)
    6d98:	24420001 	addiu	v0,v0,1
    6d9c:	aee2014c 	sw	v0,332(s7)
    6da0:	08002b71 	j	0xadc4
    6da4:	8ee2014c 	lw	v0,332(s7)
    6da8:	94c7000e 	lhu	a3,14(a2)
    6dac:	8cc2001c 	lw	v0,28(a2)
    6db0:	3c040001 	lui	a0,0x1
    6db4:	24845760 	addiu	a0,a0,22368
    6db8:	afa60014 	sw	a2,20(sp)
    6dbc:	afa20010 	sw	v0,16(sp)
    6dc0:	8cc60018 	lw	a2,24(a2)
    6dc4:	3c050008 	lui	a1,0x8
    6dc8:	0c002403 	jal	0x900c
    6dcc:	34a50910 	ori	a1,a1,0x910
    6dd0:	8fbf001c 	lw	ra,28(sp)
    6dd4:	8fb00018 	lw	s0,24(sp)
    6dd8:	03e00008 	jr	ra
    6ddc:	27bd0020 	addiu	sp,sp,32
    6de0:	27bdff98 	addiu	sp,sp,-104
    6de4:	afbf0060 	sw	ra,96(sp)
    6de8:	afbe005c 	sw	s8,92(sp)
    6dec:	afb60058 	sw	s6,88(sp)
    6df0:	afb50054 	sw	s5,84(sp)
    6df4:	afb40050 	sw	s4,80(sp)
    6df8:	afb3004c 	sw	s3,76(sp)
    6dfc:	afb20048 	sw	s2,72(sp)
    6e00:	afb10044 	sw	s1,68(sp)
    6e04:	afb00040 	sw	s0,64(sp)
    6e08:	8f830108 	lw	v1,264(gp)
    6e0c:	8f820104 	lw	v0,260(gp)
    6e10:	afa00024 	sw	zero,36(sp)
    6e14:	106203e7 	beq	v1,v0,0x7db4
    6e18:	afa0002c 	sw	zero,44(sp)
    6e1c:	3c1e0001 	lui	s8,0x1
    6e20:	37de3800 	ori	s8,s8,0x3800
    6e24:	3c0bffff 	lui	t3,0xffff
    6e28:	8f930108 	lw	s3,264(gp)
    6e2c:	8e620018 	lw	v0,24(s3)
    6e30:	8f830104 	lw	v1,260(gp)
    6e34:	2443fffe 	addiu	v1,v0,-2
    6e38:	2c620014 	sltiu	v0,v1,20
    6e3c:	104003cf 	beqz	v0,0x7d7c
    6e40:	00031080 	sll	v0,v1,0x2
    6e44:	3c010001 	lui	at,0x1
    6e48:	00220821 	addu	at,at,v0
    6e4c:	8c2257c0 	lw	v0,22464(at)
    6e50:	00400008 	jr	v0
    6e54:	00000000 	nop
    6e58:	9663000e 	lhu	v1,14(s3)
    6e5c:	8ee2725c 	lw	v0,29276(s7)
    6e60:	8ee404f0 	lw	a0,1264(s7)
    6e64:	00431021 	addu	v0,v0,v1
    6e68:	aee2725c 	sw	v0,29276(s7)
    6e6c:	8e63001c 	lw	v1,28(s3)
    6e70:	96e20458 	lhu	v0,1112(s7)
    6e74:	24840001 	addiu	a0,a0,1
    6e78:	aee404f0 	sw	a0,1264(s7)
    6e7c:	24630001 	addiu	v1,v1,1
    6e80:	2442ffff 	addiu	v0,v0,-1
    6e84:	00621824 	and	v1,v1,v0
    6e88:	aee304e4 	sw	v1,1252(s7)
    6e8c:	8f42023c 	lw	v0,572(k0)
    6e90:	0082202b 	sltu	a0,a0,v0
    6e94:	148003b9 	bnez	a0,0x7d7c
    6e98:	00000000 	nop
    6e9c:	8f830120 	lw	v1,288(gp)
    6ea0:	27623800 	addiu	v0,k1,14336
    6ea4:	24660020 	addiu	a2,v1,32
    6ea8:	00c2102b 	sltu	v0,a2,v0
    6eac:	50400001 	beqzl	v0,0x6eb4
    6eb0:	27663000 	addiu	a2,k1,12288
    6eb4:	8f820128 	lw	v0,296(gp)
    6eb8:	10c20004 	beq	a2,v0,0x6ecc
    6ebc:	00000000 	nop
    6ec0:	8f820124 	lw	v0,292(gp)
    6ec4:	14c20007 	bne	a2,v0,0x6ee4
    6ec8:	00000000 	nop
    6ecc:	8ee201a4 	lw	v0,420(s7)
    6ed0:	00008021 	move	s0,zero
    6ed4:	24420001 	addiu	v0,v0,1
    6ed8:	aee201a4 	sw	v0,420(s7)
    6edc:	08002bfe 	j	0xaff8
    6ee0:	8ee201a4 	lw	v0,420(s7)
    6ee4:	8ee204e4 	lw	v0,1252(s7)
    6ee8:	ac62001c 	sw	v0,28(v1)
    6eec:	8ee404b0 	lw	a0,1200(s7)
    6ef0:	8ee504b4 	lw	a1,1204(s7)
    6ef4:	2462001c 	addiu	v0,v1,28
    6ef8:	ac620008 	sw	v0,8(v1)
    6efc:	24020008 	li	v0,8
    6f00:	a462000e 	sh	v0,14(v1)
    6f04:	24020011 	li	v0,17
    6f08:	ac620018 	sw	v0,24(v1)
    6f0c:	ac640000 	sw	a0,0(v1)
    6f10:	ac650004 	sw	a1,4(v1)
    6f14:	8ee204c4 	lw	v0,1220(s7)
    6f18:	ac620010 	sw	v0,16(v1)
    6f1c:	af860120 	sw	a2,288(gp)
    6f20:	92e24e20 	lbu	v0,20000(s7)
    6f24:	14400037 	bnez	v0,0x7004
    6f28:	24100001 	li	s0,1
    6f2c:	8ee24e30 	lw	v0,20016(s7)
    6f30:	000210c0 	sll	v0,v0,0x3
    6f34:	24425038 	addiu	v0,v0,20536
    6f38:	02e22021 	addu	a0,s7,v0
    6f3c:	8c830000 	lw	v1,0(a0)
    6f40:	24020012 	li	v0,18
    6f44:	1462001f 	bne	v1,v0,0x6fc4
    6f48:	00000000 	nop
    6f4c:	8ee34e30 	lw	v1,20016(s7)
    6f50:	8ee24e34 	lw	v0,20020(s7)
    6f54:	1062001b 	beq	v1,v0,0x6fc4
    6f58:	240c0040 	li	t4,64
    6f5c:	8c820004 	lw	v0,4(a0)
    6f60:	24420001 	addiu	v0,v0,1
    6f64:	ac820004 	sw	v0,4(a0)
    6f68:	8ee24e34 	lw	v0,20020(s7)
    6f6c:	8ee34e30 	lw	v1,20016(s7)
    6f70:	24420001 	addiu	v0,v0,1
    6f74:	104c0007 	beq	v0,t4,0x6f94
    6f78:	00000000 	nop
    6f7c:	8ee24e34 	lw	v0,20020(s7)
    6f80:	24420001 	addiu	v0,v0,1
    6f84:	10620005 	beq	v1,v0,0x6f9c
    6f88:	00000000 	nop
    6f8c:	08002be8 	j	0xafa0
    6f90:	00000000 	nop
    6f94:	14600005 	bnez	v1,0x6fac
    6f98:	00000000 	nop
    6f9c:	8f820128 	lw	v0,296(gp)
    6fa0:	24420020 	addiu	v0,v0,32
    6fa4:	af820128 	sw	v0,296(gp)
    6fa8:	8f820128 	lw	v0,296(gp)
    6fac:	8c820004 	lw	v0,4(a0)
    6fb0:	2c420011 	sltiu	v0,v0,17
    6fb4:	50400013 	beqzl	v0,0x7004
    6fb8:	ac800000 	sw	zero,0(a0)
    6fbc:	08002bfe 	j	0xaff8
    6fc0:	00000000 	nop
    6fc4:	8ee24e30 	lw	v0,20016(s7)
    6fc8:	240c0040 	li	t4,64
    6fcc:	24420001 	addiu	v0,v0,1
    6fd0:	504c0003 	beql	v0,t4,0x6fe0
    6fd4:	00001021 	move	v0,zero
    6fd8:	8ee24e30 	lw	v0,20016(s7)
    6fdc:	24420001 	addiu	v0,v0,1
    6fe0:	aee24e30 	sw	v0,20016(s7)
    6fe4:	8ee24e30 	lw	v0,20016(s7)
    6fe8:	000210c0 	sll	v0,v0,0x3
    6fec:	24425038 	addiu	v0,v0,20536
    6ff0:	02e22021 	addu	a0,s7,v0
    6ff4:	24020012 	li	v0,18
    6ff8:	240c0001 	li	t4,1
    6ffc:	ac820000 	sw	v0,0(a0)
    7000:	ac8c0004 	sw	t4,4(a0)
    7004:	5600000d 	bnezl	s0,0x703c
    7008:	24100001 	li	s0,1
    700c:	8ee204e4 	lw	v0,1252(s7)
    7010:	3c040001 	lui	a0,0x1
    7014:	24845754 	addiu	a0,a0,22356
    7018:	afa00014 	sw	zero,20(sp)
    701c:	afa20010 	sw	v0,16(sp)
    7020:	8ee60608 	lw	a2,1544(s7)
    7024:	8f470228 	lw	a3,552(k0)
    7028:	3c050009 	lui	a1,0x9
    702c:	34a5f006 	ori	a1,a1,0xf006
    7030:	0c002403 	jal	0x900c
    7034:	afab0038 	sw	t3,56(sp)
    7038:	8fab0038 	lw	t3,56(sp)
    703c:	1200030a 	beqz	s0,0x7c68
    7040:	240c0001 	li	t4,1
    7044:	08002f19 	j	0xbc64
    7048:	00000000 	nop
    704c:	966c001c 	lhu	t4,28(s3)
    7050:	afac002c 	sw	t4,44(sp)
    7054:	9662001e 	lhu	v0,30(s3)
    7058:	3c0c8000 	lui	t4,0x8000
    705c:	afac0024 	sw	t4,36(sp)
    7060:	ae62001c 	sw	v0,28(s3)
    7064:	8e75001c 	lw	s5,28(s3)
    7068:	8ee204fc 	lw	v0,1276(s7)
    706c:	8ee404fc 	lw	a0,1276(s7)
    7070:	00151900 	sll	v1,s5,0x4
    7074:	00621021 	addu	v0,v1,v0
    7078:	8c52000c 	lw	s2,12(v0)
    707c:	92e27b98 	lbu	v0,31640(s7)
    7080:	00641821 	addu	v1,v1,a0
    7084:	9476000a 	lhu	s6,10(v1)
    7088:	14400003 	bnez	v0,0x7098
    708c:	32c20002 	andi	v0,s6,0x2
    7090:	aef27ba4 	sw	s2,31652(s7)
    7094:	aef57b9c 	sw	s5,31644(s7)
    7098:	1040004b 	beqz	v0,0x71c8
    709c:	00008021 	move	s0,zero
    70a0:	96e2045a 	lhu	v0,1114(s7)
    70a4:	30420002 	andi	v0,v0,0x2
    70a8:	10400047 	beqz	v0,0x71c8
    70ac:	00000000 	nop
    70b0:	8e63001c 	lw	v1,28(s3)
    70b4:	8ee204fc 	lw	v0,1276(s7)
    70b8:	00032100 	sll	a0,v1,0x4
    70bc:	00821021 	addu	v0,a0,v0
    70c0:	8c42000c 	lw	v0,12(v0)
    70c4:	037e1821 	addu	v1,k1,s8
    70c8:	24420022 	addiu	v0,v0,34
    70cc:	0043102b 	sltu	v0,v0,v1
    70d0:	1440000a 	bnez	v0,0x70fc
    70d4:	24050014 	li	a1,20
    70d8:	8ee204fc 	lw	v0,1276(s7)
    70dc:	00821021 	addu	v0,a0,v0
    70e0:	8c44000c 	lw	a0,12(v0)
    70e4:	afab0038 	sw	t3,56(sp)
    70e8:	0c002f75 	jal	0xbdd4
    70ec:	2484000e 	addiu	a0,a0,14
    70f0:	8fab0038 	lw	t3,56(sp)
    70f4:	08002c52 	j	0xb148
    70f8:	3050ffff 	andi	s0,v0,0xffff
    70fc:	8ee204fc 	lw	v0,1276(s7)
    7100:	00821021 	addu	v0,a0,v0
    7104:	8c42000c 	lw	v0,12(v0)
    7108:	9450000e 	lhu	s0,14(v0)
    710c:	94430010 	lhu	v1,16(v0)
    7110:	94440012 	lhu	a0,18(v0)
    7114:	94450014 	lhu	a1,20(v0)
    7118:	02038021 	addu	s0,s0,v1
    711c:	02048021 	addu	s0,s0,a0
    7120:	02058021 	addu	s0,s0,a1
    7124:	94430016 	lhu	v1,22(v0)
    7128:	94440018 	lhu	a0,24(v0)
    712c:	9445001a 	lhu	a1,26(v0)
    7130:	02038021 	addu	s0,s0,v1
    7134:	02048021 	addu	s0,s0,a0
    7138:	02058021 	addu	s0,s0,a1
    713c:	9443001c 	lhu	v1,28(v0)
    7140:	9444001e 	lhu	a0,30(v0)
    7144:	94420020 	lhu	v0,32(v0)
    7148:	02038021 	addu	s0,s0,v1
    714c:	02048021 	addu	s0,s0,a0
    7150:	02028021 	addu	s0,s0,v0
    7154:	00101c02 	srl	v1,s0,0x10
    7158:	3202ffff 	andi	v0,s0,0xffff
    715c:	00628021 	addu	s0,v1,v0
    7160:	8e63001c 	lw	v1,28(s3)
    7164:	8ee204fc 	lw	v0,1276(s7)
    7168:	00102402 	srl	a0,s0,0x10
    716c:	00032900 	sll	a1,v1,0x4
    7170:	00a21021 	addu	v0,a1,v0
    7174:	8c43000c 	lw	v1,12(v0)
    7178:	3202ffff 	andi	v0,s0,0xffff
    717c:	00828021 	addu	s0,a0,v0
    7180:	037e1021 	addu	v0,k1,s8
    7184:	24630018 	addiu	v1,v1,24
    7188:	0062182b 	sltu	v1,v1,v0
    718c:	14600009 	bnez	v1,0x71b4
    7190:	00000000 	nop
    7194:	8ee204fc 	lw	v0,1276(s7)
    7198:	00a21021 	addu	v0,a1,v0
    719c:	8c43000c 	lw	v1,12(v0)
    71a0:	00101027 	nor	v0,zero,s0
    71a4:	3c01ffff 	lui	at,0xffff
    71a8:	00230821 	addu	at,at,v1
    71ac:	08002c6f 	j	0xb1bc
    71b0:	a4220018 	sh	v0,24(at)
    71b4:	8ee204fc 	lw	v0,1276(s7)
    71b8:	00a21021 	addu	v0,a1,v0
    71bc:	8c43000c 	lw	v1,12(v0)
    71c0:	00101027 	nor	v0,zero,s0
    71c4:	a4620018 	sh	v0,24(v1)
    71c8:	96e2045a 	lhu	v0,1114(s7)
    71cc:	00008821 	move	s1,zero
    71d0:	30420008 	andi	v0,v0,0x8
    71d4:	14400063 	bnez	v0,0x7364
    71d8:	0000a021 	move	s4,zero
    71dc:	8e63001c 	lw	v1,28(s3)
    71e0:	8ee204fc 	lw	v0,1276(s7)
    71e4:	00033100 	sll	a2,v1,0x4
    71e8:	00c21021 	addu	v0,a2,v0
    71ec:	8c42000c 	lw	v0,12(v0)
    71f0:	037e1821 	addu	v1,k1,s8
    71f4:	24420022 	addiu	v0,v0,34
    71f8:	0043102b 	sltu	v0,v0,v1
    71fc:	14400035 	bnez	v0,0x72d4
    7200:	00000000 	nop
    7204:	8ee204fc 	lw	v0,1276(s7)
    7208:	00c21021 	addu	v0,a2,v0
    720c:	8c42000c 	lw	v0,12(v0)
    7210:	24470010 	addiu	a3,v0,16
    7214:	037e1021 	addu	v0,k1,s8
    7218:	00e2102b 	sltu	v0,a3,v0
    721c:	50400001 	beqzl	v0,0x7224
    7220:	00eb3821 	addu	a3,a3,t3
    7224:	8ee204fc 	lw	v0,1276(s7)
    7228:	94f10000 	lhu	s1,0(a3)
    722c:	00c21021 	addu	v0,a2,v0
    7230:	8c42000c 	lw	v0,12(v0)
    7234:	24470016 	addiu	a3,v0,22
    7238:	037e1021 	addu	v0,k1,s8
    723c:	00e2102b 	sltu	v0,a3,v0
    7240:	14400002 	bnez	v0,0x724c
    7244:	2634ffec 	addiu	s4,s1,-20
    7248:	00eb3821 	addu	a3,a3,t3
    724c:	8ee204fc 	lw	v0,1276(s7)
    7250:	90e30001 	lbu	v1,1(a3)
    7254:	00c21021 	addu	v0,a2,v0
    7258:	8c42000c 	lw	v0,12(v0)
    725c:	2447001a 	addiu	a3,v0,26
    7260:	037e1021 	addu	v0,k1,s8
    7264:	00e2102b 	sltu	v0,a3,v0
    7268:	14400002 	bnez	v0,0x7274
    726c:	02838821 	addu	s1,s4,v1
    7270:	00eb3821 	addu	a3,a3,t3
    7274:	94e20000 	lhu	v0,0(a3)
    7278:	24e70002 	addiu	a3,a3,2
    727c:	02228821 	addu	s1,s1,v0
    7280:	037e1021 	addu	v0,k1,s8
    7284:	00e2102b 	sltu	v0,a3,v0
    7288:	50400001 	beqzl	v0,0x7290
    728c:	00eb3821 	addu	a3,a3,t3
    7290:	94e20000 	lhu	v0,0(a3)
    7294:	24e70002 	addiu	a3,a3,2
    7298:	02228821 	addu	s1,s1,v0
    729c:	037e1021 	addu	v0,k1,s8
    72a0:	00e2102b 	sltu	v0,a3,v0
    72a4:	50400001 	beqzl	v0,0x72ac
    72a8:	00eb3821 	addu	a3,a3,t3
    72ac:	94e20000 	lhu	v0,0(a3)
    72b0:	24e70002 	addiu	a3,a3,2
    72b4:	02228821 	addu	s1,s1,v0
    72b8:	037e1021 	addu	v0,k1,s8
    72bc:	00e2102b 	sltu	v0,a3,v0
    72c0:	50400001 	beqzl	v0,0x72c8
    72c4:	00eb3821 	addu	a3,a3,t3
    72c8:	94e20000 	lhu	v0,0(a3)
    72cc:	08002cd0 	j	0xb340
    72d0:	02228821 	addu	s1,s1,v0
    72d4:	8ee204fc 	lw	v0,1276(s7)
    72d8:	00c21021 	addu	v0,a2,v0
    72dc:	8c43000c 	lw	v1,12(v0)
    72e0:	8ee204fc 	lw	v0,1276(s7)
    72e4:	94710010 	lhu	s1,16(v1)
    72e8:	8ee304fc 	lw	v1,1276(s7)
    72ec:	00c21021 	addu	v0,a2,v0
    72f0:	8c44000c 	lw	a0,12(v0)
    72f4:	00c31821 	addu	v1,a2,v1
    72f8:	8c62000c 	lw	v0,12(v1)
    72fc:	2634ffec 	addiu	s4,s1,-20
    7300:	90840017 	lbu	a0,23(a0)
    7304:	8ee304fc 	lw	v1,1276(s7)
    7308:	9442001a 	lhu	v0,26(v0)
    730c:	02848821 	addu	s1,s4,a0
    7310:	00c31821 	addu	v1,a2,v1
    7314:	8c65000c 	lw	a1,12(v1)
    7318:	8ee304fc 	lw	v1,1276(s7)
    731c:	02228821 	addu	s1,s1,v0
    7320:	8ee204fc 	lw	v0,1276(s7)
    7324:	00c31821 	addu	v1,a2,v1
    7328:	00c21021 	addu	v0,a2,v0
    732c:	8c44000c 	lw	a0,12(v0)
    7330:	8c62000c 	lw	v0,12(v1)
    7334:	94a3001c 	lhu	v1,28(a1)
    7338:	9484001e 	lhu	a0,30(a0)
    733c:	94420020 	lhu	v0,32(v0)
    7340:	02238821 	addu	s1,s1,v1
    7344:	02248821 	addu	s1,s1,a0
    7348:	02228821 	addu	s1,s1,v0
    734c:	00111c02 	srl	v1,s1,0x10
    7350:	3222ffff 	andi	v0,s1,0xffff
    7354:	00628821 	addu	s1,v1,v0
    7358:	00111c02 	srl	v1,s1,0x10
    735c:	3222ffff 	andi	v0,s1,0xffff
    7360:	00628821 	addu	s1,v1,v0
    7364:	32c20001 	andi	v0,s6,0x1
    7368:	104000b2 	beqz	v0,0x7634
    736c:	00000000 	nop
    7370:	96e2045a 	lhu	v0,1114(s7)
    7374:	30420001 	andi	v0,v0,0x1
    7378:	104000ae 	beqz	v0,0x7634
    737c:	32c20080 	andi	v0,s6,0x80
    7380:	10400008 	beqz	v0,0x73a4
    7384:	00000000 	nop
    7388:	92e27b98 	lbu	v0,31640(s7)
    738c:	14400005 	bnez	v0,0x73a4
    7390:	00000000 	nop
    7394:	240c0001 	li	t4,1
    7398:	a2ec7b98 	sb	t4,31640(s7)
    739c:	aef57b9c 	sw	s5,31644(s7)
    73a0:	aef27ba4 	sw	s2,31652(s7)
    73a4:	8ee304fc 	lw	v1,1276(s7)
    73a8:	00151100 	sll	v0,s5,0x4
    73ac:	00431021 	addu	v0,v0,v1
    73b0:	8c47000c 	lw	a3,12(v0)
    73b4:	037e1821 	addu	v1,k1,s8
    73b8:	24e2000e 	addiu	v0,a3,14
    73bc:	0043102b 	sltu	v0,v0,v1
    73c0:	14400008 	bnez	v0,0x73e4
    73c4:	00e02021 	move	a0,a3
    73c8:	2405000e 	li	a1,14
    73cc:	0c002f75 	jal	0xbdd4
    73d0:	afab0038 	sw	t3,56(sp)
    73d4:	3042ffff 	andi	v0,v0,0xffff
    73d8:	8fab0038 	lw	t3,56(sp)
    73dc:	08002d09 	j	0xb424
    73e0:	02028021 	addu	s0,s0,v0
    73e4:	94e60000 	lhu	a2,0(a3)
    73e8:	24e70002 	addiu	a3,a3,2
    73ec:	94e50000 	lhu	a1,0(a3)
    73f0:	24e70002 	addiu	a3,a3,2
    73f4:	94e30000 	lhu	v1,0(a3)
    73f8:	24e70002 	addiu	a3,a3,2
    73fc:	94e20000 	lhu	v0,0(a3)
    7400:	24e70002 	addiu	a3,a3,2
    7404:	94e40000 	lhu	a0,0(a3)
    7408:	24e70002 	addiu	a3,a3,2
    740c:	02068021 	addu	s0,s0,a2
    7410:	02058021 	addu	s0,s0,a1
    7414:	02038021 	addu	s0,s0,v1
    7418:	02028021 	addu	s0,s0,v0
    741c:	94e20000 	lhu	v0,0(a3)
    7420:	94e30002 	lhu	v1,2(a3)
    7424:	02048021 	addu	s0,s0,a0
    7428:	02028021 	addu	s0,s0,v0
    742c:	02038021 	addu	s0,s0,v1
    7430:	00101c02 	srl	v1,s0,0x10
    7434:	3202ffff 	andi	v0,s0,0xffff
    7438:	00628021 	addu	s0,v1,v0
    743c:	00101c02 	srl	v1,s0,0x10
    7440:	3202ffff 	andi	v0,s0,0xffff
    7444:	8ee47b9c 	lw	a0,31644(s7)
    7448:	00628021 	addu	s0,v1,v0
    744c:	14950004 	bne	a0,s5,0x7460
    7450:	3205ffff 	andi	a1,s0,0xffff
    7454:	96620016 	lhu	v0,22(s3)
    7458:	08002d17 	j	0xb45c
    745c:	00512021 	addu	a0,v0,s1
    7460:	96620016 	lhu	v0,22(s3)
    7464:	00542021 	addu	a0,v0,s4
    7468:	00041402 	srl	v0,a0,0x10
    746c:	3083ffff 	andi	v1,a0,0xffff
    7470:	00432021 	addu	a0,v0,v1
    7474:	00852023 	subu	a0,a0,a1
    7478:	00041402 	srl	v0,a0,0x10
    747c:	00822021 	addu	a0,a0,v0
    7480:	3084ffff 	andi	a0,a0,0xffff
    7484:	50800001 	beqzl	a0,0x748c
    7488:	3404ffff 	li	a0,0xffff
    748c:	8ee27ba4 	lw	v0,31652(s7)
    7490:	24430017 	addiu	v1,v0,23
    7494:	037e1021 	addu	v0,k1,s8
    7498:	0062102b 	sltu	v0,v1,v0
    749c:	50400001 	beqzl	v0,0x74a4
    74a0:	006b1821 	addu	v1,v1,t3
    74a4:	90630000 	lbu	v1,0(v1)
    74a8:	24020011 	li	v0,17
    74ac:	14620031 	bne	v1,v0,0x7574
    74b0:	24020006 	li	v0,6
    74b4:	8ee27ba4 	lw	v0,31652(s7)
    74b8:	037e1821 	addu	v1,k1,s8
    74bc:	24420028 	addiu	v0,v0,40
    74c0:	0043102b 	sltu	v0,v0,v1
    74c4:	14400018 	bnez	v0,0x7528
    74c8:	00000000 	nop
    74cc:	8ee27b9c 	lw	v0,31644(s7)
    74d0:	12a2000a 	beq	s5,v0,0x74fc
    74d4:	32c20100 	andi	v0,s6,0x100
    74d8:	8ee27ba4 	lw	v0,31652(s7)
    74dc:	3c01ffff 	lui	at,0xffff
    74e0:	00220821 	addu	at,at,v0
    74e4:	94220028 	lhu	v0,40(at)
    74e8:	00822021 	addu	a0,a0,v0
    74ec:	00041c02 	srl	v1,a0,0x10
    74f0:	3082ffff 	andi	v0,a0,0xffff
    74f4:	00622021 	addu	a0,v1,v0
    74f8:	32c20100 	andi	v0,s6,0x100
    74fc:	14400004 	bnez	v0,0x7510
    7500:	00041027 	nor	v0,zero,a0
    7504:	92e27b98 	lbu	v0,31640(s7)
    7508:	14400002 	bnez	v0,0x7514
    750c:	00041027 	nor	v0,zero,a0
    7510:	3044ffff 	andi	a0,v0,0xffff
    7514:	8ee27ba4 	lw	v0,31652(s7)
    7518:	3c01ffff 	lui	at,0xffff
    751c:	00220821 	addu	at,at,v0
    7520:	08002d8a 	j	0xb628
    7524:	a4240028 	sh	a0,40(at)
    7528:	8ee27b9c 	lw	v0,31644(s7)
    752c:	12a20008 	beq	s5,v0,0x7550
    7530:	32c20100 	andi	v0,s6,0x100
    7534:	8ee27ba4 	lw	v0,31652(s7)
    7538:	94420028 	lhu	v0,40(v0)
    753c:	00822021 	addu	a0,a0,v0
    7540:	00041c02 	srl	v1,a0,0x10
    7544:	3082ffff 	andi	v0,a0,0xffff
    7548:	00622021 	addu	a0,v1,v0
    754c:	32c20100 	andi	v0,s6,0x100
    7550:	14400004 	bnez	v0,0x7564
    7554:	00041027 	nor	v0,zero,a0
    7558:	92e27b98 	lbu	v0,31640(s7)
    755c:	14400002 	bnez	v0,0x7568
    7560:	00041027 	nor	v0,zero,a0
    7564:	3044ffff 	andi	a0,v0,0xffff
    7568:	8ee27ba4 	lw	v0,31652(s7)
    756c:	08002d8a 	j	0xb628
    7570:	a4440028 	sh	a0,40(v0)
    7574:	1462002f 	bne	v1,v0,0x7634
    7578:	037e1821 	addu	v1,k1,s8
    757c:	8ee27ba4 	lw	v0,31652(s7)
    7580:	24420032 	addiu	v0,v0,50
    7584:	0043102b 	sltu	v0,v0,v1
    7588:	14400018 	bnez	v0,0x75ec
    758c:	00000000 	nop
    7590:	8ee27b9c 	lw	v0,31644(s7)
    7594:	12a2000a 	beq	s5,v0,0x75c0
    7598:	32c20100 	andi	v0,s6,0x100
    759c:	8ee27ba4 	lw	v0,31652(s7)
    75a0:	3c01ffff 	lui	at,0xffff
    75a4:	00220821 	addu	at,at,v0
    75a8:	94220032 	lhu	v0,50(at)
    75ac:	00822021 	addu	a0,a0,v0
    75b0:	00041c02 	srl	v1,a0,0x10
    75b4:	3082ffff 	andi	v0,a0,0xffff
    75b8:	00622021 	addu	a0,v1,v0
    75bc:	32c20100 	andi	v0,s6,0x100
    75c0:	14400004 	bnez	v0,0x75d4
    75c4:	00041027 	nor	v0,zero,a0
    75c8:	92e27b98 	lbu	v0,31640(s7)
    75cc:	14400002 	bnez	v0,0x75d8
    75d0:	00041027 	nor	v0,zero,a0
    75d4:	3044ffff 	andi	a0,v0,0xffff
    75d8:	8ee27ba4 	lw	v0,31652(s7)
    75dc:	3c01ffff 	lui	at,0xffff
    75e0:	00220821 	addu	at,at,v0
    75e4:	08002d8a 	j	0xb628
    75e8:	a4240032 	sh	a0,50(at)
    75ec:	8ee27b9c 	lw	v0,31644(s7)
    75f0:	12a20008 	beq	s5,v0,0x7614
    75f4:	32c20100 	andi	v0,s6,0x100
    75f8:	8ee27ba4 	lw	v0,31652(s7)
    75fc:	94420032 	lhu	v0,50(v0)
    7600:	00822021 	addu	a0,a0,v0
    7604:	00041c02 	srl	v1,a0,0x10
    7608:	3082ffff 	andi	v0,a0,0xffff
    760c:	00622021 	addu	a0,v1,v0
    7610:	32c20100 	andi	v0,s6,0x100
    7614:	14400004 	bnez	v0,0x7628
    7618:	00041027 	nor	v0,zero,a0
    761c:	92e27b98 	lbu	v0,31640(s7)
    7620:	14400002 	bnez	v0,0x762c
    7624:	00041027 	nor	v0,zero,a0
    7628:	3044ffff 	andi	a0,v0,0xffff
    762c:	8ee27ba4 	lw	v0,31652(s7)
    7630:	a4440032 	sh	a0,50(v0)
    7634:	8fac0024 	lw	t4,36(sp)
    7638:	1180002c 	beqz	t4,0x76ec
    763c:	037e1821 	addu	v1,k1,s8
    7640:	8e420000 	lw	v0,0(s2)
    7644:	ae42fffc 	sw	v0,-4(s2)
    7648:	2642000a 	addiu	v0,s2,10
    764c:	0043102b 	sltu	v0,v0,v1
    7650:	1440001b 	bnez	v0,0x76c0
    7654:	34038100 	li	v1,0x8100
    7658:	26430004 	addiu	v1,s2,4
    765c:	037e1021 	addu	v0,k1,s8
    7660:	0062102b 	sltu	v0,v1,v0
    7664:	14400003 	bnez	v0,0x7674
    7668:	00602021 	move	a0,v1
    766c:	006b1821 	addu	v1,v1,t3
    7670:	00602021 	move	a0,v1
    7674:	8c620000 	lw	v0,0(v1)
    7678:	24630004 	addiu	v1,v1,4
    767c:	ae420000 	sw	v0,0(s2)
    7680:	037e1021 	addu	v0,k1,s8
    7684:	0062102b 	sltu	v0,v1,v0
    7688:	50400001 	beqzl	v0,0x7690
    768c:	006b1821 	addu	v1,v1,t3
    7690:	8c620000 	lw	v0,0(v1)
    7694:	ac820000 	sw	v0,0(a0)
    7698:	34028100 	li	v0,0x8100
    769c:	a4620000 	sh	v0,0(v1)
    76a0:	24630002 	addiu	v1,v1,2
    76a4:	037e1021 	addu	v0,k1,s8
    76a8:	0062102b 	sltu	v0,v1,v0
    76ac:	50400001 	beqzl	v0,0x76b4
    76b0:	006b1821 	addu	v1,v1,t3
    76b4:	97ac002e 	lhu	t4,46(sp)
    76b8:	08002db4 	j	0xb6d0
    76bc:	a46c0000 	sh	t4,0(v1)
    76c0:	8e420004 	lw	v0,4(s2)
    76c4:	8e440008 	lw	a0,8(s2)
    76c8:	a6430008 	sh	v1,8(s2)
    76cc:	97ac002e 	lhu	t4,46(sp)
    76d0:	a64c000a 	sh	t4,10(s2)
    76d4:	ae420000 	sw	v0,0(s2)
    76d8:	ae440004 	sw	a0,4(s2)
    76dc:	9662000e 	lhu	v0,14(s3)
    76e0:	2652fffc 	addiu	s2,s2,-4
    76e4:	24420004 	addiu	v0,v0,4
    76e8:	a662000e 	sh	v0,14(s3)
    76ec:	9662000e 	lhu	v0,14(s3)
    76f0:	8ee3725c 	lw	v1,29276(s7)
    76f4:	00621821 	addu	v1,v1,v0
    76f8:	aee3725c 	sw	v1,29276(s7)
    76fc:	afb20018 	sw	s2,24(sp)
    7700:	8ee3725c 	lw	v1,29276(s7)
    7704:	afa3001c 	sw	v1,28(sp)
    7708:	8ee2725c 	lw	v0,29276(s7)
    770c:	2c42003c 	sltiu	v0,v0,60
    7710:	10400004 	beqz	v0,0x7724
    7714:	24620001 	addiu	v0,v1,1
    7718:	2403fffe 	li	v1,-2
    771c:	00431024 	and	v0,v0,v1
    7720:	afa2001c 	sw	v0,28(sp)
    7724:	32c20080 	andi	v0,s6,0x80
    7728:	1040000c 	beqz	v0,0x775c
    772c:	32c20100 	andi	v0,s6,0x100
    7730:	8ee27ba8 	lw	v0,31656(s7)
    7734:	24430001 	addiu	v1,v0,1
    7738:	000210c0 	sll	v0,v0,0x3
    773c:	00571021 	addu	v0,v0,s7
    7740:	aee37ba8 	sw	v1,31656(s7)
    7744:	8fa30018 	lw	v1,24(sp)
    7748:	8fa4001c 	lw	a0,28(sp)
    774c:	ac437bac 	sw	v1,31660(v0)
    7750:	ac447bb0 	sw	a0,31664(v0)
    7754:	08002ea0 	j	0xba80
    7758:	aee0725c 	sw	zero,29276(s7)
    775c:	10400072 	beqz	v0,0x7928
    7760:	00000000 	nop
    7764:	8ee27ba8 	lw	v0,31656(s7)
    7768:	24430001 	addiu	v1,v0,1
    776c:	000210c0 	sll	v0,v0,0x3
    7770:	00571021 	addu	v0,v0,s7
    7774:	aee37ba8 	sw	v1,31656(s7)
    7778:	8fa30018 	lw	v1,24(sp)
    777c:	8fa4001c 	lw	a0,28(sp)
    7780:	ac437bac 	sw	v1,31660(v0)
    7784:	ac447bb0 	sw	a0,31664(v0)
    7788:	8ee27ba8 	lw	v0,31656(s7)
    778c:	10400063 	beqz	v0,0x791c
    7790:	00004821 	move	t1,zero
    7794:	00005021 	move	t2,zero
    7798:	8f8200f0 	lw	v0,240(gp)
    779c:	24480008 	addiu	t0,v0,8
    77a0:	27621800 	addiu	v0,k1,6144
    77a4:	0102102b 	sltu	v0,t0,v0
    77a8:	50400001 	beqzl	v0,0x77b0
    77ac:	27681000 	addiu	t0,k1,4096
    77b0:	8f8200f4 	lw	v0,244(gp)
    77b4:	15020007 	bne	t0,v0,0x77d4
    77b8:	00000000 	nop
    77bc:	8ee201b4 	lw	v0,436(s7)
    77c0:	00008021 	move	s0,zero
    77c4:	24420001 	addiu	v0,v0,1
    77c8:	aee201b4 	sw	v0,436(s7)
    77cc:	08002dfa 	j	0xb7e8
    77d0:	8ee201b4 	lw	v0,436(s7)
    77d4:	8f8300f0 	lw	v1,240(gp)
    77d8:	24100001 	li	s0,1
    77dc:	01571021 	addu	v0,t2,s7
    77e0:	8c447bac 	lw	a0,31660(v0)
    77e4:	8c457bb0 	lw	a1,31664(v0)
    77e8:	ac640000 	sw	a0,0(v1)
    77ec:	ac650004 	sw	a1,4(v1)
    77f0:	af8800f0 	sw	t0,240(gp)
    77f4:	16000006 	bnez	s0,0x7810
    77f8:	02ea1021 	addu	v0,s7,t2
    77fc:	8ee20088 	lw	v0,136(s7)
    7800:	24420001 	addiu	v0,v0,1
    7804:	aee20088 	sw	v0,136(s7)
    7808:	08002e3f 	j	0xb8fc
    780c:	8ee20088 	lw	v0,136(s7)
    7810:	8c427bb0 	lw	v0,31664(v0)
    7814:	8ee400e0 	lw	a0,224(s7)
    7818:	8ee500e4 	lw	a1,228(s7)
    781c:	8ee67b9c 	lw	a2,31644(s7)
    7820:	00401821 	move	v1,v0
    7824:	00001021 	move	v0,zero
    7828:	00a32821 	addu	a1,a1,v1
    782c:	00a3382b 	sltu	a3,a1,v1
    7830:	00822021 	addu	a0,a0,v0
    7834:	00872021 	addu	a0,a0,a3
    7838:	8ee204fc 	lw	v0,1276(s7)
    783c:	00c93021 	addu	a2,a2,t1
    7840:	00063100 	sll	a2,a2,0x4
    7844:	aee400e0 	sw	a0,224(s7)
    7848:	aee500e4 	sw	a1,228(s7)
    784c:	00c23021 	addu	a2,a2,v0
    7850:	94c2000a 	lhu	v0,10(a2)
    7854:	240c0002 	li	t4,2
    7858:	00021142 	srl	v0,v0,0x5
    785c:	30430003 	andi	v1,v0,0x3
    7860:	106c0016 	beq	v1,t4,0x78bc
    7864:	28620003 	slti	v0,v1,3
    7868:	10400005 	beqz	v0,0x7880
    786c:	240c0001 	li	t4,1
    7870:	106c0008 	beq	v1,t4,0x7894
    7874:	00000000 	nop
    7878:	08002e3f 	j	0xb8fc
    787c:	00000000 	nop
    7880:	240c0003 	li	t4,3
    7884:	106c0017 	beq	v1,t4,0x78e4
    7888:	00000000 	nop
    788c:	08002e3f 	j	0xb8fc
    7890:	00000000 	nop
    7894:	8ee200e8 	lw	v0,232(s7)
    7898:	8ee300ec 	lw	v1,236(s7)
    789c:	24630001 	addiu	v1,v1,1
    78a0:	2c640001 	sltiu	a0,v1,1
    78a4:	00441021 	addu	v0,v0,a0
    78a8:	aee200e8 	sw	v0,232(s7)
    78ac:	aee300ec 	sw	v1,236(s7)
    78b0:	8ee200e8 	lw	v0,232(s7)
    78b4:	08002e3f 	j	0xb8fc
    78b8:	8ee300ec 	lw	v1,236(s7)
    78bc:	8ee200f0 	lw	v0,240(s7)
    78c0:	8ee300f4 	lw	v1,244(s7)
    78c4:	24630001 	addiu	v1,v1,1
    78c8:	2c640001 	sltiu	a0,v1,1
    78cc:	00441021 	addu	v0,v0,a0
    78d0:	aee200f0 	sw	v0,240(s7)
    78d4:	aee300f4 	sw	v1,244(s7)
    78d8:	8ee200f0 	lw	v0,240(s7)
    78dc:	08002e3f 	j	0xb8fc
    78e0:	8ee300f4 	lw	v1,244(s7)
    78e4:	8ee200f8 	lw	v0,248(s7)
    78e8:	8ee300fc 	lw	v1,252(s7)
    78ec:	24630001 	addiu	v1,v1,1
    78f0:	2c640001 	sltiu	a0,v1,1
    78f4:	00441021 	addu	v0,v0,a0
    78f8:	aee200f8 	sw	v0,248(s7)
    78fc:	aee300fc 	sw	v1,252(s7)
    7900:	8ee200f8 	lw	v0,248(s7)
    7904:	8ee300fc 	lw	v1,252(s7)
    7908:	8ee27ba8 	lw	v0,31656(s7)
    790c:	25290001 	addiu	t1,t1,1
    7910:	0122102b 	sltu	v0,t1,v0
    7914:	1440ffa0 	bnez	v0,0x7798
    7918:	254a0008 	addiu	t2,t2,8
    791c:	a2e07b98 	sb	zero,31640(s7)
    7920:	08002e9f 	j	0xba7c
    7924:	aee07ba8 	sw	zero,31656(s7)
    7928:	8f8200f0 	lw	v0,240(gp)
    792c:	24470008 	addiu	a3,v0,8
    7930:	27621800 	addiu	v0,k1,6144
    7934:	00e2102b 	sltu	v0,a3,v0
    7938:	50400001 	beqzl	v0,0x7940
    793c:	27671000 	addiu	a3,k1,4096
    7940:	8f8200f4 	lw	v0,244(gp)
    7944:	14e20007 	bne	a3,v0,0x7964
    7948:	00000000 	nop
    794c:	8ee201b4 	lw	v0,436(s7)
    7950:	00008021 	move	s0,zero
    7954:	24420001 	addiu	v0,v0,1
    7958:	aee201b4 	sw	v0,436(s7)
    795c:	08002e5d 	j	0xb974
    7960:	8ee201b4 	lw	v0,436(s7)
    7964:	8f8200f0 	lw	v0,240(gp)
    7968:	24100001 	li	s0,1
    796c:	8fa30018 	lw	v1,24(sp)
    7970:	8fa4001c 	lw	a0,28(sp)
    7974:	ac430000 	sw	v1,0(v0)
    7978:	ac440004 	sw	a0,4(v0)
    797c:	af8700f0 	sw	a3,240(gp)
    7980:	16000007 	bnez	s0,0x79a0
    7984:	00000000 	nop
    7988:	8ee20088 	lw	v0,136(s7)
    798c:	24420001 	addiu	v0,v0,1
    7990:	aee20088 	sw	v0,136(s7)
    7994:	8ee20088 	lw	v0,136(s7)
    7998:	08002ea0 	j	0xba80
    799c:	aee0725c 	sw	zero,29276(s7)
    79a0:	8ee2725c 	lw	v0,29276(s7)
    79a4:	8ee400e0 	lw	a0,224(s7)
    79a8:	8ee500e4 	lw	a1,228(s7)
    79ac:	240c0002 	li	t4,2
    79b0:	00401821 	move	v1,v0
    79b4:	00001021 	move	v0,zero
    79b8:	00a32821 	addu	a1,a1,v1
    79bc:	00a3302b 	sltu	a2,a1,v1
    79c0:	00822021 	addu	a0,a0,v0
    79c4:	00862021 	addu	a0,a0,a2
    79c8:	00161142 	srl	v0,s6,0x5
    79cc:	30430003 	andi	v1,v0,0x3
    79d0:	aee400e0 	sw	a0,224(s7)
    79d4:	aee500e4 	sw	a1,228(s7)
    79d8:	106c0017 	beq	v1,t4,0x7a38
    79dc:	2c620003 	sltiu	v0,v1,3
    79e0:	10400005 	beqz	v0,0x79f8
    79e4:	240c0001 	li	t4,1
    79e8:	106c0008 	beq	v1,t4,0x7a0c
    79ec:	00000000 	nop
    79f0:	08002ea0 	j	0xba80
    79f4:	aee0725c 	sw	zero,29276(s7)
    79f8:	240c0003 	li	t4,3
    79fc:	106c0019 	beq	v1,t4,0x7a64
    7a00:	00000000 	nop
    7a04:	08002ea0 	j	0xba80
    7a08:	aee0725c 	sw	zero,29276(s7)
    7a0c:	8ee200e8 	lw	v0,232(s7)
    7a10:	8ee300ec 	lw	v1,236(s7)
    7a14:	24630001 	addiu	v1,v1,1
    7a18:	2c640001 	sltiu	a0,v1,1
    7a1c:	00441021 	addu	v0,v0,a0
    7a20:	aee200e8 	sw	v0,232(s7)
    7a24:	aee300ec 	sw	v1,236(s7)
    7a28:	8ee200e8 	lw	v0,232(s7)
    7a2c:	8ee300ec 	lw	v1,236(s7)
    7a30:	08002ea0 	j	0xba80
    7a34:	aee0725c 	sw	zero,29276(s7)
    7a38:	8ee200f0 	lw	v0,240(s7)
    7a3c:	8ee300f4 	lw	v1,244(s7)
    7a40:	24630001 	addiu	v1,v1,1
    7a44:	2c640001 	sltiu	a0,v1,1
    7a48:	00441021 	addu	v0,v0,a0
    7a4c:	aee200f0 	sw	v0,240(s7)
    7a50:	aee300f4 	sw	v1,244(s7)
    7a54:	8ee200f0 	lw	v0,240(s7)
    7a58:	8ee300f4 	lw	v1,244(s7)
    7a5c:	08002ea0 	j	0xba80
    7a60:	aee0725c 	sw	zero,29276(s7)
    7a64:	8ee200f8 	lw	v0,248(s7)
    7a68:	8ee300fc 	lw	v1,252(s7)
    7a6c:	24630001 	addiu	v1,v1,1
    7a70:	2c640001 	sltiu	a0,v1,1
    7a74:	00441021 	addu	v0,v0,a0
    7a78:	aee200f8 	sw	v0,248(s7)
    7a7c:	aee300fc 	sw	v1,252(s7)
    7a80:	8ee200f8 	lw	v0,248(s7)
    7a84:	8ee300fc 	lw	v1,252(s7)
    7a88:	aee0725c 	sw	zero,29276(s7)
    7a8c:	8e62001c 	lw	v0,28(s3)
    7a90:	96e30458 	lhu	v1,1112(s7)
    7a94:	8ee404f0 	lw	a0,1264(s7)
    7a98:	24420001 	addiu	v0,v0,1
    7a9c:	2463ffff 	addiu	v1,v1,-1
    7aa0:	00431024 	and	v0,v0,v1
    7aa4:	24840001 	addiu	a0,a0,1
    7aa8:	aee204e4 	sw	v0,1252(s7)
    7aac:	aee404f0 	sw	a0,1264(s7)
    7ab0:	8f42023c 	lw	v0,572(k0)
    7ab4:	0082202b 	sltu	a0,a0,v0
    7ab8:	148000b0 	bnez	a0,0x7d7c
    7abc:	00000000 	nop
    7ac0:	8f830120 	lw	v1,288(gp)
    7ac4:	27623800 	addiu	v0,k1,14336
    7ac8:	24660020 	addiu	a2,v1,32
    7acc:	00c2102b 	sltu	v0,a2,v0
    7ad0:	50400001 	beqzl	v0,0x7ad8
    7ad4:	27663000 	addiu	a2,k1,12288
    7ad8:	8f820128 	lw	v0,296(gp)
    7adc:	10c20004 	beq	a2,v0,0x7af0
    7ae0:	00000000 	nop
    7ae4:	8f820124 	lw	v0,292(gp)
    7ae8:	14c20007 	bne	a2,v0,0x7b08
    7aec:	00000000 	nop
    7af0:	8ee201a4 	lw	v0,420(s7)
    7af4:	00008021 	move	s0,zero
    7af8:	24420001 	addiu	v0,v0,1
    7afc:	aee201a4 	sw	v0,420(s7)
    7b00:	08002f07 	j	0xbc1c
    7b04:	8ee201a4 	lw	v0,420(s7)
    7b08:	8ee204e4 	lw	v0,1252(s7)
    7b0c:	ac62001c 	sw	v0,28(v1)
    7b10:	8ee404b0 	lw	a0,1200(s7)
    7b14:	8ee504b4 	lw	a1,1204(s7)
    7b18:	2462001c 	addiu	v0,v1,28
    7b1c:	ac620008 	sw	v0,8(v1)
    7b20:	24020008 	li	v0,8
    7b24:	a462000e 	sh	v0,14(v1)
    7b28:	24020011 	li	v0,17
    7b2c:	ac620018 	sw	v0,24(v1)
    7b30:	ac640000 	sw	a0,0(v1)
    7b34:	ac650004 	sw	a1,4(v1)
    7b38:	8ee204c4 	lw	v0,1220(s7)
    7b3c:	ac620010 	sw	v0,16(v1)
    7b40:	af860120 	sw	a2,288(gp)
    7b44:	92e24e20 	lbu	v0,20000(s7)
    7b48:	14400037 	bnez	v0,0x7c28
    7b4c:	24100001 	li	s0,1
    7b50:	8ee24e30 	lw	v0,20016(s7)
    7b54:	000210c0 	sll	v0,v0,0x3
    7b58:	24425038 	addiu	v0,v0,20536
    7b5c:	02e22021 	addu	a0,s7,v0
    7b60:	8c830000 	lw	v1,0(a0)
    7b64:	24020012 	li	v0,18
    7b68:	1462001f 	bne	v1,v0,0x7be8
    7b6c:	00000000 	nop
    7b70:	8ee34e30 	lw	v1,20016(s7)
    7b74:	8ee24e34 	lw	v0,20020(s7)
    7b78:	1062001b 	beq	v1,v0,0x7be8
    7b7c:	240c0040 	li	t4,64
    7b80:	8c820004 	lw	v0,4(a0)
    7b84:	24420001 	addiu	v0,v0,1
    7b88:	ac820004 	sw	v0,4(a0)
    7b8c:	8ee24e34 	lw	v0,20020(s7)
    7b90:	8ee34e30 	lw	v1,20016(s7)
    7b94:	24420001 	addiu	v0,v0,1
    7b98:	104c0007 	beq	v0,t4,0x7bb8
    7b9c:	00000000 	nop
    7ba0:	8ee24e34 	lw	v0,20020(s7)
    7ba4:	24420001 	addiu	v0,v0,1
    7ba8:	10620005 	beq	v1,v0,0x7bc0
    7bac:	00000000 	nop
    7bb0:	08002ef1 	j	0xbbc4
    7bb4:	00000000 	nop
    7bb8:	14600005 	bnez	v1,0x7bd0
    7bbc:	00000000 	nop
    7bc0:	8f820128 	lw	v0,296(gp)
    7bc4:	24420020 	addiu	v0,v0,32
    7bc8:	af820128 	sw	v0,296(gp)
    7bcc:	8f820128 	lw	v0,296(gp)
    7bd0:	8c820004 	lw	v0,4(a0)
    7bd4:	2c420011 	sltiu	v0,v0,17
    7bd8:	50400013 	beqzl	v0,0x7c28
    7bdc:	ac800000 	sw	zero,0(a0)
    7be0:	08002f07 	j	0xbc1c
    7be4:	00000000 	nop
    7be8:	8ee24e30 	lw	v0,20016(s7)
    7bec:	240c0040 	li	t4,64
    7bf0:	24420001 	addiu	v0,v0,1
    7bf4:	504c0003 	beql	v0,t4,0x7c04
    7bf8:	00001021 	move	v0,zero
    7bfc:	8ee24e30 	lw	v0,20016(s7)
    7c00:	24420001 	addiu	v0,v0,1
    7c04:	aee24e30 	sw	v0,20016(s7)
    7c08:	8ee24e30 	lw	v0,20016(s7)
    7c0c:	000210c0 	sll	v0,v0,0x3
    7c10:	24425038 	addiu	v0,v0,20536
    7c14:	02e22021 	addu	a0,s7,v0
    7c18:	24020012 	li	v0,18
    7c1c:	240c0001 	li	t4,1
    7c20:	ac820000 	sw	v0,0(a0)
    7c24:	ac8c0004 	sw	t4,4(a0)
    7c28:	5600000d 	bnezl	s0,0x7c60
    7c2c:	24100001 	li	s0,1
    7c30:	8ee204e4 	lw	v0,1252(s7)
    7c34:	3c040001 	lui	a0,0x1
    7c38:	24845754 	addiu	a0,a0,22356
    7c3c:	afa00014 	sw	zero,20(sp)
    7c40:	afa20010 	sw	v0,16(sp)
    7c44:	8ee60608 	lw	a2,1544(s7)
    7c48:	8f470228 	lw	a3,552(k0)
    7c4c:	3c050009 	lui	a1,0x9
    7c50:	34a5f006 	ori	a1,a1,0xf006
    7c54:	0c002403 	jal	0x900c
    7c58:	afab0038 	sw	t3,56(sp)
    7c5c:	8fab0038 	lw	t3,56(sp)
    7c60:	16000003 	bnez	s0,0x7c70
    7c64:	240c0001 	li	t4,1
    7c68:	08002f5c 	j	0xbd70
    7c6c:	a2ec04f4 	sb	t4,1268(s7)
    7c70:	8ee20170 	lw	v0,368(s7)
    7c74:	24420001 	addiu	v0,v0,1
    7c78:	aee20170 	sw	v0,368(s7)
    7c7c:	8ee20170 	lw	v0,368(s7)
    7c80:	8ee204e4 	lw	v0,1252(s7)
    7c84:	a2e004f4 	sb	zero,1268(s7)
    7c88:	aee004f0 	sw	zero,1264(s7)
    7c8c:	aee07274 	sw	zero,29300(s7)
    7c90:	aee204f8 	sw	v0,1272(s7)
    7c94:	8f42023c 	lw	v0,572(k0)
    7c98:	10400038 	beqz	v0,0x7d7c
    7c9c:	00000000 	nop
    7ca0:	8ee20184 	lw	v0,388(s7)
    7ca4:	24420001 	addiu	v0,v0,1
    7ca8:	aee20184 	sw	v0,388(s7)
    7cac:	08002f5c 	j	0xbd70
    7cb0:	8ee20184 	lw	v0,388(s7)
    7cb4:	8ee20504 	lw	v0,1284(s7)
    7cb8:	240c0040 	li	t4,64
    7cbc:	24420001 	addiu	v0,v0,1
    7cc0:	504c0003 	beql	v0,t4,0x7cd0
    7cc4:	00001021 	move	v0,zero
    7cc8:	8ee20504 	lw	v0,1284(s7)
    7ccc:	24420001 	addiu	v0,v0,1
    7cd0:	aee20504 	sw	v0,1284(s7)
    7cd4:	8ee20504 	lw	v0,1284(s7)
    7cd8:	8e630018 	lw	v1,24(s3)
    7cdc:	240c0003 	li	t4,3
    7ce0:	00021080 	sll	v0,v0,0x2
    7ce4:	00571021 	addu	v0,v0,s7
    7ce8:	146c000f 	bne	v1,t4,0x7d28
    7cec:	8c440508 	lw	a0,1288(v0)
    7cf0:	3c020001 	lui	v0,0x1
    7cf4:	00571021 	addu	v0,v0,s7
    7cf8:	904283b1 	lbu	v0,-31823(v0)
    7cfc:	10400014 	beqz	v0,0x7d50
    7d00:	00000000 	nop
    7d04:	8ee201d0 	lw	v0,464(s7)
    7d08:	8ee35240 	lw	v1,21056(s7)
    7d0c:	00441021 	addu	v0,v0,a0
    7d10:	aee201d0 	sw	v0,464(s7)
    7d14:	8ee201d8 	lw	v0,472(s7)
    7d18:	00641821 	addu	v1,v1,a0
    7d1c:	306300ff 	andi	v1,v1,0xff
    7d20:	08002f4f 	j	0xbd3c
    7d24:	aee35240 	sw	v1,21056(s7)
    7d28:	8ee201cc 	lw	v0,460(s7)
    7d2c:	8ee30e10 	lw	v1,3600(s7)
    7d30:	00441021 	addu	v0,v0,a0
    7d34:	aee201cc 	sw	v0,460(s7)
    7d38:	8ee201d8 	lw	v0,472(s7)
    7d3c:	00641821 	addu	v1,v1,a0
    7d40:	306301ff 	andi	v1,v1,0x1ff
    7d44:	aee30e10 	sw	v1,3600(s7)
    7d48:	00441021 	addu	v0,v0,a0
    7d4c:	aee201d8 	sw	v0,472(s7)
    7d50:	8ee20000 	lw	v0,0(s7)
    7d54:	34420040 	ori	v0,v0,0x40
    7d58:	08002f5c 	j	0xbd70
    7d5c:	aee20000 	sw	v0,0(s7)
    7d60:	8ee2014c 	lw	v0,332(s7)
    7d64:	3c010001 	lui	at,0x1
    7d68:	00370821 	addu	at,at,s7
    7d6c:	a02083e0 	sb	zero,-31776(at)
    7d70:	24420001 	addiu	v0,v0,1
    7d74:	aee2014c 	sw	v0,332(s7)
    7d78:	8ee2014c 	lw	v0,332(s7)
    7d7c:	8f820108 	lw	v0,264(gp)
    7d80:	24420020 	addiu	v0,v0,32
    7d84:	af820108 	sw	v0,264(gp)
    7d88:	8f820108 	lw	v0,264(gp)
    7d8c:	8f820108 	lw	v0,264(gp)
    7d90:	27633000 	addiu	v1,k1,12288
    7d94:	0043102b 	sltu	v0,v0,v1
    7d98:	14400002 	bnez	v0,0x7da4
    7d9c:	27622800 	addiu	v0,k1,10240
    7da0:	af820108 	sw	v0,264(gp)
    7da4:	8f830108 	lw	v1,264(gp)
    7da8:	8f820104 	lw	v0,260(gp)
    7dac:	1462fc1e 	bne	v1,v0,0x6e28
    7db0:	00000000 	nop
    7db4:	8fbf0060 	lw	ra,96(sp)
    7db8:	8fbe005c 	lw	s8,92(sp)
    7dbc:	8fb60058 	lw	s6,88(sp)
    7dc0:	8fb50054 	lw	s5,84(sp)
    7dc4:	8fb40050 	lw	s4,80(sp)
    7dc8:	8fb3004c 	lw	s3,76(sp)
    7dcc:	8fb20048 	lw	s2,72(sp)
    7dd0:	8fb10044 	lw	s1,68(sp)
    7dd4:	8fb00040 	lw	s0,64(sp)
    7dd8:	03e00008 	jr	ra
    7ddc:	27bd0068 	addiu	sp,sp,104
    7de0:	00052843 	sra	a1,a1,0x1
    7de4:	10a0000d 	beqz	a1,0x7e1c
    7de8:	00003021 	move	a2,zero
    7dec:	3c030001 	lui	v1,0x1
    7df0:	34633800 	ori	v1,v1,0x3800
    7df4:	3c07ffff 	lui	a3,0xffff
    7df8:	03631021 	addu	v0,k1,v1
    7dfc:	0082102b 	sltu	v0,a0,v0
    7e00:	50400001 	beqzl	v0,0x7e08
    7e04:	00872021 	addu	a0,a0,a3
    7e08:	94820000 	lhu	v0,0(a0)
    7e0c:	24840002 	addiu	a0,a0,2
    7e10:	24a5ffff 	addiu	a1,a1,-1
    7e14:	14a0fff8 	bnez	a1,0x7df8
    7e18:	00c23021 	addu	a2,a2,v0
    7e1c:	00061c02 	srl	v1,a2,0x10
    7e20:	30c2ffff 	andi	v0,a2,0xffff
    7e24:	00623021 	addu	a2,v1,v0
    7e28:	00061c02 	srl	v1,a2,0x10
    7e2c:	30c2ffff 	andi	v0,a2,0xffff
    7e30:	00623021 	addu	a2,v1,v0
    7e34:	03e00008 	jr	ra
    7e38:	30c2ffff 	andi	v0,a2,0xffff
    7e3c:	27bdff88 	addiu	sp,sp,-120
    7e40:	240f0001 	li	t7,1
    7e44:	afbf0070 	sw	ra,112(sp)
    7e48:	afbe006c 	sw	s8,108(sp)
    7e4c:	afb60068 	sw	s6,104(sp)
    7e50:	afb50064 	sw	s5,100(sp)
    7e54:	afb40060 	sw	s4,96(sp)
    7e58:	afb3005c 	sw	s3,92(sp)
    7e5c:	afb20058 	sw	s2,88(sp)
    7e60:	afb10054 	sw	s1,84(sp)
    7e64:	afb00050 	sw	s0,80(sp)
    7e68:	a3a00027 	sb	zero,39(sp)
    7e6c:	afaf002c 	sw	t7,44(sp)
    7e70:	8ee204d4 	lw	v0,1236(s7)
    7e74:	00008021 	move	s0,zero
    7e78:	30420001 	andi	v0,v0,0x1
    7e7c:	1440002a 	bnez	v0,0x7f28
    7e80:	a3a00037 	sb	zero,55(sp)
    7e84:	8f8700e0 	lw	a3,224(gp)
    7e88:	8f8800c4 	lw	t0,196(gp)
    7e8c:	8f8200e8 	lw	v0,232(gp)
    7e90:	00e22023 	subu	a0,a3,v0
    7e94:	2c821000 	sltiu	v0,a0,4096
    7e98:	50400001 	beqzl	v0,0x7ea0
    7e9c:	24841000 	addiu	a0,a0,4096
    7ea0:	000420c2 	srl	a0,a0,0x3
    7ea4:	00801821 	move	v1,a0
    7ea8:	8ee400c8 	lw	a0,200(s7)
    7eac:	8ee500cc 	lw	a1,204(s7)
    7eb0:	00001021 	move	v0,zero
    7eb4:	00a32821 	addu	a1,a1,v1
    7eb8:	00a3302b 	sltu	a2,a1,v1
    7ebc:	00822021 	addu	a0,a0,v0
    7ec0:	00862021 	addu	a0,a0,a2
    7ec4:	aee400c8 	sw	a0,200(s7)
    7ec8:	aee500cc 	sw	a1,204(s7)
    7ecc:	8f8300c8 	lw	v1,200(gp)
    7ed0:	3c02000a 	lui	v0,0xa
    7ed4:	3442efff 	ori	v0,v0,0xefff
    7ed8:	01032023 	subu	a0,t0,v1
    7edc:	0044102b 	sltu	v0,v0,a0
    7ee0:	10400003 	beqz	v0,0x7ef0
    7ee4:	3c02000a 	lui	v0,0xa
    7ee8:	3442f000 	ori	v0,v0,0xf000
    7eec:	00822021 	addu	a0,a0,v0
    7ef0:	00801821 	move	v1,a0
    7ef4:	8ee400c0 	lw	a0,192(s7)
    7ef8:	8ee500c4 	lw	a1,196(s7)
    7efc:	00001021 	move	v0,zero
    7f00:	00a32821 	addu	a1,a1,v1
    7f04:	00a3302b 	sltu	a2,a1,v1
    7f08:	00822021 	addu	a0,a0,v0
    7f0c:	00862021 	addu	a0,a0,a2
    7f10:	aee400c0 	sw	a0,192(s7)
    7f14:	aee500c4 	sw	a1,196(s7)
    7f18:	af8800c8 	sw	t0,200(gp)
    7f1c:	af8700e4 	sw	a3,228(gp)
    7f20:	080034cc 	j	0xd330
    7f24:	af8700e8 	sw	a3,232(gp)
    7f28:	3c020001 	lui	v0,0x1
    7f2c:	00571021 	addu	v0,v0,s7
    7f30:	904283c0 	lbu	v0,-31808(v0)
    7f34:	1040000b 	beqz	v0,0x7f64
    7f38:	00000000 	nop
    7f3c:	3c140001 	lui	s4,0x1
    7f40:	0297a021 	addu	s4,s4,s7
    7f44:	8e9483c4 	lw	s4,-31804(s4)
    7f48:	3c130001 	lui	s3,0x1
    7f4c:	02779821 	addu	s3,s3,s7
    7f50:	8e7383c8 	lw	s3,-31800(s3)
    7f54:	3c120001 	lui	s2,0x1
    7f58:	02579021 	addu	s2,s2,s7
    7f5c:	08003193 	j	0xc64c
    7f60:	8e5283cc 	lw	s2,-31796(s2)
    7f64:	8f8300e0 	lw	v1,224(gp)
    7f68:	8f8200e4 	lw	v0,228(gp)
    7f6c:	10430007 	beq	v0,v1,0x7f8c
    7f70:	00008821 	move	s1,zero
    7f74:	8f8200e4 	lw	v0,228(gp)
    7f78:	24110001 	li	s1,1
    7f7c:	8c430000 	lw	v1,0(v0)
    7f80:	8c440004 	lw	a0,4(v0)
    7f84:	afa30018 	sw	v1,24(sp)
    7f88:	afa4001c 	sw	a0,28(sp)
    7f8c:	1620000e 	bnez	s1,0x7fc8
    7f90:	3c02ffff 	lui	v0,0xffff
    7f94:	8f8200c4 	lw	v0,196(gp)
    7f98:	afa20010 	sw	v0,16(sp)
    7f9c:	8f8200c8 	lw	v0,200(gp)
    7fa0:	3c040001 	lui	a0,0x1
    7fa4:	24845870 	addiu	a0,a0,22640
    7fa8:	afa20014 	sw	v0,20(sp)
    7fac:	8f8600e0 	lw	a2,224(gp)
    7fb0:	8f8700e4 	lw	a3,228(gp)
    7fb4:	3c050006 	lui	a1,0x6
    7fb8:	0c002403 	jal	0x900c
    7fbc:	34a5f000 	ori	a1,a1,0xf000
    7fc0:	080034cc 	j	0xd330
    7fc4:	00000000 	nop
    7fc8:	8fa3001c 	lw	v1,28(sp)
    7fcc:	8fb20018 	lw	s2,24(sp)
    7fd0:	3074ffff 	andi	s4,v1,0xffff
    7fd4:	2694fffc 	addiu	s4,s4,-4
    7fd8:	00621024 	and	v0,v1,v0
    7fdc:	10400058 	beqz	v0,0x8140
    7fe0:	02409821 	move	s3,s2
    7fe4:	3c020080 	lui	v0,0x80
    7fe8:	00621024 	and	v0,v1,v0
    7fec:	1040000a 	beqz	v0,0x8018
    7ff0:	3c040040 	lui	a0,0x40
    7ff4:	8ee2007c 	lw	v0,124(s7)
    7ff8:	24420001 	addiu	v0,v0,1
    7ffc:	aee2007c 	sw	v0,124(s7)
    8000:	8ee2007c 	lw	v0,124(s7)
    8004:	8ee201fc 	lw	v0,508(s7)
    8008:	24420001 	addiu	v0,v0,1
    800c:	aee201fc 	sw	v0,508(s7)
    8010:	080034c6 	j	0xd318
    8014:	8ee201fc 	lw	v0,508(s7)
    8018:	3c060004 	lui	a2,0x4
    801c:	3c0b0001 	lui	t3,0x1
    8020:	3c0a0002 	lui	t2,0x2
    8024:	3c050010 	lui	a1,0x10
    8028:	3c090008 	lui	t1,0x8
    802c:	8ee20080 	lw	v0,128(s7)
    8030:	3c080020 	lui	t0,0x20
    8034:	34078000 	li	a3,0x8000
    8038:	24420001 	addiu	v0,v0,1
    803c:	aee20080 	sw	v0,128(s7)
    8040:	8ee20080 	lw	v0,128(s7)
    8044:	8fa2001c 	lw	v0,28(sp)
    8048:	00441824 	and	v1,v0,a0
    804c:	10660021 	beq	v1,a2,0x80d4
    8050:	00c3102b 	sltu	v0,a2,v1
    8054:	14400007 	bnez	v0,0x8074
    8058:	00000000 	nop
    805c:	106b0011 	beq	v1,t3,0x80a4
    8060:	00000000 	nop
    8064:	106a0015 	beq	v1,t2,0x80bc
    8068:	00000000 	nop
    806c:	08003049 	j	0xc124
    8070:	00042042 	srl	a0,a0,0x1
    8074:	10650023 	beq	v1,a1,0x8104
    8078:	00a3102b 	sltu	v0,a1,v1
    807c:	14400005 	bnez	v0,0x8094
    8080:	00000000 	nop
    8084:	10690019 	beq	v1,t1,0x80ec
    8088:	00000000 	nop
    808c:	08003049 	j	0xc124
    8090:	00042042 	srl	a0,a0,0x1
    8094:	10680021 	beq	v1,t0,0x811c
    8098:	00000000 	nop
    809c:	08003049 	j	0xc124
    80a0:	00042042 	srl	a0,a0,0x1
    80a4:	8ee20034 	lw	v0,52(s7)
    80a8:	24420001 	addiu	v0,v0,1
    80ac:	aee20034 	sw	v0,52(s7)
    80b0:	8ee20034 	lw	v0,52(s7)
    80b4:	08003049 	j	0xc124
    80b8:	00042042 	srl	a0,a0,0x1
    80bc:	8ee201ec 	lw	v0,492(s7)
    80c0:	24420001 	addiu	v0,v0,1
    80c4:	aee201ec 	sw	v0,492(s7)
    80c8:	8ee201ec 	lw	v0,492(s7)
    80cc:	08003049 	j	0xc124
    80d0:	00042042 	srl	a0,a0,0x1
    80d4:	8ee201f0 	lw	v0,496(s7)
    80d8:	24420001 	addiu	v0,v0,1
    80dc:	aee201f0 	sw	v0,496(s7)
    80e0:	8ee201f0 	lw	v0,496(s7)
    80e4:	08003049 	j	0xc124
    80e8:	00042042 	srl	a0,a0,0x1
    80ec:	8ee201f4 	lw	v0,500(s7)
    80f0:	24420001 	addiu	v0,v0,1
    80f4:	aee201f4 	sw	v0,500(s7)
    80f8:	8ee201f4 	lw	v0,500(s7)
    80fc:	08003049 	j	0xc124
    8100:	00042042 	srl	a0,a0,0x1
    8104:	8ee20030 	lw	v0,48(s7)
    8108:	24420001 	addiu	v0,v0,1
    810c:	aee20030 	sw	v0,48(s7)
    8110:	8ee20030 	lw	v0,48(s7)
    8114:	08003049 	j	0xc124
    8118:	00042042 	srl	a0,a0,0x1
    811c:	8ee201f8 	lw	v0,504(s7)
    8120:	24420001 	addiu	v0,v0,1
    8124:	aee201f8 	sw	v0,504(s7)
    8128:	8ee201f8 	lw	v0,504(s7)
    812c:	00042042 	srl	a0,a0,0x1
    8130:	1087047c 	beq	a0,a3,0x9324
    8134:	00000000 	nop
    8138:	0800300e 	j	0xc038
    813c:	00000000 	nop
    8140:	3c020001 	lui	v0,0x1
    8144:	00571021 	addu	v0,v0,s7
    8148:	904283b2 	lbu	v0,-31822(v0)
    814c:	14400084 	bnez	v0,0x8360
    8150:	24020001 	li	v0,1
    8154:	3c030001 	lui	v1,0x1
    8158:	00771821 	addu	v1,v1,s7
    815c:	906383b3 	lbu	v1,-31821(v1)
    8160:	1462007f 	bne	v1,v0,0x8360
    8164:	3c020100 	lui	v0,0x100
    8168:	8e430000 	lw	v1,0(s2)
    816c:	00621024 	and	v0,v1,v0
    8170:	1040006f 	beqz	v0,0x8330
    8174:	2402ffff 	li	v0,-1
    8178:	14620005 	bne	v1,v0,0x8190
    817c:	24100001 	li	s0,1
    8180:	96430004 	lhu	v1,4(s2)
    8184:	3402ffff 	li	v0,0xffff
    8188:	10620075 	beq	v1,v0,0x8360
    818c:	00000000 	nop
    8190:	92e204d8 	lbu	v0,1240(s7)
    8194:	14400072 	bnez	v0,0x8360
    8198:	00000000 	nop
    819c:	3c020001 	lui	v0,0x1
    81a0:	00571021 	addu	v0,v0,s7
    81a4:	8c4283b4 	lw	v0,-31820(v0)
    81a8:	28420005 	slti	v0,v0,5
    81ac:	10400020 	beqz	v0,0x8230
    81b0:	00003821 	move	a3,zero
    81b4:	3c020001 	lui	v0,0x1
    81b8:	00571021 	addu	v0,v0,s7
    81bc:	8c4283b4 	lw	v0,-31820(v0)
    81c0:	18400016 	blez	v0,0x821c
    81c4:	00002821 	move	a1,zero
    81c8:	96660000 	lhu	a2,0(s3)
    81cc:	000520c0 	sll	a0,a1,0x3
    81d0:	00971021 	addu	v0,a0,s7
    81d4:	9442777e 	lhu	v0,30590(v0)
    81d8:	14460009 	bne	v0,a2,0x8200
    81dc:	00971021 	addu	v0,a0,s7
    81e0:	94437780 	lhu	v1,30592(v0)
    81e4:	96620002 	lhu	v0,2(s3)
    81e8:	14620005 	bne	v1,v0,0x8200
    81ec:	00971021 	addu	v0,a0,s7
    81f0:	94437782 	lhu	v1,30594(v0)
    81f4:	96620004 	lhu	v0,4(s3)
    81f8:	50620008 	beql	v1,v0,0x821c
    81fc:	24070001 	li	a3,1
    8200:	3c020001 	lui	v0,0x1
    8204:	00571021 	addu	v0,v0,s7
    8208:	8c4283b4 	lw	v0,-31820(v0)
    820c:	24a50001 	addiu	a1,a1,1
    8210:	00a2102a 	slt	v0,a1,v0
    8214:	5440ffee 	bnezl	v0,0x81d0
    8218:	000520c0 	sll	a0,a1,0x3
    821c:	30e200ff 	andi	v0,a3,0xff
    8220:	10400440 	beqz	v0,0x9324
    8224:	00000000 	nop
    8228:	080030d5 	j	0xc354
    822c:	00000000 	nop
    8230:	02402021 	move	a0,s2
    8234:	0c0022fe 	jal	0x8bf8
    8238:	24050006 	li	a1,6
    823c:	3044001f 	andi	a0,v0,0x1f
    8240:	000428c0 	sll	a1,a0,0x3
    8244:	02e51021 	addu	v0,s7,a1
    8248:	9442727c 	lhu	v0,29308(v0)
    824c:	30424000 	andi	v0,v0,0x4000
    8250:	14400434 	bnez	v0,0x9324
    8254:	00b71021 	addu	v0,a1,s7
    8258:	9443727e 	lhu	v1,29310(v0)
    825c:	96620000 	lhu	v0,0(s3)
    8260:	1462000b 	bne	v1,v0,0x8290
    8264:	000418c0 	sll	v1,a0,0x3
    8268:	00b71021 	addu	v0,a1,s7
    826c:	94437280 	lhu	v1,29312(v0)
    8270:	96620002 	lhu	v0,2(s3)
    8274:	14620006 	bne	v1,v0,0x8290
    8278:	000418c0 	sll	v1,a0,0x3
    827c:	00b71021 	addu	v0,a1,s7
    8280:	94437282 	lhu	v1,29314(v0)
    8284:	96620004 	lhu	v0,4(s3)
    8288:	10620035 	beq	v1,v0,0x8360
    828c:	000418c0 	sll	v1,a0,0x3
    8290:	02e31021 	addu	v0,s7,v1
    8294:	9442727c 	lhu	v0,29308(v0)
    8298:	30428000 	andi	v0,v0,0x8000
    829c:	14400421 	bnez	v0,0x9324
    82a0:	02e31021 	addu	v0,s7,v1
    82a4:	944b727c 	lhu	t3,29308(v0)
    82a8:	96670000 	lhu	a3,0(s3)
    82ac:	000b28c0 	sll	a1,t3,0x3
    82b0:	00b71021 	addu	v0,a1,s7
    82b4:	9442737e 	lhu	v0,29566(v0)
    82b8:	080030b7 	j	0xc2dc
    82bc:	00003021 	move	a2,zero
    82c0:	000420c0 	sll	a0,a0,0x3
    82c4:	02e41021 	addu	v0,s7,a0
    82c8:	9443737c 	lhu	v1,29564(v0)
    82cc:	02e41021 	addu	v0,s7,a0
    82d0:	944b737c 	lhu	t3,29564(v0)
    82d4:	30638000 	andi	v1,v1,0x8000
    82d8:	14600010 	bnez	v1,0x831c
    82dc:	000b28c0 	sll	a1,t3,0x3
    82e0:	00b71021 	addu	v0,a1,s7
    82e4:	9442737e 	lhu	v0,29566(v0)
    82e8:	1447fff5 	bne	v0,a3,0x82c0
    82ec:	01602021 	move	a0,t3
    82f0:	00b71021 	addu	v0,a1,s7
    82f4:	94437380 	lhu	v1,29568(v0)
    82f8:	96620002 	lhu	v0,2(s3)
    82fc:	5462fff1 	bnel	v1,v0,0x82c4
    8300:	000420c0 	sll	a0,a0,0x3
    8304:	00b71021 	addu	v0,a1,s7
    8308:	94437382 	lhu	v1,29570(v0)
    830c:	96620004 	lhu	v0,4(s3)
    8310:	5462ffec 	bnel	v1,v0,0x82c4
    8314:	000420c0 	sll	a0,a0,0x3
    8318:	24060001 	li	a2,1
    831c:	30c200ff 	andi	v0,a2,0xff
    8320:	10400400 	beqz	v0,0x9324
    8324:	00000000 	nop
    8328:	080030d5 	j	0xc354
    832c:	00000000 	nop
    8330:	97430202 	lhu	v1,514(k0)
    8334:	96420000 	lhu	v0,0(s2)
    8338:	146203fa 	bne	v1,v0,0x9324
    833c:	00000000 	nop
    8340:	97430204 	lhu	v1,516(k0)
    8344:	96420002 	lhu	v0,2(s2)
    8348:	146203f6 	bne	v1,v0,0x9324
    834c:	00000000 	nop
    8350:	97430206 	lhu	v1,518(k0)
    8354:	96420004 	lhu	v0,4(s2)
    8358:	146203f2 	bne	v1,v0,0x9324
    835c:	00000000 	nop
    8360:	92420000 	lbu	v0,0(s2)
    8364:	3a030001 	xori	v1,s0,0x1
    8368:	30420001 	andi	v0,v0,0x1
    836c:	00431024 	and	v0,v0,v1
    8370:	10400074 	beqz	v0,0x8544
    8374:	2402ffff 	li	v0,-1
    8378:	8e630000 	lw	v1,0(s3)
    837c:	14620004 	bne	v1,v0,0x8390
    8380:	3402ffff 	li	v0,0xffff
    8384:	96630004 	lhu	v1,4(s3)
    8388:	1062006f 	beq	v1,v0,0x8548
    838c:	240f0002 	li	t7,2
    8390:	3c020001 	lui	v0,0x1
    8394:	00571021 	addu	v0,v0,s7
    8398:	904283b2 	lbu	v0,-31822(v0)
    839c:	1440006a 	bnez	v0,0x8548
    83a0:	240f0003 	li	t7,3
    83a4:	92e204d8 	lbu	v0,1240(s7)
    83a8:	54400068 	bnezl	v0,0x854c
    83ac:	afaf002c 	sw	t7,44(sp)
    83b0:	3c020001 	lui	v0,0x1
    83b4:	00571021 	addu	v0,v0,s7
    83b8:	8c4283b4 	lw	v0,-31820(v0)
    83bc:	28420005 	slti	v0,v0,5
    83c0:	10400020 	beqz	v0,0x8444
    83c4:	00003821 	move	a3,zero
    83c8:	3c020001 	lui	v0,0x1
    83cc:	00571021 	addu	v0,v0,s7
    83d0:	8c4283b4 	lw	v0,-31820(v0)
    83d4:	18400016 	blez	v0,0x8430
    83d8:	00002821 	move	a1,zero
    83dc:	96660000 	lhu	a2,0(s3)
    83e0:	000520c0 	sll	a0,a1,0x3
    83e4:	00971021 	addu	v0,a0,s7
    83e8:	9442777e 	lhu	v0,30590(v0)
    83ec:	14460009 	bne	v0,a2,0x8414
    83f0:	00971021 	addu	v0,a0,s7
    83f4:	94437780 	lhu	v1,30592(v0)
    83f8:	96620002 	lhu	v0,2(s3)
    83fc:	14620005 	bne	v1,v0,0x8414
    8400:	00971021 	addu	v0,a0,s7
    8404:	94437782 	lhu	v1,30594(v0)
    8408:	96620004 	lhu	v0,4(s3)
    840c:	50620008 	beql	v1,v0,0x8430
    8410:	24070001 	li	a3,1
    8414:	3c020001 	lui	v0,0x1
    8418:	00571021 	addu	v0,v0,s7
    841c:	8c4283b4 	lw	v0,-31820(v0)
    8420:	24a50001 	addiu	a1,a1,1
    8424:	00a2102a 	slt	v0,a1,v0
    8428:	5440ffee 	bnezl	v0,0x83e4
    842c:	000520c0 	sll	a0,a1,0x3
    8430:	30e200ff 	andi	v0,a3,0xff
    8434:	14400044 	bnez	v0,0x8548
    8438:	240f0003 	li	t7,3
    843c:	080034c6 	j	0xd318
    8440:	00000000 	nop
    8444:	02402021 	move	a0,s2
    8448:	0c0022fe 	jal	0x8bf8
    844c:	24050006 	li	a1,6
    8450:	3044001f 	andi	a0,v0,0x1f
    8454:	000428c0 	sll	a1,a0,0x3
    8458:	02e51021 	addu	v0,s7,a1
    845c:	9442727c 	lhu	v0,29308(v0)
    8460:	30424000 	andi	v0,v0,0x4000
    8464:	144003af 	bnez	v0,0x9324
    8468:	00b71021 	addu	v0,a1,s7
    846c:	9443727e 	lhu	v1,29310(v0)
    8470:	96620000 	lhu	v0,0(s3)
    8474:	1462000b 	bne	v1,v0,0x84a4
    8478:	000418c0 	sll	v1,a0,0x3
    847c:	00b71021 	addu	v0,a1,s7
    8480:	94437280 	lhu	v1,29312(v0)
    8484:	96620002 	lhu	v0,2(s3)
    8488:	14620006 	bne	v1,v0,0x84a4
    848c:	000418c0 	sll	v1,a0,0x3
    8490:	00b71021 	addu	v0,a1,s7
    8494:	94437282 	lhu	v1,29314(v0)
    8498:	96620004 	lhu	v0,4(s3)
    849c:	10620027 	beq	v1,v0,0x853c
    84a0:	000418c0 	sll	v1,a0,0x3
    84a4:	02e31021 	addu	v0,s7,v1
    84a8:	9442727c 	lhu	v0,29308(v0)
    84ac:	30428000 	andi	v0,v0,0x8000
    84b0:	1440039c 	bnez	v0,0x9324
    84b4:	02e31021 	addu	v0,s7,v1
    84b8:	944b727c 	lhu	t3,29308(v0)
    84bc:	96670000 	lhu	a3,0(s3)
    84c0:	000b28c0 	sll	a1,t3,0x3
    84c4:	00b71021 	addu	v0,a1,s7
    84c8:	9442737e 	lhu	v0,29566(v0)
    84cc:	0800313c 	j	0xc4f0
    84d0:	00003021 	move	a2,zero
    84d4:	000420c0 	sll	a0,a0,0x3
    84d8:	02e41021 	addu	v0,s7,a0
    84dc:	9443737c 	lhu	v1,29564(v0)
    84e0:	02e41021 	addu	v0,s7,a0
    84e4:	944b737c 	lhu	t3,29564(v0)
    84e8:	30638000 	andi	v1,v1,0x8000
    84ec:	14600010 	bnez	v1,0x8530
    84f0:	000b28c0 	sll	a1,t3,0x3
    84f4:	00b71021 	addu	v0,a1,s7
    84f8:	9442737e 	lhu	v0,29566(v0)
    84fc:	1447fff5 	bne	v0,a3,0x84d4
    8500:	01602021 	move	a0,t3
    8504:	00b71021 	addu	v0,a1,s7
    8508:	94437380 	lhu	v1,29568(v0)
    850c:	96620002 	lhu	v0,2(s3)
    8510:	5462fff1 	bnel	v1,v0,0x84d8
    8514:	000420c0 	sll	a0,a0,0x3
    8518:	00b71021 	addu	v0,a1,s7
    851c:	94437382 	lhu	v1,29570(v0)
    8520:	96620004 	lhu	v0,4(s3)
    8524:	5462ffec 	bnel	v1,v0,0x84d8
    8528:	000420c0 	sll	a0,a0,0x3
    852c:	24060001 	li	a2,1
    8530:	30c200ff 	andi	v0,a2,0xff
    8534:	1040037b 	beqz	v0,0x9324
    8538:	00000000 	nop
    853c:	0800314f 	j	0xc53c
    8540:	240f0003 	li	t7,3
    8544:	240f0001 	li	t7,1
    8548:	afaf002c 	sw	t7,44(sp)
    854c:	8f420260 	lw	v0,608(k0)
    8550:	0054102b 	sltu	v0,v0,s4
    8554:	1040003a 	beqz	v0,0x8640
    8558:	00000000 	nop
    855c:	8f8300e4 	lw	v1,228(gp)
    8560:	8f8200e0 	lw	v0,224(gp)
    8564:	10620003 	beq	v1,v0,0x8574
    8568:	24630008 	addiu	v1,v1,8
    856c:	af8300e4 	sw	v1,228(gp)
    8570:	af8300e8 	sw	v1,232(gp)
    8574:	8ee400c0 	lw	a0,192(s7)
    8578:	8ee500c4 	lw	a1,196(s7)
    857c:	02801821 	move	v1,s4
    8580:	00001021 	move	v0,zero
    8584:	00a32821 	addu	a1,a1,v1
    8588:	00a3302b 	sltu	a2,a1,v1
    858c:	00822021 	addu	a0,a0,v0
    8590:	00862021 	addu	a0,a0,a2
    8594:	aee400c0 	sw	a0,192(s7)
    8598:	aee500c4 	sw	a1,196(s7)
    859c:	8ee20058 	lw	v0,88(s7)
    85a0:	24420001 	addiu	v0,v0,1
    85a4:	aee20058 	sw	v0,88(s7)
    85a8:	8ee20058 	lw	v0,88(s7)
    85ac:	8ee2007c 	lw	v0,124(s7)
    85b0:	24420001 	addiu	v0,v0,1
    85b4:	aee2007c 	sw	v0,124(s7)
    85b8:	8ee2007c 	lw	v0,124(s7)
    85bc:	8f8200e0 	lw	v0,224(gp)
    85c0:	afa20010 	sw	v0,16(sp)
    85c4:	8f8200e4 	lw	v0,228(gp)
    85c8:	3c040001 	lui	a0,0x1
    85cc:	24845878 	addiu	a0,a0,22648
    85d0:	afa20014 	sw	v0,20(sp)
    85d4:	8fa60018 	lw	a2,24(sp)
    85d8:	8fa7001c 	lw	a3,28(sp)
    85dc:	3c050006 	lui	a1,0x6
    85e0:	0c002403 	jal	0x900c
    85e4:	34a5f003 	ori	a1,a1,0xf003
    85e8:	080034cc 	j	0xd330
    85ec:	00000000 	nop
    85f0:	8ee25240 	lw	v0,21056(s7)
    85f4:	afa20010 	sw	v0,16(sp)
    85f8:	8ee25244 	lw	v0,21060(s7)
    85fc:	3c040001 	lui	a0,0x1
    8600:	24845884 	addiu	a0,a0,22660
    8604:	afa20014 	sw	v0,20(sp)
    8608:	8ee60e10 	lw	a2,3600(s7)
    860c:	8ee70e18 	lw	a3,3608(s7)
    8610:	3c050006 	lui	a1,0x6
    8614:	0c002403 	jal	0x900c
    8618:	34a5f002 	ori	a1,a1,0xf002
    861c:	8ee201c0 	lw	v0,448(s7)
    8620:	24420001 	addiu	v0,v0,1
    8624:	aee201c0 	sw	v0,448(s7)
    8628:	8ee20000 	lw	v0,0(s7)
    862c:	8ee301c0 	lw	v1,448(s7)
    8630:	2403ffbf 	li	v1,-65
    8634:	00431024 	and	v0,v0,v1
    8638:	08003470 	j	0xd1c0
    863c:	aee20000 	sw	v0,0(s7)
    8640:	96e20468 	lhu	v0,1128(s7)
    8644:	0054102b 	sltu	v0,v0,s4
    8648:	10400003 	beqz	v0,0x8658
    864c:	00000000 	nop
    8650:	240f0001 	li	t7,1
    8654:	a3af0027 	sb	t7,39(sp)
    8658:	12800301 	beqz	s4,0x9260
    865c:	24160007 	li	s6,7
    8660:	24150040 	li	s5,64
    8664:	241e0001 	li	s8,1
    8668:	240e0012 	li	t6,18
    866c:	8ee2724c 	lw	v0,29260(s7)
    8670:	8f430280 	lw	v1,640(k0)
    8674:	24420001 	addiu	v0,v0,1
    8678:	304207ff 	andi	v0,v0,0x7ff
    867c:	106202d3 	beq	v1,v0,0x91cc
    8680:	00000000 	nop
    8684:	93a20027 	lbu	v0,39(sp)
    8688:	10400014 	beqz	v0,0x86dc
    868c:	00000000 	nop
    8690:	8ee35240 	lw	v1,21056(s7)
    8694:	8ee25244 	lw	v0,21060(s7)
    8698:	10620009 	beq	v1,v0,0x86c0
    869c:	26ed5244 	addiu	t5,s7,21060
    86a0:	8ee65244 	lw	a2,21060(s7)
    86a4:	8ee35244 	lw	v1,21060(s7)
    86a8:	00021140 	sll	v0,v0,0x5
    86ac:	24425248 	addiu	v0,v0,21064
    86b0:	02e28021 	addu	s0,s7,v0
    86b4:	24630001 	addiu	v1,v1,1
    86b8:	080031bf 	j	0xc6fc
    86bc:	306b00ff 	andi	t3,v1,0xff
    86c0:	92e27248 	lbu	v0,29256(s7)
    86c4:	1440ffca 	bnez	v0,0x85f0
    86c8:	00000000 	nop
    86cc:	8ee201e0 	lw	v0,480(s7)
    86d0:	24420001 	addiu	v0,v0,1
    86d4:	aee201e0 	sw	v0,480(s7)
    86d8:	8ee201e0 	lw	v0,480(s7)
    86dc:	8ee30e10 	lw	v1,3600(s7)
    86e0:	8ee20e18 	lw	v0,3608(s7)
    86e4:	1062ffc2 	beq	v1,v0,0x85f0
    86e8:	26ed0e18 	addiu	t5,s7,3608
    86ec:	8ee60e18 	lw	a2,3608(s7)
    86f0:	8ee30e18 	lw	v1,3608(s7)
    86f4:	00021140 	sll	v0,v0,0x5
    86f8:	24420e20 	addiu	v0,v0,3616
    86fc:	02e28021 	addu	s0,s7,v0
    8700:	24630001 	addiu	v1,v1,1
    8704:	306b01ff 	andi	t3,v1,0x1ff
    8708:	96e2046a 	lhu	v0,1130(s7)
    870c:	30420010 	andi	v0,v0,0x10
    8710:	10400019 	beqz	v0,0x8778
    8714:	00000000 	nop
    8718:	9642000c 	lhu	v0,12(s2)
    871c:	340f8100 	li	t7,0x8100
    8720:	144f0015 	bne	v0,t7,0x8778
    8724:	00000000 	nop
    8728:	3c020001 	lui	v0,0x1
    872c:	00571021 	addu	v0,v0,s7
    8730:	904283c0 	lbu	v0,-31808(v0)
    8734:	14400010 	bnez	v0,0x8778
    8738:	00000000 	nop
    873c:	9642000e 	lhu	v0,14(s2)
    8740:	a6020016 	sh	v0,22(s0)
    8744:	8e420008 	lw	v0,8(s2)
    8748:	8e430004 	lw	v1,4(s2)
    874c:	8e440000 	lw	a0,0(s2)
    8750:	2694fffc 	addiu	s4,s4,-4
    8754:	ae42000c 	sw	v0,12(s2)
    8758:	ae430008 	sw	v1,8(s2)
    875c:	ae440004 	sw	a0,4(s2)
    8760:	9602000e 	lhu	v0,14(s0)
    8764:	26730004 	addiu	s3,s3,4
    8768:	240f0001 	li	t7,1
    876c:	a3af0037 	sb	t7,55(sp)
    8770:	34420200 	ori	v0,v0,0x200
    8774:	a602000e 	sh	v0,14(s0)
    8778:	8e020000 	lw	v0,0(s0)
    877c:	8e030004 	lw	v1,4(s0)
    8780:	3c040001 	lui	a0,0x1
    8784:	34843800 	ori	a0,a0,0x3800
    8788:	306a0007 	andi	t2,v1,0x7
    878c:	026a9823 	subu	s3,s3,t2
    8790:	03641021 	addu	v0,k1,a0
    8794:	0262102b 	sltu	v0,s3,v0
    8798:	10400005 	beqz	v0,0x87b0
    879c:	028aa021 	addu	s4,s4,t2
    87a0:	02641023 	subu	v0,s3,a0
    87a4:	03621823 	subu	v1,k1,v0
    87a8:	3c020020 	lui	v0,0x20
    87ac:	00439823 	subu	s3,v0,v1
    87b0:	26820007 	addiu	v0,s4,7
    87b4:	2404fff8 	li	a0,-8
    87b8:	9603000a 	lhu	v1,10(s0)
    87bc:	00446024 	and	t4,v0,a0
    87c0:	006a1821 	addu	v1,v1,t2
    87c4:	006c102b 	sltu	v0,v1,t4
    87c8:	10400002 	beqz	v0,0x87d4
    87cc:	01803821 	move	a3,t4
    87d0:	00603821 	move	a3,v1
    87d4:	ae130018 	sw	s3,24(s0)
    87d8:	8f880120 	lw	t0,288(gp)
    87dc:	24e20007 	addiu	v0,a3,7
    87e0:	00443824 	and	a3,v0,a0
    87e4:	27623800 	addiu	v0,k1,14336
    87e8:	25090020 	addiu	t1,t0,32
    87ec:	0122102b 	sltu	v0,t1,v0
    87f0:	50400001 	beqzl	v0,0x87f8
    87f4:	27693000 	addiu	t1,k1,12288
    87f8:	8f820128 	lw	v0,296(gp)
    87fc:	11220004 	beq	t1,v0,0x8810
    8800:	00000000 	nop
    8804:	8f820124 	lw	v0,292(gp)
    8808:	15220007 	bne	t1,v0,0x8828
    880c:	01401821 	move	v1,t2
    8810:	8ee201a4 	lw	v0,420(s7)
    8814:	00008821 	move	s1,zero
    8818:	24420001 	addiu	v0,v0,1
    881c:	aee201a4 	sw	v0,420(s7)
    8820:	0800324c 	j	0xc930
    8824:	8ee201a4 	lw	v0,420(s7)
    8828:	8e040000 	lw	a0,0(s0)
    882c:	8e050004 	lw	a1,4(s0)
    8830:	00001021 	move	v0,zero
    8834:	ad130008 	sw	s3,8(t0)
    8838:	a507000e 	sh	a3,14(t0)
    883c:	ad160018 	sw	s6,24(t0)
    8840:	ad06001c 	sw	a2,28(t0)
    8844:	00a3302b 	sltu	a2,a1,v1
    8848:	00a32823 	subu	a1,a1,v1
    884c:	00822023 	subu	a0,a0,v0
    8850:	00862023 	subu	a0,a0,a2
    8854:	ad040000 	sw	a0,0(t0)
    8858:	ad050004 	sw	a1,4(t0)
    885c:	8ee204c0 	lw	v0,1216(s7)
    8860:	ad020010 	sw	v0,16(t0)
    8864:	af890120 	sw	t1,288(gp)
    8868:	92e24e20 	lbu	v0,20000(s7)
    886c:	14400033 	bnez	v0,0x893c
    8870:	24110001 	li	s1,1
    8874:	8ee24e30 	lw	v0,20016(s7)
    8878:	000210c0 	sll	v0,v0,0x3
    887c:	24425038 	addiu	v0,v0,20536
    8880:	02e22021 	addu	a0,s7,v0
    8884:	8c820000 	lw	v0,0(a0)
    8888:	1456001f 	bne	v0,s6,0x8908
    888c:	00000000 	nop
    8890:	8ee34e30 	lw	v1,20016(s7)
    8894:	8ee24e34 	lw	v0,20020(s7)
    8898:	1062001b 	beq	v1,v0,0x8908
    889c:	00000000 	nop
    88a0:	8c820004 	lw	v0,4(a0)
    88a4:	24420001 	addiu	v0,v0,1
    88a8:	ac820004 	sw	v0,4(a0)
    88ac:	8ee24e34 	lw	v0,20020(s7)
    88b0:	8ee34e30 	lw	v1,20016(s7)
    88b4:	24420001 	addiu	v0,v0,1
    88b8:	10550007 	beq	v0,s5,0x88d8
    88bc:	00000000 	nop
    88c0:	8ee24e34 	lw	v0,20020(s7)
    88c4:	24420001 	addiu	v0,v0,1
    88c8:	10620005 	beq	v1,v0,0x88e0
    88cc:	00000000 	nop
    88d0:	08003239 	j	0xc8e4
    88d4:	00000000 	nop
    88d8:	14600005 	bnez	v1,0x88f0
    88dc:	00000000 	nop
    88e0:	8f820128 	lw	v0,296(gp)
    88e4:	24420020 	addiu	v0,v0,32
    88e8:	af820128 	sw	v0,296(gp)
    88ec:	8f820128 	lw	v0,296(gp)
    88f0:	8c820004 	lw	v0,4(a0)
    88f4:	2c420011 	sltiu	v0,v0,17
    88f8:	50400010 	beqzl	v0,0x893c
    88fc:	ac800000 	sw	zero,0(a0)
    8900:	0800324c 	j	0xc930
    8904:	00000000 	nop
    8908:	8ee24e30 	lw	v0,20016(s7)
    890c:	24420001 	addiu	v0,v0,1
    8910:	50550003 	beql	v0,s5,0x8920
    8914:	00001021 	move	v0,zero
    8918:	8ee24e30 	lw	v0,20016(s7)
    891c:	24420001 	addiu	v0,v0,1
    8920:	aee24e30 	sw	v0,20016(s7)
    8924:	8ee24e30 	lw	v0,20016(s7)
    8928:	000210c0 	sll	v0,v0,0x3
    892c:	24425038 	addiu	v0,v0,20536
    8930:	02e22021 	addu	a0,s7,v0
    8934:	ac960000 	sw	s6,0(a0)
    8938:	ac9e0004 	sw	s8,4(a0)
    893c:	16200018 	bnez	s1,0x89a0
    8940:	3c050006 	lui	a1,0x6
    8944:	8e020018 	lw	v0,24(s0)
    8948:	3c040001 	lui	a0,0x1
    894c:	24845890 	addiu	a0,a0,22672
    8950:	afa20010 	sw	v0,16(sp)
    8954:	8e020000 	lw	v0,0(s0)
    8958:	8e030004 	lw	v1,4(s0)
    895c:	34a5f009 	ori	a1,a1,0xf009
    8960:	02003021 	move	a2,s0
    8964:	0c002403 	jal	0x900c
    8968:	afa30014 	sw	v1,20(sp)
    896c:	93a20037 	lbu	v0,55(sp)
    8970:	10400216 	beqz	v0,0x91cc
    8974:	340f8100 	li	t7,0x8100
    8978:	8e420004 	lw	v0,4(s2)
    897c:	8e430008 	lw	v1,8(s2)
    8980:	8e44000c 	lw	a0,12(s2)
    8984:	a64f000c 	sh	t7,12(s2)
    8988:	ae420000 	sw	v0,0(s2)
    898c:	ae430004 	sw	v1,4(s2)
    8990:	ae440008 	sw	a0,8(s2)
    8994:	96020016 	lhu	v0,22(s0)
    8998:	08003470 	j	0xd1c0
    899c:	a642000e 	sh	v0,14(s2)
    89a0:	14ec0168 	bne	a3,t4,0x8f44
    89a4:	028a1823 	subu	v1,s4,t2
    89a8:	960c000a 	lhu	t4,10(s0)
    89ac:	9603000e 	lhu	v1,14(s0)
    89b0:	028a1023 	subu	v0,s4,t2
    89b4:	a602000a 	sh	v0,10(s0)
    89b8:	34620004 	ori	v0,v1,0x4
    89bc:	a602000e 	sh	v0,14(s0)
    89c0:	8f880120 	lw	t0,288(gp)
    89c4:	27623800 	addiu	v0,k1,14336
    89c8:	25090020 	addiu	t1,t0,32
    89cc:	0122102b 	sltu	v0,t1,v0
    89d0:	14400002 	bnez	v0,0x89dc
    89d4:	306affff 	andi	t2,v1,0xffff
    89d8:	27693000 	addiu	t1,k1,12288
    89dc:	8f820128 	lw	v0,296(gp)
    89e0:	11220004 	beq	t1,v0,0x89f4
    89e4:	00000000 	nop
    89e8:	8f820124 	lw	v0,292(gp)
    89ec:	15220007 	bne	t1,v0,0x8a0c
    89f0:	24040020 	li	a0,32
    89f4:	8ee201a4 	lw	v0,420(s7)
    89f8:	00008821 	move	s1,zero
    89fc:	24420001 	addiu	v0,v0,1
    8a00:	aee201a4 	sw	v0,420(s7)
    8a04:	080032ca 	j	0xcb28
    8a08:	8ee201a4 	lw	v0,420(s7)
    8a0c:	8ee5724c 	lw	a1,29260(s7)
    8a10:	8ee60490 	lw	a2,1168(s7)
    8a14:	8ee70494 	lw	a3,1172(s7)
    8a18:	a504000e 	sh	a0,14(t0)
    8a1c:	24040004 	li	a0,4
    8a20:	ad100008 	sw	s0,8(t0)
    8a24:	ad040018 	sw	a0,24(t0)
    8a28:	00052940 	sll	a1,a1,0x5
    8a2c:	00a01821 	move	v1,a1
    8a30:	00001021 	move	v0,zero
    8a34:	00e33821 	addu	a3,a3,v1
    8a38:	00e3202b 	sltu	a0,a3,v1
    8a3c:	00c23021 	addu	a2,a2,v0
    8a40:	00c43021 	addu	a2,a2,a0
    8a44:	ad060000 	sw	a2,0(t0)
    8a48:	ad070004 	sw	a3,4(t0)
    8a4c:	8ee2724c 	lw	v0,29260(s7)
    8a50:	ad02001c 	sw	v0,28(t0)
    8a54:	8ee204c4 	lw	v0,1220(s7)
    8a58:	ad020010 	sw	v0,16(t0)
    8a5c:	af890120 	sw	t1,288(gp)
    8a60:	92e24e20 	lbu	v0,20000(s7)
    8a64:	14400033 	bnez	v0,0x8b34
    8a68:	24110001 	li	s1,1
    8a6c:	8ee24e30 	lw	v0,20016(s7)
    8a70:	000210c0 	sll	v0,v0,0x3
    8a74:	24425038 	addiu	v0,v0,20536
    8a78:	02e22021 	addu	a0,s7,v0
    8a7c:	8c820000 	lw	v0,0(a0)
    8a80:	1456001f 	bne	v0,s6,0x8b00
    8a84:	00000000 	nop
    8a88:	8ee34e30 	lw	v1,20016(s7)
    8a8c:	8ee24e34 	lw	v0,20020(s7)
    8a90:	1062001b 	beq	v1,v0,0x8b00
    8a94:	00000000 	nop
    8a98:	8c820004 	lw	v0,4(a0)
    8a9c:	24420001 	addiu	v0,v0,1
    8aa0:	ac820004 	sw	v0,4(a0)
    8aa4:	8ee24e34 	lw	v0,20020(s7)
    8aa8:	8ee34e30 	lw	v1,20016(s7)
    8aac:	24420001 	addiu	v0,v0,1
    8ab0:	10550007 	beq	v0,s5,0x8ad0
    8ab4:	00000000 	nop
    8ab8:	8ee24e34 	lw	v0,20020(s7)
    8abc:	24420001 	addiu	v0,v0,1
    8ac0:	10620005 	beq	v1,v0,0x8ad8
    8ac4:	00000000 	nop
    8ac8:	080032b7 	j	0xcadc
    8acc:	00000000 	nop
    8ad0:	14600005 	bnez	v1,0x8ae8
    8ad4:	00000000 	nop
    8ad8:	8f820128 	lw	v0,296(gp)
    8adc:	24420020 	addiu	v0,v0,32
    8ae0:	af820128 	sw	v0,296(gp)
    8ae4:	8f820128 	lw	v0,296(gp)
    8ae8:	8c820004 	lw	v0,4(a0)
    8aec:	2c420011 	sltiu	v0,v0,17
    8af0:	50400010 	beqzl	v0,0x8b34
    8af4:	ac800000 	sw	zero,0(a0)
    8af8:	080032ca 	j	0xcb28
    8afc:	00000000 	nop
    8b00:	8ee24e30 	lw	v0,20016(s7)
    8b04:	24420001 	addiu	v0,v0,1
    8b08:	50550003 	beql	v0,s5,0x8b18
    8b0c:	00001021 	move	v0,zero
    8b10:	8ee24e30 	lw	v0,20016(s7)
    8b14:	24420001 	addiu	v0,v0,1
    8b18:	aee24e30 	sw	v0,20016(s7)
    8b1c:	8ee24e30 	lw	v0,20016(s7)
    8b20:	000210c0 	sll	v0,v0,0x3
    8b24:	24425038 	addiu	v0,v0,20536
    8b28:	02e22021 	addu	a0,s7,v0
    8b2c:	ac960000 	sw	s6,0(a0)
    8b30:	ac9e0004 	sw	s8,4(a0)
    8b34:	1620000d 	bnez	s1,0x8b6c
    8b38:	00000000 	nop
    8b3c:	a60c000a 	sh	t4,10(s0)
    8b40:	a60a000e 	sh	t2,14(s0)
    8b44:	8f820100 	lw	v0,256(gp)
    8b48:	afa20010 	sw	v0,16(sp)
    8b4c:	8f820104 	lw	v0,260(gp)
    8b50:	3c040001 	lui	a0,0x1
    8b54:	2484589c 	addiu	a0,a0,22684
    8b58:	3c050006 	lui	a1,0x6
    8b5c:	afa20014 	sw	v0,20(sp)
    8b60:	8ee6724c 	lw	a2,29260(s7)
    8b64:	0800343b 	j	0xd0ec
    8b68:	34a5f00b 	ori	a1,a1,0xf00b
    8b6c:	3c010001 	lui	at,0x1
    8b70:	00370821 	addu	at,at,s7
    8b74:	a02083c0 	sb	zero,-31808(at)
    8b78:	adab0000 	sw	t3,0(t5)
    8b7c:	8ee201d8 	lw	v0,472(s7)
    8b80:	8ee3724c 	lw	v1,29260(s7)
    8b84:	2442ffff 	addiu	v0,v0,-1
    8b88:	aee201d8 	sw	v0,472(s7)
    8b8c:	8ee201d8 	lw	v0,472(s7)
    8b90:	24630001 	addiu	v1,v1,1
    8b94:	306307ff 	andi	v1,v1,0x7ff
    8b98:	26e25244 	addiu	v0,s7,21060
    8b9c:	15a20006 	bne	t5,v0,0x8bb8
    8ba0:	aee3724c 	sw	v1,29260(s7)
    8ba4:	8ee201d0 	lw	v0,464(s7)
    8ba8:	2442ffff 	addiu	v0,v0,-1
    8bac:	aee201d0 	sw	v0,464(s7)
    8bb0:	080032ef 	j	0xcbbc
    8bb4:	8ee201d0 	lw	v0,464(s7)
    8bb8:	8ee201cc 	lw	v0,460(s7)
    8bbc:	2442ffff 	addiu	v0,v0,-1
    8bc0:	aee201cc 	sw	v0,460(s7)
    8bc4:	8ee201cc 	lw	v0,460(s7)
    8bc8:	8f420240 	lw	v0,576(k0)
    8bcc:	10400073 	beqz	v0,0x8d9c
    8bd0:	00000000 	nop
    8bd4:	8ee20e1c 	lw	v0,3612(s7)
    8bd8:	24420001 	addiu	v0,v0,1
    8bdc:	aee20e1c 	sw	v0,3612(s7)
    8be0:	8f430240 	lw	v1,576(k0)
    8be4:	0043102b 	sltu	v0,v0,v1
    8be8:	14400176 	bnez	v0,0x91c4
    8bec:	0000a021 	move	s4,zero
    8bf0:	8f830120 	lw	v1,288(gp)
    8bf4:	27623800 	addiu	v0,k1,14336
    8bf8:	24660020 	addiu	a2,v1,32
    8bfc:	00c2102b 	sltu	v0,a2,v0
    8c00:	50400001 	beqzl	v0,0x8c08
    8c04:	27663000 	addiu	a2,k1,12288
    8c08:	8f820128 	lw	v0,296(gp)
    8c0c:	10c20004 	beq	a2,v0,0x8c20
    8c10:	00000000 	nop
    8c14:	8f820124 	lw	v0,292(gp)
    8c18:	14c20007 	bne	a2,v0,0x8c38
    8c1c:	00000000 	nop
    8c20:	8ee201a4 	lw	v0,420(s7)
    8c24:	00008821 	move	s1,zero
    8c28:	24420001 	addiu	v0,v0,1
    8c2c:	aee201a4 	sw	v0,420(s7)
    8c30:	0800334f 	j	0xcd3c
    8c34:	8ee201a4 	lw	v0,420(s7)
    8c38:	8ee2724c 	lw	v0,29260(s7)
    8c3c:	ac62001c 	sw	v0,28(v1)
    8c40:	8ee404a8 	lw	a0,1192(s7)
    8c44:	8ee504ac 	lw	a1,1196(s7)
    8c48:	2462001c 	addiu	v0,v1,28
    8c4c:	ac620008 	sw	v0,8(v1)
    8c50:	24020008 	li	v0,8
    8c54:	a462000e 	sh	v0,14(v1)
    8c58:	24020011 	li	v0,17
    8c5c:	ac620018 	sw	v0,24(v1)
    8c60:	ac640000 	sw	a0,0(v1)
    8c64:	ac650004 	sw	a1,4(v1)
    8c68:	8ee204c4 	lw	v0,1220(s7)
    8c6c:	ac620010 	sw	v0,16(v1)
    8c70:	af860120 	sw	a2,288(gp)
    8c74:	92e24e20 	lbu	v0,20000(s7)
    8c78:	14400033 	bnez	v0,0x8d48
    8c7c:	24110001 	li	s1,1
    8c80:	8ee24e30 	lw	v0,20016(s7)
    8c84:	000210c0 	sll	v0,v0,0x3
    8c88:	24425038 	addiu	v0,v0,20536
    8c8c:	02e22021 	addu	a0,s7,v0
    8c90:	8c820000 	lw	v0,0(a0)
    8c94:	144e001f 	bne	v0,t6,0x8d14
    8c98:	00000000 	nop
    8c9c:	8ee34e30 	lw	v1,20016(s7)
    8ca0:	8ee24e34 	lw	v0,20020(s7)
    8ca4:	1062001b 	beq	v1,v0,0x8d14
    8ca8:	00000000 	nop
    8cac:	8c820004 	lw	v0,4(a0)
    8cb0:	24420001 	addiu	v0,v0,1
    8cb4:	ac820004 	sw	v0,4(a0)
    8cb8:	8ee24e34 	lw	v0,20020(s7)
    8cbc:	8ee34e30 	lw	v1,20016(s7)
    8cc0:	24420001 	addiu	v0,v0,1
    8cc4:	10550007 	beq	v0,s5,0x8ce4
    8cc8:	00000000 	nop
    8ccc:	8ee24e34 	lw	v0,20020(s7)
    8cd0:	24420001 	addiu	v0,v0,1
    8cd4:	10620005 	beq	v1,v0,0x8cec
    8cd8:	00000000 	nop
    8cdc:	0800333c 	j	0xccf0
    8ce0:	00000000 	nop
    8ce4:	14600005 	bnez	v1,0x8cfc
    8ce8:	00000000 	nop
    8cec:	8f820128 	lw	v0,296(gp)
    8cf0:	24420020 	addiu	v0,v0,32
    8cf4:	af820128 	sw	v0,296(gp)
    8cf8:	8f820128 	lw	v0,296(gp)
    8cfc:	8c820004 	lw	v0,4(a0)
    8d00:	2c420011 	sltiu	v0,v0,17
    8d04:	50400010 	beqzl	v0,0x8d48
    8d08:	ac800000 	sw	zero,0(a0)
    8d0c:	0800334f 	j	0xcd3c
    8d10:	00000000 	nop
    8d14:	8ee24e30 	lw	v0,20016(s7)
    8d18:	24420001 	addiu	v0,v0,1
    8d1c:	50550003 	beql	v0,s5,0x8d2c
    8d20:	00001021 	move	v0,zero
    8d24:	8ee24e30 	lw	v0,20016(s7)
    8d28:	24420001 	addiu	v0,v0,1
    8d2c:	aee24e30 	sw	v0,20016(s7)
    8d30:	8ee24e30 	lw	v0,20016(s7)
    8d34:	000210c0 	sll	v0,v0,0x3
    8d38:	24425038 	addiu	v0,v0,20536
    8d3c:	02e22021 	addu	a0,s7,v0
    8d40:	ac8e0000 	sw	t6,0(a0)
    8d44:	ac9e0004 	sw	s8,4(a0)
    8d48:	5620000d 	bnezl	s1,0x8d80
    8d4c:	24110001 	li	s1,1
    8d50:	8ee2724c 	lw	v0,29260(s7)
    8d54:	3c040001 	lui	a0,0x1
    8d58:	248458a8 	addiu	a0,a0,22696
    8d5c:	afa00014 	sw	zero,20(sp)
    8d60:	afa20010 	sw	v0,16(sp)
    8d64:	8ee6724c 	lw	a2,29260(s7)
    8d68:	8f470280 	lw	a3,640(k0)
    8d6c:	3c050009 	lui	a1,0x9
    8d70:	34a5f008 	ori	a1,a1,0xf008
    8d74:	0c002403 	jal	0x900c
    8d78:	afae0048 	sw	t6,72(sp)
    8d7c:	8fae0048 	lw	t6,72(sp)
    8d80:	56200001 	bnezl	s1,0x8d88
    8d84:	aee00e1c 	sw	zero,3612(s7)
    8d88:	8ee20188 	lw	v0,392(s7)
    8d8c:	24420001 	addiu	v0,v0,1
    8d90:	aee20188 	sw	v0,392(s7)
    8d94:	080033c8 	j	0xcf20
    8d98:	8ee20188 	lw	v0,392(s7)
    8d9c:	8f830120 	lw	v1,288(gp)
    8da0:	27623800 	addiu	v0,k1,14336
    8da4:	24660020 	addiu	a2,v1,32
    8da8:	00c2102b 	sltu	v0,a2,v0
    8dac:	50400001 	beqzl	v0,0x8db4
    8db0:	27663000 	addiu	a2,k1,12288
    8db4:	8f820128 	lw	v0,296(gp)
    8db8:	10c20004 	beq	a2,v0,0x8dcc
    8dbc:	00000000 	nop
    8dc0:	8f820124 	lw	v0,292(gp)
    8dc4:	14c20007 	bne	a2,v0,0x8de4
    8dc8:	00000000 	nop
    8dcc:	8ee201a4 	lw	v0,420(s7)
    8dd0:	00008821 	move	s1,zero
    8dd4:	24420001 	addiu	v0,v0,1
    8dd8:	aee201a4 	sw	v0,420(s7)
    8ddc:	080033ba 	j	0xcee8
    8de0:	8ee201a4 	lw	v0,420(s7)
    8de4:	8ee2724c 	lw	v0,29260(s7)
    8de8:	ac62001c 	sw	v0,28(v1)
    8dec:	8ee404a8 	lw	a0,1192(s7)
    8df0:	8ee504ac 	lw	a1,1196(s7)
    8df4:	2462001c 	addiu	v0,v1,28
    8df8:	ac620008 	sw	v0,8(v1)
    8dfc:	24020008 	li	v0,8
    8e00:	a462000e 	sh	v0,14(v1)
    8e04:	24020011 	li	v0,17
    8e08:	ac620018 	sw	v0,24(v1)
    8e0c:	ac640000 	sw	a0,0(v1)
    8e10:	ac650004 	sw	a1,4(v1)
    8e14:	8ee204c4 	lw	v0,1220(s7)
    8e18:	ac620010 	sw	v0,16(v1)
    8e1c:	af860120 	sw	a2,288(gp)
    8e20:	92e24e20 	lbu	v0,20000(s7)
    8e24:	14400033 	bnez	v0,0x8ef4
    8e28:	24110001 	li	s1,1
    8e2c:	8ee24e30 	lw	v0,20016(s7)
    8e30:	000210c0 	sll	v0,v0,0x3
    8e34:	24425038 	addiu	v0,v0,20536
    8e38:	02e22021 	addu	a0,s7,v0
    8e3c:	8c820000 	lw	v0,0(a0)
    8e40:	144e001f 	bne	v0,t6,0x8ec0
    8e44:	00000000 	nop
    8e48:	8ee34e30 	lw	v1,20016(s7)
    8e4c:	8ee24e34 	lw	v0,20020(s7)
    8e50:	1062001b 	beq	v1,v0,0x8ec0
    8e54:	00000000 	nop
    8e58:	8c820004 	lw	v0,4(a0)
    8e5c:	24420001 	addiu	v0,v0,1
    8e60:	ac820004 	sw	v0,4(a0)
    8e64:	8ee24e34 	lw	v0,20020(s7)
    8e68:	8ee34e30 	lw	v1,20016(s7)
    8e6c:	24420001 	addiu	v0,v0,1
    8e70:	10550007 	beq	v0,s5,0x8e90
    8e74:	00000000 	nop
    8e78:	8ee24e34 	lw	v0,20020(s7)
    8e7c:	24420001 	addiu	v0,v0,1
    8e80:	10620005 	beq	v1,v0,0x8e98
    8e84:	00000000 	nop
    8e88:	080033a7 	j	0xce9c
    8e8c:	00000000 	nop
    8e90:	14600005 	bnez	v1,0x8ea8
    8e94:	00000000 	nop
    8e98:	8f820128 	lw	v0,296(gp)
    8e9c:	24420020 	addiu	v0,v0,32
    8ea0:	af820128 	sw	v0,296(gp)
    8ea4:	8f820128 	lw	v0,296(gp)
    8ea8:	8c820004 	lw	v0,4(a0)
    8eac:	2c420011 	sltiu	v0,v0,17
    8eb0:	50400010 	beqzl	v0,0x8ef4
    8eb4:	ac800000 	sw	zero,0(a0)
    8eb8:	080033ba 	j	0xcee8
    8ebc:	00000000 	nop
    8ec0:	8ee24e30 	lw	v0,20016(s7)
    8ec4:	24420001 	addiu	v0,v0,1
    8ec8:	50550003 	beql	v0,s5,0x8ed8
    8ecc:	00001021 	move	v0,zero
    8ed0:	8ee24e30 	lw	v0,20016(s7)
    8ed4:	24420001 	addiu	v0,v0,1
    8ed8:	aee24e30 	sw	v0,20016(s7)
    8edc:	8ee24e30 	lw	v0,20016(s7)
    8ee0:	000210c0 	sll	v0,v0,0x3
    8ee4:	24425038 	addiu	v0,v0,20536
    8ee8:	02e22021 	addu	a0,s7,v0
    8eec:	ac8e0000 	sw	t6,0(a0)
    8ef0:	ac9e0004 	sw	s8,4(a0)
    8ef4:	1620000d 	bnez	s1,0x8f2c
    8ef8:	00000000 	nop
    8efc:	8ee2724c 	lw	v0,29260(s7)
    8f00:	3c040001 	lui	a0,0x1
    8f04:	248458a8 	addiu	a0,a0,22696
    8f08:	afa00014 	sw	zero,20(sp)
    8f0c:	afa20010 	sw	v0,16(sp)
    8f10:	8ee6724c 	lw	a2,29260(s7)
    8f14:	8f470280 	lw	a3,640(k0)
    8f18:	3c050009 	lui	a1,0x9
    8f1c:	34a5f008 	ori	a1,a1,0xf008
    8f20:	0c002403 	jal	0x900c
    8f24:	afae0048 	sw	t6,72(sp)
    8f28:	8fae0048 	lw	t6,72(sp)
    8f2c:	8ee20174 	lw	v0,372(s7)
    8f30:	24420001 	addiu	v0,v0,1
    8f34:	aee20174 	sw	v0,372(s7)
    8f38:	8ee20174 	lw	v0,372(s7)
    8f3c:	0800346e 	j	0xd1b8
    8f40:	0000a021 	move	s4,zero
    8f44:	960c000a 	lhu	t4,10(s0)
    8f48:	0183102b 	sltu	v0,t4,v1
    8f4c:	54400001 	bnezl	v0,0x8f54
    8f50:	01801821 	move	v1,t4
    8f54:	a603000a 	sh	v1,10(s0)
    8f58:	8f880120 	lw	t0,288(gp)
    8f5c:	27623800 	addiu	v0,k1,14336
    8f60:	25090020 	addiu	t1,t0,32
    8f64:	0122102b 	sltu	v0,t1,v0
    8f68:	50400001 	beqzl	v0,0x8f70
    8f6c:	27693000 	addiu	t1,k1,12288
    8f70:	8f820128 	lw	v0,296(gp)
    8f74:	11220004 	beq	t1,v0,0x8f88
    8f78:	00000000 	nop
    8f7c:	8f820124 	lw	v0,292(gp)
    8f80:	15220007 	bne	t1,v0,0x8fa0
    8f84:	24040020 	li	a0,32
    8f88:	8ee201a4 	lw	v0,420(s7)
    8f8c:	00008821 	move	s1,zero
    8f90:	24420001 	addiu	v0,v0,1
    8f94:	aee201a4 	sw	v0,420(s7)
    8f98:	0800342f 	j	0xd0bc
    8f9c:	8ee201a4 	lw	v0,420(s7)
    8fa0:	8ee5724c 	lw	a1,29260(s7)
    8fa4:	8ee60490 	lw	a2,1168(s7)
    8fa8:	8ee70494 	lw	a3,1172(s7)
    8fac:	a504000e 	sh	a0,14(t0)
    8fb0:	24040004 	li	a0,4
    8fb4:	ad100008 	sw	s0,8(t0)
    8fb8:	ad040018 	sw	a0,24(t0)
    8fbc:	00052940 	sll	a1,a1,0x5
    8fc0:	00a01821 	move	v1,a1
    8fc4:	00001021 	move	v0,zero
    8fc8:	00e33821 	addu	a3,a3,v1
    8fcc:	00e3202b 	sltu	a0,a3,v1
    8fd0:	00c23021 	addu	a2,a2,v0
    8fd4:	00c43021 	addu	a2,a2,a0
    8fd8:	ad060000 	sw	a2,0(t0)
    8fdc:	ad070004 	sw	a3,4(t0)
    8fe0:	8ee2724c 	lw	v0,29260(s7)
    8fe4:	ad02001c 	sw	v0,28(t0)
    8fe8:	8ee204c4 	lw	v0,1220(s7)
    8fec:	ad020010 	sw	v0,16(t0)
    8ff0:	af890120 	sw	t1,288(gp)
    8ff4:	92e24e20 	lbu	v0,20000(s7)
    8ff8:	14400033 	bnez	v0,0x90c8
    8ffc:	24110001 	li	s1,1
    9000:	8ee24e30 	lw	v0,20016(s7)
    9004:	000210c0 	sll	v0,v0,0x3
    9008:	24425038 	addiu	v0,v0,20536
    900c:	02e22021 	addu	a0,s7,v0
    9010:	8c820000 	lw	v0,0(a0)
    9014:	1456001f 	bne	v0,s6,0x9094
    9018:	00000000 	nop
    901c:	8ee34e30 	lw	v1,20016(s7)
    9020:	8ee24e34 	lw	v0,20020(s7)
    9024:	1062001b 	beq	v1,v0,0x9094
    9028:	00000000 	nop
    902c:	8c820004 	lw	v0,4(a0)
    9030:	24420001 	addiu	v0,v0,1
    9034:	ac820004 	sw	v0,4(a0)
    9038:	8ee24e34 	lw	v0,20020(s7)
    903c:	8ee34e30 	lw	v1,20016(s7)
    9040:	24420001 	addiu	v0,v0,1
    9044:	10550007 	beq	v0,s5,0x9064
    9048:	00000000 	nop
    904c:	8ee24e34 	lw	v0,20020(s7)
    9050:	24420001 	addiu	v0,v0,1
    9054:	10620005 	beq	v1,v0,0x906c
    9058:	00000000 	nop
    905c:	0800341c 	j	0xd070
    9060:	00000000 	nop
    9064:	14600005 	bnez	v1,0x907c
    9068:	00000000 	nop
    906c:	8f820128 	lw	v0,296(gp)
    9070:	24420020 	addiu	v0,v0,32
    9074:	af820128 	sw	v0,296(gp)
    9078:	8f820128 	lw	v0,296(gp)
    907c:	8c820004 	lw	v0,4(a0)
    9080:	2c420011 	sltiu	v0,v0,17
    9084:	50400010 	beqzl	v0,0x90c8
    9088:	ac800000 	sw	zero,0(a0)
    908c:	0800342f 	j	0xd0bc
    9090:	00000000 	nop
    9094:	8ee24e30 	lw	v0,20016(s7)
    9098:	24420001 	addiu	v0,v0,1
    909c:	50550003 	beql	v0,s5,0x90ac
    90a0:	00001021 	move	v0,zero
    90a4:	8ee24e30 	lw	v0,20016(s7)
    90a8:	24420001 	addiu	v0,v0,1
    90ac:	aee24e30 	sw	v0,20016(s7)
    90b0:	8ee24e30 	lw	v0,20016(s7)
    90b4:	000210c0 	sll	v0,v0,0x3
    90b8:	24425038 	addiu	v0,v0,20536
    90bc:	02e22021 	addu	a0,s7,v0
    90c0:	ac960000 	sw	s6,0(a0)
    90c4:	ac9e0004 	sw	s8,4(a0)
    90c8:	1620001d 	bnez	s1,0x9140
    90cc:	00000000 	nop
    90d0:	a60c000a 	sh	t4,10(s0)
    90d4:	8f820100 	lw	v0,256(gp)
    90d8:	afa20010 	sw	v0,16(sp)
    90dc:	8f820104 	lw	v0,260(gp)
    90e0:	3c040001 	lui	a0,0x1
    90e4:	2484589c 	addiu	a0,a0,22684
    90e8:	3c050006 	lui	a1,0x6
    90ec:	afa20014 	sw	v0,20(sp)
    90f0:	8ee6724c 	lw	a2,29260(s7)
    90f4:	34a5f00d 	ori	a1,a1,0xf00d
    90f8:	0c002403 	jal	0x900c
    90fc:	02003821 	move	a3,s0
    9100:	93a20037 	lbu	v0,55(sp)
    9104:	10400031 	beqz	v0,0x91cc
    9108:	340f8100 	li	t7,0x8100
    910c:	8e420004 	lw	v0,4(s2)
    9110:	8e430008 	lw	v1,8(s2)
    9114:	8e44000c 	lw	a0,12(s2)
    9118:	a64f000c 	sh	t7,12(s2)
    911c:	ae420000 	sw	v0,0(s2)
    9120:	ae430004 	sw	v1,4(s2)
    9124:	ae440008 	sw	a0,8(s2)
    9128:	96020016 	lhu	v0,22(s0)
    912c:	a642000e 	sh	v0,14(s2)
    9130:	9602000e 	lhu	v0,14(s0)
    9134:	3042fdff 	andi	v0,v0,0xfdff
    9138:	08003470 	j	0xd1c0
    913c:	a602000e 	sh	v0,14(s0)
    9140:	8ee201d8 	lw	v0,472(s7)
    9144:	2442ffff 	addiu	v0,v0,-1
    9148:	aee201d8 	sw	v0,472(s7)
    914c:	8ee201d8 	lw	v0,472(s7)
    9150:	8ee201cc 	lw	v0,460(s7)
    9154:	3c04001f 	lui	a0,0x1f
    9158:	3c010001 	lui	at,0x1
    915c:	00370821 	addu	at,at,s7
    9160:	a03e83c0 	sb	s8,-31808(at)
    9164:	2442ffff 	addiu	v0,v0,-1
    9168:	aee201cc 	sw	v0,460(s7)
    916c:	9603000a 	lhu	v1,10(s0)
    9170:	3484ffff 	ori	a0,a0,0xffff
    9174:	8ee201cc 	lw	v0,460(s7)
    9178:	006a1821 	addu	v1,v1,t2
    917c:	02639821 	addu	s3,s3,v1
    9180:	0093202b 	sltu	a0,a0,s3
    9184:	10800003 	beqz	a0,0x9194
    9188:	3c02fff5 	lui	v0,0xfff5
    918c:	34421000 	ori	v0,v0,0x1000
    9190:	02629821 	addu	s3,s3,v0
    9194:	adab0000 	sw	t3,0(t5)
    9198:	8ee2724c 	lw	v0,29260(s7)
    919c:	24420001 	addiu	v0,v0,1
    91a0:	304207ff 	andi	v0,v0,0x7ff
    91a4:	aee2724c 	sw	v0,29260(s7)
    91a8:	8f420240 	lw	v0,576(k0)
    91ac:	10400004 	beqz	v0,0x91c0
    91b0:	0283a023 	subu	s4,s4,v1
    91b4:	8ee20e1c 	lw	v0,3612(s7)
    91b8:	24420001 	addiu	v0,v0,1
    91bc:	aee20e1c 	sw	v0,3612(s7)
    91c0:	a3a00027 	sb	zero,39(sp)
    91c4:	1680fd29 	bnez	s4,0x866c
    91c8:	00000000 	nop
    91cc:	12800024 	beqz	s4,0x9260
    91d0:	00000000 	nop
    91d4:	3c010001 	lui	at,0x1
    91d8:	00370821 	addu	at,at,s7
    91dc:	ac3483c4 	sw	s4,-31804(at)
    91e0:	3c010001 	lui	at,0x1
    91e4:	00370821 	addu	at,at,s7
    91e8:	ac3383c8 	sw	s3,-31800(at)
    91ec:	3c010001 	lui	at,0x1
    91f0:	00370821 	addu	at,at,s7
    91f4:	ac3283cc 	sw	s2,-31796(at)
    91f8:	93a20037 	lbu	v0,55(sp)
    91fc:	10400008 	beqz	v0,0x9220
    9200:	00000000 	nop
    9204:	3c020001 	lui	v0,0x1
    9208:	00571021 	addu	v0,v0,s7
    920c:	8c4283cc 	lw	v0,-31796(v0)
    9210:	24420004 	addiu	v0,v0,4
    9214:	3c010001 	lui	at,0x1
    9218:	00370821 	addu	at,at,s7
    921c:	ac2283cc 	sw	v0,-31796(at)
    9220:	8ee2724c 	lw	v0,29260(s7)
    9224:	8f430280 	lw	v1,640(k0)
    9228:	24420001 	addiu	v0,v0,1
    922c:	304207ff 	andi	v0,v0,0x7ff
    9230:	14620006 	bne	v1,v0,0x924c
    9234:	00000000 	nop
    9238:	8ee201c4 	lw	v0,452(s7)
    923c:	24420001 	addiu	v0,v0,1
    9240:	aee201c4 	sw	v0,452(s7)
    9244:	080034cc 	j	0xd330
    9248:	8ee201c4 	lw	v0,452(s7)
    924c:	8ee201bc 	lw	v0,444(s7)
    9250:	24420001 	addiu	v0,v0,1
    9254:	aee201bc 	sw	v0,444(s7)
    9258:	080034cc 	j	0xd330
    925c:	8ee201bc 	lw	v0,444(s7)
    9260:	97a4001e 	lhu	a0,30(sp)
    9264:	2484fffc 	addiu	a0,a0,-4
    9268:	00801821 	move	v1,a0
    926c:	8ee400c0 	lw	a0,192(s7)
    9270:	8ee500c4 	lw	a1,196(s7)
    9274:	00001021 	move	v0,zero
    9278:	00a32821 	addu	a1,a1,v1
    927c:	00a3302b 	sltu	a2,a1,v1
    9280:	00822021 	addu	a0,a0,v0
    9284:	00862021 	addu	a0,a0,a2
    9288:	aee400c0 	sw	a0,192(s7)
    928c:	aee500c4 	sw	a1,196(s7)
    9290:	8faf002c 	lw	t7,44(sp)
    9294:	24020002 	li	v0,2
    9298:	11e2000f 	beq	t7,v0,0x92d8
    929c:	29e20003 	slti	v0,t7,3
    92a0:	14400017 	bnez	v0,0x9300
    92a4:	24020003 	li	v0,3
    92a8:	15e20015 	bne	t7,v0,0x9300
    92ac:	00000000 	nop
    92b0:	8ee200d0 	lw	v0,208(s7)
    92b4:	8ee300d4 	lw	v1,212(s7)
    92b8:	24630001 	addiu	v1,v1,1
    92bc:	2c640001 	sltiu	a0,v1,1
    92c0:	00441021 	addu	v0,v0,a0
    92c4:	aee200d0 	sw	v0,208(s7)
    92c8:	aee300d4 	sw	v1,212(s7)
    92cc:	8ee200d0 	lw	v0,208(s7)
    92d0:	080034c6 	j	0xd318
    92d4:	8ee300d4 	lw	v1,212(s7)
    92d8:	8ee200d8 	lw	v0,216(s7)
    92dc:	8ee300dc 	lw	v1,220(s7)
    92e0:	24630001 	addiu	v1,v1,1
    92e4:	2c640001 	sltiu	a0,v1,1
    92e8:	00441021 	addu	v0,v0,a0
    92ec:	aee200d8 	sw	v0,216(s7)
    92f0:	aee300dc 	sw	v1,220(s7)
    92f4:	8ee200d8 	lw	v0,216(s7)
    92f8:	080034c6 	j	0xd318
    92fc:	8ee300dc 	lw	v1,220(s7)
    9300:	8ee200c8 	lw	v0,200(s7)
    9304:	8ee300cc 	lw	v1,204(s7)
    9308:	24630001 	addiu	v1,v1,1
    930c:	2c640001 	sltiu	a0,v1,1
    9310:	00441021 	addu	v0,v0,a0
    9314:	aee200c8 	sw	v0,200(s7)
    9318:	aee300cc 	sw	v1,204(s7)
    931c:	8ee200c8 	lw	v0,200(s7)
    9320:	8ee300cc 	lw	v1,204(s7)
    9324:	8f8300e4 	lw	v1,228(gp)
    9328:	8f8200e0 	lw	v0,224(gp)
    932c:	10620003 	beq	v1,v0,0x933c
    9330:	24630008 	addiu	v1,v1,8
    9334:	af8300e4 	sw	v1,228(gp)
    9338:	af8300e8 	sw	v1,232(gp)
    933c:	8fbf0070 	lw	ra,112(sp)
    9340:	8fbe006c 	lw	s8,108(sp)
    9344:	8fb60068 	lw	s6,104(sp)
    9348:	8fb50064 	lw	s5,100(sp)
    934c:	8fb40060 	lw	s4,96(sp)
    9350:	8fb3005c 	lw	s3,92(sp)
    9354:	8fb20058 	lw	s2,88(sp)
    9358:	8fb10054 	lw	s1,84(sp)
    935c:	8fb00050 	lw	s0,80(sp)
    9360:	03e00008 	jr	ra
    9364:	27bd0078 	addiu	sp,sp,120
    9368:	27bdffb0 	addiu	sp,sp,-80
    936c:	afb50044 	sw	s5,68(sp)
    9370:	0000a821 	move	s5,zero
    9374:	afb00030 	sw	s0,48(sp)
    9378:	00008021 	move	s0,zero
    937c:	afbf004c 	sw	ra,76(sp)
    9380:	afb60048 	sw	s6,72(sp)
    9384:	afb40040 	sw	s4,64(sp)
    9388:	afb3003c 	sw	s3,60(sp)
    938c:	afb20038 	sw	s2,56(sp)
    9390:	afb10034 	sw	s1,52(sp)
    9394:	8ee204d4 	lw	v0,1236(s7)
    9398:	24140001 	li	s4,1
    939c:	30420001 	andi	v0,v0,0x1
    93a0:	1440002a 	bnez	v0,0x944c
    93a4:	0000b021 	move	s6,zero
    93a8:	8f8700e0 	lw	a3,224(gp)
    93ac:	8f8800c4 	lw	t0,196(gp)
    93b0:	8f8200e8 	lw	v0,232(gp)
    93b4:	00e22023 	subu	a0,a3,v0
    93b8:	2c821000 	sltiu	v0,a0,4096
    93bc:	50400001 	beqzl	v0,0x93c4
    93c0:	24841000 	addiu	a0,a0,4096
    93c4:	000420c2 	srl	a0,a0,0x3
    93c8:	00801821 	move	v1,a0
    93cc:	8ee400c8 	lw	a0,200(s7)
    93d0:	8ee500cc 	lw	a1,204(s7)
    93d4:	00001021 	move	v0,zero
    93d8:	00a32821 	addu	a1,a1,v1
    93dc:	00a3302b 	sltu	a2,a1,v1
    93e0:	00822021 	addu	a0,a0,v0
    93e4:	00862021 	addu	a0,a0,a2
    93e8:	aee400c8 	sw	a0,200(s7)
    93ec:	aee500cc 	sw	a1,204(s7)
    93f0:	8f8300c8 	lw	v1,200(gp)
    93f4:	3c02000a 	lui	v0,0xa
    93f8:	3442efff 	ori	v0,v0,0xefff
    93fc:	01032023 	subu	a0,t0,v1
    9400:	0044102b 	sltu	v0,v0,a0
    9404:	10400003 	beqz	v0,0x9414
    9408:	3c02000a 	lui	v0,0xa
    940c:	3442f000 	ori	v0,v0,0xf000
    9410:	00822021 	addu	a0,a0,v0
    9414:	00801821 	move	v1,a0
    9418:	8ee400c0 	lw	a0,192(s7)
    941c:	8ee500c4 	lw	a1,196(s7)
    9420:	00001021 	move	v0,zero
    9424:	00a32821 	addu	a1,a1,v1
    9428:	00a3302b 	sltu	a2,a1,v1
    942c:	00822021 	addu	a0,a0,v0
    9430:	00862021 	addu	a0,a0,a2
    9434:	aee400c0 	sw	a0,192(s7)
    9438:	aee500c4 	sw	a1,196(s7)
    943c:	af8800c8 	sw	t0,200(gp)
    9440:	af8700e4 	sw	a3,228(gp)
    9444:	08003850 	j	0xe140
    9448:	af8700e8 	sw	a3,232(gp)
    944c:	3c020001 	lui	v0,0x1
    9450:	00571021 	addu	v0,v0,s7
    9454:	904283c0 	lbu	v0,-31808(v0)
    9458:	1040000b 	beqz	v0,0x9488
    945c:	00000000 	nop
    9460:	3c130001 	lui	s3,0x1
    9464:	02779821 	addu	s3,s3,s7
    9468:	8e7383c4 	lw	s3,-31804(s3)
    946c:	3c110001 	lui	s1,0x1
    9470:	02378821 	addu	s1,s1,s7
    9474:	8e3183c8 	lw	s1,-31800(s1)
    9478:	3c120001 	lui	s2,0x1
    947c:	02579021 	addu	s2,s2,s7
    9480:	080036e8 	j	0xdba0
    9484:	8e5283cc 	lw	s2,-31796(s2)
    9488:	8f8300e0 	lw	v1,224(gp)
    948c:	8f8200e4 	lw	v0,228(gp)
    9490:	10430007 	beq	v0,v1,0x94b0
    9494:	00004821 	move	t1,zero
    9498:	8f8200e4 	lw	v0,228(gp)
    949c:	24090001 	li	t1,1
    94a0:	8c430000 	lw	v1,0(v0)
    94a4:	8c440004 	lw	a0,4(v0)
    94a8:	afa30018 	sw	v1,24(sp)
    94ac:	afa4001c 	sw	a0,28(sp)
    94b0:	1520000e 	bnez	t1,0x94ec
    94b4:	3c02ffff 	lui	v0,0xffff
    94b8:	8f8200c4 	lw	v0,196(gp)
    94bc:	afa20010 	sw	v0,16(sp)
    94c0:	8f8200c8 	lw	v0,200(gp)
    94c4:	3c040001 	lui	a0,0x1
    94c8:	24845870 	addiu	a0,a0,22640
    94cc:	afa20014 	sw	v0,20(sp)
    94d0:	8f8600e0 	lw	a2,224(gp)
    94d4:	8f8700e4 	lw	a3,228(gp)
    94d8:	3c050006 	lui	a1,0x6
    94dc:	0c002403 	jal	0x900c
    94e0:	34a5f000 	ori	a1,a1,0xf000
    94e4:	08003850 	j	0xe140
    94e8:	00000000 	nop
    94ec:	8fa3001c 	lw	v1,28(sp)
    94f0:	8fb20018 	lw	s2,24(sp)
    94f4:	3073ffff 	andi	s3,v1,0xffff
    94f8:	2673fffc 	addiu	s3,s3,-4
    94fc:	00621024 	and	v0,v1,v0
    9500:	10400058 	beqz	v0,0x9664
    9504:	02408821 	move	s1,s2
    9508:	3c020080 	lui	v0,0x80
    950c:	00621024 	and	v0,v1,v0
    9510:	1040000a 	beqz	v0,0x953c
    9514:	3c040040 	lui	a0,0x40
    9518:	8ee2007c 	lw	v0,124(s7)
    951c:	24420001 	addiu	v0,v0,1
    9520:	aee2007c 	sw	v0,124(s7)
    9524:	8ee2007c 	lw	v0,124(s7)
    9528:	8ee201fc 	lw	v0,508(s7)
    952c:	24420001 	addiu	v0,v0,1
    9530:	aee201fc 	sw	v0,508(s7)
    9534:	0800384a 	j	0xe128
    9538:	8ee201fc 	lw	v0,508(s7)
    953c:	3c060004 	lui	a2,0x4
    9540:	3c0b0001 	lui	t3,0x1
    9544:	3c0a0002 	lui	t2,0x2
    9548:	3c050010 	lui	a1,0x10
    954c:	3c090008 	lui	t1,0x8
    9550:	8ee20080 	lw	v0,128(s7)
    9554:	3c080020 	lui	t0,0x20
    9558:	34078000 	li	a3,0x8000
    955c:	24420001 	addiu	v0,v0,1
    9560:	aee20080 	sw	v0,128(s7)
    9564:	8ee20080 	lw	v0,128(s7)
    9568:	8fa2001c 	lw	v0,28(sp)
    956c:	00441824 	and	v1,v0,a0
    9570:	10660021 	beq	v1,a2,0x95f8
    9574:	00c3102b 	sltu	v0,a2,v1
    9578:	14400007 	bnez	v0,0x9598
    957c:	00000000 	nop
    9580:	106b0011 	beq	v1,t3,0x95c8
    9584:	00000000 	nop
    9588:	106a0015 	beq	v1,t2,0x95e0
    958c:	00000000 	nop
    9590:	08003592 	j	0xd648
    9594:	00042042 	srl	a0,a0,0x1
    9598:	10650023 	beq	v1,a1,0x9628
    959c:	00a3102b 	sltu	v0,a1,v1
    95a0:	14400005 	bnez	v0,0x95b8
    95a4:	00000000 	nop
    95a8:	10690019 	beq	v1,t1,0x9610
    95ac:	00000000 	nop
    95b0:	08003592 	j	0xd648
    95b4:	00042042 	srl	a0,a0,0x1
    95b8:	10680021 	beq	v1,t0,0x9640
    95bc:	00000000 	nop
    95c0:	08003592 	j	0xd648
    95c4:	00042042 	srl	a0,a0,0x1
    95c8:	8ee20034 	lw	v0,52(s7)
    95cc:	24420001 	addiu	v0,v0,1
    95d0:	aee20034 	sw	v0,52(s7)
    95d4:	8ee20034 	lw	v0,52(s7)
    95d8:	08003592 	j	0xd648
    95dc:	00042042 	srl	a0,a0,0x1
    95e0:	8ee201ec 	lw	v0,492(s7)
    95e4:	24420001 	addiu	v0,v0,1
    95e8:	aee201ec 	sw	v0,492(s7)
    95ec:	8ee201ec 	lw	v0,492(s7)
    95f0:	08003592 	j	0xd648
    95f4:	00042042 	srl	a0,a0,0x1
    95f8:	8ee201f0 	lw	v0,496(s7)
    95fc:	24420001 	addiu	v0,v0,1
    9600:	aee201f0 	sw	v0,496(s7)
    9604:	8ee201f0 	lw	v0,496(s7)
    9608:	08003592 	j	0xd648
    960c:	00042042 	srl	a0,a0,0x1
    9610:	8ee201f4 	lw	v0,500(s7)
    9614:	24420001 	addiu	v0,v0,1
    9618:	aee201f4 	sw	v0,500(s7)
    961c:	8ee201f4 	lw	v0,500(s7)
    9620:	08003592 	j	0xd648
    9624:	00042042 	srl	a0,a0,0x1
    9628:	8ee20030 	lw	v0,48(s7)
    962c:	24420001 	addiu	v0,v0,1
    9630:	aee20030 	sw	v0,48(s7)
    9634:	8ee20030 	lw	v0,48(s7)
    9638:	08003592 	j	0xd648
    963c:	00042042 	srl	a0,a0,0x1
    9640:	8ee201f8 	lw	v0,504(s7)
    9644:	24420001 	addiu	v0,v0,1
    9648:	aee201f8 	sw	v0,504(s7)
    964c:	8ee201f8 	lw	v0,504(s7)
    9650:	00042042 	srl	a0,a0,0x1
    9654:	108702b7 	beq	a0,a3,0xa134
    9658:	00000000 	nop
    965c:	08003557 	j	0xd55c
    9660:	00000000 	nop
    9664:	3c020001 	lui	v0,0x1
    9668:	00571021 	addu	v0,v0,s7
    966c:	904283b2 	lbu	v0,-31822(v0)
    9670:	14400084 	bnez	v0,0x9884
    9674:	24020001 	li	v0,1
    9678:	3c030001 	lui	v1,0x1
    967c:	00771821 	addu	v1,v1,s7
    9680:	906383b3 	lbu	v1,-31821(v1)
    9684:	1462007f 	bne	v1,v0,0x9884
    9688:	3c020100 	lui	v0,0x100
    968c:	8e430000 	lw	v1,0(s2)
    9690:	00621024 	and	v0,v1,v0
    9694:	1040006f 	beqz	v0,0x9854
    9698:	2402ffff 	li	v0,-1
    969c:	14620005 	bne	v1,v0,0x96b4
    96a0:	24100001 	li	s0,1
    96a4:	96430004 	lhu	v1,4(s2)
    96a8:	3402ffff 	li	v0,0xffff
    96ac:	10620075 	beq	v1,v0,0x9884
    96b0:	00000000 	nop
    96b4:	92e204d8 	lbu	v0,1240(s7)
    96b8:	14400072 	bnez	v0,0x9884
    96bc:	00000000 	nop
    96c0:	3c020001 	lui	v0,0x1
    96c4:	00571021 	addu	v0,v0,s7
    96c8:	8c4283b4 	lw	v0,-31820(v0)
    96cc:	28420005 	slti	v0,v0,5
    96d0:	10400020 	beqz	v0,0x9754
    96d4:	00003821 	move	a3,zero
    96d8:	3c020001 	lui	v0,0x1
    96dc:	00571021 	addu	v0,v0,s7
    96e0:	8c4283b4 	lw	v0,-31820(v0)
    96e4:	18400016 	blez	v0,0x9740
    96e8:	00002821 	move	a1,zero
    96ec:	96260000 	lhu	a2,0(s1)
    96f0:	000520c0 	sll	a0,a1,0x3
    96f4:	00971021 	addu	v0,a0,s7
    96f8:	9442777e 	lhu	v0,30590(v0)
    96fc:	14460009 	bne	v0,a2,0x9724
    9700:	00971021 	addu	v0,a0,s7
    9704:	94437780 	lhu	v1,30592(v0)
    9708:	96220002 	lhu	v0,2(s1)
    970c:	14620005 	bne	v1,v0,0x9724
    9710:	00971021 	addu	v0,a0,s7
    9714:	94437782 	lhu	v1,30594(v0)
    9718:	96220004 	lhu	v0,4(s1)
    971c:	50620008 	beql	v1,v0,0x9740
    9720:	24070001 	li	a3,1
    9724:	3c020001 	lui	v0,0x1
    9728:	00571021 	addu	v0,v0,s7
    972c:	8c4283b4 	lw	v0,-31820(v0)
    9730:	24a50001 	addiu	a1,a1,1
    9734:	00a2102a 	slt	v0,a1,v0
    9738:	5440ffee 	bnezl	v0,0x96f4
    973c:	000520c0 	sll	a0,a1,0x3
    9740:	30e200ff 	andi	v0,a3,0xff
    9744:	1040027b 	beqz	v0,0xa134
    9748:	00000000 	nop
    974c:	0800361e 	j	0xd878
    9750:	00000000 	nop
    9754:	02402021 	move	a0,s2
    9758:	0c0022fe 	jal	0x8bf8
    975c:	24050006 	li	a1,6
    9760:	3044001f 	andi	a0,v0,0x1f
    9764:	000428c0 	sll	a1,a0,0x3
    9768:	02e51021 	addu	v0,s7,a1
    976c:	9442727c 	lhu	v0,29308(v0)
    9770:	30424000 	andi	v0,v0,0x4000
    9774:	1440026f 	bnez	v0,0xa134
    9778:	00b71021 	addu	v0,a1,s7
    977c:	9443727e 	lhu	v1,29310(v0)
    9780:	96220000 	lhu	v0,0(s1)
    9784:	1462000b 	bne	v1,v0,0x97b4
    9788:	000418c0 	sll	v1,a0,0x3
    978c:	00b71021 	addu	v0,a1,s7
    9790:	94437280 	lhu	v1,29312(v0)
    9794:	96220002 	lhu	v0,2(s1)
    9798:	14620006 	bne	v1,v0,0x97b4
    979c:	000418c0 	sll	v1,a0,0x3
    97a0:	00b71021 	addu	v0,a1,s7
    97a4:	94437282 	lhu	v1,29314(v0)
    97a8:	96220004 	lhu	v0,4(s1)
    97ac:	10620035 	beq	v1,v0,0x9884
    97b0:	000418c0 	sll	v1,a0,0x3
    97b4:	02e31021 	addu	v0,s7,v1
    97b8:	9442727c 	lhu	v0,29308(v0)
    97bc:	30428000 	andi	v0,v0,0x8000
    97c0:	1440025c 	bnez	v0,0xa134
    97c4:	02e31021 	addu	v0,s7,v1
    97c8:	9448727c 	lhu	t0,29308(v0)
    97cc:	96270000 	lhu	a3,0(s1)
    97d0:	000828c0 	sll	a1,t0,0x3
    97d4:	00b71021 	addu	v0,a1,s7
    97d8:	9442737e 	lhu	v0,29566(v0)
    97dc:	08003600 	j	0xd800
    97e0:	00003021 	move	a2,zero
    97e4:	000420c0 	sll	a0,a0,0x3
    97e8:	02e41021 	addu	v0,s7,a0
    97ec:	9443737c 	lhu	v1,29564(v0)
    97f0:	02e41021 	addu	v0,s7,a0
    97f4:	9448737c 	lhu	t0,29564(v0)
    97f8:	30638000 	andi	v1,v1,0x8000
    97fc:	14600010 	bnez	v1,0x9840
    9800:	000828c0 	sll	a1,t0,0x3
    9804:	00b71021 	addu	v0,a1,s7
    9808:	9442737e 	lhu	v0,29566(v0)
    980c:	1447fff5 	bne	v0,a3,0x97e4
    9810:	01002021 	move	a0,t0
    9814:	00b71021 	addu	v0,a1,s7
    9818:	94437380 	lhu	v1,29568(v0)
    981c:	96220002 	lhu	v0,2(s1)
    9820:	5462fff1 	bnel	v1,v0,0x97e8
    9824:	000420c0 	sll	a0,a0,0x3
    9828:	00b71021 	addu	v0,a1,s7
    982c:	94437382 	lhu	v1,29570(v0)
    9830:	96220004 	lhu	v0,4(s1)
    9834:	5462ffec 	bnel	v1,v0,0x97e8
    9838:	000420c0 	sll	a0,a0,0x3
    983c:	24060001 	li	a2,1
    9840:	30c200ff 	andi	v0,a2,0xff
    9844:	1040023b 	beqz	v0,0xa134
    9848:	00000000 	nop
    984c:	0800361e 	j	0xd878
    9850:	00000000 	nop
    9854:	97430202 	lhu	v1,514(k0)
    9858:	96420000 	lhu	v0,0(s2)
    985c:	14620235 	bne	v1,v0,0xa134
    9860:	00000000 	nop
    9864:	97430204 	lhu	v1,516(k0)
    9868:	96420002 	lhu	v0,2(s2)
    986c:	14620231 	bne	v1,v0,0xa134
    9870:	00000000 	nop
    9874:	97430206 	lhu	v1,518(k0)
    9878:	96420004 	lhu	v0,4(s2)
    987c:	1462022d 	bne	v1,v0,0xa134
    9880:	00000000 	nop
    9884:	92420000 	lbu	v0,0(s2)
    9888:	3a030001 	xori	v1,s0,0x1
    988c:	30420001 	andi	v0,v0,0x1
    9890:	00431024 	and	v0,v0,v1
    9894:	10400074 	beqz	v0,0x9a68
    9898:	2402ffff 	li	v0,-1
    989c:	8e230000 	lw	v1,0(s1)
    98a0:	14620004 	bne	v1,v0,0x98b4
    98a4:	3402ffff 	li	v0,0xffff
    98a8:	96230004 	lhu	v1,4(s1)
    98ac:	1062006f 	beq	v1,v0,0x9a6c
    98b0:	24140002 	li	s4,2
    98b4:	3c020001 	lui	v0,0x1
    98b8:	00571021 	addu	v0,v0,s7
    98bc:	904283b2 	lbu	v0,-31822(v0)
    98c0:	1440006a 	bnez	v0,0x9a6c
    98c4:	24140003 	li	s4,3
    98c8:	92e204d8 	lbu	v0,1240(s7)
    98cc:	14400067 	bnez	v0,0x9a6c
    98d0:	00000000 	nop
    98d4:	3c020001 	lui	v0,0x1
    98d8:	00571021 	addu	v0,v0,s7
    98dc:	8c4283b4 	lw	v0,-31820(v0)
    98e0:	28420005 	slti	v0,v0,5
    98e4:	10400020 	beqz	v0,0x9968
    98e8:	00003821 	move	a3,zero
    98ec:	3c020001 	lui	v0,0x1
    98f0:	00571021 	addu	v0,v0,s7
    98f4:	8c4283b4 	lw	v0,-31820(v0)
    98f8:	18400016 	blez	v0,0x9954
    98fc:	00002821 	move	a1,zero
    9900:	96260000 	lhu	a2,0(s1)
    9904:	000520c0 	sll	a0,a1,0x3
    9908:	00971021 	addu	v0,a0,s7
    990c:	9442777e 	lhu	v0,30590(v0)
    9910:	14460009 	bne	v0,a2,0x9938
    9914:	00971021 	addu	v0,a0,s7
    9918:	94437780 	lhu	v1,30592(v0)
    991c:	96220002 	lhu	v0,2(s1)
    9920:	14620005 	bne	v1,v0,0x9938
    9924:	00971021 	addu	v0,a0,s7
    9928:	94437782 	lhu	v1,30594(v0)
    992c:	96220004 	lhu	v0,4(s1)
    9930:	50620008 	beql	v1,v0,0x9954
    9934:	24070001 	li	a3,1
    9938:	3c020001 	lui	v0,0x1
    993c:	00571021 	addu	v0,v0,s7
    9940:	8c4283b4 	lw	v0,-31820(v0)
    9944:	24a50001 	addiu	a1,a1,1
    9948:	00a2102a 	slt	v0,a1,v0
    994c:	5440ffee 	bnezl	v0,0x9908
    9950:	000520c0 	sll	a0,a1,0x3
    9954:	30e200ff 	andi	v0,a3,0xff
    9958:	14400044 	bnez	v0,0x9a6c
    995c:	24140003 	li	s4,3
    9960:	0800384a 	j	0xe128
    9964:	00000000 	nop
    9968:	02402021 	move	a0,s2
    996c:	0c0022fe 	jal	0x8bf8
    9970:	24050006 	li	a1,6
    9974:	3044001f 	andi	a0,v0,0x1f
    9978:	000428c0 	sll	a1,a0,0x3
    997c:	02e51021 	addu	v0,s7,a1
    9980:	9442727c 	lhu	v0,29308(v0)
    9984:	30424000 	andi	v0,v0,0x4000
    9988:	144001ea 	bnez	v0,0xa134
    998c:	00b71021 	addu	v0,a1,s7
    9990:	9443727e 	lhu	v1,29310(v0)
    9994:	96220000 	lhu	v0,0(s1)
    9998:	1462000b 	bne	v1,v0,0x99c8
    999c:	000418c0 	sll	v1,a0,0x3
    99a0:	00b71021 	addu	v0,a1,s7
    99a4:	94437280 	lhu	v1,29312(v0)
    99a8:	96220002 	lhu	v0,2(s1)
    99ac:	14620006 	bne	v1,v0,0x99c8
    99b0:	000418c0 	sll	v1,a0,0x3
    99b4:	00b71021 	addu	v0,a1,s7
    99b8:	94437282 	lhu	v1,29314(v0)
    99bc:	96220004 	lhu	v0,4(s1)
    99c0:	10620027 	beq	v1,v0,0x9a60
    99c4:	000418c0 	sll	v1,a0,0x3
    99c8:	02e31021 	addu	v0,s7,v1
    99cc:	9442727c 	lhu	v0,29308(v0)
    99d0:	30428000 	andi	v0,v0,0x8000
    99d4:	144001d7 	bnez	v0,0xa134
    99d8:	02e31021 	addu	v0,s7,v1
    99dc:	9448727c 	lhu	t0,29308(v0)
    99e0:	96270000 	lhu	a3,0(s1)
    99e4:	000828c0 	sll	a1,t0,0x3
    99e8:	00b71021 	addu	v0,a1,s7
    99ec:	9442737e 	lhu	v0,29566(v0)
    99f0:	08003685 	j	0xda14
    99f4:	00003021 	move	a2,zero
    99f8:	000420c0 	sll	a0,a0,0x3
    99fc:	02e41021 	addu	v0,s7,a0
    9a00:	9443737c 	lhu	v1,29564(v0)
    9a04:	02e41021 	addu	v0,s7,a0
    9a08:	9448737c 	lhu	t0,29564(v0)
    9a0c:	30638000 	andi	v1,v1,0x8000
    9a10:	14600010 	bnez	v1,0x9a54
    9a14:	000828c0 	sll	a1,t0,0x3
    9a18:	00b71021 	addu	v0,a1,s7
    9a1c:	9442737e 	lhu	v0,29566(v0)
    9a20:	1447fff5 	bne	v0,a3,0x99f8
    9a24:	01002021 	move	a0,t0
    9a28:	00b71021 	addu	v0,a1,s7
    9a2c:	94437380 	lhu	v1,29568(v0)
    9a30:	96220002 	lhu	v0,2(s1)
    9a34:	5462fff1 	bnel	v1,v0,0x99fc
    9a38:	000420c0 	sll	a0,a0,0x3
    9a3c:	00b71021 	addu	v0,a1,s7
    9a40:	94437382 	lhu	v1,29570(v0)
    9a44:	96220004 	lhu	v0,4(s1)
    9a48:	5462ffec 	bnel	v1,v0,0x99fc
    9a4c:	000420c0 	sll	a0,a0,0x3
    9a50:	24060001 	li	a2,1
    9a54:	30c200ff 	andi	v0,a2,0xff
    9a58:	104001b6 	beqz	v0,0xa134
    9a5c:	00000000 	nop
    9a60:	08003698 	j	0xda60
    9a64:	24140003 	li	s4,3
    9a68:	24140001 	li	s4,1
    9a6c:	8f420260 	lw	v0,608(k0)
    9a70:	0053102b 	sltu	v0,v0,s3
    9a74:	10400049 	beqz	v0,0x9b9c
    9a78:	00000000 	nop
    9a7c:	8f8300e4 	lw	v1,228(gp)
    9a80:	8f8200e0 	lw	v0,224(gp)
    9a84:	10620003 	beq	v1,v0,0x9a94
    9a88:	24630008 	addiu	v1,v1,8
    9a8c:	af8300e4 	sw	v1,228(gp)
    9a90:	af8300e8 	sw	v1,232(gp)
    9a94:	8ee400c0 	lw	a0,192(s7)
    9a98:	8ee500c4 	lw	a1,196(s7)
    9a9c:	02601821 	move	v1,s3
    9aa0:	00001021 	move	v0,zero
    9aa4:	00a32821 	addu	a1,a1,v1
    9aa8:	00a3302b 	sltu	a2,a1,v1
    9aac:	00822021 	addu	a0,a0,v0
    9ab0:	00862021 	addu	a0,a0,a2
    9ab4:	aee400c0 	sw	a0,192(s7)
    9ab8:	aee500c4 	sw	a1,196(s7)
    9abc:	8ee20058 	lw	v0,88(s7)
    9ac0:	24420001 	addiu	v0,v0,1
    9ac4:	aee20058 	sw	v0,88(s7)
    9ac8:	8ee20058 	lw	v0,88(s7)
    9acc:	8ee2007c 	lw	v0,124(s7)
    9ad0:	24420001 	addiu	v0,v0,1
    9ad4:	aee2007c 	sw	v0,124(s7)
    9ad8:	8ee2007c 	lw	v0,124(s7)
    9adc:	8f8200e0 	lw	v0,224(gp)
    9ae0:	afa20010 	sw	v0,16(sp)
    9ae4:	8f8200e4 	lw	v0,228(gp)
    9ae8:	3c040001 	lui	a0,0x1
    9aec:	24845878 	addiu	a0,a0,22648
    9af0:	afa20014 	sw	v0,20(sp)
    9af4:	8fa60018 	lw	a2,24(sp)
    9af8:	8fa7001c 	lw	a3,28(sp)
    9afc:	3c050006 	lui	a1,0x6
    9b00:	0c002403 	jal	0x900c
    9b04:	34a5f003 	ori	a1,a1,0xf003
    9b08:	08003850 	j	0xe140
    9b0c:	00000000 	nop
    9b10:	8ee25240 	lw	v0,21056(s7)
    9b14:	afa20010 	sw	v0,16(sp)
    9b18:	8ee25244 	lw	v0,21060(s7)
    9b1c:	3c040001 	lui	a0,0x1
    9b20:	24845884 	addiu	a0,a0,22660
    9b24:	afa20014 	sw	v0,20(sp)
    9b28:	8ee60e10 	lw	a2,3600(s7)
    9b2c:	8ee70e18 	lw	a3,3608(s7)
    9b30:	0c002403 	jal	0x900c
    9b34:	34a5f002 	ori	a1,a1,0xf002
    9b38:	8ee201c0 	lw	v0,448(s7)
    9b3c:	24420001 	addiu	v0,v0,1
    9b40:	aee201c0 	sw	v0,448(s7)
    9b44:	8ee20000 	lw	v0,0(s7)
    9b48:	8ee301c0 	lw	v1,448(s7)
    9b4c:	2403ffbf 	li	v1,-65
    9b50:	00431024 	and	v0,v0,v1
    9b54:	080037f8 	j	0xdfe0
    9b58:	aee20000 	sw	v0,0(s7)
    9b5c:	8ee25240 	lw	v0,21056(s7)
    9b60:	afa20010 	sw	v0,16(sp)
    9b64:	8ee25244 	lw	v0,21060(s7)
    9b68:	3c040001 	lui	a0,0x1
    9b6c:	24845884 	addiu	a0,a0,22660
    9b70:	afa20014 	sw	v0,20(sp)
    9b74:	8ee60e10 	lw	a2,3600(s7)
    9b78:	8ee70e18 	lw	a3,3608(s7)
    9b7c:	3c050006 	lui	a1,0x6
    9b80:	0c002403 	jal	0x900c
    9b84:	34a5f002 	ori	a1,a1,0xf002
    9b88:	8ee201c0 	lw	v0,448(s7)
    9b8c:	24420001 	addiu	v0,v0,1
    9b90:	aee201c0 	sw	v0,448(s7)
    9b94:	080037f8 	j	0xdfe0
    9b98:	8ee201c0 	lw	v0,448(s7)
    9b9c:	96e20468 	lhu	v0,1128(s7)
    9ba0:	0053102b 	sltu	v0,v0,s3
    9ba4:	54400001 	bnezl	v0,0x9bac
    9ba8:	3c158000 	lui	s5,0x8000
    9bac:	12600131 	beqz	s3,0xa074
    9bb0:	3c0c001f 	lui	t4,0x1f
    9bb4:	358cffff 	ori	t4,t4,0xffff
    9bb8:	8ee2724c 	lw	v0,29260(s7)
    9bbc:	8f430280 	lw	v1,640(k0)
    9bc0:	24420001 	addiu	v0,v0,1
    9bc4:	304207ff 	andi	v0,v0,0x7ff
    9bc8:	10620108 	beq	v1,v0,0x9fec
    9bcc:	00000000 	nop
    9bd0:	12a00014 	beqz	s5,0x9c24
    9bd4:	00000000 	nop
    9bd8:	8ee35240 	lw	v1,21056(s7)
    9bdc:	8ee25244 	lw	v0,21060(s7)
    9be0:	10620009 	beq	v1,v0,0x9c08
    9be4:	26ee5244 	addiu	t6,s7,21060
    9be8:	8eeb5244 	lw	t3,21060(s7)
    9bec:	8ee35244 	lw	v1,21060(s7)
    9bf0:	00021140 	sll	v0,v0,0x5
    9bf4:	24425248 	addiu	v0,v0,21064
    9bf8:	02e28021 	addu	s0,s7,v0
    9bfc:	24630001 	addiu	v1,v1,1
    9c00:	08003712 	j	0xdc48
    9c04:	306800ff 	andi	t0,v1,0xff
    9c08:	92e27248 	lbu	v0,29256(s7)
    9c0c:	1440ffc0 	bnez	v0,0x9b10
    9c10:	3c050006 	lui	a1,0x6
    9c14:	8ee201e0 	lw	v0,480(s7)
    9c18:	24420001 	addiu	v0,v0,1
    9c1c:	aee201e0 	sw	v0,480(s7)
    9c20:	8ee201e0 	lw	v0,480(s7)
    9c24:	8ee30e10 	lw	v1,3600(s7)
    9c28:	8ee20e18 	lw	v0,3608(s7)
    9c2c:	1062ffcb 	beq	v1,v0,0x9b5c
    9c30:	26ee0e18 	addiu	t6,s7,3608
    9c34:	8eeb0e18 	lw	t3,3608(s7)
    9c38:	0000a821 	move	s5,zero
    9c3c:	8ee30e18 	lw	v1,3608(s7)
    9c40:	00021140 	sll	v0,v0,0x5
    9c44:	24420e20 	addiu	v0,v0,3616
    9c48:	02e28021 	addu	s0,s7,v0
    9c4c:	24630001 	addiu	v1,v1,1
    9c50:	306801ff 	andi	t0,v1,0x1ff
    9c54:	96e2046a 	lhu	v0,1130(s7)
    9c58:	30420010 	andi	v0,v0,0x10
    9c5c:	10400017 	beqz	v0,0x9cbc
    9c60:	34028100 	li	v0,0x8100
    9c64:	9643000c 	lhu	v1,12(s2)
    9c68:	14620014 	bne	v1,v0,0x9cbc
    9c6c:	00000000 	nop
    9c70:	3c020001 	lui	v0,0x1
    9c74:	00571021 	addu	v0,v0,s7
    9c78:	904283c0 	lbu	v0,-31808(v0)
    9c7c:	1440000f 	bnez	v0,0x9cbc
    9c80:	00000000 	nop
    9c84:	9642000e 	lhu	v0,14(s2)
    9c88:	a6020016 	sh	v0,22(s0)
    9c8c:	8e420008 	lw	v0,8(s2)
    9c90:	8e430004 	lw	v1,4(s2)
    9c94:	8e440000 	lw	a0,0(s2)
    9c98:	2673fffc 	addiu	s3,s3,-4
    9c9c:	ae42000c 	sw	v0,12(s2)
    9ca0:	ae430008 	sw	v1,8(s2)
    9ca4:	ae440004 	sw	a0,4(s2)
    9ca8:	9602000e 	lhu	v0,14(s0)
    9cac:	26310004 	addiu	s1,s1,4
    9cb0:	24160001 	li	s6,1
    9cb4:	34420200 	ori	v0,v0,0x200
    9cb8:	a602000e 	sh	v0,14(s0)
    9cbc:	9603000a 	lhu	v1,10(s0)
    9cc0:	02605021 	move	t2,s3
    9cc4:	0073102b 	sltu	v0,v1,s3
    9cc8:	10400002 	beqz	v0,0x9cd4
    9ccc:	02606821 	move	t5,s3
    9cd0:	00605021 	move	t2,v1
    9cd4:	2d42003d 	sltiu	v0,t2,61
    9cd8:	1040002a 	beqz	v0,0x9d84
    9cdc:	00003821 	move	a3,zero
    9ce0:	9623000c 	lhu	v1,12(s1)
    9ce4:	24020800 	li	v0,2048
    9ce8:	54620027 	bnel	v1,v0,0x9d88
    9cec:	ae110018 	sw	s1,24(s0)
    9cf0:	3c020001 	lui	v0,0x1
    9cf4:	00571021 	addu	v0,v0,s7
    9cf8:	904283c0 	lbu	v0,-31808(v0)
    9cfc:	54400022 	bnezl	v0,0x9d88
    9d00:	ae110018 	sw	s1,24(s0)
    9d04:	26220017 	addiu	v0,s1,23
    9d08:	0182102b 	sltu	v0,t4,v0
    9d0c:	10400013 	beqz	v0,0x9d5c
    9d10:	00000000 	nop
    9d14:	3c02fff5 	lui	v0,0xfff5
    9d18:	00511021 	addu	v0,v0,s1
    9d1c:	90421017 	lbu	v0,4119(v0)
    9d20:	38430006 	xori	v1,v0,0x6
    9d24:	2c630001 	sltiu	v1,v1,1
    9d28:	38420011 	xori	v0,v0,0x11
    9d2c:	2c420001 	sltiu	v0,v0,1
    9d30:	00621825 	or	v1,v1,v0
    9d34:	10600013 	beqz	v1,0x9d84
    9d38:	26220010 	addiu	v0,s1,16
    9d3c:	0182102b 	sltu	v0,t4,v0
    9d40:	1040000e 	beqz	v0,0x9d7c
    9d44:	00000000 	nop
    9d48:	3c07fff5 	lui	a3,0xfff5
    9d4c:	00f13821 	addu	a3,a3,s1
    9d50:	94e71010 	lhu	a3,4112(a3)
    9d54:	0800375e 	j	0xdd78
    9d58:	24e7000e 	addiu	a3,a3,14
    9d5c:	92220017 	lbu	v0,23(s1)
    9d60:	38430006 	xori	v1,v0,0x6
    9d64:	2c630001 	sltiu	v1,v1,1
    9d68:	38420011 	xori	v0,v0,0x11
    9d6c:	2c420001 	sltiu	v0,v0,1
    9d70:	00621825 	or	v1,v1,v0
    9d74:	50600004 	beqzl	v1,0x9d88
    9d78:	ae110018 	sw	s1,24(s0)
    9d7c:	96270010 	lhu	a3,16(s1)
    9d80:	24e7000e 	addiu	a3,a3,14
    9d84:	ae110018 	sw	s1,24(s0)
    9d88:	3c020001 	lui	v0,0x1
    9d8c:	00571021 	addu	v0,v0,s7
    9d90:	904283c0 	lbu	v0,-31808(v0)
    9d94:	0002102b 	sltu	v0,zero,v0
    9d98:	14e00002 	bnez	a3,0x9da4
    9d9c:	00024ec0 	sll	t1,v0,0x1b
    9da0:	01403821 	move	a3,t2
    9da4:	8f830120 	lw	v1,288(gp)
    9da8:	27623800 	addiu	v0,k1,14336
    9dac:	24660020 	addiu	a2,v1,32
    9db0:	00c2102b 	sltu	v0,a2,v0
    9db4:	50400001 	beqzl	v0,0x9dbc
    9db8:	27663000 	addiu	a2,k1,12288
    9dbc:	8f820128 	lw	v0,296(gp)
    9dc0:	10c20004 	beq	a2,v0,0x9dd4
    9dc4:	00000000 	nop
    9dc8:	8f820124 	lw	v0,292(gp)
    9dcc:	14c20007 	bne	a2,v0,0x9dec
    9dd0:	2402000b 	li	v0,11
    9dd4:	8ee201a4 	lw	v0,420(s7)
    9dd8:	00004821 	move	t1,zero
    9ddc:	24420001 	addiu	v0,v0,1
    9de0:	aee201a4 	sw	v0,420(s7)
    9de4:	080037bf 	j	0xdefc
    9de8:	8ee201a4 	lw	v0,420(s7)
    9dec:	8e040000 	lw	a0,0(s0)
    9df0:	8e050004 	lw	a1,4(s0)
    9df4:	ac620018 	sw	v0,24(v1)
    9df8:	01751025 	or	v0,t3,s5
    9dfc:	00491025 	or	v0,v0,t1
    9e00:	ac710008 	sw	s1,8(v1)
    9e04:	a467000e 	sh	a3,14(v1)
    9e08:	ac62001c 	sw	v0,28(v1)
    9e0c:	ac640000 	sw	a0,0(v1)
    9e10:	ac650004 	sw	a1,4(v1)
    9e14:	8ee204c0 	lw	v0,1216(s7)
    9e18:	ac620010 	sw	v0,16(v1)
    9e1c:	af860120 	sw	a2,288(gp)
    9e20:	92e24e20 	lbu	v0,20000(s7)
    9e24:	14400038 	bnez	v0,0x9f08
    9e28:	24090001 	li	t1,1
    9e2c:	8ee24e30 	lw	v0,20016(s7)
    9e30:	000210c0 	sll	v0,v0,0x3
    9e34:	24425038 	addiu	v0,v0,20536
    9e38:	02e22021 	addu	a0,s7,v0
    9e3c:	8c830000 	lw	v1,0(a0)
    9e40:	24020007 	li	v0,7
    9e44:	14620020 	bne	v1,v0,0x9ec8
    9e48:	00000000 	nop
    9e4c:	8ee34e30 	lw	v1,20016(s7)
    9e50:	8ee24e34 	lw	v0,20020(s7)
    9e54:	1062001c 	beq	v1,v0,0x9ec8
    9e58:	00000000 	nop
    9e5c:	8c820004 	lw	v0,4(a0)
    9e60:	24420001 	addiu	v0,v0,1
    9e64:	ac820004 	sw	v0,4(a0)
    9e68:	8ee34e34 	lw	v1,20020(s7)
    9e6c:	8ee54e30 	lw	a1,20016(s7)
    9e70:	24020040 	li	v0,64
    9e74:	24630001 	addiu	v1,v1,1
    9e78:	10620007 	beq	v1,v0,0x9e98
    9e7c:	00000000 	nop
    9e80:	8ee24e34 	lw	v0,20020(s7)
    9e84:	24420001 	addiu	v0,v0,1
    9e88:	10a20005 	beq	a1,v0,0x9ea0
    9e8c:	00000000 	nop
    9e90:	080037a9 	j	0xdea4
    9e94:	00000000 	nop
    9e98:	14a00005 	bnez	a1,0x9eb0
    9e9c:	00000000 	nop
    9ea0:	8f820128 	lw	v0,296(gp)
    9ea4:	24420020 	addiu	v0,v0,32
    9ea8:	af820128 	sw	v0,296(gp)
    9eac:	8f820128 	lw	v0,296(gp)
    9eb0:	8c820004 	lw	v0,4(a0)
    9eb4:	2c420011 	sltiu	v0,v0,17
    9eb8:	50400013 	beqzl	v0,0x9f08
    9ebc:	ac800000 	sw	zero,0(a0)
    9ec0:	080037bf 	j	0xdefc
    9ec4:	00000000 	nop
    9ec8:	8ee24e30 	lw	v0,20016(s7)
    9ecc:	24030040 	li	v1,64
    9ed0:	24420001 	addiu	v0,v0,1
    9ed4:	50430003 	beql	v0,v1,0x9ee4
    9ed8:	00001021 	move	v0,zero
    9edc:	8ee24e30 	lw	v0,20016(s7)
    9ee0:	24420001 	addiu	v0,v0,1
    9ee4:	aee24e30 	sw	v0,20016(s7)
    9ee8:	8ee24e30 	lw	v0,20016(s7)
    9eec:	000210c0 	sll	v0,v0,0x3
    9ef0:	24425038 	addiu	v0,v0,20536
    9ef4:	02e22021 	addu	a0,s7,v0
    9ef8:	24020007 	li	v0,7
    9efc:	ac820000 	sw	v0,0(a0)
    9f00:	24020001 	li	v0,1
    9f04:	ac820004 	sw	v0,4(a0)
    9f08:	15200018 	bnez	t1,0x9f6c
    9f0c:	3c050006 	lui	a1,0x6
    9f10:	8e020018 	lw	v0,24(s0)
    9f14:	3c040001 	lui	a0,0x1
    9f18:	24845890 	addiu	a0,a0,22672
    9f1c:	afa20010 	sw	v0,16(sp)
    9f20:	8e020000 	lw	v0,0(s0)
    9f24:	8e030004 	lw	v1,4(s0)
    9f28:	34a5f009 	ori	a1,a1,0xf009
    9f2c:	02003021 	move	a2,s0
    9f30:	0c002403 	jal	0x900c
    9f34:	afa30014 	sw	v1,20(sp)
    9f38:	32c200ff 	andi	v0,s6,0xff
    9f3c:	1040002b 	beqz	v0,0x9fec
    9f40:	34028100 	li	v0,0x8100
    9f44:	8e430004 	lw	v1,4(s2)
    9f48:	8e440008 	lw	a0,8(s2)
    9f4c:	8e45000c 	lw	a1,12(s2)
    9f50:	a642000c 	sh	v0,12(s2)
    9f54:	ae430000 	sw	v1,0(s2)
    9f58:	ae440004 	sw	a0,4(s2)
    9f5c:	ae450008 	sw	a1,8(s2)
    9f60:	96020016 	lhu	v0,22(s0)
    9f64:	080037f8 	j	0xdfe0
    9f68:	a642000e 	sh	v0,14(s2)
    9f6c:	154d000a 	bne	t2,t5,0x9f98
    9f70:	00000000 	nop
    9f74:	9602000e 	lhu	v0,14(s0)
    9f78:	a613000a 	sh	s3,10(s0)
    9f7c:	34420004 	ori	v0,v0,0x4
    9f80:	a602000e 	sh	v0,14(s0)
    9f84:	3c010001 	lui	at,0x1
    9f88:	00370821 	addu	at,at,s7
    9f8c:	a02083c0 	sb	zero,-31808(at)
    9f90:	080037f6 	j	0xdfd8
    9f94:	00009821 	move	s3,zero
    9f98:	9604000a 	lhu	a0,10(s0)
    9f9c:	0093102b 	sltu	v0,a0,s3
    9fa0:	10400002 	beqz	v0,0x9fac
    9fa4:	02601821 	move	v1,s3
    9fa8:	00801821 	move	v1,a0
    9fac:	24020001 	li	v0,1
    9fb0:	a603000a 	sh	v1,10(s0)
    9fb4:	3c010001 	lui	at,0x1
    9fb8:	00370821 	addu	at,at,s7
    9fbc:	a02283c0 	sb	v0,-31808(at)
    9fc0:	9604000a 	lhu	a0,10(s0)
    9fc4:	02248821 	addu	s1,s1,a0
    9fc8:	0191102b 	sltu	v0,t4,s1
    9fcc:	10400003 	beqz	v0,0x9fdc
    9fd0:	3c02fff5 	lui	v0,0xfff5
    9fd4:	34421000 	ori	v0,v0,0x1000
    9fd8:	02228821 	addu	s1,s1,v0
    9fdc:	02649823 	subu	s3,s3,a0
    9fe0:	0000a821 	move	s5,zero
    9fe4:	1660fef4 	bnez	s3,0x9bb8
    9fe8:	adc80000 	sw	t0,0(t6)
    9fec:	12600021 	beqz	s3,0xa074
    9ff0:	32c200ff 	andi	v0,s6,0xff
    9ff4:	3c010001 	lui	at,0x1
    9ff8:	00370821 	addu	at,at,s7
    9ffc:	ac3383c4 	sw	s3,-31804(at)
    a000:	3c010001 	lui	at,0x1
    a004:	00370821 	addu	at,at,s7
    a008:	ac3183c8 	sw	s1,-31800(at)
    a00c:	3c010001 	lui	at,0x1
    a010:	00370821 	addu	at,at,s7
    a014:	10400008 	beqz	v0,0xa038
    a018:	ac3283cc 	sw	s2,-31796(at)
    a01c:	3c020001 	lui	v0,0x1
    a020:	00571021 	addu	v0,v0,s7
    a024:	8c4283cc 	lw	v0,-31796(v0)
    a028:	24420004 	addiu	v0,v0,4
    a02c:	3c010001 	lui	at,0x1
    a030:	00370821 	addu	at,at,s7
    a034:	ac2283cc 	sw	v0,-31796(at)
    a038:	8ee2724c 	lw	v0,29260(s7)
    a03c:	8f430280 	lw	v1,640(k0)
    a040:	24420001 	addiu	v0,v0,1
    a044:	14620006 	bne	v1,v0,0xa060
    a048:	00000000 	nop
    a04c:	8ee201c4 	lw	v0,452(s7)
    a050:	24420001 	addiu	v0,v0,1
    a054:	aee201c4 	sw	v0,452(s7)
    a058:	08003850 	j	0xe140
    a05c:	8ee201c4 	lw	v0,452(s7)
    a060:	8ee201bc 	lw	v0,444(s7)
    a064:	24420001 	addiu	v0,v0,1
    a068:	aee201bc 	sw	v0,444(s7)
    a06c:	08003850 	j	0xe140
    a070:	8ee201bc 	lw	v0,444(s7)
    a074:	97a4001e 	lhu	a0,30(sp)
    a078:	2484fffc 	addiu	a0,a0,-4
    a07c:	00801821 	move	v1,a0
    a080:	8ee400c0 	lw	a0,192(s7)
    a084:	8ee500c4 	lw	a1,196(s7)
    a088:	00001021 	move	v0,zero
    a08c:	00a32821 	addu	a1,a1,v1
    a090:	00a3302b 	sltu	a2,a1,v1
    a094:	00822021 	addu	a0,a0,v0
    a098:	00862021 	addu	a0,a0,a2
    a09c:	24020002 	li	v0,2
    a0a0:	aee400c0 	sw	a0,192(s7)
    a0a4:	aee500c4 	sw	a1,196(s7)
    a0a8:	1282000f 	beq	s4,v0,0xa0e8
    a0ac:	2a820003 	slti	v0,s4,3
    a0b0:	14400017 	bnez	v0,0xa110
    a0b4:	24020003 	li	v0,3
    a0b8:	16820015 	bne	s4,v0,0xa110
    a0bc:	00000000 	nop
    a0c0:	8ee200d0 	lw	v0,208(s7)
    a0c4:	8ee300d4 	lw	v1,212(s7)
    a0c8:	24630001 	addiu	v1,v1,1
    a0cc:	2c640001 	sltiu	a0,v1,1
    a0d0:	00441021 	addu	v0,v0,a0
    a0d4:	aee200d0 	sw	v0,208(s7)
    a0d8:	aee300d4 	sw	v1,212(s7)
    a0dc:	8ee200d0 	lw	v0,208(s7)
    a0e0:	0800384a 	j	0xe128
    a0e4:	8ee300d4 	lw	v1,212(s7)
    a0e8:	8ee200d8 	lw	v0,216(s7)
    a0ec:	8ee300dc 	lw	v1,220(s7)
    a0f0:	24630001 	addiu	v1,v1,1
    a0f4:	2c640001 	sltiu	a0,v1,1
    a0f8:	00441021 	addu	v0,v0,a0
    a0fc:	aee200d8 	sw	v0,216(s7)
    a100:	aee300dc 	sw	v1,220(s7)
    a104:	8ee200d8 	lw	v0,216(s7)
    a108:	0800384a 	j	0xe128
    a10c:	8ee300dc 	lw	v1,220(s7)
    a110:	8ee200c8 	lw	v0,200(s7)
    a114:	8ee300cc 	lw	v1,204(s7)
    a118:	24630001 	addiu	v1,v1,1
    a11c:	2c640001 	sltiu	a0,v1,1
    a120:	00441021 	addu	v0,v0,a0
    a124:	aee200c8 	sw	v0,200(s7)
    a128:	aee300cc 	sw	v1,204(s7)
    a12c:	8ee200c8 	lw	v0,200(s7)
    a130:	8ee300cc 	lw	v1,204(s7)
    a134:	8f8300e4 	lw	v1,228(gp)
    a138:	8f8200e0 	lw	v0,224(gp)
    a13c:	10620003 	beq	v1,v0,0xa14c
    a140:	24630008 	addiu	v1,v1,8
    a144:	af8300e4 	sw	v1,228(gp)
    a148:	af8300e8 	sw	v1,232(gp)
    a14c:	8fbf004c 	lw	ra,76(sp)
    a150:	8fb60048 	lw	s6,72(sp)
    a154:	8fb50044 	lw	s5,68(sp)
    a158:	8fb40040 	lw	s4,64(sp)
    a15c:	8fb3003c 	lw	s3,60(sp)
    a160:	8fb20038 	lw	s2,56(sp)
    a164:	8fb10034 	lw	s1,52(sp)
    a168:	8fb00030 	lw	s0,48(sp)
    a16c:	03e00008 	jr	ra
    a170:	27bd0050 	addiu	sp,sp,80
    a174:	27bdff90 	addiu	sp,sp,-112
    a178:	afb60060 	sw	s6,96(sp)
    a17c:	0000b021 	move	s6,zero
    a180:	afbf0068 	sw	ra,104(sp)
    a184:	afbe0064 	sw	s8,100(sp)
    a188:	afb5005c 	sw	s5,92(sp)
    a18c:	afb40058 	sw	s4,88(sp)
    a190:	afb30054 	sw	s3,84(sp)
    a194:	afb20050 	sw	s2,80(sp)
    a198:	afb1004c 	sw	s1,76(sp)
    a19c:	afb00048 	sw	s0,72(sp)
    a1a0:	8ee204d4 	lw	v0,1236(s7)
    a1a4:	00008821 	move	s1,zero
    a1a8:	24150001 	li	s5,1
    a1ac:	30420001 	andi	v0,v0,0x1
    a1b0:	1440002a 	bnez	v0,0xa25c
    a1b4:	a3a0002f 	sb	zero,47(sp)
    a1b8:	8f8700e0 	lw	a3,224(gp)
    a1bc:	8f8800c4 	lw	t0,196(gp)
    a1c0:	8f8200e8 	lw	v0,232(gp)
    a1c4:	00e22023 	subu	a0,a3,v0
    a1c8:	2c821000 	sltiu	v0,a0,4096
    a1cc:	50400001 	beqzl	v0,0xa1d4
    a1d0:	24841000 	addiu	a0,a0,4096
    a1d4:	000420c2 	srl	a0,a0,0x3
    a1d8:	00801821 	move	v1,a0
    a1dc:	8ee400c8 	lw	a0,200(s7)
    a1e0:	8ee500cc 	lw	a1,204(s7)
    a1e4:	00001021 	move	v0,zero
    a1e8:	00a32821 	addu	a1,a1,v1
    a1ec:	00a3302b 	sltu	a2,a1,v1
    a1f0:	00822021 	addu	a0,a0,v0
    a1f4:	00862021 	addu	a0,a0,a2
    a1f8:	aee400c8 	sw	a0,200(s7)
    a1fc:	aee500cc 	sw	a1,204(s7)
    a200:	8f8300c8 	lw	v1,200(gp)
    a204:	3c02000a 	lui	v0,0xa
    a208:	3442efff 	ori	v0,v0,0xefff
    a20c:	01032023 	subu	a0,t0,v1
    a210:	0044102b 	sltu	v0,v0,a0
    a214:	10400003 	beqz	v0,0xa224
    a218:	3c02000a 	lui	v0,0xa
    a21c:	3442f000 	ori	v0,v0,0xf000
    a220:	00822021 	addu	a0,a0,v0
    a224:	00801821 	move	v1,a0
    a228:	8ee400c0 	lw	a0,192(s7)
    a22c:	8ee500c4 	lw	a1,196(s7)
    a230:	00001021 	move	v0,zero
    a234:	00a32821 	addu	a1,a1,v1
    a238:	00a3302b 	sltu	a2,a1,v1
    a23c:	00822021 	addu	a0,a0,v0
    a240:	00862021 	addu	a0,a0,a2
    a244:	aee400c0 	sw	a0,192(s7)
    a248:	aee500c4 	sw	a1,196(s7)
    a24c:	af8800c8 	sw	t0,200(gp)
    a250:	af8700e4 	sw	a3,228(gp)
    a254:	08003c5b 	j	0xf16c
    a258:	af8700e8 	sw	a3,232(gp)
    a25c:	3c020001 	lui	v0,0x1
    a260:	00571021 	addu	v0,v0,s7
    a264:	904283c0 	lbu	v0,-31808(v0)
    a268:	1040000b 	beqz	v0,0xa298
    a26c:	00000000 	nop
    a270:	3c130001 	lui	s3,0x1
    a274:	02779821 	addu	s3,s3,s7
    a278:	8e7383c4 	lw	s3,-31804(s3)
    a27c:	3c100001 	lui	s0,0x1
    a280:	02178021 	addu	s0,s0,s7
    a284:	8e1083c8 	lw	s0,-31800(s0)
    a288:	3c120001 	lui	s2,0x1
    a28c:	02579021 	addu	s2,s2,s7
    a290:	08003a59 	j	0xe964
    a294:	8e5283cc 	lw	s2,-31796(s2)
    a298:	8f8300e0 	lw	v1,224(gp)
    a29c:	8f8200e4 	lw	v0,228(gp)
    a2a0:	10430007 	beq	v0,v1,0xa2c0
    a2a4:	00003821 	move	a3,zero
    a2a8:	8f8200e4 	lw	v0,228(gp)
    a2ac:	24070001 	li	a3,1
    a2b0:	8c430000 	lw	v1,0(v0)
    a2b4:	8c440004 	lw	a0,4(v0)
    a2b8:	afa30018 	sw	v1,24(sp)
    a2bc:	afa4001c 	sw	a0,28(sp)
    a2c0:	14e0000e 	bnez	a3,0xa2fc
    a2c4:	3c02ffff 	lui	v0,0xffff
    a2c8:	8f8200c4 	lw	v0,196(gp)
    a2cc:	afa20010 	sw	v0,16(sp)
    a2d0:	8f8200c8 	lw	v0,200(gp)
    a2d4:	3c040001 	lui	a0,0x1
    a2d8:	248458b4 	addiu	a0,a0,22708
    a2dc:	afa20014 	sw	v0,20(sp)
    a2e0:	8f8600e0 	lw	a2,224(gp)
    a2e4:	8f8700e4 	lw	a3,228(gp)
    a2e8:	3c050006 	lui	a1,0x6
    a2ec:	0c002403 	jal	0x900c
    a2f0:	34a5f200 	ori	a1,a1,0xf200
    a2f4:	08003c5b 	j	0xf16c
    a2f8:	00000000 	nop
    a2fc:	8fa3001c 	lw	v1,28(sp)
    a300:	8fb20018 	lw	s2,24(sp)
    a304:	3073ffff 	andi	s3,v1,0xffff
    a308:	2673fffc 	addiu	s3,s3,-4
    a30c:	00621024 	and	v0,v1,v0
    a310:	10400058 	beqz	v0,0xa474
    a314:	02408021 	move	s0,s2
    a318:	3c020080 	lui	v0,0x80
    a31c:	00621024 	and	v0,v1,v0
    a320:	1040000a 	beqz	v0,0xa34c
    a324:	3c040040 	lui	a0,0x40
    a328:	8ee2007c 	lw	v0,124(s7)
    a32c:	24420001 	addiu	v0,v0,1
    a330:	aee2007c 	sw	v0,124(s7)
    a334:	8ee2007c 	lw	v0,124(s7)
    a338:	8ee201fc 	lw	v0,508(s7)
    a33c:	24420001 	addiu	v0,v0,1
    a340:	aee201fc 	sw	v0,508(s7)
    a344:	08003c55 	j	0xf154
    a348:	8ee201fc 	lw	v0,508(s7)
    a34c:	3c060004 	lui	a2,0x4
    a350:	3c0b0001 	lui	t3,0x1
    a354:	3c0a0002 	lui	t2,0x2
    a358:	3c050010 	lui	a1,0x10
    a35c:	3c090008 	lui	t1,0x8
    a360:	8ee20080 	lw	v0,128(s7)
    a364:	3c080020 	lui	t0,0x20
    a368:	34078000 	li	a3,0x8000
    a36c:	24420001 	addiu	v0,v0,1
    a370:	aee20080 	sw	v0,128(s7)
    a374:	8ee20080 	lw	v0,128(s7)
    a378:	8fa2001c 	lw	v0,28(sp)
    a37c:	00441824 	and	v1,v0,a0
    a380:	10660021 	beq	v1,a2,0xa408
    a384:	00c3102b 	sltu	v0,a2,v1
    a388:	14400007 	bnez	v0,0xa3a8
    a38c:	00000000 	nop
    a390:	106b0011 	beq	v1,t3,0xa3d8
    a394:	00000000 	nop
    a398:	106a0015 	beq	v1,t2,0xa3f0
    a39c:	00000000 	nop
    a3a0:	08003916 	j	0xe458
    a3a4:	00042042 	srl	a0,a0,0x1
    a3a8:	10650023 	beq	v1,a1,0xa438
    a3ac:	00a3102b 	sltu	v0,a1,v1
    a3b0:	14400005 	bnez	v0,0xa3c8
    a3b4:	00000000 	nop
    a3b8:	10690019 	beq	v1,t1,0xa420
    a3bc:	00000000 	nop
    a3c0:	08003916 	j	0xe458
    a3c4:	00042042 	srl	a0,a0,0x1
    a3c8:	10680021 	beq	v1,t0,0xa450
    a3cc:	00000000 	nop
    a3d0:	08003916 	j	0xe458
    a3d4:	00042042 	srl	a0,a0,0x1
    a3d8:	8ee20034 	lw	v0,52(s7)
    a3dc:	24420001 	addiu	v0,v0,1
    a3e0:	aee20034 	sw	v0,52(s7)
    a3e4:	8ee20034 	lw	v0,52(s7)
    a3e8:	08003916 	j	0xe458
    a3ec:	00042042 	srl	a0,a0,0x1
    a3f0:	8ee201ec 	lw	v0,492(s7)
    a3f4:	24420001 	addiu	v0,v0,1
    a3f8:	aee201ec 	sw	v0,492(s7)
    a3fc:	8ee201ec 	lw	v0,492(s7)
    a400:	08003916 	j	0xe458
    a404:	00042042 	srl	a0,a0,0x1
    a408:	8ee201f0 	lw	v0,496(s7)
    a40c:	24420001 	addiu	v0,v0,1
    a410:	aee201f0 	sw	v0,496(s7)
    a414:	8ee201f0 	lw	v0,496(s7)
    a418:	08003916 	j	0xe458
    a41c:	00042042 	srl	a0,a0,0x1
    a420:	8ee201f4 	lw	v0,500(s7)
    a424:	24420001 	addiu	v0,v0,1
    a428:	aee201f4 	sw	v0,500(s7)
    a42c:	8ee201f4 	lw	v0,500(s7)
    a430:	08003916 	j	0xe458
    a434:	00042042 	srl	a0,a0,0x1
    a438:	8ee20030 	lw	v0,48(s7)
    a43c:	24420001 	addiu	v0,v0,1
    a440:	aee20030 	sw	v0,48(s7)
    a444:	8ee20030 	lw	v0,48(s7)
    a448:	08003916 	j	0xe458
    a44c:	00042042 	srl	a0,a0,0x1
    a450:	8ee201f8 	lw	v0,504(s7)
    a454:	24420001 	addiu	v0,v0,1
    a458:	aee201f8 	sw	v0,504(s7)
    a45c:	8ee201f8 	lw	v0,504(s7)
    a460:	00042042 	srl	a0,a0,0x1
    a464:	1087033e 	beq	a0,a3,0xb160
    a468:	00000000 	nop
    a46c:	080038db 	j	0xe36c
    a470:	00000000 	nop
    a474:	3c020001 	lui	v0,0x1
    a478:	00571021 	addu	v0,v0,s7
    a47c:	904283b2 	lbu	v0,-31822(v0)
    a480:	14400084 	bnez	v0,0xa694
    a484:	24020001 	li	v0,1
    a488:	3c030001 	lui	v1,0x1
    a48c:	00771821 	addu	v1,v1,s7
    a490:	906383b3 	lbu	v1,-31821(v1)
    a494:	1462007f 	bne	v1,v0,0xa694
    a498:	3c020100 	lui	v0,0x100
    a49c:	8e430000 	lw	v1,0(s2)
    a4a0:	00621024 	and	v0,v1,v0
    a4a4:	1040006f 	beqz	v0,0xa664
    a4a8:	2402ffff 	li	v0,-1
    a4ac:	14620005 	bne	v1,v0,0xa4c4
    a4b0:	24110001 	li	s1,1
    a4b4:	96430004 	lhu	v1,4(s2)
    a4b8:	3402ffff 	li	v0,0xffff
    a4bc:	10620075 	beq	v1,v0,0xa694
    a4c0:	00000000 	nop
    a4c4:	92e204d8 	lbu	v0,1240(s7)
    a4c8:	14400072 	bnez	v0,0xa694
    a4cc:	00000000 	nop
    a4d0:	3c020001 	lui	v0,0x1
    a4d4:	00571021 	addu	v0,v0,s7
    a4d8:	8c4283b4 	lw	v0,-31820(v0)
    a4dc:	28420005 	slti	v0,v0,5
    a4e0:	10400020 	beqz	v0,0xa564
    a4e4:	00003821 	move	a3,zero
    a4e8:	3c020001 	lui	v0,0x1
    a4ec:	00571021 	addu	v0,v0,s7
    a4f0:	8c4283b4 	lw	v0,-31820(v0)
    a4f4:	18400016 	blez	v0,0xa550
    a4f8:	00002821 	move	a1,zero
    a4fc:	96060000 	lhu	a2,0(s0)
    a500:	000520c0 	sll	a0,a1,0x3
    a504:	00971021 	addu	v0,a0,s7
    a508:	9442777e 	lhu	v0,30590(v0)
    a50c:	14460009 	bne	v0,a2,0xa534
    a510:	00971021 	addu	v0,a0,s7
    a514:	94437780 	lhu	v1,30592(v0)
    a518:	96020002 	lhu	v0,2(s0)
    a51c:	14620005 	bne	v1,v0,0xa534
    a520:	00971021 	addu	v0,a0,s7
    a524:	94437782 	lhu	v1,30594(v0)
    a528:	96020004 	lhu	v0,4(s0)
    a52c:	50620008 	beql	v1,v0,0xa550
    a530:	24070001 	li	a3,1
    a534:	3c020001 	lui	v0,0x1
    a538:	00571021 	addu	v0,v0,s7
    a53c:	8c4283b4 	lw	v0,-31820(v0)
    a540:	24a50001 	addiu	a1,a1,1
    a544:	00a2102a 	slt	v0,a1,v0
    a548:	5440ffee 	bnezl	v0,0xa504
    a54c:	000520c0 	sll	a0,a1,0x3
    a550:	30e200ff 	andi	v0,a3,0xff
    a554:	10400302 	beqz	v0,0xb160
    a558:	00000000 	nop
    a55c:	080039a2 	j	0xe688
    a560:	00000000 	nop
    a564:	02402021 	move	a0,s2
    a568:	0c0022fe 	jal	0x8bf8
    a56c:	24050006 	li	a1,6
    a570:	3044001f 	andi	a0,v0,0x1f
    a574:	000428c0 	sll	a1,a0,0x3
    a578:	02e51021 	addu	v0,s7,a1
    a57c:	9442727c 	lhu	v0,29308(v0)
    a580:	30424000 	andi	v0,v0,0x4000
    a584:	144002f6 	bnez	v0,0xb160
    a588:	00b71021 	addu	v0,a1,s7
    a58c:	9443727e 	lhu	v1,29310(v0)
    a590:	96020000 	lhu	v0,0(s0)
    a594:	1462000b 	bne	v1,v0,0xa5c4
    a598:	000418c0 	sll	v1,a0,0x3
    a59c:	00b71021 	addu	v0,a1,s7
    a5a0:	94437280 	lhu	v1,29312(v0)
    a5a4:	96020002 	lhu	v0,2(s0)
    a5a8:	14620006 	bne	v1,v0,0xa5c4
    a5ac:	000418c0 	sll	v1,a0,0x3
    a5b0:	00b71021 	addu	v0,a1,s7
    a5b4:	94437282 	lhu	v1,29314(v0)
    a5b8:	96020004 	lhu	v0,4(s0)
    a5bc:	10620035 	beq	v1,v0,0xa694
    a5c0:	000418c0 	sll	v1,a0,0x3
    a5c4:	02e31021 	addu	v0,s7,v1
    a5c8:	9442727c 	lhu	v0,29308(v0)
    a5cc:	30428000 	andi	v0,v0,0x8000
    a5d0:	144002e3 	bnez	v0,0xb160
    a5d4:	02e31021 	addu	v0,s7,v1
    a5d8:	944d727c 	lhu	t5,29308(v0)
    a5dc:	96070000 	lhu	a3,0(s0)
    a5e0:	000d28c0 	sll	a1,t5,0x3
    a5e4:	00b71021 	addu	v0,a1,s7
    a5e8:	9442737e 	lhu	v0,29566(v0)
    a5ec:	08003984 	j	0xe610
    a5f0:	00003021 	move	a2,zero
    a5f4:	000420c0 	sll	a0,a0,0x3
    a5f8:	02e41021 	addu	v0,s7,a0
    a5fc:	9443737c 	lhu	v1,29564(v0)
    a600:	02e41021 	addu	v0,s7,a0
    a604:	944d737c 	lhu	t5,29564(v0)
    a608:	30638000 	andi	v1,v1,0x8000
    a60c:	14600010 	bnez	v1,0xa650
    a610:	000d28c0 	sll	a1,t5,0x3
    a614:	00b71021 	addu	v0,a1,s7
    a618:	9442737e 	lhu	v0,29566(v0)
    a61c:	1447fff5 	bne	v0,a3,0xa5f4
    a620:	01a02021 	move	a0,t5
    a624:	00b71021 	addu	v0,a1,s7
    a628:	94437380 	lhu	v1,29568(v0)
    a62c:	96020002 	lhu	v0,2(s0)
    a630:	5462fff1 	bnel	v1,v0,0xa5f8
    a634:	000420c0 	sll	a0,a0,0x3
    a638:	00b71021 	addu	v0,a1,s7
    a63c:	94437382 	lhu	v1,29570(v0)
    a640:	96020004 	lhu	v0,4(s0)
    a644:	5462ffec 	bnel	v1,v0,0xa5f8
    a648:	000420c0 	sll	a0,a0,0x3
    a64c:	24060001 	li	a2,1
    a650:	30c200ff 	andi	v0,a2,0xff
    a654:	104002c2 	beqz	v0,0xb160
    a658:	00000000 	nop
    a65c:	080039a2 	j	0xe688
    a660:	00000000 	nop
    a664:	97430202 	lhu	v1,514(k0)
    a668:	96420000 	lhu	v0,0(s2)
    a66c:	146202bc 	bne	v1,v0,0xb160
    a670:	00000000 	nop
    a674:	97430204 	lhu	v1,516(k0)
    a678:	96420002 	lhu	v0,2(s2)
    a67c:	146202b8 	bne	v1,v0,0xb160
    a680:	00000000 	nop
    a684:	97430206 	lhu	v1,518(k0)
    a688:	96420004 	lhu	v0,4(s2)
    a68c:	146202b4 	bne	v1,v0,0xb160
    a690:	00000000 	nop
    a694:	92420000 	lbu	v0,0(s2)
    a698:	3a230001 	xori	v1,s1,0x1
    a69c:	30420001 	andi	v0,v0,0x1
    a6a0:	00431024 	and	v0,v0,v1
    a6a4:	10400074 	beqz	v0,0xa878
    a6a8:	2402ffff 	li	v0,-1
    a6ac:	8e030000 	lw	v1,0(s0)
    a6b0:	14620004 	bne	v1,v0,0xa6c4
    a6b4:	3402ffff 	li	v0,0xffff
    a6b8:	96030004 	lhu	v1,4(s0)
    a6bc:	1062006f 	beq	v1,v0,0xa87c
    a6c0:	24150002 	li	s5,2
    a6c4:	3c020001 	lui	v0,0x1
    a6c8:	00571021 	addu	v0,v0,s7
    a6cc:	904283b2 	lbu	v0,-31822(v0)
    a6d0:	1440006a 	bnez	v0,0xa87c
    a6d4:	24150003 	li	s5,3
    a6d8:	92e204d8 	lbu	v0,1240(s7)
    a6dc:	14400067 	bnez	v0,0xa87c
    a6e0:	00000000 	nop
    a6e4:	3c020001 	lui	v0,0x1
    a6e8:	00571021 	addu	v0,v0,s7
    a6ec:	8c4283b4 	lw	v0,-31820(v0)
    a6f0:	28420005 	slti	v0,v0,5
    a6f4:	10400020 	beqz	v0,0xa778
    a6f8:	00003821 	move	a3,zero
    a6fc:	3c020001 	lui	v0,0x1
    a700:	00571021 	addu	v0,v0,s7
    a704:	8c4283b4 	lw	v0,-31820(v0)
    a708:	18400016 	blez	v0,0xa764
    a70c:	00002821 	move	a1,zero
    a710:	96060000 	lhu	a2,0(s0)
    a714:	000520c0 	sll	a0,a1,0x3
    a718:	00971021 	addu	v0,a0,s7
    a71c:	9442777e 	lhu	v0,30590(v0)
    a720:	14460009 	bne	v0,a2,0xa748
    a724:	00971021 	addu	v0,a0,s7
    a728:	94437780 	lhu	v1,30592(v0)
    a72c:	96020002 	lhu	v0,2(s0)
    a730:	14620005 	bne	v1,v0,0xa748
    a734:	00971021 	addu	v0,a0,s7
    a738:	94437782 	lhu	v1,30594(v0)
    a73c:	96020004 	lhu	v0,4(s0)
    a740:	50620008 	beql	v1,v0,0xa764
    a744:	24070001 	li	a3,1
    a748:	3c020001 	lui	v0,0x1
    a74c:	00571021 	addu	v0,v0,s7
    a750:	8c4283b4 	lw	v0,-31820(v0)
    a754:	24a50001 	addiu	a1,a1,1
    a758:	00a2102a 	slt	v0,a1,v0
    a75c:	5440ffee 	bnezl	v0,0xa718
    a760:	000520c0 	sll	a0,a1,0x3
    a764:	30e200ff 	andi	v0,a3,0xff
    a768:	14400044 	bnez	v0,0xa87c
    a76c:	24150003 	li	s5,3
    a770:	08003c55 	j	0xf154
    a774:	00000000 	nop
    a778:	02402021 	move	a0,s2
    a77c:	0c0022fe 	jal	0x8bf8
    a780:	24050006 	li	a1,6
    a784:	3044001f 	andi	a0,v0,0x1f
    a788:	000428c0 	sll	a1,a0,0x3
    a78c:	02e51021 	addu	v0,s7,a1
    a790:	9442727c 	lhu	v0,29308(v0)
    a794:	30424000 	andi	v0,v0,0x4000
    a798:	14400271 	bnez	v0,0xb160
    a79c:	00b71021 	addu	v0,a1,s7
    a7a0:	9443727e 	lhu	v1,29310(v0)
    a7a4:	96020000 	lhu	v0,0(s0)
    a7a8:	1462000b 	bne	v1,v0,0xa7d8
    a7ac:	000418c0 	sll	v1,a0,0x3
    a7b0:	00b71021 	addu	v0,a1,s7
    a7b4:	94437280 	lhu	v1,29312(v0)
    a7b8:	96020002 	lhu	v0,2(s0)
    a7bc:	14620006 	bne	v1,v0,0xa7d8
    a7c0:	000418c0 	sll	v1,a0,0x3
    a7c4:	00b71021 	addu	v0,a1,s7
    a7c8:	94437282 	lhu	v1,29314(v0)
    a7cc:	96020004 	lhu	v0,4(s0)
    a7d0:	10620027 	beq	v1,v0,0xa870
    a7d4:	000418c0 	sll	v1,a0,0x3
    a7d8:	02e31021 	addu	v0,s7,v1
    a7dc:	9442727c 	lhu	v0,29308(v0)
    a7e0:	30428000 	andi	v0,v0,0x8000
    a7e4:	1440025e 	bnez	v0,0xb160
    a7e8:	02e31021 	addu	v0,s7,v1
    a7ec:	944d727c 	lhu	t5,29308(v0)
    a7f0:	96070000 	lhu	a3,0(s0)
    a7f4:	000d28c0 	sll	a1,t5,0x3
    a7f8:	00b71021 	addu	v0,a1,s7
    a7fc:	9442737e 	lhu	v0,29566(v0)
    a800:	08003a09 	j	0xe824
    a804:	00003021 	move	a2,zero
    a808:	000420c0 	sll	a0,a0,0x3
    a80c:	02e41021 	addu	v0,s7,a0
    a810:	9443737c 	lhu	v1,29564(v0)
    a814:	02e41021 	addu	v0,s7,a0
    a818:	944d737c 	lhu	t5,29564(v0)
    a81c:	30638000 	andi	v1,v1,0x8000
    a820:	14600010 	bnez	v1,0xa864
    a824:	000d28c0 	sll	a1,t5,0x3
    a828:	00b71021 	addu	v0,a1,s7
    a82c:	9442737e 	lhu	v0,29566(v0)
    a830:	1447fff5 	bne	v0,a3,0xa808
    a834:	01a02021 	move	a0,t5
    a838:	00b71021 	addu	v0,a1,s7
    a83c:	94437380 	lhu	v1,29568(v0)
    a840:	96020002 	lhu	v0,2(s0)
    a844:	5462fff1 	bnel	v1,v0,0xa80c
    a848:	000420c0 	sll	a0,a0,0x3
    a84c:	00b71021 	addu	v0,a1,s7
    a850:	94437382 	lhu	v1,29570(v0)
    a854:	96020004 	lhu	v0,4(s0)
    a858:	5462ffec 	bnel	v1,v0,0xa80c
    a85c:	000420c0 	sll	a0,a0,0x3
    a860:	24060001 	li	a2,1
    a864:	30c200ff 	andi	v0,a2,0xff
    a868:	1040023d 	beqz	v0,0xb160
    a86c:	00000000 	nop
    a870:	08003a1c 	j	0xe870
    a874:	24150003 	li	s5,3
    a878:	24150001 	li	s5,1
    a87c:	8f420260 	lw	v0,608(k0)
    a880:	0053102b 	sltu	v0,v0,s3
    a884:	10400036 	beqz	v0,0xa960
    a888:	00000000 	nop
    a88c:	8f8300e4 	lw	v1,228(gp)
    a890:	8f8200e0 	lw	v0,224(gp)
    a894:	10620003 	beq	v1,v0,0xa8a4
    a898:	24630008 	addiu	v1,v1,8
    a89c:	af8300e4 	sw	v1,228(gp)
    a8a0:	af8300e8 	sw	v1,232(gp)
    a8a4:	8ee400c0 	lw	a0,192(s7)
    a8a8:	8ee500c4 	lw	a1,196(s7)
    a8ac:	02601821 	move	v1,s3
    a8b0:	00001021 	move	v0,zero
    a8b4:	00a32821 	addu	a1,a1,v1
    a8b8:	00a3302b 	sltu	a2,a1,v1
    a8bc:	00822021 	addu	a0,a0,v0
    a8c0:	00862021 	addu	a0,a0,a2
    a8c4:	aee400c0 	sw	a0,192(s7)
    a8c8:	aee500c4 	sw	a1,196(s7)
    a8cc:	8ee20058 	lw	v0,88(s7)
    a8d0:	24420001 	addiu	v0,v0,1
    a8d4:	aee20058 	sw	v0,88(s7)
    a8d8:	8ee20058 	lw	v0,88(s7)
    a8dc:	8ee2007c 	lw	v0,124(s7)
    a8e0:	24420001 	addiu	v0,v0,1
    a8e4:	aee2007c 	sw	v0,124(s7)
    a8e8:	8ee2007c 	lw	v0,124(s7)
    a8ec:	8f8200e0 	lw	v0,224(gp)
    a8f0:	afa20010 	sw	v0,16(sp)
    a8f4:	8f8200e4 	lw	v0,228(gp)
    a8f8:	3c040001 	lui	a0,0x1
    a8fc:	248458c0 	addiu	a0,a0,22720
    a900:	afa20014 	sw	v0,20(sp)
    a904:	8fa60018 	lw	a2,24(sp)
    a908:	8fa7001c 	lw	a3,28(sp)
    a90c:	3c050006 	lui	a1,0x6
    a910:	0c002403 	jal	0x900c
    a914:	34a5f203 	ori	a1,a1,0xf203
    a918:	08003c5b 	j	0xf16c
    a91c:	00000000 	nop
    a920:	8ee25240 	lw	v0,21056(s7)
    a924:	afa20010 	sw	v0,16(sp)
    a928:	8ee25244 	lw	v0,21060(s7)
    a92c:	3c040001 	lui	a0,0x1
    a930:	248458cc 	addiu	a0,a0,22732
    a934:	afa20014 	sw	v0,20(sp)
    a938:	8ee60e10 	lw	a2,3600(s7)
    a93c:	8ee70e18 	lw	a3,3608(s7)
    a940:	3c050006 	lui	a1,0x6
    a944:	0c002403 	jal	0x900c
    a948:	34a5f202 	ori	a1,a1,0xf202
    a94c:	8ee201c0 	lw	v0,448(s7)
    a950:	24420001 	addiu	v0,v0,1
    a954:	aee201c0 	sw	v0,448(s7)
    a958:	08003c02 	j	0xf008
    a95c:	8ee201c0 	lw	v0,448(s7)
    a960:	96e20468 	lhu	v0,1128(s7)
    a964:	0053102b 	sltu	v0,v0,s3
    a968:	54400001 	bnezl	v0,0xa970
    a96c:	3c168000 	lui	s6,0x8000
    a970:	126001cb 	beqz	s3,0xb0a0
    a974:	3c0e001f 	lui	t6,0x1f
    a978:	35ceffff 	ori	t6,t6,0xffff
    a97c:	3c0ffff5 	lui	t7,0xfff5
    a980:	35ef1000 	ori	t7,t7,0x1000
    a984:	241e0040 	li	s8,64
    a988:	8ee2724c 	lw	v0,29260(s7)
    a98c:	8f430280 	lw	v1,640(k0)
    a990:	24420001 	addiu	v0,v0,1
    a994:	304207ff 	andi	v0,v0,0x7ff
    a998:	1062019e 	beq	v1,v0,0xb014
    a99c:	00000000 	nop
    a9a0:	12c00012 	beqz	s6,0xa9ec
    a9a4:	00000000 	nop
    a9a8:	8ee35240 	lw	v1,21056(s7)
    a9ac:	8ee25244 	lw	v0,21060(s7)
    a9b0:	1062000a 	beq	v1,v0,0xa9dc
    a9b4:	26f85244 	addiu	t8,s7,21060
    a9b8:	8ef45244 	lw	s4,21060(s7)
    a9bc:	afb80024 	sw	t8,36(sp)
    a9c0:	8ee35244 	lw	v1,21060(s7)
    a9c4:	00021140 	sll	v0,v0,0x5
    a9c8:	24425248 	addiu	v0,v0,21064
    a9cc:	02e28821 	addu	s1,s7,v0
    a9d0:	24630001 	addiu	v1,v1,1
    a9d4:	08003a85 	j	0xea14
    a9d8:	306d00ff 	andi	t5,v1,0xff
    a9dc:	8ee201e0 	lw	v0,480(s7)
    a9e0:	24420001 	addiu	v0,v0,1
    a9e4:	aee201e0 	sw	v0,480(s7)
    a9e8:	8ee201e0 	lw	v0,480(s7)
    a9ec:	8ee30e10 	lw	v1,3600(s7)
    a9f0:	8ee20e18 	lw	v0,3608(s7)
    a9f4:	1062ffca 	beq	v1,v0,0xa920
    a9f8:	26f80e18 	addiu	t8,s7,3608
    a9fc:	8ef40e18 	lw	s4,3608(s7)
    aa00:	0000b021 	move	s6,zero
    aa04:	afb80024 	sw	t8,36(sp)
    aa08:	8ee30e18 	lw	v1,3608(s7)
    aa0c:	00021140 	sll	v0,v0,0x5
    aa10:	24420e20 	addiu	v0,v0,3616
    aa14:	02e28821 	addu	s1,s7,v0
    aa18:	24630001 	addiu	v1,v1,1
    aa1c:	306d01ff 	andi	t5,v1,0x1ff
    aa20:	96e2046a 	lhu	v0,1130(s7)
    aa24:	30420010 	andi	v0,v0,0x10
    aa28:	10400018 	beqz	v0,0xaa8c
    aa2c:	34028100 	li	v0,0x8100
    aa30:	9643000c 	lhu	v1,12(s2)
    aa34:	14620015 	bne	v1,v0,0xaa8c
    aa38:	00000000 	nop
    aa3c:	3c020001 	lui	v0,0x1
    aa40:	00571021 	addu	v0,v0,s7
    aa44:	904283c0 	lbu	v0,-31808(v0)
    aa48:	14400010 	bnez	v0,0xaa8c
    aa4c:	00000000 	nop
    aa50:	9642000e 	lhu	v0,14(s2)
    aa54:	a6220016 	sh	v0,22(s1)
    aa58:	8e420008 	lw	v0,8(s2)
    aa5c:	8e430004 	lw	v1,4(s2)
    aa60:	8e440000 	lw	a0,0(s2)
    aa64:	2673fffc 	addiu	s3,s3,-4
    aa68:	ae42000c 	sw	v0,12(s2)
    aa6c:	ae430008 	sw	v1,8(s2)
    aa70:	ae440004 	sw	a0,4(s2)
    aa74:	9622000e 	lhu	v0,14(s1)
    aa78:	26100004 	addiu	s0,s0,4
    aa7c:	24180001 	li	t8,1
    aa80:	a3b8002f 	sb	t8,47(sp)
    aa84:	34420200 	ori	v0,v0,0x200
    aa88:	a622000e 	sh	v0,14(s1)
    aa8c:	8e220000 	lw	v0,0(s1)
    aa90:	8e230004 	lw	v1,4(s1)
    aa94:	3c040001 	lui	a0,0x1
    aa98:	34843800 	ori	a0,a0,0x3800
    aa9c:	02003021 	move	a2,s0
    aaa0:	306a0007 	andi	t2,v1,0x7
    aaa4:	020a8023 	subu	s0,s0,t2
    aaa8:	03641021 	addu	v0,k1,a0
    aaac:	0202102b 	sltu	v0,s0,v0
    aab0:	10400005 	beqz	v0,0xaac8
    aab4:	026a9821 	addu	s3,s3,t2
    aab8:	02041023 	subu	v0,s0,a0
    aabc:	03621823 	subu	v1,k1,v0
    aac0:	3c020020 	lui	v0,0x20
    aac4:	00438023 	subu	s0,v0,v1
    aac8:	26620007 	addiu	v0,s3,7
    aacc:	9623000a 	lhu	v1,10(s1)
    aad0:	2418fff8 	li	t8,-8
    aad4:	0058c824 	and	t9,v0,t8
    aad8:	006a1821 	addu	v1,v1,t2
    aadc:	0079102b 	sltu	v0,v1,t9
    aae0:	10400002 	beqz	v0,0xaaec
    aae4:	03206021 	move	t4,t9
    aae8:	00606021 	move	t4,v1
    aaec:	01801821 	move	v1,t4
    aaf0:	24620007 	addiu	v0,v1,7
    aaf4:	2418fff8 	li	t8,-8
    aaf8:	00586024 	and	t4,v0,t8
    aafc:	026c102b 	sltu	v0,s3,t4
    ab00:	14400004 	bnez	v0,0xab14
    ab04:	01932823 	subu	a1,t4,s3
    ab08:	01832823 	subu	a1,t4,v1
    ab0c:	08003ac3 	j	0xeb0c
    ab10:	00c31021 	addu	v0,a2,v1
    ab14:	00d31021 	addu	v0,a2,s3
    ab18:	004a2023 	subu	a0,v0,t2
    ab1c:	01c4102b 	sltu	v0,t6,a0
    ab20:	54400001 	bnezl	v0,0xab28
    ab24:	008f2021 	addu	a0,a0,t7
    ab28:	25420040 	addiu	v0,t2,64
    ab2c:	004c102b 	sltu	v0,v0,t4
    ab30:	14400035 	bnez	v0,0xac08
    ab34:	00005821 	move	t3,zero
    ab38:	94c3000c 	lhu	v1,12(a2)
    ab3c:	24020800 	li	v0,2048
    ab40:	54620032 	bnel	v1,v0,0xac0c
    ab44:	ae260018 	sw	a2,24(s1)
    ab48:	3c020001 	lui	v0,0x1
    ab4c:	00571021 	addu	v0,v0,s7
    ab50:	904283c0 	lbu	v0,-31808(v0)
    ab54:	5440002d 	bnezl	v0,0xac0c
    ab58:	ae260018 	sw	a2,24(s1)
    ab5c:	24c20017 	addiu	v0,a2,23
    ab60:	01c2102b 	sltu	v0,t6,v0
    ab64:	10400013 	beqz	v0,0xabb4
    ab68:	00000000 	nop
    ab6c:	3c02fff5 	lui	v0,0xfff5
    ab70:	00461021 	addu	v0,v0,a2
    ab74:	90421017 	lbu	v0,4119(v0)
    ab78:	38430006 	xori	v1,v0,0x6
    ab7c:	2c630001 	sltiu	v1,v1,1
    ab80:	38420011 	xori	v0,v0,0x11
    ab84:	2c420001 	sltiu	v0,v0,1
    ab88:	00621825 	or	v1,v1,v0
    ab8c:	10600014 	beqz	v1,0xabe0
    ab90:	24c20010 	addiu	v0,a2,16
    ab94:	01c2102b 	sltu	v0,t6,v0
    ab98:	1040000e 	beqz	v0,0xabd4
    ab9c:	00000000 	nop
    aba0:	3c0bfff5 	lui	t3,0xfff5
    aba4:	01665821 	addu	t3,t3,a2
    aba8:	956b1010 	lhu	t3,4112(t3)
    abac:	08003af4 	j	0xebd0
    abb0:	2562000e 	addiu	v0,t3,14
    abb4:	90c20017 	lbu	v0,23(a2)
    abb8:	38430006 	xori	v1,v0,0x6
    abbc:	2c630001 	sltiu	v1,v1,1
    abc0:	38420011 	xori	v0,v0,0x11
    abc4:	2c420001 	sltiu	v0,v0,1
    abc8:	00621825 	or	v1,v1,v0
    abcc:	10600005 	beqz	v1,0xabe4
    abd0:	01601821 	move	v1,t3
    abd4:	94cb0010 	lhu	t3,16(a2)
    abd8:	2562000e 	addiu	v0,t3,14
    abdc:	004a5821 	addu	t3,v0,t2
    abe0:	01601821 	move	v1,t3
    abe4:	24620007 	addiu	v0,v1,7
    abe8:	2418fff8 	li	t8,-8
    abec:	00585824 	and	t3,v0,t8
    abf0:	00c31021 	addu	v0,a2,v1
    abf4:	004a2023 	subu	a0,v0,t2
    abf8:	01c4102b 	sltu	v0,t6,a0
    abfc:	10400002 	beqz	v0,0xac08
    ac00:	01632823 	subu	a1,t3,v1
    ac04:	008f2021 	addu	a0,a0,t7
    ac08:	ae260018 	sw	a2,24(s1)
    ac0c:	3c020001 	lui	v0,0x1
    ac10:	00571021 	addu	v0,v0,s7
    ac14:	904283c0 	lbu	v0,-31808(v0)
    ac18:	0002102b 	sltu	v0,zero,v0
    ac1c:	000216c0 	sll	v0,v0,0x1b
    ac20:	15600002 	bnez	t3,0xac2c
    ac24:	afa20044 	sw	v0,68(sp)
    ac28:	01805821 	move	t3,t4
    ac2c:	30820001 	andi	v0,a0,0x1
    ac30:	10400007 	beqz	v0,0xac50
    ac34:	00004021 	move	t0,zero
    ac38:	90880000 	lbu	t0,0(a0)
    ac3c:	24840001 	addiu	a0,a0,1
    ac40:	01c4102b 	sltu	v0,t6,a0
    ac44:	10400002 	beqz	v0,0xac50
    ac48:	24a5ffff 	addiu	a1,a1,-1
    ac4c:	008f2021 	addu	a0,a0,t7
    ac50:	50a00012 	beqzl	a1,0xac9c
    ac54:	00081c02 	srl	v1,t0,0x10
    ac58:	2ca20002 	sltiu	v0,a1,2
    ac5c:	54400009 	bnezl	v0,0xac84
    ac60:	24a5ffff 	addiu	a1,a1,-1
    ac64:	94820000 	lhu	v0,0(a0)
    ac68:	24840002 	addiu	a0,a0,2
    ac6c:	01024021 	addu	t0,t0,v0
    ac70:	01c4102b 	sltu	v0,t6,a0
    ac74:	10400006 	beqz	v0,0xac90
    ac78:	24a5fffe 	addiu	a1,a1,-2
    ac7c:	08003b21 	j	0xec84
    ac80:	008f2021 	addu	a0,a0,t7
    ac84:	90820000 	lbu	v0,0(a0)
    ac88:	00021200 	sll	v0,v0,0x8
    ac8c:	01024021 	addu	t0,t0,v0
    ac90:	14a0fff2 	bnez	a1,0xac5c
    ac94:	2ca20002 	sltiu	v0,a1,2
    ac98:	00081c02 	srl	v1,t0,0x10
    ac9c:	3102ffff 	andi	v0,t0,0xffff
    aca0:	00624021 	addu	t0,v1,v0
    aca4:	3108ffff 	andi	t0,t0,0xffff
    aca8:	01402821 	move	a1,t2
    acac:	11400011 	beqz	t2,0xacf4
    acb0:	02002021 	move	a0,s0
    acb4:	2ca20002 	sltiu	v0,a1,2
    acb8:	54400009 	bnezl	v0,0xace0
    acbc:	24a5ffff 	addiu	a1,a1,-1
    acc0:	94820000 	lhu	v0,0(a0)
    acc4:	24840002 	addiu	a0,a0,2
    acc8:	01024021 	addu	t0,t0,v0
    accc:	01c4102b 	sltu	v0,t6,a0
    acd0:	10400006 	beqz	v0,0xacec
    acd4:	24a5fffe 	addiu	a1,a1,-2
    acd8:	08003b38 	j	0xece0
    acdc:	008f2021 	addu	a0,a0,t7
    ace0:	90820000 	lbu	v0,0(a0)
    ace4:	00021200 	sll	v0,v0,0x8
    ace8:	01024021 	addu	t0,t0,v0
    acec:	14a0fff2 	bnez	a1,0xacb8
    acf0:	2ca20002 	sltiu	v0,a1,2
    acf4:	00081c02 	srl	v1,t0,0x10
    acf8:	3102ffff 	andi	v0,t0,0xffff
    acfc:	00624021 	addu	t0,v1,v0
    ad00:	00081c02 	srl	v1,t0,0x10
    ad04:	3102ffff 	andi	v0,t0,0xffff
    ad08:	8f890120 	lw	t1,288(gp)
    ad0c:	00624021 	addu	t0,v1,v0
    ad10:	27623800 	addiu	v0,k1,14336
    ad14:	25230020 	addiu	v1,t1,32
    ad18:	0062102b 	sltu	v0,v1,v0
    ad1c:	14400002 	bnez	v0,0xad28
    ad20:	3108ffff 	andi	t0,t0,0xffff
    ad24:	27633000 	addiu	v1,k1,12288
    ad28:	8f820128 	lw	v0,296(gp)
    ad2c:	10620004 	beq	v1,v0,0xad40
    ad30:	00000000 	nop
    ad34:	8f820124 	lw	v0,292(gp)
    ad38:	14620007 	bne	v1,v0,0xad58
    ad3c:	01402821 	move	a1,t2
    ad40:	8ee201a4 	lw	v0,420(s7)
    ad44:	00003821 	move	a3,zero
    ad48:	24420001 	addiu	v0,v0,1
    ad4c:	aee201a4 	sw	v0,420(s7)
    ad50:	08003bc9 	j	0xef24
    ad54:	8ee201a4 	lw	v0,420(s7)
    ad58:	8e260000 	lw	a2,0(s1)
    ad5c:	8e270004 	lw	a3,4(s1)
    ad60:	00081400 	sll	v0,t0,0x10
    ad64:	3448000b 	ori	t0,v0,0xb
    ad68:	ad300008 	sw	s0,8(t1)
    ad6c:	a52b000e 	sh	t3,14(t1)
    ad70:	ad280018 	sw	t0,24(t1)
    ad74:	8fb80044 	lw	t8,68(sp)
    ad78:	00002021 	move	a0,zero
    ad7c:	02961025 	or	v0,s4,s6
    ad80:	00581025 	or	v0,v0,t8
    ad84:	ad22001c 	sw	v0,28(t1)
    ad88:	00e5102b 	sltu	v0,a3,a1
    ad8c:	00e53823 	subu	a3,a3,a1
    ad90:	00c43023 	subu	a2,a2,a0
    ad94:	00c23023 	subu	a2,a2,v0
    ad98:	ad260000 	sw	a2,0(t1)
    ad9c:	ad270004 	sw	a3,4(t1)
    ada0:	8ee204c0 	lw	v0,1216(s7)
    ada4:	ad220010 	sw	v0,16(t1)
    ada8:	af830120 	sw	v1,288(gp)
    adac:	92e24e20 	lbu	v0,20000(s7)
    adb0:	1440005f 	bnez	v0,0xaf30
    adb4:	24070001 	li	a3,1
    adb8:	2502ffee 	addiu	v0,t0,-18
    adbc:	2c420002 	sltiu	v0,v0,2
    adc0:	14400003 	bnez	v0,0xadd0
    adc4:	24020011 	li	v0,17
    adc8:	15020024 	bne	t0,v0,0xae5c
    adcc:	00000000 	nop
    add0:	8ee24e30 	lw	v0,20016(s7)
    add4:	000210c0 	sll	v0,v0,0x3
    add8:	24425038 	addiu	v0,v0,20536
    addc:	02e22021 	addu	a0,s7,v0
    ade0:	8c830000 	lw	v1,0(a0)
    ade4:	24020012 	li	v0,18
    ade8:	1462000f 	bne	v1,v0,0xae28
    adec:	00000000 	nop
    adf0:	8ee34e30 	lw	v1,20016(s7)
    adf4:	8ee24e34 	lw	v0,20020(s7)
    adf8:	1062000b 	beq	v1,v0,0xae28
    adfc:	00000000 	nop
    ae00:	8c820004 	lw	v0,4(a0)
    ae04:	24420001 	addiu	v0,v0,1
    ae08:	ac820004 	sw	v0,4(a0)
    ae0c:	8ee24e34 	lw	v0,20020(s7)
    ae10:	8ee34e30 	lw	v1,20016(s7)
    ae14:	24420001 	addiu	v0,v0,1
    ae18:	105e002a 	beq	v0,s8,0xaec4
    ae1c:	00000000 	nop
    ae20:	08003ba8 	j	0xeea0
    ae24:	00000000 	nop
    ae28:	8ee24e30 	lw	v0,20016(s7)
    ae2c:	24420001 	addiu	v0,v0,1
    ae30:	505e0003 	beql	v0,s8,0xae40
    ae34:	00001021 	move	v0,zero
    ae38:	8ee24e30 	lw	v0,20016(s7)
    ae3c:	24420001 	addiu	v0,v0,1
    ae40:	aee24e30 	sw	v0,20016(s7)
    ae44:	8ee24e30 	lw	v0,20016(s7)
    ae48:	000210c0 	sll	v0,v0,0x3
    ae4c:	24425038 	addiu	v0,v0,20536
    ae50:	02e22021 	addu	a0,s7,v0
    ae54:	08003bc6 	j	0xef18
    ae58:	24020012 	li	v0,18
    ae5c:	8ee24e30 	lw	v0,20016(s7)
    ae60:	000210c0 	sll	v0,v0,0x3
    ae64:	24425038 	addiu	v0,v0,20536
    ae68:	02e22021 	addu	a0,s7,v0
    ae6c:	8c830000 	lw	v1,0(a0)
    ae70:	24020007 	li	v0,7
    ae74:	1462001f 	bne	v1,v0,0xaef4
    ae78:	00000000 	nop
    ae7c:	8ee34e30 	lw	v1,20016(s7)
    ae80:	8ee24e34 	lw	v0,20020(s7)
    ae84:	1062001b 	beq	v1,v0,0xaef4
    ae88:	00000000 	nop
    ae8c:	8c820004 	lw	v0,4(a0)
    ae90:	24420001 	addiu	v0,v0,1
    ae94:	ac820004 	sw	v0,4(a0)
    ae98:	8ee24e34 	lw	v0,20020(s7)
    ae9c:	8ee34e30 	lw	v1,20016(s7)
    aea0:	24420001 	addiu	v0,v0,1
    aea4:	105e0007 	beq	v0,s8,0xaec4
    aea8:	00000000 	nop
    aeac:	8ee24e34 	lw	v0,20020(s7)
    aeb0:	24420001 	addiu	v0,v0,1
    aeb4:	10620005 	beq	v1,v0,0xaecc
    aeb8:	00000000 	nop
    aebc:	08003bb4 	j	0xeed0
    aec0:	00000000 	nop
    aec4:	14600005 	bnez	v1,0xaedc
    aec8:	00000000 	nop
    aecc:	8f820128 	lw	v0,296(gp)
    aed0:	24420020 	addiu	v0,v0,32
    aed4:	af820128 	sw	v0,296(gp)
    aed8:	8f820128 	lw	v0,296(gp)
    aedc:	8c820004 	lw	v0,4(a0)
    aee0:	2c420011 	sltiu	v0,v0,17
    aee4:	50400012 	beqzl	v0,0xaf30
    aee8:	ac800000 	sw	zero,0(a0)
    aeec:	08003bc9 	j	0xef24
    aef0:	00000000 	nop
    aef4:	8ee24e30 	lw	v0,20016(s7)
    aef8:	24420001 	addiu	v0,v0,1
    aefc:	505e0003 	beql	v0,s8,0xaf0c
    af00:	00001021 	move	v0,zero
    af04:	8ee24e30 	lw	v0,20016(s7)
    af08:	24420001 	addiu	v0,v0,1
    af0c:	aee24e30 	sw	v0,20016(s7)
    af10:	8ee24e30 	lw	v0,20016(s7)
    af14:	000210c0 	sll	v0,v0,0x3
    af18:	24425038 	addiu	v0,v0,20536
    af1c:	02e22021 	addu	a0,s7,v0
    af20:	24020007 	li	v0,7
    af24:	ac820000 	sw	v0,0(a0)
    af28:	24020001 	li	v0,1
    af2c:	ac820004 	sw	v0,4(a0)
    af30:	14e00019 	bnez	a3,0xaf98
    af34:	3c050006 	lui	a1,0x6
    af38:	3c040001 	lui	a0,0x1
    af3c:	24845890 	addiu	a0,a0,22672
    af40:	8e220018 	lw	v0,24(s1)
    af44:	34a5f209 	ori	a1,a1,0xf209
    af48:	afa20010 	sw	v0,16(sp)
    af4c:	8e220000 	lw	v0,0(s1)
    af50:	8e230004 	lw	v1,4(s1)
    af54:	02203021 	move	a2,s1
    af58:	01603821 	move	a3,t3
    af5c:	0c002403 	jal	0x900c
    af60:	afa30014 	sw	v1,20(sp)
    af64:	93a2002f 	lbu	v0,47(sp)
    af68:	1040002a 	beqz	v0,0xb014
    af6c:	34028100 	li	v0,0x8100
    af70:	8e430004 	lw	v1,4(s2)
    af74:	8e440008 	lw	a0,8(s2)
    af78:	8e45000c 	lw	a1,12(s2)
    af7c:	a642000c 	sh	v0,12(s2)
    af80:	ae430000 	sw	v1,0(s2)
    af84:	ae440004 	sw	a0,4(s2)
    af88:	ae450008 	sw	a1,8(s2)
    af8c:	96220016 	lhu	v0,22(s1)
    af90:	08003c02 	j	0xf008
    af94:	a642000e 	sh	v0,14(s2)
    af98:	1599000a 	bne	t4,t9,0xafc4
    af9c:	026a1823 	subu	v1,s3,t2
    afa0:	9622000e 	lhu	v0,14(s1)
    afa4:	a623000a 	sh	v1,10(s1)
    afa8:	34420004 	ori	v0,v0,0x4
    afac:	a622000e 	sh	v0,14(s1)
    afb0:	3c010001 	lui	at,0x1
    afb4:	00370821 	addu	at,at,s7
    afb8:	a02083c0 	sb	zero,-31808(at)
    afbc:	08003bff 	j	0xeffc
    afc0:	00009821 	move	s3,zero
    afc4:	9624000a 	lhu	a0,10(s1)
    afc8:	0083102b 	sltu	v0,a0,v1
    afcc:	54400001 	bnezl	v0,0xafd4
    afd0:	00801821 	move	v1,a0
    afd4:	24020001 	li	v0,1
    afd8:	a623000a 	sh	v1,10(s1)
    afdc:	3c010001 	lui	at,0x1
    afe0:	00370821 	addu	at,at,s7
    afe4:	a02283c0 	sb	v0,-31808(at)
    afe8:	9622000a 	lhu	v0,10(s1)
    afec:	004a1821 	addu	v1,v0,t2
    aff0:	02038021 	addu	s0,s0,v1
    aff4:	01d0102b 	sltu	v0,t6,s0
    aff8:	54400001 	bnezl	v0,0xb000
    affc:	020f8021 	addu	s0,s0,t7
    b000:	02639823 	subu	s3,s3,v1
    b004:	0000b021 	move	s6,zero
    b008:	8fb80024 	lw	t8,36(sp)
    b00c:	1660fe5e 	bnez	s3,0xa988
    b010:	af0d0000 	sw	t5,0(t8)
    b014:	12600022 	beqz	s3,0xb0a0
    b018:	00000000 	nop
    b01c:	3c010001 	lui	at,0x1
    b020:	00370821 	addu	at,at,s7
    b024:	ac3383c4 	sw	s3,-31804(at)
    b028:	3c010001 	lui	at,0x1
    b02c:	00370821 	addu	at,at,s7
    b030:	ac3083c8 	sw	s0,-31800(at)
    b034:	3c010001 	lui	at,0x1
    b038:	00370821 	addu	at,at,s7
    b03c:	ac3283cc 	sw	s2,-31796(at)
    b040:	93a2002f 	lbu	v0,47(sp)
    b044:	10400008 	beqz	v0,0xb068
    b048:	00000000 	nop
    b04c:	3c020001 	lui	v0,0x1
    b050:	00571021 	addu	v0,v0,s7
    b054:	8c4283cc 	lw	v0,-31796(v0)
    b058:	24420004 	addiu	v0,v0,4
    b05c:	3c010001 	lui	at,0x1
    b060:	00370821 	addu	at,at,s7
    b064:	ac2283cc 	sw	v0,-31796(at)
    b068:	8f430280 	lw	v1,640(k0)
    b06c:	8ee2724c 	lw	v0,29260(s7)
    b070:	14620006 	bne	v1,v0,0xb08c
    b074:	00000000 	nop
    b078:	8ee201c4 	lw	v0,452(s7)
    b07c:	24420001 	addiu	v0,v0,1
    b080:	aee201c4 	sw	v0,452(s7)
    b084:	08003c5b 	j	0xf16c
    b088:	8ee201c4 	lw	v0,452(s7)
    b08c:	8ee201bc 	lw	v0,444(s7)
    b090:	24420001 	addiu	v0,v0,1
    b094:	aee201bc 	sw	v0,444(s7)
    b098:	08003c5b 	j	0xf16c
    b09c:	8ee201bc 	lw	v0,444(s7)
    b0a0:	97a4001e 	lhu	a0,30(sp)
    b0a4:	2484fffc 	addiu	a0,a0,-4
    b0a8:	00801821 	move	v1,a0
    b0ac:	8ee400c0 	lw	a0,192(s7)
    b0b0:	8ee500c4 	lw	a1,196(s7)
    b0b4:	00001021 	move	v0,zero
    b0b8:	00a32821 	addu	a1,a1,v1
    b0bc:	00a3302b 	sltu	a2,a1,v1
    b0c0:	00822021 	addu	a0,a0,v0
    b0c4:	00862021 	addu	a0,a0,a2
    b0c8:	24020002 	li	v0,2
    b0cc:	aee400c0 	sw	a0,192(s7)
    b0d0:	aee500c4 	sw	a1,196(s7)
    b0d4:	12a2000f 	beq	s5,v0,0xb114
    b0d8:	2aa20003 	slti	v0,s5,3
    b0dc:	14400017 	bnez	v0,0xb13c
    b0e0:	24020003 	li	v0,3
    b0e4:	16a20015 	bne	s5,v0,0xb13c
    b0e8:	00000000 	nop
    b0ec:	8ee200d0 	lw	v0,208(s7)
    b0f0:	8ee300d4 	lw	v1,212(s7)
    b0f4:	24630001 	addiu	v1,v1,1
    b0f8:	2c640001 	sltiu	a0,v1,1
    b0fc:	00441021 	addu	v0,v0,a0
    b100:	aee200d0 	sw	v0,208(s7)
    b104:	aee300d4 	sw	v1,212(s7)
    b108:	8ee200d0 	lw	v0,208(s7)
    b10c:	08003c55 	j	0xf154
    b110:	8ee300d4 	lw	v1,212(s7)
    b114:	8ee200d8 	lw	v0,216(s7)
    b118:	8ee300dc 	lw	v1,220(s7)
    b11c:	24630001 	addiu	v1,v1,1
    b120:	2c640001 	sltiu	a0,v1,1
    b124:	00441021 	addu	v0,v0,a0
    b128:	aee200d8 	sw	v0,216(s7)
    b12c:	aee300dc 	sw	v1,220(s7)
    b130:	8ee200d8 	lw	v0,216(s7)
    b134:	08003c55 	j	0xf154
    b138:	8ee300dc 	lw	v1,220(s7)
    b13c:	8ee200c8 	lw	v0,200(s7)
    b140:	8ee300cc 	lw	v1,204(s7)
    b144:	24630001 	addiu	v1,v1,1
    b148:	2c640001 	sltiu	a0,v1,1
    b14c:	00441021 	addu	v0,v0,a0
    b150:	aee200c8 	sw	v0,200(s7)
    b154:	aee300cc 	sw	v1,204(s7)
    b158:	8ee200c8 	lw	v0,200(s7)
    b15c:	8ee300cc 	lw	v1,204(s7)
    b160:	8f8300e4 	lw	v1,228(gp)
    b164:	8f8200e0 	lw	v0,224(gp)
    b168:	10620003 	beq	v1,v0,0xb178
    b16c:	24630008 	addiu	v1,v1,8
    b170:	af8300e4 	sw	v1,228(gp)
    b174:	af8300e8 	sw	v1,232(gp)
    b178:	8fbf0068 	lw	ra,104(sp)
    b17c:	8fbe0064 	lw	s8,100(sp)
    b180:	8fb60060 	lw	s6,96(sp)
    b184:	8fb5005c 	lw	s5,92(sp)
    b188:	8fb40058 	lw	s4,88(sp)
    b18c:	8fb30054 	lw	s3,84(sp)
    b190:	8fb20050 	lw	s2,80(sp)
    b194:	8fb1004c 	lw	s1,76(sp)
    b198:	8fb00048 	lw	s0,72(sp)
    b19c:	03e00008 	jr	ra
    b1a0:	27bd0070 	addiu	sp,sp,112
    b1a4:	27bdffe0 	addiu	sp,sp,-32
    b1a8:	afbf0018 	sw	ra,24(sp)
    b1ac:	8ee30e14 	lw	v1,3604(s7)
    b1b0:	8ee20e0c 	lw	v0,3596(s7)
    b1b4:	10620074 	beq	v1,v0,0xb388
    b1b8:	00000000 	nop
    b1bc:	8ee30e0c 	lw	v1,3596(s7)
    b1c0:	8ee20e14 	lw	v0,3604(s7)
    b1c4:	00622023 	subu	a0,v1,v0
    b1c8:	04820001 	bltzl	a0,0xb1d0
    b1cc:	24840200 	addiu	a0,a0,512
    b1d0:	8ee30e18 	lw	v1,3608(s7)
    b1d4:	8ee20e14 	lw	v0,3604(s7)
    b1d8:	0043102b 	sltu	v0,v0,v1
    b1dc:	14400004 	bnez	v0,0xb1f0
    b1e0:	24020200 	li	v0,512
    b1e4:	8ee30e14 	lw	v1,3604(s7)
    b1e8:	08003c7d 	j	0xf1f4
    b1ec:	00431823 	subu	v1,v0,v1
    b1f0:	8ee20e18 	lw	v0,3608(s7)
    b1f4:	8ee30e14 	lw	v1,3604(s7)
    b1f8:	00431023 	subu	v0,v0,v1
    b1fc:	2443ffff 	addiu	v1,v0,-1
    b200:	00804821 	move	t1,a0
    b204:	0069102a 	slt	v0,v1,t1
    b208:	54400001 	bnezl	v0,0xb210
    b20c:	00604821 	move	t1,v1
    b210:	8f870100 	lw	a3,256(gp)
    b214:	27623000 	addiu	v0,k1,12288
    b218:	24e80020 	addiu	t0,a3,32
    b21c:	0102102b 	sltu	v0,t0,v0
    b220:	50400001 	beqzl	v0,0xb228
    b224:	27682800 	addiu	t0,k1,10240
    b228:	8f820108 	lw	v0,264(gp)
    b22c:	11020004 	beq	t0,v0,0xb240
    b230:	00000000 	nop
    b234:	8f820104 	lw	v0,260(gp)
    b238:	15020007 	bne	t0,v0,0xb258
    b23c:	00001021 	move	v0,zero
    b240:	8ee201a8 	lw	v0,424(s7)
    b244:	00002021 	move	a0,zero
    b248:	24420001 	addiu	v0,v0,1
    b24c:	aee201a8 	sw	v0,424(s7)
    b250:	08003cbf 	j	0xf2fc
    b254:	8ee201a8 	lw	v0,424(s7)
    b258:	8ee40e14 	lw	a0,3604(s7)
    b25c:	00042140 	sll	a0,a0,0x5
    b260:	00801821 	move	v1,a0
    b264:	8ee40460 	lw	a0,1120(s7)
    b268:	8ee50464 	lw	a1,1124(s7)
    b26c:	00a32821 	addu	a1,a1,v1
    b270:	00a3302b 	sltu	a2,a1,v1
    b274:	00822021 	addu	a0,a0,v0
    b278:	00862021 	addu	a0,a0,a2
    b27c:	ace40000 	sw	a0,0(a3)
    b280:	ace50004 	sw	a1,4(a3)
    b284:	8ee30e14 	lw	v1,3604(s7)
    b288:	00091140 	sll	v0,t1,0x5
    b28c:	a4e2000e 	sh	v0,14(a3)
    b290:	24020002 	li	v0,2
    b294:	ace20018 	sw	v0,24(a3)
    b298:	00031940 	sll	v1,v1,0x5
    b29c:	24630e20 	addiu	v1,v1,3616
    b2a0:	02e31021 	addu	v0,s7,v1
    b2a4:	ace20008 	sw	v0,8(a3)
    b2a8:	8ee20e14 	lw	v0,3604(s7)
    b2ac:	ace2001c 	sw	v0,28(a3)
    b2b0:	8ee204cc 	lw	v0,1228(s7)
    b2b4:	ace20010 	sw	v0,16(a3)
    b2b8:	af880100 	sw	t0,256(gp)
    b2bc:	92e204ec 	lbu	v0,1260(s7)
    b2c0:	14400011 	bnez	v0,0xb308
    b2c4:	24040001 	li	a0,1
    b2c8:	8ee24e28 	lw	v0,20008(s7)
    b2cc:	24030040 	li	v1,64
    b2d0:	24420001 	addiu	v0,v0,1
    b2d4:	50430003 	beql	v0,v1,0xb2e4
    b2d8:	00001021 	move	v0,zero
    b2dc:	8ee24e28 	lw	v0,20008(s7)
    b2e0:	24420001 	addiu	v0,v0,1
    b2e4:	aee24e28 	sw	v0,20008(s7)
    b2e8:	8ee24e28 	lw	v0,20008(s7)
    b2ec:	000210c0 	sll	v0,v0,0x3
    b2f0:	24424e38 	addiu	v0,v0,20024
    b2f4:	02e21821 	addu	v1,s7,v0
    b2f8:	24020002 	li	v0,2
    b2fc:	ac620000 	sw	v0,0(v1)
    b300:	24020001 	li	v0,1
    b304:	ac620004 	sw	v0,4(v1)
    b308:	1480000e 	bnez	a0,0xb344
    b30c:	24030040 	li	v1,64
    b310:	8ee20e14 	lw	v0,3604(s7)
    b314:	afa20010 	sw	v0,16(sp)
    b318:	8ee20e18 	lw	v0,3608(s7)
    b31c:	3c050007 	lui	a1,0x7
    b320:	afa20014 	sw	v0,20(sp)
    b324:	8ee60e0c 	lw	a2,3596(s7)
    b328:	8ee70e10 	lw	a3,3600(s7)
    b32c:	3c040001 	lui	a0,0x1
    b330:	248458d4 	addiu	a0,a0,22740
    b334:	0c002403 	jal	0x900c
    b338:	34a5f001 	ori	a1,a1,0xf001
    b33c:	08003cdd 	j	0xf374
    b340:	00000000 	nop
    b344:	8ee20500 	lw	v0,1280(s7)
    b348:	24420001 	addiu	v0,v0,1
    b34c:	50430003 	beql	v0,v1,0xb35c
    b350:	00001021 	move	v0,zero
    b354:	8ee20500 	lw	v0,1280(s7)
    b358:	24420001 	addiu	v0,v0,1
    b35c:	aee20500 	sw	v0,1280(s7)
    b360:	8ee20500 	lw	v0,1280(s7)
    b364:	00021080 	sll	v0,v0,0x2
    b368:	00571021 	addu	v0,v0,s7
    b36c:	ac490508 	sw	t1,1288(v0)
    b370:	8ee20e14 	lw	v0,3604(s7)
    b374:	00491021 	addu	v0,v0,t1
    b378:	304201ff 	andi	v0,v0,0x1ff
    b37c:	aee20e14 	sw	v0,3604(s7)
    b380:	8ee30e14 	lw	v1,3604(s7)
    b384:	8ee20e0c 	lw	v0,3596(s7)
    b388:	14620005 	bne	v1,v0,0xb3a0
    b38c:	00000000 	nop
    b390:	8f820060 	lw	v0,96(gp)
    b394:	2403fdff 	li	v1,-513
    b398:	00431024 	and	v0,v0,v1
    b39c:	af820060 	sw	v0,96(gp)
    b3a0:	8fbf0018 	lw	ra,24(sp)
    b3a4:	03e00008 	jr	ra
    b3a8:	27bd0020 	addiu	sp,sp,32
    b3ac:	27bdffe0 	addiu	sp,sp,-32
    b3b0:	afbf0018 	sw	ra,24(sp)
    b3b4:	8ee3523c 	lw	v1,21052(s7)
    b3b8:	8ee25238 	lw	v0,21048(s7)
    b3bc:	10620074 	beq	v1,v0,0xb590
    b3c0:	00000000 	nop
    b3c4:	8ee35238 	lw	v1,21048(s7)
    b3c8:	8ee2523c 	lw	v0,21052(s7)
    b3cc:	00622023 	subu	a0,v1,v0
    b3d0:	04820001 	bltzl	a0,0xb3d8
    b3d4:	24840100 	addiu	a0,a0,256
    b3d8:	8ee35244 	lw	v1,21060(s7)
    b3dc:	8ee2523c 	lw	v0,21052(s7)
    b3e0:	0043102b 	sltu	v0,v0,v1
    b3e4:	14400004 	bnez	v0,0xb3f8
    b3e8:	24020100 	li	v0,256
    b3ec:	8ee3523c 	lw	v1,21052(s7)
    b3f0:	08003cff 	j	0xf3fc
    b3f4:	00431823 	subu	v1,v0,v1
    b3f8:	8ee25244 	lw	v0,21060(s7)
    b3fc:	8ee3523c 	lw	v1,21052(s7)
    b400:	00431023 	subu	v0,v0,v1
    b404:	2443ffff 	addiu	v1,v0,-1
    b408:	00804821 	move	t1,a0
    b40c:	0069102a 	slt	v0,v1,t1
    b410:	54400001 	bnezl	v0,0xb418
    b414:	00604821 	move	t1,v1
    b418:	8f870100 	lw	a3,256(gp)
    b41c:	27623000 	addiu	v0,k1,12288
    b420:	24e80020 	addiu	t0,a3,32
    b424:	0102102b 	sltu	v0,t0,v0
    b428:	50400001 	beqzl	v0,0xb430
    b42c:	27682800 	addiu	t0,k1,10240
    b430:	8f820108 	lw	v0,264(gp)
    b434:	11020004 	beq	t0,v0,0xb448
    b438:	00000000 	nop
    b43c:	8f820104 	lw	v0,260(gp)
    b440:	15020007 	bne	t0,v0,0xb460
    b444:	00001021 	move	v0,zero
    b448:	8ee201a8 	lw	v0,424(s7)
    b44c:	00002021 	move	a0,zero
    b450:	24420001 	addiu	v0,v0,1
    b454:	aee201a8 	sw	v0,424(s7)
    b458:	08003d41 	j	0xf504
    b45c:	8ee201a8 	lw	v0,424(s7)
    b460:	8ee4523c 	lw	a0,21052(s7)
    b464:	00042140 	sll	a0,a0,0x5
    b468:	00801821 	move	v1,a0
    b46c:	8ee40470 	lw	a0,1136(s7)
    b470:	8ee50474 	lw	a1,1140(s7)
    b474:	00a32821 	addu	a1,a1,v1
    b478:	00a3302b 	sltu	a2,a1,v1
    b47c:	00822021 	addu	a0,a0,v0
    b480:	00862021 	addu	a0,a0,a2
    b484:	ace40000 	sw	a0,0(a3)
    b488:	ace50004 	sw	a1,4(a3)
    b48c:	8ee3523c 	lw	v1,21052(s7)
    b490:	00091140 	sll	v0,t1,0x5
    b494:	a4e2000e 	sh	v0,14(a3)
    b498:	24020003 	li	v0,3
    b49c:	ace20018 	sw	v0,24(a3)
    b4a0:	00031940 	sll	v1,v1,0x5
    b4a4:	24635248 	addiu	v1,v1,21064
    b4a8:	02e31021 	addu	v0,s7,v1
    b4ac:	ace20008 	sw	v0,8(a3)
    b4b0:	8ee2523c 	lw	v0,21052(s7)
    b4b4:	ace2001c 	sw	v0,28(a3)
    b4b8:	8ee204cc 	lw	v0,1228(s7)
    b4bc:	ace20010 	sw	v0,16(a3)
    b4c0:	af880100 	sw	t0,256(gp)
    b4c4:	92e204ec 	lbu	v0,1260(s7)
    b4c8:	14400011 	bnez	v0,0xb510
    b4cc:	24040001 	li	a0,1
    b4d0:	8ee24e28 	lw	v0,20008(s7)
    b4d4:	24030040 	li	v1,64
    b4d8:	24420001 	addiu	v0,v0,1
    b4dc:	50430003 	beql	v0,v1,0xb4ec
    b4e0:	00001021 	move	v0,zero
    b4e4:	8ee24e28 	lw	v0,20008(s7)
    b4e8:	24420001 	addiu	v0,v0,1
    b4ec:	aee24e28 	sw	v0,20008(s7)
    b4f0:	8ee24e28 	lw	v0,20008(s7)
    b4f4:	000210c0 	sll	v0,v0,0x3
    b4f8:	24424e38 	addiu	v0,v0,20024
    b4fc:	02e21821 	addu	v1,s7,v0
    b500:	24020003 	li	v0,3
    b504:	ac620000 	sw	v0,0(v1)
    b508:	24020001 	li	v0,1
    b50c:	ac620004 	sw	v0,4(v1)
    b510:	1480000e 	bnez	a0,0xb54c
    b514:	24030040 	li	v1,64
    b518:	8ee2523c 	lw	v0,21052(s7)
    b51c:	afa20010 	sw	v0,16(sp)
    b520:	8ee25244 	lw	v0,21060(s7)
    b524:	3c050007 	lui	a1,0x7
    b528:	afa20014 	sw	v0,20(sp)
    b52c:	8ee65238 	lw	a2,21048(s7)
    b530:	8ee75240 	lw	a3,21056(s7)
    b534:	3c040001 	lui	a0,0x1
    b538:	248458e0 	addiu	a0,a0,22752
    b53c:	0c002403 	jal	0x900c
    b540:	34a5f010 	ori	a1,a1,0xf010
    b544:	08003d5f 	j	0xf57c
    b548:	00000000 	nop
    b54c:	8ee20500 	lw	v0,1280(s7)
    b550:	24420001 	addiu	v0,v0,1
    b554:	50430003 	beql	v0,v1,0xb564
    b558:	00001021 	move	v0,zero
    b55c:	8ee20500 	lw	v0,1280(s7)
    b560:	24420001 	addiu	v0,v0,1
    b564:	aee20500 	sw	v0,1280(s7)
    b568:	8ee20500 	lw	v0,1280(s7)
    b56c:	00021080 	sll	v0,v0,0x2
    b570:	00571021 	addu	v0,v0,s7
    b574:	ac490508 	sw	t1,1288(v0)
    b578:	8ee2523c 	lw	v0,21052(s7)
    b57c:	00491021 	addu	v0,v0,t1
    b580:	304200ff 	andi	v0,v0,0xff
    b584:	aee2523c 	sw	v0,21052(s7)
    b588:	8ee3523c 	lw	v1,21052(s7)
    b58c:	8ee25238 	lw	v0,21048(s7)
    b590:	14620005 	bne	v1,v0,0xb5a8
    b594:	00000000 	nop
    b598:	8f820060 	lw	v0,96(gp)
    b59c:	2403feff 	li	v1,-257
    b5a0:	00431024 	and	v0,v0,v1
    b5a4:	af820060 	sw	v0,96(gp)
    b5a8:	8fbf0018 	lw	ra,24(sp)
    b5ac:	03e00008 	jr	ra
    b5b0:	27bd0020 	addiu	sp,sp,32
    b5b4:	8f820120 	lw	v0,288(gp)
    b5b8:	8ee34e34 	lw	v1,20020(s7)
    b5bc:	8f820124 	lw	v0,292(gp)
    b5c0:	8f860128 	lw	a2,296(gp)
    b5c4:	24020040 	li	v0,64
    b5c8:	24630001 	addiu	v1,v1,1
    b5cc:	50620003 	beql	v1,v0,0xb5dc
    b5d0:	00001021 	move	v0,zero
    b5d4:	8ee24e34 	lw	v0,20020(s7)
    b5d8:	24420001 	addiu	v0,v0,1
    b5dc:	aee24e34 	sw	v0,20020(s7)
    b5e0:	8ee24e34 	lw	v0,20020(s7)
    b5e4:	8ee44e34 	lw	a0,20020(s7)
    b5e8:	8ee34e30 	lw	v1,20016(s7)
    b5ec:	000210c0 	sll	v0,v0,0x3
    b5f0:	24425038 	addiu	v0,v0,20536
    b5f4:	14830007 	bne	a0,v1,0xb614
    b5f8:	02e22821 	addu	a1,s7,v0
    b5fc:	8f820128 	lw	v0,296(gp)
    b600:	24420020 	addiu	v0,v0,32
    b604:	af820128 	sw	v0,296(gp)
    b608:	8f820128 	lw	v0,296(gp)
    b60c:	08003d92 	j	0xf648
    b610:	aca00000 	sw	zero,0(a1)
    b614:	8ee24e34 	lw	v0,20020(s7)
    b618:	24030040 	li	v1,64
    b61c:	24420001 	addiu	v0,v0,1
    b620:	50430003 	beql	v0,v1,0xb630
    b624:	00001021 	move	v0,zero
    b628:	8ee24e34 	lw	v0,20020(s7)
    b62c:	24420001 	addiu	v0,v0,1
    b630:	000210c0 	sll	v0,v0,0x3
    b634:	24425038 	addiu	v0,v0,20536
    b638:	02e22821 	addu	a1,s7,v0
    b63c:	8ca20004 	lw	v0,4(a1)
    b640:	8f830128 	lw	v1,296(gp)
    b644:	00021140 	sll	v0,v0,0x5
    b648:	00621821 	addu	v1,v1,v0
    b64c:	af830128 	sw	v1,296(gp)
    b650:	aca00000 	sw	zero,0(a1)
    b654:	8cc20018 	lw	v0,24(a2)
    b658:	2443fffe 	addiu	v1,v0,-2
    b65c:	2c620012 	sltiu	v0,v1,18
    b660:	10400008 	beqz	v0,0xb684
    b664:	00031080 	sll	v0,v1,0x2
    b668:	3c010001 	lui	at,0x1
    b66c:	00220821 	addu	at,at,v0
    b670:	8c2258f0 	lw	v0,22768(at)
    b674:	00400008 	jr	v0
    b678:	00000000 	nop
    b67c:	24020001 	li	v0,1
    b680:	aee24e24 	sw	v0,20004(s7)
    b684:	03e00008 	jr	ra
    b688:	00000000 	nop
    b68c:	27bdffc8 	addiu	sp,sp,-56
    b690:	afbf0030 	sw	ra,48(sp)
    b694:	afb5002c 	sw	s5,44(sp)
    b698:	afb40028 	sw	s4,40(sp)
    b69c:	afb30024 	sw	s3,36(sp)
    b6a0:	afb20020 	sw	s2,32(sp)
    b6a4:	afb1001c 	sw	s1,28(sp)
    b6a8:	afb00018 	sw	s0,24(sp)
    b6ac:	8f830128 	lw	v1,296(gp)
    b6b0:	8f820124 	lw	v0,292(gp)
    b6b4:	106202b0 	beq	v1,v0,0xc178
    b6b8:	00009821 	move	s3,zero
    b6bc:	3c11001f 	lui	s1,0x1f
    b6c0:	3631ffff 	ori	s1,s1,0xffff
    b6c4:	3c12fff5 	lui	s2,0xfff5
    b6c8:	36521000 	ori	s2,s2,0x1000
    b6cc:	24150012 	li	s5,18
    b6d0:	24140040 	li	s4,64
    b6d4:	8f8c0128 	lw	t4,296(gp)
    b6d8:	8f820128 	lw	v0,296(gp)
    b6dc:	24420020 	addiu	v0,v0,32
    b6e0:	af820128 	sw	v0,296(gp)
    b6e4:	9182001b 	lbu	v0,27(t4)
    b6e8:	8f830128 	lw	v1,296(gp)
    b6ec:	2443fffe 	addiu	v1,v0,-2
    b6f0:	2c620012 	sltiu	v0,v1,18
    b6f4:	1040029c 	beqz	v0,0xc168
    b6f8:	00031080 	sll	v0,v1,0x2
    b6fc:	3c010001 	lui	at,0x1
    b700:	00220821 	addu	at,at,v0
    b704:	8c225948 	lw	v0,22856(at)
    b708:	00400008 	jr	v0
    b70c:	00000000 	nop
    b710:	8f420218 	lw	v0,536(k0)
    b714:	30420100 	andi	v0,v0,0x100
    b718:	10400007 	beqz	v0,0xb738
    b71c:	00000000 	nop
    b720:	95830016 	lhu	v1,22(t4)
    b724:	95820018 	lhu	v0,24(t4)
    b728:	00621823 	subu	v1,v1,v0
    b72c:	00031402 	srl	v0,v1,0x10
    b730:	00431021 	addu	v0,v0,v1
    b734:	a5820016 	sh	v0,22(t4)
    b738:	8d82001c 	lw	v0,28(t4)
    b73c:	3c038000 	lui	v1,0x8000
    b740:	3044ffff 	andi	a0,v0,0xffff
    b744:	00436824 	and	t5,v0,v1
    b748:	3c030800 	lui	v1,0x800
    b74c:	00431824 	and	v1,v0,v1
    b750:	11a00004 	beqz	t5,0xb764
    b754:	ad84001c 	sw	a0,28(t4)
    b758:	00041140 	sll	v0,a0,0x5
    b75c:	08003dd8 	j	0xf760
    b760:	24425248 	addiu	v0,v0,21064
    b764:	00041140 	sll	v0,a0,0x5
    b768:	24420e20 	addiu	v0,v0,3616
    b76c:	02e25821 	addu	t3,s7,v0
    b770:	9562000e 	lhu	v0,14(t3)
    b774:	3042fffc 	andi	v0,v0,0xfffc
    b778:	10600004 	beqz	v1,0xb78c
    b77c:	a562000e 	sh	v0,14(t3)
    b780:	95840016 	lhu	a0,22(t4)
    b784:	08003ec0 	j	0xfb00
    b788:	00000000 	nop
    b78c:	8d690018 	lw	t1,24(t3)
    b790:	00004021 	move	t0,zero
    b794:	952a0000 	lhu	t2,0(t1)
    b798:	25290002 	addiu	t1,t1,2
    b79c:	95270000 	lhu	a3,0(t1)
    b7a0:	25290002 	addiu	t1,t1,2
    b7a4:	95260000 	lhu	a2,0(t1)
    b7a8:	25290002 	addiu	t1,t1,2
    b7ac:	95250000 	lhu	a1,0(t1)
    b7b0:	25290002 	addiu	t1,t1,2
    b7b4:	95240000 	lhu	a0,0(t1)
    b7b8:	25290002 	addiu	t1,t1,2
    b7bc:	95230000 	lhu	v1,0(t1)
    b7c0:	25290002 	addiu	t1,t1,2
    b7c4:	95220000 	lhu	v0,0(t1)
    b7c8:	25290002 	addiu	t1,t1,2
    b7cc:	01475021 	addu	t2,t2,a3
    b7d0:	01465021 	addu	t2,t2,a2
    b7d4:	01455021 	addu	t2,t2,a1
    b7d8:	01445021 	addu	t2,t2,a0
    b7dc:	01435021 	addu	t2,t2,v1
    b7e0:	01425021 	addu	t2,t2,v0
    b7e4:	000a1c02 	srl	v1,t2,0x10
    b7e8:	3142ffff 	andi	v0,t2,0xffff
    b7ec:	00625021 	addu	t2,v1,v0
    b7f0:	000a1c02 	srl	v1,t2,0x10
    b7f4:	3142ffff 	andi	v0,t2,0xffff
    b7f8:	00625021 	addu	t2,v1,v0
    b7fc:	96e2046a 	lhu	v0,1130(s7)
    b800:	314effff 	andi	t6,t2,0xffff
    b804:	30420002 	andi	v0,v0,0x2
    b808:	10400044 	beqz	v0,0xb91c
    b80c:	00005021 	move	t2,zero
    b810:	25220014 	addiu	v0,t1,20
    b814:	0222102b 	sltu	v0,s1,v0
    b818:	10400014 	beqz	v0,0xb86c
    b81c:	01201821 	move	v1,t1
    b820:	2405000a 	li	a1,10
    b824:	00002021 	move	a0,zero
    b828:	0223102b 	sltu	v0,s1,v1
    b82c:	54400001 	bnezl	v0,0xb834
    b830:	00721821 	addu	v1,v1,s2
    b834:	94620000 	lhu	v0,0(v1)
    b838:	24630002 	addiu	v1,v1,2
    b83c:	24a5ffff 	addiu	a1,a1,-1
    b840:	14a0fff9 	bnez	a1,0xb828
    b844:	00822021 	addu	a0,a0,v0
    b848:	00041c02 	srl	v1,a0,0x10
    b84c:	3082ffff 	andi	v0,a0,0xffff
    b850:	00622021 	addu	a0,v1,v0
    b854:	00041402 	srl	v0,a0,0x10
    b858:	3083ffff 	andi	v1,a0,0xffff
    b85c:	00431021 	addu	v0,v0,v1
    b860:	3042ffff 	andi	v0,v0,0xffff
    b864:	08003e33 	j	0xf8cc
    b868:	01425021 	addu	t2,t2,v0
    b86c:	952a0000 	lhu	t2,0(t1)
    b870:	25290002 	addiu	t1,t1,2
    b874:	95280000 	lhu	t0,0(t1)
    b878:	25290002 	addiu	t1,t1,2
    b87c:	95270000 	lhu	a3,0(t1)
    b880:	25290002 	addiu	t1,t1,2
    b884:	95260000 	lhu	a2,0(t1)
    b888:	25290002 	addiu	t1,t1,2
    b88c:	95250000 	lhu	a1,0(t1)
    b890:	25290002 	addiu	t1,t1,2
    b894:	95230000 	lhu	v1,0(t1)
    b898:	25290002 	addiu	t1,t1,2
    b89c:	95220000 	lhu	v0,0(t1)
    b8a0:	25290002 	addiu	t1,t1,2
    b8a4:	95240000 	lhu	a0,0(t1)
    b8a8:	25290002 	addiu	t1,t1,2
    b8ac:	01485021 	addu	t2,t2,t0
    b8b0:	01475021 	addu	t2,t2,a3
    b8b4:	01465021 	addu	t2,t2,a2
    b8b8:	01455021 	addu	t2,t2,a1
    b8bc:	01435021 	addu	t2,t2,v1
    b8c0:	01425021 	addu	t2,t2,v0
    b8c4:	95220000 	lhu	v0,0(t1)
    b8c8:	95230002 	lhu	v1,2(t1)
    b8cc:	01445021 	addu	t2,t2,a0
    b8d0:	01425021 	addu	t2,t2,v0
    b8d4:	01435021 	addu	t2,t2,v1
    b8d8:	000a1c02 	srl	v1,t2,0x10
    b8dc:	3142ffff 	andi	v0,t2,0xffff
    b8e0:	00625021 	addu	t2,v1,v0
    b8e4:	000a1c02 	srl	v1,t2,0x10
    b8e8:	3142ffff 	andi	v0,t2,0xffff
    b8ec:	00625021 	addu	t2,v1,v0
    b8f0:	3148ffff 	andi	t0,t2,0xffff
    b8f4:	51000001 	beqzl	t0,0xb8fc
    b8f8:	3408ffff 	li	t0,0xffff
    b8fc:	8d620018 	lw	v0,24(t3)
    b900:	9443000c 	lhu	v1,12(v0)
    b904:	24020800 	li	v0,2048
    b908:	54620005 	bnel	v1,v0,0xb920
    b90c:	a5680010 	sh	t0,16(t3)
    b910:	9562000e 	lhu	v0,14(t3)
    b914:	34420002 	ori	v0,v0,0x2
    b918:	a562000e 	sh	v0,14(t3)
    b91c:	a5680010 	sh	t0,16(t3)
    b920:	96e2046a 	lhu	v0,1130(s7)
    b924:	00002821 	move	a1,zero
    b928:	30420008 	andi	v0,v0,0x8
    b92c:	14400056 	bnez	v0,0xba88
    b930:	00003021 	move	a2,zero
    b934:	8d630018 	lw	v1,24(t3)
    b938:	24620024 	addiu	v0,v1,36
    b93c:	0222102b 	sltu	v0,s1,v0
    b940:	10400034 	beqz	v0,0xba14
    b944:	24690010 	addiu	t1,v1,16
    b948:	0229102b 	sltu	v0,s1,t1
    b94c:	54400001 	bnezl	v0,0xb954
    b950:	01324821 	addu	t1,t1,s2
    b954:	95250000 	lhu	a1,0(t1)
    b958:	24690014 	addiu	t1,v1,20
    b95c:	0229102b 	sltu	v0,s1,t1
    b960:	10400002 	beqz	v0,0xb96c
    b964:	24a5ffec 	addiu	a1,a1,-20
    b968:	01324821 	addu	t1,t1,s2
    b96c:	95220000 	lhu	v0,0(t1)
    b970:	30420fff 	andi	v0,v0,0xfff
    b974:	14400003 	bnez	v0,0xb984
    b978:	25290002 	addiu	t1,t1,2
    b97c:	08003e60 	j	0xf980
    b980:	24130001 	li	s3,1
    b984:	00009821 	move	s3,zero
    b988:	00a03021 	move	a2,a1
    b98c:	0229102b 	sltu	v0,s1,t1
    b990:	54400001 	bnezl	v0,0xb998
    b994:	01324821 	addu	t1,t1,s2
    b998:	91220001 	lbu	v0,1(t1)
    b99c:	25290002 	addiu	t1,t1,2
    b9a0:	00a22821 	addu	a1,a1,v0
    b9a4:	0229102b 	sltu	v0,s1,t1
    b9a8:	54400001 	bnezl	v0,0xb9b0
    b9ac:	01324821 	addu	t1,t1,s2
    b9b0:	25290002 	addiu	t1,t1,2
    b9b4:	0229102b 	sltu	v0,s1,t1
    b9b8:	54400001 	bnezl	v0,0xb9c0
    b9bc:	01324821 	addu	t1,t1,s2
    b9c0:	95220000 	lhu	v0,0(t1)
    b9c4:	25290002 	addiu	t1,t1,2
    b9c8:	00a22821 	addu	a1,a1,v0
    b9cc:	0229102b 	sltu	v0,s1,t1
    b9d0:	54400001 	bnezl	v0,0xb9d8
    b9d4:	01324821 	addu	t1,t1,s2
    b9d8:	95220000 	lhu	v0,0(t1)
    b9dc:	25290002 	addiu	t1,t1,2
    b9e0:	00a22821 	addu	a1,a1,v0
    b9e4:	0229102b 	sltu	v0,s1,t1
    b9e8:	54400001 	bnezl	v0,0xb9f0
    b9ec:	01324821 	addu	t1,t1,s2
    b9f0:	95220000 	lhu	v0,0(t1)
    b9f4:	25290002 	addiu	t1,t1,2
    b9f8:	00a22821 	addu	a1,a1,v0
    b9fc:	0229102b 	sltu	v0,s1,t1
    ba00:	54400001 	bnezl	v0,0xba08
    ba04:	01324821 	addu	t1,t1,s2
    ba08:	95220000 	lhu	v0,0(t1)
    ba0c:	08003e99 	j	0xfa64
    ba10:	00a22821 	addu	a1,a1,v0
    ba14:	94650010 	lhu	a1,16(v1)
    ba18:	94620014 	lhu	v0,20(v1)
    ba1c:	24690016 	addiu	t1,v1,22
    ba20:	30420fff 	andi	v0,v0,0xfff
    ba24:	14400003 	bnez	v0,0xba34
    ba28:	24a5ffec 	addiu	a1,a1,-20
    ba2c:	08003e8c 	j	0xfa30
    ba30:	24130001 	li	s3,1
    ba34:	00009821 	move	s3,zero
    ba38:	00a03021 	move	a2,a1
    ba3c:	91230001 	lbu	v1,1(t1)
    ba40:	25290004 	addiu	t1,t1,4
    ba44:	95220000 	lhu	v0,0(t1)
    ba48:	25290002 	addiu	t1,t1,2
    ba4c:	95240000 	lhu	a0,0(t1)
    ba50:	25290002 	addiu	t1,t1,2
    ba54:	00a32821 	addu	a1,a1,v1
    ba58:	00a22821 	addu	a1,a1,v0
    ba5c:	95220000 	lhu	v0,0(t1)
    ba60:	95230002 	lhu	v1,2(t1)
    ba64:	00a42821 	addu	a1,a1,a0
    ba68:	00a22821 	addu	a1,a1,v0
    ba6c:	00a32821 	addu	a1,a1,v1
    ba70:	00051c02 	srl	v1,a1,0x10
    ba74:	30a2ffff 	andi	v0,a1,0xffff
    ba78:	00622821 	addu	a1,v1,v0
    ba7c:	00051c02 	srl	v1,a1,0x10
    ba80:	30a2ffff 	andi	v0,a1,0xffff
    ba84:	00622821 	addu	a1,v1,v0
    ba88:	96e2046a 	lhu	v0,1130(s7)
    ba8c:	30420001 	andi	v0,v0,0x1
    ba90:	1040001e 	beqz	v0,0xbb0c
    ba94:	00002021 	move	a0,zero
    ba98:	95820016 	lhu	v0,22(t4)
    ba9c:	004e2023 	subu	a0,v0,t6
    baa0:	00041402 	srl	v0,a0,0x10
    baa4:	00822021 	addu	a0,a0,v0
    baa8:	326200ff 	andi	v0,s3,0xff
    baac:	50400002 	beqzl	v0,0xbab8
    bab0:	00862021 	addu	a0,a0,a2
    bab4:	00852021 	addu	a0,a0,a1
    bab8:	00041402 	srl	v0,a0,0x10
    babc:	00822021 	addu	a0,a0,v0
    bac0:	3084ffff 	andi	a0,a0,0xffff
    bac4:	50800001 	beqzl	a0,0xbacc
    bac8:	3404ffff 	li	a0,0xffff
    bacc:	8d620018 	lw	v0,24(t3)
    bad0:	24430017 	addiu	v1,v0,23
    bad4:	0223102b 	sltu	v0,s1,v1
    bad8:	54400001 	bnezl	v0,0xbae0
    badc:	00721821 	addu	v1,v1,s2
    bae0:	90620000 	lbu	v0,0(v1)
    bae4:	38430011 	xori	v1,v0,0x11
    bae8:	2c630001 	sltiu	v1,v1,1
    baec:	38420006 	xori	v0,v0,0x6
    baf0:	2c420001 	sltiu	v0,v0,1
    baf4:	00621825 	or	v1,v1,v0
    baf8:	10600004 	beqz	v1,0xbb0c
    bafc:	00000000 	nop
    bb00:	9562000e 	lhu	v0,14(t3)
    bb04:	34420001 	ori	v0,v0,0x1
    bb08:	a562000e 	sh	v0,14(t3)
    bb0c:	9562000e 	lhu	v0,14(t3)
    bb10:	240a0002 	li	t2,2
    bb14:	30420004 	andi	v0,v0,0x4
    bb18:	10400002 	beqz	v0,0xbb24
    bb1c:	a5640012 	sh	a0,18(t3)
    bb20:	240a0004 	li	t2,4
    bb24:	8f880120 	lw	t0,288(gp)
    bb28:	27623800 	addiu	v0,k1,14336
    bb2c:	25090020 	addiu	t1,t0,32
    bb30:	0122102b 	sltu	v0,t1,v0
    bb34:	50400001 	beqzl	v0,0xbb3c
    bb38:	27693000 	addiu	t1,k1,12288
    bb3c:	8f820128 	lw	v0,296(gp)
    bb40:	11220004 	beq	t1,v0,0xbb54
    bb44:	00000000 	nop
    bb48:	8f820124 	lw	v0,292(gp)
    bb4c:	15220007 	bne	t1,v0,0xbb6c
    bb50:	24040020 	li	a0,32
    bb54:	8ee201a4 	lw	v0,420(s7)
    bb58:	00008021 	move	s0,zero
    bb5c:	24420001 	addiu	v0,v0,1
    bb60:	aee201a4 	sw	v0,420(s7)
    bb64:	08003f4f 	j	0xfd3c
    bb68:	8ee201a4 	lw	v0,420(s7)
    bb6c:	8ee5724c 	lw	a1,29260(s7)
    bb70:	8ee60490 	lw	a2,1168(s7)
    bb74:	8ee70494 	lw	a3,1172(s7)
    bb78:	ad0b0008 	sw	t3,8(t0)
    bb7c:	a504000e 	sh	a0,14(t0)
    bb80:	ad0a0018 	sw	t2,24(t0)
    bb84:	00052940 	sll	a1,a1,0x5
    bb88:	00a01821 	move	v1,a1
    bb8c:	00001021 	move	v0,zero
    bb90:	00e33821 	addu	a3,a3,v1
    bb94:	00e3202b 	sltu	a0,a3,v1
    bb98:	00c23021 	addu	a2,a2,v0
    bb9c:	00c43021 	addu	a2,a2,a0
    bba0:	ad060000 	sw	a2,0(t0)
    bba4:	ad070004 	sw	a3,4(t0)
    bba8:	8ee2724c 	lw	v0,29260(s7)
    bbac:	004d1025 	or	v0,v0,t5
    bbb0:	ad02001c 	sw	v0,28(t0)
    bbb4:	8ee204c4 	lw	v0,1220(s7)
    bbb8:	ad020010 	sw	v0,16(t0)
    bbbc:	af890120 	sw	t1,288(gp)
    bbc0:	92e24e20 	lbu	v0,20000(s7)
    bbc4:	14400060 	bnez	v0,0xbd48
    bbc8:	24100001 	li	s0,1
    bbcc:	2543ffee 	addiu	v1,t2,-18
    bbd0:	2c630002 	sltiu	v1,v1,2
    bbd4:	39420011 	xori	v0,t2,0x11
    bbd8:	2c420001 	sltiu	v0,v0,1
    bbdc:	00621825 	or	v1,v1,v0
    bbe0:	10600024 	beqz	v1,0xbc74
    bbe4:	00000000 	nop
    bbe8:	8ee24e30 	lw	v0,20016(s7)
    bbec:	000210c0 	sll	v0,v0,0x3
    bbf0:	24425038 	addiu	v0,v0,20536
    bbf4:	02e22021 	addu	a0,s7,v0
    bbf8:	8c820000 	lw	v0,0(a0)
    bbfc:	1455000f 	bne	v0,s5,0xbc3c
    bc00:	00000000 	nop
    bc04:	8ee34e30 	lw	v1,20016(s7)
    bc08:	8ee24e34 	lw	v0,20020(s7)
    bc0c:	1062000b 	beq	v1,v0,0xbc3c
    bc10:	00000000 	nop
    bc14:	8c820004 	lw	v0,4(a0)
    bc18:	24420001 	addiu	v0,v0,1
    bc1c:	ac820004 	sw	v0,4(a0)
    bc20:	8ee24e34 	lw	v0,20020(s7)
    bc24:	8ee34e30 	lw	v1,20016(s7)
    bc28:	24420001 	addiu	v0,v0,1
    bc2c:	1054002b 	beq	v0,s4,0xbcdc
    bc30:	00000000 	nop
    bc34:	08003f2e 	j	0xfcb8
    bc38:	00000000 	nop
    bc3c:	8ee24e30 	lw	v0,20016(s7)
    bc40:	24420001 	addiu	v0,v0,1
    bc44:	50540003 	beql	v0,s4,0xbc54
    bc48:	00001021 	move	v0,zero
    bc4c:	8ee24e30 	lw	v0,20016(s7)
    bc50:	24420001 	addiu	v0,v0,1
    bc54:	aee24e30 	sw	v0,20016(s7)
    bc58:	8ee24e30 	lw	v0,20016(s7)
    bc5c:	000210c0 	sll	v0,v0,0x3
    bc60:	24425038 	addiu	v0,v0,20536
    bc64:	02e22021 	addu	a0,s7,v0
    bc68:	24020001 	li	v0,1
    bc6c:	08003f4e 	j	0xfd38
    bc70:	ac950000 	sw	s5,0(a0)
    bc74:	8ee24e30 	lw	v0,20016(s7)
    bc78:	000210c0 	sll	v0,v0,0x3
    bc7c:	24425038 	addiu	v0,v0,20536
    bc80:	02e22021 	addu	a0,s7,v0
    bc84:	8c830000 	lw	v1,0(a0)
    bc88:	24020007 	li	v0,7
    bc8c:	1462001f 	bne	v1,v0,0xbd0c
    bc90:	00000000 	nop
    bc94:	8ee34e30 	lw	v1,20016(s7)
    bc98:	8ee24e34 	lw	v0,20020(s7)
    bc9c:	1062001b 	beq	v1,v0,0xbd0c
    bca0:	00000000 	nop
    bca4:	8c820004 	lw	v0,4(a0)
    bca8:	24420001 	addiu	v0,v0,1
    bcac:	ac820004 	sw	v0,4(a0)
    bcb0:	8ee24e34 	lw	v0,20020(s7)
    bcb4:	8ee34e30 	lw	v1,20016(s7)
    bcb8:	24420001 	addiu	v0,v0,1
    bcbc:	10540007 	beq	v0,s4,0xbcdc
    bcc0:	00000000 	nop
    bcc4:	8ee24e34 	lw	v0,20020(s7)
    bcc8:	24420001 	addiu	v0,v0,1
    bccc:	10620005 	beq	v1,v0,0xbce4
    bcd0:	00000000 	nop
    bcd4:	08003f3a 	j	0xfce8
    bcd8:	00000000 	nop
    bcdc:	14600005 	bnez	v1,0xbcf4
    bce0:	00000000 	nop
    bce4:	8f820128 	lw	v0,296(gp)
    bce8:	24420020 	addiu	v0,v0,32
    bcec:	af820128 	sw	v0,296(gp)
    bcf0:	8f820128 	lw	v0,296(gp)
    bcf4:	8c820004 	lw	v0,4(a0)
    bcf8:	2c420011 	sltiu	v0,v0,17
    bcfc:	50400012 	beqzl	v0,0xbd48
    bd00:	ac800000 	sw	zero,0(a0)
    bd04:	08003f4f 	j	0xfd3c
    bd08:	00000000 	nop
    bd0c:	8ee24e30 	lw	v0,20016(s7)
    bd10:	24420001 	addiu	v0,v0,1
    bd14:	50540003 	beql	v0,s4,0xbd24
    bd18:	00001021 	move	v0,zero
    bd1c:	8ee24e30 	lw	v0,20016(s7)
    bd20:	24420001 	addiu	v0,v0,1
    bd24:	aee24e30 	sw	v0,20016(s7)
    bd28:	8ee24e30 	lw	v0,20016(s7)
    bd2c:	000210c0 	sll	v0,v0,0x3
    bd30:	24425038 	addiu	v0,v0,20536
    bd34:	02e22021 	addu	a0,s7,v0
    bd38:	24020007 	li	v0,7
    bd3c:	ac820000 	sw	v0,0(a0)
    bd40:	24020001 	li	v0,1
    bd44:	ac820004 	sw	v0,4(a0)
    bd48:	1600000d 	bnez	s0,0xbd80
    bd4c:	00000000 	nop
    bd50:	8f820120 	lw	v0,288(gp)
    bd54:	3c040001 	lui	a0,0x1
    bd58:	24845938 	addiu	a0,a0,22840
    bd5c:	afa00014 	sw	zero,20(sp)
    bd60:	afa20010 	sw	v0,16(sp)
    bd64:	8d86001c 	lw	a2,28(t4)
    bd68:	8f870124 	lw	a3,292(gp)
    bd6c:	3c050008 	lui	a1,0x8
    bd70:	0c002403 	jal	0x900c
    bd74:	34a50001 	ori	a1,a1,0x1
    bd78:	08004057 	j	0x1015c
    bd7c:	00000000 	nop
    bd80:	8ee2724c 	lw	v0,29260(s7)
    bd84:	24420001 	addiu	v0,v0,1
    bd88:	304207ff 	andi	v0,v0,0x7ff
    bd8c:	11a00006 	beqz	t5,0xbda8
    bd90:	aee2724c 	sw	v0,29260(s7)
    bd94:	8ee201d0 	lw	v0,464(s7)
    bd98:	2442ffff 	addiu	v0,v0,-1
    bd9c:	aee201d0 	sw	v0,464(s7)
    bda0:	08003f6b 	j	0xfdac
    bda4:	8ee201d0 	lw	v0,464(s7)
    bda8:	8ee201cc 	lw	v0,460(s7)
    bdac:	2442ffff 	addiu	v0,v0,-1
    bdb0:	aee201cc 	sw	v0,460(s7)
    bdb4:	8ee201cc 	lw	v0,460(s7)
    bdb8:	8ee201d8 	lw	v0,472(s7)
    bdbc:	2442ffff 	addiu	v0,v0,-1
    bdc0:	aee201d8 	sw	v0,472(s7)
    bdc4:	08004057 	j	0x1015c
    bdc8:	8ee201d8 	lw	v0,472(s7)
    bdcc:	8f420240 	lw	v0,576(k0)
    bdd0:	104000e5 	beqz	v0,0xc168
    bdd4:	00000000 	nop
    bdd8:	8ee20e1c 	lw	v0,3612(s7)
    bddc:	24420001 	addiu	v0,v0,1
    bde0:	08004057 	j	0x1015c
    bde4:	aee20e1c 	sw	v0,3612(s7)
    bde8:	9582001e 	lhu	v0,30(t4)
    bdec:	ad82001c 	sw	v0,28(t4)
    bdf0:	8f420240 	lw	v0,576(k0)
    bdf4:	10400072 	beqz	v0,0xbfc0
    bdf8:	00000000 	nop
    bdfc:	8ee20e1c 	lw	v0,3612(s7)
    be00:	24420001 	addiu	v0,v0,1
    be04:	aee20e1c 	sw	v0,3612(s7)
    be08:	8f430240 	lw	v1,576(k0)
    be0c:	0043102b 	sltu	v0,v0,v1
    be10:	144000d5 	bnez	v0,0xc168
    be14:	00000000 	nop
    be18:	8f830120 	lw	v1,288(gp)
    be1c:	27623800 	addiu	v0,k1,14336
    be20:	24660020 	addiu	a2,v1,32
    be24:	00c2102b 	sltu	v0,a2,v0
    be28:	50400001 	beqzl	v0,0xbe30
    be2c:	27663000 	addiu	a2,k1,12288
    be30:	8f820128 	lw	v0,296(gp)
    be34:	10c20004 	beq	a2,v0,0xbe48
    be38:	00000000 	nop
    be3c:	8f820124 	lw	v0,292(gp)
    be40:	14c20007 	bne	a2,v0,0xbe60
    be44:	00000000 	nop
    be48:	8ee201a4 	lw	v0,420(s7)
    be4c:	00008021 	move	s0,zero
    be50:	24420001 	addiu	v0,v0,1
    be54:	aee201a4 	sw	v0,420(s7)
    be58:	08003fda 	j	0xff68
    be5c:	8ee201a4 	lw	v0,420(s7)
    be60:	8ee2724c 	lw	v0,29260(s7)
    be64:	ac62001c 	sw	v0,28(v1)
    be68:	8ee404a8 	lw	a0,1192(s7)
    be6c:	8ee504ac 	lw	a1,1196(s7)
    be70:	2462001c 	addiu	v0,v1,28
    be74:	ac620008 	sw	v0,8(v1)
    be78:	24020008 	li	v0,8
    be7c:	a462000e 	sh	v0,14(v1)
    be80:	24020011 	li	v0,17
    be84:	ac620018 	sw	v0,24(v1)
    be88:	ac640000 	sw	a0,0(v1)
    be8c:	ac650004 	sw	a1,4(v1)
    be90:	8ee204c4 	lw	v0,1220(s7)
    be94:	ac620010 	sw	v0,16(v1)
    be98:	af860120 	sw	a2,288(gp)
    be9c:	92e24e20 	lbu	v0,20000(s7)
    bea0:	14400034 	bnez	v0,0xbf74
    bea4:	24100001 	li	s0,1
    bea8:	8ee24e30 	lw	v0,20016(s7)
    beac:	000210c0 	sll	v0,v0,0x3
    beb0:	24425038 	addiu	v0,v0,20536
    beb4:	02e22021 	addu	a0,s7,v0
    beb8:	8c820000 	lw	v0,0(a0)
    bebc:	1455001f 	bne	v0,s5,0xbf3c
    bec0:	00000000 	nop
    bec4:	8ee34e30 	lw	v1,20016(s7)
    bec8:	8ee24e34 	lw	v0,20020(s7)
    becc:	1062001b 	beq	v1,v0,0xbf3c
    bed0:	00000000 	nop
    bed4:	8c820004 	lw	v0,4(a0)
    bed8:	24420001 	addiu	v0,v0,1
    bedc:	ac820004 	sw	v0,4(a0)
    bee0:	8ee24e34 	lw	v0,20020(s7)
    bee4:	8ee34e30 	lw	v1,20016(s7)
    bee8:	24420001 	addiu	v0,v0,1
    beec:	10540007 	beq	v0,s4,0xbf0c
    bef0:	00000000 	nop
    bef4:	8ee24e34 	lw	v0,20020(s7)
    bef8:	24420001 	addiu	v0,v0,1
    befc:	10620005 	beq	v1,v0,0xbf14
    bf00:	00000000 	nop
    bf04:	08003fc6 	j	0xff18
    bf08:	00000000 	nop
    bf0c:	14600005 	bnez	v1,0xbf24
    bf10:	00000000 	nop
    bf14:	8f820128 	lw	v0,296(gp)
    bf18:	24420020 	addiu	v0,v0,32
    bf1c:	af820128 	sw	v0,296(gp)
    bf20:	8f820128 	lw	v0,296(gp)
    bf24:	8c820004 	lw	v0,4(a0)
    bf28:	2c420011 	sltiu	v0,v0,17
    bf2c:	50400011 	beqzl	v0,0xbf74
    bf30:	ac800000 	sw	zero,0(a0)
    bf34:	08003fda 	j	0xff68
    bf38:	00000000 	nop
    bf3c:	8ee24e30 	lw	v0,20016(s7)
    bf40:	24420001 	addiu	v0,v0,1
    bf44:	50540003 	beql	v0,s4,0xbf54
    bf48:	00001021 	move	v0,zero
    bf4c:	8ee24e30 	lw	v0,20016(s7)
    bf50:	24420001 	addiu	v0,v0,1
    bf54:	aee24e30 	sw	v0,20016(s7)
    bf58:	8ee24e30 	lw	v0,20016(s7)
    bf5c:	000210c0 	sll	v0,v0,0x3
    bf60:	24425038 	addiu	v0,v0,20536
    bf64:	02e22021 	addu	a0,s7,v0
    bf68:	24020001 	li	v0,1
    bf6c:	ac950000 	sw	s5,0(a0)
    bf70:	ac820004 	sw	v0,4(a0)
    bf74:	5600000b 	bnezl	s0,0xbfa4
    bf78:	24100001 	li	s0,1
    bf7c:	8ee2724c 	lw	v0,29260(s7)
    bf80:	3c040001 	lui	a0,0x1
    bf84:	248458a8 	addiu	a0,a0,22696
    bf88:	afa00014 	sw	zero,20(sp)
    bf8c:	afa20010 	sw	v0,16(sp)
    bf90:	8ee6724c 	lw	a2,29260(s7)
    bf94:	8f470280 	lw	a3,640(k0)
    bf98:	3c050009 	lui	a1,0x9
    bf9c:	0c002403 	jal	0x900c
    bfa0:	34a5f008 	ori	a1,a1,0xf008
    bfa4:	56000001 	bnezl	s0,0xbfac
    bfa8:	aee00e1c 	sw	zero,3612(s7)
    bfac:	8ee20188 	lw	v0,392(s7)
    bfb0:	24420001 	addiu	v0,v0,1
    bfb4:	aee20188 	sw	v0,392(s7)
    bfb8:	08004050 	j	0x10140
    bfbc:	8ee20188 	lw	v0,392(s7)
    bfc0:	8f830120 	lw	v1,288(gp)
    bfc4:	27623800 	addiu	v0,k1,14336
    bfc8:	24660020 	addiu	a2,v1,32
    bfcc:	00c2102b 	sltu	v0,a2,v0
    bfd0:	50400001 	beqzl	v0,0xbfd8
    bfd4:	27663000 	addiu	a2,k1,12288
    bfd8:	8f820128 	lw	v0,296(gp)
    bfdc:	10c20004 	beq	a2,v0,0xbff0
    bfe0:	00000000 	nop
    bfe4:	8f820124 	lw	v0,292(gp)
    bfe8:	14c20007 	bne	a2,v0,0xc008
    bfec:	00000000 	nop
    bff0:	8ee201a4 	lw	v0,420(s7)
    bff4:	00008021 	move	s0,zero
    bff8:	24420001 	addiu	v0,v0,1
    bffc:	aee201a4 	sw	v0,420(s7)
    c000:	08004044 	j	0x10110
    c004:	8ee201a4 	lw	v0,420(s7)
    c008:	8ee2724c 	lw	v0,29260(s7)
    c00c:	ac62001c 	sw	v0,28(v1)
    c010:	8ee404a8 	lw	a0,1192(s7)
    c014:	8ee504ac 	lw	a1,1196(s7)
    c018:	2462001c 	addiu	v0,v1,28
    c01c:	ac620008 	sw	v0,8(v1)
    c020:	24020008 	li	v0,8
    c024:	a462000e 	sh	v0,14(v1)
    c028:	24020011 	li	v0,17
    c02c:	ac620018 	sw	v0,24(v1)
    c030:	ac640000 	sw	a0,0(v1)
    c034:	ac650004 	sw	a1,4(v1)
    c038:	8ee204c4 	lw	v0,1220(s7)
    c03c:	ac620010 	sw	v0,16(v1)
    c040:	af860120 	sw	a2,288(gp)
    c044:	92e24e20 	lbu	v0,20000(s7)
    c048:	14400034 	bnez	v0,0xc11c
    c04c:	24100001 	li	s0,1
    c050:	8ee24e30 	lw	v0,20016(s7)
    c054:	000210c0 	sll	v0,v0,0x3
    c058:	24425038 	addiu	v0,v0,20536
    c05c:	02e22021 	addu	a0,s7,v0
    c060:	8c820000 	lw	v0,0(a0)
    c064:	1455001f 	bne	v0,s5,0xc0e4
    c068:	00000000 	nop
    c06c:	8ee34e30 	lw	v1,20016(s7)
    c070:	8ee24e34 	lw	v0,20020(s7)
    c074:	1062001b 	beq	v1,v0,0xc0e4
    c078:	00000000 	nop
    c07c:	8c820004 	lw	v0,4(a0)
    c080:	24420001 	addiu	v0,v0,1
    c084:	ac820004 	sw	v0,4(a0)
    c088:	8ee24e34 	lw	v0,20020(s7)
    c08c:	8ee34e30 	lw	v1,20016(s7)
    c090:	24420001 	addiu	v0,v0,1
    c094:	10540007 	beq	v0,s4,0xc0b4
    c098:	00000000 	nop
    c09c:	8ee24e34 	lw	v0,20020(s7)
    c0a0:	24420001 	addiu	v0,v0,1
    c0a4:	10620005 	beq	v1,v0,0xc0bc
    c0a8:	00000000 	nop
    c0ac:	08004030 	j	0x100c0
    c0b0:	00000000 	nop
    c0b4:	14600005 	bnez	v1,0xc0cc
    c0b8:	00000000 	nop
    c0bc:	8f820128 	lw	v0,296(gp)
    c0c0:	24420020 	addiu	v0,v0,32
    c0c4:	af820128 	sw	v0,296(gp)
    c0c8:	8f820128 	lw	v0,296(gp)
    c0cc:	8c820004 	lw	v0,4(a0)
    c0d0:	2c420011 	sltiu	v0,v0,17
    c0d4:	50400011 	beqzl	v0,0xc11c
    c0d8:	ac800000 	sw	zero,0(a0)
    c0dc:	08004044 	j	0x10110
    c0e0:	00000000 	nop
    c0e4:	8ee24e30 	lw	v0,20016(s7)
    c0e8:	24420001 	addiu	v0,v0,1
    c0ec:	50540003 	beql	v0,s4,0xc0fc
    c0f0:	00001021 	move	v0,zero
    c0f4:	8ee24e30 	lw	v0,20016(s7)
    c0f8:	24420001 	addiu	v0,v0,1
    c0fc:	aee24e30 	sw	v0,20016(s7)
    c100:	8ee24e30 	lw	v0,20016(s7)
    c104:	000210c0 	sll	v0,v0,0x3
    c108:	24425038 	addiu	v0,v0,20536
    c10c:	02e22021 	addu	a0,s7,v0
    c110:	24020001 	li	v0,1
    c114:	ac950000 	sw	s5,0(a0)
    c118:	ac820004 	sw	v0,4(a0)
    c11c:	1600000b 	bnez	s0,0xc14c
    c120:	00000000 	nop
    c124:	8ee2724c 	lw	v0,29260(s7)
    c128:	3c040001 	lui	a0,0x1
    c12c:	248458a8 	addiu	a0,a0,22696
    c130:	afa00014 	sw	zero,20(sp)
    c134:	afa20010 	sw	v0,16(sp)
    c138:	8ee6724c 	lw	a2,29260(s7)
    c13c:	8f470280 	lw	a3,640(k0)
    c140:	3c050009 	lui	a1,0x9
    c144:	0c002403 	jal	0x900c
    c148:	34a5f008 	ori	a1,a1,0xf008
    c14c:	8ee20174 	lw	v0,372(s7)
    c150:	24420001 	addiu	v0,v0,1
    c154:	aee20174 	sw	v0,372(s7)
    c158:	08004057 	j	0x1015c
    c15c:	8ee20174 	lw	v0,372(s7)
    c160:	24020001 	li	v0,1
    c164:	aee24e24 	sw	v0,20004(s7)
    c168:	8f830128 	lw	v1,296(gp)
    c16c:	8f820124 	lw	v0,292(gp)
    c170:	1462fd58 	bne	v1,v0,0xb6d4
    c174:	00000000 	nop
    c178:	8fbf0030 	lw	ra,48(sp)
    c17c:	8fb5002c 	lw	s5,44(sp)
    c180:	8fb40028 	lw	s4,40(sp)
    c184:	8fb30024 	lw	s3,36(sp)
    c188:	8fb20020 	lw	s2,32(sp)
    c18c:	8fb1001c 	lw	s1,28(sp)
    c190:	8fb00018 	lw	s0,24(sp)
    c194:	03e00008 	jr	ra
    c198:	27bd0038 	addiu	sp,sp,56
    c19c:	27bdffe8 	addiu	sp,sp,-24
    c1a0:	27840208 	addiu	a0,gp,520
    c1a4:	27450200 	addiu	a1,k0,512
    c1a8:	24060008 	li	a2,8
    c1ac:	afbf0014 	sw	ra,20(sp)
    c1b0:	0c00249a 	jal	0x9268
    c1b4:	afb00010 	sw	s0,16(sp)
    c1b8:	00002021 	move	a0,zero
    c1bc:	24100001 	li	s0,1
    c1c0:	2402241f 	li	v0,9247
    c1c4:	af900210 	sw	s0,528(gp)
    c1c8:	af900200 	sw	s0,512(gp)
    c1cc:	af800204 	sw	zero,516(gp)
    c1d0:	af820214 	sw	v0,532(gp)
    c1d4:	8f460248 	lw	a2,584(k0)
    c1d8:	24030004 	li	v1,4
    c1dc:	3c020040 	lui	v0,0x40
    c1e0:	3c010001 	lui	at,0x1
    c1e4:	ac235cc4 	sw	v1,23748(at)
    c1e8:	3c010001 	lui	at,0x1
    c1ec:	ac235cc8 	sw	v1,23752(at)
    c1f0:	3c010001 	lui	at,0x1
    c1f4:	ac205d9c 	sw	zero,23964(at)
    c1f8:	3c010001 	lui	at,0x1
    c1fc:	ac225cc0 	sw	v0,23744(at)
    c200:	3c010001 	lui	at,0x1
    c204:	ac235cc8 	sw	v1,23752(at)
    c208:	0c005108 	jal	0x14420
    c20c:	24050004 	li	a1,4
    c210:	0c004822 	jal	0x12088
    c214:	00000000 	nop
    c218:	8ee20000 	lw	v0,0(s7)
    c21c:	3c03feff 	lui	v1,0xfeff
    c220:	3463fffd 	ori	v1,v1,0xfffd
    c224:	00431024 	and	v0,v0,v1
    c228:	aee20000 	sw	v0,0(s7)
    c22c:	3c023c00 	lui	v0,0x3c00
    c230:	af82021c 	sw	v0,540(gp)
    c234:	3c010001 	lui	at,0x1
    c238:	00370821 	addu	at,at,s7
    c23c:	ac3083ac 	sw	s0,-31828(at)
    c240:	8fbf0014 	lw	ra,20(sp)
    c244:	8fb00010 	lw	s0,16(sp)
    c248:	03e00008 	jr	ra
    c24c:	27bd0018 	addiu	sp,sp,24
    c250:	27bdffe0 	addiu	sp,sp,-32
    c254:	3c050008 	lui	a1,0x8
    c258:	34a50400 	ori	a1,a1,0x400
    c25c:	afbf0018 	sw	ra,24(sp)
    c260:	afa00010 	sw	zero,16(sp)
    c264:	afa00014 	sw	zero,20(sp)
    c268:	8f860200 	lw	a2,512(gp)
    c26c:	3c040001 	lui	a0,0x1
    c270:	248459f0 	addiu	a0,a0,23024
    c274:	0c002403 	jal	0x900c
    c278:	00003821 	move	a3,zero
    c27c:	8ee20280 	lw	v0,640(s7)
    c280:	24420001 	addiu	v0,v0,1
    c284:	aee20280 	sw	v0,640(s7)
    c288:	8ee20280 	lw	v0,640(s7)
    c28c:	8f830200 	lw	v1,512(gp)
    c290:	3c023f00 	lui	v0,0x3f00
    c294:	00621824 	and	v1,v1,v0
    c298:	8fbf0018 	lw	ra,24(sp)
    c29c:	3c020400 	lui	v0,0x400
    c2a0:	03e00008 	jr	ra
    c2a4:	27bd0020 	addiu	sp,sp,32
    c2a8:	27bdffd8 	addiu	sp,sp,-40
    c2ac:	afbf0020 	sw	ra,32(sp)
    c2b0:	afb1001c 	sw	s1,28(sp)
    c2b4:	afb00018 	sw	s0,24(sp)
    c2b8:	8f900220 	lw	s0,544(gp)
    c2bc:	8ee20214 	lw	v0,532(s7)
    c2c0:	00003821 	move	a3,zero
    c2c4:	24420001 	addiu	v0,v0,1
    c2c8:	aee20214 	sw	v0,532(s7)
    c2cc:	8ee20214 	lw	v0,532(s7)
    c2d0:	3c020300 	lui	v0,0x300
    c2d4:	02021024 	and	v0,s0,v0
    c2d8:	10400027 	beqz	v0,0xc378
    c2dc:	3c110400 	lui	s1,0x400
    c2e0:	0c00429b 	jal	0x10a6c
    c2e4:	00000000 	nop
    c2e8:	3c020100 	lui	v0,0x100
    c2ec:	02021024 	and	v0,s0,v0
    c2f0:	10400007 	beqz	v0,0xc310
    c2f4:	00000000 	nop
    c2f8:	8ee20218 	lw	v0,536(s7)
    c2fc:	24420001 	addiu	v0,v0,1
    c300:	aee20218 	sw	v0,536(s7)
    c304:	8ee20218 	lw	v0,536(s7)
    c308:	080040c6 	j	0x10318
    c30c:	3c03fdff 	lui	v1,0xfdff
    c310:	8ee2021c 	lw	v0,540(s7)
    c314:	24420001 	addiu	v0,v0,1
    c318:	aee2021c 	sw	v0,540(s7)
    c31c:	8ee2021c 	lw	v0,540(s7)
    c320:	3c03fdff 	lui	v1,0xfdff
    c324:	3463ffff 	ori	v1,v1,0xffff
    c328:	3c0808ff 	lui	t0,0x8ff
    c32c:	3508ffff 	ori	t0,t0,0xffff
    c330:	8ee20000 	lw	v0,0(s7)
    c334:	3c040001 	lui	a0,0x1
    c338:	248459fc 	addiu	a0,a0,23036
    c33c:	3c050008 	lui	a1,0x8
    c340:	02003021 	move	a2,s0
    c344:	00431024 	and	v0,v0,v1
    c348:	aee20000 	sw	v0,0(s7)
    c34c:	8f820220 	lw	v0,544(gp)
    c350:	00003821 	move	a3,zero
    c354:	3c030300 	lui	v1,0x300
    c358:	00481024 	and	v0,v0,t0
    c35c:	00431025 	or	v0,v0,v1
    c360:	af820220 	sw	v0,544(gp)
    c364:	afa00010 	sw	zero,16(sp)
    c368:	0c002403 	jal	0x900c
    c36c:	afa00014 	sw	zero,20(sp)
    c370:	08004296 	j	0x10a58
    c374:	00000000 	nop
    c378:	02111024 	and	v0,s0,s1
    c37c:	1040001f 	beqz	v0,0xc3fc
    c380:	3c024000 	lui	v0,0x4000
    c384:	8f830224 	lw	v1,548(gp)
    c388:	24021402 	li	v0,5122
    c38c:	1462000b 	bne	v1,v0,0xc3bc
    c390:	3c03fdff 	lui	v1,0xfdff
    c394:	3c040001 	lui	a0,0x1
    c398:	24845a08 	addiu	a0,a0,23048
    c39c:	3c050008 	lui	a1,0x8
    c3a0:	afa00010 	sw	zero,16(sp)
    c3a4:	afa00014 	sw	zero,20(sp)
    c3a8:	8f860224 	lw	a2,548(gp)
    c3ac:	34a5ffff 	ori	a1,a1,0xffff
    c3b0:	0c002403 	jal	0x900c
    c3b4:	00003821 	move	a3,zero
    c3b8:	3c03fdff 	lui	v1,0xfdff
    c3bc:	8ee20000 	lw	v0,0(s7)
    c3c0:	3463ffff 	ori	v1,v1,0xffff
    c3c4:	02002021 	move	a0,s0
    c3c8:	00431024 	and	v0,v0,v1
    c3cc:	0c004e54 	jal	0x13950
    c3d0:	aee20000 	sw	v0,0(s7)
    c3d4:	8ee20220 	lw	v0,544(s7)
    c3d8:	24420001 	addiu	v0,v0,1
    c3dc:	aee20220 	sw	v0,544(s7)
    c3e0:	8ee20220 	lw	v0,544(s7)
    c3e4:	8f820220 	lw	v0,544(gp)
    c3e8:	3c0308ff 	lui	v1,0x8ff
    c3ec:	3463ffff 	ori	v1,v1,0xffff
    c3f0:	00431024 	and	v0,v0,v1
    c3f4:	08004295 	j	0x10a54
    c3f8:	00511025 	or	v0,v0,s1
    c3fc:	02021024 	and	v0,s0,v0
    c400:	10400142 	beqz	v0,0xc90c
    c404:	00000000 	nop
    c408:	8ee2022c 	lw	v0,556(s7)
    c40c:	24420001 	addiu	v0,v0,1
    c410:	aee2022c 	sw	v0,556(s7)
    c414:	8ee2022c 	lw	v0,556(s7)
    c418:	8f820220 	lw	v0,544(gp)
    c41c:	3c0308ff 	lui	v1,0x8ff
    c420:	3463ffff 	ori	v1,v1,0xffff
    c424:	00431024 	and	v0,v0,v1
    c428:	34420004 	ori	v0,v0,0x4
    c42c:	af820220 	sw	v0,544(gp)
    c430:	8f830054 	lw	v1,84(gp)
    c434:	8f820054 	lw	v0,84(gp)
    c438:	0800410e 	j	0x10438
    c43c:	24630002 	addiu	v1,v1,2
    c440:	8f820054 	lw	v0,84(gp)
    c444:	00621023 	subu	v0,v1,v0
    c448:	2c420003 	sltiu	v0,v0,3
    c44c:	1440fffc 	bnez	v0,0xc440
    c450:	00000000 	nop
    c454:	8f8600e0 	lw	a2,224(gp)
    c458:	8f8400e4 	lw	a0,228(gp)
    c45c:	30c20007 	andi	v0,a2,0x7
    c460:	10400012 	beqz	v0,0xc4ac
    c464:	00000000 	nop
    c468:	8f8300e4 	lw	v1,228(gp)
    c46c:	2402fff8 	li	v0,-8
    c470:	00c21024 	and	v0,a2,v0
    c474:	1043000d 	beq	v0,v1,0xc4ac
    c478:	00000000 	nop
    c47c:	8f820054 	lw	v0,84(gp)
    c480:	8f8300e0 	lw	v1,224(gp)
    c484:	14c30009 	bne	a2,v1,0xc4ac
    c488:	24440050 	addiu	a0,v0,80
    c48c:	8f820054 	lw	v0,84(gp)
    c490:	00821023 	subu	v0,a0,v0
    c494:	2c420051 	sltiu	v0,v0,81
    c498:	10400004 	beqz	v0,0xc4ac
    c49c:	00000000 	nop
    c4a0:	8f8200e0 	lw	v0,224(gp)
    c4a4:	10c2fff9 	beq	a2,v0,0xc48c
    c4a8:	00000000 	nop
    c4ac:	8f820220 	lw	v0,544(gp)
    c4b0:	3c0308ff 	lui	v1,0x8ff
    c4b4:	3463fffd 	ori	v1,v1,0xfffd
    c4b8:	00431024 	and	v0,v0,v1
    c4bc:	af820220 	sw	v0,544(gp)
    c4c0:	8f8600e0 	lw	a2,224(gp)
    c4c4:	30c20007 	andi	v0,a2,0x7
    c4c8:	10400003 	beqz	v0,0xc4d8
    c4cc:	2402fff8 	li	v0,-8
    c4d0:	00c23024 	and	a2,a2,v0
    c4d4:	af8600e0 	sw	a2,224(gp)
    c4d8:	8f8300c4 	lw	v1,196(gp)
    c4dc:	3c02001f 	lui	v0,0x1f
    c4e0:	3442ffff 	ori	v0,v0,0xffff
    c4e4:	24680008 	addiu	t0,v1,8
    c4e8:	0048102b 	sltu	v0,v0,t0
    c4ec:	10400003 	beqz	v0,0xc4fc
    c4f0:	3c02fff5 	lui	v0,0xfff5
    c4f4:	34421000 	ori	v0,v0,0x1000
    c4f8:	01024021 	addu	t0,t0,v0
    c4fc:	8f8b00c8 	lw	t3,200(gp)
    c500:	8f850120 	lw	a1,288(gp)
    c504:	8f840124 	lw	a0,292(gp)
    c508:	08004145 	j	0x10514
    c50c:	00006021 	move	t4,zero
    c510:	27623800 	addiu	v0,k1,14336
    c514:	0082102b 	sltu	v0,a0,v0
    c518:	50400001 	beqzl	v0,0xc520
    c51c:	27643000 	addiu	a0,k1,12288
    c520:	10a40010 	beq	a1,a0,0xc564
    c524:	318200ff 	andi	v0,t4,0xff
    c528:	8c820018 	lw	v0,24(a0)
    c52c:	38430007 	xori	v1,v0,0x7
    c530:	2c630001 	sltiu	v1,v1,1
    c534:	3842000b 	xori	v0,v0,0xb
    c538:	2c420001 	sltiu	v0,v0,1
    c53c:	00621825 	or	v1,v1,v0
    c540:	5060fff3 	beqzl	v1,0xc510
    c544:	24840020 	addiu	a0,a0,32
    c548:	8ee20240 	lw	v0,576(s7)
    c54c:	240c0001 	li	t4,1
    c550:	24420001 	addiu	v0,v0,1
    c554:	aee20240 	sw	v0,576(s7)
    c558:	8ee20240 	lw	v0,576(s7)
    c55c:	8c8b0008 	lw	t3,8(a0)
    c560:	318200ff 	andi	v0,t4,0xff
    c564:	14400065 	bnez	v0,0xc6fc
    c568:	00000000 	nop
    c56c:	3c020001 	lui	v0,0x1
    c570:	00571021 	addu	v0,v0,s7
    c574:	904283c0 	lbu	v0,-31808(v0)
    c578:	14400060 	bnez	v0,0xc6fc
    c57c:	00000000 	nop
    c580:	8f8400e4 	lw	a0,228(gp)
    c584:	00c41023 	subu	v0,a2,a0
    c588:	000218c3 	sra	v1,v0,0x3
    c58c:	04620001 	bltzl	v1,0xc594
    c590:	24630200 	addiu	v1,v1,512
    c594:	8f8900c4 	lw	t1,196(gp)
    c598:	10600005 	beqz	v1,0xc5b0
    c59c:	24020001 	li	v0,1
    c5a0:	10620009 	beq	v1,v0,0xc5c8
    c5a4:	00000000 	nop
    c5a8:	08004187 	j	0x1061c
    c5ac:	00000000 	nop
    c5b0:	8ee20230 	lw	v0,560(s7)
    c5b4:	01205821 	move	t3,t1
    c5b8:	24420001 	addiu	v0,v0,1
    c5bc:	aee20230 	sw	v0,560(s7)
    c5c0:	080041bc 	j	0x106f0
    c5c4:	8ee20230 	lw	v0,560(s7)
    c5c8:	8ee20234 	lw	v0,564(s7)
    c5cc:	3c05000a 	lui	a1,0xa
    c5d0:	24420001 	addiu	v0,v0,1
    c5d4:	aee20234 	sw	v0,564(s7)
    c5d8:	8c8b0000 	lw	t3,0(a0)
    c5dc:	34a5f000 	ori	a1,a1,0xf000
    c5e0:	8ee20234 	lw	v0,564(s7)
    c5e4:	012b1823 	subu	v1,t1,t3
    c5e8:	00a3102b 	sltu	v0,a1,v1
    c5ec:	54400001 	bnezl	v0,0xc5f4
    c5f0:	00651821 	addu	v1,v1,a1
    c5f4:	2c62233f 	sltiu	v0,v1,9023
    c5f8:	14400040 	bnez	v0,0xc6fc
    c5fc:	00000000 	nop
    c600:	8f8200e8 	lw	v0,232(gp)
    c604:	24420008 	addiu	v0,v0,8
    c608:	af8200e8 	sw	v0,232(gp)
    c60c:	8f8200e8 	lw	v0,232(gp)
    c610:	8f8200e4 	lw	v0,228(gp)
    c614:	01205821 	move	t3,t1
    c618:	24420008 	addiu	v0,v0,8
    c61c:	af8200e4 	sw	v0,228(gp)
    c620:	080041bc 	j	0x106f0
    c624:	8f8200e4 	lw	v0,228(gp)
    c628:	8ee20238 	lw	v0,568(s7)
    c62c:	3c03000a 	lui	v1,0xa
    c630:	24420001 	addiu	v0,v0,1
    c634:	aee20238 	sw	v0,568(s7)
    c638:	8c840000 	lw	a0,0(a0)
    c63c:	3463f000 	ori	v1,v1,0xf000
    c640:	8ee20238 	lw	v0,568(s7)
    c644:	00883823 	subu	a3,a0,t0
    c648:	0067102b 	sltu	v0,v1,a3
    c64c:	54400001 	bnezl	v0,0xc654
    c650:	00e33821 	addu	a3,a3,v1
    c654:	3c020003 	lui	v0,0x3
    c658:	34420d40 	ori	v0,v0,0xd40
    c65c:	0047102b 	sltu	v0,v0,a3
    c660:	10400003 	beqz	v0,0xc670
    c664:	00000000 	nop
    c668:	080041bc 	j	0x106f0
    c66c:	00805821 	move	t3,a0
    c670:	8f8200e4 	lw	v0,228(gp)
    c674:	24440008 	addiu	a0,v0,8
    c678:	af8400e4 	sw	a0,228(gp)
    c67c:	8f8400e4 	lw	a0,228(gp)
    c680:	10860018 	beq	a0,a2,0xc6e4
    c684:	3c05000a 	lui	a1,0xa
    c688:	34a5f000 	ori	a1,a1,0xf000
    c68c:	3c0a0003 	lui	t2,0x3
    c690:	354a0d40 	ori	t2,t2,0xd40
    c694:	8ee2007c 	lw	v0,124(s7)
    c698:	24420001 	addiu	v0,v0,1
    c69c:	aee2007c 	sw	v0,124(s7)
    c6a0:	8c830000 	lw	v1,0(a0)
    c6a4:	8ee2007c 	lw	v0,124(s7)
    c6a8:	00683823 	subu	a3,v1,t0
    c6ac:	00a7102b 	sltu	v0,a1,a3
    c6b0:	54400001 	bnezl	v0,0xc6b8
    c6b4:	00e53821 	addu	a3,a3,a1
    c6b8:	0147102b 	sltu	v0,t2,a3
    c6bc:	54400007 	bnezl	v0,0xc6dc
    c6c0:	00605821 	move	t3,v1
    c6c4:	8f8200e4 	lw	v0,228(gp)
    c6c8:	24440008 	addiu	a0,v0,8
    c6cc:	af8400e4 	sw	a0,228(gp)
    c6d0:	8f8400e4 	lw	a0,228(gp)
    c6d4:	1486ffef 	bne	a0,a2,0xc694
    c6d8:	00000000 	nop
    c6dc:	14860005 	bne	a0,a2,0xc6f4
    c6e0:	00000000 	nop
    c6e4:	01205821 	move	t3,t1
    c6e8:	af8600e4 	sw	a2,228(gp)
    c6ec:	080041bc 	j	0x106f0
    c6f0:	af8600e8 	sw	a2,232(gp)
    c6f4:	af8400e4 	sw	a0,228(gp)
    c6f8:	af8400e8 	sw	a0,232(gp)
    c6fc:	8f8200c8 	lw	v0,200(gp)
    c700:	3c03000a 	lui	v1,0xa
    c704:	3463f000 	ori	v1,v1,0xf000
    c708:	00483823 	subu	a3,v0,t0
    c70c:	0067102b 	sltu	v0,v1,a3
    c710:	54400001 	bnezl	v0,0xc718
    c714:	00e33821 	addu	a3,a3,v1
    c718:	3c020003 	lui	v0,0x3
    c71c:	34420d3f 	ori	v0,v0,0xd3f
    c720:	0047102b 	sltu	v0,v0,a3
    c724:	54400007 	bnezl	v0,0xc744
    c728:	00006021 	move	t4,zero
    c72c:	01683823 	subu	a3,t3,t0
    c730:	0067102b 	sltu	v0,v1,a3
    c734:	54400003 	bnezl	v0,0xc744
    c738:	00e33821 	addu	a3,a3,v1
    c73c:	080041cf 	j	0x1073c
    c740:	3c020003 	lui	v0,0x3
    c744:	3c020003 	lui	v0,0x3
    c748:	34420d3f 	ori	v0,v0,0xd3f
    c74c:	0047102b 	sltu	v0,v0,a3
    c750:	14400016 	bnez	v0,0xc7ac
    c754:	318200ff 	andi	v0,t4,0xff
    c758:	14400006 	bnez	v0,0xc774
    c75c:	00000000 	nop
    c760:	3c020001 	lui	v0,0x1
    c764:	00571021 	addu	v0,v0,s7
    c768:	904283c0 	lbu	v0,-31808(v0)
    c76c:	1040000f 	beqz	v0,0xc7ac
    c770:	00000000 	nop
    c774:	8ee2023c 	lw	v0,572(s7)
    c778:	3c04fdff 	lui	a0,0xfdff
    c77c:	8ee30000 	lw	v1,0(s7)
    c780:	3484ffff 	ori	a0,a0,0xffff
    c784:	24420001 	addiu	v0,v0,1
    c788:	aee2023c 	sw	v0,572(s7)
    c78c:	8ee2023c 	lw	v0,572(s7)
    c790:	24020001 	li	v0,1
    c794:	00641824 	and	v1,v1,a0
    c798:	3c010001 	lui	at,0x1
    c79c:	00370821 	addu	at,at,s7
    c7a0:	a02283b8 	sb	v0,-31816(at)
    c7a4:	0800422c 	j	0x108b0
    c7a8:	aee30000 	sw	v1,0(s7)
    c7ac:	af8b00c8 	sw	t3,200(gp)
    c7b0:	8f8300c8 	lw	v1,200(gp)
    c7b4:	8f8200c4 	lw	v0,196(gp)
    c7b8:	3c04000a 	lui	a0,0xa
    c7bc:	3484f000 	ori	a0,a0,0xf000
    c7c0:	00623823 	subu	a3,v1,v0
    c7c4:	0087102b 	sltu	v0,a0,a3
    c7c8:	54400001 	bnezl	v0,0xc7d0
    c7cc:	00e43821 	addu	a3,a3,a0
    c7d0:	3c020003 	lui	v0,0x3
    c7d4:	34420d40 	ori	v0,v0,0xd40
    c7d8:	0047102b 	sltu	v0,v0,a3
    c7dc:	2ce30001 	sltiu	v1,a3,1
    c7e0:	00431025 	or	v0,v0,v1
    c7e4:	10400008 	beqz	v0,0xc808
    c7e8:	00000000 	nop
    c7ec:	8f820220 	lw	v0,544(gp)
    c7f0:	3c0308ff 	lui	v1,0x8ff
    c7f4:	3463ffff 	ori	v1,v1,0xffff
    c7f8:	00431024 	and	v0,v0,v1
    c7fc:	3c034000 	lui	v1,0x4000
    c800:	00431025 	or	v0,v0,v1
    c804:	af820220 	sw	v0,544(gp)
    c808:	8f8600e0 	lw	a2,224(gp)
    c80c:	8f8400e4 	lw	a0,228(gp)
    c810:	10c4002a 	beq	a2,a0,0xc8bc
    c814:	00000000 	nop
    c818:	8ee2007c 	lw	v0,124(s7)
    c81c:	24420001 	addiu	v0,v0,1
    c820:	aee2007c 	sw	v0,124(s7)
    c824:	8ee2007c 	lw	v0,124(s7)
    c828:	24c2fff8 	addiu	v0,a2,-8
    c82c:	af8200e0 	sw	v0,224(gp)
    c830:	3c020001 	lui	v0,0x1
    c834:	8c427e30 	lw	v0,32304(v0)
    c838:	3c030008 	lui	v1,0x8
    c83c:	8f8600e0 	lw	a2,224(gp)
    c840:	00431024 	and	v0,v0,v1
    c844:	1040001d 	beqz	v0,0xc8bc
    c848:	00000000 	nop
    c84c:	10c4001b 	beq	a2,a0,0xc8bc
    c850:	240dfff8 	li	t5,-8
    c854:	3c0a000a 	lui	t2,0xa
    c858:	354af000 	ori	t2,t2,0xf000
    c85c:	3c0c0080 	lui	t4,0x80
    c860:	24850008 	addiu	a1,a0,8
    c864:	27622800 	addiu	v0,k1,10240
    c868:	50a20001 	beql	a1,v0,0xc870
    c86c:	27651800 	addiu	a1,k1,6144
    c870:	8c880004 	lw	t0,4(a0)
    c874:	8c820000 	lw	v0,0(a0)
    c878:	8ca90000 	lw	t1,0(a1)
    c87c:	3103ffff 	andi	v1,t0,0xffff
    c880:	00431021 	addu	v0,v0,v1
    c884:	004d1024 	and	v0,v0,t5
    c888:	24430010 	addiu	v1,v0,16
    c88c:	006b102b 	sltu	v0,v1,t3
    c890:	54400001 	bnezl	v0,0xc898
    c894:	006a1821 	addu	v1,v1,t2
    c898:	012b102b 	sltu	v0,t1,t3
    c89c:	54400001 	bnezl	v0,0xc8a4
    c8a0:	012a4821 	addu	t1,t1,t2
    c8a4:	10690002 	beq	v1,t1,0xc8b0
    c8a8:	010c1025 	or	v0,t0,t4
    c8ac:	ac820004 	sw	v0,4(a0)
    c8b0:	00a02021 	move	a0,a1
    c8b4:	14c4ffeb 	bne	a2,a0,0xc864
    c8b8:	24850008 	addiu	a1,a0,8
    c8bc:	8f820220 	lw	v0,544(gp)
    c8c0:	3c0308ff 	lui	v1,0x8ff
    c8c4:	3463ffff 	ori	v1,v1,0xffff
    c8c8:	00431024 	and	v0,v0,v1
    c8cc:	34420002 	ori	v0,v0,0x2
    c8d0:	af820220 	sw	v0,544(gp)
    c8d4:	8f830054 	lw	v1,84(gp)
    c8d8:	8f820054 	lw	v0,84(gp)
    c8dc:	08004237 	j	0x108dc
    c8e0:	24630001 	addiu	v1,v1,1
    c8e4:	8f820054 	lw	v0,84(gp)
    c8e8:	00621023 	subu	v0,v1,v0
    c8ec:	2c420002 	sltiu	v0,v0,2
    c8f0:	1440fffc 	bnez	v0,0xc8e4
    c8f4:	00000000 	nop
    c8f8:	8f820220 	lw	v0,544(gp)
    c8fc:	3c0308ff 	lui	v1,0x8ff
    c900:	3463fffb 	ori	v1,v1,0xfffb
    c904:	00431024 	and	v0,v0,v1
    c908:	af820220 	sw	v0,544(gp)
    c90c:	06010055 	bgez	s0,0xca64
    c910:	00000000 	nop
    c914:	8ee20228 	lw	v0,552(s7)
    c918:	24420001 	addiu	v0,v0,1
    c91c:	aee20228 	sw	v0,552(s7)
    c920:	8ee20228 	lw	v0,552(s7)
    c924:	8f820220 	lw	v0,544(gp)
    c928:	3c0308ff 	lui	v1,0x8ff
    c92c:	3463ffff 	ori	v1,v1,0xffff
    c930:	00431024 	and	v0,v0,v1
    c934:	34420004 	ori	v0,v0,0x4
    c938:	af820220 	sw	v0,544(gp)
    c93c:	8f830054 	lw	v1,84(gp)
    c940:	8f820054 	lw	v0,84(gp)
    c944:	08004251 	j	0x10944
    c948:	24630002 	addiu	v1,v1,2
    c94c:	8f820054 	lw	v0,84(gp)
    c950:	00621023 	subu	v0,v1,v0
    c954:	2c420003 	sltiu	v0,v0,3
    c958:	1440fffc 	bnez	v0,0xc94c
    c95c:	00000000 	nop
    c960:	8f8600e0 	lw	a2,224(gp)
    c964:	30c20007 	andi	v0,a2,0x7
    c968:	10400012 	beqz	v0,0xc9b4
    c96c:	00000000 	nop
    c970:	8f8300e4 	lw	v1,228(gp)
    c974:	2402fff8 	li	v0,-8
    c978:	00c21024 	and	v0,a2,v0
    c97c:	1043000d 	beq	v0,v1,0xc9b4
    c980:	00000000 	nop
    c984:	8f820054 	lw	v0,84(gp)
    c988:	8f8300e0 	lw	v1,224(gp)
    c98c:	14c30009 	bne	a2,v1,0xc9b4
    c990:	24440032 	addiu	a0,v0,50
    c994:	8f820054 	lw	v0,84(gp)
    c998:	00821023 	subu	v0,a0,v0
    c99c:	2c420033 	sltiu	v0,v0,51
    c9a0:	10400004 	beqz	v0,0xc9b4
    c9a4:	00000000 	nop
    c9a8:	8f8200e0 	lw	v0,224(gp)
    c9ac:	10c2fff9 	beq	a2,v0,0xc994
    c9b0:	00000000 	nop
    c9b4:	8f820220 	lw	v0,544(gp)
    c9b8:	3c0308ff 	lui	v1,0x8ff
    c9bc:	3463fffd 	ori	v1,v1,0xfffd
    c9c0:	00431024 	and	v0,v0,v1
    c9c4:	af820220 	sw	v0,544(gp)
    c9c8:	8f8600e0 	lw	a2,224(gp)
    c9cc:	30c20007 	andi	v0,a2,0x7
    c9d0:	10400003 	beqz	v0,0xc9e0
    c9d4:	2402fff8 	li	v0,-8
    c9d8:	00c23024 	and	a2,a2,v0
    c9dc:	af8600e0 	sw	a2,224(gp)
    c9e0:	240301f5 	li	v1,501
    c9e4:	8f8200e8 	lw	v0,232(gp)
    c9e8:	00673823 	subu	a3,v1,a3
    c9ec:	000718c0 	sll	v1,a3,0x3
    c9f0:	00431021 	addu	v0,v0,v1
    c9f4:	af8200e8 	sw	v0,232(gp)
    c9f8:	8f8200e8 	lw	v0,232(gp)
    c9fc:	af8200e4 	sw	v0,228(gp)
    ca00:	8ee2007c 	lw	v0,124(s7)
    ca04:	3c0408ff 	lui	a0,0x8ff
    ca08:	3484ffff 	ori	a0,a0,0xffff
    ca0c:	00471021 	addu	v0,v0,a3
    ca10:	aee2007c 	sw	v0,124(s7)
    ca14:	8f820220 	lw	v0,544(gp)
    ca18:	3c038000 	lui	v1,0x8000
    ca1c:	34630002 	ori	v1,v1,0x2
    ca20:	00441024 	and	v0,v0,a0
    ca24:	00431025 	or	v0,v0,v1
    ca28:	af820220 	sw	v0,544(gp)
    ca2c:	8f830054 	lw	v1,84(gp)
    ca30:	8f820054 	lw	v0,84(gp)
    ca34:	0800428d 	j	0x10a34
    ca38:	24630001 	addiu	v1,v1,1
    ca3c:	8f820054 	lw	v0,84(gp)
    ca40:	00621023 	subu	v0,v1,v0
    ca44:	2c420002 	sltiu	v0,v0,2
    ca48:	1440fffc 	bnez	v0,0xca3c
    ca4c:	00000000 	nop
    ca50:	8f820220 	lw	v0,544(gp)
    ca54:	3c0308ff 	lui	v1,0x8ff
    ca58:	3463fffb 	ori	v1,v1,0xfffb
    ca5c:	00431024 	and	v0,v0,v1
    ca60:	af820220 	sw	v0,544(gp)
    ca64:	8fbf0020 	lw	ra,32(sp)
    ca68:	8fb1001c 	lw	s1,28(sp)
    ca6c:	8fb00018 	lw	s0,24(sp)
    ca70:	03e00008 	jr	ra
    ca74:	27bd0028 	addiu	sp,sp,40
    ca78:	3c020001 	lui	v0,0x1
    ca7c:	8c425cd8 	lw	v0,23768(v0)
    ca80:	27bdffd8 	addiu	sp,sp,-40
    ca84:	10400012 	beqz	v0,0xcad0
    ca88:	afbf0020 	sw	ra,32(sp)
    ca8c:	3c040001 	lui	a0,0x1
    ca90:	24845a14 	addiu	a0,a0,23060
    ca94:	3c050008 	lui	a1,0x8
    ca98:	24020001 	li	v0,1
    ca9c:	3c010001 	lui	at,0x1
    caa0:	00370821 	addu	at,at,s7
    caa4:	ac2283ac 	sw	v0,-31828(at)
    caa8:	afa00010 	sw	zero,16(sp)
    caac:	afa00014 	sw	zero,20(sp)
    cab0:	8f860220 	lw	a2,544(gp)
    cab4:	34a50498 	ori	a1,a1,0x498
    cab8:	3c010001 	lui	at,0x1
    cabc:	ac205cd8 	sw	zero,23768(at)
    cac0:	3c010001 	lui	at,0x1
    cac4:	ac225ccc 	sw	v0,23756(at)
    cac8:	0c002403 	jal	0x900c
    cacc:	00003821 	move	a3,zero
    cad0:	8f420268 	lw	v0,616(k0)
    cad4:	3c037fff 	lui	v1,0x7fff
    cad8:	3463ffff 	ori	v1,v1,0xffff
    cadc:	00431024 	and	v0,v0,v1
    cae0:	af420268 	sw	v0,616(k0)
    cae4:	8ee204d0 	lw	v0,1232(s7)
    cae8:	8ee404d4 	lw	a0,1236(s7)
    caec:	2403fffe 	li	v1,-2
    caf0:	00431024 	and	v0,v0,v1
    caf4:	30840002 	andi	a0,a0,0x2
    caf8:	1080011e 	beqz	a0,0xcf74
    cafc:	aee204d0 	sw	v0,1232(s7)
    cb00:	8ee204d4 	lw	v0,1236(s7)
    cb04:	2403fffd 	li	v1,-3
    cb08:	00431024 	and	v0,v0,v1
    cb0c:	aee204d4 	sw	v0,1236(s7)
    cb10:	8f820044 	lw	v0,68(gp)
    cb14:	3c030600 	lui	v1,0x600
    cb18:	34632000 	ori	v1,v1,0x2000
    cb1c:	34420020 	ori	v0,v0,0x20
    cb20:	af820044 	sw	v0,68(gp)
    cb24:	afa30018 	sw	v1,24(sp)
    cb28:	8ee20608 	lw	v0,1544(s7)
    cb2c:	8f430228 	lw	v1,552(k0)
    cb30:	24420001 	addiu	v0,v0,1
    cb34:	304a00ff 	andi	t2,v0,0xff
    cb38:	514300fe 	beql	t2,v1,0xcf34
    cb3c:	afa00010 	sw	zero,16(sp)
    cb40:	8ee20608 	lw	v0,1544(s7)
    cb44:	000210c0 	sll	v0,v0,0x3
    cb48:	00571021 	addu	v0,v0,s7
    cb4c:	8fa30018 	lw	v1,24(sp)
    cb50:	8fa4001c 	lw	a0,28(sp)
    cb54:	ac43060c 	sw	v1,1548(v0)
    cb58:	ac440610 	sw	a0,1552(v0)
    cb5c:	8f830054 	lw	v1,84(gp)
    cb60:	8f820054 	lw	v0,84(gp)
    cb64:	24690032 	addiu	t1,v1,50
    cb68:	01221023 	subu	v0,t1,v0
    cb6c:	2c420033 	sltiu	v0,v0,51
    cb70:	1040006a 	beqz	v0,0xcd1c
    cb74:	00005821 	move	t3,zero
    cb78:	24180008 	li	t8,8
    cb7c:	240f000d 	li	t7,13
    cb80:	240d0007 	li	t5,7
    cb84:	240c0040 	li	t4,64
    cb88:	240e0001 	li	t6,1
    cb8c:	8f870120 	lw	a3,288(gp)
    cb90:	27623800 	addiu	v0,k1,14336
    cb94:	24e80020 	addiu	t0,a3,32
    cb98:	0102102b 	sltu	v0,t0,v0
    cb9c:	50400001 	beqzl	v0,0xcba4
    cba0:	27683000 	addiu	t0,k1,12288
    cba4:	8f820128 	lw	v0,296(gp)
    cba8:	11020004 	beq	t0,v0,0xcbbc
    cbac:	00000000 	nop
    cbb0:	8f820124 	lw	v0,292(gp)
    cbb4:	15020007 	bne	t0,v0,0xcbd4
    cbb8:	00001021 	move	v0,zero
    cbbc:	8ee201a4 	lw	v0,420(s7)
    cbc0:	00002821 	move	a1,zero
    cbc4:	24420001 	addiu	v0,v0,1
    cbc8:	aee201a4 	sw	v0,420(s7)
    cbcc:	0800433d 	j	0x10cf4
    cbd0:	8ee201a4 	lw	v0,420(s7)
    cbd4:	8ee40608 	lw	a0,1544(s7)
    cbd8:	000420c0 	sll	a0,a0,0x3
    cbdc:	00801821 	move	v1,a0
    cbe0:	8ee40430 	lw	a0,1072(s7)
    cbe4:	8ee50434 	lw	a1,1076(s7)
    cbe8:	00a32821 	addu	a1,a1,v1
    cbec:	00a3302b 	sltu	a2,a1,v1
    cbf0:	00822021 	addu	a0,a0,v0
    cbf4:	00862021 	addu	a0,a0,a2
    cbf8:	ace40000 	sw	a0,0(a3)
    cbfc:	ace50004 	sw	a1,4(a3)
    cc00:	8ee20608 	lw	v0,1544(s7)
    cc04:	a4f8000e 	sh	t8,14(a3)
    cc08:	acef0018 	sw	t7,24(a3)
    cc0c:	acea001c 	sw	t2,28(a3)
    cc10:	000210c0 	sll	v0,v0,0x3
    cc14:	2442060c 	addiu	v0,v0,1548
    cc18:	02e21021 	addu	v0,s7,v0
    cc1c:	ace20008 	sw	v0,8(a3)
    cc20:	8ee204c4 	lw	v0,1220(s7)
    cc24:	ace20010 	sw	v0,16(a3)
    cc28:	af880120 	sw	t0,288(gp)
    cc2c:	92e24e20 	lbu	v0,20000(s7)
    cc30:	14400033 	bnez	v0,0xcd00
    cc34:	24050001 	li	a1,1
    cc38:	8ee24e30 	lw	v0,20016(s7)
    cc3c:	000210c0 	sll	v0,v0,0x3
    cc40:	24425038 	addiu	v0,v0,20536
    cc44:	02e22021 	addu	a0,s7,v0
    cc48:	8c820000 	lw	v0,0(a0)
    cc4c:	144d001f 	bne	v0,t5,0xcccc
    cc50:	00000000 	nop
    cc54:	8ee34e30 	lw	v1,20016(s7)
    cc58:	8ee24e34 	lw	v0,20020(s7)
    cc5c:	1062001b 	beq	v1,v0,0xcccc
    cc60:	00000000 	nop
    cc64:	8c820004 	lw	v0,4(a0)
    cc68:	24420001 	addiu	v0,v0,1
    cc6c:	ac820004 	sw	v0,4(a0)
    cc70:	8ee24e34 	lw	v0,20020(s7)
    cc74:	8ee34e30 	lw	v1,20016(s7)
    cc78:	24420001 	addiu	v0,v0,1
    cc7c:	104c0007 	beq	v0,t4,0xcc9c
    cc80:	00000000 	nop
    cc84:	8ee24e34 	lw	v0,20020(s7)
    cc88:	24420001 	addiu	v0,v0,1
    cc8c:	10620005 	beq	v1,v0,0xcca4
    cc90:	00000000 	nop
    cc94:	0800432a 	j	0x10ca8
    cc98:	00000000 	nop
    cc9c:	14600005 	bnez	v1,0xccb4
    cca0:	00000000 	nop
    cca4:	8f820128 	lw	v0,296(gp)
    cca8:	24420020 	addiu	v0,v0,32
    ccac:	af820128 	sw	v0,296(gp)
    ccb0:	8f820128 	lw	v0,296(gp)
    ccb4:	8c820004 	lw	v0,4(a0)
    ccb8:	2c420011 	sltiu	v0,v0,17
    ccbc:	50400010 	beqzl	v0,0xcd00
    ccc0:	ac800000 	sw	zero,0(a0)
    ccc4:	0800433d 	j	0x10cf4
    ccc8:	00000000 	nop
    cccc:	8ee24e30 	lw	v0,20016(s7)
    ccd0:	24420001 	addiu	v0,v0,1
    ccd4:	504c0003 	beql	v0,t4,0xcce4
    ccd8:	00001021 	move	v0,zero
    ccdc:	8ee24e30 	lw	v0,20016(s7)
    cce0:	24420001 	addiu	v0,v0,1
    cce4:	aee24e30 	sw	v0,20016(s7)
    cce8:	8ee24e30 	lw	v0,20016(s7)
    ccec:	000210c0 	sll	v0,v0,0x3
    ccf0:	24425038 	addiu	v0,v0,20536
    ccf4:	02e22021 	addu	a0,s7,v0
    ccf8:	ac8d0000 	sw	t5,0(a0)
    ccfc:	ac8e0004 	sw	t6,4(a0)
    cd00:	54a00006 	bnezl	a1,0xcd1c
    cd04:	240b0001 	li	t3,1
    cd08:	8f820054 	lw	v0,84(gp)
    cd0c:	01221023 	subu	v0,t1,v0
    cd10:	2c420033 	sltiu	v0,v0,51
    cd14:	1440ff9d 	bnez	v0,0xcb8c
    cd18:	00000000 	nop
    cd1c:	316300ff 	andi	v1,t3,0xff
    cd20:	24020001 	li	v0,1
    cd24:	54620079 	bnel	v1,v0,0xcf0c
    cd28:	afa00010 	sw	zero,16(sp)
    cd2c:	aeea0608 	sw	t2,1544(s7)
    cd30:	8f830054 	lw	v1,84(gp)
    cd34:	8f820054 	lw	v0,84(gp)
    cd38:	24690032 	addiu	t1,v1,50
    cd3c:	01221023 	subu	v0,t1,v0
    cd40:	2c420033 	sltiu	v0,v0,51
    cd44:	10400061 	beqz	v0,0xcecc
    cd48:	00005821 	move	t3,zero
    cd4c:	240d0008 	li	t5,8
    cd50:	240c0011 	li	t4,17
    cd54:	24080012 	li	t0,18
    cd58:	24070040 	li	a3,64
    cd5c:	240a0001 	li	t2,1
    cd60:	8f830120 	lw	v1,288(gp)
    cd64:	27623800 	addiu	v0,k1,14336
    cd68:	24660020 	addiu	a2,v1,32
    cd6c:	00c2102b 	sltu	v0,a2,v0
    cd70:	50400001 	beqzl	v0,0xcd78
    cd74:	27663000 	addiu	a2,k1,12288
    cd78:	8f820128 	lw	v0,296(gp)
    cd7c:	10c20004 	beq	a2,v0,0xcd90
    cd80:	00000000 	nop
    cd84:	8f820124 	lw	v0,292(gp)
    cd88:	14c20007 	bne	a2,v0,0xcda8
    cd8c:	00000000 	nop
    cd90:	8ee201a4 	lw	v0,420(s7)
    cd94:	00002821 	move	a1,zero
    cd98:	24420001 	addiu	v0,v0,1
    cd9c:	aee201a4 	sw	v0,420(s7)
    cda0:	080043a9 	j	0x10ea4
    cda4:	8ee201a4 	lw	v0,420(s7)
    cda8:	8ee20608 	lw	v0,1544(s7)
    cdac:	ac62001c 	sw	v0,28(v1)
    cdb0:	8ee404a0 	lw	a0,1184(s7)
    cdb4:	8ee504a4 	lw	a1,1188(s7)
    cdb8:	2462001c 	addiu	v0,v1,28
    cdbc:	ac620008 	sw	v0,8(v1)
    cdc0:	a46d000e 	sh	t5,14(v1)
    cdc4:	ac6c0018 	sw	t4,24(v1)
    cdc8:	ac640000 	sw	a0,0(v1)
    cdcc:	ac650004 	sw	a1,4(v1)
    cdd0:	8ee204c4 	lw	v0,1220(s7)
    cdd4:	ac620010 	sw	v0,16(v1)
    cdd8:	af860120 	sw	a2,288(gp)
    cddc:	92e24e20 	lbu	v0,20000(s7)
    cde0:	14400033 	bnez	v0,0xceb0
    cde4:	24050001 	li	a1,1
    cde8:	8ee24e30 	lw	v0,20016(s7)
    cdec:	000210c0 	sll	v0,v0,0x3
    cdf0:	24425038 	addiu	v0,v0,20536
    cdf4:	02e22021 	addu	a0,s7,v0
    cdf8:	8c820000 	lw	v0,0(a0)
    cdfc:	1448001f 	bne	v0,t0,0xce7c
    ce00:	00000000 	nop
    ce04:	8ee34e30 	lw	v1,20016(s7)
    ce08:	8ee24e34 	lw	v0,20020(s7)
    ce0c:	1062001b 	beq	v1,v0,0xce7c
    ce10:	00000000 	nop
    ce14:	8c820004 	lw	v0,4(a0)
    ce18:	24420001 	addiu	v0,v0,1
    ce1c:	ac820004 	sw	v0,4(a0)
    ce20:	8ee24e34 	lw	v0,20020(s7)
    ce24:	8ee34e30 	lw	v1,20016(s7)
    ce28:	24420001 	addiu	v0,v0,1
    ce2c:	10470007 	beq	v0,a3,0xce4c
    ce30:	00000000 	nop
    ce34:	8ee24e34 	lw	v0,20020(s7)
    ce38:	24420001 	addiu	v0,v0,1
    ce3c:	10620005 	beq	v1,v0,0xce54
    ce40:	00000000 	nop
    ce44:	08004396 	j	0x10e58
    ce48:	00000000 	nop
    ce4c:	14600005 	bnez	v1,0xce64
    ce50:	00000000 	nop
    ce54:	8f820128 	lw	v0,296(gp)
    ce58:	24420020 	addiu	v0,v0,32
    ce5c:	af820128 	sw	v0,296(gp)
    ce60:	8f820128 	lw	v0,296(gp)
    ce64:	8c820004 	lw	v0,4(a0)
    ce68:	2c420011 	sltiu	v0,v0,17
    ce6c:	50400010 	beqzl	v0,0xceb0
    ce70:	ac800000 	sw	zero,0(a0)
    ce74:	080043a9 	j	0x10ea4
    ce78:	00000000 	nop
    ce7c:	8ee24e30 	lw	v0,20016(s7)
    ce80:	24420001 	addiu	v0,v0,1
    ce84:	50470003 	beql	v0,a3,0xce94
    ce88:	00001021 	move	v0,zero
    ce8c:	8ee24e30 	lw	v0,20016(s7)
    ce90:	24420001 	addiu	v0,v0,1
    ce94:	aee24e30 	sw	v0,20016(s7)
    ce98:	8ee24e30 	lw	v0,20016(s7)
    ce9c:	000210c0 	sll	v0,v0,0x3
    cea0:	24425038 	addiu	v0,v0,20536
    cea4:	02e22021 	addu	a0,s7,v0
    cea8:	ac880000 	sw	t0,0(a0)
    ceac:	ac8a0004 	sw	t2,4(a0)
    ceb0:	54a00006 	bnezl	a1,0xcecc
    ceb4:	240b0001 	li	t3,1
    ceb8:	8f820054 	lw	v0,84(gp)
    cebc:	01221023 	subu	v0,t1,v0
    cec0:	2c420033 	sltiu	v0,v0,51
    cec4:	1440ffa6 	bnez	v0,0xcd60
    cec8:	00000000 	nop
    cecc:	316300ff 	andi	v1,t3,0xff
    ced0:	24020001 	li	v0,1
    ced4:	54620003 	bnel	v1,v0,0xcee4
    ced8:	afa00010 	sw	zero,16(sp)
    cedc:	080043d6 	j	0x10f58
    cee0:	00000000 	nop
    cee4:	3c040001 	lui	a0,0x1
    cee8:	24845a20 	addiu	a0,a0,23072
    ceec:	afa00014 	sw	zero,20(sp)
    cef0:	8f860120 	lw	a2,288(gp)
    cef4:	8f870124 	lw	a3,292(gp)
    cef8:	3c050009 	lui	a1,0x9
    cefc:	0c002403 	jal	0x900c
    cf00:	34a5f011 	ori	a1,a1,0xf011
    cf04:	080043d6 	j	0x10f58
    cf08:	00000000 	nop
    cf0c:	3c040001 	lui	a0,0x1
    cf10:	24845a2c 	addiu	a0,a0,23084
    cf14:	afa00014 	sw	zero,20(sp)
    cf18:	8f860120 	lw	a2,288(gp)
    cf1c:	8f870124 	lw	a3,292(gp)
    cf20:	3c050009 	lui	a1,0x9
    cf24:	0c002403 	jal	0x900c
    cf28:	34a5f010 	ori	a1,a1,0xf010
    cf2c:	080043d6 	j	0x10f58
    cf30:	00000000 	nop
    cf34:	3c040001 	lui	a0,0x1
    cf38:	24845a38 	addiu	a0,a0,23096
    cf3c:	afa00014 	sw	zero,20(sp)
    cf40:	8ee60608 	lw	a2,1544(s7)
    cf44:	8f470228 	lw	a3,552(k0)
    cf48:	3c050009 	lui	a1,0x9
    cf4c:	0c002403 	jal	0x900c
    cf50:	34a5f00f 	ori	a1,a1,0xf00f
    cf54:	8ee201ac 	lw	v0,428(s7)
    cf58:	24420001 	addiu	v0,v0,1
    cf5c:	aee201ac 	sw	v0,428(s7)
    cf60:	8ee201ac 	lw	v0,428(s7)
    cf64:	8ee2015c 	lw	v0,348(s7)
    cf68:	24420001 	addiu	v0,v0,1
    cf6c:	aee2015c 	sw	v0,348(s7)
    cf70:	8ee2015c 	lw	v0,348(s7)
    cf74:	8fbf0020 	lw	ra,32(sp)
    cf78:	03e00008 	jr	ra
    cf7c:	27bd0028 	addiu	sp,sp,40
    cf80:	3c020001 	lui	v0,0x1
    cf84:	8c425cd8 	lw	v0,23768(v0)
    cf88:	27bdffe0 	addiu	sp,sp,-32
    cf8c:	1440000d 	bnez	v0,0xcfc4
    cf90:	afbf0018 	sw	ra,24(sp)
    cf94:	3c040001 	lui	a0,0x1
    cf98:	24845a44 	addiu	a0,a0,23108
    cf9c:	3c050008 	lui	a1,0x8
    cfa0:	afa00010 	sw	zero,16(sp)
    cfa4:	afa00014 	sw	zero,20(sp)
    cfa8:	8f860220 	lw	a2,544(gp)
    cfac:	34a50499 	ori	a1,a1,0x499
    cfb0:	24020001 	li	v0,1
    cfb4:	3c010001 	lui	at,0x1
    cfb8:	ac225cd8 	sw	v0,23768(at)
    cfbc:	0c002403 	jal	0x900c
    cfc0:	00003821 	move	a3,zero
    cfc4:	8ee204d0 	lw	v0,1232(s7)
    cfc8:	3c030001 	lui	v1,0x1
    cfcc:	00771821 	addu	v1,v1,s7
    cfd0:	946383b2 	lhu	v1,-31822(v1)
    cfd4:	34420001 	ori	v0,v0,0x1
    cfd8:	10600007 	beqz	v1,0xcff8
    cfdc:	aee204d0 	sw	v0,1232(s7)
    cfe0:	8f820220 	lw	v0,544(gp)
    cfe4:	3c0308ff 	lui	v1,0x8ff
    cfe8:	3463ffff 	ori	v1,v1,0xffff
    cfec:	00431024 	and	v0,v0,v1
    cff0:	34420008 	ori	v0,v0,0x8
    cff4:	af820220 	sw	v0,544(gp)
    cff8:	00002021 	move	a0,zero
    cffc:	0c0052a2 	jal	0x14a88
    d000:	24050004 	li	a1,4
    d004:	af420268 	sw	v0,616(k0)
    d008:	8fbf0018 	lw	ra,24(sp)
    d00c:	03e00008 	jr	ra
    d010:	27bd0020 	addiu	sp,sp,32
	...
    d10c:	3c120001 	lui	s2,0x1
    d110:	26521200 	addiu	s2,s2,4608
    d114:	3c140001 	lui	s4,0x1
    d118:	8e945c50 	lw	s4,23632(s4)
    d11c:	3c100001 	lui	s0,0x1
    d120:	26101120 	addiu	s0,s0,4384
    d124:	3c15c000 	lui	s5,0xc000
    d128:	36b50060 	ori	s5,s5,0x60
    d12c:	8e8a0000 	lw	t2,0(s4)
    d130:	8eb30000 	lw	s3,0(s5)
    d134:	026a400b 	.word	0x26a400b
    d138:	0248000a 	.word	0x248000a
    d13c:	0200f821 	move	ra,s0
    d140:	00000000 	nop
    d144:	0000000d 	break
	...
    d20c:	080014d6 	j	0x5358
    d210:	00000000 	nop
    d214:	080014d8 	j	0x5360
    d218:	3c0a0001 	lui	t2,0x1
    d21c:	080014d8 	j	0x5360
    d220:	3c0a0002 	lui	t2,0x2
    d224:	080014d8 	j	0x5360
    d228:	00000000 	nop
    d22c:	080024a6 	j	0x9298
    d230:	00000000 	nop
    d234:	080014d8 	j	0x5360
    d238:	3c0a0003 	lui	t2,0x3
    d23c:	080014d8 	j	0x5360
    d240:	3c0a0004 	lui	t2,0x4
    d244:	08002f8c 	j	0xbe30
    d248:	00000000 	nop
    d24c:	080014d8 	j	0x5360
    d250:	3c0a0005 	lui	t2,0x5
    d254:	08003ce8 	j	0xf3a0
    d258:	00000000 	nop
    d25c:	08003c66 	j	0xf198
    d260:	00000000 	nop
    d264:	080014d8 	j	0x5360
    d268:	3c0a0006 	lui	t2,0x6
    d26c:	080014d8 	j	0x5360
    d270:	3c0a0007 	lui	t2,0x7
    d274:	080014d8 	j	0x5360
    d278:	00000000 	nop
    d27c:	080014d8 	j	0x5360
    d280:	00000000 	nop
    d284:	080014d8 	j	0x5360
    d288:	00000000 	nop
    d28c:	08002a75 	j	0xa9d4
    d290:	00000000 	nop
    d294:	080014d8 	j	0x5360
    d298:	3c0a000b 	lui	t2,0xb
    d29c:	080014d8 	j	0x5360
    d2a0:	3c0a000c 	lui	t2,0xc
    d2a4:	080014d8 	j	0x5360
    d2a8:	3c0a000d 	lui	t2,0xd
    d2ac:	0800237a 	j	0x8de8
    d2b0:	00000000 	nop
    d2b4:	08002339 	j	0x8ce4
    d2b8:	00000000 	nop
    d2bc:	080014d8 	j	0x5360
    d2c0:	3c0a000e 	lui	t2,0xe
    d2c4:	08001b3c 	j	0x6cf0
    d2c8:	00000000 	nop
    d2cc:	080024a4 	j	0x9290
    d2d0:	00000000 	nop
    d2d4:	080014d8 	j	0x5360
    d2d8:	3c0a000f 	lui	t2,0xf
    d2dc:	080040a7 	j	0x1029c
    d2e0:	00000000 	nop
    d2e4:	08004091 	j	0x10244
    d2e8:	00000000 	nop
    d2ec:	080014d8 	j	0x5360
    d2f0:	3c0a0010 	lui	t2,0x10
    d2f4:	080014ee 	j	0x53b8
    d2f8:	00000000 	nop
    d2fc:	080014d8 	j	0x5360
    d300:	3c0a0011 	lui	t2,0x11
    d304:	080014d8 	j	0x5360
    d308:	3c0a0012 	lui	t2,0x12
    d30c:	080014d8 	j	0x5360
    d310:	3c0a0013 	lui	t2,0x13
	...
    d40c:	3c030001 	lui	v1,0x1
    d410:	34633800 	ori	v1,v1,0x3800
    d414:	24050080 	li	a1,128
    d418:	2404001f 	li	a0,31
    d41c:	2406ffff 	li	a2,-1
    d420:	24020001 	li	v0,1
    d424:	af80021c 	sw	zero,540(gp)
    d428:	af820200 	sw	v0,512(gp)
    d42c:	af820220 	sw	v0,544(gp)
    d430:	03631021 	addu	v0,k1,v1
    d434:	af8200c0 	sw	v0,192(gp)
    d438:	03631021 	addu	v0,k1,v1
    d43c:	af8200c4 	sw	v0,196(gp)
    d440:	03631021 	addu	v0,k1,v1
    d444:	af8200c8 	sw	v0,200(gp)
    d448:	27623800 	addiu	v0,k1,14336
    d44c:	af8200d0 	sw	v0,208(gp)
    d450:	27623800 	addiu	v0,k1,14336
    d454:	af8200d4 	sw	v0,212(gp)
    d458:	27623800 	addiu	v0,k1,14336
    d45c:	af8200d8 	sw	v0,216(gp)
    d460:	27621800 	addiu	v0,k1,6144
    d464:	af8200e0 	sw	v0,224(gp)
    d468:	27621800 	addiu	v0,k1,6144
    d46c:	af8200e4 	sw	v0,228(gp)
    d470:	27621800 	addiu	v0,k1,6144
    d474:	af8200e8 	sw	v0,232(gp)
    d478:	27621000 	addiu	v0,k1,4096
    d47c:	af8200f0 	sw	v0,240(gp)
    d480:	27621000 	addiu	v0,k1,4096
    d484:	af8200f4 	sw	v0,244(gp)
    d488:	27621000 	addiu	v0,k1,4096
    d48c:	af8200f8 	sw	v0,248(gp)
    d490:	aca00000 	sw	zero,0(a1)
    d494:	2484ffff 	addiu	a0,a0,-1
    d498:	1486fffd 	bne	a0,a2,0xd490
    d49c:	24a50004 	addiu	a1,a1,4
    d4a0:	8f830040 	lw	v1,64(gp)
    d4a4:	3c02f000 	lui	v0,0xf000
    d4a8:	00621824 	and	v1,v1,v0
    d4ac:	3c025000 	lui	v0,0x5000
    d4b0:	1062000c 	beq	v1,v0,0xd4e4
    d4b4:	0043102b 	sltu	v0,v0,v1
    d4b8:	14400006 	bnez	v0,0xd4d4
    d4bc:	3c026000 	lui	v0,0x6000
    d4c0:	3c024000 	lui	v0,0x4000
    d4c4:	10620008 	beq	v1,v0,0xd4e8
    d4c8:	24020800 	li	v0,2048
    d4cc:	08004539 	j	0x114e4
    d4d0:	00000000 	nop
    d4d4:	10620004 	beq	v1,v0,0xd4e8
    d4d8:	24020800 	li	v0,2048
    d4dc:	08004539 	j	0x114e4
    d4e0:	00000000 	nop
    d4e4:	24020700 	li	v0,1792
    d4e8:	3c010001 	lui	at,0x1
    d4ec:	ac225cdc 	sw	v0,23772(at)
    d4f0:	03e00008 	jr	ra
    d4f4:	00000000 	nop
    d4f8:	27bdffd8 	addiu	sp,sp,-40
    d4fc:	afbf0024 	sw	ra,36(sp)
    d500:	afb00020 	sw	s0,32(sp)
    d504:	8f830054 	lw	v1,84(gp)
    d508:	8f820054 	lw	v0,84(gp)
    d50c:	3c010001 	lui	at,0x1
    d510:	ac205cc4 	sw	zero,23748(at)
    d514:	08004545 	j	0x11514
    d518:	24630064 	addiu	v1,v1,100
    d51c:	8f820054 	lw	v0,84(gp)
    d520:	00621023 	subu	v0,v1,v0
    d524:	2c420065 	sltiu	v0,v0,101
    d528:	1440fffc 	bnez	v0,0xd51c
    d52c:	00000000 	nop
    d530:	0c004d71 	jal	0x135c4
    d534:	00000000 	nop
    d538:	24040001 	li	a0,1
    d53c:	00002821 	move	a1,zero
    d540:	27a60018 	addiu	a2,sp,24
    d544:	34028000 	li	v0,0x8000
    d548:	0c00498e 	jal	0x12638
    d54c:	a7a20018 	sh	v0,24(sp)
    d550:	8f830054 	lw	v1,84(gp)
    d554:	8f820054 	lw	v0,84(gp)
    d558:	08004556 	j	0x11558
    d55c:	24630064 	addiu	v1,v1,100
    d560:	8f820054 	lw	v0,84(gp)
    d564:	00621023 	subu	v0,v1,v0
    d568:	2c420065 	sltiu	v0,v0,101
    d56c:	1440fffc 	bnez	v0,0xd560
    d570:	24040001 	li	a0,1
    d574:	24050001 	li	a1,1
    d578:	0c00494c 	jal	0x12530
    d57c:	27a60018 	addiu	a2,sp,24
    d580:	8f830054 	lw	v1,84(gp)
    d584:	8f820054 	lw	v0,84(gp)
    d588:	08004562 	j	0x11588
    d58c:	24630064 	addiu	v1,v1,100
    d590:	8f820054 	lw	v0,84(gp)
    d594:	00621023 	subu	v0,v1,v0
    d598:	2c420065 	sltiu	v0,v0,101
    d59c:	1440fffc 	bnez	v0,0xd590
    d5a0:	24040001 	li	a0,1
    d5a4:	24050001 	li	a1,1
    d5a8:	0c00494c 	jal	0x12530
    d5ac:	27a60018 	addiu	a2,sp,24
    d5b0:	8f830054 	lw	v1,84(gp)
    d5b4:	8f820054 	lw	v0,84(gp)
    d5b8:	0800456e 	j	0x115b8
    d5bc:	24630064 	addiu	v1,v1,100
    d5c0:	8f820054 	lw	v0,84(gp)
    d5c4:	00621023 	subu	v0,v1,v0
    d5c8:	2c420065 	sltiu	v0,v0,101
    d5cc:	1440fffc 	bnez	v0,0xd5c0
    d5d0:	24040001 	li	a0,1
    d5d4:	3c060001 	lui	a2,0x1
    d5d8:	24c65da0 	addiu	a2,a2,23968
    d5dc:	0c00494c 	jal	0x12530
    d5e0:	24050002 	li	a1,2
    d5e4:	8f830054 	lw	v1,84(gp)
    d5e8:	8f820054 	lw	v0,84(gp)
    d5ec:	0800457b 	j	0x115ec
    d5f0:	24630064 	addiu	v1,v1,100
    d5f4:	8f820054 	lw	v0,84(gp)
    d5f8:	00621023 	subu	v0,v1,v0
    d5fc:	2c420065 	sltiu	v0,v0,101
    d600:	1440fffc 	bnez	v0,0xd5f4
    d604:	24040001 	li	a0,1
    d608:	24050003 	li	a1,3
    d60c:	3c100001 	lui	s0,0x1
    d610:	26105da2 	addiu	s0,s0,23970
    d614:	0c00494c 	jal	0x12530
    d618:	02003021 	move	a2,s0
    d61c:	97a60018 	lhu	a2,24(sp)
    d620:	3c070001 	lui	a3,0x1
    d624:	94e75da0 	lhu	a3,23968(a3)
    d628:	3c040001 	lui	a0,0x1
    d62c:	24845ab0 	addiu	a0,a0,23216
    d630:	afa00014 	sw	zero,20(sp)
    d634:	96020000 	lhu	v0,0(s0)
    d638:	3c05000d 	lui	a1,0xd
    d63c:	34a50100 	ori	a1,a1,0x100
    d640:	0c002403 	jal	0x900c
    d644:	afa20010 	sw	v0,16(sp)
    d648:	97a20018 	lhu	v0,24(sp)
    d64c:	1040004c 	beqz	v0,0xd780
    d650:	24036040 	li	v1,24640
    d654:	96020000 	lhu	v0,0(s0)
    d658:	3042fff0 	andi	v0,v0,0xfff0
    d65c:	1443000a 	bne	v0,v1,0xd688
    d660:	24020020 	li	v0,32
    d664:	3c030001 	lui	v1,0x1
    d668:	94635da0 	lhu	v1,23968(v1)
    d66c:	54620009 	bnel	v1,v0,0xd694
    d670:	24027830 	li	v0,30768
    d674:	24020003 	li	v0,3
    d678:	3c010001 	lui	at,0x1
    d67c:	ac225cc4 	sw	v0,23748(at)
    d680:	080045ac 	j	0x116b0
    d684:	24020005 	li	v0,5
    d688:	3c030001 	lui	v1,0x1
    d68c:	94635da0 	lhu	v1,23968(v1)
    d690:	24027830 	li	v0,30768
    d694:	1462000f 	bne	v1,v0,0xd6d4
    d698:	24030010 	li	v1,16
    d69c:	3c020001 	lui	v0,0x1
    d6a0:	94425da2 	lhu	v0,23970(v0)
    d6a4:	3042fff0 	andi	v0,v0,0xfff0
    d6a8:	1443000a 	bne	v0,v1,0xd6d4
    d6ac:	24020003 	li	v0,3
    d6b0:	3c010001 	lui	at,0x1
    d6b4:	ac225cc4 	sw	v0,23748(at)
    d6b8:	24020006 	li	v0,6
    d6bc:	3c010001 	lui	at,0x1
    d6c0:	ac225db0 	sw	v0,23984(at)
    d6c4:	3c010001 	lui	at,0x1
    d6c8:	ac225dbc 	sw	v0,23996(at)
    d6cc:	080045e6 	j	0x11798
    d6d0:	3c09fff0 	lui	t1,0xfff0
    d6d4:	3c020001 	lui	v0,0x1
    d6d8:	8c425cc4 	lw	v0,23748(v0)
    d6dc:	3c030001 	lui	v1,0x1
    d6e0:	94635da0 	lhu	v1,23968(v1)
    d6e4:	34420001 	ori	v0,v0,0x1
    d6e8:	3c010001 	lui	at,0x1
    d6ec:	ac225cc4 	sw	v0,23748(at)
    d6f0:	24020015 	li	v0,21
    d6f4:	1462000f 	bne	v1,v0,0xd734
    d6f8:	00000000 	nop
    d6fc:	3c020001 	lui	v0,0x1
    d700:	94425da2 	lhu	v0,23970(v0)
    d704:	3042fff0 	andi	v0,v0,0xfff0
    d708:	3843f420 	xori	v1,v0,0xf420
    d70c:	2c630001 	sltiu	v1,v1,1
    d710:	3842f430 	xori	v0,v0,0xf430
    d714:	2c420001 	sltiu	v0,v0,1
    d718:	00621825 	or	v1,v1,v0
    d71c:	10600005 	beqz	v1,0xd734
    d720:	24020003 	li	v0,3
    d724:	3c010001 	lui	at,0x1
    d728:	ac225dbc 	sw	v0,23996(at)
    d72c:	080045e6 	j	0x11798
    d730:	3c09fff0 	lui	t1,0xfff0
    d734:	3c030001 	lui	v1,0x1
    d738:	94635da0 	lhu	v1,23968(v1)
    d73c:	24027810 	li	v0,30736
    d740:	1462000b 	bne	v1,v0,0xd770
    d744:	24020002 	li	v0,2
    d748:	3c020001 	lui	v0,0x1
    d74c:	94425da2 	lhu	v0,23970(v0)
    d750:	3042fff0 	andi	v0,v0,0xfff0
    d754:	14400006 	bnez	v0,0xd770
    d758:	24020002 	li	v0,2
    d75c:	24020004 	li	v0,4
    d760:	3c010001 	lui	at,0x1
    d764:	ac225dbc 	sw	v0,23996(at)
    d768:	080045e6 	j	0x11798
    d76c:	3c09fff0 	lui	t1,0xfff0
    d770:	3c010001 	lui	at,0x1
    d774:	ac225dbc 	sw	v0,23996(at)
    d778:	080045e6 	j	0x11798
    d77c:	3c09fff0 	lui	t1,0xfff0
    d780:	3c020001 	lui	v0,0x1
    d784:	8c425cc4 	lw	v0,23748(v0)
    d788:	24030001 	li	v1,1
    d78c:	3c010001 	lui	at,0x1
    d790:	ac235dbc 	sw	v1,23996(at)
    d794:	34420004 	ori	v0,v0,0x4
    d798:	3c010001 	lui	at,0x1
    d79c:	ac225cc4 	sw	v0,23748(at)
    d7a0:	3c09fff0 	lui	t1,0xfff0
    d7a4:	3529bdc0 	ori	t1,t1,0xbdc0
    d7a8:	3c060001 	lui	a2,0x1
    d7ac:	8cc65cc4 	lw	a2,23748(a2)
    d7b0:	3c040001 	lui	a0,0x1
    d7b4:	24845ab0 	addiu	a0,a0,23216
    d7b8:	24020001 	li	v0,1
    d7bc:	3c010001 	lui	at,0x1
    d7c0:	ac225ccc 	sw	v0,23756(at)
    d7c4:	8f820054 	lw	v0,84(gp)
    d7c8:	3c070001 	lui	a3,0x1
    d7cc:	8ce75dbc 	lw	a3,23996(a3)
    d7d0:	3c030001 	lui	v1,0x1
    d7d4:	94635da0 	lhu	v1,23968(v1)
    d7d8:	3c080001 	lui	t0,0x1
    d7dc:	95085da2 	lhu	t0,23970(t0)
    d7e0:	3c05000d 	lui	a1,0xd
    d7e4:	34a50100 	ori	a1,a1,0x100
    d7e8:	3c010001 	lui	at,0x1
    d7ec:	ac205cc8 	sw	zero,23752(at)
    d7f0:	00491021 	addu	v0,v0,t1
    d7f4:	3c010001 	lui	at,0x1
    d7f8:	ac225dac 	sw	v0,23980(at)
    d7fc:	afa30010 	sw	v1,16(sp)
    d800:	0c002403 	jal	0x900c
    d804:	afa80014 	sw	t0,20(sp)
    d808:	8fbf0024 	lw	ra,36(sp)
    d80c:	8fb00020 	lw	s0,32(sp)
    d810:	03e00008 	jr	ra
    d814:	27bd0028 	addiu	sp,sp,40
    d818:	27bdffe8 	addiu	sp,sp,-24
    d81c:	3c050001 	lui	a1,0x1
    d820:	8ca55cc8 	lw	a1,23752(a1)
    d824:	24060004 	li	a2,4
    d828:	24020001 	li	v0,1
    d82c:	14a20014 	bne	a1,v0,0xd880
    d830:	afbf0010 	sw	ra,16(sp)
    d834:	3c020001 	lui	v0,0x1
    d838:	8c427e3c 	lw	v0,32316(v0)
    d83c:	30428000 	andi	v0,v0,0x8000
    d840:	10400005 	beqz	v0,0xd858
    d844:	3c04000f 	lui	a0,0xf
    d848:	3c030001 	lui	v1,0x1
    d84c:	8c635dbc 	lw	v1,23996(v1)
    d850:	08004617 	j	0x1185c
    d854:	34844240 	ori	a0,a0,0x4240
    d858:	3c040004 	lui	a0,0x4
    d85c:	3c030001 	lui	v1,0x1
    d860:	8c635dbc 	lw	v1,23996(v1)
    d864:	348493e0 	ori	a0,a0,0x93e0
    d868:	24020005 	li	v0,5
    d86c:	14620016 	bne	v1,v0,0xd8c8
    d870:	00000000 	nop
    d874:	3c04003d 	lui	a0,0x3d
    d878:	0800462f 	j	0x118bc
    d87c:	34840900 	ori	a0,a0,0x900
    d880:	3c020001 	lui	v0,0x1
    d884:	8c427e38 	lw	v0,32312(v0)
    d888:	30428000 	andi	v0,v0,0x8000
    d88c:	10400005 	beqz	v0,0xd8a4
    d890:	3c04001e 	lui	a0,0x1e
    d894:	3c030001 	lui	v1,0x1
    d898:	8c635dbc 	lw	v1,23996(v1)
    d89c:	0800462a 	j	0x118a8
    d8a0:	34848480 	ori	a0,a0,0x8480
    d8a4:	3c04000f 	lui	a0,0xf
    d8a8:	3c030001 	lui	v1,0x1
    d8ac:	8c635dbc 	lw	v1,23996(v1)
    d8b0:	34844240 	ori	a0,a0,0x4240
    d8b4:	24020005 	li	v0,5
    d8b8:	14620003 	bne	v1,v0,0xd8c8
    d8bc:	00000000 	nop
    d8c0:	3c04007a 	lui	a0,0x7a
    d8c4:	34841200 	ori	a0,a0,0x1200
    d8c8:	3c020001 	lui	v0,0x1
    d8cc:	8c425dac 	lw	v0,23980(v0)
    d8d0:	8f830054 	lw	v1,84(gp)
    d8d4:	00441021 	addu	v0,v0,a0
    d8d8:	00431023 	subu	v0,v0,v1
    d8dc:	0044102b 	sltu	v0,v0,a0
    d8e0:	14400037 	bnez	v0,0xd9c0
    d8e4:	00000000 	nop
    d8e8:	3c020001 	lui	v0,0x1
    d8ec:	8c425cd0 	lw	v0,23760(v0)
    d8f0:	14400033 	bnez	v0,0xd9c0
    d8f4:	00000000 	nop
    d8f8:	3c010001 	lui	at,0x1
    d8fc:	10c00025 	beqz	a2,0xd994
    d900:	ac205ce0 	sw	zero,23776(at)
    d904:	3c090001 	lui	t1,0x1
    d908:	8d295cc4 	lw	t1,23748(t1)
    d90c:	24070001 	li	a3,1
    d910:	3c044000 	lui	a0,0x4000
    d914:	3c080001 	lui	t0,0x1
    d918:	25087e3c 	addiu	t0,t0,32316
    d91c:	250afffc 	addiu	t2,t0,-4
    d920:	00052842 	srl	a1,a1,0x1
    d924:	14a00002 	bnez	a1,0xd930
    d928:	24c6ffff 	addiu	a2,a2,-1
    d92c:	24050008 	li	a1,8
    d930:	00a91024 	and	v0,a1,t1
    d934:	10400010 	beqz	v0,0xd978
    d938:	00000000 	nop
    d93c:	14a70008 	bne	a1,a3,0xd960
    d940:	00000000 	nop
    d944:	8d020000 	lw	v0,0(t0)
    d948:	00441024 	and	v0,v0,a0
    d94c:	1040000a 	beqz	v0,0xd978
    d950:	00000000 	nop
    d954:	3c010001 	lui	at,0x1
    d958:	0800465b 	j	0x1196c
    d95c:	ac255ce0 	sw	a1,23776(at)
    d960:	8d420000 	lw	v0,0(t2)
    d964:	00441024 	and	v0,v0,a0
    d968:	10400003 	beqz	v0,0xd978
    d96c:	00000000 	nop
    d970:	3c010001 	lui	at,0x1
    d974:	ac275ce0 	sw	a3,23776(at)
    d978:	3c020001 	lui	v0,0x1
    d97c:	8c425ce0 	lw	v0,23776(v0)
    d980:	0006182b 	sltu	v1,zero,a2
    d984:	2c420001 	sltiu	v0,v0,1
    d988:	00431024 	and	v0,v0,v1
    d98c:	5440ffe5 	bnezl	v0,0xd924
    d990:	00052842 	srl	a1,a1,0x1
    d994:	8f820054 	lw	v0,84(gp)
    d998:	3c030001 	lui	v1,0x1
    d99c:	8c635ce0 	lw	v1,23776(v1)
    d9a0:	3c010001 	lui	at,0x1
    d9a4:	ac225dac 	sw	v0,23980(at)
    d9a8:	1060002a 	beqz	v1,0xda54
    d9ac:	24020001 	li	v0,1
    d9b0:	3c010001 	lui	at,0x1
    d9b4:	ac255cc8 	sw	a1,23752(at)
    d9b8:	3c010001 	lui	at,0x1
    d9bc:	ac225ccc 	sw	v0,23756(at)
    d9c0:	3c020001 	lui	v0,0x1
    d9c4:	8c425ce0 	lw	v0,23776(v0)
    d9c8:	10400022 	beqz	v0,0xda54
    d9cc:	00000000 	nop
    d9d0:	3c020001 	lui	v0,0x1
    d9d4:	8c425ccc 	lw	v0,23756(v0)
    d9d8:	1040000a 	beqz	v0,0xda04
    d9dc:	24020001 	li	v0,1
    d9e0:	3c010001 	lui	at,0x1
    d9e4:	ac205ccc 	sw	zero,23756(at)
    d9e8:	3c010001 	lui	at,0x1
    d9ec:	00370821 	addu	at,at,s7
    d9f0:	ac2283ac 	sw	v0,-31828(at)
    d9f4:	3c010001 	lui	at,0x1
    d9f8:	ac205d4c 	sw	zero,23884(at)
    d9fc:	3c010001 	lui	at,0x1
    da00:	ac225d04 	sw	v0,23812(at)
    da04:	3c030001 	lui	v1,0x1
    da08:	00771821 	addu	v1,v1,s7
    da0c:	8c6383ac 	lw	v1,-31828(v1)
    da10:	24020008 	li	v0,8
    da14:	10620005 	beq	v1,v0,0xda2c
    da18:	24020001 	li	v0,1
    da1c:	0c004695 	jal	0x11a54
    da20:	00000000 	nop
    da24:	08004692 	j	0x11a48
    da28:	00000000 	nop
    da2c:	3c030001 	lui	v1,0x1
    da30:	8c635cc8 	lw	v1,23752(v1)
    da34:	10620007 	beq	v1,v0,0xda54
    da38:	2402000e 	li	v0,14
    da3c:	3c030001 	lui	v1,0x1
    da40:	8c637dd0 	lw	v1,32208(v1)
    da44:	10620003 	beq	v1,v0,0xda54
    da48:	00000000 	nop
    da4c:	0c004e54 	jal	0x13950
    da50:	8f840220 	lw	a0,544(gp)
    da54:	8fbf0010 	lw	ra,16(sp)
    da58:	03e00008 	jr	ra
    da5c:	27bd0018 	addiu	sp,sp,24
    da60:	27bdffe0 	addiu	sp,sp,-32
    da64:	3c02fdff 	lui	v0,0xfdff
    da68:	afbf0018 	sw	ra,24(sp)
    da6c:	8ee30000 	lw	v1,0(s7)
    da70:	3c050001 	lui	a1,0x1
    da74:	8ca55cc8 	lw	a1,23752(a1)
    da78:	3c040001 	lui	a0,0x1
    da7c:	8c845cf0 	lw	a0,23792(a0)
    da80:	3442ffff 	ori	v0,v0,0xffff
    da84:	00621824 	and	v1,v1,v0
    da88:	14a40008 	bne	a1,a0,0xdaac
    da8c:	aee30000 	sw	v1,0(s7)
    da90:	3c030001 	lui	v1,0x1
    da94:	00771821 	addu	v1,v1,s7
    da98:	8c6383ac 	lw	v1,-31828(v1)
    da9c:	3c020001 	lui	v0,0x1
    daa0:	8c425cf4 	lw	v0,23796(v0)
    daa4:	10620008 	beq	v1,v0,0xdac8
    daa8:	00000000 	nop
    daac:	3c020001 	lui	v0,0x1
    dab0:	00571021 	addu	v0,v0,s7
    dab4:	8c4283ac 	lw	v0,-31828(v0)
    dab8:	3c010001 	lui	at,0x1
    dabc:	ac255cf0 	sw	a1,23792(at)
    dac0:	3c010001 	lui	at,0x1
    dac4:	ac225cf4 	sw	v0,23796(at)
    dac8:	3c030001 	lui	v1,0x1
    dacc:	8c635cc8 	lw	v1,23752(v1)
    dad0:	24020002 	li	v0,2
    dad4:	10620169 	beq	v1,v0,0xe07c
    dad8:	2c620003 	sltiu	v0,v1,3
    dadc:	10400005 	beqz	v0,0xdaf4
    dae0:	24020001 	li	v0,1
    dae4:	10620008 	beq	v1,v0,0xdb08
    dae8:	00000000 	nop
    daec:	0800481c 	j	0x12070
    daf0:	00000000 	nop
    daf4:	24020004 	li	v0,4
    daf8:	106200b1 	beq	v1,v0,0xddc0
    dafc:	24020001 	li	v0,1
    db00:	0800481d 	j	0x12074
    db04:	00000000 	nop
    db08:	3c020001 	lui	v0,0x1
    db0c:	00571021 	addu	v0,v0,s7
    db10:	8c4283ac 	lw	v0,-31828(v0)
    db14:	2443ffff 	addiu	v1,v0,-1
    db18:	2c620008 	sltiu	v0,v1,8
    db1c:	1040015a 	beqz	v0,0xe088
    db20:	00031080 	sll	v0,v1,0x2
    db24:	3c010001 	lui	at,0x1
    db28:	00220821 	addu	at,at,v0
    db2c:	8c225ac8 	lw	v0,23240(at)
    db30:	00400008 	jr	v0
    db34:	00000000 	nop
    db38:	3c030001 	lui	v1,0x1
    db3c:	8c635dbc 	lw	v1,23996(v1)
    db40:	24020005 	li	v0,5
    db44:	14620014 	bne	v1,v0,0xdb98
    db48:	00000000 	nop
    db4c:	3c020001 	lui	v0,0x1
    db50:	8c425cd4 	lw	v0,23764(v0)
    db54:	1040000a 	beqz	v0,0xdb80
    db58:	24020003 	li	v0,3
    db5c:	0c004822 	jal	0x12088
    db60:	00000000 	nop
    db64:	24020002 	li	v0,2
    db68:	3c010001 	lui	at,0x1
    db6c:	00370821 	addu	at,at,s7
    db70:	ac2283ac 	sw	v0,-31828(at)
    db74:	3c010001 	lui	at,0x1
    db78:	080046e0 	j	0x11b80
    db7c:	ac205cd4 	sw	zero,23764(at)
    db80:	3c010001 	lui	at,0x1
    db84:	00370821 	addu	at,at,s7
    db88:	ac2283ac 	sw	v0,-31828(at)
    db8c:	3c010001 	lui	at,0x1
    db90:	0800481f 	j	0x1207c
    db94:	ac205c60 	sw	zero,23648(at)
    db98:	0c004822 	jal	0x12088
    db9c:	00000000 	nop
    dba0:	3c020001 	lui	v0,0x1
    dba4:	8c425cd4 	lw	v0,23764(v0)
    dba8:	3c010001 	lui	at,0x1
    dbac:	ac205c60 	sw	zero,23648(at)
    dbb0:	104000dd 	beqz	v0,0xdf28
    dbb4:	24020002 	li	v0,2
    dbb8:	3c010001 	lui	at,0x1
    dbbc:	00370821 	addu	at,at,s7
    dbc0:	ac2283ac 	sw	v0,-31828(at)
    dbc4:	3c010001 	lui	at,0x1
    dbc8:	0800481f 	j	0x1207c
    dbcc:	ac205cd4 	sw	zero,23764(at)
    dbd0:	3c030001 	lui	v1,0x1
    dbd4:	8c635dbc 	lw	v1,23996(v1)
    dbd8:	24020005 	li	v0,5
    dbdc:	14620003 	bne	v1,v0,0xdbec
    dbe0:	24020001 	li	v0,1
    dbe4:	3c010001 	lui	at,0x1
    dbe8:	ac225d00 	sw	v0,23808(at)
    dbec:	0c0049cf 	jal	0x1273c
    dbf0:	00000000 	nop
    dbf4:	3c030001 	lui	v1,0x1
    dbf8:	8c635d00 	lw	v1,23808(v1)
    dbfc:	0800478e 	j	0x11e38
    dc00:	24020011 	li	v0,17
    dc04:	3c050001 	lui	a1,0x1
    dc08:	8ca55cc8 	lw	a1,23752(a1)
    dc0c:	3c060001 	lui	a2,0x1
    dc10:	8cc67e3c 	lw	a2,32316(a2)
    dc14:	0c005108 	jal	0x14420
    dc18:	00002021 	move	a0,zero
    dc1c:	24020005 	li	v0,5
    dc20:	3c010001 	lui	at,0x1
    dc24:	ac205cd4 	sw	zero,23764(at)
    dc28:	3c010001 	lui	at,0x1
    dc2c:	00370821 	addu	at,at,s7
    dc30:	0800481f 	j	0x1207c
    dc34:	ac2283ac 	sw	v0,-31828(at)
    dc38:	3c040001 	lui	a0,0x1
    dc3c:	24845abc 	addiu	a0,a0,23228
    dc40:	3c05000f 	lui	a1,0xf
    dc44:	34a50100 	ori	a1,a1,0x100
    dc48:	00003021 	move	a2,zero
    dc4c:	00003821 	move	a3,zero
    dc50:	afa00010 	sw	zero,16(sp)
    dc54:	0c002403 	jal	0x900c
    dc58:	afa00014 	sw	zero,20(sp)
    dc5c:	0800481f 	j	0x1207c
    dc60:	00000000 	nop
    dc64:	8f820220 	lw	v0,544(gp)
    dc68:	3c03f700 	lui	v1,0xf700
    dc6c:	00431025 	or	v0,v0,v1
    dc70:	080047b7 	j	0x11edc
    dc74:	af820220 	sw	v0,544(gp)
    dc78:	8f820220 	lw	v0,544(gp)
    dc7c:	3c030004 	lui	v1,0x4
    dc80:	00431024 	and	v0,v0,v1
    dc84:	144000a9 	bnez	v0,0xdf2c
    dc88:	24020007 	li	v0,7
    dc8c:	8f830054 	lw	v1,84(gp)
    dc90:	3c020001 	lui	v0,0x1
    dc94:	8c425da4 	lw	v0,23972(v0)
    dc98:	2463d8f0 	addiu	v1,v1,-10000
    dc9c:	00431023 	subu	v0,v0,v1
    dca0:	2c422710 	sltiu	v0,v0,10000
    dca4:	144000f8 	bnez	v0,0xe088
    dca8:	24020001 	li	v0,1
    dcac:	0800481d 	j	0x12074
    dcb0:	00000000 	nop
    dcb4:	3c050001 	lui	a1,0x1
    dcb8:	8ca55cc8 	lw	a1,23752(a1)
    dcbc:	0c0052a2 	jal	0x14a88
    dcc0:	00002021 	move	a0,zero
    dcc4:	0c005386 	jal	0x14e18
    dcc8:	00002021 	move	a0,zero
    dccc:	3c030001 	lui	v1,0x1
    dcd0:	8c637e34 	lw	v1,32308(v1)
    dcd4:	046100ea 	bgez	v1,0xe080
    dcd8:	24020001 	li	v0,1
    dcdc:	3c020008 	lui	v0,0x8
    dce0:	00621024 	and	v0,v1,v0
    dce4:	10400006 	beqz	v0,0xdd00
    dce8:	00000000 	nop
    dcec:	8f820214 	lw	v0,532(gp)
    dcf0:	3c03ffff 	lui	v1,0xffff
    dcf4:	00431024 	and	v0,v0,v1
    dcf8:	08004741 	j	0x11d04
    dcfc:	3442251f 	ori	v0,v0,0x251f
    dd00:	8f820214 	lw	v0,532(gp)
    dd04:	3c03ffff 	lui	v1,0xffff
    dd08:	00431024 	and	v0,v0,v1
    dd0c:	3442241f 	ori	v0,v0,0x241f
    dd10:	af820214 	sw	v0,532(gp)
    dd14:	8ee20000 	lw	v0,0(s7)
    dd18:	3c030200 	lui	v1,0x200
    dd1c:	00431025 	or	v0,v0,v1
    dd20:	aee20000 	sw	v0,0(s7)
    dd24:	8f820220 	lw	v0,544(gp)
    dd28:	2403fffb 	li	v1,-5
    dd2c:	00431024 	and	v0,v0,v1
    dd30:	af820220 	sw	v0,544(gp)
    dd34:	8f820220 	lw	v0,544(gp)
    dd38:	34420002 	ori	v0,v0,0x2
    dd3c:	af820220 	sw	v0,544(gp)
    dd40:	24020008 	li	v0,8
    dd44:	3c010001 	lui	at,0x1
    dd48:	00370821 	addu	at,at,s7
    dd4c:	ac2283ac 	sw	v0,-31828(at)
    dd50:	8f820220 	lw	v0,544(gp)
    dd54:	3c030004 	lui	v1,0x4
    dd58:	00431024 	and	v0,v0,v1
    dd5c:	14400005 	bnez	v0,0xdd74
    dd60:	00000000 	nop
    dd64:	8f820220 	lw	v0,544(gp)
    dd68:	3c03f700 	lui	v1,0xf700
    dd6c:	00431025 	or	v0,v0,v1
    dd70:	af820220 	sw	v0,544(gp)
    dd74:	3c030001 	lui	v1,0x1
    dd78:	8c635dbc 	lw	v1,23996(v1)
    dd7c:	24020005 	li	v0,5
    dd80:	1462000a 	bne	v1,v0,0xddac
    dd84:	00000000 	nop
    dd88:	3c020001 	lui	v0,0x1
    dd8c:	94425da2 	lhu	v0,23970(v0)
    dd90:	24429fbc 	addiu	v0,v0,-24644
    dd94:	2c420004 	sltiu	v0,v0,4
    dd98:	10400004 	beqz	v0,0xddac
    dd9c:	24040018 	li	a0,24
    dda0:	24050002 	li	a1,2
    dda4:	0c004d93 	jal	0x1364c
    dda8:	24060020 	li	a2,32
    ddac:	0c0043dd 	jal	0x10f74
    ddb0:	00000000 	nop
    ddb4:	3c010001 	lui	at,0x1
    ddb8:	0800481f 	j	0x1207c
    ddbc:	ac205d50 	sw	zero,23888(at)
    ddc0:	3c020001 	lui	v0,0x1
    ddc4:	00571021 	addu	v0,v0,s7
    ddc8:	8c4283ac 	lw	v0,-31828(v0)
    ddcc:	2443ffff 	addiu	v1,v0,-1
    ddd0:	2c620008 	sltiu	v0,v1,8
    ddd4:	104000ac 	beqz	v0,0xe088
    ddd8:	00031080 	sll	v0,v1,0x2
    dddc:	3c010001 	lui	at,0x1
    dde0:	00220821 	addu	at,at,v0
    dde4:	8c225ae8 	lw	v0,23272(at)
    dde8:	00400008 	jr	v0
    ddec:	00000000 	nop
    ddf0:	0c00429b 	jal	0x10a6c
    ddf4:	00000000 	nop
    ddf8:	3c010001 	lui	at,0x1
    ddfc:	ac205ccc 	sw	zero,23756(at)
    de00:	af800204 	sw	zero,516(gp)
    de04:	3c010001 	lui	at,0x1
    de08:	0c004822 	jal	0x12088
    de0c:	ac207e20 	sw	zero,32288(at)
    de10:	24020001 	li	v0,1
    de14:	3c010001 	lui	at,0x1
    de18:	ac225ce4 	sw	v0,23780(at)
    de1c:	24020002 	li	v0,2
    de20:	3c010001 	lui	at,0x1
    de24:	00370821 	addu	at,at,s7
    de28:	0800481f 	j	0x1207c
    de2c:	ac2283ac 	sw	v0,-31828(at)
    de30:	0c00489f 	jal	0x1227c
    de34:	00000000 	nop
    de38:	3c030001 	lui	v1,0x1
    de3c:	8c635ce4 	lw	v1,23780(v1)
    de40:	24020009 	li	v0,9
    de44:	14620090 	bne	v1,v0,0xe088
    de48:	24020003 	li	v0,3
    de4c:	3c010001 	lui	at,0x1
    de50:	00370821 	addu	at,at,s7
    de54:	0800481f 	j	0x1207c
    de58:	ac2283ac 	sw	v0,-31828(at)
    de5c:	3c020001 	lui	v0,0x1
    de60:	8c427e38 	lw	v0,32312(v0)
    de64:	30424000 	andi	v0,v0,0x4000
    de68:	10400005 	beqz	v0,0xde80
    de6c:	00000000 	nop
    de70:	8f820044 	lw	v0,68(gp)
    de74:	3c03ffff 	lui	v1,0xffff
    de78:	0800479f 	j	0x11e7c
    de7c:	34637fff 	ori	v1,v1,0x7fff
    de80:	8f820044 	lw	v0,68(gp)
    de84:	2403ff7f 	li	v1,-129
    de88:	00431024 	and	v0,v0,v1
    de8c:	af820044 	sw	v0,68(gp)
    de90:	8f830054 	lw	v1,84(gp)
    de94:	080047b9 	j	0x11ee4
    de98:	24020004 	li	v0,4
    de9c:	8f830054 	lw	v1,84(gp)
    dea0:	3c020001 	lui	v0,0x1
    dea4:	8c425da4 	lw	v0,23972(v0)
    dea8:	2463d8f0 	addiu	v1,v1,-10000
    deac:	00431023 	subu	v0,v0,v1
    deb0:	2c422710 	sltiu	v0,v0,10000
    deb4:	14400074 	bnez	v0,0xe088
    deb8:	24020005 	li	v0,5
    debc:	3c010001 	lui	at,0x1
    dec0:	00370821 	addu	at,at,s7
    dec4:	0800481f 	j	0x1207c
    dec8:	ac2283ac 	sw	v0,-31828(at)
    decc:	8f820220 	lw	v0,544(gp)
    ded0:	3c03f700 	lui	v1,0xf700
    ded4:	00431025 	or	v0,v0,v1
    ded8:	af820220 	sw	v0,544(gp)
    dedc:	af800204 	sw	zero,516(gp)
    dee0:	3c010001 	lui	at,0x1
    dee4:	ac207e20 	sw	zero,32288(at)
    dee8:	8f830054 	lw	v1,84(gp)
    deec:	24020006 	li	v0,6
    def0:	3c010001 	lui	at,0x1
    def4:	00370821 	addu	at,at,s7
    def8:	ac2283ac 	sw	v0,-31828(at)
    defc:	3c010001 	lui	at,0x1
    df00:	0800481f 	j	0x1207c
    df04:	ac235da4 	sw	v1,23972(at)
    df08:	8f830054 	lw	v1,84(gp)
    df0c:	3c020001 	lui	v0,0x1
    df10:	8c425da4 	lw	v0,23972(v0)
    df14:	2463fff6 	addiu	v1,v1,-10
    df18:	00431023 	subu	v0,v0,v1
    df1c:	2c42000a 	sltiu	v0,v0,10
    df20:	14400059 	bnez	v0,0xe088
    df24:	00000000 	nop
    df28:	24020007 	li	v0,7
    df2c:	3c010001 	lui	at,0x1
    df30:	00370821 	addu	at,at,s7
    df34:	0800481f 	j	0x1207c
    df38:	ac2283ac 	sw	v0,-31828(at)
    df3c:	8f820220 	lw	v0,544(gp)
    df40:	3c04f700 	lui	a0,0xf700
    df44:	00441025 	or	v0,v0,a0
    df48:	af820220 	sw	v0,544(gp)
    df4c:	8f820220 	lw	v0,544(gp)
    df50:	3c030300 	lui	v1,0x300
    df54:	00431024 	and	v0,v0,v1
    df58:	14400005 	bnez	v0,0xdf70
    df5c:	00001821 	move	v1,zero
    df60:	8f820220 	lw	v0,544(gp)
    df64:	24030001 	li	v1,1
    df68:	00441025 	or	v0,v0,a0
    df6c:	af820220 	sw	v0,544(gp)
    df70:	10600043 	beqz	v1,0xe080
    df74:	24020001 	li	v0,1
    df78:	8f820214 	lw	v0,532(gp)
    df7c:	3c03ffff 	lui	v1,0xffff
    df80:	3c040001 	lui	a0,0x1
    df84:	8c845d98 	lw	a0,23960(a0)
    df88:	00431024 	and	v0,v0,v1
    df8c:	3442251f 	ori	v0,v0,0x251f
    df90:	af820214 	sw	v0,532(gp)
    df94:	24020008 	li	v0,8
    df98:	3c010001 	lui	at,0x1
    df9c:	00370821 	addu	at,at,s7
    dfa0:	1080000b 	beqz	a0,0xdfd0
    dfa4:	ac2283ac 	sw	v0,-31828(at)
    dfa8:	3c020001 	lui	v0,0x1
    dfac:	8c425d74 	lw	v0,23924(v0)
    dfb0:	14400007 	bnez	v0,0xdfd0
    dfb4:	24020001 	li	v0,1
    dfb8:	3c010001 	lui	at,0x1
    dfbc:	ac227dd0 	sw	v0,32208(at)
    dfc0:	0c004e54 	jal	0x13950
    dfc4:	8f840220 	lw	a0,544(gp)
    dfc8:	0800480c 	j	0x12030
    dfcc:	00000000 	nop
    dfd0:	8f820220 	lw	v0,544(gp)
    dfd4:	3c030008 	lui	v1,0x8
    dfd8:	00431024 	and	v0,v0,v1
    dfdc:	14400017 	bnez	v0,0xe03c
    dfe0:	2402000e 	li	v0,14
    dfe4:	3c010001 	lui	at,0x1
    dfe8:	ac227dd0 	sw	v0,32208(at)
    dfec:	8ee20000 	lw	v0,0(s7)
    dff0:	00002021 	move	a0,zero
    dff4:	3c030200 	lui	v1,0x200
    dff8:	00431025 	or	v0,v0,v1
    dffc:	0c005386 	jal	0x14e18
    e000:	aee20000 	sw	v0,0(s7)
    e004:	8f820220 	lw	v0,544(gp)
    e008:	2403fffb 	li	v1,-5
    e00c:	00431024 	and	v0,v0,v1
    e010:	af820220 	sw	v0,544(gp)
    e014:	8f820220 	lw	v0,544(gp)
    e018:	34420002 	ori	v0,v0,0x2
    e01c:	0c0043dd 	jal	0x10f74
    e020:	af820220 	sw	v0,544(gp)
    e024:	3c050001 	lui	a1,0x1
    e028:	8ca55cc8 	lw	a1,23752(a1)
    e02c:	0c0052a2 	jal	0x14a88
    e030:	00002021 	move	a0,zero
    e034:	0800481f 	j	0x1207c
    e038:	00000000 	nop
    e03c:	3c020001 	lui	v0,0x1
    e040:	8c425d74 	lw	v0,23924(v0)
    e044:	10400010 	beqz	v0,0xe088
    e048:	00000000 	nop
    e04c:	3c020001 	lui	v0,0x1
    e050:	8c425d70 	lw	v0,23920(v0)
    e054:	2442ffff 	addiu	v0,v0,-1
    e058:	3c010001 	lui	at,0x1
    e05c:	ac225d70 	sw	v0,23920(at)
    e060:	14400009 	bnez	v0,0xe088
    e064:	24020002 	li	v0,2
    e068:	3c010001 	lui	at,0x1
    e06c:	ac205d74 	sw	zero,23924(at)
    e070:	3c010001 	lui	at,0x1
    e074:	0800481f 	j	0x1207c
    e078:	ac225d70 	sw	v0,23920(at)
    e07c:	24020001 	li	v0,1
    e080:	3c010001 	lui	at,0x1
    e084:	ac225ccc 	sw	v0,23756(at)
    e088:	8fbf0018 	lw	ra,24(sp)
    e08c:	03e00008 	jr	ra
    e090:	27bd0020 	addiu	sp,sp,32
    e094:	8f820200 	lw	v0,512(gp)
    e098:	8f820220 	lw	v0,544(gp)
    e09c:	8f820220 	lw	v0,544(gp)
    e0a0:	34420004 	ori	v0,v0,0x4
    e0a4:	af820220 	sw	v0,544(gp)
    e0a8:	8f820200 	lw	v0,512(gp)
    e0ac:	3c060001 	lui	a2,0x1
    e0b0:	8cc65cc8 	lw	a2,23752(a2)
    e0b4:	34420004 	ori	v0,v0,0x4
    e0b8:	af820200 	sw	v0,512(gp)
    e0bc:	24020002 	li	v0,2
    e0c0:	10c2003a 	beq	a2,v0,0xe1ac
    e0c4:	2cc20003 	sltiu	v0,a2,3
    e0c8:	10400005 	beqz	v0,0xe0e0
    e0cc:	24020001 	li	v0,1
    e0d0:	10c20008 	beq	a2,v0,0xe0f4
    e0d4:	00000000 	nop
    e0d8:	08004868 	j	0x121a0
    e0dc:	00000000 	nop
    e0e0:	24020004 	li	v0,4
    e0e4:	10c20013 	beq	a2,v0,0xe134
    e0e8:	24020001 	li	v0,1
    e0ec:	08004868 	j	0x121a0
    e0f0:	00000000 	nop
    e0f4:	3c030001 	lui	v1,0x1
    e0f8:	8c635cb8 	lw	v1,23736(v1)
    e0fc:	3c020001 	lui	v0,0x1
    e100:	8c425cc0 	lw	v0,23744(v0)
    e104:	3c040001 	lui	a0,0x1
    e108:	8c845cdc 	lw	a0,23772(a0)
    e10c:	3c050001 	lui	a1,0x1
    e110:	8ca55cbc 	lw	a1,23740(a1)
    e114:	af860200 	sw	a2,512(gp)
    e118:	af860220 	sw	a2,544(gp)
    e11c:	34630022 	ori	v1,v1,0x22
    e120:	00441025 	or	v0,v0,a0
    e124:	00451025 	or	v0,v0,a1
    e128:	34420002 	ori	v0,v0,0x2
    e12c:	08004867 	j	0x1219c
    e130:	af830200 	sw	v1,512(gp)
    e134:	3c030001 	lui	v1,0x1
    e138:	8c635d98 	lw	v1,23960(v1)
    e13c:	af820200 	sw	v0,512(gp)
    e140:	10600009 	beqz	v1,0xe168
    e144:	af820220 	sw	v0,544(gp)
    e148:	3c020001 	lui	v0,0x1
    e14c:	8c425d74 	lw	v0,23924(v0)
    e150:	14400005 	bnez	v0,0xe168
    e154:	3c033f00 	lui	v1,0x3f00
    e158:	3c020001 	lui	v0,0x1
    e15c:	8c425cb0 	lw	v0,23728(v0)
    e160:	0800485b 	j	0x1216c
    e164:	346300e0 	ori	v1,v1,0xe0
    e168:	3c020001 	lui	v0,0x1
    e16c:	8c425cb0 	lw	v0,23728(v0)
    e170:	3c033f00 	lui	v1,0x3f00
    e174:	346300e2 	ori	v1,v1,0xe2
    e178:	00431025 	or	v0,v0,v1
    e17c:	af820200 	sw	v0,512(gp)
    e180:	3c030001 	lui	v1,0x1
    e184:	8c635cb4 	lw	v1,23732(v1)
    e188:	3c04f700 	lui	a0,0xf700
    e18c:	3c020001 	lui	v0,0x1
    e190:	8c425cc0 	lw	v0,23744(v0)
    e194:	3c050001 	lui	a1,0x1
    e198:	8ca55cdc 	lw	a1,23772(a1)
    e19c:	00641825 	or	v1,v1,a0
    e1a0:	00431025 	or	v0,v0,v1
    e1a4:	00451025 	or	v0,v0,a1
    e1a8:	af820220 	sw	v0,544(gp)
    e1ac:	03e00008 	jr	ra
    e1b0:	00000000 	nop
    e1b4:	8f820220 	lw	v0,544(gp)
    e1b8:	3c030001 	lui	v1,0x1
    e1bc:	8c635cc8 	lw	v1,23752(v1)
    e1c0:	34420004 	ori	v0,v0,0x4
    e1c4:	af820220 	sw	v0,544(gp)
    e1c8:	24020001 	li	v0,1
    e1cc:	1062000f 	beq	v1,v0,0xe20c
    e1d0:	00000000 	nop
    e1d4:	8f830054 	lw	v1,84(gp)
    e1d8:	8f820054 	lw	v0,84(gp)
    e1dc:	24630002 	addiu	v1,v1,2
    e1e0:	00621023 	subu	v0,v1,v0
    e1e4:	2c420003 	sltiu	v0,v0,3
    e1e8:	10400011 	beqz	v0,0xe230
    e1ec:	00000000 	nop
    e1f0:	8f820054 	lw	v0,84(gp)
    e1f4:	00621023 	subu	v0,v1,v0
    e1f8:	2c420003 	sltiu	v0,v0,3
    e1fc:	1040000c 	beqz	v0,0xe230
    e200:	00000000 	nop
    e204:	08004879 	j	0x121e4
    e208:	00000000 	nop
    e20c:	8f830054 	lw	v1,84(gp)
    e210:	8f820054 	lw	v0,84(gp)
    e214:	08004885 	j	0x12214
    e218:	24630007 	addiu	v1,v1,7
    e21c:	8f820054 	lw	v0,84(gp)
    e220:	00621023 	subu	v0,v1,v0
    e224:	2c420008 	sltiu	v0,v0,8
    e228:	1440fffc 	bnez	v0,0xe21c
    e22c:	00000000 	nop
    e230:	8f8400e0 	lw	a0,224(gp)
    e234:	30820007 	andi	v0,a0,0x7
    e238:	1040000d 	beqz	v0,0xe270
    e23c:	00000000 	nop
    e240:	8f820054 	lw	v0,84(gp)
    e244:	8f8300e0 	lw	v1,224(gp)
    e248:	14830009 	bne	a0,v1,0xe270
    e24c:	24450032 	addiu	a1,v0,50
    e250:	8f820054 	lw	v0,84(gp)
    e254:	00a21023 	subu	v0,a1,v0
    e258:	2c420033 	sltiu	v0,v0,51
    e25c:	10400004 	beqz	v0,0xe270
    e260:	00000000 	nop
    e264:	8f8200e0 	lw	v0,224(gp)
    e268:	1082fff9 	beq	a0,v0,0xe250
    e26c:	00000000 	nop
    e270:	8f820220 	lw	v0,544(gp)
    e274:	2403fffd 	li	v1,-3
    e278:	00431024 	and	v0,v0,v1
    e27c:	af820220 	sw	v0,544(gp)
    e280:	03e00008 	jr	ra
    e284:	00000000 	nop
    e288:	3c030001 	lui	v1,0x1
    e28c:	8c635ce4 	lw	v1,23780(v1)
    e290:	3c020001 	lui	v0,0x1
    e294:	8c425ce8 	lw	v0,23784(v0)
    e298:	50620004 	beql	v1,v0,0xe2ac
    e29c:	2463ffff 	addiu	v1,v1,-1
    e2a0:	3c010001 	lui	at,0x1
    e2a4:	ac235ce8 	sw	v1,23784(at)
    e2a8:	2463ffff 	addiu	v1,v1,-1
    e2ac:	2c620009 	sltiu	v0,v1,9
    e2b0:	1040009d 	beqz	v0,0xe528
    e2b4:	00031080 	sll	v0,v1,0x2
    e2b8:	3c010001 	lui	at,0x1
    e2bc:	00220821 	addu	at,at,v0
    e2c0:	8c225b08 	lw	v0,23304(at)
    e2c4:	00400008 	jr	v0
    e2c8:	00000000 	nop
    e2cc:	8f820044 	lw	v0,68(gp)
    e2d0:	34428080 	ori	v0,v0,0x8080
    e2d4:	af820044 	sw	v0,68(gp)
    e2d8:	8f830054 	lw	v1,84(gp)
    e2dc:	08004938 	j	0x124e0
    e2e0:	24020002 	li	v0,2
    e2e4:	8f830054 	lw	v1,84(gp)
    e2e8:	3c020001 	lui	v0,0x1
    e2ec:	8c425da8 	lw	v0,23976(v0)
    e2f0:	2463d8f0 	addiu	v1,v1,-10000
    e2f4:	00431023 	subu	v0,v0,v1
    e2f8:	2c422710 	sltiu	v0,v0,10000
    e2fc:	1440008a 	bnez	v0,0xe528
    e300:	24020003 	li	v0,3
    e304:	08004945 	j	0x12514
    e308:	00000000 	nop
    e30c:	8f820044 	lw	v0,68(gp)
    e310:	3c03ffff 	lui	v1,0xffff
    e314:	34637fff 	ori	v1,v1,0x7fff
    e318:	00431024 	and	v0,v0,v1
    e31c:	af820044 	sw	v0,68(gp)
    e320:	8f830054 	lw	v1,84(gp)
    e324:	08004938 	j	0x124e0
    e328:	24020004 	li	v0,4
    e32c:	8f830054 	lw	v1,84(gp)
    e330:	3c020001 	lui	v0,0x1
    e334:	8c425da8 	lw	v0,23976(v0)
    e338:	2463fff6 	addiu	v1,v1,-10
    e33c:	00431023 	subu	v0,v0,v1
    e340:	2c42000a 	sltiu	v0,v0,10
    e344:	14400078 	bnez	v0,0xe528
    e348:	24020005 	li	v0,5
    e34c:	08004945 	j	0x12514
    e350:	00000000 	nop
    e354:	8f820220 	lw	v0,544(gp)
    e358:	3c03f700 	lui	v1,0xf700
    e35c:	00431025 	or	v0,v0,v1
    e360:	af820220 	sw	v0,544(gp)
    e364:	8f820220 	lw	v0,544(gp)
    e368:	2403fffb 	li	v1,-5
    e36c:	00431024 	and	v0,v0,v1
    e370:	af820220 	sw	v0,544(gp)
    e374:	8f820220 	lw	v0,544(gp)
    e378:	34420002 	ori	v0,v0,0x2
    e37c:	af820220 	sw	v0,544(gp)
    e380:	3c023f00 	lui	v0,0x3f00
    e384:	344200e0 	ori	v0,v0,0xe0
    e388:	af820200 	sw	v0,512(gp)
    e38c:	8f820200 	lw	v0,512(gp)
    e390:	2403fffd 	li	v1,-3
    e394:	00431024 	and	v0,v0,v1
    e398:	af820200 	sw	v0,512(gp)
    e39c:	24040001 	li	a0,1
    e3a0:	3405ffff 	li	a1,0xffff
    e3a4:	af840204 	sw	a0,516(gp)
    e3a8:	8f830054 	lw	v1,84(gp)
    e3ac:	8f820054 	lw	v0,84(gp)
    e3b0:	080048ec 	j	0x123b0
    e3b4:	24630001 	addiu	v1,v1,1
    e3b8:	8f820054 	lw	v0,84(gp)
    e3bc:	00621023 	subu	v0,v1,v0
    e3c0:	2c420002 	sltiu	v0,v0,2
    e3c4:	1440fffc 	bnez	v0,0xe3b8
    e3c8:	00000000 	nop
    e3cc:	8f820224 	lw	v0,548(gp)
    e3d0:	00042040 	sll	a0,a0,0x1
    e3d4:	00a4102b 	sltu	v0,a1,a0
    e3d8:	1040fff2 	beqz	v0,0xe3a4
    e3dc:	00000000 	nop
    e3e0:	8f820220 	lw	v0,544(gp)
    e3e4:	3c03f700 	lui	v1,0xf700
    e3e8:	00431025 	or	v0,v0,v1
    e3ec:	af820220 	sw	v0,544(gp)
    e3f0:	8f820214 	lw	v0,532(gp)
    e3f4:	3c03ffff 	lui	v1,0xffff
    e3f8:	00431024 	and	v0,v0,v1
    e3fc:	3442251f 	ori	v0,v0,0x251f
    e400:	af820214 	sw	v0,532(gp)
    e404:	8f820220 	lw	v0,544(gp)
    e408:	2403fffb 	li	v1,-5
    e40c:	00431024 	and	v0,v0,v1
    e410:	af820220 	sw	v0,544(gp)
    e414:	8f820220 	lw	v0,544(gp)
    e418:	3c04f700 	lui	a0,0xf700
    e41c:	34840008 	ori	a0,a0,0x8
    e420:	34420002 	ori	v0,v0,0x2
    e424:	af820220 	sw	v0,544(gp)
    e428:	8f820220 	lw	v0,544(gp)
    e42c:	3c033f00 	lui	v1,0x3f00
    e430:	346300e2 	ori	v1,v1,0xe2
    e434:	00441025 	or	v0,v0,a0
    e438:	af820220 	sw	v0,544(gp)
    e43c:	af830200 	sw	v1,512(gp)
    e440:	8f8400f0 	lw	a0,240(gp)
    e444:	276217f8 	addiu	v0,k1,6136
    e448:	14820002 	bne	a0,v0,0xe454
    e44c:	24850008 	addiu	a1,a0,8
    e450:	27651000 	addiu	a1,k1,4096
    e454:	8f8200f4 	lw	v0,244(gp)
    e458:	10a20007 	beq	a1,v0,0xe478
    e45c:	3c038000 	lui	v1,0x8000
    e460:	34630040 	ori	v1,v1,0x40
    e464:	3c020001 	lui	v0,0x1
    e468:	24425c70 	addiu	v0,v0,23664
    e46c:	ac820000 	sw	v0,0(a0)
    e470:	ac830004 	sw	v1,4(a0)
    e474:	af8500f0 	sw	a1,240(gp)
    e478:	8f830054 	lw	v1,84(gp)
    e47c:	08004938 	j	0x124e0
    e480:	24020006 	li	v0,6
    e484:	8f830054 	lw	v1,84(gp)
    e488:	3c020001 	lui	v0,0x1
    e48c:	8c425da8 	lw	v0,23976(v0)
    e490:	2463fff6 	addiu	v1,v1,-10
    e494:	00431023 	subu	v0,v0,v1
    e498:	2c42000a 	sltiu	v0,v0,10
    e49c:	14400022 	bnez	v0,0xe528
    e4a0:	24020007 	li	v0,7
    e4a4:	08004945 	j	0x12514
    e4a8:	00000000 	nop
    e4ac:	8f8200e0 	lw	v0,224(gp)
    e4b0:	af8200e4 	sw	v0,228(gp)
    e4b4:	8f8200e0 	lw	v0,224(gp)
    e4b8:	af8200e8 	sw	v0,232(gp)
    e4bc:	8f820220 	lw	v0,544(gp)
    e4c0:	34420004 	ori	v0,v0,0x4
    e4c4:	af820220 	sw	v0,544(gp)
    e4c8:	8f820220 	lw	v0,544(gp)
    e4cc:	2403fff7 	li	v1,-9
    e4d0:	00431024 	and	v0,v0,v1
    e4d4:	af820220 	sw	v0,544(gp)
    e4d8:	8f820044 	lw	v0,68(gp)
    e4dc:	34428080 	ori	v0,v0,0x8080
    e4e0:	af820044 	sw	v0,68(gp)
    e4e4:	8f830054 	lw	v1,84(gp)
    e4e8:	24020008 	li	v0,8
    e4ec:	3c010001 	lui	at,0x1
    e4f0:	ac225ce4 	sw	v0,23780(at)
    e4f4:	3c010001 	lui	at,0x1
    e4f8:	08004947 	j	0x1251c
    e4fc:	ac235da8 	sw	v1,23976(at)
    e500:	8f830054 	lw	v1,84(gp)
    e504:	3c020001 	lui	v0,0x1
    e508:	8c425da8 	lw	v0,23976(v0)
    e50c:	2463d8f0 	addiu	v1,v1,-10000
    e510:	00431023 	subu	v0,v0,v1
    e514:	2c422710 	sltiu	v0,v0,10000
    e518:	14400003 	bnez	v0,0xe528
    e51c:	24020009 	li	v0,9
    e520:	3c010001 	lui	at,0x1
    e524:	ac225ce4 	sw	v0,23780(at)
    e528:	03e00008 	jr	ra
    e52c:	00000000 	nop
	...
    e53c:	27bdffd8 	addiu	sp,sp,-40
    e540:	afb20018 	sw	s2,24(sp)
    e544:	00809021 	move	s2,a0
    e548:	afb3001c 	sw	s3,28(sp)
    e54c:	00a09821 	move	s3,a1
    e550:	afb10014 	sw	s1,20(sp)
    e554:	00c08821 	move	s1,a2
    e558:	afb00010 	sw	s0,16(sp)
    e55c:	00008021 	move	s0,zero
    e560:	afbf0020 	sw	ra,32(sp)
    e564:	a6200000 	sh	zero,0(s1)
    e568:	0c004d4b 	jal	0x1352c
    e56c:	24040001 	li	a0,1
    e570:	26100001 	addiu	s0,s0,1
    e574:	2e020020 	sltiu	v0,s0,32
    e578:	1440fffb 	bnez	v0,0xe568
    e57c:	00000000 	nop
    e580:	0c004d4b 	jal	0x1352c
    e584:	00002021 	move	a0,zero
    e588:	0c004d4b 	jal	0x1352c
    e58c:	24040001 	li	a0,1
    e590:	0c004d4b 	jal	0x1352c
    e594:	24040001 	li	a0,1
    e598:	0c004d4b 	jal	0x1352c
    e59c:	00002021 	move	a0,zero
    e5a0:	24100010 	li	s0,16
    e5a4:	02501024 	and	v0,s2,s0
    e5a8:	10400002 	beqz	v0,0xe5b4
    e5ac:	00002021 	move	a0,zero
    e5b0:	24040001 	li	a0,1
    e5b4:	0c004d4b 	jal	0x1352c
    e5b8:	00108042 	srl	s0,s0,0x1
    e5bc:	1600fffa 	bnez	s0,0xe5a8
    e5c0:	02501024 	and	v0,s2,s0
    e5c4:	24100010 	li	s0,16
    e5c8:	02701024 	and	v0,s3,s0
    e5cc:	10400002 	beqz	v0,0xe5d8
    e5d0:	00002021 	move	a0,zero
    e5d4:	24040001 	li	a0,1
    e5d8:	0c004d4b 	jal	0x1352c
    e5dc:	00108042 	srl	s0,s0,0x1
    e5e0:	1600fffa 	bnez	s0,0xe5cc
    e5e4:	02701024 	and	v0,s3,s0
    e5e8:	0c004d71 	jal	0x135c4
    e5ec:	34108000 	li	s0,0x8000
    e5f0:	0c004d71 	jal	0x135c4
    e5f4:	00000000 	nop
    e5f8:	0c004d2b 	jal	0x134ac
    e5fc:	00000000 	nop
    e600:	50400005 	beqzl	v0,0xe618
    e604:	00108042 	srl	s0,s0,0x1
    e608:	96220000 	lhu	v0,0(s1)
    e60c:	00501025 	or	v0,v0,s0
    e610:	a6220000 	sh	v0,0(s1)
    e614:	00108042 	srl	s0,s0,0x1
    e618:	1600fff7 	bnez	s0,0xe5f8
    e61c:	00000000 	nop
    e620:	0c004d71 	jal	0x135c4
    e624:	00000000 	nop
    e628:	8fbf0020 	lw	ra,32(sp)
    e62c:	8fb3001c 	lw	s3,28(sp)
    e630:	8fb20018 	lw	s2,24(sp)
    e634:	8fb10014 	lw	s1,20(sp)
    e638:	8fb00010 	lw	s0,16(sp)
    e63c:	03e00008 	jr	ra
    e640:	27bd0028 	addiu	sp,sp,40
    e644:	27bdffd8 	addiu	sp,sp,-40
    e648:	afb10014 	sw	s1,20(sp)
    e64c:	00808821 	move	s1,a0
    e650:	afb20018 	sw	s2,24(sp)
    e654:	00a09021 	move	s2,a1
    e658:	afb3001c 	sw	s3,28(sp)
    e65c:	00c09821 	move	s3,a2
    e660:	afb00010 	sw	s0,16(sp)
    e664:	00008021 	move	s0,zero
    e668:	afbf0020 	sw	ra,32(sp)
    e66c:	0c004d4b 	jal	0x1352c
    e670:	24040001 	li	a0,1
    e674:	26100001 	addiu	s0,s0,1
    e678:	2e020020 	sltiu	v0,s0,32
    e67c:	1440fffb 	bnez	v0,0xe66c
    e680:	00000000 	nop
    e684:	0c004d4b 	jal	0x1352c
    e688:	00002021 	move	a0,zero
    e68c:	0c004d4b 	jal	0x1352c
    e690:	24040001 	li	a0,1
    e694:	0c004d4b 	jal	0x1352c
    e698:	00002021 	move	a0,zero
    e69c:	0c004d4b 	jal	0x1352c
    e6a0:	24040001 	li	a0,1
    e6a4:	24100010 	li	s0,16
    e6a8:	02301024 	and	v0,s1,s0
    e6ac:	10400002 	beqz	v0,0xe6b8
    e6b0:	00002021 	move	a0,zero
    e6b4:	24040001 	li	a0,1
    e6b8:	0c004d4b 	jal	0x1352c
    e6bc:	00108042 	srl	s0,s0,0x1
    e6c0:	1600fffa 	bnez	s0,0xe6ac
    e6c4:	02301024 	and	v0,s1,s0
    e6c8:	24100010 	li	s0,16
    e6cc:	02501024 	and	v0,s2,s0
    e6d0:	10400002 	beqz	v0,0xe6dc
    e6d4:	00002021 	move	a0,zero
    e6d8:	24040001 	li	a0,1
    e6dc:	0c004d4b 	jal	0x1352c
    e6e0:	00108042 	srl	s0,s0,0x1
    e6e4:	1600fffa 	bnez	s0,0xe6d0
    e6e8:	02501024 	and	v0,s2,s0
    e6ec:	0c004d4b 	jal	0x1352c
    e6f0:	24040001 	li	a0,1
    e6f4:	0c004d4b 	jal	0x1352c
    e6f8:	00002021 	move	a0,zero
    e6fc:	34108000 	li	s0,0x8000
    e700:	96620000 	lhu	v0,0(s3)
    e704:	00501024 	and	v0,v0,s0
    e708:	10400002 	beqz	v0,0xe714
    e70c:	00002021 	move	a0,zero
    e710:	24040001 	li	a0,1
    e714:	0c004d4b 	jal	0x1352c
    e718:	00108042 	srl	s0,s0,0x1
    e71c:	1600fff8 	bnez	s0,0xe700
    e720:	00000000 	nop
    e724:	0c004d71 	jal	0x135c4
    e728:	00000000 	nop
    e72c:	8fbf0020 	lw	ra,32(sp)
    e730:	8fb3001c 	lw	s3,28(sp)
    e734:	8fb20018 	lw	s2,24(sp)
    e738:	8fb10014 	lw	s1,20(sp)
    e73c:	8fb00010 	lw	s0,16(sp)
    e740:	03e00008 	jr	ra
    e744:	27bd0028 	addiu	sp,sp,40
    e748:	3c030001 	lui	v1,0x1
    e74c:	8c635d00 	lw	v1,23808(v1)
    e750:	3c020001 	lui	v0,0x1
    e754:	8c425d48 	lw	v0,23880(v0)
    e758:	27bdffd8 	addiu	sp,sp,-40
    e75c:	afbf0020 	sw	ra,32(sp)
    e760:	afb1001c 	sw	s1,28(sp)
    e764:	10620003 	beq	v1,v0,0xe774
    e768:	afb00018 	sw	s0,24(sp)
    e76c:	3c010001 	lui	at,0x1
    e770:	ac235d48 	sw	v1,23880(at)
    e774:	2463ffff 	addiu	v1,v1,-1
    e778:	2c620013 	sltiu	v0,v1,19
    e77c:	10400349 	beqz	v0,0xf4a4
    e780:	00031080 	sll	v0,v1,0x2
    e784:	3c010001 	lui	at,0x1
    e788:	00220821 	addu	at,at,v0
    e78c:	8c225b30 	lw	v0,23344(at)
    e790:	00400008 	jr	v0
    e794:	00000000 	nop
    e798:	0c004d71 	jal	0x135c4
    e79c:	00008021 	move	s0,zero
    e7a0:	34028000 	li	v0,0x8000
    e7a4:	a7a20010 	sh	v0,16(sp)
    e7a8:	27b10010 	addiu	s1,sp,16
    e7ac:	0c004d4b 	jal	0x1352c
    e7b0:	24040001 	li	a0,1
    e7b4:	26100001 	addiu	s0,s0,1
    e7b8:	2e020020 	sltiu	v0,s0,32
    e7bc:	1440fffb 	bnez	v0,0xe7ac
    e7c0:	00000000 	nop
    e7c4:	0c004d4b 	jal	0x1352c
    e7c8:	00002021 	move	a0,zero
    e7cc:	0c004d4b 	jal	0x1352c
    e7d0:	24040001 	li	a0,1
    e7d4:	0c004d4b 	jal	0x1352c
    e7d8:	00002021 	move	a0,zero
    e7dc:	0c004d4b 	jal	0x1352c
    e7e0:	24040001 	li	a0,1
    e7e4:	24100010 	li	s0,16
    e7e8:	32020001 	andi	v0,s0,0x1
    e7ec:	10400002 	beqz	v0,0xe7f8
    e7f0:	00002021 	move	a0,zero
    e7f4:	24040001 	li	a0,1
    e7f8:	0c004d4b 	jal	0x1352c
    e7fc:	00108042 	srl	s0,s0,0x1
    e800:	1600fffa 	bnez	s0,0xe7ec
    e804:	32020001 	andi	v0,s0,0x1
    e808:	24100010 	li	s0,16
    e80c:	0c004d4b 	jal	0x1352c
    e810:	00002021 	move	a0,zero
    e814:	00108042 	srl	s0,s0,0x1
    e818:	1600fffc 	bnez	s0,0xe80c
    e81c:	00000000 	nop
    e820:	0c004d4b 	jal	0x1352c
    e824:	24040001 	li	a0,1
    e828:	0c004d4b 	jal	0x1352c
    e82c:	00002021 	move	a0,zero
    e830:	34108000 	li	s0,0x8000
    e834:	96220000 	lhu	v0,0(s1)
    e838:	00501024 	and	v0,v0,s0
    e83c:	10400002 	beqz	v0,0xe848
    e840:	00002021 	move	a0,zero
    e844:	24040001 	li	a0,1
    e848:	0c004d4b 	jal	0x1352c
    e84c:	00108042 	srl	s0,s0,0x1
    e850:	1600fff8 	bnez	s0,0xe834
    e854:	00000000 	nop
    e858:	0c004d71 	jal	0x135c4
    e85c:	00000000 	nop
    e860:	08004d24 	j	0x13490
    e864:	24020002 	li	v0,2
    e868:	27b10010 	addiu	s1,sp,16
    e86c:	a7a00010 	sh	zero,16(sp)
    e870:	00008021 	move	s0,zero
    e874:	0c004d4b 	jal	0x1352c
    e878:	24040001 	li	a0,1
    e87c:	26100001 	addiu	s0,s0,1
    e880:	2e020020 	sltiu	v0,s0,32
    e884:	1440fffb 	bnez	v0,0xe874
    e888:	00000000 	nop
    e88c:	0c004d4b 	jal	0x1352c
    e890:	00002021 	move	a0,zero
    e894:	0c004d4b 	jal	0x1352c
    e898:	24040001 	li	a0,1
    e89c:	0c004d4b 	jal	0x1352c
    e8a0:	24040001 	li	a0,1
    e8a4:	0c004d4b 	jal	0x1352c
    e8a8:	00002021 	move	a0,zero
    e8ac:	24100010 	li	s0,16
    e8b0:	32020001 	andi	v0,s0,0x1
    e8b4:	10400002 	beqz	v0,0xe8c0
    e8b8:	00002021 	move	a0,zero
    e8bc:	24040001 	li	a0,1
    e8c0:	0c004d4b 	jal	0x1352c
    e8c4:	00108042 	srl	s0,s0,0x1
    e8c8:	1600fffa 	bnez	s0,0xe8b4
    e8cc:	32020001 	andi	v0,s0,0x1
    e8d0:	24100010 	li	s0,16
    e8d4:	0c004d4b 	jal	0x1352c
    e8d8:	00002021 	move	a0,zero
    e8dc:	00108042 	srl	s0,s0,0x1
    e8e0:	1600fffc 	bnez	s0,0xe8d4
    e8e4:	00000000 	nop
    e8e8:	0c004d71 	jal	0x135c4
    e8ec:	34108000 	li	s0,0x8000
    e8f0:	0c004d71 	jal	0x135c4
    e8f4:	00000000 	nop
    e8f8:	0c004d2b 	jal	0x134ac
    e8fc:	00000000 	nop
    e900:	50400005 	beqzl	v0,0xe918
    e904:	00108042 	srl	s0,s0,0x1
    e908:	96220000 	lhu	v0,0(s1)
    e90c:	00501025 	or	v0,v0,s0
    e910:	a6220000 	sh	v0,0(s1)
    e914:	00108042 	srl	s0,s0,0x1
    e918:	1600fff7 	bnez	s0,0xe8f8
    e91c:	00000000 	nop
    e920:	0c004d71 	jal	0x135c4
    e924:	00000000 	nop
    e928:	97a20010 	lhu	v0,16(sp)
    e92c:	30428000 	andi	v0,v0,0x8000
    e930:	144002dc 	bnez	v0,0xf4a4
    e934:	24020003 	li	v0,3
    e938:	08004d24 	j	0x13490
    e93c:	00000000 	nop
    e940:	24021200 	li	v0,4608
    e944:	a7a20010 	sh	v0,16(sp)
    e948:	27b10010 	addiu	s1,sp,16
    e94c:	00008021 	move	s0,zero
    e950:	0c004d4b 	jal	0x1352c
    e954:	24040001 	li	a0,1
    e958:	26100001 	addiu	s0,s0,1
    e95c:	2e020020 	sltiu	v0,s0,32
    e960:	1440fffb 	bnez	v0,0xe950
    e964:	00000000 	nop
    e968:	0c004d4b 	jal	0x1352c
    e96c:	00002021 	move	a0,zero
    e970:	0c004d4b 	jal	0x1352c
    e974:	24040001 	li	a0,1
    e978:	0c004d4b 	jal	0x1352c
    e97c:	00002021 	move	a0,zero
    e980:	0c004d4b 	jal	0x1352c
    e984:	24040001 	li	a0,1
    e988:	24100010 	li	s0,16
    e98c:	32020001 	andi	v0,s0,0x1
    e990:	10400002 	beqz	v0,0xe99c
    e994:	00002021 	move	a0,zero
    e998:	24040001 	li	a0,1
    e99c:	0c004d4b 	jal	0x1352c
    e9a0:	00108042 	srl	s0,s0,0x1
    e9a4:	1600fffa 	bnez	s0,0xe990
    e9a8:	32020001 	andi	v0,s0,0x1
    e9ac:	24100010 	li	s0,16
    e9b0:	0c004d4b 	jal	0x1352c
    e9b4:	00002021 	move	a0,zero
    e9b8:	00108042 	srl	s0,s0,0x1
    e9bc:	1600fffc 	bnez	s0,0xe9b0
    e9c0:	00000000 	nop
    e9c4:	0c004d4b 	jal	0x1352c
    e9c8:	24040001 	li	a0,1
    e9cc:	0c004d4b 	jal	0x1352c
    e9d0:	00002021 	move	a0,zero
    e9d4:	34108000 	li	s0,0x8000
    e9d8:	96220000 	lhu	v0,0(s1)
    e9dc:	00501024 	and	v0,v0,s0
    e9e0:	10400002 	beqz	v0,0xe9ec
    e9e4:	00002021 	move	a0,zero
    e9e8:	24040001 	li	a0,1
    e9ec:	0c004d4b 	jal	0x1352c
    e9f0:	00108042 	srl	s0,s0,0x1
    e9f4:	1600fff8 	bnez	s0,0xe9d8
    e9f8:	00000000 	nop
    e9fc:	0c004d71 	jal	0x135c4
    ea00:	00000000 	nop
    ea04:	8f830054 	lw	v1,84(gp)
    ea08:	08004d16 	j	0x13458
    ea0c:	24020004 	li	v0,4
    ea10:	8f830054 	lw	v1,84(gp)
    ea14:	3c020001 	lui	v0,0x1
    ea18:	8c425db8 	lw	v0,23992(v0)
    ea1c:	2463ff9c 	addiu	v1,v1,-100
    ea20:	00431023 	subu	v0,v0,v1
    ea24:	2c420064 	sltiu	v0,v0,100
    ea28:	1440029e 	bnez	v0,0xf4a4
    ea2c:	24020002 	li	v0,2
    ea30:	3c030001 	lui	v1,0x1
    ea34:	8c635dbc 	lw	v1,23996(v1)
    ea38:	10620297 	beq	v1,v0,0xf498
    ea3c:	2c620003 	sltiu	v0,v1,3
    ea40:	14400296 	bnez	v0,0xf49c
    ea44:	24020011 	li	v0,17
    ea48:	24020003 	li	v0,3
    ea4c:	10620005 	beq	v1,v0,0xea64
    ea50:	24020004 	li	v0,4
    ea54:	10620291 	beq	v1,v0,0xf49c
    ea58:	2402000f 	li	v0,15
    ea5c:	08004d24 	j	0x13490
    ea60:	24020011 	li	v0,17
    ea64:	08004d24 	j	0x13490
    ea68:	24020005 	li	v0,5
    ea6c:	24020014 	li	v0,20
    ea70:	a7a20010 	sh	v0,16(sp)
    ea74:	27b10010 	addiu	s1,sp,16
    ea78:	00008021 	move	s0,zero
    ea7c:	0c004d4b 	jal	0x1352c
    ea80:	24040001 	li	a0,1
    ea84:	26100001 	addiu	s0,s0,1
    ea88:	2e020020 	sltiu	v0,s0,32
    ea8c:	1440fffb 	bnez	v0,0xea7c
    ea90:	00000000 	nop
    ea94:	0c004d4b 	jal	0x1352c
    ea98:	00002021 	move	a0,zero
    ea9c:	0c004d4b 	jal	0x1352c
    eaa0:	24040001 	li	a0,1
    eaa4:	0c004d4b 	jal	0x1352c
    eaa8:	00002021 	move	a0,zero
    eaac:	0c004d4b 	jal	0x1352c
    eab0:	24040001 	li	a0,1
    eab4:	24100010 	li	s0,16
    eab8:	32020001 	andi	v0,s0,0x1
    eabc:	10400002 	beqz	v0,0xeac8
    eac0:	00002021 	move	a0,zero
    eac4:	24040001 	li	a0,1
    eac8:	0c004d4b 	jal	0x1352c
    eacc:	00108042 	srl	s0,s0,0x1
    ead0:	1600fffa 	bnez	s0,0xeabc
    ead4:	32020001 	andi	v0,s0,0x1
    ead8:	24100010 	li	s0,16
    eadc:	32020012 	andi	v0,s0,0x12
    eae0:	10400002 	beqz	v0,0xeaec
    eae4:	00002021 	move	a0,zero
    eae8:	24040001 	li	a0,1
    eaec:	0c004d4b 	jal	0x1352c
    eaf0:	00108042 	srl	s0,s0,0x1
    eaf4:	1600fffa 	bnez	s0,0xeae0
    eaf8:	32020012 	andi	v0,s0,0x12
    eafc:	0c004d4b 	jal	0x1352c
    eb00:	24040001 	li	a0,1
    eb04:	0c004d4b 	jal	0x1352c
    eb08:	00002021 	move	a0,zero
    eb0c:	34108000 	li	s0,0x8000
    eb10:	96220000 	lhu	v0,0(s1)
    eb14:	00501024 	and	v0,v0,s0
    eb18:	10400002 	beqz	v0,0xeb24
    eb1c:	00002021 	move	a0,zero
    eb20:	24040001 	li	a0,1
    eb24:	0c004d4b 	jal	0x1352c
    eb28:	00108042 	srl	s0,s0,0x1
    eb2c:	1600fff8 	bnez	s0,0xeb10
    eb30:	00000000 	nop
    eb34:	0c004d71 	jal	0x135c4
    eb38:	00000000 	nop
    eb3c:	8f830054 	lw	v1,84(gp)
    eb40:	08004d16 	j	0x13458
    eb44:	24020006 	li	v0,6
    eb48:	8f830054 	lw	v1,84(gp)
    eb4c:	3c020001 	lui	v0,0x1
    eb50:	8c425db8 	lw	v0,23992(v0)
    eb54:	2463ff9c 	addiu	v1,v1,-100
    eb58:	00431023 	subu	v0,v0,v1
    eb5c:	2c420064 	sltiu	v0,v0,100
    eb60:	14400250 	bnez	v0,0xf4a4
    eb64:	24020007 	li	v0,7
    eb68:	08004d24 	j	0x13490
    eb6c:	00000000 	nop
    eb70:	24020006 	li	v0,6
    eb74:	a7a20010 	sh	v0,16(sp)
    eb78:	27b10010 	addiu	s1,sp,16
    eb7c:	00008021 	move	s0,zero
    eb80:	0c004d4b 	jal	0x1352c
    eb84:	24040001 	li	a0,1
    eb88:	26100001 	addiu	s0,s0,1
    eb8c:	2e020020 	sltiu	v0,s0,32
    eb90:	1440fffb 	bnez	v0,0xeb80
    eb94:	00000000 	nop
    eb98:	0c004d4b 	jal	0x1352c
    eb9c:	00002021 	move	a0,zero
    eba0:	0c004d4b 	jal	0x1352c
    eba4:	24040001 	li	a0,1
    eba8:	0c004d4b 	jal	0x1352c
    ebac:	00002021 	move	a0,zero
    ebb0:	0c004d4b 	jal	0x1352c
    ebb4:	24040001 	li	a0,1
    ebb8:	24100010 	li	s0,16
    ebbc:	32020001 	andi	v0,s0,0x1
    ebc0:	10400002 	beqz	v0,0xebcc
    ebc4:	00002021 	move	a0,zero
    ebc8:	24040001 	li	a0,1
    ebcc:	0c004d4b 	jal	0x1352c
    ebd0:	00108042 	srl	s0,s0,0x1
    ebd4:	1600fffa 	bnez	s0,0xebc0
    ebd8:	32020001 	andi	v0,s0,0x1
    ebdc:	24100010 	li	s0,16
    ebe0:	32020013 	andi	v0,s0,0x13
    ebe4:	10400002 	beqz	v0,0xebf0
    ebe8:	00002021 	move	a0,zero
    ebec:	24040001 	li	a0,1
    ebf0:	0c004d4b 	jal	0x1352c
    ebf4:	00108042 	srl	s0,s0,0x1
    ebf8:	1600fffa 	bnez	s0,0xebe4
    ebfc:	32020013 	andi	v0,s0,0x13
    ec00:	0c004d4b 	jal	0x1352c
    ec04:	24040001 	li	a0,1
    ec08:	0c004d4b 	jal	0x1352c
    ec0c:	00002021 	move	a0,zero
    ec10:	34108000 	li	s0,0x8000
    ec14:	96220000 	lhu	v0,0(s1)
    ec18:	00501024 	and	v0,v0,s0
    ec1c:	10400002 	beqz	v0,0xec28
    ec20:	00002021 	move	a0,zero
    ec24:	24040001 	li	a0,1
    ec28:	0c004d4b 	jal	0x1352c
    ec2c:	00108042 	srl	s0,s0,0x1
    ec30:	1600fff8 	bnez	s0,0xec14
    ec34:	00000000 	nop
    ec38:	0c004d71 	jal	0x135c4
    ec3c:	00000000 	nop
    ec40:	8f830054 	lw	v1,84(gp)
    ec44:	08004d16 	j	0x13458
    ec48:	24020008 	li	v0,8
    ec4c:	8f830054 	lw	v1,84(gp)
    ec50:	3c020001 	lui	v0,0x1
    ec54:	8c425db8 	lw	v0,23992(v0)
    ec58:	2463ff9c 	addiu	v1,v1,-100
    ec5c:	00431023 	subu	v0,v0,v1
    ec60:	2c420064 	sltiu	v0,v0,100
    ec64:	1440020f 	bnez	v0,0xf4a4
    ec68:	24020009 	li	v0,9
    ec6c:	08004d24 	j	0x13490
    ec70:	00000000 	nop
    ec74:	27b10010 	addiu	s1,sp,16
    ec78:	a7a00010 	sh	zero,16(sp)
    ec7c:	00008021 	move	s0,zero
    ec80:	0c004d4b 	jal	0x1352c
    ec84:	24040001 	li	a0,1
    ec88:	26100001 	addiu	s0,s0,1
    ec8c:	2e020020 	sltiu	v0,s0,32
    ec90:	1440fffb 	bnez	v0,0xec80
    ec94:	00000000 	nop
    ec98:	0c004d4b 	jal	0x1352c
    ec9c:	00002021 	move	a0,zero
    eca0:	0c004d4b 	jal	0x1352c
    eca4:	24040001 	li	a0,1
    eca8:	0c004d4b 	jal	0x1352c
    ecac:	24040001 	li	a0,1
    ecb0:	0c004d4b 	jal	0x1352c
    ecb4:	00002021 	move	a0,zero
    ecb8:	24100010 	li	s0,16
    ecbc:	32020001 	andi	v0,s0,0x1
    ecc0:	10400002 	beqz	v0,0xeccc
    ecc4:	00002021 	move	a0,zero
    ecc8:	24040001 	li	a0,1
    eccc:	0c004d4b 	jal	0x1352c
    ecd0:	00108042 	srl	s0,s0,0x1
    ecd4:	1600fffa 	bnez	s0,0xecc0
    ecd8:	32020001 	andi	v0,s0,0x1
    ecdc:	24100010 	li	s0,16
    ece0:	32020018 	andi	v0,s0,0x18
    ece4:	10400002 	beqz	v0,0xecf0
    ece8:	00002021 	move	a0,zero
    ecec:	24040001 	li	a0,1
    ecf0:	0c004d4b 	jal	0x1352c
    ecf4:	00108042 	srl	s0,s0,0x1
    ecf8:	1600fffa 	bnez	s0,0xece4
    ecfc:	32020018 	andi	v0,s0,0x18
    ed00:	0c004d71 	jal	0x135c4
    ed04:	34108000 	li	s0,0x8000
    ed08:	0c004d71 	jal	0x135c4
    ed0c:	00000000 	nop
    ed10:	0c004d2b 	jal	0x134ac
    ed14:	00000000 	nop
    ed18:	50400005 	beqzl	v0,0xed30
    ed1c:	00108042 	srl	s0,s0,0x1
    ed20:	96220000 	lhu	v0,0(s1)
    ed24:	00501025 	or	v0,v0,s0
    ed28:	a6220000 	sh	v0,0(s1)
    ed2c:	00108042 	srl	s0,s0,0x1
    ed30:	1600fff7 	bnez	s0,0xed10
    ed34:	00000000 	nop
    ed38:	0c004d71 	jal	0x135c4
    ed3c:	00008021 	move	s0,zero
    ed40:	97a20010 	lhu	v0,16(sp)
    ed44:	27b10010 	addiu	s1,sp,16
    ed48:	34420001 	ori	v0,v0,0x1
    ed4c:	a7a20010 	sh	v0,16(sp)
    ed50:	0c004d4b 	jal	0x1352c
    ed54:	24040001 	li	a0,1
    ed58:	26100001 	addiu	s0,s0,1
    ed5c:	2e020020 	sltiu	v0,s0,32
    ed60:	1440fffb 	bnez	v0,0xed50
    ed64:	00000000 	nop
    ed68:	0c004d4b 	jal	0x1352c
    ed6c:	00002021 	move	a0,zero
    ed70:	0c004d4b 	jal	0x1352c
    ed74:	24040001 	li	a0,1
    ed78:	0c004d4b 	jal	0x1352c
    ed7c:	00002021 	move	a0,zero
    ed80:	0c004d4b 	jal	0x1352c
    ed84:	24040001 	li	a0,1
    ed88:	24100010 	li	s0,16
    ed8c:	32020001 	andi	v0,s0,0x1
    ed90:	10400002 	beqz	v0,0xed9c
    ed94:	00002021 	move	a0,zero
    ed98:	24040001 	li	a0,1
    ed9c:	0c004d4b 	jal	0x1352c
    eda0:	00108042 	srl	s0,s0,0x1
    eda4:	1600fffa 	bnez	s0,0xed90
    eda8:	32020001 	andi	v0,s0,0x1
    edac:	24100010 	li	s0,16
    edb0:	32020018 	andi	v0,s0,0x18
    edb4:	10400002 	beqz	v0,0xedc0
    edb8:	00002021 	move	a0,zero
    edbc:	24040001 	li	a0,1
    edc0:	0c004d4b 	jal	0x1352c
    edc4:	00108042 	srl	s0,s0,0x1
    edc8:	1600fffa 	bnez	s0,0xedb4
    edcc:	32020018 	andi	v0,s0,0x18
    edd0:	0c004d4b 	jal	0x1352c
    edd4:	24040001 	li	a0,1
    edd8:	0c004d4b 	jal	0x1352c
    eddc:	00002021 	move	a0,zero
    ede0:	34108000 	li	s0,0x8000
    ede4:	96220000 	lhu	v0,0(s1)
    ede8:	00501024 	and	v0,v0,s0
    edec:	10400002 	beqz	v0,0xedf8
    edf0:	00002021 	move	a0,zero
    edf4:	24040001 	li	a0,1
    edf8:	0c004d4b 	jal	0x1352c
    edfc:	00108042 	srl	s0,s0,0x1
    ee00:	1600fff8 	bnez	s0,0xede4
    ee04:	00000000 	nop
    ee08:	0c004d71 	jal	0x135c4
    ee0c:	00000000 	nop
    ee10:	8f830054 	lw	v1,84(gp)
    ee14:	08004d16 	j	0x13458
    ee18:	2402000a 	li	v0,10
    ee1c:	8f830054 	lw	v1,84(gp)
    ee20:	3c020001 	lui	v0,0x1
    ee24:	8c425db8 	lw	v0,23992(v0)
    ee28:	2463ff9c 	addiu	v1,v1,-100
    ee2c:	00431023 	subu	v0,v0,v1
    ee30:	2c420064 	sltiu	v0,v0,100
    ee34:	1440019b 	bnez	v0,0xf4a4
    ee38:	2402000b 	li	v0,11
    ee3c:	08004d24 	j	0x13490
    ee40:	00000000 	nop
    ee44:	27b10010 	addiu	s1,sp,16
    ee48:	a7a00010 	sh	zero,16(sp)
    ee4c:	00008021 	move	s0,zero
    ee50:	0c004d4b 	jal	0x1352c
    ee54:	24040001 	li	a0,1
    ee58:	26100001 	addiu	s0,s0,1
    ee5c:	2e020020 	sltiu	v0,s0,32
    ee60:	1440fffb 	bnez	v0,0xee50
    ee64:	00000000 	nop
    ee68:	0c004d4b 	jal	0x1352c
    ee6c:	00002021 	move	a0,zero
    ee70:	0c004d4b 	jal	0x1352c
    ee74:	24040001 	li	a0,1
    ee78:	0c004d4b 	jal	0x1352c
    ee7c:	24040001 	li	a0,1
    ee80:	0c004d4b 	jal	0x1352c
    ee84:	00002021 	move	a0,zero
    ee88:	24100010 	li	s0,16
    ee8c:	32020001 	andi	v0,s0,0x1
    ee90:	10400002 	beqz	v0,0xee9c
    ee94:	00002021 	move	a0,zero
    ee98:	24040001 	li	a0,1
    ee9c:	0c004d4b 	jal	0x1352c
    eea0:	00108042 	srl	s0,s0,0x1
    eea4:	1600fffa 	bnez	s0,0xee90
    eea8:	32020001 	andi	v0,s0,0x1
    eeac:	24100010 	li	s0,16
    eeb0:	32020017 	andi	v0,s0,0x17
    eeb4:	10400002 	beqz	v0,0xeec0
    eeb8:	00002021 	move	a0,zero
    eebc:	24040001 	li	a0,1
    eec0:	0c004d4b 	jal	0x1352c
    eec4:	00108042 	srl	s0,s0,0x1
    eec8:	1600fffa 	bnez	s0,0xeeb4
    eecc:	32020017 	andi	v0,s0,0x17
    eed0:	0c004d71 	jal	0x135c4
    eed4:	34108000 	li	s0,0x8000
    eed8:	0c004d71 	jal	0x135c4
    eedc:	00000000 	nop
    eee0:	0c004d2b 	jal	0x134ac
    eee4:	00000000 	nop
    eee8:	50400005 	beqzl	v0,0xef00
    eeec:	00108042 	srl	s0,s0,0x1
    eef0:	96220000 	lhu	v0,0(s1)
    eef4:	00501025 	or	v0,v0,s0
    eef8:	a6220000 	sh	v0,0(s1)
    eefc:	00108042 	srl	s0,s0,0x1
    ef00:	1600fff7 	bnez	s0,0xeee0
    ef04:	00000000 	nop
    ef08:	0c004d71 	jal	0x135c4
    ef0c:	00008021 	move	s0,zero
    ef10:	97a20010 	lhu	v0,16(sp)
    ef14:	27b10010 	addiu	s1,sp,16
    ef18:	34420700 	ori	v0,v0,0x700
    ef1c:	a7a20010 	sh	v0,16(sp)
    ef20:	0c004d4b 	jal	0x1352c
    ef24:	24040001 	li	a0,1
    ef28:	26100001 	addiu	s0,s0,1
    ef2c:	2e020020 	sltiu	v0,s0,32
    ef30:	1440fffb 	bnez	v0,0xef20
    ef34:	00000000 	nop
    ef38:	0c004d4b 	jal	0x1352c
    ef3c:	00002021 	move	a0,zero
    ef40:	0c004d4b 	jal	0x1352c
    ef44:	24040001 	li	a0,1
    ef48:	0c004d4b 	jal	0x1352c
    ef4c:	00002021 	move	a0,zero
    ef50:	0c004d4b 	jal	0x1352c
    ef54:	24040001 	li	a0,1
    ef58:	24100010 	li	s0,16
    ef5c:	32020001 	andi	v0,s0,0x1
    ef60:	10400002 	beqz	v0,0xef6c
    ef64:	00002021 	move	a0,zero
    ef68:	24040001 	li	a0,1
    ef6c:	0c004d4b 	jal	0x1352c
    ef70:	00108042 	srl	s0,s0,0x1
    ef74:	1600fffa 	bnez	s0,0xef60
    ef78:	32020001 	andi	v0,s0,0x1
    ef7c:	24100010 	li	s0,16
    ef80:	32020017 	andi	v0,s0,0x17
    ef84:	10400002 	beqz	v0,0xef90
    ef88:	00002021 	move	a0,zero
    ef8c:	24040001 	li	a0,1
    ef90:	0c004d4b 	jal	0x1352c
    ef94:	00108042 	srl	s0,s0,0x1
    ef98:	1600fffa 	bnez	s0,0xef84
    ef9c:	32020017 	andi	v0,s0,0x17
    efa0:	0c004d4b 	jal	0x1352c
    efa4:	24040001 	li	a0,1
    efa8:	0c004d4b 	jal	0x1352c
    efac:	00002021 	move	a0,zero
    efb0:	34108000 	li	s0,0x8000
    efb4:	96220000 	lhu	v0,0(s1)
    efb8:	00501024 	and	v0,v0,s0
    efbc:	10400002 	beqz	v0,0xefc8
    efc0:	00002021 	move	a0,zero
    efc4:	24040001 	li	a0,1
    efc8:	0c004d4b 	jal	0x1352c
    efcc:	00108042 	srl	s0,s0,0x1
    efd0:	1600fff8 	bnez	s0,0xefb4
    efd4:	00000000 	nop
    efd8:	0c004d71 	jal	0x135c4
    efdc:	00000000 	nop
    efe0:	8f830054 	lw	v1,84(gp)
    efe4:	08004d16 	j	0x13458
    efe8:	2402000c 	li	v0,12
    efec:	8f830054 	lw	v1,84(gp)
    eff0:	3c020001 	lui	v0,0x1
    eff4:	8c425db8 	lw	v0,23992(v0)
    eff8:	2463ff9c 	addiu	v1,v1,-100
    effc:	00431023 	subu	v0,v0,v1
    f000:	2c420064 	sltiu	v0,v0,100
    f004:	14400127 	bnez	v0,0xf4a4
    f008:	24020012 	li	v0,18
    f00c:	08004d24 	j	0x13490
    f010:	00000000 	nop
    f014:	27b10010 	addiu	s1,sp,16
    f018:	a7a00010 	sh	zero,16(sp)
    f01c:	00008021 	move	s0,zero
    f020:	0c004d4b 	jal	0x1352c
    f024:	24040001 	li	a0,1
    f028:	26100001 	addiu	s0,s0,1
    f02c:	2e020020 	sltiu	v0,s0,32
    f030:	1440fffb 	bnez	v0,0xf020
    f034:	00000000 	nop
    f038:	0c004d4b 	jal	0x1352c
    f03c:	00002021 	move	a0,zero
    f040:	0c004d4b 	jal	0x1352c
    f044:	24040001 	li	a0,1
    f048:	0c004d4b 	jal	0x1352c
    f04c:	24040001 	li	a0,1
    f050:	0c004d4b 	jal	0x1352c
    f054:	00002021 	move	a0,zero
    f058:	24100010 	li	s0,16
    f05c:	32020001 	andi	v0,s0,0x1
    f060:	10400002 	beqz	v0,0xf06c
    f064:	00002021 	move	a0,zero
    f068:	24040001 	li	a0,1
    f06c:	0c004d4b 	jal	0x1352c
    f070:	00108042 	srl	s0,s0,0x1
    f074:	1600fffa 	bnez	s0,0xf060
    f078:	32020001 	andi	v0,s0,0x1
    f07c:	24100010 	li	s0,16
    f080:	32020014 	andi	v0,s0,0x14
    f084:	10400002 	beqz	v0,0xf090
    f088:	00002021 	move	a0,zero
    f08c:	24040001 	li	a0,1
    f090:	0c004d4b 	jal	0x1352c
    f094:	00108042 	srl	s0,s0,0x1
    f098:	1600fffa 	bnez	s0,0xf084
    f09c:	32020014 	andi	v0,s0,0x14
    f0a0:	0c004d71 	jal	0x135c4
    f0a4:	34108000 	li	s0,0x8000
    f0a8:	0c004d71 	jal	0x135c4
    f0ac:	00000000 	nop
    f0b0:	0c004d2b 	jal	0x134ac
    f0b4:	00000000 	nop
    f0b8:	50400005 	beqzl	v0,0xf0d0
    f0bc:	00108042 	srl	s0,s0,0x1
    f0c0:	96220000 	lhu	v0,0(s1)
    f0c4:	00501025 	or	v0,v0,s0
    f0c8:	a6220000 	sh	v0,0(s1)
    f0cc:	00108042 	srl	s0,s0,0x1
    f0d0:	1600fff7 	bnez	s0,0xf0b0
    f0d4:	00000000 	nop
    f0d8:	0c004d71 	jal	0x135c4
    f0dc:	00008021 	move	s0,zero
    f0e0:	97a20010 	lhu	v0,16(sp)
    f0e4:	27b10010 	addiu	s1,sp,16
    f0e8:	34420010 	ori	v0,v0,0x10
    f0ec:	a7a20010 	sh	v0,16(sp)
    f0f0:	0c004d4b 	jal	0x1352c
    f0f4:	24040001 	li	a0,1
    f0f8:	26100001 	addiu	s0,s0,1
    f0fc:	2e020020 	sltiu	v0,s0,32
    f100:	1440fffb 	bnez	v0,0xf0f0
    f104:	00000000 	nop
    f108:	0c004d4b 	jal	0x1352c
    f10c:	00002021 	move	a0,zero
    f110:	0c004d4b 	jal	0x1352c
    f114:	24040001 	li	a0,1
    f118:	0c004d4b 	jal	0x1352c
    f11c:	00002021 	move	a0,zero
    f120:	0c004d4b 	jal	0x1352c
    f124:	24040001 	li	a0,1
    f128:	24100010 	li	s0,16
    f12c:	32020001 	andi	v0,s0,0x1
    f130:	10400002 	beqz	v0,0xf13c
    f134:	00002021 	move	a0,zero
    f138:	24040001 	li	a0,1
    f13c:	0c004d4b 	jal	0x1352c
    f140:	00108042 	srl	s0,s0,0x1
    f144:	1600fffa 	bnez	s0,0xf130
    f148:	32020001 	andi	v0,s0,0x1
    f14c:	24100010 	li	s0,16
    f150:	32020014 	andi	v0,s0,0x14
    f154:	10400002 	beqz	v0,0xf160
    f158:	00002021 	move	a0,zero
    f15c:	24040001 	li	a0,1
    f160:	0c004d4b 	jal	0x1352c
    f164:	00108042 	srl	s0,s0,0x1
    f168:	1600fffa 	bnez	s0,0xf154
    f16c:	32020014 	andi	v0,s0,0x14
    f170:	0c004d4b 	jal	0x1352c
    f174:	24040001 	li	a0,1
    f178:	0c004d4b 	jal	0x1352c
    f17c:	00002021 	move	a0,zero
    f180:	34108000 	li	s0,0x8000
    f184:	96220000 	lhu	v0,0(s1)
    f188:	00501024 	and	v0,v0,s0
    f18c:	10400002 	beqz	v0,0xf198
    f190:	00002021 	move	a0,zero
    f194:	24040001 	li	a0,1
    f198:	0c004d4b 	jal	0x1352c
    f19c:	00108042 	srl	s0,s0,0x1
    f1a0:	1600fff8 	bnez	s0,0xf184
    f1a4:	00000000 	nop
    f1a8:	0c004d71 	jal	0x135c4
    f1ac:	00000000 	nop
    f1b0:	8f830054 	lw	v1,84(gp)
    f1b4:	08004d16 	j	0x13458
    f1b8:	24020013 	li	v0,19
    f1bc:	8f830054 	lw	v1,84(gp)
    f1c0:	3c020001 	lui	v0,0x1
    f1c4:	8c425db8 	lw	v0,23992(v0)
    f1c8:	2463ff9c 	addiu	v1,v1,-100
    f1cc:	00431023 	subu	v0,v0,v1
    f1d0:	2c420064 	sltiu	v0,v0,100
    f1d4:	144000b3 	bnez	v0,0xf4a4
    f1d8:	2402000d 	li	v0,13
    f1dc:	08004d24 	j	0x13490
    f1e0:	00000000 	nop
    f1e4:	27b10010 	addiu	s1,sp,16
    f1e8:	a7a00010 	sh	zero,16(sp)
    f1ec:	00008021 	move	s0,zero
    f1f0:	0c004d4b 	jal	0x1352c
    f1f4:	24040001 	li	a0,1
    f1f8:	26100001 	addiu	s0,s0,1
    f1fc:	2e020020 	sltiu	v0,s0,32
    f200:	1440fffb 	bnez	v0,0xf1f0
    f204:	00000000 	nop
    f208:	0c004d4b 	jal	0x1352c
    f20c:	00002021 	move	a0,zero
    f210:	0c004d4b 	jal	0x1352c
    f214:	24040001 	li	a0,1
    f218:	0c004d4b 	jal	0x1352c
    f21c:	24040001 	li	a0,1
    f220:	0c004d4b 	jal	0x1352c
    f224:	00002021 	move	a0,zero
    f228:	24100010 	li	s0,16
    f22c:	32020001 	andi	v0,s0,0x1
    f230:	10400002 	beqz	v0,0xf23c
    f234:	00002021 	move	a0,zero
    f238:	24040001 	li	a0,1
    f23c:	0c004d4b 	jal	0x1352c
    f240:	00108042 	srl	s0,s0,0x1
    f244:	1600fffa 	bnez	s0,0xf230
    f248:	32020001 	andi	v0,s0,0x1
    f24c:	24100010 	li	s0,16
    f250:	32020018 	andi	v0,s0,0x18
    f254:	10400002 	beqz	v0,0xf260
    f258:	00002021 	move	a0,zero
    f25c:	24040001 	li	a0,1
    f260:	0c004d4b 	jal	0x1352c
    f264:	00108042 	srl	s0,s0,0x1
    f268:	1600fffa 	bnez	s0,0xf254
    f26c:	32020018 	andi	v0,s0,0x18
    f270:	0c004d71 	jal	0x135c4
    f274:	34108000 	li	s0,0x8000
    f278:	0c004d71 	jal	0x135c4
    f27c:	00000000 	nop
    f280:	0c004d2b 	jal	0x134ac
    f284:	00000000 	nop
    f288:	50400005 	beqzl	v0,0xf2a0
    f28c:	00108042 	srl	s0,s0,0x1
    f290:	96220000 	lhu	v0,0(s1)
    f294:	00501025 	or	v0,v0,s0
    f298:	a6220000 	sh	v0,0(s1)
    f29c:	00108042 	srl	s0,s0,0x1
    f2a0:	1600fff7 	bnez	s0,0xf280
    f2a4:	00000000 	nop
    f2a8:	0c004d71 	jal	0x135c4
    f2ac:	00008021 	move	s0,zero
    f2b0:	97a20010 	lhu	v0,16(sp)
    f2b4:	27b10010 	addiu	s1,sp,16
    f2b8:	3042fffe 	andi	v0,v0,0xfffe
    f2bc:	a7a20010 	sh	v0,16(sp)
    f2c0:	0c004d4b 	jal	0x1352c
    f2c4:	24040001 	li	a0,1
    f2c8:	26100001 	addiu	s0,s0,1
    f2cc:	2e020020 	sltiu	v0,s0,32
    f2d0:	1440fffb 	bnez	v0,0xf2c0
    f2d4:	00000000 	nop
    f2d8:	0c004d4b 	jal	0x1352c
    f2dc:	00002021 	move	a0,zero
    f2e0:	0c004d4b 	jal	0x1352c
    f2e4:	24040001 	li	a0,1
    f2e8:	0c004d4b 	jal	0x1352c
    f2ec:	00002021 	move	a0,zero
    f2f0:	0c004d4b 	jal	0x1352c
    f2f4:	24040001 	li	a0,1
    f2f8:	24100010 	li	s0,16
    f2fc:	32020001 	andi	v0,s0,0x1
    f300:	10400002 	beqz	v0,0xf30c
    f304:	00002021 	move	a0,zero
    f308:	24040001 	li	a0,1
    f30c:	0c004d4b 	jal	0x1352c
    f310:	00108042 	srl	s0,s0,0x1
    f314:	1600fffa 	bnez	s0,0xf300
    f318:	32020001 	andi	v0,s0,0x1
    f31c:	24100010 	li	s0,16
    f320:	32020018 	andi	v0,s0,0x18
    f324:	10400002 	beqz	v0,0xf330
    f328:	00002021 	move	a0,zero
    f32c:	24040001 	li	a0,1
    f330:	0c004d4b 	jal	0x1352c
    f334:	00108042 	srl	s0,s0,0x1
    f338:	1600fffa 	bnez	s0,0xf324
    f33c:	32020018 	andi	v0,s0,0x18
    f340:	0c004d4b 	jal	0x1352c
    f344:	24040001 	li	a0,1
    f348:	0c004d4b 	jal	0x1352c
    f34c:	00002021 	move	a0,zero
    f350:	34108000 	li	s0,0x8000
    f354:	96220000 	lhu	v0,0(s1)
    f358:	00501024 	and	v0,v0,s0
    f35c:	10400002 	beqz	v0,0xf368
    f360:	00002021 	move	a0,zero
    f364:	24040001 	li	a0,1
    f368:	0c004d4b 	jal	0x1352c
    f36c:	00108042 	srl	s0,s0,0x1
    f370:	1600fff8 	bnez	s0,0xf354
    f374:	00000000 	nop
    f378:	0c004d71 	jal	0x135c4
    f37c:	00000000 	nop
    f380:	8f830054 	lw	v1,84(gp)
    f384:	08004d16 	j	0x13458
    f388:	2402000e 	li	v0,14
    f38c:	24020840 	li	v0,2112
    f390:	a7a20010 	sh	v0,16(sp)
    f394:	27b10010 	addiu	s1,sp,16
    f398:	00008021 	move	s0,zero
    f39c:	0c004d4b 	jal	0x1352c
    f3a0:	24040001 	li	a0,1
    f3a4:	26100001 	addiu	s0,s0,1
    f3a8:	2e020020 	sltiu	v0,s0,32
    f3ac:	1440fffb 	bnez	v0,0xf39c
    f3b0:	00000000 	nop
    f3b4:	0c004d4b 	jal	0x1352c
    f3b8:	00002021 	move	a0,zero
    f3bc:	0c004d4b 	jal	0x1352c
    f3c0:	24040001 	li	a0,1
    f3c4:	0c004d4b 	jal	0x1352c
    f3c8:	00002021 	move	a0,zero
    f3cc:	0c004d4b 	jal	0x1352c
    f3d0:	24040001 	li	a0,1
    f3d4:	24100010 	li	s0,16
    f3d8:	32020001 	andi	v0,s0,0x1
    f3dc:	10400002 	beqz	v0,0xf3e8
    f3e0:	00002021 	move	a0,zero
    f3e4:	24040001 	li	a0,1
    f3e8:	0c004d4b 	jal	0x1352c
    f3ec:	00108042 	srl	s0,s0,0x1
    f3f0:	1600fffa 	bnez	s0,0xf3dc
    f3f4:	32020001 	andi	v0,s0,0x1
    f3f8:	24100010 	li	s0,16
    f3fc:	32020013 	andi	v0,s0,0x13
    f400:	10400002 	beqz	v0,0xf40c
    f404:	00002021 	move	a0,zero
    f408:	24040001 	li	a0,1
    f40c:	0c004d4b 	jal	0x1352c
    f410:	00108042 	srl	s0,s0,0x1
    f414:	1600fffa 	bnez	s0,0xf400
    f418:	32020013 	andi	v0,s0,0x13
    f41c:	0c004d4b 	jal	0x1352c
    f420:	24040001 	li	a0,1
    f424:	0c004d4b 	jal	0x1352c
    f428:	00002021 	move	a0,zero
    f42c:	34108000 	li	s0,0x8000
    f430:	96220000 	lhu	v0,0(s1)
    f434:	00501024 	and	v0,v0,s0
    f438:	10400002 	beqz	v0,0xf444
    f43c:	00002021 	move	a0,zero
    f440:	24040001 	li	a0,1
    f444:	0c004d4b 	jal	0x1352c
    f448:	00108042 	srl	s0,s0,0x1
    f44c:	1600fff8 	bnez	s0,0xf430
    f450:	00000000 	nop
    f454:	0c004d71 	jal	0x135c4
    f458:	00000000 	nop
    f45c:	8f830054 	lw	v1,84(gp)
    f460:	24020010 	li	v0,16
    f464:	3c010001 	lui	at,0x1
    f468:	ac225d00 	sw	v0,23808(at)
    f46c:	3c010001 	lui	at,0x1
    f470:	08004d26 	j	0x13498
    f474:	ac235db8 	sw	v1,23992(at)
    f478:	8f830054 	lw	v1,84(gp)
    f47c:	3c020001 	lui	v0,0x1
    f480:	8c425db8 	lw	v0,23992(v0)
    f484:	2463ff9c 	addiu	v1,v1,-100
    f488:	00431023 	subu	v0,v0,v1
    f48c:	2c420064 	sltiu	v0,v0,100
    f490:	14400004 	bnez	v0,0xf4a4
    f494:	00000000 	nop
    f498:	24020011 	li	v0,17
    f49c:	3c010001 	lui	at,0x1
    f4a0:	ac225d00 	sw	v0,23808(at)
    f4a4:	8fbf0020 	lw	ra,32(sp)
    f4a8:	8fb1001c 	lw	s1,28(sp)
    f4ac:	8fb00018 	lw	s0,24(sp)
    f4b0:	03e00008 	jr	ra
    f4b4:	27bd0028 	addiu	sp,sp,40
    f4b8:	8f850044 	lw	a1,68(gp)
    f4bc:	8f820044 	lw	v0,68(gp)
    f4c0:	3c030001 	lui	v1,0x1
    f4c4:	00431025 	or	v0,v0,v1
    f4c8:	3c030008 	lui	v1,0x8
    f4cc:	af820044 	sw	v0,68(gp)
    f4d0:	8f840054 	lw	a0,84(gp)
    f4d4:	8f820054 	lw	v0,84(gp)
    f4d8:	00a32824 	and	a1,a1,v1
    f4dc:	08004d37 	j	0x134dc
    f4e0:	24840001 	addiu	a0,a0,1
    f4e4:	8f820054 	lw	v0,84(gp)
    f4e8:	00821023 	subu	v0,a0,v0
    f4ec:	2c420002 	sltiu	v0,v0,2
    f4f0:	1440fffc 	bnez	v0,0xf4e4
    f4f4:	00000000 	nop
    f4f8:	8f820044 	lw	v0,68(gp)
    f4fc:	3c03fffe 	lui	v1,0xfffe
    f500:	3463ffff 	ori	v1,v1,0xffff
    f504:	00431024 	and	v0,v0,v1
    f508:	af820044 	sw	v0,68(gp)
    f50c:	8f830054 	lw	v1,84(gp)
    f510:	8f820054 	lw	v0,84(gp)
    f514:	08004d45 	j	0x13514
    f518:	24630001 	addiu	v1,v1,1
    f51c:	8f820054 	lw	v0,84(gp)
    f520:	00621023 	subu	v0,v1,v0
    f524:	2c420002 	sltiu	v0,v0,2
    f528:	1440fffc 	bnez	v0,0xf51c
    f52c:	00000000 	nop
    f530:	03e00008 	jr	ra
    f534:	00a01021 	move	v0,a1
    f538:	8f830044 	lw	v1,68(gp)
    f53c:	3c02fff0 	lui	v0,0xfff0
    f540:	3442ffff 	ori	v0,v0,0xffff
    f544:	00042480 	sll	a0,a0,0x12
    f548:	00621824 	and	v1,v1,v0
    f54c:	3c020002 	lui	v0,0x2
    f550:	00822025 	or	a0,a0,v0
    f554:	00641825 	or	v1,v1,a0
    f558:	af830044 	sw	v1,68(gp)
    f55c:	8f820044 	lw	v0,68(gp)
    f560:	3c03fffe 	lui	v1,0xfffe
    f564:	3463ffff 	ori	v1,v1,0xffff
    f568:	00431024 	and	v0,v0,v1
    f56c:	af820044 	sw	v0,68(gp)
    f570:	8f830054 	lw	v1,84(gp)
    f574:	8f820054 	lw	v0,84(gp)
    f578:	08004d5e 	j	0x13578
    f57c:	24630001 	addiu	v1,v1,1
    f580:	8f820054 	lw	v0,84(gp)
    f584:	00621023 	subu	v0,v1,v0
    f588:	2c420002 	sltiu	v0,v0,2
    f58c:	1440fffc 	bnez	v0,0xf580
    f590:	00000000 	nop
    f594:	8f820044 	lw	v0,68(gp)
    f598:	3c030001 	lui	v1,0x1
    f59c:	00431025 	or	v0,v0,v1
    f5a0:	af820044 	sw	v0,68(gp)
    f5a4:	8f830054 	lw	v1,84(gp)
    f5a8:	8f820054 	lw	v0,84(gp)
    f5ac:	08004d6b 	j	0x135ac
    f5b0:	24630001 	addiu	v1,v1,1
    f5b4:	8f820054 	lw	v0,84(gp)
    f5b8:	00621023 	subu	v0,v1,v0
    f5bc:	2c420002 	sltiu	v0,v0,2
    f5c0:	1440fffc 	bnez	v0,0xf5b4
    f5c4:	00000000 	nop
    f5c8:	03e00008 	jr	ra
    f5cc:	00000000 	nop
    f5d0:	8f820044 	lw	v0,68(gp)
    f5d4:	3c03fff0 	lui	v1,0xfff0
    f5d8:	3463ffff 	ori	v1,v1,0xffff
    f5dc:	00431024 	and	v0,v0,v1
    f5e0:	af820044 	sw	v0,68(gp)
    f5e4:	8f820044 	lw	v0,68(gp)
    f5e8:	3c030001 	lui	v1,0x1
    f5ec:	00431025 	or	v0,v0,v1
    f5f0:	af820044 	sw	v0,68(gp)
    f5f4:	8f830054 	lw	v1,84(gp)
    f5f8:	8f820054 	lw	v0,84(gp)
    f5fc:	08004d7f 	j	0x135fc
    f600:	24630001 	addiu	v1,v1,1
    f604:	8f820054 	lw	v0,84(gp)
    f608:	00621023 	subu	v0,v1,v0
    f60c:	2c420002 	sltiu	v0,v0,2
    f610:	1440fffc 	bnez	v0,0xf604
    f614:	00000000 	nop
    f618:	8f820044 	lw	v0,68(gp)
    f61c:	3c03fffe 	lui	v1,0xfffe
    f620:	3463ffff 	ori	v1,v1,0xffff
    f624:	00431024 	and	v0,v0,v1
    f628:	af820044 	sw	v0,68(gp)
    f62c:	8f830054 	lw	v1,84(gp)
    f630:	8f820054 	lw	v0,84(gp)
    f634:	08004d8d 	j	0x13634
    f638:	24630001 	addiu	v1,v1,1
    f63c:	8f820054 	lw	v0,84(gp)
    f640:	00621023 	subu	v0,v1,v0
    f644:	2c420002 	sltiu	v0,v0,2
    f648:	1440fffc 	bnez	v0,0xf63c
    f64c:	00000000 	nop
    f650:	03e00008 	jr	ra
    f654:	00000000 	nop
    f658:	27bdffc8 	addiu	sp,sp,-56
    f65c:	afb30024 	sw	s3,36(sp)
    f660:	00809821 	move	s3,a0
    f664:	afb5002c 	sw	s5,44(sp)
    f668:	00a0a821 	move	s5,a1
    f66c:	afb20020 	sw	s2,32(sp)
    f670:	00c09021 	move	s2,a2
    f674:	32a2ffff 	andi	v0,s5,0xffff
    f678:	afbf0030 	sw	ra,48(sp)
    f67c:	afb40028 	sw	s4,40(sp)
    f680:	afb1001c 	sw	s1,28(sp)
    f684:	afb00018 	sw	s0,24(sp)
    f688:	14400034 	bnez	v0,0xf75c
    f68c:	a7b20010 	sh	s2,16(sp)
    f690:	3271ffff 	andi	s1,s3,0xffff
    f694:	27b20010 	addiu	s2,sp,16
    f698:	00008021 	move	s0,zero
    f69c:	0c004d4b 	jal	0x1352c
    f6a0:	24040001 	li	a0,1
    f6a4:	26100001 	addiu	s0,s0,1
    f6a8:	2e020020 	sltiu	v0,s0,32
    f6ac:	1440fffb 	bnez	v0,0xf69c
    f6b0:	00000000 	nop
    f6b4:	0c004d4b 	jal	0x1352c
    f6b8:	00002021 	move	a0,zero
    f6bc:	0c004d4b 	jal	0x1352c
    f6c0:	24040001 	li	a0,1
    f6c4:	0c004d4b 	jal	0x1352c
    f6c8:	00002021 	move	a0,zero
    f6cc:	0c004d4b 	jal	0x1352c
    f6d0:	24040001 	li	a0,1
    f6d4:	24100010 	li	s0,16
    f6d8:	32020001 	andi	v0,s0,0x1
    f6dc:	10400002 	beqz	v0,0xf6e8
    f6e0:	00002021 	move	a0,zero
    f6e4:	24040001 	li	a0,1
    f6e8:	0c004d4b 	jal	0x1352c
    f6ec:	00108042 	srl	s0,s0,0x1
    f6f0:	1600fffa 	bnez	s0,0xf6dc
    f6f4:	32020001 	andi	v0,s0,0x1
    f6f8:	24100010 	li	s0,16
    f6fc:	02301024 	and	v0,s1,s0
    f700:	10400002 	beqz	v0,0xf70c
    f704:	00002021 	move	a0,zero
    f708:	24040001 	li	a0,1
    f70c:	0c004d4b 	jal	0x1352c
    f710:	00108042 	srl	s0,s0,0x1
    f714:	1600fffa 	bnez	s0,0xf700
    f718:	02301024 	and	v0,s1,s0
    f71c:	0c004d4b 	jal	0x1352c
    f720:	24040001 	li	a0,1
    f724:	0c004d4b 	jal	0x1352c
    f728:	00002021 	move	a0,zero
    f72c:	34108000 	li	s0,0x8000
    f730:	96420000 	lhu	v0,0(s2)
    f734:	00501024 	and	v0,v0,s0
    f738:	10400002 	beqz	v0,0xf744
    f73c:	00002021 	move	a0,zero
    f740:	24040001 	li	a0,1
    f744:	0c004d4b 	jal	0x1352c
    f748:	00108042 	srl	s0,s0,0x1
    f74c:	12000075 	beqz	s0,0xf924
    f750:	00000000 	nop
    f754:	08004dc9 	j	0x13724
    f758:	00000000 	nop
    f75c:	3274ffff 	andi	s4,s3,0xffff
    f760:	27b10010 	addiu	s1,sp,16
    f764:	a7a00010 	sh	zero,16(sp)
    f768:	00008021 	move	s0,zero
    f76c:	0c004d4b 	jal	0x1352c
    f770:	24040001 	li	a0,1
    f774:	26100001 	addiu	s0,s0,1
    f778:	2e020020 	sltiu	v0,s0,32
    f77c:	1440fffb 	bnez	v0,0xf76c
    f780:	00000000 	nop
    f784:	0c004d4b 	jal	0x1352c
    f788:	00002021 	move	a0,zero
    f78c:	0c004d4b 	jal	0x1352c
    f790:	24040001 	li	a0,1
    f794:	0c004d4b 	jal	0x1352c
    f798:	24040001 	li	a0,1
    f79c:	0c004d4b 	jal	0x1352c
    f7a0:	00002021 	move	a0,zero
    f7a4:	24100010 	li	s0,16
    f7a8:	32020001 	andi	v0,s0,0x1
    f7ac:	10400002 	beqz	v0,0xf7b8
    f7b0:	00002021 	move	a0,zero
    f7b4:	24040001 	li	a0,1
    f7b8:	0c004d4b 	jal	0x1352c
    f7bc:	00108042 	srl	s0,s0,0x1
    f7c0:	1600fffa 	bnez	s0,0xf7ac
    f7c4:	32020001 	andi	v0,s0,0x1
    f7c8:	24100010 	li	s0,16
    f7cc:	02901024 	and	v0,s4,s0
    f7d0:	10400002 	beqz	v0,0xf7dc
    f7d4:	00002021 	move	a0,zero
    f7d8:	24040001 	li	a0,1
    f7dc:	0c004d4b 	jal	0x1352c
    f7e0:	00108042 	srl	s0,s0,0x1
    f7e4:	1600fffa 	bnez	s0,0xf7d0
    f7e8:	02901024 	and	v0,s4,s0
    f7ec:	0c004d71 	jal	0x135c4
    f7f0:	34108000 	li	s0,0x8000
    f7f4:	0c004d71 	jal	0x135c4
    f7f8:	00000000 	nop
    f7fc:	0c004d2b 	jal	0x134ac
    f800:	00000000 	nop
    f804:	50400005 	beqzl	v0,0xf81c
    f808:	00108042 	srl	s0,s0,0x1
    f80c:	96220000 	lhu	v0,0(s1)
    f810:	00501025 	or	v0,v0,s0
    f814:	a6220000 	sh	v0,0(s1)
    f818:	00108042 	srl	s0,s0,0x1
    f81c:	1600fff7 	bnez	s0,0xf7fc
    f820:	00000000 	nop
    f824:	0c004d71 	jal	0x135c4
    f828:	00000000 	nop
    f82c:	32a5ffff 	andi	a1,s5,0xffff
    f830:	24020001 	li	v0,1
    f834:	54a20004 	bnel	a1,v0,0xf848
    f838:	24020002 	li	v0,2
    f83c:	97a20010 	lhu	v0,16(sp)
    f840:	08004e14 	j	0x13850
    f844:	00521025 	or	v0,v0,s2
    f848:	14a20006 	bne	a1,v0,0xf864
    f84c:	3271ffff 	andi	s1,s3,0xffff
    f850:	97a20010 	lhu	v0,16(sp)
    f854:	00121827 	nor	v1,zero,s2
    f858:	00431024 	and	v0,v0,v1
    f85c:	a7a20010 	sh	v0,16(sp)
    f860:	3271ffff 	andi	s1,s3,0xffff
    f864:	27b20010 	addiu	s2,sp,16
    f868:	00008021 	move	s0,zero
    f86c:	0c004d4b 	jal	0x1352c
    f870:	24040001 	li	a0,1
    f874:	26100001 	addiu	s0,s0,1
    f878:	2e020020 	sltiu	v0,s0,32
    f87c:	1440fffb 	bnez	v0,0xf86c
    f880:	00000000 	nop
    f884:	0c004d4b 	jal	0x1352c
    f888:	00002021 	move	a0,zero
    f88c:	0c004d4b 	jal	0x1352c
    f890:	24040001 	li	a0,1
    f894:	0c004d4b 	jal	0x1352c
    f898:	00002021 	move	a0,zero
    f89c:	0c004d4b 	jal	0x1352c
    f8a0:	24040001 	li	a0,1
    f8a4:	24100010 	li	s0,16
    f8a8:	32020001 	andi	v0,s0,0x1
    f8ac:	10400002 	beqz	v0,0xf8b8
    f8b0:	00002021 	move	a0,zero
    f8b4:	24040001 	li	a0,1
    f8b8:	0c004d4b 	jal	0x1352c
    f8bc:	00108042 	srl	s0,s0,0x1
    f8c0:	1600fffa 	bnez	s0,0xf8ac
    f8c4:	32020001 	andi	v0,s0,0x1
    f8c8:	24100010 	li	s0,16
    f8cc:	02301024 	and	v0,s1,s0
    f8d0:	10400002 	beqz	v0,0xf8dc
    f8d4:	00002021 	move	a0,zero
    f8d8:	24040001 	li	a0,1
    f8dc:	0c004d4b 	jal	0x1352c
    f8e0:	00108042 	srl	s0,s0,0x1
    f8e4:	1600fffa 	bnez	s0,0xf8d0
    f8e8:	02301024 	and	v0,s1,s0
    f8ec:	0c004d4b 	jal	0x1352c
    f8f0:	24040001 	li	a0,1
    f8f4:	0c004d4b 	jal	0x1352c
    f8f8:	00002021 	move	a0,zero
    f8fc:	34108000 	li	s0,0x8000
    f900:	96420000 	lhu	v0,0(s2)
    f904:	00501024 	and	v0,v0,s0
    f908:	10400002 	beqz	v0,0xf914
    f90c:	00002021 	move	a0,zero
    f910:	24040001 	li	a0,1
    f914:	0c004d4b 	jal	0x1352c
    f918:	00108042 	srl	s0,s0,0x1
    f91c:	1600fff8 	bnez	s0,0xf900
    f920:	00000000 	nop
    f924:	0c004d71 	jal	0x135c4
    f928:	00000000 	nop
    f92c:	8fbf0030 	lw	ra,48(sp)
    f930:	8fb5002c 	lw	s5,44(sp)
    f934:	8fb40028 	lw	s4,40(sp)
    f938:	8fb30024 	lw	s3,36(sp)
    f93c:	8fb20020 	lw	s2,32(sp)
    f940:	8fb1001c 	lw	s1,28(sp)
    f944:	8fb00018 	lw	s0,24(sp)
    f948:	03e00008 	jr	ra
    f94c:	27bd0038 	addiu	sp,sp,56
	...
    f95c:	27bdffe8 	addiu	sp,sp,-24
    f960:	afbf0010 	sw	ra,16(sp)
    f964:	3c030001 	lui	v1,0x1
    f968:	00771821 	addu	v1,v1,s7
    f96c:	8c6383ac 	lw	v1,-31828(v1)
    f970:	24020008 	li	v0,8
    f974:	1462022c 	bne	v1,v0,0x10228
    f978:	00803021 	move	a2,a0
    f97c:	3c020001 	lui	v0,0x1
    f980:	8c425d98 	lw	v0,23960(v0)
    f984:	14400033 	bnez	v0,0xfa54
    f988:	00000000 	nop
    f98c:	8f850224 	lw	a1,548(gp)
    f990:	38a30020 	xori	v1,a1,0x20
    f994:	2c630001 	sltiu	v1,v1,1
    f998:	38a20010 	xori	v0,a1,0x10
    f99c:	2c420001 	sltiu	v0,v0,1
    f9a0:	00621825 	or	v1,v1,v0
    f9a4:	1460000d 	bnez	v1,0xf9dc
    f9a8:	38a30030 	xori	v1,a1,0x30
    f9ac:	2c630001 	sltiu	v1,v1,1
    f9b0:	38a20400 	xori	v0,a1,0x400
    f9b4:	2c420001 	sltiu	v0,v0,1
    f9b8:	00621825 	or	v1,v1,v0
    f9bc:	14600007 	bnez	v1,0xf9dc
    f9c0:	38a30402 	xori	v1,a1,0x402
    f9c4:	2c630001 	sltiu	v1,v1,1
    f9c8:	38a20404 	xori	v0,a1,0x404
    f9cc:	2c420001 	sltiu	v0,v0,1
    f9d0:	00621825 	or	v1,v1,v0
    f9d4:	10600005 	beqz	v1,0xf9ec
    f9d8:	00000000 	nop
    f9dc:	0c00429b 	jal	0x10a6c
    f9e0:	00000000 	nop
    f9e4:	08004e8d 	j	0x13a34
    f9e8:	2402000e 	li	v0,14
    f9ec:	0c0043dd 	jal	0x10f74
    f9f0:	00000000 	nop
    f9f4:	3c050001 	lui	a1,0x1
    f9f8:	8ca55cc8 	lw	a1,23752(a1)
    f9fc:	0c0052a2 	jal	0x14a88
    fa00:	00002021 	move	a0,zero
    fa04:	3c030001 	lui	v1,0x1
    fa08:	8c635cc8 	lw	v1,23752(v1)
    fa0c:	24020004 	li	v0,4
    fa10:	14620005 	bne	v1,v0,0xfa28
    fa14:	2403fffb 	li	v1,-5
    fa18:	3c020001 	lui	v0,0x1
    fa1c:	8c425cc4 	lw	v0,23748(v0)
    fa20:	08004e89 	j	0x13a24
    fa24:	2403fff7 	li	v1,-9
    fa28:	3c020001 	lui	v0,0x1
    fa2c:	8c425cc4 	lw	v0,23748(v0)
    fa30:	00431024 	and	v0,v0,v1
    fa34:	3c010001 	lui	at,0x1
    fa38:	ac225cc4 	sw	v0,23748(at)
    fa3c:	2402000e 	li	v0,14
    fa40:	3c010001 	lui	at,0x1
    fa44:	0c00429b 	jal	0x10a6c
    fa48:	ac227dd0 	sw	v0,32208(at)
    fa4c:	08005087 	j	0x1421c
    fa50:	00000000 	nop
    fa54:	8f820220 	lw	v0,544(gp)
    fa58:	3c030400 	lui	v1,0x400
    fa5c:	00431024 	and	v0,v0,v1
    fa60:	10400027 	beqz	v0,0xfb00
    fa64:	2403ffbf 	li	v1,-65
    fa68:	8f850224 	lw	a1,548(gp)
    fa6c:	3c020001 	lui	v0,0x1
    fa70:	8c427ddc 	lw	v0,32220(v0)
    fa74:	00a32024 	and	a0,a1,v1
    fa78:	00431024 	and	v0,v0,v1
    fa7c:	1482000c 	bne	a0,v0,0xfab0
    fa80:	00000000 	nop
    fa84:	3c020001 	lui	v0,0x1
    fa88:	8c427de0 	lw	v0,32224(v0)
    fa8c:	24420001 	addiu	v0,v0,1
    fa90:	3c010001 	lui	at,0x1
    fa94:	ac227de0 	sw	v0,32224(at)
    fa98:	2c420002 	sltiu	v0,v0,2
    fa9c:	14400008 	bnez	v0,0xfac0
    faa0:	24020001 	li	v0,1
    faa4:	3c010001 	lui	at,0x1
    faa8:	08004ead 	j	0x13ab4
    faac:	ac227e00 	sw	v0,32256(at)
    fab0:	3c010001 	lui	at,0x1
    fab4:	ac207de0 	sw	zero,32224(at)
    fab8:	3c010001 	lui	at,0x1
    fabc:	ac207e00 	sw	zero,32256(at)
    fac0:	3c020001 	lui	v0,0x1
    fac4:	8c427e00 	lw	v0,32256(v0)
    fac8:	10400006 	beqz	v0,0xfae4
    facc:	30a20040 	andi	v0,a1,0x40
    fad0:	10400004 	beqz	v0,0xfae4
    fad4:	24020001 	li	v0,1
    fad8:	3c010001 	lui	at,0x1
    fadc:	08004eb8 	j	0x13ae0
    fae0:	ac227e04 	sw	v0,32260(at)
    fae4:	3c010001 	lui	at,0x1
    fae8:	ac207e04 	sw	zero,32260(at)
    faec:	3c010001 	lui	at,0x1
    faf0:	ac257ddc 	sw	a1,32220(at)
    faf4:	3c010001 	lui	at,0x1
    faf8:	08004ec8 	j	0x13b20
    fafc:	ac207e10 	sw	zero,32272(at)
    fb00:	24020001 	li	v0,1
    fb04:	3c010001 	lui	at,0x1
    fb08:	ac227e10 	sw	v0,32272(at)
    fb0c:	3c010001 	lui	at,0x1
    fb10:	ac207e00 	sw	zero,32256(at)
    fb14:	3c010001 	lui	at,0x1
    fb18:	ac207de0 	sw	zero,32224(at)
    fb1c:	3c010001 	lui	at,0x1
    fb20:	ac207e04 	sw	zero,32260(at)
    fb24:	3c010001 	lui	at,0x1
    fb28:	ac207ddc 	sw	zero,32220(at)
    fb2c:	3c030001 	lui	v1,0x1
    fb30:	8c637dd0 	lw	v1,32208(v1)
    fb34:	3c020001 	lui	v0,0x1
    fb38:	8c427dd4 	lw	v0,32212(v0)
    fb3c:	10620003 	beq	v1,v0,0xfb4c
    fb40:	3c020200 	lui	v0,0x200
    fb44:	3c010001 	lui	at,0x1
    fb48:	ac237dd4 	sw	v1,32212(at)
    fb4c:	00c21024 	and	v0,a2,v0
    fb50:	10400007 	beqz	v0,0xfb70
    fb54:	2463ffff 	addiu	v1,v1,-1
    fb58:	8f820220 	lw	v0,544(gp)
    fb5c:	24030001 	li	v1,1
    fb60:	3c010001 	lui	at,0x1
    fb64:	ac235ccc 	sw	v1,23756(at)
    fb68:	08005085 	j	0x14214
    fb6c:	3c03f700 	lui	v1,0xf700
    fb70:	2c62000e 	sltiu	v0,v1,14
    fb74:	104001a8 	beqz	v0,0x10218
    fb78:	00031080 	sll	v0,v1,0x2
    fb7c:	3c010001 	lui	at,0x1
    fb80:	00220821 	addu	at,at,v0
    fb84:	8c225b80 	lw	v0,23424(at)
    fb88:	00400008 	jr	v0
    fb8c:	00000000 	nop
    fb90:	3c010001 	lui	at,0x1
    fb94:	ac207e00 	sw	zero,32256(at)
    fb98:	3c010001 	lui	at,0x1
    fb9c:	ac207de0 	sw	zero,32224(at)
    fba0:	3c010001 	lui	at,0x1
    fba4:	ac207ddc 	sw	zero,32220(at)
    fba8:	3c010001 	lui	at,0x1
    fbac:	ac207e04 	sw	zero,32260(at)
    fbb0:	3c010001 	lui	at,0x1
    fbb4:	ac207df8 	sw	zero,32248(at)
    fbb8:	3c010001 	lui	at,0x1
    fbbc:	ac207df0 	sw	zero,32240(at)
    fbc0:	0c00486a 	jal	0x121a8
    fbc4:	af800224 	sw	zero,548(gp)
    fbc8:	24020002 	li	v0,2
    fbcc:	3c010001 	lui	at,0x1
    fbd0:	ac227dd0 	sw	v0,32208(at)
    fbd4:	3c020001 	lui	v0,0x1
    fbd8:	8c427e10 	lw	v0,32272(v0)
    fbdc:	14400056 	bnez	v0,0xfd38
    fbe0:	3c03fdff 	lui	v1,0xfdff
    fbe4:	8ee20000 	lw	v0,0(s7)
    fbe8:	3463ffff 	ori	v1,v1,0xffff
    fbec:	00431024 	and	v0,v0,v1
    fbf0:	0c00429b 	jal	0x10a6c
    fbf4:	aee20000 	sw	v0,0(s7)
    fbf8:	af800204 	sw	zero,516(gp)
    fbfc:	8f820200 	lw	v0,512(gp)
    fc00:	2403fffd 	li	v1,-3
    fc04:	00431024 	and	v0,v0,v1
    fc08:	af820200 	sw	v0,512(gp)
    fc0c:	3c010001 	lui	at,0x1
    fc10:	ac207e20 	sw	zero,32288(at)
    fc14:	8f830054 	lw	v1,84(gp)
    fc18:	3c020001 	lui	v0,0x1
    fc1c:	8c427df8 	lw	v0,32248(v0)
    fc20:	24040001 	li	a0,1
    fc24:	3c010001 	lui	at,0x1
    fc28:	ac247e0c 	sw	a0,32268(at)
    fc2c:	24420001 	addiu	v0,v0,1
    fc30:	3c010001 	lui	at,0x1
    fc34:	ac227df8 	sw	v0,32248(at)
    fc38:	2c420004 	sltiu	v0,v0,4
    fc3c:	3c010001 	lui	at,0x1
    fc40:	ac237df4 	sw	v1,32244(at)
    fc44:	14400006 	bnez	v0,0xfc60
    fc48:	24020003 	li	v0,3
    fc4c:	3c010001 	lui	at,0x1
    fc50:	ac245ccc 	sw	a0,23756(at)
    fc54:	3c010001 	lui	at,0x1
    fc58:	08005083 	j	0x1420c
    fc5c:	ac207df8 	sw	zero,32248(at)
    fc60:	3c010001 	lui	at,0x1
    fc64:	08005083 	j	0x1420c
    fc68:	ac227dd0 	sw	v0,32208(at)
    fc6c:	8f830054 	lw	v1,84(gp)
    fc70:	3c020001 	lui	v0,0x1
    fc74:	8c427df4 	lw	v0,32244(v0)
    fc78:	2463d8f0 	addiu	v1,v1,-10000
    fc7c:	00431023 	subu	v0,v0,v1
    fc80:	2c422710 	sltiu	v0,v0,10000
    fc84:	14400003 	bnez	v0,0xfc94
    fc88:	24020004 	li	v0,4
    fc8c:	3c010001 	lui	at,0x1
    fc90:	ac227dd0 	sw	v0,32208(at)
    fc94:	3c020001 	lui	v0,0x1
    fc98:	8c427e10 	lw	v0,32272(v0)
    fc9c:	14400026 	bnez	v0,0xfd38
    fca0:	3c03fdff 	lui	v1,0xfdff
    fca4:	8ee20000 	lw	v0,0(s7)
    fca8:	3463ffff 	ori	v1,v1,0xffff
    fcac:	00431024 	and	v0,v0,v1
    fcb0:	08005083 	j	0x1420c
    fcb4:	aee20000 	sw	v0,0(s7)
    fcb8:	3c040001 	lui	a0,0x1
    fcbc:	8c845d9c 	lw	a0,23964(a0)
    fcc0:	3c010001 	lui	at,0x1
    fcc4:	0c00508a 	jal	0x14228
    fcc8:	ac207de8 	sw	zero,32232(at)
    fccc:	3c020001 	lui	v0,0x1
    fcd0:	8c427e1c 	lw	v0,32284(v0)
    fcd4:	af820204 	sw	v0,516(gp)
    fcd8:	3c020001 	lui	v0,0x1
    fcdc:	8c427e10 	lw	v0,32272(v0)
    fce0:	14400015 	bnez	v0,0xfd38
    fce4:	3c03fdff 	lui	v1,0xfdff
    fce8:	8ee20000 	lw	v0,0(s7)
    fcec:	3463ffff 	ori	v1,v1,0xffff
    fcf0:	00431024 	and	v0,v0,v1
    fcf4:	aee20000 	sw	v0,0(s7)
    fcf8:	8f820204 	lw	v0,516(gp)
    fcfc:	30420030 	andi	v0,v0,0x30
    fd00:	1440013c 	bnez	v0,0x101f4
    fd04:	24020002 	li	v0,2
    fd08:	3c030001 	lui	v1,0x1
    fd0c:	8c637e1c 	lw	v1,32284(v1)
    fd10:	24020005 	li	v0,5
    fd14:	3c010001 	lui	at,0x1
    fd18:	ac227dd0 	sw	v0,32208(at)
    fd1c:	3c010001 	lui	at,0x1
    fd20:	08005083 	j	0x1420c
    fd24:	ac237e20 	sw	v1,32288(at)
    fd28:	3c020001 	lui	v0,0x1
    fd2c:	8c427e10 	lw	v0,32272(v0)
    fd30:	10400010 	beqz	v0,0xfd74
    fd34:	3c03fdff 	lui	v1,0xfdff
    fd38:	3c020001 	lui	v0,0x1
    fd3c:	8c425d6c 	lw	v0,23916(v0)
    fd40:	24420001 	addiu	v0,v0,1
    fd44:	3c010001 	lui	at,0x1
    fd48:	ac225d6c 	sw	v0,23916(at)
    fd4c:	2c420002 	sltiu	v0,v0,2
    fd50:	14400131 	bnez	v0,0x10218
    fd54:	24020001 	li	v0,1
    fd58:	3c010001 	lui	at,0x1
    fd5c:	ac225d74 	sw	v0,23924(at)
    fd60:	3c010001 	lui	at,0x1
    fd64:	ac205d6c 	sw	zero,23916(at)
    fd68:	3c010001 	lui	at,0x1
    fd6c:	08005083 	j	0x1420c
    fd70:	ac225ccc 	sw	v0,23756(at)
    fd74:	8ee20000 	lw	v0,0(s7)
    fd78:	3463ffff 	ori	v1,v1,0xffff
    fd7c:	00431024 	and	v0,v0,v1
    fd80:	aee20000 	sw	v0,0(s7)
    fd84:	3c020001 	lui	v0,0x1
    fd88:	8c427e00 	lw	v0,32256(v0)
    fd8c:	10400122 	beqz	v0,0x10218
    fd90:	00000000 	nop
    fd94:	3c020001 	lui	v0,0x1
    fd98:	8c427ddc 	lw	v0,32220(v0)
    fd9c:	1040011e 	beqz	v0,0x10218
    fda0:	00000000 	nop
    fda4:	3c010001 	lui	at,0x1
    fda8:	ac227e08 	sw	v0,32264(at)
    fdac:	24020003 	li	v0,3
    fdb0:	3c010001 	lui	at,0x1
    fdb4:	ac227de0 	sw	v0,32224(at)
    fdb8:	08005024 	j	0x14090
    fdbc:	24020006 	li	v0,6
    fdc0:	3c010001 	lui	at,0x1
    fdc4:	ac207de8 	sw	zero,32232(at)
    fdc8:	8f820204 	lw	v0,516(gp)
    fdcc:	34420040 	ori	v0,v0,0x40
    fdd0:	af820204 	sw	v0,516(gp)
    fdd4:	3c020001 	lui	v0,0x1
    fdd8:	8c427e20 	lw	v0,32288(v0)
    fddc:	24030007 	li	v1,7
    fde0:	3c010001 	lui	at,0x1
    fde4:	ac237dd0 	sw	v1,32208(at)
    fde8:	34420040 	ori	v0,v0,0x40
    fdec:	3c010001 	lui	at,0x1
    fdf0:	ac227e20 	sw	v0,32288(at)
    fdf4:	3c020001 	lui	v0,0x1
    fdf8:	8c427e00 	lw	v0,32256(v0)
    fdfc:	10400005 	beqz	v0,0xfe14
    fe00:	00000000 	nop
    fe04:	3c020001 	lui	v0,0x1
    fe08:	8c427ddc 	lw	v0,32220(v0)
    fe0c:	104000f9 	beqz	v0,0x101f4
    fe10:	24020002 	li	v0,2
    fe14:	3c050001 	lui	a1,0x1
    fe18:	24a57de0 	addiu	a1,a1,32224
    fe1c:	8ca20000 	lw	v0,0(a1)
    fe20:	2c424e21 	sltiu	v0,v0,20001
    fe24:	104000f3 	beqz	v0,0x101f4
    fe28:	24020002 	li	v0,2
    fe2c:	3c020001 	lui	v0,0x1
    fe30:	8c427e04 	lw	v0,32260(v0)
    fe34:	104000f8 	beqz	v0,0x10218
    fe38:	2404ffbf 	li	a0,-65
    fe3c:	3c020001 	lui	v0,0x1
    fe40:	8c427ddc 	lw	v0,32220(v0)
    fe44:	3c030001 	lui	v1,0x1
    fe48:	8c637e08 	lw	v1,32264(v1)
    fe4c:	00441024 	and	v0,v0,a0
    fe50:	00641824 	and	v1,v1,a0
    fe54:	10430004 	beq	v0,v1,0xfe68
    fe58:	24020001 	li	v0,1
    fe5c:	3c010001 	lui	at,0x1
    fe60:	08005083 	j	0x1420c
    fe64:	ac227dd0 	sw	v0,32208(at)
    fe68:	24020003 	li	v0,3
    fe6c:	aca20000 	sw	v0,0(a1)
    fe70:	24020008 	li	v0,8
    fe74:	3c010001 	lui	at,0x1
    fe78:	ac227dd0 	sw	v0,32208(at)
    fe7c:	3c020001 	lui	v0,0x1
    fe80:	8c427e0c 	lw	v0,32268(v0)
    fe84:	1040000c 	beqz	v0,0xfeb8
    fe88:	24020001 	li	v0,1
    fe8c:	3c040001 	lui	a0,0x1
    fe90:	0c005097 	jal	0x1425c
    fe94:	8c847ddc 	lw	a0,32220(a0)
    fe98:	3c020001 	lui	v0,0x1
    fe9c:	8c427e28 	lw	v0,32296(v0)
    fea0:	14400005 	bnez	v0,0xfeb8
    fea4:	24020001 	li	v0,1
    fea8:	3c020001 	lui	v0,0x1
    feac:	8c427e24 	lw	v0,32292(v0)
    feb0:	10400006 	beqz	v0,0xfecc
    feb4:	24020001 	li	v0,1
    feb8:	3c010001 	lui	at,0x1
    febc:	ac225ccc 	sw	v0,23756(at)
    fec0:	3c010001 	lui	at,0x1
    fec4:	08005083 	j	0x1420c
    fec8:	ac207df8 	sw	zero,32248(at)
    fecc:	3c020001 	lui	v0,0x1
    fed0:	8c427df0 	lw	v0,32240(v0)
    fed4:	3c030001 	lui	v1,0x1
    fed8:	8c637ddc 	lw	v1,32220(v1)
    fedc:	2c420001 	sltiu	v0,v0,1
    fee0:	000210c0 	sll	v0,v0,0x3
    fee4:	30630008 	andi	v1,v1,0x8
    fee8:	3c010001 	lui	at,0x1
    feec:	ac227df0 	sw	v0,32240(at)
    fef0:	3c010001 	lui	at,0x1
    fef4:	ac237dec 	sw	v1,32236(at)
    fef8:	8f830054 	lw	v1,84(gp)
    fefc:	24020009 	li	v0,9
    ff00:	3c010001 	lui	at,0x1
    ff04:	ac227dd0 	sw	v0,32208(at)
    ff08:	3c010001 	lui	at,0x1
    ff0c:	08005083 	j	0x1420c
    ff10:	ac237df4 	sw	v1,32244(at)
    ff14:	8f830054 	lw	v1,84(gp)
    ff18:	3c020001 	lui	v0,0x1
    ff1c:	8c427df4 	lw	v0,32244(v0)
    ff20:	2463d8f0 	addiu	v1,v1,-10000
    ff24:	00431023 	subu	v0,v0,v1
    ff28:	2c422710 	sltiu	v0,v0,10000
    ff2c:	144000a8 	bnez	v0,0x101d0
    ff30:	00000000 	nop
    ff34:	3c020001 	lui	v0,0x1
    ff38:	8c427e00 	lw	v0,32256(v0)
    ff3c:	10400005 	beqz	v0,0xff54
    ff40:	00000000 	nop
    ff44:	3c020001 	lui	v0,0x1
    ff48:	8c427ddc 	lw	v0,32220(v0)
    ff4c:	104000a9 	beqz	v0,0x101f4
    ff50:	24020002 	li	v0,2
    ff54:	3c030001 	lui	v1,0x1
    ff58:	24637de0 	addiu	v1,v1,32224
    ff5c:	8c620000 	lw	v0,0(v1)
    ff60:	2c424e21 	sltiu	v0,v0,20001
    ff64:	104000a3 	beqz	v0,0x101f4
    ff68:	24020002 	li	v0,2
    ff6c:	3c020001 	lui	v0,0x1
    ff70:	8c427e0c 	lw	v0,32268(v0)
    ff74:	1040000e 	beqz	v0,0xffb0
    ff78:	00000000 	nop
    ff7c:	3c020001 	lui	v0,0x1
    ff80:	8c427ddc 	lw	v0,32220(v0)
    ff84:	3c010001 	lui	at,0x1
    ff88:	ac207e0c 	sw	zero,32268(at)
    ff8c:	30420080 	andi	v0,v0,0x80
    ff90:	1040002f 	beqz	v0,0x10050
    ff94:	2402000c 	li	v0,12
    ff98:	8f820204 	lw	v0,516(gp)
    ff9c:	30420080 	andi	v0,v0,0x80
    ffa0:	1440000c 	bnez	v0,0xffd4
    ffa4:	24020003 	li	v0,3
    ffa8:	08005011 	j	0x14044
    ffac:	2402000c 	li	v0,12
    ffb0:	3c020001 	lui	v0,0x1
    ffb4:	8c427ddc 	lw	v0,32220(v0)
    ffb8:	30420080 	andi	v0,v0,0x80
    ffbc:	14400005 	bnez	v0,0xffd4
    ffc0:	24020003 	li	v0,3
    ffc4:	8f820204 	lw	v0,516(gp)
    ffc8:	30420080 	andi	v0,v0,0x80
    ffcc:	1040001f 	beqz	v0,0x1004c
    ffd0:	24020003 	li	v0,3
    ffd4:	ac620000 	sw	v0,0(v1)
    ffd8:	2402000a 	li	v0,10
    ffdc:	3c010001 	lui	at,0x1
    ffe0:	ac227dd0 	sw	v0,32208(at)
    ffe4:	3c040001 	lui	a0,0x1
    ffe8:	24847e18 	addiu	a0,a0,32280
    ffec:	8c820000 	lw	v0,0(a0)
    fff0:	3c030001 	lui	v1,0x1
    fff4:	8c637df0 	lw	v1,32240(v1)
    fff8:	00431025 	or	v0,v0,v1
    fffc:	af820204 	sw	v0,516(gp)
   10000:	8c830000 	lw	v1,0(a0)
   10004:	3c040001 	lui	a0,0x1
   10008:	8c847df0 	lw	a0,32240(a0)
   1000c:	2402000b 	li	v0,11
   10010:	3c010001 	lui	at,0x1
   10014:	ac227dd0 	sw	v0,32208(at)
   10018:	00641825 	or	v1,v1,a0
   1001c:	3c010001 	lui	at,0x1
   10020:	ac237e20 	sw	v1,32288(at)
   10024:	3c050001 	lui	a1,0x1
   10028:	24a57de0 	addiu	a1,a1,32224
   1002c:	8ca20000 	lw	v0,0(a1)
   10030:	2c424e21 	sltiu	v0,v0,20001
   10034:	1040006f 	beqz	v0,0x101f4
   10038:	24020002 	li	v0,2
   1003c:	3c020001 	lui	v0,0x1
   10040:	8c427e10 	lw	v0,32272(v0)
   10044:	10400005 	beqz	v0,0x1005c
   10048:	00000000 	nop
   1004c:	2402000c 	li	v0,12
   10050:	3c010001 	lui	at,0x1
   10054:	08005083 	j	0x1420c
   10058:	ac227dd0 	sw	v0,32208(at)
   1005c:	3c020001 	lui	v0,0x1
   10060:	8c427e00 	lw	v0,32256(v0)
   10064:	1040006c 	beqz	v0,0x10218
   10068:	00000000 	nop
   1006c:	3c040001 	lui	a0,0x1
   10070:	8c847ddc 	lw	a0,32220(a0)
   10074:	1080005e 	beqz	a0,0x101f0
   10078:	30820008 	andi	v0,a0,0x8
   1007c:	3c030001 	lui	v1,0x1
   10080:	8c637dec 	lw	v1,32236(v1)
   10084:	10620064 	beq	v1,v0,0x10218
   10088:	24020003 	li	v0,3
   1008c:	3c010001 	lui	at,0x1
   10090:	ac247e08 	sw	a0,32264(at)
   10094:	aca20000 	sw	v0,0(a1)
   10098:	24020006 	li	v0,6
   1009c:	3c010001 	lui	at,0x1
   100a0:	08005083 	j	0x1420c
   100a4:	ac227dd0 	sw	v0,32208(at)
   100a8:	8f820200 	lw	v0,512(gp)
   100ac:	34420002 	ori	v0,v0,0x2
   100b0:	af820200 	sw	v0,512(gp)
   100b4:	8f830054 	lw	v1,84(gp)
   100b8:	2402000d 	li	v0,13
   100bc:	3c010001 	lui	at,0x1
   100c0:	ac227dd0 	sw	v0,32208(at)
   100c4:	3c010001 	lui	at,0x1
   100c8:	ac237df4 	sw	v1,32244(at)
   100cc:	8f830054 	lw	v1,84(gp)
   100d0:	3c020001 	lui	v0,0x1
   100d4:	8c427df4 	lw	v0,32244(v0)
   100d8:	2463d8f0 	addiu	v1,v1,-10000
   100dc:	00431023 	subu	v0,v0,v1
   100e0:	2c422710 	sltiu	v0,v0,10000
   100e4:	1440003a 	bnez	v0,0x101d0
   100e8:	00000000 	nop
   100ec:	3c020001 	lui	v0,0x1
   100f0:	8c427e10 	lw	v0,32272(v0)
   100f4:	10400029 	beqz	v0,0x1019c
   100f8:	2402000e 	li	v0,14
   100fc:	3c030001 	lui	v1,0x1
   10100:	8c637e24 	lw	v1,32292(v1)
   10104:	3c010001 	lui	at,0x1
   10108:	14600015 	bnez	v1,0x10160
   1010c:	ac227dd0 	sw	v0,32208(at)
   10110:	0c0043dd 	jal	0x10f74
   10114:	00000000 	nop
   10118:	3c050001 	lui	a1,0x1
   1011c:	8ca55cc8 	lw	a1,23752(a1)
   10120:	0c0052a2 	jal	0x14a88
   10124:	00002021 	move	a0,zero
   10128:	3c030001 	lui	v1,0x1
   1012c:	8c635cc8 	lw	v1,23752(v1)
   10130:	24020004 	li	v0,4
   10134:	14620005 	bne	v1,v0,0x1014c
   10138:	2403fffb 	li	v1,-5
   1013c:	3c020001 	lui	v0,0x1
   10140:	8c425cc4 	lw	v0,23748(v0)
   10144:	08005052 	j	0x14148
   10148:	2403fff7 	li	v1,-9
   1014c:	3c020001 	lui	v0,0x1
   10150:	8c425cc4 	lw	v0,23748(v0)
   10154:	00431024 	and	v0,v0,v1
   10158:	3c010001 	lui	at,0x1
   1015c:	ac225cc4 	sw	v0,23748(at)
   10160:	8ee20000 	lw	v0,0(s7)
   10164:	3c030200 	lui	v1,0x200
   10168:	00431025 	or	v0,v0,v1
   1016c:	aee20000 	sw	v0,0(s7)
   10170:	8f820224 	lw	v0,548(gp)
   10174:	3c010001 	lui	at,0x1
   10178:	ac227e2c 	sw	v0,32300(at)
   1017c:	8f820220 	lw	v0,544(gp)
   10180:	2403fffb 	li	v1,-5
   10184:	00431024 	and	v0,v0,v1
   10188:	af820220 	sw	v0,544(gp)
   1018c:	8f820220 	lw	v0,544(gp)
   10190:	34420002 	ori	v0,v0,0x2
   10194:	08005083 	j	0x1420c
   10198:	af820220 	sw	v0,544(gp)
   1019c:	3c020001 	lui	v0,0x1
   101a0:	8c427e00 	lw	v0,32256(v0)
   101a4:	10400005 	beqz	v0,0x101bc
   101a8:	00000000 	nop
   101ac:	3c020001 	lui	v0,0x1
   101b0:	8c427ddc 	lw	v0,32220(v0)
   101b4:	1040000f 	beqz	v0,0x101f4
   101b8:	24020002 	li	v0,2
   101bc:	3c020001 	lui	v0,0x1
   101c0:	8c427de0 	lw	v0,32224(v0)
   101c4:	2c424e21 	sltiu	v0,v0,20001
   101c8:	1040000a 	beqz	v0,0x101f4
   101cc:	24020002 	li	v0,2
   101d0:	3c020001 	lui	v0,0x1
   101d4:	8c427e00 	lw	v0,32256(v0)
   101d8:	1040000f 	beqz	v0,0x10218
   101dc:	00000000 	nop
   101e0:	3c020001 	lui	v0,0x1
   101e4:	8c427ddc 	lw	v0,32220(v0)
   101e8:	1440000b 	bnez	v0,0x10218
   101ec:	00000000 	nop
   101f0:	24020002 	li	v0,2
   101f4:	3c010001 	lui	at,0x1
   101f8:	08005083 	j	0x1420c
   101fc:	ac227dd0 	sw	v0,32208(at)
   10200:	3c020001 	lui	v0,0x1
   10204:	8c427e00 	lw	v0,32256(v0)
   10208:	10400003 	beqz	v0,0x10218
   1020c:	00000000 	nop
   10210:	0c00429b 	jal	0x10a6c
   10214:	00000000 	nop
   10218:	8f820220 	lw	v0,544(gp)
   1021c:	3c03f700 	lui	v1,0xf700
   10220:	00431025 	or	v0,v0,v1
   10224:	af820220 	sw	v0,544(gp)
   10228:	8fbf0010 	lw	ra,16(sp)
   1022c:	03e00008 	jr	ra
   10230:	27bd0018 	addiu	sp,sp,24
   10234:	3c030001 	lui	v1,0x1
   10238:	24637e28 	addiu	v1,v1,32296
   1023c:	8c620000 	lw	v0,0(v1)
   10240:	10400005 	beqz	v0,0x10258
   10244:	34422000 	ori	v0,v0,0x2000
   10248:	3c010001 	lui	at,0x1
   1024c:	ac227e1c 	sw	v0,32284(at)
   10250:	08005095 	j	0x14254
   10254:	ac600000 	sw	zero,0(v1)
   10258:	3c010001 	lui	at,0x1
   1025c:	ac247e1c 	sw	a0,32284(at)
   10260:	03e00008 	jr	ra
   10264:	00000000 	nop
   10268:	27bdffe0 	addiu	sp,sp,-32
   1026c:	30820030 	andi	v0,a0,0x30
   10270:	afbf0018 	sw	ra,24(sp)
   10274:	3c010001 	lui	at,0x1
   10278:	ac227e24 	sw	v0,32292(at)
   1027c:	14400067 	bnez	v0,0x1041c
   10280:	3c02ffff 	lui	v0,0xffff
   10284:	34421f0e 	ori	v0,v0,0x1f0e
   10288:	00821024 	and	v0,a0,v0
   1028c:	14400061 	bnez	v0,0x10414
   10290:	24020030 	li	v0,48
   10294:	30822000 	andi	v0,a0,0x2000
   10298:	1040005d 	beqz	v0,0x10410
   1029c:	30838000 	andi	v1,a0,0x8000
   102a0:	00031a02 	srl	v1,v1,0x8
   102a4:	30820001 	andi	v0,a0,0x1
   102a8:	00021200 	sll	v0,v0,0x8
   102ac:	3c040001 	lui	a0,0x1
   102b0:	8c845d9c 	lw	a0,23964(a0)
   102b4:	00621825 	or	v1,v1,v0
   102b8:	000331c2 	srl	a2,v1,0x7
   102bc:	3c030001 	lui	v1,0x1
   102c0:	24635d78 	addiu	v1,v1,23928
   102c4:	30828000 	andi	v0,a0,0x8000
   102c8:	00021202 	srl	v0,v0,0x8
   102cc:	30840001 	andi	a0,a0,0x1
   102d0:	00042200 	sll	a0,a0,0x8
   102d4:	00441025 	or	v0,v0,a0
   102d8:	000239c2 	srl	a3,v0,0x7
   102dc:	00061080 	sll	v0,a2,0x2
   102e0:	00431021 	addu	v0,v0,v1
   102e4:	00471021 	addu	v0,v0,a3
   102e8:	90430000 	lbu	v1,0(v0)
   102ec:	24020001 	li	v0,1
   102f0:	10620025 	beq	v1,v0,0x10388
   102f4:	00000000 	nop
   102f8:	10600007 	beqz	v1,0x10318
   102fc:	24020002 	li	v0,2
   10300:	10620013 	beq	v1,v0,0x10350
   10304:	24020003 	li	v0,3
   10308:	1062002c 	beq	v1,v0,0x103bc
   1030c:	3c05000f 	lui	a1,0xf
   10310:	080050f9 	j	0x143e4
   10314:	00000000 	nop
   10318:	8f820200 	lw	v0,512(gp)
   1031c:	2403feff 	li	v1,-257
   10320:	00431024 	and	v0,v0,v1
   10324:	af820200 	sw	v0,512(gp)
   10328:	8f820220 	lw	v0,544(gp)
   1032c:	3c03fffe 	lui	v1,0xfffe
   10330:	3463ffff 	ori	v1,v1,0xffff
   10334:	00431024 	and	v0,v0,v1
   10338:	af820220 	sw	v0,544(gp)
   1033c:	3c010001 	lui	at,0x1
   10340:	ac207e44 	sw	zero,32324(at)
   10344:	3c010001 	lui	at,0x1
   10348:	08005104 	j	0x14410
   1034c:	ac207e4c 	sw	zero,32332(at)
   10350:	8f820200 	lw	v0,512(gp)
   10354:	34420100 	ori	v0,v0,0x100
   10358:	af820200 	sw	v0,512(gp)
   1035c:	8f820220 	lw	v0,544(gp)
   10360:	3c03fffe 	lui	v1,0xfffe
   10364:	3463ffff 	ori	v1,v1,0xffff
   10368:	00431024 	and	v0,v0,v1
   1036c:	af820220 	sw	v0,544(gp)
   10370:	24020100 	li	v0,256
   10374:	3c010001 	lui	at,0x1
   10378:	ac227e44 	sw	v0,32324(at)
   1037c:	3c010001 	lui	at,0x1
   10380:	08005104 	j	0x14410
   10384:	ac207e4c 	sw	zero,32332(at)
   10388:	8f820200 	lw	v0,512(gp)
   1038c:	2403feff 	li	v1,-257
   10390:	00431024 	and	v0,v0,v1
   10394:	af820200 	sw	v0,512(gp)
   10398:	8f820220 	lw	v0,544(gp)
   1039c:	3c030001 	lui	v1,0x1
   103a0:	00431025 	or	v0,v0,v1
   103a4:	af820220 	sw	v0,544(gp)
   103a8:	3c010001 	lui	at,0x1
   103ac:	ac207e44 	sw	zero,32324(at)
   103b0:	3c010001 	lui	at,0x1
   103b4:	08005104 	j	0x14410
   103b8:	ac237e4c 	sw	v1,32332(at)
   103bc:	8f820200 	lw	v0,512(gp)
   103c0:	34420100 	ori	v0,v0,0x100
   103c4:	af820200 	sw	v0,512(gp)
   103c8:	8f820220 	lw	v0,544(gp)
   103cc:	3c030001 	lui	v1,0x1
   103d0:	00431025 	or	v0,v0,v1
   103d4:	af820220 	sw	v0,544(gp)
   103d8:	24020100 	li	v0,256
   103dc:	3c010001 	lui	at,0x1
   103e0:	ac227e44 	sw	v0,32324(at)
   103e4:	3c010001 	lui	at,0x1
   103e8:	08005104 	j	0x14410
   103ec:	ac237e4c 	sw	v1,32332(at)
   103f0:	34a5ffff 	ori	a1,a1,0xffff
   103f4:	3c040001 	lui	a0,0x1
   103f8:	24845bb8 	addiu	a0,a0,23480
   103fc:	afa30010 	sw	v1,16(sp)
   10400:	0c002403 	jal	0x900c
   10404:	afa00014 	sw	zero,20(sp)
   10408:	08005104 	j	0x14410
   1040c:	00000000 	nop
   10410:	24020030 	li	v0,48
   10414:	3c010001 	lui	at,0x1
   10418:	ac227e28 	sw	v0,32296(at)
   1041c:	8fbf0018 	lw	ra,24(sp)
   10420:	03e00008 	jr	ra
   10424:	27bd0020 	addiu	sp,sp,32
   10428:	00000000 	nop
   1042c:	27bdffc8 	addiu	sp,sp,-56
   10430:	afb20028 	sw	s2,40(sp)
   10434:	00809021 	move	s2,a0
   10438:	afb3002c 	sw	s3,44(sp)
   1043c:	00a09821 	move	s3,a1
   10440:	afb00020 	sw	s0,32(sp)
   10444:	00c08021 	move	s0,a2
   10448:	3c040001 	lui	a0,0x1
   1044c:	24845bd0 	addiu	a0,a0,23504
   10450:	3c050009 	lui	a1,0x9
   10454:	3c020001 	lui	v0,0x1
   10458:	8c425cc8 	lw	v0,23752(v0)
   1045c:	34a59001 	ori	a1,a1,0x9001
   10460:	02403021 	move	a2,s2
   10464:	02603821 	move	a3,s3
   10468:	afbf0030 	sw	ra,48(sp)
   1046c:	afb10024 	sw	s1,36(sp)
   10470:	a7a0001a 	sh	zero,26(sp)
   10474:	afb00014 	sw	s0,20(sp)
   10478:	0c002403 	jal	0x900c
   1047c:	afa20010 	sw	v0,16(sp)
   10480:	24020002 	li	v0,2
   10484:	12620083 	beq	s3,v0,0x10694
   10488:	2e620003 	sltiu	v0,s3,3
   1048c:	10400005 	beqz	v0,0x104a4
   10490:	24020001 	li	v0,1
   10494:	1262000a 	beq	s3,v0,0x104c0
   10498:	00000000 	nop
   1049c:	0800529b 	j	0x14a6c
   104a0:	00000000 	nop
   104a4:	24020004 	li	v0,4
   104a8:	126200fa 	beq	s3,v0,0x10894
   104ac:	24020008 	li	v0,8
   104b0:	126200f9 	beq	s3,v0,0x10898
   104b4:	3c02ffec 	lui	v0,0xffec
   104b8:	0800529b 	j	0x14a6c
   104bc:	00000000 	nop
   104c0:	3c020001 	lui	v0,0x1
   104c4:	8c425cc4 	lw	v0,23748(v0)
   104c8:	30420002 	andi	v0,v0,0x2
   104cc:	14400004 	bnez	v0,0x104e0
   104d0:	00128940 	sll	s1,s2,0x5
   104d4:	3c02fffb 	lui	v0,0xfffb
   104d8:	3442ffff 	ori	v0,v0,0xffff
   104dc:	02028024 	and	s0,s0,v0
   104e0:	3c010001 	lui	at,0x1
   104e4:	00310821 	addu	at,at,s1
   104e8:	ac307e3c 	sw	s0,32316(at)
   104ec:	3c024000 	lui	v0,0x4000
   104f0:	02021024 	and	v0,s0,v0
   104f4:	1040004e 	beqz	v0,0x10630
   104f8:	001023c2 	srl	a0,s0,0xf
   104fc:	30840030 	andi	a0,a0,0x30
   10500:	00101382 	srl	v0,s0,0xe
   10504:	3042001c 	andi	v0,v0,0x1c
   10508:	3c030001 	lui	v1,0x1
   1050c:	24635d08 	addiu	v1,v1,23816
   10510:	00431021 	addu	v0,v0,v1
   10514:	00823821 	addu	a3,a0,v0
   10518:	3c020020 	lui	v0,0x20
   1051c:	02021024 	and	v0,s0,v0
   10520:	10400006 	beqz	v0,0x1053c
   10524:	24020100 	li	v0,256
   10528:	3c010001 	lui	at,0x1
   1052c:	00310821 	addu	at,at,s1
   10530:	ac227e40 	sw	v0,32320(at)
   10534:	08005150 	j	0x14540
   10538:	3c020080 	lui	v0,0x80
   1053c:	3c010001 	lui	at,0x1
   10540:	00310821 	addu	at,at,s1
   10544:	ac207e40 	sw	zero,32320(at)
   10548:	3c020080 	lui	v0,0x80
   1054c:	02021024 	and	v0,s0,v0
   10550:	10400006 	beqz	v0,0x1056c
   10554:	00121940 	sll	v1,s2,0x5
   10558:	3c020001 	lui	v0,0x1
   1055c:	3c010001 	lui	at,0x1
   10560:	00230821 	addu	at,at,v1
   10564:	0800515c 	j	0x14570
   10568:	ac227e48 	sw	v0,32328(at)
   1056c:	00121140 	sll	v0,s2,0x5
   10570:	3c010001 	lui	at,0x1
   10574:	00220821 	addu	at,at,v0
   10578:	ac207e48 	sw	zero,32328(at)
   1057c:	94e40000 	lhu	a0,0(a3)
   10580:	3c030001 	lui	v1,0x1
   10584:	8c635dbc 	lw	v1,23996(v1)
   10588:	24020005 	li	v0,5
   1058c:	10620010 	beq	v1,v0,0x105d0
   10590:	a7a40018 	sh	a0,24(sp)
   10594:	32024000 	andi	v0,s0,0x4000
   10598:	10400002 	beqz	v0,0x105a4
   1059c:	34824000 	ori	v0,a0,0x4000
   105a0:	a7a20018 	sh	v0,24(sp)
   105a4:	24040001 	li	a0,1
   105a8:	94e20002 	lhu	v0,2(a3)
   105ac:	24050004 	li	a1,4
   105b0:	24e60002 	addiu	a2,a3,2
   105b4:	34420001 	ori	v0,v0,0x1
   105b8:	0c00498e 	jal	0x12638
   105bc:	a4e20002 	sh	v0,2(a3)
   105c0:	24040001 	li	a0,1
   105c4:	00002821 	move	a1,zero
   105c8:	0c00498e 	jal	0x12638
   105cc:	27a60018 	addiu	a2,sp,24
   105d0:	3c020001 	lui	v0,0x1
   105d4:	8c425cc8 	lw	v0,23752(v0)
   105d8:	24110001 	li	s1,1
   105dc:	3c010001 	lui	at,0x1
   105e0:	ac315cd4 	sw	s1,23764(at)
   105e4:	14530004 	bne	v0,s3,0x105f8
   105e8:	32028000 	andi	v0,s0,0x8000
   105ec:	0c00429b 	jal	0x10a6c
   105f0:	00000000 	nop
   105f4:	32028000 	andi	v0,s0,0x8000
   105f8:	1040011f 	beqz	v0,0x10a78
   105fc:	00000000 	nop
   10600:	0c00429b 	jal	0x10a6c
   10604:	00000000 	nop
   10608:	3c030001 	lui	v1,0x1
   1060c:	8c635dbc 	lw	v1,23996(v1)
   10610:	24020005 	li	v0,5
   10614:	10620118 	beq	v1,v0,0x10a78
   10618:	24020002 	li	v0,2
   1061c:	3c010001 	lui	at,0x1
   10620:	ac315ccc 	sw	s1,23756(at)
   10624:	3c010001 	lui	at,0x1
   10628:	0800529b 	j	0x14a6c
   1062c:	ac225cc8 	sw	v0,23752(at)
   10630:	24040001 	li	a0,1
   10634:	24050004 	li	a1,4
   10638:	27b0001a 	addiu	s0,sp,26
   1063c:	0c00498e 	jal	0x12638
   10640:	02003021 	move	a2,s0
   10644:	24040001 	li	a0,1
   10648:	00002821 	move	a1,zero
   1064c:	0c00498e 	jal	0x12638
   10650:	02003021 	move	a2,s0
   10654:	3c020001 	lui	v0,0x1
   10658:	00511021 	addu	v0,v0,s1
   1065c:	8c427e34 	lw	v0,32308(v0)
   10660:	3c040001 	lui	a0,0x1
   10664:	8c845cc8 	lw	a0,23752(a0)
   10668:	3c03bfff 	lui	v1,0xbfff
   1066c:	3463ffff 	ori	v1,v1,0xffff
   10670:	3c010001 	lui	at,0x1
   10674:	ac335cd4 	sw	s3,23764(at)
   10678:	00431024 	and	v0,v0,v1
   1067c:	3c010001 	lui	at,0x1
   10680:	00310821 	addu	at,at,s1
   10684:	109300fa 	beq	a0,s3,0x10a70
   10688:	ac227e34 	sw	v0,32308(at)
   1068c:	0800529b 	j	0x14a6c
   10690:	00000000 	nop
   10694:	3c022000 	lui	v0,0x2000
   10698:	02021024 	and	v0,s0,v0
   1069c:	10400005 	beqz	v0,0x106b4
   106a0:	24020001 	li	v0,1
   106a4:	3c010001 	lui	at,0x1
   106a8:	ac225d98 	sw	v0,23960(at)
   106ac:	080051ad 	j	0x146b4
   106b0:	00128940 	sll	s1,s2,0x5
   106b4:	3c010001 	lui	at,0x1
   106b8:	ac205d98 	sw	zero,23960(at)
   106bc:	00128940 	sll	s1,s2,0x5
   106c0:	3c010001 	lui	at,0x1
   106c4:	00310821 	addu	at,at,s1
   106c8:	ac307e38 	sw	s0,32312(at)
   106cc:	3c024000 	lui	v0,0x4000
   106d0:	02021024 	and	v0,s0,v0
   106d4:	14400016 	bnez	v0,0x10730
   106d8:	00000000 	nop
   106dc:	3c020001 	lui	v0,0x1
   106e0:	8c425d98 	lw	v0,23960(v0)
   106e4:	10400008 	beqz	v0,0x10708
   106e8:	24040004 	li	a0,4
   106ec:	24050001 	li	a1,1
   106f0:	0c004d93 	jal	0x1364c
   106f4:	24062000 	li	a2,8192
   106f8:	24020001 	li	v0,1
   106fc:	3c010001 	lui	at,0x1
   10700:	00370821 	addu	at,at,s7
   10704:	ac2283ac 	sw	v0,-31828(at)
   10708:	3c020001 	lui	v0,0x1
   1070c:	00511021 	addu	v0,v0,s1
   10710:	8c427e30 	lw	v0,32304(v0)
   10714:	3c03bfff 	lui	v1,0xbfff
   10718:	3463ffff 	ori	v1,v1,0xffff
   1071c:	00431024 	and	v0,v0,v1
   10720:	3c010001 	lui	at,0x1
   10724:	00310821 	addu	at,at,s1
   10728:	08005299 	j	0x14a64
   1072c:	ac227e30 	sw	v0,32304(at)
   10730:	3c020001 	lui	v0,0x1
   10734:	8c425d98 	lw	v0,23960(v0)
   10738:	10400028 	beqz	v0,0x107dc
   1073c:	3c0300a0 	lui	v1,0xa0
   10740:	02031024 	and	v0,s0,v1
   10744:	5443000d 	bnel	v0,v1,0x1077c
   10748:	3c020020 	lui	v0,0x20
   1074c:	3c020001 	lui	v0,0x1
   10750:	8c425d9c 	lw	v0,23964(v0)
   10754:	24030100 	li	v1,256
   10758:	3c010001 	lui	at,0x1
   1075c:	00310821 	addu	at,at,s1
   10760:	ac237e44 	sw	v1,32324(at)
   10764:	3c030001 	lui	v1,0x1
   10768:	3c010001 	lui	at,0x1
   1076c:	00310821 	addu	at,at,s1
   10770:	ac237e4c 	sw	v1,32332(at)
   10774:	080051f0 	j	0x147c0
   10778:	34420400 	ori	v0,v0,0x400
   1077c:	02021024 	and	v0,s0,v0
   10780:	10400008 	beqz	v0,0x107a4
   10784:	24030100 	li	v1,256
   10788:	3c020001 	lui	v0,0x1
   1078c:	8c425d9c 	lw	v0,23964(v0)
   10790:	3c010001 	lui	at,0x1
   10794:	00310821 	addu	at,at,s1
   10798:	ac237e44 	sw	v1,32324(at)
   1079c:	080051f0 	j	0x147c0
   107a0:	34420800 	ori	v0,v0,0x800
   107a4:	3c020080 	lui	v0,0x80
   107a8:	02021024 	and	v0,s0,v0
   107ac:	1040002e 	beqz	v0,0x10868
   107b0:	3c030001 	lui	v1,0x1
   107b4:	3c020001 	lui	v0,0x1
   107b8:	8c425d9c 	lw	v0,23964(v0)
   107bc:	3c010001 	lui	at,0x1
   107c0:	00310821 	addu	at,at,s1
   107c4:	ac237e4c 	sw	v1,32332(at)
   107c8:	34420c00 	ori	v0,v0,0xc00
   107cc:	3c010001 	lui	at,0x1
   107d0:	ac225d9c 	sw	v0,23964(at)
   107d4:	08005218 	j	0x14860
   107d8:	24040001 	li	a0,1
   107dc:	3c020020 	lui	v0,0x20
   107e0:	02021024 	and	v0,s0,v0
   107e4:	10400006 	beqz	v0,0x10800
   107e8:	24020100 	li	v0,256
   107ec:	3c010001 	lui	at,0x1
   107f0:	00310821 	addu	at,at,s1
   107f4:	ac227e44 	sw	v0,32324(at)
   107f8:	08005201 	j	0x14804
   107fc:	3c020080 	lui	v0,0x80
   10800:	3c010001 	lui	at,0x1
   10804:	00310821 	addu	at,at,s1
   10808:	ac207e44 	sw	zero,32324(at)
   1080c:	3c020080 	lui	v0,0x80
   10810:	02021024 	and	v0,s0,v0
   10814:	10400007 	beqz	v0,0x10834
   10818:	00121940 	sll	v1,s2,0x5
   1081c:	3c020001 	lui	v0,0x1
   10820:	3c010001 	lui	at,0x1
   10824:	00230821 	addu	at,at,v1
   10828:	ac227e4c 	sw	v0,32332(at)
   1082c:	0800520f 	j	0x1483c
   10830:	24040001 	li	a0,1
   10834:	00121140 	sll	v0,s2,0x5
   10838:	3c010001 	lui	at,0x1
   1083c:	00220821 	addu	at,at,v0
   10840:	ac207e4c 	sw	zero,32332(at)
   10844:	24040001 	li	a0,1
   10848:	00002821 	move	a1,zero
   1084c:	27b0001e 	addiu	s0,sp,30
   10850:	0c00494c 	jal	0x12530
   10854:	02003021 	move	a2,s0
   10858:	24040001 	li	a0,1
   1085c:	00002821 	move	a1,zero
   10860:	0c00494c 	jal	0x12530
   10864:	02003021 	move	a2,s0
   10868:	24040001 	li	a0,1
   1086c:	24050001 	li	a1,1
   10870:	27b0001c 	addiu	s0,sp,28
   10874:	0c00494c 	jal	0x12530
   10878:	02003021 	move	a2,s0
   1087c:	24040001 	li	a0,1
   10880:	24050001 	li	a1,1
   10884:	0c00494c 	jal	0x12530
   10888:	02003021 	move	a2,s0
   1088c:	08005299 	j	0x14a64
   10890:	00000000 	nop
   10894:	3c02ffec 	lui	v0,0xffec
   10898:	3442ffff 	ori	v0,v0,0xffff
   1089c:	02028024 	and	s0,s0,v0
   108a0:	3c020008 	lui	v0,0x8
   108a4:	02028025 	or	s0,s0,v0
   108a8:	00121140 	sll	v0,s2,0x5
   108ac:	3c010001 	lui	at,0x1
   108b0:	00220821 	addu	at,at,v0
   108b4:	ac307e38 	sw	s0,32312(at)
   108b8:	3c022000 	lui	v0,0x2000
   108bc:	02021024 	and	v0,s0,v0
   108c0:	10400009 	beqz	v0,0x108e8
   108c4:	00000000 	nop
   108c8:	3c020001 	lui	v0,0x1
   108cc:	8c425d74 	lw	v0,23924(v0)
   108d0:	14400005 	bnez	v0,0x108e8
   108d4:	24020001 	li	v0,1
   108d8:	3c010001 	lui	at,0x1
   108dc:	ac225d98 	sw	v0,23960(at)
   108e0:	0800523a 	j	0x148e8
   108e4:	3c024000 	lui	v0,0x4000
   108e8:	3c010001 	lui	at,0x1
   108ec:	ac205d98 	sw	zero,23960(at)
   108f0:	3c024000 	lui	v0,0x4000
   108f4:	02021024 	and	v0,s0,v0
   108f8:	1440001e 	bnez	v0,0x10974
   108fc:	00000000 	nop
   10900:	3c020001 	lui	v0,0x1
   10904:	8c425d98 	lw	v0,23960(v0)
   10908:	3c010001 	lui	at,0x1
   1090c:	ac205ce0 	sw	zero,23776(at)
   10910:	10400007 	beqz	v0,0x10930
   10914:	24022020 	li	v0,8224
   10918:	3c010001 	lui	at,0x1
   1091c:	ac225d9c 	sw	v0,23964(at)
   10920:	24020001 	li	v0,1
   10924:	3c010001 	lui	at,0x1
   10928:	00370821 	addu	at,at,s7
   1092c:	ac2283ac 	sw	v0,-31828(at)
   10930:	3c04bfff 	lui	a0,0xbfff
   10934:	00121940 	sll	v1,s2,0x5
   10938:	3c020001 	lui	v0,0x1
   1093c:	00431021 	addu	v0,v0,v1
   10940:	8c427e30 	lw	v0,32304(v0)
   10944:	3c050001 	lui	a1,0x1
   10948:	8ca55cc8 	lw	a1,23752(a1)
   1094c:	3484ffff 	ori	a0,a0,0xffff
   10950:	00441024 	and	v0,v0,a0
   10954:	3c010001 	lui	at,0x1
   10958:	00230821 	addu	at,at,v1
   1095c:	ac227e30 	sw	v0,32304(at)
   10960:	24020001 	li	v0,1
   10964:	10a20044 	beq	a1,v0,0x10a78
   10968:	00000000 	nop
   1096c:	08005299 	j	0x14a64
   10970:	00000000 	nop
   10974:	3c020001 	lui	v0,0x1
   10978:	8c425d98 	lw	v0,23960(v0)
   1097c:	1040001c 	beqz	v0,0x109f0
   10980:	24022000 	li	v0,8192
   10984:	3c010001 	lui	at,0x1
   10988:	ac225d9c 	sw	v0,23964(at)
   1098c:	3c0300a0 	lui	v1,0xa0
   10990:	02031024 	and	v0,s0,v1
   10994:	14430005 	bne	v0,v1,0x109ac
   10998:	00121140 	sll	v0,s2,0x5
   1099c:	3402a000 	li	v0,0xa000
   109a0:	3c010001 	lui	at,0x1
   109a4:	08005294 	j	0x14a50
   109a8:	ac225d9c 	sw	v0,23964(at)
   109ac:	3c030001 	lui	v1,0x1
   109b0:	00621821 	addu	v1,v1,v0
   109b4:	8c637e38 	lw	v1,32312(v1)
   109b8:	3c020020 	lui	v0,0x20
   109bc:	00621024 	and	v0,v1,v0
   109c0:	10400004 	beqz	v0,0x109d4
   109c4:	24022001 	li	v0,8193
   109c8:	3c010001 	lui	at,0x1
   109cc:	08005294 	j	0x14a50
   109d0:	ac225d9c 	sw	v0,23964(at)
   109d4:	3c020080 	lui	v0,0x80
   109d8:	00621024 	and	v0,v1,v0
   109dc:	1040001f 	beqz	v0,0x10a5c
   109e0:	3402a001 	li	v0,0xa001
   109e4:	3c010001 	lui	at,0x1
   109e8:	08005294 	j	0x14a50
   109ec:	ac225d9c 	sw	v0,23964(at)
   109f0:	3c020020 	lui	v0,0x20
   109f4:	02021024 	and	v0,s0,v0
   109f8:	10400007 	beqz	v0,0x10a18
   109fc:	00121940 	sll	v1,s2,0x5
   10a00:	24020100 	li	v0,256
   10a04:	3c010001 	lui	at,0x1
   10a08:	00230821 	addu	at,at,v1
   10a0c:	ac227e44 	sw	v0,32324(at)
   10a10:	08005288 	j	0x14a20
   10a14:	3c020080 	lui	v0,0x80
   10a18:	00121140 	sll	v0,s2,0x5
   10a1c:	3c010001 	lui	at,0x1
   10a20:	00220821 	addu	at,at,v0
   10a24:	ac207e44 	sw	zero,32324(at)
   10a28:	3c020080 	lui	v0,0x80
   10a2c:	02021024 	and	v0,s0,v0
   10a30:	10400006 	beqz	v0,0x10a4c
   10a34:	00121940 	sll	v1,s2,0x5
   10a38:	3c020001 	lui	v0,0x1
   10a3c:	3c010001 	lui	at,0x1
   10a40:	00230821 	addu	at,at,v1
   10a44:	08005294 	j	0x14a50
   10a48:	ac227e4c 	sw	v0,32332(at)
   10a4c:	00121140 	sll	v0,s2,0x5
   10a50:	3c010001 	lui	at,0x1
   10a54:	00220821 	addu	at,at,v0
   10a58:	ac207e4c 	sw	zero,32332(at)
   10a5c:	3c030001 	lui	v1,0x1
   10a60:	8c635cc8 	lw	v1,23752(v1)
   10a64:	24020001 	li	v0,1
   10a68:	10620003 	beq	v1,v0,0x10a78
   10a6c:	00000000 	nop
   10a70:	0c00429b 	jal	0x10a6c
   10a74:	00000000 	nop
   10a78:	8fbf0030 	lw	ra,48(sp)
   10a7c:	8fb3002c 	lw	s3,44(sp)
   10a80:	8fb20028 	lw	s2,40(sp)
   10a84:	8fb10024 	lw	s1,36(sp)
   10a88:	8fb00020 	lw	s0,32(sp)
   10a8c:	03e00008 	jr	ra
   10a90:	27bd0038 	addiu	sp,sp,56
   10a94:	27bdffd8 	addiu	sp,sp,-40
   10a98:	afb20020 	sw	s2,32(sp)
   10a9c:	00809021 	move	s2,a0
   10aa0:	afb1001c 	sw	s1,28(sp)
   10aa4:	00008821 	move	s1,zero
   10aa8:	24020002 	li	v0,2
   10aac:	afbf0024 	sw	ra,36(sp)
   10ab0:	afb00018 	sw	s0,24(sp)
   10ab4:	a7a00012 	sh	zero,18(sp)
   10ab8:	10a200d3 	beq	a1,v0,0x10e08
   10abc:	a7a00010 	sh	zero,16(sp)
   10ac0:	2ca20003 	sltiu	v0,a1,3
   10ac4:	10400005 	beqz	v0,0x10adc
   10ac8:	24020001 	li	v0,1
   10acc:	10a2000a 	beq	a1,v0,0x10af8
   10ad0:	00128140 	sll	s0,s2,0x5
   10ad4:	08005380 	j	0x14e00
   10ad8:	02201021 	move	v0,s1
   10adc:	24020004 	li	v0,4
   10ae0:	10a2007d 	beq	a1,v0,0x10cd8
   10ae4:	24020008 	li	v0,8
   10ae8:	10a2007c 	beq	a1,v0,0x10cdc
   10aec:	00122940 	sll	a1,s2,0x5
   10af0:	08005380 	j	0x14e00
   10af4:	02201021 	move	v0,s1
   10af8:	3c030001 	lui	v1,0x1
   10afc:	00701821 	addu	v1,v1,s0
   10b00:	8c637e3c 	lw	v1,32316(v1)
   10b04:	3c024000 	lui	v0,0x4000
   10b08:	00621024 	and	v0,v1,v0
   10b0c:	14400009 	bnez	v0,0x10b34
   10b10:	24040001 	li	a0,1
   10b14:	3c027fff 	lui	v0,0x7fff
   10b18:	3442ffff 	ori	v0,v0,0xffff
   10b1c:	00628824 	and	s1,v1,v0
   10b20:	3c010001 	lui	at,0x1
   10b24:	00300821 	addu	at,at,s0
   10b28:	ac317e34 	sw	s1,32308(at)
   10b2c:	08005380 	j	0x14e00
   10b30:	02201021 	move	v0,s1
   10b34:	24050001 	li	a1,1
   10b38:	0c00494c 	jal	0x12530
   10b3c:	27a60010 	addiu	a2,sp,16
   10b40:	24040001 	li	a0,1
   10b44:	24050001 	li	a1,1
   10b48:	0c00494c 	jal	0x12530
   10b4c:	27a60010 	addiu	a2,sp,16
   10b50:	97a20010 	lhu	v0,16(sp)
   10b54:	30420004 	andi	v0,v0,0x4
   10b58:	10400034 	beqz	v0,0x10c2c
   10b5c:	3c114000 	lui	s1,0x4000
   10b60:	3c020001 	lui	v0,0x1
   10b64:	8c425dbc 	lw	v0,23996(v0)
   10b68:	2443ffff 	addiu	v1,v0,-1
   10b6c:	2c620006 	sltiu	v0,v1,6
   10b70:	10400034 	beqz	v0,0x10c44
   10b74:	00031080 	sll	v0,v1,0x2
   10b78:	3c010001 	lui	at,0x1
   10b7c:	00220821 	addu	at,at,v0
   10b80:	8c225be0 	lw	v0,23520(at)
   10b84:	00400008 	jr	v0
   10b88:	00000000 	nop
   10b8c:	24040001 	li	a0,1
   10b90:	24050011 	li	a1,17
   10b94:	27b00012 	addiu	s0,sp,18
   10b98:	0c00494c 	jal	0x12530
   10b9c:	02003021 	move	a2,s0
   10ba0:	24040001 	li	a0,1
   10ba4:	24050011 	li	a1,17
   10ba8:	0c00494c 	jal	0x12530
   10bac:	02003021 	move	a2,s0
   10bb0:	97a50012 	lhu	a1,18(sp)
   10bb4:	30a24000 	andi	v0,a1,0x4000
   10bb8:	10400002 	beqz	v0,0x10bc4
   10bbc:	3c040010 	lui	a0,0x10
   10bc0:	3c040008 	lui	a0,0x8
   10bc4:	3c030001 	lui	v1,0x1
   10bc8:	08005301 	j	0x14c04
   10bcc:	30a28000 	andi	v0,a1,0x8000
   10bd0:	24040001 	li	a0,1
   10bd4:	24050014 	li	a1,20
   10bd8:	27b00012 	addiu	s0,sp,18
   10bdc:	0c00494c 	jal	0x12530
   10be0:	02003021 	move	a2,s0
   10be4:	24040001 	li	a0,1
   10be8:	24050014 	li	a1,20
   10bec:	0c00494c 	jal	0x12530
   10bf0:	02003021 	move	a2,s0
   10bf4:	97a50012 	lhu	a1,18(sp)
   10bf8:	30a21000 	andi	v0,a1,0x1000
   10bfc:	10400002 	beqz	v0,0x10c08
   10c00:	3c040010 	lui	a0,0x10
   10c04:	3c040008 	lui	a0,0x8
   10c08:	3c030001 	lui	v1,0x1
   10c0c:	30a20800 	andi	v0,a1,0x800
   10c10:	54400001 	bnezl	v0,0x10c18
   10c14:	3c030002 	lui	v1,0x2
   10c18:	3c028000 	lui	v0,0x8000
   10c1c:	02221025 	or	v0,s1,v0
   10c20:	00641825 	or	v1,v1,a0
   10c24:	0800530e 	j	0x14c38
   10c28:	00438825 	or	s1,v0,v1
   10c2c:	3c110001 	lui	s1,0x1
   10c30:	02308821 	addu	s1,s1,s0
   10c34:	8e317e3c 	lw	s1,32316(s1)
   10c38:	3c027fff 	lui	v0,0x7fff
   10c3c:	3442ffff 	ori	v0,v0,0xffff
   10c40:	02228824 	and	s1,s1,v0
   10c44:	3c020001 	lui	v0,0x1
   10c48:	8c425cd8 	lw	v0,23768(v0)
   10c4c:	1040001d 	beqz	v0,0x10cc4
   10c50:	00121140 	sll	v0,s2,0x5
   10c54:	3c020001 	lui	v0,0x1
   10c58:	8c425d98 	lw	v0,23960(v0)
   10c5c:	10400002 	beqz	v0,0x10c68
   10c60:	3c022000 	lui	v0,0x2000
   10c64:	02228825 	or	s1,s1,v0
   10c68:	00121140 	sll	v0,s2,0x5
   10c6c:	3c010001 	lui	at,0x1
   10c70:	00220821 	addu	at,at,v0
   10c74:	8c227e40 	lw	v0,32320(at)
   10c78:	10400003 	beqz	v0,0x10c88
   10c7c:	3c020020 	lui	v0,0x20
   10c80:	08005322 	j	0x14c88
   10c84:	02228825 	or	s1,s1,v0
   10c88:	3c02ffdf 	lui	v0,0xffdf
   10c8c:	3442ffff 	ori	v0,v0,0xffff
   10c90:	02228824 	and	s1,s1,v0
   10c94:	00121140 	sll	v0,s2,0x5
   10c98:	3c010001 	lui	at,0x1
   10c9c:	00220821 	addu	at,at,v0
   10ca0:	8c227e48 	lw	v0,32328(at)
   10ca4:	10400003 	beqz	v0,0x10cb4
   10ca8:	3c020080 	lui	v0,0x80
   10cac:	0800532d 	j	0x14cb4
   10cb0:	02228825 	or	s1,s1,v0
   10cb4:	3c02ff7f 	lui	v0,0xff7f
   10cb8:	3442ffff 	ori	v0,v0,0xffff
   10cbc:	02228824 	and	s1,s1,v0
   10cc0:	00121140 	sll	v0,s2,0x5
   10cc4:	3c010001 	lui	at,0x1
   10cc8:	00220821 	addu	at,at,v0
   10ccc:	ac317e34 	sw	s1,32308(at)
   10cd0:	08005380 	j	0x14e00
   10cd4:	02201021 	move	v0,s1
   10cd8:	00122940 	sll	a1,s2,0x5
   10cdc:	3c030001 	lui	v1,0x1
   10ce0:	00651821 	addu	v1,v1,a1
   10ce4:	8c637e38 	lw	v1,32312(v1)
   10ce8:	3c024000 	lui	v0,0x4000
   10cec:	00621024 	and	v0,v1,v0
   10cf0:	14400008 	bnez	v0,0x10d14
   10cf4:	3c027fff 	lui	v0,0x7fff
   10cf8:	3442ffff 	ori	v0,v0,0xffff
   10cfc:	00628824 	and	s1,v1,v0
   10d00:	3c010001 	lui	at,0x1
   10d04:	00250821 	addu	at,at,a1
   10d08:	ac317e30 	sw	s1,32304(at)
   10d0c:	08005380 	j	0x14e00
   10d10:	02201021 	move	v0,s1
   10d14:	3c020001 	lui	v0,0x1
   10d18:	8c425cd8 	lw	v0,23768(v0)
   10d1c:	10400033 	beqz	v0,0x10dec
   10d20:	3c11c00c 	lui	s1,0xc00c
   10d24:	3c020001 	lui	v0,0x1
   10d28:	8c425d74 	lw	v0,23924(v0)
   10d2c:	3c04c00c 	lui	a0,0xc00c
   10d30:	34842000 	ori	a0,a0,0x2000
   10d34:	3c030001 	lui	v1,0x1
   10d38:	8c635d98 	lw	v1,23960(v1)
   10d3c:	0002102b 	sltu	v0,zero,v0
   10d40:	00021023 	negu	v0,v0
   10d44:	00441024 	and	v0,v0,a0
   10d48:	10600003 	beqz	v1,0x10d58
   10d4c:	00518825 	or	s1,v0,s1
   10d50:	3c022000 	lui	v0,0x2000
   10d54:	02228825 	or	s1,s1,v0
   10d58:	3c020001 	lui	v0,0x1
   10d5c:	00451021 	addu	v0,v0,a1
   10d60:	8c427e44 	lw	v0,32324(v0)
   10d64:	10400003 	beqz	v0,0x10d74
   10d68:	3c020020 	lui	v0,0x20
   10d6c:	0800535d 	j	0x14d74
   10d70:	02228825 	or	s1,s1,v0
   10d74:	3c02ffdf 	lui	v0,0xffdf
   10d78:	3442ffff 	ori	v0,v0,0xffff
   10d7c:	02228824 	and	s1,s1,v0
   10d80:	00121140 	sll	v0,s2,0x5
   10d84:	3c010001 	lui	at,0x1
   10d88:	00220821 	addu	at,at,v0
   10d8c:	8c227e4c 	lw	v0,32332(at)
   10d90:	10400003 	beqz	v0,0x10da0
   10d94:	3c020080 	lui	v0,0x80
   10d98:	08005368 	j	0x14da0
   10d9c:	02228825 	or	s1,s1,v0
   10da0:	3c02ff7f 	lui	v0,0xff7f
   10da4:	3442ffff 	ori	v0,v0,0xffff
   10da8:	02228824 	and	s1,s1,v0
   10dac:	3c020001 	lui	v0,0x1
   10db0:	8c425d60 	lw	v0,23904(v0)
   10db4:	10400002 	beqz	v0,0x10dc0
   10db8:	3c020800 	lui	v0,0x800
   10dbc:	02228825 	or	s1,s1,v0
   10dc0:	3c020001 	lui	v0,0x1
   10dc4:	8c425d64 	lw	v0,23908(v0)
   10dc8:	10400002 	beqz	v0,0x10dd4
   10dcc:	3c020400 	lui	v0,0x400
   10dd0:	02228825 	or	s1,s1,v0
   10dd4:	3c020001 	lui	v0,0x1
   10dd8:	8c425d68 	lw	v0,23912(v0)
   10ddc:	10400006 	beqz	v0,0x10df8
   10de0:	3c020100 	lui	v0,0x100
   10de4:	0800537b 	j	0x14dec
   10de8:	02228825 	or	s1,s1,v0
   10dec:	3c027fff 	lui	v0,0x7fff
   10df0:	3442ffff 	ori	v0,v0,0xffff
   10df4:	00628824 	and	s1,v1,v0
   10df8:	00121140 	sll	v0,s2,0x5
   10dfc:	3c010001 	lui	at,0x1
   10e00:	00220821 	addu	at,at,v0
   10e04:	ac317e30 	sw	s1,32304(at)
   10e08:	02201021 	move	v0,s1
   10e0c:	8fbf0024 	lw	ra,36(sp)
   10e10:	8fb20020 	lw	s2,32(sp)
   10e14:	8fb1001c 	lw	s1,28(sp)
   10e18:	8fb00018 	lw	s0,24(sp)
   10e1c:	03e00008 	jr	ra
   10e20:	27bd0028 	addiu	sp,sp,40
   10e24:	27bdffd8 	addiu	sp,sp,-40
   10e28:	afb40020 	sw	s4,32(sp)
   10e2c:	0080a021 	move	s4,a0
   10e30:	afbf0024 	sw	ra,36(sp)
   10e34:	afb3001c 	sw	s3,28(sp)
   10e38:	afb20018 	sw	s2,24(sp)
   10e3c:	afb10014 	sw	s1,20(sp)
   10e40:	afb00010 	sw	s0,16(sp)
   10e44:	8f900200 	lw	s0,512(gp)
   10e48:	3c030001 	lui	v1,0x1
   10e4c:	8c635cc8 	lw	v1,23752(v1)
   10e50:	8f930220 	lw	s3,544(gp)
   10e54:	24020002 	li	v0,2
   10e58:	10620063 	beq	v1,v0,0x10fe8
   10e5c:	2c620003 	sltiu	v0,v1,3
   10e60:	10400005 	beqz	v0,0x10e78
   10e64:	24020001 	li	v0,1
   10e68:	1062000a 	beq	v1,v0,0x10e94
   10e6c:	00141940 	sll	v1,s4,0x5
   10e70:	08005448 	j	0x15120
   10e74:	00000000 	nop
   10e78:	24020004 	li	v0,4
   10e7c:	1062005a 	beq	v1,v0,0x10fe8
   10e80:	24020008 	li	v0,8
   10e84:	10620059 	beq	v1,v0,0x10fec
   10e88:	00149140 	sll	s2,s4,0x5
   10e8c:	08005448 	j	0x15120
   10e90:	00000000 	nop
   10e94:	3c040001 	lui	a0,0x1
   10e98:	00832021 	addu	a0,a0,v1
   10e9c:	8c847e3c 	lw	a0,32316(a0)
   10ea0:	3c110001 	lui	s1,0x1
   10ea4:	02238821 	addu	s1,s1,v1
   10ea8:	8e317e34 	lw	s1,32308(s1)
   10eac:	3c024000 	lui	v0,0x4000
   10eb0:	00821024 	and	v0,a0,v0
   10eb4:	1040003e 	beqz	v0,0x10fb0
   10eb8:	3c020008 	lui	v0,0x8
   10ebc:	02221024 	and	v0,s1,v0
   10ec0:	10400020 	beqz	v0,0x10f44
   10ec4:	36100002 	ori	s0,s0,0x2
   10ec8:	3c020001 	lui	v0,0x1
   10ecc:	00431021 	addu	v0,v0,v1
   10ed0:	8c427e40 	lw	v0,32320(v0)
   10ed4:	10400005 	beqz	v0,0x10eec
   10ed8:	36100020 	ori	s0,s0,0x20
   10edc:	36100100 	ori	s0,s0,0x100
   10ee0:	3c020020 	lui	v0,0x20
   10ee4:	080053bd 	j	0x14ef4
   10ee8:	02228825 	or	s1,s1,v0
   10eec:	2402feff 	li	v0,-257
   10ef0:	02028024 	and	s0,s0,v0
   10ef4:	3c02ffdf 	lui	v0,0xffdf
   10ef8:	3442ffff 	ori	v0,v0,0xffff
   10efc:	02228824 	and	s1,s1,v0
   10f00:	00141140 	sll	v0,s4,0x5
   10f04:	3c010001 	lui	at,0x1
   10f08:	00220821 	addu	at,at,v0
   10f0c:	8c227e48 	lw	v0,32328(at)
   10f10:	10400005 	beqz	v0,0x10f28
   10f14:	3c020001 	lui	v0,0x1
   10f18:	02629825 	or	s3,s3,v0
   10f1c:	3c020080 	lui	v0,0x80
   10f20:	080053dc 	j	0x14f70
   10f24:	02228825 	or	s1,s1,v0
   10f28:	3c02fffe 	lui	v0,0xfffe
   10f2c:	3442ffff 	ori	v0,v0,0xffff
   10f30:	02629824 	and	s3,s3,v0
   10f34:	3c02ff7f 	lui	v0,0xff7f
   10f38:	3442ffff 	ori	v0,v0,0xffff
   10f3c:	080053dc 	j	0x14f70
   10f40:	02228824 	and	s1,s1,v0
   10f44:	2402fedf 	li	v0,-289
   10f48:	02028024 	and	s0,s0,v0
   10f4c:	3c02fffe 	lui	v0,0xfffe
   10f50:	3442ffff 	ori	v0,v0,0xffff
   10f54:	02629824 	and	s3,s3,v0
   10f58:	3c02ff5f 	lui	v0,0xff5f
   10f5c:	3442ffff 	ori	v0,v0,0xffff
   10f60:	02228824 	and	s1,s1,v0
   10f64:	3c010001 	lui	at,0x1
   10f68:	00230821 	addu	at,at,v1
   10f6c:	ac207e40 	sw	zero,32320(at)
   10f70:	3c010001 	lui	at,0x1
   10f74:	00230821 	addu	at,at,v1
   10f78:	ac207e48 	sw	zero,32328(at)
   10f7c:	0c00486a 	jal	0x121a8
   10f80:	00000000 	nop
   10f84:	af900200 	sw	s0,512(gp)
   10f88:	af930220 	sw	s3,544(gp)
   10f8c:	8f820220 	lw	v0,544(gp)
   10f90:	2403fffb 	li	v1,-5
   10f94:	00431024 	and	v0,v0,v1
   10f98:	af820220 	sw	v0,544(gp)
   10f9c:	8f820220 	lw	v0,544(gp)
   10fa0:	34420002 	ori	v0,v0,0x2
   10fa4:	af820220 	sw	v0,544(gp)
   10fa8:	080053f3 	j	0x14fcc
   10fac:	00141140 	sll	v0,s4,0x5
   10fb0:	8f820200 	lw	v0,512(gp)
   10fb4:	2403fffd 	li	v1,-3
   10fb8:	00431024 	and	v0,v0,v1
   10fbc:	0c00486a 	jal	0x121a8
   10fc0:	af820200 	sw	v0,512(gp)
   10fc4:	3c02bfff 	lui	v0,0xbfff
   10fc8:	3442ffff 	ori	v0,v0,0xffff
   10fcc:	0c00429b 	jal	0x10a6c
   10fd0:	02228824 	and	s1,s1,v0
   10fd4:	00141140 	sll	v0,s4,0x5
   10fd8:	3c010001 	lui	at,0x1
   10fdc:	00220821 	addu	at,at,v0
   10fe0:	08005448 	j	0x15120
   10fe4:	ac317e34 	sw	s1,32308(at)
   10fe8:	00149140 	sll	s2,s4,0x5
   10fec:	3c040001 	lui	a0,0x1
   10ff0:	00922021 	addu	a0,a0,s2
   10ff4:	8c847e38 	lw	a0,32312(a0)
   10ff8:	3c110001 	lui	s1,0x1
   10ffc:	02328821 	addu	s1,s1,s2
   11000:	8e317e30 	lw	s1,32304(s1)
   11004:	3c024000 	lui	v0,0x4000
   11008:	00821024 	and	v0,a0,v0
   1100c:	14400011 	bnez	v0,0x11054
   11010:	00000000 	nop
   11014:	3c020001 	lui	v0,0x1
   11018:	8c425d98 	lw	v0,23960(v0)
   1101c:	14400006 	bnez	v0,0x11038
   11020:	3c02bfff 	lui	v0,0xbfff
   11024:	8f820200 	lw	v0,512(gp)
   11028:	34420002 	ori	v0,v0,0x2
   1102c:	0c00486a 	jal	0x121a8
   11030:	af820200 	sw	v0,512(gp)
   11034:	3c02bfff 	lui	v0,0xbfff
   11038:	3442ffff 	ori	v0,v0,0xffff
   1103c:	0c00429b 	jal	0x10a6c
   11040:	02228824 	and	s1,s1,v0
   11044:	3c010001 	lui	at,0x1
   11048:	00320821 	addu	at,at,s2
   1104c:	08005448 	j	0x15120
   11050:	ac317e30 	sw	s1,32304(at)
   11054:	3c020001 	lui	v0,0x1
   11058:	8c425d98 	lw	v0,23960(v0)
   1105c:	10400005 	beqz	v0,0x11074
   11060:	3c020020 	lui	v0,0x20
   11064:	3c020001 	lui	v0,0x1
   11068:	8c425d74 	lw	v0,23924(v0)
   1106c:	1040002b 	beqz	v0,0x1111c
   11070:	3c020020 	lui	v0,0x20
   11074:	00821024 	and	v0,a0,v0
   11078:	10400007 	beqz	v0,0x11098
   1107c:	36100020 	ori	s0,s0,0x20
   11080:	24020100 	li	v0,256
   11084:	3c010001 	lui	at,0x1
   11088:	00320821 	addu	at,at,s2
   1108c:	ac227e44 	sw	v0,32324(at)
   11090:	08005428 	j	0x150a0
   11094:	36100100 	ori	s0,s0,0x100
   11098:	3c010001 	lui	at,0x1
   1109c:	00320821 	addu	at,at,s2
   110a0:	ac207e44 	sw	zero,32324(at)
   110a4:	2402feff 	li	v0,-257
   110a8:	02028024 	and	s0,s0,v0
   110ac:	3c020080 	lui	v0,0x80
   110b0:	00821024 	and	v0,a0,v0
   110b4:	10400007 	beqz	v0,0x110d4
   110b8:	00141940 	sll	v1,s4,0x5
   110bc:	3c020001 	lui	v0,0x1
   110c0:	3c010001 	lui	at,0x1
   110c4:	00230821 	addu	at,at,v1
   110c8:	ac227e4c 	sw	v0,32332(at)
   110cc:	08005439 	j	0x150e4
   110d0:	02629825 	or	s3,s3,v0
   110d4:	00141140 	sll	v0,s4,0x5
   110d8:	3c010001 	lui	at,0x1
   110dc:	00220821 	addu	at,at,v0
   110e0:	ac207e4c 	sw	zero,32332(at)
   110e4:	3c02fffe 	lui	v0,0xfffe
   110e8:	3442ffff 	ori	v0,v0,0xffff
   110ec:	02629824 	and	s3,s3,v0
   110f0:	0c00486a 	jal	0x121a8
   110f4:	00000000 	nop
   110f8:	af900200 	sw	s0,512(gp)
   110fc:	af930220 	sw	s3,544(gp)
   11100:	8f820220 	lw	v0,544(gp)
   11104:	2403fffb 	li	v1,-5
   11108:	00431024 	and	v0,v0,v1
   1110c:	af820220 	sw	v0,544(gp)
   11110:	8f820220 	lw	v0,544(gp)
   11114:	34420002 	ori	v0,v0,0x2
   11118:	af820220 	sw	v0,544(gp)
   1111c:	00141140 	sll	v0,s4,0x5
   11120:	3c010001 	lui	at,0x1
   11124:	00220821 	addu	at,at,v0
   11128:	ac317e30 	sw	s1,32304(at)
   1112c:	8fbf0024 	lw	ra,36(sp)
   11130:	8fb40020 	lw	s4,32(sp)
   11134:	8fb3001c 	lw	s3,28(sp)
   11138:	8fb20018 	lw	s2,24(sp)
   1113c:	8fb10014 	lw	s1,20(sp)
   11140:	8fb00010 	lw	s0,16(sp)
   11144:	03e00008 	jr	ra
   11148:	27bd0028 	addiu	sp,sp,40
   1114c:	24486561 	addiu	t0,v0,25953
   11150:	6465723a 	daddiu	a1,v1,29242
   11154:	202f7072 	addi	t7,at,28786
   11158:	6f6a6563 	ldr	t2,25955(k1)
   1115c:	74732f72 	jalx	0x1ccbdc9
   11160:	63732f73 	daddi	s3,k1,12147
   11164:	772f6765 	jalx	0xcbd9d95
   11168:	2f2e2f6e 	sltiu	t6,t9,12142
   1116c:	69632f66 	ldl	v1,12134(t3)
   11170:	772f636f 	jalx	0xcbd8dbd
   11174:	6d6d6f6e 	ldr	t5,28526(t3)
   11178:	2f66776d 	sltiu	a2,k1,30573
   1117c:	61696e2e 	daddi	t1,t3,28206
   11180:	632c7620 	daddi	t4,t9,30240
   11184:	312e312e 	andi	t6,t1,0x312e
   11188:	322e3131 	andi	t6,s1,0x3131
   1118c:	20313939 	addi	s1,at,14649
   11190:	382f3034 	xori	t7,at,0x3034
   11194:	2f323720 	sltiu	s2,t9,14112
   11198:	32323a31 	andi	s2,s1,0x3a31
   1119c:	333a3432 	andi	k0,t9,0x3432
   111a0:	20736875 	addi	s3,v1,26741
   111a4:	616e6720 	daddi	t6,t3,26400
   111a8:	45787020 	.word	0x45787020
   111ac:	24000000 	li	zero,0
   111b0:	7468655f 	jalx	0x1a1957d
   111b4:	4441574e 	.word	0x4441574e
   111b8:	00000000 	nop
   111bc:	53544143 	beql	k0,s4,0x216cc
   111c0:	4b5f3120 	c2	0x15f3120
   111c4:	00000000 	nop
   111c8:	42616453 	c0	0x616453
   111cc:	6e64526e 	ldr	a0,21102(s3)
   111d0:	67000000 	daddiu	zero,t8,0
   111d4:	3f456e71 	.word	0x3f456e71
   111d8:	45767400 	.word	0x45767400
   111dc:	3f6e6f51 	.word	0x3f6e6f51
   111e0:	64457650 	daddiu	a1,v0,30288
   111e4:	00000000 	nop
   111e8:	6576526e 	daddiu	s6,t3,21102
   111ec:	6746756c 	daddiu	a2,k0,30060
   111f0:	6c000000 	ldr	zero,0(zero)
   111f4:	496c6c43 	.word	0x496c6c43
   111f8:	6f6e6652 	ldr	t6,26194(k1)
   111fc:	78000000 	.word	0x78000000
   11200:	53656e64 	beql	k1,a1,0x2cb94
   11204:	436b5375 	c0	0x16b5375
   11208:	6d000000 	ldr	zero,0(t0)
   1120c:	52656376 	beql	s3,a1,0x29fe8
   11210:	566c616e 	bnel	s3,t4,0x297cc
   11214:	00000000 	nop
   11218:	00000000 	nop
   1121c:	24486561 	addiu	t0,v0,25953
   11220:	6465723a 	daddiu	a1,v1,29242
   11224:	202f7072 	addi	t7,at,28786
   11228:	6f6a6563 	ldr	t2,25955(k1)
   1122c:	74732f72 	jalx	0x1ccbdc9
   11230:	63732f73 	daddi	s3,k1,12147
   11234:	772f6765 	jalx	0xcbd9d95
   11238:	2f2e2f6e 	sltiu	t6,t9,12142
   1123c:	69632f66 	ldl	v1,12134(t3)
   11240:	772f636f 	jalx	0xcbd8dbd
   11244:	6d6d6f6e 	ldr	t5,28526(t3)
   11248:	2f74696d 	sltiu	s4,k1,26989
   1124c:	65722e63 	daddiu	s2,t3,11875
   11250:	2c762031 	sltiu	s6,v1,8241
   11254:	2e312e32 	sltiu	s1,s1,11826
   11258:	2e382031 	sltiu	t8,s1,8241
   1125c:	3939382f 	xori	t9,t1,0x382f
   11260:	30372f33 	andi	s7,at,0x2f33
   11264:	31203137 	andi	zero,t1,0x3137
   11268:	3a35383a 	xori	s5,s1,0x383a
   1126c:	34352073 	ori	s5,at,0x2073
   11270:	6875616e 	ldl	s5,24942(v1)
   11274:	67204578 	daddiu	zero,t9,17784
   11278:	70202400 	.word	0x70202400
   1127c:	542d446d 	bnel	at,t5,0x22434
   11280:	61526431 	daddi	s2,t2,25649
   11284:	00000000 	nop
   11288:	542d446d 	bnel	at,t5,0x22440
   1128c:	61424200 	daddi	v0,t2,16896
   11290:	542d446d 	bnel	at,t5,0x22448
   11294:	61320000 	daddi	s2,t1,0
   11298:	3f6e6f51 	.word	0x3f6e6f51
   1129c:	64547845 	daddiu	s4,v0,30789
   112a0:	00000000 	nop
   112a4:	3f6e6f51 	.word	0x3f6e6f51
   112a8:	64527845 	daddiu	s2,v0,30789
   112ac:	00000000 	nop
   112b0:	656e714d 	daddiu	t6,t3,29005
   112b4:	45765046 	.word	0x45765046
   112b8:	61696c00 	daddi	t1,t3,27648
   112bc:	656e714d 	daddiu	t6,t3,29005
   112c0:	45764661 	.word	0x45764661
   112c4:	696c0000 	ldl	t4,0(t3)
   112c8:	6661696c 	daddiu	at,s3,26988
   112cc:	456e454d 	.word	0x456e454d
   112d0:	00000000 	nop
   112d4:	3f456e71 	.word	0x3f456e71
   112d8:	45767400 	.word	0x45767400
   112dc:	3f6e6f51 	.word	0x3f6e6f51
   112e0:	64457650 	daddiu	a1,v0,30288
   112e4:	00000000 	nop
   112e8:	6576526e 	daddiu	s6,t3,21102
   112ec:	6746756c 	daddiu	a2,k0,30060
   112f0:	6c000000 	ldr	zero,0(zero)
	...
   112fc:	24486561 	addiu	t0,v0,25953
   11300:	6465723a 	daddiu	a1,v1,29242
   11304:	202f7072 	addi	t7,at,28786
   11308:	6f6a6563 	ldr	t2,25955(k1)
   1130c:	74732f72 	jalx	0x1ccbdc9
   11310:	63732f73 	daddi	s3,k1,12147
   11314:	772f6765 	jalx	0xcbd9d95
   11318:	2f2e2f6e 	sltiu	t6,t9,12142
   1131c:	69632f66 	ldl	v1,12134(t3)
   11320:	772f636f 	jalx	0xcbd8dbd
   11324:	6d6d6f6e 	ldr	t5,28526(t3)
   11328:	2f636f6d 	sltiu	v1,k1,28525
   1132c:	6d616e64 	ldr	at,28260(t3)
   11330:	2e632c76 	sltiu	v1,s3,11382
   11334:	20312e31 	addi	s1,at,11825
   11338:	2e322e31 	sltiu	s2,s1,11825
   1133c:	30203139 	andi	zero,at,0x3139
   11340:	39382f31 	xori	t8,t1,0x2f31
   11344:	312f3138 	andi	t7,t1,0x3138
   11348:	2031373a 	addi	s1,at,14138
   1134c:	31313a31 	andi	s1,t1,0x3a31
   11350:	38207368 	xori	zero,at,0x7368
   11354:	75616e67 	jalx	0x585b99d
   11358:	20457870 	addi	a1,v0,30832
   1135c:	20240000 	addi	a0,at,0
   11360:	3f4d626f 	.word	0x3f4d626f
   11364:	78457674 	.word	0x78457674
   11368:	00000000 	nop
   1136c:	4e4f636f 	.word	0x4e4f636f
   11370:	6d616e64 	ldr	at,28260(t3)
   11374:	00000000 	nop
   11378:	68737465 	ldl	s3,29797(v1)
   1137c:	5f455252 	.word	0x5f455252
   11380:	00000000 	nop
   11384:	412d4572 	.word	0x412d4572
   11388:	72427563 	.word	0x72427563
   1138c:	00000000 	nop
   11390:	4552524f 	.word	0x4552524f
   11394:	522d4164 	beql	s1,t5,0x21928
   11398:	64000000 	daddiu	zero,zero,0
   1139c:	656e714d 	daddiu	t6,t3,29005
   113a0:	45765046 	.word	0x45765046
   113a4:	61696c00 	daddi	t1,t3,27648
   113a8:	656e714d 	daddiu	t6,t3,29005
   113ac:	45764661 	.word	0x45764661
   113b0:	696c0000 	ldl	t4,0(t3)
   113b4:	6661696c 	daddiu	at,s3,26988
   113b8:	456e454d 	.word	0x456e454d
   113bc:	00000000 	nop
   113c0:	442d4572 	.word	0x442d4572
   113c4:	724c6173 	.word	0x724c6173
   113c8:	74000000 	jalx	0x1
   113cc:	442d4572 	.word	0x442d4572
   113d0:	72320000 	.word	0x72320000
   113d4:	6d437374 	ldr	v1,29556(t2)
   113d8:	4d644552 	.word	0x4d644552
   113dc:	52000000 	beqzl	s0,0x113e0
   113e0:	70726f6d 	.word	0x70726f6d
   113e4:	4d644552 	.word	0x4d644552
   113e8:	52000000 	beqzl	s0,0x113ec
   113ec:	46696c74 	c1	0x696c74
   113f0:	4d644552 	.word	0x4d644552
   113f4:	52000000 	beqzl	s0,0x113f8
   113f8:	636d645f 	daddi	t5,k1,25695
   113fc:	45525200 	.word	0x45525200
   11400:	3f456e71 	.word	0x3f456e71
   11404:	45767400 	.word	0x45767400
   11408:	3f6e6f51 	.word	0x3f6e6f51
   1140c:	64457650 	daddiu	a1,v0,30288
   11410:	00000000 	nop
   11414:	6576526e 	daddiu	s6,t3,21102
   11418:	6746756c 	daddiu	a2,k0,30060
   1141c:	6c000000 	ldr	zero,0(zero)
   11420:	00000000 	nop
   11424:	00006ea0 	.word	0x6ea0
   11428:	00007fbc 	dsll32	t7,zero,0x1e
   1142c:	00006e38 	dsll	t5,zero,0x18
   11430:	00008734 	teq	zero,zero,0x21c
   11434:	000082b0 	tge	zero,zero,0x20a
   11438:	00008780 	sll	s0,zero,0x1e
   1143c:	00008780 	sll	s0,zero,0x1e
   11440:	00006f54 	.word	0x6f54
   11444:	00007694 	.word	0x7694
   11448:	00007f0c 	syscall	0x1fc
   1144c:	000080a8 	.word	0x80a8
   11450:	00008074 	teq	zero,zero,0x201
   11454:	00008780 	sll	s0,zero,0x1e
   11458:	00007e70 	tge	zero,zero,0x1f9
   1145c:	000080cc 	syscall	0x203
   11460:	00006e64 	.word	0x6e64
   11464:	000081cc 	syscall	0x207
   11468:	00000000 	nop
   1146c:	24486561 	addiu	t0,v0,25953
   11470:	6465723a 	daddiu	a1,v1,29242
   11474:	202f7072 	addi	t7,at,28786
   11478:	6f6a6563 	ldr	t2,25955(k1)
   1147c:	74732f72 	jalx	0x1ccbdc9
   11480:	63732f73 	daddi	s3,k1,12147
   11484:	772f6765 	jalx	0xcbd9d95
   11488:	2f2e2f6e 	sltiu	t6,t9,12142
   1148c:	69632f66 	ldl	v1,12134(t3)
   11490:	772f636f 	jalx	0xcbd8dbd
   11494:	6d6d6f6e 	ldr	t5,28526(t3)
   11498:	2f646d61 	sltiu	a0,k1,28001
   1149c:	2e632c76 	sltiu	v1,s3,11382
   114a0:	20312e31 	addi	s1,at,11825
   114a4:	2e322e33 	sltiu	s2,s1,11827
   114a8:	20313939 	addi	s1,at,14649
   114ac:	382f3034 	xori	t7,at,0x3034
   114b0:	2f323720 	sltiu	s2,t9,14112
   114b4:	32323a31 	andi	s2,s1,0x3a31
   114b8:	333a3431 	andi	k0,t9,0x3431
   114bc:	20736875 	addi	s3,v1,26741
   114c0:	616e6720 	daddi	t6,t3,26400
   114c4:	45787020 	.word	0x45787020
   114c8:	24000000 	li	zero,0
   114cc:	646d6172 	daddiu	t5,v1,24946
   114d0:	6441544e 	daddiu	at,v0,21582
   114d4:	00000000 	nop
   114d8:	646d6177 	daddiu	t5,v1,24951
   114dc:	7241544e 	.word	0x7241544e
	...
   114ec:	24486561 	addiu	t0,v0,25953
   114f0:	6465723a 	daddiu	a1,v1,29242
   114f4:	202f7072 	addi	t7,at,28786
   114f8:	6f6a6563 	ldr	t2,25955(k1)
   114fc:	74732f72 	jalx	0x1ccbdc9
   11500:	63732f73 	daddi	s3,k1,12147
   11504:	772f6765 	jalx	0xcbd9d95
   11508:	2f2e2f6e 	sltiu	t6,t9,12142
   1150c:	69632f66 	ldl	v1,12134(t3)
   11510:	772f636f 	jalx	0xcbd8dbd
   11514:	6d6d6f6e 	ldr	t5,28526(t3)
   11518:	2f747261 	sltiu	s4,k1,29281
   1151c:	63652e63 	daddi	a1,k1,11875
   11520:	2c762031 	sltiu	s6,v1,8241
   11524:	2e312e32 	sltiu	s1,s1,11826
   11528:	2e322031 	sltiu	s2,s1,8241
   1152c:	3939382f 	xori	t9,t1,0x382f
   11530:	30342f32 	andi	s4,at,0x2f32
   11534:	37203232 	ori	zero,t9,0x3232
   11538:	3a31333a 	xori	s1,s1,0x333a
   1153c:	35302073 	ori	s0,t1,0x2073
   11540:	6875616e 	ldl	s5,24942(v1)
   11544:	67204578 	daddiu	zero,t9,17784
   11548:	70202400 	.word	0x70202400
   1154c:	24486561 	addiu	t0,v0,25953
   11550:	6465723a 	daddiu	a1,v1,29242
   11554:	202f7072 	addi	t7,at,28786
   11558:	6f6a6563 	ldr	t2,25955(k1)
   1155c:	74732f72 	jalx	0x1ccbdc9
   11560:	63732f73 	daddi	s3,k1,12147
   11564:	772f6765 	jalx	0xcbd9d95
   11568:	2f2e2f6e 	sltiu	t6,t9,12142
   1156c:	69632f66 	ldl	v1,12134(t3)
   11570:	772f636f 	jalx	0xcbd8dbd
   11574:	6d6d6f6e 	ldr	t5,28526(t3)
   11578:	2f646174 	sltiu	a0,k1,24948
   1157c:	612e632c 	daddi	t6,t1,25388
   11580:	7620312e 	jalx	0x880c4b9
   11584:	312e322e 	andi	t6,t1,0x322e
   11588:	32203139 	andi	zero,s1,0x3139
   1158c:	39382f30 	xori	t8,t1,0x2f30
   11590:	342f3237 	ori	t7,at,0x3237
   11594:	2032323a 	addi	s2,at,12858
   11598:	31333a34 	andi	s3,t1,0x3a34
   1159c:	30207368 	andi	zero,at,0x7368
   115a0:	75616e67 	jalx	0x585b99d
   115a4:	20457870 	addi	a1,v0,30832
   115a8:	20240000 	addi	a0,at,0
   115ac:	46575f56 	c1	0x575f56
   115b0:	45525349 	.word	0x45525349
   115b4:	4f4e3a20 	.word	0x4f4e3a20
   115b8:	23312046 	addi	s1,t9,8262
   115bc:	72692041 	.word	0x72692041
   115c0:	70722037 	.word	0x70722037
   115c4:	2031373a 	addi	s1,at,14138
   115c8:	35353a34 	ori	s5,t1,0x3a34
   115cc:	38205044 	xori	zero,at,0x5044
   115d0:	54203230 	bnezl	at,0x1de94
   115d4:	30300000 	andi	s0,at,0x0
   115d8:	46575f43 	c1	0x575f43
   115dc:	4f4d5049 	.word	0x4f4d5049
   115e0:	4c455f54 	.word	0x4c455f54
   115e4:	494d453a 	.word	0x494d453a
   115e8:	2031373a 	addi	s1,at,14138
   115ec:	35353a34 	ori	s5,t1,0x3a34
   115f0:	38000000 	xori	zero,zero,0x0
   115f4:	46575f43 	c1	0x575f43
   115f8:	4f4d5049 	.word	0x4f4d5049
   115fc:	4c455f42 	.word	0x4c455f42
   11600:	593a2064 	.word	0x593a2064
   11604:	65767263 	daddiu	s6,t3,29283
   11608:	73000000 	.word	0x73000000
   1160c:	46575f43 	c1	0x575f43
   11610:	4f4d5049 	.word	0x4f4d5049
   11614:	4c455f48 	.word	0x4c455f48
   11618:	4f53543a 	.word	0x4f53543a
   1161c:	20636f6d 	addi	v1,v1,28525
   11620:	70757465 	.word	0x70757465
   11624:	00000000 	nop
   11628:	46575f43 	c1	0x575f43
   1162c:	4f4d5049 	.word	0x4f4d5049
   11630:	4c455f44 	.word	0x4c455f44
   11634:	4f4d4149 	.word	0x4f4d4149
   11638:	4e3a2065 	.word	0x4e3a2065
   1163c:	6e672e61 	ldr	a3,11873(s3)
   11640:	6374656f 	daddi	s4,k1,25967
   11644:	6e2e636f 	ldr	t6,25455(s1)
   11648:	6d000000 	ldr	zero,0(t0)
   1164c:	46575f43 	c1	0x575f43
   11650:	4f4d5049 	.word	0x4f4d5049
   11654:	4c45523a 	.word	0x4c45523a
   11658:	20676363 	addi	a3,v1,25443
   1165c:	20766572 	addi	s6,v1,25970
   11660:	73696f6e 	.word	0x73696f6e
   11664:	20322e37 	addi	s2,at,11831
   11668:	2e320000 	sltiu	s2,s1,0
	...
   1167c:	24486561 	addiu	t0,v0,25953
   11680:	6465723a 	daddiu	a1,v1,29242
   11684:	202f7072 	addi	t7,at,28786
   11688:	6f6a6563 	ldr	t2,25955(k1)
   1168c:	74732f72 	jalx	0x1ccbdc9
   11690:	63732f73 	daddi	s3,k1,12147
   11694:	772f6765 	jalx	0xcbd9d95
   11698:	2f2e2f6e 	sltiu	t6,t9,12142
   1169c:	69632f66 	ldl	v1,12134(t3)
   116a0:	772f636f 	jalx	0xcbd8dbd
   116a4:	6d6d6f6e 	ldr	t5,28526(t3)
   116a8:	2f6d656d 	sltiu	t5,k1,25965
   116ac:	2e632c76 	sltiu	v1,s3,11382
   116b0:	20312e31 	addi	s1,at,11825
   116b4:	2e322e32 	sltiu	s2,s1,11826
   116b8:	20313939 	addi	s1,at,14649
   116bc:	382f3034 	xori	t7,at,0x3034
   116c0:	2f323720 	sltiu	s2,t9,14112
   116c4:	32323a31 	andi	s2,s1,0x3a31
   116c8:	333a3434 	andi	k0,t9,0x3434
   116cc:	20736875 	addi	s3,v1,26741
   116d0:	616e6720 	daddi	t6,t3,26400
   116d4:	45787020 	.word	0x45787020
   116d8:	24000000 	li	zero,0
   116dc:	24486561 	addiu	t0,v0,25953
   116e0:	6465723a 	daddiu	a1,v1,29242
   116e4:	202f7072 	addi	t7,at,28786
   116e8:	6f6a6563 	ldr	t2,25955(k1)
   116ec:	74732f72 	jalx	0x1ccbdc9
   116f0:	63732f73 	daddi	s3,k1,12147
   116f4:	772f6765 	jalx	0xcbd9d95
   116f8:	2f2e2f6e 	sltiu	t6,t9,12142
   116fc:	69632f66 	ldl	v1,12134(t3)
   11700:	772f636f 	jalx	0xcbd8dbd
   11704:	6d6d6f6e 	ldr	t5,28526(t3)
   11708:	2f73656e 	sltiu	s3,k1,25966
   1170c:	642e632c 	daddiu	t6,at,25388
   11710:	7620312e 	jalx	0x880c4b9
   11714:	312e322e 	andi	t6,t1,0x322e
   11718:	31312031 	andi	s1,t1,0x2031
   1171c:	3939382f 	xori	t9,t1,0x382f
   11720:	31322f32 	andi	s2,t1,0x2f32
   11724:	32203137 	andi	zero,s1,0x3137
   11728:	3a31373a 	xori	s1,s1,0x373a
   1172c:	35352073 	ori	s5,t1,0x2073
   11730:	6875616e 	ldl	s5,24942(v1)
   11734:	67204578 	daddiu	zero,t9,17784
   11738:	70202400 	.word	0x70202400
   1173c:	736e6464 	.word	0x736e6464
   11740:	654e6f51 	daddiu	t6,t2,28497
   11744:	20000000 	addi	zero,zero,0
   11748:	6e6f454e 	ldr	t7,17742(s3)
   1174c:	515f5458 	beql	t2,ra,0x268b0
   11750:	00000000 	nop
   11754:	736e6464 	.word	0x736e6464
   11758:	744e6f51 	jalx	0x139bd45
   1175c:	20000000 	addi	zero,zero,0
   11760:	3f6e6f51 	.word	0x3f6e6f51
   11764:	64547845 	daddiu	s4,v0,30789
   11768:	00000000 	nop
   1176c:	756e6b72 	jalx	0x5b9adc9
   11770:	64747970 	daddiu	s4,v1,31088
   11774:	65000000 	daddiu	zero,t0,0
   11778:	00000000 	nop
   1177c:	0000accc 	syscall	0x2b3
   11780:	0000accc 	syscall	0x2b3
   11784:	0000ad9c 	.word	0xad9c
   11788:	0000aab0 	tge	zero,zero,0x2aa
   1178c:	0000aab0 	tge	zero,zero,0x2aa
   11790:	0000ad9c 	.word	0xad9c
   11794:	0000ad9c 	.word	0xad9c
   11798:	0000ad9c 	.word	0xad9c
   1179c:	0000ad9c 	.word	0xad9c
   117a0:	0000ad9c 	.word	0xad9c
   117a4:	0000ad9c 	.word	0xad9c
   117a8:	0000ad9c 	.word	0xad9c
   117ac:	0000ad9c 	.word	0xad9c
   117b0:	0000ad9c 	.word	0xad9c
   117b4:	0000ad9c 	.word	0xad9c
   117b8:	0000ad9c 	.word	0xad9c
   117bc:	0000ad9c 	.word	0xad9c
   117c0:	0000ad9c 	.word	0xad9c
   117c4:	0000ad7c 	dsll32	s5,zero,0x15
   117c8:	00000000 	nop
   117cc:	0000bca8 	.word	0xbca8
   117d0:	0000bca8 	.word	0xbca8
   117d4:	0000bd70 	tge	zero,zero,0x2f5
   117d8:	0000ae4c 	syscall	0x2b9
   117dc:	0000b058 	.word	0xb058
   117e0:	0000bd70 	tge	zero,zero,0x2f5
   117e4:	0000bd70 	tge	zero,zero,0x2f5
   117e8:	0000bd70 	tge	zero,zero,0x2f5
   117ec:	0000bd70 	tge	zero,zero,0x2f5
   117f0:	0000bd70 	tge	zero,zero,0x2f5
   117f4:	0000bd70 	tge	zero,zero,0x2f5
   117f8:	0000bd70 	tge	zero,zero,0x2f5
   117fc:	0000bd70 	tge	zero,zero,0x2f5
   11800:	0000bd70 	tge	zero,zero,0x2f5
   11804:	0000bd70 	tge	zero,zero,0x2f5
   11808:	0000bd70 	tge	zero,zero,0x2f5
   1180c:	0000bd70 	tge	zero,zero,0x2f5
   11810:	0000bd70 	tge	zero,zero,0x2f5
   11814:	0000bd54 	.word	0xbd54
   11818:	0000b040 	sll	s6,zero,0x1
   1181c:	24486561 	addiu	t0,v0,25953
   11820:	6465723a 	daddiu	a1,v1,29242
   11824:	202f7072 	addi	t7,at,28786
   11828:	6f6a6563 	ldr	t2,25955(k1)
   1182c:	74732f72 	jalx	0x1ccbdc9
   11830:	63732f73 	daddi	s3,k1,12147
   11834:	772f6765 	jalx	0xcbd9d95
   11838:	2f2e2f6e 	sltiu	t6,t9,12142
   1183c:	69632f66 	ldl	v1,12134(t3)
   11840:	772f636f 	jalx	0xcbd8dbd
   11844:	6d6d6f6e 	ldr	t5,28526(t3)
   11848:	2f726563 	sltiu	s2,k1,25955
   1184c:	762e632c 	jalx	0x8b98cb1
   11850:	7620312e 	jalx	0x880c4b9
   11854:	312e322e 	andi	t6,t1,0x322e
   11858:	31392031 	andi	t9,t1,0x2031
   1185c:	3939382f 	xori	t9,t1,0x382f
   11860:	30372f32 	andi	s7,at,0x2f32
   11864:	34203231 	ori	zero,at,0x3231
   11868:	3a33303a 	xori	s3,s1,0x303a
   1186c:	30352073 	andi	s5,at,0x2073
   11870:	6875616e 	ldl	s5,24942(v1)
   11874:	67204578 	daddiu	zero,t9,17784
   11878:	70202400 	.word	0x70202400
   1187c:	706b5278 	.word	0x706b5278
   11880:	45525200 	.word	0x45525200
   11884:	66726d32 	daddiu	s2,s3,27954
   11888:	4c617267 	.word	0x4c617267
   1188c:	65000000 	daddiu	zero,t0,0
   11890:	72784e6f 	.word	0x72784e6f
   11894:	52784264 	beql	s3,t8,0x22228
   11898:	00000000 	nop
   1189c:	72785144 	.word	0x72785144
   118a0:	6d614446 	ldr	at,17478(t3)
   118a4:	00000000 	nop
   118a8:	72785144 	.word	0x72785144
   118ac:	6d614246 	ldr	at,16966(t3)
   118b0:	00000000 	nop
   118b4:	3f6e6f51 	.word	0x3f6e6f51
   118b8:	64527845 	daddiu	s2,v0,30789
   118bc:	00000000 	nop
   118c0:	706b5278 	.word	0x706b5278
   118c4:	45525273 	.word	0x45525273
   118c8:	00000000 	nop
   118cc:	66726d32 	daddiu	s2,s3,27954
   118d0:	4c726753 	.word	0x4c726753
   118d4:	00000000 	nop
   118d8:	72784e6f 	.word	0x72784e6f
   118dc:	42645300 	c0	0x645300
   118e0:	3f724264 	.word	0x3f724264
   118e4:	446d6146 	.word	0x446d6146
   118e8:	00000000 	nop
   118ec:	3f724a42 	.word	0x3f724a42
   118f0:	64446d46 	daddiu	a0,v0,27974
	...
   118fc:	0000f678 	dsll	s8,zero,0x19
   11900:	0000f678 	dsll	s8,zero,0x19
   11904:	0000f678 	dsll	s8,zero,0x19
   11908:	0000f678 	dsll	s8,zero,0x19
   1190c:	0000f678 	dsll	s8,zero,0x19
   11910:	0000f678 	dsll	s8,zero,0x19
   11914:	0000f678 	dsll	s8,zero,0x19
   11918:	0000f678 	dsll	s8,zero,0x19
   1191c:	0000f678 	dsll	s8,zero,0x19
   11920:	0000f678 	dsll	s8,zero,0x19
   11924:	0000f678 	dsll	s8,zero,0x19
   11928:	0000f678 	dsll	s8,zero,0x19
   1192c:	0000f678 	dsll	s8,zero,0x19
   11930:	0000f678 	dsll	s8,zero,0x19
   11934:	0000f678 	dsll	s8,zero,0x19
   11938:	0000f670 	tge	zero,zero,0x3d9
   1193c:	0000f670 	tge	zero,zero,0x3d9
   11940:	0000f670 	tge	zero,zero,0x3d9
   11944:	572d444d 	bnel	t9,t5,0x22a7c
   11948:	41456e46 	.word	0x41456e46
	...
   11954:	0000fdc0 	sll	ra,zero,0x17
   11958:	0001015c 	.word	0x1015c
   1195c:	0000fddc 	.word	0xfddc
   11960:	0001015c 	.word	0x1015c
   11964:	0001015c 	.word	0x1015c
   11968:	0001015c 	.word	0x1015c
   1196c:	0001015c 	.word	0x1015c
   11970:	0001015c 	.word	0x1015c
   11974:	0001015c 	.word	0x1015c
   11978:	0000f704 	.word	0xf704
   1197c:	0001015c 	.word	0x1015c
   11980:	0001015c 	.word	0x1015c
   11984:	0001015c 	.word	0x1015c
   11988:	0001015c 	.word	0x1015c
   1198c:	0001015c 	.word	0x1015c
   11990:	00010154 	.word	0x10154
   11994:	00010154 	.word	0x10154
   11998:	00010154 	.word	0x10154
   1199c:	24486561 	addiu	t0,v0,25953
   119a0:	6465723a 	daddiu	a1,v1,29242
   119a4:	202f7072 	addi	t7,at,28786
   119a8:	6f6a6563 	ldr	t2,25955(k1)
   119ac:	74732f72 	jalx	0x1ccbdc9
   119b0:	63732f73 	daddi	s3,k1,12147
   119b4:	772f6765 	jalx	0xcbd9d95
   119b8:	2f2e2f6e 	sltiu	t6,t9,12142
   119bc:	69632f66 	ldl	v1,12134(t3)
   119c0:	772f636f 	jalx	0xcbd8dbd
   119c4:	6d6d6f6e 	ldr	t5,28526(t3)
   119c8:	2f6d6163 	sltiu	t5,k1,24931
   119cc:	2e632c76 	sltiu	v1,s3,11382
   119d0:	20312e31 	addi	s1,at,11825
   119d4:	2e322e31 	sltiu	s2,s1,11825
   119d8:	32203139 	andi	zero,s1,0x3139
   119dc:	39382f30 	xori	t8,t1,0x2f30
   119e0:	342f3237 	ori	t7,at,0x3237
   119e4:	2032323a 	addi	s2,at,12858
   119e8:	31333a34 	andi	s3,t1,0x3a34
   119ec:	32207368 	andi	zero,s1,0x7368
   119f0:	75616e67 	jalx	0x585b99d
   119f4:	20457870 	addi	a1,v0,30832
   119f8:	20240000 	addi	a0,at,0
   119fc:	6d616374 	ldr	at,25460(t3)
   11a00:	7841544e 	.word	0x7841544e
   11a04:	00000000 	nop
   11a08:	4e745379 	.word	0x4e745379
   11a0c:	6e264c6b 	ldr	a2,19563(s1)
   11a10:	00000000 	nop
   11a14:	72656d61 	.word	0x72656d61
   11a18:	73737274 	.word	0x73737274
   11a1c:	00000000 	nop
   11a20:	6c696e6b 	ldr	t1,28267(v1)
   11a24:	444f574e 	.word	0x444f574e
   11a28:	00000000 	nop
   11a2c:	656e714d 	daddiu	t6,t3,29005
   11a30:	45765046 	.word	0x45765046
   11a34:	61696c00 	daddi	t1,t3,27648
   11a38:	656e714d 	daddiu	t6,t3,29005
   11a3c:	45764661 	.word	0x45764661
   11a40:	696c0000 	ldl	t4,0(t3)
   11a44:	6661696c 	daddiu	at,s3,26988
   11a48:	456e454d 	.word	0x456e454d
   11a4c:	00000000 	nop
   11a50:	6c696e6b 	ldr	t1,28267(v1)
   11a54:	55500000 	bnel	t2,s0,0x11a58
   11a58:	00000000 	nop
   11a5c:	24486561 	addiu	t0,v0,25953
   11a60:	6465723a 	daddiu	a1,v1,29242
   11a64:	202f7072 	addi	t7,at,28786
   11a68:	6f6a6563 	ldr	t2,25955(k1)
   11a6c:	74732f72 	jalx	0x1ccbdc9
   11a70:	63732f73 	daddi	s3,k1,12147
   11a74:	772f6765 	jalx	0xcbd9d95
   11a78:	2f2e2f6e 	sltiu	t6,t9,12142
   11a7c:	69632f66 	ldl	v1,12134(t3)
   11a80:	772f636f 	jalx	0xcbd8dbd
   11a84:	6d6d6f6e 	ldr	t5,28526(t3)
   11a88:	2f636b73 	sltiu	v1,k1,27507
   11a8c:	756d2e63 	jalx	0x5b4b98d
   11a90:	2c762031 	sltiu	s6,v1,8241
   11a94:	2e312e32 	sltiu	s1,s1,11826
   11a98:	2e322031 	sltiu	s2,s1,8241
   11a9c:	3939382f 	xori	t9,t1,0x382f
   11aa0:	30342f32 	andi	s4,at,0x2f32
   11aa4:	37203232 	ori	zero,t9,0x3232
   11aa8:	3a31333a 	xori	s1,s1,0x333a
   11aac:	33392073 	andi	t9,t9,0x2073
   11ab0:	6875616e 	ldl	s5,24942(v1)
   11ab4:	67204578 	daddiu	zero,t9,17784
   11ab8:	70202400 	.word	0x70202400
   11abc:	50726f62 	beql	v1,s2,0x2d848
   11ac0:	65506879 	daddiu	s0,t2,26745
   11ac4:	00000000 	nop
   11ac8:	6c6e6b41 	ldr	t6,27457(v1)
   11acc:	53535254 	beql	k0,s3,0x26420
   11ad0:	00000000 	nop
   11ad4:	00011b2c 	.word	0x11b2c
   11ad8:	00011bc4 	.word	0x11bc4
   11adc:	00011bf8 	dsll	v1,at,0xf
   11ae0:	00011c2c 	.word	0x11c2c
   11ae4:	00011c58 	.word	0x11c58
   11ae8:	00011c6c 	.word	0x11c6c
   11aec:	00011ca8 	.word	0x11ca8
   11af0:	0001207c 	dsll32	a0,at,0x1
   11af4:	00011de4 	.word	0x11de4
   11af8:	00011e24 	.word	0x11e24
   11afc:	00011e50 	.word	0x11e50
   11b00:	00011e90 	.word	0x11e90
   11b04:	00011ec0 	sll	v1,at,0x1b
   11b08:	00011efc 	dsll32	v1,at,0x1b
   11b0c:	00011f30 	tge	zero,at,0x7c
   11b10:	0001207c 	dsll32	a0,at,0x1
   11b14:	000122c0 	sll	a0,at,0xb
   11b18:	000122d8 	.word	0x122d8
   11b1c:	00012300 	sll	a0,at,0xc
   11b20:	00012320 	.word	0x12320
   11b24:	00012348 	.word	0x12348
   11b28:	00012478 	dsll	a0,at,0x11
   11b2c:	000124a0 	.word	0x124a0
   11b30:	000124f4 	teq	zero,at,0x93
   11b34:	0001251c 	.word	0x1251c
   11b38:	00000000 	nop
   11b3c:	0001278c 	syscall	0x49e
   11b40:	0001285c 	.word	0x1285c
   11b44:	00012934 	teq	zero,at,0xa4
   11b48:	00012a04 	.word	0x12a04
   11b4c:	00012a60 	.word	0x12a60
   11b50:	00012b3c 	dsll32	a1,at,0xc
   11b54:	00012b64 	.word	0x12b64
   11b58:	00012c40 	sll	a1,at,0x11
   11b5c:	00012c68 	.word	0x12c68
   11b60:	00012e10 	.word	0x12e10
   11b64:	00012e38 	dsll	a1,at,0x18
   11b68:	00012fe0 	.word	0x12fe0
   11b6c:	000131d8 	.word	0x131d8
   11b70:	0001346c 	.word	0x1346c
   11b74:	00013380 	sll	a2,at,0xe
   11b78:	0001346c 	.word	0x1346c
   11b7c:	00013498 	.word	0x13498
   11b80:	00013008 	.word	0x13008
   11b84:	000131b0 	tge	zero,at,0xc6
   11b88:	00000000 	nop
   11b8c:	00013b84 	.word	0x13b84
   11b90:	00013bc8 	.word	0x13bc8
   11b94:	00013c60 	.word	0x13c60
   11b98:	00013cac 	.word	0x13cac
   11b9c:	00013d1c 	.word	0x13d1c
   11ba0:	00013db4 	teq	zero,at,0xf6
   11ba4:	00013de8 	.word	0x13de8
   11ba8:	00013e70 	tge	zero,at,0xf9
   11bac:	00013f08 	.word	0x13f08
   11bb0:	00013fd8 	.word	0x13fd8
   11bb4:	00014018 	.word	0x14018
   11bb8:	0001409c 	.word	0x1409c
   11bbc:	000140c0 	sll	t0,at,0x3
   11bc0:	000141f4 	teq	zero,at,0x107
   11bc4:	646f4261 	daddiu	t7,v1,16993
   11bc8:	73655067 	.word	0x73655067
	...
   11bdc:	73746d61 	.word	0x73746d61
   11be0:	634c4e4b 	daddi	t4,k0,20043
	...
   11bec:	00014c38 	dsll	t1,at,0x10
   11bf0:	00014c38 	dsll	t1,at,0x10
   11bf4:	00014b80 	sll	t1,at,0xe
   11bf8:	00014bc4 	.word	0x14bc4
   11bfc:	00014c38 	dsll	t1,at,0x10
   11c00:	00014c38 	dsll	t1,at,0x10
	...
   11c2c:	416c7465 	.word	0x416c7465
   11c30:	6f6e2041 	ldr	t6,8257(k1)
   11c34:	63654e49 	daddi	a1,k1,20041
   11c38:	43205600 	c0	0x1205600
   11c3c:	416c7465 	.word	0x416c7465
   11c40:	6f6e2041 	ldr	t6,8257(k1)
   11c44:	63654e49 	daddi	a1,k1,20041
   11c48:	43205600 	c0	0x1205600
   11c4c:	42424242 	c0	0x424242
	...
   11c5c:	00135418 	.word	0x135418
   11c60:	0013e7fc 	dsll32	gp,s3,0x1f
	...
   11c7c:	0060cf00 	.word	0x60cf00
   11c80:	00000060 	.word	0x60
   11c84:	cf000000 	.word	0xcf000000
	...
   11cd8:	00000003 	sra	zero,zero,0x0
   11cdc:	00000000 	nop
   11ce0:	00000001 	.word	0x1
	...
   11cf0:	00000001 	.word	0x1
   11cf4:	00000000 	nop
   11cf8:	00000001 	.word	0x1
	...
   11d0c:	00000001 	.word	0x1
   11d10:	00000001 	.word	0x1
	...
   11d28:	01000000 	.word	0x1000000
   11d2c:	21000000 	addi	zero,t0,0
   11d30:	12000140 	beqz	s0,0x12234
   11d34:	00000000 	nop
   11d38:	00000000 	nop
   11d3c:	20000000 	addi	zero,zero,0
   11d40:	120000a0 	beqz	s0,0x11fc4
   11d44:	00000000 	nop
   11d48:	12000060 	beqz	s0,0x11ecc
   11d4c:	12000180 	beqz	s0,0x12350
   11d50:	120001e0 	beqz	s0,0x124d4
   11d54:	00000000 	nop
	...
   11d60:	00000001 	.word	0x1
	...
   11d7c:	00000002 	srl	zero,zero,0x0
	...
   11d88:	00030001 	.word	0x30001
   11d8c:	00000001 	.word	0x1
   11d90:	00030201 	.word	0x30201
	...