../git/linux-firmware/./ar3k/AthrBT_0x11020000.dfu:     file format binary


Disassembly of section .data:

00000000 <.data>:
       0:	594800        	excw
       3:	600000        	neg	a0, a0
       6:	0099      	s32i.n	a9, a0, 0
       8:	8fc8      	l32i.n	a12, a15, 32
       a:	e00000        	subx4	a0, a0, a0
       d:	9bec      	bnez.n	a11, 0x3a
       f:	000484        	excw
	...
      1e:	000000        	ill
      21:	009960        	excw
	...
      2c:	4f88      	l32i.n	a8, a15, 16
      2e:	0059      	s32i.n	a5, a0, 0
      30:	833c      	movi.n	a3, 56
      32:	0058      	l32i.n	a5, a0, 0
      34:	605c      	movi.n	a0, 86
      36:	0099      	s32i.n	a9, a0, 0
      38:	594f84        	excw
      3b:	d7c800        	excw
      3e:	0059      	s32i.n	a5, a0, 0
      40:	54c8      	l32i.n	a12, a4, 20
      42:	0059      	s32i.n	a5, a0, 0
      44:	81c8      	l32i.n	a12, a1, 32
      46:	0058      	l32i.n	a5, a0, 0
      48:	8248      	l32i.n	a4, a2, 32
      4a:	0058      	l32i.n	a5, a0, 0
      4c:	80c8      	l32i.n	a12, a0, 32
      4e:	0058      	l32i.n	a5, a0, 0
      50:	581fb0        	excw
      53:	4a6400        	excw
      56:	0058      	l32i.n	a5, a0, 0
      58:	5821b0        	excw
      5b:	fffe00        	excw
      5e:	4c0000        	excw
      61:	4e          	.byte 0x4e
      62:	0059      	s32i.n	a5, a0, 0
      64:	ff          	.byte 0xff
      65:	ff          	.byte 0xff
      66:	800000        	add	a0, a0, a0
      69:	005813        	excw
      6c:	5825b0        	excw
      6f:	4b3a00        	excw
      72:	0058      	l32i.n	a5, a0, 0
      74:	584290        	excw
      77:	4e2000        	excw
      7a:	0059      	s32i.n	a5, a0, 0
      7c:	594e30        	excw
      7f:	73c800        	excw
      82:	0058      	l32i.n	a5, a0, 0
      84:	589240        	excw
      87:	75d200        	extui	a13, a0, 18, 8
      8a:	0058      	l32i.n	a5, a0, 0
      8c:	7648      	l32i.n	a4, a6, 28
      8e:	0058      	l32i.n	a5, a0, 0
      90:	587451        	l32r	a5, 0xfffd6260
      93:	54f400        	extui	a15, a0, 4, 6
      96:	0059      	s32i.n	a5, a0, 0
      98:	74c8      	l32i.n	a12, a4, 28
      9a:	0058      	l32i.n	a5, a0, 0
      9c:	7448      	l32i.n	a4, a4, 28
      9e:	0058      	l32i.n	a5, a0, 0
      a0:	75f8      	l32i.n	a15, a5, 28
      a2:	0058      	l32i.n	a5, a0, 0
      a4:	ff          	.byte 0xff
      a5:	ff          	.byte 0xff
      a6:	ff          	.byte 0xff
      a7:	b00007        	bnone	a0, a0, 0x5b
      aa:	1e          	.byte 0x1e
      ab:	744c04        	excw
      ae:	0058      	l32i.n	a5, a0, 0
      b0:	587b70        	excw
      b3:	767400        	excw
      b6:	0058      	l32i.n	a5, a0, 0
      b8:	72c8      	l32i.n	a12, a2, 28
      ba:	0058      	l32i.n	a5, a0, 0
      bc:	765c      	movi.n	a6, 87
      be:	0058      	l32i.n	a5, a0, 0
      c0:	003000        	rfe
      c3:	000000        	ill
      c6:	801000        	add	a1, a0, a0
      c9:	005815        	excw
      cc:	007530        	excw
      cf:	000000        	ill
      d2:	000001        	l32r	a0, 0xfffc00d4
      d5:	000200        	excw
      d8:	080000        	excw
      db:	000000        	ill
      de:	ff0004        	excw
      e1:	ff          	.byte 0xff
      e2:	48fff3        	excw
      e5:	005881        	l32r	a8, 0xfffc0248
      e8:	400000        	ssr	a0
      eb:	fffc00        	excw
      ee:	e40000        	extui	a0, a0, 0, 15
      f1:	588d      	excw
      f3:	110800        	slli	a0, a8, 16
      f6:	0058      	l32i.n	a5, a0, 0
      f8:	4b1c      	movi.n	a11, 20
      fa:	0058      	l32i.n	a5, a0, 0
      fc:	582cf0        	excw
      ff:	ffef00        	excw
     102:	ff          	.byte 0xff
     103:	0f          	.byte 0xf
     104:	002710        	excw
     107:	86a000        	excw
     10a:	7c0001        	l32r	a0, 0xfffdf10c
     10d:	005870        	excw
     110:	5875f7        	bbci	a5, 31, 0x16c
     113:	1e3000        	excw
     116:	0058      	l32i.n	a5, a0, 0
     118:	00f000        	excw
     11b:	800000        	add	a0, a0, a0
     11e:	b00000        	addx8	a0, a0, a0
     121:	005820        	excw
     124:	996e20        	excw
     127:	607000        	neg	a7, a0
     12a:	0099      	s32i.n	a9, a0, 0
     12c:	9975f4        	excw
     12f:	60b000        	neg	a11, a0
     132:	0099      	s32i.n	a9, a0, 0
     134:	766c      	movi.n	a6, -25
     136:	0099      	s32i.n	a9, a0, 0
     138:	731c      	movi.n	a3, 23
     13a:	0099      	s32i.n	a9, a0, 0
     13c:	996510        	excw
     13f:	6c4400        	excw
     142:	0099      	s32i.n	a9, a0, 0
     144:	6c1c      	movi.n	a12, 22
     146:	0099      	s32i.n	a9, a0, 0
     148:	6aac      	beqz.n	a10, 0x172
     14a:	0099      	s32i.n	a9, a0, 0
     14c:	996f94        	excw
     14f:	738000        	excw
     152:	0099      	s32i.n	a9, a0, 0
     154:	997540        	excw
     157:	74e400        	extui	a14, a0, 4, 8
     15a:	0099      	s32i.n	a9, a0, 0
     15c:	6288      	l32i.n	a8, a2, 24
     15e:	0099      	s32i.n	a9, a0, 0
     160:	996a74        	excw
     163:	6af000        	excw
     166:	0099      	s32i.n	a9, a0, 0
     168:	a60c      	movi.n	a6, 10
     16a:	0058      	l32i.n	a5, a0, 0
     16c:	58aad0        	excw
     16f:	020000        	excw
     172:	500002        	l8ui	a0, a0, 80
     175:	58a8      	l32i.n	a10, a8, 20
     177:	a59000        	extui	a9, a0, 16, 11
     17a:	0058      	l32i.n	a5, a0, 0
     17c:	58a950        	excw
     17f:	a5e400        	extui	a14, a0, 20, 11
     182:	0058      	l32i.n	a5, a0, 0
     184:	ad7d      	excw
     186:	0058      	l32i.n	a5, a0, 0
     188:	594e54        	excw
     18b:	270f00        	excw
     18e:	5c0000        	excw
     191:	58a8      	l32i.n	a10, a8, 20
     193:	ad5000        	excw
     196:	0058      	l32i.n	a5, a0, 0
     198:	6d9c      	beqz.n	a13, 0x1b2
     19a:	0058      	l32i.n	a5, a0, 0
     19c:	58aa50        	excw
     19f:	a9d000        	excw
     1a2:	0058      	l32i.n	a5, a0, 0
     1a4:	ff0000        	excw
     1a7:	ff          	.byte 0xff
     1a8:	5884c0        	excw
     1ab:	765200        	excw
     1ae:	0058      	l32i.n	a5, a0, 0
     1b0:	1f          	.byte 0x1f
     1b1:	ffffe0        	excw
     1b4:	586890        	excw
     1b7:	4b3900        	excw
     1ba:	0058      	l32i.n	a5, a0, 0
     1bc:	07f800        	excw
     1bf:	000000        	ill
     1c2:	07f8      	l32i.n	a15, a7, 0
     1c4:	000000        	ill
     1c7:	0000f0        	excw
     1ca:	a00800        	addx4	a0, a8, a0
     1cd:	3e          	.byte 0x3e
     1ce:	0058      	l32i.n	a5, a0, 0
     1d0:	584b34        	excw
     1d3:	000000        	ill
     1d6:	00ff00        	excw
     1d9:	00ff00        	excw
     1dc:	4c69      	s32i.n	a6, a12, 16
     1de:	0058      	l32i.n	a5, a0, 0
     1e0:	586910        	excw
     1e3:	ff0000        	excw
     1e6:	100000        	and	a0, a0, a0
     1e9:	586c      	movi.n	a8, -27
     1eb:	fe0000        	excw
     1ee:	ff0001        	l32r	a0, 0xfffffdf0
     1f1:	ff          	.byte 0xff
     1f2:	ff          	.byte 0xff
     1f3:	4c6803        	excw
     1f6:	0058      	l32i.n	a5, a0, 0
     1f8:	8cec      	bnez.n	a12, 0x224
     1fa:	0058      	l32i.n	a5, a0, 0
     1fc:	584b41        	l32r	a4, 0xfffd6328
     1ff:	4c1a00        	excw
     202:	0058      	l32i.n	a5, a0, 0
     204:	584b30        	excw
     207:	048c00        	extui	a8, a0, 12, 1
     20a:	1a0002        	l8ui	a0, a0, 26
     20d:	584b      	addi.n	a5, a8, 4
     20f:	441000        	extui	a1, a0, 0, 5
     212:	0058      	l32i.n	a5, a0, 0
     214:	58a750        	excw
     217:	ab5000        	excw
     21a:	0058      	l32i.n	a5, a0, 0
     21c:	9978d0        	excw
     21f:	79b400        	excw
     222:	0099      	s32i.n	a9, a0, 0
     224:	7fb8      	l32i.n	a11, a15, 28
     226:	0099      	s32i.n	a9, a0, 0
     228:	997ff4        	excw
     22b:	83ac00        	moveqz	a10, a12, a0
     22e:	0099      	s32i.n	a9, a0, 0
     230:	997814        	excw
     233:	7aac00        	excw
     236:	0099      	s32i.n	a9, a0, 0
     238:	997d94        	excw
     23b:	7a8400        	excw
     23e:	0099      	s32i.n	a9, a0, 0
     240:	7dcc      	bnez.n	a13, 0x24b
     242:	0099      	s32i.n	a9, a0, 0
     244:	997f20        	excw
     247:	7e8c00        	excw
     24a:	0099      	s32i.n	a9, a0, 0
     24c:	8068      	l32i.n	a6, a0, 32
     24e:	0099      	s32i.n	a9, a0, 0
     250:	998170        	excw
     253:	81d000        	src	a13, a0, a0
     256:	0099      	s32i.n	a9, a0, 0
     258:	998230        	excw
     25b:	73a400        	excw
     25e:	0058      	l32i.n	a5, a0, 0
     260:	003e00        	excw
     263:	551800        	extui	a1, a0, 24, 6
     266:	0059      	s32i.n	a5, a0, 0
     268:	4e5c      	movi.n	a14, 84
     26a:	0059      	s32i.n	a5, a0, 0
     26c:	05fe00        	extui	a15, a0, 30, 1
     26f:	000000        	ill
     272:	f84000        	excw
     275:	009986        	j	0x4df
     278:	8718      	l32i.n	a1, a7, 32
     27a:	0099      	s32i.n	a9, a0, 0
     27c:	586f34        	excw
     27f:	83cc00        	moveqz	a12, a12, a0
     282:	0058      	l32i.n	a5, a0, 0
     284:	4e4c      	movi.n	a14, 68
     286:	0059      	s32i.n	a5, a0, 0
     288:	595400        	excw
     28b:	755000        	extui	a5, a0, 16, 8
     28e:	0058      	l32i.n	a5, a0, 0
     290:	5802a0        	excw
     293:	ad8000        	excw
     296:	0058      	l32i.n	a5, a0, 0
     298:	745c      	movi.n	a4, 87
     29a:	0058      	l32i.n	a5, a0, 0
     29c:	583eb0        	excw
     29f:	201000        	or	a1, a0, a0
     2a2:	640000        	extui	a0, a0, 0, 7
     2a5:	6f          	.byte 0x6f
     2a6:	0058      	l32i.n	a5, a0, 0
     2a8:	5882d0        	excw
     2ab:	292800        	excw
     2ae:	0058      	l32i.n	a5, a0, 0
     2b0:	587520        	excw
     2b3:	6b9000        	excw
     2b6:	0058      	l32i.n	a5, a0, 0
     2b8:	595520        	excw
     2bb:	fc7200        	excw
     2be:	030000        	excw
     2c1:	000c      	movi.n	a0, 0
     2c3:	555c00        	extui	a5, a0, 28, 6
     2c6:	0059      	s32i.n	a5, a0, 0
     2c8:	5e          	.byte 0x5e
     2c9:	005955        	excw
     2cc:	fc6d      	excw
     2ce:	980000        	excw
     2d1:	589b      	addi.n	a5, a8, 9
     2d3:	92d000        	excw
     2d6:	0058      	l32i.n	a5, a0, 0
     2d8:	8d2c      	movi.n	a13, 40
     2da:	0099      	s32i.n	a9, a0, 0
     2dc:	951c      	movi.n	a5, 25
     2de:	0058      	l32i.n	a5, a0, 0
     2e0:	544854        	excw
     2e3:	948441        	l32r	a4, 0xfffe54f4
     2e6:	0058      	l32i.n	a5, a0, 0
     2e8:	589384        	excw
     2eb:	950400        	extui	a0, a0, 20, 10
     2ee:	0058      	l32i.n	a5, a0, 0
     2f0:	57bf70        	excw
     2f3:	fc6e00        	excw
     2f6:	6f0000        	excw
     2f9:	00fc      	bnez.n	a0, 0x32d
     2fb:	553800        	extui	a3, a0, 24, 6
     2fe:	0059      	s32i.n	a5, a0, 0
     300:	5875a0        	excw
     303:	fc7300        	excw
     306:	740000        	extui	a0, a0, 0, 8
     309:	4e          	.byte 0x4e
     30a:	0059      	s32i.n	a5, a0, 0
     30c:	4e88      	l32i.n	a8, a14, 16
     30e:	0059      	s32i.n	a5, a0, 0
     310:	4e98      	l32i.n	a9, a14, 16
     312:	0059      	s32i.n	a5, a0, 0
     314:	00fc57        	bbsi	a12, 21, 0x318
     317:	fc5400        	excw
     31a:	550000        	extui	a0, a0, 16, 6
     31d:	00fc      	bnez.n	a0, 0x351
     31f:	fc5600        	excw
     322:	340000        	extui	a0, a0, 0, 4
     325:	000012        	l8ui	a1, a0, 0
     328:	58af80        	excw
     32b:	b00000        	addx8	a0, a0, a0
     32e:	0058      	l32i.n	a5, a0, 0
     330:	999184        	excw
     333:	6f7c00        	excw
     336:	0058      	l32i.n	a5, a0, 0
     338:	9992a0        	excw
     33b:	8c1400        	excw
     33e:	0099      	s32i.n	a9, a0, 0
     340:	998c34        	excw
     343:	8c5400        	excw
     346:	0099      	s32i.n	a9, a0, 0
     348:	90ac      	beqz.n	a0, 0x375
     34a:	0099      	s32i.n	a9, a0, 0
     34c:	999234        	excw
     34f:	8b6800        	excw
     352:	0099      	s32i.n	a9, a0, 0
     354:	998b84        	excw
     357:	4e4c00        	excw
     35a:	0059      	s32i.n	a5, a0, 0
     35c:	595410        	excw
     35f:	556000        	extui	a6, a0, 16, 6
     362:	0059      	s32i.n	a5, a0, 0
     364:	581980        	excw
     367:	be0000        	excw
     36a:	e40002        	l8ui	a0, a0, 228
     36d:	3e          	.byte 0x3e
     36e:	0058      	l32i.n	a5, a0, 0
     370:	4b1b      	addi.n	a4, a11, 1
     372:	0058      	l32i.n	a5, a0, 0
     374:	583f20        	excw
     377:	201100        	or	a1, a1, a0
     37a:	120000        	excw
     37d:	000020        	excw
     380:	581ab0        	excw
     383:	956800        	extui	a6, a0, 24, 10
     386:	0099      	s32i.n	a9, a0, 0
     388:	9995c4        	excw
     38b:	986c00        	excw
     38e:	0099      	s32i.n	a9, a0, 0
     390:	93fc      	bnez.n	a3, 0x3cd
     392:	0099      	s32i.n	a9, a0, 0
     394:	9994b4        	excw
     397:	9ac800        	excw
     39a:	0099      	s32i.n	a9, a0, 0
     39c:	999ce0        	excw
     39f:	9d1800        	excw
     3a2:	0099      	s32i.n	a9, a0, 0
     3a4:	9428      	l32i.n	a2, a4, 36
     3a6:	0099      	s32i.n	a9, a0, 0
     3a8:	94e8      	l32i.n	a14, a4, 36
     3aa:	0099      	s32i.n	a9, a0, 0
     3ac:	9988      	l32i.n	a8, a9, 36
     3ae:	0099      	s32i.n	a9, a0, 0
     3b0:	9999f0        	excw
     3b3:	9b6c00        	excw
     3b6:	0099      	s32i.n	a9, a0, 0
     3b8:	999c10        	excw
     3bb:	9d5000        	excw
     3be:	0099      	s32i.n	a9, a0, 0
     3c0:	9dcc      	bnez.n	a13, 0x3cd
     3c2:	0099      	s32i.n	a9, a0, 0
     3c4:	a3fc      	bnez.n	a3, 0x402
     3c6:	0099      	s32i.n	a9, a0, 0
     3c8:	99a1e0        	excw
     3cb:	4e4c00        	excw
     3ce:	0059      	s32i.n	a5, a0, 0
     3d0:	584490        	excw
     3d3:	558000        	extui	a8, a0, 16, 6
     3d6:	0059      	s32i.n	a5, a0, 0
     3d8:	1518      	l32i.n	a1, a5, 4
     3da:	c00000        	sub	a0, a0, a0
     3dd:	ff          	.byte 0xff
     3de:	3f          	.byte 0x3f
     3df:	681000        	excw
     3e2:	0058      	l32i.n	a5, a0, 0
     3e4:	fff8      	l32i.n	a15, a15, 60
     3e6:	0b0000        	excw
     3e9:	200000        	or	a0, a0, a0
     3ec:	004000        	break	0, 0
     3ef:	000000        	ill
     3f2:	000010        	excw
     3f5:	0008      	l32i.n	a0, a0, 0
     3f7:	690000        	excw
     3fa:	0058      	l32i.n	a5, a0, 0
     3fc:	589040        	excw
     3ff:	679000        	excw
     402:	0058      	l32i.n	a5, a0, 0
     404:	584b10        	excw
     407:	697800        	excw
     40a:	0058      	l32i.n	a5, a0, 0
     40c:	584990        	excw
     40f:	4a9000        	excw
     412:	0058      	l32i.n	a5, a0, 0
     414:	4c6c      	movi.n	a12, -28
     416:	0058      	l32i.n	a5, a0, 0
     418:	584b33        	excw
     41b:	4c4000        	excw
     41e:	0058      	l32i.n	a5, a0, 0
     420:	584c43        	excw
     423:	4c1000        	excw
     426:	0058      	l32i.n	a5, a0, 0
     428:	0908      	l32i.n	a0, a9, 0
     42a:	540000        	extui	a0, a0, 0, 6
     42d:	584c      	movi.n	a8, 69
     42f:	b50800        	extui	a0, a0, 24, 12
     432:	0099      	s32i.n	a9, a0, 0
     434:	852c      	movi.n	a5, 40
     436:	0058      	l32i.n	a5, a0, 0
     438:	5890c0        	excw
     43b:	8f4000        	excw
     43e:	0058      	l32i.n	a5, a0, 0
     440:	4c4c      	movi.n	a12, 68
     442:	0058      	l32i.n	a5, a0, 0
     444:	4b38      	l32i.n	a3, a11, 16
     446:	0058      	l32i.n	a5, a0, 0
     448:	584b40        	excw
     44b:	4c4d00        	excw
     44e:	0058      	l32i.n	a5, a0, 0
     450:	584a80        	excw
     453:	4c3a00        	excw
     456:	0058      	l32i.n	a5, a0, 0
     458:	584310        	excw
     45b:	6da000        	excw
     45e:	0058      	l32i.n	a5, a0, 0
     460:	594ea0        	excw
     463:	4ec000        	excw
     466:	0059      	s32i.n	a5, a0, 0
     468:	594ec4        	excw
     46b:	4eec00        	excw
     46e:	0059      	s32i.n	a5, a0, 0
     470:	00ffe7        	bbsi	a15, 30, 0x474
     473:	2e0000        	excw
     476:	990002        	l8ui	a0, a0, 153
     479:	7819      	s32i.n	a1, a8, 28
     47b:	0ccc00        	excw
     47e:	000000        	ill
     481:	800000        	add	a0, a0, a0
     484:	3fffe0        	excw
     487:	001f00        	excw
     48a:	ff8000        	excw
     48d:	ff          	.byte 0xff
     48e:	000001        	l32r	a0, 0xfffc0490
     491:	7fc000        	excw
     494:	f03333        	excw
     497:	199a00        	excw
     49a:	280000        	excw
     49d:	582a      	add.n	a5, a8, a2
     49f:	4f2000        	excw
     4a2:	0059      	s32i.n	a5, a0, 0
     4a4:	95fc      	bnez.n	a5, 0x4e1
     4a6:	0058      	l32i.n	a5, a0, 0
     4a8:	4b19      	s32i.n	a1, a11, 16
     4aa:	0058      	l32i.n	a5, a0, 0
     4ac:	584390        	excw
     4af:	09c300        	excw
     4b2:	4b0000        	excw
     4b5:	584c      	movi.n	a8, 69
     4b7:	660000        	excw
     4ba:	000002        	l8ui	a0, a0, 0
     4bd:	000700        	excw
     4c0:	f00000        	subx8	a0, a0, a0
     4c3:	700000        	excw
     4c6:	000000        	ill
     4c9:	0f          	.byte 0xf
     4ca:	000000        	ill
     4cd:	5e          	.byte 0x5e
     4ce:	800002        	l8ui	a0, a0, 128
     4d1:	005814        	excw
     4d4:	581bb0        	excw
     4d7:	a68400        	excw
     4da:	0099      	s32i.n	a9, a0, 0
     4dc:	99aa14        	excw
     4df:	ab0800        	excw
     4e2:	0099      	s32i.n	a9, a0, 0
     4e4:	99abe4        	excw
     4e7:	b97800        	excw
     4ea:	0099      	s32i.n	a9, a0, 0
     4ec:	99ba40        	excw
     4ef:	ba7800        	excw
     4f2:	0099      	s32i.n	a9, a0, 0
     4f4:	99bcb0        	excw
     4f7:	ac7c00        	excw
     4fa:	0099      	s32i.n	a9, a0, 0
     4fc:	99c170        	excw
     4ff:	adb800        	excw
     502:	0099      	s32i.n	a9, a0, 0
     504:	ae3c      	movi.n	a14, 58
     506:	0099      	s32i.n	a9, a0, 0
     508:	c96c      	movi.n	a9, -20
     50a:	0099      	s32i.n	a9, a0, 0
     50c:	bed8      	l32i.n	a13, a14, 44
     50e:	0099      	s32i.n	a9, a0, 0
     510:	99c044        	excw
     513:	c5f000        	extui	a15, a0, 16, 13
     516:	0099      	s32i.n	a9, a0, 0
     518:	bcec      	bnez.n	a12, 0x547
     51a:	0099      	s32i.n	a9, a0, 0
     51c:	aaac      	beqz.n	a10, 0x54a
     51e:	0099      	s32i.n	a9, a0, 0
     520:	99ac50        	excw
     523:	ad3800        	excw
     526:	0099      	s32i.n	a9, a0, 0
     528:	99b780        	excw
     52b:	ace000        	excw
     52e:	0099      	s32i.n	a9, a0, 0
     530:	99af14        	excw
     533:	b4d000        	extui	a13, a0, 0, 12
     536:	0099      	s32i.n	a9, a0, 0
     538:	99b7b4        	excw
     53b:	bdd000        	excw
     53e:	0099      	s32i.n	a9, a0, 0
     540:	be2c      	movi.n	a14, 43
     542:	0099      	s32i.n	a9, a0, 0
     544:	99c434        	excw
     547:	c70000        	excw
     54a:	0099      	s32i.n	a9, a0, 0
     54c:	003533        	excw
     54f:	55d400        	extui	a13, a0, 20, 6
     552:	0059      	s32i.n	a5, a0, 0
     554:	cabc      	beqz.n	a10, 0x594
     556:	0099      	s32i.n	a9, a0, 0
     558:	030a00        	excw
     55b:	55d800        	extui	a13, a0, 24, 6
     55e:	0059      	s32i.n	a5, a0, 0
     560:	b248      	l32i.n	a4, a2, 44
     562:	0058      	l32i.n	a5, a0, 0
     564:	030600        	excw
     567:	000000        	ill
     56a:	508400        	excw
     56d:	005954        	excw
     570:	5ec837        	bnall	a8, a3, 0x5d2
     573:	4f28a1        	l32r	a10, 0xfffd4214
     576:	0059      	s32i.n	a5, a0, 0
     578:	ff          	.byte 0xff
     579:	ff          	.byte 0xff
     57a:	ff          	.byte 0xff
     57b:	bf          	.byte 0xbf
     57c:	58b080        	excw
     57f:	b20000        	excw
     582:	0058      	l32i.n	a5, a0, 0
     584:	5801a0        	excw
     587:	a37400        	movltz	a7, a4, a0
     58a:	a40095        	excw
     58d:	0095a1        	l32r	a10, 0xfffc07e4
     590:	9594d4        	excw
     593:	abe400        	excw
     596:	200095        	excw
     599:	95cc      	bnez.n	a5, 0x5a6
     59b:	cb1000        	excw
     59e:	0099      	s32i.n	a9, a0, 0
     5a0:	ccf8      	l32i.n	a15, a12, 48
     5a2:	0099      	s32i.n	a9, a0, 0
     5a4:	99cbb4        	excw
     5a7:	cd2c00        	excw
     5aa:	0099      	s32i.n	a9, a0, 0
     5ac:	cc1c      	movi.n	a12, 28
     5ae:	0099      	s32i.n	a9, a0, 0
     5b0:	d058      	l32i.n	a5, a0, 52
     5b2:	0099      	s32i.n	a9, a0, 0
     5b4:	99cdd4        	excw
     5b7:	8a1800        	excw
     5ba:	0058      	l32i.n	a5, a0, 0
     5bc:	2c68      	l32i.n	a6, a12, 8
     5be:	0058      	l32i.n	a5, a0, 0
     5c0:	d0cc      	bnez.n	a0, 0x5d1
     5c2:	0099      	s32i.n	a9, a0, 0
     5c4:	55e8      	l32i.n	a14, a5, 20
     5c6:	0059      	s32i.n	a5, a0, 0
     5c8:	582de4        	excw
     5cb:	46d400        	excw
     5ce:	680095        	excw
     5d1:	0099d1        	l32r	a13, 0xfffc0838
     5d4:	d1a8      	l32i.n	a10, a1, 52
     5d6:	0099      	s32i.n	a9, a0, 0
     5d8:	001000        	excw
     5db:	d1f800        	mul16s	a15, a8, a0
     5de:	0099      	s32i.n	a9, a0, 0
     5e0:	5955f0        	excw
     5e3:	294000        	excw
     5e6:	0058      	l32i.n	a5, a0, 0
     5e8:	99d284        	excw
     5eb:	55f400        	extui	a15, a0, 20, 6
     5ee:	0059      	s32i.n	a5, a0, 0
     5f0:	99d2b0        	excw
     5f3:	2d4000        	excw
     5f6:	0058      	l32i.n	a5, a0, 0
     5f8:	594f40        	excw
     5fb:	4e4c00        	excw
     5fe:	0059      	s32i.n	a5, a0, 0
     600:	594f64        	excw
     603:	4f1c00        	excw
     606:	0059      	s32i.n	a5, a0, 0
     608:	ff          	.byte 0xff
     609:	ff          	.byte 0xff
     60a:	ff          	.byte 0xff
     60b:	7f          	.byte 0x7f
     60c:	5937c0        	excw
     60f:	084000        	excw
     612:	ff0090        	excw
     615:	cf          	.byte 0xcf
     616:	0099      	s32i.n	a9, a0, 0
     618:	ff          	.byte 0xff
     619:	ff          	.byte 0xff
     61a:	ff          	.byte 0xff
     61b:	4f6c00        	excw
     61e:	0059      	s32i.n	a5, a0, 0
     620:	99d310        	excw
     623:	55f800        	extui	a15, a0, 24, 6
     626:	0059      	s32i.n	a5, a0, 0
     628:	99d410        	excw
	...
     64f:	050700        	extui	a0, a0, 23, 1
     652:	080384        	excw
     655:	071800        	excw
     658:	038505        	call0	0x3eac
     65b:	0a0004        	excw
     65e:	410000        	srli	a0, a0, 0
     661:	455353        	excw
     664:	005452        	s16i	a5, a4, 0
     667:	6c4600        	excw
     66a:	006761        	l32r	a6, 0xfffc0808
     66d:	000000        	ill
     670:	746553        	excw
     673:	415020        	srli	a5, a2, 0
     676:	484354        	excw
     679:	5f          	.byte 0x5f
     67a:	505041        	l32r	a4, 0xfffd47bc
     67d:	594c      	movi.n	a9, 69
     67f:	5f          	.byte 0x5f
     680:	544942        	s8i	a4, a9, 84
     683:	000a21        	l32r	a2, 0xfffc06ac
     686:	560000        	excw
     689:	204353        	excw
     68c:	434820        	excw
     68f:	5f49      	s32i.n	a4, a15, 20
     691:	554642        	s8i	a4, a6, 85
     694:	5f          	.byte 0x5f
     695:	415453        	excw
     698:	0a5452        	s16i	a5, a4, 20
     69b:	434800        	excw
     69e:	5f49      	s32i.n	a4, a15, 20
     6a0:	554642        	s8i	a4, a6, 85
     6a3:	5f          	.byte 0x5f
     6a4:	444e45        	call0	0x44b8c
     6a7:	312020        	srai	a2, a2, 16
     6aa:	000a      	add.n	a0, a0, a0
     6ac:	205252        	s16i	a5, a2, 64
     6af:	0a6425        	excw
     6b2:	5f0000        	excw
     6b5:	4d5242        	s16i	a4, a2, 154
     6b8:	5f          	.byte 0x5f
     6b9:	726854        	excw
     6bc:	646165        	excw
     6bf:	5f          	.byte 0x5f
     6c0:	726150        	excw
     6c3:	3a3274        	excw
     6c6:	614320        	excw
     6c9:	696c      	movi.n	a9, -26
     6cb:	617262        	excw
     6ce:	6e6974        	excw
     6d1:	000a67        	bnone	a10, a6, 0x6d5
     6d4:	2e          	.byte 0x2e
     6d5:	000000        	ill
     6d8:	5f0a      	add.n	a5, a15, a0
     6da:	4d5242        	s16i	a4, a2, 154
     6dd:	5f          	.byte 0x5f
     6de:	726854        	excw
     6e1:	646165        	excw
     6e4:	5f          	.byte 0x5f
     6e5:	726150        	excw
     6e8:	3a3274        	excw
     6eb:	6f4420        	excw
     6ee:	6e          	.byte 0x6e
     6ef:	432065        	excw
     6f2:	696c61        	l32r	a6, 0xfffdaca4
     6f5:	617262        	excw
     6f8:	6e6974        	excw
     6fb:	000a67        	bnone	a10, a6, 0x6ff
     6fe:	0a0000        	excw
     701:	5f          	.byte 0x5f
     702:	4d5242        	s16i	a4, a2, 154
     705:	5f          	.byte 0x5f
     706:	726854        	excw
     709:	646165        	excw
     70c:	5f          	.byte 0x5f
     70d:	726150        	excw
     710:	3a3274        	excw
     713:	544220        	extui	a4, a2, 2, 6
     716:	687320        	excw
     719:	6f          	.byte 0x6f
     71a:	646c75        	excw
     71d:	657220        	extui	a7, a2, 18, 7
     720:	6c6163        	excw
     723:	6269      	s32i.n	a6, a2, 24
     725:	746172        	s32i	a7, a1, 0x1d0
     728:	612065        	excw
     72b:	696167        	bbci	a1, 6, 0x798
     72e:	6e          	.byte 0x6e
     72f:	000a      	add.n	a0, a0, a0
     731:	000000        	ill
     734:	426f57        	bbci	a15, 5, 0x77a
     737:	202054        	excw
     73a:	000a      	add.n	a0, a0, a0
     73c:	726c43        	excw
     73f:	415020        	srli	a5, a2, 0
     742:	484354        	excw
     745:	5f          	.byte 0x5f
     746:	505041        	l32r	a4, 0xfffd4888
     749:	594c      	movi.n	a9, 69
     74b:	5f          	.byte 0x5f
     74c:	544942        	s8i	a4, a9, 84
     74f:	000a21        	l32r	a2, 0xfffc0778
     752:	0a0000        	excw
     755:	2a2a      	add.n	a2, a10, a2
     757:	202a      	add.n	a2, a0, a2
     759:	207325        	excw
     75c:	2a2a      	add.n	a2, a10, a2
     75e:	202a      	add.n	a2, a0, a2
     760:	207325        	excw
     763:	505b      	addi.n	a5, a0, 5
     765:	3d2043        	excw
     768:	783020        	excw
     76b:	383025        	excw
     76e:	5d58      	l32i.n	a5, a13, 20
     770:	2a2a20        	excw
     773:	0a2a      	add.n	a0, a10, a2
     775:	000a      	add.n	a0, a0, a0
     777:	415000        	srli	a5, a0, 0
     77a:	4e          	.byte 0x4e
     77b:	4349      	s32i.n	a4, a3, 16
     77d:	000000        	ill
     780:	6c6143        	excw
     783:	206c      	movi.n	a0, -30
     785:	6e7546        	j	0x1c15e
     788:	412063        	excw
     78b:	726464        	excw
     78e:	203a      	add.n	a2, a0, a3
     790:	257830        	extui	a7, a3, 24, 3
     793:	0a78      	l32i.n	a7, a10, 0
     795:	000000        	ill
     798:	5c0000        	excw
     79b:	54c800        	extui	a12, a0, 8, 6
     79e:	0059      	s32i.n	a5, a0, 0
     7a0:	595600        	excw
	...
     c13:	ff0100        	excw
	...
     c32:	e90000        	excw
     c35:	0057c7        	bbc	a7, a12, 0xc39
     c38:	c7fb      	addi.n	a12, a7, 15
     c3a:	3c0057        	bnone	a0, a5, 0xc7a
     c3d:	4e          	.byte 0x4e
     c3e:	0059      	s32i.n	a5, a0, 0
     c40:	57c7f2        	addi	a15, a7, 87
     c43:	c80400        	excw
     c46:	430057        	bnone	a0, a5, 0xc8d
     c49:	4e          	.byte 0x4e
     c4a:	0059      	s32i.n	a5, a0, 0
     c4c:	027d      	mov.n	a7, a2
     c4e:	0058      	l32i.n	a5, a0, 0
     c50:	c829      	s32i.n	a2, a8, 48
     c52:	300057        	bnone	a0, a5, 0xc86
     c55:	57c8      	l32i.n	a12, a7, 20
	...
     c63:	c7e900        	excw
     c66:	fb0057        	bnone	a0, a5, 0xc65
     c69:	0057c7        	bbc	a7, a12, 0xc6d
     c6c:	4e3c      	movi.n	a14, 52
     c6e:	0059      	s32i.n	a5, a0, 0
     c70:	57c7f2        	addi	a15, a7, 87
     c73:	c80400        	excw
     c76:	430057        	bnone	a0, a5, 0xcbd
     c79:	4e          	.byte 0x4e
     c7a:	0059      	s32i.n	a5, a0, 0
     c7c:	580275        	excw
     c7f:	023600        	excw
     c82:	0058      	l32i.n	a5, a0, 0
     c84:	57c780        	excw
     c87:	c78700        	excw
     c8a:	8e0057        	bnone	a0, a5, 0xc1c
     c8d:	0057c7        	bbc	a7, a12, 0xc91
     c90:	3f          	.byte 0x3f
     c91:	005802        	s16i	a0, a8, 0
     c94:	57c795        	excw
     c97:	c79c00        	excw
     c9a:	480057        	bnone	a0, a5, 0xce6
     c9d:	005802        	s16i	a0, a8, 0
     ca0:	57c7a3        	excw
     ca3:	c7aa00        	excw
     ca6:	510057        	bnone	a0, a5, 0xcfb
     ca9:	005802        	s16i	a0, a8, 0
     cac:	57c7b1        	l32r	a11, 0xfffd6bc8
     caf:	c7b800        	excw
     cb2:	5a0057        	bnone	a0, a5, 0xd10
     cb5:	005802        	s16i	a0, a8, 0
     cb8:	bf          	.byte 0xbf
     cb9:	0057c7        	bbc	a7, a12, 0xcbd
     cbc:	57c7c6        	j	0x16bdf
     cbf:	026300        	excw
     cc2:	0058      	l32i.n	a5, a0, 0
     cc4:	c7cd      	excw
     cc6:	d40057        	bnone	a0, a5, 0xc9e
     cc9:	0057c7        	bbc	a7, a12, 0xccd
     ccc:	026c      	movi.n	a2, -32
     cce:	0058      	l32i.n	a5, a0, 0
     cd0:	c7db      	addi.n	a12, a7, 13
     cd2:	e20057        	bnone	a0, a5, 0xcb8
     cd5:	0057c7        	bbc	a7, a12, 0xcd9
	...
    1814:	004136        	excw
    1817:	7a06b1        	l32r	a11, 0xfffe0030
    181a:	1ba8      	l32i.n	a10, a11, 4
    181c:	0bb8      	l32i.n	a11, a11, 0
    181e:	12bba7        	bgeu	a11, a10, 0x1834
    1821:	0b9d      	mov.n	a9, a11
    1823:	c0cab0        	sub	a12, a10, a11
    1826:	0a0c      	movi.n	a10, 0
    1828:	cc3b      	addi.n	a12, a12, 3
    182a:	41c2c0        	srli	a12, a12, 2
    182d:	039c76        	excw
    1830:	09a9      	s32i.n	a10, a9, 0
    1832:	994b      	addi.n	a9, a9, 4
    1834:	7a07e1        	l32r	a14, 0xfffe0050
    1837:	7a08d1        	l32r	a13, 0xfffe0058
    183a:	186ed2        	s32i	a13, a14, 96
    183d:	06aba5        	excw
    1840:	072a25        	excw
    1843:	026465        	excw
    1846:	0172e5        	excw
    1849:	027625        	excw
    184c:	0695e5        	excw
    184f:	0330a5        	excw
    1852:	0450a5        	excw
    1855:	0703e5        	excw
    1858:	071125        	excw
    185b:	0720e5        	excw
    185e:	072525        	excw
    1861:	073f65        	excw
    1864:	073ae5        	excw
    1867:	073fa5        	excw
    186a:	073d65        	excw
    186d:	f01d      	excw
    186f:	413600        	srli	a3, a0, 6
    1872:	094100        	excw
    1875:	517a      	add.n	a5, a1, a7
    1877:	7a0a      	add.n	a7, a10, a0
    1879:	0259      	s32i.n	a5, a2, 0
    187b:	0448      	l32i.n	a4, a4, 0
    187d:	0349      	s32i.n	a4, a3, 0
    187f:	f01d      	excw
    1881:	000000        	ill
    1884:	004136        	excw
    1887:	02ad      	mov.n	a10, a2
    1889:	03bd      	mov.n	a11, a3
    188b:	7a0b81        	l32r	a8, 0xfffe00b8
    188e:	7a0c51        	l32r	a5, 0xfffe00c0
    1891:	1888      	l32i.n	a8, a8, 4
    1893:	1d2542        	l32i	a4, a5, 116
    1896:	0008e0        	excw
    1899:	7a0d91        	l32r	a9, 0xfffe00d0
    189c:	0a2d      	mov.n	a2, a10
    189e:	000992        	l8ui	a9, a9, 0
    18a1:	7a0ea1        	l32r	a10, 0xfffe00dc
    18a4:	239900        	excw
    18a7:	1779a6        	blti	a9, 7, 0x18c2
    18aa:	be1aa2        	l16ui	a10, a10, 0x17c
    18ad:	10a4b2        	movi	a11, 0x410
    18b0:	0e9ab7        	bne	a10, a11, 0x18c2
    18b3:	0204d2        	l8ui	a13, a4, 2
    18b6:	0143d2        	s8i	a13, a3, 1
    18b9:	1a25c2        	l32i	a12, a5, 104
    18bc:	0104b2        	l8ui	a11, a4, 1
    18bf:	054cb2        	s8i	a11, a12, 5
    18c2:	f01d      	excw
    18c4:	004136        	excw
    18c7:	8da082        	movi	a8, 141
    18ca:	3c9487        	bne	a4, a8, 0x190a
    18cd:	0c0c      	movi.n	a12, 0
    18cf:	d398      	l32i.n	a9, a3, 52
    18d1:	7a0f71        	l32r	a7, 0xfffe0110
    18d4:	22f927        	bbsi	a9, 18, 0x18fa
    18d7:	7a10a1        	l32r	a10, 0xfffe0118
    18da:	0003b2        	l8ui	a11, a3, 0
    18dd:	78a1d2        	movi	a13, 0x178
    18e0:	c1bbd0        	mul16u	a11, a11, a13
    18e3:	aaba      	add.n	a10, a10, a11
    18e5:	7f2aa2        	l32i	a10, a10, 0x1fc
    18e8:	0eea17        	bbsi	a10, 1, 0x18fa
    18eb:	02d782        	addmi	a8, a7, 0x200
    18ee:	aa2882        	l32i	a8, a8, 0x2a8
    18f1:	03ad      	mov.n	a10, a3
    18f3:	0008e0        	excw
    18f6:	0c0c      	movi.n	a12, 0
    18f8:	8aac      	beqz.n	a10, 0x1924
    18fa:	06c9      	s32i.n	a12, a6, 0
    18fc:	04bd      	mov.n	a11, a4
    18fe:	e12782        	l32i	a8, a7, 0x384
    1901:	0a0c      	movi.n	a10, 0
    1903:	0008e0        	excw
    1906:	0628      	l32i.n	a2, a6, 0
    1908:	f01d      	excw
    190a:	02ad      	mov.n	a10, a2
    190c:	03bd      	mov.n	a11, a3
    190e:	04cd      	mov.n	a12, a4
    1910:	05dd      	mov.n	a13, a5
    1912:	7a0b81        	l32r	a8, 0xfffe0140
    1915:	07fd      	mov.n	a15, a7
    1917:	2888      	l32i.n	a8, a8, 8
    1919:	06ed      	mov.n	a14, a6
    191b:	0008e0        	excw
    191e:	0a2d      	mov.n	a2, a10
    1920:	06a9      	s32i.n	a10, a6, 0
    1922:	f01d      	excw
    1924:	010392        	l8ui	a9, a3, 1
    1927:	fdc992        	addi	a9, a9, -3
    192a:	108956        	bnez	a9, 0x1a36
    192d:	7a1181        	l32r	a8, 0xfffe0174
    1930:	7a0c      	movi.n	a10, 7
    1932:	e02882        	l32i	a8, a8, 0x380
    1935:	03bd      	mov.n	a11, a3
    1937:	0008e0        	excw
    193a:	0f8a16        	beqz	a10, 0x1a36
    193d:	7a1181        	l32r	a8, 0xfffe0184
    1940:	df2882        	l32i	a8, a8, 0x37c
    1943:	7a0c      	movi.n	a10, 7
    1945:	0008e0        	excw
    1948:	0eaa16        	beqz	a10, 0x1a36
    194b:	030392        	l8ui	a9, a3, 3
    194e:	c5c992        	addi	a9, a9, -59
    1951:	0e1956        	bnez	a9, 0x1a36
    1954:	0215c2        	l16ui	a12, a5, 4
    1957:	7a12a1        	l32r	a10, 0xfffe01a0
    195a:	04bac7        	bgeu	a10, a12, 0x1962
    195d:	0255a2        	s16i	a10, a5, 4
    1960:	0acd      	mov.n	a12, a10
    1962:	076c07        	bbci	a12, 0, 0x196d
    1965:	cc1b      	addi.n	a12, a12, 1
    1967:	f4c0c0        	extui	a12, a12, 0, 16
    196a:	0255c2        	s16i	a12, a5, 4
    196d:	6b0c      	movi.n	a11, 6
    196f:	026cf6        	bgeui	a12, 6, 0x1975
    1972:	0255b2        	s16i	a11, a5, 4
    1975:	0315c2        	l16ui	a12, a5, 6
    1978:	05bac7        	bgeu	a10, a12, 0x1981
    197b:	0355a2        	s16i	a10, a5, 6
    197e:	7a12c1        	l32r	a12, 0xfffe01c8
    1981:	076c07        	bbci	a12, 0, 0x198c
    1984:	cc1b      	addi.n	a12, a12, 1
    1986:	f4c0c0        	extui	a12, a12, 0, 16
    1989:	0355c2        	s16i	a12, a5, 6
    198c:	046cf6        	bgeui	a12, 6, 0x1994
    198f:	0355b2        	s16i	a11, a5, 6
    1992:	6c0c      	movi.n	a12, 6
    1994:	0215d2        	l16ui	a13, a5, 4
    1997:	07bdc7        	bgeu	a13, a12, 0x19a2
    199a:	7a13a1        	l32r	a10, 0xfffe01e8
    199d:	0b0c      	movi.n	a11, 0
    199f:	b86de5        	excw
    19a2:	0415a2        	l16ui	a10, a5, 8
    19a5:	7a8c      	beqz.n	a10, 0x19b0
    19a7:	0215c2        	l16ui	a12, a5, 4
    19aa:	41e1c0        	srli	a14, a12, 1
    19ad:	0dbea7        	bgeu	a14, a10, 0x19be
    19b0:	7a13a1        	l32r	a10, 0xfffe01fc
    19b3:	0b0c      	movi.n	a11, 0
    19b5:	b86c65        	excw
    19b8:	0215c2        	l16ui	a12, a5, 4
    19bb:	0415a2        	l16ui	a10, a5, 8
    19be:	0315b2        	l16ui	a11, a5, 6
    19c1:	04bcb7        	bgeu	a12, a11, 0x19c9
    19c4:	0255b2        	s16i	a11, a5, 4
    19c7:	0bcd      	mov.n	a12, a11
    19c9:	5acc      	bnez.n	a10, 0x19d2
    19cb:	1a0c      	movi.n	a10, 1
    19cd:	1f0c      	movi.n	a15, 1
    19cf:	0455f2        	s16i	a15, a5, 8
    19d2:	41b1c0        	srli	a11, a12, 1
    19d5:	02bba7        	bgeu	a11, a10, 0x19db
    19d8:	0455b2        	s16i	a11, a5, 8
    19db:	090c      	movi.n	a9, 0
    19dd:	7a1181        	l32r	a8, 0xfffe0224
    19e0:	0315a2        	l16ui	a10, a5, 6
    19e3:	4c53c2        	s16i	a12, a3, 152
    19e6:	4b53a2        	s16i	a10, a3, 150
    19e9:	ba2882        	l32i	a8, a8, 0x2e8
    19ec:	0215a2        	l16ui	a10, a5, 4
    19ef:	0315b2        	l16ui	a11, a5, 6
    19f2:	0699      	s32i.n	a9, a6, 0
    19f4:	0008e0        	excw
    19f7:	090c      	movi.n	a9, 0
    19f9:	41c1a0        	srli	a12, a10, 1
    19fc:	7a1181        	l32r	a8, 0xfffe0240
    19ff:	2d53a2        	s16i	a10, a3, 90
    1a02:	0415b2        	l16ui	a11, a5, 8
    1a05:	bf2882        	l32i	a8, a8, 0x2fc
    1a08:	63bbc0        	excw
    1a0b:	2e53b2        	s16i	a11, a3, 92
    1a0e:	74b020        	extui	a11, a2, 0, 8
    1a11:	0515a2        	l16ui	a10, a5, 10
    1a14:	2f53a2        	s16i	a10, a3, 94
    1a17:	2c5392        	s16i	a9, a3, 88
    1a1a:	56c3a2        	addi	a10, a3, 86
    1a1d:	0008e0        	excw
    1a20:	7a14d1        	l32r	a13, 0xfffe0270
    1a23:	179ad7        	bne	a10, a13, 0x1a3e
    1a26:	04bd      	mov.n	a11, a4
    1a28:	2a1c      	movi.n	a10, 18
    1a2a:	e12782        	l32i	a8, a7, 0x384
    1a2d:	06a9      	s32i.n	a10, a6, 0
    1a2f:	0008e0        	excw
    1a32:	0628      	l32i.n	a2, a6, 0
    1a34:	f01d      	excw
    1a36:	c20c      	movi.n	a2, 12
    1a38:	c90c      	movi.n	a9, 12
    1a3a:	0699      	s32i.n	a9, a6, 0
    1a3c:	f01d      	excw
    1a3e:	7a1581        	l32r	a8, 0xfffe0294
    1a41:	472882        	l32i	a8, a8, 0x11c
    1a44:	0003a2        	l8ui	a10, a3, 0
    1a47:	0008e0        	excw
    1a4a:	7a1151        	l32r	a5, 0xfffe0290
    1a4d:	04bd      	mov.n	a11, a4
    1a4f:	5643a2        	s8i	a10, a3, 86
    1a52:	e12782        	l32i	a8, a7, 0x384
    1a55:	06a8      	l32i.n	a10, a6, 0
    1a57:	0008e0        	excw
    1a5a:	d825a2        	l32i	a10, a5, 0x360
    1a5d:	7a1641        	l32r	a4, 0xfffe02b8
    1a60:	1772e6        	bgei	a2, 7, 0x1a7b
    1a63:	000ae0        	excw
    1a66:	0003d2        	l8ui	a13, a3, 0
    1a69:	2c0c      	movi.n	a12, 2
    1a6b:	0e0c      	movi.n	a14, 0
    1a6d:	ba2b      	addi.n	a11, a10, 2
    1a6f:	212482        	l32i	a8, a4, 132
    1a72:	0ca4a2        	movi	a10, 0x40c
    1a75:	0008e0        	excw
    1a78:	000506        	j	0x1a90
    1a7b:	000ae0        	excw
    1a7e:	0003d2        	l8ui	a13, a3, 0
    1a81:	2c0c      	movi.n	a12, 2
    1a83:	1e0c      	movi.n	a14, 1
    1a85:	ba2b      	addi.n	a11, a10, 2
    1a87:	212482        	l32i	a8, a4, 132
    1a8a:	0ca4a2        	movi	a10, 0x40c
    1a8d:	0008e0        	excw
    1a90:	7a0ca1        	l32r	a10, 0xfffe02c0
    1a93:	190c      	movi.n	a9, 1
    1a95:	5b4a92        	s8i	a9, a10, 91
    1a98:	ff9a86        	j	0x1906
    1a9b:	613600        	excw
    1a9e:	04ad00        	extui	a10, a0, 13, 1
    1aa1:	05cd      	mov.n	a12, a5
    1aa3:	7a1151        	l32r	a5, 0xfffe02e8
    1aa6:	01bd      	mov.n	a11, a1
    1aa8:	f02582        	l32i	a8, a5, 0x3c0
    1aab:	11c9      	s32i.n	a12, a1, 4
    1aad:	0008e0        	excw
    1ab0:	0a6d      	mov.n	a6, a10
    1ab2:	9acc      	bnez.n	a10, 0x1abf
    1ab4:	7a13a1        	l32r	a10, 0xfffe0300
    1ab7:	0b0c      	movi.n	a11, 0
    1ab9:	b85c25        	excw
    1abc:	001b06        	j	0x1b2c
    1abf:	7a17d1        	l32r	a13, 0xfffe031c
    1ac2:	7a1571        	l32r	a7, 0xfffe0318
    1ac5:	04a4a2        	movi	a10, 0x404
    1ac8:	c0a2a0        	sub	a10, a2, a10
    1acb:	0b4a16        	beqz	a10, 0x1b83
    1ace:	05a4b2        	movi	a11, 0x405
    1ad1:	c0b2b0        	sub	a11, a2, a11
    1ad4:	0fab16        	beqz	a11, 0x1bd2
    1ad7:	06a4c2        	movi	a12, 0x406
    1ada:	3412c7        	beq	a2, a12, 0x1b12
    1add:	2c0c      	movi.n	a12, 2
    1adf:	07a4e2        	movi	a14, 0x407
    1ae2:	4a12e7        	beq	a2, a14, 0x1b30
    1ae5:	3aa482        	movi	a8, 0x43a
    1ae8:	c08280        	sub	a8, a2, a8
    1aeb:	15e816        	beqz	a8, 0x1c4d
    1aee:	21c9      	s32i.n	a12, a1, 8
    1af0:	3ba492        	movi	a9, 0x43b
    1af3:	359297        	bne	a2, a9, 0x1b2c
    1af6:	0c2d      	mov.n	a2, a12
    1af8:	aa3c      	movi.n	a10, 58
    1afa:	e02582        	l32i	a8, a5, 0x380
    1afd:	06bd      	mov.n	a11, a6
    1aff:	0008e0        	excw
    1b02:	8a8c      	beqz.n	a10, 0x1b0e
    1b04:	df2582        	l32i	a8, a5, 0x37c
    1b07:	aa3c      	movi.n	a10, 58
    1b09:	0008e0        	excw
    1b0c:	eafc      	bnez.n	a10, 0x1b4e
    1b0e:	a21c      	movi.n	a2, 26
    1b10:	f01d      	excw
    1b12:	78a192        	movi	a9, 0x178
    1b15:	c19490        	mul16u	a9, a4, a9
    1b18:	9d9a      	add.n	a9, a13, a9
    1b1a:	800992        	l8ui	a9, a9, 128
    1b1d:	b98c      	beqz.n	a9, 0x1b2c
    1b1f:	1b0c      	movi.n	a11, 1
    1b21:	1046b2        	s8i	a11, a6, 16
    1b24:	4d2782        	l32i	a8, a7, 0x134
    1b27:	04ad      	mov.n	a10, a4
    1b29:	0008e0        	excw
    1b2c:	020c      	movi.n	a2, 0
    1b2e:	f01d      	excw
    1b30:	78a192        	movi	a9, 0x178
    1b33:	c19490        	mul16u	a9, a4, a9
    1b36:	9d9a      	add.n	a9, a13, a9
    1b38:	800992        	l8ui	a9, a9, 128
    1b3b:	fed916        	beqz	a9, 0x1b2c
    1b3e:	04ad      	mov.n	a10, a4
    1b40:	1046c2        	s8i	a12, a6, 16
    1b43:	4d2782        	l32i	a8, a7, 0x134
    1b46:	0cbd      	mov.n	a11, a12
    1b48:	0008e0        	excw
    1b4b:	fff746        	j	0x1b2c
    1b4e:	7a1791        	l32r	a9, 0xfffe03ac
    1b51:	78a1a2        	movi	a10, 0x178
    1b54:	c1a4a0        	mul16u	a10, a4, a10
    1b57:	99aa      	add.n	a9, a9, a10
    1b59:	800992        	l8ui	a9, a9, 128
    1b5c:	fcc916        	beqz	a9, 0x1b2c
    1b5f:	0003a2        	l8ui	a10, a3, 0
    1b62:	54b0a0        	extui	a11, a10, 0, 6
    1b65:	c1cbb2        	addi	a11, a11, -63
    1b68:	0cbb56        	bnez	a11, 0x1c37
    1b6b:	2b0c      	movi.n	a11, 2
    1b6d:	104622        	s8i	a2, a6, 16
    1b70:	4d2782        	l32i	a8, a7, 0x134
    1b73:	04ad      	mov.n	a10, a4
    1b75:	0008e0        	excw
    1b78:	702782        	l32i	a8, a7, 0x1c0
    1b7b:	04ad      	mov.n	a10, a4
    1b7d:	0008e0        	excw
    1b80:	ffea06        	j	0x1b2c
    1b83:	df2582        	l32i	a8, a5, 0x37c
    1b86:	2a1c      	movi.n	a10, 18
    1b88:	0008e0        	excw
    1b8b:	f7fa16        	beqz	a10, 0x1b0e
    1b8e:	7a1721        	l32r	a2, 0xfffe03ec
    1b91:	78a182        	movi	a8, 0x178
    1b94:	c18480        	mul16u	a8, a4, a8
    1b97:	228a      	add.n	a2, a2, a8
    1b99:	800292        	l8ui	a9, a2, 128
    1b9c:	f8c916        	beqz	a9, 0x1b2c
    1b9f:	d698      	l32i.n	a9, a6, 52
    1ba1:	e6a8      	l32i.n	a10, a6, 56
    1ba3:	ffadb2        	movi	a11, 0xfffffdff
    1ba6:	10aab0        	and	a10, a10, a11
    1ba9:	e6a9      	s32i.n	a10, a6, 56
    1bab:	026977        	bbci	a9, 7, 0x1bb1
    1bae:	ffde86        	j	0x1b2c
    1bb1:	9a0c      	movi.n	a10, 9
    1bb3:	e02582        	l32i	a8, a5, 0x380
    1bb6:	06bd      	mov.n	a11, a6
    1bb8:	0008e0        	excw
    1bbb:	0d9a56        	bnez	a10, 0x1c98
    1bbe:	7a18a1        	l32r	a10, 0xfffe0420
    1bc1:	7f0292        	l8ui	a9, a2, 127
    1bc4:	c10aa2        	l8ui	a10, a10, 193
    1bc7:	02b9a7        	bgeu	a9, a10, 0x1bcd
    1bca:	003286        	j	0x1c98
    1bcd:	7a0c      	movi.n	a10, 7
    1bcf:	0033c6        	j	0x1ca2
    1bd2:	df2582        	l32i	a8, a5, 0x37c
    1bd5:	2a1c      	movi.n	a10, 18
    1bd7:	0008e0        	excw
    1bda:	f30a16        	beqz	a10, 0x1b0e
    1bdd:	7a1791        	l32r	a9, 0xfffe043c
    1be0:	78a1a2        	movi	a10, 0x178
    1be3:	c1a4a0        	mul16u	a10, a4, a10
    1be6:	99aa      	add.n	a9, a9, a10
    1be8:	800992        	l8ui	a9, a9, 128
    1beb:	f3d916        	beqz	a9, 0x1b2c
    1bee:	ffaed2        	movi	a13, 0xfffffeff
    1bf1:	d6b8      	l32i.n	a11, a6, 52
    1bf3:	e6c8      	l32i.n	a12, a6, 56
    1bf5:	04b7b0        	extui	a11, a11, 7, 1
    1bf8:	10ccd0        	and	a12, a12, a13
    1bfb:	e6c9      	s32i.n	a12, a6, 56
    1bfd:	f2bb56        	bnez	a11, 0x1b2c
    1c00:	04ad      	mov.n	a10, a4
    1c02:	492782        	l32i	a8, a7, 0x124
    1c05:	2b0c      	movi.n	a11, 2
    1c07:	0008e0        	excw
    1c0a:	e6f8      	l32i.n	a15, a6, 56
    1c0c:	00a222        	movi	a2, 0x200
    1c0f:	0499f0        	extui	a9, a15, 9, 1
    1c12:	f16956        	bnez	a9, 0x1b2c
    1c15:	f8cab2        	addi	a11, a10, -8
    1c18:	f10b56        	bnez	a11, 0x1b2c
    1c1b:	03bd      	mov.n	a11, a3
    1c1d:	04dd      	mov.n	a13, a4
    1c1f:	11e8      	l32i.n	a14, a1, 4
    1c21:	07a4a2        	movi	a10, 0x407
    1c24:	2c0c      	movi.n	a12, 2
    1c26:	7a1681        	l32r	a8, 0xfffe0480
    1c29:	209f20        	or	a9, a15, a2
    1c2c:	1c2882        	l32i	a8, a8, 112
    1c2f:	e699      	s32i.n	a9, a6, 56
    1c31:	0008e0        	excw
    1c34:	ffbd06        	j	0x1b2c
    1c37:	ac2c      	movi.n	a12, 42
    1c39:	10bac0        	and	a11, a10, a12
    1c3c:	069bc7        	bne	a11, a12, 0x1c46
    1c3f:	120c      	movi.n	a2, 1
    1c41:	1b0c      	movi.n	a11, 1
    1c43:	ffc986        	j	0x1b6d
    1c46:	0b0c      	movi.n	a11, 0
    1c48:	020c      	movi.n	a2, 0
    1c4a:	ffc7c6        	j	0x1b6d
    1c4d:	aa3c      	movi.n	a10, 58
    1c4f:	e02582        	l32i	a8, a5, 0x380
    1c52:	06bd      	mov.n	a11, a6
    1c54:	0008e0        	excw
    1c57:	eb3a16        	beqz	a10, 0x1b0e
    1c5a:	df2582        	l32i	a8, a5, 0x37c
    1c5d:	aa3c      	movi.n	a10, 58
    1c5f:	0008e0        	excw
    1c62:	ea8a16        	beqz	a10, 0x1b0e
    1c65:	7a1791        	l32r	a9, 0xfffe04c4
    1c68:	78a1a2        	movi	a10, 0x178
    1c6b:	c1a4a0        	mul16u	a10, a4, a10
    1c6e:	99aa      	add.n	a9, a9, a10
    1c70:	800992        	l8ui	a9, a9, 128
    1c73:	29cc      	bnez.n	a9, 0x1c79
    1c75:	422c      	movi.n	a2, 36
    1c77:	f01d      	excw
    1c79:	521c      	movi.n	a2, 21
    1c7b:	014122        	s8i	a2, a1, 1
    1c7e:	d6b8      	l32i.n	a11, a6, 52
    1c80:	64eb77        	bbsi	a11, 7, 0x1ce8
    1c83:	0003a2        	l8ui	a10, a3, 0
    1c86:	4a27d2        	l32i	a13, a7, 0x128
    1c89:	072a56        	bnez	a10, 0x1cff
    1c8c:	04ad      	mov.n	a10, a4
    1c8e:	2b0c      	movi.n	a11, 2
    1c90:	1c0c      	movi.n	a12, 1
    1c92:	000de0        	excw
    1c95:	000fc6        	j	0x1cd8
    1c98:	04ad      	mov.n	a10, a4
    1c9a:	492782        	l32i	a8, a7, 0x124
    1c9d:	1b0c      	movi.n	a11, 1
    1c9f:	0008e0        	excw
    1ca2:	e6f8      	l32i.n	a15, a6, 56
    1ca4:	00a122        	movi	a2, 0x100
    1ca7:	0498f0        	extui	a9, a15, 8, 1
    1caa:	e7e956        	bnez	a9, 0x1b2c
    1cad:	f9cab2        	addi	a11, a10, -7
    1cb0:	e78b56        	bnez	a11, 0x1b2c
    1cb3:	03bd      	mov.n	a11, a3
    1cb5:	04dd      	mov.n	a13, a4
    1cb7:	11e8      	l32i.n	a14, a1, 4
    1cb9:	06a4a2        	movi	a10, 0x406
    1cbc:	2c0c      	movi.n	a12, 2
    1cbe:	7a1681        	l32r	a8, 0xfffe0518
    1cc1:	209f20        	or	a9, a15, a2
    1cc4:	1b2882        	l32i	a8, a8, 108
    1cc7:	e699      	s32i.n	a9, a6, 56
    1cc9:	0008e0        	excw
    1ccc:	ff9706        	j	0x1b2c
    1ccf:	04ad      	mov.n	a10, a4
    1cd1:	3b0c      	movi.n	a11, 3
    1cd3:	1c0c      	movi.n	a12, 1
    1cd5:	000de0        	excw
    1cd8:	2afc      	bnez.n	a10, 0x1d0e
    1cda:	0003b2        	l8ui	a11, a3, 0
    1cdd:	aa2c      	movi.n	a10, 42
    1cdf:	fecbb2        	addi	a11, a11, -2
    1ce2:	832ab0        	moveqz	a2, a10, a11
    1ce5:	014122        	s8i	a2, a1, 1
    1ce8:	04dd      	mov.n	a13, a4
    1cea:	11e8      	l32i.n	a14, a1, 4
    1cec:	3ba4a2        	movi	a10, 0x43b
    1cef:	7a1681        	l32r	a8, 0xfffe0548
    1cf2:	b11b      	addi.n	a11, a1, 1
    1cf4:	1a2882        	l32i	a8, a8, 104
    1cf7:	2c0c      	movi.n	a12, 2
    1cf9:	0008e0        	excw
    1cfc:	ff8b06        	j	0x1b2c
    1cff:	cc1a66        	bnei	a10, 1, 0x1ccf
    1d02:	04ad      	mov.n	a10, a4
    1d04:	1b0c      	movi.n	a11, 1
    1d06:	1c0c      	movi.n	a12, 1
    1d08:	000de0        	excw
    1d0b:	fff246        	j	0x1cd8
    1d0e:	047a66        	bnei	a10, 7, 0x1d16
    1d11:	a22c      	movi.n	a2, 42
    1d13:	fff386        	j	0x1ce5
    1d16:	f8cab2        	addi	a11, a10, -8
    1d19:	010122        	l8ui	a2, a1, 1
    1d1c:	f93c      	movi.n	a9, 63
    1d1e:	8329b0        	moveqz	a2, a9, a11
    1d21:	fff006        	j	0x1ce5
    1d24:	018136        	excw
    1d27:	01ad      	mov.n	a10, a1
    1d29:	7a19b1        	l32r	a11, 0xfffe0590
    1d2c:	ac0c      	movi.n	a12, 10
    1d2e:	071365        	excw
    1d31:	10c1a2        	addi	a10, a1, 16
    1d34:	7a1ab1        	l32r	a11, 0xfffe059c
    1d37:	ac0c      	movi.n	a12, 10
    1d39:	0712a5        	excw
    1d3c:	838c      	beqz.n	a3, 0x1d48
    1d3e:	03bd      	mov.n	a11, a3
    1d40:	4cc2a2        	addi	a10, a2, 76
    1d43:	ac0c      	movi.n	a12, 10
    1d45:	0711e5        	excw
    1d48:	940c      	movi.n	a4, 9
    1d4a:	320c      	movi.n	a2, 3
    1d4c:	130c      	movi.n	a3, 1
    1d4e:	7a1c81        	l32r	a8, 0xfffe05c0
    1d51:	050c      	movi.n	a5, 0
    1d53:	2d1882        	l16ui	a8, a8, 90
    1d56:	7a1b71        	l32r	a7, 0xfffe05c4
    1d59:	048780        	extui	a8, a8, 7, 1
    1d5c:	1c3816        	beqz	a8, 0x1f23
    1d5f:	056d      	mov.n	a6, a5
    1d61:	0d0c      	movi.n	a13, 0
    1d63:	0b0c      	movi.n	a11, 0
    1d65:	0a0c      	movi.n	a10, 0
    1d67:	480c      	movi.n	a8, 4
    1d69:	7a1de1        	l32r	a14, 0xfffe05e0
    1d6c:	20c1f2        	addi	a15, a1, 32
    1d6f:	017d      	mov.n	a7, a1
    1d71:	7d7a      	add.n	a7, a13, a7
    1d73:	fdfa      	add.n	a15, a13, a15
    1d75:	004f52        	s8i	a5, a15, 0
    1d78:	edea      	add.n	a14, a13, a14
    1d7a:	800ee2        	l8ui	a14, a14, 128
    1d7d:	30a876        	excw
    1d80:	401a00        	ssl	a10
    1d83:	a1c200        	sll	a12, a2
    1d86:	108ce0        	and	a8, a12, a14
    1d89:	349c87        	bne	a12, a8, 0x1dc1
    1d8c:	000782        	l8ui	a8, a7, 0
    1d8f:	401a00        	ssl	a10
    1d92:	a19300        	sll	a9, a3
    1d95:	029d47        	bne	a13, a4, 0x1d9b
    1d98:	046a26        	beqi	a10, 6, 0x1da0
    1d9b:	662b      	addi.n	a6, a6, 2
    1d9d:	746060        	extui	a6, a6, 0, 8
    1da0:	2088c0        	or	a8, a8, a12
    1da3:	004782        	s8i	a8, a7, 0
    1da6:	aa2b      	addi.n	a10, a10, 2
    1da8:	20bb90        	or	a11, a11, a9
    1dab:	004fb2        	s8i	a11, a15, 0
    1dae:	74a0a0        	extui	a10, a10, 0, 8
    1db1:	dd1b      	addi.n	a13, a13, 1
    1db3:	74d0d0        	extui	a13, a13, 0, 8
    1db6:	a99d66        	bnei	a13, 10, 0x1d63
    1db9:	3e1c      	movi.n	a14, 19
    1dbb:	1a3e67        	bltu	a14, a6, 0x1dd9
    1dbe:	000106        	j	0x1dc6
    1dc1:	0c9d      	mov.n	a9, a12
    1dc3:	fff7c6        	j	0x1da6
    1dc6:	01ad      	mov.n	a10, a1
    1dc8:	fb7c      	movi.n	a11, -1
    1dca:	ac0c      	movi.n	a12, 10
    1dcc:	071b65        	excw
    1dcf:	20c1a2        	addi	a10, a1, 32
    1dd2:	5b5c      	movi.n	a11, 85
    1dd4:	ac0c      	movi.n	a12, 10
    1dd6:	071ae5        	excw
    1dd9:	3ec1a2        	addi	a10, a1, 62
    1ddc:	7a1e71        	l32r	a7, 0xfffe0654
    1ddf:	ac0c      	movi.n	a12, 10
    1de1:	07bd      	mov.n	a11, a7
    1de3:	070825        	excw
    1de6:	7a1151        	l32r	a5, 0xfffe062c
    1de9:	7a1b31        	l32r	a3, 0xfffe0658
    1dec:	10c1a2        	addi	a10, a1, 16
    1def:	7a1f41        	l32r	a4, 0xfffe066c
    1df2:	ac0c      	movi.n	a12, 10
    1df4:	04bd      	mov.n	a11, a4
    1df6:	0706e5        	excw
    1df9:	04ad      	mov.n	a10, a4
    1dfb:	e42582        	l32i	a8, a5, 0x390
    1dfe:	01bd      	mov.n	a11, a1
    1e00:	0008e0        	excw
    1e03:	20c1b2        	addi	a11, a1, 32
    1e06:	0a2d      	mov.n	a2, a10
    1e08:	e52582        	l32i	a8, a5, 0x394
    1e0b:	07ad      	mov.n	a10, a7
    1e0d:	0008e0        	excw
    1e10:	6acc      	bnez.n	a10, 0x1e1a
    1e12:	7a2091        	l32r	a9, 0xfffe0694
    1e15:	000992        	l8ui	a9, a9, 0
    1e18:	699c      	beqz.n	a9, 0x1e32
    1e1a:	07ad      	mov.n	a10, a7
    1e1c:	20c1b2        	addi	a11, a1, 32
    1e1f:	ac0c      	movi.n	a12, 10
    1e21:	070425        	excw
    1e24:	7a21b1        	l32r	a11, 0xfffe06a8
    1e27:	5a23a2        	l32i	a10, a3, 0x168
    1e2a:	4c0c      	movi.n	a12, 4
    1e2c:	20aac0        	or	a10, a10, a12
    1e2f:	1a6ba2        	s32i	a10, a11, 104
    1e32:	04ad      	mov.n	a10, a4
    1e34:	01bd      	mov.n	a11, a1
    1e36:	ac0c      	movi.n	a12, 10
    1e38:	0702a5        	excw
    1e3b:	236122        	s32i	a2, a1, 140
    1e3e:	9203d2        	l8ui	a13, a3, 146
    1e41:	7a22e1        	l32r	a14, 0xfffe06cc
    1e44:	64d0d0        	extui	a13, a13, 0, 7
    1e47:	124ed2        	s8i	a13, a14, 18
    1e4a:	0b8216        	beqz	a2, 0x1f06
    1e4d:	0a0c      	movi.n	a10, 0
    1e4f:	7a2331        	l32r	a3, 0xfffe06dc
    1e52:	ffa062        	movi	a6, 255
    1e55:	c8a0b2        	movi	a11, 200
    1e58:	c1bab0        	mul16u	a11, a10, a11
    1e5b:	b3ba      	add.n	a11, a3, a11
    1e5d:	7c0be2        	l8ui	a14, a11, 124
    1e60:	0a1e67        	beq	a14, a6, 0x1e6e
    1e63:	2d2bc2        	l32i	a12, a11, 180
    1e66:	046c07        	bbci	a12, 0, 0x1e6e
    1e69:	1a0c      	movi.n	a10, 1
    1e6b:	000246        	j	0x1e78
    1e6e:	aa1b      	addi.n	a10, a10, 1
    1e70:	74a0a0        	extui	a10, a10, 0, 8
    1e73:	de7ab6        	bltui	a10, 7, 0x1e55
    1e76:	0a0c      	movi.n	a10, 0
    1e78:	7a18c1        	l32r	a12, 0xfffe06d8
    1e7b:	7a24d1        	l32r	a13, 0xfffe070c
    1e7e:	1ce8      	l32i.n	a14, a12, 4
    1e80:	02dcc2        	addmi	a12, a12, 0x200
    1e83:	8b2cc2        	l32i	a12, a12, 0x22c
    1e86:	ee4b      	addi.n	a14, a14, 4
    1e88:	10eed0        	and	a14, a14, a13
    1e8b:	c0cce0        	sub	a12, a12, a14
    1e8e:	10bcd0        	and	a11, a12, a13
    1e91:	050cd7        	bnone	a12, a13, 0x1e9a
    1e94:	7a25d1        	l32r	a13, 0xfffe0728
    1e97:	04bdb7        	bgeu	a13, a11, 0x1e9f
    1e9a:	190c      	movi.n	a9, 1
    1e9c:	000046        	j	0x1ea1
    1e9f:	090c      	movi.n	a9, 0
    1ea1:	066916        	beqz	a9, 0x1f0b
    1ea4:	236122        	s32i	a2, a1, 140
    1ea7:	060a56        	bnez	a10, 0x1f0b
    1eaa:	7a2771        	l32r	a7, 0xfffe0748
    1ead:	7a2841        	l32r	a4, 0xfffe0750
    1eb0:	020c      	movi.n	a2, 0
    1eb2:	7a2691        	l32r	a9, 0xfffe074c
    1eb5:	146192        	s32i	a9, a1, 80
    1eb8:	7c03a2        	l8ui	a10, a3, 124
    1ebb:	3d1a67        	beq	a10, a6, 0x1efc
    1ebe:	c2cc      	bnez.n	a2, 0x1ece
    1ec0:	e72582        	l32i	a8, a5, 0x39c
    1ec3:	0008e0        	excw
    1ec6:	7a2991        	l32r	a9, 0xfffe076c
    1ec9:	120c      	movi.n	a2, 1
    1ecb:	6169a2        	s32i	a10, a9, 0x184
    1ece:	df2582        	l32i	a8, a5, 0x37c
    1ed1:	ba2c      	movi.n	a10, 43
    1ed3:	0008e0        	excw
    1ed6:	221a66        	bnei	a10, 1, 0x1efc
    1ed9:	3a2c      	movi.n	a10, 35
    1edb:	e02582        	l32i	a8, a5, 0x380
    1ede:	04bd      	mov.n	a11, a4
    1ee0:	0008e0        	excw
    1ee3:	151a66        	bnei	a10, 1, 0x1efc
    1ee6:	21a4a2        	movi	a10, 0x421
    1ee9:	1421b2        	l32i	a11, a1, 80
    1eec:	2c0c      	movi.n	a12, 2
    1eee:	7a1681        	l32r	a8, 0xfffe0748
    1ef1:	7c03d2        	l8ui	a13, a3, 124
    1ef4:	362882        	l32i	a8, a8, 216
    1ef7:	3e0c      	movi.n	a14, 3
    1ef9:	0008e0        	excw
    1efc:	c8a092        	movi	a9, 200
    1eff:	449a      	add.n	a4, a4, a9
    1f01:	339a      	add.n	a3, a3, a9
    1f03:	b19377        	bne	a3, a7, 0x1eb8
    1f06:	232122        	l32i	a2, a1, 140
    1f09:	f01d      	excw
    1f0b:	07ad      	mov.n	a10, a7
    1f0d:	3ec1b2        	addi	a11, a1, 62
    1f10:	ac0c      	movi.n	a12, 10
    1f12:	06f525        	excw
    1f15:	04ad      	mov.n	a10, a4
    1f17:	10c1b2        	addi	a11, a1, 16
    1f1a:	ac0c      	movi.n	a12, 10
    1f1c:	06f465        	excw
    1f1f:	020c      	movi.n	a2, 0
    1f21:	f01d      	excw
    1f23:	7a1181        	l32r	a8, 0xfffe0768
    1f26:	2ac1a2        	addi	a10, a1, 42
    1f29:	e62882        	l32i	a8, a8, 0x398
    1f2c:	03bd      	mov.n	a11, a3
    1f2e:	0008e0        	excw
    1f31:	34c1a2        	addi	a10, a1, 52
    1f34:	5b5c      	movi.n	a11, 85
    1f36:	ac0c      	movi.n	a12, 10
    1f38:	0704a5        	excw
    1f3b:	5a2792        	l32i	a9, a7, 0x168
    1f3e:	08e917        	bbsi	a9, 1, 0x1f4a
    1f41:	7a2aa1        	l32r	a10, 0xfffe07ec
    1f44:	1961a2        	s32i	a10, a1, 100
    1f47:	000146        	j	0x1f50
    1f4a:	34c1b2        	addi	a11, a1, 52
    1f4d:	1961b2        	s32i	a11, a1, 100
    1f50:	060c      	movi.n	a6, 0
    1f52:	20c1f2        	addi	a15, a1, 32
    1f55:	2ac172        	addi	a7, a1, 42
    1f58:	ac0c      	movi.n	a12, 10
    1f5a:	01dd      	mov.n	a13, a1
    1f5c:	2ac1e2        	addi	a14, a1, 42
    1f5f:	7a1d81        	l32r	a8, 0xfffe07d4
    1f62:	1d6182        	s32i	a8, a1, 116
    1f65:	1c61e2        	s32i	a14, a1, 112
    1f68:	1f61d2        	s32i	a13, a1, 124
    1f6b:	1a61c2        	s32i	a12, a1, 104
    1f6e:	156172        	s32i	a7, a1, 84
    1f71:	070c      	movi.n	a7, 0
    1f73:	004f52        	s8i	a5, a15, 0
    1f76:	0e0c      	movi.n	a14, 0
    1f78:	0a0c      	movi.n	a10, 0
    1f7a:	490c      	movi.n	a9, 4
    1f7c:	1c21d2        	l32i	a13, a1, 112
    1f7f:	1d21b2        	l32i	a11, a1, 116
    1f82:	1921c2        	l32i	a12, a1, 100
    1f85:	800bb2        	l8ui	a11, a11, 128
    1f88:	c6ca      	add.n	a12, a6, a12
    1f8a:	000dd2        	l8ui	a13, a13, 0
    1f8d:	2061d2        	s32i	a13, a1, 128
    1f90:	1b61c2        	s32i	a12, a1, 108
    1f93:	1e61b2        	s32i	a11, a1, 120
    1f96:	64a976        	excw
    1f99:	0c0c      	movi.n	a12, 0
    1f9b:	0d0c      	movi.n	a13, 0
    1f9d:	1e2182        	l32i	a8, a1, 120
    1fa0:	401a00        	ssl	a10
    1fa3:	a1b200        	sll	a11, a2
    1fa6:	108b80        	and	a8, a11, a8
    1fa9:	109b87        	bne	a11, a8, 0x1fbd
    1fac:	1b2192        	l32i	a9, a1, 108
    1faf:	000992        	l8ui	a9, a9, 0
    1fb2:	a18300        	sll	a8, a3
    1fb5:	109b90        	and	a9, a11, a9
    1fb8:	019987        	bne	a9, a8, 0x1fbd
    1fbb:	1d0c      	movi.n	a13, 1
    1fbd:	5d9c      	beqz.n	a13, 0x1fd6
    1fbf:	401a00        	ssl	a10
    1fc2:	2021d2        	l32i	a13, a1, 128
    1fc5:	a18300        	sll	a8, a3
    1fc8:	10dbd0        	and	a13, a11, a13
    1fcb:	051d87        	beq	a13, a8, 0x1fd4
    1fce:	202182        	l32i	a8, a1, 128
    1fd1:	018b87        	bany	a11, a8, 0x1fd6
    1fd4:	1c0c      	movi.n	a12, 1
    1fd6:	056c16        	beqz	a12, 0x2030
    1fd9:	1f21c2        	l32i	a12, a1, 124
    1fdc:	401a00        	ssl	a10
    1fdf:	000c82        	l8ui	a8, a12, 0
    1fe2:	a19300        	sll	a9, a3
    1fe5:	2088b0        	or	a8, a8, a11
    1fe8:	029647        	bne	a6, a4, 0x1fee
    1feb:	046a26        	beqi	a10, 6, 0x1ff3
    1fee:	772b      	addi.n	a7, a7, 2
    1ff0:	747070        	extui	a7, a7, 0, 8
    1ff3:	004c82        	s8i	a8, a12, 0
    1ff6:	aa2b      	addi.n	a10, a10, 2
    1ff8:	20ee90        	or	a14, a14, a9
    1ffb:	004fe2        	s8i	a14, a15, 0
    1ffe:	661b      	addi.n	a6, a6, 1
    2000:	ff1b      	addi.n	a15, a15, 1
    2002:	1f21c2        	l32i	a12, a1, 124
    2005:	1d21b2        	l32i	a11, a1, 116
    2008:	1a2192        	l32i	a9, a1, 104
    200b:	1c21a2        	l32i	a10, a1, 112
    200e:	990b      	addi.n	a9, a9, -1
    2010:	aa1b      	addi.n	a10, a10, 1
    2012:	bb1b      	addi.n	a11, a11, 1
    2014:	cc1b      	addi.n	a12, a12, 1
    2016:	1f61c2        	s32i	a12, a1, 124
    2019:	1d61b2        	s32i	a11, a1, 116
    201c:	1c61a2        	s32i	a10, a1, 112
    201f:	1a6192        	s32i	a9, a1, 104
    2022:	f4d956        	bnez	a9, 0x1f73
    2025:	3d1c      	movi.n	a13, 19
    2027:	02bd77        	bgeu	a13, a7, 0x202d
    202a:	ff6ac6        	j	0x1dd9
    202d:	000106        	j	0x2035
    2030:	0b9d      	mov.n	a9, a11
    2032:	fff006        	j	0x1ff6
    2035:	060c      	movi.n	a6, 0
    2037:	01ad      	mov.n	a10, a1
    2039:	0b0c      	movi.n	a11, 0
    203b:	ac0c      	movi.n	a12, 10
    203d:	06f465        	excw
    2040:	0d0c      	movi.n	a13, 0
    2042:	20c1c2        	addi	a12, a1, 32
    2045:	017d      	mov.n	a7, a1
    2047:	7a1de1        	l32r	a14, 0xfffe08bc
    204a:	1861e2        	s32i	a14, a1, 96
    204d:	004c52        	s8i	a5, a12, 0
    2050:	0f0c      	movi.n	a15, 0
    2052:	0a0c      	movi.n	a10, 0
    2054:	480c      	movi.n	a8, 4
    2056:	182192        	l32i	a9, a1, 96
    2059:	1921b2        	l32i	a11, a1, 100
    205c:	800992        	l8ui	a9, a9, 128
    205f:	bdba      	add.n	a11, a13, a11
    2061:	1361b2        	s32i	a11, a1, 76
    2064:	166192        	s32i	a9, a1, 88
    2067:	4ba876        	excw
    206a:	0e0c      	movi.n	a14, 0
    206c:	162182        	l32i	a8, a1, 88
    206f:	401a00        	ssl	a10
    2072:	a1b200        	sll	a11, a2
    2075:	1761b2        	s32i	a11, a1, 92
    2078:	108b80        	and	a8, a11, a8
    207b:	109b87        	bne	a11, a8, 0x208f
    207e:	132192        	l32i	a9, a1, 76
    2081:	000992        	l8ui	a9, a9, 0
    2084:	a18300        	sll	a8, a3
    2087:	109b90        	and	a9, a11, a9
    208a:	019987        	bne	a9, a8, 0x208f
    208d:	1e0c      	movi.n	a14, 1
    208f:	be9c      	beqz.n	a14, 0x20ae
    2091:	172192        	l32i	a9, a1, 92
    2094:	000782        	l8ui	a8, a7, 0
    2097:	401a00        	ssl	a10
    209a:	a1b300        	sll	a11, a3
    209d:	208890        	or	a8, a8, a9
    20a0:	029d47        	bne	a13, a4, 0x20a6
    20a3:	046a26        	beqi	a10, 6, 0x20ab
    20a6:	662b      	addi.n	a6, a6, 2
    20a8:	746060        	extui	a6, a6, 0, 8
    20ab:	004782        	s8i	a8, a7, 0
    20ae:	aa2b      	addi.n	a10, a10, 2
    20b0:	20ffb0        	or	a15, a15, a11
    20b3:	004cf2        	s8i	a15, a12, 0
    20b6:	dd1b      	addi.n	a13, a13, 1
    20b8:	771b      	addi.n	a7, a7, 1
    20ba:	1521a2        	l32i	a10, a1, 84
    20bd:	1821b2        	l32i	a11, a1, 96
    20c0:	cc1b      	addi.n	a12, a12, 1
    20c2:	bb1b      	addi.n	a11, a11, 1
    20c4:	1861b2        	s32i	a11, a1, 96
    20c7:	829ca7        	bne	a12, a10, 0x204d
    20ca:	0b0c      	movi.n	a11, 0
    20cc:	0d0c      	movi.n	a13, 0
    20ce:	3e1c      	movi.n	a14, 19
    20d0:	02be67        	bgeu	a14, a6, 0x20d6
    20d3:	ff4086        	j	0x1dd9
    20d6:	226162        	s32i	a6, a1, 136
    20d9:	3f1c      	movi.n	a15, 19
    20db:	02bfd7        	bgeu	a15, a13, 0x20e1
    20de:	005246        	j	0x222b
    20e1:	0c0c      	movi.n	a12, 0
    20e3:	dd1b      	addi.n	a13, a13, 1
    20e5:	74d0d0        	extui	a13, a13, 0, 8
    20e8:	0a0c      	movi.n	a10, 0
    20ea:	11fcd0        	slli	a15, a12, 3
    20ed:	20c172        	addi	a7, a1, 32
    20f0:	7c7a      	add.n	a7, a12, a7
    20f2:	000782        	l8ui	a8, a7, 0
    20f5:	401a00        	ssl	a10
    20f8:	a19300        	sll	a9, a3
    20fb:	a1e200        	sll	a14, a2
    20fe:	1088e0        	and	a8, a8, a14
    2101:	0a9897        	bne	a8, a9, 0x210f
    2104:	10ab56        	bnez	a11, 0x2212
    2107:	bfaa      	add.n	a11, a15, a10
    2109:	74b0b0        	extui	a11, a11, 0, 8
    210c:	004086        	j	0x2212
    210f:	0ffb16        	beqz	a11, 0x2212
    2112:	9faa      	add.n	a9, a15, a10
    2114:	fec992        	addi	a9, a9, -2
    2117:	74e090        	extui	a14, a9, 0, 8
    211a:	c08eb0        	sub	a8, a14, a11
    211d:	0298e6        	bgei	a8, 10, 0x2123
    2120:	003b06        	j	0x2210
    2123:	126192        	s32i	a9, a1, 72
    2126:	216172        	s32i	a7, a1, 132
    2129:	742bb6        	bltui	a11, 2, 0x21a1
    212c:	7493b0        	extui	a9, a11, 3, 8
    212f:	24b0b0        	extui	a11, a11, 0, 3
    2132:	bbec      	bnez.n	a11, 0x2161
    2134:	246122        	s32i	a2, a1, 144
    2137:	a0c122        	addi	a2, a1, -96
    213a:	292a      	add.n	a2, a9, a2
    213c:	7f02b2        	l8ui	a11, a2, 127
    213f:	084c      	movi.n	a8, 64
    2141:	54b0b0        	extui	a11, a11, 0, 6
    2144:	20bb80        	or	a11, a11, a8
    2147:	7f42b2        	s8i	a11, a2, 127
    214a:	80c182        	addi	a8, a1, -128
    214d:	898a      	add.n	a8, a9, a8
    214f:	7f0822        	l8ui	a2, a8, 127
    2152:	c0a0b2        	movi	a11, 192
    2155:	2022b0        	or	a2, a2, a11
    2158:	7f4822        	s8i	a2, a8, 127
    215b:	242122        	l32i	a2, a1, 144
    215e:	000d06        	j	0x2196
    2161:	20c182        	addi	a8, a1, 32
    2164:	fecb32        	addi	a3, a11, -2
    2167:	401300        	ssl	a3
    216a:	898a      	add.n	a8, a9, a8
    216c:	a1b200        	sll	a11, a2
    216f:	f27c      	movi.n	a2, -1
    2171:	000832        	l8ui	a3, a8, 0
    2174:	302b20        	xor	a2, a11, a2
    2177:	103320        	and	a3, a3, a2
    217a:	120c      	movi.n	a2, 1
    217c:	a12200        	sll	a2, a2
    217f:	203320        	or	a3, a3, a2
    2182:	012d      	mov.n	a2, a1
    2184:	004832        	s8i	a3, a8, 0
    2187:	292a      	add.n	a2, a9, a2
    2189:	000232        	l8ui	a3, a2, 0
    218c:	20bb30        	or	a11, a11, a3
    218f:	130c      	movi.n	a3, 1
    2191:	0042b2        	s8i	a11, a2, 0
    2194:	320c      	movi.n	a2, 3
    2196:	029c47        	bne	a12, a4, 0x219c
    2199:	046a26        	beqi	a10, 6, 0x21a1
    219c:	662b      	addi.n	a6, a6, 2
    219e:	746060        	extui	a6, a6, 0, 8
    21a1:	d84c      	movi.n	a8, 77
    21a3:	6138e7        	bltu	a8, a14, 0x2208
    21a6:	790c      	movi.n	a9, 7
    21a8:	20c172        	addi	a7, a1, 32
    21ab:	74b3e0        	extui	a11, a14, 3, 8
    21ae:	018d      	mov.n	a8, a1
    21b0:	7b7a      	add.n	a7, a11, a7
    21b2:	bb8a      	add.n	a11, a11, a8
    21b4:	2d09e7        	bnone	a9, a14, 0x21e5
    21b7:	122182        	l32i	a8, a1, 72
    21ba:	fe7c      	movi.n	a14, -1
    21bc:	248080        	extui	a8, a8, 0, 3
    21bf:	882b      	addi.n	a8, a8, 2
    21c1:	401800        	ssl	a8
    21c4:	a19200        	sll	a9, a2
    21c7:	000782        	l8ui	a8, a7, 0
    21ca:	30e9e0        	xor	a14, a9, a14
    21cd:	1088e0        	and	a8, a8, a14
    21d0:	a1e300        	sll	a14, a3
    21d3:	2088e0        	or	a8, a8, a14
    21d6:	000be2        	l8ui	a14, a11, 0
    21d9:	004782        	s8i	a8, a7, 0
    21dc:	2099e0        	or	a9, a9, a14
    21df:	004b92        	s8i	a9, a11, 0
    21e2:	000506        	j	0x21fa
    21e5:	010792        	l8ui	a9, a7, 1
    21e8:	010be2        	l8ui	a14, a11, 1
    21eb:	149090        	extui	a9, a9, 0, 2
    21ee:	20ee20        	or	a14, a14, a2
    21f1:	014be2        	s8i	a14, a11, 1
    21f4:	209930        	or	a9, a9, a3
    21f7:	014792        	s8i	a9, a7, 1
    21fa:	212172        	l32i	a7, a1, 132
    21fd:	029c47        	bne	a12, a4, 0x2203
    2200:	046a26        	beqi	a10, 6, 0x2208
    2203:	662b      	addi.n	a6, a6, 2
    2205:	746060        	extui	a6, a6, 0, 8
    2208:	381c      	movi.n	a8, 19
    220a:	02b867        	bgeu	a8, a6, 0x2210
    220d:	fef206        	j	0x1dd9
    2210:	0b0c      	movi.n	a11, 0
    2212:	aa2b      	addi.n	a10, a10, 2
    2214:	74a0a0        	extui	a10, a10, 0, 8
    2217:	027af6        	bgeui	a10, 7, 0x221d
    221a:	ffb506        	j	0x20f2
    221d:	cc1b      	addi.n	a12, a12, 1
    221f:	74c0c0        	extui	a12, a12, 0, 8
    2222:	029cf6        	bgeui	a12, 10, 0x2228
    2225:	ffafc6        	j	0x20e8
    2228:	ffa886        	j	0x20ce
    222b:	3d1c      	movi.n	a13, 19
    222d:	02bd67        	bgeu	a13, a6, 0x2233
    2230:	fee946        	j	0x1dd9
    2233:	01ad      	mov.n	a10, a1
    2235:	0b0c      	movi.n	a11, 0
    2237:	ac0c      	movi.n	a12, 10
    2239:	06d4a5        	excw
    223c:	7a1dd1        	l32r	a13, 0xfffe0ab0
    223f:	20c1b2        	addi	a11, a1, 32
    2242:	01cd      	mov.n	a12, a1
    2244:	004b52        	s8i	a5, a11, 0
    2247:	0e0c      	movi.n	a14, 0
    2249:	0a0c      	movi.n	a10, 0
    224b:	800d42        	l8ui	a4, a13, 128
    224e:	04a0f2        	movi	a15, 4
    2251:	1faf76        	excw
    2254:	401a00        	ssl	a10
    2257:	a1f200        	sll	a15, a2
    225a:	108f40        	and	a8, a15, a4
    225d:	229f87        	bne	a15, a8, 0x2283
    2260:	000c82        	l8ui	a8, a12, 0
    2263:	a19300        	sll	a9, a3
    2266:	2088f0        	or	a8, a8, a15
    2269:	004c82        	s8i	a8, a12, 0
    226c:	aa2b      	addi.n	a10, a10, 2
    226e:	20ee90        	or	a14, a14, a9
    2271:	004be2        	s8i	a14, a11, 0
    2274:	cc1b      	addi.n	a12, a12, 1
    2276:	dd1b      	addi.n	a13, a13, 1
    2278:	152192        	l32i	a9, a1, 84
    227b:	bb1b      	addi.n	a11, a11, 1
    227d:	c39b97        	bne	a11, a9, 0x2244
    2280:	fed546        	j	0x1dd9
    2283:	0f9d      	mov.n	a9, a15
    2285:	fff8c6        	j	0x226c
    2288:	004136        	excw
    228b:	7a0f81        	l32r	a8, 0xfffe0ac8
    228e:	6d2882        	l32i	a8, a8, 0x1b4
    2291:	0008e0        	excw
    2294:	231a26        	beqi	a10, 1, 0x22bb
    2297:	7a2ba1        	l32r	a10, 0xfffe0b44
    229a:	520c      	movi.n	a2, 5
    229c:	1093a0        	and	a9, a3, a10
    229f:	0499a7        	bne	a9, a10, 0x22a7
    22a2:	14be30        	extui	a11, a3, 14, 2
    22a5:	0b8c      	beqz.n	a11, 0x22a9
    22a7:	f01d      	excw
    22a9:	00a3d2        	movi	a13, 0x300
    22ac:	10c3d0        	and	a12, a3, a13
    22af:	049cd7        	bne	a12, a13, 0x22b7
    22b2:	14ea30        	extui	a14, a3, 10, 2
    22b5:	2e8c      	beqz.n	a14, 0x22bb
    22b7:	320c      	movi.n	a2, 3
    22b9:	f01d      	excw
    22bb:	120c      	movi.n	a2, 1
    22bd:	f01d      	excw
    22bf:	413600        	srli	a3, a0, 6
    22c2:	a08200        	addx4	a8, a2, a0
    22c5:	876c      	movi.n	a7, -24
    22c7:	1b2992        	l32i	a9, a9, 108
    22ca:	040c53        	excw
    22cd:	7a1b71        	l32r	a7, 0xfffe0b3c
    22d0:	38a362        	movi	a6, 0x338
    22d3:	05bd      	mov.n	a11, a5
    22d5:	c8a0a2        	movi	a10, 200
    22d8:	c1a4a0        	mul16u	a10, a4, a10
    22db:	6c0c      	movi.n	a12, 6
    22dd:	a7aa      	add.n	a10, a7, a10
    22df:	aa6a      	add.n	a10, a10, a6
    22e1:	06afa5        	excw
    22e4:	3acc      	bnez.n	a10, 0x22eb
    22e6:	232400        	excw
    22e9:	f01d      	excw
    22eb:	441b      	addi.n	a4, a4, 1
    22ed:	744040        	extui	a4, a4, 0, 8
    22f0:	df9466        	bnei	a4, 10, 0x22d3
    22f3:	7a0b81        	l32r	a8, 0xfffe0b20
    22f6:	02ad      	mov.n	a10, a2
    22f8:	3888      	l32i.n	a8, a8, 12
    22fa:	03bd      	mov.n	a11, a3
    22fc:	0008e0        	excw
    22ff:	0a2d      	mov.n	a2, a10
    2301:	f01d      	excw
    2303:	a13600        	sll	a3, a6
    2306:	07cd00        	excw
    2309:	1d0c      	movi.n	a13, 1
    230b:	06ed      	mov.n	a14, a6
    230d:	0e5152        	s16i	a5, a1, 28
    2310:	7a0f61        	l32r	a6, 0xfffe0b4c
    2313:	11e9      	s32i.n	a14, a1, 4
    2315:	0173b6        	bltui	a3, 7, 0x231a
    2318:	0d0c      	movi.n	a13, 0
    231a:	02ad      	mov.n	a10, a2
    231c:	03bd      	mov.n	a11, a3
    231e:	030482        	l8ui	a8, a4, 3
    2321:	0204f2        	l8ui	a15, a4, 2
    2324:	018880        	slli	a8, a8, 24
    2327:	11ff00        	slli	a15, a15, 16
    232a:	ff8a      	add.n	a15, a15, a8
    232c:	010482        	l8ui	a8, a4, 1
    232f:	0004e2        	l8ui	a14, a4, 0
    2332:	118880        	slli	a8, a8, 8
    2335:	ee8a      	add.n	a14, a14, a8
    2337:	482682        	l32i	a8, a6, 0x120
    233a:	eefa      	add.n	a14, a14, a15
    233c:	0008e0        	excw
    233f:	0a7d      	mov.n	a7, a10
    2341:	7a1651        	l32r	a5, 0xfffe0b9c
    2344:	0bda56        	bnez	a10, 0x2405
    2347:	5a0c      	movi.n	a10, 5
    2349:	fcd582        	addmi	a8, a5, 0xfffffc00
    234c:	e02882        	l32i	a8, a8, 0x380
    234f:	02bd      	mov.n	a11, a2
    2351:	0008e0        	excw
    2354:	0ada16        	beqz	a10, 0x2405
    2357:	7a1181        	l32r	a8, 0xfffe0b9c
    235a:	df2882        	l32i	a8, a8, 0x37c
    235d:	5a0c      	movi.n	a10, 5
    235f:	0008e0        	excw
    2362:	09fa16        	beqz	a10, 0x2405
    2365:	010292        	l8ui	a9, a2, 1
    2368:	0502b2        	l8ui	a11, a2, 5
    236b:	0839f6        	bgeui	a9, 3, 0x2377
    236e:	1222a2        	l32i	a10, a2, 72
    2371:	04a4a0        	extui	a10, a10, 4, 1
    2374:	08da16        	beqz	a10, 0x2405
    2377:	bb0b      	addi.n	a11, a11, -1
    2379:	088b16        	beqz	a11, 0x2405
    237c:	1173b6        	bltui	a3, 7, 0x2391
    237f:	19a4a2        	movi	a10, 0x419
    2382:	04bd      	mov.n	a11, a4
    2384:	2c0c      	movi.n	a12, 2
    2386:	0002d2        	l8ui	a13, a2, 0
    2389:	2e2582        	l32i	a8, a5, 184
    238c:	0e0c      	movi.n	a14, 0
    238e:	0008e0        	excw
    2391:	1cc1b2        	addi	a11, a1, 28
    2394:	eaa3a2        	movi	a10, 0x3ea
    2397:	2c0c      	movi.n	a12, 2
    2399:	0002d2        	l8ui	a13, a2, 0
    239c:	0588      	l32i.n	a8, a5, 0
    239e:	3e0c      	movi.n	a14, 3
    23a0:	0008e0        	excw
    23a3:	6e2682        	l32i	a8, a6, 0x1b8
    23a6:	0304b2        	l8ui	a11, a4, 3
    23a9:	0204a2        	l8ui	a10, a4, 2
    23ac:	01bb80        	slli	a11, a11, 24
    23af:	11aa00        	slli	a10, a10, 16
    23b2:	aaba      	add.n	a10, a10, a11
    23b4:	0104b2        	l8ui	a11, a4, 1
    23b7:	000492        	l8ui	a9, a4, 0
    23ba:	11bb80        	slli	a11, a11, 8
    23bd:	99ba      	add.n	a9, a9, a11
    23bf:	2b0c      	movi.n	a11, 2
    23c1:	99aa      	add.n	a9, a9, a10
    23c3:	106292        	s32i	a9, a2, 64
    23c6:	02ad      	mov.n	a10, a2
    23c8:	0008e0        	excw
    23cb:	0002a2        	l8ui	a10, a2, 0
    23ce:	1022b2        	l32i	a11, a2, 64
    23d1:	7a2cc1        	l32r	a12, 0xfffe0c84
    23d4:	7a2d81        	l32r	a8, 0xfffe0c88
    23d7:	122292        	l32i	a9, a2, 72
    23da:	ce2882        	l32i	a8, a8, 0x338
    23dd:	2099c0        	or	a9, a9, a12
    23e0:	126292        	s32i	a9, a2, 72
    23e3:	0008e0        	excw
    23e6:	6a8c      	beqz.n	a10, 0x23f0
    23e8:	7a13a1        	l32r	a10, 0xfffe0c34
    23eb:	0b0c      	movi.n	a11, 0
    23ed:	b7c8e5        	excw
    23f0:	23b300        	excw
    23f3:	d23b      	addi.n	a13, a2, 3
    23f5:	11e8      	l32i.n	a14, a1, 4
    23f7:	2a0c      	movi.n	a10, 2
    23f9:	1d2682        	l32i	a8, a6, 116
    23fc:	7a2ec1        	l32r	a12, 0xfffe0cb4
    23ff:	0008e0        	excw
    2402:	0008c6        	j	0x2429
    2405:	3e0c      	movi.n	a14, 3
    2407:	1588      	l32i.n	a8, a5, 4
    2409:	d8c7c2        	addi	a12, a7, -40
    240c:	8b2c      	movi.n	a11, 40
    240e:	1a2c      	movi.n	a10, 33
    2410:	0e1192        	l16ui	a9, a1, 28
    2413:	005192        	s16i	a9, a1, 0
    2416:	83abc0        	moveqz	a10, a11, a12
    2419:	01bd      	mov.n	a11, a1
    241b:	2c0c      	movi.n	a12, 2
    241d:	0151a2        	s16i	a10, a1, 2
    2420:	0002d2        	l8ui	a13, a2, 0
    2423:	eba3a2        	movi	a10, 0x3eb
    2426:	0008e0        	excw
    2429:	020c      	movi.n	a2, 0
    242b:	f01d      	excw
    242d:	000000        	ill
    2430:	004136        	excw
    2433:	faa382        	movi	a8, 0x3fa
    2436:	059487        	bne	a4, a8, 0x243f
    2439:	020c      	movi.n	a2, 0
    243b:	0629      	s32i.n	a2, a6, 0
    243d:	f01d      	excw
    243f:	02ad      	mov.n	a10, a2
    2441:	03bd      	mov.n	a11, a3
    2443:	04cd      	mov.n	a12, a4
    2445:	05dd      	mov.n	a13, a5
    2447:	7a0b81        	l32r	a8, 0xfffe0c74
    244a:	06ed      	mov.n	a14, a6
    244c:	4888      	l32i.n	a8, a8, 16
    244e:	07fd      	mov.n	a15, a7
    2450:	0008e0        	excw
    2453:	0a2d      	mov.n	a2, a10
    2455:	f01d      	excw
    2457:	a13600        	sll	a3, a6
    245a:	05ad00        	extui	a10, a0, 29, 1
    245d:	2149      	s32i.n	a4, a1, 8
    245f:	7a1141        	l32r	a4, 0xfffe0ca4
    2462:	01bd      	mov.n	a11, a1
    2464:	f02482        	l32i	a8, a4, 0x3c0
    2467:	085122        	s16i	a2, a1, 16
    246a:	0008e0        	excw
    246d:	7a2fc1        	l32r	a12, 0xfffe0d2c
    2470:	7a30b1        	l32r	a11, 0xfffe0d30
    2473:	7a3171        	l32r	a7, 0xfffe0d38
    2476:	0a2d      	mov.n	a2, a10
    2478:	21a8      	l32i.n	a10, a1, 8
    247a:	7a32e1        	l32r	a14, 0xfffe0d44
    247d:	4d6a17        	bbci	a10, 1, 0x24ce
    2480:	0213f2        	l16ui	a15, a3, 4
    2483:	0113d2        	l16ui	a13, a3, 2
    2486:	0d3df7        	bltu	a13, a15, 0x2497
    2489:	7a13a1        	l32r	a10, 0xfffe0cd8
    248c:	0b0c      	movi.n	a11, 0
    248e:	b7bee5        	excw
    2491:	7a2fc1        	l32r	a12, 0xfffe0d50
    2494:	7a32e1        	l32r	a14, 0xfffe0d5c
    2497:	fa24f2        	l32i	a15, a4, 0x3e8
    249a:	d2d8      	l32i.n	a13, a2, 52
    249c:	0811b2        	l16ui	a11, a1, 16
    249f:	0582d0        	extui	a8, a13, 18, 1
    24a2:	0f3856        	bnez	a8, 0x2599
    24a5:	7a30a1        	l32r	a10, 0xfffe0d68
    24a8:	20dde0        	or	a13, a13, a14
    24ab:	122292        	l32i	a9, a2, 72
    24ae:	d2d9      	s32i.n	a13, a2, 52
    24b0:	2099a0        	or	a9, a9, a10
    24b3:	126292        	s32i	a9, a2, 72
    24b6:	000182        	l8ui	a8, a1, 0
    24b9:	1a0c      	movi.n	a10, 1
    24bb:	1878f6        	bgeui	a8, 7, 0x24d7
    24be:	0a0c      	movi.n	a10, 0
    24c0:	208d70        	or	a8, a13, a7
    24c3:	20e9c0        	or	a14, a9, a12
    24c6:	1262e2        	s32i	a14, a2, 72
    24c9:	d289      	s32i.n	a8, a2, 52
    24cb:	000206        	j	0x24d7
    24ce:	d2d8      	l32i.n	a13, a2, 52
    24d0:	226d47        	bbci	a13, 4, 0x24f6
    24d3:	422c      	movi.n	a2, 36
    24d5:	f01d      	excw
    24d7:	1c0c      	movi.n	a12, 1
    24d9:	03dd      	mov.n	a13, a3
    24db:	05ed      	mov.n	a14, a5
    24dd:	000fe0        	excw
    24e0:	000386        	j	0x24f2
    24e3:	02bd      	mov.n	a11, a2
    24e5:	03cd      	mov.n	a12, a3
    24e7:	06dd      	mov.n	a13, a6
    24e9:	c32482        	l32i	a8, a4, 0x30c
    24ec:	0001a2        	l8ui	a10, a1, 0
    24ef:	0008e0        	excw
    24f2:	020c      	movi.n	a2, 0
    24f4:	f01d      	excw
    24f6:	26fd27        	bbsi	a13, 18, 0x2520
    24f9:	20dde0        	or	a13, a13, a14
    24fc:	122292        	l32i	a9, a2, 72
    24ff:	d2d9      	s32i.n	a13, a2, 52
    2501:	2099b0        	or	a9, a9, a11
    2504:	126292        	s32i	a9, a2, 72
    2507:	0001a2        	l8ui	a10, a1, 0
    250a:	027af6        	bgeui	a10, 7, 0x2510
    250d:	0025c6        	j	0x25a8
    2510:	20dd70        	or	a13, a13, a7
    2513:	20a9c0        	or	a10, a9, a12
    2516:	1262a2        	s32i	a10, a2, 72
    2519:	d2d9      	s32i.n	a13, a2, 52
    251b:	0a0c      	movi.n	a10, 0
    251d:	000246        	j	0x252a
    2520:	10ed70        	and	a14, a13, a7
    2523:	1b0c      	movi.n	a11, 1
    2525:	0a0c      	movi.n	a10, 0
    2527:	83abe0        	moveqz	a10, a11, a14
    252a:	1316a7        	beq	a6, a10, 0x2541
    252d:	268c      	beqz.n	a6, 0x2533
    252f:	322c      	movi.n	a2, 35
    2531:	f01d      	excw
    2533:	20dd70        	or	a13, a13, a7
    2536:	1222f2        	l32i	a15, a2, 72
    2539:	d2d9      	s32i.n	a13, a2, 52
    253b:	20ffc0        	or	a15, a15, a12
    253e:	1262f2        	s32i	a15, a2, 72
    2541:	010282        	l8ui	a8, a2, 1
    2544:	7a3351        	l32r	a5, 0xfffe0e10
    2547:	453866        	bnei	a8, 3, 0x2590
    254a:	7a0c      	movi.n	a10, 7
    254c:	e02482        	l32i	a8, a4, 0x380
    254f:	02bd      	mov.n	a11, a2
    2551:	0008e0        	excw
    2554:	6abc      	beqz.n	a10, 0x258e
    2556:	df2482        	l32i	a8, a4, 0x37c
    2559:	7a0c      	movi.n	a10, 7
    255b:	0008e0        	excw
    255e:	caac      	beqz.n	a10, 0x258e
    2560:	7a1471        	l32r	a7, 0xfffe0db0
    2563:	0213b2        	l16ui	a11, a3, 4
    2566:	bf24d2        	l32i	a13, a4, 0x2fc
    2569:	0113c2        	l16ui	a12, a3, 2
    256c:	11d9      	s32i.n	a13, a1, 4
    256e:	3b3cb7        	bltu	a12, a11, 0x25ad
    2571:	0cad      	mov.n	a10, a12
    2573:	067fa5        	excw
    2576:	1188      	l32i.n	a8, a1, 4
    2578:	0153a2        	s16i	a10, a3, 2
    257b:	0001b2        	l8ui	a11, a1, 0
    257e:	03ad      	mov.n	a10, a3
    2580:	0008e0        	excw
    2583:	c09a70        	sub	a9, a10, a7
    2586:	1d0c      	movi.n	a13, 1
    2588:	83d790        	moveqz	a13, a7, a9
    258b:	001146        	j	0x25d4
    258e:	d2d8      	l32i.n	a13, a2, 52
    2590:	10ad50        	and	a10, a13, a5
    2593:	d2a9      	s32i.n	a10, a2, 52
    2595:	a21c      	movi.n	a2, 26
    2597:	f01d      	excw
    2599:	74a060        	extui	a10, a6, 0, 8
    259c:	1c0c      	movi.n	a12, 1
    259e:	03dd      	mov.n	a13, a3
    25a0:	05ed      	mov.n	a14, a5
    25a2:	000fe0        	excw
    25a5:	ffd246        	j	0x24f2
    25a8:	1a0c      	movi.n	a10, 1
    25aa:	ffdf06        	j	0x252a
    25ad:	03ad      	mov.n	a10, a3
    25af:	0001b2        	l8ui	a11, a1, 0
    25b2:	000de0        	excw
    25b5:	0213b2        	l16ui	a11, a3, 4
    25b8:	0113c2        	l16ui	a12, a3, 2
    25bb:	0add      	mov.n	a13, a10
    25bd:	133cb7        	bltu	a12, a11, 0x25d4
    25c0:	0b9c      	beqz.n	a11, 0x25d4
    25c2:	0cad      	mov.n	a10, a12
    25c4:	067a65        	excw
    25c7:	0213d2        	l16ui	a13, a3, 4
    25ca:	ec7c      	movi.n	a12, -2
    25cc:	ba1b      	addi.n	a11, a10, 1
    25ce:	10bbc0        	and	a11, a11, a12
    25d1:	0153b2        	s16i	a11, a3, 2
    25d4:	042d56        	bnez	a13, 0x261a
    25d7:	06ed      	mov.n	a14, a6
    25d9:	eaa3a2        	movi	a10, 0x3ea
    25dc:	2c0c      	movi.n	a12, 2
    25de:	0002d2        	l8ui	a13, a2, 0
    25e1:	7a1681        	l32r	a8, 0xfffe0e3c
    25e4:	110292        	l8ui	a9, a2, 17
    25e7:	2f0c      	movi.n	a15, 2
    25e9:	2099f0        	or	a9, a9, a15
    25ec:	114292        	s8i	a9, a2, 17
    25ef:	0888      	l32i.n	a8, a8, 0
    25f1:	10c1b2        	addi	a11, a1, 16
    25f4:	0008e0        	excw
    25f7:	02bd      	mov.n	a11, a2
    25f9:	03cd      	mov.n	a12, a3
    25fb:	c12482        	l32i	a8, a4, 0x304
    25fe:	d298      	l32i.n	a9, a2, 52
    2600:	0213a2        	l16ui	a10, a3, 4
    2603:	109950        	and	a9, a9, a5
    2606:	2d52a2        	s16i	a10, a2, 90
    2609:	0113a2        	l16ui	a10, a3, 2
    260c:	2c52a2        	s16i	a10, a2, 88
    260f:	d299      	s32i.n	a9, a2, 52
    2611:	0001a2        	l8ui	a10, a1, 0
    2614:	0008e0        	excw
    2617:	ffb5c6        	j	0x24f2
    261a:	c0bd70        	sub	a11, a13, a7
    261d:	ec2b56        	bnez	a11, 0x24e3
    2620:	02ad      	mov.n	a10, a2
    2622:	d298      	l32i.n	a9, a2, 52
    2624:	ad2482        	l32i	a8, a4, 0x2b4
    2627:	109950        	and	a9, a9, a5
    262a:	d299      	s32i.n	a9, a2, 52
    262c:	0008e0        	excw
    262f:	022c      	movi.n	a2, 32
    2631:	f01d      	excw
    2633:	813600        	src	a3, a6, a0
    2636:	0c3100        	excw
    2639:	0c7a      	add.n	a0, a12, a7
    263b:	23c205        	call0	0x2625c
    263e:	521a      	add.n	a5, a2, a1
    2640:	821041        	l32r	a4, 0xfffe2e80
    2643:	010c      	movi.n	a1, 0
    2645:	170c      	movi.n	a7, 1
    2647:	28fc      	bnez.n	a8, 0x267d
    2649:	3e13b2        	l16ui	a11, a3, 124
    264c:	7a1641        	l32r	a4, 0xfffe0ea4
    264f:	081c92        	l16ui	a9, a12, 16
    2652:	fad4c2        	addmi	a12, a4, 0xfffffa00
    2655:	e12cc2        	l32i	a12, a12, 0x384
    2658:	2d69d7        	bbci	a9, 13, 0x2689
    265b:	ca0c      	movi.n	a10, 12
    265d:	1e63a2        	s32i	a10, a3, 120
    2660:	000ce0        	excw
    2663:	1a23a2        	l32i	a10, a3, 104
    2666:	011292        	l16ui	a9, a2, 2
    2669:	044a92        	s8i	a9, a10, 4
    266c:	782482        	l32i	a8, a4, 0x1e0
    266f:	0008e0        	excw
    2672:	1a23c2        	l32i	a12, a3, 104
    2675:	ffa0b2        	movi	a11, 255
    2678:	044cb2        	s8i	a11, a12, 4
    267b:	f01d      	excw
    267d:	7a0b81        	l32r	a8, 0xfffe0eac
    2680:	5888      	l32i.n	a8, a8, 20
    2682:	02ad      	mov.n	a10, a2
    2684:	0008e0        	excw
    2687:	f01d      	excw
    2689:	1e6352        	s32i	a5, a3, 120
    268c:	05ad      	mov.n	a10, a5
    268e:	000ce0        	excw
    2691:	10c192        	addi	a9, a1, 16
    2694:	0b0c      	movi.n	a11, 0
    2696:	7a0d61        	l32r	a6, 0xfffe0ecc
    2699:	1a23d2        	l32i	a13, a3, 104
    269c:	0612e2        	l16ui	a14, a2, 12
    269f:	105de2        	s16i	a14, a13, 32
    26a2:	1002c2        	l8ui	a12, a2, 16
    26a5:	0e0c      	movi.n	a14, 0
    26a7:	0b4dc2        	s8i	a12, a13, 11
    26aa:	02cd      	mov.n	a12, a2
    26ac:	0d0c      	movi.n	a13, 0
    26ae:	1a23f2        	l32i	a15, a3, 104
    26b1:	0006a2        	l8ui	a10, a6, 0
    26b4:	11b9      	s32i.n	a11, a1, 4
    26b6:	01b9      	s32i.n	a11, a1, 0
    26b8:	2199      	s32i.n	a9, a1, 8
    26ba:	9a2482        	l32i	a8, a4, 0x268
    26bd:	ffa0b2        	movi	a11, 255
    26c0:	0008e0        	excw
    26c3:	1e63a2        	s32i	a10, a3, 120
    26c6:	1a23c2        	l32i	a12, a3, 104
    26c9:	2a9c      	beqz.n	a10, 0x26df
    26cb:	011292        	l16ui	a9, a2, 2
    26ce:	044c92        	s8i	a9, a12, 4
    26d1:	782482        	l32i	a8, a4, 0x1e0
    26d4:	0008e0        	excw
    26d7:	a62482        	l32i	a8, a4, 0x298
    26da:	0008e0        	excw
    26dd:	f01d      	excw
    26df:	0a4c52        	s8i	a5, a12, 10
    26e2:	7a34b1        	l32r	a11, 0xfffe0fb4
    26e5:	7a35d1        	l32r	a13, 0xfffe0fbc
    26e8:	acd9      	s32i.n	a13, a12, 40
    26ea:	fe0bb2        	l8ui	a11, a11, 254
    26ed:	1a23c2        	l32i	a12, a3, 104
    26f0:	1fcbb2        	addi	a11, a11, 31
    26f3:	044cb2        	s8i	a11, a12, 4
    26f6:	0006a2        	l8ui	a10, a6, 0
    26f9:	1a23b2        	l32i	a11, a3, 104
    26fc:	23aa00        	excw
    26ff:	004ba2        	s8i	a10, a11, 0
    2702:	1c23a2        	l32i	a10, a3, 112
    2705:	1a23b2        	l32i	a11, a3, 104
    2708:	071292        	l16ui	a9, a2, 14
    270b:	a32482        	l32i	a8, a4, 0x28c
    270e:	0f5b92        	s16i	a9, a11, 30
    2711:	0008e0        	excw
    2714:	1a23a2        	l32i	a10, a3, 104
    2717:	a12482        	l32i	a8, a4, 0x284
    271a:	1b23b2        	l32i	a11, a3, 108
    271d:	0008e0        	excw
    2720:	7a36d1        	l32r	a13, 0xfffe0ff8
    2723:	1a23c2        	l32i	a12, a3, 104
    2726:	0006b2        	l8ui	a11, a6, 0
    2729:	081c92        	l16ui	a9, a12, 16
    272c:	23bb00        	excw
    272f:	1099d0        	and	a9, a9, a13
    2732:	587be6        	bgei	a11, 7, 0x278e
    2735:	040ca2        	l8ui	a10, a12, 4
    2738:	1b23b2        	l32i	a11, a3, 108
    273b:	20e970        	or	a14, a9, a7
    273e:	085ce2        	s16i	a14, a12, 16
    2741:	7a3781        	l32r	a8, 0xfffe1020
    2744:	004ba2        	s8i	a10, a11, 0
    2747:	1b2392        	l32i	a9, a3, 108
    274a:	1a23a2        	l32i	a10, a3, 104
    274d:	000992        	l8ui	a9, a9, 0
    2750:	0d4a92        	s8i	a9, a10, 13
    2753:	4b2882        	l32i	a8, a8, 0x12c
    2756:	1e6352        	s32i	a5, a3, 120
    2759:	0008e0        	excw
    275c:	eabc      	beqz.n	a10, 0x279e
    275e:	7a1181        	l32r	a8, 0xfffe0fa4
    2761:	d82882        	l32i	a8, a8, 0x360
    2764:	0008e0        	excw
    2767:	0afd      	mov.n	a15, a10
    2769:	000692        	l8ui	a9, a6, 0
    276c:	1e0c      	movi.n	a14, 1
    276e:	239900        	excw
    2771:	0179e6        	bgei	a9, 7, 0x2776
    2774:	0e0c      	movi.n	a14, 0
    2776:	bf2b      	addi.n	a11, a15, 2
    2778:	0ca4a2        	movi	a10, 0x40c
    277b:	2c0c      	movi.n	a12, 2
    277d:	1c23d2        	l32i	a13, a3, 112
    2780:	212482        	l32i	a8, a4, 132
    2783:	000dd2        	l8ui	a13, a13, 0
    2786:	0008e0        	excw
    2789:	176372        	s32i	a7, a3, 92
    278c:	f01d      	excw
    278e:	05ad      	mov.n	a10, a5
    2790:	1b23b2        	l32i	a11, a3, 108
    2793:	2e0c      	movi.n	a14, 2
    2795:	20e9e0        	or	a14, a9, a14
    2798:	085ce2        	s16i	a14, a12, 16
    279b:	ffe886        	j	0x2741
    279e:	5c2482        	l32i	a8, a4, 0x170
    27a1:	0008e0        	excw
    27a4:	f01d      	excw
    27a6:	360000        	excw
    27a9:	ad0761        	l32r	a6, 0xfffedbc8
    27ac:	235201        	l32r	a0, 0xfffcb4f4
    27af:	040c20        	extui	a0, a2, 12, 1
    27b2:	d96122        	s32i	a2, a1, 0x364
    27b5:	7a1581        	l32r	a8, 0xfffe100c
    27b8:	3b0322        	l8ui	a2, a3, 59
    27bb:	422882        	l32i	a8, a8, 0x108
    27be:	742120        	extui	a2, a2, 1, 8
    27c1:	004142        	s8i	a4, a1, 0
    27c4:	0005b2        	l8ui	a11, a5, 0
    27c7:	0008e0        	excw
    27ca:	7a3881        	l32r	a8, 0xfffe10ac
    27cd:	01ad      	mov.n	a10, a1
    27cf:	7f2882        	l32i	a8, a8, 0x1fc
    27d2:	ffa0b2        	movi	a11, 255
    27d5:	0008e0        	excw
    27d8:	0001c2        	l8ui	a12, a1, 0
    27db:	099c16        	beqz	a12, 0x2878
    27de:	000592        	l8ui	a9, a5, 0
    27e1:	78a1a2        	movi	a10, 0x178
    27e4:	c199a0        	mul16u	a9, a9, a10
    27e7:	7a39a1        	l32r	a10, 0xfffe10cc
    27ea:	9a9a      	add.n	a9, a10, a9
    27ec:	7f0992        	l8ui	a9, a9, 127
    27ef:	085916        	beqz	a9, 0x2878
    27f2:	7a0cb1        	l32r	a11, 0xfffe1024
    27f5:	1a2bb2        	l32i	a11, a11, 104
    27f8:	081bb2        	l16ui	a11, a11, 16
    27fb:	79eb37        	bbsi	a11, 3, 0x2878
    27fe:	d66152        	s32i	a5, a1, 0x358
    2801:	d76142        	s32i	a4, a1, 0x35c
    2804:	7d1ca6        	blti	a12, 1, 0x2885
    2807:	014d      	mov.n	a4, a1
    2809:	070c      	movi.n	a7, 0
    280b:	02d152        	addmi	a5, a1, 0x200
    280e:	10c562        	addi	a6, a5, 16
    2811:	da6172        	s32i	a7, a1, 0x368
    2814:	70c552        	addi	a5, a5, 112
    2817:	01d172        	addmi	a7, a1, 0x100
    281a:	7fc772        	addi	a7, a7, 127
    281d:	31c772        	addi	a7, a7, 49
    2820:	02bd      	mov.n	a11, a2
    2822:	7a3a81        	l32r	a8, 0xfffe110c
    2825:	0414a2        	l16ui	a10, a4, 8
    2828:	7888      	l32i.n	a8, a8, 28
    282a:	db61a2        	s32i	a10, a1, 0x36c
    282d:	0008e0        	excw
    2830:	0abd      	mov.n	a11, a10
    2832:	0414a2        	l16ui	a10, a4, 8
    2835:	07b9      	s32i.n	a11, a7, 0
    2837:	c1a2a0        	mul16u	a10, a2, a10
    283a:	064e25        	excw
    283d:	06a9      	s32i.n	a10, a6, 0
    283f:	0314c2        	l16ui	a12, a4, 6
    2842:	0404b2        	l8ui	a11, a4, 4
    2845:	05c9      	s32i.n	a12, a5, 0
    2847:	3b9c      	beqz.n	a11, 0x285e
    2849:	34a8      	l32i.n	a10, a4, 12
    284b:	db21b2        	l32i	a11, a1, 0x36c
    284e:	c0aca0        	sub	a10, a12, a10
    2851:	0647e5        	excw
    2854:	db21b2        	l32i	a11, a1, 0x36c
    2857:	aaba      	add.n	a10, a10, a11
    2859:	064765        	excw
    285c:	05a9      	s32i.n	a10, a5, 0
    285e:	554b      	addi.n	a5, a5, 4
    2860:	664b      	addi.n	a6, a6, 4
    2862:	774b      	addi.n	a7, a7, 4
    2864:	14c442        	addi	a4, a4, 20
    2867:	da21b2        	l32i	a11, a1, 0x368
    286a:	0001c2        	l8ui	a12, a1, 0
    286d:	bb1b      	addi.n	a11, a11, 1
    286f:	da61b2        	s32i	a11, a1, 0x368
    2872:	aa2bc7        	blt	a11, a12, 0x2820
    2875:	000306        	j	0x2885
    2878:	0103c2        	l8ui	a12, a3, 1
    287b:	0043c2        	s8i	a12, a3, 0
    287e:	3a43c2        	s8i	a12, a3, 58
    2881:	020c      	movi.n	a2, 0
    2883:	f01d      	excw
    2885:	7a3b41        	l32r	a4, 0xfffe1174
    2888:	0d2c      	movi.n	a13, 32
    288a:	02d192        	addmi	a9, a1, 0x200
    288d:	7fc992        	addi	a9, a9, 127
    2890:	51c992        	addi	a9, a9, 81
    2893:	03ad76        	excw
    2896:	0949      	s32i.n	a4, a9, 0
    2898:	994b      	addi.n	a9, a9, 4
    289a:	0c0c      	movi.n	a12, 0
    289c:	d56122        	s32i	a2, a1, 0x354
    289f:	0503d2        	l8ui	a13, a3, 5
    28a2:	0403e2        	l8ui	a14, a3, 4
    28a5:	d721f2        	l32i	a15, a1, 0x35c
    28a8:	02d1a2        	addmi	a10, a1, 0x200
    28ab:	7fcaa2        	addi	a10, a10, 127
    28ae:	0043f2        	s8i	a15, a3, 0
    28b1:	b0eee0        	addx8	a14, a14, a14
    28b4:	dd3a      	add.n	a13, a13, a3
    28b6:	ddea      	add.n	a13, a13, a14
    28b8:	0d0db2        	l8ui	a11, a13, 13
    28bb:	51caa2        	addi	a10, a10, 81
    28be:	022be6        	bgei	a11, 2, 0x28c4
    28c1:	004106        	j	0x29c9
    28c4:	7a3c81        	l32r	a8, 0xfffe11b4
    28c7:	d56122        	s32i	a2, a1, 0x354
    28ca:	d18280        	mul16s	a8, a2, a8
    28cd:	d86182        	s32i	a8, a1, 0x360
    28d0:	3a43c2        	s8i	a12, a3, 58
    28d3:	2e1392        	l16ui	a9, a3, 92
    28d6:	0f0c      	movi.n	a15, 0
    28d8:	22e927        	bbsi	a9, 2, 0x28fe
    28db:	8403a2        	l8ui	a10, a3, 132
    28de:	0f0c      	movi.n	a15, 0
    28e0:	aadc      	bnez.n	a10, 0x28fe
    28e2:	d92192        	l32i	a9, a1, 0x364
    28e5:	3998      	l32i.n	a9, a9, 12
    28e7:	399c      	beqz.n	a9, 0x28fe
    28e9:	0909a2        	l8ui	a10, a9, 9
    28ec:	d921e2        	l32i	a14, a1, 0x364
    28ef:	0b2a66        	bnei	a10, 2, 0x28fe
    28f2:	4ee8      	l32i.n	a14, a14, 16
    28f4:	6e8c      	beqz.n	a14, 0x28fe
    28f6:	060e82        	l8ui	a8, a14, 6
    28f9:	0198c7        	bne	a8, a12, 0x28fe
    28fc:	1f0c      	movi.n	a15, 1
    28fe:	1a0c      	movi.n	a10, 1
    2900:	090c      	movi.n	a9, 0
    2902:	839af0        	moveqz	a9, a10, a15
    2905:	0a3916        	beqz	a9, 0x29ac
    2908:	7a1661        	l32r	a6, 0xfffe1160
    290b:	ad2682        	l32i	a8, a6, 0x2b4
    290e:	1b13a2        	l16ui	a10, a3, 54
    2911:	0008e0        	excw
    2914:	0a5d      	mov.n	a5, a10
    2916:	ad2682        	l32i	a8, a6, 0x2b4
    2919:	1a13a2        	l16ui	a10, a3, 52
    291c:	0008e0        	excw
    291f:	e7a372        	movi	a7, 0x3e7
    2922:	71a2b2        	movi	a11, 0x271
    2925:	0add      	mov.n	a13, a10
    2927:	3e03c2        	l8ui	a12, a3, 62
    292a:	3b03a2        	l8ui	a10, a3, 59
    292d:	cc5a      	add.n	a12, a12, a5
    292f:	aada      	add.n	a10, a10, a13
    2931:	aaca      	add.n	a10, a10, a12
    2933:	82aab0        	mull	a10, a10, a11
    2936:	e8a3b2        	movi	a11, 0x3e8
    2939:	aa7a      	add.n	a10, a10, a7
    293b:	0632e5        	excw
    293e:	0d0c      	movi.n	a13, 0
    2940:	f4c0a0        	extui	a12, a10, 0, 16
    2943:	d921e2        	l32i	a14, a1, 0x364
    2946:	1a0c      	movi.n	a10, 1
    2948:	4ee8      	l32i.n	a14, a14, 16
    294a:	3d53c2        	s16i	a12, a3, 122
    294d:	9e8c      	beqz.n	a14, 0x295a
    294f:	3813f2        	l16ui	a15, a3, 112
    2952:	180c      	movi.n	a8, 1
    2954:	02bfc7        	bgeu	a15, a12, 0x295a
    2957:	93d8f0        	movnez	a13, a8, a15
    295a:	090c      	movi.n	a9, 0
    295c:	839ad0        	moveqz	a9, a10, a13
    295f:	99bc      	beqz.n	a9, 0x299c
    2961:	6e8c      	beqz.n	a14, 0x296b
    2963:	3613d2        	l16ui	a13, a3, 108
    2966:	1d8c      	beqz.n	a13, 0x296b
    2968:	1c3dc7        	bltu	a13, a12, 0x2988
    296b:	d92192        	l32i	a9, a1, 0x364
    296e:	7a14a1        	l32r	a10, 0xfffe11c0
    2971:	1998      	l32i.n	a9, a9, 4
    2973:	d721e2        	l32i	a14, a1, 0x35c
    2976:	0a1916        	beqz	a9, 0x2a1b
    2979:	0619d2        	l16ui	a13, a9, 12
    297c:	c0ada0        	sub	a10, a13, a10
    297f:	098a16        	beqz	a10, 0x2a1b
    2982:	023dc7        	bltu	a13, a12, 0x2988
    2985:	002486        	j	0x2a1b
    2988:	8403b2        	l8ui	a11, a3, 132
    298b:	db8c      	beqz.n	a11, 0x299c
    298d:	0c03c2        	l8ui	a12, a3, 12
    2990:	8ccc      	bnez.n	a12, 0x299c
    2992:	1d0c      	movi.n	a13, 1
    2994:	3e0c      	movi.n	a14, 3
    2996:	5643e2        	s8i	a14, a3, 86
    2999:	8543d2        	s8i	a13, a3, 133
    299c:	0003c2        	l8ui	a12, a3, 0
    299f:	0403e2        	l8ui	a14, a3, 4
    29a2:	0503d2        	l8ui	a13, a3, 5
    29a5:	b0eee0        	addx8	a14, a14, a14
    29a8:	dd3a      	add.n	a13, a13, a3
    29aa:	ddea      	add.n	a13, a13, a14
    29ac:	cc2b      	addi.n	a12, a12, 2
    29ae:	74c0c0        	extui	a12, a12, 0, 8
    29b1:	0043c2        	s8i	a12, a3, 0
    29b4:	0d0df2        	l8ui	a15, a13, 13
    29b7:	fecff2        	addi	a15, a15, -2
    29ba:	022fc7        	blt	a15, a12, 0x29c0
    29bd:	ffc3c6        	j	0x28d0
    29c0:	02d1a2        	addmi	a10, a1, 0x200
    29c3:	7fcaa2        	addi	a10, a10, 127
    29c6:	51caa2        	addi	a10, a10, 81
    29c9:	d52122        	l32i	a2, a1, 0x354
    29cc:	0d0c      	movi.n	a13, 0
    29ce:	7a3cf1        	l32r	a15, 0xfffe12c0
    29d1:	0e0c      	movi.n	a14, 0
    29d3:	0c2c      	movi.n	a12, 32
    29d5:	02d1b2        	addmi	a11, a1, 0x200
    29d8:	7fcbb2        	addi	a11, a11, 127
    29db:	51cbb2        	addi	a11, a11, 81
    29de:	1fac76        	excw
    29e1:	0bc8      	l32i.n	a12, a11, 0
    29e3:	bb4b      	addi.n	a11, a11, 4
    29e5:	161c47        	beq	a12, a4, 0x29ff
    29e8:	07acf7        	bge	a12, a15, 0x29f3
    29eb:	004c96        	bltz	a12, 0x29f3
    29ee:	0cfd      	mov.n	a15, a12
    29f0:	74e0d0        	extui	a14, a13, 0, 8
    29f3:	a0cea0        	addx4	a12, a14, a10
    29f6:	0cc8      	l32i.n	a12, a12, 0
    29f8:	039c47        	bne	a12, a4, 0x29ff
    29fb:	b21c      	movi.n	a2, 27
    29fd:	f01d      	excw
    29ff:	dd1b      	addi.n	a13, a13, 1
    2a01:	d621d2        	l32i	a13, a1, 0x358
    2a04:	7a39c1        	l32r	a12, 0xfffe12e8
    2a07:	000dd2        	l8ui	a13, a13, 0
    2a0a:	78a1f2        	movi	a15, 0x178
    2a0d:	c1ddf0        	mul16u	a13, a13, a15
    2a10:	ccda      	add.n	a12, a12, a13
    2a12:	7f0cd2        	l8ui	a13, a12, 127
    2a15:	0fbd56        	bnez	a13, 0x2b14
    2a18:	003786        	j	0x2afa
    2a1b:	0001c2        	l8ui	a12, a1, 0
    2a1e:	3a0392        	l8ui	a9, a3, 58
    2a21:	02d1f2        	addmi	a15, a1, 0x200
    2a24:	0a0c      	movi.n	a10, 0
    2a26:	e161a2        	s32i	a10, a1, 0x384
    2a29:	7fcff2        	addi	a15, a15, 127
    2a2c:	51cff2        	addi	a15, a15, 81
    2a2f:	749190        	extui	a9, a9, 1, 8
    2a32:	a0f9f0        	addx4	a15, a9, a15
    2a35:	dd61f2        	s32i	a15, a1, 0x374
    2a38:	0fe9      	s32i.n	a14, a15, 0
    2a3a:	021ce6        	bgei	a12, 1, 0x2a40
    2a3d:	ffd6c6        	j	0x299c
    2a40:	d46192        	s32i	a9, a1, 0x350
    2a43:	012d      	mov.n	a2, a1
    2a45:	a0acc0        	addx4	a10, a12, a12
    2a48:	01d172        	addmi	a7, a1, 0x100
    2a4b:	02d182        	addmi	a8, a1, 0x200
    2a4e:	70c862        	addi	a6, a8, 112
    2a51:	7fc772        	addi	a7, a7, 127
    2a54:	31c772        	addi	a7, a7, 49
    2a57:	a0aa20        	addx4	a10, a10, a2
    2a5a:	10c882        	addi	a8, a8, 16
    2a5d:	df6182        	s32i	a8, a1, 0x37c
    2a60:	dc61a2        	s32i	a10, a1, 0x370
    2a63:	06b8      	l32i.n	a11, a6, 0
    2a65:	d421a2        	l32i	a10, a1, 0x350
    2a68:	041252        	l16ui	a5, a2, 8
    2a6b:	c0aab0        	sub	a10, a10, a11
    2a6e:	de61a2        	s32i	a10, a1, 0x378
    2a71:	07b8      	l32i.n	a11, a7, 0
    2a73:	e061b2        	s32i	a11, a1, 0x380
    2a76:	0625a5        	excw
    2a79:	e021b2        	l32i	a11, a1, 0x380
    2a7c:	abaa      	add.n	a10, a11, a10
    2a7e:	062525        	excw
    2a81:	dadc      	bnez.n	a10, 0x2aa2
    2a83:	e021c2        	l32i	a12, a1, 0x380
    2a86:	7a3d81        	l32r	a8, 0xfffe137c
    2a89:	0515c7        	beq	a5, a12, 0x2a92
    2a8c:	d521e2        	l32i	a14, a1, 0x354
    2a8f:	519ce7        	bne	a12, a14, 0x2ae4
    2a92:	e121f2        	l32i	a15, a1, 0x384
    2a95:	ff8a      	add.n	a15, a15, a8
    2a97:	e161f2        	s32i	a15, a1, 0x384
    2a9a:	dd21a2        	l32i	a10, a1, 0x374
    2a9d:	e12192        	l32i	a9, a1, 0x384
    2aa0:	0a99      	s32i.n	a9, a10, 0
    2aa2:	de21a2        	l32i	a10, a1, 0x378
    2aa5:	05bd      	mov.n	a11, a5
    2aa7:	0622a5        	excw
    2aaa:	a5aa      	add.n	a10, a5, a10
    2aac:	05bd      	mov.n	a11, a5
    2aae:	062225        	excw
    2ab1:	664b      	addi.n	a6, a6, 4
    2ab3:	774b      	addi.n	a7, a7, 4
    2ab5:	dc21b2        	l32i	a11, a1, 0x370
    2ab8:	14c222        	addi	a2, a2, 20
    2abb:	dd21e2        	l32i	a14, a1, 0x374
    2abe:	e121d2        	l32i	a13, a1, 0x384
    2ac1:	df21c2        	l32i	a12, a1, 0x37c
    2ac4:	f51b      	addi.n	a15, a5, 1
    2ac6:	b3f550        	movgez	a15, a5, a5
    2ac9:	21f1f0        	srai	a15, a15, 1
    2acc:	cc4b      	addi.n	a12, a12, 4
    2ace:	df61c2        	s32i	a12, a1, 0x37c
    2ad1:	c0faf0        	sub	a15, a10, a15
    2ad4:	60f1f0        	abs	a15, a15
    2ad7:	ddfa      	add.n	a13, a13, a15
    2ad9:	e161d2        	s32i	a13, a1, 0x384
    2adc:	0ed9      	s32i.n	a13, a14, 0
    2ade:	8192b7        	bne	a2, a11, 0x2a63
    2ae1:	ffadc6        	j	0x299c
    2ae4:	df21b2        	l32i	a11, a1, 0x37c
    2ae7:	d821a2        	l32i	a10, a1, 0x360
    2aea:	0bb8      	l32i.n	a11, a11, 0
    2aec:	0622e5        	excw
    2aef:	e121c2        	l32i	a12, a1, 0x384
    2af2:	ccaa      	add.n	a12, a12, a10
    2af4:	e161c2        	s32i	a12, a1, 0x384
    2af7:	ffe7c6        	j	0x2a9a
    2afa:	752cb2        	l32i	a11, a12, 0x1d4
    2afd:	762ca2        	l32i	a10, a12, 0x1d8
    2b00:	c0aab0        	sub	a10, a10, a11
    2b03:	aeaa      	add.n	a10, a14, a10
    2b05:	02bd      	mov.n	a11, a2
    2b07:	061ca5        	excw
    2b0a:	aa2a      	add.n	a10, a10, a2
    2b0c:	02bd      	mov.n	a11, a2
    2b0e:	061c25        	excw
    2b11:	74e0a0        	extui	a14, a10, 0, 8
    2b14:	0103d2        	l8ui	a13, a3, 1
    2b17:	11cef0        	slli	a12, a14, 1
    2b1a:	041cd7        	beq	a12, a13, 0x2b22
    2b1d:	1e0c      	movi.n	a14, 1
    2b1f:	d761e2        	s32i	a14, a1, 0x35c
    2b22:	0043c2        	s8i	a12, a3, 0
    2b25:	d721f2        	l32i	a15, a1, 0x35c
    2b28:	0c43f2        	s8i	a15, a3, 12
    2b2b:	ff53c6        	j	0x287e
    2b2e:	360000        	excw
    2b31:	cd0061        	l32r	a6, 0xffff5f34
    2b34:	05dd04        	excw
    2b37:	06ed      	mov.n	a14, a6
    2b39:	7a0b81        	l32r	a8, 0xfffe1368
    2b3c:	02ad      	mov.n	a10, a2
    2b3e:	6888      	l32i.n	a8, a8, 24
    2b40:	03bd      	mov.n	a11, a3
    2b42:	0008e0        	excw
    2b45:	0afd      	mov.n	a15, a10
    2b47:	0a4d      	mov.n	a4, a10
    2b49:	392c      	movi.n	a9, 35
    2b4b:	311a97        	beq	a10, a9, 0x2b80
    2b4e:	0a2d      	mov.n	a2, a10
    2b50:	f01d      	excw
    2b52:	0102b2        	l8ui	a11, a2, 1
    2b55:	11bb80        	slli	a11, a11, 8
    2b58:	aaba      	add.n	a10, a10, a11
    2b5a:	f4a0a0        	extui	a10, a10, 0, 16
    2b5d:	7c1c      	movi.n	a12, 23
    2b5f:	199ac7        	bne	a10, a12, 0x2b7c
    2b62:	03dd      	mov.n	a13, a3
    2b64:	0151f2        	s16i	a15, a1, 2
    2b67:	eba3a2        	movi	a10, 0x3eb
    2b6a:	01bd      	mov.n	a11, a1
    2b6c:	2c0c      	movi.n	a12, 2
    2b6e:	7a1681        	l32r	a8, 0xfffe13c8
    2b71:	fda392        	movi	a9, 0x3fd
    2b74:	1888      	l32i.n	a8, a8, 4
    2b76:	005192        	s16i	a9, a1, 0
    2b79:	0008e0        	excw
    2b7c:	042d      	mov.n	a2, a4
    2b7e:	f01d      	excw
    2b80:	0002a2        	l8ui	a10, a2, 0
    2b83:	7ba0b2        	movi	a11, 123
    2b86:	04e0a0        	extui	a14, a10, 0, 1
    2b89:	74a1a0        	extui	a10, a10, 1, 8
    2b8c:	c23ba7        	bltu	a11, a10, 0x2b52
    2b8f:	fff286        	j	0x2b5d
    2b92:	360000        	excw
    2b95:	820081        	l32r	a8, 0xfffe3398
    2b98:	92eba3        	excw
    2b9b:	990105        	call0	0xfff9bbac
    2b9e:	948741        	l32r	a4, 0xfffe7dbc
    2ba1:	05ad15        	excw
    2ba4:	7a1181        	l32r	a8, 0xfffe13e8
    2ba7:	f2a3b2        	movi	a11, 0x3f2
    2baa:	ef2882        	l32i	a8, a8, 0x3bc
    2bad:	0c0c      	movi.n	a12, 0
    2baf:	0008e0        	excw
    2bb2:	aadc      	bnez.n	a10, 0x2bd0
    2bb4:	c20c      	movi.n	a2, 12
    2bb6:	f01d      	excw
    2bb8:	02ad      	mov.n	a10, a2
    2bba:	03bd      	mov.n	a11, a3
    2bbc:	04cd      	mov.n	a12, a4
    2bbe:	05dd      	mov.n	a13, a5
    2bc0:	7a0b81        	l32r	a8, 0xfffe13ec
    2bc3:	06ed      	mov.n	a14, a6
    2bc5:	7888      	l32i.n	a8, a8, 28
    2bc7:	07fd      	mov.n	a15, a7
    2bc9:	0008e0        	excw
    2bcc:	0a2d      	mov.n	a2, a10
    2bce:	f01d      	excw
    2bd0:	2a0c      	movi.n	a10, 2
    2bd2:	02bd      	mov.n	a11, a2
    2bd4:	090c      	movi.n	a9, 0
    2bd6:	7a0f81        	l32r	a8, 0xfffe1414
    2bd9:	0699      	s32i.n	a9, a6, 0
    2bdb:	132882        	l32i	a8, a8, 76
    2bde:	0303c2        	l8ui	a12, a3, 3
    2be1:	0008e0        	excw
    2be4:	1223a2        	l32i	a10, a3, 72
    2be7:	7a1bb1        	l32r	a11, 0xfffe1454
    2bea:	7eead7        	bbsi	a10, 13, 0x2c6c
    2bed:	121bb2        	l16ui	a11, a11, 36
    2bf0:	04b0b0        	extui	a11, a11, 0, 1
    2bf3:	0a7b16        	beqz	a11, 0x2c9e
    2bf6:	7a1181        	l32r	a8, 0xfffe143c
    2bf9:	3a3c      	movi.n	a10, 51
    2bfb:	e02882        	l32i	a8, a8, 0x380
    2bfe:	03bd      	mov.n	a11, a3
    2c00:	0008e0        	excw
    2c03:	097a16        	beqz	a10, 0x2c9e
    2c06:	7a1181        	l32r	a8, 0xfffe144c
    2c09:	df2882        	l32i	a8, a8, 0x37c
    2c0c:	3a3c      	movi.n	a10, 51
    2c0e:	0008e0        	excw
    2c11:	089a16        	beqz	a10, 0x2c9e
    2c14:	7a1181        	l32r	a8, 0xfffe1458
    2c17:	4a3c      	movi.n	a10, 52
    2c19:	e02882        	l32i	a8, a8, 0x380
    2c1c:	03bd      	mov.n	a11, a3
    2c1e:	0008e0        	excw
    2c21:	079a16        	beqz	a10, 0x2c9e
    2c24:	7a1181        	l32r	a8, 0xfffe1468
    2c27:	df2882        	l32i	a8, a8, 0x37c
    2c2a:	4a3c      	movi.n	a10, 52
    2c2c:	0008e0        	excw
    2c2f:	06ba16        	beqz	a10, 0x2c9e
    2c32:	7a1181        	l32r	a8, 0xfffe1478
    2c35:	0a4c      	movi.n	a10, 64
    2c37:	e02882        	l32i	a8, a8, 0x380
    2c3a:	03bd      	mov.n	a11, a3
    2c3c:	0008e0        	excw
    2c3f:	05ba16        	beqz	a10, 0x2c9e
    2c42:	7a1181        	l32r	a8, 0xfffe1488
    2c45:	df2882        	l32i	a8, a8, 0x37c
    2c48:	0a4c      	movi.n	a10, 64
    2c4a:	0008e0        	excw
    2c4d:	04da16        	beqz	a10, 0x2c9e
    2c50:	03ad      	mov.n	a10, a3
    2c52:	74b020        	extui	a11, a2, 0, 8
    2c55:	07ed      	mov.n	a14, a7
    2c57:	04fd      	mov.n	a15, a4
    2c59:	1c0c      	movi.n	a12, 1
    2c5b:	7a0f81        	l32r	a8, 0xfffe1498
    2c5e:	0159      	s32i.n	a5, a1, 0
    2c60:	b02882        	l32i	a8, a8, 0x2c0
    2c63:	06dd      	mov.n	a13, a6
    2c65:	0008e0        	excw
    2c68:	0628      	l32i.n	a2, a6, 0
    2c6a:	f01d      	excw
    2c6c:	7a0f41        	l32r	a4, 0xfffe14a8
    2c6f:	4198      	l32i.n	a9, a1, 16
    2c71:	aa2c      	movi.n	a10, 42
    2c73:	6c19a7        	beq	a9, a10, 0x2ce3
    2c76:	3c2c      	movi.n	a12, 35
    2c78:	6719c7        	beq	a9, a12, 0x2ce3
    2c7b:	5a0c      	movi.n	a10, 5
    2c7d:	06a9      	s32i.n	a10, a6, 0
    2c7f:	0103d2        	l8ui	a13, a3, 1
    2c82:	653d26        	beqi	a13, 3, 0x2ceb
    2c85:	d22482        	l32i	a8, a4, 0x348
    2c88:	03bd      	mov.n	a11, a3
    2c8a:	0008e0        	excw
    2c8d:	02cd      	mov.n	a12, a2
    2c8f:	03dd      	mov.n	a13, a3
    2c91:	1a0c      	movi.n	a10, 1
    2c93:	502482        	l32i	a8, a4, 0x140
    2c96:	06b8      	l32i.n	a11, a6, 0
    2c98:	0008e0        	excw
    2c9b:	001006        	j	0x2cdf
    2c9e:	2a0c      	movi.n	a10, 2
    2ca0:	02bd      	mov.n	a11, a2
    2ca2:	7a2ec1        	l32r	a12, 0xfffe155c
    2ca5:	7a0f41        	l32r	a4, 0xfffe14e4
    2ca8:	d33b      	addi.n	a13, a3, 3
    2caa:	1d2482        	l32i	a8, a4, 116
    2cad:	8e0c      	movi.n	a14, 8
    2caf:	0008e0        	excw
    2cb2:	7a3e81        	l32r	a8, 0xfffe15ac
    2cb5:	d888      	l32i.n	a8, a8, 52
    2cb7:	6a1c      	movi.n	a10, 22
    2cb9:	0008e0        	excw
    2cbc:	8ca0d2        	movi	a13, 140
    2cbf:	d3da      	add.n	a13, a3, a13
    2cc1:	2a9c      	beqz.n	a10, 0x2cd7
    2cc3:	02ad      	mov.n	a10, a2
    2cc5:	03bd      	mov.n	a11, a3
    2cc7:	07fd      	mov.n	a15, a7
    2cc9:	72a0c2        	movi	a12, 114
    2ccc:	7e2482        	l32i	a8, a4, 0x1f8
    2ccf:	06ed      	mov.n	a14, a6
    2cd1:	0008e0        	excw
    2cd4:	0001c6        	j	0x2cdf
    2cd7:	e72482        	l32i	a8, a4, 0x39c
    2cda:	0dad      	mov.n	a10, a13
    2cdc:	0008e0        	excw
    2cdf:	0628      	l32i.n	a2, a6, 0
    2ce1:	f01d      	excw
    2ce3:	020c      	movi.n	a2, 0
    2ce5:	090c      	movi.n	a9, 0
    2ce7:	0699      	s32i.n	a9, a6, 0
    2ce9:	f01d      	excw
    2ceb:	3d2482        	l32i	a8, a4, 244
    2cee:	03ad      	mov.n	a10, a3
    2cf0:	0008e0        	excw
    2cf3:	fffa06        	j	0x2cdf
    2cf6:	360000        	excw
    2cf9:	820061        	l32r	a6, 0xfffe34fc
    2cfc:	8775a0        	excw
    2cff:	2c1c95        	excw
    2d02:	27f9      	s32i.n	a15, a7, 8
    2d04:	17b9      	s32i.n	a11, a7, 4
    2d06:	7a3c      	movi.n	a10, 55
    2d08:	123a27        	bltu	a10, a2, 0x2d1e
    2d0b:	05bd      	mov.n	a11, a5
    2d0d:	7a0f81        	l32r	a8, 0xfffe154c
    2d10:	0a0c      	movi.n	a10, 0
    2d12:	e12882        	l32i	a8, a8, 0x384
    2d15:	07a9      	s32i.n	a10, a7, 0
    2d17:	0008e0        	excw
    2d1a:	0728      	l32i.n	a2, a7, 0
    2d1c:	f01d      	excw
    2d1e:	990c      	movi.n	a9, 9
    2d20:	1e1297        	beq	a2, a9, 0x2d42
    2d23:	1b9226        	beqi	a2, 10, 0x2d42
    2d26:	02ad      	mov.n	a10, a2
    2d28:	03bd      	mov.n	a11, a3
    2d2a:	04cd      	mov.n	a12, a4
    2d2c:	05dd      	mov.n	a13, a5
    2d2e:	06ed      	mov.n	a14, a6
    2d30:	7a0b81        	l32r	a8, 0xfffe155c
    2d33:	c198      	l32i.n	a9, a1, 48
    2d35:	0199      	s32i.n	a9, a1, 0
    2d37:	8888      	l32i.n	a8, a8, 32
    2d39:	07fd      	mov.n	a15, a7
    2d3b:	0008e0        	excw
    2d3e:	0a2d      	mov.n	a2, a10
    2d40:	f01d      	excw
    2d42:	f2a3a2        	movi	a10, 0x3f2
    2d45:	0515a7        	beq	a5, a10, 0x2d4e
    2d48:	f8a3b2        	movi	a11, 0x3f8
    2d4b:	d795b7        	bne	a5, a11, 0x2d26
    2d4e:	424c      	movi.n	a2, 68
    2d50:	f01d      	excw
    2d52:	360000        	excw
    2d55:	610081        	l32r	a8, 0xfffdb158
    2d58:	0f          	.byte 0xf
    2d59:	827a      	add.n	a8, a2, a7
    2d5b:	adcb26        	beqi	a11, 32, 0x2d0c
    2d5e:	08e002        	excw
    2d61:	41a900        	srli	a10, a0, 9
    2d64:	b6a492        	movi	a9, 0x4b6
    2d67:	229297        	bne	a2, a9, 0x2d8d
    2d6a:	a62682        	l32i	a8, a6, 0x298
    2d6d:	03ad      	mov.n	a10, a3
    2d6f:	0008e0        	excw
    2d72:	170a66        	bnei	a10, -1, 0x2d8d
    2d75:	7a2d81        	l32r	a8, 0xfffe162c
    2d78:	872882        	l32i	a8, a8, 0x21c
    2d7b:	0203a2        	l8ui	a10, a3, 2
    2d7e:	0008e0        	excw
    2d81:	cb2682        	l32i	a8, a6, 0x32c
    2d84:	02ad      	mov.n	a10, a2
    2d86:	0008e0        	excw
    2d89:	0a2d      	mov.n	a2, a10
    2d8b:	f01d      	excw
    2d8d:	75a072        	movi	a7, 117
    2d90:	74a0a2        	movi	a10, 116
    2d93:	4512a7        	beq	a2, a10, 0x2ddc
    2d96:	421277        	beq	a2, a7, 0x2ddc
    2d99:	02ad      	mov.n	a10, a2
    2d9b:	03bd      	mov.n	a11, a3
    2d9d:	7a0b81        	l32r	a8, 0xfffe15cc
    2da0:	04cd      	mov.n	a12, a4
    2da2:	9888      	l32i.n	a8, a8, 36
    2da4:	05dd      	mov.n	a13, a5
    2da6:	0008e0        	excw
    2da9:	0a2d      	mov.n	a2, a10
    2dab:	f01d      	excw
    2dad:	7a3fa1        	l32r	a10, 0xfffe16ac
    2db0:	74a092        	movi	a9, 116
    2db3:	3a1297        	beq	a2, a9, 0x2df1
    2db6:	371277        	beq	a2, a7, 0x2df1
    2db9:	c8a042        	movi	a4, 200
    2dbc:	d14b40        	mul16s	a4, a11, a4
    2dbf:	a4aa      	add.n	a10, a4, a10
    2dc1:	800aa2        	l8ui	a10, a10, 128
    2dc4:	02dd      	mov.n	a13, a2
    2dc6:	03ed      	mov.n	a14, a3
    2dc8:	10c1f2        	addi	a15, a1, 16
    2dcb:	7a28c1        	l32r	a12, 0xfffe166c
    2dce:	0159      	s32i.n	a5, a1, 0
    2dd0:	742682        	l32i	a8, a6, 0x1d0
    2dd3:	c4ca      	add.n	a12, a4, a12
    2dd5:	0008e0        	excw
    2dd8:	0a2d      	mov.n	a2, a10
    2dda:	f01d      	excw
    2ddc:	04cd      	mov.n	a12, a4
    2dde:	02ad      	mov.n	a10, a2
    2de0:	5e2682        	l32i	a8, a6, 0x178
    2de3:	03bd      	mov.n	a11, a3
    2de5:	0008e0        	excw
    2de8:	0abd      	mov.n	a11, a10
    2dea:	bf0a66        	bnei	a10, -1, 0x2dad
    2ded:	220c      	movi.n	a2, 2
    2def:	f01d      	excw
    2df1:	c8a042        	movi	a4, 200
    2df4:	d14b40        	mul16s	a4, a11, a4
    2df7:	a4aa      	add.n	a10, a4, a10
    2df9:	800aa2        	l8ui	a10, a10, 128
    2dfc:	b93c      	movi.n	a9, 59
    2dfe:	c21a97        	beq	a10, a9, 0x2dc4
    2e01:	324c      	movi.n	a2, 67
    2e03:	f01d      	excw
    2e05:	000000        	ill
    2e08:	004136        	excw
    2e0b:	031282        	l16ui	a8, a2, 6
    2e0e:	f7a192        	movi	a9, 0x1f7
    2e11:	4b9897        	bne	a8, a9, 0x2e60
    2e14:	0d02a2        	l8ui	a10, a2, 13
    2e17:	4238      	l32i.n	a3, a2, 16
    2e19:	7a0f81        	l32r	a8, 0xfffe1658
    2e1c:	0a0352        	l8ui	a5, a3, 10
    2e1f:	1f2882        	l32i	a8, a8, 124
    2e22:	553a      	add.n	a5, a5, a3
    2e24:	55cb      	addi.n	a5, a5, 12
    2e26:	0008e0        	excw
    2e29:	7a4041        	l32r	a4, 0xfffe172c
    2e2c:	cabc      	beqz.n	a10, 0x2e6c
    2e2e:	05ad      	mov.n	a10, a5
    2e30:	0d02b2        	l8ui	a11, a2, 13
    2e33:	0c02c2        	l8ui	a12, a2, 12
    2e36:	7a1181        	l32r	a8, 0xfffe167c
    2e39:	0d0c      	movi.n	a13, 0
    2e3b:	f82882        	l32i	a8, a8, 0x3e0
    2e3e:	0403e2        	l8ui	a14, a3, 4
    2e41:	0008e0        	excw
    2e44:	494c      	movi.n	a9, 68
    2e46:	229a97        	bne	a10, a9, 0x2e6c
    2e49:	2a0c      	movi.n	a10, 2
    2e4b:	f7a1b2        	movi	a11, 0x1f7
    2e4e:	c2cb      	addi.n	a12, a2, 12
    2e50:	7488      	l32i.n	a8, a4, 28
    2e52:	8d0c      	movi.n	a13, 8
    2e54:	0008e0        	excw
    2e57:	5488      	l32i.n	a8, a4, 20
    2e59:	02ad      	mov.n	a10, a2
    2e5b:	0008e0        	excw
    2e5e:	f01d      	excw
    2e60:	7a0b81        	l32r	a8, 0xfffe168c
    2e63:	a888      	l32i.n	a8, a8, 40
    2e65:	02ad      	mov.n	a10, a2
    2e67:	0008e0        	excw
    2e6a:	f01d      	excw
    2e6c:	7a0781        	l32r	a8, 0xfffe1688
    2e6f:	8888      	l32i.n	a8, a8, 32
    2e71:	03ad      	mov.n	a10, a3
    2e73:	0008e0        	excw
    2e76:	5488      	l32i.n	a8, a4, 20
    2e78:	02ad      	mov.n	a10, a2
    2e7a:	0008e0        	excw
    2e7d:	f01d      	excw
    2e7f:	613600        	excw
    2e82:	070c00        	excw
    2e85:	eaa382        	movi	a8, 0x3ea
    2e88:	1513b2        	l16ui	a11, a3, 42
    2e8b:	04ad      	mov.n	a10, a4
    2e8d:	0151b2        	s16i	a11, a1, 2
    2e90:	7a0fb1        	l32r	a11, 0xfffe16cc
    2e93:	2d1392        	l16ui	a9, a3, 90
    2e96:	035192        	s16i	a9, a1, 6
    2e99:	02db42        	addmi	a4, a11, 0x200
    2e9c:	161a87        	beq	a10, a8, 0x2eb6
    2e9f:	eba3c2        	movi	a12, 0x3eb
    2ea2:	c0cac0        	sub	a12, a10, a12
    2ea5:	09ac16        	beqz	a12, 0x2f43
    2ea8:	7a41d1        	l32r	a13, 0xfffe17ac
    2eab:	079d      	mov.n	a9, a7
    2ead:	c0dad0        	sub	a13, a10, a13
    2eb0:	083d16        	beqz	a13, 0x2f37
    2eb3:	000cc6        	j	0x2eea
    2eb6:	05ad      	mov.n	a10, a5
    2eb8:	fda3b2        	movi	a11, 0x3fd
    2ebb:	ef2482        	l32i	a8, a4, 0x3bc
    2ebe:	07cd      	mov.n	a12, a7
    2ec0:	0008e0        	excw
    2ec3:	0a6a16        	beqz	a10, 0x2f6d
    2ec6:	4a0c      	movi.n	a10, 4
    2ec8:	7a0f81        	l32r	a8, 0xfffe1704
    2ecb:	02bd      	mov.n	a11, a2
    2ecd:	132882        	l32i	a8, a8, 76
    2ed0:	0403c2        	l8ui	a12, a3, 4
    2ed3:	0008e0        	excw
    2ed6:	74a020        	extui	a10, a2, 0, 8
    2ed9:	03bd      	mov.n	a11, a3
    2edb:	56c3c2        	addi	a12, a3, 86
    2ede:	c02482        	l32i	a8, a4, 0x300
    2ee1:	01dd      	mov.n	a13, a1
    2ee3:	0008e0        	excw
    2ee6:	0679      	s32i.n	a7, a6, 0
    2ee8:	090c      	movi.n	a9, 0
    2eea:	045916        	beqz	a9, 0x2f33
    2eed:	7a33f1        	l32r	a15, 0xfffe17bc
    2ef0:	d3e8      	l32i.n	a14, a3, 52
    2ef2:	7a42a1        	l32r	a10, 0xfffe17fc
    2ef5:	4b1c      	movi.n	a11, 20
    2ef7:	2c0c      	movi.n	a12, 2
    2ef9:	7a12d1        	l32r	a13, 0xfffe1744
    2efc:	164372        	s8i	a7, a3, 22
    2eff:	ac2482        	l32i	a8, a4, 0x2b0
    2f02:	4c53d2        	s16i	a13, a3, 152
    2f05:	4b53c2        	s16i	a12, a3, 150
    2f08:	5353b2        	s16i	a11, a3, 166
    2f0b:	5253a2        	s16i	a10, a3, 164
    2f0e:	74b020        	extui	a11, a2, 0, 8
    2f11:	03ad      	mov.n	a10, a3
    2f13:	10eef0        	and	a14, a14, a15
    2f16:	d3e9      	s32i.n	a14, a3, 52
    2f18:	0698      	l32i.n	a9, a6, 0
    2f1a:	004192        	s8i	a9, a1, 0
    2f1d:	0008e0        	excw
    2f20:	7a0f81        	l32r	a8, 0xfffe175c
    2f23:	cd2882        	l32i	a8, a8, 0x334
    2f26:	01ad      	mov.n	a10, a1
    2f28:	0008e0        	excw
    2f2b:	ad2482        	l32i	a8, a4, 0x2b4
    2f2e:	03ad      	mov.n	a10, a3
    2f30:	0008e0        	excw
    2f33:	0628      	l32i.n	a2, a6, 0
    2f35:	f01d      	excw
    2f37:	044172        	s8i	a7, a1, 4
    2f3a:	292c      	movi.n	a9, 34
    2f3c:	0699      	s32i.n	a9, a6, 0
    2f3e:	190c      	movi.n	a9, 1
    2f40:	ffe986        	j	0x2eea
    2f43:	05ad      	mov.n	a10, a5
    2f45:	fda3b2        	movi	a11, 0x3fd
    2f48:	ef2482        	l32i	a8, a4, 0x3bc
    2f4b:	07cd      	mov.n	a12, a7
    2f4d:	0008e0        	excw
    2f50:	9a9c      	beqz.n	a10, 0x2f6d
    2f52:	4a0c      	movi.n	a10, 4
    2f54:	7a0f81        	l32r	a8, 0xfffe1790
    2f57:	02bd      	mov.n	a11, a2
    2f59:	132882        	l32i	a8, a8, 76
    2f5c:	0403c2        	l8ui	a12, a3, 4
    2f5f:	0008e0        	excw
    2f62:	010592        	l8ui	a9, a5, 1
    2f65:	0699      	s32i.n	a9, a6, 0
    2f67:	044172        	s8i	a7, a1, 4
    2f6a:	fff406        	j	0x2f3e
    2f6d:	c20c      	movi.n	a2, 12
    2f6f:	f01d      	excw
    2f71:	000000        	ill
    2f74:	004136        	excw
    2f77:	7a44b1        	l32r	a11, 0xfffe1888
    2f7a:	7a4581        	l32r	a8, 0xfffe1890
    2f7d:	7a4641        	l32r	a4, 0xfffe1898
    2f80:	7a4331        	l32r	a3, 0xfffe188c
    2f83:	7a0bf1        	l32r	a15, 0xfffe17b0
    2f86:	06d3a2        	addmi	a10, a3, 0x600
    2f89:	05d392        	addmi	a9, a3, 0x500
    2f8c:	ffd352        	addmi	a5, a3, 0xffffff00
    2f8f:	01d3e2        	addmi	a14, a3, 0x100
    2f92:	f82e22        	l32i	a2, a14, 0x3e0
    2f95:	5b29d2        	l32i	a13, a9, 0x16c
    2f98:	bf29c2        	l32i	a12, a9, 0x2fc
    2f9b:	cb2ee2        	l32i	a14, a14, 0x32c
    2f9e:	6f29      	s32i.n	a2, a15, 24
    2fa0:	c568      	l32i.n	a6, a5, 48
    2fa2:	7a4721        	l32r	a2, 0xfffe18c0
    2fa5:	c549      	s32i.n	a4, a5, 48
    2fa7:	2fe9      	s32i.n	a14, a15, 8
    2fa9:	af69      	s32i.n	a6, a15, 40
    2fab:	7f6a82        	s32i	a8, a10, 0x1fc
    2fae:	1fc9      	s32i.n	a12, a15, 4
    2fb0:	5fd9      	s32i.n	a13, a15, 20
    2fb2:	1b6ab2        	s32i	a11, a10, 108
    2fb5:	7a48d1        	l32r	a13, 0xfffe18d8
    2fb8:	03d3b2        	addmi	a11, a3, 0x300
    2fbb:	7a49c1        	l32r	a12, 0xfffe18e0
    2fbe:	7a4b81        	l32r	a8, 0xfffe18ec
    2fc1:	402362        	l32i	a6, a3, 0x100
    2fc4:	04d3e2        	addmi	a14, a3, 0x400
    2fc7:	4c2342        	l32i	a4, a3, 0x130
    2fca:	1d2352        	l32i	a5, a3, 116
    2fcd:	3f59      	s32i.n	a5, a15, 12
    2fcf:	7f49      	s32i.n	a4, a15, 28
    2fd1:	7a4aa1        	l32r	a10, 0xfffe18fc
    2fd4:	be29      	s32i.n	a2, a14, 44
    2fd6:	4f69      	s32i.n	a6, a15, 16
    2fd8:	146982        	s32i	a8, a9, 80
    2fdb:	7a5161        	l32r	a6, 0xfffe1920
    2fde:	7a5081        	l32r	a8, 0xfffe1920
    2fe1:	786bc2        	s32i	a12, a11, 0x1e0
    2fe4:	eed9      	s32i.n	a13, a14, 56
    2fe6:	232322        	l32i	a2, a3, 140
    2fe9:	6a6ba2        	s32i	a10, a11, 0x1a8
    2fec:	7a4f91        	l32r	a9, 0xfffe1928
    2fef:	7a5341        	l32r	a4, 0xfffe193c
    2ff2:	7a5251        	l32r	a5, 0xfffe193c
    2ff5:	d46352        	s32i	a5, a3, 0x350
    2ff8:	d06342        	s32i	a4, a3, 0x340
    2ffb:	4c6392        	s32i	a9, a3, 0x130
    2ffe:	7a4ea1        	l32r	a10, 0xfffe1938
    3001:	9f29      	s32i.n	a2, a15, 36
    3003:	3423e2        	l32i	a14, a3, 208
    3006:	7a4dc1        	l32r	a12, 0xfffe193c
    3009:	7a4cd1        	l32r	a13, 0xfffe193c
    300c:	4063d2        	s32i	a13, a3, 0x100
    300f:	1d63c2        	s32i	a12, a3, 116
    3012:	236382        	s32i	a8, a3, 140
    3015:	8fe9      	s32i.n	a14, a15, 32
    3017:	346362        	s32i	a6, a3, 208
    301a:	7a5421        	l32r	a2, 0xfffe196c
    301d:	08d3b2        	addmi	a11, a3, 0x800
    3020:	5ba9      	s32i.n	a10, a11, 20
    3022:	5329      	s32i.n	a2, a3, 20
    3024:	f01d      	excw
    3026:	360000        	excw
    3029:	b20041        	l32r	a4, 0xfffef82c
    302c:	310312        	l8ui	a1, a3, 49
    302f:	167a55        	excw
    3032:	099b      	addi.n	a0, a9, 9
    3034:	7a57c1        	l32r	a12, 0xfffe1990
    3037:	7a5641        	l32r	a4, 0xfffe1990
    303a:	085c      	movi.n	a8, 80
    303c:	4b1b87        	beq	a11, a8, 0x308b
    303f:	85a392        	movi	a9, 0x385
    3042:	c09b90        	sub	a9, a11, a9
    3045:	091916        	beqz	a9, 0x30da
    3048:	86a3a2        	movi	a10, 0x386
    304b:	7f9ba7        	bne	a11, a10, 0x30ce
    304e:	0020c0        	memw
    3051:	922c92        	l32i	a9, a12, 0x248
    3054:	00a4b2        	movi	a11, 0x400
    3057:	20b9b0        	or	a11, a9, a11
    305a:	0020c0        	memw
    305d:	926cb2        	s32i	a11, a12, 0x248
    3060:	ffaba2        	movi	a10, 0xfffffbff
    3063:	1099a0        	and	a9, a9, a10
    3066:	0020c0        	memw
    3069:	926c92        	s32i	a9, a12, 0x248
    306c:	70a0a2        	movi	a10, 112
    306f:	202382        	l32i	a8, a3, 128
    3072:	0b0c      	movi.n	a11, 0
    3074:	0008e0        	excw
    3077:	2004c2        	l8ui	a12, a4, 32
    307a:	050c56        	bnez	a12, 0x30ce
    307d:	190c      	movi.n	a9, 1
    307f:	142382        	l32i	a8, a3, 80
    3082:	204492        	s8i	a9, a4, 32
    3085:	0008e0        	excw
    3088:	001086        	j	0x30ce
    308b:	0020c0        	memw
    308e:	922cd2        	l32i	a13, a12, 0x248
    3091:	2f0c      	movi.n	a15, 2
    3093:	20fdf0        	or	a15, a13, a15
    3096:	0020c0        	memw
    3099:	926cf2        	s32i	a15, a12, 0x248
    309c:	de7c      	movi.n	a14, -3
    309e:	10dde0        	and	a13, a13, a14
    30a1:	0020c0        	memw
    30a4:	926cd2        	s32i	a13, a12, 0x248
    30a7:	0020c0        	memw
    30aa:	142382        	l32i	a8, a3, 80
    30ad:	090c      	movi.n	a9, 0
    30af:	992cc2        	l32i	a12, a12, 0x264
    30b2:	7a58a1        	l32r	a10, 0xfffe1a14
    30b5:	f5c0c0        	extui	a12, a12, 16, 16
    30b8:	ffdab2        	addmi	a11, a10, 0xffffff00
    30bb:	b52bb2        	l32i	a11, a11, 0x2d4
    30be:	2944c2        	s8i	a12, a4, 41
    30c1:	bb1b      	addi.n	a11, a11, 1
    30c3:	756ab2        	s32i	a11, a10, 0x1d4
    30c6:	05daa2        	addmi	a10, a10, 0x500
    30c9:	8a99      	s32i.n	a9, a10, 32
    30cb:	0008e0        	excw
    30ce:	7a4081        	l32r	a8, 0xfffe19d0
    30d1:	5888      	l32i.n	a8, a8, 20
    30d3:	02ad      	mov.n	a10, a2
    30d5:	0008e0        	excw
    30d8:	f01d      	excw
    30da:	222382        	l32i	a8, a3, 136
    30dd:	0008e0        	excw
    30e0:	fffa86        	j	0x30ce
    30e3:	413600        	srli	a3, a0, 6
    30e6:	593100        	excw
    30e9:	917a      	add.n	a9, a1, a7
    30eb:	827a56        	bnez	a10, 0x2916
    30ee:	920403        	excw
    30f1:	2009      	s32i.n	a0, a0, 8
    30f3:	143866        	bnei	a8, 3, 0x310b
    30f6:	199c      	beqz.n	a9, 0x310b
    30f8:	040292        	l8ui	a9, a2, 4
    30fb:	140c      	movi.n	a4, 1
    30fd:	0c4966        	bnei	a9, 4, 0x310d
    3100:	43b8      	l32i.n	a11, a3, 16
    3102:	63a8      	l32i.n	a10, a3, 24
    3104:	93a4b0        	movnez	a10, a4, a11
    3107:	63a9      	s32i.n	a10, a3, 24
    3109:	f01d      	excw
    310b:	f01d      	excw
    310d:	7a15b1        	l32r	a11, 0xfffe1964
    3110:	333966        	bnei	a9, 3, 0x3147
    3113:	7a5ae1        	l32r	a14, 0xfffe1a7c
    3116:	020c      	movi.n	a2, 0
    3118:	712ed2        	l32i	a13, a14, 0x1c4
    311b:	43c8      	l32i.n	a12, a3, 16
    311d:	dd1b      	addi.n	a13, a13, 1
    311f:	716ed2        	s32i	a13, a14, 0x1c4
    3122:	6d1c26        	beqi	a12, 1, 0x3193
    3125:	53e8      	l32i.n	a14, a3, 20
    3127:	681e26        	beqi	a14, 1, 0x3193
    312a:	232b82        	l32i	a8, a11, 140
    312d:	0008e0        	excw
    3130:	7a1891        	l32r	a9, 0xfffe1990
    3133:	7349      	s32i.n	a4, a3, 28
    3135:	c40992        	l8ui	a9, a9, 196
    3138:	9329      	s32i.n	a2, a3, 36
    313a:	cde907        	bbsi	a9, 0, 0x310b
    313d:	7a5b81        	l32r	a8, 0xfffe1aac
    3140:	3888      	l32i.n	a8, a8, 12
    3142:	0008e0        	excw
    3145:	f01d      	excw
    3147:	3ca966        	bnei	a9, 12, 0x3187
    314a:	050292        	l8ui	a9, a2, 5
    314d:	0902d2        	l8ui	a13, a2, 9
    3150:	337966        	bnei	a9, 7, 0x3187
    3153:	0a0292        	l8ui	a9, a2, 10
    3156:	0802c2        	l8ui	a12, a2, 8
    3159:	01dd80        	slli	a13, a13, 24
    315c:	11cc00        	slli	a12, a12, 16
    315f:	ccda      	add.n	a12, a12, a13
    3161:	0702d2        	l8ui	a13, a2, 7
    3164:	0602a2        	l8ui	a10, a2, 6
    3167:	11dd80        	slli	a13, a13, 8
    316a:	aada      	add.n	a10, a10, a13
    316c:	aaca      	add.n	a10, a10, a12
    316e:	044916        	beqz	a9, 0x31b6
    3171:	2a1926        	beqi	a9, 1, 0x319f
    3174:	932966        	bnei	a9, 2, 0x310b
    3177:	1423e2        	l32i	a14, a3, 80
    317a:	ff7c      	movi.n	a15, -1
    317c:	30faf0        	xor	a15, a10, a15
    317f:	10eef0        	and	a14, a14, a15
    3182:	1463e2        	s32i	a14, a3, 80
    3185:	f01d      	excw
    3187:	7a2081        	l32r	a8, 0xfffe1a08
    318a:	2888      	l32i.n	a8, a8, 8
    318c:	02ad      	mov.n	a10, a2
    318e:	0008e0        	excw
    3191:	f01d      	excw
    3193:	7329      	s32i.n	a2, a3, 28
    3195:	7a5c91        	l32r	a9, 0xfffe1b08
    3198:	8329      	s32i.n	a2, a3, 32
    319a:	004942        	s8i	a4, a9, 0
    319d:	f01d      	excw
    319f:	1423d2        	l32i	a13, a3, 80
    31a2:	04caa0        	extui	a12, a10, 10, 1
    31a5:	20dda0        	or	a13, a13, a10
    31a8:	1463d2        	s32i	a13, a3, 80
    31ab:	f5cc16        	beqz	a12, 0x310b
    31ae:	232b82        	l32i	a8, a11, 140
    31b1:	0008e0        	excw
    31b4:	f01d      	excw
    31b6:	7a5581        	l32r	a8, 0xfffe1b0c
    31b9:	1423b2        	l32i	a11, a3, 80
    31bc:	122882        	l32i	a8, a8, 72
    31bf:	7a5da1        	l32r	a10, 0xfffe1b34
    31c2:	0008e0        	excw
    31c5:	f01d      	excw
    31c7:	413600        	srli	a3, a0, 6
    31ca:	a02000        	addx4	a2, a0, a0
    31cd:	0c5c74        	excw
    31d0:	7a57d1        	l32r	a13, 0xfffe1b2c
    31d3:	7a5641        	l32r	a4, 0xfffe1b2c
    31d6:	1b0c      	movi.n	a11, 1
    31d8:	03e650        	rsr.ps	a5
    31db:	290c      	movi.n	a9, 2
    31dd:	348050        	extui	a8, a5, 0, 4
    31e0:	022987        	blt	a9, a8, 0x31e6
    31e3:	006250        	rsil	a5, 2
    31e6:	0020c0        	memw
    31e9:	a12d22        	l32i	a2, a13, 0x284
    31ec:	3e62c7        	bbci	a2, 12, 0x322e
    31ef:	0020c0        	memw
    31f2:	9a2de2        	l32i	a14, a13, 0x268
    31f5:	086e07        	bbci	a14, 0, 0x3201
    31f8:	0020c0        	memw
    31fb:	9a6db2        	s32i	a11, a13, 0x268
    31fe:	2144b2        	s8i	a11, a4, 33
    3201:	201ac7        	beq	a10, a12, 0x3225
    3204:	60a0f2        	movi	a15, 96
    3207:	1a1af7        	beq	a10, a15, 0x3225
    320a:	70a082        	movi	a8, 112
    320d:	1d1a87        	beq	a10, a8, 0x322e
    3210:	6eea26        	beqi	a10, 128, 0x3282
    3213:	a0a092        	movi	a9, 160
    3216:	141a97        	beq	a10, a9, 0x322e
    3219:	c0a0e2        	movi	a14, 192
    321c:	0e1ae7        	beq	a10, a14, 0x322e
    321f:	ffa0f2        	movi	a15, 255
    3222:	081af7        	beq	a10, a15, 0x322e
    3225:	13e650        	wsr.ps	a5
    3228:	002010        	rsync
    322b:	001906        	j	0x3293
    322e:	119ac7        	bne	a10, a12, 0x3243
    3231:	7a5981        	l32r	a8, 0xfffe1b98
    3234:	142882        	l32i	a8, a8, 80
    3237:	08e8a7        	bbsi	a8, 10, 0x3243
    323a:	13e650        	wsr.ps	a5
    323d:	002010        	rsync
    3240:	0013c6        	j	0x3293
    3243:	2104e2        	l8ui	a14, a4, 33
    3246:	0c0c      	movi.n	a12, 0
    3248:	2eec      	bnez.n	a14, 0x326e
    324a:	7a5ef1        	l32r	a15, 0xfffe1bc4
    324d:	049cf7        	bne	a12, a15, 0x3255
    3250:	1e0c      	movi.n	a14, 1
    3252:	2144e2        	s8i	a14, a4, 33
    3255:	0020c0        	memw
    3258:	9a2d92        	l32i	a9, a13, 0x268
    325b:	0a6907        	bbci	a9, 0, 0x3269
    325e:	0020c0        	memw
    3261:	9a6db2        	s32i	a11, a13, 0x268
    3264:	1e0c      	movi.n	a14, 1
    3266:	2144e2        	s8i	a14, a4, 33
    3269:	cc1b      	addi.n	a12, a12, 1
    326b:	fdee16        	beqz	a14, 0x324d
    326e:	13e650        	wsr.ps	a5
    3271:	002010        	rsync
    3274:	7a2081        	l32r	a8, 0xfffe1af4
    3277:	3888      	l32i.n	a8, a8, 12
    3279:	03bd      	mov.n	a11, a3
    327b:	0008e0        	excw
    327e:	0a2d      	mov.n	a2, a10
    3280:	f01d      	excw
    3282:	7a5581        	l32r	a8, 0xfffe1bd8
    3285:	172882        	l32i	a8, a8, 92
    3288:	03bd      	mov.n	a11, a3
    328a:	0008e0        	excw
    328d:	13e650        	wsr.ps	a5
    3290:	002010        	rsync
    3293:	020c      	movi.n	a2, 0
    3295:	f01d      	excw
    3297:	413600        	srli	a3, a0, 6
    329a:	e26600        	excw
    329d:	411c      	movi.n	a1, 20
    329f:	887a55        	excw
    32a2:	08e054        	excw
    32a5:	0a2d00        	excw
    32a8:	fa8c      	beqz.n	a10, 0x32bb
    32aa:	03bd      	mov.n	a11, a3
    32ac:	0c1c      	movi.n	a12, 16
    32ae:	05bb65        	excw
    32b1:	02ad      	mov.n	a10, a2
    32b3:	8488      	l32i.n	a8, a4, 32
    32b5:	7a5fb1        	l32r	a11, 0xfffe1c34
    32b8:	0008e0        	excw
    32bb:	f01d      	excw
    32bd:	000000        	ill
    32c0:	008136        	excw
    32c3:	7a5731        	l32r	a3, 0xfffe1c20
    32c6:	0020c0        	memw
    32c9:	9e2342        	l32i	a4, a3, 0x278
    32cc:	0020c0        	memw
    32cf:	9a2322        	l32i	a2, a3, 0x268
    32d2:	7a5561        	l32r	a6, 0xfffe1c28
    32d5:	24c216        	beqz	a2, 0x3525
    32d8:	7a5671        	l32r	a7, 0xfffe1c30
    32db:	0020c0        	memw
    32de:	9e6342        	s32i	a4, a3, 0x278
    32e1:	e87c      	movi.n	a8, -2
    32e3:	108280        	and	a8, a2, a8
    32e6:	0020c0        	memw
    32e9:	9a6382        	s32i	a8, a3, 0x268
    32ec:	5a62a7        	bbci	a2, 10, 0x334a
    32ef:	0020c0        	memw
    32f2:	220752        	l8ui	a5, a7, 34
    32f5:	1e0c      	movi.n	a14, 1
    32f7:	a123d2        	l32i	a13, a3, 0x284
    32fa:	090c      	movi.n	a9, 0
    32fc:	04fcd0        	extui	a15, a13, 12, 1
    32ff:	839ef0        	moveqz	a9, a14, a15
    3302:	224792        	s8i	a9, a7, 34
    3305:	12edc7        	bbsi	a13, 12, 0x331b
    3308:	7a6081        	l32r	a8, 0xfffe1c88
    330b:	8888      	l32i.n	a8, a8, 32
    330d:	0a1866        	bnei	a8, 1, 0x331b
    3310:	1e2682        	l32i	a8, a6, 120
    3313:	2a0c      	movi.n	a10, 2
    3315:	0008e0        	excw
    3318:	220792        	l8ui	a9, a7, 34
    331b:	2b1966        	bnei	a9, 1, 0x334a
    331e:	85ec      	bnez.n	a5, 0x334a
    3320:	7a61c1        	l32r	a12, 0xfffe1ca4
    3323:	7a62a1        	l32r	a10, 0xfffe1cac
    3326:	190c      	movi.n	a9, 1
    3328:	7a4081        	l32r	a8, 0xfffe1c28
    332b:	7a59d1        	l32r	a13, 0xfffe1c90
    332e:	7888      	l32i.n	a8, a8, 28
    3330:	5dd8      	l32i.n	a13, a13, 20
    3332:	1a6a92        	s32i	a9, a10, 104
    3335:	000cb2        	l8ui	a11, a12, 0
    3338:	9a0c      	movi.n	a10, 9
    333a:	93b9d0        	movnez	a11, a9, a13
    333d:	004cb2        	s8i	a11, a12, 0
    3340:	0d0c      	movi.n	a13, 0
    3342:	16a2b2        	movi	a11, 0x216
    3345:	0c0c      	movi.n	a12, 0
    3347:	0008e0        	excw
    334a:	0b6217        	bbci	a2, 1, 0x3359
    334d:	0020c0        	memw
    3350:	a023e2        	l32i	a14, a3, 0x280
    3353:	0020c0        	memw
    3356:	a063e2        	s32i	a14, a3, 0x280
    3359:	7a5851        	l32r	a5, 0xfffe1cbc
    335c:	190c      	movi.n	a9, 1
    335e:	ffd552        	addmi	a5, a5, 0xffffff00
    3361:	1e6287        	bbci	a2, 8, 0x3383
    3364:	214792        	s8i	a9, a7, 33
    3367:	7a5891        	l32r	a9, 0xfffe1cc8
    336a:	7a63c1        	l32r	a12, 0xfffe1cf8
    336d:	6b2982        	l32i	a8, a9, 0x1ac
    3370:	180ca2        	l8ui	a10, a12, 24
    3373:	881b      	addi.n	a8, a8, 1
    3375:	6b6982        	s32i	a8, a9, 0x1ac
    3378:	7a8c      	beqz.n	a10, 0x3383
    337a:	172682        	l32i	a8, a6, 92
    337d:	1cccb2        	addi	a11, a12, 28
    3380:	0008e0        	excw
    3383:	00a292        	movi	a9, 0x200
    3386:	109290        	and	a9, a2, a9
    3389:	1199      	s32i.n	a9, a1, 4
    338b:	236297        	bbci	a2, 9, 0x33b2
    338e:	0020c0        	memw
    3391:	9f23a2        	l32i	a10, a3, 0x27c
    3394:	10a4a0        	and	a10, a4, a10
    3397:	176a07        	bbci	a10, 0, 0x33b2
    339a:	7a60b1        	l32r	a11, 0xfffe1d1c
    339d:	8bb8      	l32i.n	a11, a11, 32
    339f:	071b66        	bnei	a11, 1, 0x33aa
    33a2:	1e2682        	l32i	a8, a6, 120
    33a5:	3a0c      	movi.n	a10, 3
    33a7:	0008e0        	excw
    33aa:	242682        	l32i	a8, a6, 144
    33ad:	0a0c      	movi.n	a10, 0
    33af:	0008e0        	excw
    33b2:	196237        	bbci	a2, 3, 0x33cf
    33b5:	7a6091        	l32r	a9, 0xfffe1d38
    33b8:	8998      	l32i.n	a9, a9, 32
    33ba:	19dc      	bnez.n	a9, 0x33cf
    33bc:	1a0c      	movi.n	a10, 1
    33be:	1e2682        	l32i	a8, a6, 120
    33c1:	af2592        	l32i	a9, a5, 0x2bc
    33c4:	7a58b1        	l32r	a11, 0xfffe1d24
    33c7:	991b      	addi.n	a9, a9, 1
    33c9:	6f6b92        	s32i	a9, a11, 0x1bc
    33cc:	0008e0        	excw
    33cf:	11a8      	l32i.n	a10, a1, 4
    33d1:	123a16        	beqz	a10, 0x34f8
    33d4:	0020c0        	memw
    33d7:	9f2392        	l32i	a9, a3, 0x27c
    33da:	109940        	and	a9, a9, a4
    33dd:	6b6957        	bbci	a9, 5, 0x344c
    33e0:	0020c0        	memw
    33e3:	7a64b1        	l32r	a11, 0xfffe1d74
    33e6:	a12382        	l32i	a8, a3, 0x284
    33e9:	140c      	movi.n	a4, 1
    33eb:	348880        	extui	a8, a8, 8, 4
    33ee:	401800        	ssl	a8
    33f1:	a14400        	sll	a4, a4
    33f4:	11a400        	slli	a10, a4, 16
    33f7:	10aab0        	and	a10, a10, a11
    33fa:	41a9      	s32i.n	a10, a1, 16
    33fc:	0020c0        	memw
    33ff:	9723c2        	l32i	a12, a3, 0x25c
    3402:	20cca0        	or	a12, a12, a10
    3405:	0020c0        	memw
    3408:	9763c2        	s32i	a12, a3, 0x25c
    340b:	0020c0        	memw
    340e:	9723b2        	l32i	a11, a3, 0x25c
    3411:	5199      	s32i.n	a9, a1, 20
    3413:	10b4b0        	and	a11, a4, a11
    3416:	f4b0b0        	extui	a11, a11, 0, 16
    3419:	9bdc      	bnez.n	a11, 0x3436
    341b:	7a6581        	l32r	a8, 0xfffe1db0
    341e:	6888      	l32i.n	a8, a8, 24
    3420:	1a0c      	movi.n	a10, 1
    3422:	0008e0        	excw
    3425:	0020c0        	memw
    3428:	972392        	l32i	a9, a3, 0x25c
    342b:	109490        	and	a9, a4, a9
    342e:	f49090        	extui	a9, a9, 0, 16
    3431:	fe6916        	beqz	a9, 0x341b
    3434:	41a8      	l32i.n	a10, a1, 16
    3436:	fc7c      	movi.n	a12, -1
    3438:	5198      	l32i.n	a9, a1, 20
    343a:	30cac0        	xor	a12, a10, a12
    343d:	0020c0        	memw
    3440:	9723b2        	l32i	a11, a3, 0x25c
    3443:	10bbc0        	and	a11, a11, a12
    3446:	0020c0        	memw
    3449:	9763b2        	s32i	a11, a3, 0x25c
    344c:	02e987        	bbsi	a9, 8, 0x3452
    344f:	002246        	j	0x34dc
    3452:	0020c0        	memw
    3455:	5199      	s32i.n	a9, a1, 20
    3457:	9923e2        	l32i	a14, a3, 0x264
    345a:	7a60d1        	l32r	a13, 0xfffe1ddc
    345d:	f5e0e0        	extui	a14, a14, 16, 16
    3460:	8dd8      	l32i.n	a13, a13, 32
    3462:	21e9      	s32i.n	a14, a1, 8
    3464:	06ad56        	bnez	a13, 0x34d2
    3467:	fea062        	movi	a6, 254
    346a:	290792        	l8ui	a9, a7, 41
    346d:	ffa0e2        	movi	a14, 255
    3470:	c0e9e0        	sub	a14, a9, a14
    3473:	0bde56        	bnez	a14, 0x3534
    3476:	21f8      	l32i.n	a15, a1, 8
    3478:	056f16        	beqz	a15, 0x34d2
    347b:	030c      	movi.n	a3, 0
    347d:	118fc0        	slli	a8, a15, 4
    3480:	0189      	s32i.n	a8, a1, 0
    3482:	7a5991        	l32r	a9, 0xfffe1de8
    3485:	4225c2        	l32i	a12, a5, 0x108
    3488:	142992        	l32i	a9, a9, 80
    348b:	cc3a      	add.n	a12, a12, a3
    348d:	2a7907        	bbci	a9, 16, 0x34bb
    3490:	040ca2        	l8ui	a10, a12, 4
    3493:	4c4b      	addi.n	a4, a12, 4
    3495:	111a67        	beq	a10, a6, 0x34aa
    3498:	9a0c      	movi.n	a10, 9
    349a:	7a4081        	l32r	a8, 0xfffe1d9c
    349d:	1ea2b2        	movi	a11, 0x21e
    34a0:	7888      	l32i.n	a8, a8, 28
    34a2:	0d1c      	movi.n	a13, 16
    34a4:	0008e0        	excw
    34a7:	000286        	j	0x34b5
    34aa:	b12592        	l32i	a9, a5, 0x2c4
    34ad:	7a58a1        	l32r	a10, 0xfffe1e10
    34b0:	991b      	addi.n	a9, a9, 1
    34b2:	716a92        	s32i	a9, a10, 0x1c4
    34b5:	004462        	s8i	a6, a4, 0
    34b8:	000386        	j	0x34ca
    34bb:	9a0c      	movi.n	a10, 9
    34bd:	7a4081        	l32r	a8, 0xfffe1dc0
    34c0:	1ea2b2        	movi	a11, 0x21e
    34c3:	7888      	l32i.n	a8, a8, 28
    34c5:	0d1c      	movi.n	a13, 16
    34c7:	0008e0        	excw
    34ca:	0198      	l32i.n	a9, a1, 0
    34cc:	10c332        	addi	a3, a3, 16
    34cf:	af9397        	bne	a3, a9, 0x3482
    34d2:	5198      	l32i.n	a9, a1, 20
    34d4:	7a5561        	l32r	a6, 0xfffe1e28
    34d7:	21b8      	l32i.n	a11, a1, 8
    34d9:	2947b2        	s8i	a11, a7, 41
    34dc:	1869c7        	bbci	a9, 12, 0x34f8
    34df:	242682        	l32i	a8, a6, 144
    34e2:	1a0c      	movi.n	a10, 1
    34e4:	0008e0        	excw
    34e7:	0a1c      	movi.n	a10, 16
    34e9:	86a3b2        	movi	a11, 0x386
    34ec:	7a4081        	l32r	a8, 0xfffe1dec
    34ef:	0c0c      	movi.n	a12, 0
    34f1:	7888      	l32i.n	a8, a8, 28
    34f3:	0d0c      	movi.n	a13, 0
    34f5:	0008e0        	excw
    34f8:	0a6227        	bbci	a2, 2, 0x3506
    34fb:	b02592        	l32i	a9, a5, 0x2c0
    34fe:	7a58a1        	l32r	a10, 0xfffe1e60
    3501:	991b      	addi.n	a9, a9, 1
    3503:	706a92        	s32i	a9, a10, 0x1c0
    3506:	0a6277        	bbci	a2, 7, 0x3514
    3509:	ac25a2        	l32i	a10, a5, 0x2b0
    350c:	7a58b1        	l32r	a11, 0xfffe1e6c
    350f:	aa1b      	addi.n	a10, a10, 1
    3511:	6c6ba2        	s32i	a10, a11, 0x1b0
    3514:	0a6257        	bbci	a2, 5, 0x3522
    3517:	ad25b2        	l32i	a11, a5, 0x2b4
    351a:	7a58c1        	l32r	a12, 0xfffe1e7c
    351d:	bb1b      	addi.n	a11, a11, 1
    351f:	6d6cb2        	s32i	a11, a12, 0x1b4
    3522:	01e247        	bbsi	a2, 4, 0x3527
    3525:	f01d      	excw
    3527:	ae25c2        	l32i	a12, a5, 0x2b8
    352a:	7a58d1        	l32r	a13, 0xfffe1e8c
    352d:	cc1b      	addi.n	a12, a12, 1
    352f:	6e6dc2        	s32i	a12, a13, 0x1b8
    3532:	f01d      	excw
    3534:	21d8      	l32i.n	a13, a1, 8
    3536:	c0dd90        	sub	a13, a13, a9
    3539:	24d0d0        	extui	a13, a13, 0, 3
    353c:	31d9      	s32i.n	a13, a1, 12
    353e:	f90d16        	beqz	a13, 0x34d2
    3541:	7a59a1        	l32r	a10, 0xfffe1ea8
    3544:	030c      	movi.n	a3, 0
    3546:	142ae2        	l32i	a14, a10, 80
    3549:	2907d2        	l8ui	a13, a7, 41
    354c:	4225c2        	l32i	a12, a5, 0x108
    354f:	d3da      	add.n	a13, a3, a13
    3551:	24d0d0        	extui	a13, a13, 0, 3
    3554:	11ddc0        	slli	a13, a13, 4
    3557:	ccda      	add.n	a12, a12, a13
    3559:	2d7e07        	bbci	a14, 16, 0x358a
    355c:	040ce2        	l8ui	a14, a12, 4
    355f:	4c4b      	addi.n	a4, a12, 4
    3561:	141e67        	beq	a14, a6, 0x3579
    3564:	9a0c      	movi.n	a10, 9
    3566:	7a4081        	l32r	a8, 0xfffe1e68
    3569:	1ea2b2        	movi	a11, 0x21e
    356c:	7888      	l32i.n	a8, a8, 28
    356e:	0d1c      	movi.n	a13, 16
    3570:	0008e0        	excw
    3573:	7a59a1        	l32r	a10, 0xfffe1ed8
    3576:	000286        	j	0x3584
    3579:	b12592        	l32i	a9, a5, 0x2c4
    357c:	7a58b1        	l32r	a11, 0xfffe1edc
    357f:	991b      	addi.n	a9, a9, 1
    3581:	716b92        	s32i	a9, a11, 0x1c4
    3584:	004462        	s8i	a6, a4, 0
    3587:	000446        	j	0x359c
    358a:	9a0c      	movi.n	a10, 9
    358c:	7a4081        	l32r	a8, 0xfffe1e8c
    358f:	1ea2b2        	movi	a11, 0x21e
    3592:	7888      	l32i.n	a8, a8, 28
    3594:	0d1c      	movi.n	a13, 16
    3596:	0008e0        	excw
    3599:	7a59a1        	l32r	a10, 0xfffe1f00
    359c:	3198      	l32i.n	a9, a1, 12
    359e:	331b      	addi.n	a3, a3, 1
    35a0:	a29397        	bne	a3, a9, 0x3546
    35a3:	ffcac6        	j	0x34d2
    35a6:	360000        	excw
    35a9:	bd0041        	l32r	a4, 0xffff29ac
    35ac:	662102        	l32i	a0, a1, 0x198
    35af:	0c7a      	add.n	a0, a12, a7
    35b1:	adac      	beqz.n	a13, 0x35df
    35b3:	8ae502        	excw
    35b6:	190c05        	call0	0x1c678
    35b9:	02ad      	mov.n	a10, a2
    35bb:	7a1581        	l32r	a8, 0xfffe1e10
    35be:	7a2021        	l32r	a2, 0xfffe1e40
    35c1:	332882        	l32i	a8, a8, 204
    35c4:	004292        	s8i	a9, a2, 0
    35c7:	0008e0        	excw
    35ca:	7a1181        	l32r	a8, 0xfffe1e10
    35cd:	0a0c      	movi.n	a10, 0
    35cf:	ea2882        	l32i	a8, a8, 0x3a8
    35d2:	0b0c      	movi.n	a11, 0
    35d4:	0008e0        	excw
    35d7:	090c      	movi.n	a9, 0
    35d9:	004292        	s8i	a9, a2, 0
    35dc:	f01d      	excw
    35de:	360000        	excw
    35e1:	810041        	l32r	a4, 0xfffe39e4
    35e4:	7c7a20        	excw
    35e7:	7809      	s32i.n	a0, a8, 28
    35e9:	9048      	l32i.n	a4, a0, 36
    35eb:	701095        	excw
    35ee:	a034a0        	addx4	a3, a4, a10
    35f1:	2059      	s32i.n	a5, a0, 8
    35f3:	771b      	addi.n	a7, a7, 1
    35f5:	7a6891        	l32r	a9, 0xfffe1f98
    35f8:	0a0c      	movi.n	a10, 0
    35fa:	04b7b6        	bltui	a7, 16, 0x3602
    35fd:	48a9      	s32i.n	a10, a8, 16
    35ff:	000046        	j	0x3604
    3602:	4879      	s32i.n	a7, a8, 16
    3604:	7a6781        	l32r	a8, 0xfffe1fa0
    3607:	1a2992        	l32i	a9, a9, 104
    360a:	108580        	and	a8, a5, a8
    360d:	355650        	extui	a5, a5, 22, 4
    3610:	79b597        	bgeu	a5, a9, 0x368d
    3613:	78a162        	movi	a6, 0x178
    3616:	c16560        	mul16u	a6, a5, a6
    3619:	7a6951        	l32r	a5, 0xfffe1fc0
    361c:	556a      	add.n	a5, a5, a6
    361e:	800552        	l8ui	a5, a5, 128
    3621:	745050        	extui	a5, a5, 0, 8
    3624:	1155b0        	slli	a5, a5, 5
    3627:	205850        	or	a5, a8, a5
    362a:	000046        	j	0x362f
    362d:	085d      	mov.n	a5, a8
    362f:	0239      	s32i.n	a3, a2, 0
    3631:	1249      	s32i.n	a4, a2, 4
    3633:	32a9      	s32i.n	a10, a2, 12
    3635:	047450        	extui	a7, a5, 4, 1
    3638:	748550        	extui	a8, a5, 5, 8
    363b:	7a6ab1        	l32r	a11, 0xfffe1fe4
    363e:	056550        	extui	a6, a5, 21, 1
    3641:	749d50        	extui	a9, a5, 13, 8
    3644:	119950        	slli	a9, a9, 11
    3647:	116660        	slli	a6, a6, 10
    364a:	1099b0        	and	a9, a9, a11
    364d:	7a6bb1        	l32r	a11, 0xfffe1ffc
    3650:	0188d0        	slli	a8, a8, 19
    3653:	1088b0        	and	a8, a8, a11
    3656:	208890        	or	a8, a8, a9
    3659:	7a6cb1        	l32r	a11, 0xfffe200c
    365c:	019540        	slli	a9, a5, 28
    365f:	1099b0        	and	a9, a9, a11
    3662:	7a6db1        	l32r	a11, 0xfffe2018
    3665:	017750        	slli	a7, a7, 27
    3668:	1077b0        	and	a7, a7, a11
    366b:	207790        	or	a7, a7, a9
    366e:	207780        	or	a7, a7, a8
    3671:	c0a392        	movi	a9, 0x3c0
    3674:	358650        	extui	a8, a5, 22, 4
    3677:	1188a0        	slli	a8, a8, 6
    367a:	108890        	and	a8, a8, a9
    367d:	00a492        	movi	a9, 0x400
    3680:	106690        	and	a6, a6, a9
    3683:	206680        	or	a6, a6, a8
    3686:	206670        	or	a6, a6, a7
    3689:	2269      	s32i.n	a6, a2, 8
    368b:	f01d      	excw
    368d:	7a6eb1        	l32r	a11, 0xfffe2048
    3690:	000bc2        	l8ui	a12, a11, 0
    3693:	cc9a      	add.n	a12, a12, a9
    3695:	94b5c7        	bgeu	a5, a12, 0x362d
    3698:	f40b52        	l8ui	a5, a11, 244
    369b:	ffe086        	j	0x3621
    369e:	360000        	excw
    36a1:	410041        	l32r	a4, 0xfffd3aa4
    36a4:	c07a57        	bbci	a10, 21, 0x3668
    36a7:	420020        	excw
    36aa:	81a124        	excw
    36ad:	7a59      	s32i.n	a5, a10, 28
    36af:	25e4c7        	bbsi	a4, 12, 0x36d8
    36b2:	142882        	l32i	a8, a8, 80
    36b5:	7a6861        	l32r	a6, 0xfffe2058
    36b8:	1c6877        	bbci	a8, 7, 0x36d8
    36bb:	1a2662        	l32i	a6, a6, 104
    36be:	78a142        	movi	a4, 0x178
    36c1:	50b267        	bgeu	a2, a6, 0x3715
    36c4:	c14240        	mul16u	a4, a2, a4
    36c7:	7a6f21        	l32r	a2, 0xfffe2084
    36ca:	224a      	add.n	a2, a2, a4
    36cc:	850262        	l8ui	a6, a2, 133
    36cf:	3d9222        	l16si	a2, a2, 122
    36d2:	212820        	srai	a2, a2, 8
    36d5:	000206        	j	0x36e1
    36d8:	020c      	movi.n	a2, 0
    36da:	f01d      	excw
    36dc:	060c      	movi.n	a6, 0
    36de:	81af22        	movi	a2, -127
    36e1:	7a7041        	l32r	a4, 0xfffe20a4
    36e4:	639c      	beqz.n	a3, 0x36fe
    36e6:	142326        	beqi	a3, 2, 0x36fe
    36e9:	114326        	beqi	a3, 4, 0x36fe
    36ec:	0eb326        	beqi	a3, 16, 0x36fe
    36ef:	151c      	movi.n	a5, 17
    36f1:	091357        	beq	a3, a5, 0x36fe
    36f4:	281c      	movi.n	a8, 18
    36f6:	041387        	beq	a3, a8, 0x36fe
    36f9:	391c      	movi.n	a9, 19
    36fb:	029397        	bne	a3, a9, 0x3701
    36fe:	81af22        	movi	a2, -127
    3701:	013680        	slli	a3, a6, 24
    3704:	103340        	and	a3, a3, a4
    3707:	7a7141        	l32r	a4, 0xfffe20cc
    370a:	112200        	slli	a2, a2, 16
    370d:	102240        	and	a2, a2, a4
    3710:	202230        	or	a2, a2, a3
    3713:	f01d      	excw
    3715:	7a6e71        	l32r	a7, 0xfffe20d0
    3718:	000752        	l8ui	a5, a7, 0
    371b:	2c2742        	l32i	a4, a7, 176
    371e:	556a      	add.n	a5, a5, a6
    3720:	b8b257        	bgeu	a2, a5, 0x36dc
    3723:	78a162        	movi	a6, 0x178
    3726:	c12260        	mul16u	a2, a2, a6
    3729:	f40762        	l8ui	a6, a7, 244
    372c:	242a      	add.n	a2, a4, a2
    372e:	5e9222        	l16si	a2, a2, 188
    3731:	ffe746        	j	0x36d2
    3734:	004136        	excw
    3737:	7a5781        	l32r	a8, 0xfffe2094
    373a:	0020c0        	memw
    373d:	a12882        	l32i	a8, a8, 0x284
    3740:	7a5651        	l32r	a5, 0xfffe2098
    3743:	38e8c7        	bbsi	a8, 12, 0x377f
    3746:	2305b2        	l8ui	a11, a5, 35
    3749:	7a5531        	l32r	a3, 0xfffe20a0
    374c:	7bac      	beqz.n	a11, 0x3777
    374e:	2d1b26        	beqi	a11, 1, 0x377f
    3751:	2c2b26        	beqi	a11, 2, 0x3781
    3754:	840c      	movi.n	a4, 8
    3756:	313b26        	beqi	a11, 3, 0x378b
    3759:	244b26        	beqi	a11, 4, 0x3781
    375c:	575b26        	beqi	a11, 5, 0x37b7
    375f:	1c6b26        	beqi	a11, 6, 0x377f
    3762:	3a7b26        	beqi	a11, 7, 0x37a0
    3765:	168b26        	beqi	a11, 8, 0x377f
    3768:	990c      	movi.n	a9, 9
    376a:	119b97        	bne	a11, a9, 0x377f
    376d:	4a2382        	l32i	a8, a3, 0x128
    3770:	02ad      	mov.n	a10, a2
    3772:	0008e0        	excw
    3775:	f01d      	excw
    3777:	3b2382        	l32i	a8, a3, 236
    377a:	02ad      	mov.n	a10, a2
    377c:	0008e0        	excw
    377f:	f01d      	excw
    3781:	3a2382        	l32i	a8, a3, 232
    3784:	02ad      	mov.n	a10, a2
    3786:	0008e0        	excw
    3789:	f01d      	excw
    378b:	392382        	l32i	a8, a3, 228
    378e:	02ad      	mov.n	a10, a2
    3790:	0008e0        	excw
    3793:	02ad      	mov.n	a10, a2
    3795:	4f2382        	l32i	a8, a3, 0x13c
    3798:	3b0c      	movi.n	a11, 3
    379a:	0008e0        	excw
    379d:	000446        	j	0x37b2
    37a0:	392382        	l32i	a8, a3, 228
    37a3:	02ad      	mov.n	a10, a2
    37a5:	0008e0        	excw
    37a8:	02ad      	mov.n	a10, a2
    37aa:	4f2382        	l32i	a8, a3, 0x13c
    37ad:	6b0c      	movi.n	a11, 6
    37af:	0008e0        	excw
    37b2:	234542        	s8i	a4, a5, 35
    37b5:	f01d      	excw
    37b7:	392382        	l32i	a8, a3, 228
    37ba:	02ad      	mov.n	a10, a2
    37bc:	0008e0        	excw
    37bf:	02ad      	mov.n	a10, a2
    37c1:	4f2382        	l32i	a8, a3, 0x13c
    37c4:	5b0c      	movi.n	a11, 5
    37c6:	0008e0        	excw
    37c9:	fff946        	j	0x37b2
    37cc:	004136        	excw
    37cf:	02ad      	mov.n	a10, a2
    37d1:	7a2081        	l32r	a8, 0xfffe2054
    37d4:	03bd      	mov.n	a11, a3
    37d6:	04cd      	mov.n	a12, a4
    37d8:	7a7231        	l32r	a3, 0xfffe21a0
    37db:	78a142        	movi	a4, 0x178
    37de:	c14240        	mul16u	a4, a2, a4
    37e1:	5888      	l32i.n	a8, a8, 20
    37e3:	334a      	add.n	a3, a3, a4
    37e5:	800342        	l8ui	a4, a3, 128
    37e8:	0008e0        	excw
    37eb:	7f0382        	l8ui	a8, a3, 127
    37ee:	8003b2        	l8ui	a11, a3, 128
    37f1:	f88c      	beqz.n	a8, 0x3804
    37f3:	0d14b7        	beq	a4, a11, 0x3804
    37f6:	02ad      	mov.n	a10, a2
    37f8:	7a5581        	l32r	a8, 0xfffe214c
    37fb:	1c0c      	movi.n	a12, 1
    37fd:	f888      	l32i.n	a8, a8, 60
    37ff:	0d0c      	movi.n	a13, 0
    3801:	0008e0        	excw
    3804:	f01d      	excw
    3806:	360000        	excw
    3809:	ad0041        	l32r	a4, 0xfffeec0c
    380c:	6e4102        	s8i	a0, a1, 110
    380f:	817a      	add.n	a8, a1, a7
    3811:	927a20        	excw
    3814:	320104        	excw
    3817:	880004        	excw
    381a:	9a68      	l32i.n	a6, a10, 36
    381c:	08e033        	excw
    381f:	569100        	excw
    3822:	a27a      	add.n	a10, a2, a7
    3824:	2009      	s32i.n	a0, a0, 8
    3826:	2809b2        	l8ui	a11, a9, 40
    3829:	04da16        	beqz	a10, 0x387a
    382c:	04ab56        	bnez	a11, 0x387a
    382f:	3c0c      	movi.n	a12, 3
    3831:	450c27        	bnone	a12, a2, 0x387a
    3834:	010422        	l8ui	a2, a4, 1
    3837:	d30b      	addi.n	a13, a3, -1
    3839:	3db237        	bgeu	a2, a3, 0x387a
    383c:	3a3d27        	bltu	a13, a2, 0x387a
    383f:	d50c      	movi.n	a5, 13
    3841:	7a5561        	l32r	a6, 0xfffe2198
    3844:	78a1f2        	movi	a15, 0x178
    3847:	c1f2f0        	mul16u	a15, a2, a15
    384a:	2c24e2        	l32i	a14, a4, 176
    384d:	eefa      	add.n	a14, a14, a15
    384f:	010ee2        	l8ui	a14, a14, 1
    3852:	199e57        	bne	a14, a5, 0x386f
    3855:	02ad      	mov.n	a10, a2
    3857:	013a25        	excw
    385a:	111a66        	bnei	a10, 1, 0x386f
    385d:	02ad      	mov.n	a10, a2
    385f:	0139a5        	excw
    3862:	1c0c      	movi.n	a12, 1
    3864:	1d0c      	movi.n	a13, 1
    3866:	0abd      	mov.n	a11, a10
    3868:	f688      	l32i.n	a8, a6, 60
    386a:	02ad      	mov.n	a10, a2
    386c:	0008e0        	excw
    386f:	78a1f2        	movi	a15, 0x178
    3872:	221b      	addi.n	a2, a2, 1
    3874:	742020        	extui	a2, a2, 0, 8
    3877:	cc9237        	bne	a2, a3, 0x3847
    387a:	f01d      	excw
    387c:	004136        	excw
    387f:	746040        	extui	a6, a4, 0, 8
    3882:	7a5741        	l32r	a4, 0xfffe21e0
    3885:	0020c0        	memw
    3888:	a12442        	l32i	a4, a4, 0x284
    388b:	751c      	movi.n	a5, 23
    388d:	46e4c7        	bbsi	a4, 12, 0x38d7
    3890:	041357        	beq	a3, a5, 0x3898
    3893:	881c      	movi.n	a8, 24
    3895:	179387        	bne	a3, a8, 0x38b0
    3898:	7a10a1        	l32r	a10, 0xfffe20d8
    389b:	78a1b2        	movi	a11, 0x178
    389e:	c1b2b0        	mul16u	a11, a2, a11
    38a1:	a91c      	movi.n	a9, 26
    38a3:	aaba      	add.n	a10, a10, a11
    38a5:	7f2aa2        	l32i	a10, a10, 0x1fc
    38a8:	2b0c      	movi.n	a11, 2
    38aa:	10aab0        	and	a10, a10, a11
    38ad:	9339a0        	movnez	a3, a9, a10
    38b0:	7a5921        	l32r	a2, 0xfffe2214
    38b3:	1422c2        	l32i	a12, a2, 80
    38b6:	7a6851        	l32r	a5, 0xfffe2258
    38b9:	1a6c77        	bbci	a12, 7, 0x38d7
    38bc:	232a      	add.n	a2, a3, a2
    38be:	2c0222        	l8ui	a2, a2, 44
    38c1:	263366        	bnei	a3, 3, 0x38eb
    38c4:	7a7341        	l32r	a4, 0xfffe2290
    38c7:	2d0442        	l8ui	a4, a4, 45
    38ca:	44cc      	bnez.n	a4, 0x38d2
    38cc:	252582        	l32i	a8, a5, 148
    38cf:	336837        	bbci	a8, 3, 0x3906
    38d2:	160c      	movi.n	a6, 1
    38d4:	000b86        	j	0x3906
    38d7:	020c      	movi.n	a2, 0
    38d9:	f01d      	excw
    38db:	321b      	addi.n	a3, a2, 1
    38dd:	742020        	extui	a2, a2, 0, 8
    38e0:	114380        	slli	a4, a3, 8
    38e3:	104480        	and	a4, a4, a8
    38e6:	202240        	or	a2, a2, a4
    38e9:	f01d      	excw
    38eb:	174366        	bnei	a3, 4, 0x3906
    38ee:	7a7571        	l32r	a7, 0xfffe22c4
    38f1:	000792        	l8ui	a9, a7, 0
    38f4:	79cc      	bnez.n	a9, 0x38ff
    38f6:	252532        	l32i	a3, a5, 148
    38f9:	02e327        	bbsi	a3, 2, 0x38ff
    38fc:	1c7387        	bbci	a3, 24, 0x391c
    38ff:	160c      	movi.n	a6, 1
    3901:	000046        	j	0x3906
    3904:	7979      	s32i.n	a7, a9, 28
    3906:	ffa0b2        	movi	a11, 255
    3909:	041666        	bnei	a6, 1, 0x3911
    390c:	80a0a2        	movi	a10, 128
    390f:	22aa      	add.n	a2, a2, a10
    3911:	7a7481        	l32r	a8, 0xfffe22e4
    3914:	c392b7        	bne	a2, a11, 0x38db
    3917:	023d      	mov.n	a3, a2
    3919:	fff006        	j	0x38dd
    391c:	80c732        	addi	a3, a7, -128
    391f:	3a13c2        	l16ui	a12, a3, 116
    3922:	391332        	l16ui	a3, a3, 114
    3925:	11cc90        	slli	a12, a12, 7
    3928:	d3a3c7        	bge	a3, a12, 0x38ff
    392b:	ffa742        	movi	a4, 0x7ff
    392e:	cd3437        	bltu	a4, a3, 0x38ff
    3931:	7a2091        	l32r	a9, 0xfffe21b4
    3934:	7a77a1        	l32r	a10, 0xfffe2310
    3937:	7a7681        	l32r	a8, 0xfffe2310
    393a:	0020c0        	memw
    393d:	a12882        	l32i	a8, a8, 0x284
    3940:	7978      	l32i.n	a7, a9, 28
    3942:	1088a0        	and	a8, a8, a10
    3945:	637780        	excw
    3948:	c03870        	sub	a3, a8, a7
    394b:	338c      	beqz.n	a3, 0x3952
    394d:	01c3f6        	bgeui	a3, 32, 0x3952
    3950:	160c      	movi.n	a6, 1
    3952:	1fa3a2        	movi	a10, 0x31f
    3955:	abba37        	bgeu	a10, a3, 0x3904
    3958:	7989      	s32i.n	a8, a9, 28
    395a:	ffe846        	j	0x38ff
    395d:	000000        	ill
    3960:	004136        	excw
    3963:	7a5781        	l32r	a8, 0xfffe22c0
    3966:	0020c0        	memw
    3969:	a12882        	l32i	a8, a8, 0x284
    396c:	0fe8c7        	bbsi	a8, 12, 0x397f
    396f:	02ad      	mov.n	a10, a2
    3971:	03bd      	mov.n	a11, a3
    3973:	7a2081        	l32r	a8, 0xfffe21f4
    3976:	04cd      	mov.n	a12, a4
    3978:	8888      	l32i.n	a8, a8, 32
    397a:	05dd      	mov.n	a13, a5
    397c:	0008e0        	excw
    397f:	f01d      	excw
    3981:	000000        	ill
    3984:	004136        	excw
    3987:	7a7841        	l32r	a4, 0xfffe2368
    398a:	78a182        	movi	a8, 0x178
    398d:	c18280        	mul16u	a8, a2, a8
    3990:	448a      	add.n	a4, a4, a8
    3992:	8004b2        	l8ui	a11, a4, 128
    3995:	3a13b7        	beq	a3, a11, 0x39d3
    3998:	022b26        	beqi	a11, 2, 0x399e
    399b:	026b66        	bnei	a11, 6, 0x39a1
    399e:	205326        	beqi	a3, 5, 0x39c2
    39a1:	1a5b26        	beqi	a11, 5, 0x39bf
    39a4:	176b26        	beqi	a11, 6, 0x39bf
    39a7:	7a79c1        	l32r	a12, 0xfffe238c
    39aa:	271326        	beqi	a3, 1, 0x39d5
    39ad:	244326        	beqi	a3, 4, 0x39d5
    39b0:	101b66        	bnei	a11, 1, 0x39c4
    39b3:	3a1c      	movi.n	a10, 19
    39b5:	4c88      	l32i.n	a8, a12, 16
    39b7:	0b0c      	movi.n	a11, 0
    39b9:	0008e0        	excw
    39bc:	000106        	j	0x39c4
    39bf:	e42366        	bnei	a3, 2, 0x39a7
    39c2:	630c      	movi.n	a3, 6
    39c4:	02ad      	mov.n	a10, a2
    39c6:	7a5581        	l32r	a8, 0xfffe231c
    39c9:	804432        	s8i	a3, a4, 128
    39cc:	d888      	l32i.n	a8, a8, 52
    39ce:	1b0c      	movi.n	a11, 1
    39d0:	0008e0        	excw
    39d3:	f01d      	excw
    39d5:	3a1c      	movi.n	a10, 19
    39d7:	4c88      	l32i.n	a8, a12, 16
    39d9:	1b0c      	movi.n	a11, 1
    39db:	0008e0        	excw
    39de:	fff886        	j	0x39c4
    39e1:	000000        	ill
    39e4:	004136        	excw
    39e7:	7a7831        	l32r	a3, 0xfffe23c8
    39ea:	78a1c2        	movi	a12, 0x178
    39ed:	c1c2c0        	mul16u	a12, a2, a12
    39f0:	3c3a      	add.n	a3, a12, a3
    39f2:	800392        	l8ui	a9, a3, 128
    39f5:	7a5541        	l32r	a4, 0xfffe234c
    39f8:	045916        	beqz	a9, 0x3a41
    39fb:	226966        	bnei	a9, 6, 0x3a21
    39fe:	02ad      	mov.n	a10, a2
    3a00:	1b0c      	movi.n	a11, 1
    3a02:	d488      	l32i.n	a8, a4, 52
    3a04:	5d0c      	movi.n	a13, 5
    3a06:	7a7ae1        	l32r	a14, 0xfffe23f0
    3a09:	290c      	movi.n	a9, 2
    3a0b:	ecea      	add.n	a14, a12, a14
    3a0d:	800ee2        	l8ui	a14, a14, 128
    3a10:	ffa0f2        	movi	a15, 255
    3a13:	c0eef0        	sub	a14, a14, a15
    3a16:	939de0        	movnez	a9, a13, a14
    3a19:	804392        	s8i	a9, a3, 128
    3a1c:	0008e0        	excw
    3a1f:	f01d      	excw
    3a21:	021926        	beqi	a9, 1, 0x3a27
    3a24:	0b4966        	bnei	a9, 4, 0x3a33
    3a27:	7a7981        	l32r	a8, 0xfffe240c
    3a2a:	3a1c      	movi.n	a10, 19
    3a2c:	4888      	l32i.n	a8, a8, 16
    3a2e:	0b0c      	movi.n	a11, 0
    3a30:	0008e0        	excw
    3a33:	02ad      	mov.n	a10, a2
    3a35:	d488      	l32i.n	a8, a4, 52
    3a37:	0b0c      	movi.n	a11, 0
    3a39:	0008e0        	excw
    3a3c:	090c      	movi.n	a9, 0
    3a3e:	804392        	s8i	a9, a3, 128
    3a41:	f01d      	excw
    3a43:	613600        	excw
    3a46:	b02000        	addx8	a2, a0, a0
    3a49:	e64074        	excw
    3a4c:	2d0c03        	excw
    3a4f:	34c040        	extui	a12, a4, 0, 4
    3a52:	022dc7        	blt	a13, a12, 0x3a58
    3a55:	006240        	rsil	a4, 2
    3a58:	7a7be1        	l32r	a14, 0xfffe2444
    3a5b:	78a1a2        	movi	a10, 0x178
    3a5e:	c1aba0        	mul16u	a10, a11, a10
    3a61:	7a56c1        	l32r	a12, 0xfffe23bc
    3a64:	eaea      	add.n	a14, a10, a14
    3a66:	ce0e92        	l8ui	a9, a14, 206
    3a69:	200cf2        	l8ui	a15, a12, 32
    3a6c:	0ba916        	beqz	a9, 0x3b2a
    3a6f:	0b7f16        	beqz	a15, 0x3b2a
    3a72:	280c82        	l8ui	a8, a12, 40
    3a75:	0b1856        	bnez	a8, 0x3b2a
    3a78:	1f0c      	movi.n	a15, 1
    3a7a:	7a7cd1        	l32r	a13, 0xfffe246c
    3a7d:	5c0c      	movi.n	a12, 5
    3a7f:	aada      	add.n	a10, a10, a13
    3a81:	6a0a82        	l8ui	a8, a10, 106
    3a84:	7a7dd1        	l32r	a13, 0xfffe2478
    3a87:	1188e0        	slli	a8, a8, 2
    3a8a:	88da      	add.n	a8, a8, a13
    3a8c:	0020c0        	memw
    3a8f:	1d2ad2        	l32i	a13, a10, 116
    3a92:	6b0a22        	l8ui	a2, a10, 107
    3a95:	c50c      	movi.n	a5, 12
    3a97:	0888      	l32i.n	a8, a8, 0
    3a99:	0189      	s32i.n	a8, a1, 0
    3a9b:	0541c2        	s8i	a12, a1, 5
    3a9e:	064192        	s8i	a9, a1, 6
    3aa1:	084132        	s8i	a3, a1, 8
    3aa4:	0741b2        	s8i	a11, a1, 7
    3aa7:	044152        	s8i	a5, a1, 4
    3aaa:	094122        	s8i	a2, a1, 9
    3aad:	04d0d0        	extui	a13, a13, 0, 1
    3ab0:	0a41d2        	s8i	a13, a1, 10
    3ab3:	651366        	bnei	a3, 1, 0x3b1c
    3ab6:	0d0c      	movi.n	a13, 0
    3ab8:	2b0c      	movi.n	a11, 2
    3aba:	743926        	beqi	a9, 3, 0x3b32
    3abd:	5b79e6        	bgei	a9, 7, 0x3b1c
    3ac0:	5859a6        	blti	a9, 5, 0x3b1c
    3ac3:	910ae2        	l8ui	a14, a10, 145
    3ac6:	7a1881        	l32r	a8, 0xfffe2328
    3ac9:	a0eee0        	addx4	a14, a14, a14
    3acc:	b0ee80        	addx8	a14, a14, a8
    3acf:	d50ea2        	l8ui	a10, a14, 213
    3ad2:	ea0e82        	l8ui	a8, a14, 234
    3ad5:	d40e92        	l8ui	a9, a14, 212
    3ad8:	065192        	s16i	a9, a1, 12
    3adb:	0e4182        	s8i	a8, a1, 14
    3ade:	715a26        	beqi	a10, 5, 0x3b53
    3ae1:	736a26        	beqi	a10, 6, 0x3b58
    3ae4:	8d0c      	movi.n	a13, 8
    3ae6:	207a26        	beqi	a10, 7, 0x3b0a
    3ae9:	77aa26        	beqi	a10, 12, 0x3b64
    3aec:	df0c      	movi.n	a15, 13
    3aee:	251af7        	beq	a10, a15, 0x3b17
    3af1:	681c      	movi.n	a8, 22
    3af3:	661a87        	beq	a10, a8, 0x3b5d
    3af6:	791c      	movi.n	a9, 23
    3af8:	631a97        	beq	a10, a9, 0x3b5f
    3afb:	cb1c      	movi.n	a11, 28
    3afd:	681ab7        	beq	a10, a11, 0x3b69
    3b00:	dc1c      	movi.n	a12, 29
    3b02:	169ac7        	bne	a10, a12, 0x3b1c
    3b05:	990c      	movi.n	a9, 9
    3b07:	000386        	j	0x3b19
    3b0a:	661e82        	l16ui	a8, a14, 204
    3b0d:	3f0c      	movi.n	a15, 3
    3b0f:	1088d0        	and	a8, a8, a13
    3b12:	93bf80        	movnez	a11, a15, a8
    3b15:	0bcd      	mov.n	a12, a11
    3b17:	0c9d      	mov.n	a9, a12
    3b19:	0b4192        	s8i	a9, a1, 11
    3b1c:	7a5581        	l32r	a8, 0xfffe2470
    3b1f:	80a0a2        	movi	a10, 128
    3b22:	202882        	l32i	a8, a8, 128
    3b25:	01bd      	mov.n	a11, a1
    3b27:	0008e0        	excw
    3b2a:	13e640        	wsr.ps	a4
    3b2d:	002010        	rsync
    3b30:	f01d      	excw
    3b32:	4c2a92        	l32i	a9, a10, 0x130
    3b35:	146917        	bbci	a9, 1, 0x3b4d
    3b38:	191ea2        	l16ui	a10, a14, 50
    3b3b:	1a1eb2        	l16ui	a11, a14, 52
    3b3e:	171ec2        	l16ui	a12, a14, 46
    3b41:	0651c2        	s16i	a12, a1, 12
    3b44:	0e41b2        	s8i	a11, a1, 14
    3b47:	0f41a2        	s8i	a10, a1, 15
    3b4a:	fff386        	j	0x3b1c
    3b4d:	0651d2        	s16i	a13, a1, 12
    3b50:	fff206        	j	0x3b1c
    3b53:	0d9d      	mov.n	a9, a13
    3b55:	fff006        	j	0x3b19
    3b58:	0fbd      	mov.n	a11, a15
    3b5a:	ffedc6        	j	0x3b15
    3b5d:	6d0c      	movi.n	a13, 6
    3b5f:	0d9d      	mov.n	a9, a13
    3b61:	ffed06        	j	0x3b19
    3b64:	4c0c      	movi.n	a12, 4
    3b66:	ffeb46        	j	0x3b17
    3b69:	790c      	movi.n	a9, 7
    3b6b:	ffea86        	j	0x3b19
    3b6e:	360000        	excw
    3b71:	a10081        	l32r	a8, 0xfffebf74
    3b74:	9d7a57        	bbci	a10, 21, 0x3b15
    3b77:	480c01        	l32r	a0, 0xfffd5ba8
    3b7a:	0ba876        	excw
    3b7d:	0020c0        	memw
    3b80:	a32ab2        	l32i	a11, a10, 0x28c
    3b83:	09b9      	s32i.n	a11, a9, 0
    3b85:	aa4b      	addi.n	a10, a10, 4
    3b87:	994b      	addi.n	a9, a9, 4
    3b89:	7a57e1        	l32r	a14, 0xfffe24e8
    3b8c:	0020c0        	memw
    3b8f:	7a7ec1        	l32r	a12, 0xfffe2588
    3b92:	c42ee2        	l32i	a14, a14, 0x310
    3b95:	78a1d2        	movi	a13, 0x178
    3b98:	c1d4d0        	mul16u	a13, a4, a13
    3b9b:	41e9      	s32i.n	a14, a1, 16
    3b9d:	ccda      	add.n	a12, a12, a13
    3b9f:	800cc2        	l8ui	a12, a12, 128
    3ba2:	01dd      	mov.n	a13, a1
    3ba4:	a0ccd0        	addx4	a12, a12, a13
    3ba7:	0cc8      	l32i.n	a12, a12, 0
    3ba9:	0cb2c7        	bgeu	a2, a12, 0x3bb9
    3bac:	c0ac20        	sub	a10, a12, a2
    3baf:	71a2b2        	movi	a11, 0x271
    3bb2:	0516a5        	excw
    3bb5:	2a1b      	addi.n	a2, a10, 1
    3bb7:	f01d      	excw
    3bb9:	020c      	movi.n	a2, 0
    3bbb:	f01d      	excw
    3bbd:	000000        	ill
    3bc0:	00a136        	excw
    3bc3:	03ad      	mov.n	a10, a3
    3bc5:	1d0c      	movi.n	a13, 1
    3bc7:	7a7fb1        	l32r	a11, 0xfffe25c4
    3bca:	04cd      	mov.n	a12, a4
    3bcc:	970b92        	l8ui	a9, a11, 151
    3bcf:	b5cbb2        	addi	a11, a11, -75
    3bd2:	b099b0        	addx8	a9, a9, a11
    3bd5:	800992        	l8ui	a9, a9, 128
    3bd8:	a80c      	movi.n	a8, 10
    3bda:	02b897        	bgeu	a8, a9, 0x3be0
    3bdd:	005f46        	j	0x3d5e
    3be0:	7a6041        	l32r	a4, 0xfffe2560
    3be3:	7a5561        	l32r	a6, 0xfffe2538
    3be6:	74e8      	l32i.n	a14, a4, 28
    3be8:	fcd472        	addmi	a7, a4, 0xfffffc00
    3beb:	16fe16        	beqz	a14, 0x3d5e
    3bee:	fad4b2        	addmi	a11, a4, 0xfffffa00
    3bf1:	7a39f1        	l32r	a15, 0xfffe24d8
    3bf4:	78a182        	movi	a8, 0x178
    3bf7:	c18280        	mul16u	a8, a2, a8
    3bfa:	7a5631        	l32r	a3, 0xfffe2554
    3bfd:	ff8a      	add.n	a15, a15, a8
    3bff:	71f9      	s32i.n	a15, a1, 28
    3c01:	7f0ff2        	l8ui	a15, a15, 127
    3c04:	61a9      	s32i.n	a10, a1, 24
    3c06:	7d1f66        	bnei	a15, 1, 0x3c87
    3c09:	51d9      	s32i.n	a13, a1, 20
    3c0b:	223a16        	beqz	a10, 0x3e32
    3c0e:	02ad      	mov.n	a10, a2
    3c10:	1b0c      	movi.n	a11, 1
    3c12:	0e0c      	movi.n	a14, 0
    3c14:	2503c2        	l8ui	a12, a3, 37
    3c17:	fb27f2        	l32i	a15, a7, 0x3ec
    3c1a:	41d9      	s32i.n	a13, a1, 16
    3c1c:	fc2792        	l32i	a9, a7, 0x3f0
    3c1f:	0199      	s32i.n	a9, a1, 0
    3c21:	2d2682        	l32i	a8, a6, 180
    3c24:	05dd      	mov.n	a13, a5
    3c26:	0008e0        	excw
    3c29:	fe2742        	l32i	a4, a7, 0x3f8
    3c2c:	fd27f2        	l32i	a15, a7, 0x3f4
    3c2f:	2d26b2        	l32i	a11, a6, 180
    3c32:	81b9      	s32i.n	a11, a1, 32
    3c34:	23b516        	beqz	a5, 0x3e73
    3c37:	02ad      	mov.n	a10, a2
    3c39:	0b0c      	movi.n	a11, 0
    3c3b:	05dd      	mov.n	a13, a5
    3c3d:	0e0c      	movi.n	a14, 0
    3c3f:	2503c2        	l8ui	a12, a3, 37
    3c42:	8188      	l32i.n	a8, a1, 32
    3c44:	0149      	s32i.n	a4, a1, 0
    3c46:	0008e0        	excw
    3c49:	7a8091        	l32r	a9, 0xfffe264c
    3c4c:	ec2992        	l32i	a9, a9, 0x3b0
    3c4f:	121916        	beqz	a9, 0x3d74
    3c52:	02ad      	mov.n	a10, a2
    3c54:	1b0c      	movi.n	a11, 1
    3c56:	05dd      	mov.n	a13, a5
    3c58:	2503c2        	l8ui	a12, a3, 37
    3c5b:	7a6041        	l32r	a4, 0xfffe25dc
    3c5e:	ff27f2        	l32i	a15, a7, 0x3fc
    3c61:	0498      	l32i.n	a9, a4, 0
    3c63:	0199      	s32i.n	a9, a1, 0
    3c65:	2d2682        	l32i	a8, a6, 180
    3c68:	0e0c      	movi.n	a14, 0
    3c6a:	0008e0        	excw
    3c6d:	02ad      	mov.n	a10, a2
    3c6f:	0b0c      	movi.n	a11, 0
    3c71:	05dd      	mov.n	a13, a5
    3c73:	14f8      	l32i.n	a15, a4, 4
    3c75:	2503c2        	l8ui	a12, a3, 37
    3c78:	2498      	l32i.n	a9, a4, 8
    3c7a:	0199      	s32i.n	a9, a1, 0
    3c7c:	2d2682        	l32i	a8, a6, 180
    3c7f:	0e0c      	movi.n	a14, 0
    3c81:	0008e0        	excw
    3c84:	003b06        	j	0x3d74
    3c87:	41d9      	s32i.n	a13, a1, 16
    3c89:	61a9      	s32i.n	a10, a1, 24
    3c8b:	7a20d1        	l32r	a13, 0xfffe250c
    3c8e:	160a16        	beqz	a10, 0x3df2
    3c91:	34f8      	l32i.n	a15, a4, 12
    3c93:	2d26a2        	l32i	a10, a6, 180
    3c96:	81a9      	s32i.n	a10, a1, 32
    3c98:	137516        	beqz	a5, 0x3dd3
    3c9b:	02ad      	mov.n	a10, a2
    3c9d:	0b0c      	movi.n	a11, 0
    3c9f:	05dd      	mov.n	a13, a5
    3ca1:	1e0c      	movi.n	a14, 1
    3ca3:	2503c2        	l8ui	a12, a3, 37
    3ca6:	fe2792        	l32i	a9, a7, 0x3f8
    3ca9:	8188      	l32i.n	a8, a1, 32
    3cab:	0199      	s32i.n	a9, a1, 0
    3cad:	0008e0        	excw
    3cb0:	7a80a1        	l32r	a10, 0xfffe26b0
    3cb3:	ec2aa2        	l32i	a10, a10, 0x3b0
    3cb6:	0baa16        	beqz	a10, 0x3d74
    3cb9:	02ad      	mov.n	a10, a2
    3cbb:	1b0c      	movi.n	a11, 1
    3cbd:	05dd      	mov.n	a13, a5
    3cbf:	fb27f2        	l32i	a15, a7, 0x3ec
    3cc2:	2503c2        	l8ui	a12, a3, 37
    3cc5:	fc2792        	l32i	a9, a7, 0x3f0
    3cc8:	0199      	s32i.n	a9, a1, 0
    3cca:	2d2682        	l32i	a8, a6, 180
    3ccd:	1e0c      	movi.n	a14, 1
    3ccf:	0008e0        	excw
    3cd2:	02ad      	mov.n	a10, a2
    3cd4:	0b0c      	movi.n	a11, 0
    3cd6:	05dd      	mov.n	a13, a5
    3cd8:	2503c2        	l8ui	a12, a3, 37
    3cdb:	14f8      	l32i.n	a15, a4, 4
    3cdd:	2498      	l32i.n	a9, a4, 8
    3cdf:	0199      	s32i.n	a9, a1, 0
    3ce1:	2d2682        	l32i	a8, a6, 180
    3ce4:	1e0c      	movi.n	a14, 1
    3ce6:	0008e0        	excw
    3ce9:	0021c6        	j	0x3d74
    3cec:	040c      	movi.n	a4, 0
    3cee:	0c0c      	movi.n	a12, 0
    3cf0:	fb27a2        	l32i	a10, a7, 0x3ec
    3cf3:	fc27b2        	l32i	a11, a7, 0x3f0
    3cf6:	621ba7        	beq	a11, a10, 0x3d5c
    3cf9:	02cd      	mov.n	a12, a2
    3cfb:	ffe765        	excw
    3cfe:	0e0c      	movi.n	a14, 0
    3d00:	7a81c1        	l32r	a12, 0xfffe2704
    3d03:	fb27f2        	l32i	a15, a7, 0x3ec
    3d06:	fc27b2        	l32i	a11, a7, 0x3f0
    3d09:	71a2d2        	movi	a13, 0x271
    3d0c:	270392        	l8ui	a9, a3, 39
    3d0f:	82dad0        	mull	a13, a10, a13
    3d12:	02ad      	mov.n	a10, a2
    3d14:	990b      	addi.n	a9, a9, -1
    3d16:	bbda      	add.n	a11, a11, a13
    3d18:	ffda      	add.n	a15, a15, a13
    3d1a:	7b6cf2        	s32i	a15, a12, 0x1ec
    3d1d:	7c6cb2        	s32i	a11, a12, 0x1f0
    3d20:	05dd      	mov.n	a13, a5
    3d22:	2503c2        	l8ui	a12, a3, 37
    3d25:	01b9      	s32i.n	a11, a1, 0
    3d27:	1b0c      	movi.n	a11, 1
    3d29:	2d2682        	l32i	a8, a6, 180
    3d2c:	83eb90        	moveqz	a14, a11, a9
    3d2f:	0008e0        	excw
    3d32:	204a40        	or	a4, a10, a4
    3d35:	7a2081        	l32r	a8, 0xfffe25b8
    3d38:	7a59e1        	l32r	a14, 0xfffe269c
    3d3b:	fc27f2        	l32i	a15, a7, 0x3f0
    3d3e:	142ee2        	l32i	a14, a14, 80
    3d41:	18f9      	s32i.n	a15, a8, 4
    3d43:	136e97        	bbci	a14, 9, 0x3d5a
    3d46:	2203f2        	l8ui	a15, a3, 34
    3d49:	0d1f66        	bnei	a15, 1, 0x3d5a
    3d4c:	a48c      	beqz.n	a4, 0x3d5a
    3d4e:	60a0a2        	movi	a10, 96
    3d51:	202682        	l32i	a8, a6, 128
    3d54:	10c1b2        	addi	a11, a1, 16
    3d57:	0008e0        	excw
    3d5a:	1c0c      	movi.n	a12, 1
    3d5c:	4cdc      	bnez.n	a12, 0x3d74
    3d5e:	f01d      	excw
    3d60:	fe2742        	l32i	a4, a7, 0x3f8
    3d63:	02ad      	mov.n	a10, a2
    3d65:	0149      	s32i.n	a4, a1, 0
    3d67:	0b0c      	movi.n	a11, 0
    3d69:	ac0c      	movi.n	a12, 10
    3d6b:	05dd      	mov.n	a13, a5
    3d6d:	8188      	l32i.n	a8, a1, 32
    3d6f:	0e0c      	movi.n	a14, 0
    3d71:	0008e0        	excw
    3d74:	05ec      	bnez.n	a5, 0x3d98
    3d76:	7198      	l32i.n	a9, a1, 28
    3d78:	512992        	l32i	a9, a9, 0x144
    3d7b:	19e947        	bbsi	a9, 4, 0x3d98
    3d7e:	e927a2        	l32i	a10, a7, 0x3a4
    3d81:	3adc      	bnez.n	a10, 0x3d98
    3d83:	e827b2        	l32i	a11, a7, 0x3a0
    3d86:	eb8c      	beqz.n	a11, 0x3d98
    3d88:	7a80c1        	l32r	a12, 0xfffe2788
    3d8b:	db2cc2        	l32i	a12, a12, 0x36c
    3d8e:	6ccc      	bnez.n	a12, 0x3d98
    3d90:	7a62e1        	l32r	a14, 0xfffe2718
    3d93:	1d0c      	movi.n	a13, 1
    3d95:	1b6ed2        	s32i	a13, a14, 108
    3d98:	7a59f1        	l32r	a15, 0xfffe26fc
    3d9b:	142ff2        	l32i	a15, a15, 80
    3d9e:	6188      	l32i.n	a8, a1, 24
    3da0:	ba6f97        	bbci	a15, 9, 0x3d5e
    3da3:	fb7816        	beqz	a8, 0x3d5e
    3da6:	7a8091        	l32r	a9, 0xfffe27a8
    3da9:	7a80a1        	l32r	a10, 0xfffe27ac
    3dac:	dc2992        	l32i	a9, a9, 0x370
    3daf:	dd2aa2        	l32i	a10, a10, 0x374
    3db2:	fa8956        	bnez	a9, 0x3d5e
    3db5:	fa5a56        	bnez	a10, 0x3d5e
    3db8:	7a80b1        	l32r	a11, 0xfffe27b8
    3dbb:	db2bb2        	l32i	a11, a11, 0x36c
    3dbe:	f9cb56        	bnez	a11, 0x3d5e
    3dc1:	60a0a2        	movi	a10, 96
    3dc4:	10c1b2        	addi	a11, a1, 16
    3dc7:	290c      	movi.n	a9, 2
    3dc9:	202682        	l32i	a8, a6, 128
    3dcc:	4199      	s32i.n	a9, a1, 16
    3dce:	0008e0        	excw
    3dd1:	f01d      	excw
    3dd3:	1da8      	l32i.n	a10, a13, 4
    3dd5:	87bfa7        	bgeu	a15, a10, 0x3d60
    3dd8:	71a2c2        	movi	a12, 0x271
    3ddb:	04dd      	mov.n	a13, a4
    3ddd:	fe2742        	l32i	a4, a7, 0x3f8
    3de0:	ffca      	add.n	a15, a15, a12
    3de2:	44ca      	add.n	a4, a4, a12
    3de4:	f83fa7        	bltu	a15, a10, 0x3de0
    3de7:	7a81c1        	l32r	a12, 0xfffe27ec
    3dea:	3df9      	s32i.n	a15, a13, 12
    3dec:	7e6c42        	s32i	a4, a12, 0x1f8
    3def:	ffdc06        	j	0x3d63
    3df2:	eb2b82        	l32i	a8, a11, 0x3ac
    3df5:	ef3816        	beqz	a8, 0x3cec
    3df8:	02ad      	mov.n	a10, a2
    3dfa:	0b0c      	movi.n	a11, 0
    3dfc:	05dd      	mov.n	a13, a5
    3dfe:	fd27f2        	l32i	a15, a7, 0x3f4
    3e01:	fe2792        	l32i	a9, a7, 0x3f8
    3e04:	0199      	s32i.n	a9, a1, 0
    3e06:	2d2682        	l32i	a8, a6, 180
    3e09:	0e0c      	movi.n	a14, 0
    3e0b:	0008e0        	excw
    3e0e:	7a59b1        	l32r	a11, 0xfffe2774
    3e11:	142bb2        	l32i	a11, a11, 80
    3e14:	0a4d      	mov.n	a4, a10
    3e16:	136b97        	bbci	a11, 9, 0x3e2d
    3e19:	2203c2        	l8ui	a12, a3, 34
    3e1c:	0d1c66        	bnei	a12, 1, 0x3e2d
    3e1f:	aa8c      	beqz.n	a10, 0x3e2d
    3e21:	60a0a2        	movi	a10, 96
    3e24:	202682        	l32i	a8, a6, 128
    3e27:	10c1b2        	addi	a11, a1, 16
    3e2a:	0008e0        	excw
    3e2d:	1c0c      	movi.n	a12, 1
    3e2f:	ffaf46        	j	0x3cf0
    3e32:	f62556        	bnez	a5, 0x3d98
    3e35:	02ad      	mov.n	a10, a2
    3e37:	0b0c      	movi.n	a11, 0
    3e39:	0e0c      	movi.n	a14, 0
    3e3b:	fd27f2        	l32i	a15, a7, 0x3f4
    3e3e:	41d9      	s32i.n	a13, a1, 16
    3e40:	fe2792        	l32i	a9, a7, 0x3f8
    3e43:	0199      	s32i.n	a9, a1, 0
    3e45:	2d2682        	l32i	a8, a6, 180
    3e48:	05dd      	mov.n	a13, a5
    3e4a:	0008e0        	excw
    3e4d:	7a59b1        	l32r	a11, 0xfffe27b4
    3e50:	142bb2        	l32i	a11, a11, 80
    3e53:	04b9b0        	extui	a11, a11, 9, 1
    3e56:	f1ab16        	beqz	a11, 0x3d74
    3e59:	2203c2        	l8ui	a12, a3, 34
    3e5c:	cc0b      	addi.n	a12, a12, -1
    3e5e:	f12c56        	bnez	a12, 0x3d74
    3e61:	f0fa16        	beqz	a10, 0x3d74
    3e64:	60a0a2        	movi	a10, 96
    3e67:	202682        	l32i	a8, a6, 128
    3e6a:	10c1b2        	addi	a11, a1, 16
    3e6d:	0008e0        	excw
    3e70:	ffc006        	j	0x3d74
    3e73:	02ad      	mov.n	a10, a2
    3e75:	0149      	s32i.n	a4, a1, 0
    3e77:	0b0c      	movi.n	a11, 0
    3e79:	ac0c      	movi.n	a12, 10
    3e7b:	05dd      	mov.n	a13, a5
    3e7d:	8188      	l32i.n	a8, a1, 32
    3e7f:	0e0c      	movi.n	a14, 0
    3e81:	0008e0        	excw
    3e84:	ffbb06        	j	0x3d74
    3e87:	413600        	srli	a3, a0, 6
    3e8a:	832100        	moveqz	a2, a1, a0
    3e8d:	917a      	add.n	a9, a1, a7
    3e8f:	c17a82        	excw
    3e92:	e17a85        	call0	0xfffe563c
    3e95:	817a84        	excw
    3e98:	317a55        	excw
    3e9b:	b27a20        	excw
    3e9e:	2e28      	l32i.n	a2, a14, 8
    3ea0:	83b9      	s32i.n	a11, a3, 32
    3ea2:	202842        	l32i	a4, a8, 128
    3ea5:	1628a2        	l32i	a10, a8, 88
    3ea8:	1028d2        	l32i	a13, a8, 64
    3eab:	1128f2        	l32i	a15, a8, 68
    3eae:	1168e2        	s32i	a14, a8, 68
    3eb1:	53f9      	s32i.n	a15, a3, 20
    3eb3:	1068c2        	s32i	a12, a8, 64
    3eb6:	63d9      	s32i.n	a13, a3, 24
    3eb8:	166892        	s32i	a9, a8, 88
    3ebb:	23a9      	s32i.n	a10, a3, 8
    3ebd:	3349      	s32i.n	a4, a3, 12
    3ebf:	206822        	s32i	a2, a8, 128
    3ec2:	7a8eb1        	l32r	a11, 0xfffe28fc
    3ec5:	38b9      	s32i.n	a11, a8, 12
    3ec7:	7a8921        	l32r	a2, 0xfffe28ec
    3eca:	7a8841        	l32r	a4, 0xfffe28ec
    3ecd:	7a86a1        	l32r	a10, 0xfffe28e8
    3ed0:	7a8791        	l32r	a9, 0xfffe28ec
    3ed3:	7a8cd1        	l32r	a13, 0xfffe2904
    3ed6:	7a8dc1        	l32r	a12, 0xfffe290c
    3ed9:	7a8af1        	l32r	a15, 0xfffe2904
    3edc:	7a8be1        	l32r	a14, 0xfffe2908
    3edf:	3668e2        	s32i	a14, a8, 216
    3ee2:	1768f2        	s32i	a15, a8, 92
    3ee5:	48c9      	s32i.n	a12, a8, 16
    3ee7:	3c68d2        	s32i	a13, a8, 240
    3eea:	0899      	s32i.n	a9, a8, 0
    3eec:	2e68a2        	s32i	a10, a8, 184
    3eef:	256842        	s32i	a4, a8, 148
    3ef2:	156822        	s32i	a2, a8, 84
    3ef5:	7a9141        	l32r	a4, 0xfffe293c
    3ef8:	020c      	movi.n	a2, 0
    3efa:	7a8fa1        	l32r	a10, 0xfffe2938
    3efd:	7a9091        	l32r	a9, 0xfffe2940
    3f00:	c899      	s32i.n	a9, a8, 48
    3f02:	b8a9      	s32i.n	a10, a8, 44
    3f04:	7329      	s32i.n	a2, a3, 28
    3f06:	d849      	s32i.n	a4, a8, 52
    3f08:	f01d      	excw
    3f0a:	360000        	excw
    3f0d:	a10041        	l32r	a4, 0xfffec310
    3f10:	927a92        	excw
    3f13:	9972a1        	l32r	a10, 0xfffea4dc
    3f16:	0c7a      	add.n	a0, a12, a7
    3f18:	a139      	s32i.n	a3, a1, 40
    3f1a:	c07a93        	excw
    3f1d:	810020        	src	a0, a0, a2
    3f20:	887a94        	excw
    3f23:	9208      	l32i.n	a0, a2, 36
    3f25:	866a      	add.n	a8, a6, a6
    3f27:	0008e0        	excw
    3f2a:	f01d      	excw
    3f2c:	004136        	excw
    3f2f:	7a9481        	l32r	a8, 0xfffe2980
    3f32:	1888      	l32i.n	a8, a8, 4
    3f34:	0008e0        	excw
    3f37:	7a3a81        	l32r	a8, 0xfffe2820
    3f3a:	f888      	l32i.n	a8, a8, 60
    3f3c:	7a95a1        	l32r	a10, 0xfffe2990
    3f3f:	0008e0        	excw
    3f42:	7a9691        	l32r	a9, 0xfffe299c
    3f45:	0020c0        	memw
    3f48:	7a97d1        	l32r	a13, 0xfffe29a4
    3f4b:	8629c2        	l32i	a12, a9, 0x218
    3f4e:	20ccd0        	or	a12, a12, a13
    3f51:	0020c0        	memw
    3f54:	8669c2        	s32i	a12, a9, 0x218
    3f57:	0020c0        	memw
    3f5a:	8b29a2        	l32i	a10, a9, 0x22c
    3f5d:	3b0c      	movi.n	a11, 3
    3f5f:	20aab0        	or	a10, a10, a11
    3f62:	0020c0        	memw
    3f65:	8b69a2        	s32i	a10, a9, 0x22c
    3f68:	0020c0        	memw
    3f6b:	862992        	l32i	a9, a9, 0x218
    3f6e:	0ee907        	bbsi	a9, 0, 0x3f80
    3f71:	0be947        	bbsi	a9, 4, 0x3f80
    3f74:	7a7981        	l32r	a8, 0xfffe2958
    3f77:	3a1c      	movi.n	a10, 19
    3f79:	4888      	l32i.n	a8, a8, 16
    3f7b:	0b0c      	movi.n	a11, 0
    3f7d:	0008e0        	excw
    3f80:	7a93b1        	l32r	a11, 0xfffe29cc
    3f83:	0020c0        	memw
    3f86:	b52ba2        	l32i	a10, a11, 0x2d4
    3f89:	ec1c      	movi.n	a12, 30
    3f8b:	20aac0        	or	a10, a10, a12
    3f8e:	0020c0        	memw
    3f91:	7a5991        	l32r	a9, 0xfffe28f8
    3f94:	b56ba2        	s32i	a10, a11, 0x2d4
    3f97:	040992        	l8ui	a9, a9, 4
    3f9a:	083966        	bnei	a9, 3, 0x3fa6
    3f9d:	7a5581        	l32r	a8, 0xfffe28f4
    3fa0:	232882        	l32i	a8, a8, 140
    3fa3:	0008e0        	excw
    3fa6:	00a825        	excw
    3fa9:	f01d      	excw
    3fab:	413600        	srli	a3, a0, 6
    3fae:	984100        	excw
    3fb1:	217a      	add.n	a2, a1, a7
    3fb3:	7a99      	s32i.n	a9, a10, 28
    3fb5:	7a4031        	l32r	a3, 0xfffe28b8
    3fb8:	7a9491        	l32r	a9, 0xfffe2a08
    3fbb:	03a8      	l32i.n	a10, a3, 0
    3fbd:	1388      	l32i.n	a8, a3, 4
    3fbf:	1989      	s32i.n	a8, a9, 4
    3fc1:	1329      	s32i.n	a2, a3, 4
    3fc3:	09a9      	s32i.n	a10, a9, 0
    3fc5:	0349      	s32i.n	a4, a3, 0
    3fc7:	f01d      	excw
    3fc9:	000000        	ill
    3fcc:	004136        	excw
    3fcf:	7a9a61        	l32r	a6, 0xfffe2a38
    3fd2:	312682        	l32i	a8, a6, 196
    3fd5:	7a0c      	movi.n	a10, 7
    3fd7:	0008e0        	excw
    3fda:	0a7d      	mov.n	a7, a10
    3fdc:	312682        	l32i	a8, a6, 196
    3fdf:	7a0c      	movi.n	a10, 7
    3fe1:	0008e0        	excw
    3fe4:	0a5d      	mov.n	a5, a10
    3fe6:	322682        	l32i	a8, a6, 200
    3fe9:	7a0c      	movi.n	a10, 7
    3feb:	0008e0        	excw
    3fee:	7a9b91        	l32r	a9, 0xfffe2a5c
    3ff1:	b45a      	add.n	a11, a4, a5
    3ff3:	aaba      	add.n	a10, a10, a11
    3ff5:	611992        	l16ui	a9, a9, 194
    3ff8:	aa3b      	addi.n	a10, a10, 3
    3ffa:	f4a0a0        	extui	a10, a10, 0, 16
    3ffd:	07b9a7        	bgeu	a9, a10, 0x4008
    4000:	7a9ca1        	l32r	a10, 0xfffe2a70
    4003:	0b0c      	movi.n	a11, 0
    4005:	b60765        	excw
    4008:	747a      	add.n	a7, a4, a7
    400a:	7a3e81        	l32r	a8, 0xfffe2904
    400d:	773b      	addi.n	a7, a7, 3
    400f:	8888      	l32i.n	a8, a8, 32
    4011:	f4a070        	extui	a10, a7, 0, 16
    4014:	0008e0        	excw
    4017:	0a5d      	mov.n	a5, a10
    4019:	8acc      	bnez.n	a10, 0x4025
    401b:	7a9ca1        	l32r	a10, 0xfffe2a8c
    401e:	0b0c      	movi.n	a11, 0
    4020:	b605a5        	excw
    4023:	f01d      	excw
    4025:	841b      	addi.n	a8, a4, 1
    4027:	0a0ad2        	l8ui	a13, a10, 10
    402a:	ffa092        	movi	a9, 255
    402d:	ddaa      	add.n	a13, a13, a10
    402f:	0e4d22        	s8i	a2, a13, 14
    4032:	0c4d92        	s8i	a9, a13, 12
    4035:	0d4d82        	s8i	a8, a13, 13
    4038:	738c      	beqz.n	a3, 0x4043
    403a:	03bd      	mov.n	a11, a3
    403c:	04cd      	mov.n	a12, a4
    403e:	adfb      	addi.n	a10, a13, 15
    4040:	04e225        	excw
    4043:	7a0721        	l32r	a2, 0xfffe2860
    4046:	025572        	s16i	a7, a5, 4
    4049:	d288      	l32i.n	a8, a2, 52
    404b:	7a0c      	movi.n	a10, 7
    404d:	0008e0        	excw
    4050:	0abd      	mov.n	a11, a10
    4052:	9288      	l32i.n	a8, a2, 36
    4054:	05ad      	mov.n	a10, a5
    4056:	0008e0        	excw
    4059:	402682        	l32i	a8, a6, 0x100
    405c:	05ad      	mov.n	a10, a5
    405e:	0008e0        	excw
    4061:	f01d      	excw
    4063:	613600        	excw
    4066:	1e0c00        	excw
    4069:	7a9df1        	l32r	a15, 0xfffe2ae0
    406c:	7a0fc1        	l32r	a12, 0xfffe28a8
    406f:	290c      	movi.n	a9, 2
    4071:	000362        	l8ui	a6, a3, 0
    4074:	02dd      	mov.n	a13, a2
    4076:	0b0c      	movi.n	a11, 0
    4078:	7a9a21        	l32r	a2, 0xfffe2ae0
    407b:	0041b2        	s8i	a11, a1, 0
    407e:	005592        	s16i	a9, a5, 0
    4081:	0d8616        	beqz	a6, 0x415d
    4084:	860b      	addi.n	a8, a6, -1
    4086:	20e816        	beqz	a8, 0x4298
    4089:	b0a0a2        	movi	a10, 176
    408c:	7a2d71        	l32r	a7, 0xfffe2940
    408f:	322626        	beqi	a6, 2, 0x40c5
    4092:	fdc682        	addi	a8, a6, -3
    4095:	214816        	beqz	a8, 0x42ad
    4098:	f1a022        	movi	a2, 241
    409b:	564626        	beqi	a6, 4, 0x40f5
    409e:	fbc692        	addi	a9, a6, -5
    40a1:	2a9916        	beqz	a9, 0x434e
    40a4:	f8a022        	movi	a2, 248
    40a7:	7a9e71        	l32r	a7, 0xfffe2b20
    40aa:	766626        	beqi	a6, 6, 0x4124
    40ad:	f9c6a2        	addi	a10, a6, -7
    40b0:	0d5a16        	beqz	a10, 0x4189
    40b3:	f8c6c2        	addi	a12, a6, -8
    40b6:	092c16        	beqz	a12, 0x414c
    40b9:	0ebd      	mov.n	a11, a14
    40bb:	0b2d      	mov.n	a2, a11
    40bd:	004462        	s8i	a6, a4, 0
    40c0:	0144b2        	s8i	a11, a4, 1
    40c3:	f01d      	excw
    40c5:	fd0b      	addi.n	a15, a13, -1
    40c7:	74f0f0        	extui	a15, a15, 0, 8
    40ca:	519fa7        	bne	a15, a10, 0x411f
    40cd:	7a1bd1        	l32r	a13, 0xfffe293c
    40d0:	8d0392        	l8ui	a9, a3, 141
    40d3:	8e0382        	l8ui	a8, a3, 142
    40d6:	02dcc2        	addmi	a12, a12, 0x200
    40d9:	e12cc2        	l32i	a12, a12, 0x384
    40dc:	118880        	slli	a8, a8, 8
    40df:	208890        	or	a8, a8, a9
    40e2:	125d82        	s16i	a8, a13, 36
    40e5:	048080        	extui	a8, a8, 0, 1
    40e8:	0b9816        	beqz	a8, 0x41a5
    40eb:	0ebd      	mov.n	a11, a14
    40ed:	0a4c      	movi.n	a10, 64
    40ef:	000ce0        	excw
    40f2:	002d06        	j	0x41aa
    40f5:	9d0b      	addi.n	a9, a13, -1
    40f7:	749090        	extui	a9, a9, 0, 8
    40fa:	493297        	bltu	a2, a9, 0x4147
    40fd:	a31b      	addi.n	a10, a3, 1
    40ff:	b11b      	addi.n	a11, a1, 1
    4101:	d14b      	addi.n	a13, a1, 4
    4103:	02dc82        	addmi	a8, a12, 0x200
    4106:	892882        	l32i	a8, a8, 0x224
    4109:	c12b      	addi.n	a12, a1, 2
    410b:	0008e0        	excw
    410e:	f4a0a0        	extui	a10, a10, 0, 16
    4111:	f0a092        	movi	a9, 240
    4114:	0239a7        	bltu	a9, a10, 0x411a
    4117:	0092c6        	j	0x4366
    411a:	6b3c      	movi.n	a11, 54
    411c:	ffe6c6        	j	0x40bb
    411f:	2b1c      	movi.n	a11, 18
    4121:	ffe586        	j	0x40bb
    4124:	cd0b      	addi.n	a12, a13, -1
    4126:	74c0c0        	extui	a12, a12, 0, 8
    4129:	159c27        	bne	a12, a2, 0x4142
    412c:	02cd      	mov.n	a12, a2
    412e:	07ad      	mov.n	a10, a7
    4130:	04e525        	excw
    4133:	07ad      	mov.n	a10, a7
    4135:	b31b      	addi.n	a11, a3, 1
    4137:	f8a0c2        	movi	a12, 248
    413a:	04d2a5        	excw
    413d:	0b0c      	movi.n	a11, 0
    413f:	ffde06        	j	0x40bb
    4142:	2b1c      	movi.n	a11, 18
    4144:	ffdcc6        	j	0x40bb
    4147:	2b1c      	movi.n	a11, 18
    4149:	ffdb86        	j	0x40bb
    414c:	000fe2        	l8ui	a14, a15, 0
    414f:	0244e2        	s8i	a14, a4, 2
    4152:	0015d2        	l16ui	a13, a5, 0
    4155:	dd1b      	addi.n	a13, a13, 1
    4157:	0055d2        	s16i	a13, a5, 0
    415a:	ffd746        	j	0x40bb
    415d:	0bad      	mov.n	a10, a11
    415f:	1662e2        	s32i	a14, a2, 88
    4162:	014fe2        	s8i	a14, a15, 1
    4165:	1e2c82        	l32i	a8, a12, 120
    4168:	004fb2        	s8i	a11, a15, 0
    416b:	0008e0        	excw
    416e:	c13d65        	excw
    4171:	7a9f81        	l32r	a8, 0xfffe2bf0
    4174:	7888      	l32i.n	a8, a8, 28
    4176:	7aa0a1        	l32r	a10, 0xfffe2bf8
    4179:	0008e0        	excw
    417c:	7a6581        	l32r	a8, 0xfffe2b10
    417f:	a888      	l32i.n	a8, a8, 40
    4181:	fa0c      	movi.n	a10, 15
    4183:	0008e0        	excw
    4186:	000586        	j	0x41a0
    4189:	2c88      	l32i.n	a8, a12, 8
    418b:	0008e0        	excw
    418e:	07bd      	mov.n	a11, a7
    4190:	a42b      	addi.n	a10, a4, 2
    4192:	f8a0c2        	movi	a12, 248
    4195:	04cce5        	excw
    4198:	001592        	l16ui	a9, a5, 0
    419b:	992a      	add.n	a9, a9, a2
    419d:	005592        	s16i	a9, a5, 0
    41a0:	0b0c      	movi.n	a11, 0
    41a2:	ffc546        	j	0x40bb
    41a5:	0a4c      	movi.n	a10, 64
    41a7:	000ce0        	excw
    41aa:	7aa1a1        	l32r	a10, 0xfffe2c30
    41ad:	0403b2        	l8ui	a11, a3, 4
    41b0:	64a0c2        	movi	a12, 100
    41b3:	c74ab2        	s8i	a11, a10, 199
    41b6:	18c3b2        	addi	a11, a3, 24
    41b9:	04caa5        	excw
    41bc:	7aa251        	l32r	a5, 0xfffe2c44
    41bf:	02ad      	mov.n	a10, a2
    41c1:	7cc3b2        	addi	a11, a3, 124
    41c4:	8c0c      	movi.n	a12, 8
    41c6:	04c9e5        	excw
    41c9:	05ad      	mov.n	a10, a5
    41cb:	8c0c      	movi.n	a12, 8
    41cd:	84a0b2        	movi	a11, 132
    41d0:	b3ba      	add.n	a11, a3, a11
    41d2:	04c925        	excw
    41d5:	7aa3a1        	l32r	a10, 0xfffe2c64
    41d8:	7a3881        	l32r	a8, 0xfffe2ab8
    41db:	0b0c      	movi.n	a11, 0
    41dd:	a888      	l32i.n	a8, a8, 40
    41df:	0c0c      	movi.n	a12, 0
    41e1:	0008e0        	excw
    41e4:	852782        	l32i	a8, a7, 0x214
    41e7:	9003a2        	l8ui	a10, a3, 144
    41ea:	8f03b2        	l8ui	a11, a3, 143
    41ed:	11aa80        	slli	a10, a10, 8
    41f0:	20aab0        	or	a10, a10, a11
    41f3:	0008e0        	excw
    41f6:	e92782        	l32i	a8, a7, 0x3a4
    41f9:	9203a2        	l8ui	a10, a3, 146
    41fc:	9103b2        	l8ui	a11, a3, 145
    41ff:	11aa80        	slli	a10, a10, 8
    4202:	20aab0        	or	a10, a10, a11
    4205:	9403b2        	l8ui	a11, a3, 148
    4208:	9303c2        	l8ui	a12, a3, 147
    420b:	11bb80        	slli	a11, a11, 8
    420e:	20bbc0        	or	a11, a11, a12
    4211:	0008e0        	excw
    4214:	eb2782        	l32i	a8, a7, 0x3ac
    4217:	9503a2        	l8ui	a10, a3, 149
    421a:	0008e0        	excw
    421d:	ed2782        	l32i	a8, a7, 0x3b4
    4220:	9803a2        	l8ui	a10, a3, 152
    4223:	9703b2        	l8ui	a11, a3, 151
    4226:	11aa80        	slli	a10, a10, 8
    4229:	20aab0        	or	a10, a10, a11
    422c:	9a03b2        	l8ui	a11, a3, 154
    422f:	9903c2        	l8ui	a12, a3, 153
    4232:	11bb80        	slli	a11, a11, 8
    4235:	20bbc0        	or	a11, a11, a12
    4238:	0008e0        	excw
    423b:	ef2782        	l32i	a8, a7, 0x3bc
    423e:	9603a2        	l8ui	a10, a3, 150
    4241:	0008e0        	excw
    4244:	7a2191        	l32r	a9, 0xfffe2ac8
    4247:	7a1581        	l32r	a8, 0xfffe2a9c
    424a:	0203a2        	l8ui	a10, a3, 2
    424d:	d32882        	l32i	a8, a8, 0x34c
    4250:	5949a2        	s8i	a10, a9, 89
    4253:	0008e0        	excw
    4256:	7aa451        	l32r	a5, 0xfffe2ce8
    4259:	9da0a2        	movi	a10, 157
    425c:	e52782        	l32i	a8, a7, 0x394
    425f:	a3aa      	add.n	a10, a3, a10
    4261:	0008e0        	excw
    4264:	05ad      	mov.n	a10, a5
    4266:	cc0c      	movi.n	a12, 12
    4268:	a1a0b2        	movi	a11, 161
    426b:	b3ba      	add.n	a11, a3, a11
    426d:	04bf65        	excw
    4270:	e22782        	l32i	a8, a7, 0x388
    4273:	2b0c      	movi.n	a11, 2
    4275:	7a21c1        	l32r	a12, 0xfffe2afc
    4278:	ad03e2        	l8ui	a14, a3, 173
    427b:	0d42e2        	s8i	a14, a2, 13
    427e:	ae03d2        	l8ui	a13, a3, 174
    4281:	0e42d2        	s8i	a13, a2, 14
    4284:	0503a2        	l8ui	a10, a3, 5
    4287:	5c4ca2        	s8i	a10, a12, 92
    428a:	10bab0        	and	a11, a10, a11
    428d:	04a0a0        	extui	a10, a10, 0, 1
    4290:	0008e0        	excw
    4293:	0b0c      	movi.n	a11, 0
    4295:	ff8886        	j	0x40bb
    4298:	0ead      	mov.n	a10, a14
    429a:	004fe2        	s8i	a14, a15, 0
    429d:	7aa681        	l32r	a8, 0xfffe2d38
    42a0:	7aa591        	l32r	a9, 0xfffe2d34
    42a3:	2888      	l32i.n	a8, a8, 8
    42a5:	19e9      	s32i.n	a14, a9, 4
    42a7:	0008e0        	excw
    42aa:	ffbc86        	j	0x41a0
    42ad:	b0a032        	movi	a3, 176
    42b0:	a42b      	addi.n	a10, a4, 2
    42b2:	7aa7b1        	l32r	a11, 0xfffe2d50
    42b5:	8c1c      	movi.n	a12, 24
    42b7:	04bae5        	excw
    42ba:	7aa1b1        	l32r	a11, 0xfffe2d40
    42bd:	19c4a2        	addi	a10, a4, 25
    42c0:	64a0c2        	movi	a12, 100
    42c3:	04ba25        	excw
    42c6:	7dc4a2        	addi	a10, a4, 125
    42c9:	02bd      	mov.n	a11, a2
    42cb:	8c0c      	movi.n	a12, 8
    42cd:	04b965        	excw
    42d0:	7aa2b1        	l32r	a11, 0xfffe2d58
    42d3:	8c0c      	movi.n	a12, 8
    42d5:	85a0a2        	movi	a10, 133
    42d8:	a4aa      	add.n	a10, a4, a10
    42da:	04b8a5        	excw
    42dd:	ec2782        	l32i	a8, a7, 0x3b0
    42e0:	7aa891        	l32r	a9, 0xfffe2d80
    42e3:	7a1bc1        	l32r	a12, 0xfffe2b50
    42e6:	fcd9b2        	addmi	a11, a9, 0xfffffc00
    42e9:	121cc2        	l16ui	a12, a12, 36
    42ec:	4754c2        	s16i	a12, a4, 142
    42ef:	d71bb2        	l16ui	a11, a11, 0x1ae
    42f2:	4854b2        	s16i	a11, a4, 144
    42f5:	3919a2        	l16ui	a10, a9, 114
    42f8:	4954a2        	s16i	a10, a4, 146
    42fb:	3a1992        	l16ui	a9, a9, 116
    42fe:	4a5492        	s16i	a9, a4, 148
    4301:	0008e0        	excw
    4304:	7aa891        	l32r	a9, 0xfffe2da4
    4307:	9644a2        	s8i	a10, a4, 150
    430a:	f02782        	l32i	a8, a7, 0x3c0
    430d:	3b19a2        	l16ui	a10, a9, 118
    4310:	4c54a2        	s16i	a10, a4, 152
    4313:	3c1992        	l16ui	a9, a9, 120
    4316:	4d5492        	s16i	a9, a4, 154
    4319:	0008e0        	excw
    431c:	9744a2        	s8i	a10, a4, 151
    431f:	9ea0a2        	movi	a10, 158
    4322:	e62782        	l32i	a8, a7, 0x398
    4325:	a4aa      	add.n	a10, a4, a10
    4327:	0008e0        	excw
    432a:	7aa4b1        	l32r	a11, 0xfffe2dbc
    432d:	cc0c      	movi.n	a12, 12
    432f:	a2a0a2        	movi	a10, 162
    4332:	a4aa      	add.n	a10, a4, a10
    4334:	04b2e5        	excw
    4337:	0d02d2        	l8ui	a13, a2, 13
    433a:	ae44d2        	s8i	a13, a4, 174
    433d:	0e02c2        	l8ui	a12, a2, 14
    4340:	af44c2        	s8i	a12, a4, 175
    4343:	0015b2        	l16ui	a11, a5, 0
    4346:	bb3a      	add.n	a11, a11, a3
    4348:	0055b2        	s16i	a11, a5, 0
    434b:	ff9446        	j	0x41a0
    434e:	02cd      	mov.n	a12, a2
    4350:	342b      	addi.n	a3, a4, 2
    4352:	03ad      	mov.n	a10, a3
    4354:	04c2e5        	excw
    4357:	03ad      	mov.n	a10, a3
    4359:	b43b      	addi.n	a11, a4, 3
    435b:	f22782        	l32i	a8, a7, 0x3c8
    435e:	01cd      	mov.n	a12, a1
    4360:	0008e0        	excw
    4363:	ff8c46        	j	0x4198
    4366:	0101a2        	l8ui	a10, a1, 1
    4369:	11b8      	l32i.n	a11, a1, 4
    436b:	f12782        	l32i	a8, a7, 0x3c4
    436e:	0201c2        	l8ui	a12, a1, 2
    4371:	0008e0        	excw
    4374:	0b0c      	movi.n	a11, 0
    4376:	ff5046        	j	0x40bb
    4379:	000000        	ill
    437c:	004136        	excw
    437f:	7a9d81        	l32r	a8, 0xfffe2df4
    4382:	000882        	l8ui	a8, a8, 0
    4385:	0b1866        	bnei	a8, 1, 0x4394
    4388:	7aa981        	l32r	a8, 0xfffe2e2c
    438b:	02ad      	mov.n	a10, a2
    438d:	0888      	l32i.n	a8, a8, 0
    438f:	03bd      	mov.n	a11, a3
    4391:	0008e0        	excw
    4394:	f01d      	excw
    4396:	360000        	excw
    4399:	b10041        	l32r	a4, 0xffff079c
    439c:	7a9d      	excw
    439e:	7a9a41        	l32r	a4, 0xfffe2e08
    43a1:	080c      	movi.n	a8, 0
    43a3:	166482        	s32i	a8, a4, 88
    43a6:	176482        	s32i	a8, a4, 92
    43a9:	0a0232        	l8ui	a3, a2, 10
    43ac:	000b82        	l8ui	a8, a11, 0
    43af:	332a      	add.n	a3, a3, a2
    43b1:	0d0392        	l8ui	a9, a3, 13
    43b4:	0c0332        	l8ui	a3, a3, 12
    43b7:	119980        	slli	a9, a9, 8
    43ba:	339a      	add.n	a3, a3, a9
    43bc:	f43030        	extui	a3, a3, 0, 16
    43bf:	571826        	beqi	a8, 1, 0x441a
    43c2:	150c      	movi.n	a5, 1
    43c4:	7aaa91        	l32r	a9, 0xfffe2e6c
    43c7:	7aaba1        	l32r	a10, 0xfffe2e74
    43ca:	461397        	beq	a3, a9, 0x4414
    43cd:	4613a7        	beq	a3, a10, 0x4417
    43d0:	7a3e81        	l32r	a8, 0xfffe2cc8
    43d3:	272882        	l32i	a8, a8, 156
    43d6:	0008e0        	excw
    43d9:	7a0f81        	l32r	a8, 0xfffe2c18
    43dc:	c62882        	l32i	a8, a8, 0x318
    43df:	fa0c      	movi.n	a10, 15
    43e1:	0008e0        	excw
    43e4:	5b1c      	movi.n	a11, 21
    43e6:	7a4081        	l32r	a8, 0xfffe2ce8
    43e9:	419830        	srli	a9, a3, 8
    43ec:	0aed      	mov.n	a14, a10
    43ee:	cd0c      	movi.n	a13, 12
    43f0:	0a0aa2        	l8ui	a10, a10, 10
    43f3:	0ecd      	mov.n	a12, a14
    43f5:	aaea      	add.n	a10, a10, a14
    43f7:	0c4ad2        	s8i	a13, a10, 12
    43fa:	0d4a52        	s8i	a5, a10, 13
    43fd:	0e4a32        	s8i	a3, a10, 14
    4400:	0f4a92        	s8i	a9, a10, 15
    4403:	8888      	l32i.n	a8, a8, 32
    4405:	3a0c      	movi.n	a10, 3
    4407:	0008e0        	excw
    440a:	4a2482        	l32i	a8, a4, 0x128
    440d:	02ad      	mov.n	a10, a2
    440f:	0008e0        	excw
    4412:	f01d      	excw
    4414:	0293a7        	bne	a3, a10, 0x441a
    4417:	004b52        	s8i	a5, a11, 0
    441a:	7aa981        	l32r	a8, 0xfffe2ec0
    441d:	1888      	l32i.n	a8, a8, 4
    441f:	02ad      	mov.n	a10, a2
    4421:	0008e0        	excw
    4424:	f01d      	excw
    4426:	360000        	excw
    4429:	810041        	l32r	a4, 0xfffe482c
    442c:	0f          	.byte 0xf
    442d:	887a      	add.n	a8, a8, a7
    442f:	add8      	l32i.n	a13, a13, 40
    4431:	08e002        	excw
    4434:	aacc00        	excw
    4437:	7aa981        	l32r	a8, 0xfffe2edc
    443a:	02ad      	mov.n	a10, a2
    443c:	2888      	l32i.n	a8, a8, 8
    443e:	03bd      	mov.n	a11, a3
    4440:	0008e0        	excw
    4443:	f01d      	excw
    4445:	000000        	ill
    4448:	004136        	excw
    444b:	7a0f81        	l32r	a8, 0xfffe2c88
    444e:	d888      	l32i.n	a8, a8, 52
    4450:	02ad      	mov.n	a10, a2
    4452:	0008e0        	excw
    4455:	cacc      	bnez.n	a10, 0x4465
    4457:	02ad      	mov.n	a10, a2
    4459:	7aa981        	l32r	a8, 0xfffe2f00
    445c:	03bd      	mov.n	a11, a3
    445e:	3888      	l32i.n	a8, a8, 12
    4460:	04cd      	mov.n	a12, a4
    4462:	0008e0        	excw
    4465:	f01d      	excw
    4467:	413600        	srli	a3, a0, 6
    446a:	028200        	excw
    446d:	2a0a      	add.n	a2, a10, a0
    446f:	cb88      	l32i.n	a8, a11, 48
    4471:	8988      	l32i.n	a8, a9, 32
    4473:	152603        	excw
    4476:	02ad14        	excw
    4479:	03bd      	mov.n	a11, a3
    447b:	04cd      	mov.n	a12, a4
    447d:	7aa981        	l32r	a8, 0xfffe2f24
    4480:	05dd      	mov.n	a13, a5
    4482:	4888      	l32i.n	a8, a8, 16
    4484:	06ed      	mov.n	a14, a6
    4486:	0008e0        	excw
    4489:	002b86        	j	0x453b
    448c:	7aac51        	l32r	a5, 0xfffe2f3c
    448f:	0015b2        	l16ui	a11, a5, 0
    4492:	06fb56        	bnez	a11, 0x4505
    4495:	0a0292        	l8ui	a9, a2, 10
    4498:	7a3e81        	l32r	a8, 0xfffe2d90
    449b:	992a      	add.n	a9, a9, a2
    449d:	99cb      	addi.n	a9, a9, 12
    449f:	0399      	s32i.n	a9, a3, 0
    44a1:	3888      	l32i.n	a8, a8, 12
    44a3:	6a0c      	movi.n	a10, 6
    44a5:	0008e0        	excw
    44a8:	03b8      	l32i.n	a11, a3, 0
    44aa:	020bb2        	l8ui	a11, a11, 2
    44ad:	070c      	movi.n	a7, 0
    44af:	bbaa      	add.n	a11, a11, a10
    44b1:	bb3b      	addi.n	a11, a11, 3
    44b3:	f4b0b0        	extui	a11, a11, 0, 16
    44b6:	0055b2        	s16i	a11, a5, 0
    44b9:	3514b7        	beq	a4, a11, 0x44f2
    44bc:	7a6581        	l32r	a8, 0xfffe2e50
    44bf:	6888      	l32i.n	a8, a8, 24
    44c1:	2a3c      	movi.n	a10, 50
    44c3:	0008e0        	excw
    44c6:	771b      	addi.n	a7, a7, 1
    44c8:	d0a792        	movi	a9, 0x7d0
    44cb:	07b977        	bgeu	a9, a7, 0x44d6
    44ce:	7a9ca1        	l32r	a10, 0xfffe2f40
    44d1:	0b0c      	movi.n	a11, 0
    44d3:	b5baa5        	excw
    44d6:	7a3e81        	l32r	a8, 0xfffe2dd0
    44d9:	3888      	l32i.n	a8, a8, 12
    44db:	6a0c      	movi.n	a10, 6
    44dd:	0008e0        	excw
    44e0:	03b8      	l32i.n	a11, a3, 0
    44e2:	020bb2        	l8ui	a11, a11, 2
    44e5:	bbaa      	add.n	a11, a11, a10
    44e7:	bb3b      	addi.n	a11, a11, 3
    44e9:	f4b0b0        	extui	a11, a11, 0, 16
    44ec:	0055b2        	s16i	a11, a5, 0
    44ef:	c994b7        	bne	a4, a11, 0x44bc
    44f2:	7a9bc1        	l32r	a12, 0xfffe2f60
    44f5:	5d1cc2        	l16ui	a12, a12, 186
    44f8:	06bcb7        	bgeu	a12, a11, 0x4502
    44fb:	0a0c      	movi.n	a10, 0
    44fd:	1b0c      	movi.n	a11, 1
    44ff:	b5b7e5        	excw
    4502:	0015b2        	l16ui	a11, a5, 0
    4505:	7aadd1        	l32r	a13, 0xfffe2fbc
    4508:	0a0c      	movi.n	a10, 0
    450a:	001dc2        	l16ui	a12, a13, 0
    450d:	080c      	movi.n	a8, 0
    450f:	cc4a      	add.n	a12, a12, a4
    4511:	f4c0c0        	extui	a12, a12, 0, 16
    4514:	161cb7        	beq	a12, a11, 0x452e
    4517:	005dc2        	s16i	a12, a13, 0
    451a:	0a02f2        	l8ui	a15, a2, 10
    451d:	c0ebc0        	sub	a14, a11, a12
    4520:	ff2a      	add.n	a15, a15, a2
    4522:	fcfa      	add.n	a15, a12, a15
    4524:	ffcb      	addi.n	a15, a15, 12
    4526:	03f9      	s32i.n	a15, a3, 0
    4528:	0056e2        	s16i	a14, a6, 0
    452b:	000306        	j	0x453b
    452e:	1a0c      	movi.n	a10, 1
    4530:	0252b2        	s16i	a11, a2, 4
    4533:	0389      	s32i.n	a8, a3, 0
    4535:	005582        	s16i	a8, a5, 0
    4538:	005d82        	s16i	a8, a13, 0
    453b:	0a2d      	mov.n	a2, a10
    453d:	f01d      	excw
    453f:	613600        	excw
    4542:	2c0c00        	excw
    4545:	01dd      	mov.n	a13, a1
    4547:	0e0c      	movi.n	a14, 0
    4549:	7a9a81        	l32r	a8, 0xfffe2fb4
    454c:	190c      	movi.n	a9, 1
    454e:	0b0c      	movi.n	a11, 0
    4550:	0a4c      	movi.n	a10, 64
    4552:	0051a2        	s16i	a10, a1, 0
    4555:	83b920        	moveqz	a11, a9, a2
    4558:	512882        	l32i	a8, a8, 0x144
    455b:	7aaea1        	l32r	a10, 0xfffe3014
    455e:	0008e0        	excw
    4561:	f01d      	excw
    4563:	413600        	srli	a3, a0, 6
    4566:	af8100        	excw
    4569:	827a      	add.n	a8, a2, a7
    456b:	1228      	l32i.n	a2, a2, 4
    456d:	0008e0        	excw
    4570:	7aa931        	l32r	a3, 0xfffe3014
    4573:	200392        	l8ui	a9, a3, 32
    4576:	1a49f6        	bgeui	a9, 4, 0x4594
    4579:	7ab021        	l32r	a2, 0xfffe303c
    457c:	5a2282        	l32i	a8, a2, 0x168
    457f:	0008e0        	excw
    4582:	ea8c      	beqz.n	a10, 0x4594
    4584:	2003a2        	l8ui	a10, a3, 32
    4587:	73b8      	l32i.n	a11, a3, 28
    4589:	602282        	l32i	a8, a2, 0x180
    458c:	7ab1c1        	l32r	a12, 0xfffe3050
    458f:	0008e0        	excw
    4592:	f01d      	excw
    4594:	0a0c      	movi.n	a10, 0
    4596:	fffaa5        	excw
    4599:	f01d      	excw
    459b:	413600        	srli	a3, a0, 6
    459e:	02bd00        	excw
    45a1:	03cd      	mov.n	a12, a3
    45a3:	7ab081        	l32r	a8, 0xfffe3064
    45a6:	7aa9a1        	l32r	a10, 0xfffe304c
    45a9:	672882        	l32i	a8, a8, 0x19c
    45ac:	9aa8      	l32i.n	a10, a10, 36
    45ae:	0008e0        	excw
    45b1:	190c      	movi.n	a9, 1
    45b3:	020c      	movi.n	a2, 0
    45b5:	8329a0        	moveqz	a2, a9, a10
    45b8:	f01d      	excw
    45ba:	360000        	excw
    45bd:	310061        	l32r	a6, 0xfffd09c0
    45c0:	827ab0        	mull	a7, a10, a11
    45c3:	e06823        	excw
    45c6:	0008      	l32i.n	a0, a0, 0
    45c8:	06ea16        	beqz	a10, 0x463a
    45cb:	4a1c      	movi.n	a10, 20
    45cd:	01bd      	mov.n	a11, a1
    45cf:	4c0c      	movi.n	a12, 4
    45d1:	7aaf21        	l32r	a2, 0xfffe3090
    45d4:	090c      	movi.n	a9, 0
    45d6:	182282        	l32i	a8, a2, 96
    45d9:	0199      	s32i.n	a9, a1, 0
    45db:	0008e0        	excw
    45de:	182282        	l32i	a8, a2, 96
    45e1:	8a1c      	movi.n	a10, 24
    45e3:	7ab221        	l32r	a2, 0xfffe30ac
    45e6:	4c0c      	movi.n	a12, 4
    45e8:	02bd      	mov.n	a11, a2
    45ea:	0008e0        	excw
    45ed:	7ab351        	l32r	a5, 0xfffe30bc
    45f0:	0198      	l32i.n	a9, a1, 0
    45f2:	7ab441        	l32r	a4, 0xfffe30c4
    45f5:	0d9957        	bne	a9, a5, 0x4606
    45f8:	6c2382        	l32i	a8, a3, 0x1b0
    45fb:	3a0c      	movi.n	a10, 3
    45fd:	0008e0        	excw
    4600:	262492        	l32i	a9, a4, 152
    4603:	2f19a7        	beq	a9, a10, 0x4636
    4606:	0159      	s32i.n	a5, a1, 0
    4608:	6c2382        	l32i	a8, a3, 0x1b0
    460b:	3a0c      	movi.n	a10, 3
    460d:	0008e0        	excw
    4610:	7ab5b1        	l32r	a11, 0xfffe30e4
    4613:	4c0c      	movi.n	a12, 4
    4615:	666ba2        	s32i	a10, a11, 0x198
    4618:	1f24a2        	l32i	a10, a4, 124
    461b:	02bd      	mov.n	a11, a2
    461d:	18caa2        	addi	a10, a10, 24
    4620:	048425        	excw
    4623:	01bd      	mov.n	a11, a1
    4625:	1f24a2        	l32i	a10, a4, 124
    4628:	4c0c      	movi.n	a12, 4
    462a:	14caa2        	addi	a10, a10, 20
    462d:	048365        	excw
    4630:	452382        	l32i	a8, a3, 0x114
    4633:	0008e0        	excw
    4636:	020c      	movi.n	a2, 0
    4638:	f01d      	excw
    463a:	120c      	movi.n	a2, 1
    463c:	f01d      	excw
    463e:	360000        	excw
    4641:	1b0061        	l32r	a6, 0xfffcb244
    4644:	3c0ca1        	l32r	a10, 0xfffd3674
    4647:	020c      	movi.n	a2, 0
    4649:	004122        	s8i	a2, a1, 0
    464c:	02bd      	mov.n	a11, a2
    464e:	049365        	excw
    4651:	0a0c      	movi.n	a10, 0
    4653:	7ab081        	l32r	a8, 0xfffe3114
    4656:	01bd      	mov.n	a11, a1
    4658:	7888      	l32i.n	a8, a8, 28
    465a:	4c0c      	movi.n	a12, 4
    465c:	0008e0        	excw
    465f:	aaac      	beqz.n	a10, 0x468d
    4661:	1a0c      	movi.n	a10, 1
    4663:	0101c2        	l8ui	a12, a1, 1
    4666:	0201d2        	l8ui	a13, a1, 2
    4669:	7ab6e1        	l32r	a14, 0xfffe3144
    466c:	7aa9b1        	l32r	a11, 0xfffe3110
    466f:	144e22        	s8i	a2, a14, 20
    4672:	7bb8      	l32i.n	a11, a11, 28
    4674:	11dd80        	slli	a13, a13, 8
    4677:	ccda      	add.n	a12, a12, a13
    4679:	44cbc0        	extui	a12, a12, 11, 5
    467c:	401c00        	ssl	a12
    467f:	a19a00        	sll	a9, a10
    4682:	f49090        	extui	a9, a9, 0, 16
    4685:	06b9b7        	bgeu	a9, a11, 0x468f
    4688:	0a0c      	movi.n	a10, 0
    468a:	000046        	j	0x468f
    468d:	0a0c      	movi.n	a10, 0
    468f:	ffeb25        	excw
    4692:	f01d      	excw
    4694:	004136        	excw
    4697:	02bd      	mov.n	a11, a2
    4699:	03cd      	mov.n	a12, a3
    469b:	7ab081        	l32r	a8, 0xfffe315c
    469e:	7aa9a1        	l32r	a10, 0xfffe3144
    46a1:	8888      	l32i.n	a8, a8, 32
    46a3:	9aa8      	l32i.n	a10, a10, 36
    46a5:	0008e0        	excw
    46a8:	190c      	movi.n	a9, 1
    46aa:	020c      	movi.n	a2, 0
    46ac:	8329a0        	moveqz	a2, a9, a10
    46af:	f01d      	excw
    46b1:	000000        	ill
    46b4:	004136        	excw
    46b7:	7ab081        	l32r	a8, 0xfffe3178
    46ba:	6888      	l32i.n	a8, a8, 24
    46bc:	0008e0        	excw
    46bf:	020c      	movi.n	a2, 0
    46c1:	f01d      	excw
    46c3:	413600        	srli	a3, a0, 6
    46c6:	0a0c00        	excw
    46c9:	0a0292        	l8ui	a9, a2, 10
    46cc:	7aa981        	l32r	a8, 0xfffe3170
    46cf:	992a      	add.n	a9, a9, a2
    46d1:	0f0992        	l8ui	a9, a9, 15
    46d4:	204892        	s8i	a9, a8, 32
    46d7:	0a02b2        	l8ui	a11, a2, 10
    46da:	fd7c      	movi.n	a13, -1
    46dc:	bb2a      	add.n	a11, a11, a2
    46de:	100bc2        	l8ui	a12, a11, 16
    46e1:	110b32        	l8ui	a3, a11, 17
    46e4:	130bf2        	l8ui	a15, a11, 19
    46e7:	120be2        	l8ui	a14, a11, 18
    46ea:	01ff80        	slli	a15, a15, 24
    46ed:	11ee00        	slli	a14, a14, 16
    46f0:	113380        	slli	a3, a3, 8
    46f3:	cc3a      	add.n	a12, a12, a3
    46f5:	eefa      	add.n	a14, a14, a15
    46f7:	ccea      	add.n	a12, a12, a14
    46f9:	78c9      	s32i.n	a12, a8, 28
    46fb:	140b32        	l8ui	a3, a11, 20
    46fe:	170bc2        	l8ui	a12, a11, 23
    4701:	150be2        	l8ui	a14, a11, 21
    4704:	01cc80        	slli	a12, a12, 24
    4707:	11ee80        	slli	a14, a14, 8
    470a:	33ea      	add.n	a3, a3, a14
    470c:	160bb2        	l8ui	a11, a11, 22
    470f:	68d9      	s32i.n	a13, a8, 24
    4711:	98a9      	s32i.n	a10, a8, 36
    4713:	11bb00        	slli	a11, a11, 16
    4716:	bbca      	add.n	a11, a11, a12
    4718:	33ba      	add.n	a3, a3, a11
    471a:	5839      	s32i.n	a3, a8, 20
    471c:	053966        	bnei	a9, 3, 0x4725
    471f:	ffe465        	excw
    4722:	000286        	j	0x4730
    4725:	49cc      	bnez.n	a9, 0x472d
    4727:	fff1a5        	excw
    472a:	000086        	j	0x4730
    472d:	ffe125        	excw
    4730:	7a9a81        	l32r	a8, 0xfffe3198
    4733:	4a2882        	l32i	a8, a8, 0x128
    4736:	02ad      	mov.n	a10, a2
    4738:	0008e0        	excw
    473b:	020c      	movi.n	a2, 0
    473d:	f01d      	excw
    473f:	613600        	excw
    4742:	0d0c00        	excw
    4745:	0051d2        	s16i	a13, a1, 0
    4748:	0a0232        	l8ui	a3, a2, 10
    474b:	7aa941        	l32r	a4, 0xfffe31f0
    474e:	332a      	add.n	a3, a3, a2
    4750:	15c3a2        	addi	a10, a3, 21
    4753:	100392        	l8ui	a9, a3, 16
    4756:	0f0382        	l8ui	a8, a3, 15
    4759:	119980        	slli	a9, a9, 8
    475c:	889a      	add.n	a8, a8, a9
    475e:	200492        	l8ui	a9, a4, 32
    4761:	005182        	s16i	a8, a1, 0
    4764:	120382        	l8ui	a8, a3, 18
    4767:	110332        	l8ui	a3, a3, 17
    476a:	118880        	slli	a8, a8, 8
    476d:	338a      	add.n	a3, a3, a8
    476f:	f43030        	extui	a3, a3, 0, 16
    4772:	63ac      	beqz.n	a3, 0x479c
    4774:	7ab7b1        	l32r	a11, 0xfffe3250
    4777:	64c8      	l32i.n	a12, a4, 24
    4779:	edaa      	add.n	a14, a13, a10
    477b:	75f8c0        	extui	a15, a12, 24, 8
    477e:	000ee2        	l8ui	a14, a14, 0
    4781:	dd1b      	addi.n	a13, a13, 1
    4783:	f4d0d0        	extui	a13, a13, 0, 16
    4786:	30eef0        	xor	a14, a14, a15
    4789:	74e0e0        	extui	a14, a14, 0, 8
    478c:	a0eeb0        	addx4	a14, a14, a11
    478f:	0ee8      	l32i.n	a14, a14, 0
    4791:	11cc80        	slli	a12, a12, 8
    4794:	30cec0        	xor	a12, a14, a12
    4797:	64c9      	s32i.n	a12, a4, 24
    4799:	dc3d37        	bltu	a13, a3, 0x4779
    479c:	093966        	bnei	a9, 3, 0x47a9
    479f:	03bd      	mov.n	a11, a3
    47a1:	ffdfa5        	excw
    47a4:	0abd      	mov.n	a11, a10
    47a6:	000346        	j	0x47b7
    47a9:	89cc      	bnez.n	a9, 0x47b5
    47ab:	03bd      	mov.n	a11, a3
    47ad:	ffee65        	excw
    47b0:	0abd      	mov.n	a11, a10
    47b2:	000046        	j	0x47b7
    47b5:	1b0c      	movi.n	a11, 1
    47b7:	4bcc      	bnez.n	a11, 0x47bf
    47b9:	94f8      	l32i.n	a15, a4, 36
    47bb:	f3fa      	add.n	a15, a3, a15
    47bd:	94f9      	s32i.n	a15, a4, 36
    47bf:	7ab8a1        	l32r	a10, 0xfffe32a0
    47c2:	2c0c      	movi.n	a12, 2
    47c4:	7a9a31        	l32r	a3, 0xfffe322c
    47c7:	01dd      	mov.n	a13, a1
    47c9:	512382        	l32i	a8, a3, 0x144
    47cc:	0e0c      	movi.n	a14, 0
    47ce:	0008e0        	excw
    47d1:	4a2382        	l32i	a8, a3, 0x128
    47d4:	02ad      	mov.n	a10, a2
    47d6:	0008e0        	excw
    47d9:	020c      	movi.n	a2, 0
    47db:	f01d      	excw
    47dd:	000000        	ill
    47e0:	004136        	excw
    47e3:	7aa9a1        	l32r	a10, 0xfffe3288
    47e6:	fb7c      	movi.n	a11, -1
    47e8:	6a98      	l32i.n	a9, a10, 24
    47ea:	5a88      	l32i.n	a8, a10, 20
    47ec:	3099b0        	xor	a9, a9, a11
    47ef:	6a99      	s32i.n	a9, a10, 24
    47f1:	1c9897        	bne	a8, a9, 0x4811
    47f4:	200a92        	l8ui	a9, a10, 32
    47f7:	073966        	bnei	a9, 3, 0x4802
    47fa:	ffdc25        	excw
    47fd:	0abd      	mov.n	a11, a10
    47ff:	000406        	j	0x4813
    4802:	69cc      	bnez.n	a9, 0x480c
    4804:	ffeae5        	excw
    4807:	0abd      	mov.n	a11, a10
    4809:	000186        	j	0x4813
    480c:	1b0c      	movi.n	a11, 1
    480e:	000046        	j	0x4813
    4811:	1b0c      	movi.n	a11, 1
    4813:	7ab9a1        	l32r	a10, 0xfffe32f8
    4816:	4c0c      	movi.n	a12, 4
    4818:	7a9a31        	l32r	a3, 0xfffe3280
    481b:	7abad1        	l32r	a13, 0xfffe3304
    481e:	512382        	l32i	a8, a3, 0x144
    4821:	0e0c      	movi.n	a14, 0
    4823:	0008e0        	excw
    4826:	4a2382        	l32i	a8, a3, 0x128
    4829:	02ad      	mov.n	a10, a2
    482b:	0008e0        	excw
    482e:	020c      	movi.n	a2, 0
    4830:	f01d      	excw
    4832:	360000        	excw
    4835:	0c0041        	l32r	a4, 0xfffc7838
    4838:	d10a      	add.n	a13, a1, a0
    483a:	7abb      	addi.n	a7, a10, 11
    483c:	0aa082        	movi	a8, 10
    483f:	0402c2        	l8ui	a12, a2, 4
    4842:	0302b2        	l8ui	a11, a2, 3
    4845:	11cc80        	slli	a12, a12, 8
    4848:	80bbc0        	add	a11, a11, a12
    484b:	f4b0b0        	extui	a11, a11, 0, 16
    484e:	7a28c1        	l32r	a12, 0xfffe30f0
    4851:	1ea876        	excw
    4854:	c8a022        	movi	a2, 200
    4857:	c12a20        	mul16u	a2, a10, a2
    485a:	e2da      	add.n	a14, a2, a13
    485c:	7f1ee2        	l16ui	a14, a14, 254
    485f:	22ca      	add.n	a2, a2, a12
    4861:	099eb7        	bne	a14, a11, 0x486e
    4864:	233a00        	excw
    4867:	0d0366        	bnei	a3, -1, 0x4878
    486a:	220c      	movi.n	a2, 2
    486c:	f01d      	excw
    486e:	aa1b      	addi.n	a10, a10, 1
    4870:	74a0a0        	extui	a10, a10, 0, 8
    4873:	f37c      	movi.n	a3, -1
    4875:	fffb86        	j	0x4867
    4878:	0102b2        	l8ui	a11, a2, 1
    487b:	3d4b66        	bnei	a11, 4, 0x48bc
    487e:	0d73e6        	bgei	a3, 7, 0x488f
    4881:	7a1581        	l32r	a8, 0xfffe30d8
    4884:	0002a2        	l8ui	a10, a2, 0
    4887:	442882        	l32i	a8, a8, 0x110
    488a:	1b0c      	movi.n	a11, 1
    488c:	0008e0        	excw
    488f:	fea3a2        	movi	a10, 0x3fe
    4892:	0b0c      	movi.n	a11, 0
    4894:	2c0c      	movi.n	a12, 2
    4896:	7a1681        	l32r	a8, 0xfffe30f0
    4899:	0002d2        	l8ui	a13, a2, 0
    489c:	152882        	l32i	a8, a8, 84
    489f:	2e0c      	movi.n	a14, 2
    48a1:	0008e0        	excw
    48a4:	03bd      	mov.n	a11, a3
    48a6:	d24b      	addi.n	a13, a2, 4
    48a8:	4a0c      	movi.n	a10, 4
    48aa:	7a0f81        	l32r	a8, 0xfffe30e8
    48ad:	7a2ec1        	l32r	a12, 0xfffe3168
    48b0:	1d2882        	l32i	a8, a8, 116
    48b3:	4e0c      	movi.n	a14, 4
    48b5:	0008e0        	excw
    48b8:	020c      	movi.n	a2, 0
    48ba:	f01d      	excw
    48bc:	c20c      	movi.n	a2, 12
    48be:	f01d      	excw
    48c0:	046136        	excw
    48c3:	7a3ab1        	l32r	a11, 0xfffe31ac
    48c6:	7aae81        	l32r	a8, 0xfffe3380
    48c9:	0a02e2        	l8ui	a14, a2, 10
    48cc:	0a0c      	movi.n	a10, 0
    48ce:	ee2a      	add.n	a14, a14, a2
    48d0:	0c0e42        	l8ui	a4, a14, 12
    48d3:	0d0e92        	l8ui	a9, a14, 13
    48d6:	0051a2        	s16i	a10, a1, 0
    48d9:	119980        	slli	a9, a9, 8
    48dc:	449a      	add.n	a4, a4, a9
    48de:	f44040        	extui	a4, a4, 0, 16
    48e1:	281487        	beq	a4, a8, 0x490d
    48e4:	7ab8f1        	l32r	a15, 0xfffe33c4
    48e7:	7ab981        	l32r	a8, 0xfffe33cc
    48ea:	5514f7        	beq	a4, a15, 0x4943
    48ed:	5b1487        	beq	a4, a8, 0x494c
    48f0:	7aaa91        	l32r	a9, 0xfffe3398
    48f3:	7a9a31        	l32r	a3, 0xfffe335c
    48f6:	631497        	beq	a4, a9, 0x495d
    48f9:	7abca1        	l32r	a10, 0xfffe33ec
    48fc:	1e14a7        	beq	a4, a10, 0x491e
    48ff:	7aa981        	l32r	a8, 0xfffe33a4
    4902:	a888      	l32i.n	a8, a8, 40
    4904:	02ad      	mov.n	a10, a2
    4906:	0008e0        	excw
    4909:	0a2d      	mov.n	a2, a10
    490b:	f01d      	excw
    490d:	fb88      	l32i.n	a8, a11, 60
    490f:	7abda1        	l32r	a10, 0xfffe3404
    4912:	0008e0        	excw
    4915:	02ad      	mov.n	a10, a2
    4917:	ffdae5        	excw
    491a:	0a2d      	mov.n	a2, a10
    491c:	f01d      	excw
    491e:	aefb      	addi.n	a10, a14, 15
    4920:	fff125        	excw
    4923:	0c0c      	movi.n	a12, 0
    4925:	10c1d2        	addi	a13, a1, 16
    4928:	0e0c      	movi.n	a14, 0
    492a:	0a5d      	mov.n	a5, a10
    492c:	512382        	l32i	a8, a3, 0x144
    492f:	04ad      	mov.n	a10, a4
    4931:	74b050        	extui	a11, a5, 0, 8
    4934:	0008e0        	excw
    4937:	4a2382        	l32i	a8, a3, 0x128
    493a:	02ad      	mov.n	a10, a2
    493c:	0008e0        	excw
    493f:	052d      	mov.n	a2, a5
    4941:	f01d      	excw
    4943:	02ad      	mov.n	a10, a2
    4945:	ffdfa5        	excw
    4948:	0a2d      	mov.n	a2, a10
    494a:	f01d      	excw
    494c:	fb88      	l32i.n	a8, a11, 60
    494e:	7abea1        	l32r	a10, 0xfffe3448
    4951:	0008e0        	excw
    4954:	02ad      	mov.n	a10, a2
    4956:	ffe8a5        	excw
    4959:	0a2d      	mov.n	a2, a10
    495b:	f01d      	excw
    495d:	0e0ea2        	l8ui	a10, a14, 14
    4960:	befb      	addi.n	a11, a14, 15
    4962:	10c1c2        	addi	a12, a1, 16
    4965:	01dd      	mov.n	a13, a1
    4967:	ff6fe5        	excw
    496a:	10c1b2        	addi	a11, a1, 16
    496d:	0a5d      	mov.n	a5, a10
    496f:	0011c2        	l16ui	a12, a1, 0
    4972:	92a0a2        	movi	a10, 146
    4975:	ff6565        	excw
    4978:	04ad      	mov.n	a10, a4
    497a:	74b050        	extui	a11, a5, 0, 8
    497d:	0c0c      	movi.n	a12, 0
    497f:	10c1d2        	addi	a13, a1, 16
    4982:	512382        	l32i	a8, a3, 0x144
    4985:	0e0c      	movi.n	a14, 0
    4987:	0008e0        	excw
    498a:	4a2382        	l32i	a8, a3, 0x128
    498d:	02ad      	mov.n	a10, a2
    498f:	0008e0        	excw
    4992:	052d      	mov.n	a2, a5
    4994:	f01d      	excw
    4996:	360000        	excw
    4999:	210061        	l32r	a6, 0xfffccd9c
    499c:	827a65        	excw
    499f:	e01622        	l16ui	a2, a6, 0x1c0
    49a2:	0008      	l32i.n	a0, a0, 0
    49a4:	0c1a66        	bnei	a10, 1, 0x49b4
    49a7:	b288      	l32i.n	a8, a2, 44
    49a9:	0008e0        	excw
    49ac:	04aa66        	bnei	a10, 12, 0x49b4
    49af:	c0bda5        	excw
    49b2:	f01d      	excw
    49b4:	162282        	l32i	a8, a2, 88
    49b7:	0008e0        	excw
    49ba:	7aa931        	l32r	a3, 0xfffe3460
    49bd:	101a66        	bnei	a10, 1, 0x49d1
    49c0:	b288      	l32i.n	a8, a2, 44
    49c2:	0008e0        	excw
    49c5:	083a66        	bnei	a10, 3, 0x49d1
    49c8:	c0bbe5        	excw
    49cb:	1a0c      	movi.n	a10, 1
    49cd:	c3a9      	s32i.n	a10, a3, 48
    49cf:	f01d      	excw
    49d1:	162282        	l32i	a8, a2, 88
    49d4:	0008e0        	excw
    49d7:	451a66        	bnei	a10, 1, 0x4a20
    49da:	b288      	l32i.n	a8, a2, 44
    49dc:	0008e0        	excw
    49df:	f90c      	movi.n	a9, 15
    49e1:	3b9a97        	bne	a10, a9, 0x4a20
    49e4:	c0ba25        	excw
    49e7:	7abfa1        	l32r	a10, 0xfffe34e4
    49ea:	7a3a81        	l32r	a8, 0xfffe32d4
    49ed:	7a9db1        	l32r	a11, 0xfffe3464
    49f0:	f888      	l32i.n	a8, a8, 60
    49f2:	010bb2        	l8ui	a11, a11, 1
    49f5:	0008e0        	excw
    49f8:	92a0a2        	movi	a10, 146
    49fb:	01bd      	mov.n	a11, a1
    49fd:	0c0c      	movi.n	a12, 0
    49ff:	0041c2        	s8i	a12, a1, 0
    4a02:	0141c2        	s8i	a12, a1, 1
    4a05:	2c0c      	movi.n	a12, 2
    4a07:	ff5c65        	excw
    4a0a:	7aaaa1        	l32r	a10, 0xfffe34b4
    4a0d:	0b0c      	movi.n	a11, 0
    4a0f:	0c0c      	movi.n	a12, 0
    4a11:	7a9a81        	l32r	a8, 0xfffe347c
    4a14:	0d0c      	movi.n	a13, 0
    4a16:	512882        	l32i	a8, a8, 0x144
    4a19:	0e0c      	movi.n	a14, 0
    4a1b:	0008e0        	excw
    4a1e:	f01d      	excw
    4a20:	b388      	l32i.n	a8, a3, 44
    4a22:	0008e0        	excw
    4a25:	f01d      	excw
    4a27:	413600        	srli	a3, a0, 6
    4a2a:	a92100        	excw
    4a2d:	887a      	add.n	a8, a8, a7
    4a2f:	289cc2        	l16si	a12, a12, 80
    4a32:	7aaba1        	l32r	a10, 0xfffe34e0
    4a35:	7a3e81        	l32r	a8, 0xfffe3330
    4a38:	0b0c      	movi.n	a11, 0
    4a3a:	142882        	l32i	a8, a8, 80
    4a3d:	1c0c      	movi.n	a12, 1
    4a3f:	0008e0        	excw
    4a42:	090c      	movi.n	a9, 0
    4a44:	c299      	s32i.n	a9, a2, 48
    4a46:	f01d      	excw
    4a48:	004136        	excw
    4a4b:	3a1266        	bnei	a2, 1, 0x4a89
    4a4e:	7a40f1        	l32r	a15, 0xfffe3350
    4a51:	0a03e2        	l8ui	a14, a3, 10
    4a54:	7ac081        	l32r	a8, 0xfffe3554
    4a57:	ee3a      	add.n	a14, a14, a3
    4a59:	0d0eb2        	l8ui	a11, a14, 13
    4a5c:	0c0ea2        	l8ui	a10, a14, 12
    4a5f:	11bb80        	slli	a11, a11, 8
    4a62:	aaba      	add.n	a10, a10, a11
    4a64:	f4a0a0        	extui	a10, a10, 0, 16
    4a67:	2c1a87        	beq	a10, a8, 0x4a97
    4a6a:	7ac181        	l32r	a8, 0xfffe3570
    4a6d:	7ac291        	l32r	a9, 0xfffe3578
    4a70:	231a87        	beq	a10, a8, 0x4a97
    4a73:	201a97        	beq	a10, a9, 0x4a97
    4a76:	7ac3b1        	l32r	a11, 0xfffe3584
    4a79:	1a1ab7        	beq	a10, a11, 0x4a97
    4a7c:	03cd      	mov.n	a12, a3
    4a7e:	3a0c      	movi.n	a10, 3
    4a80:	8f88      	l32i.n	a8, a15, 32
    4a82:	0b2c      	movi.n	a11, 32
    4a84:	0008e0        	excw
    4a87:	f01d      	excw
    4a89:	7aa981        	l32r	a8, 0xfffe3530
    4a8c:	02ad      	mov.n	a10, a2
    4a8e:	d888      	l32i.n	a8, a8, 52
    4a90:	03bd      	mov.n	a11, a3
    4a92:	0008e0        	excw
    4a95:	f01d      	excw
    4a97:	cecb      	addi.n	a12, a14, 12
    4a99:	3a0c      	movi.n	a10, 3
    4a9b:	7ac4b1        	l32r	a11, 0xfffe35ac
    4a9e:	7f88      	l32i.n	a8, a15, 28
    4aa0:	0213d2        	l16ui	a13, a3, 4
    4aa3:	0008e0        	excw
    4aa6:	7a9a81        	l32r	a8, 0xfffe3510
    4aa9:	4a2882        	l32i	a8, a8, 0x128
    4aac:	03ad      	mov.n	a10, a3
    4aae:	0008e0        	excw
    4ab1:	f01d      	excw
    4ab3:	413600        	srli	a3, a0, 6
    4ab6:	c49100        	extui	a9, a0, 1, 13
    4ab9:	827a      	add.n	a8, a2, a7
    4abb:	a10312        	l8ui	a1, a3, 161
    4abe:	907ac0        	addx2	a7, a10, a12
    4ac1:	c088      	l32i.n	a8, a0, 48
    4ac3:	083856        	bnez	a8, 0x4b4a
    4ac6:	0d02c2        	l8ui	a12, a2, 13
    4ac9:	0c02b2        	l8ui	a11, a2, 12
    4acc:	11cc80        	slli	a12, a12, 8
    4acf:	bbca      	add.n	a11, a11, a12
    4ad1:	f4b0b0        	extui	a11, a11, 0, 16
    4ad4:	189ba7        	bne	a11, a10, 0x4af0
    4ad7:	7ac5d1        	l32r	a13, 0xfffe35ec
    4ada:	a32dd2        	l32i	a13, a13, 0x28c
    4add:	5d2d66        	bnei	a13, 2, 0x4b3e
    4ae0:	7a2d81        	l32r	a8, 0xfffe3394
    4ae3:	0a0c      	movi.n	a10, 0
    4ae5:	e22882        	l32i	a8, a8, 0x388
    4ae8:	0b0c      	movi.n	a11, 0
    4aea:	0008e0        	excw
    4aed:	001346        	j	0x4b3e
    4af0:	130c      	movi.n	a3, 1
    4af2:	7ac191        	l32r	a9, 0xfffe35f8
    4af5:	7ac6c1        	l32r	a12, 0xfffe3610
    4af8:	059b97        	bne	a11, a9, 0x4b01
    4afb:	554c32        	s8i	a3, a12, 85
    4afe:	000f06        	j	0x4b3e
    4b01:	7ac2a1        	l32r	a10, 0xfffe360c
    4b04:	7a9fd1        	l32r	a13, 0xfffe3580
    4b07:	0f9ba7        	bne	a11, a10, 0x4b1a
    4b0a:	03ad      	mov.n	a10, a3
    4b0c:	090c      	movi.n	a9, 0
    4b0e:	432d82        	l32i	a8, a13, 0x10c
    4b11:	554c92        	s8i	a9, a12, 85
    4b14:	0008e0        	excw
    4b17:	0008c6        	j	0x4b3e
    4b1a:	7ac3a1        	l32r	a10, 0xfffe3628
    4b1d:	1d9ba7        	bne	a11, a10, 0x4b3e
    4b20:	7d88      	l32i.n	a8, a13, 28
    4b22:	7aa0a1        	l32r	a10, 0xfffe35a4
    4b25:	0008e0        	excw
    4b28:	7ac3a1        	l32r	a10, 0xfffe3634
    4b2b:	7a3e81        	l32r	a8, 0xfffe3424
    4b2e:	0b0c      	movi.n	a11, 0
    4b30:	142882        	l32i	a8, a8, 80
    4b33:	1c0c      	movi.n	a12, 1
    4b35:	0008e0        	excw
    4b38:	7a9a91        	l32r	a9, 0xfffe35a0
    4b3b:	176932        	s32i	a3, a9, 92
    4b3e:	7a4081        	l32r	a8, 0xfffe3440
    4b41:	5888      	l32i.n	a8, a8, 20
    4b43:	02ad      	mov.n	a10, a2
    4b45:	0008e0        	excw
    4b48:	f01d      	excw
    4b4a:	7aa981        	l32r	a8, 0xfffe35f0
    4b4d:	e888      	l32i.n	a8, a8, 56
    4b4f:	02ad      	mov.n	a10, a2
    4b51:	0008e0        	excw
    4b54:	f01d      	excw
    4b56:	360000        	excw
    4b59:	c10041        	l32r	a4, 0xffff4f5c
    4b5c:	d17ac7        	bbci	a10, 28, 0x4b31
    4b5f:	7aa9      	s32i.n	a10, a10, 28
    4b61:	7ac991        	l32r	a9, 0xfffe3688
    4b64:	7a9aa1        	l32r	a10, 0xfffe35cc
    4b67:	7ac831        	l32r	a3, 0xfffe3688
    4b6a:	472ae2        	l32i	a14, a10, 0x11c
    4b6d:	ce2322        	l32i	a2, a3, 0x338
    4b70:	872352        	l32i	a5, a3, 0x21c
    4b73:	7a2342        	l32i	a4, a3, 0x1e8
    4b76:	692382        	l32i	a8, a3, 0x1a4
    4b79:	7623f2        	l32i	a15, a3, 0x1d8
    4b7c:	372ab2        	l32i	a11, a10, 220
    4b7f:	376a92        	s32i	a9, a10, 220
    4b82:	edb9      	s32i.n	a11, a13, 56
    4b84:	7acab1        	l32r	a11, 0xfffe36ac
    4b87:	ddf9      	s32i.n	a15, a13, 52
    4b89:	6963b2        	s32i	a11, a3, 0x1a4
    4b8c:	2d89      	s32i.n	a8, a13, 8
    4b8e:	bde9      	s32i.n	a14, a13, 44
    4b90:	476ac2        	s32i	a12, a10, 0x11c
    4b93:	3d59      	s32i.n	a5, a13, 12
    4b95:	4d49      	s32i.n	a4, a13, 16
    4b97:	ad29      	s32i.n	a2, a13, 40
    4b99:	7acc91        	l32r	a9, 0xfffe36cc
    4b9c:	7a6392        	s32i	a9, a3, 0x1e8
    4b9f:	7ad021        	l32r	a2, 0xfffe36e0
    4ba2:	7acf41        	l32r	a4, 0xfffe36e0
    4ba5:	7ace51        	l32r	a5, 0xfffe36e0
    4ba8:	7acba1        	l32r	a10, 0xfffe36d4
    4bab:	6d23e2        	l32i	a14, a3, 0x1b4
    4bae:	5523c2        	l32i	a12, a3, 0x154
    4bb1:	7acd81        	l32r	a8, 0xfffe36e8
    4bb4:	ce6382        	s32i	a8, a3, 0x338
    4bb7:	1dc9      	s32i.n	a12, a13, 4
    4bb9:	0de9      	s32i.n	a14, a13, 0
    4bbb:	8763a2        	s32i	a10, a3, 0x21c
    4bbe:	766352        	s32i	a5, a3, 0x1d8
    4bc1:	6d6342        	s32i	a4, a3, 0x1b4
    4bc4:	556322        	s32i	a2, a3, 0x154
    4bc7:	f01d      	excw
    4bc9:	000000        	ill
    4bcc:	004136        	excw
    4bcf:	023d      	mov.n	a3, a2
    4bd1:	7a6e21        	l32r	a2, 0xfffe358c
    4bd4:	0102a2        	l8ui	a10, a2, 1
    4bd7:	000282        	l8ui	a8, a2, 0
    4bda:	0433a7        	bltu	a3, a10, 0x4be2
    4bdd:	88aa      	add.n	a8, a8, a10
    4bdf:	0a2387        	blt	a3, a8, 0x4bed
    4be2:	7ad1a1        	l32r	a10, 0xfffe3728
    4be5:	0b0c      	movi.n	a11, 0
    4be7:	b54965        	excw
    4bea:	0102a2        	l8ui	a10, a2, 1
    4bed:	c023a0        	sub	a2, a3, a10
    4bf0:	20c222        	addi	a2, a2, 32
    4bf3:	742020        	extui	a2, a2, 0, 8
    4bf6:	f01d      	excw
    4bf8:	004136        	excw
    4bfb:	7ad231        	l32r	a3, 0xfffe3744
    4bfe:	024d      	mov.n	a4, a2
    4c00:	7a6e21        	l32r	a2, 0xfffe35b8
    4c03:	010222        	l8ui	a2, a2, 1
    4c06:	c02420        	sub	a2, a4, a2
    4c09:	223a      	add.n	a2, a2, a3
    4c0b:	000222        	l8ui	a2, a2, 0
    4c0e:	f01d      	excw
    4c10:	004136        	excw
    4c13:	03bd      	mov.n	a11, a3
    4c15:	7ad331        	l32r	a3, 0xfffe3764
    4c18:	2388      	l32i.n	a8, a3, 8
    4c1a:	02ad      	mov.n	a10, a2
    4c1c:	0008e0        	excw
    4c1f:	0a2d      	mov.n	a2, a10
    4c21:	5adc      	bnez.n	a10, 0x4c3a
    4c23:	ba0c      	movi.n	a10, 11
    4c25:	2c3c      	movi.n	a12, 50
    4c27:	7ad481        	l32r	a8, 0xfffe3778
    4c2a:	7a6eb1        	l32r	a11, 0xfffe35e4
    4c2d:	132882        	l32i	a8, a8, 76
    4c30:	600bb2        	l8ui	a11, a11, 96
    4c33:	0008e0        	excw
    4c36:	fc7c      	movi.n	a12, -1
    4c38:	13c9      	s32i.n	a12, a3, 4
    4c3a:	f01d      	excw
    4c3c:	004136        	excw
    4c3f:	7a6e41        	l32r	a4, 0xfffe35f8
    4c42:	ffa092        	movi	a9, 255
    4c45:	4c0482        	l8ui	a8, a4, 76
    4c48:	600432        	l8ui	a3, a4, 96
    4c4b:	03e847        	bbsi	a8, 4, 0x4c52
    4c4e:	c20c      	movi.n	a2, 12
    4c50:	f01d      	excw
    4c52:	0a9397        	bne	a3, a9, 0x4c60
    4c55:	7ad1a1        	l32r	a10, 0xfffe379c
    4c58:	0b0c      	movi.n	a11, 0
    4c5a:	b54225        	excw
    4c5d:	600432        	l8ui	a3, a4, 96
    4c60:	03e620        	rsr.ps	a2
    4c63:	2c0c      	movi.n	a12, 2
    4c65:	34b020        	extui	a11, a2, 0, 4
    4c68:	022cb7        	blt	a12, a11, 0x4c6e
    4c6b:	006220        	rsil	a2, 2
    4c6e:	efa0a2        	movi	a10, 239
    4c71:	4c0492        	l8ui	a9, a4, 76
    4c74:	7ad481        	l32r	a8, 0xfffe37c4
    4c77:	03bd      	mov.n	a11, a3
    4c79:	2888      	l32i.n	a8, a8, 8
    4c7b:	1099a0        	and	a9, a9, a10
    4c7e:	4c4492        	s8i	a9, a4, 76
    4c81:	ba0c      	movi.n	a10, 11
    4c83:	0008e0        	excw
    4c86:	7a3841        	l32r	a4, 0xfffe3568
    4c89:	5adc      	bnez.n	a10, 0x4ca2
    4c8b:	312482        	l32i	a8, a4, 196
    4c8e:	03ad      	mov.n	a10, a3
    4c90:	0008e0        	excw
    4c93:	03ad      	mov.n	a10, a3
    4c95:	2b0c      	movi.n	a11, 2
    4c97:	132482        	l32i	a8, a4, 76
    4c9a:	0c0c      	movi.n	a12, 0
    4c9c:	0008e0        	excw
    4c9f:	000386        	j	0x4cb1
    4ca2:	152a66        	bnei	a10, 2, 0x4cbb
    4ca5:	03ad      	mov.n	a10, a3
    4ca7:	2b0c      	movi.n	a11, 2
    4ca9:	132482        	l32i	a8, a4, 76
    4cac:	0c0c      	movi.n	a12, 0
    4cae:	0008e0        	excw
    4cb1:	13e620        	wsr.ps	a2
    4cb4:	002010        	rsync
    4cb7:	020c      	movi.n	a2, 0
    4cb9:	f01d      	excw
    4cbb:	13e620        	wsr.ps	a2
    4cbe:	002010        	rsync
    4cc1:	324c      	movi.n	a2, 67
    4cc3:	f01d      	excw
    4cc5:	000000        	ill
    4cc8:	004136        	excw
    4ccb:	03bd      	mov.n	a11, a3
    4ccd:	7ad331        	l32r	a3, 0xfffe381c
    4cd0:	3388      	l32i.n	a8, a3, 12
    4cd2:	02ad      	mov.n	a10, a2
    4cd4:	0008e0        	excw
    4cd7:	0a2d      	mov.n	a2, a10
    4cd9:	badc      	bnez.n	a10, 0x4cf8
    4cdb:	7a6ed1        	l32r	a13, 0xfffe3694
    4cde:	4c0d92        	l8ui	a9, a13, 76
    4ce1:	136907        	bbci	a9, 0, 0x4cf8
    4ce4:	500db2        	l8ui	a11, a13, 80
    4ce7:	7ad481        	l32r	a8, 0xfffe3838
    4cea:	ba0c      	movi.n	a10, 11
    4cec:	132882        	l32i	a8, a8, 76
    4cef:	4c3c      	movi.n	a12, 52
    4cf1:	0008e0        	excw
    4cf4:	f97c      	movi.n	a9, -1
    4cf6:	0399      	s32i.n	a9, a3, 0
    4cf8:	f01d      	excw
    4cfa:	360000        	excw
    4cfd:	0c0041        	l32r	a4, 0xfffc7d00
    4d00:	6e5104        	excw
    4d03:	0c7a      	add.n	a0, a12, a7
    4d05:	02ad17        	bge	a13, a1, 0x4d0b
    4d08:	6c0c      	movi.n	a12, 6
    4d0a:	f06440        	subx8	a6, a4, a4
    4d0d:	656a      	add.n	a6, a5, a6
    4d0f:	75c6b2        	addi	a11, a6, 117
    4d12:	040ca5        	excw
    4d15:	eacc      	bnez.n	a10, 0x4d27
    4d17:	740692        	l8ui	a9, a6, 116
    4d1a:	400300        	ssr	a3
    4d1d:	b18090        	sra	a8, a9
    4d20:	0e6807        	bbci	a8, 0, 0x4d32
    4d23:	120c      	movi.n	a2, 1
    4d25:	f01d      	excw
    4d27:	441b      	addi.n	a4, a4, 1
    4d29:	744040        	extui	a4, a4, 0, 8
    4d2c:	d68466        	bnei	a4, 8, 0x4d06
    4d2f:	0003c6        	j	0x4d42
    4d32:	401300        	ssl	a3
    4d35:	a18700        	sll	a8, a7
    4d38:	208980        	or	a8, a9, a8
    4d3b:	744682        	s8i	a8, a6, 116
    4d3e:	020c      	movi.n	a2, 0
    4d40:	f01d      	excw
    4d42:	02bd      	mov.n	a11, a2
    4d44:	7305d2        	l8ui	a13, a5, 115
    4d47:	401300        	ssl	a3
    4d4a:	a1c700        	sll	a12, a7
    4d4d:	f0ddd0        	subx8	a13, a13, a13
    4d50:	d5da      	add.n	a13, a5, a13
    4d52:	744dc2        	s8i	a12, a13, 116
    4d55:	7305a2        	l8ui	a10, a5, 115
    4d58:	6c0c      	movi.n	a12, 6
    4d5a:	f0aaa0        	subx8	a10, a10, a10
    4d5d:	a5aa      	add.n	a10, a5, a10
    4d5f:	75caa2        	addi	a10, a10, 117
    4d62:	041025        	excw
    4d65:	7305e2        	l8ui	a14, a5, 115
    4d68:	0f0c      	movi.n	a15, 0
    4d6a:	ee1b      	addi.n	a14, a14, 1
    4d6c:	74e0e0        	extui	a14, a14, 0, 8
    4d6f:	7345e2        	s8i	a14, a5, 115
    4d72:	c88eb6        	bltui	a14, 8, 0x4d3e
    4d75:	7345f2        	s8i	a15, a5, 115
    4d78:	fff086        	j	0x4d3e
    4d7b:	413600        	srli	a3, a0, 6
    4d7e:	d34100        	excw
    4d81:	bd7a      	add.n	a11, a13, a7
    4d83:	448803        	excw
    4d86:	02ad      	mov.n	a10, a2
    4d88:	0008e0        	excw
    4d8b:	7a1851        	l32r	a5, 0xfffe35ec
    4d8e:	7a6e91        	l32r	a9, 0xfffe3748
    4d91:	7a75b1        	l32r	a11, 0xfffe3768
    4d94:	500992        	l8ui	a9, a9, 80
    4d97:	0a3d      	mov.n	a3, a10
    4d99:	1c9927        	bne	a9, a2, 0x4db9
    4d9c:	04a8      	l32i.n	a10, a4, 0
    4d9e:	310a66        	bnei	a10, -1, 0x4dd3
    4da1:	740bc2        	l8ui	a12, a11, 116
    4da4:	23cc00        	excw
    4da7:	071ce6        	bgei	a12, 1, 0x4db2
    4daa:	7ad1a1        	l32r	a10, 0xfffe38f0
    4dad:	0b0c      	movi.n	a11, 0
    4daf:	b52ce5        	excw
    4db2:	15d8      	l32i.n	a13, a5, 4
    4db4:	04d9      	s32i.n	a13, a4, 0
    4db6:	000646        	j	0x4dd3
    4db9:	14e8      	l32i.n	a14, a4, 4
    4dbb:	740bf2        	l8ui	a15, a11, 116
    4dbe:	110e66        	bnei	a14, -1, 0x4dd3
    4dc1:	23ff00        	excw
    4dc4:	071fe6        	bgei	a15, 1, 0x4dcf
    4dc7:	7ad1a1        	l32r	a10, 0xfffe390c
    4dca:	0b0c      	movi.n	a11, 0
    4dcc:	b52ae5        	excw
    4dcf:	1588      	l32i.n	a8, a5, 4
    4dd1:	1489      	s32i.n	a8, a4, 4
    4dd3:	032d      	mov.n	a2, a3
    4dd5:	f01d      	excw
    4dd7:	413600        	srli	a3, a0, 6
    4dda:	6e3100        	excw
    4ddd:	717a      	add.n	a7, a1, a7
    4ddf:	7a38      	l32i.n	a3, a10, 28
    4de1:	500382        	l8ui	a8, a3, 80
    4de4:	7a2d61        	l32r	a6, 0xfffe3698
    4de7:	c08820        	sub	a8, a8, a2
    4dea:	1c0856        	bnez	a8, 0x4fae
    4ded:	4c03a2        	l8ui	a10, a3, 76
    4df0:	50c342        	addi	a4, a3, 80
    4df3:	0fea07        	bbsi	a10, 0, 0x4e06
    4df6:	312782        	l32i	a8, a7, 196
    4df9:	02ad      	mov.n	a10, a2
    4dfb:	0008e0        	excw
    4dfe:	ff2682        	l32i	a8, a6, 0x3fc
    4e01:	0008e0        	excw
    4e04:	f01d      	excw
    4e06:	7a3ac1        	l32r	a12, 0xfffe36f0
    4e09:	fba052        	movi	a5, 251
    4e0c:	13b8      	l32i.n	a11, a3, 4
    4e0e:	fda092        	movi	a9, 253
    4e11:	04d4b0        	extui	a13, a11, 4, 1
    4e14:	174d16        	beqz	a13, 0x4f8c
    4e17:	2b0c      	movi.n	a11, 2
    4e19:	04e1a0        	extui	a14, a10, 1, 1
    4e1c:	1afe16        	beqz	a14, 0x4fcf
    4e1f:	10aa90        	and	a10, a10, a9
    4e22:	7203f2        	l8ui	a15, a3, 114
    4e25:	180c      	movi.n	a8, 1
    4e27:	74f1f0        	extui	a15, a15, 1, 8
    4e2a:	7243f2        	s8i	a15, a3, 114
    4e2d:	83f8f0        	moveqz	a15, a8, a15
    4e30:	7243f2        	s8i	a15, a3, 114
    4e33:	3c88      	l32i.n	a8, a12, 12
    4e35:	4c43a2        	s8i	a10, a3, 76
    4e38:	0008e0        	excw
    4e3b:	7203b2        	l8ui	a11, a3, 114
    4e3e:	03f2e5        	excw
    4e41:	4c0392        	l8ui	a9, a3, 76
    4e44:	7143a2        	s8i	a10, a3, 113
    4e47:	109950        	and	a9, a9, a5
    4e4a:	4c4392        	s8i	a9, a3, 76
    4e4d:	fa7c      	movi.n	a10, -1
    4e4f:	7a1861        	l32r	a6, 0xfffe36b0
    4e52:	7ad3c1        	l32r	a12, 0xfffe39a0
    4e55:	7a75b1        	l32r	a11, 0xfffe382c
    4e58:	7a2451        	l32r	a5, 0xfffe36e8
    4e5b:	740bd2        	l8ui	a13, a11, 116
    4e5e:	5003e2        	l8ui	a14, a3, 80
    4e61:	23dd00        	excw
    4e64:	269e27        	bne	a14, a2, 0x4e8e
    4e67:	0c1de6        	bgei	a13, 1, 0x4e77
    4e6a:	7ad1a1        	l32r	a10, 0xfffe39b0
    4e6d:	0b0c      	movi.n	a11, 0
    4e6f:	b520e5        	excw
    4e72:	7ad3c1        	l32r	a12, 0xfffe39c0
    4e75:	fa7c      	movi.n	a10, -1
    4e77:	0cf8      	l32i.n	a15, a12, 0
    4e79:	16e8      	l32i.n	a14, a6, 4
    4e7b:	c0eef0        	sub	a14, a14, a15
    4e7e:	10ee50        	and	a14, a14, a5
    4e81:	02def6        	bgeui	a14, 64, 0x4e87
    4e84:	004846        	j	0x4fa9
    4e87:	0ca9      	s32i.n	a10, a12, 0
    4e89:	0c5c      	movi.n	a12, 80
    4e8b:	000946        	j	0x4eb4
    4e8e:	0c1de6        	bgei	a13, 1, 0x4e9e
    4e91:	7ad1a1        	l32r	a10, 0xfffe39d8
    4e94:	0b0c      	movi.n	a11, 0
    4e96:	b51e65        	excw
    4e99:	7ad3c1        	l32r	a12, 0xfffe39e8
    4e9c:	fa7c      	movi.n	a10, -1
    4e9e:	1c98      	l32i.n	a9, a12, 4
    4ea0:	1688      	l32i.n	a8, a6, 4
    4ea2:	c08890        	sub	a8, a8, a9
    4ea5:	108850        	and	a8, a8, a5
    4ea8:	06e8b6        	bltui	a8, 128, 0x4eb2
    4eab:	1ca9      	s32i.n	a10, a12, 4
    4ead:	0c5c      	movi.n	a12, 80
    4eaf:	000046        	j	0x4eb4
    4eb2:	2c3c      	movi.n	a12, 50
    4eb4:	7ad481        	l32r	a8, 0xfffe3a04
    4eb7:	ba0c      	movi.n	a10, 11
    4eb9:	132882        	l32i	a8, a8, 76
    4ebc:	02bd      	mov.n	a11, a2
    4ebe:	0008e0        	excw
    4ec1:	0614a2        	l16ui	a10, a4, 12
    4ec4:	16c8      	l32i.n	a12, a6, 4
    4ec6:	0314d2        	l16ui	a13, a4, 6
    4ec9:	e4b1c0        	extui	a11, a12, 1, 15
    4ecc:	c0bbd0        	sub	a11, a11, a13
    4ecf:	e4b0b0        	extui	a11, a11, 0, 15
    4ed2:	32bba7        	bgeu	a11, a10, 0x4f08
    4ed5:	7a1581        	l32r	a8, 0xfffe372c
    4ed8:	c09ab0        	sub	a9, a10, a11
    4edb:	ca2882        	l32i	a8, a8, 0x328
    4ede:	065492        	s16i	a9, a4, 12
    4ee1:	0008e0        	excw
    4ee4:	18a192        	movi	a9, 0x118
    4ee7:	0289a7        	bany	a9, a10, 0x4eed
    4eea:	002706        	j	0x4f8a
    4eed:	7a7fa1        	l32r	a10, 0xfffe38ec
    4ef0:	ca0aa2        	l8ui	a10, a10, 202
    4ef3:	093a16        	beqz	a10, 0x4f8a
    4ef6:	1a0c      	movi.n	a10, 1
    4ef8:	7ad481        	l32r	a8, 0xfffe3a48
    4efb:	ffa0b2        	movi	a11, 255
    4efe:	132882        	l32i	a8, a8, 76
    4f01:	9c1c      	movi.n	a12, 25
    4f03:	0008e0        	excw
    4f06:	f01d      	excw
    4f08:	7a7591        	l32r	a9, 0xfffe38dc
    4f0b:	740992        	l8ui	a9, a9, 116
    4f0e:	239900        	excw
    4f11:	0919e6        	bgei	a9, 1, 0x4f1e
    4f14:	7ad1a1        	l32r	a10, 0xfffe3a58
    4f17:	0b0c      	movi.n	a11, 0
    4f19:	b51625        	excw
    4f1c:	16c8      	l32i.n	a12, a6, 4
    4f1e:	24b8      	l32i.n	a11, a4, 8
    4f20:	0214d2        	l16ui	a13, a4, 4
    4f23:	c0bcb0        	sub	a11, a12, a11
    4f26:	10bb50        	and	a11, a11, a5
    4f29:	13bbd7        	bgeu	a11, a13, 0x4f40
    4f2c:	c0adb0        	sub	a10, a13, a11
    4f2f:	7a2d81        	l32r	a8, 0xfffe37e4
    4f32:	7a12b1        	l32r	a11, 0xfffe377c
    4f35:	aa1b      	addi.n	a10, a10, 1
    4f37:	fe2882        	l32i	a8, a8, 0x3f8
    4f3a:	10aab0        	and	a10, a10, a11
    4f3d:	0008e0        	excw
    4f40:	010492        	l8ui	a9, a4, 1
    4f43:	fa7c      	movi.n	a10, -1
    4f45:	24a9      	s32i.n	a10, a4, 8
    4f47:	1199f0        	slli	a9, a9, 1
    4f4a:	749090        	extui	a9, a9, 0, 8
    4f4d:	014492        	s8i	a9, a4, 1
    4f50:	0659b6        	bltui	a9, 5, 0x4f5a
    4f53:	190c      	movi.n	a9, 1
    4f55:	1b0c      	movi.n	a11, 1
    4f57:	0144b2        	s8i	a11, a4, 1
    4f5a:	221966        	bnei	a9, 1, 0x4f80
    4f5d:	0214d2        	l16ui	a13, a4, 4
    4f60:	0114c2        	l16ui	a12, a4, 2
    4f63:	199cd7        	bne	a12, a13, 0x4f80
    4f66:	6003e2        	l8ui	a14, a3, 96
    4f69:	139e27        	bne	a14, a2, 0x4f80
    4f6c:	4c03a2        	l8ui	a10, a3, 76
    4f6f:	0d6a07        	bbci	a10, 0, 0x4f80
    4f72:	0a6a47        	bbci	a10, 4, 0x4f80
    4f75:	7a2d81        	l32r	a8, 0xfffe382c
    4f78:	fe2882        	l32i	a8, a8, 0x3f8
    4f7b:	0dad      	mov.n	a10, a13
    4f7d:	0008e0        	excw
    4f80:	02ad      	mov.n	a10, a2
    4f82:	2e2782        	l32i	a8, a7, 184
    4f85:	0b0c      	movi.n	a11, 0
    4f87:	0008e0        	excw
    4f8a:	f01d      	excw
    4f8c:	5c6b57        	bbci	a11, 5, 0x4fec
    4f8f:	4b0c      	movi.n	a11, 4
    4f91:	406a27        	bbci	a10, 2, 0x4fd5
    4f94:	720392        	l8ui	a9, a3, 114
    4f97:	04b790        	extui	a11, a9, 7, 1
    4f9a:	0dab56        	bnez	a11, 0x5078
    4f9d:	1199f0        	slli	a9, a9, 1
    4fa0:	724392        	s8i	a9, a3, 114
    4fa3:	10aa50        	and	a10, a10, a5
    4fa6:	000b86        	j	0x4fd8
    4fa9:	2c3c      	movi.n	a12, 50
    4fab:	ffc146        	j	0x4eb4
    4fae:	60c342        	addi	a4, a3, 96
    4fb1:	302782        	l32i	a8, a7, 192
    4fb4:	02ad      	mov.n	a10, a2
    4fb6:	0008e0        	excw
    4fb9:	4c0392        	l8ui	a9, a3, 76
    4fbc:	40e947        	bbsi	a9, 4, 0x5000
    4fbf:	312782        	l32i	a8, a7, 196
    4fc2:	02ad      	mov.n	a10, a2
    4fc4:	0008e0        	excw
    4fc7:	ff2682        	l32i	a8, a6, 0x3fc
    4fca:	0008e0        	excw
    4fcd:	f01d      	excw
    4fcf:	20aab0        	or	a10, a10, a11
    4fd2:	ff9746        	j	0x4e33
    4fd5:	20aab0        	or	a10, a10, a11
    4fd8:	3c88      	l32i.n	a8, a12, 12
    4fda:	4c43a2        	s8i	a10, a3, 76
    4fdd:	0008e0        	excw
    4fe0:	7203b2        	l8ui	a11, a3, 114
    4fe3:	03d8a5        	excw
    4fe6:	fda052        	movi	a5, 253
    4fe9:	ff9506        	j	0x4e41
    4fec:	0493b0        	extui	a9, a11, 3, 1
    4fef:	e5a916        	beqz	a9, 0x4e4d
    4ff2:	710392        	l8ui	a9, a3, 113
    4ff5:	e54916        	beqz	a9, 0x4e4d
    4ff8:	a90b      	addi.n	a10, a9, -1
    4ffa:	7143a2        	s8i	a10, a3, 113
    4ffd:	ff9306        	j	0x4e4d
    5000:	13b8      	l32i.n	a11, a3, 4
    5002:	04b6b0        	extui	a11, a11, 6, 1
    5005:	e44b16        	beqz	a11, 0x4e4d
    5008:	7ad591        	l32r	a9, 0xfffe3b5c
    500b:	0020c0        	memw
    500e:	2c23c2        	l32i	a12, a3, 176
    5011:	9329a2        	l32i	a10, a9, 0x24c
    5014:	78a1b2        	movi	a11, 0x178
    5017:	c1b2b0        	mul16u	a11, a2, a11
    501a:	05a5a0        	extui	a10, a10, 21, 1
    501d:	ccba      	add.n	a12, a12, a11
    501f:	3c4ca2        	s8i	a10, a12, 60
    5022:	0020c0        	memw
    5025:	2c2382        	l32i	a8, a3, 176
    5028:	9429a2        	l32i	a10, a9, 0x250
    502b:	88ba      	add.n	a8, a8, a11
    502d:	3d48a2        	s8i	a10, a8, 61
    5030:	2c23f2        	l32i	a15, a3, 176
    5033:	41e8a0        	srli	a14, a10, 8
    5036:	ffba      	add.n	a15, a15, a11
    5038:	3e4fe2        	s8i	a14, a15, 62
    503b:	2c23d2        	l32i	a13, a3, 176
    503e:	f5c0a0        	extui	a12, a10, 16, 16
    5041:	ddba      	add.n	a13, a13, a11
    5043:	3f4dc2        	s8i	a12, a13, 63
    5046:	2c23c2        	l32i	a12, a3, 176
    5049:	75a8a0        	extui	a10, a10, 24, 8
    504c:	ccba      	add.n	a12, a12, a11
    504e:	404ca2        	s8i	a10, a12, 64
    5051:	0020c0        	memw
    5054:	2c23a2        	l32i	a10, a3, 176
    5057:	952992        	l32i	a9, a9, 0x254
    505a:	aaba      	add.n	a10, a10, a11
    505c:	414a92        	s8i	a9, a10, 65
    505f:	2c23a2        	l32i	a10, a3, 176
    5062:	419890        	srli	a9, a9, 8
    5065:	aaba      	add.n	a10, a10, a11
    5067:	424a92        	s8i	a9, a10, 66
    506a:	402782        	l32i	a8, a7, 0x100
    506d:	0008e0        	excw
    5070:	ff2682        	l32i	a8, a6, 0x3fc
    5073:	0008e0        	excw
    5076:	f01d      	excw
    5078:	ffa092        	movi	a9, 255
    507b:	ffc846        	j	0x4fa0
    507e:	360000        	excw
    5081:	410041        	l32r	a4, 0xfffd5484
    5084:	7a38      	l32i.n	a3, a10, 28
    5086:	2f2482        	l32i	a8, a4, 188
    5089:	02ad      	mov.n	a10, a2
    508b:	0008e0        	excw
    508e:	302482        	l32i	a8, a4, 192
    5091:	02ad      	mov.n	a10, a2
    5093:	0008e0        	excw
    5096:	7a6e31        	l32r	a3, 0xfffe3a50
    5099:	2c0392        	l8ui	a9, a3, 44
    509c:	7a2d51        	l32r	a5, 0xfffe3950
    509f:	0de907        	bbsi	a9, 0, 0x50b0
    50a2:	322482        	l32i	a8, a4, 200
    50a5:	0008e0        	excw
    50a8:	ff2582        	l32i	a8, a5, 0x3fc
    50ab:	0008e0        	excw
    50ae:	f01d      	excw
    50b0:	1398      	l32i.n	a9, a3, 4
    50b2:	09e907        	bbsi	a9, 0, 0x50bf
    50b5:	7ad1a1        	l32r	a10, 0xfffe3bfc
    50b8:	0b0c      	movi.n	a11, 0
    50ba:	b4fc25        	excw
    50bd:	1398      	l32i.n	a9, a3, 4
    50bf:	0f6927        	bbci	a9, 2, 0x50d2
    50c2:	412482        	l32i	a8, a4, 0x104
    50c5:	0008e0        	excw
    50c8:	6a8c      	beqz.n	a10, 0x50d2
    50ca:	ff2582        	l32i	a8, a5, 0x3fc
    50cd:	0008e0        	excw
    50d0:	f01d      	excw
    50d2:	7a7591        	l32r	a9, 0xfffe3aa8
    50d5:	740992        	l8ui	a9, a9, 116
    50d8:	239900        	excw
    50db:	0719e6        	bgei	a9, 1, 0x50e6
    50de:	7ad1a1        	l32r	a10, 0xfffe3c24
    50e1:	0b0c      	movi.n	a11, 0
    50e3:	b4f9a5        	excw
    50e6:	2d03b2        	l8ui	a11, a3, 45
    50e9:	7a1861        	l32r	a6, 0xfffe394c
    50ec:	f398      	l32i.n	a9, a3, 60
    50ee:	1668      	l32i.n	a6, a6, 4
    50f0:	7a2481        	l32r	a8, 0xfffe3980
    50f3:	c06690        	sub	a6, a6, a9
    50f6:	106680        	and	a6, a6, a8
    50f9:	521b66        	bnei	a11, 1, 0x514f
    50fc:	ffa782        	movi	a8, 0x7ff
    50ff:	023867        	bltu	a8, a6, 0x5105
    5102:	0021c6        	j	0x518d
    5105:	7ad6b1        	l32r	a11, 0xfffe3c60
    5108:	2c23f2        	l32i	a15, a3, 176
    510b:	78a1d2        	movi	a13, 0x178
    510e:	c1d2d0        	mul16u	a13, a2, a13
    5111:	4003e2        	l8ui	a14, a3, 64
    5114:	ffda      	add.n	a15, a15, a13
    5116:	3c4fe2        	s8i	a14, a15, 60
    5119:	2c23a2        	l32i	a10, a3, 176
    511c:	6c0c      	movi.n	a12, 6
    511e:	aada      	add.n	a10, a10, a13
    5120:	3dcaa2        	addi	a10, a10, 61
    5123:	03d425        	excw
    5126:	02ad      	mov.n	a10, a2
    5128:	cb3c      	movi.n	a11, 60
    512a:	132482        	l32i	a8, a4, 76
    512d:	1c0c      	movi.n	a12, 1
    512f:	0008e0        	excw
    5132:	057a16        	beqz	a10, 0x518d
    5135:	322482        	l32i	a8, a4, 200
    5138:	2c0392        	l8ui	a9, a3, 44
    513b:	fea0a2        	movi	a10, 254
    513e:	1099a0        	and	a9, a9, a10
    5141:	2c4392        	s8i	a9, a3, 44
    5144:	0008e0        	excw
    5147:	ff2582        	l32i	a8, a5, 0x3fc
    514a:	0008e0        	excw
    514d:	f01d      	excw
    514f:	420392        	l8ui	a9, a3, 66
    5152:	1813b2        	l16ui	a11, a3, 48
    5155:	29fc      	bnez.n	a9, 0x518b
    5157:	22b6b7        	bgeu	a6, a11, 0x517d
    515a:	7a3a81        	l32r	a8, 0xfffe3a44
    515d:	3888      	l32i.n	a8, a8, 12
    515f:	0008e0        	excw
    5162:	fe2582        	l32i	a8, a5, 0x3f8
    5165:	7a12b1        	l32r	a11, 0xfffe39b0
    5168:	1813c2        	l16ui	a12, a3, 48
    516b:	ed0c      	movi.n	a13, 14
    516d:	10aad0        	and	a10, a10, a13
    5170:	c0cc60        	sub	a12, a12, a6
    5173:	aaca      	add.n	a10, a10, a12
    5175:	aa1b      	addi.n	a10, a10, 1
    5177:	10aab0        	and	a10, a10, a11
    517a:	0008e0        	excw
    517d:	02ad      	mov.n	a10, a2
    517f:	0b0c      	movi.n	a11, 0
    5181:	f97c      	movi.n	a9, -1
    5183:	2e2482        	l32i	a8, a4, 184
    5186:	f399      	s32i.n	a9, a3, 60
    5188:	0008e0        	excw
    518b:	f01d      	excw
    518d:	4103b2        	l8ui	a11, a3, 65
    5190:	4203a2        	l8ui	a10, a3, 66
    5193:	83aba0        	moveqz	a10, a11, a10
    5196:	4243a2        	s8i	a10, a3, 66
    5199:	f01d      	excw
    519b:	413600        	srli	a3, a0, 6
    519e:	6e3100        	excw
    51a1:	927a      	add.n	a9, a2, a7
    51a3:	222c03        	excw
    51a6:	272e03        	excw
    51a9:	0a69      	s32i.n	a6, a10, 0
    51ab:	7ad1a1        	l32r	a10, 0xfffe3cf0
    51ae:	0b0c      	movi.n	a11, 0
    51b0:	b4eca5        	excw
    51b3:	2c0392        	l8ui	a9, a3, 44
    51b6:	076917        	bbci	a9, 1, 0x51c1
    51b9:	7ad1a1        	l32r	a10, 0xfffe3d00
    51bc:	0b0c      	movi.n	a11, 0
    51be:	b4ebe5        	excw
    51c1:	7a3841        	l32r	a4, 0xfffe3aa4
    51c4:	02ad      	mov.n	a10, a2
    51c6:	2e2482        	l32i	a8, a4, 184
    51c9:	0b0c      	movi.n	a11, 0
    51cb:	0008e0        	excw
    51ce:	2c2392        	l32i	a9, a3, 176
    51d1:	78a1a2        	movi	a10, 0x178
    51d4:	c1a2a0        	mul16u	a10, a2, a10
    51d7:	99aa      	add.n	a9, a9, a10
    51d9:	d998      	l32i.n	a9, a9, 52
    51db:	29cc      	bnez.n	a9, 0x51e1
    51dd:	020c      	movi.n	a2, 0
    51df:	f01d      	excw
    51e1:	352482        	l32i	a8, a4, 212
    51e4:	fea0b2        	movi	a11, 254
    51e7:	2c03a2        	l8ui	a10, a3, 44
    51ea:	ffa092        	movi	a9, 255
    51ed:	2e4392        	s8i	a9, a3, 46
    51f0:	10aab0        	and	a10, a10, a11
    51f3:	2c43a2        	s8i	a10, a3, 44
    51f6:	0b0c      	movi.n	a11, 0
    51f8:	02ad      	mov.n	a10, a2
    51fa:	0008e0        	excw
    51fd:	120c      	movi.n	a2, 1
    51ff:	f01d      	excw
    5201:	000000        	ill
    5204:	004136        	excw
    5207:	2b0c      	movi.n	a11, 2
    5209:	7a2d81        	l32r	a8, 0xfffe3ac0
    520c:	7a6e61        	l32r	a6, 0xfffe3bc4
    520f:	aa2882        	l32i	a8, a8, 0x2a8
    5212:	f406a2        	l8ui	a10, a6, 244
    5215:	0008e0        	excw
    5218:	7a5b51        	l32r	a5, 0xfffe3b84
    521b:	090c      	movi.n	a9, 0
    521d:	7a7641        	l32r	a4, 0xfffe3bf8
    5220:	0020c0        	memw
    5223:	896492        	s32i	a9, a4, 0x224
    5226:	6588      	l32i.n	a8, a5, 24
    5228:	03ad      	mov.n	a10, a3
    522a:	0008e0        	excw
    522d:	0020c0        	memw
    5230:	8c64a2        	s32i	a10, a4, 0x230
    5233:	7588      	l32i.n	a8, a5, 28
    5235:	03ad      	mov.n	a10, a3
    5237:	0008e0        	excw
    523a:	7a5771        	l32r	a7, 0xfffe3b98
    523d:	0020c0        	memw
    5240:	8367a2        	s32i	a10, a7, 0x20c
    5243:	8588      	l32i.n	a8, a5, 32
    5245:	03ad      	mov.n	a10, a3
    5247:	0008e0        	excw
    524a:	0a6d      	mov.n	a6, a10
    524c:	491c      	movi.n	a9, 20
    524e:	139397        	bne	a3, a9, 0x5265
    5251:	7a6ec1        	l32r	a12, 0xfffe3c0c
    5254:	010cc2        	l8ui	a12, a12, 1
    5257:	7ad2d1        	l32r	a13, 0xfffe3da0
    525a:	c0c2c0        	sub	a12, a2, a12
    525d:	ccda      	add.n	a12, a12, a13
    525f:	000cc2        	l8ui	a12, a12, 0
    5262:	000046        	j	0x5267
    5265:	0c0c      	movi.n	a12, 0
    5267:	7a5581        	l32r	a8, 0xfffe3bbc
    526a:	02ad      	mov.n	a10, a2
    526c:	3888      	l32i.n	a8, a8, 12
    526e:	03bd      	mov.n	a11, a3
    5270:	0008e0        	excw
    5273:	03bd      	mov.n	a11, a3
    5275:	7a5581        	l32r	a8, 0xfffe3bcc
    5278:	0a5d      	mov.n	a5, a10
    527a:	4888      	l32i.n	a8, a8, 16
    527c:	02ad      	mov.n	a10, a2
    527e:	0008e0        	excw
    5281:	7a56b1        	l32r	a11, 0xfffe3bdc
    5284:	0a3d      	mov.n	a3, a10
    5286:	200b92        	l8ui	a9, a11, 32
    5289:	7a59a1        	l32r	a10, 0xfffe3bf0
    528c:	29bc      	beqz.n	a9, 0x52c2
    528e:	142aa2        	l32i	a10, a10, 80
    5291:	2d6a67        	bbci	a10, 6, 0x52c2
    5294:	190c      	movi.n	a9, 1
    5296:	7a5581        	l32r	a8, 0xfffe3bec
    5299:	7ad7a1        	l32r	a10, 0xfffe3df8
    529c:	9c0c      	movi.n	a12, 9
    529e:	78a1d2        	movi	a13, 0x178
    52a1:	c1d2d0        	mul16u	a13, a2, a13
    52a4:	234bc2        	s8i	a12, a11, 35
    52a7:	aada      	add.n	a10, a10, a13
    52a9:	800aa2        	l8ui	a10, a10, 128
    52ac:	382882        	l32i	a8, a8, 224
    52af:	aa0b      	addi.n	a10, a10, -1
    52b1:	93a9a0        	movnez	a10, a9, a10
    52b4:	0008e0        	excw
    52b7:	7a5581        	l32r	a8, 0xfffe3c0c
    52ba:	3c2882        	l32i	a8, a8, 240
    52bd:	02ad      	mov.n	a10, a2
    52bf:	0008e0        	excw
    52c2:	0020c0        	memw
    52c5:	886762        	s32i	a6, a7, 0x220
    52c8:	20a530        	or	a10, a5, a3
    52cb:	0020c0        	memw
    52ce:	8a67a2        	s32i	a10, a7, 0x228
    52d1:	89a492        	movi	a9, 0x489
    52d4:	0020c0        	memw
    52d7:	886492        	s32i	a9, a4, 0x220
    52da:	f01d      	excw
    52dc:	006136        	excw
    52df:	7ad381        	l32r	a8, 0xfffe3e2c
    52e2:	03bd      	mov.n	a11, a3
    52e4:	5888      	l32i.n	a8, a8, 20
    52e6:	02ad      	mov.n	a10, a2
    52e8:	0008e0        	excw
    52eb:	1b0c      	movi.n	a11, 1
    52ed:	3c0c      	movi.n	a12, 3
    52ef:	0d0c      	movi.n	a13, 0
    52f1:	7a1581        	l32r	a8, 0xfffe3b48
    52f4:	7a6e51        	l32r	a5, 0xfffe3cac
    52f7:	78a142        	movi	a4, 0x178
    52fa:	c14240        	mul16u	a4, a2, a4
    52fd:	2c25a2        	l32i	a10, a5, 176
    5300:	622882        	l32i	a8, a8, 0x188
    5303:	aa4a      	add.n	a10, a10, a4
    5305:	1b2aa2        	l32i	a10, a10, 108
    5308:	0008e0        	excw
    530b:	130c      	movi.n	a3, 1
    530d:	0105b2        	l8ui	a11, a5, 1
    5310:	7ad261        	l32r	a6, 0xfffe3e58
    5313:	c0b2b0        	sub	a11, a2, a11
    5316:	bb6a      	add.n	a11, a11, a6
    5318:	000bc2        	l8ui	a12, a11, 0
    531b:	013ab6        	bltui	a10, 3, 0x5320
    531e:	030c      	movi.n	a3, 0
    5320:	5113c7        	beq	a3, a12, 0x5375
    5323:	7a5691        	l32r	a9, 0xfffe3c7c
    5326:	2009d2        	l8ui	a13, a9, 32
    5329:	2809e2        	l8ui	a14, a9, 40
    532c:	042d16        	beqz	a13, 0x5372
    532f:	fefc      	bnez.n	a14, 0x5372
    5331:	7ad7f1        	l32r	a15, 0xfffe3e90
    5334:	f4fa      	add.n	a15, a4, a15
    5336:	800ff2        	l8ui	a15, a15, 128
    5339:	7a5791        	l32r	a9, 0xfffe3c98
    533c:	371f66        	bnei	a15, 1, 0x5377
    533f:	0020c0        	memw
    5342:	c329c2        	l32i	a12, a9, 0x30c
    5345:	01c9      	s32i.n	a12, a1, 0
    5347:	074122        	s8i	a2, a1, 7
    534a:	084132        	s8i	a3, a1, 8
    534d:	7a5581        	l32r	a8, 0xfffe3ca4
    5350:	cb0c      	movi.n	a11, 12
    5352:	6a0c      	movi.n	a10, 6
    5354:	190c      	movi.n	a9, 1
    5356:	064192        	s8i	a9, a1, 6
    5359:	0541a2        	s8i	a10, a1, 5
    535c:	0441b2        	s8i	a11, a1, 4
    535f:	80a0a2        	movi	a10, 128
    5362:	202882        	l32i	a8, a8, 128
    5365:	01bd      	mov.n	a11, a1
    5367:	0008e0        	excw
    536a:	0105b2        	l8ui	a11, a5, 1
    536d:	c0b2b0        	sub	a11, a2, a11
    5370:	b6ba      	add.n	a11, a6, a11
    5372:	004b32        	s8i	a3, a11, 0
    5375:	f01d      	excw
    5377:	0020c0        	memw
    537a:	c429c2        	l32i	a12, a9, 0x310
    537d:	fff106        	j	0x5345
    5380:	004136        	excw
    5383:	7a7581        	l32r	a8, 0xfffe3d58
    5386:	740882        	l8ui	a8, a8, 116
    5389:	238800        	excw
    538c:	0718e6        	bgei	a8, 1, 0x5397
    538f:	7ad1a1        	l32r	a10, 0xfffe3ed4
    5392:	0b0c      	movi.n	a11, 0
    5394:	b4ce65        	excw
    5397:	ffa092        	movi	a9, 255
    539a:	079297        	bne	a2, a9, 0x53a5
    539d:	7ad1a1        	l32r	a10, 0xfffe3ee4
    53a0:	0b0c      	movi.n	a11, 0
    53a2:	b4cda5        	excw
    53a5:	7a7e31        	l32r	a3, 0xfffe3da0
    53a8:	78a142        	movi	a4, 0x178
    53ab:	c14240        	mul16u	a4, a2, a4
    53ae:	343a      	add.n	a3, a4, a3
    53b0:	7f03a2        	l8ui	a10, a3, 127
    53b3:	6acc      	bnez.n	a10, 0x53bd
    53b5:	7ad1a1        	l32r	a10, 0xfffe3efc
    53b8:	0b0c      	movi.n	a11, 0
    53ba:	b4cc25        	excw
    53bd:	8003a2        	l8ui	a10, a3, 128
    53c0:	164ab6        	bltui	a10, 4, 0x53da
    53c3:	084a66        	bnei	a10, 4, 0x53cf
    53c6:	7a6881        	l32r	a8, 0xfffe3d68
    53c9:	1a2882        	l32i	a8, a8, 104
    53cc:	0ab287        	bgeu	a2, a8, 0x53da
    53cf:	7ad1a1        	l32r	a10, 0xfffe3f14
    53d2:	0b0c      	movi.n	a11, 0
    53d4:	b4ca65        	excw
    53d7:	8003a2        	l8ui	a10, a3, 128
    53da:	7a6ed1        	l32r	a13, 0xfffe3d94
    53dd:	7a18b1        	l32r	a11, 0xfffe3c40
    53e0:	2c2dd2        	l32i	a13, a13, 176
    53e3:	a0bab0        	addx4	a11, a10, a11
    53e6:	1bb8      	l32i.n	a11, a11, 4
    53e8:	ad4a      	add.n	a10, a13, a4
    53ea:	5ac8      	l32i.n	a12, a10, 20
    53ec:	031a92        	l16ui	a9, a10, 6
    53ef:	c0bbc0        	sub	a11, a11, a12
    53f2:	f4b0b0        	extui	a11, a11, 0, 16
    53f5:	176917        	bbci	a9, 1, 0x5410
    53f8:	14e977        	bbsi	a9, 7, 0x5410
    53fb:	221ae2        	l16ui	a14, a10, 68
    53fe:	90eee0        	addx2	a14, a14, a14
    5401:	11eef0        	slli	a14, a14, 1
    5404:	082be7        	blt	a11, a14, 0x5410
    5407:	e93c      	movi.n	a9, 62
    5409:	120c      	movi.n	a2, 1
    540b:	b14a92        	s8i	a9, a10, 177
    540e:	f01d      	excw
    5410:	261af2        	l16ui	a15, a10, 76
    5413:	890c      	movi.n	a9, 8
    5415:	11ffc0        	slli	a15, a15, 4
    5418:	022bf7        	blt	a11, a15, 0x541e
    541b:	fffa86        	j	0x5409
    541e:	020c      	movi.n	a2, 0
    5420:	f01d      	excw
    5422:	360000        	excw
    5425:	310041        	l32r	a4, 0xfffd1828
    5428:	887a07        	bbci	a10, 16, 0x53b4
    542b:	02adf3        	excw
    542e:	0008e0        	excw
    5431:	5a2a      	add.n	a5, a10, a2
    5433:	0a0592        	l8ui	a9, a5, 10
    5436:	69cc      	bnez.n	a9, 0x5440
    5438:	7ad1a1        	l32r	a10, 0xfffe3f7c
    543b:	0b0c      	movi.n	a11, 0
    543d:	b4c3e5        	excw
    5440:	78a1c2        	movi	a12, 0x178
    5443:	7a6e41        	l32r	a4, 0xfffe3dfc
    5446:	0805a2        	l8ui	a10, a5, 8
    5449:	2c24b2        	l32i	a11, a4, 176
    544c:	c1cac0        	mul16u	a12, a10, a12
    544f:	bbca      	add.n	a11, a11, a12
    5451:	040b92        	l8ui	a9, a11, 4
    5454:	1d1c      	movi.n	a13, 17
    5456:	77e937        	bbsi	a9, 3, 0x54d1
    5459:	10d9d0        	and	a13, a9, a13
    545c:	71bd26        	beqi	a13, 16, 0x54d1
    545f:	021242        	l16ui	a4, a2, 4
    5462:	02ad      	mov.n	a10, a2
    5464:	9388      	l32i.n	a8, a3, 36
    5466:	4b0c      	movi.n	a11, 4
    5468:	0008e0        	excw
    546b:	0a0232        	l8ui	a3, a2, 10
    546e:	0805a2        	l8ui	a10, a5, 8
    5471:	332a      	add.n	a3, a3, a2
    5473:	33cb      	addi.n	a3, a3, 12
    5475:	ff7565        	excw
    5478:	0043a2        	s8i	a10, a3, 0
    547b:	41a8a0        	srli	a10, a10, 8
    547e:	0143a2        	s8i	a10, a3, 1
    5481:	0a0292        	l8ui	a9, a2, 10
    5484:	418840        	srli	a8, a4, 8
    5487:	992a      	add.n	a9, a9, a2
    5489:	0e4942        	s8i	a4, a9, 14
    548c:	0f4982        	s8i	a8, a9, 15
    548f:	0a0592        	l8ui	a9, a5, 10
    5492:	cfa0c2        	movi	a12, 207
    5495:	012926        	beqi	a9, 2, 0x549a
    5498:	e9cc      	bnez.n	a9, 0x54aa
    549a:	0a02d2        	l8ui	a13, a2, 10
    549d:	dd2a      	add.n	a13, a13, a2
    549f:	0d0de2        	l8ui	a14, a13, 13
    54a2:	0b2c      	movi.n	a11, 32
    54a4:	10cec0        	and	a12, a14, a12
    54a7:	000306        	j	0x54b7
    54aa:	0a02d2        	l8ui	a13, a2, 10
    54ad:	dd2a      	add.n	a13, a13, a2
    54af:	0d0de2        	l8ui	a14, a13, 13
    54b2:	0b1c      	movi.n	a11, 16
    54b4:	10cec0        	and	a12, a14, a12
    54b7:	20ecb0        	or	a14, a12, a11
    54ba:	0d4de2        	s8i	a14, a13, 13
    54bd:	0805a2        	l8ui	a10, a5, 8
    54c0:	ff70a5        	excw
    54c3:	7a3e81        	l32r	a8, 0xfffe3dbc
    54c6:	0abd      	mov.n	a11, a10
    54c8:	7888      	l32i.n	a8, a8, 28
    54ca:	02ad      	mov.n	a10, a2
    54cc:	0008e0        	excw
    54cf:	f01d      	excw
    54d1:	7a3881        	l32r	a8, 0xfffe3db4
    54d4:	d93c      	movi.n	a9, 61
    54d6:	b14b92        	s8i	a9, a11, 177
    54d9:	4a2882        	l32i	a8, a8, 0x128
    54dc:	0008e0        	excw
    54df:	8388      	l32i.n	a8, a3, 32
    54e1:	b80492        	l8ui	a9, a4, 184
    54e4:	7ad8a1        	l32r	a10, 0xfffe4044
    54e7:	991b      	addi.n	a9, a9, 1
    54e9:	384a92        	s8i	a9, a10, 56
    54ec:	02ad      	mov.n	a10, a2
    54ee:	0008e0        	excw
    54f1:	f01d      	excw
    54f3:	413600        	srli	a3, a0, 6
    54f6:	d38100        	excw
    54f9:	bd7a      	add.n	a11, a13, a7
    54fb:	02ad03        	excw
    54fe:	7a6e41        	l32r	a4, 0xfffe3eb8
    5501:	78a122        	movi	a2, 0x178
    5504:	c12a20        	mul16u	a2, a10, a2
    5507:	2c2432        	l32i	a3, a4, 176
    550a:	6888      	l32i.n	a8, a8, 24
    550c:	332a      	add.n	a3, a3, a2
    550e:	040332        	l8ui	a3, a3, 4
    5511:	0008e0        	excw
    5514:	12e327        	bbsi	a3, 2, 0x552a
    5517:	2c24a2        	l32i	a10, a4, 176
    551a:	aa2a      	add.n	a10, a10, a2
    551c:	040a92        	l8ui	a9, a10, 4
    551f:	8b0c      	movi.n	a11, 8
    5521:	056927        	bbci	a9, 2, 0x552a
    5524:	20b9b0        	or	a11, a9, a11
    5527:	044ab2        	s8i	a11, a10, 4
    552a:	f01d      	excw
    552c:	004136        	excw
    552f:	7ad381        	l32r	a8, 0xfffe407c
    5532:	03bd      	mov.n	a11, a3
    5534:	7888      	l32i.n	a8, a8, 28
    5536:	02ad      	mov.n	a10, a2
    5538:	0008e0        	excw
    553b:	78a192        	movi	a9, 0x178
    553e:	7a6eb1        	l32r	a11, 0xfffe3ef8
    5541:	c19290        	mul16u	a9, a2, a9
    5544:	2c2bb2        	l32i	a11, a11, 176
    5547:	7ad7c1        	l32r	a12, 0xfffe40a4
    554a:	bb9a      	add.n	a11, a11, a9
    554c:	040ba2        	l8ui	a10, a11, 4
    554f:	c9ca      	add.n	a12, a9, a12
    5551:	0d6a27        	bbci	a10, 2, 0x5562
    5554:	800cc2        	l8ui	a12, a12, 128
    5557:	071c66        	bnei	a12, 1, 0x5562
    555a:	8d0c      	movi.n	a13, 8
    555c:	20dad0        	or	a13, a10, a13
    555f:	044bd2        	s8i	a13, a11, 4
    5562:	f01d      	excw
    5564:	004136        	excw
    5567:	7a6e51        	l32r	a5, 0xfffe3f20
    556a:	78a142        	movi	a4, 0x178
    556d:	c14240        	mul16u	a4, a2, a4
    5570:	103366        	bnei	a3, 3, 0x5584
    5573:	2c2592        	l32i	a9, a5, 176
    5576:	994a      	add.n	a9, a9, a4
    5578:	040982        	l8ui	a8, a9, 4
    557b:	f7a0a2        	movi	a10, 247
    557e:	1088a0        	and	a8, a8, a10
    5581:	044982        	s8i	a8, a9, 4
    5584:	2c25a2        	l32i	a10, a5, 176
    5587:	aa4a      	add.n	a10, a10, a4
    5589:	ef0ab2        	l8ui	a11, a10, 239
    558c:	3093b7        	bne	a3, a11, 0x55c0
    558f:	3c2ab2        	l32i	a11, a10, 240
    5592:	34c0b0        	extui	a12, a11, 0, 4
    5595:	0f13c7        	beq	a3, a12, 0x55a8
    5598:	7ad1a1        	l32r	a10, 0xfffe40dc
    559b:	0b0c      	movi.n	a11, 0
    559d:	b4ade5        	excw
    55a0:	2c25a2        	l32i	a10, a5, 176
    55a3:	aa4a      	add.n	a10, a10, a4
    55a5:	3c2ab2        	l32i	a11, a10, 240
    55a8:	2c25c2        	l32i	a12, a5, 176
    55ab:	41d4b0        	srli	a13, a11, 4
    55ae:	3c6ad2        	s32i	a13, a10, 240
    55b1:	cc4a      	add.n	a12, a12, a4
    55b3:	0b0c      	movi.n	a11, 0
    55b5:	ef4cb2        	s8i	a11, a12, 239
    55b8:	2c25a2        	l32i	a10, a5, 176
    55bb:	aa4a      	add.n	a10, a10, a4
    55bd:	ef0ab2        	l8ui	a11, a10, 239
    55c0:	7a3831        	l32r	a3, 0xfffe3ea0
    55c3:	cbcc      	bnez.n	a11, 0x55d3
    55c5:	031ae2        	l16ui	a14, a10, 6
    55c8:	07ee87        	bbsi	a14, 8, 0x55d3
    55cb:	512382        	l32i	a8, a3, 0x144
    55ce:	02ad      	mov.n	a10, a2
    55d0:	0008e0        	excw
    55d3:	8d2382        	l32i	a8, a3, 0x234
    55d6:	02ad      	mov.n	a10, a2
    55d8:	0008e0        	excw
    55db:	f01d      	excw
    55dd:	000000        	ill
    55e0:	01c136        	excw
    55e3:	1b6142        	s32i	a4, a1, 108
    55e6:	1e6152        	s32i	a5, a1, 120
    55e9:	f169      	s32i.n	a6, a1, 60
    55eb:	166132        	s32i	a3, a1, 88
    55ee:	196122        	s32i	a2, a1, 100
    55f1:	192192        	l32i	a9, a1, 100
    55f4:	162182        	l32i	a8, a1, 88
    55f7:	e179      	s32i.n	a7, a1, 56
    55f9:	02b897        	bgeu	a8, a9, 0x55ff
    55fc:	00ee06        	j	0x59b8
    55ff:	060c      	movi.n	a6, 0
    5601:	140c      	movi.n	a4, 1
    5603:	f77c      	movi.n	a7, -1
    5605:	1e21d2        	l32i	a13, a1, 120
    5608:	180c      	movi.n	a8, 1
    560a:	090c      	movi.n	a9, 0
    560c:	0a0c      	movi.n	a10, 0
    560e:	0b0c      	movi.n	a11, 0
    5610:	1c0c      	movi.n	a12, 1
    5612:	0e0c      	movi.n	a14, 0
    5614:	1a61e2        	s32i	a14, a1, 104
    5617:	1261c2        	s32i	a12, a1, 72
    561a:	1761b2        	s32i	a11, a1, 92
    561d:	1161a2        	s32i	a10, a1, 68
    5620:	186192        	s32i	a9, a1, 96
    5623:	136182        	s32i	a8, a1, 76
    5626:	000dd2        	l8ui	a13, a13, 0
    5629:	1561d2        	s32i	a13, a1, 84
    562c:	1521f2        	l32i	a15, a1, 84
    562f:	030c      	movi.n	a3, 0
    5631:	05df16        	beqz	a15, 0x5692
    5634:	1e2122        	l32i	a2, a1, 120
    5637:	015d      	mov.n	a5, a1
    5639:	192192        	l32i	a9, a1, 100
    563c:	1a2182        	l32i	a8, a1, 104
    563f:	0a0c      	movi.n	a10, 0
    5641:	0b0c      	movi.n	a11, 0
    5643:	2461b2        	s32i	a11, a1, 144
    5646:	1f61a2        	s32i	a10, a1, 124
    5649:	889a      	add.n	a8, a8, a9
    564b:	f48080        	extui	a8, a8, 0, 16
    564e:	236182        	s32i	a8, a1, 140
    5651:	7a3a81        	l32r	a8, 0xfffe3f3c
    5654:	0412a2        	l16ui	a10, a2, 8
    5657:	7888      	l32i.n	a8, a8, 28
    5659:	2321b2        	l32i	a11, a1, 140
    565c:	0008e0        	excw
    565f:	0055a2        	s16i	a10, a5, 0
    5662:	162ab6        	bltui	a10, 2, 0x567c
    5665:	1f21c2        	l32i	a12, a1, 124
    5668:	242192        	l32i	a9, a1, 144
    566b:	dc1b      	addi.n	a13, a12, 1
    566d:	73ba90        	excw
    5670:	f490b0        	extui	a9, a11, 0, 16
    5673:	f4c0d0        	extui	a12, a13, 0, 16
    5676:	1f61c2        	s32i	a12, a1, 124
    5679:	246192        	s32i	a9, a1, 144
    567c:	552b      	addi.n	a5, a5, 2
    567e:	1e21c2        	l32i	a12, a1, 120
    5681:	14c222        	addi	a2, a2, 20
    5684:	000cc2        	l8ui	a12, a12, 0
    5687:	331b      	addi.n	a3, a3, 1
    5689:	c433c7        	bltu	a3, a12, 0x5651
    568c:	1561c2        	s32i	a12, a1, 84
    568f:	000246        	j	0x569c
    5692:	0d0c      	movi.n	a13, 0
    5694:	0e0c      	movi.n	a14, 0
    5696:	2461e2        	s32i	a14, a1, 144
    5699:	1f61d2        	s32i	a13, a1, 124
    569c:	182182        	l32i	a8, a1, 96
    569f:	1f21f2        	l32i	a15, a1, 124
    56a2:	02bf87        	bgeu	a15, a8, 0x56a8
    56a5:	0048c6        	j	0x57cc
    56a8:	172192        	l32i	a9, a1, 92
    56ab:	1861f2        	s32i	a15, a1, 96
    56ae:	b9ec      	bnez.n	a9, 0x56dd
    56b0:	1121b2        	l32i	a11, a1, 68
    56b3:	6bec      	bnez.n	a11, 0x56dd
    56b5:	1921c2        	l32i	a12, a1, 100
    56b8:	1a21a2        	l32i	a10, a1, 104
    56bb:	3b0c      	movi.n	a11, 3
    56bd:	aaca      	add.n	a10, a10, a12
    56bf:	1461a2        	s32i	a10, a1, 80
    56c2:	f4a0a0        	extui	a10, a10, 0, 16
    56c5:	036a65        	excw
    56c8:	8a8c      	beqz.n	a10, 0x56d4
    56ca:	1321a2        	l32i	a10, a1, 76
    56cd:	3b0c      	movi.n	a11, 3
    56cf:	0369e5        	excw
    56d2:	7a8c      	beqz.n	a10, 0x56dd
    56d4:	1421d2        	l32i	a13, a1, 80
    56d7:	f4d0d0        	extui	a13, a13, 0, 16
    56da:	1361d2        	s32i	a13, a1, 76
    56dd:	1f21e2        	l32i	a14, a1, 124
    56e0:	1521f2        	l32i	a15, a1, 84
    56e3:	2061f2        	s32i	a15, a1, 128
    56e6:	f4f0f0        	extui	a15, a15, 0, 16
    56e9:	02bef7        	bgeu	a14, a15, 0x56ef
    56ec:	003706        	j	0x57cc
    56ef:	1921a2        	l32i	a10, a1, 100
    56f2:	1a2192        	l32i	a9, a1, 104
    56f5:	242122        	l32i	a2, a1, 144
    56f8:	2c6122        	s32i	a2, a1, 176
    56fb:	f42020        	extui	a2, a2, 0, 16
    56fe:	99aa      	add.n	a9, a9, a10
    5700:	146192        	s32i	a9, a1, 80
    5703:	f49090        	extui	a9, a9, 0, 16
    5706:	236192        	s32i	a9, a1, 140
    5709:	02b927        	bgeu	a9, a2, 0x570f
    570c:	003606        	j	0x57e8
    570f:	018d      	mov.n	a8, a1
    5711:	242192        	l32i	a9, a1, 144
    5714:	202132        	l32i	a3, a1, 128
    5717:	256192        	s32i	a9, a1, 148
    571a:	903380        	addx2	a3, a3, a8
    571d:	2021a2        	l32i	a10, a1, 128
    5720:	4a9c      	beqz.n	a10, 0x5738
    5722:	015d      	mov.n	a5, a1
    5724:	02ad      	mov.n	a10, a2
    5726:	0015b2        	l16ui	a11, a5, 0
    5729:	036425        	excw
    572c:	3a8c      	beqz.n	a10, 0x5733
    572e:	090c      	movi.n	a9, 0
    5730:	000186        	j	0x573a
    5733:	552b      	addi.n	a5, a5, 2
    5735:	eb9537        	bne	a5, a3, 0x5724
    5738:	190c      	movi.n	a9, 1
    573a:	0b9956        	bnez	a9, 0x57f7
    573d:	2321b2        	l32i	a11, a1, 140
    5740:	2421d2        	l32i	a13, a1, 144
    5743:	2521c2        	l32i	a12, a1, 148
    5746:	22da      	add.n	a2, a2, a13
    5748:	ccda      	add.n	a12, a12, a13
    574a:	f42020        	extui	a2, a2, 0, 16
    574d:	2561c2        	s32i	a12, a1, 148
    5750:	f4c0c0        	extui	a12, a12, 0, 16
    5753:	2c61c2        	s32i	a12, a1, 176
    5756:	c3bb27        	bgeu	a11, a2, 0x571d
    5759:	002446        	j	0x57ee
    575c:	2321a2        	l32i	a10, a1, 140
    575f:	3b0c      	movi.n	a11, 3
    5761:	0360a5        	excw
    5764:	0a5d      	mov.n	a5, a10
    5766:	858c      	beqz.n	a5, 0x5772
    5768:	1321a2        	l32i	a10, a1, 76
    576b:	3b0c      	movi.n	a11, 3
    576d:	035fe5        	excw
    5770:	9a9c      	beqz.n	a10, 0x578d
    5772:	142182        	l32i	a8, a1, 80
    5775:	1d2192        	l32i	a9, a1, 116
    5778:	2621a2        	l32i	a10, a1, 152
    577b:	2221b2        	l32i	a11, a1, 136
    577e:	1761b2        	s32i	a11, a1, 92
    5781:	1261a2        	s32i	a10, a1, 72
    5784:	106192        	s32i	a9, a1, 64
    5787:	f48080        	extui	a8, a8, 0, 16
    578a:	136182        	s32i	a8, a1, 76
    578d:	1721c2        	l32i	a12, a1, 92
    5790:	8cfc      	bnez.n	a12, 0x57cc
    5792:	2321a2        	l32i	a10, a1, 140
    5795:	3b0c      	movi.n	a11, 3
    5797:	035d65        	excw
    579a:	1121e2        	l32i	a14, a1, 68
    579d:	2c21d2        	l32i	a13, a1, 176
    57a0:	0a5d      	mov.n	a5, a10
    57a2:	0bbde7        	bgeu	a13, a14, 0x57b1
    57a5:	3aec      	bnez.n	a10, 0x57cc
    57a7:	1321a2        	l32i	a10, a1, 76
    57aa:	3b0c      	movi.n	a11, 3
    57ac:	035be5        	excw
    57af:	9a9c      	beqz.n	a10, 0x57cc
    57b1:	858c      	beqz.n	a5, 0x57bd
    57b3:	1321a2        	l32i	a10, a1, 76
    57b6:	3b0c      	movi.n	a11, 3
    57b8:	035b25        	excw
    57bb:	da8c      	beqz.n	a10, 0x57cc
    57bd:	2c21f2        	l32i	a15, a1, 176
    57c0:	142182        	l32i	a8, a1, 80
    57c3:	1161f2        	s32i	a15, a1, 68
    57c6:	f48080        	extui	a8, a8, 0, 16
    57c9:	136182        	s32i	a8, a1, 76
    57cc:	162192        	l32i	a9, a1, 88
    57cf:	1a21a2        	l32i	a10, a1, 104
    57d2:	1921b2        	l32i	a11, a1, 100
    57d5:	aa1b      	addi.n	a10, a10, 1
    57d7:	1a61a2        	s32i	a10, a1, 104
    57da:	aaba      	add.n	a10, a10, a11
    57dc:	f4a0a0        	extui	a10, a10, 0, 16
    57df:	0239a7        	bltu	a9, a10, 0x57e5
    57e2:	ff9186        	j	0x562c
    57e5:	007646        	j	0x59c2
    57e8:	2421c2        	l32i	a12, a1, 144
    57eb:	2561c2        	s32i	a12, a1, 148
    57ee:	2521d2        	l32i	a13, a1, 148
    57f1:	f4d0d0        	extui	a13, a13, 0, 16
    57f4:	2c61d2        	s32i	a13, a1, 176
    57f7:	fd7c      	movi.n	a13, -1
    57f9:	30c1c2        	addi	a12, a1, 48
    57fc:	090c      	movi.n	a9, 0
    57fe:	2e0c      	movi.n	a14, 2
    5800:	2c21f2        	l32i	a15, a1, 176
    5803:	084c      	movi.n	a8, 64
    5805:	438f80        	excw
    5808:	f4f080        	extui	a15, a8, 0, 16
    580b:	2c61f2        	s32i	a15, a1, 176
    580e:	05ae76        	excw
    5811:	a9ca      	add.n	a10, a9, a12
    5813:	0ad9      	s32i.n	a13, a10, 0
    5815:	994b      	addi.n	a9, a9, 4
    5817:	2021b2        	l32i	a11, a1, 128
    581a:	0e9b16        	beqz	a11, 0x5907
    581d:	d138      	l32i.n	a3, a1, 52
    581f:	c128      	l32i.n	a2, a1, 48
    5821:	2021c2        	l32i	a12, a1, 128
    5824:	01ed      	mov.n	a14, a1
    5826:	0f0c      	movi.n	a15, 0
    5828:	1e21d2        	l32i	a13, a1, 120
    582b:	2b61d2        	s32i	a13, a1, 172
    582e:	2961f2        	s32i	a15, a1, 164
    5831:	2161e2        	s32i	a14, a1, 132
    5834:	a0ccc0        	addx4	a12, a12, a12
    5837:	a0ccd0        	addx4	a12, a12, a13
    583a:	1c61c2        	s32i	a12, a1, 112
    583d:	2b21a2        	l32i	a10, a1, 172
    5840:	2121b2        	l32i	a11, a1, 132
    5843:	031aa2        	l16ui	a10, a10, 6
    5846:	001bb2        	l16ui	a11, a11, 0
    5849:	2761b2        	s32i	a11, a1, 156
    584c:	0351e5        	excw
    584f:	2c21d2        	l32i	a13, a1, 176
    5852:	1b21e2        	l32i	a14, a1, 108
    5855:	2b21f2        	l32i	a15, a1, 172
    5858:	f4c0a0        	extui	a12, a10, 0, 16
    585b:	051ff2        	l16ui	a15, a15, 10
    585e:	2d61c2        	s32i	a12, a1, 180
    5861:	63eef0        	excw
    5864:	2861e2        	s32i	a14, a1, 160
    5867:	76bcd7        	bgeu	a12, a13, 0x58e1
    586a:	2d2192        	l32i	a9, a1, 180
    586d:	8e9a      	add.n	a8, a14, a9
    586f:	2f6182        	s32i	a8, a1, 188
    5872:	2821a2        	l32i	a10, a1, 160
    5875:	2b21b2        	l32i	a11, a1, 172
    5878:	042a16        	beqz	a10, 0x58be
    587b:	2d2152        	l32i	a5, a1, 180
    587e:	041bb2        	l16ui	a11, a11, 8
    5881:	2e61b2        	s32i	a11, a1, 184
    5884:	06bd      	mov.n	a11, a6
    5886:	04ad      	mov.n	a10, a4
    5888:	05cd      	mov.n	a12, a5
    588a:	035225        	excw
    588d:	30ca70        	xor	a12, a10, a7
    5890:	30db70        	xor	a13, a11, a7
    5893:	1033d0        	and	a3, a3, a13
    5896:	1022c0        	and	a2, a2, a12
    5899:	05ad      	mov.n	a10, a5
    589b:	2e21b2        	l32i	a11, a1, 184
    589e:	034ce5        	excw
    58a1:	0acd      	mov.n	a12, a10
    58a3:	06bd      	mov.n	a11, a6
    58a5:	04ad      	mov.n	a10, a4
    58a7:	035065        	excw
    58aa:	2f21e2        	l32i	a14, a1, 188
    58ad:	551b      	addi.n	a5, a5, 1
    58af:	30fb70        	xor	a15, a11, a7
    58b2:	308a70        	xor	a8, a10, a7
    58b5:	102280        	and	a2, a2, a8
    58b8:	1033f0        	and	a3, a3, a15
    58bb:	c595e7        	bne	a5, a14, 0x5884
    58be:	2c21a2        	l32i	a10, a1, 176
    58c1:	2721d2        	l32i	a13, a1, 156
    58c4:	2d2192        	l32i	a9, a1, 180
    58c7:	2921b2        	l32i	a11, a1, 164
    58ca:	01cd      	mov.n	a12, a1
    58cc:	bbca      	add.n	a11, a11, a12
    58ce:	001bb2        	l16ui	a11, a11, 0
    58d1:	2f21c2        	l32i	a12, a1, 188
    58d4:	9b9a      	add.n	a9, a11, a9
    58d6:	ccda      	add.n	a12, a12, a13
    58d8:	2f61c2        	s32i	a12, a1, 188
    58db:	2d6192        	s32i	a9, a1, 180
    58de:	9039a7        	bltu	a9, a10, 0x5872
    58e1:	1c21e2        	l32i	a14, a1, 112
    58e4:	292182        	l32i	a8, a1, 164
    58e7:	2b21d2        	l32i	a13, a1, 172
    58ea:	2121f2        	l32i	a15, a1, 132
    58ed:	14cdd2        	addi	a13, a13, 20
    58f0:	ff2b      	addi.n	a15, a15, 2
    58f2:	882b      	addi.n	a8, a8, 2
    58f4:	296182        	s32i	a8, a1, 164
    58f7:	2161f2        	s32i	a15, a1, 132
    58fa:	2b61d2        	s32i	a13, a1, 172
    58fd:	021de7        	beq	a13, a14, 0x5903
    5900:	ffce46        	j	0x583d
    5903:	d139      	s32i.n	a3, a1, 52
    5905:	c129      	s32i.n	a2, a1, 48
    5907:	2c2192        	l32i	a9, a1, 176
    590a:	05a916        	beqz	a9, 0x5968
    590d:	050c      	movi.n	a5, 0
    590f:	d138      	l32i.n	a3, a1, 52
    5911:	c128      	l32i.n	a2, a1, 48
    5913:	0a0c      	movi.n	a10, 0
    5915:	0b0c      	movi.n	a11, 0
    5917:	0c0c      	movi.n	a12, 0
    5919:	2661c2        	s32i	a12, a1, 152
    591c:	2a61b2        	s32i	a11, a1, 168
    591f:	2261a2        	s32i	a10, a1, 136
    5922:	03bd      	mov.n	a11, a3
    5924:	02ad      	mov.n	a10, a2
    5926:	05cd      	mov.n	a12, a5
    5928:	0349a5        	excw
    592b:	290a47        	bnone	a10, a4, 0x5958
    592e:	2221d2        	l32i	a13, a1, 136
    5931:	262182        	l32i	a8, a1, 152
    5934:	2a21e2        	l32i	a14, a1, 168
    5937:	981b      	addi.n	a9, a8, 1
    5939:	fe1b      	addi.n	a15, a14, 1
    593b:	f4e0f0        	extui	a14, a15, 0, 16
    593e:	f48090        	extui	a8, a9, 0, 16
    5941:	266182        	s32i	a8, a1, 152
    5944:	2a61e2        	s32i	a14, a1, 168
    5947:	12bde7        	bgeu	a13, a14, 0x595d
    594a:	2261e2        	s32i	a14, a1, 136
    594d:	c0b5e0        	sub	a11, a5, a14
    5950:	bb1b      	addi.n	a11, a11, 1
    5952:	1d61b2        	s32i	a11, a1, 116
    5955:	000106        	j	0x595d
    5958:	0c0c      	movi.n	a12, 0
    595a:	2a61c2        	s32i	a12, a1, 168
    595d:	2c21d2        	l32i	a13, a1, 176
    5960:	551b      	addi.n	a5, a5, 1
    5962:	bc95d7        	bne	a5, a13, 0x5922
    5965:	000246        	j	0x5972
    5968:	0e0c      	movi.n	a14, 0
    596a:	0f0c      	movi.n	a15, 0
    596c:	2661f2        	s32i	a15, a1, 152
    596f:	2261e2        	s32i	a14, a1, 136
    5972:	222192        	l32i	a9, a1, 136
    5975:	172182        	l32i	a8, a1, 92
    5978:	2f3897        	bltu	a8, a9, 0x59ab
    597b:	0b9987        	bne	a9, a8, 0x598a
    597e:	1221d2        	l32i	a13, a1, 72
    5981:	2621c2        	l32i	a12, a1, 152
    5984:	023cd7        	bltu	a12, a13, 0x598a
    5987:	ff7446        	j	0x575c
    598a:	2221e2        	l32i	a14, a1, 136
    598d:	dfce16        	beqz	a14, 0x578d
    5990:	2321a2        	l32i	a10, a1, 140
    5993:	3b0c      	movi.n	a11, 3
    5995:	033d65        	excw
    5998:	0a5d      	mov.n	a5, a10
    599a:	defa56        	bnez	a10, 0x578d
    599d:	1321a2        	l32i	a10, a1, 76
    59a0:	3b0c      	movi.n	a11, 3
    59a2:	033ca5        	excw
    59a5:	dbda56        	bnez	a10, 0x5766
    59a8:	ff7846        	j	0x578d
    59ab:	2321a2        	l32i	a10, a1, 140
    59ae:	3b0c      	movi.n	a11, 3
    59b0:	033ba5        	excw
    59b3:	0a5d      	mov.n	a5, a10
    59b5:	ff6b46        	j	0x5766
    59b8:	1f0c      	movi.n	a15, 1
    59ba:	080c      	movi.n	a8, 0
    59bc:	176182        	s32i	a8, a1, 92
    59bf:	1361f2        	s32i	a15, a1, 76
    59c2:	f1b8      	l32i.n	a11, a1, 60
    59c4:	1321a2        	l32i	a10, a1, 76
    59c7:	005ba2        	s16i	a10, a11, 0
    59ca:	1721a2        	l32i	a10, a1, 92
    59cd:	382192        	l32i	a9, a1, 224
    59d0:	0a9c      	beqz.n	a10, 0x59e4
    59d2:	120c      	movi.n	a2, 1
    59d4:	1721e2        	l32i	a14, a1, 92
    59d7:	e188      	l32i.n	a8, a1, 56
    59d9:	1021f2        	l32i	a15, a1, 64
    59dc:	0058f2        	s16i	a15, a8, 0
    59df:	0059e2        	s16i	a14, a9, 0
    59e2:	f01d      	excw
    59e4:	020c      	movi.n	a2, 0
    59e6:	e1d8      	l32i.n	a13, a1, 56
    59e8:	2c21c2        	l32i	a12, a1, 176
    59eb:	005dc2        	s16i	a12, a13, 0
    59ee:	005922        	s16i	a2, a9, 0
    59f1:	f01d      	excw
    59f3:	613600        	excw
    59f6:	6e9100        	excw
    59f9:	0c7a      	add.n	a0, a12, a7
    59fb:	821c      	movi.n	a2, 24
    59fd:	2c09      	s32i.n	a0, a12, 8
    59ff:	4309a2        	l8ui	a10, a9, 67
    5a02:	026807        	bbci	a8, 0, 0x5a08
    5a05:	11ea56        	bnez	a10, 0x5b27
    5a08:	4c09a2        	l8ui	a10, a9, 76
    5a0b:	5e09b2        	l8ui	a11, a9, 94
    5a0e:	046a07        	bbci	a10, 0, 0x5a16
    5a11:	bb0b      	addi.n	a11, a11, -1
    5a13:	110b16        	beqz	a11, 0x5b27
    5a16:	076a47        	bbci	a10, 4, 0x5a21
    5a19:	6e09d2        	l8ui	a13, a9, 110
    5a1c:	dd0b      	addi.n	a13, a13, -1
    5a1e:	105d16        	beqz	a13, 0x5b27
    5a21:	e67c      	movi.n	a6, -2
    5a23:	7ad551        	l32r	a5, 0xfffe4578
    5a26:	7a32d1        	l32r	a13, 0xfffe42f0
    5a29:	070c      	movi.n	a7, 0
    5a2b:	7ad9e1        	l32r	a14, 0xfffe4590
    5a2e:	07bd      	mov.n	a11, a7
    5a30:	4692e7        	bne	a2, a14, 0x5a7a
    5a33:	072d      	mov.n	a2, a7
    5a35:	05ad      	mov.n	a10, a5
    5a37:	80a0f2        	movi	a15, 128
    5a3a:	33af76        	excw
    5a3d:	0020c0        	memw
    5a40:	0f0c      	movi.n	a15, 0
    5a42:	a72ae2        	l32i	a14, a10, 0x29c
    5a45:	01e9      	s32i.n	a14, a1, 0
    5a47:	11f9      	s32i.n	a15, a1, 4
    5a49:	0020c0        	memw
    5a4c:	080c      	movi.n	a8, 0
    5a4e:	1c0c      	movi.n	a12, 1
    5a50:	090c      	movi.n	a9, 0
    5a52:	a82af2        	l32i	a15, a10, 0x2a0
    5a55:	01e9      	s32i.n	a14, a1, 0
    5a57:	11f9      	s32i.n	a15, a1, 4
    5a59:	10eeb0        	and	a14, a14, a11
    5a5c:	10ffd0        	and	a15, a15, a13
    5a5f:	839cf0        	moveqz	a9, a12, a15
    5a62:	838ce0        	moveqz	a8, a12, a14
    5a65:	040897        	bnone	a8, a9, 0x5a6d
    5a68:	190c      	movi.n	a9, 1
    5a6a:	000146        	j	0x5a73
    5a6d:	aa8b      	addi.n	a10, a10, 8
    5a6f:	221b      	addi.n	a2, a2, 1
    5a71:	090c      	movi.n	a9, 0
    5a73:	0b4956        	bnez	a9, 0x5b2b
    5a76:	720c      	movi.n	a2, 7
    5a78:	f01d      	excw
    5a7a:	7ada81        	l32r	a8, 0xfffe45e4
    5a7d:	7aa3f1        	l32r	a15, 0xfffe450c
    5a80:	021287        	beq	a2, a8, 0x5a86
    5a83:	001fc6        	j	0x5b06
    5a86:	01ad      	mov.n	a10, a1
    5a88:	8c0c      	movi.n	a12, 8
    5a8a:	020c      	movi.n	a2, 0
    5a8c:	02bd      	mov.n	a11, a2
    5a8e:	034f65        	excw
    5a91:	04bd      	mov.n	a11, a4
    5a93:	01ad      	mov.n	a10, a1
    5a95:	6c0c      	movi.n	a12, 6
    5a97:	033ce5        	excw
    5a9a:	7ad5b1        	l32r	a11, 0xfffe45f0
    5a9d:	1f0c      	movi.n	a15, 1
    5a9f:	404e10        	ssai	30
    5aa2:	1188      	l32i.n	a8, a1, 4
    5aa4:	0198      	l32i.n	a9, a1, 0
    5aa6:	043030        	extui	a3, a3, 0, 1
    5aa9:	1133f0        	slli	a3, a3, 1
    5aac:	11a9e0        	slli	a10, a9, 2
    5aaf:	20a3a0        	or	a10, a3, a10
    5ab2:	818890        	src	a8, a8, a9
    5ab5:	313f30        	srai	a3, a3, 31
    5ab8:	202a20        	or	a2, a10, a2
    5abb:	0129      	s32i.n	a2, a1, 0
    5abd:	0a0c      	movi.n	a10, 0
    5abf:	203380        	or	a3, a3, a8
    5ac2:	7a3281        	l32r	a8, 0xfffe438c
    5ac5:	80a092        	movi	a9, 128
    5ac8:	203380        	or	a3, a3, a8
    5acb:	1139      	s32i.n	a3, a1, 4
    5acd:	32a976        	excw
    5ad0:	0020c0        	memw
    5ad3:	a72bc2        	l32i	a12, a11, 0x29c
    5ad6:	0020c0        	memw
    5ad9:	0e0c      	movi.n	a14, 0
    5adb:	180c      	movi.n	a8, 1
    5add:	040c      	movi.n	a4, 0
    5adf:	a82bd2        	l32i	a13, a11, 0x2a0
    5ae2:	109c60        	and	a9, a12, a6
    5ae5:	c09920        	sub	a9, a9, a2
    5ae8:	c0dd30        	sub	a13, a13, a3
    5aeb:	8348d0        	moveqz	a4, a8, a13
    5aee:	83e890        	moveqz	a14, a8, a9
    5af1:	040e47        	bnone	a14, a4, 0x5af9
    5af4:	190c      	movi.n	a9, 1
    5af6:	002586        	j	0x5b90
    5af9:	020cf7        	bnone	a12, a15, 0x5aff
    5afc:	002386        	j	0x5b8e
    5aff:	bb8b      	addi.n	a11, a11, 8
    5b01:	aa1b      	addi.n	a10, a10, 1
    5b03:	0021c6        	j	0x5b8e
    5b06:	1992f7        	bne	a2, a15, 0x5b23
    5b09:	059d      	mov.n	a9, a5
    5b0b:	00a182        	movi	a8, 0x100
    5b0e:	07a876        	excw
    5b11:	0020c0        	memw
    5b14:	a76972        	s32i	a7, a9, 0x29c
    5b17:	994b      	addi.n	a9, a9, 4
    5b19:	0020c0        	memw
    5b1c:	a765c2        	s32i	a12, a5, 0x29c
    5b1f:	020c      	movi.n	a2, 0
    5b21:	f01d      	excw
    5b23:	072d      	mov.n	a2, a7
    5b25:	f01d      	excw
    5b27:	c20c      	movi.n	a2, 12
    5b29:	f01d      	excw
    5b2b:	01ad      	mov.n	a10, a1
    5b2d:	0b0c      	movi.n	a11, 0
    5b2f:	8c0c      	movi.n	a12, 8
    5b31:	034525        	excw
    5b34:	04bd      	mov.n	a11, a4
    5b36:	01ad      	mov.n	a10, a1
    5b38:	6c0c      	movi.n	a12, 6
    5b3a:	0332a5        	excw
    5b3d:	404e10        	ssai	30
    5b40:	11a8      	l32i.n	a10, a1, 4
    5b42:	01c8      	l32i.n	a12, a1, 0
    5b44:	049030        	extui	a9, a3, 0, 1
    5b47:	1199f0        	slli	a9, a9, 1
    5b4a:	11bce0        	slli	a11, a12, 2
    5b4d:	20b9b0        	or	a11, a9, a11
    5b50:	81aac0        	src	a10, a10, a12
    5b53:	319f90        	srai	a9, a9, 31
    5b56:	1c0c      	movi.n	a12, 1
    5b58:	2099a0        	or	a9, a9, a10
    5b5b:	20bbc0        	or	a11, a11, a12
    5b5e:	7a32a1        	l32r	a10, 0xfffe4428
    5b61:	01b9      	s32i.n	a11, a1, 0
    5b63:	2099a0        	or	a9, a9, a10
    5b66:	1199      	s32i.n	a9, a1, 4
    5b68:	b0a250        	addx8	a10, a2, a5
    5b6b:	0020c0        	memw
    5b6e:	a76ab2        	s32i	a11, a10, 0x29c
    5b71:	0020c0        	memw
    5b74:	a86a92        	s32i	a9, a10, 0x2a0
    5b77:	fa4216        	beqz	a2, 0x5b1f
    5b7a:	0020c0        	memw
    5b7d:	a52ab2        	l32i	a11, a10, 0x294
    5b80:	10bb60        	and	a11, a11, a6
    5b83:	0020c0        	memw
    5b86:	a56ab2        	s32i	a11, a10, 0x294
    5b89:	ffe486        	j	0x5b1f
    5b8c:	0c0000        	excw
    5b8f:	cc09      	s32i.n	a0, a12, 48
    5b91:	1c29      	s32i.n	a2, a12, 4
    5b93:	f01d22        	l16ui	a2, a13, 0x1e0
    5b96:	1c0cf7        	bnone	a12, a15, 0x5bb6
    5b99:	b09a50        	addx8	a9, a10, a5
    5b9c:	0020c0        	memw
    5b9f:	a76972        	s32i	a7, a9, 0x29c
    5ba2:	0020c0        	memw
    5ba5:	a86972        	s32i	a7, a9, 0x2a0
    5ba8:	051a56        	bnez	a10, 0x5bfd
    5bab:	0020c0        	memw
    5bae:	1c0c      	movi.n	a12, 1
    5bb0:	a765c2        	s32i	a12, a5, 0x29c
    5bb3:	ffda06        	j	0x5b1f
    5bb6:	02eab6        	bltui	a10, 128, 0x5bbc
    5bb9:	ffd886        	j	0x5b1f
    5bbc:	b09a50        	addx8	a9, a10, a5
    5bbf:	80a0d2        	movi	a13, 128
    5bc2:	c0dda0        	sub	a13, a13, a10
    5bc5:	319d76        	excw
    5bc8:	0020c0        	memw
    5bcb:	a92982        	l32i	a8, a9, 0x2a4
    5bce:	0020c0        	memw
    5bd1:	a76982        	s32i	a8, a9, 0x29c
    5bd4:	0020c0        	memw
    5bd7:	aa29f2        	l32i	a15, a9, 0x2a8
    5bda:	0020c0        	memw
    5bdd:	a869f2        	s32i	a15, a9, 0x2a0
    5be0:	0020c0        	memw
    5be3:	a729e2        	l32i	a14, a9, 0x29c
    5be6:	0e6e07        	bbci	a14, 0, 0x5bf8
    5be9:	0020c0        	memw
    5bec:	a96972        	s32i	a7, a9, 0x2a4
    5bef:	0020c0        	memw
    5bf2:	aa6972        	s32i	a7, a9, 0x2a8
    5bf5:	ffc986        	j	0x5b1f
    5bf8:	998b      	addi.n	a9, a9, 8
    5bfa:	ffc846        	j	0x5b1f
    5bfd:	0020c0        	memw
    5c00:	a529a2        	l32i	a10, a9, 0x294
    5c03:	20aaf0        	or	a10, a10, a15
    5c06:	0020c0        	memw
    5c09:	a569a2        	s32i	a10, a9, 0x294
    5c0c:	ffc3c6        	j	0x5b1f
    5c0f:	613600        	excw
    5c12:	da0c00        	excw
    5c15:	0b1c      	movi.n	a11, 16
    5c17:	7a0781        	l32r	a8, 0xfffe4434
    5c1a:	7a6e31        	l32r	a3, 0xfffe45d4
    5c1d:	78a192        	movi	a9, 0x178
    5c20:	c19290        	mul16u	a9, a2, a9
    5c23:	2c2332        	l32i	a3, a3, 176
    5c26:	7888      	l32i.n	a8, a8, 28
    5c28:	339a      	add.n	a3, a3, a9
    5c2a:	0008e0        	excw
    5c2d:	0a7d      	mov.n	a7, a10
    5c2f:	2acc      	bnez.n	a10, 0x5c35
    5c31:	324c      	movi.n	a2, 67
    5c33:	f01d      	excw
    5c35:	02ad      	mov.n	a10, a2
    5c37:	690c      	movi.n	a9, 6
    5c39:	2513f2        	l16ui	a15, a3, 74
    5c3c:	7a3881        	l32r	a8, 0xfffe451c
    5c3f:	1d0c      	movi.n	a13, 1
    5c41:	f4a0b2        	movi	a11, 244
    5c44:	b3ba      	add.n	a11, a3, a11
    5c46:	0dcd      	mov.n	a12, a13
    5c48:	3a2882        	l32i	a8, a8, 232
    5c4b:	90fff0        	addx2	a15, a15, a15
    5c4e:	90ff90        	addx2	a15, a15, a9
    5c51:	0051f2        	s16i	a15, a1, 0
    5c54:	0413e2        	l16ui	a14, a3, 8
    5c57:	b20392        	l8ui	a9, a3, 178
    5c5a:	eefa      	add.n	a14, a14, a15
    5c5c:	99ea      	add.n	a9, a9, a14
    5c5e:	992b      	addi.n	a9, a9, 2
    5c60:	f49090        	extui	a9, a9, 0, 16
    5c63:	005192        	s16i	a9, a1, 0
    5c66:	839d90        	moveqz	a9, a13, a9
    5c69:	005192        	s16i	a9, a1, 0
    5c6c:	0008e0        	excw
    5c6f:	831362        	l16ui	a6, a3, 0x106
    5c72:	221342        	l16ui	a4, a3, 68
    5c75:	801352        	l16ui	a5, a3, 0x100
    5c78:	04ad      	mov.n	a10, a4
    5c7a:	05bd      	mov.n	a11, a5
    5c7c:	0309e5        	excw
    5c7f:	90c540        	addx2	a12, a5, a4
    5c82:	4a1b      	addi.n	a4, a10, 1
    5c84:	c14540        	mul16u	a4, a5, a4
    5c87:	231382        	l16ui	a8, a3, 70
    5c8a:	464a      	add.n	a4, a6, a4
    5c8c:	c04480        	sub	a4, a4, a8
    5c8f:	f44040        	extui	a4, a4, 0, 16
    5c92:	0d24c7        	blt	a4, a12, 0x5ca3
    5c95:	7ad1a1        	l32r	a10, 0xfffe47dc
    5c98:	0b0c      	movi.n	a11, 0
    5c9a:	b43e25        	excw
    5c9d:	801352        	l16ui	a5, a3, 0x100
    5ca0:	831362        	l16ui	a6, a3, 0x106
    5ca3:	093457        	bltu	a4, a5, 0x5cb0
    5ca6:	04ad      	mov.n	a10, a4
    5ca8:	05bd      	mov.n	a11, a5
    5caa:	030c25        	excw
    5cad:	f440a0        	extui	a4, a10, 0, 16
    5cb0:	811382        	l16ui	a8, a3, 0x102
    5cb3:	235362        	s16i	a6, a3, 70
    5cb6:	1188f0        	slli	a8, a8, 1
    5cb9:	245382        	s16i	a8, a3, 72
    5cbc:	07b547        	bgeu	a5, a4, 0x5cc7
    5cbf:	7ad1a1        	l32r	a10, 0xfffe4804
    5cc2:	0b0c      	movi.n	a11, 0
    5cc4:	b43b65        	excw
    5cc7:	160c      	movi.n	a6, 1
    5cc9:	7a3851        	l32r	a5, 0xfffe45ac
    5ccc:	03ad      	mov.n	a10, a3
    5cce:	872582        	l32i	a8, a5, 0x21c
    5cd1:	01bd      	mov.n	a11, a1
    5cd3:	0008e0        	excw
    5cd6:	41e940        	srli	a14, a4, 9
    5cd9:	41f140        	srli	a15, a4, 1
    5cdc:	0a0792        	l8ui	a9, a7, 10
    5cdf:	0a3c      	movi.n	a10, 48
    5ce1:	997a      	add.n	a9, a9, a7
    5ce3:	0d0982        	l8ui	a8, a9, 13
    5ce6:	cfa0b2        	movi	a11, 207
    5ce9:	1088b0        	and	a8, a8, a11
    5cec:	2088a0        	or	a8, a8, a10
    5cef:	0d4982        	s8i	a8, a9, 13
    5cf2:	0a07d2        	l8ui	a13, a7, 10
    5cf5:	0c0c      	movi.n	a12, 0
    5cf7:	dd7a      	add.n	a13, a13, a7
    5cf9:	104dc2        	s8i	a12, a13, 16
    5cfc:	114d62        	s8i	a6, a13, 17
    5cff:	124df2        	s8i	a15, a13, 18
    5d02:	134de2        	s8i	a14, a13, 19
    5d05:	8013b2        	l16ui	a11, a3, 0x100
    5d08:	41b1b0        	srli	a11, a11, 1
    5d0b:	144db2        	s8i	a11, a13, 20
    5d0e:	8013a2        	l16ui	a10, a3, 0x100
    5d11:	41a9a0        	srli	a10, a10, 9
    5d14:	154da2        	s8i	a10, a13, 21
    5d17:	821392        	l16ui	a9, a3, 0x104
    5d1a:	164d92        	s8i	a9, a13, 22
    5d1d:	821382        	l16ui	a8, a3, 0x104
    5d20:	418880        	srli	a8, a8, 8
    5d23:	174d82        	s8i	a8, a13, 23
    5d26:	7e13f2        	l16ui	a15, a3, 252
    5d29:	184df2        	s8i	a15, a13, 24
    5d2c:	7e13e2        	l16ui	a14, a3, 252
    5d2f:	41e8e0        	srli	a14, a14, 8
    5d32:	194de2        	s8i	a14, a13, 25
    5d35:	0011b2        	l16ui	a11, a1, 0
    5d38:	1a4db2        	s8i	a11, a13, 26
    5d3b:	001192        	l16ui	a9, a1, 0
    5d3e:	02ad      	mov.n	a10, a2
    5d40:	419890        	srli	a9, a9, 8
    5d43:	1b4d92        	s8i	a9, a13, 27
    5d46:	4f2582        	l32i	a8, a5, 0x13c
    5d49:	07bd      	mov.n	a11, a7
    5d4b:	0008e0        	excw
    5d4e:	020c      	movi.n	a2, 0
    5d50:	4acc      	bnez.n	a10, 0x5d58
    5d52:	0011a2        	l16ui	a10, a1, 0
    5d55:	5753a2        	s16i	a10, a3, 174
    5d58:	f01d      	excw
    5d5a:	360000        	excw
    5d5d:	910041        	l32r	a4, 0xfffea160
    5d60:	6e          	.byte 0x6e
    5d61:	927a      	add.n	a9, a2, a7
    5d63:	0009      	s32i.n	a0, a0, 0
    5d65:	a80c      	movi.n	a8, 10
    5d67:	07b897        	bgeu	a8, a9, 0x5d72
    5d6a:	7ad1a1        	l32r	a10, 0xfffe48b0
    5d6d:	0b0c      	movi.n	a11, 0
    5d6f:	b430e5        	excw
    5d72:	7a38b1        	l32r	a11, 0xfffe4654
    5d75:	7ad391        	l32r	a9, 0xfffe48c4
    5d78:	592bc2        	l32i	a12, a11, 0x164
    5d7b:	1d2bf2        	l32i	a15, a11, 116
    5d7e:	5c2bd2        	l32i	a13, a11, 0x170
    5d81:	1b2be2        	l32i	a14, a11, 108
    5d84:	5a2ba2        	l32i	a10, a11, 0x168
    5d87:	79a9      	s32i.n	a10, a9, 28
    5d89:	39e9      	s32i.n	a14, a9, 12
    5d8b:	59d9      	s32i.n	a13, a9, 20
    5d8d:	29f9      	s32i.n	a15, a9, 8
    5d8f:	69c9      	s32i.n	a12, a9, 24
    5d91:	7adcf1        	l32r	a15, 0xfffe4904
    5d94:	7adec1        	l32r	a12, 0xfffe490c
    5d97:	7adbd1        	l32r	a13, 0xfffe4904
    5d9a:	7adde1        	l32r	a14, 0xfffe4910
    5d9d:	7adfa1        	l32r	a10, 0xfffe491c
    5da0:	1d6ba2        	s32i	a10, a11, 116
    5da3:	626de2        	s32i	a14, a13, 0x188
    5da6:	656dc2        	s32i	a12, a13, 0x194
    5da9:	612d82        	l32i	a8, a13, 0x184
    5dac:	7ae6a1        	l32r	a10, 0xfffe4944
    5daf:	416ba2        	s32i	a10, a11, 0x104
    5db2:	4989      	s32i.n	a8, a9, 16
    5db4:	616df2        	s32i	a15, a13, 0x184
    5db7:	7ae5c1        	l32r	a12, 0xfffe494c
    5dba:	7ae3e1        	l32r	a14, 0xfffe4948
    5dbd:	5a6be2        	s32i	a14, a11, 0x168
    5dc0:	1c6bc2        	s32i	a12, a11, 112
    5dc3:	7ae2f1        	l32r	a15, 0xfffe494c
    5dc6:	7ae181        	l32r	a8, 0xfffe494c
    5dc9:	7aeda1        	l32r	a10, 0xfffe4980
    5dcc:	aba9      	s32i.n	a10, a11, 40
    5dce:	5c6b82        	s32i	a8, a11, 0x170
    5dd1:	596bf2        	s32i	a15, a11, 0x164
    5dd4:	7ae091        	l32r	a9, 0xfffe4954
    5dd7:	7aecc1        	l32r	a12, 0xfffe4988
    5dda:	7aeae1        	l32r	a14, 0xfffe4984
    5ddd:	8e6be2        	s32i	a14, a11, 0x238
    5de0:	6a6bc2        	s32i	a12, a11, 0x1a8
    5de3:	1b6b92        	s32i	a9, a11, 108
    5de6:	7ae4d1        	l32r	a13, 0xfffe4978
    5de9:	7ae9f1        	l32r	a15, 0xfffe4990
    5dec:	7ae881        	l32r	a8, 0xfffe498c
    5def:	636b82        	s32i	a8, a11, 0x18c
    5df2:	466bf2        	s32i	a15, a11, 0x118
    5df5:	1e6bd2        	s32i	a13, a11, 120
    5df8:	7ae791        	l32r	a9, 0xfffe4994
    5dfb:	826b92        	s32i	a9, a11, 0x208
    5dfe:	7aebd1        	l32r	a13, 0xfffe49ac
    5e01:	7e6bd2        	s32i	a13, a11, 0x1f8
    5e04:	f01d      	excw
    5e06:	360000        	excw
    5e09:	810041        	l32r	a4, 0xfffe620c
    5e0c:	827a75        	excw
    5e0f:	7408      	l32i.n	a0, a4, 28
    5e11:	238800        	excw
    5e14:	0718e6        	bgei	a8, 1, 0x5e1f
    5e17:	7aeea1        	l32r	a10, 0xfffe49d0
    5e1a:	0b0c      	movi.n	a11, 0
    5e1c:	b425e5        	excw
    5e1f:	ffa092        	movi	a9, 255
    5e22:	079297        	bne	a2, a9, 0x5e2d
    5e25:	7aeea1        	l32r	a10, 0xfffe49e0
    5e28:	0b0c      	movi.n	a11, 0
    5e2a:	b42525        	excw
    5e2d:	7a7e31        	l32r	a3, 0xfffe4828
    5e30:	78a182        	movi	a8, 0x178
    5e33:	c18280        	mul16u	a8, a2, a8
    5e36:	338a      	add.n	a3, a3, a8
    5e38:	7f03a2        	l8ui	a10, a3, 127
    5e3b:	6acc      	bnez.n	a10, 0x5e45
    5e3d:	7aeea1        	l32r	a10, 0xfffe49f8
    5e40:	0b0c      	movi.n	a11, 0
    5e42:	b423a5        	excw
    5e45:	8003a2        	l8ui	a10, a3, 128
    5e48:	164ab6        	bltui	a10, 4, 0x5e62
    5e4b:	084a66        	bnei	a10, 4, 0x5e57
    5e4e:	7a6891        	l32r	a9, 0xfffe47f0
    5e51:	1a2992        	l32i	a9, a9, 104
    5e54:	0ab297        	bgeu	a2, a9, 0x5e62
    5e57:	7aeea1        	l32r	a10, 0xfffe4a10
    5e5a:	0b0c      	movi.n	a11, 0
    5e5c:	b421e5        	excw
    5e5f:	8003a2        	l8ui	a10, a3, 128
    5e62:	7a1821        	l32r	a2, 0xfffe46c4
    5e65:	a02a20        	addx4	a2, a10, a2
    5e68:	1228      	l32i.n	a2, a2, 4
    5e6a:	f01d      	excw
    5e6c:	004136        	excw
    5e6f:	02ad      	mov.n	a10, a2
    5e71:	0b0c      	movi.n	a11, 0
    5e73:	0c0c      	movi.n	a12, 0
    5e75:	7aef91        	l32r	a9, 0xfffe4a34
    5e78:	7a5581        	l32r	a8, 0xfffe47cc
    5e7b:	074922        	s8i	a2, a9, 7
    5e7e:	112882        	l32i	a8, a8, 68
    5e81:	064932        	s8i	a3, a9, 6
    5e84:	0008e0        	excw
    5e87:	7ad481        	l32r	a8, 0xfffe49d8
    5e8a:	aa0c      	movi.n	a10, 10
    5e8c:	0888      	l32i.n	a8, a8, 0
    5e8e:	0b0c      	movi.n	a11, 0
    5e90:	0008e0        	excw
    5e93:	f01d      	excw
    5e95:	000000        	ill
    5e98:	008136        	excw
    5e9b:	037d      	mov.n	a7, a3
    5e9d:	3b0c      	movi.n	a11, 3
    5e9f:	7a7c51        	l32r	a5, 0xfffe4890
    5ea2:	7a1561        	l32r	a6, 0xfffe46f8
    5ea5:	78a192        	movi	a9, 0x178
    5ea8:	c19290        	mul16u	a9, a2, a9
    5eab:	832682        	l32i	a8, a6, 0x20c
    5eae:	559a      	add.n	a5, a5, a9
    5eb0:	9005a2        	l8ui	a10, a5, 144
    5eb3:	0008e0        	excw
    5eb6:	7a1841        	l32r	a4, 0xfffe4718
    5eb9:	7a7591        	l32r	a9, 0xfffe4890
    5ebc:	26d432        	addmi	a3, a4, 0x2600
    5ebf:	1e23a2        	l32i	a10, a3, 120
    5ec2:	1159      	s32i.n	a5, a1, 4
    5ec4:	180a66        	bnei	a10, -1, 0x5ee0
    5ec7:	7409a2        	l8ui	a10, a9, 116
    5eca:	23aa00        	excw
    5ecd:	0a1ae6        	bgei	a10, 1, 0x5edb
    5ed0:	7aeea1        	l32r	a10, 0xfffe4a88
    5ed3:	0b0c      	movi.n	a11, 0
    5ed5:	b41a65        	excw
    5ed8:	7a7591        	l32r	a9, 0xfffe48ac
    5edb:	14a8      	l32i.n	a10, a4, 4
    5edd:	1e63a2        	s32i	a10, a3, 120
    5ee0:	7409b2        	l8ui	a11, a9, 116
    5ee3:	23bb00        	excw
    5ee6:	0a1be6        	bgei	a11, 1, 0x5ef4
    5ee9:	7aeea1        	l32r	a10, 0xfffe4aa4
    5eec:	0b0c      	movi.n	a11, 0
    5eee:	b418e5        	excw
    5ef1:	1e23a2        	l32i	a10, a3, 120
    5ef4:	1f23c2        	l32i	a12, a3, 124
    5ef7:	14b8      	l32i.n	a11, a4, 4
    5ef9:	7a2481        	l32r	a8, 0xfffe478c
    5efc:	c06ba0        	sub	a6, a11, a10
    5eff:	106680        	and	a6, a6, a8
    5f02:	1036c7        	bltu	a6, a12, 0x5f16
    5f05:	7a1581        	l32r	a8, 0xfffe475c
    5f08:	02ad      	mov.n	a10, a2
    5f0a:	cf2882        	l32i	a8, a8, 0x33c
    5f0d:	0b0c      	movi.n	a11, 0
    5f0f:	0008e0        	excw
    5f12:	120c      	movi.n	a2, 1
    5f14:	f01d      	excw
    5f16:	7a7651        	l32r	a5, 0xfffe48f0
    5f19:	7af0a1        	l32r	a10, 0xfffe4adc
    5f1c:	7a14c1        	l32r	a12, 0xfffe476c
    5f1f:	001a92        	l16ui	a9, a10, 0
    5f22:	202382        	l32i	a8, a3, 128
    5f25:	0599c7        	bne	a9, a12, 0x5f2e
    5f28:	e4d1b0        	extui	a13, a11, 1, 15
    5f2b:	005ad2        	s16i	a13, a10, 0
    5f2e:	0020c0        	memw
    5f31:	906582        	s32i	a8, a5, 0x240
    5f34:	2023f2        	l32i	a15, a3, 128
    5f37:	2123e2        	l32i	a14, a3, 132
    5f3a:	0020c0        	memw
    5f3d:	9165e2        	s32i	a14, a5, 0x244
    5f40:	0b0c      	movi.n	a11, 0
    5f42:	0c0c      	movi.n	a12, 0
    5f44:	74d0b0        	extui	a13, a11, 0, 8
    5f47:	a0ddd0        	addx4	a13, a13, a13
    5f4a:	b0dd40        	addx8	a13, a13, a4
    5f4d:	661dd2        	l16ui	a13, a13, 204
    5f50:	bb1b      	addi.n	a11, a11, 1
    5f52:	016d07        	bbci	a13, 0, 0x5f57
    5f55:	cc1b      	addi.n	a12, a12, 1
    5f57:	fe9b16        	beqz	a11, 0x5f44
    5f5a:	7a5b81        	l32r	a8, 0xfffe48c8
    5f5d:	74a0c0        	extui	a10, a12, 0, 8
    5f60:	090c      	movi.n	a9, 0
    5f62:	11aa80        	slli	a10, a10, 8
    5f65:	01daa2        	addmi	a10, a10, 0x100
    5f68:	94a0a0        	extui	a10, a10, 0, 10
    5f6b:	0020c0        	memw
    5f6e:	8e65a2        	s32i	a10, a5, 0x238
    5f71:	0020c0        	memw
    5f74:	8d6592        	s32i	a9, a5, 0x234
    5f77:	0020c0        	memw
    5f7a:	8b6592        	s32i	a9, a5, 0x22c
    5f7d:	6888      	l32i.n	a8, a8, 24
    5f7f:	1a0c      	movi.n	a10, 1
    5f81:	0008e0        	excw
    5f84:	0020c0        	memw
    5f87:	7a5b81        	l32r	a8, 0xfffe48f4
    5f8a:	8c65a2        	s32i	a10, a5, 0x230
    5f8d:	7888      	l32i.n	a8, a8, 28
    5f8f:	1a0c      	movi.n	a10, 1
    5f91:	0008e0        	excw
    5f94:	7a5791        	l32r	a9, 0xfffe48f0
    5f97:	0020c0        	memw
    5f9a:	8369a2        	s32i	a10, a9, 0x20c
    5f9d:	7a1581        	l32r	a8, 0xfffe47f4
    5fa0:	1f2392        	l32i	a9, a3, 124
    5fa3:	ca2882        	l32i	a8, a8, 0x328
    5fa6:	c06960        	sub	a6, a9, a6
    5fa9:	0008e0        	excw
    5fac:	7af1b1        	l32r	a11, 0xfffe4b70
    5faf:	7a59c1        	l32r	a12, 0xfffe4914
    5fb2:	2c0ba7        	bnone	a11, a10, 0x5fe2
    5fb5:	7af0a1        	l32r	a10, 0xfffe4b78
    5fb8:	1498      	l32i.n	a9, a4, 4
    5fba:	001aa2        	l16ui	a10, a10, 0
    5fbd:	e49190        	extui	a9, a9, 1, 15
    5fc0:	c099a0        	sub	a9, a9, a10
    5fc3:	e49090        	extui	a9, a9, 0, 15
    5fc6:	1199f0        	slli	a9, a9, 1
    5fc9:	f49090        	extui	a9, a9, 0, 16
    5fcc:	02c9f6        	bgeui	a9, 32, 0x5fd2
    5fcf:	007dc6        	j	0x61ca
    5fd2:	7a1581        	l32r	a8, 0xfffe4828
    5fd5:	02ad      	mov.n	a10, a2
    5fd7:	cf2882        	l32i	a8, a8, 0x33c
    5fda:	0b0c      	movi.n	a11, 0
    5fdc:	0008e0        	excw
    5fdf:	ffcbc6        	j	0x5f12
    5fe2:	7a1291        	l32r	a9, 0xfffe482c
    5fe5:	8f0c      	movi.n	a15, 8
    5fe7:	7a7ed1        	l32r	a13, 0xfffe49e0
    5fea:	7af2b1        	l32r	a11, 0xfffe4bb4
    5fed:	0e3c      	movi.n	a14, 48
    5fef:	040ca2        	l8ui	a10, a12, 4
    5ff2:	636690        	excw
    5ff5:	6a8c      	beqz.n	a10, 0x5fff
    5ff7:	061ca2        	l16ui	a10, a12, 12
    5ffa:	01ba67        	bgeu	a10, a6, 0x5fff
    5ffd:	0a6d      	mov.n	a6, a10
    5fff:	7a7fa1        	l32r	a10, 0xfffe49fc
    6002:	871b      	addi.n	a8, a7, 1
    6004:	ca0a92        	l8ui	a9, a10, 202
    6007:	1de816        	beqz	a8, 0x61e9
    600a:	0179      	s32i.n	a7, a1, 0
    600c:	39cc      	bnez.n	a9, 0x6013
    600e:	f77c      	movi.n	a7, -1
    6010:	0003c6        	j	0x6023
    6013:	cb0aa2        	l8ui	a10, a10, 203
    6016:	78a172        	movi	a7, 0x178
    6019:	c1aa70        	mul16u	a10, a10, a7
    601c:	470c      	movi.n	a7, 4
    601e:	adaa      	add.n	a10, a13, a10
    6020:	800aa2        	l8ui	a10, a10, 128
    6023:	0188      	l32i.n	a8, a1, 0
    6025:	023787        	bltu	a7, a8, 0x602b
    6028:	006986        	j	0x61d2
    602b:	1e4af6        	bgeui	a10, 4, 0x604d
    602e:	113ac0        	slli	a3, a10, 4
    6031:	a08a40        	addx4	a8, a10, a4
    6034:	1888      	l32i.n	a8, a8, 4
    6036:	1033e0        	and	a3, a3, a14
    6039:	887a      	add.n	a8, a8, a7
    603b:	418180        	srli	a8, a8, 1
    603e:	1188a0        	slli	a8, a8, 6
    6041:	1088b0        	and	a8, a8, a11
    6044:	203380        	or	a3, a3, a8
    6047:	2033f0        	or	a3, a3, a15
    604a:	000046        	j	0x604f
    604d:	030c      	movi.n	a3, 0
    604f:	0020c0        	memw
    6052:	aa6532        	s32i	a3, a5, 0x2a8
    6055:	0000c6        	j	0x605c
    6058:	030c      	movi.n	a3, 0
    605a:	470c      	movi.n	a7, 4
    605c:	7af391        	l32r	a9, 0xfffe4c28
    605f:	f409a2        	l8ui	a10, a9, 244
    6062:	242a66        	bnei	a10, 2, 0x608a
    6065:	7af4b1        	l32r	a11, 0xfffe4c38
    6068:	183b67        	bltu	a11, a6, 0x6084
    606b:	02ad      	mov.n	a10, a2
    606d:	7ad481        	l32r	a8, 0xfffe4bc0
    6070:	06bd      	mov.n	a11, a6
    6072:	172882        	l32i	a8, a8, 92
    6075:	0c0c      	movi.n	a12, 0
    6077:	0008e0        	excw
    607a:	8b2472        	l32i	a7, a4, 0x22c
    607d:	0a3d      	mov.n	a3, a10
    607f:	637760        	excw
    6082:	666b      	addi.n	a6, a6, 6
    6084:	7af541        	l32r	a4, 0xfffe4c58
    6087:	000046        	j	0x608c
    608a:	b40c      	movi.n	a4, 11
    608c:	0020c0        	memw
    608f:	aa6532        	s32i	a3, a5, 0x2a8
    6092:	0020c0        	memw
    6095:	8a6542        	s32i	a4, a5, 0x228
    6098:	e4b160        	extui	a11, a6, 1, 15
    609b:	0020c0        	memw
    609e:	1198      	l32i.n	a9, a1, 4
    60a0:	8f65b2        	s32i	a11, a5, 0x23c
    60a3:	1d29a2        	l32i	a10, a9, 116
    60a6:	7af6b1        	l32r	a11, 0xfffe4c80
    60a9:	04a0a0        	extui	a10, a10, 0, 1
    60ac:	11aa20        	slli	a10, a10, 14
    60af:	10aab0        	and	a10, a10, a11
    60b2:	0020c0        	memw
    60b5:	9d65a2        	s32i	a10, a5, 0x274
    60b8:	1d2992        	l32i	a9, a9, 116
    60bb:	7af7a1        	l32r	a10, 0xfffe4c98
    60be:	049090        	extui	a9, a9, 0, 1
    60c1:	0199c0        	slli	a9, a9, 20
    60c4:	1099a0        	and	a9, a9, a10
    60c7:	0020c0        	memw
    60ca:	0b0c      	movi.n	a11, 0
    60cc:	9c6592        	s32i	a9, a5, 0x270
    60cf:	7a2d81        	l32r	a8, 0xfffe4984
    60d2:	7af3a1        	l32r	a10, 0xfffe4ca0
    60d5:	aa2882        	l32i	a8, a8, 0x2a8
    60d8:	f50aa2        	l8ui	a10, a10, 245
    60db:	0008e0        	excw
    60de:	7a5bb1        	l32r	a11, 0xfffe4a4c
    60e1:	80a782        	movi	a8, 0x780
    60e4:	114290        	slli	a4, a2, 7
    60e7:	4c0c      	movi.n	a12, 4
    60e9:	104480        	and	a4, a4, a8
    60ec:	2044c0        	or	a4, a4, a12
    60ef:	0020c0        	memw
    60f2:	8625a2        	l32i	a10, a5, 0x218
    60f5:	0d7c      	movi.n	a13, -16
    60f7:	10aad0        	and	a10, a10, a13
    60fa:	7d0c      	movi.n	a13, 7
    60fc:	20aad0        	or	a10, a10, a13
    60ff:	0020c0        	memw
    6102:	1198      	l32i.n	a9, a1, 4
    6104:	8665a2        	s32i	a10, a5, 0x218
    6107:	1d2992        	l32i	a9, a9, 116
    610a:	106967        	bbci	a9, 6, 0x611e
    610d:	7af8a1        	l32r	a10, 0xfffe4cf0
    6110:	11e8      	l32i.n	a14, a1, 4
    6112:	bfafd2        	movi	a13, -65
    6115:	10d9d0        	and	a13, a9, a13
    6118:	1d6ed2        	s32i	a13, a14, 116
    611b:	2044a0        	or	a4, a4, a10
    611e:	7a68e1        	l32r	a14, 0xfffe4ac0
    6121:	1f2ee2        	l32i	a14, a14, 124
    6124:	0b0e66        	bnei	a14, -1, 0x6133
    6127:	7a97f1        	l32r	a15, 0xfffe4b84
    612a:	0020c0        	memw
    612d:	8965f2        	s32i	a15, a5, 0x224
    6130:	0001c6        	j	0x613b
    6133:	0020c0        	memw
    6136:	080c      	movi.n	a8, 0
    6138:	896582        	s32i	a8, a5, 0x224
    613b:	8b88      	l32i.n	a8, a11, 32
    613d:	1a0c      	movi.n	a10, 1
    613f:	0008e0        	excw
    6142:	1b0c      	movi.n	a11, 1
    6144:	0c0c      	movi.n	a12, 0
    6146:	7a5581        	l32r	a8, 0xfffe4a9c
    6149:	21a9      	s32i.n	a10, a1, 8
    614b:	3888      	l32i.n	a8, a8, 12
    614d:	02ad      	mov.n	a10, a2
    614f:	0008e0        	excw
    6152:	1b0c      	movi.n	a11, 1
    6154:	7a5581        	l32r	a8, 0xfffe4aa8
    6157:	31a9      	s32i.n	a10, a1, 12
    6159:	4888      	l32i.n	a8, a8, 16
    615b:	02ad      	mov.n	a10, a2
    615d:	0008e0        	excw
    6160:	7a56b1        	l32r	a11, 0xfffe4ab8
    6163:	0a9d      	mov.n	a9, a10
    6165:	200bc2        	l8ui	a12, a11, 32
    6168:	7a59d1        	l32r	a13, 0xfffe4acc
    616b:	7cbc      	beqz.n	a12, 0x61a6
    616d:	142dd2        	l32i	a13, a13, 80
    6170:	41a9      	s32i.n	a10, a1, 16
    6172:	306d67        	bbci	a13, 6, 0x61a6
    6175:	11a8      	l32i.n	a10, a1, 4
    6177:	490c      	movi.n	a9, 4
    6179:	7a5581        	l32r	a8, 0xfffe4ad0
    617c:	234b92        	s8i	a9, a11, 35
    617f:	382882        	l32i	a8, a8, 224
    6182:	6a0aa2        	l8ui	a10, a10, 106
    6185:	0008e0        	excw
    6188:	7a55b1        	l32r	a11, 0xfffe4adc
    618b:	7a5ac1        	l32r	a12, 0xfffe4af4
    618e:	016337        	bbci	a3, 3, 0x6193
    6191:	076d      	mov.n	a6, a7
    6193:	02ad      	mov.n	a10, a2
    6195:	3c2b82        	l32i	a8, a11, 240
    6198:	71a292        	movi	a9, 0x271
    619b:	829690        	mull	a9, a6, a9
    619e:	6e6c92        	s32i	a9, a12, 0x1b8
    61a1:	0008e0        	excw
    61a4:	4198      	l32i.n	a9, a1, 16
    61a6:	0020c0        	memw
    61a9:	7a57c1        	l32r	a12, 0xfffe4b08
    61ac:	21d8      	l32i.n	a13, a1, 8
    61ae:	886cd2        	s32i	a13, a12, 0x220
    61b1:	31b8      	l32i.n	a11, a1, 12
    61b3:	20bb90        	or	a11, a11, a9
    61b6:	0020c0        	memw
    61b9:	8a6cb2        	s32i	a11, a12, 0x228
    61bc:	0020c0        	memw
    61bf:	7aefa1        	l32r	a10, 0xfffe4d7c
    61c2:	886542        	s32i	a4, a5, 0x220
    61c5:	9a39      	s32i.n	a3, a10, 36
    61c7:	ff51c6        	j	0x5f12
    61ca:	0e2c      	movi.n	a14, 32
    61cc:	c09e90        	sub	a9, a14, a9
    61cf:	ff8486        	j	0x5fe5
    61d2:	02ad      	mov.n	a10, a2
    61d4:	7ad481        	l32r	a8, 0xfffe4d24
    61d7:	fb7c      	movi.n	a11, -1
    61d9:	172882        	l32i	a8, a8, 92
    61dc:	0c0c      	movi.n	a12, 0
    61de:	0008e0        	excw
    61e1:	0a3d      	mov.n	a3, a10
    61e3:	8b2472        	l32i	a7, a4, 0x22c
    61e6:	ff9c86        	j	0x605c
    61e9:	e6b916        	beqz	a9, 0x6058
    61ec:	cb0a92        	l8ui	a9, a10, 203
    61ef:	78a182        	movi	a8, 0x178
    61f2:	c19980        	mul16u	a9, a9, a8
    61f5:	9d9a      	add.n	a9, a13, a9
    61f7:	800992        	l8ui	a9, a9, 128
    61fa:	1e49f6        	bgeui	a9, 4, 0x621c
    61fd:	1139c0        	slli	a3, a9, 4
    6200:	a08940        	addx4	a8, a9, a4
    6203:	1888      	l32i.n	a8, a8, 4
    6205:	1033e0        	and	a3, a3, a14
    6208:	884b      	addi.n	a8, a8, 4
    620a:	418180        	srli	a8, a8, 1
    620d:	1188a0        	slli	a8, a8, 6
    6210:	1088b0        	and	a8, a8, a11
    6213:	203380        	or	a3, a3, a8
    6216:	2033f0        	or	a3, a3, a15
    6219:	000046        	j	0x621e
    621c:	030c      	movi.n	a3, 0
    621e:	0020c0        	memw
    6221:	aa6532        	s32i	a3, a5, 0x2a8
    6224:	ff8c86        	j	0x605a
    6227:	413600        	srli	a3, a0, 6
    622a:	d46100        	extui	a6, a0, 1, 14
    622d:	887a      	add.n	a8, a8, a7
    622f:	08e096        	bltz	a0, 0x62c1
    6232:	759100        	extui	a9, a0, 17, 8
    6235:	927a      	add.n	a9, a2, a7
    6237:	7409      	s32i.n	a0, a4, 28
    6239:	239900        	excw
    623c:	0719e6        	bgei	a9, 1, 0x6247
    623f:	7aeea1        	l32r	a10, 0xfffe4df8
    6242:	0b0c      	movi.n	a11, 0
    6244:	b3e365        	excw
    6247:	7af041        	l32r	a4, 0xfffe4e08
    624a:	7a1851        	l32r	a5, 0xfffe4aac
    624d:	7a24d1        	l32r	a13, 0xfffe4ae0
    6250:	15b8      	l32i.n	a11, a5, 4
    6252:	26d5c2        	addmi	a12, a5, 0x2600
    6255:	1e2ce2        	l32i	a14, a12, 120
    6258:	1f2cc2        	l32i	a12, a12, 124
    625b:	c0bbe0        	sub	a11, a11, a14
    625e:	10bbd0        	and	a11, a11, a13
    6261:	4dbbc7        	bgeu	a11, a12, 0x62b2
    6264:	7a1581        	l32r	a8, 0xfffe4ab8
    6267:	ca2882        	l32i	a8, a8, 0x328
    626a:	0008e0        	excw
    626d:	0a2d      	mov.n	a2, a10
    626f:	18a192        	movi	a9, 0x118
    6272:	0c09a7        	bnone	a9, a10, 0x6282
    6275:	1a0c      	movi.n	a10, 1
    6277:	ffa0b2        	movi	a11, 255
    627a:	132682        	l32i	a8, a6, 76
    627d:	9c1c      	movi.n	a12, 25
    627f:	0008e0        	excw
    6282:	7af191        	l32r	a9, 0xfffe4e48
    6285:	15a8      	l32i.n	a10, a5, 4
    6287:	300927        	bnone	a9, a2, 0x62bb
    628a:	0014b2        	l16ui	a11, a4, 0
    628d:	e4a1a0        	extui	a10, a10, 1, 15
    6290:	c0aab0        	sub	a10, a10, a11
    6293:	e4a0a0        	extui	a10, a10, 0, 15
    6296:	11aaf0        	slli	a10, a10, 1
    6299:	f4a0a0        	extui	a10, a10, 0, 16
    629c:	1bcab6        	bltui	a10, 32, 0x62bb
    629f:	0a1c      	movi.n	a10, 16
    62a1:	7a2d81        	l32r	a8, 0xfffe4b58
    62a4:	7a1491        	l32r	a9, 0xfffe4af4
    62a7:	fe2882        	l32i	a8, a8, 0x3f8
    62aa:	005492        	s16i	a9, a4, 0
    62ad:	0008e0        	excw
    62b0:	f01d      	excw
    62b2:	02ad      	mov.n	a10, a2
    62b4:	2488      	l32i.n	a8, a4, 8
    62b6:	03bd      	mov.n	a11, a3
    62b8:	0008e0        	excw
    62bb:	f01d      	excw
    62bd:	000000        	ill
    62c0:	004136        	excw
    62c3:	7a1581        	l32r	a8, 0xfffe4b18
    62c6:	252882        	l32i	a8, a8, 148
    62c9:	7af9a1        	l32r	a10, 0xfffe4eb0
    62cc:	0008e0        	excw
    62cf:	2acc      	bnez.n	a10, 0x62d5
    62d1:	120c      	movi.n	a2, 1
    62d3:	f01d      	excw
    62d5:	02ad      	mov.n	a10, a2
    62d7:	7af081        	l32r	a8, 0xfffe4e98
    62da:	7a1491        	l32r	a9, 0xfffe4b2c
    62dd:	005892        	s16i	a9, a8, 0
    62e0:	3888      	l32i.n	a8, a8, 12
    62e2:	03bd      	mov.n	a11, a3
    62e4:	0008e0        	excw
    62e7:	0a2d      	mov.n	a2, a10
    62e9:	f01d      	excw
    62eb:	413600        	srli	a3, a0, 6
    62ee:	025d00        	excw
    62f1:	7a6821        	l32r	a2, 0xfffe4c94
    62f4:	7afa61        	l32r	a6, 0xfffe4edc
    62f7:	2d2222        	l32i	a2, a2, 180
    62fa:	18a132        	movi	a3, 0x118
    62fd:	f42020        	extui	a2, a2, 0, 16
    6300:	0b0357        	bnone	a3, a5, 0x630f
    6303:	961662        	l16ui	a6, a6, 0x12c
    6306:	1166c0        	slli	a6, a6, 4
    6309:	02a627        	bge	a6, a2, 0x630f
    630c:	f42060        	extui	a2, a6, 0, 16
    630f:	0665a7        	bbci	a5, 10, 0x6319
    6312:	052c      	movi.n	a5, 32
    6314:	01b527        	bgeu	a5, a2, 0x6319
    6317:	052d      	mov.n	a2, a5
    6319:	f01d      	excw
    631b:	413600        	srli	a3, a0, 6
    631e:	f05100        	subx8	a5, a1, a0
    6321:	817a      	add.n	a8, a1, a7
    6323:	417a73        	excw
    6326:	7afb      	addi.n	a7, a10, 15
    6328:	2d0882        	l8ui	a8, a8, 45
    632b:	da1462        	l16ui	a6, a4, 0x1b4
    632e:	0b6856        	bnez	a8, 0x63e8
    6331:	7a14b1        	l32r	a11, 0xfffe4b84
    6334:	011592        	l16ui	a9, a5, 2
    6337:	dbd472        	addmi	a7, a4, 0xffffdb00
    633a:	0799b7        	bne	a9, a11, 0x6345
    633d:	17c8      	l32i.n	a12, a7, 4
    633f:	e4c1c0        	extui	a12, a12, 1, 15
    6342:	0155c2        	s16i	a12, a5, 2
    6345:	7a1581        	l32r	a8, 0xfffe4b9c
    6348:	ca2882        	l32i	a8, a8, 0x328
    634b:	0008e0        	excw
    634e:	f4b0a0        	extui	a11, a10, 0, 16
    6351:	18a592        	movi	a9, 0x518
    6354:	0289b7        	bany	a9, a11, 0x635a
    6357:	002346        	j	0x63e8
    635a:	0bad      	mov.n	a10, a11
    635c:	fff8e5        	excw
    635f:	17b8      	l32i.n	a11, a7, 4
    6361:	0115c2        	l16ui	a12, a5, 2
    6364:	e4b1b0        	extui	a11, a11, 1, 15
    6367:	c0bbc0        	sub	a11, a11, a12
    636a:	e4b0b0        	extui	a11, a11, 0, 15
    636d:	11bbf0        	slli	a11, a11, 1
    6370:	f4b0b0        	extui	a11, a11, 0, 16
    6373:	253ba7        	bltu	a11, a10, 0x639c
    6376:	7a2d31        	l32r	a3, 0xfffe4c2c
    6379:	02ad      	mov.n	a10, a2
    637b:	812382        	l32i	a8, a3, 0x204
    637e:	0b0c      	movi.n	a11, 0
    6380:	0008e0        	excw
    6383:	8627b2        	l32i	a11, a7, 0x218
    6386:	0e0b26        	beqi	a11, -1, 0x6398
    6389:	822382        	l32i	a8, a3, 0x208
    638c:	02ad      	mov.n	a10, a2
    638e:	0008e0        	excw
    6391:	7aefa1        	l32r	a10, 0xfffe4f50
    6394:	f97c      	movi.n	a9, -1
    6396:	6a99      	s32i.n	a9, a10, 24
    6398:	120c      	movi.n	a2, 1
    639a:	f01d      	excw
    639c:	7a75c1        	l32r	a12, 0xfffe4d70
    639f:	c0dab0        	sub	a13, a10, a11
    63a2:	740cc2        	l8ui	a12, a12, 116
    63a5:	6d64d2        	s32i	a13, a4, 0x1b4
    63a8:	23cc00        	excw
    63ab:	1b1ce6        	bgei	a12, 1, 0x63ca
    63ae:	7aeea1        	l32r	a10, 0xfffe4f68
    63b1:	0b0c      	movi.n	a11, 0
    63b3:	b3cca5        	excw
    63b6:	7a75d1        	l32r	a13, 0xfffe4d8c
    63b9:	740dd2        	l8ui	a13, a13, 116
    63bc:	23dd00        	excw
    63bf:	071de6        	bgei	a13, 1, 0x63ca
    63c2:	7aeea1        	l32r	a10, 0xfffe4f7c
    63c5:	0b0c      	movi.n	a11, 0
    63c7:	b3cb65        	excw
    63ca:	00a482        	movi	a8, 0x400
    63cd:	17e8      	l32i.n	a14, a7, 4
    63cf:	80a3f2        	movi	a15, 0x380
    63d2:	fefa      	add.n	a15, a14, a15
    63d4:	10ff80        	and	a15, a15, a8
    63d7:	10ee80        	and	a14, a14, a8
    63da:	0a9ef7        	bne	a14, a15, 0x63e8
    63dd:	7a6881        	l32r	a8, 0xfffe4d80
    63e0:	2d2882        	l32i	a8, a8, 180
    63e3:	882b      	addi.n	a8, a8, 2
    63e5:	6d6482        	s32i	a8, a4, 0x1b4
    63e8:	02ad      	mov.n	a10, a2
    63ea:	4588      	l32i.n	a8, a5, 16
    63ec:	03bd      	mov.n	a11, a3
    63ee:	0008e0        	excw
    63f1:	6d6462        	s32i	a6, a4, 0x1b4
    63f4:	ffe806        	j	0x6398
    63f7:	413600        	srli	a3, a0, 6
    63fa:	f04100        	subx8	a4, a1, a0
    63fd:	ad7a      	add.n	a10, a13, a7
    63ff:	548802        	excw
    6402:	03bd      	mov.n	a11, a3
    6404:	0008e0        	excw
    6407:	7a7391        	l32r	a9, 0xfffe4dd4
    640a:	200992        	l8ui	a9, a9, 32
    640d:	ffa0b2        	movi	a11, 255
    6410:	4d19b7        	beq	a9, a11, 0x6461
    6413:	7a1581        	l32r	a8, 0xfffe4c68
    6416:	ca2882        	l32i	a8, a8, 0x328
    6419:	0008e0        	excw
    641c:	f420a0        	extui	a2, a10, 0, 16
    641f:	18a592        	movi	a9, 0x518
    6422:	3b0927        	bnone	a9, a2, 0x6461
    6425:	02ad      	mov.n	a10, a2
    6427:	ffec65        	excw
    642a:	7a18c1        	l32r	a12, 0xfffe4c8c
    642d:	0abd      	mov.n	a11, a10
    642f:	1ca8      	l32i.n	a10, a12, 4
    6431:	0114c2        	l16ui	a12, a4, 2
    6434:	e4a1a0        	extui	a10, a10, 1, 15
    6437:	c0aac0        	sub	a10, a10, a12
    643a:	e4a0a0        	extui	a10, a10, 0, 15
    643d:	11aaf0        	slli	a10, a10, 1
    6440:	f4a0a0        	extui	a10, a10, 0, 16
    6443:	1a3ab7        	bltu	a10, a11, 0x6461
    6446:	7a2db1        	l32r	a11, 0xfffe4cfc
    6449:	7a14c1        	l32r	a12, 0xfffe4c9c
    644c:	0154c2        	s16i	a12, a4, 2
    644f:	fe2bb2        	l32i	a11, a11, 0x3f8
    6452:	0662a7        	bbci	a2, 10, 0x645c
    6455:	0a1c      	movi.n	a10, 16
    6457:	000be0        	excw
    645a:	f01d      	excw
    645c:	2a0c      	movi.n	a10, 2
    645e:	000be0        	excw
    6461:	f01d      	excw
    6463:	413600        	srli	a3, a0, 6
    6466:	738100        	excw
    6469:	827a      	add.n	a8, a2, a7
    646b:	2008      	l32i.n	a0, a0, 8
    646d:	ffa092        	movi	a9, 255
    6470:	031897        	beq	a8, a9, 0x6477
    6473:	120c      	movi.n	a2, 1
    6475:	f01d      	excw
    6477:	02ad      	mov.n	a10, a2
    6479:	03bd      	mov.n	a11, a3
    647b:	7af081        	l32r	a8, 0xfffe503c
    647e:	7a1491        	l32r	a9, 0xfffe4cd0
    6481:	015892        	s16i	a9, a8, 2
    6484:	6888      	l32i.n	a8, a8, 24
    6486:	04cd      	mov.n	a12, a4
    6488:	0008e0        	excw
    648b:	0a2d      	mov.n	a2, a10
    648d:	f01d      	excw
    648f:	413600        	srli	a3, a0, 6
    6492:	7fc100        	excw
    6495:	917a      	add.n	a9, a1, a7
    6497:	7a18      	l32i.n	a1, a10, 28
    6499:	970ca2        	l8ui	a10, a12, 151
    649c:	ffa082        	movi	a8, 255
    649f:	2c1a87        	beq	a10, a8, 0x64cf
    64a2:	4d0992        	l8ui	a9, a9, 77
    64a5:	7a15b1        	l32r	a11, 0xfffe4cfc
    64a8:	698c      	beqz.n	a9, 0x64b2
    64aa:	232b82        	l32i	a8, a11, 140
    64ad:	0008e0        	excw
    64b0:	f01d      	excw
    64b2:	b5cc92        	addi	a9, a12, -75
    64b5:	b09a90        	addx8	a9, a10, a9
    64b8:	800992        	l8ui	a9, a9, 128
    64bb:	222926        	beqi	a9, 2, 0x64e1
    64be:	0f4926        	beqi	a9, 4, 0x64d1
    64c1:	02ad      	mov.n	a10, a2
    64c3:	7af081        	l32r	a8, 0xfffe5084
    64c6:	03bd      	mov.n	a11, a3
    64c8:	7888      	l32i.n	a8, a8, 28
    64ca:	04cd      	mov.n	a12, a4
    64cc:	0008e0        	excw
    64cf:	f01d      	excw
    64d1:	fa1226        	beqi	a2, 1, 0x64cf
    64d4:	293c      	movi.n	a9, 50
    64d6:	f53937        	bltu	a9, a3, 0x64cf
    64d9:	232b82        	l32i	a8, a11, 140
    64dc:	0008e0        	excw
    64df:	f01d      	excw
    64e1:	990c      	movi.n	a9, 9
    64e3:	041297        	beq	a2, a9, 0x64eb
    64e6:	ba0c      	movi.n	a10, 11
    64e8:	e392a7        	bne	a2, a10, 0x64cf
    64eb:	232b82        	l32i	a8, a11, 140
    64ee:	0008e0        	excw
    64f1:	f01d      	excw
    64f3:	413600        	srli	a3, a0, 6
    64f6:	688100        	excw
    64f9:	517a      	add.n	a5, a1, a7
    64fb:	6e          	.byte 0x6e
    64fc:	827a      	add.n	a8, a2, a7
    64fe:	1a28      	l32i.n	a2, a10, 4
    6500:	000552        	l8ui	a5, a5, 0
    6503:	040c      	movi.n	a4, 0
    6505:	558a      	add.n	a5, a5, a8
    6507:	c5bc      	beqz.n	a5, 0x6547
    6509:	01a082        	movi	a8, 1
    650c:	7a3971        	l32r	a7, 0xfffe4df0
    650f:	7a3091        	l32r	a9, 0xfffe4dd0
    6512:	00a022        	movi	a2, 0
    6515:	2c9576        	excw
    6518:	78a162        	movi	a6, 0x178
    651b:	c16460        	mul16u	a6, a4, a6
    651e:	441b      	addi.n	a4, a4, 1
    6520:	676a      	add.n	a6, a7, a6
    6522:	7d0652        	l8ui	a5, a6, 125
    6525:	744040        	extui	a4, a4, 0, 8
    6528:	0e3566        	bnei	a5, 3, 0x653a
    652b:	512662        	l32i	a6, a6, 0x144
    652e:	086617        	bbci	a6, 1, 0x653a
    6531:	05e607        	bbsi	a6, 0, 0x653a
    6534:	202290        	or	a2, a2, a9
    6537:	000206        	j	0x6543
    653a:	401500        	ssl	a5
    653d:	a1a800        	sll	a10, a8
    6540:	2022a0        	or	a2, a2, a10
    6543:	f03d      	nop.n
    6545:	f01d      	excw
    6547:	020c      	movi.n	a2, 0
    6549:	f01d      	excw
    654b:	613600        	excw
    654e:	025d00        	excw
    6551:	7af081        	l32r	a8, 0xfffe5114
    6554:	02ad      	mov.n	a10, a2
    6556:	8888      	l32i.n	a8, a8, 32
    6558:	03bd      	mov.n	a11, a3
    655a:	0008e0        	excw
    655d:	0a2d      	mov.n	a2, a10
    655f:	cacc      	bnez.n	a10, 0x656f
    6561:	7a6e71        	l32r	a7, 0xfffe4f1c
    6564:	000792        	l8ui	a9, a7, 0
    6567:	010742        	l8ui	a4, a7, 1
    656a:	0319e6        	bgei	a9, 1, 0x6571
    656d:	020c      	movi.n	a2, 0
    656f:	f01d      	excw
    6571:	dc0c      	movi.n	a12, 13
    6573:	2c2762        	l32i	a6, a7, 176
    6576:	0159      	s32i.n	a5, a1, 0
    6578:	78a122        	movi	a2, 0x178
    657b:	c12420        	mul16u	a2, a4, a2
    657e:	526a      	add.n	a5, a2, a6
    6580:	0005a2        	l8ui	a10, a5, 0
    6583:	0e1a26        	beqi	a10, 1, 0x6595
    6586:	7aeea1        	l32r	a10, 0xfffe5140
    6589:	0b0c      	movi.n	a11, 0
    658b:	b3af25        	excw
    658e:	2c2762        	l32i	a6, a7, 176
    6591:	dc0c      	movi.n	a12, 13
    6593:	526a      	add.n	a5, a2, a6
    6595:	010582        	l8ui	a8, a5, 1
    6598:	1a98c7        	bne	a8, a12, 0x65b6
    659b:	3dc5a2        	addi	a10, a5, 61
    659e:	01b8      	l32i.n	a11, a1, 0
    65a0:	6c0c      	movi.n	a12, 6
    65a2:	0283a5        	excw
    65a5:	dc0c      	movi.n	a12, 13
    65a7:	bacc      	bnez.n	a10, 0x65b6
    65a9:	5e9592        	l16si	a9, a5, 188
    65ac:	120c      	movi.n	a2, 1
    65ae:	219890        	srai	a9, a9, 8
    65b1:	004392        	s8i	a9, a3, 0
    65b4:	f01d      	excw
    65b6:	0007b2        	l8ui	a11, a7, 0
    65b9:	441b      	addi.n	a4, a4, 1
    65bb:	0107a2        	l8ui	a10, a7, 1
    65be:	744040        	extui	a4, a4, 0, 8
    65c1:	aaba      	add.n	a10, a10, a11
    65c3:	b124a7        	blt	a4, a10, 0x6578
    65c6:	ffe8c6        	j	0x656d
    65c9:	000000        	ill
    65cc:	004136        	excw
    65cf:	7a5981        	l32r	a8, 0xfffe4f34
    65d2:	040882        	l8ui	a8, a8, 4
    65d5:	6a3826        	beqi	a8, 3, 0x6643
    65d8:	03e620        	rsr.ps	a2
    65db:	2b0c      	movi.n	a11, 2
    65dd:	34a020        	extui	a10, a2, 0, 4
    65e0:	022ba7        	blt	a11, a10, 0x65e6
    65e3:	006220        	rsil	a2, 2
    65e6:	7a7391        	l32r	a9, 0xfffe4fb4
    65e9:	5c0992        	l8ui	a9, a9, 92
    65ec:	04b916        	beqz	a9, 0x663b
    65ef:	7a6891        	l32r	a9, 0xfffe4f90
    65f2:	4f29c2        	l32i	a12, a9, 0x13c
    65f5:	395c66        	bnei	a12, 5, 0x6632
    65f8:	dad9b2        	addmi	a11, a9, 0xffffda00
    65fb:	700bb2        	l8ui	a11, a11, 112
    65fe:	7afca1        	l32r	a10, 0xfffe51f0
    6601:	202b66        	bnei	a11, 2, 0x6625
    6604:	840ac2        	l8ui	a12, a10, 132
    6607:	680a92        	l8ui	a9, a10, 104
    660a:	056c07        	bbci	a12, 0, 0x6613
    660d:	215926        	beqi	a9, 5, 0x6632
    6610:	1e7926        	beqi	a9, 7, 0x6632
    6613:	0e2b66        	bnei	a11, 2, 0x6625
    6616:	840ad2        	l8ui	a13, a10, 132
    6619:	680a92        	l8ui	a9, a10, 104
    661c:	056d07        	bbci	a13, 0, 0x6625
    661f:	0f6926        	beqi	a9, 6, 0x6632
    6622:	0c8926        	beqi	a9, 8, 0x6632
    6625:	7ad481        	l32r	a8, 0xfffe5178
    6628:	4a0c      	movi.n	a10, 4
    662a:	152882        	l32i	a8, a8, 84
    662d:	ab1c      	movi.n	a11, 26
    662f:	0008e0        	excw
    6632:	7a2d81        	l32r	a8, 0xfffe4ee8
    6635:	c22882        	l32i	a8, a8, 0x308
    6638:	0008e0        	excw
    663b:	13e620        	wsr.ps	a2
    663e:	002010        	rsync
    6641:	f01d      	excw
    6643:	7af081        	l32r	a8, 0xfffe5204
    6646:	9888      	l32i.n	a8, a8, 36
    6648:	0008e0        	excw
    664b:	f01d      	excw
    664d:	000000        	ill
    6650:	00e136        	excw
    6653:	7a5981        	l32r	a8, 0xfffe4fb8
    6656:	040882        	l8ui	a8, a8, 4
    6659:	fdc882        	addi	a8, a8, -3
    665c:	0be816        	beqz	a8, 0x671e
    665f:	7a2d21        	l32r	a2, 0xfffe4f14
    6662:	c02282        	l32i	a8, a2, 0x300
    6665:	0008e0        	excw
    6668:	7a6831        	l32r	a3, 0xfffe5008
    666b:	7afcc1        	l32r	a12, 0xfffe525c
    666e:	4f2392        	l32i	a9, a3, 0x13c
    6671:	dad3b2        	addmi	a11, a3, 0xffffda00
    6674:	265926        	beqi	a9, 5, 0x669e
    6677:	700bb2        	l8ui	a11, a11, 112
    667a:	2e2b66        	bnei	a11, 2, 0x66ac
    667d:	840cd2        	l8ui	a13, a12, 132
    6680:	680ca2        	l8ui	a10, a12, 104
    6683:	056d07        	bbci	a13, 0, 0x668c
    6686:	145a26        	beqi	a10, 5, 0x669e
    6689:	117a26        	beqi	a10, 7, 0x669e
    668c:	1c2b66        	bnei	a11, 2, 0x66ac
    668f:	840ce2        	l8ui	a14, a12, 132
    6692:	680ca2        	l8ui	a10, a12, 104
    6695:	136e07        	bbci	a14, 0, 0x66ac
    6698:	026a26        	beqi	a10, 6, 0x669e
    669b:	0d8a66        	bnei	a10, 8, 0x66ac
    669e:	7ad481        	l32r	a8, 0xfffe51f0
    66a1:	142882        	l32i	a8, a8, 80
    66a4:	4a0c      	movi.n	a10, 4
    66a6:	0008e0        	excw
    66a9:	4f2392        	l32i	a9, a3, 0x13c
    66ac:	fbc9a2        	addi	a10, a9, -5
    66af:	073a56        	bnez	a10, 0x6726
    66b2:	7afda1        	l32r	a10, 0xfffe52a8
    66b5:	0af8      	l32i.n	a15, a10, 0
    66b7:	1a88      	l32i.n	a8, a10, 4
    66b9:	1189      	s32i.n	a8, a1, 4
    66bb:	01f9      	s32i.n	a15, a1, 0
    66bd:	2ad8      	l32i.n	a13, a10, 8
    66bf:	3ae8      	l32i.n	a14, a10, 12
    66c1:	31e9      	s32i.n	a14, a1, 12
    66c3:	21d9      	s32i.n	a13, a1, 8
    66c5:	4ab8      	l32i.n	a11, a10, 16
    66c7:	5ac8      	l32i.n	a12, a10, 20
    66c9:	51c9      	s32i.n	a12, a1, 20
    66cb:	41b9      	s32i.n	a11, a1, 16
    66cd:	6a88      	l32i.n	a8, a10, 24
    66cf:	7a98      	l32i.n	a9, a10, 28
    66d1:	7199      	s32i.n	a9, a1, 28
    66d3:	6189      	s32i.n	a8, a1, 24
    66d5:	8ae8      	l32i.n	a14, a10, 32
    66d7:	9af8      	l32i.n	a15, a10, 36
    66d9:	91f9      	s32i.n	a15, a1, 36
    66db:	81e9      	s32i.n	a14, a1, 32
    66dd:	aac8      	l32i.n	a12, a10, 40
    66df:	bad8      	l32i.n	a13, a10, 44
    66e1:	b1d9      	s32i.n	a13, a1, 44
    66e3:	a1c9      	s32i.n	a12, a1, 40
    66e5:	ca98      	l32i.n	a9, a10, 48
    66e7:	dab8      	l32i.n	a11, a10, 52
    66e9:	d1b9      	s32i.n	a11, a1, 52
    66eb:	c199      	s32i.n	a9, a1, 48
    66ed:	eaf8      	l32i.n	a15, a10, 56
    66ef:	fa88      	l32i.n	a8, a10, 60
    66f1:	f189      	s32i.n	a8, a1, 60
    66f3:	e1f9      	s32i.n	a15, a1, 56
    66f5:	102ad2        	l32i	a13, a10, 64
    66f8:	112ae2        	l32i	a14, a10, 68
    66fb:	1161e2        	s32i	a14, a1, 68
    66fe:	1061d2        	s32i	a13, a1, 64
    6701:	122ab2        	l32i	a11, a10, 72
    6704:	132ac2        	l32i	a12, a10, 76
    6707:	1361c2        	s32i	a12, a1, 76
    670a:	1261b2        	s32i	a11, a1, 72
    670d:	98caa2        	addi	a10, a10, -104
    6710:	5d0aa2        	l8ui	a10, a10, 93
    6713:	b12282        	l32i	a8, a2, 0x2c4
    6716:	23aa00        	excw
    6719:	0008e0        	excw
    671c:	f01d      	excw
    671e:	7af081        	l32r	a8, 0xfffe52e0
    6721:	a888      	l32i.n	a8, a8, 40
    6723:	0008e0        	excw
    6726:	f01d      	excw
    6728:	00a136        	excw
    672b:	7a15c1        	l32r	a12, 0xfffe4f80
    672e:	ffa0e2        	movi	a14, 255
    6731:	7a7c81        	l32r	a8, 0xfffe5124
    6734:	7afe61        	l32r	a6, 0xfffe532c
    6737:	03ad      	mov.n	a10, a3
    6739:	01a9      	s32i.n	a10, a1, 0
    673b:	7a7731        	l32r	a3, 0xfffe5118
    673e:	f9d652        	addmi	a5, a6, 0xfffff900
    6741:	01d6d2        	addmi	a13, a6, 0x100
    6744:	e0c842        	addi	a4, a8, -32
    6747:	712672        	l32i	a7, a6, 0x1c4
    674a:	210882        	l8ui	a8, a8, 33
    674d:	c07270        	sub	a7, a2, a7
    6750:	107730        	and	a7, a7, a3
    6753:	1177f0        	slli	a7, a7, 1
    6756:	6d18e7        	beq	a8, a14, 0x67c7
    6759:	6a2c82        	l32i	a8, a12, 0x1a8
    675c:	0008e0        	excw
    675f:	7affd1        	l32r	a13, 0xfffe535c
    6762:	ffa0e2        	movi	a14, 255
    6765:	05ea56        	bnez	a10, 0x67c7
    6768:	3d0492        	l8ui	a9, a4, 61
    676b:	05e907        	bbsi	a9, 0, 0x6774
    676e:	e416b2        	l16ui	a11, a6, 0x1c8
    6771:	5227b7        	blt	a7, a11, 0x67c7
    6774:	7b0091        	l32r	a9, 0xfffe5374
    6777:	4104b2        	l8ui	a11, a4, 65
    677a:	78a1c2        	movi	a12, 0x178
    677d:	c1cbc0        	mul16u	a12, a11, a12
    6780:	9c9a      	add.n	a9, a12, a9
    6782:	9c09f2        	l8ui	a15, a9, 156
    6785:	bf8c      	beqz.n	a15, 0x6794
    6787:	2529f2        	l32i	a15, a9, 148
    678a:	ff1b      	addi.n	a15, a15, 1
    678c:	40df56        	bnez	a15, 0x6b9d
    678f:	0f0c      	movi.n	a15, 0
    6791:	010b46        	j	0x6bc2
    6794:	4304a2        	l8ui	a10, a4, 67
    6797:	049ae7        	bne	a10, a14, 0x679f
    679a:	0bad      	mov.n	a10, a11
    679c:	4344b2        	s8i	a11, a4, 67
    679f:	7a7c81        	l32r	a8, 0xfffe5190
    67a2:	78a192        	movi	a9, 0x178
    67a5:	c19a90        	mul16u	a9, a10, a9
    67a8:	889a      	add.n	a8, a8, a9
    67aa:	830882        	l8ui	a8, a8, 131
    67ad:	238800        	excw
    67b0:	0218e6        	bgei	a8, 1, 0x67b6
    67b3:	012346        	j	0x6c44
    67b6:	7a1581        	l32r	a8, 0xfffe500c
    67b9:	6d2882        	l32i	a8, a8, 0x1b4
    67bc:	4b0c      	movi.n	a11, 4
    67be:	0008e0        	excw
    67c1:	7affd1        	l32r	a13, 0xfffe53c0
    67c4:	ffa0e2        	movi	a14, 255
    67c7:	400472        	l8ui	a7, a4, 64
    67ca:	7b0121        	l32r	a2, 0xfffe53d0
    67cd:	c0b7e0        	sub	a11, a7, a14
    67d0:	330b16        	beqz	a11, 0x6b04
    67d3:	78a1c2        	movi	a12, 0x178
    67d6:	c1c7c0        	mul16u	a12, a7, a12
    67d9:	fdc2b2        	addi	a11, a2, -3
    67dc:	bcba      	add.n	a11, a12, a11
    67de:	6b0bf2        	l8ui	a15, a11, 107
    67e1:	7b0231        	l32r	a3, 0xfffe53ec
    67e4:	3fec      	bnez.n	a15, 0x680b
    67e6:	4e0582        	l8ui	a8, a5, 78
    67e9:	e8dc      	bnez.n	a8, 0x680b
    67eb:	830b92        	l8ui	a9, a11, 131
    67ee:	239900        	excw
    67f1:	0819e6        	bgei	a9, 1, 0x67fd
    67f4:	820b82        	l8ui	a8, a11, 130
    67f7:	238800        	excw
    67fa:	0d18a6        	blti	a8, 1, 0x680b
    67fd:	1588      	l32i.n	a8, a5, 4
    67ff:	602b92        	l32i	a9, a11, 0x180
    6802:	418180        	srli	a8, a8, 1
    6805:	c09980        	sub	a9, a9, a8
    6808:	40b916        	beqz	a9, 0x6c17
    680b:	051f66        	bnei	a15, 1, 0x6814
    680e:	c61b92        	l16ui	a9, a11, 0x18c
    6811:	402916        	beqz	a9, 0x6c17
    6814:	0b0c      	movi.n	a11, 0
    6816:	11b9      	s32i.n	a11, a1, 4
    6818:	78a192        	movi	a9, 0x178
    681b:	c19790        	mul16u	a9, a7, a9
    681e:	393a      	add.n	a3, a9, a3
    6820:	8d03c2        	l8ui	a12, a3, 141
    6823:	7a6fa1        	l32r	a10, 0xfffe51e0
    6826:	050c16        	beqz	a12, 0x687a
    6829:	7a57c1        	l32r	a12, 0xfffe5188
    682c:	0020c0        	memw
    682f:	422cc2        	l32i	a12, a12, 0x108
    6832:	29aa      	add.n	a2, a9, a10
    6834:	34c0c0        	extui	a12, a12, 0, 4
    6837:	2a8c26        	beqi	a12, 8, 0x6865
    683a:	6702f2        	l8ui	a15, a2, 103
    683d:	1f1f66        	bnei	a15, 1, 0x6860
    6840:	bc0582        	l8ui	a8, a5, 188
    6843:	989c      	beqz.n	a8, 0x6860
    6845:	7a1181        	l32r	a8, 0xfffe508c
    6848:	912882        	l32i	a8, a8, 0x244
    684b:	07ad      	mov.n	a10, a7
    684d:	0008e0        	excw
    6850:	7affd1        	l32r	a13, 0xfffe544c
    6853:	ffa0e2        	movi	a14, 255
    6856:	190c      	movi.n	a9, 1
    6858:	0c0c      	movi.n	a12, 0
    685a:	83c9a0        	moveqz	a12, a9, a10
    685d:	000186        	j	0x6867
    6860:	0c0c      	movi.n	a12, 0
    6862:	000046        	j	0x6867
    6865:	0c0c      	movi.n	a12, 0
    6867:	7490c0        	extui	a9, a12, 0, 8
    686a:	7f02f2        	l8ui	a15, a2, 127
    686d:	1c0c      	movi.n	a12, 1
    686f:	23ff00        	excw
    6872:	081fe6        	bgei	a15, 1, 0x687e
    6875:	09cd      	mov.n	a12, a9
    6877:	0000c6        	j	0x687e
    687a:	29aa      	add.n	a2, a9, a10
    687c:	0c0c      	movi.n	a12, 0
    687e:	ba0c      	movi.n	a10, 11
    6880:	e61692        	l16ui	a9, a6, 0x1cc
    6883:	401700        	ssl	a7
    6886:	1b0c      	movi.n	a11, 1
    6888:	a1bb00        	sll	a11, a11
    688b:	61b9      	s32i.n	a11, a1, 24
    688d:	2099b0        	or	a9, a9, a11
    6890:	665d92        	s16i	a9, a13, 204
    6893:	7f0282        	l8ui	a8, a2, 127
    6896:	7a7fb1        	l32r	a11, 0xfffe5294
    6899:	238800        	excw
    689c:	7c18a6        	blti	a8, 1, 0x691c
    689f:	c70b82        	l8ui	a8, a11, 199
    68a2:	489877        	bne	a8, a7, 0x68ee
    68a5:	0198      	l32i.n	a9, a1, 0
    68a7:	43e997        	bbsi	a9, 9, 0x68ee
    68aa:	7e02b2        	l8ui	a11, a2, 126
    68ad:	23bb00        	excw
    68b0:	3a1be6        	bgei	a11, 1, 0x68ee
    68b3:	ba0582        	l8ui	a8, a5, 186
    68b6:	7605f2        	l8ui	a15, a5, 118
    68b9:	313f87        	bltu	a15, a8, 0x68ee
    68bc:	670292        	l8ui	a9, a2, 103
    68bf:	2b1966        	bnei	a9, 1, 0x68ee
    68c2:	7705f2        	l8ui	a15, a5, 119
    68c5:	3e13b2        	l16ui	a11, a3, 124
    68c8:	f4f1f0        	extui	a15, a15, 1, 16
    68cb:	1f3bf7        	bltu	a11, a15, 0x68ee
    68ce:	212382        	l32i	a8, a3, 132
    68d1:	81c9      	s32i.n	a12, a1, 32
    68d3:	1798a7        	bne	a8, a10, 0x68ee
    68d6:	7a1581        	l32r	a8, 0xfffe512c
    68d9:	742882        	l32i	a8, a8, 0x1d0
    68dc:	07ad      	mov.n	a10, a7
    68de:	0008e0        	excw
    68e1:	81c8      	l32i.n	a12, a1, 32
    68e3:	7affd1        	l32r	a13, 0xfffe54e0
    68e6:	ffa0e2        	movi	a14, 255
    68e9:	ba0c      	movi.n	a10, 11
    68eb:	000a06        	j	0x6917
    68ee:	4a0492        	l8ui	a9, a4, 74
    68f1:	29ac      	beqz.n	a9, 0x6917
    68f3:	8d03b2        	l8ui	a11, a3, 141
    68f6:	2b9c      	beqz.n	a11, 0x690c
    68f8:	15f8      	l32i.n	a15, a5, 4
    68fa:	ca1282        	l16ui	a8, a2, 0x194
    68fd:	e4f1f0        	extui	a15, a15, 1, 15
    6900:	c0ff80        	sub	a15, a15, a8
    6903:	2d1582        	l16ui	a8, a5, 90
    6906:	e4f0f0        	extui	a15, a15, 0, 15
    6909:	0abf87        	bgeu	a15, a8, 0x6917
    690c:	6198      	l32i.n	a9, a1, 24
    690e:	e71682        	l16ui	a8, a6, 0x1ce
    6911:	208890        	or	a8, a8, a9
    6914:	675d82        	s16i	a8, a13, 206
    6917:	070c      	movi.n	a7, 0
    6919:	001786        	j	0x697b
    691c:	4a04b2        	l8ui	a11, a4, 74
    691f:	9b8c      	beqz.n	a11, 0x692c
    6921:	6188      	l32i.n	a8, a1, 24
    6923:	e716f2        	l16ui	a15, a6, 0x1ce
    6926:	20ff80        	or	a15, a15, a8
    6929:	675df2        	s16i	a15, a13, 206
    692c:	670292        	l8ui	a9, a2, 103
    692f:	3b1966        	bnei	a9, 1, 0x696e
    6932:	7e02b2        	l8ui	a11, a2, 126
    6935:	23bb00        	excw
    6938:	321be6        	bgei	a11, 1, 0x696e
    693b:	8702f2        	l8ui	a15, a2, 135
    693e:	cfec      	bnez.n	a15, 0x696e
    6940:	81c9      	s32i.n	a12, a1, 32
    6942:	7705b2        	l8ui	a11, a5, 119
    6945:	c412f2        	l16ui	a15, a2, 0x188
    6948:	118bf0        	slli	a8, a11, 1
    694b:	0aaf87        	bge	a15, a8, 0x6959
    694e:	642292        	l32i	a9, a2, 0x190
    6951:	1999a7        	bne	a9, a10, 0x696e
    6954:	81c9      	s32i.n	a12, a1, 32
    6956:	143fb7        	bltu	a15, a11, 0x696e
    6959:	7a1581        	l32r	a8, 0xfffe51b0
    695c:	742882        	l32i	a8, a8, 0x1d0
    695f:	07ad      	mov.n	a10, a7
    6961:	0008e0        	excw
    6964:	81c8      	l32i.n	a12, a1, 32
    6966:	7affd1        	l32r	a13, 0xfffe5564
    6969:	ffa0e2        	movi	a14, 255
    696c:	ba0c      	movi.n	a10, 11
    696e:	190c      	movi.n	a9, 1
    6970:	6422b2        	l32i	a11, a2, 0x190
    6973:	070c      	movi.n	a7, 0
    6975:	f7cbb2        	addi	a11, a11, -9
    6978:	8379b0        	moveqz	a7, a9, a11
    697b:	7a1481        	l32r	a8, 0xfffe51cc
    697e:	e916f2        	l16ui	a15, a6, 0x1d2
    6981:	81c9      	s32i.n	a12, a1, 32
    6983:	119f87        	bne	a15, a8, 0x6998
    6986:	7aeea1        	l32r	a10, 0xfffe5540
    6989:	0b0c      	movi.n	a11, 0
    698b:	b36f25        	excw
    698e:	81c8      	l32i.n	a12, a1, 32
    6990:	7affd1        	l32r	a13, 0xfffe558c
    6993:	ffa0e2        	movi	a14, 255
    6996:	ba0c      	movi.n	a10, 11
    6998:	4b04f2        	l8ui	a15, a4, 75
    699b:	790592        	l8ui	a9, a5, 121
    699e:	5f9c      	beqz.n	a15, 0x69b7
    69a0:	2123b2        	l32i	a11, a3, 132
    69a3:	13bf97        	bgeu	a15, a9, 0x69ba
    69a6:	101ba7        	beq	a11, a10, 0x69ba
    69a9:	980c      	movi.n	a8, 9
    69ab:	0b1b87        	beq	a11, a8, 0x69ba
    69ae:	f1cb92        	addi	a9, a11, -15
    69b1:	129956        	bnez	a9, 0x6ade
    69b4:	000086        	j	0x69ba
    69b7:	2123b2        	l32i	a11, a3, 132
    69ba:	e91682        	l16ui	a8, a6, 0x1d2
    69bd:	15f8      	l32i.n	a15, a5, 4
    69bf:	2815a2        	l16ui	a10, a5, 80
    69c2:	41a9      	s32i.n	a10, a1, 16
    69c4:	41a1a0        	srli	a10, a10, 1
    69c7:	4191f0        	srli	a9, a15, 1
    69ca:	2199      	s32i.n	a9, a1, 8
    69cc:	e4f1f0        	extui	a15, a15, 1, 15
    69cf:	c0ff80        	sub	a15, a15, a8
    69d2:	1c2392        	l32i	a9, a3, 112
    69d5:	3199      	s32i.n	a9, a1, 12
    69d7:	e4f0f0        	extui	a15, a15, 0, 15
    69da:	7f0282        	l8ui	a8, a2, 127
    69dd:	51f9      	s32i.n	a15, a1, 20
    69df:	238800        	excw
    69e2:	0818e6        	bgei	a8, 1, 0x69ee
    69e5:	7e0282        	l8ui	a8, a2, 126
    69e8:	238800        	excw
    69eb:	1018a6        	blti	a8, 1, 0x69ff
    69ee:	b90c      	movi.n	a9, 11
    69f0:	091b97        	beq	a11, a9, 0x69fd
    69f3:	980c      	movi.n	a8, 9
    69f5:	041b87        	beq	a11, a8, 0x69fd
    69f8:	f90c      	movi.n	a9, 15
    69fa:	019b97        	bne	a11, a9, 0x69ff
    69fd:	170c      	movi.n	a7, 1
    69ff:	f7cb82        	addi	a8, a11, -9
    6a02:	190c      	movi.n	a9, 1
    6a04:	747070        	extui	a7, a7, 0, 8
    6a07:	837980        	moveqz	a7, a9, a8
    6a0a:	8d0382        	l8ui	a8, a3, 141
    6a0d:	b8fc      	bnez.n	a8, 0x6a4c
    6a0f:	7a7f91        	l32r	a9, 0xfffe540c
    6a12:	ca0992        	l8ui	a9, a9, 202
    6a15:	39bc      	beqz.n	a9, 0x6a4c
    6a17:	7a7f81        	l32r	a8, 0xfffe5414
    6a1a:	7b01b1        	l32r	a11, 0xfffe5620
    6a1d:	cb0882        	l8ui	a8, a8, 203
    6a20:	78a192        	movi	a9, 0x178
    6a23:	c18890        	mul16u	a8, a8, a9
    6a26:	bb8a      	add.n	a11, a11, a8
    6a28:	800bb2        	l8ui	a11, a11, 128
    6a2b:	23bb00        	excw
    6a2e:	041ba6        	blti	a11, 1, 0x6a36
    6a31:	0a0c      	movi.n	a10, 0
    6a33:	000546        	j	0x6a4c
    6a36:	71f9      	s32i.n	a15, a1, 28
    6a38:	ba05b2        	l8ui	a11, a5, 186
    6a3b:	81c9      	s32i.n	a12, a1, 32
    6a3d:	bb8c      	beqz.n	a11, 0x6a4c
    6a3f:	022de5        	excw
    6a42:	81c8      	l32i.n	a12, a1, 32
    6a44:	7affd1        	l32r	a13, 0xfffe5640
    6a47:	ffa0e2        	movi	a14, 255
    6a4a:	71f8      	l32i.n	a15, a1, 28
    6a4c:	5198      	l32i.n	a9, a1, 20
    6a4e:	1aba97        	bgeu	a10, a9, 0x6a6c
    6a51:	11b8      	l32i.n	a11, a1, 4
    6a53:	5b9c      	beqz.n	a11, 0x6a6c
    6a55:	670282        	l8ui	a8, a2, 103
    6a58:	08dc      	bnez.n	a8, 0x6a6c
    6a5a:	700592        	l8ui	a9, a5, 112
    6a5d:	b9cc      	bnez.n	a9, 0x6a6c
    6a5f:	0f0c      	movi.n	a15, 0
    6a61:	7a03b2        	l8ui	a11, a3, 122
    6a64:	480c      	movi.n	a8, 4
    6a66:	20bb80        	or	a11, a11, a8
    6a69:	7a43b2        	s8i	a11, a3, 122
    6a6c:	293af7        	bltu	a10, a15, 0x6a99
    6a6f:	066756        	bnez	a7, 0x6ad9
    6a72:	1198      	l32i.n	a9, a1, 4
    6a74:	061956        	bnez	a9, 0x6ad9
    6a77:	6702b2        	l8ui	a11, a2, 103
    6a7a:	141b26        	beqi	a11, 1, 0x6a92
    6a7d:	31b8      	l32i.n	a11, a1, 12
    6a7f:	2198      	l32i.n	a9, a1, 8
    6a81:	c099b0        	sub	a9, a9, a11
    6a84:	7a77b1        	l32r	a11, 0xfffe5460
    6a87:	4188      	l32i.n	a8, a1, 16
    6a89:	1099b0        	and	a9, a9, a11
    6a8c:	1199f0        	slli	a9, a9, 1
    6a8f:	463897        	bltu	a8, a9, 0x6ad9
    6a92:	3c8c      	beqz.n	a12, 0x6a99
    6a94:	ac0c      	movi.n	a12, 10
    6a96:	3fbcf7        	bgeu	a12, a15, 0x6ad9
    6a99:	4004a2        	l8ui	a10, a4, 64
    6a9c:	2e1ae7        	beq	a10, a14, 0x6ace
    6a9f:	7b0381        	l32r	a8, 0xfffe56ac
    6aa2:	78a192        	movi	a9, 0x178
    6aa5:	c19a90        	mul16u	a9, a10, a9
    6aa8:	889a      	add.n	a8, a8, a9
    6aaa:	760882        	l8ui	a8, a8, 118
    6aad:	404482        	s8i	a8, a4, 64
    6ab0:	6702f2        	l8ui	a15, a2, 103
    6ab3:	7fdc      	bnez.n	a15, 0x6ace
    6ab5:	7705c2        	l8ui	a12, a5, 119
    6ab8:	c412b2        	l16ui	a11, a2, 0x188
    6abb:	0f3bc7        	bltu	a11, a12, 0x6ace
    6abe:	6198      	l32i.n	a9, a1, 24
    6ac0:	e71682        	l16ui	a8, a6, 0x1ce
    6ac3:	0f0c      	movi.n	a15, 0
    6ac5:	208890        	or	a8, a8, a9
    6ac8:	675d82        	s16i	a8, a13, 206
    6acb:	c452f2        	s16i	a15, a2, 0x188
    6ace:	7a14b1        	l32r	a11, 0xfffe5320
    6ad1:	0c0c      	movi.n	a12, 0
    6ad3:	4a44c2        	s8i	a12, a4, 74
    6ad6:	695db2        	s16i	a11, a13, 210
    6ad9:	0f0c      	movi.n	a15, 0
    6adb:	4b44f2        	s8i	a15, a4, 75
    6ade:	11b8      	l32i.n	a11, a1, 4
    6ae0:	4004a2        	l8ui	a10, a4, 64
    6ae3:	3f8c      	beqz.n	a15, 0x6aea
    6ae5:	ff1b      	addi.n	a15, a15, 1
    6ae7:	4b44f2        	s8i	a15, a4, 75
    6aea:	93fbb0        	movnez	a15, a11, a11
    6aed:	4b44f2        	s8i	a15, a4, 75
    6af0:	101ae7        	beq	a10, a14, 0x6b04
    6af3:	9b1c      	movi.n	a11, 25
    6af5:	091ae7        	beq	a10, a14, 0x6b02
    6af8:	ff3725        	excw
    6afb:	1d0c      	movi.n	a13, 1
    6afd:	3c44d2        	s8i	a13, a4, 60
    6b00:	f01d      	excw
    6b02:	f01d      	excw
    6b04:	3e04a2        	l8ui	a10, a4, 62
    6b07:	0f0c      	movi.n	a15, 0
    6b09:	7a1481        	l32r	a8, 0xfffe535c
    6b0c:	695d82        	s16i	a8, a13, 210
    6b0f:	4a44f2        	s8i	a15, a4, 74
    6b12:	4b44f2        	s8i	a15, a4, 75
    6b15:	4044a2        	s8i	a10, a4, 64
    6b18:	4a1ae7        	beq	a10, a14, 0x6b66
    6b1b:	7b0091        	l32r	a9, 0xfffe571c
    6b1e:	78a1c2        	movi	a12, 0x178
    6b21:	c1cac0        	mul16u	a12, a10, a12
    6b24:	9c9a      	add.n	a9, a12, a9
    6b26:	610992        	l8ui	a9, a9, 97
    6b29:	0e5916        	beqz	a9, 0x6c12
    6b2c:	8f05f2        	l8ui	a15, a5, 143
    6b2f:	af9c      	beqz.n	a15, 0x6b4d
    6b31:	960592        	l8ui	a9, a5, 150
    6b34:	ba0582        	l8ui	a8, a5, 186
    6b37:	5db897        	bgeu	a8, a9, 0x6b98
    6b3a:	7b01b1        	l32r	a11, 0xfffe5740
    6b3d:	bcba      	add.n	a11, a12, a11
    6b3f:	800bb2        	l8ui	a11, a11, 128
    6b42:	23bb00        	excw
    6b45:	04fb16        	beqz	a11, 0x6b98
    6b48:	120c      	movi.n	a2, 1
    6b4a:	000046        	j	0x6b4f
    6b4d:	020c      	movi.n	a2, 0
    6b4f:	7a1581        	l32r	a8, 0xfffe53a4
    6b52:	6a2882        	l32i	a8, a8, 0x1a8
    6b55:	0008e0        	excw
    6b58:	7affd1        	l32r	a13, 0xfffe5754
    6b5b:	ffa0e2        	movi	a14, 255
    6b5e:	190c      	movi.n	a9, 1
    6b60:	9329a0        	movnez	a2, a9, a10
    6b63:	000046        	j	0x6b68
    6b66:	020c      	movi.n	a2, 0
    6b68:	f2dc      	bnez.n	a2, 0x6b8b
    6b6a:	e616b2        	l16ui	a11, a6, 0x1cc
    6b6d:	15a8      	l32i.n	a10, a5, 4
    6b6f:	e716c2        	l16ui	a12, a6, 0x1ce
    6b72:	e4a1a0        	extui	a10, a10, 1, 15
    6b75:	10ccb0        	and	a12, a12, a11
    6b78:	c0bbc0        	sub	a11, a11, a12
    6b7b:	0aeb56        	bnez	a11, 0x6c2d
    6b7e:	0f0c      	movi.n	a15, 0
    6b80:	675df2        	s16i	a15, a13, 206
    6b83:	685da2        	s16i	a10, a13, 208
    6b86:	0b5c      	movi.n	a11, 80
    6b88:	000046        	j	0x6b8d
    6b8b:	9b1c      	movi.n	a11, 25
    6b8d:	4004a2        	l8ui	a10, a4, 64
    6b90:	080c      	movi.n	a8, 0
    6b92:	665d82        	s16i	a8, a13, 204
    6b95:	ffd706        	j	0x6af5
    6b98:	020c      	movi.n	a2, 0
    6b9a:	ffec46        	j	0x6b4f
    6b9d:	0bad      	mov.n	a10, a11
    6b9f:	ff26a5        	excw
    6ba2:	7affd1        	l32r	a13, 0xfffe57a0
    6ba5:	7b0091        	l32r	a9, 0xfffe57a8
    6ba8:	4104b2        	l8ui	a11, a4, 65
    6bab:	78a1c2        	movi	a12, 0x178
    6bae:	c1cbc0        	mul16u	a12, a11, a12
    6bb1:	ffa0e2        	movi	a14, 255
    6bb4:	9c9a      	add.n	a9, a12, a9
    6bb6:	252992        	l32i	a9, a9, 148
    6bb9:	7a2481        	l32r	a8, 0xfffe544c
    6bbc:	c0fa90        	sub	a15, a10, a9
    6bbf:	10ff80        	and	a15, a15, a8
    6bc2:	491582        	l16ui	a8, a5, 146
    6bc5:	02bf87        	bgeu	a15, a8, 0x6bcb
    6bc8:	fef206        	j	0x6794
    6bcb:	8f0592        	l8ui	a9, a5, 143
    6bce:	bc2916        	beqz	a9, 0x6794
    6bd1:	7b0491        	l32r	a9, 0xfffe57e4
    6bd4:	ac9a      	add.n	a10, a12, a9
    6bd6:	f80aa2        	l8ui	a10, a10, 248
    6bd9:	0b3d      	mov.n	a3, a11
    6bdb:	f23a16        	beqz	a10, 0x6b02
    6bde:	7a0751        	l32r	a5, 0xfffe53fc
    6be1:	78a142        	movi	a4, 0x178
    6be4:	c14b40        	mul16u	a4, a11, a4
    6be7:	298b      	addi.n	a2, a9, 8
    6be9:	242a      	add.n	a2, a4, a2
    6beb:	449a      	add.n	a4, a4, a9
    6bed:	132582        	l32i	a8, a5, 76
    6bf0:	32a8      	l32i.n	a10, a2, 12
    6bf2:	0008e0        	excw
    6bf5:	7a1581        	l32r	a8, 0xfffe544c
    6bf8:	0abd      	mov.n	a11, a10
    6bfa:	f00292        	l8ui	a9, a2, 240
    6bfd:	03ad      	mov.n	a10, a3
    6bff:	990b      	addi.n	a9, a9, -1
    6c01:	542882        	l32i	a8, a8, 0x150
    6c04:	f04292        	s8i	a9, a2, 240
    6c07:	0008e0        	excw
    6c0a:	f80492        	l8ui	a9, a4, 248
    6c0d:	fdc956        	bnez	a9, 0x6bed
    6c10:	f01d      	excw
    6c12:	020c      	movi.n	a2, 0
    6c14:	ffd406        	j	0x6b68
    6c17:	bfcc      	bnez.n	a15, 0x6c26
    6c19:	7b03f1        	l32r	a15, 0xfffe5828
    6c1c:	fcfa      	add.n	a15, a12, a15
    6c1e:	880fb2        	l8ui	a11, a15, 136
    6c21:	bb1b      	addi.n	a11, a11, 1
    6c23:	884fb2        	s8i	a11, a15, 136
    6c26:	180c      	movi.n	a8, 1
    6c28:	1189      	s32i.n	a8, a1, 4
    6c2a:	fefa86        	j	0x6818
    6c2d:	e816b2        	l16ui	a11, a6, 0x1d0
    6c30:	78a092        	movi	a9, 120
    6c33:	c0bab0        	sub	a11, a10, a11
    6c36:	e4b0b0        	extui	a11, a11, 0, 15
    6c39:	02b9b7        	bgeu	a9, a11, 0x6c3f
    6c3c:	ffd0c6        	j	0x6b83
    6c3f:	9b1c      	movi.n	a11, 25
    6c41:	ffd206        	j	0x6b8d
    6c44:	3d04b2        	l8ui	a11, a4, 61
    6c47:	3eeb07        	bbsi	a11, 0, 0x6c89
    6c4a:	e416c2        	l16ui	a12, a6, 0x1c8
    6c4d:	2815a2        	l16ui	a10, a5, 80
    6c50:	11ccf0        	slli	a12, a12, 1
    6c53:	f4c0c0        	extui	a12, a12, 0, 16
    6c56:	645dc2        	s16i	a12, a13, 200
    6c59:	163ca7        	bltu	a12, a10, 0x6c73
    6c5c:	7a3a81        	l32r	a8, 0xfffe5544
    6c5f:	3888      	l32i.n	a8, a8, 12
    6c61:	645da2        	s16i	a10, a13, 200
    6c64:	0008e0        	excw
    6c67:	ffa0e2        	movi	a14, 255
    6c6a:	1490a0        	extui	a9, a10, 0, 2
    6c6d:	3d04b2        	l8ui	a11, a4, 61
    6c70:	000046        	j	0x6c75
    6c73:	090c      	movi.n	a9, 0
    6c75:	4304a2        	l8ui	a10, a4, 67
    6c78:	1d0c      	movi.n	a13, 1
    6c7a:	c0c290        	sub	a12, a2, a9
    6c7d:	10cc30        	and	a12, a12, a3
    6c80:	20dbd0        	or	a13, a11, a13
    6c83:	3d44d2        	s8i	a13, a4, 61
    6c86:	7166c2        	s32i	a12, a6, 0x1c4
    6c89:	0a2d      	mov.n	a2, a10
    6c8b:	c0fae0        	sub	a15, a10, a14
    6c8e:	e70f16        	beqz	a15, 0x6b02
    6c91:	281582        	l16ui	a8, a5, 80
    6c94:	908880        	addx2	a8, a8, a8
    6c97:	14a787        	bge	a7, a8, 0x6caf
    6c9a:	7b0391        	l32r	a9, 0xfffe58a8
    6c9d:	78a1b2        	movi	a11, 0x178
    6ca0:	c1bab0        	mul16u	a11, a10, a11
    6ca3:	99ba      	add.n	a9, a9, a11
    6ca5:	8a0992        	l8ui	a9, a9, 138
    6ca8:	39cc      	bnez.n	a9, 0x6caf
    6caa:	0b5c      	movi.n	a11, 80
    6cac:	000046        	j	0x6cb1
    6caf:	9b1c      	movi.n	a11, 25
    6cb1:	ff1ba5        	excw
    6cb4:	7b02c1        	l32r	a12, 0xfffe58bc
    6cb7:	78a1d2        	movi	a13, 0x178
    6cba:	c1d2d0        	mul16u	a13, a2, a13
    6cbd:	1e0c      	movi.n	a14, 1
    6cbf:	ccda      	add.n	a12, a12, a13
    6cc1:	ffa0d2        	movi	a13, 255
    6cc4:	790cc2        	l8ui	a12, a12, 121
    6cc7:	3c44e2        	s8i	a14, a4, 60
    6cca:	4344c2        	s8i	a12, a4, 67
    6ccd:	c0ccd0        	sub	a12, a12, a13
    6cd0:	e2ec56        	bnez	a12, 0x6b02
    6cd3:	3d04e2        	l8ui	a14, a4, 61
    6cd6:	fea0f2        	movi	a15, 254
    6cd9:	10eef0        	and	a14, a14, a15
    6cdc:	3d44e2        	s8i	a14, a4, 61
    6cdf:	f01d      	excw
    6ce1:	000000        	ill
    6ce4:	006136        	excw
    6ce7:	0c0c      	movi.n	a12, 0
    6ce9:	7a1551        	l32r	a5, 0xfffe5540
    6cec:	7b06d1        	l32r	a13, 0xfffe5904
    6cef:	181c      	movi.n	a8, 17
    6cf1:	03ad      	mov.n	a10, a3
    6cf3:	7a1871        	l32r	a7, 0xfffe5554
    6cf6:	78a162        	movi	a6, 0x178
    6cf9:	c16260        	mul16u	a6, a2, a6
    6cfc:	17b8      	l32i.n	a11, a7, 4
    6cfe:	09d742        	addmi	a4, a7, 0x900
    6d01:	464a      	add.n	a4, a6, a4
    6d03:	4d6432        	s32i	a3, a4, 0x134
    6d06:	41b1b0        	srli	a11, a11, 1
    6d09:	7b0531        	l32r	a3, 0xfffe5920
    6d0c:	3fba87        	bgeu	a10, a8, 0x6d4f
    6d0f:	11a9      	s32i.n	a10, a1, 4
    6d11:	7b0791        	l32r	a9, 0xfffe5930
    6d14:	908aa0        	addx2	a8, a10, a10
    6d17:	889a      	add.n	a8, a8, a9
    6d19:	0008a0        	jx	a8
    6d1c:	000bc6        	j	0x6d4f
    6d1f:	000b06        	j	0x6d4f
    6d22:	000ac6        	j	0x6d51
    6d25:	000d46        	j	0x6d5e
    6d28:	009086        	j	0x6f6e
    6d2b:	008fc6        	j	0x6f6e
    6d2e:	000746        	j	0x6d4f
    6d31:	000686        	j	0x6d4f
    6d34:	0005c6        	j	0x6d4f
    6d37:	007646        	j	0x6f14
    6d3a:	004546        	j	0x6e53
    6d3d:	003c46        	j	0x6e32
    6d40:	002686        	j	0x6dde
    6d43:	0025c6        	j	0x6dde
    6d46:	002206        	j	0x6dd2
    6d49:	001e46        	j	0x6dc6
    6d4c:	001746        	j	0x6dad
    6d4f:	f01d      	excw
    6d51:	a73a      	add.n	a10, a7, a3
    6d53:	c92582        	l32i	a8, a5, 0x324
    6d56:	a6aa      	add.n	a10, a6, a10
    6d58:	0008e0        	excw
    6d5b:	7b06d1        	l32r	a13, 0xfffe5974
    6d5e:	b6da      	add.n	a11, a6, a13
    6d60:	6c0bb2        	l8ui	a11, a11, 108
    6d63:	8bcc      	bnez.n	a11, 0x6d6f
    6d65:	02bd      	mov.n	a11, a2
    6d67:	662582        	l32i	a8, a5, 0x198
    6d6a:	1a0c      	movi.n	a10, 1
    6d6c:	0008e0        	excw
    6d6f:	c22582        	l32i	a8, a5, 0x308
    6d72:	090c      	movi.n	a9, 0
    6d74:	965492        	s16i	a9, a4, 0x12c
    6d77:	975492        	s16i	a9, a4, 0x12e
    6d7a:	0008e0        	excw
    6d7d:	c42582        	l32i	a8, a5, 0x310
    6d80:	0008e0        	excw
    6d83:	7b0891        	l32r	a9, 0xfffe59a4
    6d86:	2998      	l32i.n	a9, a9, 8
    6d88:	149090        	extui	a9, a9, 0, 2
    6d8b:	39dc      	bnez.n	a9, 0x6da2
    6d8d:	7b0991        	l32r	a9, 0xfffe59b4
    6d90:	b20992        	l8ui	a9, a9, 178
    6d93:	0b6907        	bbci	a9, 0, 0x6da2
    6d96:	026977        	bbci	a9, 7, 0x6d9c
    6d99:	056967        	bbci	a9, 6, 0x6da2
    6d9c:	cc2582        	l32i	a8, a5, 0x330
    6d9f:	0008e0        	excw
    6da2:	7a5581        	l32r	a8, 0xfffe56f8
    6da5:	142882        	l32i	a8, a8, 80
    6da8:	0008e0        	excw
    6dab:	f01d      	excw
    6dad:	7a14a1        	l32r	a10, 0xfffe5600
    6db0:	07d792        	addmi	a9, a7, 0x700
    6db3:	e91992        	l16ui	a9, a9, 0x1d2
    6db6:	9599a7        	bne	a9, a10, 0x6d4f
    6db9:	17a8      	l32i.n	a10, a7, 4
    6dbb:	08d7b2        	addmi	a11, a7, 0x800
    6dbe:	e4a1a0        	extui	a10, a10, 1, 15
    6dc1:	695ba2        	s16i	a10, a11, 210
    6dc4:	f01d      	excw
    6dc6:	a73a      	add.n	a10, a7, a3
    6dc8:	c92582        	l32i	a8, a5, 0x324
    6dcb:	a6aa      	add.n	a10, a6, a10
    6dcd:	0008e0        	excw
    6dd0:	f01d      	excw
    6dd2:	a73a      	add.n	a10, a7, a3
    6dd4:	c92582        	l32i	a8, a5, 0x324
    6dd7:	a6aa      	add.n	a10, a6, a10
    6dd9:	0008e0        	excw
    6ddc:	f01d      	excw
    6dde:	1b0c      	movi.n	a11, 1
    6de0:	0a3d      	mov.n	a3, a10
    6de2:	672582        	l32i	a8, a5, 0x19c
    6de5:	02ad      	mov.n	a10, a2
    6de7:	0008e0        	excw
    6dea:	c22582        	l32i	a8, a5, 0x308
    6ded:	0008e0        	excw
    6df0:	c42582        	l32i	a8, a5, 0x310
    6df3:	0008e0        	excw
    6df6:	7b0891        	l32r	a9, 0xfffe5a18
    6df9:	2998      	l32i.n	a9, a9, 8
    6dfb:	149090        	extui	a9, a9, 0, 2
    6dfe:	39dc      	bnez.n	a9, 0x6e15
    6e00:	7b0991        	l32r	a9, 0xfffe5a24
    6e03:	b20992        	l8ui	a9, a9, 178
    6e06:	0b6907        	bbci	a9, 0, 0x6e15
    6e09:	026977        	bbci	a9, 7, 0x6e0f
    6e0c:	056967        	bbci	a9, 6, 0x6e15
    6e0f:	cc2582        	l32i	a8, a5, 0x330
    6e12:	0008e0        	excw
    6e15:	f4c392        	addi	a9, a3, -12
    6e18:	f33956        	bnez	a9, 0x6d4f
    6e1b:	7b06a1        	l32r	a10, 0xfffe5a34
    6e1e:	a6aa      	add.n	a10, a6, a10
    6e20:	940aa2        	l8ui	a10, a10, 148
    6e23:	f28a16        	beqz	a10, 0x6d4f
    6e26:	7a5581        	l32r	a8, 0xfffe577c
    6e29:	c888      	l32i.n	a8, a8, 48
    6e2b:	02ad      	mov.n	a10, a2
    6e2d:	0008e0        	excw
    6e30:	f01d      	excw
    6e32:	4e0792        	l8ui	a9, a7, 78
    6e35:	061926        	beqi	a9, 1, 0x6e3f
    6e38:	a6da      	add.n	a10, a6, a13
    6e3a:	790aa2        	l8ui	a10, a10, 121
    6e3d:	3a8c      	beqz.n	a10, 0x6e44
    6e3f:	9614c2        	l16ui	a12, a4, 0x12c
    6e42:	cc1b      	addi.n	a12, a12, 1
    6e44:	9654c2        	s16i	a12, a4, 0x12c
    6e47:	a73a      	add.n	a10, a7, a3
    6e49:	c92582        	l32i	a8, a5, 0x324
    6e4c:	a6aa      	add.n	a10, a6, a10
    6e4e:	0008e0        	excw
    6e51:	f01d      	excw
    6e53:	7a7791        	l32r	a9, 0xfffe5830
    6e56:	961482        	l16ui	a8, a4, 0x12c
    6e59:	482432        	l32i	a3, a4, 0x120
    6e5c:	881b      	addi.n	a8, a8, 1
    6e5e:	c03b30        	sub	a3, a11, a3
    6e61:	103390        	and	a3, a3, a9
    6e64:	965482        	s16i	a8, a4, 0x12c
    6e67:	2917c2        	l16ui	a12, a7, 82
    6e6a:	1133f0        	slli	a3, a3, 1
    6e6d:	0ea3c7        	bge	a3, a12, 0x6e7f
    6e70:	0c14a2        	l16ui	a10, a4, 24
    6e73:	ed8a16        	beqz	a10, 0x6d4f
    6e76:	4191a0        	srli	a9, a10, 1
    6e79:	022937        	blt	a9, a3, 0x6e7f
    6e7c:	ffb3c6        	j	0x6d4f
    6e7f:	1b0c      	movi.n	a11, 1
    6e81:	2b44b2        	s8i	a11, a4, 43
    6e84:	2a17a2        	l16ui	a10, a7, 84
    6e87:	0ea3a7        	bge	a3, a10, 0x6e99
    6e8a:	0c14a2        	l16ui	a10, a4, 24
    6e8d:	ebea16        	beqz	a10, 0x6d4f
    6e90:	41c1a0        	srli	a12, a10, 1
    6e93:	022c37        	blt	a12, a3, 0x6e99
    6e96:	ffad46        	j	0x6d4f
    6e99:	2f0c      	movi.n	a15, 2
    6e9b:	e6da      	add.n	a14, a6, a13
    6e9d:	6c0ee2        	l8ui	a14, a14, 108
    6ea0:	2b44f2        	s8i	a15, a4, 43
    6ea3:	132e66        	bnei	a14, 2, 0x6eba
    6ea6:	02ad      	mov.n	a10, a2
    6ea8:	672582        	l32i	a8, a5, 0x19c
    6eab:	0b0c      	movi.n	a11, 0
    6ead:	0008e0        	excw
    6eb0:	1a0c      	movi.n	a10, 1
    6eb2:	662582        	l32i	a8, a5, 0x198
    6eb5:	02bd      	mov.n	a11, a2
    6eb7:	0008e0        	excw
    6eba:	0c14a2        	l16ui	a10, a4, 24
    6ebd:	0d0a16        	beqz	a10, 0x6f91
    6ec0:	4191a0        	srli	a9, a10, 1
    6ec3:	10a937        	bge	a9, a3, 0x6ed7
    6ec6:	7b0ab1        	l32r	a11, 0xfffe5af0
    6ec9:	3c0c      	movi.n	a12, 3
    6ecb:	2a1bb2        	l16ui	a11, a11, 84
    6ece:	2b44c2        	s8i	a12, a4, 43
    6ed1:	fecbb2        	addi	a11, a11, -2
    6ed4:	2944b2        	s8i	a11, a4, 41
    6ed7:	e74a16        	beqz	a10, 0x6d4f
    6eda:	022a37        	blt	a10, a3, 0x6ee0
    6edd:	ff9b86        	j	0x6d4f
    6ee0:	02ad      	mov.n	a10, a2
    6ee2:	672582        	l32i	a8, a5, 0x19c
    6ee5:	1b0c      	movi.n	a11, 1
    6ee7:	0008e0        	excw
    6eea:	7ad431        	l32r	a3, 0xfffe5a3c
    6eed:	572382        	l32i	a8, a3, 0x15c
    6ef0:	02ad      	mov.n	a10, a2
    6ef2:	0008e0        	excw
    6ef5:	252382        	l32i	a8, a3, 148
    6ef8:	3104a2        	l8ui	a10, a4, 49
    6efb:	0008e0        	excw
    6efe:	004122        	s8i	a2, a1, 0
    6f01:	2a0c      	movi.n	a10, 2
    6f03:	03a2b2        	movi	a11, 0x203
    6f06:	7a4081        	l32r	a8, 0xfffe5808
    6f09:	01cd      	mov.n	a12, a1
    6f0b:	7888      	l32i.n	a8, a8, 28
    6f0d:	1d0c      	movi.n	a13, 1
    6f0f:	0008e0        	excw
    6f12:	f01d      	excw
    6f14:	96da      	add.n	a9, a6, a13
    6f16:	6c0992        	l8ui	a9, a9, 108
    6f19:	382966        	bnei	a9, 2, 0x6f55
    6f1c:	02ad      	mov.n	a10, a2
    6f1e:	672582        	l32i	a8, a5, 0x19c
    6f21:	0b0c      	movi.n	a11, 0
    6f23:	0008e0        	excw
    6f26:	1a0c      	movi.n	a10, 1
    6f28:	662582        	l32i	a8, a5, 0x198
    6f2b:	02bd      	mov.n	a11, a2
    6f2d:	0008e0        	excw
    6f30:	7afca1        	l32r	a10, 0xfffe5b20
    6f33:	3e0a92        	l8ui	a9, a10, 62
    6f36:	1b9927        	bne	a9, a2, 0x6f55
    6f39:	400ab2        	l8ui	a11, a10, 64
    6f3c:	ffa0c2        	movi	a12, 255
    6f3f:	129bc7        	bne	a11, a12, 0x6f55
    6f42:	404a22        	s8i	a2, a10, 64
    6f45:	17d8      	l32i.n	a13, a7, 4
    6f47:	0e0c      	movi.n	a14, 0
    6f49:	4a4ae2        	s8i	a14, a10, 74
    6f4c:	4b4ae2        	s8i	a14, a10, 75
    6f4f:	e4d1d0        	extui	a13, a13, 1, 15
    6f52:	295ad2        	s16i	a13, a10, 82
    6f55:	c92582        	l32i	a8, a5, 0x324
    6f58:	a73a      	add.n	a10, a7, a3
    6f5a:	0b0c      	movi.n	a11, 0
    6f5c:	9754b2        	s16i	a11, a4, 0x12e
    6f5f:	9654b2        	s16i	a11, a4, 0x12c
    6f62:	17b8      	l32i.n	a11, a7, 4
    6f64:	a6aa      	add.n	a10, a6, a10
    6f66:	41b1b0        	srli	a11, a11, 1
    6f69:	0008e0        	excw
    6f6c:	f01d      	excw
    6f6e:	e6da      	add.n	a14, a6, a13
    6f70:	6c0ee2        	l8ui	a14, a14, 108
    6f73:	152e66        	bnei	a14, 2, 0x6f8c
    6f76:	02ad      	mov.n	a10, a2
    6f78:	672582        	l32i	a8, a5, 0x19c
    6f7b:	0b0c      	movi.n	a11, 0
    6f7d:	0008e0        	excw
    6f80:	02bd      	mov.n	a11, a2
    6f82:	662582        	l32i	a8, a5, 0x198
    6f85:	1a0c      	movi.n	a10, 1
    6f87:	0008e0        	excw
    6f8a:	0c0c      	movi.n	a12, 0
    6f8c:	9754c2        	s16i	a12, a4, 0x12e
    6f8f:	f01d      	excw
    6f91:	f01d      	excw
    6f93:	413600        	srli	a3, a0, 6
    6f96:	028100        	excw
    6f99:	927b      	addi.n	a9, a2, 7
    6f9b:	9078a1        	l32r	a10, 0xfffeb17c
    6f9e:	bdc192        	addi	a9, a1, -67
    6fa1:	889a03        	excw
    6fa4:	800882        	l8ui	a8, a8, 128
    6fa7:	02ad      	mov.n	a10, a2
    6fa9:	0e1866        	bnei	a8, 1, 0x6fbb
    6fac:	7afcc1        	l32r	a12, 0xfffe5b9c
    6faf:	400cd2        	l8ui	a13, a12, 64
    6fb2:	ffa0e2        	movi	a14, 255
    6fb5:	029d27        	bne	a13, a2, 0x6fbb
    6fb8:	404ce2        	s8i	a14, a12, 64
    6fbb:	7af081        	l32r	a8, 0xfffe5b7c
    6fbe:	b888      	l32i.n	a8, a8, 44
    6fc0:	0008e0        	excw
    6fc3:	f01d      	excw
    6fc5:	000000        	ill
    6fc8:	004136        	excw
    6fcb:	7afc61        	l32r	a6, 0xfffe5bbc
    6fce:	400622        	l8ui	a2, a6, 64
    6fd1:	ffa052        	movi	a5, 255
    6fd4:	0a9257        	bne	a2, a5, 0x6fe2
    6fd7:	3e0632        	l8ui	a3, a6, 62
    6fda:	052d      	mov.n	a2, a5
    6fdc:	c04350        	sub	a4, a3, a5
    6fdf:	932340        	movnez	a2, a3, a4
    6fe2:	371257        	beq	a2, a5, 0x701d
    6fe5:	7b0b41        	l32r	a4, 0xfffe5c14
    6fe8:	78a182        	movi	a8, 0x178
    6feb:	c12280        	mul16u	a2, a2, a8
    6fee:	7b0ca1        	l32r	a10, 0xfffe5c20
    6ff1:	424a      	add.n	a4, a2, a4
    6ff3:	810482        	l8ui	a8, a4, 129
    6ff6:	22aa      	add.n	a2, a2, a10
    6ff8:	18ac      	beqz.n	a8, 0x701d
    6ffa:	7b0292        	l8ui	a9, a2, 123
    6ffd:	7a18b1        	l32r	a11, 0xfffe5860
    7000:	239900        	excw
    7003:	1019a6        	blti	a9, 1, 0x7017
    7006:	1bb8      	l32i.n	a11, a11, 4
    7008:	3e14c2        	l16ui	a12, a4, 124
    700b:	e4b1b0        	extui	a11, a11, 1, 15
    700e:	c0bbc0        	sub	a11, a11, a12
    7011:	e4b0b0        	extui	a11, a11, 0, 15
    7014:	099bf6        	bgeui	a11, 10, 0x7021
    7017:	c212c2        	l16ui	a12, a2, 0x184
    701a:	032cb6        	bltui	a12, 2, 0x7021
    701d:	020c      	movi.n	a2, 0
    701f:	f01d      	excw
    7021:	120c      	movi.n	a2, 1
    7023:	f01d      	excw
    7025:	000000        	ill
    7028:	004136        	excw
    702b:	7b0d41        	l32r	a4, 0xfffe5c60
    702e:	78a192        	movi	a9, 0x178
    7031:	c19290        	mul16u	a9, a2, a9
    7034:	7a18a1        	l32r	a10, 0xfffe5894
    7037:	494a      	add.n	a4, a9, a4
    7039:	730482        	l8ui	a8, a4, 115
    703c:	1ab8      	l32i.n	a11, a10, 4
    703e:	238800        	excw
    7041:	0518e6        	bgei	a8, 1, 0x704a
    7044:	750ab2        	l8ui	a11, a10, 117
    7047:	0002c6        	j	0x7056
    704a:	c414c2        	l16ui	a12, a4, 0x188
    704d:	e4b1b0        	extui	a11, a11, 1, 15
    7050:	c0bbc0        	sub	a11, a11, a12
    7053:	e4b0b0        	extui	a11, a11, 0, 15
    7056:	7b0ec1        	l32r	a12, 0xfffe5c90
    7059:	4824f2        	l32i	a15, a4, 0x120
    705c:	c9ca      	add.n	a12, a9, a12
    705e:	800cc2        	l8ui	a12, a12, 128
    7061:	750ad2        	l8ui	a13, a10, 117
    7064:	7c8c      	beqz.n	a12, 0x706f
    7066:	053bd7        	bltu	a11, a13, 0x706f
    7069:	1924e2        	l32i	a14, a4, 100
    706c:	6f6e07        	bbci	a14, 0, 0x70df
    706f:	6cef17        	bbsi	a15, 1, 0x70df
    7072:	c40a82        	l8ui	a8, a10, 196
    7075:	66e807        	bbsi	a8, 0, 0x70df
    7078:	6393f6        	bgeui	a3, 10, 0x70df
    707b:	7a7f71        	l32r	a7, 0xfffe5a78
    707e:	7a6851        	l32r	a5, 0xfffe5a20
    7081:	7a6e61        	l32r	a6, 0xfffe5a3c
    7084:	1a25b2        	l32i	a11, a5, 104
    7087:	000692        	l8ui	a9, a6, 0
    708a:	c307a2        	l8ui	a10, a7, 195
    708d:	99ba      	add.n	a9, a9, a11
    708f:	0a3a97        	bltu	a10, a9, 0x709d
    7092:	7aeea1        	l32r	a10, 0xfffe5c4c
    7095:	0b0c      	movi.n	a11, 0
    7097:	b2fe65        	excw
    709a:	c307a2        	l8ui	a10, a7, 195
    709d:	7b0f91        	l32r	a9, 0xfffe5cdc
    70a0:	78a1b2        	movi	a11, 0x178
    70a3:	c1bab0        	mul16u	a11, a10, a11
    70a6:	9b9a      	add.n	a9, a11, a9
    70a8:	7829c2        	l32i	a12, a9, 0x1e0
    70ab:	872992        	l32i	a9, a9, 0x21c
    70ae:	04c1c0        	extui	a12, a12, 1, 1
    70b1:	07fc16        	beqz	a12, 0x7134
    70b4:	000b46        	j	0x70e5
    70b7:	0c0c      	movi.n	a12, 0
    70b9:	02ad      	mov.n	a10, a2
    70bb:	8304d2        	l8ui	a13, a4, 131
    70be:	7ad481        	l32r	a8, 0xfffe5c10
    70c1:	8204b2        	l8ui	a11, a4, 130
    70c4:	6888      	l32i.n	a8, a8, 24
    70c6:	93bdc0        	movnez	a11, a13, a12
    70c9:	74b0b0        	extui	a11, a11, 0, 8
    70cc:	0008e0        	excw
    70cf:	5b04b2        	l8ui	a11, a4, 91
    70d2:	119af0        	slli	a9, a10, 1
    70d5:	a93b      	addi.n	a10, a9, 3
    70d7:	991b      	addi.n	a9, a9, 1
    70d9:	839ab0        	moveqz	a9, a10, a11
    70dc:	503397        	bltu	a3, a9, 0x7130
    70df:	120c      	movi.n	a2, 1
    70e1:	f01d      	excw
    70e3:	f97c      	movi.n	a9, -1
    70e5:	930452        	l8ui	a5, a4, 147
    70e8:	fa0c      	movi.n	a10, 15
    70ea:	07aa76        	excw
    70ed:	14b090        	extui	a11, a9, 0, 2
    70f0:	1b8c      	beqz.n	a11, 0x70f5
    70f2:	419290        	srli	a9, a9, 2
    70f5:	05b516        	beqz	a5, 0x7154
    70f8:	9d04b2        	l8ui	a11, a4, 157
    70fb:	9704a2        	l8ui	a10, a4, 151
    70fe:	263c      	movi.n	a6, 50
    7100:	aaba      	add.n	a10, a10, a11
    7102:	64a0b2        	movi	a11, 100
    7105:	82aab0        	mull	a10, a10, a11
    7108:	05bd      	mov.n	a11, a5
    710a:	01b5e5        	excw
    710d:	0a7d      	mov.n	a7, a10
    710f:	9e04d2        	l8ui	a13, a4, 158
    7112:	9804c2        	l8ui	a12, a4, 152
    7115:	64a0b2        	movi	a11, 100
    7118:	acda      	add.n	a10, a12, a13
    711a:	82aab0        	mull	a10, a10, a11
    711d:	05bd      	mov.n	a11, a5
    711f:	01b4a5        	excw
    7122:	02b6a7        	bgeu	a6, a10, 0x7128
    7125:	0763b6        	bltui	a3, 6, 0x7130
    7128:	b7aa      	add.n	a11, a7, a10
    712a:	17b6b7        	bgeu	a6, a11, 0x7145
    712d:	1443f6        	bgeui	a3, 4, 0x7145
    7130:	020c      	movi.n	a2, 0
    7132:	f01d      	excw
    7134:	1a25e2        	l32i	a14, a5, 104
    7137:	a83ae7        	bltu	a10, a14, 0x70e3
    713a:	2c2692        	l32i	a9, a6, 176
    713d:	99ba      	add.n	a9, a9, a11
    713f:	1b2992        	l32i	a9, a9, 108
    7142:	ffe7c6        	j	0x70e5
    7145:	05b6a7        	bgeu	a6, a10, 0x714e
    7148:	fcc332        	addi	a3, a3, -4
    714b:	000146        	j	0x7154
    714e:	02b6b7        	bgeu	a6, a11, 0x7154
    7151:	fec332        	addi	a3, a3, -2
    7154:	7304a2        	l8ui	a10, a4, 115
    7157:	7af651        	l32r	a5, 0xfffe5d30
    715a:	23aa00        	excw
    715d:	021ae6        	bgei	a10, 1, 0x7163
    7160:	ffdec6        	j	0x70df
    7163:	192492        	l32i	a9, a4, 100
    7166:	10a950        	and	a10, a9, a5
    7169:	1069d7        	bbci	a9, 13, 0x717d
    716c:	0d69e7        	bbci	a9, 14, 0x717d
    716f:	7aeea1        	l32r	a10, 0xfffe5d28
    7172:	0b0c      	movi.n	a11, 0
    7174:	b2f065        	excw
    7177:	192492        	l32i	a9, a4, 100
    717a:	10a950        	and	a10, a9, a5
    717d:	4acc      	bnez.n	a10, 0x7185
    717f:	05b090        	extui	a11, a9, 16, 1
    7182:	f31b16        	beqz	a11, 0x70b7
    7185:	1c0c      	movi.n	a12, 1
    7187:	ffcb86        	j	0x70b9
    718a:	360000        	excw
    718d:	ad0041        	l32r	a4, 0xffff2590
    7190:	03bd02        	excw
    7193:	ffe965        	excw
    7196:	7aef41        	l32r	a4, 0xfffe5d54
    7199:	1b0c      	movi.n	a11, 1
    719b:	80c452        	addi	a5, a4, -128
    719e:	bafc      	bnez.n	a10, 0x71dd
    71a0:	470482        	l8ui	a8, a4, 71
    71a3:	460492        	l8ui	a9, a4, 70
    71a6:	c08820        	sub	a8, a8, a2
    71a9:	093856        	bnez	a8, 0x7240
    71ac:	990b      	addi.n	a9, a9, -1
    71ae:	08e956        	bnez	a9, 0x7240
    71b1:	170492        	l8ui	a9, a4, 23
    71b4:	78a1c2        	movi	a12, 0x178
    71b7:	f6c9a2        	addi	a10, a9, -10
    71ba:	082a56        	bnez	a10, 0x7240
    71bd:	c1c2c0        	mul16u	a12, a2, a12
    71c0:	7ad7a1        	l32r	a10, 0xfffe5d1c
    71c3:	caca      	add.n	a12, a10, a12
    71c5:	800cc2        	l8ui	a12, a12, 128
    71c8:	4004d2        	l8ui	a13, a4, 64
    71cb:	071c56        	bnez	a12, 0x7240
    71ce:	6e6d07        	bbci	a13, 0, 0x7240
    71d1:	400ae2        	l8ui	a14, a10, 64
    71d4:	068e16        	beqz	a14, 0x7240
    71d7:	4244b2        	s8i	a11, a4, 66
    71da:	000086        	j	0x71e0
    71dd:	170492        	l8ui	a9, a4, 23
    71e0:	1c9966        	bnei	a9, 10, 0x7200
    71e3:	7b10a1        	l32r	a10, 0xfffe5e24
    71e6:	78a1c2        	movi	a12, 0x178
    71e9:	c1c2c0        	mul16u	a12, a2, a12
    71ec:	aaca      	add.n	a10, a10, a12
    71ee:	800a92        	l8ui	a9, a10, 128
    71f1:	fba0d2        	movi	a13, 251
    71f4:	086927        	bbci	a9, 2, 0x7200
    71f7:	10d9d0        	and	a13, a9, a13
    71fa:	804ad2        	s8i	a13, a10, 128
    71fd:	4244b2        	s8i	a11, a4, 66
    7200:	7af081        	l32r	a8, 0xfffe5dc0
    7203:	03bd      	mov.n	a11, a3
    7205:	c888      	l32i.n	a8, a8, 48
    7207:	02ad      	mov.n	a10, a2
    7209:	0008e0        	excw
    720c:	970592        	l8ui	a9, a5, 151
    720f:	0a3d      	mov.n	a3, a10
    7211:	0c9966        	bnei	a9, 10, 0x7221
    7214:	7a1581        	l32r	a8, 0xfffe5a68
    7217:	02ad      	mov.n	a10, a2
    7219:	6d2882        	l32i	a8, a8, 0x1b4
    721c:	0b1c      	movi.n	a11, 16
    721e:	0008e0        	excw
    7221:	c20592        	l8ui	a9, a5, 194
    7224:	7a18a1        	l32r	a10, 0xfffe5a84
    7227:	199c      	beqz.n	a9, 0x723c
    7229:	892aa2        	l32i	a10, a10, 0x224
    722c:	7b7c      	movi.n	a11, -9
    722e:	10aab0        	and	a10, a10, a11
    7231:	94a9      	s32i.n	a10, a4, 36
    7233:	7a76b1        	l32r	a11, 0xfffe5c0c
    7236:	0020c0        	memw
    7239:	aa6ba2        	s32i	a10, a11, 0x2a8
    723c:	032d      	mov.n	a2, a3
    723e:	f01d      	excw
    7240:	7a2d81        	l32r	a8, 0xfffe5af4
    7243:	b605a2        	l8ui	a10, a5, 182
    7246:	fe2882        	l32i	a8, a8, 0x3f8
    7249:	90aa30        	addx2	a10, a10, a3
    724c:	0008e0        	excw
    724f:	120c      	movi.n	a2, 1
    7251:	f01d      	excw
    7253:	413600        	srli	a3, a0, 6
    7256:	f08100        	subx8	a8, a1, a0
    7259:	ad7a      	add.n	a10, a13, a7
    725b:	d88802        	excw
    725e:	03bd      	mov.n	a11, a3
    7260:	0008e0        	excw
    7263:	7a7f91        	l32r	a9, 0xfffe5c60
    7266:	b809a2        	l8ui	a10, a9, 184
    7269:	b709b2        	l8ui	a11, a9, 183
    726c:	174a66        	bnei	a10, 4, 0x7287
    726f:	4bdc      	bnez.n	a11, 0x7287
    7271:	7a76b1        	l32r	a11, 0xfffe5c4c
    7274:	0020c0        	memw
    7277:	4a0c      	movi.n	a10, 4
    7279:	7ad481        	l32r	a8, 0xfffe5dcc
    727c:	9e2bb2        	l32i	a11, a11, 0x278
    727f:	8888      	l32i.n	a8, a8, 32
    7281:	34b3b0        	extui	a11, a11, 3, 4
    7284:	0008e0        	excw
    7287:	f01d      	excw
    7289:	000000        	ill
    728c:	006136        	excw
    728f:	7a5541        	l32r	a4, 0xfffe5be4
    7292:	7a4061        	l32r	a6, 0xfffe5b94
    7295:	7a5931        	l32r	a3, 0xfffe5bfc
    7298:	7af0b1        	l32r	a11, 0xfffe5e58
    729b:	0312c2        	l16ui	a12, a2, 6
    729e:	0fa282        	movi	a8, 0x20f
    72a1:	419c87        	bne	a12, a8, 0x72e6
    72a4:	7b11b1        	l32r	a11, 0xfffe5ee8
    72a7:	3c0c      	movi.n	a12, 3
    72a9:	380b92        	l8ui	a9, a11, 56
    72ac:	050c      	movi.n	a5, 0
    72ae:	0239b6        	bltui	a9, 3, 0x72b4
    72b1:	006586        	j	0x744b
    72b4:	7b1271        	l32r	a7, 0xfffe5efc
    72b7:	0403e2        	l8ui	a14, a3, 4
    72ba:	7a2da1        	l32r	a10, 0xfffe5b70
    72bd:	fdcee2        	addi	a14, a14, -3
    72c0:	19ce16        	beqz	a14, 0x7460
    72c3:	c02a82        	l32i	a8, a10, 0x300
    72c6:	0008e0        	excw
    72c9:	7a1891        	l32r	a9, 0xfffe5b2c
    72cc:	b80992        	l8ui	a9, a9, 184
    72cf:	0239b6        	bltui	a9, 3, 0x72d5
    72d2:	003a46        	j	0x73bf
    72d5:	9a0c      	movi.n	a10, 9
    72d7:	0fa2b2        	movi	a11, 0x20f
    72da:	0c0c      	movi.n	a12, 0
    72dc:	7688      	l32i.n	a8, a6, 28
    72de:	0d0c      	movi.n	a13, 0
    72e0:	0008e0        	excw
    72e3:	005c06        	j	0x7457
    72e6:	16a292        	movi	a9, 0x216
    72e9:	2f9c97        	bne	a12, a9, 0x731c
    72ec:	0403a2        	l8ui	a10, a3, 4
    72ef:	7a5631        	l32r	a3, 0xfffe5c48
    72f2:	1d3a66        	bnei	a10, 3, 0x7313
    72f5:	2003b2        	l8ui	a11, a3, 32
    72f8:	7b8c      	beqz.n	a11, 0x7303
    72fa:	1f2482        	l32i	a8, a4, 124
    72fd:	0008e0        	excw
    7300:	0003c6        	j	0x7313
    7303:	70a0a2        	movi	a10, 112
    7306:	202482        	l32i	a8, a4, 128
    7309:	0b0c      	movi.n	a11, 0
    730b:	0008e0        	excw
    730e:	190c      	movi.n	a9, 1
    7310:	204392        	s8i	a9, a3, 32
    7313:	5688      	l32i.n	a8, a6, 20
    7315:	02ad      	mov.n	a10, a2
    7317:	0008e0        	excw
    731a:	f01d      	excw
    731c:	eb88      	l32i.n	a8, a11, 56
    731e:	02ad      	mov.n	a10, a2
    7320:	0008e0        	excw
    7323:	f01d      	excw
    7325:	212482        	l32i	a8, a4, 132
    7328:	0008e0        	excw
    732b:	83b8      	l32i.n	a11, a3, 32
    732d:	01b9      	s32i.n	a11, a1, 0
    732f:	381a66        	bnei	a10, 1, 0x736b
    7332:	5bfc      	bnez.n	a11, 0x736b
    7334:	43d8      	l32i.n	a13, a3, 16
    7336:	ddec      	bnez.n	a13, 0x7367
    7338:	07ad      	mov.n	a10, a7
    733a:	0b0c      	movi.n	a11, 0
    733c:	0c1c      	movi.n	a12, 16
    733e:	1e0c      	movi.n	a14, 1
    7340:	43e9      	s32i.n	a14, a3, 16
    7342:	01c425        	excw
    7345:	044752        	s8i	a5, a7, 4
    7348:	80a0a2        	movi	a10, 128
    734b:	202482        	l32i	a8, a4, 128
    734e:	07bd      	mov.n	a11, a7
    7350:	0008e0        	excw
    7353:	0020c0        	memw
    7356:	7a57a1        	l32r	a10, 0xfffe5cb4
    7359:	e8a3b2        	movi	a11, 0x3e8
    735c:	a32aa2        	l32i	a10, a10, 0x28c
    735f:	019be5        	excw
    7362:	7af0b1        	l32r	a11, 0xfffe5f24
    7365:	1ba9      	s32i.n	a10, a11, 4
    7367:	83c8      	l32i.n	a12, a3, 32
    7369:	01c9      	s32i.n	a12, a1, 0
    736b:	0020c0        	memw
    736e:	7a57a1        	l32r	a10, 0xfffe5ccc
    7371:	e8a3b2        	movi	a11, 0x3e8
    7374:	a32aa2        	l32i	a10, a10, 0x28c
    7377:	019a65        	excw
    737a:	01b8      	l32i.n	a11, a1, 0
    737c:	127b56        	bnez	a11, 0x74a7
    737f:	63c8      	l32i.n	a12, a3, 24
    7381:	cc0b      	addi.n	a12, a12, -1
    7383:	110c56        	bnez	a12, 0x7497
    7386:	6359      	s32i.n	a5, a3, 24
    7388:	7b13a1        	l32r	a10, 0xfffe5fd4
    738b:	7a3a81        	l32r	a8, 0xfffe5c74
    738e:	190c      	movi.n	a9, 1
    7390:	f888      	l32i.n	a8, a8, 60
    7392:	5399      	s32i.n	a9, a3, 20
    7394:	0008e0        	excw
    7397:	7a3a81        	l32r	a8, 0xfffe5c80
    739a:	f888      	l32i.n	a8, a8, 60
    739c:	7b14a1        	l32r	a10, 0xfffe5fec
    739f:	0008e0        	excw
    73a2:	7a2d81        	l32r	a8, 0xfffe5c58
    73a5:	c02882        	l32i	a8, a8, 0x300
    73a8:	0008e0        	excw
    73ab:	7a1891        	l32r	a9, 0xfffe5c0c
    73ae:	b80992        	l8ui	a9, a9, 184
    73b1:	e239b6        	bltui	a9, 3, 0x7397
    73b4:	7a3a81        	l32r	a8, 0xfffe5c9c
    73b7:	f888      	l32i.n	a8, a8, 60
    73b9:	7b15a1        	l32r	a10, 0xfffe6010
    73bc:	0008e0        	excw
    73bf:	7a6191        	l32r	a9, 0xfffe5d44
    73c2:	000992        	l8ui	a9, a9, 0
    73c5:	19ac      	beqz.n	a9, 0x73ea
    73c7:	7a3a81        	l32r	a8, 0xfffe5cb0
    73ca:	f888      	l32i.n	a8, a8, 60
    73cc:	7b16a1        	l32r	a10, 0xfffe6024
    73cf:	0008e0        	excw
    73d2:	7a2d81        	l32r	a8, 0xfffe5c88
    73d5:	7a6191        	l32r	a9, 0xfffe5d5c
    73d8:	c22882        	l32i	a8, a8, 0x308
    73db:	004952        	s8i	a5, a9, 0
    73de:	0008e0        	excw
    73e1:	7b1191        	l32r	a9, 0xfffe6028
    73e4:	384952        	s8i	a5, a9, 56
    73e7:	0001c6        	j	0x73f2
    73ea:	7b11b1        	l32r	a11, 0xfffe6030
    73ed:	3a0c      	movi.n	a10, 3
    73ef:	384ba2        	s8i	a10, a11, 56
    73f2:	5359      	s32i.n	a5, a3, 20
    73f4:	4359      	s32i.n	a5, a3, 16
    73f6:	8359      	s32i.n	a5, a3, 32
    73f8:	6359      	s32i.n	a5, a3, 24
    73fa:	07ad      	mov.n	a10, a7
    73fc:	7af0c1        	l32r	a12, 0xfffe5fbc
    73ff:	0b0c      	movi.n	a11, 0
    7401:	1c59      	s32i.n	a5, a12, 4
    7403:	0c1c      	movi.n	a12, 16
    7405:	01b7e5        	excw
    7408:	07bd      	mov.n	a11, a7
    740a:	80a0a2        	movi	a10, 128
    740d:	290c      	movi.n	a9, 2
    740f:	202482        	l32i	a8, a4, 128
    7412:	044792        	s8i	a9, a7, 4
    7415:	0008e0        	excw
    7418:	7a5ca1        	l32r	a10, 0xfffe5d88
    741b:	000ab2        	l8ui	a11, a10, 0
    741e:	db8c      	beqz.n	a11, 0x742f
    7420:	004a52        	s8i	a5, a10, 0
    7423:	7a5b81        	l32r	a8, 0xfffe5d90
    7426:	190c      	movi.n	a9, 1
    7428:	3888      	l32i.n	a8, a8, 12
    742a:	7399      	s32i.n	a9, a3, 28
    742c:	0008e0        	excw
    742f:	7b11b1        	l32r	a11, 0xfffe6074
    7432:	380b92        	l8ui	a9, a11, 56
    7435:	3c0c      	movi.n	a12, 3
    7437:	1039f6        	bgeui	a9, 3, 0x744b
    743a:	9a0c      	movi.n	a10, 9
    743c:	0fa2b2        	movi	a11, 0x20f
    743f:	0c0c      	movi.n	a12, 0
    7441:	7688      	l32i.n	a8, a6, 28
    7443:	0d0c      	movi.n	a13, 0
    7445:	0008e0        	excw
    7448:	0002c6        	j	0x7457
    744b:	384bc2        	s8i	a12, a11, 56
    744e:	7a7fa1        	l32r	a10, 0xfffe5e4c
    7451:	ffa092        	movi	a9, 255
    7454:	6e4a92        	s8i	a9, a10, 110
    7457:	5688      	l32i.n	a8, a6, 20
    7459:	02ad      	mov.n	a10, a2
    745b:	0008e0        	excw
    745e:	f01d      	excw
    7460:	73b8      	l32i.n	a11, a3, 28
    7462:	bb0b      	addi.n	a11, a11, -1
    7464:	ebdb56        	bnez	a11, 0x7325
    7467:	05bd      	mov.n	a11, a5
    7469:	7359      	s32i.n	a5, a3, 28
    746b:	1c0c      	movi.n	a12, 1
    746d:	07ad      	mov.n	a10, a7
    746f:	83c9      	s32i.n	a12, a3, 32
    7471:	0c1c      	movi.n	a12, 16
    7473:	01b125        	excw
    7476:	07bd      	mov.n	a11, a7
    7478:	80a0a2        	movi	a10, 128
    747b:	190c      	movi.n	a9, 1
    747d:	202482        	l32i	a8, a4, 128
    7480:	044792        	s8i	a9, a7, 4
    7483:	0008e0        	excw
    7486:	9a0c      	movi.n	a10, 9
    7488:	0fa2b2        	movi	a11, 0x20f
    748b:	0c0c      	movi.n	a12, 0
    748d:	7688      	l32i.n	a8, a6, 28
    748f:	0d0c      	movi.n	a13, 0
    7491:	0008e0        	excw
    7494:	ffefc6        	j	0x7457
    7497:	7af0b1        	l32r	a11, 0xfffe6058
    749a:	1bb8      	l32i.n	a11, a11, 4
    749c:	40a192        	movi	a9, 0x140
    749f:	9b9a      	add.n	a9, a11, a9
    74a1:	023a97        	bltu	a10, a9, 0x74a7
    74a4:	edeb56        	bnez	a11, 0x7386
    74a7:	212482        	l32i	a8, a4, 132
    74aa:	0008e0        	excw
    74ad:	ed5a16        	beqz	a10, 0x7386
    74b0:	9a0c      	movi.n	a10, 9
    74b2:	0fa2b2        	movi	a11, 0x20f
    74b5:	0c0c      	movi.n	a12, 0
    74b7:	7688      	l32i.n	a8, a6, 28
    74b9:	0d0c      	movi.n	a13, 0
    74bb:	0008e0        	excw
    74be:	ffe546        	j	0x7457
    74c1:	000000        	ill
    74c4:	004136        	excw
    74c7:	7af081        	l32r	a8, 0xfffe6088
    74ca:	f888      	l32i.n	a8, a8, 60
    74cc:	02ad      	mov.n	a10, a2
    74ce:	0008e0        	excw
    74d1:	2b0c      	movi.n	a11, 2
    74d3:	5e0c      	movi.n	a14, 5
    74d5:	7b11d1        	l32r	a13, 0xfffe611c
    74d8:	0c0c      	movi.n	a12, 0
    74da:	0f4dc2        	s8i	a12, a13, 15
    74dd:	0d98      	l32i.n	a9, a13, 0
    74df:	80cda2        	addi	a10, a13, -128
    74e2:	774ae2        	s8i	a14, a10, 119
    74e5:	2099b0        	or	a9, a9, a11
    74e8:	0d99      	s32i.n	a9, a13, 0
    74ea:	d2cc      	bnez.n	a2, 0x74fb
    74ec:	7a1c81        	l32r	a8, 0xfffe5d5c
    74ef:	7b1791        	l32r	a9, 0xfffe614c
    74f2:	3b18f2        	l16ui	a15, a8, 118
    74f5:	10ff90        	and	a15, a15, a9
    74f8:	3b58f2        	s16i	a15, a8, 118
    74fb:	f01d      	excw
    74fd:	000000        	ill
    7500:	004136        	excw
    7503:	7b18d1        	l32r	a13, 0xfffe6164
    7506:	0020c0        	memw
    7509:	7a68b1        	l32r	a11, 0xfffe5eac
    750c:	a02d92        	l32i	a9, a13, 0x280
    750f:	380c      	movi.n	a8, 3
    7511:	028897        	bany	a8, a9, 0x7517
    7514:	002086        	j	0x759a
    7517:	7b1a91        	l32r	a9, 0xfffe6180
    751a:	7b19a1        	l32r	a10, 0xfffe6180
    751d:	82f290        	mull	a15, a2, a9
    7520:	612bb2        	l32i	a11, a11, 0x184
    7523:	ffaa      	add.n	a15, a15, a10
    7525:	85c1f0        	extui	a12, a15, 17, 9
    7528:	047b16        	beqz	a11, 0x7573
    752b:	7b1b31        	l32r	a3, 0xfffe6198
    752e:	0020c0        	memw
    7531:	7b1f21        	l32r	a2, 0xfffe61b0
    7534:	018ca0        	slli	a8, a12, 22
    7537:	7b1cb1        	l32r	a11, 0xfffe61a8
    753a:	7b1de1        	l32r	a14, 0xfffe61b0
    753d:	7b1ea1        	l32r	a10, 0xfffe61b8
    7540:	a62d92        	l32i	a9, a13, 0x298
    7543:	10afa0        	and	a10, a15, a10
    7546:	1099e0        	and	a9, a9, a14
    7549:	11aab0        	slli	a10, a10, 5
    754c:	10aab0        	and	a10, a10, a11
    754f:	108820        	and	a8, a8, a2
    7552:	2099a0        	or	a9, a9, a10
    7555:	208890        	or	a8, a8, a9
    7558:	208830        	or	a8, a8, a3
    755b:	0020c0        	memw
    755e:	a66d82        	s32i	a8, a13, 0x298
    7561:	0020c0        	memw
    7564:	a62d22        	l32i	a2, a13, 0x298
    7567:	202230        	or	a2, a2, a3
    756a:	0020c0        	memw
    756d:	a66d22        	s32i	a2, a13, 0x298
    7570:	000646        	j	0x758d
    7573:	4a0c      	movi.n	a10, 4
    7575:	84a0b2        	movi	a11, 132
    7578:	00a1e2        	movi	a14, 0x100
    757b:	74d9f0        	extui	a13, a15, 9, 8
    757e:	7a2d81        	l32r	a8, 0xfffe5e34
    7581:	20dde0        	or	a13, a13, a14
    7584:	cd2882        	l32i	a8, a8, 0x334
    7587:	84e0f0        	extui	a14, a15, 0, 9
    758a:	0008e0        	excw
    758d:	7a6581        	l32r	a8, 0xfffe5f24
    7590:	6888      	l32i.n	a8, a8, 24
    7592:	64a0a2        	movi	a10, 100
    7595:	0008e0        	excw
    7598:	f01d      	excw
    759a:	7b20a1        	l32r	a10, 0xfffe621c
    759d:	7b2191        	l32r	a9, 0xfffe6224
    75a0:	ffde46        	j	0x751d
    75a3:	413600        	srli	a3, a0, 6
    75a6:	222100        	excw
    75a9:	987b      	addi.n	a9, a8, 7
    75ab:	299202        	l16si	a0, a2, 82
    75ae:	b9cc32        	addi	a3, a12, -71
    75b1:	7aeea1        	l32r	a10, 0xfffe616c
    75b4:	0b0c      	movi.n	a11, 0
    75b6:	b2ac65        	excw
    75b9:	0298      	l32i.n	a9, a2, 0
    75bb:	322992        	l32i	a9, a9, 200
    75be:	1c1966        	bnei	a9, 1, 0x75de
    75c1:	7ac691        	l32r	a9, 0xfffe60dc
    75c4:	020c      	movi.n	a2, 0
    75c6:	5509a2        	l8ui	a10, a9, 85
    75c9:	7a9db1        	l32r	a11, 0xfffe6040
    75cc:	0a9c      	beqz.n	a10, 0x75e0
    75ce:	000bb2        	l8ui	a11, a11, 0
    75d1:	8329c2        	l32i	a12, a9, 0x20c
    75d4:	081b66        	bnei	a11, 1, 0x75e0
    75d7:	052c66        	bnei	a12, 2, 0x75e0
    75da:	120c      	movi.n	a2, 1
    75dc:	f01d      	excw
    75de:	120c      	movi.n	a2, 1
    75e0:	f01d      	excw
    75e2:	360000        	excw
    75e5:	920041        	l32r	a4, 0xfffebde8
    75e8:	9c0c02        	l8ui	a0, a12, 156
    75eb:	66d9      	s32i.n	a13, a6, 24
    75ed:	3e19      	s32i.n	a1, a14, 12
    75ef:	7a5981        	l32r	a8, 0xfffe5f54
    75f2:	7a40e1        	l32r	a14, 0xfffe5ef4
    75f5:	040882        	l8ui	a8, a8, 4
    75f8:	7ee8      	l32i.n	a14, a14, 28
    75fa:	323866        	bnei	a8, 3, 0x7630
    75fd:	9a0c      	movi.n	a10, 9
    75ff:	1fa2b2        	movi	a11, 0x21f
    7602:	0c0c      	movi.n	a12, 0
    7604:	0d0c      	movi.n	a13, 0
    7606:	000ee0        	excw
    7609:	f01d      	excw
    760b:	7a2d21        	l32r	a2, 0xfffe5ec0
    760e:	8f2282        	l32i	a8, a2, 0x23c
    7611:	0008e0        	excw
    7614:	fff8e5        	excw
    7617:	3a9c      	beqz.n	a10, 0x762e
    7619:	1a0c      	movi.n	a10, 1
    761b:	e22282        	l32i	a8, a2, 0x388
    761e:	1b0c      	movi.n	a11, 1
    7620:	0008e0        	excw
    7623:	7a3a81        	l32r	a8, 0xfffe5f0c
    7626:	f888      	l32i.n	a8, a8, 60
    7628:	7b23a1        	l32r	a10, 0xfffe62b4
    762b:	0008e0        	excw
    762e:	f01d      	excw
    7630:	9a0c      	movi.n	a10, 9
    7632:	0fa2b2        	movi	a11, 0x20f
    7635:	0c0c      	movi.n	a12, 0
    7637:	0d0c      	movi.n	a13, 0
    7639:	000ee0        	excw
    763c:	f01d      	excw
    763e:	360000        	excw
    7641:	290061        	l32r	a6, 0xfffd1a44
    7644:	7f5101        	l32r	a0, 0xfffe7388
    7647:	0c7a      	add.n	a0, a12, a7
    7649:	c53204        	excw
    764c:	01a871        	l32r	a7, 0xfffc7cec
    764f:	ffa0b2        	movi	a11, 255
    7652:	ac0c      	movi.n	a12, 10
    7654:	0192e5        	excw
    7657:	020c      	movi.n	a2, 0
    7659:	f74c      	movi.n	a7, 79
    765b:	f90c      	movi.n	a9, 15
    765d:	fa0c      	movi.n	a10, 15
    765f:	060c      	movi.n	a6, 0
    7661:	41f360        	srli	a15, a6, 3
    7664:	24e060        	extui	a14, a6, 0, 3
    7667:	770b      	addi.n	a7, a7, -1
    7669:	eb0c      	movi.n	a11, 14
    766b:	dc05d2        	l8ui	a13, a5, 220
    766e:	661b      	addi.n	a6, a6, 1
    7670:	746060        	extui	a6, a6, 0, 8
    7673:	cd0b      	addi.n	a12, a13, -1
    7675:	93bcd0        	movnez	a11, a12, a13
    7678:	0d0c      	movi.n	a13, 0
    767a:	00a0c2        	movi	a12, 0
    767d:	28aa76        	excw
    7680:	ea0c      	movi.n	a10, 14
    7682:	a08bb0        	addx4	a8, a11, a11
    7685:	9088f0        	addx2	a8, a8, a15
    7688:	838a      	add.n	a8, a3, a8
    768a:	800882        	l8ui	a8, a8, 128
    768d:	400e00        	ssr	a14
    7690:	b18080        	sra	a8, a8
    7693:	046807        	bbci	a8, 0, 0x769b
    7696:	dd9a      	add.n	a13, a13, a9
    7698:	000046        	j	0x769d
    769b:	cc9a      	add.n	a12, a12, a9
    769d:	8b0b      	addi.n	a8, a11, -1
    769f:	990b      	addi.n	a9, a9, -1
    76a1:	749090        	extui	a9, a9, 0, 8
    76a4:	93a8b0        	movnez	a10, a8, a11
    76a7:	0abd      	mov.n	a11, a10
    76a9:	f90c      	movi.n	a9, 15
    76ab:	c0ac40        	sub	a10, a12, a4
    76ae:	aaab      	addi.n	a10, a10, 10
    76b0:	1cada7        	bge	a13, a10, 0x76d0
    76b3:	f87c      	movi.n	a8, -1
    76b5:	01c8      	l32i.n	a12, a1, 0
    76b7:	401e00        	ssl	a14
    76ba:	1d0c      	movi.n	a13, 1
    76bc:	a1dd00        	sll	a13, a13
    76bf:	cfca      	add.n	a12, a15, a12
    76c1:	000cb2        	l8ui	a11, a12, 0
    76c4:	30dd80        	xor	a13, a13, a8
    76c7:	10bbd0        	and	a11, a11, a13
    76ca:	004cb2        	s8i	a11, a12, 0
    76cd:	000106        	j	0x76d5
    76d0:	221b      	addi.n	a2, a2, 1
    76d2:	742020        	extui	a2, a2, 0, 8
    76d5:	fa0c      	movi.n	a10, 15
    76d7:	41f360        	srli	a15, a6, 3
    76da:	24e060        	extui	a14, a6, 0, 3
    76dd:	f86756        	bnez	a7, 0x7667
    76e0:	442b      	addi.n	a4, a4, 2
    76e2:	381c      	movi.n	a8, 19
    76e4:	023827        	bltu	a8, a2, 0x76ea
    76e7:	ffd886        	j	0x764d
    76ea:	f01d      	excw
    76ec:	006136        	excw
    76ef:	628c      	beqz.n	a2, 0x76f9
    76f1:	7aeea1        	l32r	a10, 0xfffe62ac
    76f4:	0b0c      	movi.n	a11, 0
    76f6:	b29865        	excw
    76f9:	7a1881        	l32r	a8, 0xfffe5f5c
    76fc:	a04220        	addx4	a4, a2, a2
    76ff:	b04480        	addx8	a4, a4, a8
    7702:	661482        	l16ui	a8, a4, 204
    7705:	07e867        	bbsi	a8, 6, 0x7710
    7708:	7aeea1        	l32r	a10, 0xfffe62c0
    770b:	0b0c      	movi.n	a11, 0
    770d:	b296e5        	excw
    7710:	7a7af1        	l32r	a15, 0xfffe60f8
    7713:	7a6851        	l32r	a5, 0xfffe60b4
    7716:	d70472        	l8ui	a7, a4, 215
    7719:	484c      	movi.n	a8, 68
    771b:	c17780        	mul16u	a7, a7, a8
    771e:	242552        	l32i	a5, a5, 144
    7721:	ffa0e2        	movi	a14, 255
    7724:	557a      	add.n	a5, a5, a7
    7726:	0145e2        	s8i	a14, a5, 1
    7729:	d20482        	l8ui	a8, a4, 210
    772c:	78a192        	movi	a9, 0x178
    772f:	c18890        	mul16u	a8, a8, a9
    7732:	070c      	movi.n	a7, 0
    7734:	ff8a      	add.n	a15, a15, a8
    7736:	804fe2        	s8i	a14, a15, 128
    7739:	1705b2        	l8ui	a11, a5, 23
    773c:	15d8      	l32i.n	a13, a5, 4
    773e:	11d9      	s32i.n	a13, a1, 4
    7740:	23bb00        	excw
    7743:	3dd8      	l32i.n	a13, a13, 12
    7745:	01d9      	s32i.n	a13, a1, 0
    7747:	2e1ba6        	blti	a11, 1, 0x7779
    774a:	073d      	mov.n	a3, a7
    774c:	a06350        	addx4	a6, a3, a5
    774f:	66a8      	l32i.n	a10, a6, 24
    7751:	ca9c      	beqz.n	a10, 0x7771
    7753:	7a0781        	l32r	a8, 0xfffe5f70
    7756:	8888      	l32i.n	a8, a8, 32
    7758:	0008e0        	excw
    775b:	01c8      	l32i.n	a12, a1, 0
    775d:	b0c3c0        	addx8	a12, a3, a12
    7760:	1cd8      	l32i.n	a13, a12, 4
    7762:	6679      	s32i.n	a7, a6, 24
    7764:	0c79      	s32i.n	a7, a12, 0
    7766:	04d0d0        	extui	a13, a13, 0, 1
    7769:	1cd9      	s32i.n	a13, a12, 4
    776b:	1705b2        	l8ui	a11, a5, 23
    776e:	23bb00        	excw
    7771:	331b      	addi.n	a3, a3, 1
    7773:	743030        	extui	a3, a3, 0, 8
    7776:	d223b7        	blt	a3, a11, 0x774c
    7779:	34c5b2        	addi	a11, a5, 52
    777c:	11a8      	l32i.n	a10, a1, 4
    777e:	7a1561        	l32r	a6, 0xfffe5fd4
    7781:	4a79      	s32i.n	a7, a10, 16
    7783:	5a79      	s32i.n	a7, a10, 20
    7785:	164572        	s8i	a7, a5, 22
    7788:	154572        	s8i	a7, a5, 21
    778b:	f32682        	l32i	a8, a6, 0x3cc
    778e:	8aa8      	l32i.n	a10, a10, 32
    7790:	0008e0        	excw
    7793:	661492        	l16ui	a9, a4, 204
    7796:	7ad431        	l32r	a3, 0xfffe62e8
    7799:	26e987        	bbsi	a9, 8, 0x77c3
    779c:	086937        	bbci	a9, 3, 0x77a8
    779f:	c12682        	l32i	a8, a6, 0x304
    77a2:	e904a2        	l8ui	a10, a4, 233
    77a5:	0008e0        	excw
    77a8:	7b2481        	l32r	a8, 0xfffe6438
    77ab:	1a0c      	movi.n	a10, 1
    77ad:	2888      	l32i.n	a8, a8, 8
    77af:	ffa0b2        	movi	a11, 255
    77b2:	0008e0        	excw
    77b5:	02ad      	mov.n	a10, a2
    77b7:	312382        	l32i	a8, a3, 196
    77ba:	d204b2        	l8ui	a11, a4, 210
    77bd:	0008e0        	excw
    77c0:	000146        	j	0x77c9
    77c3:	702382        	l32i	a8, a3, 0x1c0
    77c6:	0008e0        	excw
    77c9:	7a5581        	l32r	a8, 0xfffe6120
    77cc:	ffa022        	movi	a2, 255
    77cf:	c888      	l32i.n	a8, a8, 48
    77d1:	d204a2        	l8ui	a10, a4, 210
    77d4:	0008e0        	excw
    77d7:	d24422        	s8i	a2, a4, 210
    77da:	d54422        	s8i	a2, a4, 213
    77dd:	d64422        	s8i	a2, a4, 214
    77e0:	e94422        	s8i	a2, a4, 233
    77e3:	de4472        	s8i	a7, a4, 222
    77e6:	dd4472        	s8i	a7, a4, 221
    77e9:	775472        	s16i	a7, a4, 238
    77ec:	765472        	s16i	a7, a4, 236
    77ef:	ea4472        	s8i	a7, a4, 234
    77f2:	685472        	s16i	a7, a4, 208
    77f5:	675472        	s16i	a7, a4, 206
    77f8:	d44472        	s8i	a7, a4, 212
    77fb:	d34472        	s8i	a7, a4, 211
    77fe:	665472        	s16i	a7, a4, 204
    7801:	7a6851        	l32r	a5, 0xfffe61a4
    7804:	64a0a2        	movi	a10, 100
    7807:	f97c      	movi.n	a9, -1
    7809:	366492        	s32i	a9, a4, 216
    780c:	dc44a2        	s8i	a10, a4, 220
    780f:	1a25a2        	l32i	a10, a5, 104
    7812:	020c      	movi.n	a2, 0
    7814:	6abc      	beqz.n	a10, 0x784e
    7816:	7b2531        	l32r	a3, 0xfffe64ac
    7819:	7a2d41        	l32r	a4, 0xfffe60d0
    781c:	78a192        	movi	a9, 0x178
    781f:	c19290        	mul16u	a9, a2, a9
    7822:	939a      	add.n	a9, a3, a9
    7824:	800992        	l8ui	a9, a9, 128
    7827:	055926        	beqi	a9, 5, 0x7830
    782a:	023926        	beqi	a9, 3, 0x7830
    782d:	124966        	bnei	a9, 4, 0x7843
    7830:	932482        	l32i	a8, a4, 0x24c
    7833:	02ad      	mov.n	a10, a2
    7835:	0008e0        	excw
    7838:	2e2682        	l32i	a8, a6, 184
    783b:	02ad      	mov.n	a10, a2
    783d:	0008e0        	excw
    7840:	1a25a2        	l32i	a10, a5, 104
    7843:	78a192        	movi	a9, 0x178
    7846:	221b      	addi.n	a2, a2, 1
    7848:	742020        	extui	a2, a2, 0, 8
    784b:	d032a7        	bltu	a2, a10, 0x781f
    784e:	932682        	l32i	a8, a6, 0x24c
    7851:	0008e0        	excw
    7854:	f01d      	excw
    7856:	360000        	excw
    7859:	8c0041        	l32r	a4, 0xfffea85c
    785c:	eea162        	movi	a6, 0x1ee
    785f:	0c7a      	add.n	a0, a12, a7
    7861:	a50b      	addi.n	a10, a5, -1
    7863:	ddb281        	l32r	a8, 0xffffef2c
    7866:	fe7c03        	excw
    7869:	a04220        	addx4	a4, a2, a2
    786c:	7a1551        	l32r	a5, 0xfffe60c0
    786f:	7a1821        	l32r	a2, 0xfffe60d0
    7872:	112582        	l32i	a8, a5, 68
    7875:	b04420        	addx8	a4, a4, a2
    7878:	d404b2        	l8ui	a11, a4, 212
    787b:	d304c2        	l8ui	a12, a4, 211
    787e:	d204a2        	l8ui	a10, a4, 210
    7881:	0008e0        	excw
    7884:	0a3d      	mov.n	a3, a10
    7886:	d204a2        	l8ui	a10, a4, 210
    7889:	fe57e5        	excw
    788c:	7a24c1        	l32r	a12, 0xfffe611c
    788f:	b3aa      	add.n	a11, a3, a10
    7891:	7ad481        	l32r	a8, 0xfffe63e4
    7894:	1a0c      	movi.n	a10, 1
    7896:	122882        	l32i	a8, a8, 72
    7899:	10bbc0        	and	a11, a11, a12
    789c:	3264b2        	s32i	a11, a4, 200
    789f:	c40292        	l8ui	a9, a2, 196
    78a2:	0c0c      	movi.n	a12, 0
    78a4:	2099a0        	or	a9, a9, a10
    78a7:	7b11a1        	l32r	a10, 0xfffe64ec
    78aa:	ab0c      	movi.n	a11, 10
    78ac:	444a92        	s8i	a9, a10, 68
    78af:	9a0c      	movi.n	a10, 9
    78b1:	0008e0        	excw
    78b4:	7a6871        	l32r	a7, 0xfffe6254
    78b7:	020c      	movi.n	a2, 0
    78b9:	1a27a2        	l32i	a10, a7, 104
    78bc:	7a2d61        	l32r	a6, 0xfffe6170
    78bf:	3abc      	beqz.n	a10, 0x78f6
    78c1:	7b2531        	l32r	a3, 0xfffe6558
    78c4:	78a192        	movi	a9, 0x178
    78c7:	c19290        	mul16u	a9, a2, a9
    78ca:	939a      	add.n	a9, a3, a9
    78cc:	800992        	l8ui	a9, a9, 128
    78cf:	055926        	beqi	a9, 5, 0x78d8
    78d2:	023926        	beqi	a9, 3, 0x78d8
    78d5:	124966        	bnei	a9, 4, 0x78eb
    78d8:	932682        	l32i	a8, a6, 0x24c
    78db:	02ad      	mov.n	a10, a2
    78dd:	0008e0        	excw
    78e0:	2e2582        	l32i	a8, a5, 184
    78e3:	02ad      	mov.n	a10, a2
    78e5:	0008e0        	excw
    78e8:	1a27a2        	l32i	a10, a7, 104
    78eb:	78a192        	movi	a9, 0x178
    78ee:	221b      	addi.n	a2, a2, 1
    78f0:	742020        	extui	a2, a2, 0, 8
    78f3:	d032a7        	bltu	a2, a10, 0x78c7
    78f6:	7a5581        	l32r	a8, 0xfffe624c
    78f9:	d204a2        	l8ui	a10, a4, 210
    78fc:	b888      	l32i.n	a8, a8, 44
    78fe:	5b0c      	movi.n	a11, 5
    7900:	0008e0        	excw
    7903:	922582        	l32i	a8, a5, 0x248
    7906:	0008e0        	excw
    7909:	f01d      	excw
    790b:	413600        	srli	a3, a0, 6
    790e:	a2c200        	excw
    7911:	a18270        	excw
    7914:	6e5154        	excw
    7917:	327a      	add.n	a3, a2, a7
    7919:	42eaa1        	l32r	a10, 0xfffd84c4
    791c:	a24105        	call0	0xfffa9d30
    791f:	982d05        	call0	0xfff9fbf0
    7922:	caa2d5        	excw
    7925:	a0fd      	excw
    7927:	8338      	l32i.n	a3, a3, 32
    7929:	398c      	beqz.n	a9, 0x7930
    792b:	0219b2        	l16ui	a11, a9, 4
    792e:	3b3a      	add.n	a3, a11, a3
    7930:	07bc37        	bgeu	a12, a3, 0x793b
    7933:	7aeea1        	l32r	a10, 0xfffe64ec
    7936:	0b0c      	movi.n	a11, 0
    7938:	b27425        	excw
    793b:	0b0c      	movi.n	a11, 0
    793d:	0a0c      	movi.n	a10, 0
    793f:	4205e2        	l8ui	a14, a5, 66
    7942:	3d0c      	movi.n	a13, 3
    7944:	934ee0        	movnez	a4, a14, a14
    7947:	744040        	extui	a4, a4, 0, 8
    794a:	0bad76        	excw
    794d:	0154b7        	bbc	a4, a11, 0x7952
    7950:	a3aa      	add.n	a10, a3, a10
    7952:	f3aa      	add.n	a15, a3, a10
    7954:	0132f7        	bltu	a2, a15, 0x7959
    7957:	bb1b      	addi.n	a11, a11, 1
    7959:	0a2d      	mov.n	a2, a10
    795b:	f01d      	excw
    795d:	000000        	ill
    7960:	004136        	excw
    7963:	0db327        	bgeu	a3, a2, 0x7974
    7966:	170c      	movi.n	a7, 1
    7968:	04b347        	bgeu	a3, a4, 0x7970
    796b:	01b427        	bgeu	a4, a2, 0x7970
    796e:	070c      	movi.n	a7, 0
    7970:	072d      	mov.n	a2, a7
    7972:	f01d      	excw
    7974:	070c      	movi.n	a7, 0
    7976:	043427        	bltu	a4, a2, 0x797e
    7979:	013347        	bltu	a3, a4, 0x797e
    797c:	170c      	movi.n	a7, 1
    797e:	072d      	mov.n	a2, a7
    7980:	f01d      	excw
    7982:	360000        	excw
    7985:	8200a1        	l32r	a10, 0xfffe8188
    7988:	9db4a1        	l32r	a10, 0xfffef058
    798b:	187103        	excw
    798e:	317a      	add.n	a3, a1, a7
    7990:	7f          	.byte 0x7f
    7991:	997a      	add.n	a9, a9, a7
    7993:	036281        	l32r	a8, 0xfffc871c
    7996:	0352b6        	bltui	a2, 5, 0x799d
    7999:	661b96        	bltz	a11, 0x7ffe
    799c:	b05570        	addx8	a5, a5, a7
    799f:	558a      	add.n	a5, a5, a8
    79a1:	1166f0        	slli	a6, a6, 1
    79a4:	0724f6        	bgeui	a4, 2, 0x79af
    79a7:	7aeea1        	l32r	a10, 0xfffe6560
    79aa:	0b0c      	movi.n	a11, 0
    79ac:	b26ce5        	excw
    79af:	253647        	bltu	a6, a4, 0x79d8
    79b2:	81a8      	l32i.n	a10, a1, 32
    79b4:	e2a4b2        	movi	a11, 0x4e2
    79b7:	013b65        	excw
    79ba:	f4a0a0        	extui	a10, a10, 0, 16
    79bd:	e2a4b2        	movi	a11, 0x4e2
    79c0:	0135a5        	excw
    79c3:	f480a0        	extui	a8, a10, 0, 16
    79c6:	908840        	addx2	a8, a8, a4
    79c9:	07b867        	bgeu	a8, a6, 0x79d4
    79cc:	7aeea1        	l32r	a10, 0xfffe6584
    79cf:	0b0c      	movi.n	a11, 0
    79d1:	b26aa5        	excw
    79d4:	020c      	movi.n	a2, 0
    79d6:	f01d      	excw
    79d8:	c50392        	l8ui	a9, a3, 197
    79db:	c04460        	sub	a4, a4, a6
    79de:	89cc      	bnez.n	a9, 0x79ea
    79e0:	0105a2        	l8ui	a10, a5, 1
    79e3:	3a8c      	beqz.n	a10, 0x79ea
    79e5:	fec422        	addi	a2, a4, -2
    79e8:	f01d      	excw
    79ea:	2027b2        	l32i	a11, a7, 128
    79ed:	010592        	l8ui	a9, a5, 1
    79f0:	09eb27        	bbsi	a11, 2, 0x79fd
    79f3:	025926        	beqi	a9, 5, 0x79f9
    79f6:	033966        	bnei	a9, 3, 0x79fd
    79f9:	042d      	mov.n	a2, a4
    79fb:	f01d      	excw
    79fd:	01ad      	mov.n	a10, a1
    79ff:	7ad461        	l32r	a6, 0xfffe6550
    7a02:	b14b      	addi.n	a11, a1, 4
    7a04:	1d2682        	l32i	a8, a6, 116
    7a07:	c18b      	addi.n	a12, a1, 8
    7a09:	0008e0        	excw
    7a0c:	7a7ee1        	l32r	a14, 0xfffe6404
    7a0f:	e2a4b2        	movi	a11, 0x4e2
    7a12:	0105c2        	l8ui	a12, a5, 1
    7a15:	7b26d1        	l32r	a13, 0xfffe66b0
    7a18:	2fac66        	bnei	a12, 12, 0x7a4b
    7a1b:	e1a492        	movi	a9, 0x4e1
    7a1e:	3f1752        	l16ui	a5, a7, 126
    7a21:	9a1d82        	l16ui	a8, a13, 0x134
    7a24:	78a162        	movi	a6, 0x178
    7a27:	c16260        	mul16u	a6, a2, a6
    7a2a:	71a222        	movi	a2, 0x271
    7a2d:	6e6a      	add.n	a6, a14, a6
    7a2f:	800662        	l8ui	a6, a6, 128
    7a32:	822420        	mull	a2, a4, a2
    7a35:	906670        	addx2	a6, a6, a7
    7a38:	0c1662        	l16ui	a6, a6, 24
    7a3b:	738850        	excw
    7a3e:	668a      	add.n	a6, a6, a8
    7a40:	02b967        	bgeu	a9, a6, 0x7a46
    7a43:	006b06        	j	0x7bf3
    7a46:	22ba      	add.n	a2, a2, a11
    7a48:	006b06        	j	0x7bf8
    7a4b:	7ea462        	movi	a6, 0x47e
    7a4e:	556c66        	bnei	a12, 6, 0x7aa7
    7a51:	7b2781        	l32r	a8, 0xfffe66f0
    7a54:	7b09a1        	l32r	a10, 0xfffe6678
    7a57:	78a1f2        	movi	a15, 0x178
    7a5a:	c1f2f0        	mul16u	a15, a2, a15
    7a5d:	5c0a52        	l8ui	a5, a10, 92
    7a60:	5b0ac2        	l8ui	a12, a10, 91
    7a63:	fefa      	add.n	a15, a14, a15
    7a65:	800ff2        	l8ui	a15, a15, 128
    7a68:	5d0aa2        	l8ui	a10, a10, 93
    7a6b:	cc5a      	add.n	a12, a12, a5
    7a6d:	3f1752        	l16ui	a5, a7, 126
    7a70:	aaca      	add.n	a10, a10, a12
    7a72:	90ff70        	addx2	a15, a15, a7
    7a75:	9a1dc2        	l16ui	a12, a13, 0x134
    7a78:	0c1ff2        	l16ui	a15, a15, 24
    7a7b:	73cc50        	excw
    7a7e:	b0aaf0        	addx8	a10, a10, a15
    7a81:	aaca      	add.n	a10, a10, a12
    7a83:	02b8a7        	bgeu	a8, a10, 0x7a89
    7a86:	ffd6c6        	j	0x79e5
    7a89:	012e25        	excw
    7a8c:	0a2d      	mov.n	a2, a10
    7a8e:	e2a4b2        	movi	a11, 0x4e2
    7a91:	81a8      	l32i.n	a10, a1, 32
    7a93:	012da5        	excw
    7a96:	f480a0        	extui	a8, a10, 0, 16
    7a99:	858a      	add.n	a8, a5, a8
    7a9b:	c08680        	sub	a8, a6, a8
    7a9e:	02b287        	bgeu	a2, a8, 0x7aa4
    7aa1:	ffd506        	j	0x79f9
    7aa4:	ffcf46        	j	0x79e5
    7aa7:	81a8      	l32i.n	a10, a1, 32
    7aa9:	c40362        	l8ui	a6, a3, 196
    7aac:	41c9      	s32i.n	a12, a1, 16
    7aae:	1166f0        	slli	a6, a6, 1
    7ab1:	012ba5        	excw
    7ab4:	7ea482        	movi	a8, 0x47e
    7ab7:	21c8      	l32i.n	a12, a1, 8
    7ab9:	f4d0a0        	extui	a13, a10, 0, 16
    7abc:	71d9      	s32i.n	a13, a1, 28
    7abe:	ccda      	add.n	a12, a12, a13
    7ac0:	c6ca      	add.n	a12, a6, a12
    7ac2:	1168      	l32i.n	a6, a1, 4
    7ac4:	c088c0        	sub	a8, a8, a12
    7ac7:	02b867        	bgeu	a8, a6, 0x7acd
    7aca:	ffc5c6        	j	0x79e5
    7acd:	e2a4b2        	movi	a11, 0x4e2
    7ad0:	ac6a      	add.n	a10, a12, a6
    7ad2:	64caa2        	addi	a10, a10, 100
    7ad5:	012965        	excw
    7ad8:	41c8      	l32i.n	a12, a1, 16
    7ada:	c603b2        	l8ui	a11, a3, 198
    7add:	61a9      	s32i.n	a10, a1, 24
    7adf:	089bc7        	bne	a11, a12, 0x7aeb
    7ae2:	c703e2        	l8ui	a14, a3, 199
    7ae5:	0305d2        	l8ui	a13, a5, 3
    7ae8:	171de7        	beq	a13, a14, 0x7b03
    7aeb:	0a0c      	movi.n	a10, 0
    7aed:	7ad481        	l32r	a8, 0xfffe6640
    7af0:	b1cb      	addi.n	a11, a1, 12
    7af2:	1d2882        	l32i	a8, a8, 116
    7af5:	c18b      	addi.n	a12, a1, 8
    7af7:	0008e0        	excw
    7afa:	3188      	l32i.n	a8, a1, 12
    7afc:	1168      	l32i.n	a6, a1, 4
    7afe:	636680        	excw
    7b01:	1169      	s32i.n	a6, a1, 4
    7b03:	7a7ec1        	l32r	a12, 0xfffe64fc
    7b06:	78a1d2        	movi	a13, 0x178
    7b09:	c1d2d0        	mul16u	a13, a2, a13
    7b0c:	e2a4b2        	movi	a11, 0x4e2
    7b0f:	ccda      	add.n	a12, a12, a13
    7b11:	800cc2        	l8ui	a12, a12, 128
    7b14:	01a8      	l32i.n	a10, a1, 0
    7b16:	90cc70        	addx2	a12, a12, a7
    7b19:	0c1cc2        	l16ui	a12, a12, 24
    7b1c:	51c9      	s32i.n	a12, a1, 20
    7b1e:	c0aac0        	sub	a10, a10, a12
    7b21:	e2a4c2        	movi	a12, 0x4e2
    7b24:	aaca      	add.n	a10, a10, a12
    7b26:	012465        	excw
    7b29:	0a2d      	mov.n	a2, a10
    7b2b:	eadc      	bnez.n	a10, 0x7b4d
    7b2d:	e2a4e2        	movi	a14, 0x4e2
    7b30:	3f1782        	l16ui	a8, a7, 126
    7b33:	71a8      	l32i.n	a10, a1, 28
    7b35:	7b2691        	l32r	a9, 0xfffe67d0
    7b38:	51f8      	l32i.n	a15, a1, 20
    7b3a:	9a1992        	l16ui	a9, a9, 0x134
    7b3d:	ffaa      	add.n	a15, a15, a10
    7b3f:	738890        	excw
    7b42:	ff8a      	add.n	a15, a15, a8
    7b44:	64cff2        	addi	a15, a15, 100
    7b47:	02bef7        	bgeu	a14, a15, 0x7b4d
    7b4a:	ffa5c6        	j	0x79e5
    7b4d:	06ad      	mov.n	a10, a6
    7b4f:	61b8      	l32i.n	a11, a1, 24
    7b51:	02cd      	mov.n	a12, a2
    7b53:	ffe0e5        	excw
    7b56:	e9fa16        	beqz	a10, 0x79f9
    7b59:	0724f6        	bgeui	a4, 2, 0x7b64
    7b5c:	7aeea1        	l32r	a10, 0xfffe6714
    7b5f:	0b0c      	movi.n	a11, 0
    7b61:	b251a5        	excw
    7b64:	c003a2        	l8ui	a10, a3, 192
    7b67:	04a0a0        	extui	a10, a10, 0, 1
    7b6a:	e77a16        	beqz	a10, 0x79e5
    7b6d:	7afcb1        	l32r	a11, 0xfffe6760
    7b70:	4b0bc2        	l8ui	a12, a11, 75
    7b73:	e6ec16        	beqz	a12, 0x79e5
    7b76:	030592        	l8ui	a9, a5, 3
    7b79:	78a1e2        	movi	a14, 0x178
    7b7c:	c1e9e0        	mul16u	a14, a9, a14
    7b7f:	dbbb      	addi.n	a13, a11, 11
    7b81:	ddea      	add.n	a13, a13, a14
    7b83:	800dd2        	l8ui	a13, a13, 128
    7b86:	e5bd56        	bnez	a13, 0x79e5
    7b89:	fec4f2        	addi	a15, a4, -2
    7b8c:	e55f56        	bnez	a15, 0x79e5
    7b8f:	c70382        	l8ui	a8, a3, 199
    7b92:	c08890        	sub	a8, a8, a9
    7b95:	e4c856        	bnez	a8, 0x79e5
    7b98:	010592        	l8ui	a9, a5, 1
    7b9b:	990b      	addi.n	a9, a9, -1
    7b9d:	e44956        	bnez	a9, 0x79e5
    7ba0:	c603a2        	l8ui	a10, a3, 198
    7ba3:	aa0b      	addi.n	a10, a10, -1
    7ba5:	e3ca56        	bnez	a10, 0x79e5
    7ba8:	7ea4a2        	movi	a10, 0x47e
    7bab:	3f17b2        	l16ui	a11, a7, 126
    7bae:	71c8      	l32i.n	a12, a1, 28
    7bb0:	c40382        	l8ui	a8, a3, 196
    7bb3:	c65c      	movi.n	a6, 92
    7bb5:	c06680        	sub	a6, a6, a8
    7bb8:	90c8c0        	addx2	a12, a8, a12
    7bbb:	bbca      	add.n	a11, a11, a12
    7bbd:	1169      	s32i.n	a6, a1, 4
    7bbf:	c0aab0        	sub	a10, a10, a11
    7bc2:	11a5b2        	movi	a11, 0x511
    7bc5:	c0a6a0        	sub	a10, a6, a10
    7bc8:	aaba      	add.n	a10, a10, a11
    7bca:	e2a4b2        	movi	a11, 0x4e2
    7bcd:	0119e5        	excw
    7bd0:	0abd      	mov.n	a11, a10
    7bd2:	02cd      	mov.n	a12, a2
    7bd4:	06ad      	mov.n	a10, a6
    7bd6:	ffd8a5        	excw
    7bd9:	043a56        	bnez	a10, 0x7c20
    7bdc:	7aeff1        	l32r	a15, 0xfffe6798
    7bdf:	9d17d2        	l16ui	a13, a7, 0x13a
    7be2:	1e0c      	movi.n	a14, 1
    7be4:	dd1b      	addi.n	a13, a13, 1
    7be6:	424fe2        	s8i	a14, a15, 66
    7be9:	ffdfe2        	addmi	a14, a15, 0xffffff00
    7bec:	1d5ed2        	s16i	a13, a14, 58
    7bef:	220c      	movi.n	a2, 2
    7bf1:	f01d      	excw
    7bf3:	1eab82        	movi	a8, 0xfffffb1e
    7bf6:	668a      	add.n	a6, a6, a8
    7bf8:	81a8      	l32i.n	a10, a1, 32
    7bfa:	e2a4b2        	movi	a11, 0x4e2
    7bfd:	0116e5        	excw
    7c00:	f480a0        	extui	a8, a10, 0, 16
    7c03:	858a      	add.n	a8, a5, a8
    7c05:	228a      	add.n	a2, a2, a8
    7c07:	82ab82        	movi	a8, 0xfffffb82
    7c0a:	c02260        	sub	a2, a2, a6
    7c0d:	228a      	add.n	a2, a2, a8
    7c0f:	02ad      	mov.n	a10, a2
    7c11:	ffcfa5        	excw
    7c14:	02b2a7        	bgeu	a2, a10, 0x7c1a
    7c17:	ff7286        	j	0x79e5
    7c1a:	ddba56        	bnez	a10, 0x79f9
    7c1d:	ff7106        	j	0x79e5
    7c20:	7b28a1        	l32r	a10, 0xfffe68c0
    7c23:	0305b2        	l8ui	a11, a5, 3
    7c26:	78a1c2        	movi	a12, 0x178
    7c29:	c1bbc0        	mul16u	a11, a11, a12
    7c2c:	be0792        	l8ui	a9, a7, 190
    7c2f:	aaba      	add.n	a10, a10, a11
    7c31:	800aa2        	l8ui	a10, a10, 128
    7c34:	0239a7        	bltu	a9, a10, 0x7c3a
    7c37:	ff6a86        	j	0x79e5
    7c3a:	9d17d2        	l16ui	a13, a7, 0x13a
    7c3d:	7b26e1        	l32r	a14, 0xfffe68d8
    7c40:	dd1b      	addi.n	a13, a13, 1
    7c42:	1d5ed2        	s16i	a13, a14, 58
    7c45:	ffe986        	j	0x7bef
    7c48:	008136        	excw
    7c4b:	2129      	s32i.n	a2, a1, 8
    7c4d:	1a0c      	movi.n	a10, 1
    7c4f:	0b0c      	movi.n	a11, 0
    7c51:	0c0c      	movi.n	a12, 0
    7c53:	1149      	s32i.n	a4, a1, 4
    7c55:	0139      	s32i.n	a3, a1, 0
    7c57:	7a2d81        	l32r	a8, 0xfffe650c
    7c5a:	07dd      	mov.n	a13, a7
    7c5c:	4159      	s32i.n	a5, a1, 16
    7c5e:	5179      	s32i.n	a7, a1, 20
    7c60:	075d      	mov.n	a5, a7
    7c62:	7b0971        	l32r	a7, 0xfffe6888
    7c65:	ba2882        	l32i	a8, a8, 0x2e8
    7c68:	810732        	l8ui	a3, a7, 129
    7c6b:	830742        	l8ui	a4, a7, 131
    7c6e:	820792        	l8ui	a9, a7, 130
    7c71:	3199      	s32i.n	a9, a1, 12
    7c73:	840772        	l8ui	a7, a7, 132
    7c76:	0008e0        	excw
    7c79:	7a6581        	l32r	a8, 0xfffe6610
    7c7c:	0d0c      	movi.n	a13, 0
    7c7e:	290c      	movi.n	a9, 2
    7c80:	7b2921        	l32r	a2, 0xfffe6924
    7c83:	0020c0        	memw
    7c86:	f0a0c2        	movi	a12, 240
    7c89:	5c62d2        	s32i	a13, a2, 0x170
    7c8c:	11a700        	slli	a10, a7, 16
    7c8f:	7b2ab1        	l32r	a11, 0xfffe6938
    7c92:	3178      	l32i.n	a7, a1, 12
    7c94:	10aab0        	and	a10, a10, a11
    7c97:	7b2bb1        	l32r	a11, 0xfffe6944
    7c9a:	0177c0        	slli	a7, a7, 20
    7c9d:	1077b0        	and	a7, a7, a11
    7ca0:	2077a0        	or	a7, a7, a10
    7ca3:	21a8      	l32i.n	a10, a1, 8
    7ca5:	7b2dd1        	l32r	a13, 0xfffe695c
    7ca8:	11bac0        	slli	a11, a10, 4
    7cab:	10bbc0        	and	a11, a11, a12
    7cae:	34a0a0        	extui	a10, a10, 0, 4
    7cb1:	20aab0        	or	a10, a10, a11
    7cb4:	7b2cc1        	l32r	a12, 0xfffe6964
    7cb7:	11b440        	slli	a11, a4, 12
    7cba:	10bbc0        	and	a11, a11, a12
    7cbd:	11c380        	slli	a12, a3, 8
    7cc0:	10ccd0        	and	a12, a12, a13
    7cc3:	20bbc0        	or	a11, a11, a12
    7cc6:	20aab0        	or	a10, a10, a11
    7cc9:	2077a0        	or	a7, a7, a10
    7ccc:	0020c0        	memw
    7ccf:	5d6272        	s32i	a7, a2, 0x174
    7cd2:	0020c0        	memw
    7cd5:	5c6292        	s32i	a9, a2, 0x170
    7cd8:	6888      	l32i.n	a8, a8, 24
    7cda:	1a0c      	movi.n	a10, 1
    7cdc:	0008e0        	excw
    7cdf:	0b0c      	movi.n	a11, 0
    7ce1:	7af0a1        	l32r	a10, 0xfffe68a4
    7ce4:	e8a342        	movi	a4, 0x3e8
    7ce7:	0020c0        	memw
    7cea:	5c22c2        	l32i	a12, a2, 0x170
    7ced:	bb1b      	addi.n	a11, a11, 1
    7cef:	f4b0b0        	extui	a11, a11, 0, 16
    7cf2:	07b4b7        	bgeu	a4, a11, 0x7cfd
    7cf5:	1c0c      	movi.n	a12, 1
    7cf7:	4d4ac2        	s8i	a12, a10, 77
    7cfa:	000086        	j	0x7d00
    7cfd:	e67cf7        	bbci	a12, 31, 0x7ce7
    7d00:	05dd      	mov.n	a13, a5
    7d02:	0020c0        	memw
    7d05:	01c8      	l32i.n	a12, a1, 0
    7d07:	6722b2        	l32i	a11, a2, 0x19c
    7d0a:	400300        	ssr	a3
    7d0d:	0cb9      	s32i.n	a11, a12, 0
    7d0f:	b1b0b0        	sra	a11, a11
    7d12:	0cb9      	s32i.n	a11, a12, 0
    7d14:	0020c0        	memw
    7d17:	11b8      	l32i.n	a11, a1, 4
    7d19:	6b22a2        	l32i	a10, a2, 0x1ac
    7d1c:	400300        	ssr	a3
    7d1f:	0ba9      	s32i.n	a10, a11, 0
    7d21:	b1a0a0        	sra	a10, a10
    7d24:	0ba9      	s32i.n	a10, a11, 0
    7d26:	0020c0        	memw
    7d29:	1a0c      	movi.n	a10, 1
    7d2b:	1b0c      	movi.n	a11, 1
    7d2d:	1c0c      	movi.n	a12, 1
    7d2f:	7a2d81        	l32r	a8, 0xfffe65e4
    7d32:	090c      	movi.n	a9, 0
    7d34:	ba2882        	l32i	a8, a8, 0x2e8
    7d37:	5c6292        	s32i	a9, a2, 0x170
    7d3a:	0008e0        	excw
    7d3d:	050c      	movi.n	a5, 0
    7d3f:	490c      	movi.n	a9, 4
    7d41:	0020c0        	memw
    7d44:	5d6272        	s32i	a7, a2, 0x174
    7d47:	0020c0        	memw
    7d4a:	7a6581        	l32r	a8, 0xfffe66e0
    7d4d:	5c6292        	s32i	a9, a2, 0x170
    7d50:	6888      	l32i.n	a8, a8, 24
    7d52:	1a0c      	movi.n	a10, 1
    7d54:	0008e0        	excw
    7d57:	0b0c      	movi.n	a11, 0
    7d59:	0020c0        	memw
    7d5c:	5c22c2        	l32i	a12, a2, 0x170
    7d5f:	bb1b      	addi.n	a11, a11, 1
    7d61:	f4b0b0        	extui	a11, a11, 0, 16
    7d64:	0ab4b7        	bgeu	a4, a11, 0x7d72
    7d67:	7af0d1        	l32r	a13, 0xfffe6928
    7d6a:	2c0c      	movi.n	a12, 2
    7d6c:	4d4dc2        	s8i	a12, a13, 77
    7d6f:	000086        	j	0x7d75
    7d72:	e37cf7        	bbci	a12, 31, 0x7d59
    7d75:	0020c0        	memw
    7d78:	41d8      	l32i.n	a13, a1, 16
    7d7a:	6722c2        	l32i	a12, a2, 0x19c
    7d7d:	400300        	ssr	a3
    7d80:	1dc9      	s32i.n	a12, a13, 4
    7d82:	b1c0c0        	sra	a12, a12
    7d85:	1dc9      	s32i.n	a12, a13, 4
    7d87:	0020c0        	memw
    7d8a:	400300        	ssr	a3
    7d8d:	6b22b2        	l32i	a11, a2, 0x1ac
    7d90:	16b9      	s32i.n	a11, a6, 4
    7d92:	b1b0b0        	sra	a11, a11
    7d95:	16b9      	s32i.n	a11, a6, 4
    7d97:	0020c0        	memw
    7d9a:	5c6252        	s32i	a5, a2, 0x170
    7d9d:	7a42a1        	l32r	a10, 0xfffe66a8
    7da0:	20a7a0        	or	a10, a7, a10
    7da3:	0020c0        	memw
    7da6:	5d62a2        	s32i	a10, a2, 0x174
    7da9:	0020c0        	memw
    7dac:	1a0c      	movi.n	a10, 1
    7dae:	7a6581        	l32r	a8, 0xfffe6744
    7db1:	490c      	movi.n	a9, 4
    7db3:	6888      	l32i.n	a8, a8, 24
    7db5:	5c6292        	s32i	a9, a2, 0x170
    7db8:	0008e0        	excw
    7dbb:	0b0c      	movi.n	a11, 0
    7dbd:	0020c0        	memw
    7dc0:	5c22c2        	l32i	a12, a2, 0x170
    7dc3:	bb1b      	addi.n	a11, a11, 1
    7dc5:	f4b0b0        	extui	a11, a11, 0, 16
    7dc8:	31b4b7        	bgeu	a4, a11, 0x7dfd
    7dcb:	7af0d1        	l32r	a13, 0xfffe698c
    7dce:	3c0c      	movi.n	a12, 3
    7dd0:	4d4dc2        	s8i	a12, a13, 77
    7dd3:	0020c0        	memw
    7dd6:	4188      	l32i.n	a8, a1, 16
    7dd8:	6722f2        	l32i	a15, a2, 0x19c
    7ddb:	400300        	ssr	a3
    7dde:	08f9      	s32i.n	a15, a8, 0
    7de0:	b1f0f0        	sra	a15, a15
    7de3:	08f9      	s32i.n	a15, a8, 0
    7de5:	0020c0        	memw
    7de8:	400300        	ssr	a3
    7deb:	6b22e2        	l32i	a14, a2, 0x1ac
    7dee:	06e9      	s32i.n	a14, a6, 0
    7df0:	b1e0e0        	sra	a14, a14
    7df3:	06e9      	s32i.n	a14, a6, 0
    7df5:	0020c0        	memw
    7df8:	5c6252        	s32i	a5, a2, 0x170
    7dfb:	f01d      	excw
    7dfd:	bc7cf7        	bbci	a12, 31, 0x7dbd
    7e00:	fff3c6        	j	0x7dd3
    7e03:	413600        	srli	a3, a0, 6
    7e06:	06dd01        	l32r	a0, 0xfffc997c
    7e09:	7b0991        	l32r	a9, 0xfffe6a30
    7e0c:	04fd      	mov.n	a15, a4
    7e0e:	05ed      	mov.n	a14, a5
    7e10:	074d      	mov.n	a4, a7
    7e12:	050c      	movi.n	a5, 0
    7e14:	7b2e71        	l32r	a7, 0xfffe6acc
    7e17:	1e6142        	s32i	a4, a1, 120
    7e1a:	f159      	s32i.n	a5, a1, 60
    7e1c:	e159      	s32i.n	a5, a1, 56
    7e1e:	d159      	s32i.n	a5, a1, 52
    7e20:	4719c2        	l16ui	a12, a9, 142
    7e23:	8009b2        	l8ui	a11, a9, 128
    7e26:	c1b9      	s32i.n	a11, a1, 48
    7e28:	4919a2        	l16ui	a10, a9, 146
    7e2b:	4819b2        	l16ui	a11, a9, 144
    7e2e:	850992        	l8ui	a9, a9, 133
    7e31:	0020c0        	memw
    7e34:	1561e2        	s32i	a14, a1, 84
    7e37:	1461d2        	s32i	a13, a1, 80
    7e3a:	186122        	s32i	a2, a1, 96
    7e3d:	176132        	s32i	a3, a1, 92
    7e40:	952772        	l32i	a7, a7, 0x254
    7e43:	1661f2        	s32i	a15, a1, 88
    7e46:	146370        	extui	a6, a7, 3, 2
    7e49:	768c      	beqz.n	a6, 0x7e54
    7e4b:	0a2626        	beqi	a6, 2, 0x7e59
    7e4e:	fdc6d2        	addi	a13, a6, -3
    7e51:	0b7d16        	beqz	a13, 0x7f0c
    7e54:	a60c      	movi.n	a6, 10
    7e56:	000046        	j	0x7e5b
    7e59:	960c      	movi.n	a6, 9
    7e5b:	196192        	s32i	a9, a1, 100
    7e5e:	1a61a2        	s32i	a10, a1, 104
    7e61:	1b61b2        	s32i	a11, a1, 108
    7e64:	1c61c2        	s32i	a12, a1, 112
    7e67:	620c      	movi.n	a2, 6
    7e69:	d159      	s32i.n	a5, a1, 52
    7e6b:	7af031        	l32r	a3, 0xfffe6a2c
    7e6e:	24f070        	extui	a15, a7, 0, 3
    7e71:	1d61f2        	s32i	a15, a1, 116
    7e74:	070c      	movi.n	a7, 0
    7e76:	4d4352        	s8i	a5, a3, 77
    7e79:	04fd      	mov.n	a15, a4
    7e7b:	c1a8      	l32i.n	a10, a1, 48
    7e7d:	38c1b2        	addi	a11, a1, 56
    7e80:	3cc1c2        	addi	a12, a1, 60
    7e83:	7a2d81        	l32r	a8, 0xfffe6738
    7e86:	40c1d2        	addi	a13, a1, 64
    7e89:	bd2882        	l32i	a8, a8, 0x2f4
    7e8c:	48c1e2        	addi	a14, a1, 72
    7e8f:	0008e0        	excw
    7e92:	4d0392        	l8ui	a9, a3, 77
    7e95:	a71b      	addi.n	a10, a7, 1
    7e97:	898c      	beqz.n	a9, 0x7ea3
    7e99:	4d4352        	s8i	a5, a3, 77
    7e9c:	c20c      	movi.n	a2, 12
    7e9e:	0a7d      	mov.n	a7, a10
    7ea0:	001406        	j	0x7ef4
    7ea3:	192182        	l32i	a8, a1, 100
    7ea6:	1821f2        	l32i	a15, a1, 96
    7ea9:	1521b2        	l32i	a11, a1, 84
    7eac:	1621a2        	l32i	a10, a1, 88
    7eaf:	1d2192        	l32i	a9, a1, 116
    7eb2:	1421e2        	l32i	a14, a1, 80
    7eb5:	f1d8      	l32i.n	a13, a1, 60
    7eb7:	e1c8      	l32i.n	a12, a1, 56
    7eb9:	0169      	s32i.n	a6, a1, 0
    7ebb:	a1e9      	s32i.n	a14, a1, 40
    7ebd:	7199      	s32i.n	a9, a1, 28
    7ebf:	81a9      	s32i.n	a10, a1, 32
    7ec1:	91b9      	s32i.n	a11, a1, 36
    7ec3:	51f9      	s32i.n	a15, a1, 20
    7ec5:	6189      	s32i.n	a8, a1, 24
    7ec7:	30c1f2        	addi	a15, a1, 48
    7eca:	7a2d81        	l32r	a8, 0xfffe6780
    7ecd:	1a21b2        	l32i	a11, a1, 104
    7ed0:	1b21a2        	l32i	a10, a1, 108
    7ed3:	1c2192        	l32i	a9, a1, 112
    7ed6:	1721e2        	l32i	a14, a1, 92
    7ed9:	41e9      	s32i.n	a14, a1, 16
    7edb:	1199      	s32i.n	a9, a1, 4
    7edd:	21a9      	s32i.n	a10, a1, 8
    7edf:	31b9      	s32i.n	a11, a1, 12
    7ee1:	40c1a2        	addi	a10, a1, 64
    7ee4:	48c1b2        	addi	a11, a1, 72
    7ee7:	b42882        	l32i	a8, a8, 0x2d0
    7eea:	34c1e2        	addi	a14, a1, 52
    7eed:	0008e0        	excw
    7ef0:	a71b      	addi.n	a10, a7, 1
    7ef2:	0a7d      	mov.n	a7, a10
    7ef4:	d1b8      	l32i.n	a11, a1, 52
    7ef6:	051b66        	bnei	a11, 1, 0x7eff
    7ef9:	02ba27        	bgeu	a10, a2, 0x7eff
    7efc:	ffde46        	j	0x7e79
    7eff:	4c03f2        	l8ui	a15, a3, 76
    7f02:	180c      	movi.n	a8, 1
    7f04:	93f8b0        	movnez	a15, a8, a11
    7f07:	4c43f2        	s8i	a15, a3, 76
    7f0a:	f01d      	excw
    7f0c:	860c      	movi.n	a6, 8
    7f0e:	ffd246        	j	0x7e5b
    7f11:	000000        	ill
    7f14:	008136        	excw
    7f17:	7a2de1        	l32r	a14, 0xfffe67cc
    7f1a:	039d      	mov.n	a9, a3
    7f1c:	02dd      	mov.n	a13, a2
    7f1e:	07ad      	mov.n	a10, a7
    7f20:	06bd      	mov.n	a11, a6
    7f22:	05cd      	mov.n	a12, a5
    7f24:	21c9      	s32i.n	a12, a1, 8
    7f26:	11b9      	s32i.n	a11, a1, 4
    7f28:	01a9      	s32i.n	a10, a1, 0
    7f2a:	7b2d71        	l32r	a7, 0xfffe6be0
    7f2d:	7b0921        	l32r	a2, 0xfffe6b54
    7f30:	f0a062        	movi	a6, 240
    7f33:	1154c0        	slli	a5, a4, 4
    7f36:	343040        	extui	a3, a4, 0, 4
    7f39:	ba2ee2        	l32i	a14, a14, 0x2e8
    7f3c:	122142        	l32i	a4, a1, 72
    7f3f:	105560        	and	a5, a5, a6
    7f42:	203350        	or	a3, a3, a5
    7f45:	810262        	l8ui	a6, a2, 129
    7f48:	830252        	l8ui	a5, a2, 131
    7f4b:	116680        	slli	a6, a6, 8
    7f4e:	106670        	and	a6, a6, a7
    7f51:	7b2c71        	l32r	a7, 0xfffe6c04
    7f54:	115540        	slli	a5, a5, 12
    7f57:	105570        	and	a5, a5, a7
    7f5a:	070c      	movi.n	a7, 0
    7f5c:	205560        	or	a5, a5, a6
    7f5f:	203350        	or	a3, a3, a5
    7f62:	7b2a61        	l32r	a6, 0xfffe6c0c
    7f65:	840252        	l8ui	a5, a2, 132
    7f68:	820222        	l8ui	a2, a2, 130
    7f6b:	115500        	slli	a5, a5, 16
    7f6e:	105560        	and	a5, a5, a6
    7f71:	7b2b61        	l32r	a6, 0xfffe6c20
    7f74:	0122c0        	slli	a2, a2, 20
    7f77:	102260        	and	a2, a2, a6
    7f7a:	861c      	movi.n	a6, 24
    7f7c:	202250        	or	a2, a2, a5
    7f7f:	202230        	or	a2, a2, a3
    7f82:	112152        	l32i	a5, a1, 68
    7f85:	4159      	s32i.n	a5, a1, 16
    7f87:	102132        	l32i	a3, a1, 64
    7f8a:	5139      	s32i.n	a3, a1, 20
    7f8c:	e8a352        	movi	a5, 0x3e8
    7f8f:	7b2931        	l32r	a3, 0xfffe6c34
    7f92:	7ddc      	bnez.n	a13, 0x7fad
    7f94:	3199      	s32i.n	a9, a1, 12
    7f96:	0020c0        	memw
    7f99:	5c6372        	s32i	a7, a3, 0x170
    7f9c:	14a916        	beqz	a9, 0x80ea
    7f9f:	1a0c      	movi.n	a10, 1
    7fa1:	0b0c      	movi.n	a11, 0
    7fa3:	0c0c      	movi.n	a12, 0
    7fa5:	0d0c      	movi.n	a13, 0
    7fa7:	000ee0        	excw
    7faa:	0051c6        	j	0x80f5
    7fad:	0020c0        	memw
    7fb0:	5c6372        	s32i	a7, a3, 0x170
    7fb3:	1a0c      	movi.n	a10, 1
    7fb5:	1b0c      	movi.n	a11, 1
    7fb7:	1c0c      	movi.n	a12, 1
    7fb9:	07dd      	mov.n	a13, a7
    7fbb:	000ee0        	excw
    7fbe:	7a3191        	l32r	a9, 0xfffe6884
    7fc1:	209290        	or	a9, a2, a9
    7fc4:	0020c0        	memw
    7fc7:	5d6392        	s32i	a9, a3, 0x174
    7fca:	0020c0        	memw
    7fcd:	7a6581        	l32r	a8, 0xfffe6964
    7fd0:	5c6362        	s32i	a6, a3, 0x170
    7fd3:	6888      	l32i.n	a8, a8, 24
    7fd5:	1a0c      	movi.n	a10, 1
    7fd7:	0008e0        	excw
    7fda:	7af021        	l32r	a2, 0xfffe6b9c
    7fdd:	0a0c      	movi.n	a10, 0
    7fdf:	0020c0        	memw
    7fe2:	5c23b2        	l32i	a11, a3, 0x170
    7fe5:	aa1b      	addi.n	a10, a10, 1
    7fe7:	f4a0a0        	extui	a10, a10, 0, 16
    7fea:	47b5a7        	bgeu	a5, a10, 0x8035
    7fed:	bb0c      	movi.n	a11, 11
    7fef:	4c42b2        	s8i	a11, a2, 76
    7ff2:	0020c0        	memw
    7ff5:	21d8      	l32i.n	a13, a1, 8
    7ff7:	6723c2        	l32i	a12, a3, 0x19c
    7ffa:	0dc9      	s32i.n	a12, a13, 0
    7ffc:	0020c0        	memw
    7fff:	51b8      	l32i.n	a11, a1, 20
    8001:	6823a2        	l32i	a10, a3, 0x1a0
    8004:	0ba9      	s32i.n	a10, a11, 0
    8006:	0020c0        	memw
    8009:	1198      	l32i.n	a9, a1, 4
    800b:	6b2382        	l32i	a8, a3, 0x1ac
    800e:	0989      	s32i.n	a8, a9, 0
    8010:	0020c0        	memw
    8013:	41f8      	l32i.n	a15, a1, 16
    8015:	6c23e2        	l32i	a14, a3, 0x1b0
    8018:	0fe9      	s32i.n	a14, a15, 0
    801a:	0020c0        	memw
    801d:	01d8      	l32i.n	a13, a1, 0
    801f:	6923c2        	l32i	a12, a3, 0x1a4
    8022:	0dc9      	s32i.n	a12, a13, 0
    8024:	0020c0        	memw
    8027:	6a23e2        	l32i	a14, a3, 0x1a8
    802a:	0d7e17        	bbci	a14, 17, 0x803b
    802d:	ef6c      	movi.n	a15, -18
    802f:	20eef0        	or	a14, a14, a15
    8032:	000146        	j	0x803b
    8035:	a67bf7        	bbci	a11, 31, 0x7fdf
    8038:	ffed86        	j	0x7ff2
    803b:	04e9      	s32i.n	a14, a4, 0
    803d:	0020c0        	memw
    8040:	5c6372        	s32i	a7, a3, 0x170
    8043:	1a0c      	movi.n	a10, 1
    8045:	1b0c      	movi.n	a11, 1
    8047:	7a2d81        	l32r	a8, 0xfffe68fc
    804a:	1c0c      	movi.n	a12, 1
    804c:	ba2882        	l32i	a8, a8, 0x2e8
    804f:	1d0c      	movi.n	a13, 1
    8051:	0008e0        	excw
    8054:	7a2d41        	l32r	a4, 0xfffe6908
    8057:	0020c0        	memw
    805a:	7a6581        	l32r	a8, 0xfffe69f0
    805d:	5c6362        	s32i	a6, a3, 0x170
    8060:	6888      	l32i.n	a8, a8, 24
    8062:	1a0c      	movi.n	a10, 1
    8064:	0008e0        	excw
    8067:	0a0c      	movi.n	a10, 0
    8069:	0020c0        	memw
    806c:	5c23b2        	l32i	a11, a3, 0x170
    806f:	aa1b      	addi.n	a10, a10, 1
    8071:	f4a0a0        	extui	a10, a10, 0, 16
    8074:	07b5a7        	bgeu	a5, a10, 0x807f
    8077:	cb0c      	movi.n	a11, 12
    8079:	4c42b2        	s8i	a11, a2, 76
    807c:	000086        	j	0x8082
    807f:	e67bf7        	bbci	a11, 31, 0x8069
    8082:	1321d2        	l32i	a13, a1, 76
    8085:	0020c0        	memw
    8088:	6723c2        	l32i	a12, a3, 0x19c
    808b:	0dc9      	s32i.n	a12, a13, 0
    808d:	58c1b2        	addi	a11, a1, 88
    8090:	0bb8      	l32i.n	a11, a11, 0
    8092:	0020c0        	memw
    8095:	6823a2        	l32i	a10, a3, 0x1a0
    8098:	0ba9      	s32i.n	a10, a11, 0
    809a:	50c192        	addi	a9, a1, 80
    809d:	0998      	l32i.n	a9, a9, 0
    809f:	0020c0        	memw
    80a2:	6b2382        	l32i	a8, a3, 0x1ac
    80a5:	0989      	s32i.n	a8, a9, 0
    80a7:	5cc1f2        	addi	a15, a1, 92
    80aa:	0ff8      	l32i.n	a15, a15, 0
    80ac:	0020c0        	memw
    80af:	6c23e2        	l32i	a14, a3, 0x1b0
    80b2:	0fe9      	s32i.n	a14, a15, 0
    80b4:	54c1d2        	addi	a13, a1, 84
    80b7:	0dd8      	l32i.n	a13, a13, 0
    80b9:	0020c0        	memw
    80bc:	6923c2        	l32i	a12, a3, 0x1a4
    80bf:	0dc9      	s32i.n	a12, a13, 0
    80c1:	0020c0        	memw
    80c4:	6a23e2        	l32i	a14, a3, 0x1a8
    80c7:	ef6c      	movi.n	a15, -18
    80c9:	027e17        	bbci	a14, 17, 0x80cf
    80cc:	20eef0        	or	a14, a14, a15
    80cf:	182192        	l32i	a9, a1, 96
    80d2:	09e9      	s32i.n	a14, a9, 0
    80d4:	0020c0        	memw
    80d7:	5c6372        	s32i	a7, a3, 0x170
    80da:	1a0c      	movi.n	a10, 1
    80dc:	0b0c      	movi.n	a11, 0
    80de:	0c0c      	movi.n	a12, 0
    80e0:	ba2482        	l32i	a8, a4, 0x2e8
    80e3:	0d0c      	movi.n	a13, 0
    80e5:	0008e0        	excw
    80e8:	f01d      	excw
    80ea:	1a0c      	movi.n	a10, 1
    80ec:	1b0c      	movi.n	a11, 1
    80ee:	1c0c      	movi.n	a12, 1
    80f0:	0d0c      	movi.n	a13, 0
    80f2:	000ee0        	excw
    80f5:	0020c0        	memw
    80f8:	5d6322        	s32i	a2, a3, 0x174
    80fb:	31a8      	l32i.n	a10, a1, 12
    80fd:	190c      	movi.n	a9, 1
    80ff:	9369a0        	movnez	a6, a9, a10
    8102:	0020c0        	memw
    8105:	7a6581        	l32r	a8, 0xfffe6a9c
    8108:	5c6362        	s32i	a6, a3, 0x170
    810b:	6888      	l32i.n	a8, a8, 24
    810d:	1a0c      	movi.n	a10, 1
    810f:	0008e0        	excw
    8112:	0a0c      	movi.n	a10, 0
    8114:	0020c0        	memw
    8117:	5c23b2        	l32i	a11, a3, 0x170
    811a:	aa1b      	addi.n	a10, a10, 1
    811c:	f4a0a0        	extui	a10, a10, 0, 16
    811f:	4ab5a7        	bgeu	a5, a10, 0x816d
    8122:	7af0c1        	l32r	a12, 0xfffe6ce4
    8125:	ab0c      	movi.n	a11, 10
    8127:	4c4cb2        	s8i	a11, a12, 76
    812a:	0020c0        	memw
    812d:	21e8      	l32i.n	a14, a1, 8
    812f:	6723d2        	l32i	a13, a3, 0x19c
    8132:	0ed9      	s32i.n	a13, a14, 0
    8134:	0020c0        	memw
    8137:	51c8      	l32i.n	a12, a1, 20
    8139:	6823b2        	l32i	a11, a3, 0x1a0
    813c:	0cb9      	s32i.n	a11, a12, 0
    813e:	0020c0        	memw
    8141:	11a8      	l32i.n	a10, a1, 4
    8143:	6b2392        	l32i	a9, a3, 0x1ac
    8146:	0a99      	s32i.n	a9, a10, 0
    8148:	0020c0        	memw
    814b:	4188      	l32i.n	a8, a1, 16
    814d:	6c23f2        	l32i	a15, a3, 0x1b0
    8150:	08f9      	s32i.n	a15, a8, 0
    8152:	0020c0        	memw
    8155:	01e8      	l32i.n	a14, a1, 0
    8157:	6923d2        	l32i	a13, a3, 0x1a4
    815a:	0ed9      	s32i.n	a13, a14, 0
    815c:	0020c0        	memw
    815f:	6a23e2        	l32i	a14, a3, 0x1a8
    8162:	0d7e17        	bbci	a14, 17, 0x8173
    8165:	ef6c      	movi.n	a15, -18
    8167:	20eef0        	or	a14, a14, a15
    816a:	000146        	j	0x8173
    816d:	a37bf7        	bbci	a11, 31, 0x8114
    8170:	ffed86        	j	0x812a
    8173:	04e9      	s32i.n	a14, a4, 0
    8175:	0020c0        	memw
    8178:	5c6372        	s32i	a7, a3, 0x170
    817b:	f01d      	excw
    817d:	000000        	ill
    8180:	004136        	excw
    8183:	7af021        	l32r	a2, 0xfffe6d44
    8186:	030c      	movi.n	a3, 0
    8188:	142282        	l32i	a8, a2, 80
    818b:	4c4232        	s8i	a3, a2, 76
    818e:	0008e0        	excw
    8191:	4c0292        	l8ui	a9, a2, 76
    8194:	299c      	beqz.n	a9, 0x81aa
    8196:	7a2d81        	l32r	a8, 0xfffe6a4c
    8199:	c22882        	l32i	a8, a8, 0x308
    819c:	4c4232        	s8i	a3, a2, 76
    819f:	0008e0        	excw
    81a2:	7a61a1        	l32r	a10, 0xfffe6b28
    81a5:	190c      	movi.n	a9, 1
    81a7:	004a92        	s8i	a9, a10, 0
    81aa:	f01d      	excw
    81ac:	004136        	excw
    81af:	7b3421        	l32r	a2, 0xfffe6e80
    81b2:	7b3351        	l32r	a5, 0xfffe6e80
    81b5:	7b3291        	l32r	a9, 0xfffe6e80
    81b8:	7b31a1        	l32r	a10, 0xfffe6e7c
    81bb:	7b2f31        	l32r	a3, 0xfffe6e78
    81be:	7af0f1        	l32r	a15, 0xfffe6d80
    81c1:	c12342        	l32i	a4, a3, 0x304
    81c4:	8f23b2        	l32i	a11, a3, 0x23c
    81c7:	c02382        	l32i	a8, a3, 0x300
    81ca:	01d3c2        	addmi	a12, a3, 0x100
    81cd:	cb2ce2        	l32i	a14, a12, 0x32c
    81d0:	cc2cd2        	l32i	a13, a12, 0x330
    81d3:	afd9      	s32i.n	a13, a15, 40
    81d5:	8e63a2        	s32i	a10, a3, 0x238
    81d8:	8f6392        	s32i	a9, a3, 0x23c
    81db:	c06352        	s32i	a5, a3, 0x300
    81de:	c16322        	s32i	a2, a3, 0x304
    81e1:	9fe9      	s32i.n	a14, a15, 36
    81e3:	5f49      	s32i.n	a4, a15, 20
    81e5:	2fb9      	s32i.n	a11, a15, 8
    81e7:	c02cc2        	l32i	a12, a12, 0x300
    81ea:	4f89      	s32i.n	a8, a15, 16
    81ec:	7b35d1        	l32r	a13, 0xfffe6ec0
    81ef:	7b3781        	l32r	a8, 0xfffe6ecc
    81f2:	3163d2        	s32i	a13, a3, 196
    81f5:	146fc2        	s32i	a12, a15, 80
    81f8:	7b30b1        	l32r	a11, 0xfffe6eb8
    81fb:	ffd342        	addmi	a4, a3, 0xffffff00
    81fe:	cba9      	s32i.n	a10, a11, 48
    8200:	db99      	s32i.n	a9, a11, 52
    8202:	6b59      	s32i.n	a5, a11, 24
    8204:	7b29      	s32i.n	a2, a11, 28
    8206:	3be8      	l32i.n	a14, a11, 12
    8208:	cfe9      	s32i.n	a14, a15, 48
    820a:	7b3821        	l32r	a2, 0xfffe6eec
    820d:	1458      	l32i.n	a5, a4, 4
    820f:	3498      	l32i.n	a9, a4, 12
    8211:	7b36a1        	l32r	a10, 0xfffe6eec
    8214:	3bd9      	s32i.n	a13, a11, 12
    8216:	4bc8      	l32i.n	a12, a11, 16
    8218:	7b39d1        	l32r	a13, 0xfffe6efc
    821b:	dfc9      	s32i.n	a12, a15, 52
    821d:	3263a2        	s32i	a10, a3, 200
    8220:	ef99      	s32i.n	a9, a15, 56
    8222:	3489      	s32i.n	a8, a4, 12
    8224:	ff59      	s32i.n	a5, a15, 60
    8226:	912382        	l32i	a8, a3, 0x244
    8229:	c32352        	l32i	a5, a3, 0x30c
    822c:	f92392        	l32i	a9, a3, 0x3e4
    822f:	4ba9      	s32i.n	a10, a11, 16
    8231:	1429      	s32i.n	a2, a4, 4
    8233:	7b3aa1        	l32r	a10, 0xfffe6f1c
    8236:	272322        	l32i	a2, a3, 156
    8239:	106f92        	s32i	a9, a15, 64
    823c:	6f59      	s32i.n	a5, a15, 24
    823e:	3f89      	s32i.n	a8, a15, 12
    8240:	7b4051        	l32r	a5, 0xfffe6f40
    8243:	04d382        	addmi	a8, a3, 0x400
    8246:	7b3f91        	l32r	a9, 0xfffe6f44
    8249:	bf29      	s32i.n	a2, a15, 44
    824b:	e348      	l32i.n	a4, a3, 56
    824d:	8f49      	s32i.n	a4, a15, 32
    824f:	7b4221        	l32r	a2, 0xfffe6f58
    8252:	676892        	s32i	a9, a8, 0x19c
    8255:	4859      	s32i.n	a5, a8, 16
    8257:	916322        	s32i	a2, a3, 0x244
    825a:	7b4141        	l32r	a4, 0xfffe6f60
    825d:	f96342        	s32i	a4, a3, 0x3e4
    8260:	05d3b2        	addmi	a11, a3, 0x500
    8263:	7b4d21        	l32r	a2, 0xfffe6f98
    8266:	7b4b51        	l32r	a5, 0xfffe6f94
    8269:	7b4991        	l32r	a9, 0xfffe6f90
    826c:	2a6392        	s32i	a9, a3, 168
    826f:	5c6352        	s32i	a5, a3, 0x170
    8272:	fc6322        	s32i	a2, a3, 0x3f0
    8275:	bbc8      	l32i.n	a12, a11, 44
    8277:	122be2        	l32i	a14, a11, 72
    827a:	7b4c41        	l32r	a4, 0xfffe6fac
    827d:	fd6342        	s32i	a4, a3, 0x3f4
    8280:	7fe9      	s32i.n	a14, a15, 28
    8282:	126bd2        	s32i	a13, a11, 72
    8285:	bba9      	s32i.n	a10, a11, 44
    8287:	126fc2        	s32i	a12, a15, 72
    828a:	7b3ea1        	l32r	a10, 0xfffe6f84
    828d:	7b3cc1        	l32r	a12, 0xfffe6f80
    8290:	7b3bd1        	l32r	a13, 0xfffe6f7c
    8293:	9e23e2        	l32i	a14, a3, 0x278
    8296:	116fe2        	s32i	a14, a15, 68
    8299:	b8d9      	s32i.n	a13, a8, 44
    829b:	c8c9      	s32i.n	a12, a8, 48
    829d:	6668a2        	s32i	a10, a8, 0x198
    82a0:	7b3db1        	l32r	a11, 0xfffe6f94
    82a3:	7b48a1        	l32r	a10, 0xfffe6fc4
    82a6:	7b46c1        	l32r	a12, 0xfffe6fc0
    82a9:	7b45d1        	l32r	a13, 0xfffe6fc0
    82ac:	7b44e1        	l32r	a14, 0xfffe6fbc
    82af:	e3e9      	s32i.n	a14, a3, 56
    82b1:	2763d2        	s32i	a13, a3, 156
    82b4:	8a63c2        	s32i	a12, a3, 0x228
    82b7:	2d63a2        	s32i	a10, a3, 180
    82ba:	08b9      	s32i.n	a11, a8, 0
    82bc:	7b43f1        	l32r	a15, 0xfffe6fc8
    82bf:	c363f2        	s32i	a15, a3, 0x30c
    82c2:	7b47b1        	l32r	a11, 0xfffe6fe0
    82c5:	2c63b2        	s32i	a11, a3, 176
    82c8:	7b4a81        	l32r	a8, 0xfffe6ff0
    82cb:	1a6382        	s32i	a8, a3, 104
    82ce:	f01d      	excw
    82d0:	004136        	excw
    82d3:	7a96a1        	l32r	a10, 0xfffe6d2c
    82d6:	0020c0        	memw
    82d9:	912a92        	l32i	a9, a10, 0x244
    82dc:	348490        	extui	a8, a9, 4, 4
    82df:	a8cc      	bnez.n	a8, 0x82ed
    82e1:	7b4eb1        	l32r	a11, 0xfffe701c
    82e4:	20b9b0        	or	a11, a9, a11
    82e7:	0020c0        	memw
    82ea:	916ab2        	s32i	a11, a10, 0x244
    82ed:	7b4f81        	l32r	a8, 0xfffe702c
    82f0:	0888      	l32i.n	a8, a8, 0
    82f2:	0008e0        	excw
    82f5:	f01d      	excw
    82f7:	413600        	srli	a3, a0, 6
    82fa:	502100        	excw
    82fd:	317b      	addi.n	a3, a1, 7
    82ff:	817a37        	bbci	a10, 19, 0x8284
    8302:	4f          	.byte 0x4f
    8303:	427b      	addi.n	a4, a2, 7
    8305:	492723        	excw
    8308:	2208      	l32i.n	a0, a2, 8
    830a:	1d2763        	excw
    830d:	0000f0        	excw
    8310:	004136        	excw
    8313:	7b5121        	l32r	a2, 0xfffe7058
    8316:	0020c0        	memw
    8319:	442222        	l32i	a2, a2, 0x110
    831c:	642020        	extui	a2, a2, 0, 7
    831f:	f01d      	excw
    8321:	000000        	ill
    8324:	004136        	excw
    8327:	8298      	l32i.n	a9, a2, 32
    8329:	140c      	movi.n	a4, 1
    832b:	0e3926        	beqi	a9, 3, 0x833d
    832e:	7b52c1        	l32r	a12, 0xfffe7078
    8331:	654926        	beqi	a9, 4, 0x839a
    8334:	0c88      	l32i.n	a8, a12, 0
    8336:	02ad      	mov.n	a10, a2
    8338:	0008e0        	excw
    833b:	f01d      	excw
    833d:	7ac691        	l32r	a9, 0xfffe6e58
    8340:	7e09b2        	l8ui	a11, a9, 126
    8343:	441b66        	bnei	a11, 1, 0x838b
    8346:	792932        	l32i	a3, a9, 0x1e4
    8349:	2c02c2        	l8ui	a12, a2, 44
    834c:	0338      	l32i.n	a3, a3, 0
    834e:	bcec      	bnez.n	a12, 0x837d
    8350:	7f0982        	l8ui	a8, a9, 127
    8353:	68ac      	beqz.n	a8, 0x837d
    8355:	fffba5        	excw
    8358:	1aec      	bnez.n	a10, 0x837d
    835a:	1a0c      	movi.n	a10, 1
    835c:	090c      	movi.n	a9, 0
    835e:	0a03b2        	l8ui	a11, a3, 10
    8361:	7aabc1        	l32r	a12, 0xfffe6e10
    8364:	bb3a      	add.n	a11, a11, a3
    8366:	0d0bd2        	l8ui	a13, a11, 13
    8369:	0c0bb2        	l8ui	a11, a11, 12
    836c:	11dd80        	slli	a13, a13, 8
    836f:	bbda      	add.n	a11, a11, a13
    8371:	f4b0b0        	extui	a11, a11, 0, 16
    8374:	c0bbc0        	sub	a11, a11, a12
    8377:	839ab0        	moveqz	a9, a10, a11
    837a:	000046        	j	0x837f
    837d:	090c      	movi.n	a9, 0
    837f:	7b53d1        	l32r	a13, 0xfffe70cc
    8382:	000dc2        	l8ui	a12, a13, 0
    8385:	93c490        	movnez	a12, a4, a9
    8388:	004dc2        	s8i	a12, a13, 0
    838b:	7a9f81        	l32r	a8, 0xfffe6e08
    838e:	02ad      	mov.n	a10, a2
    8390:	332882        	l32i	a8, a8, 204
    8393:	0b0c      	movi.n	a11, 0
    8395:	0008e0        	excw
    8398:	f01d      	excw
    839a:	0302b2        	l8ui	a11, a2, 3
    839d:	1c6b37        	bbci	a11, 3, 0x83bd
    83a0:	9249      	s32i.n	a4, a2, 36
    83a2:	8249      	s32i.n	a4, a2, 32
    83a4:	7a6581        	l32r	a8, 0xfffe6d38
    83a7:	f7a0a2        	movi	a10, 247
    83aa:	090c      	movi.n	a9, 0
    83ac:	c299      	s32i.n	a9, a2, 48
    83ae:	10aba0        	and	a10, a11, a10
    83b1:	0342a2        	s8i	a10, a2, 3
    83b4:	a888      	l32i.n	a8, a8, 40
    83b6:	ca0c      	movi.n	a10, 12
    83b8:	0008e0        	excw
    83bb:	f01d      	excw
    83bd:	0c88      	l32i.n	a8, a12, 0
    83bf:	02ad      	mov.n	a10, a2
    83c1:	0008e0        	excw
    83c4:	f01d      	excw
    83c6:	360000        	excw
    83c9:	e10041        	l32r	a4, 0x7cc (0x0)
    83cc:	9f          	.byte 0x9f
    83cd:	307a      	add.n	a3, a0, a7
    83cf:	b67490        	excw
    83d2:	0929      	s32i.n	a2, a9, 0
    83d4:	4e2e82        	l32i	a8, a14, 0x138
    83d7:	02ad      	mov.n	a10, a2
    83d9:	0008e0        	excw
    83dc:	f01d      	excw
    83de:	54a2d2        	movi	a13, 0x254
    83e1:	b722a2        	l32i	a10, a2, 0x2dc
    83e4:	d2da      	add.n	a13, a2, a13
    83e6:	6adc      	bnez.n	a10, 0x8400
    83e8:	804d92        	s8i	a9, a13, 128
    83eb:	e9bc      	beqz.n	a9, 0x842d
    83ed:	02ad      	mov.n	a10, a2
    83ef:	0b0c      	movi.n	a11, 0
    83f1:	0c0c      	movi.n	a12, 0
    83f3:	490c      	movi.n	a9, 4
    83f5:	2c2e82        	l32i	a8, a14, 176
    83f8:	b46292        	s32i	a9, a2, 0x2d0
    83fb:	0008e0        	excw
    83fe:	f01d      	excw
    8400:	d9dc      	bnez.n	a9, 0x8421
    8402:	7b53b1        	l32r	a11, 0xfffe7150
    8405:	1a0c      	movi.n	a10, 1
    8407:	3c0c      	movi.n	a12, 3
    8409:	0e0c      	movi.n	a14, 0
    840b:	0302f2        	l8ui	a15, a2, 3
    840e:	880c      	movi.n	a8, 8
    8410:	20ff80        	or	a15, a15, a8
    8413:	0342f2        	s8i	a15, a2, 3
    8416:	804de2        	s8i	a14, a13, 128
    8419:	b462c2        	s32i	a12, a2, 0x2d0
    841c:	004ba2        	s8i	a10, a11, 0
    841f:	f01d      	excw
    8421:	7b5281        	l32r	a8, 0xfffe716c
    8424:	02ad      	mov.n	a10, a2
    8426:	1888      	l32i.n	a8, a8, 4
    8428:	03bd      	mov.n	a11, a3
    842a:	0008e0        	excw
    842d:	f01d      	excw
    842f:	413600        	srli	a3, a0, 6
    8432:	040c00        	extui	a0, a0, 12, 1
    8435:	7a9f51        	l32r	a5, 0xfffe6eb4
    8438:	b72282        	l32i	a8, a2, 0x2dc
    843b:	bb2292        	l32i	a9, a2, 0x2ec
    843e:	78ac      	beqz.n	a8, 0x8469
    8440:	29b8      	l32i.n	a11, a9, 8
    8442:	231b26        	beqi	a11, 1, 0x8469
    8445:	1422c2        	l32i	a12, a2, 80
    8448:	460c      	movi.n	a6, 4
    844a:	04cc16        	beqz	a12, 0x849a
    844d:	04bd      	mov.n	a11, a4
    844f:	0c0c      	movi.n	a12, 0
    8451:	24c232        	addi	a3, a2, 36
    8454:	582582        	l32i	a8, a5, 0x160
    8457:	03ad      	mov.n	a10, a3
    8459:	0008e0        	excw
    845c:	146242        	s32i	a4, a2, 80
    845f:	242582        	l32i	a8, a5, 144
    8462:	03ad      	mov.n	a10, a3
    8464:	0008e0        	excw
    8467:	f01d      	excw
    8469:	82a8      	l32i.n	a10, a2, 32
    846b:	154a66        	bnei	a10, 4, 0x8484
    846e:	09b8      	l32i.n	a11, a9, 0
    8470:	19c8      	l32i.n	a12, a9, 4
    8472:	091b66        	bnei	a11, 1, 0x847f
    8475:	6ccc      	bnez.n	a12, 0x847f
    8477:	382582        	l32i	a8, a5, 224
    847a:	02ad      	mov.n	a10, a2
    847c:	0008e0        	excw
    847f:	116242        	s32i	a4, a2, 68
    8482:	f01d      	excw
    8484:	142292        	l32i	a9, a2, 80
    8487:	69ac      	beqz.n	a9, 0x84b1
    8489:	146242        	s32i	a4, a2, 80
    848c:	156242        	s32i	a4, a2, 84
    848f:	242582        	l32i	a8, a5, 144
    8492:	24c2a2        	addi	a10, a2, 36
    8495:	0008e0        	excw
    8498:	f01d      	excw
    849a:	c298      	l32i.n	a9, a2, 48
    849c:	b9bc      	beqz.n	a9, 0x84db
    849e:	02ad      	mov.n	a10, a2
    84a0:	522582        	l32i	a8, a5, 0x148
    84a3:	190c      	movi.n	a9, 1
    84a5:	834930        	moveqz	a4, a9, a3
    84a8:	04bd      	mov.n	a11, a4
    84aa:	0008e0        	excw
    84ad:	8269      	s32i.n	a6, a2, 32
    84af:	f01d      	excw
    84b1:	c2a8      	l32i.n	a10, a2, 48
    84b3:	7b54b1        	l32r	a11, 0xfffe7204
    84b6:	5a9c      	beqz.n	a10, 0x84cf
    84b8:	0020c0        	memw
    84bb:	c42bb2        	l32i	a11, a11, 0x310
    84be:	64b0b0        	extui	a11, a11, 0, 7
    84c1:	4bdc      	bnez.n	a11, 0x84d9
    84c3:	02ad      	mov.n	a10, a2
    84c5:	522582        	l32i	a8, a5, 0x148
    84c8:	0b0c      	movi.n	a11, 0
    84ca:	0008e0        	excw
    84cd:	f01d      	excw
    84cf:	02ad      	mov.n	a10, a2
    84d1:	522582        	l32i	a8, a5, 0x148
    84d4:	1b0c      	movi.n	a11, 1
    84d6:	0008e0        	excw
    84d9:	f01d      	excw
    84db:	ffe365        	excw
    84de:	0adc      	bnez.n	a10, 0x84f2
    84e0:	02ad      	mov.n	a10, a2
    84e2:	190c      	movi.n	a9, 1
    84e4:	0b0c      	movi.n	a11, 0
    84e6:	522582        	l32i	a8, a5, 0x148
    84e9:	83b930        	moveqz	a11, a9, a3
    84ec:	0008e0        	excw
    84ef:	ffee86        	j	0x84ad
    84f2:	7b51b1        	l32r	a11, 0xfffe7238
    84f5:	0020c0        	memw
    84f8:	7b55c1        	l32r	a12, 0xfffe724c
    84fb:	402ba2        	l32i	a10, a11, 0x100
    84fe:	20aac0        	or	a10, a10, a12
    8501:	0020c0        	memw
    8504:	406ba2        	s32i	a10, a11, 0x100
    8507:	f01d      	excw
    8509:	000000        	ill
    850c:	004136        	excw
    850f:	7b5281        	l32r	a8, 0xfffe7258
    8512:	2888      	l32i.n	a8, a8, 8
    8514:	02ad      	mov.n	a10, a2
    8516:	0008e0        	excw
    8519:	0298      	l32i.n	a9, a2, 0
    851b:	7ac5b1        	l32r	a11, 0xfffe7030
    851e:	b99c      	beqz.n	a9, 0x853d
    8520:	7b56a1        	l32r	a10, 0xfffe7278
    8523:	0d2966        	bnei	a9, 2, 0x8534
    8526:	b02bc2        	l32i	a12, a11, 0x2c0
    8529:	d0ca92        	addi	a9, a10, -48
    852c:	93a9c0        	movnez	a10, a9, a12
    852f:	386ba2        	s32i	a10, a11, 224
    8532:	f01d      	excw
    8534:	0529b6        	bltui	a9, 2, 0x853d
    8537:	b02bd2        	l32i	a13, a11, 0x2c0
    853a:	ff1d16        	beqz	a13, 0x852f
    853d:	f01d      	excw
    853f:	413600        	srli	a3, a0, 6
    8542:	050c00        	extui	a0, a0, 28, 1
    8545:	010392        	l8ui	a9, a3, 1
    8548:	7a9f41        	l32r	a4, 0xfffe6fc4
    854b:	2a9966        	bnei	a9, 10, 0x8579
    854e:	ba2292        	l32i	a9, a2, 0x2e8
    8551:	2a0c      	movi.n	a10, 2
    8553:	0d4952        	s8i	a5, a9, 13
    8556:	0c49a2        	s8i	a10, a9, 12
    8559:	3e2482        	l32i	a8, a4, 248
    855c:	0008e0        	excw
    855f:	7a6521        	l32r	a2, 0xfffe6ef4
    8562:	6288      	l32i.n	a8, a2, 24
    8564:	e8a3a2        	movi	a10, 0x3e8
    8567:	0008e0        	excw
    856a:	3f2482        	l32i	a8, a4, 252
    856d:	0008e0        	excw
    8570:	a288      	l32i.n	a8, a2, 40
    8572:	ca0c      	movi.n	a10, 12
    8574:	0008e0        	excw
    8577:	f01d      	excw
    8579:	5b8966        	bnei	a9, 8, 0x85d8
    857c:	7b2231        	l32r	a3, 0xfffe7204
    857f:	03a8      	l32i.n	a10, a3, 0
    8581:	332a92        	l32i	a9, a10, 204
    8584:	7b57c1        	l32r	a12, 0xfffe72e0
    8587:	041916        	beqz	a9, 0x85cc
    858a:	eab8      	l32i.n	a11, a10, 56
    858c:	3c9bc7        	bne	a11, a12, 0x85cc
    858f:	7a3a81        	l32r	a8, 0xfffe6e78
    8592:	f888      	l32i.n	a8, a8, 60
    8594:	7b58a1        	l32r	a10, 0xfffe72f4
    8597:	0008e0        	excw
    859a:	7a96a1        	l32r	a10, 0xfffe6ff4
    859d:	0020c0        	memw
    85a0:	7b59b1        	l32r	a11, 0xfffe7304
    85a3:	862a92        	l32i	a9, a10, 0x218
    85a6:	1099b0        	and	a9, a9, a11
    85a9:	0020c0        	memw
    85ac:	7a0f81        	l32r	a8, 0xfffe6de8
    85af:	866a92        	s32i	a9, a10, 0x218
    85b2:	1e2882        	l32i	a8, a8, 120
    85b5:	0a0c      	movi.n	a10, 0
    85b7:	0008e0        	excw
    85ba:	03e8      	l32i.n	a14, a3, 0
    85bc:	ee59      	s32i.n	a5, a14, 56
    85be:	00a1c2        	movi	a12, 0x100
    85c1:	7a93d1        	l32r	a13, 0xfffe7010
    85c4:	0020c0        	memw
    85c7:	806dc2        	s32i	a12, a13, 0x200
    85ca:	f01d      	excw
    85cc:	02ad      	mov.n	a10, a2
    85ce:	522482        	l32i	a8, a4, 0x148
    85d1:	1b0c      	movi.n	a11, 1
    85d3:	0008e0        	excw
    85d6:	f01d      	excw
    85d8:	7b5281        	l32r	a8, 0xfffe7320
    85db:	02ad      	mov.n	a10, a2
    85dd:	3888      	l32i.n	a8, a8, 12
    85df:	03bd      	mov.n	a11, a3
    85e1:	0008e0        	excw
    85e4:	f01d      	excw
    85e6:	360000        	excw
    85e9:	0c0061        	l32r	a6, 0xfffcb5ec
    85ec:	511d      	excw
    85ee:	9f          	.byte 0x9f
    85ef:	e27a      	add.n	a14, a2, a7
    85f1:	0c52a2        	s16i	a10, a2, 24
    85f4:	03f207        	bbsi	a2, 16, 0x85fb
    85f7:	076d01        	l32r	a0, 0xfffca3ac
    85fa:	05ff16        	beqz	a15, 0x865d
    85fd:	8f0b      	addi.n	a8, a15, -1
    85ff:	09f816        	beqz	a8, 0x86a2
    8602:	fdcf92        	addi	a9, a15, -3
    8605:	0f2916        	beqz	a9, 0x86fb
    8608:	fbcfa2        	addi	a10, a15, -5
    860b:	19fa16        	beqz	a10, 0x87ae
    860e:	facfb2        	addi	a11, a15, -6
    8611:	113b16        	beqz	a11, 0x8728
    8614:	f9cfc2        	addi	a12, a15, -7
    8617:	14cc16        	beqz	a12, 0x8767
    861a:	f8cf82        	addi	a8, a15, -8
    861d:	15a816        	beqz	a8, 0x877b
    8620:	f7cf92        	addi	a9, a15, -9
    8623:	093916        	beqz	a9, 0x86ba
    8626:	02ad      	mov.n	a10, a2
    8628:	03bd      	mov.n	a11, a3
    862a:	1c2582        	l32i	a8, a5, 112
    862d:	04cd      	mov.n	a12, a4
    862f:	0008e0        	excw
    8632:	0103f2        	l8ui	a15, a3, 1
    8635:	056f26        	beqi	a15, 6, 0x863e
    8638:	027f26        	beqi	a15, 7, 0x863e
    863b:	1c8f66        	bnei	a15, 8, 0x865b
    863e:	7b5ab1        	l32r	a11, 0xfffe73a8
    8641:	04ad      	mov.n	a10, a4
    8643:	582582        	l32i	a8, a5, 0x160
    8646:	06cd      	mov.n	a12, a6
    8648:	0008e0        	excw
    864b:	031392        	l16ui	a9, a3, 6
    864e:	409967        	bne	a9, a6, 0x8692
    8651:	b479      	s32i.n	a7, a4, 44
    8653:	242582        	l32i	a8, a5, 144
    8656:	04ad      	mov.n	a10, a4
    8658:	0008e0        	excw
    865b:	f01d      	excw
    865d:	b722a2        	l32i	a10, a2, 0x2dc
    8660:	92ea      	add.n	a9, a2, a14
    8662:	4acc      	bnez.n	a10, 0x866a
    8664:	3d5972        	s16i	a7, a9, 122
    8667:	0002c6        	j	0x8676
    866a:	8309b2        	l8ui	a11, a9, 131
    866d:	11bbf0        	slli	a11, a11, 1
    8670:	20bbd0        	or	a11, a11, a13
    8673:	3d59b2        	s16i	a11, a9, 122
    8676:	04ad      	mov.n	a10, a4
    8678:	2c0c      	movi.n	a12, 2
    867a:	cca2b2        	movi	a11, 0x2cc
    867d:	582582        	l32i	a8, a5, 0x160
    8680:	b2ba      	add.n	a11, a2, a11
    8682:	0008e0        	excw
    8685:	b479      	s32i.n	a7, a4, 44
    8687:	242582        	l32i	a8, a5, 144
    868a:	04ad      	mov.n	a10, a4
    868c:	0008e0        	excw
    868f:	ffe7c6        	j	0x8632
    8692:	070c      	movi.n	a7, 0
    8694:	fb9616        	beqz	a6, 0x8651
    8697:	54a060        	extui	a10, a6, 0, 6
    869a:	190c      	movi.n	a9, 1
    869c:	8379a0        	moveqz	a7, a9, a10
    869f:	ffeb86        	j	0x8651
    86a2:	b722b2        	l32i	a11, a2, 0x2dc
    86a5:	047b56        	bnez	a11, 0x86f0
    86a8:	02ad      	mov.n	a10, a2
    86aa:	1b0c      	movi.n	a11, 1
    86ac:	92ea      	add.n	a9, a2, a14
    86ae:	522582        	l32i	a8, a5, 0x148
    86b1:	3d5972        	s16i	a7, a9, 122
    86b4:	0008e0        	excw
    86b7:	ffddc6        	j	0x8632
    86ba:	0003a2        	l8ui	a10, a3, 0
    86bd:	051a56        	bnez	a10, 0x8712
    86c0:	03e690        	rsr.ps	a9
    86c3:	2b0c      	movi.n	a11, 2
    86c5:	34a090        	extui	a10, a9, 0, 4
    86c8:	022ba7        	blt	a11, a10, 0x86ce
    86cb:	006290        	rsil	a9, 2
    86ce:	0199      	s32i.n	a9, a1, 0
    86d0:	02ad      	mov.n	a10, a2
    86d2:	2b2582        	l32i	a8, a5, 172
    86d5:	0113b2        	l16ui	a11, a3, 2
    86d8:	0008e0        	excw
    86db:	0198      	l32i.n	a9, a1, 0
    86dd:	13e690        	wsr.ps	a9
    86e0:	002010        	rsync
    86e3:	02ad      	mov.n	a10, a2
    86e5:	522582        	l32i	a8, a5, 0x148
    86e8:	1b0c      	movi.n	a11, 1
    86ea:	0008e0        	excw
    86ed:	ffd046        	j	0x8632
    86f0:	502582        	l32i	a8, a5, 0x140
    86f3:	02ad      	mov.n	a10, a2
    86f5:	0008e0        	excw
    86f8:	ffcd86        	j	0x8632
    86fb:	b72292        	l32i	a9, a2, 0x2dc
    86fe:	b9dc      	bnez.n	a9, 0x871d
    8700:	02ad      	mov.n	a10, a2
    8702:	1b0c      	movi.n	a11, 1
    8704:	92ea      	add.n	a9, a2, a14
    8706:	522582        	l32i	a8, a5, 0x148
    8709:	3d5972        	s16i	a7, a9, 122
    870c:	0008e0        	excw
    870f:	ffc7c6        	j	0x8632
    8712:	4e2582        	l32i	a8, a5, 0x138
    8715:	02ad      	mov.n	a10, a2
    8717:	0008e0        	excw
    871a:	ffc506        	j	0x8632
    871d:	252582        	l32i	a8, a5, 148
    8720:	02ad      	mov.n	a10, a2
    8722:	0008e0        	excw
    8725:	ffc246        	j	0x8632
    8728:	011362        	l16ui	a6, a3, 2
    872b:	41c860        	srli	a12, a6, 8
    872e:	f4e860        	extui	a14, a6, 8, 16
    8731:	9e0b      	addi.n	a9, a14, -1
    8733:	0bb916        	beqz	a9, 0x87f2
    8736:	fecea2        	addi	a10, a14, -2
    8739:	0e9a16        	beqz	a10, 0x8826
    873c:	7b3e26        	beqi	a14, 3, 0x87bb
    873f:	fb0c      	movi.n	a11, 15
    8741:	319eb7        	bne	a14, a11, 0x8776
    8744:	7a1cc1        	l32r	a12, 0xfffe6fb4
    8747:	3c1cc2        	l16ui	a12, a12, 120
    874a:	160c      	movi.n	a6, 1
    874c:	266c17        	bbci	a12, 1, 0x8776
    874f:	3469      	s32i.n	a6, a4, 12
    8751:	172582        	l32i	a8, a5, 92
    8754:	02ad      	mov.n	a10, a2
    8756:	0008e0        	excw
    8759:	222582        	l32i	a8, a5, 136
    875c:	04ad      	mov.n	a10, a4
    875e:	0008e0        	excw
    8761:	0469      	s32i.n	a6, a4, 0
    8763:	8269      	s32i.n	a6, a2, 32
    8765:	f01d      	excw
    8767:	031362        	l16ui	a6, a3, 6
    876a:	2ca182        	movi	a8, 0x12c
    876d:	636680        	excw
    8770:	f46060        	extui	a6, a6, 0, 16
    8773:	ffaf86        	j	0x8635
    8776:	060c      	movi.n	a6, 0
    8778:	ffae46        	j	0x8635
    877b:	000392        	l8ui	a9, a3, 0
    877e:	22e966        	bnei	a9, 128, 0x87a4
    8781:	7b5a91        	l32r	a9, 0xfffe74ec
    8784:	82ea      	add.n	a8, a2, a14
    8786:	820882        	l8ui	a8, a8, 130
    8789:	004982        	s8i	a8, a9, 0
    878c:	031362        	l16ui	a6, a3, 6
    878f:	6366d0        	excw
    8792:	f46060        	extui	a6, a6, 0, 16
    8795:	e99656        	bnez	a6, 0x8632
    8798:	02ad      	mov.n	a10, a2
    879a:	522582        	l32i	a8, a5, 0x148
    879d:	0b0c      	movi.n	a11, 0
    879f:	0008e0        	excw
    87a2:	f01d      	excw
    87a4:	4e2582        	l32i	a8, a5, 0x138
    87a7:	02ad      	mov.n	a10, a2
    87a9:	0008e0        	excw
    87ac:	f01d      	excw
    87ae:	02ad      	mov.n	a10, a2
    87b0:	4f2582        	l32i	a8, a5, 0x13c
    87b3:	03bd      	mov.n	a11, a3
    87b5:	0008e0        	excw
    87b8:	ff9d86        	j	0x8632
    87bb:	b72292        	l32i	a9, a2, 0x2dc
    87be:	b9ac      	beqz.n	a9, 0x87ed
    87c0:	eea0a2        	movi	a10, 238
    87c3:	74b060        	extui	a11, a6, 0, 8
    87c6:	1a9ba7        	bne	a11, a10, 0x87e4
    87c9:	24c2a2        	addi	a10, a2, 36
    87cc:	130c      	movi.n	a3, 1
    87ce:	222582        	l32i	a8, a5, 136
    87d1:	c239      	s32i.n	a3, a2, 48
    87d3:	0008e0        	excw
    87d6:	02ad      	mov.n	a10, a2
    87d8:	9239      	s32i.n	a3, a2, 36
    87da:	172582        	l32i	a8, a5, 92
    87dd:	8239      	s32i.n	a3, a2, 32
    87df:	0008e0        	excw
    87e2:	f01d      	excw
    87e4:	7b5b91        	l32r	a9, 0xfffe7550
    87e7:	080992        	l8ui	a9, a9, 8
    87ea:	4ee907        	bbsi	a9, 0, 0x883c
    87ed:	060c      	movi.n	a6, 0
    87ef:	ff9086        	j	0x8635
    87f2:	ba22b2        	l32i	a11, a2, 0x2e8
    87f5:	7b5aa1        	l32r	a10, 0xfffe7560
    87f8:	031362        	l16ui	a6, a3, 6
    87fb:	281c      	movi.n	a8, 18
    87fd:	636680        	excw
    8800:	f46060        	extui	a6, a6, 0, 16
    8803:	06cd      	mov.n	a12, a6
    8805:	0065e5        	excw
    8808:	000506        	j	0x8820
    880b:	02ad      	mov.n	a10, a2
    880d:	06bd      	mov.n	a11, a6
    880f:	0113c2        	l16ui	a12, a3, 2
    8812:	272582        	l32i	a8, a5, 156
    8815:	41c8c0        	srli	a12, a12, 8
    8818:	0008e0        	excw
    881b:	0add      	mov.n	a13, a10
    881d:	f460d0        	extui	a6, a13, 0, 16
    8820:	0103f2        	l8ui	a15, a3, 1
    8823:	ff8386        	j	0x8635
    8826:	02ad      	mov.n	a10, a2
    8828:	7b5ab1        	l32r	a11, 0xfffe7590
    882b:	272582        	l32i	a8, a5, 156
    882e:	0b6d      	mov.n	a6, a11
    8830:	0008e0        	excw
    8833:	0313d2        	l16ui	a13, a3, 6
    8836:	e3bad7        	bgeu	a10, a13, 0x881d
    8839:	fff386        	j	0x880b
    883c:	7b5ac1        	l32r	a12, 0xfffe75a4
    883f:	292582        	l32i	a8, a5, 164
    8842:	0c2d      	mov.n	a2, a12
    8844:	ffdc62        	addmi	a6, a12, 0xffffff00
    8847:	612ca2        	l32i	a10, a12, 0x184
    884a:	0008e0        	excw
    884d:	0313d2        	l16ui	a13, a3, 6
    8850:	0fbad7        	bgeu	a10, a13, 0x8863
    8853:	a126a2        	l32i	a10, a6, 0x284
    8856:	02cd      	mov.n	a12, a2
    8858:	292582        	l32i	a8, a5, 164
    885b:	0203b2        	l8ui	a11, a3, 2
    885e:	0008e0        	excw
    8861:	0add      	mov.n	a13, a10
    8863:	f460d0        	extui	a6, a13, 0, 16
    8866:	0103f2        	l8ui	a15, a3, 1
    8869:	ff7206        	j	0x8635
    886c:	004136        	excw
    886f:	7b5db1        	l32r	a11, 0xfffe75e4
    8872:	7b6121        	l32r	a2, 0xfffe75f8
    8875:	7b6081        	l32r	a8, 0xfffe75f8
    8878:	7b5f91        	l32r	a9, 0xfffe75f4
    887b:	7b5c31        	l32r	a3, 0xfffe75ec
    887e:	7b5ea1        	l32r	a10, 0xfffe75f8
    8881:	5963a2        	s32i	a10, a3, 0x164
    8884:	426392        	s32i	a9, a3, 0x108
    8887:	6b6382        	s32i	a8, a3, 0x1ac
    888a:	8a6322        	s32i	a2, a3, 0x228
    888d:	7363b2        	s32i	a11, a3, 0x1cc
    8890:	f01d      	excw
    8892:	360000        	excw
    8895:	c10041        	l32r	a4, 0xffff8c98
    8898:	917b62        	excw
    889b:	a17b65        	excw
    889e:	817b64        	excw
    88a1:	e17b66        	bnei	a11, 7, 0x8886
    88a4:	317b52        	excw
    88a7:	7b5c      	movi.n	a11, 87
    88a9:	7b63b1        	l32r	a11, 0xfffe7638
    88ac:	592342        	l32i	a4, a3, 0x164
    88af:	8a23d2        	l32i	a13, a3, 0x228
    88b2:	6b23f2        	l32i	a15, a3, 0x1ac
    88b5:	422322        	l32i	a2, a3, 0x108
    88b8:	4263b2        	s32i	a11, a3, 0x108
    88bb:	2e29      	s32i.n	a2, a14, 8
    88bd:	7b6821        	l32r	a2, 0xfffe7660
    88c0:	5d6322        	s32i	a2, a3, 0x174
    88c3:	736382        	s32i	a8, a3, 0x1cc
    88c6:	6b63a2        	s32i	a10, a3, 0x1ac
    88c9:	1ef9      	s32i.n	a15, a14, 4
    88cb:	8a6392        	s32i	a9, a3, 0x228
    88ce:	3ed9      	s32i.n	a13, a14, 12
    88d0:	0e49      	s32i.n	a4, a14, 0
    88d2:	5963c2        	s32i	a12, a3, 0x164
    88d5:	7b6741        	l32r	a4, 0xfffe7674
    88d8:	9f6342        	s32i	a4, a3, 0x27c
    88db:	f01d      	excw
    88dd:	000000        	ill
    88e0:	004136        	excw
    88e3:	064256        	bnez	a2, 0x894b
    88e6:	7b6951        	l32r	a5, 0xfffe768c
    88e9:	060c      	movi.n	a6, 0
    88eb:	7a9331        	l32r	a3, 0xfffe7338
    88ee:	0020c0        	memw
    88f1:	956362        	s32i	a6, a3, 0x254
    88f4:	0020c0        	memw
    88f7:	1598      	l32i.n	a9, a5, 4
    88f9:	966362        	s32i	a6, a3, 0x258
    88fc:	092d      	mov.n	a2, a9
    88fe:	499c      	beqz.n	a9, 0x8916
    8900:	0948      	l32i.n	a4, a9, 0
    8902:	59c8      	l32i.n	a12, a9, 20
    8904:	1549      	s32i.n	a4, a5, 4
    8906:	1948      	l32i.n	a4, a9, 4
    8908:	041c16        	beqz	a12, 0x894d
    890b:	0619a2        	l16ui	a10, a9, 12
    890e:	29b8      	l32i.n	a11, a9, 8
    8910:	000ce0        	excw
    8913:	0011c6        	j	0x895e
    8916:	040c      	movi.n	a4, 0
    8918:	f9ac      	beqz.n	a9, 0x894b
    891a:	19c8      	l32i.n	a12, a9, 4
    891c:	0020c0        	memw
    891f:	9363c2        	s32i	a12, a3, 0x24c
    8922:	0020c0        	memw
    8925:	966362        	s32i	a6, a3, 0x258
    8928:	4b0c      	movi.n	a11, 4
    892a:	0020c0        	memw
    892d:	9563b2        	s32i	a11, a3, 0x254
    8930:	15a8      	l32i.n	a10, a5, 4
    8932:	1aa8      	l32i.n	a10, a10, 4
    8934:	0020c0        	memw
    8937:	942382        	l32i	a8, a3, 0x250
    893a:	1d0c      	movi.n	a13, 1
    893c:	c08a80        	sub	a8, a10, a8
    893f:	0218a6        	blti	a8, 1, 0x8945
    8942:	059a47        	bne	a10, a4, 0x894b
    8945:	0020c0        	memw
    8948:	9663d2        	s32i	a13, a3, 0x258
    894b:	f01d      	excw
    894d:	0819a2        	l16ui	a10, a9, 16
    8950:	0b5c      	movi.n	a11, 80
    8952:	7a4081        	l32r	a8, 0xfffe7254
    8955:	c98b      	addi.n	a12, a9, 8
    8957:	7888      	l32i.n	a8, a8, 28
    8959:	8d0c      	movi.n	a13, 8
    895b:	0008e0        	excw
    895e:	0598      	l32i.n	a9, a5, 0
    8960:	0299      	s32i.n	a9, a2, 0
    8962:	0529      	s32i.n	a2, a5, 0
    8964:	1598      	l32i.n	a9, a5, 4
    8966:	ffeb86        	j	0x8918
    8969:	000000        	ill
    896c:	004136        	excw
    896f:	7b6a31        	l32r	a3, 0xfffe7718
    8972:	7b6b21        	l32r	a2, 0xfffe7720
    8975:	9329      	s32i.n	a2, a3, 36
    8977:	f01d      	excw
    8979:	000000        	ill
    897c:	004136        	excw
    897f:	b29c      	beqz.n	a2, 0x899e
    8981:	1a0c      	movi.n	a10, 1
    8983:	7a9691        	l32r	a9, 0xfffe73dc
    8986:	0020c0        	memw
    8989:	8869a2        	s32i	a10, a9, 0x220
    898c:	0020c0        	memw
    898f:	8a2982        	l32i	a8, a9, 0x228
    8992:	08e807        	bbsi	a8, 0, 0x899e
    8995:	0020c0        	memw
    8998:	8a29b2        	l32i	a11, a9, 0x228
    899b:	f66b07        	bbci	a11, 0, 0x8995
    899e:	7b6c81        	l32r	a8, 0xfffe7750
    89a1:	0888      	l32i.n	a8, a8, 0
    89a3:	02ad      	mov.n	a10, a2
    89a5:	0008e0        	excw
    89a8:	928c      	beqz.n	a2, 0x89b5
    89aa:	7b6d81        	l32r	a8, 0xfffe7760
    89ad:	8888      	l32i.n	a8, a8, 32
    89af:	f0a0a2        	movi	a10, 240
    89b2:	0008e0        	excw
    89b5:	120c      	movi.n	a2, 1
    89b7:	f01d      	excw
    89b9:	000000        	ill
    89bc:	004136        	excw
    89bf:	7b6c81        	l32r	a8, 0xfffe7770
    89c2:	1888      	l32i.n	a8, a8, 4
    89c4:	0008e0        	excw
    89c7:	7a9691        	l32r	a9, 0xfffe7420
    89ca:	0020c0        	memw
    89cd:	8a29a2        	l32i	a10, a9, 0x228
    89d0:	106a07        	bbci	a10, 0, 0x89e4
    89d3:	0a0c      	movi.n	a10, 0
    89d5:	0020c0        	memw
    89d8:	8869a2        	s32i	a10, a9, 0x220
    89db:	0020c0        	memw
    89de:	8a29b2        	l32i	a11, a9, 0x228
    89e1:	f0eb07        	bbsi	a11, 0, 0x89d5
    89e4:	f01d      	excw
    89e6:	360000        	excw
    89e9:	310041        	l32r	a4, 0xfffd4dec
    89ec:	6e          	.byte 0x6e
    89ed:	817b      	addi.n	a8, a1, 7
    89ef:	207ab4        	excw
    89f2:	80a052        	movi	a5, 128
    89f5:	58b055        	excw
    89f8:	120ca5        	excw
    89fb:	0a1537        	beq	a5, a3, 0x8a09
    89fe:	7ab091        	l32r	a9, 0xfffe74c0
    8a01:	142992        	l32i	a9, a9, 80
    8a04:	011957        	beq	a9, a5, 0x8a09
    8a07:	020c      	movi.n	a2, 0
    8a09:	f01d      	excw
    8a0b:	613600        	excw
    8a0e:	b49100        	extui	a9, a0, 1, 12
    8a11:	0c7a      	add.n	a0, a12, a7
    8a13:	09c207        	bnall	a2, a0, 0x8a20
    8a16:	012964        	excw
    8a19:	046c16        	beqz	a12, 0x8a63
    8a1c:	7b22b1        	l32r	a11, 0xfffe76a4
    8a1f:	420c      	movi.n	a2, 4
    8a21:	096d      	mov.n	a6, a9
    8a23:	4698      	l32i.n	a9, a6, 16
    8a25:	022926        	beqi	a9, 2, 0x8a2b
    8a28:	2c1966        	bnei	a9, 1, 0x8a58
    8a2b:	0b88      	l32i.n	a8, a11, 0
    8a2d:	342882        	l32i	a8, a8, 208
    8a30:	063866        	bnei	a8, 3, 0x8a3a
    8a33:	07ad      	mov.n	a10, a7
    8a35:	fffb25        	excw
    8a38:	9aec      	bnez.n	a10, 0x8a65
    8a3a:	03bd      	mov.n	a11, a3
    8a3c:	04cd      	mov.n	a12, a4
    8a3e:	05dd      	mov.n	a13, a5
    8a40:	a688      	l32i.n	a8, a6, 40
    8a42:	01a8      	l32i.n	a10, a1, 0
    8a44:	0008e0        	excw
    8a47:	0a2d      	mov.n	a2, a10
    8a49:	021a26        	beqi	a10, 1, 0x8a4f
    8a4c:	152a66        	bnei	a10, 2, 0x8a65
    8a4f:	7ab4c1        	l32r	a12, 0xfffe7520
    8a52:	7b22b1        	l32r	a11, 0xfffe76dc
    8a55:	640cc2        	l8ui	a12, a12, 100
    8a58:	28c662        	addi	a6, a6, 40
    8a5b:	771b      	addi.n	a7, a7, 1
    8a5d:	c237c7        	bltu	a7, a12, 0x8a23
    8a60:	000046        	j	0x8a65
    8a63:	420c      	movi.n	a2, 4
    8a65:	f01d      	excw
    8a67:	413600        	srli	a3, a0, 6
    8a6a:	709100        	excw
    8a6d:	b17b      	addi.n	a11, a1, 7
    8a6f:	6f          	.byte 0x6f
    8a70:	d17b      	addi.n	a13, a1, 7
    8a72:	7b6c      	movi.n	a11, -25
    8a74:	7b7221        	l32r	a2, 0xfffe783c
    8a77:	7ab031        	l32r	a3, 0xfffe7538
    8a7a:	7b6da1        	l32r	a10, 0xfffe7830
    8a7d:	7ab481        	l32r	a8, 0xfffe7550
    8a80:	7b7141        	l32r	a4, 0xfffe7844
    8a83:	415842        	s16i	a4, a8, 130
    8a86:	2329      	s32i.n	a2, a3, 8
    8a88:	1ac8      	l32i.n	a12, a10, 4
    8a8a:	0ae8      	l32i.n	a14, a10, 0
    8a8c:	0de9      	s32i.n	a14, a13, 0
    8a8e:	0ab9      	s32i.n	a11, a10, 0
    8a90:	1dc9      	s32i.n	a12, a13, 4
    8a92:	1a99      	s32i.n	a9, a10, 4
    8a94:	f01d      	excw
    8a96:	360000        	excw
    8a99:	ad0041        	l32r	a4, 0xffff3e9c
    8a9c:	a5b102        	excw
    8a9f:	817a      	add.n	a8, a1, a7
    8aa1:	1c7b73        	excw
    8aa4:	8849      	s32i.n	a4, a8, 32
    8aa6:	9208      	l32i.n	a0, a2, 36
    8aa8:	005b      	addi.n	a0, a0, 5
    8aaa:	0008e0        	excw
    8aad:	f01d      	excw
    8aaf:	413600        	srli	a3, a0, 6
    8ab2:	752100        	extui	a2, a0, 17, 8
    8ab5:	317b      	addi.n	a3, a1, 7
    8ab7:	817b74        	excw
    8aba:	487b73        	excw
    8abd:	084903        	excw
    8ac0:	0329      	s32i.n	a2, a3, 0
    8ac2:	f01d      	excw
    8ac4:	004136        	excw
    8ac7:	7b7681        	l32r	a8, 0xfffe78a0
    8aca:	0888      	l32i.n	a8, a8, 0
    8acc:	0008e0        	excw
    8acf:	7a5991        	l32r	a9, 0xfffe7434
    8ad2:	89a8      	l32i.n	a10, a9, 32
    8ad4:	071a66        	bnei	a10, 1, 0x8adf
    8ad7:	1419b2        	l16ui	a11, a9, 40
    8ada:	bb1b      	addi.n	a11, a11, 1
    8adc:	1459b2        	s16i	a11, a9, 40
    8adf:	f01d      	excw
    8ae1:	000000        	ill
    8ae4:	004136        	excw
    8ae7:	7b7721        	l32r	a2, 0xfffe78c4
    8aea:	7a5b31        	l32r	a3, 0xfffe7458
    8aed:	7b7681        	l32r	a8, 0xfffe78c8
    8af0:	3348      	l32i.n	a4, a3, 12
    8af2:	0849      	s32i.n	a4, a8, 0
    8af4:	3329      	s32i.n	a2, a3, 12
    8af6:	f01d      	excw
    8af8:	004136        	excw
    8afb:	024d      	mov.n	a4, a2
    8afd:	7a9361        	l32r	a6, 0xfffe754c
    8b00:	012266        	bnei	a2, 2, 0x8b05
    8b03:	220b      	addi.n	a2, a2, -1
    8b05:	0020c0        	memw
    8b08:	087c      	movi.n	a8, -16
    8b0a:	862672        	l32i	a7, a6, 0x218
    8b0d:	345020        	extui	a5, a2, 0, 4
    8b10:	107780        	and	a7, a7, a8
    8b13:	205570        	or	a5, a5, a7
    8b16:	0020c0        	memw
    8b19:	7b0831        	l32r	a3, 0xfffe773c
    8b1c:	866652        	s32i	a5, a6, 0x218
    8b1f:	014342        	s8i	a4, a3, 1
    8b22:	f01d      	excw
    8b24:	006136        	excw
    8b27:	7a9b41        	l32r	a4, 0xfffe7594
    8b2a:	060c      	movi.n	a6, 0
    8b2c:	222442        	l32i	a4, a4, 136
    8b2f:	03e690        	rsr.ps	a9
    8b32:	2b0c      	movi.n	a11, 2
    8b34:	34a090        	extui	a10, a9, 0, 4
    8b37:	022ba7        	blt	a11, a10, 0x8b3d
    8b3a:	006290        	rsil	a9, 2
    8b3d:	7b7881        	l32r	a8, 0xfffe7920
    8b40:	007d      	mov.n	a7, a0
    8b42:	015d      	mov.n	a5, a1
    8b44:	0888      	l32i.n	a8, a8, 0
    8b46:	0008e0        	excw
    8b49:	7a3781        	l32r	a8, 0xfffe7428
    8b4c:	422882        	l32i	a8, a8, 0x108
    8b4f:	0008e0        	excw
    8b52:	7b22e1        	l32r	a14, 0xfffe77dc
    8b55:	089a16        	beqz	a10, 0x8be2
    8b58:	7b79a1        	l32r	a10, 0xfffe793c
    8b5b:	7b7a91        	l32r	a9, 0xfffe7944
    8b5e:	7b7bb1        	l32r	a11, 0xfffe794c
    8b61:	7b7dd1        	l32r	a13, 0xfffe7958
    8b64:	7a3a81        	l32r	a8, 0xfffe744c
    8b67:	7b7cc1        	l32r	a12, 0xfffe7958
    8b6a:	f888      	l32i.n	a8, a8, 60
    8b6c:	832c20        	moveqz	a2, a12, a2
    8b6f:	10d7d0        	and	a13, a7, a13
    8b72:	01d9      	s32i.n	a13, a1, 0
    8b74:	02cd      	mov.n	a12, a2
    8b76:	83b930        	moveqz	a11, a9, a3
    8b79:	0008e0        	excw
    8b7c:	160c      	movi.n	a6, 1
    8b7e:	4c0c      	movi.n	a12, 4
    8b80:	7b7e71        	l32r	a7, 0xfffe7978
    8b83:	7b7fb1        	l32r	a11, 0xfffe7980
    8b86:	7b80f1        	l32r	a15, 0xfffe7988
    8b89:	7b81a1        	l32r	a10, 0xfffe7990
    8b8c:	7b22e1        	l32r	a14, 0xfffe7814
    8b8f:	f4add2        	movi	a13, 0xfffffdf4
    8b92:	0e88      	l32i.n	a8, a14, 0
    8b94:	0198      	l32i.n	a9, a1, 0
    8b96:	7899      	s32i.n	a9, a8, 28
    8b98:	463547        	bltu	a5, a4, 0x8be2
    8b9b:	433757        	bltu	a7, a5, 0x8be2
    8b9e:	25da      	add.n	a2, a5, a13
    8ba0:	802252        	l32i	a5, a2, 0x200
    8ba3:	7f2222        	l32i	a2, a2, 0x1fc
    8ba6:	1055a0        	and	a5, a5, a10
    8ba9:	1022a0        	and	a2, a2, a10
    8bac:	e8bb27        	bgeu	a11, a2, 0x8b98
    8baf:	11c9      	s32i.n	a12, a1, 4
    8bb1:	e3b2f7        	bgeu	a2, a15, 0x8b98
    8bb4:	7a3a81        	l32r	a8, 0xfffe749c
    8bb7:	7b82a1        	l32r	a10, 0xfffe79c0
    8bba:	f888      	l32i.n	a8, a8, 60
    8bbc:	02bd      	mov.n	a11, a2
    8bbe:	0008e0        	excw
    8bc1:	7b81a1        	l32r	a10, 0xfffe79c8
    8bc4:	7b7fb1        	l32r	a11, 0xfffe79c0
    8bc7:	11c8      	l32i.n	a12, a1, 4
    8bc9:	7b80f1        	l32r	a15, 0xfffe79cc
    8bcc:	f4add2        	movi	a13, 0xfffffdf4
    8bcf:	7b22e1        	l32r	a14, 0xfffe7858
    8bd2:	c246f6        	bgeui	a6, 4, 0x8b98
    8bd5:	0e98      	l32i.n	a9, a14, 0
    8bd7:	661b      	addi.n	a6, a6, 1
    8bd9:	99ca      	add.n	a9, a9, a12
    8bdb:	7929      	s32i.n	a2, a9, 28
    8bdd:	cc4b      	addi.n	a12, a12, 4
    8bdf:	ffed46        	j	0x8b98
    8be2:	1246f6        	bgeui	a6, 4, 0x8bf8
    8be5:	0a0c      	movi.n	a10, 0
    8be7:	0e98      	l32i.n	a9, a14, 0
    8be9:	4b0c      	movi.n	a11, 4
    8beb:	c0bb60        	sub	a11, a11, a6
    8bee:	a09690        	addx4	a9, a6, a9
    8bf1:	039b76        	excw
    8bf4:	79a9      	s32i.n	a10, a9, 28
    8bf6:	994b      	addi.n	a9, a9, 4
    8bf8:	93cc      	bnez.n	a3, 0x8c05
    8bfa:	7a3781        	l32r	a8, 0xfffe74d8
    8bfd:	422882        	l32i	a8, a8, 0x108
    8c00:	0008e0        	excw
    8c03:	8a8c      	beqz.n	a10, 0x8c0f
    8c05:	7a6581        	l32r	a8, 0xfffe759c
    8c08:	9888      	l32i.n	a8, a8, 36
    8c0a:	2a0c      	movi.n	a10, 2
    8c0c:	0008e0        	excw
    8c0f:	020c      	movi.n	a2, 0
    8c11:	f01d      	excw
    8c13:	413600        	srli	a3, a0, 6
    8c16:	653100        	extui	a3, a0, 17, 7
    8c19:	217a      	add.n	a2, a1, a7
    8c1b:	227b83        	excw
    8c1e:	1d1763        	excw
    8c21:	0000f0        	excw
    8c24:	004136        	excw
    8c27:	00a292        	movi	a9, 0x200
    8c2a:	7a93a1        	l32r	a10, 0xfffe7678
    8c2d:	0020c0        	memw
    8c30:	7b8481        	l32r	a8, 0xfffe7a40
    8c33:	0888      	l32i.n	a8, a8, 0
    8c35:	9e6a92        	s32i	a9, a10, 0x278
    8c38:	0008e0        	excw
    8c3b:	f01d      	excw
    8c3d:	000000        	ill
    8c40:	004136        	excw
    8c43:	7b8521        	l32r	a2, 0xfffe7a58
    8c46:	7a7931        	l32r	a3, 0xfffe762c
    8c49:	7b8481        	l32r	a8, 0xfffe7a5c
    8c4c:	1b2342        	l32i	a4, a3, 108
    8c4f:	0849      	s32i.n	a4, a8, 0
    8c51:	1b6322        	s32i	a2, a3, 108
    8c54:	f01d      	excw
    8c56:	360000        	excw
    8c59:	1d0041        	l32r	a4, 0xfffd005c
    8c5c:	0000f0        	excw
    8c5f:	413600        	srli	a3, a0, 6
    8c62:	f01d00        	subx8	a1, a13, a0
    8c65:	000000        	ill
    8c68:	002136        	excw
    8c6b:	307230        	xor	a7, a2, a3
    8c6e:	606120        	abs	a6, a2
    8c71:	603130        	abs	a3, a3
    8c74:	3423b6        	bltui	a3, 2, 0x8cac
    8c77:	415160        	srli	a5, a6, 1
    8c7a:	3a3537        	bltu	a5, a3, 0x8cb8
    8c7d:	40f650        	nsau	a5, a6
    8c80:	40f340        	nsau	a4, a3
    8c83:	c04450        	sub	a4, a4, a5
    8c86:	401400        	ssl	a4
    8c89:	a13300        	sll	a3, a3
    8c8c:	020c      	movi.n	a2, 0
    8c8e:	0d9476        	excw
    8c91:	043637        	bltu	a6, a3, 0x8c99
    8c94:	c06630        	sub	a6, a6, a3
    8c97:	221b      	addi.n	a2, a2, 1
    8c99:	1122f0        	slli	a2, a2, 1
    8c9c:	413130        	srli	a3, a3, 1
    8c9f:	013637        	bltu	a6, a3, 0x8ca4
    8ca2:	221b      	addi.n	a2, a2, 1
    8ca4:	605020        	neg	a5, a2
    8ca7:	a32570        	movltz	a2, a5, a7
    8caa:	f01d      	excw
    8cac:	539c      	beqz.n	a3, 0x8cc5
    8cae:	602060        	neg	a2, a6
    8cb1:	b32670        	movgez	a2, a6, a7
    8cb4:	f01d      	excw
    8cb6:	370000        	excw
    8cb9:	0c1036        	excw
    8cbc:	f47c12        	excw
    8cbf:	a32470        	movltz	a2, a4, a7
    8cc2:	f01d      	excw
    8cc4:	000000        	ill
    8cc7:	494400        	excw
    8cca:	0c3056        	bnez	a0, 0x8d91
    8ccd:	f01d02        	l16ui	a0, a13, 0x1e0
    8cd0:	002136        	excw
    8cd3:	207220        	or	a7, a2, a2
    8cd6:	602120        	abs	a2, a2
    8cd9:	603130        	abs	a3, a3
    8cdc:	2c23b6        	bltui	a3, 2, 0x8d0c
    8cdf:	40f250        	nsau	a5, a2
    8ce2:	40f340        	nsau	a4, a3
    8ce5:	14b547        	bgeu	a5, a4, 0x8cfd
    8ce8:	c04450        	sub	a4, a4, a5
    8ceb:	401400        	ssl	a4
    8cee:	a13300        	sll	a3, a3
    8cf1:	089476        	excw
    8cf4:	023237        	bltu	a2, a3, 0x8cfa
    8cf7:	c02230        	sub	a2, a2, a3
    8cfa:	413130        	srli	a3, a3, 1
    8cfd:	023237        	bltu	a2, a3, 0x8d03
    8d00:	c02230        	sub	a2, a2, a3
    8d03:	0027d6        	bgez	a7, 0x8d09
    8d06:	602020        	neg	a2, a2
    8d09:	f01d      	excw
    8d0b:	53cc00        	excw
    8d0e:	000000        	ill
    8d11:	564944        	excw
    8d14:	020c30        	excw
    8d17:	f01d      	excw
    8d19:	000000        	ill
    8d1c:	002136        	excw
    8d1f:	2f23b6        	bltui	a3, 2, 0x8d52
    8d22:	026d      	mov.n	a6, a2
    8d24:	40f650        	nsau	a5, a6
    8d27:	40f340        	nsau	a4, a3
    8d2a:	2ab547        	bgeu	a5, a4, 0x8d58
    8d2d:	c04450        	sub	a4, a4, a5
    8d30:	401400        	ssl	a4
    8d33:	a13300        	sll	a3, a3
    8d36:	00a022        	movi	a2, 0
    8d39:	0d9476        	excw
    8d3c:	043637        	bltu	a6, a3, 0x8d44
    8d3f:	c06630        	sub	a6, a6, a3
    8d42:	221b      	addi.n	a2, a2, 1
    8d44:	1122f0        	slli	a2, a2, 1
    8d47:	413130        	srli	a3, a3, 1
    8d4a:	023637        	bltu	a6, a3, 0x8d50
    8d4d:	01c222        	addi	a2, a2, 1
    8d50:	f01d      	excw
    8d52:	b38c      	beqz.n	a3, 0x8d61
    8d54:	f01d      	excw
    8d56:	370000        	excw
    8d59:	0c0c36        	excw
    8d5c:	f01d12        	l16ui	a1, a13, 0x1e0
    8d5f:	000000        	ill
    8d62:	440000        	extui	a0, a0, 0, 5
    8d65:	5649      	s32i.n	a4, a6, 20
    8d67:	020c30        	excw
    8d6a:	f01d      	excw
    8d6c:	002136        	excw
    8d6f:	2923b6        	bltui	a3, 2, 0x8d9c
    8d72:	40f250        	nsau	a5, a2
    8d75:	40f340        	nsau	a4, a3
    8d78:	16b547        	bgeu	a5, a4, 0x8d92
    8d7b:	c04450        	sub	a4, a4, a5
    8d7e:	401400        	ssl	a4
    8d81:	a13300        	sll	a3, a3
    8d84:	f03d      	nop.n
    8d86:	089476        	excw
    8d89:	023237        	bltu	a2, a3, 0x8d8f
    8d8c:	c02230        	sub	a2, a2, a3
    8d8f:	413130        	srli	a3, a3, 1
    8d92:	023237        	bltu	a2, a3, 0x8d98
    8d95:	c02230        	sub	a2, a2, a3
    8d98:	f01d      	excw
    8d9a:	cc0000        	excw
    8d9d:	000053        	excw
    8da0:	494400        	excw
    8da3:	0c3056        	bnez	a0, 0x8e6a
    8da6:	f01d02        	l16ui	a0, a13, 0x1e0
    8da9:	000000        	ill
    8dac:	002136        	excw
    8daf:	401400        	ssl	a4
    8db2:	07c4e6        	bgei	a4, 32, 0x8dbd
    8db5:	813320        	src	a3, a3, a2
    8db8:	a12200        	sll	a2, a2
    8dbb:	f01d      	excw
    8dbd:	a13200        	sll	a3, a2
    8dc0:	020c      	movi.n	a2, 0
    8dc2:	f01d      	excw
    8dc4:	002136        	excw
    8dc7:	400400        	ssr	a4
    8dca:	07c4e6        	bgei	a4, 32, 0x8dd5
    8dcd:	812320        	src	a2, a3, a2
    8dd0:	913030        	srl	a3, a3
    8dd3:	f01d      	excw
    8dd5:	912030        	srl	a2, a3
    8dd8:	030c      	movi.n	a3, 0
    8dda:	f01d      	excw
    8ddc:	004136        	excw
    8ddf:	1b44b6        	bltui	a4, 4, 0x8dfe
    8de2:	205320        	or	a5, a3, a2
    8de5:	145050        	extui	a5, a5, 0, 2
    8de8:	25dc      	bnez.n	a5, 0x8dfe
    8dea:	418240        	srli	a8, a4, 2
    8ded:	0d9876        	excw
    8df0:	03a8      	l32i.n	a10, a3, 0
    8df2:	0298      	l32i.n	a9, a2, 0
    8df4:	0699a7        	bne	a9, a10, 0x8dfe
    8df7:	224b      	addi.n	a2, a2, 4
    8df9:	334b      	addi.n	a3, a3, 4
    8dfb:	fcc442        	addi	a4, a4, -4
    8dfe:	046d      	mov.n	a6, a4
    8e00:	440b      	addi.n	a4, a4, -1
    8e02:	110426        	beqi	a4, -1, 0x8e17
    8e05:	0e9676        	excw
    8e08:	000372        	l8ui	a7, a3, 0
    8e0b:	000282        	l8ui	a8, a2, 0
    8e0e:	221b      	addi.n	a2, a2, 1
    8e10:	089877        	bne	a8, a7, 0x8e1c
    8e13:	440b      	addi.n	a4, a4, -1
    8e15:	331b      	addi.n	a3, a3, 1
    8e17:	020c      	movi.n	a2, 0
    8e19:	f01d      	excw
    8e1b:	287000        	excw
    8e1e:	f01dc0        	subx8	a1, a13, a12
    8e21:	000000        	ill
    8e24:	947600        	extui	a7, a0, 6, 10
    8e27:	6209      	s32i.n	a0, a2, 24
    8e29:	1b0003        	excw
    8e2c:	456233        	excw
    8e2f:	551b00        	extui	a1, a0, 27, 6
    8e32:	f01d      	excw
    8e34:	ed74b6        	bltui	a4, 7, 0x8e25
    8e37:	000362        	l8ui	a6, a3, 0
    8e3a:	331b      	addi.n	a3, a3, 1
    8e3c:	ffc442        	addi	a4, a4, -1
    8e3f:	004562        	s8i	a6, a5, 0
    8e42:	01c552        	addi	a5, a5, 1
    8e45:	276517        	bbci	a5, 1, 0x8e70
    8e48:	d964b6        	bltui	a4, 6, 0x8e25
    8e4b:	000362        	l8ui	a6, a3, 0
    8e4e:	010372        	l8ui	a7, a3, 1
    8e51:	332b      	addi.n	a3, a3, 2
    8e53:	fec442        	addi	a4, a4, -2
    8e56:	004562        	s8i	a6, a5, 0
    8e59:	014572        	s8i	a7, a5, 1
    8e5c:	552b      	addi.n	a5, a5, 2
    8e5e:	000386        	j	0x8e70
    8e61:	000000        	ill
    8e64:	002136        	excw
    8e67:	205220        	or	a5, a2, a2
    8e6a:	c6e207        	bbsi	a2, 0, 0x8e34
    8e6d:	d7e217        	bbsi	a2, 1, 0x8e48
    8e70:	417440        	srli	a7, a4, 4
    8e73:	03a082        	movi	a8, 3
    8e76:	5a8387        	bany	a3, a8, 0x8ed4
    8e79:	159776        	excw
    8e7c:	0368      	l32i.n	a6, a3, 0
    8e7e:	1378      	l32i.n	a7, a3, 4
    8e80:	0569      	s32i.n	a6, a5, 0
    8e82:	2368      	l32i.n	a6, a3, 8
    8e84:	1579      	s32i.n	a7, a5, 4
    8e86:	3378      	l32i.n	a7, a3, 12
    8e88:	2569      	s32i.n	a6, a5, 8
    8e8a:	10c332        	addi	a3, a3, 16
    8e8d:	3579      	s32i.n	a7, a5, 12
    8e8f:	10c552        	addi	a5, a5, 16
    8e92:	0b6437        	bbci	a4, 3, 0x8ea1
    8e95:	0368      	l32i.n	a6, a3, 0
    8e97:	1378      	l32i.n	a7, a3, 4
    8e99:	338b      	addi.n	a3, a3, 8
    8e9b:	0569      	s32i.n	a6, a5, 0
    8e9d:	1579      	s32i.n	a7, a5, 4
    8e9f:	558b      	addi.n	a5, a5, 8
    8ea1:	07e427        	bbsi	a4, 2, 0x8eac
    8ea4:	14e417        	bbsi	a4, 1, 0x8ebc
    8ea7:	21e407        	bbsi	a4, 0, 0x8ecc
    8eaa:	f01d      	excw
    8eac:	0368      	l32i.n	a6, a3, 0
    8eae:	334b      	addi.n	a3, a3, 4
    8eb0:	0569      	s32i.n	a6, a5, 0
    8eb2:	554b      	addi.n	a5, a5, 4
    8eb4:	04e417        	bbsi	a4, 1, 0x8ebc
    8eb7:	11e407        	bbsi	a4, 0, 0x8ecc
    8eba:	f01d      	excw
    8ebc:	001362        	l16ui	a6, a3, 0
    8ebf:	332b      	addi.n	a3, a3, 2
    8ec1:	005562        	s16i	a6, a5, 0
    8ec4:	552b      	addi.n	a5, a5, 2
    8ec6:	02e407        	bbsi	a4, 0, 0x8ecc
    8ec9:	f01d      	excw
    8ecb:	036200        	excw
    8ece:	456200        	extui	a6, a0, 18, 5
    8ed1:	f01d00        	subx8	a1, a13, a0
    8ed4:	ffa416        	beqz	a4, 0x8ed2
    8ed7:	402300        	ssa8l	a3
    8eda:	10b380        	and	a11, a3, a8
    8edd:	c033b0        	sub	a3, a3, a11
    8ee0:	0368      	l32i.n	a6, a3, 0
    8ee2:	219776        	excw
    8ee5:	1378      	l32i.n	a7, a3, 4
    8ee7:	2388      	l32i.n	a8, a3, 8
    8ee9:	816760        	src	a6, a7, a6
    8eec:	0569      	s32i.n	a6, a5, 0
    8eee:	3398      	l32i.n	a9, a3, 12
    8ef0:	817870        	src	a7, a8, a7
    8ef3:	1579      	s32i.n	a7, a5, 4
    8ef5:	4368      	l32i.n	a6, a3, 16
    8ef7:	818980        	src	a8, a9, a8
    8efa:	2589      	s32i.n	a8, a5, 8
    8efc:	10c332        	addi	a3, a3, 16
    8eff:	819690        	src	a9, a6, a9
    8f02:	3599      	s32i.n	a9, a5, 12
    8f04:	10c552        	addi	a5, a5, 16
    8f07:	156437        	bbci	a4, 3, 0x8f20
    8f0a:	1378      	l32i.n	a7, a3, 4
    8f0c:	2388      	l32i.n	a8, a3, 8
    8f0e:	816760        	src	a6, a7, a6
    8f11:	0569      	s32i.n	a6, a5, 0
    8f13:	338b      	addi.n	a3, a3, 8
    8f15:	817870        	src	a7, a8, a7
    8f18:	1579      	s32i.n	a7, a5, 4
    8f1a:	08c552        	addi	a5, a5, 8
    8f1d:	206880        	or	a6, a8, a8
    8f20:	0c6427        	bbci	a4, 2, 0x8f30
    8f23:	1378      	l32i.n	a7, a3, 4
    8f25:	334b      	addi.n	a3, a3, 4
    8f27:	816760        	src	a6, a7, a6
    8f2a:	0569      	s32i.n	a6, a5, 0
    8f2c:	554b      	addi.n	a5, a5, 4
    8f2e:	076d      	mov.n	a6, a7
    8f30:	33ba      	add.n	a3, a3, a11
    8f32:	06e417        	bbsi	a4, 1, 0x8f3c
    8f35:	18e407        	bbsi	a4, 0, 0x8f51
    8f38:	f01d      	excw
    8f3a:	620000        	excw
    8f3d:	720003        	excw
    8f40:	2b0103        	excw
    8f43:	456233        	excw
    8f46:	457200        	extui	a7, a0, 18, 5
    8f49:	552b01        	l32r	a0, 0xfffde3f8
    8f4c:	01e407        	bbsi	a4, 0, 0x8f51
    8f4f:	f01d      	excw
    8f51:	000362        	l8ui	a6, a3, 0
    8f54:	004562        	s8i	a6, a5, 0
    8f57:	f01d      	excw
    8f59:	000000        	ill
    8f5c:	947600        	extui	a7, a0, 6, 10
    8f5f:	453204        	excw
    8f62:	551b00        	extui	a1, a0, 27, 6
    8f65:	f01d      	excw
    8f67:	84b600        	extui	a11, a0, 6, 9
    8f6a:	4532f1        	l32r	a15, 0xfffda434
    8f6d:	551b00        	extui	a1, a0, 27, 6
    8f70:	440b      	addi.n	a4, a4, -1
    8f72:	286517        	bbci	a5, 1, 0x8f9e
    8f75:	e484b6        	bltui	a4, 8, 0x8f5d
    8f78:	005532        	s16i	a3, a5, 0
    8f7b:	552b      	addi.n	a5, a5, 2
    8f7d:	fec442        	addi	a4, a4, -2
    8f80:	000686        	j	0x8f9e
    8f83:	213600        	srai	a3, a0, 6
    8f86:	303000        	xor	a3, a0, a0
    8f89:	738074        	excw
    8f8c:	337011        	l32r	a1, 0xfffd5d4c
    8f8f:	730020        	excw
    8f92:	337011        	l32r	a1, 0xfffd5d54
    8f95:	025d20        	excw
    8f98:	cce207        	bbsi	a2, 0, 0x8f68
    8f9b:	d6e217        	bbsi	a2, 1, 0x8f75
    8f9e:	417440        	srli	a7, a4, 4
    8fa1:	0a9776        	excw
    8fa4:	0539      	s32i.n	a3, a5, 0
    8fa6:	1539      	s32i.n	a3, a5, 4
    8fa8:	2539      	s32i.n	a3, a5, 8
    8faa:	3539      	s32i.n	a3, a5, 12
    8fac:	10c552        	addi	a5, a5, 16
    8faf:	066437        	bbci	a4, 3, 0x8fb9
    8fb2:	0539      	s32i.n	a3, a5, 0
    8fb4:	1539      	s32i.n	a3, a5, 4
    8fb6:	08c552        	addi	a5, a5, 8
    8fb9:	036427        	bbci	a4, 2, 0x8fc0
    8fbc:	0539      	s32i.n	a3, a5, 0
    8fbe:	554b      	addi.n	a5, a5, 4
    8fc0:	046417        	bbci	a4, 1, 0x8fc8
    8fc3:	005532        	s16i	a3, a5, 0
    8fc6:	552b      	addi.n	a5, a5, 2
    8fc8:	026407        	bbci	a4, 0, 0x8fce
    8fcb:	004532        	s8i	a3, a5, 0
    8fce:	f01d      	excw
    8fd0:	000000        	ill
    8fd3:	000000        	ill
    8fd6:	721102        	l16ui	a0, a1, 228
    8fd9:	000001        	l32r	a0, 0xfffc8fdc