../git/linux-firmware/./ath6k/AR6003.1/hw2.1.1/endpointping.bin:     file format binary


Disassembly of section .data:

00000000 <.data>:
       0:	4d4753        	excw
       3:	000154        	excw
       6:	000000        	ill
       9:	005450        	excw
       c:	02e8      	l32i.n	a14, a2, 0
       e:	070000        	excw
      11:	540000        	extui	a0, a0, 0, 6
      14:	820000        	mull	a0, a0, a0
      17:	b00055        	excw
      1a:	55db      	addi.n	a5, a5, 13
      1c:	060000        	excw
      1f:	060754        	excw
      22:	8208      	l32i.n	a0, a2, 32
      24:	310055        	excw
      27:	4f5b      	addi.n	a4, a15, 5
      29:	5a0000        	excw
      2c:	4f          	.byte 0x4f
      2d:	848000        	extui	a8, a0, 0, 9
      30:	400055        	excw
      33:	558b      	addi.n	a5, a5, 8
      35:	87bc00        	excw
      38:	e80055        	excw
      3b:	540c      	movi.n	a4, 5
      3d:	8bc000        	excw
      40:	000055        	excw
      43:	005584        	excw
      46:	003e00        	excw
      49:	825800        	mull	a5, a8, a0
      4c:	630055        	excw
      4f:	005582        	s16i	a8, a5, 0
      52:	917b50        	excw
      55:	7ba000        	excw
      58:	800091        	l32r	a9, 0xfffe0058
      5b:	005583        	excw
      5e:	5583a0        	extui	a8, a10, 19, 6
      61:	844000        	extui	a4, a0, 0, 9
      64:	f00055        	excw
      67:	005454        	excw
      6a:	559280        	extui	a9, a8, 18, 6
      6d:	924000        	excw
      70:	4c0055        	excw
      73:	005402        	s16i	a0, a4, 0
      76:	540284        	excw
      79:	673000        	excw
      7c:	7c0094        	excw
      7f:	005583        	excw
      82:	6738      	l32i.n	a3, a7, 24
      84:	440094        	excw
      87:	009466        	bnei	a4, 10, 0x8b
      8a:	946260        	extui	a6, a6, 2, 10
      8d:	82a000        	mull	a10, a0, a0
      90:	680055        	excw
      93:	005582        	s16i	a8, a5, 0
      96:	017e00        	slli	a7, a14, 32
      99:	5f5c00        	excw
      9c:	600094        	excw
      9f:	005584        	excw
      a2:	945fb0        	extui	a5, a11, 15, 10
      a5:	fd0400        	excw
      a8:	8e          	.byte 0x8e
      a9:	e00000        	subx4	a0, a0, a0
      ac:	8e          	.byte 0x8e
      ad:	81b000        	src	a11, a0, a0
      b0:	f00055        	excw
      b3:	005452        	s16i	a5, a4, 0
      b6:	5592c0        	extui	a9, a12, 18, 6
      b9:	d15400        	mul16s	a5, a4, a0
      bc:	580055        	excw
      bf:	0055d1        	l32r	a13, 0xfffc0214
      c2:	55d150        	extui	a13, a5, 17, 6
      c5:	d3a000        	excw
      c8:	5c0055        	excw
      cb:	0055d1        	l32r	a13, 0xfffc0220
      ce:	d35c      	movi.n	a3, 93
      d0:	1c0055        	excw
      d3:	0055d3        	excw
      d6:	55d367        	bbs	a3, a6, 0x12f
      d9:	0fff00        	excw
      dc:	4c0000        	excw
      df:	0055d3        	excw
      e2:	07d3c0        	excw
      e5:	008106        	j	0x2ed
      e8:	5592d4        	excw
      eb:	d2fc00        	excw
      ee:	f80055        	excw
      f1:	005592        	s16i	a9, a5, 0
      f4:	540200        	extui	a0, a0, 2, 6
      f7:	317000        	srai	a7, a0, 16
      fa:	500054        	excw
      fd:	005404        	excw
     100:	9470e0        	extui	a7, a14, 0, 10
     103:	713000        	excw
     106:	400094        	excw
     109:	000040        	excw
     10c:	9308      	l32i.n	a0, a3, 36
     10e:	d00055        	excw
     111:	0055d3        	excw
     114:	d348      	l32i.n	a4, a3, 52
     116:	270055        	excw
     119:	0055b2        	s16i	a11, a5, 0
     11c:	6b38      	l32i.n	a3, a11, 24
     11e:	a00094        	excw
     121:	009471        	l32r	a7, 0xfffc0374
     124:	71b8      	l32i.n	a11, a1, 28
     126:	900094        	excw
     129:	008ef1        	l32r	a15, 0xfffc0364
     12c:	81b8      	l32i.n	a11, a1, 32
     12e:	d40055        	excw
     131:	55d9      	s32i.n	a13, a5, 20
     133:	d9d000        	excw
     136:	df0055        	excw
     139:	55d9      	s32i.n	a13, a5, 20
     13b:	da0800        	excw
     13e:	2b0055        	excw
     141:	55da      	add.n	a5, a5, a13
     143:	da7100        	excw
     146:	700055        	excw
     149:	55da      	add.n	a5, a5, a13
     14b:	744c00        	extui	a4, a0, 12, 8
     14e:	700094        	excw
     151:	55db      	addi.n	a5, a5, 13
     153:	048800        	extui	a8, a0, 8, 1
     156:	b80054        	excw
     159:	005404        	excw
     15c:	5401e4        	excw
     15f:	761c00        	excw
     162:	380094        	excw
     165:	009476        	excw
     168:	947344        	excw
     16b:	74f800        	extui	a15, a0, 8, 8
     16e:	640094        	excw
     171:	009476        	excw
     174:	4988      	l32i.n	a8, a9, 16
     176:	8e          	.byte 0x8e
     177:	db8800        	excw
     17a:	000055        	excw
     17d:	800000        	add	a0, a0, a0
     180:	400000        	ssr	a0
     183:	080407        	bnone	a4, a0, 0x18f
     186:	ffff40        	excw
     189:	3f          	.byte 0x3f
     18a:	e00000        	subx4	a0, a0, a0
     18d:	000000        	ill
     190:	00fff0        	excw
     193:	00de00        	excw
     196:	be0000        	excw
     199:	160407        	bnone	a4, a0, 0x1b3
     19c:	ff0000        	excw
     19f:	bf          	.byte 0xbf
     1a0:	ff          	.byte 0xff
     1a1:	ff          	.byte 0xff
     1a2:	7e88      	l32i.n	a8, a14, 28
     1a4:	000094        	excw
     1a7:	00ff00        	excw
     1aa:	947de0        	extui	a7, a14, 13, 10
     1ad:	776800        	excw
     1b0:	280094        	excw
     1b3:	009477        	bne	a4, a7, 0x1b7
     1b6:	778c      	beqz.n	a7, 0x1c1
     1b8:	000094        	excw
     1bb:	947d      	excw
     1bd:	7c2800        	excw
     1c0:	3c0094        	excw
     1c3:	7f          	.byte 0x7f
     1c4:	0c0094        	excw
     1c7:	9478      	l32i.n	a7, a4, 36
     1c9:	782000        	excw
     1cc:	b80094        	excw
     1cf:	9478      	l32i.n	a7, a4, 36
     1d1:	7b0800        	excw
     1d4:	e00094        	excw
     1d7:	9479      	s32i.n	a7, a4, 36
     1d9:	7c1800        	excw
     1dc:	900094        	excw
     1df:	7e          	.byte 0x7e
     1e0:	200094        	excw
     1e3:	7e          	.byte 0x7e
     1e4:	f00094        	excw
     1e7:	7e          	.byte 0x7e
     1e8:	f80094        	excw
     1eb:	7e          	.byte 0x7e
     1ec:	8c0094        	excw
     1ef:	55db      	addi.n	a5, a5, 13
     1f1:	81e800        	src	a14, a8, a0
     1f4:	000055        	excw
     1f7:	0001c2        	l8ui	a12, a1, 0
     1fa:	81bc      	beqz.n	a1, 0x236
     1fc:	cc0055        	excw
     1ff:	7f          	.byte 0x7f
     200:	880094        	excw
     203:	009483        	excw
     206:	81b8      	l32i.n	a11, a1, 32
     208:	1c0094        	excw
     20b:	009482        	l16si	a8, a4, 0
     20e:	8088      	l32i.n	a8, a0, 32
     210:	2c0094        	excw
     213:	009481        	l32r	a8, 0xfffc0464
     216:	83e8      	l32i.n	a14, a3, 32
     218:	740094        	excw
     21b:	009484        	excw
     21e:	9480c0        	extui	a8, a12, 0, 10
     221:	86c000        	excw
     224:	e40094        	excw
     227:	009486        	j	0x47d
     22a:	869c      	beqz.n	a6, 0x246
     22c:	500094        	excw
     22f:	009487        	bne	a4, a8, 0x233
     232:	87a8      	l32i.n	a10, a7, 32
     234:	0c0094        	excw
     237:	9488      	l32i.n	a8, a4, 36
     239:	888c00        	excw
     23c:	180094        	excw
     23f:	009485        	call0	0xb88
     242:	948b80        	extui	a8, a8, 11, 10
     245:	070000        	excw
     248:	8c1404        	excw
     24b:	8c0094        	excw
     24e:	948b      	addi.n	a9, a4, 8
     250:	060c00        	excw
     253:	240054        	excw
     256:	005406        	j	0x3aa
     259:	948994        	excw
     25c:	8a4c00        	excw
     25f:	c00094        	excw
     262:	9489      	s32i.n	a8, a4, 36
     264:	8b4000        	excw
     267:	600094        	excw
     26a:	948b      	addi.n	a9, a4, 8
     26c:	895000        	excw
     26f:	1c0094        	excw
     272:	948a      	add.n	a9, a4, a8
     274:	db9000        	excw
     277:	c00055        	excw
     27a:	005581        	l32r	a8, 0xfffc03d0
     27d:	8d7c      	movi.n	a13, -8
     27f:	980094        	excw
     282:	948d      	excw
     284:	000000        	ill
     287:	000802        	l8ui	a0, a8, 0
     28a:	880c00        	excw
     28d:	062a      	add.n	a0, a6, a2
     28f:	000054        	excw
     292:	080d00        	excw
     295:	014000        	slli	a4, a0, 32
     298:	c01f00        	sub	a1, a15, a0
     29b:	ff          	.byte 0xff
     29c:	ff          	.byte 0xff
     29d:	002000        	isync
     2a0:	3e0000        	excw
     2a3:	a40001        	l32r	a0, 0xfffe92a4
     2a6:	55db      	addi.n	a5, a5, 13
     2a8:	07a800        	excw
     2ab:	348205        	call0	0x34acc
     2ae:	008803        	excw
     2b1:	480400        	excw
     2b4:	110000        	slli	a0, a0, 16
     2b7:	2048      	l32i.n	a4, a0, 8
     2b9:	1c0407        	bnone	a4, a0, 0x2d9
     2bc:	080500        	excw
     2bf:	0a0000        	excw
     2c2:	0048      	l32i.n	a4, a0, 0
     2c4:	040780        	extui	a0, a8, 7, 1
     2c7:	060c      	movi.n	a6, 0
     2c9:	0008      	l32i.n	a0, a0, 0
     2cb:	480900        	excw
     2ce:	100000        	and	a0, a0, a0
     2d1:	0048      	l32i.n	a4, a0, 0
     2d3:	080f00        	excw
     2d6:	0e0000        	excw
     2d9:	6408      	l32i.n	a0, a4, 24
     2db:	5429      	s32i.n	a2, a4, 20
     2dd:	0a2400        	excw
     2e0:	540407        	bnone	a4, a0, 0x338
     2e3:	000002        	l8ui	a0, a0, 0
     2e6:	080b00        	excw
     2e9:	080000        	excw
     2ec:	f048      	l32i.n	a4, a0, 60
     2ee:	005452        	s16i	a5, a4, 0
     2f1:	0248      	l32i.n	a4, a2, 0
     2f3:	010000        	slli	a0, a0, 32
     2f6:	210000        	srai	a0, a0, 0
     2f9:	204210        	or	a4, a2, a1
     2fc:	843063        	excw
     2ff:	50a540        	excw
     302:	e760c6        	j	0xffffa089
     305:	810870        	src	a0, a8, a7
     308:	9129      	s32i.n	a2, a1, 36
     30a:	a14a      	add.n	a10, a1, a4
     30c:	b16b      	addi.n	a11, a1, 6
     30e:	c18c      	beqz.n	a1, 0x31e
     310:	d1ad      	excw
     312:	ce          	.byte 0xce
     313:	f1efe1        	l32r	a14, 0xffffcad0
     316:	101231        	l32r	a3, 0xfffc4360
     319:	327302        	excw
     31c:	b52252        	l32i	a5, a2, 0x2d4
     31f:	429452        	l16si	a5, a4, 132
     322:	d672f7        	bbci	a2, 31, 0x2fc
     325:	933962        	excw
     328:	8318      	l32i.n	a1, a3, 32
     32a:	b37b      	addi.n	a11, a3, 7
     32c:	a35a      	add.n	a10, a3, a5
     32e:	d3bd      	excw
     330:	c39c      	beqz.n	a3, 0x350
     332:	ff          	.byte 0xff
     333:	e3def3        	excw
     336:	432462        	l32i	a6, a4, 0x10c
     339:	042034        	excw
     33c:	140001        	l32r	a0, 0xfffc533c
     33f:	c764e6        	bgei	a4, 6, 0x30a
     342:	44a474        	excw
     345:	6a5485        	call0	0x6a890
     348:	b54ba5        	excw
     34b:	8528      	l32i.n	a2, a5, 32
     34d:	9509      	s32i.n	a0, a5, 36
     34f:	ee          	.byte 0xee
     350:	f5cfe5        	excw
     353:	c5ac      	beqz.n	a5, 0x383
     355:	d58d      	excw
     357:	723653        	excw
     35a:	161126        	beqi	a1, 1, 0x374
     35d:	d70630        	excw
     360:	66f676        	excw
     363:	b45695        	excw
     366:	b75b46        	j	0xfffee0d7
     369:	a77a      	add.n	a10, a7, a7
     36b:	9719      	s32i.n	a1, a7, 36
     36d:	8738      	l32i.n	a3, a7, 32
     36f:	df          	.byte 0xdf
     370:	e7fef7        	bbsi	a14, 31, 0x35b
     373:	d79d      	excw
     375:	c7bc      	beqz.n	a7, 0x3b5
     377:	e548c4        	excw
     37a:	8658      	l32i.n	a5, a6, 32
     37c:	a768      	l32i.n	a6, a7, 40
     37e:	4078      	l32i.n	a7, a0, 16
     380:	6108      	l32i.n	a0, a1, 24
     382:	0218      	l32i.n	a1, a2, 0
     384:	2328      	l32i.n	a2, a3, 8
     386:	cc38      	l32i.n	a3, a12, 48
     388:	edc9      	s32i.n	a12, a13, 56
     38a:	8ed9      	s32i.n	a13, a14, 32
     38c:	afe9      	s32i.n	a14, a15, 40
     38e:	48f9      	s32i.n	a15, a8, 16
     390:	6989      	s32i.n	a8, a9, 24
     392:	0a99      	s32i.n	a9, a10, 0
     394:	2ba9      	s32i.n	a10, a11, 8
     396:	f5b9      	s32i.n	a11, a5, 60
     398:	d45a      	add.n	a13, a4, a5
     39a:	b74a      	add.n	a11, a7, a4
     39c:	967a      	add.n	a9, a6, a7
     39e:	716a      	add.n	a7, a1, a6
     3a0:	501a      	add.n	a5, a0, a1
     3a2:	330a      	add.n	a3, a3, a0
     3a4:	123a      	add.n	a1, a2, a3
     3a6:	fd2a      	add.n	a15, a13, a2
     3a8:	dcdb      	addi.n	a13, a12, 13
     3aa:	bfcb      	addi.n	a11, a15, 12
     3ac:	9efb      	addi.n	a9, a14, 15
     3ae:	79eb      	addi.n	a7, a9, 14
     3b0:	589b      	addi.n	a5, a8, 9
     3b2:	3b8b      	addi.n	a3, a11, 8
     3b4:	1abb      	addi.n	a1, a10, 11
     3b6:	a6ab      	addi.n	a10, a6, 10
     3b8:	876c      	movi.n	a7, -24
     3ba:	e47c      	movi.n	a4, -2
     3bc:	c54c      	movi.n	a5, 76
     3be:	225c      	movi.n	a2, 82
     3c0:	032c      	movi.n	a3, 32
     3c2:	603c      	movi.n	a0, 54
     3c4:	410c      	movi.n	a1, 4
     3c6:	ae1c      	movi.n	a14, 26
     3c8:	8fed      	excw
     3ca:	ecfd      	excw
     3cc:	cdcd      	excw
     3ce:	2add      	excw
     3d0:	0bad      	mov.n	a10, a11
     3d2:	68bd      	excw
     3d4:	498d      	excw
     3d6:	979d      	excw
     3d8:	7e          	.byte 0x7e
     3d9:	d56eb6        	bltui	a14, 6, 0x3b2
     3dc:	5e          	.byte 0x5e
     3dd:	134ef4        	excw
     3e0:	3e          	.byte 0x3e
     3e1:	512e32        	l32i	a3, a14, 0x144
     3e4:	1e          	.byte 0x1e
     3e5:	9f0e70        	excw
     3e8:	ff          	.byte 0xff
     3e9:	be          	.byte 0xbe
     3ea:	ef          	.byte 0xef
     3eb:	dfdd      	excw
     3ed:	cffc      	bnez.n	a15, 0x42d
     3ef:	bf1b      	addi.n	a11, a15, 1
     3f1:	af3a      	add.n	a10, a15, a3
     3f3:	9f59      	s32i.n	a5, a15, 36
     3f5:	8f78      	l32i.n	a7, a15, 32
     3f7:	9188      	l32i.n	a8, a1, 36
     3f9:	81a9      	s32i.n	a10, a1, 32
     3fb:	b1ca      	add.n	a11, a1, a12
     3fd:	a1eb      	addi.n	a10, a1, 14
     3ff:	d10c      	movi.n	a1, 13
     401:	c12d      	excw
     403:	4e          	.byte 0x4e
     404:	e16ff1        	l32r	a15, 0xffff89c0
     407:	a11080        	excw
     40a:	30c200        	xor	a12, a2, a0
     40d:	0420e3        	excw
     410:	402550        	excw
     413:	677046        	j	0x1a1d8
     416:	83b960        	moveqz	a11, a9, a6
     419:	9398      	l32i.n	a9, a3, 36
     41b:	a3fb      	addi.n	a10, a3, 15
     41d:	b3da      	add.n	a11, a3, a13
     41f:	c33d      	excw
     421:	d31c      	movi.n	a3, 29
     423:	7f          	.byte 0x7f
     424:	f35ee3        	excw
     427:	9002b1        	l32r	a11, 0xfffe4430
     42a:	22f312        	excw
     42d:	3532d2        	excw
     430:	521442        	l16ui	a4, a4, 164
     433:	566277        	bbci	a2, 7, 0x48d
     436:	b5ea72        	excw
     439:	a5cb      	addi.n	a10, a5, 12
     43b:	95a8      	l32i.n	a10, a5, 36
     43d:	8589      	s32i.n	a8, a5, 32
     43f:	6e          	.byte 0x6e
     440:	e54ff5        	excw
     443:	d52c      	movi.n	a5, 45
     445:	c50d      	excw
     447:	c334e2        	excw
     44a:	14a024        	excw
     44d:	660481        	l32r	a8, 0xfffd9c60
     450:	644774        	excw
     453:	055424        	excw
     456:	a7db44        	excw
     459:	b7fa      	add.n	a11, a7, a15
     45b:	8799      	s32i.n	a9, a7, 32
     45d:	97b8      	l32i.n	a11, a7, 36
     45f:	5f          	.byte 0x5f
     460:	f77ee7        	bbci	a14, 30, 0x45b
     463:	c71d      	excw
     465:	d73c      	movi.n	a7, 61
     467:	f226d3        	excw
     46a:	069136        	excw
     46d:	5716b0        	excw
     470:	767666        	bnei	a6, 7, 0x4ea
     473:	344615        	excw
     476:	d94c56        	bnez	a12, 0x20e
     479:	c96d      	excw
     47b:	0e          	.byte 0xe
     47c:	2ff9      	s32i.n	a15, a15, 8
     47e:	c8e9      	s32i.n	a14, a8, 48
     480:	e999      	s32i.n	a9, a9, 56
     482:	8a89      	s32i.n	a8, a10, 32
     484:	abb9      	s32i.n	a11, a11, 40
     486:	44a9      	s32i.n	a10, a4, 16
     488:	6558      	l32i.n	a5, a5, 24
     48a:	0648      	l32i.n	a4, a6, 0
     48c:	2778      	l32i.n	a7, a7, 8
     48e:	c068      	l32i.n	a6, a0, 48
     490:	e118      	l32i.n	a1, a1, 56
     492:	8208      	l32i.n	a0, a2, 32
     494:	a338      	l32i.n	a3, a3, 40
     496:	7d28      	l32i.n	a2, a13, 28
     498:	5ccb      	addi.n	a5, a12, 12
     49a:	3fdb      	addi.n	a3, a15, 13
     49c:	1eeb      	addi.n	a1, a14, 14
     49e:	f9fb      	addi.n	a15, a9, 15
     4a0:	d88b      	addi.n	a13, a8, 8
     4a2:	bb9b      	addi.n	a11, a11, 9
     4a4:	9aab      	addi.n	a9, a10, 10
     4a6:	75bb      	addi.n	a7, a5, 11
     4a8:	544a      	add.n	a5, a4, a4
     4aa:	375a      	add.n	a3, a7, a5
     4ac:	166a      	add.n	a1, a6, a6
     4ae:	f17a      	add.n	a15, a1, a7
     4b0:	d00a      	add.n	a13, a0, a0
     4b2:	b31a      	add.n	a11, a3, a1
     4b4:	922a      	add.n	a9, a2, a2
     4b6:	2e3a      	add.n	a2, a14, a3
     4b8:	0ffd      	mov.n	a15, a15
     4ba:	6ced      	excw
     4bc:	4ddd      	excw
     4be:	aacd      	excw
     4c0:	8bbd      	excw
     4c2:	e8ad      	excw
     4c4:	c99d      	excw
     4c6:	268d      	excw
     4c8:	077c      	movi.n	a7, -16
     4ca:	646c      	movi.n	a4, -26
     4cc:	455c      	movi.n	a5, 84
     4ce:	a24c      	movi.n	a2, 74
     4d0:	833c      	movi.n	a3, 56
     4d2:	e02c      	movi.n	a0, 46
     4d4:	c11c      	movi.n	a1, 28
     4d6:	1f0c      	movi.n	a15, 1
     4d8:	ef          	.byte 0xef
     4d9:	3e          	.byte 0x3e
     4da:	ff          	.byte 0xff
     4db:	cf5d      	excw
     4dd:	df7c      	movi.n	a15, -3
     4df:	af9b      	addi.n	a10, a15, 9
     4e1:	bfba      	add.n	a11, a15, a11
     4e3:	8fd9      	s32i.n	a13, a15, 32
     4e5:	9ff8      	l32i.n	a15, a15, 36
     4e7:	366e17        	bbci	a14, 1, 0x521
     4ea:	7e          	.byte 0x7e
     4eb:	744e55        	excw
     4ee:	5e          	.byte 0x5e
     4ef:	b22e93        	excw
     4f2:	3e          	.byte 0x3e
     4f3:	f00ed1        	l32r	a13, 0xffffc52c
     4f6:	1e          	.byte 0x1e
     4f7:	736554        	excw
     4fa:	732074        	excw
     4fd:	6c6974        	excw
     500:	206c      	movi.n	a0, -30
     502:	6e7572        	excw
     505:	6e          	.byte 0x6e
     506:	6e69      	s32i.n	a6, a14, 24
     508:	202c67        	blt	a12, a6, 0x52c
     50b:	726f66        	bnei	a15, 6, 0x581
     50e:	6e6963        	excw
     511:	732067        	blt	a0, a6, 0x588
     514:	706f74        	excw
     517:	202c      	movi.n	a0, 34
     519:	656c70        	extui	a6, a7, 28, 7
     51c:	657361        	l32r	a6, 0xfffd9ae8
     51f:	727420        	excw
     522:	2079      	s32i.n	a7, a0, 8
     524:	616761        	l32r	a6, 0xfffd8ac0
     527:	6e69      	s32i.n	a6, a14, 24
     529:	0a2020        	excw
     52c:	000000        	ill
     52f:	5581b0        	extui	a8, a11, 17, 6
     532:	040401        	l32r	a0, 0xfffc1544
     535:	820000        	mull	a0, a0, a0
     538:	b00055        	excw
     53b:	55db      	addi.n	a5, a5, 13
     53d:	81b000        	src	a11, a0, a0
     540:	4c0055        	excw
     543:	000000        	ill
     546:	000203        	excw
     549:	010000        	slli	a0, a0, 32
     54c:	000000        	ill
     54f:	ff          	.byte 0xff
     550:	000000        	ill
     553:	0c0403        	excw
     556:	948db4        	excw
     559:	8e0000        	excw
     55c:	5c0094        	excw
     55f:	8e          	.byte 0x8e
     560:	dc0094        	excw
     563:	8f          	.byte 0x8f
     564:	1c0094        	excw
     567:	009490        	excw
     56a:	949050        	extui	a9, a5, 0, 10
     56d:	908800        	addx2	a8, a8, a0
     570:	d00094        	excw
     573:	009490        	excw
     576:	912c      	movi.n	a1, 41
     578:	140094        	excw
     57b:	009492        	l16si	a9, a4, 0
     57e:	8c6c      	movi.n	a12, -24
     580:	f40094        	excw
     583:	948c      	beqz.n	a4, 0x590
     585:	8e9800        	excw
     588:	900094        	excw
     58b:	8f          	.byte 0x8f
     58c:	5c0094        	excw
     58f:	009491        	l32r	a9, 0xfffc07e0
     592:	945d00        	extui	a5, a0, 13, 10
     595:	354300        	extui	a4, a0, 19, 4
     598:	6f0000        	excw
     59b:	006136        	excw
     59e:	b00021        	l32r	a2, 0xfffec5a0
     5a1:	b001a1        	l32r	a10, 0xfffec5a8
     5a4:	1288      	l32i.n	a8, a2, 4
     5a6:	b002b1        	l32r	a11, 0xfffec5b0
     5a9:	0f18a7        	beq	a8, a10, 0x5bc
     5ac:	0a9d      	mov.n	a9, a10
     5ae:	c0bba0        	sub	a11, a11, a10
     5b1:	00a0a2        	movi	a10, 0
     5b4:	04ab76        	excw
     5b7:	0049a2        	s8i	a10, a9, 0
     5ba:	991b      	addi.n	a9, a9, 1
     5bc:	002282        	l32i	a8, a2, 0
     5bf:	b003a1        	l32r	a10, 0xfffec5cc
     5c2:	b00491        	l32r	a9, 0xfffec5d4
     5c5:	0ca5c2        	movi	a12, 0x50c
     5c8:	04a0b2        	movi	a11, 4
     5cb:	0061b2        	s32i	a11, a1, 0
     5ce:	11c9      	s32i.n	a12, a1, 4
     5d0:	01bd      	mov.n	a11, a1
     5d2:	266a92        	s32i	a9, a10, 152
     5d5:	8a0c      	movi.n	a10, 8
     5d7:	0008e0        	excw
     5da:	7a8c      	beqz.n	a10, 0x5e5
     5dc:	6b2282        	l32i	a8, a2, 0x1ac
     5df:	0008e0        	excw
     5e2:	00a665        	excw
     5e5:	f01d      	excw
     5e7:	004136        	excw
     5ea:	b00551        	l32r	a5, 0xfffec600
     5ed:	040c      	movi.n	a4, 0
     5ef:	045242        	s16i	a4, a2, 8
     5f2:	142532        	l32i	a3, a5, 80
     5f5:	0249      	s32i.n	a4, a2, 0
     5f7:	331b      	addi.n	a3, a3, 1
     5f9:	132542        	l32i	a4, a5, 76
     5fc:	146532        	s32i	a3, a5, 80
     5ff:	048c      	beqz.n	a4, 0x603
     601:	0249      	s32i.n	a4, a2, 0
     603:	136522        	s32i	a2, a5, 76
     606:	f01d      	excw
     608:	000000        	ill
     60b:	004136        	excw
     60e:	b00561        	l32r	a6, 0xfffec624
     611:	020c      	movi.n	a2, 0
     613:	132642        	l32i	a4, a6, 76
     616:	142652        	l32i	a5, a6, 80
     619:	c49c      	beqz.n	a4, 0x639
     61b:	0438      	l32i.n	a3, a4, 0
     61d:	020c      	movi.n	a2, 0
     61f:	136632        	s32i	a3, a6, 76
     622:	0429      	s32i.n	a2, a4, 0
     624:	042d      	mov.n	a2, a4
     626:	0a15e6        	bgei	a5, 1, 0x634
     629:	b00681        	l32r	a8, 0xfffec644
     62c:	0020c0        	memw
     62f:	0888      	l32i.n	a8, a8, 0
     631:	0020c0        	memw
     634:	950b      	addi.n	a9, a5, -1
     636:	146692        	s32i	a9, a6, 80
     639:	6f          	.byte 0x6f
     63a:	815405        	call0	0xfff81b7c
     63d:	82b005        	call0	0xfff83140
     640:	1428      	l32i.n	a2, a4, 4
     642:	040c      	movi.n	a4, 0
     644:	03a827        	bge	a8, a2, 0x64b
     647:	042d      	mov.n	a2, a4
     649:	f01d      	excw
     64b:	fffbe5        	excw
     64e:	0a4d      	mov.n	a4, a10
     650:	b00731        	l32r	a3, 0xfffec66c
     653:	9acc      	bnez.n	a10, 0x660
     655:	056f91        	l32r	a9, 0xfffc1c14
     658:	2e          	.byte 0x2e
     659:	0998      	l32i.n	a9, a9, 0
     65b:	0020c0        	memw
     65e:	045d      	mov.n	a5, a4
     660:	220b      	addi.n	a2, a2, -1
     662:	fdf216        	beqz	a2, 0x645
     665:	fffa25        	excw
     668:	cacc      	bnez.n	a10, 0x678
     66a:	01d3b2        	addmi	a11, a3, 0x100
     66d:	31cbb2        	addi	a11, a11, 49
     670:	0020c0        	memw
     673:	0bb8      	l32i.n	a11, a11, 0
     675:	0020c0        	memw
     678:	05a9      	s32i.n	a10, a5, 0
     67a:	220b      	addi.n	a2, a2, -1
     67c:	0a5d      	mov.n	a5, a10
     67e:	e312e6        	bgei	a2, 1, 0x665
     681:	fff006        	j	0x645
     684:	6f          	.byte 0x6f
     685:	008106        	j	0x88d
     688:	b00821        	l32r	a2, 0xfffec6a8
     68b:	b00951        	l32r	a5, 0xfffec6b0
     68e:	b00a41        	l32r	a4, 0xfffec6b8
     691:	b00031        	l32r	a3, 0xfffec694
     694:	b00b71        	l32r	a7, 0xfffec6c0
     697:	060c      	movi.n	a6, 0
     699:	0a0c      	movi.n	a10, 0
     69b:	4388      	l32i.n	a8, a3, 16
     69d:	86a6b2        	movi	a11, 0x686
     6a0:	0008e0        	excw
     6a3:	12a9      	s32i.n	a10, a2, 4
     6a5:	0269      	s32i.n	a6, a2, 0
     6a7:	0e3427        	bltu	a4, a2, 0x6b9
     6aa:	07a8      	l32i.n	a10, a7, 0
     6ac:	0b0c      	movi.n	a11, 0
     6ae:	a52382        	l32i	a8, a3, 0x294
     6b1:	02cd      	mov.n	a12, a2
     6b3:	0008e0        	excw
     6b6:	0003c6        	j	0x6c9
     6b9:	200292        	l8ui	a9, a2, 32
     6bc:	4a0c      	movi.n	a10, 4
     6be:	2099a0        	or	a9, a9, a10
     6c1:	204292        	s8i	a9, a2, 32
     6c4:	02ad      	mov.n	a10, a2
     6c6:	fff1a5        	excw
     6c9:	24c222        	addi	a2, a2, 36
     6cc:	c99257        	bne	a2, a5, 0x699
     6cf:	6f          	.byte 0x6f
     6d0:	1c8105        	call0	0x1cee4
     6d3:	0348      	l32i.n	a4, a3, 0
     6d5:	b00681        	l32r	a8, 0xfffec6f0
     6d8:	648c      	beqz.n	a4, 0x6e2
     6da:	6f          	.byte 0x6f
     6db:	8108      	l32i.n	a0, a1, 32
     6dd:	056135        	excw
     6e0:	0392b0        	excw
     6e3:	1a0c20        	excw
     6e6:	6f          	.byte 0x6f
     6e7:	432d04        	excw
     6ea:	265820        	excw
     6ed:	35cc      	bnez.n	a5, 0x6f4
     6ef:	1629      	s32i.n	a2, a6, 4
     6f1:	000046        	j	0x6f6
     6f4:	0529      	s32i.n	a2, a5, 0
     6f6:	2639      	s32i.n	a3, a6, 8
     6f8:	f01d      	excw
     6fa:	6f          	.byte 0x6f
     6fb:	917c04        	excw
     6fe:	81b005        	call0	0xfff82200
     701:	28b007        	bgeu	a0, a0, 0x72d
     704:	c819      	s32i.n	a1, a8, 48
     706:	bc29      	s32i.n	a2, a12, 44
     708:	024d82        	s8i	a8, a13, 2
     70b:	200452        	l8ui	a5, a4, 32
     70e:	296507        	bbci	a5, 0, 0x73b
     711:	030c      	movi.n	a3, 0
     713:	0478      	l32i.n	a7, a4, 0
     715:	fea0a2        	movi	a10, 254
     718:	10a5a0        	and	a10, a5, a10
     71b:	2044a2        	s8i	a10, a4, 32
     71e:	2968      	l32i.n	a6, a9, 8
     720:	1979      	s32i.n	a7, a9, 4
     722:	836370        	moveqz	a6, a3, a7
     725:	2969      	s32i.n	a6, a9, 8
     727:	0439      	s32i.n	a3, a4, 0
     729:	54ec      	bnez.n	a4, 0x752
     72b:	6fd8b2        	addmi	a11, a8, 0x6f00
     72e:	810c      	movi.n	a1, 8
     730:	1d4a      	add.n	a1, a13, a4
     732:	0448f0        	extui	a4, a15, 8, 1
     735:	fca456        	bnez	a4, 0x703
     738:	fff9c6        	j	0x723
     73b:	9c8c      	beqz.n	a12, 0x748
     73d:	056fd1        	l32r	a13, 0xfffc1cfc
     740:	d87b81        	l32r	a8, 0xffff692c
     743:	c00d      	excw
     745:	0c0020        	excw
     748:	f01d02        	l16ui	a0, a13, 0x1e0
     74b:	6f          	.byte 0x6f
     74c:	588105        	call0	0x58f60
     74f:	f28c      	beqz.n	a2, 0x762
     751:	80a082        	movi	a8, 128
     754:	0e2827        	blt	a8, a2, 0x766
     757:	b00081        	l32r	a8, 0xfffec758
     75a:	142882        	l32i	a8, a8, 80
     75d:	02ad      	mov.n	a10, a2
     75f:	6f08e0        	excw
     762:	921c05        	call0	0xfff92924
     765:	2700a2        	l8ui	a10, a0, 39
     768:	0329      	s32i.n	a2, a3, 0
     76a:	120c      	movi.n	a2, 1
     76c:	f01d      	excw
     76e:	220c      	movi.n	a2, 2
     770:	6f          	.byte 0x6f
     771:	348105        	call0	0x34f84
     774:	b005a1        	l32r	a10, 0xfffec788
     777:	b00041        	l32r	a4, 0xfffec778
     77a:	5a98      	l32i.n	a9, a10, 20
     77c:	126a32        	s32i	a3, a10, 72
     77f:	0388      	l32i.n	a8, a3, 0
     781:	991b      	addi.n	a9, a9, 1
     783:	5a99      	s32i.n	a9, a10, 20
     785:	042856        	bnez	a8, 0x7cb
     788:	0413c2        	l16ui	a12, a3, 8
     78b:	7aa652        	movi	a5, 0x67a
     78e:	c055c0        	sub	a5, a5, a12
     791:	3655f6        	bgeui	a5, 5, 0x7cb
     794:	13b8      	l32i.n	a11, a3, 4
     796:	b00c61        	l32r	a6, 0xfffec7c8
     799:	3b2482        	l32i	a8, a4, 236
     79c:	670c      	movi.n	a7, 6
     79e:	065372        	s16i	a7, a3, 12
     7a1:	06ad      	mov.n	a10, a6
     7a3:	0008e0        	excw
     7a6:	13a8      	l32i.n	a10, a3, 4
     7a8:	06bd      	mov.n	a11, a6
     7aa:	aa6b      	addi.n	a10, a10, 6
     7ac:	13a9      	s32i.n	a10, a3, 4
     7ae:	3b2482        	l32i	a8, a4, 236
     7b1:	0413c2        	l16ui	a12, a3, 8
     7b4:	0008e0        	excw
     7b7:	05cd      	mov.n	a12, a5
     7b9:	13b8      	l32i.n	a11, a3, 4
     7bb:	0413a2        	l16ui	a10, a3, 8
     7be:	3a2482        	l32i	a8, a4, 232
     7c1:	aaba      	add.n	a10, a10, a11
     7c3:	ffa0b2        	movi	a11, 255
     7c6:	0008e0        	excw
     7c9:	4379      	s32i.n	a7, a3, 16
     7cb:	03cd      	mov.n	a12, a3
     7cd:	02bd      	mov.n	a11, a2
     7cf:	b00ba1        	l32r	a10, 0xfffec7fc
     7d2:	a62482        	l32i	a8, a4, 0x298
     7d5:	0aa8      	l32i.n	a10, a10, 0
     7d7:	0008e0        	excw
     7da:	6f          	.byte 0x6f
     7db:	708106        	j	0x1c9e3
     7de:	fff0e5        	excw
     7e1:	0abd      	mov.n	a11, a10
     7e3:	9acc      	bnez.n	a10, 0x7f0
     7e5:	6f          	.byte 0x6f
     7e6:	830b      	addi.n	a8, a3, -1
     7e8:	a858      	l32i.n	a5, a8, 40
     7ea:	e57b      	addi.n	a14, a5, 7
     7ec:	21fff7        	bbsi	a15, 31, 0x811
     7ef:	b8b005        	call0	0xfffb92f0
     7f2:	4bcc12        	addi	a1, a12, 75
     7f5:	090c      	movi.n	a9, 0
     7f7:	3299      	s32i.n	a9, a2, 12
     7f9:	f01d      	excw
     7fb:	6ba8      	l32i.n	a10, a11, 24
     7fd:	fff425        	excw
     800:	0abd      	mov.n	a11, a10
     802:	0c1ae6        	bgei	a10, 1, 0x812
     805:	ffede5        	excw
     808:	0abd      	mov.n	a11, a10
     80a:	7aa8      	l32i.n	a10, a10, 28
     80c:	fff5a5        	excw
     80f:	fff786        	j	0x7f1
     812:	0c0c      	movi.n	a12, 0
     814:	42a9      	s32i.n	a10, a2, 16
     816:	190c      	movi.n	a9, 1
     818:	b00081        	l32r	a8, 0xfffec818
     81b:	3299      	s32i.n	a9, a2, 12
     81d:	632882        	l32i	a8, a8, 0x18c
     820:	b00da1        	l32r	a10, 0xfffec854
     823:	6f          	.byte 0x6f
     824:	6f5505        	call0	0x6fd78
     827:	448206        	j	0x11a33
     82a:	080c      	movi.n	a8, 0
     82c:	116982        	s32i	a8, a9, 68
     82f:	6f1e25        	excw
     832:	611006        	j	0x18c76
     835:	88b005        	call0	0xfff89338
     838:	788c36        	excw
     83b:	03ad      	mov.n	a10, a3
     83d:	04bd      	mov.n	a11, a4
     83f:	ffe6e5        	excw
     842:	f01d      	excw
     844:	62a8      	l32i.n	a10, a2, 24
     846:	ffef25        	excw
     849:	0a5d      	mov.n	a5, a10
     84b:	1e1aa6        	blti	a10, 1, 0x86d
     84e:	04bd      	mov.n	a11, a4
     850:	46a9      	s32i.n	a10, a6, 16
     852:	190c      	movi.n	a9, 1
     854:	3699      	s32i.n	a9, a6, 12
     856:	03ad      	mov.n	a10, a3
     858:	ffe565        	excw
     85b:	05bd      	mov.n	a11, a5
     85d:	b00081        	l32r	a8, 0xfffec860
     860:	b00da1        	l32r	a10, 0xfffec894
     863:	632882        	l32i	a8, a8, 0x18c
     866:	0c0c      	movi.n	a12, 0
     868:	6f          	.byte 0x6f
     869:	bd4c05        	call0	0xfffbdd2c
     86c:	72a803        	excw
     86f:	ffeee5        	excw
     872:	6f          	.byte 0x6f
     873:	8508      	l32i.n	a0, a5, 32
     875:	3118      	l32i.n	a1, a1, 12
     877:	22b005        	call0	0x23378
     87a:	6f4d53        	excw
     87d:	388106        	j	0xea85
     880:	b00531        	l32r	a3, 0xfffec894
     883:	4d1342        	l16ui	a4, a3, 154
     886:	042a40        	extui	a2, a4, 10, 1
     889:	045c40        	extui	a5, a4, 12, 1
     88c:	049f40        	extui	a9, a4, 15, 1
     88f:	048d40        	extui	a8, a4, 13, 1
     892:	308890        	xor	a8, a8, a9
     895:	048080        	extui	a8, a8, 0, 1
     898:	1144f0        	slli	a4, a4, 1
     89b:	305580        	xor	a5, a5, a8
     89e:	045050        	extui	a5, a5, 0, 1
     8a1:	302250        	xor	a2, a2, a5
     8a4:	042020        	extui	a2, a2, 0, 1
     8a7:	202240        	or	a2, a2, a4
     8aa:	f42020        	extui	a2, a2, 0, 16
     8ad:	6f          	.byte 0x6f
     8ae:	6f3606        	j	0x1c58a
     8b1:	b14405        	call0	0xfffb1cf4
     8b4:	82b005        	call0	0xfff833b8
     8b7:	201b      	addi.n	a2, a0, 1
     8b9:	286817        	bbci	a8, 1, 0x8e5
     8bc:	b00ec1        	l32r	a12, 0xfffec8f4
     8bf:	0020c0        	memw
     8c2:	932cc2        	l32i	a12, a12, 0x24c
     8c5:	152ba2        	l32i	a10, a11, 84
     8c8:	aaca      	add.n	a10, a10, a12
     8ca:	f4a0a0        	extui	a10, a10, 0, 16
     8cd:	fff9e5        	excw
     8d0:	1b13a6        	blti	a3, 1, 0x8ef
     8d3:	040c      	movi.n	a4, 0
     8d5:	fffa25        	excw
     8d8:	0042a2        	s8i	a10, a2, 0
     8db:	441b      	addi.n	a4, a4, 1
     8dd:	221b      	addi.n	a2, a2, 1
     8df:	f29347        	bne	a3, a4, 0x8d5
     8e2:	f01d      	excw
     8e4:	a37600        	movltz	a7, a6, a0
     8e7:	6f4206        	j	0x1c5f3
     8ea:	6f1006        	j	0x1c52e
     8ed:	614406        	j	0x18e01
     8f0:	214900        	srai	a4, a0, 9
     8f3:	070c      	movi.n	a7, 0
     8f5:	490c      	movi.n	a9, 4
     8f7:	0129      	s32i.n	a2, a1, 0
     8f9:	1139      	s32i.n	a3, a1, 4
     8fb:	1168      	l32i.n	a6, a1, 4
     8fd:	0158      	l32i.n	a5, a1, 0
     8ff:	042d      	mov.n	a2, a4
     901:	80a632        	movi	a3, 0x680
     904:	c03340        	sub	a3, a3, a4
     907:	3c16a6        	blti	a6, 1, 0x947
     90a:	95bc      	beqz.n	a5, 0x947
     90c:	200582        	l8ui	a8, a5, 32
     90f:	02dd      	mov.n	a13, a2
     911:	208890        	or	a8, a8, a9
     914:	204582        	s8i	a8, a5, 32
     917:	056817        	bbci	a8, 1, 0x920
     91a:	434360        	excw
     91d:	0001c6        	j	0x928
     920:	0d0c      	movi.n	a13, 0
     922:	80a642        	movi	a4, 0x680
     925:	434640        	excw
     928:	04bd      	mov.n	a11, a4
     92a:	15a8      	l32i.n	a10, a5, 4
     92c:	07cd      	mov.n	a12, a7
     92e:	adaa      	add.n	a10, a13, a10
     930:	fff7a5        	excw
     933:	490c      	movi.n	a9, 4
     935:	c06640        	sub	a6, a6, a4
     938:	0415b2        	l16ui	a11, a5, 8
     93b:	747a      	add.n	a7, a4, a7
     93d:	b4ba      	add.n	a11, a4, a11
     93f:	0455b2        	s16i	a11, a5, 8
     942:	0558      	l32i.n	a5, a5, 0
     944:	ffefc6        	j	0x907
     947:	b005c1        	l32r	a12, 0xfffec95c
     94a:	201cc2        	l16ui	a12, a12, 64
     94d:	0c6c07        	bbci	a12, 0, 0x95d
     950:	01a8      	l32i.n	a10, a1, 0
     952:	11b8      	l32i.n	a11, a1, 4
     954:	02cd      	mov.n	a12, a2
     956:	0083a5        	excw
     959:	0a2d      	mov.n	a2, a10
     95b:	f01d      	excw
     95d:	6f          	.byte 0x6f
     95e:	3d8405        	call0	0x3e1a0
     961:	004136        	excw
     964:	284c      	movi.n	a8, 66
     966:	0a2837        	blt	a8, a3, 0x974
     969:	6f          	.byte 0x6f
     96a:	860b      	addi.n	a8, a6, -1
     96c:	2c4c50        	excw
     96f:	b00f61        	l32r	a6, 0xfffec9ac
     972:	b00051        	l32r	a5, 0xfffec974
     975:	2b0c      	movi.n	a11, 2
     977:	2002a2        	l8ui	a10, a2, 32
     97a:	494c      	movi.n	a9, 68
     97c:	045292        	s16i	a9, a2, 8
     97f:	20aab0        	or	a10, a10, a11
     982:	0b0c      	movi.n	a11, 0
     984:	2042a2        	s8i	a10, a2, 32
     987:	3a2582        	l32i	a8, a5, 232
     98a:	6f          	.byte 0x6f
     98b:	148405        	call0	0x151cc
     98e:	02ad      	mov.n	a10, a2
     990:	ac4c      	movi.n	a12, 74
     992:	aaa0e2        	movi	a14, 170
     995:	5d5c      	movi.n	a13, 85
     997:	eca082        	movi	a8, 236
     99a:	b00541        	l32r	a4, 0xfffec9b0
     99d:	cea092        	movi	a9, 206
     9a0:	bec3f2        	addi	a15, a3, -66
     9a3:	f4b0f0        	extui	a11, a15, 0, 16
     9a6:	664492        	s8i	a9, a4, 102
     9a9:	4a54f2        	s16i	a15, a4, 148
     9ac:	674482        	s8i	a8, a4, 103
     9af:	6544d2        	s8i	a13, a4, 101
     9b2:	6444e2        	s8i	a14, a4, 100
     9b5:	1524d2        	l32i	a13, a4, 84
     9b8:	d4e8      	l32i.n	a14, a4, 52
     9ba:	6144e2        	s8i	a14, a4, 97
     9bd:	1f64d2        	s32i	a13, a4, 124
     9c0:	6344e2        	s8i	a14, a4, 99
     9c3:	dd1b      	addi.n	a13, a13, 1
     9c5:	1564d2        	s32i	a13, a4, 84
     9c8:	fff1e5        	excw
     9cb:	4b54a2        	s16i	a10, a4, 150
     9ce:	5b3c      	movi.n	a11, 53
     9d0:	b010a1        	l32r	a10, 0xfffeca10
     9d3:	007825        	excw
     9d6:	06bd      	mov.n	a11, a6
     9d8:	4c54a2        	s16i	a10, a4, 152
     9db:	2c4c      	movi.n	a12, 66
     9dd:	12a8      	l32i.n	a10, a2, 4
     9df:	3b2582        	l32i	a8, a5, 236
     9e2:	aa8b      	addi.n	a10, a10, 8
     9e4:	0008e0        	excw
     9e7:	12b8      	l32i.n	a11, a2, 4
     9e9:	bb6b      	addi.n	a11, a11, 6
     9eb:	12b9      	s32i.n	a11, a2, 4
     9ed:	6f          	.byte 0x6f
     9ee:	548507        	bany	a5, a0, 0xa46
     9f1:	b00521        	l32r	a2, 0xfffeca08
     9f4:	7288      	l32i.n	a8, a2, 28
     9f6:	b2b8      	l32i.n	a11, a2, 44
     9f8:	0ab816        	beqz	a8, 0xaa7
     9fb:	142292        	l32i	a9, a2, 80
     9fe:	2012c2        	l16ui	a12, a2, 64
     a01:	02a9b7        	bge	a9, a11, 0xa07
     a04:	0027c6        	j	0xaa7
     a07:	136c27        	bbci	a12, 2, 0xa1e
     a0a:	056fb1        	l32r	a11, 0xfffc1fc8
     a0d:	b26082        	s32i	a8, a0, 0x2c8
     a10:	932b      	addi.n	a9, a3, 2
     a12:	1522a2        	l32i	a10, a2, 84
     a15:	6fba      	add.n	a6, a15, a11
     a17:	608205        	call0	0x61238
     a1a:	62ffe3        	excw
     a1d:	0c1f12        	l16ui	a1, a15, 24
     a20:	12c204        	excw
     a23:	1e          	.byte 0x1e
     a24:	b009d1        	l32r	a13, 0xfffeca48
     a27:	5f1ca6        	blti	a12, 1, 0xa8a
     a2a:	0d3d      	mov.n	a3, a13
     a2c:	201282        	l16ui	a8, a2, 64
     a2f:	746827        	bbci	a8, 2, 0xaa7
     a32:	255c      	movi.n	a5, 82
     a34:	6fe2e5        	excw
     a37:	a01b04        	excw
     a3a:	b28266        	bnei	a2, 8, 0x9f0
     a3d:	6080a6        	blti	a0, 8, 0xaa1
     a40:	503160        	ritlb0	a6, a1
     a43:	6b7366        	bnei	a3, 7, 0xab2
     a46:	07ad76        	excw
     a49:	b01181        	l32r	a8, 0xfffeca90
     a4c:	0008e0        	excw
     a4f:	0a5d      	mov.n	a5, a10
     a51:	80a6b2        	movi	a11, 0x680
     a54:	07ad      	mov.n	a10, a7
     a56:	6f1281        	l32r	a8, 0xfffdc6a0
     a59:	880d04        	excw
     a5c:	951b92        	l16ui	a9, a11, 0x12a
     a5f:	9359a0        	movnez	a5, a9, a10
     a62:	0aa857        	bge	a8, a5, 0xa70
     a65:	056fb1        	l32r	a11, 0xfffc2024
     a68:	6f0b82        	l8ui	a8, a11, 111
     a6b:	778605        	call0	0x782cc
     a6e:	05ad      	mov.n	a10, a5
     a70:	ffb7a5        	excw
     a73:	03a9      	s32i.n	a10, a3, 0
     a75:	da8c      	beqz.n	a10, 0xa86
     a77:	06bd      	mov.n	a11, a6
     a79:	ffed65        	excw
     a7c:	334b      	addi.n	a3, a3, 4
     a7e:	1e12c2        	l16ui	a12, a2, 60
     a81:	441b      	addi.n	a4, a4, 1
     a83:	a124c7        	blt	a4, a12, 0xa28
     a86:	b009c1        	l32r	a12, 0xfffecaac
     a89:	c2b8      	l32i.n	a11, a2, 48
     a8b:	04dd      	mov.n	a13, a4
     a8d:	b00081        	l32r	a8, 0xfffeca90
     a90:	b00ba1        	l32r	a10, 0xfffecabc
     a93:	aa2882        	l32i	a8, a8, 0x2a8
     a96:	6f          	.byte 0x6f
     a97:	768505        	call0	0x772e8
     a9a:	e2b8      	l32i.n	a11, a2, 56
     a9c:	b4ba      	add.n	a11, a4, a11
     a9e:	e2b9      	s32i.n	a11, a2, 56
     aa0:	f01d      	excw
     aa2:	92a8      	l32i.n	a10, a2, 36
     aa4:	ffb465        	excw
     aa7:	fff1c6        	j	0xa72
     aaa:	613600        	excw
     aad:	074100        	excw
     ab0:	651cb0        	extui	a1, a11, 28, 7
     ab3:	070c      	movi.n	a7, 0
     ab5:	080c      	movi.n	a8, 0
     ab7:	0189      	s32i.n	a8, a1, 0
     ab9:	92cc      	bnez.n	a2, 0xac6
     abb:	6f          	.byte 0x6f
     abc:	820b      	addi.n	a8, a2, -1
     abe:	c3cc64        	excw
     ac1:	01d4a2        	addmi	a10, a4, 0x100
     ac4:	31caa2        	addi	a10, a10, 49
     ac7:	0020c0        	memw
     aca:	0aa8      	l32i.n	a10, a10, 0
     acc:	0020c0        	memw
     acf:	2003c2        	l8ui	a12, a3, 32
     ad2:	4b0c      	movi.n	a11, 4
     ad4:	25ec27        	bbsi	a12, 2, 0xafd
     ad7:	5358      	l32i.n	a5, a3, 20
     ad9:	0d15e6        	bgei	a5, 1, 0xaea
     adc:	01d4e2        	addmi	a14, a4, 0x100
     adf:	6fcee2        	addi	a14, a14, 111
     ae2:	e81b04        	excw
     ae5:	0e          	.byte 0xe
     ae6:	0020c0        	memw
     ae9:	5f1c      	movi.n	a15, 21
     aeb:	0daf57        	bge	a15, a5, 0xafc
     aee:	01d482        	addmi	a8, a4, 0x100
     af1:	6fc882        	addi	a8, a8, 111
     af4:	6f1304        	excw
     af7:	488605        	call0	0x49358
     afa:	1159      	s32i.n	a5, a1, 4
     afc:	0e2316        	beqz	a3, 0xbe2
     aff:	80a6f2        	movi	a15, 0x680
     b02:	ffa022        	movi	a2, 255
     b05:	200392        	l8ui	a9, a3, 32
     b08:	10c9b0        	and	a12, a9, a11
     b0b:	646917        	bbci	a9, 1, 0xb73
     b0e:	43d8      	l32i.n	a13, a3, 16
     b10:	0413a2        	l16ui	a10, a3, 8
     b13:	3dbc      	beqz.n	a13, 0xb4a
     b15:	c0efd0        	sub	a14, a15, a13
     b18:	022ae7        	blt	a10, a14, 0xb1e
     b1b:	003cc6        	j	0xc12
     b1e:	13e8      	l32i.n	a14, a3, 4
     b20:	160c      	movi.n	a6, 1
     b22:	808da0        	add	a8, a13, a10
     b25:	c08f80        	sub	a8, a15, a8
     b28:	538860        	excw
     b2b:	80aae0        	add	a10, a10, a14
     b2e:	15a876        	excw
     b31:	000a92        	l8ui	a9, a10, 0
     b34:	01d482        	addmi	a8, a4, 0x100
     b37:	0a1927        	beq	a9, a2, 0xb45
     b3a:	6f          	.byte 0x6f
     b3b:	4b0b      	addi.n	a4, a11, -1
     b3d:	aa1b      	addi.n	a10, a10, 1
     b3f:	003246        	j	0xc0c
     b42:	1398      	l32i.n	a9, a3, 4
     b44:	fac9a2        	addi	a10, a9, -6
     b47:	13a9      	s32i.n	a10, a3, 4
     b49:	ecdc      	bnez.n	a12, 0xb6b
     b4b:	b005e1        	l32r	a14, 0xfffecb60
     b4e:	5ed8      	l32i.n	a13, a14, 20
     b50:	6e88      	l32i.n	a8, a14, 24
     b52:	dd0b      	addi.n	a13, a13, -1
     b54:	881b      	addi.n	a8, a8, 1
     b56:	6e89      	s32i.n	a8, a14, 24
     b58:	5ed9      	s32i.n	a13, a14, 20
     b5a:	00ddd6        	bgez	a13, 0xb6b
     b5d:	6f          	.byte 0x6f
     b5e:	0e          	.byte 0xe
     b5f:	680c81        	l32r	a8, 0xfffdab90
     b62:	4c9c03        	excw
     b65:	03ad      	mov.n	a10, a3
     b67:	0f0c      	movi.n	a15, 0
     b69:	2043f2        	s8i	a15, a3, 32
     b6c:	ffa0e5        	excw
     b6f:	4b0c      	movi.n	a11, 4
     b71:	80a6f2        	movi	a15, 0x680
     b74:	180c      	movi.n	a8, 1
     b76:	0189      	s32i.n	a8, a1, 0
     b78:	0013c6        	j	0xbcb
     b7b:	6f          	.byte 0x6f
     b7c:	398105        	call0	0x3a390
     b7f:	01d492        	addmi	a9, a4, 0x100
     b82:	6fc992        	addi	a9, a9, 111
     b85:	6f2d04        	excw
     b88:	648105        	call0	0x6539c
     b8b:	5a1c      	movi.n	a10, 21
     b8d:	0daa57        	bge	a10, a5, 0xb9e
     b90:	01d4c2        	addmi	a12, a4, 0x100
     b93:	6fccc2        	addi	a12, a12, 111
     b96:	c81304        	excw
     b99:	c00c      	movi.n	a0, 12
     b9b:	d80020        	excw
     b9e:	1d5711        	l32r	a1, 0xfffc80fc
     ba1:	161b      	addi.n	a1, a6, 1
     ba3:	cd0677        	bnone	a6, a7, 0xb74
     ba6:	066f07        	bbci	a15, 0, 0xbb0
     ba9:	0b1287        	beq	a2, a8, 0xbb8
     bac:	2882b0        	excw
     baf:	056fa5        	excw
     bb2:	6f3d82        	excw
     bb5:	074c06        	j	0x28e9
     bb8:	04b716        	beqz	a7, 0xc07
     bbb:	0379      	s32i.n	a7, a3, 0
     bbd:	037d      	mov.n	a7, a3
     bbf:	1159      	s32i.n	a5, a1, 4
     bc1:	063d      	mov.n	a3, a6
     bc3:	f22656        	bnez	a6, 0xae9
     bc6:	37ac      	beqz.n	a7, 0xbed
     bc8:	5d1c      	movi.n	a13, 21
     bca:	6fad57        	bge	a13, a5, 0xc3d
     bcd:	0f          	.byte 0xf
     bce:	6f1082        	l16ui	a8, a0, 222
     bd1:	b83c12        	excw
     bd4:	1b8c01        	l32r	a0, 0xfffc7a04
     bd7:	ffdce5        	excw
     bda:	f01d      	excw
     bdc:	13e8      	l32i.n	a14, a3, 4
     bde:	080c      	movi.n	a8, 0
     be0:	c09ed0        	sub	a9, a14, a13
     be3:	4389      	s32i.n	a8, a3, 16
     be5:	065382        	s16i	a8, a3, 12
     be8:	1399      	s32i.n	a9, a3, 4
     bea:	ffca06        	j	0xb16
     bed:	090c      	movi.n	a9, 0
     bef:	0399      	s32i.n	a9, a3, 0
     bf1:	6feb86        	j	0x1cba3
     bf4:	7c8b05        	call0	0x7d4a8
     bf7:	0c0081        	l32r	a8, 0xfffc3bf8
     bfa:	92cc07        	bnall	a12, a0, 0xb90
     bfd:	6f          	.byte 0x6f
     bfe:	890b      	addi.n	a8, a9, -1
     c00:	d80d      	excw
     c02:	13b213        	excw
     c05:	0da204        	excw
     c08:	2b0a      	add.n	a2, a11, a0
     c0a:	f66d      	excw
     c0c:	025a      	add.n	a0, a2, a5
     c0e:	0024c6        	j	0xca5
     c11:	0a0c      	movi.n	a10, 0
     c13:	03cd      	mov.n	a12, a3
     c15:	039d      	mov.n	a9, a3
     c17:	07aab7        	bge	a10, a11, 0xc22
     c1a:	045ae6        	bgei	a10, 5, 0xc22
     c1d:	aa1b      	addi.n	a10, a10, 1
     c1f:	fffd06        	j	0xc17
     c22:	538c      	beqz.n	a3, 0xc2b
     c24:	09cd      	mov.n	a12, a9
     c26:	0998      	l32i.n	a9, a9, 0
     c28:	ff8956        	bnez	a9, 0xc24
     c2b:	020c      	movi.n	a2, 0
     c2d:	facdb2        	addi	a11, a13, -6
     c30:	13b9      	s32i.n	a11, a3, 4
     c32:	04c9      	s32i.n	a12, a4, 0
     c34:	f01d      	excw
     c36:	2e0c      	movi.n	a14, 2
     c38:	03cd      	mov.n	a12, a3
     c3a:	21f8      	l32i.n	a15, a1, 8
     c3c:	b01391        	l32r	a9, 0xfffecc88
     c3f:	0111d2        	l16ui	a13, a1, 2
     c42:	5329      	s32i.n	a2, a3, 20
     c44:	080682        	l8ui	a8, a6, 8
     c47:	04d1d0        	extui	a13, a13, 1, 1
     c4a:	a08890        	addx4	a8, a8, a9
     c4d:	20c992        	addi	a9, a9, 32
     c50:	0888      	l32i.n	a8, a8, 0
     c52:	7389      	s32i.n	a8, a3, 28
     c54:	a08890        	addx4	a8, a8, a9
     c57:	0888      	l32i.n	a8, a8, 0
     c59:	094682        	s8i	a8, a6, 9
     c5c:	0ff8      	l32i.n	a15, a15, 0
     c5e:	0a46f2        	s8i	a15, a6, 10
     c61:	0398      	l32i.n	a9, a3, 0
     c63:	0413f2        	l16ui	a15, a3, 8
     c66:	899c      	beqz.n	a9, 0xc82
     c68:	fda0a2        	movi	a10, 253
     c6b:	5929      	s32i.n	a2, a9, 20
     c6d:	09cd      	mov.n	a12, a9
     c6f:	2009b2        	l8ui	a11, a9, 32
     c72:	041982        	l16ui	a8, a9, 8
     c75:	10bba0        	and	a11, a11, a10
     c78:	2049b2        	s8i	a11, a9, 32
     c7b:	0998      	l32i.n	a9, a9, 0
     c7d:	ff8a      	add.n	a15, a15, a8
     c7f:	fe8956        	bnez	a9, 0xc6b
     c82:	b00081        	l32r	a8, 0xfffecc84
     c85:	0413b2        	l16ui	a11, a3, 8
     c88:	200392        	l8ui	a9, a3, 32
     c8b:	0a0c      	movi.n	a10, 0
     c8d:	83fad0        	moveqz	a15, a10, a13
     c90:	63f9      	s32i.n	a15, a3, 24
     c92:	056fe0        	extui	a6, a14, 31, 1
     c95:	398c      	beqz.n	a9, 0xc9c
     c97:	04c9      	s32i.n	a12, a4, 0
     c99:	d888      	l32i.n	a8, a8, 52
     c9b:	13a8      	l32i.n	a10, a3, 4
     c9d:	0008e0        	excw
     ca0:	120c      	movi.n	a2, 1
     ca2:	f01d      	excw
     ca4:	01ad      	mov.n	a10, a1
     ca6:	2c0c      	movi.n	a12, 2
     ca8:	b015e1        	l32r	a14, 0xfffeccfc
     cab:	b01451        	l32r	a5, 0xfffeccfc
     cae:	2acdb2        	addi	a11, a13, 42
     cb1:	a05250        	addx4	a5, a2, a5
     cb4:	05d8      	l32i.n	a13, a5, 0
     cb6:	b00081        	l32r	a8, 0xfffeccb8
     cb9:	a0dde0        	addx4	a13, a13, a14
     cbc:	0d98      	l32i.n	a9, a13, 0
     cbe:	3b2882        	l32i	a8, a8, 236
     cc1:	991b      	addi.n	a9, a9, 1
     cc3:	0d99      	s32i.n	a9, a13, 0
     cc5:	0008e0        	excw
     cc8:	a12b      	addi.n	a10, a1, 2
     cca:	2ac6b2        	addi	a11, a6, 42
     ccd:	b00081        	l32r	a8, 0xfffeccd0
     cd0:	2c0c      	movi.n	a12, 2
     cd2:	3b2882        	l32i	a8, a8, 236
     cd5:	2159      	s32i.n	a5, a1, 8
     cd7:	0008e0        	excw
     cda:	0011b2        	l16ui	a11, a1, 0
     cdd:	b015d1        	l32r	a13, 0xfffecd34
     ce0:	151b26        	beqi	a11, 1, 0xcf9
     ce3:	292b26        	beqi	a11, 2, 0xd10
     ce6:	4b3b26        	beqi	a11, 3, 0xd35
     ce9:	0e4b26        	beqi	a11, 4, 0xcfb
     cec:	b00551        	l32r	a5, 0xfffecd00
     cef:	2b5b26        	beqi	a11, 5, 0xd1e
     cf2:	056b66        	bnei	a11, 6, 0xcfb
     cf5:	090c      	movi.n	a9, 0
     cf7:	7599      	s32i.n	a9, a5, 28
     cf9:	170c      	movi.n	a7, 1
     cfb:	f36756        	bnez	a7, 0xc35
     cfe:	03cd      	mov.n	a12, a3
     d00:	039d      	mov.n	a9, a3
     d02:	6f          	.byte 0x6f
     d03:	8109      	s32i.n	a0, a1, 32
     d05:	13d861        	l32r	a6, 0xfffc5c68
     d08:	ffc646        	j	0xc25
     d0b:	21b8      	l32i.n	a11, a1, 8
     d0d:	0bb8      	l32i.n	a11, a11, 0
     d0f:	0a0c      	movi.n	a10, 0
     d11:	a0bbd0        	addx4	a11, a11, a13
     d14:	0ba9      	s32i.n	a10, a11, 0
     d16:	fff706        	j	0xcf6
     d19:	75c8      	l32i.n	a12, a5, 28
     d1b:	1cbc      	beqz.n	a12, 0xd50
     d1d:	6f          	.byte 0x6f
     d1e:	4d8c05        	call0	0x4e5e0
     d21:	16a154        	excw
     d24:	08e0b0        	excw
     d27:	046f00        	extui	a6, a0, 15, 1
     d2a:	4639      	s32i.n	a3, a6, 16
     d2c:	a2fff1        	l32r	a15, 0xfffe9928
     d2f:	0c34c6        	j	0x3e06
     d32:	b84c      	movi.n	a8, 75
     d34:	008121        	l32r	a2, 0xfffc0f38
     d37:	0bb8b0        	excw
     d3a:	3b2882        	l32i	a8, a8, 236
     d3d:	a0dbd0        	addx4	a13, a11, a13
     d40:	0d98      	l32i.n	a9, a13, 0
     d42:	0dbd      	mov.n	a11, a13
     d44:	6f0b      	addi.n	a6, a15, -1
     d46:	0a8106        	j	0x374e
     d49:	ffe8c6        	j	0xcf0
     d4c:	3cc5a2        	addi	a10, a5, 60
     d4f:	2cc6b2        	addi	a11, a6, 44
     d52:	b00081        	l32r	a8, 0xfffecd54
     d55:	6c0c      	movi.n	a12, 6
     d57:	3b2882        	l32i	a8, a8, 236
     d5a:	4179      	s32i.n	a7, a1, 16
     d5c:	0008e0        	excw
     d5f:	1f15c2        	l16ui	a12, a5, 62
     d62:	9ccc      	bnez.n	a12, 0xd6f
     d64:	6f          	.byte 0x6f
     d65:	850b      	addi.n	a8, a5, -1
     d67:	a27b      	addi.n	a10, a2, 7
     d69:	2c1e15        	excw
     d6c:	b00b      	addi.n	a11, a0, -1
     d6e:	63aa      	add.n	a6, a3, a10
     d70:	80a6b2        	movi	a11, 0x680
     d73:	f4a0a0        	extui	a10, a10, 0, 16
     d76:	11a9      	s32i.n	a10, a1, 4
     d78:	1e55a2        	s16i	a10, a5, 60
     d7b:	ac6b      	addi.n	a10, a12, 6
     d7d:	31a9      	s32i.n	a10, a1, 12
     d7f:	6f          	.byte 0x6f
     d80:	138706        	j	0x5ba0
     d83:	0a7d      	mov.n	a7, a10
     d85:	95a9      	s32i.n	a10, a5, 36
     d87:	80a6b2        	movi	a11, 0x680
     d8a:	31a8      	l32i.n	a10, a1, 12
     d8c:	6f          	.byte 0x6f
     d8d:	158706        	j	0x63ad
     d90:	11b8      	l32i.n	a11, a1, 4
     d92:	2a8c      	beqz.n	a10, 0xd98
     d94:	771b      	addi.n	a7, a7, 1
     d96:	9579      	s32i.n	a7, a5, 36
     d98:	82a7b0        	mull	a10, a7, a11
     d9b:	a5a9      	s32i.n	a10, a5, 40
     d9d:	8b1c      	movi.n	a11, 24
     d9f:	07aba7        	bge	a11, a10, 0xdaa
     da2:	c0aa70        	sub	a10, a10, a7
     da5:	a5a9      	s32i.n	a10, a5, 40
     da7:	f72ba7        	blt	a11, a10, 0xda2
     daa:	c90c      	movi.n	a9, 12
     dac:	439a90        	excw
     daf:	b599      	s32i.n	a9, a5, 44
     db1:	0a1ae6        	bgei	a10, 1, 0xdbf
     db4:	056fa1        	l32r	a10, 0xfffc2370
     db7:	6f5b      	addi.n	a6, a15, 5
     db9:	468605        	call0	0x4761c
     dbc:	6f19e6        	bgei	a9, 1, 0xe2f
     dbf:	870c      	movi.n	a7, 8
     dc1:	d13d      	excw
     dc3:	0cb013        	excw
     dc6:	1e          	.byte 0x1e
     dc7:	0f0c      	movi.n	a15, 0
     dc9:	0806c2        	l8ui	a12, a6, 8
     dcc:	d5c9      	s32i.n	a12, a5, 52
     dce:	e5f9      	s32i.n	a15, a5, 56
     dd0:	85f9      	s32i.n	a15, a5, 32
     dd2:	1565f2        	s32i	a15, a5, 84
     dd5:	75e9      	s32i.n	a14, a5, 28
     dd7:	a0ccd0        	addx4	a12, a12, a13
     dda:	0cc8      	l32i.n	a12, a12, 0
     ddc:	c5c9      	s32i.n	a12, a5, 48
     dde:	ffba25        	excw
     de1:	4178      	l32i.n	a7, a1, 16
     de3:	6fbd46        	j	0x1ccdc
     de6:	248705        	call0	0x25658
     de9:	02ad      	mov.n	a10, a2
     deb:	03bd      	mov.n	a11, a3
     ded:	01cd      	mov.n	a12, a1
     def:	ffdde5        	excw
     df2:	2adc      	bnez.n	a10, 0xe08
     df4:	02bd      	mov.n	a11, a2
     df6:	03cd      	mov.n	a12, a3
     df8:	6f          	.byte 0x6f
     df9:	0e          	.byte 0xe
     dfa:	1d5c84        	excw
     dfd:	1a66f0        	excw
     e00:	ad0a      	add.n	a10, a13, a0
     e02:	03bd03        	excw
     e05:	01c8      	l32i.n	a12, a1, 0
     e07:	ff9925        	excw
     e0a:	f01d      	excw
     e0c:	6f          	.byte 0x6f
     e0d:	810b      	addi.n	a8, a1, -1
     e0f:	6f49      	s32i.n	a4, a15, 24
     e11:	8b08      	l32i.n	a0, a11, 32
     e13:	075134        	excw
     e16:	070cb0        	excw
     e19:	081c      	movi.n	a8, 16
     e1b:	090c      	movi.n	a9, 0
     e1d:	0a0c      	movi.n	a10, 0
     e1f:	11a9      	s32i.n	a10, a1, 4
     e21:	3199      	s32i.n	a9, a1, 12
     e23:	0d6f47        	bbci	a15, 4, 0xe34
     e26:	4288      	l32i.n	a8, a2, 16
     e28:	b017c1        	l32r	a12, 0xfffece84
     e2b:	c0ccc2        	addi	a12, a12, -64
     e2e:	06a416        	beqz	a4, 0xe9c
     e31:	0c6d      	mov.n	a6, a12
     e33:	b017e1        	l32r	a14, 0xfffece90
     e36:	21e9      	s32i.n	a14, a1, 8
     e38:	02ad      	mov.n	a10, a2
     e3a:	03b8      	l32i.n	a11, a3, 0
     e3c:	01cd      	mov.n	a12, a1
     e3e:	ffd725        	excw
     e41:	0198      	l32i.n	a9, a1, 0
     e43:	c9cc      	bnez.n	a9, 0xe53
     e45:	01d5f2        	addmi	a15, a5, 0x100
     e48:	31cff2        	addi	a15, a15, 49
     e4b:	0020c0        	memw
     e4e:	0ff8      	l32i.n	a15, a15, 0
     e50:	0020c0        	memw
     e53:	7acc      	bnez.n	a10, 0xe5e
     e55:	078c      	beqz.n	a7, 0xe59
     e57:	0979      	s32i.n	a7, a9, 0
     e59:	0378      	l32i.n	a7, a3, 0
     e5b:	000d86        	j	0xe95
     e5e:	251a66        	bnei	a10, 1, 0xe87
     e61:	03a8      	l32i.n	a10, a3, 0
     e63:	21e8      	l32i.n	a14, a1, 8
     e65:	31d8      	l32i.n	a13, a1, 12
     e67:	b00581        	l32r	a8, 0xfffece7c
     e6a:	dd1b      	addi.n	a13, a13, 1
     e6c:	3888      	l32i.n	a8, a8, 12
     e6e:	31d9      	s32i.n	a13, a1, 12
     e70:	28cc      	bnez.n	a8, 0xe76
     e72:	6ab8      	l32i.n	a11, a10, 24
     e74:	2b8c      	beqz.n	a11, 0xe7a
     e76:	1c0c      	movi.n	a12, 1
     e78:	11c9      	s32i.n	a12, a1, 4
     e7a:	06a9      	s32i.n	a10, a6, 0
     e7c:	0e99      	s32i.n	a9, a14, 0
     e7e:	664b      	addi.n	a6, a6, 4
     e80:	ee4b      	addi.n	a14, a14, 4
     e82:	21e9      	s32i.n	a14, a1, 8
     e84:	000346        	j	0xe95
     e87:	6f          	.byte 0x6f
     e88:	0e          	.byte 0xe
     e89:	334b42        	s8i	a4, a11, 51
     e8c:	440b      	addi.n	a4, a4, -1
     e8e:	9b14e6        	bgei	a4, 1, 0xe2d
     e91:	b00b41        	l32r	a4, 0xfffecec0
     e94:	b00031        	l32r	a3, 0xfffece94
     e97:	a78c      	beqz.n	a7, 0xea5
     e99:	07cd      	mov.n	a12, a7
     e9b:	02bd      	mov.n	a11, a2
     e9d:	a52382        	l32i	a8, a3, 0x294
     ea0:	04a8      	l32i.n	a10, a4, 0
     ea2:	0008e0        	excw
     ea5:	3198      	l32i.n	a9, a1, 12
     ea7:	11a8      	l32i.n	a10, a1, 4
     ea9:	89bc      	beqz.n	a9, 0xee5
     eab:	ca9c      	beqz.n	a10, 0xecb
     ead:	3419a6        	blti	a9, 1, 0xee5
     eb0:	b01721        	l32r	a2, 0xfffecf0c
     eb3:	c0c232        	addi	a3, a2, -64
     eb6:	a06930        	addx4	a6, a9, a3
     eb9:	03b8      	l32i.n	a11, a3, 0
     ebb:	02c8      	l32i.n	a12, a2, 0
     ebd:	0bad      	mov.n	a10, a11
     ebf:	ff8ba5        	excw
     ec2:	224b      	addi.n	a2, a2, 4
     ec4:	334b      	addi.n	a3, a3, 4
     ec6:	ef9367        	bne	a3, a6, 0xeb9
     ec9:	f01d      	excw
     ecb:	04a8      	l32i.n	a10, a4, 0
     ecd:	09dd      	mov.n	a13, a9
     ecf:	aa2382        	l32i	a8, a3, 0x2a8
     ed2:	b005f1        	l32r	a15, 0xfffecee8
     ed5:	b018c1        	l32r	a12, 0xfffecf38
     ed8:	5fe8      	l32i.n	a14, a15, 20
     eda:	0cb8      	l32i.n	a11, a12, 0
     edc:	ee9a      	add.n	a14, a14, a9
     ede:	5fe9      	s32i.n	a14, a15, 20
     ee0:	7bb8      	l32i.n	a11, a11, 28
     ee2:	6f          	.byte 0x6f
     ee3:	538f06        	j	0x15d23
     ee6:	413600        	srli	a3, a0, 6
     ee9:	6f          	.byte 0x6f
     eea:	748107        	bany	a1, a0, 0xf62
     eed:	710041        	l32r	a4, 0xfffdd2f0
     ef0:	22b014        	excw
     ef3:	620812        	l8ui	a1, a8, 98
     ef6:	26b0c7        	bgeu	a0, a12, 0xf20
     ef9:	4225f2        	l32i	a15, a5, 0x108
     efc:	4701a1        	l32r	a10, 0xfffd2b00
     eff:	523912        	excw
     f02:	5702a1        	l32r	a10, 0xfffd6b0c
     f05:	823f12        	excw
     f08:	8703a1        	l32r	a10, 0xfffe2b14
     f0b:	924512        	s8i	a1, a5, 146
     f0e:	9704a1        	l32r	a10, 0xfffe6b20
     f11:	6f1b12        	l16ui	a1, a11, 222
     f14:	830b      	addi.n	a8, a3, -1
     f16:	4619      	s32i.n	a1, a6, 16
     f18:	320002        	l8ui	a0, a0, 50
     f1b:	701066        	bnei	a0, 1, 0xf8f
     f1e:	0ca0c3        	excw
     f21:	b94b      	addi.n	a11, a9, 4
     f23:	0c0c      	movi.n	a12, 0
     f25:	f01d02        	l16ui	a0, a13, 0x1e0
     f28:	f639      	s32i.n	a3, a6, 60
     f2a:	a0e370        	addx4	a14, a3, a7
     f2d:	3d0c      	movi.n	a13, 3
     f2f:	0ed9      	s32i.n	a13, a14, 0
     f31:	fffbc6        	j	0xf24
     f34:	c639      	s32i.n	a3, a6, 48
     f36:	a02370        	addx4	a2, a3, a7
     f39:	0f0c      	movi.n	a15, 0
     f3b:	02f9      	s32i.n	a15, a2, 0
     f3d:	fff8c6        	j	0xf24
     f40:	d639      	s32i.n	a3, a6, 52
     f42:	a08370        	addx4	a8, a3, a7
     f45:	140c      	movi.n	a4, 1
     f47:	0849      	s32i.n	a4, a8, 0
     f49:	fff5c6        	j	0xf24
     f4c:	e639      	s32i.n	a3, a6, 56
     f4e:	a0a370        	addx4	a10, a3, a7
     f51:	290c      	movi.n	a9, 2
     f53:	0a99      	s32i.n	a9, a10, 0
     f55:	fff2c6        	j	0xf24
     f58:	6f          	.byte 0x6f
     f59:	188f05        	call0	0x1984c
     f5c:	a1b000        	sll	a11, a0
     f5f:	88b004        	excw
     f62:	0b0c33        	excw
     f65:	0008e0        	excw
     f68:	b019a1        	l32r	a10, 0xfffecfcc
     f6b:	b02681        	l32r	a8, 0xfffed004
     f6e:	6f          	.byte 0x6f
     f6f:	1a0904        	excw
     f72:	2781b0        	excw
     f75:	6f          	.byte 0x6f
     f76:	228505        	call0	0x237c8
     f79:	b10a      	add.n	a11, a1, a0
     f7b:	b01b      	addi.n	a11, a0, 1
     f7d:	a12382        	l32i	a8, a3, 0x284
     f80:	80a6c2        	movi	a12, 0x680
     f83:	0008e0        	excw
     f86:	0b3c      	movi.n	a11, 48
     f88:	b00b51        	l32r	a5, 0xfffecfb4
     f8b:	a92382        	l32i	a8, a3, 0x2a4
     f8e:	05a8      	l32i.n	a10, a5, 0
     f90:	0008e0        	excw
     f93:	b01c41        	l32r	a4, 0xfffed004
     f96:	80a6e2        	movi	a14, 0x680
     f99:	b01dd1        	l32r	a13, 0xfffed010
     f9c:	b01ec1        	l32r	a12, 0xfffed014
     f9f:	b01fb1        	l32r	a11, 0xfffed01c
     fa2:	00a6a2        	movi	a10, 0x600
     fa5:	090c      	movi.n	a9, 0
     fa7:	b00761        	l32r	a6, 0xfffecfc4
     faa:	b020f1        	l32r	a15, 0xfffed02c
     fad:	580c      	movi.n	a8, 5
     faf:	0f2d      	mov.n	a2, a15
     fb1:	10a876        	excw
     fb4:	62c9      	s32i.n	a12, a2, 24
     fb6:	1299      	s32i.n	a9, a2, 4
     fb8:	22b9      	s32i.n	a11, a2, 8
     fba:	32d9      	s32i.n	a13, a2, 12
     fbc:	0a52a2        	s16i	a10, a2, 20
     fbf:	0b52e2        	s16i	a14, a2, 22
     fc2:	2cc222        	addi	a2, a2, 44
     fc5:	0f2d      	mov.n	a2, a15
     fc7:	00a192        	movi	a9, 0x100
     fca:	03a1b2        	movi	a11, 0x103
     fcd:	04a1c2        	movi	a12, 0x104
     fd0:	02a1d2        	movi	a13, 0x102
     fd3:	b021a1        	l32r	a10, 0xfffed058
     fd6:	01a1e2        	movi	a14, 0x101
     fd9:	245ae2        	s16i	a14, a10, 72
     fdc:	3a5ad2        	s16i	a13, a10, 116
     fdf:	665ac2        	s16i	a12, a10, 204
     fe2:	505ab2        	s16i	a11, a10, 160
     fe5:	7c5a92        	s16i	a9, a10, 248
     fe8:	0812f2        	l16ui	a15, a2, 16
     feb:	00ef56        	bnez	a15, 0xffd
     fee:	6fd682        	addmi	a8, a6, 0x6f00
     ff1:	198b07        	bany	a11, a0, 0x100e
     ff4:	002882        	l32i	a8, a8, 0
     ff7:	0020c0        	memw
     ffa:	0025a2        	l32i	a10, a5, 0
     ffd:	a32382        	l32i	a8, a3, 0x28c
    1000:	02bd      	mov.n	a11, a2
    1002:	0008e0        	excw
    1005:	2cc222        	addi	a2, a2, 44
    1008:	d99247        	bne	a2, a4, 0xfe5
    100b:	ff58a5        	excw
    100e:	b02221        	l32r	a2, 0xfffed098
    1011:	0020c0        	memw
    1014:	b72292        	l32i	a9, a2, 0x2dc
    1017:	076907        	bbci	a9, 0, 0x1022
    101a:	1a0c      	movi.n	a10, 1
    101c:	0003e5        	excw
    101f:	000146        	j	0x1028
    1022:	00a0a2        	movi	a10, 0
    1025:	000365        	excw
    1028:	b00da1        	l32r	a10, 0xfffed05c
    102b:	b023b1        	l32r	a11, 0xfffed0b8
    102e:	662382        	l32i	a8, a3, 0x198
    1031:	00a0c2        	movi	a12, 0
    1034:	0008e0        	excw
    1037:	b024a1        	l32r	a10, 0xfffed0c8
    103a:	6f25b1        	l32r	a11, 0xfffdccd0
    103d:	6f0f04        	excw
    1040:	249105        	call0	0x25954
    1043:	6f          	.byte 0x6f
    1044:	224e04        	excw
    1047:	92a5b7        	bge	a5, a11, 0xfdd
    104a:	238200        	excw
    104d:	056fa4        	excw
    1050:	6f4681        	l32r	a8, 0xfffdcd68
    1053:	8209      	s32i.n	a0, a2, 32
    1055:	6f7c      	movi.n	a15, -10
    1057:	7f8d05        	call0	0x80928
    105a:	e57c      	movi.n	a5, -2
    105c:	b12742        	l32i	a4, a7, 0x2c4
    105f:	130c      	movi.n	a3, 1
    1061:	203430        	or	a3, a4, a3
    1064:	104450        	and	a4, a4, a5
    1067:	834320        	moveqz	a4, a3, a2
    106a:	0020c0        	memw
    106d:	b16742        	s32i	a4, a7, 0x2c4
    1070:	6f          	.byte 0x6f
    1071:	9109      	s32i.n	a0, a1, 36
    1073:	280c      	movi.n	a8, 2
    1075:	1b88b0        	excw
    1078:	988c      	beqz.n	a8, 0x1085
    107a:	1a0c      	movi.n	a10, 1
    107c:	090c      	movi.n	a9, 0
    107e:	1b99      	s32i.n	a9, a11, 4
    1080:	fffca5        	excw
    1083:	f01d      	excw
    1085:	1a0c      	movi.n	a10, 1
    1087:	1ba9      	s32i.n	a10, a11, 4
    1089:	0a0c      	movi.n	a10, 0
    108b:	046f25        	excw
    108e:	6f0b      	addi.n	a6, a15, -1
    1090:	830b      	addi.n	a8, a3, -1
    1092:	5d48      	l32i.n	a4, a13, 20
    1094:	13a602        	movi	a0, 0x613
    1097:	296126        	beqi	a1, 6, 0x10c4
    109a:	020cb0        	excw
    109d:	1ca376        	excw
    10a0:	414820        	srli	a4, a2, 8
    10a3:	000532        	l8ui	a3, a5, 0
    10a6:	551b      	addi.n	a5, a5, 1
    10a8:	303340        	xor	a3, a3, a4
    10ab:	743030        	extui	a3, a3, 0, 8
    10ae:	903360        	addx2	a3, a3, a6
    10b1:	001332        	l16ui	a3, a3, 0
    10b4:	112280        	slli	a2, a2, 8
    10b7:	302320        	xor	a2, a3, a2
    10ba:	f42020        	extui	a2, a2, 0, 16
    10bd:	6f          	.byte 0x6f
    10be:	900a      	add.n	a9, a0, a0
    10c0:	298130        	excw
    10c3:	029db0        	excw
    10c6:	80a6c2        	movi	a12, 0x680
    10c9:	020c      	movi.n	a2, 0
    10cb:	c0bc40        	sub	a11, a12, a4
    10ce:	4513a6        	blti	a3, 1, 0x1117
    10d1:	042916        	beqz	a9, 0x1117
    10d4:	200952        	l8ui	a5, a9, 32
    10d7:	046d      	mov.n	a6, a4
    10d9:	066517        	bbci	a5, 1, 0x10e3
    10dc:	43ab30        	excw
    10df:	000146        	j	0x10e8
    10e2:	a3c000        	movltz	a12, a0, a0
    10e5:	060c43        	excw
    10e8:	231aa6        	blti	a10, 1, 0x110f
    10eb:	19d8      	l32i.n	a13, a9, 4
    10ed:	66da      	add.n	a6, a6, a13
    10ef:	1caa76        	excw
    10f2:	417820        	srli	a7, a2, 8
    10f5:	000652        	l8ui	a5, a6, 0
    10f8:	661b      	addi.n	a6, a6, 1
    10fa:	305570        	xor	a5, a5, a7
    10fd:	745050        	extui	a5, a5, 0, 8
    1100:	905580        	addx2	a5, a5, a8
    1103:	6f1552        	l16ui	a5, a5, 222
    1106:	255805        	call0	0x26688
    1109:	6f          	.byte 0x6f
    110a:	a05804        	excw
    110d:	98c033        	excw
    1110:	8609      	s32i.n	a0, a6, 32
    1112:	ffed      	excw
    1114:	6f          	.byte 0x6f
    1115:	5c0c      	movi.n	a12, 5
    1117:	6f00a1        	l32r	a10, 0xfffdcd18
    111a:	5c0d      	excw
    111c:	466f14        	excw
    111f:	6f5c      	movi.n	a15, 86
    1121:	309710        	xor	a9, a7, a1
    1124:	b02a      	add.n	a11, a0, a2
    1126:	140392        	l8ui	a9, a3, 20
    1129:	6f          	.byte 0x6f
    112a:	309707        	bne	a7, a0, 0x115e
    112d:	165814        	excw
    1130:	35cc      	bnez.n	a5, 0x1137
    1132:	0629      	s32i.n	a2, a6, 0
    1134:	6f          	.byte 0x6f
    1135:	309706        	j	0xd395
    1138:	076f16        	beqz	a15, 0x11b2
    113b:	2a3097        	bltu	a0, a9, 0x1169
    113e:	6f          	.byte 0x6f
    113f:	309705        	call0	0x31ab0
    1142:	c809      	s32i.n	a0, a8, 48
    1144:	6f19      	s32i.n	a1, a15, 24
    1146:	309706        	j	0xd3a6
    1149:	0f6f14        	excw
    114c:	143097        	bltu	a0, a9, 0x1164
    114f:	1968      	l32i.n	a6, a9, 4
    1151:	0979      	s32i.n	a7, a9, 0
    1153:	836370        	moveqz	a6, a3, a7
    1156:	1969      	s32i.n	a6, a9, 4
    1158:	6f          	.byte 0x6f
    1159:	309732        	l16si	a3, a7, 96
    115c:	6f2b51        	l32r	a5, 0xfffdce08
    115f:	9a08      	l32i.n	a0, a10, 36
    1161:	802c      	movi.n	a0, 40
    1163:	6f          	.byte 0x6f
    1164:	2c9a06        	j	0xc3d0
    1167:	7f          	.byte 0x7f
    1168:	806532        	s32i	a3, a5, 0x200
    116b:	6f          	.byte 0x6f
    116c:	2c9a06        	j	0xc3d8
    116f:	7f          	.byte 0x7f
    1170:	6f          	.byte 0x6f
    1171:	9a09      	s32i.n	a0, a10, 36
    1173:	2b2c      	movi.n	a11, 34
    1175:	6f          	.byte 0x6f
    1176:	2c9a05        	call0	0x2db18
    1179:	7f          	.byte 0x7f
    117a:	802652        	l32i	a5, a6, 0x200
    117d:	6f          	.byte 0x6f
    117e:	9a08      	l32i.n	a0, a10, 36
    1180:	7f2c      	movi.n	a15, 39
    1182:	6f          	.byte 0x6f
    1183:	2c9a16        	beqz	a10, 0x1450
    1186:	066f80        	excw
    1189:	2c9a      	add.n	a2, a12, a9
    118b:	b02c      	movi.n	a0, 43
    118d:	7f2882        	l32i	a8, a8, 0x1fc
    1190:	6f          	.byte 0x6f
    1191:	9a4a      	add.n	a9, a10, a4
    1193:	812c      	movi.n	a1, 40
    1195:	b02d      	excw
    1197:	02ad      	mov.n	a10, a2
    1199:	7f6822        	s32i	a2, a8, 0x1fc
    119c:	738c      	beqz.n	a3, 0x11a7
    119e:	b02ab1        	l32r	a11, 0xfffed248
    11a1:	4b98      	l32i.n	a9, a11, 16
    11a3:	991b      	addi.n	a9, a9, 1
    11a5:	4b99      	s32i.n	a9, a11, 16
    11a7:	6f63a5        	excw
    11aa:	5c9707        	bne	a7, a0, 0x120a
    11ad:	ffee25        	excw
    11b0:	6f          	.byte 0x6f
    11b1:	970d      	excw
    11b3:	0c5a      	add.n	a0, a12, a5
    11b5:	e51b      	addi.n	a14, a5, 1
    11b7:	fffc      	bnez.n	a15, 0x11fa
    11b9:	b02a21        	l32r	a2, 0xfffed264
    11bc:	02b8      	l32i.n	a11, a2, 0
    11be:	6f          	.byte 0x6f
    11bf:	5a9705        	call0	0x5bb30
    11c2:	f01d22        	l16ui	a2, a13, 0x1e0
    11c5:	042ba2        	l32i	a10, a11, 16
    11c8:	ff3665        	excw
    11cb:	20baa0        	or	a11, a10, a10
    11ce:	0b1ae6        	bgei	a10, 1, 0x11dd
    11d1:	ffeb25        	excw
    11d4:	01a0b2        	movi	a11, 1
    11d7:	fffae5        	excw
    11da:	056f46        	j	0x279b
    11dd:	325b97        	bbc	a11, a9, 0x1213
    11e0:	6f          	.byte 0x6f
    11e1:	5b9706        	j	0x18041
    11e4:	288222        	excw
    11e7:	2ea163        	excw
    11ea:	6f          	.byte 0x6f
    11eb:	5b9706        	j	0x1804b
    11ee:	6f          	.byte 0x6f
    11ef:	148205        	call0	0x15a10
    11f2:	b02a      	add.n	a11, a0, a2
    11f4:	2588      	l32i.n	a8, a5, 8
    11f6:	6f          	.byte 0x6f
    11f7:	4c9706        	j	0x14457
    11fa:	ffe525        	excw
    11fd:	f01d      	excw
    11ff:	0422a2        	l32i	a10, a2, 16
    1202:	ff3265        	excw
    1205:	202aa0        	or	a2, a10, a10
    1208:	1f1aa6        	blti	a10, 1, 0x122b
    120b:	20b440        	or	a11, a4, a4
    120e:	35a9      	s32i.n	a10, a5, 12
    1210:	190c      	movi.n	a9, 1
    1212:	2599      	s32i.n	a9, a5, 8
    1214:	03ad      	mov.n	a10, a3
    1216:	ffe365        	excw
    1219:	02bd      	mov.n	a11, a2
    121b:	b00081        	l32r	a8, 0xfffed21c
    121e:	6f2ea1        	l32r	a10, 0xfffdced8
    1221:	970b      	addi.n	a9, a7, -1
    1223:	4f          	.byte 0x4f
    1224:	03ad      	mov.n	a10, a3
    1226:	1b0c      	movi.n	a11, 1
    1228:	6ff4e5        	excw
    122b:	5c8506        	j	0x18443
    122e:	b02a81        	l32r	a8, 0xfffed2d8
    1231:	1e1882        	l16ui	a8, a8, 60
    1234:	2c6817        	bbci	a8, 1, 0x1264
    1237:	6f          	.byte 0x6f
    1238:	289406        	j	0xb48c
    123b:	b02fa1        	l32r	a10, 0xfffed2f8
    123e:	932bb2        	l32i	a11, a11, 0x24c
    1241:	7f2aa2        	l32i	a10, a10, 0x1fc
    1244:	80aab0        	add	a10, a10, a11
    1247:	f4a0a0        	extui	a10, a10, 0, 16
    124a:	ff4125        	excw
    124d:	1b13a6        	blti	a3, 1, 0x126c
    1250:	00a042        	movi	a4, 0
    1253:	6f4165        	excw
    1256:	970d      	excw
    1258:	6f0d      	excw
    125a:	0c9723        	excw
    125d:	6f00a1        	l32r	a10, 0xfffdce60
    1260:	970a      	add.n	a9, a7, a0
    1262:	140c      	movi.n	a4, 1
    1264:	6f          	.byte 0x6f
    1265:	0c9707        	bne	a7, a0, 0x1275
    1268:	0c6f14        	excw
    126b:	a10c97        	bnone	a12, a9, 0x1210
    126e:	0b6f00        	excw
    1271:	650c97        	bnone	a12, a9, 0x12da
    1274:	6f          	.byte 0x6f
    1275:	0c9717        	bne	a7, a1, 0x1285
    1278:	b02a      	add.n	a11, a0, a2
    127a:	1e1cc2        	l16ui	a12, a12, 60
    127d:	6f          	.byte 0x6f
    127e:	970a      	add.n	a9, a7, a0
    1280:	d00c      	movi.n	a0, 13
    1282:	ff          	.byte 0xff
    1283:	6f          	.byte 0x6f
    1284:	970d      	excw
    1286:	2d0c      	movi.n	a13, 2
    1288:	6f2d37        	blt	a13, a3, 0x12fb
    128b:	830c      	movi.n	a3, 8
    128d:	5e          	.byte 0x5e
    128e:	0452d2        	s16i	a13, a2, 8
    1291:	00a0b2        	movi	a11, 0
    1294:	42a0c2        	movi	a12, 66
    1297:	b03051        	l32r	a5, 0xfffed358
    129a:	b00061        	l32r	a6, 0xfffed29c
    129d:	140292        	l8ui	a9, a2, 20
    12a0:	02a072        	movi	a7, 2
    12a3:	209970        	or	a9, a9, a7
    12a6:	144292        	s8i	a9, a2, 20
    12a9:	3a2682        	l32i	a8, a6, 232
    12ac:	05ad      	mov.n	a10, a5
    12ae:	0008e0        	excw
    12b1:	b02af1        	l32r	a15, 0xfffed35c
    12b4:	cea0c2        	movi	a12, 206
    12b7:	b03141        	l32r	a4, 0xfffed37c
    12ba:	eca0b2        	movi	a11, 236
    12bd:	4f44b2        	s8i	a11, a4, 79
    12c0:	4e44c2        	s8i	a12, a4, 78
    12c3:	8204a2        	l8ui	a10, a4, 130
    12c6:	f4d8      	l32i.n	a13, a4, 60
    12c8:	cff8      	l32i.n	a15, a15, 48
    12ca:	4944f2        	s8i	a15, a4, 73
    12cd:	4b44f2        	s8i	a15, a4, 75
    12d0:	1964d2        	s32i	a13, a4, 100
    12d3:	ed1b      	addi.n	a14, a13, 1
    12d5:	f4e9      	s32i.n	a14, a4, 60
    12d7:	bec3d2        	addi	a13, a3, -66
    12da:	aaa0f2        	movi	a15, 170
    12dd:	4c44f2        	s8i	a15, a4, 76
    12e0:	3e54d2        	s16i	a13, a4, 124
    12e3:	5e5c      	movi.n	a14, 85
    12e5:	4d44e2        	s8i	a14, a4, 77
    12e8:	594a66        	bnei	a10, 4, 0x1345
    12eb:	f8a082        	movi	a8, 248
    12ee:	532837        	blt	a8, a3, 0x1345
    12f1:	470c      	movi.n	a7, 4
    12f3:	dea092        	movi	a9, 222
    12f6:	fec3a2        	addi	a10, a3, -2
    12f9:	0145a2        	s8i	a10, a5, 1
    12fc:	004592        	s8i	a9, a5, 0
    12ff:	474472        	s8i	a7, a4, 71
    1302:	4d44e2        	s8i	a14, a4, 77
    1305:	4c44f2        	s8i	a15, a4, 76
    1308:	02ad      	mov.n	a10, a2
    130a:	cea0b2        	movi	a11, 206
    130d:	eca0c2        	movi	a12, 236
    1310:	4f44c2        	s8i	a12, a4, 79
    1313:	4e44b2        	s8i	a11, a4, 78
    1316:	3c4c      	movi.n	a12, 67
    1318:	f4b0d0        	extui	a11, a13, 0, 16
    131b:	3e54b2        	s16i	a11, a4, 124
    131e:	ffeea5        	excw
    1321:	3f54a2        	s16i	a10, a4, 126
    1324:	5b3c      	movi.n	a11, 53
    1326:	b032a1        	l32r	a10, 0xfffed3f0
    1329:	ffbc25        	excw
    132c:	05bd      	mov.n	a11, a5
    132e:	4054a2        	s16i	a10, a4, 128
    1331:	6f          	.byte 0x6f
    1332:	409705        	call0	0x41ca4
    1335:	1b3b26        	beqi	a11, 3, 0x1354
    1338:	6f          	.byte 0x6f
    1339:	409706        	j	0x11599
    133c:	6f1b      	addi.n	a6, a15, 1
    133e:	409705        	call0	0x41cb0
    1341:	b03381        	l32r	a8, 0xfffed410
    1344:	fc0c      	movi.n	a12, 15
    1346:	fcc392        	addi	a9, a3, -4
    1349:	024592        	s8i	a9, a5, 2
    134c:	0145c2        	s8i	a12, a5, 1
    134f:	004582        	s8i	a8, a5, 0
    1352:	41a890        	srli	a10, a9, 8
    1355:	0345a2        	s8i	a10, a5, 3
    1358:	ffe7c6        	j	0x12fb
    135b:	004136        	excw
    135e:	b02a31        	l32r	a3, 0xfffed408
    1361:	b034b1        	l32r	a11, 0xfffed434
    1364:	072382        	l32i	a8, a3, 28
    1367:	0b23c2        	l32i	a12, a3, 44
    136a:	0a5816        	beqz	a8, 0x1413
    136d:	022b92        	l32i	a9, a11, 8
    1370:	1e13d2        	l16ui	a13, a3, 60
    1373:	02a9c7        	bge	a9, a12, 0x1379
    1376:	002646        	j	0x1413
    1379:	126d27        	bbci	a13, 2, 0x138f
    137c:	6f          	.byte 0x6f
    137d:	9a09      	s32i.n	a0, a10, 36
    137f:	a83d      	excw
    1381:	6f3b      	addi.n	a6, a15, 3
    1383:	3c9a05        	call0	0x3dd24
    1386:	ff2625        	excw
    1389:	1d1352        	l16ui	a5, a3, 58
    138c:	00a042        	movi	a4, 0
    138f:	1c13d2        	l16ui	a13, a3, 56
    1392:	b03571        	l32r	a7, 0xfffed468
    1395:	5a1da6        	blti	a13, 1, 0x13f3
    1398:	b00761        	l32r	a6, 0xfffed3b4
    139b:	202770        	or	a2, a7, a7
    139e:	1e1382        	l16ui	a8, a3, 60
    13a1:	6a6827        	bbci	a8, 2, 0x140f
    13a4:	ff2525        	excw
    13a7:	092382        	l32i	a8, a3, 36
    13aa:	1d1352        	l16ui	a5, a3, 58
    13ad:	ffa0b2        	movi	a11, 255
    13b0:	c155a0        	mul16u	a5, a5, a10
    13b3:	2c5c      	movi.n	a12, 82
    13b5:	315050        	srai	a5, a5, 16
    13b8:	7355c0        	excw
    13bb:	951b      	addi.n	a9, a5, 1
    13bd:	d9ba      	add.n	a13, a9, a11
    13bf:	b3d990        	movgez	a13, a9, a9
    13c2:	21d8d0        	srai	a13, a13, 8
    13c5:	010b97        	bnone	a11, a9, 0x13ca
    13c8:	dd1b      	addi.n	a13, a13, 1
    13ca:	0da8d7        	bge	a8, a13, 0x13db
    13cd:	6fd692        	addmi	a9, a6, 0x6f00
    13d0:	950c      	movi.n	a5, 9
    13d2:	ad1b      	addi.n	a10, a13, 1
    13d4:	e50d      	excw
    13d6:	ffcc      	bnez.n	a15, 0x13e9
    13d8:	02a9      	s32i.n	a10, a2, 0
    13da:	da8c      	beqz.n	a10, 0x13eb
    13dc:	05bd      	mov.n	a11, a5
    13de:	ffe8a5        	excw
    13e1:	224b      	addi.n	a2, a2, 4
    13e3:	1c13b2        	l16ui	a11, a3, 56
    13e6:	441b      	addi.n	a4, a4, 1
    13e8:	aa24b7        	blt	a4, a11, 0x1396
    13eb:	1014a6        	blti	a4, 1, 0x13ff
    13ee:	a05470        	addx4	a5, a4, a7
    13f1:	072d      	mov.n	a2, a7
    13f3:	02a8      	l32i.n	a10, a2, 0
    13f5:	0b0c      	movi.n	a11, 0
    13f7:	ffcfe5        	excw
    13fa:	224b      	addi.n	a2, a2, 4
    13fc:	f39257        	bne	a2, a5, 0x13f3
    13ff:	d3c8      	l32i.n	a12, a3, 52
    1401:	c4ca      	add.n	a12, a4, a12
    1403:	d3c9      	s32i.n	a12, a3, 52
    1405:	f01d      	excw
    1407:	93a8      	l32i.n	a10, a3, 36
    1409:	ffc9a5        	excw
    140c:	fff206        	j	0x13d8
    140f:	6f          	.byte 0x6f
    1410:	1c8605        	call0	0x1dc74
    1413:	02ad      	mov.n	a10, a2
    1415:	030c      	movi.n	a3, 0
    1417:	050c      	movi.n	a5, 0
    1419:	c2cc      	bnez.n	a2, 0x1429
    141b:	6f          	.byte 0x6f
    141c:	830b      	addi.n	a8, a3, -1
    141e:	162b      	addi.n	a1, a6, 2
    1420:	210542        	l8ui	a4, a5, 33
    1423:	b02a      	add.n	a11, a0, a2
    1425:	070c      	movi.n	a7, 0
    1427:	440c      	movi.n	a4, 4
    1429:	140ac2        	l8ui	a12, a10, 20
    142c:	10bc40        	and	a11, a12, a4
    142f:	226c17        	bbci	a12, 1, 0x1455
    1432:	1a98      	l32i.n	a9, a10, 4
    1434:	62d8      	l32i.n	a13, a2, 24
    1436:	990b      	addi.n	a9, a9, -1
    1438:	1a99      	s32i.n	a9, a10, 4
    143a:	178c47        	bany	a12, a4, 0x1455
    143d:	42c8      	l32i.n	a12, a2, 16
    143f:	dd1b      	addi.n	a13, a13, 1
    1441:	62d9      	s32i.n	a13, a2, 24
    1443:	cc0b      	addi.n	a12, a12, -1
    1445:	42c9      	s32i.n	a12, a2, 16
    1447:	00acd6        	bgez	a12, 0x1455
    144a:	6f          	.byte 0x6f
    144b:	880b      	addi.n	a8, a8, -1
    144d:	0a6812        	s32i	a1, a8, 40
    1450:	9b8c      	beqz.n	a11, 0x145d
    1452:	144a72        	s8i	a7, a10, 20
    1455:	ffbee5        	excw
    1458:	150c      	movi.n	a5, 1
    145a:	000306        	j	0x146a
    145d:	33cc      	bnez.n	a3, 0x1464
    145f:	0a79      	s32i.n	a7, a10, 0
    1461:	000086        	j	0x1467
    1464:	006a32        	s32i	a3, a10, 0
    1467:	203aa0        	or	a3, a10, a10
    146a:	20a660        	or	a10, a6, a6
    146d:	fb1656        	bnez	a6, 0x1422
    1470:	338c      	beqz.n	a3, 0x1477
    1472:	03ad      	mov.n	a10, a3
    1474:	001e25        	excw
    1477:	158c      	beqz.n	a5, 0x147c
    1479:	ffec65        	excw
    147c:	f01d      	excw
    147e:	006136        	excw
    1481:	024d      	mov.n	a4, a2
    1483:	1228      	l32i.n	a2, a2, 4
    1485:	060c      	movi.n	a6, 0
    1487:	0c0282        	l8ui	a8, a2, 12
    148a:	aaa092        	movi	a9, 170
    148d:	199897        	bne	a8, a9, 0x14aa
    1490:	0d02a2        	l8ui	a10, a2, 13
    1493:	5b5c      	movi.n	a11, 85
    1495:	119ab7        	bne	a10, a11, 0x14aa
    1498:	0e02c2        	l8ui	a12, a2, 14
    149b:	cea0d2        	movi	a13, 206
    149e:	089cd7        	bne	a12, a13, 0x14aa
    14a1:	0f02e2        	l8ui	a14, a2, 15
    14a4:	eca0f2        	movi	a15, 236
    14a7:	211ef7        	beq	a14, a15, 0x14cc
    14aa:	0a0c      	movi.n	a10, 0
    14ac:	0414b2        	l16ui	a11, a4, 8
    14af:	04cd      	mov.n	a12, a4
    14b1:	6f          	.byte 0x6f
    14b2:	950b      	addi.n	a9, a5, -1
    14b4:	04ad53        	excw
    14b7:	029d      	mov.n	a9, a2
    14b9:	548c      	beqz.n	a4, 0x14c2
    14bb:	0acd      	mov.n	a12, a10
    14bd:	0aa8      	l32i.n	a10, a10, 0
    14bf:	ff8a56        	bnez	a10, 0x14bb
    14c2:	001686        	j	0x1520
    14c5:	01ad      	mov.n	a10, a1
    14c7:	28c2b2        	addi	a11, a2, 40
    14ca:	2c0c      	movi.n	a12, 2
    14cc:	b02a51        	l32r	a5, 0xfffed574
    14cf:	b00071        	l32r	a7, 0xfffed4d0
    14d2:	5598      	l32i.n	a9, a5, 20
    14d4:	3b2782        	l32i	a8, a7, 236
    14d7:	991b      	addi.n	a9, a9, 1
    14d9:	5599      	s32i.n	a9, a5, 20
    14db:	6f          	.byte 0x6f
    14dc:	559406        	j	0x16b30
    14df:	822ac2        	l32i	a12, a10, 0x208
    14e2:	0c3b27        	bltu	a11, a2, 0x14f2
    14e5:	6f2c      	movi.n	a15, 38
    14e7:	509406        	j	0x1573b
    14ea:	090c      	movi.n	a9, 0
    14ec:	191b26        	beqi	a11, 1, 0x1509
    14ef:	fecbc2        	addi	a12, a11, -2
    14f2:	081c16        	beqz	a12, 0x1577
    14f5:	fdcbd2        	addi	a13, a11, -3
    14f8:	094d16        	beqz	a13, 0x1590
    14fb:	0c4b26        	beqi	a11, 4, 0x150b
    14fe:	fbcbe2        	addi	a14, a11, -5
    1501:	077e16        	beqz	a14, 0x157c
    1504:	036b66        	bnei	a11, 6, 0x150b
    1507:	7599      	s32i.n	a9, a5, 28
    1509:	160c      	movi.n	a6, 1
    150b:	76dc      	bnez.n	a6, 0x1526
    150d:	04cd      	mov.n	a12, a4
    150f:	04ad      	mov.n	a10, a4
    1511:	6f          	.byte 0x6f
    1512:	5c09      	s32i.n	a0, a12, 20
    1514:	1498      	l32i.n	a9, a4, 4
    1516:	020c      	movi.n	a2, 0
    1518:	f90b      	addi.n	a15, a9, -1
    151a:	14f9      	s32i.n	a15, a4, 4
    151c:	03c9      	s32i.n	a12, a3, 0
    151e:	f01d      	excw
    1520:	04cd      	mov.n	a12, a4
    1522:	0111e2        	l16ui	a14, a1, 2
    1525:	0f1c      	movi.n	a15, 16
    1527:	04e1e0        	extui	a14, a14, 1, 1
    152a:	0942f2        	s8i	a15, a2, 9
    152d:	0a42f2        	s8i	a15, a2, 10
    1530:	0414d2        	l16ui	a13, a4, 8
    1533:	04a8      	l32i.n	a10, a4, 0
    1535:	220c      	movi.n	a2, 2
    1537:	6a9c      	beqz.n	a10, 0x1551
    1539:	fda0f2        	movi	a15, 253
    153c:	0acd      	mov.n	a12, a10
    153e:	140ab2        	l8ui	a11, a10, 20
    1541:	041a82        	l16ui	a8, a10, 8
    1544:	10bbf0        	and	a11, a11, a15
    1547:	144ab2        	s8i	a11, a10, 20
    154a:	0aa8      	l32i.n	a10, a10, 0
    154c:	dd8a      	add.n	a13, a13, a8
    154e:	feaa56        	bnez	a10, 0x153c
    1551:	0414b2        	l16ui	a11, a4, 8
    1554:	140492        	l8ui	a9, a4, 20
    1557:	0a0c      	movi.n	a10, 0
    1559:	83dae0        	moveqz	a13, a10, a14
    155c:	44d9      	s32i.n	a13, a4, 16
    155e:	209920        	or	a9, a9, a2
    1561:	144492        	s8i	a9, a4, 20
    1564:	03c9      	s32i.n	a12, a3, 0
    1566:	d788      	l32i.n	a8, a7, 52
    1568:	14a8      	l32i.n	a10, a4, 4
    156a:	6f          	.byte 0x6f
    156b:	169607        	bne	a6, a0, 0x1585
    156e:	5599      	s32i.n	a9, a5, 20
    1570:	ffe386        	j	0x1502
    1573:	75b8      	l32i.n	a11, a5, 28
    1575:	5bac      	beqz.n	a11, 0x159e
    1577:	542782        	l32i	a8, a7, 0x150
    157a:	6f36a1        	l32r	a10, 0xfffdd254
    157d:	9508      	l32i.n	a0, a5, 36
    157f:	1e          	.byte 0x1e
    1580:	ffde86        	j	0x14fe
    1583:	34c2a2        	addi	a10, a2, 52
    1586:	b037b1        	l32r	a11, 0xfffed664
    1589:	4c0c      	movi.n	a12, 4
    158b:	6f          	.byte 0x6f
    158c:	4a8105        	call0	0x4bda0
    158f:	6f0b      	addi.n	a6, a15, -1
    1591:	4a8106        	j	0x13f99
    1594:	ffd846        	j	0x14f9
    1597:	2cc2b2        	addi	a11, a2, 44
    159a:	6c0c      	movi.n	a12, 6
    159c:	b038a1        	l32r	a10, 0xfffed67c
    159f:	070292        	l8ui	a9, a2, 7
    15a2:	3b2782        	l32i	a8, a7, 236
    15a5:	a24a92        	s8i	a9, a10, 162
    15a8:	6f39a1        	l32r	a10, 0xfffdd28c
    15ab:	a23504        	excw
    15ae:	c11d15        	excw
    15b1:	ccb007        	bgeu	a0, a0, 0x1581
    15b4:	6f9a      	add.n	a6, a15, a9
    15b6:	930b      	addi.n	a9, a3, -1
    15b8:	2e          	.byte 0x2e
    15b9:	4d0c      	movi.n	a13, 4
    15bb:	1c15b2        	l16ui	a11, a5, 56
    15be:	ea1b      	addi.n	a14, a10, 1
    15c0:	63bbd0        	excw
    15c3:	ffa0d2        	movi	a13, 255
    15c6:	f4b0b0        	extui	a11, a11, 0, 16
    15c9:	1c55b2        	s16i	a11, a5, 56
    15cc:	aeda      	add.n	a10, a14, a13
    15ce:	b3aee0        	movgez	a10, a14, a14
    15d1:	21a8a0        	srai	a10, a10, 8
    15d4:	95a9      	s32i.n	a10, a5, 36
    15d6:	030de7        	bnone	a13, a14, 0x15dd
    15d9:	aa1b      	addi.n	a10, a10, 1
    15db:	95a9      	s32i.n	a10, a5, 36
    15dd:	0d2c      	movi.n	a13, 32
    15df:	82bab0        	mull	a11, a10, a11
    15e2:	a5b9      	s32i.n	a11, a5, 40
    15e4:	07adb7        	bge	a13, a11, 0x15ef
    15e7:	c0bba0        	sub	a11, a11, a10
    15ea:	a5b9      	s32i.n	a11, a5, 40
    15ec:	f72db7        	blt	a13, a11, 0x15e7
    15ef:	091c      	movi.n	a9, 16
    15f1:	439b90        	excw
    15f4:	b599      	s32i.n	a9, a5, 44
    15f6:	0d1be6        	bgei	a11, 1, 0x1607
    15f9:	6fdca2        	addmi	a10, a12, 0x6f00
    15fc:	9b0c      	movi.n	a11, 9
    15fe:	19e655        	excw
    1601:	b20d      	excw
    1603:	6fdc      	bnez.n	a15, 0x161d
    1605:	8a0c      	movi.n	a10, 8
    1607:	38e164        	excw
    160a:	1c0cb0        	excw
    160d:	0d0c      	movi.n	a13, 0
    160f:	0802f2        	l8ui	a15, a2, 8
    1612:	c5f9      	s32i.n	a15, a5, 48
    1614:	d5d9      	s32i.n	a13, a5, 52
    1616:	85d9      	s32i.n	a13, a5, 32
    1618:	75c9      	s32i.n	a12, a5, 28
    161a:	176ed2        	s32i	a13, a14, 92
    161d:	ffcee5        	excw
    1620:	ffafc6        	j	0x14e3
    1623:	004136        	excw
    1626:	b03a81        	l32r	a8, 0xfffed710
    1629:	02bd      	mov.n	a11, a2
    162b:	992882        	l32i	a8, a8, 0x264
    162e:	056fa2        	s32i	a10, a15, 20
    1631:	8c0d90        	excw
    1634:	b2da      	add.n	a11, a2, a13
    1636:	9100a0        	srl	a0, a10
    1639:	76b022        	excw
    163c:	05aa      	add.n	a0, a5, a10
    163e:	0020c0        	memw
    1641:	a969b2        	s32i	a11, a9, 0x2a4
    1644:	6f          	.byte 0x6f
    1645:	7c8305        	call0	0x7de78
    1648:	02ad      	mov.n	a10, a2
    164a:	01bd      	mov.n	a11, a1
    164c:	ffdfe5        	excw
    164f:	5acc      	bnez.n	a10, 0x1658
    1651:	02ad      	mov.n	a10, a2
    1653:	fffce5        	excw
    1656:	6f          	.byte 0x6f
    1657:	1d9506        	j	0x8caf
    165a:	02bd02        	excw
    165d:	01c8      	l32i.n	a12, a1, 0
    165f:	ffabe5        	excw
    1662:	f01d      	excw
    1664:	6f          	.byte 0x6f
    1665:	850b      	addi.n	a8, a5, -1
    1667:	0e          	.byte 0xe
    1668:	6f          	.byte 0x6f
    1669:	688c05        	call0	0x69f2c
    166c:	0c0061        	l32r	a6, 0xfffc466c
    166f:	a032a2        	excw
    1672:	fe          	.byte 0xfe
    1673:	b03a41        	l32r	a4, 0xfffed75c
    1676:	3f12a6        	blti	a2, 1, 0x16b9
    1679:	0a0c      	movi.n	a10, 0
    167b:	962482        	l32i	a8, a4, 0x258
    167e:	01bd      	mov.n	a11, a1
    1680:	0008e0        	excw
    1683:	2abc      	beqz.n	a10, 0x16b9
    1685:	c022a0        	sub	a2, a2, a10
    1688:	01a8      	l32i.n	a10, a1, 0
    168a:	112200        	slli	a2, a2, 16
    168d:	312020        	srai	a2, a2, 16
    1690:	0a9d      	mov.n	a9, a10
    1692:	da9c      	beqz.n	a10, 0x16b3
    1694:	0a09b2        	l8ui	a11, a9, 10
    1697:	19c8      	l32i.n	a12, a9, 4
    1699:	116b07        	bbci	a11, 0, 0x16ae
    169c:	041982        	l16ui	a8, a9, 8
    169f:	cc1b      	addi.n	a12, a12, 1
    16a1:	10db30        	and	a13, a11, a3
    16a4:	0a49d2        	s8i	a13, a9, 10
    16a7:	19c9      	s32i.n	a12, a9, 4
    16a9:	880b      	addi.n	a8, a8, -1
    16ab:	045982        	s16i	a8, a9, 8
    16ae:	0998      	l32i.n	a9, a9, 0
    16b0:	fe0956        	bnez	a9, 0x1694
    16b3:	ffd0e5        	excw
    16b6:	6fef06        	j	0x1d676
    16b9:	7c8406        	j	0x208cd
    16bc:	a20c      	movi.n	a2, 10
    16be:	6f          	.byte 0x6f
    16bf:	2e4d05        	call0	0x2fb90
    16c2:	03ad      	mov.n	a10, a3
    16c4:	982482        	l32i	a8, a4, 0x260
    16c7:	6f          	.byte 0x6f
    16c8:	bd4d05        	call0	0xfffbeb9c
    16cb:	9c0a      	add.n	a9, a12, a0
    16cd:	a8fa      	add.n	a10, a8, a15
    16cf:	1a9801        	l32r	a0, 0xfffc8130
    16d2:	c022b0        	sub	a2, a2, a11
    16d5:	991b      	addi.n	a9, a9, 1
    16d7:	1a99      	s32i.n	a9, a10, 4
    16d9:	6f          	.byte 0x6f
    16da:	825705        	call0	0xfff83c4c
    16dd:	041a      	add.n	a0, a4, a1
    16df:	312020        	srai	a2, a2, 16
    16e2:	880b      	addi.n	a8, a8, -1
    16e4:	045a82        	s16i	a8, a10, 8
    16e7:	fff4a5        	excw
    16ea:	6ff346        	j	0x1d6bb
    16ed:	188b06        	j	0x791d
    16f0:	02bd      	mov.n	a11, a2
    16f2:	b03a81        	l32r	a8, 0xfffed7dc
    16f5:	1298      	l32i.n	a9, a2, 4
    16f7:	0412e2        	l16ui	a14, a2, 8
    16fa:	0a02c2        	l8ui	a12, a2, 10
    16fd:	1d0c      	movi.n	a13, 1
    16ff:	20ccd0        	or	a12, a12, a13
    1702:	ee1b      	addi.n	a14, a14, 1
    1704:	a90b      	addi.n	a10, a9, -1
    1706:	12a9      	s32i.n	a10, a2, 4
    1708:	0452e2        	s16i	a14, a2, 8
    170b:	0a42c2        	s8i	a12, a2, 10
    170e:	070992        	l8ui	a9, a9, 7
    1711:	004a92        	s8i	a9, a10, 0
    1714:	9a2882        	l32i	a8, a8, 0x268
    1717:	6f0c      	movi.n	a15, 6
    1719:	42a407        	bge	a4, a0, 0x175f
    171c:	6f          	.byte 0x6f
    171d:	688605        	call0	0x69f80
    1720:	6f          	.byte 0x6f
    1721:	6a8b06        	j	0x1c151
    1724:	b03b      	addi.n	a11, a0, 3
    1726:	9f2882        	l32i	a8, a8, 0x27c
    1729:	6f          	.byte 0x6f
    172a:	a408      	l32i.n	a0, a4, 40
    172c:	6f5a      	add.n	a6, a15, a5
    172e:	1818      	l32i.n	a1, a8, 4
    1730:	6f          	.byte 0x6f
    1731:	649b05        	call0	0x660e4
    1734:	0f6217        	bbci	a2, 1, 0x1747
    1737:	048220        	extui	a8, a2, 2, 1
    173a:	104816        	beqz	a8, 0x1842
    173d:	1a0c      	movi.n	a10, 1
    173f:	6f4be5        	excw
    1742:	a11606        	j	0xfffe9b9e
    1745:	b03c      	movi.n	a0, 59
    1747:	b04781        	l32r	a8, 0xfffed864
    174a:	0008e0        	excw
    174d:	01ad      	mov.n	a10, a1
    174f:	b00021        	l32r	a2, 0xfffed750
    1752:	0b0c      	movi.n	a11, 0
    1754:	3a2282        	l32i	a8, a2, 232
    1757:	4c1c      	movi.n	a12, 20
    1759:	0008e0        	excw
    175c:	b03a31        	l32r	a3, 0xfffed844
    175f:	b03da1        	l32r	a10, 0xfffed854
    1762:	b03e91        	l32r	a9, 0xfffed85c
    1765:	1199      	s32i.n	a9, a1, 4
    1767:	01a9      	s32i.n	a10, a1, 0
    1769:	942382        	l32i	a8, a3, 0x250
    176c:	01ad      	mov.n	a10, a1
    176e:	0008e0        	excw
    1771:	b003a1        	l32r	a10, 0xfffed780
    1774:	361aa2        	l16ui	a10, a10, 108
    1777:	b007b1        	l32r	a11, 0xfffed794
    177a:	9acc      	bnez.n	a10, 0x1787
    177c:	056fc1        	l32r	a12, 0xfffc2d38
    177f:	6f4d82        	s8i	a8, a13, 111
    1782:	379d05        	call0	0x39154
    1785:	ca0b      	addi.n	a12, a10, -1
    1787:	0d0ac7        	bnone	a10, a12, 0x1798
    178a:	01dbd2        	addmi	a13, a11, 0x100
    178d:	31cdd2        	addi	a13, a13, 49
    1790:	6f          	.byte 0x6f
    1791:	8708      	l32i.n	a0, a7, 32
    1793:	c038      	l32i.n	a3, a0, 48
    1795:	82f4b0        	mull	a15, a4, a11
    1798:	6f9c23        	excw
    179b:	2c8105        	call0	0x2dfac
    179e:	952382        	l32i	a8, a3, 0x254
    17a1:	6f4c      	movi.n	a15, 70
    17a3:	970806        	j	0xfffe73c7
    17a6:	6f          	.byte 0x6f
    17a7:	079505        	call0	0x90f8
    17aa:	9b2382        	l32i	a8, a3, 0x26c
    17ad:	00a1b2        	movi	a11, 0x100
    17b0:	0008e0        	excw
    17b3:	b03fb1        	l32r	a11, 0xfffed8b0
    17b6:	b04031        	l32r	a3, 0xfffed8b8
    17b9:	f288      	l32i.n	a8, a2, 60
    17bb:	03ad      	mov.n	a10, a3
    17bd:	0008e0        	excw
    17c0:	b04251        	l32r	a5, 0xfffed8c8
    17c3:	b04341        	l32r	a4, 0xfffed8d0
    17c6:	01a172        	movi	a7, 0x101
    17c9:	b04121        	l32r	a2, 0xfffed8d0
    17cc:	060c      	movi.n	a6, 0
    17ce:	1239      	s32i.n	a3, a2, 4
    17d0:	0269      	s32i.n	a6, a2, 0
    17d2:	073437        	bltu	a4, a3, 0x17dd
    17d5:	02ad      	mov.n	a10, a2
    17d7:	ffe065        	excw
    17da:	6f          	.byte 0x6f
    17db:	66a805        	call0	0x6825c
    17de:	076f14        	excw
    17e1:	66a8      	l32i.n	a10, a6, 24
    17e3:	02ad14        	excw
    17e6:	ff7e25        	excw
    17e9:	18c222        	addi	a2, a2, 24
    17ec:	337a      	add.n	a3, a3, a7
    17ee:	d89357        	bne	a3, a5, 0x17ca
    17f1:	00a192        	movi	a9, 0x100
    17f4:	056fa1        	l32r	a10, 0xfffc2db0
    17f7:	b13e94        	excw
    17fa:	0cb044        	excw
    17fd:	810c      	movi.n	a1, 8
    17ff:	92b000        	excw
    1802:	a26a      	add.n	a10, a2, a6
    1804:	662882        	l32i	a8, a8, 0x198
    1807:	6f          	.byte 0x6f
    1808:	368e06        	j	0xf244
    180b:	0b0c      	movi.n	a11, 0
    180d:	b045c1        	l32r	a12, 0xfffed924
    1810:	b00021        	l32r	a2, 0xfffed810
    1813:	b03b31        	l32r	a3, 0xfffed900
    1816:	9e2282        	l32i	a8, a2, 0x278
    1819:	6fa8      	l32i.n	a10, a15, 24
    181b:	a86504        	excw
    181e:	1b0c03        	excw
    1821:	9e2282        	l32i	a8, a2, 0x278
    1824:	6f46c1        	l32r	a12, 0xfffdd53c
    1827:	568e06        	j	0x17263
    182a:	0a0c      	movi.n	a10, 0
    182c:	6f3ba5        	excw
    182f:	28a606        	j	0xbacb
    1832:	1b0c      	movi.n	a11, 1
    1834:	6f          	.byte 0x6f
    1835:	5a9205        	call0	0x5c158
    1838:	020c      	movi.n	a2, 0
    183a:	4913a6        	blti	a3, 1, 0x1887
    183d:	046916        	beqz	a9, 0x1887
    1840:	041962        	l16ui	a6, a9, 8
    1843:	7bcc      	bnez.n	a11, 0x184e
    1845:	070c      	movi.n	a7, 0
    1847:	43a360        	excw
    184a:	000286        	j	0x1858
    184d:	047d00        	extui	a7, a0, 13, 1
    1850:	0b0c      	movi.n	a11, 0
    1852:	c0a640        	sub	a10, a6, a4
    1855:	43a3a0        	excw
    1858:	231aa6        	blti	a10, 1, 0x187f
    185b:	1968      	l32i.n	a6, a9, 4
    185d:	676a      	add.n	a6, a7, a6
    185f:	6f          	.byte 0x6f
    1860:	589226        	beqi	a2, 10, 0x18bc
    1863:	6fec      	bnez.n	a15, 0x188d
    1865:	589207        	bne	a2, a0, 0x18c1
    1868:	035d      	mov.n	a5, a3
    186a:	020c      	movi.n	a2, 0
    186c:	b049a1        	l32r	a10, 0xfffed990
    186f:	2c4c      	movi.n	a12, 66
    1871:	b04891        	l32r	a9, 0xfffed994
    1874:	747040        	extui	a7, a4, 0, 8
    1877:	b00061        	l32r	a6, 0xfffed878
    187a:	004972        	s8i	a7, a9, 0
    187d:	3b2682        	l32i	a8, a6, 236
    1880:	13b8      	l32i.n	a11, a3, 4
    1882:	6f08e0        	excw
    1885:	610806        	j	0x19ca9
    1888:	b04a      	add.n	a11, a0, a4
    188a:	4c0c      	movi.n	a12, 4
    188c:	6f          	.byte 0x6f
    188d:	3aa405        	call0	0x3c2d0
    1890:	b00741        	l32r	a4, 0xfffed8ac
    1893:	100692        	l8ui	a9, a6, 16
    1896:	aaa0a2        	movi	a10, 170
    1899:	1999a7        	bne	a9, a10, 0x18b6
    189c:	1106b2        	l8ui	a11, a6, 17
    189f:	5c5c      	movi.n	a12, 85
    18a1:	119bc7        	bne	a11, a12, 0x18b6
    18a4:	1206d2        	l8ui	a13, a6, 18
    18a7:	cea0e2        	movi	a14, 206
    18aa:	089de7        	bne	a13, a14, 0x18b6
    18ad:	1306f2        	l8ui	a15, a6, 19
    18b0:	eca082        	movi	a8, 236
    18b3:	6f1f87        	beq	a15, a8, 0x1926
    18b6:	0f          	.byte 0xf
    18b7:	a148a0        	excw
    18ba:	b04b      	addi.n	a11, a0, 4
    18bc:	35a0b2        	movi	a11, 53
    18bf:	ff5525        	excw
    18c2:	2216b2        	l16ui	a11, a6, 68
    18c5:	01d4c2        	addmi	a12, a4, 0x100
    18c8:	0b1ba7        	beq	a11, a10, 0x18d7
    18cb:	6f          	.byte 0x6f
    18cc:	52a006        	j	0x16350
    18cf:	002cc2        	l32i	a12, a12, 0
    18d2:	0020c0        	memw
    18d5:	2016b2        	l16ui	a11, a6, 64
    18d8:	00c316        	beqz	a3, 0x18e8
    18db:	041582        	l16ui	a8, a5, 8
    18de:	0558      	l32i.n	a5, a5, 0
    18e0:	282a      	add.n	a2, a8, a2
    18e2:	f42020        	extui	a2, a2, 0, 16
    18e5:	ff2556        	bnez	a5, 0x18db
    18e8:	42cb92        	addi	a9, a11, 66
    18eb:	0d1297        	beq	a2, a9, 0x18fc
    18ee:	6f          	.byte 0x6f
    18ef:	0e          	.byte 0xe
    18f0:	6661a2        	s32i	a10, a1, 0x198
    18f3:	c21927        	beq	a9, a2, 0x18b9
    18f6:	d20116        	beqz	a1, 0x161a
    18f9:	d7fcc2        	excw
    18fc:	1e1c      	movi.n	a14, 17
    18fe:	6f          	.byte 0x6f
    18ff:	0e          	.byte 0xe
    1900:	4650a0        	excw
    1903:	f20003        	excw
    1906:	0c6fd4        	excw
    1909:	469a      	add.n	a4, a6, a9
    190b:	171682        	l16ui	a8, a6, 46
    190e:	1d6807        	bbci	a8, 0, 0x192f
    1911:	03ad      	mov.n	a10, a3
    1913:	2c4c      	movi.n	a12, 66
    1915:	ffec65        	excw
    1918:	211692        	l16ui	a9, a6, 66
    191b:	2356a2        	s16i	a10, a6, 70
    191e:	6f19a7        	beq	a9, a10, 0x1991
    1921:	0f          	.byte 0xf
    1922:	4f          	.byte 0x4f
    1923:	0b0c      	movi.n	a11, 0
    1925:	1616c2        	l16ui	a12, a6, 44
    1928:	120c      	movi.n	a2, 1
    192a:	fcccc2        	addi	a12, a12, -4
    192d:	932bc0        	movnez	a2, a11, a12
    1930:	6f          	.byte 0x6f
    1931:	549307        	bne	a3, a0, 0x1989
    1934:	b04a31        	l32r	a3, 0xfffeda5c
    1937:	020c      	movi.n	a2, 0
    1939:	6f6322        	s32i	a2, a3, 0x1bc
    193c:	6cad07        	bge	a13, a0, 0x19ac
    193f:	100061        	l32r	a6, 0xfffc5940
    1942:	4120a1        	l32r	a10, 0xfffd1dc4
    1945:	b2b000        	excw
    1948:	8200a0        	mull	a0, a0, a10
    194b:	c23a24        	excw
    194e:	e010a0        	subx4	a1, a0, a10
    1951:	0008      	l32i.n	a0, a0, 0
    1953:	b04c21        	l32r	a2, 0xfffeda84
    1956:	5298      	l32i.n	a9, a2, 20
    1958:	079956        	bnez	a9, 0x19d5
    195b:	0b0c      	movi.n	a11, 0
    195d:	2c4c      	movi.n	a12, 66
    195f:	3a2482        	l32i	a8, a4, 232
    1962:	18c232        	addi	a3, a2, 24
    1965:	190c      	movi.n	a9, 1
    1967:	5299      	s32i.n	a9, a2, 20
    1969:	6f          	.byte 0x6f
    196a:	1f8405        	call0	0x211ac
    196d:	b033b1        	l32r	a11, 0xfffeda3c
    1970:	4a0c      	movi.n	a10, 4
    1972:	585c      	movi.n	a8, 85
    1974:	0c0c      	movi.n	a12, 0
    1976:	ed3c      	movi.n	a13, 62
    1978:	eca0e2        	movi	a14, 236
    197b:	cea0f2        	movi	a15, 206
    197e:	aaa092        	movi	a9, 170
    1981:	244292        	s8i	a9, a2, 36
    1984:	2642f2        	s8i	a15, a2, 38
    1987:	2742e2        	s8i	a14, a2, 39
    198a:	0243d2        	s8i	a13, a3, 2
    198d:	0343c2        	s8i	a12, a3, 3
    1990:	254282        	s8i	a8, a2, 37
    1993:	2052a2        	s16i	a10, a2, 64
    1996:	0043b2        	s8i	a11, a3, 0
    1999:	fa0c      	movi.n	a10, 15
    199b:	5b3c      	movi.n	a11, 53
    199d:	0143a2        	s8i	a10, a3, 1
    19a0:	b04da1        	l32r	a10, 0xfffedad4
    19a3:	ff43e5        	excw
    19a6:	03bd      	mov.n	a11, a3
    19a8:	2c4c      	movi.n	a12, 66
    19aa:	2c52a2        	s16i	a10, a2, 88
    19ad:	3b2482        	l32i	a8, a4, 236
    19b0:	b04ea1        	l32r	a10, 0xfffedae8
    19b3:	0008e0        	excw
    19b6:	b03a81        	l32r	a8, 0xfffedaa0
    19b9:	2b0c      	movi.n	a11, 2
    19bb:	3a4c      	movi.n	a10, 67
    19bd:	b05091        	l32r	a9, 0xfffedb00
    19c0:	b04fc1        	l32r	a12, 0xfffedafc
    19c3:	01c9      	s32i.n	a12, a1, 0
    19c5:	2199      	s32i.n	a9, a1, 8
    19c7:	11a9      	s32i.n	a10, a1, 4
    19c9:	004cb2        	s8i	a11, a12, 0
    19cc:	b02882        	l32i	a8, a8, 0x2c0
    19cf:	6f          	.byte 0x6f
    19d0:	608505        	call0	0x62224
    19d3:	6f          	.byte 0x6f
    19d4:	8108      	l32i.n	a0, a1, 32
    19d6:	211c      	movi.n	a1, 18
    19d8:	38b007        	bgeu	a0, a0, 0x1a14
    19db:	040c13        	excw
    19de:	6f0382        	l8ui	a8, a3, 111
    19e1:	8c08      	l32i.n	a0, a12, 32
    19e3:	6f0345        	call0	0x70a18
    19e6:	458c07        	bany	a12, a0, 0x1a2f
    19e9:	086f03        	excw
    19ec:	458c      	beqz.n	a5, 0x19f4
    19ee:	066f03        	excw
    19f1:	458c      	beqz.n	a5, 0x19f9
    19f3:	820d      	excw
    19f5:	0c6fd2        	s32i	a13, a15, 48
    19f8:	717aa4        	excw
    19fb:	b04a      	add.n	a11, a0, a4
    19fd:	1227a2        	l32i	a10, a7, 72
    1a00:	08a092        	movi	a9, 8
    1a03:	01caa2        	addi	a10, a10, 1
    1a06:	1267a2        	s32i	a10, a7, 72
    1a09:	17a9a7        	bge	a9, a10, 0x1a24
    1a0c:	00a0b2        	movi	a11, 0
    1a0f:	1267b2        	s32i	a11, a7, 72
    1a12:	056fa1        	l32r	a10, 0xfffc2fd0
    1a15:	8f          	.byte 0x8f
    1a16:	2aa236        	excw
    1a19:	a0a093        	excw
    1a1c:	ab25f4        	excw
    1a1f:	fe          	.byte 0xfe
    1a20:	fff025        	excw
    1a23:	0bc3a2        	addi	a10, a3, 11
    1a26:	35a0b2        	movi	a11, 53
    1a29:	ff39e5        	excw
    1a2c:	40c3b2        	addi	a11, a3, 64
    1a2f:	02a0c2        	movi	a12, 2
    1a32:	b00061        	l32r	a6, 0xfffeda34
    1a35:	0a5d      	mov.n	a5, a10
    1a37:	3b2682        	l32i	a8, a6, 236
    1a3a:	6f          	.byte 0x6f
    1a3b:	068105        	call0	0x824c
    1a3e:	001192        	l16ui	a9, a1, 0
    1a41:	01d2a2        	addmi	a10, a2, 0x100
    1a44:	0a1957        	beq	a9, a5, 0x1a52
    1a47:	6f          	.byte 0x6f
    1a48:	820b      	addi.n	a8, a2, -1
    1a4a:	a12b52        	l32i	a5, a11, 0x284
    1a4d:	28c3b2        	addi	a11, a3, 40
    1a50:	6f2682        	l32i	a8, a6, 0x1bc
    1a53:	728c06        	j	0x1e487
    1a56:	a14b      	addi.n	a10, a1, 4
    1a58:	2ac3b2        	addi	a11, a3, 42
    1a5b:	6f          	.byte 0x6f
    1a5c:	0d08      	l32i.n	a0, a13, 0
    1a5e:	0211a2        	l16ui	a10, a1, 4
    1a61:	011192        	l16ui	a9, a1, 2
    1a64:	04a1a0        	extui	a10, a10, 1, 1
    1a67:	2567a2        	s32i	a10, a7, 148
    1a6a:	011966        	bnei	a9, 1, 0x1a6f
    1a6d:	140c      	movi.n	a4, 1
    1a6f:	a48c      	beqz.n	a4, 0x1a7d
    1a71:	020c      	movi.n	a2, 0
    1a73:	0b1c      	movi.n	a11, 16
    1a75:	0943b2        	s8i	a11, a3, 9
    1a78:	0a43b2        	s8i	a11, a3, 10
    1a7b:	f01d      	excw
    1a7d:	6f0c      	movi.n	a15, 6
    1a7f:	30a806        	j	0xdd23
    1a82:	2d0061        	l32r	a6, 0xfffcce84
    1a85:	446603        	excw
    1a88:	ad1b      	addi.n	a10, a13, 1
    1a8a:	003101        	l32r	a0, 0xfffc1b50
    1a8d:	12b8b0        	excw
    1a90:	6f2382        	l32i	a8, a3, 0x1bc
    1a93:	a83c06        	j	0xfffebb87
    1a96:	01b212        	excw
    1a99:	238201        	l32r	a0, 0xfffca8a4
    1a9c:	bb2b47        	blt	a11, a4, 0x1a5b
    1a9f:	6f          	.byte 0x6f
    1aa0:	12ae07        	bge	a14, a0, 0x1ab6
    1aa3:	6f          	.byte 0x6f
    1aa4:	142806        	j	0x6b48
    1aa7:	6f          	.byte 0x6f
    1aa8:	280c      	movi.n	a8, 2
    1aaa:	6f3c      	movi.n	a15, 54
    1aac:	022807        	blt	a8, a0, 0x1ab2
    1aaf:	472382        	l32i	a8, a3, 0x11c
    1ab2:	6f3b      	addi.n	a6, a15, 3
    1ab4:	2809      	s32i.n	a0, a8, 8
    1ab6:	260041        	l32r	a4, 0xfffcb2b8
    1ab9:	660c13        	excw
    1abc:	0c0e23        	excw
    1abf:	e50a      	add.n	a14, a5, a0
    1ac1:	6f28      	l32i.n	a2, a15, 24
    1ac3:	27ac06        	j	0xb977
    1ac6:	1a0c      	movi.n	a10, 1
    1ac8:	066f25        	excw
    1acb:	360a      	add.n	a3, a6, a0
    1acd:	066f41        	l32r	a4, 0xfffc348c
    1ad0:	364997        	ball	a9, a9, 0x1b0a
    1ad3:	250041        	l32r	a4, 0xfffcaed4
    1ad6:	fe9d      	excw
    1ad8:	b00081        	l32r	a8, 0xfffedad8
    1adb:	74b0a0        	extui	a11, a10, 0, 8
    1ade:	f4a1c2        	movi	a12, 0x1f4
    1ae1:	b051a1        	l32r	a10, 0xfffedc28
    1ae4:	80bbc0        	add	a11, a11, a12
    1ae7:	632882        	l32i	a8, a8, 0x18c
    1aea:	6f          	.byte 0x6f
    1aeb:	4e9b06        	j	0x1555b
    1aee:	000090        	excw
    1af1:	6f          	.byte 0x6f
    1af2:	74b007        	bgeu	a0, a0, 0x1b6a
    1af5:	b03a      	add.n	a11, a0, a3
    1af7:	b12282        	l32i	a8, a2, 0x2c4
    1afa:	0008e0        	excw
    1afd:	122a66        	bnei	a10, 2, 0x1b13
    1b00:	b04aa1        	l32r	a10, 0xfffedc28
    1b03:	252aa2        	l32i	a10, a10, 148
    1b06:	aa9c      	beqz.n	a10, 0x1b24
    1b08:	b22282        	l32i	a8, a2, 0x2c8
    1b0b:	3a0c      	movi.n	a10, 3
    1b0d:	0008e0        	excw
    1b10:	000406        	j	0x1b24
    1b13:	6f          	.byte 0x6f
    1b14:	3a1c07        	beq	a12, a0, 0x1b52
    1b17:	046f07        	bbci	a15, 0, 0x1b1f
    1b1a:	e02a14        	excw
    1b1d:	0008      	l32i.n	a0, a0, 0
    1b1f:	fffaa5        	excw
    1b22:	f01d      	excw
    1b24:	00a136        	excw
    1b27:	b052a1        	l32r	a10, 0xfffedc70
    1b2a:	6f8e65        	excw
    1b2d:	890a      	add.n	a8, a9, a0
    1b2f:	3f          	.byte 0x3f
    1b30:	b053a1        	l32r	a10, 0xfffedc7c
    1b33:	012765        	excw
    1b36:	b054a1        	l32r	a10, 0xfffedc88
    1b39:	6f5a81        	l32r	a8, 0xfffdd8a4
    1b3c:	6f0f04        	excw
    1b3f:	840c      	movi.n	a4, 8
    1b41:	5e          	.byte 0x5e
    1b42:	8c2c      	movi.n	a12, 40
    1b44:	6f          	.byte 0x6f
    1b45:	048e05        	call0	0x6428
    1b48:	b03a31        	l32r	a3, 0xfffedc30
    1b4b:	00a1a2        	movi	a10, 0x100
    1b4e:	4b0c      	movi.n	a11, 4
    1b50:	ac0c      	movi.n	a12, 10
    1b52:	01c9      	s32i.n	a12, a1, 0
    1b54:	21c9      	s32i.n	a12, a1, 8
    1b56:	11b9      	s32i.n	a11, a1, 4
    1b58:	31a9      	s32i.n	a10, a1, 12
    1b5a:	ae2382        	l32i	a8, a3, 0x2b8
    1b5d:	4199      	s32i.n	a9, a1, 16
    1b5f:	0008e0        	excw
    1b62:	b056d1        	l32r	a13, 0xfffedcbc
    1b65:	b055e1        	l32r	a14, 0xfffedcbc
    1b68:	71e9      	s32i.n	a14, a1, 28
    1b6a:	81d9      	s32i.n	a13, a1, 32
    1b6c:	828c      	beqz.n	a2, 0x1b78
    1b6e:	b058f1        	l32r	a15, 0xfffedcd0
    1b71:	b05781        	l32r	a8, 0xfffedcd0
    1b74:	5189      	s32i.n	a8, a1, 20
    1b76:	61f9      	s32i.n	a15, a1, 24
    1b78:	af2382        	l32i	a8, a3, 0x2bc
    1b7b:	6f          	.byte 0x6f
    1b7c:	0f8305        	call0	0x113b0
    1b7f:	a32382        	l32i	a8, a3, 0x28c
    1b82:	6f          	.byte 0x6f
    1b83:	a17905        	call0	0xfffa3314
    1b86:	b1b051        	l32r	a5, 0xfffee248
    1b89:	b059      	s32i.n	a5, a0, 44
    1b8b:	6f2482        	l32i	a8, a4, 0x1bc
    1b8e:	009d06        	j	0x1e06
    1b91:	128c      	beqz.n	a2, 0x1b96
    1b93:	6ff1e5        	excw
    1b96:	ae09      	s32i.n	a0, a14, 40
    1b98:	5b4120        	excw
    1b9b:	0448b0        	extui	a4, a11, 8, 1
    1b9e:	d428      	l32i.n	a2, a4, 52
    1ba0:	6f          	.byte 0x6f
    1ba1:	a60d      	excw
    1ba3:	0c0c41        	l32r	a4, 0xfffc4bd4
    1ba6:	090c      	movi.n	a9, 0
    1ba8:	0a0c      	movi.n	a10, 0
    1baa:	0b0c      	movi.n	a11, 0
    1bac:	0d0c      	movi.n	a13, 0
    1bae:	22e8      	l32i.n	a14, a2, 8
    1bb0:	d4e9      	s32i.n	a14, a4, 52
    1bb2:	0c42d2        	s8i	a13, a2, 12
    1bb5:	0d42b2        	s8i	a11, a2, 13
    1bb8:	0e42a2        	s8i	a10, a2, 14
    1bbb:	0f4292        	s8i	a9, a2, 15
    1bbe:	0842d2        	s8i	a13, a2, 8
    1bc1:	0942d2        	s8i	a13, a2, 9
    1bc4:	0a42d2        	s8i	a13, a2, 10
    1bc7:	0b42c2        	s8i	a12, a2, 11
    1bca:	6f          	.byte 0x6f
    1bcb:	54ae07        	bge	a14, a0, 0x1c23
    1bce:	b05b      	addi.n	a11, a0, 5
    1bd0:	0338      	l32i.n	a3, a3, 0
    1bd2:	d348      	l32i.n	a4, a3, 52
    1bd4:	084242        	s8i	a4, a2, 8
    1bd7:	415840        	srli	a5, a4, 8
    1bda:	094252        	s8i	a5, a2, 9
    1bdd:	416850        	srli	a6, a5, 8
    1be0:	0a4262        	s8i	a6, a2, 10
    1be3:	417860        	srli	a7, a6, 8
    1be6:	0b4272        	s8i	a7, a2, 11
    1be9:	d329      	s32i.n	a2, a3, 52
    1beb:	6f          	.byte 0x6f
    1bec:	7c9b07        	bne	a11, a0, 0x1c6c
    1bef:	0cb000        	excw
    1bf2:	880a      	add.n	a8, a8, a0
    1bf4:	c048      	l32i.n	a4, a0, 48
    1bf6:	e011b2        	l16ui	a11, a1, 0x1c0
    1bf9:	0008      	l32i.n	a0, a0, 0
    1bfb:	0a3d      	mov.n	a3, a10
    1bfd:	0e12a6        	blti	a2, 1, 0x1c0f
    1c00:	040c      	movi.n	a4, 0
    1c02:	03ad      	mov.n	a10, a3
    1c04:	fffc25        	excw
    1c07:	10c332        	addi	a3, a3, 16
    1c0a:	441b      	addi.n	a4, a4, 1
    1c0c:	f29247        	bne	a2, a4, 0x1c02
    1c0f:	6f          	.byte 0x6f
    1c10:	7c8207        	bany	a2, a0, 0x1c90
    1c13:	fff725        	excw
    1c16:	b00791        	l32r	a9, 0xfffedc34
    1c19:	6f          	.byte 0x6f
    1c1a:	980d      	excw
    1c1c:	7f          	.byte 0x7f
    1c1d:	2ab8      	l32i.n	a11, a10, 8
    1c1f:	01d9c2        	addmi	a12, a9, 0x100
    1c22:	9b8c      	beqz.n	a11, 0x1c2f
    1c24:	6f          	.byte 0x6f
    1c25:	a80b      	addi.n	a10, a8, -1
    1c27:	0c6a      	add.n	a0, a12, a6
    1c29:	c00b      	addi.n	a12, a0, -1
    1c2b:	300020        	xor	a0, a0, a2
    1c2e:	2090d3        	excw
    1c31:	f190e2        	l16si	a14, a0, 0x1e2
    1c34:	b05b      	addi.n	a11, a0, 5
    1c36:	080c      	movi.n	a8, 0
    1c38:	0ab9      	s32i.n	a11, a10, 0
    1c3a:	9a4b      	addi.n	a9, a10, 4
    1c3c:	0249b2        	s8i	a11, a9, 2
    1c3f:	0149b2        	s8i	a11, a9, 1
    1c42:	0049b2        	s8i	a11, a9, 0
    1c45:	034982        	s8i	a8, a9, 3
    1c48:	0ff8      	l32i.n	a15, a15, 0
    1c4a:	0a2d      	mov.n	a2, a10
    1c4c:	a0eef0        	addx4	a14, a14, a15
    1c4f:	a0dde0        	addx4	a13, a13, a14
    1c52:	8da9      	s32i.n	a10, a13, 32
    1c54:	6f          	.byte 0x6f
    1c55:	815807        	bbc	a8, a0, 0x1bda
    1c58:	b05b      	addi.n	a11, a0, 5
    1c5a:	0888      	l32i.n	a8, a8, 0
    1c5c:	132882        	l32i	a8, a8, 76
    1c5f:	6f          	.byte 0x6f
    1c60:	3eb205        	call0	0x40784
    1c63:	6f          	.byte 0x6f
    1c64:	548407        	bany	a4, a0, 0x1cbc
    1c67:	03cd      	mov.n	a12, a3
    1c69:	b05bb1        	l32r	a11, 0xfffeddd8
    1c6c:	b05c81        	l32r	a8, 0xfffedddc
    1c6f:	0bd8      	l32i.n	a13, a11, 0
    1c71:	90e220        	addx2	a14, a2, a2
    1c74:	a0ded0        	addx4	a13, a14, a13
    1c77:	ada8      	l32i.n	a10, a13, 40
    1c79:	11eee0        	slli	a14, a14, 2
    1c7c:	0a98      	l32i.n	a9, a10, 0
    1c7e:	11e9      	s32i.n	a14, a1, 4
    1c80:	728897        	bany	a8, a9, 0x1cf6
    1c83:	bde8      	l32i.n	a14, a13, 44
    1c85:	060c      	movi.n	a6, 0
    1c87:	6b1ea7        	beq	a14, a10, 0x1cf6
    1c8a:	b00771        	l32r	a7, 0xfffedca8
    1c8d:	b05d31        	l32r	a3, 0xfffede04
    1c90:	020c      	movi.n	a2, 0
    1c92:	050c      	movi.n	a5, 0
    1c94:	01c9      	s32i.n	a12, a1, 0
    1c96:	3ac8      	l32i.n	a12, a10, 12
    1c98:	221b      	addi.n	a2, a2, 1
    1c9a:	cccc      	bnez.n	a12, 0x1caa
    1c9c:	6fd7f2        	addmi	a15, a7, 0x6f00
    1c9f:	880c      	movi.n	a8, 8
    1ca1:	4f          	.byte 0x4f
    1ca2:	0c88      	l32i.n	a8, a12, 0
    1ca4:	01d792        	addmi	a9, a7, 0x100
    1ca7:	988c      	beqz.n	a8, 0x1cb4
    1ca9:	6f          	.byte 0x6f
    1caa:	890b      	addi.n	a8, a9, -1
    1cac:	16fc51        	l32r	a5, 0xfffc789c
    1caf:	0c6d      	mov.n	a6, a12
    1cb1:	2a48      	l32i.n	a4, a10, 8
    1cb3:	0c5d      	mov.n	a5, a12
    1cb5:	204430        	or	a4, a4, a3
    1cb8:	ffee65        	excw
    1cbb:	b05bb1        	l32r	a11, 0xfffede28
    1cbe:	11e8      	l32i.n	a14, a1, 4
    1cc0:	0bd8      	l32i.n	a13, a11, 0
    1cc2:	04ad      	mov.n	a10, a4
    1cc4:	ddea      	add.n	a13, a13, a14
    1cc6:	bd88      	l32i.n	a8, a13, 44
    1cc8:	b05cf1        	l32r	a15, 0xfffede38
    1ccb:	041847        	beq	a8, a4, 0x1cd3
    1cce:	0488      	l32i.n	a8, a4, 0
    1cd0:	b30f87        	bnone	a15, a8, 0x1c87
    1cd3:	ad49      	s32i.n	a4, a13, 40
    1cd5:	cd98      	l32i.n	a9, a13, 48
    1cd7:	01a8      	l32i.n	a10, a1, 0
    1cd9:	c09920        	sub	a9, a9, a2
    1cdc:	0a69      	s32i.n	a6, a10, 0
    1cde:	cd99      	s32i.n	a9, a13, 48
    1ce0:	f01d      	excw
    1ce2:	05c9      	s32i.n	a12, a5, 0
    1ce4:	fff246        	j	0x1cb1
    1ce7:	6f          	.byte 0x6f
    1ce8:	409c07        	bne	a12, a0, 0x1d2c
    1ceb:	bd0061        	l32r	a6, 0xffff10ec
    1cee:	6fc103        	excw
    1cf1:	188106        	j	0x7ef9
    1cf4:	6f0c      	movi.n	a15, 6
    1cf6:	188107        	bany	a1, a0, 0x1d12
    1cf9:	6f7d      	excw
    1cfb:	188106        	j	0x7f03
    1cfe:	089721        	l32r	a2, 0xfffc3f5c
    1d01:	330602        	l8ui	a0, a6, 51
    1d04:	8de800        	excw
    1d07:	c0eea0        	sub	a14, a14, a10
    1d0a:	0c4e16        	beqz	a14, 0x1dd2
    1d0d:	b00761        	l32r	a6, 0xfffedd2c
    1d10:	020c      	movi.n	a2, 0
    1d12:	030c      	movi.n	a3, 0
    1d14:	01b9      	s32i.n	a11, a1, 0
    1d16:	080c      	movi.n	a8, 0
    1d18:	9dcb      	addi.n	a9, a13, 12
    1d1a:	1199      	s32i.n	a9, a1, 4
    1d1c:	3189      	s32i.n	a8, a1, 12
    1d1e:	3a48      	l32i.n	a4, a10, 12
    1d20:	c4cc      	bnez.n	a4, 0x1d30
    1d22:	6fd6b2        	addmi	a11, a6, 0x6f00
    1d25:	910c      	movi.n	a1, 9
    1d27:	04d814        	excw
    1d2a:	01d6e2        	addmi	a14, a6, 0x100
    1d2d:	9d8c      	beqz.n	a13, 0x1d3a
    1d2f:	6f          	.byte 0x6f
    1d30:	8a0b      	addi.n	a8, a10, -1
    1d32:	0ab811        	l32r	a1, 0xfffc4814
    1d35:	b4f0b0        	extui	a15, a11, 0, 12
    1d38:	0454f2        	s16i	a15, a4, 8
    1d3b:	cfcc      	bnez.n	a15, 0x1d4b
    1d3d:	6f          	.byte 0x6f
    1d3e:	a109      	s32i.n	a0, a1, 40
    1d40:	6f5d      	excw
    1d42:	658205        	call0	0x67564
    1d45:	3198      	l32i.n	a9, a1, 12
    1d47:	221b      	addi.n	a2, a2, 1
    1d49:	06b956        	bnez	a9, 0x1db8
    1d4c:	3149      	s32i.n	a4, a1, 12
    1d4e:	b05d71        	l32r	a7, 0xfffedec4
    1d51:	2a58      	l32i.n	a5, a10, 8
    1d53:	205570        	or	a5, a5, a7
    1d56:	b05e71        	l32r	a7, 0xfffeded0
    1d59:	043d      	mov.n	a3, a4
    1d5b:	107b70        	and	a7, a11, a7
    1d5e:	ffe1e5        	excw
    1d61:	b05bc1        	l32r	a12, 0xfffeded0
    1d64:	05ad      	mov.n	a10, a5
    1d66:	c5cc      	bnez.n	a5, 0x1d76
    1d68:	6f          	.byte 0x6f
    1d69:	0e          	.byte 0xe
    1d6a:	5cb131        	l32r	a3, 0xfffd9030
    1d6d:	0598b0        	extui	a9, a11, 24, 1
    1d70:	21d8      	l32i.n	a13, a1, 8
    1d72:	4089b7        	bany	a9, a11, 0x1db6
    1d75:	0cb8      	l32i.n	a11, a12, 0
    1d77:	bbda      	add.n	a11, a11, a13
    1d79:	8bd8      	l32i.n	a13, a11, 32
    1d7b:	021d57        	beq	a13, a5, 0x1d81
    1d7e:	f7c716        	beqz	a7, 0x1cfe
    1d81:	1198      	l32i.n	a9, a1, 4
    1d83:	7b59      	s32i.n	a5, a11, 28
    1d85:	2998      	l32i.n	a9, a9, 8
    1d87:	47bc      	beqz.n	a7, 0x1dbf
    1d89:	049916        	beqz	a9, 0x1dd6
    1d8c:	292a      	add.n	a2, a9, a2
    1d8e:	0a0c      	movi.n	a10, 0
    1d90:	11c8      	l32i.n	a12, a1, 4
    1d92:	01e8      	l32i.n	a14, a1, 0
    1d94:	1c88      	l32i.n	a8, a12, 4
    1d96:	31f8      	l32i.n	a15, a1, 12
    1d98:	08f9      	s32i.n	a15, a8, 0
    1d9a:	0cd8      	l32i.n	a13, a12, 0
    1d9c:	0ed9      	s32i.n	a13, a14, 0
    1d9e:	2ca9      	s32i.n	a10, a12, 8
    1da0:	1ca9      	s32i.n	a10, a12, 4
    1da2:	0ca9      	s32i.n	a10, a12, 0
    1da4:	9b98      	l32i.n	a9, a11, 36
    1da6:	c09920        	sub	a9, a9, a2
    1da9:	9b99      	s32i.n	a9, a11, 36
    1dab:	f01d      	excw
    1dad:	0349      	s32i.n	a4, a3, 0
    1daf:	6fe406        	j	0x1dd43
    1db2:	758105        	call0	0x775c4
    1db5:	21d8      	l32i.n	a13, a1, 8
    1db7:	6f          	.byte 0x6f
    1db8:	464304        	excw
    1dbb:	9cfff0        	excw
    1dbe:	f8c9      	s32i.n	a12, a8, 60
    1dc0:	992a11        	l32r	a1, 0xfffe8268
    1dc3:	1ff8      	l32i.n	a15, a15, 4
    1dc5:	31e8      	l32i.n	a14, a1, 12
    1dc7:	0fe9      	s32i.n	a14, a15, 0
    1dc9:	1128      	l32i.n	a2, a1, 4
    1dcb:	2299      	s32i.n	a9, a2, 8
    1dcd:	1249      	s32i.n	a4, a2, 4
    1dcf:	020c      	movi.n	a2, 0
    1dd1:	fff346        	j	0x1da2
    1dd4:	0198      	l32i.n	a9, a1, 0
    1dd6:	3188      	l32i.n	a8, a1, 12
    1dd8:	0989      	s32i.n	a8, a9, 0
    1dda:	fff106        	j	0x1da2
    1ddd:	029d      	mov.n	a9, a2
    1ddf:	11c8      	l32i.n	a12, a1, 4
    1de1:	31a8      	l32i.n	a10, a1, 12
    1de3:	0ca9      	s32i.n	a10, a12, 0
    1de5:	6ff806        	j	0x1ddc9
    1de8:	5ca705        	call0	0x5e85c
    1deb:	b05b81        	l32r	a8, 0xfffedf58
    1dee:	029d      	mov.n	a9, a2
    1df0:	0888      	l32i.n	a8, a8, 0
    1df2:	90b220        	addx2	a11, a2, a2
    1df5:	a08b80        	addx4	a8, a11, a8
    1df8:	11bbe0        	slli	a11, a11, 2
    1dfb:	b888      	l32i.n	a8, a8, 44
    1dfd:	2189      	s32i.n	a8, a1, 8
    1dff:	1888      	l32i.n	a8, a8, 4
    1e01:	11b9      	s32i.n	a11, a1, 4
    1e03:	988c      	beqz.n	a8, 0x1e10
    1e05:	6f          	.byte 0x6f
    1e06:	930b      	addi.n	a9, a3, -1
    1e08:	5e7176        	excw
    1e0b:	5c61b0        	excw
    1e0e:	3199b0        	srai	a9, a11, 25
    1e11:	0d0c      	movi.n	a13, 0
    1e13:	13e8      	l32i.n	a14, a3, 4
    1e15:	21c8      	l32i.n	a12, a1, 8
    1e17:	41f830        	srli	a15, a3, 8
    1e1a:	4128f0        	srli	a2, a15, 8
    1e1d:	414820        	srli	a4, a2, 8
    1e20:	0d4cf2        	s8i	a15, a12, 13
    1e23:	0c4c32        	s8i	a3, a12, 12
    1e26:	0f4c42        	s8i	a4, a12, 15
    1e29:	0e4c22        	s8i	a2, a12, 14
    1e2c:	b05f41        	l32r	a4, 0xfffedfa8
    1e2f:	120c      	movi.n	a2, 1
    1e31:	10ee40        	and	a14, a14, a4
    1e34:	1ce9      	s32i.n	a14, a12, 4
    1e36:	0358      	l32i.n	a5, a3, 0
    1e38:	03d9      	s32i.n	a13, a3, 0
    1e3a:	0c3d      	mov.n	a3, a12
    1e3c:	05f516        	beqz	a5, 0x1e9f
    1e3f:	221b      	addi.n	a2, a2, 1
    1e41:	ffce65        	excw
    1e44:	0f0c      	movi.n	a15, 0
    1e46:	6f          	.byte 0x6f
    1e47:	0e          	.byte 0xe
    1e48:	9e          	.byte 0x9e
    1e49:	501d07        	beq	a13, a0, 0x1e9d
    1e4c:	4198      	l32i.n	a9, a1, 16
    1e4e:	1588      	l32i.n	a8, a5, 4
    1e50:	0c4a52        	s8i	a5, a10, 12
    1e53:	41b890        	srli	a11, a9, 8
    1e56:	0e4ab2        	s8i	a11, a10, 14
    1e59:	0d4a92        	s8i	a9, a10, 13
    1e5c:	108840        	and	a8, a8, a4
    1e5f:	41c8b0        	srli	a12, a11, 8
    1e62:	0f4ac2        	s8i	a12, a10, 15
    1e65:	1a89      	s32i.n	a8, a10, 4
    1e67:	05e8      	l32i.n	a14, a5, 0
    1e69:	0c0c      	movi.n	a12, 0
    1e6b:	83cde0        	moveqz	a12, a13, a14
    1e6e:	0415d2        	l16ui	a13, a5, 8
    1e71:	01cc20        	slli	a12, a12, 30
    1e74:	10cc70        	and	a12, a12, a7
    1e77:	b4d0d0        	extui	a13, a13, 0, 12
    1e7a:	20ccd0        	or	a12, a12, a13
    1e7d:	20cc60        	or	a12, a12, a6
    1e80:	0020c0        	memw
    1e83:	0ac9      	s32i.n	a12, a10, 0
    1e85:	10ba40        	and	a11, a10, a4
    1e88:	23b9      	s32i.n	a11, a3, 8
    1e8a:	0a3d      	mov.n	a3, a10
    1e8c:	3a98      	l32i.n	a9, a10, 12
    1e8e:	0558      	l32i.n	a5, a5, 0
    1e90:	09f9      	s32i.n	a15, a9, 0
    1e92:	f9f556        	bnez	a5, 0x1e35
    1e95:	3158      	l32i.n	a5, a1, 12
    1e97:	1a0c      	movi.n	a10, 1
    1e99:	05bd      	mov.n	a11, a5
    1e9b:	ffd0e5        	excw
    1e9e:	21b8      	l32i.n	a11, a1, 8
    1ea0:	11c8      	l32i.n	a12, a1, 4
    1ea2:	b05bd1        	l32r	a13, 0xfffee010
    1ea5:	10ea40        	and	a14, a10, a4
    1ea8:	23e9      	s32i.n	a14, a3, 8
    1eaa:	0a8a47        	bany	a10, a4, 0x1eb8
    1ead:	056ff1        	l32r	a15, 0xfffc346c
    1eb0:	6f          	.byte 0x6f
    1eb1:	6f          	.byte 0x6f
    1eb2:	5b8405        	call0	0x5d6f4
    1eb5:	c083b0        	sub	a8, a3, a11
    1eb8:	1f0c      	movi.n	a15, 1
    1eba:	0e0c      	movi.n	a14, 0
    1ebc:	83ef80        	moveqz	a14, a15, a8
    1ebf:	3bf8      	l32i.n	a15, a11, 12
    1ec1:	01ee20        	slli	a14, a14, 30
    1ec4:	041ff2        	l16ui	a15, a15, 8
    1ec7:	10ee70        	and	a14, a14, a7
    1eca:	b4f0f0        	extui	a15, a15, 0, 12
    1ecd:	20eef0        	or	a14, a14, a15
    1ed0:	6fee60        	excw
    1ed3:	e95604        	excw
    1ed6:	c00b      	addi.n	a12, a0, -1
    1ed8:	e111a5        	excw
    1edb:	a2b060        	excw
    1ede:	14ca      	add.n	a1, a4, a12
    1ee0:	20aae0        	or	a10, a10, a14
    1ee3:	4e0c      	movi.n	a14, 4
    1ee5:	6f          	.byte 0x6f
    1ee6:	0a1304        	excw
    1ee9:	0020c0        	memw
    1eec:	0d98      	l32i.n	a9, a13, 0
    1eee:	99ca      	add.n	a9, a9, a12
    1ef0:	c988      	l32i.n	a8, a9, 48
    1ef2:	0aa8      	l32i.n	a10, a10, 0
    1ef4:	882a      	add.n	a8, a8, a2
    1ef6:	c989      	s32i.n	a8, a9, 48
    1ef8:	6f          	.byte 0x6f
    1ef9:	148a05        	call0	0x1679c
    1efc:	1129      	s32i.n	a2, a1, 4
    1efe:	b00771        	l32r	a7, 0xfffedf1c
    1f01:	b05ba1        	l32r	a10, 0xfffee070
    1f04:	909220        	addx2	a9, a2, a2
    1f07:	0ad8      	l32i.n	a13, a10, 0
    1f09:	11c9e0        	slli	a12, a9, 2
    1f0c:	a099d0        	addx4	a9, a9, a13
    1f0f:	8998      	l32i.n	a9, a9, 32
    1f11:	90d2d0        	addx2	a13, a2, a13
    1f14:	1988      	l32i.n	a8, a9, 4
    1f16:	0c1dd2        	l16ui	a13, a13, 24
    1f19:	6f          	.byte 0x6f
    1f1a:	820d      	excw
    1f1c:	992d      	excw
    1f1e:	21c931        	l32r	a3, 0xfffca644
    1f21:	0e0c      	movi.n	a14, 0
    1f23:	412830        	srli	a2, a3, 8
    1f26:	13f8      	l32i.n	a15, a3, 4
    1f28:	0c4932        	s8i	a3, a9, 12
    1f2b:	414820        	srli	a4, a2, 8
    1f2e:	415840        	srli	a5, a4, 8
    1f31:	0d4922        	s8i	a2, a9, 13
    1f34:	0e4942        	s8i	a4, a9, 14
    1f37:	120c      	movi.n	a2, 1
    1f39:	b05f41        	l32r	a4, 0xfffee0b8
    1f3c:	0f4952        	s8i	a5, a9, 15
    1f3f:	10ff40        	and	a15, a15, a4
    1f42:	19f9      	s32i.n	a15, a9, 4
    1f44:	0358      	l32i.n	a5, a3, 0
    1f46:	b05cf1        	l32r	a15, 0xfffee0b8
    1f49:	03e9      	s32i.n	a14, a3, 0
    1f4b:	093d      	mov.n	a3, a9
    1f4d:	b061e1        	l32r	a14, 0xfffee0d4
    1f50:	053516        	beqz	a5, 0x1fa7
    1f53:	116d40        	slli	a6, a13, 12
    1f56:	1066e0        	and	a6, a6, a14
    1f59:	2066f0        	or	a6, a6, a15
    1f5c:	221b      	addi.n	a2, a2, 1
    1f5e:	ffbb25        	excw
    1f61:	090c      	movi.n	a9, 0
    1f63:	cacc      	bnez.n	a10, 0x1f73
    1f65:	6fd782        	addmi	a8, a7, 0x6f00
    1f68:	840c      	movi.n	a4, 8
    1f6a:	502b      	addi.n	a5, a0, 2
    1f6c:	41e8      	l32i.n	a14, a1, 16
    1f6e:	15d8      	l32i.n	a13, a5, 4
    1f70:	0c4a52        	s8i	a5, a10, 12
    1f73:	41f8e0        	srli	a15, a14, 8
    1f76:	0e4af2        	s8i	a15, a10, 14
    1f79:	0d4ae2        	s8i	a14, a10, 13
    1f7c:	10dd40        	and	a13, a13, a4
    1f7f:	4188f0        	srli	a8, a15, 8
    1f82:	0f4a82        	s8i	a8, a10, 15
    1f85:	1ad9      	s32i.n	a13, a10, 4
    1f87:	0020c0        	memw
    1f8a:	0a69      	s32i.n	a6, a10, 0
    1f8c:	10ca40        	and	a12, a10, a4
    1f8f:	23c9      	s32i.n	a12, a3, 8
    1f91:	0a3d      	mov.n	a3, a10
    1f93:	3ab8      	l32i.n	a11, a10, 12
    1f95:	0558      	l32i.n	a5, a5, 0
    1f97:	0b99      	s32i.n	a9, a11, 0
    1f99:	fb7556        	bnez	a5, 0x1f54
    1f9c:	000206        	j	0x1fa8
    1f9f:	6f          	.byte 0x6f
    1fa0:	5409      	s32i.n	a0, a4, 20
    1fa2:	1158      	l32i.n	a5, a1, 4
    1fa4:	0a0c      	movi.n	a10, 0
    1fa6:	05bd      	mov.n	a11, a5
    1fa8:	ffbe65        	excw
    1fab:	31b8      	l32i.n	a11, a1, 12
    1fad:	21c8      	l32i.n	a12, a1, 8
    1faf:	b05bd1        	l32r	a13, 0xfffee11c
    1fb2:	108a40        	and	a8, a10, a4
    1fb5:	2389      	s32i.n	a8, a3, 8
    1fb7:	0d8a47        	bany	a10, a4, 0x1fc8
    1fba:	6fd792        	addmi	a9, a7, 0x6f00
    1fbd:	900c      	movi.n	a0, 9
    1fbf:	046f47        	bbci	a15, 4, 0x1fc7
    1fc2:	c00b47        	bnone	a11, a4, 0x1f86
    1fc5:	8111f5        	excw
    1fc8:	f2b060        	excw
    1fcb:	cf          	.byte 0xcf
    1fcc:	801c      	movi.n	a0, 24
    1fce:	ff          	.byte 0xff
    1fcf:	480c20        	excw
    1fd2:	0020c0        	memw
    1fd5:	0f89      	s32i.n	a8, a15, 0
    1fd7:	0020c0        	memw
    1fda:	0de8      	l32i.n	a14, a13, 0
    1fdc:	eeca      	add.n	a14, a14, a12
    1fde:	9ea8      	l32i.n	a10, a14, 36
    1fe0:	0ff8      	l32i.n	a15, a15, 0
    1fe2:	aa2a      	add.n	a10, a10, a2
    1fe4:	9ea9      	s32i.n	a10, a14, 36
    1fe6:	6f          	.byte 0x6f
    1fe7:	0c8906        	j	0x520f
    1fea:	6f          	.byte 0x6f
    1feb:	708905        	call0	0x7287c
    1fee:	904240        	addx2	a4, a2, a4
    1ff1:	0c5432        	s16i	a3, a4, 24
    1ff4:	6f          	.byte 0x6f
    1ff5:	0c8c05        	call0	0xe8b8
    1ff8:	b05b31        	l32r	a3, 0xfffee164
    1ffb:	0388      	l32i.n	a8, a3, 0
    1ffd:	020c      	movi.n	a2, 0
    1fff:	3829      	s32i.n	a2, a8, 12
    2001:	4829      	s32i.n	a2, a8, 16
    2003:	5829      	s32i.n	a2, a8, 20
    2005:	ffaee5        	excw
    2008:	0f6f41        	l32r	a4, 0xfffc5dc4
    200b:	c058a2        	s16i	a10, a8, 0x180
    200e:	290020        	excw
    2011:	8b0a      	add.n	a8, a11, a0
    2013:	208a      	add.n	a2, a0, a8
    2015:	41d8      	l32i.n	a13, a1, 16
    2017:	419820        	srli	a9, a2, 8
    201a:	41b890        	srli	a11, a9, 8
    201d:	41e8d0        	srli	a14, a13, 8
    2020:	41f8e0        	srli	a15, a14, 8
    2023:	004822        	s8i	a2, a8, 0
    2026:	41c8b0        	srli	a12, a11, 8
    2029:	0248b2        	s8i	a11, a8, 2
    202c:	0348c2        	s8i	a12, a8, 3
    202f:	014892        	s8i	a9, a8, 1
    2032:	ca4b      	addi.n	a12, a10, 4
    2034:	024ce2        	s8i	a14, a12, 2
    2037:	014cd2        	s8i	a13, a12, 1
    203a:	004c22        	s8i	a2, a12, 0
    203d:	034cf2        	s8i	a15, a12, 3
    2040:	03b8      	l32i.n	a11, a3, 0
    2042:	bba9      	s32i.n	a10, a11, 44
    2044:	aba9      	s32i.n	a10, a11, 40
    2046:	ffaa25        	excw
    2049:	cacc      	bnez.n	a10, 0x2059
    204b:	6fd4d2        	addmi	a13, a4, 0x6f00
    204e:	940c      	movi.n	a4, 9
    2050:	815b      	addi.n	a8, a1, 5
    2052:	5f          	.byte 0x5f
    2053:	2e0cb0        	excw
    2056:	6f          	.byte 0x6f
    2057:	ba5106        	j	0xffff099f
    205a:	41c820        	srli	a12, a2, 8
    205d:	41d8c0        	srli	a13, a12, 8
    2060:	004b22        	s8i	a2, a11, 0
    2063:	41f8d0        	srli	a15, a13, 8
    2066:	034bf2        	s8i	a15, a11, 3
    2069:	014bc2        	s8i	a12, a11, 1
    206c:	024bd2        	s8i	a13, a11, 2
    206f:	ca4b      	addi.n	a12, a10, 4
    2071:	41d820        	srli	a13, a2, 8
    2074:	41f8d0        	srli	a15, a13, 8
    2077:	4198f0        	srli	a9, a15, 8
    207a:	004c22        	s8i	a2, a12, 0
    207d:	034c92        	s8i	a9, a12, 3
    2080:	056ff2        	s32i	a15, a15, 20
    2083:	03b857        	bgeu	a8, a5, 0x208a
    2086:	7ba9      	s32i.n	a10, a11, 28
    2088:	8ba9      	s32i.n	a10, a11, 32
    208a:	abb8      	l32i.n	a11, a11, 40
    208c:	b060c1        	l32r	a12, 0xfffee20c
    208f:	10bb80        	and	a11, a11, a8
    2092:	0020c0        	memw
    2095:	4cb9      	s32i.n	a11, a12, 16
    2097:	b06091        	l32r	a9, 0xfffee218
    209a:	0020c0        	memw
    209d:	59e9      	s32i.n	a14, a9, 20
    209f:	108a80        	and	a8, a10, a8
    20a2:	6f          	.byte 0x6f
    20a3:	890b06        	j	0xfffe44d3
    20a6:	f169      	s32i.n	a6, a1, 60
    20a8:	6f          	.byte 0x6f
    20a9:	7f1306        	j	0x21cf9
    20ac:	6f          	.byte 0x6f
    20ad:	688106        	j	0x1c2b5
    20b0:	030c      	movi.n	a3, 0
    20b2:	1ca352        	movi	a5, 0x31c
    20b5:	b05c71        	l32r	a7, 0xfffee228
    20b8:	b05b61        	l32r	a6, 0xfffee224
    20bb:	dca342        	movi	a4, 0x3dc
    20be:	06c8      	l32i.n	a12, a6, 0
    20c0:	b06221        	l32r	a2, 0xfffee248
    20c3:	fcb8      	l32i.n	a11, a12, 60
    20c5:	6f          	.byte 0x6f
    20c6:	7aa805        	call0	0x7cb48
    20c9:	b089      	s32i.n	a8, a0, 44
    20cb:	20aa      	add.n	a2, a0, a10
    20cd:	028a47        	bany	a10, a4, 0x20d3
    20d0:	002d06        	j	0x2188
    20d3:	1805a7        	bnone	a5, a10, 0x20ef
    20d6:	162cb2        	l32i	a11, a12, 88
    20d9:	190c      	movi.n	a9, 1
    20db:	bb8c      	beqz.n	a11, 0x20ea
    20dd:	000be0        	excw
    20e0:	1b0c      	movi.n	a11, 1
    20e2:	090c      	movi.n	a9, 0
    20e4:	839ba0        	moveqz	a9, a11, a10
    20e7:	ffffc6        	j	0x20ea
    20ea:	092956        	bnez	a9, 0x2180
    20ed:	06c8      	l32i.n	a12, a6, 0
    20ef:	6f          	.byte 0x6f
    20f0:	962b05        	call0	0xfff983a4
    20f3:	1f6a77        	bbci	a10, 7, 0x2116
    20f6:	6f          	.byte 0x6f
    20f7:	a00904        	excw
    20fa:	62a280        	excw
    20fd:	c089      	s32i.n	a8, a0, 48
    20ff:	a80020        	excw
    2102:	922c      	movi.n	a2, 41
    2104:	888922        	excw
    2107:	6f0c      	movi.n	a15, 6
    2109:	28ab05        	call0	0x2abbc
    210c:	0020c0        	memw
    210f:	06c8      	l32i.n	a12, a6, 0
    2111:	8922a2        	l32i	a10, a2, 0x224
    2114:	fcb8      	l32i.n	a11, a12, 60
    2116:	20dba0        	or	a13, a11, a10
    2119:	516d67        	bbci	a13, 6, 0x216e
    211c:	0020c0        	memw
    211f:	0e4c      	movi.n	a14, 64
    2121:	056fe2        	s32i	a14, a15, 20
    2124:	0d2c27        	blt	a12, a2, 0x2135
    2127:	056fd2        	s32i	a13, a15, 20
    212a:	b208      	l32i.n	a0, a2, 44
    212c:	046f22        	s32i	a2, a15, 16
    212f:	0b0c06        	j	0x4d63
    2132:	b063a1        	l32r	a10, 0xfffee2c0
    2135:	01a192        	movi	a9, 0x101
    2138:	1c88      	l32i.n	a8, a12, 4
    213a:	836a92        	s32i	a9, a10, 0x20c
    213d:	2ca8      	l32i.n	a10, a12, 8
    213f:	0008e0        	excw
    2142:	06c8      	l32i.n	a12, a6, 0
    2144:	0d4c      	movi.n	a13, 64
    2146:	7ca8      	l32i.n	a10, a12, 28
    2148:	090c      	movi.n	a9, 0
    214a:	0af8      	l32i.n	a15, a10, 0
    214c:	fcb8      	l32i.n	a11, a12, 60
    214e:	0487f7        	bany	a7, a15, 0x2156
    2151:	8c88      	l32i.n	a8, a12, 32
    2153:	0298a7        	bne	a8, a10, 0x2159
    2156:	000046        	j	0x215b
    2159:	190c      	movi.n	a9, 1
    215b:	bfafa2        	movi	a10, -65
    215e:	10aba0        	and	a10, a11, a10
    2161:	20bbd0        	or	a11, a11, a13
    2164:	83ba90        	moveqz	a11, a10, a9
    2167:	fcb9      	s32i.n	a11, a12, 60
    2169:	ecd8      	l32i.n	a13, a12, 56
    216b:	331b      	addi.n	a3, a3, 1
    216d:	022d37        	blt	a13, a3, 0x2173
    2170:	ffd1c6        	j	0x20bb
    2173:	220c      	movi.n	a2, 2
    2175:	f01d      	excw
    2177:	0e0c      	movi.n	a14, 0
    2179:	0020c0        	memw
    217c:	8a62e2        	s32i	a14, a2, 0x228
    217f:	120c      	movi.n	a2, 1
    2181:	6f          	.byte 0x6f
    2182:	0ca406        	j	0x5416
    2185:	82b000        	mull	a11, a0, a0
    2188:	1328      	l32i.n	a2, a3, 4
    218a:	6f          	.byte 0x6f
    218b:	6cb705        	call0	0x6ecfc
    218e:	02bd      	mov.n	a11, a2
    2190:	41a4a0        	srli	a10, a10, 4
    2193:	6f          	.byte 0x6f
    2194:	66b006        	j	0x1bc58
    2197:	03a9      	s32i.n	a10, a3, 0
    2199:	0abd      	mov.n	a11, a10
    219b:	bb1b      	addi.n	a11, a11, 1
    219d:	11a5b0        	slli	a10, a5, 5
    21a0:	6f          	.byte 0x6f
    21a1:	bd0f06        	j	0xffff15e1
    21a4:	076f02        	s32i	a0, a15, 28
    21a7:	0a08      	l32i.n	a0, a10, 0
    21a9:	b05da1        	l32r	a10, 0xfffee320
    21ac:	6f          	.byte 0x6f
    21ad:	042207        	blt	a2, a0, 0x21b5
    21b0:	6f          	.byte 0x6f
    21b1:	208206        	j	0xa3bd
    21b4:	b00eb1        	l32r	a11, 0xfffee1ec
    21b7:	b06361        	l32r	a6, 0xfffee344
    21ba:	0020c0        	memw
    21bd:	b064d1        	l32r	a13, 0xfffee350
    21c0:	802ba2        	l32i	a10, a11, 0x200
    21c3:	20dad0        	or	a13, a10, a13
    21c6:	0020c0        	memw
    21c9:	806bd2        	s32i	a13, a11, 0x200
    21cc:	b065c1        	l32r	a12, 0xfffee360
    21cf:	10aac0        	and	a10, a10, a12
    21d2:	0020c0        	memw
    21d5:	806ba2        	s32i	a10, a11, 0x200
    21d8:	090c      	movi.n	a9, 0
    21da:	0020c0        	memw
    21dd:	68a072        	movi	a7, 104
    21e0:	846692        	s32i	a9, a6, 0x210
    21e3:	1288      	l32i.n	a8, a2, 4
    21e5:	854c      	movi.n	a5, 72
    21e7:	835780        	moveqz	a5, a7, a8
    21ea:	6f6271        	l32r	a7, 0xfffddf74
    21ed:	523304        	excw
    21f0:	0c8166        	bnei	a1, 8, 0x2200
    21f3:	056f14        	excw
    21f6:	17ab      	addi.n	a1, a7, 10
    21f8:	388c      	beqz.n	a8, 0x21ff
    21fa:	06e112        	excw
    21fd:	838cb0        	moveqz	a8, a12, a11
    2200:	6f          	.byte 0x6f
    2201:	8a08      	l32i.n	a0, a10, 32
    2203:	f01d62        	l16ui	a6, a13, 0x1e0
    2206:	1f2c      	movi.n	a15, 33
    2208:	0020c0        	memw
    220b:	6f67f2        	s32i	a15, a7, 0x1bc
    220e:	7b8c05        	call0	0x7dad0
    2211:	6f          	.byte 0x6f
    2212:	088305        	call0	0xaa44
    2215:	066f22        	s32i	a2, a15, 24
    2218:	5b2170        	excw
    221b:	0288b0        	excw
    221e:	132882        	l32i	a8, a8, 76
    2221:	6f          	.byte 0x6f
    2222:	108f05        	call0	0x12b14
    2225:	6f          	.byte 0x6f
    2226:	110a04        	excw
    2229:	0008e0        	excw
    222c:	02c8      	l32i.n	a12, a2, 0
    222e:	102ca2        	l32i	a10, a12, 64
    2231:	1b0c      	movi.n	a11, 1
    2233:	20aab0        	or	a10, a10, a11
    2236:	106ca2        	s32i	a10, a12, 64
    2239:	ffa192        	movi	a9, 0x1ff
    223c:	b00041        	l32r	a4, 0xfffee23c
    223f:	056f31        	l32r	a3, 0xfffc37fc
    2242:	639262        	l16si	a6, a2, 198
    2245:	b288      	l32i.n	a8, a2, 44
    2247:	122c      	movi.n	a2, 33
    2249:	1f2482        	l32i	a8, a4, 124
    224c:	da0c      	movi.n	a10, 13
    224e:	6f          	.byte 0x6f
    224f:	0c2705        	call0	0xe4c0
    2252:	82da      	add.n	a8, a2, a13
    2254:	b12124        	excw
    2257:	e0b066        	bnei	a0, 16, 0x223b
    225a:	0008      	l32i.n	a0, a0, 0
    225c:	dca392        	movi	a9, 0x3dc
    225f:	6f          	.byte 0x6f
    2260:	8a2105        	call0	0xfff8c474
    2263:	242482        	l32i	a8, a4, 144
    2266:	6f          	.byte 0x6f
    2267:	6f1e05        	call0	0x71448
    226a:	6f6006        	j	0x1dfee
    226d:	9408      	l32i.n	a0, a4, 36
    226f:	12a200        	excw
    2272:	129202        	l16si	a0, a2, 36
    2275:	080c03        	excw
    2278:	0189      	s32i.n	a8, a1, 0
    227a:	1189      	s32i.n	a8, a1, 4
    227c:	5adc      	bnez.n	a10, 0x2295
    227e:	39dc      	bnez.n	a9, 0x2295
    2280:	b05b81        	l32r	a8, 0xfffee3ec
    2283:	02a8      	l32i.n	a10, a2, 0
    2285:	0888      	l32i.n	a8, a8, 0
    2287:	01bd      	mov.n	a11, a1
    2289:	172882        	l32i	a8, a8, 92
    228c:	c14b      	addi.n	a12, a1, 4
    228e:	0008e0        	excw
    2291:	1198      	l32i.n	a9, a1, 4
    2293:	01a8      	l32i.n	a10, a1, 0
    2295:	f4b090        	extui	a11, a9, 0, 16
    2298:	b067d1        	l32r	a13, 0xfffee434
    229b:	11ca00        	slli	a12, a10, 16
    229e:	10ccd0        	and	a12, a12, a13
    22a1:	20bbc0        	or	a11, a11, a12
    22a4:	056fc1        	l32r	a12, 0xfffc3860
    22a7:	b20982        	l8ui	a8, a9, 178
    22aa:	826c      	movi.n	a2, -24
    22ac:	6f          	.byte 0x6f
    22ad:	308e07        	bany	a14, a0, 0x22e1
    22b0:	b05b41        	l32r	a4, 0xfffee41c
    22b3:	04a8      	l32i.n	a10, a4, 0
    22b5:	b00031        	l32r	a3, 0xfffee2b8
    22b8:	aacc      	bnez.n	a10, 0x22c6
    22ba:	6f          	.byte 0x6f
    22bb:	45c205        	call0	0x47edc
    22be:	6f60a0        	excw
    22c1:	388205        	call0	0x3aae4
    22c4:	b06cb1        	l32r	a11, 0xfffee474
    22c7:	b06d91        	l32r	a9, 0xfffee47c
    22ca:	b06bc1        	l32r	a12, 0xfffee478
    22cd:	b06ad1        	l32r	a13, 0xfffee478
    22d0:	b069e1        	l32r	a14, 0xfffee474
    22d3:	b068f1        	l32r	a15, 0xfffee474
    22d6:	176af2        	s32i	a15, a10, 92
    22d9:	156ae2        	s32i	a14, a10, 84
    22dc:	146ad2        	s32i	a13, a10, 80
    22df:	136ac2        	s32i	a12, a10, 76
    22e2:	116a92        	s32i	a9, a10, 68
    22e5:	126ab2        	s32i	a11, a10, 72
    22e8:	02bd      	mov.n	a11, a2
    22ea:	3b2382        	l32i	a8, a3, 236
    22ed:	cc0c      	movi.n	a12, 12
    22ef:	6f          	.byte 0x6f
    22f0:	9b0b      	addi.n	a9, a11, -1
    22f2:	6e9150        	excw
    22f5:	7031b0        	excw
    22f8:	76a1b0        	excw
    22fb:	75b1b0        	extui	a11, a11, 17, 8
    22fe:	74c1b0        	extui	a12, a11, 1, 8
    2301:	73d1b0        	excw
    2304:	72e1b0        	excw
    2307:	71f1b0        	excw
    230a:	6f81b0        	excw
    230d:	89b000        	excw
    2310:	82a912        	movi	a1, 0xfffff982
    2313:	32b9      	s32i.n	a11, a2, 12
    2315:	72c9      	s32i.n	a12, a2, 28
    2317:	62d9      	s32i.n	a13, a2, 24
    2319:	52e9      	s32i.n	a14, a2, 20
    231b:	42f9      	s32i.n	a15, a2, 16
    231d:	0299      	s32i.n	a9, a2, 0
    231f:	2239      	s32i.n	a3, a2, 8
    2321:	b07781        	l32r	a8, 0xfffee500
    2324:	a289      	s32i.n	a8, a2, 40
    2326:	b07831        	l32r	a3, 0xfffee508
    2329:	b05b91        	l32r	a9, 0xfffee498
    232c:	b299      	s32i.n	a9, a2, 44
    232e:	9239      	s32i.n	a3, a2, 36
    2330:	6f          	.byte 0x6f
    2331:	8108      	l32i.n	a0, a1, 32
    2333:	025d54        	excw
    2336:	040c      	movi.n	a4, 0
    2338:	b07931        	l32r	a3, 0xfffee51c
    233b:	c29c      	beqz.n	a2, 0x235b
    233d:	b00061        	l32r	a6, 0xfffee340
    2340:	6588      	l32i.n	a8, a5, 24
    2342:	204542        	s8i	a4, a5, 32
    2345:	0d3826        	beqi	a8, 3, 0x2356
    2348:	45a8      	l32i.n	a10, a5, 16
    234a:	15a9      	s32i.n	a10, a5, 4
    234c:	03b8      	l32i.n	a11, a3, 0
    234e:	f688      	l32i.n	a8, a6, 60
    2350:	149bb2        	l16si	a11, a11, 40
    2353:	0008e0        	excw
    2356:	0558      	l32i.n	a5, a5, 0
    2358:	fe4556        	bnez	a5, 0x2340
    235b:	6298      	l32i.n	a9, a2, 24
    235d:	b03ac1        	l32r	a12, 0xfffee448
    2360:	06f916        	beqz	a9, 0x23d3
    2363:	781926        	beqi	a9, 1, 0x23df
    2366:	b00751        	l32r	a5, 0xfffee384
    2369:	262926        	beqi	a9, 2, 0x2393
    236c:	0c3926        	beqi	a9, 3, 0x237c
    236f:	6f          	.byte 0x6f
    2370:	9b0b      	addi.n	a9, a11, -1
    2372:	1d6c      	movi.n	a13, -31
    2374:	42b8f0        	excw
    2377:	5b8c      	beqz.n	a11, 0x2380
    2379:	52a8      	l32i.n	a10, a2, 20
    237b:	000be0        	excw
    237e:	4249      	s32i.n	a4, a2, 16
    2380:	0388      	l32i.n	a8, a3, 0
    2382:	222882        	l32i	a8, a8, 136
    2385:	6f          	.byte 0x6f
    2386:	109007        	bne	a0, a0, 0x239a
    2389:	02bd      	mov.n	a11, a2
    238b:	992c82        	l32i	a8, a12, 0x264
    238e:	6f          	.byte 0x6f
    238f:	719b05        	call0	0x73d40
    2392:	03c8      	l32i.n	a12, a3, 0
    2394:	129c92        	l16si	a9, a12, 36
    2397:	c099a0        	sub	a9, a9, a10
    239a:	11b900        	slli	a11, a9, 16
    239d:	31b0b0        	srai	a11, a11, 16
    23a0:	125cb2        	s16i	a11, a12, 36
    23a3:	0d69f7        	bbci	a9, 15, 0x23b4
    23a6:	6fd5b2        	addmi	a11, a5, 0x6f00
    23a9:	8e0c      	movi.n	a14, 8
    23ab:	056f55        	excw
    23ae:	9f          	.byte 0x9f
    23af:	6f38      	l32i.n	a3, a15, 24
    23b1:	420904        	excw
    23b4:	a969      	s32i.n	a6, a9, 40
    23b6:	0020c0        	memw
    23b9:	a929c2        	l32i	a12, a9, 0x2a4
    23bc:	6f          	.byte 0x6f
    23bd:	a74006        	j	0xfffec0c1
    23c0:	6f          	.byte 0x6f
    23c1:	5d9d07        	bne	a13, a0, 0x2422
    23c4:	6f          	.byte 0x6f
    23c5:	0c0c      	movi.n	a12, 0
    23c7:	6f          	.byte 0x6f
    23c8:	44b406        	j	0x1369c
    23cb:	b079      	s32i.n	a7, a0, 44
    23cd:	0528      	l32i.n	a2, a5, 0
    23cf:	109222        	l16si	a2, a2, 32
    23d2:	6f          	.byte 0x6f
    23d3:	5e9e05        	call0	0x60db4
    23d6:	03ad24        	excw
    23d9:	a42482        	l32i	a8, a4, 0x290
    23dc:	6f          	.byte 0x6f
    23dd:	5e9e05        	call0	0x60dc0
    23e0:	7a9c      	beqz.n	a10, 0x23fb
    23e2:	c022a0        	sub	a2, a2, a10
    23e5:	0588      	l32i.n	a8, a5, 0
    23e7:	6f          	.byte 0x6f
    23e8:	569e05        	call0	0x58dcc
    23eb:	1428b2        	l32i	a11, a8, 80
    23ee:	242882        	l32i	a8, a8, 144
    23f1:	312020        	srai	a2, a2, 16
    23f4:	0008e0        	excw
    23f7:	6ff5c6        	j	0x1e3d2
    23fa:	549e06        	j	0x17676
    23fd:	b07941        	l32r	a4, 0xfffee5e4
    2400:	0c0c      	movi.n	a12, 0
    2402:	04d8      	l32i.n	a13, a4, 0
    2404:	b006a1        	l32r	a10, 0xfffee41c
    2407:	5d88      	l32i.n	a8, a13, 20
    2409:	1398      	l32i.n	a9, a3, 4
    240b:	48cc      	bnez.n	a8, 0x2413
    240d:	0009c2        	l8ui	a12, a9, 0
    2410:	0001c6        	j	0x241b
    2413:	6f          	.byte 0x6f
    2414:	9608      	l32i.n	a0, a6, 36
    2416:	9df254        	excw
    2419:	9a0c      	movi.n	a10, 9
    241b:	ff          	.byte 0xff
    241c:	13f9      	s32i.n	a15, a3, 4
    241e:	04d8      	l32i.n	a13, a4, 0
    2420:	0413b2        	l16ui	a11, a3, 8
    2423:	0c9de2        	l16si	a14, a13, 24
    2426:	4da8      	l32i.n	a10, a13, 16
    2428:	c0bbe0        	sub	a11, a11, a14
    242b:	0453b2        	s16i	a11, a3, 8
    242e:	a28c      	beqz.n	a2, 0x243c
    2430:	0d88      	l32i.n	a8, a13, 0
    2432:	03bd      	mov.n	a11, a3
    2434:	0008e0        	excw
    2437:	0a2d      	mov.n	a2, a10
    2439:	000206        	j	0x2445
    243c:	1d88      	l32i.n	a8, a13, 4
    243e:	6f          	.byte 0x6f
    243f:	b80c07        	bnone	a12, a0, 0x23fb
    2442:	13a804        	excw
    2445:	0c9bb2        	l16si	a11, a11, 24
    2448:	c0aab0        	sub	a10, a10, a11
    244b:	13a9      	s32i.n	a10, a3, 4
    244d:	0498      	l32i.n	a9, a4, 0
    244f:	0413a2        	l16ui	a10, a3, 8
    2452:	0c9992        	l16si	a9, a9, 24
    2455:	99aa      	add.n	a9, a9, a10
    2457:	045392        	s16i	a9, a3, 8
    245a:	6f          	.byte 0x6f
    245b:	248107        	bany	a1, a0, 0x2483
    245e:	b07a81        	l32r	a8, 0xfffee648
    2461:	3888      	l32i.n	a8, a8, 12
    2463:	6f          	.byte 0x6f
    2464:	358105        	call0	0x37c78
    2467:	6f          	.byte 0x6f
    2468:	2e8105        	call0	0x30c7c
    246b:	b03a41        	l32r	a4, 0xfffee554
    246e:	0f9222        	l16si	a2, a2, 30
    2471:	160c      	movi.n	a6, 1
    2473:	6912a6        	blti	a2, 1, 0x24e0
    2476:	03ad      	mov.n	a10, a3
    2478:	a62482        	l32i	a8, a4, 0x298
    247b:	6f          	.byte 0x6f
    247c:	308105        	call0	0x32c90
    247f:	05ca16        	beqz	a10, 0x24df
    2482:	6f          	.byte 0x6f
    2483:	a008      	l32i.n	a0, a0, 40
    2485:	985c      	movi.n	a8, 89
    2487:	200a      	add.n	a2, a0, a0
    2489:	8c3120        	excw
    248c:	ad59      	s32i.n	a5, a13, 40
    248e:	6f          	.byte 0x6f
    248f:	63b806        	j	0x1b373
    2492:	200a92        	l8ui	a9, a10, 32
    2495:	209960        	or	a9, a9, a6
    2498:	204a92        	s8i	a9, a10, 32
    249b:	05c8      	l32i.n	a12, a5, 0
    249d:	0c88      	l32i.n	a8, a12, 0
    249f:	0a0c      	movi.n	a10, 0
    24a1:	d88c      	beqz.n	a8, 0x24b2
    24a3:	1a0c      	movi.n	a10, 1
    24a5:	1c2c82        	l32i	a8, a12, 112
    24a8:	6fb8      	l32i.n	a11, a15, 24
    24aa:	c83404        	excw
    24ad:	ffc605        	call0	0x2110
    24b0:	ff          	.byte 0xff
    24b1:	dc98      	l32i.n	a9, a12, 52
    24b3:	062926        	beqi	a9, 2, 0x24bd
    24b6:	3acc      	bnez.n	a10, 0x24bd
    24b8:	b90b      	addi.n	a11, a9, -1
    24ba:	83a6b0        	moveqz	a10, a6, a11
    24bd:	01b8      	l32i.n	a11, a1, 0
    24bf:	0a1a66        	bnei	a10, 1, 0x24cd
    24c2:	142c82        	l32i	a8, a12, 80
    24c5:	0bad      	mov.n	a10, a11
    24c7:	0008e0        	excw
    24ca:	ffe746        	j	0x246b
    24cd:	6f2482        	l32i	a8, a4, 0x1bc
    24d0:	15a006        	j	0x7b54
    24d3:	6fe486        	j	0x1e469
    24d6:	109507        	bne	a5, a0, 0x24ea
    24d9:	710061        	l32r	a6, 0xfffde8dc
    24dc:	b079      	s32i.n	a7, a0, 44
    24de:	0728      	l32i.n	a2, a7, 0
    24e0:	0e9222        	l16si	a2, a2, 28
    24e3:	b03a61        	l32r	a6, 0xfffee5cc
    24e6:	5012a6        	blti	a2, 1, 0x253a
    24e9:	0a0c      	movi.n	a10, 0
    24eb:	6f2682        	l32i	a8, a6, 0x1bc
    24ee:	5ba106        	j	0x19376
    24f1:	043a16        	beqz	a10, 0x2538
    24f4:	0198      	l32i.n	a9, a1, 0
    24f6:	c022a0        	sub	a2, a2, a10
    24f9:	6f          	.byte 0x6f
    24fa:	5ca106        	j	0x19782
    24fd:	09bd      	mov.n	a11, a9
    24ff:	095d      	mov.n	a5, a9
    2501:	6948      	l32i.n	a4, a9, 24
    2503:	fdb916        	beqz	a9, 0x24e2
    2506:	0b38      	l32i.n	a3, a11, 0
    2508:	839c      	beqz.n	a3, 0x2524
    250a:	6388      	l32i.n	a8, a3, 24
    250c:	1e1847        	beq	a8, a4, 0x252e
    250f:	05ad      	mov.n	a10, a5
    2511:	0788      	l32i.n	a8, a7, 0
    2513:	090c      	movi.n	a9, 0
    2515:	142882        	l32i	a8, a8, 80
    2518:	6f99      	s32i.n	a9, a15, 24
    251a:	5d5c04        	excw
    251d:	634803        	excw
    2520:	000246        	j	0x252d
    2523:	0788      	l32i.n	a8, a7, 0
    2525:	142882        	l32i	a8, a8, 80
    2528:	6f          	.byte 0x6f
    2529:	4caa05        	call0	0x4efcc
    252c:	03bd      	mov.n	a11, a3
    252e:	fd2356        	bnez	a3, 0x2504
    2531:	6feac6        	j	0x1e4e0
    2534:	6ca106        	j	0x1d7bc
    2537:	6f          	.byte 0x6f
    2538:	708106        	j	0x1e740
    253b:	e01a      	add.n	a14, a0, a1
    253d:	0008      	l32i.n	a0, a0, 0
    253f:	b07941        	l32r	a4, 0xfffee724
    2542:	b00721        	l32r	a2, 0xfffee560
    2545:	0438      	l32i.n	a3, a4, 0
    2547:	b03a61        	l32r	a6, 0xfffee630
    254a:	0d9332        	l16si	a3, a3, 26
    254d:	170c      	movi.n	a7, 1
    254f:	0213e6        	bgei	a3, 1, 0x2555
    2552:	0049c6        	j	0x267d
    2555:	6f          	.byte 0x6f
    2556:	6f7604        	excw
    2559:	04a206        	j	0x37e5
    255c:	0a9d      	mov.n	a9, a10
    255e:	118a16        	beqz	a10, 0x267a
    2561:	f57c      	movi.n	a5, -1
    2563:	0a0c      	movi.n	a10, 0
    2565:	01d8      	l32i.n	a13, a1, 0
    2567:	04c8      	l32i.n	a12, a4, 0
    2569:	c03390        	sub	a3, a3, a9
    256c:	113300        	slli	a3, a3, 16
    256f:	313030        	srai	a3, a3, 16
    2572:	0c9cb2        	l16si	a11, a12, 24
    2575:	129cf2        	l16si	a15, a12, 36
    2578:	5ce8      	l32i.n	a14, a12, 20
    257a:	ff9a      	add.n	a15, a15, a9
    257c:	125cf2        	s16i	a15, a12, 36
    257f:	0b5e16        	beqz	a14, 0x2638
    2582:	6f          	.byte 0x6f
    2583:	0e          	.byte 0xe
    2584:	4a9a      	add.n	a4, a10, a9
    2586:	000346        	j	0x2597
    2589:	6fd2e2        	addmi	a14, a2, 0x6f00
    258c:	9d0c      	movi.n	a13, 9
    258e:	e808      	l32i.n	a0, a8, 56
    2590:	0b0d      	mov.n	a0, a11
    2592:	8c99      	s32i.n	a9, a12, 32
    2594:	ee          	.byte 0xee
    2595:	149cc2        	l16si	a12, a12, 40
    2598:	045dc2        	s16i	a12, a13, 8
    259b:	0edd      	mov.n	a13, a14
    259d:	0ee8      	l32i.n	a14, a14, 0
    259f:	ff5e56        	bnez	a14, 0x2598
    25a2:	000086        	j	0x25a8
    25a5:	149cc2        	l16si	a12, a12, 40
    25a8:	829c90        	mull	a9, a12, a9
    25ab:	c09b90        	sub	a9, a11, a9
    25ae:	0d19e6        	bgei	a9, 1, 0x25bf
    25b1:	6fd2b2        	addmi	a11, a2, 0x6f00
    25b4:	840c      	movi.n	a4, 8
    25b6:	0df264        	excw
    25b9:	ff7020        	excw
    25bc:	4df220        	excw
    25bf:	04c820        	extui	a12, a2, 8, 1
    25c2:	1ce8      	l32i.n	a14, a12, 4
    25c4:	045d92        	s16i	a9, a13, 8
    25c7:	ae8c      	beqz.n	a14, 0x25d5
    25c9:	0a0c      	movi.n	a10, 0
    25cb:	6f          	.byte 0x6f
    25cc:	8209      	s32i.n	a0, a2, 32
    25ce:	980453        	excw
    25d1:	26dc      	bnez.n	a6, 0x25e7
    25d3:	1129      	s32i.n	a2, a1, 4
    25d5:	1adc      	bnez.n	a10, 0x25ea
    25d7:	041966        	bnei	a9, 1, 0x25df
    25da:	1a0c      	movi.n	a10, 1
    25dc:	0001c6        	j	0x25e7
    25df:	fdc9d2        	addi	a13, a9, -3
    25e2:	2b0c      	movi.n	a11, 2
    25e4:	83abd0        	moveqz	a10, a11, a13
    25e7:	072a16        	beqz	a10, 0x265d
    25ea:	6f          	.byte 0x6f
    25eb:	5c8206        	j	0x197f7
    25ee:	6fa8      	l32i.n	a10, a15, 24
    25f0:	062704        	excw
    25f3:	ffcd      	excw
    25f5:	0c2a66        	bnei	a10, 2, 0x2605
    25f8:	05ad      	mov.n	a10, a5
    25fa:	212c82        	l32i	a8, a12, 132
    25fd:	6f          	.byte 0x6f
    25fe:	063705        	call0	0x8970
    2601:	ffc9      	s32i.n	a12, a15, 60
    2603:	6fd292        	addmi	a9, a2, 0x6f00
    2606:	8e0c      	movi.n	a14, 8
    2608:	c4c634        	excw
    260b:	ff          	.byte 0xff
    260c:	1df8      	l32i.n	a15, a13, 4
    260e:	000fe2        	l8ui	a14, a15, 0
    2611:	142e66        	bnei	a14, 2, 0x2629
    2614:	040f52        	l8ui	a5, a15, 4
    2617:	030fe2        	l8ui	a14, a15, 3
    261a:	115580        	slli	a5, a5, 8
    261d:	20ee50        	or	a14, a14, a5
    2620:	050c      	movi.n	a5, 0
    2622:	bbea      	add.n	a11, a11, a14
    2624:	bb4b      	addi.n	a11, a11, 4
    2626:	ffd2c6        	j	0x2575
    2629:	143e66        	bnei	a14, 3, 0x2641
    262c:	050c      	movi.n	a5, 0
    262e:	066f82        	s32i	a8, a15, 24
    2631:	881a      	add.n	a8, a8, a1
    2633:	ee8011        	l32r	a1, 0xffffe034
    2636:	bbea20        	excw
    2639:	bb3b      	addi.n	a11, a11, 3
    263b:	ffccc6        	j	0x2572
    263e:	8e0b      	addi.n	a8, a14, -1
    2640:	f20856        	bnez	a8, 0x2564
    2643:	030fe2        	l8ui	a14, a15, 3
    2646:	050c      	movi.n	a5, 0
    2648:	fffac6        	j	0x2637
    264b:	f01d      	excw
    264d:	ec98      	l32i.n	a9, a12, 56
    264f:	a98c      	beqz.n	a9, 0x265d
    2651:	0a0c      	movi.n	a10, 0
    2653:	090c      	movi.n	a9, 0
    2655:	252c82        	l32i	a8, a12, 148
    2658:	ec99      	s32i.n	a9, a12, 56
    265a:	0008e0        	excw
    265d:	05ad      	mov.n	a10, a5
    265f:	a82682        	l32i	a8, a6, 0x2a0
    2662:	6f          	.byte 0x6f
    2663:	867205        	call0	0xfff88d84
    2666:	ffac      	beqz.n	a15, 0x2699
    2668:	6f          	.byte 0x6f
    2669:	6cae06        	j	0x1d925
    266c:	12a601        	l32r	a0, 0xfffc7104
    266f:	006152        	s32i	a5, a1, 0
    2672:	040cb0        	extui	a0, a11, 12, 1
    2675:	070c      	movi.n	a7, 0
    2677:	0a3326        	beqi	a3, 3, 0x2685
    267a:	0a0c      	movi.n	a10, 0
    267c:	4688      	l32i.n	a8, a6, 16
    267e:	6f          	.byte 0x6f
    267f:	4d2005        	call0	0x4f880
    2682:	6f          	.byte 0x6f
    2683:	2c0b05        	call0	0x2e734
    2686:	6f4b      	addi.n	a6, a15, 4
    2688:	428b05        	call0	0x44f3c
    268b:	3a26d2        	l32i	a13, a6, 232
    268e:	0f3326        	beqi	a3, 3, 0x26a1
    2691:	0b0c      	movi.n	a11, 0
    2693:	4c2c      	movi.n	a12, 36
    2695:	000de0        	excw
    2698:	1549      	s32i.n	a4, a5, 4
    269a:	4549      	s32i.n	a4, a5, 16
    269c:	6539      	s32i.n	a3, a5, 24
    269e:	000286        	j	0x26ac
    26a1:	6f          	.byte 0x6f
    26a2:	0c1007        	beq	a0, a0, 0x26b2
    26a5:	9939      	s32i.n	a3, a9, 36
    26a7:	798165        	excw
    26aa:	6f          	.byte 0x6f
    26ab:	429705        	call0	0x4501c
    26ae:	6f          	.byte 0x6f
    26af:	4c8306        	j	0x158bf
    26b2:	771b      	addi.n	a7, a7, 1
    26b4:	b39277        	bne	a2, a7, 0x266b
    26b7:	6f          	.byte 0x6f
    26b8:	a408      	l32i.n	a0, a4, 40
    26ba:	ad18      	l32i.n	a1, a13, 40
    26bc:	6f8101        	l32r	a0, 0xfffde4c0
    26bf:	7ca305        	call0	0x7f0f0
    26c2:	6f28      	l32i.n	a2, a15, 24
    26c4:	7ca306        	j	0x21954
    26c7:	01ad      	mov.n	a10, a1
    26c9:	b07991        	l32r	a9, 0xfffee8b0
    26cc:	b03a41        	l32r	a4, 0xfffee7b4
    26cf:	0998      	l32i.n	a9, a9, 0
    26d1:	942482        	l32i	a8, a4, 0x250
    26d4:	1729b2        	l32i	a11, a9, 92
    26d7:	01b9      	s32i.n	a11, a1, 0
    26d9:	162992        	l32i	a9, a9, 88
    26dc:	1199      	s32i.n	a9, a1, 4
    26de:	6f          	.byte 0x6f
    26df:	01a406        	j	0x2d73
    26e2:	b007c1        	l32r	a12, 0xfffee700
    26e5:	1b2aa2        	l32i	a10, a10, 108
    26e8:	b006b1        	l32r	a11, 0xfffee700
    26eb:	f4a0a0        	extui	a10, a10, 0, 16
    26ee:	07b3a7        	bgeu	a3, a10, 0x26f9
    26f1:	6f          	.byte 0x6f
    26f2:	8208      	l32i.n	a0, a2, 32
    26f4:	cacc70        	excw
    26f7:	6fdcd2        	addmi	a13, a12, 0x6f00
    26fa:	8f0c      	movi.n	a15, 8
    26fc:	ba0b27        	bnone	a11, a2, 0x26ba
    26ff:	0d0ab7        	bnone	a10, a11, 0x2710
    2702:	6fdce2        	addmi	a14, a12, 0x6f00
    2705:	830c      	movi.n	a3, 8
    2707:	248243        	excw
    270a:	6f          	.byte 0x6f
    270b:	12a407        	bge	a4, a0, 0x2721
    270e:	6f9524        	excw
    2711:	358805        	call0	0x37f94
    2714:	03bd      	mov.n	a11, a3
    2716:	9b2482        	l32i	a8, a4, 0x26c
    2719:	6f          	.byte 0x6f
    271a:	971207        	beq	a2, a0, 0x26b5
    271d:	6f          	.byte 0x6f
    271e:	048b07        	bany	a11, a0, 0x2726
    2721:	610081        	l32r	a8, 0xfffdab24
    2724:	b079      	s32i.n	a7, a0, 44
    2726:	0688      	l32i.n	a8, a6, 0
    2728:	1d2882        	l32i	a8, a8, 116
    272b:	6f          	.byte 0x6f
    272c:	088105        	call0	0xaf40
    272f:	056f51        	l32r	a5, 0xfffc3cec
    2732:	251781        	l32r	a8, 0xfffcbb90
    2735:	6f3a      	add.n	a6, a15, a3
    2737:	0e8a05        	call0	0x10fd8
    273a:	a1cb      	addi.n	a10, a1, 12
    273c:	6f          	.byte 0x6f
    273d:	8c0c06        	j	0xfffe5771
    2740:	6f          	.byte 0x6f
    2741:	411b05        	call0	0x438f4
    2744:	b03a      	add.n	a11, a0, a3
    2746:	0698      	l32i.n	a9, a6, 0
    2748:	a22482        	l32i	a8, a4, 0x288
    274b:	1829b2        	l32i	a11, a9, 96
    274e:	01b9      	s32i.n	a11, a1, 0
    2750:	192992        	l32i	a9, a9, 100
    2753:	6f          	.byte 0x6f
    2754:	208105        	call0	0x22f68
    2757:	a1cb      	addi.n	a10, a1, 12
    2759:	6f          	.byte 0x6f
    275a:	aa1404        	excw
    275d:	5998      	l32i.n	a9, a9, 20
    275f:	6f          	.byte 0x6f
    2760:	589b05        	call0	0x5b114
    2763:	a32482        	l32i	a8, a4, 0x28c
    2766:	6f          	.byte 0x6f
    2767:	6ccb06        	j	0x1da97
    276a:	820a      	add.n	a8, a2, a0
    276c:	6fa924        	excw
    276f:	478705        	call0	0x49fe0
    2772:	6f          	.byte 0x6f
    2773:	a97304        	excw
    2776:	6f          	.byte 0x6f
    2777:	a57307        	bbci	a3, 16, 0x2720
    277a:	0008e0        	excw
    277d:	14c1a2        	addi	a10, a1, 20
    2780:	6f          	.byte 0x6f
    2781:	540a      	add.n	a5, a4, a0
    2783:	14c1a2        	addi	a10, a1, 20
    2786:	b003b1        	l32r	a11, 0xfffee794
    2789:	b07bc1        	l32r	a12, 0xfffee978
    278c:	222bd2        	l32i	a13, a11, 136
    278f:	ab2482        	l32i	a8, a4, 0x2ac
    2792:	93cdd0        	movnez	a12, a13, a13
    2795:	51c9      	s32i.n	a12, a1, 20
    2797:	242b92        	l32i	a9, a11, 144
    279a:	252bb2        	l32i	a11, a11, 148
    279d:	0d51b2        	s16i	a11, a1, 26
    27a0:	6f5192        	s16i	a9, a1, 222
    27a3:	4bb206        	j	0x1566f
    27a6:	6f          	.byte 0x6f
    27a7:	108305        	call0	0x12fd8
    27aa:	b07931        	l32r	a3, 0xfffee990
    27ad:	03d8      	l32i.n	a13, a3, 0
    27af:	b00741        	l32r	a4, 0xfffee7cc
    27b2:	9dcc      	bnez.n	a13, 0x27bf
    27b4:	6f          	.byte 0x6f
    27b5:	950b      	addi.n	a9, a5, -1
    27b7:	5e          	.byte 0x5e
    27b8:	2298      	l32i.n	a9, a2, 8
    27ba:	106fe6        	bgei	a15, 6, 0x27ce
    27bd:	b808a2        	l8ui	a10, a8, 184
    27c0:	1be602        	excw
    27c3:	6f          	.byte 0x6f
    27c4:	0f          	.byte 0xf
    27c5:	e864c3        	excw
    27c8:	1ee612        	excw
    27cb:	6f0d      	excw
    27cd:	0e          	.byte 0xe
    27ce:	e252a2        	s16i	a10, a2, 0x1c4
    27d1:	111d      	excw
    27d3:	170c      	movi.n	a7, 1
    27d5:	0480e0        	extui	a8, a14, 0, 1
    27d8:	115856        	bnez	a8, 0x28f1
    27db:	0dad      	mov.n	a10, a13
    27dd:	14c2b2        	addi	a11, a2, 20
    27e0:	4c1c      	movi.n	a12, 20
    27e2:	b00061        	l32r	a6, 0xfffee7e4
    27e5:	209e70        	or	a9, a14, a7
    27e8:	3b2682        	l32i	a8, a6, 236
    27eb:	115d92        	s16i	a9, a13, 34
    27ee:	0008e0        	excw
    27f1:	42a8      	l32i.n	a10, a2, 16
    27f3:	03d8      	l32i.n	a13, a3, 0
    27f5:	22b8      	l32i.n	a11, a2, 8
    27f7:	135db2        	s16i	a11, a13, 38
    27fa:	125db2        	s16i	a11, a13, 36
    27fd:	5da9      	s32i.n	a10, a13, 20
    27ff:	4acc      	bnez.n	a10, 0x2807
    2801:	0c5d72        	s16i	a7, a13, 24
    2804:	000346        	j	0x2815
    2807:	6f          	.byte 0x6f
    2808:	0e          	.byte 0xe
    2809:	5858      	l32i.n	a5, a8, 20
    280b:	22e132        	excw
    280e:	553bb0        	extui	a3, a11, 27, 6
    2811:	415250        	srli	a5, a5, 2
    2814:	1155e0        	slli	a5, a5, 2
    2817:	0020c0        	memw
    281a:	05bd      	mov.n	a11, a5
    281c:	1a2d82        	l32i	a8, a13, 104
    281f:	a26e52        	s32i	a5, a14, 0x288
    2822:	145d52        	s16i	a5, a13, 40
    2825:	02c8      	l32i.n	a12, a2, 0
    2827:	12d8      	l32i.n	a13, a2, 4
    2829:	22a8      	l32i.n	a10, a2, 8
    282b:	ccda      	add.n	a12, a12, a13
    282d:	aaca      	add.n	a10, a10, a12
    282f:	01a9      	s32i.n	a10, a1, 0
    2831:	0008e0        	excw
    2834:	0388      	l32i.n	a8, a3, 0
    2836:	01a8      	l32i.n	a10, a1, 0
    2838:	1b2882        	l32i	a8, a8, 108
    283b:	05bd      	mov.n	a11, a5
    283d:	6f          	.byte 0x6f
    283e:	025a04        	excw
    2841:	0388      	l32i.n	a8, a3, 0
    2843:	0b0c      	movi.n	a11, 0
    2845:	152882        	l32i	a8, a8, 84
    2848:	6fcd      	excw
    284a:	120e05        	call0	0x1492c
    284d:	0388      	l32i.n	a8, a3, 0
    284f:	1b0c      	movi.n	a11, 1
    2851:	6f          	.byte 0x6f
    2852:	0e08      	l32i.n	a0, a14, 0
    2854:	05cd      	mov.n	a12, a5
    2856:	0388      	l32i.n	a8, a3, 0
    2858:	22a8      	l32i.n	a10, a2, 8
    285a:	152882        	l32i	a8, a8, 84
    285d:	2b0c      	movi.n	a11, 2
    285f:	6f          	.byte 0x6f
    2860:	1c08      	l32i.n	a0, a12, 4
    2862:	6f3b      	addi.n	a6, a15, 3
    2864:	0c0e04        	excw
    2867:	0008e0        	excw
    286a:	03d8      	l32i.n	a13, a3, 0
    286c:	01d4a2        	addmi	a10, a4, 0x100
    286f:	129d92        	l16si	a9, a13, 36
    2872:	31caa2        	addi	a10, a10, 49
    2875:	698c      	beqz.n	a9, 0x287f
    2877:	6f          	.byte 0x6f
    2878:	8108      	l32i.n	a0, a1, 32
    287a:	6e          	.byte 0x6e
    287b:	dd79      	s32i.n	a7, a13, 52
    287d:	1f2dc2        	l32i	a12, a13, 124
    2880:	0b0c      	movi.n	a11, 0
    2882:	b03b21        	l32r	a2, 0xfffee970
    2885:	9e2682        	l32i	a8, a6, 0x278
    2888:	02a8      	l32i.n	a10, a2, 0
    288a:	6f          	.byte 0x6f
    288b:	0c5f05        	call0	0xee7c
    288e:	c81b      	addi.n	a12, a8, 1
    2890:	268203        	excw
    2893:	9e          	.byte 0x9e
    2894:	202cc2        	l32i	a12, a12, 128
    2897:	6f          	.byte 0x6f
    2898:	2b0f06        	j	0xd4d8
    289b:	6f          	.byte 0x6f
    289c:	260f07        	bnone	a15, a0, 0x28c6
    289f:	0008e0        	excw
    28a2:	03b8      	l32i.n	a11, a3, 0
    28a4:	1d2682        	l32i	a8, a6, 116
    28a7:	272ba2        	l32i	a10, a11, 156
    28aa:	282bb2        	l32i	a11, a11, 160
    28ad:	0008e0        	excw
    28b0:	b00391        	l32r	a9, 0xfffee8bc
    28b3:	2b0c      	movi.n	a11, 2
    28b5:	282992        	l32i	a9, a9, 160
    28b8:	03c8      	l32i.n	a12, a3, 0
    28ba:	086917        	bbci	a9, 1, 0x28c6
    28bd:	111ca2        	l16ui	a10, a12, 34
    28c0:	20aab0        	or	a10, a10, a11
    28c3:	115ca2        	s16i	a10, a12, 34
    28c6:	4a0c      	movi.n	a10, 4
    28c8:	01e927        	bbsi	a9, 2, 0x28cd
    28cb:	f01d      	excw
    28cd:	03c8      	l32i.n	a12, a3, 0
    28cf:	111cb2        	l16ui	a11, a12, 34
    28d2:	20bba0        	or	a11, a11, a10
    28d5:	115cb2        	s16i	a11, a12, 34
    28d8:	6f          	.byte 0x6f
    28d9:	8e08      	l32i.n	a0, a14, 32
    28db:	02ad14        	excw
    28de:	429c      	beqz.n	a2, 0x28f6
    28e0:	050c      	movi.n	a5, 0
    28e2:	200282        	l8ui	a8, a2, 32
    28e5:	0248      	l32i.n	a4, a2, 0
    28e7:	066807        	bbci	a8, 0, 0x28f1
    28ea:	0259      	s32i.n	a5, a2, 0
    28ec:	0003e0        	excw
    28ef:	04ad      	mov.n	a10, a4
    28f1:	042d      	mov.n	a2, a4
    28f3:	feb456        	bnez	a4, 0x28e2
    28f6:	1a8c      	beqz.n	a10, 0x28fb
    28f8:	6f03e0        	excw
    28fb:	58a706        	j	0x18b9b
    28fe:	0238      	l32i.n	a3, a2, 0
    2900:	b00681        	l32r	a8, 0xfffee918
    2903:	638c      	beqz.n	a3, 0x290d
    2905:	6f          	.byte 0x6f
    2906:	8308      	l32i.n	a0, a3, 32
    2908:	794122        	s8i	a2, a1, 121
    290b:	0448b0        	extui	a4, a11, 8, 1
    290e:	122452        	l32i	a5, a4, 72
    2911:	058c      	beqz.n	a5, 0x2915
    2913:	0259      	s32i.n	a5, a2, 0
    2915:	126422        	s32i	a2, a4, 72
    2918:	6f          	.byte 0x6f
    2919:	4c9507        	bne	a5, a0, 0x2969
    291c:	6f          	.byte 0x6f
    291d:	221504        	excw
    2920:	0c1224        	excw
    2923:	728c05        	call0	0x751e4
    2926:	0288      	l32i.n	a8, a2, 0
    2928:	126482        	s32i	a8, a4, 72
    292b:	0259      	s32i.n	a5, a2, 0
    292d:	6f          	.byte 0x6f
    292e:	71b406        	j	0x1f002
    2931:	004136        	excw
    2934:	6f          	.byte 0x6f
    2935:	328607        	bany	a6, a0, 0x296b
    2938:	056f23        	excw
    293b:	9e          	.byte 0x9e
    293c:	0d6f72        	s32i	a7, a15, 52
    293f:	a25295        	excw
    2942:	8110c3        	excw
    2945:	8bb000        	excw
    2948:	2882b2        	excw
    294b:	6f3b      	addi.n	a6, a15, 3
    294d:	3c8405        	call0	0x3f190
    2950:	b03a81        	l32r	a8, 0xfffeea38
    2953:	1a0c      	movi.n	a10, 1
    2955:	200392        	l8ui	a9, a3, 32
    2958:	02b8      	l32i.n	a11, a2, 0
    295a:	12c8      	l32i.n	a12, a2, 4
    295c:	0453c2        	s16i	a12, a3, 8
    295f:	13b9      	s32i.n	a11, a3, 4
    2961:	2099a0        	or	a9, a9, a10
    2964:	03bd      	mov.n	a11, a3
    2966:	204392        	s8i	a9, a3, 32
    2969:	a82882        	l32i	a8, a8, 0x2a0
    296c:	6f          	.byte 0x6f
    296d:	4a8d07        	bany	a13, a0, 0x29bb
    2970:	006136        	excw
    2973:	b00051        	l32r	a5, 0xfffee974
    2976:	056f31        	l32r	a3, 0xfffc3f34
    2979:	31a9      	s32i.n	a10, a1, 12
    297b:	b42342        	l32i	a4, a3, 0x2d0
    297e:	744040        	extui	a4, a4, 0, 8
    2981:	0020c0        	memw
    2984:	01ad      	mov.n	a10, a1
    2986:	0b0c      	movi.n	a11, 0
    2988:	8c0c      	movi.n	a12, 8
    298a:	b52332        	l32i	a3, a3, 0x2d4
    298d:	3a2582        	l32i	a8, a5, 232
    2990:	743030        	extui	a3, a3, 0, 8
    2993:	0008e0        	excw
    2996:	64a0b2        	movi	a11, 100
    2999:	b079a1        	l32r	a10, 0xfffeeb80
    299c:	b03a81        	l32r	a8, 0xfffeea84
    299f:	119380        	slli	a9, a3, 8
    29a2:	209490        	or	a9, a4, a9
    29a5:	ab2882        	l32i	a8, a8, 0x2ac
    29a8:	0aa8      	l32i.n	a10, a10, 0
    29aa:	8299b0        	mull	a9, a9, a11
    29ad:	136a92        	s32i	a9, a10, 76
    29b0:	0199      	s32i.n	a9, a1, 0
    29b2:	6f          	.byte 0x6f
    29b3:	10a105        	call0	0x133c4
    29b6:	02bd      	mov.n	a11, a2
    29b8:	b03ba1        	l32r	a10, 0xfffeeaa4
    29bb:	6f2582        	l32i	a8, a5, 0x1bc
    29be:	ab09      	s32i.n	a0, a11, 40
    29c0:	365a      	add.n	a3, a6, a5
    29c2:	880061        	l32r	a6, 0xfffe49c4
    29c5:	186602        	s32i	a0, a6, 96
    29c8:	096f57        	bbci	a15, 5, 0x29d5
    29cb:	9149a2        	s8i	a10, a9, 145
    29ce:	b07c      	movi.n	a0, -5
    29d0:	09a9      	s32i.n	a10, a9, 0
    29d2:	6f2a66        	bnei	a10, 2, 0x2a45
    29d5:	32a205        	call0	0x353f8
    29d8:	e04a      	add.n	a14, a0, a4
    29da:	0008      	l32i.n	a0, a0, 0
    29dc:	1d0c      	movi.n	a13, 1
    29de:	056fa1        	l32r	a10, 0xfffc3f9c
    29e1:	d21092        	l16ui	a9, a0, 0x1a4
    29e4:	856a      	add.n	a8, a5, a6
    29e6:	0020c0        	memw
    29e9:	852ae2        	l32i	a14, a10, 0x214
    29ec:	01e9      	s32i.n	a14, a1, 0
    29ee:	6f          	.byte 0x6f
    29ef:	870e05        	call0	0xfff89ad0
    29f2:	0020c0        	memw
    29f5:	872ac2        	l32i	a12, a10, 0x21c
    29f8:	6fc9      	s32i.n	a12, a15, 24
    29fa:	920e04        	excw
    29fd:	8d2a      	add.n	a8, a13, a2
    29ff:	dfafb2        	movi	a11, -33
    2a02:	1099b0        	and	a9, a9, a11
    2a05:	0020c0        	memw
    2a08:	6f          	.byte 0x6f
    2a09:	49aa05        	call0	0x4c4ac
    2a0c:	828d      	excw
    2a0e:	1428      	l32i.n	a2, a4, 4
    2a10:	64a0a2        	movi	a10, 100
    2a13:	6f          	.byte 0x6f
    2a14:	a40a      	add.n	a10, a4, a0
    2a16:	6f18      	l32i.n	a1, a15, 24
    2a18:	716404        	excw
    2a1b:	6f          	.byte 0x6f
    2a1c:	18a405        	call0	0x1b460
    2a1f:	0b0c      	movi.n	a11, 0
    2a21:	6f2382        	l32i	a8, a3, 0x1bc
    2a24:	8708      	l32i.n	a0, a7, 32
    2a26:	799106        	j	0x2106e
    2a29:	6f21b0        	excw
    2a2c:	298805        	call0	0x2c2b0
    2a2f:	92ab22        	movi	a2, 0xfffffb92
    2a32:	1329      	s32i.n	a2, a3, 4
    2a34:	6f99      	s32i.n	a9, a15, 24
    2a36:	30a206        	j	0xecc2
    2a39:	6f1c14        	excw
    2a3c:	4d7705        	call0	0x501b0
    2a3f:	6f          	.byte 0x6f
    2a40:	217710        	srai	a7, a1, 7
    2a43:	6f          	.byte 0x6f
    2a44:	770d      	excw
    2a46:	6f          	.byte 0x6f
    2a47:	920e04        	excw
    2a4a:	8d2a      	add.n	a8, a13, a2
    2a4c:	0b2c      	movi.n	a11, 32
    2a4e:	2099b0        	or	a9, a9, a11
    2a51:	0020c0        	memw
    2a54:	b12282        	l32i	a8, a2, 0x2c4
    2a57:	8d6a92        	s32i	a9, a10, 0x234
    2a5a:	6f          	.byte 0x6f
    2a5b:	6ca305        	call0	0x6f48c
    2a5e:	a10a      	add.n	a10, a1, a0
    2a60:	b07c      	movi.n	a0, -5
    2a62:	b22282        	l32i	a8, a2, 0x2c8
    2a65:	6f          	.byte 0x6f
    2a66:	7ac906        	j	0x2158e
    2a69:	6f          	.byte 0x6f
    2a6a:	bc08      	l32i.n	a0, a12, 44
    2a6c:	792114        	excw
    2a6f:	0288b0        	excw
    2a72:	08c856        	bnez	a8, 0x2b02
    2a75:	6f          	.byte 0x6f
    2a76:	08a207        	bge	a2, a0, 0x2a82
    2a79:	a4a0b2        	movi	a11, 164
    2a7c:	0008e0        	excw
    2a7f:	02a9      	s32i.n	a10, a2, 0
    2a81:	6f          	.byte 0x6f
    2a82:	830d      	excw
    2a84:	7db116        	beqz	a1, 0x3263
    2a87:	7bc1b0        	excw
    2a8a:	7f81b0        	excw
    2a8d:	81e1b0        	src	a14, a1, a11
    2a90:	80f1b0        	add	a15, a1, a11
    2a93:	7e91b0        	excw
    2a96:	0d1cb0        	excw
    2a99:	0d5ad2        	s16i	a13, a10, 26
    2a9c:	0e5ad2        	s16i	a13, a10, 28
    2a9f:	0f5ad2        	s16i	a13, a10, 30
    2aa2:	105ad2        	s16i	a13, a10, 32
    2aa5:	156a92        	s32i	a9, a10, 84
    2aa8:	166af2        	s32i	a15, a10, 88
    2aab:	186ae2        	s32i	a14, a10, 96
    2aae:	176a82        	s32i	a8, a10, 92
    2ab1:	136ac2        	s32i	a12, a10, 76
    2ab4:	146ab2        	s32i	a11, a10, 80
    2ab7:	b083c1        	l32r	a12, 0xfffeecc4
    2aba:	b084b1        	l32r	a11, 0xfffeeccc
    2abd:	b08681        	l32r	a8, 0xfffeecd8
    2ac0:	b088e1        	l32r	a14, 0xfffeece0
    2ac3:	b087f1        	l32r	a15, 0xfffeece0
    2ac6:	b08591        	l32r	a9, 0xfffeecdc
    2ac9:	1c6a92        	s32i	a9, a10, 112
    2acc:	236af2        	s32i	a15, a10, 140
    2acf:	246ae2        	s32i	a14, a10, 144
    2ad2:	226a82        	s32i	a8, a10, 136
    2ad5:	1b6ab2        	s32i	a11, a10, 108
    2ad8:	1a6ac2        	s32i	a12, a10, 104
    2adb:	b08bb1        	l32r	a11, 0xfffeed08
    2ade:	b08ac1        	l32r	a12, 0xfffeed08
    2ae1:	276ac2        	s32i	a12, a10, 156
    2ae4:	b082d1        	l32r	a13, 0xfffeecec
    2ae7:	286ab2        	s32i	a11, a10, 160
    2aea:	196ad2        	s32i	a13, a10, 100
    2aed:	b089d1        	l32r	a13, 0xfffeed14
    2af0:	266ad2        	s32i	a13, a10, 152
    2af3:	6f31a5        	excw
    2af6:	c308      	l32i.n	a0, a3, 48
    2af8:	8178      	l32i.n	a7, a1, 32
    2afa:	91b091        	l32r	a9, 0xfffe71bc
    2afd:	a1b090        	excw
    2b00:	8f          	.byte 0x8f
    2b01:	8eb1b0        	excw
    2b04:	8dc1b0        	excw
    2b07:	8cd1b0        	excw
    2b0a:	7931b0        	excw
    2b0d:	6239b0        	excw
    2b10:	4289      	s32i.n	a8, a2, 16
    2b12:	5299      	s32i.n	a9, a2, 20
    2b14:	22a9      	s32i.n	a10, a2, 8
    2b16:	32b9      	s32i.n	a11, a2, 12
    2b18:	12c9      	s32i.n	a12, a2, 4
    2b1a:	6fd9      	s32i.n	a13, a15, 24
    2b1c:	448206        	j	0x13d28
    2b1f:	01ad      	mov.n	a10, a1
    2b21:	b07a81        	l32r	a8, 0xfffeed0c
    2b24:	190c      	movi.n	a9, 1
    2b26:	4888      	l32i.n	a8, a8, 16
    2b28:	6f          	.byte 0x6f
    2b29:	298205        	call0	0x2c34c
    2b2c:	b079b1        	l32r	a11, 0xfffeed10
    2b2f:	039d      	mov.n	a9, a3
    2b31:	0bb8      	l32i.n	a11, a11, 0
    2b33:	239c      	beqz.n	a3, 0x2b49
    2b35:	112ba2        	l32i	a10, a11, 68
    2b38:	09cd      	mov.n	a12, a9
    2b3a:	aa1b      	addi.n	a10, a10, 1
    2b3c:	116ba2        	s32i	a10, a11, 68
    2b3f:	7929      	s32i.n	a2, a9, 28
    2b41:	0998      	l32i.n	a9, a9, 0
    2b43:	ff1956        	bnez	a9, 0x2b38
    2b46:	000046        	j	0x2b4b
    2b49:	0c0c      	movi.n	a12, 0
    2b4b:	fb98      	l32i.n	a9, a11, 60
    2b4d:	498c      	beqz.n	a9, 0x2b55
    2b4f:	0939      	s32i.n	a3, a9, 0
    2b51:	fbc9      	s32i.n	a12, a11, 60
    2b53:	f01d      	excw
    2b55:	fbc9      	s32i.n	a12, a11, 60
    2b57:	106b32        	s32i	a3, a11, 64
    2b5a:	6f          	.byte 0x6f
    2b5b:	8508      	l32i.n	a0, a5, 32
    2b5d:	6f78      	l32i.n	a7, a15, 24
    2b5f:	148506        	j	0x7d77
    2b62:	1118      	l32i.n	a1, a1, 4
    2b64:	0d6827        	bbci	a8, 2, 0x2b75
    2b67:	b00081        	l32r	a8, 0xfffeeb68
    2b6a:	12a8      	l32i.n	a10, a2, 4
    2b6c:	472882        	l32i	a8, a8, 0x11c
    2b6f:	0412b2        	l16ui	a11, a2, 8
    2b72:	6f          	.byte 0x6f
    2b73:	038506        	j	0x398b
    2b76:	02bd      	mov.n	a11, a2
    2b78:	a82882        	l32i	a8, a8, 0x2a0
    2b7b:	72a8      	l32i.n	a10, a2, 28
    2b7d:	6f          	.byte 0x6f
    2b7e:	9509      	s32i.n	a0, a5, 36
    2b80:	793150        	excw
    2b83:	03b8b0        	excw
    2b86:	2c0b92        	l8ui	a9, a11, 44
    2b89:	043916        	beqz	a9, 0x2bd0
    2b8c:	b28c      	beqz.n	a2, 0x2b9b
    2b8e:	252b82        	l32i	a8, a11, 148
    2b91:	6f          	.byte 0x6f
    2b92:	2f8f05        	call0	0x32484
    2b95:	6f          	.byte 0x6f
    2b96:	a81205        	call0	0xfffaacb8
    2b99:	e1cb      	addi.n	a14, a1, 12
    2b9b:	0cb000        	excw
    2b9e:	190014        	excw
    2ba1:	c40040        	extui	a0, a4, 0, 13
    2ba4:	2ee2a1        	l32r	a10, 0xfffce72c
    2ba7:	cc7a      	add.n	a12, a12, a7
    2ba9:	0c6a      	add.n	a0, a12, a6
    2bab:	2009      	s32i.n	a0, a0, 8
    2bad:	468394        	excw
    2bb0:	9d0000        	excw
    2bb3:	a98c02        	excw
    2bb6:	0cad      	mov.n	a10, a12
    2bb8:	0b0c      	movi.n	a11, 0
    2bba:	0d0c      	movi.n	a13, 0
    2bbc:	000ee0        	excw
    2bbf:	000206        	j	0x2bcb
    2bc2:	0cbd      	mov.n	a11, a12
    2bc4:	0a0c      	movi.n	a10, 0
    2bc6:	6f          	.byte 0x6f
    2bc7:	8c0c05        	call0	0xfff8ec88
    2bca:	f01d02        	l16ui	a0, a13, 0x1e0
    2bcd:	03f8      	l32i.n	a15, a3, 0
    2bcf:	ef49      	s32i.n	a4, a15, 56
    2bd1:	6f          	.byte 0x6f
    2bd2:	a708      	l32i.n	a0, a7, 40
    2bd4:	bd1c64        	excw
    2bd7:	003102        	excw
    2bda:	7941b0        	excw
    2bdd:	2382b0        	excw
    2be0:	04a882        	movi	a8, 0xfffff804
    2be3:	93bc20        	movnez	a11, a12, a2
    2be6:	0b2d      	mov.n	a2, a11
    2be8:	2a0aa2        	l8ui	a10, a10, 42
    2beb:	0008e0        	excw
    2bee:	04a8      	l32i.n	a10, a4, 0
    2bf0:	2b0aa2        	l8ui	a10, a10, 43
    2bf3:	6a8c      	beqz.n	a10, 0x2bfd
    2bf5:	822382        	l32i	a8, a3, 0x208
    2bf8:	6f          	.byte 0x6f
    2bf9:	6ac305        	call0	0x6d82c
    2bfc:	6f          	.byte 0x6f
    2bfd:	8208      	l32i.n	a0, a2, 32
    2bff:	b00324        	excw
    2c02:	b00791        	l32r	a9, 0xfffeec20
    2c05:	232882        	l32i	a8, a8, 140
    2c08:	b09241        	l32r	a4, 0xfffeee50
    2c0b:	98cc      	bnez.n	a8, 0x2c18
    2c0d:	f30c      	movi.n	a3, 15
    2c0f:	151c      	movi.n	a5, 17
    2c11:	021c      	movi.n	a2, 16
    2c13:	241c      	movi.n	a4, 18
    2c15:	0002c6        	j	0x2c24
    2c18:	800432        	l8ui	a3, a4, 128
    2c1b:	810452        	l8ui	a5, a4, 129
    2c1e:	820422        	l8ui	a2, a4, 130
    2c21:	830442        	l8ui	a4, a4, 131
    2c24:	93cc      	bnez.n	a3, 0x2c31
    2c26:	6f          	.byte 0x6f
    2c27:	8a0b      	addi.n	a8, a10, -1
    2c29:	c5cc51        	l32r	a5, 0xffff435c
    2c2c:	6fd9a2        	addmi	a10, a9, 0x6f00
    2c2f:	8a0c      	movi.n	a10, 8
    2c31:	4e          	.byte 0x4e
    2c32:	b07961        	l32r	a6, 0xfffeee18
    2c35:	06b8      	l32i.n	a11, a6, 0
    2c37:	5bb8      	l32i.n	a11, a11, 20
    2c39:	ebdc      	bnez.n	a11, 0x2c5b
    2c3b:	c2cc      	bnez.n	a2, 0x2c4b
    2c3d:	6fd9c2        	addmi	a12, a9, 0x6f00
    2c40:	890c      	movi.n	a9, 8
    2c42:	cc7c      	movi.n	a12, -4
    2c44:	d9d2c4        	excw
    2c47:	6f          	.byte 0x6f
    2c48:	8c0c      	movi.n	a12, 8
    2c4a:	ad7c      	movi.n	a13, -6
    2c4c:	4b0c05        	call0	0x4dd10
    2c4f:	b00071        	l32r	a7, 0xfffeec50
    2c52:	1c0c      	movi.n	a12, 1
    2c54:	812782        	l32i	a8, a7, 0x204
    2c57:	1d0c      	movi.n	a13, 1
    2c59:	0008e0        	excw
    2c5c:	0698      	l32i.n	a9, a6, 0
    2c5e:	2a4952        	s8i	a5, a9, 42
    2c61:	149c      	beqz.n	a4, 0x2c76
    2c63:	04ad      	mov.n	a10, a4
    2c65:	4b0c      	movi.n	a11, 4
    2c67:	6f          	.byte 0x6f
    2c68:	150c      	movi.n	a5, 1
    2c6a:	2b4942        	s8i	a4, a9, 43
    2c6d:	03ad      	mov.n	a10, a3
    2c6f:	4b0c      	movi.n	a11, 4
    2c71:	0c0c      	movi.n	a12, 0
    2c73:	6f          	.byte 0x6f
    2c74:	0d1304        	excw
    2c77:	0008e0        	excw
    2c7a:	c28c      	beqz.n	a2, 0x2c8a
    2c7c:	02ad      	mov.n	a10, a2
    2c7e:	6f          	.byte 0x6f
    2c7f:	100c      	movi.n	a0, 1
    2c81:	0c0c      	movi.n	a12, 0
    2c83:	b093a1        	l32r	a10, 0xfffeeed0
    2c86:	5b0c      	movi.n	a11, 5
    2c88:	800ad2        	l8ui	a13, a10, 128
    2c8b:	0698      	l32i.n	a9, a6, 0
    2c8d:	3dcc      	bnez.n	a13, 0x2c94
    2c8f:	c9c9      	s32i.n	a12, a9, 48
    2c91:	0005c6        	j	0x2cac
    2c94:	64f0d0        	extui	a15, a13, 0, 7
    2c97:	2c49f2        	s8i	a15, a9, 44
    2c9a:	046fe2        	s32i	a14, a15, 16
    2c9d:	6e7712        	excw
    2ca0:	1c0c01        	l32r	a0, 0xfffc9cd0
    2ca3:	c9c9      	s32i.n	a12, a9, 48
    2ca5:	810aa2        	l8ui	a10, a10, 129
    2ca8:	93baa0        	movnez	a11, a10, a10
    2cab:	2c09a2        	l8ui	a10, a9, 44
    2cae:	8a8c      	beqz.n	a10, 0x2cba
    2cb0:	6f          	.byte 0x6f
    2cb1:	3a0a      	add.n	a3, a10, a0
    2cb3:	6f          	.byte 0x6f
    2cb4:	34a707        	bge	a7, a0, 0x2cec
    2cb7:	b03a      	add.n	a11, a0, a3
    2cb9:	6f2882        	l32i	a8, a8, 0x1bc
    2cbc:	37a906        	j	0x10b64
    2cbf:	6f          	.byte 0x6f
    2cc0:	13b312        	excw
    2cc3:	6f          	.byte 0x6f
    2cc4:	200a      	add.n	a2, a0, a0
    2cc6:	6f1a      	add.n	a6, a15, a1
    2cc8:	2018      	l32i.n	a1, a0, 8
    2cca:	b07921        	l32r	a2, 0xfffeeeb0
    2ccd:	0228      	l32i.n	a2, a2, 0
    2ccf:	d228      	l32i.n	a2, a2, 52
    2cd1:	6f          	.byte 0x6f
    2cd2:	3c8405        	call0	0x3f514
    2cd5:	b07941        	l32r	a4, 0xfffeeebc
    2cd8:	0a0c      	movi.n	a10, 0
    2cda:	04c8      	l32i.n	a12, a4, 0
    2cdc:	0129      	s32i.n	a2, a1, 0
    2cde:	dc38      	l32i.n	a3, a12, 52
    2ce0:	3cd8      	l32i.n	a13, a12, 12
    2ce2:	03bd      	mov.n	a11, a3
    2ce4:	ed8c      	beqz.n	a13, 0x2cf6
    2ce6:	01bd      	mov.n	a11, a1
    2ce8:	4ca8      	l32i.n	a10, a12, 16
    2cea:	000de0        	excw
    2ced:	04c8      	l32i.n	a12, a4, 0
    2cef:	0128      	l32i.n	a2, a1, 0
    2cf1:	dcb8      	l32i.n	a11, a12, 52
    2cf3:	ffffc6        	j	0x2cf6
    2cf6:	129b27        	bne	a11, a2, 0x2d0c
    2cf9:	090c      	movi.n	a9, 0
    2cfb:	b98c      	beqz.n	a9, 0x2d0a
    2cfd:	04c8      	l32i.n	a12, a4, 0
    2cff:	2cd8      	l32i.n	a13, a12, 8
    2d01:	5d8c      	beqz.n	a13, 0x2d0a
    2d03:	4ca8      	l32i.n	a10, a12, 16
    2d05:	dcb8      	l32i.n	a11, a12, 52
    2d07:	000de0        	excw
    2d0a:	f01d      	excw
    2d0c:	dc29      	s32i.n	a2, a12, 52
    2d0e:	daec      	bnez.n	a10, 0x2d3f
    2d10:	0128      	l32i.n	a2, a1, 0
    2d12:	b03a51        	l32r	a5, 0xfffeedfc
    2d15:	101226        	beqi	a2, 1, 0x2d29
    2d18:	232266        	bnei	a2, 2, 0x2d3f
    2d1b:	251366        	bnei	a3, 1, 0x2d44
    2d1e:	1e2c82        	l32i	a8, a12, 120
    2d21:	6f          	.byte 0x6f
    2d22:	128905        	call0	0x155b4
    2d25:	000546        	j	0x2d3e
    2d28:	6f          	.byte 0x6f
    2d29:	6f0b04        	excw
    2d2c:	827d04        	excw
    2d2f:	6fac25        	excw
    2d32:	b30605        	call0	0xfffb5d94
    2d35:	6f          	.byte 0x6f
    2d36:	0c0e05        	call0	0xee18
    2d39:	8619      	s32i.n	a1, a6, 32
    2d3b:	ffed      	excw
    2d3d:	f73366        	bnei	a3, 3, 0x2d38
    2d40:	6f          	.byte 0x6f
    2d41:	6f1004        	excw
    2d44:	062904        	excw
    2d47:	6ffb      	addi.n	a6, a15, 15
    2d49:	18bd05        	call0	0x1b91c
    2d4c:	b079      	s32i.n	a7, a0, 44
    2d4e:	03c8      	l32i.n	a12, a3, 0
    2d50:	102ca2        	l32i	a10, a12, 64
    2d53:	ea9c      	beqz.n	a10, 0x2d75
    2d55:	728c      	beqz.n	a2, 0x2d60
    2d57:	142c82        	l32i	a8, a12, 80
    2d5a:	6f          	.byte 0x6f
    2d5b:	021804        	excw
    2d5e:	2c8200        	excw
    2d61:	94b124        	excw
    2d64:	066fb0        	excw
    2d67:	095bb2        	s16i	a11, a11, 18
    2d6a:	106a92        	s32i	a9, a10, 64
    2d6d:	fa99      	s32i.n	a9, a10, 60
    2d6f:	116a92        	s32i	a9, a10, 68
    2d72:	6f          	.byte 0x6f
    2d73:	2c9b07        	bne	a11, a0, 0x2da3
    2d76:	b09a      	add.n	a11, a0, a9
    2d78:	b09981        	l32r	a8, 0xfffeefdc
    2d7b:	b09891        	l32r	a9, 0xfffeefdc
    2d7e:	b097a1        	l32r	a10, 0xfffeefdc
    2d81:	b096b1        	l32r	a11, 0xfffeefdc
    2d84:	b07931        	l32r	a3, 0xfffeef68
    2d87:	b095c1        	l32r	a12, 0xfffeefdc
    2d8a:	0338      	l32i.n	a3, a3, 0
    2d8c:	1e63b2        	s32i	a11, a3, 120
    2d8f:	1f63a2        	s32i	a10, a3, 124
    2d92:	206392        	s32i	a9, a3, 128
    2d95:	216382        	s32i	a8, a3, 132
    2d98:	256322        	s32i	a2, a3, 148
    2d9b:	1d63c2        	s32i	a12, a3, 116
    2d9e:	6f          	.byte 0x6f
    2d9f:	9a08      	l32i.n	a0, a10, 36
    2da1:	b09b30        	addx8	a9, a11, a3
    2da4:	0488      	l32i.n	a8, a4, 0
    2da6:	07a856        	bnez	a8, 0x2e24
    2da9:	056f21        	l32r	a2, 0xfffc4368
    2dac:	426087        	bbci	a0, 8, 0x2df2
    2daf:	056fb2        	s32i	a11, a15, 20
    2db2:	7c88      	l32i.n	a8, a12, 28
    2db4:	0add      	mov.n	a13, a10
    2db6:	04a9      	s32i.n	a10, a4, 0
    2db8:	6f          	.byte 0x6f
    2db9:	870d      	excw
    2dbb:	ad4b62        	s8i	a6, a11, 173
    2dbe:	0c0c      	movi.n	a12, 0
    2dc0:	b09c31        	l32r	a3, 0xfffef030
    2dc3:	662282        	l32i	a8, a2, 0x198
    2dc6:	63b8      	l32i.n	a11, a3, 24
    2dc8:	0008e0        	excw
    2dcb:	73b8      	l32i.n	a11, a3, 28
    2dcd:	24c8      	l32i.n	a12, a4, 8
    2dcf:	04a8      	l32i.n	a10, a4, 0
    2dd1:	662282        	l32i	a8, a2, 0x198
    2dd4:	24caa2        	addi	a10, a10, 36
    2dd7:	6f          	.byte 0x6f
    2dd8:	830f04        	excw
    2ddb:	0c0c      	movi.n	a12, 0
    2ddd:	6f          	.byte 0x6f
    2dde:	440f07        	bnone	a15, a0, 0x2e26
    2de1:	0008e0        	excw
    2de4:	93a8      	l32i.n	a10, a3, 36
    2de6:	7e2282        	l32i	a8, a2, 0x1f8
    2de9:	6f          	.byte 0x6f
    2dea:	689e05        	call0	0x6b7cc
    2ded:	3b0c      	movi.n	a11, 3
    2def:	6f9dc1        	l32r	a12, 0xfffdec64
    2df2:	0f          	.byte 0xf
    2df3:	4b0ab4        	excw
    2df6:	9e2282        	l32i	a8, a2, 0x278
    2df9:	b09ec1        	l32r	a12, 0xfffef074
    2dfc:	0008e0        	excw
    2dff:	8e2282        	l32i	a8, a2, 0x238
    2e02:	6f9fa1        	l32r	a10, 0xfffdec80
    2e05:	da09      	s32i.n	a0, a10, 52
    2e07:	00e144        	excw
    2e0a:	9bd1b0        	excw
    2e0d:	8216b0        	mull	a1, a6, a11
    2e10:	a0a105        	call0	0xfffa3824
    2e13:	a0c2b0        	addx4	a12, a2, a11
    2e16:	f20a      	add.n	a15, a2, a0
    2e18:	41e8a3        	excw
    2e1b:	21b003        	excw
    2e1e:	82b0a1        	l32r	a10, 0xfffe38e0
    2e21:	2e          	.byte 0x2e
    2e22:	a03290        	addx4	a3, a2, a9
    2e25:	2de201        	l32r	a0, 0xfffce5b0
    2e28:	4d3200        	excw
    2e2b:	029205        	call0	0x574c
    2e2e:	244280        	extui	a4, a8, 2, 3
    2e31:	2f          	.byte 0x2f
    2e32:	3d49      	s32i.n	a4, a13, 12
    2e34:	7e0232        	l8ui	a3, a2, 126
    2e37:	93f440        	movnez	a15, a4, a4
    2e3a:	0fbd      	mov.n	a11, a15
    2e3c:	810222        	l8ui	a2, a2, 129
    2e3f:	043130        	extui	a3, a3, 1, 1
    2e42:	044d32        	s8i	a3, a13, 4
    2e45:	112280        	slli	a2, a2, 8
    2e48:	7ef9      	s32i.n	a15, a14, 28
    2e4a:	209920        	or	a9, a9, a2
    2e4d:	f49090        	extui	a9, a9, 0, 16
    2e50:	085d92        	s16i	a9, a13, 16
    2e53:	839c90        	moveqz	a9, a12, a9
    2e56:	fe99      	s32i.n	a9, a14, 60
    2e58:	09cd      	mov.n	a12, a9
    2e5a:	419190        	srli	a9, a9, 1
    2e5d:	176e92        	s32i	a9, a14, 92
    2e60:	0008e0        	excw
    2e63:	1a0c      	movi.n	a10, 1
    2e65:	0023a5        	excw
    2e68:	f01d      	excw
    2e6a:	b0a2a1        	l32r	a10, 0xfffef0f4
    2e6d:	090c      	movi.n	a9, 0
    2e6f:	8e2e82        	l32i	a8, a14, 0x238
    2e72:	054d92        	s8i	a9, a13, 5
    2e75:	0008e0        	excw
    2e78:	b09c81        	l32r	a8, 0xfffef0e8
    2e7b:	3888      	l32i.n	a8, a8, 12
    2e7d:	6f          	.byte 0x6f
    2e7e:	3f8706        	j	0x12c9e
    2e81:	6f          	.byte 0x6f
    2e82:	8408      	l32i.n	a0, a4, 32
    2e84:	6f2c      	movi.n	a15, 38
    2e86:	14b506        	j	0x815e
    2e89:	251a      	add.n	a2, a5, a1
    2e8b:	076ff7        	bbci	a15, 15, 0x2e96
    2e8e:	6f4bc3        	excw
    2e91:	0e          	.byte 0xe
    2e92:	6f49b7        	ball	a9, a11, 0x2f05
    2e95:	0a1c04        	excw
    2e98:	6ff565        	excw
    2e9b:	1c19      	s32i.n	a1, a12, 4
    2e9d:	a37114        	excw
    2ea0:	862cb0        	excw
    2ea3:	a08260        	addx4	a8, a2, a6
    2ea6:	208870        	or	a8, a8, a7
    2ea9:	0020c0        	memw
    2eac:	b0a4a1        	l32r	a10, 0xfffef13c
    2eaf:	0858      	l32i.n	a5, a8, 0
    2eb1:	b0a591        	l32r	a9, 0xfffef148
    2eb4:	1055a0        	and	a5, a5, a10
    2eb7:	6f5590        	excw
    2eba:	591104        	excw
    2ebd:	6008      	l32i.n	a0, a0, 24
    2ebf:	70a063        	excw
    2ec2:	056f66        	bnei	a15, 6, 0x2ecb
    2ec5:	060b      	addi.n	a0, a6, -1
    2ec7:	401300        	ssl	a3
    2eca:	a15400        	sll	a5, a4
    2ecd:	401200        	ssl	a2
    2ed0:	a14400        	sll	a4, a4
    2ed3:	204450        	or	a4, a4, a5
    2ed6:	6fa651        	l32r	a5, 0xfffded70
    2ed9:	1e8d05        	call0	0x217ac
    2edc:	6f8265        	excw
    2edf:	448306        	j	0x140ef
    2ee2:	401200        	ssl	a2
    2ee5:	b09b51        	l32r	a5, 0xfffef154
    2ee8:	160c      	movi.n	a6, 1
    2eea:	050552        	l8ui	a5, a5, 5
    2eed:	a17600        	sll	a7, a6
    2ef0:	042516        	beqz	a5, 0x2f36
    2ef3:	6f          	.byte 0x6f
    2ef4:	862f04        	excw
    2ef7:	a661a1        	l32r	a10, 0xfffec87c
    2efa:	44ccb0        	extui	a12, a11, 12, 5
    2efd:	207870        	or	a7, a8, a7
    2f00:	056f46        	j	0x44c1
    2f03:	4c9a      	add.n	a4, a12, a9
    2f05:	826682        	s32i	a8, a6, 0x208
    2f08:	6fa3a1        	l32r	a10, 0xfffded94
    2f0b:	723704        	excw
    2f0e:	2c8166        	bnei	a1, 8, 0x2f3e
    2f11:	9089      	s32i.n	a8, a0, 36
    2f13:	a0a0b2        	movi	a11, 160
    2f16:	6fbb      	addi.n	a6, a15, 11
    2f18:	c15c04        	excw
    2f1b:	88b0a4        	excw
    2f1e:	c00b      	addi.n	a12, a0, -1
    2f20:	1088      	l32i.n	a8, a0, 4
    2f22:	0020c0        	memw
    2f25:	0b89      	s32i.n	a8, a11, 0
    2f27:	a09390        	addx4	a9, a3, a9
    2f2a:	056fa0        	extui	a6, a10, 31, 1
    2f2d:	668b      	addi.n	a6, a6, 8
    2f2f:	0989      	s32i.n	a8, a9, 0
    2f31:	6f          	.byte 0x6f
    2f32:	c709      	s32i.n	a0, a7, 48
    2f34:	b0a640        	addx8	a10, a6, a4
    2f37:	401200        	ssl	a2
    2f3a:	150c      	movi.n	a5, 1
    2f3c:	a15500        	sll	a5, a5
    2f3f:	73cc      	bnez.n	a3, 0x2f4a
    2f41:	6f          	.byte 0x6f
    2f42:	10a006        	j	0x71c6
    2f45:	6f          	.byte 0x6f
    2f46:	525006        	j	0x1788a
    2f49:	2c8266        	bnei	a2, 8, 0x2f79
    2f4c:	a189      	s32i.n	a8, a1, 40
    2f4e:	90b0a3        	excw
    2f51:	076f92        	s32i	a9, a15, 28
    2f54:	a4a134        	excw
    2f57:	0988b0        	excw
    2f5a:	066fa0        	excw
    2f5d:	094a      	add.n	a0, a9, a4
    2f5f:	6f          	.byte 0x6f
    2f60:	4ce206        	j	0x162ec
    2f63:	28b0a7        	bgeu	a0, a10, 0x2f8f
    2f66:	05b803        	excw
    2f69:	039b27        	bne	a11, a2, 0x2f70
    2f6c:	020c      	movi.n	a2, 0
    2f6e:	f01d      	excw
    2f70:	023b66        	bnei	a11, 3, 0x2f76
    2f73:	f54226        	beqi	a2, 4, 0x2f6c
    2f76:	b0a891        	l32r	a9, 0xfffef218
    2f79:	094b66        	bnei	a11, 4, 0x2f86
    2f7c:	063266        	bnei	a2, 3, 0x2f86
    2f7f:	180c      	movi.n	a8, 1
    2f81:	0989      	s32i.n	a8, a9, 0
    2f83:	fff946        	j	0x2f6c
    2f86:	09a8      	l32i.n	a10, a9, 0
    2f88:	360c      	movi.n	a6, 3
    2f8a:	0a1a66        	bnei	a10, 1, 0x2f98
    2f8d:	072266        	bnei	a2, 2, 0x2f98
    2f90:	0369      	s32i.n	a6, a3, 0
    2f92:	062d      	mov.n	a2, a6
    2f94:	0c0c      	movi.n	a12, 0
    2f96:	09c9      	s32i.n	a12, a9, 0
    2f98:	b00041        	l32r	a4, 0xfffeef98
    2f9b:	b0a9a1        	l32r	a10, 0xfffef240
    2f9e:	902482        	l32i	a8, a4, 0x240
    2fa1:	6f          	.byte 0x6f
    2fa2:	3ee105        	call0	0x41db4
    2fa5:	0529      	s32i.n	a2, a5, 0
    2fa7:	b09c71        	l32r	a7, 0xfffef218
    2faa:	b09b51        	l32r	a5, 0xfffef218
    2fad:	171226        	beqi	a2, 1, 0x2fc8
    2fb0:	3e2226        	beqi	a2, 2, 0x2ff2
    2fb3:	6b3226        	beqi	a2, 3, 0x3022
    2fb6:	b14266        	bnei	a2, 4, 0x2f6b
    2fb9:	0405b2        	l8ui	a11, a5, 4
    2fbc:	2788      	l32i.n	a8, a7, 8
    2fbe:	0a1c      	movi.n	a10, 16
    2fc0:	0008e0        	excw
    2fc3:	0369      	s32i.n	a6, a3, 0
    2fc5:	ffe886        	j	0x2f6b
    2fc8:	060592        	l8ui	a9, a5, 6
    2fcb:	019980        	slli	a9, a9, 24
    2fce:	319890        	srai	a9, a9, 24
    2fd1:	1519a6        	blti	a9, 1, 0x2fea
    2fd4:	522482        	l32i	a8, a4, 0x148
    2fd7:	6f          	.byte 0x6f
    2fd8:	1d8605        	call0	0x2083c
    2fdb:	6f          	.byte 0x6f
    2fdc:	1409      	s32i.n	a0, a4, 4
    2fde:	990b      	addi.n	a9, a9, -1
    2fe0:	064592        	s8i	a9, a5, 6
    2fe3:	3788      	l32i.n	a8, a7, 12
    2fe5:	0008e0        	excw
    2fe8:	6fde06        	j	0x1ef64
    2feb:	2a0a      	add.n	a2, a10, a0
    2fed:	49dc      	bnez.n	a9, 0x3005
    2fef:	6f          	.byte 0x6f
    2ff0:	6f2904        	excw
    2ff3:	6f4204        	excw
    2ff6:	1309      	s32i.n	a0, a3, 4
    2ff8:	6f1b      	addi.n	a6, a15, 1
    2ffa:	c22904        	excw
    2ffd:	0c0405        	call0	0xf040
    3000:	88fa      	add.n	a8, a8, a15
    3002:	0b1c07        	beq	a12, a0, 0x3011
    3005:	6f          	.byte 0x6f
    3006:	d23004        	excw
    3009:	ff          	.byte 0xff
    300a:	fa0c      	movi.n	a10, 15
    300c:	0b1c      	movi.n	a11, 16
    300e:	1788      	l32i.n	a8, a7, 4
    3010:	0405c2        	l8ui	a12, a5, 4
    3013:	6f          	.byte 0x6f
    3014:	290c      	movi.n	a9, 2
    3016:	0219e6        	bgei	a9, 1, 0x301c
    3019:	ffcb46        	j	0x2f4a
    301c:	6f          	.byte 0x6f
    301d:	066916        	beqz	a9, 0x3087
    3020:	6fffc5        	call0	0x73020
    3023:	248606        	j	0xc23f
    3026:	b00031        	l32r	a3, 0xfffef028
    3029:	050482        	l8ui	a8, a4, 5
    302c:	04b8      	l32i.n	a11, a4, 0
    302e:	88bc      	beqz.n	a8, 0x306a
    3030:	0b98      	l32i.n	a9, a11, 0
    3032:	292926        	beqi	a9, 2, 0x305f
    3035:	642382        	l32i	a8, a3, 0x190
    3038:	ab4b      	addi.n	a10, a11, 4
    303a:	6f          	.byte 0x6f
    303b:	2a8905        	call0	0x2d8cc
    303e:	04b8      	l32i.n	a11, a4, 0
    3040:	632382        	l32i	a8, a3, 0x18c
    3043:	ab4b      	addi.n	a10, a11, 4
    3045:	6f          	.byte 0x6f
    3046:	0fd105        	call0	0x12d58
    3049:	02bd      	mov.n	a11, a2
    304b:	04a8      	l32i.n	a10, a4, 0
    304d:	190c      	movi.n	a9, 1
    304f:	214a92        	s8i	a9, a10, 33
    3052:	8f2382        	l32i	a8, a3, 0x23c
    3055:	6faaa1        	l32r	a10, 0xfffdef00
    3058:	5b8506        	j	0x19e70
    305b:	02bd      	mov.n	a11, a2
    305d:	6f          	.byte 0x6f
    305e:	ab0d04        	excw
    3061:	6f          	.byte 0x6f
    3062:	8509      	s32i.n	a0, a5, 32
    3064:	2168      	l32i.n	a6, a1, 8
    3066:	b09b      	addi.n	a11, a0, 9
    3068:	b00041        	l32r	a4, 0xfffef068
    306b:	02a8      	l32i.n	a10, a2, 0
    306d:	642482        	l32i	a8, a4, 0x190
    3070:	6f4b      	addi.n	a6, a15, 4
    3072:	1dc505        	call0	0x20cc4
    3075:	030c02        	l8ui	a0, a12, 3
    3078:	214b32        	s8i	a3, a11, 33
    307b:	6f          	.byte 0x6f
    307c:	6f1105        	call0	0x72190
    307f:	4e8607        	bany	a6, a0, 0x30d1
    3082:	4b3202        	excw
    3085:	076f41        	l32r	a4, 0xfffc4e44
    3088:	e04410        	subx4	a4, a4, a1
    308b:	0008      	l32i.n	a0, a0, 0
    308d:	02d8      	l32i.n	a13, a2, 0
    308f:	614d32        	s8i	a3, a13, 97
    3092:	02c8      	l32i.n	a12, a2, 0
    3094:	6f39      	s32i.n	a3, a15, 24
    3096:	74a706        	j	0x20336
    3099:	b0a391        	l32r	a9, 0xfffef328
    309c:	882c      	movi.n	a8, 40
    309e:	a08280        	addx4	a8, a2, a8
    30a1:	056f90        	extui	a6, a9, 31, 1
    30a4:	916684        	excw
    30a7:	58b0a4        	excw
    30aa:	9008      	l32i.n	a0, a0, 36
    30ac:	921055        	excw
    30af:	6f00a6        	blti	a0, -1, 0x3122
    30b2:	8408      	l32i.n	a0, a4, 32
    30b4:	130c66        	bnei	a12, -1, 0x30cb
    30b7:	056f41        	l32r	a4, 0xfffc4674
    30ba:	3277b5        	excw
    30bd:	6fc564        	excw
    30c0:	8308      	l32i.n	a0, a3, 32
    30c2:	066f74        	excw
    30c5:	915f84        	excw
    30c8:	52b0a4        	excw
    30cb:	819b25        	excw
    30ce:	b0ac      	beqz.n	a0, 0x30fd
    30d0:	105590        	and	a5, a5, a9
    30d3:	205580        	or	a5, a5, a8
    30d6:	6f          	.byte 0x6f
    30d7:	0e          	.byte 0xe
    30d8:	5949      	s32i.n	a4, a9, 20
    30da:	0c08      	l32i.n	a0, a12, 0
    30dc:	116f03        	excw
    30df:	2138      	l32i.n	a3, a1, 8
    30e1:	82b000        	mull	a11, a0, a0
    30e4:	0c2322        	l32i	a2, a3, 48
    30e7:	e06a      	add.n	a14, a0, a6
    30e9:	0008      	l32i.n	a0, a0, 0
    30eb:	3a0c      	movi.n	a10, 3
    30ed:	290c      	movi.n	a9, 2
    30ef:	b09bb1        	l32r	a11, 0xfffef35c
    30f2:	b03a81        	l32r	a8, 0xfffef1dc
    30f5:	0bd8      	l32i.n	a13, a11, 0
    30f7:	0c0c      	movi.n	a12, 0
    30f9:	214dc2        	s8i	a12, a13, 33
    30fc:	0bb8      	l32i.n	a11, a11, 0
    30fe:	b22882        	l32i	a8, a8, 0x2c8
    3101:	6f          	.byte 0x6f
    3102:	309d05        	call0	0x33ad4
    3105:	b09c81        	l32r	a8, 0xfffef378
    3108:	4888      	l32i.n	a8, a8, 16
    310a:	6f1c      	movi.n	a15, 22
    310c:	508905        	call0	0x539a0
    310f:	a18e22        	excw
    3112:	6fad      	excw
    3114:	5b8706        	j	0x19f34
    3117:	056f24        	excw
    311a:	086f36        	excw
    311d:	004490        	break	4, 9
    3120:	63dcb0        	excw
    3123:	066fb1        	l32r	a11, 0xfffc4ae0
    3126:	2b29a3        	excw
    3129:	eb7783        	excw
    312c:	228217        	bany	a2, a1, 0x3152
    312f:	8f          	.byte 0x8f
    3130:	6faea1        	l32r	a10, 0xfffdefe8
    3133:	c62904        	excw
    3136:	910002        	l8ui	a0, a0, 145
    3139:	af          	.byte 0xaf
    313a:	6fa1b0        	excw
    313d:	208105        	call0	0x23950
    3140:	816a92        	s32i	a9, a10, 0x204
    3143:	2a0c      	movi.n	a10, 2
    3145:	b03a81        	l32r	a8, 0xfffef230
    3148:	b09bb1        	l32r	a11, 0xfffef3b4
    314b:	090c      	movi.n	a9, 0
    314d:	0bc8      	l32i.n	a12, a11, 0
    314f:	2b99      	s32i.n	a9, a11, 8
    3151:	414c92        	s8i	a9, a12, 65
    3154:	6f          	.byte 0x6f
    3155:	660a      	add.n	a6, a6, a0
    3157:	6f          	.byte 0x6f
    3158:	b05c04        	excw
    315b:	6f          	.byte 0x6f
    315c:	61bc05        	call0	0x64d20
    315f:	3019      	s32i.n	a1, a0, 12
    3161:	9339      	s32i.n	a3, a3, 36
    3163:	03ad      	mov.n	a10, a3
    3165:	6fe6a5        	excw
    3168:	6ca006        	j	0x1e3ec
    316b:	6f          	.byte 0x6f
    316c:	c15706        	j	0xffff36cc
    316f:	e1b000        	excw
    3172:	b09b      	addi.n	a11, a0, 9
    3174:	832bb2        	l32i	a11, a11, 0x20c
    3177:	0ee8      	l32i.n	a14, a14, 0
    3179:	0d0c      	movi.n	a13, 0
    317b:	614ed2        	s8i	a13, a14, 97
    317e:	8f2cc2        	l32i	a12, a12, 0x23c
    3181:	07eb67        	bbsi	a11, 6, 0x318c
    3184:	b0b1a1        	l32r	a10, 0xfffef448
    3187:	000ce0        	excw
    318a:	f01d      	excw
    318c:	6fb2a1        	l32r	a10, 0xfffdf054
    318f:	6f0806        	j	0x1edb3
    3192:	1c8f05        	call0	0x1fa84
    3195:	b09b      	addi.n	a11, a0, 9
    3197:	03d8      	l32i.n	a13, a3, 0
    3199:	0d88      	l32i.n	a8, a13, 0
    319b:	632866        	bnei	a8, 2, 0x3202
    319e:	1a1c      	movi.n	a10, 17
    31a0:	b09c81        	l32r	a8, 0xfffef410
    31a3:	390c      	movi.n	a9, 3
    31a5:	5888      	l32i.n	a8, a8, 20
    31a7:	6f          	.byte 0x6f
    31a8:	27d805        	call0	0x2af2c
    31ab:	b00041        	l32r	a4, 0xfffef1ac
    31ae:	6f2482        	l32i	a8, a4, 0x1bc
    31b1:	6c8106        	j	0x1e3b9
    31b4:	6f0392        	l8ui	a9, a3, 111
    31b7:	568412        	excw
    31ba:	6f          	.byte 0x6f
    31bb:	1308      	l32i.n	a0, a3, 4
    31bd:	991b      	addi.n	a9, a9, 1
    31bf:	064392        	s8i	a9, a3, 6
    31c2:	150c      	movi.n	a5, 1
    31c4:	62ec      	bnez.n	a2, 0x31ee
    31c6:	03d8      	l32i.n	a13, a3, 0
    31c8:	610da2        	l8ui	a10, a13, 97
    31cb:	1adc      	bnez.n	a10, 0x31e0
    31cd:	44cda2        	addi	a10, a13, 68
    31d0:	172db2        	l32i	a11, a13, 92
    31d3:	6f2482        	l32i	a8, a4, 0x1bc
    31d6:	73cb06        	j	0x20106
    31d9:	0398      	l32i.n	a9, a3, 0
    31db:	614952        	s8i	a5, a9, 97
    31de:	8e2482        	l32i	a8, a4, 0x238
    31e1:	b0b3a1        	l32r	a10, 0xfffef4b0
    31e4:	0008e0        	excw
    31e7:	000586        	j	0x3201
    31ea:	f01d      	excw
    31ec:	6f          	.byte 0x6f
    31ed:	810b      	addi.n	a8, a1, -1
    31ef:	5f          	.byte 0x5f
    31f0:	046f82        	s32i	a8, a15, 16
    31f3:	b41a      	add.n	a11, a4, a1
    31f5:	6f          	.byte 0x6f
    31f6:	42d805        	call0	0x45f78
    31f9:	0bb203        	excw
    31fc:	0b5641        	l32r	a4, 0xfffc5f54
    31ff:	fe          	.byte 0xfe
    3200:	b0b5a1        	l32r	a10, 0xfffef4d4
    3203:	b0b681        	l32r	a8, 0xfffef4dc
    3206:	090c      	movi.n	a9, 0
    3208:	0888      	l32i.n	a8, a8, 0
    320a:	6f99      	s32i.n	a9, a15, 24
    320c:	759205        	call0	0x78b30
    320f:	b80c      	movi.n	a8, 11
    3211:	248203        	excw
    3214:	cba263        	excw
    3217:	fbb824        	excw
    321a:	6f          	.byte 0x6f
    321b:	52a305        	call0	0x55c4c
    321e:	2329      	s32i.n	a2, a3, 8
    3220:	414c52        	s8i	a5, a12, 65
    3223:	6f          	.byte 0x6f
    3224:	309607        	bne	a6, a0, 0x3258
    3227:	17b000        	excw
    322a:	821872        	l16ui	a7, a8, 0x104
    322d:	a18024        	excw
    3230:	056fb7        	bbci	a15, 11, 0x3239
    3233:	246282        	s32i	a8, a2, 144
    3236:	8e          	.byte 0x8e
    3237:	6fb8a1        	l32r	a10, 0xfffdf118
    323a:	40c005        	call0	0x43e3c
    323d:	f2a503        	excw
    3240:	ff          	.byte 0xff
    3241:	6f          	.byte 0x6f
    3242:	678405        	call0	0x6aa84
    3245:	a18f24        	excw
    3248:	6fb9      	s32i.n	a11, a15, 24
    324a:	678406        	j	0x1d05e
    324d:	945d00        	extui	a5, a0, 13, 10
    3250:	fffd00        	excw
    3253:	ff          	.byte 0xff
    3254:	ff          	.byte 0xff
    3255:	000000        	ill
    3258:	ffff00        	excw
    325b:	ff          	.byte 0xff
    325c:	ff          	.byte 0xff