../git/linux-firmware/./radeon/TAHITI_vce.bin:     file format binary


Disassembly of section .data:

00000000 <.data>:
       0:	000000        	ill
       3:	ba8000        	excw
       6:	050000        	extui	a0, a0, 16, 1
       9:	000000        	ill
       c:	000014        	excw
       f:	cb7901        	l32r	a0, 0xffff2df4
      12:	c76696        	bltz	a6, 0xfffffc8c
      15:	d58581        	l32r	a8, 0xffff562c
      18:	53c965        	excw
      1b:	18c104        	excw
      1e:	7e7205        	call0	0x7e740
      21:	800283        	excw
      24:	cea8      	l32i.n	a10, a14, 48
      26:	f18747        	bany	a7, a4, 0x1b
      29:	f60150        	excw
      2c:	51fae5        	excw
      2f:	3119      	s32i.n	a1, a1, 12
      31:	af          	.byte 0xaf
      32:	3858      	l32i.n	a5, a8, 12
      34:	000015        	excw
      37:	b93801        	l32r	a0, 0xfffee518
      3a:	150c      	movi.n	a5, 1
      3c:	49c8      	l32i.n	a12, a9, 16
      3e:	a31c      	movi.n	a3, 26
      40:	be          	.byte 0xbe
      41:	6c8233        	excw
      44:	7f          	.byte 0x7f
      45:	d3f9      	s32i.n	a15, a3, 52
      47:	d42e54        	excw
      4a:	ef32c6        	j	0xffffbd19
      4d:	980b      	addi.n	a9, a8, -1
      4f:	c4e107        	bbsi	a1, 0, 0x17
      52:	09ef84        	excw
      55:	a941a1        	l32r	a10, 0xfffea55c
      58:	8eb350        	excw
      5b:	16b9      	s32i.n	a11, a6, 4
      5d:	010000        	slli	a0, a0, 32
      60:	deb8      	l32i.n	a11, a14, 52
      62:	6a4ae2        	s8i	a14, a10, 106
      65:	e78b      	addi.n	a14, a7, 8
      67:	4a6d84        	excw
      6a:	db8b52        	excw
      6d:	38aa      	add.n	a3, a8, a10
      6f:	88e056        	bnez	a0, 0xfffff901
      72:	2b2c      	movi.n	a11, 34
      74:	aa3da7        	bltu	a13, a10, 0x22
      77:	077c      	movi.n	a7, -16
      79:	11a8      	l32i.n	a10, a1, 4
      7b:	4b4e11        	l32r	a1, 0xfffd2db4
      7e:	54a7a3        	excw
      81:	fa5d      	excw
      83:	001790        	excw
      86:	3b0100        	excw
      89:	4c2547        	blt	a5, a4, 0xd9
      8c:	9662f7        	bbci	a2, 15, 0x26
      8f:	f99947        	bne	a9, a4, 0x8c
      92:	52aa      	add.n	a5, a2, a10
      94:	cbc8      	l32i.n	a12, a11, 48
      96:	9cd525        	excw
      99:	f319      	s32i.n	a1, a3, 60
      9b:	5fc4b3        	excw
      9e:	4225d7        	blt	a5, a13, 0xe4
      a1:	a1b8      	l32i.n	a11, a1, 40
      a3:	7e          	.byte 0x7e
      a4:	725b42        	s16i	a4, a11, 228
      a7:	a01b      	addi.n	a10, a0, 1
      a9:	d4ba96        	bltz	a10, 0xfffffdf8
      ac:	0018      	l32i.n	a1, a0, 0
      ae:	650100        	extui	a0, a0, 17, 7
      b1:	04f9      	s32i.n	a15, a4, 0
      b3:	2c9ae4        	excw
      b6:	0317d6        	bgez	a7, 0xeb
      b9:	3e85d2        	excw
      bc:	a7b913        	excw
      bf:	1d6d      	excw
      c1:	a1d8      	l32i.n	a13, a1, 40
      c3:	b87892        	excw
      c6:	00dc      	bnez.n	a0, 0xda
      c8:	3e          	.byte 0x3e
      c9:	747b      	addi.n	a7, a4, 7
      cb:	af          	.byte 0xaf
      cc:	7f          	.byte 0x7f
      cd:	0039      	s32i.n	a3, a0, 0
      cf:	3dedb2        	excw
      d2:	004723        	excw
	...
     14d:	1049c5        	call0	0x105ec
     150:	2049d5        	excw
     153:	3049e5        	excw
     156:	0049f5        	excw
     159:	000034        	excw
     15c:	ffdc      	bnez.n	a15, 0x17f
     15e:	d06100        	subx2	a6, a1, a0
     161:	ff          	.byte 0xff
     162:	106100        	and	a6, a1, a0
     165:	610100        	excw
     168:	2f          	.byte 0x2f
     169:	000400        	excw
     16c:	090d      	mov.n	a0, a9
     16e:	006004        	excw
	...
     18d:	1009c5        	call0	0x1022c
     190:	2009d5        	excw
     193:	3009e5        	excw
     196:	0009f5        	excw
     199:	000035        	excw
	...
     1cc:	49c900        	excw
     1cf:	09d100        	excw
     1d2:	49d910        	excw
     1d5:	49e920        	excw
     1d8:	49f930        	excw
     1db:	498040        	excw
     1de:	499050        	excw
     1e1:	49a060        	excw
     1e4:	49b070        	excw
     1e7:	003400        	excw
	...
     20a:	000000        	ill
     20d:	09c9      	s32i.n	a12, a9, 0
     20f:	09d910        	excw
     212:	09e920        	excw
     215:	09d170        	excw
     218:	09f930        	excw
     21b:	098740        	excw
     21e:	099750        	excw
     221:	09a760        	excw
     224:	09b770        	excw
     227:	003500        	excw
	...
     24a:	000000        	ill
     24d:	49cd      	excw
     24f:	09d100        	excw
     252:	49dd10        	excw
     255:	49ed20        	excw
     258:	49fd30        	excw
     25b:	494040        	excw
     25e:	495050        	excw
     261:	496060        	excw
     264:	497070        	excw
     267:	498080        	excw
     26a:	499090        	excw
     26d:	49a0a0        	excw
     270:	49b0b0        	excw
     273:	003400        	excw
	...
     28a:	000000        	ill
     28d:	09cd      	mov.n	a12, a9
     28f:	09dd10        	excw
     292:	09ed20        	excw
     295:	09d1b0        	excw
     298:	09fd30        	excw
     29b:	094b40        	excw
     29e:	095b50        	excw
     2a1:	096b60        	excw
     2a4:	097b70        	excw
     2a7:	098b80        	excw
     2aa:	099b90        	excw
     2ad:	09aba0        	excw
     2b0:	09bbb0        	excw
     2b3:	003500        	excw
	...
     2ca:	0c0000        	excw
     2cd:	e40000        	extui	a0, a0, 0, 15
     2d0:	000013        	excw
     2d3:	010013        	excw
     2d6:	020013        	excw
     2d9:	030013        	excw
     2dc:	040013        	excw
     2df:	050013        	excw
     2e2:	201013        	excw
     2e5:	490000        	excw
     2e8:	480013        	excw
     2eb:	201013        	excw
     2ee:	680000        	excw
     2f1:	800013        	excw
     2f4:	810013        	excw
     2f7:	900013        	excw
     2fa:	910013        	excw
     2fd:	a00013        	excw
     300:	a10013        	excw
     303:	203013        	excw
     306:	b10000        	sra	a0, a0
     309:	b20013        	excw
     30c:	b30013        	excw
     30f:	c20013        	excw
     312:	c30013        	excw
     315:	d10013        	excw
     318:	d20013        	excw
     31b:	d30013        	excw
     31e:	e80013        	excw
     321:	ea0013        	excw
     324:	f00013        	excw
     327:	f10013        	excw
     32a:	f20013        	excw
     32d:	f20c13        	excw
     330:	13e620        	wsr.ps	a2
     333:	002010        	rsync
     336:	024c      	movi.n	a2, 64
     338:	030c      	movi.n	a3, 0
     33a:	0e8276        	excw
     33d:	0373d2        	excw
     340:	4373d2        	excw
     343:	8373d2        	excw
     346:	c373d2        	excw
     349:	01d332        	addmi	a3, a3, 0x100
     34c:	002000        	isync
     34f:	40a022        	movi	a2, 64
     352:	00a032        	movi	a3, 0
     355:	0e8276        	excw
     358:	0073f2        	excw
     35b:	1073f2        	excw
     35e:	2073f2        	excw
     361:	3073f2        	excw
     364:	01d332        	addmi	a3, a3, 0x100
     367:	002000        	isync
     36a:	024c      	movi.n	a2, 64
     36c:	030c      	movi.n	a3, 0
     36e:	0e8276        	excw
     371:	037382        	excw
     374:	437382        	excw
     377:	837382        	excw
     37a:	c37382        	excw
     37d:	01d332        	addmi	a3, a3, 0x100
     380:	002030        	dsync
     383:	20a022        	movi	a2, 32
     386:	00a032        	movi	a3, 0
     389:	0e8276        	excw
     38c:	007372        	excw
     38f:	107372        	excw
     392:	207372        	excw
     395:	307372        	excw
     398:	01d332        	addmi	a3, a3, 0x100
     39b:	002030        	dsync
     39e:	250c      	movi.n	a5, 2
     3a0:	015540        	slli	a5, a5, 28
     3a3:	030c      	movi.n	a3, 0
     3a5:	f40c      	movi.n	a4, 15
     3a7:	506340        	witlb	a4, a3
     3aa:	335a      	add.n	a3, a3, a5
     3ac:	506340        	witlb	a4, a3
     3af:	335a      	add.n	a3, a3, a5
     3b1:	506340        	witlb	a4, a3
     3b4:	335a      	add.n	a3, a3, a5
     3b6:	440c      	movi.n	a4, 4
     3b8:	000006        	j	0x3bc
     3bb:	634000        	excw
     3be:	200050        	or	a0, a0, a5
     3c1:	20f000        	or	a15, a0, a0
     3c4:	20f000        	or	a15, a0, a0
     3c7:	335a00        	excw
     3ca:	f40c      	movi.n	a4, 15
     3cc:	506340        	witlb	a4, a3
     3cf:	335a      	add.n	a3, a3, a5
     3d1:	506340        	witlb	a4, a3
     3d4:	335a      	add.n	a3, a3, a5
     3d6:	506340        	witlb	a4, a3
     3d9:	335a      	add.n	a3, a3, a5
     3db:	506340        	witlb	a4, a3
     3de:	002000        	isync
     3e1:	030c      	movi.n	a3, 0
     3e3:	f40c      	movi.n	a4, 15
     3e5:	50e340        	wdtlb	a4, a3
     3e8:	335a      	add.n	a3, a3, a5
     3ea:	50e340        	wdtlb	a4, a3
     3ed:	335a      	add.n	a3, a3, a5
     3ef:	50e340        	wdtlb	a4, a3
     3f2:	335a      	add.n	a3, a3, a5
     3f4:	440c      	movi.n	a4, 4
     3f6:	50e340        	wdtlb	a4, a3
     3f9:	335a      	add.n	a3, a3, a5
     3fb:	240c      	movi.n	a4, 2
     3fd:	50e340        	wdtlb	a4, a3
     400:	335a      	add.n	a3, a3, a5
     402:	f40c      	movi.n	a4, 15
     404:	50e340        	wdtlb	a4, a3
     407:	335a      	add.n	a3, a3, a5
     409:	240c      	movi.n	a4, 2
     40b:	50e340        	wdtlb	a4, a3
     40e:	335a      	add.n	a3, a3, a5
     410:	f40c      	movi.n	a4, 15
     412:	50e340        	wdtlb	a4, a3
     415:	002030        	dsync
     418:	023c      	movi.n	a2, 48
     41a:	13e320        	wsr.intclear	a2
     41d:	04a002        	movi	a0, 4
     420:	800b      	addi.n	a8, a0, -1
     422:	000c      	movi.n	a0, 0
     424:	010c      	movi.n	a1, 0
     426:	020c      	movi.n	a2, 0
     428:	030c      	movi.n	a3, 0
     42a:	040c      	movi.n	a4, 0
     42c:	050c      	movi.n	a5, 0
     42e:	060c      	movi.n	a6, 0
     430:	070c      	movi.n	a7, 0
     432:	408020        	excw
     435:	fe7056        	bnez	a0, 0x420
     438:	110c      	movi.n	a1, 1
     43a:	000c      	movi.n	a0, 0
     43c:	134910        	excw
     43f:	134800        	excw
     442:	002000        	isync
     445:	002010        	rsync
     448:	ff4511        	l32r	a1, 0x15c (0x6100ffdc)
     44b:	ff4521        	l32r	a2, 0x160 (0x6100ffd0)
     44e:	ff4531        	l32r	a3, 0x164 (0x61010010)
     451:	0239      	s32i.n	a3, a2, 0
     453:	ff4531        	l32r	a3, 0x168 (0x4002f)
     456:	13e630        	wsr.ps	a3
     459:	002010        	rsync
     45c:	006020        	rsil	a2, 0
     45f:	ff4321        	l32r	a2, 0x16c (0x6004090d)
     462:	130520        	wsr.litbase	a2
     465:	00b0e5        	excw
     468:	0a2d      	mov.n	a2, a10
     46a:	ff9786        	j	0x2cc
     46d:	000000        	ill
     470:	1139      	s32i.n	a3, a1, 4
     472:	2149      	s32i.n	a4, a1, 8
     474:	3159      	s32i.n	a5, a1, 12
     476:	4169      	s32i.n	a6, a1, 16
     478:	5179      	s32i.n	a7, a1, 20
     47a:	6189      	s32i.n	a8, a1, 24
     47c:	7199      	s32i.n	a9, a1, 28
     47e:	81a9      	s32i.n	a10, a1, 32
     480:	91b9      	s32i.n	a11, a1, 36
     482:	a1c9      	s32i.n	a12, a1, 40
     484:	b1d9      	s32i.n	a13, a1, 44
     486:	c1e9      	s32i.n	a14, a1, 48
     488:	d1f9      	s32i.n	a15, a1, 52
     48a:	030020        	excw
     48d:	030130        	excw
     490:	e129      	s32i.n	a2, a1, 56
     492:	f139      	s32i.n	a3, a1, 60
     494:	030220        	excw
     497:	030330        	rsr.sar	a3
     49a:	106122        	s32i	a2, a1, 64
     49d:	116132        	s32i	a3, a1, 68
     4a0:	03e620        	rsr.ps	a2
     4a3:	03b130        	rsr.epc1	a3
     4a6:	126122        	s32i	a2, a1, 72
     4a9:	136132        	s32i	a3, a1, 76
     4ac:	036c      	movi.n	a3, -32
     4ae:	102230        	and	a2, a2, a3
     4b1:	222b      	addi.n	a2, a2, 2
     4b3:	13e620        	wsr.ps	a2
     4b6:	01d112        	addmi	a1, a1, 0x100
     4b9:	80c112        	addi	a1, a1, -128
     4bc:	002010        	rsync
     4bf:	201110        	or	a1, a1, a1
     4c2:	000515        	excw
     4c5:	80c112        	addi	a1, a1, -128
     4c8:	112132        	l32i	a3, a1, 68
     4cb:	102122        	l32i	a2, a1, 64
     4ce:	130330        	wsr.sar	a3
     4d1:	130220        	excw
     4d4:	f138      	l32i.n	a3, a1, 60
     4d6:	e128      	l32i.n	a2, a1, 56
     4d8:	130130        	excw
     4db:	130020        	excw
     4de:	122122        	l32i	a2, a1, 72
     4e1:	132132        	l32i	a3, a1, 76
     4e4:	13e620        	wsr.ps	a2
     4e7:	13b130        	wsr.epc1	a3
     4ea:	002010        	rsync
     4ed:	d1f8      	l32i.n	a15, a1, 52
     4ef:	c1e8      	l32i.n	a14, a1, 48
     4f1:	b1d8      	l32i.n	a13, a1, 44
     4f3:	a1c8      	l32i.n	a12, a1, 40
     4f5:	91b8      	l32i.n	a11, a1, 36
     4f7:	81a8      	l32i.n	a10, a1, 32
     4f9:	7198      	l32i.n	a9, a1, 28
     4fb:	6188      	l32i.n	a8, a1, 24
     4fd:	5178      	l32i.n	a7, a1, 20
     4ff:	4168      	l32i.n	a6, a1, 16
     501:	3158      	l32i.n	a5, a1, 12
     503:	2148      	l32i.n	a4, a1, 8
     505:	1138      	l32i.n	a3, a1, 4
     507:	0128      	l32i.n	a2, a1, 0
     509:	01d112        	addmi	a1, a1, 0x100
     50c:	80c112        	addi	a1, a1, -128
     50f:	003000        	rfe
     512:	360000        	excw
     515:	200101        	l32r	a0, 0xfffc851c
     518:	400061        	l32r	a6, 0xfffd0518
     51b:	5003e2        	l8ui	a14, a3, 80
     51e:	2103e4        	excw
     521:	0388      	l32i.n	a8, a3, 0
     523:	104450        	and	a4, a4, a5
     526:	104420        	and	a4, a4, a2
     529:	004456        	bnez	a4, 0x531
     52c:	006f20        	rsil	a2, 15
     52f:	f01d      	excw
     531:	40f430        	nsau	a3, a4
     534:	f21c      	movi.n	a2, 31
     536:	c03230        	sub	a3, a2, a3
     539:	401300        	ssl	a3
     53c:	038941        	l32r	a4, 0xfffc1360
     53f:	b04340        	addx8	a4, a3, a4
     542:	639c      	beqz.n	a3, 0x55c
     544:	120c      	movi.n	a2, 1
     546:	a12200        	sll	a2, a2
     549:	13e320        	wsr.intclear	a2
     54c:	002422        	l32i	a2, a4, 0
     54f:	012462        	l32i	a6, a4, 4
     552:	fc4216        	beqz	a2, 0x51a
     555:	0002d0        	excw
     558:	ffef86        	j	0x51a
     55b:	f02000        	subx8	a2, a0, a0
     55e:	f02003        	excw
     561:	042813        	excw
     564:	1468      	l32i.n	a6, a4, 4
     566:	fb0216        	beqz	a2, 0x51a
     569:	0002d0        	excw
     56c:	ffea86        	j	0x51a
     56f:	213600        	srai	a3, a0, 6
     572:	ea3000        	excw
     575:	332a03        	excw
     578:	13f030        	wsr.ccompare0	a3
     57b:	f01d      	excw
     57d:	000000        	ill
     580:	002136        	excw
     583:	09c2f6        	bgeui	a2, 32, 0x590
     586:	038951        	l32r	a5, 0xfffc13ac
     589:	b02250        	addx8	a2, a2, a5
     58c:	0239      	s32i.n	a3, a2, 0
     58e:	1249      	s32i.n	a4, a2, 4
     590:	f01d      	excw
	...
     6ca:	220000        	excw
     6cd:	0eac      	beqz.n	a14, 0x6f1
     6cf:	ff65c6        	j	0x46a
	...
     6ea:	220000        	excw
     6ed:	18ac      	beqz.n	a8, 0x712
     6ef:	ff5dc6        	j	0x46a
	...
     70a:	100000        	and	a0, a0, a0
     70d:	000034        	excw
	...
     72c:	80c112        	addi	a1, a1, -128
     72f:	0129      	s32i.n	a2, a1, 0
     731:	03e820        	rsr.exccause	a2
     734:	024266        	bnei	a2, 4, 0x73a
     737:	ff4d46        	j	0x470
     73a:	0128      	l32i.n	a2, a1, 0
     73c:	01d112        	addmi	a1, a1, 0x100
     73f:	80c112        	addi	a1, a1, -128
     742:	17ac22        	movi	a2, 0xfffffc17
     745:	ff4846        	j	0x46a
     748:	000000        	ill
     74b:	ac2200        	excw
     74e:	45c616        	beqz	a6, 0xbae
     751:	ff          	.byte 0xff
     752:	360000        	excw
     755:	400021        	l32r	a2, 0xfffd0758
     758:	6f          	.byte 0x6f
     759:	e43000        	extui	a3, a0, 0, 15
     75c:	332003        	excw
     75f:	e43020        	extui	a3, a2, 0, 15
     762:	e64013        	excw
     765:	201013        	excw
     768:	f01d00        	subx8	a1, a13, a0
     76b:	213600        	srai	a3, a0, 6
     76e:	6f4000        	excw
     771:	e43000        	extui	a3, a0, 0, 15
     774:	332003        	excw
     777:	332020        	excw
     77a:	e43030        	extui	a3, a3, 0, 15
     77d:	e64013        	excw
     780:	201013        	excw
     783:	f01d00        	subx8	a1, a13, a0
     786:	000000        	ill
     789:	000000        	ill
     78c:	ff3686        	j	0x46a
     78f:	213600        	srai	a3, a0, 6
     792:	ea2000        	excw
     795:	f01d03        	excw
     798:	002136        	excw
     79b:	13f020        	wsr.ccompare0	a2
     79e:	002000        	isync
     7a1:	f01d      	excw
     7a3:	213600        	srai	a3, a0, 6
     7a6:	f22000        	excw
     7a9:	200013        	excw
     7ac:	f01d00        	subx8	a1, a13, a0
     7af:	213600        	srai	a3, a0, 6
     7b2:	f02000        	subx8	a2, a0, a0
     7b5:	f01d03        	excw
	...
     94c:	00ba80        	excw
     94f:	000060        	excw
	...
     95a:	9e0000        	excw
     95d:	600014        	excw
     960:	9e          	.byte 0x9e
     961:	600014        	excw
     964:	150d      	excw
     966:	5c6000        	excw
     969:	600014        	excw
     96c:	001613        	excw
     96f:	15f260        	extui	a15, a6, 18, 2
     972:	cd6000        	excw
     975:	600015        	excw
     978:	9e          	.byte 0x9e
     979:	600014        	excw
     97c:	5e          	.byte 0x5e
     97d:	600015        	excw
	...
     98c:	001e71        	l32r	a7, 0xfffc0a04
     98f:	1eb060        	excw
     992:	a76000        	excw
     995:	1e          	.byte 0x1e
     996:	9e6000        	excw
     999:	1e          	.byte 0x1e
     99a:	956000        	extui	a6, a0, 16, 10
     99d:	1e          	.byte 0x1e
     99e:	8c6000        	excw
     9a1:	1e          	.byte 0x1e
     9a2:	836000        	moveqz	a6, a0, a0
     9a5:	1e          	.byte 0x1e
     9a6:	7a6000        	excw
     9a9:	1e          	.byte 0x1e
     9aa:	016000        	slli	a6, a0, 32
     9ad:	010101        	l32r	a0, 0xfffc0db4
     9b0:	020202        	l8ui	a0, a2, 2
     9b3:	030302        	l8ui	a0, a3, 3
     9b6:	040403        	excw
     9b9:	060504        	excw
     9bc:	080706        	j	0x29dc
     9bf:	0a09      	s32i.n	a0, a10, 0
     9c1:	0d0b      	addi.n	a0, a13, -1
     9c3:	0e          	.byte 0xe
     9c4:	141210        	extui	a1, a1, 2, 2
     9c7:	1d1917        	beq	a9, a1, 0x9e8
     9ca:	282420        	excw
     9cd:	332d      	excw
     9cf:	4039      	s32i.n	a3, a0, 16
     9d1:	5148      	l32i.n	a4, a1, 20
     9d3:	005b      	addi.n	a0, a0, 5
     9d5:	000000        	ill
     9d8:	000000        	ill
     9db:	000600        	excw
     9de:	050000        	extui	a0, a0, 16, 1
     9e1:	000000        	ill
     9e4:	000005        	call0	0x9e8
     9e7:	000400        	excw
     9ea:	040000        	extui	a0, a0, 0, 1
     9ed:	000000        	ill
     9f0:	000003        	excw
     9f3:	000300        	excw
     9f6:	030000        	excw
     9f9:	000000        	ill
     9fc:	000002        	l8ui	a0, a0, 0
     9ff:	000200        	excw
     a02:	010000        	slli	a0, a0, 32
     a05:	000000        	ill
     a08:	000001        	l32r	a0, 0xfffc0a08
     a0b:	000100        	excw
     a0e:	010000        	slli	a0, a0, 32
     a11:	000000        	ill
     a14:	000001        	l32r	a0, 0xfffc0a14
	...
     a2b:	001400        	excw
	...
     a3a:	420000        	excw
     a3d:	0089      	s32i.n	a8, a0, 0
     a3f:	87ac60        	excw
     a42:	006000        	rsil	a0, 0
     a45:	0089      	s32i.n	a8, a0, 0
     a47:	88a360        	excw
     a4a:	676000        	excw
     a4d:	0088      	l32i.n	a8, a0, 0
     a4f:	884860        	excw
     a52:	ec6000        	excw
     a55:	600087        	bnone	a0, a8, 0xab9
     a58:	fdfe00        	excw
     a5b:	9f          	.byte 0x9f
     a5c:	00ba90        	excw
     a5f:	bbdc60        	excw
     a62:	4c6000        	excw
     a65:	5e          	.byte 0x5e
     a66:	000001        	l32r	a0, 0xfffc0a68
     a69:	620000        	excw
     a6c:	c28c      	beqz.n	a2, 0xa7c
     a6e:	846000        	extui	a6, a0, 0, 9
     a71:	0008      	l32i.n	a0, a0, 0
     a73:	0e0000        	excw
     a76:	fe          	.byte 0xfe
     a77:	9f          	.byte 0x9f
     a78:	100000        	and	a0, a0, a0
     a7b:	000000        	ill
     a7e:	000001        	l32r	a0, 0xfffc0a80
     a81:	000400        	excw
     a84:	fe0a00        	excw
     a87:	9f          	.byte 0x9f
     a88:	ff          	.byte 0xff
     a89:	ff          	.byte 0xff
     a8a:	ef          	.byte 0xef
     a8b:	ff          	.byte 0xff
     a8c:	40c8      	l32i.n	a12, a0, 16
     a8e:	006000        	rsil	a0, 0
     a91:	0008      	l32i.n	a0, a0, 0
     a93:	100000        	and	a0, a0, a0
     a96:	ff0000        	excw
     a99:	df          	.byte 0xdf
     a9a:	df          	.byte 0xdf
     a9b:	ff          	.byte 0xff
     a9c:	3fdc      	bnez.n	a15, 0xab3
     a9e:	a06000        	addx4	a6, a0, a0
     aa1:	3f          	.byte 0x3f
     aa2:	006000        	rsil	a0, 0
     aa5:	001800        	excw
     aa8:	416c      	movi.n	a1, -28
     aaa:	006000        	rsil	a0, 0
     aad:	000080        	ret
     ab0:	1748      	l32i.n	a4, a7, 4
     ab2:	806002        	s32i	a0, a0, 0x200
     ab5:	08f0d1        	l32r	a13, 0xfffc2e78
     ab8:	1918      	l32i.n	a1, a9, 4
     aba:	a40000        	extui	a0, a0, 0, 11
     abd:	0019      	s32i.n	a1, a0, 0
     abf:	188c00        	excw
     ac2:	ff6002        	s32i	a0, a0, 0x3fc
     ac5:	cf          	.byte 0xcf
     ac6:	ff          	.byte 0xff
     ac7:	ff          	.byte 0xff
     ac8:	00bbe4        	excw
     acb:	300060        	xor	a0, a0, a6
     ace:	400000        	ssr	a0
     ad1:	0008      	l32i.n	a0, a0, 0
     ad3:	019000        	slli	a9, a0, 32
     ad6:	fe          	.byte 0xfe
     ad7:	9f          	.byte 0x9f
     ad8:	017c      	movi.n	a1, -16
     ada:	fe          	.byte 0xfe
     adb:	9f          	.byte 0x9f
     adc:	018c      	beqz.n	a1, 0xae0
     ade:	fe          	.byte 0xfe
     adf:	9f          	.byte 0x9f
     ae0:	0178      	l32i.n	a7, a1, 0
     ae2:	fe          	.byte 0xfe
     ae3:	9f          	.byte 0x9f
     ae4:	0188      	l32i.n	a8, a1, 0
     ae6:	fe          	.byte 0xfe
     ae7:	9f          	.byte 0x9f
     ae8:	fe0174        	excw
     aeb:	9f          	.byte 0x9f
     aec:	fe0180        	excw
     aef:	9f          	.byte 0x9f
     af0:	016c      	movi.n	a1, -32
     af2:	fe          	.byte 0xfe
     af3:	9f          	.byte 0x9f
     af4:	fe0184        	excw
     af7:	9f          	.byte 0x9f
     af8:	fe0170        	excw
     afb:	9f          	.byte 0x9f
     afc:	000810        	excw
     aff:	c27060        	excw
     b02:	686000        	excw
     b05:	6000c4        	excw
     b08:	000001        	l32r	a0, 0xfffc0b08
     b0b:	000204        	excw
     b0e:	010400        	slli	a0, a4, 32
     b11:	010000        	slli	a0, a0, 32
     b14:	000004        	excw
     b17:	000501        	l32r	a0, 0xfffc0b2c
     b1a:	070400        	excw
     b1d:	040000        	extui	a0, a0, 0, 1
     b20:	000d      	mov.n	a0, a0
     b22:	080400        	excw
     b25:	050000        	extui	a0, a0, 16, 1
     b28:	000001        	l32r	a0, 0xfffc0b28
     b2b:	17a802        	movi	a0, 0xfffff817
     b2e:	010000        	slli	a0, a0, 32
     b31:	100000        	and	a0, a0, a0
     b34:	000002        	l8ui	a0, a0, 0
     b37:	000403        	excw
     b3a:	060400        	excw
     b3d:	040000        	extui	a0, a0, 0, 1
     b40:	000002        	l8ui	a0, a0, 0
     b43:	000605        	call0	0xba4
     b46:	010500        	slli	a0, a5, 32
     b49:	030000        	excw
     b4c:	000b      	addi.n	a0, a0, -1
     b4e:	010400        	slli	a0, a4, 32
     b51:	050000        	extui	a0, a0, 16, 1
     b54:	000002        	l8ui	a0, a0, 0
     b57:	193801        	l32r	a0, 0xfffc7038
     b5a:	040000        	extui	a0, a0, 0, 1
     b5d:	030000        	excw
     b60:	0009      	s32i.n	a0, a0, 0
     b62:	0a0400        	excw
     b65:	040000        	extui	a0, a0, 0, 1
     b68:	000003        	excw
     b6b:	000503        	excw
     b6e:	030100        	excw
     b71:	040000        	extui	a0, a0, 0, 1
     b74:	000003        	excw
     b77:	000401        	l32r	a0, 0xfffc0b88
     b7a:	050500        	extui	a0, a0, 21, 1
     b7d:	050000        	extui	a0, a0, 16, 1
     b80:	0008      	l32i.n	a0, a0, 0
     b82:	0c0400        	excw
     b85:	040000        	extui	a0, a0, 0, 1
     b88:	000003        	excw
     b8b:	0f6c05        	call0	0x1024c
     b8e:	070002        	l8ui	a0, a0, 7
     b91:	050000        	extui	a0, a0, 16, 1
     b94:	000a      	add.n	a0, a0, a0
     b96:	480500        	excw
     b99:	00ca      	add.n	a0, a0, a12
     b9b:	088c60        	excw
     b9e:	000000        	ill
     ba1:	9ffc00        	excw
     ba4:	000840        	excw
     ba7:	000060        	excw
     baa:	008000        	excw
     bad:	080000        	excw
     bb0:	020e60        	excw
     bb3:	000000        	ill
     bb6:	580f00        	excw
     bb9:	0f          	.byte 0xf
     bba:	000002        	l8ui	a0, a0, 0
     bbd:	0e0000        	excw
     bc0:	020f54        	excw
     bc3:	000000        	ill
     bc6:	500d00        	excw
     bc9:	0f          	.byte 0xf
     bca:	000002        	l8ui	a0, a0, 0
     bcd:	0c0000        	excw
     bd0:	0f4c      	movi.n	a15, 64
     bd2:	000002        	l8ui	a0, a0, 0
     bd5:	0b0000        	excw
     bd8:	0f48      	l32i.n	a4, a15, 0
     bda:	000002        	l8ui	a0, a0, 0
     bdd:	0a0000        	excw
     be0:	020f44        	excw
     be3:	000000        	ill
     be6:	940900        	extui	a0, a0, 9, 10
     be9:	0e          	.byte 0xe
     bea:	300002        	l8ui	a0, a0, 48
     bed:	020a      	add.n	a0, a2, a0
     bef:	020000        	excw
     bf2:	fe          	.byte 0xfe
     bf3:	9f          	.byte 0x9f
     bf4:	f7fff7        	bbsi	a15, 31, 0xbef
     bf7:	ff          	.byte 0xff
     bf8:	080000        	excw
     bfb:	ffff00        	excw
     bfe:	ff          	.byte 0xff
     bff:	bf          	.byte 0xbf
     c00:	ff          	.byte 0xff
     c01:	ff          	.byte 0xff
     c02:	ff          	.byte 0xff
     c03:	7f          	.byte 0x7f
     c04:	fe0600        	excw
     c07:	9f          	.byte 0x9f
     c08:	100004        	excw
     c0b:	000600        	excw
     c0e:	ff0010        	excw
     c11:	ff          	.byte 0xff
     c12:	ff          	.byte 0xff
     c13:	fefc      	bnez.n	a14, 0xc56
     c15:	ff          	.byte 0xff
     c16:	ff0000        	excw
     c19:	ff          	.byte 0xff
     c1a:	ff          	.byte 0xff
     c1b:	000000        	ill
     c1e:	000040        	excw
     c21:	030000        	excw
     c24:	0015e4        	excw
     c27:	008000        	excw
     c2a:	dc0320        	excw
     c2d:	600215        	excw
     c30:	ff          	.byte 0xff
     c31:	ff          	.byte 0xff
     c32:	1f          	.byte 0x1f
     c33:	000000        	ill
     c36:	dcffc0        	excw
     c39:	0218      	l32i.n	a1, a2, 0
     c3b:	7ffe60        	excw
     c3e:	000000        	ill
     c41:	000f00        	excw
     c44:	001c40        	excw
     c47:	1b6800        	excw
     c4a:	d00000        	subx2	a0, a0, a0
     c4d:	001b      	addi.n	a0, a0, 1
     c4f:	000000        	ill
     c52:	ff3e00        	excw
     c55:	ff          	.byte 0xff
     c56:	ff          	.byte 0xff
     c57:	0860c1        	l32r	a12, 0xfffc2dd8
     c5a:	fd6000        	excw
     c5d:	1f          	.byte 0x1f
     c5e:	3c0000        	excw
     c61:	000012        	l8ui	a1, a0, 0
     c64:	fe          	.byte 0xfe
     c65:	000070        	excw
     c68:	0028      	l32i.n	a2, a0, 0
     c6a:	000060        	excw
     c6d:	001206        	j	0xcb9
     c70:	0008      	l32i.n	a0, a0, 0
     c72:	0f0011        	l32r	a1, 0xfffc4874
     c75:	ff          	.byte 0xff
     c76:	00ff00        	excw
     c79:	010000        	slli	a0, a0, 32
     c7c:	004000        	break	0, 0
     c7f:	1be000        	excw
     c82:	000000        	ill
     c85:	002000        	isync
     c88:	015d70        	slli	a5, a13, 25
     c8b:	200000        	or	a0, a0, a0
     c8e:	700000        	excw
     c91:	015b      	addi.n	a0, a1, 5
     c93:	000000        	ill
     c96:	680080        	excw
     c99:	015b      	addi.n	a0, a1, 5
     c9b:	000000        	ill
     c9e:	ff          	.byte 0xff
     c9f:	ff          	.byte 0xff
     ca0:	5d68      	l32i.n	a6, a13, 20
     ca2:	7c0001        	l32r	a0, 0xfffdfca4
     ca5:	015b      	addi.n	a0, a1, 5
     ca7:	efff00        	excw
     caa:	0009      	s32i.n	a0, a0, 0
     cac:	04f800        	extui	a15, a0, 8, 1
     caf:	f00000        	subx8	a0, a0, a0
     cb2:	0009      	s32i.n	a0, a0, 0
     cb4:	1e4c      	movi.n	a14, 65
     cb6:	e40000        	extui	a0, a0, 0, 15
     cb9:	000017        	bnone	a0, a1, 0xcbd
     cbc:	020f64        	excw
     cbf:	0f6800        	excw
     cc2:	140002        	l8ui	a0, a0, 20
     cc5:	000017        	bnone	a0, a1, 0xcc9
     cc8:	001a40        	excw
     ccb:	1b9800        	excw
     cce:	000000        	ill
     cd1:	00f000        	excw
     cd4:	001b70        	excw
     cd7:	1c5c00        	excw
     cda:	1c0000        	excw
     cdd:	001b      	addi.n	a0, a0, 1
     cdf:	162800        	excw
     ce2:	d40000        	extui	a0, a0, 0, 14
     ce5:	3e          	.byte 0x3e
     ce6:	7f6000        	excw
     ce9:	ff          	.byte 0xff
     cea:	7f          	.byte 0x7f
     ceb:	ff          	.byte 0xff
     cec:	ff          	.byte 0xff
     ced:	0bebc1        	l32r	a12, 0xfffc3c9c
     cf0:	001ac0        	excw
     cf3:	ffff00        	excw
     cf6:	fff000        	excw
     cf9:	ef          	.byte 0xef
     cfa:	ff          	.byte 0xff
     cfb:	ff          	.byte 0xff
     cfc:	1b48      	l32i.n	a4, a11, 4
     cfe:	f40000        	extui	a0, a0, 0, 16
     d01:	000016        	beqz	a0, 0xd05
     d04:	1958      	l32i.n	a5, a9, 4
     d06:	000000        	ill
     d09:	ee          	.byte 0xee
     d0a:	5c0002        	l8ui	a0, a0, 92
     d0d:	0f          	.byte 0xf
     d0e:	600002        	l8ui	a0, a0, 96
     d11:	0f          	.byte 0xf
     d12:	f00002        	l8ui	a0, a0, 240
     d15:	ffff00        	excw
     d18:	1a2c      	movi.n	a10, 33
     d1a:	ff6002        	s32i	a0, a0, 0x3fc
     d1d:	7f          	.byte 0x7f
     d1e:	be          	.byte 0xbe
     d1f:	ff          	.byte 0xff
     d20:	1c3c      	movi.n	a12, 49
     d22:	b40000        	extui	a0, a0, 0, 12
     d25:	0019      	s32i.n	a1, a0, 0
     d27:	195c00        	excw
     d2a:	a00000        	addx4	a0, a0, a0
     d2d:	0019      	s32i.n	a1, a0, 0
     d2f:	0c7f00        	excw
     d32:	ff0000        	excw
     d35:	018b      	addi.n	a0, a1, 8
     d37:	1afc00        	excw
     d3a:	000000        	ill
     d3d:	c00000        	sub	a0, a0, a0
     d40:	000000        	ill
     d43:	ffff40        	excw
     d46:	3f          	.byte 0x3f
     d47:	089000        	excw
     d4a:	886000        	excw
     d4d:	001b      	addi.n	a0, a0, 1
     d4f:	000100        	excw
     d52:	848000        	extui	a8, a0, 0, 9
     d55:	001b      	addi.n	a0, a0, 1
     d57:	1b3400        	excw
     d5a:	ff0000        	excw
     d5d:	ff          	.byte 0xff
     d5e:	fe          	.byte 0xfe
     d5f:	ff          	.byte 0xff
     d60:	3f28      	l32i.n	a2, a15, 12
     d62:	3f6000        	excw
     d65:	0000f0        	excw
     d68:	0f          	.byte 0xf
     d69:	fe          	.byte 0xfe
     d6a:	070000        	excw
     d6d:	00f8      	l32i.n	a15, a0, 0
     d6f:	5f9000        	excw
     d72:	f00001        	l32r	a0, 0xffffcd74
     d75:	0f          	.byte 0xf
     d76:	000000        	ill
     d79:	400400        	ssr	a4
     d7c:	300020        	xor	a0, a0, a2
     d7f:	000000        	ill
     d82:	7e          	.byte 0x7e
     d83:	50b700        	rdtlb0	a0, a7
     d86:	000000        	ill
     d89:	ff          	.byte 0xff
     d8a:	000000        	ill
     d8d:	00ff00        	excw
     d90:	000000        	ill
     d93:	ff          	.byte 0xff
     d94:	001bf4        	excw
     d97:	504700        	iitlb	a7
     d9a:	3c2000        	excw
     d9d:	800000        	add	a0, a0, a0
     da0:	003d      	mov.n	a3, a0
     da2:	3e8000        	excw
     da5:	800000        	add	a0, a0, a0
     da8:	3f          	.byte 0x3f
     da9:	800000        	add	a0, a0, a0
     dac:	1f          	.byte 0x1f
     dad:	001f00        	excw
     db0:	000980        	ret
     db3:	098000        	excw
     db6:	d80002        	l8ui	a0, a0, 216
     db9:	001b      	addi.n	a0, a0, 1
     dbb:	1a2800        	excw
     dbe:	d86002        	s32i	a0, a0, 0x360
     dc1:	000017        	bnone	a0, a1, 0xdc5
     dc4:	fff800        	excw
     dc7:	000000        	ill
     dca:	008200        	excw
     dcd:	020000        	excw
     dd0:	ff          	.byte 0xff
     dd1:	df          	.byte 0xdf
     dd2:	ff          	.byte 0xff
     dd3:	ff          	.byte 0xff
     dd4:	efff80        	excw
     dd7:	ff          	.byte 0xff
     dd8:	408000        	excw
     ddb:	7e4c00        	excw
     dde:	906000        	addx2	a6, a0, a0
     de1:	7e          	.byte 0x7e
     de2:	286000        	excw
     de5:	000023        	excw
     de8:	000900        	excw
     deb:	620000        	excw
     dee:	9ffc      	bnez.n	a15, 0xe2b
     df0:	005e04        	excw
     df3:	5e0000        	excw
     df6:	c00000        	sub	a0, a0, a0
     df9:	001b      	addi.n	a0, a0, 1
     dfb:	5e7c00        	excw
     dfe:	780000        	excw
     e01:	5e          	.byte 0x5e
     e02:	1c0000        	excw
     e05:	5e          	.byte 0x5e
     e06:	180000        	excw
     e09:	5e          	.byte 0x5e
     e0a:	340000        	extui	a0, a0, 0, 4
     e0d:	5e          	.byte 0x5e
     e0e:	300000        	xor	a0, a0, a0
     e11:	5e          	.byte 0x5e
     e12:	4c0000        	excw
     e15:	5e          	.byte 0x5e
     e16:	480000        	excw
     e19:	5e          	.byte 0x5e
     e1a:	640000        	extui	a0, a0, 0, 7
     e1d:	5e          	.byte 0x5e
     e1e:	600000        	neg	a0, a0
     e21:	5e          	.byte 0x5e
     e22:	ec0000        	excw
     e25:	001b      	addi.n	a0, a0, 1
     e27:	000500        	excw
     e2a:	ff0010        	excw
     e2d:	7f          	.byte 0x7f
     e2e:	ff          	.byte 0xff
     e2f:	ff          	.byte 0xff
     e30:	ff          	.byte 0xff
     e31:	ff          	.byte 0xff
     e32:	bf          	.byte 0xbf
     e33:	ff          	.byte 0xff
     e34:	1bbc      	beqz.n	a11, 0xe69
     e36:	d40000        	extui	a0, a0, 0, 14
     e39:	001b      	addi.n	a0, a0, 1
     e3b:	001100        	excw
     e3e:	4ca006        	j	0x140c2
     e41:	001b      	addi.n	a0, a0, 1
     e43:	ffc800        	excw
     e46:	ef          	.byte 0xef
     e47:	ff          	.byte 0xff
     e48:	ff          	.byte 0xff
     e49:	ff          	.byte 0xff
     e4a:	ff          	.byte 0xff
     e4b:	fe          	.byte 0xfe
     e4c:	1cec      	bnez.n	a12, 0xe71
     e4e:	cc0000        	excw
     e51:	001c      	movi.n	a0, 16
     e53:	1c5400        	excw
     e56:	7c0000        	excw
     e59:	0019      	s32i.n	a1, a0, 0
     e5b:	08f000        	excw
     e5e:	566000        	excw
     e61:	001c      	movi.n	a0, 16
     e63:	1c5700        	excw
     e66:	b40000        	extui	a0, a0, 0, 12
     e69:	001c      	movi.n	a0, 16
     e6b:	ffff00        	excw
     e6e:	ff          	.byte 0xff
     e6f:	f00f07        	bnone	a15, a0, 0xe63
     e72:	ff          	.byte 0xff
     e73:	ff          	.byte 0xff
     e74:	001c44        	excw
     e77:	0f0000        	excw
     e7a:	000000        	ill
     e7d:	060000        	excw
     e80:	020000        	excw
     e83:	000000        	ill
     e86:	00fff0        	excw
     e89:	ff          	.byte 0xff
     e8a:	0f          	.byte 0xf
     e8b:	0f8000        	excw
     e8e:	000000        	ill
     e91:	001f00        	excw
     e94:	001f00        	excw
     e97:	144000        	extui	a4, a0, 0, 2
     e9a:	0009      	s32i.n	a0, a0, 0
     e9c:	0da440        	excw
     e9f:	10c000        	and	a12, a0, a0
     ea2:	0808      	l32i.n	a0, a8, 0
     ea4:	ee          	.byte 0xee
     ea5:	30bb      	addi.n	a3, a0, 11
     ea7:	696400        	excw
     eaa:	670636        	excw
     ead:	a028      	l32i.n	a2, a0, 40
     eaf:	286700        	excw
     eb2:	6a00a2        	l8ui	a10, a0, 106
     eb5:	073801        	l32r	a0, 0xfffc2b98
     eb8:	08ea      	add.n	a0, a8, a14
     eba:	0738      	l32i.n	a3, a7, 0
     ebc:	0829      	s32i.n	a2, a8, 0
     ebe:	000000        	ill
     ec1:	0fb051        	l32r	a5, 0xfffc4d84
     ec4:	491400        	excw
     ec7:	a5cf00        	extui	a12, a0, 31, 11
     eca:	080c21        	l32r	a2, 0xfffc2efc
     ecd:	08d604        	excw
     ed0:	03ad45        	call0	0x49a8
     ed3:	a44023        	excw
     ed6:	800005        	call0	0xfff80ed8
     ed9:	0008      	l32i.n	a0, a0, 0
     edb:	1ad000        	excw
     ede:	fc0000        	excw
     ee1:	ffffe7        	bbsi	a15, 30, 0xee4
     ee4:	0a68      	l32i.n	a6, a10, 0
     ee6:	c40002        	l8ui	a0, a0, 196
     ee9:	0208      	l32i.n	a0, a2, 0
     eeb:	0a4800        	excw
     eee:	b40002        	l8ui	a0, a0, 180
     ef1:	0208      	l32i.n	a0, a2, 0
     ef3:	0a5000        	excw
     ef6:	b80002        	l8ui	a0, a0, 184
     ef9:	0208      	l32i.n	a0, a2, 0
     efb:	0a5800        	excw
     efe:	bc0002        	l8ui	a0, a0, 188
     f01:	0208      	l32i.n	a0, a2, 0
     f03:	0a6000        	excw
     f06:	c00002        	l8ui	a0, a0, 192
     f09:	0208      	l32i.n	a0, a2, 0
     f0b:	7ffe00        	excw
     f0e:	600001        	l32r	a0, 0xfffd8f10
     f11:	020b      	addi.n	a0, a2, -1
     f13:	0ba000        	excw
     f16:	a00002        	l8ui	a0, a0, 160
     f19:	020a      	add.n	a0, a2, a0
     f1b:	0b0000        	excw
     f1e:	340002        	l8ui	a0, a0, 52
     f21:	021a      	add.n	a0, a2, a1
     f23:	1a6860        	excw
     f26:	d80000        	excw
     f29:	00ba      	add.n	a0, a0, a11
     f2b:	138060        	wsr.ibreaka0	a6
     f2e:	000000        	ill
     f31:	000060        	excw
     f34:	ff          	.byte 0xff
     f35:	bf          	.byte 0xbf
     f36:	ff          	.byte 0xff
     f37:	ff          	.byte 0xff
     f38:	000b80        	ret
     f3b:	6f1000        	excw
     f3e:	070100        	excw
     f41:	001000        	excw
     f44:	e00000        	subx4	a0, a0, a0
     f47:	101001        	l32r	a0, 0xfffc4f88
     f4a:	000100        	excw
     f4d:	0408      	l32i.n	a0, a4, 0
     f4f:	16c000        	excw
     f52:	fc0000        	excw
     f55:	001b      	addi.n	a0, a0, 1
     f57:	1c2800        	excw
     f5a:	480000        	excw
     f5d:	001c      	movi.n	a0, 16
     f5f:	0f7c00        	excw
     f62:	bc0002        	l8ui	a0, a0, 188
     f65:	000016        	beqz	a0, 0xf69
     f68:	193c      	movi.n	a9, 49
     f6a:	d10000        	mul16s	a0, a0, a0
     f6d:	ff          	.byte 0xff
     f6e:	dc0007        	bnone	a0, a0, 0xf4e
     f71:	00ba      	add.n	a0, a0, a11
     f73:	613660        	excw
     f76:	150c00        	extui	a0, a0, 28, 2
     f79:	024521        	l32r	a2, 0xfffc1890
     f7c:	024431        	l32r	a3, 0xfffc188c
     f7f:	ffa062        	movi	a6, 255
     f82:	024341        	l32r	a4, 0xfffc1890
     f85:	002382        	l32i	a8, a3, 0
     f88:	02a092        	movi	a9, 2
     f8b:	816492        	s32i	a9, a4, 0x204
     f8e:	c08860        	sub	a8, a8, a6
     f91:	1c4816        	beqz	a8, 0x1159
     f94:	02ad      	mov.n	a10, a2
     f96:	0246b1        	l32r	a11, 0xfffc18b0
     f99:	0a9f25        	excw
     f9c:	b72492        	l32i	a9, a4, 0x2dc
     f9f:	649090        	extui	a9, a9, 0, 7
     fa2:	1c2916        	beqz	a9, 0x1168
     fa5:	8b2c      	movi.n	a11, 40
     fa7:	63b9b0        	excw
     faa:	12b9      	s32i.n	a11, a2, 4
     fac:	2259      	s32i.n	a5, a2, 8
     fae:	033ba5        	excw
     fb1:	c0afc2        	movi	a12, -64
     fb4:	3fcab2        	addi	a11, a10, 63
     fb7:	0247d1        	l32r	a13, 0xfffc18d4
     fba:	a2d9      	s32i.n	a13, a2, 40
     fbc:	0a0c      	movi.n	a10, 0
     fbe:	10bbc0        	and	a11, a11, a12
     fc1:	12c8      	l32i.n	a12, a2, 4
     fc3:	02b9      	s32i.n	a11, a2, 0
     fc5:	bbda      	add.n	a11, a11, a13
     fc7:	ac9c      	beqz.n	a12, 0xfe5
     fc9:	0248c1        	l32r	a12, 0xfffc18ec
     fcc:	0249d1        	l32r	a13, 0xfffc18f0
     fcf:	0f8076        	excw
     fd2:	aa1b      	addi.n	a10, a10, 1
     fd4:	7f6cb2        	s32i	a11, a12, 0x1fc
     fd7:	02f8      	l32i.n	a15, a2, 0
     fd9:	12e8      	l32i.n	a14, a2, 4
     fdb:	ccda      	add.n	a12, a12, a13
     fdd:	bfba      	add.n	a11, a15, a11
     fdf:	02bae7        	bgeu	a10, a14, 0xfe5
     fe2:	fffa46        	j	0xfcf
     fe5:	024ab1        	l32r	a11, 0xfffc1910
     fe8:	3d2ba2        	l32i	a10, a11, 244
     feb:	024b91        	l32r	a9, 0xfffc1918
     fee:	feafc2        	movi	a12, -2
     ff1:	10aac0        	and	a10, a10, a12
     ff4:	3d6ba2        	s32i	a10, a11, 244
     ff7:	852482        	l32i	a8, a4, 0x214
     ffa:	0369      	s32i.n	a6, a3, 0
     ffc:	024ca1        	l32r	a10, 0xfffc192c
     fff:	208890        	or	a8, a8, a9
    1002:	856482        	s32i	a8, a4, 0x214
    1005:	ff7665        	excw
    1008:	80a0a2        	movi	a10, 128
    100b:	ff7625        	excw
    100e:	024da1        	l32r	a10, 0xfffc1944
    1011:	ff75a5        	excw
    1014:	024e61        	l32r	a6, 0xfffc194c
    1017:	2a1c      	movi.n	a10, 18
    1019:	024fe1        	l32r	a14, 0xfffc1958
    101c:	c426d2        	l32i	a13, a6, 0x310
    101f:	0250b1        	l32r	a11, 0xfffc1960
    1022:	02cd      	mov.n	a12, a2
    1024:	10dde0        	and	a13, a13, a14
    1027:	c466d2        	s32i	a13, a6, 0x310
    102a:	ff5565        	excw
    102d:	0251a1        	l32r	a10, 0xfffc1974
    1030:	ff73a5        	excw
    1033:	0252a1        	l32r	a10, 0xfffc197c
    1036:	ff7365        	excw
    1039:	0ba0a2        	movi	a10, 11
    103c:	025381        	l32r	a8, 0xfffc1988
    103f:	c226f2        	l32i	a15, a6, 0x308
    1042:	0254b1        	l32r	a11, 0xfffc1994
    1045:	02cd      	mov.n	a12, a2
    1047:	10ff80        	and	a15, a15, a8
    104a:	c266f2        	s32i	a15, a6, 0x308
    104d:	ff5325        	excw
    1050:	0ca0a2        	movi	a10, 12
    1053:	0255b1        	l32r	a11, 0xfffc19a8
    1056:	20c220        	or	a12, a2, a2
    1059:	ff5265        	excw
    105c:	0256a1        	l32r	a10, 0xfffc19b4
    105f:	c22692        	l32i	a9, a6, 0x308
    1062:	0257b1        	l32r	a11, 0xfffc19c0
    1065:	20c220        	or	a12, a2, a2
    1068:	2099a0        	or	a9, a9, a10
    106b:	c26692        	s32i	a9, a6, 0x308
    106e:	0fa0a2        	movi	a10, 15
    1071:	ff50e5        	excw
    1074:	0258a1        	l32r	a10, 0xfffc19d4
    1077:	ff6de5        	excw
    107a:	131c      	movi.n	a3, 17
    107c:	025921        	l32r	a2, 0xfffc19e0
    107f:	f03d      	nop.n
    1081:	158076        	excw
    1084:	e424a2        	l32i	a10, a4, 0x390
    1087:	df24b2        	l32i	a11, a4, 0x37c
    108a:	8022c2        	l32i	a12, a2, 0x200
    108d:	059c37        	bne	a12, a3, 0x1096
    1090:	806252        	s32i	a5, a2, 0x200
    1093:	cb6652        	s32i	a5, a6, 0x32c
    1096:	3acc      	bnez.n	a10, 0x109d
    1098:	1bcc      	bnez.n	a11, 0x109d
    109a:	fff846        	j	0x107f
    109d:	ff6f25        	excw
    10a0:	0a7d      	mov.n	a7, a10
    10a2:	025a41        	l32r	a4, 0xfffc1a0c
    10a5:	0010a5        	excw
    10a8:	7f22d2        	l32i	a13, a2, 0x1fc
    10ab:	f03d      	nop.n
    10ad:	4d8c      	beqz.n	a13, 0x10b5
    10af:	201110        	or	a1, a1, a1
    10b2:	000be5        	excw
    10b5:	8022e2        	l32i	a14, a2, 0x200
    10b8:	059e37        	bne	a14, a3, 0x10c1
    10bb:	806252        	s32i	a5, a2, 0x200
    10be:	cb6652        	s32i	a5, a6, 0x32c
    10c1:	0159      	s32i.n	a5, a1, 0
    10c3:	ff6ce5        	excw
    10c6:	c0fa70        	sub	a15, a10, a7
    10c9:	19b4f7        	bgeu	a4, a15, 0x10e6
    10cc:	0a0c      	movi.n	a10, 0
    10ce:	01bd      	mov.n	a11, a1
    10d0:	0039e5        	excw
    10d3:	0f1a66        	bnei	a10, 1, 0x10e6
    10d6:	0198      	l32i.n	a9, a1, 0
    10d8:	598c      	beqz.n	a9, 0x10e1
    10da:	0a0c      	movi.n	a10, 0
    10dc:	01bd      	mov.n	a11, a1
    10de:	003925        	excw
    10e1:	ff6ae5        	excw
    10e4:	0a7d      	mov.n	a7, a10
    10e6:	1a0c      	movi.n	a10, 1
    10e8:	01bd      	mov.n	a11, a1
    10ea:	003865        	excw
    10ed:	411a26        	beqi	a10, 1, 0x1132
    10f0:	7f22a2        	l32i	a10, a2, 0x1fc
    10f3:	f03d      	nop.n
    10f5:	4a8c      	beqz.n	a10, 0x10fd
    10f7:	201110        	or	a1, a1, a1
    10fa:	000765        	excw
    10fd:	8022b2        	l32i	a11, a2, 0x200
    1100:	f03d      	nop.n
    1102:	059b37        	bne	a11, a3, 0x110b
    1105:	806252        	s32i	a5, a2, 0x200
    1108:	cb6652        	s32i	a5, a6, 0x32c
    110b:	00a0a2        	movi	a10, 0
    110e:	20b110        	or	a11, a1, a1
    1111:	0035e5        	excw
    1114:	2e1a26        	beqi	a10, 1, 0x1146
    1117:	7f22d2        	l32i	a13, a2, 0x1fc
    111a:	002d16        	beqz	a13, 0x1120
    111d:	000525        	excw
    1120:	8022e2        	l32i	a14, a2, 0x200
    1123:	021e37        	beq	a14, a3, 0x1129
    1126:	ffdec6        	j	0x10a5
    1129:	806252        	s32i	a5, a2, 0x200
    112c:	cb6652        	s32i	a5, a6, 0x32c
    112f:	ffdc86        	j	0x10a5
    1132:	0021f2        	l32i	a15, a1, 0
    1135:	fb7f16        	beqz	a15, 0x10f0
    1138:	01a0a2        	movi	a10, 1
    113b:	20b110        	or	a11, a1, a1
    113e:	003325        	excw
    1141:	ffeac6        	j	0x10f0
    1144:	880000        	excw
    1147:	588c01        	l32r	a0, 0xfffd7378
    114a:	0a0c      	movi.n	a10, 0
    114c:	01bd      	mov.n	a11, a1
    114e:	003225        	excw
    1151:	ff63e5        	excw
    1154:	0a7d      	mov.n	a7, a10
    1156:	ffef46        	j	0x1117
    1159:	812492        	l32i	a9, a4, 0x204
    115c:	0a4c      	movi.n	a10, 64
    115e:	2099a0        	or	a9, a9, a10
    1161:	816492        	s32i	a9, a4, 0x204
    1164:	ff9f46        	j	0xfe5
    1167:	0b1c00        	excw
    116a:	12b9      	s32i.n	a11, a2, 4
    116c:	ff8f06        	j	0xfac
    116f:	413600        	srli	a3, a0, 6
    1172:	4e3100        	excw
    1175:	20f002        	excw
    1178:	23a200        	excw
    117b:	23b2d4        	excw
    117e:	2322d5        	excw
    1181:	a0c2d6        	bgez	a2, 0xb91
    1184:	dfa502        	movi	a0, 0x5df
    1187:	b22000        	excw
    118a:	1c0c20        	excw
    118d:	0073e5        	excw
    1190:	025991        	l32r	a9, 0xfffc1af4
    1193:	80a0a2        	movi	a10, 128
    1196:	080c      	movi.n	a8, 0
    1198:	7f6982        	s32i	a8, a9, 0x1fc
    119b:	ff5ba5        	excw
    119e:	2b0c      	movi.n	a11, 2
    11a0:	c663b2        	s32i	a11, a3, 0x318
    11a3:	dc23a2        	l32i	a10, a3, 0x370
    11a6:	aa1b      	addi.n	a10, a10, 1
    11a8:	dc63a2        	s32i	a10, a3, 0x370
    11ab:	f01d      	excw
    11ad:	000000        	ill
    11b0:	006136        	excw
    11b3:	024591        	l32r	a9, 0xfffc1ac8
    11b6:	0a0c      	movi.n	a10, 0
    11b8:	4988      	l32i.n	a8, a9, 16
    11ba:	59b8      	l32i.n	a11, a9, 20
    11bc:	01a9      	s32i.n	a10, a1, 0
    11be:	152816        	beqz	a8, 0x1314
    11c1:	bb0b      	addi.n	a11, a11, -1
    11c3:	14db16        	beqz	a11, 0x1314
    11c6:	024341        	l32r	a4, 0xfffc1ad4
    11c9:	025c21        	l32r	a2, 0xfffc1b3c
    11cc:	024ae1        	l32r	a14, 0xfffc1af4
    11cf:	a978      	l32i.n	a7, a9, 40
    11d1:	1c29f2        	l32i	a15, a9, 112
    11d4:	025bd1        	l32r	a13, 0xfffc1b40
    11d7:	5c2732        	l32i	a3, a7, 0x170
    11da:	d768      	l32i.n	a6, a7, 52
    11dc:	d7da      	add.n	a13, a7, a13
    11de:	536ef2        	s32i	a15, a14, 0x14c
    11e1:	1d29b2        	l32i	a11, a9, 116
    11e4:	532ee2        	l32i	a14, a14, 0x14c
    11e7:	1c69e2        	s32i	a14, a9, 112
    11ea:	e32df2        	l32i	a15, a13, 0x38c
    11ed:	1bc8      	l32i.n	a12, a11, 4
    11ef:	eb8b      	addi.n	a14, a11, 8
    11f1:	0bb8      	l32i.n	a11, a11, 0
    11f3:	272a      	add.n	a2, a7, a2
    11f5:	15ff16        	beqz	a15, 0x1358
    11f8:	053cb7        	bltu	a12, a11, 0x1201
    11fb:	302692        	l32i	a9, a6, 192
    11fe:	000046        	j	0x1203
    1201:	0a9d      	mov.n	a9, a10
    1203:	89ba      	add.n	a8, a9, a11
    1205:	c088c0        	sub	a8, a8, a12
    1208:	fe6282        	s32i	a8, a2, 0x3f8
    120b:	1b2dc2        	l32i	a12, a13, 108
    120e:	3288      	l32i.n	a8, a2, 12
    1210:	13cb16        	beqz	a11, 0x1350
    1213:	bb0b      	addi.n	a11, a11, -1
    1215:	82ccb0        	mull	a12, a12, a11
    1218:	22b8      	l32i.n	a11, a2, 8
    121a:	ceca      	add.n	a12, a14, a12
    121c:	4cf8      	l32i.n	a15, a12, 16
    121e:	3cc8      	l32i.n	a12, a12, 12
    1220:	bb8a      	add.n	a11, a11, a8
    1222:	ccfa      	add.n	a12, a12, a15
    1224:	043bc7        	bltu	a11, a12, 0x122c
    1227:	8698      	l32i.n	a9, a6, 32
    1229:	000046        	j	0x122e
    122c:	090c      	movi.n	a9, 0
    122e:	d9ca      	add.n	a13, a9, a12
    1230:	c0ddb0        	sub	a13, a13, a11
    1233:	fd62d2        	s32i	a13, a2, 0x3f4
    1236:	8124b2        	l32i	a11, a4, 0x204
    1239:	01b9      	s32i.n	a11, a1, 0
    123b:	0188      	l32i.n	a8, a1, 0
    123d:	025d51        	l32r	a5, 0xfffc1bb4
    1240:	890c      	movi.n	a9, 8
    1242:	208890        	or	a8, a8, a9
    1245:	816482        	s32i	a8, a4, 0x204
    1248:	b024f2        	l32i	a15, a4, 0x2c0
    124b:	01f9      	s32i.n	a15, a1, 0
    124d:	01e8      	l32i.n	a14, a1, 0
    124f:	7c05b2        	l8ui	a11, a5, 124
    1252:	8005c2        	l8ui	a12, a5, 128
    1255:	04e0e0        	extui	a14, a14, 0, 1
    1258:	0bae56        	bnez	a14, 0x1316
    125b:	01a0a2        	movi	a10, 1
    125e:	00e1e5        	excw
    1261:	025ed1        	l32r	a13, 0xfffc1bdc
    1264:	c824e2        	l32i	a14, a4, 0x320
    1267:	01e9      	s32i.n	a14, a1, 0
    1269:	01c8      	l32i.n	a12, a1, 0
    126b:	0a0c      	movi.n	a10, 0
    126d:	10ccd0        	and	a12, a12, a13
    1270:	c864c2        	s32i	a12, a4, 0x320
    1273:	7c05b2        	l8ui	a11, a5, 124
    1276:	8005c2        	l8ui	a12, a5, 128
    1279:	00e025        	excw
    127c:	1a0c      	movi.n	a10, 1
    127e:	0f0c      	movi.n	a15, 0
    1280:	b064f2        	s32i	a15, a4, 0x2c0
    1283:	7c05b2        	l8ui	a11, a5, 124
    1286:	8005c2        	l8ui	a12, a5, 128
    1289:	00df25        	excw
    128c:	025fa1        	l32r	a10, 0xfffc1c08
    128f:	11a9      	s32i.n	a10, a1, 4
    1291:	03cda5        	excw
    1294:	7c05b2        	l8ui	a11, a5, 124
    1297:	0a4d      	mov.n	a4, a10
    1299:	8005c2        	l8ui	a12, a5, 128
    129c:	0a0c      	movi.n	a10, 0
    129e:	00dde5        	excw
    12a1:	0d3416        	beqz	a4, 0x1378
    12a4:	0388      	l32i.n	a8, a3, 0
    12a6:	13a8      	l32i.n	a10, a3, 4
    12a8:	18bc      	beqz.n	a8, 0x12dd
    12aa:	2c2692        	l32i	a9, a6, 176
    12ad:	c9ac      	beqz.n	a9, 0x12dd
    12af:	aaac      	beqz.n	a10, 0x12dd
    12b1:	fc22b2        	l32i	a11, a2, 0x3f0
    12b4:	abcc      	bnez.n	a11, 0x12c2
    12b6:	fb22c2        	l32i	a12, a2, 0x3ec
    12b9:	5ccc      	bnez.n	a12, 0x12c2
    12bb:	17d8      	l32i.n	a13, a7, 4
    12bd:	1dd8      	l32i.n	a13, a13, 4
    12bf:	1a0d66        	bnei	a13, -1, 0x12dd
    12c2:	1a0c      	movi.n	a10, 1
    12c4:	7c05b2        	l8ui	a11, a5, 124
    12c7:	8005c2        	l8ui	a12, a5, 128
    12ca:	00db25        	excw
    12cd:	07ad      	mov.n	a10, a7
    12cf:	06f025        	excw
    12d2:	0a0c      	movi.n	a10, 0
    12d4:	7c05b2        	l8ui	a11, a5, 124
    12d7:	8005c2        	l8ui	a12, a5, 128
    12da:	00da25        	excw
    12dd:	1423e2        	l32i	a14, a3, 80
    12e0:	0efc      	bnez.n	a14, 0x1314
    12e2:	33f8      	l32i.n	a15, a3, 12
    12e4:	cfac      	beqz.n	a15, 0x1314
    12e6:	8523d2        	l32i	a13, a3, 0x214
    12e9:	2925c2        	l32i	a12, a5, 164
    12ec:	2125b2        	l32i	a11, a5, 132
    12ef:	ccda      	add.n	a12, a12, a13
    12f1:	2965c2        	s32i	a12, a5, 164
    12f4:	1c2382        	l32i	a8, a3, 112
    12f7:	2225a2        	l32i	a10, a5, 136
    12fa:	b8ba      	add.n	a11, a8, a11
    12fc:	01bb87        	bgeu	a11, a8, 0x1301
    12ff:	aa1b      	addi.n	a10, a10, 1
    1301:	63bcd7        	bgeu	a12, a13, 0x1368
    1304:	cb1b      	addi.n	a12, a11, 1
    1306:	66bcb7        	bgeu	a12, a11, 0x1370
    1309:	2165c2        	s32i	a12, a5, 132
    130c:	da1b      	addi.n	a13, a10, 1
    130e:	2265d2        	s32i	a13, a5, 136
    1311:	f01d      	excw
    1313:	f01d00        	subx8	a1, a13, a0
    1316:	1a0c      	movi.n	a10, 1
    1318:	00d625        	excw
    131b:	0260f1        	l32r	a15, 0xfffc1c9c
    131e:	c82482        	l32i	a8, a4, 0x320
    1321:	0189      	s32i.n	a8, a1, 0
    1323:	0021e2        	l32i	a14, a1, 0
    1326:	00a0a2        	movi	a10, 0
    1329:	20eef0        	or	a14, a14, a15
    132c:	c864e2        	s32i	a14, a4, 0x320
    132f:	7c05b2        	l8ui	a11, a5, 124
    1332:	8005c2        	l8ui	a12, a5, 128
    1335:	00d465        	excw
    1338:	8124c2        	l32i	a12, a4, 0x204
    133b:	01c9      	s32i.n	a12, a1, 0
    133d:	01a8      	l32i.n	a10, a1, 0
    133f:	390c      	movi.n	a9, 3
    1341:	7b7c      	movi.n	a11, -9
    1343:	10aab0        	and	a10, a10, a11
    1346:	8164a2        	s32i	a10, a4, 0x204
    1349:	b06492        	s32i	a9, a4, 0x2c0
    134c:	f01d      	excw
    134e:	b20000        	excw
    1351:	0b3026        	beqi	a0, 3, 0x1360
    1354:	06bb      	addi.n	a0, a6, 11
    1356:	af          	.byte 0xaf
    1357:	ff          	.byte 0xff
    1358:	86d8      	l32i.n	a13, a6, 32
    135a:	fd62d2        	s32i	a13, a2, 0x3f4
    135d:	3026c2        	l32i	a12, a6, 192
    1360:	fe62c2        	s32i	a12, a2, 0x3f8
    1363:	ffb3c6        	j	0x1236
    1366:	a20000        	excw
    1369:	b22265        	excw
    136c:	1d2165        	excw
    136f:	65a2f0        	extui	a10, a15, 18, 7
    1372:	65c222        	addi	a2, a2, 101
    1375:	f01d21        	l32r	a2, 0xffffd3ec
    1378:	11a8      	l32i.n	a10, a1, 4
    137a:	046a65        	excw
    137d:	02e8      	l32i.n	a14, a2, 0
    137f:	005e56        	bnez	a14, 0x1388
    1382:	0122f2        	l32i	a15, a2, 4
    1385:	f8bf16        	beqz	a15, 0x1314
    1388:	024e91        	l32r	a9, 0xfffc1cc0
    138b:	880c      	movi.n	a8, 8
    138d:	c66982        	s32i	a8, a9, 0x318
    1390:	f01d      	excw
    1392:	360000        	excw
    1395:	380041        	l32r	a4, 0xfffcf398
    1398:	628882        	excw
    139b:	7298      	l32i.n	a9, a2, 28
    139d:	438c      	beqz.n	a3, 0x13a5
    139f:	051826        	beqi	a8, 1, 0x13a8
    13a2:	021926        	beqi	a9, 1, 0x13a8
    13a5:	f01d      	excw
    13a7:	61b100        	xsr.epc1	a0
    13aa:	53a802        	movi	a0, 0xfffff853
    13ad:	4c4c      	movi.n	a12, 68
    13af:	b2ba      	add.n	a11, a2, a11
    13b1:	0a6125        	excw
    13b4:	43a8      	l32i.n	a10, a3, 16
    13b6:	60a0c2        	movi	a12, 96
    13b9:	e0a7b2        	movi	a11, 0x7e0
    13bc:	b2ba      	add.n	a11, a2, a11
    13be:	0a6065        	excw
    13c1:	02ad      	mov.n	a10, a2
    13c3:	034725        	excw
    13c6:	0c0c      	movi.n	a12, 0
    13c8:	62c9      	s32i.n	a12, a2, 24
    13ca:	72c9      	s32i.n	a12, a2, 28
    13cc:	f01d      	excw
    13ce:	360000        	excw
    13d1:	980041        	l32r	a4, 0xfffe73d4
    13d4:	071c82        	l16ui	a8, a12, 14
    13d7:	6288      	l32i.n	a8, a2, 24
    13d9:	099c      	beqz.n	a9, 0x13ed
    13db:	150c      	movi.n	a5, 1
    13dd:	460c      	movi.n	a6, 4
    13df:	5948      	l32i.n	a4, a9, 20
    13e1:	4938      	l32i.n	a3, a9, 16
    13e3:	b8bc      	beqz.n	a8, 0x1422
    13e5:	7298      	l32i.n	a9, a2, 28
    13e7:	698c      	beqz.n	a9, 0x13f1
    13e9:	020c      	movi.n	a2, 0
    13eb:	f01d      	excw
    13ed:	020c      	movi.n	a2, 0
    13ef:	f01d      	excw
    13f1:	03ad      	mov.n	a10, a3
    13f3:	60a0b2        	movi	a11, 96
    13f6:	0a5965        	excw
    13f9:	6379      	s32i.n	a7, a3, 24
    13fb:	7379      	s32i.n	a7, a3, 28
    13fd:	126362        	s32i	a6, a3, 72
    1400:	136362        	s32i	a6, a3, 76
    1403:	0359      	s32i.n	a5, a3, 0
    1405:	1359      	s32i.n	a5, a3, 4
    1407:	2359      	s32i.n	a5, a3, 8
    1409:	fea0a2        	movi	a10, 254
    140c:	4b4c      	movi.n	a11, 68
    140e:	d3a9      	s32i.n	a10, a3, 52
    1410:	04ad      	mov.n	a10, a4
    1412:	0a57a5        	excw
    1415:	c459      	s32i.n	a5, a4, 48
    1417:	7259      	s32i.n	a5, a2, 28
    1419:	02ad      	mov.n	a10, a2
    141b:	0341a5        	excw
    141e:	120c      	movi.n	a2, 1
    1420:	f01d      	excw
    1422:	03bd      	mov.n	a11, a3
    1424:	60a0c2        	movi	a12, 96
    1427:	e0a7a2        	movi	a10, 0x7e0
    142a:	80a2a0        	add	a10, a2, a10
    142d:	0a5965        	excw
    1430:	20a330        	or	a10, a3, a3
    1433:	60a0b2        	movi	a11, 96
    1436:	0a5565        	excw
    1439:	6379      	s32i.n	a7, a3, 24
    143b:	7379      	s32i.n	a7, a3, 28
    143d:	126362        	s32i	a6, a3, 72
    1440:	136362        	s32i	a6, a3, 76
    1443:	0359      	s32i.n	a5, a3, 0
    1445:	1359      	s32i.n	a5, a3, 4
    1447:	2359      	s32i.n	a5, a3, 8
    1449:	106352        	s32i	a5, a3, 64
    144c:	116352        	s32i	a5, a3, 68
    144f:	4c4c      	movi.n	a12, 68
    1451:	78a0b2        	movi	a11, 120
    1454:	0261a1        	l32r	a10, 0xfffc1dd8
    1457:	d3b9      	s32i.n	a11, a3, 52
    1459:	04bd      	mov.n	a11, a4
    145b:	80a2a0        	add	a10, a2, a10
    145e:	0a5665        	excw
    1461:	04ad      	mov.n	a10, a4
    1463:	4b4c      	movi.n	a11, 68
    1465:	0a5265        	excw
    1468:	6259      	s32i.n	a5, a2, 24
    146a:	ffeac6        	j	0x1419
    146d:	000000        	ill
    1470:	014136        	excw
    1473:	026451        	l32r	a5, 0xfffc1e04
    1476:	026261        	l32r	a6, 0xfffc1e00
    1479:	0263b1        	l32r	a11, 0xfffc1e08
    147c:	1c0c      	movi.n	a12, 1
    147e:	0e0c      	movi.n	a14, 0
    1480:	0265f1        	l32r	a15, 0xfffc1e14
    1483:	83ec20        	moveqz	a14, a12, a2
    1486:	93b6e0        	movnez	a11, a6, a14
    1489:	025d61        	l32r	a6, 0xfffc1e00
    148c:	93f5e0        	movnez	a15, a5, a14
    148f:	2d26d2        	l32i	a13, a6, 180
    1492:	0f48      	l32i.n	a4, a15, 0
    1494:	0149      	s32i.n	a4, a1, 0
    1496:	024341        	l32r	a4, 0xfffc1da4
    1499:	0bb8      	l32i.n	a11, a11, 0
    149b:	11b9      	s32i.n	a11, a1, 4
    149d:	8124b2        	l32i	a11, a4, 0x204
    14a0:	0198      	l32i.n	a9, a1, 0
    14a2:	1188      	l32i.n	a8, a1, 4
    14a4:	777c      	movi.n	a7, -9
    14a6:	050c      	movi.n	a5, 0
    14a8:	051897        	beq	a8, a9, 0x14b1
    14ab:	2f2682        	l32i	a8, a6, 188
    14ae:	06f816        	beqz	a8, 0x1521
    14b1:	0a0c      	movi.n	a10, 0
    14b3:	250c      	movi.n	a5, 2
    14b5:	109b70        	and	a9, a11, a7
    14b8:	816492        	s32i	a9, a4, 0x204
    14bb:	03e8      	l32i.n	a14, a3, 0
    14bd:	2d26b2        	l32i	a11, a6, 180
    14c0:	059e56        	bnez	a14, 0x151d
    14c3:	056a16        	beqz	a10, 0x151d
    14c6:	221226        	beqi	a2, 1, 0x14ec
    14c9:	2b26f2        	l32i	a15, a6, 172
    14cc:	c0bbd0        	sub	a11, a11, a13
    14cf:	4abfb7        	bgeu	a15, a11, 0x151d
    14d2:	4ac9      	s32i.n	a12, a10, 16
    14d4:	090c      	movi.n	a9, 0
    14d6:	5a99      	s32i.n	a9, a10, 20
    14d8:	2b2682        	l32i	a8, a6, 172
    14db:	2c2622        	l32i	a2, a6, 176
    14de:	c08b80        	sub	a8, a11, a8
    14e1:	228a      	add.n	a2, a2, a8
    14e3:	2c6622        	s32i	a2, a6, 176
    14e6:	052d      	mov.n	a2, a5
    14e8:	f01d      	excw
    14ea:	a20000        	excw
    14ed:	a11861        	l32r	a6, 0xfffe9950
    14f0:	a80245        	call0	0xfffa9518
    14f3:	164a      	add.n	a1, a6, a4
    14f5:	2dca      	add.n	a2, a13, a12
    14f7:	0245c1        	l32r	a12, 0xfffc1e0c
    14fa:	052cc2        	l32i	a12, a12, 20
    14fd:	1761d2        	s32i	a13, a1, 92
    1500:	ffccc2        	addi	a12, a12, -1
    1503:	2cdc16        	beqz	a12, 0x17d4
    1506:	172122        	l32i	a2, a1, 92
    1509:	2b26d2        	l32i	a13, a6, 172
    150c:	c02b20        	sub	a2, a11, a2
    150f:	0abd27        	bgeu	a13, a2, 0x151d
    1512:	1821a2        	l32i	a10, a1, 96
    1515:	ffeba5        	excw
    1518:	8a0b      	addi.n	a8, a10, -1
    151a:	2a2816        	beqz	a8, 0x17c0
    151d:	052d      	mov.n	a2, a5
    151f:	f01d      	excw
    1521:	1961e2        	s32i	a14, a1, 100
    1524:	1a61f2        	s32i	a15, a1, 104
    1527:	1761d2        	s32i	a13, a1, 92
    152a:	026691        	l32r	a9, 0xfffc1ec4
    152d:	026781        	l32r	a8, 0xfffc1ecc
    1530:	10ab70        	and	a10, a11, a7
    1533:	0c1c      	movi.n	a12, 16
    1535:	0b2c      	movi.n	a11, 32
    1537:	20bab0        	or	a11, a10, a11
    153a:	20aac0        	or	a10, a10, a12
    153d:	0268c1        	l32r	a12, 0xfffc1ee0
    1540:	9389e0        	movnez	a8, a9, a14
    1543:	93ab20        	movnez	a10, a11, a2
    1546:	026b91        	l32r	a9, 0xfffc1ef4
    1549:	0269b1        	l32r	a11, 0xfffc1ef0
    154c:	1b61a2        	s32i	a10, a1, 108
    154f:	8164a2        	s32i	a10, a4, 0x204
    1552:	0888      	l32i.n	a8, a8, 0
    1554:	026aa1        	l32r	a10, 0xfffc1efc
    1557:	2189      	s32i.n	a8, a1, 8
    1559:	93bce0        	movnez	a11, a12, a14
    155c:	1c0c      	movi.n	a12, 1
    155e:	0bb8      	l32i.n	a11, a11, 0
    1560:	31b9      	s32i.n	a11, a1, 12
    1562:	939ae0        	movnez	a9, a10, a14
    1565:	0998      	l32i.n	a9, a9, 0
    1567:	4199      	s32i.n	a9, a1, 16
    1569:	31a8      	l32i.n	a10, a1, 12
    156b:	41b8      	l32i.n	a11, a1, 16
    156d:	00a125        	excw
    1570:	31a9      	s32i.n	a10, a1, 12
    1572:	0178      	l32i.n	a7, a1, 0
    1574:	3188      	l32i.n	a8, a1, 12
    1576:	01d8      	l32i.n	a13, a1, 0
    1578:	11c8      	l32i.n	a12, a1, 4
    157a:	a07780        	addx4	a7, a7, a8
    157d:	08bcd7        	bgeu	a12, a13, 0x1589
    1580:	2198      	l32i.n	a9, a1, 8
    1582:	1199e0        	slli	a9, a9, 2
    1585:	000146        	j	0x158e
    1588:	119800        	slli	a9, a8, 16
    158b:	1199e0        	slli	a9, a9, 2
    158e:	024961        	l32r	a6, 0xfffc1eb4
    1591:	0a0c      	movi.n	a10, 0
    1593:	9f0c      	movi.n	a15, 9
    1595:	1861a2        	s32i	a10, a1, 96
    1598:	31a8      	l32i.n	a10, a1, 12
    159a:	025fb1        	l32r	a11, 0xfffc1f18
    159d:	1661b2        	s32i	a11, a1, 88
    15a0:	aa9a      	add.n	a10, a10, a9
    15a2:	1c61a2        	s32i	a10, a1, 112
    15a5:	001386        	j	0x15f7
    15a8:	1e61d2        	s32i	a13, a1, 120
    15ab:	0027a2        	l32i	a10, a7, 0
    15ae:	0227c2        	l32i	a12, a7, 8
    15b1:	0127b2        	l32i	a11, a7, 4
    15b4:	1261c2        	s32i	a12, a1, 72
    15b7:	2c0c      	movi.n	a12, 2
    15b9:	77cb      	addi.n	a7, a7, 12
    15bb:	009c65        	excw
    15be:	0a5d      	mov.n	a5, a10
    15c0:	0a0c      	movi.n	a10, 0
    15c2:	00bd65        	excw
    15c5:	1e21d2        	l32i	a13, a1, 120
    15c8:	024ac1        	l32r	a12, 0xfffc1ef0
    15cb:	3e3c      	movi.n	a14, 51
    15cd:	1221b2        	l32i	a11, a1, 72
    15d0:	272c92        	l32i	a9, a12, 156
    15d3:	116192        	s32i	a9, a1, 68
    15d6:	112182        	l32i	a8, a1, 68
    15d9:	1088e0        	and	a8, a8, a14
    15dc:	116182        	s32i	a8, a1, 68
    15df:	1121f2        	l32i	a15, a1, 68
    15e2:	0020f0        	nop
    15e5:	e79fe7        	bne	a15, a14, 0x15d0
    15e8:	05b9      	s32i.n	a11, a5, 0
    15ea:	050c      	movi.n	a5, 0
    15ec:	191d26        	beqi	a13, 1, 0x1609
    15ef:	1c21a2        	l32i	a10, a1, 112
    15f2:	9f0c      	movi.n	a15, 9
    15f4:	11b7a7        	bgeu	a7, a10, 0x1609
    15f7:	07d8      	l32i.n	a13, a7, 0
    15f9:	026c81        	l32r	a8, 0xfffc1fac
    15fc:	774b      	addi.n	a7, a7, 4
    15fe:	e8bdf7        	bgeu	a13, a15, 0x15ea
    1601:	a08d80        	addx4	a8, a13, a8
    1604:	0888      	l32i.n	a8, a8, 0
    1606:	0008a0        	jx	a8
    1609:	31d8      	l32i.n	a13, a1, 12
    160b:	c0d7d0        	sub	a13, a7, a13
    160e:	cd3b      	addi.n	a12, a13, 3
    1610:	b3cdd0        	movgez	a12, a13, a13
    1613:	21c2c0        	srai	a12, a12, 2
    1616:	01c9      	s32i.n	a12, a1, 0
    1618:	01b8      	l32i.n	a11, a1, 0
    161a:	0c7c      	movi.n	a12, -16
    161c:	bbfb      	addi.n	a11, a11, 15
    161e:	10bbc0        	and	a11, a11, a12
    1621:	01b9      	s32i.n	a11, a1, 0
    1623:	21a8      	l32i.n	a10, a1, 8
    1625:	0198      	l32i.n	a9, a1, 0
    1627:	025d61        	l32r	a6, 0xfffc1f9c
    162a:	0339a7        	bltu	a9, a10, 0x1631
    162d:	0e0c      	movi.n	a14, 0
    162f:	01e9      	s32i.n	a14, a1, 0
    1631:	1821a2        	l32i	a10, a1, 96
    1634:	1721d2        	l32i	a13, a1, 92
    1637:	1c0c      	movi.n	a12, 1
    1639:	1b21f2        	l32i	a15, a1, 108
    163c:	192192        	l32i	a9, a1, 100
    163f:	f86c      	movi.n	a8, -17
    1641:	1a21e2        	l32i	a14, a1, 104
    1644:	dfaf52        	movi	a5, -33
    1647:	01b8      	l32i.n	a11, a1, 0
    1649:	0eb9      	s32i.n	a11, a14, 0
    164b:	935890        	movnez	a5, a8, a9
    164e:	10ff50        	and	a15, a15, a5
    1651:	8164f2        	s32i	a15, a4, 0x204
    1654:	150c      	movi.n	a5, 1
    1656:	ff9846        	j	0x14bb
    1659:	1e61d2        	s32i	a13, a1, 120
    165c:	07a8      	l32i.n	a10, a7, 0
    165e:	2c0c      	movi.n	a12, 2
    1660:	17f8      	l32i.n	a15, a7, 4
    1662:	41f9      	s32i.n	a15, a1, 16
    1664:	41b8      	l32i.n	a11, a1, 16
    1666:	0091a5        	excw
    1669:	1461a2        	s32i	a10, a1, 80
    166c:	03c8      	l32i.n	a12, a3, 0
    166e:	27b8      	l32i.n	a11, a7, 8
    1670:	1561b2        	s32i	a11, a1, 84
    1673:	77cb      	addi.n	a7, a7, 12
    1675:	0016e5        	excw
    1678:	1e21d2        	l32i	a13, a1, 120
    167b:	15fa16        	beqz	a10, 0x17de
    167e:	1d61a2        	s32i	a10, a1, 116
    1681:	8a0b      	addi.n	a8, a10, -1
    1683:	f65816        	beqz	a8, 0x15ec
    1686:	1521b2        	l32i	a11, a1, 84
    1689:	205aa0        	or	a5, a10, a10
    168c:	00a0c2        	movi	a12, 0
    168f:	1421a2        	l32i	a10, a1, 80
    1692:	0023a5        	excw
    1695:	1e21d2        	l32i	a13, a1, 120
    1698:	1861a2        	s32i	a10, a1, 96
    169b:	fdc592        	addi	a9, a5, -3
    169e:	f48916        	beqz	a9, 0x15ea
    16a1:	03a8      	l32i.n	a10, a3, 0
    16a3:	aa0b      	addi.n	a10, a10, -1
    16a5:	03a9      	s32i.n	a10, a3, 0
    16a7:	ffcfc6        	j	0x15ea
    16aa:	0245b1        	l32r	a11, 0xfffc1fc0
    16ad:	0245a1        	l32r	a10, 0xfffc1fc4
    16b0:	07f8      	l32i.n	a15, a7, 0
    16b2:	3bb8      	l32i.n	a11, a11, 12
    16b4:	774b      	addi.n	a7, a7, 4
    16b6:	1aa8      	l32i.n	a10, a10, 4
    16b8:	c0bbf0        	sub	a11, a11, a15
    16bb:	0aeb16        	beqz	a11, 0x176d
    16be:	0e0c      	movi.n	a14, 0
    16c0:	026db1        	l32r	a11, 0xfffc2074
    16c3:	050c      	movi.n	a5, 0
    16c5:	0b9a76        	excw
    16c8:	7f2b82        	l32i	a8, a11, 0x1fc
    16cb:	bb6a      	add.n	a11, a11, a6
    16cd:	3f18f7        	beq	a8, a15, 0x1710
    16d0:	ee1b      	addi.n	a14, a14, 1
    16d2:	556a      	add.n	a5, a5, a6
    16d4:	0f0c      	movi.n	a15, 0
    16d6:	150c      	movi.n	a5, 1
    16d8:	02bea7        	bgeu	a14, a10, 0x16de
    16db:	00a052        	movi	a5, 0
    16de:	1a0c      	movi.n	a10, 1
    16e0:	090c      	movi.n	a9, 0
    16e2:	839a50        	moveqz	a9, a10, a5
    16e5:	f01916        	beqz	a9, 0x15ea
    16e8:	1e61d2        	s32i	a13, a1, 120
    16eb:	0a0c      	movi.n	a10, 0
    16ed:	0b0c      	movi.n	a11, 0
    16ef:	1fb9      	s32i.n	a11, a15, 4
    16f1:	00aa65        	excw
    16f4:	1e21d2        	l32i	a13, a1, 120
    16f7:	024ac1        	l32r	a12, 0xfffc2020
    16fa:	3e3c      	movi.n	a14, 51
    16fc:	272c92        	l32i	a9, a12, 156
    16ff:	5199      	s32i.n	a9, a1, 20
    1701:	5188      	l32i.n	a8, a1, 20
    1703:	1088e0        	and	a8, a8, a14
    1706:	5189      	s32i.n	a8, a1, 20
    1708:	51f8      	l32i.n	a15, a1, 20
    170a:	ee9fe7        	bne	a15, a14, 0x16fc
    170d:	ffb646        	j	0x15ea
    1710:	026ef1        	l32r	a15, 0xfffc20c8
    1713:	f5fa      	add.n	a15, a5, a15
    1715:	ffef46        	j	0x16d6
    1718:	61d200        	xsr.excsave2	a0
    171b:	1e          	.byte 0x1e
    171c:	18c1a2        	addi	a10, a1, 24
    171f:	cb2c      	movi.n	a11, 44
    1721:	0a26a5        	excw
    1724:	07a8      	l32i.n	a10, a7, 0
    1726:	71a9      	s32i.n	a10, a1, 28
    1728:	1798      	l32i.n	a9, a7, 4
    172a:	18c1a2        	addi	a10, a1, 24
    172d:	6199      	s32i.n	a9, a1, 24
    172f:	2788      	l32i.n	a8, a7, 8
    1731:	77cb      	addi.n	a7, a7, 12
    1733:	8189      	s32i.n	a8, a1, 32
    1735:	034565        	excw
    1738:	1e21d2        	l32i	a13, a1, 120
    173b:	ffaac6        	j	0x15ea
    173e:	1e61d2        	s32i	a13, a1, 120
    1741:	0027a2        	l32i	a10, a7, 0
    1744:	02a0c2        	movi	a12, 2
    1747:	17b8      	l32i.n	a11, a7, 4
    1749:	41b9      	s32i.n	a11, a1, 16
    174b:	41b8      	l32i.n	a11, a1, 16
    174d:	008325        	excw
    1750:	27b8      	l32i.n	a11, a7, 8
    1752:	1c0c      	movi.n	a12, 1
    1754:	77cb      	addi.n	a7, a7, 12
    1756:	001765        	excw
    1759:	1e21d2        	l32i	a13, a1, 120
    175c:	ffa286        	j	0x15ea
    175f:	024e81        	l32r	a8, 0xfffc2098
    1762:	1f0c      	movi.n	a15, 1
    1764:	c86822        	s32i	a2, a8, 0x320
    1767:	c668f2        	s32i	a15, a8, 0x318
    176a:	ff9f06        	j	0x15ea
    176d:	1a0c      	movi.n	a10, 1
    176f:	1e61d2        	s32i	a13, a1, 120
    1772:	025dc1        	l32r	a12, 0xfffc20e8
    1775:	1621d2        	l32i	a13, a1, 88
    1778:	1361d2        	s32i	a13, a1, 76
    177b:	7c0cb2        	l8ui	a11, a12, 124
    177e:	800cc2        	l8ui	a12, a12, 128
    1781:	008fa5        	excw
    1784:	1321a2        	l32i	a10, a1, 76
    1787:	041e25        	excw
    178a:	025dc1        	l32r	a12, 0xfffc2100
    178d:	0a0c      	movi.n	a10, 0
    178f:	7c0cb2        	l8ui	a11, a12, 124
    1792:	800cc2        	l8ui	a12, a12, 128
    1795:	008e65        	excw
    1798:	1e21d2        	l32i	a13, a1, 120
    179b:	0245a1        	l32r	a10, 0xfffc20b0
    179e:	025db1        	l32r	a11, 0xfffc2114
    17a1:	090c      	movi.n	a9, 0
    17a3:	4a99      	s32i.n	a9, a10, 16
    17a5:	1f6b92        	s32i	a9, a11, 124
    17a8:	206b92        	s32i	a9, a11, 128
    17ab:	326b92        	s32i	a9, a11, 200
    17ae:	8124e2        	l32i	a14, a4, 0x204
    17b1:	1321f2        	l32i	a15, a1, 76
    17b4:	387c      	movi.n	a8, -13
    17b6:	10ee80        	and	a14, a14, a8
    17b9:	8164e2        	s32i	a14, a4, 0x204
    17bc:	ffc786        	j	0x16de
    17bf:	26d200        	excw
    17c2:	c22b      	addi.n	a12, a2, 2
    17c4:	d02c26        	beqi	a12, 2, 0x1798
    17c7:	2dc0d2        	addi	a13, a0, 45
    17ca:	ccda05        	call0	0xfffce56c
    17cd:	2c66c2        	s32i	a12, a6, 176
    17d0:	f01d      	excw
    17d2:	a20000        	excw
    17d5:	e51821        	l32r	a2, 0xffffac38
    17d8:	ffbb      	addi.n	a15, a15, 11
    17da:	052d      	mov.n	a2, a5
    17dc:	f01d      	excw
    17de:	020c      	movi.n	a2, 0
    17e0:	f01d      	excw
    17e2:	360000        	excw
    17e5:	bd0061        	l32r	a6, 0xffff0be8
    17e8:	070c04        	excw
    17eb:	a03320        	addx4	a3, a3, a2
    17ee:	023237        	bltu	a2, a3, 0x17f4
    17f1:	002dc6        	j	0x18ac
    17f4:	0249e1        	l32r	a14, 0xfffc2118
    17f7:	0a0c      	movi.n	a10, 0
    17f9:	026fd1        	l32r	a13, 0xfffc21b8
    17fc:	027061        	l32r	a6, 0xfffc21bc
    17ff:	027141        	l32r	a4, 0xfffc21c4
    1802:	024581        	l32r	a8, 0xfffc2118
    1805:	0272f1        	l32r	a15, 0xfffc21d0
    1808:	11b9      	s32i.n	a11, a1, 4
    180a:	1888      	l32i.n	a8, a8, 4
    180c:	0189      	s32i.n	a8, a1, 0
    180e:	000406        	j	0x1822
    1811:	0273c1        	l32r	a12, 0xfffc21e0
    1814:	039bc7        	bne	a11, a12, 0x181b
    1817:	4a88      	l32i.n	a8, a10, 16
    1819:	98bc      	beqz.n	a8, 0x1856
    181b:	0298      	l32i.n	a9, a2, 0
    181d:	292a      	add.n	a2, a9, a2
    181f:	62b237        	bgeu	a2, a3, 0x1885
    1822:	12b8      	l32i.n	a11, a2, 4
    1824:	183bd7        	bltu	a11, a13, 0x1840
    1827:	ecb6b7        	bgeu	a6, a11, 0x1817
    182a:	0274c1        	l32r	a12, 0xfffc21fc
    182d:	027581        	l32r	a8, 0xfffc2204
    1830:	dd3bc7        	bltu	a11, a12, 0x1811
    1833:	e0b8b7        	bgeu	a8, a11, 0x1817
    1836:	027691        	l32r	a9, 0xfffc2210
    1839:	de9b97        	bne	a11, a9, 0x181b
    183c:	000586        	j	0x1856
    183f:	3bf700        	excw
    1842:	b70c      	movi.n	a7, 11
    1844:	bf          	.byte 0xbf
    1845:	0f          	.byte 0xf
    1846:	0277c1        	l32r	a12, 0xfffc2224
    1849:	ce9bc7        	bne	a11, a12, 0x181b
    184c:	000186        	j	0x1856
    184f:	3b4700        	excw
    1852:	b708      	l32i.n	a0, a7, 44
    1854:	0cc434        	excw
    1857:	f01d32        	l16ui	a3, a13, 0x1e0
    185a:	660000        	excw
    185d:	bb1b      	addi.n	a11, a11, 1
    185f:	0188      	l32i.n	a8, a1, 0
    1861:	026db1        	l32r	a11, 0xfffc2218
    1864:	00a0c2        	movi	a12, 0
    1867:	fb0816        	beqz	a8, 0x181b
    186a:	022252        	l32i	a5, a2, 8
    186d:	099876        	excw
    1870:	7f2b82        	l32i	a8, a11, 0x1fc
    1873:	bbea      	add.n	a11, a11, a14
    1875:	041857        	beq	a8, a5, 0x187d
    1878:	ccea      	add.n	a12, a12, a14
    187a:	ffe746        	j	0x181b
    187d:	026ea1        	l32r	a10, 0xfffc2238
    1880:	acaa      	add.n	a10, a12, a10
    1882:	ffe546        	j	0x181b
    1885:	4ab8      	l32i.n	a11, a10, 16
    1887:	6bbc      	beqz.n	a11, 0x18c1
    1889:	8a98      	l32i.n	a9, a10, 32
    188b:	0278b1        	l32r	a11, 0xfffc226c
    188e:	1cd9c2        	addmi	a12, a9, 0x1c00
    1891:	d20cc2        	l8ui	a12, a12, 210
    1894:	99ba      	add.n	a9, a9, a11
    1896:	0279b1        	l32r	a11, 0xfffc227c
    1899:	1b4c26        	beqi	a12, 4, 0x18b8
    189c:	7e69b2        	s32i	a11, a9, 0x1f8
    189f:	7f6972        	s32i	a7, a9, 0x1fc
    18a2:	806972        	s32i	a7, a9, 0x200
    18a5:	0417a5        	excw
    18a8:	120c      	movi.n	a2, 1
    18aa:	f01d      	excw
    18ac:	47d8      	l32i.n	a13, a7, 16
    18ae:	1149      	s32i.n	a4, a1, 4
    18b0:	dd8c      	beqz.n	a13, 0x18c1
    18b2:	0a0c      	movi.n	a10, 0
    18b4:	fff446        	j	0x1889
    18b7:	69b200        	excw
    18ba:	7e          	.byte 0x7e
    18bb:	7f6972        	s32i	a7, a9, 0x1fc
    18be:	fff8c6        	j	0x18a5
    18c1:	11f8      	l32i.n	a15, a1, 4
    18c3:	2e0c      	movi.n	a14, 2
    18c5:	937ef0        	movnez	a7, a14, a15
    18c8:	072d      	mov.n	a2, a7
    18ca:	f01d      	excw
    18cc:	00c136        	excw
    18cf:	04bd      	mov.n	a11, a4
    18d1:	a07320        	addx4	a7, a3, a2
    18d4:	023277        	bltu	a2, a7, 0x18da
    18d7:	012e86        	j	0x1d95
    18da:	050c      	movi.n	a5, 0
    18dc:	027431        	l32r	a3, 0xfffc22ac
    18df:	027a61        	l32r	a6, 0xfffc22c8
    18e2:	027241        	l32r	a4, 0xfffc22ac
    18e5:	b1b9      	s32i.n	a11, a1, 44
    18e7:	025f81        	l32r	a8, 0xfffc2264
    18ea:	090c      	movi.n	a9, 0
    18ec:	0a0c      	movi.n	a10, 0
    18ee:	f1a9      	s32i.n	a10, a1, 60
    18f0:	e199      	s32i.n	a9, a1, 56
    18f2:	d189      	s32i.n	a8, a1, 52
    18f4:	000bc6        	j	0x1927
    18f7:	c20000        	excw
    18fa:	a260a0        	excw
    18fd:	aacca1        	l32r	a10, 0xfffec430
    1900:	0c25a5        	excw
    1903:	ad0a      	add.n	a10, a13, a0
    1905:	f2e505        	call0	0xffff4758
    1908:	d5c202        	addi	a0, a2, -43
    190b:	0cb207        	bgeu	a2, a0, 0x191b
    190e:	d2dc      	bnez.n	a2, 0x192f
    1910:	d0fba0        	subx2	a15, a11, a10
    1913:	10bb      	addi.n	a1, a0, 11
    1915:	4d0c      	movi.n	a13, 4
    1917:	20bbd0        	or	a11, a11, a13
    191a:	dc4cb2        	s8i	a11, a12, 220
    191d:	02e8      	l32i.n	a14, a2, 0
    191f:	22ea      	add.n	a2, a2, a14
    1921:	023277        	bltu	a2, a7, 0x1927
    1924:	006d46        	j	0x1add
    1927:	12b8      	l32i.n	a11, a2, 4
    1929:	133b37        	bltu	a11, a3, 0x1940
    192c:	02b3b7        	bgeu	a3, a11, 0x1932
    192f:	002346        	j	0x19c0
    1932:	65c8      	l32i.n	a12, a5, 24
    1934:	b28b      	addi.n	a11, a2, 8
    1936:	cc0b      	addi.n	a12, a12, -1
    1938:	fbdc56        	bnez	a12, 0x18f9
    193b:	00ab86        	j	0x1bed
    193e:	670000        	excw
    1941:	02bb      	addi.n	a0, a2, 11
    1943:	003886        	j	0x1a29
    1946:	0236b7        	bltu	a6, a11, 0x194c
    1949:	008806        	j	0x1b6d
    194c:	0270f1        	l32r	a15, 0xfffc230c
    194f:	027081        	l32r	a8, 0xfffc2310
    1952:	028491        	l32r	a9, 0xfffc2364
    1955:	02bbf7        	bgeu	a11, a15, 0x195b
    1958:	006306        	j	0x1ae8
    195b:	0238b7        	bltu	a8, a11, 0x1961
    195e:	00f586        	j	0x1d38
    1961:	027b91        	l32r	a9, 0xfffc2350
    1964:	027ba1        	l32r	a10, 0xfffc2350
    1967:	0289c1        	l32r	a12, 0xfffc238c
    196a:	02bb97        	bgeu	a11, a9, 0x1970
    196d:	00a2c6        	j	0x1bfc
    1970:	023ab7        	bltu	a10, a11, 0x1976
    1973:	012d86        	j	0x1e2d
    1976:	0273c1        	l32r	a12, 0xfffc2344
    1979:	a09bc7        	bne	a11, a12, 0x191d
    197c:	02c8      	l32i.n	a12, a2, 0
    197e:	b28b      	addi.n	a11, a2, 8
    1980:	cc2a      	add.n	a12, a12, a2
    1982:	0cbc77        	bgeu	a12, a7, 0x1992
    1985:	027ce1        	l32r	a14, 0xfffc2378
    1988:	1cd8      	l32i.n	a13, a12, 4
    198a:	f03d      	nop.n
    198c:	c0dde0        	sub	a13, a13, a14
    198f:	5b5d16        	beqz	a13, 0x1f48
    1992:	0f0c      	movi.n	a15, 0
    1994:	c1f9      	s32i.n	a15, a1, 48
    1996:	68a0c2        	movi	a12, 104
    1999:	64a1a2        	movi	a10, 0x164
    199c:	a5aa      	add.n	a10, a5, a10
    199e:	0a0265        	excw
    19a1:	05ad      	mov.n	a10, a5
    19a3:	c1b8      	l32i.n	a11, a1, 48
    19a5:	02cae5        	excw
    19a8:	07d5c2        	addmi	a12, a5, 0x700
    19ab:	dc0cb2        	l8ui	a11, a12, 220
    19ae:	fda0d2        	movi	a13, 253
    19b1:	10bbd0        	and	a11, a11, a13
    19b4:	2d0c      	movi.n	a13, 2
    19b6:	20bbd0        	or	a11, a11, a13
    19b9:	dc4cb2        	s8i	a11, a12, 220
    19bc:	ffd746        	j	0x191d
    19bf:	7de100        	excw
    19c2:	7df102        	excw
    19c5:	80d102        	addmi	a0, a1, 0xffff8000
    19c8:	bbe702        	excw
    19cb:	2d0602        	l8ui	a0, a6, 45
    19ce:	3fb700        	excw
    19d1:	d1c602        	addi	a0, a6, -47
    19d4:	ff          	.byte 0xff
    19d5:	027e81        	l32r	a8, 0xfffc23d0
    19d8:	027e91        	l32r	a9, 0xfffc23d0
    19db:	028be1        	l32r	a14, 0xfffc2408
    19de:	02bb87        	bgeu	a11, a8, 0x19e4
    19e1:	009506        	j	0x1c39
    19e4:	0239b7        	bltu	a9, a11, 0x19ea
    19e7:	012386        	j	0x1e79
    19ea:	0276a1        	l32r	a10, 0xfffc23c4
    19ed:	0276c1        	l32r	a12, 0xfffc23c8
    19f0:	0291d1        	l32r	a13, 0xfffc2434
    19f3:	02bba7        	bgeu	a11, a10, 0x19f9
    19f6:	00e7c6        	j	0x1d99
    19f9:	02bcb7        	bgeu	a12, a11, 0x19ff
    19fc:	010e06        	j	0x1e38
    19ff:	55b8      	l32i.n	a11, a5, 20
    1a01:	0245c1        	l32r	a12, 0xfffc2318
    1a04:	0245d1        	l32r	a13, 0xfffc2318
    1a07:	bb1b      	addi.n	a11, a11, 1
    1a09:	55b9      	s32i.n	a11, a5, 20
    1a0b:	4dd8      	l32i.n	a13, a13, 16
    1a0d:	1f0c      	movi.n	a15, 1
    1a0f:	f1f9      	s32i.n	a15, a1, 60
    1a11:	9d8c      	beqz.n	a13, 0x1a1e
    1a13:	5cc8      	l32i.n	a12, a12, 20
    1a15:	051c26        	beqi	a12, 1, 0x1a1e
    1a18:	3ca0d2        	movi	a13, 60
    1a1b:	05bdb7        	bgeu	a13, a11, 0x1a24
    1a1e:	0e0c      	movi.n	a14, 0
    1a20:	45e9      	s32i.n	a14, a5, 16
    1a22:	55e9      	s32i.n	a14, a5, 20
    1a24:	ffbd46        	j	0x191d
    1a27:	470000        	excw
    1a2a:	02bb      	addi.n	a0, a2, 11
    1a2c:	002206        	j	0x1ab8
    1a2f:	0234b7        	bltu	a4, a11, 0x1a35
    1a32:	00a286        	j	0x1cc0
    1a35:	027781        	l32r	a8, 0xfffc2414
    1a38:	027791        	l32r	a9, 0xfffc2414
    1a3b:	02bb87        	bgeu	a11, a8, 0x1a41
    1a3e:	005e86        	j	0x1bbc
    1a41:	0239b7        	bltu	a9, a11, 0x1a47
    1a44:	00e446        	j	0x1dd9
    1a47:	027fa1        	l32r	a10, 0xfffc2444
    1a4a:	c0aba0        	sub	a10, a11, a10
    1a4d:	ecca56        	bnez	a10, 0x191d
    1a50:	b28b      	addi.n	a11, a2, 8
    1a52:	58a1c2        	movi	a12, 0x158
    1a55:	28a6a2        	movi	a10, 0x628
    1a58:	a5aa      	add.n	a10, a5, a10
    1a5a:	09f6a5        	excw
    1a5d:	025dc1        	l32r	a12, 0xfffc23d4
    1a60:	01a0a2        	movi	a10, 1
    1a63:	7c0cb2        	l8ui	a11, a12, 124
    1a66:	800cc2        	l8ui	a12, a12, 128
    1a69:	006125        	excw
    1a6c:	05ad      	mov.n	a10, a5
    1a6e:	037025        	excw
    1a71:	025dc1        	l32r	a12, 0xfffc23e8
    1a74:	00a0a2        	movi	a10, 0
    1a77:	7c0cb2        	l8ui	a11, a12, 124
    1a7a:	800cc2        	l8ui	a12, a12, 128
    1a7d:	005fe5        	excw
    1a80:	ffa646        	j	0x191d
    1a83:	3bd700        	excw
    1a86:	e179      	s32i.n	a7, a1, 56
    1a88:	f10280        	excw
    1a8b:	b70275        	excw
    1a8e:	3e          	.byte 0x3e
    1a8f:	c70602        	l8ui	a0, a6, 199
    1a92:	bbf700        	excw
    1a95:	9ac602        	addi	a0, a6, -102
    1a98:	758100        	extui	a8, a0, 17, 8
    1a9b:	819102        	l16si	a0, a1, 0x102
    1a9e:	38b702        	excw
    1aa1:	fcc602        	addi	a0, a6, -4
    1aa4:	9b9000        	excw
    1aa7:	1956c0        	excw
    1aaa:	a550e7        	bbc	a0, a14, 0x1a53
    1aad:	c2b220        	excw
    1ab0:	6508      	l32i.n	a0, a5, 24
    1ab2:	460295        	excw
    1ab5:	ff99      	s32i.n	a9, a15, 60
    1ab7:	82a100        	mull	a10, a1, a0
    1aba:	82c102        	addi	a0, a1, -126
    1abd:	71f102        	excw
    1ac0:	bba702        	movi	a0, 0x7bb
    1ac3:	210602        	l8ui	a0, a6, 33
    1ac6:	bcb700        	excw
    1ac9:	4f8602        	excw
    1acc:	83f100        	moveqz	a15, a1, a0
    1acf:	e1e802        	excw
    1ad2:	1d0c      	movi.n	a13, 1
    1ad4:	eefa      	add.n	a14, a14, a15
    1ad6:	e46ed2        	s32i	a13, a14, 0x390
    1ad9:	ff9006        	j	0x191d
    1adc:	358c00        	extui	a8, a0, 28, 4
    1adf:	f188      	l32i.n	a8, a1, 60
    1ae1:	3ab816        	beqz	a8, 0x1e90
    1ae4:	052d      	mov.n	a2, a5
    1ae6:	f01d      	excw
    1ae8:	02bb97        	bgeu	a11, a9, 0x1aee
    1aeb:	002c46        	j	0x1ba0
    1aee:	0284a1        	l32r	a10, 0xfffc2500
    1af1:	026fc1        	l32r	a12, 0xfffc24b0
    1af4:	02bab7        	bgeu	a10, a11, 0x1afa
    1af7:	007686        	j	0x1cd5
    1afa:	1b0c      	movi.n	a11, 1
    1afc:	35b9      	s32i.n	a11, a5, 12
    1afe:	ff86c6        	j	0x191d
    1b01:	0285c1        	l32r	a12, 0xfffc2518
    1b04:	0285d1        	l32r	a13, 0xfffc2518
    1b07:	028d91        	l32r	a9, 0xfffc253c
    1b0a:	02bbc7        	bgeu	a11, a12, 0x1b10
    1b0d:	0052c6        	j	0x1c5c
    1b10:	023db7        	bltu	a13, a11, 0x1b16
    1b13:	00ce46        	j	0x1e50
    1b16:	0286e1        	l32r	a14, 0xfffc2530
    1b19:	c0ebe0        	sub	a14, a11, a14
    1b1c:	dfde56        	bnez	a14, 0x191d
    1b1f:	b28b      	addi.n	a11, a2, 8
    1b21:	0ca1c2        	movi	a12, 0x10c
    1b24:	8ca4a2        	movi	a10, 0x48c
    1b27:	80a5a0        	add	a10, a5, a10
    1b2a:	09e9a5        	excw
    1b2d:	05ad      	mov.n	a10, a5
    1b2f:	07d5d2        	addmi	a13, a5, 0x700
    1b32:	dc0dc2        	l8ui	a12, a13, 220
    1b35:	bfa0e2        	movi	a14, 191
    1b38:	0b0c      	movi.n	a11, 0
    1b3a:	10cce0        	and	a12, a12, a14
    1b3d:	0e4c      	movi.n	a14, 64
    1b3f:	20cce0        	or	a12, a12, a14
    1b42:	dc4dc2        	s8i	a12, a13, 220
    1b45:	02da65        	excw
    1b48:	ff7446        	j	0x191d
    1b4b:	bbf700        	excw
    1b4e:	4e4602        	s8i	a0, a6, 78
    1b51:	718100        	excw
    1b54:	b8b702        	excw
    1b57:	704602        	s8i	a0, a6, 112
    1b5a:	ff          	.byte 0xff
    1b5b:	78c5a2        	addi	a10, a5, 120
    1b5e:	b28b      	addi.n	a11, a2, 8
    1b60:	8c2c      	movi.n	a12, 40
    1b62:	09e625        	excw
    1b65:	05ad      	mov.n	a10, a5
    1b67:	0293a5        	excw
    1b6a:	ff6bc6        	j	0x191d
    1b6d:	b28b      	addi.n	a11, a2, 8
    1b6f:	0c1c      	movi.n	a12, 16
    1b71:	c0a7a2        	movi	a10, 0x7c0
    1b74:	a5aa      	add.n	a10, a5, a10
    1b76:	09e4e5        	excw
    1b79:	025dc1        	l32r	a12, 0xfffc24f0
    1b7c:	01a0a2        	movi	a10, 1
    1b7f:	7c0cb2        	l8ui	a11, a12, 124
    1b82:	800cc2        	l8ui	a12, a12, 128
    1b85:	004f65        	excw
    1b88:	05ad      	mov.n	a10, a5
    1b8a:	09cba5        	excw
    1b8d:	025dc1        	l32r	a12, 0xfffc2504
    1b90:	00a0a2        	movi	a10, 0
    1b93:	7c0cb2        	l8ui	a11, a12, 124
    1b96:	800cc2        	l8ui	a12, a12, 128
    1b99:	004e25        	excw
    1b9c:	ff5f46        	j	0x191d
    1b9f:	87d100        	excw
    1ba2:	dbd002        	addmi	a0, a0, 0xffffdb00
    1ba5:	3d56c0        	excw
    1ba8:	05add7        	bge	a13, a13, 0x1bb1
    1bab:	b28b      	addi.n	a11, a2, 8
    1bad:	030ba5        	excw
    1bb0:	0e0c      	movi.n	a14, 0
    1bb2:	1f0c      	movi.n	a15, 1
    1bb4:	25f9      	s32i.n	a15, a5, 8
    1bb6:	35e9      	s32i.n	a14, a5, 12
    1bb8:	ff5846        	j	0x191d
    1bbb:	888100        	excw
    1bbe:	8b8002        	excw
    1bc1:	7856c0        	excw
    1bc4:	21a2d5        	excw
    1bc7:	0e          	.byte 0xe
    1bc8:	08c2b2        	addi	a11, a2, 8
    1bcb:	2ca2c2        	movi	a12, 0x22c
    1bce:	5c2aa2        	l32i	a10, a10, 0x170
    1bd1:	09df25        	excw
    1bd4:	07d5c2        	addmi	a12, a5, 0x700
    1bd7:	dc0cb2        	l8ui	a11, a12, 220
    1bda:	dfa0d2        	movi	a13, 223
    1bdd:	10bbd0        	and	a11, a11, a13
    1be0:	0d2c      	movi.n	a13, 32
    1be2:	20bbd0        	or	a11, a11, a13
    1be5:	dc4cb2        	s8i	a11, a12, 220
    1be8:	ff4c46        	j	0x191d
    1beb:	c20000        	excw
    1bee:	a260a0        	excw
    1bf1:	aae0a7        	bbsi	a0, 10, 0x1b9f
    1bf4:	dce5a5        	excw
    1bf7:	4609      	s32i.n	a0, a6, 16
    1bf9:	00ff43        	excw
    1bfc:	c0cbc0        	sub	a12, a11, a12
    1bff:	d1ac56        	bnez	a12, 0x191d
    1c02:	05ad      	mov.n	a10, a5
    1c04:	b28b      	addi.n	a11, a2, 8
    1c06:	02f5a5        	excw
    1c09:	ff4406        	j	0x191d
    1c0c:	028ad1        	l32r	a13, 0xfffc2634
    1c0f:	c0dbd0        	sub	a13, a11, a13
    1c12:	d07d56        	bnez	a13, 0x191d
    1c15:	b28b      	addi.n	a11, a2, 8
    1c17:	8c1c      	movi.n	a12, 24
    1c19:	a0a0a2        	movi	a10, 160
    1c1c:	a5aa      	add.n	a10, a5, a10
    1c1e:	09da65        	excw
    1c21:	0243c1        	l32r	a12, 0xfffc2530
    1c24:	812cb2        	l32i	a11, a12, 0x204
    1c27:	05ad      	mov.n	a10, a5
    1c29:	4d0c      	movi.n	a13, 4
    1c2b:	20bbd0        	or	a11, a11, a13
    1c2e:	816cb2        	s32i	a11, a12, 0x204
    1c31:	029ce5        	excw
    1c34:	ff3946        	j	0x191d
    1c37:	e70000        	excw
    1c3a:	02bb      	addi.n	a0, a2, 11
    1c3c:	004846        	j	0x1d61
    1c3f:	028bf1        	l32r	a15, 0xfffc266c
    1c42:	028c81        	l32r	a8, 0xfffc2674
    1c45:	023fb7        	bltu	a15, a11, 0x1c4b
    1c48:	009e46        	j	0x1ec5
    1c4b:	c08b80        	sub	a8, a11, a8
    1c4e:	ccb856        	bnez	a8, 0x191d
    1c51:	05ad      	mov.n	a10, a5
    1c53:	b28b      	addi.n	a11, a2, 8
    1c55:	0281a5        	excw
    1c58:	ff3046        	j	0x191d
    1c5b:	9b9000        	excw
    1c5e:	a956c0        	excw
    1c61:	a8cb      	addi.n	a10, a8, 12
    1c63:	b28b65        	excw
    1c66:	aa0b      	addi.n	a10, a10, -1
    1c68:	264a16        	beqz	a10, 0x1ed0
    1c6b:	4c4c      	movi.n	a12, 68
    1c6d:	2ca2a2        	movi	a10, 0x22c
    1c70:	a5aa      	add.n	a10, a5, a10
    1c72:	09d525        	excw
    1c75:	07d5c2        	addmi	a12, a5, 0x700
    1c78:	dc0cb2        	l8ui	a11, a12, 220
    1c7b:	f7a0d2        	movi	a13, 247
    1c7e:	10bbd0        	and	a11, a11, a13
    1c81:	8d0c      	movi.n	a13, 8
    1c83:	20bbd0        	or	a11, a11, a13
    1c86:	dc4cb2        	s8i	a11, a12, 220
    1c89:	ff2406        	j	0x191d
    1c8c:	eb0b      	addi.n	a14, a11, -1
    1c8e:	c8be56        	bnez	a14, 0x191d
    1c91:	b1f8      	l32i.n	a15, a1, 44
    1c93:	249f16        	beqz	a15, 0x1ee0
    1c96:	024591        	l32r	a9, 0xfffc25ac
    1c99:	3998      	l32i.n	a9, a9, 12
    1c9b:	22e8      	l32i.n	a14, a2, 8
    1c9d:	2b7916        	beqz	a9, 0x1f58
    1ca0:	d1a8      	l32i.n	a10, a1, 52
    1ca2:	c0be90        	sub	a11, a14, a9
    1ca5:	835ab0        	moveqz	a5, a10, a11
    1ca8:	0283e1        	l32r	a14, 0xfffc26b4
    1cab:	85d8      	l32i.n	a13, a5, 32
    1cad:	0c0c      	movi.n	a12, 0
    1caf:	e1d9      	s32i.n	a13, a1, 56
    1cb1:	ddea      	add.n	a13, a13, a14
    1cb3:	1a6dc2        	s32i	a12, a13, 104
    1cb6:	1b6dc2        	s32i	a12, a13, 108
    1cb9:	1c6dc2        	s32i	a12, a13, 112
    1cbc:	ff1746        	j	0x191d
    1cbf:	b28b00        	excw
    1cc2:	cc0c      	movi.n	a12, 12
    1cc4:	b8a0a2        	movi	a10, 184
    1cc7:	a5aa      	add.n	a10, a5, a10
    1cc9:	09cfa5        	excw
    1ccc:	05ad      	mov.n	a10, a5
    1cce:	09afe5        	excw
    1cd1:	ff1206        	j	0x191d
    1cd4:	cbc000        	excw
    1cd7:	1c56c0        	excw
    1cda:	c2b2c4        	excw
    1cdd:	c208      	l32i.n	a0, a2, 48
    1cdf:	a204a0        	excw
    1ce2:	aa70a2        	excw
    1ce5:	cde5a5        	excw
    1ce8:	ad09      	s32i.n	a0, a13, 40
    1cea:	d5e505        	call0	0xfffd7b3c
    1ced:	d5c202        	addi	a0, a2, -43
    1cf0:	0cb207        	bgeu	a2, a0, 0x1d00
    1cf3:	d2dc      	bnez.n	a2, 0x1d14
    1cf5:	d0efa0        	subx2	a14, a15, a10
    1cf8:	10bb      	addi.n	a1, a0, 11
    1cfa:	0d1c      	movi.n	a13, 16
    1cfc:	20bbd0        	or	a11, a11, a13
    1cff:	dc4cb2        	s8i	a11, a12, 220
    1d02:	ff05c6        	j	0x191d
    1d05:	028ee1        	l32r	a14, 0xfffc2740
    1d08:	c0ebe0        	sub	a14, a11, a14
    1d0b:	c0ee56        	bnez	a14, 0x191d
    1d0e:	b28b      	addi.n	a11, a2, 8
    1d10:	8c4c      	movi.n	a12, 72
    1d12:	d8a5a2        	movi	a10, 0x5d8
    1d15:	a5aa      	add.n	a10, a5, a10
    1d17:	09cae5        	excw
    1d1a:	05ad      	mov.n	a10, a5
    1d1c:	07d5d2        	addmi	a13, a5, 0x700
    1d1f:	dd0dc2        	l8ui	a12, a13, 221
    1d22:	fea0e2        	movi	a14, 254
    1d25:	2b0c      	movi.n	a11, 2
    1d27:	10cce0        	and	a12, a12, a14
    1d2a:	1e0c      	movi.n	a14, 1
    1d2c:	20cce0        	or	a12, a12, a14
    1d2f:	dd4dc2        	s8i	a12, a13, 221
    1d32:	02bba5        	excw
    1d35:	fef906        	j	0x191d
    1d38:	b28b      	addi.n	a11, a2, 8
    1d3a:	6ca0c2        	movi	a12, 108
    1d3d:	c4a0a2        	movi	a10, 196
    1d40:	a5aa      	add.n	a10, a5, a10
    1d42:	09c825        	excw
    1d45:	05ad      	mov.n	a10, a5
    1d47:	02d125        	excw
    1d4a:	07d5c2        	addmi	a12, a5, 0x700
    1d4d:	dc0cb2        	l8ui	a11, a12, 220
    1d50:	fea0d2        	movi	a13, 254
    1d53:	10bbd0        	and	a11, a11, a13
    1d56:	1d0c      	movi.n	a13, 1
    1d58:	20bbd0        	or	a11, a11, a13
    1d5b:	dc4cb2        	s8i	a11, a12, 220
    1d5e:	feeec6        	j	0x191d
    1d61:	028fe1        	l32r	a14, 0xfffc27a0
    1d64:	c0ebe0        	sub	a14, a11, a14
    1d67:	bb2e56        	bnez	a14, 0x191d
    1d6a:	b28b      	addi.n	a11, a2, 8
    1d6c:	cc0c      	movi.n	a12, 12
    1d6e:	d0a7a2        	movi	a10, 0x7d0
    1d71:	a5aa      	add.n	a10, a5, a10
    1d73:	09c525        	excw
    1d76:	32a8      	l32i.n	a10, a2, 12
    1d78:	22b8      	l32i.n	a11, a2, 8
    1d7a:	0290c1        	l32r	a12, 0xfffc27bc
    1d7d:	001ea5        	excw
    1d80:	e1c8      	l32i.n	a12, a1, 56
    1d82:	024ad1        	l32r	a13, 0xfffc26ac
    1d85:	f5a9      	s32i.n	a10, a5, 60
    1d87:	dcc8      	l32i.n	a12, a12, 52
    1d89:	5b2dd2        	l32i	a13, a13, 0x16c
    1d8c:	e5d9      	s32i.n	a13, a5, 56
    1d8e:	42b8      	l32i.n	a11, a2, 16
    1d90:	9cb9      	s32i.n	a11, a12, 36
    1d92:	fee1c6        	j	0x191d
    1d95:	020c      	movi.n	a2, 0
    1d97:	f01d      	excw
    1d99:	c0dbd0        	sub	a13, a11, a13
    1d9c:	b7dd56        	bnez	a13, 0x191d
    1d9f:	01ad      	mov.n	a10, a1
    1da1:	b28b      	addi.n	a11, a2, 8
    1da3:	cc2c      	movi.n	a12, 44
    1da5:	09c1e5        	excw
    1da8:	01ad      	mov.n	a10, a1
    1daa:	02de25        	excw
    1dad:	fedb06        	j	0x191d
    1db0:	b28b      	addi.n	a11, a2, 8
    1db2:	0c4c      	movi.n	a12, 64
    1db4:	98a5a2        	movi	a10, 0x598
    1db7:	a5aa      	add.n	a10, a5, a10
    1db9:	09c0a5        	excw
    1dbc:	05ad      	mov.n	a10, a5
    1dbe:	07d5d2        	addmi	a13, a5, 0x700
    1dc1:	dc0dc2        	l8ui	a12, a13, 220
    1dc4:	1b0c      	movi.n	a11, 1
    1dc6:	80a0e2        	movi	a14, 128
    1dc9:	64c0c0        	extui	a12, a12, 0, 7
    1dcc:	20cce0        	or	a12, a12, a14
    1dcf:	dc4dc2        	s8i	a12, a13, 220
    1dd2:	02b1a5        	excw
    1dd5:	fed106        	j	0x191d
    1dd8:	05ad00        	extui	a10, a0, 29, 1
    1ddb:	03c465        	excw
    1dde:	05d8      	l32i.n	a13, a5, 0
    1de0:	edbc      	beqz.n	a13, 0x1e22
    1de2:	025dc1        	l32r	a12, 0xfffc2758
    1de5:	1a0c      	movi.n	a10, 1
    1de7:	7c0cb2        	l8ui	a11, a12, 124
    1dea:	800cc2        	l8ui	a12, a12, 128
    1ded:	0028e5        	excw
    1df0:	05ad      	mov.n	a10, a5
    1df2:	03b765        	excw
    1df5:	025dc1        	l32r	a12, 0xfffc276c
    1df8:	00a0a2        	movi	a10, 0
    1dfb:	7c0cb2        	l8ui	a11, a12, 124
    1dfe:	800cc2        	l8ui	a12, a12, 128
    1e01:	0027a5        	excw
    1e04:	0243e1        	l32r	a14, 0xfffc2710
    1e07:	025d91        	l32r	a9, 0xfffc277c
    1e0a:	080c      	movi.n	a8, 0
    1e0c:	2589      	s32i.n	a8, a5, 8
    1e0e:	326982        	s32i	a8, a9, 200
    1e11:	206982        	s32i	a8, a9, 128
    1e14:	1f6982        	s32i	a8, a9, 124
    1e17:	812ed2        	l32i	a13, a14, 0x204
    1e1a:	3f7c      	movi.n	a15, -13
    1e1c:	10ddf0        	and	a13, a13, a15
    1e1f:	816ed2        	s32i	a13, a14, 0x204
    1e22:	0a0c      	movi.n	a10, 0
    1e24:	15a9      	s32i.n	a10, a5, 4
    1e26:	050c      	movi.n	a5, 0
    1e28:	febc46        	j	0x191d
    1e2b:	ad0000        	excw
    1e2e:	b28b05        	call0	0xfffb46e0
    1e31:	02d3e5        	excw
    1e34:	feb946        	j	0x191d
    1e37:	92c100        	excw
    1e3a:	cbc002        	addi	a0, a0, -53
    1e3d:	bc56c0        	excw
    1e40:	d8ad      	excw
    1e42:	6d1642        	l16ui	a4, a6, 218
    1e45:	adad      	excw
    1e47:	b28b05        	call0	0xfffb46f8
    1e4a:	03b7a5        	excw
    1e4d:	feb306        	j	0x191d
    1e50:	b28b      	addi.n	a11, a2, 8
    1e52:	18a2c2        	movi	a12, 0x218
    1e55:	74a2a2        	movi	a10, 0x274
    1e58:	a5aa      	add.n	a10, a5, a10
    1e5a:	09b6a5        	excw
    1e5d:	05ad      	mov.n	a10, a5
    1e5f:	02a1a5        	excw
    1e62:	07d5c2        	addmi	a12, a5, 0x700
    1e65:	dd0cb2        	l8ui	a11, a12, 221
    1e68:	fba0d2        	movi	a13, 251
    1e6b:	10bbd0        	and	a11, a11, a13
    1e6e:	4d0c      	movi.n	a13, 4
    1e70:	20bbd0        	or	a11, a11, a13
    1e73:	dd4cb2        	s8i	a11, a12, 221
    1e76:	fea8c6        	j	0x191d
    1e79:	b28b      	addi.n	a11, a2, 8
    1e7b:	4c1c      	movi.n	a12, 20
    1e7d:	84a7a2        	movi	a10, 0x784
    1e80:	a5aa      	add.n	a10, a5, a10
    1e82:	09b425        	excw
    1e85:	07d5c2        	addmi	a12, a5, 0x700
    1e88:	1b0c      	movi.n	a11, 1
    1e8a:	206cb2        	s32i	a11, a12, 128
    1e8d:	fea306        	j	0x191d
    1e90:	05ad      	mov.n	a10, a5
    1e92:	03b8e5        	excw
    1e95:	052d      	mov.n	a2, a5
    1e97:	f01d      	excw
    1e99:	b28b      	addi.n	a11, a2, 8
    1e9b:	8c0c      	movi.n	a12, 8
    1e9d:	20a6a2        	movi	a10, 0x620
    1ea0:	a5aa      	add.n	a10, a5, a10
    1ea2:	09b225        	excw
    1ea5:	05ad      	mov.n	a10, a5
    1ea7:	07d5d2        	addmi	a13, a5, 0x700
    1eaa:	dd0dc2        	l8ui	a12, a13, 221
    1ead:	fda0e2        	movi	a14, 253
    1eb0:	3b0c      	movi.n	a11, 3
    1eb2:	10cce0        	and	a12, a12, a14
    1eb5:	2e0c      	movi.n	a14, 2
    1eb7:	20cce0        	or	a12, a12, a14
    1eba:	dd4dc2        	s8i	a12, a13, 221
    1ebd:	02a2e5        	excw
    1ec0:	fe9646        	j	0x191d
    1ec3:	ad0000        	excw
    1ec6:	b28b05        	call0	0xfffb4778
    1ec9:	025665        	excw
    1ecc:	fe9346        	j	0x191d
    1ecf:	61a100        	excw
    1ed2:	a0c202        	addi	a0, a2, -96
    1ed5:	a5a044        	excw
    1ed8:	aea580        	excw
    1edb:	4609      	s32i.n	a0, a6, 16
    1edd:	00ff65        	excw
    1ee0:	0245f1        	l32r	a15, 0xfffc27f4
    1ee3:	1ff8      	l32i.n	a15, a15, 4
    1ee5:	0c0c      	movi.n	a12, 0
    1ee7:	dbdf16        	beqz	a15, 0x1ca8
    1eea:	026db1        	l32r	a11, 0xfffc28a0
    1eed:	0d0c      	movi.n	a13, 0
    1eef:	22e8      	l32i.n	a14, a2, 8
    1ef1:	0e9f76        	excw
    1ef4:	7f2b82        	l32i	a8, a11, 0x1fc
    1ef7:	024991        	l32r	a9, 0xfffc281c
    1efa:	2218e7        	beq	a8, a14, 0x1f20
    1efd:	cc1b      	addi.n	a12, a12, 1
    1eff:	bb9a      	add.n	a11, a11, a9
    1f01:	dd9a      	add.n	a13, a13, a9
    1f03:	02bcf7        	bgeu	a12, a15, 0x1f09
    1f06:	ff6786        	j	0x1ca8
    1f09:	026db1        	l32r	a11, 0xfffc28c0
    1f0c:	0c0c      	movi.n	a12, 0
    1f0e:	0b9f76        	excw
    1f11:	7f2ba2        	l32i	a10, a11, 0x1fc
    1f14:	0249d1        	l32r	a13, 0xfffc2838
    1f17:	da8c      	beqz.n	a10, 0x1f28
    1f19:	ccda      	add.n	a12, a12, a13
    1f1b:	bbda      	add.n	a11, a11, a13
    1f1d:	ff61c6        	j	0x1ca8
    1f20:	026e51        	l32r	a5, 0xfffc28d8
    1f23:	5d5a      	add.n	a5, a13, a5
    1f25:	fff686        	j	0x1f03
    1f28:	029481        	l32r	a8, 0xfffc2978
    1f2b:	024551        	l32r	a5, 0xfffc2840
    1f2e:	0293a1        	l32r	a10, 0xfffc297c
    1f31:	7f6be2        	s32i	a14, a11, 0x1fc
    1f34:	090c      	movi.n	a9, 0
    1f36:	acaa      	add.n	a10, a12, a10
    1f38:	7f6a92        	s32i	a9, a10, 0x1fc
    1f3b:	558a      	add.n	a5, a5, a8
    1f3d:	5c5a      	add.n	a5, a12, a5
    1f3f:	05ad      	mov.n	a10, a5
    1f41:	0242e5        	excw
    1f44:	ff5806        	j	0x1ca8
    1f47:	0c2d00        	excw
    1f4a:	3cd8      	l32i.n	a13, a12, 12
    1f4c:	2ce8      	l32i.n	a14, a12, 8
    1f4e:	c1e9      	s32i.n	a14, a1, 48
    1f50:	a54d56        	bnez	a13, 0x19a8
    1f53:	fe8fc6        	j	0x1996
    1f56:	f10000        	excw
    1f59:	a80245        	call0	0xfffa9f80
    1f5c:	3fe9d1        	l32r	a13, 0xfffd1f00
    1f5f:	0a5d      	mov.n	a5, a10
    1f61:	0240e5        	excw
    1f64:	ff5006        	j	0x1ca8
    1f67:	413600        	srli	a3, a0, 6
    1f6a:	480000        	excw
    1f6d:	958140        	extui	a8, a4, 17, 10
    1f70:	532002        	l32i	a0, a0, 0x14c
    1f73:	202081        	l32r	a8, 0xfffc9ff4
    1f76:	848074        	excw
    1f79:	085920        	excw
    1f7c:	f01d      	excw
    1f7e:	360000        	excw
    1f81:	f60061        	l32r	a6, 0xfffff784
    1f84:	510a84        	excw
    1f87:	500296        	bltz	a2, 0x248b
    1f8a:	58a054        	excw
    1f8d:	05a005        	call0	0x7990
    1f90:	017800        	slli	a7, a8, 32
    1f93:	1148      	l32i.n	a4, a1, 4
    1f95:	029581        	l32r	a8, 0xfffc29ec
    1f98:	404800        	ssai	8
    1f9b:	813320        	src	a3, a3, a2
    1f9e:	204480        	or	a4, a4, a8
    1fa1:	0439      	s32i.n	a3, a4, 0
    1fa3:	048076        	excw
    1fa6:	0498      	l32i.n	a9, a4, 0
    1fa8:	041397        	beq	a3, a9, 0x1fb0
    1fab:	fffd06        	j	0x1fa3
    1fae:	510000        	excw
    1fb1:	200297        	bnone	a2, a9, 0x1fd5
    1fb4:	207420        	or	a7, a4, a2
    1fb7:	5a2027        	blt	a0, a2, 0x2015
    1fba:	f01d22        	l16ui	a2, a13, 0x1e0
    1fbd:	029871        	l32r	a7, 0xfffc2a20
    1fc0:	029941        	l32r	a4, 0xfffc2a24
    1fc3:	fff386        	j	0x1f95
    1fc6:	029a71        	l32r	a7, 0xfffc2a30
    1fc9:	029b41        	l32r	a4, 0xfffc2a38
    1fcc:	fff146        	j	0x1f95
    1fcf:	029c71        	l32r	a7, 0xfffc2a40
    1fd2:	029d41        	l32r	a4, 0xfffc2a48
    1fd5:	ffef06        	j	0x1f95
    1fd8:	029e71        	l32r	a7, 0xfffc2a50
    1fdb:	029f41        	l32r	a4, 0xfffc2a58
    1fde:	ffecc6        	j	0x1f95
    1fe1:	02a071        	l32r	a7, 0xfffc2a64
    1fe4:	02a141        	l32r	a4, 0xfffc2a68
    1fe7:	ffea86        	j	0x1f95
    1fea:	02a271        	l32r	a7, 0xfffc2a74
    1fed:	02a341        	l32r	a4, 0xfffc2a7c
    1ff0:	ffe846        	j	0x1f95
    1ff3:	02a471        	l32r	a7, 0xfffc2a84
    1ff6:	02a541        	l32r	a4, 0xfffc2a8c
    1ff9:	ffe606        	j	0x1f95
    1ffc:	02a671        	l32r	a7, 0xfffc2a94
    1fff:	02a741        	l32r	a4, 0xfffc2a9c
    2002:	ffe3c6        	j	0x1f95
    2005:	000000        	ill
    2008:	004136        	excw
    200b:	029541        	l32r	a4, 0xfffc2a60
    200e:	204240        	or	a4, a2, a4
    2011:	0439      	s32i.n	a3, a4, 0
    2013:	f01d      	excw
    2015:	000000        	ill
    2018:	004136        	excw
    201b:	029531        	l32r	a3, 0xfffc2a70
    201e:	202230        	or	a2, a2, a3
    2021:	0228      	l32i.n	a2, a2, 0
    2023:	f01d      	excw
    2025:	000000        	ill
    2028:	004136        	excw
    202b:	0297a1        	l32r	a10, 0xfffc2a88
    202e:	03bd      	mov.n	a11, a3
    2030:	04cd      	mov.n	a12, a4
    2032:	80a2a0        	add	a10, a2, a10
    2035:	0998e5        	excw
    2038:	f01d      	excw
    203a:	360000        	excw
    203d:	b10041        	l32r	a4, 0xfffee440
    2040:	ad0297        	bnone	a2, a9, 0x1ff1
    2043:	04cd03        	excw
    2046:	80b2b0        	add	a11, a2, a11
    2049:	0997a5        	excw
    204c:	f01d      	excw
    204e:	360000        	excw
    2051:	1d0041        	l32r	a4, 0xfffc9454
    2054:	0000f0        	excw
    2057:	413600        	srli	a3, a0, 6
    205a:	b22000        	excw
    205d:	a8a120        	excw
    2060:	fa6502        	s32i	a0, a5, 0x3e8
    2063:	ff          	.byte 0xff
    2064:	f01d      	excw
    2066:	360000        	excw
    2069:	310041        	l32r	a4, 0xfffce46c
    206c:	02a9      	s32i.n	a10, a2, 0
    206e:	1a2322        	l32i	a2, a3, 104
    2071:	00a142        	movi	a4, 0x100
    2074:	202240        	or	a2, a2, a4
    2077:	1a6322        	s32i	a2, a3, 104
    207a:	f01d      	excw
    207c:	004136        	excw
    207f:	02a971        	l32r	a7, 0xfffc2b24
    2082:	02aa81        	l32r	a8, 0xfffc2b2c
    2085:	3f2762        	l32i	a6, a7, 252
    2088:	02ab91        	l32r	a9, 0xfffc2b34
    208b:	52ac      	beqz.n	a2, 0x20b4
    208d:	105680        	and	a5, a6, a8
    2090:	3f6752        	s32i	a5, a7, 252
    2093:	ef2762        	l32i	a6, a7, 0x3bc
    2096:	738c      	beqz.n	a3, 0x20a1
    2098:	02ac81        	l32r	a8, 0xfffc2b48
    209b:	206690        	or	a6, a6, a9
    209e:	106680        	and	a6, a6, a8
    20a1:	f4ac      	beqz.n	a4, 0x20d4
    20a3:	024b91        	l32r	a9, 0xfffc29d0
    20a6:	02ada1        	l32r	a10, 0xfffc2b5c
    20a9:	209690        	or	a9, a6, a9
    20ac:	1099a0        	and	a9, a9, a10
    20af:	ef6792        	s32i	a9, a7, 0x3bc
    20b2:	f01d      	excw
    20b4:	03cc      	bnez.n	a3, 0x20b8
    20b6:	f49c      	beqz.n	a4, 0x20d9
    20b8:	ef27a2        	l32i	a10, a7, 0x3bc
    20bb:	0c0c      	movi.n	a12, 0
    20bd:	1d0c      	movi.n	a13, 1
    20bf:	0b0c      	movi.n	a11, 0
    20c1:	83bd40        	moveqz	a11, a13, a4
    20c4:	83cd30        	moveqz	a12, a13, a3
    20c7:	1efac3        	excw
    20ca:	1ffab3        	excw
    20cd:	ef67a2        	s32i	a10, a7, 0x3bc
    20d0:	f01d      	excw
    20d2:	620000        	excw
    20d5:	1def67        	bbsi	a15, 6, 0x20f6
    20d8:	020cf0        	excw
    20db:	150c      	movi.n	a5, 1
    20dd:	0f0c      	movi.n	a15, 0
    20df:	10a680        	and	a10, a6, a8
    20e2:	20aa90        	or	a10, a10, a9
    20e5:	3f67a2        	s32i	a10, a7, 252
    20e8:	ef27e2        	l32i	a14, a7, 0x3bc
    20eb:	83f540        	moveqz	a15, a5, a4
    20ee:	832530        	moveqz	a2, a5, a3
    20f1:	1efe23        	excw
    20f4:	1ffef3        	excw
    20f7:	ef67e2        	s32i	a14, a7, 0x3bc
    20fa:	f01d      	excw
    20fc:	004136        	excw
    20ff:	02a921        	l32r	a2, 0xfffc2ba4
    2102:	e922d2        	l32i	a13, a2, 0x3a4
    2105:	02ae91        	l32r	a9, 0xfffc2bc0
    2108:	1a0c      	movi.n	a10, 1
    210a:	20dda0        	or	a13, a13, a10
    210d:	e962d2        	s32i	a13, a2, 0x3a4
    2110:	1822b2        	l32i	a11, a2, 96
    2113:	680c      	movi.n	a8, 6
    2115:	dc7c      	movi.n	a12, -3
    2117:	10bbc0        	and	a11, a11, a12
    211a:	1862b2        	s32i	a11, a2, 96
    211d:	e86982        	s32i	a8, a9, 0x3a0
    2120:	000265        	excw
    2123:	0a0c      	movi.n	a10, 0
    2125:	000225        	excw
    2128:	172282        	l32i	a8, a2, 92
    212b:	1a22e2        	l32i	a14, a2, 104
    212e:	e0a1f2        	movi	a15, 0x1e0
    2131:	02af81        	l32r	a8, 0xfffc2bf0
    2134:	10eef0        	and	a14, a14, a15
    2137:	02b0f1        	l32r	a15, 0xfffc2bf8
    213a:	208e80        	or	a8, a14, a8
    213d:	1a6282        	s32i	a8, a2, 104
    2140:	20eef0        	or	a14, a14, a15
    2143:	1a62e2        	s32i	a14, a2, 104
    2146:	f01d      	excw
    2148:	004136        	excw
    214b:	02a961        	l32r	a6, 0xfffc2bf0
    214e:	02ae71        	l32r	a7, 0xfffc2c08
    2151:	182642        	l32i	a4, a6, 96
    2154:	e82752        	l32i	a5, a7, 0x3a0
    2157:	e28c      	beqz.n	a2, 0x2169
    2159:	120c      	movi.n	a2, 1
    215b:	203420        	or	a3, a4, a2
    215e:	186632        	s32i	a3, a6, 96
    2161:	202520        	or	a2, a5, a2
    2164:	e86722        	s32i	a2, a7, 0x3a0
    2167:	f01d      	excw
    2169:	e87c      	movi.n	a8, -2
    216b:	108480        	and	a8, a4, a8
    216e:	186682        	s32i	a8, a6, 96
    2171:	f01d      	excw
    2173:	413600        	srli	a3, a0, 6
    2176:	a93100        	excw
    2179:	232202        	l32i	a0, a2, 140
    217c:	3218      	l32i.n	a1, a2, 12
    217e:	201923        	excw
    2181:	552a      	add.n	a5, a5, a2
    2183:	a53530        	extui	a3, a3, 21, 11
    2186:	112290        	slli	a2, a2, 7
    2189:	113330        	slli	a3, a3, 13
    218c:	202230        	or	a2, a2, a3
    218f:	930c      	movi.n	a3, 9
    2191:	202230        	or	a2, a2, a3
    2194:	f01d      	excw
    2196:	360000        	excw
    2199:	2c0041        	l32r	a4, 0xfffcd19c
    219c:	a37603        	excw
    219f:	821d      	excw
    21a1:	820472        	l8ui	a7, a4, 130
    21a4:	824472        	s8i	a7, a4, 130
    21a7:	828472        	excw
    21aa:	82c472        	addi	a7, a4, -126
    21ad:	2201d2        	l8ui	a13, a1, 34
    21b0:	8202d2        	l8ui	a13, a2, 130
    21b3:	0478      	l32i.n	a7, a4, 0
    21b5:	447882        	excw
    21b8:	847882        	excw
    21bb:	c47882        	excw
    21be:	f01d      	excw
    21c0:	006136        	excw
    21c3:	3129      	s32i.n	a2, a1, 12
    21c5:	eca5b2        	movi	a11, 0x5ec
    21c8:	24a792        	movi	a9, 0x724
    21cb:	e82232        	l32i	a3, a2, 0x3a0
    21ce:	050c      	movi.n	a5, 0
    21d0:	44a3d2        	movi	a13, 0x344
    21d3:	0288      	l32i.n	a8, a2, 0
    21d5:	d2a8      	l32i.n	a10, a2, 52
    21d7:	1cd262        	addmi	a6, a2, 0x1c00
    21da:	332642        	l32i	a4, a6, 204
    21dd:	21a9      	s32i.n	a10, a1, 8
    21df:	0189      	s32i.n	a8, a1, 0
    21e1:	17d2a2        	addmi	a10, a2, 0x1700
    21e4:	2a2682        	l32i	a8, a6, 168
    21e7:	382aa2        	l32i	a10, a10, 224
    21ea:	11a9      	s32i.n	a10, a1, 4
    21ec:	8244d0        	mull	a4, a4, a13
    21ef:	396652        	s32i	a5, a6, 228
    21f2:	434a      	add.n	a4, a3, a4
    21f4:	449a      	add.n	a4, a4, a9
    21f6:	3f4816        	beqz	a8, 0x25ee
    21f9:	8d26c2        	l32i	a12, a6, 0x234
    21fc:	06cc16        	beqz	a12, 0x226c
    21ff:	21e8      	l32i.n	a14, a1, 8
    2201:	242ee2        	l32i	a14, a14, 144
    2204:	070c      	movi.n	a7, 0
    2206:	05be16        	beqz	a14, 0x2265
    2209:	2128      	l32i.n	a2, a1, 8
    220b:	53ba      	add.n	a5, a3, a11
    220d:	44a3f2        	movi	a15, 0x344
    2210:	82fef0        	mull	a15, a14, a15
    2213:	8e26e2        	l32i	a14, a6, 0x238
    2216:	ff3a      	add.n	a15, a15, a3
    2218:	80ffb0        	add	a15, a15, a11
    221b:	278076        	excw
    221e:	6edc      	bnez.n	a14, 0x2238
    2220:	7a2582        	l32i	a8, a5, 0x1e8
    2223:	2022c2        	l32i	a12, a2, 128
    2226:	7365c2        	s32i	a12, a5, 0x1cc
    2229:	1822a2        	l32i	a10, a2, 96
    222c:	7565a2        	s32i	a10, a5, 0x1d4
    222f:	1c2292        	l32i	a9, a2, 112
    2232:	766592        	s32i	a9, a5, 0x1d8
    2235:	796582        	s32i	a8, a5, 0x1e4
    2238:	4e2582        	l32i	a8, a5, 0x138
    223b:	a8cc      	bnez.n	a8, 0x2249
    223d:	771b      	addi.n	a7, a7, 1
    223f:	224b      	addi.n	a2, a2, 4
    2241:	55da      	add.n	a5, a5, a13
    2243:	1eb5f7        	bgeu	a5, a15, 0x2265
    2246:	fff446        	j	0x221b
    2249:	31a8      	l32i.n	a10, a1, 12
    224b:	74b070        	extui	a11, a7, 0, 8
    224e:	0487e5        	excw
    2251:	eca5b2        	movi	a11, 0x5ec
    2254:	21e8      	l32i.n	a14, a1, 8
    2256:	224b      	addi.n	a2, a2, 4
    2258:	771b      	addi.n	a7, a7, 1
    225a:	242ee2        	l32i	a14, a14, 144
    225d:	44a3d2        	movi	a13, 0x344
    2260:	55da      	add.n	a5, a5, a13
    2262:	a737e7        	bltu	a7, a14, 0x220d
    2265:	050c      	movi.n	a5, 0
    2267:	0f0c      	movi.n	a15, 0
    2269:	8d66f2        	s32i	a15, a6, 0x234
    226c:	0488      	l32i.n	a8, a4, 0
    226e:	fac882        	addi	a8, a8, -6
    2271:	26f816        	beqz	a8, 0x24e4
    2274:	3198      	l32i.n	a9, a1, 12
    2276:	5c2992        	l32i	a9, a9, 0x170
    2279:	0329a2        	l32i	a10, a9, 12
    227c:	02a971        	l32r	a7, 0xfffc2d20
    227f:	024e21        	l32r	a2, 0xfffc2bb8
    2282:	ffcaa2        	addi	a10, a10, -1
    2285:	270a16        	beqz	a10, 0x24f9
    2288:	2a26a2        	l32i	a10, a6, 168
    228b:	2aac      	beqz.n	a10, 0x22b1
    228d:	01c8      	l32i.n	a12, a1, 0
    228f:	4e26d2        	l32i	a13, a6, 0x138
    2292:	1cc8      	l32i.n	a12, a12, 4
    2294:	149cd7        	bne	a12, a13, 0x22ac
    2297:	01d8      	l32i.n	a13, a1, 0
    2299:	4f26e2        	l32i	a14, a6, 0x13c
    229c:	0dd8      	l32i.n	a13, a13, 0
    229e:	0a9de7        	bne	a13, a14, 0x22ac
    22a1:	21e8      	l32i.n	a14, a1, 8
    22a3:	5026f2        	l32i	a15, a6, 0x140
    22a6:	032ee2        	l32i	a14, a14, 12
    22a9:	041ef7        	beq	a14, a15, 0x22b1
    22ac:	1f0c      	movi.n	a15, 1
    22ae:	4166f2        	s32i	a15, a6, 0x104
    22b1:	1198      	l32i.n	a9, a1, 4
    22b3:	3a0c      	movi.n	a10, 3
    22b5:	1959      	s32i.n	a5, a9, 4
    22b7:	2a2682        	l32i	a8, a6, 168
    22ba:	2c0c      	movi.n	a12, 2
    22bc:	685652        	s16i	a5, a6, 208
    22bf:	09f816        	beqz	a8, 0x2362
    22c2:	8c26d2        	l32i	a13, a6, 0x230
    22c5:	00bd16        	beqz	a13, 0x22d4
    22c8:	8f26b2        	l32i	a11, a6, 0x23c
    22cb:	6d2692        	l32i	a9, a6, 0x1b4
    22ce:	2ceb16        	beqz	a11, 0x25a0
    22d1:	08d916        	beqz	a9, 0x2362
    22d4:	21e8      	l32i.n	a14, a1, 8
    22d6:	132ee2        	l32i	a14, a14, 76
    22d9:	bebc      	beqz.n	a14, 0x2318
    22db:	21e8      	l32i.n	a14, a1, 8
    22dd:	3326f2        	l32i	a15, a6, 204
    22e0:	a0efe0        	addx4	a14, a15, a14
    22e3:	142ee2        	l32i	a14, a14, 80
    22e6:	eeac      	beqz.n	a14, 0x2318
    22e8:	1b0c      	movi.n	a11, 1
    22ea:	44a382        	movi	a8, 0x344
    22ed:	828f80        	mull	a8, a15, a8
    22f0:	d90692        	l8ui	a9, a6, 217
    22f3:	838a      	add.n	a8, a3, a8
    22f5:	08d882        	addmi	a8, a8, 0x800
    22f8:	112882        	l32i	a8, a8, 68
    22fb:	939b90        	movnez	a9, a11, a9
    22fe:	400900        	ssr	a9
    2301:	918080        	srl	a8, a8
    2304:	109e87        	bne	a14, a8, 0x2318
    2307:	31b8      	l32i.n	a11, a1, 12
    2309:	24a7a2        	movi	a10, 0x724
    230c:	a3aa      	add.n	a10, a3, a10
    230e:	03bf25        	excw
    2311:	2c0c      	movi.n	a12, 2
    2313:	3a0c      	movi.n	a10, 3
    2315:	8c26d2        	l32i	a13, a6, 0x230
    2318:	9d8c      	beqz.n	a13, 0x2325
    231a:	6d26b2        	l32i	a11, a6, 0x1b4
    231d:	4bcc      	bnez.n	a11, 0x2325
    231f:	8c6652        	s32i	a5, a6, 0x230
    2322:	2a6652        	s32i	a5, a6, 168
    2325:	2198      	l32i.n	a9, a1, 8
    2327:	292992        	l32i	a9, a9, 164
    232a:	278916        	beqz	a9, 0x25a6
    232d:	fec9b2        	addi	a11, a9, -2
    2330:	29db16        	beqz	a11, 0x25d1
    2333:	793966        	bnei	a9, 3, 0x23b0
    2336:	31e8      	l32i.n	a14, a1, 12
    2338:	2b6652        	s32i	a5, a6, 172
    233b:	11f8      	l32i.n	a15, a1, 4
    233d:	1d0c      	movi.n	a13, 1
    233f:	6856d2        	s16i	a13, a6, 208
    2342:	246fc2        	s32i	a12, a15, 144
    2345:	256fa2        	s32i	a10, a15, 148
    2348:	332682        	l32i	a8, a6, 204
    234b:	dee8      	l32i.n	a14, a14, 52
    234d:	f83a      	add.n	a15, a8, a3
    234f:	ee8a      	add.n	a14, a14, a8
    2351:	940ee2        	l8ui	a14, a14, 148
    2354:	004fe2        	s8i	a14, a15, 0
    2357:	4066d2        	s32i	a13, a6, 0x100
    235a:	4166d2        	s32i	a13, a6, 0x104
    235d:	0013c6        	j	0x23b0
    2360:	b80000        	excw
    2363:	218831        	l32r	a3, 0xfffca984
    2366:	2b6652        	s32i	a5, a6, 172
    2369:	2a6652        	s32i	a5, a6, 168
    236c:	11d8      	l32i.n	a13, a1, 4
    236e:	190c      	movi.n	a9, 1
    2370:	685692        	s16i	a9, a6, 208
    2373:	256da2        	s32i	a10, a13, 148
    2376:	246dc2        	s32i	a12, a13, 144
    2379:	2968a2        	s32i	a10, a8, 164
    237c:	3326e2        	l32i	a14, a6, 204
    237f:	dbb8      	l32i.n	a11, a11, 52
    2381:	de3a      	add.n	a13, a14, a3
    2383:	bbea      	add.n	a11, a11, a14
    2385:	940bb2        	l8ui	a11, a11, 148
    2388:	004db2        	s8i	a11, a13, 0
    238b:	406692        	s32i	a9, a6, 0x100
    238e:	416692        	s32i	a9, a6, 0x104
    2391:	8a6652        	s32i	a5, a6, 0x228
    2394:	806652        	s32i	a5, a6, 0x200
    2397:	816652        	s32i	a5, a6, 0x204
    239a:	826652        	s32i	a5, a6, 0x208
    239d:	132882        	l32i	a8, a8, 76
    23a0:	988c      	beqz.n	a8, 0x23ad
    23a2:	31b8      	l32i.n	a11, a1, 12
    23a4:	24a7a2        	movi	a10, 0x724
    23a7:	80a3a0        	add	a10, a3, a10
    23aa:	03b565        	excw
    23ad:	8c6652        	s32i	a5, a6, 0x230
    23b0:	4226b2        	l32i	a11, a6, 0x108
    23b3:	005b16        	beqz	a11, 0x23bc
    23b6:	0321a2        	l32i	a10, a1, 12
    23b9:	079b65        	excw
    23bc:	4026c2        	l32i	a12, a6, 0x100
    23bf:	3c8c      	beqz.n	a12, 0x23c6
    23c1:	31a8      	l32i.n	a10, a1, 12
    23c3:	06bf65        	excw
    23c6:	0121d2        	l32i	a13, a1, 4
    23c9:	242dd2        	l32i	a13, a13, 144
    23cc:	ef2792        	l32i	a9, a7, 0x3bc
    23cf:	fecdd2        	addi	a13, a13, -2
    23d2:	16ad16        	beqz	a13, 0x2540
    23d5:	02b1e1        	l32r	a14, 0xfffc2e9c
    23d8:	10e9e0        	and	a14, a9, a14
    23db:	ef67e2        	s32i	a14, a7, 0x3bc
    23de:	0121a2        	l32i	a10, a1, 4
    23e1:	018b25        	excw
    23e4:	31a8      	l32i.n	a10, a1, 12
    23e6:	003fe5        	excw
    23e9:	21f8      	l32i.n	a15, a1, 8
    23eb:	2c2ff2        	l32i	a15, a15, 176
    23ee:	7f8c      	beqz.n	a15, 0x23f9
    23f0:	0321a2        	l32i	a10, a1, 12
    23f3:	5c2aa2        	l32i	a10, a10, 0x170
    23f6:	05a025        	excw
    23f9:	3926b2        	l32i	a11, a6, 228
    23fc:	f03d      	nop.n
    23fe:	14ab16        	beqz	a11, 0x254c
    2401:	80a0a2        	movi	a10, 128
    2404:	0b0c      	movi.n	a11, 0
    2406:	048ba5        	excw
    2409:	21c8      	l32i.n	a12, a1, 8
    240b:	02ae71        	l32r	a7, 0xfffc2ec4
    240e:	132cc2        	l32i	a12, a12, 76
    2411:	ad27d2        	l32i	a13, a7, 0x2b4
    2414:	09bc16        	beqz	a12, 0x24b3
    2417:	ad27b2        	l32i	a11, a7, 0x2b4
    241a:	04ad      	mov.n	a10, a4
    241c:	31c8      	l32i.n	a12, a1, 12
    241e:	041fe5        	excw
    2421:	3226d2        	l32i	a13, a6, 200
    2424:	021d26        	beqi	a13, 1, 0x242a
    2427:	002086        	j	0x24ad
    242a:	31f8      	l32i.n	a15, a1, 12
    242c:	dff8      	l32i.n	a15, a15, 52
    242e:	3326e2        	l32i	a14, a6, 204
    2431:	242ff2        	l32i	a15, a15, 144
    2434:	0c0c      	movi.n	a12, 0
    2436:	ee1b      	addi.n	a14, a14, 1
    2438:	71bef7        	bgeu	a14, a15, 0x24ad
    243b:	20dee0        	or	a13, a14, a14
    243e:	468076        	excw
    2441:	44a3a2        	movi	a10, 0x344
    2444:	82ada0        	mull	a10, a13, a10
    2447:	a3aa      	add.n	a10, a3, a10
    2449:	05daa2        	addmi	a10, a10, 0x500
    244c:	d12a82        	l32i	a8, a10, 0x344
    244f:	cc1b      	addi.n	a12, a12, 1
    2451:	78bc      	beqz.n	a8, 0x248c
    2453:	b42a92        	l32i	a9, a10, 0x2d0
    2456:	b12a82        	l32i	a8, a10, 0x2c4
    2459:	b62ad2        	l32i	a13, a10, 0x2d8
    245c:	b02ab2        	l32i	a11, a10, 0x2c0
    245f:	dd8a      	add.n	a13, a13, a8
    2461:	bb9a      	add.n	a11, a11, a9
    2463:	b46ab2        	s32i	a11, a10, 0x2d0
    2466:	b66ad2        	s32i	a13, a10, 0x2d8
    2469:	892a92        	l32i	a9, a10, 0x224
    246c:	04bd87        	bgeu	a13, a8, 0x2474
    246f:	bb1b      	addi.n	a11, a11, 1
    2471:	b46ab2        	s32i	a11, a10, 0x2d0
    2474:	242926        	beqi	a9, 2, 0x249c
    2477:	214926        	beqi	a9, 4, 0x249c
    247a:	1c2482        	l32i	a8, a4, 112
    247d:	dcea      	add.n	a13, a12, a14
    247f:	c08b80        	sub	a8, a11, a8
    2482:	b46a82        	s32i	a8, a10, 0x2d0
    2485:	24bdf7        	bgeu	a13, a15, 0x24ad
    2488:	ffec86        	j	0x243e
    248b:	6a5200        	excw
    248e:	6a52b6        	bltui	a2, 5, 0x24fc
    2491:	2ab2a7        	bgeu	a2, a10, 0x24bf
    2494:	6ab2b5        	excw
    2497:	f786b4        	excw
    249a:	ff          	.byte 0xff
    249b:	2ad200        	excw
    249e:	adb7b3        	excw
    24a1:	0dbdd7        	bgeu	a13, a13, 0x24b2
    24a4:	b46ad2        	s32i	a13, a10, 0x2d0
    24a7:	fff3c6        	j	0x247a
    24aa:	000000        	ill
    24ad:	392692        	l32i	a9, a6, 228
    24b0:	206492        	s32i	a9, a4, 128
    24b3:	02b2a1        	l32r	a10, 0xfffc2f7c
    24b6:	64a0b2        	movi	a11, 100
    24b9:	2b26d2        	l32i	a13, a6, 172
    24bc:	2a26e2        	l32i	a14, a6, 168
    24bf:	1c0c      	movi.n	a12, 1
    24c1:	2966c2        	s32i	a12, a6, 164
    24c4:	ee1b      	addi.n	a14, a14, 1
    24c6:	dd1b      	addi.n	a13, a13, 1
    24c8:	2b66d2        	s32i	a13, a6, 172
    24cb:	2a66e2        	s32i	a14, a6, 168
    24ce:	b467c2        	s32i	a12, a7, 0x2d0
    24d1:	047ee5        	excw
    24d4:	02b381        	l32r	a8, 0xfffc2fa0
    24d7:	122222        	l32i	a2, a2, 72
    24da:	102280        	and	a2, a2, a8
    24dd:	1122d0        	slli	a2, a2, 3
    24e0:	f01d      	excw
    24e2:	920000        	excw
    24e5:	165e24        	excw
    24e8:	d899      	s32i.n	a9, a8, 52
    24ea:	606452        	s32i	a5, a4, 0x180
    24ed:	616452        	s32i	a5, a4, 0x184
    24f0:	cd6452        	s32i	a5, a4, 0x334
    24f3:	d06452        	s32i	a5, a4, 0x340
    24f6:	ff5e86        	j	0x2274
    24f9:	09a8      	l32i.n	a10, a9, 0
    24fb:	aa0b      	addi.n	a10, a10, -1
    24fd:	d87a56        	bnez	a10, 0x2288
    2500:	21b8      	l32i.n	a11, a1, 8
    2502:	2c2bb2        	l32i	a11, a11, 176
    2505:	d7fb16        	beqz	a11, 0x2288
    2508:	02b4c1        	l32r	a12, 0xfffc2fd8
    250b:	c222b2        	l32i	a11, a2, 0x308
    250e:	024da1        	l32r	a10, 0xfffc2e44
    2511:	20bbc0        	or	a11, a11, a12
    2514:	c262b2        	s32i	a11, a2, 0x308
    2517:	c42282        	l32i	a8, a2, 0x310
    251a:	0258f1        	l32r	a15, 0xfffc2e7c
    251d:	2088a0        	or	a8, a8, a10
    2520:	c46282        	s32i	a8, a2, 0x310
    2523:	c222e2        	l32i	a14, a2, 0x308
    2526:	0d4c      	movi.n	a13, 64
    2528:	20eef0        	or	a14, a14, a15
    252b:	c262e2        	s32i	a14, a2, 0x308
    252e:	8167d2        	s32i	a13, a7, 0x204
    2531:	69c8      	l32i.n	a12, a9, 24
    2533:	cc0b      	addi.n	a12, a12, -1
    2535:	d4fc56        	bnez	a12, 0x2288
    2538:	4d0c      	movi.n	a13, 4
    253a:	8167d2        	s32i	a13, a7, 0x204
    253d:	ff51c6        	j	0x2288
    2540:	02b5e1        	l32r	a14, 0xfffc3014
    2543:	20e9e0        	or	a14, a9, a14
    2546:	ef67e2        	s32i	a14, a7, 0x3bc
    2549:	ffa446        	j	0x23de
    254c:	6d26f2        	l32i	a15, a6, 0x1b4
    254f:	eaef56        	bnez	a15, 0x2401
    2552:	2188      	l32i.n	a8, a1, 8
    2554:	0888      	l32i.n	a8, a8, 0
    2556:	388c      	beqz.n	a8, 0x255d
    2558:	31a8      	l32i.n	a10, a1, 12
    255a:	0461a5        	excw
    255d:	21c8      	l32i.n	a12, a1, 8
    255f:	11a8      	l32i.n	a10, a1, 4
    2561:	ffa0e2        	movi	a14, 255
    2564:	f667e2        	s32i	a14, a7, 0x3d8
    2567:	282a92        	l32i	a9, a10, 160
    256a:	63a0d2        	movi	a13, 99
    256d:	116cd2        	s32i	a13, a12, 68
    2570:	fec9b2        	addi	a11, a9, -2
    2573:	106cb2        	s32i	a11, a12, 64
    2576:	162aa2        	l32i	a10, a10, 88
    2579:	aa0b      	addi.n	a10, a10, -1
    257b:	e82a56        	bnez	a10, 0x2401
    257e:	d906f2        	l8ui	a15, a6, 217
    2581:	7f8c      	beqz.n	a15, 0x258c
    2583:	2a2682        	l32i	a8, a6, 168
    2586:	048080        	extui	a8, a8, 0, 1
    2589:	e74856        	bnez	a8, 0x2401
    258c:	11b8      	l32i.n	a11, a1, 4
    258e:	74a090        	extui	a10, a9, 0, 8
    2591:	292bc2        	l32i	a12, a11, 164
    2594:	286bc2        	s32i	a12, a11, 160
    2597:	296ba2        	s32i	a10, a11, 164
    259a:	ff98c6        	j	0x2401
    259d:	000000        	ill
    25a0:	d30956        	bnez	a9, 0x22d4
    25a3:	ff5806        	j	0x2307
    25a6:	1198      	l32i.n	a9, a1, 4
    25a8:	31d8      	l32i.n	a13, a1, 12
    25aa:	246952        	s32i	a5, a9, 144
    25ad:	256952        	s32i	a5, a9, 148
    25b0:	332682        	l32i	a8, a6, 204
    25b3:	dde8      	l32i.n	a14, a13, 52
    25b5:	f83a      	add.n	a15, a8, a3
    25b7:	ee8a      	add.n	a14, a14, a8
    25b9:	980ee2        	l8ui	a14, a14, 152
    25bc:	004fe2        	s8i	a14, a15, 0
    25bf:	bdd8      	l32i.n	a13, a13, 44
    25c1:	552dd2        	l32i	a13, a13, 0x154
    25c4:	dd0b      	addi.n	a13, a13, -1
    25c6:	de6d56        	bnez	a13, 0x23b0
    25c9:	1a0c      	movi.n	a10, 1
    25cb:	8a66a2        	s32i	a10, a6, 0x228
    25ce:	ff7786        	j	0x23b0
    25d1:	11d8      	l32i.n	a13, a1, 4
    25d3:	31b8      	l32i.n	a11, a1, 12
    25d5:	246dc2        	s32i	a12, a13, 144
    25d8:	256dc2        	s32i	a12, a13, 148
    25db:	3326e2        	l32i	a14, a6, 204
    25de:	dbb8      	l32i.n	a11, a11, 52
    25e0:	de3a      	add.n	a13, a14, a3
    25e2:	bbea      	add.n	a11, a11, a14
    25e4:	940bb2        	l8ui	a11, a11, 148
    25e7:	004db2        	s8i	a11, a13, 0
    25ea:	ff7086        	j	0x23b0
    25ed:	31a800        	srai	a10, a0, 24
    25f0:	044865        	excw
    25f3:	21e8      	l32i.n	a14, a1, 8
    25f5:	44a3d2        	movi	a13, 0x344
    25f8:	f03d      	nop.n
    25fa:	242ee2        	l32i	a14, a14, 144
    25fd:	eca5b2        	movi	a11, 0x5ec
    2600:	93ba      	add.n	a9, a3, a11
    2602:	079e76        	excw
    2605:	4e29f2        	l32i	a15, a9, 0x138
    2608:	046f26        	beqi	a15, 6, 0x2610
    260b:	99da      	add.n	a9, a9, a13
    260d:	fefa06        	j	0x21f9
    2610:	ac2982        	l32i	a8, a9, 0x2b0
    2613:	ff4816        	beqz	a8, 0x260b
    2616:	b06952        	s32i	a5, a9, 0x2c0
    2619:	fffb86        	j	0x260b
    261c:	006136        	excw
    261f:	d298      	l32i.n	a9, a2, 52
    2621:	050c      	movi.n	a5, 0
    2623:	0248      	l32i.n	a4, a2, 0
    2625:	2b2992        	l32i	a9, a9, 172
    2628:	17d232        	addmi	a3, a2, 0x1700
    262b:	382332        	l32i	a3, a3, 224
    262e:	524926        	beqi	a9, 4, 0x2684
    2631:	fbc982        	addi	a8, a9, -5
    2634:	089816        	beqz	a8, 0x26c1
    2637:	fec9a2        	addi	a10, a9, -2
    263a:	0d2a16        	beqz	a10, 0x2710
    263d:	1c6966        	bnei	a9, 6, 0x265d
    2640:	1bd2a2        	addmi	a10, a2, 0x1b00
    2643:	c32ac2        	l32i	a12, a10, 0x30c
    2646:	c22ab2        	l32i	a11, a10, 0x308
    2649:	059d      	mov.n	a9, a5
    264b:	cc0b      	addi.n	a12, a12, -1
    264d:	0fbbc7        	bgeu	a11, a12, 0x2660
    2650:	9b1b      	addi.n	a9, a11, 1
    2652:	000286        	j	0x2660
    2655:	059d      	mov.n	a9, a5
    2657:	c26292        	s32i	a9, a2, 0x308
    265a:	15b916        	beqz	a9, 0x27b9
    265d:	f01d      	excw
    265f:	6a9200        	excw
    2662:	d916c2        	l16ui	a12, a6, 0x1b2
    2665:	0e          	.byte 0xe
    2666:	c42af2        	l32i	a15, a10, 0x310
    2669:	c72ad2        	l32i	a13, a10, 0x31c
    266c:	ddfa      	add.n	a13, a13, a15
    266e:	c76ad2        	s32i	a13, a10, 0x31c
    2671:	fdfa      	add.n	a15, a13, a15
    2673:	c86af2        	s32i	a15, a10, 0x320
    2676:	5423e2        	l32i	a14, a3, 0x150
    2679:	c0dde0        	sub	a13, a13, a14
    267c:	53dd50        	excw
    267f:	c66ad2        	s32i	a13, a10, 0x318
    2682:	f01d      	excw
    2684:	1bd222        	addmi	a2, a2, 0x1b00
    2687:	be22e2        	l32i	a14, a2, 0x2f8
    268a:	c022a2        	l32i	a10, a2, 0x300
    268d:	059d      	mov.n	a9, a5
    268f:	ee0b      	addi.n	a14, a14, -1
    2691:	04bae7        	bgeu	a10, a14, 0x2699
    2694:	9a1b      	addi.n	a9, a10, 1
    2696:	ffffc6        	j	0x2699
    2699:	c06292        	s32i	a9, a2, 0x300
    269c:	0d0916        	beqz	a9, 0x2770
    269f:	a4a8      	l32i.n	a10, a4, 40
    26a1:	c722f2        	l32i	a15, a2, 0x31c
    26a4:	ffaa      	add.n	a15, a15, a10
    26a6:	c762f2        	s32i	a15, a2, 0x31c
    26a9:	afaa      	add.n	a10, a15, a10
    26ab:	c862a2        	s32i	a10, a2, 0x320
    26ae:	552392        	l32i	a9, a3, 0x154
    26b1:	a388      	l32i.n	a8, a3, 40
    26b3:	828890        	mull	a8, a8, a9
    26b6:	c0ff80        	sub	a15, a15, a8
    26b9:	53ff50        	excw
    26bc:	c662f2        	s32i	a15, a2, 0x318
    26bf:	f01d      	excw
    26c1:	1bd222        	addmi	a2, a2, 0x1b00
    26c4:	c32282        	l32i	a8, a2, 0x30c
    26c7:	c122b2        	l32i	a11, a2, 0x304
    26ca:	880b      	addi.n	a8, a8, -1
    26cc:	55bb87        	bgeu	a11, a8, 0x2725
    26cf:	ab2b      	addi.n	a10, a11, 2
    26d1:	bf2272        	l32i	a7, a2, 0x2fc
    26d4:	9b1b      	addi.n	a9, a11, 1
    26d6:	0199      	s32i.n	a9, a1, 0
    26d8:	c16292        	s32i	a9, a2, 0x304
    26db:	0b2462        	l32i	a6, a4, 44
    26de:	20b770        	or	a11, a7, a7
    26e1:	093665        	excw
    26e4:	0a6a16        	beqz	a10, 0x278e
    26e7:	0021a2        	l32i	a10, a1, 0
    26ea:	209660        	or	a9, a6, a6
    26ed:	0aca16        	beqz	a10, 0x279d
    26f0:	c822b2        	l32i	a11, a2, 0x320
    26f3:	bb1b      	addi.n	a11, a11, 1
    26f5:	c762b2        	s32i	a11, a2, 0x31c
    26f8:	e9ba      	add.n	a14, a9, a11
    26fa:	c862e2        	s32i	a14, a2, 0x320
    26fd:	5523d2        	l32i	a13, a3, 0x154
    2700:	a3c8      	l32i.n	a12, a3, 40
    2702:	82ccd0        	mull	a12, a12, a13
    2705:	c0bbc0        	sub	a11, a11, a12
    2708:	53bb50        	excw
    270b:	c662b2        	s32i	a11, a2, 0x318
    270e:	f01d      	excw
    2710:	d4c8      	l32i.n	a12, a4, 52
    2712:	1bd222        	addmi	a2, a2, 0x1b00
    2715:	c222b2        	l32i	a11, a2, 0x308
    2718:	cc0b      	addi.n	a12, a12, -1
    271a:	023bc7        	bltu	a11, a12, 0x2720
    271d:	ffcd06        	j	0x2655
    2720:	9b1b      	addi.n	a9, a11, 1
    2722:	ffcc46        	j	0x2657
    2725:	1a0c      	movi.n	a10, 1
    2727:	bf2272        	l32i	a7, a2, 0x2fc
    272a:	c16252        	s32i	a5, a2, 0x304
    272d:	b468      	l32i.n	a6, a4, 44
    272f:	07bd      	mov.n	a11, a7
    2731:	093165        	excw
    2734:	086a16        	beqz	a10, 0x27be
    2737:	c86262        	s32i	a6, a2, 0x320
    273a:	c76252        	s32i	a5, a2, 0x31c
    273d:	5523e2        	l32i	a14, a3, 0x154
    2740:	a3d8      	l32i.n	a13, a3, 40
    2742:	82dde0        	mull	a13, a13, a14
    2745:	ca6252        	s32i	a5, a2, 0x328
    2748:	60d0d0        	neg	a13, a13
    274b:	53dd50        	excw
    274e:	c662d2        	s32i	a13, a2, 0x318
    2751:	f01d      	excw
    2753:	6a5200        	excw
    2756:	2a82c7        	bany	a2, a12, 0x2784
    2759:	6a82c4        	excw
    275c:	f2c8      	l32i.n	a12, a2, 60
    275e:	525423        	excw
    2761:	ca6a      	add.n	a12, a10, a6
    2763:	60f0f0        	neg	a15, a15
    2766:	53ff50        	excw
    2769:	c66af2        	s32i	a15, a10, 0x318
    276c:	f01d      	excw
    276e:	520000        	excw
    2771:	b8c762        	addi	a6, a7, -72
    2774:	62b2a4        	excw
    2777:	a2c8      	l32i.n	a12, a2, 40
    2779:	985523        	excw
    277c:	99a0a3        	excw
    277f:	625282        	s16i	a8, a2, 196
    2782:	90ca      	add.n	a9, a0, a12
    2784:	506090        	witlb	a9, a0
    2787:	5399      	s32i.n	a9, a3, 20
    2789:	c66292        	s32i	a9, a2, 0x318
    278c:	f01d      	excw
    278e:	01c8      	l32i.n	a12, a1, 0
    2790:	a498      	l32i.n	a9, a4, 40
    2792:	a70b      	addi.n	a10, a7, -1
    2794:	82a6a0        	mull	a10, a6, a10
    2797:	c099a0        	sub	a9, a9, a10
    279a:	f52c56        	bnez	a12, 0x26f0
    279d:	c76252        	s32i	a5, a2, 0x31c
    27a0:	c86292        	s32i	a9, a2, 0x320
    27a3:	5523c2        	l32i	a12, a3, 0x154
    27a6:	a3b8      	l32i.n	a11, a3, 40
    27a8:	82bbc0        	mull	a11, a11, a12
    27ab:	ca6252        	s32i	a5, a2, 0x328
    27ae:	60b0b0        	neg	a11, a11
    27b1:	53bb50        	excw
    27b4:	c662b2        	s32i	a11, a2, 0x318
    27b7:	f01d      	excw
    27b9:	ca6252        	s32i	a5, a2, 0x328
    27bc:	f01d      	excw
    27be:	a4f8      	l32i.n	a15, a4, 40
    27c0:	870b      	addi.n	a8, a7, -1
    27c2:	828680        	mull	a8, a6, a8
    27c5:	c76252        	s32i	a5, a2, 0x31c
    27c8:	c0ff80        	sub	a15, a15, a8
    27cb:	c862f2        	s32i	a15, a2, 0x320
    27ce:	5523e2        	l32i	a14, a3, 0x154
    27d1:	a3d8      	l32i.n	a13, a3, 40
    27d3:	82dde0        	mull	a13, a13, a14
    27d6:	ca6252        	s32i	a5, a2, 0x328
    27d9:	60d0d0        	neg	a13, a13
    27dc:	53dd50        	excw
    27df:	c662d2        	s32i	a13, a2, 0x318
    27e2:	f01d      	excw
    27e4:	00a136        	excw
    27e7:	0278      	l32i.n	a7, a2, 0
    27e9:	d268      	l32i.n	a6, a2, 52
    27eb:	040c      	movi.n	a4, 0
    27ed:	44a3b2        	movi	a11, 0x344
    27f0:	02b651        	l32r	a5, 0xfffc32c8
    27f3:	1bd232        	addmi	a3, a2, 0x1b00
    27f6:	e82292        	l32i	a9, a2, 0x3a0
    27f9:	7199      	s32i.n	a9, a1, 28
    27fb:	7323a2        	l32i	a10, a3, 0x1cc
    27fe:	525a      	add.n	a5, a2, a5
    2800:	4159      	s32i.n	a5, a1, 16
    2802:	82aab0        	mull	a10, a10, a11
    2805:	7f2552        	l32i	a5, a5, 0x1fc
    2808:	99aa      	add.n	a9, a9, a10
    280a:	24a7a2        	movi	a10, 0x724
    280d:	99aa      	add.n	a9, a9, a10
    280f:	6549      	s32i.n	a4, a5, 24
    2811:	7549      	s32i.n	a4, a5, 28
    2813:	2c2682        	l32i	a8, a6, 176
    2816:	2199      	s32i.n	a9, a1, 8
    2818:	02a991        	l32r	a9, 0xfffc32bc
    281b:	a88c      	beqz.n	a8, 0x2829
    281d:	5c22c2        	l32i	a12, a2, 0x170
    2820:	6cc8      	l32i.n	a12, a12, 24
    2822:	4d0c      	movi.n	a13, 4
    2824:	1c8c      	beqz.n	a12, 0x2829
    2826:	8169d2        	s32i	a13, a9, 0x204
    2829:	80a0a2        	movi	a10, 128
    282c:	0b0c      	movi.n	a11, 0
    282e:	044925        	excw
    2831:	02aef1        	l32r	a15, 0xfffc32ec
    2834:	ad2ff2        	l32i	a15, a15, 0x2b4
    2837:	01f9      	s32i.n	a15, a1, 0
    2839:	796342        	s32i	a4, a3, 0x1e4
    283c:	1326e2        	l32i	a14, a6, 76
    283f:	0a0c      	movi.n	a10, 0
    2841:	1ebc      	beqz.n	a14, 0x2876
    2843:	21a8      	l32i.n	a10, a1, 8
    2845:	190c      	movi.n	a9, 1
    2847:	2525c2        	l32i	a12, a5, 148
    284a:	1ac9      	s32i.n	a12, a10, 4
    284c:	6a23b2        	l32i	a11, a3, 0x1a8
    284f:	080c      	movi.n	a8, 0
    2851:	20c220        	or	a12, a2, a2
    2854:	8389b0        	moveqz	a8, a9, a11
    2857:	236a82        	s32i	a8, a10, 140
    285a:	0021b2        	l32i	a11, a1, 0
    285d:	0371a5        	excw
    2860:	ca23d2        	l32i	a13, a3, 0x328
    2863:	7963a2        	s32i	a10, a3, 0x1e4
    2866:	071d26        	beqi	a13, 1, 0x2871
    2869:	2525e2        	l32i	a14, a5, 148
    286c:	f03d      	nop.n
    286e:	043e66        	bnei	a14, 3, 0x2876
    2871:	796342        	s32i	a4, a3, 0x1e4
    2874:	0a0c      	movi.n	a10, 0
    2876:	01a092        	movi	a9, 1
    2879:	09fa16        	beqz	a10, 0x291c
    287c:	1549      	s32i.n	a4, a5, 4
    287e:	246542        	s32i	a4, a5, 144
    2881:	17f8      	l32i.n	a15, a7, 4
    2883:	31f9      	s32i.n	a15, a1, 12
    2885:	e85342        	s16i	a4, a3, 0x1d0
    2888:	4f8c      	beqz.n	a15, 0x2890
    288a:	016742        	s32i	a4, a7, 4
    288d:	816392        	s32i	a9, a3, 0x204
    2890:	242592        	l32i	a9, a5, 144
    2893:	180c      	movi.n	a8, 1
    2895:	00a0a2        	movi	a10, 0
    2898:	fec992        	addi	a9, a9, -2
    289b:	83a890        	moveqz	a10, a8, a9
    289e:	0823e5        	excw
    28a1:	8123a2        	l32i	a10, a3, 0x204
    28a4:	0020f0        	nop
    28a7:	005a16        	beqz	a10, 0x28b0
    28aa:	20a220        	or	a10, a2, a2
    28ad:	06cae5        	excw
    28b0:	8423b2        	l32i	a11, a3, 0x210
    28b3:	0020f0        	nop
    28b6:	3b8c      	beqz.n	a11, 0x28bd
    28b8:	02ad      	mov.n	a10, a2
    28ba:	045a25        	excw
    28bd:	7923c2        	l32i	a12, a3, 0x1e4
    28c0:	061c16        	beqz	a12, 0x2925
    28c3:	7122e2        	l32i	a14, a2, 0x1c4
    28c6:	088e16        	beqz	a14, 0x2952
    28c9:	02ad      	mov.n	a10, a2
    28cb:	0b0c      	movi.n	a11, 0
    28cd:	05d4a5        	excw
    28d0:	e822f2        	l32i	a15, a2, 0x3a0
    28d3:	06dff2        	addmi	a15, a15, 0x600
    28d6:	482f82        	l32i	a8, a15, 0x120
    28d9:	472ff2        	l32i	a15, a15, 0x11c
    28dc:	061f87        	beq	a15, a8, 0x28e6
    28df:	02ad      	mov.n	a10, a2
    28e1:	0b0c      	movi.n	a11, 0
    28e3:	0657e5        	excw
    28e6:	41c8      	l32i.n	a12, a1, 16
    28e8:	7f2cc2        	l32i	a12, a12, 0x1fc
    28eb:	02ad      	mov.n	a10, a2
    28ed:	0b0c      	movi.n	a11, 0
    28ef:	dcc8      	l32i.n	a12, a12, 52
    28f1:	081125        	excw
    28f4:	02d8      	l32i.n	a13, a2, 0
    28f6:	1dd8      	l32i.n	a13, a13, 4
    28f8:	131d16        	beqz	a13, 0x2a2d
    28fb:	02ad      	mov.n	a10, a2
    28fd:	0b0c      	movi.n	a11, 0
    28ff:	0c0c      	movi.n	a12, 0
    2901:	5d0c      	movi.n	a13, 5
    2903:	1e0c      	movi.n	a14, 1
    2905:	0f0c      	movi.n	a15, 0
    2907:	064e25        	excw
    290a:	06e8      	l32i.n	a14, a6, 0
    290c:	4e8c      	beqz.n	a14, 0x2914
    290e:	20a220        	or	a10, a2, a2
    2911:	042625        	excw
    2914:	31f8      	l32i.n	a15, a1, 12
    2916:	17f9      	s32i.n	a15, a7, 4
    2918:	f01d      	excw
    291a:	820000        	mull	a0, a0, a0
    291d:	56ad23        	excw
    2920:	f598      	l32i.n	a9, a5, 60
    2922:	ffda86        	j	0x2890
    2925:	ad2392        	l32i	a9, a3, 0x2b4
    2928:	f97956        	bnez	a9, 0x28c3
    292b:	040c      	movi.n	a4, 0
    292d:	dca5b2        	movi	a11, 0x5dc
    2930:	d5e8      	l32i.n	a14, a5, 52
    2932:	02b7d1        	l32r	a13, 0xfffc3410
    2935:	02aec1        	l32r	a12, 0xfffc33f0
    2938:	1ad2a2        	addmi	a10, a2, 0x1a00
    293b:	61a9      	s32i.n	a10, a1, 24
    293d:	616cd2        	s32i	a13, a12, 0x184
    2940:	626cb2        	s32i	a11, a12, 0x188
    2943:	fe2aa2        	l32i	a10, a10, 0x3f8
    2946:	1169      	s32i.n	a6, a1, 4
    2948:	91e9      	s32i.n	a14, a1, 36
    294a:	25aa16        	beqz	a10, 0x2ba8
    294d:	060c      	movi.n	a6, 0
    294f:	005fc6        	j	0x2ad2
    2952:	080c      	movi.n	a8, 0
    2954:	02b8d1        	l32r	a13, 0xfffc3434
    2957:	1e0c      	movi.n	a14, 1
    2959:	090c      	movi.n	a9, 0
    295b:	ce2da2        	l32i	a10, a13, 0x338
    295e:	d02dc2        	l32i	a12, a13, 0x340
    2961:	cd2db2        	l32i	a11, a13, 0x334
    2964:	cf2dd2        	l32i	a13, a13, 0x33c
    2967:	839ea0        	moveqz	a9, a14, a10
    296a:	838eb0        	moveqz	a8, a14, a11
    296d:	180897        	bnone	a8, a9, 0x2989
    2970:	0dfd      	mov.n	a15, a13
    2972:	0c8d      	mov.n	a8, a12
    2974:	938ec0        	movnez	a8, a14, a12
    2977:	93fed0        	movnez	a15, a14, a13
    297a:	20ff80        	or	a15, a15, a8
    297d:	8f8c      	beqz.n	a15, 0x2989
    297f:	0cad      	mov.n	a10, a12
    2981:	5acdb2        	addi	a11, a13, 90
    2984:	01bbd7        	bgeu	a11, a13, 0x2989
    2987:	ac1b      	addi.n	a10, a12, 1
    2989:	02a981        	l32r	a8, 0xfffc3430
    298c:	02b9f1        	l32r	a15, 0xfffc3470
    298f:	872832        	l32i	a3, a8, 0x21c
    2992:	02ba91        	l32r	a9, 0xfffc347c
    2995:	01ebb0        	slli	a14, a11, 21
    2998:	1033f0        	and	a3, a3, a15
    299b:	203e30        	or	a3, a14, a3
    299e:	876832        	s32i	a3, a8, 0x21c
    29a1:	882832        	l32i	a3, a8, 0x220
    29a4:	404b00        	ssai	11
    29a7:	103390        	and	a3, a3, a9
    29aa:	819ab0        	src	a9, a10, a11
    29ad:	203930        	or	a3, a9, a3
    29b0:	886832        	s32i	a3, a8, 0x220
    29b3:	5d2282        	l32i	a8, a2, 0x174
    29b6:	02ba31        	l32r	a3, 0xfffc34a0
    29b9:	f89c      	beqz.n	a8, 0x29dc
    29bb:	02a981        	l32r	a8, 0xfffc3460
    29be:	0a6122        	s32i	a2, a1, 40
    29c1:	9c2822        	l32i	a2, a8, 0x270
    29c4:	1022f0        	and	a2, a2, a15
    29c7:	202e20        	or	a2, a14, a2
    29ca:	9c6822        	s32i	a2, a8, 0x270
    29cd:	9d2822        	l32i	a2, a8, 0x274
    29d0:	102230        	and	a2, a2, a3
    29d3:	202920        	or	a2, a9, a2
    29d6:	9d6822        	s32i	a2, a8, 0x274
    29d9:	0a2122        	l32i	a2, a1, 40
    29dc:	02a9e1        	l32r	a14, 0xfffc3480
    29df:	916eb2        	s32i	a11, a14, 0x244
    29e2:	932e92        	l32i	a9, a14, 0x24c
    29e5:	04f0a0        	extui	a15, a10, 0, 1
    29e8:	2099f0        	or	a9, a9, a15
    29eb:	936e92        	s32i	a9, a14, 0x24c
    29ee:	722282        	l32i	a8, a2, 0x1c8
    29f1:	02bbe1        	l32r	a14, 0xfffc34e0
    29f4:	048816        	beqz	a8, 0x2a40
    29f7:	02b831        	l32r	a3, 0xfffc34d8
    29fa:	e222f2        	l32i	a15, a2, 0x388
    29fd:	d52332        	l32i	a3, a3, 0x354
    2a00:	33fa      	add.n	a3, a3, a15
    2a02:	156e32        	s32i	a3, a14, 84
    2a05:	7922d2        	l32i	a13, a2, 0x1e4
    2a08:	0acd      	mov.n	a12, a10
    2a0a:	dbda      	add.n	a13, a11, a13
    2a0c:	01bdb7        	bgeu	a13, a11, 0x2a11
    2a0f:	ca1b      	addi.n	a12, a10, 1
    2a11:	0fb3f7        	bgeu	a3, a15, 0x2a24
    2a14:	0cad      	mov.n	a10, a12
    2a16:	bd1b      	addi.n	a11, a13, 1
    2a18:	01bbd7        	bgeu	a11, a13, 0x2a1d
    2a1b:	ac1b      	addi.n	a10, a12, 1
    2a1d:	0b9d      	mov.n	a9, a11
    2a1f:	0acd      	mov.n	a12, a10
    2a21:	000046        	j	0x2a26
    2a24:	0d9d      	mov.n	a9, a13
    2a26:	eec9      	s32i.n	a12, a14, 56
    2a28:	de99      	s32i.n	a9, a14, 52
    2a2a:	ffa6c6        	j	0x28c9
    2a2d:	02ad      	mov.n	a10, a2
    2a2f:	0b0c      	movi.n	a11, 0
    2a31:	0c0c      	movi.n	a12, 0
    2a33:	5d0c      	movi.n	a13, 5
    2a35:	0e0c      	movi.n	a14, 0
    2a37:	0f0c      	movi.n	a15, 0
    2a39:	063ae5        	excw
    2a3c:	ffb286        	j	0x290a
    2a3f:	190c00        	excw
    2a42:	93c9c0        	movnez	a12, a9, a12
    2a45:	93d9d0        	movnez	a13, a9, a13
    2a48:	208dc0        	or	a8, a13, a12
    2a4b:	fa8816        	beqz	a8, 0x29f7
    2a4e:	0acd      	mov.n	a12, a10
    2a50:	5acbd2        	addi	a13, a11, 90
    2a53:	01bdb7        	bgeu	a13, a11, 0x2a58
    2a56:	ca1b      	addi.n	a12, a10, 1
    2a58:	106ec2        	s32i	a12, a14, 64
    2a5b:	fed9      	s32i.n	a13, a14, 60
    2a5d:	ffe586        	j	0x29f7
    2a60:	097416        	beqz	a4, 0x2afb
    2a63:	71c8      	l32i.n	a12, a1, 28
    2a65:	7323b2        	l32i	a11, a3, 0x1cc
    2a68:	bbca      	add.n	a11, a11, a12
    2a6a:	000bc2        	l8ui	a12, a11, 0
    2a6d:	3d3c      	movi.n	a13, 51
    2a6f:	3a3c      	movi.n	a10, 51
    2a71:	23cc00        	excw
    2a74:	02aac7        	bge	a10, a12, 0x2a7a
    2a77:	004bd2        	s8i	a13, a11, 0
    2a7a:	02ad      	mov.n	a10, a2
    2a7c:	06bd      	mov.n	a11, a6
    2a7e:	1e0c      	movi.n	a14, 1
    2a80:	95e9      	s32i.n	a14, a5, 36
    2a82:	05b965        	excw
    2a85:	02ad      	mov.n	a10, a2
    2a87:	04bd      	mov.n	a11, a4
    2a89:	0f0c      	movi.n	a15, 0
    2a8b:	85f9      	s32i.n	a15, a5, 32
    2a8d:	002c65        	excw
    2a90:	02ad      	mov.n	a10, a2
    2a92:	91c8      	l32i.n	a12, a1, 36
    2a94:	a7b8      	l32i.n	a11, a7, 40
    2a96:	04dd      	mov.n	a13, a4
    2a98:	06ed      	mov.n	a14, a6
    2a9a:	63bbc0        	excw
    2a9d:	81b9      	s32i.n	a11, a1, 32
    2a9f:	01cd      	mov.n	a12, a1
    2aa1:	007da5        	excw
    2aa4:	17d8      	l32i.n	a13, a7, 4
    2aa6:	51a9      	s32i.n	a10, a1, 20
    2aa8:	0e5d16        	beqz	a13, 0x2b91
    2aab:	02ad      	mov.n	a10, a2
    2aad:	0b0c      	movi.n	a11, 0
    2aaf:	0c0c      	movi.n	a12, 0
    2ab1:	5d0c      	movi.n	a13, 5
    2ab3:	1e0c      	movi.n	a14, 1
    2ab5:	0f0c      	movi.n	a15, 0
    2ab7:	063325        	excw
    2aba:	441b      	addi.n	a4, a4, 1
    2abc:	8188      	l32i.n	a8, a1, 32
    2abe:	61e8      	l32i.n	a14, a1, 24
    2ac0:	91f8      	l32i.n	a15, a1, 36
    2ac2:	686a      	add.n	a6, a8, a6
    2ac4:	fe2ee2        	l32i	a14, a14, 0x3f8
    2ac7:	c0ff80        	sub	a15, a15, a8
    2aca:	91f9      	s32i.n	a15, a1, 36
    2acc:	0234e7        	bltu	a4, a14, 0x2ad2
    2acf:	0034c6        	j	0x2ba6
    2ad2:	25f8      	l32i.n	a15, a5, 8
    2ad4:	02b881        	l32r	a8, 0xfffc35b4
    2ad7:	f85f16        	beqz	a15, 0x2a60
    2ada:	dc2882        	l32i	a8, a8, 0x370
    2add:	021826        	beqi	a8, 1, 0x2ae3
    2ae0:	ffdf06        	j	0x2a60
    2ae3:	e89392        	l16si	a9, a3, 0x1d0
    2ae6:	f76956        	bnez	a9, 0x2a60
    2ae9:	41c8      	l32i.n	a12, a1, 16
    2aeb:	7f2cc2        	l32i	a12, a12, 0x1fc
    2aee:	0a0c      	movi.n	a10, 0
    2af0:	0b0c      	movi.n	a11, 0
    2af2:	246cb2        	s32i	a11, a12, 144
    2af5:	07fe65        	excw
    2af8:	f67456        	bnez	a4, 0x2a63
    2afb:	572292        	l32i	a9, a2, 0x15c
    2afe:	0009d2        	l8ui	a13, a9, 0
    2b01:	11e8      	l32i.n	a14, a1, 4
    2b03:	f03d      	nop.n
    2b05:	691d26        	beqi	a13, 1, 0x2b72
    2b08:	132ee2        	l32i	a14, a14, 76
    2b0b:	1eac      	beqz.n	a14, 0x2b30
    2b0d:	80a0a2        	movi	a10, 128
    2b10:	0b0c      	movi.n	a11, 0
    2b12:	041ae5        	excw
    2b15:	02aef1        	l32r	a15, 0xfffc35d0
    2b18:	21a8      	l32i.n	a10, a1, 8
    2b1a:	ad2ff2        	l32i	a15, a15, 0x2b4
    2b1d:	0061f2        	s32i	a15, a1, 0
    2b20:	6a23b2        	l32i	a11, a3, 0x1a8
    2b23:	039c65        	excw
    2b26:	7198      	l32i.n	a9, a1, 28
    2b28:	732382        	l32i	a8, a3, 0x1cc
    2b2b:	889a      	add.n	a8, a8, a9
    2b2d:	0048a2        	s8i	a10, a8, 0
    2b30:	71c8      	l32i.n	a12, a1, 28
    2b32:	7323b2        	l32i	a11, a3, 0x1cc
    2b35:	bbca      	add.n	a11, a11, a12
    2b37:	000bb2        	l8ui	a11, a11, 0
    2b3a:	044cb2        	s8i	a11, a12, 4
    2b3d:	572292        	l32i	a9, a2, 0x15c
    2b40:	0009a2        	l8ui	a10, a9, 0
    2b43:	39c8      	l32i.n	a12, a9, 12
    2b45:	aa0b      	addi.n	a10, a10, -1
    2b47:	f18a56        	bnez	a10, 0x2a63
    2b4a:	feccc2        	addi	a12, a12, -2
    2b4d:	f12c56        	bnez	a12, 0x2a63
    2b50:	71a8      	l32i.n	a10, a1, 28
    2b52:	29f8      	l32i.n	a15, a9, 8
    2b54:	732382        	l32i	a8, a3, 0x1cc
    2b57:	000ff2        	l8ui	a15, a15, 0
    2b5a:	88aa      	add.n	a8, a8, a10
    2b5c:	0008a2        	l8ui	a10, a8, 0
    2b5f:	23ff00        	excw
    2b62:	23aa00        	excw
    2b65:	ffaa      	add.n	a15, a15, a10
    2b67:	0a0c      	movi.n	a10, 0
    2b69:	53ffa0        	excw
    2b6c:	0048f2        	s8i	a15, a8, 0
    2b6f:	ffbc06        	j	0x2a63
    2b72:	39d8      	l32i.n	a13, a9, 12
    2b74:	901d66        	bnei	a13, 1, 0x2b08
    2b77:	7188      	l32i.n	a8, a1, 28
    2b79:	29e8      	l32i.n	a14, a9, 8
    2b7b:	7323f2        	l32i	a15, a3, 0x1cc
    2b7e:	000ee2        	l8ui	a14, a14, 0
    2b81:	ff8a      	add.n	a15, a15, a8
    2b83:	080c      	movi.n	a8, 0
    2b85:	23ee00        	excw
    2b88:	53ee80        	excw
    2b8b:	004fe2        	s8i	a14, a15, 0
    2b8e:	ffe786        	j	0x2b30
    2b91:	02ad      	mov.n	a10, a2
    2b93:	0b0c      	movi.n	a11, 0
    2b95:	0c0c      	movi.n	a12, 0
    2b97:	5d0c      	movi.n	a13, 5
    2b99:	0e0c      	movi.n	a14, 0
    2b9b:	0f0c      	movi.n	a15, 0
    2b9d:	0624a5        	excw
    2ba0:	ffc586        	j	0x2aba
    2ba3:	000000        	ill
    2ba6:	5168      	l32i.n	a6, a1, 20
    2ba8:	ca2382        	l32i	a8, a3, 0x328
    2bab:	f03d      	nop.n
    2bad:	041866        	bnei	a8, 1, 0x2bb5
    2bb0:	02ad      	mov.n	a10, a2
    2bb2:	ffa6a5        	excw
    2bb5:	4e2592        	l32i	a9, a5, 0x138
    2bb8:	20a532        	movi	a3, 0x520
    2bbb:	03b956        	bnez	a9, 0x2bfa
    2bbe:	7148      	l32i.n	a4, a1, 28
    2bc0:	443a      	add.n	a4, a4, a3
    2bc2:	030c      	movi.n	a3, 0
    2bc4:	802492        	l32i	a9, a4, 0x200
    2bc7:	7f2482        	l32i	a8, a4, 0x1fc
    2bca:	061897        	beq	a8, a9, 0x2bd4
    2bcd:	02ad      	mov.n	a10, a2
    2bcf:	0b0c      	movi.n	a11, 0
    2bd1:	0628e5        	excw
    2bd4:	20a220        	or	a10, a2, a2
    2bd7:	80b360        	add	a11, a3, a6
    2bda:	1c0c      	movi.n	a12, 1
    2bdc:	0135e5        	excw
    2bdf:	331b      	addi.n	a3, a3, 1
    2be1:	df3366        	bnei	a3, 3, 0x2bc4
    2be4:	05ad      	mov.n	a10, a5
    2be6:	00e5e5        	excw
    2be9:	5e25a2        	l32i	a10, a5, 0x178
    2bec:	058a16        	beqz	a10, 0x2c48
    2bef:	02bca1        	l32r	a10, 0xfffc36e0
    2bf2:	00a0b2        	movi	a11, 0
    2bf5:	040ca5        	excw
    2bf8:	f01d      	excw
    2bfa:	15c8      	l32i.n	a12, a5, 4
    2bfc:	09a1d2        	movi	a13, 0x109
    2bff:	02bde1        	l32r	a14, 0xfffc36f4
    2c02:	34c0c0        	extui	a12, a12, 0, 4
    2c05:	11cc00        	slli	a12, a12, 16
    2c08:	10cce0        	and	a12, a12, a14
    2c0b:	20ccd0        	or	a12, a12, a13
    2c0e:	02a9d1        	l32r	a13, 0xfffc36b4
    2c11:	02bca1        	l32r	a10, 0xfffc3704
    2c14:	64a0b2        	movi	a11, 100
    2c17:	eb6dc2        	s32i	a12, a13, 0x3ac
    2c1a:	040a65        	excw
    2c1d:	71d8      	l32i.n	a13, a1, 28
    2c1f:	040c      	movi.n	a4, 0
    2c21:	803d30        	add	a3, a13, a3
    2c24:	8023f2        	l32i	a15, a3, 0x200
    2c27:	7f23e2        	l32i	a14, a3, 0x1fc
    2c2a:	061ef7        	beq	a14, a15, 0x2c34
    2c2d:	02ad      	mov.n	a10, a2
    2c2f:	04bd      	mov.n	a11, a4
    2c31:	0622e5        	excw
    2c34:	20a220        	or	a10, a2, a2
    2c37:	01a0b2        	movi	a11, 1
    2c3a:	01a0c2        	movi	a12, 1
    2c3d:	012fe5        	excw
    2c40:	441b      	addi.n	a4, a4, 1
    2c42:	de5466        	bnei	a4, 5, 0x2c24
    2c45:	ffe986        	j	0x2bef
    2c48:	05ad      	mov.n	a10, a5
    2c4a:	00dfa5        	excw
    2c4d:	ffe786        	j	0x2bef
    2c50:	006136        	excw
    2c53:	2129      	s32i.n	a2, a1, 8
    2c55:	1cd2d2        	addmi	a13, a2, 0x1c00
    2c58:	059d      	mov.n	a9, a5
    2c5a:	07fd      	mov.n	a15, a7
    2c5c:	11f9      	s32i.n	a15, a1, 4
    2c5e:	0199      	s32i.n	a9, a1, 0
    2c60:	332dd2        	l32i	a13, a13, 204
    2c63:	0458      	l32i.n	a5, a4, 0
    2c65:	027d      	mov.n	a7, a2
    2c67:	dd7a      	add.n	a13, a13, a7
    2c69:	03ddd2        	addmi	a13, a13, 0x300
    2c6c:	a40dd2        	l8ui	a13, a13, 164
    2c6f:	17d222        	addmi	a2, a2, 0x1700
    2c72:	382222        	l32i	a2, a2, 224
    2c75:	23dd00        	excw
    2c78:	458c      	beqz.n	a5, 0x2c80
    2c7a:	6722e2        	l32i	a14, a2, 0x19c
    2c7d:	0b7e16        	beqz	a14, 0x2d38
    2c80:	2422f2        	l32i	a15, a2, 144
    2c83:	752f26        	beqi	a15, 2, 0x2cfc
    2c86:	0288      	l32i.n	a8, a2, 0
    2c88:	030c      	movi.n	a3, 0
    2c8a:	246232        	s32i	a3, a2, 144
    2c8d:	00f816        	beqz	a8, 0x2ca0
    2c90:	07ad      	mov.n	a10, a7
    2c92:	1b0c      	movi.n	a11, 1
    2c94:	0c0c      	movi.n	a12, 0
    2c96:	012a65        	excw
    2c99:	0298      	l32i.n	a9, a2, 0
    2c9b:	331b      	addi.n	a3, a3, 1
    2c9d:	ef3397        	bltu	a3, a9, 0x2c90
    2ca0:	6722a2        	l32i	a10, a2, 0x19c
    2ca3:	361a66        	bnei	a10, 1, 0x2cdd
    2ca6:	07b8      	l32i.n	a11, a7, 0
    2ca8:	1bb8      	l32i.n	a11, a11, 4
    2caa:	077b16        	beqz	a11, 0x2d25
    2cad:	07ad      	mov.n	a10, a7
    2caf:	0b0c      	movi.n	a11, 0
    2cb1:	0c0c      	movi.n	a12, 0
    2cb3:	5d0c      	movi.n	a13, 5
    2cb5:	1e0c      	movi.n	a14, 1
    2cb7:	0f0c      	movi.n	a15, 0
    2cb9:	0612e5        	excw
    2cbc:	0a0c      	movi.n	a10, 0
    2cbe:	07e1e5        	excw
    2cc1:	11b8      	l32i.n	a11, a1, 4
    2cc3:	20a770        	or	a10, a7, a7
    2cc6:	80bb50        	add	a11, a11, a5
    2cc9:	0594e5        	excw
    2ccc:	e827c2        	l32i	a12, a7, 0x3a0
    2ccf:	06dcc2        	addmi	a12, a12, 0x600
    2cd2:	482cd2        	l32i	a13, a12, 0x120
    2cd5:	472cc2        	l32i	a12, a12, 0x11c
    2cd8:	f03d      	nop.n
    2cda:	3b9cd7        	bne	a12, a13, 0x2d19
    2cdd:	030c      	movi.n	a3, 0
    2cdf:	07ad      	mov.n	a10, a7
    2ce1:	05bd      	mov.n	a11, a5
    2ce3:	06cd      	mov.n	a12, a6
    2ce5:	07d1e5        	excw
    2ce8:	02aed1        	l32r	a13, 0xfffc37a0
    2ceb:	01e8      	l32i.n	a14, a1, 0
    2ced:	ad2dd2        	l32i	a13, a13, 0x2b4
    2cf0:	0ed9      	s32i.n	a13, a14, 0
    2cf2:	0469      	s32i.n	a6, a4, 0
    2cf4:	676232        	s32i	a3, a2, 0x19c
    2cf7:	120c      	movi.n	a2, 1
    2cf9:	f01d      	excw
    2cfb:	22e200        	excw
    2cfe:	3e5667        	bbc	a6, a6, 0x2d40
    2d01:	70f8      	l32i.n	a15, a0, 28
    2d03:	c220a7        	blt	a0, a10, 0x2cc9
    2d06:	500021        	l32r	a2, 0xfffd6d08
    2d09:	0c8083        	excw
    2d0c:	1f          	.byte 0x1f
    2d0d:	0b0c      	movi.n	a11, 0
    2d0f:	83bf80        	moveqz	a11, a15, a8
    2d12:	008125        	excw
    2d15:	020c      	movi.n	a2, 0
    2d17:	f01d      	excw
    2d19:	07ad      	mov.n	a10, a7
    2d1b:	0b0c      	movi.n	a11, 0
    2d1d:	061425        	excw
    2d20:	ffee46        	j	0x2cdd
    2d23:	ad0000        	excw
    2d26:	0b0c07        	bnone	a12, a0, 0x2d35
    2d29:	0c0c      	movi.n	a12, 0
    2d2b:	5d0c      	movi.n	a13, 5
    2d2d:	0e0c      	movi.n	a14, 0
    2d2f:	0f0c      	movi.n	a15, 0
    2d31:	060b65        	excw
    2d34:	ffe106        	j	0x2cbc
    2d37:	21c200        	srai	a12, a0, 2
    2d3a:	a35000        	movltz	a5, a0, a0
    2d3d:	a0b280        	addx4	a11, a2, a8
    2d40:	190c00        	excw
    2d43:	8299      	s32i.n	a9, a2, 32
    2d45:	676292        	s32i	a9, a2, 0x19c
    2d48:	83b9a0        	moveqz	a11, a9, a10
    2d4b:	07ad      	mov.n	a10, a7
    2d4d:	007d65        	excw
    2d50:	020c      	movi.n	a2, 0
    2d52:	f01d      	excw
    2d54:	004136        	excw
    2d57:	d268      	l32i.n	a6, a2, 52
    2d59:	02be41        	l32r	a4, 0xfffc3854
    2d5c:	17d252        	addmi	a5, a2, 0x1700
    2d5f:	2c2682        	l32i	a8, a6, 176
    2d62:	382552        	l32i	a5, a5, 224
    2d65:	424a      	add.n	a4, a2, a4
    2d67:	04e816        	beqz	a8, 0x2db9
    2d6a:	192482        	l32i	a8, a4, 100
    2d6d:	08cc      	bnez.n	a8, 0x2d71
    2d6f:	a38c      	beqz.n	a3, 0x2d7d
    2d71:	02ad      	mov.n	a10, a2
    2d73:	190c      	movi.n	a9, 1
    2d75:	0b0c      	movi.n	a11, 0
    2d77:	83b930        	moveqz	a11, a9, a3
    2d7a:	0499e5        	excw
    2d7d:	9904a2        	l8ui	a10, a4, 153
    2d80:	fe0c      	movi.n	a14, 15
    2d82:	061a66        	bnei	a10, 1, 0x2d8c
    2d85:	02aec1        	l32r	a12, 0xfffc3840
    2d88:	1b0c      	movi.n	a11, 1
    2d8a:	4cb9      	s32i.n	a11, a12, 16
    2d8c:	5365e2        	s32i	a14, a5, 0x14c
    2d8f:	5265e2        	s32i	a14, a5, 0x148
    2d92:	5165e2        	s32i	a14, a5, 0x144
    2d95:	5065e2        	s32i	a14, a5, 0x140
    2d98:	2b26d2        	l32i	a13, a6, 172
    2d9b:	0a0c      	movi.n	a10, 0
    2d9d:	134d66        	bnei	a13, 4, 0x2db4
    2da0:	7a24f2        	l32i	a15, a4, 0x1e8
    2da3:	00a082        	movi	a8, 0
    2da6:	00a092        	movi	a9, 0
    2da9:	271f26        	beqi	a15, 1, 0x2dd4
    2dac:	676582        	s32i	a8, a5, 0x19c
    2daf:	236592        	s32i	a9, a5, 140
    2db2:	f01d      	excw
    2db4:	6765a2        	s32i	a10, a5, 0x19c
    2db7:	f01d      	excw
    2db9:	7f24b2        	l32i	a11, a4, 0x1fc
    2dbc:	fbdb16        	beqz	a11, 0x2d7d
    2dbf:	5c22c2        	l32i	a12, a2, 0x170
    2dc2:	3cc8      	l32i.n	a12, a12, 12
    2dc4:	fb5c16        	beqz	a12, 0x2d7d
    2dc7:	fb2356        	bnez	a3, 0x2d7d
    2dca:	02ad      	mov.n	a10, a2
    2dcc:	1b0c      	movi.n	a11, 1
    2dce:	0494a5        	excw
    2dd1:	ffea06        	j	0x2d7d
    2dd4:	7024d2        	l32i	a13, a4, 0x1c0
    2dd7:	0e0c      	movi.n	a14, 0
    2dd9:	1f0c      	movi.n	a15, 1
    2ddb:	cd9d37        	bne	a13, a3, 0x2dac
    2dde:	6765e2        	s32i	a14, a5, 0x19c
    2de1:	2365f2        	s32i	a15, a5, 140
    2de4:	f01d      	excw
    2de6:	360000        	excw
    2de9:	520041        	l32r	a4, 0xfffd75ec
    2dec:	5217d2        	l16ui	a13, a7, 164
    2def:	a83825        	excw
    2df2:	a082d2        	excw
    2df5:	0f          	.byte 0xf
    2df6:	536582        	s32i	a8, a5, 0x14c
    2df9:	526582        	s32i	a8, a5, 0x148
    2dfc:	516582        	s32i	a8, a5, 0x144
    2dff:	506582        	s32i	a8, a5, 0x140
    2e02:	2b2ad2        	l32i	a13, a10, 172
    2e05:	02bff1        	l32r	a15, 0xfffc3904
    2e08:	525d26        	beqi	a13, 5, 0x2e5e
    2e0b:	4f4d26        	beqi	a13, 4, 0x2e5e
    2e0e:	facd82        	addi	a8, a13, -6
    2e11:	0d7816        	beqz	a8, 0x2eec
    2e14:	1c5d66        	bnei	a13, 5, 0x2e34
    2e17:	e2fa      	add.n	a14, a2, a15
    2e19:	ad2e92        	l32i	a9, a14, 0x2b4
    2e1c:	ae2ea2        	l32i	a10, a14, 0x2b8
    2e1f:	0d0c      	movi.n	a13, 0
    2e21:	02b397        	bgeu	a3, a9, 0x2e27
    2e24:	002e06        	j	0x2ee0
    2e27:	0233a7        	bltu	a3, a10, 0x2e2d
    2e2a:	002c86        	j	0x2ee0
    2e2d:	1b0c      	movi.n	a11, 1
    2e2f:	2365b2        	s32i	a11, a5, 140
    2e32:	f01d      	excw
    2e34:	fecdc2        	addi	a12, a13, -2
    2e37:	0f7c16        	beqz	a12, 0x2f32
    2e3a:	1c6d66        	bnei	a13, 6, 0x2e5a
    2e3d:	75a8      	l32i.n	a10, a5, 28
    2e3f:	e2fa      	add.n	a14, a2, a15
    2e41:	ad2ed2        	l32i	a13, a14, 0x2b4
    2e44:	ae2ef2        	l32i	a15, a14, 0x2b8
    2e47:	02bad7        	bgeu	a10, a13, 0x2e4d
    2e4a:	0025c6        	j	0x2ee5
    2e4d:	023af7        	bltu	a10, a15, 0x2e53
    2e50:	002446        	j	0x2ee5
    2e53:	180c      	movi.n	a8, 1
    2e55:	236582        	s32i	a8, a5, 140
    2e58:	f01d      	excw
    2e5a:	f01d      	excw
    2e5c:	fa0000        	excw
    2e5f:	2e92e2        	l16si	a14, a2, 92
    2e62:	c2ac      	beqz.n	a2, 0x2e92
    2e64:	2e          	.byte 0x2e
    2e65:	97ad      	excw
    2e67:	c76933        	excw
    2e6a:	a20f33        	excw
    2e6d:	2e          	.byte 0x2e
    2e6e:	ae          	.byte 0xae
    2e6f:	63b3a7        	bgeu	a3, a10, 0x2ed6
    2e72:	1324b2        	l32i	a11, a4, 76
    2e75:	1264b2        	s32i	a11, a4, 72
    2e78:	ffe606        	j	0x2e14
    2e7b:	256200        	extui	a6, a0, 18, 3
    2e7e:	a0a254        	excw
    2e81:	c68200        	excw
    2e84:	a87601        	l32r	a0, 0xfffed05c
    2e87:	b6a012        	movi	a1, 182
    2e8a:	9b3ac0        	excw
    2e8d:	08b9c7        	bgeu	a9, a12, 0x2e99
    2e90:	7588      	l32i.n	a8, a5, 28
    2e92:	a598      	l32i.n	a9, a5, 40
    2e94:	8b8a      	add.n	a8, a11, a8
    2e96:	013897        	bltu	a8, a9, 0x2e9b
    2e99:	aa1b      	addi.n	a10, a10, 1
    2e9b:	c096a0        	sub	a9, a6, a10
    2e9e:	552562        	l32i	a6, a5, 0x154
    2ea1:	526592        	s32i	a9, a5, 0x148
    2ea4:	0a0c      	movi.n	a10, 0
    2ea6:	020696        	bltz	a6, 0x2eca
    2ea9:	a578      	l32i.n	a7, a5, 40
    2eab:	ad2ec2        	l32i	a12, a14, 0x2b4
    2eae:	01c6b2        	addi	a11, a6, 1
    2eb1:	15ab76        	excw
    2eb4:	c0b6a0        	sub	a11, a6, a10
    2eb7:	828b70        	mull	a8, a11, a7
    2eba:	838a      	add.n	a8, a3, a8
    2ebc:	08b8c7        	bgeu	a8, a12, 0x2ec8
    2ebf:	6598      	l32i.n	a9, a5, 24
    2ec1:	c588      	l32i.n	a8, a5, 48
    2ec3:	9b9a      	add.n	a9, a11, a9
    2ec5:	013987        	bltu	a9, a8, 0x2eca
    2ec8:	aa1b      	addi.n	a10, a10, 1
    2eca:	c0b6a0        	sub	a11, a6, a10
    2ecd:	5365b2        	s32i	a11, a5, 0x14c
    2ed0:	ad2ec2        	l32i	a12, a14, 0x2b4
    2ed3:	95b3c7        	bgeu	a3, a12, 0x2e6c
    2ed6:	1424c2        	l32i	a12, a4, 80
    2ed9:	1264c2        	s32i	a12, a4, 72
    2edc:	ffcd06        	j	0x2e14
    2edf:	65d200        	extui	a13, a0, 18, 7
    2ee2:	f01d23        	excw
    2ee5:	0e0c      	movi.n	a14, 0
    2ee7:	2365e2        	s32i	a14, a5, 140
    2eea:	f01d      	excw
    2eec:	75b8      	l32i.n	a11, a5, 28
    2eee:	e2fa      	add.n	a14, a2, a15
    2ef0:	ac2e82        	l32i	a8, a14, 0x2b0
    2ef3:	02bb87        	bgeu	a11, a8, 0x2ef9
    2ef6:	ffc686        	j	0x2e14
    2ef9:	ad2ec2        	l32i	a12, a14, 0x2b4
    2efc:	023bc7        	bltu	a11, a12, 0x2f02
    2eff:	ffc446        	j	0x2e14
    2f02:	542592        	l32i	a9, a5, 0x150
    2f05:	99ba      	add.n	a9, a9, a11
    2f07:	02b9c7        	bgeu	a9, a12, 0x2f0d
    2f0a:	ffc186        	j	0x2e14
    2f0d:	a5c8      	l32i.n	a12, a5, 40
    2f0f:	023bc7        	bltu	a11, a12, 0x2f15
    2f12:	ffbf86        	j	0x2e14
    2f15:	af2e82        	l32i	a8, a14, 0x2bc
    2f18:	980b      	addi.n	a9, a8, -1
    2f1a:	af6e92        	s32i	a9, a14, 0x2bc
    2f1d:	526582        	s32i	a8, a5, 0x148
    2f20:	af2ed2        	l32i	a13, a14, 0x2bc
    2f23:	005d56        	bnez	a13, 0x2f2c
    2f26:	5425b2        	l32i	a11, a5, 0x150
    2f29:	af6eb2        	s32i	a11, a14, 0x2bc
    2f2c:	2b2ad2        	l32i	a13, a10, 172
    2f2f:	ffb846        	j	0x2e14
    2f32:	15a8      	l32i.n	a10, a5, 4
    2f34:	02b8      	l32i.n	a11, a2, 0
    2f36:	c2fa      	add.n	a12, a2, a15
    2f38:	502cc2        	l32i	a12, a12, 0x140
    2f3b:	dbb8      	l32i.n	a11, a11, 52
    2f3d:	aaca      	add.n	a10, a10, a12
    2f3f:	08b0a5        	excw
    2f42:	1e0c      	movi.n	a14, 1
    2f44:	0d0c      	movi.n	a13, 0
    2f46:	83dea0        	moveqz	a13, a14, a10
    2f49:	2365d2        	s32i	a13, a5, 140
    2f4c:	f01d      	excw
    2f4e:	360000        	excw
    2f51:	9d00c1        	l32r	a12, 0xfffea354
    2f54:	0b0c04        	excw
    2f57:	342262        	l32i	a6, a2, 208
    2f5a:	1d2272        	l32i	a7, a2, 116
    2f5d:	025d      	mov.n	a5, a2
    2f5f:	1925c2        	l32i	a12, a5, 100
    2f62:	1525e2        	l32i	a14, a5, 84
    2f65:	1825d2        	l32i	a13, a5, 96
    2f68:	0588      	l32i.n	a8, a5, 0
    2f6a:	1d6232        	s32i	a3, a2, 116
    2f6d:	c07370        	sub	a7, a3, a7
    2f70:	fac882        	addi	a8, a8, -6
    2f73:	332222        	l32i	a2, a2, 204
    2f76:	dd3a      	add.n	a13, a13, a3
    2f78:	c0dde0        	sub	a13, a13, a14
    2f7b:	346522        	s32i	a2, a5, 208
    2f7e:	1e0c      	movi.n	a14, 1
    2f80:	c06260        	sub	a6, a2, a6
    2f83:	a0ddd0        	addx4	a13, a13, a13
    2f86:	c02320        	sub	a2, a3, a2
    2f89:	0b2532        	l32i	a3, a5, 44
    2f8c:	11dde0        	slli	a13, a13, 2
    2f8f:	53ddb0        	excw
    2f92:	824c30        	mull	a4, a12, a3
    2f95:	0e3816        	beqz	a8, 0x307c
    2f98:	2225f2        	l32i	a15, a5, 136
    2f9b:	005f16        	beqz	a15, 0x2fa4
    2f9e:	312582        	l32i	a8, a5, 196
    2fa1:	082827        	blt	a8, a2, 0x2fad
    2fa4:	5a2592        	l32i	a9, a5, 0x168
    2fa7:	07e916        	beqz	a9, 0x3029
    2faa:	7b12a6        	blti	a2, 1, 0x3029
    2fad:	3c25b2        	l32i	a11, a5, 240
    2fb0:	042677        	blt	a6, a7, 0x2fb8
    2fb3:	0b2d      	mov.n	a2, a11
    2fb5:	000046        	j	0x2fba
    2fb8:	2b1b      	addi.n	a2, a11, 1
    2fba:	4a25a2        	l32i	a10, a5, 0x128
    2fbd:	04a2a7        	bge	a2, a10, 0x2fc5
    2fc0:	0a2d      	mov.n	a2, a10
    2fc2:	0001c6        	j	0x2fcd
    2fc5:	4925a2        	l32i	a10, a5, 0x124
    2fc8:	f03d      	nop.n
    2fca:	432a20        	excw
    2fcd:	3e65e2        	s32i	a14, a5, 248
    2fd0:	3d25a2        	l32i	a10, a5, 244
    2fd3:	0a0a26        	beqi	a10, -1, 0x2fe1
    2fd6:	c0c2a0        	sub	a12, a2, a10
    2fd9:	8b1c      	movi.n	a11, 24
    2fdb:	3eabc7        	bge	a11, a12, 0x301d
    2fde:	18ca22        	addi	a2, a10, 24
    2fe1:	5b25a2        	l32i	a10, a5, 0x16c
    2fe4:	18c2d2        	addi	a13, a2, 24
    2fe7:	02ada7        	bge	a13, a10, 0x2fed
    2fea:	e8ca22        	addi	a2, a10, -24
    2fed:	142a27        	blt	a10, a2, 0x3005
    2ff0:	3825e2        	l32i	a14, a5, 224
    2ff3:	3925f2        	l32i	a15, a5, 228
    2ff6:	3c6522        	s32i	a2, a5, 240
    2ff9:	ee1b      	addi.n	a14, a14, 1
    2ffb:	ff2a      	add.n	a15, a15, a2
    2ffd:	3965f2        	s32i	a15, a5, 228
    3000:	3865e2        	s32i	a14, a5, 224
    3003:	f01d      	excw
    3005:	5b6522        	s32i	a2, a5, 0x16c
    3008:	382582        	l32i	a8, a5, 224
    300b:	392592        	l32i	a9, a5, 228
    300e:	3c6522        	s32i	a2, a5, 240
    3011:	881b      	addi.n	a8, a8, 1
    3013:	992a      	add.n	a9, a9, a2
    3015:	396592        	s32i	a9, a5, 228
    3018:	386582        	s32i	a8, a5, 224
    301b:	f01d      	excw
    301d:	c0ca20        	sub	a12, a10, a2
    3020:	bdabc7        	bge	a11, a12, 0x2fe1
    3023:	e8ca22        	addi	a2, a10, -24
    3026:	ffedc6        	j	0x2fe1
    3029:	c0ed30        	sub	a14, a13, a3
    302c:	c0d4d0        	sub	a13, a4, a13
    302f:	021de6        	bgei	a13, 1, 0x3035
    3032:	0048c6        	j	0x3159
    3035:	0a0c      	movi.n	a10, 0
    3037:	0b0c      	movi.n	a11, 0
    3039:	068076        	excw
    303c:	aa1b      	addi.n	a10, a10, 1
    303e:	bb3a      	add.n	a11, a11, a3
    3040:	05abd7        	bge	a11, a13, 0x3049
    3043:	fffc86        	j	0x3039
    3046:	000000        	ill
    3049:	c09ca0        	sub	a9, a12, a10
    304c:	82d930        	mull	a13, a9, a3
    304f:	c0ded0        	sub	a13, a14, a13
    3052:	021de6        	bgei	a13, 1, 0x3058
    3055:	004446        	j	0x316a
    3058:	c0dca0        	sub	a13, a12, a10
    305b:	09ad      	mov.n	a10, a9
    305d:	c0c4b0        	sub	a12, a4, a11
    3060:	c0cec0        	sub	a12, a14, a12
    3063:	c0b9d0        	sub	a11, a9, a13
    3066:	82bb30        	mull	a11, a11, a3
    3069:	0b8076        	excw
    306c:	aa1b      	addi.n	a10, a10, 1
    306e:	bb3a      	add.n	a11, a11, a3
    3070:	022bc7        	blt	a11, a12, 0x3076
    3073:	002786        	j	0x3115
    3076:	f03d      	nop.n
    3078:	fffb46        	j	0x3069
    307b:	25a200        	extui	a10, a0, 18, 3
    307e:	5e          	.byte 0x5e
    307f:	f15a16        	beqz	a10, 0x2f98
    3082:	15b8      	l32i.n	a11, a5, 4
    3084:	fecbf2        	addi	a15, a11, -2
    3087:	f0df16        	beqz	a15, 0x2f98
    308a:	11a9      	s32i.n	a10, a1, 4
    308c:	a199      	s32i.n	a9, a1, 40
    308e:	fdcb82        	addi	a8, a11, -3
    3091:	f03816        	beqz	a8, 0x2f98
    3094:	e1d9      	s32i.n	a13, a1, 56
    3096:	f1c9      	s32i.n	a12, a1, 60
    3098:	a1b8      	l32i.n	a11, a1, 40
    309a:	1c0c      	movi.n	a12, 1
    309c:	d065c2        	s32i	a12, a5, 0x340
    309f:	1ba8      	l32i.n	a10, a11, 4
    30a1:	81a9      	s32i.n	a10, a1, 32
    30a3:	abb8      	l32i.n	a11, a11, 40
    30a5:	91b9      	s32i.n	a11, a1, 36
    30a7:	089a25        	excw
    30aa:	f1c8      	l32i.n	a12, a1, 60
    30ac:	e1d8      	l32i.n	a13, a1, 56
    30ae:	1e0c      	movi.n	a14, 1
    30b0:	024ab6        	bltui	a10, 4, 0x30b6
    30b3:	ffb846        	j	0x2f98
    30b6:	1f25b2        	l32i	a11, a5, 124
    30b9:	1125a2        	l32i	a10, a5, 68
    30bc:	61a9      	s32i.n	a10, a1, 24
    30be:	089be5        	excw
    30c1:	cd25b2        	l32i	a11, a5, 0x334
    30c4:	1d0c      	movi.n	a13, 1
    30c6:	1e0c      	movi.n	a14, 1
    30c8:	fa1b      	addi.n	a15, a10, 1
    30ca:	1265f2        	s32i	a15, a5, 72
    30cd:	cf65e2        	s32i	a14, a5, 0x33c
    30d0:	71d9      	s32i.n	a13, a1, 28
    30d2:	6025a2        	l32i	a10, a5, 0x180
    30d5:	089a65        	excw
    30d8:	01a9      	s32i.n	a10, a1, 0
    30da:	91b8      	l32i.n	a11, a1, 36
    30dc:	81a8      	l32i.n	a10, a1, 32
    30de:	0899e5        	excw
    30e1:	f1c8      	l32i.n	a12, a1, 60
    30e3:	ce2582        	l32i	a8, a5, 0x338
    30e6:	01f8      	l32i.n	a15, a1, 0
    30e8:	0add      	mov.n	a13, a10
    30ea:	092816        	beqz	a8, 0x3180
    30ed:	90ba50        	addx2	a11, a10, a5
    30f0:	a09a50        	addx4	a9, a10, a5
    30f3:	b199      	s32i.n	a9, a1, 44
    30f5:	ca5bf2        	s16i	a15, a11, 0x194
    30f8:	612582        	l32i	a8, a5, 0x184
    30fb:	602592        	l32i	a9, a5, 0x180
    30fe:	c09980        	sub	a9, a9, a8
    3101:	b188      	l32i.n	a8, a1, 44
    3103:	e1d8      	l32i.n	a13, a1, 56
    3105:	1e0c      	movi.n	a14, 1
    3107:	886892        	s32i	a9, a8, 0x220
    310a:	602582        	l32i	a8, a5, 0x180
    310d:	616582        	s32i	a8, a5, 0x184
    3110:	ffa106        	j	0x2f98
    3113:	b20000        	excw
    3116:	a23c25        	excw
    3119:	1b1965        	excw
    311c:	262a      	add.n	a2, a6, a2
    311e:	070b      	addi.n	a0, a7, -1
    3120:	c09b20        	sub	a9, a11, a2
    3123:	2a09e6        	bgei	a9, -1, 0x3151
    3126:	2b1b      	addi.n	a2, a11, 1
    3128:	4a25a2        	l32i	a10, a5, 0x128
    312b:	05a2a7        	bge	a2, a10, 0x3134
    312e:	0a2d      	mov.n	a2, a10
    3130:	000186        	j	0x313a
    3133:	259200        	extui	a9, a0, 18, 3
    3136:	2049      	s32i.n	a4, a0, 8
    3138:	4329      	s32i.n	a2, a3, 16
    313a:	3e25a2        	l32i	a10, a5, 248
    313d:	e8fa56        	bnez	a10, 0x2fd0
    3140:	e8cf56        	bnez	a15, 0x2fd0
    3143:	502592        	l32i	a9, a5, 0x140
    3146:	c0b290        	sub	a11, a2, a9
    3149:	237ba6        	blti	a11, 7, 0x3170
    314c:	296b      	addi.n	a2, a9, 6
    314e:	ff9f86        	j	0x2fd0
    3151:	d329a6        	blti	a9, 2, 0x3128
    3154:	2b0b      	addi.n	a2, a11, -1
    3156:	fff386        	j	0x3128
    3159:	0a0c      	movi.n	a10, 0
    315b:	c0de40        	sub	a13, a14, a4
    315e:	061da6        	blti	a13, 1, 0x3168
    3161:	0c9d      	mov.n	a9, a12
    3163:	0b0c      	movi.n	a11, 0
    3165:	ffbbc6        	j	0x3058
    3168:	0c9d      	mov.n	a9, a12
    316a:	09ad      	mov.n	a10, a9
    316c:	ffe946        	j	0x3115
    316f:	e92000        	excw
    3172:	7ee6c0        	excw
    3175:	958602        	excw
    3178:	ff          	.byte 0xff
    3179:	fac922        	addi	a2, a9, -6
    317c:	ff9406        	j	0x2fd0
    317f:	ba5000        	excw
    3182:	1a1690        	excw
    3185:	e208      	l32i.n	a0, a2, 56
    3187:	ca1b      	addi.n	a12, a10, 1
    3189:	063e16        	beqz	a14, 0x31f0
    318c:	060f16        	beqz	a15, 0x31f0
    318f:	c1b9      	s32i.n	a11, a1, 48
    3191:	d1a9      	s32i.n	a10, a1, 52
    3193:	35bfe7        	bgeu	a15, a14, 0x31cc
    3196:	01b8      	l32i.n	a11, a1, 0
    3198:	a0aee0        	addx4	a10, a14, a14
    319b:	11aaf0        	slli	a10, a10, 1
    319e:	088de5        	excw
    31a1:	f1c8      	l32i.n	a12, a1, 60
    31a3:	01f8      	l32i.n	a15, a1, 0
    31a5:	d1d8      	l32i.n	a13, a1, 52
    31a7:	c1b8      	l32i.n	a11, a1, 48
    31a9:	1e0c      	movi.n	a14, 1
    31ab:	71e9      	s32i.n	a14, a1, 28
    31ad:	03baf6        	bgeui	a10, 16, 0x31b4
    31b0:	080c      	movi.n	a8, 0
    31b2:	7189      	s32i.n	a8, a1, 28
    31b4:	7198      	l32i.n	a9, a1, 28
    31b6:	cf6592        	s32i	a9, a5, 0x33c
    31b9:	11a8      	l32i.n	a10, a1, 4
    31bb:	005a16        	beqz	a10, 0x31c4
    31be:	0721e2        	l32i	a14, a1, 28
    31c1:	04ce16        	beqz	a14, 0x3211
    31c4:	a08d50        	addx4	a8, a13, a5
    31c7:	b189      	s32i.n	a8, a1, 44
    31c9:	ffca06        	j	0x30f5
    31cc:	01a8      	l32i.n	a10, a1, 0
    31ce:	0ebd      	mov.n	a11, a14
    31d0:	a0aaa0        	addx4	a10, a10, a10
    31d3:	11aaf0        	slli	a10, a10, 1
    31d6:	088a65        	excw
    31d9:	f1c8      	l32i.n	a12, a1, 60
    31db:	01f8      	l32i.n	a15, a1, 0
    31dd:	d1d8      	l32i.n	a13, a1, 52
    31df:	c1b8      	l32i.n	a11, a1, 48
    31e1:	1e0c      	movi.n	a14, 1
    31e3:	71e9      	s32i.n	a14, a1, 28
    31e5:	cbbaf6        	bgeui	a10, 16, 0x31b4
    31e8:	080c      	movi.n	a8, 0
    31ea:	7189      	s32i.n	a8, a1, 28
    31ec:	fff106        	j	0x31b4
    31ef:	259200        	extui	a9, a0, 18, 3
    31f2:	291662        	l16ui	a6, a6, 82
    31f5:	56fc      	bnez.n	a6, 0x322e
    31f7:	fe          	.byte 0xfe
    31f8:	56fb      	addi.n	a5, a6, 15
    31fa:	cf          	.byte 0xcf
    31fb:	0cfb      	addi.n	a0, a12, 15
    31fd:	0c0a      	add.n	a0, a12, a0
    31ff:	0e          	.byte 0xe
    3200:	cf65e2        	s32i	a14, a5, 0x33c
    3203:	71a9      	s32i.n	a10, a1, 28
    3205:	ffec06        	j	0x31b9
    3208:	a08a50        	addx4	a8, a10, a5
    320b:	b189      	s32i.n	a8, a1, 44
    320d:	ffb906        	j	0x30f5
    3210:	a19800        	sll	a9, a8
    3213:	c998      	l32i.n	a9, a9, 48
    3215:	a0ad50        	addx4	a10, a13, a5
    3218:	b1a9      	s32i.n	a10, a1, 44
    321a:	990b      	addi.n	a9, a9, -1
    321c:	023d97        	bltu	a13, a9, 0x3222
    321f:	ffb486        	j	0x30f5
    3222:	b1a9      	s32i.n	a10, a1, 44
    3224:	6325e2        	l32i	a14, a5, 0x18c
    3227:	c1b9      	s32i.n	a11, a1, 48
    3229:	e7a382        	movi	a8, 0x3e7
    322c:	892ad2        	l32i	a13, a10, 0x224
    322f:	622592        	l32i	a9, a5, 0x188
    3232:	5199      	s32i.n	a9, a1, 20
    3234:	1238d7        	bltu	a8, a13, 0x324a
    3237:	61a8      	l32i.n	a10, a1, 24
    3239:	51b8      	l32i.n	a11, a1, 20
    323b:	82aad0        	mull	a10, a10, a13
    323e:	82bbe0        	mull	a11, a11, a14
    3241:	0883a5        	excw
    3244:	91c8      	l32i.n	a12, a1, 36
    3246:	000746        	j	0x3267
    3249:	41e900        	srli	a14, a0, 9
    324c:	31d9      	s32i.n	a13, a1, 12
    324e:	61a8      	l32i.n	a10, a1, 24
    3250:	51b8      	l32i.n	a11, a1, 20
    3252:	0882a5        	excw
    3255:	21a9      	s32i.n	a10, a1, 8
    3257:	41b8      	l32i.n	a11, a1, 16
    3259:	31a8      	l32i.n	a10, a1, 12
    325b:	088225        	excw
    325e:	0abd      	mov.n	a11, a10
    3260:	21a8      	l32i.n	a10, a1, 8
    3262:	91c8      	l32i.n	a12, a1, 36
    3264:	82aab0        	mull	a10, a10, a11
    3267:	0cbd      	mov.n	a11, a12
    3269:	088125        	excw
    326c:	f1c8      	l32i.n	a12, a1, 60
    326e:	01f8      	l32i.n	a15, a1, 0
    3270:	c1b8      	l32i.n	a11, a1, 48
    3272:	da1b      	addi.n	a13, a10, 1
    3274:	1265d2        	s32i	a13, a5, 72
    3277:	ff9e86        	j	0x30f5
    327a:	360000        	excw
    327d:	0c00c1        	l32r	a12, 0xfffc6280
    3280:	0f          	.byte 0xf
    3281:	24a7c2        	movi	a12, 0x724
    3284:	44a3e2        	movi	a14, 0x344
    3287:	9139      	s32i.n	a3, a1, 36
    3289:	5c22a2        	l32i	a10, a2, 0x170
    328c:	180c      	movi.n	a8, 1
    328e:	06dd      	mov.n	a13, a6
    3290:	17d272        	addmi	a7, a2, 0x1700
    3293:	05bd      	mov.n	a11, a5
    3295:	d298      	l32i.n	a9, a2, 52
    3297:	f57c      	movi.n	a5, -1
    3299:	8199      	s32i.n	a9, a1, 32
    329b:	382772        	l32i	a7, a7, 224
    329e:	02c061        	l32r	a6, 0xfffc3da0
    32a1:	5189      	s32i.n	a8, a1, 20
    32a3:	c1a9      	s32i.n	a10, a1, 48
    32a5:	f3a182        	movi	a8, 0x1f3
    32a8:	e822a2        	l32i	a10, a2, 0x3a0
    32ab:	626a      	add.n	a6, a2, a6
    32ad:	3f2632        	l32i	a3, a6, 252
    32b0:	a1a9      	s32i.n	a10, a1, 40
    32b2:	d798      	l32i.n	a9, a7, 52
    32b4:	82e3e0        	mull	a14, a3, a14
    32b7:	33aa      	add.n	a3, a3, a10
    32b9:	aaea      	add.n	a10, a10, a14
    32bb:	000332        	l8ui	a3, a3, 0
    32be:	91e8      	l32i.n	a14, a1, 36
    32c0:	aaca      	add.n	a10, a10, a12
    32c2:	b1a9      	s32i.n	a10, a1, 44
    32c4:	233300        	excw
    32c7:	03b897        	bgeu	a8, a9, 0x32ce
    32ca:	0c0c      	movi.n	a12, 0
    32cc:	51c9      	s32i.n	a12, a1, 20
    32ce:	b188      	l32i.n	a8, a1, 44
    32d0:	f1f9      	s32i.n	a15, a1, 60
    32d2:	0c0c      	movi.n	a12, 0
    32d4:	3d6852        	s32i	a5, a8, 244
    32d7:	01c9      	s32i.n	a12, a1, 0
    32d9:	240e16        	beqz	a14, 0x351d
    32dc:	050c      	movi.n	a5, 0
    32de:	21d9      	s32i.n	a13, a1, 8
    32e0:	11b9      	s32i.n	a11, a1, 4
    32e2:	0a0c      	movi.n	a10, 0
    32e4:	090c      	movi.n	a9, 0
    32e6:	ee0b      	addi.n	a14, a14, -1
    32e8:	080c      	movi.n	a8, 0
    32ea:	4189      	s32i.n	a8, a1, 16
    32ec:	71e9      	s32i.n	a14, a1, 28
    32ee:	3199      	s32i.n	a9, a1, 12
    32f0:	a198      	l32i.n	a9, a1, 40
    32f2:	d1a9      	s32i.n	a10, a1, 52
    32f4:	20a5a2        	movi	a10, 0x520
    32f7:	99aa      	add.n	a9, a9, a10
    32f9:	066192        	s32i	a9, a1, 24
    32fc:	61f8      	l32i.n	a15, a1, 24
    32fe:	802f82        	l32i	a8, a15, 0x200
    3301:	7f2ff2        	l32i	a15, a15, 0x1fc
    3304:	0a1f87        	beq	a15, a8, 0x3312
    3307:	20a220        	or	a10, a2, a2
    330a:	00a0b2        	movi	a11, 0
    330d:	05b525        	excw
    3310:	01c8      	l32i.n	a12, a1, 0
    3312:	7188      	l32i.n	a8, a1, 28
    3314:	190c      	movi.n	a9, 1
    3316:	c1a8      	l32i.n	a10, a1, 48
    3318:	0198c7        	bne	a8, a12, 0x331d
    331b:	8799      	s32i.n	a9, a7, 32
    331d:	5aa8      	l32i.n	a10, a10, 20
    331f:	c188      	l32i.n	a8, a1, 48
    3321:	02c2d1        	l32r	a13, 0xfffc3e2c
    3324:	1aac      	beqz.n	a10, 0x3349
    3326:	02a9c1        	l32r	a12, 0xfffc3dcc
    3329:	d888      	l32i.n	a8, a8, 52
    332b:	02c191        	l32r	a9, 0xfffc3e30
    332e:	802cf2        	l32i	a15, a12, 0x200
    3331:	018870        	slli	a8, a8, 25
    3334:	108890        	and	a8, a8, a9
    3337:	20ff80        	or	a15, a15, a8
    333a:	806cf2        	s32i	a15, a12, 0x200
    333d:	b12ce2        	l32i	a14, a12, 0x2c4
    3340:	802cb2        	l32i	a11, a12, 0x200
    3343:	10bbd0        	and	a11, a11, a13
    3346:	806cb2        	s32i	a11, a12, 0x200
    3349:	962692        	l32i	a9, a6, 0x258
    334c:	3e1926        	beqi	a9, 1, 0x338e
    334f:	236752        	s32i	a5, a7, 140
    3352:	5722e2        	l32i	a14, a2, 0x15c
    3355:	0821a2        	l32i	a10, a1, 32
    3358:	0020f0        	nop
    335b:	000ed2        	l8ui	a13, a14, 0
    335e:	132aa2        	l32i	a10, a10, 76
    3361:	3ef8      	l32i.n	a15, a14, 12
    3363:	391d26        	beqi	a13, 1, 0x33a0
    3366:	093a16        	beqz	a10, 0x33fd
    3369:	31b8      	l32i.n	a11, a1, 12
    336b:	d188      	l32i.n	a8, a1, 52
    336d:	2f3c      	movi.n	a15, 50
    336f:	5b8c      	beqz.n	a11, 0x3378
    3371:	01c8      	l32i.n	a12, a1, 0
    3373:	0020f0        	nop
    3376:	accc      	bnez.n	a12, 0x3384
    3378:	a1d8      	l32i.n	a13, a1, 40
    337a:	5722e2        	l32i	a14, a2, 0x15c
    337d:	f03d      	nop.n
    337f:	2d39      	s32i.n	a3, a13, 8
    3381:	000ed2        	l8ui	a13, a14, 0
    3384:	2d3f87        	bltu	a15, a8, 0x33b5
    3387:	01c8      	l32i.n	a12, a1, 0
    3389:	1cfc      	bnez.n	a12, 0x33be
    338b:	000986        	j	0x33b5
    338e:	21c8      	l32i.n	a12, a1, 8
    3390:	f1b8      	l32i.n	a11, a1, 60
    3392:	02ad      	mov.n	a10, a2
    3394:	bbca      	add.n	a11, a11, a12
    3396:	0b21c2        	l32i	a12, a1, 44
    3399:	ffa4e5        	excw
    339c:	ffec86        	j	0x3352
    339f:	1f6600        	excw
    33a2:	0188c2        	excw
    33a5:	2e38      	l32i.n	a3, a14, 8
    33a7:	338a      	add.n	a3, a3, a8
    33a9:	000332        	l8ui	a3, a3, 0
    33ac:	233300        	excw
    33af:	533350        	excw
    33b2:	ffec06        	j	0x3366
    33b5:	b198      	l32i.n	a9, a1, 44
    33b7:	3d6932        	s32i	a3, a9, 244
    33ba:	01c8      	l32i.n	a12, a1, 0
    33bc:	ec8c      	beqz.n	a12, 0x33ce
    33be:	51a8      	l32i.n	a10, a1, 20
    33c0:	14b0c0        	extui	a11, a12, 0, 2
    33c3:	fecbb2        	addi	a11, a11, -2
    33c6:	aa0b      	addi.n	a10, a10, -1
    33c8:	0c1a16        	beqz	a10, 0x348d
    33cb:	0beb16        	beqz	a11, 0x348d
    33ce:	b1f8      	l32i.n	a15, a1, 44
    33d0:	402fc2        	l32i	a12, a15, 0x100
    33d3:	152f92        	l32i	a9, a15, 84
    33d6:	122f82        	l32i	a8, a15, 72
    33d9:	3f2fb2        	l32i	a11, a15, 252
    33dc:	352fa2        	l32i	a10, a15, 212
    33df:	889a      	add.n	a8, a8, a9
    33e1:	bbca      	add.n	a11, a11, a12
    33e3:	3f6fb2        	s32i	a11, a15, 252
    33e6:	362fc2        	l32i	a12, a15, 216
    33e9:	332f92        	l32i	a9, a15, 204
    33ec:	156f82        	s32i	a8, a15, 84
    33ef:	372f82        	l32i	a8, a15, 220
    33f2:	99aa      	add.n	a9, a9, a10
    33f4:	336f92        	s32i	a9, a15, 204
    33f7:	80cc80        	add	a12, a12, a8
    33fa:	366fc2        	s32i	a12, a15, 216
    33fd:	ad0b      	addi.n	a10, a13, -1
    33ff:	a1d8      	l32i.n	a13, a1, 40
    3401:	0aca16        	beqz	a10, 0x34b1
    3404:	02c3e1        	l32r	a14, 0xfffc3f10
    3407:	383c      	movi.n	a8, 51
    3409:	433380        	excw
    340c:	f4c3f2        	addi	a15, a3, -12
    340f:	53ff50        	excw
    3412:	eefa      	add.n	a14, a14, a15
    3414:	04f8      	l32i.n	a15, a4, 0
    3416:	000ee2        	l8ui	a14, a14, 0
    3419:	1567e2        	s32i	a14, a7, 84
    341c:	3f26c2        	l32i	a12, a6, 252
    341f:	ccda      	add.n	a12, a12, a13
    3421:	004c32        	s8i	a3, a12, 0
    3424:	02b8      	l32i.n	a11, a2, 0
    3426:	1bb8      	l32i.n	a11, a11, 4
    3428:	e1f9      	s32i.n	a15, a1, 56
    342a:	0a7b16        	beqz	a11, 0x34d5
    342d:	2327b2        	l32i	a11, a7, 140
    3430:	0a0c      	movi.n	a10, 0
    3432:	190c      	movi.n	a9, 1
    3434:	839ab0        	moveqz	a9, a10, a11
    3437:	0227c2        	l32i	a12, a7, 8
    343a:	226792        	s32i	a9, a7, 136
    343d:	0a8c56        	bnez	a12, 0x34e9
    3440:	20a220        	or	a10, a2, a2
    3443:	20c440        	or	a12, a4, a4
    3446:	0121f2        	l32i	a15, a1, 4
    3449:	01e8      	l32i.n	a14, a1, 0
    344b:	1d0c      	movi.n	a13, 1
    344d:	0b0c      	movi.n	a11, 0
    344f:	eefa      	add.n	a14, a14, a15
    3451:	83bde0        	moveqz	a11, a13, a14
    3454:	03dd      	mov.n	a13, a3
    3456:	000ce5        	excw
    3459:	e1a8      	l32i.n	a10, a1, 56
    345b:	0488      	l32i.n	a8, a4, 0
    345d:	91b8      	l32i.n	a11, a1, 36
    345f:	090c      	movi.n	a9, 0
    3461:	c088a0        	sub	a8, a8, a10
    3464:	838980        	moveqz	a8, a9, a8
    3467:	d189      	s32i.n	a8, a1, 52
    3469:	0a3816        	beqz	a8, 0x3510
    346c:	0d0c      	movi.n	a13, 0
    346e:	9e6652        	s32i	a5, a6, 0x278
    3471:	31d9      	s32i.n	a13, a1, 12
    3473:	f1e8      	l32i.n	a14, a1, 60
    3475:	9759      	s32i.n	a5, a7, 36
    3477:	01c8      	l32i.n	a12, a1, 0
    3479:	ee1b      	addi.n	a14, a14, 1
    347b:	f1e9      	s32i.n	a14, a1, 60
    347d:	cc1b      	addi.n	a12, a12, 1
    347f:	01c9      	s32i.n	a12, a1, 0
    3481:	02bcb7        	bgeu	a12, a11, 0x3487
    3484:	ff9d06        	j	0x32fc
    3487:	4198      	l32i.n	a9, a1, 16
    3489:	092d      	mov.n	a2, a9
    348b:	f01d      	excw
    348d:	071d66        	bnei	a13, 1, 0x3498
    3490:	3ef8      	l32i.n	a15, a14, 12
    3492:	ffcff2        	addi	a15, a15, -1
    3495:	f35f16        	beqz	a15, 0x33ce
    3498:	b1a8      	l32i.n	a10, a1, 44
    349a:	04b8      	l32i.n	a11, a4, 0
    349c:	07cd      	mov.n	a12, a7
    349e:	ffab25        	excw
    34a1:	a188      	l32i.n	a8, a1, 40
    34a3:	0448a2        	s8i	a10, a8, 4
    34a6:	5722e2        	l32i	a14, a2, 0x15c
    34a9:	0a3d      	mov.n	a3, a10
    34ab:	000ed2        	l8ui	a13, a14, 0
    34ae:	ffc706        	j	0x33ce
    34b1:	3e98      	l32i.n	a9, a14, 12
    34b3:	fec992        	addi	a9, a9, -2
    34b6:	f4a956        	bnez	a9, 0x3404
    34b9:	0198      	l32i.n	a9, a1, 0
    34bb:	a188      	l32i.n	a8, a1, 40
    34bd:	2e38      	l32i.n	a3, a14, 8
    34bf:	040882        	l8ui	a8, a8, 4
    34c2:	339a      	add.n	a3, a3, a9
    34c4:	000332        	l8ui	a3, a3, 0
    34c7:	238800        	excw
    34ca:	233300        	excw
    34cd:	338a      	add.n	a3, a3, a8
    34cf:	533350        	excw
    34d2:	ffcb86        	j	0x3404
    34d5:	02c4a1        	l32r	a10, 0xfffc3fe8
    34d8:	9e2692        	l32i	a9, a6, 0x278
    34db:	c099a0        	sub	a9, a9, a10
    34de:	f4b956        	bnez	a9, 0x342d
    34e1:	9e6652        	s32i	a5, a6, 0x278
    34e4:	190c      	movi.n	a9, 1
    34e6:	ffd346        	j	0x3437
    34e9:	02b8b1        	l32r	a11, 0xfffc3fcc
    34ec:	dc2bb2        	l32i	a11, a11, 0x370
    34ef:	bb0b      	addi.n	a11, a11, -1
    34f1:	f4bb56        	bnez	a11, 0x3440
    34f4:	8096c2        	l16si	a12, a6, 0x100
    34f7:	f45c56        	bnez	a12, 0x3440
    34fa:	02ad      	mov.n	a10, a2
    34fc:	11b8      	l32i.n	a11, a1, 4
    34fe:	01cd      	mov.n	a12, a1
    3500:	04dd      	mov.n	a13, a4
    3502:	91e8      	l32i.n	a14, a1, 36
    3504:	21f8      	l32i.n	a15, a1, 8
    3506:	ff74a5        	excw
    3509:	41a9      	s32i.n	a10, a1, 16
    350b:	ffd286        	j	0x3459
    350e:	e20000        	excw
    3511:	0c9e26        	beqi	a14, 10, 0x3521
    3514:	1b1d      	excw
    3516:	ee          	.byte 0xee
    3517:	9e66e2        	s32i	a14, a6, 0x278
    351a:	ffd4c6        	j	0x3471
    351d:	020c      	movi.n	a2, 0
    351f:	f01d      	excw
    3521:	000000        	ill
    3524:	004136        	excw
    3527:	02c5b1        	l32r	a11, 0xfffc403c
    352a:	e822a2        	l32i	a10, a2, 0x3a0
    352d:	17d262        	addmi	a6, a2, 0x1700
    3530:	382662        	l32i	a6, a6, 224
    3533:	aaba      	add.n	a10, a10, a11
    3535:	005316        	beqz	a3, 0x353e
    3538:	ffaf82        	movi	a8, -1
    353b:	7f6a82        	s32i	a8, a10, 0x1fc
    353e:	16e8      	l32i.n	a14, a6, 4
    3540:	9698      	l32i.n	a9, a6, 36
    3542:	ce0b      	addi.n	a12, a14, -1
    3544:	260916        	beqz	a9, 0x37a8
    3547:	0cbd      	mov.n	a11, a12
    3549:	7f6ab2        	s32i	a11, a10, 0x1fc
    354c:	a6d8      	l32i.n	a13, a6, 40
    354e:	c0aed0        	sub	a10, a14, a13
    3551:	022bc7        	blt	a11, a12, 0x3557
    3554:	008c06        	j	0x3788
    3557:	76c8      	l32i.n	a12, a6, 28
    3559:	22bc16        	beqz	a12, 0x3788
    355c:	1c0c      	movi.n	a12, 1
    355e:	1d66c2        	s32i	a12, a6, 116
    3561:	1c0c      	movi.n	a12, 1
    3563:	012ba7        	blt	a11, a10, 0x3568
    3566:	0c0c      	movi.n	a12, 0
    3568:	1e66c2        	s32i	a12, a6, 120
    356b:	ea0b      	addi.n	a14, a10, -1
    356d:	022be7        	blt	a11, a14, 0x3573
    3570:	008646        	j	0x378d
    3573:	76f8      	l32i.n	a15, a6, 28
    3575:	214f16        	beqz	a15, 0x378d
    3578:	1c0c      	movi.n	a12, 1
    357a:	1f66c2        	s32i	a12, a6, 124
    357d:	0b2ab7        	blt	a10, a11, 0x358c
    3580:	7688      	l32i.n	a8, a6, 28
    3582:	9d0b      	addi.n	a9, a13, -1
    3584:	041897        	beq	a8, a9, 0x358c
    3587:	1a0c      	movi.n	a10, 1
    3589:	000046        	j	0x358e
    358c:	0a0c      	movi.n	a10, 0
    358e:	3d26b2        	l32i	a11, a6, 244
    3591:	3826d2        	l32i	a13, a6, 224
    3594:	372692        	l32i	a9, a6, 220
    3597:	2066a2        	s32i	a10, a6, 128
    359a:	3926c2        	l32i	a12, a6, 228
    359d:	02a9a1        	l32r	a10, 0xfffc4044
    35a0:	07f9d3        	excw
    35a3:	0ef9c3        	excw
    35a6:	17f9b3        	excw
    35a9:	ed6a92        	s32i	a9, a10, 0x3b4
    35ac:	3a26e2        	l32i	a14, a6, 232
    35af:	512682        	l32i	a8, a6, 0x144
    35b2:	5026d2        	l32i	a13, a6, 0x140
    35b5:	522672        	l32i	a7, a6, 0x148
    35b8:	5326f2        	l32i	a15, a6, 0x14c
    35bb:	04fd83        	excw
    35be:	08fd73        	excw
    35c1:	0cfdf3        	excw
    35c4:	10fde3        	excw
    35c7:	f76ad2        	s32i	a13, a10, 0x3dc
    35ca:	a6c8      	l32i.n	a12, a6, 40
    35cc:	3726b2        	l32i	a11, a6, 220
    35cf:	070c      	movi.n	a7, 0
    35d1:	cc1b      	addi.n	a12, a12, 1
    35d3:	bb1b      	addi.n	a11, a11, 1
    35d5:	3766b2        	s32i	a11, a6, 220
    35d8:	02bcb7        	bgeu	a12, a11, 0x35de
    35db:	376672        	s32i	a7, a6, 220
    35de:	66b8      	l32i.n	a11, a6, 24
    35e0:	cb8c      	beqz.n	a11, 0x35f0
    35e2:	3826e2        	l32i	a14, a6, 224
    35e5:	ee1b      	addi.n	a14, a14, 1
    35e7:	3866e2        	s32i	a14, a6, 224
    35ea:	02bce7        	bgeu	a12, a14, 0x35f0
    35ed:	386672        	s32i	a7, a6, 224
    35f0:	3a26c2        	l32i	a12, a6, 232
    35f3:	3926f2        	l32i	a15, a6, 228
    35f6:	3b2682        	l32i	a8, a6, 236
    35f9:	cc1b      	addi.n	a12, a12, 1
    35fb:	ff1b      	addi.n	a15, a15, 1
    35fd:	3966f2        	s32i	a15, a6, 228
    3600:	3a66c2        	s32i	a12, a6, 232
    3603:	023f87        	bltu	a15, a8, 0x3609
    3606:	396672        	s32i	a7, a6, 228
    3609:	3c26d2        	l32i	a13, a6, 240
    360c:	f03d      	nop.n
    360e:	023cd7        	bltu	a12, a13, 0x3614
    3611:	3a6672        	s32i	a7, a6, 232
    3614:	3d26e2        	l32i	a14, a6, 244
    3617:	f03d      	nop.n
    3619:	ee1b      	addi.n	a14, a14, 1
    361b:	3d66e2        	s32i	a14, a6, 244
    361e:	028eb6        	bltui	a14, 8, 0x3624
    3621:	3d6672        	s32i	a7, a6, 244
    3624:	1e2682        	l32i	a8, a6, 120
    3627:	1f2692        	l32i	a9, a6, 124
    362a:	1d26d2        	l32i	a13, a6, 116
    362d:	1526f2        	l32i	a15, a6, 84
    3630:	01c390        	slli	a12, a3, 23
    3633:	76e8      	l32i.n	a14, a6, 28
    3635:	202632        	l32i	a3, a6, 128
    3638:	06f5f3        	excw
    363b:	0ef5e3        	excw
    363e:	15f5b3        	excw
    3641:	1cf5d3        	excw
    3644:	1df593        	excw
    3647:	1ef583        	excw
    364a:	1ff533        	excw
    364d:	ec6a52        	s32i	a5, a10, 0x3b0
    3650:	4c2682        	l32i	a8, a6, 0x130
    3653:	86d8      	l32i.n	a13, a6, 32
    3655:	012632        	l32i	a3, a6, 4
    3658:	3e26f2        	l32i	a15, a6, 248
    365b:	96e8      	l32i.n	a14, a6, 36
    365d:	349030        	extui	a9, a3, 0, 4
    3660:	0afcf3        	excw
    3663:	15fce3        	excw
    3666:	01cff2        	addi	a15, a15, 1
    3669:	3e66f2        	s32i	a15, a6, 248
    366c:	16fcd3        	excw
    366f:	10fc93        	excw
    3672:	023f87        	bltu	a15, a8, 0x3678
    3675:	3e6672        	s32i	a7, a6, 248
    3678:	412682        	l32i	a8, a6, 0x104
    367b:	222692        	l32i	a9, a6, 136
    367e:	2426d2        	l32i	a13, a6, 144
    3681:	f1a3b2        	movi	a11, 0x3f1
    3684:	91a3e2        	movi	a14, 0x391
    3687:	20bcb0        	or	a11, a12, a11
    368a:	20cce0        	or	a12, a12, a14
    368d:	fecdd2        	addi	a13, a13, -2
    3690:	93cbd0        	movnez	a12, a11, a13
    3693:	14fc93        	excw
    3696:	1d0c      	movi.n	a13, 1
    3698:	13c816        	beqz	a8, 0x37d8
    369b:	02c6b1        	l32r	a11, 0xfffc41b4
    369e:	4026e2        	l32i	a14, a6, 0x100
    36a1:	10be16        	beqz	a14, 0x37b0
    36a4:	3f26f2        	l32i	a15, a6, 252
    36a7:	02ae51        	l32r	a5, 0xfffc4160
    36aa:	108f16        	beqz	a15, 0x37b6
    36ad:	058076        	excw
    36b0:	f22a82        	l32i	a8, a10, 0x3c8
    36b3:	0208b7        	bnone	a8, a11, 0x36b9
    36b6:	fffcc6        	j	0x36ad
    36b9:	1cd2d2        	addmi	a13, a2, 0x1c00
    36bc:	332dd2        	l32i	a13, a13, 204
    36bf:	e82292        	l32i	a9, a2, 0x3a0
    36c2:	44a3e2        	movi	a14, 0x344
    36c5:	82dde0        	mull	a13, a13, a14
    36c8:	24a7b2        	movi	a11, 0x724
    36cb:	99da      	add.n	a9, a9, a13
    36cd:	99ba      	add.n	a9, a9, a11
    36cf:	d029b2        	l32i	a11, a9, 0x340
    36d2:	043b16        	beqz	a11, 0x3719
    36d5:	024ef1        	l32r	a15, 0xfffc4010
    36d8:	8d2c      	movi.n	a13, 40
    36da:	fec3b2        	addi	a11, a3, -2
    36dd:	04b0b0        	extui	a11, a11, 0, 1
    36e0:	11bb80        	slli	a11, a11, 8
    36e3:	20bbd0        	or	a11, a11, a13
    36e6:	7a6fb2        	s32i	a11, a15, 0x1e8
    36e9:	7b6f72        	s32i	a7, a15, 0x1ec
    36ec:	7b6f72        	s32i	a7, a15, 0x1ec
    36ef:	1688      	l32i.n	a8, a6, 4
    36f1:	02c7b1        	l32r	a11, 0xfffc4210
    36f4:	fec882        	addi	a8, a8, -2
    36f7:	048080        	extui	a8, a8, 0, 1
    36fa:	118880        	slli	a8, a8, 8
    36fd:	2088b0        	or	a8, a8, a11
    3700:	786f82        	s32i	a8, a15, 0x1e0
    3703:	6029e2        	l32i	a14, a9, 0x180
    3706:	cd2982        	l32i	a8, a9, 0x334
    3709:	792ff2        	l32i	a15, a15, 0x1e4
    370c:	d06972        	s32i	a7, a9, 0x340
    370f:	881b      	addi.n	a8, a8, 1
    3711:	cd6982        	s32i	a8, a9, 0x334
    3714:	eefa      	add.n	a14, a14, a15
    3716:	6069e2        	s32i	a14, a9, 0x180
    3719:	eb6ac2        	s32i	a12, a10, 0x3ac
    371c:	402692        	l32i	a9, a6, 0x100
    371f:	69cc      	bnez.n	a9, 0x3729
    3721:	06ad      	mov.n	a10, a6
    3723:	000ca5        	excw
    3726:	402692        	l32i	a9, a6, 0x100
    3729:	3f26a2        	l32i	a10, a6, 252
    372c:	c90b      	addi.n	a12, a9, -1
    372e:	4066c2        	s32i	a12, a6, 0x100
    3731:	008a56        	bnez	a10, 0x373d
    3734:	20a660        	or	a10, a6, a6
    3737:	002025        	excw
    373a:	3f26a2        	l32i	a10, a6, 252
    373d:	412692        	l32i	a9, a6, 0x104
    3740:	ffcad2        	addi	a13, a10, -1
    3743:	3f66d2        	s32i	a13, a6, 252
    3746:	69cc      	bnez.n	a9, 0x3750
    3748:	06ad      	mov.n	a10, a6
    374a:	002fa5        	excw
    374d:	412692        	l32i	a9, a6, 0x104
    3750:	4e26e2        	l32i	a14, a6, 0x138
    3753:	f90b      	addi.n	a15, a9, -1
    3755:	4166f2        	s32i	a15, a6, 0x104
    3758:	4e9c      	beqz.n	a14, 0x3770
    375a:	0688      	l32i.n	a8, a6, 0
    375c:	030c      	movi.n	a3, 0
    375e:	e88c      	beqz.n	a8, 0x3770
    3760:	02ad      	mov.n	a10, a2
    3762:	1b0c      	movi.n	a11, 1
    3764:	0c0c      	movi.n	a12, 0
    3766:	007d65        	excw
    3769:	0698      	l32i.n	a9, a6, 0
    376b:	331b      	addi.n	a3, a3, 1
    376d:	ef3397        	bltu	a3, a9, 0x3760
    3770:	76b8      	l32i.n	a11, a6, 28
    3772:	a6a8      	l32i.n	a10, a6, 40
    3774:	bb1b      	addi.n	a11, a11, 1
    3776:	76b9      	s32i.n	a11, a6, 28
    3778:	161ab7        	beq	a10, a11, 0x3792
    377b:	16d8      	l32i.n	a13, a6, 4
    377d:	dd1b      	addi.n	a13, a13, 1
    377f:	16d9      	s32i.n	a13, a6, 4
    3781:	bf25c2        	l32i	a12, a5, 0x2fc
    3784:	04c9      	s32i.n	a12, a4, 0
    3786:	f01d      	excw
    3788:	0c0c      	movi.n	a12, 0
    378a:	ff7406        	j	0x355e
    378d:	0c0c      	movi.n	a12, 0
    378f:	ff79c6        	j	0x357a
    3792:	1688      	l32i.n	a8, a6, 4
    3794:	66f8      	l32i.n	a15, a6, 24
    3796:	7679      	s32i.n	a7, a6, 28
    3798:	881b      	addi.n	a8, a8, 1
    379a:	ff1b      	addi.n	a15, a15, 1
    379c:	66f9      	s32i.n	a15, a6, 24
    379e:	1689      	s32i.n	a8, a6, 4
    37a0:	bf25e2        	l32i	a14, a5, 0x2fc
    37a3:	04e9      	s32i.n	a14, a4, 0
    37a5:	f01d      	excw
    37a7:	2ab200        	excw
    37aa:	7f          	.byte 0x7f
    37ab:	ff6686        	j	0x3549
    37ae:	d30000        	excw
    37b1:	0afb      	addi.n	a0, a10, 15
    37b3:	ffbb46        	j	0x36a4
    37b6:	2698      	l32i.n	a9, a6, 8
    37b8:	59ac      	beqz.n	a9, 0x37e1
    37ba:	0326d2        	l32i	a13, a6, 12
    37bd:	02b8e1        	l32r	a14, 0xfffc42a0
    37c0:	1a25f2        	l32i	a15, a5, 104
    37c3:	023fd7        	bltu	a15, a13, 0x37c9
    37c6:	ffb8c6        	j	0x36ad
    37c9:	dc2e82        	l32i	a8, a14, 0x370
    37cc:	edd856        	bnez	a8, 0x36ad
    37cf:	d92e92        	l32i	a9, a14, 0x364
    37d2:	fea916        	beqz	a9, 0x37c0
    37d5:	ffb506        	j	0x36ad
    37d8:	02c6b1        	l32r	a11, 0xfffc42f0
    37db:	08fbd3        	excw
    37de:	ffaf06        	j	0x369e
    37e1:	00a2d2        	movi	a13, 0x200
    37e4:	20bbd0        	or	a11, a11, a13
    37e7:	ffb086        	j	0x36ad
    37ea:	360000        	excw
    37ed:	620061        	l32r	a6, 0xfffdbff0
    37f0:	524922        	s8i	a2, a9, 82
    37f3:	724b22        	s8i	a2, a11, 114
    37f6:	425f22        	s16i	a2, a15, 132
    37f9:	c05e22        	s16i	a2, a14, 0x180
    37fc:	7011d5        	excw
    37ff:	504131        	l32r	a3, 0xfffd7904
    3802:	704151        	l32r	a5, 0xfffdf908
    3805:	404172        	s8i	a7, a1, 64
    3808:	578373        	excw
    380b:	0c0fb6        	bltui	a15, 0x8000, 0x381b
    380e:	1f          	.byte 0x1f
    380f:	1e0c      	movi.n	a14, 1
    3811:	c04560        	sub	a4, a5, a6
    3814:	1144c0        	slli	a4, a4, 4
    3817:	c0dd40        	sub	a13, a13, a4
    381a:	000846        	j	0x383f
    381d:	c288      	l32i.n	a8, a2, 48
    381f:	c09850        	sub	a9, a8, a5
    3822:	990b      	addi.n	a9, a9, -1
    3824:	11b967        	bgeu	a9, a6, 0x3839
    3827:	1e0c      	movi.n	a14, 1
    3829:	c04680        	sub	a4, a6, a8
    382c:	454a      	add.n	a4, a5, a4
    382e:	441b      	addi.n	a4, a4, 1
    3830:	1144c0        	slli	a4, a4, 4
    3833:	c0dd40        	sub	a13, a13, a4
    3836:	0000c6        	j	0x383d
    3839:	040c      	movi.n	a4, 0
    383b:	0e0c      	movi.n	a14, 0
    383d:	0f0c      	movi.n	a15, 0
    383f:	0217e6        	bgei	a7, 1, 0x3845
    3842:	003c06        	j	0x3936
    3845:	00a062        	movi	a6, 0
    3848:	02c8b1        	l32r	a11, 0xfffc4368
    384b:	02aea1        	l32r	a10, 0xfffc4304
    384e:	006142        	s32i	a4, a1, 0
    3851:	de8076        	excw
    3854:	2422c2        	l32i	a12, a2, 144
    3857:	661b      	addi.n	a6, a6, 1
    3859:	feccc2        	addi	a12, a12, -2
    385c:	0d0c16        	beqz	a12, 0x3930
    385f:	c248      	l32i.n	a4, a2, 48
    3861:	492232        	l32i	a3, a2, 0x124
    3864:	a288      	l32i.n	a8, a2, 40
    3866:	482252        	l32i	a5, a2, 0x120
    3869:	023347        	bltu	a3, a4, 0x386f
    386c:	003006        	j	0x3930
    386f:	362242        	l32i	a4, a2, 216
    3872:	5e2292        	l32i	a9, a2, 0x178
    3875:	1144c0        	slli	a4, a4, 4
    3878:	090916        	beqz	a9, 0x390c
    387b:	c54b      	addi.n	a12, a5, 4
    387d:	08b8c7        	bgeu	a8, a12, 0x3889
    3880:	c08850        	sub	a8, a8, a5
    3883:	1188f0        	slli	a8, a8, 1
    3886:	000046        	j	0x388b
    3889:	880c      	movi.n	a8, 8
    388b:	c80b      	addi.n	a12, a8, -1
    388d:	1135c0        	slli	a3, a5, 4
    3890:	402292        	l32i	a9, a2, 0x100
    3893:	215180        	srai	a5, a8, 1
    3896:	0cf343        	excw
    3899:	959a      	add.n	a9, a5, a9
    389b:	406292        	s32i	a9, a2, 0x100
    389e:	190c      	movi.n	a9, 1
    38a0:	18f393        	excw
    38a3:	c06a32        	s32i	a3, a10, 0x300
    38a6:	0d3d      	mov.n	a3, a13
    38a8:	342242        	l32i	a4, a2, 208
    38ab:	08f3c3        	excw
    38ae:	1c0c      	movi.n	a12, 1
    38b0:	18f393        	excw
    38b3:	19f343        	excw
    38b6:	c16a32        	s32i	a3, a10, 0x304
    38b9:	142292        	l32i	a9, a2, 80
    38bc:	0148      	l32i.n	a4, a1, 0
    38be:	0b3d      	mov.n	a3, a11
    38c0:	939c90        	movnez	a9, a12, a9
    38c3:	15f393        	excw
    38c6:	16f3e3        	excw
    38c9:	17f3f3        	excw
    38cc:	18f343        	excw
    38cf:	c26a32        	s32i	a3, a10, 0x308
    38d2:	482292        	l32i	a9, a2, 0x120
    38d5:	3422c2        	l32i	a12, a2, 208
    38d8:	a248      	l32i.n	a4, a2, 40
    38da:	559a      	add.n	a5, a5, a9
    38dc:	88ca      	add.n	a8, a8, a12
    38de:	4d22c2        	l32i	a12, a2, 0x134
    38e1:	486252        	s32i	a5, a2, 0x120
    38e4:	346282        	s32i	a8, a2, 208
    38e7:	0538c7        	bltu	a8, a12, 0x38f0
    38ea:	c038c0        	sub	a3, a8, a12
    38ed:	346232        	s32i	a3, a2, 208
    38f0:	3c3547        	bltu	a5, a4, 0x3930
    38f3:	4b2282        	l32i	a8, a2, 0x12c
    38f6:	492292        	l32i	a9, a2, 0x124
    38f9:	0c0c      	movi.n	a12, 0
    38fb:	418180        	srli	a8, a8, 1
    38fe:	991b      	addi.n	a9, a9, 1
    3900:	496292        	s32i	a9, a2, 0x124
    3903:	1a3897        	bltu	a8, a9, 0x3921
    3906:	3662c2        	s32i	a12, a2, 216
    3909:	000706        	j	0x3929
    390c:	352b      	addi.n	a3, a5, 2
    390e:	08b837        	bgeu	a8, a3, 0x391a
    3911:	c08850        	sub	a8, a8, a5
    3914:	1188f0        	slli	a8, a8, 1
    3917:	ffdc06        	j	0x388b
    391a:	480c      	movi.n	a8, 4
    391c:	ffdac6        	j	0x388b
    391f:	920000        	excw
    3922:	1b3622        	excw
    3925:	9299      	s32i.n	a9, a2, 36
    3927:	0c3662        	excw
    392a:	0c0c17        	bnone	a12, a1, 0x393a
    392d:	4862c2        	s32i	a12, a2, 0x120
    3930:	02a677        	bge	a6, a7, 0x3936
    3933:	ffc686        	j	0x3851
    3936:	f01d      	excw
    3938:	004136        	excw
    393b:	5d2232        	l32i	a3, a2, 0x174
    393e:	0f6316        	beqz	a3, 0x3a38
    3941:	170c      	movi.n	a7, 1
    3943:	050c      	movi.n	a5, 0
    3945:	02c9e1        	l32r	a14, 0xfffc446c
    3948:	02aec1        	l32r	a12, 0xfffc4400
    394b:	0d0c      	movi.n	a13, 0
    394d:	0f1c      	movi.n	a15, 16
    394f:	ac8076        	excw
    3952:	c2a8      	l32i.n	a10, a2, 48
    3954:	432292        	l32i	a9, a2, 0x10c
    3957:	551b      	addi.n	a5, a5, 1
    3959:	a268      	l32i.n	a6, a2, 40
    395b:	0239a7        	bltu	a9, a10, 0x3961
    395e:	002686        	j	0x39fc
    3961:	5d22b2        	l32i	a11, a2, 0x174
    3964:	2288      	l32i.n	a8, a2, 8
    3966:	2b9c      	beqz.n	a11, 0x397c
    3968:	4222b2        	l32i	a11, a2, 0x108
    396b:	3b4b      	addi.n	a3, a11, 4
    396d:	28b637        	bgeu	a6, a3, 0x3999
    3970:	c066b0        	sub	a6, a6, a11
    3973:	1166f0        	slli	a6, a6, 1
    3976:	000846        	j	0x399b
    3979:	000000        	ill
    397c:	fe8856        	bnez	a8, 0x3968
    397f:	4222b2        	l32i	a11, a2, 0x108
    3982:	a268      	l32i.n	a6, a2, 40
    3984:	ab2b      	addi.n	a10, a11, 2
    3986:	08b6a7        	bgeu	a6, a10, 0x3992
    3989:	c066b0        	sub	a6, a6, a11
    398c:	1166f0        	slli	a6, a6, 1
    398f:	000206        	j	0x399b
    3992:	460c      	movi.n	a6, 4
    3994:	0000c6        	j	0x399b
    3997:	0c0000        	excw
    399a:	223286        	j	0xc268
    399d:	3f          	.byte 0x3f
    399e:	461b      	addi.n	a4, a6, 1
    39a0:	21a160        	srai	a10, a6, 1
    39a3:	3a3a      	add.n	a3, a10, a3
    39a5:	3f6232        	s32i	a3, a2, 252
    39a8:	058816        	beqz	a8, 0x3a04
    39ab:	5238      	l32i.n	a3, a2, 20
    39ad:	42b8      	l32i.n	a11, a2, 16
    39af:	b34660        	movgez	a4, a6, a6
    39b2:	090c      	movi.n	a9, 0
    39b4:	bb3a      	add.n	a11, a11, a3
    39b6:	42b9      	s32i.n	a11, a2, 16
    39b8:	8b0b      	addi.n	a8, a11, -1
    39ba:	8389b0        	moveqz	a8, a9, a11
    39bd:	196c82        	s32i	a8, a12, 100
    39c0:	3288      	l32i.n	a8, a2, 12
    39c2:	214140        	srai	a4, a4, 1
    39c5:	5249      	s32i.n	a4, a2, 20
    39c7:	448a      	add.n	a4, a4, a8
    39c9:	3249      	s32i.n	a4, a2, 12
    39cb:	422242        	l32i	a4, a2, 0x108
    39ce:	3b2292        	l32i	a9, a2, 236
    39d1:	a288      	l32i.n	a8, a2, 40
    39d3:	4a4a      	add.n	a4, a10, a4
    39d5:	426242        	s32i	a4, a2, 0x108
    39d8:	0c3487        	bltu	a4, a8, 0x39e8
    39db:	432282        	l32i	a8, a2, 0x10c
    39de:	4262d2        	s32i	a13, a2, 0x108
    39e1:	170c      	movi.n	a7, 1
    39e3:	881b      	addi.n	a8, a8, 1
    39e5:	436282        	s32i	a8, a2, 0x10c
    39e8:	332282        	l32i	a8, a2, 204
    39eb:	868a      	add.n	a8, a6, a8
    39ed:	336282        	s32i	a8, a2, 204
    39f0:	1169f0        	slli	a6, a9, 1
    39f3:	053867        	bltu	a8, a6, 0x39fc
    39f6:	c09860        	sub	a9, a8, a6
    39f9:	336292        	s32i	a9, a2, 204
    39fc:	36a577        	bge	a5, a7, 0x3a36
    39ff:	ffd306        	j	0x394f
    3a02:	420000        	excw
    3a05:	0c2b22        	l32i	a2, a11, 48
    3a08:	8bc013        	excw
    3a0b:	404011        	l32r	a1, 0xfffd3b0c
    3a0e:	448a74        	excw
    3a11:	1189c0        	slli	a8, a9, 4
    3a14:	0cf483        	excw
    3a17:	18f433        	excw
    3a1a:	c06c42        	s32i	a4, a12, 0x300
    3a1d:	860b      	addi.n	a8, a6, -1
    3a1f:	0f4d      	mov.n	a4, a15
    3a21:	08f483        	excw
    3a24:	332282        	l32i	a8, a2, 204
    3a27:	18f433        	excw
    3a2a:	19f483        	excw
    3a2d:	c16c42        	s32i	a4, a12, 0x304
    3a30:	c26ce2        	s32i	a14, a12, 0x308
    3a33:	ffe506        	j	0x39cb
    3a36:	f01d      	excw
    3a38:	2288      	l32i.n	a8, a2, 8
    3a3a:	f03856        	bnez	a8, 0x3941
    3a3d:	270c      	movi.n	a7, 2
    3a3f:	ffc006        	j	0x3943
    3a42:	360000        	excw
    3a45:	0c00c1        	l32r	a12, 0xfffc6a48
    3a48:	58cd      	excw
    3a4a:	c2f8a2        	excw
    3a4d:	4f2282        	l32i	a8, a2, 0x13c
    3a50:	5e22b2        	l32i	a11, a2, 0x178
    3a53:	2a0c      	movi.n	a10, 2
    3a55:	1e0c      	movi.n	a14, 1
    3a57:	0e9d      	mov.n	a9, a14
    3a59:	839ab0        	moveqz	a9, a10, a11
    3a5c:	4522a2        	l32i	a10, a2, 0x114
    3a5f:	4199      	s32i.n	a9, a1, 16
    3a61:	20d816        	beqz	a8, 0x3c72
    3a64:	221a16        	beqz	a10, 0x3c89
    3a67:	4c1c      	movi.n	a12, 20
    3a69:	091c      	movi.n	a9, 16
    3a6b:	8f0b      	addi.n	a8, a15, -1
    3a6d:	c08a80        	sub	a8, a10, a8
    3a70:	839c80        	moveqz	a9, a12, a8
    3a73:	09cd      	mov.n	a12, a9
    3a75:	215a16        	beqz	a10, 0x3c8e
    3a78:	890c      	movi.n	a9, 8
    3a7a:	bf0b      	addi.n	a11, a15, -1
    3a7c:	c0bab0        	sub	a11, a10, a11
    3a7f:	839db0        	moveqz	a9, a13, a11
    3a82:	20b990        	or	a11, a9, a9
    3a85:	1efa16        	beqz	a10, 0x3c78
    3a88:	023af7        	bltu	a10, a15, 0x3a8e
    3a8b:	007806        	j	0x3c6f
    3a8e:	41f8      	l32i.n	a15, a1, 16
    3a90:	070c      	movi.n	a7, 0
    3a92:	024a61        	l32r	a6, 0xfffc43bc
    3a95:	021fe6        	bgei	a15, 1, 0x3a9b
    3a98:	0074c6        	j	0x3c6f
    3a9b:	02ae31        	l32r	a3, 0xfffc4554
    3a9e:	4422a2        	l32i	a10, a2, 0x110
    3aa1:	b90c      	movi.n	a9, 11
    3aa3:	5f0c      	movi.n	a15, 5
    3aa5:	10fdf3        	excw
    3aa8:	10f9f3        	excw
    3aab:	14fde3        	excw
    3aae:	0d8d      	mov.n	a8, a13
    3ab0:	14f9e3        	excw
    3ab3:	8199      	s32i.n	a9, a1, 32
    3ab5:	096182        	s32i	a8, a1, 36
    3ab8:	462292        	l32i	a9, a2, 0x118
    3abb:	5e22d2        	l32i	a13, a2, 0x178
    3abe:	b1b9      	s32i.n	a11, a1, 44
    3ac0:	119940        	slli	a9, a9, 12
    3ac3:	17fd16        	beqz	a13, 0x3c46
    3ac6:	fa4b      	addi.n	a15, a10, 4
    3ac8:	09b5f7        	bgeu	a5, a15, 0x3ad5
    3acb:	c045a0        	sub	a4, a5, a10
    3ace:	1144f0        	slli	a4, a4, 1
    3ad1:	000086        	j	0x3ad7
    3ad4:	840c00        	extui	a0, a0, 12, 9
    3ad7:	4122f2        	l32i	a15, a2, 0x104
    3ada:	11dac0        	slli	a13, a10, 4
    3add:	2099d0        	or	a9, a9, a13
    3ae0:	21a140        	srai	a10, a4, 1
    3ae3:	fafa      	add.n	a15, a10, a15
    3ae5:	4162f2        	s32i	a15, a2, 0x104
    3ae8:	c06392        	s32i	a9, a3, 0x300
    3aeb:	f40b      	addi.n	a15, a4, -1
    3aed:	0c9d      	mov.n	a9, a12
    3aef:	352282        	l32i	a8, a2, 212
    3af2:	08f9f3        	excw
    3af5:	18f9e3        	excw
    3af8:	09dd      	mov.n	a13, a9
    3afa:	19f983        	excw
    3afd:	c16392        	s32i	a9, a3, 0x304
    3b00:	8188      	l32i.n	a8, a1, 32
    3b02:	c26382        	s32i	a8, a3, 0x308
    3b05:	472292        	l32i	a9, a2, 0x11c
    3b08:	442282        	l32i	a8, a2, 0x110
    3b0b:	51d9      	s32i.n	a13, a1, 20
    3b0d:	119940        	slli	a9, a9, 12
    3b10:	1188c0        	slli	a8, a8, 4
    3b13:	208890        	or	a8, a8, a9
    3b16:	c06382        	s32i	a8, a3, 0x300
    3b19:	0b8d      	mov.n	a8, a11
    3b1b:	352292        	l32i	a9, a2, 212
    3b1e:	08f8f3        	excw
    3b21:	91f8      	l32i.n	a15, a1, 36
    3b23:	18f8e3        	excw
    3b26:	6189      	s32i.n	a8, a1, 24
    3b28:	19f893        	excw
    3b2b:	c16382        	s32i	a8, a3, 0x304
    3b2e:	c263f2        	s32i	a15, a3, 0x308
    3b31:	6622d2        	l32i	a13, a2, 0x198
    3b34:	c1a9      	s32i.n	a10, a1, 48
    3b36:	0c2d16        	beqz	a13, 0x3bfc
    3b39:	00a5a2        	movi	a10, 0x500
    3b3c:	0b0c      	movi.n	a11, 0
    3b3e:	a1c9      	s32i.n	a12, a1, 40
    3b40:	d123e2        	l32i	a14, a3, 0x344
    3b43:	71e9      	s32i.n	a14, a1, 28
    3b45:	5926d2        	l32i	a13, a6, 0x164
    3b48:	01d9      	s32i.n	a13, a1, 0
    3b4a:	de23c2        	l32i	a12, a3, 0x378
    3b4d:	11c9      	s32i.n	a12, a1, 4
    3b4f:	df2392        	l32i	a9, a3, 0x37c
    3b52:	2199      	s32i.n	a9, a1, 8
    3b54:	e22382        	l32i	a8, a3, 0x388
    3b57:	3189      	s32i.n	a8, a1, 12
    3b59:	031665        	excw
    3b5c:	02ca81        	l32r	a8, 0xfffc4684
    3b5f:	71f8      	l32i.n	a15, a1, 28
    3b61:	10ff80        	and	a15, a15, a8
    3b64:	d163f2        	s32i	a15, a3, 0x344
    3b67:	6122e2        	l32i	a14, a2, 0x184
    3b6a:	5966e2        	s32i	a14, a6, 0x164
    3b6d:	6222d2        	l32i	a13, a2, 0x188
    3b70:	de63d2        	s32i	a13, a3, 0x378
    3b73:	6322c2        	l32i	a12, a2, 0x18c
    3b76:	df63c2        	s32i	a12, a3, 0x37c
    3b79:	6422b2        	l32i	a11, a2, 0x190
    3b7c:	e263b2        	s32i	a11, a3, 0x388
    3b7f:	6522a2        	l32i	a10, a2, 0x194
    3b82:	642292        	l32i	a9, a2, 0x190
    3b85:	11aa00        	slli	a10, a10, 16
    3b88:	2099a0        	or	a9, a9, a10
    3b8b:	e26392        	s32i	a9, a3, 0x388
    3b8e:	462282        	l32i	a8, a2, 0x118
    3b91:	4422f2        	l32i	a15, a2, 0x110
    3b94:	51d8      	l32i.n	a13, a1, 20
    3b96:	118840        	slli	a8, a8, 12
    3b99:	11ffc0        	slli	a15, a15, 4
    3b9c:	20ff80        	or	a15, a15, a8
    3b9f:	c063f2        	s32i	a15, a3, 0x300
    3ba2:	3522e2        	l32i	a14, a2, 212
    3ba5:	81c8      	l32i.n	a12, a1, 32
    3ba7:	6188      	l32i.n	a8, a1, 24
    3ba9:	19fde3        	excw
    3bac:	c163d2        	s32i	a13, a3, 0x304
    3baf:	c263c2        	s32i	a12, a3, 0x308
    3bb2:	4722b2        	l32i	a11, a2, 0x11c
    3bb5:	4422a2        	l32i	a10, a2, 0x110
    3bb8:	91f8      	l32i.n	a15, a1, 36
    3bba:	11bb40        	slli	a11, a11, 12
    3bbd:	11aac0        	slli	a10, a10, 4
    3bc0:	20aab0        	or	a10, a10, a11
    3bc3:	c063a2        	s32i	a10, a3, 0x300
    3bc6:	352292        	l32i	a9, a2, 212
    3bc9:	0b0c      	movi.n	a11, 0
    3bcb:	00a1a2        	movi	a10, 0x100
    3bce:	19f893        	excw
    3bd1:	c16382        	s32i	a8, a3, 0x304
    3bd4:	c263f2        	s32i	a15, a3, 0x308
    3bd7:	030ea5        	excw
    3bda:	c1a8      	l32i.n	a10, a1, 48
    3bdc:	b1b8      	l32i.n	a11, a1, 44
    3bde:	a1c8      	l32i.n	a12, a1, 40
    3be0:	1e0c      	movi.n	a14, 1
    3be2:	21d8      	l32i.n	a13, a1, 8
    3be4:	11f8      	l32i.n	a15, a1, 4
    3be6:	0188      	l32i.n	a8, a1, 0
    3be8:	7198      	l32i.n	a9, a1, 28
    3bea:	d16392        	s32i	a9, a3, 0x344
    3bed:	032192        	l32i	a9, a1, 12
    3bf0:	596682        	s32i	a8, a6, 0x164
    3bf3:	de63f2        	s32i	a15, a3, 0x378
    3bf6:	df63d2        	s32i	a13, a3, 0x37c
    3bf9:	e26392        	s32i	a9, a3, 0x388
    3bfc:	3522d2        	l32i	a13, a2, 212
    3bff:	4422f2        	l32i	a15, a2, 0x110
    3c02:	d4da      	add.n	a13, a4, a13
    3c04:	aafa      	add.n	a10, a10, a15
    3c06:	4462a2        	s32i	a10, a2, 0x110
    3c09:	4c3a57        	bltu	a10, a5, 0x3c59
    3c0c:	3562d2        	s32i	a13, a2, 212
    3c0f:	0a0c      	movi.n	a10, 0
    3c11:	771b      	addi.n	a7, a7, 1
    3c13:	452292        	l32i	a9, a2, 0x114
    3c16:	462282        	l32i	a8, a2, 0x118
    3c19:	4722f2        	l32i	a15, a2, 0x11c
    3c1c:	040c      	movi.n	a4, 0
    3c1e:	446242        	s32i	a4, a2, 0x110
    3c21:	fbfa      	add.n	a15, a11, a15
    3c23:	8c8a      	add.n	a8, a12, a8
    3c25:	991b      	addi.n	a9, a9, 1
    3c27:	456292        	s32i	a9, a2, 0x114
    3c2a:	466282        	s32i	a8, a2, 0x118
    3c2d:	4762f2        	s32i	a15, a2, 0x11c
    3c30:	05bdb6        	bltui	a13, 16, 0x3c39
    3c33:	f0cd82        	addi	a8, a13, -16
    3c36:	356282        	s32i	a8, a2, 212
    3c39:	190c      	movi.n	a9, 1
    3c3b:	4199      	s32i.n	a9, a1, 16
    3c3d:	0217e6        	bgei	a7, 1, 0x3c43
    3c40:	ff9d06        	j	0x3ab8
    3c43:	000a06        	j	0x3c6f
    3c46:	da2b      	addi.n	a13, a10, 2
    3c48:	08b5d7        	bgeu	a5, a13, 0x3c54
    3c4b:	c045a0        	sub	a4, a5, a10
    3c4e:	1144f0        	slli	a4, a4, 1
    3c51:	ffa086        	j	0x3ad7
    3c54:	440c      	movi.n	a4, 4
    3c56:	ff9f46        	j	0x3ad7
    3c59:	3562d2        	s32i	a13, a2, 212
    3c5c:	4198      	l32i.n	a9, a1, 16
    3c5e:	771b      	addi.n	a7, a7, 1
    3c60:	05bdb6        	bltui	a13, 16, 0x3c69
    3c63:	f0cd82        	addi	a8, a13, -16
    3c66:	356282        	s32i	a8, a2, 212
    3c69:	02a797        	bge	a7, a9, 0x3c6f
    3c6c:	ff9206        	j	0x3ab8
    3c6f:	f01d      	excw
    3c71:	890c00        	excw
    3c74:	aacc      	bnez.n	a10, 0x3c82
    3c76:	0c1c      	movi.n	a12, 16
    3c78:	09bd      	mov.n	a11, a9
    3c7a:	8f0b      	addi.n	a8, a15, -1
    3c7c:	c08a80        	sub	a8, a10, a8
    3c7f:	e05856        	bnez	a8, 0x3a88
    3c82:	8b0c      	movi.n	a11, 8
    3c84:	0c1c      	movi.n	a12, 16
    3c86:	ff7f86        	j	0x3a88
    3c89:	c90c      	movi.n	a9, 12
    3c8b:	ff7906        	j	0x3a73
    3c8e:	490c      	movi.n	a9, 4
    3c90:	ff7b86        	j	0x3a82
    3c93:	413600        	srli	a3, a0, 6
    3c96:	228200        	excw
    3c99:	4e          	.byte 0x4e
    3c9a:	4f22c2        	l32i	a12, a2, 0x13c
    3c9d:	7b0c      	movi.n	a11, 7
    3c9f:	690c      	movi.n	a9, 6
    3ca1:	040c      	movi.n	a4, 0
    3ca3:	426242        	s32i	a4, a2, 0x108
    3ca6:	436242        	s32i	a4, a2, 0x10c
    3ca9:	446242        	s32i	a4, a2, 0x110
    3cac:	456242        	s32i	a4, a2, 0x114
    3caf:	356242        	s32i	a4, a2, 212
    3cb2:	336242        	s32i	a4, a2, 204
    3cb5:	346242        	s32i	a4, a2, 208
    3cb8:	406242        	s32i	a4, a2, 0x100
    3cbb:	3f6242        	s32i	a4, a2, 252
    3cbe:	939bc0        	movnez	a9, a11, a12
    3cc1:	416292        	s32i	a9, a2, 0x104
    3cc4:	488c      	beqz.n	a8, 0x3ccc
    3cc6:	fec9d2        	addi	a13, a9, -2
    3cc9:	4162d2        	s32i	a13, a2, 0x104
    3ccc:	476242        	s32i	a4, a2, 0x11c
    3ccf:	466242        	s32i	a4, a2, 0x118
    3cd2:	3e6242        	s32i	a4, a2, 248
    3cd5:	3d6242        	s32i	a4, a2, 244
    3cd8:	3a6242        	s32i	a4, a2, 232
    3cdb:	396242        	s32i	a4, a2, 228
    3cde:	386242        	s32i	a4, a2, 224
    3ce1:	02aed1        	l32r	a13, 0xfffc479c
    3ce4:	376242        	s32i	a4, a2, 220
    3ce7:	2b2262        	l32i	a6, a2, 172
    3cea:	d86d62        	s32i	a6, a13, 0x360
    3ced:	2c22f2        	l32i	a15, a2, 176
    3cf0:	d96df2        	s32i	a15, a13, 0x364
    3cf3:	2f22e2        	l32i	a14, a2, 188
    3cf6:	da6de2        	s32i	a14, a13, 0x368
    3cf9:	3022c2        	l32i	a12, a2, 192
    3cfc:	db6dc2        	s32i	a12, a13, 0x36c
    3cff:	3122b2        	l32i	a11, a2, 196
    3d02:	dc6db2        	s32i	a11, a13, 0x370
    3d05:	3222a2        	l32i	a10, a2, 200
    3d08:	dd6da2        	s32i	a10, a13, 0x374
    3d0b:	2d2282        	l32i	a8, a2, 180
    3d0e:	de6d82        	s32i	a8, a13, 0x378
    3d11:	2e2262        	l32i	a6, a2, 184
    3d14:	df6d62        	s32i	a6, a13, 0x37c
    3d17:	f2f8      	l32i.n	a15, a2, 60
    3d19:	e2e8      	l32i.n	a14, a2, 56
    3d1b:	01ffd0        	slli	a15, a15, 19
    3d1e:	11eed0        	slli	a14, a14, 3
    3d21:	20eef0        	or	a14, a14, a15
    3d24:	e06de2        	s32i	a14, a13, 0x380
    3d27:	1122c2        	l32i	a12, a2, 68
    3d2a:	1022a2        	l32i	a10, a2, 64
    3d2d:	8b0c      	movi.n	a11, 8
    3d2f:	01ccd0        	slli	a12, a12, 19
    3d32:	11aad0        	slli	a10, a10, 3
    3d35:	20aac0        	or	a10, a10, a12
    3d38:	e16da2        	s32i	a10, a13, 0x384
    3d3b:	112282        	l32i	a8, a2, 68
    3d3e:	1022f2        	l32i	a15, a2, 64
    3d41:	160c      	movi.n	a6, 1
    3d43:	0188d0        	slli	a8, a8, 19
    3d46:	11ffd0        	slli	a15, a15, 3
    3d49:	20ff80        	or	a15, a15, a8
    3d4c:	e26df2        	s32i	a15, a13, 0x388
    3d4f:	22e8      	l32i.n	a14, a2, 8
    3d51:	4222a2        	l32i	a10, a2, 0x108
    3d54:	a2f8      	l32i.n	a15, a2, 40
    3d56:	130e16        	beqz	a14, 0x3e8a
    3d59:	32b9      	s32i.n	a11, a2, 12
    3d5b:	5249      	s32i.n	a4, a2, 20
    3d5d:	046242        	s32i	a4, a2, 16
    3d60:	8a8b      	addi.n	a8, a10, 8
    3d62:	426282        	s32i	a8, a2, 0x108
    3d65:	0b38f7        	bltu	a8, a15, 0x3d74
    3d68:	432292        	l32i	a9, a2, 0x10c
    3d6b:	426242        	s32i	a4, a2, 0x108
    3d6e:	01c992        	addi	a9, a9, 1
    3d71:	436292        	s32i	a9, a2, 0x10c
    3d74:	2422a2        	l32i	a10, a2, 144
    3d77:	fecaa2        	addi	a10, a10, -2
    3d7a:	0fea16        	beqz	a10, 0x3e7c
    3d7d:	366242        	s32i	a4, a2, 216
    3d80:	486242        	s32i	a4, a2, 0x120
    3d83:	4a22a2        	l32i	a10, a2, 0x128
    3d86:	496242        	s32i	a4, a2, 0x124
    3d89:	0b0c      	movi.n	a11, 0
    3d8b:	ca1b      	addi.n	a12, a10, 1
    3d8d:	b3caa0        	movgez	a12, a10, a10
    3d90:	21c1c0        	srai	a12, a12, 1
    3d93:	02bfc7        	bgeu	a15, a12, 0x3d99
    3d96:	11aff0        	slli	a10, a15, 1
    3d99:	021ae6        	bgei	a10, 1, 0x3d9f
    3d9c:	003706        	j	0x3e7c
    3d9f:	2e0c      	movi.n	a14, 2
    3da1:	680c      	movi.n	a8, 6
    3da3:	04fd      	mov.n	a15, a4
    3da5:	08ff83        	excw
    3da8:	10ffe3        	excw
    3dab:	14ff63        	excw
    3dae:	c68076        	excw
    3db1:	5e2292        	l32i	a9, a2, 0x178
    3db4:	8c0c      	movi.n	a12, 8
    3db6:	09e916        	beqz	a9, 0x3e58
    3db9:	042ca7        	blt	a12, a10, 0x3dc1
    3dbc:	ca0b      	addi.n	a12, a10, -1
    3dbe:	000046        	j	0x3dc3
    3dc1:	7c0c      	movi.n	a12, 7
    3dc3:	f8caa2        	addi	a10, a10, -8
    3dc6:	3622e2        	l32i	a14, a2, 216
    3dc9:	119bc0        	slli	a9, a11, 4
    3dcc:	11bec0        	slli	a11, a14, 4
    3dcf:	0cf9b3        	excw
    3dd2:	18f963        	excw
    3dd5:	c06d92        	s32i	a9, a13, 0x300
    3dd8:	4b2282        	l32i	a8, a2, 0x12c
    3ddb:	1e0c      	movi.n	a14, 1
    3ddd:	342292        	l32i	a9, a2, 208
    3de0:	418180        	srli	a8, a8, 1
    3de3:	881b      	addi.n	a8, a8, 1
    3de5:	1188c0        	slli	a8, a8, 4
    3de8:	08f8c3        	excw
    3deb:	18f863        	excw
    3dee:	19f893        	excw
    3df1:	c16d82        	s32i	a8, a13, 0x304
    3df4:	1422b2        	l32i	a11, a2, 80
    3df7:	4b2292        	l32i	a9, a2, 0x12c
    3dfa:	0f8d      	mov.n	a8, a15
    3dfc:	93beb0        	movnez	a11, a14, a11
    3dff:	419190        	srli	a9, a9, 1
    3e02:	1199c0        	slli	a9, a9, 4
    3e05:	15f8b3        	excw
    3e08:	ec1b      	addi.n	a14, a12, 1
    3e0a:	21e1e0        	srai	a14, a14, 1
    3e0d:	16f863        	excw
    3e10:	17f863        	excw
    3e13:	18f893        	excw
    3e16:	c26d82        	s32i	a8, a13, 0x308
    3e19:	342282        	l32i	a8, a2, 208
    3e1c:	4822b2        	l32i	a11, a2, 0x120
    3e1f:	a298      	l32i.n	a9, a2, 40
    3e21:	cc8a      	add.n	a12, a12, a8
    3e23:	bbea      	add.n	a11, a11, a14
    3e25:	4862b2        	s32i	a11, a2, 0x120
    3e28:	4c22e2        	l32i	a14, a2, 0x130
    3e2b:	cc1b      	addi.n	a12, a12, 1
    3e2d:	3462c2        	s32i	a12, a2, 208
    3e30:	11eef0        	slli	a14, a14, 1
    3e33:	053ce7        	bltu	a12, a14, 0x3e3c
    3e36:	c08ce0        	sub	a8, a12, a14
    3e39:	346282        	s32i	a8, a2, 208
    3e3c:	353b97        	bltu	a11, a9, 0x3e75
    3e3f:	4b22b2        	l32i	a11, a2, 0x12c
    3e42:	4922c2        	l32i	a12, a2, 0x124
    3e45:	41b1b0        	srli	a11, a11, 1
    3e48:	cc1b      	addi.n	a12, a12, 1
    3e4a:	4962c2        	s32i	a12, a2, 0x124
    3e4d:	173bc7        	bltu	a11, a12, 0x3e68
    3e50:	366242        	s32i	a4, a2, 216
    3e53:	000646        	j	0x3e70
    3e56:	e60000        	excw
    3e59:	045a      	add.n	a0, a4, a5
    3e5b:	ca0b      	addi.n	a12, a10, -1
    3e5d:	000046        	j	0x3e62
    3e60:	3c0c      	movi.n	a12, 3
    3e62:	fccaa2        	addi	a10, a10, -4
    3e65:	ffd746        	j	0x3dc6
    3e68:	3622e2        	l32i	a14, a2, 216
    3e6b:	ee1b      	addi.n	a14, a14, 1
    3e6d:	3662e2        	s32i	a14, a2, 216
    3e70:	486242        	s32i	a4, a2, 0x120
    3e73:	0b0c      	movi.n	a11, 0
    3e75:	031aa6        	blti	a10, 1, 0x3e7c
    3e78:	ffcc86        	j	0x3dae
    3e7b:	bca100        	excw
    3e7e:	a0b202        	excw
    3e81:	e3e564        	excw
    3e84:	f01d02        	l16ui	a0, a13, 0x1e0
    3e87:	000000        	ill
    3e8a:	8c0c      	movi.n	a12, 8
    3e8c:	02cbe1        	l32r	a14, 0xfffc49b8
    3e8f:	071c      	movi.n	a7, 16
    3e91:	10fb63        	excw
    3e94:	14fb63        	excw
    3e97:	0b5d      	mov.n	a5, a11
    3e99:	878076        	excw
    3e9c:	5d2282        	l32i	a8, a2, 0x174
    3e9f:	073d      	mov.n	a3, a7
    3ea1:	9a4b      	addi.n	a9, a10, 4
    3ea3:	081816        	beqz	a8, 0x3f28
    3ea6:	07bf97        	bgeu	a15, a9, 0x3eb1
    3ea9:	c0bfa0        	sub	a11, a15, a10
    3eac:	0000c6        	j	0x3eb3
    3eaf:	0c0000        	excw
    3eb2:	f24b      	addi.n	a15, a2, 4
    3eb4:	c04322        	s8i	a2, a3, 192
    3eb7:	118a      	add.n	a1, a1, a8
    3eb9:	119bf0        	slli	a9, a11, 1
    3ebc:	2b22a2        	l32i	a10, a2, 172
    3ebf:	990b      	addi.n	a9, a9, -1
    3ec1:	11ff00        	slli	a15, a15, 16
    3ec4:	74a0a0        	extui	a10, a10, 0, 8
    3ec7:	aa8a      	add.n	a10, a10, a8
    3ec9:	20aaf0        	or	a10, a10, a15
    3ecc:	20aae0        	or	a10, a10, a14
    3ecf:	c06da2        	s32i	a10, a13, 0x300
    3ed2:	332282        	l32i	a8, a2, 204
    3ed5:	08f393        	excw
    3ed8:	18f363        	excw
    3edb:	19f383        	excw
    3ede:	c16d32        	s32i	a3, a13, 0x304
    3ee1:	c26d52        	s32i	a5, a13, 0x308
    3ee4:	3b22f2        	l32i	a15, a2, 236
    3ee7:	332232        	l32i	a3, a2, 204
    3eea:	4222a2        	l32i	a10, a2, 0x108
    3eed:	11fff0        	slli	a15, a15, 1
    3ef0:	903b30        	addx2	a3, a11, a3
    3ef3:	abaa      	add.n	a10, a11, a10
    3ef5:	4262a2        	s32i	a10, a2, 0x108
    3ef8:	336232        	s32i	a3, a2, 204
    3efb:	0533f7        	bltu	a3, a15, 0x3f04
    3efe:	c083f0        	sub	a8, a3, a15
    3f01:	336282        	s32i	a8, a2, 204
    3f04:	a2f8      	l32i.n	a15, a2, 40
    3f06:	c0ccb0        	sub	a12, a12, a11
    3f09:	0c3af7        	bltu	a10, a15, 0x3f19
    3f0c:	432292        	l32i	a9, a2, 0x10c
    3f0f:	426242        	s32i	a4, a2, 0x108
    3f12:	0a0c      	movi.n	a10, 0
    3f14:	991b      	addi.n	a9, a9, 1
    3f16:	436292        	s32i	a9, a2, 0x10c
    3f19:	83c4a0        	moveqz	a12, a4, a10
    3f1c:	021ce6        	bgei	a12, 1, 0x3f22
    3f1f:	ff9446        	j	0x3d74
    3f22:	f03d      	nop.n
    3f24:	ffdc46        	j	0x3e99
    3f27:	ba2b00        	excw
    3f2a:	06bfb7        	bgeu	a15, a11, 0x3f34
    3f2d:	c0bfa0        	sub	a11, a15, a10
    3f30:	ffdfc6        	j	0x3eb3
    3f33:	2b0c00        	excw
    3f36:	ffde46        	j	0x3eb3
    3f39:	000000        	ill
    3f3c:	006136        	excw
    3f3f:	17d292        	addmi	a9, a2, 0x1700
    3f42:	382922        	l32i	a2, a9, 224
    3f45:	4e2282        	l32i	a8, a2, 0x138
    3f48:	4f22f2        	l32i	a15, a2, 0x13c
    3f4b:	07d816        	beqz	a8, 0x3fcc
    3f4e:	230c      	movi.n	a3, 2
    3f50:	02bca1        	l32r	a10, 0xfffc4a40
    3f53:	64a0b2        	movi	a11, 100
    3f56:	02d6a5        	excw
    3f59:	02a991        	l32r	a9, 0xfffc4a00
    3f5c:	eb6932        	s32i	a3, a9, 0x3ac
    3f5f:	086416        	beqz	a4, 0x3fe9
    3f62:	402292        	l32i	a9, a2, 0x100
    3f65:	087916        	beqz	a9, 0x3ff0
    3f68:	a90b      	addi.n	a10, a9, -1
    3f6a:	4062a2        	s32i	a10, a2, 0x100
    3f6d:	3f2292        	l32i	a9, a2, 252
    3f70:	08c916        	beqz	a9, 0x4000
    3f73:	b90b      	addi.n	a11, a9, -1
    3f75:	3f62b2        	s32i	a11, a2, 252
    3f78:	412292        	l32i	a9, a2, 0x104
    3f7b:	091916        	beqz	a9, 0x4010
    3f7e:	c90b      	addi.n	a12, a9, -1
    3f80:	4162c2        	s32i	a12, a2, 0x104
    3f83:	a2e8      	l32i.n	a14, a2, 40
    3f85:	72d8      	l32i.n	a13, a2, 28
    3f87:	0b0c      	movi.n	a11, 0
    3f89:	ee0b      	addi.n	a14, a14, -1
    3f8b:	2a9de7        	bne	a13, a14, 0x3fb9
    3f8e:	72b9      	s32i.n	a11, a2, 28
    3f90:	3c22c2        	l32i	a12, a2, 240
    3f93:	3a22a2        	l32i	a10, a2, 232
    3f96:	3922f2        	l32i	a15, a2, 228
    3f99:	3b2282        	l32i	a8, a2, 236
    3f9c:	aa1b      	addi.n	a10, a10, 1
    3f9e:	01cff2        	addi	a15, a15, 1
    3fa1:	3962f2        	s32i	a15, a2, 228
    3fa4:	3a62a2        	s32i	a10, a2, 232
    3fa7:	023f87        	bltu	a15, a8, 0x3fad
    3faa:	3962b2        	s32i	a11, a2, 228
    3fad:	62d8      	l32i.n	a13, a2, 24
    3faf:	023ac7        	bltu	a10, a12, 0x3fb5
    3fb2:	3a62b2        	s32i	a11, a2, 232
    3fb5:	dd1b      	addi.n	a13, a13, 1
    3fb7:	62d9      	s32i.n	a13, a2, 24
    3fb9:	12e8      	l32i.n	a14, a2, 4
    3fbb:	ee1b      	addi.n	a14, a14, 1
    3fbd:	12e9      	s32i.n	a14, a2, 4
    3fbf:	02bca1        	l32r	a10, 0xfffc4ab0
    3fc2:	64a0b2        	movi	a11, 100
    3fc5:	02cfa5        	excw
    3fc8:	f01d      	excw
    3fca:	160000        	excw
    3fcd:	ef          	.byte 0xef
    3fce:	b356f7        	bbc	a6, a15, 0x3f85
    3fd1:	1238f7        	bltu	a8, a15, 0x3fe7
    3fd4:	09a182        	movi	a8, 0x109
    3fd7:	02bd91        	l32r	a9, 0xfffc4acc
    3fda:	343030        	extui	a3, a3, 0, 4
    3fdd:	113300        	slli	a3, a3, 16
    3fe0:	103390        	and	a3, a3, a9
    3fe3:	203380        	or	a3, a3, a8
    3fe6:	ffd986        	j	0x3f50
    3fe9:	f22982        	l32i	a8, a9, 0x3c8
    3fec:	fff3c6        	j	0x3fbf
    3fef:	02ad00        	excw
    3ff2:	ff7fa5        	excw
    3ff5:	402292        	l32i	a9, a2, 0x100
    3ff8:	990b      	addi.n	a9, a9, -1
    3ffa:	406292        	s32i	a9, a2, 0x100
    3ffd:	ffdb06        	j	0x3f6d
    4000:	02ad      	mov.n	a10, a2
    4002:	ff9365        	excw
    4005:	3f22a2        	l32i	a10, a2, 252
    4008:	aa0b      	addi.n	a10, a10, -1
    400a:	3f62a2        	s32i	a10, a2, 252
    400d:	ffd9c6        	j	0x3f78
    4010:	02ad      	mov.n	a10, a2
    4012:	ffa325        	excw
    4015:	4122b2        	l32i	a11, a2, 0x104
    4018:	bb0b      	addi.n	a11, a11, -1
    401a:	4162b2        	s32i	a11, a2, 0x104
    401d:	ffd886        	j	0x3f83
    4020:	004136        	excw
    4023:	0a4c      	movi.n	a10, 64
    4025:	fc7465        	excw
    4028:	024e91        	l32r	a9, 0xfffc4960
    402b:	c329a2        	l32i	a10, a9, 0x30c
    402e:	1b0c      	movi.n	a11, 1
    4030:	156a07        	bbci	a10, 0, 0x4049
    4033:	c369b2        	s32i	a11, a9, 0x30c
    4036:	058076        	excw
    4039:	c32982        	l32i	a8, a9, 0x30c
    403c:	026807        	bbci	a8, 0, 0x4042
    403f:	fffcc6        	j	0x4036
    4042:	0a4c      	movi.n	a10, 64
    4044:	fc70e5        	excw
    4047:	f01d      	excw
    4049:	2b0c      	movi.n	a11, 2
    404b:	0e6a17        	bbci	a10, 1, 0x405d
    404e:	c369b2        	s32i	a11, a9, 0x30c
    4051:	058076        	excw
    4054:	c329a2        	l32i	a10, a9, 0x30c
    4057:	e76a17        	bbci	a10, 1, 0x4042
    405a:	fffcc6        	j	0x4051
    405d:	4c0c      	movi.n	a12, 4
    405f:	c369c2        	s32i	a12, a9, 0x30c
    4062:	c329b2        	l32i	a11, a9, 0x30c
    4065:	058076        	excw
    4068:	c329d2        	l32i	a13, a9, 0x30c
    406b:	d36d27        	bbci	a13, 2, 0x4042
    406e:	fffcc6        	j	0x4065
    4071:	000000        	ill
    4074:	004136        	excw
    4077:	02cca1        	l32r	a10, 0xfffc4ba8
    407a:	fc6f25        	excw
    407d:	024ed1        	l32r	a13, 0xfffc49b8
    4080:	02cdb1        	l32r	a11, 0xfffc4bb4
    4083:	024cc1        	l32r	a12, 0xfffc49b4
    4086:	c36dc2        	s32i	a12, a13, 0x30c
    4089:	b2ba      	add.n	a11, a2, a11
    408b:	7f2b82        	l32i	a8, a11, 0x1fc
    408e:	02a9a1        	l32r	a10, 0xfffc4b34
    4091:	090c      	movi.n	a9, 0
    4093:	f5c8c2        	addi	a12, a8, -11
    4096:	8389c0        	moveqz	a8, a9, a12
    4099:	7f6b82        	s32i	a8, a11, 0x1fc
    409c:	68cc      	bnez.n	a8, 0x40a6
    409e:	5c22e2        	l32i	a14, a2, 0x170
    40a1:	152ee2        	l32i	a14, a14, 84
    40a4:	4e9c      	beqz.n	a14, 0x40bc
    40a6:	480c      	movi.n	a8, 4
    40a8:	816a82        	s32i	a8, a10, 0x204
    40ab:	7f2bf2        	l32i	a15, a11, 0x1fc
    40ae:	02cca1        	l32r	a10, 0xfffc4be0
    40b1:	ff1b      	addi.n	a15, a15, 1
    40b3:	7f6bf2        	s32i	a15, a11, 0x1fc
    40b6:	fc69e5        	excw
    40b9:	f01d      	excw
    40bb:	b89100        	excw
    40be:	a3d202        	addmi	a0, a2, 0xffffa300
    40c1:	29c284        	excw
    40c4:	2992d0        	excw
    40c7:	cf          	.byte 0xcf
    40c8:	a66a92        	s32i	a9, a10, 0x298
    40cb:	a82ae2        	l32i	a14, a10, 0x2a0
    40ce:	04f0c0        	extui	a15, a12, 0, 1
    40d1:	d9da      	add.n	a13, a9, a13
    40d3:	20eef0        	or	a14, a14, a15
    40d6:	a86ae2        	s32i	a14, a10, 0x2a0
    40d9:	02bbe1        	l32r	a14, 0xfffc4bc8
    40dc:	01bd97        	bgeu	a13, a9, 0x40e1
    40df:	cc1b      	addi.n	a12, a12, 1
    40e1:	106ec2        	s32i	a12, a14, 64
    40e4:	fed9      	s32i.n	a13, a14, 60
    40e6:	ffef06        	j	0x40a6
    40e9:	000000        	ill
    40ec:	004136        	excw
    40ef:	0252a1        	l32r	a10, 0xfffc4a38
    40f2:	fc67a5        	excw
    40f5:	024e91        	l32r	a9, 0xfffc4a30
    40f8:	0243b1        	l32r	a11, 0xfffc4a04
    40fb:	02cec1        	l32r	a12, 0xfffc4c34
    40fe:	c369c2        	s32i	a12, a9, 0x30c
    4101:	b42ba2        	l32i	a10, a11, 0x2d0
    4104:	aa1b      	addi.n	a10, a10, 1
    4106:	b46ba2        	s32i	a10, a11, 0x2d0
    4109:	c32982        	l32i	a8, a9, 0x30c
    410c:	f03d      	nop.n
    410e:	0b7857        	bbci	a8, 21, 0x411d
    4111:	058076        	excw
    4114:	c329d2        	l32i	a13, a9, 0x30c
    4117:	027d57        	bbci	a13, 21, 0x411d
    411a:	fffcc6        	j	0x4111
    411d:	0252a1        	l32r	a10, 0xfffc4a68
    4120:	fc64a5        	excw
    4123:	f01d      	excw
    4125:	000000        	ill
    4128:	006136        	excw
    412b:	0251a1        	l32r	a10, 0xfffc4a70
    412e:	030c      	movi.n	a3, 0
    4130:	0139      	s32i.n	a3, a1, 0
    4132:	fc63a5        	excw
    4135:	02a9e1        	l32r	a14, 0xfffc4bdc
    4138:	02aa91        	l32r	a9, 0xfffc4be0
    413b:	3f2eb2        	l32i	a11, a14, 252
    413e:	01b9      	s32i.n	a11, a1, 0
    4140:	0188      	l32i.n	a8, a1, 0
    4142:	0243a1        	l32r	a10, 0xfffc4a50
    4145:	0252b1        	l32r	a11, 0xfffc4a90
    4148:	108890        	and	a8, a8, a9
    414b:	3f6e82        	s32i	a8, a14, 252
    414e:	c86ab2        	s32i	a11, a10, 0x320
    4151:	058076        	excw
    4154:	c82ac2        	l32i	a12, a10, 0x320
    4157:	028cb7        	bany	a12, a11, 0x415d
    415a:	fffcc6        	j	0x4151
    415d:	02cfb1        	l32r	a11, 0xfffc4c9c
    4160:	190c      	movi.n	a9, 1
    4162:	b2ba      	add.n	a11, a2, a11
    4164:	0b99      	s32i.n	a9, a11, 0
    4166:	a288      	l32i.n	a8, a2, 40
    4168:	fda0c2        	movi	a12, 253
    416b:	024e91        	l32r	a9, 0xfffc4aa4
    416e:	19d882        	addmi	a8, a8, 0x1900
    4171:	252882        	l32i	a8, a8, 148
    4174:	02d0f1        	l32r	a15, 0xfffc4cb4
    4177:	c369f2        	s32i	a15, a9, 0x30c
    417a:	5008f2        	l8ui	a15, a8, 80
    417d:	2b0c      	movi.n	a11, 2
    417f:	c329d2        	l32i	a13, a9, 0x30c
    4182:	10ffc0        	and	a15, a15, a12
    4185:	20ffb0        	or	a15, a15, a11
    4188:	5048f2        	s8i	a15, a8, 80
    418b:	c329d2        	l32i	a13, a9, 0x30c
    418e:	0b6dd7        	bbci	a13, 13, 0x419d
    4191:	058076        	excw
    4194:	c329c2        	l32i	a12, a9, 0x30c
    4197:	026cd7        	bbci	a12, 13, 0x419d
    419a:	fffcc6        	j	0x4191
    419d:	02ae91        	l32r	a9, 0xfffc4c58
    41a0:	f03d      	nop.n
    41a2:	048076        	excw
    41a5:	1a29d2        	l32i	a13, a9, 104
    41a8:	1d8c      	beqz.n	a13, 0x41ad
    41aa:	fffc86        	j	0x41a0
    41ad:	c86a32        	s32i	a3, a10, 0x320
    41b0:	0251a1        	l32r	a10, 0xfffc4af4
    41b3:	0021f2        	l32i	a15, a1, 0
    41b6:	3f6ef2        	s32i	a15, a14, 252
    41b9:	fc59a5        	excw
    41bc:	f01d      	excw
    41be:	360000        	excw
    41c1:	a10041        	l32r	a4, 0xfffec5c4
    41c4:	024c      	movi.n	a2, 64
    41c6:	fc5a65        	excw
    41c9:	02a981        	l32r	a8, 0xfffc4c70
    41cc:	02d1a1        	l32r	a10, 0xfffc4d10
    41cf:	1e2882        	l32i	a8, a8, 120
    41d2:	024e91        	l32r	a9, 0xfffc4b0c
    41d5:	a2aa      	add.n	a10, a2, a10
    41d7:	258d80        	extui	a8, a8, 29, 3
    41da:	0c68b6        	bltui	a8, 6, 0x41ea
    41dd:	1b0c      	movi.n	a11, 1
    41df:	0c0c      	movi.n	a12, 0
    41e1:	7f6ac2        	s32i	a12, a10, 0x1fc
    41e4:	cb69b2        	s32i	a11, a9, 0x32c
    41e7:	000106        	j	0x41ef
    41ea:	1d1c      	movi.n	a13, 17
    41ec:	7f6ad2        	s32i	a13, a10, 0x1fc
    41ef:	02d2f1        	l32r	a15, 0xfffc4d38
    41f2:	c369f2        	s32i	a15, a9, 0x30c
    41f5:	c329e2        	l32i	a14, a9, 0x30c
    41f8:	f03d      	nop.n
    41fa:	0b7e77        	bbci	a14, 23, 0x4209
    41fd:	058076        	excw
    4200:	c32982        	l32i	a8, a9, 0x30c
    4203:	027877        	bbci	a8, 23, 0x4209
    4206:	fffcc6        	j	0x41fd
    4209:	024ca1        	l32r	a10, 0xfffc4b3c
    420c:	fc5465        	excw
    420f:	f01d      	excw
    4211:	000000        	ill
    4214:	004136        	excw
    4217:	024da1        	l32r	a10, 0xfffc4b4c
    421a:	fc5525        	excw
    421d:	024eb1        	l32r	a11, 0xfffc4b58
    4220:	c52b92        	l32i	a9, a11, 0x314
    4223:	024b81        	l32r	a8, 0xfffc4b50
    4226:	c56b82        	s32i	a8, a11, 0x314
    4229:	2f7947        	bbci	a9, 20, 0x425c
    422c:	4298      	l32i.n	a9, a2, 16
    422e:	b98c      	beqz.n	a9, 0x423d
    4230:	02d3c1        	l32r	a12, 0xfffc4d7c
    4233:	c2ca      	add.n	a12, a2, a12
    4235:	7f2ca2        	l32i	a10, a12, 0x1fc
    4238:	aa1b      	addi.n	a10, a10, 1
    423a:	7f6ca2        	s32i	a10, a12, 0x1fc
    423d:	c52bd2        	l32i	a13, a11, 0x314
    4240:	02d491        	l32r	a9, 0xfffc4d90
    4243:	0d09d7        	bnone	a9, a13, 0x4254
    4246:	058076        	excw
    4249:	c52be2        	l32i	a14, a11, 0x314
    424c:	040e97        	bnone	a14, a9, 0x4254
    424f:	fffcc6        	j	0x4246
    4252:	a10000        	sll	a0, a0
    4255:	024d      	mov.n	a4, a2
    4257:	fc4fe5        	excw
    425a:	f01d      	excw
    425c:	dd7927        	bbci	a9, 18, 0x423d
    425f:	02a9c1        	l32r	a12, 0xfffc4d04
    4262:	ba2c82        	l32i	a8, a12, 0x2e8
    4265:	348180        	extui	a8, a8, 1, 4
    4268:	f03d      	nop.n
    426a:	029876        	excw
    426d:	b72c82        	l32i	a8, a12, 0x2dc
    4270:	02b4a1        	l32r	a10, 0xfffc4d40
    4273:	024dd1        	l32r	a13, 0xfffc4ba8
    4276:	c56bd2        	s32i	a13, a11, 0x314
    4279:	c36ba2        	s32i	a10, a11, 0x30c
    427c:	ba2c92        	l32i	a9, a12, 0x2e8
    427f:	ffee86        	j	0x423d
    4282:	360000        	excw
    4285:	a20041        	l32r	a4, 0xfffeca88
    4288:	2580a0        	extui	a8, a10, 16, 3
    428b:	4e          	.byte 0x4e
    428c:	91fc      	bnez.n	a1, 0x42c9
    428e:	4e          	.byte 0x4e
    428f:	d5c102        	addi	a0, a1, -43
    4292:	29b202        	excw
    4295:	0a1cd3        	excw
    4298:	c2ca      	add.n	a12, a2, a12
    429a:	04b0b0        	extui	a11, a11, 0, 1
    429d:	006cb2        	s32i	a11, a12, 0
    42a0:	c369a2        	s32i	a10, a9, 0x30c
    42a3:	c32982        	l32i	a8, a9, 0x30c
    42a6:	0b6847        	bbci	a8, 4, 0x42b5
    42a9:	058076        	excw
    42ac:	c329d2        	l32i	a13, a9, 0x30c
    42af:	026d47        	bbci	a13, 4, 0x42b5
    42b2:	fffcc6        	j	0x42a9
    42b5:	f01d      	excw
    42b7:	613600        	excw
    42ba:	223200        	excw
    42bd:	a10a      	add.n	a10, a1, a0
    42bf:	0258      	l32i.n	a5, a2, 0
    42c1:	fc4aa5        	excw
    42c4:	0243a1        	l32r	a10, 0xfffc4bd0
    42c7:	02d691        	l32r	a9, 0xfffc4e20
    42ca:	b62aa2        	l32i	a10, a10, 0x2d8
    42cd:	01a9      	s32i.n	a10, a1, 0
    42cf:	0188      	l32i.n	a8, a1, 0
    42d1:	929a      	add.n	a9, a2, a9
    42d3:	1a0c      	movi.n	a10, 1
    42d5:	056807        	bbci	a8, 0, 0x42de
    42d8:	7f69a2        	s32i	a10, a9, 0x1fc
    42db:	000106        	j	0x42e3
    42de:	0b0c      	movi.n	a11, 0
    42e0:	7f69b2        	s32i	a11, a9, 0x1fc
    42e3:	024e91        	l32r	a9, 0xfffc4c1c
    42e6:	1dd3e2        	addmi	a14, a3, 0x1d00
    42e9:	3b6ea2        	s32i	a10, a14, 236
    42ec:	c329d2        	l32i	a13, a9, 0x30c
    42ef:	11d9      	s32i.n	a13, a1, 4
    42f1:	0121c2        	l32i	a12, a1, 4
    42f4:	02aba1        	l32r	a10, 0xfffc4da0
    42f7:	137c37        	bbci	a12, 19, 0x430e
    42fa:	c369a2        	s32i	a10, a9, 0x30c
    42fd:	098076        	excw
    4300:	c32982        	l32i	a8, a9, 0x30c
    4303:	0189      	s32i.n	a8, a1, 0
    4305:	01f8      	l32i.n	a15, a1, 0
    4307:	037f37        	bbci	a15, 19, 0x430e
    430a:	fffbc6        	j	0x42fd
    430d:	11b800        	slli	a11, a8, 16
    4310:	024ba1        	l32r	a10, 0xfffc4c3c
    4313:	127b47        	bbci	a11, 20, 0x4329
    4316:	c369a2        	s32i	a10, a9, 0x30c
    4319:	098076        	excw
    431c:	c329d2        	l32i	a13, a9, 0x30c
    431f:	01d9      	s32i.n	a13, a1, 0
    4321:	01c8      	l32i.n	a12, a1, 0
    4323:	027c47        	bbci	a12, 20, 0x4329
    4326:	fffbc6        	j	0x4319
    4329:	0258a1        	l32r	a10, 0xfffc4c8c
    432c:	fc4265        	excw
    432f:	f01d      	excw
    4331:	000000        	ill
    4334:	004136        	excw
    4337:	f30c      	movi.n	a3, 15
    4339:	090327        	bnone	a3, a2, 0x4346
    433c:	412420        	srli	a2, a2, 4
    433f:	221b      	addi.n	a2, a2, 1
    4341:	1122c0        	slli	a2, a2, 4
    4344:	f01d      	excw
    4346:	f01d      	excw
    4348:	004136        	excw
    434b:	02d741        	l32r	a4, 0xfffc4ea8
    434e:	825230        	mull	a5, a2, a3
    4351:	02d881        	l32r	a8, 0xfffc4eb4
    4354:	1125e0        	slli	a2, a5, 2
    4357:	05b427        	bgeu	a4, a2, 0x4360
    435a:	228a      	add.n	a2, a2, a8
    435c:	f01d      	excw
    435e:	210000        	srai	a0, a0, 0
    4361:	02d9      	s32i.n	a13, a2, 0
    4363:	f01d      	excw
    4365:	000000        	ill
    4368:	004136        	excw
    436b:	02da21        	l32r	a2, 0xfffc4ed4
    436e:	f01d      	excw
    4370:	004136        	excw
    4373:	0245b1        	l32r	a11, 0xfffc4c88
    4376:	8238      	l32i.n	a3, a2, 32
    4378:	0bb8      	l32i.n	a11, a11, 0
    437a:	20a330        	or	a10, a3, a3
    437d:	0760e5        	excw
    4380:	02dbc1        	l32r	a12, 0xfffc4eec
    4383:	2ca2e2        	movi	a14, 0x22c
    4386:	a4a3d2        	movi	a13, 0x3a4
    4389:	cca1f2        	movi	a15, 0x1cc
    438c:	64a182        	movi	a8, 0x164
    438f:	38a192        	movi	a9, 0x138
    4392:	c4a0b2        	movi	a11, 196
    4395:	30a1a2        	movi	a10, 0x130
    4398:	a2aa      	add.n	a10, a2, a10
    439a:	b2ba      	add.n	a11, a2, a11
    439c:	929a      	add.n	a9, a2, a9
    439e:	828a      	add.n	a8, a2, a8
    43a0:	f2fa      	add.n	a15, a2, a15
    43a2:	d3da      	add.n	a13, a3, a13
    43a4:	e2ea      	add.n	a14, a2, a14
    43a6:	e863d2        	s32i	a13, a3, 0x3a0
    43a9:	17d3d2        	addmi	a13, a3, 0x1700
    43ac:	c3ca      	add.n	a12, a3, a12
    43ae:	386dc2        	s32i	a12, a13, 224
    43b1:	74a2d2        	movi	a13, 0x274
    43b4:	8ca4c2        	movi	a12, 0x48c
    43b7:	53e9      	s32i.n	a14, a3, 20
    43b9:	43f9      	s32i.n	a15, a3, 16
    43bb:	3389      	s32i.n	a8, a3, 12
    43bd:	2399      	s32i.n	a9, a3, 8
    43bf:	03b9      	s32i.n	a11, a3, 0
    43c1:	13a9      	s32i.n	a10, a3, 4
    43c3:	98a5b2        	movi	a11, 0x598
    43c6:	d8a5a2        	movi	a10, 0x5d8
    43c9:	20a692        	movi	a9, 0x620
    43cc:	28a682        	movi	a8, 0x628
    43cf:	98a7f2        	movi	a15, 0x798
    43d2:	74a1e2        	movi	a14, 0x174
    43d5:	c2ca      	add.n	a12, a2, a12
    43d7:	d2da      	add.n	a13, a2, a13
    43d9:	63d9      	s32i.n	a13, a3, 24
    43db:	73c9      	s32i.n	a12, a3, 28
    43dd:	e3ea      	add.n	a14, a3, a14
    43df:	f2fa      	add.n	a15, a2, a15
    43e1:	828a      	add.n	a8, a2, a8
    43e3:	929a      	add.n	a9, a2, a9
    43e5:	a2aa      	add.n	a10, a2, a10
    43e7:	b2ba      	add.n	a11, a2, a11
    43e9:	83b9      	s32i.n	a11, a3, 32
    43eb:	93a9      	s32i.n	a10, a3, 36
    43ed:	a399      	s32i.n	a9, a3, 40
    43ef:	b389      	s32i.n	a8, a3, 44
    43f1:	c3f9      	s32i.n	a15, a3, 48
    43f3:	5c63e2        	s32i	a14, a3, 0x170
    43f6:	60a1c2        	movi	a12, 0x160
    43f9:	38c3d2        	addi	a13, a3, 56
    43fc:	d3d9      	s32i.n	a13, a3, 52
    43fe:	c3ca      	add.n	a12, a3, a12
    4400:	5763c2        	s32i	a12, a3, 0x15c
    4403:	f01d      	excw
    4405:	000000        	ill
    4408:	006136        	excw
    440b:	03bd      	mov.n	a11, a3
    440d:	20a110        	or	a10, a1, a1
    4410:	08a0c2        	movi	a12, 8
    4413:	075b25        	excw
    4416:	11a8      	l32i.n	a10, a1, 4
    4418:	01b8      	l32i.n	a11, a1, 0
    441a:	02dcc1        	l32r	a12, 0xfffc4f8c
    441d:	fdb4a5        	excw
    4420:	024a81        	l32r	a8, 0xfffc4d48
    4423:	1362a2        	s32i	a10, a2, 76
    4426:	592882        	l32i	a8, a8, 0x164
    4429:	126282        	s32i	a8, a2, 72
    442c:	f01d      	excw
    442e:	360000        	excw
    4431:	ad0061        	l32r	a6, 0xfffef834
    4434:	03bd01        	l32r	a0, 0xfffc5328
    4437:	8238      	l32i.n	a3, a2, 32
    4439:	cc0c      	movi.n	a12, 12
    443b:	0758a5        	excw
    443e:	d398      	l32i.n	a9, a3, 52
    4440:	02ddc1        	l32r	a12, 0xfffc4fb4
    4443:	2188      	l32i.n	a8, a1, 8
    4445:	8989      	s32i.n	a8, a9, 32
    4447:	11a8      	l32i.n	a10, a1, 4
    4449:	01b8      	l32i.n	a11, a1, 0
    444b:	fdb1e5        	excw
    444e:	d3b8      	l32i.n	a11, a3, 52
    4450:	024a31        	l32r	a3, 0xfffc4d78
    4453:	6c0c      	movi.n	a12, 6
    4455:	5ba9      	s32i.n	a10, a11, 20
    4457:	5a23a2        	l32i	a10, a3, 0x168
    445a:	b2a9      	s32i.n	a10, a2, 44
    445c:	11a8      	l32i.n	a10, a1, 4
    445e:	0021b2        	l32i	a11, a1, 0
    4461:	fdb1e5        	excw
    4464:	d2a9      	s32i.n	a10, a2, 52
    4466:	5523c2        	l32i	a12, a3, 0x154
    4469:	c2c9      	s32i.n	a12, a2, 48
    446b:	f01d      	excw
    446d:	000000        	ill
    4470:	006136        	excw
    4473:	01ad      	mov.n	a10, a1
    4475:	03bd      	mov.n	a11, a3
    4477:	cc0c      	movi.n	a12, 12
    4479:	8238      	l32i.n	a3, a2, 32
    447b:	0754a5        	excw
    447e:	11a8      	l32i.n	a10, a1, 4
    4480:	01b8      	l32i.n	a11, a1, 0
    4482:	04a0c2        	movi	a12, 4
    4485:	fdafa5        	excw
    4488:	1b62a2        	s32i	a10, a2, 108
    448b:	024aa1        	l32r	a10, 0xfffc4db4
    448e:	d398      	l32i.n	a9, a3, 52
    4490:	532aa2        	l32i	a10, a10, 0x14c
    4493:	1a62a2        	s32i	a10, a2, 104
    4496:	2188      	l32i.n	a8, a1, 8
    4498:	306982        	s32i	a8, a9, 192
    449b:	f01d      	excw
    449d:	000000        	ill
    44a0:	004136        	excw
    44a3:	00a3b2        	movi	a11, 0x300
    44a6:	a0a0c2        	movi	a12, 160
    44a9:	28a1d2        	movi	a13, 0x128
    44ac:	07d292        	addmi	a9, a2, 0x700
    44af:	02de61        	l32r	a6, 0xfffc5028
    44b2:	02e0f1        	l32r	a15, 0xfffc5034
    44b5:	02bfe1        	l32r	a14, 0xfffc4fb4
    44b8:	02df31        	l32r	a3, 0xfffc5034
    44bb:	82a8      	l32i.n	a10, a2, 32
    44bd:	080c      	movi.n	a8, 0
    44bf:	7289      	s32i.n	a8, a2, 28
    44c1:	6289      	s32i.n	a8, a2, 24
    44c3:	5289      	s32i.n	a8, a2, 20
    44c5:	4289      	s32i.n	a8, a2, 16
    44c7:	3a3a      	add.n	a3, a10, a3
    44c9:	eaea      	add.n	a14, a10, a14
    44cb:	fafa      	add.n	a15, a10, a15
    44cd:	6a6a      	add.n	a6, a10, a6
    44cf:	332642        	l32i	a4, a6, 204
    44d2:	206982        	s32i	a8, a9, 128
    44d5:	a266f2        	s32i	a15, a6, 0x288
    44d8:	a166e2        	s32i	a14, a6, 0x284
    44db:	9e66d2        	s32i	a13, a6, 0x278
    44de:	9d66c2        	s32i	a12, a6, 0x274
    44e1:	9c66b2        	s32i	a11, a6, 0x270
    44e4:	a06632        	s32i	a3, a6, 0x280
    44e7:	9f6632        	s32i	a3, a6, 0x27c
    44ea:	191c      	movi.n	a9, 17
    44ec:	cb6692        	s32i	a9, a6, 0x32c
    44ef:	da58      	l32i.n	a5, a10, 52
    44f1:	1cda32        	addmi	a3, a10, 0x1c00
    44f4:	7a6382        	s32i	a8, a3, 0x1e8
    44f7:	0276e5        	excw
    44fa:	270c      	movi.n	a7, 2
    44fc:	d24372        	s8i	a7, a3, 210
    44ff:	2022b2        	l32i	a11, a2, 128
    4502:	2d63b2        	s32i	a11, a3, 180
    4505:	1f22a2        	l32i	a10, a2, 124
    4508:	2c63a2        	s32i	a10, a3, 176
    450b:	2322a2        	l32i	a10, a2, 140
    450e:	ffe265        	excw
    4511:	2f63a2        	s32i	a10, a3, 188
    4514:	2222a2        	l32i	a10, a2, 136
    4517:	ffe1e5        	excw
    451a:	2e63a2        	s32i	a10, a3, 184
    451d:	2122c2        	l32i	a12, a2, 132
    4520:	2f23a2        	l32i	a10, a3, 188
    4523:	d943c2        	s8i	a12, a3, 217
    4526:	cc0b      	addi.n	a12, a12, -1
    4528:	0c5c16        	beqz	a12, 0x45f1
    452b:	41c4a0        	srli	a12, a10, 4
    452e:	c4c9      	s32i.n	a12, a4, 48
    4530:	2e23d2        	l32i	a13, a3, 184
    4533:	41d4d0        	srli	a13, a13, 4
    4536:	a4d9      	s32i.n	a13, a4, 40
    4538:	82ccd0        	mull	a12, a12, a13
    453b:	d4c9      	s32i.n	a12, a4, 52
    453d:	2422b2        	l32i	a11, a2, 144
    4540:	41b3b0        	srli	a11, a11, 3
    4543:	1064b2        	s32i	a11, a4, 64
    4546:	252292        	l32i	a9, a2, 148
    4549:	1f0c      	movi.n	a15, 1
    454b:	419390        	srli	a9, a9, 3
    454e:	116492        	s32i	a9, a4, 68
    4551:	262282        	l32i	a8, a2, 152
    4554:	126482        	s32i	a8, a4, 72
    4557:	9c02d2        	l8ui	a13, a2, 156
    455a:	0e0c      	movi.n	a14, 0
    455c:	02e181        	l32r	a8, 0xfffc50e0
    455f:	11cdc0        	slli	a12, a13, 4
    4562:	83efd0        	moveqz	a14, a15, a13
    4565:	5e64e2        	s32i	a14, a4, 0x178
    4568:	0f3c      	movi.n	a15, 48
    456a:	c0a0e2        	movi	a14, 192
    456d:	11dda0        	slli	a13, a13, 6
    4570:	10ccf0        	and	a12, a12, a15
    4573:	10dde0        	and	a13, a13, a14
    4576:	9d02e2        	l8ui	a14, a2, 157
    4579:	02bdf1        	l32r	a15, 0xfffc5070
    457c:	20ccd0        	or	a12, a12, a13
    457f:	11de00        	slli	a13, a14, 16
    4582:	10ddf0        	and	a13, a13, a15
    4585:	01eec0        	slli	a14, a14, 20
    4588:	3326f2        	l32i	a15, a6, 204
    458b:	10ee80        	and	a14, a14, a8
    458e:	20dde0        	or	a13, a13, a14
    4591:	081c      	movi.n	a8, 16
    4593:	20ccd0        	or	a12, a12, a13
    4596:	0d0c      	movi.n	a13, 0
    4598:	6064c2        	s32i	a12, a4, 0x180
    459b:	1e22b2        	l32i	a11, a2, 120
    459e:	2e65b2        	s32i	a11, a5, 184
    45a1:	2c65d2        	s32i	a13, a5, 176
    45a4:	8f63d2        	s32i	a13, a3, 0x23c
    45a7:	9e0292        	l8ui	a9, a2, 158
    45aa:	2d6592        	s32i	a9, a5, 180
    45ad:	126582        	s32i	a8, a5, 72
    45b0:	1024e2        	l32i	a14, a4, 64
    45b3:	122ff2        	l32i	a15, a15, 72
    45b6:	0479      	s32i.n	a7, a4, 0
    45b8:	82eef0        	mull	a14, a14, a15
    45bb:	24d9      	s32i.n	a13, a4, 8
    45bd:	11eea0        	slli	a14, a14, 6
    45c0:	1364e2        	s32i	a14, a4, 76
    45c3:	e5d9      	s32i.n	a13, a5, 56
    45c5:	d5d9      	s32i.n	a13, a5, 52
    45c7:	b5d9      	s32i.n	a13, a5, 44
    45c9:	a5d9      	s32i.n	a13, a5, 40
    45cb:	7b63d2        	s32i	a13, a3, 0x1ec
    45ce:	7c63d2        	s32i	a13, a3, 0x1f0
    45d1:	7d63d2        	s32i	a13, a3, 0x1f4
    45d4:	6463d2        	s32i	a13, a3, 0x190
    45d7:	6563d2        	s32i	a13, a3, 0x194
    45da:	6d63d2        	s32i	a13, a3, 0x1b4
    45dd:	6863d2        	s32i	a13, a3, 0x1a0
    45e0:	6963d2        	s32i	a13, a3, 0x1a4
    45e3:	6a63d2        	s32i	a13, a3, 0x1a8
    45e6:	6b63d2        	s32i	a13, a3, 0x1ac
    45e9:	6c63d2        	s32i	a13, a3, 0x1b0
    45ec:	3263d2        	s32i	a13, a3, 200
    45ef:	f01d      	excw
    45f1:	41a1a0        	srli	a10, a10, 1
    45f4:	ffd3e5        	excw
    45f7:	2f63a2        	s32i	a10, a3, 188
    45fa:	ffcb46        	j	0x452b
    45fd:	000000        	ill
    4600:	004136        	excw
    4603:	180c      	movi.n	a8, 1
    4605:	070c      	movi.n	a7, 0
    4607:	02bb61        	l32r	a6, 0xfffc50f4
    460a:	8248      	l32i.n	a4, a2, 32
    460c:	282292        	l32i	a9, a2, 160
    460f:	02be51        	l32r	a5, 0xfffc5108
    4612:	d4a8      	l32i.n	a10, a4, 52
    4614:	17d432        	addmi	a3, a4, 0x1700
    4617:	382332        	l32i	a3, a3, 224
    461a:	445a      	add.n	a4, a4, a5
    461c:	2c6a92        	s32i	a9, a10, 176
    461f:	b699      	s32i.n	a9, a6, 44
    4621:	1f6672        	s32i	a7, a6, 124
    4624:	f679      	s32i.n	a7, a6, 60
    4626:	106672        	s32i	a7, a6, 64
    4629:	7f6482        	s32i	a8, a4, 0x1fc
    462c:	292252        	l32i	a5, a2, 164
    462f:	2359      	s32i.n	a5, a3, 8
    4631:	186672        	s32i	a7, a6, 96
    4634:	226672        	s32i	a7, a6, 136
    4637:	806472        	s32i	a7, a4, 0x200
    463a:	2338      	l32i.n	a3, a3, 8
    463c:	024391        	l32r	a9, 0xfffc4f48
    463f:	e38c      	beqz.n	a3, 0x4651
    4641:	c689      	s32i.n	a8, a6, 48
    4643:	196672        	s32i	a7, a6, 100
    4646:	1c6672        	s32i	a7, a6, 112
    4649:	1d6672        	s32i	a7, a6, 116
    464c:	b06972        	s32i	a7, a9, 0x2c0
    464f:	f01d      	excw
    4651:	f01d      	excw
    4653:	613600        	excw
    4656:	82b800        	mull	a11, a8, a0
    4659:	0a0c      	movi.n	a10, 0
    465b:	02e2c1        	l32r	a12, 0xfffc51e4
    465e:	dbf8      	l32i.n	a15, a11, 52
    4660:	e82b42        	l32i	a4, a11, 0x3a0
    4663:	3be8      	l32i.n	a14, a11, 12
    4665:	1b98      	l32i.n	a9, a11, 4
    4667:	bbca      	add.n	a11, a11, a12
    4669:	4d2b82        	l32i	a8, a11, 0x134
    466c:	012992        	l32i	a9, a9, 4
    466f:	172ed2        	l32i	a13, a14, 92
    4672:	136816        	beqz	a8, 0x47ac
    4675:	b12b82        	l32i	a8, a11, 0x2c4
    4678:	0c0c      	movi.n	a12, 0
    467a:	17a816        	beqz	a8, 0x47f8
    467d:	b22b82        	l32i	a8, a11, 0x2c8
    4680:	005816        	beqz	a8, 0x4689
    4683:	01a082        	movi	a8, 1
    4686:	93c8d0        	movnez	a12, a8, a13
    4689:	b26bc2        	s32i	a12, a11, 0x2c8
    468c:	150c      	movi.n	a5, 1
    468e:	021c66        	bnei	a12, 1, 0x4694
    4691:	b06ba2        	s32i	a10, a11, 0x2c0
    4694:	cd0b      	addi.n	a12, a13, -1
    4696:	122c16        	beqz	a12, 0x47bc
    4699:	a0c3f0        	addx4	a12, a3, a15
    469c:	00a4d2        	movi	a13, 0x400
    469f:	b16b52        	s32i	a5, a11, 0x2c4
    46a2:	b06b52        	s32i	a5, a11, 0x2c0
    46a5:	0e88      	l32i.n	a8, a14, 0
    46a7:	44a3b2        	movi	a11, 0x344
    46aa:	82b3b0        	mull	a11, a3, a11
    46ad:	938580        	movnez	a8, a5, a8
    46b0:	136f82        	s32i	a8, a15, 76
    46b3:	4e88      	l32i.n	a8, a14, 16
    46b5:	b4ba      	add.n	a11, a4, a11
    46b7:	05dbb2        	addmi	a11, a11, 0x500
    46ba:	838d80        	moveqz	a8, a13, a8
    46bd:	146c82        	s32i	a8, a12, 80
    46c0:	ded8      	l32i.n	a13, a14, 52
    46c2:	206cd2        	s32i	a13, a12, 128
    46c5:	ee88      	l32i.n	a8, a14, 56
    46c7:	186c82        	s32i	a8, a12, 96
    46ca:	fed8      	l32i.n	a13, a14, 60
    46cc:	1c6cd2        	s32i	a13, a12, 112
    46cf:	0e88      	l32i.n	a8, a14, 0
    46d1:	896b82        	s32i	a8, a11, 0x224
    46d4:	132fd2        	l32i	a13, a15, 76
    46d7:	2ea8      	l32i.n	a10, a14, 8
    46d9:	093d16        	beqz	a13, 0x4770
    46dc:	8f6ba2        	s32i	a10, a11, 0x23c
    46df:	1e88      	l32i.n	a8, a14, 4
    46e1:	8e6b82        	s32i	a8, a11, 0x238
    46e4:	3e78      	l32i.n	a7, a14, 12
    46e6:	8b6b72        	s32i	a7, a11, 0x22c
    46e9:	9ed8      	l32i.n	a13, a14, 36
    46eb:	83d5d0        	moveqz	a13, a5, a13
    46ee:	11d9      	s32i.n	a13, a1, 4
    46f0:	8c6bd2        	s32i	a13, a11, 0x230
    46f3:	142cc2        	l32i	a12, a12, 80
    46f6:	d06bc2        	s32i	a12, a11, 0x340
    46f9:	8e68      	l32i.n	a6, a14, 32
    46fb:	b36b62        	s32i	a6, a11, 0x2cc
    46fe:	de78      	l32i.n	a7, a14, 52
    4700:	ae6b72        	s32i	a7, a11, 0x2b8
    4703:	eed8      	l32i.n	a13, a14, 56
    4705:	b06bd2        	s32i	a13, a11, 0x2c0
    4708:	fec8      	l32i.n	a12, a14, 60
    470a:	b16bc2        	s32i	a12, a11, 0x2c4
    470d:	20acc0        	or	a10, a12, a12
    4710:	008916        	beqz	a9, 0x471c
    4713:	050926        	beqi	a9, -1, 0x471c
    4716:	2a2282        	l32i	a8, a2, 168
    4719:	0e8816        	beqz	a8, 0x4805
    471c:	b26b52        	s32i	a5, a11, 0x2c8
    471f:	af6b52        	s32i	a5, a11, 0x2bc
    4722:	bea8      	l32i.n	a10, a14, 44
    4724:	d86ba2        	s32i	a10, a11, 0x360
    4727:	102e92        	l32i	a9, a14, 64
    472a:	d56b92        	s32i	a9, a11, 0x354
    472d:	112e82        	l32i	a8, a14, 68
    4730:	d46b82        	s32i	a8, a11, 0x350
    4733:	122ed2        	l32i	a13, a14, 72
    4736:	d66bd2        	s32i	a13, a11, 0x358
    4739:	132ec2        	l32i	a12, a14, 76
    473c:	dc6bc2        	s32i	a12, a11, 0x370
    473f:	142ea2        	l32i	a10, a14, 80
    4742:	ab6ba2        	s32i	a10, a11, 0x2ac
    4745:	172e92        	l32i	a9, a14, 92
    4748:	e56b92        	s32i	a9, a11, 0x394
    474b:	ae98      	l32i.n	a9, a14, 40
    474d:	0c0c      	movi.n	a12, 0
    474f:	41a0a2        	movi	a10, 65
    4752:	0aa916        	beqz	a9, 0x4800
    4755:	5399c0        	excw
    4758:	4399a0        	excw
    475b:	82a960        	mull	a10, a9, a6
    475e:	41a6a0        	srli	a10, a10, 6
    4761:	b56ba2        	s32i	a10, a11, 0x2d4
    4764:	182e82        	l32i	a8, a14, 96
    4767:	e66b82        	s32i	a8, a11, 0x398
    476a:	192ed2        	l32i	a13, a14, 100
    476d:	e76bd2        	s32i	a13, a11, 0x39c
    4770:	83fa      	add.n	a8, a3, a15
    4772:	c34a      	add.n	a12, a3, a4
    4774:	5ea8      	l32i.n	a10, a14, 20
    4776:	004ca2        	s8i	a10, a12, 0
    4779:	5e98      	l32i.n	a9, a14, 20
    477b:	944892        	s8i	a9, a8, 148
    477e:	6ed8      	l32i.n	a13, a14, 24
    4780:	9848d2        	s8i	a13, a8, 152
    4783:	02c8      	l32i.n	a12, a2, 0
    4785:	0cac      	beqz.n	a12, 0x47a9
    4787:	8b2ba2        	l32i	a10, a11, 0x22c
    478a:	8c2bb2        	l32i	a11, a11, 0x230
    478d:	072ee5        	excw
    4790:	02bbb1        	l32r	a11, 0xfffc527c
    4793:	ed1c      	movi.n	a13, 30
    4795:	0aed      	mov.n	a14, a10
    4797:	1a0c      	movi.n	a10, 1
    4799:	073de7        	bltu	a13, a14, 0x47a4
    479c:	0f0c      	movi.n	a15, 0
    479e:	176bf2        	s32i	a15, a11, 92
    47a1:	f01d      	excw
    47a3:	6ba200        	excw
    47a6:	f01d17        	beq	a13, a1, 0x479a
    47a9:	f01d      	excw
    47ab:	8d0b00        	excw
    47ae:	ec3856        	bnez	a8, 0x4675
    47b1:	0add      	mov.n	a13, a10
    47b3:	176ea2        	s32i	a10, a14, 92
    47b6:	b26ba2        	s32i	a10, a11, 0x2c8
    47b9:	ffae06        	j	0x4675
    47bc:	b16b52        	s32i	a5, a11, 0x2c4
    47bf:	132f92        	l32i	a9, a15, 76
    47c2:	44a3a2        	movi	a10, 0x344
    47c5:	82a3a0        	mull	a10, a3, a10
    47c8:	fdd916        	beqz	a9, 0x47a9
    47cb:	beb8      	l32i.n	a11, a14, 44
    47cd:	a4aa      	add.n	a10, a4, a10
    47cf:	05daa2        	addmi	a10, a10, 0x500
    47d2:	d86ab2        	s32i	a11, a10, 0x360
    47d5:	102e92        	l32i	a9, a14, 64
    47d8:	d56a92        	s32i	a9, a10, 0x354
    47db:	112e82        	l32i	a8, a14, 68
    47de:	d46a82        	s32i	a8, a10, 0x350
    47e1:	122ef2        	l32i	a15, a14, 72
    47e4:	d66af2        	s32i	a15, a10, 0x358
    47e7:	132ec2        	l32i	a12, a14, 76
    47ea:	dc6ac2        	s32i	a12, a10, 0x370
    47ed:	142eb2        	l32i	a11, a14, 80
    47f0:	ab6ab2        	s32i	a11, a10, 0x2ac
    47f3:	e56ad2        	s32i	a13, a10, 0x394
    47f6:	f01d      	excw
    47f8:	b26bd2        	s32i	a13, a11, 0x2c8
    47fb:	0dcd      	mov.n	a12, a13
    47fd:	ffa2c6        	j	0x468c
    4800:	093c      	movi.n	a9, 48
    4802:	ffd546        	j	0x475b
    4805:	891b      	addi.n	a8, a9, 1
    4807:	0189      	s32i.n	a8, a1, 0
    4809:	82d8d0        	mull	a13, a8, a13
    480c:	b06bd2        	s32i	a13, a11, 0x2c0
    480f:	828870        	mull	a8, a8, a7
    4812:	ae6b82        	s32i	a8, a11, 0x2b8
    4815:	0e9976        	excw
    4818:	aaca      	add.n	a10, a10, a12
    481a:	b16ba2        	s32i	a10, a11, 0x2c4
    481d:	04bac7        	bgeu	a10, a12, 0x4825
    4820:	dd1b      	addi.n	a13, a13, 1
    4822:	b06bd2        	s32i	a13, a11, 0x2c0
    4825:	f03d      	nop.n
    4827:	11a8      	l32i.n	a10, a1, 4
    4829:	0198      	l32i.n	a9, a1, 0
    482b:	8299a0        	mull	a9, a9, a10
    482e:	8c6b92        	s32i	a9, a11, 0x230
    4831:	ffb9c6        	j	0x471c
    4834:	004136        	excw
    4837:	8258      	l32i.n	a5, a2, 32
    4839:	70a0b2        	movi	a11, 112
    483c:	4528      	l32i.n	a2, a5, 16
    483e:	d548      	l32i.n	a4, a5, 52
    4840:	17d5a2        	addmi	a10, a5, 0x1700
    4843:	d268      	l32i.n	a6, a2, 52
    4845:	4469      	s32i.n	a6, a4, 16
    4847:	e238      	l32i.n	a3, a2, 56
    4849:	f288      	l32i.n	a8, a2, 60
    484b:	20b6b0        	or	a11, a6, a11
    484e:	002356        	bnez	a3, 0x4854
    4851:	010816        	beqz	a8, 0x4865
    4854:	382aa2        	l32i	a10, a10, 224
    4857:	44b9      	s32i.n	a11, a4, 16
    4859:	52b8      	l32i.n	a11, a2, 20
    485b:	2764b2        	s32i	a11, a4, 156
    485e:	0298      	l32i.n	a9, a2, 0
    4860:	146a92        	s32i	a9, a10, 80
    4863:	f01d      	excw
    4865:	52e8      	l32i.n	a14, a2, 20
    4867:	17d5d2        	addmi	a13, a5, 0x1700
    486a:	382dd2        	l32i	a13, a13, 224
    486d:	2764e2        	s32i	a14, a4, 156
    4870:	02c8      	l32i.n	a12, a2, 0
    4872:	146dc2        	s32i	a12, a13, 80
    4875:	f01d      	excw
    4877:	413600        	srli	a3, a0, 6
    487a:	82c800        	mull	a12, a8, a0
    487d:	6ca8      	l32i.n	a10, a12, 24
    487f:	0a88      	l32i.n	a8, a10, 0
    4881:	1b0c      	movi.n	a11, 1
    4883:	0d2c72        	l32i	a7, a12, 52
    4886:	a8bc      	beqz.n	a8, 0x48c4
    4888:	02e361        	l32r	a6, 0xfffc5414
    488b:	6c6a      	add.n	a6, a12, a6
    488d:	2c66b2        	s32i	a11, a6, 176
    4890:	122a22        	l32i	a2, a10, 72
    4893:	112a42        	l32i	a4, a10, 68
    4896:	02ad      	mov.n	a10, a2
    4898:	1134f0        	slli	a3, a4, 1
    489b:	03bd      	mov.n	a11, a3
    489d:	071aa5        	excw
    48a0:	0a5d      	mov.n	a5, a10
    48a2:	03bd      	mov.n	a11, a3
    48a4:	02ad      	mov.n	a10, a2
    48a6:	071d65        	excw
    48a9:	1c0c      	movi.n	a12, 1
    48ab:	7d06b2        	l8ui	a11, a6, 125
    48ae:	316742        	s32i	a4, a7, 196
    48b1:	326722        	s32i	a2, a7, 200
    48b4:	935c50        	movnez	a5, a12, a5
    48b7:	95aa      	add.n	a9, a5, a10
    48b9:	1189f0        	slli	a8, a9, 1
    48bc:	8389b0        	moveqz	a8, a9, a11
    48bf:	336782        	s32i	a8, a7, 204
    48c2:	f01d      	excw
    48c4:	4ad8      	l32i.n	a13, a10, 16
    48c6:	6ae8      	l32i.n	a14, a10, 24
    48c8:	fbcd56        	bnez	a13, 0x4888
    48cb:	fb9e56        	bnez	a14, 0x4888
    48ce:	daf8      	l32i.n	a15, a10, 52
    48d0:	fb4f56        	bnez	a15, 0x4888
    48d3:	102a82        	l32i	a8, a10, 64
    48d6:	fae856        	bnez	a8, 0x4888
    48d9:	142a92        	l32i	a9, a10, 80
    48dc:	fa8956        	bnez	a9, 0x4888
    48df:	7e2ae2        	l32i	a14, a10, 0x1f8
    48e2:	0d0c      	movi.n	a13, 0
    48e4:	83bde0        	moveqz	a11, a13, a14
    48e7:	ffe746        	j	0x4888
    48ea:	360000        	excw
    48ed:	580041        	l32r	a4, 0xfffda8f0
    48f0:	1a0c82        	l8ui	a8, a12, 26
    48f3:	02e491        	l32r	a9, 0xfffc5484
    48f6:	d578      	l32i.n	a7, a5, 52
    48f8:	7588      	l32i.n	a8, a5, 28
    48fa:	8528      	l32i.n	a2, a5, 32
    48fc:	a568      	l32i.n	a6, a5, 40
    48fe:	a3ac      	beqz.n	a3, 0x492c
    4900:	080c      	movi.n	a8, 0
    4902:	401326        	beqi	a3, 1, 0x4946
    4905:	fec342        	addi	a4, a3, -2
    4908:	0c4416        	beqz	a4, 0x49d0
    490b:	1b3366        	bnei	a3, 3, 0x492a
    490e:	06a8      	l32i.n	a10, a6, 0
    4910:	0eca16        	beqz	a10, 0x4a00
    4913:	16b8      	l32i.n	a11, a6, 4
    4915:	0e7b16        	beqz	a11, 0x4a00
    4918:	d59a      	add.n	a13, a5, a9
    491a:	7d2dc2        	l32i	a12, a13, 0x1f4
    491d:	8e0c      	movi.n	a14, 8
    491f:	826d82        	s32i	a8, a13, 0x208
    4922:	20cce0        	or	a12, a12, a14
    4925:	7d6dc2        	s32i	a12, a13, 0x1f4
    4928:	f01d      	excw
    492a:	f01d      	excw
    492c:	08f8      	l32i.n	a15, a8, 0
    492e:	559a      	add.n	a5, a5, a9
    4930:	7d2532        	l32i	a3, a5, 0x1f4
    4933:	0dbf16        	beqz	a15, 0x4a12
    4936:	2093a0        	or	a9, a3, a10
    4939:	7d6592        	s32i	a9, a5, 0x1f4
    493c:	3848      	l32i.n	a4, a8, 12
    493e:	346742        	s32i	a4, a7, 208
    4941:	f01d      	excw
    4943:	000000        	ill
    4946:	260c      	movi.n	a6, 2
    4948:	02b8      	l32i.n	a11, a2, 0
    494a:	559a      	add.n	a5, a5, a9
    494c:	7d2532        	l32i	a3, a5, 0x1f4
    494f:	0d6b16        	beqz	a11, 0x4a29
    4952:	20c360        	or	a12, a3, a6
    4955:	7d65c2        	s32i	a12, a5, 0x1f4
    4958:	12d8      	l32i.n	a13, a2, 4
    495a:	3567d2        	s32i	a13, a7, 212
    495d:	3238      	l32i.n	a3, a2, 12
    495f:	0233b6        	bltui	a3, 3, 0x4965
    4962:	002086        	j	0x49e8
    4965:	4867a2        	s32i	a10, a7, 0x120
    4968:	150c      	movi.n	a5, 1
    496a:	030c      	movi.n	a3, 0
    496c:	fba516        	beqz	a5, 0x492a
    496f:	076d      	mov.n	a6, a7
    4971:	568076        	excw
    4974:	396682        	s32i	a8, a6, 228
    4977:	1c02a2        	l8ui	a10, a2, 28
    497a:	41a3a0        	srli	a10, a10, 3
    497d:	3c66a2        	s32i	a10, a6, 240
    4980:	1e0292        	l8ui	a9, a2, 30
    4983:	1d02a2        	l8ui	a10, a2, 29
    4986:	119980        	slli	a9, a9, 8
    4989:	2099a0        	or	a9, a9, a10
    498c:	749390        	extui	a9, a9, 3, 8
    498f:	366692        	s32i	a9, a6, 216
    4992:	280252        	l8ui	a5, a2, 40
    4995:	545050        	extui	a5, a5, 0, 6
    4998:	3f6652        	s32i	a5, a6, 252
    499b:	290242        	l8ui	a4, a2, 41
    499e:	280252        	l8ui	a5, a2, 40
    49a1:	114480        	slli	a4, a4, 8
    49a4:	204450        	or	a4, a4, a5
    49a7:	544640        	extui	a4, a4, 6, 6
    49aa:	426642        	s32i	a4, a6, 0x108
    49ad:	2a02f2        	l8ui	a15, a2, 42
    49b0:	290242        	l8ui	a4, a2, 41
    49b3:	331b      	addi.n	a3, a3, 1
    49b5:	11ff80        	slli	a15, a15, 8
    49b8:	20ff40        	or	a15, a15, a4
    49bb:	44f4f0        	extui	a15, a15, 4, 5
    49be:	4566f2        	s32i	a15, a6, 0x114
    49c1:	4827e2        	l32i	a14, a7, 0x120
    49c4:	224b      	addi.n	a2, a2, 4
    49c6:	664b      	addi.n	a6, a6, 4
    49c8:	02b3e7        	bgeu	a3, a14, 0x49ce
    49cb:	ffe886        	j	0x4971
    49ce:	f01d      	excw
    49d0:	95b8      	l32i.n	a11, a5, 36
    49d2:	0bb8      	l32i.n	a11, a11, 0
    49d4:	559a      	add.n	a5, a5, a9
    49d6:	7d2532        	l32i	a3, a5, 0x1f4
    49d9:	061b16        	beqz	a11, 0x4a3e
    49dc:	4c0c      	movi.n	a12, 4
    49de:	20c3c0        	or	a12, a3, a12
    49e1:	7d65c2        	s32i	a12, a5, 0x1f4
    49e4:	f01d      	excw
    49e6:	f60000        	excw
    49e9:	f60253        	excw
    49ec:	f63233        	excw
    49ef:	f60273        	excw
    49f2:	263f53        	excw
    49f5:	262973        	excw
    49f8:	523983        	excw
    49fb:	464827        	ball	a8, a2, 0x4a45
    49fe:	ffda      	add.n	a15, a15, a13
    4a00:	e59a      	add.n	a14, a5, a9
    4a02:	7d2ed2        	l32i	a13, a14, 0x1f4
    4a05:	7f7c      	movi.n	a15, -9
    4a07:	826e82        	s32i	a8, a14, 0x208
    4a0a:	10ddf0        	and	a13, a13, a15
    4a0d:	7d6ed2        	s32i	a13, a14, 0x1f4
    4a10:	f01d      	excw
    4a12:	e97c      	movi.n	a9, -2
    4a14:	109390        	and	a9, a3, a9
    4a17:	7d6592        	s32i	a9, a5, 0x1f4
    4a1a:	3848      	l32i.n	a4, a8, 12
    4a1c:	346742        	s32i	a4, a7, 208
    4a1f:	f01d      	excw
    4a21:	486762        	s32i	a6, a7, 0x120
    4a24:	250c      	movi.n	a5, 2
    4a26:	ffd006        	j	0x496a
    4a29:	db7c      	movi.n	a11, -3
    4a2b:	10b3b0        	and	a11, a3, a11
    4a2e:	7d65b2        	s32i	a11, a5, 0x1f4
    4a31:	ffc8c6        	j	0x4958
    4a34:	350c      	movi.n	a5, 3
    4a36:	3c0c      	movi.n	a12, 3
    4a38:	4867c2        	s32i	a12, a7, 0x120
    4a3b:	ffcac6        	j	0x496a
    4a3e:	bd7c      	movi.n	a13, -5
    4a40:	10d3d0        	and	a13, a3, a13
    4a43:	7d65d2        	s32i	a13, a5, 0x1f4
    4a46:	f01d      	excw
    4a48:	004136        	excw
    4a4b:	8248      	l32i.n	a4, a2, 32
    4a4d:	9c2232        	l32i	a3, a2, 0x270
    4a50:	1dd442        	addmi	a4, a4, 0x1d00
    4a53:	b439      	s32i.n	a3, a4, 44
    4a55:	f01d      	excw
    4a57:	613600        	excw
    4a5a:	823800        	mull	a3, a8, a0
    4a5d:	070c      	movi.n	a7, 0
    4a5f:	02e561        	l32r	a6, 0xfffc55f4
    4a62:	0328      	l32i.n	a2, a3, 0
    4a64:	d348      	l32i.n	a4, a3, 52
    4a66:	636a      	add.n	a6, a3, a6
    4a68:	152252        	l32i	a5, a2, 84
    4a6b:	856652        	s32i	a5, a6, 0x214
    4a6e:	a258      	l32i.n	a5, a2, 40
    4a70:	7c26a2        	l32i	a10, a6, 0x1f0
    4a73:	1cd332        	addmi	a3, a3, 0x1c00
    4a76:	05bd      	mov.n	a11, a5
    4a78:	80aa50        	add	a10, a10, a5
    4a7b:	aa0b      	addi.n	a10, a10, -1
    4a7d:	06ffe5        	excw
    4a80:	7e63a2        	s32i	a10, a3, 0x1f8
    4a83:	e2c8      	l32i.n	a12, a2, 56
    4a85:	d543c2        	s8i	a12, a3, 213
    4a88:	1022b2        	l32i	a11, a2, 64
    4a8b:	d643b2        	s8i	a11, a3, 214
    4a8e:	112292        	l32i	a9, a2, 68
    4a91:	d74392        	s8i	a9, a3, 215
    4a94:	122282        	l32i	a8, a2, 72
    4a97:	d84382        	s8i	a8, a3, 216
    4a9a:	866372        	s32i	a7, a3, 0x218
    4a9d:	856372        	s32i	a7, a3, 0x214
    4aa0:	886372        	s32i	a7, a3, 0x220
    4aa3:	876372        	s32i	a7, a3, 0x21c
    4aa6:	826372        	s32i	a7, a3, 0x208
    4aa9:	816372        	s32i	a7, a3, 0x204
    4aac:	806372        	s32i	a7, a3, 0x200
    4aaf:	8a6372        	s32i	a7, a3, 0x228
    4ab2:	c298      	l32i.n	a9, a2, 48
    4ab4:	324926        	beqi	a9, 4, 0x4aea
    4ab7:	11a9      	s32i.n	a10, a1, 4
    4ab9:	fbc9d2        	addi	a13, a9, -5
    4abc:	074d16        	beqz	a13, 0x4b34
    4abf:	2c6966        	bnei	a9, 6, 0x4aef
    4ac2:	7b26b2        	l32i	a11, a6, 0x1ec
    4ac5:	0b22a2        	l32i	a10, a2, 44
    4ac8:	aaba      	add.n	a10, a10, a11
    4aca:	ffcaa2        	addi	a10, a10, -1
    4acd:	06fae5        	excw
    4ad0:	7926b2        	l32i	a11, a6, 0x1e4
    4ad3:	0a5d      	mov.n	a5, a10
    4ad5:	8463a2        	s32i	a10, a3, 0x210
    4ad8:	abaa      	add.n	a10, a11, a10
    4ada:	aa0b      	addi.n	a10, a10, -1
    4adc:	05bd      	mov.n	a11, a5
    4ade:	06f9e5        	excw
    4ae1:	886352        	s32i	a5, a3, 0x220
    4ae4:	8363a2        	s32i	a10, a3, 0x20c
    4ae7:	000106        	j	0x4aef
    4aea:	c50b      	addi.n	a12, a5, -1
    4aec:	8863c2        	s32i	a12, a3, 0x220
    4aef:	62d8      	l32i.n	a13, a2, 24
    4af1:	190c      	movi.n	a9, 1
    4af3:	0722c2        	l32i	a12, a2, 28
    4af6:	6dac      	beqz.n	a13, 0x4b20
    4af8:	516392        	s32i	a9, a3, 0x144
    4afb:	32e8      	l32i.n	a14, a2, 12
    4afd:	52f8      	l32i.n	a15, a2, 20
    4aff:	1edc      	bnez.n	a14, 0x4b14
    4b01:	3fcc      	bnez.n	a15, 0x4b08
    4b03:	4288      	l32i.n	a8, a2, 16
    4b05:	04b816        	beqz	a8, 0x4b54
    4b08:	0499      	s32i.n	a9, a4, 0
    4b0a:	3499      	s32i.n	a9, a4, 12
    4b0c:	22a8      	l32i.n	a10, a2, 8
    4b0e:	2864a2        	s32i	a10, a4, 160
    4b11:	f01d      	excw
    4b13:	049900        	extui	a9, a0, 9, 1
    4b16:	3499      	s32i.n	a9, a4, 12
    4b18:	22b8      	l32i.n	a11, a2, 8
    4b1a:	2864b2        	s32i	a11, a4, 160
    4b1d:	f01d      	excw
    4b1f:	4c5600        	excw
    4b22:	d8fd      	excw
    4b24:	fd5682        	s16i	a8, a6, 0x1fa
    4b27:	e8fc      	bnez.n	a8, 0x4b69
    4b29:	ae5692        	s16i	a9, a6, 0x15c
    4b2c:	72fc      	bnez.n	a2, 0x4b67
    4b2e:	c65163        	excw
    4b31:	00fff1        	l32r	a15, 0xfffc4f30
    4b34:	b2b8      	l32i.n	a11, a2, 44
    4b36:	0a6d      	mov.n	a6, a10
    4b38:	01b9      	s32i.n	a11, a1, 0
    4b3a:	a5ba      	add.n	a10, a5, a11
    4b3c:	aa0b      	addi.n	a10, a10, -1
    4b3e:	06f3e5        	excw
    4b41:	7f63a2        	s32i	a10, a3, 0x1fc
    4b44:	01c8      	l32i.n	a12, a1, 0
    4b46:	82b6a0        	mull	a11, a6, a10
    4b49:	8363b2        	s32i	a11, a3, 0x20c
    4b4c:	cc0b      	addi.n	a12, a12, -1
    4b4e:	8863c2        	s32i	a12, a3, 0x220
    4b51:	ffe686        	j	0x4aef
    4b54:	0499      	s32i.n	a9, a4, 0
    4b56:	3479      	s32i.n	a7, a4, 12
    4b58:	22d8      	l32i.n	a13, a2, 8
    4b5a:	2864d2        	s32i	a13, a4, 160
    4b5d:	f01d      	excw
    4b5f:	413600        	srli	a3, a0, 6
    4b62:	82a800        	mull	a10, a8, a0
    4b65:	03bd      	mov.n	a11, a3
    4b67:	8c0c      	movi.n	a12, 8
    4b69:	1aa8      	l32i.n	a10, a10, 4
    4b6b:	06e5a5        	excw
    4b6e:	f01d      	excw
    4b70:	004136        	excw
    4b73:	8228      	l32i.n	a2, a2, 32
    4b75:	03bd      	mov.n	a11, a3
    4b77:	cc2c      	movi.n	a12, 44
    4b79:	22a8      	l32i.n	a10, a2, 8
    4b7b:	06e4a5        	excw
    4b7e:	2288      	l32i.n	a8, a2, 8
    4b80:	1888      	l32i.n	a8, a8, 4
    4b82:	d298      	l32i.n	a9, a2, 52
    4b84:	881b      	addi.n	a8, a8, 1
    4b86:	246982        	s32i	a8, a9, 144
    4b89:	f01d      	excw
    4b8b:	413600        	srli	a3, a0, 6
    4b8e:	a97100        	excw
    4b91:	6a0c02        	l8ui	a0, a12, 106
    4b94:	02e761        	l32r	a6, 0xfffc5730
    4b97:	3f27e2        	l32i	a14, a7, 252
    4b9a:	02e6b1        	l32r	a11, 0xfffc5734
    4b9d:	024e31        	l32r	a3, 0xfffc54d8
    4ba0:	10ee60        	and	a14, a14, a6
    4ba3:	3f67e2        	s32i	a14, a7, 252
    4ba6:	12d8      	l32i.n	a13, a2, 4
    4ba8:	cf63d2        	s32i	a13, a3, 0x33c
    4bab:	02c8      	l32i.n	a12, a2, 0
    4bad:	d063c2        	s32i	a12, a3, 0x340
    4bb0:	c22382        	l32i	a8, a3, 0x308
    4bb3:	790c      	movi.n	a9, 7
    4bb5:	0c0c      	movi.n	a12, 0
    4bb7:	208890        	or	a8, a8, a9
    4bba:	c26382        	s32i	a8, a3, 0x308
    4bbd:	fb9c25        	excw
    4bc0:	0a4c      	movi.n	a10, 64
    4bc2:	fbb925        	excw
    4bc5:	92f8      	l32i.n	a15, a2, 36
    4bc7:	6288      	l32i.n	a8, a2, 24
    4bc9:	32e8      	l32i.n	a14, a2, 12
    4bcb:	01ff80        	slli	a15, a15, 24
    4bce:	1188c0        	slli	a8, a8, 4
    4bd1:	20ee80        	or	a14, a14, a8
    4bd4:	20eef0        	or	a14, a14, a15
    4bd7:	ce63e2        	s32i	a14, a3, 0x338
    4bda:	92c8      	l32i.n	a12, a2, 36
    4bdc:	72d8      	l32i.n	a13, a2, 28
    4bde:	42b8      	l32i.n	a11, a2, 16
    4be0:	01cc80        	slli	a12, a12, 24
    4be3:	11ddc0        	slli	a13, a13, 4
    4be6:	20bbd0        	or	a11, a11, a13
    4be9:	20bbc0        	or	a11, a11, a12
    4bec:	cc63b2        	s32i	a11, a3, 0x330
    4bef:	a298      	l32i.n	a9, a2, 40
    4bf1:	82a8      	l32i.n	a10, a2, 32
    4bf3:	5288      	l32i.n	a8, a2, 20
    4bf5:	019980        	slli	a9, a9, 24
    4bf8:	11aac0        	slli	a10, a10, 4
    4bfb:	2088a0        	or	a8, a8, a10
    4bfe:	208890        	or	a8, a8, a9
    4c01:	cd6382        	s32i	a8, a3, 0x334
    4c04:	22f8      	l32i.n	a15, a2, 8
    4c06:	d163f2        	s32i	a15, a3, 0x344
    4c09:	fbb865        	excw
    4c0c:	0a5d      	mov.n	a5, a10
    4c0e:	02e841        	l32r	a4, 0xfffc57b0
    4c11:	d22392        	l32i	a9, a3, 0x348
    4c14:	10e907        	bbsi	a9, 0, 0x4c28
    4c17:	29e917        	bbsi	a9, 1, 0x4c44
    4c1a:	2298      	l32i.n	a9, a2, 8
    4c1c:	0522b2        	l32i	a11, a2, 20
    4c1f:	026907        	bbci	a9, 0, 0x4c25
    4c22:	002b56        	bnez	a11, 0x4c28
    4c25:	d16392        	s32i	a9, a3, 0x344
    4c28:	fbb665        	excw
    4c2b:	c0ca50        	sub	a12, a10, a5
    4c2e:	dfb4c7        	bgeu	a4, a12, 0x4c11
    4c31:	3f27d2        	l32i	a13, a7, 252
    4c34:	02d2e1        	l32r	a14, 0xfffc577c
    4c37:	10dd60        	and	a13, a13, a6
    4c3a:	20dde0        	or	a13, a13, a14
    4c3d:	3f67d2        	s32i	a13, a7, 252
    4c40:	f01d      	excw
    4c42:	e20000        	excw
    4c45:	4cc223        	excw
    4c48:	7c0a      	add.n	a7, a12, a0
    4c4a:	8f          	.byte 0x8f
    4c4b:	10eef0        	and	a14, a14, a15
    4c4e:	c263e2        	s32i	a14, a3, 0x308
    4c51:	fbb1a5        	excw
    4c54:	3f2782        	l32i	a8, a7, 252
    4c57:	02d291        	l32r	a9, 0xfffc57a0
    4c5a:	108860        	and	a8, a8, a6
    4c5d:	208890        	or	a8, a8, a9
    4c60:	3f6782        	s32i	a8, a7, 252
    4c63:	f01d      	excw
    4c65:	000000        	ill
    4c68:	004136        	excw
    4c6b:	58a1b2        	movi	a11, 0x158
    4c6e:	8248      	l32i.n	a4, a2, 32
    4c70:	262282        	l32i	a8, a2, 152
    4c73:	242252        	l32i	a5, a2, 144
    4c76:	1468      	l32i.n	a6, a4, 4
    4c78:	b428      	l32i.n	a2, a4, 44
    4c7a:	825580        	mull	a5, a5, a8
    4c7d:	3448      	l32i.n	a4, a4, 12
    4c7f:	1155d0        	slli	a5, a5, 3
    4c82:	20a220        	or	a10, a2, a2
    4c85:	06d065        	excw
    4c88:	390c      	movi.n	a9, 3
    4c8a:	23f8      	l32i.n	a15, a3, 8
    4c8c:	33e8      	l32i.n	a14, a3, 12
    4c8e:	43d8      	l32i.n	a13, a3, 16
    4c90:	c3c8      	l32i.n	a12, a3, 48
    4c92:	b3b8      	l32i.n	a11, a3, 44
    4c94:	41a150        	srli	a10, a5, 1
    4c97:	a5aa      	add.n	a10, a5, a10
    4c99:	486252        	s32i	a5, a2, 0x120
    4c9c:	c2c9      	s32i.n	a12, a2, 48
    4c9e:	42d9      	s32i.n	a13, a2, 16
    4ca0:	32e9      	s32i.n	a14, a2, 12
    4ca2:	22f9      	s32i.n	a15, a2, 8
    4ca4:	b2b9      	s32i.n	a11, a2, 44
    4ca6:	030c      	movi.n	a3, 0
    4ca8:	3962a2        	s32i	a10, a2, 228
    4cab:	1239      	s32i.n	a3, a2, 4
    4cad:	4f6232        	s32i	a3, a2, 0x13c
    4cb0:	156232        	s32i	a3, a2, 84
    4cb3:	136232        	s32i	a3, a2, 76
    4cb6:	a239      	s32i.n	a3, a2, 40
    4cb8:	9239      	s32i.n	a3, a2, 36
    4cba:	8239      	s32i.n	a3, a2, 32
    4cbc:	7239      	s32i.n	a3, a2, 28
    4cbe:	6239      	s32i.n	a3, a2, 24
    4cc0:	5239      	s32i.n	a3, a2, 20
    4cc2:	506232        	s32i	a3, a2, 0x140
    4cc5:	476232        	s32i	a3, a2, 0x11c
    4cc8:	106292        	s32i	a9, a2, 64
    4ccb:	ba5a      	add.n	a11, a10, a5
    4ccd:	3a62b2        	s32i	a11, a2, 232
    4cd0:	190c      	movi.n	a9, 1
    4cd2:	146292        	s32i	a9, a2, 80
    4cd5:	06b8      	l32i.n	a11, a6, 0
    4cd7:	5b9c      	beqz.n	a11, 0x4cf0
    4cd9:	4448      	l32i.n	a4, a4, 16
    4cdb:	04ad      	mov.n	a10, a4
    4cdd:	06d9e5        	excw
    4ce0:	536232        	s32i	a3, a2, 0x14c
    4ce3:	5162a2        	s32i	a10, a2, 0x144
    4ce6:	c084a0        	sub	a8, a4, a10
    4ce9:	526282        	s32i	a8, a2, 0x148
    4cec:	f01d      	excw
    4cee:	920000        	excw
    4cf1:	a85162        	s16i	a6, a1, 0x150
    4cf4:	623244        	excw
    4cf7:	aa0b53        	excw
    4cfa:	5262a2        	s32i	a10, a2, 0x148
    4cfd:	f01d      	excw
    4cff:	413600        	srli	a3, a0, 6
    4d02:	824800        	mull	a4, a8, a0
    4d05:	02e971        	l32r	a7, 0xfffc58ac
    4d08:	5ca452        	movi	a5, 0x45c
    4d0b:	17d462        	addmi	a6, a4, 0x1700
    4d0e:	447a      	add.n	a4, a4, a7
    4d10:	802482        	l32i	a8, a4, 0x200
    4d13:	382662        	l32i	a6, a6, 224
    4d16:	525a      	add.n	a5, a2, a5
    4d18:	418480        	srli	a8, a8, 4
    4d1b:	b689      	s32i.n	a8, a6, 44
    4d1d:	7f2572        	l32i	a7, a5, 0x1fc
    4d20:	417370        	srli	a7, a7, 3
    4d23:	e679      	s32i.n	a7, a6, 56
    4d25:	802552        	l32i	a5, a5, 0x200
    4d28:	2638      	l32i.n	a3, a6, 8
    4d2a:	415350        	srli	a5, a5, 3
    4d2d:	f659      	s32i.n	a5, a6, 60
    4d2f:	04f316        	beqz	a3, 0x4d82
    4d32:	7f24a2        	l32i	a10, a4, 0x1fc
    4d35:	7e2492        	l32i	a9, a4, 0x1f8
    4d38:	02ae61        	l32r	a6, 0xfffc57f0
    4d3b:	10f9a3        	excw
    4d3e:	106692        	s32i	a9, a6, 64
    4d41:	02ea91        	l32r	a9, 0xfffc58ec
    4d44:	7e2482        	l32i	a8, a4, 0x1f8
    4d47:	142652        	l32i	a5, a6, 80
    4d4a:	025231        	l32r	a3, 0xfffc5694
    4d4d:	0188f0        	slli	a8, a8, 17
    4d50:	105590        	and	a5, a5, a9
    4d53:	024391        	l32r	a9, 0xfffc5660
    4d56:	205580        	or	a5, a5, a8
    4d59:	146652        	s32i	a5, a6, 80
    4d5c:	c82922        	l32i	a2, a9, 0x320
    4d5f:	02eba1        	l32r	a10, 0xfffc590c
    4d62:	202230        	or	a2, a2, a3
    4d65:	c86922        	s32i	a2, a9, 0x320
    4d68:	c829f2        	l32i	a15, a9, 0x320
    4d6b:	c829e2        	l32i	a14, a9, 0x320
    4d6e:	c829d2        	l32i	a13, a9, 0x320
    4d71:	c829c2        	l32i	a12, a9, 0x320
    4d74:	c829b2        	l32i	a11, a9, 0x320
    4d77:	c82982        	l32i	a8, a9, 0x320
    4d7a:	1088a0        	and	a8, a8, a10
    4d7d:	c86982        	s32i	a8, a9, 0x320
    4d80:	f01d      	excw
    4d82:	f01d      	excw
    4d84:	004136        	excw
    4d87:	460c      	movi.n	a6, 4
    4d89:	1c0c      	movi.n	a12, 1
    4d8b:	02aea1        	l32r	a10, 0xfffc5844
    4d8e:	02ec91        	l32r	a9, 0xfffc5940
    4d91:	02bbb1        	l32r	a11, 0xfffc5880
    4d94:	0d0c      	movi.n	a13, 0
    4d96:	19d232        	addmi	a3, a2, 0x1900
    4d99:	192b82        	l32i	a8, a11, 100
    4d9c:	252332        	l32i	a3, a3, 148
    4d9f:	fddb42        	addmi	a4, a11, 0xfffffd00
    4da2:	04a816        	beqz	a8, 0x4df0
    4da5:	0d7d      	mov.n	a7, a13
    4da7:	529a      	add.n	a5, a2, a9
    4da9:	d92482        	l32i	a8, a4, 0x364
    4dac:	08bc      	beqz.n	a8, 0x4de0
    4dae:	d2d8      	l32i.n	a13, a2, 52
    4db0:	9b65c2        	s32i	a12, a5, 0x26c
    4db3:	296d62        	s32i	a6, a13, 164
    4db6:	500392        	l8ui	a9, a3, 80
    4db9:	fba0f2        	movi	a15, 251
    4dbc:	fea0a2        	movi	a10, 254
    4dbf:	1099a0        	and	a9, a9, a10
    4dc2:	2099c0        	or	a9, a9, a12
    4dc5:	504392        	s8i	a9, a3, 80
    4dc8:	d824a2        	l32i	a10, a4, 0x360
    4dcb:	10f9f0        	and	a15, a9, a15
    4dce:	20ff60        	or	a15, a15, a6
    4dd1:	9a9c      	beqz.n	a10, 0x4dee
    4dd3:	5043f2        	s8i	a15, a3, 80
    4dd6:	d824e2        	l32i	a14, a4, 0x360
    4dd9:	ee0b      	addi.n	a14, a14, -1
    4ddb:	186be2        	s32i	a14, a11, 96
    4dde:	f01d      	excw
    4de0:	fca756        	bnez	a7, 0x4dae
    4de3:	136ad2        	s32i	a13, a10, 76
    4de6:	196ad2        	s32i	a13, a10, 100
    4de9:	9b65d2        	s32i	a13, a5, 0x26c
    4dec:	f01d      	excw
    4dee:	f01d      	excw
    4df0:	132a82        	l32i	a8, a10, 76
    4df3:	15e807        	bbsi	a8, 0, 0x4e0c
    4df6:	192be2        	l32i	a14, a11, 100
    4df9:	fecc      	bnez.n	a14, 0x4e0c
    4dfb:	0001c6        	j	0x4e06
    4dfe:	f20000        	excw
    4e01:	56d924        	excw
    4e04:	5f          	.byte 0x5f
    4e05:	2a8200        	excw
    4e08:	680713        	excw
    4e0b:	12e8f3        	excw
    4e0e:	1ee8      	l32i.n	a14, a14, 4
    4e10:	529a      	add.n	a5, a2, a9
    4e12:	070c      	movi.n	a7, 0
    4e14:	086e16        	beqz	a14, 0x4e9e
    4e17:	fe1b      	addi.n	a15, a14, 1
    4e19:	0a4f16        	beqz	a15, 0x4ec1
    4e1c:	a725e2        	l32i	a14, a5, 0x29c
    4e1f:	0a7e16        	beqz	a14, 0x4eca
    4e22:	982592        	l32i	a9, a5, 0x260
    4e25:	1288      	l32i.n	a8, a2, 4
    4e27:	991b      	addi.n	a9, a9, 1
    4e29:	986592        	s32i	a9, a5, 0x260
    4e2c:	1888      	l32i.n	a8, a8, 4
    4e2e:	fe1b      	addi.n	a15, a14, 1
    4e30:	05be87        	bgeu	a14, a8, 0x4e39
    4e33:	a765f2        	s32i	a15, a5, 0x29c
    4e36:	000086        	j	0x4e3c
    4e39:	a765d2        	s32i	a13, a5, 0x29c
    4e3c:	170c      	movi.n	a7, 1
    4e3e:	932582        	l32i	a8, a5, 0x24c
    4e41:	05f816        	beqz	a8, 0x4ea4
    4e44:	170c      	movi.n	a7, 1
    4e46:	000186        	j	0x4e50
    4e49:	d92492        	l32i	a9, a4, 0x364
    4e4c:	f03d      	nop.n
    4e4e:	69cc      	bnez.n	a9, 0x4e58
    4e50:	132ae2        	l32i	a14, a10, 76
    4e53:	f03d      	nop.n
    4e55:	f06e27        	bbci	a14, 2, 0x4e49
    4e58:	d924f2        	l32i	a15, a4, 0x364
    4e5b:	ffcff2        	addi	a15, a15, -1
    4e5e:	196bf2        	s32i	a15, a11, 100
    4e61:	572582        	l32i	a8, a5, 0x15c
    4e64:	f41856        	bnez	a8, 0x4da9
    4e67:	024eb1        	l32r	a11, 0xfffc57a0
    4e6a:	024bc1        	l32r	a12, 0xfffc5798
    4e6d:	c42b92        	l32i	a9, a11, 0x310
    4e70:	024da1        	l32r	a10, 0xfffc57a4
    4e73:	2099c0        	or	a9, a9, a12
    4e76:	c46b92        	s32i	a9, a11, 0x310
    4e79:	fb8da5        	excw
    4e7c:	024ee1        	l32r	a14, 0xfffc57b4
    4e7f:	02d0f1        	l32r	a15, 0xfffc59c0
    4e82:	c22ed2        	l32i	a13, a14, 0x308
    4e85:	0251a1        	l32r	a10, 0xfffc57cc
    4e88:	20ddf0        	or	a13, a13, a15
    4e8b:	c26ed2        	s32i	a13, a14, 0x308
    4e8e:	fb8c65        	excw
    4e91:	02aea1        	l32r	a10, 0xfffc594c
    4e94:	02bbb1        	l32r	a11, 0xfffc5980
    4e97:	1c0c      	movi.n	a12, 1
    4e99:	0d0c      	movi.n	a13, 0
    4e9b:	ffc286        	j	0x4da9
    4e9e:	529a      	add.n	a5, a2, a9
    4ea0:	ffe686        	j	0x4e3e
    4ea3:	258200        	extui	a8, a0, 18, 3
    4ea6:	985692        	s16i	a9, a6, 0x130
    4ea9:	92f9      	s32i.n	a15, a2, 36
    4eab:	56db24        	excw
    4eae:	f939      	s32i.n	a3, a9, 60
    4eb0:	f9c756        	bnez	a7, 0x4e50
    4eb3:	0e1c      	movi.n	a14, 16
    4eb5:	136ae2        	s32i	a14, a10, 76
    4eb8:	132af2        	l32i	a15, a10, 76
    4ebb:	f90fe7        	bnone	a15, a14, 0x4eb8
    4ebe:	ffe7c6        	j	0x4e61
    4ec1:	582582        	l32i	a8, a5, 0x160
    4ec4:	f74856        	bnez	a8, 0x4e3c
    4ec7:	ffd446        	j	0x4e1c
    4eca:	070c      	movi.n	a7, 0
    4ecc:	9e1b      	addi.n	a9, a14, 1
    4ece:	a76592        	s32i	a9, a5, 0x29c
    4ed1:	ffda46        	j	0x4e3e
    4ed4:	006136        	excw
    4ed7:	1268      	l32i.n	a6, a2, 4
    4ed9:	02e271        	l32r	a7, 0xfffc5a64
    4edc:	039d      	mov.n	a9, a3
    4ede:	d2b8      	l32i.n	a11, a2, 52
    4ee0:	11b9      	s32i.n	a11, a1, 4
    4ee2:	2199      	s32i.n	a9, a1, 8
    4ee4:	727a      	add.n	a7, a2, a7
    4ee6:	0668      	l32i.n	a6, a6, 0
    4ee8:	142b32        	l32i	a3, a11, 80
    4eeb:	4e2722        	l32i	a2, a7, 0x138
    4eee:	86cc      	bnez.n	a6, 0x4efa
    4ef0:	180c      	movi.n	a8, 1
    4ef2:	0a0c      	movi.n	a10, 0
    4ef4:	83a820        	moveqz	a10, a8, a2
    4ef7:	000986        	j	0x4f21
    4efa:	02ad      	mov.n	a10, a2
    4efc:	06bd      	mov.n	a11, a6
    4efe:	06b7e5        	excw
    4f01:	8296a0        	mull	a9, a6, a10
    4f04:	01a9      	s32i.n	a10, a1, 0
    4f06:	03b927        	bgeu	a9, a2, 0x4f0d
    4f09:	aa1b      	addi.n	a10, a10, 1
    4f0b:	01a9      	s32i.n	a10, a1, 0
    4f0d:	06bd      	mov.n	a11, a6
    4f0f:	a23a      	add.n	a10, a2, a3
    4f11:	aa0b      	addi.n	a10, a10, -1
    4f13:	06b6a5        	excw
    4f16:	01c8      	l32i.n	a12, a1, 0
    4f18:	2198      	l32i.n	a9, a1, 8
    4f1a:	11b8      	l32i.n	a11, a1, 4
    4f1c:	c0aac0        	sub	a10, a10, a12
    4f1f:	aa1b      	addi.n	a10, a10, 1
    4f21:	7abc      	beqz.n	a10, 0x4f5c
    4f23:	2b2bd2        	l32i	a13, a11, 172
    4f26:	2dbc      	beqz.n	a13, 0x4f5c
    4f28:	829c      	beqz.n	a2, 0x4f44
    4f2a:	b027e2        	l32i	a14, a7, 0x2c0
    4f2d:	0b0c      	movi.n	a11, 0
    4f2f:	111e26        	beqi	a14, 1, 0x4f44
    4f32:	a72782        	l32i	a8, a7, 0x29c
    4f35:	09b9      	s32i.n	a11, a9, 0
    4f37:	8288a0        	mull	a8, a8, a10
    4f3a:	0489      	s32i.n	a8, a4, 0
    4f3c:	c0f380        	sub	a15, a3, a8
    4f3f:	05f9      	s32i.n	a15, a5, 0
    4f41:	f01d      	excw
    4f43:	27c200        	excw
    4f46:	b30ba7        	bnone	a11, a10, 0x4efd
    4f49:	da0b      	addi.n	a13, a10, -1
    4f4b:	82ccd0        	mull	a12, a12, a13
    4f4e:	1d0c      	movi.n	a13, 1
    4f50:	c0bbc0        	sub	a11, a11, a12
    4f53:	09d9      	s32i.n	a13, a9, 0
    4f55:	04c9      	s32i.n	a12, a4, 0
    4f57:	05b9      	s32i.n	a11, a5, 0
    4f59:	f01d      	excw
    4f5b:	e3a000        	excw
    4f5e:	09a9c0        	excw
    4f61:	0f0c      	movi.n	a15, 0
    4f63:	04f9      	s32i.n	a15, a4, 0
    4f65:	05e9      	s32i.n	a14, a5, 0
    4f67:	f01d      	excw
    4f69:	000000        	ill
    4f6c:	004136        	excw
    4f6f:	8258      	l32i.n	a5, a2, 32
    4f71:	02e261        	l32r	a6, 0xfffc5afc
    4f74:	090c      	movi.n	a9, 0
    4f76:	1578      	l32i.n	a7, a5, 4
    4f78:	656a      	add.n	a6, a5, a6
    4f7a:	b02682        	l32i	a8, a6, 0x2c0
    4f7d:	d5b8      	l32i.n	a11, a5, 52
    4f7f:	b538      	l32i.n	a3, a5, 44
    4f81:	880b      	addi.n	a8, a8, -1
    4f83:	135816        	beqz	a8, 0x50bc
    4f86:	4f2342        	l32i	a4, a3, 0x13c
    4f89:	132b82        	l32i	a8, a11, 76
    4f8c:	142bb2        	l32i	a11, a11, 80
    4f8f:	68ac      	beqz.n	a8, 0x4fb9
    4f91:	00b416        	beqz	a4, 0x4fa0
    4f94:	1bac      	beqz.n	a11, 0x4fb9
    4f96:	4e26a2        	l32i	a10, a6, 0x138
    4f99:	06aae5        	excw
    4f9c:	090c      	movi.n	a9, 0
    4f9e:	7adc      	bnez.n	a10, 0x4fb9
    4fa0:	05ad      	mov.n	a10, a5
    4fa2:	48a1d2        	movi	a13, 0x148
    4fa5:	50a1c2        	movi	a12, 0x150
    4fa8:	44a1b2        	movi	a11, 0x144
    4fab:	b3ba      	add.n	a11, a3, a11
    4fad:	c3ca      	add.n	a12, a3, a12
    4faf:	d3da      	add.n	a13, a3, a13
    4fb1:	fff225        	excw
    4fb4:	090c      	movi.n	a9, 0
    4fb6:	4f2342        	l32i	a4, a3, 0x13c
    4fb9:	0399      	s32i.n	a9, a3, 0
    4fbb:	3a0c      	movi.n	a10, 3
    4fbd:	107416        	beqz	a4, 0x50c8
    4fc0:	07b8      	l32i.n	a11, a7, 0
    4fc2:	8b8c      	beqz.n	a11, 0x4fce
    4fc4:	04ad      	mov.n	a10, a4
    4fc6:	06a825        	excw
    4fc9:	090c      	movi.n	a9, 0
    4fcb:	136a16        	beqz	a10, 0x5105
    4fce:	0a0c      	movi.n	a10, 0
    4fd0:	5023d2        	l32i	a13, a3, 0x140
    4fd3:	0d25b2        	l32i	a11, a5, 52
    4fd6:	106392        	s32i	a9, a3, 64
    4fd9:	af26c2        	l32i	a12, a6, 0x2bc
    4fdc:	02b8e1        	l32r	a14, 0xfffc5abc
    4fdf:	dd2ee2        	l32i	a14, a14, 0x374
    4fe2:	002e16        	beqz	a14, 0x4fe8
    4fe5:	0efa16        	beqz	a10, 0x50d8
    4fe8:	3663a2        	s32i	a10, a3, 216
    4feb:	376342        	s32i	a4, a3, 220
    4fee:	3863d2        	s32i	a13, a3, 224
    4ff1:	190c      	movi.n	a9, 1
    4ff3:	1388      	l32i.n	a8, a3, 4
    4ff5:	356382        	s32i	a8, a3, 212
    4ff8:	93c9c0        	movnez	a12, a9, a12
    4ffb:	5563c2        	s32i	a12, a3, 0x154
    4ffe:	2a2bf2        	l32i	a15, a11, 168
    5001:	3a23a2        	l32i	a10, a3, 232
    5004:	144f26        	beqi	a15, 4, 0x501c
    5007:	3923c2        	l32i	a12, a3, 228
    500a:	4723d2        	l32i	a13, a3, 0x11c
    500d:	4823b2        	l32i	a11, a3, 0x120
    5010:	3a63b2        	s32i	a11, a3, 232
    5013:	4863a2        	s32i	a10, a3, 0x120
    5016:	3963d2        	s32i	a13, a3, 228
    5019:	4763c2        	s32i	a12, a3, 0x11c
    501c:	20a220        	or	a10, a2, a2
    501f:	001525        	excw
    5022:	0d2582        	l32i	a8, a5, 52
    5025:	fccae2        	addi	a14, a10, -4
    5028:	2928f2        	l32i	a15, a8, 164
    502b:	2a68f2        	s32i	a15, a8, 168
    502e:	0efe16        	beqz	a14, 0x5121
    5031:	102392        	l32i	a9, a3, 64
    5034:	058916        	beqz	a9, 0x5090
    5037:	4149f6        	bgeui	a9, 4, 0x507c
    503a:	3e29b6        	bltui	a9, 2, 0x507c
    503d:	542392        	l32i	a9, a3, 0x150
    5040:	202aa0        	or	a2, a10, a10
    5043:	59bc      	beqz.n	a9, 0x507c
    5045:	4f23c2        	l32i	a12, a3, 0x13c
    5048:	5023b2        	l32i	a11, a3, 0x140
    504b:	d90b      	addi.n	a13, a9, -1
    504d:	5463d2        	s32i	a13, a3, 0x150
    5050:	bb1b      	addi.n	a11, a11, 1
    5052:	cc1b      	addi.n	a12, a12, 1
    5054:	4f63c2        	s32i	a12, a3, 0x13c
    5057:	5063b2        	s32i	a11, a3, 0x140
    505a:	f01d      	excw
    505c:	522392        	l32i	a9, a3, 0x148
    505f:	999c      	beqz.n	a9, 0x507c
    5061:	4f2322        	l32i	a2, a3, 0x13c
    5064:	5023f2        	l32i	a15, a3, 0x140
    5067:	e90b      	addi.n	a14, a9, -1
    5069:	5263e2        	s32i	a14, a3, 0x148
    506c:	ff1b      	addi.n	a15, a15, 1
    506e:	221b      	addi.n	a2, a2, 1
    5070:	4f6322        	s32i	a2, a3, 0x13c
    5073:	5063f2        	s32i	a15, a3, 0x140
    5076:	0a2d      	mov.n	a2, a10
    5078:	f01d      	excw
    507a:	f20000        	excw
    507d:	225023        	excw
    5080:	1b4f23        	excw
    5083:	ff          	.byte 0xff
    5084:	221b      	addi.n	a2, a2, 1
    5086:	4f6322        	s32i	a2, a3, 0x13c
    5089:	5063f2        	s32i	a15, a3, 0x140
    508c:	0a2d      	mov.n	a2, a10
    508e:	f01d      	excw
    5090:	af26c2        	l32i	a12, a6, 0x2bc
    5093:	fc5c16        	beqz	a12, 0x505c
    5096:	542392        	l32i	a9, a3, 0x150
    5099:	398c      	beqz.n	a9, 0x50a0
    509b:	890b      	addi.n	a8, a9, -1
    509d:	546382        	s32i	a8, a3, 0x150
    50a0:	fd8c16        	beqz	a12, 0x507c
    50a3:	dc0b      	addi.n	a13, a12, -1
    50a5:	af66d2        	s32i	a13, a6, 0x2bc
    50a8:	502392        	l32i	a9, a3, 0x140
    50ab:	4f23b2        	l32i	a11, a3, 0x13c
    50ae:	0a2d      	mov.n	a2, a10
    50b0:	991b      	addi.n	a9, a9, 1
    50b2:	bb1b      	addi.n	a11, a11, 1
    50b4:	4f63b2        	s32i	a11, a3, 0x13c
    50b7:	506392        	s32i	a9, a3, 0x140
    50ba:	f01d      	excw
    50bc:	4f6392        	s32i	a9, a3, 0x13c
    50bf:	506392        	s32i	a9, a3, 0x140
    50c2:	094d      	mov.n	a4, a9
    50c4:	ffb046        	j	0x4f89
    50c7:	0c0c00        	excw
    50ca:	d5b8      	l32i.n	a11, a5, 52
    50cc:	1063a2        	s32i	a10, a3, 64
    50cf:	af6692        	s32i	a9, a6, 0x2bc
    50d2:	5023d2        	l32i	a13, a3, 0x140
    50d5:	ffc0c6        	j	0x4fdc
    50d8:	2f0c      	movi.n	a15, 2
    50da:	1063f2        	s32i	a15, a3, 64
    50dd:	2b2be2        	l32i	a14, a11, 172
    50e0:	2a0c      	movi.n	a10, 2
    50e2:	febc      	beqz.n	a14, 0x5125
    50e4:	dcbc      	beqz.n	a12, 0x5125
    50e6:	5123e2        	l32i	a14, a3, 0x144
    50e9:	522382        	l32i	a8, a3, 0x148
    50ec:	d5b8      	l32i.n	a11, a5, 52
    50ee:	546392        	s32i	a9, a3, 0x150
    50f1:	88ca      	add.n	a8, a8, a12
    50f3:	ee1b      	addi.n	a14, a14, 1
    50f5:	0c0c      	movi.n	a12, 0
    50f7:	5163e2        	s32i	a14, a3, 0x144
    50fa:	880b      	addi.n	a8, a8, -1
    50fc:	526382        	s32i	a8, a3, 0x148
    50ff:	af6692        	s32i	a9, a6, 0x2bc
    5102:	ffb886        	j	0x4fe8
    5105:	d5b8      	l32i.n	a11, a5, 52
    5107:	2b2ba2        	l32i	a10, a11, 172
    510a:	eaac      	beqz.n	a10, 0x513c
    510c:	0a0c      	movi.n	a10, 0
    510e:	106392        	s32i	a9, a3, 64
    5111:	a726c2        	l32i	a12, a6, 0x29c
    5114:	af66c2        	s32i	a12, a6, 0x2bc
    5117:	5023d2        	l32i	a13, a3, 0x140
    511a:	1e1c      	movi.n	a14, 17
    511c:	03e9      	s32i.n	a14, a3, 0
    511e:	ffae86        	j	0x4fdc
    5121:	0a2d      	mov.n	a2, a10
    5123:	f01d      	excw
    5125:	5123f2        	l32i	a15, a3, 0x144
    5128:	522392        	l32i	a9, a3, 0x148
    512b:	ff1b      	addi.n	a15, a15, 1
    512d:	5163f2        	s32i	a15, a3, 0x144
    5130:	eb4916        	beqz	a9, 0x4fe8
    5133:	890b      	addi.n	a8, a9, -1
    5135:	526382        	s32i	a8, a3, 0x148
    5138:	ffab06        	j	0x4fe8
    513b:	040c00        	extui	a0, a0, 12, 1
    513e:	0d0c      	movi.n	a13, 0
    5140:	4f6392        	s32i	a9, a3, 0x13c
    5143:	3a0c      	movi.n	a10, 3
    5145:	506392        	s32i	a9, a3, 0x140
    5148:	1063a2        	s32i	a10, a3, 64
    514b:	3a0c      	movi.n	a10, 3
    514d:	af26c2        	l32i	a12, a6, 0x2bc
    5150:	fff186        	j	0x511a
    5153:	413600        	srli	a3, a0, 6
    5156:	433100        	excw
    5159:	239202        	l16si	a0, a2, 70
    515c:	3299e3        	excw
    515f:	e42382        	l32i	a8, a3, 0x390
    5162:	2289      	s32i.n	a8, a2, 8
    5164:	de2342        	l32i	a4, a3, 0x378
    5167:	6249      	s32i.n	a4, a2, 24
    5169:	df2332        	l32i	a3, a3, 0x37c
    516c:	5239      	s32i.n	a3, a2, 20
    516e:	f01d      	excw
    5170:	00c136        	excw
    5173:	24a782        	movi	a8, 0x724
    5176:	0a0c      	movi.n	a10, 0
    5178:	8258      	l32i.n	a5, a2, 32
    517a:	02edc1        	l32r	a12, 0xfffc5d30
    517d:	02ee61        	l32r	a6, 0xfffc5d38
    5180:	d548      	l32i.n	a4, a5, 52
    5182:	5c25b2        	l32i	a11, a5, 0x170
    5185:	1cd532        	addmi	a3, a5, 0x1c00
    5188:	656a      	add.n	a6, a5, a6
    518a:	c5ca      	add.n	a12, a5, a12
    518c:	3b2c72        	l32i	a7, a12, 236
    518f:	a82cd2        	l32i	a13, a12, 0x2a0
    5192:	6d63a2        	s32i	a10, a3, 0x1b4
    5195:	c36ca2        	s32i	a10, a12, 0x30c
    5198:	c16ca2        	s32i	a10, a12, 0x304
    519b:	e825e2        	l32i	a14, a5, 0x3a0
    519e:	b5f8      	l32i.n	a15, a5, 44
    51a0:	c26ca2        	s32i	a10, a12, 0x308
    51a3:	ee8a      	add.n	a14, a14, a8
    51a5:	2767a2        	s32i	a10, a7, 156
    51a8:	2667a2        	s32i	a10, a7, 152
    51ab:	dc2682        	l32i	a8, a6, 0x370
    51ae:	152ff2        	l32i	a15, a15, 84
    51b1:	dd66f2        	s32i	a15, a6, 0x374
    51b4:	ffc882        	addi	a8, a8, -1
    51b7:	46d816        	beqz	a8, 0x5628
    51ba:	81d9      	s32i.n	a13, a1, 32
    51bc:	44a382        	movi	a8, 0x344
    51bf:	828f80        	mull	a8, a15, a8
    51c2:	06d292        	addmi	a9, a2, 0x600
    51c5:	8e8a      	add.n	a8, a14, a8
    51c7:	0888      	l32i.n	a8, a8, 0
    51c9:	9199      	s32i.n	a9, a1, 36
    51cb:	190c      	movi.n	a9, 1
    51cd:	938980        	movnez	a8, a9, a8
    51d0:	136482        	s32i	a8, a4, 76
    51d3:	1f1866        	bnei	a8, 1, 0x51f6
    51d6:	3323f2        	l32i	a15, a3, 204
    51d9:	9198      	l32i.n	a9, a1, 36
    51db:	44a382        	movi	a8, 0x344
    51de:	82ff80        	mull	a15, a15, a8
    51e1:	5b2982        	l32i	a8, a9, 0x16c
    51e4:	80fef0        	add	a15, a14, a15
    51e7:	446f82        	s32i	a8, a15, 0x110
    51ea:	5c2982        	l32i	a8, a9, 0x170
    51ed:	456f82        	s32i	a8, a15, 0x114
    51f0:	5e2992        	l32i	a9, a9, 0x178
    51f3:	466f92        	s32i	a9, a15, 0x118
    51f6:	0298      	l32i.n	a9, a2, 0
    51f8:	61b9      	s32i.n	a11, a1, 24
    51fa:	71c9      	s32i.n	a12, a1, 28
    51fc:	4aa916        	beqz	a9, 0x56aa
    51ff:	91a8      	l32i.n	a10, a1, 36
    5201:	0e2ab2        	l32i	a11, a10, 56
    5204:	4263b2        	s32i	a11, a3, 0x108
    5207:	162aa2        	l32i	a10, a10, 88
    520a:	ff12a5        	excw
    520d:	3063a2        	s32i	a10, a3, 192
    5210:	91a8      	l32i.n	a10, a1, 36
    5212:	f03d      	nop.n
    5214:	152aa2        	l32i	a10, a10, 84
    5217:	ff11e5        	excw
    521a:	190c      	movi.n	a9, 1
    521c:	81c8      	l32i.n	a12, a1, 32
    521e:	0b0c      	movi.n	a11, 0
    5220:	02aee1        	l32r	a14, 0xfffc5cd8
    5223:	3163a2        	s32i	a10, a3, 196
    5226:	6027d2        	l32i	a13, a7, 0x180
    5229:	d16ed2        	s32i	a13, a14, 0x344
    522c:	146cb2        	s32i	a11, a12, 80
    522f:	d326f2        	l32i	a15, a6, 0x34c
    5232:	6fcc      	bnez.n	a15, 0x523c
    5234:	20a220        	or	a10, a2, a2
    5237:	ffaca5        	excw
    523a:	190c      	movi.n	a9, 1
    523c:	05b8      	l32i.n	a11, a5, 0
    523e:	d90382        	l8ui	a8, a3, 217
    5241:	3ba8      	l32i.n	a10, a11, 12
    5243:	51a9      	s32i.n	a10, a1, 20
    5245:	031866        	bnei	a8, 1, 0x524c
    5248:	3b99      	s32i.n	a9, a11, 12
    524a:	1a0c      	movi.n	a10, 1
    524c:	3cca16        	beqz	a10, 0x561c
    524f:	3499      	s32i.n	a9, a4, 12
    5251:	91c8      	l32i.n	a12, a1, 36
    5253:	acb8      	l32i.n	a11, a12, 40
    5255:	05d8      	l32i.n	a13, a5, 0
    5257:	04a4b0        	extui	a10, a11, 4, 1
    525a:	eb66a2        	s32i	a10, a6, 0x3ac
    525d:	04b0b0        	extui	a11, a11, 0, 1
    5260:	ea66b2        	s32i	a11, a6, 0x3a8
    5263:	bc88      	l32i.n	a8, a12, 44
    5265:	1f0c      	movi.n	a15, 1
    5267:	0e0c      	movi.n	a14, 0
    5269:	fec882        	addi	a8, a8, -2
    526c:	83ef80        	moveqz	a14, a15, a8
    526f:	e966e2        	s32i	a14, a6, 0x3a4
    5272:	cdd8      	l32i.n	a13, a13, 48
    5274:	2b64d2        	s32i	a13, a4, 172
    5277:	ccc8      	l32i.n	a12, a12, 48
    5279:	2f64c2        	s32i	a12, a4, 188
    527c:	27b8      	l32i.n	a11, a7, 8
    527e:	02b8a1        	l32r	a10, 0xfffc5d60
    5281:	2c24d2        	l32i	a13, a4, 176
    5284:	1f5b16        	beqz	a11, 0x547d
    5287:	dd2ac2        	l32i	a12, a10, 0x374
    528a:	1efc16        	beqz	a12, 0x547d
    528d:	2a0c      	movi.n	a10, 2
    528f:	2964a2        	s32i	a10, a4, 164
    5292:	1499      	s32i.n	a9, a4, 4
    5294:	8d8c      	beqz.n	a13, 0x52a0
    5296:	61e8      	l32i.n	a14, a1, 24
    5298:	6ee8      	l32i.n	a14, a14, 24
    529a:	2e8c      	beqz.n	a14, 0x52a0
    529c:	0f0c      	movi.n	a15, 0
    529e:	24f9      	s32i.n	a15, a4, 8
    52a0:	fcdc65        	excw
    52a3:	fce5a5        	excw
    52a6:	024aa1        	l32r	a10, 0xfffc5bd0
    52a9:	e825e2        	l32i	a14, a5, 0x3a0
    52ac:	b598      	l32i.n	a9, a5, 44
    52ae:	d288      	l32i.n	a8, a2, 52
    52b0:	14dee2        	addmi	a14, a14, 0x1400
    52b3:	6489      	s32i.n	a8, a4, 24
    52b5:	f2f8      	l32i.n	a15, a2, 60
    52b7:	74f9      	s32i.n	a15, a4, 28
    52b9:	1222d2        	l32i	a13, a2, 72
    52bc:	ded9      	s32i.n	a13, a14, 52
    52be:	1a22c2        	l32i	a12, a2, 104
    52c1:	536ac2        	s32i	a12, a10, 0x14c
    52c4:	1222b2        	l32i	a11, a2, 72
    52c7:	596ab2        	s32i	a11, a10, 0x164
    52ca:	b288      	l32i.n	a8, a2, 44
    52cc:	5a6a82        	s32i	a8, a10, 0x168
    52cf:	1322a2        	l32i	a10, a2, 76
    52d2:	3929f2        	l32i	a15, a9, 228
    52d5:	ffaa      	add.n	a15, a15, a10
    52d7:	2f67f2        	s32i	a15, a7, 188
    52da:	3a29e2        	l32i	a14, a9, 232
    52dd:	eeaa      	add.n	a14, a14, a10
    52df:	3067e2        	s32i	a14, a7, 192
    52e2:	3f29d2        	l32i	a13, a9, 252
    52e5:	ddaa      	add.n	a13, a13, a10
    52e7:	3167d2        	s32i	a13, a7, 196
    52ea:	4029c2        	l32i	a12, a9, 0x100
    52ed:	ccaa      	add.n	a12, a12, a10
    52ef:	3267c2        	s32i	a12, a7, 200
    52f2:	4729b2        	l32i	a11, a9, 0x11c
    52f5:	bbaa      	add.n	a11, a11, a10
    52f7:	2d67b2        	s32i	a11, a7, 180
    52fa:	482992        	l32i	a9, a9, 0x120
    52fd:	99aa      	add.n	a9, a9, a10
    52ff:	2e6792        	s32i	a9, a7, 184
    5302:	d22682        	l32i	a8, a6, 0x348
    5305:	041866        	bnei	a8, 1, 0x530d
    5308:	02ad      	mov.n	a10, a2
    530a:	006025        	excw
    530d:	45a8      	l32i.n	a10, a5, 16
    530f:	d726b2        	l32i	a11, a6, 0x35c
    5312:	e91c      	movi.n	a9, 30
    5314:	daa8      	l32i.n	a10, a10, 52
    5316:	0bb9b7        	bgeu	a9, a11, 0x5325
    5319:	70a0b2        	movi	a11, 112
    531c:	20bab0        	or	a11, a10, a11
    531f:	44b9      	s32i.n	a11, a4, 16
    5321:	000086        	j	0x5327
    5324:	44a900        	extui	a10, a0, 9, 5
    5327:	05ad      	mov.n	a10, a5
    5329:	04b2e5        	excw
    532c:	71c8      	l32i.n	a12, a1, 28
    532e:	3b2cc2        	l32i	a12, a12, 236
    5331:	acc8      	l32i.n	a12, a12, 40
    5333:	0e4cf6        	bgeui	a12, 4, 0x5345
    5336:	024ae1        	l32r	a14, 0xfffc5c60
    5339:	3e2ed2        	l32i	a13, a14, 248
    533c:	ffaef2        	movi	a15, 0xfffffeff
    533f:	10ddf0        	and	a13, a13, a15
    5342:	3e6ed2        	s32i	a13, a14, 248
    5345:	2c2482        	l32i	a8, a4, 176
    5348:	5c25e2        	l32i	a14, a5, 0x170
    534b:	0f0c      	movi.n	a15, 0
    534d:	789c      	beqz.n	a8, 0x5368
    534f:	024ac1        	l32r	a12, 0xfffc5c78
    5352:	61a8      	l32i.n	a10, a1, 24
    5354:	c2b8      	l32i.n	a11, a2, 48
    5356:	556cb2        	s32i	a11, a12, 0x154
    5359:	6aa8      	l32i.n	a10, a10, 24
    535b:	b298      	l32i.n	a9, a2, 44
    535d:	aa0b      	addi.n	a10, a10, -1
    535f:	425a16        	beqz	a10, 0x5788
    5362:	024ad1        	l32r	a13, 0xfffc5c8c
    5365:	5b6d92        	s32i	a9, a13, 0x16c
    5368:	02ae81        	l32r	a8, 0xfffc5e20
    536b:	b568f2        	s32i	a15, a8, 0x2d4
    536e:	e166f2        	s32i	a15, a6, 0x384
    5371:	0ee8      	l32i.n	a14, a14, 0
    5373:	051e66        	bnei	a14, 1, 0x537c
    5376:	20a550        	or	a10, a5, a5
    5379:	02b965        	excw
    537c:	02bba1        	l32r	a10, 0xfffc5e68
    537f:	2c24c2        	l32i	a12, a4, 176
    5382:	0b0c      	movi.n	a11, 0
    5384:	190c      	movi.n	a9, 1
    5386:	bcbc      	beqz.n	a12, 0x53c5
    5388:	05ad      	mov.n	a10, a5
    538a:	01baa5        	excw
    538d:	d326d2        	l32i	a13, a6, 0x34c
    5390:	4a1d16        	beqz	a13, 0x5835
    5393:	02b8e1        	l32r	a14, 0xfffc5e74
    5396:	ce2ef2        	l32i	a15, a14, 0x338
    5399:	090c      	movi.n	a9, 0
    539b:	1e6692        	s32i	a9, a6, 120
    539e:	04f0f0        	extui	a15, a15, 0, 1
    53a1:	1d66f2        	s32i	a15, a6, 116
    53a4:	cd2ee2        	l32i	a14, a14, 0x334
    53a7:	1e66f2        	s32i	a15, a6, 120
    53aa:	2066f2        	s32i	a15, a6, 128
    53ad:	1d66e2        	s32i	a14, a6, 116
    53b0:	1f66e2        	s32i	a14, a6, 124
    53b3:	7b23a2        	l32i	a10, a3, 0x1ec
    53b6:	7abc      	beqz.n	a10, 0x53f1
    53b8:	05ad      	mov.n	a10, a5
    53ba:	01e0a5        	excw
    53bd:	0b0c      	movi.n	a11, 0
    53bf:	7b63b2        	s32i	a11, a3, 0x1ec
    53c2:	000ac6        	j	0x53f1
    53c5:	5c25c2        	l32i	a12, a5, 0x170
    53c8:	3cc8      	l32i.n	a12, a12, 12
    53ca:	3cac      	beqz.n	a12, 0x53f1
    53cc:	d326d2        	l32i	a13, a6, 0x34c
    53cf:	2dcc      	bnez.n	a13, 0x53d5
    53d1:	eab9      	s32i.n	a11, a10, 56
    53d3:	dab9      	s32i.n	a11, a10, 52
    53d5:	02b8f1        	l32r	a15, 0xfffc5eb8
    53d8:	f03d      	nop.n
    53da:	ce2f82        	l32i	a8, a15, 0x338
    53dd:	0a0c      	movi.n	a10, 0
    53df:	1e66a2        	s32i	a10, a6, 120
    53e2:	108890        	and	a8, a8, a9
    53e5:	1d6682        	s32i	a8, a6, 116
    53e8:	cd2ff2        	l32i	a15, a15, 0x334
    53eb:	1e6682        	s32i	a8, a6, 120
    53ee:	1d66f2        	s32i	a15, a6, 116
    53f1:	8f23b2        	l32i	a11, a3, 0x23c
    53f4:	c1b9      	s32i.n	a11, a1, 48
    53f6:	051b16        	beqz	a11, 0x544b
    53f9:	35b8      	l32i.n	a11, a5, 12
    53fb:	2ba8      	l32i.n	a10, a11, 8
    53fd:	9bc8      	l32i.n	a12, a11, 36
    53ff:	a1c9      	s32i.n	a12, a1, 40
    5401:	3bb8      	l32i.n	a11, a11, 12
    5403:	0b61b2        	s32i	a11, a1, 44
    5406:	82aac0        	mull	a10, a10, a12
    5409:	066725        	excw
    540c:	b1b8      	l32i.n	a11, a1, 44
    540e:	a1c8      	l32i.n	a12, a1, 40
    5410:	6723d2        	l32i	a13, a3, 0x19c
    5413:	41efa0        	srli	a14, a10, 15
    5416:	41e9      	s32i.n	a14, a1, 16
    5418:	083df6        	bgeui	a13, 3, 0x5424
    541b:	1f0c      	movi.n	a15, 1
    541d:	6563f2        	s32i	a15, a3, 0x194
    5420:	000146        	j	0x5429
    5423:	080c00        	excw
    5426:	656382        	s32i	a8, a3, 0x194
    5429:	02efa1        	l32r	a10, 0xfffc5fe8
    542c:	82aca0        	mull	a10, a12, a10
    542f:	0664e5        	excw
    5432:	41d8      	l32i.n	a13, a1, 16
    5434:	6623c2        	l32i	a12, a3, 0x198
    5437:	c1b8      	l32i.n	a11, a1, 48
    5439:	ddaa      	add.n	a13, a13, a10
    543b:	07bcd7        	bgeu	a12, a13, 0x5446
    543e:	1e0c      	movi.n	a14, 1
    5440:	6463e2        	s32i	a14, a3, 0x190
    5443:	000106        	j	0x544b
    5446:	0f0c      	movi.n	a15, 0
    5448:	6463f2        	s32i	a15, a3, 0x190
    544b:	2788      	l32i.n	a8, a7, 8
    544d:	788c      	beqz.n	a8, 0x5458
    544f:	20a550        	or	a10, a5, a5
    5452:	ff9325        	excw
    5455:	8f23b2        	l32i	a11, a3, 0x23c
    5458:	070b16        	beqz	a11, 0x54cc
    545b:	652392        	l32i	a9, a3, 0x194
    545e:	a98c      	beqz.n	a9, 0x546c
    5460:	6823a2        	l32i	a10, a3, 0x1a0
    5463:	420c      	movi.n	a2, 4
    5465:	aa1b      	addi.n	a10, a10, 1
    5467:	6863a2        	s32i	a10, a3, 0x1a0
    546a:	f01d      	excw
    546c:	6423b2        	l32i	a11, a3, 0x190
    546f:	2b9c      	beqz.n	a11, 0x5485
    5471:	6923c2        	l32i	a12, a3, 0x1a4
    5474:	420c      	movi.n	a2, 4
    5476:	cc1b      	addi.n	a12, a12, 1
    5478:	6963c2        	s32i	a12, a3, 0x1a4
    547b:	f01d      	excw
    547d:	91a8      	l32i.n	a10, a1, 36
    547f:	1a2aa2        	l32i	a10, a10, 104
    5482:	ff8246        	j	0x528f
    5485:	15b8      	l32i.n	a11, a5, 4
    5487:	012bb2        	l32i	a11, a11, 4
    548a:	01cbb2        	addi	a11, a11, 1
    548d:	463b16        	beqz	a11, 0x58f4
    5490:	02b8c1        	l32r	a12, 0xfffc5f70
    5493:	db2cc2        	l32i	a12, a12, 0x36c
    5496:	071c66        	bnei	a12, 1, 0x54a1
    5499:	6c23d2        	l32i	a13, a3, 0x1b0
    549c:	dd1b      	addi.n	a13, a13, 1
    549e:	6c63d2        	s32i	a13, a3, 0x1b0
    54a1:	02b8e1        	l32r	a14, 0xfffc5f84
    54a4:	d92ee2        	l32i	a14, a14, 0x364
    54a7:	5e9c      	beqz.n	a14, 0x54c0
    54a9:	02b881        	l32r	a8, 0xfffc5f8c
    54ac:	d92882        	l32i	a8, a8, 0x364
    54af:	02bb91        	l32r	a9, 0xfffc5f9c
    54b2:	880b      	addi.n	a8, a8, -1
    54b4:	196982        	s32i	a8, a9, 100
    54b7:	6b23f2        	l32i	a15, a3, 0x1ac
    54ba:	01cff2        	addi	a15, a15, 1
    54bd:	6b63f2        	s32i	a15, a3, 0x1ac
    54c0:	6d2392        	l32i	a9, a3, 0x1b4
    54c3:	005916        	beqz	a9, 0x54cc
    54c6:	2a22a2        	l32i	a10, a2, 168
    54c9:	439a16        	beqz	a10, 0x5906
    54cc:	61b8      	l32i.n	a11, a1, 24
    54ce:	3bb8      	l32i.n	a11, a11, 12
    54d0:	2a0c      	movi.n	a10, 2
    54d2:	33ab16        	beqz	a11, 0x5810
    54d5:	7198      	l32i.n	a9, a1, 28
    54d7:	3b2992        	l32i	a9, a9, 236
    54da:	0a29c2        	l32i	a12, a9, 40
    54dd:	087cb6        	bltui	a12, 7, 0x54e9
    54e0:	0c29b2        	l32i	a11, a9, 48
    54e3:	023bb6        	bltui	a11, 3, 0x54e9
    54e6:	00ab86        	j	0x5798
    54e9:	292492        	l32i	a9, a4, 164
    54ec:	043926        	beqi	a9, 3, 0x54f4
    54ef:	2964a2        	s32i	a10, a4, 164
    54f2:	290c      	movi.n	a9, 2
    54f4:	044966        	bnei	a9, 4, 0x54fc
    54f7:	1c0c      	movi.n	a12, 1
    54f9:	6d63c2        	s32i	a12, a3, 0x1b4
    54fc:	05ad      	mov.n	a10, a5
    54fe:	fccc25        	excw
    5501:	0d0c      	movi.n	a13, 0
    5503:	02b8f1        	l32r	a15, 0xfffc5fe4
    5506:	02bbe1        	l32r	a14, 0xfffc5ff4
    5509:	b4a9      	s32i.n	a10, a4, 44
    550b:	dc2ff2        	l32i	a15, a15, 0x370
    550e:	1d6ef2        	s32i	a15, a14, 116
    5511:	1c6ed2        	s32i	a13, a14, 112
    5514:	572592        	l32i	a9, a5, 0x15c
    5517:	000982        	l8ui	a8, a9, 0
    551a:	041866        	bnei	a8, 1, 0x5522
    551d:	0a0c      	movi.n	a10, 0
    551f:	0049a2        	s8i	a10, a9, 0
    5522:	71d8      	l32i.n	a13, a1, 28
    5524:	1c0c      	movi.n	a12, 1
    5526:	ac6dc2        	s32i	a12, a13, 0x2b0
    5529:	2c24b2        	l32i	a11, a4, 176
    552c:	02b3a1        	l32r	a10, 0xfffc5ff8
    552f:	024e91        	l32r	a9, 0xfffc5e68
    5532:	31ab16        	beqz	a11, 0x5850
    5535:	61e8      	l32i.n	a14, a1, 24
    5537:	6ee8      	l32i.n	a14, a14, 24
    5539:	36be16        	beqz	a14, 0x58a8
    553c:	5c25f2        	l32i	a15, a5, 0x170
    553f:	0ff8      	l32i.n	a15, a15, 0
    5541:	35bf16        	beqz	a15, 0x58a0
    5544:	180c      	movi.n	a8, 1
    5546:	146682        	s32i	a8, a6, 80
    5549:	1429e2        	l32i	a14, a9, 80
    554c:	10eea0        	and	a14, a14, a10
    554f:	11eed0        	slli	a14, a14, 3
    5552:	e4e9      	s32i.n	a14, a4, 56
    5554:	1229d2        	l32i	a13, a9, 72
    5557:	0c0c      	movi.n	a12, 0
    5559:	10dda0        	and	a13, a13, a10
    555c:	11ddd0        	slli	a13, a13, 3
    555f:	b4d9      	s32i.n	a13, a4, 44
    5561:	1c66c2        	s32i	a12, a6, 112
    5564:	e126b2        	l32i	a11, a6, 0x384
    5567:	1b66b2        	s32i	a11, a6, 108
    556a:	e326f2        	l32i	a15, a6, 0x38c
    556d:	280f16        	beqz	a15, 0x57f1
    5570:	7188      	l32i.n	a8, a1, 28
    5572:	3b2882        	l32i	a8, a8, 236
    5575:	1222a2        	l32i	a10, a2, 72
    5578:	2f2882        	l32i	a8, a8, 188
    557b:	119a80        	slli	a9, a10, 8
    557e:	889a      	add.n	a8, a8, a9
    5580:	8198      	l32i.n	a9, a1, 32
    5582:	e989      	s32i.n	a8, a9, 56
    5584:	689392        	l16si	a9, a3, 208
    5587:	81c8      	l32i.n	a12, a1, 32
    5589:	75b8a0        	extui	a11, a10, 24, 8
    558c:	990b      	addi.n	a9, a9, -1
    558e:	fcb9      	s32i.n	a11, a12, 60
    5590:	2d0916        	beqz	a9, 0x5864
    5593:	262792        	l32i	a9, a7, 152
    5596:	fcc9d2        	addi	a13, a9, -4
    5599:	31bd16        	beqz	a13, 0x58b8
    559c:	e90b      	addi.n	a14, a9, -1
    559e:	1fee16        	beqz	a14, 0x57a0
    55a1:	fbc9f2        	addi	a15, a9, -5
    55a4:	1f8f16        	beqz	a15, 0x57a0
    55a7:	81e8      	l32i.n	a14, a1, 32
    55a9:	91c8      	l32i.n	a12, a1, 36
    55ab:	190c      	movi.n	a9, 1
    55ad:	0f0c      	movi.n	a15, 0
    55af:	a00622        	l8ui	a2, a6, 160
    55b2:	180c      	movi.n	a8, 1
    55b4:	216682        	s32i	a8, a6, 132
    55b7:	2727b2        	l32i	a11, a7, 156
    55ba:	d7a8      	l32i.n	a10, a7, 52
    55bc:	fea082        	movi	a8, 254
    55bf:	102280        	and	a2, a2, a8
    55c2:	c0aab0        	sub	a10, a10, a11
    55c5:	0b0c      	movi.n	a11, 0
    55c7:	83f9a0        	moveqz	a15, a9, a10
    55ca:	20ff20        	or	a15, a15, a2
    55cd:	5198      	l32i.n	a9, a1, 20
    55cf:	020c      	movi.n	a2, 0
    55d1:	a046f2        	s8i	a15, a6, 160
    55d4:	05a8      	l32i.n	a10, a5, 0
    55d6:	772cd2        	l32i	a13, a12, 0x1dc
    55d9:	1b6ed2        	s32i	a13, a14, 108
    55dc:	776cb2        	s32i	a11, a12, 0x1dc
    55df:	3a99      	s32i.n	a9, a10, 12
    55e1:	f01d      	excw
    55e3:	81e800        	src	a14, a8, a0
    55e6:	91c8      	l32i.n	a12, a1, 36
    55e8:	190c      	movi.n	a9, 1
    55ea:	0f0c      	movi.n	a15, 0
    55ec:	2727b2        	l32i	a11, a7, 156
    55ef:	a00622        	l8ui	a2, a6, 160
    55f2:	d7a8      	l32i.n	a10, a7, 52
    55f4:	fea082        	movi	a8, 254
    55f7:	102280        	and	a2, a2, a8
    55fa:	c0aab0        	sub	a10, a10, a11
    55fd:	0b0c      	movi.n	a11, 0
    55ff:	83f9a0        	moveqz	a15, a9, a10
    5602:	20ff20        	or	a15, a15, a2
    5605:	5198      	l32i.n	a9, a1, 20
    5607:	020c      	movi.n	a2, 0
    5609:	a046f2        	s8i	a15, a6, 160
    560c:	05a8      	l32i.n	a10, a5, 0
    560e:	772cd2        	l32i	a13, a12, 0x1dc
    5611:	1b6ed2        	s32i	a13, a14, 108
    5614:	776cb2        	s32i	a11, a12, 0x1dc
    5617:	3a99      	s32i.n	a9, a10, 12
    5619:	f01d      	excw
    561b:	5bc800        	excw
    561e:	222c16        	beqz	a12, 0x5844
    5621:	3499      	s32i.n	a9, a4, 12
    5623:	ff0a86        	j	0x5251
    5626:	820000        	mull	a0, a0, a0
    5629:	0b8d23        	excw
    562c:	5688      	l32i.n	a8, a6, 20
    562e:	b898      	l32i.n	a9, a8, 44
    5630:	8e2392        	l32i	a9, a3, 0x238
    5633:	b83956        	bnez	a9, 0x51ba
    5636:	d588      	l32i.n	a8, a5, 52
    5638:	21a9      	s32i.n	a10, a1, 8
    563a:	0189      	s32i.n	a8, a1, 0
    563c:	242882        	l32i	a8, a8, 144
    563f:	0e9d      	mov.n	a9, a14
    5641:	1189      	s32i.n	a8, a1, 4
    5643:	0e9876        	excw
    5646:	0988      	l32i.n	a8, a9, 0
    5648:	c88c      	beqz.n	a8, 0x5658
    564a:	2188      	l32i.n	a8, a1, 8
    564c:	881b      	addi.n	a8, a8, 1
    564e:	2189      	s32i.n	a8, a1, 8
    5650:	44a382        	movi	a8, 0x344
    5653:	998a      	add.n	a9, a9, a8
    5655:	fed846        	j	0x51ba
    5658:	0efd      	mov.n	a15, a14
    565a:	090c      	movi.n	a9, 0
    565c:	3199      	s32i.n	a9, a1, 12
    565e:	0f88      	l32i.n	a8, a15, 0
    5660:	08bc      	beqz.n	a8, 0x5694
    5662:	0198      	l32i.n	a9, a1, 0
    5664:	e139      	s32i.n	a3, a1, 56
    5666:	d129      	s32i.n	a2, a1, 52
    5668:	2138      	l32i.n	a3, a1, 8
    566a:	3128      	l32i.n	a2, a1, 12
    566c:	0fa9      	s32i.n	a10, a15, 0
    566e:	839a      	add.n	a8, a3, a9
    5670:	a29a      	add.n	a10, a2, a9
    5672:	940882        	l8ui	a8, a8, 148
    5675:	944a82        	s8i	a8, a10, 148
    5678:	d5a8      	l32i.n	a10, a5, 52
    567a:	22aa      	add.n	a2, a2, a10
    567c:	a3aa      	add.n	a10, a3, a10
    567e:	e138      	l32i.n	a3, a1, 56
    5680:	980aa2        	l8ui	a10, a10, 152
    5683:	9842a2        	s8i	a10, a2, 152
    5686:	0a0c      	movi.n	a10, 0
    5688:	d598      	l32i.n	a9, a5, 52
    568a:	d128      	l32i.n	a2, a1, 52
    568c:	0199      	s32i.n	a9, a1, 0
    568e:	242992        	l32i	a9, a9, 144
    5691:	016192        	s32i	a9, a1, 4
    5694:	44a392        	movi	a9, 0x344
    5697:	ff9a      	add.n	a15, a15, a9
    5699:	3198      	l32i.n	a9, a1, 12
    569b:	1188      	l32i.n	a8, a1, 4
    569d:	991b      	addi.n	a9, a9, 1
    569f:	3199      	s32i.n	a9, a1, 12
    56a1:	b93987        	bltu	a9, a8, 0x565e
    56a4:	dd26f2        	l32i	a15, a6, 0x374
    56a7:	fec3c6        	j	0x51ba
    56aa:	91b8      	l32i.n	a11, a1, 36
    56ac:	02f0c1        	l32r	a12, 0xfffc626c
    56af:	122ba2        	l32i	a10, a11, 72
    56b2:	112bb2        	l32i	a11, a11, 68
    56b5:	fc8b25        	excw
    56b8:	91b8      	l32i.n	a11, a1, 36
    56ba:	8c7c      	movi.n	a12, -8
    56bc:	10cac0        	and	a12, a10, a12
    56bf:	2b67c2        	s32i	a12, a7, 172
    56c2:	142ba2        	l32i	a10, a11, 80
    56c5:	02f1c1        	l32r	a12, 0xfffc628c
    56c8:	132bb2        	l32i	a11, a11, 76
    56cb:	fc89e5        	excw
    56ce:	91d8      	l32i.n	a13, a1, 36
    56d0:	8e7c      	movi.n	a14, -8
    56d2:	10eae0        	and	a14, a10, a14
    56d5:	2c67e2        	s32i	a14, a7, 176
    56d8:	602dd2        	l32i	a13, a13, 0x180
    56db:	ddbc      	beqz.n	a13, 0x571c
    56dd:	0921b2        	l32i	a11, a1, 36
    56e0:	02dcc1        	l32r	a12, 0xfffc6250
    56e3:	622ba2        	l32i	a10, a11, 0x188
    56e6:	612bb2        	l32i	a11, a11, 0x184
    56e9:	fc87e5        	excw
    56ec:	024ab1        	l32r	a11, 0xfffc6014
    56ef:	91d8      	l32i.n	a13, a1, 36
    56f1:	6267a2        	s32i	a10, a7, 0x188
    56f4:	592bb2        	l32i	a11, a11, 0x164
    56f7:	6167b2        	s32i	a11, a7, 0x184
    56fa:	632d92        	l32i	a9, a13, 0x18c
    56fd:	0c0c      	movi.n	a12, 0
    56ff:	1e0c      	movi.n	a14, 1
    5701:	99aa      	add.n	a9, a9, a10
    5703:	636792        	s32i	a9, a7, 0x18c
    5706:	642d82        	l32i	a8, a13, 0x190
    5709:	646782        	s32i	a8, a7, 0x190
    570c:	652df2        	l32i	a15, a13, 0x194
    570f:	6667e2        	s32i	a14, a7, 0x198
    5712:	6567f2        	s32i	a15, a7, 0x194
    5715:	606dc2        	s32i	a12, a13, 0x180
    5718:	000146        	j	0x5721
    571b:	0c0c00        	excw
    571e:	6667c2        	s32i	a12, a7, 0x198
    5721:	91a8      	l32i.n	a10, a1, 36
    5723:	162aa2        	l32i	a10, a10, 88
    5726:	fec0e5        	excw
    5729:	3063a2        	s32i	a10, a3, 192
    572c:	91a8      	l32i.n	a10, a1, 36
    572e:	152aa2        	l32i	a10, a10, 84
    5731:	fec025        	excw
    5734:	190c      	movi.n	a9, 1
    5736:	1f0c      	movi.n	a15, 1
    5738:	91c8      	l32i.n	a12, a1, 36
    573a:	02f2d1        	l32r	a13, 0xfffc6304
    573d:	3163a2        	s32i	a10, a3, 196
    5740:	ecb8      	l32i.n	a11, a12, 56
    5742:	4263b2        	s32i	a11, a3, 0x108
    5745:	fca8      	l32i.n	a10, a12, 60
    5747:	4c63a2        	s32i	a10, a3, 0x130
    574a:	102c82        	l32i	a8, a12, 64
    574d:	4d6382        	s32i	a8, a3, 0x134
    5750:	6027b2        	l32i	a11, a7, 0x180
    5753:	600c82        	l8ui	a8, a12, 96
    5756:	0e0c      	movi.n	a14, 0
    5758:	10bbd0        	and	a11, a11, a13
    575b:	83ef80        	moveqz	a14, a15, a8
    575e:	02aed1        	l32r	a13, 0xfffc6218
    5761:	5d67e2        	s32i	a14, a7, 0x174
    5764:	610cf2        	l8ui	a15, a12, 97
    5767:	00fb83        	excw
    576a:	02fb83        	excw
    576d:	08fbf3        	excw
    5770:	0cfbf3        	excw
    5773:	d16db2        	s32i	a11, a13, 0x344
    5776:	192ce2        	l32i	a14, a12, 100
    5779:	d46de2        	s32i	a14, a13, 0x350
    577c:	192cc2        	l32i	a12, a12, 100
    577f:	d56dc2        	s32i	a12, a13, 0x354
    5782:	6067b2        	s32i	a11, a7, 0x180
    5785:	fea986        	j	0x522f
    5788:	024ad1        	l32r	a13, 0xfffc60b0
    578b:	5a6d92        	s32i	a9, a13, 0x168
    578e:	e2c8      	l32i.n	a12, a2, 56
    5790:	5b6dc2        	s32i	a12, a13, 0x16c
    5793:	fef446        	j	0x5368
    5796:	920000        	excw
    5799:	462924        	excw
    579c:	00ff55        	excw
    579f:	23e200        	excw
    57a2:	0c8a      	add.n	a0, a12, a8
    57a4:	0f          	.byte 0xf
    57a5:	2166f2        	s32i	a15, a6, 132
    57a8:	ee0b      	addi.n	a14, a14, -1
    57aa:	e36e56        	bnez	a14, 0x55e4
    57ad:	8f2382        	l32i	a8, a3, 0x23c
    57b0:	880b      	addi.n	a8, a8, -1
    57b2:	e2e856        	bnez	a8, 0x55e4
    57b5:	81e8      	l32i.n	a14, a1, 32
    57b7:	190c      	movi.n	a9, 1
    57b9:	0f0c      	movi.n	a15, 0
    57bb:	fea082        	movi	a8, 254
    57be:	a00622        	l8ui	a2, a6, 160
    57c1:	4c0c      	movi.n	a12, 4
    57c3:	2166c2        	s32i	a12, a6, 132
    57c6:	2727b2        	l32i	a11, a7, 156
    57c9:	d7a8      	l32i.n	a10, a7, 52
    57cb:	91c8      	l32i.n	a12, a1, 36
    57cd:	102280        	and	a2, a2, a8
    57d0:	c0aab0        	sub	a10, a10, a11
    57d3:	0b0c      	movi.n	a11, 0
    57d5:	83f9a0        	moveqz	a15, a9, a10
    57d8:	20ff20        	or	a15, a15, a2
    57db:	5198      	l32i.n	a9, a1, 20
    57dd:	020c      	movi.n	a2, 0
    57df:	a046f2        	s8i	a15, a6, 160
    57e2:	05a8      	l32i.n	a10, a5, 0
    57e4:	772cd2        	l32i	a13, a12, 0x1dc
    57e7:	1b6ed2        	s32i	a13, a14, 108
    57ea:	776cb2        	s32i	a11, a12, 0x1dc
    57ed:	3a99      	s32i.n	a9, a10, 12
    57ef:	f01d      	excw
    57f1:	6d23d2        	l32i	a13, a3, 0x1b4
    57f4:	d78d56        	bnez	a13, 0x5570
    57f7:	71e8      	l32i.n	a14, a1, 28
    57f9:	3b2ee2        	l32i	a14, a14, 236
    57fc:	1222a2        	l32i	a10, a2, 72
    57ff:	2d2ee2        	l32i	a14, a14, 180
    5802:	11fa80        	slli	a15, a10, 8
    5805:	eefa      	add.n	a14, a14, a15
    5807:	81f8      	l32i.n	a15, a1, 32
    5809:	efe9      	s32i.n	a14, a15, 56
    580b:	ff5d46        	j	0x5584
    580e:	f20000        	excw
    5811:	162c24        	excw
    5814:	ef          	.byte 0xef
    5815:	adcb      	addi.n	a10, a13, 12
    5817:	0b0c05        	call0	0x108d8
    581a:	01efe5        	excw
    581d:	d42692        	l32i	a9, a6, 0x350
    5820:	d52682        	l32i	a8, a6, 0x354
    5823:	1a0c      	movi.n	a10, 1
    5825:	d366a2        	s32i	a10, a6, 0x34c
    5828:	881b      	addi.n	a8, a8, 1
    582a:	991b      	addi.n	a9, a9, 1
    582c:	d46692        	s32i	a9, a6, 0x350
    582f:	d56682        	s32i	a8, a6, 0x354
    5832:	ff3786        	j	0x5514
    5835:	05ad      	mov.n	a10, a5
    5837:	0624b2        	l32i	a11, a4, 24
    583a:	0824c2        	l32i	a12, a4, 32
    583d:	01b025        	excw
    5840:	fedbc6        	j	0x53b3
    5843:	4bc800        	excw
    5846:	dd7c56        	bnez	a12, 0x5621
    5849:	0d0c      	movi.n	a13, 0
    584b:	34d9      	s32i.n	a13, a4, 12
    584d:	fe8006        	j	0x5251
    5850:	1229f2        	l32i	a15, a9, 72
    5853:	10ffa0        	and	a15, a15, a10
    5856:	11ffd0        	slli	a15, a15, 3
    5859:	b4f9      	s32i.n	a15, a4, 44
    585b:	e126e2        	l32i	a14, a6, 0x384
    585e:	1b66e2        	s32i	a14, a6, 108
    5861:	ff4146        	j	0x556a
    5864:	81c8      	l32i.n	a12, a1, 32
    5866:	120c      	movi.n	a2, 1
    5868:	0d0c      	movi.n	a13, 0
    586a:	fea0f2        	movi	a15, 254
    586d:	a006e2        	l8ui	a14, a6, 160
    5870:	3a0c      	movi.n	a10, 3
    5872:	2166a2        	s32i	a10, a6, 132
    5875:	272792        	l32i	a9, a7, 156
    5878:	d788      	l32i.n	a8, a7, 52
    587a:	91a8      	l32i.n	a10, a1, 36
    587c:	10eef0        	and	a14, a14, a15
    587f:	c08890        	sub	a8, a8, a9
    5882:	83d280        	moveqz	a13, a2, a8
    5885:	090c      	movi.n	a9, 0
    5887:	5128      	l32i.n	a2, a1, 20
    5889:	20dde0        	or	a13, a13, a14
    588c:	a046d2        	s8i	a13, a6, 160
    588f:	0588      	l32i.n	a8, a5, 0
    5891:	772ab2        	l32i	a11, a10, 0x1dc
    5894:	1b6cb2        	s32i	a11, a12, 108
    5897:	776a92        	s32i	a9, a10, 0x1dc
    589a:	3829      	s32i.n	a2, a8, 12
    589c:	020c      	movi.n	a2, 0
    589e:	f01d      	excw
    58a0:	0b0c      	movi.n	a11, 0
    58a2:	1466b2        	s32i	a11, a6, 80
    58a5:	ff2806        	j	0x5549
    58a8:	02f3d1        	l32r	a13, 0xfffc6474
    58ab:	0c0c      	movi.n	a12, 0
    58ad:	0dd8      	l32i.n	a13, a13, 0
    58af:	b4d9      	s32i.n	a13, a4, 44
    58b1:	1b66c2        	s32i	a12, a6, 108
    58b4:	ff2c86        	j	0x556a
    58b7:	81a800        	src	a10, a8, a0
    58ba:	1e0c      	movi.n	a14, 1
    58bc:	0b0c      	movi.n	a11, 0
    58be:	fea0d2        	movi	a13, 254
    58c1:	a006c2        	l8ui	a12, a6, 160
    58c4:	280c      	movi.n	a8, 2
    58c6:	216682        	s32i	a8, a6, 132
    58c9:	272722        	l32i	a2, a7, 156
    58cc:	d7f8      	l32i.n	a15, a7, 52
    58ce:	9188      	l32i.n	a8, a1, 36
    58d0:	10ccd0        	and	a12, a12, a13
    58d3:	c0ff20        	sub	a15, a15, a2
    58d6:	83bef0        	moveqz	a11, a14, a15
    58d9:	020c      	movi.n	a2, 0
    58db:	51e8      	l32i.n	a14, a1, 20
    58dd:	20bbc0        	or	a11, a11, a12
    58e0:	a046b2        	s8i	a11, a6, 160
    58e3:	05f8      	l32i.n	a15, a5, 0
    58e5:	772892        	l32i	a9, a8, 0x1dc
    58e8:	1b6a92        	s32i	a9, a10, 108
    58eb:	776822        	s32i	a2, a8, 0x1dc
    58ee:	3fe9      	s32i.n	a14, a15, 12
    58f0:	020c      	movi.n	a2, 0
    58f2:	f01d      	excw
    58f4:	2a2392        	l32i	a9, a3, 168
    58f7:	b95916        	beqz	a9, 0x5490
    58fa:	6a23a2        	l32i	a10, a3, 0x1a8
    58fd:	420c      	movi.n	a2, 4
    58ff:	aa1b      	addi.n	a10, a10, 1
    5901:	6a63a2        	s32i	a10, a3, 0x1a8
    5904:	f01d      	excw
    5906:	420c      	movi.n	a2, 4
    5908:	f01d      	excw
    590a:	360000        	excw
    590d:	380041        	l32r	a4, 0xfffd3910
    5910:	d32882        	l32i	a8, a8, 0x34c
    5913:	2e2282        	l32i	a8, a2, 184
    5916:	28ac      	beqz.n	a8, 0x593c
    5918:	2f2252        	l32i	a5, a2, 188
    591b:	b248      	l32i.n	a4, a2, 44
    591d:	82b8      	l32i.n	a11, a2, 32
    591f:	a45a      	add.n	a10, a4, a5
    5921:	061265        	excw
    5924:	2c2292        	l32i	a9, a2, 176
    5927:	a2a9      	s32i.n	a10, a2, 40
    5929:	19ac      	beqz.n	a9, 0x594e
    592b:	5c23a2        	l32i	a10, a3, 0x170
    592e:	6aa8      	l32i.n	a10, a10, 24
    5930:	e238      	l32i.n	a3, a2, 56
    5932:	201a26        	beqi	a10, 1, 0x5956
    5935:	c249      	s32i.n	a4, a2, 48
    5937:	f239      	s32i.n	a3, a2, 60
    5939:	f01d      	excw
    593b:	0b0c00        	excw
    593e:	0c0c      	movi.n	a12, 0
    5940:	b2c9      	s32i.n	a12, a2, 44
    5942:	a2c9      	s32i.n	a12, a2, 40
    5944:	e2c9      	s32i.n	a12, a2, 56
    5946:	d2c9      	s32i.n	a12, a2, 52
    5948:	c2c9      	s32i.n	a12, a2, 48
    594a:	f2b9      	s32i.n	a11, a2, 60
    594c:	f01d      	excw
    594e:	c249      	s32i.n	a4, a2, 48
    5950:	e2d8      	l32i.n	a13, a2, 56
    5952:	f2d9      	s32i.n	a13, a2, 60
    5954:	f01d      	excw
    5956:	a53a      	add.n	a10, a5, a3
    5958:	92b8      	l32i.n	a11, a2, 36
    595a:	060ee5        	excw
    595d:	d2a9      	s32i.n	a10, a2, 52
    595f:	c249      	s32i.n	a4, a2, 48
    5961:	f239      	s32i.n	a3, a2, 60
    5963:	f01d      	excw
    5965:	000000        	ill
    5968:	004136        	excw
    596b:	2288      	l32i.n	a8, a2, 8
    596d:	051816        	beqz	a8, 0x59c2
    5970:	8238      	l32i.n	a3, a2, 32
    5972:	024da1        	l32r	a10, 0xfffc62a8
    5975:	fadf65        	excw
    5978:	024e21        	l32r	a2, 0xfffc62b0
    597b:	024fb1        	l32r	a11, 0xfffc62b8
    597e:	c42292        	l32i	a9, a2, 0x310
    5981:	0251a1        	l32r	a10, 0xfffc62c8
    5984:	1099b0        	and	a9, a9, a11
    5987:	c46292        	s32i	a9, a2, 0x310
    598a:	fade25        	excw
    598d:	0252a1        	l32r	a10, 0xfffc62d8
    5990:	fadda5        	excw
    5993:	0253d1        	l32r	a13, 0xfffc62e0
    5996:	c222c2        	l32i	a12, a2, 0x308
    5999:	02cca1        	l32r	a10, 0xfffc64cc
    599c:	10ccd0        	and	a12, a12, a13
    599f:	c262c2        	s32i	a12, a2, 0x308
    59a2:	fadca5        	excw
    59a5:	02d0a1        	l32r	a10, 0xfffc64e8
    59a8:	fadc25        	excw
    59ab:	00a4a2        	movi	a10, 0x400
    59ae:	fadbe5        	excw
    59b1:	02f4f1        	l32r	a15, 0xfffc6584
    59b4:	c222e2        	l32i	a14, a2, 0x308
    59b7:	03ad      	mov.n	a10, a3
    59b9:	10eef0        	and	a14, a14, a15
    59bc:	c262e2        	s32i	a14, a2, 0x308
    59bf:	052825        	excw
    59c2:	f01d      	excw
    59c4:	004136        	excw
    59c7:	8248      	l32i.n	a4, a2, 32
    59c9:	0c2c      	movi.n	a12, 32
    59cb:	03bd      	mov.n	a11, a3
    59cd:	0c24a2        	l32i	a10, a4, 48
    59d0:	572432        	l32i	a3, a4, 0x15c
    59d3:	05ff25        	excw
    59d6:	c4b8      	l32i.n	a11, a4, 48
    59d8:	3c0c      	movi.n	a12, 3
    59da:	1ba8      	l32i.n	a10, a11, 4
    59dc:	0bb8      	l32i.n	a11, a11, 0
    59de:	fc5a25        	excw
    59e1:	024ac1        	l32r	a12, 0xfffc630c
    59e4:	c4b8      	l32i.n	a11, a4, 48
    59e6:	bca5d2        	movi	a13, 0x5bc
    59e9:	d2da      	add.n	a13, a2, a13
    59eb:	806da2        	s32i	a10, a13, 0x200
    59ee:	522cc2        	l32i	a12, a12, 0x148
    59f1:	7f6dc2        	s32i	a12, a13, 0x1fc
    59f4:	2bb8      	l32i.n	a11, a11, 8
    59f6:	baba      	add.n	a11, a10, a11
    59f8:	22bab7        	bgeu	a10, a11, 0x5a1e
    59fb:	01a0c2        	movi	a12, 1
    59fe:	198076        	excw
    5a01:	0a98      	l32i.n	a9, a10, 0
    5a03:	0d39f6        	bgeui	a9, 3, 0x5a14
    5a06:	a98c      	beqz.n	a9, 0x5a14
    5a08:	3399      	s32i.n	a9, a3, 12
    5a0a:	0043c2        	s8i	a12, a3, 0
    5a0d:	13a9      	s32i.n	a10, a3, 4
    5a0f:	40cae2        	addi	a14, a10, 64
    5a12:	23e9      	s32i.n	a14, a3, 8
    5a14:	1af8      	l32i.n	a15, a10, 4
    5a16:	afaa      	add.n	a10, a15, a10
    5a18:	02bab7        	bgeu	a10, a11, 0x5a1e
    5a1b:	fff7c6        	j	0x59fe
    5a1e:	f01d      	excw
    5a20:	006136        	excw
    5a23:	0d0c      	movi.n	a13, 0
    5a25:	024a31        	l32r	a3, 0xfffc6350
    5a28:	1b22c2        	l32i	a12, a2, 108
    5a2b:	8268      	l32i.n	a6, a2, 32
    5a2d:	1e0c      	movi.n	a14, 1
    5a2f:	02f5b1        	l32r	a11, 0xfffc6604
    5a32:	d648      	l32i.n	a4, a6, 52
    5a34:	3688      	l32i.n	a8, a6, 12
    5a36:	b6ba      	add.n	a11, a6, a11
    5a38:	196be2        	s32i	a14, a11, 100
    5a3b:	1a22a2        	l32i	a10, a2, 104
    5a3e:	5363a2        	s32i	a10, a3, 0x14c
    5a41:	532392        	l32i	a9, a3, 0x14c
    5a44:	1a6292        	s32i	a9, a2, 104
    5a47:	132882        	l32i	a8, a8, 76
    5a4a:	02f651        	l32r	a5, 0xfffc6624
    5a4d:	0c7d      	mov.n	a7, a12
    5a4f:	fec882        	addi	a8, a8, -2
    5a52:	13f816        	beqz	a8, 0x5b95
    5a55:	565a      	add.n	a5, a6, a5
    5a57:	05d9      	s32i.n	a13, a5, 0
    5a59:	c4a8      	l32i.n	a10, a4, 48
    5a5b:	b4f8      	l32i.n	a15, a4, 44
    5a5d:	0bbfa7        	bgeu	a15, a10, 0x5a6c
    5a60:	8488      	l32i.n	a8, a4, 32
    5a62:	88fa      	add.n	a8, a8, a15
    5a64:	c0a8a0        	sub	a10, a8, a10
    5a67:	000106        	j	0x5a6f
    5a6a:	a00000        	addx4	a0, a0, a0
    5a6d:	af          	.byte 0xaf
    5a6e:	0b92c0        	excw
    5a71:	f7b196        	bltz	a1, 0x59f0
    5a74:	c99202        	l16si	a0, a2, 0x192
    5a77:	bafc      	bnez.n	a10, 0x5ab6
    5a79:	2916b6        	bltui	a6, 0x10000, 0x5aa6
    5a7c:	eb9813        	excw
    5a7f:	de25f2        	l32i	a15, a5, 0x378
    5a82:	156ba2        	s32i	a10, a11, 84
    5a85:	c488      	l32i.n	a8, a4, 48
    5a87:	146b82        	s32i	a8, a11, 80
    5a8a:	2165d2        	s32i	a13, a5, 132
    5a8d:	2265d2        	s32i	a13, a5, 136
    5a90:	19f9      	s32i.n	a15, a9, 4
    5a92:	fb25f2        	l32i	a15, a5, 0x3ec
    5a95:	fc2582        	l32i	a8, a5, 0x3f0
    5a98:	1d6582        	s32i	a8, a5, 116
    5a9b:	1c65f2        	s32i	a15, a5, 112
    5a9e:	ff2582        	l32i	a8, a5, 0x3fc
    5aa1:	fd25f2        	l32i	a15, a5, 0x3f4
    5aa4:	1e65f2        	s32i	a15, a5, 120
    5aa7:	206582        	s32i	a8, a5, 128
    5aaa:	dd25f2        	l32i	a15, a5, 0x374
    5aad:	fe2582        	l32i	a8, a5, 0x3f8
    5ab0:	1f6582        	s32i	a8, a5, 124
    5ab3:	1565f2        	s32i	a15, a5, 84
    5ab6:	dc2582        	l32i	a8, a5, 0x370
    5ab9:	146582        	s32i	a8, a5, 80
    5abc:	b40b82        	l8ui	a8, a11, 180
    5abf:	fea0f2        	movi	a15, 254
    5ac2:	1088f0        	and	a8, a8, a15
    5ac5:	fda0f2        	movi	a15, 253
    5ac8:	1088f0        	and	a8, a8, a15
    5acb:	b44b82        	s8i	a8, a11, 180
    5ace:	62f8      	l32i.n	a15, a2, 24
    5ad0:	0f0f16        	beqz	a15, 0x5bc4
    5ad3:	4969e2        	s32i	a14, a9, 0x124
    5ad6:	0722e2        	l32i	a14, a2, 28
    5ad9:	004e16        	beqz	a14, 0x5ae1
    5adc:	2f0c      	movi.n	a15, 2
    5ade:	4969f2        	s32i	a15, a9, 0x124
    5ae1:	4288      	l32i.n	a8, a2, 16
    5ae3:	005816        	beqz	a8, 0x5aec
    5ae6:	04a0e2        	movi	a14, 4
    5ae9:	4969e2        	s32i	a14, a9, 0x124
    5aec:	2c24f2        	l32i	a15, a4, 176
    5aef:	04ff16        	beqz	a15, 0x5b42
    5af2:	5c2682        	l32i	a8, a6, 0x170
    5af5:	0888      	l32i.n	a8, a8, 0
    5af7:	047816        	beqz	a8, 0x5b42
    5afa:	f498      	l32i.n	a9, a4, 60
    5afc:	186b92        	s32i	a9, a11, 96
    5aff:	f4f8      	l32i.n	a15, a4, 60
    5b01:	e4e8      	l32i.n	a14, a4, 56
    5b03:	0dbef7        	bgeu	a14, a15, 0x5b14
    5b06:	9488      	l32i.n	a8, a4, 36
    5b08:	e8ea      	add.n	a14, a8, a14
    5b0a:	c0eef0        	sub	a14, a14, a15
    5b0d:	196be2        	s32i	a14, a11, 100
    5b10:	000186        	j	0x5b1a
    5b13:	eef000        	excw
    5b16:	6be2c0        	excw
    5b19:	f219      	s32i.n	a1, a2, 60
    5b1b:	985c26        	beqi	a12, 5, 0x5ab7
    5b1e:	3f          	.byte 0x3f
    5b1f:	f03d      	nop.n
    5b21:	0a7916        	beqz	a9, 0x5bcc
    5b24:	02a9a1        	l32r	a10, 0xfffc65c8
    5b27:	5c26e2        	l32i	a14, a6, 0x170
    5b2a:	1a2f82        	l32i	a8, a15, 104
    5b2d:	2e6b82        	s32i	a8, a11, 184
    5b30:	1e2ee2        	l32i	a14, a14, 120
    5b33:	2f6be2        	s32i	a14, a11, 188
    5b36:	972ad2        	l32i	a13, a10, 0x25c
    5b39:	306bd2        	s32i	a13, a11, 192
    5b3c:	ac2aa2        	l32i	a10, a10, 0x2b0
    5b3f:	316ba2        	s32i	a10, a11, 196
    5b42:	2e2492        	l32i	a9, a4, 184
    5b45:	b98c      	beqz.n	a9, 0x5b54
    5b47:	1c28      	l32i.n	a2, a12, 4
    5b49:	ab78      	l32i.n	a7, a11, 40
    5b4b:	827720        	mull	a7, a7, a2
    5b4e:	5c4b      	addi.n	a5, a12, 4
    5b50:	7c7a      	add.n	a7, a12, a7
    5b52:	778b      	addi.n	a7, a7, 8
    5b54:	cbd8      	l32i.n	a13, a11, 48
    5b56:	bbc8      	l32i.n	a12, a11, 44
    5b58:	02f8b1        	l32r	a11, 0xfffc6738
    5b5b:	07ad      	mov.n	a10, a7
    5b5d:	ccda      	add.n	a12, a12, a13
    5b5f:	80b6b0        	add	a11, a6, a11
    5b62:	05e625        	excw
    5b65:	2e24c2        	l32i	a12, a4, 184
    5b68:	074c16        	beqz	a12, 0x5be0
    5b6b:	3a3c      	movi.n	a10, 51
    5b6d:	108076        	excw
    5b70:	2723f2        	l32i	a15, a3, 156
    5b73:	01f9      	s32i.n	a15, a1, 0
    5b75:	01e8      	l32i.n	a14, a1, 0
    5b77:	10eea0        	and	a14, a14, a10
    5b7a:	01e9      	s32i.n	a14, a1, 0
    5b7c:	01d8      	l32i.n	a13, a1, 0
    5b7e:	021da7        	beq	a13, a10, 0x5b84
    5b81:	fffa06        	j	0x5b6d
    5b84:	3024a2        	l32i	a10, a4, 192
    5b87:	090c      	movi.n	a9, 0
    5b89:	821b      	addi.n	a8, a2, 1
    5b8b:	c0aa80        	sub	a10, a10, a8
    5b8e:	8389a0        	moveqz	a8, a9, a10
    5b91:	0589      	s32i.n	a8, a5, 0
    5b93:	f01d      	excw
    5b95:	822ba2        	l32i	a10, a11, 0x208
    5b98:	0f1c      	movi.n	a15, 16
    5b9a:	023fa7        	bltu	a15, a10, 0x5ba0
    5b9d:	ffad06        	j	0x5a55
    5ba0:	5c26f2        	l32i	a15, a6, 0x170
    5ba3:	3f88      	l32i.n	a8, a15, 12
    5ba5:	391826        	beqi	a8, 1, 0x5be2
    5ba8:	565a      	add.n	a5, a6, a5
    5baa:	05a9      	s32i.n	a10, a5, 0
    5bac:	ffaa46        	j	0x5a59
    5baf:	ebd800        	excw
    5bb2:	f42b92        	l32i	a9, a11, 0x3d0
    5bb5:	146ba2        	s32i	a10, a11, 80
    5bb8:	c4e8      	l32i.n	a14, a4, 48
    5bba:	136be2        	s32i	a14, a11, 76
    5bbd:	1d99      	s32i.n	a9, a13, 4
    5bbf:	ffdfc6        	j	0x5b42
    5bc2:	d20000        	excw
    5bc5:	4969      	s32i.n	a6, a9, 16
    5bc7:	ffc2c6        	j	0x5ad6
    5bca:	210000        	srai	a0, a0, 0
    5bcd:	02f9      	s32i.n	a15, a2, 0
    5bcf:	02b2e7        	bgeu	a2, a14, 0x5bd5
    5bd2:	ffd386        	j	0x5b24
    5bd5:	02b2a7        	bgeu	a2, a10, 0x5bdb
    5bd8:	ffd206        	j	0x5b24
    5bdb:	d16bd2        	s32i	a13, a11, 0x344
    5bde:	f01d      	excw
    5be0:	f01d      	excw
    5be2:	6f88      	l32i.n	a8, a15, 24
    5be4:	565a      	add.n	a5, a6, a5
    5be6:	21b9      	s32i.n	a11, a1, 8
    5be8:	be1866        	bnei	a8, 1, 0x5baa
    5beb:	ba7b      	addi.n	a11, a10, 7
    5bed:	31c9      	s32i.n	a12, a1, 12
    5bef:	b4a8      	l32i.n	a10, a4, 44
    5bf1:	8c7c      	movi.n	a12, -8
    5bf3:	10bbc0        	and	a11, a11, a12
    5bf6:	11b9      	s32i.n	a11, a1, 4
    5bf8:	aaba      	add.n	a10, a10, a11
    5bfa:	0824b2        	l32i	a11, a4, 32
    5bfd:	05e4a5        	excw
    5c00:	31c8      	l32i.n	a12, a1, 12
    5c02:	0d0c      	movi.n	a13, 0
    5c04:	21b8      	l32i.n	a11, a1, 8
    5c06:	1188      	l32i.n	a8, a1, 4
    5c08:	b4a9      	s32i.n	a10, a4, 44
    5c0a:	822ba2        	l32i	a10, a11, 0x208
    5c0d:	282bf2        	l32i	a15, a11, 160
    5c10:	1e0c      	movi.n	a14, 1
    5c12:	c088a0        	sub	a8, a8, a10
    5c15:	ff8a      	add.n	a15, a15, a8
    5c17:	286bf2        	s32i	a15, a11, 160
    5c1a:	45f9      	s32i.n	a15, a5, 16
    5c1c:	ffe286        	j	0x5baa
    5c1f:	813600        	src	a3, a6, a0
    5c22:	4b1c00        	excw
    5c25:	fe7c      	movi.n	a14, -1
    5c27:	3f3c      	movi.n	a15, 51
    5c29:	6c1c      	movi.n	a12, 22
    5c2b:	02e3d1        	l32r	a13, 0xfffc67b8
    5c2e:	d2a8      	l32i.n	a10, a2, 52
    5c30:	c298      	l32i.n	a9, a2, 48
    5c32:	33da      	add.n	a3, a3, a13
    5c34:	772382        	l32i	a8, a3, 0x1dc
    5c37:	5268      	l32i.n	a6, a2, 20
    5c39:	8299a0        	mull	a9, a9, a10
    5c3c:	880b      	addi.n	a8, a8, -1
    5c3e:	1a2816        	beqz	a8, 0x5de4
    5c41:	0199      	s32i.n	a9, a1, 0
    5c43:	0258      	l32i.n	a5, a2, 0
    5c45:	2622a2        	l32i	a10, a2, 152
    5c48:	782382        	l32i	a8, a3, 0x1e0
    5c4b:	2189      	s32i.n	a8, a1, 8
    5c4d:	4e6282        	s32i	a8, a2, 0x138
    5c50:	aa0b      	addi.n	a10, a10, -1
    5c52:	065566        	bnei	a5, 5, 0x5c5c
    5c55:	350c      	movi.n	a5, 3
    5c57:	390c      	movi.n	a9, 3
    5c59:	006292        	s32i	a9, a2, 0
    5c5c:	2922d2        	l32i	a13, a2, 164
    5c5f:	1a9a16        	beqz	a10, 0x5e0c
    5c62:	252272        	l32i	a7, a2, 148
    5c65:	190c      	movi.n	a9, 1
    5c67:	dd0b      	addi.n	a13, a13, -1
    5c69:	00a042        	movi	a4, 0
    5c6c:	266242        	s32i	a4, a2, 152
    5c6f:	1b1d16        	beqz	a13, 0x5e24
    5c72:	272282        	l32i	a8, a2, 156
    5c75:	036182        	s32i	a8, a1, 12
    5c78:	296242        	s32i	a4, a2, 164
    5c7b:	2a22c2        	l32i	a12, a2, 168
    5c7e:	4f22d2        	l32i	a13, a2, 0x13c
    5c81:	fac5a2        	addi	a10, a5, -6
    5c84:	4183c0        	srli	a8, a12, 3
    5c87:	1cda16        	beqz	a10, 0x5e58
    5c8a:	5a6242        	s32i	a4, a2, 0x168
    5c8d:	386242        	s32i	a4, a2, 224
    5c90:	396242        	s32i	a4, a2, 228
    5c93:	3c62e2        	s32i	a14, a2, 240
    5c96:	3e6242        	s32i	a4, a2, 248
    5c99:	516242        	s32i	a4, a2, 0x144
    5c9c:	2e6282        	s32i	a8, a2, 184
    5c9f:	41a4c0        	srli	a10, a12, 4
    5ca2:	2f62a2        	s32i	a10, a2, 188
    5ca5:	c08c80        	sub	a8, a12, a8
    5ca8:	326282        	s32i	a8, a2, 200
    5cab:	1b1d16        	beqz	a13, 0x5e60
    5cae:	4193d0        	srli	a9, a13, 3
    5cb1:	c09d90        	sub	a9, a13, a9
    5cb4:	4f6292        	s32i	a9, a2, 0x13c
    5cb7:	41d4d0        	srli	a13, a13, 4
    5cba:	3062d2        	s32i	a13, a2, 192
    5cbd:	08ada7        	bge	a13, a10, 0x5cc9
    5cc0:	3162d2        	s32i	a13, a2, 196
    5cc3:	000146        	j	0x5ccc
    5cc6:	000000        	ill
    5cc9:	3162a2        	s32i	a10, a2, 196
    5ccc:	206242        	s32i	a4, a2, 128
    5ccf:	3a6242        	s32i	a4, a2, 232
    5cd2:	3b6242        	s32i	a4, a2, 236
    5cd5:	176242        	s32i	a4, a2, 92
    5cd8:	1b6242        	s32i	a4, a2, 108
    5cdb:	41b1c0        	srli	a11, a12, 1
    5cde:	f0a0a2        	movi	a10, 240
    5ce1:	82a6a0        	mull	a10, a6, a10
    5ce4:	11c7f0        	slli	a12, a7, 1
    5ce7:	63bbc0        	excw
    5cea:	11b9      	s32i.n	a11, a1, 4
    5cec:	0b62b2        	s32i	a11, a2, 44
    5cef:	73a0b2        	movi	a11, 115
    5cf2:	05d8a5        	excw
    5cf5:	41a9      	s32i.n	a10, a1, 16
    5cf7:	82a9      	s32i.n	a10, a2, 32
    5cf9:	73a0b2        	movi	a11, 115
    5cfc:	ca3c      	movi.n	a10, 60
    5cfe:	82a6a0        	mull	a10, a6, a10
    5d01:	05d7a5        	excw
    5d04:	41c8      	l32i.n	a12, a1, 16
    5d06:	92a9      	s32i.n	a10, a2, 36
    5d08:	7023e2        	l32i	a14, a3, 0x1c0
    5d0b:	7123b2        	l32i	a11, a3, 0x1c4
    5d0e:	1d0c      	movi.n	a13, 1
    5d10:	1f2232        	l32i	a3, a2, 124
    5d13:	c0bbe0        	sub	a11, a11, a14
    5d16:	5762b2        	s32i	a11, a2, 0x15c
    5d19:	11abe0        	slli	a10, a11, 2
    5d1c:	5562a2        	s32i	a10, a2, 0x154
    5d1f:	c0b3b0        	sub	a11, a3, a11
    5d22:	5862b2        	s32i	a11, a2, 0x160
    5d25:	05a3a7        	bge	a3, a10, 0x5d2e
    5d28:	556232        	s32i	a3, a2, 0x154
    5d2b:	20a330        	or	a10, a3, a3
    5d2e:	a2c9      	s32i.n	a12, a2, 40
    5d30:	5462d2        	s32i	a13, a2, 0x150
    5d33:	c0b3a0        	sub	a11, a3, a10
    5d36:	5662b2        	s32i	a11, a2, 0x158
    5d39:	64a0a2        	movi	a10, 100
    5d3c:	01b8      	l32i.n	a11, a1, 0
    5d3e:	82a7a0        	mull	a10, a7, a10
    5d41:	05d3a5        	excw
    5d44:	0a6d      	mov.n	a6, a10
    5d46:	03bd      	mov.n	a11, a3
    5d48:	31a8      	l32i.n	a10, a1, 12
    5d4a:	05d325        	excw
    5d4d:	dca5c2        	movi	a12, 0x5dc
    5d50:	4062a2        	s32i	a10, a2, 0x100
    5d53:	90a660        	addx2	a10, a6, a6
    5d56:	11aaf0        	slli	a10, a10, 1
    5d59:	4f3ca7        	bltu	a12, a10, 0x5dac
    5d5c:	db1c      	movi.n	a11, 29
    5d5e:	6c3b67        	bltu	a11, a6, 0x5dce
    5d61:	01d8      	l32i.n	a13, a1, 0
    5d63:	02fac1        	l32r	a12, 0xfffc694c
    5d66:	642cd7        	blt	a12, a13, 0x5dce
    5d69:	0121f2        	l32i	a15, a1, 4
    5d6c:	14a582        	movi	a8, 0x514
    5d6f:	c088a0        	sub	a8, a8, a10
    5d72:	82ff80        	mull	a15, a15, a8
    5d75:	0221e2        	l32i	a14, a1, 8
    5d78:	41faf0        	srli	a15, a15, 10
    5d7b:	1862f2        	s32i	a15, a2, 96
    5d7e:	2efc      	bnez.n	a14, 0x5db4
    5d80:	fec592        	addi	a9, a5, -2
    5d83:	10f916        	beqz	a9, 0x5e96
    5d86:	fcc5a2        	addi	a10, a5, -4
    5d89:	109a16        	beqz	a10, 0x5e96
    5d8c:	fac5b2        	addi	a11, a5, -6
    5d8f:	4c22a2        	l32i	a10, a2, 0x130
    5d92:	6c1c      	movi.n	a12, 22
    5d94:	4b2292        	l32i	a9, a2, 0x12c
    5d97:	53aac0        	excw
    5d9a:	3c3c      	movi.n	a12, 51
    5d9c:	4399c0        	excw
    5d9f:	0e9b16        	beqz	a11, 0x5e8c
    5da2:	4a62a2        	s32i	a10, a2, 0x128
    5da5:	496292        	s32i	a9, a2, 0x124
    5da8:	120c      	movi.n	a2, 1
    5daa:	f01d      	excw
    5dac:	186242        	s32i	a4, a2, 96
    5daf:	21d8      	l32i.n	a13, a1, 8
    5db1:	fcbd16        	beqz	a13, 0x5d80
    5db4:	491c      	movi.n	a9, 20
    5db6:	4b22e2        	l32i	a14, a2, 0x12c
    5db9:	4c2282        	l32i	a8, a2, 0x130
    5dbc:	3f3c      	movi.n	a15, 51
    5dbe:	43eef0        	excw
    5dc1:	538890        	excw
    5dc4:	4a6282        	s32i	a8, a2, 0x128
    5dc7:	4962e2        	s32i	a14, a2, 0x124
    5dca:	120c      	movi.n	a2, 1
    5dcc:	f01d      	excw
    5dce:	11b8      	l32i.n	a11, a1, 4
    5dd0:	a4a6c2        	movi	a12, 0x6a4
    5dd3:	c0cca0        	sub	a12, a12, a10
    5dd6:	82bbc0        	mull	a11, a11, a12
    5dd9:	41bab0        	srli	a11, a11, 10
    5ddc:	1862b2        	s32i	a11, a2, 96
    5ddf:	fff306        	j	0x5daf
    5de2:	d20000        	excw
    5de5:	665c22        	s16i	a2, a12, 204
    5de8:	7e1d      	excw
    5dea:	4f22d2        	l32i	a13, a2, 0x13c
    5ded:	0e0d16        	beqz	a13, 0x5ed1
    5df0:	2f22a2        	l32i	a10, a2, 188
    5df3:	41e3d0        	srli	a14, a13, 3
    5df6:	c0ede0        	sub	a14, a13, a14
    5df9:	4f62e2        	s32i	a14, a2, 0x13c
    5dfc:	41d4d0        	srli	a13, a13, 4
    5dff:	3062d2        	s32i	a13, a2, 192
    5e02:	67ada7        	bge	a13, a10, 0x5e6d
    5e05:	3162d2        	s32i	a13, a2, 196
    5e08:	001906        	j	0x5e70
    5e0b:	229200        	excw
    5e0e:	038225        	excw
    5e11:	7d7d      	excw
    5e13:	0b09      	s32i.n	a0, a11, 0
    5e15:	5688      	l32i.n	a8, a6, 20
    5e17:	e4b8      	l32i.n	a11, a4, 56
    5e19:	791b      	addi.n	a7, a9, 1
    5e1b:	417170        	srli	a7, a7, 1
    5e1e:	256272        	s32i	a7, a2, 148
    5e21:	ff9006        	j	0x5c65
    5e24:	7d0382        	l8ui	a8, a3, 125
    5e27:	2722a2        	l32i	a10, a2, 156
    5e2a:	31a9      	s32i.n	a10, a1, 12
    5e2c:	880b      	addi.n	a8, a8, -1
    5e2e:	e46856        	bnez	a8, 0x5c78
    5e31:	31d8      	l32i.n	a13, a1, 12
    5e33:	2822a2        	l32i	a10, a2, 160
    5e36:	0a6d07        	bbci	a13, 0, 0x5e44
    5e39:	029781        	l32r	a8, 0xfffc6898
    5e3c:	296242        	s32i	a4, a2, 164
    5e3f:	aa8a      	add.n	a10, a10, a8
    5e41:	2862a2        	s32i	a10, a2, 160
    5e44:	31d8      	l32i.n	a13, a1, 12
    5e46:	4181a0        	srli	a8, a10, 1
    5e49:	286282        	s32i	a8, a2, 160
    5e4c:	41d1d0        	srli	a13, a13, 1
    5e4f:	31d9      	s32i.n	a13, a1, 12
    5e51:	2762d2        	s32i	a13, a2, 156
    5e54:	ff8806        	j	0x5c78
    5e57:	629200        	excw
    5e5a:	865a      	add.n	a8, a6, a5
    5e5c:	ff8b      	addi.n	a15, a15, 8
    5e5e:	e20000        	excw
    5e61:	a24f62        	s8i	a6, a15, 162
    5e64:	863162        	excw
    5e67:	ff98      	l32i.n	a9, a15, 60
    5e69:	120c      	movi.n	a2, 1
    5e6b:	f01d      	excw
    5e6d:	3162a2        	s32i	a10, a2, 196
    5e70:	4e2292        	l32i	a9, a2, 0x138
    5e73:	99bc      	beqz.n	a9, 0x5eb0
    5e75:	4b22a2        	l32i	a10, a2, 0x12c
    5e78:	4c22c2        	l32i	a12, a2, 0x130
    5e7b:	43aaf0        	excw
    5e7e:	53ccb0        	excw
    5e81:	4a62c2        	s32i	a12, a2, 0x128
    5e84:	4962a2        	s32i	a10, a2, 0x124
    5e87:	120c      	movi.n	a2, 1
    5e89:	f01d      	excw
    5e8b:	62a200        	excw
    5e8e:	924a      	add.n	a9, a2, a4
    5e90:	0c4962        	s8i	a6, a9, 12
    5e93:	f01d12        	l16ui	a1, a13, 0x1e0
    5e96:	681c      	movi.n	a8, 22
    5e98:	4b22d2        	l32i	a13, a2, 0x12c
    5e9b:	4c22f2        	l32i	a15, a2, 0x130
    5e9e:	3e3c      	movi.n	a14, 51
    5ea0:	43dde0        	excw
    5ea3:	53ff80        	excw
    5ea6:	4a62f2        	s32i	a15, a2, 0x128
    5ea9:	4962d2        	s32i	a13, a2, 0x124
    5eac:	120c      	movi.n	a2, 1
    5eae:	f01d      	excw
    5eb0:	0258      	l32i.n	a5, a2, 0
    5eb2:	322526        	beqi	a5, 2, 0x5ee8
    5eb5:	2f4526        	beqi	a5, 4, 0x5ee8
    5eb8:	4c22a2        	l32i	a10, a2, 0x130
    5ebb:	4b2292        	l32i	a9, a2, 0x12c
    5ebe:	53aac0        	excw
    5ec1:	4399f0        	excw
    5ec4:	156526        	beqi	a5, 6, 0x5edd
    5ec7:	4a62a2        	s32i	a10, a2, 0x128
    5eca:	496292        	s32i	a9, a2, 0x124
    5ecd:	120c      	movi.n	a2, 1
    5ecf:	f01d      	excw
    5ed1:	4f62e2        	s32i	a14, a2, 0x13c
    5ed4:	2f22d2        	l32i	a13, a2, 188
    5ed7:	3162d2        	s32i	a13, a2, 196
    5eda:	ffe486        	j	0x5e70
    5edd:	4a62a2        	s32i	a10, a2, 0x128
    5ee0:	496292        	s32i	a9, a2, 0x124
    5ee3:	120c      	movi.n	a2, 1
    5ee5:	f01d      	excw
    5ee7:	22e200        	excw
    5eea:	824b      	addi.n	a8, a2, 4
    5eec:	f04c22        	s8i	a2, a12, 240
    5eef:	ee          	.byte 0xee
    5ef0:	88c043        	excw
    5ef3:	628253        	excw
    5ef6:	e24a      	add.n	a14, a2, a4
    5ef8:	0c4962        	s8i	a6, a9, 12
    5efb:	f01d12        	l16ui	a1, a13, 0x1e0
    5efe:	360000        	excw
    5f01:	510041        	l32r	a4, 0xfffda304
    5f04:	02fb      	addi.n	a0, a2, 15
    5f06:	44a392        	movi	a9, 0x344
    5f09:	2a2262        	l32i	a6, a2, 168
    5f0c:	535a      	add.n	a5, a3, a5
    5f0e:	732542        	l32i	a4, a5, 0x1cc
    5f11:	02fcc1        	l32r	a12, 0xfffc6b04
    5f14:	60a060        	neg	a10, a6
    5f17:	511426        	beqi	a4, 1, 0x5f6c
    5f1a:	01a032        	movi	a3, 1
    5f1d:	080c      	movi.n	a8, 0
    5f1f:	02fdb1        	l32r	a11, 0xfffc6b14
    5f22:	8b2572        	l32i	a7, a5, 0x22c
    5f25:	229376        	excw
    5f28:	172232        	l32i	a3, a2, 92
    5f2b:	486282        	s32i	a8, a2, 0x120
    5f2e:	2522f2        	l32i	a15, a2, 148
    5f31:	4722e2        	l32i	a14, a2, 0x11c
    5f34:	4e22d2        	l32i	a13, a2, 0x138
    5f37:	c0ff70        	sub	a15, a15, a7
    5f3a:	82eef0        	mull	a14, a14, a15
    5f3d:	7d9c      	beqz.n	a13, 0x5f58
    5f3f:	0aa637        	bge	a6, a3, 0x5f4d
    5f42:	063d      	mov.n	a3, a6
    5f44:	ee3a      	add.n	a14, a14, a3
    5f46:	1762e2        	s32i	a14, a2, 92
    5f49:	229a      	add.n	a2, a2, a9
    5f4b:	f01d      	excw
    5f4d:	604030        	neg	a4, a3
    5f50:	f0a647        	bge	a6, a4, 0x5f44
    5f53:	0a3d      	mov.n	a3, a10
    5f55:	fffac6        	j	0x5f44
    5f58:	05ab37        	bge	a11, a3, 0x5f61
    5f5b:	02fd31        	l32r	a3, 0xfffc6b50
    5f5e:	fff886        	j	0x5f44
    5f61:	605030        	neg	a5, a3
    5f64:	dcab57        	bge	a11, a5, 0x5f44
    5f67:	0c3d      	mov.n	a3, a12
    5f69:	fff5c6        	j	0x5f44
    5f6c:	d338      	l32i.n	a3, a3, 52
    5f6e:	242332        	l32i	a3, a3, 144
    5f71:	fa8356        	bnez	a3, 0x5f1d
    5f74:	fff4c6        	j	0x5f4b
    5f77:	e13600        	excw
    5f7a:	190c00        	excw
    5f7d:	12d8      	l32i.n	a13, a2, 4
    5f7f:	150c      	movi.n	a5, 1
    5f81:	04cd      	mov.n	a12, a4
    5f83:	052d26        	beqi	a13, 2, 0x5f8c
    5f86:	023d26        	beqi	a13, 3, 0x5f8c
    5f89:	00a092        	movi	a9, 0
    5f8c:	1122a2        	l32i	a10, a2, 68
    5f8f:	246292        	s32i	a9, a2, 144
    5f92:	1e6232        	s32i	a3, a2, 120
    5f95:	1edcb2        	addmi	a11, a12, 0x1e00
    5f98:	070c      	movi.n	a7, 0
    5f9a:	396272        	s32i	a7, a2, 228
    5f9d:	386272        	s32i	a7, a2, 224
    5fa0:	3e6272        	s32i	a7, a2, 248
    5fa3:	3f6272        	s32i	a7, a2, 252
    5fa6:	abb8      	l32i.n	a11, a11, 40
    5fa8:	1361b2        	s32i	a11, a1, 76
    5fab:	2162a2        	s32i	a10, a2, 132
    5fae:	02a8      	l32i.n	a10, a2, 0
    5fb0:	5962b2        	s32i	a11, a2, 0x164
    5fb3:	5b6272        	s32i	a7, a2, 0x16c
    5fb6:	faca82        	addi	a8, a10, -6
    5fb9:	1f8816        	beqz	a8, 0x61b5
    5fbc:	2e2232        	l32i	a3, a2, 184
    5fbf:	2322e2        	l32i	a14, a2, 140
    5fc2:	452252        	l32i	a5, a2, 0x114
    5fc5:	f159      	s32i.n	a5, a1, 60
    5fc7:	131e16        	beqz	a14, 0x60fc
    5fca:	2d6272        	s32i	a7, a2, 180
    5fcd:	1e6272        	s32i	a7, a2, 120
    5fd0:	2c2262        	l32i	a6, a2, 176
    5fd3:	2b6262        	s32i	a6, a2, 172
    5fd6:	c03630        	sub	a3, a6, a3
    5fd9:	faca82        	addi	a8, a10, -6
    5fdc:	0216e6        	bgei	a6, 1, 0x5fe2
    5fdf:	005986        	j	0x6149
    5fe2:	526262        	s32i	a6, a2, 0x148
    5fe5:	4622f2        	l32i	a15, a2, 0x118
    5fe8:	0e1816        	beqz	a8, 0x60cd
    5feb:	feca92        	addi	a9, a10, -2
    5fee:	0db916        	beqz	a9, 0x60cd
    5ff1:	fccab2        	addi	a11, a10, -4
    5ff4:	0d5b16        	beqz	a11, 0x60cd
    5ff7:	2a22a2        	l32i	a10, a2, 168
    5ffa:	3222b2        	l32i	a11, a2, 200
    5ffd:	272292        	l32i	a9, a2, 156
    6000:	c0a6a0        	sub	a10, a6, a10
    6003:	c0b6b0        	sub	a11, a6, a11
    6006:	80a9a0        	add	a10, a9, a10
    6009:	8099b0        	add	a9, a9, a11
    600c:	539970        	excw
    600f:	1e1a96        	bltz	a10, 0x61f4
    6012:	5162a2        	s32i	a10, a2, 0x144
    6015:	0bc396        	bltz	a3, 0x60d5
    6018:	4f22e2        	l32i	a14, a2, 0x13c
    601b:	6333e0        	excw
    601e:	434930        	excw
    6021:	1722a2        	l32i	a10, a2, 92
    6024:	82e8      	l32i.n	a14, a2, 32
    6026:	92b8      	l32i.n	a11, a2, 36
    6028:	1061b2        	s32i	a11, a1, 64
    602b:	1161e2        	s32i	a14, a1, 68
    602e:	a2b8      	l32i.n	a11, a2, 40
    6030:	4422e2        	l32i	a14, a2, 0x110
    6033:	53aa70        	excw
    6036:	e1e9      	s32i.n	a14, a1, 56
    6038:	114d16        	beqz	a13, 0x6150
    603b:	054df6        	bgeui	a13, 4, 0x6044
    603e:	022db6        	bltui	a13, 2, 0x6044
    6041:	0026c6        	j	0x60e0
    6044:	112252        	l32i	a5, a2, 68
    6047:	2522a2        	l32i	a10, a2, 148
    604a:	126132        	s32i	a3, a1, 72
    604d:	41d3a0        	srli	a13, a10, 3
    6050:	04b5d7        	bgeu	a5, a13, 0x6058
    6053:	0d5d      	mov.n	a5, a13
    6055:	1162d2        	s32i	a13, a2, 68
    6058:	d1a9      	s32i.n	a10, a1, 52
    605a:	04b357        	bgeu	a3, a5, 0x6062
    605d:	035d      	mov.n	a5, a3
    605f:	116232        	s32i	a3, a2, 68
    6062:	08b547        	bgeu	a5, a4, 0x606e
    6065:	116242        	s32i	a4, a2, 68
    6068:	045d      	mov.n	a5, a4
    606a:	51c9      	s32i.n	a12, a1, 20
    606c:	d1a9      	s32i.n	a10, a1, 52
    606e:	51c9      	s32i.n	a12, a1, 20
    6070:	1f2232        	l32i	a3, a2, 124
    6073:	1a6272        	s32i	a7, a2, 104
    6076:	05ad      	mov.n	a10, a5
    6078:	20b330        	or	a11, a3, a3
    607b:	05a025        	excw
    607e:	01cab2        	addi	a11, a10, 1
    6081:	1262b2        	s32i	a11, a2, 72
    6084:	4022a2        	l32i	a10, a2, 0x100
    6087:	1562b2        	s32i	a11, a2, 84
    608a:	3f62a2        	s32i	a10, a2, 252
    608d:	1221a2        	l32i	a10, a1, 72
    6090:	20b330        	or	a11, a3, a3
    6093:	05a7e5        	excw
    6096:	03bd      	mov.n	a11, a3
    6098:	ca1b      	addi.n	a12, a10, 1
    609a:	346272        	s32i	a7, a2, 208
    609d:	04ad      	mov.n	a10, a4
    609f:	3562c2        	s32i	a12, a2, 212
    60a2:	3362c2        	s32i	a12, a2, 204
    60a5:	05a6a5        	excw
    60a8:	ea1b      	addi.n	a14, a10, 1
    60aa:	1321d2        	l32i	a13, a1, 76
    60ad:	3762e2        	s32i	a14, a2, 220
    60b0:	3662e2        	s32i	a14, a2, 216
    60b3:	dd0b      	addi.n	a13, a13, -1
    60b5:	0b0d16        	beqz	a13, 0x6169
    60b8:	4d22f2        	l32i	a15, a2, 0x134
    60bb:	0a1f66        	bnei	a15, 1, 0x60c9
    60be:	2f2282        	l32i	a8, a2, 188
    60c1:	152687        	blt	a6, a8, 0x60da
    60c4:	d198      	l32i.n	a9, a1, 52
    60c6:	102697        	blt	a6, a9, 0x60da
    60c9:	020c      	movi.n	a2, 0
    60cb:	f01d      	excw
    60cd:	516272        	s32i	a7, a2, 0x144
    60d0:	090c      	movi.n	a9, 0
    60d2:	f423d6        	bgez	a3, 0x6018
    60d5:	030c      	movi.n	a3, 0
    60d7:	ffd0c6        	j	0x601e
    60da:	120c      	movi.n	a2, 1
    60dc:	f01d      	excw
    60de:	d20000        	excw
    60e1:	f95a22        	s16i	a2, a10, 0x1f2
    60e4:	4d1691        	l32r	a9, 0xfffd953c
    60e7:	225211        	l32r	a1, 0xfffcea30
    60ea:	223225        	excw
    60ed:	522a      	add.n	a5, a2, a2
    60ef:	ad1162        	l16ui	a6, a1, 0x15a
    60f2:	22e205        	call0	0x28f14
    60f5:	e91a      	add.n	a14, a9, a1
    60f7:	d386e2        	excw
    60fa:	ff          	.byte 0xff
    60fb:	22b200        	excw
    60fe:	ade127        	bbsi	a1, 2, 0x60af
    6101:	226202        	s32i	a0, a2, 136
    6104:	b02b      	addi.n	a11, a0, 2
    6106:	fe          	.byte 0xfe
    6107:	af67c0        	excw
    610a:	6d08      	l32i.n	a0, a13, 24
    610c:	0e          	.byte 0xe
    610d:	2b62e2        	s32i	a14, a2, 172
    6110:	000146        	j	0x6119
    6113:	66ba00        	excw
    6116:	2b6262        	s32i	a6, a2, 172
    6119:	282292        	l32i	a9, a2, 160
    611c:	2d2282        	l32i	a8, a2, 180
    611f:	889a      	add.n	a8, a8, a9
    6121:	2d6282        	s32i	a8, a2, 180
    6124:	04b897        	bgeu	a8, a9, 0x612c
    6127:	661b      	addi.n	a6, a6, 1
    6129:	2b6262        	s32i	a6, a2, 172
    612c:	086a26        	beqi	a10, 6, 0x6138
    612f:	052a26        	beqi	a10, 2, 0x6138
    6132:	fcca92        	addi	a9, a10, -4
    6135:	e9d956        	bnez	a9, 0x5fd6
    6138:	2a22b2        	l32i	a11, a2, 168
    613b:	022b67        	blt	a11, a6, 0x6141
    613e:	ffa506        	j	0x5fd6
    6141:	0b6d      	mov.n	a6, a11
    6143:	2b62b2        	s32i	a11, a2, 172
    6146:	ffa306        	j	0x5fd6
    6149:	526272        	s32i	a7, a2, 0x148
    614c:	ffa546        	j	0x5fe5
    614f:	22d200        	excw
    6152:	165a      	add.n	a1, a6, a5
    6154:	15ed      	excw
    6156:	252252        	l32i	a5, a2, 148
    6159:	2a2232        	l32i	a3, a2, 168
    615c:	116252        	s32i	a5, a2, 68
    615f:	05ad      	mov.n	a10, a5
    6161:	1a22e2        	l32i	a14, a2, 104
    6164:	f2e9      	s32i.n	a14, a2, 60
    6166:	ffb806        	j	0x604a
    6169:	51f8      	l32i.n	a15, a1, 20
    616b:	dff8      	l32i.n	a15, a15, 52
    616d:	2b2ff2        	l32i	a15, a15, 172
    6170:	facff2        	addi	a15, a15, -6
    6173:	f41f16        	beqz	a15, 0x60b8
    6176:	582242        	l32i	a4, a2, 0x160
    6179:	572232        	l32i	a3, a2, 0x15c
    617c:	1021b2        	l32i	a11, a1, 64
    617f:	1121a2        	l32i	a10, a1, 68
    6182:	1c0c      	movi.n	a12, 1
    6184:	83bcb0        	moveqz	a11, a12, a11
    6187:	11aa60        	slli	a10, a10, 10
    618a:	058f25        	excw
    618d:	11b460        	slli	a11, a4, 10
    6190:	82c3a0        	mull	a12, a3, a10
    6193:	11a560        	slli	a10, a5, 10
    6196:	80bbc0        	add	a11, a11, a12
    6199:	058e25        	excw
    619c:	ba1b      	addi.n	a11, a10, 1
    619e:	1462b2        	s32i	a11, a2, 80
    61a1:	82a4b0        	mull	a10, a4, a11
    61a4:	03bd      	mov.n	a11, a3
    61a6:	c0a5a0        	sub	a10, a5, a10
    61a9:	058d25        	excw
    61ac:	ca1b      	addi.n	a12, a10, 1
    61ae:	1362c2        	s32i	a12, a2, 76
    61b1:	ffc0c6        	j	0x60b8
    61b4:	22e200        	excw
    61b7:	5e          	.byte 0x5e
    61b8:	e00e16        	beqz	a14, 0x5fbc
    61bb:	052d26        	beqi	a13, 2, 0x61c4
    61be:	fdcdf2        	addi	a15, a13, -3
    61c1:	df7f56        	bnez	a15, 0x5fbc
    61c4:	51c9      	s32i.n	a12, a1, 20
    61c6:	626272        	s32i	a7, a2, 0x188
    61c9:	646272        	s32i	a7, a2, 0x190
    61cc:	ce6252        	s32i	a5, a2, 0x338
    61cf:	6b4c      	movi.n	a11, 70
    61d1:	94a1a2        	movi	a10, 0x194
    61d4:	80a2a0        	add	a10, a2, a10
    61d7:	057b65        	excw
    61da:	6b4c      	movi.n	a11, 70
    61dc:	20a2a2        	movi	a10, 0x220
    61df:	a2aa      	add.n	a10, a2, a10
    61e1:	057aa5        	excw
    61e4:	51c8      	l32i.n	a12, a1, 20
    61e6:	12d8      	l32i.n	a13, a2, 4
    61e8:	02a8      	l32i.n	a10, a2, 0
    61ea:	5922b2        	l32i	a11, a2, 0x164
    61ed:	1361b2        	s32i	a11, a1, 76
    61f0:	ff7206        	j	0x5fbc
    61f3:	627200        	excw
    61f6:	868651        	l32r	a5, 0xfffe7c10
    61f9:	ff          	.byte 0xff
    61fa:	000000        	ill
    61fd:	102182        	l32i	a8, a1, 64
    6200:	02fed1        	l32r	a13, 0xfffc6df8
    6203:	81f9      	s32i.n	a15, a1, 32
    6205:	71a9      	s32i.n	a10, a1, 28
    6207:	053d87        	bltu	a13, a8, 0x6210
    620a:	02fe91        	l32r	a9, 0xfffc6e04
    620d:	14b9b7        	bgeu	a9, a11, 0x6225
    6210:	1121a2        	l32i	a10, a1, 68
    6213:	1021d2        	l32i	a13, a1, 64
    6216:	41bab0        	srli	a11, a11, 10
    6219:	41aaa0        	srli	a10, a10, 10
    621c:	41dad0        	srli	a13, a13, 10
    621f:	1061d2        	s32i	a13, a1, 64
    6222:	1161a2        	s32i	a10, a1, 68
    6225:	1121f2        	l32i	a15, a1, 68
    6228:	01a082        	movi	a8, 1
    622b:	83f8f0        	moveqz	a15, a8, a15
    622e:	1161f2        	s32i	a15, a1, 68
    6231:	144e16        	beqz	a14, 0x6379
    6234:	85cc      	bnez.n	a5, 0x6240
    6236:	9198      	l32i.n	a9, a1, 36
    6238:	61e9      	s32i.n	a14, a1, 24
    623a:	0561c2        	s32i	a12, a1, 20
    623d:	224916        	beqz	a9, 0x6465
    6240:	1021a2        	l32i	a10, a1, 64
    6243:	51c9      	s32i.n	a12, a1, 20
    6245:	61e9      	s32i.n	a14, a1, 24
    6247:	11cb60        	slli	a12, a11, 10
    624a:	61b8      	l32i.n	a11, a1, 24
    624c:	0c61c2        	s32i	a12, a1, 48
    624f:	11aa60        	slli	a10, a10, 10
    6252:	11bb60        	slli	a11, a11, 10
    6255:	0a61b2        	s32i	a11, a1, 40
    6258:	1121b2        	l32i	a11, a1, 68
    625b:	058225        	excw
    625e:	b1a9      	s32i.n	a10, a1, 44
    6260:	1121b2        	l32i	a11, a1, 68
    6263:	c1a8      	l32i.n	a10, a1, 48
    6265:	058165        	excw
    6268:	02d0d1        	l32r	a13, 0xfffc6da8
    626b:	b1c8      	l32i.n	a12, a1, 44
    626d:	80a0e2        	movi	a14, 128
    6270:	63ccd0        	excw
    6273:	63dad0        	excw
    6276:	73cce0        	excw
    6279:	73dde0        	excw
    627c:	81e8      	l32i.n	a14, a1, 32
    627e:	82cc50        	mull	a12, a12, a5
    6281:	82dde0        	mull	a13, a13, a14
    6284:	a1b8      	l32i.n	a11, a1, 40
    6286:	ccda      	add.n	a12, a12, a13
    6288:	02fed1        	l32r	a13, 0xfffc6e80
    628b:	bbca      	add.n	a11, a11, a12
    628d:	71c8      	l32i.n	a12, a1, 28
    628f:	0f3dc7        	bltu	a13, a12, 0x62a2
    6292:	11ac60        	slli	a10, a12, 10
    6295:	057e65        	excw
    6298:	51c8      	l32i.n	a12, a1, 20
    629a:	0a5d      	mov.n	a5, a10
    629c:	1162a2        	s32i	a10, a2, 68
    629f:	000306        	j	0x62af
    62a2:	0cad      	mov.n	a10, a12
    62a4:	057d65        	excw
    62a7:	51c8      	l32i.n	a12, a1, 20
    62a9:	115a60        	slli	a5, a10, 10
    62ac:	116252        	s32i	a5, a2, 68
    62af:	2522a2        	l32i	a10, a2, 148
    62b2:	ff8f46        	j	0x60f3
    62b5:	91f9      	s32i.n	a15, a1, 36
    62b7:	1321d2        	l32i	a13, a1, 76
    62ba:	0861f2        	s32i	a15, a1, 32
    62bd:	71a9      	s32i.n	a10, a1, 28
    62bf:	021d66        	bnei	a13, 1, 0x62c5
    62c2:	003286        	j	0x6390
    62c5:	112182        	l32i	a8, a1, 68
    62c8:	02fef1        	l32r	a15, 0xfffc6ec0
    62cb:	053f87        	bltu	a15, a8, 0x62d4
    62ce:	02fe91        	l32r	a9, 0xfffc6ec8
    62d1:	14b9b7        	bgeu	a9, a11, 0x62e9
    62d4:	1121a2        	l32i	a10, a1, 68
    62d7:	1021d2        	l32i	a13, a1, 64
    62da:	41bab0        	srli	a11, a11, 10
    62dd:	41aaa0        	srli	a10, a10, 10
    62e0:	41dad0        	srli	a13, a13, 10
    62e3:	1061d2        	s32i	a13, a1, 64
    62e6:	1161a2        	s32i	a10, a1, 68
    62e9:	1021f2        	l32i	a15, a1, 64
    62ec:	01a082        	movi	a8, 1
    62ef:	f03d      	nop.n
    62f1:	83f8f0        	moveqz	a15, a8, a15
    62f4:	1061f2        	s32i	a15, a1, 64
    62f7:	141516        	beqz	a5, 0x643c
    62fa:	8ecc      	bnez.n	a14, 0x6306
    62fc:	8198      	l32i.n	a9, a1, 32
    62fe:	61e9      	s32i.n	a14, a1, 24
    6300:	0561c2        	s32i	a12, a1, 20
    6303:	16f916        	beqz	a9, 0x6476
    6306:	61e9      	s32i.n	a14, a1, 24
    6308:	51c9      	s32i.n	a12, a1, 20
    630a:	1121a2        	l32i	a10, a1, 68
    630d:	11cb60        	slli	a12, a11, 10
    6310:	0c61c2        	s32i	a12, a1, 48
    6313:	11b560        	slli	a11, a5, 10
    6316:	0461b2        	s32i	a11, a1, 16
    6319:	11aa60        	slli	a10, a10, 10
    631c:	1021b2        	l32i	a11, a1, 64
    631f:	0575e5        	excw
    6322:	0a5d      	mov.n	a5, a10
    6324:	1021b2        	l32i	a11, a1, 64
    6327:	c1a8      	l32i.n	a10, a1, 48
    6329:	057525        	excw
    632c:	02d0d1        	l32r	a13, 0xfffc6e6c
    632f:	61f8      	l32i.n	a15, a1, 24
    6331:	80a0e2        	movi	a14, 128
    6334:	63c5d0        	excw
    6337:	63dad0        	excw
    633a:	73cce0        	excw
    633d:	73dde0        	excw
    6340:	81e8      	l32i.n	a14, a1, 32
    6342:	41b8      	l32i.n	a11, a1, 16
    6344:	82ccf0        	mull	a12, a12, a15
    6347:	82dde0        	mull	a13, a13, a14
    634a:	71e8      	l32i.n	a14, a1, 28
    634c:	ccda      	add.n	a12, a12, a13
    634e:	02fed1        	l32r	a13, 0xfffc6f48
    6351:	bbca      	add.n	a11, a11, a12
    6353:	0f3de7        	bltu	a13, a14, 0x6366
    6356:	11ae60        	slli	a10, a14, 10
    6359:	057225        	excw
    635c:	51c8      	l32i.n	a12, a1, 20
    635e:	0a5d      	mov.n	a5, a10
    6360:	1162a2        	s32i	a10, a2, 68
    6363:	000306        	j	0x6373
    6366:	0ead      	mov.n	a10, a14
    6368:	057125        	excw
    636b:	51c8      	l32i.n	a12, a1, 20
    636d:	115a60        	slli	a5, a10, 10
    6370:	116252        	s32i	a5, a2, 68
    6373:	2522a2        	l32i	a10, a2, 148
    6376:	ff79c6        	j	0x6161
    6379:	1d0c      	movi.n	a13, 1
    637b:	4462d2        	s32i	a13, a2, 0x110
    637e:	0215e6        	bgei	a5, 1, 0x6384
    6381:	0040c6        	j	0x6488
    6384:	f50b      	addi.n	a15, a5, -1
    6386:	4562f2        	s32i	a15, a2, 0x114
    6389:	eb3556        	bnez	a5, 0x6240
    638c:	ffa986        	j	0x6236
    638f:	219200        	srai	a9, a0, 2
    6392:	fe8111        	l32r	a1, 0x5d98 (0x3c3c53aa)
    6395:	b9b002        	excw
    6398:	389773        	excw
    639b:	d208      	l32i.n	a0, a2, 52
    639d:	a11021        	l32r	a2, 0xfffee7e0
    63a0:	fe          	.byte 0xfe
    63a1:	bad702        	addmi	a0, a7, 0xffffba00
    63a4:	21f214        	excw
    63a7:	218211        	l32r	a1, 0xfffce9b0
    63aa:	bab010        	excw
    63ad:	faf041        	l32r	a4, 0x4f70 (0x2e26182)
    63b0:	8a8041        	l32r	a4, 0xfffe8db0
    63b3:	618241        	l32r	a4, 0xfffde9bc
    63b6:	61f210        	excw
    63b9:	819811        	l32r	a1, 0xfffe6a1c
    63bc:	f03d      	nop.n
    63be:	0d8916        	beqz	a9, 0x649a
    63c1:	e1a8      	l32i.n	a10, a1, 56
    63c3:	7acc      	bnez.n	a10, 0x63ce
    63c5:	f1d8      	l32i.n	a13, a1, 60
    63c7:	61e9      	s32i.n	a14, a1, 24
    63c9:	51c9      	s32i.n	a12, a1, 20
    63cb:	0f6d16        	beqz	a13, 0x64c5
    63ce:	1d0c      	movi.n	a13, 1
    63d0:	1021a2        	l32i	a10, a1, 64
    63d3:	1f0c      	movi.n	a15, 1
    63d5:	51c9      	s32i.n	a12, a1, 20
    63d7:	61e9      	s32i.n	a14, a1, 24
    63d9:	81c8      	l32i.n	a12, a1, 32
    63db:	0e0c      	movi.n	a14, 0
    63dd:	83efb0        	moveqz	a14, a15, a11
    63e0:	11aa60        	slli	a10, a10, 10
    63e3:	1121f2        	l32i	a15, a1, 68
    63e6:	93bde0        	movnez	a11, a13, a14
    63e9:	21b9      	s32i.n	a11, a1, 8
    63eb:	11cc60        	slli	a12, a12, 10
    63ee:	11c9      	s32i.n	a12, a1, 4
    63f0:	11ff60        	slli	a15, a15, 10
    63f3:	01f9      	s32i.n	a15, a1, 0
    63f5:	056865        	excw
    63f8:	31a9      	s32i.n	a10, a1, 12
    63fa:	21b8      	l32i.n	a11, a1, 8
    63fc:	01a8      	l32i.n	a10, a1, 0
    63fe:	0567e5        	excw
    6401:	02d0d1        	l32r	a13, 0xfffc6f44
    6404:	31c8      	l32i.n	a12, a1, 12
    6406:	7198      	l32i.n	a9, a1, 28
    6408:	80a0e2        	movi	a14, 128
    640b:	63ccd0        	excw
    640e:	63dad0        	excw
    6411:	73cce0        	excw
    6414:	73dde0        	excw
    6417:	61e8      	l32i.n	a14, a1, 24
    6419:	11b8      	l32i.n	a11, a1, 4
    641b:	82cc50        	mull	a12, a12, a5
    641e:	82dde0        	mull	a13, a13, a14
    6421:	02fe81        	l32r	a8, 0xfffc701c
    6424:	ccda      	add.n	a12, a12, a13
    6426:	bbca      	add.n	a11, a11, a12
    6428:	293897        	bltu	a8, a9, 0x6455
    642b:	11a960        	slli	a10, a9, 10
    642e:	0564e5        	excw
    6431:	51c8      	l32i.n	a12, a1, 20
    6433:	0a5d      	mov.n	a5, a10
    6435:	1162a2        	s32i	a10, a2, 68
    6438:	ffcdc6        	j	0x6373
    643b:	1f0c00        	excw
    643e:	180c      	movi.n	a8, 1
    6440:	81d8      	l32i.n	a13, a1, 32
    6442:	456282        	s32i	a8, a2, 0x114
    6445:	f1f9      	s32i.n	a15, a1, 60
    6447:	6a1da6        	blti	a13, 1, 0x64b5
    644a:	9d0b      	addi.n	a9, a13, -1
    644c:	466292        	s32i	a9, a2, 0x118
    644f:	eb3e56        	bnez	a14, 0x6306
    6452:	ffa986        	j	0x62fc
    6455:	09ad      	mov.n	a10, a9
    6457:	056265        	excw
    645a:	51c8      	l32i.n	a12, a1, 20
    645c:	115a60        	slli	a5, a10, 10
    645f:	116252        	s32i	a5, a2, 68
    6462:	ffc346        	j	0x6373
    6465:	71a8      	l32i.n	a10, a1, 28
    6467:	61b8      	l32i.n	a11, a1, 24
    6469:	056125        	excw
    646c:	51c8      	l32i.n	a12, a1, 20
    646e:	0a5d      	mov.n	a5, a10
    6470:	1162a2        	s32i	a10, a2, 68
    6473:	ff8e06        	j	0x62af
    6476:	71a8      	l32i.n	a10, a1, 28
    6478:	f1b8      	l32i.n	a11, a1, 60
    647a:	056025        	excw
    647d:	51c8      	l32i.n	a12, a1, 20
    647f:	0a5d      	mov.n	a5, a10
    6481:	1162a2        	s32i	a10, a2, 68
    6484:	ffbac6        	j	0x6373
    6487:	81a800        	src	a10, a8, a0
    648a:	021ae6        	bgei	a10, 1, 0x6490
    648d:	ff68c6        	j	0x6234
    6490:	da0b      	addi.n	a13, a10, -1
    6492:	91d9      	s32i.n	a13, a1, 36
    6494:	4662d2        	s32i	a13, a2, 0x118
    6497:	ff6646        	j	0x6234
    649a:	1f0c      	movi.n	a15, 1
    649c:	180c      	movi.n	a8, 1
    649e:	466282        	s32i	a8, a2, 0x118
    64a1:	91f9      	s32i.n	a15, a1, 36
    64a3:	3115a6        	blti	a5, 1, 0x64d8
    64a6:	a50b      	addi.n	a10, a5, -1
    64a8:	e198      	l32i.n	a9, a1, 56
    64aa:	f1a9      	s32i.n	a10, a1, 60
    64ac:	4562a2        	s32i	a10, a2, 0x114
    64af:	f1b956        	bnez	a9, 0x63ce
    64b2:	ffc3c6        	j	0x63c5
    64b5:	021ee6        	bgei	a14, 1, 0x64bb
    64b8:	ff8f86        	j	0x62fa
    64bb:	de0b      	addi.n	a13, a14, -1
    64bd:	4462d2        	s32i	a13, a2, 0x110
    64c0:	ff8d86        	j	0x62fa
    64c3:	a80000        	excw
    64c6:	91b871        	l32r	a7, 0xfffeaba8
    64c9:	055b25        	excw
    64cc:	51c8      	l32i.n	a12, a1, 20
    64ce:	0a5d      	mov.n	a5, a10
    64d0:	1162a2        	s32i	a10, a2, 68
    64d3:	ffa706        	j	0x6373
    64d6:	e60000        	excw
    64d9:	1e          	.byte 0x1e
    64da:	b88602        	excw
    64dd:	ff          	.byte 0xff
    64de:	fe0b      	addi.n	a15, a14, -1
    64e0:	e1f9      	s32i.n	a15, a1, 56
    64e2:	4462f2        	s32i	a15, a2, 0x110
    64e5:	ffb606        	j	0x63c1
    64e8:	004136        	excw
    64eb:	0df316        	beqz	a3, 0x65ce
    64ee:	482282        	l32i	a8, a2, 0x120
    64f1:	0d9816        	beqz	a8, 0x65ce
    64f4:	3a22b2        	l32i	a11, a2, 232
    64f7:	3b22a2        	l32i	a10, a2, 236
    64fa:	056165        	excw
    64fd:	5a2292        	l32i	a9, a2, 0x168
    6500:	0a6d      	mov.n	a6, a10
    6502:	5d22a2        	l32i	a10, a2, 0x174
    6505:	07f916        	beqz	a9, 0x6588
    6508:	07ca16        	beqz	a10, 0x6588
    650b:	502282        	l32i	a8, a2, 0x140
    650e:	5f2252        	l32i	a5, a2, 0x17c
    6511:	1b2242        	l32i	a4, a2, 108
    6514:	880b      	addi.n	a8, a8, -1
    6516:	535580        	excw
    6519:	4a2232        	l32i	a3, a2, 0x128
    651c:	4922a2        	l32i	a10, a2, 0x124
    651f:	4c22c2        	l32i	a12, a2, 0x130
    6522:	4b22b2        	l32i	a11, a2, 0x12c
    6525:	0223c7        	blt	a3, a12, 0x652b
    6528:	04ab37        	bge	a11, a3, 0x6530
    652b:	4a62c2        	s32i	a12, a2, 0x128
    652e:	0c3d      	mov.n	a3, a12
    6530:	022ba7        	blt	a11, a10, 0x6536
    6533:	04aac7        	bge	a10, a12, 0x653b
    6536:	0bad      	mov.n	a10, a11
    6538:	4962b2        	s32i	a11, a2, 0x124
    653b:	05a537        	bge	a5, a3, 0x6544
    653e:	035d      	mov.n	a5, a3
    6540:	0000c6        	j	0x6547
    6543:	5a5000        	excw
    6546:	b27843        	excw
    6549:	4b1c      	movi.n	a11, 20
    654b:	82a750        	mull	a10, a7, a5
    654e:	0552e5        	excw
    6551:	1862a2        	s32i	a10, a2, 96
    6554:	a06aa0        	addx4	a6, a10, a10
    6557:	1166e0        	slli	a6, a6, 2
    655a:	06ad      	mov.n	a10, a6
    655c:	07bd      	mov.n	a11, a7
    655e:	0551e5        	excw
    6561:	1962a2        	s32i	a10, a2, 100
    6564:	14a537        	bge	a5, a3, 0x657c
    6567:	035d      	mov.n	a5, a3
    6569:	1a6252        	s32i	a5, a2, 104
    656c:	07c416        	beqz	a4, 0x65ec
    656f:	3c6252        	s32i	a5, a2, 240
    6572:	506252        	s32i	a5, a2, 0x140
    6575:	5b6252        	s32i	a5, a2, 0x16c
    6578:	052d      	mov.n	a2, a5
    657a:	f01d      	excw
    657c:	4922a2        	l32i	a10, a2, 0x124
    657f:	e6aa57        	bge	a10, a5, 0x6569
    6582:	0a5d      	mov.n	a5, a10
    6584:	fff846        	j	0x6569
    6587:	224200        	excw
    658a:	6a1b      	addi.n	a6, a10, 1
    658c:	851b54        	excw
    658f:	552b      	addi.n	a5, a5, 2
    6591:	b35880        	movgez	a5, a8, a8
    6594:	215150        	srai	a5, a5, 1
    6597:	f7e956        	bnez	a9, 0x6519
    659a:	2b22a2        	l32i	a10, a2, 172
    659d:	2a22b2        	l32i	a11, a2, 168
    65a0:	a0aaa0        	addx4	a10, a10, a10
    65a3:	11aae0        	slli	a10, a10, 2
    65a6:	054d65        	excw
    65a9:	02ffd1        	l32r	a13, 0xfffc71a8
    65ac:	0c0c      	movi.n	a12, 0
    65ae:	3e1c      	movi.n	a14, 19
    65b0:	53cac0        	excw
    65b3:	4a22a2        	l32i	a10, a2, 0x128
    65b6:	43cce0        	excw
    65b9:	a0ccd0        	addx4	a12, a12, a13
    65bc:	0cc8      	l32i.n	a12, a12, 0
    65be:	4e22b2        	l32i	a11, a2, 0x138
    65c1:	0a3d      	mov.n	a3, a10
    65c3:	5c5a      	add.n	a5, a12, a5
    65c5:	9bac      	beqz.n	a11, 0x65f2
    65c7:	4922a2        	l32i	a10, a2, 0x124
    65ca:	ffd446        	j	0x651f
    65cd:	b27800        	excw
    65d0:	182262        	l32i	a6, a2, 96
    65d3:	07bd      	mov.n	a11, a7
    65d5:	a06660        	addx4	a6, a6, a6
    65d8:	1166e0        	slli	a6, a6, 2
    65db:	06ad      	mov.n	a10, a6
    65dd:	055325        	excw
    65e0:	5a1b      	addi.n	a5, a10, 1
    65e2:	4a2232        	l32i	a3, a2, 0x128
    65e5:	1b2242        	l32i	a4, a2, 108
    65e8:	ffdb86        	j	0x655a
    65eb:	625200        	excw
    65ee:	061b      	addi.n	a0, a6, 1
    65f0:	df          	.byte 0xdf
    65f1:	ff          	.byte 0xff
    65f2:	8a1b      	addi.n	a8, a10, 1
    65f4:	082867        	blt	a8, a6, 0x6600
    65f7:	051aa6        	blti	a10, 1, 0x6600
    65fa:	ffca32        	addi	a3, a10, -1
    65fd:	4a6232        	s32i	a3, a2, 0x128
    6600:	4922a2        	l32i	a10, a2, 0x124
    6603:	951b      	addi.n	a9, a5, 1
    6605:	02a9a7        	bge	a9, a10, 0x660b
    6608:	ffc4c6        	j	0x651f
    660b:	2b3c      	movi.n	a11, 50
    660d:	02aba7        	bge	a11, a10, 0x6613
    6610:	ffc2c6        	j	0x651f
    6613:	aa1b      	addi.n	a10, a10, 1
    6615:	4962a2        	s32i	a10, a2, 0x124
    6618:	ffc0c6        	j	0x651f
    661b:	013600        	slli	a3, a6, 32
    661e:	22b201        	l32r	a0, 0xfffcf0e8
    6621:	7138      	l32i.n	a3, a1, 28
    6623:	6d0300        	excw
    6626:	d45203        	excw
    6629:	3d19      	s32i.n	a1, a13, 12
    662b:	255204        	excw
    662e:	747a25        	excw
    6631:	552782        	l32i	a8, a7, 0x154
    6634:	116182        	s32i	a8, a1, 68
    6637:	0a1ba6        	blti	a11, 1, 0x6645
    663a:	3922a2        	l32i	a10, a2, 228
    663d:	054d25        	excw
    6640:	0acd      	mov.n	a12, a10
    6642:	000086        	j	0x6648
    6645:	5022c2        	l32i	a12, a2, 0x140
    6648:	040c      	movi.n	a4, 0
    664a:	02a8      	l32i.n	a10, a2, 0
    664c:	5a2282        	l32i	a8, a2, 0x168
    664f:	5169      	s32i.n	a6, a1, 20
    6651:	facaa2        	addi	a10, a10, -6
    6654:	008816        	beqz	a8, 0x6660
    6657:	5d2292        	l32i	a9, a2, 0x174
    665a:	002916        	beqz	a9, 0x6660
    665d:	5f62c2        	s32i	a12, a2, 0x17c
    6660:	2c1a16        	beqz	a10, 0x6925
    6663:	1e22d2        	l32i	a13, a2, 120
    6666:	1121a2        	l32i	a10, a1, 68
    6669:	102262        	l32i	a6, a2, 64
    666c:	51f8      	l32i.n	a15, a1, 20
    666e:	11aad0        	slli	a10, a10, 3
    6671:	661b      	addi.n	a6, a6, 1
    6673:	106262        	s32i	a6, a2, 64
    6676:	c0ffd0        	sub	a15, a15, a13
    6679:	c0ffa0        	sub	a15, a15, a10
    667c:	1c62f2        	s32i	a15, a2, 112
    667f:	af6742        	s32i	a4, a7, 0x2bc
    6682:	5222e2        	l32i	a14, a2, 0x148
    6685:	5122b2        	l32i	a11, a2, 0x144
    6688:	0f6d      	mov.n	a6, a15
    668a:	2dbbe7        	bgeu	a11, a14, 0x66bb
    668d:	2abfb7        	bgeu	a15, a11, 0x66bb
    6690:	532292        	l32i	a9, a2, 0x14c
    6693:	71a9      	s32i.n	a10, a1, 28
    6695:	e90b      	addi.n	a14, a9, -1
    6697:	382e16        	beqz	a14, 0x6a1d
    669a:	1a2966        	bnei	a9, 2, 0x66b8
    669d:	052182        	l32i	a8, a1, 20
    66a0:	c06bf0        	sub	a6, a11, a15
    66a3:	07c662        	addi	a6, a6, 7
    66a6:	416360        	srli	a6, a6, 3
    66a9:	10c662        	addi	a6, a6, 16
    66ac:	af6762        	s32i	a6, a7, 0x2bc
    66af:	b06680        	addx8	a6, a6, a8
    66b2:	c066d0        	sub	a6, a6, a13
    66b5:	c066a0        	sub	a6, a6, a10
    66b8:	1c6262        	s32i	a6, a2, 112
    66bb:	1722e2        	l32i	a14, a2, 92
    66be:	112292        	l32i	a9, a2, 68
    66c1:	c0ee60        	sub	a14, a14, a6
    66c4:	1762e2        	s32i	a14, a2, 92
    66c7:	1a6592        	s32i	a9, a5, 104
    66ca:	3a22b2        	l32i	a11, a2, 232
    66cd:	242282        	l32i	a8, a2, 144
    66d0:	3b22a2        	l32i	a10, a2, 236
    66d3:	bb1b      	addi.n	a11, a11, 1
    66d5:	2a1816        	beqz	a8, 0x697a
    66d8:	e298      	l32i.n	a9, a2, 56
    66da:	4139      	s32i.n	a3, a1, 16
    66dc:	0c3d      	mov.n	a3, a12
    66de:	2be916        	beqz	a9, 0x69a0
    66e1:	f0dcc0        	subx8	a13, a12, a12
    66e4:	d9da      	add.n	a13, a9, a13
    66e6:	11cdf0        	slli	a12, a13, 1
    66e9:	21c4c0        	srai	a12, a12, 4
    66ec:	1a62c2        	s32i	a12, a2, 104
    66ef:	3a62b2        	s32i	a11, a2, 232
    66f2:	02fd81        	l32r	a8, 0xfffc72e8
    66f5:	a3aa      	add.n	a10, a3, a10
    66f7:	3b62a2        	s32i	a10, a2, 236
    66fa:	1ea8b7        	bge	a8, a11, 0x671c
    66fd:	61f9      	s32i.n	a15, a1, 24
    66ff:	1261e2        	s32i	a14, a1, 72
    6702:	1361c2        	s32i	a12, a1, 76
    6705:	0540a5        	excw
    6708:	1321c2        	l32i	a12, a1, 76
    670b:	1221e2        	l32i	a14, a1, 72
    670e:	61f8      	l32i.n	a15, a1, 24
    6710:	11ba60        	slli	a11, a10, 10
    6713:	00a4d2        	movi	a13, 0x400
    6716:	3b62d2        	s32i	a13, a2, 236
    6719:	3a62b2        	s32i	a11, a2, 232
    671c:	166542        	s32i	a4, a5, 88
    671f:	2b22d2        	l32i	a13, a2, 172
    6722:	2a2282        	l32i	a8, a2, 168
    6725:	0a0c      	movi.n	a10, 0
    6727:	0301b1        	l32r	a11, 0xfffc732c
    672a:	06a8d7        	bge	a8, a13, 0x6734
    672d:	2a0c      	movi.n	a10, 2
    672f:	290c      	movi.n	a9, 2
    6731:	166592        	s32i	a9, a5, 88
    6734:	1765d2        	s32i	a13, a5, 92
    6737:	86ba      	add.n	a8, a6, a11
    6739:	07ad87        	bge	a13, a8, 0x6744
    673c:	0bdd      	mov.n	a13, a11
    673e:	2b62b2        	s32i	a11, a2, 172
    6741:	000146        	j	0x674a
    6744:	c0dd60        	sub	a13, a13, a6
    6747:	2b62d2        	s32i	a13, a2, 172
    674a:	1865d2        	s32i	a13, a5, 96
    674d:	2d2292        	l32i	a9, a2, 180
    6750:	196592        	s32i	a9, a5, 100
    6753:	3965e2        	s32i	a14, a5, 228
    6756:	4822b2        	l32i	a11, a2, 0x120
    6759:	3a65b2        	s32i	a11, a5, 232
    675c:	442282        	l32i	a8, a2, 0x110
    675f:	8189      	s32i.n	a8, a1, 32
    6761:	3b6582        	s32i	a8, a5, 236
    6764:	452262        	l32i	a6, a2, 0x114
    6767:	e169      	s32i.n	a6, a1, 56
    6769:	3c6562        	s32i	a6, a5, 240
    676c:	462292        	l32i	a9, a2, 0x118
    676f:	f199      	s32i.n	a9, a1, 60
    6771:	3d6592        	s32i	a9, a5, 244
    6774:	8268      	l32i.n	a6, a2, 32
    6776:	3f6562        	s32i	a6, a5, 252
    6779:	9298      	l32i.n	a9, a2, 36
    677b:	406592        	s32i	a9, a5, 0x100
    677e:	a288      	l32i.n	a8, a2, 40
    6780:	436532        	s32i	a3, a5, 0x10c
    6783:	106182        	s32i	a8, a1, 64
    6786:	416582        	s32i	a8, a5, 0x104
    6789:	182282        	l32i	a8, a2, 96
    678c:	446582        	s32i	a8, a5, 0x110
    678f:	4a2282        	l32i	a8, a2, 0x128
    6792:	456582        	s32i	a8, a5, 0x114
    6795:	492282        	l32i	a8, a2, 0x124
    6798:	466582        	s32i	a8, a5, 0x118
    679b:	502282        	l32i	a8, a2, 0x140
    679e:	476582        	s32i	a8, a5, 0x11c
    67a1:	502782        	l32i	a8, a7, 0x140
    67a4:	0e0c      	movi.n	a14, 0
    67a6:	880b      	addi.n	a8, a8, -1
    67a8:	1e8816        	beqz	a8, 0x6994
    67ab:	4865e2        	s32i	a14, a5, 0x120
    67ae:	071de6        	bgei	a13, 1, 0x67b9
    67b1:	1d0c      	movi.n	a13, 1
    67b3:	20dad0        	or	a13, a10, a13
    67b6:	1665d2        	s32i	a13, a5, 88
    67b9:	12a8      	l32i.n	a10, a2, 4
    67bb:	1b62c2        	s32i	a12, a2, 108
    67be:	0bba16        	beqz	a10, 0x687d
    67c1:	024ab6        	bltui	a10, 4, 0x67c7
    67c4:	002986        	j	0x686e
    67c7:	022af6        	bgeui	a10, 2, 0x67cd
    67ca:	002806        	j	0x686e
    67cd:	5422e2        	l32i	a14, a2, 0x150
    67d0:	82a3f0        	mull	a10, a3, a15
    67d3:	d1e9      	s32i.n	a14, a1, 52
    67d5:	ee0b      	addi.n	a14, a14, -1
    67d7:	1f6e16        	beqz	a14, 0x69d1
    67da:	11b9      	s32i.n	a11, a1, 4
    67dc:	c199      	s32i.n	a9, a1, 48
    67de:	c61b      	addi.n	a12, a6, 1
    67e0:	8a1b      	addi.n	a8, a10, 1
    67e2:	418180        	srli	a8, a8, 1
    67e5:	662b      	addi.n	a6, a6, 2
    67e7:	b36cc0        	movgez	a6, a12, a12
    67ea:	216160        	srai	a6, a6, 1
    67ed:	668a      	add.n	a6, a6, a8
    67ef:	8269      	s32i.n	a6, a2, 32
    67f1:	552272        	l32i	a7, a2, 0x154
    67f4:	1f2232        	l32i	a3, a2, 124
    67f7:	562252        	l32i	a5, a2, 0x158
    67fa:	06ad      	mov.n	a10, a6
    67fc:	03bd      	mov.n	a11, a3
    67fe:	053125        	excw
    6801:	91a9      	s32i.n	a10, a1, 36
    6803:	03bd      	mov.n	a11, a3
    6805:	c1a8      	l32i.n	a10, a1, 48
    6807:	0530a5        	excw
    680a:	a1a9      	s32i.n	a10, a1, 40
    680c:	20b330        	or	a11, a3, a3
    680f:	20a660        	or	a10, a6, a6
    6812:	052b25        	excw
    6815:	8168      	l32i.n	a6, a1, 32
    6817:	b1a9      	s32i.n	a10, a1, 44
    6819:	03bd      	mov.n	a11, a3
    681b:	0c21a2        	l32i	a10, a1, 48
    681e:	052a65        	excw
    6821:	b1d8      	l32i.n	a13, a1, 44
    6823:	82a5a0        	mull	a10, a5, a10
    6826:	82d7d0        	mull	a13, a7, a13
    6829:	03bd      	mov.n	a11, a3
    682b:	adaa      	add.n	a10, a13, a10
    682d:	052e25        	excw
    6830:	1198      	l32i.n	a9, a1, 4
    6832:	a188      	l32i.n	a8, a1, 40
    6834:	91f8      	l32i.n	a15, a1, 36
    6836:	d1e8      	l32i.n	a14, a1, 52
    6838:	828580        	mull	a8, a5, a8
    683b:	82f7f0        	mull	a15, a7, a15
    683e:	ee0b      	addi.n	a14, a14, -1
    6840:	ff8a      	add.n	a15, a15, a8
    6842:	aafa      	add.n	a10, a10, a15
    6844:	19ee16        	beqz	a14, 0x69e6
    6847:	546242        	s32i	a4, a2, 0x150
    684a:	1021f2        	l32i	a15, a1, 64
    684d:	8a1b      	addi.n	a8, a10, 1
    684f:	b91b      	addi.n	a11, a9, 1
    6851:	c60b      	addi.n	a12, a6, -1
    6853:	4462c2        	s32i	a12, a2, 0x110
    6856:	4862b2        	s32i	a11, a2, 0x120
    6859:	418180        	srli	a8, a8, 1
    685c:	df1b      	addi.n	a13, a15, 1
    685e:	ff2b      	addi.n	a15, a15, 2
    6860:	b3fdd0        	movgez	a15, a13, a13
    6863:	21f1f0        	srai	a15, a15, 1
    6866:	ff8a      	add.n	a15, a15, a8
    6868:	a2f9      	s32i.n	a15, a2, 40
    686a:	020c      	movi.n	a2, 0
    686c:	f01d      	excw
    686e:	8b1b      	addi.n	a8, a11, 1
    6870:	546242        	s32i	a4, a2, 0x150
    6873:	486282        	s32i	a8, a2, 0x120
    6876:	020c      	movi.n	a2, 0
    6878:	f01d      	excw
    687a:	000000        	ill
    687d:	5922c2        	l32i	a12, a2, 0x164
    6880:	82a3f0        	mull	a10, a3, a15
    6883:	121c56        	bnez	a12, 0x69a8
    6886:	5422d2        	l32i	a13, a2, 0x150
    6889:	11b9      	s32i.n	a11, a1, 4
    688b:	d1d9      	s32i.n	a13, a1, 52
    688d:	dd0b      	addi.n	a13, a13, -1
    688f:	1b7d16        	beqz	a13, 0x6a4a
    6892:	c91b      	addi.n	a12, a9, 1
    6894:	ba1b      	addi.n	a11, a10, 1
    6896:	41b1b0        	srli	a11, a11, 1
    6899:	992b      	addi.n	a9, a9, 2
    689b:	b39cc0        	movgez	a9, a12, a12
    689e:	219190        	srai	a9, a9, 1
    68a1:	99ba      	add.n	a9, a9, a11
    68a3:	c199      	s32i.n	a9, a1, 48
    68a5:	096292        	s32i	a9, a2, 36
    68a8:	552272        	l32i	a7, a2, 0x154
    68ab:	1f2232        	l32i	a3, a2, 124
    68ae:	562252        	l32i	a5, a2, 0x158
    68b1:	06ad      	mov.n	a10, a6
    68b3:	20b330        	or	a11, a3, a3
    68b6:	0525a5        	excw
    68b9:	21a9      	s32i.n	a10, a1, 8
    68bb:	20b330        	or	a11, a3, a3
    68be:	0c21a2        	l32i	a10, a1, 48
    68c1:	0524e5        	excw
    68c4:	31a9      	s32i.n	a10, a1, 12
    68c6:	03bd      	mov.n	a11, a3
    68c8:	20a660        	or	a10, a6, a6
    68cb:	051fa5        	excw
    68ce:	0a6d      	mov.n	a6, a10
    68d0:	03bd      	mov.n	a11, a3
    68d2:	0c21a2        	l32i	a10, a1, 48
    68d5:	051ee5        	excw
    68d8:	82a5a0        	mull	a10, a5, a10
    68db:	82d760        	mull	a13, a7, a6
    68de:	03bd      	mov.n	a11, a3
    68e0:	adaa      	add.n	a10, a13, a10
    68e2:	0522e5        	excw
    68e5:	31d8      	l32i.n	a13, a1, 12
    68e7:	21c8      	l32i.n	a12, a1, 8
    68e9:	d1b8      	l32i.n	a11, a1, 52
    68eb:	82d5d0        	mull	a13, a5, a13
    68ee:	82c7c0        	mull	a12, a7, a12
    68f1:	bb0b      	addi.n	a11, a11, -1
    68f3:	ccda      	add.n	a12, a12, a13
    68f5:	aaca      	add.n	a10, a10, a12
    68f7:	15bb16        	beqz	a11, 0x6a56
    68fa:	546242        	s32i	a4, a2, 0x150
    68fd:	e1f8      	l32i.n	a15, a1, 56
    68ff:	1021c2        	l32i	a12, a1, 64
    6902:	11e8      	l32i.n	a14, a1, 4
    6904:	da1b      	addi.n	a13, a10, 1
    6906:	41d1d0        	srli	a13, a13, 1
    6909:	ee1b      	addi.n	a14, a14, 1
    690b:	8c1b      	addi.n	a8, a12, 1
    690d:	ff0b      	addi.n	a15, a15, -1
    690f:	4562f2        	s32i	a15, a2, 0x114
    6912:	cc2b      	addi.n	a12, a12, 2
    6914:	4862e2        	s32i	a14, a2, 0x120
    6917:	b3c880        	movgez	a12, a8, a8
    691a:	21c1c0        	srai	a12, a12, 1
    691d:	ccda      	add.n	a12, a12, a13
    691f:	a2c9      	s32i.n	a12, a2, 40
    6921:	020c      	movi.n	a2, 0
    6923:	f01d      	excw
    6925:	5e22d2        	l32i	a13, a2, 0x178
    6928:	d37d16        	beqz	a13, 0x6663
    692b:	cd22e2        	l32i	a14, a2, 0x334
    692e:	01e9      	s32i.n	a14, a1, 0
    6930:	d2fe16        	beqz	a14, 0x6663
    6933:	1461c2        	s32i	a12, a1, 80
    6936:	6022a2        	l32i	a10, a2, 0x180
    6939:	01b8      	l32i.n	a11, a1, 0
    693b:	622262        	l32i	a6, a2, 0x188
    693e:	646262        	s32i	a6, a2, 0x190
    6941:	0513a5        	excw
    6944:	1421c2        	l32i	a12, a1, 80
    6947:	ce6242        	s32i	a4, a2, 0x338
    694a:	0abd      	mov.n	a11, a10
    694c:	6262a2        	s32i	a10, a2, 0x188
    694f:	01f8      	l32i.n	a15, a1, 0
    6951:	6362f2        	s32i	a15, a2, 0x18c
    6954:	0b5a16        	beqz	a10, 0x6a0d
    6957:	0b2616        	beqz	a6, 0x6a0d
    695a:	023a67        	bltu	a10, a6, 0x6960
    695d:	002606        	j	0x69f9
    6960:	a0a660        	addx4	a10, a6, a6
    6963:	11aaf0        	slli	a10, a10, 1
    6966:	051165        	excw
    6969:	1421c2        	l32i	a12, a1, 80
    696c:	02baf6        	bgeui	a10, 16, 0x6972
    696f:	ff3c06        	j	0x6663
    6972:	1b0c      	movi.n	a11, 1
    6974:	ce62b2        	s32i	a11, a2, 0x338
    6977:	ff3a06        	j	0x6663
    697a:	f298      	l32i.n	a9, a2, 60
    697c:	4139      	s32i.n	a3, a1, 16
    697e:	093916        	beqz	a9, 0x6a15
    6981:	0c3d      	mov.n	a3, a12
    6983:	f0dcc0        	subx8	a13, a12, a12
    6986:	d9da      	add.n	a13, a9, a13
    6988:	11cdf0        	slli	a12, a13, 1
    698b:	21c4c0        	srai	a12, a12, 4
    698e:	1a62c2        	s32i	a12, a2, 104
    6991:	ff5686        	j	0x66ef
    6994:	41e8      	l32i.n	a14, a1, 16
    6996:	bee8      	l32i.n	a14, a14, 44
    6998:	152ee2        	l32i	a14, a14, 84
    699b:	ff8306        	j	0x67ab
    699e:	c20000        	excw
    69a1:	3d1a62        	l16ui	a6, a10, 122
    69a4:	860c      	movi.n	a6, 8
    69a6:	42ff51        	l32r	a5, 0xfffd75a4
    69a9:	c85462        	s16i	a6, a4, 0x190
    69ac:	21f2f1        	l32r	a15, 0xfffcf174
    69af:	8a1b10        	excw
    69b2:	9b1b      	addi.n	a9, a11, 1
    69b4:	486292        	s32i	a9, a2, 0x120
    69b7:	418180        	srli	a8, a8, 1
    69ba:	df1b      	addi.n	a13, a15, 1
    69bc:	cc0b      	addi.n	a12, a12, -1
    69be:	ff2b      	addi.n	a15, a15, 2
    69c0:	4662c2        	s32i	a12, a2, 0x118
    69c3:	b3fdd0        	movgez	a15, a13, a13
    69c6:	21f1f0        	srai	a15, a15, 1
    69c9:	ff8a      	add.n	a15, a15, a8
    69cb:	a2f9      	s32i.n	a15, a2, 40
    69cd:	020c      	movi.n	a2, 0
    69cf:	f01d      	excw
    69d1:	82a9      	s32i.n	a10, a2, 32
    69d3:	0a6d      	mov.n	a6, a10
    69d5:	11b9      	s32i.n	a11, a1, 4
    69d7:	8a3b      	addi.n	a8, a10, 3
    69d9:	b38aa0        	movgez	a8, a10, a10
    69dc:	218280        	srai	a8, a8, 2
    69df:	c189      	s32i.n	a8, a1, 48
    69e1:	9289      	s32i.n	a8, a2, 36
    69e3:	ff8286        	j	0x67f1
    69e6:	a2a9      	s32i.n	a10, a2, 40
    69e8:	546242        	s32i	a4, a2, 0x150
    69eb:	b91b      	addi.n	a11, a9, 1
    69ed:	c60b      	addi.n	a12, a6, -1
    69ef:	4462c2        	s32i	a12, a2, 0x110
    69f2:	4862b2        	s32i	a11, a2, 0x120
    69f5:	020c      	movi.n	a2, 0
    69f7:	f01d      	excw
    69f9:	06bd      	mov.n	a11, a6
    69fb:	a0aaa0        	addx4	a10, a10, a10
    69fe:	11aaf0        	slli	a10, a10, 1
    6a01:	0507a5        	excw
    6a04:	1421c2        	l32i	a12, a1, 80
    6a07:	02baf6        	bgeui	a10, 16, 0x6a0d
    6a0a:	ff1546        	j	0x6663
    6a0d:	1b0c      	movi.n	a11, 1
    6a0f:	ce62b2        	s32i	a11, a2, 0x338
    6a12:	ff1346        	j	0x6663
    6a15:	1a62c2        	s32i	a12, a2, 104
    6a18:	0c3d      	mov.n	a3, a12
    6a1a:	ff3446        	j	0x66ef
    6a1d:	1461c2        	s32i	a12, a1, 80
    6a20:	61f9      	s32i.n	a15, a1, 24
    6a22:	0621c2        	l32i	a12, a1, 24
    6a25:	20a330        	or	a10, a3, a3
    6a28:	c0bbc0        	sub	a11, a11, a12
    6a2b:	3fcbb2        	addi	a11, a11, 63
    6a2e:	41b6b0        	srli	a11, a11, 6
    6a31:	033c25        	excw
    6a34:	1421c2        	l32i	a12, a1, 80
    6a37:	af6742        	s32i	a4, a7, 0x2bc
    6a3a:	1e2262        	l32i	a6, a2, 120
    6a3d:	7188      	l32i.n	a8, a1, 28
    6a3f:	61f8      	l32i.n	a15, a1, 24
    6a41:	c06a60        	sub	a6, a10, a6
    6a44:	c06680        	sub	a6, a6, a8
    6a47:	ff1b46        	j	0x66b8
    6a4a:	92a9      	s32i.n	a10, a2, 36
    6a4c:	c1a9      	s32i.n	a10, a1, 48
    6a4e:	116ae0        	slli	a6, a10, 2
    6a51:	8269      	s32i.n	a6, a2, 32
    6a53:	ff9446        	j	0x68a8
    6a56:	a2a9      	s32i.n	a10, a2, 40
    6a58:	1198      	l32i.n	a9, a1, 4
    6a5a:	e1b8      	l32i.n	a11, a1, 56
    6a5c:	546242        	s32i	a4, a2, 0x150
    6a5f:	991b      	addi.n	a9, a9, 1
    6a61:	bb0b      	addi.n	a11, a11, -1
    6a63:	4562b2        	s32i	a11, a2, 0x114
    6a66:	486292        	s32i	a9, a2, 0x120
    6a69:	020c      	movi.n	a2, 0
    6a6b:	f01d      	excw
    6a6d:	000000        	ill
    6a70:	004136        	excw
    6a73:	f01d      	excw
    6a75:	000000        	ill
    6a78:	004136        	excw
    6a7b:	44a392        	movi	a9, 0x344
    6a7e:	080c      	movi.n	a8, 0
    6a80:	0302a1        	l32r	a10, 0xfffc7688
    6a83:	e82242        	l32i	a4, a2, 0x3a0
    6a86:	02b631        	l32r	a3, 0xfffc7560
    6a89:	7ca572        	movi	a7, 0x57c
    6a8c:	447a      	add.n	a4, a4, a7
    6a8e:	323a      	add.n	a3, a2, a3
    6a90:	a2aa      	add.n	a10, a2, a10
    6a92:	4d2a62        	l32i	a6, a10, 0x134
    6a95:	4e2a52        	l32i	a5, a10, 0x138
    6a98:	7f2332        	l32i	a3, a3, 0x1fc
    6a9b:	b16a82        	s32i	a8, a10, 0x2c4
    6a9e:	849a      	add.n	a8, a4, a9
    6aa0:	d328      	l32i.n	a2, a3, 52
    6aa2:	766462        	s32i	a6, a4, 0x1d8
    6aa5:	776452        	s32i	a5, a4, 0x1dc
    6aa8:	896422        	s32i	a2, a4, 0x224
    6aab:	896822        	s32i	a2, a8, 0x224
    6aae:	776852        	s32i	a5, a8, 0x1dc
    6ab1:	766862        	s32i	a6, a8, 0x1d8
    6ab4:	889a      	add.n	a8, a8, a9
    6ab6:	766862        	s32i	a6, a8, 0x1d8
    6ab9:	776852        	s32i	a5, a8, 0x1dc
    6abc:	896822        	s32i	a2, a8, 0x224
    6abf:	789a      	add.n	a7, a8, a9
    6ac1:	766762        	s32i	a6, a7, 0x1d8
    6ac4:	776752        	s32i	a5, a7, 0x1dc
    6ac7:	896722        	s32i	a2, a7, 0x224
    6aca:	f01d      	excw
    6acc:	004136        	excw
    6acf:	02bd      	mov.n	a11, a2
    6ad1:	d2c8      	l32i.n	a12, a2, 52
    6ad3:	24a782        	movi	a8, 0x724
    6ad6:	e82242        	l32i	a4, a2, 0x3a0
    6ad9:	44a352        	movi	a5, 0x344
    6adc:	825530        	mull	a5, a5, a3
    6adf:	448a      	add.n	a4, a4, a8
    6ae1:	445a      	add.n	a4, a4, a5
    6ae3:	1ed282        	addmi	a8, a2, 0x1e00
    6ae6:	e888      	l32i.n	a8, a8, 56
    6ae8:	fdd4a2        	addmi	a10, a4, 0xfffffd00
    6aeb:	050c      	movi.n	a5, 0
    6aed:	05c856        	bnez	a8, 0x6b4d
    6af0:	2524d2        	l32i	a13, a4, 148
    6af3:	072316        	beqz	a3, 0x6b69
    6af6:	282422        	l32i	a2, a4, 160
    6af9:	272482        	l32i	a8, a4, 156
    6afc:	142a92        	l32i	a9, a10, 80
    6aff:	162af2        	l32i	a15, a10, 88
    6b02:	172ae2        	l32i	a14, a10, 92
    6b05:	d9da      	add.n	a13, a9, a13
    6b07:	ff8a      	add.n	a15, a15, a8
    6b09:	ee2a      	add.n	a14, a14, a2
    6b0b:	41d1d0        	srli	a13, a13, 1
    6b0e:	2564d2        	s32i	a13, a4, 148
    6b11:	41e1e0        	srli	a14, a14, 1
    6b14:	41f1f0        	srli	a15, a15, 1
    6b17:	2764f2        	s32i	a15, a4, 156
    6b1a:	2864e2        	s32i	a14, a4, 160
    6b1d:	0e2d      	mov.n	a2, a14
    6b1f:	a083c0        	addx4	a8, a3, a12
    6b22:	1c2882        	l32i	a8, a8, 112
    6b25:	190c      	movi.n	a9, 1
    6b27:	20cff0        	or	a12, a15, a15
    6b2a:	08be87        	bgeu	a14, a8, 0x6b36
    6b2d:	029721        	l32r	a2, 0xfffc758c
    6b30:	01cfc2        	addi	a12, a15, 1
    6b33:	802e20        	add	a2, a14, a2
    6b36:	3dac      	beqz.n	a13, 0x6b5d
    6b38:	e56ad2        	s32i	a13, a10, 0x394
    6b3b:	e66a92        	s32i	a9, a10, 0x398
    6b3e:	1cac      	beqz.n	a12, 0x6b63
    6b40:	e76ac2        	s32i	a12, a10, 0x39c
    6b43:	e86a22        	s32i	a2, a10, 0x3a0
    6b46:	e96a92        	s32i	a9, a10, 0x3a4
    6b49:	000186        	j	0x6b53
    6b4c:	645200        	extui	a5, a0, 2, 7
    6b4f:	645226        	beqi	a2, 5, 0x6bb7
    6b52:	ad29      	s32i.n	a2, a13, 40
    6b54:	0ca504        	excw
    6b57:	ff          	.byte 0xff
    6b58:	5c6452        	s32i	a5, a4, 0x170
    6b5b:	f01d      	excw
    6b5d:	e66a52        	s32i	a5, a10, 0x398
    6b60:	fdcc56        	bnez	a12, 0x6b40
    6b63:	e96a52        	s32i	a5, a10, 0x3a4
    6b66:	fffa46        	j	0x6b53
    6b69:	2724f2        	l32i	a15, a4, 156
    6b6c:	2824e2        	l32i	a14, a4, 160
    6b6f:	ffea86        	j	0x6b1d
    6b72:	360000        	excw
    6b75:	480041        	l32r	a4, 0xfffd8b78
    6b78:	2232d2        	excw
    6b7b:	0c5c      	movi.n	a12, 80
    6b7d:	228206        	j	0xf589
    6b80:	92e8      	l32i.n	a14, a2, 36
    6b82:	9217d2        	l16ui	a13, a7, 0x124
    6b85:	3829      	s32i.n	a2, a8, 12
    6b87:	20a5a2        	movi	a10, 0x520
    6b8a:	88aa      	add.n	a8, a8, a10
    6b8c:	016962        	s32i	a6, a9, 4
    6b8f:	802892        	l32i	a9, a8, 0x200
    6b92:	7f2882        	l32i	a8, a8, 0x1fc
    6b95:	071897        	beq	a8, a9, 0x6ba0
    6b98:	20a220        	or	a10, a2, a2
    6b9b:	06bd      	mov.n	a11, a6
    6b9d:	022c25        	excw
    6ba0:	030351        	l32r	a5, 0xfffc77ac
    6ba3:	525a      	add.n	a5, a2, a5
    6ba5:	7f25a2        	l32i	a10, a5, 0x1fc
    6ba8:	ca8c      	beqz.n	a10, 0x6bb8
    6baa:	00a0b2        	movi	a11, 0
    6bad:	0aa1a2        	movi	a10, 0x10a
    6bb0:	0c2c      	movi.n	a12, 32
    6bb2:	01a0d2        	movi	a13, 1
    6bb5:	03dea5        	excw
    6bb8:	802582        	l32i	a8, a5, 0x200
    6bbb:	a88c      	beqz.n	a8, 0x6bc9
    6bbd:	0b0c      	movi.n	a11, 0
    6bbf:	0ba1a2        	movi	a10, 0x10b
    6bc2:	0c2c      	movi.n	a12, 32
    6bc4:	1d0c      	movi.n	a13, 1
    6bc6:	03dda5        	excw
    6bc9:	02bca1        	l32r	a10, 0xfffc76bc
    6bcc:	0b0c      	movi.n	a11, 0
    6bce:	000f25        	excw
    6bd1:	2c2492        	l32i	a9, a4, 176
    6bd4:	02a951        	l32r	a5, 0xfffc7678
    6bd7:	698c      	beqz.n	a9, 0x6be1
    6bd9:	0623a2        	l32i	a10, a3, 24
    6bdc:	2aac      	beqz.n	a10, 0x6c02
    6bde:	816562        	s32i	a6, a5, 0x204
    6be1:	02ad      	mov.n	a10, a2
    6be3:	0b0c      	movi.n	a11, 0
    6be5:	03f125        	excw
    6be8:	02bca1        	l32r	a10, 0xfffc76d8
    6beb:	0b0c      	movi.n	a11, 0
    6bed:	000d25        	excw
    6bf0:	2c24b2        	l32i	a11, a4, 176
    6bf3:	9b8c      	beqz.n	a11, 0x6c00
    6bf5:	63c8      	l32i.n	a12, a3, 24
    6bf7:	4d4c      	movi.n	a13, 68
    6bf9:	3c8c      	beqz.n	a12, 0x6c00
    6bfb:	8165d2        	s32i	a13, a5, 0x204
    6bfe:	f01d      	excw
    6c00:	f01d      	excw
    6c02:	03e8      	l32i.n	a14, a3, 0
    6c04:	024e41        	l32r	a4, 0xfffc753c
    6c07:	017e16        	beqz	a14, 0x6c22
    6c0a:	030481        	l32r	a8, 0xfffc781c
    6c0d:	c224f2        	l32i	a15, a4, 0x308
    6c10:	02cca1        	l32r	a10, 0xfffc7740
    6c13:	10ff80        	and	a15, a15, a8
    6c16:	c264f2        	s32i	a15, a4, 0x308
    6c19:	f9b525        	excw
    6c1c:	02d0a1        	l32r	a10, 0xfffc775c
    6c1f:	f9b4e5        	excw
    6c22:	02ad      	mov.n	a10, a2
    6c24:	011fa5        	excw
    6c27:	1424b2        	l32i	a11, a4, 80
    6c2a:	02f3c1        	l32r	a12, 0xfffc77f8
    6c2d:	0a4c      	movi.n	a10, 64
    6c2f:	11bbd0        	slli	a11, a11, 3
    6c32:	0cb9      	s32i.n	a11, a12, 0
    6c34:	8165a2        	s32i	a10, a5, 0x204
    6c37:	0398      	l32i.n	a9, a3, 0
    6c39:	fc3916        	beqz	a9, 0x6c00
    6c3c:	024cd1        	l32r	a13, 0xfffc756c
    6c3f:	c224c2        	l32i	a12, a4, 0x308
    6c42:	0ea0a2        	movi	a10, 14
    6c45:	0305b1        	l32r	a11, 0xfffc785c
    6c48:	20ccd0        	or	a12, a12, a13
    6c4b:	c264c2        	s32i	a12, a4, 0x308
    6c4e:	20c220        	or	a12, a2, a2
    6c51:	f992e5        	excw
    6c54:	02cca1        	l32r	a10, 0xfffc7784
    6c57:	f9afe5        	excw
    6c5a:	02d0a1        	l32r	a10, 0xfffc779c
    6c5d:	f9af65        	excw
    6c60:	f01d      	excw
    6c62:	360000        	excw
    6c65:	ad0041        	l32r	a4, 0xffff2068
    6c68:	180c02        	l8ui	a0, a12, 24
    6c6b:	3e0c      	movi.n	a14, 3
    6c6d:	d2c8      	l32i.n	a12, a2, 52
    6c6f:	02bed1        	l32r	a13, 0xfffc7768
    6c72:	e82292        	l32i	a9, a2, 0x3a0
    6c75:	0b0c      	movi.n	a11, 0
    6c77:	d2da      	add.n	a13, a2, a13
    6c79:	1a6db2        	s32i	a11, a13, 104
    6c7c:	196db2        	s32i	a11, a13, 100
    6c7f:	1b6db2        	s32i	a11, a13, 108
    6c82:	29b9      	s32i.n	a11, a9, 8
    6c84:	39b9      	s32i.n	a11, a9, 12
    6c86:	49b9      	s32i.n	a11, a9, 16
    6c88:	934de2        	s8i	a14, a13, 147
    6c8b:	964db2        	s8i	a11, a13, 150
    6c8e:	954db2        	s8i	a11, a13, 149
    6c91:	944db2        	s8i	a11, a13, 148
    6c94:	974db2        	s8i	a11, a13, 151
    6c97:	984db2        	s8i	a11, a13, 152
    6c9a:	246c82        	s32i	a8, a12, 144
    6c9d:	0049b2        	s8i	a11, a9, 0
    6ca0:	0149b2        	s8i	a11, a9, 1
    6ca3:	0249b2        	s8i	a11, a9, 2
    6ca6:	0349b2        	s8i	a11, a9, 3
    6ca9:	0449b2        	s8i	a11, a9, 4
    6cac:	d2f8      	l32i.n	a15, a2, 52
    6cae:	63a0e2        	movi	a14, 99
    6cb1:	106fb2        	s32i	a11, a15, 64
    6cb4:	116fe2        	s32i	a14, a15, 68
    6cb7:	0308e5        	excw
    6cba:	020c      	movi.n	a2, 0
    6cbc:	f01d      	excw
    6cbe:	360000        	excw
    6cc1:	510041        	l32r	a4, 0xfffdb0c4
    6cc4:	02a9      	s32i.n	a10, a2, 0
    6cc6:	f22542        	l32i	a4, a5, 0x3c8
    6cc9:	03ad      	mov.n	a10, a3
    6ccb:	fb3865        	excw
    6cce:	f48247        	bany	a2, a4, 0x6cc6
    6cd1:	f01d      	excw
    6cd3:	613600        	excw
    6cd6:	d29800        	excw
    6cd9:	030671        	l32r	a7, 0xfffc78f4
    6cdc:	bf3c      	movi.n	a15, 59
    6cde:	482992        	l32i	a9, a9, 0x120
    6ce1:	0c0c      	movi.n	a12, 0
    6ce3:	0c4d      	mov.n	a4, a12
    6ce5:	15b916        	beqz	a9, 0x6e44
    6ce8:	030861        	l32r	a6, 0xfffc7908
    6ceb:	030751        	l32r	a5, 0xfffc7908
    6cee:	c0a0e2        	movi	a14, 192
    6cf1:	11d9e0        	slli	a13, a9, 2
    6cf4:	8288      	l32i.n	a8, a2, 32
    6cf6:	d298      	l32i.n	a9, a2, 52
    6cf8:	884a      	add.n	a8, a8, a4
    6cfa:	994a      	add.n	a9, a9, a4
    6cfc:	362992        	l32i	a9, a9, 216
    6cff:	1e0832        	l8ui	a3, a8, 30
    6d02:	1d08a2        	l8ui	a10, a8, 29
    6d05:	749090        	extui	a9, a9, 0, 8
    6d08:	113380        	slli	a3, a3, 8
    6d0b:	2033a0        	or	a3, a3, a10
    6d0e:	1199d0        	slli	a9, a9, 3
    6d11:	103360        	and	a3, a3, a6
    6d14:	203390        	or	a3, a3, a9
    6d17:	1d4832        	s8i	a3, a8, 29
    6d1a:	413830        	srli	a3, a3, 8
    6d1d:	1e4832        	s8i	a3, a8, 30
    6d20:	82b8      	l32i.n	a11, a2, 32
    6d22:	d238      	l32i.n	a3, a2, 52
    6d24:	bb4a      	add.n	a11, a11, a4
    6d26:	334a      	add.n	a3, a3, a4
    6d28:	3f2332        	l32i	a3, a3, 252
    6d2b:	280ba2        	l8ui	a10, a11, 40
    6d2e:	543030        	extui	a3, a3, 0, 6
    6d31:	10aae0        	and	a10, a10, a14
    6d34:	20aa30        	or	a10, a10, a3
    6d37:	284ba2        	s8i	a10, a11, 40
    6d3a:	8288      	l32i.n	a8, a2, 32
    6d3c:	d298      	l32i.n	a9, a2, 52
    6d3e:	884a      	add.n	a8, a8, a4
    6d40:	994a      	add.n	a9, a9, a4
    6d42:	422992        	l32i	a9, a9, 0x108
    6d45:	290832        	l8ui	a3, a8, 41
    6d48:	2808a2        	l8ui	a10, a8, 40
    6d4b:	549090        	extui	a9, a9, 0, 6
    6d4e:	113380        	slli	a3, a3, 8
    6d51:	2033a0        	or	a3, a3, a10
    6d54:	1199a0        	slli	a9, a9, 6
    6d57:	103370        	and	a3, a3, a7
    6d5a:	203390        	or	a3, a3, a9
    6d5d:	284832        	s8i	a3, a8, 40
    6d60:	413830        	srli	a3, a3, 8
    6d63:	294832        	s8i	a3, a8, 41
    6d66:	d2b8      	l32i.n	a11, a2, 52
    6d68:	82a8      	l32i.n	a10, a2, 32
    6d6a:	bb4a      	add.n	a11, a11, a4
    6d6c:	aa4a      	add.n	a10, a10, a4
    6d6e:	2a0a92        	l8ui	a9, a10, 42
    6d71:	452bb2        	l32i	a11, a11, 0x114
    6d74:	290a32        	l8ui	a3, a10, 41
    6d77:	119980        	slli	a9, a9, 8
    6d7a:	44b0b0        	extui	a11, a11, 0, 5
    6d7d:	11bbc0        	slli	a11, a11, 4
    6d80:	209930        	or	a9, a9, a3
    6d83:	109950        	and	a9, a9, a5
    6d86:	2099b0        	or	a9, a9, a11
    6d89:	294a92        	s8i	a9, a10, 41
    6d8c:	419890        	srli	a9, a9, 8
    6d8f:	2a4a92        	s8i	a9, a10, 42
    6d92:	d2a8      	l32i.n	a10, a2, 52
    6d94:	803a40        	add	a3, a10, a4
    6d97:	362382        	l32i	a8, a3, 216
    6d9a:	881b      	addi.n	a8, a8, 1
    6d9c:	366382        	s32i	a8, a3, 216
    6d9f:	332a92        	l32i	a9, a10, 204
    6da2:	023897        	bltu	a8, a9, 0x6da8
    6da5:	3663c2        	s32i	a12, a3, 216
    6da8:	392382        	l32i	a8, a3, 228
    6dab:	312ab2        	l32i	a11, a10, 196
    6dae:	d298      	l32i.n	a9, a2, 52
    6db0:	80bb80        	add	a11, a11, a8
    6db3:	3963b2        	s32i	a11, a3, 228
    6db6:	322982        	l32i	a8, a9, 200
    6db9:	803940        	add	a3, a9, a4
    6dbc:	3923b2        	l32i	a11, a3, 228
    6dbf:	3c2392        	l32i	a9, a3, 240
    6dc2:	418180        	srli	a8, a8, 1
    6dc5:	08bb87        	bgeu	a11, a8, 0x6dd1
    6dc8:	144966        	bnei	a9, 4, 0x6de0
    6dcb:	3623a2        	l32i	a10, a3, 216
    6dce:	00ea56        	bnez	a10, 0x6de0
    6dd1:	3f2382        	l32i	a8, a3, 252
    6dd4:	d2b8      	l32i.n	a11, a2, 52
    6dd6:	881b      	addi.n	a8, a8, 1
    6dd8:	3f6382        	s32i	a8, a3, 252
    6ddb:	3b4a      	add.n	a3, a11, a4
    6ddd:	3963c2        	s32i	a12, a3, 228
    6de0:	3f2392        	l32i	a9, a3, 252
    6de3:	55bf97        	bgeu	a15, a9, 0x6e3c
    6de6:	d298      	l32i.n	a9, a2, 52
    6de8:	3f63c2        	s32i	a12, a3, 252
    6deb:	394a      	add.n	a3, a9, a4
    6ded:	4223a2        	l32i	a10, a3, 0x108
    6df0:	3c2382        	l32i	a8, a3, 240
    6df3:	ba1b      	addi.n	a11, a10, 1
    6df5:	01b9      	s32i.n	a11, a1, 0
    6df7:	4263b2        	s32i	a11, a3, 0x108
    6dfa:	224866        	bnei	a8, 4, 0x6e20
    6dfd:	11d9      	s32i.n	a13, a1, 4
    6dff:	aa2b      	addi.n	a10, a10, 2
    6e01:	ab0c      	movi.n	a11, 10
    6e03:	04c465        	excw
    6e06:	0c0c      	movi.n	a12, 0
    6e08:	11d8      	l32i.n	a13, a1, 4
    6e0a:	c0a0e2        	movi	a14, 192
    6e0d:	bf3c      	movi.n	a15, 59
    6e0f:	01b8      	l32i.n	a11, a1, 0
    6e11:	ba8c      	beqz.n	a10, 0x6e20
    6e13:	d2a8      	l32i.n	a10, a2, 52
    6e15:	2b0c      	movi.n	a11, 2
    6e17:	3663b2        	s32i	a11, a3, 216
    6e1a:	803a40        	add	a3, a10, a4
    6e1d:	4223b2        	l32i	a11, a3, 0x108
    6e20:	c83c      	movi.n	a8, 60
    6e22:	169b87        	bne	a11, a8, 0x6e3c
    6e25:	d2a8      	l32i.n	a10, a2, 52
    6e27:	4263c2        	s32i	a12, a3, 0x108
    6e2a:	3a4a      	add.n	a3, a10, a4
    6e2c:	452392        	l32i	a9, a3, 0x114
    6e2f:	8a1c      	movi.n	a10, 24
    6e31:	991b      	addi.n	a9, a9, 1
    6e33:	456392        	s32i	a9, a3, 0x114
    6e36:	0299a7        	bne	a9, a10, 0x6e3c
    6e39:	4563c2        	s32i	a12, a3, 0x114
    6e3c:	444b      	addi.n	a4, a4, 4
    6e3e:	c0b4d0        	sub	a11, a4, a13
    6e41:	eafb56        	bnez	a11, 0x6cf4
    6e44:	1cd2d2        	addmi	a13, a2, 0x1c00
    6e47:	2a2dd2        	l32i	a13, a13, 168
    6e4a:	8298      	l32i.n	a9, a2, 32
    6e4c:	8d8c      	beqz.n	a13, 0x6e58
    6e4e:	d2e8      	l32i.n	a14, a2, 52
    6e50:	352ee2        	l32i	a14, a14, 212
    6e53:	19e9      	s32i.n	a14, a9, 4
    6e55:	f01d      	excw
    6e57:	19c900        	excw
    6e5a:	f01d      	excw
    6e5c:	004136        	excw
    6e5f:	190c      	movi.n	a9, 1
    6e61:	060c      	movi.n	a6, 0
    6e63:	e82272        	l32i	a7, a2, 0x3a0
    6e66:	1ad232        	addmi	a3, a2, 0x1a00
    6e69:	c42342        	l32i	a4, a3, 0x310
    6e6c:	24a782        	movi	a8, 0x724
    6e6f:	778a      	add.n	a7, a7, a8
    6e71:	306407        	bbci	a4, 0, 0x6ea5
    6e74:	aa2352        	l32i	a5, a3, 0x2a8
    6e77:	091516        	beqz	a5, 0x6f0c
    6e7a:	72b8      	l32i.n	a11, a2, 28
    6e7c:	1bb8      	l32i.n	a11, a11, 4
    6e7e:	ab8c      	beqz.n	a11, 0x6e8c
    6e80:	20a550        	or	a10, a5, a5
    6e83:	04bc65        	excw
    6e86:	01a092        	movi	a9, 1
    6e89:	07fa16        	beqz	a10, 0x6f0c
    6e8c:	c56362        	s32i	a6, a3, 0x314
    6e8f:	658c      	beqz.n	a5, 0x6e99
    6e91:	b2c8      	l32i.n	a12, a2, 44
    6e93:	102cc2        	l32i	a12, a12, 64
    6e96:	7b3c26        	beqi	a12, 3, 0x6f15
    6e99:	d2d8      	l32i.n	a13, a2, 52
    6e9b:	72e8      	l32i.n	a14, a2, 28
    6e9d:	342dd2        	l32i	a13, a13, 208
    6ea0:	3ed9      	s32i.n	a13, a14, 12
    6ea2:	c42342        	l32i	a4, a3, 0x310
    6ea5:	176427        	bbci	a4, 2, 0x6ec0
    6ea8:	aa2352        	l32i	a5, a3, 0x2a8
    6eab:	55ac      	beqz.n	a5, 0x6ed4
    6ead:	92b8      	l32i.n	a11, a2, 36
    6eaf:	1bb8      	l32i.n	a11, a11, 4
    6eb1:	8b8c      	beqz.n	a11, 0x6ebd
    6eb3:	20a550        	or	a10, a5, a5
    6eb6:	04b925        	excw
    6eb9:	190c      	movi.n	a9, 1
    6ebb:	5a9c      	beqz.n	a10, 0x6ed4
    6ebd:	c76362        	s32i	a6, a3, 0x31c
    6ec0:	16e417        	bbsi	a4, 1, 0x6eda
    6ec3:	c66362        	s32i	a6, a3, 0x318
    6ec6:	00a0a2        	movi	a10, 0
    6ec9:	206437        	bbci	a4, 3, 0x6eed
    6ecc:	c86392        	s32i	a9, a3, 0x320
    6ecf:	190c      	movi.n	a9, 1
    6ed1:	000806        	j	0x6ef5
    6ed4:	c76392        	s32i	a9, a3, 0x31c
    6ed7:	e86417        	bbci	a4, 1, 0x6ec3
    6eda:	02ad      	mov.n	a10, a2
    6edc:	ffdf65        	excw
    6edf:	1a0c      	movi.n	a10, 1
    6ee1:	c423c2        	l32i	a12, a3, 0x310
    6ee4:	01a092        	movi	a9, 1
    6ee7:	c66392        	s32i	a9, a3, 0x318
    6eea:	deec37        	bbsi	a12, 3, 0x6ecc
    6eed:	c86362        	s32i	a6, a3, 0x320
    6ef0:	c96362        	s32i	a6, a3, 0x324
    6ef3:	090c      	movi.n	a9, 0
    6ef5:	c523d2        	l32i	a13, a3, 0x314
    6ef8:	c723e2        	l32i	a14, a3, 0x31c
    6efb:	5dcc      	bnez.n	a13, 0x6f04
    6efd:	3acc      	bnez.n	a10, 0x6f04
    6eff:	1ecc      	bnez.n	a14, 0x6f04
    6f01:	004916        	beqz	a9, 0x6f09
    6f04:	02ad      	mov.n	a10, a2
    6f06:	027925        	excw
    6f09:	f01d      	excw
    6f0b:	639200        	excw
    6f0e:	e556c5        	call0	0xfffec47c
    6f11:	e0c6f7        	bnall	a6, a15, 0x6ef5
    6f14:	ff          	.byte 0xff
    6f15:	2b27a2        	l32i	a10, a7, 172
    6f18:	2527b2        	l32i	a11, a7, 148
    6f1b:	04b625        	excw
    6f1e:	030981        	l32r	a8, 0xfffc7b44
    6f21:	d2f8      	l32i.n	a15, a2, 52
    6f23:	82aa80        	mull	a10, a10, a8
    6f26:	352ff2        	l32i	a15, a15, 212
    6f29:	7288      	l32i.n	a8, a2, 28
    6f2b:	190c      	movi.n	a9, 1
    6f2d:	ffaa      	add.n	a15, a15, a10
    6f2f:	38f9      	s32i.n	a15, a8, 12
    6f31:	ffdb46        	j	0x6ea2
    6f34:	004136        	excw
    6f37:	150c      	movi.n	a5, 1
    6f39:	d5afd2        	movi	a13, -43
    6f3c:	2b0c      	movi.n	a11, 2
    6f3e:	5c2242        	l32i	a4, a2, 0x170
    6f41:	4c0c      	movi.n	a12, 4
    6f43:	030a81        	l32r	a8, 0xfffc7b6c
    6f46:	6438      	l32i.n	a3, a4, 24
    6f48:	024e61        	l32r	a6, 0xfffc7880
    6f4b:	02c1f1        	l32r	a15, 0xfffc7a50
    6f4e:	002356        	bnez	a3, 0x6f54
    6f51:	236652        	s32i	a5, a6, 140
    6f54:	02cb51        	l32r	a5, 0xfffc7a80
    6f57:	070c      	movi.n	a7, 0
    6f59:	246672        	s32i	a7, a6, 144
    6f5c:	c468      	l32i.n	a6, a4, 48
    6f5e:	b438      	l32i.n	a3, a4, 44
    6f60:	d4e8      	l32i.n	a14, a4, 52
    6f62:	1166c0        	slli	a6, a6, 4
    6f65:	013380        	slli	a3, a3, 24
    6f68:	01ee70        	slli	a14, a14, 25
    6f6b:	10eef0        	and	a14, a14, a15
    6f6e:	103350        	and	a3, a3, a5
    6f71:	a4f8      	l32i.n	a15, a4, 40
    6f73:	9458      	l32i.n	a5, a4, 36
    6f75:	106680        	and	a6, a6, a8
    6f78:	04f0f0        	extui	a15, a15, 0, 1
    6f7b:	1155e0        	slli	a5, a5, 2
    6f7e:	20ff30        	or	a15, a15, a3
    6f81:	8438      	l32i.n	a3, a4, 32
    6f83:	1055c0        	and	a5, a5, a12
    6f86:	205560        	or	a5, a5, a6
    6f89:	1133f0        	slli	a3, a3, 1
    6f8c:	1033b0        	and	a3, a3, a11
    6f8f:	203350        	or	a3, a3, a5
    6f92:	20ff30        	or	a15, a15, a3
    6f95:	20eef0        	or	a14, a14, a15
    6f98:	030bf1        	l32r	a15, 0xfffc7bc4
    6f9b:	02a981        	l32r	a8, 0xfffc7a40
    6f9e:	02b851        	l32r	a5, 0xfffc7a80
    6fa1:	20eef0        	or	a14, a14, a15
    6fa4:	8068e2        	s32i	a14, a8, 0x200
    6fa7:	bc28a2        	l32i	a10, a8, 0x2f0
    6faa:	af2c      	movi.n	a15, 42
    6fac:	de25e2        	l32i	a14, a5, 0x378
    6faf:	10dad0        	and	a13, a10, a13
    6fb2:	20aaf0        	or	a10, a10, a15
    6fb5:	83ade0        	moveqz	a10, a13, a14
    6fb8:	bc68a2        	s32i	a10, a8, 0x2f0
    6fbb:	de2592        	l32i	a9, a5, 0x378
    6fbe:	00a062        	movi	a6, 0
    6fc1:	084916        	beqz	a9, 0x7049
    6fc4:	de25f2        	l32i	a15, a5, 0x378
    6fc7:	091f16        	beqz	a15, 0x705c
    6fca:	3b0c      	movi.n	a11, 3
    6fcc:	de2532        	l32i	a3, a5, 0x378
    6fcf:	4a0c      	movi.n	a10, 4
    6fd1:	093316        	beqz	a3, 0x7068
    6fd4:	de2592        	l32i	a9, a5, 0x378
    6fd7:	099916        	beqz	a9, 0x7074
    6fda:	091c      	movi.n	a9, 16
    6fdc:	de25c2        	l32i	a12, a5, 0x378
    6fdf:	02ccd1        	l32r	a13, 0xfffc7b10
    6fe2:	142452        	l32i	a5, a4, 80
    6fe5:	1f0c      	movi.n	a15, 1
    6fe7:	0258e1        	l32r	a14, 0xfffc7948
    6fea:	935f50        	movnez	a5, a15, a5
    6fed:	07fd      	mov.n	a15, a7
    6fef:	937e50        	movnez	a7, a14, a5
    6ff2:	93fd50        	movnez	a15, a13, a5
    6ff5:	1624e2        	l32i	a14, a4, 88
    6ff8:	00a2d2        	movi	a13, 0x200
    6ffb:	082c16        	beqz	a12, 0x7081
    6ffe:	024c      	movi.n	a2, 64
    7000:	1524c2        	l32i	a12, a4, 84
    7003:	203ba0        	or	a3, a11, a10
    7006:	203930        	or	a3, a9, a3
    7009:	11cc70        	slli	a12, a12, 9
    700c:	10ccd0        	and	a12, a12, a13
    700f:	20c2c0        	or	a12, a2, a12
    7012:	2033c0        	or	a3, a3, a12
    7015:	00a4d2        	movi	a13, 0x400
    7018:	11c660        	slli	a12, a6, 10
    701b:	10ccd0        	and	a12, a12, a13
    701e:	2033c0        	or	a3, a3, a12
    7021:	0251c1        	l32r	a12, 0xfffc7968
    7024:	11ee50        	slli	a14, a14, 11
    7027:	20ff70        	or	a15, a15, a7
    702a:	10eec0        	and	a14, a14, a12
    702d:	20ee30        	or	a14, a14, a3
    7030:	030c31        	l32r	a3, 0xfffc7c60
    7033:	20eef0        	or	a14, a14, a15
    7036:	0f2c      	movi.n	a15, 32
    7038:	93f350        	movnez	a15, a3, a5
    703b:	20eef0        	or	a14, a14, a15
    703e:	8268e2        	s32i	a14, a8, 0x208
    7041:	2124d2        	l32i	a13, a4, 132
    7044:	b268d2        	s32i	a13, a8, 0x2c8
    7047:	f01d      	excw
    7049:	1dd292        	addmi	a9, a2, 0x1d00
    704c:	2e2992        	l32i	a9, a9, 184
    704f:	1a0c      	movi.n	a10, 1
    7051:	f6f916        	beqz	a9, 0x6fc4
    7054:	44d8      	l32i.n	a13, a4, 16
    7056:	836ad0        	moveqz	a6, a10, a13
    7059:	ffd9c6        	j	0x6fc4
    705c:	e4e8      	l32i.n	a14, a4, 56
    705e:	04e0e0        	extui	a14, a14, 0, 1
    7061:	20beb0        	or	a11, a14, a11
    7064:	ffd906        	j	0x6fcc
    7067:	24a200        	extui	a10, a0, 2, 3
    706a:	aae012        	excw
    706d:	aac011        	l32r	a1, 0xffff1b70
    7070:	d7c610        	excw
    7073:	ff          	.byte 0xff
    7074:	f498      	l32i.n	a9, a4, 60
    7076:	0c1c      	movi.n	a12, 16
    7078:	1199c0        	slli	a9, a9, 4
    707b:	1099c0        	and	a9, a9, a12
    707e:	ffd686        	j	0x6fdc
    7081:	132422        	l32i	a2, a4, 76
    7084:	034c      	movi.n	a3, 64
    7086:	1122a0        	slli	a2, a2, 6
    7089:	102230        	and	a2, a2, a3
    708c:	ffdc06        	j	0x7000
    708f:	613600        	excw
    7092:	0d5100        	excw
    7095:	0e7103        	excw
    7098:	0fd103        	excw
    709b:	a94103        	excw
    709e:	a3f202        	excw
    70a1:	c13c      	movi.n	a1, 60
    70a3:	610311        	l32r	a1, 0xfffdf4b0
    70a6:	b20310        	excw
    70a9:	32fed1        	l32r	a13, 0xfffd3ca4
    70ac:	a15c22        	s16i	a2, a12, 0x142
    70af:	0c0312        	l8ui	a1, a3, 12
    70b2:	9108      	l32i.n	a0, a1, 36
    70b4:	990313        	excw
    70b7:	318901        	l32r	a0, 0xfffd36dc
    70ba:	a2aa      	add.n	a10, a2, a10
    70bc:	2923e2        	l32i	a14, a3, 164
    70bf:	2b4b      	addi.n	a2, a11, 4
    70c1:	2a2332        	l32i	a3, a3, 168
    70c4:	11ee00        	slli	a14, a14, 16
    70c7:	10ee60        	and	a14, a14, a6
    70ca:	013380        	slli	a3, a3, 24
    70cd:	1033c0        	and	a3, a3, a12
    70d0:	20ee30        	or	a14, a14, a3
    70d3:	20eef0        	or	a14, a14, a15
    70d6:	8364e2        	s32i	a14, a4, 0x20c
    70d9:	7f2a82        	l32i	a8, a10, 0x1fc
    70dc:	0315f1        	l32r	a15, 0xfffc7d30
    70df:	802aa2        	l32i	a10, a10, 0x200
    70e2:	14b980        	extui	a11, a8, 9, 2
    70e5:	119890        	slli	a9, a8, 7
    70e8:	1099d0        	and	a9, a9, a13
    70eb:	113ae0        	slli	a3, a10, 2
    70ee:	0316d1        	l32r	a13, 0xfffc7d48
    70f1:	106360        	and	a6, a3, a6
    70f4:	01aae0        	slli	a10, a10, 18
    70f7:	048080        	extui	a8, a8, 0, 1
    70fa:	018890        	slli	a8, a8, 23
    70fd:	10aac0        	and	a10, a10, a12
    7100:	743030        	extui	a3, a3, 0, 8
    7103:	2033b0        	or	a3, a3, a11
    7106:	2066a0        	or	a6, a6, a10
    7109:	0317b1        	l32r	a11, 0xfffc7d68
    710c:	203390        	or	a3, a3, a9
    710f:	206670        	or	a6, a6, a7
    7112:	1169      	s32i.n	a6, a1, 4
    7114:	203380        	or	a3, a3, a8
    7117:	880c      	movi.n	a8, 8
    7119:	203350        	or	a3, a3, a5
    711c:	2139      	s32i.n	a3, a1, 8
    711e:	8222a2        	l32i	a10, a2, 0x208
    7121:	8122c2        	l32i	a12, a2, 0x204
    7124:	8022e2        	l32i	a14, a2, 0x200
    7127:	7f2232        	l32i	a3, a2, 0x1fc
    712a:	031451        	l32r	a5, 0xfffc7d7c
    712d:	846452        	s32i	a5, a4, 0x210
    7130:	856432        	s32i	a3, a4, 0x214
    7133:	8464f2        	s32i	a15, a4, 0x210
    7136:	8564e2        	s32i	a14, a4, 0x214
    7139:	8464d2        	s32i	a13, a4, 0x210
    713c:	8564c2        	s32i	a12, a4, 0x214
    713f:	8464b2        	s32i	a11, a4, 0x210
    7142:	8564a2        	s32i	a10, a4, 0x214
    7145:	816482        	s32i	a8, a4, 0x204
    7148:	f01d      	excw
    714a:	360000        	excw
    714d:	0c0041        	l32r	a4, 0xfffca150
    7150:	2262c5        	call0	0x29780
    7153:	215c      	movi.n	a1, 82
    7155:	02a9      	s32i.n	a10, a2, 0
    7157:	f03d      	nop.n
    7159:	058076        	excw
    715c:	b12232        	l32i	a3, a2, 0x2c4
    715f:	020357        	bnone	a3, a5, 0x7165
    7162:	fffc46        	j	0x7157
    7165:	fb7c      	movi.n	a11, -1
    7167:	030f91        	l32r	a9, 0xfffc7da4
    716a:	0310a1        	l32r	a10, 0xfffc7dac
    716d:	0311c1        	l32r	a12, 0xfffc7db4
    7170:	2a2672        	l32i	a7, a6, 168
    7173:	272642        	l32i	a4, a6, 156
    7176:	282682        	l32i	a8, a6, 160
    7179:	292652        	l32i	a5, a6, 164
    717c:	744040        	extui	a4, a4, 0, 8
    717f:	118880        	slli	a8, a8, 8
    7182:	115500        	slli	a5, a5, 16
    7185:	017780        	slli	a7, a7, 24
    7188:	1077c0        	and	a7, a7, a12
    718b:	1055a0        	and	a5, a5, a10
    718e:	108890        	and	a8, a8, a9
    7191:	204480        	or	a4, a4, a8
    7194:	205570        	or	a5, a5, a7
    7197:	204450        	or	a4, a4, a5
    719a:	836242        	s32i	a4, a2, 0x20c
    719d:	031781        	l32r	a8, 0xfffc7dfc
    71a0:	031691        	l32r	a9, 0xfffc7df8
    71a3:	0315a1        	l32r	a10, 0xfffc7df8
    71a6:	0314c1        	l32r	a12, 0xfffc7df8
    71a9:	8462c2        	s32i	a12, a2, 0x210
    71ac:	8562b2        	s32i	a11, a2, 0x214
    71af:	8462a2        	s32i	a10, a2, 0x210
    71b2:	8562b2        	s32i	a11, a2, 0x214
    71b5:	846292        	s32i	a9, a2, 0x210
    71b8:	8562b2        	s32i	a11, a2, 0x214
    71bb:	846282        	s32i	a8, a2, 0x210
    71be:	8562b2        	s32i	a11, a2, 0x214
    71c1:	f01d      	excw
    71c3:	413600        	srli	a3, a0, 6
    71c6:	02ad00        	excw
    71c9:	010065        	excw
    71cc:	f01d      	excw
    71ce:	360000        	excw
    71d1:	a20041        	l32r	a4, 0xfffef9d4
    71d4:	8180a0        	src	a8, a0, a10
    71d7:	ae          	.byte 0xae
    71d8:	290c02        	l8ui	a0, a12, 41
    71db:	0b0c      	movi.n	a11, 0
    71dd:	a168b2        	s32i	a11, a8, 0x284
    71e0:	a06892        	s32i	a9, a8, 0x280
    71e3:	a02882        	l32i	a8, a8, 0x280
    71e6:	ffada5        	excw
    71e9:	020c      	movi.n	a2, 0
    71eb:	f01d      	excw
    71ed:	000000        	ill
    71f0:	004136        	excw
    71f3:	024e31        	l32r	a3, 0xfffc7b2c
    71f6:	d288      	l32i.n	a8, a2, 52
    71f8:	02b3c1        	l32r	a12, 0xfffc7cc4
    71fb:	1423b2        	l32i	a11, a3, 80
    71fe:	88a8      	l32i.n	a10, a8, 32
    7200:	122882        	l32i	a8, a8, 72
    7203:	10bbc0        	and	a11, a11, a12
    7206:	41a3a0        	srli	a10, a10, 3
    7209:	c0aab0        	sub	a10, a10, a11
    720c:	1dba87        	bgeu	a10, a8, 0x722d
    720f:	0318d1        	l32r	a13, 0xfffc7e70
    7212:	1023c2        	l32i	a12, a3, 64
    7215:	11ba80        	slli	a11, a10, 8
    7218:	10acd0        	and	a10, a12, a13
    721b:	20aab0        	or	a10, a10, a11
    721e:	1063a2        	s32i	a10, a3, 64
    7221:	058076        	excw
    7224:	1023e2        	l32i	a14, a3, 64
    7227:	021ae7        	beq	a10, a14, 0x722d
    722a:	fffcc6        	j	0x7221
    722d:	0319a1        	l32r	a10, 0xfffc7e94
    7230:	0b0c      	movi.n	a11, 0
    7232:	ffa8e5        	excw
    7235:	031aa1        	l32r	a10, 0xfffc7ea0
    7238:	0b0c      	movi.n	a11, 0
    723a:	280c      	movi.n	a8, 2
    723c:	1f6382        	s32i	a8, a3, 124
    723f:	1f23f2        	l32i	a15, a3, 124
    7242:	ffa7e5        	excw
    7245:	020c      	movi.n	a2, 0
    7247:	f01d      	excw
    7249:	000000        	ill
    724c:	004136        	excw
    724f:	5c2282        	l32i	a8, a2, 0x170
    7252:	5838      	l32i.n	a3, a8, 20
    7254:	1a0c      	movi.n	a10, 1
    7256:	02a951        	l32r	a5, 0xfffc7cfc
    7259:	050316        	beqz	a3, 0x72ad
    725c:	040c      	movi.n	a4, 0
    725e:	02c291        	l32r	a9, 0xfffc7d68
    7261:	02c161        	l32r	a6, 0xfffc7d68
    7264:	000146        	j	0x726d
    7267:	441b00        	extui	a1, a0, 11, 5
    726a:	2b4426        	beqi	a4, 4, 0x7299
    726d:	d8d8      	l32i.n	a13, a8, 52
    726f:	8025c2        	l32i	a12, a5, 0x200
    7272:	01dd70        	slli	a13, a13, 25
    7275:	10dd60        	and	a13, a13, a6
    7278:	20ccd0        	or	a12, a12, a13
    727b:	8065c2        	s32i	a12, a5, 0x200
    727e:	8025b2        	l32i	a11, a5, 0x200
    7281:	10bb90        	and	a11, a11, a9
    7284:	8065b2        	s32i	a11, a5, 0x200
    7287:	b12572        	l32i	a7, a5, 0x2c4
    728a:	da6707        	bbci	a7, 0, 0x7268
    728d:	058076        	excw
    7290:	b125e2        	l32i	a14, a5, 0x2c4
    7293:	d16e07        	bbci	a14, 0, 0x7268
    7296:	fffcc6        	j	0x728d
    7299:	d838      	l32i.n	a3, a8, 52
    729b:	8025f2        	l32i	a15, a5, 0x200
    729e:	0020f0        	nop
    72a1:	013370        	slli	a3, a3, 25
    72a4:	103360        	and	a3, a3, a6
    72a7:	20ff30        	or	a15, a15, a3
    72aa:	8065f2        	s32i	a15, a5, 0x200
    72ad:	8165a2        	s32i	a10, a5, 0x204
    72b0:	b12572        	l32i	a7, a5, 0x2c4
    72b3:	02fd61        	l32r	a6, 0xfffc7ea8
    72b6:	6ef7e7        	bbsi	a7, 30, 0x7328
    72b9:	088076        	excw
    72bc:	b12572        	l32i	a7, a5, 0x2c4
    72bf:	f90767        	bnone	a7, a6, 0x72bc
    72c2:	036707        	bbci	a7, 0, 0x72c9
    72c5:	fffc06        	j	0x72b9
    72c8:	1bb100        	excw
    72cb:	0c2c03        	excw
    72ce:	8165c2        	s32i	a12, a5, 0x204
    72d1:	22ba      	add.n	a2, a2, a11
    72d3:	822292        	l32i	a9, a2, 0x208
    72d6:	021966        	bnei	a9, 1, 0x72dc
    72d9:	7c62a2        	s32i	a10, a2, 0x1f0
    72dc:	1028d2        	l32i	a13, a8, 64
    72df:	f03d      	nop.n
    72e1:	04bd16        	beqz	a13, 0x7330
    72e4:	02ae31        	l32r	a3, 0xfffc7d9c
    72e7:	ad2332        	l32i	a3, a3, 0x2b4
    72ea:	fe7c      	movi.n	a14, -1
    72ec:	7d22f2        	l32i	a15, a2, 0x1f4
    72ef:	7fc332        	addi	a3, a3, 127
    72f2:	413730        	srli	a3, a3, 7
    72f5:	6f3a      	add.n	a6, a15, a3
    72f7:	c0ee30        	sub	a14, a14, a3
    72fa:	0f3ef7        	bltu	a14, a15, 0x730d
    72fd:	7d6262        	s32i	a6, a2, 0x1f4
    7300:	986562        	s32i	a6, a5, 0x260
    7303:	7e2282        	l32i	a8, a2, 0x1f8
    7306:	996582        	s32i	a8, a5, 0x264
    7309:	020c      	movi.n	a2, 0
    730b:	f01d      	excw
    730d:	7e22b2        	l32i	a11, a2, 0x1f8
    7310:	a61b      	addi.n	a10, a6, 1
    7312:	7d62a2        	s32i	a10, a2, 0x1f4
    7315:	bb1b      	addi.n	a11, a11, 1
    7317:	7e62b2        	s32i	a11, a2, 0x1f8
    731a:	9865a2        	s32i	a10, a5, 0x260
    731d:	7e2292        	l32i	a9, a2, 0x1f8
    7320:	996592        	s32i	a9, a5, 0x264
    7323:	020c      	movi.n	a2, 0
    7325:	f01d      	excw
    7327:	e70700        	excw
    732a:	868d      	excw
    732c:	00ffe6        	bgei	a15, 0x100, 0x7330
    732f:	b8c100        	excw
    7332:	2cc202        	addi	a0, a2, 44
    7335:	df          	.byte 0xdf
    7336:	faac56        	bnez	a12, 0x72e4
    7339:	020c      	movi.n	a2, 0
    733b:	f01d      	excw
    733d:	000000        	ill
    7340:	008136        	excw
    7343:	049d      	mov.n	a9, a4
    7345:	024ce1        	l32r	a14, 0xfffc7c78
    7348:	02a961        	l32r	a6, 0xfffc7dec
    734b:	03ad      	mov.n	a10, a3
    734d:	024eb1        	l32r	a11, 0xfffc7c88
    7350:	5c2252        	l32i	a5, a2, 0x170
    7353:	0c0c      	movi.n	a12, 0
    7355:	146bc2        	s32i	a12, a11, 80
    7358:	136bc2        	s32i	a12, a11, 76
    735b:	7b2582        	l32i	a8, a5, 0x1ec
    735e:	02b871        	l32r	a7, 0xfffc7e40
    7361:	02c031        	l32r	a3, 0xfffc7e64
    7364:	12e816        	beqz	a8, 0x7496
    7367:	5e22d2        	l32i	a13, a2, 0x178
    736a:	02e141        	l32r	a4, 0xfffc7ef0
    736d:	7dfc      	bnez.n	a13, 0x73a8
    736f:	02b581        	l32r	a8, 0xfffc7e44
    7372:	80d230        	add	a13, a2, a3
    7375:	7d2df2        	l32i	a15, a13, 0x1f4
    7378:	7c2db2        	l32i	a11, a13, 0x1f0
    737b:	7b2dd2        	l32i	a13, a13, 0x1ec
    737e:	01ff80        	slli	a15, a15, 24
    7381:	01bbc0        	slli	a11, a11, 20
    7384:	10bb40        	and	a11, a11, a4
    7387:	10ff80        	and	a15, a15, a8
    738a:	5c2282        	l32i	a8, a2, 0x170
    738d:	20bbf0        	or	a11, a11, a15
    7390:	02bdf1        	l32r	a15, 0xfffc7e84
    7393:	262882        	l32i	a8, a8, 152
    7396:	11dd00        	slli	a13, a13, 16
    7399:	10ddf0        	and	a13, a13, a15
    739c:	f48080        	extui	a8, a8, 0, 16
    739f:	2088d0        	or	a8, a8, a13
    73a2:	2088b0        	or	a8, a8, a11
    73a5:	b06682        	s32i	a8, a6, 0x2c0
    73a8:	02bb81        	l32r	a8, 0xfffc7e94
    73ab:	031cf1        	l32r	a15, 0xfffc801c
    73ae:	00a0b2        	movi	a11, 0
    73b1:	1268b2        	s32i	a11, a8, 72
    73b4:	1168b2        	s32i	a11, a8, 68
    73b7:	0e68b2        	s32i	a11, a8, 56
    73ba:	0d68b2        	s32i	a11, a8, 52
    73bd:	1068b2        	s32i	a11, a8, 64
    73c0:	f8b9      	s32i.n	a11, a8, 60
    73c2:	0fa9      	s32i.n	a10, a15, 0
    73c4:	2f99      	s32i.n	a9, a15, 8
    73c6:	1c25d2        	l32i	a13, a5, 112
    73c9:	1368d2        	s32i	a13, a8, 76
    73cc:	8525b2        	l32i	a11, a5, 0x214
    73cf:	1468b2        	s32i	a11, a8, 80
    73d2:	1568c2        	s32i	a12, a8, 84
    73d5:	05f8      	l32i.n	a15, a5, 0
    73d7:	87afd2        	movi	a13, -121
    73da:	0c3c      	movi.n	a12, 48
    73dc:	0f9c      	beqz.n	a15, 0x73f0
    73de:	15f8      	l32i.n	a15, a5, 4
    73e0:	4588      	l32i.n	a8, a5, 16
    73e2:	20bf16        	beqz	a15, 0x75f1
    73e5:	b326a2        	l32i	a10, a6, 0x2cc
    73e8:	074816        	beqz	a8, 0x7460
    73eb:	02ad      	mov.n	a10, a2
    73ed:	00de25        	excw
    73f0:	ce27c2        	l32i	a12, a7, 0x338
    73f3:	031db1        	l32r	a11, 0xfffc8068
    73f6:	0d0c      	movi.n	a13, 0
    73f8:	04c0c0        	extui	a12, a12, 0, 1
    73fb:	b2ba      	add.n	a11, a2, a11
    73fd:	7e6bd2        	s32i	a13, a11, 0x1f8
    7400:	7d6bc2        	s32i	a12, a11, 0x1f4
    7403:	cd27a2        	l32i	a10, a7, 0x334
    7406:	7e6bc2        	s32i	a12, a11, 0x1f8
    7409:	806bc2        	s32i	a12, a11, 0x200
    740c:	7d6ba2        	s32i	a10, a11, 0x1f4
    740f:	7f6ba2        	s32i	a10, a11, 0x1fc
    7412:	3598      	l32i.n	a9, a5, 12
    7414:	990b      	addi.n	a9, a9, -1
    7416:	2f0916        	beqz	a9, 0x770a
    7419:	5e22c2        	l32i	a12, a2, 0x178
    741c:	ccfc      	bnez.n	a12, 0x745c
    741e:	05d8      	l32i.n	a13, a5, 0
    7420:	02b591        	l32r	a9, 0xfffc7ef4
    7423:	823a      	add.n	a8, a2, a3
    7425:	3dbc      	beqz.n	a13, 0x745c
    7427:	2625e2        	l32i	a14, a5, 152
    742a:	7d2822        	l32i	a2, a8, 0x1f4
    742d:	7c28f2        	l32i	a15, a8, 0x1f0
    7430:	7b2882        	l32i	a8, a8, 0x1ec
    7433:	f4e0e0        	extui	a14, a14, 0, 16
    7436:	01ffc0        	slli	a15, a15, 20
    7439:	012280        	slli	a2, a2, 24
    743c:	102290        	and	a2, a2, a9
    743f:	10ff40        	and	a15, a15, a4
    7442:	02bd91        	l32r	a9, 0xfffc7f38
    7445:	118800        	slli	a8, a8, 16
    7448:	20ff20        	or	a15, a15, a2
    744b:	020c      	movi.n	a2, 0
    744d:	108890        	and	a8, a8, a9
    7450:	20ee80        	or	a14, a14, a8
    7453:	20eef0        	or	a14, a14, a15
    7456:	b066e2        	s32i	a14, a6, 0x2c0
    7459:	f01d      	excw
    745b:	020c00        	excw
    745e:	f01d      	excw
    7460:	5c2282        	l32i	a8, a2, 0x170
    7463:	109ad0        	and	a9, a10, a13
    7466:	2099c0        	or	a9, a9, a12
    7469:	b36692        	s32i	a9, a6, 0x2cc
    746c:	6888      	l32i.n	a8, a8, 24
    746e:	f7e856        	bnez	a8, 0x73f0
    7471:	024eb1        	l32r	a11, 0xfffc7dac
    7474:	024cc1        	l32r	a12, 0xfffc7da4
    7477:	c22ba2        	l32i	a10, a11, 0x308
    747a:	20aac0        	or	a10, a10, a12
    747d:	c26ba2        	s32i	a10, a11, 0x308
    7480:	20c220        	or	a12, a2, a2
    7483:	0ea0a2        	movi	a10, 14
    7486:	0305b1        	l32r	a11, 0xfffc809c
    7489:	f90f65        	excw
    748c:	02cca1        	l32r	a10, 0xfffc7fbc
    748f:	f92c65        	excw
    7492:	ffd686        	j	0x73f0
    7495:	754800        	extui	a4, a0, 24, 8
    7498:	7b0c      	movi.n	a11, 7
    749a:	024bd1        	l32r	a13, 0xfffc7dc8
    749d:	1f0416        	beqz	a4, 0x7691
    74a0:	ff0c      	movi.n	a15, 15
    74a2:	0b8d      	mov.n	a8, a11
    74a4:	938f40        	movnez	a8, a15, a4
    74a7:	01f4c0        	slli	a15, a4, 20
    74aa:	10ffd0        	and	a15, a15, a13
    74ad:	20ff80        	or	a15, a15, a8
    74b0:	8766f2        	s32i	a15, a6, 0x21c
    74b3:	3f0c      	movi.n	a15, 3
    74b5:	018f60        	slli	a8, a15, 26
    74b8:	02a0f1        	l32r	a15, 0xfffc7f38
    74bb:	1088f0        	and	a8, a8, a15
    74be:	1a25f2        	l32i	a15, a5, 104
    74c1:	031e71        	l32r	a7, 0xfffc813c
    74c4:	11ff50        	slli	a15, a15, 11
    74c7:	10ff70        	and	a15, a15, a7
    74ca:	2088f0        	or	a8, a8, a15
    74cd:	47a2f2        	movi	a15, 0x247
    74d0:	2088f0        	or	a8, a8, a15
    74d3:	866682        	s32i	a8, a6, 0x218
    74d6:	1b2572        	l32i	a7, a5, 108
    74d9:	031181        	l32r	a8, 0xfffc8120
    74dc:	1f0c      	movi.n	a15, 1
    74de:	017780        	slli	a7, a7, 24
    74e1:	107780        	and	a7, a7, a8
    74e4:	02b881        	l32r	a8, 0xfffc7fc4
    74e7:	2077f0        	or	a7, a7, a15
    74ea:	8e6672        	s32i	a7, a6, 0x238
    74ed:	de2882        	l32i	a8, a8, 0x378
    74f0:	02b871        	l32r	a7, 0xfffc7fd0
    74f3:	1be816        	beqz	a8, 0x76b5
    74f6:	031f41        	l32r	a4, 0xfffc8174
    74f9:	8f6642        	s32i	a4, a6, 0x23c
    74fc:	de2782        	l32i	a8, a7, 0x378
    74ff:	1c9816        	beqz	a8, 0x76cc
    7502:	17a042        	movi	a4, 23
    7505:	906642        	s32i	a4, a6, 0x240
    7508:	9166c2        	s32i	a12, a6, 0x244
    750b:	9366c2        	s32i	a12, a6, 0x24c
    750e:	102582        	l32i	a8, a5, 64
    7511:	18c816        	beqz	a8, 0x76a1
    7514:	01b9      	s32i.n	a11, a1, 0
    7516:	9566e2        	s32i	a14, a6, 0x254
    7519:	823a      	add.n	a8, a2, a3
    751b:	7e68c2        	s32i	a12, a8, 0x1f8
    751e:	9766c2        	s32i	a12, a6, 0x25c
    7521:	7f68c2        	s32i	a12, a8, 0x1fc
    7524:	9866c2        	s32i	a12, a6, 0x260
    7527:	8068c2        	s32i	a12, a8, 0x200
    752a:	9966c2        	s32i	a12, a6, 0x264
    752d:	8468f2        	s32i	a15, a8, 0x210
    7530:	5c22b2        	l32i	a11, a2, 0x170
    7533:	7b48      	l32i.n	a4, a11, 28
    7535:	19c416        	beqz	a4, 0x76d5
    7538:	de2782        	l32i	a8, a7, 0x378
    753b:	1b5816        	beqz	a8, 0x76f4
    753e:	680c      	movi.n	a8, 6
    7540:	2189      	s32i.n	a8, a1, 8
    7542:	0184c0        	slli	a8, a4, 20
    7545:	10d8d0        	and	a13, a8, a13
    7548:	2188      	l32i.n	a8, a1, 8
    754a:	748080        	extui	a8, a8, 0, 8
    754d:	2088d0        	or	a8, a8, a13
    7550:	9c6682        	s32i	a8, a6, 0x270
    7553:	3d0c      	movi.n	a13, 3
    7555:	11d9      	s32i.n	a13, a1, 4
    7557:	018d60        	slli	a8, a13, 26
    755a:	02a0d1        	l32r	a13, 0xfffc7fdc
    755d:	1088d0        	and	a8, a8, a13
    7560:	1e2bd2        	l32i	a13, a11, 120
    7563:	031e41        	l32r	a4, 0xfffc81dc
    7566:	11dd50        	slli	a13, a13, 11
    7569:	10dd40        	and	a13, a13, a4
    756c:	2088d0        	or	a8, a8, a13
    756f:	47a2d2        	movi	a13, 0x247
    7572:	2088d0        	or	a8, a8, a13
    7575:	9b6682        	s32i	a8, a6, 0x26c
    7578:	1f2b42        	l32i	a4, a11, 124
    757b:	031181        	l32r	a8, 0xfffc81c0
    757e:	014480        	slli	a4, a4, 24
    7581:	104480        	and	a4, a4, a8
    7584:	2044f0        	or	a4, a4, a15
    7587:	a36642        	s32i	a4, a6, 0x28c
    758a:	202bd2        	l32i	a13, a11, 128
    758d:	032041        	l32r	a4, 0xfffc8210
    7590:	f480d0        	extui	a8, a13, 0, 16
    7593:	11cdd2        	addi	a13, a13, 17
    7596:	208840        	or	a8, a8, a4
    7599:	f4d0d0        	extui	a13, a13, 0, 16
    759c:	20dd40        	or	a13, a13, a4
    759f:	de2742        	l32i	a4, a7, 0x378
    75a2:	83d840        	moveqz	a13, a8, a4
    75a5:	de2742        	l32i	a4, a7, 0x378
    75a8:	139416        	beqz	a4, 0x76e5
    75ab:	029741        	l32r	a4, 0xfffc8008
    75ae:	204d40        	or	a4, a13, a4
    75b1:	a46642        	s32i	a4, a6, 0x290
    75b4:	222bd2        	l32i	a13, a11, 136
    75b7:	de2782        	l32i	a8, a7, 0x378
    75ba:	7440d0        	extui	a4, a13, 0, 8
    75bd:	11cdd2        	addi	a13, a13, 17
    75c0:	74d0d0        	extui	a13, a13, 0, 8
    75c3:	83d480        	moveqz	a13, a4, a8
    75c6:	a566d2        	s32i	a13, a6, 0x294
    75c9:	a666c2        	s32i	a12, a6, 0x298
    75cc:	a866c2        	s32i	a12, a6, 0x2a0
    75cf:	112b82        	l32i	a8, a11, 68
    75d2:	0d6816        	beqz	a8, 0x76ac
    75d5:	aa66e2        	s32i	a14, a6, 0x2a8
    75d8:	3b88      	l32i.n	a8, a11, 12
    75da:	b23a      	add.n	a11, a2, a3
    75dc:	124816        	beqz	a8, 0x7704
    75df:	ac66f2        	s32i	a15, a6, 0x2b0
    75e2:	816bc2        	s32i	a12, a11, 0x204
    75e5:	ad66c2        	s32i	a12, a6, 0x2b4
    75e8:	826bc2        	s32i	a12, a11, 0x208
    75eb:	ae66c2        	s32i	a12, a6, 0x2b8
    75ee:	ff5d46        	j	0x7367
    75f1:	024391        	l32r	a9, 0xfffc7f00
    75f4:	02d0b1        	l32r	a11, 0xfffc8134
    75f7:	c829a2        	l32i	a10, a9, 0x320
    75fa:	20aab0        	or	a10, a10, a11
    75fd:	c869a2        	s32i	a10, a9, 0x320
    7600:	0321a1        	l32r	a10, 0xfffc8284
    7603:	c82982        	l32i	a8, a9, 0x320
    7606:	c829f2        	l32i	a15, a9, 0x320
    7609:	c829b2        	l32i	a11, a9, 0x320
    760c:	c82982        	l32i	a8, a9, 0x320
    760f:	1088a0        	and	a8, a8, a10
    7612:	c86982        	s32i	a8, a9, 0x320
    7615:	45f8      	l32i.n	a15, a5, 16
    7617:	b326a2        	l32i	a10, a6, 0x2cc
    761a:	ffbc      	beqz.n	a15, 0x765d
    761c:	0323e1        	l32r	a14, 0xfffc82a8
    761f:	0322f1        	l32r	a15, 0xfffc82a8
    7622:	024ed1        	l32r	a13, 0xfffc7f5c
    7625:	783c      	movi.n	a8, 55
    7627:	10faf0        	and	a15, a10, a15
    762a:	20ff80        	or	a15, a15, a8
    762d:	b366f2        	s32i	a15, a6, 0x2cc
    7630:	c22dc2        	l32i	a12, a13, 0x308
    7633:	0324b1        	l32r	a11, 0xfffc82c4
    7636:	0aa0a2        	movi	a10, 10
    7639:	20cce0        	or	a12, a12, a14
    763c:	c26dc2        	s32i	a12, a13, 0x308
    763f:	02cd      	mov.n	a12, a2
    7641:	f8f3e5        	excw
    7644:	00a4a2        	movi	a10, 0x400
    7647:	f910e5        	excw
    764a:	da0c      	movi.n	a10, 13
    764c:	0325b1        	l32r	a11, 0xfffc82e0
    764f:	02cd      	mov.n	a12, a2
    7651:	f8f2e5        	excw
    7654:	02d0a1        	l32r	a10, 0xfffc8194
    7657:	f90fe5        	excw
    765a:	000206        	j	0x7666
    765d:	108ad0        	and	a8, a10, a13
    7660:	2088c0        	or	a8, a8, a12
    7663:	b36682        	s32i	a8, a6, 0x2cc
    7666:	5c2292        	l32i	a9, a2, 0x170
    7669:	6998      	l32i.n	a9, a9, 24
    766b:	d81956        	bnez	a9, 0x73f0
    766e:	024eb1        	l32r	a11, 0xfffc7fa8
    7671:	024cc1        	l32r	a12, 0xfffc7fa4
    7674:	c22ba2        	l32i	a10, a11, 0x308
    7677:	20aac0        	or	a10, a10, a12
    767a:	c26ba2        	s32i	a10, a11, 0x308
    767d:	20c220        	or	a12, a2, a2
    7680:	ea0c      	movi.n	a10, 14
    7682:	0305b1        	l32r	a11, 0xfffc8298
    7685:	f8efa5        	excw
    7688:	02cca1        	l32r	a10, 0xfffc81b8
    768b:	f90ca5        	excw
    768e:	ff5786        	j	0x73f0
    7691:	e588      	l32i.n	a8, a5, 56
    7693:	e09856        	bnez	a8, 0x74a0
    7696:	de27f2        	l32i	a15, a7, 0x378
    7699:	e03f56        	bnez	a15, 0x74a0
    769c:	1f0c      	movi.n	a15, 1
    769e:	ff84c6        	j	0x74b5
    76a1:	de2782        	l32i	a8, a7, 0x378
    76a4:	e6c856        	bnez	a8, 0x7514
    76a7:	01b9      	s32i.n	a11, a1, 0
    76a9:	ffa0c6        	j	0x7530
    76ac:	de27d2        	l32i	a13, a7, 0x378
    76af:	f22d56        	bnez	a13, 0x75d5
    76b2:	ff2c46        	j	0x7367
    76b5:	102542        	l32i	a4, a5, 64
    76b8:	029781        	l32r	a8, 0xfffc8114
    76bb:	014410        	slli	a4, a4, 31
    76be:	104480        	and	a4, a4, a8
    76c1:	032081        	l32r	a8, 0xfffc8344
    76c4:	204480        	or	a4, a4, a8
    76c7:	ff8b86        	j	0x74f9
    76ca:	420000        	excw
    76cd:	401d25        	excw
    76d0:	c67440        	excw
    76d3:	ff8b      	addi.n	a15, a15, 8
    76d5:	fb88      	l32i.n	a8, a11, 60
    76d7:	e5d856        	bnez	a8, 0x7538
    76da:	de2782        	l32i	a8, a7, 0x378
    76dd:	e57856        	bnez	a8, 0x7538
    76e0:	1d0c      	movi.n	a13, 1
    76e2:	ff9c46        	j	0x7557
    76e5:	112b42        	l32i	a4, a11, 68
    76e8:	029781        	l32r	a8, 0xfffc8144
    76eb:	014410        	slli	a4, a4, 31
    76ee:	104480        	and	a4, a4, a8
    76f1:	ffae46        	j	0x75ae
    76f4:	5129      	s32i.n	a2, a1, 20
    76f6:	0128      	l32i.n	a2, a1, 0
    76f8:	f80c      	movi.n	a8, 15
    76fa:	932840        	movnez	a2, a8, a4
    76fd:	2129      	s32i.n	a2, a1, 8
    76ff:	5128      	l32i.n	a2, a1, 20
    7701:	ff8f46        	j	0x7542
    7704:	ac66c2        	s32i	a12, a6, 0x2b0
    7707:	ffb5c6        	j	0x75e2
    770a:	20a220        	or	a10, a2, a2
    770d:	01a0b2        	movi	a11, 1
    7710:	000065        	excw
    7713:	00a022        	movi	a2, 0
    7716:	f01d      	excw
    7718:	008136        	excw
    771b:	5c22f2        	l32i	a15, a2, 0x170
    771e:	6f88      	l32i.n	a8, a15, 24
    7720:	02bb41        	l32r	a4, 0xfffc820c
    7723:	d8bc      	beqz.n	a8, 0x7764
    7725:	1b1316        	beqz	a3, 0x78da
    7728:	852fd2        	l32i	a13, a15, 0x214
    772b:	1524b2        	l32i	a11, a4, 84
    772e:	d4c8      	l32i.n	a12, a4, 52
    7730:	bbda      	add.n	a11, a11, a13
    7732:	1564b2        	s32i	a11, a4, 84
    7735:	1c2fa2        	l32i	a10, a15, 112
    7738:	e488      	l32i.n	a8, a4, 56
    773a:	caca      	add.n	a12, a10, a12
    773c:	01bca7        	bgeu	a12, a10, 0x7741
    773f:	881b      	addi.n	a8, a8, 1
    7741:	17bbd7        	bgeu	a11, a13, 0x775c
    7744:	dc1b      	addi.n	a13, a12, 1
    7746:	0abdc7        	bgeu	a13, a12, 0x7754
    7749:	020c      	movi.n	a2, 0
    774b:	d4d9      	s32i.n	a13, a4, 52
    774d:	b81b      	addi.n	a11, a8, 1
    774f:	e4b9      	s32i.n	a11, a4, 56
    7751:	f01d      	excw
    7753:	020c00        	excw
    7756:	e489      	s32i.n	a8, a4, 56
    7758:	d4d9      	s32i.n	a13, a4, 52
    775a:	f01d      	excw
    775c:	020c      	movi.n	a2, 0
    775e:	e489      	s32i.n	a8, a4, 56
    7760:	d4c9      	s32i.n	a12, a4, 52
    7762:	f01d      	excw
    7764:	02ba61        	l32r	a6, 0xfffc824c
    7767:	02a9e1        	l32r	a14, 0xfffc820c
    776a:	030f91        	l32r	a9, 0xfffc83a8
    776d:	0c4c      	movi.n	a12, 64
    776f:	816ec2        	s32i	a12, a14, 0x204
    7772:	142fc2        	l32i	a12, a15, 80
    7775:	02b951        	l32r	a5, 0xfffc825c
    7778:	3fa8      	l32i.n	a10, a15, 12
    777a:	162c16        	beqz	a12, 0x78e0
    777d:	02ae71        	l32r	a7, 0xfffc8238
    7780:	103a16        	beqz	a10, 0x7887
    7783:	c788      	l32i.n	a8, a7, 48
    7785:	d7a8      	l32i.n	a10, a7, 52
    7787:	0a0c      	movi.n	a10, 0
    7789:	916e82        	s32i	a8, a14, 0x244
    778c:	872e92        	l32i	a9, a14, 0x21c
    778f:	0add      	mov.n	a13, a10
    7791:	01b8b0        	slli	a11, a8, 21
    7794:	109950        	and	a9, a9, a5
    7797:	2099b0        	or	a9, a9, a11
    779a:	876e92        	s32i	a9, a14, 0x21c
    779d:	882ec2        	l32i	a12, a14, 0x220
    77a0:	1bd2b2        	addmi	a11, a2, 0x1b00
    77a3:	419b80        	srli	a9, a8, 11
    77a6:	10cc60        	and	a12, a12, a6
    77a9:	20cc90        	or	a12, a12, a9
    77ac:	886ec2        	s32i	a12, a14, 0x220
    77af:	e4a9      	s32i.n	a10, a4, 56
    77b1:	122492        	l32i	a9, a4, 72
    77b4:	d489      	s32i.n	a8, a4, 52
    77b6:	1124c2        	l32i	a12, a4, 68
    77b9:	3bf916        	beqz	a9, 0x7b7c
    77bc:	3c5d16        	beqz	a13, 0x7b85
    77bf:	3139      	s32i.n	a3, a1, 12
    77c1:	5c2232        	l32i	a3, a2, 0x170
    77c4:	2a23d2        	l32i	a13, a3, 168
    77c7:	031181        	l32r	a8, 0xfffc840c
    77ca:	2923c2        	l32i	a12, a3, 164
    77cd:	01dd80        	slli	a13, a13, 24
    77d0:	10dd80        	and	a13, a13, a8
    77d3:	031081        	l32r	a8, 0xfffc8414
    77d6:	2723a2        	l32i	a10, a3, 156
    77d9:	11cc00        	slli	a12, a12, 16
    77dc:	10cc80        	and	a12, a12, a8
    77df:	20ccd0        	or	a12, a12, a13
    77e2:	2823d2        	l32i	a13, a3, 160
    77e5:	030f81        	l32r	a8, 0xfffc8424
    77e8:	74a0a0        	extui	a10, a10, 0, 8
    77eb:	11dd80        	slli	a13, a13, 8
    77ee:	10dd80        	and	a13, a13, a8
    77f1:	20aad0        	or	a10, a10, a13
    77f4:	afa0d2        	movi	a13, 175
    77f7:	20aac0        	or	a10, a10, a12
    77fa:	836ea2        	s32i	a10, a14, 0x20c
    77fd:	d02bc2        	l32i	a12, a11, 0x340
    7800:	2923a2        	l32i	a10, a3, 164
    7803:	272392        	l32i	a9, a3, 156
    7806:	34c0c0        	extui	a12, a12, 0, 4
    7809:	a0aa30        	addx4	a10, a10, a3
    780c:	a09930        	addx4	a9, a9, a3
    780f:	99da      	add.n	a9, a9, a13
    7811:	000982        	l8ui	a8, a9, 0
    7814:	aada      	add.n	a10, a10, a13
    7816:	0d7c      	movi.n	a13, -16
    7818:	1088d0        	and	a8, a8, a13
    781b:	2088c0        	or	a8, a8, a12
    781e:	004982        	s8i	a8, a9, 0
    7821:	d02bc2        	l32i	a12, a11, 0x340
    7824:	000a92        	l8ui	a9, a10, 0
    7827:	34c0c0        	extui	a12, a12, 0, 4
    782a:	1099d0        	and	a9, a9, a13
    782d:	2099c0        	or	a9, a9, a12
    7830:	004a92        	s8i	a9, a10, 0
    7833:	d02b82        	l32i	a8, a11, 0x340
    7836:	0297c1        	l32r	a12, 0xfffc8294
    7839:	092c      	movi.n	a9, 32
    783b:	881b      	addi.n	a8, a8, 1
    783d:	d06b82        	s32i	a8, a11, 0x340
    7840:	080c      	movi.n	a8, 0
    7842:	1da976        	excw
    7845:	2098c0        	or	a9, a8, a12
    7848:	a81b      	addi.n	a10, a8, 1
    784a:	846e92        	s32i	a9, a14, 0x210
    784d:	338b      	addi.n	a3, a3, 8
    784f:	292392        	l32i	a9, a3, 164
    7852:	856e92        	s32i	a9, a14, 0x214
    7855:	209ac0        	or	a9, a10, a12
    7858:	882b      	addi.n	a8, a8, 2
    785a:	846e92        	s32i	a9, a14, 0x210
    785d:	2a2392        	l32i	a9, a3, 168
    7860:	856e92        	s32i	a9, a14, 0x214
    7863:	0326d1        	l32r	a13, 0xfffc84fc
    7866:	02b881        	l32r	a8, 0xfffc8348
    7869:	891c      	movi.n	a9, 24
    786b:	816e92        	s32i	a9, a14, 0x204
    786e:	d228b2        	l32i	a11, a8, 0x348
    7871:	d12882        	l32i	a8, a8, 0x344
    7874:	80d8d0        	add	a13, a8, a13
    7877:	01bd87        	bgeu	a13, a8, 0x787c
    787a:	bb1b      	addi.n	a11, a11, 1
    787c:	1264b2        	s32i	a11, a4, 72
    787f:	1164d2        	s32i	a13, a4, 68
    7882:	2a0c      	movi.n	a10, 2
    7884:	816ea2        	s32i	a10, a14, 0x204
    7887:	0fb8      	l32i.n	a11, a15, 0
    7889:	04db16        	beqz	a11, 0x78da
    788c:	e7b8      	l32i.n	a11, a7, 56
    788e:	a66e92        	s32i	a9, a14, 0x298
    7891:	9c2e82        	l32i	a8, a14, 0x270
    7894:	019bb0        	slli	a9, a11, 21
    7897:	108850        	and	a8, a8, a5
    789a:	208890        	or	a8, a8, a9
    789d:	9c6e82        	s32i	a8, a14, 0x270
    78a0:	9d2ed2        	l32i	a13, a14, 0x274
    78a3:	418bb0        	srli	a8, a11, 11
    78a6:	10dd60        	and	a13, a13, a6
    78a9:	20dd80        	or	a13, a13, a8
    78ac:	9d6ed2        	s32i	a13, a14, 0x274
    78af:	3fc8      	l32i.n	a12, a15, 12
    78b1:	1c8c16        	beqz	a12, 0x7a7d
    78b4:	b12e82        	l32i	a8, a14, 0x2c4
    78b7:	1fe817        	bbsi	a8, 1, 0x78da
    78ba:	0c2fb2        	l32i	a11, a15, 48
    78bd:	4c0c      	movi.n	a12, 4
    78bf:	75a080        	extui	a10, a8, 16, 8
    78c2:	143ab7        	bltu	a10, a11, 0x78da
    78c5:	816ec2        	s32i	a12, a14, 0x204
    78c8:	b12ed2        	l32i	a13, a14, 0x2c4
    78cb:	f9ed17        	bbsi	a13, 1, 0x78c8
    78ce:	0327a1        	l32r	a10, 0xfffc856c
    78d1:	0b0c      	movi.n	a11, 0
    78d3:	ff3ee5        	excw
    78d6:	020c      	movi.n	a2, 0
    78d8:	f01d      	excw
    78da:	020c      	movi.n	a2, 0
    78dc:	f01d      	excw
    78de:	160000        	excw
    78e1:	2ada      	add.n	a2, a10, a13
    78e3:	e4d8      	l32i.n	a13, a4, 56
    78e5:	d4b8      	l32i.n	a11, a4, 52
    78e7:	09a316        	beqz	a3, 0x7985
    78ea:	0d7d      	mov.n	a7, a13
    78ec:	152f92        	l32i	a9, a15, 84
    78ef:	f4c8      	l32i.n	a12, a4, 60
    78f1:	0b8d      	mov.n	a8, a11
    78f3:	0261c2        	s32i	a12, a1, 8
    78f6:	1024c2        	l32i	a12, a4, 64
    78f9:	3ab916        	beqz	a9, 0x7ca8
    78fc:	1064c2        	s32i	a12, a4, 64
    78ff:	21a8      	l32i.n	a10, a1, 8
    7901:	f4a9      	s32i.n	a10, a4, 60
    7903:	872e92        	l32i	a9, a14, 0x21c
    7906:	01d8b0        	slli	a13, a8, 21
    7909:	109950        	and	a9, a9, a5
    790c:	209d90        	or	a9, a13, a9
    790f:	876e92        	s32i	a9, a14, 0x21c
    7912:	882eb2        	l32i	a11, a14, 0x220
    7915:	404b00        	ssai	11
    7918:	81a780        	src	a10, a7, a8
    791b:	10bb60        	and	a11, a11, a6
    791e:	20bab0        	or	a11, a10, a11
    7921:	886eb2        	s32i	a11, a14, 0x220
    7924:	002f92        	l32i	a9, a15, 0
    7927:	08bd      	mov.n	a11, a8
    7929:	017916        	beqz	a9, 0x7944
    792c:	9c2e92        	l32i	a9, a14, 0x270
    792f:	109950        	and	a9, a9, a5
    7932:	209d90        	or	a9, a13, a9
    7935:	9c6e92        	s32i	a9, a14, 0x270
    7938:	9d2ec2        	l32i	a12, a14, 0x274
    793b:	10cc60        	and	a12, a12, a6
    793e:	20cac0        	or	a12, a10, a12
    7941:	9d6ec2        	s32i	a12, a14, 0x274
    7944:	916eb2        	s32i	a11, a14, 0x244
    7947:	932ec2        	l32i	a12, a14, 0x24c
    794a:	04d070        	extui	a13, a7, 0, 1
    794d:	02b8b1        	l32r	a11, 0xfffc8430
    7950:	20ccd0        	or	a12, a12, a13
    7953:	936ec2        	s32i	a12, a14, 0x24c
    7956:	852fd2        	l32i	a13, a15, 0x214
    7959:	d52bb2        	l32i	a11, a11, 0x354
    795c:	bbda      	add.n	a11, a11, a13
    795e:	1564b2        	s32i	a11, a4, 84
    7961:	1c2f52        	l32i	a5, a15, 112
    7964:	07fd      	mov.n	a15, a7
    7966:	585a      	add.n	a5, a8, a5
    7968:	01b587        	bgeu	a5, a8, 0x796d
    796b:	f71b      	addi.n	a15, a7, 1
    796d:	0cbbd7        	bgeu	a11, a13, 0x797d
    7970:	0fdd      	mov.n	a13, a15
    7972:	b51b      	addi.n	a11, a5, 1
    7974:	09bb57        	bgeu	a11, a5, 0x7981
    7977:	df1b      	addi.n	a13, a15, 1
    7979:	000106        	j	0x7981
    797c:	05bd00        	extui	a11, a0, 29, 1
    797f:	0fdd      	mov.n	a13, a15
    7981:	d4b9      	s32i.n	a11, a4, 52
    7983:	e4d9      	s32i.n	a13, a4, 56
    7985:	02b871        	l32r	a7, 0xfffc8468
    7988:	0f0c      	movi.n	a15, 0
    798a:	0b8d      	mov.n	a8, a11
    798c:	d22762        	l32i	a6, a7, 0x348
    798f:	1bd2b2        	addmi	a11, a2, 0x1b00
    7992:	d12772        	l32i	a7, a7, 0x344
    7995:	073d67        	bltu	a13, a6, 0x79a0
    7998:	029d67        	bne	a13, a6, 0x799e
    799b:	013877        	bltu	a8, a7, 0x79a0
    799e:	1f0c      	movi.n	a15, 1
    79a0:	330f16        	beqz	a15, 0x7cd4
    79a3:	5c22a2        	l32i	a10, a2, 0x170
    79a6:	030f91        	l32r	a9, 0xfffc85e4
    79a9:	031181        	l32r	a8, 0xfffc85f0
    79ac:	2a2af2        	l32i	a15, a10, 168
    79af:	272ac2        	l32i	a12, a10, 156
    79b2:	292ad2        	l32i	a13, a10, 164
    79b5:	01ff80        	slli	a15, a15, 24
    79b8:	10ff80        	and	a15, a15, a8
    79bb:	031081        	l32r	a8, 0xfffc85fc
    79be:	11dd00        	slli	a13, a13, 16
    79c1:	74c0c0        	extui	a12, a12, 0, 8
    79c4:	10dd80        	and	a13, a13, a8
    79c7:	282a82        	l32i	a8, a10, 160
    79ca:	20ddf0        	or	a13, a13, a15
    79cd:	afa0f2        	movi	a15, 175
    79d0:	118880        	slli	a8, a8, 8
    79d3:	108890        	and	a8, a8, a9
    79d6:	20cc80        	or	a12, a12, a8
    79d9:	20ccd0        	or	a12, a12, a13
    79dc:	836ec2        	s32i	a12, a14, 0x20c
    79df:	d02bd2        	l32i	a13, a11, 0x340
    79e2:	292ac2        	l32i	a12, a10, 164
    79e5:	272a92        	l32i	a9, a10, 156
    79e8:	34d0d0        	extui	a13, a13, 0, 4
    79eb:	a0cca0        	addx4	a12, a12, a10
    79ee:	a099a0        	addx4	a9, a9, a10
    79f1:	99fa      	add.n	a9, a9, a15
    79f3:	000982        	l8ui	a8, a9, 0
    79f6:	ccfa      	add.n	a12, a12, a15
    79f8:	0f7c      	movi.n	a15, -16
    79fa:	1088f0        	and	a8, a8, a15
    79fd:	2088d0        	or	a8, a8, a13
    7a00:	004982        	s8i	a8, a9, 0
    7a03:	d02bd2        	l32i	a13, a11, 0x340
    7a06:	000c92        	l8ui	a9, a12, 0
    7a09:	34d0d0        	extui	a13, a13, 0, 4
    7a0c:	1099f0        	and	a9, a9, a15
    7a0f:	2099d0        	or	a9, a9, a13
    7a12:	004c92        	s8i	a9, a12, 0
    7a15:	d02b82        	l32i	a8, a11, 0x340
    7a18:	0297c1        	l32r	a12, 0xfffc8474
    7a1b:	092c      	movi.n	a9, 32
    7a1d:	881b      	addi.n	a8, a8, 1
    7a1f:	d06b82        	s32i	a8, a11, 0x340
    7a22:	080c      	movi.n	a8, 0
    7a24:	0abd      	mov.n	a11, a10
    7a26:	1da976        	excw
    7a29:	2098c0        	or	a9, a8, a12
    7a2c:	a81b      	addi.n	a10, a8, 1
    7a2e:	846e92        	s32i	a9, a14, 0x210
    7a31:	bb8b      	addi.n	a11, a11, 8
    7a33:	292b92        	l32i	a9, a11, 164
    7a36:	856e92        	s32i	a9, a14, 0x214
    7a39:	209ac0        	or	a9, a10, a12
    7a3c:	882b      	addi.n	a8, a8, 2
    7a3e:	846e92        	s32i	a9, a14, 0x210
    7a41:	2a2b92        	l32i	a9, a11, 168
    7a44:	856e92        	s32i	a9, a14, 0x214
    7a47:	0326b1        	l32r	a11, 0xfffc86e0
    7a4a:	02b891        	l32r	a9, 0xfffc852c
    7a4d:	8a1c      	movi.n	a10, 24
    7a4f:	816ea2        	s32i	a10, a14, 0x204
    7a52:	d22982        	l32i	a8, a9, 0x348
    7a55:	d12992        	l32i	a9, a9, 0x344
    7a58:	b9ba      	add.n	a11, a9, a11
    7a5a:	10bb97        	bgeu	a11, a9, 0x7a6e
    7a5d:	020c      	movi.n	a2, 0
    7a5f:	1164b2        	s32i	a11, a4, 68
    7a62:	2c0c      	movi.n	a12, 2
    7a64:	881b      	addi.n	a8, a8, 1
    7a66:	126482        	s32i	a8, a4, 72
    7a69:	816ec2        	s32i	a12, a14, 0x204
    7a6c:	f01d      	excw
    7a6e:	020c      	movi.n	a2, 0
    7a70:	126482        	s32i	a8, a4, 72
    7a73:	1164b2        	s32i	a11, a4, 68
    7a76:	2c0c      	movi.n	a12, 2
    7a78:	816ec2        	s32i	a12, a14, 0x204
    7a7b:	f01d      	excw
    7a7d:	02b831        	l32r	a3, 0xfffc8560
    7a80:	d22382        	l32i	a8, a3, 0x348
    7a83:	00a0d2        	movi	a13, 0
    7a86:	d12332        	l32i	a3, a3, 0x344
    7a89:	20f816        	beqz	a8, 0x7c9c
    7a8c:	0c6d16        	beqz	a13, 0x7b56
    7a8f:	5c22b2        	l32i	a11, a2, 0x170
    7a92:	030fa1        	l32r	a10, 0xfffc86d0
    7a95:	2a2b82        	l32i	a8, a11, 168
    7a98:	031191        	l32r	a9, 0xfffc86dc
    7a9b:	292bd2        	l32i	a13, a11, 164
    7a9e:	018880        	slli	a8, a8, 24
    7aa1:	108890        	and	a8, a8, a9
    7aa4:	031091        	l32r	a9, 0xfffc86e4
    7aa7:	272bc2        	l32i	a12, a11, 156
    7aaa:	11dd00        	slli	a13, a13, 16
    7aad:	10dd90        	and	a13, a13, a9
    7ab0:	282b92        	l32i	a9, a11, 160
    7ab3:	74c0c0        	extui	a12, a12, 0, 8
    7ab6:	20dd80        	or	a13, a13, a8
    7ab9:	119980        	slli	a9, a9, 8
    7abc:	1099a0        	and	a9, a9, a10
    7abf:	20cc90        	or	a12, a12, a9
    7ac2:	1bd292        	addmi	a9, a2, 0x1b00
    7ac5:	20ccd0        	or	a12, a12, a13
    7ac8:	afa022        	movi	a2, 175
    7acb:	836ec2        	s32i	a12, a14, 0x20c
    7ace:	272ba2        	l32i	a10, a11, 156
    7ad1:	292bc2        	l32i	a12, a11, 164
    7ad4:	d029d2        	l32i	a13, a9, 0x340
    7ad7:	a0aab0        	addx4	a10, a10, a11
    7ada:	a0ccb0        	addx4	a12, a12, a11
    7add:	cc2a      	add.n	a12, a12, a2
    7adf:	aa2a      	add.n	a10, a10, a2
    7ae1:	000a82        	l8ui	a8, a10, 0
    7ae4:	34d0d0        	extui	a13, a13, 0, 4
    7ae7:	027c      	movi.n	a2, -16
    7ae9:	108820        	and	a8, a8, a2
    7aec:	2088d0        	or	a8, a8, a13
    7aef:	004a82        	s8i	a8, a10, 0
    7af2:	d029d2        	l32i	a13, a9, 0x340
    7af5:	000ca2        	l8ui	a10, a12, 0
    7af8:	34d0d0        	extui	a13, a13, 0, 4
    7afb:	10aa20        	and	a10, a10, a2
    7afe:	20aad0        	or	a10, a10, a13
    7b01:	004ca2        	s8i	a10, a12, 0
    7b04:	d02982        	l32i	a8, a9, 0x340
    7b07:	0297c1        	l32r	a12, 0xfffc8564
    7b0a:	881b      	addi.n	a8, a8, 1
    7b0c:	d06982        	s32i	a8, a9, 0x340
    7b0f:	00a082        	movi	a8, 0
    7b12:	20a092        	movi	a9, 32
    7b15:	1da976        	excw
    7b18:	2098c0        	or	a9, a8, a12
    7b1b:	a81b      	addi.n	a10, a8, 1
    7b1d:	846e92        	s32i	a9, a14, 0x210
    7b20:	bb8b      	addi.n	a11, a11, 8
    7b22:	292b92        	l32i	a9, a11, 164
    7b25:	856e92        	s32i	a9, a14, 0x214
    7b28:	209ac0        	or	a9, a10, a12
    7b2b:	882b      	addi.n	a8, a8, 2
    7b2d:	846e92        	s32i	a9, a14, 0x210
    7b30:	2a2b92        	l32i	a9, a11, 168
    7b33:	856e92        	s32i	a9, a14, 0x214
    7b36:	0326b1        	l32r	a11, 0xfffc87d0
    7b39:	02b891        	l32r	a9, 0xfffc861c
    7b3c:	18a0a2        	movi	a10, 24
    7b3f:	816ea2        	s32i	a10, a14, 0x204
    7b42:	d22982        	l32i	a8, a9, 0x348
    7b45:	d12992        	l32i	a9, a9, 0x344
    7b48:	80b9b0        	add	a11, a9, a11
    7b4b:	01bb97        	bgeu	a11, a9, 0x7b50
    7b4e:	881b      	addi.n	a8, a8, 1
    7b50:	126482        	s32i	a8, a4, 72
    7b53:	1164b2        	s32i	a11, a4, 68
    7b56:	cfb8      	l32i.n	a11, a15, 48
    7b58:	b12e82        	l32i	a8, a14, 0x2c4
    7b5b:	f9e817        	bbsi	a8, 1, 0x7b58
    7b5e:	75c080        	extui	a12, a8, 16, 8
    7b61:	f33cb7        	bltu	a12, a11, 0x7b58
    7b64:	4d0c      	movi.n	a13, 4
    7b66:	816ed2        	s32i	a13, a14, 0x204
    7b69:	b12ef2        	l32i	a15, a14, 0x2c4
    7b6c:	f9ef17        	bbsi	a15, 1, 0x7b69
    7b6f:	0327a1        	l32r	a10, 0xfffc880c
    7b72:	00a0b2        	movi	a11, 0
    7b75:	ff14a5        	excw
    7b78:	020c      	movi.n	a2, 0
    7b7a:	f01d      	excw
    7b7c:	02b8c7        	bgeu	a8, a12, 0x7b82
    7b7f:	ff0e46        	j	0x77bc
    7b82:	ff0e46        	j	0x77bf
    7b85:	802b82        	l32i	a8, a11, 0x200
    7b88:	cf6816        	beqz	a8, 0x7882
    7b8b:	c30356        	bnez	a3, 0x77bf
    7b8e:	ff3c06        	j	0x7882
    7b91:	0f98      	l32i.n	a9, a15, 0
    7b93:	0020f0        	nop
    7b96:	14b916        	beqz	a9, 0x7ce5
    7b99:	1124d2        	l32i	a13, a4, 68
    7b9c:	0b0c      	movi.n	a11, 0
    7b9e:	a62e32        	l32i	a3, a14, 0x298
    7ba1:	1224a2        	l32i	a10, a4, 72
    7ba4:	f439      	s32i.n	a3, a4, 60
    7ba6:	1064b2        	s32i	a11, a4, 64
    7ba9:	23fa16        	beqz	a10, 0x7dec
    7bac:	0c6b16        	beqz	a11, 0x7c76
    7baf:	5c22b2        	l32i	a11, a2, 0x170
    7bb2:	3139      	s32i.n	a3, a1, 12
    7bb4:	030f81        	l32r	a8, 0xfffc87f0
    7bb7:	031131        	l32r	a3, 0xfffc87fc
    7bba:	2a2bd2        	l32i	a13, a11, 168
    7bbd:	272ba2        	l32i	a10, a11, 156
    7bc0:	292bc2        	l32i	a12, a11, 164
    7bc3:	01dd80        	slli	a13, a13, 24
    7bc6:	10dd30        	and	a13, a13, a3
    7bc9:	031031        	l32r	a3, 0xfffc880c
    7bcc:	11cc00        	slli	a12, a12, 16
    7bcf:	74a0a0        	extui	a10, a10, 0, 8
    7bd2:	10cc30        	and	a12, a12, a3
    7bd5:	282b32        	l32i	a3, a11, 160
    7bd8:	20ccd0        	or	a12, a12, a13
    7bdb:	afa0d2        	movi	a13, 175
    7bde:	113380        	slli	a3, a3, 8
    7be1:	103380        	and	a3, a3, a8
    7be4:	1bd282        	addmi	a8, a2, 0x1b00
    7be7:	20aa30        	or	a10, a10, a3
    7bea:	20aac0        	or	a10, a10, a12
    7bed:	836ea2        	s32i	a10, a14, 0x20c
    7bf0:	d028c2        	l32i	a12, a8, 0x340
    7bf3:	292ba2        	l32i	a10, a11, 164
    7bf6:	272b92        	l32i	a9, a11, 156
    7bf9:	34c0c0        	extui	a12, a12, 0, 4
    7bfc:	a0aab0        	addx4	a10, a10, a11
    7bff:	a099b0        	addx4	a9, a9, a11
    7c02:	99da      	add.n	a9, a9, a13
    7c04:	000932        	l8ui	a3, a9, 0
    7c07:	aada      	add.n	a10, a10, a13
    7c09:	0d7c      	movi.n	a13, -16
    7c0b:	1033d0        	and	a3, a3, a13
    7c0e:	2033c0        	or	a3, a3, a12
    7c11:	004932        	s8i	a3, a9, 0
    7c14:	d028c2        	l32i	a12, a8, 0x340
    7c17:	000a92        	l8ui	a9, a10, 0
    7c1a:	34c0c0        	extui	a12, a12, 0, 4
    7c1d:	1099d0        	and	a9, a9, a13
    7c20:	2099c0        	or	a9, a9, a12
    7c23:	004a92        	s8i	a9, a10, 0
    7c26:	d02832        	l32i	a3, a8, 0x340
    7c29:	0297c1        	l32r	a12, 0xfffc8688
    7c2c:	092c      	movi.n	a9, 32
    7c2e:	331b      	addi.n	a3, a3, 1
    7c30:	d06832        	s32i	a3, a8, 0x340
    7c33:	080c      	movi.n	a8, 0
    7c35:	1da976        	excw
    7c38:	2098c0        	or	a9, a8, a12
    7c3b:	a81b      	addi.n	a10, a8, 1
    7c3d:	846e92        	s32i	a9, a14, 0x210
    7c40:	bb8b      	addi.n	a11, a11, 8
    7c42:	292b92        	l32i	a9, a11, 164
    7c45:	856e92        	s32i	a9, a14, 0x214
    7c48:	209ac0        	or	a9, a10, a12
    7c4b:	882b      	addi.n	a8, a8, 2
    7c4d:	846e92        	s32i	a9, a14, 0x210
    7c50:	2a2b92        	l32i	a9, a11, 168
    7c53:	856e92        	s32i	a9, a14, 0x214
    7c56:	0326b1        	l32r	a11, 0xfffc88f0
    7c59:	02b891        	l32r	a9, 0xfffc873c
    7c5c:	18a0a2        	movi	a10, 24
    7c5f:	816ea2        	s32i	a10, a14, 0x204
    7c62:	d22982        	l32i	a8, a9, 0x348
    7c65:	d12992        	l32i	a9, a9, 0x344
    7c68:	80b9b0        	add	a11, a9, a11
    7c6b:	01bb97        	bgeu	a11, a9, 0x7c70
    7c6e:	881b      	addi.n	a8, a8, 1
    7c70:	126482        	s32i	a8, a4, 72
    7c73:	1164b2        	s32i	a11, a4, 68
    7c76:	cfb8      	l32i.n	a11, a15, 48
    7c78:	b12e82        	l32i	a8, a14, 0x2c4
    7c7b:	f9e817        	bbsi	a8, 1, 0x7c78
    7c7e:	75c080        	extui	a12, a8, 16, 8
    7c81:	f33cb7        	bltu	a12, a11, 0x7c78
    7c84:	4d0c      	movi.n	a13, 4
    7c86:	816ed2        	s32i	a13, a14, 0x204
    7c89:	b12ef2        	l32i	a15, a14, 0x2c4
    7c8c:	f9ef17        	bbsi	a15, 1, 0x7c89
    7c8f:	0327a1        	l32r	a10, 0xfffc892c
    7c92:	00a0b2        	movi	a11, 0
    7c95:	ff02a5        	excw
    7c98:	020c      	movi.n	a2, 0
    7c9a:	f01d      	excw
    7c9c:	02bb37        	bgeu	a11, a3, 0x7ca2
    7c9f:	ff7a46        	j	0x7a8c
    7ca2:	1d0c      	movi.n	a13, 1
    7ca4:	ff7906        	j	0x7a8c
    7ca7:	01b900        	slli	a11, a9, 32
    7caa:	2198      	l32i.n	a9, a1, 8
    7cac:	1199      	s32i.n	a9, a1, 4
    7cae:	0b0c      	movi.n	a11, 0
    7cb0:	0c3dc7        	bltu	a13, a12, 0x7cc0
    7cb3:	079dc7        	bne	a13, a12, 0x7cbe
    7cb6:	01d8      	l32i.n	a13, a1, 0
    7cb8:	0121a2        	l32i	a10, a1, 4
    7cbb:	01bad7        	bgeu	a10, a13, 0x7cc0
    7cbe:	1b0c      	movi.n	a11, 1
    7cc0:	0e6b16        	beqz	a11, 0x7daa
    7cc3:	07cd      	mov.n	a12, a7
    7cc5:	5ac8b2        	addi	a11, a8, 90
    7cc8:	01bb87        	bgeu	a11, a8, 0x7ccd
    7ccb:	c71b      	addi.n	a12, a7, 1
    7ccd:	21b9      	s32i.n	a11, a1, 8
    7ccf:	ff0a46        	j	0x78fc
    7cd2:	a20000        	excw
    7cd5:	802b      	addi.n	a8, a0, 2
    7cd7:	1a8c      	beqz.n	a10, 0x7cdc
    7cd9:	cc6356        	bnez	a3, 0x79a3
    7cdc:	020c      	movi.n	a2, 0
    7cde:	2b0c      	movi.n	a11, 2
    7ce0:	816eb2        	s32i	a11, a14, 0x204
    7ce3:	f01d      	excw
    7ce5:	0311d1        	l32r	a13, 0xfffc892c
    7ce8:	0310b1        	l32r	a11, 0xfffc8928
    7ceb:	272f92        	l32i	a9, a15, 156
    7cee:	2a2fc2        	l32i	a12, a15, 168
    7cf1:	292fa2        	l32i	a10, a15, 164
    7cf4:	749090        	extui	a9, a9, 0, 8
    7cf7:	01cc80        	slli	a12, a12, 24
    7cfa:	11aa00        	slli	a10, a10, 16
    7cfd:	10aab0        	and	a10, a10, a11
    7d00:	10ccd0        	and	a12, a12, a13
    7d03:	282fb2        	l32i	a11, a15, 160
    7d06:	20aac0        	or	a10, a10, a12
    7d09:	030fc1        	l32r	a12, 0xfffc8948
    7d0c:	0d7c      	movi.n	a13, -16
    7d0e:	11bb80        	slli	a11, a11, 8
    7d11:	10bbc0        	and	a11, a11, a12
    7d14:	afa0c2        	movi	a12, 175
    7d17:	2099b0        	or	a9, a9, a11
    7d1a:	2099a0        	or	a9, a9, a10
    7d1d:	836e92        	s32i	a9, a14, 0x20c
    7d20:	272f82        	l32i	a8, a15, 156
    7d23:	292fb2        	l32i	a11, a15, 164
    7d26:	1bd292        	addmi	a9, a2, 0x1b00
    7d29:	d029a2        	l32i	a10, a9, 0x340
    7d2c:	a0bbf0        	addx4	a11, a11, a15
    7d2f:	a088f0        	addx4	a8, a8, a15
    7d32:	88ca      	add.n	a8, a8, a12
    7d34:	000832        	l8ui	a3, a8, 0
    7d37:	bbca      	add.n	a11, a11, a12
    7d39:	34a0a0        	extui	a10, a10, 0, 4
    7d3c:	1033d0        	and	a3, a3, a13
    7d3f:	2033a0        	or	a3, a3, a10
    7d42:	004832        	s8i	a3, a8, 0
    7d45:	d029c2        	l32i	a12, a9, 0x340
    7d48:	000ba2        	l8ui	a10, a11, 0
    7d4b:	34c0c0        	extui	a12, a12, 0, 4
    7d4e:	10aad0        	and	a10, a10, a13
    7d51:	20aac0        	or	a10, a10, a12
    7d54:	004ba2        	s8i	a10, a11, 0
    7d57:	d02982        	l32i	a8, a9, 0x340
    7d5a:	0297c1        	l32r	a12, 0xfffc87b8
    7d5d:	881b      	addi.n	a8, a8, 1
    7d5f:	d06982        	s32i	a8, a9, 0x340
    7d62:	080c      	movi.n	a8, 0
    7d64:	092c      	movi.n	a9, 32
    7d66:	1da976        	excw
    7d69:	2098c0        	or	a9, a8, a12
    7d6c:	a81b      	addi.n	a10, a8, 1
    7d6e:	846e92        	s32i	a9, a14, 0x210
    7d71:	ff8b      	addi.n	a15, a15, 8
    7d73:	292f92        	l32i	a9, a15, 164
    7d76:	856e92        	s32i	a9, a14, 0x214
    7d79:	209ac0        	or	a9, a10, a12
    7d7c:	882b      	addi.n	a8, a8, 2
    7d7e:	846e92        	s32i	a9, a14, 0x210
    7d81:	2a2f92        	l32i	a9, a15, 168
    7d84:	856e92        	s32i	a9, a14, 0x214
    7d87:	0326b1        	l32r	a11, 0xfffc8a20
    7d8a:	02b8d1        	l32r	a13, 0xfffc886c
    7d8d:	8f1c      	movi.n	a15, 24
    7d8f:	816ef2        	s32i	a15, a14, 0x204
    7d92:	d22d82        	l32i	a8, a13, 0x348
    7d95:	d12dd2        	l32i	a13, a13, 0x344
    7d98:	bdba      	add.n	a11, a13, a11
    7d9a:	42bbd7        	bgeu	a11, a13, 0x7de0
    7d9d:	281b      	addi.n	a2, a8, 1
    7d9f:	1164b2        	s32i	a11, a4, 68
    7da2:	126422        	s32i	a2, a4, 72
    7da5:	020c      	movi.n	a2, 0
    7da7:	f01d      	excw
    7da9:	090c00        	excw
    7dac:	1d0c      	movi.n	a13, 1
    7dae:	0a0c      	movi.n	a10, 0
    7db0:	83ad70        	moveqz	a10, a13, a7
    7db3:	839d80        	moveqz	a9, a13, a8
    7db6:	0289a7        	bany	a9, a10, 0x7dbc
    7db9:	fecfc6        	j	0x78fc
    7dbc:	21b8      	l32i.n	a11, a1, 8
    7dbe:	0c9d      	mov.n	a9, a12
    7dc0:	939dc0        	movnez	a9, a13, a12
    7dc3:	93bdb0        	movnez	a11, a13, a11
    7dc6:	20bb90        	or	a11, a11, a9
    7dc9:	b2fb16        	beqz	a11, 0x78fc
    7dcc:	21a8      	l32i.n	a10, a1, 8
    7dce:	0cdd      	mov.n	a13, a12
    7dd0:	5acab2        	addi	a11, a10, 90
    7dd3:	01bba7        	bgeu	a11, a10, 0x7dd8
    7dd6:	dc1b      	addi.n	a13, a12, 1
    7dd8:	0b8d      	mov.n	a8, a11
    7dda:	0d7d      	mov.n	a7, a13
    7ddc:	fec706        	j	0x78fc
    7ddf:	648200        	extui	a8, a0, 2, 7
    7de2:	64b212        	excw
    7de5:	020c11        	l32r	a1, 0xfffc8618
    7de8:	f01d      	excw
    7dea:	d70000        	excw
    7ded:	4602b3        	excw
    7df0:	6e          	.byte 0x6e
    7df1:	ff          	.byte 0xff
    7df2:	1b0c      	movi.n	a11, 1
    7df4:	ff6d06        	j	0x7bac
    7df7:	413600        	srli	a3, a0, 6
    7dfa:	023800        	excw
    7dfd:	02a961        	l32r	a6, 0xfffc88a4
    7e00:	e38c      	beqz.n	a3, 0x7e12
    7e02:	b12652        	l32i	a5, a6, 0x2c4
    7e05:	09e517        	bbsi	a5, 1, 0x7e12
    7e08:	c288      	l32i.n	a8, a2, 48
    7e0a:	754050        	extui	a4, a5, 16, 8
    7e0d:	020c      	movi.n	a2, 0
    7e0f:	03b487        	bgeu	a4, a8, 0x7e16
    7e12:	020c      	movi.n	a2, 0
    7e14:	f01d      	excw
    7e16:	490c      	movi.n	a9, 4
    7e18:	816692        	s32i	a9, a6, 0x204
    7e1b:	f01d      	excw
    7e1d:	000000        	ill
    7e20:	004136        	excw
    7e23:	5c2232        	l32i	a3, a2, 0x170
    7e26:	3388      	l32i.n	a8, a3, 12
    7e28:	188c      	beqz.n	a8, 0x7e2d
    7e2a:	ff3a65        	excw
    7e2d:	6398      	l32i.n	a9, a3, 24
    7e2f:	06e956        	bnez	a9, 0x7ea1
    7e32:	13a8      	l32i.n	a10, a3, 4
    7e34:	09aa16        	beqz	a10, 0x7ed2
    7e37:	02ad      	mov.n	a10, a2
    7e39:	0034a5        	excw
    7e3c:	20a220        	or	a10, a2, a2
    7e3f:	ff2525        	excw
    7e42:	20a220        	or	a10, a2, a2
    7e45:	ff4065        	excw
    7e48:	02ad      	mov.n	a10, a2
    7e4a:	ff3025        	excw
    7e4d:	02ad      	mov.n	a10, a2
    7e4f:	ff3a25        	excw
    7e52:	7c23b2        	l32i	a11, a3, 0x1f0
    7e55:	b7a0d2        	movi	a13, 183
    7e58:	bca0f2        	movi	a15, 188
    7e5b:	055b16        	beqz	a11, 0x7eb4
    7e5e:	031cb1        	l32r	a11, 0xfffc8ad0
    7e61:	02aee1        	l32r	a14, 0xfffc891c
    7e64:	02a9a1        	l32r	a10, 0xfffc8908
    7e67:	1b88      	l32i.n	a8, a11, 4
    7e69:	ad2ee2        	l32i	a14, a14, 0x2b4
    7e6c:	0bb8      	l32i.n	a11, a11, 0
    7e6e:	902ac2        	l32i	a12, a10, 0x240
    7e71:	b12aa2        	l32i	a10, a10, 0x2c4
    7e74:	ee7b      	addi.n	a14, a14, 7
    7e76:	bb8a      	add.n	a11, a11, a8
    7e78:	41e3e0        	srli	a14, a14, 3
    7e7b:	74c0c0        	extui	a12, a12, 0, 8
    7e7e:	34aca0        	extui	a10, a10, 12, 4
    7e81:	82aaf0        	mull	a10, a10, a15
    7e84:	ccea      	add.n	a12, a12, a14
    7e86:	ec9b      	addi.n	a14, a12, 9
    7e88:	2cbde7        	bgeu	a13, a14, 0x7eb8
    7e8b:	ea8b      	addi.n	a14, a10, 8
    7e8d:	dc3b      	addi.n	a13, a12, 3
    7e8f:	24f0e0        	extui	a15, a14, 0, 3
    7e92:	41e3e0        	srli	a14, a14, 3
    7e95:	f0eef0        	subx8	a14, a14, a15
    7e98:	ebea      	add.n	a14, a11, a14
    7e9a:	035ed2        	s16i	a13, a14, 6
    7e9d:	f01d      	excw
    7e9f:	a10000        	sll	a0, a0
    7ea2:	031a      	add.n	a0, a3, a1
    7ea4:	024ef1        	l32r	a15, 0xfffc87dc
    7ea7:	0b0c      	movi.n	a11, 0
    7ea9:	180c      	movi.n	a8, 1
    7eab:	1f6f82        	s32i	a8, a15, 124
    7eae:	1f2ff2        	l32i	a15, a15, 124
    7eb1:	fee0e5        	excw
    7eb4:	f01d      	excw
    7eb6:	f20000        	excw
    7eb9:	e0c0a0        	subx4	a12, a0, a10
    7ebc:	c0da      	add.n	a12, a0, a13
    7ebe:	9c3b      	addi.n	a9, a12, 3
    7ec0:	ddfa      	add.n	a13, a13, a15
    7ec2:	24f0d0        	extui	a15, a13, 0, 3
    7ec5:	41d3d0        	srli	a13, a13, 3
    7ec8:	f0ddf0        	subx8	a13, a13, a15
    7ecb:	dbda      	add.n	a13, a11, a13
    7ecd:	035d92        	s16i	a9, a13, 6
    7ed0:	f01d      	excw
    7ed2:	02ad      	mov.n	a10, a2
    7ed4:	ff3765        	excw
    7ed7:	ffdc86        	j	0x7e4d
    7eda:	360000        	excw
    7edd:	320041        	l32r	a4, 0xfffd46e0
    7ee0:	885c22        	s16i	a2, a12, 0x110
    7ee3:	188c33        	excw
    7ee6:	ff2ea5        	excw
    7ee9:	6398      	l32i.n	a9, a3, 24
    7eeb:	399c      	beqz.n	a9, 0x7f02
    7eed:	024ea1        	l32r	a10, 0xfffc8828
    7ef0:	1b0c      	movi.n	a11, 1
    7ef2:	1f6ab2        	s32i	a11, a10, 124
    7ef5:	0b0c      	movi.n	a11, 0
    7ef7:	1f2aa2        	l32i	a10, a10, 124
    7efa:	031aa1        	l32r	a10, 0xfffc8b64
    7efd:	fedc25        	excw
    7f00:	f01d      	excw
    7f02:	02ad      	mov.n	a10, a2
    7f04:	ff3465        	excw
    7f07:	02ad      	mov.n	a10, a2
    7f09:	ff2e65        	excw
    7f0c:	f01d      	excw
    7f0e:	360000        	excw
    7f11:	0c0041        	l32r	a4, 0xfffcaf14
    7f14:	0c18      	l32i.n	a1, a12, 0
    7f16:	284136        	excw
    7f19:	95b103        	excw
    7f1c:	2b7102        	excw
    7f1f:	244203        	excw
    7f22:	7f          	.byte 0x7f
    7f23:	02a1a2        	movi	a10, 0x102
    7f26:	727a      	add.n	a7, a2, a7
    7f28:	244440        	extui	a4, a4, 4, 3
    7f2b:	d48c      	beqz.n	a4, 0x7f3c
    7f2d:	3c1426        	beqi	a4, 1, 0x7f6d
    7f30:	442426        	beqi	a4, 2, 0x7f78
    7f33:	4a3426        	beqi	a4, 3, 0x7f81
    7f36:	524426        	beqi	a4, 4, 0x7f8c
    7f39:	275426        	beqi	a4, 5, 0x7f64
    7f3c:	032951        	l32r	a5, 0xfffc8be0
    7f3f:	032a41        	l32r	a4, 0xfffc8be8
    7f42:	2095b0        	or	a9, a5, a11
    7f45:	20b4b0        	or	a11, a4, a11
    7f48:	0ba9      	s32i.n	a10, a11, 0
    7f4a:	0998      	l32i.n	a9, a9, 0
    7f4c:	7f6762        	s32i	a6, a7, 0x1fc
    7f4f:	806782        	s32i	a8, a7, 0x200
    7f52:	24a490        	extui	a10, a9, 4, 3
    7f55:	8167a2        	s32i	a10, a7, 0x204
    7f58:	049f90        	extui	a9, a9, 15, 1
    7f5b:	c08890        	sub	a8, a8, a9
    7f5e:	7e6782        	s32i	a8, a7, 0x1f8
    7f61:	f01d      	excw
    7f63:	2d4100        	excw
    7f66:	2c5103        	excw
    7f69:	f50603        	excw
    7f6c:	ff          	.byte 0xff
    7f6d:	032f41        	l32r	a4, 0xfffc8c2c
    7f70:	032e51        	l32r	a5, 0xfffc8c28
    7f73:	fff2c6        	j	0x7f42
    7f76:	410000        	srli	a0, a0, 0
    7f79:	510331        	l32r	a3, 0xfffdc388
    7f7c:	060330        	excw
    7f7f:	41fff0        	srli	a15, a15, 15
    7f82:	510333        	excw
    7f85:	c60332        	l8ui	a3, a3, 198
    7f88:	ffed      	excw
    7f8a:	410000        	srli	a0, a0, 0
    7f8d:	510335        	excw
    7f90:	060334        	excw
    7f93:	ffeb      	addi.n	a15, a15, 14
    7f95:	000000        	ill
    7f98:	004136        	excw
    7f9b:	00a4a2        	movi	a10, 0x400
    7f9e:	f87ce5        	excw
    7fa1:	033691        	l32r	a9, 0xfffc8c7c
    7fa4:	02a9f1        	l32r	a15, 0xfffc8a48
    7fa7:	0338c1        	l32r	a12, 0xfffc8c88
    7faa:	929a      	add.n	a9, a2, a9
    7fac:	7f2982        	l32i	a8, a9, 0x1fc
    7faf:	0258d1        	l32r	a13, 0xfffc8910
    7fb2:	024eb1        	l32r	a11, 0xfffc88ec
    7fb5:	881b      	addi.n	a8, a8, 1
    7fb7:	7f6982        	s32i	a8, a9, 0x1fc
    7fba:	689c      	beqz.n	a8, 0x7fd4
    7fbc:	033781        	l32r	a8, 0xfffc8c98
    7fbf:	b32fe2        	l32i	a14, a15, 0x2cc
    7fc2:	20ee80        	or	a14, a14, a8
    7fc5:	b36fe2        	s32i	a14, a15, 0x2cc
    7fc8:	c36bd2        	s32i	a13, a11, 0x30c
    7fcb:	c22ba2        	l32i	a10, a11, 0x308
    7fce:	10aac0        	and	a10, a10, a12
    7fd1:	c26ba2        	s32i	a10, a11, 0x308
    7fd4:	00a4a2        	movi	a10, 0x400
    7fd7:	f877e5        	excw
    7fda:	f01d      	excw
    7fdc:	004136        	excw
    7fdf:	02d0a1        	l32r	a10, 0xfffc8b20
    7fe2:	f878a5        	excw
    7fe5:	024e61        	l32r	a6, 0xfffc8920
    7fe8:	0339c1        	l32r	a12, 0xfffc8ccc
    7feb:	c226b2        	l32i	a11, a6, 0x308
    7fee:	02a9a1        	l32r	a10, 0xfffc8a94
    7ff1:	02b471        	l32r	a7, 0xfffc8ac4
    7ff4:	10bbc0        	and	a11, a11, a12
    7ff7:	c266b2        	s32i	a11, a6, 0x308
    7ffa:	c36672        	s32i	a7, a6, 0x30c
    7ffd:	ba2aa2        	l32i	a10, a10, 0x2e8
    8000:	1b6a07        	bbci	a10, 0, 0x801f
    8003:	3441a0        	extui	a4, a10, 1, 4
    8006:	549c      	beqz.n	a4, 0x801f
    8008:	033a51        	l32r	a5, 0xfffc8cf0
    800b:	030c      	movi.n	a3, 0
    800d:	805250        	add	a5, a2, a5
    8010:	7f2582        	l32i	a8, a5, 0x1fc
    8013:	388c      	beqz.n	a8, 0x801a
    8015:	02ad      	mov.n	a10, a2
    8017:	000325        	excw
    801a:	331b      	addi.n	a3, a3, 1
    801c:	f09347        	bne	a3, a4, 0x8010
    801f:	c32692        	l32i	a9, a6, 0x30c
    8022:	0e7967        	bbci	a9, 22, 0x8034
    8025:	058076        	excw
    8028:	c326a2        	l32i	a10, a6, 0x30c
    802b:	057a67        	bbci	a10, 22, 0x8034
    802e:	fffcc6        	j	0x8025
    8031:	000000        	ill
    8034:	c226b2        	l32i	a11, a6, 0x308
    8037:	02d0a1        	l32r	a10, 0xfffc8b78
    803a:	20bb70        	or	a11, a11, a7
    803d:	c266b2        	s32i	a11, a6, 0x308
    8040:	f87125        	excw
    8043:	f01d      	excw
    8045:	000000        	ill
    8048:	006136        	excw
    804b:	033ba1        	l32r	a10, 0xfffc8d38
    804e:	5c2242        	l32i	a4, a2, 0x170
    8051:	a2aa      	add.n	a10, a2, a10
    8053:	7d2a82        	l32i	a8, a10, 0x1f4
    8056:	02b861        	l32r	a6, 0xfffc8b38
    8059:	02a921        	l32r	a2, 0xfffc8b00
    805c:	0d1826        	beqi	a8, 1, 0x806d
    805f:	34b8      	l32i.n	a11, a4, 12
    8061:	8b8c      	beqz.n	a11, 0x806d
    8063:	df26c2        	l32i	a12, a6, 0x37c
    8066:	3c8c      	beqz.n	a12, 0x806d
    8068:	b722d2        	l32i	a13, a2, 0x2dc
    806b:	f01d      	excw
    806d:	ba22f2        	l32i	a15, a2, 0x2e8
    8070:	ee1c      	movi.n	a14, 30
    8072:	028ef7        	bany	a14, a15, 0x8078
    8075:	002146        	j	0x80fe
    8078:	d62632        	l32i	a3, a6, 0x358
    807b:	031051        	l32r	a5, 0xfffc8cbc
    807e:	02bb71        	l32r	a7, 0xfffc8b6c
    8081:	01a9      	s32i.n	a10, a1, 0
    8083:	000686        	j	0x80a1
    8086:	000000        	ill
    8089:	d62632        	l32i	a3, a6, 0x358
    808c:	2624a2        	l32i	a10, a4, 152
    808f:	aa4b      	addi.n	a10, a10, 4
    8091:	0433a7        	bltu	a3, a10, 0x8099
    8094:	030c      	movi.n	a3, 0
    8096:	166732        	s32i	a3, a7, 88
    8099:	ba22b2        	l32i	a11, a2, 0x2e8
    809c:	ec1c      	movi.n	a12, 30
    809e:	5c0bc7        	bnone	a11, a12, 0x80fe
    80a1:	044316        	beqz	a3, 0x80e9
    80a4:	b72282        	l32i	a8, a2, 0x2dc
    80a7:	b66282        	s32i	a8, a2, 0x2d8
    80aa:	d62632        	l32i	a3, a6, 0x358
    80ad:	b0a0b2        	movi	a11, 176
    80b0:	70afa2        	movi	a10, -144
    80b3:	334b      	addi.n	a3, a3, 4
    80b5:	166732        	s32i	a3, a7, 88
    80b8:	a3aa      	add.n	a10, a3, a10
    80ba:	0398e5        	excw
    80bd:	4a8c      	beqz.n	a10, 0x80c5
    80bf:	84a792        	movi	a9, 0x784
    80c2:	c69397        	bne	a3, a9, 0x808c
    80c5:	df26a2        	l32i	a10, a6, 0x37c
    80c8:	fc0a16        	beqz	a10, 0x808c
    80cb:	8fa0b2        	movi	a11, 143
    80ce:	babb37        	bgeu	a11, a3, 0x808c
    80d1:	90a0c2        	movi	a12, 144
    80d4:	3113c7        	beq	a3, a12, 0x8109
    80d7:	04a0d2        	movi	a13, 4
    80da:	8162d2        	s32i	a13, a2, 0x204
    80dd:	058076        	excw
    80e0:	b122e2        	l32i	a14, a2, 0x2c4
    80e3:	a20e57        	bnone	a14, a5, 0x8089
    80e6:	fffcc6        	j	0x80dd
    80e9:	14f8      	l32i.n	a15, a4, 4
    80eb:	1f9c      	beqz.n	a15, 0x8100
    80ed:	033c81        	l32r	a8, 0xfffc8de0
    80f0:	b66282        	s32i	a8, a2, 0x2d8
    80f3:	d62692        	l32i	a9, a6, 0x358
    80f6:	994b      	addi.n	a9, a9, 4
    80f8:	166792        	s32i	a9, a7, 88
    80fb:	ffe946        	j	0x80a4
    80fe:	f01d      	excw
    8100:	b022a2        	l32i	a10, a2, 0x2c0
    8103:	b662a2        	s32i	a10, a2, 0x2d8
    8106:	fffa46        	j	0x80f3
    8109:	1524b2        	l32i	a11, a4, 84
    810c:	045b16        	beqz	a11, 0x8155
    810f:	01d8      	l32i.n	a13, a1, 0
    8111:	802df2        	l32i	a15, a13, 0x200
    8114:	ad62f2        	s32i	a15, a2, 0x2b4
    8117:	812de2        	l32i	a14, a13, 0x204
    811a:	ae62e2        	s32i	a14, a2, 0x2b8
    811d:	2224f2        	l32i	a15, a4, 136
    8120:	2024e2        	l32i	a14, a4, 128
    8123:	fc7c      	movi.n	a12, -1
    8125:	802dd2        	l32i	a13, a13, 0x200
    8128:	c0eef0        	sub	a14, a14, a15
    812b:	eecb      	addi.n	a14, a14, 12
    812d:	41e4e0        	srli	a14, a14, 4
    8130:	adea      	add.n	a10, a13, a14
    8132:	c0cce0        	sub	a12, a12, a14
    8135:	073cd7        	bltu	a12, a13, 0x8140
    8138:	0188      	l32i.n	a8, a1, 0
    813a:	8068a2        	s32i	a10, a8, 0x200
    813d:	ffe586        	j	0x80d7
    8140:	01b8      	l32i.n	a11, a1, 0
    8142:	812b92        	l32i	a9, a11, 0x204
    8145:	ca1b      	addi.n	a12, a10, 1
    8147:	806bc2        	s32i	a12, a11, 0x200
    814a:	991b      	addi.n	a9, a9, 1
    814c:	816b92        	s32i	a9, a11, 0x204
    814f:	ffe106        	j	0x80d7
    8152:	000000        	ill
    8155:	84a3b2        	movi	a11, 0x384
    8158:	d026a2        	l32i	a10, a6, 0x340
    815b:	cf26d2        	l32i	a13, a6, 0x33c
    815e:	0f2c      	movi.n	a15, 32
    8160:	400f00        	ssr	a15
    8163:	a662d2        	s32i	a13, a2, 0x298
    8166:	a822c2        	l32i	a12, a2, 0x2a0
    8169:	b1e0a0        	sra	a14, a10
    816c:	bdba      	add.n	a11, a13, a11
    816e:	04e0e0        	extui	a14, a14, 0, 1
    8171:	20cce0        	or	a12, a12, a14
    8174:	a862c2        	s32i	a12, a2, 0x2a0
    8177:	01bbd7        	bgeu	a11, a13, 0x817c
    817a:	aa1b      	addi.n	a10, a10, 1
    817c:	1067a2        	s32i	a10, a7, 64
    817f:	f7b9      	s32i.n	a11, a7, 60
    8181:	ffe286        	j	0x810f
    8184:	004136        	excw
    8187:	02b871        	l32r	a7, 0xfffc8c68
    818a:	404b00        	ssai	11
    818d:	031291        	l32r	a9, 0xfffc8dd8
    8190:	cd2732        	l32i	a3, a7, 0x334
    8193:	ce2772        	l32i	a7, a7, 0x338
    8196:	7cac52        	movi	a5, 0xfffffc7c
    8199:	535a      	add.n	a5, a3, a5
    819b:	670b      	addi.n	a6, a7, -1
    819d:	13b537        	bgeu	a5, a3, 0x81b4
    81a0:	929a      	add.n	a9, a2, a9
    81a2:	a4a050        	extui	a10, a5, 0, 11
    81a5:	048070        	extui	a8, a7, 0, 1
    81a8:	818850        	src	a8, a8, a5
    81ab:	7f69a2        	s32i	a10, a9, 0x1fc
    81ae:	806982        	s32i	a8, a9, 0x200
    81b1:	f01d      	excw
    81b3:	b05000        	addx8	a5, a0, a0
    81b6:	12a1a4        	excw
    81b9:	4b0003        	excw
    81bc:	906040        	addx2	a6, a0, a4
    81bf:	995004        	excw
    81c2:	a2aa81        	l32r	a8, 0xffff0c6c
    81c5:	7f6ab2        	s32i	a11, a10, 0x1fc
    81c8:	806a92        	s32i	a9, a10, 0x200
    81cb:	f01d      	excw
    81cd:	000000        	ill
    81d0:	006136        	excw
    81d3:	02cca1        	l32r	a10, 0xfffc8d04
    81d6:	f85965        	excw
    81d9:	00a4a2        	movi	a10, 0x400
    81dc:	f858e5        	excw
    81df:	02d0a1        	l32r	a10, 0xfffc8d20
    81e2:	f858a5        	excw
    81e5:	02bbb1        	l32r	a11, 0xfffc8cd4
    81e8:	033da1        	l32r	a10, 0xfffc8edc
    81eb:	0c0c      	movi.n	a12, 0
    81ed:	166bc2        	s32i	a12, a11, 88
    81f0:	a2aa      	add.n	a10, a2, a10
    81f2:	562a82        	l32i	a8, a10, 0x158
    81f5:	02a991        	l32r	a9, 0xfffc8c9c
    81f8:	a46ac2        	s32i	a12, a10, 0x290
    81fb:	d8cc      	bnez.n	a8, 0x820c
    81fd:	033ef1        	l32r	a15, 0xfffc8ef8
    8200:	37a0e2        	movi	a14, 55
    8203:	10ddf0        	and	a13, a13, a15
    8206:	20dde0        	or	a13, a13, a14
    8209:	b369d2        	s32i	a13, a9, 0x2cc
    820c:	02cbe1        	l32r	a14, 0xfffc8d38
    820f:	8029f2        	l32i	a15, a9, 0x200
    8212:	02d0d1        	l32r	a13, 0xfffc8d54
    8215:	024351        	l32r	a5, 0xfffc8b24
    8218:	20efe0        	or	a14, a15, a14
    821b:	8069e2        	s32i	a14, a9, 0x200
    821e:	c82542        	l32i	a4, a5, 0x320
    8221:	02b831        	l32r	a3, 0xfffc8d04
    8224:	770c      	movi.n	a7, 7
    8226:	20d4d0        	or	a13, a4, a13
    8229:	c865d2        	s32i	a13, a5, 0x320
    822c:	a82a82        	l32i	a8, a10, 0x2a0
    822f:	024ce1        	l32r	a14, 0xfffc8b60
    8232:	024bd1        	l32r	a13, 0xfffc8b60
    8235:	15b816        	beqz	a8, 0x8394
    8238:	5c22b2        	l32i	a11, a2, 0x170
    823b:	7b68      	l32i.n	a6, a11, 28
    823d:	1d7616        	beqz	a6, 0x8418
    8240:	f50c      	movi.n	a5, 15
    8242:	078d      	mov.n	a8, a7
    8244:	938560        	movnez	a8, a5, a6
    8247:	0156c0        	slli	a5, a6, 20
    824a:	1055d0        	and	a5, a5, a13
    824d:	205580        	or	a5, a5, a8
    8250:	876952        	s32i	a5, a9, 0x21c
    8253:	350c      	movi.n	a5, 3
    8255:	02a081        	l32r	a8, 0xfffc8cd8
    8258:	015560        	slli	a5, a5, 26
    825b:	105580        	and	a5, a5, a8
    825e:	1a2b82        	l32i	a8, a11, 104
    8261:	031e31        	l32r	a3, 0xfffc8edc
    8264:	118850        	slli	a8, a8, 11
    8267:	108830        	and	a8, a8, a3
    826a:	205580        	or	a5, a5, a8
    826d:	47a282        	movi	a8, 0x247
    8270:	205580        	or	a5, a5, a8
    8273:	866952        	s32i	a5, a9, 0x218
    8276:	1b2b32        	l32i	a3, a11, 108
    8279:	031151        	l32r	a5, 0xfffc8ec0
    827c:	02b881        	l32r	a8, 0xfffc8d5c
    827f:	013380        	slli	a3, a3, 24
    8282:	103350        	and	a3, a3, a5
    8285:	150c      	movi.n	a5, 1
    8287:	203350        	or	a3, a3, a5
    828a:	8e6932        	s32i	a3, a9, 0x238
    828d:	de2882        	l32i	a8, a8, 0x378
    8290:	031f61        	l32r	a6, 0xfffc8f0c
    8293:	02b831        	l32r	a3, 0xfffc8d74
    8296:	1a2816        	beqz	a8, 0x843c
    8299:	8f6962        	s32i	a6, a9, 0x23c
    829c:	de2382        	l32i	a8, a3, 0x378
    829f:	1ae816        	beqz	a8, 0x8451
    82a2:	17a062        	movi	a6, 23
    82a5:	906962        	s32i	a6, a9, 0x240
    82a8:	9169c2        	s32i	a12, a9, 0x244
    82ab:	9369c2        	s32i	a12, a9, 0x24c
    82ae:	102b82        	l32i	a8, a11, 64
    82b1:	173816        	beqz	a8, 0x8428
    82b4:	9569e2        	s32i	a14, a9, 0x254
    82b7:	9f6ac2        	s32i	a12, a10, 0x27c
    82ba:	9769c2        	s32i	a12, a9, 0x25c
    82bd:	a06ac2        	s32i	a12, a10, 0x280
    82c0:	9869c2        	s32i	a12, a9, 0x260
    82c3:	a16ac2        	s32i	a12, a10, 0x284
    82c6:	9969c2        	s32i	a12, a9, 0x264
    82c9:	a56a52        	s32i	a5, a10, 0x294
    82cc:	5c22b2        	l32i	a11, a2, 0x170
    82cf:	7b68      	l32i.n	a6, a11, 28
    82d1:	185616        	beqz	a6, 0x845a
    82d4:	de2382        	l32i	a8, a3, 0x378
    82d7:	1a1816        	beqz	a8, 0x847c
    82da:	680c      	movi.n	a8, 6
    82dc:	0189      	s32i.n	a8, a1, 0
    82de:	002172        	l32i	a7, a1, 0
    82e1:	0186c0        	slli	a8, a6, 20
    82e4:	1088d0        	and	a8, a8, a13
    82e7:	747070        	extui	a7, a7, 0, 8
    82ea:	207780        	or	a7, a7, a8
    82ed:	9c6972        	s32i	a7, a9, 0x270
    82f0:	03a072        	movi	a7, 3
    82f3:	02a061        	l32r	a6, 0xfffc8d74
    82f6:	01d760        	slli	a13, a7, 26
    82f9:	10dd60        	and	a13, a13, a6
    82fc:	1e2b62        	l32i	a6, a11, 120
    82ff:	031e81        	l32r	a8, 0xfffc8f78
    8302:	116650        	slli	a6, a6, 11
    8305:	106680        	and	a6, a6, a8
    8308:	20dd60        	or	a13, a13, a6
    830b:	47a262        	movi	a6, 0x247
    830e:	20dd60        	or	a13, a13, a6
    8311:	9b69d2        	s32i	a13, a9, 0x26c
    8314:	1f2b82        	l32i	a8, a11, 124
    8317:	0311d1        	l32r	a13, 0xfffc8f5c
    831a:	018880        	slli	a8, a8, 24
    831d:	1088d0        	and	a8, a8, a13
    8320:	208850        	or	a8, a8, a5
    8323:	a36982        	s32i	a8, a9, 0x28c
    8326:	202b62        	l32i	a6, a11, 128
    8329:	0320d1        	l32r	a13, 0xfffc8fac
    832c:	f48060        	extui	a8, a6, 0, 16
    832f:	11c662        	addi	a6, a6, 17
    8332:	2088d0        	or	a8, a8, a13
    8335:	f46060        	extui	a6, a6, 0, 16
    8338:	2066d0        	or	a6, a6, a13
    833b:	de23d2        	l32i	a13, a3, 0x378
    833e:	8368d0        	moveqz	a6, a8, a13
    8341:	de23d2        	l32i	a13, a3, 0x378
    8344:	124d16        	beqz	a13, 0x846c
    8347:	0297d1        	l32r	a13, 0xfffc8da4
    834a:	2076d0        	or	a7, a6, a13
    834d:	a46972        	s32i	a7, a9, 0x290
    8350:	222b62        	l32i	a6, a11, 136
    8353:	de2382        	l32i	a8, a3, 0x378
    8356:	747060        	extui	a7, a6, 0, 8
    8359:	11c662        	addi	a6, a6, 17
    835c:	746060        	extui	a6, a6, 0, 8
    835f:	836780        	moveqz	a6, a7, a8
    8362:	a56962        	s32i	a6, a9, 0x294
    8365:	a669c2        	s32i	a12, a9, 0x298
    8368:	a869c2        	s32i	a12, a9, 0x2a0
    836b:	112b82        	l32i	a8, a11, 68
    836e:	0bf816        	beqz	a8, 0x8431
    8371:	aa69e2        	s32i	a14, a9, 0x2a8
    8374:	3b88      	l32i.n	a8, a11, 12
    8376:	10e816        	beqz	a8, 0x8488
    8379:	ac6952        	s32i	a5, a9, 0x2b0
    837c:	a26ac2        	s32i	a12, a10, 0x288
    837f:	ad69c2        	s32i	a12, a9, 0x2b4
    8382:	a36ac2        	s32i	a12, a10, 0x28c
    8385:	ae69c2        	s32i	a12, a9, 0x2b8
    8388:	02bbc1        	l32r	a12, 0xfffc8e74
    838b:	024351        	l32r	a5, 0xfffc8c98
    838e:	de23b2        	l32i	a11, a3, 0x378
    8391:	1f6cb2        	s32i	a11, a12, 124
    8394:	032181        	l32r	a8, 0xfffc9018
    8397:	033fb1        	l32r	a11, 0xfffc9094
    839a:	108480        	and	a8, a4, a8
    839d:	10bfb0        	and	a11, a15, a11
    83a0:	8069b2        	s32i	a11, a9, 0x200
    83a3:	c86582        	s32i	a8, a5, 0x320
    83a6:	562ad2        	l32i	a13, a10, 0x158
    83a9:	7d9c      	beqz.n	a13, 0x83c4
    83ab:	5c2292        	l32i	a9, a2, 0x170
    83ae:	062992        	l32i	a9, a9, 24
    83b1:	053916        	beqz	a9, 0x8408
    83b4:	00a4a2        	movi	a10, 0x400
    83b7:	f839e5        	excw
    83ba:	02d0a1        	l32r	a10, 0xfffc8efc
    83bd:	f83965        	excw
    83c0:	f01d      	excw
    83c2:	a20000        	excw
    83c5:	a85c22        	s16i	a2, a12, 0x150
    83c8:	416a      	add.n	a4, a1, a6
    83ca:	4e          	.byte 0x4e
    83cb:	1adc02        	addmi	a0, a12, 0x1a00
    83ce:	c224b2        	l32i	a11, a4, 0x308
    83d1:	ea0c      	movi.n	a10, 14
    83d3:	02cd      	mov.n	a12, a2
    83d5:	20bbe0        	or	a11, a11, a14
    83d8:	c264b2        	s32i	a11, a4, 0x308
    83db:	0305b1        	l32r	a11, 0xfffc8ff0
    83de:	f81a25        	excw
    83e1:	0323d1        	l32r	a13, 0xfffc9070
    83e4:	c224c2        	l32i	a12, a4, 0x308
    83e7:	0aa0a2        	movi	a10, 10
    83ea:	0324b1        	l32r	a11, 0xfffc907c
    83ed:	20ccd0        	or	a12, a12, a13
    83f0:	c264c2        	s32i	a12, a4, 0x308
    83f3:	02cd      	mov.n	a12, a2
    83f5:	f818a5        	excw
    83f8:	0da0a2        	movi	a10, 13
    83fb:	0325b1        	l32r	a11, 0xfffc9090
    83fe:	20c220        	or	a12, a2, a2
    8401:	f817e5        	excw
    8404:	ffe8c6        	j	0x83ab
    8407:	23e200        	excw
    840a:	de          	.byte 0xde
    840b:	fa5e56        	bnez	a14, 0x83b4
    840e:	02cca1        	l32r	a10, 0xfffc8f40
    8411:	f83425        	excw
    8414:	ffe706        	j	0x83b4
    8417:	eb8800        	excw
    841a:	e22856        	bnez	a8, 0x8240
    841d:	de2382        	l32i	a8, a3, 0x378
    8420:	e1c856        	bnez	a8, 0x8240
    8423:	150c      	movi.n	a5, 1
    8425:	ff8b06        	j	0x8255
    8428:	de23b2        	l32i	a11, a3, 0x378
    842b:	e85b56        	bnez	a11, 0x82b4
    842e:	ffa686        	j	0x82cc
    8431:	de23d2        	l32i	a13, a3, 0x378
    8434:	f39d56        	bnez	a13, 0x8371
    8437:	ffd346        	j	0x8388
    843a:	620000        	excw
    843d:	102b      	addi.n	a1, a0, 2
    843f:	029781        	l32r	a8, 0xfffc8e9c
    8442:	016610        	slli	a6, a6, 31
    8445:	106680        	and	a6, a6, a8
    8448:	032081        	l32r	a8, 0xfffc90c8
    844b:	206680        	or	a6, a6, a8
    844e:	ff91c6        	j	0x8299
    8451:	1d2b62        	l32i	a6, a11, 116
    8454:	746060        	extui	a6, a6, 0, 8
    8457:	ff9286        	j	0x82a5
    845a:	fb88      	l32i.n	a8, a11, 60
    845c:	e74856        	bnez	a8, 0x82d4
    845f:	de2382        	l32i	a8, a3, 0x378
    8462:	e6e856        	bnez	a8, 0x82d4
    8465:	170c      	movi.n	a7, 1
    8467:	ffa206        	j	0x82f3
    846a:	d20000        	excw
    846d:	112b      	addi.n	a1, a1, 2
    846f:	029781        	l32r	a8, 0xfffc8ecc
    8472:	01dd10        	slli	a13, a13, 31
    8475:	10dd80        	and	a13, a13, a8
    8478:	ffb386        	j	0x834a
    847b:	f80c00        	excw
    847e:	937860        	movnez	a7, a8, a6
    8481:	0179      	s32i.n	a7, a1, 0
    8483:	ff95c6        	j	0x82de
    8486:	c20000        	excw
    8489:	ac69      	s32i.n	a6, a12, 40
    848b:	ffbb46        	j	0x837c
    848e:	360000        	excw
    8491:	720061        	l32r	a6, 0xfffe4c94
    8494:	0c1ad2        	l16ui	a13, a10, 24
    8497:	406104        	excw
    849a:	a03203        	excw
    849d:	415100        	srli	a5, a0, 1
    84a0:	626003        	excw
    84a3:	838080        	moveqz	a8, a0, a8
    84a6:	941b11        	l32r	a1, 0xfffed514
    84a9:	14a090        	extui	a10, a9, 0, 2
    84ac:	324a      	add.n	a3, a2, a4
    84ae:	335a      	add.n	a3, a3, a5
    84b0:	800332        	l8ui	a3, a3, 128
    84b3:	01a9      	s32i.n	a10, a1, 0
    84b5:	744090        	extui	a4, a9, 0, 8
    84b8:	203380        	or	a3, a3, a8
    84bb:	2abc      	beqz.n	a10, 0x84f1
    84bd:	172692        	l32i	a9, a6, 92
    84c0:	990b      	addi.n	a9, a9, -1
    84c2:	176692        	s32i	a9, a6, 92
    84c5:	d22782        	l32i	a8, a7, 0x348
    84c8:	fd8856        	bnez	a8, 0x84a4
    84cb:	a106b2        	l8ui	a11, a6, 161
    84ce:	1d0c      	movi.n	a13, 1
    84d0:	b0cab0        	addx8	a12, a10, a11
    84d3:	a006a2        	l8ui	a10, a6, 160
    84d6:	401b00        	ssl	a11
    84d9:	a1b300        	sll	a11, a3
    84dc:	20aab0        	or	a10, a10, a11
    84df:	0b0c      	movi.n	a11, 0
    84e1:	024be5        	excw
    84e4:	0c0c      	movi.n	a12, 0
    84e6:	1766c2        	s32i	a12, a6, 92
    84e9:	a046c2        	s8i	a12, a6, 160
    84ec:	a146c2        	s8i	a12, a6, 161
    84ef:	f01d      	excw
    84f1:	0b0c      	movi.n	a11, 0
    84f3:	03ad      	mov.n	a10, a3
    84f5:	0c2c      	movi.n	a12, 32
    84f7:	1d0c      	movi.n	a13, 1
    84f9:	024a65        	excw
    84fc:	1726e2        	l32i	a14, a6, 92
    84ff:	ee0b      	addi.n	a14, a14, -1
    8501:	1766e2        	s32i	a14, a6, 92
    8504:	d227d2        	l32i	a13, a7, 0x348
    8507:	01a8      	l32i.n	a10, a1, 0
    8509:	f97d56        	bnez	a13, 0x84a4
    850c:	a106b2        	l8ui	a11, a6, 161
    850f:	fbbb56        	bnez	a11, 0x84ce
    8512:	fff386        	j	0x84e4
    8515:	000000        	ill
    8518:	004136        	excw
    851b:	0d1416        	beqz	a4, 0x85f0
    851e:	0341e1        	l32r	a14, 0xfffc9224
    8521:	0f0c      	movi.n	a15, 0
    8523:	01a062        	movi	a6, 1
    8526:	03a072        	movi	a7, 3
    8529:	08a052        	movi	a5, 8
    852c:	1dd2b2        	addmi	a11, a2, 0x1d00
    852f:	8d0bc2        	l8ui	a12, a11, 141
    8532:	818076        	excw
    8535:	8c0b92        	l8ui	a9, a11, 140
    8538:	dc4a      	add.n	a13, a12, a4
    853a:	238de6        	bgei	a13, 8, 0x8561
    853d:	8d0b82        	l8ui	a8, a11, 141
    8540:	401400        	ssl	a4
    8543:	a1a900        	sll	a10, a9
    8546:	20a3a0        	or	a10, a3, a10
    8549:	8c4ba2        	s8i	a10, a11, 140
    854c:	884a      	add.n	a8, a8, a4
    854e:	748080        	extui	a8, a8, 0, 8
    8551:	8d4b82        	s8i	a8, a11, 141
    8554:	122bd2        	l32i	a13, a11, 72
    8557:	8c3c      	movi.n	a12, 56
    8559:	02bcd7        	bgeu	a12, a13, 0x855f
    855c:	002206        	j	0x85e8
    855f:	f01d      	excw
    8561:	f8cda2        	addi	a10, a13, -8
    8564:	c085c0        	sub	a8, a5, a12
    8567:	400a00        	ssr	a10
    856a:	91a030        	srl	a10, a3
    856d:	401800        	ssl	a8
    8570:	a19900        	sll	a9, a9
    8573:	8e0b82        	l8ui	a8, a11, 142
    8576:	2099a0        	or	a9, a9, a10
    8579:	8c4b92        	s8i	a9, a11, 140
    857c:	3c2826        	beqi	a8, 2, 0x85bc
    857f:	122bd2        	l32i	a13, a11, 72
    8582:	8d1b      	addi.n	a8, a13, 1
    8584:	126b82        	s32i	a8, a11, 72
    8587:	dd2a      	add.n	a13, a13, a2
    8589:	ddea      	add.n	a13, a13, a14
    858b:	804d92        	s8i	a9, a13, 128
    858e:	8d0ba2        	l8ui	a10, a11, 141
    8591:	8c0bc2        	l8ui	a12, a11, 140
    8594:	aa4a      	add.n	a10, a10, a4
    8596:	f8caa2        	addi	a10, a10, -8
    8599:	7440a0        	extui	a4, a10, 0, 8
    859c:	401a00        	ssl	a10
    859f:	9cbc      	beqz.n	a12, 0x85dc
    85a1:	8e4bf2        	s8i	a15, a11, 142
    85a4:	8c4bf2        	s8i	a15, a11, 140
    85a7:	0c0c      	movi.n	a12, 0
    85a9:	8d4bf2        	s8i	a15, a11, 141
    85ac:	a19600        	sll	a9, a6
    85af:	990b      	addi.n	a9, a9, -1
    85b1:	103390        	and	a3, a3, a9
    85b4:	f9c416        	beqz	a4, 0x8554
    85b7:	ffddc6        	j	0x8532
    85ba:	900000        	addx2	a0, a0, a0
    85bd:	5654c2        	s16i	a12, a4, 172
    85c0:	fbcc      	bnez.n	a11, 0x85d3
    85c2:	122bd2        	l32i	a13, a11, 72
    85c5:	8d1b      	addi.n	a8, a13, 1
    85c7:	126b82        	s32i	a8, a11, 72
    85ca:	dd2a      	add.n	a13, a13, a2
    85cc:	ddea      	add.n	a13, a13, a14
    85ce:	804d72        	s8i	a7, a13, 128
    85d1:	8e4bf2        	s8i	a15, a11, 142
    85d4:	8c0b92        	l8ui	a9, a11, 140
    85d7:	ffe906        	j	0x857f
    85da:	920000        	excw
    85dd:	8e0b      	addi.n	a8, a14, -1
    85df:	991b      	addi.n	a9, a9, 1
    85e1:	8e4b92        	s8i	a9, a11, 142
    85e4:	ffef06        	j	0x85a4
    85e7:	02ad00        	excw
    85ea:	ffea65        	excw
    85ed:	f01d      	excw
    85ef:	d2b200        	excw
    85f2:	461d      	excw
    85f4:	00ffd7        	bbsi	a15, 29, 0x85f8
    85f7:	413600        	srli	a3, a0, 6
    85fa:	a15200        	sll	a5, a2
    85fd:	428000        	excw
    8600:	a06211        	l32r	a1, 0xffff0788
    8603:	633080        	excw
    8606:	606093        	excw
    8609:	445074        	excw
    860c:	ae5110        	excw
    860f:	446002        	s32i	a0, a0, 0x110
    8612:	654220        	extui	a4, a2, 18, 7
    8615:	f01da1        	l32r	a10, 0x468c (0x1c66150c)
    8618:	006136        	excw
    861b:	034241        	l32r	a4, 0xfffc9324
    861e:	d258      	l32i.n	a5, a2, 52
    8620:	424a      	add.n	a4, a2, a4
    8622:	1d2482        	l32i	a8, a4, 116
    8625:	0268      	l32i.n	a6, a2, 0
    8627:	b2a8      	l32i.n	a10, a2, 44
    8629:	140816        	beqz	a8, 0x876d
    862c:	292582        	l32i	a8, a5, 164
    862f:	fdc882        	addi	a8, a8, -3
    8632:	61e816        	beqz	a8, 0x8c54
    8635:	142ab2        	l32i	a11, a10, 80
    8638:	290c      	movi.n	a9, 2
    863a:	070c      	movi.n	a7, 0
    863c:	9379b0        	movnez	a7, a9, a11
    863f:	1b0c      	movi.n	a11, 1
    8641:	1d0c      	movi.n	a13, 1
    8643:	0e0c      	movi.n	a14, 0
    8645:	0f0c      	movi.n	a15, 0
    8647:	152ac2        	l32i	a12, a10, 84
    864a:	1e64c2        	s32i	a12, a4, 120
    864d:	02ad      	mov.n	a10, a2
    864f:	0c2c      	movi.n	a12, 32
    8651:	007965        	excw
    8654:	02ad      	mov.n	a10, a2
    8656:	0b0c      	movi.n	a11, 0
    8658:	1c0c      	movi.n	a12, 1
    865a:	1d0c      	movi.n	a13, 1
    865c:	0e0c      	movi.n	a14, 0
    865e:	0f0c      	movi.n	a15, 0
    8660:	007865        	excw
    8663:	07bd      	mov.n	a11, a7
    8665:	02ad      	mov.n	a10, a2
    8667:	2c0c      	movi.n	a12, 2
    8669:	1d0c      	movi.n	a13, 1
    866b:	0e0c      	movi.n	a14, 0
    866d:	0f0c      	movi.n	a15, 0
    866f:	0077a5        	excw
    8672:	02ad      	mov.n	a10, a2
    8674:	eb0c      	movi.n	a11, 14
    8676:	5c0c      	movi.n	a12, 5
    8678:	1d0c      	movi.n	a13, 1
    867a:	0e0c      	movi.n	a14, 0
    867c:	0f0c      	movi.n	a15, 0
    867e:	0076a5        	excw
    8681:	02ad      	mov.n	a10, a2
    8683:	1b0c      	movi.n	a11, 1
    8685:	1c0c      	movi.n	a12, 1
    8687:	1d0c      	movi.n	a13, 1
    8689:	0e0c      	movi.n	a14, 0
    868b:	0f0c      	movi.n	a15, 0
    868d:	0075a5        	excw
    8690:	02ad      	mov.n	a10, a2
    8692:	3e94b2        	l16si	a11, a4, 124
    8695:	1c0c      	movi.n	a12, 1
    8697:	1d0c      	movi.n	a13, 1
    8699:	0e0c      	movi.n	a14, 0
    869b:	0f0c      	movi.n	a15, 0
    869d:	0074a5        	excw
    86a0:	02ad      	mov.n	a10, a2
    86a2:	1e24b2        	l32i	a11, a4, 120
    86a5:	6c0c      	movi.n	a12, 6
    86a7:	1d0c      	movi.n	a13, 1
    86a9:	0e0c      	movi.n	a14, 0
    86ab:	0f0c      	movi.n	a15, 0
    86ad:	0073a5        	excw
    86b0:	02ad      	mov.n	a10, a2
    86b2:	1b0c      	movi.n	a11, 1
    86b4:	1c0c      	movi.n	a12, 1
    86b6:	1d0c      	movi.n	a13, 1
    86b8:	0e0c      	movi.n	a14, 0
    86ba:	0f0c      	movi.n	a15, 0
    86bc:	0072a5        	excw
    86bf:	02ad      	mov.n	a10, a2
    86c1:	0b0c      	movi.n	a11, 0
    86c3:	3c0c      	movi.n	a12, 3
    86c5:	1d0c      	movi.n	a13, 1
    86c7:	0e0c      	movi.n	a14, 0
    86c9:	0f0c      	movi.n	a15, 0
    86cb:	0071e5        	excw
    86ce:	02ad      	mov.n	a10, a2
    86d0:	0b0c      	movi.n	a11, 0
    86d2:	4c0c      	movi.n	a12, 4
    86d4:	1d0c      	movi.n	a13, 1
    86d6:	0e0c      	movi.n	a14, 0
    86d8:	0f0c      	movi.n	a15, 0
    86da:	0070e5        	excw
    86dd:	02ad      	mov.n	a10, a2
    86df:	1e24b2        	l32i	a11, a4, 120
    86e2:	3c0c      	movi.n	a12, 3
    86e4:	1d0c      	movi.n	a13, 1
    86e6:	0e0c      	movi.n	a14, 0
    86e8:	0f0c      	movi.n	a15, 0
    86ea:	006fe5        	excw
    86ed:	02ad      	mov.n	a10, a2
    86ef:	0b0c      	movi.n	a11, 0
    86f1:	1c0c      	movi.n	a12, 1
    86f3:	1d0c      	movi.n	a13, 1
    86f5:	0e0c      	movi.n	a14, 0
    86f7:	0f0c      	movi.n	a15, 0
    86f9:	006ee5        	excw
    86fc:	02ad      	mov.n	a10, a2
    86fe:	0b0c      	movi.n	a11, 0
    8700:	1c0c      	movi.n	a12, 1
    8702:	1d0c      	movi.n	a13, 1
    8704:	0e0c      	movi.n	a14, 0
    8706:	0f0c      	movi.n	a15, 0
    8708:	006de5        	excw
    870b:	02ad      	mov.n	a10, a2
    870d:	1b0c      	movi.n	a11, 1
    870f:	1c0c      	movi.n	a12, 1
    8711:	1d0c      	movi.n	a13, 1
    8713:	0e0c      	movi.n	a14, 0
    8715:	0f0c      	movi.n	a15, 0
    8717:	006d25        	excw
    871a:	02ad      	mov.n	a10, a2
    871c:	3b0c      	movi.n	a11, 3
    871e:	2c0c      	movi.n	a12, 2
    8720:	1d0c      	movi.n	a13, 1
    8722:	0e0c      	movi.n	a14, 0
    8724:	0f0c      	movi.n	a15, 0
    8726:	006c25        	excw
    8729:	b2d8      	l32i.n	a13, a2, 44
    872b:	142dd2        	l32i	a13, a13, 80
    872e:	03bd16        	beqz	a13, 0x876d
    8731:	02ad      	mov.n	a10, a2
    8733:	0b0c      	movi.n	a11, 0
    8735:	1c0c      	movi.n	a12, 1
    8737:	1d0c      	movi.n	a13, 1
    8739:	0e0c      	movi.n	a14, 0
    873b:	0f0c      	movi.n	a15, 0
    873d:	006aa5        	excw
    8740:	02ad      	mov.n	a10, a2
    8742:	0b0c      	movi.n	a11, 0
    8744:	1c0c      	movi.n	a12, 1
    8746:	1d0c      	movi.n	a13, 1
    8748:	0e0c      	movi.n	a14, 0
    874a:	0f0c      	movi.n	a15, 0
    874c:	0069a5        	excw
    874f:	02ad      	mov.n	a10, a2
    8751:	1b0c      	movi.n	a11, 1
    8753:	1c0c      	movi.n	a12, 1
    8755:	1d0c      	movi.n	a13, 1
    8757:	0e0c      	movi.n	a14, 0
    8759:	0f0c      	movi.n	a15, 0
    875b:	0068e5        	excw
    875e:	02ad      	mov.n	a10, a2
    8760:	0b0c      	movi.n	a11, 0
    8762:	5c0c      	movi.n	a12, 5
    8764:	1d0c      	movi.n	a13, 1
    8766:	0e0c      	movi.n	a14, 0
    8768:	0f0c      	movi.n	a15, 0
    876a:	0067e5        	excw
    876d:	3e94e2        	l16si	a14, a4, 124
    8770:	034371        	l32r	a7, 0xfffc947c
    8773:	3f1e16        	beqz	a14, 0x8b68
    8776:	02ad      	mov.n	a10, a2
    8778:	1b0c      	movi.n	a11, 1
    877a:	0c2c      	movi.n	a12, 32
    877c:	1d0c      	movi.n	a13, 1
    877e:	0e0c      	movi.n	a14, 0
    8780:	0f0c      	movi.n	a15, 0
    8782:	006665        	excw
    8785:	02ad      	mov.n	a10, a2
    8787:	65a0b2        	movi	a11, 101
    878a:	8c0c      	movi.n	a12, 8
    878c:	1d0c      	movi.n	a13, 1
    878e:	0e0c      	movi.n	a14, 0
    8790:	0f0c      	movi.n	a15, 0
    8792:	006565        	excw
    8795:	03bd      	mov.n	a11, a3
    8797:	02ad      	mov.n	a10, a2
    8799:	007d65        	excw
    879c:	02ad      	mov.n	a10, a2
    879e:	1d0c      	movi.n	a13, 1
    87a0:	e822c2        	l32i	a12, a2, 0x3a0
    87a3:	0e0c      	movi.n	a14, 0
    87a5:	0f0c      	movi.n	a15, 0
    87a7:	3cb8      	l32i.n	a11, a12, 12
    87a9:	100cc2        	l8ui	a12, a12, 16
    87ac:	0063a5        	excw
    87af:	02b671        	l32r	a7, 0xfffc9288
    87b2:	727a      	add.n	a7, a2, a7
    87b4:	7f2792        	l32i	a9, a7, 0x1fc
    87b7:	242992        	l32i	a9, a9, 144
    87ba:	fec9d2        	addi	a13, a9, -2
    87bd:	4add16        	beqz	a13, 0x8c6e
    87c0:	47a916        	beqz	a9, 0x8c3e
    87c3:	02ad      	mov.n	a10, a2
    87c5:	7b0c      	movi.n	a11, 7
    87c7:	5c0c      	movi.n	a12, 5
    87c9:	1d0c      	movi.n	a13, 1
    87cb:	0e0c      	movi.n	a14, 0
    87cd:	0f0c      	movi.n	a15, 0
    87cf:	0061a5        	excw
    87d2:	7f2792        	l32i	a9, a7, 0x1fc
    87d5:	02ad      	mov.n	a10, a2
    87d7:	2429c2        	l32i	a12, a9, 144
    87da:	130c      	movi.n	a3, 1
    87dc:	262982        	l32i	a8, a9, 152
    87df:	401c00        	ssl	a12
    87e2:	a1b300        	sll	a11, a3
    87e5:	2088b0        	or	a8, a8, a11
    87e8:	266982        	s32i	a8, a9, 152
    87eb:	8304b2        	l8ui	a11, a4, 131
    87ee:	007825        	excw
    87f1:	02ad      	mov.n	a10, a2
    87f3:	1d0c      	movi.n	a13, 1
    87f5:	e822c2        	l32i	a12, a2, 0x3a0
    87f8:	0e0c      	movi.n	a14, 0
    87fa:	0f0c      	movi.n	a15, 0
    87fc:	3cb8      	l32i.n	a11, a12, 12
    87fe:	100cc2        	l8ui	a12, a12, 16
    8801:	005e65        	excw
    8804:	02ad      	mov.n	a10, a2
    8806:	1d0c      	movi.n	a13, 1
    8808:	0e0c      	movi.n	a14, 0
    880a:	b2b8      	l32i.n	a11, a2, 44
    880c:	7f0492        	l8ui	a9, a4, 127
    880f:	0f0c      	movi.n	a15, 0
    8811:	4f2bb2        	l32i	a11, a11, 0x13c
    8814:	994b      	addi.n	a9, a9, 4
    8816:	74c090        	extui	a12, a9, 0, 8
    8819:	401900        	ssl	a9
    881c:	a18300        	sll	a8, a3
    881f:	880b      	addi.n	a8, a8, -1
    8821:	10bb80        	and	a11, a11, a8
    8824:	005c25        	excw
    8827:	8504c2        	l8ui	a12, a4, 133
    882a:	1e1c66        	bnei	a12, 1, 0x884c
    882d:	02ad      	mov.n	a10, a2
    882f:	1b0c      	movi.n	a11, 1
    8831:	1c0c      	movi.n	a12, 1
    8833:	1d0c      	movi.n	a13, 1
    8835:	0e0c      	movi.n	a14, 0
    8837:	0f0c      	movi.n	a15, 0
    8839:	005ae5        	excw
    883c:	02ad      	mov.n	a10, a2
    883e:	2a24b2        	l32i	a11, a4, 168
    8841:	1c0c      	movi.n	a12, 1
    8843:	1d0c      	movi.n	a13, 1
    8845:	0e0c      	movi.n	a14, 0
    8847:	0f0c      	movi.n	a15, 0
    8849:	0059e5        	excw
    884c:	3e94d2        	l16si	a13, a4, 124
    884f:	01dd16        	beqz	a13, 0x8870
    8852:	0b22b2        	l32i	a11, a2, 44
    8855:	02ad      	mov.n	a10, a2
    8857:	122bb2        	l32i	a11, a11, 72
    885a:	007165        	excw
    885d:	02ad      	mov.n	a10, a2
    885f:	1d0c      	movi.n	a13, 1
    8861:	e822c2        	l32i	a12, a2, 0x3a0
    8864:	0e0c      	movi.n	a14, 0
    8866:	0f0c      	movi.n	a15, 0
    8868:	3cb8      	l32i.n	a11, a12, 12
    886a:	100cc2        	l8ui	a12, a12, 16
    886d:	0057a5        	excw
    8870:	8104d2        	l8ui	a13, a4, 129
    8873:	1dec      	bnez.n	a13, 0x8898
    8875:	02ad      	mov.n	a10, a2
    8877:	1d0c      	movi.n	a13, 1
    8879:	0e0c      	movi.n	a14, 0
    887b:	b2b8      	l32i.n	a11, a2, 44
    887d:	800492        	l8ui	a9, a4, 128
    8880:	0f0c      	movi.n	a15, 0
    8882:	502bb2        	l32i	a11, a11, 0x140
    8885:	994b      	addi.n	a9, a9, 4
    8887:	74c090        	extui	a12, a9, 0, 8
    888a:	401900        	ssl	a9
    888d:	a18300        	sll	a8, a3
    8890:	880b      	addi.n	a8, a8, -1
    8892:	10bb80        	and	a11, a11, a8
    8895:	005525        	excw
    8898:	7f27c2        	l32i	a12, a7, 0x1fc
    889b:	242cc2        	l32i	a12, a12, 144
    889e:	3e2c16        	beqz	a12, 0x8c84
    88a1:	0b22a2        	l32i	a10, a2, 44
    88a4:	102ad2        	l32i	a13, a10, 64
    88a7:	efa032        	movi	a3, 239
    88aa:	142ab2        	l32i	a11, a10, 80
    88ad:	fdcdd2        	addi	a13, a13, -3
    88b0:	2e8d16        	beqz	a13, 0x8b9c
    88b3:	1fdb16        	beqz	a11, 0x8ab4
    88b6:	212ae2        	l32i	a14, a10, 132
    88b9:	39ce16        	beqz	a14, 0x8c59
    88bc:	20a220        	or	a10, a2, a2
    88bf:	01a0b2        	movi	a11, 1
    88c2:	1c0c      	movi.n	a12, 1
    88c4:	1d0c      	movi.n	a13, 1
    88c6:	0e0c      	movi.n	a14, 0
    88c8:	0f0c      	movi.n	a15, 0
    88ca:	0051e5        	excw
    88cd:	0343f1        	l32r	a15, 0xfffc95dc
    88d0:	030c      	movi.n	a3, 0
    88d2:	3159      	s32i.n	a5, a1, 12
    88d4:	f2fa      	add.n	a15, a2, a15
    88d6:	21f9      	s32i.n	a15, a1, 8
    88d8:	b298      	l32i.n	a9, a2, 44
    88da:	905330        	addx2	a5, a3, a3
    88dd:	a09590        	addx4	a9, a5, a9
    88e0:	212992        	l32i	a9, a9, 132
    88e3:	0344a1        	l32r	a10, 0xfffc95f4
    88e6:	1155e0        	slli	a5, a5, 2
    88e9:	0279b6        	bltui	a9, 7, 0x88ef
    88ec:	006786        	j	0x8a8e
    88ef:	a0a9a0        	addx4	a10, a9, a10
    88f2:	0aa8      	l32i.n	a10, a10, 0
    88f4:	000aa0        	jx	a10
    88f7:	02ad00        	excw
    88fa:	1b0c      	movi.n	a11, 1
    88fc:	006725        	excw
    88ff:	02ad      	mov.n	a10, a2
    8901:	1d0c      	movi.n	a13, 1
    8903:	e822c2        	l32i	a12, a2, 0x3a0
    8906:	0e0c      	movi.n	a14, 0
    8908:	0f0c      	movi.n	a15, 0
    890a:	032cb2        	l32i	a11, a12, 12
    890d:	100cc2        	l8ui	a12, a12, 16
    8910:	004d65        	excw
    8913:	b2b8      	l32i.n	a11, a2, 44
    8915:	20a220        	or	a10, a2, a2
    8918:	80bb50        	add	a11, a11, a5
    891b:	222bb2        	l32i	a11, a11, 136
    891e:	006525        	excw
    8921:	02ad      	mov.n	a10, a2
    8923:	1d0c      	movi.n	a13, 1
    8925:	e822c2        	l32i	a12, a2, 0x3a0
    8928:	0e0c      	movi.n	a14, 0
    892a:	0f0c      	movi.n	a15, 0
    892c:	3cb8      	l32i.n	a11, a12, 12
    892e:	100cc2        	l8ui	a12, a12, 16
    8931:	004b65        	excw
    8934:	005c86        	j	0x8aaa
    8937:	02ad00        	excw
    893a:	6b0c      	movi.n	a11, 6
    893c:	006325        	excw
    893f:	02ad      	mov.n	a10, a2
    8941:	1d0c      	movi.n	a13, 1
    8943:	e822c2        	l32i	a12, a2, 0x3a0
    8946:	0e0c      	movi.n	a14, 0
    8948:	0f0c      	movi.n	a15, 0
    894a:	032cb2        	l32i	a11, a12, 12
    894d:	100cc2        	l8ui	a12, a12, 16
    8950:	004965        	excw
    8953:	b2b8      	l32i.n	a11, a2, 44
    8955:	02ad      	mov.n	a10, a2
    8957:	80bb50        	add	a11, a11, a5
    895a:	232bb2        	l32i	a11, a11, 140
    895d:	006125        	excw
    8960:	02ad      	mov.n	a10, a2
    8962:	1d0c      	movi.n	a13, 1
    8964:	e822c2        	l32i	a12, a2, 0x3a0
    8967:	0e0c      	movi.n	a14, 0
    8969:	0f0c      	movi.n	a15, 0
    896b:	032cb2        	l32i	a11, a12, 12
    896e:	100cc2        	l8ui	a12, a12, 16
    8971:	004765        	excw
    8974:	21e8      	l32i.n	a14, a1, 8
    8976:	7c0ef2        	l8ui	a15, a14, 124
    8979:	efa082        	movi	a8, 239
    897c:	10ff80        	and	a15, a15, a8
    897f:	081c      	movi.n	a8, 16
    8981:	20ff80        	or	a15, a15, a8
    8984:	7c4ef2        	s8i	a15, a14, 124
    8987:	b2d8      	l32i.n	a13, a2, 44
    8989:	dd5a      	add.n	a13, a13, a5
    898b:	232dd2        	l32i	a13, a13, 140
    898e:	206ed2        	s32i	a13, a14, 128
    8991:	004546        	j	0x8aaa
    8994:	20a220        	or	a10, a2, a2
    8997:	05a0b2        	movi	a11, 5
    899a:	005d65        	excw
    899d:	02ad      	mov.n	a10, a2
    899f:	1d0c      	movi.n	a13, 1
    89a1:	e822c2        	l32i	a12, a2, 0x3a0
    89a4:	0e0c      	movi.n	a14, 0
    89a6:	0f0c      	movi.n	a15, 0
    89a8:	3cb8      	l32i.n	a11, a12, 12
    89aa:	100cc2        	l8ui	a12, a12, 16
    89ad:	0043a5        	excw
    89b0:	003d86        	j	0x8aaa
    89b3:	02ad      	mov.n	a10, a2
    89b5:	4b0c      	movi.n	a11, 4
    89b7:	005ba5        	excw
    89ba:	02ad      	mov.n	a10, a2
    89bc:	1d0c      	movi.n	a13, 1
    89be:	e822c2        	l32i	a12, a2, 0x3a0
    89c1:	0e0c      	movi.n	a14, 0
    89c3:	0f0c      	movi.n	a15, 0
    89c5:	3cb8      	l32i.n	a11, a12, 12
    89c7:	100cc2        	l8ui	a12, a12, 16
    89ca:	0041e5        	excw
    89cd:	b2b8      	l32i.n	a11, a2, 44
    89cf:	02ad      	mov.n	a10, a2
    89d1:	bb5a      	add.n	a11, a11, a5
    89d3:	232bb2        	l32i	a11, a11, 140
    89d6:	0059a5        	excw
    89d9:	02ad      	mov.n	a10, a2
    89db:	1d0c      	movi.n	a13, 1
    89dd:	e822c2        	l32i	a12, a2, 0x3a0
    89e0:	0e0c      	movi.n	a14, 0
    89e2:	0f0c      	movi.n	a15, 0
    89e4:	3cb8      	l32i.n	a11, a12, 12
    89e6:	100cc2        	l8ui	a12, a12, 16
    89e9:	003fe5        	excw
    89ec:	002e86        	j	0x8aaa
    89ef:	02ad      	mov.n	a10, a2
    89f1:	3b0c      	movi.n	a11, 3
    89f3:	0057e5        	excw
    89f6:	02ad      	mov.n	a10, a2
    89f8:	1d0c      	movi.n	a13, 1
    89fa:	e822c2        	l32i	a12, a2, 0x3a0
    89fd:	0e0c      	movi.n	a14, 0
    89ff:	0f0c      	movi.n	a15, 0
    8a01:	3cb8      	l32i.n	a11, a12, 12
    8a03:	100cc2        	l8ui	a12, a12, 16
    8a06:	003e25        	excw
    8a09:	b2b8      	l32i.n	a11, a2, 44
    8a0b:	02ad      	mov.n	a10, a2
    8a0d:	bb5a      	add.n	a11, a11, a5
    8a0f:	222bb2        	l32i	a11, a11, 136
    8a12:	0055e5        	excw
    8a15:	02ad      	mov.n	a10, a2
    8a17:	1d0c      	movi.n	a13, 1
    8a19:	e822c2        	l32i	a12, a2, 0x3a0
    8a1c:	0e0c      	movi.n	a14, 0
    8a1e:	0f0c      	movi.n	a15, 0
    8a20:	3cb8      	l32i.n	a11, a12, 12
    8a22:	100cc2        	l8ui	a12, a12, 16
    8a25:	003c25        	excw
    8a28:	b2b8      	l32i.n	a11, a2, 44
    8a2a:	02ad      	mov.n	a10, a2
    8a2c:	80bb50        	add	a11, a11, a5
    8a2f:	232bb2        	l32i	a11, a11, 140
    8a32:	0053e5        	excw
    8a35:	02ad      	mov.n	a10, a2
    8a37:	1d0c      	movi.n	a13, 1
    8a39:	e822c2        	l32i	a12, a2, 0x3a0
    8a3c:	0e0c      	movi.n	a14, 0
    8a3e:	0f0c      	movi.n	a15, 0
    8a40:	3cb8      	l32i.n	a11, a12, 12
    8a42:	100cc2        	l8ui	a12, a12, 16
    8a45:	003a25        	excw
    8a48:	001786        	j	0x8aaa
    8a4b:	02ad00        	excw
    8a4e:	2b0c      	movi.n	a11, 2
    8a50:	0051e5        	excw
    8a53:	02ad      	mov.n	a10, a2
    8a55:	1d0c      	movi.n	a13, 1
    8a57:	e822c2        	l32i	a12, a2, 0x3a0
    8a5a:	0e0c      	movi.n	a14, 0
    8a5c:	00a0f2        	movi	a15, 0
    8a5f:	032cb2        	l32i	a11, a12, 12
    8a62:	100cc2        	l8ui	a12, a12, 16
    8a65:	003825        	excw
    8a68:	b2b8      	l32i.n	a11, a2, 44
    8a6a:	02ad      	mov.n	a10, a2
    8a6c:	80bb50        	add	a11, a11, a5
    8a6f:	222bb2        	l32i	a11, a11, 136
    8a72:	004fe5        	excw
    8a75:	02ad      	mov.n	a10, a2
    8a77:	1d0c      	movi.n	a13, 1
    8a79:	e822c2        	l32i	a12, a2, 0x3a0
    8a7c:	0e0c      	movi.n	a14, 0
    8a7e:	0f0c      	movi.n	a15, 0
    8a80:	3cb8      	l32i.n	a11, a12, 12
    8a82:	100cc2        	l8ui	a12, a12, 16
    8a85:	003625        	excw
    8a88:	000786        	j	0x8aaa
    8a8b:	000000        	ill
    8a8e:	02ad      	mov.n	a10, a2
    8a90:	0b0c      	movi.n	a11, 0
    8a92:	004de5        	excw
    8a95:	02ad      	mov.n	a10, a2
    8a97:	1d0c      	movi.n	a13, 1
    8a99:	e822c2        	l32i	a12, a2, 0x3a0
    8a9c:	0e0c      	movi.n	a14, 0
    8a9e:	0f0c      	movi.n	a15, 0
    8aa0:	3cb8      	l32i.n	a11, a12, 12
    8aa2:	100cc2        	l8ui	a12, a12, 16
    8aa5:	003425        	excw
    8aa8:	430c      	movi.n	a3, 4
    8aaa:	331b      	addi.n	a3, a3, 1
    8aac:	0243f6        	bgeui	a3, 4, 0x8ab2
    8aaf:	ff8946        	j	0x88d8
    8ab2:	3158      	l32i.n	a5, a1, 12
    8ab4:	7f27d2        	l32i	a13, a7, 0x1fc
    8ab7:	242dd2        	l32i	a13, a13, 144
    8aba:	158d16        	beqz	a13, 0x8c16
    8abd:	e822c2        	l32i	a12, a2, 0x3a0
    8ac0:	1e24b2        	l32i	a11, a4, 120
    8ac3:	80bbc0        	add	a11, a11, a12
    8ac6:	000bb2        	l8ui	a11, a11, 0
    8ac9:	20a220        	or	a10, a2, a2
    8acc:	23bb00        	excw
    8acf:	e6cbb2        	addi	a11, a11, -26
    8ad2:	004ca5        	excw
    8ad5:	02ad      	mov.n	a10, a2
    8ad7:	1d0c      	movi.n	a13, 1
    8ad9:	e822c2        	l32i	a12, a2, 0x3a0
    8adc:	0e0c      	movi.n	a14, 0
    8ade:	0f0c      	movi.n	a15, 0
    8ae0:	032cb2        	l32i	a11, a12, 12
    8ae3:	100cc2        	l8ui	a12, a12, 16
    8ae6:	003025        	excw
    8ae9:	35d8      	l32i.n	a13, a5, 12
    8aeb:	062d16        	beqz	a13, 0x8b51
    8aee:	02ad      	mov.n	a10, a2
    8af0:	36b8      	l32i.n	a11, a6, 12
    8af2:	0047e5        	excw
    8af5:	02ad      	mov.n	a10, a2
    8af7:	1d0c      	movi.n	a13, 1
    8af9:	e822c2        	l32i	a12, a2, 0x3a0
    8afc:	0e0c      	movi.n	a14, 0
    8afe:	0f0c      	movi.n	a15, 0
    8b00:	3cb8      	l32i.n	a11, a12, 12
    8b02:	100cc2        	l8ui	a12, a12, 16
    8b05:	002e25        	excw
    8b08:	36d8      	l32i.n	a13, a6, 12
    8b0a:	431d26        	beqi	a13, 1, 0x8b51
    8b0d:	56c8      	l32i.n	a12, a6, 20
    8b0f:	02ad      	mov.n	a10, a2
    8b11:	bc1b      	addi.n	a11, a12, 1
    8b13:	b3bcc0        	movgez	a11, a12, a12
    8b16:	21b1b0        	srai	a11, a11, 1
    8b19:	004825        	excw
    8b1c:	02ad      	mov.n	a10, a2
    8b1e:	1d0c      	movi.n	a13, 1
    8b20:	e822c2        	l32i	a12, a2, 0x3a0
    8b23:	0e0c      	movi.n	a14, 0
    8b25:	0f0c      	movi.n	a15, 0
    8b27:	3cb8      	l32i.n	a11, a12, 12
    8b29:	100cc2        	l8ui	a12, a12, 16
    8b2c:	002ba5        	excw
    8b2f:	46c8      	l32i.n	a12, a6, 16
    8b31:	02ad      	mov.n	a10, a2
    8b33:	bc1b      	addi.n	a11, a12, 1
    8b35:	b3bcc0        	movgez	a11, a12, a12
    8b38:	21b1b0        	srai	a11, a11, 1
    8b3b:	004625        	excw
    8b3e:	02ad      	mov.n	a10, a2
    8b40:	1d0c      	movi.n	a13, 1
    8b42:	e822c2        	l32i	a12, a2, 0x3a0
    8b45:	0e0c      	movi.n	a14, 0
    8b47:	0f0c      	movi.n	a15, 0
    8b49:	3cb8      	l32i.n	a11, a12, 12
    8b4b:	100cc2        	l8ui	a12, a12, 16
    8b4e:	0029a5        	excw
    8b51:	16d8      	l32i.n	a13, a6, 4
    8b53:	ed8c      	beqz.n	a13, 0x8b65
    8b55:	02ad      	mov.n	a10, a2
    8b57:	0b0c      	movi.n	a11, 0
    8b59:	0c0c      	movi.n	a12, 0
    8b5b:	5d0c      	movi.n	a13, 5
    8b5d:	0e0c      	movi.n	a14, 0
    8b5f:	ffa0f2        	movi	a15, 255
    8b62:	002865        	excw
    8b65:	f01d      	excw
    8b67:	a22000        	excw
    8b6a:	a0b220        	addx4	a11, a2, a2
    8b6d:	0c2c01        	l32r	a0, 0xfffcbc20
    8b70:	1d0c      	movi.n	a13, 1
    8b72:	0e0c      	movi.n	a14, 0
    8b74:	0f0c      	movi.n	a15, 0
    8b76:	002725        	excw
    8b79:	e27a      	add.n	a14, a2, a7
    8b7b:	d32ee2        	l32i	a14, a14, 0x34c
    8b7e:	7e8c      	beqz.n	a14, 0x8b89
    8b80:	0b22f2        	l32i	a15, a2, 44
    8b83:	142ff2        	l32i	a15, a15, 80
    8b86:	218f16        	beqz	a15, 0x8da2
    8b89:	02ad      	mov.n	a10, a2
    8b8b:	1b4c      	movi.n	a11, 65
    8b8d:	8c0c      	movi.n	a12, 8
    8b8f:	1d0c      	movi.n	a13, 1
    8b91:	0e0c      	movi.n	a14, 0
    8b93:	0f0c      	movi.n	a15, 0
    8b95:	002525        	excw
    8b98:	fefe46        	j	0x8795
    8b9b:	4b1600        	excw
    8b9e:	a220f1        	l32r	a15, 0xffff1420
    8ba1:	a0b220        	addx4	a11, a2, a2
    8ba4:	a0c200        	addx4	a12, a2, a0
    8ba7:	1d0c01        	l32r	a0, 0xfffcffd8
    8baa:	0e0c      	movi.n	a14, 0
    8bac:	0f0c      	movi.n	a15, 0
    8bae:	0023a5        	excw
    8bb1:	b2a8      	l32i.n	a10, a2, 44
    8bb3:	212a82        	l32i	a8, a10, 132
    8bb6:	218816        	beqz	a8, 0x8dd2
    8bb9:	090c      	movi.n	a9, 0
    8bbb:	4b0c      	movi.n	a11, 4
    8bbd:	0bab76        	excw
    8bc0:	212ac2        	l32i	a12, a10, 132
    8bc3:	0199      	s32i.n	a9, a1, 0
    8bc5:	991b      	addi.n	a9, a9, 1
    8bc7:	156c26        	beqi	a12, 6, 0x8be0
    8bca:	aacb      	addi.n	a10, a10, 12
    8bcc:	02ad      	mov.n	a10, a2
    8bce:	0b0c      	movi.n	a11, 0
    8bd0:	1c0c      	movi.n	a12, 1
    8bd2:	1d0c      	movi.n	a13, 1
    8bd4:	0e0c      	movi.n	a14, 0
    8bd6:	00a0f2        	movi	a15, 0
    8bd9:	0020e5        	excw
    8bdc:	ffb506        	j	0x8ab4
    8bdf:	a22000        	excw
    8be2:	a0b220        	addx4	a11, a2, a2
    8be5:	a0c201        	l32r	a0, 0xffff0ef0
    8be8:	1d0c01        	l32r	a0, 0xfffd0018
    8beb:	0e0c      	movi.n	a14, 0
    8bed:	0f0c      	movi.n	a15, 0
    8bef:	001fa5        	excw
    8bf2:	01e8      	l32i.n	a14, a1, 0
    8bf4:	034381        	l32r	a8, 0xfffc9900
    8bf7:	090c      	movi.n	a9, 0
    8bf9:	fccee2        	addi	a14, a14, -4
    8bfc:	828a      	add.n	a8, a2, a8
    8bfe:	7c08f2        	l8ui	a15, a8, 124
    8c01:	206892        	s32i	a9, a8, 128
    8c04:	091c      	movi.n	a9, 16
    8c06:	10ff30        	and	a15, a15, a3
    8c09:	20ff90        	or	a15, a15, a9
    8c0c:	7c48f2        	s8i	a15, a8, 124
    8c0f:	ea1e56        	bnez	a14, 0x8ab4
    8c12:	ffed86        	j	0x8bcc
    8c15:	269200        	excw
    8c18:	091601        	l32r	a0, 0xfffcb070
    8c1b:	20ea      	add.n	a2, a0, a14
    8c1d:	b220a2        	l32i	a10, a0, 0x2c8
    8c20:	e52825        	excw
    8c23:	ad0034        	excw
    8c26:	1d0c02        	l8ui	a0, a12, 29
    8c29:	e822c2        	l32i	a12, a2, 0x3a0
    8c2c:	0e0c      	movi.n	a14, 0
    8c2e:	0f0c      	movi.n	a15, 0
    8c30:	3cb8      	l32i.n	a11, a12, 12
    8c32:	100cc2        	l8ui	a12, a12, 16
    8c35:	001b25        	excw
    8c38:	ffa046        	j	0x8abd
    8c3b:	000000        	ill
    8c3e:	20a220        	or	a10, a2, a2
    8c41:	06a0b2        	movi	a11, 6
    8c44:	05a0c2        	movi	a12, 5
    8c47:	1d0c      	movi.n	a13, 1
    8c49:	0e0c      	movi.n	a14, 0
    8c4b:	0f0c      	movi.n	a15, 0
    8c4d:	0019a5        	excw
    8c50:	fedf86        	j	0x87d2
    8c53:	370c00        	excw
    8c56:	fe7946        	j	0x863f
    8c59:	02ad      	mov.n	a10, a2
    8c5b:	0b0c      	movi.n	a11, 0
    8c5d:	1c0c      	movi.n	a12, 1
    8c5f:	1d0c      	movi.n	a13, 1
    8c61:	0e0c      	movi.n	a14, 0
    8c63:	0f0c      	movi.n	a15, 0
    8c65:	001825        	excw
    8c68:	ff9206        	j	0x8ab4
    8c6b:	000000        	ill
    8c6e:	20a220        	or	a10, a2, a2
    8c71:	08a0b2        	movi	a11, 8
    8c74:	07a0c2        	movi	a12, 7
    8c77:	1d0c      	movi.n	a13, 1
    8c79:	0e0c      	movi.n	a14, 0
    8c7b:	0f0c      	movi.n	a15, 0
    8c7d:	0016a5        	excw
    8c80:	fed386        	j	0x87d2
    8c83:	a22000        	excw
    8c86:	a0b220        	addx4	a11, a2, a2
    8c89:	1c0c00        	excw
    8c8c:	1d0c      	movi.n	a13, 1
    8c8e:	0e0c      	movi.n	a14, 0
    8c90:	0f0c      	movi.n	a15, 0
    8c92:	001565        	excw
    8c95:	b2d8      	l32i.n	a13, a2, 44
    8c97:	192dd2        	l32i	a13, a13, 100
    8c9a:	11cd16        	beqz	a13, 0x8dba
    8c9d:	02ad      	mov.n	a10, a2
    8c9f:	1b0c      	movi.n	a11, 1
    8ca1:	1c0c      	movi.n	a12, 1
    8ca3:	1d0c      	movi.n	a13, 1
    8ca5:	0e0c      	movi.n	a14, 0
    8ca7:	0f0c      	movi.n	a15, 0
    8ca9:	0013e5        	excw
    8cac:	034331        	l32r	a3, 0xfffc99b8
    8caf:	323a      	add.n	a3, a2, a3
    8cb1:	2139      	s32i.n	a3, a1, 8
    8cb3:	030c      	movi.n	a3, 0
    8cb5:	0008c6        	j	0x8cdc
    8cb8:	02ad      	mov.n	a10, a2
    8cba:	3b0c      	movi.n	a11, 3
    8cbc:	002b25        	excw
    8cbf:	02ad      	mov.n	a10, a2
    8cc1:	1d0c      	movi.n	a13, 1
    8cc3:	e822c2        	l32i	a12, a2, 0x3a0
    8cc6:	0e0c      	movi.n	a14, 0
    8cc8:	0f0c      	movi.n	a15, 0
    8cca:	3cb8      	l32i.n	a11, a12, 12
    8ccc:	100cc2        	l8ui	a12, a12, 16
    8ccf:	0011a5        	excw
    8cd2:	430c      	movi.n	a3, 4
    8cd4:	331b      	addi.n	a3, a3, 1
    8cd6:	0243b6        	bltui	a3, 4, 0x8cdc
    8cd9:	fef106        	j	0x88a1
    8cdc:	b2a8      	l32i.n	a10, a2, 44
    8cde:	b0a3a0        	addx8	a10, a3, a10
    8ce1:	192aa2        	l32i	a10, a10, 100
    8ce4:	1193d0        	slli	a9, a3, 3
    8ce7:	fcda16        	beqz	a10, 0x8cb8
    8cea:	1199      	s32i.n	a9, a1, 4
    8cec:	6e1a26        	beqi	a10, 1, 0x8d5e
    8cef:	c52a66        	bnei	a10, 2, 0x8cb8
    8cf2:	02ad      	mov.n	a10, a2
    8cf4:	2b0c      	movi.n	a11, 2
    8cf6:	0027a5        	excw
    8cf9:	02ad      	mov.n	a10, a2
    8cfb:	1d0c      	movi.n	a13, 1
    8cfd:	e822c2        	l32i	a12, a2, 0x3a0
    8d00:	0e0c      	movi.n	a14, 0
    8d02:	0f0c      	movi.n	a15, 0
    8d04:	032cb2        	l32i	a11, a12, 12
    8d07:	100cc2        	l8ui	a12, a12, 16
    8d0a:	000de5        	excw
    8d0d:	11c8      	l32i.n	a12, a1, 4
    8d0f:	b2b8      	l32i.n	a11, a2, 44
    8d11:	02ad      	mov.n	a10, a2
    8d13:	bbca      	add.n	a11, a11, a12
    8d15:	1a2bb2        	l32i	a11, a11, 104
    8d18:	002565        	excw
    8d1b:	02ad      	mov.n	a10, a2
    8d1d:	1d0c      	movi.n	a13, 1
    8d1f:	e822c2        	l32i	a12, a2, 0x3a0
    8d22:	0e0c      	movi.n	a14, 0
    8d24:	0f0c      	movi.n	a15, 0
    8d26:	3cb8      	l32i.n	a11, a12, 12
    8d28:	100cc2        	l8ui	a12, a12, 16
    8d2b:	000be5        	excw
    8d2e:	21e8      	l32i.n	a14, a1, 8
    8d30:	7c0ea2        	l8ui	a10, a14, 124
    8d33:	dfa0b2        	movi	a11, 223
    8d36:	1198      	l32i.n	a9, a1, 4
    8d38:	10aab0        	and	a10, a10, a11
    8d3b:	0b2c      	movi.n	a11, 32
    8d3d:	20aab0        	or	a10, a10, a11
    8d40:	7c4ea2        	s8i	a10, a14, 124
    8d43:	b288      	l32i.n	a8, a2, 44
    8d45:	889a      	add.n	a8, a8, a9
    8d47:	1a2882        	l32i	a8, a8, 104
    8d4a:	1f0c      	movi.n	a15, 1
    8d4c:	212ed2        	l32i	a13, a14, 132
    8d4f:	401800        	ssl	a8
    8d52:	a1ff00        	sll	a15, a15
    8d55:	20ddf0        	or	a13, a13, a15
    8d58:	216ed2        	s32i	a13, a14, 132
    8d5b:	ffdd46        	j	0x8cd4
    8d5e:	02ad      	mov.n	a10, a2
    8d60:	0b0c      	movi.n	a11, 0
    8d62:	0020e5        	excw
    8d65:	02ad      	mov.n	a10, a2
    8d67:	1d0c      	movi.n	a13, 1
    8d69:	e822c2        	l32i	a12, a2, 0x3a0
    8d6c:	0e0c      	movi.n	a14, 0
    8d6e:	0f0c      	movi.n	a15, 0
    8d70:	3cb8      	l32i.n	a11, a12, 12
    8d72:	100cc2        	l8ui	a12, a12, 16
    8d75:	000725        	excw
    8d78:	11c8      	l32i.n	a12, a1, 4
    8d7a:	b2b8      	l32i.n	a11, a2, 44
    8d7c:	02ad      	mov.n	a10, a2
    8d7e:	0020f0        	nop
    8d81:	bbca      	add.n	a11, a11, a12
    8d83:	1a2bb2        	l32i	a11, a11, 104
    8d86:	001ea5        	excw
    8d89:	02ad      	mov.n	a10, a2
    8d8b:	1d0c      	movi.n	a13, 1
    8d8d:	e822c2        	l32i	a12, a2, 0x3a0
    8d90:	0e0c      	movi.n	a14, 0
    8d92:	0f0c      	movi.n	a15, 0
    8d94:	3cb8      	l32i.n	a11, a12, 12
    8d96:	100cc2        	l8ui	a12, a12, 16
    8d99:	0004e5        	excw
    8d9c:	ffcd06        	j	0x8cd4
    8d9f:	000000        	ill
    8da2:	20a220        	or	a10, a2, a2
    8da5:	01a0b2        	movi	a11, 1
    8da8:	08a0c2        	movi	a12, 8
    8dab:	1d0c      	movi.n	a13, 1
    8dad:	0e0c      	movi.n	a14, 0
    8daf:	0f0c      	movi.n	a15, 0
    8db1:	000365        	excw
    8db4:	fe7746        	j	0x8795
    8db7:	000000        	ill
    8dba:	20a220        	or	a10, a2, a2
    8dbd:	00a0b2        	movi	a11, 0
    8dc0:	01a0c2        	movi	a12, 1
    8dc3:	1d0c      	movi.n	a13, 1
    8dc5:	0e0c      	movi.n	a14, 0
    8dc7:	0f0c      	movi.n	a15, 0
    8dc9:	0001e5        	excw
    8dcc:	feb446        	j	0x88a1
    8dcf:	000000        	ill
    8dd2:	20a220        	or	a10, a2, a2
    8dd5:	00a0b2        	movi	a11, 0
    8dd8:	01a0c2        	movi	a12, 1
    8ddb:	1d0c      	movi.n	a13, 1
    8ddd:	0e0c      	movi.n	a14, 0
    8ddf:	0f0c      	movi.n	a15, 0
    8de1:	000065        	excw
    8de4:	ff3306        	j	0x8ab4
    8de7:	413600        	srli	a3, a0, 6
    8dea:	d2b200        	excw
    8ded:	2bb217        	bgeu	a2, a1, 0x8e1c
    8df0:	c838      	l32i.n	a3, a8, 48
    8df2:	a8db      	addi.n	a10, a8, 13
    8df4:	d21b      	addi.n	a13, a2, 1
    8df6:	c796a0        	excw
    8df9:	0d1a      	add.n	a0, a13, a1
    8dfb:	aa8c      	beqz.n	a10, 0x8e09
    8dfd:	4e2b92        	l32i	a9, a11, 0x138
    8e00:	d9cc      	bnez.n	a9, 0x8e11
    8e02:	ba2b      	addi.n	a11, a10, 2
    8e04:	0bad      	mov.n	a10, a11
    8e06:	000446        	j	0x8e1b
    8e09:	4e2b92        	l32i	a9, a11, 0x138
    8e0c:	0b0c      	movi.n	a11, 0
    8e0e:	04a916        	beqz	a9, 0x8e5c
    8e11:	0abd      	mov.n	a11, a10
    8e13:	fed916        	beqz	a9, 0x8e04
    8e16:	361ac7        	beq	a10, a12, 0x8e50
    8e19:	3abc      	beqz.n	a10, 0x8e50
    8e1b:	e822c2        	l32i	a12, a2, 0x3a0
    8e1e:	06dcb2        	addmi	a11, a12, 0x600
    8e21:	482b92        	l32i	a9, a11, 0x120
    8e24:	908990        	addx2	a8, a9, a9
    8e27:	991b      	addi.n	a9, a9, 1
    8e29:	a0c8c0        	addx4	a12, a8, a12
    8e2c:	5c39      	s32i.n	a3, a12, 20
    8e2e:	1c4c42        	s8i	a4, a12, 28
    8e31:	1e4c62        	s8i	a6, a12, 30
    8e34:	1f4c72        	s8i	a7, a12, 31
    8e37:	e82222        	l32i	a2, a2, 0x3a0
    8e3a:	6ca9      	s32i.n	a10, a12, 24
    8e3c:	486b92        	s32i	a9, a11, 0x120
    8e3f:	a08820        	addx4	a8, a8, a2
    8e42:	06d222        	addmi	a2, a2, 0x600
    8e45:	1d4852        	s8i	a5, a8, 29
    8e48:	4822c2        	l32i	a12, a2, 0x120
    8e4b:	061cd7        	beq	a12, a13, 0x8e55
    8e4e:	f01d      	excw
    8e50:	0a0c      	movi.n	a10, 0
    8e52:	fff146        	j	0x8e1b
    8e55:	0d0c      	movi.n	a13, 0
    8e57:	4862d2        	s32i	a13, a2, 0x120
    8e5a:	f01d      	excw
    8e5c:	ffecc6        	j	0x8e13
    8e5f:	613600        	excw
    8e62:	b6a100        	excw
    8e65:	22b202        	excw
    8e68:	72e8      	l32i.n	a14, a2, 28
    8e6a:	b920a5        	excw
    8e6d:	7b7a11        	l32r	a1, 0xfffe7c58
    8e70:	7f2752        	l32i	a5, a7, 0x1fc
    8e73:	8027c2        	l32i	a12, a7, 0x200
    8e76:	07dbb2        	addmi	a11, a11, 0x700
    8e79:	7bb8      	l32i.n	a11, a11, 28
    8e7b:	02ac57        	bge	a12, a5, 0x8e81
    8e7e:	003286        	j	0x8f4c
    8e81:	0225c7        	blt	a5, a12, 0x8e87
    8e84:	003506        	j	0x8f5c
    8e87:	2179      	s32i.n	a7, a1, 8
    8e89:	090c      	movi.n	a9, 0
    8e8b:	0199      	s32i.n	a9, a1, 0
    8e8d:	907cc0        	addx2	a7, a12, a12
    8e90:	02b661        	l32r	a6, 0xfffc9968
    8e93:	1188      	l32i.n	a8, a1, 4
    8e95:	904550        	addx2	a4, a5, a5
    8e98:	806260        	add	a6, a2, a6
    8e9b:	a04480        	addx4	a4, a4, a8
    8e9e:	a07780        	addx4	a7, a7, a8
    8ea1:	7f2692        	l32i	a9, a6, 0x1fc
    8ea4:	1998      	l32i.n	a9, a9, 4
    8ea6:	6488      	l32i.n	a8, a4, 24
    8ea8:	1e04a2        	l8ui	a10, a4, 30
    8eab:	939a      	add.n	a9, a3, a9
    8ead:	339897        	bne	a8, a9, 0x8ee4
    8eb0:	1f04b2        	l8ui	a11, a4, 31
    8eb3:	1acc      	bnez.n	a10, 0x8eb8
    8eb5:	002b16        	beqz	a11, 0x8ebb
    8eb8:	ff73e5        	excw
    8ebb:	54a8      	l32i.n	a10, a4, 20
    8ebd:	0b0c      	movi.n	a11, 0
    8ebf:	1c04c2        	l8ui	a12, a4, 28
    8ec2:	1d04d2        	l8ui	a13, a4, 29
    8ec5:	01ada5        	excw
    8ec8:	1e04a2        	l8ui	a10, a4, 30
    8ecb:	1f04b2        	l8ui	a11, a4, 31
    8ece:	0acc      	bnez.n	a10, 0x8ed2
    8ed0:	6b8c      	beqz.n	a11, 0x8eda
    8ed2:	0a0c      	movi.n	a10, 0
    8ed4:	00a0b2        	movi	a11, 0
    8ed7:	ff7225        	excw
    8eda:	44cb      	addi.n	a4, a4, 12
    8edc:	551b      	addi.n	a5, a5, 1
    8ede:	20b550        	or	a11, a5, a5
    8ee1:	bc9477        	bne	a4, a7, 0x8ea1
    8ee4:	02b6a1        	l32r	a10, 0xfffc99bc
    8ee7:	022172        	l32i	a7, a1, 8
    8eea:	0198      	l32i.n	a9, a1, 0
    8eec:	1188      	l32i.n	a8, a1, 4
    8eee:	050c      	movi.n	a5, 0
    8ef0:	4c19a6        	blti	a9, 1, 0x8f40
    8ef3:	084d      	mov.n	a4, a8
    8ef5:	62aa      	add.n	a6, a2, a10
    8ef7:	902990        	addx2	a2, a9, a9
    8efa:	a02280        	addx4	a2, a2, a8
    8efd:	7f26a2        	l32i	a10, a6, 0x1fc
    8f00:	1aa8      	l32i.n	a10, a10, 4
    8f02:	6498      	l32i.n	a9, a4, 24
    8f04:	a3aa      	add.n	a10, a3, a10
    8f06:	3699a7        	bne	a9, a10, 0x8f40
    8f09:	1e04a2        	l8ui	a10, a4, 30
    8f0c:	1f04b2        	l8ui	a11, a4, 31
    8f0f:	1acc      	bnez.n	a10, 0x8f14
    8f11:	002b16        	beqz	a11, 0x8f17
    8f14:	ff6e25        	excw
    8f17:	54a8      	l32i.n	a10, a4, 20
    8f19:	0b0c      	movi.n	a11, 0
    8f1b:	1c04c2        	l8ui	a12, a4, 28
    8f1e:	1d04d2        	l8ui	a13, a4, 29
    8f21:	01a7e5        	excw
    8f24:	1e04b2        	l8ui	a11, a4, 30
    8f27:	1f04c2        	l8ui	a12, a4, 31
    8f2a:	0bcc      	bnez.n	a11, 0x8f2e
    8f2c:	5c8c      	beqz.n	a12, 0x8f35
    8f2e:	0a0c      	movi.n	a10, 0
    8f30:	0b0c      	movi.n	a11, 0
    8f32:	ff6c65        	excw
    8f35:	44cb      	addi.n	a4, a4, 12
    8f37:	01c552        	addi	a5, a5, 1
    8f3a:	20b550        	or	a11, a5, a5
    8f3d:	bc9427        	bne	a4, a2, 0x8efd
    8f40:	7f67b2        	s32i	a11, a7, 0x1fc
    8f43:	96a0d2        	movi	a13, 150
    8f46:	1c1bd7        	beq	a11, a13, 0x8f66
    8f49:	f01d      	excw
    8f4b:	01c900        	slli	a12, a9, 32
    8f4e:	96a0e2        	movi	a14, 150
    8f51:	95a5e7        	bge	a5, a14, 0x8eea
    8f54:	96a0c2        	movi	a12, 150
    8f57:	2179      	s32i.n	a7, a1, 8
    8f59:	ffcc06        	j	0x8e8d
    8f5c:	02b6a1        	l32r	a10, 0xfffc9a34
    8f5f:	080c      	movi.n	a8, 0
    8f61:	0189      	s32i.n	a8, a1, 0
    8f63:	ffe0c6        	j	0x8eea
    8f66:	090c      	movi.n	a9, 0
    8f68:	7f6792        	s32i	a9, a7, 0x1fc
    8f6b:	f01d      	excw
    8f6d:	000000        	ill
    8f70:	004136        	excw
    8f73:	e82252        	l32i	a5, a2, 0x3a0
    8f76:	331b      	addi.n	a3, a3, 1
    8f78:	3539      	s32i.n	a3, a5, 12
    8f7a:	739c      	beqz.n	a3, 0x8f95
    8f7c:	f27c      	movi.n	a2, -1
    8f7e:	068076        	excw
    8f81:	221b      	addi.n	a2, a2, 1
    8f83:	213130        	srai	a3, a3, 1
    8f86:	238c      	beqz.n	a3, 0x8f8c
    8f88:	fffc86        	j	0x8f7e
    8f8b:	140c00        	extui	a0, a0, 12, 2
    8f8e:	904240        	addx2	a4, a2, a4
    8f91:	4549      	s32i.n	a4, a5, 16
    8f93:	f01d      	excw
    8f95:	f87c      	movi.n	a8, -1
    8f97:	4589      	s32i.n	a8, a5, 16
    8f99:	f01d      	excw
    8f9b:	413600        	srli	a3, a0, 6
    8f9e:	02ad00        	excw
    8fa1:	080c      	movi.n	a8, 0
    8fa3:	60b130        	abs	a11, a3
    8fa6:	11bbf0        	slli	a11, a11, 1
    8fa9:	9b0b      	addi.n	a9, a11, -1
    8fab:	b3b930        	movgez	a11, a9, a3
    8fae:	83b830        	moveqz	a11, a8, a3
    8fb1:	fffbe5        	excw
    8fb4:	f01d      	excw
    8fb6:	360000        	excw
    8fb9:	0c0041        	l32r	a4, 0xfffcbfbc
    8fbc:	a20b      	addi.n	a10, a2, -1
    8fbe:	c267a1        	l32r	a10, 0xffff995c
    8fc1:	d228a0        	excw
    8fc4:	a501a0        	extui	a0, a10, 17, 11
    8fc7:	019d      	mov.n	a9, a1
    8fc9:	02f831        	l32r	a3, 0xfffc9bac
    8fcc:	02ad      	mov.n	a10, a2
    8fce:	8c0c      	movi.n	a12, 8
    8fd0:	803230        	add	a3, a2, a3
    8fd3:	c423b2        	l32i	a11, a3, 0x310
    8fd6:	ff5425        	excw
    8fd9:	034541        	l32r	a4, 0xfffc9cf0
    8fdc:	02ad      	mov.n	a10, a2
    8fde:	8c0c      	movi.n	a12, 8
    8fe0:	424a      	add.n	a4, a2, a4
    8fe2:	8204b2        	l8ui	a11, a4, 130
    8fe5:	ff5325        	excw
    8fe8:	02ad      	mov.n	a10, a2
    8fea:	c523b2        	l32i	a11, a3, 0x314
    8fed:	8c0c      	movi.n	a12, 8
    8fef:	ff52a5        	excw
    8ff2:	02ad      	mov.n	a10, a2
    8ff4:	8004b2        	l8ui	a11, a4, 128
    8ff7:	fff7a5        	excw
    8ffa:	e822c2        	l32i	a12, a2, 0x3a0
    8ffd:	20a220        	or	a10, a2, a2
    9000:	3cb8      	l32i.n	a11, a12, 12
    9002:	100cc2        	l8ui	a12, a12, 16
    9005:	ff5125        	excw
    9008:	c423a2        	l32i	a10, a3, 0x310
    900b:	64a0d2        	movi	a13, 100
    900e:	5f1ad7        	beq	a10, a13, 0x9071
    9011:	f4a0e2        	movi	a14, 244
    9014:	c0eae0        	sub	a14, a10, a14
    9017:	09be56        	bnez	a14, 0x90b6
    901a:	02ad      	mov.n	a10, a2
    901c:	3b0c      	movi.n	a11, 3
    901e:	fff525        	excw
    9021:	e822c2        	l32i	a12, a2, 0x3a0
    9024:	02ad      	mov.n	a10, a2
    9026:	3cb8      	l32i.n	a11, a12, 12
    9028:	100cc2        	l8ui	a12, a12, 16
    902b:	ff4ee5        	excw
    902e:	02ad      	mov.n	a10, a2
    9030:	0b0c      	movi.n	a11, 0
    9032:	01a0c2        	movi	a12, 1
    9035:	ff4e25        	excw
    9038:	02ad      	mov.n	a10, a2
    903a:	00a0b2        	movi	a11, 0
    903d:	fff325        	excw
    9040:	e822c2        	l32i	a12, a2, 0x3a0
    9043:	02ad      	mov.n	a10, a2
    9045:	3cb8      	l32i.n	a11, a12, 12
    9047:	100cc2        	l8ui	a12, a12, 16
    904a:	ff4ce5        	excw
    904d:	02ad      	mov.n	a10, a2
    904f:	0b0c      	movi.n	a11, 0
    9051:	fff1e5        	excw
    9054:	e822c2        	l32i	a12, a2, 0x3a0
    9057:	02ad      	mov.n	a10, a2
    9059:	3cb8      	l32i.n	a11, a12, 12
    905b:	100cc2        	l8ui	a12, a12, 16
    905e:	ff4ba5        	excw
    9061:	02ad      	mov.n	a10, a2
    9063:	00a0b2        	movi	a11, 0
    9066:	02a0c2        	movi	a12, 2
    9069:	ff4ae5        	excw
    906c:	001186        	j	0x90b6
    906f:	ad0000        	excw
    9072:	1b0c02        	l8ui	a0, a12, 27
    9075:	ffefa5        	excw
    9078:	e822c2        	l32i	a12, a2, 0x3a0
    907b:	02ad      	mov.n	a10, a2
    907d:	3cb8      	l32i.n	a11, a12, 12
    907f:	100cc2        	l8ui	a12, a12, 16
    9082:	ff4965        	excw
    9085:	02ad      	mov.n	a10, a2
    9087:	0b0c      	movi.n	a11, 0
    9089:	ffee65        	excw
    908c:	e822c2        	l32i	a12, a2, 0x3a0
    908f:	02ad      	mov.n	a10, a2
    9091:	3cb8      	l32i.n	a11, a12, 12
    9093:	100cc2        	l8ui	a12, a12, 16
    9096:	ff4825        	excw
    9099:	02ad      	mov.n	a10, a2
    909b:	0b0c      	movi.n	a11, 0
    909d:	ffed25        	excw
    90a0:	e822c2        	l32i	a12, a2, 0x3a0
    90a3:	02ad      	mov.n	a10, a2
    90a5:	3cb8      	l32i.n	a11, a12, 12
    90a7:	100cc2        	l8ui	a12, a12, 16
    90aa:	ff46e5        	excw
    90ad:	02ad      	mov.n	a10, a2
    90af:	0b0c      	movi.n	a11, 0
    90b1:	2c0c      	movi.n	a12, 2
    90b3:	ff4665        	excw
    90b6:	02ad      	mov.n	a10, a2
    90b8:	7d04b2        	l8ui	a11, a4, 125
    90bb:	ffeb65        	excw
    90be:	e822c2        	l32i	a12, a2, 0x3a0
    90c1:	02ad      	mov.n	a10, a2
    90c3:	032cb2        	l32i	a11, a12, 12
    90c6:	100cc2        	l8ui	a12, a12, 16
    90c9:	ff44e5        	excw
    90cc:	02ad      	mov.n	a10, a2
    90ce:	7f04b2        	l8ui	a11, a4, 127
    90d1:	ffe9e5        	excw
    90d4:	e822c2        	l32i	a12, a2, 0x3a0
    90d7:	02ad      	mov.n	a10, a2
    90d9:	3cb8      	l32i.n	a11, a12, 12
    90db:	100cc2        	l8ui	a12, a12, 16
    90de:	ff43a5        	excw
    90e1:	7f04d2        	l8ui	a13, a4, 127
    90e4:	0020f0        	nop
    90e7:	3ddc      	bnez.n	a13, 0x90fe
    90e9:	02ad      	mov.n	a10, a2
    90eb:	7e04b2        	l8ui	a11, a4, 126
    90ee:	ffe825        	excw
    90f1:	e822c2        	l32i	a12, a2, 0x3a0
    90f4:	02ad      	mov.n	a10, a2
    90f6:	3cb8      	l32i.n	a11, a12, 12
    90f8:	100cc2        	l8ui	a12, a12, 16
    90fb:	ff41e5        	excw
    90fe:	02b8      	l32i.n	a11, a2, 0
    9100:	02ad      	mov.n	a10, a2
    9102:	162bb2        	l32i	a11, a11, 88
    9105:	ffe6a5        	excw
    9108:	e822c2        	l32i	a12, a2, 0x3a0
    910b:	02ad      	mov.n	a10, a2
    910d:	3cb8      	l32i.n	a11, a12, 12
    910f:	100cc2        	l8ui	a12, a12, 16
    9112:	ff4065        	excw
    9115:	ca23d2        	l32i	a13, a3, 0x328
    9118:	3bcd16        	beqz	a13, 0x94d8
    911b:	02ad      	mov.n	a10, a2
    911d:	1b0c      	movi.n	a11, 1
    911f:	1c0c      	movi.n	a12, 1
    9121:	ff3f65        	excw
    9124:	02b651        	l32r	a5, 0xfffc9bfc
    9127:	525a      	add.n	a5, a2, a5
    9129:	7f25b2        	l32i	a11, a5, 0x1fc
    912c:	abb8      	l32i.n	a11, a11, 40
    912e:	02ad      	mov.n	a10, a2
    9130:	bb0b      	addi.n	a11, a11, -1
    9132:	ffe3e5        	excw
    9135:	e822c2        	l32i	a12, a2, 0x3a0
    9138:	20a220        	or	a10, a2, a2
    913b:	032cb2        	l32i	a11, a12, 12
    913e:	100cc2        	l8ui	a12, a12, 16
    9141:	ff3d65        	excw
    9144:	7f25b2        	l32i	a11, a5, 0x1fc
    9147:	cbb8      	l32i.n	a11, a11, 48
    9149:	02ad      	mov.n	a10, a2
    914b:	bb0b      	addi.n	a11, a11, -1
    914d:	ffe225        	excw
    9150:	e822c2        	l32i	a12, a2, 0x3a0
    9153:	02ad      	mov.n	a10, a2
    9155:	3cb8      	l32i.n	a11, a12, 12
    9157:	100cc2        	l8ui	a12, a12, 16
    915a:	ff3be5        	excw
    915d:	8304d2        	l8ui	a13, a4, 131
    9160:	dd0b      	addi.n	a13, a13, -1
    9162:	37ed16        	beqz	a13, 0x94e4
    9165:	20a220        	or	a10, a2, a2
    9168:	01a0b2        	movi	a11, 1
    916b:	1c0c      	movi.n	a12, 1
    916d:	ff3aa5        	excw
    9170:	c423e2        	l32i	a14, a3, 0x310
    9173:	becee2        	addi	a14, a14, -66
    9176:	382e16        	beqz	a14, 0x94fc
    9179:	02ad      	mov.n	a10, a2
    917b:	1b0c      	movi.n	a11, 1
    917d:	1c0c      	movi.n	a12, 1
    917f:	ff39a5        	excw
    9182:	02ad      	mov.n	a10, a2
    9184:	e923b2        	l32i	a11, a3, 0x3a4
    9187:	01a0c2        	movi	a12, 1
    918a:	ff38e5        	excw
    918d:	e92382        	l32i	a8, a3, 0x3a4
    9190:	05d816        	beqz	a8, 0x91f1
    9193:	02b8      	l32i.n	a11, a2, 0
    9195:	02ad      	mov.n	a10, a2
    9197:	6bb8      	l32i.n	a11, a11, 24
    9199:	ffdd65        	excw
    919c:	e822c2        	l32i	a12, a2, 0x3a0
    919f:	02ad      	mov.n	a10, a2
    91a1:	3cb8      	l32i.n	a11, a12, 12
    91a3:	100cc2        	l8ui	a12, a12, 16
    91a6:	ff3725        	excw
    91a9:	0022b2        	l32i	a11, a2, 0
    91ac:	20a220        	or	a10, a2, a2
    91af:	7bb8      	l32i.n	a11, a11, 28
    91b1:	ffdbe5        	excw
    91b4:	e822c2        	l32i	a12, a2, 0x3a0
    91b7:	02ad      	mov.n	a10, a2
    91b9:	3cb8      	l32i.n	a11, a12, 12
    91bb:	100cc2        	l8ui	a12, a12, 16
    91be:	ff35a5        	excw
    91c1:	0022b2        	l32i	a11, a2, 0
    91c4:	20a220        	or	a10, a2, a2
    91c7:	8bb8      	l32i.n	a11, a11, 32
    91c9:	ffda65        	excw
    91cc:	e822c2        	l32i	a12, a2, 0x3a0
    91cf:	02ad      	mov.n	a10, a2
    91d1:	3cb8      	l32i.n	a11, a12, 12
    91d3:	100cc2        	l8ui	a12, a12, 16
    91d6:	ff3425        	excw
    91d9:	0022b2        	l32i	a11, a2, 0
    91dc:	20a220        	or	a10, a2, a2
    91df:	9bb8      	l32i.n	a11, a11, 36
    91e1:	ffd8e5        	excw
    91e4:	e822c2        	l32i	a12, a2, 0x3a0
    91e7:	02ad      	mov.n	a10, a2
    91e9:	3cb8      	l32i.n	a11, a12, 12
    91eb:	100cc2        	l8ui	a12, a12, 16
    91ee:	ff32a5        	excw
    91f1:	db23b2        	l32i	a11, a3, 0x36c
    91f4:	20a220        	or	a10, a2, a2
    91f7:	01a0c2        	movi	a12, 1
    91fa:	93bcb0        	movnez	a11, a12, a11
    91fd:	ff31a5        	excw
    9200:	db23d2        	l32i	a13, a3, 0x36c
    9203:	2aed16        	beqz	a13, 0x94b5
    9206:	62e8      	l32i.n	a14, a2, 24
    9208:	0ee8      	l32i.n	a14, a14, 0
    920a:	7ebc      	beqz.n	a14, 0x9245
    920c:	02ad      	mov.n	a10, a2
    920e:	1b0c      	movi.n	a11, 1
    9210:	01a0c2        	movi	a12, 1
    9213:	ff3065        	excw
    9216:	62b8      	l32i.n	a11, a2, 24
    9218:	02ad      	mov.n	a10, a2
    921a:	8c0c      	movi.n	a12, 8
    921c:	1bb8      	l32i.n	a11, a11, 4
    921e:	ff2fa5        	excw
    9221:	62a8      	l32i.n	a10, a2, 24
    9223:	1ac8      	l32i.n	a12, a10, 4
    9225:	ffa0d2        	movi	a13, 255
    9228:	249cd7        	bne	a12, a13, 0x9250
    922b:	2ab8      	l32i.n	a11, a10, 8
    922d:	0c1c      	movi.n	a12, 16
    922f:	20a220        	or	a10, a2, a2
    9232:	ff2e65        	excw
    9235:	62b8      	l32i.n	a11, a2, 24
    9237:	02ad      	mov.n	a10, a2
    9239:	0c1c      	movi.n	a12, 16
    923b:	3bb8      	l32i.n	a11, a11, 12
    923d:	ff2da5        	excw
    9240:	62a8      	l32i.n	a10, a2, 24
    9242:	000286        	j	0x9250
    9245:	02ad      	mov.n	a10, a2
    9247:	0b0c      	movi.n	a11, 0
    9249:	1c0c      	movi.n	a12, 1
    924b:	ff2ce5        	excw
    924e:	62a8      	l32i.n	a10, a2, 24
    9250:	4ac8      	l32i.n	a12, a10, 16
    9252:	2b2c16        	beqz	a12, 0x9508
    9255:	02ad      	mov.n	a10, a2
    9257:	1b0c      	movi.n	a11, 1
    9259:	1c0c      	movi.n	a12, 1
    925b:	ff2be5        	excw
    925e:	62b8      	l32i.n	a11, a2, 24
    9260:	02ad      	mov.n	a10, a2
    9262:	1c0c      	movi.n	a12, 1
    9264:	5bb8      	l32i.n	a11, a11, 20
    9266:	ff2b25        	excw
    9269:	62c8      	l32i.n	a12, a2, 24
    926b:	6cc8      	l32i.n	a12, a12, 24
    926d:	2a3c16        	beqz	a12, 0x9514
    9270:	02ad      	mov.n	a10, a2
    9272:	1b0c      	movi.n	a11, 1
    9274:	1c0c      	movi.n	a12, 1
    9276:	ff2a25        	excw
    9279:	62b8      	l32i.n	a11, a2, 24
    927b:	02ad      	mov.n	a10, a2
    927d:	3c0c      	movi.n	a12, 3
    927f:	072bb2        	l32i	a11, a11, 28
    9282:	ff2965        	excw
    9285:	62b8      	l32i.n	a11, a2, 24
    9287:	02ad      	mov.n	a10, a2
    9289:	1c0c      	movi.n	a12, 1
    928b:	082bb2        	l32i	a11, a11, 32
    928e:	ff28a5        	excw
    9291:	62c8      	l32i.n	a12, a2, 24
    9293:	9cc8      	l32i.n	a12, a12, 36
    9295:	2b7c16        	beqz	a12, 0x9550
    9298:	02ad      	mov.n	a10, a2
    929a:	1b0c      	movi.n	a11, 1
    929c:	1c0c      	movi.n	a12, 1
    929e:	ff27a5        	excw
    92a1:	62b8      	l32i.n	a11, a2, 24
    92a3:	02ad      	mov.n	a10, a2
    92a5:	8c0c      	movi.n	a12, 8
    92a7:	0a2bb2        	l32i	a11, a11, 40
    92aa:	ff26e5        	excw
    92ad:	62b8      	l32i.n	a11, a2, 24
    92af:	02ad      	mov.n	a10, a2
    92b1:	8c0c      	movi.n	a12, 8
    92b3:	0b2bb2        	l32i	a11, a11, 44
    92b6:	ff2625        	excw
    92b9:	62b8      	l32i.n	a11, a2, 24
    92bb:	02ad      	mov.n	a10, a2
    92bd:	8c0c      	movi.n	a12, 8
    92bf:	cbb8      	l32i.n	a11, a11, 48
    92c1:	ff2565        	excw
    92c4:	62c8      	l32i.n	a12, a2, 24
    92c6:	dcc8      	l32i.n	a12, a12, 52
    92c8:	254c16        	beqz	a12, 0x9520
    92cb:	02ad      	mov.n	a10, a2
    92cd:	1b0c      	movi.n	a11, 1
    92cf:	1c0c      	movi.n	a12, 1
    92d1:	ff2465        	excw
    92d4:	62b8      	l32i.n	a11, a2, 24
    92d6:	02ad      	mov.n	a10, a2
    92d8:	ebb8      	l32i.n	a11, a11, 56
    92da:	ffc965        	excw
    92dd:	e822c2        	l32i	a12, a2, 0x3a0
    92e0:	02ad      	mov.n	a10, a2
    92e2:	3cb8      	l32i.n	a11, a12, 12
    92e4:	100cc2        	l8ui	a12, a12, 16
    92e7:	ff2325        	excw
    92ea:	62b8      	l32i.n	a11, a2, 24
    92ec:	02ad      	mov.n	a10, a2
    92ee:	0f2bb2        	l32i	a11, a11, 60
    92f1:	ffc7e5        	excw
    92f4:	e822c2        	l32i	a12, a2, 0x3a0
    92f7:	02ad      	mov.n	a10, a2
    92f9:	3cb8      	l32i.n	a11, a12, 12
    92fb:	100cc2        	l8ui	a12, a12, 16
    92fe:	ff21a5        	excw
    9301:	62d8      	l32i.n	a13, a2, 24
    9303:	102dd2        	l32i	a13, a13, 64
    9306:	222d16        	beqz	a13, 0x952c
    9309:	02ad      	mov.n	a10, a2
    930b:	1b0c      	movi.n	a11, 1
    930d:	1c0c      	movi.n	a12, 1
    930f:	ff20a5        	excw
    9312:	62b8      	l32i.n	a11, a2, 24
    9314:	02ad      	mov.n	a10, a2
    9316:	0c2c      	movi.n	a12, 32
    9318:	112bb2        	l32i	a11, a11, 68
    931b:	ff1fe5        	excw
    931e:	62b8      	l32i.n	a11, a2, 24
    9320:	02ad      	mov.n	a10, a2
    9322:	0c2c      	movi.n	a12, 32
    9324:	122bb2        	l32i	a11, a11, 72
    9327:	ff1f25        	excw
    932a:	62b8      	l32i.n	a11, a2, 24
    932c:	02ad      	mov.n	a10, a2
    932e:	1c0c      	movi.n	a12, 1
    9330:	132bb2        	l32i	a11, a11, 76
    9333:	ff1e65        	excw
    9336:	62c8      	l32i.n	a12, a2, 24
    9338:	142cc2        	l32i	a12, a12, 80
    933b:	1f9c16        	beqz	a12, 0x9538
    933e:	02ad      	mov.n	a10, a2
    9340:	01a0b2        	movi	a11, 1
    9343:	1c0c      	movi.n	a12, 1
    9345:	ff1d25        	excw
    9348:	0622b2        	l32i	a11, a2, 24
    934b:	20a220        	or	a10, a2, a2
    934e:	152bb2        	l32i	a11, a11, 84
    9351:	ffc1e5        	excw
    9354:	e822c2        	l32i	a12, a2, 0x3a0
    9357:	02ad      	mov.n	a10, a2
    9359:	032cb2        	l32i	a11, a12, 12
    935c:	100cc2        	l8ui	a12, a12, 16
    935f:	ff1ba5        	excw
    9362:	62b8      	l32i.n	a11, a2, 24
    9364:	02ad      	mov.n	a10, a2
    9366:	4c0c      	movi.n	a12, 4
    9368:	162bb2        	l32i	a11, a11, 88
    936b:	ff1ae5        	excw
    936e:	62b8      	l32i.n	a11, a2, 24
    9370:	02ad      	mov.n	a10, a2
    9372:	4c0c      	movi.n	a12, 4
    9374:	172bb2        	l32i	a11, a11, 92
    9377:	ff1a25        	excw
    937a:	62b8      	l32i.n	a11, a2, 24
    937c:	20a220        	or	a10, a2, a2
    937f:	182bb2        	l32i	a11, a11, 96
    9382:	ffbee5        	excw
    9385:	e822c2        	l32i	a12, a2, 0x3a0
    9388:	02ad      	mov.n	a10, a2
    938a:	3cb8      	l32i.n	a11, a12, 12
    938c:	100cc2        	l8ui	a12, a12, 16
    938f:	ff18a5        	excw
    9392:	62b8      	l32i.n	a11, a2, 24
    9394:	02ad      	mov.n	a10, a2
    9396:	382bb2        	l32i	a11, a11, 224
    9399:	ffbd65        	excw
    939c:	e822c2        	l32i	a12, a2, 0x3a0
    939f:	02ad      	mov.n	a10, a2
    93a1:	3cb8      	l32i.n	a11, a12, 12
    93a3:	100cc2        	l8ui	a12, a12, 16
    93a6:	ff1725        	excw
    93a9:	62b8      	l32i.n	a11, a2, 24
    93ab:	02ad      	mov.n	a10, a2
    93ad:	1c0c      	movi.n	a12, 1
    93af:	582bb2        	l32i	a11, a11, 0x160
    93b2:	ff1665        	excw
    93b5:	62b8      	l32i.n	a11, a2, 24
    93b7:	02ad      	mov.n	a10, a2
    93b9:	5c0c      	movi.n	a12, 5
    93bb:	782bb2        	l32i	a11, a11, 0x1e0
    93be:	ff15a5        	excw
    93c1:	62b8      	l32i.n	a11, a2, 24
    93c3:	02ad      	mov.n	a10, a2
    93c5:	5c0c      	movi.n	a12, 5
    93c7:	792bb2        	l32i	a11, a11, 0x1e4
    93ca:	ff14e5        	excw
    93cd:	62b8      	l32i.n	a11, a2, 24
    93cf:	02ad      	mov.n	a10, a2
    93d1:	5c0c      	movi.n	a12, 5
    93d3:	7a2bb2        	l32i	a11, a11, 0x1e8
    93d6:	ff1425        	excw
    93d9:	62b8      	l32i.n	a11, a2, 24
    93db:	02ad      	mov.n	a10, a2
    93dd:	5c0c      	movi.n	a12, 5
    93df:	7b2bb2        	l32i	a11, a11, 0x1ec
    93e2:	ff1365        	excw
    93e5:	62b8      	l32i.n	a11, a2, 24
    93e7:	02ad      	mov.n	a10, a2
    93e9:	1c0c      	movi.n	a12, 1
    93eb:	7c2bb2        	l32i	a11, a11, 0x1f0
    93ee:	ff12a5        	excw
    93f1:	02ad      	mov.n	a10, a2
    93f3:	0b0c      	movi.n	a11, 0
    93f5:	1c0c      	movi.n	a12, 1
    93f7:	ff1225        	excw
    93fa:	62b8      	l32i.n	a11, a2, 24
    93fc:	02ad      	mov.n	a10, a2
    93fe:	1c0c      	movi.n	a12, 1
    9400:	7d2bb2        	l32i	a11, a11, 0x1f4
    9403:	ff1165        	excw
    9406:	62c8      	l32i.n	a12, a2, 24
    9408:	7e2cc2        	l32i	a12, a12, 0x1f8
    940b:	135c16        	beqz	a12, 0x9544
    940e:	02ad      	mov.n	a10, a2
    9410:	1b0c      	movi.n	a11, 1
    9412:	01a0c2        	movi	a12, 1
    9415:	ff1025        	excw
    9418:	62b8      	l32i.n	a11, a2, 24
    941a:	02ad      	mov.n	a10, a2
    941c:	1c0c      	movi.n	a12, 1
    941e:	7f2bb2        	l32i	a11, a11, 0x1fc
    9421:	ff0f65        	excw
    9424:	0622b2        	l32i	a11, a2, 24
    9427:	20a220        	or	a10, a2, a2
    942a:	802bb2        	l32i	a11, a11, 0x200
    942d:	ffb425        	excw
    9430:	e822c2        	l32i	a12, a2, 0x3a0
    9433:	02ad      	mov.n	a10, a2
    9435:	032cb2        	l32i	a11, a12, 12
    9438:	100cc2        	l8ui	a12, a12, 16
    943b:	ff0de5        	excw
    943e:	62b8      	l32i.n	a11, a2, 24
    9440:	20a220        	or	a10, a2, a2
    9443:	812bb2        	l32i	a11, a11, 0x204
    9446:	ffb2a5        	excw
    9449:	e822c2        	l32i	a12, a2, 0x3a0
    944c:	02ad      	mov.n	a10, a2
    944e:	3cb8      	l32i.n	a11, a12, 12
    9450:	100cc2        	l8ui	a12, a12, 16
    9453:	ff0c65        	excw
    9456:	62b8      	l32i.n	a11, a2, 24
    9458:	20a220        	or	a10, a2, a2
    945b:	822bb2        	l32i	a11, a11, 0x208
    945e:	ffb125        	excw
    9461:	e822c2        	l32i	a12, a2, 0x3a0
    9464:	02ad      	mov.n	a10, a2
    9466:	3cb8      	l32i.n	a11, a12, 12
    9468:	100cc2        	l8ui	a12, a12, 16
    946b:	ff0ae5        	excw
    946e:	62b8      	l32i.n	a11, a2, 24
    9470:	20a220        	or	a10, a2, a2
    9473:	832bb2        	l32i	a11, a11, 0x20c
    9476:	ffafa5        	excw
    9479:	e822c2        	l32i	a12, a2, 0x3a0
    947c:	02ad      	mov.n	a10, a2
    947e:	3cb8      	l32i.n	a11, a12, 12
    9480:	100cc2        	l8ui	a12, a12, 16
    9483:	ff0965        	excw
    9486:	62b8      	l32i.n	a11, a2, 24
    9488:	20a220        	or	a10, a2, a2
    948b:	842bb2        	l32i	a11, a11, 0x210
    948e:	ffae25        	excw
    9491:	e822c2        	l32i	a12, a2, 0x3a0
    9494:	02ad      	mov.n	a10, a2
    9496:	3cb8      	l32i.n	a11, a12, 12
    9498:	100cc2        	l8ui	a12, a12, 16
    949b:	ff07e5        	excw
    949e:	62b8      	l32i.n	a11, a2, 24
    94a0:	02ad      	mov.n	a10, a2
    94a2:	852bb2        	l32i	a11, a11, 0x214
    94a5:	ffaca5        	excw
    94a8:	e822c2        	l32i	a12, a2, 0x3a0
    94ab:	02ad      	mov.n	a10, a2
    94ad:	3cb8      	l32i.n	a11, a12, 12
    94af:	100cc2        	l8ui	a12, a12, 16
    94b2:	ff0665        	excw
    94b5:	02ad      	mov.n	a10, a2
    94b7:	fefda5        	excw
    94ba:	0b0c      	movi.n	a11, 0
    94bc:	0a0c      	movi.n	a10, 0
    94be:	0c0c      	movi.n	a12, 0
    94c0:	5d0c      	movi.n	a13, 5
    94c2:	014de5        	excw
    94c5:	5803d2        	l8ui	a13, a3, 88
    94c8:	fda0e2        	movi	a14, 253
    94cb:	10dde0        	and	a13, a13, a14
    94ce:	2e0c      	movi.n	a14, 2
    94d0:	20dde0        	or	a13, a13, a14
    94d3:	5843d2        	s8i	a13, a3, 88
    94d6:	f01d      	excw
    94d8:	02ad      	mov.n	a10, a2
    94da:	0b0c      	movi.n	a11, 0
    94dc:	1c0c      	movi.n	a12, 1
    94de:	ff03a5        	excw
    94e1:	ff0fc6        	j	0x9124
    94e4:	02ad      	mov.n	a10, a2
    94e6:	0b0c      	movi.n	a11, 0
    94e8:	1c0c      	movi.n	a12, 1
    94ea:	ff02e5        	excw
    94ed:	02ad      	mov.n	a10, a2
    94ef:	00a0b2        	movi	a11, 0
    94f2:	01a0c2        	movi	a12, 1
    94f5:	ff0225        	excw
    94f8:	ff1d06        	j	0x9170
    94fb:	02ad00        	excw
    94fe:	0b0c      	movi.n	a11, 0
    9500:	1c0c      	movi.n	a12, 1
    9502:	ff0165        	excw
    9505:	ff1e46        	j	0x9182
    9508:	02ad      	mov.n	a10, a2
    950a:	0b0c      	movi.n	a11, 0
    950c:	1c0c      	movi.n	a12, 1
    950e:	ff00a5        	excw
    9511:	ff5506        	j	0x9269
    9514:	02ad      	mov.n	a10, a2
    9516:	0b0c      	movi.n	a11, 0
    9518:	1c0c      	movi.n	a12, 1
    951a:	feffe5        	excw
    951d:	ff68c6        	j	0x92c4
    9520:	02ad      	mov.n	a10, a2
    9522:	0b0c      	movi.n	a11, 0
    9524:	1c0c      	movi.n	a12, 1
    9526:	feff25        	excw
    9529:	ff7506        	j	0x9301
    952c:	02ad      	mov.n	a10, a2
    952e:	0b0c      	movi.n	a11, 0
    9530:	1c0c      	movi.n	a12, 1
    9532:	fefe65        	excw
    9535:	ff7f46        	j	0x9336
    9538:	02ad      	mov.n	a10, a2
    953a:	0b0c      	movi.n	a11, 0
    953c:	1c0c      	movi.n	a12, 1
    953e:	fefda5        	excw
    9541:	ffab06        	j	0x93f1
    9544:	02ad      	mov.n	a10, a2
    9546:	0b0c      	movi.n	a11, 0
    9548:	1c0c      	movi.n	a12, 1
    954a:	fefce5        	excw
    954d:	ffd906        	j	0x94b5
    9550:	02ad      	mov.n	a10, a2
    9552:	0b0c      	movi.n	a11, 0
    9554:	1c0c      	movi.n	a12, 1
    9556:	fefc25        	excw
    9559:	ff59c6        	j	0x92c4
    955c:	004136        	excw
    955f:	0238      	l32i.n	a3, a2, 0
    9561:	0b0c      	movi.n	a11, 0
    9563:	68a1a2        	movi	a10, 0x168
    9566:	8c2c      	movi.n	a12, 40
    9568:	1d0c      	movi.n	a13, 1
    956a:	014365        	excw
    956d:	034641        	l32r	a4, 0xfffca288
    9570:	20a220        	or	a10, a2, a2
    9573:	f03d      	nop.n
    9575:	424a      	add.n	a4, a2, a4
    9577:	8004b2        	l8ui	a11, a4, 128
    957a:	ff9f65        	excw
    957d:	e822c2        	l32i	a12, a2, 0x3a0
    9580:	20a220        	or	a10, a2, a2
    9583:	032cb2        	l32i	a11, a12, 12
    9586:	100cc2        	l8ui	a12, a12, 16
    9589:	fef8e5        	excw
    958c:	7f04b2        	l8ui	a11, a4, 127
    958f:	02ad      	mov.n	a10, a2
    9591:	ff9de5        	excw
    9594:	e822c2        	l32i	a12, a2, 0x3a0
    9597:	02ad      	mov.n	a10, a2
    9599:	3cb8      	l32i.n	a11, a12, 12
    959b:	100cc2        	l8ui	a12, a12, 16
    959e:	fef7a5        	excw
    95a1:	02ad      	mov.n	a10, a2
    95a3:	13b8      	l32i.n	a11, a3, 4
    95a5:	1c0c      	movi.n	a12, 1
    95a7:	fef725        	excw
    95aa:	02ad      	mov.n	a10, a2
    95ac:	0b0c      	movi.n	a11, 0
    95ae:	02f841        	l32r	a4, 0xfffca190
    95b1:	1c0c      	movi.n	a12, 1
    95b3:	13d8      	l32i.n	a13, a3, 4
    95b5:	424a      	add.n	a4, a2, a4
    95b7:	e664d2        	s32i	a13, a4, 0x398
    95ba:	fef5e5        	excw
    95bd:	17d2b2        	addmi	a11, a2, 0x1700
    95c0:	382bb2        	l32i	a11, a11, 224
    95c3:	20a220        	or	a10, a2, a2
    95c6:	212bb2        	l32i	a11, a11, 132
    95c9:	ff9a65        	excw
    95cc:	e822c2        	l32i	a12, a2, 0x3a0
    95cf:	02ad      	mov.n	a10, a2
    95d1:	3cb8      	l32i.n	a11, a12, 12
    95d3:	100cc2        	l8ui	a12, a12, 16
    95d6:	fef425        	excw
    95d9:	02b8      	l32i.n	a11, a2, 0
    95db:	172bb2        	l32i	a11, a11, 92
    95de:	02ad      	mov.n	a10, a2
    95e0:	bb0b      	addi.n	a11, a11, -1
    95e2:	ff98e5        	excw
    95e5:	e822c2        	l32i	a12, a2, 0x3a0
    95e8:	20a220        	or	a10, a2, a2
    95eb:	f03d      	nop.n
    95ed:	3cb8      	l32i.n	a11, a12, 12
    95ef:	100cc2        	l8ui	a12, a12, 16
    95f2:	fef265        	excw
    95f5:	02b8      	l32i.n	a11, a2, 0
    95f7:	182bb2        	l32i	a11, a11, 96
    95fa:	02ad      	mov.n	a10, a2
    95fc:	bb0b      	addi.n	a11, a11, -1
    95fe:	ff9725        	excw
    9601:	e822c2        	l32i	a12, a2, 0x3a0
    9604:	20a220        	or	a10, a2, a2
    9607:	f03d      	nop.n
    9609:	032cb2        	l32i	a11, a12, 12
    960c:	100cc2        	l8ui	a12, a12, 16
    960f:	fef0a5        	excw
    9612:	20a220        	or	a10, a2, a2
    9615:	00a0b2        	movi	a11, 0
    9618:	01a0c2        	movi	a12, 1
    961b:	feefe5        	excw
    961e:	20a220        	or	a10, a2, a2
    9621:	00a0b2        	movi	a11, 0
    9624:	02a0c2        	movi	a12, 2
    9627:	feef25        	excw
    962a:	20a220        	or	a10, a2, a2
    962d:	01a0b2        	movi	a11, 1
    9630:	01a0c2        	movi	a12, 1
    9633:	feee65        	excw
    9636:	20a220        	or	a10, a2, a2
    9639:	1b0c      	movi.n	a11, 1
    963b:	01a0c2        	movi	a12, 1
    963e:	feeda5        	excw
    9641:	02ad      	mov.n	a10, a2
    9643:	1b0c      	movi.n	a11, 1
    9645:	1c0c      	movi.n	a12, 1
    9647:	feed25        	excw
    964a:	d2b8      	l32i.n	a11, a2, 52
    964c:	02ad      	mov.n	a10, a2
    964e:	1c0c      	movi.n	a12, 1
    9650:	3bb8      	l32i.n	a11, a11, 12
    9652:	feec65        	excw
    9655:	d2d8      	l32i.n	a13, a2, 52
    9657:	02ad      	mov.n	a10, a2
    9659:	1c0c      	movi.n	a12, 1
    965b:	3dd8      	l32i.n	a13, a13, 12
    965d:	e864d2        	s32i	a13, a4, 0x3a0
    9660:	0023b2        	l32i	a11, a3, 0
    9663:	feeb65        	excw
    9666:	02ad      	mov.n	a10, a2
    9668:	0b0c      	movi.n	a11, 0
    966a:	1c0c      	movi.n	a12, 1
    966c:	03e8      	l32i.n	a14, a3, 0
    966e:	e764e2        	s32i	a14, a4, 0x39c
    9671:	feea65        	excw
    9674:	02ad      	mov.n	a10, a2
    9676:	fee1a5        	excw
    9679:	0b0c      	movi.n	a11, 0
    967b:	0a0c      	movi.n	a10, 0
    967d:	0c0c      	movi.n	a12, 0
    967f:	5d0c      	movi.n	a13, 5
    9681:	0131e5        	excw
    9684:	5804f2        	l8ui	a15, a4, 88
    9687:	fba082        	movi	a8, 251
    968a:	10ff80        	and	a15, a15, a8
    968d:	480c      	movi.n	a8, 4
    968f:	20ff80        	or	a15, a15, a8
    9692:	5844f2        	s8i	a15, a4, 88
    9695:	f01d      	excw
    9697:	a13600        	sll	a3, a6
    969a:	72c800        	excw
    969d:	034771        	l32r	a7, 0xfffca3bc
    96a0:	8268      	l32i.n	a6, a2, 32
    96a2:	a258      	l32i.n	a5, a2, 40
    96a4:	727a      	add.n	a7, a2, a7
    96a6:	182782        	l32i	a8, a7, 96
    96a9:	9298      	l32i.n	a9, a2, 36
    96ab:	8199      	s32i.n	a9, a1, 32
    96ad:	c8ac      	beqz.n	a8, 0x96dd
    96af:	41c9      	s32i.n	a12, a1, 16
    96b1:	02ad      	mov.n	a10, a2
    96b3:	2207b2        	l8ui	a11, a7, 34
    96b6:	026cb2        	s32i	a11, a12, 8
    96b9:	ff8b65        	excw
    96bc:	62a8      	l32i.n	a10, a2, 24
    96be:	e82292        	l32i	a9, a2, 0x3a0
    96c1:	142a82        	l32i	a8, a10, 80
    96c4:	4998      	l32i.n	a9, a9, 16
    96c6:	55b816        	beqz	a8, 0x9c25
    96c9:	782ab2        	l32i	a11, a10, 0x1e0
    96cc:	bb1b      	addi.n	a11, a11, 1
    96ce:	909b90        	addx2	a9, a11, a9
    96d1:	c97b      	addi.n	a12, a9, 7
    96d3:	41c3c0        	srli	a12, a12, 3
    96d6:	31c9      	s32i.n	a12, a1, 12
    96d8:	0001c6        	j	0x96e3
    96db:	c90000        	excw
    96de:	0d0c41        	l32r	a4, 0xfffccb10
    96e1:	31d9      	s32i.n	a13, a1, 12
    96e3:	1927e2        	l32i	a14, a7, 100
    96e6:	4eae16        	beqz	a14, 0x9bd4
    96e9:	62a8      	l32i.n	a10, a2, 24
    96eb:	142ae2        	l32i	a14, a10, 80
    96ee:	4f7e16        	beqz	a14, 0x9be9
    96f1:	7a2ab2        	l32i	a11, a10, 0x1e8
    96f4:	792a92        	l32i	a9, a10, 0x1e4
    96f7:	99ba      	add.n	a9, a9, a11
    96f9:	992b      	addi.n	a9, a9, 2
    96fb:	7d2ac2        	l32i	a12, a10, 0x1f4
    96fe:	dcac      	beqz.n	a12, 0x972f
    9700:	36c8      	l32i.n	a12, a6, 12
    9702:	994b      	addi.n	a9, a9, 4
    9704:	023cb6        	bltui	a12, 3, 0x970a
    9707:	011e86        	j	0x9b85
    970a:	1c0c      	movi.n	a12, 1
    970c:	06dd      	mov.n	a13, a6
    970e:	1d9c76        	excw
    9711:	4df8      	l32i.n	a15, a13, 16
    9713:	991b      	addi.n	a9, a9, 1
    9715:	1d0d82        	l8ui	a8, a13, 29
    9718:	1f9c      	beqz.n	a15, 0x972d
    971a:	3e6807        	bbci	a8, 0, 0x975c
    971d:	24c992        	addi	a9, a9, 36
    9720:	7b2ac2        	l32i	a12, a10, 0x1ec
    9723:	6c8c      	beqz.n	a12, 0x972d
    9725:	b9ca      	add.n	a11, a9, a12
    9727:	18c992        	addi	a9, a9, 24
    972a:	939be0        	movnez	a9, a11, a14
    972d:	dd4b      	addi.n	a13, a13, 4
    972f:	c97b      	addi.n	a12, a9, 7
    9731:	41c3c0        	srli	a12, a12, 3
    9734:	51c9      	s32i.n	a12, a1, 20
    9736:	1a27d2        	l32i	a13, a7, 104
    9739:	7dbc      	beqz.n	a13, 0x9774
    973b:	81b8      	l32i.n	a11, a1, 32
    973d:	02ad      	mov.n	a10, a2
    973f:	2bb8      	l32i.n	a11, a11, 8
    9741:	ff82e5        	excw
    9744:	e82232        	l32i	a3, a2, 0x3a0
    9747:	81c8      	l32i.n	a12, a1, 32
    9749:	4338      	l32i.n	a3, a3, 16
    974b:	3cc8      	l32i.n	a12, a12, 12
    974d:	331b      	addi.n	a3, a3, 1
    974f:	4e3c16        	beqz	a12, 0x9c36
    9752:	837b      	addi.n	a8, a3, 7
    9754:	418380        	srli	a8, a8, 3
    9757:	6189      	s32i.n	a8, a1, 24
    9759:	0006c6        	j	0x9778
    975c:	1e0dc2        	l8ui	a12, a13, 30
    975f:	14c992        	addi	a9, a9, 20
    9762:	ba6c37        	bbci	a12, 3, 0x9720
    9765:	997b      	addi.n	a9, a9, 7
    9767:	b56c47        	bbci	a12, 4, 0x9720
    976a:	997b      	addi.n	a9, a9, 7
    976c:	b06c57        	bbci	a12, 5, 0x9720
    976f:	995b      	addi.n	a9, a9, 5
    9771:	ffeac6        	j	0x9720
    9774:	090c      	movi.n	a9, 0
    9776:	6199      	s32i.n	a9, a1, 24
    9778:	1b27a2        	l32i	a10, a7, 108
    977b:	01af42        	movi	a4, -255
    977e:	fea032        	movi	a3, 254
    9781:	42fa16        	beqz	a10, 0x9bb4
    9784:	15e8      	l32i.n	a14, a5, 4
    9786:	8f7c      	movi.n	a15, -8
    9788:	ee7b      	addi.n	a14, a14, 7
    978a:	10eef0        	and	a14, a14, a15
    978d:	1d67e2        	s32i	a14, a7, 116
    9790:	0233e7        	bltu	a3, a14, 0x9796
    9793:	010386        	j	0x9ba5
    9796:	0ecd      	mov.n	a12, a14
    9798:	0a0c      	movi.n	a10, 0
    979a:	068076        	excw
    979d:	aa1b      	addi.n	a10, a10, 1
    979f:	cc4a      	add.n	a12, a12, a4
    97a1:	04b3c7        	bgeu	a3, a12, 0x97a9
    97a4:	fffc86        	j	0x979a
    97a7:	a00000        	addx4	a0, a0, a0
    97aa:	5e          	.byte 0x5e
    97ab:	c552c0        	extui	a5, a12, 18, 13
    97ae:	fe          	.byte 0xfe
    97af:	023357        	bltu	a3, a5, 0x97b5
    97b2:	010986        	j	0x9bdc
    97b5:	05dd      	mov.n	a13, a5
    97b7:	0c0c      	movi.n	a12, 0
    97b9:	068076        	excw
    97bc:	cc1b      	addi.n	a12, a12, 1
    97be:	dd4a      	add.n	a13, a13, a4
    97c0:	02b3d7        	bgeu	a3, a13, 0x97c6
    97c3:	fffc86        	j	0x97b9
    97c6:	9a1b      	addi.n	a9, a10, 1
    97c8:	01cc82        	addi	a8, a12, 1
    97cb:	05b897        	bgeu	a8, a9, 0x97d4
    97ce:	c05ec0        	sub	a5, a14, a12
    97d1:	fec552        	addi	a5, a5, -2
    97d4:	0a0c      	movi.n	a10, 0
    97d6:	00a0b2        	movi	a11, 0
    97d9:	fee1e5        	excw
    97dc:	0b0c      	movi.n	a11, 0
    97de:	06a1a2        	movi	a10, 0x106
    97e1:	8c2c      	movi.n	a12, 40
    97e3:	1d0c      	movi.n	a13, 1
    97e5:	011ba5        	excw
    97e8:	182782        	l32i	a8, a7, 96
    97eb:	090c      	movi.n	a9, 0
    97ed:	da4792        	s8i	a9, a7, 218
    97f0:	092816        	beqz	a8, 0x9886
    97f3:	02ad      	mov.n	a10, a2
    97f5:	0b0c      	movi.n	a11, 0
    97f7:	08a0c2        	movi	a12, 8
    97fa:	fed1e5        	excw
    97fd:	31a8      	l32i.n	a10, a1, 12
    97ff:	a179      	s32i.n	a7, a1, 40
    9801:	15b3a7        	bgeu	a3, a10, 0x981a
    9804:	0a7d      	mov.n	a7, a10
    9806:	02ad      	mov.n	a10, a2
    9808:	ffa0b2        	movi	a11, 255
    980b:	8c0c      	movi.n	a12, 8
    980d:	fed0a5        	excw
    9810:	774a      	add.n	a7, a7, a4
    9812:	f03377        	bltu	a3, a7, 0x9806
    9815:	0000c6        	j	0x981c
    9818:	7d0000        	excw
    981b:	bd0a      	add.n	a11, a13, a0
    981d:	02ad07        	bge	a13, a0, 0x9823
    9820:	8c0c      	movi.n	a12, 8
    9822:	fecf65        	excw
    9825:	41b8      	l32i.n	a11, a1, 16
    9827:	a178      	l32i.n	a7, a1, 40
    9829:	02ad      	mov.n	a10, a2
    982b:	2bb8      	l32i.n	a11, a11, 8
    982d:	ff7425        	excw
    9830:	e822c2        	l32i	a12, a2, 0x3a0
    9833:	02ad      	mov.n	a10, a2
    9835:	3cb8      	l32i.n	a11, a12, 12
    9837:	100cc2        	l8ui	a12, a12, 16
    983a:	fecde5        	excw
    983d:	62a8      	l32i.n	a10, a2, 24
    983f:	41b8      	l32i.n	a11, a1, 16
    9841:	142ad2        	l32i	a13, a10, 80
    9844:	3bb8      	l32i.n	a11, a11, 12
    9846:	3abd16        	beqz	a13, 0x9bf5
    9849:	782ac2        	l32i	a12, a10, 0x1e0
    984c:	02ad      	mov.n	a10, a2
    984e:	cc1b      	addi.n	a12, a12, 1
    9850:	74c0c0        	extui	a12, a12, 0, 8
    9853:	fecc65        	excw
    9856:	62c8      	l32i.n	a12, a2, 24
    9858:	0421b2        	l32i	a11, a1, 16
    985b:	0020f0        	nop
    985e:	782cc2        	l32i	a12, a12, 0x1e0
    9861:	20a220        	or	a10, a2, a2
    9864:	232bb2        	l32i	a11, a11, 140
    9867:	01ccc2        	addi	a12, a12, 1
    986a:	74c0c0        	extui	a12, a12, 0, 8
    986d:	fecaa5        	excw
    9870:	02ad      	mov.n	a10, a2
    9872:	fec1e5        	excw
    9875:	0b0c      	movi.n	a11, 0
    9877:	0a0c      	movi.n	a10, 0
    9879:	00a0c2        	movi	a12, 0
    987c:	5d0c      	movi.n	a13, 5
    987e:	011225        	excw
    9881:	090c      	movi.n	a9, 0
    9883:	da4792        	s8i	a9, a7, 218
    9886:	1927d2        	l32i	a13, a7, 100
    9889:	200d16        	beqz	a13, 0x9a8d
    988c:	02ad      	mov.n	a10, a2
    988e:	1b0c      	movi.n	a11, 1
    9890:	8c0c      	movi.n	a12, 8
    9892:	fec865        	excw
    9895:	51e8      	l32i.n	a14, a1, 20
    9897:	a179      	s32i.n	a7, a1, 40
    9899:	14b3e7        	bgeu	a3, a14, 0x98b1
    989c:	5178      	l32i.n	a7, a1, 20
    989e:	02ad      	mov.n	a10, a2
    98a0:	ffa0b2        	movi	a11, 255
    98a3:	8c0c      	movi.n	a12, 8
    98a5:	fec725        	excw
    98a8:	774a      	add.n	a7, a7, a4
    98aa:	f03377        	bltu	a3, a7, 0x989e
    98ad:	000086        	j	0x98b3
    98b0:	517800        	excw
    98b3:	07bd      	mov.n	a11, a7
    98b5:	02ad      	mov.n	a10, a2
    98b7:	8c0c      	movi.n	a12, 8
    98b9:	fec5e5        	excw
    98bc:	62a8      	l32i.n	a10, a2, 24
    98be:	142af2        	l32i	a15, a10, 80
    98c1:	a178      	l32i.n	a7, a1, 40
    98c3:	16b8      	l32i.n	a11, a6, 4
    98c5:	344f16        	beqz	a15, 0x9c0d
    98c8:	792ac2        	l32i	a12, a10, 0x1e4
    98cb:	02ad      	mov.n	a10, a2
    98cd:	cc1b      	addi.n	a12, a12, 1
    98cf:	74c0c0        	extui	a12, a12, 0, 8
    98d2:	fec465        	excw
    98d5:	62c8      	l32i.n	a12, a2, 24
    98d7:	7a2cc2        	l32i	a12, a12, 0x1e8
    98da:	02ad      	mov.n	a10, a2
    98dc:	26b8      	l32i.n	a11, a6, 8
    98de:	cc1b      	addi.n	a12, a12, 1
    98e0:	74c0c0        	extui	a12, a12, 0, 8
    98e3:	fec365        	excw
    98e6:	62d8      	l32i.n	a13, a2, 24
    98e8:	7d2dd2        	l32i	a13, a13, 0x1f4
    98eb:	189d16        	beqz	a13, 0x9a78
    98ee:	02ad      	mov.n	a10, a2
    98f0:	0326b2        	l32i	a11, a6, 12
    98f3:	4c0c      	movi.n	a12, 4
    98f5:	fec225        	excw
    98f8:	032692        	l32i	a9, a6, 12
    98fb:	0239b6        	bltui	a9, 3, 0x9901
    98fe:	00adc6        	j	0x9bb9
    9901:	01a092        	movi	a9, 1
    9904:	a08960        	addx4	a8, a9, a6
    9907:	2189      	s32i.n	a8, a1, 8
    9909:	02ad      	mov.n	a10, a2
    990b:	46b8      	l32i.n	a11, a6, 16
    990d:	1c0c      	movi.n	a12, 1
    990f:	fec0a5        	excw
    9912:	4698      	l32i.n	a9, a6, 16
    9914:	156916        	beqz	a9, 0x9a6e
    9917:	1c06b2        	l8ui	a11, a6, 28
    991a:	02ad      	mov.n	a10, a2
    991c:	2c0c      	movi.n	a12, 2
    991e:	14b0b0        	extui	a11, a11, 0, 2
    9921:	febf65        	excw
    9924:	1c06b2        	l8ui	a11, a6, 28
    9927:	02ad      	mov.n	a10, a2
    9929:	1c0c      	movi.n	a12, 1
    992b:	04b2b0        	extui	a11, a11, 2, 1
    992e:	febea5        	excw
    9931:	1c06b2        	l8ui	a11, a6, 28
    9934:	20a220        	or	a10, a2, a2
    9937:	05a0c2        	movi	a12, 5
    993a:	41b3b0        	srli	a11, a11, 3
    993d:	febda5        	excw
    9940:	1d06b2        	l8ui	a11, a6, 29
    9943:	02ad      	mov.n	a10, a2
    9945:	1c0c      	movi.n	a12, 1
    9947:	04b0b0        	extui	a11, a11, 0, 1
    994a:	febce5        	excw
    994d:	1d06b2        	l8ui	a11, a6, 29
    9950:	20a220        	or	a10, a2, a2
    9953:	01a0c2        	movi	a12, 1
    9956:	04b1b0        	extui	a11, a11, 1, 1
    9959:	febbe5        	excw
    995c:	1d06b2        	l8ui	a11, a6, 29
    995f:	02ad      	mov.n	a10, a2
    9961:	01a0c2        	movi	a12, 1
    9964:	04b2b0        	extui	a11, a11, 2, 1
    9967:	febb25        	excw
    996a:	02ad      	mov.n	a10, a2
    996c:	1e06b2        	l8ui	a11, a6, 30
    996f:	1d06d2        	l8ui	a13, a6, 29
    9972:	08a0c2        	movi	a12, 8
    9975:	11bb80        	slli	a11, a11, 8
    9978:	20bbd0        	or	a11, a11, a13
    997b:	74b3b0        	extui	a11, a11, 3, 8
    997e:	feb9a5        	excw
    9981:	1d06c2        	l8ui	a12, a6, 29
    9984:	3c6c07        	bbci	a12, 0, 0x99c4
    9987:	2806b2        	l8ui	a11, a6, 40
    998a:	02ad      	mov.n	a10, a2
    998c:	6c0c      	movi.n	a12, 6
    998e:	54b0b0        	extui	a11, a11, 0, 6
    9991:	feb865        	excw
    9994:	02ad      	mov.n	a10, a2
    9996:	2906b2        	l8ui	a11, a6, 41
    9999:	2806d2        	l8ui	a13, a6, 40
    999c:	6c0c      	movi.n	a12, 6
    999e:	11bb80        	slli	a11, a11, 8
    99a1:	20bbd0        	or	a11, a11, a13
    99a4:	54b6b0        	extui	a11, a11, 6, 6
    99a7:	feb725        	excw
    99aa:	02ad      	mov.n	a10, a2
    99ac:	2a06b2        	l8ui	a11, a6, 42
    99af:	2906d2        	l8ui	a13, a6, 41
    99b2:	5c0c      	movi.n	a12, 5
    99b4:	11bb80        	slli	a11, a11, 8
    99b7:	20bbd0        	or	a11, a11, a13
    99ba:	44b4b0        	extui	a11, a11, 4, 5
    99bd:	feb5a5        	excw
    99c0:	001d06        	j	0x9a38
    99c3:	06b200        	excw
    99c6:	1e          	.byte 0x1e
    99c7:	02ad      	mov.n	a10, a2
    99c9:	1c0c      	movi.n	a12, 1
    99cb:	04b3b0        	extui	a11, a11, 3, 1
    99ce:	feb4a5        	excw
    99d1:	1e06c2        	l8ui	a12, a6, 30
    99d4:	606c37        	bbci	a12, 3, 0x9a38
    99d7:	2806b2        	l8ui	a11, a6, 40
    99da:	02ad      	mov.n	a10, a2
    99dc:	6c0c      	movi.n	a12, 6
    99de:	54b0b0        	extui	a11, a11, 0, 6
    99e1:	feb365        	excw
    99e4:	1e06b2        	l8ui	a11, a6, 30
    99e7:	02ad      	mov.n	a10, a2
    99e9:	1c0c      	movi.n	a12, 1
    99eb:	04b4b0        	extui	a11, a11, 4, 1
    99ee:	feb2a5        	excw
    99f1:	1e06c2        	l8ui	a12, a6, 30
    99f4:	406c47        	bbci	a12, 4, 0x9a38
    99f7:	02ad      	mov.n	a10, a2
    99f9:	2906b2        	l8ui	a11, a6, 41
    99fc:	2806d2        	l8ui	a13, a6, 40
    99ff:	6c0c      	movi.n	a12, 6
    9a01:	11bb80        	slli	a11, a11, 8
    9a04:	20bbd0        	or	a11, a11, a13
    9a07:	54b6b0        	extui	a11, a11, 6, 6
    9a0a:	feb0e5        	excw
    9a0d:	1e06b2        	l8ui	a11, a6, 30
    9a10:	20a220        	or	a10, a2, a2
    9a13:	01a0c2        	movi	a12, 1
    9a16:	04b5b0        	extui	a11, a11, 5, 1
    9a19:	feafe5        	excw
    9a1c:	1e06c2        	l8ui	a12, a6, 30
    9a1f:	156c57        	bbci	a12, 5, 0x9a38
    9a22:	02ad      	mov.n	a10, a2
    9a24:	2a06b2        	l8ui	a11, a6, 42
    9a27:	2906d2        	l8ui	a13, a6, 41
    9a2a:	5c0c      	movi.n	a12, 5
    9a2c:	11bb80        	slli	a11, a11, 8
    9a2f:	20bbd0        	or	a11, a11, a13
    9a32:	44b4b0        	extui	a11, a11, 4, 5
    9a35:	feae25        	excw
    9a38:	62a8      	l32i.n	a10, a2, 24
    9a3a:	7b2ac2        	l32i	a12, a10, 0x1ec
    9a3d:	dcac      	beqz.n	a12, 0x9a6e
    9a3f:	142ad2        	l32i	a13, a10, 80
    9a42:	d6b8      	l32i.n	a11, a6, 52
    9a44:	0ddc      	bnez.n	a13, 0x9a58
    9a46:	0320e1        	l32r	a14, 0xfffca6c8
    9a49:	02ad      	mov.n	a10, a2
    9a4b:	8c1c      	movi.n	a12, 24
    9a4d:	ebea      	add.n	a14, a11, a14
    9a4f:	a3beb0        	movltz	a11, a14, a11
    9a52:	feac65        	excw
    9a55:	000546        	j	0x9a6e
    9a58:	009bd6        	bgez	a11, 0x9a65
    9a5b:	401c00        	ssl	a12
    9a5e:	2f0c      	movi.n	a15, 2
    9a60:	a1ff00        	sll	a15, a15
    9a63:	bbfa      	add.n	a11, a11, a15
    9a65:	74c0c0        	extui	a12, a12, 0, 8
    9a68:	20a220        	or	a10, a2, a2
    9a6b:	feaae5        	excw
    9a6e:	2188      	l32i.n	a8, a1, 8
    9a70:	664b      	addi.n	a6, a6, 4
    9a72:	c08680        	sub	a8, a6, a8
    9a75:	e90856        	bnez	a8, 0x9909
    9a78:	02ad      	mov.n	a10, a2
    9a7a:	fea165        	excw
    9a7d:	0b0c      	movi.n	a11, 0
    9a7f:	0a0c      	movi.n	a10, 0
    9a81:	0c0c      	movi.n	a12, 0
    9a83:	5d0c      	movi.n	a13, 5
    9a85:	00f1a5        	excw
    9a88:	090c      	movi.n	a9, 0
    9a8a:	da4792        	s8i	a9, a7, 218
    9a8d:	1a27a2        	l32i	a10, a7, 104
    9a90:	06da16        	beqz	a10, 0x9b01
    9a93:	02ad      	mov.n	a10, a2
    9a95:	2b0c      	movi.n	a11, 2
    9a97:	08a0c2        	movi	a12, 8
    9a9a:	fea7e5        	excw
    9a9d:	61b8      	l32i.n	a11, a1, 24
    9a9f:	13b3b7        	bgeu	a3, a11, 0x9ab6
    9aa2:	0b6d      	mov.n	a6, a11
    9aa4:	02ad      	mov.n	a10, a2
    9aa6:	ffa0b2        	movi	a11, 255
    9aa9:	8c0c      	movi.n	a12, 8
    9aab:	fea6e5        	excw
    9aae:	664a      	add.n	a6, a6, a4
    9ab0:	f03367        	bltu	a3, a6, 0x9aa4
    9ab3:	000046        	j	0x9ab8
    9ab6:	0b6d      	mov.n	a6, a11
    9ab8:	06bd      	mov.n	a11, a6
    9aba:	02ad      	mov.n	a10, a2
    9abc:	08a0c2        	movi	a12, 8
    9abf:	fea5a5        	excw
    9ac2:	81b8      	l32i.n	a11, a1, 32
    9ac4:	02ad      	mov.n	a10, a2
    9ac6:	022bb2        	l32i	a11, a11, 8
    9ac9:	ff4a65        	excw
    9acc:	e822c2        	l32i	a12, a2, 0x3a0
    9acf:	02ad      	mov.n	a10, a2
    9ad1:	3cb8      	l32i.n	a11, a12, 12
    9ad3:	100cc2        	l8ui	a12, a12, 16
    9ad6:	fea425        	excw
    9ad9:	81b8      	l32i.n	a11, a1, 32
    9adb:	02ad      	mov.n	a10, a2
    9add:	1c0c      	movi.n	a12, 1
    9adf:	3bb8      	l32i.n	a11, a11, 12
    9ae1:	fea365        	excw
    9ae4:	81c8      	l32i.n	a12, a1, 32
    9ae6:	3cc8      	l32i.n	a12, a12, 12
    9ae8:	1c0c16        	beqz	a12, 0x9cac
    9aeb:	20a220        	or	a10, a2, a2
    9aee:	fe9a25        	excw
    9af1:	0b0c      	movi.n	a11, 0
    9af3:	0a0c      	movi.n	a10, 0
    9af5:	0c0c      	movi.n	a12, 0
    9af7:	5d0c      	movi.n	a13, 5
    9af9:	00ea65        	excw
    9afc:	090c      	movi.n	a9, 0
    9afe:	da4792        	s8i	a9, a7, 218
    9b01:	1b27d2        	l32i	a13, a7, 108
    9b04:	066d16        	beqz	a13, 0x9b6e
    9b07:	02aef1        	l32r	a15, 0xfffca5c0
    9b0a:	d2e8      	l32i.n	a14, a2, 52
    9b0c:	02ad      	mov.n	a10, a2
    9b0e:	ad2ff2        	l32i	a15, a15, 0x2b4
    9b11:	cee8      	l32i.n	a14, a14, 48
    9b13:	eb2c      	movi.n	a11, 46
    9b15:	8c0c      	movi.n	a12, 8
    9b17:	80eef0        	add	a14, a14, a15
    9b1a:	1c67e2        	s32i	a14, a7, 112
    9b1d:	fe9fa5        	excw
    9b20:	16b357        	bgeu	a3, a5, 0x9b3a
    9b23:	206550        	or	a6, a5, a5
    9b26:	02ad      	mov.n	a10, a2
    9b28:	ffa0b2        	movi	a11, 255
    9b2b:	8c0c      	movi.n	a12, 8
    9b2d:	fe9ea5        	excw
    9b30:	664a      	add.n	a6, a6, a4
    9b32:	f03367        	bltu	a3, a6, 0x9b26
    9b35:	0000c6        	j	0x9b3c
    9b38:	6d0000        	excw
    9b3b:	06bd05        	call0	0x1070c
    9b3e:	02ad      	mov.n	a10, a2
    9b40:	08a0c2        	movi	a12, 8
    9b43:	fe9d65        	excw
    9b46:	030c      	movi.n	a3, 0
    9b48:	d58c      	beqz.n	a5, 0x9b59
    9b4a:	02ad      	mov.n	a10, a2
    9b4c:	ffa0b2        	movi	a11, 255
    9b4f:	8c0c      	movi.n	a12, 8
    9b51:	fe9c65        	excw
    9b54:	331b      	addi.n	a3, a3, 1
    9b56:	f09357        	bne	a3, a5, 0x9b4a
    9b59:	02ad      	mov.n	a10, a2
    9b5b:	fe9365        	excw
    9b5e:	0b0c      	movi.n	a11, 0
    9b60:	0a0c      	movi.n	a10, 0
    9b62:	0c0c      	movi.n	a12, 0
    9b64:	5d0c      	movi.n	a13, 5
    9b66:	00e3a5        	excw
    9b69:	080c      	movi.n	a8, 0
    9b6b:	da4782        	s8i	a8, a7, 218
    9b6e:	1a0c      	movi.n	a10, 1
    9b70:	0b0c      	movi.n	a11, 0
    9b72:	fea865        	excw
    9b75:	0b0c      	movi.n	a11, 0
    9b77:	0a0c      	movi.n	a10, 0
    9b79:	0c0c      	movi.n	a12, 0
    9b7b:	5d0c      	movi.n	a13, 5
    9b7d:	00e225        	excw
    9b80:	f01d      	excw
    9b82:	000000        	ill
    9b85:	025cf6        	bgeui	a12, 5, 0x9b8b
    9b88:	623cf6        	bgeui	a12, 3, 0x9bee
    9b8b:	057cf6        	bgeui	a12, 7, 0x9b94
    9b8e:	025cb6        	bltui	a12, 5, 0x9b94
    9b91:	0022c6        	j	0x9c20
    9b94:	567c26        	beqi	a12, 7, 0x9bee
    9b97:	028c66        	bnei	a12, 8, 0x9b9d
    9b9a:	002086        	j	0x9c20
    9b9d:	01c8      	l32i.n	a12, a1, 0
    9b9f:	b69c56        	bnez	a12, 0x970c
    9ba2:	fee246        	j	0x972f
    9ba5:	0a0c      	movi.n	a10, 0
    9ba7:	fece52        	addi	a5, a14, -2
    9baa:	023357        	bltu	a3, a5, 0x9bb0
    9bad:	ff08c6        	j	0x97d4
    9bb0:	ff0046        	j	0x97b5
    9bb3:	050c00        	extui	a0, a0, 28, 1
    9bb6:	ff0686        	j	0x97d4
    9bb9:	0259f6        	bgeui	a9, 5, 0x9bbf
    9bbc:	6c39f6        	bgeui	a9, 3, 0x9c2c
    9bbf:	0279f6        	bgeui	a9, 7, 0x9bc5
    9bc2:	6b59f6        	bgeui	a9, 5, 0x9c31
    9bc5:	637926        	beqi	a9, 7, 0x9c2c
    9bc8:	658926        	beqi	a9, 8, 0x9c31
    9bcb:	1198      	l32i.n	a9, a1, 4
    9bcd:	d33956        	bnez	a9, 0x9904
    9bd0:	ffa906        	j	0x9a78
    9bd3:	090c00        	excw
    9bd6:	5199      	s32i.n	a9, a1, 20
    9bd8:	fed686        	j	0x9736
    9bdb:	ba1b00        	excw
    9bde:	022bf6        	bgeui	a11, 2, 0x9be4
    9be1:	fefbc6        	j	0x97d4
    9be4:	0c0c      	movi.n	a12, 0
    9be6:	fef906        	j	0x97ce
    9be9:	093c      	movi.n	a9, 48
    9beb:	fec306        	j	0x96fb
    9bee:	2c0c      	movi.n	a12, 2
    9bf0:	fec606        	j	0x970c
    9bf3:	ad0000        	excw
    9bf6:	8c1c02        	l16ui	a0, a12, 0x118
    9bf9:	fe91e5        	excw
    9bfc:	41b8      	l32i.n	a11, a1, 16
    9bfe:	02ad      	mov.n	a10, a2
    9c00:	8c1c      	movi.n	a12, 24
    9c02:	232bb2        	l32i	a11, a11, 140
    9c05:	fe9125        	excw
    9c08:	ff1906        	j	0x9870
    9c0b:	ad0000        	excw
    9c0e:	8c1c02        	l16ui	a0, a12, 0x118
    9c11:	fe9065        	excw
    9c14:	02ad      	mov.n	a10, a2
    9c16:	26b8      	l32i.n	a11, a6, 8
    9c18:	8c1c      	movi.n	a12, 24
    9c1a:	fe8fe5        	excw
    9c1d:	ff3146        	j	0x98e6
    9c20:	3c0c      	movi.n	a12, 3
    9c22:	feb986        	j	0x970c
    9c25:	30c992        	addi	a9, a9, 48
    9c28:	fea946        	j	0x96d1
    9c2b:	290c00        	excw
    9c2e:	ff3486        	j	0x9904
    9c31:	390c      	movi.n	a9, 3
    9c33:	ff3346        	j	0x9904
    9c36:	81b8      	l32i.n	a11, a1, 32
    9c38:	02ad      	mov.n	a10, a2
    9c3a:	9159      	s32i.n	a5, a1, 36
    9c3c:	4bb8      	l32i.n	a11, a11, 16
    9c3e:	ff3325        	excw
    9c41:	e822c2        	l32i	a12, a2, 0x3a0
    9c44:	4cc8      	l32i.n	a12, a12, 16
    9c46:	8148      	l32i.n	a4, a1, 32
    9c48:	050c      	movi.n	a5, 0
    9c4a:	803c30        	add	a3, a12, a3
    9c4d:	02ad      	mov.n	a10, a2
    9c4f:	54b8      	l32i.n	a11, a4, 20
    9c51:	ff34a5        	excw
    9c54:	e822d2        	l32i	a13, a2, 0x3a0
    9c57:	4dd8      	l32i.n	a13, a13, 16
    9c59:	02ad      	mov.n	a10, a2
    9c5b:	0824b2        	l32i	a11, a4, 32
    9c5e:	803d30        	add	a3, a13, a3
    9c61:	ff33a5        	excw
    9c64:	e822e2        	l32i	a14, a2, 0x3a0
    9c67:	4ee8      	l32i.n	a14, a14, 16
    9c69:	02ad      	mov.n	a10, a2
    9c6b:	0b24b2        	l32i	a11, a4, 44
    9c6e:	803e30        	add	a3, a14, a3
    9c71:	ff32a5        	excw
    9c74:	e822f2        	l32i	a15, a2, 0x3a0
    9c77:	4ff8      	l32i.n	a15, a15, 16
    9c79:	02ad      	mov.n	a10, a2
    9c7b:	0e24b2        	l32i	a11, a4, 56
    9c7e:	803f30        	add	a3, a15, a3
    9c81:	ff31a5        	excw
    9c84:	e82292        	l32i	a9, a2, 0x3a0
    9c87:	8188      	l32i.n	a8, a1, 32
    9c89:	444b      	addi.n	a4, a4, 4
    9c8b:	4998      	l32i.n	a9, a9, 16
    9c8d:	4888      	l32i.n	a8, a8, 16
    9c8f:	551b      	addi.n	a5, a5, 1
    9c91:	393a      	add.n	a3, a9, a3
    9c93:	b6b857        	bgeu	a8, a5, 0x9c4d
    9c96:	81b8      	l32i.n	a11, a1, 32
    9c98:	02ad      	mov.n	a10, a2
    9c9a:	112bb2        	l32i	a11, a11, 68
    9c9d:	ff2d25        	excw
    9ca0:	e822c2        	l32i	a12, a2, 0x3a0
    9ca3:	4cc8      	l32i.n	a12, a12, 16
    9ca5:	9158      	l32i.n	a5, a1, 36
    9ca7:	3c3a      	add.n	a3, a12, a3
    9ca9:	fea946        	j	0x9752
    9cac:	81b8      	l32i.n	a11, a1, 32
    9cae:	02ad      	mov.n	a10, a2
    9cb0:	4bb8      	l32i.n	a11, a11, 16
    9cb2:	ff2be5        	excw
    9cb5:	e822c2        	l32i	a12, a2, 0x3a0
    9cb8:	02ad      	mov.n	a10, a2
    9cba:	3cb8      	l32i.n	a11, a12, 12
    9cbc:	100cc2        	l8ui	a12, a12, 16
    9cbf:	fe85a5        	excw
    9cc2:	8168      	l32i.n	a6, a1, 32
    9cc4:	0d0c      	movi.n	a13, 0
    9cc6:	0761d2        	s32i	a13, a1, 28
    9cc9:	02ad      	mov.n	a10, a2
    9ccb:	56b8      	l32i.n	a11, a6, 20
    9ccd:	ff2ce5        	excw
    9cd0:	e822c2        	l32i	a12, a2, 0x3a0
    9cd3:	02ad      	mov.n	a10, a2
    9cd5:	3cb8      	l32i.n	a11, a12, 12
    9cd7:	100cc2        	l8ui	a12, a12, 16
    9cda:	fe83e5        	excw
    9cdd:	02ad      	mov.n	a10, a2
    9cdf:	86b8      	l32i.n	a11, a6, 32
    9ce1:	ff2ba5        	excw
    9ce4:	e822c2        	l32i	a12, a2, 0x3a0
    9ce7:	02ad      	mov.n	a10, a2
    9ce9:	3cb8      	l32i.n	a11, a12, 12
    9ceb:	100cc2        	l8ui	a12, a12, 16
    9cee:	fe82a5        	excw
    9cf1:	02ad      	mov.n	a10, a2
    9cf3:	b6b8      	l32i.n	a11, a6, 44
    9cf5:	ff2a65        	excw
    9cf8:	e822c2        	l32i	a12, a2, 0x3a0
    9cfb:	02ad      	mov.n	a10, a2
    9cfd:	3cb8      	l32i.n	a11, a12, 12
    9cff:	100cc2        	l8ui	a12, a12, 16
    9d02:	fe8165        	excw
    9d05:	02ad      	mov.n	a10, a2
    9d07:	e6b8      	l32i.n	a11, a6, 56
    9d09:	ff2925        	excw
    9d0c:	e822c2        	l32i	a12, a2, 0x3a0
    9d0f:	02ad      	mov.n	a10, a2
    9d11:	3cb8      	l32i.n	a11, a12, 12
    9d13:	100cc2        	l8ui	a12, a12, 16
    9d16:	fe8025        	excw
    9d19:	81d8      	l32i.n	a13, a1, 32
    9d1b:	71e8      	l32i.n	a14, a1, 28
    9d1d:	664b      	addi.n	a6, a6, 4
    9d1f:	4dd8      	l32i.n	a13, a13, 16
    9d21:	ee1b      	addi.n	a14, a14, 1
    9d23:	0761e2        	s32i	a14, a1, 28
    9d26:	9fbde7        	bgeu	a13, a14, 0x9cc9
    9d29:	81b8      	l32i.n	a11, a1, 32
    9d2b:	20a220        	or	a10, a2, a2
    9d2e:	112bb2        	l32i	a11, a11, 68
    9d31:	ff23e5        	excw
    9d34:	e822c2        	l32i	a12, a2, 0x3a0
    9d37:	02ad      	mov.n	a10, a2
    9d39:	3cb8      	l32i.n	a11, a12, 12
    9d3b:	100cc2        	l8ui	a12, a12, 16
    9d3e:	fe7da5        	excw
    9d41:	ff6986        	j	0x9aeb
    9d44:	004136        	excw
    9d47:	430c      	movi.n	a3, 4
    9d49:	380c      	movi.n	a8, 3
    9d4b:	290c      	movi.n	a9, 2
    9d4d:	0a0c      	movi.n	a10, 0
    9d4f:	17d242        	addmi	a4, a2, 0x1700
    9d52:	382442        	l32i	a4, a4, 224
    9d55:	296482        	s32i	a8, a4, 164
    9d58:	2a6432        	s32i	a3, a4, 168
    9d5b:	286492        	s32i	a9, a4, 160
    9d5e:	2264a2        	s32i	a10, a4, 136
    9d61:	2364a2        	s32i	a10, a4, 140
    9d64:	14a9      	s32i.n	a10, a4, 4
    9d66:	84a9      	s32i.n	a10, a4, 32
    9d68:	94a9      	s32i.n	a10, a4, 36
    9d6a:	2464a2        	s32i	a10, a4, 144
    9d6d:	f01d      	excw
    9d6f:	413600        	srli	a3, a0, 6
    9d72:	0b0c00        	excw
    9d75:	09a1a2        	movi	a10, 0x109
    9d78:	8c2c      	movi.n	a12, 40
    9d7a:	01a0d2        	movi	a13, 1
    9d7d:	00c225        	excw
    9d80:	17d292        	addmi	a9, a2, 0x1700
    9d83:	382992        	l32i	a9, a9, 224
    9d86:	252992        	l32i	a9, a9, 148
    9d89:	583926        	beqi	a9, 3, 0x9de5
    9d8c:	1c2926        	beqi	a9, 2, 0x9dac
    9d8f:	29bc      	beqz.n	a9, 0x9dc5
    9d91:	0b0c      	movi.n	a11, 0
    9d93:	2a0c      	movi.n	a10, 2
    9d95:	3c0c      	movi.n	a12, 3
    9d97:	01a0d2        	movi	a13, 1
    9d9a:	00c065        	excw
    9d9d:	0b0c      	movi.n	a11, 0
    9d9f:	0a0c      	movi.n	a10, 0
    9da1:	0c0c      	movi.n	a12, 0
    9da3:	5d0c      	movi.n	a13, 5
    9da5:	00bfa5        	excw
    9da8:	f01d      	excw
    9daa:	a20000        	excw
    9dad:	a81ed2        	l16ui	a13, a14, 0x150
    9db0:	acfa      	add.n	a10, a12, a15
    9db2:	0c0a      	add.n	a0, a12, a0
    9db4:	0c0b      	addi.n	a0, a12, -1
    9db6:	c21a      	add.n	a12, a2, a1
    9db8:	d203a0        	excw
    9dbb:	2501a0        	extui	a0, a10, 17, 3
    9dbe:	be          	.byte 0xbe
    9dbf:	f64600        	excw
    9dc2:	ff          	.byte 0xff
    9dc3:	0c0000        	excw
    9dc6:	0c0b      	addi.n	a0, a12, -1
    9dc8:	0c1a      	add.n	a0, a12, a1
    9dca:	0c3c      	movi.n	a12, 48
    9dcc:	251d      	excw
    9dce:	00bd      	mov.n	a11, a0
    9dd0:	fff246        	j	0x9d9d
    9dd3:	0c0000        	excw
    9dd6:	0c0b      	addi.n	a0, a12, -1
    9dd8:	0c0a      	add.n	a0, a12, a0
    9dda:	0c3c      	movi.n	a12, 48
    9ddc:	251d      	excw
    9dde:	00bc      	beqz.n	a0, 0x9e12
    9de0:	ffee46        	j	0x9d9d
    9de3:	0c0000        	excw
    9de6:	0c0b      	addi.n	a0, a12, -1
    9de8:	0c0a      	add.n	a0, a12, a0
    9dea:	0c3c      	movi.n	a12, 48
    9dec:	251d      	excw
    9dee:	00bb      	addi.n	a0, a0, 11
    9df0:	ffea46        	j	0x9d9d
    9df3:	413600        	srli	a3, a0, 6
    9df6:	0b0c00        	excw
    9df9:	0ca1a2        	movi	a10, 0x10c
    9dfc:	28a0c2        	movi	a12, 40
    9dff:	01a0d2        	movi	a13, 1
    9e02:	00b9e5        	excw
    9e05:	0b0c      	movi.n	a11, 0
    9e07:	fa7c      	movi.n	a10, -1
    9e09:	8c1c      	movi.n	a12, 24
    9e0b:	01a0d2        	movi	a13, 1
    9e0e:	00b925        	excw
    9e11:	040c      	movi.n	a4, 0
    9e13:	b39c      	beqz.n	a3, 0x9e32
    9e15:	0b0c      	movi.n	a11, 0
    9e17:	fa7c      	movi.n	a10, -1
    9e19:	20a0c2        	movi	a12, 32
    9e1c:	01a0d2        	movi	a13, 1
    9e1f:	00b825        	excw
    9e22:	0b0c      	movi.n	a11, 0
    9e24:	fa7c      	movi.n	a10, -1
    9e26:	0c2c      	movi.n	a12, 32
    9e28:	1d0c      	movi.n	a13, 1
    9e2a:	00b765        	excw
    9e2d:	441b      	addi.n	a4, a4, 1
    9e2f:	e29437        	bne	a4, a3, 0x9e15
    9e32:	0b0c      	movi.n	a11, 0
    9e34:	fa7c      	movi.n	a10, -1
    9e36:	0c2c      	movi.n	a12, 32
    9e38:	1d0c      	movi.n	a13, 1
    9e3a:	00b665        	excw
    9e3d:	0b0c      	movi.n	a11, 0
    9e3f:	80afa2        	movi	a10, -128
    9e42:	0c2c      	movi.n	a12, 32
    9e44:	1d0c      	movi.n	a13, 1
    9e46:	00b5a5        	excw
    9e49:	02ad      	mov.n	a10, a2
    9e4b:	0b0c      	movi.n	a11, 0
    9e4d:	00caa5        	excw
    9e50:	02ae21        	l32r	a2, 0xfffca908
    9e53:	ad2222        	l32i	a2, a2, 0x2b4
    9e56:	f01d      	excw
    9e58:	008136        	excw
    9e5b:	02cce1        	l32r	a14, 0xfffca98c
    9e5e:	02a9d1        	l32r	a13, 0xfffca904
    9e61:	4a0c      	movi.n	a10, 4
    9e63:	024e71        	l32r	a7, 0xfffca79c
    9e66:	d238      	l32i.n	a3, a2, 52
    9e68:	0c0c      	movi.n	a12, 0
    9e6a:	2367c2        	s32i	a12, a7, 140
    9e6d:	2467a2        	s32i	a10, a7, 144
    9e70:	802d92        	l32i	a9, a13, 0x200
    9e73:	14d262        	addmi	a6, a2, 0x1400
    9e76:	f826b2        	l32i	a11, a6, 0x3e0
    9e79:	2099e0        	or	a9, a9, a14
    9e7c:	806d92        	s32i	a9, a13, 0x200
    9e7f:	2b88      	l32i.n	a8, a11, 8
    9e81:	02ae41        	l32r	a4, 0xfffca93c
    9e84:	880b      	addi.n	a8, a8, -1
    9e86:	3ca816        	beqz	a8, 0xa254
    9e89:	5f6ba2        	s32i	a10, a11, 0x17c
    9e8c:	024af1        	l32r	a15, 0xfffca7b4
    9e8f:	102fb2        	l32i	a11, a15, 64
    9e92:	2c2382        	l32i	a8, a3, 176
    9e95:	029891        	l32r	a9, 0xfffca8f8
    9e98:	0348e1        	l32r	a14, 0xfffcabb8
    9e9b:	441816        	beqz	a8, 0xa2e0
    9e9e:	2139      	s32i.n	a3, a1, 8
    9ea0:	5c2282        	l32i	a8, a2, 0x170
    9ea3:	034931        	l32r	a3, 0xfffcabc8
    9ea6:	6888      	l32i.n	a8, a8, 24
    9ea8:	10bb30        	and	a11, a11, a3
    9eab:	2138      	l32i.n	a3, a1, 8
    9ead:	880b      	addi.n	a8, a8, -1
    9eaf:	3d9816        	beqz	a8, 0xa28c
    9eb2:	5388      	l32i.n	a8, a3, 20
    9eb4:	8789      	s32i.n	a8, a7, 32
    9eb6:	a358      	l32i.n	a5, a3, 40
    9eb8:	415350        	srli	a5, a5, 3
    9ebb:	136752        	s32i	a5, a7, 76
    9ebe:	1388      	l32i.n	a8, a3, 4
    9ec0:	095d      	mov.n	a5, a9
    9ec2:	935c80        	movnez	a5, a12, a8
    9ec5:	8388      	l32i.n	a8, a3, 32
    9ec7:	1088e0        	and	a8, a8, a14
    9eca:	208850        	or	a8, a8, a5
    9ecd:	1789      	s32i.n	a8, a7, 4
    9ecf:	1358      	l32i.n	a5, a3, 4
    9ed1:	8388      	l32i.n	a8, a3, 32
    9ed3:	015550        	slli	a5, a5, 27
    9ed6:	105590        	and	a5, a5, a9
    9ed9:	1088e0        	and	a8, a8, a14
    9edc:	208850        	or	a8, a8, a5
    9edf:	024e51        	l32r	a5, 0xfffca818
    9ee2:	0589      	s32i.n	a8, a5, 0
    9ee4:	b0a152        	movi	a5, 0x1b0
    9ee7:	205b50        	or	a5, a11, a5
    9eea:	106f52        	s32i	a5, a15, 64
    9eed:	034a51        	l32r	a5, 0xfffcac18
    9ef0:	0b0c      	movi.n	a11, 0
    9ef2:	525a      	add.n	a5, a2, a5
    9ef4:	8e05c2        	l8ui	a12, a5, 142
    9ef7:	01a092        	movi	a9, 1
    9efa:	00a0a2        	movi	a10, 0
    9efd:	feccc2        	addi	a12, a12, -2
    9f00:	83a9c0        	moveqz	a10, a9, a12
    9f03:	fe6f65        	excw
    9f06:	1c0c      	movi.n	a12, 1
    9f08:	b464c2        	s32i	a12, a4, 0x2d0
    9f0b:	1e25d2        	l32i	a13, a5, 120
    9f0e:	02a991        	l32r	a9, 0xfffca9b4
    9f11:	4b0c      	movi.n	a11, 4
    9f13:	41d4d0        	srli	a13, a13, 4
    9f16:	0b3d26        	beqi	a13, 3, 0x9f25
    9f19:	084d26        	beqi	a13, 4, 0x9f25
    9f1c:	1d25e2        	l32i	a14, a5, 116
    9f1f:	41e4e0        	srli	a14, a14, 4
    9f22:	026e66        	bnei	a14, 6, 0x9f28
    9f25:	2763c2        	s32i	a12, a3, 156
    9f28:	0f1c      	movi.n	a15, 16
    9f2a:	2d0c      	movi.n	a13, 2
    9f2c:	4129      	s32i.n	a2, a1, 16
    9f2e:	2723e2        	l32i	a14, a3, 156
    9f31:	5169      	s32i.n	a6, a1, 20
    9f33:	42a8      	l32i.n	a10, a2, 16
    9f35:	7eac      	beqz.n	a14, 0x9f60
    9f37:	8e0b      	addi.n	a8, a14, -1
    9f39:	3cf816        	beqz	a8, 0xa30c
    9f3c:	382e66        	bnei	a14, 2, 0x9f78
    9f3f:	8d1c      	movi.n	a13, 24
    9f41:	f826e2        	l32i	a14, a6, 0x3e0
    9f44:	4f1c      	movi.n	a15, 20
    9f46:	780c      	movi.n	a8, 7
    9f48:	4b6e82        	s32i	a8, a14, 0x12c
    9f4b:	4a6ef2        	s32i	a15, a14, 0x128
    9f4e:	4c6ed2        	s32i	a13, a14, 0x130
    9f51:	3f0c      	movi.n	a15, 3
    9f53:	556ef2        	s32i	a15, a14, 0x154
    9f56:	6f0c      	movi.n	a15, 6
    9f58:	546ef2        	s32i	a15, a14, 0x150
    9f5b:	000646        	j	0x9f78
    9f5e:	e20000        	excw
    9f61:	82f826        	beqi	a8, 0x100, 0x9ee7
    9f64:	f214a0        	excw
    9f67:	6e          	.byte 0x6e
    9f68:	d24a      	add.n	a13, a2, a4
    9f6a:	6e          	.byte 0x6e
    9f6b:	6eb255        	excw
    9f6e:	6e8254        	excw
    9f71:	824c      	movi.n	a2, 72
    9f73:	8205a0        	mull	a0, a5, a10
    9f76:	6e          	.byte 0x6e
    9f77:	d24b      	addi.n	a13, a2, 4
    9f79:	e8f826        	beqi	a8, 0x100, 0x9f65
    9f7c:	317902        	excw
    9f7f:	4c2dc2        	l32i	a12, a13, 0x130
    9f82:	5278      	l32i.n	a7, a2, 20
    9f84:	542d82        	l32i	a8, a13, 0x150
    9f87:	11ccf0        	slli	a12, a12, 1
    9f8a:	4d6dc2        	s32i	a12, a13, 0x134
    9f8d:	8e0562        	l8ui	a6, a5, 142
    9f90:	1c2522        	l32i	a2, a5, 112
    9f93:	786582        	s32i	a8, a5, 0x1e0
    9f96:	fcc6c2        	addi	a12, a6, -4
    9f99:	280c      	movi.n	a8, 2
    9f9b:	346060        	extui	a6, a6, 0, 4
    9f9e:	8368c0        	moveqz	a6, a8, a12
    9fa1:	034b81        	l32r	a8, 0xfffcacd0
    9fa4:	112280        	slli	a2, a2, 8
    9fa7:	102280        	and	a2, a2, a8
    9faa:	1b2582        	l32i	a8, a5, 108
    9fad:	01d9      	s32i.n	a13, a1, 0
    9faf:	f0a0c2        	movi	a12, 240
    9fb2:	1188c0        	slli	a8, a8, 4
    9fb5:	1088c0        	and	a8, a8, a12
    9fb8:	206680        	or	a6, a6, a8
    9fbb:	202260        	or	a2, a2, a6
    9fbe:	f46922        	s32i	a2, a9, 0x3d0
    9fc1:	102af2        	l32i	a15, a10, 64
    9fc4:	02cb21        	l32r	a2, 0xfffcaaf0
    9fc7:	1c0c      	movi.n	a12, 1
    9fc9:	01ff80        	slli	a15, a15, 24
    9fcc:	10ff20        	and	a15, a15, a2
    9fcf:	4328      	l32i.n	a2, a3, 16
    9fd1:	031061        	l32r	a6, 0xfffcac14
    9fd4:	c7d8      	l32i.n	a13, a7, 48
    9fd6:	112200        	slli	a2, a2, 16
    9fd9:	102260        	and	a2, a2, a6
    9fdc:	112a62        	l32i	a6, a10, 68
    9fdf:	034c81        	l32r	a8, 0xfffcad10
    9fe2:	01dd50        	slli	a13, a13, 27
    9fe5:	016670        	slli	a6, a6, 25
    9fe8:	106680        	and	a6, a6, a8
    9feb:	029881        	l32r	a8, 0xfffcaa4c
    9fee:	20cc20        	or	a12, a12, a2
    9ff1:	20ccf0        	or	a12, a12, a15
    9ff4:	10dd80        	and	a13, a13, a8
    9ff7:	20dd60        	or	a13, a13, a6
    9ffa:	20ccd0        	or	a12, a12, a13
    9ffd:	f569c2        	s32i	a12, a9, 0x3d4
    a000:	0e88      	l32i.n	a8, a14, 0
    a002:	290c      	movi.n	a9, 2
    a004:	1188f0        	slli	a8, a8, 1
    a007:	108890        	and	a8, a8, a9
    a00a:	2088b0        	or	a8, a8, a11
    a00d:	606482        	s32i	a8, a4, 0x180
    a010:	0768      	l32i.n	a6, a7, 0
    a012:	02bdf1        	l32r	a15, 0xfffcab08
    a015:	f42060        	extui	a2, a6, 0, 16
    a018:	356060        	extui	a6, a6, 16, 4
    a01b:	116600        	slli	a6, a6, 16
    a01e:	1066f0        	and	a6, a6, a15
    a021:	202260        	or	a2, a2, a6
    a024:	656422        	s32i	a2, a4, 0x194
    a027:	17c8      	l32i.n	a12, a7, 4
    a029:	820c      	movi.n	a2, 8
    a02b:	35d0c0        	extui	a13, a12, 16, 4
    a02e:	11dd00        	slli	a13, a13, 16
    a031:	f4c0c0        	extui	a12, a12, 0, 16
    a034:	10ddf0        	and	a13, a13, a15
    a037:	20ccd0        	or	a12, a12, a13
    a03a:	6664c2        	s32i	a12, a4, 0x198
    a03d:	034dc1        	l32r	a12, 0xfffcad74
    a040:	fa88      	l32i.n	a8, a10, 60
    a042:	0a68      	l32i.n	a6, a10, 0
    a044:	2d23d2        	l32i	a13, a3, 180
    a047:	4af8      	l32i.n	a15, a10, 16
    a049:	0166c0        	slli	a6, a6, 20
    a04c:	04d0d0        	extui	a13, a13, 0, 1
    a04f:	11fff0        	slli	a15, a15, 1
    a052:	0188f0        	slli	a8, a8, 17
    a055:	1088c0        	and	a8, a8, a12
    a058:	10ff90        	and	a15, a15, a9
    a05b:	024bc1        	l32r	a12, 0xfffca988
    a05e:	20ddf0        	or	a13, a13, a15
    a061:	024cf1        	l32r	a15, 0xfffca994
    a064:	1066c0        	and	a6, a6, a12
    a067:	eac8      	l32i.n	a12, a10, 56
    a069:	206680        	or	a6, a6, a8
    a06c:	3a88      	l32i.n	a8, a10, 12
    a06e:	11cc00        	slli	a12, a12, 16
    a071:	10ccf0        	and	a12, a12, a15
    a074:	1188d0        	slli	a8, a8, 3
    a077:	108820        	and	a8, a8, a2
    a07a:	2088c0        	or	a8, a8, a12
    a07d:	20dd80        	or	a13, a13, a8
    a080:	20dd60        	or	a13, a13, a6
    a083:	2064d2        	s32i	a13, a4, 128
    a086:	7ac8      	l32i.n	a12, a10, 28
    a088:	6a88      	l32i.n	a8, a10, 24
    a08a:	11e9      	s32i.n	a14, a1, 4
    a08c:	08f8c3        	excw
    a08f:	216482        	s32i	a8, a4, 132
    a092:	122ad2        	l32i	a13, a10, 72
    a095:	132a62        	l32i	a6, a10, 76
    a098:	f0a082        	movi	a8, 240
    a09b:	34d0d0        	extui	a13, a13, 0, 4
    a09e:	1166c0        	slli	a6, a6, 4
    a0a1:	106680        	and	a6, a6, a8
    a0a4:	20dd60        	or	a13, a13, a6
    a0a7:	2264d2        	s32i	a13, a4, 136
    a0aa:	2ac8      	l32i.n	a12, a10, 8
    a0ac:	0d0c      	movi.n	a13, 0
    a0ae:	1a88      	l32i.n	a8, a10, 4
    a0b0:	0d6d      	mov.n	a6, a13
    a0b2:	8369c0        	moveqz	a6, a9, a12
    a0b5:	cac8      	l32i.n	a12, a10, 48
    a0b7:	83db80        	moveqz	a13, a11, a8
    a0ba:	081c      	movi.n	a8, 16
    a0bc:	11ccc0        	slli	a12, a12, 4
    a0bf:	10cc80        	and	a12, a12, a8
    a0c2:	20cc60        	or	a12, a12, a6
    a0c5:	20ccd0        	or	a12, a12, a13
    a0c8:	bad8      	l32i.n	a13, a10, 44
    a0ca:	1b0c      	movi.n	a11, 1
    a0cc:	0aa8      	l32i.n	a10, a10, 0
    a0ce:	11ddd0        	slli	a13, a13, 3
    a0d1:	10dd20        	and	a13, a13, a2
    a0d4:	11aab0        	slli	a10, a10, 5
    a0d7:	022c      	movi.n	a2, 32
    a0d9:	10aa20        	and	a10, a10, a2
    a0dc:	20aad0        	or	a10, a10, a13
    a0df:	20aac0        	or	a10, a10, a12
    a0e2:	4064a2        	s32i	a10, a4, 0x100
    a0e5:	b798      	l32i.n	a9, a7, 44
    a0e7:	034ea1        	l32r	a10, 0xfffcae20
    a0ea:	a788      	l32i.n	a8, a7, 40
    a0ec:	0199c0        	slli	a9, a9, 20
    a0ef:	1099a0        	and	a9, a9, a10
    a0f2:	034fa1        	l32r	a10, 0xfffcae30
    a0f5:	1c0c      	movi.n	a12, 1
    a0f7:	118880        	slli	a8, a8, 8
    a0fa:	1088a0        	and	a8, a8, a10
    a0fd:	0a0c      	movi.n	a10, 0
    a0ff:	208890        	or	a8, a8, a9
    a102:	416482        	s32i	a8, a4, 0x104
    a105:	02a991        	l32r	a9, 0xfffcabac
    a108:	80a082        	movi	a8, 128
    a10b:	3768      	l32i.n	a6, a7, 12
    a10d:	2728      	l32i.n	a2, a7, 8
    a10f:	074c      	movi.n	a7, 64
    a111:	116690        	slli	a6, a6, 7
    a114:	1122a0        	slli	a2, a2, 6
    a117:	102270        	and	a2, a2, a7
    a11a:	106680        	and	a6, a6, a8
    a11d:	3178      	l32i.n	a7, a1, 12
    a11f:	202260        	or	a2, a2, a6
    a122:	646422        	s32i	a2, a4, 0x190
    a125:	1ee8      	l32i.n	a14, a14, 4
    a127:	282322        	l32i	a2, a3, 160
    a12a:	660c      	movi.n	a6, 6
    a12c:	04e0e0        	extui	a14, a14, 0, 1
    a12f:	1122f0        	slli	a2, a2, 1
    a132:	102260        	and	a2, a2, a6
    a135:	20ee20        	or	a14, a14, a2
    a138:	a464e2        	s32i	a14, a4, 0x290
    a13b:	8e05d2        	l8ui	a13, a5, 142
    a13e:	5168      	l32i.n	a6, a1, 20
    a140:	4128      	l32i.n	a2, a1, 16
    a142:	fecdd2        	addi	a13, a13, -2
    a145:	121d16        	beqz	a13, 0xa26a
    a148:	f826d2        	l32i	a13, a6, 0x3e0
    a14b:	4f6da2        	s32i	a10, a13, 0x13c
    a14e:	02d8      	l32i.n	a13, a2, 0
    a150:	035081        	l32r	a8, 0xfffcae90
    a153:	4de8      	l32i.n	a14, a13, 16
    a155:	11bb00        	slli	a11, a11, 16
    a158:	10bbf0        	and	a11, a11, a15
    a15b:	11ee90        	slli	a14, a14, 7
    a15e:	10ee80        	and	a14, a14, a8
    a161:	20eeb0        	or	a14, a14, a11
    a164:	5d88      	l32i.n	a8, a13, 20
    a166:	3dd8      	l32i.n	a13, a13, 12
    a168:	7ca0b2        	movi	a11, 124
    a16b:	1188e0        	slli	a8, a8, 2
    a16e:	1088b0        	and	a8, a8, a11
    a171:	14d0d0        	extui	a13, a13, 0, 2
    a174:	f826b2        	l32i	a11, a6, 0x3e0
    a177:	20dd80        	or	a13, a13, a8
    a17a:	20dde0        	or	a13, a13, a14
    a17d:	8064d2        	s32i	a13, a4, 0x200
    a180:	abe8      	l32i.n	a14, a11, 40
    a182:	cb88      	l32i.n	a8, a11, 48
    a184:	030fd1        	l32r	a13, 0xfffcadc0
    a187:	74e0e0        	extui	a14, a14, 0, 8
    a18a:	118880        	slli	a8, a8, 8
    a18d:	1088d0        	and	a8, a8, a13
    a190:	20ee80        	or	a14, a14, a8
    a193:	0351d1        	l32r	a13, 0xfffcaed8
    a196:	f369e2        	s32i	a14, a9, 0x3cc
    a199:	102782        	l32i	a8, a7, 64
    a19c:	1223e2        	l32i	a14, a3, 72
    a19f:	1088d0        	and	a8, a8, a13
    a1a2:	1223d2        	l32i	a13, a3, 72
    a1a5:	44e0e0        	extui	a14, a14, 0, 5
    a1a8:	20ee80        	or	a14, a14, a8
    a1ab:	035281        	l32r	a8, 0xfffcaef4
    a1ae:	11dd80        	slli	a13, a13, 8
    a1b1:	10dd80        	and	a13, a13, a8
    a1b4:	20dde0        	or	a13, a13, a14
    a1b7:	1067d2        	s32i	a13, a7, 64
    a1ba:	ab88      	l32i.n	a8, a11, 40
    a1bc:	0578f6        	bgeui	a8, 7, 0xa1c5
    a1bf:	4e6bc2        	s32i	a12, a11, 0x138
    a1c2:	000086        	j	0xa1c8
    a1c5:	4e6ba2        	s32i	a10, a11, 0x138
    a1c8:	8e05c2        	l8ui	a12, a5, 142
    a1cb:	0356f1        	l32r	a15, 0xfffcaf24
    a1ce:	035581        	l32r	a8, 0xfffcaf24
    a1d1:	fcccc2        	addi	a12, a12, -4
    a1d4:	0a5c16        	beqz	a12, 0xa27d
    a1d7:	f826e2        	l32i	a14, a6, 0x3e0
    a1da:	0353d1        	l32r	a13, 0xfffcaf28
    a1dd:	4e2ee2        	l32i	a14, a14, 0x138
    a1e0:	0354b1        	l32r	a11, 0xfffcaf30
    a1e3:	ffcee2        	addi	a14, a14, -1
    a1e6:	83bde0        	moveqz	a11, a13, a14
    a1e9:	0358c1        	l32r	a12, 0xfffcaf4c
    a1ec:	0357e1        	l32r	a14, 0xfffcaf48
    a1ef:	ee69b2        	s32i	a11, a9, 0x3b8
    a1f2:	f86982        	s32i	a8, a9, 0x3e0
    a1f5:	f969f2        	s32i	a15, a9, 0x3e4
    a1f8:	fa69e2        	s32i	a14, a9, 0x3e8
    a1fb:	8e05d2        	l8ui	a13, a5, 142
    a1fe:	035981        	l32r	a8, 0xfffcaf64
    a201:	035ae1        	l32r	a14, 0xfffcaf6c
    a204:	fccdd2        	addi	a13, a13, -4
    a207:	838cd0        	moveqz	a8, a12, a13
    a20a:	035cc1        	l32r	a12, 0xfffcaf7c
    a20d:	fb6982        	s32i	a8, a9, 0x3ec
    a210:	8e05f2        	l8ui	a15, a5, 142
    a213:	035bd1        	l32r	a13, 0xfffcaf80
    a216:	035d81        	l32r	a8, 0xfffcaf8c
    a219:	fccff2        	addi	a15, a15, -4
    a21c:	83def0        	moveqz	a13, a14, a15
    a21f:	04d9f2        	addmi	a15, a9, 0x400
    a222:	035ee1        	l32r	a14, 0xfffcaf9c
    a225:	fc69d2        	s32i	a13, a9, 0x3f0
    a228:	fd69c2        	s32i	a12, a9, 0x3f4
    a22b:	035fd1        	l32r	a13, 0xfffcafa8
    a22e:	0360c1        	l32r	a12, 0xfffcafb0
    a231:	ff6982        	s32i	a8, a9, 0x3fc
    a234:	036181        	l32r	a8, 0xfffcafb8
    a237:	006fe2        	s32i	a14, a15, 0
    a23a:	8067d2        	s32i	a13, a7, 0x200
    a23d:	8167c2        	s32i	a12, a7, 0x204
    a240:	826782        	s32i	a8, a7, 0x208
    a243:	0464a2        	s32i	a10, a4, 16
    a246:	8e05f2        	l8ui	a15, a5, 142
    a249:	374f26        	beqi	a15, 4, 0xa284
    a24c:	02ad      	mov.n	a10, a2
    a24e:	000e25        	excw
    a251:	f01d      	excw
    a253:	239200        	excw
    a256:	990b27        	bnone	a11, a2, 0xa1f3
    a259:	c2c956        	bnez	a9, 0x9e89
    a25c:	5e2be2        	l32i	a14, a11, 0x178
    a25f:	c26e56        	bnez	a14, 0x9e89
    a262:	af0c      	movi.n	a15, 10
    a264:	5f6bf2        	s32i	a15, a11, 0x17c
    a267:	ff0846        	j	0x9e8c
    a26a:	1188      	l32i.n	a8, a1, 4
    a26c:	3888      	l32i.n	a8, a8, 12
    a26e:	880b      	addi.n	a8, a8, -1
    a270:	ed4816        	beqz	a8, 0xa148
    a273:	01b8      	l32i.n	a11, a1, 0
    a275:	4f6bc2        	s32i	a12, a11, 0x13c
    a278:	0b0c      	movi.n	a11, 0
    a27a:	ffb406        	j	0xa14e
    a27d:	0362b1        	l32r	a11, 0xfffcb008
    a280:	ffd946        	j	0xa1e9
    a283:	02ad00        	excw
    a286:	005ee5        	excw
    a289:	f01d      	excw
    a28b:	538800        	excw
    a28e:	7789      	s32i.n	a8, a7, 28
    a290:	a358      	l32i.n	a5, a3, 40
    a292:	415350        	srli	a5, a5, 3
    a295:	116752        	s32i	a5, a7, 68
    a298:	b388      	l32i.n	a8, a3, 44
    a29a:	418380        	srli	a8, a8, 3
    a29d:	126782        	s32i	a8, a7, 72
    a2a0:	1358      	l32i.n	a5, a3, 4
    a2a2:	8388      	l32i.n	a8, a3, 32
    a2a4:	015550        	slli	a5, a5, 27
    a2a7:	105590        	and	a5, a5, a9
    a2aa:	1088e0        	and	a8, a8, a14
    a2ad:	208850        	or	a8, a8, a5
    a2b0:	024e51        	l32r	a5, 0xfffcabe8
    a2b3:	0589      	s32i.n	a8, a5, 0
    a2b5:	7358      	l32i.n	a5, a3, 28
    a2b7:	8759      	s32i.n	a5, a7, 32
    a2b9:	d388      	l32i.n	a8, a3, 52
    a2bb:	418380        	srli	a8, a8, 3
    a2be:	136782        	s32i	a8, a7, 76
    a2c1:	2358      	l32i.n	a5, a3, 8
    a2c3:	9388      	l32i.n	a8, a3, 36
    a2c5:	015550        	slli	a5, a5, 27
    a2c8:	105590        	and	a5, a5, a9
    a2cb:	1088e0        	and	a8, a8, a14
    a2ce:	208850        	or	a8, a8, a5
    a2d1:	1789      	s32i.n	a8, a7, 4
    a2d3:	e0a452        	movi	a5, 0x4e0
    a2d6:	205b50        	or	a5, a11, a5
    a2d9:	106f52        	s32i	a5, a15, 64
    a2dc:	ff0346        	j	0x9eed
    a2df:	538800        	excw
    a2e2:	7789      	s32i.n	a8, a7, 28
    a2e4:	a3f8      	l32i.n	a15, a3, 40
    a2e6:	41f3f0        	srli	a15, a15, 3
    a2e9:	1167f2        	s32i	a15, a7, 68
    a2ec:	b3b8      	l32i.n	a11, a3, 44
    a2ee:	41b3b0        	srli	a11, a11, 3
    a2f1:	1267b2        	s32i	a11, a7, 72
    a2f4:	1388      	l32i.n	a8, a3, 4
    a2f6:	024ef1        	l32r	a15, 0xfffcac30
    a2f9:	83b8      	l32i.n	a11, a3, 32
    a2fb:	018850        	slli	a8, a8, 27
    a2fe:	108890        	and	a8, a8, a9
    a301:	10bbe0        	and	a11, a11, a14
    a304:	20bb80        	or	a11, a11, a8
    a307:	0fb9      	s32i.n	a11, a15, 0
    a309:	fef806        	j	0x9eed
    a30c:	f826f2        	l32i	a15, a6, 0x3e0
    a30f:	4e0c      	movi.n	a14, 4
    a311:	5f2f82        	l32i	a8, a15, 0x17c
    a314:	546fd2        	s32i	a13, a15, 0x150
    a317:	556fc2        	s32i	a12, a15, 0x154
    a31a:	90e8e0        	addx2	a14, a8, a14
    a31d:	4a6fe2        	s32i	a14, a15, 0x128
    a320:	8e0c      	movi.n	a14, 8
    a322:	9088e0        	addx2	a8, a8, a14
    a325:	4c6f82        	s32i	a8, a15, 0x130
    a328:	3e0c      	movi.n	a14, 3
    a32a:	4b6fe2        	s32i	a14, a15, 0x12c
    a32d:	ff11c6        	j	0x9f78
    a330:	00a136        	excw
    a333:	14d232        	addmi	a3, a2, 0x1400
    a336:	f82382        	l32i	a8, a3, 0x3e0
    a339:	0a0c      	movi.n	a10, 0
    a33b:	4b2852        	l32i	a5, a8, 0x12c
    a33e:	4c28f2        	l32i	a15, a8, 0x130
    a341:	51a9      	s32i.n	a10, a1, 20
    a343:	41a9      	s32i.n	a10, a1, 16
    a345:	162882        	l32i	a8, a8, 88
    a348:	8255f0        	mull	a5, a5, a15
    a34b:	11fff0        	slli	a15, a15, 1
    a34e:	1155b0        	slli	a5, a5, 5
    a351:	880b      	addi.n	a8, a8, -1
    a353:	453b      	addi.n	a4, a5, 3
    a355:	b34550        	movgez	a4, a5, a5
    a358:	214240        	srai	a4, a4, 2
    a35b:	402816        	beqz	a8, 0xa761
    a35e:	14c1c2        	addi	a12, a1, 20
    a361:	0d0c      	movi.n	a13, 0
    a363:	05ed      	mov.n	a14, a5
    a365:	290c      	movi.n	a9, 2
    a367:	0b0c      	movi.n	a11, 0
    a369:	01b9      	s32i.n	a11, a1, 0
    a36b:	1199      	s32i.n	a9, a1, 4
    a36d:	10c1b2        	addi	a11, a1, 16
    a370:	009ae5        	excw
    a373:	05ed      	mov.n	a14, a5
    a375:	3a0c      	movi.n	a10, 3
    a377:	10c1b2        	addi	a11, a1, 16
    a37a:	14c1c2        	addi	a12, a1, 20
    a37d:	0d0c      	movi.n	a13, 0
    a37f:	f823f2        	l32i	a15, a3, 0x3e0
    a382:	280c      	movi.n	a8, 2
    a384:	090c      	movi.n	a9, 0
    a386:	4c2ff2        	l32i	a15, a15, 0x130
    a389:	0199      	s32i.n	a9, a1, 0
    a38b:	1189      	s32i.n	a8, a1, 4
    a38d:	11fff0        	slli	a15, a15, 1
    a390:	0098e5        	excw
    a393:	1a0c      	movi.n	a10, 1
    a395:	10c1b2        	addi	a11, a1, 16
    a398:	14c1c2        	addi	a12, a1, 20
    a39b:	0d0c      	movi.n	a13, 0
    a39d:	04ed      	mov.n	a14, a4
    a39f:	f823f2        	l32i	a15, a3, 0x3e0
    a3a2:	380c      	movi.n	a8, 3
    a3a4:	090c      	movi.n	a9, 0
    a3a6:	4c2ff2        	l32i	a15, a15, 0x130
    a3a9:	0199      	s32i.n	a9, a1, 0
    a3ab:	1189      	s32i.n	a8, a1, 4
    a3ad:	009725        	excw
    a3b0:	4a0c      	movi.n	a10, 4
    a3b2:	10c1b2        	addi	a11, a1, 16
    a3b5:	14c1c2        	addi	a12, a1, 20
    a3b8:	0d0c      	movi.n	a13, 0
    a3ba:	04ed      	mov.n	a14, a4
    a3bc:	f823f2        	l32i	a15, a3, 0x3e0
    a3bf:	380c      	movi.n	a8, 3
    a3c1:	090c      	movi.n	a9, 0
    a3c3:	4c2ff2        	l32i	a15, a15, 0x130
    a3c6:	0199      	s32i.n	a9, a1, 0
    a3c8:	1189      	s32i.n	a8, a1, 4
    a3ca:	009565        	excw
    a3cd:	2a0c      	movi.n	a10, 2
    a3cf:	10c1b2        	addi	a11, a1, 16
    a3d2:	14c1c2        	addi	a12, a1, 20
    a3d5:	0d0c      	movi.n	a13, 0
    a3d7:	04ed      	mov.n	a14, a4
    a3d9:	f823f2        	l32i	a15, a3, 0x3e0
    a3dc:	380c      	movi.n	a8, 3
    a3de:	090c      	movi.n	a9, 0
    a3e0:	4c2ff2        	l32i	a15, a15, 0x130
    a3e3:	0199      	s32i.n	a9, a1, 0
    a3e5:	1189      	s32i.n	a8, a1, 4
    a3e7:	0093a5        	excw
    a3ea:	5a0c      	movi.n	a10, 5
    a3ec:	10c1b2        	addi	a11, a1, 16
    a3ef:	14c1c2        	addi	a12, a1, 20
    a3f2:	0d0c      	movi.n	a13, 0
    a3f4:	04ed      	mov.n	a14, a4
    a3f6:	f823f2        	l32i	a15, a3, 0x3e0
    a3f9:	380c      	movi.n	a8, 3
    a3fb:	090c      	movi.n	a9, 0
    a3fd:	4c2ff2        	l32i	a15, a15, 0x130
    a400:	0199      	s32i.n	a9, a1, 0
    a402:	1189      	s32i.n	a8, a1, 4
    a404:	0091a5        	excw
    a407:	4288      	l32i.n	a8, a2, 16
    a409:	0888      	l32i.n	a8, a8, 0
    a40b:	88bc      	beqz.n	a8, 0xa447
    a40d:	6a0c      	movi.n	a10, 6
    a40f:	10c1b2        	addi	a11, a1, 16
    a412:	14c1c2        	addi	a12, a1, 20
    a415:	0d0c      	movi.n	a13, 0
    a417:	04ed      	mov.n	a14, a4
    a419:	f823f2        	l32i	a15, a3, 0x3e0
    a41c:	080c      	movi.n	a8, 0
    a41e:	390c      	movi.n	a9, 3
    a420:	4c2ff2        	l32i	a15, a15, 0x130
    a423:	1199      	s32i.n	a9, a1, 4
    a425:	0189      	s32i.n	a8, a1, 0
    a427:	008fa5        	excw
    a42a:	04ed      	mov.n	a14, a4
    a42c:	7a0c      	movi.n	a10, 7
    a42e:	10c1b2        	addi	a11, a1, 16
    a431:	14c1c2        	addi	a12, a1, 20
    a434:	0d0c      	movi.n	a13, 0
    a436:	f823f2        	l32i	a15, a3, 0x3e0
    a439:	380c      	movi.n	a8, 3
    a43b:	090c      	movi.n	a9, 0
    a43d:	4c2ff2        	l32i	a15, a15, 0x130
    a440:	0199      	s32i.n	a9, a1, 0
    a442:	1189      	s32i.n	a8, a1, 4
    a444:	008da5        	excw
    a447:	f82382        	l32i	a8, a3, 0x3e0
    a44a:	2888      	l32i.n	a8, a8, 8
    a44c:	02ae61        	l32r	a6, 0xfffcaf04
    a44f:	385816        	beqz	a8, 0xa7d8
    a452:	10c1b2        	addi	a11, a1, 16
    a455:	14c1c2        	addi	a12, a1, 20
    a458:	0d0c      	movi.n	a13, 0
    a45a:	00a4e2        	movi	a14, 0x400
    a45d:	0f4c      	movi.n	a15, 64
    a45f:	490c      	movi.n	a9, 4
    a461:	0a0c      	movi.n	a10, 0
    a463:	01a9      	s32i.n	a10, a1, 0
    a465:	1199      	s32i.n	a9, a1, 4
    a467:	8a0c      	movi.n	a10, 8
    a469:	008b65        	excw
    a46c:	ea2c      	movi.n	a10, 46
    a46e:	0d0c      	movi.n	a13, 0
    a470:	00a1e2        	movi	a14, 0x100
    a473:	0f2c      	movi.n	a15, 32
    a475:	0c0c      	movi.n	a12, 0
    a477:	4b0c      	movi.n	a11, 4
    a479:	11b9      	s32i.n	a11, a1, 4
    a47b:	01c9      	s32i.n	a12, a1, 0
    a47d:	10c1b2        	addi	a11, a1, 16
    a480:	14c1c2        	addi	a12, a1, 20
    a483:	0089e5        	excw
    a486:	fa2c      	movi.n	a10, 47
    a488:	10c1b2        	addi	a11, a1, 16
    a48b:	14c1c2        	addi	a12, a1, 20
    a48e:	0f2c      	movi.n	a15, 32
    a490:	0e0c      	movi.n	a14, 0
    a492:	4d0c      	movi.n	a13, 4
    a494:	11d9      	s32i.n	a13, a1, 4
    a496:	01e9      	s32i.n	a14, a1, 0
    a498:	0d0c      	movi.n	a13, 0
    a49a:	00a1e2        	movi	a14, 0x100
    a49d:	008825        	excw
    a4a0:	f82382        	l32i	a8, a3, 0x3e0
    a4a3:	19d242        	addmi	a4, a2, 0x1900
    a4a6:	072c      	movi.n	a7, 32
    a4a8:	3c6872        	s32i	a7, a8, 240
    a4ab:	3b6872        	s32i	a7, a8, 236
    a4ae:	ee2472        	l32i	a7, a4, 0x3b8
    a4b1:	415470        	srli	a5, a7, 4
    a4b4:	07ad      	mov.n	a10, a7
    a4b6:	6159      	s32i.n	a5, a1, 24
    a4b8:	557b      	addi.n	a5, a5, 7
    a4ba:	415350        	srli	a5, a5, 3
    a4bd:	fa6452        	s32i	a5, a4, 0x3e8
    a4c0:	11b5d0        	slli	a11, a5, 3
    a4c3:	71b9      	s32i.n	a11, a1, 28
    a4c5:	015b65        	excw
    a4c8:	81a9      	s32i.n	a10, a1, 32
    a4ca:	fb64a2        	s32i	a10, a4, 0x3ec
    a4cd:	71b8      	l32i.n	a11, a1, 28
    a4cf:	41a170        	srli	a10, a7, 1
    a4d2:	015aa5        	excw
    a4d5:	a1a9      	s32i.n	a10, a1, 40
    a4d7:	fd64a2        	s32i	a10, a4, 0x3f4
    a4da:	05bd      	mov.n	a11, a5
    a4dc:	41a370        	srli	a10, a7, 3
    a4df:	0156a5        	excw
    a4e2:	a178      	l32i.n	a7, a1, 40
    a4e4:	61b8      	l32i.n	a11, a1, 24
    a4e6:	36aa16        	beqz	a10, 0xa854
    a4e9:	0acd      	mov.n	a12, a10
    a4eb:	fc64a2        	s32i	a10, a4, 0x3f0
    a4ee:	0bad      	mov.n	a10, a11
    a4f0:	91c9      	s32i.n	a12, a1, 36
    a4f2:	05bd      	mov.n	a11, a5
    a4f4:	015525        	excw
    a4f7:	81b8      	l32i.n	a11, a1, 32
    a4f9:	91c8      	l32i.n	a12, a1, 36
    a4fb:	366a16        	beqz	a10, 0xa865
    a4fe:	fe64a2        	s32i	a10, a4, 0x3f8
    a501:	480c      	movi.n	a8, 4
    a503:	090c      	movi.n	a9, 0
    a505:	f823d2        	l32i	a13, a3, 0x3e0
    a508:	07f5b3        	excw
    a50b:	0bf5c3        	excw
    a50e:	02a9b1        	l32r	a11, 0xfffcafb4
    a511:	14f573        	excw
    a514:	17f5a3        	excw
    a517:	1a1c      	movi.n	a10, 17
    a519:	176652        	s32i	a5, a6, 92
    a51c:	ef24f2        	l32i	a15, a4, 0x3bc
    a51f:	ee24c2        	l32i	a12, a4, 0x3b8
    a522:	3b2de2        	l32i	a14, a13, 236
    a525:	3c2dd2        	l32i	a13, a13, 240
    a528:	82ccf0        	mull	a12, a12, a15
    a52b:	11eef0        	slli	a14, a14, 1
    a52e:	41c8c0        	srli	a12, a12, 8
    a531:	10fce3        	excw
    a534:	18fcd3        	excw
    a537:	0d0c      	movi.n	a13, 0
    a539:	1166c2        	s32i	a12, a6, 68
    a53c:	c76ba2        	s32i	a10, a11, 0x31c
    a53f:	14c1c2        	addi	a12, a1, 20
    a542:	0a1c      	movi.n	a10, 16
    a544:	10c1b2        	addi	a11, a1, 16
    a547:	fa24f2        	l32i	a15, a4, 0x3e8
    a54a:	0199      	s32i.n	a9, a1, 0
    a54c:	1189      	s32i.n	a8, a1, 4
    a54e:	11ef80        	slli	a14, a15, 8
    a551:	11ffc0        	slli	a15, a15, 4
    a554:	007ca5        	excw
    a557:	1a1c      	movi.n	a10, 17
    a559:	10c1b2        	addi	a11, a1, 16
    a55c:	14c1c2        	addi	a12, a1, 20
    a55f:	0d0c      	movi.n	a13, 0
    a561:	480c      	movi.n	a8, 4
    a563:	fa24f2        	l32i	a15, a4, 0x3e8
    a566:	090c      	movi.n	a9, 0
    a568:	0199      	s32i.n	a9, a1, 0
    a56a:	1189      	s32i.n	a8, a1, 4
    a56c:	11efa0        	slli	a14, a15, 6
    a56f:	11ffd0        	slli	a15, a15, 3
    a572:	007ae5        	excw
    a575:	2a1c      	movi.n	a10, 18
    a577:	10c1b2        	addi	a11, a1, 16
    a57a:	14c1c2        	addi	a12, a1, 20
    a57d:	0d0c      	movi.n	a13, 0
    a57f:	480c      	movi.n	a8, 4
    a581:	fa24f2        	l32i	a15, a4, 0x3e8
    a584:	00a092        	movi	a9, 0
    a587:	006192        	s32i	a9, a1, 0
    a58a:	1189      	s32i.n	a8, a1, 4
    a58c:	11efa0        	slli	a14, a15, 6
    a58f:	11ffd0        	slli	a15, a15, 3
    a592:	0078e5        	excw
    a595:	14c1c2        	addi	a12, a1, 20
    a598:	0d0c      	movi.n	a13, 0
    a59a:	40a1e2        	movi	a14, 0x140
    a59d:	0f1c      	movi.n	a15, 16
    a59f:	0b0c      	movi.n	a11, 0
    a5a1:	5a0c      	movi.n	a10, 5
    a5a3:	11a9      	s32i.n	a10, a1, 4
    a5a5:	01b9      	s32i.n	a11, a1, 0
    a5a7:	ba0c      	movi.n	a10, 11
    a5a9:	10c1b2        	addi	a11, a1, 16
    a5ac:	007725        	excw
    a5af:	ca0c      	movi.n	a10, 12
    a5b1:	10c1b2        	addi	a11, a1, 16
    a5b4:	c0a0e2        	movi	a14, 192
    a5b7:	0f1c      	movi.n	a15, 16
    a5b9:	0d0c      	movi.n	a13, 0
    a5bb:	5c0c      	movi.n	a12, 5
    a5bd:	11c9      	s32i.n	a12, a1, 4
    a5bf:	01d9      	s32i.n	a13, a1, 0
    a5c1:	14c1c2        	addi	a12, a1, 20
    a5c4:	0d0c      	movi.n	a13, 0
    a5c6:	0075a5        	excw
    a5c9:	da0c      	movi.n	a10, 13
    a5cb:	10c1b2        	addi	a11, a1, 16
    a5ce:	14c1c2        	addi	a12, a1, 20
    a5d1:	0d0c      	movi.n	a13, 0
    a5d3:	0f1c      	movi.n	a15, 16
    a5d5:	f823e2        	l32i	a14, a3, 0x3e0
    a5d8:	680c      	movi.n	a8, 6
    a5da:	090c      	movi.n	a9, 0
    a5dc:	bee8      	l32i.n	a14, a14, 44
    a5de:	0199      	s32i.n	a9, a1, 0
    a5e0:	016182        	s32i	a8, a1, 4
    a5e3:	11eec0        	slli	a14, a14, 4
    a5e6:	20cee2        	addi	a14, a14, 32
    a5e9:	007365        	excw
    a5ec:	02f8      	l32i.n	a15, a2, 0
    a5ee:	3ff8      	l32i.n	a15, a15, 12
    a5f0:	1e1f26        	beqi	a15, 1, 0xa612
    a5f3:	ea0c      	movi.n	a10, 14
    a5f5:	10c1b2        	addi	a11, a1, 16
    a5f8:	14c1c2        	addi	a12, a1, 20
    a5fb:	0d0c      	movi.n	a13, 0
    a5fd:	0f1c      	movi.n	a15, 16
    a5ff:	f823e2        	l32i	a14, a3, 0x3e0
    a602:	680c      	movi.n	a8, 6
    a604:	090c      	movi.n	a9, 0
    a606:	bee8      	l32i.n	a14, a14, 44
    a608:	0199      	s32i.n	a9, a1, 0
    a60a:	1189      	s32i.n	a8, a1, 4
    a60c:	11eec0        	slli	a14, a14, 4
    a60f:	007125        	excw
    a612:	4a2c      	movi.n	a10, 36
    a614:	10c1b2        	addi	a11, a1, 16
    a617:	14c1c2        	addi	a12, a1, 20
    a61a:	3d0c      	movi.n	a13, 3
    a61c:	0e2c      	movi.n	a14, 32
    a61e:	080c      	movi.n	a8, 0
    a620:	6f0c      	movi.n	a15, 6
    a622:	11f9      	s32i.n	a15, a1, 4
    a624:	0189      	s32i.n	a8, a1, 0
    a626:	2f0c      	movi.n	a15, 2
    a628:	006f65        	excw
    a62b:	10c1b2        	addi	a11, a1, 16
    a62e:	14c1c2        	addi	a12, a1, 20
    a631:	3d0c      	movi.n	a13, 3
    a633:	8e0c      	movi.n	a14, 8
    a635:	1f0c      	movi.n	a15, 1
    a637:	690c      	movi.n	a9, 6
    a639:	0a0c      	movi.n	a10, 0
    a63b:	01a9      	s32i.n	a10, a1, 0
    a63d:	1199      	s32i.n	a9, a1, 4
    a63f:	5a2c      	movi.n	a10, 37
    a641:	006de5        	excw
    a644:	6a2c      	movi.n	a10, 38
    a646:	3d0c      	movi.n	a13, 3
    a648:	8e0c      	movi.n	a14, 8
    a64a:	1f0c      	movi.n	a15, 1
    a64c:	0c0c      	movi.n	a12, 0
    a64e:	6b0c      	movi.n	a11, 6
    a650:	11b9      	s32i.n	a11, a1, 4
    a652:	01c9      	s32i.n	a12, a1, 0
    a654:	10c1b2        	addi	a11, a1, 16
    a657:	14c1c2        	addi	a12, a1, 20
    a65a:	006c65        	excw
    a65d:	1a2c      	movi.n	a10, 33
    a65f:	10c1b2        	addi	a11, a1, 16
    a662:	14c1c2        	addi	a12, a1, 20
    a665:	1f0c      	movi.n	a15, 1
    a667:	0e0c      	movi.n	a14, 0
    a669:	6d0c      	movi.n	a13, 6
    a66b:	11d9      	s32i.n	a13, a1, 4
    a66d:	01e9      	s32i.n	a14, a1, 0
    a66f:	1d0c      	movi.n	a13, 1
    a671:	1e1c      	movi.n	a14, 17
    a673:	006ae5        	excw
    a676:	2a2c      	movi.n	a10, 34
    a678:	10c1b2        	addi	a11, a1, 16
    a67b:	14c1c2        	addi	a12, a1, 20
    a67e:	1d0c      	movi.n	a13, 1
    a680:	1e1c      	movi.n	a14, 17
    a682:	080c      	movi.n	a8, 0
    a684:	6f0c      	movi.n	a15, 6
    a686:	11f9      	s32i.n	a15, a1, 4
    a688:	0189      	s32i.n	a8, a1, 0
    a68a:	1f0c      	movi.n	a15, 1
    a68c:	006925        	excw
    a68f:	10c1b2        	addi	a11, a1, 16
    a692:	14c1c2        	addi	a12, a1, 20
    a695:	1d0c      	movi.n	a13, 1
    a697:	6ea0e2        	movi	a14, 110
    a69a:	1f0c      	movi.n	a15, 1
    a69c:	690c      	movi.n	a9, 6
    a69e:	0a0c      	movi.n	a10, 0
    a6a0:	01a9      	s32i.n	a10, a1, 0
    a6a2:	1199      	s32i.n	a9, a1, 4
    a6a4:	3a2c      	movi.n	a10, 35
    a6a6:	0067a5        	excw
    a6a9:	7a2c      	movi.n	a10, 39
    a6ab:	1d0c      	movi.n	a13, 1
    a6ad:	ae2c      	movi.n	a14, 42
    a6af:	1f0c      	movi.n	a15, 1
    a6b1:	0c0c      	movi.n	a12, 0
    a6b3:	6b0c      	movi.n	a11, 6
    a6b5:	11b9      	s32i.n	a11, a1, 4
    a6b7:	01c9      	s32i.n	a12, a1, 0
    a6b9:	10c1b2        	addi	a11, a1, 16
    a6bc:	14c1c2        	addi	a12, a1, 20
    a6bf:	006625        	excw
    a6c2:	8a2c      	movi.n	a10, 40
    a6c4:	10c1b2        	addi	a11, a1, 16
    a6c7:	14c1c2        	addi	a12, a1, 20
    a6ca:	1f0c      	movi.n	a15, 1
    a6cc:	1e0c      	movi.n	a14, 1
    a6ce:	6d0c      	movi.n	a13, 6
    a6d0:	11d9      	s32i.n	a13, a1, 4
    a6d2:	01e9      	s32i.n	a14, a1, 0
    a6d4:	0d0c      	movi.n	a13, 0
    a6d6:	62a0e2        	movi	a14, 98
    a6d9:	006465        	excw
    a6dc:	9a2c      	movi.n	a10, 41
    a6de:	10c1b2        	addi	a11, a1, 16
    a6e1:	14c1c2        	addi	a12, a1, 20
    a6e4:	0d0c      	movi.n	a13, 0
    a6e6:	0e4c      	movi.n	a14, 64
    a6e8:	080c      	movi.n	a8, 0
    a6ea:	6f0c      	movi.n	a15, 6
    a6ec:	11f9      	s32i.n	a15, a1, 4
    a6ee:	0189      	s32i.n	a8, a1, 0
    a6f0:	1f0c      	movi.n	a15, 1
    a6f2:	0062e5        	excw
    a6f5:	10c1b2        	addi	a11, a1, 16
    a6f8:	14c1c2        	addi	a12, a1, 20
    a6fb:	0d0c      	movi.n	a13, 0
    a6fd:	2e0c      	movi.n	a14, 2
    a6ff:	1f0c      	movi.n	a15, 1
    a701:	690c      	movi.n	a9, 6
    a703:	0a0c      	movi.n	a10, 0
    a705:	01a9      	s32i.n	a10, a1, 0
    a707:	1199      	s32i.n	a9, a1, 4
    a709:	aa2c      	movi.n	a10, 42
    a70b:	006165        	excw
    a70e:	f823b2        	l32i	a11, a3, 0x3e0
    a711:	2bb8      	l32i.n	a11, a11, 8
    a713:	11fb16        	beqz	a11, 0xa836
    a716:	ca2c      	movi.n	a10, 44
    a718:	10c1b2        	addi	a11, a1, 16
    a71b:	0e2c      	movi.n	a14, 32
    a71d:	1f0c      	movi.n	a15, 1
    a71f:	0d0c      	movi.n	a13, 0
    a721:	1c0c      	movi.n	a12, 1
    a723:	11c9      	s32i.n	a12, a1, 4
    a725:	01d9      	s32i.n	a13, a1, 0
    a727:	14c1c2        	addi	a12, a1, 20
    a72a:	00a0d2        	movi	a13, 0
    a72d:	005f25        	excw
    a730:	0a2c      	movi.n	a10, 32
    a732:	10c1b2        	addi	a11, a1, 16
    a735:	14c1c2        	addi	a12, a1, 20
    a738:	4d0c      	movi.n	a13, 4
    a73a:	1f0c      	movi.n	a15, 1
    a73c:	0e0c      	movi.n	a14, 0
    a73e:	01e9      	s32i.n	a14, a1, 0
    a740:	11e9      	s32i.n	a14, a1, 4
    a742:	7ca0e2        	movi	a14, 124
    a745:	005da5        	excw
    a748:	f82382        	l32i	a8, a3, 0x3e0
    a74b:	4c2892        	l32i	a9, a8, 0x130
    a74e:	4b2882        	l32i	a8, a8, 0x12c
    a751:	f5c9f2        	addi	a15, a9, -11
    a754:	08ff83        	excw
    a757:	10ff93        	excw
    a75a:	18ff83        	excw
    a75d:	26f9      	s32i.n	a15, a6, 8
    a75f:	f01d      	excw
    a761:	20e550        	or	a14, a5, a5
    a764:	14c1c2        	addi	a12, a1, 20
    a767:	0d0c      	movi.n	a13, 0
    a769:	290c      	movi.n	a9, 2
    a76b:	0b0c      	movi.n	a11, 0
    a76d:	01b9      	s32i.n	a11, a1, 0
    a76f:	1199      	s32i.n	a9, a1, 4
    a771:	10c1b2        	addi	a11, a1, 16
    a774:	005aa5        	excw
    a777:	1a0c      	movi.n	a10, 1
    a779:	10c1b2        	addi	a11, a1, 16
    a77c:	14c1c2        	addi	a12, a1, 20
    a77f:	0d0c      	movi.n	a13, 0
    a781:	04ed      	mov.n	a14, a4
    a783:	f823f2        	l32i	a15, a3, 0x3e0
    a786:	380c      	movi.n	a8, 3
    a788:	090c      	movi.n	a9, 0
    a78a:	4c2ff2        	l32i	a15, a15, 0x130
    a78d:	0199      	s32i.n	a9, a1, 0
    a78f:	1189      	s32i.n	a8, a1, 4
    a791:	0058e5        	excw
    a794:	2a0c      	movi.n	a10, 2
    a796:	10c1b2        	addi	a11, a1, 16
    a799:	14c1c2        	addi	a12, a1, 20
    a79c:	0d0c      	movi.n	a13, 0
    a79e:	04ed      	mov.n	a14, a4
    a7a0:	f823f2        	l32i	a15, a3, 0x3e0
    a7a3:	380c      	movi.n	a8, 3
    a7a5:	090c      	movi.n	a9, 0
    a7a7:	4c2ff2        	l32i	a15, a15, 0x130
    a7aa:	0199      	s32i.n	a9, a1, 0
    a7ac:	1189      	s32i.n	a8, a1, 4
    a7ae:	005725        	excw
    a7b1:	4288      	l32i.n	a8, a2, 16
    a7b3:	0888      	l32i.n	a8, a8, 0
    a7b5:	c8e816        	beqz	a8, 0xa447
    a7b8:	04ed      	mov.n	a14, a4
    a7ba:	6a0c      	movi.n	a10, 6
    a7bc:	10c1b2        	addi	a11, a1, 16
    a7bf:	14c1c2        	addi	a12, a1, 20
    a7c2:	0d0c      	movi.n	a13, 0
    a7c4:	f823f2        	l32i	a15, a3, 0x3e0
    a7c7:	080c      	movi.n	a8, 0
    a7c9:	390c      	movi.n	a9, 3
    a7cb:	4c2ff2        	l32i	a15, a15, 0x130
    a7ce:	1199      	s32i.n	a9, a1, 4
    a7d0:	0189      	s32i.n	a8, a1, 0
    a7d2:	0054e5        	excw
    a7d5:	ff1b86        	j	0xa447
    a7d8:	08a0a2        	movi	a10, 8
    a7db:	10c1b2        	addi	a11, a1, 16
    a7de:	14c1c2        	addi	a12, a1, 20
    a7e1:	0d0c      	movi.n	a13, 0
    a7e3:	00a2e2        	movi	a14, 0x200
    a7e6:	0f2c      	movi.n	a15, 32
    a7e8:	480c      	movi.n	a8, 4
    a7ea:	090c      	movi.n	a9, 0
    a7ec:	0199      	s32i.n	a9, a1, 0
    a7ee:	1189      	s32i.n	a8, a1, 4
    a7f0:	0052e5        	excw
    a7f3:	14c1c2        	addi	a12, a1, 20
    a7f6:	0d0c      	movi.n	a13, 0
    a7f8:	80a0e2        	movi	a14, 128
    a7fb:	0f1c      	movi.n	a15, 16
    a7fd:	0b0c      	movi.n	a11, 0
    a7ff:	4a0c      	movi.n	a10, 4
    a801:	11a9      	s32i.n	a10, a1, 4
    a803:	01b9      	s32i.n	a11, a1, 0
    a805:	2ea0a2        	movi	a10, 46
    a808:	10c1b2        	addi	a11, a1, 16
    a80b:	005165        	excw
    a80e:	fa2c      	movi.n	a10, 47
    a810:	10c1b2        	addi	a11, a1, 16
    a813:	80a0e2        	movi	a14, 128
    a816:	0f1c      	movi.n	a15, 16
    a818:	0d0c      	movi.n	a13, 0
    a81a:	4c0c      	movi.n	a12, 4
    a81c:	11c9      	s32i.n	a12, a1, 4
    a81e:	01d9      	s32i.n	a13, a1, 0
    a820:	14c1c2        	addi	a12, a1, 20
    a823:	0d0c      	movi.n	a13, 0
    a825:	004fa5        	excw
    a828:	f823f2        	l32i	a15, a3, 0x3e0
    a82b:	0e1c      	movi.n	a14, 16
    a82d:	3b6fe2        	s32i	a14, a15, 236
    a830:	3c6fe2        	s32i	a14, a15, 240
    a833:	ff5786        	j	0xa595
    a836:	ca2c      	movi.n	a10, 44
    a838:	10c1b2        	addi	a11, a1, 16
    a83b:	14c1c2        	addi	a12, a1, 20
    a83e:	0d0c      	movi.n	a13, 0
    a840:	20a1e2        	movi	a14, 0x120
    a843:	1f0c      	movi.n	a15, 1
    a845:	180c      	movi.n	a8, 1
    a847:	090c      	movi.n	a9, 0
    a849:	0199      	s32i.n	a9, a1, 0
    a84b:	1189      	s32i.n	a8, a1, 4
    a84d:	004d25        	excw
    a850:	ffb706        	j	0xa730
    a853:	81a800        	src	a10, a8, a0
    a856:	fc6452        	s32i	a5, a4, 0x3f0
    a859:	05cd      	mov.n	a12, a5
    a85b:	aa0b      	addi.n	a10, a10, -1
    a85d:	81a9      	s32i.n	a10, a1, 32
    a85f:	fb64a2        	s32i	a10, a4, 0x3ec
    a862:	ff2206        	j	0xa4ee
    a865:	fe6452        	s32i	a5, a4, 0x3f8
    a868:	05ad      	mov.n	a10, a5
    a86a:	770b      	addi.n	a7, a7, -1
    a86c:	fd6472        	s32i	a7, a4, 0x3f4
    a86f:	ff2386        	j	0xa501
    a872:	360000        	excw
    a875:	0c0081        	l32r	a8, 0xfffcd878
    a878:	b2da      	add.n	a11, a2, a13
    a87a:	c210c1        	l32r	a12, 0xffffb0bc
    a87d:	0c14c1        	l32r	a12, 0xfffcd8d0
    a880:	f108      	l32i.n	a0, a1, 60
    a882:	0c02b6        	bltui	a2, 0x8000, 0xa892
    a885:	d90d      	excw
    a887:	61d971        	l32r	a7, 0xfffe2fec
    a88a:	51d9      	s32i.n	a13, a1, 20
    a88c:	22fa      	add.n	a2, a2, a15
    a88e:	7f22e2        	l32i	a14, a2, 0x1fc
    a891:	6f0c      	movi.n	a15, 6
    a893:	41d9      	s32i.n	a13, a1, 16
    a895:	bee8      	l32i.n	a14, a14, 44
    a897:	11f9      	s32i.n	a15, a1, 4
    a899:	0189      	s32i.n	a8, a1, 0
    a89b:	0f1c      	movi.n	a15, 16
    a89d:	11eec0        	slli	a14, a14, 4
    a8a0:	20cee2        	addi	a14, a14, 32
    a8a3:	0047e5        	excw
    a8a6:	14c1c2        	addi	a12, a1, 20
    a8a9:	fd0c      	movi.n	a13, 15
    a8ab:	1e1c      	movi.n	a14, 17
    a8ad:	1f0c      	movi.n	a15, 1
    a8af:	680c      	movi.n	a8, 6
    a8b1:	090c      	movi.n	a9, 0
    a8b3:	51b8      	l32i.n	a11, a1, 20
    a8b5:	41a8      	l32i.n	a10, a1, 16
    a8b7:	61a9      	s32i.n	a10, a1, 24
    a8b9:	71b9      	s32i.n	a11, a1, 28
    a8bb:	2a0c      	movi.n	a10, 2
    a8bd:	10c1b2        	addi	a11, a1, 16
    a8c0:	0199      	s32i.n	a9, a1, 0
    a8c2:	1189      	s32i.n	a8, a1, 4
    a8c4:	0045a5        	excw
    a8c7:	4a0c      	movi.n	a10, 4
    a8c9:	18c1b2        	addi	a11, a1, 24
    a8cc:	10a1e2        	movi	a14, 0x110
    a8cf:	1f1c      	movi.n	a15, 17
    a8d1:	0d0c      	movi.n	a13, 0
    a8d3:	4c0c      	movi.n	a12, 4
    a8d5:	11c9      	s32i.n	a12, a1, 4
    a8d7:	01d9      	s32i.n	a13, a1, 0
    a8d9:	1cc1c2        	addi	a12, a1, 28
    a8dc:	1d0c      	movi.n	a13, 1
    a8de:	004425        	excw
    a8e1:	3a0c      	movi.n	a10, 3
    a8e3:	10c1b2        	addi	a11, a1, 16
    a8e6:	14c1c2        	addi	a12, a1, 20
    a8e9:	fd0c      	movi.n	a13, 15
    a8eb:	0f0c      	movi.n	a15, 0
    a8ed:	6e0c      	movi.n	a14, 6
    a8ef:	11e9      	s32i.n	a14, a1, 4
    a8f1:	01f9      	s32i.n	a15, a1, 0
    a8f3:	1e1c      	movi.n	a14, 17
    a8f5:	1f0c      	movi.n	a15, 1
    a8f7:	0042a5        	excw
    a8fa:	14c1c2        	addi	a12, a1, 20
    a8fd:	fd0c      	movi.n	a13, 15
    a8ff:	70a0e2        	movi	a14, 112
    a902:	1f0c      	movi.n	a15, 1
    a904:	680c      	movi.n	a8, 6
    a906:	090c      	movi.n	a9, 0
    a908:	51b8      	l32i.n	a11, a1, 20
    a90a:	41a8      	l32i.n	a10, a1, 16
    a90c:	61a9      	s32i.n	a10, a1, 24
    a90e:	71b9      	s32i.n	a11, a1, 28
    a910:	5a0c      	movi.n	a10, 5
    a912:	10c1b2        	addi	a11, a1, 16
    a915:	0199      	s32i.n	a9, a1, 0
    a917:	1189      	s32i.n	a8, a1, 4
    a919:	004065        	excw
    a91c:	7a0c      	movi.n	a10, 7
    a91e:	18c1b2        	addi	a11, a1, 24
    a921:	00a7e2        	movi	a14, 0x700
    a924:	70a0f2        	movi	a15, 112
    a927:	0d0c      	movi.n	a13, 0
    a929:	4c0c      	movi.n	a12, 4
    a92b:	11c9      	s32i.n	a12, a1, 4
    a92d:	01d9      	s32i.n	a13, a1, 0
    a92f:	1cc1c2        	addi	a12, a1, 28
    a932:	1d0c      	movi.n	a13, 1
    a934:	003ea5        	excw
    a937:	6a0c      	movi.n	a10, 6
    a939:	10c1b2        	addi	a11, a1, 16
    a93c:	14c1c2        	addi	a12, a1, 20
    a93f:	fd0c      	movi.n	a13, 15
    a941:	0f0c      	movi.n	a15, 0
    a943:	6e0c      	movi.n	a14, 6
    a945:	11e9      	s32i.n	a14, a1, 4
    a947:	01f9      	s32i.n	a15, a1, 0
    a949:	70a0e2        	movi	a14, 112
    a94c:	1f0c      	movi.n	a15, 1
    a94e:	003d25        	excw
    a951:	0a2c      	movi.n	a10, 32
    a953:	10c1b2        	addi	a11, a1, 16
    a956:	14c1c2        	addi	a12, a1, 20
    a959:	4d0c      	movi.n	a13, 4
    a95b:	0e2c      	movi.n	a14, 32
    a95d:	1f0c      	movi.n	a15, 1
    a95f:	080c      	movi.n	a8, 0
    a961:	0189      	s32i.n	a8, a1, 0
    a963:	1189      	s32i.n	a8, a1, 4
    a965:	003ba5        	excw
    a968:	10c1b2        	addi	a11, a1, 16
    a96b:	14c1c2        	addi	a12, a1, 20
    a96e:	0d0c      	movi.n	a13, 0
    a970:	0e2c      	movi.n	a14, 32
    a972:	1f0c      	movi.n	a15, 1
    a974:	190c      	movi.n	a9, 1
    a976:	0a0c      	movi.n	a10, 0
    a978:	01a9      	s32i.n	a10, a1, 0
    a97a:	1199      	s32i.n	a9, a1, 4
    a97c:	ca2c      	movi.n	a10, 44
    a97e:	003a25        	excw
    a981:	7f22d2        	l32i	a13, a2, 0x1fc
    a984:	4c2de2        	l32i	a14, a13, 0x130
    a987:	4b2dd2        	l32i	a13, a13, 0x12c
    a98a:	02aec1        	l32r	a12, 0xfffcb444
    a98d:	f5ceb2        	addi	a11, a14, -11
    a990:	08fbd3        	excw
    a993:	10fbe3        	excw
    a996:	18fbd3        	excw
    a999:	2cb9      	s32i.n	a11, a12, 8
    a99b:	f01d      	excw
    a99d:	000000        	ill
    a9a0:	004136        	excw
    a9a3:	0363a1        	l32r	a10, 0xfffcb730
    a9a6:	00a0b2        	movi	a11, 0
    a9a9:	fc3165        	excw
    a9ac:	170c      	movi.n	a7, 1
    a9ae:	02ae61        	l32r	a6, 0xfffcb468
    a9b1:	20a082        	movi	a8, 32
    a9b4:	112847        	blt	a8, a4, 0xa9c9
    a9b7:	a36622        	s32i	a2, a6, 0x28c
    a9ba:	a26642        	s32i	a4, a6, 0x288
    a9bd:	336527        	bbci	a5, 2, 0xa9f4
    a9c0:	590c      	movi.n	a9, 5
    a9c2:	a06692        	s32i	a9, a6, 0x280
    a9c5:	000b86        	j	0xa9f7
    a9c8:	63a100        	excw
    a9cb:	0b0c03        	excw
    a9ce:	e0c4d2        	addi	a13, a4, -32
    a9d1:	20a0f2        	movi	a15, 32
    a9d4:	400f00        	ssr	a15
    a9d7:	b1e030        	sra	a14, a3
    a9da:	a366e2        	s32i	a14, a6, 0x28c
    a9dd:	a266d2        	s32i	a13, a6, 0x288
    a9e0:	a06672        	s32i	a7, a6, 0x280
    a9e3:	a026c2        	l32i	a12, a6, 0x280
    a9e6:	fc2da5        	excw
    a9e9:	a36622        	s32i	a2, a6, 0x28c
    a9ec:	082c      	movi.n	a8, 32
    a9ee:	a26682        	s32i	a8, a6, 0x288
    a9f1:	cbe527        	bbsi	a5, 2, 0xa9c0
    a9f4:	a06672        	s32i	a7, a6, 0x280
    a9f7:	a02692        	l32i	a9, a6, 0x280
    a9fa:	0363a1        	l32r	a10, 0xfffcb788
    a9fd:	0b0c      	movi.n	a11, 0
    a9ff:	fc2c25        	excw
    aa02:	f01d      	excw
    aa04:	008136        	excw
    aa07:	02b691        	l32r	a9, 0xfffcb4e0
    aa0a:	929a      	add.n	a9, a2, a9
    aa0c:	7f2992        	l32i	a9, a9, 0x1fc
    aa0f:	02bca1        	l32r	a10, 0xfffcb500
    aa12:	64a0b2        	movi	a11, 100
    aa15:	272982        	l32i	a8, a9, 156
    aa18:	c0c430        	sub	a12, a4, a3
    aa1b:	41c9      	s32i.n	a12, a1, 16
    aa1d:	88ca      	add.n	a8, a8, a12
    aa1f:	276982        	s32i	a8, a9, 156
    aa22:	fc29e5        	excw
    aa25:	02a8      	l32i.n	a10, a2, 0
    aa27:	1aa8      	l32i.n	a10, a10, 4
    aa29:	089a16        	beqz	a10, 0xaab6
    aa2c:	3129      	s32i.n	a2, a1, 12
    aa2e:	023347        	bltu	a3, a4, 0xaa34
    aa31:	0026c6        	j	0xaad0
    aa34:	02d051        	l32r	a5, 0xfffcb574
    aa37:	02b461        	l32r	a6, 0xfffcb508
    aa3a:	02a971        	l32r	a7, 0xfffcb4e0
    aa3d:	02d241        	l32r	a4, 0xfffcb588
    aa40:	0364c1        	l32r	a12, 0xfffcb7d0
    aa43:	31b8      	l32i.n	a11, a1, 12
    aa45:	603030        	neg	a3, a3
    aa48:	4128      	l32i.n	a2, a1, 16
    aa4a:	1139      	s32i.n	a3, a1, 4
    aa4c:	030c      	movi.n	a3, 0
    aa4e:	220b      	addi.n	a2, a2, -1
    aa50:	2129      	s32i.n	a2, a1, 8
    aa52:	bbca      	add.n	a11, a11, a12
    aa54:	02ae21        	l32r	a2, 0xfffcb50c
    aa57:	01b9      	s32i.n	a11, a1, 0
    aa59:	02cee1        	l32r	a14, 0xfffcb594
    aa5c:	180c      	movi.n	a8, 1
    aa5e:	0f0c      	movi.n	a15, 0
    aa60:	01a8      	l32i.n	a10, a1, 0
    aa62:	21c8      	l32i.n	a12, a1, 8
    aa64:	31b8      	l32i.n	a11, a1, 12
    aa66:	1198      	l32i.n	a9, a1, 4
    aa68:	c0c3c0        	sub	a12, a3, a12
    aa6b:	e82bb2        	l32i	a11, a11, 0x3a0
    aa6e:	c09390        	sub	a9, a3, a9
    aa71:	7f2aa2        	l32i	a10, a10, 0x1fc
    aa74:	83f890        	moveqz	a15, a8, a9
    aa77:	091c      	movi.n	a9, 16
    aa79:	aaba      	add.n	a10, a10, a11
    aa7b:	000aa2        	l8ui	a10, a10, 0
    aa7e:	0b0c      	movi.n	a11, 0
    aa80:	0bdd      	mov.n	a13, a11
    aa82:	93d4f0        	movnez	a13, a4, a15
    aa85:	54a0a0        	extui	a10, a10, 0, 6
    aa88:	20aa50        	or	a10, a10, a5
    aa8b:	ec67a2        	s32i	a10, a7, 0x3b0
    aa8e:	0bad      	mov.n	a10, a11
    aa90:	93aef0        	movnez	a10, a14, a15
    aa93:	83b6c0        	moveqz	a11, a6, a12
    aa96:	20aad0        	or	a10, a10, a13
    aa99:	20aab0        	or	a10, a10, a11
    aa9c:	0b0c      	movi.n	a11, 0
    aa9e:	eb67a2        	s32i	a10, a7, 0x3ac
    aaa1:	a06292        	s32i	a9, a2, 0x280
    aaa4:	0319a1        	l32r	a10, 0xfffcb708
    aaa7:	fc21a5        	excw
    aaaa:	41c8      	l32i.n	a12, a1, 16
    aaac:	331b      	addi.n	a3, a3, 1
    aaae:	a793c7        	bne	a3, a12, 0xaa59
    aab1:	f01d      	excw
    aab3:	000000        	ill
    aab6:	02ad      	mov.n	a10, a2
    aab8:	41b8      	l32i.n	a11, a1, 16
    aaba:	fe4b65        	excw
    aabd:	02ad      	mov.n	a10, a2
    aabf:	1d0c      	movi.n	a13, 1
    aac1:	e822c2        	l32i	a12, a2, 0x3a0
    aac4:	0e0c      	movi.n	a14, 0
    aac6:	0f0c      	movi.n	a15, 0
    aac8:	3cb8      	l32i.n	a11, a12, 12
    aaca:	100cc2        	l8ui	a12, a12, 16
    aacd:	fe31a5        	excw
    aad0:	f01d      	excw
    aad2:	360000        	excw
    aad5:	1d0041        	l32r	a4, 0xfffd1ed8
    aad8:	0000f0        	excw
    aadb:	413600        	srli	a3, a0, 6
    aade:	a94100        	excw
    aae1:	655102        	s16i	a0, a1, 202
    aae4:	243203        	excw
    aae7:	3350f5        	excw
    aaea:	150c10        	extui	a0, a1, 28, 2
    aaed:	0bf323        	excw
    aaf0:	00f353        	excw
    aaf3:	f56432        	s32i	a3, a4, 0x3d4
    aaf6:	f01d      	excw
    aaf8:	006136        	excw
    aafb:	0e5316        	beqz	a3, 0xabe4
    aafe:	830b      	addi.n	a8, a3, -1
    ab00:	100816        	beqz	a8, 0xac04
    ab03:	fec392        	addi	a9, a3, -2
    ab06:	10e916        	beqz	a9, 0xac18
    ab09:	fdc3a2        	addi	a10, a3, -3
    ab0c:	11ca16        	beqz	a10, 0xac2c
    ab0f:	029771        	l32r	a7, 0xfffcb56c
    ab12:	061c      	movi.n	a6, 16
    ab14:	024d41        	l32r	a4, 0xfffcb448
    ab17:	036751        	l32r	a5, 0xfffcb8b4
    ab1a:	0366b1        	l32r	a11, 0xfffcb8b4
    ab1d:	0261b2        	s32i	a11, a1, 8
    ab20:	0319a1        	l32r	a10, 0xfffcb784
    ab23:	00a0b2        	movi	a11, 0
    ab26:	fc19a5        	excw
    ab29:	0319a1        	l32r	a10, 0xfffcb790
    ab2c:	0295e1        	l32r	a14, 0xfffcb580
    ab2f:	02aec1        	l32r	a12, 0xfffcb5e8
    ab32:	0b0c      	movi.n	a11, 0
    ab34:	2055e0        	or	a5, a5, a14
    ab37:	05d8      	l32i.n	a13, a5, 0
    ab39:	0161d2        	s32i	a13, a1, 4
    ab3c:	a16cb2        	s32i	a11, a12, 0x284
    ab3f:	a06c42        	s32i	a4, a12, 0x280
    ab42:	a02cc2        	l32i	a12, a12, 0x280
    ab45:	fc17a5        	excw
    ab48:	0295c1        	l32r	a12, 0xfffcb59c
    ab4b:	d2f8      	l32i.n	a15, a2, 52
    ab4d:	21b8      	l32i.n	a11, a1, 8
    ab4f:	024e41        	l32r	a4, 0xfffcb488
    ab52:	8fa8      	l32i.n	a10, a15, 32
    ab54:	20bbc0        	or	a11, a11, a12
    ab57:	02b3c1        	l32r	a12, 0xfffcb624
    ab5a:	002bb2        	l32i	a11, a11, 0
    ab5d:	122ff2        	l32i	a15, a15, 72
    ab60:	41a3a0        	srli	a10, a10, 3
    ab63:	10bbc0        	and	a11, a11, a12
    ab66:	c0aab0        	sub	a10, a10, a11
    ab69:	20baf7        	bgeu	a10, a15, 0xab8d
    ab6c:	0351d1        	l32r	a13, 0xfffcb8b0
    ab6f:	1024c2        	l32i	a12, a4, 64
    ab72:	11ba80        	slli	a11, a10, 8
    ab75:	20bab0        	or	a11, a10, a11
    ab78:	10acd0        	and	a10, a12, a13
    ab7b:	20aab0        	or	a10, a10, a11
    ab7e:	1064a2        	s32i	a10, a4, 64
    ab81:	058076        	excw
    ab84:	1024c2        	l32i	a12, a4, 64
    ab87:	021ac7        	beq	a10, a12, 0xab8d
    ab8a:	fffcc6        	j	0xab81
    ab8d:	0319a1        	l32r	a10, 0xfffcb7f4
    ab90:	0b0c      	movi.n	a11, 0
    ab92:	fc12e5        	excw
    ab95:	0319a1        	l32r	a10, 0xfffcb7fc
    ab98:	1f6462        	s32i	a6, a4, 124
    ab9b:	1f24b2        	l32i	a11, a4, 124
    ab9e:	f03d      	nop.n
    aba0:	0b0c      	movi.n	a11, 0
    aba2:	20a7a0        	or	a10, a7, a10
    aba5:	fc11a5        	excw
    aba8:	0342a1        	l32r	a10, 0xfffcb8b0
    abab:	0598      	l32i.n	a9, a5, 0
    abad:	a2aa      	add.n	a10, a2, a10
    abaf:	043316        	beqz	a3, 0xabf6
    abb2:	0b0c      	movi.n	a11, 0
    abb4:	7e0ad2        	l8ui	a13, a10, 126
    abb7:	1c0c      	movi.n	a12, 1
    abb9:	0a0c      	movi.n	a10, 0
    abbb:	fecdd2        	addi	a13, a13, -2
    abbe:	83acd0        	moveqz	a10, a12, a13
    abc1:	fda365        	excw
    abc4:	024aa1        	l32r	a10, 0xfffcb4ec
    abc7:	3b3c      	movi.n	a11, 51
    abc9:	108076        	excw
    abcc:	272a82        	l32i	a8, a10, 156
    abcf:	0189      	s32i.n	a8, a1, 0
    abd1:	01f8      	l32i.n	a15, a1, 0
    abd3:	10ffb0        	and	a15, a15, a11
    abd6:	01f9      	s32i.n	a15, a1, 0
    abd8:	01e8      	l32i.n	a14, a1, 0
    abda:	021eb7        	beq	a14, a11, 0xabe0
    abdd:	fffa06        	j	0xabc9
    abe0:	f01d      	excw
    abe2:	710000        	excw
    abe5:	024c      	movi.n	a2, 64
    abe7:	160c      	movi.n	a6, 1
    abe9:	240c      	movi.n	a4, 2
    abeb:	036951        	l32r	a5, 0xfffcb990
    abee:	036891        	l32r	a9, 0xfffcb990
    abf1:	2199      	s32i.n	a9, a1, 8
    abf3:	ffca46        	j	0xab20
    abf6:	11b8      	l32i.n	a11, a1, 4
    abf8:	c0b9b0        	sub	a11, a9, a11
    abfb:	41b3b0        	srli	a11, a11, 3
    abfe:	226ab2        	s32i	a11, a10, 136
    ac01:	ffeb46        	j	0xabb2
    ac04:	034d71        	l32r	a7, 0xfffcb938
    ac07:	260c      	movi.n	a6, 2
    ac09:	025841        	l32r	a4, 0xfffcb56c
    ac0c:	036b51        	l32r	a5, 0xfffcb9b8
    ac0f:	036ac1        	l32r	a12, 0xfffcb9b8
    ac12:	21c9      	s32i.n	a12, a1, 8
    ac14:	ffc206        	j	0xab20
    ac17:	4d7100        	excw
    ac1a:	460c02        	l8ui	a0, a12, 70
    ac1d:	024c41        	l32r	a4, 0xfffcb550
    ac20:	036d51        	l32r	a5, 0xfffcb9d4
    ac23:	036cd1        	l32r	a13, 0xfffcb9d4
    ac26:	21d9      	s32i.n	a13, a1, 8
    ac28:	ffbd06        	j	0xab20
    ac2b:	ab7100        	excw
    ac2e:	860c02        	l8ui	a0, a12, 134
    ac31:	034d41        	l32r	a4, 0xfffcb968
    ac34:	036f51        	l32r	a5, 0xfffcb9f0
    ac37:	036ee1        	l32r	a14, 0xfffcb9f0
    ac3a:	21e9      	s32i.n	a14, a1, 8
    ac3c:	ffb806        	j	0xab20
    ac3f:	413600        	srli	a3, a0, 6
    ac42:	229200        	excw
    ac45:	885c      	movi.n	a8, 88
    ac47:	3139      	s32i.n	a3, a1, 12
    ac49:	4e          	.byte 0x4e
    ac4a:	880b02        	l8ui	a0, a11, 136
    ac4d:	097816        	beqz	a8, 0xace8
    ac50:	02b6a1        	l32r	a10, 0xfffcb728
    ac53:	a2aa      	add.n	a10, a2, a10
    ac55:	7f2aa2        	l32i	a10, a10, 0x1fc
    ac58:	00a0b2        	movi	a11, 0
    ac5b:	e822c2        	l32i	a12, a2, 0x3a0
    ac5e:	212a92        	l32i	a9, a10, 132
    ac61:	02ae41        	l32r	a4, 0xfffcb71c
    ac64:	06dcc2        	addmi	a12, a12, 0x600
    ac67:	001916        	beqz	a9, 0xac6c
    ac6a:	14b9      	s32i.n	a11, a4, 4
    ac6c:	1223d2        	l32i	a13, a3, 72
    ac6f:	1ab9      	s32i.n	a11, a10, 4
    ac71:	482cd2        	l32i	a13, a12, 0x120
    ac74:	472cc2        	l32i	a12, a12, 0x11c
    ac77:	629cd7        	bne	a12, a13, 0xacdd
    ac7a:	0a0c      	movi.n	a10, 0
    ac7c:	0b0c      	movi.n	a11, 0
    ac7e:	fd97a5        	excw
    ac81:	02bca1        	l32r	a10, 0xfffcb774
    ac84:	64a0b2        	movi	a11, 100
    ac87:	fc03a5        	excw
    ac8a:	02bca1        	l32r	a10, 0xfffcb77c
    ac8d:	64a0b2        	movi	a11, 100
    ac90:	02a0f2        	movi	a15, 2
    ac93:	a064f2        	s32i	a15, a4, 0x280
    ac96:	a024e2        	l32i	a14, a4, 0x280
    ac99:	fc0265        	excw
    ac9c:	0370a1        	l32r	a10, 0xfffcba5c
    ac9f:	64a0b2        	movi	a11, 100
    aca2:	190c      	movi.n	a9, 1
    aca4:	1f6392        	s32i	a9, a3, 124
    aca7:	1f2382        	l32i	a8, a3, 124
    acaa:	fc0165        	excw
    acad:	d2a8      	l32i.n	a10, a2, 52
    acaf:	2c2aa2        	l32i	a10, a10, 176
    acb2:	6a8c      	beqz.n	a10, 0xacbc
    acb4:	5c22b2        	l32i	a11, a2, 0x170
    acb7:	6bb8      	l32i.n	a11, a11, 24
    acb9:	04fb16        	beqz	a11, 0xad0c
    acbc:	122322        	l32i	a2, a3, 72
    acbf:	1a0c      	movi.n	a10, 1
    acc1:	f738e5        	excw
    acc4:	f4f2f7        	bbsi	a2, 31, 0xacbc
    acc7:	4a1c      	movi.n	a10, 20
    acc9:	f73865        	excw
    accc:	02b381        	l32r	a8, 0xfffcb798
    accf:	122392        	l32i	a9, a3, 72
    acd2:	122322        	l32i	a2, a3, 72
    acd5:	102280        	and	a2, a2, a8
    acd8:	1122d0        	slli	a2, a2, 3
    acdb:	f01d      	excw
    acdd:	02ad      	mov.n	a10, a2
    acdf:	0b0c      	movi.n	a11, 0
    ace1:	fe17e5        	excw
    ace4:	ffe486        	j	0xac7a
    ace7:	d2a800        	excw
    acea:	2c2aa2        	l32i	a10, a10, 176
    aced:	f5fa16        	beqz	a10, 0xac50
    acf0:	09b8      	l32i.n	a11, a9, 0
    acf2:	bb0b      	addi.n	a11, a11, -1
    acf4:	f58b56        	bnez	a11, 0xac50
    acf7:	0304d1        	l32r	a13, 0xfffcb908
    acfa:	c223c2        	l32i	a12, a3, 0x308
    acfd:	02cca1        	l32r	a10, 0xfffcb830
    ad00:	10ccd0        	and	a12, a12, a13
    ad03:	c263c2        	s32i	a12, a3, 0x308
    ad06:	f5a665        	excw
    ad09:	ffd0c6        	j	0xac50
    ad0c:	02ad      	mov.n	a10, a2
    ad0e:	fd1ce5        	excw
    ad11:	1423e2        	l32i	a14, a3, 80
    ad14:	02f3f1        	l32r	a15, 0xfffcb8e0
    ad17:	11eed0        	slli	a14, a14, 3
    ad1a:	0fe9      	s32i.n	a14, a15, 0
    ad1c:	ffe706        	j	0xacbc
    ad1f:	413600        	srli	a3, a0, 6
    ad22:	95c100        	extui	a12, a0, 17, 10
    ad25:	a6c002        	addi	a0, a0, -90
    ad28:	852011        	l32r	a1, 0xfffec1a8
    ad2b:	d02021        	l32r	a2, 0xffffedac
    ad2e:	b51044        	excw
    ad31:	951b11        	l32r	a1, 0xffff01a0
    ad34:	829960        	mull	a9, a9, a6
    ad37:	8158      	l32i.n	a5, a1, 32
    ad39:	9128      	l32i.n	a2, a1, 36
    ad3b:	116de0        	slli	a6, a13, 2
    ad3e:	a8ac      	beqz.n	a8, 0xad6c
    ad40:	0372e1        	l32r	a14, 0xfffcbb08
    ad43:	037131        	l32r	a3, 0xfffcbb08
    ad46:	18fb73        	excw
    ad49:	04f8      	l32i.n	a15, a4, 0
    ad4b:	00fa23        	excw
    ad4e:	1ffa53        	excw
    ad51:	20ffb0        	or	a15, a15, a11
    ad54:	363a      	add.n	a3, a6, a3
    ad56:	e6ea      	add.n	a14, a6, a14
    ad58:	20eec0        	or	a14, a14, a12
    ad5b:	2033c0        	or	a3, a3, a12
    ad5e:	03f9      	s32i.n	a15, a3, 0
    ad60:	0ea9      	s32i.n	a10, a14, 0
    ad62:	04d8      	l32i.n	a13, a4, 0
    ad64:	dd9a      	add.n	a13, a13, a9
    ad66:	04d9      	s32i.n	a13, a4, 0
    ad68:	f01d      	excw
    ad6a:	810000        	src	a0, a0, a0
    ad6d:	e10374        	excw
    ad70:	730373        	excw
    ad73:	18fb      	addi.n	a1, a8, 15
    ad75:	03d8      	l32i.n	a13, a3, 0
    ad77:	00fa23        	excw
    ad7a:	1ffa53        	excw
    ad7d:	20ddb0        	or	a13, a13, a11
    ad80:	e6ea      	add.n	a14, a6, a14
    ad82:	868a      	add.n	a8, a6, a8
    ad84:	2088c0        	or	a8, a8, a12
    ad87:	20eec0        	or	a14, a14, a12
    ad8a:	0ed9      	s32i.n	a13, a14, 0
    ad8c:	08a9      	s32i.n	a10, a8, 0
    ad8e:	0348      	l32i.n	a4, a3, 0
    ad90:	449a      	add.n	a4, a4, a9
    ad92:	0349      	s32i.n	a4, a3, 0
    ad94:	f01d      	excw
    ad96:	360000        	excw
    ad99:	bd0041        	l32r	a4, 0xffffa19c
    ad9c:	03ad02        	movi	a0, 0xfffffd03
    ad9f:	06cd      	mov.n	a12, a6
    ada1:	f71de5        	excw
    ada4:	0abd      	mov.n	a11, a10
    ada6:	05cd      	mov.n	a12, a5
    ada8:	04ad      	mov.n	a10, a4
    adaa:	00c1a5        	excw
    adad:	f01d      	excw
    adaf:	813600        	src	a3, a6, a0
    adb2:	b64100        	excw
    adb5:	512902        	l32i	a0, a9, 0x144
    adb8:	5178      	l32i.n	a7, a1, 20
    adba:	0375a1        	l32r	a10, 0xfffcbb90
    adbd:	090c      	movi.n	a9, 0
    adbf:	474a      	add.n	a4, a7, a4
    adc1:	3149      	s32i.n	a4, a1, 12
    adc3:	7f2442        	l32i	a4, a4, 0x1fc
    adc6:	1b0c      	movi.n	a11, 1
    adc8:	e82772        	l32i	a7, a7, 0x3a0
    adcb:	572482        	l32i	a8, a4, 0x15c
    adce:	94b9      	s32i.n	a11, a4, 36
    add0:	8499      	s32i.n	a9, a4, 32
    add2:	4888      	l32i.n	a8, a8, 16
    add4:	0139      	s32i.n	a3, a1, 0
    add6:	0a99      	s32i.n	a9, a10, 0
    add8:	454816        	beqz	a8, 0xb230
    addb:	1c24a2        	l32i	a10, a4, 112
    adde:	192492        	l32i	a9, a4, 100
    ade1:	9a99      	s32i.n	a9, a10, 36
    ade3:	51a8      	l32i.n	a10, a1, 20
    ade5:	5d0c      	movi.n	a13, 5
    ade7:	0e0c      	movi.n	a14, 0
    ade9:	0f0c      	movi.n	a15, 0
    adeb:	1c0c      	movi.n	a12, 1
    aded:	0b0c      	movi.n	a11, 0
    adef:	1b64b2        	s32i	a11, a4, 108
    adf2:	1a64c2        	s32i	a12, a4, 104
    adf5:	1864b2        	s32i	a11, a4, 96
    adf8:	0c0c      	movi.n	a12, 0
    adfa:	0b0c      	movi.n	a11, 0
    adfc:	fdfea5        	excw
    adff:	0521a2        	l32i	a10, a1, 20
    ae02:	006565        	excw
    ae05:	51a8      	l32i.n	a10, a1, 20
    ae07:	0b0c      	movi.n	a11, 0
    ae09:	fe0565        	excw
    ae0c:	037651        	l32r	a5, 0xfffcbbe4
    ae0f:	5138      	l32i.n	a3, a1, 20
    ae11:	0377d1        	l32r	a13, 0xfffcbbf0
    ae14:	335a      	add.n	a3, a3, a5
    ae16:	02ae51        	l32r	a5, 0xfffcb8d0
    ae19:	04ad      	mov.n	a10, a4
    ae1b:	0dd8      	l32i.n	a13, a13, 0
    ae1d:	ad25e2        	l32i	a14, a5, 0x2b4
    ae20:	9e63e2        	s32i	a14, a3, 0x278
    ae23:	14d9      	s32i.n	a13, a4, 4
    ae25:	0047e5        	excw
    ae28:	5724b2        	l32i	a11, a4, 0x15c
    ae2b:	02a961        	l32r	a6, 0xfffcb8d0
    ae2e:	5b98      	l32i.n	a9, a11, 20
    ae30:	f526c2        	l32i	a12, a6, 0x3d4
    ae33:	fec982        	addi	a8, a9, -2
    ae36:	40a816        	beqz	a8, 0xb244
    ae39:	0378a1        	l32r	a10, 0xfffcbc1c
    ae3c:	d90b      	addi.n	a13, a9, -1
    ae3e:	80a392        	movi	a9, 0x380
    ae41:	839ad0        	moveqz	a9, a10, a13
    ae44:	0258e1        	l32r	a14, 0xfffcb7a4
    ae47:	036521        	l32r	a2, 0xfffcbbdc
    ae4a:	182bf2        	l32i	a15, a11, 96
    ae4d:	5724a2        	l32i	a10, a4, 0x15c
    ae50:	102c20        	and	a2, a12, a2
    ae53:	ff1b      	addi.n	a15, a15, 1
    ae55:	202920        	or	a2, a9, a2
    ae58:	037991        	l32r	a9, 0xfffcbc3c
    ae5b:	20ff20        	or	a15, a15, a2
    ae5e:	f566f2        	s32i	a15, a6, 0x3d4
    ae61:	45d8      	l32i.n	a13, a5, 16
    ae63:	9a88      	l32i.n	a8, a10, 36
    ae65:	827c      	movi.n	a2, -8
    ae67:	20dde0        	or	a13, a13, a14
    ae6a:	048080        	extui	a8, a8, 0, 1
    ae6d:	ee7c      	movi.n	a14, -2
    ae6f:	10dde0        	and	a13, a13, a14
    ae72:	2088d0        	or	a8, a8, a13
    ae75:	208890        	or	a8, a8, a9
    ae78:	4589      	s32i.n	a8, a5, 16
    ae7a:	a425f2        	l32i	a15, a5, 0x290
    ae7d:	382a82        	l32i	a8, a10, 224
    ae80:	690c      	movi.n	a9, 6
    ae82:	10ff20        	and	a15, a15, a2
    ae85:	1188f0        	slli	a8, a8, 1
    ae88:	108890        	and	a8, a8, a9
    ae8b:	372a22        	l32i	a2, a10, 220
    ae8e:	02c591        	l32r	a9, 0xfffcb9a4
    ae91:	1e0c      	movi.n	a14, 1
    ae93:	042020        	extui	a2, a2, 0, 1
    ae96:	979a      	add.n	a9, a7, a9
    ae98:	202280        	or	a2, a2, a8
    ae9b:	20ff20        	or	a15, a15, a2
    ae9e:	a465f2        	s32i	a15, a5, 0x290
    aea1:	eb66e2        	s32i	a14, a6, 0x3ac
    aea4:	94f8      	l32i.n	a15, a4, 36
    aea6:	1ad8      	l32i.n	a13, a10, 4
    aea8:	41d9      	s32i.n	a13, a1, 16
    aeaa:	3a2aa2        	l32i	a10, a10, 232
    aead:	21a9      	s32i.n	a10, a1, 8
    aeaf:	399f16        	beqz	a15, 0xb24c
    aeb2:	14b8      	l32i.n	a11, a4, 4
    aeb4:	bb0b      	addi.n	a11, a11, -1
    aeb6:	00a672        	movi	a7, 0x600
    aeb9:	0a2c      	movi.n	a10, 32
    aebb:	6139      	s32i.n	a3, a1, 24
    aebd:	7f69b2        	s32i	a11, a9, 0x1fc
    aec0:	023c      	movi.n	a2, 48
    aec2:	41c8      	l32i.n	a12, a1, 16
    aec4:	7529      	s32i.n	a2, a5, 28
    aec6:	021c      	movi.n	a2, 16
    aec8:	205c16        	beqz	a12, 0xb0d1
    aecb:	41b8      	l32i.n	a11, a1, 16
    aecd:	030c      	movi.n	a3, 0
    aecf:	bb0b      	addi.n	a11, a11, -1
    aed1:	11b9      	s32i.n	a11, a1, 4
    aed3:	000a46        	j	0xaf00
    aed6:	cb1b      	addi.n	a12, a11, 1
    aed8:	74c9      	s32i.n	a12, a4, 28
    aeda:	5b24d2        	l32i	a13, a4, 0x16c
    aedd:	14e8      	l32i.n	a14, a4, 4
    aedf:	dd1b      	addi.n	a13, a13, 1
    aee1:	ee1b      	addi.n	a14, a14, 1
    aee3:	14e9      	s32i.n	a14, a4, 4
    aee5:	5b64d2        	s32i	a13, a4, 0x16c
    aee8:	04cd66        	bnei	a13, 32, 0xaef0
    aeeb:	0f0c      	movi.n	a15, 0
    aeed:	5b64f2        	s32i	a15, a4, 0x16c
    aef0:	23cc      	bnez.n	a3, 0xaef6
    aef2:	080c      	movi.n	a8, 0
    aef4:	9489      	s32i.n	a8, a4, 36
    aef6:	4198      	l32i.n	a9, a1, 16
    aef8:	331b      	addi.n	a3, a3, 1
    aefa:	c09390        	sub	a9, a3, a9
    aefd:	1cc916        	beqz	a9, 0xb0cd
    af00:	51d8      	l32i.n	a13, a1, 20
    af02:	31b8      	l32i.n	a11, a1, 12
    af04:	02c5e1        	l32r	a14, 0xfffcba18
    af07:	e82dd2        	l32i	a13, a13, 0x3a0
    af0a:	7f2bb2        	l32i	a11, a11, 0x1fc
    af0d:	ddea      	add.n	a13, a13, a14
    af0f:	1be8      	l32i.n	a14, a11, 4
    af11:	abf8      	l32i.n	a15, a11, 40
    af13:	7f2dd2        	l32i	a13, a13, 0x1fc
    af16:	ce0b      	addi.n	a12, a14, -1
    af18:	c0eef0        	sub	a14, a14, a15
    af1b:	022dc7        	blt	a13, a12, 0xaf21
    af1e:	005486        	j	0xb074
    af21:	7bf8      	l32i.n	a15, a11, 28
    af23:	14df16        	beqz	a15, 0xb074
    af26:	1c0c      	movi.n	a12, 1
    af28:	1d6bc2        	s32i	a12, a11, 116
    af2b:	1c0c      	movi.n	a12, 1
    af2d:	012de7        	blt	a13, a14, 0xaf32
    af30:	0c0c      	movi.n	a12, 0
    af32:	1188      	l32i.n	a8, a1, 4
    af34:	1e6bc2        	s32i	a12, a11, 120
    af37:	099387        	bne	a3, a8, 0xaf44
    af3a:	190c      	movi.n	a9, 1
    af3c:	8499      	s32i.n	a9, a4, 32
    af3e:	190c      	movi.n	a9, 1
    af40:	000086        	j	0xaf46
    af43:	849800        	extui	a9, a0, 8, 9
    af46:	1e2482        	l32i	a8, a4, 120
    af49:	3724d2        	l32i	a13, a4, 220
    af4c:	1d24b2        	l32i	a11, a4, 116
    af4f:	21c8      	l32i.n	a12, a1, 8
    af51:	01ede0        	slli	a14, a13, 18
    af54:	19fed3        	excw
    af57:	08fec3        	excw
    af5a:	0efeb3        	excw
    af5d:	94c8      	l32i.n	a12, a4, 36
    af5f:	5b24b2        	l32i	a11, a4, 0x16c
    af62:	10fe83        	excw
    af65:	06fec3        	excw
    af68:	f0cbd2        	addi	a13, a11, -16
    af6b:	34f0b0        	extui	a15, a11, 0, 4
    af6e:	07fe93        	excw
    af71:	02fef3        	excw
    af74:	101d16        	beqz	a13, 0xb079
    af77:	0feb16        	beqz	a11, 0xb079
    af7a:	1724f2        	l32i	a15, a4, 92
    af7d:	0a9f16        	beqz	a15, 0xb02a
    af80:	0375f1        	l32r	a15, 0xfffcbd54
    af83:	f03d      	nop.n
    af85:	058076        	excw
    af88:	f22682        	l32i	a8, a6, 0x3c8
    af8b:	020877        	bnone	a8, a7, 0xaf91
    af8e:	fffb86        	j	0xaf80
    af91:	0fd8      	l32i.n	a13, a15, 0
    af93:	0d1c26        	beqi	a12, 1, 0xafa4
    af96:	10bd16        	beqz	a13, 0xb0a5
    af99:	048076        	excw
    af9c:	7598      	l32i.n	a9, a5, 28
    af9e:	028927        	bany	a9, a2, 0xafa4
    afa1:	fffd06        	j	0xaf99
    afa4:	1824f2        	l32i	a15, a4, 96
    afa7:	2fac      	beqz.n	a15, 0xafcd
    afa9:	1c2492        	l32i	a9, a4, 112
    afac:	192482        	l32i	a8, a4, 100
    afaf:	a525f2        	l32i	a15, a5, 0x294
    afb2:	a08890        	addx4	a8, a8, a9
    afb5:	4e68f2        	s32i	a15, a8, 0x138
    afb8:	1924c2        	l32i	a12, a4, 100
    afbb:	ad25b2        	l32i	a11, a5, 0x2b4
    afbe:	a0cc90        	addx4	a12, a12, a9
    afc1:	acb9      	s32i.n	a11, a12, 40
    afc3:	192482        	l32i	a8, a4, 100
    afc6:	9989      	s32i.n	a8, a9, 36
    afc8:	94c8      	l32i.n	a12, a4, 36
    afca:	5b24b2        	l32i	a11, a4, 0x16c
    afcd:	9c0b      	addi.n	a9, a12, -1
    afcf:	0b9916        	beqz	a9, 0xb08c
    afd2:	1824f2        	l32i	a15, a4, 96
    afd5:	0dcf16        	beqz	a15, 0xb0b5
    afd8:	1a2492        	l32i	a9, a4, 104
    afdb:	2f0c      	movi.n	a15, 2
    afdd:	1b6492        	s32i	a9, a4, 108
    afe0:	1a6492        	s32i	a9, a4, 104
    afe3:	180c      	movi.n	a8, 1
    afe5:	3a0c      	movi.n	a10, 3
    afe7:	939890        	movnez	a9, a8, a9
    afea:	580c      	movi.n	a8, 5
    afec:	93af90        	movnez	a10, a15, a9
    afef:	6f0c      	movi.n	a15, 6
    aff1:	93f890        	movnez	a15, a8, a9
    aff4:	190c      	movi.n	a9, 1
    aff6:	02bb66        	bnei	a11, 16, 0xaffc
    aff9:	002106        	j	0xb081
    affc:	081b16        	beqz	a11, 0xb081
    afff:	186492        	s32i	a9, a4, 96
    b002:	1b0c      	movi.n	a11, 1
    b004:	090c      	movi.n	a9, 0
    b006:	839bd0        	moveqz	a9, a11, a13
    b009:	087d16        	beqz	a13, 0xb094
    b00c:	0d0c      	movi.n	a13, 0
    b00e:	6c0c      	movi.n	a12, 6
    b010:	037581        	l32r	a8, 0xfffcbde4
    b013:	ab0c      	movi.n	a11, 10
    b015:	93bc90        	movnez	a11, a12, a9
    b018:	08d9      	s32i.n	a13, a8, 0
    b01a:	119fa0        	slli	a9, a15, 6
    b01d:	11aa40        	slli	a10, a10, 12
    b020:	fb66a2        	s32i	a10, a6, 0x3ec
    b023:	0a2c      	movi.n	a10, 32
    b025:	fc6692        	s32i	a9, a6, 0x3f0
    b028:	75b9      	s32i.n	a11, a5, 28
    b02a:	1d0c      	movi.n	a13, 1
    b02c:	20ded0        	or	a13, a14, a13
    b02f:	65d9      	s32i.n	a13, a5, 24
    b031:	3724c2        	l32i	a12, a4, 220
    b034:	a4b8      	l32i.n	a11, a4, 40
    b036:	cc1b      	addi.n	a12, a12, 1
    b038:	3764c2        	s32i	a12, a4, 220
    b03b:	053cb7        	bltu	a12, a11, 0xb044
    b03e:	00a0e2        	movi	a14, 0
    b041:	3764e2        	s32i	a14, a4, 220
    b044:	582492        	l32i	a9, a4, 0x160
    b047:	075916        	beqz	a9, 0xb0c0
    b04a:	f90b      	addi.n	a15, a9, -1
    b04c:	5864f2        	s32i	a15, a4, 0x160
    b04f:	8b0b      	addi.n	a8, a11, -1
    b051:	74b8      	l32i.n	a11, a4, 28
    b053:	1c0c      	movi.n	a12, 1
    b055:	090c      	movi.n	a9, 0
    b057:	c0db80        	sub	a13, a11, a8
    b05a:	839cd0        	moveqz	a9, a12, a13
    b05d:	176492        	s32i	a9, a4, 92
    b060:	e72d56        	bnez	a13, 0xaed6
    b063:	0f0c      	movi.n	a15, 0
    b065:	64e8      	l32i.n	a14, a4, 24
    b067:	1964e2        	s32i	a14, a4, 100
    b06a:	74f9      	s32i.n	a15, a4, 28
    b06c:	ee1b      	addi.n	a14, a14, 1
    b06e:	64e9      	s32i.n	a14, a4, 24
    b070:	ff9986        	j	0xaeda
    b073:	0c0c00        	excw
    b076:	ffab86        	j	0xaf28
    b079:	8c0b      	addi.n	a8, a12, -1
    b07b:	f01856        	bnez	a8, 0xaf80
    b07e:	ffbe06        	j	0xaf7a
    b081:	bc0b      	addi.n	a11, a12, -1
    b083:	0c0c      	movi.n	a12, 0
    b085:	939cb0        	movnez	a9, a12, a11
    b088:	ffdcc6        	j	0xafff
    b08b:	5f0c00        	excw
    b08e:	2a0c      	movi.n	a10, 2
    b090:	ffd806        	j	0xaff4
    b093:	75b100        	extui	a11, a0, 17, 8
    b096:	180c03        	excw
    b099:	5d0c      	movi.n	a13, 5
    b09b:	0b89      	s32i.n	a8, a11, 0
    b09d:	9b0c      	movi.n	a11, 9
    b09f:	93bd90        	movnez	a11, a13, a9
    b0a2:	ffdd06        	j	0xb01a
    b0a5:	098076        	excw
    b0a8:	75f8      	l32i.n	a15, a5, 28
    b0aa:	020fa7        	bnone	a15, a10, 0xb0b0
    b0ad:	ffbcc6        	j	0xafa4
    b0b0:	f03d      	nop.n
    b0b2:	fffbc6        	j	0xb0a5
    b0b5:	1b2492        	l32i	a9, a4, 108
    b0b8:	1f0c      	movi.n	a15, 1
    b0ba:	3099f0        	xor	a9, a9, a15
    b0bd:	ffc686        	j	0xafdb
    b0c0:	04ad      	mov.n	a10, a4
    b0c2:	002ca5        	excw
    b0c5:	0a2c      	movi.n	a10, 32
    b0c7:	a4b8      	l32i.n	a11, a4, 40
    b0c9:	ffe086        	j	0xb04f
    b0cc:	0a2c00        	excw
    b0cf:	6138      	l32i.n	a3, a1, 24
    b0d1:	058076        	excw
    b0d4:	f22682        	l32i	a8, a6, 0x3c8
    b0d7:	020877        	bnone	a8, a7, 0xb0dd
    b0da:	fffcc6        	j	0xb0d1
    b0dd:	182492        	l32i	a9, a4, 96
    b0e0:	109916        	beqz	a9, 0xb1ed
    b0e3:	1a2492        	l32i	a9, a4, 104
    b0e6:	80a1b2        	movi	a11, 0x180
    b0e9:	02d0f1        	l32r	a15, 0xfffcbc2c
    b0ec:	0260c1        	l32r	a12, 0xfffcba6c
    b0ef:	1b6492        	s32i	a9, a4, 108
    b0f2:	0375d1        	l32r	a13, 0xfffcbec8
    b0f5:	1a6492        	s32i	a9, a4, 104
    b0f8:	1e0c      	movi.n	a14, 1
    b0fa:	0dd8      	l32i.n	a13, a13, 0
    b0fc:	939e90        	movnez	a9, a14, a9
    b0ff:	93cf90        	movnez	a12, a15, a9
    b102:	40a1e2        	movi	a14, 0x140
    b105:	93be90        	movnez	a11, a14, a9
    b108:	0edd16        	beqz	a13, 0xb1f9
    b10b:	048076        	excw
    b10e:	75f8      	l32i.n	a15, a5, 28
    b110:	028f27        	bany	a15, a2, 0xb116
    b113:	fffd06        	j	0xb10b
    b116:	a80c      	movi.n	a8, 10
    b118:	fb66c2        	s32i	a12, a6, 0x3ec
    b11b:	fc66b2        	s32i	a11, a6, 0x3f0
    b11e:	076582        	s32i	a8, a5, 28
    b121:	048076        	excw
    b124:	7598      	l32i.n	a9, a5, 28
    b126:	0289a7        	bany	a9, a10, 0xb12c
    b129:	fffd06        	j	0xb121
    b12c:	1724a2        	l32i	a10, a4, 92
    b12f:	f03d      	nop.n
    b131:	0afa16        	beqz	a10, 0xb1e4
    b134:	1c24c2        	l32i	a12, a4, 112
    b137:	192482        	l32i	a8, a4, 100
    b13a:	a525f2        	l32i	a15, a5, 0x294
    b13d:	a088c0        	addx4	a8, a8, a12
    b140:	4e68f2        	s32i	a15, a8, 0x138
    b143:	1924e2        	l32i	a14, a4, 100
    b146:	ad25d2        	l32i	a13, a5, 0x2b4
    b149:	a0eec0        	addx4	a14, a14, a12
    b14c:	aed9      	s32i.n	a13, a14, 40
    b14e:	1924b2        	l32i	a11, a4, 100
    b151:	9cb9      	s32i.n	a11, a12, 36
    b153:	037ad1        	l32r	a13, 0xfffcbf3c
    b156:	45c8      	l32i.n	a12, a5, 16
    b158:	0b0c      	movi.n	a11, 0
    b15a:	572492        	l32i	a9, a4, 0x15c
    b15d:	10ccd0        	and	a12, a12, a13
    b160:	45c9      	s32i.n	a12, a5, 16
    b162:	14a8      	l32i.n	a10, a4, 4
    b164:	14b9      	s32i.n	a11, a4, 4
    b166:	0377b1        	l32r	a11, 0xfffcbf44
    b169:	372992        	l32i	a9, a9, 220
    b16c:	0ba9      	s32i.n	a10, a11, 0
    b16e:	0ac916        	beqz	a9, 0xb21e
    b171:	51a8      	l32i.n	a10, a1, 20
    b173:	0b0c      	movi.n	a11, 0
    b175:	0c0c      	movi.n	a12, 0
    b177:	5d0c      	movi.n	a13, 5
    b179:	1e0c      	movi.n	a14, 1
    b17b:	0f0c      	movi.n	a15, 0
    b17d:	fdc6a5        	excw
    b180:	80a0a2        	movi	a10, 128
    b183:	0b0c      	movi.n	a11, 0
    b185:	fbb3a5        	excw
    b188:	0148      	l32i.n	a4, a1, 0
    b18a:	51a8      	l32i.n	a10, a1, 20
    b18c:	0b0c      	movi.n	a11, 0
    b18e:	fdcd25        	excw
    b191:	071466        	bnei	a4, 1, 0xb19c
    b194:	51a8      	l32i.n	a10, a1, 20
    b196:	00a0b2        	movi	a11, 0
    b199:	ff95e5        	excw
    b19c:	3198      	l32i.n	a9, a1, 12
    b19e:	7f2992        	l32i	a9, a9, 0x1fc
    b1a1:	024ea1        	l32r	a10, 0xfffcbadc
    b1a4:	ffa0f2        	movi	a15, 255
    b1a7:	5729e2        	l32i	a14, a9, 0x15c
    b1aa:	122aa2        	l32i	a10, a10, 72
    b1ad:	f666f2        	s32i	a15, a6, 0x3d8
    b1b0:	bee8      	l32i.n	a14, a14, 44
    b1b2:	fbcee2        	addi	a14, a14, -5
    b1b5:	0abe16        	beqz	a14, 0xb264
    b1b8:	262992        	l32i	a9, a9, 152
    b1bb:	fcc9b2        	addi	a11, a9, -4
    b1be:	0b2b16        	beqz	a11, 0xb274
    b1c1:	c90b      	addi.n	a12, a9, -1
    b1c3:	0bdc16        	beqz	a12, 0xb284
    b1c6:	fec9d2        	addi	a13, a9, -2
    b1c9:	0c7d16        	beqz	a13, 0xb294
    b1cc:	02b966        	bnei	a9, 16, 0xb1d2
    b1cf:	002046        	j	0xb254
    b1d2:	02b321        	l32r	a2, 0xfffcbca0
    b1d5:	980c      	movi.n	a8, 9
    b1d7:	606382        	s32i	a8, a3, 0x180
    b1da:	102a20        	and	a2, a10, a2
    b1dd:	1122d0        	slli	a2, a2, 3
    b1e0:	f01d      	excw
    b1e2:	920000        	excw
    b1e5:	561824        	excw
    b1e8:	f499      	s32i.n	a9, a4, 60
    b1ea:	ffd946        	j	0xb153
    b1ed:	1b2492        	l32i	a9, a4, 108
    b1f0:	1b0c      	movi.n	a11, 1
    b1f2:	3099b0        	xor	a9, a9, a11
    b1f5:	ffbb46        	j	0xb0e6
    b1f8:	807600        	add	a7, a6, a0
    b1fb:	75d804        	excw
    b1fe:	028da7        	bany	a13, a10, 0xb204
    b201:	fffd06        	j	0xb1f9
    b204:	4e0c      	movi.n	a14, 4
    b206:	fb66c2        	s32i	a12, a6, 0x3ec
    b209:	fc66b2        	s32i	a11, a6, 0x3f0
    b20c:	75e9      	s32i.n	a14, a5, 28
    b20e:	098076        	excw
    b211:	75f8      	l32i.n	a15, a5, 28
    b213:	020f27        	bnone	a15, a2, 0xb219
    b216:	ffc486        	j	0xb12c
    b219:	f03d      	nop.n
    b21b:	fffbc6        	j	0xb20e
    b21e:	51a8      	l32i.n	a10, a1, 20
    b220:	0b0c      	movi.n	a11, 0
    b222:	0c0c      	movi.n	a12, 0
    b224:	5d0c      	movi.n	a13, 5
    b226:	1e0c      	movi.n	a14, 1
    b228:	0f0c      	movi.n	a15, 0
    b22a:	fdbbe5        	excw
    b22d:	ffd3c6        	j	0xb180
    b230:	1c2492        	l32i	a9, a4, 112
    b233:	0a0c      	movi.n	a10, 0
    b235:	f87c      	movi.n	a8, -1
    b237:	196482        	s32i	a8, a4, 100
    b23a:	74a9      	s32i.n	a10, a4, 28
    b23c:	64a9      	s32i.n	a10, a4, 24
    b23e:	9989      	s32i.n	a8, a9, 36
    b240:	fee7c6        	j	0xade3
    b243:	7b9100        	excw
    b246:	fe4603        	excw
    b249:	fe          	.byte 0xfe
    b24a:	b20000        	excw
    b24d:	7f29      	s32i.n	a2, a15, 28
    b24f:	ff18c6        	j	0xaeb6
    b252:	210000        	srai	a0, a0, 0
    b255:	0c02b3        	excw
    b258:	82a8      	l32i.n	a10, a2, 32
    b25a:	206063        	excw
    b25d:	102a      	add.n	a1, a0, a2
    b25f:	1122d0        	slli	a2, a2, 3
    b262:	f01d      	excw
    b264:	02b321        	l32r	a2, 0xfffcbd30
    b267:	580c      	movi.n	a8, 5
    b269:	606382        	s32i	a8, a3, 0x180
    b26c:	102a20        	and	a2, a10, a2
    b26f:	1122d0        	slli	a2, a2, 3
    b272:	f01d      	excw
    b274:	02b321        	l32r	a2, 0xfffcbd40
    b277:	880c      	movi.n	a8, 8
    b279:	606382        	s32i	a8, a3, 0x180
    b27c:	102a20        	and	a2, a10, a2
    b27f:	1122d0        	slli	a2, a2, 3
    b282:	f01d      	excw
    b284:	02b321        	l32r	a2, 0xfffcbd50
    b287:	680c      	movi.n	a8, 6
    b289:	606382        	s32i	a8, a3, 0x180
    b28c:	102a20        	and	a2, a10, a2
    b28f:	1122d0        	slli	a2, a2, 3
    b292:	f01d      	excw
    b294:	02b321        	l32r	a2, 0xfffcbd60
    b297:	780c      	movi.n	a8, 7
    b299:	606382        	s32i	a8, a3, 0x180
    b29c:	102a20        	and	a2, a10, a2
    b29f:	1122d0        	slli	a2, a2, 3
    b2a2:	f01d      	excw
    b2a4:	004136        	excw
    b2a7:	290c      	movi.n	a9, 2
    b2a9:	5722a2        	l32i	a10, a2, 0x15c
    b2ac:	0d0c      	movi.n	a13, 0
    b2ae:	0b1c      	movi.n	a11, 16
    b2b0:	5862b2        	s32i	a11, a2, 0x160
    b2b3:	5962d2        	s32i	a13, a2, 0x164
    b2b6:	5a62d2        	s32i	a13, a2, 0x168
    b2b9:	2a88      	l32i.n	a8, a10, 8
    b2bb:	426282        	s32i	a8, a2, 0x108
    b2be:	3aa8      	l32i.n	a10, a10, 12
    b2c0:	4362a2        	s32i	a10, a2, 0x10c
    b2c3:	7289      	s32i.n	a8, a2, 28
    b2c5:	0662a2        	s32i	a10, a2, 24
    b2c8:	3762d2        	s32i	a13, a2, 220
    b2cb:	386292        	s32i	a9, a2, 224
    b2ce:	0b2816        	beqz	a8, 0xb384
    b2d1:	81a0a2        	movi	a10, 129
    b2d4:	5b62d2        	s32i	a13, a2, 0x16c
    b2d7:	02aef1        	l32r	a15, 0xfffcbd90
    b2da:	5c62d2        	s32i	a13, a2, 0x170
    b2dd:	5622b2        	l32i	a11, a2, 0x158
    b2e0:	e36fb2        	s32i	a11, a15, 0x38c
    b2e3:	e46fa2        	s32i	a10, a15, 0x390
    b2e6:	5a2292        	l32i	a9, a2, 0x168
    b2e9:	037c81        	l32r	a8, 0xfffcc0dc
    b2ec:	119940        	slli	a9, a9, 12
    b2ef:	c06f92        	s32i	a9, a15, 0x300
    b2f2:	c16f82        	s32i	a8, a15, 0x304
    b2f5:	5c22e2        	l32i	a14, a2, 0x170
    b2f8:	037dc1        	l32r	a12, 0xfffcc0ec
    b2fb:	037e91        	l32r	a9, 0xfffcc0f4
    b2fe:	41e4e0        	srli	a14, a14, 4
    b301:	01eeb0        	slli	a14, a14, 21
    b304:	10ee90        	and	a14, a14, a9
    b307:	c36fe2        	s32i	a14, a15, 0x30c
    b30a:	c26fc2        	s32i	a12, a15, 0x308
    b30d:	5a22b2        	l32i	a11, a2, 0x168
    b310:	037fa1        	l32r	a10, 0xfffcc10c
    b313:	70a0c2        	movi	a12, 112
    b316:	11bb40        	slli	a11, a11, 12
    b319:	20bbc0        	or	a11, a11, a12
    b31c:	c06fb2        	s32i	a11, a15, 0x300
    b31f:	c16fa2        	s32i	a10, a15, 0x304
    b322:	5c2282        	l32i	a8, a2, 0x170
    b325:	02afe1        	l32r	a14, 0xfffcbde4
    b328:	418480        	srli	a8, a8, 4
    b32b:	0188b0        	slli	a8, a8, 21
    b32e:	108890        	and	a8, a8, a9
    b331:	c36f82        	s32i	a8, a15, 0x30c
    b334:	c26fe2        	s32i	a14, a15, 0x308
    b337:	5c22c2        	l32i	a12, a2, 0x170
    b33a:	4222a2        	l32i	a10, a2, 0x108
    b33d:	5a22e2        	l32i	a14, a2, 0x168
    b340:	10ccc2        	addi	a12, a12, 16
    b343:	10caa2        	addi	a10, a10, 16
    b346:	10cee2        	addi	a14, a14, 16
    b349:	5a62e2        	s32i	a14, a2, 0x168
    b34c:	4262a2        	s32i	a10, a2, 0x108
    b34f:	5c62c2        	s32i	a12, a2, 0x170
    b352:	02ccb6        	bltui	a12, 32, 0xb358
    b355:	5c62d2        	s32i	a13, a2, 0x170
    b358:	a2c8      	l32i.n	a12, a2, 40
    b35a:	1a3ac7        	bltu	a10, a12, 0xb378
    b35d:	4322b2        	l32i	a11, a2, 0x10c
    b360:	f03d      	nop.n
    b362:	0d8076        	excw
    b365:	bb1b      	addi.n	a11, a11, 1
    b367:	c0aac0        	sub	a10, a10, a12
    b36a:	4262a2        	s32i	a10, a2, 0x108
    b36d:	4362b2        	s32i	a11, a2, 0x10c
    b370:	043ac7        	bltu	a10, a12, 0xb378
    b373:	fffa46        	j	0xb360
    b376:	a10000        	sll	a0, a0
    b379:	02bc      	beqz.n	a2, 0xb3ad
    b37b:	64a0b2        	movi	a11, 100
    b37e:	fb9425        	excw
    b381:	f01d      	excw
    b383:	9a5600        	excw
    b386:	12d9f4        	excw
    b389:	ffd106        	j	0xb2d1
    b38c:	004136        	excw
    b38f:	c248      	l32i.n	a4, a2, 48
    b391:	432232        	l32i	a3, a2, 0x10c
    b394:	023347        	bltu	a3, a4, 0xb39a
    b397:	002e86        	j	0xb455
    b39a:	080c      	movi.n	a8, 0
    b39c:	f50c      	movi.n	a5, 15
    b39e:	5a2242        	l32i	a4, a2, 0x168
    b3a1:	586252        	s32i	a5, a2, 0x160
    b3a4:	02ae51        	l32r	a5, 0xfffcbe5c
    b3a7:	1df466        	bnei	a4, 0x100, 0xb3c8
    b3aa:	5a6282        	s32i	a8, a2, 0x168
    b3ad:	5922a2        	l32i	a10, a2, 0x164
    b3b0:	038091        	l32r	a9, 0xfffcc1b0
    b3b3:	562262        	l32i	a6, a2, 0x158
    b3b6:	01caa2        	addi	a10, a10, 1
    b3b9:	829a90        	mull	a9, a10, a9
    b3bc:	5962a2        	s32i	a10, a2, 0x164
    b3bf:	806690        	add	a6, a6, a9
    b3c2:	e36562        	s32i	a6, a5, 0x38c
    b3c5:	5a2242        	l32i	a4, a2, 0x168
    b3c8:	037c91        	l32r	a9, 0xfffcc1b8
    b3cb:	11a440        	slli	a10, a4, 12
    b3ce:	c065a2        	s32i	a10, a5, 0x300
    b3d1:	c16592        	s32i	a9, a5, 0x304
    b3d4:	5c2272        	l32i	a7, a2, 0x170
    b3d7:	037d61        	l32r	a6, 0xfffcc1cc
    b3da:	037ee1        	l32r	a14, 0xfffcc1d4
    b3dd:	417470        	srli	a7, a7, 4
    b3e0:	0177b0        	slli	a7, a7, 21
    b3e3:	1077e0        	and	a7, a7, a14
    b3e6:	c36572        	s32i	a7, a5, 0x30c
    b3e9:	c26562        	s32i	a6, a5, 0x308
    b3ec:	5a2232        	l32i	a3, a2, 0x168
    b3ef:	037ff1        	l32r	a15, 0xfffcc1ec
    b3f2:	70a062        	movi	a6, 112
    b3f5:	113340        	slli	a3, a3, 12
    b3f8:	203360        	or	a3, a3, a6
    b3fb:	c06532        	s32i	a3, a5, 0x300
    b3fe:	c165f2        	s32i	a15, a5, 0x304
    b401:	5c22d2        	l32i	a13, a2, 0x170
    b404:	02afc1        	l32r	a12, 0xfffcbec0
    b407:	f03d      	nop.n
    b409:	41d4d0        	srli	a13, a13, 4
    b40c:	01ddb0        	slli	a13, a13, 21
    b40f:	10dde0        	and	a13, a13, a14
    b412:	c365d2        	s32i	a13, a5, 0x30c
    b415:	c265c2        	s32i	a12, a5, 0x308
    b418:	5c22b2        	l32i	a11, a2, 0x170
    b41b:	422252        	l32i	a5, a2, 0x108
    b41e:	5a22c2        	l32i	a12, a2, 0x168
    b421:	10cbb2        	addi	a11, a11, 16
    b424:	10c552        	addi	a5, a5, 16
    b427:	10ccc2        	addi	a12, a12, 16
    b42a:	5a62c2        	s32i	a12, a2, 0x168
    b42d:	426252        	s32i	a5, a2, 0x108
    b430:	5c62b2        	s32i	a11, a2, 0x170
    b433:	02cbb6        	bltui	a11, 32, 0xb439
    b436:	5c6282        	s32i	a8, a2, 0x170
    b439:	a278      	l32i.n	a7, a2, 40
    b43b:	163577        	bltu	a5, a7, 0xb455
    b43e:	432262        	l32i	a6, a2, 0x10c
    b441:	0d8076        	excw
    b444:	661b      	addi.n	a6, a6, 1
    b446:	c05570        	sub	a5, a5, a7
    b449:	426252        	s32i	a5, a2, 0x108
    b44c:	436262        	s32i	a6, a2, 0x10c
    b44f:	023577        	bltu	a5, a7, 0xb455
    b452:	fffac6        	j	0xb441
    b455:	f01d      	excw
    b457:	413600        	srli	a3, a0, 6
    b45a:	02ad00        	excw
    b45d:	1b0c      	movi.n	a11, 1
    b45f:	02b641        	l32r	a4, 0xfffcbf38
    b462:	0c2c      	movi.n	a12, 32
    b464:	1d0c      	movi.n	a13, 1
    b466:	424a      	add.n	a4, a2, a4
    b468:	7f2432        	l32i	a3, a4, 0x1fc
    b46b:	0e0c      	movi.n	a14, 0
    b46d:	00a0f2        	movi	a15, 0
    b470:	572332        	l32i	a3, a3, 0x15c
    b473:	fd9765        	excw
    b476:	02ad      	mov.n	a10, a2
    b478:	0b0c      	movi.n	a11, 0
    b47a:	1c0c      	movi.n	a12, 1
    b47c:	1d0c      	movi.n	a13, 1
    b47e:	0e0c      	movi.n	a14, 0
    b480:	00a0f2        	movi	a15, 0
    b483:	fd9665        	excw
    b486:	02ad      	mov.n	a10, a2
    b488:	2f23b2        	l32i	a11, a3, 188
    b48b:	2c0c      	movi.n	a12, 2
    b48d:	1d0c      	movi.n	a13, 1
    b48f:	0e0c      	movi.n	a14, 0
    b491:	0f0c      	movi.n	a15, 0
    b493:	fd9565        	excw
    b496:	02ad      	mov.n	a10, a2
    b498:	b3b8      	l32i.n	a11, a3, 44
    b49a:	5c0c      	movi.n	a12, 5
    b49c:	1d0c      	movi.n	a13, 1
    b49e:	0e0c      	movi.n	a14, 0
    b4a0:	0f0c      	movi.n	a15, 0
    b4a2:	fd9465        	excw
    b4a5:	02ad      	mov.n	a10, a2
    b4a7:	0423b2        	l32i	a11, a3, 16
    b4aa:	fdac65        	excw
    b4ad:	02ad      	mov.n	a10, a2
    b4af:	1d0c      	movi.n	a13, 1
    b4b1:	e822c2        	l32i	a12, a2, 0x3a0
    b4b4:	0e0c      	movi.n	a14, 0
    b4b6:	0f0c      	movi.n	a15, 0
    b4b8:	3cb8      	l32i.n	a11, a12, 12
    b4ba:	100cc2        	l8ui	a12, a12, 16
    b4bd:	fd92a5        	excw
    b4c0:	53b8      	l32i.n	a11, a3, 20
    b4c2:	02ad      	mov.n	a10, a2
    b4c4:	bb5b      	addi.n	a11, a11, 5
    b4c6:	fdaaa5        	excw
    b4c9:	02ad      	mov.n	a10, a2
    b4cb:	0e0c      	movi.n	a14, 0
    b4cd:	0f0c      	movi.n	a15, 0
    b4cf:	e822c2        	l32i	a12, a2, 0x3a0
    b4d2:	53b8      	l32i.n	a11, a3, 20
    b4d4:	7f2482        	l32i	a8, a4, 0x1fc
    b4d7:	190c      	movi.n	a9, 1
    b4d9:	09dd      	mov.n	a13, a9
    b4db:	262852        	l32i	a5, a8, 152
    b4de:	401b00        	ssl	a11
    b4e1:	a19900        	sll	a9, a9
    b4e4:	205590        	or	a5, a5, a9
    b4e7:	266852        	s32i	a5, a8, 152
    b4ea:	3cb8      	l32i.n	a11, a12, 12
    b4ec:	100cc2        	l8ui	a12, a12, 16
    b4ef:	fd8fa5        	excw
    b4f2:	02ad      	mov.n	a10, a2
    b4f4:	0623b2        	l32i	a11, a3, 24
    b4f7:	fda7a5        	excw
    b4fa:	02ad      	mov.n	a10, a2
    b4fc:	1d0c      	movi.n	a13, 1
    b4fe:	e822c2        	l32i	a12, a2, 0x3a0
    b501:	0e0c      	movi.n	a14, 0
    b503:	0f0c      	movi.n	a15, 0
    b505:	3cb8      	l32i.n	a11, a12, 12
    b507:	100cc2        	l8ui	a12, a12, 16
    b50a:	fd8de5        	excw
    b50d:	02ad      	mov.n	a10, a2
    b50f:	73b8      	l32i.n	a11, a3, 28
    b511:	1d0c      	movi.n	a13, 1
    b513:	4423c2        	l32i	a12, a3, 0x110
    b516:	0e0c      	movi.n	a14, 0
    b518:	0f0c      	movi.n	a15, 0
    b51a:	cc4b      	addi.n	a12, a12, 4
    b51c:	74c0c0        	extui	a12, a12, 0, 8
    b51f:	fd8ca5        	excw
    b522:	83d8      	l32i.n	a13, a3, 32
    b524:	1dec      	bnez.n	a13, 0xb549
    b526:	02ad      	mov.n	a10, a2
    b528:	93b8      	l32i.n	a11, a3, 36
    b52a:	1c0c      	movi.n	a12, 1
    b52c:	1d0c      	movi.n	a13, 1
    b52e:	0e0c      	movi.n	a14, 0
    b530:	0f0c      	movi.n	a15, 0
    b532:	fd8b65        	excw
    b535:	93e8      	l32i.n	a14, a3, 36
    b537:	ee8c      	beqz.n	a14, 0xb549
    b539:	02ad      	mov.n	a10, a2
    b53b:	a3b8      	l32i.n	a11, a3, 40
    b53d:	1c0c      	movi.n	a12, 1
    b53f:	1d0c      	movi.n	a13, 1
    b541:	0e0c      	movi.n	a14, 0
    b543:	00a0f2        	movi	a15, 0
    b546:	fd8a25        	excw
    b549:	b3f8      	l32i.n	a15, a3, 44
    b54b:	1b5f66        	bnei	a15, 5, 0xb56a
    b54e:	02ad      	mov.n	a10, a2
    b550:	c3b8      	l32i.n	a11, a3, 48
    b552:	fda1e5        	excw
    b555:	02ad      	mov.n	a10, a2
    b557:	1d0c      	movi.n	a13, 1
    b559:	e822c2        	l32i	a12, a2, 0x3a0
    b55c:	0e0c      	movi.n	a14, 0
    b55e:	00a0f2        	movi	a15, 0
    b561:	032cb2        	l32i	a11, a12, 12
    b564:	100cc2        	l8ui	a12, a12, 16
    b567:	fd8825        	excw
    b56a:	d398      	l32i.n	a9, a3, 52
    b56c:	21d916        	beqz	a9, 0xb78d
    b56f:	d90b      	addi.n	a13, a9, -1
    b571:	14bd16        	beqz	a13, 0xb6c0
    b574:	1423e2        	l32i	a14, a3, 80
    b577:	9e9c      	beqz.n	a14, 0xb594
    b579:	02ad      	mov.n	a10, a2
    b57b:	1523b2        	l32i	a11, a3, 84
    b57e:	fd9f25        	excw
    b581:	02ad      	mov.n	a10, a2
    b583:	1d0c      	movi.n	a13, 1
    b585:	e822c2        	l32i	a12, a2, 0x3a0
    b588:	0e0c      	movi.n	a14, 0
    b58a:	0f0c      	movi.n	a15, 0
    b58c:	3cb8      	l32i.n	a11, a12, 12
    b58e:	100cc2        	l8ui	a12, a12, 16
    b591:	fd8565        	excw
    b594:	5398      	l32i.n	a9, a3, 20
    b596:	121966        	bnei	a9, 1, 0xb5ac
    b599:	02ad      	mov.n	a10, a2
    b59b:	1623b2        	l32i	a11, a3, 88
    b59e:	1c0c      	movi.n	a12, 1
    b5a0:	1d0c      	movi.n	a13, 1
    b5a2:	0e0c      	movi.n	a14, 0
    b5a4:	00a0f2        	movi	a15, 0
    b5a7:	fd8425        	excw
    b5aa:	5398      	l32i.n	a9, a3, 20
    b5ac:	15c916        	beqz	a9, 0xb70c
    b5af:	fdc9d2        	addi	a13, a9, -3
    b5b2:	156d16        	beqz	a13, 0xb70c
    b5b5:	e90b      	addi.n	a14, a9, -1
    b5b7:	151e16        	beqz	a14, 0xb70c
    b5ba:	172926        	beqi	a9, 2, 0xb5d5
    b5bd:	144926        	beqi	a9, 4, 0xb5d5
    b5c0:	02ad      	mov.n	a10, a2
    b5c2:	1a23b2        	l32i	a11, a3, 104
    b5c5:	1c0c      	movi.n	a12, 1
    b5c7:	1d0c      	movi.n	a13, 1
    b5c9:	00a0e2        	movi	a14, 0
    b5cc:	00a0f2        	movi	a15, 0
    b5cf:	fd81a5        	excw
    b5d2:	052392        	l32i	a9, a3, 20
    b5d5:	0f1966        	bnei	a9, 1, 0xb5e8
    b5d8:	02ad      	mov.n	a10, a2
    b5da:	1b23b2        	l32i	a11, a3, 108
    b5dd:	1c0c      	movi.n	a12, 1
    b5df:	1d0c      	movi.n	a13, 1
    b5e1:	0e0c      	movi.n	a14, 0
    b5e3:	0f0c      	movi.n	a15, 0
    b5e5:	fd8025        	excw
    b5e8:	2f23f2        	l32i	a15, a3, 188
    b5eb:	6f9c      	beqz.n	a15, 0xb605
    b5ed:	b388      	l32i.n	a8, a3, 44
    b5ef:	fbc882        	addi	a8, a8, -5
    b5f2:	16f816        	beqz	a8, 0xb765
    b5f5:	02ad      	mov.n	a10, a2
    b5f7:	3223b2        	l32i	a11, a3, 200
    b5fa:	1c0c      	movi.n	a12, 1
    b5fc:	1d0c      	movi.n	a13, 1
    b5fe:	0e0c      	movi.n	a14, 0
    b600:	0f0c      	movi.n	a15, 0
    b602:	fd7e65        	excw
    b605:	372392        	l32i	a9, a3, 220
    b608:	19ac      	beqz.n	a9, 0xb62d
    b60a:	5398      	l32i.n	a9, a3, 20
    b60c:	1d2926        	beqi	a9, 2, 0xb62d
    b60f:	1a4926        	beqi	a9, 4, 0xb62d
    b612:	02ad      	mov.n	a10, a2
    b614:	3823b2        	l32i	a11, a3, 224
    b617:	fd95a5        	excw
    b61a:	02ad      	mov.n	a10, a2
    b61c:	1d0c      	movi.n	a13, 1
    b61e:	e822c2        	l32i	a12, a2, 0x3a0
    b621:	0e0c      	movi.n	a14, 0
    b623:	0f0c      	movi.n	a15, 0
    b625:	3cb8      	l32i.n	a11, a12, 12
    b627:	100cc2        	l8ui	a12, a12, 16
    b62a:	fd7be5        	excw
    b62d:	02ad      	mov.n	a10, a2
    b62f:	3923b2        	l32i	a11, a3, 228
    b632:	fd96a5        	excw
    b635:	02ad      	mov.n	a10, a2
    b637:	1d0c      	movi.n	a13, 1
    b639:	e822c2        	l32i	a12, a2, 0x3a0
    b63c:	0e0c      	movi.n	a14, 0
    b63e:	0f0c      	movi.n	a15, 0
    b640:	3cb8      	l32i.n	a11, a12, 12
    b642:	100cc2        	l8ui	a12, a12, 16
    b645:	fd7a25        	excw
    b648:	3d23d2        	l32i	a13, a3, 244
    b64b:	059d16        	beqz	a13, 0xb6a8
    b64e:	02ad      	mov.n	a10, a2
    b650:	3e23b2        	l32i	a11, a3, 248
    b653:	fd91e5        	excw
    b656:	02ad      	mov.n	a10, a2
    b658:	1d0c      	movi.n	a13, 1
    b65a:	e822c2        	l32i	a12, a2, 0x3a0
    b65d:	0e0c      	movi.n	a14, 0
    b65f:	0f0c      	movi.n	a15, 0
    b661:	3cb8      	l32i.n	a11, a12, 12
    b663:	100cc2        	l8ui	a12, a12, 16
    b666:	fd7825        	excw
    b669:	3e23d2        	l32i	a13, a3, 248
    b66c:	381d26        	beqi	a13, 1, 0xb6a8
    b66f:	20a220        	or	a10, a2, a2
    b672:	3f23b2        	l32i	a11, a3, 252
    b675:	fd9265        	excw
    b678:	02ad      	mov.n	a10, a2
    b67a:	1d0c      	movi.n	a13, 1
    b67c:	e822c2        	l32i	a12, a2, 0x3a0
    b67f:	0e0c      	movi.n	a14, 0
    b681:	0f0c      	movi.n	a15, 0
    b683:	032cb2        	l32i	a11, a12, 12
    b686:	100cc2        	l8ui	a12, a12, 16
    b689:	fd75e5        	excw
    b68c:	20a220        	or	a10, a2, a2
    b68f:	4023b2        	l32i	a11, a3, 0x100
    b692:	fd90a5        	excw
    b695:	02ad      	mov.n	a10, a2
    b697:	1d0c      	movi.n	a13, 1
    b699:	e822c2        	l32i	a12, a2, 0x3a0
    b69c:	0e0c      	movi.n	a14, 0
    b69e:	0f0c      	movi.n	a15, 0
    b6a0:	3cb8      	l32i.n	a11, a12, 12
    b6a2:	100cc2        	l8ui	a12, a12, 16
    b6a5:	fd7425        	excw
    b6a8:	3723d2        	l32i	a13, a3, 220
    b6ab:	ed8c      	beqz.n	a13, 0xb6bd
    b6ad:	02ad      	mov.n	a10, a2
    b6af:	0b0c      	movi.n	a11, 0
    b6b1:	0c0c      	movi.n	a12, 0
    b6b3:	5d0c      	movi.n	a13, 5
    b6b5:	0e0c      	movi.n	a14, 0
    b6b7:	ffa0f2        	movi	a15, 255
    b6ba:	fd72e5        	excw
    b6bd:	f01d      	excw
    b6bf:	23e200        	excw
    b6c2:	de5611        	l32r	a1, 0x301c (0xc0ca20f0)
    b6c5:	adea      	add.n	a10, a13, a14
    b6c7:	23b202        	excw
    b6ca:	8d2512        	l32i	a1, a5, 0x234
    b6cd:	adfd      	excw
    b6cf:	1d0c02        	l8ui	a0, a12, 29
    b6d2:	e822c2        	l32i	a12, a2, 0x3a0
    b6d5:	0e0c      	movi.n	a14, 0
    b6d7:	0f0c      	movi.n	a15, 0
    b6d9:	3cb8      	l32i.n	a11, a12, 12
    b6db:	100cc2        	l8ui	a12, a12, 16
    b6de:	fd70a5        	excw
    b6e1:	f3d8      	l32i.n	a13, a3, 60
    b6e3:	e8dd16        	beqz	a13, 0xb574
    b6e6:	93e8      	l32i.n	a14, a3, 36
    b6e8:	e88e56        	bnez	a14, 0xb574
    b6eb:	20a220        	or	a10, a2, a2
    b6ee:	1323b2        	l32i	a11, a3, 76
    b6f1:	fd8aa5        	excw
    b6f4:	02ad      	mov.n	a10, a2
    b6f6:	1d0c      	movi.n	a13, 1
    b6f8:	e822c2        	l32i	a12, a2, 0x3a0
    b6fb:	0e0c      	movi.n	a14, 0
    b6fd:	0f0c      	movi.n	a15, 0
    b6ff:	032cb2        	l32i	a11, a12, 12
    b702:	100cc2        	l8ui	a12, a12, 16
    b705:	fd6e25        	excw
    b708:	ff9a06        	j	0xb574
    b70b:	02ad00        	excw
    b70e:	1723b2        	l32i	a11, a3, 92
    b711:	1c0c      	movi.n	a12, 1
    b713:	1d0c      	movi.n	a13, 1
    b715:	0e0c      	movi.n	a14, 0
    b717:	0f0c      	movi.n	a15, 0
    b719:	fd6ce5        	excw
    b71c:	1723d2        	l32i	a13, a3, 92
    b71f:	065d16        	beqz	a13, 0xb788
    b722:	02ad      	mov.n	a10, a2
    b724:	1823b2        	l32i	a11, a3, 96
    b727:	fd84a5        	excw
    b72a:	02ad      	mov.n	a10, a2
    b72c:	1d0c      	movi.n	a13, 1
    b72e:	e822c2        	l32i	a12, a2, 0x3a0
    b731:	0e0c      	movi.n	a14, 0
    b733:	0f0c      	movi.n	a15, 0
    b735:	032cb2        	l32i	a11, a12, 12
    b738:	100cc2        	l8ui	a12, a12, 16
    b73b:	fd6ae5        	excw
    b73e:	5398      	l32i.n	a9, a3, 20
    b740:	d90b      	addi.n	a13, a9, -1
    b742:	e74d56        	bnez	a13, 0xb5ba
    b745:	02ad      	mov.n	a10, a2
    b747:	1923b2        	l32i	a11, a3, 100
    b74a:	fd8265        	excw
    b74d:	02ad      	mov.n	a10, a2
    b74f:	1d0c      	movi.n	a13, 1
    b751:	e822c2        	l32i	a12, a2, 0x3a0
    b754:	0e0c      	movi.n	a14, 0
    b756:	0f0c      	movi.n	a15, 0
    b758:	3cb8      	l32i.n	a11, a12, 12
    b75a:	100cc2        	l8ui	a12, a12, 16
    b75d:	fd68a5        	excw
    b760:	5398      	l32i.n	a9, a3, 20
    b762:	ff9506        	j	0xb5ba
    b765:	02ad      	mov.n	a10, a2
    b767:	3023b2        	l32i	a11, a3, 192
    b76a:	1c0c      	movi.n	a12, 1
    b76c:	1d0c      	movi.n	a13, 1
    b76e:	0e0c      	movi.n	a14, 0
    b770:	0f0c      	movi.n	a15, 0
    b772:	fd6765        	excw
    b775:	02ad      	mov.n	a10, a2
    b777:	3123b2        	l32i	a11, a3, 196
    b77a:	1c0c      	movi.n	a12, 1
    b77c:	1d0c      	movi.n	a13, 1
    b77e:	0e0c      	movi.n	a14, 0
    b780:	0f0c      	movi.n	a15, 0
    b782:	fd6665        	excw
    b785:	ff9f06        	j	0xb605
    b788:	5398      	l32i.n	a9, a3, 20
    b78a:	ff8b06        	j	0xb5ba
    b78d:	02ad      	mov.n	a10, a2
    b78f:	e3b8      	l32i.n	a11, a3, 56
    b791:	1d0c      	movi.n	a13, 1
    b793:	4523c2        	l32i	a12, a3, 0x114
    b796:	0e0c      	movi.n	a14, 0
    b798:	0f0c      	movi.n	a15, 0
    b79a:	cc4b      	addi.n	a12, a12, 4
    b79c:	74c0c0        	extui	a12, a12, 0, 8
    b79f:	fd64a5        	excw
    b7a2:	f3d8      	l32i.n	a13, a3, 60
    b7a4:	dd9c      	beqz.n	a13, 0xb7c5
    b7a6:	93e8      	l32i.n	a14, a3, 36
    b7a8:	9edc      	bnez.n	a14, 0xb7c5
    b7aa:	02ad      	mov.n	a10, a2
    b7ac:	1023b2        	l32i	a11, a3, 64
    b7af:	fd7ee5        	excw
    b7b2:	02ad      	mov.n	a10, a2
    b7b4:	1d0c      	movi.n	a13, 1
    b7b6:	e822c2        	l32i	a12, a2, 0x3a0
    b7b9:	0e0c      	movi.n	a14, 0
    b7bb:	0f0c      	movi.n	a15, 0
    b7bd:	3cb8      	l32i.n	a11, a12, 12
    b7bf:	100cc2        	l8ui	a12, a12, 16
    b7c2:	fd6265        	excw
    b7c5:	d398      	l32i.n	a9, a3, 52
    b7c7:	ff6906        	j	0xb56f
    b7ca:	360000        	excw
    b7cd:	2c0041        	l32r	a4, 0xfffd67d0
    b7d0:	a2c8      	l32i.n	a12, a2, 40
    b7d2:	9200a3        	excw
    b7d5:	515ca2        	s16i	a10, a12, 162
    b7d8:	380383        	excw
    b7db:	82b182        	excw
    b7de:	814103        	excw
    b7e1:	535a03        	excw
    b7e4:	b3ba      	add.n	a11, a3, a11
    b7e6:	434a      	add.n	a4, a3, a4
    b7e8:	b26492        	s32i	a9, a4, 0x2c8
    b7eb:	b164a2        	s32i	a10, a4, 0x2c4
    b7ee:	b36482        	s32i	a8, a4, 0x2cc
    b7f1:	03ad      	mov.n	a10, a3
    b7f3:	b464b2        	s32i	a11, a4, 0x2d0
    b7f6:	b66452        	s32i	a5, a4, 0x2d8
    b7f9:	b564b2        	s32i	a11, a4, 0x2d4
    b7fc:	d358      	l32i.n	a5, a3, 52
    b7fe:	482442        	l32i	a4, a4, 0x120
    b801:	fb4625        	excw
    b804:	038491        	l32r	a9, 0xfffcc614
    b807:	480c      	movi.n	a8, 4
    b809:	339a      	add.n	a3, a3, a9
    b80b:	8a4382        	s8i	a8, a3, 138
    b80e:	3022a2        	l32i	a10, a2, 192
    b811:	f8b225        	excw
    b814:	1d63a2        	s32i	a10, a3, 116
    b817:	2f22a2        	l32i	a10, a2, 188
    b81a:	f8b1a5        	excw
    b81d:	2c0c      	movi.n	a12, 2
    b81f:	0d1c      	movi.n	a13, 16
    b821:	1c63a2        	s32i	a10, a3, 112
    b824:	0b0c      	movi.n	a11, 0
    b826:	1a0c      	movi.n	a10, 1
    b828:	6064b2        	s32i	a11, a4, 0x180
    b82b:	5e64a2        	s32i	a10, a4, 0x178
    b82e:	2e22e2        	l32i	a14, a2, 184
    b831:	2e65e2        	s32i	a14, a5, 184
    b834:	1265d2        	s32i	a13, a5, 72
    b837:	04c9      	s32i.n	a12, a4, 0
    b839:	a5b9      	s32i.n	a11, a5, 40
    b83b:	b5b9      	s32i.n	a11, a5, 44
    b83d:	15a9      	s32i.n	a10, a5, 4
    b83f:	f01d      	excw
    b841:	000000        	ill
    b844:	006136        	excw
    b847:	0385c1        	l32r	a12, 0xfffcc65c
    b84a:	dfafa2        	movi	a10, -33
    b84d:	038661        	l32r	a6, 0xfffcc668
    b850:	092c      	movi.n	a9, 32
    b852:	038731        	l32r	a3, 0xfffcc670
    b855:	74a1f2        	movi	a15, 0x174
    b858:	8248      	l32i.n	a4, a2, 32
    b85a:	0243e1        	l32r	a14, 0xfffcc168
    b85d:	0b0c      	movi.n	a11, 0
    b85f:	c8a572        	movi	a7, 0x5c8
    b862:	727a      	add.n	a7, a2, a7
    b864:	01b9      	s32i.n	a11, a1, 0
    b866:	c82e82        	l32i	a8, a14, 0x320
    b869:	0189      	s32i.n	a8, a1, 0
    b86b:	0188      	l32i.n	a8, a1, 0
    b86d:	f4fa      	add.n	a15, a4, a15
    b86f:	343a      	add.n	a3, a4, a3
    b871:	208890        	or	a8, a8, a9
    b874:	c86e82        	s32i	a8, a14, 0x320
    b877:	c82ed2        	l32i	a13, a14, 0x320
    b87a:	01d9      	s32i.n	a13, a1, 0
    b87c:	c82eb2        	l32i	a11, a14, 0x320
    b87f:	01b9      	s32i.n	a11, a1, 0
    b881:	c82e92        	l32i	a9, a14, 0x320
    b884:	0199      	s32i.n	a9, a1, 0
    b886:	c82e82        	l32i	a8, a14, 0x320
    b889:	0189      	s32i.n	a8, a1, 0
    b88b:	0188      	l32i.n	a8, a1, 0
    b88d:	646a      	add.n	a6, a4, a6
    b88f:	492692        	l32i	a9, a6, 0x124
    b892:	1088a0        	and	a8, a8, a10
    b895:	c86e82        	s32i	a8, a14, 0x320
    b898:	e023d2        	l32i	a13, a3, 0x380
    b89b:	c82ee2        	l32i	a14, a14, 0x320
    b89e:	01e9      	s32i.n	a14, a1, 0
    b8a0:	5c64f2        	s32i	a15, a4, 0x170
    b8a3:	41d4d0        	srli	a13, a13, 4
    b8a6:	c9d9      	s32i.n	a13, a9, 48
    b8a8:	df23b2        	l32i	a11, a3, 0x37c
    b8ab:	d4f8      	l32i.n	a15, a4, 52
    b8ad:	11f9      	s32i.n	a15, a1, 4
    b8af:	41b4b0        	srli	a11, a11, 4
    b8b2:	a9b9      	s32i.n	a11, a9, 40
    b8b4:	82bbd0        	mull	a11, a11, a13
    b8b7:	d9b9      	s32i.n	a11, a9, 52
    b8b9:	e023a2        	l32i	a10, a3, 0x380
    b8bc:	df2382        	l32i	a8, a3, 0x37c
    b8bf:	e16382        	s32i	a8, a3, 0x384
    b8c2:	e263a2        	s32i	a10, a3, 0x388
    b8c5:	418480        	srli	a8, a8, 4
    b8c8:	0b6982        	s32i	a8, a9, 44
    b8cb:	8127a2        	l32i	a10, a7, 0x204
    b8ce:	8027b2        	l32i	a11, a7, 0x200
    b8d1:	f66965        	excw
    b8d4:	05a0c2        	movi	a12, 5
    b8d7:	024a51        	l32r	a5, 0xfffcc200
    b8da:	1562a2        	s32i	a10, a2, 84
    b8dd:	7e27b2        	l32i	a11, a7, 0x1f8
    b8e0:	7f27a2        	l32i	a10, a7, 0x1fc
    b8e3:	5f2582        	l32i	a8, a5, 0x17c
    b8e6:	146282        	s32i	a8, a2, 80
    b8e9:	f03d      	nop.n
    b8eb:	f66965        	excw
    b8ee:	191c      	movi.n	a9, 17
    b8f0:	02f8d1        	l32r	a13, 0xfffcc4d0
    b8f3:	1522e2        	l32i	a14, a2, 84
    b8f6:	4926f2        	l32i	a15, a6, 0x124
    b8f9:	1762a2        	s32i	a10, a2, 92
    b8fc:	542582        	l32i	a8, a5, 0x150
    b8ff:	166282        	s32i	a8, a2, 88
    b902:	566fe2        	s32i	a14, a15, 0x158
    b905:	4926c2        	l32i	a12, a6, 0x124
    b908:	d4da      	add.n	a13, a4, a13
    b90a:	b626b2        	l32i	a11, a6, 0x2d8
    b90d:	1c6cd2        	s32i	a13, a12, 112
    b910:	576ca2        	s32i	a10, a12, 0x15c
    b913:	0b99      	s32i.n	a9, a11, 0
    b915:	f67525        	excw
    b918:	1422c2        	l32i	a12, a2, 80
    b91b:	5f65c2        	s32i	a12, a5, 0x17c
    b91e:	1622b2        	l32i	a11, a2, 88
    b921:	5465b2        	s32i	a11, a5, 0x150
    b924:	1a22a2        	l32i	a10, a2, 104
    b927:	5365a2        	s32i	a10, a5, 0x14c
    b92a:	02ad      	mov.n	a10, a2
    b92c:	b298      	l32i.n	a9, a2, 44
    b92e:	5a6592        	s32i	a9, a5, 0x168
    b931:	f9fda5        	excw
    b934:	04ad      	mov.n	a10, a4
    b936:	fe5225        	excw
    b939:	070c      	movi.n	a7, 0
    b93b:	f67c25        	excw
    b93e:	04ad      	mov.n	a10, a4
    b940:	012122        	l32i	a2, a1, 4
    b943:	01a0b2        	movi	a11, 1
    b946:	02ae51        	l32r	a5, 0xfffcc400
    b949:	4926d2        	l32i	a13, a6, 0x124
    b94c:	e86372        	s32i	a7, a3, 0x3a0
    b94f:	b56572        	s32i	a7, a5, 0x2d4
    b952:	266d72        	s32i	a7, a13, 152
    b955:	ff45a5        	excw
    b958:	1f0c      	movi.n	a15, 1
    b95a:	b2a9      	s32i.n	a10, a2, 44
    b95c:	e823e2        	l32i	a14, a3, 0x3a0
    b95f:	1a63f2        	s32i	a15, a3, 104
    b962:	1d63e2        	s32i	a14, a3, 116
    b965:	f680e5        	excw
    b968:	1623b2        	l32i	a11, a3, 88
    b96b:	2ba9      	s32i.n	a10, a11, 8
    b96d:	e92322        	l32i	a2, a3, 0x3a4
    b970:	a525a2        	l32i	a10, a5, 0x294
    b973:	1e63a2        	s32i	a10, a3, 120
    b976:	a62592        	l32i	a9, a5, 0x298
    b979:	206392        	s32i	a9, a3, 128
    b97c:	a72582        	l32i	a8, a5, 0x29c
    b97f:	1f6322        	s32i	a2, a3, 124
    b982:	216382        	s32i	a8, a3, 132
    b985:	020c      	movi.n	a2, 0
    b987:	f01d      	excw
    b989:	000000        	ill
    b98c:	004136        	excw
    b98f:	040c      	movi.n	a4, 0
    b991:	145020        	extui	a5, a2, 0, 2
    b994:	159c      	beqz.n	a5, 0xb9a9
    b996:	470c      	movi.n	a7, 4
    b998:	c07750        	sub	a7, a7, a5
    b99b:	637730        	excw
    b99e:	c03370        	sub	a3, a3, a7
    b9a1:	049776        	excw
    b9a4:	004242        	s8i	a4, a2, 0
    b9a7:	221b      	addi.n	a2, a2, 1
    b9a9:	417230        	srli	a7, a3, 2
    b9ac:	f03d      	nop.n
    b9ae:	039776        	excw
    b9b1:	0249      	s32i.n	a4, a2, 0
    b9b3:	224b      	addi.n	a2, a2, 4
    b9b5:	143030        	extui	a3, a3, 0, 2
    b9b8:	f03d      	nop.n
    b9ba:	049376        	excw
    b9bd:	004242        	s8i	a4, a2, 0
    b9c0:	221b      	addi.n	a2, a2, 1
    b9c2:	f01d      	excw
    b9c4:	004136        	excw
    b9c7:	145020        	extui	a5, a2, 0, 2
    b9ca:	859c      	beqz.n	a5, 0xb9e6
    b9cc:	470c      	movi.n	a7, 4
    b9ce:	c07750        	sub	a7, a7, a5
    b9d1:	637740        	excw
    b9d4:	c04470        	sub	a4, a4, a7
    b9d7:	f03d      	nop.n
    b9d9:	099776        	excw
    b9dc:	000362        	l8ui	a6, a3, 0
    b9df:	331b      	addi.n	a3, a3, 1
    b9e1:	004262        	s8i	a6, a2, 0
    b9e4:	221b      	addi.n	a2, a2, 1
    b9e6:	059416        	beqz	a4, 0xba43
    b9e9:	145030        	extui	a5, a3, 0, 2
    b9ec:	05ec      	bnez.n	a5, 0xba10
    b9ee:	417340        	srli	a7, a4, 3
    b9f1:	0b9776        	excw
    b9f4:	0358      	l32i.n	a5, a3, 0
    b9f6:	1368      	l32i.n	a6, a3, 4
    b9f8:	338b      	addi.n	a3, a3, 8
    b9fa:	0259      	s32i.n	a5, a2, 0
    b9fc:	1269      	s32i.n	a6, a2, 4
    b9fe:	228b      	addi.n	a2, a2, 8
    ba00:	2f6427        	bbci	a4, 2, 0xba33
    ba03:	0358      	l32i.n	a5, a3, 0
    ba05:	334b      	addi.n	a3, a3, 4
    ba07:	0259      	s32i.n	a5, a2, 0
    ba09:	224b      	addi.n	a2, a2, 4
    ba0b:	000906        	j	0xba33
    ba0e:	400000        	ssr	a0
    ba11:	9c4172        	s8i	a7, a1, 156
    ba14:	6030c7        	bltu	a0, a12, 0xba78
    ba17:	230014        	excw
    ba1a:	636040        	excw
    ba1d:	3730c0        	excw
    ba20:	0658a0        	excw
    ba23:	0c9776        	excw
    ba26:	1688      	l32i.n	a8, a6, 4
    ba28:	815850        	src	a5, a8, a5
    ba2b:	0259      	s32i.n	a5, a2, 0
    ba2d:	664b      	addi.n	a6, a6, 4
    ba2f:	224b      	addi.n	a2, a2, 4
    ba31:	085d      	mov.n	a5, a8
    ba33:	144040        	extui	a4, a4, 0, 2
    ba36:	099476        	excw
    ba39:	000362        	l8ui	a6, a3, 0
    ba3c:	331b      	addi.n	a3, a3, 1
    ba3e:	004262        	s8i	a6, a2, 0
    ba41:	221b      	addi.n	a2, a2, 1
    ba43:	f01d      	excw
    ba45:	000000        	ill
    ba48:	004136        	excw
    ba4b:	2723b6        	bltui	a3, 2, 0xba76
    ba4e:	40f250        	nsau	a5, a2
    ba51:	40f340        	nsau	a4, a3
    ba54:	16b547        	bgeu	a5, a4, 0xba6e
    ba57:	c04450        	sub	a4, a4, a5
    ba5a:	401400        	ssl	a4
    ba5d:	a13300        	sll	a3, a3
    ba60:	f03d      	nop.n
    ba62:	089476        	excw
    ba65:	023237        	bltu	a2, a3, 0xba6b
    ba68:	c02230        	sub	a2, a2, a3
    ba6b:	413130        	srli	a3, a3, 1
    ba6e:	023237        	bltu	a2, a3, 0xba74
    ba71:	c02230        	sub	a2, a2, a3
    ba74:	f01d      	excw
    ba76:	020c      	movi.n	a2, 0
    ba78:	f01d      	excw
    ba7a:	360000        	excw
    ba7d:	b60041        	l32r	a4, 0xffff9280
    ba80:	6d3923        	excw
    ba83:	f25002        	s16i	a0, a0, 0x1e4
    ba86:	f34040        	excw
    ba89:	b54740        	extui	a4, a4, 23, 12
    ba8c:	445024        	excw
    ba8f:	1400c0        	extui	a0, a12, 0, 2
    ba92:	330040        	excw
    ba95:	a022a1        	l32r	a10, 0xffff3b20
    ba98:	947600        	extui	a7, a0, 6, 10
    ba9b:	370d      	excw
    ba9d:	300436        	excw
    baa0:	1bc066        	bnei	a0, 32, 0xbabf
    baa3:	22f022        	excw
    baa6:	313011        	l32r	a1, 0xfffd7f68
    baa9:	363741        	l32r	a4, 0xfffd9388
    baac:	c22202        	l32i	a0, a2, 0x308
    baaf:	f01d01        	l32r	a0, 0x7b24 (0x856e9229)
    bab2:	020c      	movi.n	a2, 0
    bab4:	013637        	bltu	a6, a3, 0xbab9
    bab7:	120c      	movi.n	a2, 1
    bab9:	f01d      	excw
    babb:	631600        	excw
    babe:	1dfb      	addi.n	a1, a13, 15
    bac0:	0000f0        	excw
    bac3:	413600        	srli	a3, a0, 6
    bac6:	722000        	excw
    bac9:	212020        	srai	a2, a2, 0
    bacc:	313060        	srai	a3, a6, 16
    bacf:	23b660        	excw
    bad2:	f250a2        	s16i	a10, a0, 0x1e4
    bad5:	f34040        	excw
    bad8:	b54740        	extui	a4, a4, 23, 12
    badb:	445023        	excw
    bade:	1400c0        	extui	a0, a12, 0, 2
    bae1:	330040        	excw
    bae4:	9476a1        	l32r	a10, 0xffff0cbc
    bae7:	3708      	l32i.n	a0, a7, 12
    bae9:	300232        	l8ui	a3, a2, 48
    baec:	30c022        	addi	a2, a0, 48
    baef:	374131        	l32r	a3, 0xfffd97f4
    baf2:	300232        	l8ui	a3, a2, 48
    baf5:	d6c022        	addi	a2, a0, -42
    baf8:	200027        	bnone	a0, a2, 0xbb1c
    bafb:	1d6020        	excw
    bafe:	3700f0        	excw
    bb01:	300232        	l8ui	a3, a2, 48
    bb04:	d6c022        	addi	a2, a0, -42
    bb07:	200027        	bnone	a0, a2, 0xbb2b
    bb0a:	1d6020        	excw
    bb0d:	0000f0        	excw
    bb10:	004136        	excw
    bb13:	307230        	xor	a7, a2, a3
    bb16:	606120        	abs	a6, a2
    bb19:	603130        	abs	a3, a3
    bb1c:	4423b6        	bltui	a3, 2, 0xbb64
    bb1f:	415160        	srli	a5, a6, 1
    bb22:	2e2537        	blt	a5, a3, 0xbb54
    bb25:	40f650        	nsau	a5, a6
    bb28:	40f340        	nsau	a4, a3
    bb2b:	c04450        	sub	a4, a4, a5
    bb2e:	401400        	ssl	a4
    bb31:	a13300        	sll	a3, a3
    bb34:	020c      	movi.n	a2, 0
    bb36:	0d9476        	excw
    bb39:	043637        	bltu	a6, a3, 0xbb41
    bb3c:	c06630        	sub	a6, a6, a3
    bb3f:	221b      	addi.n	a2, a2, 1
    bb41:	1122f0        	slli	a2, a2, 1
    bb44:	413130        	srli	a3, a3, 1
    bb47:	013637        	bltu	a6, a3, 0xbb4c
    bb4a:	221b      	addi.n	a2, a2, 1
    bb4c:	605020        	neg	a5, a2
    bb4f:	a32570        	movltz	a2, a5, a7
    bb52:	f01d      	excw
    bb54:	083637        	bltu	a6, a3, 0xbb60
    bb57:	120c      	movi.n	a2, 1
    bb59:	f47c      	movi.n	a4, -1
    bb5b:	a32470        	movltz	a2, a4, a7
    bb5e:	f01d      	excw
    bb60:	020c      	movi.n	a2, 0
    bb62:	f01d      	excw
    bb64:	638c      	beqz.n	a3, 0xbb6e
    bb66:	602060        	neg	a2, a6
    bb69:	b32670        	movgez	a2, a6, a7
    bb6c:	f01d      	excw
    bb6e:	020c      	movi.n	a2, 0
    bb70:	f01d      	excw
	...
    bbca:	800000        	add	a0, a0, a0
    bbcd:	00ba      	add.n	a0, a0, a11
    bbcf:	ba8060        	excw
    bbd2:	806000        	add	a6, a0, a0
    bbd5:	00ba      	add.n	a0, a0, a11
    bbd7:	ba8060        	excw
    bbda:	006000        	rsil	a0, 0
    bbdd:	000000        	ill
    bbe0:	200001        	l32r	a0, 0xfffd3be0
    bbe3:	001103        	excw
    bbe6:	000000        	ill
    bbe9:	000000        	ill
    bbec:	415b      	addi.n	a4, a1, 5
    bbee:	204954        	excw
    bbf1:	494c      	movi.n	a9, 68
    bbf3:	563d42        	excw
    bbf6:	464543        	excw
    bbf9:	352c57        	blt	a12, a5, 0xbc32
    bbfc:	302e30        	xor	a2, a14, a3
    bbff:	2e          	.byte 0x2e
    bc00:	005d31        	l32r	a3, 0xfffcbd74
	...
    bc0b:	415b00        	srli	a5, a0, 11
    bc0e:	204954        	excw
    bc11:	494c      	movi.n	a9, 68
    bc13:	563d42        	excw
    bc16:	464543        	excw
    bc19:	545357        	bbc	a3, a5, 0xbc71
    bc1c:	535441        	l32r	a4, 0xfffe096c
    bc1f:	312c      	movi.n	a1, 35
    bc21:	005d37        	bbc	a13, a3, 0xbc25
	...
    bc2c:	ff          	.byte 0xff
    bc2d:	ff          	.byte 0xff
    bc2e:	ff          	.byte 0xff
    bc2f:	ff          	.byte 0xff
    bc30:	000000        	ill
    bc33:	ffff00        	excw
    bc36:	ff          	.byte 0xff
    bc37:	ff          	.byte 0xff
    bc38:	000000        	ill
    bc3b:	ffff00        	excw
    bc3e:	ff          	.byte 0xff
    bc3f:	ff          	.byte 0xff
    bc40:	000000        	ill
    bc43:	ffff00        	excw
    bc46:	ff          	.byte 0xff
    bc47:	ff          	.byte 0xff
    bc48:	000000        	ill
    bc4b:	ffff00        	excw
    bc4e:	ff          	.byte 0xff
    bc4f:	ff          	.byte 0xff
    bc50:	000000        	ill
    bc53:	ffff00        	excw
    bc56:	ff          	.byte 0xff
    bc57:	ff          	.byte 0xff
    bc58:	000000        	ill
    bc5b:	ffff00        	excw
    bc5e:	ff          	.byte 0xff
    bc5f:	ff          	.byte 0xff
    bc60:	000000        	ill
    bc63:	ffff00        	excw
    bc66:	ff          	.byte 0xff
    bc67:	ff          	.byte 0xff
    bc68:	000000        	ill
    bc6b:	ffff00        	excw
    bc6e:	ff          	.byte 0xff
    bc6f:	ff          	.byte 0xff
    bc70:	000000        	ill
    bc73:	ffff00        	excw
    bc76:	ff          	.byte 0xff
    bc77:	ff          	.byte 0xff
    bc78:	000000        	ill
    bc7b:	ffff00        	excw
    bc7e:	ff          	.byte 0xff
    bc7f:	ff          	.byte 0xff
    bc80:	000000        	ill
    bc83:	ffff00        	excw
    bc86:	ff          	.byte 0xff
    bc87:	ff          	.byte 0xff
    bc88:	000000        	ill
    bc8b:	ffff00        	excw
    bc8e:	ff          	.byte 0xff
    bc8f:	ff          	.byte 0xff
    bc90:	000000        	ill
    bc93:	ffff00        	excw
    bc96:	ff          	.byte 0xff
    bc97:	ff          	.byte 0xff
    bc98:	000000        	ill
    bc9b:	ffff00        	excw
    bc9e:	ff          	.byte 0xff
    bc9f:	ff          	.byte 0xff
    bca0:	000000        	ill
    bca3:	ffff00        	excw
    bca6:	ff          	.byte 0xff
    bca7:	ff          	.byte 0xff
    bca8:	000000        	ill
    bcab:	ffff00        	excw
    bcae:	ff          	.byte 0xff
    bcaf:	ff          	.byte 0xff
    bcb0:	000000        	ill
    bcb3:	ffff00        	excw
    bcb6:	ff          	.byte 0xff
    bcb7:	ff          	.byte 0xff
    bcb8:	000000        	ill
    bcbb:	ffff00        	excw
    bcbe:	ff          	.byte 0xff
    bcbf:	ff          	.byte 0xff
    bcc0:	000000        	ill
    bcc3:	ffff00        	excw
    bcc6:	ff          	.byte 0xff
    bcc7:	ff          	.byte 0xff
    bcc8:	000000        	ill
    bccb:	ffff00        	excw
    bcce:	ff          	.byte 0xff
    bccf:	ff          	.byte 0xff
    bcd0:	000000        	ill
    bcd3:	ffff00        	excw
    bcd6:	ff          	.byte 0xff
    bcd7:	ff          	.byte 0xff
    bcd8:	000000        	ill
    bcdb:	ffff00        	excw
    bcde:	ff          	.byte 0xff
    bcdf:	ff          	.byte 0xff
    bce0:	000000        	ill
    bce3:	ffff00        	excw
    bce6:	ff          	.byte 0xff
    bce7:	ff          	.byte 0xff
    bce8:	000000        	ill
    bceb:	ffff00        	excw
    bcee:	ff          	.byte 0xff
    bcef:	ff          	.byte 0xff
    bcf0:	000000        	ill
    bcf3:	ffff00        	excw
    bcf6:	ff          	.byte 0xff
    bcf7:	ff          	.byte 0xff
    bcf8:	000000        	ill
    bcfb:	ffff00        	excw
    bcfe:	ff          	.byte 0xff
    bcff:	ff          	.byte 0xff
    bd00:	000000        	ill
    bd03:	ffff00        	excw
    bd06:	ff          	.byte 0xff
    bd07:	ff          	.byte 0xff
    bd08:	000000        	ill
    bd0b:	ffff00        	excw
    bd0e:	ff          	.byte 0xff
    bd0f:	ff          	.byte 0xff
    bd10:	000000        	ill
    bd13:	ffff00        	excw
    bd16:	ff          	.byte 0xff
    bd17:	ff          	.byte 0xff
    bd18:	000000        	ill
    bd1b:	ffff00        	excw
    bd1e:	ff          	.byte 0xff
    bd1f:	ff          	.byte 0xff
    bd20:	000000        	ill
    bd23:	ffff00        	excw
    bd26:	ff          	.byte 0xff
    bd27:	ff          	.byte 0xff