../git/linux-firmware/./rtlwifi/rtl8192sefw.bin:     file format binary


Disassembly of section .data:

00000000 <.data>:
       0:	70318192 	.word	0x70318192
       4:	00000030 	tge	zero,zero
       8:	00008c08 	.word	0x8c08
       c:	0000acc8 	.word	0xacc8
      10:	00000030 	tge	zero,zero
      14:	0000ab40 	sll	s5,zero,0xd
      18:	000d0031 	tgeu	zero,t5
      1c:	35120511 	ori	s2,t0,0x511
      20:	01018192 	.word	0x1018192
      24:	00220000 	.word	0x220000
      28:	00000000 	nop
      2c:	00000700 	sll	zero,zero,0x1c
	...
      38:	01000101 	.word	0x1000101
      3c:	00000101 	.word	0x101
	...
      50:	1000007f 	b	0x250
      54:	00000000 	nop
	...
      d0:	1000001f 	b	0x150
      d4:	00000000 	nop
	...
     150:	3c1ab025 	lui	k0,0xb025
     154:	375a0380 	ori	k0,k0,0x380
     158:	3c1b8000 	lui	k1,0x8000
     15c:	377b0080 	ori	k1,k1,0x80
     160:	af5b0000 	sw	k1,0(k0)
     164:	3c1ab025 	lui	k0,0xb025
     168:	375a0318 	ori	k0,k0,0x318
     16c:	3c1b8000 	lui	k1,0x8000
     170:	377b0080 	ori	k1,k1,0x80
     174:	af5b0000 	sw	k1,0(k0)
     178:	3c1a8001 	lui	k0,0x8001
     17c:	275a8468 	addiu	k0,k0,-31640
     180:	03400008 	jr	k0
     184:	00000000 	nop
	...
     250:	afa10004 	sw	at,4(sp)
     254:	afa20008 	sw	v0,8(sp)
     258:	afa3000c 	sw	v1,12(sp)
     25c:	afa40010 	sw	a0,16(sp)
     260:	afa50014 	sw	a1,20(sp)
     264:	afa60018 	sw	a2,24(sp)
     268:	afa7001c 	sw	a3,28(sp)
     26c:	afa80020 	sw	t0,32(sp)
     270:	afa90024 	sw	t1,36(sp)
     274:	afaa0028 	sw	t2,40(sp)
     278:	afab002c 	sw	t3,44(sp)
     27c:	afac0030 	sw	t4,48(sp)
     280:	afad0034 	sw	t5,52(sp)
     284:	afae0038 	sw	t6,56(sp)
     288:	afaf003c 	sw	t7,60(sp)
     28c:	00004012 	mflo	t0
     290:	00004810 	mfhi	t1
     294:	400a7000 	mfc0	t2,$14
     298:	afb00040 	sw	s0,64(sp)
     29c:	afb10044 	sw	s1,68(sp)
     2a0:	afb20048 	sw	s2,72(sp)
     2a4:	afb3004c 	sw	s3,76(sp)
     2a8:	afb40050 	sw	s4,80(sp)
     2ac:	afb50054 	sw	s5,84(sp)
     2b0:	afb60058 	sw	s6,88(sp)
     2b4:	afb7005c 	sw	s7,92(sp)
     2b8:	afb80060 	sw	t8,96(sp)
     2bc:	afb90064 	sw	t9,100(sp)
     2c0:	afbc0068 	sw	gp,104(sp)
     2c4:	afbd006c 	sw	sp,108(sp)
     2c8:	afbe0070 	sw	s8,112(sp)
     2cc:	afbf0074 	sw	ra,116(sp)
     2d0:	afa80078 	sw	t0,120(sp)
     2d4:	afa9007c 	sw	t1,124(sp)
     2d8:	afaa0080 	sw	t2,128(sp)
     2dc:	080020b5 	j	0x82d4
     2e0:	03a02021 	move	a0,sp
	...
     350:	3c06b025 	lui	a2,0xb025
     354:	3c028000 	lui	v0,0x8000
     358:	27bdffe8 	addiu	sp,sp,-24
     35c:	34c30318 	ori	v1,a2,0x318
     360:	24420300 	addiu	v0,v0,768
     364:	afbf0014 	sw	ra,20(sp)
     368:	afb00010 	sw	s0,16(sp)
     36c:	ac620000 	sw	v0,0(v1)
     370:	40016000 	mfc0	at,$12
     374:	34210001 	ori	at,at,0x1
     378:	40816000 	mtc0	at,$12
     37c:	3c03b042 	lui	v1,0xb042
     380:	34630003 	ori	v1,v1,0x3
     384:	90620000 	lbu	v0,0(v1)
     388:	3c0a8002 	lui	t2,0x8002
     38c:	3c108002 	lui	s0,0x8002
     390:	304200ff 	andi	v0,v0,0xff
     394:	00024600 	sll	t0,v0,0x18
     398:	30420010 	andi	v0,v0,0x10
     39c:	10400013 	beqz	v0,0x3ec
     3a0:	00084603 	sra	t0,t0,0x18
     3a4:	8d427e5c 	lw	v0,32348(t2)
     3a8:	26051568 	addiu	a1,s0,5480
     3ac:	94a463e8 	lhu	a0,25576(a1)
     3b0:	24470001 	addiu	a3,v0,1
     3b4:	24020010 	li	v0,16
     3b8:	34c903b0 	ori	t1,a2,0x3b0
     3bc:	a0620000 	sb	v0,0(v1)
     3c0:	10800007 	beqz	a0,0x3e0
     3c4:	34c6031c 	ori	a2,a2,0x31c
     3c8:	94a263ec 	lhu	v0,25580(a1)
     3cc:	a4a063e8 	sh	zero,25576(a1)
     3d0:	a4a063ec 	sh	zero,25580(a1)
     3d4:	24040000 	li	a0,0
     3d8:	acc20000 	sw	v0,0(a2)
     3dc:	ad200000 	sw	zero,0(t1)
     3e0:	24820001 	addiu	v0,a0,1
     3e4:	ad477e5c 	sw	a3,32348(t2)
     3e8:	a4a263e8 	sh	v0,25576(a1)
     3ec:	05000012 	bltz	t0,0x438
     3f0:	3c02b042 	lui	v0,0xb042
     3f4:	40016000 	mfc0	at,$12
     3f8:	34210001 	ori	at,at,0x1
     3fc:	38210001 	xori	at,at,0x1
     400:	40816000 	mtc0	at,$12
     404:	26041568 	addiu	a0,s0,5480
     408:	94834b14 	lhu	v1,19220(a0)
     40c:	94854b10 	lhu	a1,19216(a0)
     410:	8fbf0014 	lw	ra,20(sp)
     414:	8fb00010 	lw	s0,16(sp)
     418:	30630080 	andi	v1,v1,0x80
     41c:	3c02b041 	lui	v0,0xb041
     420:	00651825 	or	v1,v1,a1
     424:	34420008 	ori	v0,v0,0x8
     428:	27bd0018 	addiu	sp,sp,24
     42c:	a4430000 	sh	v1,0(v0)
     430:	03e00008 	jr	ra
     434:	a4834b10 	sh	v1,19216(a0)
     438:	2403ff80 	li	v1,-128
     43c:	34420003 	ori	v0,v0,0x3
     440:	a0430000 	sb	v1,0(v0)
     444:	0c00119c 	jal	0x4670
     448:	00000000 	nop
     44c:	40016000 	mfc0	at,$12
     450:	34210001 	ori	at,at,0x1
     454:	38210001 	xori	at,at,0x1
     458:	40816000 	mtc0	at,$12
     45c:	26041568 	addiu	a0,s0,5480
     460:	94834b14 	lhu	v1,19220(a0)
     464:	94854b10 	lhu	a1,19216(a0)
     468:	8fbf0014 	lw	ra,20(sp)
     46c:	8fb00010 	lw	s0,16(sp)
     470:	30630080 	andi	v1,v1,0x80
     474:	3c02b041 	lui	v0,0xb041
     478:	00651825 	or	v1,v1,a1
     47c:	34420008 	ori	v0,v0,0x8
     480:	27bd0018 	addiu	sp,sp,24
     484:	a4430000 	sh	v1,0(v0)
     488:	03e00008 	jr	ra
     48c:	a4834b10 	sh	v1,19216(a0)
     490:	308400ff 	andi	a0,a0,0xff
     494:	2c82000b 	sltiu	v0,a0,11
     498:	30e7ffff 	andi	a3,a3,0xffff
     49c:	93a80010 	lbu	t0,16(sp)
     4a0:	10400019 	beqz	v0,0x508
     4a4:	00001821 	move	v1,zero
     4a8:	3c038002 	lui	v1,0x8002
     4ac:	00041080 	sll	v0,a0,0x2
     4b0:	2463a7c4 	addiu	v1,v1,-22588
     4b4:	00431021 	addu	v0,v0,v1
     4b8:	8c440000 	lw	a0,0(v0)
     4bc:	00000000 	nop
     4c0:	00800008 	jr	a0
     4c4:	00000000 	nop
     4c8:	3c02b043 	lui	v0,0xb043
     4cc:	34440078 	ori	a0,v0,0x78
     4d0:	30e20007 	andi	v0,a3,0x7
     4d4:	ac850000 	sw	a1,0(a0)
     4d8:	ac860004 	sw	a2,4(a0)
     4dc:	18400004 	blez	v0,0x4f0
     4e0:	00000000 	nop
     4e4:	30e2fff8 	andi	v0,a3,0xfff8
     4e8:	24420008 	addiu	v0,v0,8
     4ec:	3047ffff 	andi	a3,v0,0xffff
     4f0:	00e81021 	addu	v0,a3,t0
     4f4:	3c038000 	lui	v1,0x8000
     4f8:	ac820008 	sw	v0,8(a0)
     4fc:	00431025 	or	v0,v0,v1
     500:	ac820008 	sw	v0,8(a0)
     504:	24030001 	li	v1,1
     508:	03e00008 	jr	ra
     50c:	00601021 	move	v0,v1
     510:	3c02b043 	lui	v0,0xb043
     514:	08000120 	j	0x480
     518:	3444006c 	ori	a0,v0,0x6c
     51c:	3c02b043 	lui	v0,0xb043
     520:	08000120 	j	0x480
     524:	34440060 	ori	a0,v0,0x60
     528:	3c02b043 	lui	v0,0xb043
     52c:	08000120 	j	0x480
     530:	34440054 	ori	a0,v0,0x54
     534:	3c02b043 	lui	v0,0xb043
     538:	08000120 	j	0x480
     53c:	34440048 	ori	a0,v0,0x48
     540:	3c02b043 	lui	v0,0xb043
     544:	08000120 	j	0x480
     548:	3444003c 	ori	a0,v0,0x3c
     54c:	3c02b043 	lui	v0,0xb043
     550:	08000120 	j	0x480
     554:	34440030 	ori	a0,v0,0x30
     558:	3c02b043 	lui	v0,0xb043
     55c:	08000120 	j	0x480
     560:	34440024 	ori	a0,v0,0x24
     564:	3c02b043 	lui	v0,0xb043
     568:	08000120 	j	0x480
     56c:	34440018 	ori	a0,v0,0x18
     570:	3c02b043 	lui	v0,0xb043
     574:	08000120 	j	0x480
     578:	3444000c 	ori	a0,v0,0xc
     57c:	08000120 	j	0x480
     580:	3c04b043 	lui	a0,0xb043
     584:	24020001 	li	v0,1
     588:	3c03b025 	lui	v1,0xb025
     58c:	00822004 	sllv	a0,v0,a0
     590:	34670318 	ori	a3,v1,0x318
     594:	3c028000 	lui	v0,0x8000
     598:	3c03b043 	lui	v1,0xb043
     59c:	24460534 	addiu	a2,v0,1332
     5a0:	34650088 	ori	a1,v1,0x88
     5a4:	00001021 	move	v0,zero
     5a8:	24420001 	addiu	v0,v0,1
     5ac:	3042ffff 	andi	v0,v0,0xffff
     5b0:	2c430005 	sltiu	v1,v0,5
     5b4:	1460fffd 	bnez	v1,0x5ac
     5b8:	24420001 	addiu	v0,v0,1
     5bc:	ace60000 	sw	a2,0(a3)
     5c0:	94a20000 	lhu	v0,0(a1)
     5c4:	00000000 	nop
     5c8:	3042ffff 	andi	v0,v0,0xffff
     5cc:	00441024 	and	v0,v0,a0
     5d0:	1c40fff4 	bgtz	v0,0x5a4
     5d4:	00000000 	nop
     5d8:	03e00008 	jr	ra
     5dc:	00000000 	nop
     5e0:	3c08b025 	lui	t0,0xb025
     5e4:	3c028000 	lui	v0,0x8000
     5e8:	27bdffc8 	addiu	sp,sp,-56
     5ec:	35030318 	ori	v1,t0,0x318
     5f0:	24420590 	addiu	v0,v0,1424
     5f4:	ac620000 	sw	v0,0(v1)
     5f8:	afb60030 	sw	s6,48(sp)
     5fc:	afb40028 	sw	s4,40(sp)
     600:	afb30024 	sw	s3,36(sp)
     604:	afb1001c 	sw	s1,28(sp)
     608:	afbf0034 	sw	ra,52(sp)
     60c:	afb5002c 	sw	s5,44(sp)
     610:	afb20020 	sw	s2,32(sp)
     614:	afb00018 	sw	s0,24(sp)
     618:	84f2000c 	lh	s2,12(a3)
     61c:	8cf50008 	lw	s5,8(a3)
     620:	30c600ff 	andi	a2,a2,0xff
     624:	24020100 	li	v0,256
     628:	00461023 	subu	v0,v0,a2
     62c:	3051ffff 	andi	s1,v0,0xffff
     630:	350803d0 	ori	t0,t0,0x3d0
     634:	309600ff 	andi	s6,a0,0xff
     638:	ad120000 	sw	s2,0(t0)
     63c:	00a0a021 	move	s4,a1
     640:	00c53021 	addu	a2,a2,a1
     644:	ad150000 	sw	s5,0(t0)
     648:	02c02021 	move	a0,s6
     64c:	02a02821 	move	a1,s5
     650:	02203821 	move	a3,s1
     654:	0c000110 	jal	0x440
     658:	afa00010 	sw	zero,16(sp)
     65c:	02511823 	subu	v1,s2,s1
     660:	3282ffff 	andi	v0,s4,0xffff
     664:	00039400 	sll	s2,v1,0x10
     668:	00129403 	sra	s2,s2,0x10
     66c:	080001a6 	j	0x698
     670:	00029a02 	srl	s3,v0,0x8
     674:	3c03b028 	lui	v1,0xb028
     678:	001310c0 	sll	v0,s3,0x3
     67c:	00431021 	addu	v0,v0,v1
     680:	90440000 	lbu	a0,0(v0)
     684:	3c10b025 	lui	s0,0xb025
     688:	3c021020 	lui	v0,0x1020
     68c:	309300ff 	andi	s3,a0,0xff
     690:	00132200 	sll	a0,s3,0x8
     694:	3243ffff 	andi	v1,s2,0xffff
     698:	2a450101 	slti	a1,s2,257
     69c:	0082a021 	addu	s4,a0,v0
     6a0:	02b1a821 	addu	s5,s5,s1
     6a4:	360203d0 	ori	v0,s0,0x3d0
     6a8:	24110100 	li	s1,256
     6ac:	0065880b 	.word	0x65880b
     6b0:	02c02021 	move	a0,s6
     6b4:	ac530000 	sw	s3,0(v0)
     6b8:	0c00014d 	jal	0x534
     6bc:	361003b0 	ori	s0,s0,0x3b0
     6c0:	02803021 	move	a2,s4
     6c4:	02c02021 	move	a0,s6
     6c8:	02a02821 	move	a1,s5
     6cc:	02203821 	move	a3,s1
     6d0:	0c000110 	jal	0x440
     6d4:	afa00010 	sw	zero,16(sp)
     6d8:	02511823 	subu	v1,s2,s1
     6dc:	00039400 	sll	s2,v1,0x10
     6e0:	00129403 	sra	s2,s2,0x10
     6e4:	ae120000 	sw	s2,0(s0)
     6e8:	1e40ffe2 	bgtz	s2,0x674
     6ec:	00000000 	nop
     6f0:	8fbf0034 	lw	ra,52(sp)
     6f4:	8fb60030 	lw	s6,48(sp)
     6f8:	8fb5002c 	lw	s5,44(sp)
     6fc:	8fb40028 	lw	s4,40(sp)
     700:	8fb30024 	lw	s3,36(sp)
     704:	8fb20020 	lw	s2,32(sp)
     708:	8fb1001c 	lw	s1,28(sp)
     70c:	8fb00018 	lw	s0,24(sp)
     710:	03e00008 	jr	ra
     714:	27bd0038 	addiu	sp,sp,56
     718:	27bdffc8 	addiu	sp,sp,-56
     71c:	3c028002 	lui	v0,0x8002
     720:	3c04b025 	lui	a0,0xb025
     724:	afb20020 	sw	s2,32(sp)
     728:	24521568 	addiu	s2,v0,5480
     72c:	3c028000 	lui	v0,0x8000
     730:	34830318 	ori	v1,a0,0x318
     734:	244206c8 	addiu	v0,v0,1736
     738:	afb40028 	sw	s4,40(sp)
     73c:	afb30024 	sw	s3,36(sp)
     740:	afbf0030 	sw	ra,48(sp)
     744:	afb5002c 	sw	s5,44(sp)
     748:	afb1001c 	sw	s1,28(sp)
     74c:	afb00018 	sw	s0,24(sp)
     750:	ac620000 	sw	v0,0(v1)
     754:	349303b0 	ori	s3,a0,0x3b0
     758:	0240a021 	move	s4,s2
     75c:	8e4264e8 	lw	v0,25832(s2)
     760:	8e506554 	lw	s0,25940(s2)
     764:	00002021 	move	a0,zero
     768:	ae620000 	sw	v0,0(s3)
     76c:	ae4264ec 	sw	v0,25836(s2)
     770:	ae700000 	sw	s0,0(s3)
     774:	0c00014d 	jal	0x534
     778:	00000000 	nop
     77c:	8e446554 	lw	a0,25940(s2)
     780:	8e436558 	lw	v1,25944(s2)
     784:	24840040 	addiu	a0,a0,64
     788:	2462007f 	addiu	v0,v1,127
     78c:	0044102b 	sltu	v0,v0,a0
     790:	0082180a 	.word	0x82180a
     794:	ae436554 	sw	v1,25940(s2)
     798:	8e856554 	lw	a1,25940(s4)
     79c:	00000000 	nop
     7a0:	ae650000 	sw	a1,0(s3)
     7a4:	3c028002 	lui	v0,0x8002
     7a8:	3210ffff 	andi	s0,s0,0xffff
     7ac:	02028025 	or	s0,s0,v0
     7b0:	ae700000 	sw	s0,0(s3)
     7b4:	9202000c 	lbu	v0,12(s0)
     7b8:	241500ff 	li	s5,255
     7bc:	00002021 	move	a0,zero
     7c0:	ae620000 	sw	v0,0(s3)
     7c4:	9211000c 	lbu	s1,12(s0)
     7c8:	3c021020 	lui	v0,0x1020
     7cc:	24070040 	li	a3,64
     7d0:	00111a00 	sll	v1,s1,0x8
     7d4:	00621821 	addu	v1,v1,v0
     7d8:	12350005 	beq	s1,s5,0x7f0
     7dc:	00603021 	move	a2,v1
     7e0:	a291649c 	sb	s1,25756(s4)
     7e4:	ae8364e8 	sw	v1,25832(s4)
     7e8:	0c000110 	jal	0x440
     7ec:	afa00010 	sw	zero,16(sp)
     7f0:	96050000 	lhu	a1,0(s0)
     7f4:	8e83642c 	lw	v1,25644(s4)
     7f8:	3c02b02a 	lui	v0,0xb02a
     7fc:	00052027 	nor	a0,zero,a1
     800:	34460001 	ori	a2,v0,0x1
     804:	00651021 	addu	v0,v1,a1
     808:	0064182b 	sltu	v1,v1,a0
     80c:	10600002 	beqz	v1,0x818
     810:	00000000 	nop
     814:	ae82642c 	sw	v0,25644(s4)
     818:	8e040004 	lw	a0,4(s0)
     81c:	8e030008 	lw	v1,8(s0)
     820:	3c02e0ff 	lui	v0,0xe0ff
     824:	3442ffff 	ori	v0,v0,0xffff
     828:	3084001f 	andi	a0,a0,0x1f
     82c:	00621824 	and	v1,v1,v0
     830:	00042600 	sll	a0,a0,0x18
     834:	3c02dfff 	lui	v0,0xdfff
     838:	00641825 	or	v1,v1,a0
     83c:	3442ffff 	ori	v0,v0,0xffff
     840:	00621824 	and	v1,v1,v0
     844:	3c044000 	lui	a0,0x4000
     848:	2402ffc0 	li	v0,-64
     84c:	00641825 	or	v1,v1,a0
     850:	00621824 	and	v1,v1,v0
     854:	ae030008 	sw	v1,8(s0)
     858:	24020001 	li	v0,1
     85c:	24030002 	li	v1,2
     860:	a0c20000 	sb	v0,0(a2)
     864:	a0c30000 	sb	v1,0(a2)
     868:	1635ffbc 	bne	s1,s5,0x75c
     86c:	3c03b041 	lui	v1,0xb041
     870:	8e824b04 	lw	v0,19204(s4)
     874:	8fbf0030 	lw	ra,48(sp)
     878:	34423800 	ori	v0,v0,0x3800
     87c:	ac620000 	sw	v0,0(v1)
     880:	8fb5002c 	lw	s5,44(sp)
     884:	ae824b04 	sw	v0,19204(s4)
     888:	8fb30024 	lw	s3,36(sp)
     88c:	8fb40028 	lw	s4,40(sp)
     890:	8fb20020 	lw	s2,32(sp)
     894:	8fb1001c 	lw	s1,28(sp)
     898:	8fb00018 	lw	s0,24(sp)
     89c:	03e00008 	jr	ra
     8a0:	27bd0038 	addiu	sp,sp,56
     8a4:	3c04b025 	lui	a0,0xb025
     8a8:	3c028000 	lui	v0,0x8000
     8ac:	27bdffc0 	addiu	sp,sp,-64
     8b0:	34830318 	ori	v1,a0,0x318
     8b4:	24420854 	addiu	v0,v0,2132
     8b8:	afbf003c 	sw	ra,60(sp)
     8bc:	afbe0038 	sw	s8,56(sp)
     8c0:	afb70034 	sw	s7,52(sp)
     8c4:	afb60030 	sw	s6,48(sp)
     8c8:	afb5002c 	sw	s5,44(sp)
     8cc:	afb40028 	sw	s4,40(sp)
     8d0:	afb30024 	sw	s3,36(sp)
     8d4:	afb20020 	sw	s2,32(sp)
     8d8:	afb1001c 	sw	s1,28(sp)
     8dc:	afb00018 	sw	s0,24(sp)
     8e0:	ac620000 	sw	v0,0(v1)
     8e4:	40016000 	mfc0	at,$12
     8e8:	34210001 	ori	at,at,0x1
     8ec:	40816000 	mtc0	at,$12
     8f0:	3c028002 	lui	v0,0x8002
     8f4:	24521568 	addiu	s2,v0,5480
     8f8:	349503b0 	ori	s5,a0,0x3b0
     8fc:	08000239 	j	0x8e4
     900:	0240f021 	move	s8,s2
     904:	ae040008 	sw	a0,8(s0)
     908:	92824b7e 	lbu	v0,19326(s4)
     90c:	00000000 	nop
     910:	10400045 	beqz	v0,0xa28
     914:	3c02b02a 	lui	v0,0xb02a
     918:	34420009 	ori	v0,v0,0x9
     91c:	24030001 	li	v1,1
     920:	24040002 	li	a0,2
     924:	a0430000 	sb	v1,0(v0)
     928:	a0440000 	sb	a0,0(v0)
     92c:	1236005a 	beq	s1,s6,0xa98
     930:	00000000 	nop
     934:	8e426500 	lw	v0,25856(s2)
     938:	8e53656c 	lw	s3,25964(s2)
     93c:	24040001 	li	a0,1
     940:	aea20000 	sw	v0,0(s5)
     944:	ae426504 	sw	v0,25860(s2)
     948:	aeb30000 	sw	s3,0(s5)
     94c:	0c00014d 	jal	0x534
     950:	03c0a021 	move	s4,s8
     954:	8e44656c 	lw	a0,25964(s2)
     958:	8e436570 	lw	v1,25968(s2)
     95c:	24840040 	addiu	a0,a0,64
     960:	2462007f 	addiu	v0,v1,127
     964:	0044102b 	sltu	v0,v0,a0
     968:	0082180a 	.word	0x82180a
     96c:	ae43656c 	sw	v1,25964(s2)
     970:	8fc5656c 	lw	a1,25964(s8)
     974:	00000000 	nop
     978:	aea50000 	sw	a1,0(s5)
     97c:	3c178002 	lui	s7,0x8002
     980:	3262ffff 	andi	v0,s3,0xffff
     984:	00578025 	or	s0,v0,s7
     988:	aeb00000 	sw	s0,0(s5)
     98c:	9202000c 	lbu	v0,12(s0)
     990:	241600ff 	li	s6,255
     994:	24040001 	li	a0,1
     998:	aea20000 	sw	v0,0(s5)
     99c:	9211000c 	lbu	s1,12(s0)
     9a0:	3c021020 	lui	v0,0x1020
     9a4:	24070040 	li	a3,64
     9a8:	00111a00 	sll	v1,s1,0x8
     9ac:	00621821 	addu	v1,v1,v0
     9b0:	12360005 	beq	s1,s6,0x9c8
     9b4:	00603021 	move	a2,v1
     9b8:	afc36500 	sw	v1,25856(s8)
     9bc:	a3d164a4 	sb	s1,25764(s8)
     9c0:	0c000110 	jal	0x440
     9c4:	afa00010 	sw	zero,16(sp)
     9c8:	8e040004 	lw	a0,4(s0)
     9cc:	8e030008 	lw	v1,8(s0)
     9d0:	3c02e0ff 	lui	v0,0xe0ff
     9d4:	3442ffff 	ori	v0,v0,0xffff
     9d8:	3084001f 	andi	a0,a0,0x1f
     9dc:	00621824 	and	v1,v1,v0
     9e0:	00042600 	sll	a0,a0,0x18
     9e4:	3c02dfff 	lui	v0,0xdfff
     9e8:	00641825 	or	v1,v1,a0
     9ec:	3442ffff 	ori	v0,v0,0xffff
     9f0:	00621824 	and	v1,v1,v0
     9f4:	3c044000 	lui	a0,0x4000
     9f8:	00641825 	or	v1,v1,a0
     9fc:	2405ffc0 	li	a1,-64
     a00:	00031182 	srl	v0,v1,0x6
     a04:	00652024 	and	a0,v1,a1
     a08:	30420001 	andi	v0,v0,0x1
     a0c:	1040ffbd 	beqz	v0,0x904
     a10:	34840004 	ori	a0,a0,0x4
     a14:	ae030008 	sw	v1,8(s0)
     a18:	92824b7e 	lbu	v0,19326(s4)
     a1c:	00000000 	nop
     a20:	1440ffbd 	bnez	v0,0x918
     a24:	3c02b02a 	lui	v0,0xb02a
     a28:	40016000 	mfc0	at,$12
     a2c:	34210001 	ori	at,at,0x1
     a30:	38210001 	xori	at,at,0x1
     a34:	40816000 	mtc0	at,$12
     a38:	24030001 	li	v1,1
     a3c:	a2834b7e 	sb	v1,19326(s4)
     a40:	92020002 	lbu	v0,2(s0)
     a44:	00000000 	nop
     a48:	00531021 	addu	v0,v0,s3
     a4c:	3042ffff 	andi	v0,v0,0xffff
     a50:	00571025 	or	v0,v0,s7
     a54:	94430002 	lhu	v1,2(v0)
     a58:	00000000 	nop
     a5c:	3064c0ff 	andi	a0,v1,0xc0ff
     a60:	3484c000 	ori	a0,a0,0xc000
     a64:	0c001ad8 	jal	0x6b60
     a68:	a2834b7f 	sb	v1,19327(s4)
     a6c:	40016000 	mfc0	at,$12
     a70:	34210001 	ori	at,at,0x1
     a74:	40816000 	mtc0	at,$12
     a78:	3c02b02a 	lui	v0,0xb02a
     a7c:	34420009 	ori	v0,v0,0x9
     a80:	24030001 	li	v1,1
     a84:	24040002 	li	a0,2
     a88:	a0430000 	sb	v1,0(v0)
     a8c:	a0440000 	sb	a0,0(v0)
     a90:	1636ffa8 	bne	s1,s6,0x934
     a94:	00000000 	nop
     a98:	40016000 	mfc0	at,$12
     a9c:	34210001 	ori	at,at,0x1
     aa0:	38210001 	xori	at,at,0x1
     aa4:	40816000 	mtc0	at,$12
     aa8:	3c038002 	lui	v1,0x8002
     aac:	24621568 	addiu	v0,v1,5480
     ab0:	8c434b04 	lw	v1,19204(v0)
     ab4:	8fbf003c 	lw	ra,60(sp)
     ab8:	8fbe0038 	lw	s8,56(sp)
     abc:	8fb70034 	lw	s7,52(sp)
     ac0:	8fb60030 	lw	s6,48(sp)
     ac4:	8fb5002c 	lw	s5,44(sp)
     ac8:	8fb40028 	lw	s4,40(sp)
     acc:	8fb30024 	lw	s3,36(sp)
     ad0:	8fb20020 	lw	s2,32(sp)
     ad4:	8fb1001c 	lw	s1,28(sp)
     ad8:	8fb00018 	lw	s0,24(sp)
     adc:	34633800 	ori	v1,v1,0x3800
     ae0:	3c04b041 	lui	a0,0xb041
     ae4:	27bd0040 	addiu	sp,sp,64
     ae8:	ac830000 	sw	v1,0(a0)
     aec:	03e00008 	jr	ra
     af0:	ac434b04 	sw	v1,19204(v0)
     af4:	3c04b025 	lui	a0,0xb025
     af8:	3c028000 	lui	v0,0x8000
     afc:	27bdffc0 	addiu	sp,sp,-64
     b00:	34830318 	ori	v1,a0,0x318
     b04:	24420aa4 	addiu	v0,v0,2724
     b08:	afbf0038 	sw	ra,56(sp)
     b0c:	afb70034 	sw	s7,52(sp)
     b10:	afb60030 	sw	s6,48(sp)
     b14:	afb5002c 	sw	s5,44(sp)
     b18:	afb40028 	sw	s4,40(sp)
     b1c:	afb30024 	sw	s3,36(sp)
     b20:	afb20020 	sw	s2,32(sp)
     b24:	afb1001c 	sw	s1,28(sp)
     b28:	afb00018 	sw	s0,24(sp)
     b2c:	ac620000 	sw	v0,0(v1)
     b30:	40016000 	mfc0	at,$12
     b34:	34210001 	ori	at,at,0x1
     b38:	40816000 	mtc0	at,$12
     b3c:	3c168002 	lui	s6,0x8002
     b40:	26d31568 	addiu	s3,s6,5480
     b44:	349403b0 	ori	s4,a0,0x3b0
     b48:	3c158002 	lui	s5,0x8002
     b4c:	0260b821 	move	s7,s3
     b50:	8e6264f4 	lw	v0,25844(s3)
     b54:	8e706560 	lw	s0,25952(s3)
     b58:	24040001 	li	a0,1
     b5c:	ae820000 	sw	v0,0(s4)
     b60:	ae6264f8 	sw	v0,25848(s3)
     b64:	ae900000 	sw	s0,0(s4)
     b68:	0c00014d 	jal	0x534
     b6c:	02e08821 	move	s1,s7
     b70:	8e646560 	lw	a0,25952(s3)
     b74:	8e636564 	lw	v1,25956(s3)
     b78:	24840040 	addiu	a0,a0,64
     b7c:	2462007f 	addiu	v0,v1,127
     b80:	0044102b 	sltu	v0,v0,a0
     b84:	0082180a 	.word	0x82180a
     b88:	ae636560 	sw	v1,25952(s3)
     b8c:	8ee56560 	lw	a1,25952(s7)
     b90:	00000000 	nop
     b94:	ae850000 	sw	a1,0(s4)
     b98:	3c028002 	lui	v0,0x8002
     b9c:	3210ffff 	andi	s0,s0,0xffff
     ba0:	02028025 	or	s0,s0,v0
     ba4:	ae900000 	sw	s0,0(s4)
     ba8:	9202000c 	lbu	v0,12(s0)
     bac:	00000000 	nop
     bb0:	ae820000 	sw	v0,0(s4)
     bb4:	9212000c 	lbu	s2,12(s0)
     bb8:	240200ff 	li	v0,255
     bbc:	1242000a 	beq	s2,v0,0xbe8
     bc0:	00121a00 	sll	v1,s2,0x8
     bc4:	3c021020 	lui	v0,0x1020
     bc8:	00621821 	addu	v1,v1,v0
     bcc:	aee364f4 	sw	v1,25844(s7)
     bd0:	a2f264a0 	sb	s2,25760(s7)
     bd4:	00603021 	move	a2,v1
     bd8:	24040001 	li	a0,1
     bdc:	24070040 	li	a3,64
     be0:	0c000110 	jal	0x440
     be4:	afa00010 	sw	zero,16(sp)
     be8:	8e22640c 	lw	v0,25612(s1)
     bec:	8e030004 	lw	v1,4(s0)
     bf0:	00021042 	srl	v0,v0,0x1
     bf4:	30420001 	andi	v0,v0,0x1
     bf8:	1440005d 	bnez	v0,0xd70
     bfc:	3064001f 	andi	a0,v1,0x1f
     c00:	8e020008 	lw	v0,8(s0)
     c04:	3c03e0ff 	lui	v1,0xe0ff
     c08:	3463ffff 	ori	v1,v1,0xffff
     c0c:	00431024 	and	v0,v0,v1
     c10:	00042600 	sll	a0,a0,0x18
     c14:	00442825 	or	a1,v0,a0
     c18:	ae050008 	sw	a1,8(s0)
     c1c:	000511c2 	srl	v0,a1,0x7
     c20:	30430001 	andi	v1,v0,0x1
     c24:	14600047 	bnez	v1,0xd44
     c28:	24020001 	li	v0,1
     c2c:	96040000 	lhu	a0,0(s0)
     c30:	8e236430 	lw	v1,25648(s1)
     c34:	00041027 	nor	v0,zero,a0
     c38:	0062102b 	sltu	v0,v1,v0
     c3c:	10400005 	beqz	v0,0xc54
     c40:	3c02dfff 	lui	v0,0xdfff
     c44:	00641021 	addu	v0,v1,a0
     c48:	ae226430 	sw	v0,25648(s1)
     c4c:	8e050008 	lw	a1,8(s0)
     c50:	3c02dfff 	lui	v0,0xdfff
     c54:	3442ffff 	ori	v0,v0,0xffff
     c58:	00a22824 	and	a1,a1,v0
     c5c:	3c034000 	lui	v1,0x4000
     c60:	00a32825 	or	a1,a1,v1
     c64:	00051182 	srl	v0,a1,0x6
     c68:	30420001 	andi	v0,v0,0x1
     c6c:	14400003 	bnez	v0,0xc7c
     c70:	2402ffc0 	li	v0,-64
     c74:	00a21024 	and	v0,a1,v0
     c78:	34450004 	ori	a1,v0,0x4
     c7c:	ae050008 	sw	a1,8(s0)
     c80:	26c21568 	addiu	v0,s6,5480
     c84:	90444b7e 	lbu	a0,19326(v0)
     c88:	24030001 	li	v1,1
     c8c:	1083003b 	beq	a0,v1,0xd7c
     c90:	2402ff7f 	li	v0,-129
     c94:	00a21024 	and	v0,a1,v0
     c98:	ae020008 	sw	v0,8(s0)
     c9c:	26c51568 	addiu	a1,s6,5480
     ca0:	8ca264f8 	lw	v0,25848(a1)
     ca4:	8e100020 	lw	s0,32(s0)
     ca8:	3c038000 	lui	v1,0x8000
     cac:	00431025 	or	v0,v0,v1
     cb0:	3c03b02a 	lui	v1,0xb02a
     cb4:	ac500008 	sw	s0,8(v0)
     cb8:	34700005 	ori	s0,v1,0x5
     cbc:	24020001 	li	v0,1
     cc0:	24030002 	li	v1,2
     cc4:	a2020000 	sb	v0,0(s0)
     cc8:	a2030000 	sb	v1,0(s0)
     ccc:	96a27e62 	lhu	v0,32354(s5)
     cd0:	240300ff 	li	v1,255
     cd4:	24420001 	addiu	v0,v0,1
     cd8:	a6a27e62 	sh	v0,32354(s5)
     cdc:	96a47e62 	lhu	a0,32354(s5)
     ce0:	3c02b025 	lui	v0,0xb025
     ce4:	34420366 	ori	v0,v0,0x366
     ce8:	a4440000 	sh	a0,0(v0)
     cec:	1643ff98 	bne	s2,v1,0xb50
     cf0:	00000000 	nop
     cf4:	40016000 	mfc0	at,$12
     cf8:	34210001 	ori	at,at,0x1
     cfc:	38210001 	xori	at,at,0x1
     d00:	40816000 	mtc0	at,$12
     d04:	8ca24b04 	lw	v0,19204(a1)
     d08:	8fbf0038 	lw	ra,56(sp)
     d0c:	8fb70034 	lw	s7,52(sp)
     d10:	8fb60030 	lw	s6,48(sp)
     d14:	8fb5002c 	lw	s5,44(sp)
     d18:	8fb40028 	lw	s4,40(sp)
     d1c:	8fb30024 	lw	s3,36(sp)
     d20:	8fb20020 	lw	s2,32(sp)
     d24:	8fb1001c 	lw	s1,28(sp)
     d28:	8fb00018 	lw	s0,24(sp)
     d2c:	34423800 	ori	v0,v0,0x3800
     d30:	3c03b041 	lui	v1,0xb041
     d34:	27bd0040 	addiu	sp,sp,64
     d38:	ac620000 	sw	v0,0(v1)
     d3c:	03e00008 	jr	ra
     d40:	aca24b04 	sw	v0,19204(a1)
     d44:	1462ffc3 	bne	v1,v0,0xc54
     d48:	3c02dfff 	lui	v0,0xdfff
     d4c:	96040000 	lhu	a0,0(s0)
     d50:	8e23642c 	lw	v1,25644(s1)
     d54:	00041027 	nor	v0,zero,a0
     d58:	0062102b 	sltu	v0,v1,v0
     d5c:	1040ffbd 	beqz	v0,0xc54
     d60:	3c02dfff 	lui	v0,0xdfff
     d64:	00641021 	addu	v0,v1,a0
     d68:	080002ff 	j	0xbfc
     d6c:	ae22642c 	sw	v0,25644(s1)
     d70:	8e050008 	lw	a1,8(s0)
     d74:	080002f4 	j	0xbd0
     d78:	000511c2 	srl	v0,a1,0x7
     d7c:	34a50080 	ori	a1,a1,0x80
     d80:	08000313 	j	0xc4c
     d84:	ae050008 	sw	a1,8(s0)
     d88:	27bdffc0 	addiu	sp,sp,-64
     d8c:	afb60030 	sw	s6,48(sp)
     d90:	afbf0038 	sw	ra,56(sp)
     d94:	afb70034 	sw	s7,52(sp)
     d98:	afb5002c 	sw	s5,44(sp)
     d9c:	afb40028 	sw	s4,40(sp)
     da0:	afb30024 	sw	s3,36(sp)
     da4:	afb20020 	sw	s2,32(sp)
     da8:	afb1001c 	sw	s1,28(sp)
     dac:	afb00018 	sw	s0,24(sp)
     db0:	3c068002 	lui	a2,0x8002
     db4:	90c57f14 	lbu	a1,32532(a2)
     db8:	3c038000 	lui	v1,0x8000
     dbc:	3c02b025 	lui	v0,0xb025
     dc0:	34420318 	ori	v0,v0,0x318
     dc4:	24630d38 	addiu	v1,v1,3384
     dc8:	30a40040 	andi	a0,a1,0x40
     dcc:	ac430000 	sw	v1,0(v0)
     dd0:	0000b021 	move	s6,zero
     dd4:	10800003 	beqz	a0,0xde4
     dd8:	30a2007f 	andi	v0,a1,0x7f
     ddc:	30a200bf 	andi	v0,a1,0xbf
     de0:	24160001 	li	s6,1
     de4:	a0c27f14 	sb	v0,32532(a2)
     de8:	90c27f14 	lbu	v0,32532(a2)
     dec:	3c04b025 	lui	a0,0xb025
     df0:	34830288 	ori	v1,a0,0x288
     df4:	ac620000 	sw	v0,0(v1)
     df8:	40016000 	mfc0	at,$12
     dfc:	34210001 	ori	at,at,0x1
     e00:	40816000 	mtc0	at,$12
     e04:	3c158002 	lui	s5,0x8002
     e08:	26b21568 	addiu	s2,s5,5480
     e0c:	349303b0 	ori	s3,a0,0x3b0
     e10:	3c148002 	lui	s4,0x8002
     e14:	080003c0 	j	0xf00
     e18:	0240b821 	move	s7,s2
     e1c:	a2f16480 	sb	s1,25728(s7)
     e20:	26a21568 	addiu	v0,s5,5480
     e24:	8c4664b8 	lw	a2,25784(v0)
     e28:	8c456524 	lw	a1,25892(v0)
     e2c:	24040003 	li	a0,3
     e30:	24070040 	li	a3,64
     e34:	0c000110 	jal	0x440
     e38:	afa00010 	sw	zero,16(sp)
     e3c:	26a51568 	addiu	a1,s5,5480
     e40:	8ca2640c 	lw	v0,25612(a1)
     e44:	8e030004 	lw	v1,4(s0)
     e48:	00021042 	srl	v0,v0,0x1
     e4c:	30420001 	andi	v0,v0,0x1
     e50:	14400008 	bnez	v0,0xe74
     e54:	3064001f 	andi	a0,v1,0x1f
     e58:	8e020008 	lw	v0,8(s0)
     e5c:	3c03e0ff 	lui	v1,0xe0ff
     e60:	3463ffff 	ori	v1,v1,0xffff
     e64:	00431024 	and	v0,v0,v1
     e68:	00042600 	sll	a0,a0,0x18
     e6c:	00441825 	or	v1,v0,a0
     e70:	ae030008 	sw	v1,8(s0)
     e74:	96040000 	lhu	a0,0(s0)
     e78:	8ca36430 	lw	v1,25648(a1)
     e7c:	00041027 	nor	v0,zero,a0
     e80:	0062102b 	sltu	v0,v1,v0
     e84:	10400002 	beqz	v0,0xe90
     e88:	00641021 	addu	v0,v1,a0
     e8c:	aca26430 	sw	v0,25648(a1)
     e90:	8e040010 	lw	a0,16(s0)
     e94:	00000000 	nop
     e98:	04800053 	bltz	a0,0xfe8
     e9c:	00000000 	nop
     ea0:	8e030014 	lw	v1,20(s0)
     ea4:	00000000 	nop
     ea8:	00031242 	srl	v0,v1,0x9
     eac:	3042003f 	andi	v0,v0,0x3f
     eb0:	2842000c 	slti	v0,v0,12
     eb4:	14400006 	bnez	v0,0xed0
     eb8:	00000000 	nop
     ebc:	96020000 	lhu	v0,0(s0)
     ec0:	00000000 	nop
     ec4:	28420ffd 	slti	v0,v0,4093
     ec8:	14400044 	bnez	v0,0xfdc
     ecc:	00000000 	nop
     ed0:	8e020008 	lw	v0,8(s0)
     ed4:	3c03dfff 	lui	v1,0xdfff
     ed8:	3463ffff 	ori	v1,v1,0xffff
     edc:	00431824 	and	v1,v0,v1
     ee0:	3c044000 	lui	a0,0x4000
     ee4:	00641825 	or	v1,v1,a0
     ee8:	ae030008 	sw	v1,8(s0)
     eec:	00031182 	srl	v0,v1,0x6
     ef0:	30420001 	andi	v0,v0,0x1
     ef4:	14400005 	bnez	v0,0xf0c
     ef8:	3c07b02a 	lui	a3,0xb02a
     efc:	2402ffc0 	li	v0,-64
     f00:	00621024 	and	v0,v1,v0
     f04:	34420004 	ori	v0,v0,0x4
     f08:	ae020008 	sw	v0,8(s0)
     f0c:	34e2000d 	ori	v0,a3,0xd
     f10:	24430004 	addiu	v1,v0,4
     f14:	0076100b 	.word	0x76100b
     f18:	24040001 	li	a0,1
     f1c:	24030002 	li	v1,2
     f20:	a0440000 	sb	a0,0(v0)
     f24:	a0430000 	sb	v1,0(v0)
     f28:	96847e62 	lhu	a0,32354(s4)
     f2c:	3c06b025 	lui	a2,0xb025
     f30:	34c50366 	ori	a1,a2,0x366
     f34:	24840001 	addiu	a0,a0,1
     f38:	a6847e62 	sh	a0,32354(s4)
     f3c:	96827e62 	lhu	v0,32354(s4)
     f40:	240300ff 	li	v1,255
     f44:	a4a20000 	sh	v0,0(a1)
     f48:	12230033 	beq	s1,v1,0x1018
     f4c:	00000000 	nop
     f50:	8e4264b8 	lw	v0,25784(s2)
     f54:	8e506524 	lw	s0,25892(s2)
     f58:	24040003 	li	a0,3
     f5c:	ae620000 	sw	v0,0(s3)
     f60:	ae4264bc 	sw	v0,25788(s2)
     f64:	ae700000 	sw	s0,0(s3)
     f68:	0c00014d 	jal	0x534
     f6c:	00000000 	nop
     f70:	8e446524 	lw	a0,25892(s2)
     f74:	8e436528 	lw	v1,25896(s2)
     f78:	24840040 	addiu	a0,a0,64
     f7c:	2462007f 	addiu	v0,v1,127
     f80:	0044102b 	sltu	v0,v0,a0
     f84:	0082180a 	.word	0x82180a
     f88:	ae436524 	sw	v1,25892(s2)
     f8c:	8ee26524 	lw	v0,25892(s7)
     f90:	00000000 	nop
     f94:	ae620000 	sw	v0,0(s3)
     f98:	3c028002 	lui	v0,0x8002
     f9c:	3210ffff 	andi	s0,s0,0xffff
     fa0:	02028025 	or	s0,s0,v0
     fa4:	ae700000 	sw	s0,0(s3)
     fa8:	9202000c 	lbu	v0,12(s0)
     fac:	00000000 	nop
     fb0:	ae620000 	sw	v0,0(s3)
     fb4:	9211000c 	lbu	s1,12(s0)
     fb8:	240200ff 	li	v0,255
     fbc:	1222ff9f 	beq	s1,v0,0xe3c
     fc0:	00111200 	sll	v0,s1,0x8
     fc4:	3c031020 	lui	v1,0x1020
     fc8:	00431021 	addu	v0,v0,v1
     fcc:	16c0ff93 	bnez	s6,0xe1c
     fd0:	aee264b8 	sw	v0,25784(s7)
     fd4:	08000374 	j	0xdd0
     fd8:	a2f1647c 	sb	s1,25724(s7)
     fdc:	8e030008 	lw	v1,8(s0)
     fe0:	080003a8 	j	0xea0
     fe4:	00031182 	srl	v0,v1,0x6
     fe8:	8e030014 	lw	v1,20(s0)
     fec:	00000000 	nop
     ff0:	00031242 	srl	v0,v1,0x9
     ff4:	3042003f 	andi	v0,v0,0x3f
     ff8:	28420014 	slti	v0,v0,20
     ffc:	1440ffab 	bnez	v0,0xeac
    1000:	00031242 	srl	v0,v1,0x9
    1004:	3c02ff9f 	lui	v0,0xff9f
    1008:	3442ffff 	ori	v0,v0,0xffff
    100c:	00821024 	and	v0,a0,v0
    1010:	08000396 	j	0xe58
    1014:	ae020010 	sw	v0,16(s0)
    1018:	12c00020 	beqz	s6,0x109c
    101c:	26a21568 	addiu	v0,s5,5480
    1020:	90436480 	lbu	v1,25728(v0)
    1024:	34e40041 	ori	a0,a3,0x41
    1028:	34c503b0 	ori	a1,a2,0x3b0
    102c:	a0830000 	sb	v1,0(a0)
    1030:	aca30000 	sw	v1,0(a1)
    1034:	40016000 	mfc0	at,$12
    1038:	34210001 	ori	at,at,0x1
    103c:	40816000 	mtc0	at,$12
    1040:	40016000 	mfc0	at,$12
    1044:	34210001 	ori	at,at,0x1
    1048:	38210001 	xori	at,at,0x1
    104c:	40816000 	mtc0	at,$12
    1050:	26a51568 	addiu	a1,s5,5480
    1054:	8ca44b04 	lw	a0,19204(a1)
    1058:	3c020001 	lui	v0,0x1
    105c:	8fbf0038 	lw	ra,56(sp)
    1060:	8fb70034 	lw	s7,52(sp)
    1064:	8fb60030 	lw	s6,48(sp)
    1068:	8fb5002c 	lw	s5,44(sp)
    106c:	8fb40028 	lw	s4,40(sp)
    1070:	8fb30024 	lw	s3,36(sp)
    1074:	8fb20020 	lw	s2,32(sp)
    1078:	8fb1001c 	lw	s1,28(sp)
    107c:	8fb00018 	lw	s0,24(sp)
    1080:	34428000 	ori	v0,v0,0x8000
    1084:	00822025 	or	a0,a0,v0
    1088:	3c03b041 	lui	v1,0xb041
    108c:	27bd0040 	addiu	sp,sp,64
    1090:	ac640000 	sw	a0,0(v1)
    1094:	03e00008 	jr	ra
    1098:	aca44b04 	sw	a0,19204(a1)
    109c:	9043647c 	lbu	v1,25724(v0)
    10a0:	34e40040 	ori	a0,a3,0x40
    10a4:	34c503b0 	ori	a1,a2,0x3b0
    10a8:	a0830000 	sb	v1,0(a0)
    10ac:	aca30000 	sw	v1,0(a1)
    10b0:	40016000 	mfc0	at,$12
    10b4:	34210001 	ori	at,at,0x1
    10b8:	40816000 	mtc0	at,$12
    10bc:	40016000 	mfc0	at,$12
    10c0:	34210001 	ori	at,at,0x1
    10c4:	38210001 	xori	at,at,0x1
    10c8:	40816000 	mtc0	at,$12
    10cc:	26a51568 	addiu	a1,s5,5480
    10d0:	8ca44b04 	lw	a0,19204(a1)
    10d4:	3c020001 	lui	v0,0x1
    10d8:	8fbf0038 	lw	ra,56(sp)
    10dc:	8fb70034 	lw	s7,52(sp)
    10e0:	8fb60030 	lw	s6,48(sp)
    10e4:	8fb5002c 	lw	s5,44(sp)
    10e8:	8fb40028 	lw	s4,40(sp)
    10ec:	8fb30024 	lw	s3,36(sp)
    10f0:	8fb20020 	lw	s2,32(sp)
    10f4:	8fb1001c 	lw	s1,28(sp)
    10f8:	8fb00018 	lw	s0,24(sp)
    10fc:	34428000 	ori	v0,v0,0x8000
    1100:	00822025 	or	a0,a0,v0
    1104:	3c03b041 	lui	v1,0xb041
    1108:	27bd0040 	addiu	sp,sp,64
    110c:	ac640000 	sw	a0,0(v1)
    1110:	03e00008 	jr	ra
    1114:	aca44b04 	sw	a0,19204(a1)
    1118:	27bdffc0 	addiu	sp,sp,-64
    111c:	afb60030 	sw	s6,48(sp)
    1120:	afbf0038 	sw	ra,56(sp)
    1124:	afb70034 	sw	s7,52(sp)
    1128:	afb5002c 	sw	s5,44(sp)
    112c:	afb40028 	sw	s4,40(sp)
    1130:	afb30024 	sw	s3,36(sp)
    1134:	afb20020 	sw	s2,32(sp)
    1138:	afb1001c 	sw	s1,28(sp)
    113c:	afb00018 	sw	s0,24(sp)
    1140:	3c068002 	lui	a2,0x8002
    1144:	90c57f14 	lbu	a1,32532(a2)
    1148:	3c038000 	lui	v1,0x8000
    114c:	3c02b025 	lui	v0,0xb025
    1150:	34420318 	ori	v0,v0,0x318
    1154:	246310c8 	addiu	v1,v1,4296
    1158:	30a40010 	andi	a0,a1,0x10
    115c:	ac430000 	sw	v1,0(v0)
    1160:	0000b021 	move	s6,zero
    1164:	10800003 	beqz	a0,0x1174
    1168:	30a200df 	andi	v0,a1,0xdf
    116c:	30a200ef 	andi	v0,a1,0xef
    1170:	24160001 	li	s6,1
    1174:	a0c27f14 	sb	v0,32532(a2)
    1178:	90c37f14 	lbu	v1,32532(a2)
    117c:	3c02b025 	lui	v0,0xb025
    1180:	344203b0 	ori	v0,v0,0x3b0
    1184:	ac430000 	sw	v1,0(v0)
    1188:	ac430000 	sw	v1,0(v0)
    118c:	40016000 	mfc0	at,$12
    1190:	34210001 	ori	at,at,0x1
    1194:	40816000 	mtc0	at,$12
    1198:	3c158002 	lui	s5,0x8002
    119c:	26b21568 	addiu	s2,s5,5480
    11a0:	00409821 	move	s3,v0
    11a4:	3c148002 	lui	s4,0x8002
    11a8:	080004a5 	j	0x1294
    11ac:	0240b821 	move	s7,s2
    11b0:	a2f16488 	sb	s1,25736(s7)
    11b4:	26a21568 	addiu	v0,s5,5480
    11b8:	8c4664c4 	lw	a2,25796(v0)
    11bc:	8c456530 	lw	a1,25904(v0)
    11c0:	24040004 	li	a0,4
    11c4:	24070040 	li	a3,64
    11c8:	0c000110 	jal	0x440
    11cc:	afa00010 	sw	zero,16(sp)
    11d0:	26a51568 	addiu	a1,s5,5480
    11d4:	8ca2640c 	lw	v0,25612(a1)
    11d8:	8e030004 	lw	v1,4(s0)
    11dc:	00021042 	srl	v0,v0,0x1
    11e0:	30420001 	andi	v0,v0,0x1
    11e4:	14400008 	bnez	v0,0x1208
    11e8:	3064001f 	andi	a0,v1,0x1f
    11ec:	8e020008 	lw	v0,8(s0)
    11f0:	3c03e0ff 	lui	v1,0xe0ff
    11f4:	3463ffff 	ori	v1,v1,0xffff
    11f8:	00431024 	and	v0,v0,v1
    11fc:	00042600 	sll	a0,a0,0x18
    1200:	00441825 	or	v1,v0,a0
    1204:	ae030008 	sw	v1,8(s0)
    1208:	96040000 	lhu	a0,0(s0)
    120c:	8ca36430 	lw	v1,25648(a1)
    1210:	00041027 	nor	v0,zero,a0
    1214:	0062102b 	sltu	v0,v1,v0
    1218:	10400002 	beqz	v0,0x1224
    121c:	00641021 	addu	v0,v1,a0
    1220:	aca26430 	sw	v0,25648(a1)
    1224:	8e040010 	lw	a0,16(s0)
    1228:	00000000 	nop
    122c:	04800053 	bltz	a0,0x137c
    1230:	00000000 	nop
    1234:	8e030014 	lw	v1,20(s0)
    1238:	00000000 	nop
    123c:	00031242 	srl	v0,v1,0x9
    1240:	3042003f 	andi	v0,v0,0x3f
    1244:	2842000c 	slti	v0,v0,12
    1248:	14400006 	bnez	v0,0x1264
    124c:	00000000 	nop
    1250:	96020000 	lhu	v0,0(s0)
    1254:	00000000 	nop
    1258:	28420ffd 	slti	v0,v0,4093
    125c:	14400044 	bnez	v0,0x1370
    1260:	00000000 	nop
    1264:	8e020008 	lw	v0,8(s0)
    1268:	3c03dfff 	lui	v1,0xdfff
    126c:	3463ffff 	ori	v1,v1,0xffff
    1270:	00431824 	and	v1,v0,v1
    1274:	3c044000 	lui	a0,0x4000
    1278:	00641825 	or	v1,v1,a0
    127c:	ae030008 	sw	v1,8(s0)
    1280:	00031182 	srl	v0,v1,0x6
    1284:	30420001 	andi	v0,v0,0x1
    1288:	14400005 	bnez	v0,0x12a0
    128c:	3c07b02a 	lui	a3,0xb02a
    1290:	2402ffc0 	li	v0,-64
    1294:	00621024 	and	v0,v1,v0
    1298:	34420004 	ori	v0,v0,0x4
    129c:	ae020008 	sw	v0,8(s0)
    12a0:	34e20015 	ori	v0,a3,0x15
    12a4:	24430004 	addiu	v1,v0,4
    12a8:	0076100b 	.word	0x76100b
    12ac:	24040001 	li	a0,1
    12b0:	24030002 	li	v1,2
    12b4:	a0440000 	sb	a0,0(v0)
    12b8:	a0430000 	sb	v1,0(v0)
    12bc:	96847e62 	lhu	a0,32354(s4)
    12c0:	3c06b025 	lui	a2,0xb025
    12c4:	34c50366 	ori	a1,a2,0x366
    12c8:	24840001 	addiu	a0,a0,1
    12cc:	a6847e62 	sh	a0,32354(s4)
    12d0:	96827e62 	lhu	v0,32354(s4)
    12d4:	240300ff 	li	v1,255
    12d8:	a4a20000 	sh	v0,0(a1)
    12dc:	12230033 	beq	s1,v1,0x13ac
    12e0:	00000000 	nop
    12e4:	8e4264c4 	lw	v0,25796(s2)
    12e8:	8e506530 	lw	s0,25904(s2)
    12ec:	24040004 	li	a0,4
    12f0:	ae620000 	sw	v0,0(s3)
    12f4:	ae4264c8 	sw	v0,25800(s2)
    12f8:	ae700000 	sw	s0,0(s3)
    12fc:	0c00014d 	jal	0x534
    1300:	00000000 	nop
    1304:	8e446530 	lw	a0,25904(s2)
    1308:	8e436534 	lw	v1,25908(s2)
    130c:	24840040 	addiu	a0,a0,64
    1310:	2462007f 	addiu	v0,v1,127
    1314:	0044102b 	sltu	v0,v0,a0
    1318:	0082180a 	.word	0x82180a
    131c:	ae436530 	sw	v1,25904(s2)
    1320:	8ee26530 	lw	v0,25904(s7)
    1324:	00000000 	nop
    1328:	ae620000 	sw	v0,0(s3)
    132c:	3c028002 	lui	v0,0x8002
    1330:	3210ffff 	andi	s0,s0,0xffff
    1334:	02028025 	or	s0,s0,v0
    1338:	ae700000 	sw	s0,0(s3)
    133c:	9202000c 	lbu	v0,12(s0)
    1340:	00000000 	nop
    1344:	ae620000 	sw	v0,0(s3)
    1348:	9211000c 	lbu	s1,12(s0)
    134c:	240200ff 	li	v0,255
    1350:	1222ff9f 	beq	s1,v0,0x11d0
    1354:	00111200 	sll	v0,s1,0x8
    1358:	3c031020 	lui	v1,0x1020
    135c:	00431021 	addu	v0,v0,v1
    1360:	16c0ff93 	bnez	s6,0x11b0
    1364:	aee264c4 	sw	v0,25796(s7)
    1368:	08000459 	j	0x1164
    136c:	a2f16484 	sb	s1,25732(s7)
    1370:	8e030008 	lw	v1,8(s0)
    1374:	0800048d 	j	0x1234
    1378:	00031182 	srl	v0,v1,0x6
    137c:	8e030014 	lw	v1,20(s0)
    1380:	00000000 	nop
    1384:	00031242 	srl	v0,v1,0x9
    1388:	3042003f 	andi	v0,v0,0x3f
    138c:	28420014 	slti	v0,v0,20
    1390:	1440ffab 	bnez	v0,0x1240
    1394:	00031242 	srl	v0,v1,0x9
    1398:	3c02ff9f 	lui	v0,0xff9f
    139c:	3442ffff 	ori	v0,v0,0xffff
    13a0:	00821024 	and	v0,a0,v0
    13a4:	0800047b 	j	0x11ec
    13a8:	ae020010 	sw	v0,16(s0)
    13ac:	12c0001f 	beqz	s6,0x142c
    13b0:	26a21568 	addiu	v0,s5,5480
    13b4:	90436488 	lbu	v1,25736(v0)
    13b8:	34e40043 	ori	a0,a3,0x43
    13bc:	34c503b0 	ori	a1,a2,0x3b0
    13c0:	a0830000 	sb	v1,0(a0)
    13c4:	aca30000 	sw	v1,0(a1)
    13c8:	40016000 	mfc0	at,$12
    13cc:	34210001 	ori	at,at,0x1
    13d0:	40816000 	mtc0	at,$12
    13d4:	40016000 	mfc0	at,$12
    13d8:	34210001 	ori	at,at,0x1
    13dc:	38210001 	xori	at,at,0x1
    13e0:	40816000 	mtc0	at,$12
    13e4:	26a51568 	addiu	a1,s5,5480
    13e8:	8ca24b04 	lw	v0,19204(a1)
    13ec:	8fbf0038 	lw	ra,56(sp)
    13f0:	8fb70034 	lw	s7,52(sp)
    13f4:	8fb60030 	lw	s6,48(sp)
    13f8:	8fb5002c 	lw	s5,44(sp)
    13fc:	8fb40028 	lw	s4,40(sp)
    1400:	8fb30024 	lw	s3,36(sp)
    1404:	8fb20020 	lw	s2,32(sp)
    1408:	8fb1001c 	lw	s1,28(sp)
    140c:	8fb00018 	lw	s0,24(sp)
    1410:	3c030006 	lui	v1,0x6
    1414:	00431025 	or	v0,v0,v1
    1418:	3c04b041 	lui	a0,0xb041
    141c:	27bd0040 	addiu	sp,sp,64
    1420:	ac820000 	sw	v0,0(a0)
    1424:	03e00008 	jr	ra
    1428:	aca24b04 	sw	v0,19204(a1)
    142c:	90436484 	lbu	v1,25732(v0)
    1430:	34e40042 	ori	a0,a3,0x42
    1434:	34c503b0 	ori	a1,a2,0x3b0
    1438:	a0830000 	sb	v1,0(a0)
    143c:	aca30000 	sw	v1,0(a1)
    1440:	40016000 	mfc0	at,$12
    1444:	34210001 	ori	at,at,0x1
    1448:	40816000 	mtc0	at,$12
    144c:	40016000 	mfc0	at,$12
    1450:	34210001 	ori	at,at,0x1
    1454:	38210001 	xori	at,at,0x1
    1458:	40816000 	mtc0	at,$12
    145c:	26a51568 	addiu	a1,s5,5480
    1460:	8ca24b04 	lw	v0,19204(a1)
    1464:	8fbf0038 	lw	ra,56(sp)
    1468:	8fb70034 	lw	s7,52(sp)
    146c:	8fb60030 	lw	s6,48(sp)
    1470:	8fb5002c 	lw	s5,44(sp)
    1474:	8fb40028 	lw	s4,40(sp)
    1478:	8fb30024 	lw	s3,36(sp)
    147c:	8fb20020 	lw	s2,32(sp)
    1480:	8fb1001c 	lw	s1,28(sp)
    1484:	8fb00018 	lw	s0,24(sp)
    1488:	3c030006 	lui	v1,0x6
    148c:	00431025 	or	v0,v0,v1
    1490:	3c04b041 	lui	a0,0xb041
    1494:	27bd0040 	addiu	sp,sp,64
    1498:	ac820000 	sw	v0,0(a0)
    149c:	03e00008 	jr	ra
    14a0:	aca24b04 	sw	v0,19204(a1)
    14a4:	27bdffc0 	addiu	sp,sp,-64
    14a8:	afb60030 	sw	s6,48(sp)
    14ac:	afbf0038 	sw	ra,56(sp)
    14b0:	afb70034 	sw	s7,52(sp)
    14b4:	afb5002c 	sw	s5,44(sp)
    14b8:	afb40028 	sw	s4,40(sp)
    14bc:	afb30024 	sw	s3,36(sp)
    14c0:	afb20020 	sw	s2,32(sp)
    14c4:	afb1001c 	sw	s1,28(sp)
    14c8:	afb00018 	sw	s0,24(sp)
    14cc:	3c068002 	lui	a2,0x8002
    14d0:	90c57f14 	lbu	a1,32532(a2)
    14d4:	3c038000 	lui	v1,0x8000
    14d8:	3c02b025 	lui	v0,0xb025
    14dc:	34420318 	ori	v0,v0,0x318
    14e0:	24631454 	addiu	v1,v1,5204
    14e4:	30a40001 	andi	a0,a1,0x1
    14e8:	ac430000 	sw	v1,0(v0)
    14ec:	0000b021 	move	s6,zero
    14f0:	10800003 	beqz	a0,0x1500
    14f4:	30a200f7 	andi	v0,a1,0xf7
    14f8:	30a200fe 	andi	v0,a1,0xfe
    14fc:	24160001 	li	s6,1
    1500:	a0c27f14 	sb	v0,32532(a2)
    1504:	90c37f14 	lbu	v1,32532(a2)
    1508:	3c02b025 	lui	v0,0xb025
    150c:	344203b0 	ori	v0,v0,0x3b0
    1510:	ac430000 	sw	v1,0(v0)
    1514:	40016000 	mfc0	at,$12
    1518:	34210001 	ori	at,at,0x1
    151c:	40816000 	mtc0	at,$12
    1520:	3c158002 	lui	s5,0x8002
    1524:	26b21568 	addiu	s2,s5,5480
    1528:	00409821 	move	s3,v0
    152c:	3c148002 	lui	s4,0x8002
    1530:	0800055c 	j	0x1570
    1534:	0240b821 	move	s7,s2
    1538:	96020000 	lhu	v0,0(s0)
    153c:	00000000 	nop
    1540:	28420ffd 	slti	v0,v0,4093
    1544:	10400067 	beqz	v0,0x16e4
    1548:	3c022000 	lui	v0,0x2000
    154c:	8e030008 	lw	v1,8(s0)
    1550:	00000000 	nop
    1554:	00621825 	or	v1,v1,v0
    1558:	00031182 	srl	v0,v1,0x6
    155c:	30420001 	andi	v0,v0,0x1
    1560:	1440006b 	bnez	v0,0x1710
    1564:	3c07b02a 	lui	a3,0xb02a
    1568:	2402ffc0 	li	v0,-64
    156c:	00621024 	and	v0,v1,v0
    1570:	34420004 	ori	v0,v0,0x4
    1574:	3c07b02a 	lui	a3,0xb02a
    1578:	ae020008 	sw	v0,8(s0)
    157c:	34e2001d 	ori	v0,a3,0x1d
    1580:	24430004 	addiu	v1,v0,4
    1584:	0076100b 	.word	0x76100b
    1588:	24040001 	li	a0,1
    158c:	24030002 	li	v1,2
    1590:	a0440000 	sb	a0,0(v0)
    1594:	a0430000 	sb	v1,0(v0)
    1598:	96847e62 	lhu	a0,32354(s4)
    159c:	3c06b025 	lui	a2,0xb025
    15a0:	34c50366 	ori	a1,a2,0x366
    15a4:	24840001 	addiu	a0,a0,1
    15a8:	a6847e62 	sh	a0,32354(s4)
    15ac:	96827e62 	lhu	v0,32354(s4)
    15b0:	240300ff 	li	v1,255
    15b4:	a4a20000 	sh	v0,0(a1)
    15b8:	12230067 	beq	s1,v1,0x1758
    15bc:	00000000 	nop
    15c0:	8e4264d0 	lw	v0,25808(s2)
    15c4:	8e50653c 	lw	s0,25916(s2)
    15c8:	24040005 	li	a0,5
    15cc:	ae620000 	sw	v0,0(s3)
    15d0:	ae4264d4 	sw	v0,25812(s2)
    15d4:	ae700000 	sw	s0,0(s3)
    15d8:	0c00014d 	jal	0x534
    15dc:	00000000 	nop
    15e0:	8e44653c 	lw	a0,25916(s2)
    15e4:	8e436540 	lw	v1,25920(s2)
    15e8:	24840040 	addiu	a0,a0,64
    15ec:	2462007f 	addiu	v0,v1,127
    15f0:	0044102b 	sltu	v0,v0,a0
    15f4:	0082180a 	.word	0x82180a
    15f8:	ae43653c 	sw	v1,25916(s2)
    15fc:	8ee2653c 	lw	v0,25916(s7)
    1600:	00000000 	nop
    1604:	ae620000 	sw	v0,0(s3)
    1608:	3c028002 	lui	v0,0x8002
    160c:	3210ffff 	andi	s0,s0,0xffff
    1610:	02028025 	or	s0,s0,v0
    1614:	ae700000 	sw	s0,0(s3)
    1618:	9202000c 	lbu	v0,12(s0)
    161c:	00000000 	nop
    1620:	ae620000 	sw	v0,0(s3)
    1624:	9211000c 	lbu	s1,12(s0)
    1628:	240200ff 	li	v0,255
    162c:	1222000d 	beq	s1,v0,0x1664
    1630:	00111200 	sll	v0,s1,0x8
    1634:	3c031020 	lui	v1,0x1020
    1638:	00431021 	addu	v0,v0,v1
    163c:	12c00066 	beqz	s6,0x17d8
    1640:	aee264d0 	sw	v0,25808(s7)
    1644:	a2f16498 	sb	s1,25752(s7)
    1648:	26a21568 	addiu	v0,s5,5480
    164c:	8c4664d0 	lw	a2,25808(v0)
    1650:	8c45653c 	lw	a1,25916(v0)
    1654:	24040005 	li	a0,5
    1658:	24070040 	li	a3,64
    165c:	0c000110 	jal	0x440
    1660:	afa00010 	sw	zero,16(sp)
    1664:	26a51568 	addiu	a1,s5,5480
    1668:	8ca2640c 	lw	v0,25612(a1)
    166c:	8e030004 	lw	v1,4(s0)
    1670:	00021042 	srl	v0,v0,0x1
    1674:	30420001 	andi	v0,v0,0x1
    1678:	14400008 	bnez	v0,0x169c
    167c:	3064001f 	andi	a0,v1,0x1f
    1680:	8e020008 	lw	v0,8(s0)
    1684:	3c03e0ff 	lui	v1,0xe0ff
    1688:	3463ffff 	ori	v1,v1,0xffff
    168c:	00431024 	and	v0,v0,v1
    1690:	00042600 	sll	a0,a0,0x18
    1694:	00441025 	or	v0,v0,a0
    1698:	ae020008 	sw	v0,8(s0)
    169c:	96040000 	lhu	a0,0(s0)
    16a0:	8ca36430 	lw	v1,25648(a1)
    16a4:	00041027 	nor	v0,zero,a0
    16a8:	0062102b 	sltu	v0,v1,v0
    16ac:	10400002 	beqz	v0,0x16b8
    16b0:	00641021 	addu	v0,v1,a0
    16b4:	aca26430 	sw	v0,25648(a1)
    16b8:	8e040010 	lw	a0,16(s0)
    16bc:	00000000 	nop
    16c0:	04800047 	bltz	a0,0x17e0
    16c4:	00000000 	nop
    16c8:	8e030014 	lw	v1,20(s0)
    16cc:	00000000 	nop
    16d0:	00031242 	srl	v0,v1,0x9
    16d4:	3042003f 	andi	v0,v0,0x3f
    16d8:	2842000c 	slti	v0,v0,12
    16dc:	1040ff96 	beqz	v0,0x1538
    16e0:	00000000 	nop
    16e4:	8e020008 	lw	v0,8(s0)
    16e8:	3c03dfff 	lui	v1,0xdfff
    16ec:	3463ffff 	ori	v1,v1,0xffff
    16f0:	00431024 	and	v0,v0,v1
    16f4:	3c044000 	lui	a0,0x4000
    16f8:	00441825 	or	v1,v0,a0
    16fc:	00031182 	srl	v0,v1,0x6
    1700:	30420001 	andi	v0,v0,0x1
    1704:	1040ff99 	beqz	v0,0x156c
    1708:	2402ffc0 	li	v0,-64
    170c:	3c07b02a 	lui	a3,0xb02a
    1710:	34e2001d 	ori	v0,a3,0x1d
    1714:	ae030008 	sw	v1,8(s0)
    1718:	24430004 	addiu	v1,v0,4
    171c:	0076100b 	.word	0x76100b
    1720:	24040001 	li	a0,1
    1724:	24030002 	li	v1,2
    1728:	a0440000 	sb	a0,0(v0)
    172c:	a0430000 	sb	v1,0(v0)
    1730:	96847e62 	lhu	a0,32354(s4)
    1734:	3c06b025 	lui	a2,0xb025
    1738:	34c50366 	ori	a1,a2,0x366
    173c:	24840001 	addiu	a0,a0,1
    1740:	a6847e62 	sh	a0,32354(s4)
    1744:	96827e62 	lhu	v0,32354(s4)
    1748:	240300ff 	li	v1,255
    174c:	a4a20000 	sh	v0,0(a1)
    1750:	1623ff9b 	bne	s1,v1,0x15c0
    1754:	00000000 	nop
    1758:	12c0002d 	beqz	s6,0x1810
    175c:	26a21568 	addiu	v0,s5,5480
    1760:	90436498 	lbu	v1,25752(v0)
    1764:	34e40045 	ori	a0,a3,0x45
    1768:	34c503b0 	ori	a1,a2,0x3b0
    176c:	a0830000 	sb	v1,0(a0)
    1770:	aca30000 	sw	v1,0(a1)
    1774:	40016000 	mfc0	at,$12
    1778:	34210001 	ori	at,at,0x1
    177c:	40816000 	mtc0	at,$12
    1780:	40016000 	mfc0	at,$12
    1784:	34210001 	ori	at,at,0x1
    1788:	38210001 	xori	at,at,0x1
    178c:	40816000 	mtc0	at,$12
    1790:	26a51568 	addiu	a1,s5,5480
    1794:	8ca24b04 	lw	v0,19204(a1)
    1798:	8fbf0038 	lw	ra,56(sp)
    179c:	8fb70034 	lw	s7,52(sp)
    17a0:	8fb60030 	lw	s6,48(sp)
    17a4:	8fb5002c 	lw	s5,44(sp)
    17a8:	8fb40028 	lw	s4,40(sp)
    17ac:	8fb30024 	lw	s3,36(sp)
    17b0:	8fb20020 	lw	s2,32(sp)
    17b4:	8fb1001c 	lw	s1,28(sp)
    17b8:	8fb00018 	lw	s0,24(sp)
    17bc:	3c030018 	lui	v1,0x18
    17c0:	00431025 	or	v0,v0,v1
    17c4:	3c04b041 	lui	a0,0xb041
    17c8:	27bd0040 	addiu	sp,sp,64
    17cc:	ac820000 	sw	v0,0(a0)
    17d0:	03e00008 	jr	ra
    17d4:	aca24b04 	sw	v0,19204(a1)
    17d8:	0800057e 	j	0x15f8
    17dc:	a2f1648c 	sb	s1,25740(s7)
    17e0:	8e030014 	lw	v1,20(s0)
    17e4:	00000000 	nop
    17e8:	00031242 	srl	v0,v1,0x9
    17ec:	3042003f 	andi	v0,v0,0x3f
    17f0:	28420014 	slti	v0,v0,20
    17f4:	1440ffb7 	bnez	v0,0x16d4
    17f8:	00031242 	srl	v0,v1,0x9
    17fc:	3c02ff9f 	lui	v0,0xff9f
    1800:	3442ffff 	ori	v0,v0,0xffff
    1804:	00821024 	and	v0,a0,v0
    1808:	080005a0 	j	0x1680
    180c:	ae020010 	sw	v0,16(s0)
    1810:	9043648c 	lbu	v1,25740(v0)
    1814:	34e40044 	ori	a0,a3,0x44
    1818:	34c503b0 	ori	a1,a2,0x3b0
    181c:	a0830000 	sb	v1,0(a0)
    1820:	aca30000 	sw	v1,0(a1)
    1824:	40016000 	mfc0	at,$12
    1828:	34210001 	ori	at,at,0x1
    182c:	40816000 	mtc0	at,$12
    1830:	40016000 	mfc0	at,$12
    1834:	34210001 	ori	at,at,0x1
    1838:	38210001 	xori	at,at,0x1
    183c:	40816000 	mtc0	at,$12
    1840:	26a51568 	addiu	a1,s5,5480
    1844:	8ca24b04 	lw	v0,19204(a1)
    1848:	8fbf0038 	lw	ra,56(sp)
    184c:	8fb70034 	lw	s7,52(sp)
    1850:	8fb60030 	lw	s6,48(sp)
    1854:	8fb5002c 	lw	s5,44(sp)
    1858:	8fb40028 	lw	s4,40(sp)
    185c:	8fb30024 	lw	s3,36(sp)
    1860:	8fb20020 	lw	s2,32(sp)
    1864:	8fb1001c 	lw	s1,28(sp)
    1868:	8fb00018 	lw	s0,24(sp)
    186c:	3c030018 	lui	v1,0x18
    1870:	00431025 	or	v0,v0,v1
    1874:	3c04b041 	lui	a0,0xb041
    1878:	27bd0040 	addiu	sp,sp,64
    187c:	ac820000 	sw	v0,0(a0)
    1880:	03e00008 	jr	ra
    1884:	aca24b04 	sw	v0,19204(a1)
    1888:	27bdffc0 	addiu	sp,sp,-64
    188c:	afb60030 	sw	s6,48(sp)
    1890:	afbf0038 	sw	ra,56(sp)
    1894:	afb70034 	sw	s7,52(sp)
    1898:	afb5002c 	sw	s5,44(sp)
    189c:	afb40028 	sw	s4,40(sp)
    18a0:	afb30024 	sw	s3,36(sp)
    18a4:	afb20020 	sw	s2,32(sp)
    18a8:	afb1001c 	sw	s1,28(sp)
    18ac:	afb00018 	sw	s0,24(sp)
    18b0:	3c068002 	lui	a2,0x8002
    18b4:	90c57f14 	lbu	a1,32532(a2)
    18b8:	3c038000 	lui	v1,0x8000
    18bc:	3c02b025 	lui	v0,0xb025
    18c0:	34420318 	ori	v0,v0,0x318
    18c4:	24631838 	addiu	v1,v1,6200
    18c8:	30a40002 	andi	a0,a1,0x2
    18cc:	ac430000 	sw	v1,0(v0)
    18d0:	0000b021 	move	s6,zero
    18d4:	10800003 	beqz	a0,0x18e4
    18d8:	30a200fb 	andi	v0,a1,0xfb
    18dc:	30a200fd 	andi	v0,a1,0xfd
    18e0:	24160001 	li	s6,1
    18e4:	a0c27f14 	sb	v0,32532(a2)
    18e8:	90c37f14 	lbu	v1,32532(a2)
    18ec:	3c02b025 	lui	v0,0xb025
    18f0:	344203b0 	ori	v0,v0,0x3b0
    18f4:	ac430000 	sw	v1,0(v0)
    18f8:	40016000 	mfc0	at,$12
    18fc:	34210001 	ori	at,at,0x1
    1900:	40816000 	mtc0	at,$12
    1904:	3c158002 	lui	s5,0x8002
    1908:	26b21568 	addiu	s2,s5,5480
    190c:	00409821 	move	s3,v0
    1910:	3c148002 	lui	s4,0x8002
    1914:	08000655 	j	0x1954
    1918:	0240b821 	move	s7,s2
    191c:	96020000 	lhu	v0,0(s0)
    1920:	00000000 	nop
    1924:	28420ffd 	slti	v0,v0,4093
    1928:	10400067 	beqz	v0,0x1ac8
    192c:	3c022000 	lui	v0,0x2000
    1930:	8e030008 	lw	v1,8(s0)
    1934:	00000000 	nop
    1938:	00621825 	or	v1,v1,v0
    193c:	00031182 	srl	v0,v1,0x6
    1940:	30420001 	andi	v0,v0,0x1
    1944:	1440006b 	bnez	v0,0x1af4
    1948:	3c07b02a 	lui	a3,0xb02a
    194c:	2402ffc0 	li	v0,-64
    1950:	00621024 	and	v0,v1,v0
    1954:	34420004 	ori	v0,v0,0x4
    1958:	3c07b02a 	lui	a3,0xb02a
    195c:	ae020008 	sw	v0,8(s0)
    1960:	34e20025 	ori	v0,a3,0x25
    1964:	24430004 	addiu	v1,v0,4
    1968:	0076100b 	.word	0x76100b
    196c:	24040001 	li	a0,1
    1970:	24030002 	li	v1,2
    1974:	a0440000 	sb	a0,0(v0)
    1978:	a0430000 	sb	v1,0(v0)
    197c:	96847e62 	lhu	a0,32354(s4)
    1980:	3c06b025 	lui	a2,0xb025
    1984:	34c50366 	ori	a1,a2,0x366
    1988:	24840001 	addiu	a0,a0,1
    198c:	a6847e62 	sh	a0,32354(s4)
    1990:	96827e62 	lhu	v0,32354(s4)
    1994:	240300ff 	li	v1,255
    1998:	a4a20000 	sh	v0,0(a1)
    199c:	12230067 	beq	s1,v1,0x1b3c
    19a0:	00000000 	nop
    19a4:	8e4264dc 	lw	v0,25820(s2)
    19a8:	8e506548 	lw	s0,25928(s2)
    19ac:	24040006 	li	a0,6
    19b0:	ae620000 	sw	v0,0(s3)
    19b4:	ae4264e0 	sw	v0,25824(s2)
    19b8:	ae700000 	sw	s0,0(s3)
    19bc:	0c00014d 	jal	0x534
    19c0:	00000000 	nop
    19c4:	8e446548 	lw	a0,25928(s2)
    19c8:	8e43654c 	lw	v1,25932(s2)
    19cc:	24840040 	addiu	a0,a0,64
    19d0:	2462007f 	addiu	v0,v1,127
    19d4:	0044102b 	sltu	v0,v0,a0
    19d8:	0082180a 	.word	0x82180a
    19dc:	ae436548 	sw	v1,25928(s2)
    19e0:	8ee26548 	lw	v0,25928(s7)
    19e4:	00000000 	nop
    19e8:	ae620000 	sw	v0,0(s3)
    19ec:	3c028002 	lui	v0,0x8002
    19f0:	3210ffff 	andi	s0,s0,0xffff
    19f4:	02028025 	or	s0,s0,v0
    19f8:	ae700000 	sw	s0,0(s3)
    19fc:	9202000c 	lbu	v0,12(s0)
    1a00:	00000000 	nop
    1a04:	ae620000 	sw	v0,0(s3)
    1a08:	9211000c 	lbu	s1,12(s0)
    1a0c:	240200ff 	li	v0,255
    1a10:	1222000d 	beq	s1,v0,0x1a48
    1a14:	00111200 	sll	v0,s1,0x8
    1a18:	3c031020 	lui	v1,0x1020
    1a1c:	00431021 	addu	v0,v0,v1
    1a20:	12c00066 	beqz	s6,0x1bbc
    1a24:	aee264dc 	sw	v0,25820(s7)
    1a28:	a2f16494 	sb	s1,25748(s7)
    1a2c:	26a21568 	addiu	v0,s5,5480
    1a30:	8c4664dc 	lw	a2,25820(v0)
    1a34:	8c456548 	lw	a1,25928(v0)
    1a38:	24040006 	li	a0,6
    1a3c:	24070040 	li	a3,64
    1a40:	0c000110 	jal	0x440
    1a44:	afa00010 	sw	zero,16(sp)
    1a48:	26a51568 	addiu	a1,s5,5480
    1a4c:	8ca2640c 	lw	v0,25612(a1)
    1a50:	8e030004 	lw	v1,4(s0)
    1a54:	00021042 	srl	v0,v0,0x1
    1a58:	30420001 	andi	v0,v0,0x1
    1a5c:	14400008 	bnez	v0,0x1a80
    1a60:	3064001f 	andi	a0,v1,0x1f
    1a64:	8e020008 	lw	v0,8(s0)
    1a68:	3c03e0ff 	lui	v1,0xe0ff
    1a6c:	3463ffff 	ori	v1,v1,0xffff
    1a70:	00431024 	and	v0,v0,v1
    1a74:	00042600 	sll	a0,a0,0x18
    1a78:	00441025 	or	v0,v0,a0
    1a7c:	ae020008 	sw	v0,8(s0)
    1a80:	96040000 	lhu	a0,0(s0)
    1a84:	8ca36430 	lw	v1,25648(a1)
    1a88:	00041027 	nor	v0,zero,a0
    1a8c:	0062102b 	sltu	v0,v1,v0
    1a90:	10400002 	beqz	v0,0x1a9c
    1a94:	00641021 	addu	v0,v1,a0
    1a98:	aca26430 	sw	v0,25648(a1)
    1a9c:	8e040010 	lw	a0,16(s0)
    1aa0:	00000000 	nop
    1aa4:	04800047 	bltz	a0,0x1bc4
    1aa8:	00000000 	nop
    1aac:	8e030014 	lw	v1,20(s0)
    1ab0:	00000000 	nop
    1ab4:	00031242 	srl	v0,v1,0x9
    1ab8:	3042003f 	andi	v0,v0,0x3f
    1abc:	2842000c 	slti	v0,v0,12
    1ac0:	1040ff96 	beqz	v0,0x191c
    1ac4:	00000000 	nop
    1ac8:	8e020008 	lw	v0,8(s0)
    1acc:	3c03dfff 	lui	v1,0xdfff
    1ad0:	3463ffff 	ori	v1,v1,0xffff
    1ad4:	00431024 	and	v0,v0,v1
    1ad8:	3c044000 	lui	a0,0x4000
    1adc:	00441825 	or	v1,v0,a0
    1ae0:	00031182 	srl	v0,v1,0x6
    1ae4:	30420001 	andi	v0,v0,0x1
    1ae8:	1040ff99 	beqz	v0,0x1950
    1aec:	2402ffc0 	li	v0,-64
    1af0:	3c07b02a 	lui	a3,0xb02a
    1af4:	34e20025 	ori	v0,a3,0x25
    1af8:	ae030008 	sw	v1,8(s0)
    1afc:	24430004 	addiu	v1,v0,4
    1b00:	0076100b 	.word	0x76100b
    1b04:	24040001 	li	a0,1
    1b08:	24030002 	li	v1,2
    1b0c:	a0440000 	sb	a0,0(v0)
    1b10:	a0430000 	sb	v1,0(v0)
    1b14:	96847e62 	lhu	a0,32354(s4)
    1b18:	3c06b025 	lui	a2,0xb025
    1b1c:	34c50366 	ori	a1,a2,0x366
    1b20:	24840001 	addiu	a0,a0,1
    1b24:	a6847e62 	sh	a0,32354(s4)
    1b28:	96827e62 	lhu	v0,32354(s4)
    1b2c:	240300ff 	li	v1,255
    1b30:	a4a20000 	sh	v0,0(a1)
    1b34:	1623ff9b 	bne	s1,v1,0x19a4
    1b38:	00000000 	nop
    1b3c:	12c0002d 	beqz	s6,0x1bf4
    1b40:	26a21568 	addiu	v0,s5,5480
    1b44:	90436494 	lbu	v1,25748(v0)
    1b48:	34e40047 	ori	a0,a3,0x47
    1b4c:	34c503b0 	ori	a1,a2,0x3b0
    1b50:	a0830000 	sb	v1,0(a0)
    1b54:	aca30000 	sw	v1,0(a1)
    1b58:	40016000 	mfc0	at,$12
    1b5c:	34210001 	ori	at,at,0x1
    1b60:	40816000 	mtc0	at,$12
    1b64:	40016000 	mfc0	at,$12
    1b68:	34210001 	ori	at,at,0x1
    1b6c:	38210001 	xori	at,at,0x1
    1b70:	40816000 	mtc0	at,$12
    1b74:	26a51568 	addiu	a1,s5,5480
    1b78:	8ca24b04 	lw	v0,19204(a1)
    1b7c:	8fbf0038 	lw	ra,56(sp)
    1b80:	8fb70034 	lw	s7,52(sp)
    1b84:	8fb60030 	lw	s6,48(sp)
    1b88:	8fb5002c 	lw	s5,44(sp)
    1b8c:	8fb40028 	lw	s4,40(sp)
    1b90:	8fb30024 	lw	s3,36(sp)
    1b94:	8fb20020 	lw	s2,32(sp)
    1b98:	8fb1001c 	lw	s1,28(sp)
    1b9c:	8fb00018 	lw	s0,24(sp)
    1ba0:	3c030060 	lui	v1,0x60
    1ba4:	00431025 	or	v0,v0,v1
    1ba8:	3c04b041 	lui	a0,0xb041
    1bac:	27bd0040 	addiu	sp,sp,64
    1bb0:	ac820000 	sw	v0,0(a0)
    1bb4:	03e00008 	jr	ra
    1bb8:	aca24b04 	sw	v0,19204(a1)
    1bbc:	08000677 	j	0x19dc
    1bc0:	a2f16490 	sb	s1,25744(s7)
    1bc4:	8e030014 	lw	v1,20(s0)
    1bc8:	00000000 	nop
    1bcc:	00031242 	srl	v0,v1,0x9
    1bd0:	3042003f 	andi	v0,v0,0x3f
    1bd4:	28420014 	slti	v0,v0,20
    1bd8:	1440ffb7 	bnez	v0,0x1ab8
    1bdc:	00031242 	srl	v0,v1,0x9
    1be0:	3c02ff9f 	lui	v0,0xff9f
    1be4:	3442ffff 	ori	v0,v0,0xffff
    1be8:	00821024 	and	v0,a0,v0
    1bec:	08000699 	j	0x1a64
    1bf0:	ae020010 	sw	v0,16(s0)
    1bf4:	90436490 	lbu	v1,25744(v0)
    1bf8:	34e40046 	ori	a0,a3,0x46
    1bfc:	34c503b0 	ori	a1,a2,0x3b0
    1c00:	a0830000 	sb	v1,0(a0)
    1c04:	aca30000 	sw	v1,0(a1)
    1c08:	40016000 	mfc0	at,$12
    1c0c:	34210001 	ori	at,at,0x1
    1c10:	40816000 	mtc0	at,$12
    1c14:	40016000 	mfc0	at,$12
    1c18:	34210001 	ori	at,at,0x1
    1c1c:	38210001 	xori	at,at,0x1
    1c20:	40816000 	mtc0	at,$12
    1c24:	26a51568 	addiu	a1,s5,5480
    1c28:	8ca24b04 	lw	v0,19204(a1)
    1c2c:	8fbf0038 	lw	ra,56(sp)
    1c30:	8fb70034 	lw	s7,52(sp)
    1c34:	8fb60030 	lw	s6,48(sp)
    1c38:	8fb5002c 	lw	s5,44(sp)
    1c3c:	8fb40028 	lw	s4,40(sp)
    1c40:	8fb30024 	lw	s3,36(sp)
    1c44:	8fb20020 	lw	s2,32(sp)
    1c48:	8fb1001c 	lw	s1,28(sp)
    1c4c:	8fb00018 	lw	s0,24(sp)
    1c50:	3c030060 	lui	v1,0x60
    1c54:	00431025 	or	v0,v0,v1
    1c58:	3c04b041 	lui	a0,0xb041
    1c5c:	27bd0040 	addiu	sp,sp,64
    1c60:	ac820000 	sw	v0,0(a0)
    1c64:	03e00008 	jr	ra
    1c68:	aca24b04 	sw	v0,19204(a1)
    1c6c:	3c038000 	lui	v1,0x8000
    1c70:	3c02b025 	lui	v0,0xb025
    1c74:	24631c1c 	addiu	v1,v1,7196
    1c78:	34420318 	ori	v0,v0,0x318
    1c7c:	ac430000 	sw	v1,0(v0)
    1c80:	40016000 	mfc0	at,$12
    1c84:	34210001 	ori	at,at,0x1
    1c88:	40816000 	mtc0	at,$12
    1c8c:	40016000 	mfc0	at,$12
    1c90:	34210001 	ori	at,at,0x1
    1c94:	38210001 	xori	at,at,0x1
    1c98:	40816000 	mtc0	at,$12
    1c9c:	3c058002 	lui	a1,0x8002
    1ca0:	24a51568 	addiu	a1,a1,5480
    1ca4:	8ca24b0c 	lw	v0,19212(a1)
    1ca8:	8ca44b04 	lw	a0,19204(a1)
    1cac:	3c030800 	lui	v1,0x800
    1cb0:	00431024 	and	v0,v0,v1
    1cb4:	00822025 	or	a0,a0,v0
    1cb8:	3c03b041 	lui	v1,0xb041
    1cbc:	ac640000 	sw	a0,0(v1)
    1cc0:	03e00008 	jr	ra
    1cc4:	aca44b04 	sw	a0,19204(a1)
    1cc8:	3c04b025 	lui	a0,0xb025
    1ccc:	3c028000 	lui	v0,0x8000
    1cd0:	27bdffc0 	addiu	sp,sp,-64
    1cd4:	34830318 	ori	v1,a0,0x318
    1cd8:	24421c78 	addiu	v0,v0,7288
    1cdc:	afbf003c 	sw	ra,60(sp)
    1ce0:	afbe0038 	sw	s8,56(sp)
    1ce4:	afb70034 	sw	s7,52(sp)
    1ce8:	afb60030 	sw	s6,48(sp)
    1cec:	afb5002c 	sw	s5,44(sp)
    1cf0:	afb40028 	sw	s4,40(sp)
    1cf4:	afb30024 	sw	s3,36(sp)
    1cf8:	afb20020 	sw	s2,32(sp)
    1cfc:	afb1001c 	sw	s1,28(sp)
    1d00:	afb00018 	sw	s0,24(sp)
    1d04:	ac620000 	sw	v0,0(v1)
    1d08:	40016000 	mfc0	at,$12
    1d0c:	34210001 	ori	at,at,0x1
    1d10:	40816000 	mtc0	at,$12
    1d14:	3c028002 	lui	v0,0x8002
    1d18:	3c03b02a 	lui	v1,0xb02a
    1d1c:	24511568 	addiu	s1,v0,5480
    1d20:	349303b0 	ori	s3,a0,0x3b0
    1d24:	3477002c 	ori	s7,v1,0x2c
    1d28:	3c158002 	lui	s5,0x8002
    1d2c:	3c168002 	lui	s6,0x8002
    1d30:	08000741 	j	0x1d04
    1d34:	3c1e8002 	lui	s8,0x8002
    1d38:	922664a8 	lbu	a2,25768(s1)
    1d3c:	8e256578 	lw	a1,25976(s1)
    1d40:	00063200 	sll	a2,a2,0x8
    1d44:	00c23021 	addu	a2,a2,v0
    1d48:	ae26650c 	sw	a2,25868(s1)
    1d4c:	0c000110 	jal	0x440
    1d50:	afa00010 	sw	zero,16(sp)
    1d54:	8e306578 	lw	s0,25976(s1)
    1d58:	2404000a 	li	a0,10
    1d5c:	00009021 	move	s2,zero
    1d60:	ae700000 	sw	s0,0(s3)
    1d64:	0c00014d 	jal	0x534
    1d68:	3210ffff 	andi	s0,s0,0xffff
    1d6c:	3c028002 	lui	v0,0x8002
    1d70:	02028025 	or	s0,s0,v0
    1d74:	9205000c 	lbu	a1,12(s0)
    1d78:	92040002 	lbu	a0,2(s0)
    1d7c:	240200ff 	li	v0,255
    1d80:	30a300ff 	andi	v1,a1,0xff
    1d84:	10620004 	beq	v1,v0,0x1d98
    1d88:	02048021 	addu	s0,s0,a0
    1d8c:	ae630000 	sw	v1,0(s3)
    1d90:	24120001 	li	s2,1
    1d94:	a22564a8 	sb	a1,25768(s1)
    1d98:	aeb0acc8 	sw	s0,-21304(s5)
    1d9c:	02002821 	move	a1,s0
    1da0:	90a20002 	lbu	v0,2(a1)
    1da4:	26100008 	addiu	s0,s0,8
    1da8:	02002021 	move	a0,s0
    1dac:	304200ff 	andi	v0,v0,0xff
    1db0:	ae620000 	sw	v0,0(s3)
    1db4:	90a30003 	lbu	v1,3(a1)
    1db8:	00000000 	nop
    1dbc:	3063007f 	andi	v1,v1,0x7f
    1dc0:	ae630000 	sw	v1,0(s3)
    1dc4:	ae720000 	sw	s2,0(s3)
    1dc8:	90a20003 	lbu	v0,3(a1)
    1dcc:	92c3acc4 	lbu	v1,-21308(s6)
    1dd0:	90a20002 	lbu	v0,2(a1)
    1dd4:	00000000 	nop
    1dd8:	304200ff 	andi	v0,v0,0xff
    1ddc:	2842002f 	slti	v0,v0,47
    1de0:	10400011 	beqz	v0,0x1e28
    1de4:	24020008 	li	v0,8
    1de8:	90a20003 	lbu	v0,3(a1)
    1dec:	00000000 	nop
    1df0:	3042007f 	andi	v0,v0,0x7f
    1df4:	a2c2acc4 	sb	v0,-21308(s6)
    1df8:	90a30002 	lbu	v1,2(a1)
    1dfc:	3c028002 	lui	v0,0x8002
    1e00:	24429a58 	addiu	v0,v0,-26024
    1e04:	306300ff 	andi	v1,v1,0xff
    1e08:	000318c0 	sll	v1,v1,0x3
    1e0c:	00621821 	addu	v1,v1,v0
    1e10:	8c620004 	lw	v0,4(v1)
    1e14:	00000000 	nop
    1e18:	0040f809 	jalr	v0
    1e1c:	afc2acc0 	sw	v0,-21312(s8)
    1e20:	0040a021 	move	s4,v0
    1e24:	24020008 	li	v0,8
    1e28:	2404000a 	li	a0,10
    1e2c:	12820005 	beq	s4,v0,0x1e44
    1e30:	24070100 	li	a3,256
    1e34:	24020001 	li	v0,1
    1e38:	24030002 	li	v1,2
    1e3c:	a2e20001 	sb	v0,1(s7)
    1e40:	a2e30001 	sb	v1,1(s7)
    1e44:	1640ffbc 	bnez	s2,0x1d38
    1e48:	3c021020 	lui	v0,0x1020
    1e4c:	40016000 	mfc0	at,$12
    1e50:	34210001 	ori	at,at,0x1
    1e54:	38210001 	xori	at,at,0x1
    1e58:	40816000 	mtc0	at,$12
    1e5c:	8e224b04 	lw	v0,19204(s1)
    1e60:	3c030400 	lui	v1,0x400
    1e64:	3c04b041 	lui	a0,0xb041
    1e68:	00431025 	or	v0,v0,v1
    1e6c:	ac820000 	sw	v0,0(a0)
    1e70:	8fbf003c 	lw	ra,60(sp)
    1e74:	ae224b04 	sw	v0,19204(s1)
    1e78:	8fbe0038 	lw	s8,56(sp)
    1e7c:	8fb70034 	lw	s7,52(sp)
    1e80:	8fb60030 	lw	s6,48(sp)
    1e84:	8fb5002c 	lw	s5,44(sp)
    1e88:	8fb40028 	lw	s4,40(sp)
    1e8c:	8fb30024 	lw	s3,36(sp)
    1e90:	8fb20020 	lw	s2,32(sp)
    1e94:	8fb1001c 	lw	s1,28(sp)
    1e98:	8fb00018 	lw	s0,24(sp)
    1e9c:	03e00008 	jr	ra
    1ea0:	27bd0040 	addiu	sp,sp,64
    1ea4:	27bdffc8 	addiu	sp,sp,-56
    1ea8:	30a8ffff 	andi	t0,a1,0xffff
    1eac:	3c028002 	lui	v0,0x8002
    1eb0:	01024025 	or	t0,t0,v0
    1eb4:	afb60030 	sw	s6,48(sp)
    1eb8:	afb20020 	sw	s2,32(sp)
    1ebc:	afbf0034 	sw	ra,52(sp)
    1ec0:	afb5002c 	sw	s5,44(sp)
    1ec4:	afb40028 	sw	s4,40(sp)
    1ec8:	afb30024 	sw	s3,36(sp)
    1ecc:	afb1001c 	sw	s1,28(sp)
    1ed0:	afb00018 	sw	s0,24(sp)
    1ed4:	8d030000 	lw	v1,0(t0)
    1ed8:	30d2ffff 	andi	s2,a2,0xffff
    1edc:	00a0b021 	move	s6,a1
    1ee0:	2402c000 	li	v0,-16384
    1ee4:	26450008 	addiu	a1,s2,8
    1ee8:	8d060004 	lw	a2,4(t0)
    1eec:	00621824 	and	v1,v1,v0
    1ef0:	30a53fff 	andi	a1,a1,0x3fff
    1ef4:	3c02fff0 	lui	v0,0xfff0
    1ef8:	00651825 	or	v1,v1,a1
    1efc:	3442ffff 	ori	v0,v0,0xffff
    1f00:	00621824 	and	v1,v1,v0
    1f04:	3c058000 	lui	a1,0x8000
    1f08:	00651825 	or	v1,v1,a1
    1f0c:	34c601ff 	ori	a2,a2,0x1ff
    1f10:	ad030000 	sw	v1,0(t0)
    1f14:	ad060004 	sw	a2,4(t0)
    1f18:	00804821 	move	t1,a0
    1f1c:	30e7ffff 	andi	a3,a3,0xffff
    1f20:	a5120018 	sh	s2,24(t0)
    1f24:	a107001a 	sb	a3,26(t0)
    1f28:	8d030018 	lw	v1,24(t0)
    1f2c:	3c027fff 	lui	v0,0x7fff
    1f30:	3442ffff 	ori	v0,v0,0xffff
    1f34:	00621824 	and	v1,v1,v0
    1f38:	3c158002 	lui	s5,0x8002
    1f3c:	ad030018 	sw	v1,24(t0)
    1f40:	26a51568 	addiu	a1,s5,5480
    1f44:	90a363ea 	lbu	v1,25578(a1)
    1f48:	00000000 	nop
    1f4c:	24620001 	addiu	v0,v1,1
    1f50:	a0a263ea 	sb	v0,25578(a1)
    1f54:	8d040018 	lw	a0,24(t0)
    1f58:	3c0280ff 	lui	v0,0x80ff
    1f5c:	26450020 	addiu	a1,s2,32
    1f60:	3442ffff 	ori	v0,v0,0xffff
    1f64:	3063007f 	andi	v1,v1,0x7f
    1f68:	30b2ffff 	andi	s2,a1,0xffff
    1f6c:	00822024 	and	a0,a0,v0
    1f70:	00031e00 	sll	v1,v1,0x18
    1f74:	3c02b025 	lui	v0,0xb025
    1f78:	344200c0 	ori	v0,v0,0xc0
    1f7c:	00832025 	or	a0,a0,v1
    1f80:	32450007 	andi	a1,s2,0x7
    1f84:	ad040018 	sw	a0,24(t0)
    1f88:	a4520000 	sh	s2,0(v0)
    1f8c:	10a00003 	beqz	a1,0x1f9c
    1f90:	3242ffff 	andi	v0,s2,0xffff
    1f94:	26420008 	addiu	v0,s2,8
    1f98:	3042ffff 	andi	v0,v0,0xffff
    1f9c:	26b41568 	addiu	s4,s5,5480
    1fa0:	8e8665e8 	lw	a2,26088(s4)
    1fa4:	8e9065ec 	lw	s0,26092(s4)
    1fa8:	3052fff8 	andi	s2,v0,0xfff8
    1fac:	00d21021 	addu	v0,a2,s2
    1fb0:	0202102b 	sltu	v0,s0,v0
    1fb4:	10400031 	beqz	v0,0x207c
    1fb8:	313300ff 	andi	s3,t1,0xff
    1fbc:	02068023 	subu	s0,s0,a2
    1fc0:	02c02821 	move	a1,s6
    1fc4:	3207ffff 	andi	a3,s0,0xffff
    1fc8:	24110001 	li	s1,1
    1fcc:	02602021 	move	a0,s3
    1fd0:	0c000110 	jal	0x440
    1fd4:	afb10010 	sw	s1,16(sp)
    1fd8:	02501823 	subu	v1,s2,s0
    1fdc:	3072ffff 	andi	s2,v1,0xffff
    1fe0:	3c021022 	lui	v0,0x1022
    1fe4:	02421021 	addu	v0,s2,v0
    1fe8:	02602021 	move	a0,s3
    1fec:	0c00014d 	jal	0x534
    1ff0:	ae8265e8 	sw	v0,26088(s4)
    1ff4:	02d02821 	addu	a1,s6,s0
    1ff8:	02403821 	move	a3,s2
    1ffc:	02602021 	move	a0,s3
    2000:	afb10010 	sw	s1,16(sp)
    2004:	3c061022 	lui	a2,0x1022
    2008:	0c000110 	jal	0x440
    200c:	26b11568 	addiu	s1,s5,5480
    2010:	8e2365e8 	lw	v1,26088(s1)
    2014:	3c10b025 	lui	s0,0xb025
    2018:	360203b0 	ori	v0,s0,0x3b0
    201c:	02602021 	move	a0,s3
    2020:	ac430000 	sw	v1,0(v0)
    2024:	0c00014d 	jal	0x534
    2028:	00000000 	nop
    202c:	8e2565e8 	lw	a1,26088(s1)
    2030:	360200ec 	ori	v0,s0,0xec
    2034:	360400bd 	ori	a0,s0,0xbd
    2038:	ac450000 	sw	a1,0(v0)
    203c:	90830000 	lbu	v1,0(a0)
    2040:	361000c2 	ori	s0,s0,0xc2
    2044:	8fbf0034 	lw	ra,52(sp)
    2048:	34630010 	ori	v1,v1,0x10
    204c:	a0830000 	sb	v1,0(a0)
    2050:	8fb60030 	lw	s6,48(sp)
    2054:	a6050000 	sh	a1,0(s0)
    2058:	8fb5002c 	lw	s5,44(sp)
    205c:	8fb40028 	lw	s4,40(sp)
    2060:	8fb30024 	lw	s3,36(sp)
    2064:	8fb20020 	lw	s2,32(sp)
    2068:	8fb1001c 	lw	s1,28(sp)
    206c:	8fb00018 	lw	s0,24(sp)
    2070:	24020001 	li	v0,1
    2074:	03e00008 	jr	ra
    2078:	27bd0038 	addiu	sp,sp,56
    207c:	02c02821 	move	a1,s6
    2080:	02602021 	move	a0,s3
    2084:	02403821 	move	a3,s2
    2088:	24020001 	li	v0,1
    208c:	0c000110 	jal	0x440
    2090:	afa20010 	sw	v0,16(sp)
    2094:	8e8365e8 	lw	v1,26088(s4)
    2098:	26b11568 	addiu	s1,s5,5480
    209c:	3c10b025 	lui	s0,0xb025
    20a0:	00721821 	addu	v1,v1,s2
    20a4:	ae8365e8 	sw	v1,26088(s4)
    20a8:	8e2365e8 	lw	v1,26088(s1)
    20ac:	360203b0 	ori	v0,s0,0x3b0
    20b0:	02602021 	move	a0,s3
    20b4:	ac430000 	sw	v1,0(v0)
    20b8:	0c00014d 	jal	0x534
    20bc:	00000000 	nop
    20c0:	8e2565e8 	lw	a1,26088(s1)
    20c4:	360200ec 	ori	v0,s0,0xec
    20c8:	360400bd 	ori	a0,s0,0xbd
    20cc:	ac450000 	sw	a1,0(v0)
    20d0:	90830000 	lbu	v1,0(a0)
    20d4:	361000c2 	ori	s0,s0,0xc2
    20d8:	8fbf0034 	lw	ra,52(sp)
    20dc:	34630010 	ori	v1,v1,0x10
    20e0:	a0830000 	sb	v1,0(a0)
    20e4:	8fb60030 	lw	s6,48(sp)
    20e8:	a6050000 	sh	a1,0(s0)
    20ec:	8fb5002c 	lw	s5,44(sp)
    20f0:	8fb40028 	lw	s4,40(sp)
    20f4:	8fb30024 	lw	s3,36(sp)
    20f8:	8fb20020 	lw	s2,32(sp)
    20fc:	8fb1001c 	lw	s1,28(sp)
    2100:	8fb00018 	lw	s0,24(sp)
    2104:	24020001 	li	v0,1
    2108:	03e00008 	jr	ra
    210c:	27bd0038 	addiu	sp,sp,56
    2110:	27bdffe0 	addiu	sp,sp,-32
    2114:	3c02b025 	lui	v0,0xb025
    2118:	afb10014 	sw	s1,20(sp)
    211c:	afbf0018 	sw	ra,24(sp)
    2120:	afb00010 	sw	s0,16(sp)
    2124:	344200bf 	ori	v0,v0,0xbf
    2128:	90430000 	lbu	v1,0(v0)
    212c:	00002821 	move	a1,zero
    2130:	24060008 	li	a2,8
    2134:	2c630004 	sltiu	v1,v1,4
    2138:	14600012 	bnez	v1,0x2184
    213c:	00808821 	move	s1,a0
    2140:	40026000 	mfc0	v0,$12
    2144:	34410001 	ori	at,v0,0x1
    2148:	38210001 	xori	at,at,0x1
    214c:	40816000 	mtc0	at,$12
    2150:	3c038002 	lui	v1,0x8002
    2154:	24637b94 	addiu	v1,v1,31636
    2158:	8c640004 	lw	a0,4(v1)
    215c:	ae230000 	sw	v1,0(s1)
    2160:	ac710004 	sw	s1,4(v1)
    2164:	ac910000 	sw	s1,0(a0)
    2168:	ae240004 	sw	a0,4(s1)
    216c:	40826000 	mtc0	v0,$12
    2170:	8fbf0018 	lw	ra,24(sp)
    2174:	8fb10014 	lw	s1,20(sp)
    2178:	8fb00010 	lw	s0,16(sp)
    217c:	03e00008 	jr	ra
    2180:	27bd0020 	addiu	sp,sp,32
    2184:	94820008 	lhu	v0,8(a0)
    2188:	3c048002 	lui	a0,0x8002
    218c:	0c004558 	jal	0x11560
    2190:	00442025 	or	a0,v0,a0
    2194:	40106000 	mfc0	s0,$12
    2198:	36010001 	ori	at,s0,0x1
    219c:	38210001 	xori	at,at,0x1
    21a0:	40816000 	mtc0	at,$12
    21a4:	8e250008 	lw	a1,8(s1)
    21a8:	9626000c 	lhu	a2,12(s1)
    21ac:	96270014 	lhu	a3,20(s1)
    21b0:	0c000795 	jal	0x1e54
    21b4:	24040009 	li	a0,9
    21b8:	8e230004 	lw	v1,4(s1)
    21bc:	8e220000 	lw	v0,0(s1)
    21c0:	02202021 	move	a0,s1
    21c4:	ac620000 	sw	v0,0(v1)
    21c8:	ac430004 	sw	v1,4(v0)
    21cc:	ae310000 	sw	s1,0(s1)
    21d0:	0c005185 	jal	0x14614
    21d4:	ae310004 	sw	s1,4(s1)
    21d8:	40906000 	mtc0	s0,$12
    21dc:	8fbf0018 	lw	ra,24(sp)
    21e0:	8fb10014 	lw	s1,20(sp)
    21e4:	8fb00010 	lw	s0,16(sp)
    21e8:	03e00008 	jr	ra
    21ec:	27bd0020 	addiu	sp,sp,32
    21f0:	3c038000 	lui	v1,0x8000
    21f4:	3c02b025 	lui	v0,0xb025
    21f8:	246321a0 	addiu	v1,v1,8608
    21fc:	34420318 	ori	v0,v0,0x318
    2200:	27bdffe0 	addiu	sp,sp,-32
    2204:	3084ffff 	andi	a0,a0,0xffff
    2208:	ac430000 	sw	v1,0(v0)
    220c:	afb20018 	sw	s2,24(sp)
    2210:	afb10014 	sw	s1,20(sp)
    2214:	afb00010 	sw	s0,16(sp)
    2218:	afbf001c 	sw	ra,28(sp)
    221c:	30b0ffff 	andi	s0,a1,0xffff
    2220:	30d2ffff 	andi	s2,a2,0xffff
    2224:	0c005169 	jal	0x145a4
    2228:	30f1ffff 	andi	s1,a3,0xffff
    222c:	00402021 	move	a0,v0
    2230:	1040000a 	beqz	v0,0x225c
    2234:	00001821 	move	v1,zero
    2238:	94430008 	lhu	v1,8(v0)
    223c:	ac500014 	sw	s0,20(v0)
    2240:	3c028002 	lui	v0,0x8002
    2244:	00621825 	or	v1,v1,v0
    2248:	24630018 	addiu	v1,v1,24
    224c:	a4710006 	sh	s1,6(v1)
    2250:	0c000830 	jal	0x20c0
    2254:	a4720004 	sh	s2,4(v1)
    2258:	24030001 	li	v1,1
    225c:	8fbf001c 	lw	ra,28(sp)
    2260:	8fb20018 	lw	s2,24(sp)
    2264:	8fb10014 	lw	s1,20(sp)
    2268:	8fb00010 	lw	s0,16(sp)
    226c:	00601021 	move	v0,v1
    2270:	03e00008 	jr	ra
    2274:	27bd0020 	addiu	sp,sp,32
    2278:	3c04b02a 	lui	a0,0xb02a
    227c:	34850028 	ori	a1,a0,0x28
    2280:	90820003 	lbu	v0,3(a0)
    2284:	24840004 	addiu	a0,a0,4
    2288:	14400005 	bnez	v0,0x22a0
    228c:	00a4182b 	sltu	v1,a1,a0
    2290:	1060fffb 	beqz	v1,0x2280
    2294:	24020001 	li	v0,1
    2298:	03e00008 	jr	ra
    229c:	00000000 	nop
    22a0:	03e00008 	jr	ra
    22a4:	00001021 	move	v0,zero
    22a8:	3c038000 	lui	v1,0x8000
    22ac:	3c02b025 	lui	v0,0xb025
    22b0:	24632258 	addiu	v1,v1,8792
    22b4:	34420318 	ori	v0,v0,0x318
    22b8:	27bdffd0 	addiu	sp,sp,-48
    22bc:	ac430000 	sw	v1,0(v0)
    22c0:	afb30024 	sw	s3,36(sp)
    22c4:	afbf0028 	sw	ra,40(sp)
    22c8:	afb20020 	sw	s2,32(sp)
    22cc:	afb1001c 	sw	s1,28(sp)
    22d0:	0c00088a 	jal	0x2228
    22d4:	afb00018 	sw	s0,24(sp)
    22d8:	10400006 	beqz	v0,0x22f4
    22dc:	3c138002 	lui	s3,0x8002
    22e0:	26631568 	addiu	v1,s3,5480
    22e4:	90624b7e 	lbu	v0,19326(v1)
    22e8:	00000000 	nop
    22ec:	1440009b 	bnez	v0,0x255c
    22f0:	3404c000 	li	a0,0xc000
    22f4:	40016000 	mfc0	at,$12
    22f8:	34210001 	ori	at,at,0x1
    22fc:	40816000 	mtc0	at,$12
    2300:	3c02b02a 	lui	v0,0xb02a
    2304:	34420036 	ori	v0,v0,0x36
    2308:	90430000 	lbu	v1,0(v0)
    230c:	26661568 	addiu	a2,s3,5480
    2310:	8cc565f0 	lw	a1,26096(a2)
    2314:	000318c0 	sll	v1,v1,0x3
    2318:	3c04b023 	lui	a0,0xb023
    231c:	306307f0 	andi	v1,v1,0x7f0
    2320:	3c021fff 	lui	v0,0x1fff
    2324:	00641821 	addu	v1,v1,a0
    2328:	3442ffff 	ori	v0,v0,0xffff
    232c:	00622024 	and	a0,v1,v0
    2330:	00858823 	subu	s1,a0,a1
    2334:	0085382b 	sltu	a3,a0,a1
    2338:	26220400 	addiu	v0,s1,1024
    233c:	8cc36594 	lw	v1,26004(a2)
    2340:	0047880b 	.word	0x47880b
    2344:	2e250401 	sltiu	a1,s1,1025
    2348:	acc36590 	sw	v1,26000(a2)
    234c:	acc465f4 	sw	a0,26100(a2)
    2350:	a4c0659a 	sh	zero,26010(a2)
    2354:	14a00011 	bnez	a1,0x239c
    2358:	a0c06599 	sb	zero,26009(a2)
    235c:	2483fc00 	addiu	v1,a0,-1024
    2360:	3c021023 	lui	v0,0x1023
    2364:	0087180b 	.word	0x87180b
    2368:	344203ff 	ori	v0,v0,0x3ff
    236c:	0043102b 	sltu	v0,v0,v1
    2370:	14400033 	bnez	v0,0x2440
    2374:	00000000 	nop
    2378:	00838823 	subu	s1,a0,v1
    237c:	0083102b 	sltu	v0,a0,v1
    2380:	acc365f0 	sw	v1,26096(a2)
    2384:	10400003 	beqz	v0,0x2394
    2388:	2e250401 	sltiu	a1,s1,1025
    238c:	26310400 	addiu	s1,s1,1024
    2390:	2e250401 	sltiu	a1,s1,1025
    2394:	10a0000e 	beqz	a1,0x23d0
    2398:	26701568 	addiu	s0,s3,5480
    239c:	26701568 	addiu	s0,s3,5480
    23a0:	8e0365f4 	lw	v1,26100(s0)
    23a4:	8e0465f0 	lw	a0,26096(s0)
    23a8:	00000000 	nop
    23ac:	0083102b 	sltu	v0,a0,v1
    23b0:	14400025 	bnez	v0,0x2448
    23b4:	0064102b 	sltu	v0,v1,a0
    23b8:	14400051 	bnez	v0,0x2500
    23bc:	3c02b025 	lui	v0,0xb025
    23c0:	24030080 	li	v1,128
    23c4:	344203d0 	ori	v0,v0,0x3d0
    23c8:	ac430000 	sw	v1,0(v0)
    23cc:	26701568 	addiu	s0,s3,5480
    23d0:	960365f0 	lhu	v1,26096(s0)
    23d4:	3c02b02a 	lui	v0,0xb02a
    23d8:	34420035 	ori	v0,v0,0x35
    23dc:	000388c2 	srl	s1,v1,0x3
    23e0:	a0510000 	sb	s1,0(v0)
    23e4:	0c0013da 	jal	0x4f68
    23e8:	00000000 	nop
    23ec:	9603659a 	lhu	v1,26010(s0)
    23f0:	3c02b025 	lui	v0,0xb025
    23f4:	344203b0 	ori	v0,v0,0x3b0
    23f8:	ac430000 	sw	v1,0(v0)
    23fc:	40016000 	mfc0	at,$12
    2400:	34210001 	ori	at,at,0x1
    2404:	38210001 	xori	at,at,0x1
    2408:	40816000 	mtc0	at,$12
    240c:	8e024b04 	lw	v0,19204(s0)
    2410:	3c030080 	lui	v1,0x80
    2414:	3c04b041 	lui	a0,0xb041
    2418:	00431025 	or	v0,v0,v1
    241c:	ac820000 	sw	v0,0(a0)
    2420:	8fbf0028 	lw	ra,40(sp)
    2424:	ae024b04 	sw	v0,19204(s0)
    2428:	8fb30024 	lw	s3,36(sp)
    242c:	8fb20020 	lw	s2,32(sp)
    2430:	8fb1001c 	lw	s1,28(sp)
    2434:	8fb00018 	lw	s0,24(sp)
    2438:	03e00008 	jr	ra
    243c:	27bd0030 	addiu	sp,sp,48
    2440:	080008ca 	j	0x2328
    2444:	2463fc00 	addiu	v1,v1,-1024
    2448:	8e056590 	lw	a1,26000(s0)
    244c:	00803021 	move	a2,a0
    2450:	3227ffff 	andi	a3,s1,0xffff
    2454:	24040009 	li	a0,9
    2458:	0c000110 	jal	0x440
    245c:	afa00010 	sw	zero,16(sp)
    2460:	8e036590 	lw	v1,26000(s0)
    2464:	9605659a 	lhu	a1,26010(s0)
    2468:	8e0265f0 	lw	v0,26096(s0)
    246c:	00711821 	addu	v1,v1,s1
    2470:	02252821 	addu	a1,s1,a1
    2474:	00511021 	addu	v0,v0,s1
    2478:	24040009 	li	a0,9
    247c:	ae0265f0 	sw	v0,26096(s0)
    2480:	ae036590 	sw	v1,26000(s0)
    2484:	0c00014d 	jal	0x534
    2488:	a605659a 	sh	a1,26010(s0)
    248c:	26701568 	addiu	s0,s3,5480
    2490:	960365f0 	lhu	v1,26096(s0)
    2494:	3c02b02a 	lui	v0,0xb02a
    2498:	34420035 	ori	v0,v0,0x35
    249c:	000388c2 	srl	s1,v1,0x3
    24a0:	a0510000 	sb	s1,0(v0)
    24a4:	0c0013da 	jal	0x4f68
    24a8:	00000000 	nop
    24ac:	9603659a 	lhu	v1,26010(s0)
    24b0:	3c02b025 	lui	v0,0xb025
    24b4:	344203b0 	ori	v0,v0,0x3b0
    24b8:	ac430000 	sw	v1,0(v0)
    24bc:	40016000 	mfc0	at,$12
    24c0:	34210001 	ori	at,at,0x1
    24c4:	38210001 	xori	at,at,0x1
    24c8:	40816000 	mtc0	at,$12
    24cc:	8e024b04 	lw	v0,19204(s0)
    24d0:	3c030080 	lui	v1,0x80
    24d4:	3c04b041 	lui	a0,0xb041
    24d8:	00431025 	or	v0,v0,v1
    24dc:	ac820000 	sw	v0,0(a0)
    24e0:	8fbf0028 	lw	ra,40(sp)
    24e4:	ae024b04 	sw	v0,19204(s0)
    24e8:	8fb30024 	lw	s3,36(sp)
    24ec:	8fb20020 	lw	s2,32(sp)
    24f0:	8fb1001c 	lw	s1,28(sp)
    24f4:	8fb00018 	lw	s0,24(sp)
    24f8:	03e00008 	jr	ra
    24fc:	27bd0030 	addiu	sp,sp,48
    2500:	8e0265f8 	lw	v0,26104(s0)
    2504:	8e056590 	lw	a1,26000(s0)
    2508:	00803021 	move	a2,a0
    250c:	00448823 	subu	s1,v0,a0
    2510:	3227ffff 	andi	a3,s1,0xffff
    2514:	24040009 	li	a0,9
    2518:	0c000110 	jal	0x440
    251c:	afa00010 	sw	zero,16(sp)
    2520:	8e036590 	lw	v1,26000(s0)
    2524:	9602659a 	lhu	v0,26010(s0)
    2528:	961265f4 	lhu	s2,26100(s0)
    252c:	00711821 	addu	v1,v1,s1
    2530:	02221021 	addu	v0,s1,v0
    2534:	3c111023 	lui	s1,0x1023
    2538:	ae036590 	sw	v1,26000(s0)
    253c:	a602659a 	sh	v0,26010(s0)
    2540:	1640000c 	bnez	s2,0x2574
    2544:	ae1165f0 	sw	s1,26096(s0)
    2548:	24040009 	li	a0,9
    254c:	0c00014d 	jal	0x534
    2550:	26701568 	addiu	s0,s3,5480
    2554:	08000910 	j	0x2440
    2558:	00000000 	nop
    255c:	94626778 	lhu	v0,26488(v1)
    2560:	a0604b7e 	sb	zero,19326(v1)
    2564:	0c001ad8 	jal	0x6b60
    2568:	00442021 	addu	a0,v0,a0
    256c:	080008a9 	j	0x22a4
    2570:	00000000 	nop
    2574:	0c00014d 	jal	0x534
    2578:	24040009 	li	a0,9
    257c:	8e056590 	lw	a1,26000(s0)
    2580:	24040009 	li	a0,9
    2584:	3c061023 	lui	a2,0x1023
    2588:	02403821 	move	a3,s2
    258c:	0c000110 	jal	0x440
    2590:	afa00010 	sw	zero,16(sp)
    2594:	8e036590 	lw	v1,26000(s0)
    2598:	9602659a 	lhu	v0,26010(s0)
    259c:	02512021 	addu	a0,s2,s1
    25a0:	00721821 	addu	v1,v1,s2
    25a4:	02421021 	addu	v0,s2,v0
    25a8:	ae0465f0 	sw	a0,26096(s0)
    25ac:	24040009 	li	a0,9
    25b0:	ae036590 	sw	v1,26000(s0)
    25b4:	0800093f 	j	0x24fc
    25b8:	a602659a 	sh	v0,26010(s0)
    25bc:	03e00008 	jr	ra
    25c0:	00001021 	move	v0,zero
    25c4:	03e00008 	jr	ra
    25c8:	24020005 	li	v0,5
    25cc:	03e00008 	jr	ra
    25d0:	00001021 	move	v0,zero
    25d4:	3c098002 	lui	t1,0x8002
    25d8:	25281568 	addiu	t0,t1,5480
    25dc:	8d0663f0 	lw	a2,25584(t0)
    25e0:	3402ffff 	li	v0,0xffff
    25e4:	10c2003f 	beq	a2,v0,0x26e4
    25e8:	00803821 	move	a3,a0
    25ec:	00c7102b 	sltu	v0,a2,a3
    25f0:	10400030 	beqz	v0,0x26b4
    25f4:	00061902 	srl	v1,a2,0x4
    25f8:	00c71021 	addu	v0,a2,a3
    25fc:	00431023 	subu	v0,v0,v1
    2600:	24460010 	addiu	a2,v0,16
    2604:	ad0663f0 	sw	a2,25584(t0)
    2608:	25261568 	addiu	a2,t1,5480
    260c:	8cc44004 	lw	a0,16388(a2)
    2610:	ad0263f4 	sw	v0,25588(t0)
    2614:	3402ffff 	li	v0,0xffff
    2618:	1082002f 	beq	a0,v0,0x26d8
    261c:	00000000 	nop
    2620:	0087102b 	sltu	v0,a0,a3
    2624:	1040001f 	beqz	v0,0x26a4
    2628:	00041902 	srl	v1,a0,0x4
    262c:	00871021 	addu	v0,a0,a3
    2630:	00431023 	subu	v0,v0,v1
    2634:	24440010 	addiu	a0,v0,16
    2638:	acc44004 	sw	a0,16388(a2)
    263c:	acc263f4 	sw	v0,25588(a2)
    2640:	000510c0 	sll	v0,a1,0x3
    2644:	00451021 	addu	v0,v0,a1
    2648:	00021080 	sll	v0,v0,0x2
    264c:	00451021 	addu	v0,v0,a1
    2650:	25231568 	addiu	v1,t1,5480
    2654:	00021080 	sll	v0,v0,0x2
    2658:	00432821 	addu	a1,v0,v1
    265c:	8ca6517c 	lw	a2,20860(a1)
    2660:	00072100 	sll	a0,a3,0x4
    2664:	38c2ffff 	xori	v0,a2,0xffff
    2668:	0082300a 	.word	0x82300a
    266c:	00c7182b 	sltu	v1,a2,a3
    2670:	10600007 	beqz	v1,0x2690
    2674:	00c71021 	addu	v0,a2,a3
    2678:	00061902 	srl	v1,a2,0x4
    267c:	00431023 	subu	v0,v0,v1
    2680:	24460010 	addiu	a2,v0,16
    2684:	aca6517c 	sw	a2,20860(a1)
    2688:	03e00008 	jr	ra
    268c:	aca25180 	sw	v0,20864(a1)
    2690:	00061902 	srl	v1,a2,0x4
    2694:	00431023 	subu	v0,v0,v1
    2698:	aca2517c 	sw	v0,20860(a1)
    269c:	03e00008 	jr	ra
    26a0:	aca25180 	sw	v0,20864(a1)
    26a4:	00871021 	addu	v0,a0,a3
    26a8:	00431023 	subu	v0,v0,v1
    26ac:	0800097b 	j	0x25ec
    26b0:	acc24004 	sw	v0,16388(a2)
    26b4:	00c71021 	addu	v0,a2,a3
    26b8:	25261568 	addiu	a2,t1,5480
    26bc:	8cc44004 	lw	a0,16388(a2)
    26c0:	00431023 	subu	v0,v0,v1
    26c4:	ad0263f0 	sw	v0,25584(t0)
    26c8:	ad0263f4 	sw	v0,25588(t0)
    26cc:	3402ffff 	li	v0,0xffff
    26d0:	1482ffd4 	bne	a0,v0,0x2624
    26d4:	0087102b 	sltu	v0,a0,a3
    26d8:	00072100 	sll	a0,a3,0x4
    26dc:	08000974 	j	0x25d0
    26e0:	acc44004 	sw	a0,16388(a2)
    26e4:	00043100 	sll	a2,a0,0x4
    26e8:	08000967 	j	0x259c
    26ec:	ad0663f0 	sw	a2,25584(t0)
    26f0:	24820063 	addiu	v0,a0,99
    26f4:	2c420077 	sltiu	v0,v0,119
    26f8:	28850000 	slti	a1,a0,0
    26fc:	10400004 	beqz	v0,0x2710
    2700:	00001821 	move	v1,zero
    2704:	24820064 	addiu	v0,a0,100
    2708:	24030064 	li	v1,100
    270c:	0045180b 	.word	0x45180b
    2710:	03e00008 	jr	ra
    2714:	00601021 	move	v0,v1
    2718:	27bdffe8 	addiu	sp,sp,-24
    271c:	afbf0014 	sw	ra,20(sp)
    2720:	afb00010 	sw	s0,16(sp)
    2724:	8c82000c 	lw	v0,12(a0)
    2728:	00000000 	nop
    272c:	3042003f 	andi	v0,v0,0x3f
    2730:	28420004 	slti	v0,v0,4
    2734:	1440000d 	bnez	v0,0x276c
    2738:	00a03021 	move	a2,a1
    273c:	3c028002 	lui	v0,0x8002
    2740:	24421568 	addiu	v0,v0,5480
    2744:	8c436408 	lw	v1,25608(v0)
    2748:	8fbf0014 	lw	ra,20(sp)
    274c:	8fb00010 	lw	s0,16(sp)
    2750:	24630001 	addiu	v1,v1,1
    2754:	ac436408 	sw	v1,25608(v0)
    2758:	90a40004 	lbu	a0,4(a1)
    275c:	27bd0018 	addiu	sp,sp,24
    2760:	00042042 	srl	a0,a0,0x1
    2764:	080009a8 	j	0x26a0
    2768:	2484ff96 	addiu	a0,a0,-106
    276c:	3c108002 	lui	s0,0x8002
    2770:	3c02b025 	lui	v0,0xb025
    2774:	26051568 	addiu	a1,s0,5480
    2778:	34420824 	ori	v0,v0,0x824
    277c:	8c440000 	lw	a0,0(v0)
    2780:	8ca36404 	lw	v1,25604(a1)
    2784:	30840200 	andi	a0,a0,0x200
    2788:	24630001 	addiu	v1,v1,1
    278c:	14800020 	bnez	a0,0x2810
    2790:	aca36404 	sw	v1,25604(a1)
    2794:	90c30005 	lbu	v1,5(a2)
    2798:	24020001 	li	v0,1
    279c:	00032182 	srl	a0,v1,0x6
    27a0:	1082003e 	beq	a0,v0,0x289c
    27a4:	28820002 	slti	v0,a0,2
    27a8:	1440004f 	bnez	v0,0x28e8
    27ac:	24020002 	li	v0,2
    27b0:	10820043 	beq	a0,v0,0x28c0
    27b4:	24020003 	li	v0,3
    27b8:	10820025 	beq	a0,v0,0x2850
    27bc:	3063003e 	andi	v1,v1,0x3e
    27c0:	0c0009a8 	jal	0x26a0
    27c4:	00e02021 	move	a0,a3
    27c8:	26051568 	addiu	a1,s0,5480
    27cc:	8ca46400 	lw	a0,25600(a1)
    27d0:	00403021 	move	a2,v0
    27d4:	3402ffff 	li	v0,0xffff
    27d8:	10820028 	beq	a0,v0,0x287c
    27dc:	00000000 	nop
    27e0:	0086102b 	sltu	v0,a0,a2
    27e4:	1040001d 	beqz	v0,0x285c
    27e8:	00041902 	srl	v1,a0,0x4
    27ec:	00861021 	addu	v0,a0,a2
    27f0:	8fbf0014 	lw	ra,20(sp)
    27f4:	8fb00010 	lw	s0,16(sp)
    27f8:	00432023 	subu	a0,v0,v1
    27fc:	24840010 	addiu	a0,a0,16
    2800:	00c01021 	move	v0,a2
    2804:	27bd0018 	addiu	sp,sp,24
    2808:	03e00008 	jr	ra
    280c:	aca46400 	sw	a0,25600(a1)
    2810:	90c30005 	lbu	v1,5(a2)
    2814:	24020001 	li	v0,1
    2818:	30640060 	andi	a0,v1,0x60
    281c:	00042142 	srl	a0,a0,0x5
    2820:	10820019 	beq	a0,v0,0x2888
    2824:	28820002 	slti	v0,a0,2
    2828:	14400029 	bnez	v0,0x28d0
    282c:	24020002 	li	v0,2
    2830:	1082001e 	beq	a0,v0,0x28ac
    2834:	24020003 	li	v0,3
    2838:	1482ffe1 	bne	a0,v0,0x27c0
    283c:	3062001f 	andi	v0,v1,0x1f
    2840:	00021040 	sll	v0,v0,0x1
    2844:	2403ffce 	li	v1,-50
    2848:	080009dc 	j	0x2770
    284c:	00623823 	subu	a3,v1,v0
    2850:	2402ffce 	li	v0,-50
    2854:	080009dc 	j	0x2770
    2858:	00433823 	subu	a3,v0,v1
    285c:	00861021 	addu	v0,a0,a2
    2860:	8fbf0014 	lw	ra,20(sp)
    2864:	8fb00010 	lw	s0,16(sp)
    2868:	00431023 	subu	v0,v0,v1
    286c:	aca26400 	sw	v0,25600(a1)
    2870:	27bd0018 	addiu	sp,sp,24
    2874:	03e00008 	jr	ra
    2878:	00c01021 	move	v0,a2
    287c:	00062100 	sll	a0,a2,0x4
    2880:	080009e4 	j	0x2790
    2884:	aca46400 	sw	a0,25600(a1)
    2888:	3062001f 	andi	v0,v1,0x1f
    288c:	00021040 	sll	v0,v0,0x1
    2890:	24030005 	li	v1,5
    2894:	080009dc 	j	0x2770
    2898:	00623823 	subu	a3,v1,v0
    289c:	3063003e 	andi	v1,v1,0x3e
    28a0:	24020005 	li	v0,5
    28a4:	080009dc 	j	0x2770
    28a8:	00433823 	subu	a3,v0,v1
    28ac:	3062001f 	andi	v0,v1,0x1f
    28b0:	00021040 	sll	v0,v0,0x1
    28b4:	2403ffe9 	li	v1,-23
    28b8:	080009dc 	j	0x2770
    28bc:	00623823 	subu	a3,v1,v0
    28c0:	3063003e 	andi	v1,v1,0x3e
    28c4:	2402ffe9 	li	v0,-23
    28c8:	080009dc 	j	0x2770
    28cc:	00433823 	subu	a3,v0,v1
    28d0:	1480ffbb 	bnez	a0,0x27c0
    28d4:	3062001f 	andi	v0,v1,0x1f
    28d8:	00021040 	sll	v0,v0,0x1
    28dc:	2403fffd 	li	v1,-3
    28e0:	080009dc 	j	0x2770
    28e4:	00623823 	subu	a3,v1,v0
    28e8:	1480ffb5 	bnez	a0,0x27c0
    28ec:	3063003e 	andi	v1,v1,0x3e
    28f0:	2402fffd 	li	v0,-3
    28f4:	080009dc 	j	0x2770
    28f8:	00433823 	subu	a3,v0,v1
    28fc:	27bdffe0 	addiu	sp,sp,-32
    2900:	afb00010 	sw	s0,16(sp)
    2904:	afbf0018 	sw	ra,24(sp)
    2908:	afb10014 	sw	s1,20(sp)
    290c:	8c82000c 	lw	v0,12(a0)
    2910:	00000000 	nop
    2914:	3042003f 	andi	v0,v0,0x3f
    2918:	28420004 	slti	v0,v0,4
    291c:	14400029 	bnez	v0,0x29c4
    2920:	00a08021 	move	s0,a1
    2924:	8ca40000 	lw	a0,0(a1)
    2928:	3c118002 	lui	s1,0x8002
    292c:	3084003f 	andi	a0,a0,0x3f
    2930:	00042040 	sll	a0,a0,0x1
    2934:	0c0009a8 	jal	0x26a0
    2938:	2484ff96 	addiu	a0,a0,-106
    293c:	26251568 	addiu	a1,s1,5480
    2940:	8ca463f8 	lw	a0,25592(a1)
    2944:	00401821 	move	v1,v0
    2948:	3402ffff 	li	v0,0xffff
    294c:	1082003c 	beq	a0,v0,0x2a40
    2950:	00000000 	nop
    2954:	0083102b 	sltu	v0,a0,v1
    2958:	10400027 	beqz	v0,0x29f8
    295c:	00831021 	addu	v0,a0,v1
    2960:	00831821 	addu	v1,a0,v1
    2964:	00041102 	srl	v0,a0,0x4
    2968:	00622023 	subu	a0,v1,v0
    296c:	24840010 	addiu	a0,a0,16
    2970:	aca463f8 	sw	a0,25592(a1)
    2974:	8e040000 	lw	a0,0(s0)
    2978:	00000000 	nop
    297c:	000421c2 	srl	a0,a0,0x7
    2980:	3084007e 	andi	a0,a0,0x7e
    2984:	0c0009a8 	jal	0x26a0
    2988:	2484ff96 	addiu	a0,a0,-106
    298c:	26251568 	addiu	a1,s1,5480
    2990:	8ca463fc 	lw	a0,25596(a1)
    2994:	00401821 	move	v1,v0
    2998:	3402ffff 	li	v0,0xffff
    299c:	10820025 	beq	a0,v0,0x2a34
    29a0:	00000000 	nop
    29a4:	0083102b 	sltu	v0,a0,v1
    29a8:	1040000b 	beqz	v0,0x29d8
    29ac:	00831021 	addu	v0,a0,v1
    29b0:	00831821 	addu	v1,a0,v1
    29b4:	00041102 	srl	v0,a0,0x4
    29b8:	00622023 	subu	a0,v1,v0
    29bc:	24840010 	addiu	a0,a0,16
    29c0:	aca463fc 	sw	a0,25596(a1)
    29c4:	8fbf0018 	lw	ra,24(sp)
    29c8:	8fb10014 	lw	s1,20(sp)
    29cc:	8fb00010 	lw	s0,16(sp)
    29d0:	03e00008 	jr	ra
    29d4:	27bd0020 	addiu	sp,sp,32
    29d8:	8fbf0018 	lw	ra,24(sp)
    29dc:	8fb10014 	lw	s1,20(sp)
    29e0:	8fb00010 	lw	s0,16(sp)
    29e4:	00041902 	srl	v1,a0,0x4
    29e8:	00431023 	subu	v0,v0,v1
    29ec:	27bd0020 	addiu	sp,sp,32
    29f0:	03e00008 	jr	ra
    29f4:	aca263fc 	sw	v0,25596(a1)
    29f8:	00041902 	srl	v1,a0,0x4
    29fc:	00431023 	subu	v0,v0,v1
    2a00:	aca263f8 	sw	v0,25592(a1)
    2a04:	8e040000 	lw	a0,0(s0)
    2a08:	00000000 	nop
    2a0c:	000421c2 	srl	a0,a0,0x7
    2a10:	3084007e 	andi	a0,a0,0x7e
    2a14:	0c0009a8 	jal	0x26a0
    2a18:	2484ff96 	addiu	a0,a0,-106
    2a1c:	26251568 	addiu	a1,s1,5480
    2a20:	8ca463fc 	lw	a0,25596(a1)
    2a24:	00401821 	move	v1,v0
    2a28:	3402ffff 	li	v0,0xffff
    2a2c:	1482ffde 	bne	a0,v0,0x29a8
    2a30:	0083102b 	sltu	v0,a0,v1
    2a34:	00032100 	sll	a0,v1,0x4
    2a38:	08000a55 	j	0x2954
    2a3c:	aca463fc 	sw	a0,25596(a1)
    2a40:	00032100 	sll	a0,v1,0x4
    2a44:	08000a41 	j	0x2904
    2a48:	aca463f8 	sw	a0,25592(a1)
    2a4c:	27bdff98 	addiu	sp,sp,-104
    2a50:	3c028002 	lui	v0,0x8002
    2a54:	afb60058 	sw	s6,88(sp)
    2a58:	afbf0064 	sw	ra,100(sp)
    2a5c:	afbe0060 	sw	s8,96(sp)
    2a60:	afb7005c 	sw	s7,92(sp)
    2a64:	afb50054 	sw	s5,84(sp)
    2a68:	afb40050 	sw	s4,80(sp)
    2a6c:	afb3004c 	sw	s3,76(sp)
    2a70:	afb20048 	sw	s2,72(sp)
    2a74:	afb10044 	sw	s1,68(sp)
    2a78:	afb00040 	sw	s0,64(sp)
    2a7c:	24561568 	addiu	s6,v0,5480
    2a80:	3c03b025 	lui	v1,0xb025
    2a84:	34620104 	ori	v0,v1,0x104
    2a88:	8c430000 	lw	v1,0(v0)
    2a8c:	8ec765d8 	lw	a3,26072(s6)
    2a90:	00000000 	nop
    2a94:	10e30034 	beq	a3,v1,0x2b68
    2a98:	aec365dc 	sw	v1,26076(s6)
    2a9c:	0067102b 	sltu	v0,v1,a3
    2aa0:	144000aa 	bnez	v0,0x2d4c
    2aa4:	00e3102b 	sltu	v0,a3,v1
    2aa8:	144000d4 	bnez	v0,0x2dfc
    2aac:	3c028002 	lui	v0,0x8002
    2ab0:	24441568 	addiu	a0,v0,5480
    2ab4:	948365ac 	lhu	v1,26028(a0)
    2ab8:	3c028002 	lui	v0,0x8002
    2abc:	00008821 	move	s1,zero
    2ac0:	1a400019 	blez	s2,0x2b28
    2ac4:	00629825 	or	s3,v1,v0
    2ac8:	0080f021 	move	s8,a0
    2acc:	0080b821 	move	s7,a0
    2ad0:	24150001 	li	s5,1
    2ad4:	00002021 	move	a0,zero
    2ad8:	00938021 	addu	s0,a0,s3
    2adc:	8e050000 	lw	a1,0(s0)
    2ae0:	00000000 	nop
    2ae4:	10a00007 	beqz	a1,0x2b04
    2ae8:	26220001 	addiu	v0,s1,1
    2aec:	8e020004 	lw	v0,4(s0)
    2af0:	3c03f000 	lui	v1,0xf000
    2af4:	3c042000 	lui	a0,0x2000
    2af8:	00431024 	and	v0,v0,v1
    2afc:	1044001f 	beq	v0,a0,0x2b7c
    2b00:	26220006 	addiu	v0,s1,6
    2b04:	3051ffff 	andi	s1,v0,0xffff
    2b08:	00051682 	srl	v0,a1,0x1a
    2b0c:	30420001 	andi	v0,v0,0x1
    2b10:	10550035 	beq	v0,s5,0x2be8
    2b14:	00000000 	nop
    2b18:	00112080 	sll	a0,s1,0x2
    2b1c:	0092102a 	slt	v0,a0,s2
    2b20:	1440ffed 	bnez	v0,0x2ad8
    2b24:	00000000 	nop
    2b28:	8fa40038 	lw	a0,56(sp)
    2b2c:	0c005185 	jal	0x14614
    2b30:	00000000 	nop
    2b34:	3c028002 	lui	v0,0x8002
    2b38:	24440408 	addiu	a0,v0,1032
    2b3c:	00002821 	move	a1,zero
    2b40:	00003021 	move	a2,zero
    2b44:	0c002207 	jal	0x881c
    2b48:	00003821 	move	a3,zero
    2b4c:	3c03b025 	lui	v1,0xb025
    2b50:	34620104 	ori	v0,v1,0x104
    2b54:	8c430000 	lw	v1,0(v0)
    2b58:	8ec765d8 	lw	a3,26072(s6)
    2b5c:	00000000 	nop
    2b60:	14e3ffce 	bne	a3,v1,0x2a9c
    2b64:	aec365dc 	sw	v1,26076(s6)
    2b68:	3c03b025 	lui	v1,0xb025
    2b6c:	34620100 	ori	v0,v1,0x100
    2b70:	ac470000 	sw	a3,0(v0)
    2b74:	08000ab9 	j	0x2ae4
    2b78:	aec765d8 	sw	a3,26072(s6)
    2b7c:	8fc24cc4 	lw	v0,19652(s8)
    2b80:	00000000 	nop
    2b84:	24420001 	addiu	v0,v0,1
    2b88:	afc24cc4 	sw	v0,19652(s8)
    2b8c:	8e04000c 	lw	a0,12(s0)
    2b90:	2402000c 	li	v0,12
    2b94:	3083003f 	andi	v1,a0,0x3f
    2b98:	10620065 	beq	v1,v0,0x2d30
    2b9c:	03c02821 	move	a1,s8
    2ba0:	3083003f 	andi	v1,a0,0x3f
    2ba4:	2402000d 	li	v0,13
    2ba8:	1062005a 	beq	v1,v0,0x2d14
    2bac:	00000000 	nop
    2bb0:	3083003f 	andi	v1,a0,0x3f
    2bb4:	2402000e 	li	v0,14
    2bb8:	10620004 	beq	v1,v0,0x2bcc
    2bbc:	00000000 	nop
    2bc0:	8e050000 	lw	a1,0(s0)
    2bc4:	08000aad 	j	0x2ab4
    2bc8:	26220006 	addiu	v0,s1,6
    2bcc:	8fc24cd0 	lw	v0,19664(s8)
    2bd0:	00000000 	nop
    2bd4:	24420001 	addiu	v0,v0,1
    2bd8:	afc24cd0 	sw	v0,19664(s8)
    2bdc:	8e050000 	lw	a1,0(s0)
    2be0:	08000aad 	j	0x2ab4
    2be4:	26220006 	addiu	v0,s1,6
    2be8:	8ee24000 	lw	v0,16384(s7)
    2bec:	00000000 	nop
    2bf0:	00021382 	srl	v0,v0,0xe
    2bf4:	30420001 	andi	v0,v0,0x1
    2bf8:	10550005 	beq	v0,s5,0x2c10
    2bfc:	000513c2 	srl	v0,a1,0xf
    2c00:	3042001e 	andi	v0,v0,0x1e
    2c04:	00511021 	addu	v0,v0,s1
    2c08:	08000ab2 	j	0x2ac8
    2c0c:	3051ffff 	andi	s1,v0,0xffff
    2c10:	92e24002 	lbu	v0,16386(s7)
    2c14:	00000000 	nop
    2c18:	1440001f 	bnez	v0,0x2c98
    2c1c:	3c038002 	lui	v1,0x8002
    2c20:	8e030004 	lw	v1,4(s0)
    2c24:	00000000 	nop
    2c28:	00031402 	srl	v0,v1,0x10
    2c2c:	3042000f 	andi	v0,v0,0xf
    2c30:	14400018 	bnez	v0,0x2c94
    2c34:	00031702 	srl	v0,v1,0x1c
    2c38:	30440003 	andi	a0,v0,0x3
    2c3c:	10800008 	beqz	a0,0x2c60
    2c40:	3c02c000 	lui	v0,0xc000
    2c44:	00621024 	and	v0,v1,v0
    2c48:	14400012 	bnez	v0,0x2c94
    2c4c:	24020003 	li	v0,3
    2c50:	10820011 	beq	a0,v0,0x2c98
    2c54:	3c038002 	lui	v1,0x8002
    2c58:	10800010 	beqz	a0,0x2c9c
    2c5c:	24631568 	addiu	v1,v1,5480
    2c60:	00111080 	sll	v0,s1,0x2
    2c64:	0053a021 	addu	s4,v0,s3
    2c68:	8e83ffec 	lw	v1,-20(s4)
    2c6c:	3c02b025 	lui	v0,0xb025
    2c70:	344202d4 	ori	v0,v0,0x2d4
    2c74:	02802821 	move	a1,s4
    2c78:	02002021 	move	a0,s0
    2c7c:	ac430000 	sw	v1,0(v0)
    2c80:	0c0009b2 	jal	0x26c8
    2c84:	00000000 	nop
    2c88:	00402021 	move	a0,v0
    2c8c:	0c000961 	jal	0x2584
    2c90:	00002821 	move	a1,zero
    2c94:	3c038002 	lui	v1,0x8002
    2c98:	24631568 	addiu	v1,v1,5480
    2c9c:	90624002 	lbu	v0,16386(v1)
    2ca0:	00000000 	nop
    2ca4:	10550088 	beq	v0,s5,0x2ec8
    2ca8:	00000000 	nop
    2cac:	3c048002 	lui	a0,0x8002
    2cb0:	24841568 	addiu	a0,a0,5480
    2cb4:	90834002 	lbu	v1,16386(a0)
    2cb8:	24020002 	li	v0,2
    2cbc:	1062006a 	beq	v1,v0,0x2e68
    2cc0:	00000000 	nop
    2cc4:	3c03b025 	lui	v1,0xb025
    2cc8:	3463004c 	ori	v1,v1,0x4c
    2ccc:	90620000 	lbu	v0,0(v1)
    2cd0:	00000000 	nop
    2cd4:	30420003 	andi	v0,v0,0x3
    2cd8:	10550008 	beq	v0,s5,0x2cfc
    2cdc:	3c048002 	lui	a0,0x8002
    2ce0:	8e050000 	lw	a1,0(s0)
    2ce4:	00000000 	nop
    2ce8:	000513c2 	srl	v0,a1,0xf
    2cec:	3042001e 	andi	v0,v0,0x1e
    2cf0:	00511021 	addu	v0,v0,s1
    2cf4:	08000ab2 	j	0x2ac8
    2cf8:	3051ffff 	andi	s1,v0,0xffff
    2cfc:	240202d0 	li	v0,720
    2d00:	24841568 	addiu	a0,a0,5480
    2d04:	ac8263f0 	sw	v0,25584(a0)
    2d08:	8e050000 	lw	a1,0(s0)
    2d0c:	08000b27 	j	0x2c9c
    2d10:	000513c2 	srl	v0,a1,0xf
    2d14:	8ca24ccc 	lw	v0,19660(a1)
    2d18:	00000000 	nop
    2d1c:	24420001 	addiu	v0,v0,1
    2d20:	aca24ccc 	sw	v0,19660(a1)
    2d24:	8e04000c 	lw	a0,12(s0)
    2d28:	08000ad9 	j	0x2b64
    2d2c:	3083003f 	andi	v1,a0,0x3f
    2d30:	8fc24cc8 	lw	v0,19656(s8)
    2d34:	00000000 	nop
    2d38:	24420001 	addiu	v0,v0,1
    2d3c:	afc24cc8 	sw	v0,19656(s8)
    2d40:	8e04000c 	lw	a0,12(s0)
    2d44:	08000ad5 	j	0x2b54
    2d48:	3083003f 	andi	v1,a0,0x3f
    2d4c:	8ec265e0 	lw	v0,26080(s6)
    2d50:	3071ffff 	andi	s1,v1,0xffff
    2d54:	00471023 	subu	v0,v0,a3
    2d58:	3050ffff 	andi	s0,v0,0xffff
    2d5c:	02111821 	addu	v1,s0,s1
    2d60:	3072ffff 	andi	s2,v1,0xffff
    2d64:	0c005169 	jal	0x145a4
    2d68:	02402021 	move	a0,s2
    2d6c:	1040007d 	beqz	v0,0x2f64
    2d70:	afa20038 	sw	v0,56(sp)
    2d74:	8fa30038 	lw	v1,56(sp)
    2d78:	8ec665d8 	lw	a2,26072(s6)
    2d7c:	02003821 	move	a3,s0
    2d80:	8c620008 	lw	v0,8(v1)
    2d84:	24040008 	li	a0,8
    2d88:	afa00010 	sw	zero,16(sp)
    2d8c:	00521821 	addu	v1,v0,s2
    2d90:	00402821 	move	a1,v0
    2d94:	aec365a8 	sw	v1,26024(s6)
    2d98:	0c000110 	jal	0x440
    2d9c:	aec265ac 	sw	v0,26028(s6)
    2da0:	0c00014d 	jal	0x534
    2da4:	24040008 	li	a0,8
    2da8:	8ec565ac 	lw	a1,26028(s6)
    2dac:	3c04b025 	lui	a0,0xb025
    2db0:	3c021024 	lui	v0,0x1024
    2db4:	00b02821 	addu	a1,a1,s0
    2db8:	34900100 	ori	s0,a0,0x100
    2dbc:	ae020000 	sw	v0,0(s0)
    2dc0:	02203821 	move	a3,s1
    2dc4:	24040008 	li	a0,8
    2dc8:	3c061024 	lui	a2,0x1024
    2dcc:	aec265d8 	sw	v0,26072(s6)
    2dd0:	0c000110 	jal	0x440
    2dd4:	afa00010 	sw	zero,16(sp)
    2dd8:	8ec365dc 	lw	v1,26076(s6)
    2ddc:	24040008 	li	a0,8
    2de0:	0c00014d 	jal	0x534
    2de4:	aec365d8 	sw	v1,26072(s6)
    2de8:	8ec265d8 	lw	v0,26072(s6)
    2dec:	00000000 	nop
    2df0:	ae020000 	sw	v0,0(s0)
    2df4:	08000a98 	j	0x2a60
    2df8:	3c028002 	lui	v0,0x8002
    2dfc:	00671023 	subu	v0,v1,a3
    2e00:	3052ffff 	andi	s2,v0,0xffff
    2e04:	0c005169 	jal	0x145a4
    2e08:	02402021 	move	a0,s2
    2e0c:	1040005c 	beqz	v0,0x2f80
    2e10:	afa20038 	sw	v0,56(sp)
    2e14:	8fa30038 	lw	v1,56(sp)
    2e18:	8ec665d8 	lw	a2,26072(s6)
    2e1c:	24040008 	li	a0,8
    2e20:	8c620008 	lw	v0,8(v1)
    2e24:	02403821 	move	a3,s2
    2e28:	afa00010 	sw	zero,16(sp)
    2e2c:	00521821 	addu	v1,v0,s2
    2e30:	00402821 	move	a1,v0
    2e34:	aec365a8 	sw	v1,26024(s6)
    2e38:	0c000110 	jal	0x440
    2e3c:	aec265ac 	sw	v0,26028(s6)
    2e40:	8ec365dc 	lw	v1,26076(s6)
    2e44:	24040008 	li	a0,8
    2e48:	0c00014d 	jal	0x534
    2e4c:	aec365d8 	sw	v1,26072(s6)
    2e50:	8ec365d8 	lw	v1,26072(s6)
    2e54:	3c04b025 	lui	a0,0xb025
    2e58:	34820100 	ori	v0,a0,0x100
    2e5c:	ac430000 	sw	v1,0(v0)
    2e60:	08000a98 	j	0x2a60
    2e64:	3c028002 	lui	v0,0x8002
    2e68:	8e030004 	lw	v1,4(s0)
    2e6c:	00000000 	nop
    2e70:	00031402 	srl	v0,v1,0x10
    2e74:	3042000f 	andi	v0,v0,0xf
    2e78:	28420008 	slti	v0,v0,8
    2e7c:	1040ff91 	beqz	v0,0x2cc4
    2e80:	00031702 	srl	v0,v1,0x1c
    2e84:	30420003 	andi	v0,v0,0x3
    2e88:	1440ff8e 	bnez	v0,0x2cc4
    2e8c:	00111080 	sll	v0,s1,0x2
    2e90:	0053a021 	addu	s4,v0,s3
    2e94:	8e83ffec 	lw	v1,-20(s4)
    2e98:	3c02b025 	lui	v0,0xb025
    2e9c:	344202d4 	ori	v0,v0,0x2d4
    2ea0:	02802821 	move	a1,s4
    2ea4:	02002021 	move	a0,s0
    2ea8:	ac430000 	sw	v1,0(v0)
    2eac:	0c0009b2 	jal	0x26c8
    2eb0:	00000000 	nop
    2eb4:	00402021 	move	a0,v0
    2eb8:	0c000961 	jal	0x2584
    2ebc:	00002821 	move	a1,zero
    2ec0:	08000b1e 	j	0x2c78
    2ec4:	3c03b025 	lui	v1,0xb025
    2ec8:	8e030004 	lw	v1,4(s0)
    2ecc:	00000000 	nop
    2ed0:	00031402 	srl	v0,v1,0x10
    2ed4:	3042000f 	andi	v0,v0,0xf
    2ed8:	28420008 	slti	v0,v0,8
    2edc:	10400006 	beqz	v0,0x2ef8
    2ee0:	3c02c000 	lui	v0,0xc000
    2ee4:	00031702 	srl	v0,v1,0x1c
    2ee8:	30420003 	andi	v0,v0,0x3
    2eec:	1040000c 	beqz	v0,0x2f20
    2ef0:	00111080 	sll	v0,s1,0x2
    2ef4:	3c02c000 	lui	v0,0xc000
    2ef8:	00621024 	and	v0,v1,v0
    2efc:	1440ff6c 	bnez	v0,0x2cb0
    2f00:	3c048002 	lui	a0,0x8002
    2f04:	00031702 	srl	v0,v1,0x1c
    2f08:	30420003 	andi	v0,v0,0x3
    2f0c:	24030003 	li	v1,3
    2f10:	1043ff68 	beq	v0,v1,0x2cb4
    2f14:	24841568 	addiu	a0,a0,5480
    2f18:	1040ff64 	beqz	v0,0x2cac
    2f1c:	00111080 	sll	v0,s1,0x2
    2f20:	0053a021 	addu	s4,v0,s3
    2f24:	8e83ffec 	lw	v1,-20(s4)
    2f28:	3c02b025 	lui	v0,0xb025
    2f2c:	344202d4 	ori	v0,v0,0x2d4
    2f30:	02002021 	move	a0,s0
    2f34:	02802821 	move	a1,s4
    2f38:	ac430000 	sw	v1,0(v0)
    2f3c:	0c0009b2 	jal	0x26c8
    2f40:	00000000 	nop
    2f44:	00402021 	move	a0,v0
    2f48:	0c000961 	jal	0x2584
    2f4c:	00002821 	move	a1,zero
    2f50:	02002021 	move	a0,s0
    2f54:	0c000a2b 	jal	0x28ac
    2f58:	02802821 	move	a1,s4
    2f5c:	08000b18 	j	0x2c60
    2f60:	3c048002 	lui	a0,0x8002
    2f64:	3c04b025 	lui	a0,0xb025
    2f68:	3c024444 	lui	v0,0x4444
    2f6c:	348302bc 	ori	v1,a0,0x2bc
    2f70:	34424444 	ori	v0,v0,0x4444
    2f74:	ac620000 	sw	v0,0(v1)
    2f78:	08000aba 	j	0x2ae8
    2f7c:	3c028002 	lui	v0,0x8002
    2f80:	8ec565dc 	lw	a1,26076(s6)
    2f84:	3c02b025 	lui	v0,0xb025
    2f88:	34430100 	ori	v1,v0,0x100
    2f8c:	344402bc 	ori	a0,v0,0x2bc
    2f90:	3c026666 	lui	v0,0x6666
    2f94:	34426666 	ori	v0,v0,0x6666
    2f98:	ac650000 	sw	a1,0(v1)
    2f9c:	ac820000 	sw	v0,0(a0)
    2fa0:	08000ab9 	j	0x2ae4
    2fa4:	aec565d8 	sw	a1,26072(s6)
    2fa8:	3c06b025 	lui	a2,0xb025
    2fac:	3c028000 	lui	v0,0x8000
    2fb0:	3c04b02a 	lui	a0,0xb02a
    2fb4:	34c50318 	ori	a1,a2,0x318
    2fb8:	24422f58 	addiu	v0,v0,12120
    2fbc:	aca20000 	sw	v0,0(a1)
    2fc0:	34830022 	ori	v1,a0,0x22
    2fc4:	3485001a 	ori	a1,a0,0x1a
    2fc8:	94670000 	lhu	a3,0(v1)
    2fcc:	34840006 	ori	a0,a0,0x6
    2fd0:	94a20000 	lhu	v0,0(a1)
    2fd4:	94830000 	lhu	v1,0(a0)
    2fd8:	30ed00ff 	andi	t5,a3,0xff
    2fdc:	304200ff 	andi	v0,v0,0xff
    2fe0:	004d6821 	addu	t5,v0,t5
    2fe4:	306300ff 	andi	v1,v1,0xff
    2fe8:	006d6821 	addu	t5,v1,t5
    2fec:	34c20368 	ori	v0,a2,0x368
    2ff0:	3c078002 	lui	a3,0x8002
    2ff4:	a44d0000 	sh	t5,0(v0)
    2ff8:	24e71568 	addiu	a3,a3,5480
    2ffc:	34c300c6 	ori	v1,a2,0xc6
    3000:	34c400ca 	ori	a0,a2,0xca
    3004:	906b0000 	lbu	t3,0(v1)
    3008:	8ce54b68 	lw	a1,19304(a3)
    300c:	90820000 	lbu	v0,0(a0)
    3010:	34c300cc 	ori	v1,a2,0xcc
    3014:	90680000 	lbu	t0,0(v1)
    3018:	34c400d4 	ori	a0,a2,0xd4
    301c:	8ce34b6c 	lw	v1,19308(a3)
    3020:	908a0000 	lbu	t2,0(a0)
    3024:	90ec4b69 	lbu	t4,19305(a3)
    3028:	3c0400ff 	lui	a0,0xff
    302c:	000d4a00 	sll	t1,t5,0x8
    3030:	012d4823 	subu	t1,t1,t5
    3034:	00a42824 	and	a1,a1,a0
    3038:	316d00ff 	andi	t5,t3,0xff
    303c:	304200ff 	andi	v0,v0,0xff
    3040:	01a21021 	addu	v0,t5,v0
    3044:	00641824 	and	v1,v1,a0
    3048:	00052c02 	srl	a1,a1,0x10
    304c:	90e44b71 	lbu	a0,19313(a3)
    3050:	310800ff 	andi	t0,t0,0xff
    3054:	01856021 	addu	t4,t4,a1
    3058:	00031c02 	srl	v1,v1,0x10
    305c:	00481021 	addu	v0,v0,t0
    3060:	314a00ff 	andi	t2,t2,0xff
    3064:	004a1021 	addu	v0,v0,t2
    3068:	01836021 	addu	t4,t4,v1
    306c:	01846021 	addu	t4,t4,a0
    3070:	304dffff 	andi	t5,v0,0xffff
    3074:	018d1823 	subu	v1,t4,t5
    3078:	306cffff 	andi	t4,v1,0xffff
    307c:	3129ffff 	andi	t1,t1,0xffff
    3080:	34c2036a 	ori	v0,a2,0x36a
    3084:	34c3036c 	ori	v1,a2,0x36c
    3088:	34c5031f 	ori	a1,a2,0x31f
    308c:	012c202b 	sltu	a0,t1,t4
    3090:	34c6036e 	ori	a2,a2,0x36e
    3094:	a4490000 	sh	t1,0(v0)
    3098:	a46d0000 	sh	t5,0(v1)
    309c:	a4cc0000 	sh	t4,0(a2)
    30a0:	10800005 	beqz	a0,0x30b8
    30a4:	00000000 	nop
    30a8:	90a30000 	lbu	v1,0(a1)
    30ac:	2402ff80 	li	v0,-128
    30b0:	00621825 	or	v1,v1,v0
    30b4:	a0a30000 	sb	v1,0(a1)
    30b8:	03e00008 	jr	ra
    30bc:	00000000 	nop
    30c0:	40026000 	mfc0	v0,$12
    30c4:	34410001 	ori	at,v0,0x1
    30c8:	38210001 	xori	at,at,0x1
    30cc:	40816000 	mtc0	at,$12
    30d0:	3c038002 	lui	v1,0x8002
    30d4:	ac64a2d4 	sw	a0,-23852(v1)
    30d8:	40826000 	mtc0	v0,$12
    30dc:	03e00008 	jr	ra
    30e0:	00000000 	nop
    30e4:	3c028002 	lui	v0,0x8002
    30e8:	8c45a2d4 	lw	a1,-23852(v0)
    30ec:	3c038000 	lui	v1,0x8000
    30f0:	3c02b025 	lui	v0,0xb025
    30f4:	34420318 	ori	v0,v0,0x318
    30f8:	24633094 	addiu	v1,v1,12436
    30fc:	ac430000 	sw	v1,0(v0)
    3100:	24020004 	li	v0,4
    3104:	10a2001e 	beq	a1,v0,0x3180
    3108:	2ca20005 	sltiu	v0,a1,5
    310c:	10400010 	beqz	v0,0x3150
    3110:	24020005 	li	v0,5
    3114:	24020003 	li	v0,3
    3118:	10a20008 	beq	a1,v0,0x313c
    311c:	00041900 	sll	v1,a0,0x4
    3120:	00041080 	sll	v0,a0,0x2
    3124:	00441021 	addu	v0,v0,a0
    3128:	000210c0 	sll	v0,v0,0x3
    312c:	00441023 	subu	v0,v0,a0
    3130:	00021100 	sll	v0,v0,0x4
    3134:	00441021 	addu	v0,v0,a0
    3138:	00021940 	sll	v1,v0,0x5
    313c:	2463ffff 	addiu	v1,v1,-1
    3140:	1460fffe 	bnez	v1,0x313c
    3144:	00000000 	nop
    3148:	03e00008 	jr	ra
    314c:	00000000 	nop
    3150:	10a2fff3 	beq	a1,v0,0x3120
    3154:	24020006 	li	v0,6
    3158:	14a2fff2 	bne	a1,v0,0x3124
    315c:	00041080 	sll	v0,a0,0x2
    3160:	00041140 	sll	v0,a0,0x5
    3164:	00441023 	subu	v0,v0,a0
    3168:	00021080 	sll	v0,v0,0x2
    316c:	00441021 	addu	v0,v0,a0
    3170:	00021900 	sll	v1,v0,0x4
    3174:	00621823 	subu	v1,v1,v0
    3178:	08000c3b 	j	0x30ec
    317c:	00031900 	sll	v1,v1,0x4
    3180:	00041080 	sll	v0,a0,0x2
    3184:	00441021 	addu	v0,v0,a0
    3188:	000210c0 	sll	v0,v0,0x3
    318c:	00441023 	subu	v0,v0,a0
    3190:	00021100 	sll	v0,v0,0x4
    3194:	00441021 	addu	v0,v0,a0
    3198:	08000c3b 	j	0x30ec
    319c:	00021900 	sll	v1,v0,0x4
    31a0:	3c028002 	lui	v0,0x8002
    31a4:	8c45a2d4 	lw	a1,-23852(v0)
    31a8:	3c038000 	lui	v1,0x8000
    31ac:	3c02b025 	lui	v0,0xb025
    31b0:	34420318 	ori	v0,v0,0x318
    31b4:	24633150 	addiu	v1,v1,12624
    31b8:	ac430000 	sw	v1,0(v0)
    31bc:	24020005 	li	v0,5
    31c0:	10a20010 	beq	a1,v0,0x3204
    31c4:	2ca20006 	sltiu	v0,a1,6
    31c8:	14400009 	bnez	v0,0x31f0
    31cc:	24020004 	li	v0,4
    31d0:	24020006 	li	v0,6
    31d4:	10a2000f 	beq	a1,v0,0x3214
    31d8:	00041100 	sll	v0,a0,0x4
    31dc:	2484ffff 	addiu	a0,a0,-1
    31e0:	1480fffe 	bnez	a0,0x31dc
    31e4:	00000000 	nop
    31e8:	03e00008 	jr	ra
    31ec:	00000000 	nop
    31f0:	14a2fffa 	bne	a1,v0,0x31dc
    31f4:	00041080 	sll	v0,a0,0x2
    31f8:	00441021 	addu	v0,v0,a0
    31fc:	08000c63 	j	0x318c
    3200:	00022040 	sll	a0,v0,0x1
    3204:	00041080 	sll	v0,a0,0x2
    3208:	00441021 	addu	v0,v0,a0
    320c:	08000c63 	j	0x318c
    3210:	00022080 	sll	a0,v0,0x2
    3214:	00441023 	subu	v0,v0,a0
    3218:	08000c63 	j	0x318c
    321c:	00022040 	sll	a0,v0,0x1
    3220:	3085ffff 	andi	a1,a0,0xffff
    3224:	00003021 	move	a2,zero
    3228:	3c03b025 	lui	v1,0xb025
    322c:	3c04b02a 	lui	a0,0xb02a
    3230:	346300b4 	ori	v1,v1,0xb4
    3234:	24a20001 	addiu	v0,a1,1
    3238:	34840031 	ori	a0,a0,0x31
    323c:	a0650000 	sb	a1,0(v1)
    3240:	a0850000 	sb	a1,0(a0)
    3244:	3045ffff 	andi	a1,v0,0xffff
    3248:	10a00012 	beqz	a1,0x3294
    324c:	24030001 	li	v1,1
    3250:	3c07b028 	lui	a3,0xb028
    3254:	08000c89 	j	0x3224
    3258:	2408ffff 	li	t0,-1
    325c:	a0830000 	sb	v1,0(a0)
    3260:	24630001 	addiu	v1,v1,1
    3264:	3063ffff 	andi	v1,v1,0xffff
    3268:	00a3102b 	sltu	v0,a1,v1
    326c:	14400009 	bnez	v0,0x3294
    3270:	24c60008 	addiu	a2,a2,8
    3274:	1465fff9 	bne	v1,a1,0x325c
    3278:	00c72021 	addu	a0,a2,a3
    327c:	24630001 	addiu	v1,v1,1
    3280:	3063ffff 	andi	v1,v1,0xffff
    3284:	00a3102b 	sltu	v0,a1,v1
    3288:	a0880000 	sb	t0,0(a0)
    328c:	1040fff9 	beqz	v0,0x3274
    3290:	24c60008 	addiu	a2,a2,8
    3294:	2ca20100 	sltiu	v0,a1,256
    3298:	10400013 	beqz	v0,0x32e8
    329c:	00a01821 	move	v1,a1
    32a0:	240800ff 	li	t0,255
    32a4:	3c07b028 	lui	a3,0xb028
    32a8:	08000c9d 	j	0x3274
    32ac:	2409ffff 	li	t1,-1
    32b0:	3043ffff 	andi	v1,v0,0xffff
    32b4:	a0a20000 	sb	v0,0(a1)
    32b8:	2c620100 	sltiu	v0,v1,256
    32bc:	1040000a 	beqz	v0,0x32e8
    32c0:	24c60008 	addiu	a2,a2,8
    32c4:	24620001 	addiu	v0,v1,1
    32c8:	1468fff9 	bne	v1,t0,0x32b0
    32cc:	00c72821 	addu	a1,a2,a3
    32d0:	24020100 	li	v0,256
    32d4:	3043ffff 	andi	v1,v0,0xffff
    32d8:	2c620100 	sltiu	v0,v1,256
    32dc:	a0a90000 	sb	t1,0(a1)
    32e0:	1440fff8 	bnez	v0,0x32c4
    32e4:	24c60008 	addiu	a2,a2,8
    32e8:	03e00008 	jr	ra
    32ec:	00000000 	nop
    32f0:	27bdffd0 	addiu	sp,sp,-48
    32f4:	afbf0028 	sw	ra,40(sp)
    32f8:	afb50024 	sw	s5,36(sp)
    32fc:	afb40020 	sw	s4,32(sp)
    3300:	afb3001c 	sw	s3,28(sp)
    3304:	afb20018 	sw	s2,24(sp)
    3308:	afb10014 	sw	s1,20(sp)
    330c:	afb00010 	sw	s0,16(sp)
    3310:	40126000 	mfc0	s2,$12
    3314:	36410001 	ori	at,s2,0x1
    3318:	38210001 	xori	at,at,0x1
    331c:	40816000 	mtc0	at,$12
    3320:	3c10b025 	lui	s0,0xb025
    3324:	36150042 	ori	s5,s0,0x42
    3328:	2402ffff 	li	v0,-1
    332c:	a2a20000 	sb	v0,0(s5)
    3330:	360500d8 	ori	a1,s0,0xd8
    3334:	36110040 	ori	s1,s0,0x40
    3338:	361400a8 	ori	s4,s0,0xa8
    333c:	361300a0 	ori	s3,s0,0xa0
    3340:	24031000 	li	v1,4096
    3344:	361000a4 	ori	s0,s0,0xa4
    3348:	3c028000 	lui	v0,0x8000
    334c:	a6230000 	sh	v1,0(s1)
    3350:	a0a00000 	sb	zero,0(a1)
    3354:	ae600000 	sw	zero,0(s3)
    3358:	ae000000 	sw	zero,0(s0)
    335c:	ae820000 	sw	v0,0(s4)
    3360:	90a30000 	lbu	v1,0(a1)
    3364:	2402ff80 	li	v0,-128
    3368:	240400fd 	li	a0,253
    336c:	00621825 	or	v1,v1,v0
    3370:	240217fc 	li	v0,6140
    3374:	a0a30000 	sb	v1,0(a1)
    3378:	a6220000 	sh	v0,0(s1)
    337c:	0c000c74 	jal	0x31d0
    3380:	00000000 	nop
    3384:	3c028002 	lui	v0,0x8002
    3388:	24421568 	addiu	v0,v0,5480
    338c:	8c454b70 	lw	a1,19312(v0)
    3390:	8c434b68 	lw	v1,19304(v0)
    3394:	8c444b6c 	lw	a0,19308(v0)
    3398:	240237fc 	li	v0,14332
    339c:	ae630000 	sw	v1,0(s3)
    33a0:	ae040000 	sw	a0,0(s0)
    33a4:	ae850000 	sw	a1,0(s4)
    33a8:	a6220000 	sh	v0,0(s1)
    33ac:	a2a00000 	sb	zero,0(s5)
    33b0:	40926000 	mtc0	s2,$12
    33b4:	8fbf0028 	lw	ra,40(sp)
    33b8:	8fb50024 	lw	s5,36(sp)
    33bc:	8fb40020 	lw	s4,32(sp)
    33c0:	8fb3001c 	lw	s3,28(sp)
    33c4:	8fb20018 	lw	s2,24(sp)
    33c8:	8fb10014 	lw	s1,20(sp)
    33cc:	8fb00010 	lw	s0,16(sp)
    33d0:	03e00008 	jr	ra
    33d4:	27bd0030 	addiu	sp,sp,48
    33d8:	27bdffc8 	addiu	sp,sp,-56
    33dc:	afbf0034 	sw	ra,52(sp)
    33e0:	afbe0030 	sw	s8,48(sp)
    33e4:	afb7002c 	sw	s7,44(sp)
    33e8:	afb60028 	sw	s6,40(sp)
    33ec:	afb50024 	sw	s5,36(sp)
    33f0:	afb40020 	sw	s4,32(sp)
    33f4:	afb3001c 	sw	s3,28(sp)
    33f8:	afb20018 	sw	s2,24(sp)
    33fc:	afb10014 	sw	s1,20(sp)
    3400:	afb00010 	sw	s0,16(sp)
    3404:	40166000 	mfc0	s6,$12
    3408:	36c10001 	ori	at,s6,0x1
    340c:	38210001 	xori	at,at,0x1
    3410:	40816000 	mtc0	at,$12
    3414:	3c11b025 	lui	s1,0xb025
    3418:	36300040 	ori	s0,s1,0x40
    341c:	2402ffff 	li	v0,-1
    3420:	363e0042 	ori	s8,s1,0x42
    3424:	241377fc 	li	s3,30716
    3428:	a3c20000 	sb	v0,0(s8)
    342c:	241257fc 	li	s2,22524
    3430:	a6130000 	sh	s3,0(s0)
    3434:	0c000c54 	jal	0x3150
    3438:	24040032 	li	a0,50
    343c:	241737fc 	li	s7,14332
    3440:	24040032 	li	a0,50
    3444:	a6120000 	sh	s2,0(s0)
    3448:	0c000c54 	jal	0x3150
    344c:	00000000 	nop
    3450:	24040032 	li	a0,50
    3454:	a6170000 	sh	s7,0(s0)
    3458:	0c000c54 	jal	0x3150
    345c:	00000000 	nop
    3460:	a6130000 	sh	s3,0(s0)
    3464:	0c000c54 	jal	0x3150
    3468:	24040032 	li	a0,50
    346c:	24040032 	li	a0,50
    3470:	a6120000 	sh	s2,0(s0)
    3474:	0c000c54 	jal	0x3150
    3478:	00000000 	nop
    347c:	96020000 	lhu	v0,0(s0)
    3480:	2403fa24 	li	v1,-1500
    3484:	362500d8 	ori	a1,s1,0xd8
    3488:	00431024 	and	v0,v0,v1
    348c:	a6020000 	sh	v0,0(s0)
    3490:	90a30000 	lbu	v1,0(a1)
    3494:	363400a0 	ori	s4,s1,0xa0
    3498:	363500a4 	ori	s5,s1,0xa4
    349c:	363300a8 	ori	s3,s1,0xa8
    34a0:	3063007f 	andi	v1,v1,0x7f
    34a4:	3c028000 	lui	v0,0x8000
    34a8:	a0a30000 	sb	v1,0(a1)
    34ac:	ae800000 	sw	zero,0(s4)
    34b0:	aea00000 	sw	zero,0(s5)
    34b4:	ae620000 	sw	v0,0(s3)
    34b8:	90a30000 	lbu	v1,0(a1)
    34bc:	2402ff80 	li	v0,-128
    34c0:	240400fd 	li	a0,253
    34c4:	00621825 	or	v1,v1,v0
    34c8:	a0a30000 	sb	v1,0(a1)
    34cc:	a6120000 	sh	s2,0(s0)
    34d0:	0c000c74 	jal	0x31d0
    34d4:	36310156 	ori	s1,s1,0x156
    34d8:	3c028002 	lui	v0,0x8002
    34dc:	24421568 	addiu	v0,v0,5480
    34e0:	8c454b70 	lw	a1,19312(v0)
    34e4:	8c434b68 	lw	v1,19304(v0)
    34e8:	8c444b6c 	lw	a0,19308(v0)
    34ec:	24020fff 	li	v0,4095
    34f0:	ae830000 	sw	v1,0(s4)
    34f4:	aea40000 	sw	a0,0(s5)
    34f8:	ae650000 	sw	a1,0(s3)
    34fc:	a6170000 	sh	s7,0(s0)
    3500:	a6220000 	sh	v0,0(s1)
    3504:	a3c00000 	sb	zero,0(s8)
    3508:	40966000 	mtc0	s6,$12
    350c:	8fbf0034 	lw	ra,52(sp)
    3510:	8fbe0030 	lw	s8,48(sp)
    3514:	8fb7002c 	lw	s7,44(sp)
    3518:	8fb60028 	lw	s6,40(sp)
    351c:	8fb50024 	lw	s5,36(sp)
    3520:	8fb40020 	lw	s4,32(sp)
    3524:	8fb3001c 	lw	s3,28(sp)
    3528:	8fb20018 	lw	s2,24(sp)
    352c:	8fb10014 	lw	s1,20(sp)
    3530:	8fb00010 	lw	s0,16(sp)
    3534:	03e00008 	jr	ra
    3538:	27bd0038 	addiu	sp,sp,56
    353c:	27bdffd0 	addiu	sp,sp,-48
    3540:	afbf002c 	sw	ra,44(sp)
    3544:	afb60028 	sw	s6,40(sp)
    3548:	afb50024 	sw	s5,36(sp)
    354c:	afb40020 	sw	s4,32(sp)
    3550:	afb3001c 	sw	s3,28(sp)
    3554:	afb20018 	sw	s2,24(sp)
    3558:	afb10014 	sw	s1,20(sp)
    355c:	afb00010 	sw	s0,16(sp)
    3560:	40016000 	mfc0	at,$12
    3564:	34210001 	ori	at,at,0x1
    3568:	38210001 	xori	at,at,0x1
    356c:	40816000 	mtc0	at,$12
    3570:	3c10b025 	lui	s0,0xb025
    3574:	36050040 	ori	a1,s0,0x40
    3578:	94a20000 	lhu	v0,0(a1)
    357c:	2403ffaf 	li	v1,-81
    3580:	361300a8 	ori	s3,s0,0xa8
    3584:	00431024 	and	v0,v0,v1
    3588:	a4a20000 	sh	v0,0(a1)
    358c:	361200a0 	ori	s2,s0,0xa0
    3590:	361000a4 	ori	s0,s0,0xa4
    3594:	8e550000 	lw	s5,0(s2)
    3598:	8e160000 	lw	s6,0(s0)
    359c:	8e710000 	lw	s1,0(s3)
    35a0:	3c148000 	lui	s4,0x8000
    35a4:	240237fc 	li	v0,14332
    35a8:	ae400000 	sw	zero,0(s2)
    35ac:	240400fd 	li	a0,253
    35b0:	ae000000 	sw	zero,0(s0)
    35b4:	02348821 	addu	s1,s1,s4
    35b8:	ae740000 	sw	s4,0(s3)
    35bc:	a4a20000 	sh	v0,0(a1)
    35c0:	0c000c74 	jal	0x31d0
    35c4:	00000000 	nop
    35c8:	ae550000 	sw	s5,0(s2)
    35cc:	ae160000 	sw	s6,0(s0)
    35d0:	ae710000 	sw	s1,0(s3)
    35d4:	40016000 	mfc0	at,$12
    35d8:	34210001 	ori	at,at,0x1
    35dc:	40816000 	mtc0	at,$12
    35e0:	8fbf002c 	lw	ra,44(sp)
    35e4:	8fb60028 	lw	s6,40(sp)
    35e8:	8fb50024 	lw	s5,36(sp)
    35ec:	8fb40020 	lw	s4,32(sp)
    35f0:	8fb3001c 	lw	s3,28(sp)
    35f4:	8fb20018 	lw	s2,24(sp)
    35f8:	8fb10014 	lw	s1,20(sp)
    35fc:	8fb00010 	lw	s0,16(sp)
    3600:	03e00008 	jr	ra
    3604:	27bd0030 	addiu	sp,sp,48
    3608:	40016000 	mfc0	at,$12
    360c:	34210001 	ori	at,at,0x1
    3610:	38210001 	xori	at,at,0x1
    3614:	40816000 	mtc0	at,$12
    3618:	3c04b025 	lui	a0,0xb025
    361c:	34840040 	ori	a0,a0,0x40
    3620:	94820000 	lhu	v0,0(a0)
    3624:	2403fdd8 	li	v1,-552
    3628:	00431024 	and	v0,v0,v1
    362c:	240337fc 	li	v1,14332
    3630:	a4820000 	sh	v0,0(a0)
    3634:	a4830000 	sh	v1,0(a0)
    3638:	40016000 	mfc0	at,$12
    363c:	34210001 	ori	at,at,0x1
    3640:	40816000 	mtc0	at,$12
    3644:	03e00008 	jr	ra
    3648:	00000000 	nop
    364c:	27bdffd8 	addiu	sp,sp,-40
    3650:	afbf0024 	sw	ra,36(sp)
    3654:	afb40020 	sw	s4,32(sp)
    3658:	afb3001c 	sw	s3,28(sp)
    365c:	afb20018 	sw	s2,24(sp)
    3660:	afb10014 	sw	s1,20(sp)
    3664:	afb00010 	sw	s0,16(sp)
    3668:	40136000 	mfc0	s3,$12
    366c:	36610001 	ori	at,s3,0x1
    3670:	38210001 	xori	at,at,0x1
    3674:	40816000 	mtc0	at,$12
    3678:	3c04b025 	lui	a0,0xb025
    367c:	3485036c 	ori	a1,a0,0x36c
    3680:	90a20000 	lbu	v0,0(a1)
    3684:	34840230 	ori	a0,a0,0x230
    3688:	3c034000 	lui	v1,0x4000
    368c:	24420001 	addiu	v0,v0,1
    3690:	3c118002 	lui	s1,0x8002
    3694:	a0a20000 	sb	v0,0(a1)
    3698:	ac830000 	sw	v1,0(a0)
    369c:	26251568 	addiu	a1,s1,5480
    36a0:	8c900000 	lw	s0,0(a0)
    36a4:	8ca2646c 	lw	v0,25708(a1)
    36a8:	ac800000 	sw	zero,0(a0)
    36ac:	02003021 	move	a2,s0
    36b0:	02021823 	subu	v1,s0,v0
    36b4:	acb0646c 	sw	s0,25708(a1)
    36b8:	0202102b 	sltu	v0,s0,v0
    36bc:	0062300a 	.word	0x62300a
    36c0:	8c900000 	lw	s0,0(a0)
    36c4:	8ca36470 	lw	v1,25712(a1)
    36c8:	00000000 	nop
    36cc:	0203102b 	sltu	v0,s0,v1
    36d0:	1040008c 	beqz	v0,0x3904
    36d4:	02031023 	subu	v0,s0,v1
    36d8:	00d03021 	addu	a2,a2,s0
    36dc:	3c04b025 	lui	a0,0xb025
    36e0:	34840230 	ori	a0,a0,0x230
    36e4:	3c028000 	lui	v0,0x8000
    36e8:	26231568 	addiu	v1,s1,5480
    36ec:	ac820000 	sw	v0,0(a0)
    36f0:	ac706470 	sw	s0,25712(v1)
    36f4:	8c900000 	lw	s0,0(a0)
    36f8:	8c636474 	lw	v1,25716(v1)
    36fc:	00000000 	nop
    3700:	0203102b 	sltu	v0,s0,v1
    3704:	1040007d 	beqz	v0,0x38fc
    3708:	02031023 	subu	v0,s0,v1
    370c:	00d03021 	addu	a2,a2,s0
    3710:	26231568 	addiu	v1,s1,5480
    3714:	90626464 	lbu	v0,25700(v1)
    3718:	00000000 	nop
    371c:	30420002 	andi	v0,v0,0x2
    3720:	1040003f 	beqz	v0,0x3820
    3724:	ac706474 	sw	s0,25716(v1)
    3728:	3c02b025 	lui	v0,0xb025
    372c:	34420908 	ori	v0,v0,0x908
    3730:	24030803 	li	v1,2051
    3734:	ac430000 	sw	v1,0(v0)
    3738:	00001021 	move	v0,zero
    373c:	24420001 	addiu	v0,v0,1
    3740:	304200ff 	andi	v0,v0,0xff
    3744:	2c430006 	sltiu	v1,v0,6
    3748:	1460fffd 	bnez	v1,0x3740
    374c:	24420001 	addiu	v0,v0,1
    3750:	3c02b025 	lui	v0,0xb025
    3754:	34450a61 	ori	a1,v0,0xa61
    3758:	26271568 	addiu	a3,s1,5480
    375c:	34420df4 	ori	v0,v0,0xdf4
    3760:	94430000 	lhu	v1,0(v0)
    3764:	90a40000 	lbu	a0,0(a1)
    3768:	94e2646a 	lhu	v0,25706(a3)
    376c:	3063ffff 	andi	v1,v1,0xffff
    3770:	14400002 	bnez	v0,0x377c
    3774:	308400ff 	andi	a0,a0,0xff
    3778:	a4e06468 	sh	zero,25704(a3)
    377c:	00031c00 	sll	v1,v1,0x10
    3780:	24420001 	addiu	v0,v0,1
    3784:	00031c03 	sra	v1,v1,0x10
    3788:	04600071 	bltz	v1,0x3950
    378c:	a4e2646a 	sh	v0,25706(a3)
    3790:	26221568 	addiu	v0,s1,5480
    3794:	a4446468 	sh	a0,25704(v0)
    3798:	a0406465 	sb	zero,25701(v0)
    379c:	26231568 	addiu	v1,s1,5480
    37a0:	90626465 	lbu	v0,25701(v1)
    37a4:	00000000 	nop
    37a8:	2c42001a 	sltiu	v0,v0,26
    37ac:	1440001d 	bnez	v0,0x3824
    37b0:	26321568 	addiu	s2,s1,5480
    37b4:	3c02b025 	lui	v0,0xb025
    37b8:	34420802 	ori	v0,v0,0x802
    37bc:	94430000 	lhu	v1,0(v0)
    37c0:	00002821 	move	a1,zero
    37c4:	3064feff 	andi	a0,v1,0xfeff
    37c8:	a4440000 	sh	a0,0(v0)
    37cc:	24a20001 	addiu	v0,a1,1
    37d0:	304500ff 	andi	a1,v0,0xff
    37d4:	2ca30006 	sltiu	v1,a1,6
    37d8:	1460fffd 	bnez	v1,0x37d0
    37dc:	24a20001 	addiu	v0,a1,1
    37e0:	3c02b025 	lui	v0,0xb025
    37e4:	34420802 	ori	v0,v0,0x802
    37e8:	34830100 	ori	v1,a0,0x100
    37ec:	a4430000 	sh	v1,0(v0)
    37f0:	00001021 	move	v0,zero
    37f4:	24420001 	addiu	v0,v0,1
    37f8:	304200ff 	andi	v0,v0,0xff
    37fc:	2c430006 	sltiu	v1,v0,6
    3800:	1460fffd 	bnez	v1,0x37f8
    3804:	24420001 	addiu	v0,v0,1
    3808:	26221568 	addiu	v0,s1,5480
    380c:	94436466 	lhu	v1,25702(v0)
    3810:	a440646a 	sh	zero,25706(v0)
    3814:	a0406465 	sb	zero,25701(v0)
    3818:	24630001 	addiu	v1,v1,1
    381c:	a4436466 	sh	v1,25702(v0)
    3820:	26321568 	addiu	s2,s1,5480
    3824:	92426464 	lbu	v0,25700(s2)
    3828:	00000000 	nop
    382c:	30420004 	andi	v0,v0,0x4
    3830:	10400027 	beqz	v0,0x38d0
    3834:	24020014 	li	v0,20
    3838:	10c00034 	beqz	a2,0x390c
    383c:	3c03b025 	lui	v1,0xb025
    3840:	3463036f 	ori	v1,v1,0x36f
    3844:	90620000 	lbu	v0,0(v1)
    3848:	a2406479 	sb	zero,25721(s2)
    384c:	24420001 	addiu	v0,v0,1
    3850:	a0620000 	sb	v0,0(v1)
    3854:	26281568 	addiu	t0,s1,5480
    3858:	91046479 	lbu	a0,25721(t0)
    385c:	00000000 	nop
    3860:	2c82000b 	sltiu	v0,a0,11
    3864:	14400012 	bnez	v0,0x38b0
    3868:	3c03b025 	lui	v1,0xb025
    386c:	91046478 	lbu	a0,25720(t0)
    3870:	34650040 	ori	a1,v1,0x40
    3874:	2402ffff 	li	v0,-1
    3878:	34630042 	ori	v1,v1,0x42
    387c:	a0620000 	sb	v0,0(v1)
    3880:	24840001 	addiu	a0,a0,1
    3884:	240677fc 	li	a2,30716
    3888:	240737fc 	li	a3,14332
    388c:	240257fc 	li	v0,22524
    3890:	a1046478 	sb	a0,25720(t0)
    3894:	a4a60000 	sh	a2,0(a1)
    3898:	24040000 	li	a0,0
    389c:	a4a20000 	sh	v0,0(a1)
    38a0:	a1006479 	sb	zero,25721(t0)
    38a4:	a4a70000 	sh	a3,0(a1)
    38a8:	a4a60000 	sh	a2,0(a1)
    38ac:	a4a70000 	sh	a3,0(a1)
    38b0:	91026478 	lbu	v0,25720(t0)
    38b4:	308400ff 	andi	a0,a0,0xff
    38b8:	3c03b025 	lui	v1,0xb025
    38bc:	00021200 	sll	v0,v0,0x8
    38c0:	00441021 	addu	v0,v0,a0
    38c4:	34630370 	ori	v1,v1,0x370
    38c8:	a4620000 	sh	v0,0(v1)
    38cc:	24020014 	li	v0,20
    38d0:	3c038002 	lui	v1,0x8002
    38d4:	ac62acf8 	sw	v0,-21256(v1)
    38d8:	40936000 	mtc0	s3,$12
    38dc:	8fbf0024 	lw	ra,36(sp)
    38e0:	8fb40020 	lw	s4,32(sp)
    38e4:	8fb3001c 	lw	s3,28(sp)
    38e8:	8fb20018 	lw	s2,24(sp)
    38ec:	8fb10014 	lw	s1,20(sp)
    38f0:	8fb00010 	lw	s0,16(sp)
    38f4:	03e00008 	jr	ra
    38f8:	27bd0028 	addiu	sp,sp,40
    38fc:	08000db0 	j	0x36c0
    3900:	00c23021 	addu	a2,a2,v0
    3904:	08000da3 	j	0x368c
    3908:	00c23021 	addu	a2,a2,v0
    390c:	3c14b025 	lui	s4,0xb025
    3910:	3683036d 	ori	v1,s4,0x36d
    3914:	90620000 	lbu	v0,0(v1)
    3918:	3c10000f 	lui	s0,0xf
    391c:	3605ffff 	ori	a1,s0,0xffff
    3920:	24420001 	addiu	v0,v0,1
    3924:	00002021 	move	a0,zero
    3928:	a0620000 	sb	v0,0(v1)
    392c:	0c004495 	jal	0x11254
    3930:	00000000 	nop
    3934:	02028024 	and	s0,s0,v0
    3938:	00108402 	srl	s0,s0,0x10
    393c:	24020002 	li	v0,2
    3940:	1202000c 	beq	s0,v0,0x3974
    3944:	3683036e 	ori	v1,s4,0x36e
    3948:	08000e01 	j	0x3804
    394c:	a2406479 	sb	zero,25721(s2)
    3950:	94e26468 	lhu	v0,25704(a3)
    3954:	00000000 	nop
    3958:	1444ff8e 	bne	v0,a0,0x3794
    395c:	26221568 	addiu	v0,s1,5480
    3960:	90e26465 	lbu	v0,25701(a3)
    3964:	00000000 	nop
    3968:	24420001 	addiu	v0,v0,1
    396c:	08000dd3 	j	0x374c
    3970:	a0e26465 	sb	v0,25701(a3)
    3974:	90620000 	lbu	v0,0(v1)
    3978:	3c05b02a 	lui	a1,0xb02a
    397c:	34a60022 	ori	a2,a1,0x22
    3980:	24420001 	addiu	v0,v0,1
    3984:	a0620000 	sb	v0,0(v1)
    3988:	34a4002a 	ori	a0,a1,0x2a
    398c:	90c80000 	lbu	t0,0(a2)
    3990:	34a3001a 	ori	v1,a1,0x1a
    3994:	90820000 	lbu	v0,0(a0)
    3998:	90660000 	lbu	a2,0(v1)
    399c:	34a40012 	ori	a0,a1,0x12
    39a0:	90870000 	lbu	a3,0(a0)
    39a4:	34a50006 	ori	a1,a1,0x6
    39a8:	310400ff 	andi	a0,t0,0xff
    39ac:	304200ff 	andi	v0,v0,0xff
    39b0:	90a30000 	lbu	v1,0(a1)
    39b4:	00821021 	addu	v0,a0,v0
    39b8:	30c600ff 	andi	a2,a2,0xff
    39bc:	00461021 	addu	v0,v0,a2
    39c0:	30e700ff 	andi	a3,a3,0xff
    39c4:	00471021 	addu	v0,v0,a3
    39c8:	306300ff 	andi	v1,v1,0xff
    39cc:	00431021 	addu	v0,v0,v1
    39d0:	3044ffff 	andi	a0,v0,0xffff
    39d4:	1080ffdc 	beqz	a0,0x3948
    39d8:	00000000 	nop
    39dc:	92426479 	lbu	v0,25721(s2)
    39e0:	00000000 	nop
    39e4:	24420001 	addiu	v0,v0,1
    39e8:	08000e01 	j	0x3804
    39ec:	a2426479 	sb	v0,25721(s2)
    39f0:	8c820000 	lw	v0,0(a0)
    39f4:	03e00008 	jr	ra
    39f8:	00000000 	nop
    39fc:	30c6ffff 	andi	a2,a2,0xffff
    3a00:	24020010 	li	v0,16
    3a04:	10c2000c 	beq	a2,v0,0x3a38
    3a08:	28c30011 	slti	v1,a2,17
    3a0c:	10600006 	beqz	v1,0x3a28
    3a10:	24020020 	li	v0,32
    3a14:	24020008 	li	v0,8
    3a18:	10c2000d 	beq	a2,v0,0x3a50
    3a1c:	00000000 	nop
    3a20:	03e00008 	jr	ra
    3a24:	00000000 	nop
    3a28:	10c20006 	beq	a2,v0,0x3a44
    3a2c:	00000000 	nop
    3a30:	03e00008 	jr	ra
    3a34:	00000000 	nop
    3a38:	a4850000 	sh	a1,0(a0)
    3a3c:	03e00008 	jr	ra
    3a40:	00000000 	nop
    3a44:	ac850000 	sw	a1,0(a0)
    3a48:	03e00008 	jr	ra
    3a4c:	00000000 	nop
    3a50:	a0850000 	sb	a1,0(a0)
    3a54:	03e00008 	jr	ra
    3a58:	00000000 	nop
    3a5c:	03e00008 	jr	ra
    3a60:	00001021 	move	v0,zero
    3a64:	03e00008 	jr	ra
    3a68:	00001021 	move	v0,zero
    3a6c:	3c02b025 	lui	v0,0xb025
    3a70:	3442000a 	ori	v0,v0,0xa
    3a74:	90430000 	lbu	v1,0(v0)
    3a78:	24a5ffff 	addiu	a1,a1,-1
    3a7c:	00052c00 	sll	a1,a1,0x10
    3a80:	306300fd 	andi	v1,v1,0xfd
    3a84:	00052c03 	sra	a1,a1,0x10
    3a88:	3087ffff 	andi	a3,a0,0xffff
    3a8c:	a0430000 	sb	v1,0(v0)
    3a90:	04a0001a 	bltz	a1,0x3afc
    3a94:	00000000 	nop
    3a98:	00403021 	move	a2,v0
    3a9c:	00a71007 	srav	v0,a3,a1
    3aa0:	30420001 	andi	v0,v0,0x1
    3aa4:	306400fd 	andi	a0,v1,0xfd
    3aa8:	38420000 	xori	v0,v0,0x0
    3aac:	34630002 	ori	v1,v1,0x2
    3ab0:	0082180a 	.word	0x82180a
    3ab4:	a0c30000 	sb	v1,0(a2)
    3ab8:	34630004 	ori	v1,v1,0x4
    3abc:	a0c30000 	sb	v1,0(a2)
    3ac0:	24020009 	li	v0,9
    3ac4:	2442ffff 	addiu	v0,v0,-1
    3ac8:	0441ffff 	bgez	v0,0x3ac8
    3acc:	2442ffff 	addiu	v0,v0,-1
    3ad0:	306300fb 	andi	v1,v1,0xfb
    3ad4:	a0c30000 	sb	v1,0(a2)
    3ad8:	24020004 	li	v0,4
    3adc:	2442ffff 	addiu	v0,v0,-1
    3ae0:	0441ffff 	bgez	v0,0x3ae0
    3ae4:	2442ffff 	addiu	v0,v0,-1
    3ae8:	24a2ffff 	addiu	v0,a1,-1
    3aec:	00022c00 	sll	a1,v0,0x10
    3af0:	00052c03 	sra	a1,a1,0x10
    3af4:	04a1ffea 	bgez	a1,0x3aa0
    3af8:	00a71007 	srav	v0,a3,a1
    3afc:	03e00008 	jr	ra
    3b00:	00000000 	nop
    3b04:	3c02b025 	lui	v0,0xb025
    3b08:	3442000a 	ori	v0,v0,0xa
    3b0c:	90430000 	lbu	v1,0(v0)
    3b10:	2484ffff 	addiu	a0,a0,-1
    3b14:	00042400 	sll	a0,a0,0x10
    3b18:	00042403 	sra	a0,a0,0x10
    3b1c:	306500ff 	andi	a1,v1,0xff
    3b20:	0480001d 	bltz	a0,0x3b98
    3b24:	00003821 	move	a3,zero
    3b28:	00403021 	move	a2,v0
    3b2c:	24080001 	li	t0,1
    3b30:	34a50004 	ori	a1,a1,0x4
    3b34:	a0c50000 	sb	a1,0(a2)
    3b38:	90c20000 	lbu	v0,0(a2)
    3b3c:	00000000 	nop
    3b40:	304500ff 	andi	a1,v0,0xff
    3b44:	30a30001 	andi	v1,a1,0x1
    3b48:	10600005 	beqz	v1,0x3b60
    3b4c:	24020004 	li	v0,4
    3b50:	00881004 	sllv	v0,t0,a0
    3b54:	00471025 	or	v0,v0,a3
    3b58:	3047ffff 	andi	a3,v0,0xffff
    3b5c:	24020004 	li	v0,4
    3b60:	2442ffff 	addiu	v0,v0,-1
    3b64:	0441ffff 	bgez	v0,0x3b64
    3b68:	2442ffff 	addiu	v0,v0,-1
    3b6c:	30a500fb 	andi	a1,a1,0xfb
    3b70:	a0c50000 	sb	a1,0(a2)
    3b74:	24020009 	li	v0,9
    3b78:	2442ffff 	addiu	v0,v0,-1
    3b7c:	0441ffff 	bgez	v0,0x3b7c
    3b80:	2442ffff 	addiu	v0,v0,-1
    3b84:	2482ffff 	addiu	v0,a0,-1
    3b88:	00022400 	sll	a0,v0,0x10
    3b8c:	00042403 	sra	a0,a0,0x10
    3b90:	0481ffe7 	bgez	a0,0x3b30
    3b94:	00000000 	nop
    3b98:	03e00008 	jr	ra
    3b9c:	00e01021 	move	v0,a3
    3ba0:	27bdffe0 	addiu	sp,sp,-32
    3ba4:	afb00010 	sw	s0,16(sp)
    3ba8:	3c10b025 	lui	s0,0xb025
    3bac:	3610000a 	ori	s0,s0,0xa
    3bb0:	afbf0018 	sw	ra,24(sp)
    3bb4:	afb10014 	sw	s1,20(sp)
    3bb8:	92020000 	lbu	v0,0(s0)
    3bbc:	3091ffff 	andi	s1,a0,0xffff
    3bc0:	24050003 	li	a1,3
    3bc4:	304200c0 	andi	v0,v0,0xc0
    3bc8:	34430080 	ori	v1,v0,0x80
    3bcc:	a2030000 	sb	v1,0(s0)
    3bd0:	34630004 	ori	v1,v1,0x4
    3bd4:	a2030000 	sb	v1,0(s0)
    3bd8:	306300fb 	andi	v1,v1,0xfb
    3bdc:	a2030000 	sb	v1,0(s0)
    3be0:	34630008 	ori	v1,v1,0x8
    3be4:	a2030000 	sb	v1,0(s0)
    3be8:	34630004 	ori	v1,v1,0x4
    3bec:	a2030000 	sb	v1,0(s0)
    3bf0:	306300fb 	andi	v1,v1,0xfb
    3bf4:	a2030000 	sb	v1,0(s0)
    3bf8:	0c000e87 	jal	0x3a1c
    3bfc:	24040006 	li	a0,6
    3c00:	00112042 	srl	a0,s1,0x1
    3c04:	0c000e87 	jal	0x3a1c
    3c08:	24050006 	li	a1,6
    3c0c:	0c000ead 	jal	0x3ab4
    3c10:	24040010 	li	a0,16
    3c14:	92030000 	lbu	v1,0(s0)
    3c18:	8fbf0018 	lw	ra,24(sp)
    3c1c:	8fb10014 	lw	s1,20(sp)
    3c20:	306300c0 	andi	v1,v1,0xc0
    3c24:	a2030000 	sb	v1,0(s0)
    3c28:	8fb00010 	lw	s0,16(sp)
    3c2c:	03e00008 	jr	ra
    3c30:	27bd0020 	addiu	sp,sp,32
    3c34:	27bdffe0 	addiu	sp,sp,-32
    3c38:	afb10014 	sw	s1,20(sp)
    3c3c:	30b1ffff 	andi	s1,a1,0xffff
    3c40:	afb20018 	sw	s2,24(sp)
    3c44:	afb00010 	sw	s0,16(sp)
    3c48:	afbf001c 	sw	ra,28(sp)
    3c4c:	00c09021 	move	s2,a2
    3c50:	1220000a 	beqz	s1,0x3c7c
    3c54:	3090ffff 	andi	s0,a0,0xffff
    3c58:	0c000ed4 	jal	0x3b50
    3c5c:	02002021 	move	a0,s0
    3c60:	2623fffe 	addiu	v1,s1,-2
    3c64:	26040002 	addiu	a0,s0,2
    3c68:	a6420000 	sh	v0,0(s2)
    3c6c:	3071ffff 	andi	s1,v1,0xffff
    3c70:	3090ffff 	andi	s0,a0,0xffff
    3c74:	1620fff8 	bnez	s1,0x3c58
    3c78:	26520002 	addiu	s2,s2,2
    3c7c:	8fbf001c 	lw	ra,28(sp)
    3c80:	8fb20018 	lw	s2,24(sp)
    3c84:	8fb10014 	lw	s1,20(sp)
    3c88:	8fb00010 	lw	s0,16(sp)
    3c8c:	03e00008 	jr	ra
    3c90:	27bd0020 	addiu	sp,sp,32
    3c94:	3c03b025 	lui	v1,0xb025
    3c98:	3468000a 	ori	t0,v1,0xa
    3c9c:	91020000 	lbu	v0,0(t0)
    3ca0:	30a5ffff 	andi	a1,a1,0xffff
    3ca4:	308400ff 	andi	a0,a0,0xff
    3ca8:	10a0001f 	beqz	a1,0x3d28
    3cac:	304700ff 	andi	a3,v0,0xff
    3cb0:	01004821 	move	t1,t0
    3cb4:	346c000c 	ori	t4,v1,0xc
    3cb8:	346b000b 	ori	t3,v1,0xb
    3cbc:	240affc0 	li	t2,-64
    3cc0:	01006821 	move	t5,t0
    3cc4:	00ea1025 	or	v0,a3,t2
    3cc8:	304700ff 	andi	a3,v0,0xff
    3ccc:	a1640000 	sb	a0,0(t3)
    3cd0:	a1270000 	sb	a3,0(t1)
    3cd4:	91220000 	lbu	v0,0(t1)
    3cd8:	00000000 	nop
    3cdc:	304700ff 	andi	a3,v0,0xff
    3ce0:	30e300c0 	andi	v1,a3,0xc0
    3ce4:	10600008 	beqz	v1,0x3d08
    3ce8:	00000000 	nop
    3cec:	01a04021 	move	t0,t5
    3cf0:	91020000 	lbu	v0,0(t0)
    3cf4:	00000000 	nop
    3cf8:	304700ff 	andi	a3,v0,0xff
    3cfc:	30e300c0 	andi	v1,a3,0xc0
    3d00:	1460fffb 	bnez	v1,0x3cf0
    3d04:	00000000 	nop
    3d08:	8d820000 	lw	v0,0(t4)
    3d0c:	24a3fffc 	addiu	v1,a1,-4
    3d10:	24840004 	addiu	a0,a0,4
    3d14:	3065ffff 	andi	a1,v1,0xffff
    3d18:	acc20000 	sw	v0,0(a2)
    3d1c:	308400ff 	andi	a0,a0,0xff
    3d20:	14a0ffe8 	bnez	a1,0x3cc4
    3d24:	24c60004 	addiu	a2,a2,4
    3d28:	03e00008 	jr	ra
    3d2c:	00000000 	nop
    3d30:	308400ff 	andi	a0,a0,0xff
    3d34:	00e06821 	move	t5,a3
    3d38:	30a5ffff 	andi	a1,a1,0xffff
    3d3c:	000450c0 	sll	t2,a0,0x3
    3d40:	400c6000 	mfc0	t4,$12
    3d44:	35810001 	ori	at,t4,0x1
    3d48:	38210001 	xori	at,at,0x1
    3d4c:	40816000 	mtc0	at,$12
    3d50:	90c20000 	lbu	v0,0(a2)
    3d54:	90c30001 	lbu	v1,1(a2)
    3d58:	3c07b025 	lui	a3,0xb025
    3d5c:	00021400 	sll	v0,v0,0x10
    3d60:	00a22825 	or	a1,a1,v0
    3d64:	00031e00 	sll	v1,v1,0x18
    3d68:	3c088001 	lui	t0,0x8001
    3d6c:	00a32025 	or	a0,a1,v1
    3d70:	34e90240 	ori	t1,a3,0x240
    3d74:	01481825 	or	v1,t2,t0
    3d78:	34e70244 	ori	a3,a3,0x244
    3d7c:	ace40000 	sw	a0,0(a3)
    3d80:	ad230000 	sw	v1,0(t1)
    3d84:	90c20003 	lbu	v0,3(a2)
    3d88:	90c40002 	lbu	a0,2(a2)
    3d8c:	90c30004 	lbu	v1,4(a2)
    3d90:	90c50005 	lbu	a1,5(a2)
    3d94:	00021200 	sll	v0,v0,0x8
    3d98:	00822025 	or	a0,a0,v0
    3d9c:	00031c00 	sll	v1,v1,0x10
    3da0:	254a0001 	addiu	t2,t2,1
    3da4:	00832025 	or	a0,a0,v1
    3da8:	00052e00 	sll	a1,a1,0x18
    3dac:	01484025 	or	t0,t2,t0
    3db0:	00852025 	or	a0,a0,a1
    3db4:	ace40000 	sw	a0,0(a3)
    3db8:	254a0001 	addiu	t2,t2,1
    3dbc:	ad280000 	sw	t0,0(t1)
    3dc0:	3c0b8001 	lui	t3,0x8001
    3dc4:	00004021 	move	t0,zero
    3dc8:	01a81021 	addu	v0,t5,t0
    3dcc:	90430001 	lbu	v1,1(v0)
    3dd0:	90450000 	lbu	a1,0(v0)
    3dd4:	90440002 	lbu	a0,2(v0)
    3dd8:	90460003 	lbu	a2,3(v0)
    3ddc:	00031a00 	sll	v1,v1,0x8
    3de0:	00a32825 	or	a1,a1,v1
    3de4:	00042400 	sll	a0,a0,0x10
    3de8:	00a42825 	or	a1,a1,a0
    3dec:	00063600 	sll	a2,a2,0x18
    3df0:	25080004 	addiu	t0,t0,4
    3df4:	014b1025 	or	v0,t2,t3
    3df8:	00a62025 	or	a0,a1,a2
    3dfc:	2d030010 	sltiu	v1,t0,16
    3e00:	ace40000 	sw	a0,0(a3)
    3e04:	254a0001 	addiu	t2,t2,1
    3e08:	ad220000 	sw	v0,0(t1)
    3e0c:	1460ffee 	bnez	v1,0x3dc8
    3e10:	00000000 	nop
    3e14:	408c6000 	mtc0	t4,$12
    3e18:	03e00008 	jr	ra
    3e1c:	00000000 	nop
    3e20:	3084ffff 	andi	a0,a0,0xffff
    3e24:	3c08b042 	lui	t0,0xb042
    3e28:	00041080 	sll	v0,a0,0x2
    3e2c:	00481021 	addu	v0,v0,t0
    3e30:	ac460004 	sw	a2,4(v0)
    3e34:	91070000 	lbu	a3,0(t0)
    3e38:	00041840 	sll	v1,a0,0x1
    3e3c:	24060003 	li	a2,3
    3e40:	30e700ff 	andi	a3,a3,0xff
    3e44:	00663004 	sllv	a2,a2,v1
    3e48:	24020001 	li	v0,1
    3e4c:	00621004 	sllv	v0,v0,v1
    3e50:	00c73025 	or	a2,a2,a3
    3e54:	30a5ffff 	andi	a1,a1,0xffff
    3e58:	00471025 	or	v0,v0,a3
    3e5c:	14a00002 	bnez	a1,0x3e68
    3e60:	30c700ff 	andi	a3,a2,0xff
    3e64:	304700ff 	andi	a3,v0,0xff
    3e68:	3c02b042 	lui	v0,0xb042
    3e6c:	a0470000 	sb	a3,0(v0)
    3e70:	03e00008 	jr	ra
    3e74:	00000000 	nop
    3e78:	3c02b042 	lui	v0,0xb042
    3e7c:	34470003 	ori	a3,v0,0x3
    3e80:	90e30000 	lbu	v1,0(a3)
    3e84:	308400ff 	andi	a0,a0,0xff
    3e88:	24840004 	addiu	a0,a0,4
    3e8c:	306500ff 	andi	a1,v1,0xff
    3e90:	24020001 	li	v0,1
    3e94:	00823004 	sllv	a2,v0,a0
    3e98:	00851807 	srav	v1,a1,a0
    3e9c:	3c02b025 	lui	v0,0xb025
    3ea0:	344203e8 	ori	v0,v0,0x3e8
    3ea4:	30630001 	andi	v1,v1,0x1
    3ea8:	00c02021 	move	a0,a2
    3eac:	a0450000 	sb	a1,0(v0)
    3eb0:	10600002 	beqz	v1,0x3ebc
    3eb4:	00000000 	nop
    3eb8:	a0e60000 	sb	a2,0(a3)
    3ebc:	03e00008 	jr	ra
    3ec0:	00851024 	and	v0,a0,a1
    3ec4:	40036000 	mfc0	v1,$12
    3ec8:	34610001 	ori	at,v1,0x1
    3ecc:	38210001 	xori	at,at,0x1
    3ed0:	40816000 	mtc0	at,$12
    3ed4:	3c028002 	lui	v0,0x8002
    3ed8:	2442a2e0 	addiu	v0,v0,-23840
    3edc:	8c450004 	lw	a1,4(v0)
    3ee0:	ac820000 	sw	v0,0(a0)
    3ee4:	ac440004 	sw	a0,4(v0)
    3ee8:	aca40000 	sw	a0,0(a1)
    3eec:	ac850004 	sw	a1,4(a0)
    3ef0:	40836000 	mtc0	v1,$12
    3ef4:	03e00008 	jr	ra
    3ef8:	00000000 	nop
    3efc:	90830014 	lbu	v1,20(a0)
    3f00:	24020001 	li	v0,1
    3f04:	ac860008 	sw	a2,8(a0)
    3f08:	ac850018 	sw	a1,24(a0)
    3f0c:	ac840000 	sw	a0,0(a0)
    3f10:	10620003 	beq	v1,v0,0x3f20
    3f14:	ac840004 	sw	a0,4(a0)
    3f18:	08000f9d 	j	0x3e74
    3f1c:	ac80000c 	sw	zero,12(a0)
    3f20:	8c82000c 	lw	v0,12(a0)
    3f24:	08000f9d 	j	0x3e74
    3f28:	ac820010 	sw	v0,16(a0)
    3f2c:	40036000 	mfc0	v1,$12
    3f30:	34610001 	ori	at,v1,0x1
    3f34:	38210001 	xori	at,at,0x1
    3f38:	40816000 	mtc0	at,$12
    3f3c:	8c850004 	lw	a1,4(a0)
    3f40:	8c820000 	lw	v0,0(a0)
    3f44:	00000000 	nop
    3f48:	aca20000 	sw	v0,0(a1)
    3f4c:	ac450004 	sw	a1,4(v0)
    3f50:	ac840000 	sw	a0,0(a0)
    3f54:	ac840004 	sw	a0,4(a0)
    3f58:	40836000 	mtc0	v1,$12
    3f5c:	03e00008 	jr	ra
    3f60:	00000000 	nop
    3f64:	27bdffc8 	addiu	sp,sp,-56
    3f68:	afbe0030 	sw	s8,48(sp)
    3f6c:	3c02b025 	lui	v0,0xb025
    3f70:	3c1e8002 	lui	s8,0x8002
    3f74:	afb7002c 	sw	s7,44(sp)
    3f78:	afb60028 	sw	s6,40(sp)
    3f7c:	afb50024 	sw	s5,36(sp)
    3f80:	afb40020 	sw	s4,32(sp)
    3f84:	afb3001c 	sw	s3,28(sp)
    3f88:	afbf0034 	sw	ra,52(sp)
    3f8c:	afb20018 	sw	s2,24(sp)
    3f90:	afb10014 	sw	s1,20(sp)
    3f94:	afb00010 	sw	s0,16(sp)
    3f98:	34560318 	ori	s6,v0,0x318
    3f9c:	3c178000 	lui	s7,0x8000
    3fa0:	3c148002 	lui	s4,0x8002
    3fa4:	3c158002 	lui	s5,0x8002
    3fa8:	27d3a2e0 	addiu	s3,s8,-23840
    3fac:	26e23f14 	addiu	v0,s7,16148
    3fb0:	aec20000 	sw	v0,0(s6)
    3fb4:	8fd1a2e0 	lw	s1,-23840(s8)
    3fb8:	40016000 	mfc0	at,$12
    3fbc:	34210001 	ori	at,at,0x1
    3fc0:	38210001 	xori	at,at,0x1
    3fc4:	40816000 	mtc0	at,$12
    3fc8:	8e927e5c 	lw	s2,32348(s4)
    3fcc:	00000000 	nop
    3fd0:	12400024 	beqz	s2,0x4064
    3fd4:	00000000 	nop
    3fd8:	ae807e5c 	sw	zero,32348(s4)
    3fdc:	40016000 	mfc0	at,$12
    3fe0:	34210001 	ori	at,at,0x1
    3fe4:	40816000 	mtc0	at,$12
    3fe8:	12330021 	beq	s1,s3,0x4070
    3fec:	02208021 	move	s0,s1
    3ff0:	92230014 	lbu	v1,20(s1)
    3ff4:	24020001 	li	v0,1
    3ff8:	8e310000 	lw	s1,0(s1)
    3ffc:	10620029 	beq	v1,v0,0x40a4
    4000:	00000000 	nop
    4004:	14600008 	bnez	v1,0x4028
    4008:	24020002 	li	v0,2
    400c:	8e03000c 	lw	v1,12(s0)
    4010:	00000000 	nop
    4014:	0243102b 	sltu	v0,s2,v1
    4018:	1040001c 	beqz	v0,0x408c
    401c:	00721023 	subu	v0,v1,s2
    4020:	08000fe6 	j	0x3f98
    4024:	ae02000c 	sw	v0,12(s0)
    4028:	1462ffef 	bne	v1,v0,0x3fe8
    402c:	00000000 	nop
    4030:	8e03000c 	lw	v1,12(s0)
    4034:	00000000 	nop
    4038:	1060ffeb 	beqz	v1,0x3fe8
    403c:	0243102b 	sltu	v0,s2,v1
    4040:	1440fff7 	bnez	v0,0x4020
    4044:	00721023 	subu	v0,v1,s2
    4048:	8e040018 	lw	a0,24(s0)
    404c:	8e020008 	lw	v0,8(s0)
    4050:	00000000 	nop
    4054:	0040f809 	jalr	v0
    4058:	ae00000c 	sw	zero,12(s0)
    405c:	08000fe6 	j	0x3f98
    4060:	00000000 	nop
    4064:	40016000 	mfc0	at,$12
    4068:	34210001 	ori	at,at,0x1
    406c:	40816000 	mtc0	at,$12
    4070:	26a40c08 	addiu	a0,s5,3080
    4074:	00002821 	move	a1,zero
    4078:	00003021 	move	a2,zero
    407c:	0c002207 	jal	0x881c
    4080:	00003821 	move	a3,zero
    4084:	08000fd8 	j	0x3f60
    4088:	26e23f14 	addiu	v0,s7,16148
    408c:	8e020008 	lw	v0,8(s0)
    4090:	8e040018 	lw	a0,24(s0)
    4094:	0040f809 	jalr	v0
    4098:	00000000 	nop
    409c:	08000fe6 	j	0x3f98
    40a0:	ae02000c 	sw	v0,12(s0)
    40a4:	8e03000c 	lw	v1,12(s0)
    40a8:	00000000 	nop
    40ac:	0243102b 	sltu	v0,s2,v1
    40b0:	1440ffdb 	bnez	v0,0x4020
    40b4:	00721023 	subu	v0,v1,s2
    40b8:	8e020008 	lw	v0,8(s0)
    40bc:	8e040018 	lw	a0,24(s0)
    40c0:	0040f809 	jalr	v0
    40c4:	00000000 	nop
    40c8:	8e030010 	lw	v1,16(s0)
    40cc:	08000fe6 	j	0x3f98
    40d0:	ae03000c 	sw	v1,12(s0)
    40d4:	3c028002 	lui	v0,0x8002
    40d8:	8c437974 	lw	v1,31092(v0)
    40dc:	30a500ff 	andi	a1,a1,0xff
    40e0:	3c02b025 	lui	v0,0xb025
    40e4:	00031842 	srl	v1,v1,0x1
    40e8:	00a23021 	addu	a2,a1,v0
    40ec:	30630001 	andi	v1,v1,0x1
    40f0:	24020001 	li	v0,1
    40f4:	2ca70010 	sltiu	a3,a1,16
    40f8:	10620004 	beq	v1,v0,0x410c
    40fc:	308400ff 	andi	a0,a0,0xff
    4100:	a0c40160 	sb	a0,352(a2)
    4104:	03e00008 	jr	ra
    4108:	00000000 	nop
    410c:	3c03b025 	lui	v1,0xb025
    4110:	34a20010 	ori	v0,a1,0x10
    4114:	10e0fffa 	beqz	a3,0x4100
    4118:	00434021 	addu	t0,v0,v1
    411c:	a0c40160 	sb	a0,352(a2)
    4120:	a1040160 	sb	a0,352(t0)
    4124:	03e00008 	jr	ra
    4128:	00000000 	nop
    412c:	308400ff 	andi	a0,a0,0xff
    4130:	24030001 	li	v1,1
    4134:	3c020010 	lui	v0,0x10
    4138:	00831804 	sllv	v1,v1,a0
    413c:	344270f0 	ori	v0,v0,0x70f0
    4140:	2c840015 	sltiu	a0,a0,21
    4144:	10800006 	beqz	a0,0x4160
    4148:	00622824 	and	a1,v1,v0
    414c:	3063000f 	andi	v1,v1,0xf
    4150:	14a00004 	bnez	a1,0x4164
    4154:	24020001 	li	v0,1
    4158:	14600002 	bnez	v1,0x4164
    415c:	24020002 	li	v0,2
    4160:	00001021 	move	v0,zero
    4164:	03e00008 	jr	ra
    4168:	00000000 	nop
    416c:	30a500ff 	andi	a1,a1,0xff
    4170:	2ca20004 	sltiu	v0,a1,4
    4174:	10400014 	beqz	v0,0x41c8
    4178:	308400ff 	andi	a0,a0,0xff
    417c:	3c038002 	lui	v1,0x8002
    4180:	90627e26 	lbu	v0,32294(v1)
    4184:	00000000 	nop
    4188:	2442ffef 	addiu	v0,v0,-17
    418c:	304200ff 	andi	v0,v0,0xff
    4190:	2c420002 	sltiu	v0,v0,2
    4194:	1040000e 	beqz	v0,0x41d0
    4198:	24030002 	li	v1,2
    419c:	10830024 	beq	a0,v1,0x4230
    41a0:	3c02100f 	lui	v0,0x100f
    41a4:	28820003 	slti	v0,a0,3
    41a8:	10400014 	beqz	v0,0x41fc
    41ac:	24020003 	li	v0,3
    41b0:	24020001 	li	v0,1
    41b4:	1082002f 	beq	a0,v0,0x4274
    41b8:	00000000 	nop
    41bc:	3c021fff 	lui	v0,0x1fff
    41c0:	03e00008 	jr	ra
    41c4:	3442ffff 	ori	v0,v0,0xffff
    41c8:	03e00008 	jr	ra
    41cc:	00000000 	nop
    41d0:	10830035 	beq	a0,v1,0x42a8
    41d4:	3c021f0f 	lui	v0,0x1f0f
    41d8:	28820003 	slti	v0,a0,3
    41dc:	10400016 	beqz	v0,0x4238
    41e0:	24020003 	li	v0,3
    41e4:	24020001 	li	v0,1
    41e8:	1482fff4 	bne	a0,v0,0x41bc
    41ec:	00000000 	nop
    41f0:	3c021f0f 	lui	v0,0x1f0f
    41f4:	03e00008 	jr	ra
    41f8:	34428000 	ori	v0,v0,0x8000
    41fc:	1482fff0 	bne	a0,v0,0x41c0
    4200:	3c021fff 	lui	v0,0x1fff
    4204:	24020001 	li	v0,1
    4208:	10a20029 	beq	a1,v0,0x42b0
    420c:	3c02100f 	lui	v0,0x100f
    4210:	28a20002 	slti	v0,a1,2
    4214:	1440001f 	bnez	v0,0x4294
    4218:	00000000 	nop
    421c:	10a30028 	beq	a1,v1,0x42c0
    4220:	00000000 	nop
    4224:	14a4ffe5 	bne	a1,a0,0x41bc
    4228:	00000000 	nop
    422c:	3c02100f 	lui	v0,0x100f
    4230:	03e00008 	jr	ra
    4234:	3442f000 	ori	v0,v0,0xf000
    4238:	1482ffe1 	bne	a0,v0,0x41c0
    423c:	3c021fff 	lui	v0,0x1fff
    4240:	24020001 	li	v0,1
    4244:	10a2001c 	beq	a1,v0,0x42b8
    4248:	3c02000f 	lui	v0,0xf
    424c:	28a20002 	slti	v0,a1,2
    4250:	1440000b 	bnez	v0,0x4280
    4254:	00000000 	nop
    4258:	10a3001c 	beq	a1,v1,0x42cc
    425c:	00000000 	nop
    4260:	14a4ffd6 	bne	a1,a0,0x41bc
    4264:	00000000 	nop
    4268:	3c02000f 	lui	v0,0xf
    426c:	03e00008 	jr	ra
    4270:	3442f000 	ori	v0,v0,0xf000
    4274:	3c02100f 	lui	v0,0x100f
    4278:	03e00008 	jr	ra
    427c:	34428000 	ori	v0,v0,0x8000
    4280:	14a0ffce 	bnez	a1,0x41bc
    4284:	00000000 	nop
    4288:	3c02000f 	lui	v0,0xf
    428c:	03e00008 	jr	ra
    4290:	3442f015 	ori	v0,v0,0xf015
    4294:	14a0ffc9 	bnez	a1,0x41bc
    4298:	00000000 	nop
    429c:	3c02100f 	lui	v0,0x100f
    42a0:	03e00008 	jr	ra
    42a4:	3442f015 	ori	v0,v0,0xf015
    42a8:	03e00008 	jr	ra
    42ac:	3442f000 	ori	v0,v0,0xf000
    42b0:	03e00008 	jr	ra
    42b4:	3442f010 	ori	v0,v0,0xf010
    42b8:	03e00008 	jr	ra
    42bc:	3442f010 	ori	v0,v0,0xf010
    42c0:	3c02100f 	lui	v0,0x100f
    42c4:	03e00008 	jr	ra
    42c8:	3442f005 	ori	v0,v0,0xf005
    42cc:	3c02000f 	lui	v0,0xf
    42d0:	03e00008 	jr	ra
    42d4:	3442f005 	ori	v0,v0,0xf005
    42d8:	000440c0 	sll	t0,a0,0x3
    42dc:	01041821 	addu	v1,t0,a0
    42e0:	00031880 	sll	v1,v1,0x2
    42e4:	00641821 	addu	v1,v1,a0
    42e8:	3c028002 	lui	v0,0x8002
    42ec:	00031880 	sll	v1,v1,0x2
    42f0:	24421568 	addiu	v0,v0,5480
    42f4:	00621821 	addu	v1,v1,v0
    42f8:	8c665188 	lw	a2,20872(v1)
    42fc:	00603821 	move	a3,v1
    4300:	a060518e 	sb	zero,20878(v1)
    4304:	a060518f 	sb	zero,20879(v1)
    4308:	2405001c 	li	a1,28
    430c:	080010b3 	j	0x42cc
    4310:	24030001 	li	v1,1
    4314:	04a00008 	bltz	a1,0x4338
    4318:	01041021 	addu	v0,t0,a0
    431c:	00a31004 	sllv	v0,v1,a1
    4320:	00c21024 	and	v0,a2,v0
    4324:	1040fffb 	beqz	v0,0x4314
    4328:	24a5ffff 	addiu	a1,a1,-1
    432c:	24a50001 	addiu	a1,a1,1
    4330:	a0e5518e 	sb	a1,20878(a3)
    4334:	01041021 	addu	v0,t0,a0
    4338:	00021080 	sll	v0,v0,0x2
    433c:	00441021 	addu	v0,v0,a0
    4340:	3c038002 	lui	v1,0x8002
    4344:	00021080 	sll	v0,v0,0x2
    4348:	24631568 	addiu	v1,v1,5480
    434c:	00431821 	addu	v1,v0,v1
    4350:	8c665188 	lw	a2,20872(v1)
    4354:	00002821 	move	a1,zero
    4358:	080010c7 	j	0x431c
    435c:	24070001 	li	a3,1
    4360:	28a2001d 	slti	v0,a1,29
    4364:	10400008 	beqz	v0,0x4388
    4368:	00000000 	nop
    436c:	00a71004 	sllv	v0,a3,a1
    4370:	00c21024 	and	v0,a2,v0
    4374:	1040fffa 	beqz	v0,0x4360
    4378:	24a50001 	addiu	a1,a1,1
    437c:	24a5ffff 	addiu	a1,a1,-1
    4380:	03e00008 	jr	ra
    4384:	a065518f 	sb	a1,20879(v1)
    4388:	03e00008 	jr	ra
    438c:	00000000 	nop
    4390:	27bdffc8 	addiu	sp,sp,-56
    4394:	afb60028 	sw	s6,40(sp)
    4398:	3c168002 	lui	s6,0x8002
    439c:	afbe0030 	sw	s8,48(sp)
    43a0:	afb7002c 	sw	s7,44(sp)
    43a4:	afb50024 	sw	s5,36(sp)
    43a8:	afb40020 	sw	s4,32(sp)
    43ac:	afb20018 	sw	s2,24(sp)
    43b0:	afb10014 	sw	s1,20(sp)
    43b4:	24150001 	li	s5,1
    43b8:	00008821 	move	s1,zero
    43bc:	26de1568 	addiu	s8,s6,5480
    43c0:	0000a021 	move	s4,zero
    43c4:	00009021 	move	s2,zero
    43c8:	3c17b025 	lui	s7,0xb025
    43cc:	afbf0034 	sw	ra,52(sp)
    43d0:	afb3001c 	sw	s3,28(sp)
    43d4:	080010e8 	j	0x43a0
    43d8:	afb00010 	sw	s0,16(sp)
    43dc:	26310001 	addiu	s1,s1,1
    43e0:	2e220020 	sltiu	v0,s1,32
    43e4:	26520094 	addiu	s2,s2,148
    43e8:	1040002e 	beqz	v0,0x44a4
    43ec:	26940094 	addiu	s4,s4,148
    43f0:	26c21568 	addiu	v0,s6,5480
    43f4:	02423021 	addu	a2,s2,v0
    43f8:	8cc5518c 	lw	a1,20876(a2)
    43fc:	00000000 	nop
    4400:	00051302 	srl	v0,a1,0xc
    4404:	30420001 	andi	v0,v0,0x1
    4408:	1455fff4 	bne	v0,s5,0x43dc
    440c:	00051a42 	srl	v1,a1,0x9
    4410:	8cc2517c 	lw	v0,20860(a2)
    4414:	30640007 	andi	a0,v1,0x7
    4418:	00021102 	srl	v0,v0,0x4
    441c:	3043007f 	andi	v1,v0,0x7f
    4420:	1095002d 	beq	a0,s5,0x44d8
    4424:	30b30007 	andi	s3,a1,0x7
    4428:	28820002 	slti	v0,a0,2
    442c:	1440003a 	bnez	v0,0x4518
    4430:	24020002 	li	v0,2
    4434:	10820030 	beq	a0,v0,0x44f8
    4438:	24020003 	li	v0,3
    443c:	1082003c 	beq	a0,v0,0x4530
    4440:	2c62001a 	sltiu	v0,v1,26
    4444:	029e8021 	addu	s0,s4,s8
    4448:	8e02518c 	lw	v0,20876(s0)
    444c:	2e630004 	sltiu	v1,s3,4
    4450:	00021242 	srl	v0,v0,0x9
    4454:	1060000a 	beqz	v1,0x4480
    4458:	30440007 	andi	a0,v0,0x7
    445c:	0c001047 	jal	0x411c
    4460:	02602821 	move	a1,s3
    4464:	00132080 	sll	a0,s3,0x2
    4468:	ae025184 	sw	v0,20868(s0)
    446c:	00972021 	addu	a0,a0,s7
    4470:	8c830184 	lw	v1,388(a0)
    4474:	00000000 	nop
    4478:	00621824 	and	v1,v1,v0
    447c:	ae035188 	sw	v1,20872(s0)
    4480:	0c0010a2 	jal	0x4288
    4484:	02202021 	move	a0,s1
    4488:	02371021 	addu	v0,s1,s7
    448c:	26310001 	addiu	s1,s1,1
    4490:	90430160 	lbu	v1,352(v0)
    4494:	2e220020 	sltiu	v0,s1,32
    4498:	26520094 	addiu	s2,s2,148
    449c:	1440ffd4 	bnez	v0,0x43f0
    44a0:	26940094 	addiu	s4,s4,148
    44a4:	8fbf0034 	lw	ra,52(sp)
    44a8:	8fbe0030 	lw	s8,48(sp)
    44ac:	8fb7002c 	lw	s7,44(sp)
    44b0:	8fb60028 	lw	s6,40(sp)
    44b4:	8fb50024 	lw	s5,36(sp)
    44b8:	8fb40020 	lw	s4,32(sp)
    44bc:	8fb3001c 	lw	s3,28(sp)
    44c0:	8fb20018 	lw	s2,24(sp)
    44c4:	8fb10014 	lw	s1,20(sp)
    44c8:	8fb00010 	lw	s0,16(sp)
    44cc:	00001021 	move	v0,zero
    44d0:	03e00008 	jr	ra
    44d4:	27bd0038 	addiu	sp,sp,56
    44d8:	2c620032 	sltiu	v0,v1,50
    44dc:	1040ffda 	beqz	v0,0x4448
    44e0:	029e8021 	addu	s0,s4,s8
    44e4:	2403f1ff 	li	v1,-3585
    44e8:	00a31024 	and	v0,a1,v1
    44ec:	34420400 	ori	v0,v0,0x400
    44f0:	080010fd 	j	0x43f4
    44f4:	acc2518c 	sw	v0,20876(a2)
    44f8:	2c620038 	sltiu	v0,v1,56
    44fc:	14400012 	bnez	v0,0x4548
    4500:	2c620014 	sltiu	v0,v1,20
    4504:	2403f1ff 	li	v1,-3585
    4508:	00a31024 	and	v0,a1,v1
    450c:	34420200 	ori	v0,v0,0x200
    4510:	080010fd 	j	0x43f4
    4514:	acc2518c 	sw	v0,20876(a2)
    4518:	1480ffcb 	bnez	a0,0x4448
    451c:	029e8021 	addu	s0,s4,s8
    4520:	2403f1ff 	li	v1,-3585
    4524:	00a31024 	and	v0,a1,v1
    4528:	080010fe 	j	0x43f8
    452c:	acc2518c 	sw	v0,20876(a2)
    4530:	1440ffc5 	bnez	v0,0x4448
    4534:	029e8021 	addu	s0,s4,s8
    4538:	2403f1ff 	li	v1,-3585
    453c:	00a31024 	and	v0,a1,v1
    4540:	08001128 	j	0x44a0
    4544:	34420400 	ori	v0,v0,0x400
    4548:	1040ffbf 	beqz	v0,0x4448
    454c:	029e8021 	addu	s0,s4,s8
    4550:	2403f1ff 	li	v1,-3585
    4554:	00a31024 	and	v0,a1,v1
    4558:	34420600 	ori	v0,v0,0x600
    455c:	080010fe 	j	0x43f8
    4560:	acc2518c 	sw	v0,20876(a2)
    4564:	03e00008 	jr	ra
    4568:	00000000 	nop
    456c:	27bdffd8 	addiu	sp,sp,-40
    4570:	afb00010 	sw	s0,16(sp)
    4574:	000480c0 	sll	s0,a0,0x3
    4578:	02048021 	addu	s0,s0,a0
    457c:	00108080 	sll	s0,s0,0x2
    4580:	02048021 	addu	s0,s0,a0
    4584:	3c028002 	lui	v0,0x8002
    4588:	24421568 	addiu	v0,v0,5480
    458c:	00108080 	sll	s0,s0,0x2
    4590:	afbf0020 	sw	ra,32(sp)
    4594:	afb3001c 	sw	s3,28(sp)
    4598:	afb20018 	sw	s2,24(sp)
    459c:	02028021 	addu	s0,s0,v0
    45a0:	afb10014 	sw	s1,20(sp)
    45a4:	8e03518c 	lw	v1,20876(s0)
    45a8:	3c02b025 	lui	v0,0xb025
    45ac:	34530180 	ori	s3,v0,0x180
    45b0:	30630007 	andi	v1,v1,0x7
    45b4:	00031880 	sll	v1,v1,0x2
    45b8:	00621821 	addu	v1,v1,v0
    45bc:	92710000 	lbu	s1,0(s3)
    45c0:	8e055184 	lw	a1,20868(s0)
    45c4:	8c620184 	lw	v0,388(v1)
    45c8:	00809021 	move	s2,a0
    45cc:	323100ff 	andi	s1,s1,0xff
    45d0:	00451024 	and	v0,v0,a1
    45d4:	0c0010a2 	jal	0x4288
    45d8:	ae025188 	sw	v0,20872(s0)
    45dc:	9204518e 	lbu	a0,20878(s0)
    45e0:	0c001021 	jal	0x4084
    45e4:	324500ff 	andi	a1,s2,0xff
    45e8:	9204518e 	lbu	a0,20878(s0)
    45ec:	0c001037 	jal	0x40dc
    45f0:	00000000 	nop
    45f4:	38420001 	xori	v0,v0,0x1
    45f8:	24030004 	li	v1,4
    45fc:	0062880a 	.word	0x62880a
    4600:	a2710000 	sb	s1,0(s3)
    4604:	8fbf0020 	lw	ra,32(sp)
    4608:	8fb3001c 	lw	s3,28(sp)
    460c:	8fb20018 	lw	s2,24(sp)
    4610:	8fb10014 	lw	s1,20(sp)
    4614:	8fb00010 	lw	s0,16(sp)
    4618:	03e00008 	jr	ra
    461c:	27bd0028 	addiu	sp,sp,40
    4620:	3084ffff 	andi	a0,a0,0xffff
    4624:	30820200 	andi	v0,a0,0x200
    4628:	24030007 	li	v1,7
    462c:	1440000d 	bnez	v0,0x4664
    4630:	3084000b 	andi	a0,a0,0xb
    4634:	2c82000c 	sltiu	v0,a0,12
    4638:	1040000a 	beqz	v0,0x4664
    463c:	00000000 	nop
    4640:	3c038002 	lui	v1,0x8002
    4644:	00041080 	sll	v0,a0,0x2
    4648:	2463a80c 	addiu	v1,v1,-22516
    464c:	00431021 	addu	v0,v0,v1
    4650:	8c440000 	lw	a0,0(v0)
    4654:	00000000 	nop
    4658:	00800008 	jr	a0
    465c:	00000000 	nop
    4660:	24030007 	li	v1,7
    4664:	03e00008 	jr	ra
    4668:	00601021 	move	v0,v1
    466c:	24030006 	li	v1,6
    4670:	03e00008 	jr	ra
    4674:	00601021 	move	v0,v1
    4678:	24030005 	li	v1,5
    467c:	03e00008 	jr	ra
    4680:	00601021 	move	v0,v1
    4684:	24030004 	li	v1,4
    4688:	03e00008 	jr	ra
    468c:	00601021 	move	v0,v1
    4690:	24030003 	li	v1,3
    4694:	03e00008 	jr	ra
    4698:	00601021 	move	v0,v1
    469c:	24030002 	li	v1,2
    46a0:	03e00008 	jr	ra
    46a4:	00601021 	move	v0,v1
    46a8:	24030001 	li	v1,1
    46ac:	03e00008 	jr	ra
    46b0:	00601021 	move	v0,v1
    46b4:	00001821 	move	v1,zero
    46b8:	03e00008 	jr	ra
    46bc:	00601021 	move	v0,v1
    46c0:	27bdff88 	addiu	sp,sp,-120
    46c4:	3c028002 	lui	v0,0x8002
    46c8:	afbe0070 	sw	s8,112(sp)
    46cc:	afb7006c 	sw	s7,108(sp)
    46d0:	afb60068 	sw	s6,104(sp)
    46d4:	afb50064 	sw	s5,100(sp)
    46d8:	afb3005c 	sw	s3,92(sp)
    46dc:	afb20058 	sw	s2,88(sp)
    46e0:	afbf0074 	sw	ra,116(sp)
    46e4:	afb40060 	sw	s4,96(sp)
    46e8:	afb10054 	sw	s1,84(sp)
    46ec:	afb00050 	sw	s0,80(sp)
    46f0:	2442a83c 	addiu	v0,v0,-22468
    46f4:	8c540000 	lw	s4,0(v0)
    46f8:	24030008 	li	v1,8
    46fc:	3c0b8002 	lui	t3,0x8002
    4700:	00009821 	move	s3,zero
    4704:	0000a821 	move	s5,zero
    4708:	0000b821 	move	s7,zero
    470c:	0000f021 	move	s8,zero
    4710:	0000b021 	move	s6,zero
    4714:	02809021 	move	s2,s4
    4718:	afa30010 	sw	v1,16(sp)
    471c:	afa00014 	sw	zero,20(sp)
    4720:	afa00018 	sw	zero,24(sp)
    4724:	afa0001c 	sw	zero,28(sp)
    4728:	afa00020 	sw	zero,32(sp)
    472c:	afa00024 	sw	zero,36(sp)
    4730:	afa00028 	sw	zero,40(sp)
    4734:	afa0002c 	sw	zero,44(sp)
    4738:	afa00030 	sw	zero,48(sp)
    473c:	afa00034 	sw	zero,52(sp)
    4740:	afa00038 	sw	zero,56(sp)
    4744:	afa0003c 	sw	zero,60(sp)
    4748:	afa00040 	sw	zero,64(sp)
    474c:	08001254 	j	0x4950
    4750:	afa00044 	sw	zero,68(sp)
    4754:	ae425158 	sw	v0,20824(s2)
    4758:	8e445174 	lw	a0,20852(s2)
    475c:	8e475170 	lw	a3,20848(s2)
    4760:	8e48515c 	lw	t0,20828(s2)
    4764:	8e455160 	lw	a1,20832(s2)
    4768:	8e465168 	lw	a2,20840(s2)
    476c:	8e43516c 	lw	v1,20844(s2)
    4770:	00e43821 	addu	a3,a3,a0
    4774:	3c048002 	lui	a0,0x8002
    4778:	24841568 	addiu	a0,a0,5480
    477c:	02241021 	addu	v0,s1,a0
    4780:	01054021 	addu	t0,t0,a1
    4784:	00c33021 	addu	a2,a2,v1
    4788:	904244d2 	lbu	v0,17618(v0)
    478c:	8e4a5158 	lw	t2,20824(s2)
    4790:	10e0000c 	beqz	a3,0x47c4
    4794:	00004821 	move	t1,zero
    4798:	0047482b 	sltu	t1,v0,a3
    479c:	1520000b 	bnez	t1,0x47cc
    47a0:	3c028002 	lui	v0,0x8002
    47a4:	2e220007 	sltiu	v0,s1,7
    47a8:	144001a3 	bnez	v0,0x4e38
    47ac:	000710c0 	sll	v0,a3,0x3
    47b0:	2402000c 	li	v0,12
    47b4:	1222019f 	beq	s1,v0,0x4e34
    47b8:	2402000d 	li	v0,13
    47bc:	1222019e 	beq	s1,v0,0x4e38
    47c0:	000710c0 	sll	v0,a3,0x3
    47c4:	11200093 	beqz	t1,0x4a14
    47c8:	3c028002 	lui	v0,0x8002
    47cc:	24421568 	addiu	v0,v0,5480
    47d0:	00111880 	sll	v1,s1,0x2
    47d4:	00621821 	addu	v1,v1,v0
    47d8:	02512021 	addu	a0,s2,s1
    47dc:	908551ca 	lbu	a1,20938(a0)
    47e0:	8c6244f4 	lw	v0,17652(v1)
    47e4:	00000000 	nop
    47e8:	00a21004 	sllv	v0,v0,a1
    47ec:	004a102b 	sltu	v0,v0,t2
    47f0:	10400088 	beqz	v0,0x4a14
    47f4:	00000000 	nop
    47f8:	8e4251e8 	lw	v0,20968(s2)
    47fc:	24070001 	li	a3,1
    4800:	02271804 	sllv	v1,a3,s1
    4804:	00431024 	and	v0,v0,v1
    4808:	10400110 	beqz	v0,0x4c4c
    480c:	2e22001c 	sltiu	v0,s1,28
    4810:	02512821 	addu	a1,s2,s1
    4814:	90a65190 	lbu	a2,20880(a1)
    4818:	90a251ca 	lbu	v0,20938(a1)
    481c:	2404000a 	li	a0,10
    4820:	30c300ff 	andi	v1,a2,0xff
    4824:	00442004 	sllv	a0,a0,v0
    4828:	0064182a 	slt	v1,v1,a0
    482c:	10600107 	beqz	v1,0x4c4c
    4830:	2e22001c 	sltiu	v0,s1,28
    4834:	24c20001 	addiu	v0,a2,1
    4838:	304300ff 	andi	v1,v0,0xff
    483c:	106401b7 	beq	v1,a0,0x4f1c
    4840:	a0a25190 	sb	v0,20880(a1)
    4844:	25651568 	addiu	a1,t3,5480
    4848:	00111080 	sll	v0,s1,0x2
    484c:	00451021 	addu	v0,v0,a1
    4850:	8c444568 	lw	a0,17768(v0)
    4854:	8c4344f4 	lw	v1,17652(v0)
    4858:	02c53021 	addu	a2,s6,a1
    485c:	00041040 	sll	v0,a0,0x1
    4860:	00441021 	addu	v0,v0,a0
    4864:	00621821 	addu	v1,v1,v0
    4868:	00035082 	srl	t2,v1,0x2
    486c:	acca5158 	sw	t2,20824(a2)
    4870:	8ca36620 	lw	v1,26144(a1)
    4874:	3402ffff 	li	v0,0xffff
    4878:	10620006 	beq	v1,v0,0x4894
    487c:	02202021 	move	a0,s1
    4880:	326500ff 	andi	a1,s3,0xff
    4884:	0c001021 	jal	0x4084
    4888:	afab0048 	sw	t3,72(sp)
    488c:	8fab0048 	lw	t3,72(sp)
    4890:	02202021 	move	a0,s1
    4894:	0c001037 	jal	0x40dc
    4898:	afab0048 	sw	t3,72(sp)
    489c:	8fa40010 	lw	a0,16(sp)
    48a0:	38420001 	xori	v0,v0,0x1
    48a4:	24030004 	li	v1,4
    48a8:	0062200a 	.word	0x62200a
    48ac:	afa40010 	sw	a0,16(sp)
    48b0:	8fab0048 	lw	t3,72(sp)
    48b4:	126000c7 	beqz	s3,0x4bd4
    48b8:	25701568 	addiu	s0,t3,5480
    48bc:	25621568 	addiu	v0,t3,5480
    48c0:	02a21021 	addu	v0,s5,v0
    48c4:	ac40516c 	sw	zero,20844(v0)
    48c8:	ac405170 	sw	zero,20848(v0)
    48cc:	ac405174 	sw	zero,20852(v0)
    48d0:	ac40515c 	sw	zero,20828(v0)
    48d4:	ac405160 	sw	zero,20832(v0)
    48d8:	ac405164 	sw	zero,20836(v0)
    48dc:	ac405168 	sw	zero,20840(v0)
    48e0:	8fa20044 	lw	v0,68(sp)
    48e4:	8fa40040 	lw	a0,64(sp)
    48e8:	26730001 	addiu	s3,s3,1
    48ec:	24420094 	addiu	v0,v0,148
    48f0:	afa20044 	sw	v0,68(sp)
    48f4:	8fa2003c 	lw	v0,60(sp)
    48f8:	24840094 	addiu	a0,a0,148
    48fc:	afa40040 	sw	a0,64(sp)
    4900:	24420094 	addiu	v0,v0,148
    4904:	8fa40038 	lw	a0,56(sp)
    4908:	afa2003c 	sw	v0,60(sp)
    490c:	8fa20034 	lw	v0,52(sp)
    4910:	24840094 	addiu	a0,a0,148
    4914:	afa40038 	sw	a0,56(sp)
    4918:	24420094 	addiu	v0,v0,148
    491c:	8fa40030 	lw	a0,48(sp)
    4920:	afa20034 	sw	v0,52(sp)
    4924:	8fa2002c 	lw	v0,44(sp)
    4928:	24840094 	addiu	a0,a0,148
    492c:	afa40030 	sw	a0,48(sp)
    4930:	24420094 	addiu	v0,v0,148
    4934:	8fa40028 	lw	a0,40(sp)
    4938:	afa2002c 	sw	v0,44(sp)
    493c:	8fa20024 	lw	v0,36(sp)
    4940:	24840094 	addiu	a0,a0,148
    4944:	afa40028 	sw	a0,40(sp)
    4948:	24420094 	addiu	v0,v0,148
    494c:	8fa40020 	lw	a0,32(sp)
    4950:	afa20024 	sw	v0,36(sp)
    4954:	8fa2001c 	lw	v0,28(sp)
    4958:	24840094 	addiu	a0,a0,148
    495c:	afa40020 	sw	a0,32(sp)
    4960:	24420094 	addiu	v0,v0,148
    4964:	8fa40018 	lw	a0,24(sp)
    4968:	afa2001c 	sw	v0,28(sp)
    496c:	8fa20014 	lw	v0,20(sp)
    4970:	24840094 	addiu	a0,a0,148
    4974:	2a630020 	slti	v1,s3,32
    4978:	24420094 	addiu	v0,v0,148
    497c:	26520094 	addiu	s2,s2,148
    4980:	26d60094 	addiu	s6,s6,148
    4984:	afa40018 	sw	a0,24(sp)
    4988:	27de0094 	addiu	s8,s8,148
    498c:	afa20014 	sw	v0,20(sp)
    4990:	26940094 	addiu	s4,s4,148
    4994:	26f70094 	addiu	s7,s7,148
    4998:	1060012e 	beqz	v1,0x4e54
    499c:	26b50094 	addiu	s5,s5,148
    49a0:	8e42518c 	lw	v0,20876(s2)
    49a4:	00000000 	nop
    49a8:	00021302 	srl	v0,v0,0xc
    49ac:	30420001 	andi	v0,v0,0x1
    49b0:	1040ffc2 	beqz	v0,0x48bc
    49b4:	3c02b025 	lui	v0,0xb025
    49b8:	02621021 	addu	v0,s3,v0
    49bc:	90440160 	lbu	a0,352(v0)
    49c0:	8e435174 	lw	v1,20852(s2)
    49c4:	8e465170 	lw	a2,20848(s2)
    49c8:	309100ff 	andi	s1,a0,0xff
    49cc:	3c048002 	lui	a0,0x8002
    49d0:	24841568 	addiu	a0,a0,5480
    49d4:	02241021 	addu	v0,s1,a0
    49d8:	9044447b 	lbu	a0,17531(v0)
    49dc:	9045445e 	lbu	a1,17502(v0)
    49e0:	8e475158 	lw	a3,20824(s2)
    49e4:	00640018 	mult	v1,a0
    49e8:	00001812 	mflo	v1
	...
    49f4:	00c50018 	mult	a2,a1
    49f8:	00003012 	mflo	a2
    49fc:	00c33021 	addu	a2,a2,v1
    4a00:	00e6102b 	sltu	v0,a3,a2
    4a04:	1040ff53 	beqz	v0,0x4754
    4a08:	00e61023 	subu	v0,a3,a2
    4a0c:	080011c2 	j	0x4708
    4a10:	ae405158 	sw	zero,20824(s2)
    4a14:	10e00081 	beqz	a3,0x4c1c
    4a18:	00000000 	nop
    4a1c:	15200082 	bnez	t1,0x4c28
    4a20:	25621568 	addiu	v0,t3,5480
    4a24:	00071040 	sll	v0,a3,0x1
    4a28:	00471021 	addu	v0,v0,a3
    4a2c:	00021082 	srl	v0,v0,0x2
    4a30:	0046102b 	sltu	v0,v0,a2
    4a34:	1040ff97 	beqz	v0,0x4894
    4a38:	02202021 	move	a0,s1
    4a3c:	8fa20020 	lw	v0,32(sp)
    4a40:	25681568 	addiu	t0,t3,5480
    4a44:	24050001 	li	a1,1
    4a48:	00482021 	addu	a0,v0,t0
    4a4c:	00913021 	addu	a2,a0,s1
    4a50:	8c8351e8 	lw	v1,20968(a0)
    4a54:	02251004 	sllv	v0,a1,s1
    4a58:	90c751ad 	lbu	a3,20909(a2)
    4a5c:	00021027 	nor	v0,zero,v0
    4a60:	00621824 	and	v1,v1,v0
    4a64:	ac8351e8 	sw	v1,20968(a0)
    4a68:	10e50009 	beq	a3,a1,0x4a90
    4a6c:	a0c05190 	sb	zero,20880(a2)
    4a70:	8fa3001c 	lw	v1,28(sp)
    4a74:	00003821 	move	a3,zero
    4a78:	00682021 	addu	a0,v1,t0
    4a7c:	00871821 	addu	v1,a0,a3
    4a80:	24e70001 	addiu	a3,a3,1
    4a84:	28e2001d 	slti	v0,a3,29
    4a88:	1440fffc 	bnez	v0,0x4a7c
    4a8c:	a06051ca 	sb	zero,20938(v1)
    4a90:	8fa40018 	lw	a0,24(sp)
    4a94:	25631568 	addiu	v1,t3,5480
    4a98:	00605021 	move	t2,v1
    4a9c:	00831021 	addu	v0,a0,v1
    4aa0:	00511021 	addu	v0,v0,s1
    4aa4:	a04051ad 	sb	zero,20909(v0)
    4aa8:	3c038002 	lui	v1,0x8002
    4aac:	3c028002 	lui	v0,0x8002
    4ab0:	2449a750 	addiu	t1,v0,-22704
    4ab4:	2468a6dc 	addiu	t0,v1,-22820
    4ab8:	00003821 	move	a3,zero
    4abc:	00071880 	sll	v1,a3,0x2
    4ac0:	00691021 	addu	v0,v1,t1
    4ac4:	00682021 	addu	a0,v1,t0
    4ac8:	8c460000 	lw	a2,0(v0)
    4acc:	8c850000 	lw	a1,0(a0)
    4ad0:	24e70001 	addiu	a3,a3,1
    4ad4:	006a1821 	addu	v1,v1,t2
    4ad8:	28e2001d 	slti	v0,a3,29
    4adc:	ac6544f4 	sw	a1,17652(v1)
    4ae0:	1440fff6 	bnez	v0,0x4abc
    4ae4:	ac664568 	sw	a2,17768(v1)
    4ae8:	12200014 	beqz	s1,0x4b3c
    4aec:	3c058002 	lui	a1,0x8002
    4af0:	9282518f 	lbu	v0,20879(s4)
    4af4:	2627ffff 	addiu	a3,s1,-1
    4af8:	00e2102a 	slt	v0,a3,v0
    4afc:	1440000f 	bnez	v0,0x4b3c
    4b00:	3c0b8002 	lui	t3,0x8002
    4b04:	25621568 	addiu	v0,t3,5480
    4b08:	03c21021 	addu	v0,s8,v0
    4b0c:	9045518f 	lbu	a1,20879(v0)
    4b10:	8c445188 	lw	a0,20872(v0)
    4b14:	24060001 	li	a2,1
    4b18:	00e61804 	sllv	v1,a2,a3
    4b1c:	00831024 	and	v0,a0,v1
    4b20:	10430123 	beq	v0,v1,0x4fb0
    4b24:	00000000 	nop
    4b28:	24e7ffff 	addiu	a3,a3,-1
    4b2c:	00e5102a 	slt	v0,a3,a1
    4b30:	1040fffa 	beqz	v0,0x4b1c
    4b34:	00e61804 	sllv	v1,a2,a3
    4b38:	3c058002 	lui	a1,0x8002
    4b3c:	90a37e26 	lbu	v1,32294(a1)
    4b40:	24020022 	li	v0,34
    4b44:	10620104 	beq	v1,v0,0x4f58
    4b48:	25621568 	addiu	v0,t3,5480
    4b4c:	25631568 	addiu	v1,t3,5480
    4b50:	00111080 	sll	v0,s1,0x2
    4b54:	00431021 	addu	v0,v0,v1
    4b58:	8c444568 	lw	a0,17768(v0)
    4b5c:	8c4344f4 	lw	v1,17652(v0)
    4b60:	90a57e26 	lbu	a1,32294(a1)
    4b64:	00041040 	sll	v0,a0,0x1
    4b68:	00441021 	addu	v0,v0,a0
    4b6c:	00621821 	addu	v1,v1,v0
    4b70:	24020022 	li	v0,34
    4b74:	10a200f3 	beq	a1,v0,0x4f44
    4b78:	00035082 	srl	t2,v1,0x2
    4b7c:	8e8351e8 	lw	v1,20968(s4)
    4b80:	24020001 	li	v0,1
    4b84:	02221004 	sllv	v0,v0,s1
    4b88:	00621825 	or	v1,v1,v0
    4b8c:	ae8351e8 	sw	v1,20968(s4)
    4b90:	25631568 	addiu	v1,t3,5480
    4b94:	02e31021 	addu	v0,s7,v1
    4b98:	ac4a5158 	sw	t2,20824(v0)
    4b9c:	8c646620 	lw	a0,26144(v1)
    4ba0:	3402ffff 	li	v0,0xffff
    4ba4:	1482ff36 	bne	a0,v0,0x4880
    4ba8:	02202021 	move	a0,s1
    4bac:	0c001037 	jal	0x40dc
    4bb0:	afab0048 	sw	t3,72(sp)
    4bb4:	8fa40010 	lw	a0,16(sp)
    4bb8:	38420001 	xori	v0,v0,0x1
    4bbc:	24030004 	li	v1,4
    4bc0:	0062200a 	.word	0x62200a
    4bc4:	afa40010 	sw	a0,16(sp)
    4bc8:	8fab0048 	lw	t3,72(sp)
    4bcc:	1660ff3b 	bnez	s3,0x48bc
    4bd0:	25701568 	addiu	s0,t3,5480
    4bd4:	96055160 	lhu	a1,20832(s0)
    4bd8:	9602515c 	lhu	v0,20828(s0)
    4bdc:	3c11b025 	lui	s1,0xb025
    4be0:	00052c00 	sll	a1,a1,0x10
    4be4:	00452821 	addu	a1,v0,a1
    4be8:	0c005197 	jal	0x1465c
    4bec:	36240c68 	ori	a0,s1,0xc68
    4bf0:	8e02516c 	lw	v0,20844(s0)
    4bf4:	8e055168 	lw	a1,20840(s0)
    4bf8:	96035164 	lhu	v1,20836(s0)
    4bfc:	36240c6c 	ori	a0,s1,0xc6c
    4c00:	00a22821 	addu	a1,a1,v0
    4c04:	00052c00 	sll	a1,a1,0x10
    4c08:	0c005197 	jal	0x1465c
    4c0c:	00652821 	addu	a1,v1,a1
    4c10:	8fab0048 	lw	t3,72(sp)
    4c14:	0800121c 	j	0x4870
    4c18:	25621568 	addiu	v0,t3,5480
    4c1c:	1120ff1d 	beqz	t1,0x4894
    4c20:	02202021 	move	a0,s1
    4c24:	25621568 	addiu	v0,t3,5480
    4c28:	00111880 	sll	v1,s1,0x2
    4c2c:	00621821 	addu	v1,v1,v0
    4c30:	8c644568 	lw	a0,17768(v1)
    4c34:	00000000 	nop
    4c38:	0144202b 	sltu	a0,t2,a0
    4c3c:	1080ff15 	beqz	a0,0x4894
    4c40:	02202021 	move	a0,s1
    4c44:	0800127b 	j	0x49ec
    4c48:	00000000 	nop
    4c4c:	1040fefe 	beqz	v0,0x4848
    4c50:	25651568 	addiu	a1,t3,5480
    4c54:	02512021 	addu	a0,s2,s1
    4c58:	908351ad 	lbu	v1,20909(a0)
    4c5c:	24020001 	li	v0,1
    4c60:	1062008d 	beq	v1,v0,0x4e98
    4c64:	3c028002 	lui	v0,0x8002
    4c68:	8fa30044 	lw	v1,68(sp)
    4c6c:	24421568 	addiu	v0,v0,5480
    4c70:	00622021 	addu	a0,v1,v0
    4c74:	00003821 	move	a3,zero
    4c78:	00871821 	addu	v1,a0,a3
    4c7c:	24e70001 	addiu	a3,a3,1
    4c80:	28e2001d 	slti	v0,a3,29
    4c84:	1440fffc 	bnez	v0,0x4c78
    4c88:	a06051ca 	sb	zero,20938(v1)
    4c8c:	8fa40040 	lw	a0,64(sp)
    4c90:	3c0b8002 	lui	t3,0x8002
    4c94:	25651568 	addiu	a1,t3,5480
    4c98:	00853021 	addu	a2,a0,a1
    4c9c:	8cc251e8 	lw	v0,20968(a2)
    4ca0:	24030001 	li	v1,1
    4ca4:	02231804 	sllv	v1,v1,s1
    4ca8:	00031827 	nor	v1,zero,v1
    4cac:	00d12021 	addu	a0,a2,s1
    4cb0:	00431024 	and	v0,v0,v1
    4cb4:	a08051ad 	sb	zero,20909(a0)
    4cb8:	acc251e8 	sw	v0,20968(a2)
    4cbc:	16200012 	bnez	s1,0x4d08
    4cc0:	a0805190 	sb	zero,20880(a0)
    4cc4:	90c2518e 	lbu	v0,20878(a2)
    4cc8:	00000000 	nop
    4ccc:	1040000e 	beqz	v0,0x4d08
    4cd0:	24070001 	li	a3,1
    4cd4:	8fa3003c 	lw	v1,60(sp)
    4cd8:	24060001 	li	a2,1
    4cdc:	00651021 	addu	v0,v1,a1
    4ce0:	9044518e 	lbu	a0,20878(v0)
    4ce4:	8c455188 	lw	a1,20872(v0)
    4ce8:	00e61804 	sllv	v1,a2,a3
    4cec:	00a31024 	and	v0,a1,v1
    4cf0:	104300ad 	beq	v0,v1,0x4fa8
    4cf4:	00000000 	nop
    4cf8:	24e70001 	addiu	a3,a3,1
    4cfc:	0087102a 	slt	v0,a0,a3
    4d00:	1040fffa 	beqz	v0,0x4cec
    4d04:	00e61804 	sllv	v1,a2,a3
    4d08:	8fa20038 	lw	v0,56(sp)
    4d0c:	3c0b8002 	lui	t3,0x8002
    4d10:	25641568 	addiu	a0,t3,5480
    4d14:	00441821 	addu	v1,v0,a0
    4d18:	9062518e 	lbu	v0,20878(v1)
    4d1c:	26270001 	addiu	a3,s1,1
    4d20:	0047102a 	slt	v0,v0,a3
    4d24:	1440000f 	bnez	v0,0x4d64
    4d28:	3c058002 	lui	a1,0x8002
    4d2c:	8fa30034 	lw	v1,52(sp)
    4d30:	24060001 	li	a2,1
    4d34:	00641021 	addu	v0,v1,a0
    4d38:	9045518e 	lbu	a1,20878(v0)
    4d3c:	8c445188 	lw	a0,20872(v0)
    4d40:	00e61804 	sllv	v1,a2,a3
    4d44:	00831024 	and	v0,a0,v1
    4d48:	10430094 	beq	v0,v1,0x4f9c
    4d4c:	00000000 	nop
    4d50:	24e70001 	addiu	a3,a3,1
    4d54:	00a7102a 	slt	v0,a1,a3
    4d58:	1040fffa 	beqz	v0,0x4d44
    4d5c:	00e61804 	sllv	v1,a2,a3
    4d60:	3c058002 	lui	a1,0x8002
    4d64:	90a37e26 	lbu	v1,32294(a1)
    4d68:	24020022 	li	v0,34
    4d6c:	1062005e 	beq	v1,v0,0x4ee8
    4d70:	2622ffee 	addiu	v0,s1,-18
    4d74:	90a37e26 	lbu	v1,32294(a1)
    4d78:	24020022 	li	v0,34
    4d7c:	10620050 	beq	v1,v0,0x4ec0
    4d80:	24020011 	li	v0,17
    4d84:	90a37e26 	lbu	v1,32294(a1)
    4d88:	24020022 	li	v0,34
    4d8c:	1462feae 	bne	v1,v0,0x4848
    4d90:	25651568 	addiu	a1,t3,5480
    4d94:	8fa20028 	lw	v0,40(sp)
    4d98:	3c0b8002 	lui	t3,0x8002
    4d9c:	25661568 	addiu	a2,t3,5480
    4da0:	00462021 	addu	a0,v0,a2
    4da4:	8c85518c 	lw	a1,20876(a0)
    4da8:	24030001 	li	v1,1
    4dac:	00051342 	srl	v0,a1,0xd
    4db0:	30420007 	andi	v0,v0,0x7
    4db4:	1043fea3 	beq	v0,v1,0x4844
    4db8:	2e220014 	sltiu	v0,s1,20
    4dbc:	1440fea1 	bnez	v0,0x4844
    4dc0:	2e22001c 	sltiu	v0,s1,28
    4dc4:	1040fe9f 	beqz	v0,0x4844
    4dc8:	3c02ffff 	lui	v0,0xffff
    4dcc:	34421fff 	ori	v0,v0,0x1fff
    4dd0:	00a21024 	and	v0,a1,v0
    4dd4:	34422000 	ori	v0,v0,0x2000
    4dd8:	ac82518c 	sw	v0,20876(a0)
    4ddc:	9083518f 	lbu	v1,20879(a0)
    4de0:	2627ffff 	addiu	a3,s1,-1
    4de4:	00e3182a 	slt	v1,a3,v1
    4de8:	1460fe96 	bnez	v1,0x4844
    4dec:	00000000 	nop
    4df0:	8fa30024 	lw	v1,36(sp)
    4df4:	00000000 	nop
    4df8:	00661021 	addu	v0,v1,a2
    4dfc:	9045518f 	lbu	a1,20879(v0)
    4e00:	8c445188 	lw	a0,20872(v0)
    4e04:	08001372 	j	0x4dc8
    4e08:	24060001 	li	a2,1
    4e0c:	00e5102a 	slt	v0,a3,a1
    4e10:	1440fe8c 	bnez	v0,0x4844
    4e14:	00000000 	nop
    4e18:	00e61804 	sllv	v1,a2,a3
    4e1c:	00831024 	and	v0,a0,v1
    4e20:	1443fffa 	bne	v0,v1,0x4e0c
    4e24:	24e7ffff 	addiu	a3,a3,-1
    4e28:	24e70001 	addiu	a3,a3,1
    4e2c:	080011fd 	j	0x47f4
    4e30:	30f100ff 	andi	s1,a3,0xff
    4e34:	000710c0 	sll	v0,a3,0x3
    4e38:	00471023 	subu	v0,v0,a3
    4e3c:	000210c2 	srl	v0,v0,0x3
    4e40:	0048102b 	sltu	v0,v0,t0
    4e44:	1440fe6c 	bnez	v0,0x47f8
    4e48:	00000000 	nop
    4e4c:	080011dd 	j	0x4774
    4e50:	00000000 	nop
    4e54:	8fa30010 	lw	v1,16(sp)
    4e58:	8fbf0074 	lw	ra,116(sp)
    4e5c:	8fbe0070 	lw	s8,112(sp)
    4e60:	8fb7006c 	lw	s7,108(sp)
    4e64:	8fb60068 	lw	s6,104(sp)
    4e68:	8fb50064 	lw	s5,100(sp)
    4e6c:	8fb40060 	lw	s4,96(sp)
    4e70:	8fb3005c 	lw	s3,92(sp)
    4e74:	8fb20058 	lw	s2,88(sp)
    4e78:	8fb10054 	lw	s1,84(sp)
    4e7c:	8fb00050 	lw	s0,80(sp)
    4e80:	3c02b025 	lui	v0,0xb025
    4e84:	34420180 	ori	v0,v0,0x180
    4e88:	27bd0078 	addiu	sp,sp,120
    4e8c:	a0430000 	sb	v1,0(v0)
    4e90:	03e00008 	jr	ra
    4e94:	00000000 	nop
    4e98:	2e220018 	sltiu	v0,s1,24
    4e9c:	14400021 	bnez	v0,0x4f24
    4ea0:	2e220005 	sltiu	v0,s1,5
    4ea4:	908351ca 	lbu	v1,20938(a0)
    4ea8:	00000000 	nop
    4eac:	2c620005 	sltiu	v0,v1,5
    4eb0:	1040ff76 	beqz	v0,0x4c8c
    4eb4:	24620001 	addiu	v0,v1,1
    4eb8:	0800130f 	j	0x4c3c
    4ebc:	a08251ca 	sb	v0,20938(a0)
    4ec0:	1622ffb0 	bne	s1,v0,0x4d84
    4ec4:	25621568 	addiu	v0,t3,5480
    4ec8:	8fa3002c 	lw	v1,44(sp)
    4ecc:	3c040080 	lui	a0,0x80
    4ed0:	00621021 	addu	v0,v1,v0
    4ed4:	8c435188 	lw	v1,20872(v0)
    4ed8:	24020017 	li	v0,23
    4edc:	00641824 	and	v1,v1,a0
    4ee0:	0800134d 	j	0x4d34
    4ee4:	0043880b 	.word	0x43880b
    4ee8:	304200ff 	andi	v0,v0,0xff
    4eec:	2c420002 	sltiu	v0,v0,2
    4ef0:	1040ffa0 	beqz	v0,0x4d74
    4ef4:	25621568 	addiu	v0,t3,5480
    4ef8:	8fa40030 	lw	a0,48(sp)
    4efc:	00000000 	nop
    4f00:	00821021 	addu	v0,a0,v0
    4f04:	8c435188 	lw	v1,20872(v0)
    4f08:	3c040100 	lui	a0,0x100
    4f0c:	24020018 	li	v0,24
    4f10:	00641824 	and	v1,v1,a0
    4f14:	08001349 	j	0x4d24
    4f18:	0043880b 	.word	0x43880b
    4f1c:	080011fd 	j	0x47f4
    4f20:	a0a751ad 	sb	a3,20909(a1)
    4f24:	10400004 	beqz	v0,0x4f38
    4f28:	00000000 	nop
    4f2c:	908351ca 	lbu	v1,20938(a0)
    4f30:	08001398 	j	0x4e60
    4f34:	2c620002 	sltiu	v0,v1,2
    4f38:	908351ca 	lbu	v1,20938(a0)
    4f3c:	08001398 	j	0x4e60
    4f40:	2c620003 	sltiu	v0,v1,3
    4f44:	24020013 	li	v0,19
    4f48:	1622ff0c 	bne	s1,v0,0x4b7c
    4f4c:	25631568 	addiu	v1,t3,5480
    4f50:	080012d2 	j	0x4b48
    4f54:	02e31021 	addu	v0,s7,v1
    4f58:	8fa30014 	lw	v1,20(sp)
    4f5c:	00000000 	nop
    4f60:	00622021 	addu	a0,v1,v0
    4f64:	8c83518c 	lw	v1,20876(a0)
    4f68:	00000000 	nop
    4f6c:	00031342 	srl	v0,v1,0xd
    4f70:	30420007 	andi	v0,v0,0x7
    4f74:	1040fef5 	beqz	v0,0x4b4c
    4f78:	2e220014 	sltiu	v0,s1,20
    4f7c:	1040fef3 	beqz	v0,0x4b4c
    4f80:	2e22000c 	sltiu	v0,s1,12
    4f84:	1440fef1 	bnez	v0,0x4b4c
    4f88:	3c02ffff 	lui	v0,0xffff
    4f8c:	34421fff 	ori	v0,v0,0x1fff
    4f90:	00621024 	and	v0,v1,v0
    4f94:	080012bf 	j	0x4afc
    4f98:	ac82518c 	sw	v0,20876(a0)
    4f9c:	30f100ff 	andi	s1,a3,0xff
    4fa0:	08001345 	j	0x4d14
    4fa4:	3c058002 	lui	a1,0x8002
    4fa8:	0800132e 	j	0x4cb8
    4fac:	30f100ff 	andi	s1,a3,0xff
    4fb0:	080012ba 	j	0x4ae8
    4fb4:	30f100ff 	andi	s1,a3,0xff
    4fb8:	27bdffa8 	addiu	sp,sp,-88
    4fbc:	3c028002 	lui	v0,0x8002
    4fc0:	afb20038 	sw	s2,56(sp)
    4fc4:	afbf0054 	sw	ra,84(sp)
    4fc8:	afbe0050 	sw	s8,80(sp)
    4fcc:	afb7004c 	sw	s7,76(sp)
    4fd0:	afb60048 	sw	s6,72(sp)
    4fd4:	afb50044 	sw	s5,68(sp)
    4fd8:	afb40040 	sw	s4,64(sp)
    4fdc:	afb3003c 	sw	s3,60(sp)
    4fe0:	afb10034 	sw	s1,52(sp)
    4fe4:	afb00030 	sw	s0,48(sp)
    4fe8:	24461568 	addiu	a2,v0,5480
    4fec:	90c46599 	lbu	a0,26009(a2)
    4ff0:	8cc36594 	lw	v1,26004(a2)
    4ff4:	8cc26590 	lw	v0,26000(a2)
    4ff8:	00649021 	addu	s2,v1,a0
    4ffc:	0242102b 	sltu	v0,s2,v0
    5000:	1040007e 	beqz	v0,0x51fc
    5004:	00c08821 	move	s1,a2
    5008:	3c1e8002 	lui	s8,0x8002
    500c:	3c178002 	lui	s7,0x8002
    5010:	00c0a821 	move	s5,a2
    5014:	00c0b021 	move	s6,a2
    5018:	080013f9 	j	0x4fe4
    501c:	24140001 	li	s4,1
    5020:	8ec26590 	lw	v0,26000(s6)
    5024:	26520010 	addiu	s2,s2,16
    5028:	0242102b 	sltu	v0,s2,v0
    502c:	10400073 	beqz	v0,0x51fc
    5030:	02c08821 	move	s1,s6
    5034:	92226599 	lbu	v0,26009(s1)
    5038:	3245ffff 	andi	a1,s2,0xffff
    503c:	00b72825 	or	a1,a1,s7
    5040:	24420010 	addiu	v0,v0,16
    5044:	a2226599 	sb	v0,26009(s1)
    5048:	27c47940 	addiu	a0,s8,31040
    504c:	0c004560 	jal	0x11580
    5050:	24060010 	li	a2,16
    5054:	8e23640c 	lw	v1,25612(s1)
    5058:	00000000 	nop
    505c:	00031842 	srl	v1,v1,0x1
    5060:	30630001 	andi	v1,v1,0x1
    5064:	10740071 	beq	v1,s4,0x522c
    5068:	3c038002 	lui	v1,0x8002
    506c:	24631568 	addiu	v1,v1,5480
    5070:	8c6263dc 	lw	v0,25564(v1)
    5074:	00000000 	nop
    5078:	00028442 	srl	s0,v0,0x11
    507c:	3210001f 	andi	s0,s0,0x1f
    5080:	001048c0 	sll	t1,s0,0x3
    5084:	01301021 	addu	v0,t1,s0
    5088:	00021080 	sll	v0,v0,0x2
    508c:	00501021 	addu	v0,v0,s0
    5090:	00021080 	sll	v0,v0,0x2
    5094:	00551021 	addu	v0,v0,s5
    5098:	8c45518c 	lw	a1,20876(v0)
    509c:	00000000 	nop
    50a0:	00051b02 	srl	v1,a1,0xc
    50a4:	30630001 	andi	v1,v1,0x1
    50a8:	1060ffdd 	beqz	v1,0x5020
    50ac:	02a03021 	move	a2,s5
    50b0:	3c02b025 	lui	v0,0xb025
    50b4:	02024021 	addu	t0,s0,v0
    50b8:	8ea763d8 	lw	a3,25560(s5)
    50bc:	8ea2640c 	lw	v0,25612(s5)
    50c0:	91030160 	lbu	v1,352(t0)
    50c4:	00072582 	srl	a0,a3,0x16
    50c8:	30420001 	andi	v0,v0,0x1
    50cc:	306b00ff 	andi	t3,v1,0xff
    50d0:	1054009a 	beq	v0,s4,0x533c
    50d4:	308a003f 	andi	t2,a0,0x3f
    50d8:	3c048002 	lui	a0,0x8002
    50dc:	2484a840 	addiu	a0,a0,-22464
    50e0:	8c860000 	lw	a2,0(a0)
    50e4:	24040004 	li	a0,4
    50e8:	8cc363d8 	lw	v1,25560(a2)
    50ec:	00000000 	nop
    50f0:	00031582 	srl	v0,v1,0x16
    50f4:	3042003f 	andi	v0,v0,0x3f
    50f8:	28420005 	slti	v0,v0,5
    50fc:	0460000a 	bltz	v1,0x5128
    5100:	0082500a 	.word	0x82500a
    5104:	01301021 	addu	v0,t1,s0
    5108:	00021080 	sll	v0,v0,0x2
    510c:	00501021 	addu	v0,v0,s0
    5110:	00021080 	sll	v0,v0,0x2
    5114:	00461021 	addu	v0,v0,a2
    5118:	8c435178 	lw	v1,20856(v0)
    511c:	240a0004 	li	t2,4
    5120:	24630001 	addiu	v1,v1,1
    5124:	ac435178 	sw	v1,20856(v0)
    5128:	8cc263dc 	lw	v0,25564(a2)
    512c:	00000000 	nop
    5130:	00021302 	srl	v0,v0,0xc
    5134:	3042001f 	andi	v0,v0,0x1f
    5138:	28420008 	slti	v0,v0,8
    513c:	1040ffb8 	beqz	v0,0x5020
    5140:	00000000 	nop
    5144:	8cc263d8 	lw	v0,25560(a2)
    5148:	00000000 	nop
    514c:	3042003f 	andi	v0,v0,0x3f
    5150:	144bffb3 	bne	v0,t3,0x5020
    5154:	00000000 	nop
    5158:	1140009f 	beqz	t2,0x53d8
    515c:	01301021 	addu	v0,t1,s0
    5160:	115400a8 	beq	t2,s4,0x5404
    5164:	00021080 	sll	v0,v0,0x2
    5168:	24020002 	li	v0,2
    516c:	114200b0 	beq	t2,v0,0x5430
    5170:	01301021 	addu	v0,t1,s0
    5174:	24020003 	li	v0,3
    5178:	114200b8 	beq	t2,v0,0x545c
    517c:	01301021 	addu	v0,t1,s0
    5180:	114400c0 	beq	t2,a0,0x5484
    5184:	01301021 	addu	v0,t1,s0
    5188:	01301021 	addu	v0,t1,s0
    518c:	00021080 	sll	v0,v0,0x2
    5190:	00501021 	addu	v0,v0,s0
    5194:	00021080 	sll	v0,v0,0x2
    5198:	00462821 	addu	a1,v0,a2
    519c:	8ca3517c 	lw	v1,20860(a1)
    51a0:	01661021 	addu	v0,t3,a2
    51a4:	90444498 	lbu	a0,17560(v0)
    51a8:	00031902 	srl	v1,v1,0x4
    51ac:	0064182b 	sltu	v1,v1,a0
    51b0:	146000c8 	bnez	v1,0x54d4
    51b4:	00000000 	nop
    51b8:	8ca35170 	lw	v1,20848(a1)
    51bc:	000b1080 	sll	v0,t3,0x2
    51c0:	004b1021 	addu	v0,v0,t3
    51c4:	24630001 	addiu	v1,v1,1
    51c8:	00461021 	addu	v0,v0,a2
    51cc:	aca35170 	sw	v1,20848(a1)
    51d0:	004a1021 	addu	v0,v0,t2
    51d4:	9044433c 	lbu	a0,17212(v0)
    51d8:	8ca35158 	lw	v1,20824(a1)
    51dc:	00000000 	nop
    51e0:	00641821 	addu	v1,v1,a0
    51e4:	aca35158 	sw	v1,20824(a1)
    51e8:	8ec26590 	lw	v0,26000(s6)
    51ec:	26520010 	addiu	s2,s2,16
    51f0:	0242102b 	sltu	v0,s2,v0
    51f4:	1440ff8f 	bnez	v0,0x5034
    51f8:	02c08821 	move	s1,s6
    51fc:	8fbf0054 	lw	ra,84(sp)
    5200:	8fbe0050 	lw	s8,80(sp)
    5204:	8fb7004c 	lw	s7,76(sp)
    5208:	8fb60048 	lw	s6,72(sp)
    520c:	8fb50044 	lw	s5,68(sp)
    5210:	8fb40040 	lw	s4,64(sp)
    5214:	8fb3003c 	lw	s3,60(sp)
    5218:	8fb20038 	lw	s2,56(sp)
    521c:	8fb10034 	lw	s1,52(sp)
    5220:	8fb00030 	lw	s0,48(sp)
    5224:	03e00008 	jr	ra
    5228:	27bd0058 	addiu	sp,sp,88
    522c:	8e2263dc 	lw	v0,25564(s1)
    5230:	00000000 	nop
    5234:	00021442 	srl	v0,v0,0x11
    5238:	30430010 	andi	v1,v0,0x10
    523c:	1060ff90 	beqz	v1,0x5080
    5240:	3050000f 	andi	s0,v0,0xf
    5244:	0c005169 	jal	0x145a4
    5248:	24040048 	li	a0,72
    524c:	1040ff74 	beqz	v0,0x5020
    5250:	00409821 	move	s3,v0
    5254:	24020014 	li	v0,20
    5258:	24040028 	li	a0,40
    525c:	ae620014 	sw	v0,20(s3)
    5260:	ae64000c 	sw	a0,12(s3)
    5264:	8fa30014 	lw	v1,20(sp)
    5268:	2404ffe0 	li	a0,-32
    526c:	24070008 	li	a3,8
    5270:	34630080 	ori	v1,v1,0x80
    5274:	afa30014 	sw	v1,20(sp)
    5278:	8e2663dc 	lw	a2,25564(s1)
    527c:	00641824 	and	v1,v1,a0
    5280:	2404e0ff 	li	a0,-7937
    5284:	00061442 	srl	v0,a2,0x11
    5288:	3042001f 	andi	v0,v0,0x1f
    528c:	00621825 	or	v1,v1,v0
    5290:	afa30014 	sw	v1,20(sp)
    5294:	8e2563d8 	lw	a1,25560(s1)
    5298:	00641824 	and	v1,v1,a0
    529c:	00062302 	srl	a0,a2,0xc
    52a0:	00051382 	srl	v0,a1,0xe
    52a4:	30421f00 	andi	v0,v0,0x1f00
    52a8:	00621825 	or	v1,v1,v0
    52ac:	3c02ffff 	lui	v0,0xffff
    52b0:	34427fff 	ori	v0,v0,0x7fff
    52b4:	00052fc2 	srl	a1,a1,0x1f
    52b8:	00621824 	and	v1,v1,v0
    52bc:	00052bc0 	sll	a1,a1,0xf
    52c0:	3c02000f 	lui	v0,0xf
    52c4:	00651825 	or	v1,v1,a1
    52c8:	3442ffff 	ori	v0,v0,0xffff
    52cc:	00621824 	and	v1,v1,v0
    52d0:	00063500 	sll	a2,a2,0x14
    52d4:	3c02fff0 	lui	v0,0xfff0
    52d8:	00661825 	or	v1,v1,a2
    52dc:	3442ffff 	ori	v0,v0,0xffff
    52e0:	3084000f 	andi	a0,a0,0xf
    52e4:	00621824 	and	v1,v1,v0
    52e8:	00042400 	sll	a0,a0,0x10
    52ec:	00641825 	or	v1,v1,a0
    52f0:	3c048002 	lui	a0,0x8002
    52f4:	27a50010 	addiu	a1,sp,16
    52f8:	248479a0 	addiu	a0,a0,31136
    52fc:	24060002 	li	a2,2
    5300:	24020004 	li	v0,4
    5304:	a3a70011 	sb	a3,17(sp)
    5308:	afa30014 	sw	v1,20(sp)
    530c:	0c00456c 	jal	0x115b0
    5310:	a3a20010 	sb	v0,16(sp)
    5314:	96640008 	lhu	a0,8(s3)
    5318:	27a50010 	addiu	a1,sp,16
    531c:	24060002 	li	a2,2
    5320:	00972025 	or	a0,a0,s7
    5324:	0c00456c 	jal	0x115b0
    5328:	24840020 	addiu	a0,a0,32
    532c:	0c000830 	jal	0x20c0
    5330:	02602021 	move	a0,s3
    5334:	0800140d 	j	0x5034
    5338:	001048c0 	sll	t1,s0,0x3
    533c:	00051202 	srl	v0,a1,0x8
    5340:	30420001 	andi	v0,v0,0x1
    5344:	10540014 	beq	v0,s4,0x5398
    5348:	000510c2 	srl	v0,a1,0x3
    534c:	30420001 	andi	v0,v0,0x1
    5350:	10540076 	beq	v0,s4,0x552c
    5354:	00000000 	nop
    5358:	96a26418 	lhu	v0,25624(s5)
    535c:	91030160 	lbu	v1,352(t0)
    5360:	000727c2 	srl	a0,a3,0x1f
    5364:	01421021 	addu	v0,t2,v0
    5368:	a2a36434 	sb	v1,25652(s5)
    536c:	10800013 	beqz	a0,0x53bc
    5370:	a6a26418 	sh	v0,25624(s5)
    5374:	1494ff59 	bne	a0,s4,0x50dc
    5378:	3c048002 	lui	a0,0x8002
    537c:	96a26414 	lhu	v0,25620(s5)
    5380:	96a3641e 	lhu	v1,25630(s5)
    5384:	24420001 	addiu	v0,v0,1
    5388:	24630001 	addiu	v1,v1,1
    538c:	a6a26414 	sh	v0,25620(s5)
    5390:	08001423 	j	0x508c
    5394:	a6a3641e 	sh	v1,25630(s5)
    5398:	04e0005d 	bltz	a3,0x5510
    539c:	00000000 	nop
    53a0:	96a36416 	lhu	v1,25622(s5)
    53a4:	96a26422 	lhu	v0,25634(s5)
    53a8:	24630001 	addiu	v1,v1,1
    53ac:	24420001 	addiu	v0,v0,1
    53b0:	a6a26422 	sh	v0,25634(s5)
    53b4:	08001422 	j	0x5088
    53b8:	a4c36416 	sh	v1,25622(a2)
    53bc:	96a36416 	lhu	v1,25622(s5)
    53c0:	96a26424 	lhu	v0,25636(s5)
    53c4:	24630001 	addiu	v1,v1,1
    53c8:	24420001 	addiu	v0,v0,1
    53cc:	a6a26424 	sh	v0,25636(s5)
    53d0:	08001422 	j	0x5088
    53d4:	a4c36416 	sh	v1,25622(a2)
    53d8:	00021080 	sll	v0,v0,0x2
    53dc:	00501021 	addu	v0,v0,s0
    53e0:	00021080 	sll	v0,v0,0x2
    53e4:	00461021 	addu	v0,v0,a2
    53e8:	8c43515c 	lw	v1,20828(v0)
    53ec:	00000000 	nop
    53f0:	24630001 	addiu	v1,v1,1
    53f4:	1554ff5c 	bne	t2,s4,0x5168
    53f8:	ac43515c 	sw	v1,20828(v0)
    53fc:	01301021 	addu	v0,t1,s0
    5400:	00021080 	sll	v0,v0,0x2
    5404:	00501021 	addu	v0,v0,s0
    5408:	00021080 	sll	v0,v0,0x2
    540c:	00461021 	addu	v0,v0,a2
    5410:	8c435160 	lw	v1,20832(v0)
    5414:	00000000 	nop
    5418:	24630001 	addiu	v1,v1,1
    541c:	ac435160 	sw	v1,20832(v0)
    5420:	24020002 	li	v0,2
    5424:	1542ff54 	bne	t2,v0,0x5178
    5428:	24020003 	li	v0,3
    542c:	01301021 	addu	v0,t1,s0
    5430:	00021080 	sll	v0,v0,0x2
    5434:	00501021 	addu	v0,v0,s0
    5438:	00021080 	sll	v0,v0,0x2
    543c:	00461021 	addu	v0,v0,a2
    5440:	8c435164 	lw	v1,20836(v0)
    5444:	00000000 	nop
    5448:	24630001 	addiu	v1,v1,1
    544c:	ac435164 	sw	v1,20836(v0)
    5450:	24020003 	li	v0,3
    5454:	1542ff4a 	bne	t2,v0,0x5180
    5458:	01301021 	addu	v0,t1,s0
    545c:	00021080 	sll	v0,v0,0x2
    5460:	00501021 	addu	v0,v0,s0
    5464:	00021080 	sll	v0,v0,0x2
    5468:	00461021 	addu	v0,v0,a2
    546c:	8c435168 	lw	v1,20840(v0)
    5470:	00000000 	nop
    5474:	24630001 	addiu	v1,v1,1
    5478:	1544ff43 	bne	t2,a0,0x5188
    547c:	ac435168 	sw	v1,20840(v0)
    5480:	01301021 	addu	v0,t1,s0
    5484:	00021080 	sll	v0,v0,0x2
    5488:	00501021 	addu	v0,v0,s0
    548c:	00021080 	sll	v0,v0,0x2
    5490:	00461021 	addu	v0,v0,a2
    5494:	8c43516c 	lw	v1,20844(v0)
    5498:	00000000 	nop
    549c:	24630001 	addiu	v1,v1,1
    54a0:	ac43516c 	sw	v1,20844(v0)
    54a4:	01301021 	addu	v0,t1,s0
    54a8:	00021080 	sll	v0,v0,0x2
    54ac:	00501021 	addu	v0,v0,s0
    54b0:	00021080 	sll	v0,v0,0x2
    54b4:	00462821 	addu	a1,v0,a2
    54b8:	8ca3517c 	lw	v1,20860(a1)
    54bc:	01661021 	addu	v0,t3,a2
    54c0:	90444498 	lbu	a0,17560(v0)
    54c4:	00031902 	srl	v1,v1,0x4
    54c8:	0064182b 	sltu	v1,v1,a0
    54cc:	1060ff3a 	beqz	v1,0x51b8
    54d0:	00000000 	nop
    54d4:	8ca35174 	lw	v1,20852(a1)
    54d8:	000b1080 	sll	v0,t3,0x2
    54dc:	3c048002 	lui	a0,0x8002
    54e0:	24841568 	addiu	a0,a0,5480
    54e4:	004b1021 	addu	v0,v0,t3
    54e8:	24630001 	addiu	v1,v1,1
    54ec:	00441021 	addu	v0,v0,a0
    54f0:	aca35174 	sw	v1,20852(a1)
    54f4:	004a1021 	addu	v0,v0,t2
    54f8:	904443cd 	lbu	a0,17357(v0)
    54fc:	8ca35158 	lw	v1,20824(a1)
    5500:	00000000 	nop
    5504:	00641821 	addu	v1,v1,a0
    5508:	08001466 	j	0x5198
    550c:	aca35158 	sw	v1,20824(a1)
    5510:	96a36414 	lhu	v1,25620(s5)
    5514:	96a2641c 	lhu	v0,25628(s5)
    5518:	24630001 	addiu	v1,v1,1
    551c:	24420001 	addiu	v0,v0,1
    5520:	a6a2641c 	sh	v0,25628(s5)
    5524:	08001422 	j	0x5088
    5528:	a4c36414 	sh	v1,25620(a2)
    552c:	04e00008 	bltz	a3,0x5550
    5530:	00000000 	nop
    5534:	96a36416 	lhu	v1,25622(s5)
    5538:	96a26420 	lhu	v0,25632(s5)
    553c:	24630001 	addiu	v1,v1,1
    5540:	24420001 	addiu	v0,v0,1
    5544:	a6a26420 	sh	v0,25632(s5)
    5548:	08001422 	j	0x5088
    554c:	a4c36416 	sh	v1,25622(a2)
    5550:	96a36414 	lhu	v1,25620(s5)
    5554:	96a2641a 	lhu	v0,25626(s5)
    5558:	24630001 	addiu	v1,v1,1
    555c:	24420001 	addiu	v0,v0,1
    5560:	a6a2641a 	sh	v0,25626(s5)
    5564:	08001422 	j	0x5088
    5568:	a4c36414 	sh	v1,25620(a2)
    556c:	3c05b025 	lui	a1,0xb025
    5570:	34a2004c 	ori	v0,a1,0x4c
    5574:	3c078002 	lui	a3,0x8002
    5578:	90430000 	lbu	v1,0(v0)
    557c:	24e41568 	addiu	a0,a3,5480
    5580:	90824af5 	lbu	v0,19189(a0)
    5584:	30660003 	andi	a2,v1,0x3
    5588:	10460024 	beq	v0,a2,0x561c
    558c:	00000000 	nop
    5590:	14c00018 	bnez	a2,0x55f4
    5594:	3c03b025 	lui	v1,0xb025
    5598:	908242e6 	lbu	v0,17126(a0)
    559c:	00000000 	nop
    55a0:	14400015 	bnez	v0,0x55f8
    55a4:	34620058 	ori	v0,v1,0x58
    55a8:	2402001c 	li	v0,28
    55ac:	34a30c50 	ori	v1,a1,0xc50
    55b0:	a0620000 	sb	v0,0(v1)
    55b4:	00001021 	move	v0,zero
    55b8:	24420001 	addiu	v0,v0,1
    55bc:	304200ff 	andi	v0,v0,0xff
    55c0:	2c430006 	sltiu	v1,v0,6
    55c4:	1460fffd 	bnez	v1,0x55bc
    55c8:	24420001 	addiu	v0,v0,1
    55cc:	3c02b025 	lui	v0,0xb025
    55d0:	34420c58 	ori	v0,v0,0xc58
    55d4:	2403001c 	li	v1,28
    55d8:	a0430000 	sb	v1,0(v0)
    55dc:	00001021 	move	v0,zero
    55e0:	24420001 	addiu	v0,v0,1
    55e4:	304200ff 	andi	v0,v0,0xff
    55e8:	2c430006 	sltiu	v1,v0,6
    55ec:	1460fffc 	bnez	v1,0x55e0
    55f0:	3c03b025 	lui	v1,0xb025
    55f4:	34620058 	ori	v0,v1,0x58
    55f8:	8c450000 	lw	a1,0(v0)
    55fc:	3c04b029 	lui	a0,0xb029
    5600:	3463005c 	ori	v1,v1,0x5c
    5604:	ac850000 	sw	a1,0(a0)
    5608:	8c650000 	lw	a1,0(v1)
    560c:	24e21568 	addiu	v0,a3,5480
    5610:	34840004 	ori	a0,a0,0x4
    5614:	a0464af5 	sb	a2,19189(v0)
    5618:	ac850000 	sw	a1,0(a0)
    561c:	03e00008 	jr	ra
    5620:	00001021 	move	v0,zero
    5624:	27bdffd8 	addiu	sp,sp,-40
    5628:	3c02b025 	lui	v0,0xb025
    562c:	afb20018 	sw	s2,24(sp)
    5630:	afbf0024 	sw	ra,36(sp)
    5634:	afb40020 	sw	s4,32(sp)
    5638:	afb3001c 	sw	s3,28(sp)
    563c:	afb10014 	sw	s1,20(sp)
    5640:	afb00010 	sw	s0,16(sp)
    5644:	34460a2d 	ori	a2,v0,0xa2d
    5648:	34430da2 	ori	v1,v0,0xda2
    564c:	34440da4 	ori	a0,v0,0xda4
    5650:	34450da6 	ori	a1,v0,0xda6
    5654:	34420da8 	ori	v0,v0,0xda8
    5658:	94670000 	lhu	a3,0(v1)
    565c:	94880000 	lhu	t0,0(a0)
    5660:	94a90000 	lhu	t1,0(a1)
    5664:	94440000 	lhu	a0,0(v0)
    5668:	90c30000 	lbu	v1,0(a2)
    566c:	3c128002 	lui	s2,0x8002
    5670:	26421568 	addiu	v0,s2,5480
    5674:	34630040 	ori	v1,v1,0x40
    5678:	306300ff 	andi	v1,v1,0xff
    567c:	a44442de 	sh	a0,17118(v0)
    5680:	a0c30000 	sb	v1,0(a2)
    5684:	a44742d8 	sh	a3,17112(v0)
    5688:	a44842da 	sh	t0,17114(v0)
    568c:	a44942dc 	sh	t1,17116(v0)
    5690:	00001021 	move	v0,zero
    5694:	24420001 	addiu	v0,v0,1
    5698:	304200ff 	andi	v0,v0,0xff
    569c:	2c430006 	sltiu	v1,v0,6
    56a0:	1460fffd 	bnez	v1,0x5698
    56a4:	24420001 	addiu	v0,v0,1
    56a8:	3c07b025 	lui	a3,0xb025
    56ac:	34e20a5b 	ori	v0,a3,0xa5b
    56b0:	90440000 	lbu	a0,0(v0)
    56b4:	26461568 	addiu	a2,s2,5480
    56b8:	34e20a5c 	ori	v0,a3,0xa5c
    56bc:	90450000 	lbu	a1,0(v0)
    56c0:	94c342d8 	lhu	v1,17112(a2)
    56c4:	94c242da 	lhu	v0,17114(a2)
    56c8:	94c942dc 	lhu	t1,17116(a2)
    56cc:	94c842de 	lhu	t0,17118(a2)
    56d0:	308400ff 	andi	a0,a0,0xff
    56d4:	00621821 	addu	v1,v1,v0
    56d8:	00042200 	sll	a0,a0,0x8
    56dc:	30a500ff 	andi	a1,a1,0xff
    56e0:	00852021 	addu	a0,a0,a1
    56e4:	00691821 	addu	v1,v1,t1
    56e8:	3082ffff 	andi	v0,a0,0xffff
    56ec:	00681821 	addu	v1,v1,t0
    56f0:	00621821 	addu	v1,v1,v0
    56f4:	34e70c64 	ori	a3,a3,0xc64
    56f8:	3042ffff 	andi	v0,v0,0xffff
    56fc:	acc342e0 	sw	v1,17120(a2)
    5700:	a4e20000 	sh	v0,0(a3)
    5704:	a4c442e4 	sh	a0,17124(a2)
    5708:	00001021 	move	v0,zero
    570c:	24420001 	addiu	v0,v0,1
    5710:	304200ff 	andi	v0,v0,0xff
    5714:	2c430006 	sltiu	v1,v0,6
    5718:	1460fffd 	bnez	v1,0x5710
    571c:	24420001 	addiu	v0,v0,1
    5720:	26421568 	addiu	v0,s2,5480
    5724:	8c4363f8 	lw	v1,25592(v0)
    5728:	3c02b025 	lui	v0,0xb025
    572c:	34420c98 	ori	v0,v0,0xc98
    5730:	00031902 	srl	v1,v1,0x4
    5734:	306300ff 	andi	v1,v1,0xff
    5738:	a0430000 	sb	v1,0(v0)
    573c:	00001021 	move	v0,zero
    5740:	24420001 	addiu	v0,v0,1
    5744:	304200ff 	andi	v0,v0,0xff
    5748:	2c430006 	sltiu	v1,v0,6
    574c:	1460fffd 	bnez	v1,0x5744
    5750:	24420001 	addiu	v0,v0,1
    5754:	26421568 	addiu	v0,s2,5480
    5758:	8c4363fc 	lw	v1,25596(v0)
    575c:	3c02b025 	lui	v0,0xb025
    5760:	34420c99 	ori	v0,v0,0xc99
    5764:	00031902 	srl	v1,v1,0x4
    5768:	306300ff 	andi	v1,v1,0xff
    576c:	a0430000 	sb	v1,0(v0)
    5770:	00001021 	move	v0,zero
    5774:	24420001 	addiu	v0,v0,1
    5778:	304200ff 	andi	v0,v0,0xff
    577c:	2c430006 	sltiu	v1,v0,6
    5780:	1460fffd 	bnez	v1,0x5778
    5784:	24420001 	addiu	v0,v0,1
    5788:	26421568 	addiu	v0,s2,5480
    578c:	8c436400 	lw	v1,25600(v0)
    5790:	3c02b025 	lui	v0,0xb025
    5794:	34420c9a 	ori	v0,v0,0xc9a
    5798:	00031902 	srl	v1,v1,0x4
    579c:	306300ff 	andi	v1,v1,0xff
    57a0:	a0430000 	sb	v1,0(v0)
    57a4:	00001021 	move	v0,zero
    57a8:	24420001 	addiu	v0,v0,1
    57ac:	304200ff 	andi	v0,v0,0xff
    57b0:	2c430006 	sltiu	v1,v0,6
    57b4:	1460fffd 	bnez	v1,0x57ac
    57b8:	24420001 	addiu	v0,v0,1
    57bc:	26511568 	addiu	s1,s2,5480
    57c0:	8e256404 	lw	a1,25604(s1)
    57c4:	3c10b025 	lui	s0,0xb025
    57c8:	0c00540e 	jal	0x15038
    57cc:	36040c68 	ori	a0,s0,0xc68
    57d0:	8e256408 	lw	a1,25608(s1)
    57d4:	0c00540e 	jal	0x15038
    57d8:	36040c6c 	ori	a0,s0,0xc6c
    57dc:	8e224000 	lw	v0,16384(s1)
    57e0:	24030001 	li	v1,1
    57e4:	00021302 	srl	v0,v0,0xc
    57e8:	30450001 	andi	a1,v0,0x1
    57ec:	10a30013 	beq	a1,v1,0x583c
    57f0:	00000000 	nop
    57f4:	0c005b7d 	jal	0x16df4
    57f8:	00000000 	nop
    57fc:	26421568 	addiu	v0,s2,5480
    5800:	8c436404 	lw	v1,25604(v0)
    5804:	8c446408 	lw	a0,25608(v0)
    5808:	8fbf0024 	lw	ra,36(sp)
    580c:	8fb40020 	lw	s4,32(sp)
    5810:	8fb3001c 	lw	s3,28(sp)
    5814:	8fb20018 	lw	s2,24(sp)
    5818:	8fb10014 	lw	s1,20(sp)
    581c:	8fb00010 	lw	s0,16(sp)
    5820:	ac406408 	sw	zero,25608(v0)
    5824:	ac434320 	sw	v1,17184(v0)
    5828:	ac444324 	sw	a0,17188(v0)
    582c:	ac406404 	sw	zero,25604(v0)
    5830:	27bd0028 	addiu	sp,sp,40
    5834:	03e00008 	jr	ra
    5838:	00001021 	move	v0,zero
    583c:	8e2242e4 	lw	v0,17124(s1)
    5840:	00000000 	nop
    5844:	00021702 	srl	v0,v0,0x1c
    5848:	30420001 	andi	v0,v0,0x1
    584c:	1440ffe9 	bnez	v0,0x57f4
    5850:	3603004c 	ori	v1,s0,0x4c
    5854:	90620000 	lbu	v0,0(v1)
    5858:	00000000 	nop
    585c:	30420003 	andi	v0,v0,0x3
    5860:	1045003e 	beq	v0,a1,0x595c
    5864:	26441568 	addiu	a0,s2,5480
    5868:	908242e6 	lbu	v0,17126(a0)
    586c:	00000000 	nop
    5870:	14400007 	bnez	v0,0x5890
    5874:	26451568 	addiu	a1,s2,5480
    5878:	8c824000 	lw	v0,16384(a0)
    587c:	24030001 	li	v1,1
    5880:	00021382 	srl	v0,v0,0xe
    5884:	30420001 	andi	v0,v0,0x1
    5888:	1043003b 	beq	v0,v1,0x5978
    588c:	00000000 	nop
    5890:	90a342e6 	lbu	v1,17126(a1)
    5894:	240200ff 	li	v0,255
    5898:	1462ffd6 	bne	v1,v0,0x57f4
    589c:	3c03b025 	lui	v1,0xb025
    58a0:	94a242c8 	lhu	v0,17096(a1)
    58a4:	8ca642e0 	lw	a2,17120(a1)
    58a8:	34630c50 	ori	v1,v1,0xc50
    58ac:	90640000 	lbu	a0,0(v1)
    58b0:	00c2102b 	sltu	v0,a2,v0
    58b4:	104000d7 	beqz	v0,0x5c14
    58b8:	3084007f 	andi	a0,a0,0x7f
    58bc:	2482ffff 	addiu	v0,a0,-1
    58c0:	304400ff 	andi	a0,v0,0xff
    58c4:	26451568 	addiu	a1,s2,5480
    58c8:	90a342d0 	lbu	v1,17104(a1)
    58cc:	00000000 	nop
    58d0:	0064102b 	sltu	v0,v1,a0
    58d4:	104000ca 	beqz	v0,0x5c00
    58d8:	00000000 	nop
    58dc:	00602021 	move	a0,v1
    58e0:	26431568 	addiu	v1,s2,5480
    58e4:	8c6242e0 	lw	v0,17120(v1)
    58e8:	00000000 	nop
    58ec:	2c422711 	sltiu	v0,v0,10001
    58f0:	144000bf 	bnez	v0,0x5bf0
    58f4:	2c82003a 	sltiu	v0,a0,58
    58f8:	24040032 	li	a0,50
    58fc:	24030044 	li	v1,68
    5900:	3c02b025 	lui	v0,0xb025
    5904:	34420c30 	ori	v0,v0,0xc30
    5908:	a0430000 	sb	v1,0(v0)
    590c:	3c02b025 	lui	v0,0xb025
    5910:	34420c50 	ori	v0,v0,0xc50
    5914:	a0440000 	sb	a0,0(v0)
    5918:	00001021 	move	v0,zero
    591c:	24420001 	addiu	v0,v0,1
    5920:	304200ff 	andi	v0,v0,0xff
    5924:	2c430006 	sltiu	v1,v0,6
    5928:	1460fffd 	bnez	v1,0x5920
    592c:	24420001 	addiu	v0,v0,1
    5930:	3c02b025 	lui	v0,0xb025
    5934:	34420c58 	ori	v0,v0,0xc58
    5938:	a0440000 	sb	a0,0(v0)
    593c:	00001021 	move	v0,zero
    5940:	24420001 	addiu	v0,v0,1
    5944:	304200ff 	andi	v0,v0,0xff
    5948:	2c430006 	sltiu	v1,v0,6
    594c:	1460fffc 	bnez	v1,0x5940
    5950:	00000000 	nop
    5954:	080015e9 	j	0x57a4
    5958:	00000000 	nop
    595c:	922242e6 	lbu	v0,17126(s1)
    5960:	00000000 	nop
    5964:	1440ffc0 	bnez	v0,0x5868
    5968:	00000000 	nop
    596c:	2402ffff 	li	v0,-1
    5970:	08001606 	j	0x5818
    5974:	a22242e6 	sb	v0,17126(s1)
    5978:	90834000 	lbu	v1,16384(a0)
    597c:	00000000 	nop
    5980:	2462ffff 	addiu	v0,v1,-1
    5984:	2c420002 	sltiu	v0,v0,2
    5988:	104000ae 	beqz	v0,0x5c44
    598c:	24020006 	li	v0,6
    5990:	24020038 	li	v0,56
    5994:	a08242ce 	sb	v0,17102(a0)
    5998:	3c02b025 	lui	v0,0xb025
    599c:	3442004c 	ori	v0,v0,0x4c
    59a0:	90430000 	lbu	v1,0(v0)
    59a4:	00000000 	nop
    59a8:	30630003 	andi	v1,v1,0x3
    59ac:	1060ff91 	beqz	v1,0x57f4
    59b0:	26441568 	addiu	a0,s2,5480
    59b4:	8c8363f8 	lw	v1,25592(a0)
    59b8:	3402ffff 	li	v0,0xffff
    59bc:	1062ff8d 	beq	v1,v0,0x57f4
    59c0:	00000000 	nop
    59c4:	8c8342e0 	lw	v1,17120(a0)
    59c8:	00000000 	nop
    59cc:	2c6203e9 	sltiu	v0,v1,1001
    59d0:	144000b7 	bnez	v0,0x5cb0
    59d4:	2c620190 	sltiu	v0,v1,400
    59d8:	908342d2 	lbu	v1,17106(a0)
    59dc:	00000000 	nop
    59e0:	00031600 	sll	v0,v1,0x18
    59e4:	00021603 	sra	v0,v0,0x18
    59e8:	2442fffe 	addiu	v0,v0,-2
    59ec:	2842fffc 	slti	v0,v0,-4
    59f0:	10400002 	beqz	v0,0x59fc
    59f4:	2462fffe 	addiu	v0,v1,-2
    59f8:	2402fffc 	li	v0,-4
    59fc:	a08242d2 	sb	v0,17106(a0)
    5a00:	26461568 	addiu	a2,s2,5480
    5a04:	90c24000 	lbu	v0,16384(a2)
    5a08:	00000000 	nop
    5a0c:	2442ffff 	addiu	v0,v0,-1
    5a10:	2c420002 	sltiu	v0,v0,2
    5a14:	10400004 	beqz	v0,0x5a28
    5a18:	3c02b025 	lui	v0,0xb025
    5a1c:	2402000a 	li	v0,10
    5a20:	a0c242d2 	sb	v0,17106(a2)
    5a24:	3c02b025 	lui	v0,0xb025
    5a28:	34420184 	ori	v0,v0,0x184
    5a2c:	8c440000 	lw	a0,0(v0)
    5a30:	2403000d 	li	v1,13
    5a34:	108300b6 	beq	a0,v1,0x5d10
    5a38:	00000000 	nop
    5a3c:	8cc263f8 	lw	v0,25592(a2)
    5a40:	8cc363fc 	lw	v1,25596(a2)
    5a44:	8cc46408 	lw	a0,25608(a2)
    5a48:	00021102 	srl	v0,v0,0x4
    5a4c:	00031902 	srl	v1,v1,0x4
    5a50:	3053007f 	andi	s3,v0,0x7f
    5a54:	3074007f 	andi	s4,v1,0x7f
    5a58:	0293382b 	sltu	a3,s4,s3
    5a5c:	02602821 	move	a1,s3
    5a60:	14800005 	bnez	a0,0x5a78
    5a64:	0287280a 	.word	0x287280a
    5a68:	8cc263f0 	lw	v0,25584(a2)
    5a6c:	00000000 	nop
    5a70:	00021102 	srl	v0,v0,0x4
    5a74:	3045007f 	andi	a1,v0,0x7f
    5a78:	3c02b025 	lui	v0,0xb025
    5a7c:	34420d04 	ori	v0,v0,0xd04
    5a80:	90430000 	lbu	v1,0(v0)
    5a84:	24020001 	li	v0,1
    5a88:	306300ff 	andi	v1,v1,0xff
    5a8c:	1062009d 	beq	v1,v0,0x5d04
    5a90:	24a20004 	addiu	v0,a1,4
    5a94:	14e00002 	bnez	a3,0x5aa0
    5a98:	02741023 	subu	v0,s3,s4
    5a9c:	02931023 	subu	v0,s4,s3
    5aa0:	304200ff 	andi	v0,v0,0xff
    5aa4:	2c420015 	sltiu	v0,v0,21
    5aa8:	14400004 	bnez	v0,0x5abc
    5aac:	26441568 	addiu	a0,s2,5480
    5ab0:	26431568 	addiu	v1,s2,5480
    5ab4:	2402000a 	li	v0,10
    5ab8:	a06242d2 	sb	v0,17106(v1)
    5abc:	908242d2 	lbu	v0,17106(a0)
    5ac0:	24a3000a 	addiu	v1,a1,10
    5ac4:	908642ce 	lbu	a2,17102(a0)
    5ac8:	00621823 	subu	v1,v1,v0
    5acc:	00032e00 	sll	a1,v1,0x18
    5ad0:	00052e03 	sra	a1,a1,0x18
    5ad4:	30c200ff 	andi	v0,a2,0xff
    5ad8:	0045102a 	slt	v0,v0,a1
    5adc:	1040006e 	beqz	v0,0x5c98
    5ae0:	00000000 	nop
    5ae4:	00062e00 	sll	a1,a2,0x18
    5ae8:	00052e03 	sra	a1,a1,0x18
    5aec:	26431568 	addiu	v1,s2,5480
    5af0:	8c6242e0 	lw	v0,17120(v1)
    5af4:	00000000 	nop
    5af8:	2c422711 	sltiu	v0,v0,10001
    5afc:	14400060 	bnez	v0,0x5c80
    5b00:	28a2003a 	slti	v0,a1,58
    5b04:	28a20032 	slti	v0,a1,50
    5b08:	1040005d 	beqz	v0,0x5c80
    5b0c:	28a2003a 	slti	v0,a1,58
    5b10:	24050032 	li	a1,50
    5b14:	24030044 	li	v1,68
    5b18:	3c02b025 	lui	v0,0xb025
    5b1c:	34420c30 	ori	v0,v0,0xc30
    5b20:	a0430000 	sb	v1,0(v0)
    5b24:	26431568 	addiu	v1,s2,5480
    5b28:	8c626404 	lw	v0,25604(v1)
    5b2c:	00000000 	nop
    5b30:	14400005 	bnez	v0,0x5b48
    5b34:	3c02b025 	lui	v0,0xb025
    5b38:	8c626408 	lw	v0,25608(v1)
    5b3c:	00000000 	nop
    5b40:	10400015 	beqz	v0,0x5b98
    5b44:	3c02b025 	lui	v0,0xb025
    5b48:	34420c50 	ori	v0,v0,0xc50
    5b4c:	30a400ff 	andi	a0,a1,0xff
    5b50:	a0440000 	sb	a0,0(v0)
    5b54:	00001021 	move	v0,zero
    5b58:	24420001 	addiu	v0,v0,1
    5b5c:	304200ff 	andi	v0,v0,0xff
    5b60:	2c430006 	sltiu	v1,v0,6
    5b64:	1460fffd 	bnez	v1,0x5b5c
    5b68:	24420001 	addiu	v0,v0,1
    5b6c:	3c02b025 	lui	v0,0xb025
    5b70:	34420c58 	ori	v0,v0,0xc58
    5b74:	a0440000 	sb	a0,0(v0)
    5b78:	00001021 	move	v0,zero
    5b7c:	24420001 	addiu	v0,v0,1
    5b80:	304200ff 	andi	v0,v0,0xff
    5b84:	2c430006 	sltiu	v1,v0,6
    5b88:	1460fffc 	bnez	v1,0x5b7c
    5b8c:	00000000 	nop
    5b90:	080015e9 	j	0x57a4
    5b94:	00000000 	nop
    5b98:	906342cf 	lbu	v1,17103(v1)
    5b9c:	34420c50 	ori	v0,v0,0xc50
    5ba0:	a0430000 	sb	v1,0(v0)
    5ba4:	00001021 	move	v0,zero
    5ba8:	24420001 	addiu	v0,v0,1
    5bac:	304200ff 	andi	v0,v0,0xff
    5bb0:	2c430006 	sltiu	v1,v0,6
    5bb4:	1460fffd 	bnez	v1,0x5bac
    5bb8:	24420001 	addiu	v0,v0,1
    5bbc:	26421568 	addiu	v0,s2,5480
    5bc0:	904442cf 	lbu	a0,17103(v0)
    5bc4:	3c03b025 	lui	v1,0xb025
    5bc8:	34630c58 	ori	v1,v1,0xc58
    5bcc:	a0640000 	sb	a0,0(v1)
    5bd0:	00001021 	move	v0,zero
    5bd4:	24420001 	addiu	v0,v0,1
    5bd8:	304200ff 	andi	v0,v0,0xff
    5bdc:	2c430006 	sltiu	v1,v0,6
    5be0:	1460fffc 	bnez	v1,0x5bd4
    5be4:	00000000 	nop
    5be8:	080015e9 	j	0x57a4
    5bec:	00000000 	nop
    5bf0:	1040ff43 	beqz	v0,0x5900
    5bf4:	24030048 	li	v1,72
    5bf8:	0800162c 	j	0x58b0
    5bfc:	24030044 	li	v1,68
    5c00:	90a342d1 	lbu	v1,17105(a1)
    5c04:	00000000 	nop
    5c08:	0083102b 	sltu	v0,a0,v1
    5c0c:	08001624 	j	0x5890
    5c10:	0062200b 	.word	0x62200b
    5c14:	94a242ca 	lhu	v0,17098(a1)
    5c18:	00000000 	nop
    5c1c:	00c2102b 	sltu	v0,a2,v0
    5c20:	1440ff28 	bnez	v0,0x58c4
    5c24:	00000000 	nop
    5c28:	94a242cc 	lhu	v0,17100(a1)
    5c2c:	00000000 	nop
    5c30:	00c2102b 	sltu	v0,a2,v0
    5c34:	10400016 	beqz	v0,0x5c90
    5c38:	00000000 	nop
    5c3c:	0800161c 	j	0x5870
    5c40:	24820001 	addiu	v0,a0,1
    5c44:	10620026 	beq	v1,v0,0x5ce0
    5c48:	3c02b025 	lui	v0,0xb025
    5c4c:	10600005 	beqz	v1,0x5c64
    5c50:	240200ff 	li	v0,255
    5c54:	10620003 	beq	v1,v0,0x5c64
    5c58:	00000000 	nop
    5c5c:	08001651 	j	0x5944
    5c60:	2402003e 	li	v0,62
    5c64:	8c8242e0 	lw	v0,17120(a0)
    5c68:	00000000 	nop
    5c6c:	2c4203e9 	sltiu	v0,v0,1001
    5c70:	1040fffa 	beqz	v0,0x5c5c
    5c74:	00000000 	nop
    5c78:	08001651 	j	0x5944
    5c7c:	2402003a 	li	v0,58
    5c80:	1040ffa5 	beqz	v0,0x5b18
    5c84:	24030048 	li	v1,72
    5c88:	080016b2 	j	0x5ac8
    5c8c:	24030044 	li	v1,68
    5c90:	0800161c 	j	0x5870
    5c94:	24820002 	addiu	v0,a0,2
    5c98:	808342cf 	lb	v1,17103(a0)
    5c9c:	00000000 	nop
    5ca0:	306200ff 	andi	v0,v1,0xff
    5ca4:	00a2102a 	slt	v0,a1,v0
    5ca8:	080016a7 	j	0x5a9c
    5cac:	0062280b 	.word	0x62280b
    5cb0:	1040ff54 	beqz	v0,0x5a04
    5cb4:	26461568 	addiu	a2,s2,5480
    5cb8:	908342d2 	lbu	v1,17106(a0)
    5cbc:	00000000 	nop
    5cc0:	00031600 	sll	v0,v1,0x18
    5cc4:	00021603 	sra	v0,v0,0x18
    5cc8:	24420002 	addiu	v0,v0,2
    5ccc:	2842000d 	slti	v0,v0,13
    5cd0:	14400012 	bnez	v0,0x5d1c
    5cd4:	00000000 	nop
    5cd8:	0800166b 	j	0x59ac
    5cdc:	2402000c 	li	v0,12
    5ce0:	34420800 	ori	v0,v0,0x800
    5ce4:	90430000 	lbu	v1,0(v0)
    5ce8:	00000000 	nop
    5cec:	00031827 	nor	v1,zero,v1
    5cf0:	30630001 	andi	v1,v1,0x1
    5cf4:	1460ff27 	bnez	v1,0x5994
    5cf8:	24020036 	li	v0,54
    5cfc:	08001651 	j	0x5944
    5d00:	2402003e 	li	v0,62
    5d04:	00022e00 	sll	a1,v0,0x18
    5d08:	08001691 	j	0x5a44
    5d0c:	00052e03 	sra	a1,a1,0x18
    5d10:	8cc263f0 	lw	v0,25584(a2)
    5d14:	08001688 	j	0x5a20
    5d18:	0293382b 	sltu	a3,s4,s3
    5d1c:	0800166b 	j	0x59ac
    5d20:	24620002 	addiu	v0,v1,2
    5d24:	27bdffc0 	addiu	sp,sp,-64
    5d28:	afb40028 	sw	s4,40(sp)
    5d2c:	3c14b025 	lui	s4,0xb025
    5d30:	afb30024 	sw	s3,36(sp)
    5d34:	afb1001c 	sw	s1,28(sp)
    5d38:	afb00018 	sw	s0,24(sp)
    5d3c:	afbf003c 	sw	ra,60(sp)
    5d40:	afbe0038 	sw	s8,56(sp)
    5d44:	afb70034 	sw	s7,52(sp)
    5d48:	afb60030 	sw	s6,48(sp)
    5d4c:	afb5002c 	sw	s5,44(sp)
    5d50:	afb20020 	sw	s2,32(sp)
    5d54:	368600d8 	ori	a2,s4,0xd8
    5d58:	90c30000 	lbu	v1,0(a2)
    5d5c:	3c028002 	lui	v0,0x8002
    5d60:	24511568 	addiu	s1,v0,5480
    5d64:	3c10b02a 	lui	s0,0xb02a
    5d68:	2402ffa0 	li	v0,-96
    5d6c:	00621825 	or	v1,v1,v0
    5d70:	36050034 	ori	a1,s0,0x34
    5d74:	2402fffe 	li	v0,-2
    5d78:	923242bc 	lbu	s2,17084(s1)
    5d7c:	24040040 	li	a0,64
    5d80:	a0c30000 	sb	v1,0(a2)
    5d84:	a0a20000 	sb	v0,0(a1)
    5d88:	0c005169 	jal	0x145a4
    5d8c:	00129600 	sll	s2,s2,0x18
    5d90:	00409821 	move	s3,v0
    5d94:	1260008d 	beqz	s3,0x5fcc
    5d98:	3c024000 	lui	v0,0x4000
    5d9c:	8e630008 	lw	v1,8(s3)
    5da0:	368203b0 	ori	v0,s4,0x3b0
    5da4:	3c1eb025 	lui	s8,0xb025
    5da8:	02602021 	move	a0,s3
    5dac:	ac430000 	sw	v1,0(v0)
    5db0:	0c0044fb 	jal	0x113ec
    5db4:	0220b821 	move	s7,s1
    5db8:	37d50042 	ori	s5,s8,0x42
    5dbc:	37d10c03 	ori	s1,s8,0xc03
    5dc0:	37d60e17 	ori	s6,s8,0xe17
    5dc4:	24140004 	li	s4,4
    5dc8:	3c03b02a 	lui	v1,0xb02a
    5dcc:	34630006 	ori	v1,v1,0x6
    5dd0:	94620000 	lhu	v0,0(v1)
    5dd4:	00000000 	nop
    5dd8:	3042ff00 	andi	v0,v0,0xff00
    5ddc:	1840000a 	blez	v0,0x5e08
    5de0:	00000000 	nop
    5de4:	3c048002 	lui	a0,0x8002
    5de8:	2484ab00 	addiu	a0,a0,-21760
    5dec:	8c830000 	lw	v1,0(a0)
    5df0:	00000000 	nop
    5df4:	94620000 	lhu	v0,0(v1)
    5df8:	00000000 	nop
    5dfc:	3042ff00 	andi	v0,v0,0xff00
    5e00:	1c40fffc 	bgtz	v0,0x5df4
    5e04:	00000000 	nop
    5e08:	8e650008 	lw	a1,8(s3)
    5e0c:	3c061020 	lui	a2,0x1020
    5e10:	24040001 	li	a0,1
    5e14:	34c6fe00 	ori	a2,a2,0xfe00
    5e18:	24070040 	li	a3,64
    5e1c:	0c000110 	jal	0x440
    5e20:	afa40010 	sw	a0,16(sp)
    5e24:	0c00014d 	jal	0x534
    5e28:	24040001 	li	a0,1
    5e2c:	3c028002 	lui	v0,0x8002
    5e30:	2442ab04 	addiu	v0,v0,-21756
    5e34:	8c450000 	lw	a1,0(v0)
    5e38:	24030001 	li	v1,1
    5e3c:	00002021 	move	a0,zero
    5e40:	a0a30000 	sb	v1,0(a1)
    5e44:	2403ffff 	li	v1,-1
    5e48:	a2a30000 	sb	v1,0(s5)
    5e4c:	92220000 	lbu	v0,0(s1)
    5e50:	00000000 	nop
    5e54:	304200ff 	andi	v0,v0,0xff
    5e58:	34420040 	ori	v0,v0,0x40
    5e5c:	a2220000 	sb	v0,0(s1)
    5e60:	24820001 	addiu	v0,a0,1
    5e64:	304400ff 	andi	a0,v0,0xff
    5e68:	2c830006 	sltiu	v1,a0,6
    5e6c:	1460fffd 	bnez	v1,0x5e64
    5e70:	24820001 	addiu	v0,a0,1
    5e74:	24020002 	li	v0,2
    5e78:	3c048002 	lui	a0,0x8002
    5e7c:	a0a20000 	sb	v0,0(a1)
    5e80:	24831568 	addiu	v1,a0,5480
    5e84:	906242c1 	lbu	v0,17089(v1)
    5e88:	92c40000 	lbu	a0,0(s6)
    5e8c:	00002821 	move	a1,zero
    5e90:	a2c20000 	sb	v0,0(s6)
    5e94:	309000ff 	andi	s0,a0,0xff
    5e98:	24a20001 	addiu	v0,a1,1
    5e9c:	304500ff 	andi	a1,v0,0xff
    5ea0:	2ca30006 	sltiu	v1,a1,6
    5ea4:	1460fffd 	bnez	v1,0x5e9c
    5ea8:	24a20001 	addiu	v0,a1,1
    5eac:	2402ffef 	li	v0,-17
    5eb0:	24040064 	li	a0,100
    5eb4:	a2a20000 	sb	v0,0(s5)
    5eb8:	0c000c54 	jal	0x3150
    5ebc:	00000000 	nop
    5ec0:	92220000 	lbu	v0,0(s1)
    5ec4:	00002021 	move	a0,zero
    5ec8:	304200bf 	andi	v0,v0,0xbf
    5ecc:	a2220000 	sb	v0,0(s1)
    5ed0:	24820001 	addiu	v0,a0,1
    5ed4:	304400ff 	andi	a0,v0,0xff
    5ed8:	2c830006 	sltiu	v1,a0,6
    5edc:	1460fffd 	bnez	v1,0x5ed4
    5ee0:	24820001 	addiu	v0,a0,1
    5ee4:	0c000c54 	jal	0x3150
    5ee8:	24040384 	li	a0,900
    5eec:	37c208f4 	ori	v0,s8,0x8f4
    5ef0:	8c430000 	lw	v1,0(v0)
    5ef4:	3c048000 	lui	a0,0x8000
    5ef8:	348407df 	ori	a0,a0,0x7df
    5efc:	a2d00000 	sb	s0,0(s6)
    5f00:	00001021 	move	v0,zero
    5f04:	00642824 	and	a1,v1,a0
    5f08:	24420001 	addiu	v0,v0,1
    5f0c:	304200ff 	andi	v0,v0,0xff
    5f10:	2c430006 	sltiu	v1,v0,6
    5f14:	1460fffd 	bnez	v1,0x5f0c
    5f18:	24420001 	addiu	v0,v0,1
    5f1c:	a2a00000 	sb	zero,0(s5)
    5f20:	92220000 	lbu	v0,0(s1)
    5f24:	00002021 	move	a0,zero
    5f28:	304200ff 	andi	v0,v0,0xff
    5f2c:	34420040 	ori	v0,v0,0x40
    5f30:	a2220000 	sb	v0,0(s1)
    5f34:	24820001 	addiu	v0,a0,1
    5f38:	304400ff 	andi	a0,v0,0xff
    5f3c:	2c830006 	sltiu	v1,a0,6
    5f40:	1460fffd 	bnez	v1,0x5f38
    5f44:	24820001 	addiu	v0,a0,1
    5f48:	92e242be 	lbu	v0,17086(s7)
    5f4c:	30a3001f 	andi	v1,a1,0x1f
    5f50:	0062102b 	sltu	v0,v1,v0
    5f54:	1040000a 	beqz	v0,0x5f80
    5f58:	3c028002 	lui	v0,0x8002
    5f5c:	92e242bf 	lbu	v0,17087(s7)
    5f60:	00000000 	nop
    5f64:	0043102b 	sltu	v0,v0,v1
    5f68:	10400005 	beqz	v0,0x5f80
    5f6c:	3c028002 	lui	v0,0x8002
    5f70:	3c020001 	lui	v0,0x1
    5f74:	00621025 	or	v0,v1,v0
    5f78:	02429021 	addu	s2,s2,v0
    5f7c:	3c028002 	lui	v0,0x8002
    5f80:	90437e26 	lbu	v1,32294(v0)
    5f84:	24020022 	li	v0,34
    5f88:	1062001c 	beq	v1,v0,0x5ffc
    5f8c:	24020092 	li	v0,146
    5f90:	1062001b 	beq	v1,v0,0x6000
    5f94:	3c038002 	lui	v1,0x8002
    5f98:	2694ffff 	addiu	s4,s4,-1
    5f9c:	0c000c54 	jal	0x3150
    5fa0:	240401f4 	li	a0,500
    5fa4:	0681ff89 	bgez	s4,0x5dcc
    5fa8:	3c03b02a 	lui	v1,0xb02a
    5fac:	12600004 	beqz	s3,0x5fc0
    5fb0:	3c02b025 	lui	v0,0xb025
    5fb4:	0c005185 	jal	0x14614
    5fb8:	02602021 	move	a0,s3
    5fbc:	3c02b025 	lui	v0,0xb025
    5fc0:	344202d8 	ori	v0,v0,0x2d8
    5fc4:	ac520000 	sw	s2,0(v0)
    5fc8:	02401021 	move	v0,s2
    5fcc:	8fbf003c 	lw	ra,60(sp)
    5fd0:	8fbe0038 	lw	s8,56(sp)
    5fd4:	8fb70034 	lw	s7,52(sp)
    5fd8:	8fb60030 	lw	s6,48(sp)
    5fdc:	8fb5002c 	lw	s5,44(sp)
    5fe0:	8fb40028 	lw	s4,40(sp)
    5fe4:	8fb30024 	lw	s3,36(sp)
    5fe8:	8fb20020 	lw	s2,32(sp)
    5fec:	8fb1001c 	lw	s1,28(sp)
    5ff0:	8fb00018 	lw	s0,24(sp)
    5ff4:	03e00008 	jr	ra
    5ff8:	27bd0040 	addiu	sp,sp,64
    5ffc:	3c038002 	lui	v1,0x8002
    6000:	24631568 	addiu	v1,v1,5480
    6004:	906242be 	lbu	v0,17086(v1)
    6008:	30a307c0 	andi	v1,a1,0x7c0
    600c:	00031982 	srl	v1,v1,0x6
    6010:	0062102b 	sltu	v0,v1,v0
    6014:	1040ffe0 	beqz	v0,0x5f98
    6018:	3c048002 	lui	a0,0x8002
    601c:	24841568 	addiu	a0,a0,5480
    6020:	908242bf 	lbu	v0,17087(a0)
    6024:	00000000 	nop
    6028:	0043102b 	sltu	v0,v0,v1
    602c:	1040ffda 	beqz	v0,0x5f98
    6030:	00031200 	sll	v0,v1,0x8
    6034:	3c030010 	lui	v1,0x10
    6038:	00431025 	or	v0,v0,v1
    603c:	080017d2 	j	0x5f48
    6040:	02429021 	addu	s2,s2,v0
    6044:	27bdffe0 	addiu	sp,sp,-32
    6048:	afb00010 	sw	s0,16(sp)
    604c:	3c10000f 	lui	s0,0xf
    6050:	3605ffff 	ori	a1,s0,0xffff
    6054:	3406f8f0 	li	a2,0xf8f0
    6058:	24040015 	li	a0,21
    605c:	afbf001c 	sw	ra,28(sp)
    6060:	afb20018 	sw	s2,24(sp)
    6064:	0c00446a 	jal	0x111a8
    6068:	afb10014 	sw	s1,20(sp)
    606c:	0c000c54 	jal	0x3150
    6070:	24040064 	li	a0,100
    6074:	3c128002 	lui	s2,0x8002
    6078:	3605ffff 	ori	a1,s0,0xffff
    607c:	24063056 	li	a2,12374
    6080:	0c00446a 	jal	0x111a8
    6084:	2404001a 	li	a0,26
    6088:	26511568 	addiu	s1,s2,5480
    608c:	0c000c54 	jal	0x3150
    6090:	24040064 	li	a0,100
    6094:	92234304 	lbu	v1,17156(s1)
    6098:	24020004 	li	v0,4
    609c:	10620020 	beq	v1,v0,0x6120
    60a0:	3c02b025 	lui	v0,0xb025
    60a4:	8e254314 	lw	a1,17172(s1)
    60a8:	3c10b025 	lui	s0,0xb025
    60ac:	0c005c0a 	jal	0x17028
    60b0:	36040e00 	ori	a0,s0,0xe00
    60b4:	8e254314 	lw	a1,17172(s1)
    60b8:	0c005c0a 	jal	0x17028
    60bc:	36040e04 	ori	a0,s0,0xe04
    60c0:	8e254318 	lw	a1,17176(s1)
    60c4:	0c005c0a 	jal	0x17028
    60c8:	36040e08 	ori	a0,s0,0xe08
    60cc:	8e254314 	lw	a1,17172(s1)
    60d0:	0c005c0a 	jal	0x17028
    60d4:	36040e10 	ori	a0,s0,0xe10
    60d8:	8e254314 	lw	a1,17172(s1)
    60dc:	0c005c0a 	jal	0x17028
    60e0:	36040e14 	ori	a0,s0,0xe14
    60e4:	8e254314 	lw	a1,17172(s1)
    60e8:	0c005c0a 	jal	0x17028
    60ec:	36040e18 	ori	a0,s0,0xe18
    60f0:	8e254314 	lw	a1,17172(s1)
    60f4:	0c005c0a 	jal	0x17028
    60f8:	36040e1c 	ori	a0,s0,0xe1c
    60fc:	26431568 	addiu	v1,s2,5480
    6100:	8fbf001c 	lw	ra,28(sp)
    6104:	8fb20018 	lw	s2,24(sp)
    6108:	8fb10014 	lw	s1,20(sp)
    610c:	8fb00010 	lw	s0,16(sp)
    6110:	24020004 	li	v0,4
    6114:	27bd0020 	addiu	sp,sp,32
    6118:	03e00008 	jr	ra
    611c:	a0624304 	sb	v0,17156(v1)
    6120:	34420e00 	ori	v0,v0,0xe00
    6124:	8c430000 	lw	v1,0(v0)
    6128:	8e254314 	lw	a1,17172(s1)
    612c:	00000000 	nop
    6130:	1465ffde 	bne	v1,a1,0x60ac
    6134:	3c10b025 	lui	s0,0xb025
    6138:	0800182c 	j	0x60b0
    613c:	26431568 	addiu	v1,s2,5480
    6140:	27bdffe0 	addiu	sp,sp,-32
    6144:	afb00010 	sw	s0,16(sp)
    6148:	3c10000f 	lui	s0,0xf
    614c:	3605ffff 	ori	a1,s0,0xffff
    6150:	3406f8f0 	li	a2,0xf8f0
    6154:	24040015 	li	a0,21
    6158:	afbf001c 	sw	ra,28(sp)
    615c:	afb20018 	sw	s2,24(sp)
    6160:	0c00446a 	jal	0x111a8
    6164:	afb10014 	sw	s1,20(sp)
    6168:	0c000c54 	jal	0x3150
    616c:	24040064 	li	a0,100
    6170:	3605ffff 	ori	a1,s0,0xffff
    6174:	24063056 	li	a2,12374
    6178:	0c00446a 	jal	0x111a8
    617c:	2404001a 	li	a0,26
    6180:	3c108002 	lui	s0,0x8002
    6184:	0c000c54 	jal	0x3150
    6188:	24040064 	li	a0,100
    618c:	26021568 	addiu	v0,s0,5480
    6190:	90464304 	lbu	a2,17156(v0)
    6194:	3c11b025 	lui	s1,0xb025
    6198:	3c121010 	lui	s2,0x1010
    619c:	24030001 	li	v1,1
    61a0:	36240e00 	ori	a0,s1,0xe00
    61a4:	10c3001e 	beq	a2,v1,0x6220
    61a8:	36451010 	ori	a1,s2,0x1010
    61ac:	0c005c0a 	jal	0x17028
    61b0:	00000000 	nop
    61b4:	36240e04 	ori	a0,s1,0xe04
    61b8:	0c005c0a 	jal	0x17028
    61bc:	36451010 	ori	a1,s2,0x1010
    61c0:	36240e08 	ori	a0,s1,0xe08
    61c4:	0c005c0a 	jal	0x17028
    61c8:	24051010 	li	a1,4112
    61cc:	36240e10 	ori	a0,s1,0xe10
    61d0:	0c005c0a 	jal	0x17028
    61d4:	36451010 	ori	a1,s2,0x1010
    61d8:	36240e14 	ori	a0,s1,0xe14
    61dc:	0c005c0a 	jal	0x17028
    61e0:	36451010 	ori	a1,s2,0x1010
    61e4:	36240e18 	ori	a0,s1,0xe18
    61e8:	0c005c0a 	jal	0x17028
    61ec:	36451010 	ori	a1,s2,0x1010
    61f0:	36240e1c 	ori	a0,s1,0xe1c
    61f4:	0c005c0a 	jal	0x17028
    61f8:	36451010 	ori	a1,s2,0x1010
    61fc:	26031568 	addiu	v1,s0,5480
    6200:	8fbf001c 	lw	ra,28(sp)
    6204:	8fb20018 	lw	s2,24(sp)
    6208:	8fb10014 	lw	s1,20(sp)
    620c:	8fb00010 	lw	s0,16(sp)
    6210:	24020001 	li	v0,1
    6214:	27bd0020 	addiu	sp,sp,32
    6218:	03e00008 	jr	ra
    621c:	a0624304 	sb	v0,17156(v1)
    6220:	8c860000 	lw	a2,0(a0)
    6224:	00000000 	nop
    6228:	14c5ffe0 	bne	a2,a1,0x61ac
    622c:	26031568 	addiu	v1,s0,5480
    6230:	8fbf001c 	lw	ra,28(sp)
    6234:	8fb20018 	lw	s2,24(sp)
    6238:	8fb10014 	lw	s1,20(sp)
    623c:	8fb00010 	lw	s0,16(sp)
    6240:	24020001 	li	v0,1
    6244:	27bd0020 	addiu	sp,sp,32
    6248:	03e00008 	jr	ra
    624c:	a0624304 	sb	v0,17156(v1)
    6250:	27bdffe0 	addiu	sp,sp,-32
    6254:	afb10014 	sw	s1,20(sp)
    6258:	afb00010 	sw	s0,16(sp)
    625c:	3c11000f 	lui	s1,0xf
    6260:	3c100001 	lui	s0,0x1
    6264:	3625ffff 	ori	a1,s1,0xffff
    6268:	360698f4 	ori	a2,s0,0x98f4
    626c:	24040015 	li	a0,21
    6270:	afbf001c 	sw	ra,28(sp)
    6274:	0c00446a 	jal	0x111a8
    6278:	afb20018 	sw	s2,24(sp)
    627c:	0c000c54 	jal	0x3150
    6280:	24040064 	li	a0,100
    6284:	36063056 	ori	a2,s0,0x3056
    6288:	3625ffff 	ori	a1,s1,0xffff
    628c:	2404001a 	li	a0,26
    6290:	0c00446a 	jal	0x111a8
    6294:	3c118002 	lui	s1,0x8002
    6298:	26301568 	addiu	s0,s1,5480
    629c:	0c000c54 	jal	0x3150
    62a0:	24040064 	li	a0,100
    62a4:	92024304 	lbu	v0,17156(s0)
    62a8:	3c12b025 	lui	s2,0xb025
    62ac:	14400008 	bnez	v0,0x62d0
    62b0:	36440e08 	ori	a0,s2,0xe08
    62b4:	3c02b025 	lui	v0,0xb025
    62b8:	34420e00 	ori	v0,v0,0xe00
    62bc:	8c450000 	lw	a1,0(v0)
    62c0:	8e0342ec 	lw	v1,17132(s0)
    62c4:	00000000 	nop
    62c8:	10a30017 	beq	a1,v1,0x6328
    62cc:	26221568 	addiu	v0,s1,5480
    62d0:	8e0542e8 	lw	a1,17128(s0)
    62d4:	0c005c0a 	jal	0x17028
    62d8:	00000000 	nop
    62dc:	8e0542ec 	lw	a1,17132(s0)
    62e0:	0c005c0a 	jal	0x17028
    62e4:	36440e00 	ori	a0,s2,0xe00
    62e8:	8e0542f0 	lw	a1,17136(s0)
    62ec:	0c005c0a 	jal	0x17028
    62f0:	36440e04 	ori	a0,s2,0xe04
    62f4:	8e0542f4 	lw	a1,17140(s0)
    62f8:	0c005c0a 	jal	0x17028
    62fc:	36440e10 	ori	a0,s2,0xe10
    6300:	8e0542f8 	lw	a1,17144(s0)
    6304:	0c005c0a 	jal	0x17028
    6308:	36440e14 	ori	a0,s2,0xe14
    630c:	8e0542fc 	lw	a1,17148(s0)
    6310:	0c005c0a 	jal	0x17028
    6314:	36440e18 	ori	a0,s2,0xe18
    6318:	8e054300 	lw	a1,17152(s0)
    631c:	0c005c0a 	jal	0x17028
    6320:	36440e1c 	ori	a0,s2,0xe1c
    6324:	26221568 	addiu	v0,s1,5480
    6328:	8fbf001c 	lw	ra,28(sp)
    632c:	8fb20018 	lw	s2,24(sp)
    6330:	8fb10014 	lw	s1,20(sp)
    6334:	8fb00010 	lw	s0,16(sp)
    6338:	27bd0020 	addiu	sp,sp,32
    633c:	03e00008 	jr	ra
    6340:	a0404304 	sb	zero,17156(v0)
    6344:	27bdffe0 	addiu	sp,sp,-32
    6348:	afb10014 	sw	s1,20(sp)
    634c:	afb00010 	sw	s0,16(sp)
    6350:	3c11000f 	lui	s1,0xf
    6354:	3c100001 	lui	s0,0x1
    6358:	3625ffff 	ori	a1,s1,0xffff
    635c:	360698f4 	ori	a2,s0,0x98f4
    6360:	24040015 	li	a0,21
    6364:	afbf001c 	sw	ra,28(sp)
    6368:	0c00446a 	jal	0x111a8
    636c:	afb20018 	sw	s2,24(sp)
    6370:	0c000c54 	jal	0x3150
    6374:	24040064 	li	a0,100
    6378:	3c128002 	lui	s2,0x8002
    637c:	3625ffff 	ori	a1,s1,0xffff
    6380:	36063056 	ori	a2,s0,0x3056
    6384:	0c00446a 	jal	0x111a8
    6388:	2404001a 	li	a0,26
    638c:	26511568 	addiu	s1,s2,5480
    6390:	0c000c54 	jal	0x3150
    6394:	24040064 	li	a0,100
    6398:	92234304 	lbu	v1,17156(s1)
    639c:	24020003 	li	v0,3
    63a0:	1062002c 	beq	v1,v0,0x6454
    63a4:	3c02b025 	lui	v0,0xb025
    63a8:	8e2542ec 	lw	a1,17132(s1)
    63ac:	3c10b025 	lui	s0,0xb025
    63b0:	0c005c0a 	jal	0x17028
    63b4:	36040e00 	ori	a0,s0,0xe00
    63b8:	8e2542f0 	lw	a1,17136(s1)
    63bc:	0c005c0a 	jal	0x17028
    63c0:	36040e04 	ori	a0,s0,0xe04
    63c4:	8e2542f4 	lw	a1,17140(s1)
    63c8:	0c005c0a 	jal	0x17028
    63cc:	36040e10 	ori	a0,s0,0xe10
    63d0:	8e2542f8 	lw	a1,17144(s1)
    63d4:	0c005c0a 	jal	0x17028
    63d8:	36040e14 	ori	a0,s0,0xe14
    63dc:	8e2542fc 	lw	a1,17148(s1)
    63e0:	0c005c0a 	jal	0x17028
    63e4:	36040e18 	ori	a0,s0,0xe18
    63e8:	8e254300 	lw	a1,17152(s1)
    63ec:	0c005c0a 	jal	0x17028
    63f0:	36040e1c 	ori	a0,s0,0xe1c
    63f4:	8e244308 	lw	a0,17160(s1)
    63f8:	8e2242e8 	lw	v0,17128(s1)
    63fc:	00000000 	nop
    6400:	00442821 	addu	a1,v0,a0
    6404:	30a3ff00 	andi	v1,a1,0xff00
    6408:	3c02ffff 	lui	v0,0xffff
    640c:	344200ff 	ori	v0,v0,0xff
    6410:	2c633f01 	sltiu	v1,v1,16129
    6414:	00a21024 	and	v0,a1,v0
    6418:	1060000c 	beqz	v1,0x644c
    641c:	36040e08 	ori	a0,s0,0xe08
    6420:	0c005c0a 	jal	0x17028
    6424:	00000000 	nop
    6428:	26431568 	addiu	v1,s2,5480
    642c:	8fbf001c 	lw	ra,28(sp)
    6430:	8fb20018 	lw	s2,24(sp)
    6434:	8fb10014 	lw	s1,20(sp)
    6438:	8fb00010 	lw	s0,16(sp)
    643c:	24020003 	li	v0,3
    6440:	27bd0020 	addiu	sp,sp,32
    6444:	03e00008 	jr	ra
    6448:	a0624304 	sb	v0,17156(v1)
    644c:	080018f4 	j	0x63d0
    6450:	34453f00 	ori	a1,v0,0x3f00
    6454:	34420e00 	ori	v0,v0,0xe00
    6458:	8c430000 	lw	v1,0(v0)
    645c:	8e2542ec 	lw	a1,17132(s1)
    6460:	00000000 	nop
    6464:	1465ffd2 	bne	v1,a1,0x63b0
    6468:	3c10b025 	lui	s0,0xb025
    646c:	080018f7 	j	0x63dc
    6470:	26431568 	addiu	v1,s2,5480
    6474:	27bdffd0 	addiu	sp,sp,-48
    6478:	3c02b025 	lui	v0,0xb025
    647c:	afbf0028 	sw	ra,40(sp)
    6480:	afb50024 	sw	s5,36(sp)
    6484:	afb40020 	sw	s4,32(sp)
    6488:	afb3001c 	sw	s3,28(sp)
    648c:	afb20018 	sw	s2,24(sp)
    6490:	afb10014 	sw	s1,20(sp)
    6494:	afb00010 	sw	s0,16(sp)
    6498:	34420184 	ori	v0,v0,0x184
    649c:	8c440000 	lw	a0,0(v0)
    64a0:	2403000d 	li	v1,13
    64a4:	10830092 	beq	a0,v1,0x66f0
    64a8:	3c128002 	lui	s2,0x8002
    64ac:	26461568 	addiu	a2,s2,5480
    64b0:	8cc463f8 	lw	a0,25592(a2)
    64b4:	8cc263fc 	lw	v0,25596(a2)
    64b8:	8cc56408 	lw	a1,25608(a2)
    64bc:	00042102 	srl	a0,a0,0x4
    64c0:	00021102 	srl	v0,v0,0x4
    64c4:	3084007f 	andi	a0,a0,0x7f
    64c8:	3042007f 	andi	v0,v0,0x7f
    64cc:	0044182b 	sltu	v1,v0,a0
    64d0:	0080a021 	move	s4,a0
    64d4:	10a00081 	beqz	a1,0x66dc
    64d8:	0043a00a 	.word	0x43a00a
    64dc:	3c158002 	lui	s5,0x8002
    64e0:	92a47e26 	lbu	a0,32294(s5)
    64e4:	3c03b025 	lui	v1,0xb025
    64e8:	26421568 	addiu	v0,s2,5480
    64ec:	34630c0f 	ori	v1,v1,0xc0f
    64f0:	90534304 	lbu	s3,17156(v0)
    64f4:	a0640000 	sb	a0,0(v1)
    64f8:	00001021 	move	v0,zero
    64fc:	24420001 	addiu	v0,v0,1
    6500:	304200ff 	andi	v0,v0,0xff
    6504:	2c430006 	sltiu	v1,v0,6
    6508:	1460fffd 	bnez	v1,0x6500
    650c:	24420001 	addiu	v0,v0,1
    6510:	26421568 	addiu	v0,s2,5480
    6514:	8c434000 	lw	v1,16384(v0)
    6518:	34028000 	li	v0,0x8000
    651c:	3063a000 	andi	v1,v1,0xa000
    6520:	10620079 	beq	v1,v0,0x6708
    6524:	24020001 	li	v0,1
    6528:	3c08b025 	lui	t0,0xb025
    652c:	3503004c 	ori	v1,t0,0x4c
    6530:	90620000 	lbu	v0,0(v1)
    6534:	00000000 	nop
    6538:	30420003 	andi	v0,v0,0x3
    653c:	10400038 	beqz	v0,0x6620
    6540:	26451568 	addiu	a1,s2,5480
    6544:	26491568 	addiu	t1,s2,5480
    6548:	8d224000 	lw	v0,16384(t1)
    654c:	00000000 	nop
    6550:	000213c2 	srl	v0,v0,0xf
    6554:	30420001 	andi	v0,v0,0x1
    6558:	14400031 	bnez	v0,0x6620
    655c:	00000000 	nop
    6560:	35050e00 	ori	a1,t0,0xe00
    6564:	8ca20000 	lw	v0,0(a1)
    6568:	00000000 	nop
    656c:	14400006 	bnez	v0,0x6588
    6570:	35070e10 	ori	a3,t0,0xe10
    6574:	8ce30000 	lw	v1,0(a3)
    6578:	3c023f3f 	lui	v0,0x3f3f
    657c:	34423f3f 	ori	v0,v0,0x3f3f
    6580:	10620026 	beq	v1,v0,0x661c
    6584:	00000000 	nop
    6588:	40016000 	mfc0	at,$12
    658c:	34210001 	ori	at,at,0x1
    6590:	38210001 	xori	at,at,0x1
    6594:	40816000 	mtc0	at,$12
    6598:	35020e08 	ori	v0,t0,0xe08
    659c:	35030e04 	ori	v1,t0,0xe04
    65a0:	8c440000 	lw	a0,0(v0)
    65a4:	8ca50000 	lw	a1,0(a1)
    65a8:	8c620000 	lw	v0,0(v1)
    65ac:	ad2442e8 	sw	a0,17128(t1)
    65b0:	ad2542ec 	sw	a1,17132(t1)
    65b4:	ad2242f0 	sw	v0,17136(t1)
    65b8:	35040e14 	ori	a0,t0,0xe14
    65bc:	8ce70000 	lw	a3,0(a3)
    65c0:	35050e18 	ori	a1,t0,0xe18
    65c4:	8c820000 	lw	v0,0(a0)
    65c8:	35060e1c 	ori	a2,t0,0xe1c
    65cc:	8ca30000 	lw	v1,0(a1)
    65d0:	92aa7e26 	lbu	t2,32294(s5)
    65d4:	8cc40000 	lw	a0,0(a2)
    65d8:	ad2242f8 	sw	v0,17144(t1)
    65dc:	24020022 	li	v0,34
    65e0:	ad2742f4 	sw	a3,17140(t1)
    65e4:	ad2342fc 	sw	v1,17148(t1)
    65e8:	1142008e 	beq	t2,v0,0x6824
    65ec:	ad244300 	sw	a0,17152(t1)
    65f0:	24020092 	li	v0,146
    65f4:	1142008c 	beq	t2,v0,0x6828
    65f8:	3502080d 	ori	v0,t0,0x80d
    65fc:	40016000 	mfc0	at,$12
    6600:	34210001 	ori	at,at,0x1
    6604:	40816000 	mtc0	at,$12
    6608:	26431568 	addiu	v1,s2,5480
    660c:	8c624000 	lw	v0,16384(v1)
    6610:	00000000 	nop
    6614:	34428000 	ori	v0,v0,0x8000
    6618:	ac624000 	sw	v0,16384(v1)
    661c:	26451568 	addiu	a1,s2,5480
    6620:	8ca24304 	lw	v0,17156(a1)
    6624:	00000000 	nop
    6628:	00021202 	srl	v0,v0,0x8
    662c:	1440000f 	bnez	v0,0x666c
    6630:	26421568 	addiu	v0,s2,5480
    6634:	3c02b025 	lui	v0,0xb025
    6638:	34420184 	ori	v0,v0,0x184
    663c:	8c440000 	lw	a0,0(v0)
    6640:	2403000d 	li	v1,13
    6644:	1083006f 	beq	a0,v1,0x6804
    6648:	2402003e 	li	v0,62
    664c:	2403004a 	li	v1,74
    6650:	a0a2431f 	sb	v0,17183(a1)
    6654:	24020045 	li	v0,69
    6658:	a0a3431c 	sb	v1,17180(a1)
    665c:	a0a2431d 	sb	v0,17181(a1)
    6660:	24030043 	li	v1,67
    6664:	a0a3431e 	sb	v1,17182(a1)
    6668:	26421568 	addiu	v0,s2,5480
    666c:	8c4363f0 	lw	v1,25584(v0)
    6670:	3c02b025 	lui	v0,0xb025
    6674:	34420c60 	ori	v0,v0,0xc60
    6678:	00031902 	srl	v1,v1,0x4
    667c:	306300ff 	andi	v1,v1,0xff
    6680:	a0430000 	sb	v1,0(v0)
    6684:	00001021 	move	v0,zero
    6688:	24420001 	addiu	v0,v0,1
    668c:	304200ff 	andi	v0,v0,0xff
    6690:	2c430006 	sltiu	v1,v0,6
    6694:	1460fffd 	bnez	v1,0x668c
    6698:	24420001 	addiu	v0,v0,1
    669c:	26451568 	addiu	a1,s2,5480
    66a0:	8ca44000 	lw	a0,16384(a1)
    66a4:	3402a000 	li	v0,0xa000
    66a8:	3083a000 	andi	v1,a0,0xa000
    66ac:	1062001d 	beq	v1,v0,0x6724
    66b0:	3402ffff 	li	v0,0xffff
    66b4:	8fbf0028 	lw	ra,40(sp)
    66b8:	8fb50024 	lw	s5,36(sp)
    66bc:	8fb40020 	lw	s4,32(sp)
    66c0:	8fb3001c 	lw	s3,28(sp)
    66c4:	8fb20018 	lw	s2,24(sp)
    66c8:	8fb10014 	lw	s1,20(sp)
    66cc:	8fb00010 	lw	s0,16(sp)
    66d0:	00001021 	move	v0,zero
    66d4:	03e00008 	jr	ra
    66d8:	27bd0030 	addiu	sp,sp,48
    66dc:	8cc263f0 	lw	v0,25584(a2)
    66e0:	00000000 	nop
    66e4:	00021102 	srl	v0,v0,0x4
    66e8:	08001923 	j	0x648c
    66ec:	3054007f 	andi	s4,v0,0x7f
    66f0:	26431568 	addiu	v1,s2,5480
    66f4:	8c6263f0 	lw	v0,25584(v1)
    66f8:	00000000 	nop
    66fc:	00021102 	srl	v0,v0,0x4
    6700:	08001923 	j	0x648c
    6704:	3054007f 	andi	s4,v0,0x7f
    6708:	12620058 	beq	s3,v0,0x686c
    670c:	24020004 	li	v0,4
    6710:	12620056 	beq	s3,v0,0x686c
    6714:	26431568 	addiu	v1,s2,5480
    6718:	2402ffff 	li	v0,-1
    671c:	08001936 	j	0x64d8
    6720:	a0624304 	sb	v0,17156(v1)
    6724:	8ca363f8 	lw	v1,25592(a1)
    6728:	00000000 	nop
    672c:	1062ffe1 	beq	v1,v0,0x66b4
    6730:	00041382 	srl	v0,a0,0xe
    6734:	30420001 	andi	v0,v0,0x1
    6738:	24030001 	li	v1,1
    673c:	1443ffdd 	bne	v0,v1,0x66b4
    6740:	3c02b025 	lui	v0,0xb025
    6744:	3442004c 	ori	v0,v0,0x4c
    6748:	90430000 	lbu	v1,0(v0)
    674c:	00000000 	nop
    6750:	30630003 	andi	v1,v1,0x3
    6754:	1060ffd7 	beqz	v1,0x66b4
    6758:	00000000 	nop
    675c:	8ca24320 	lw	v0,17184(a1)
    6760:	00000000 	nop
    6764:	14400005 	bnez	v0,0x677c
    6768:	26431568 	addiu	v1,s2,5480
    676c:	8ca24324 	lw	v0,17188(a1)
    6770:	00000000 	nop
    6774:	1040001f 	beqz	v0,0x67f4
    6778:	00000000 	nop
    677c:	946242e4 	lhu	v0,17124(v1)
    6780:	00000000 	nop
    6784:	2842001f 	slti	v0,v0,31
    6788:	14400007 	bnez	v0,0x67a8
    678c:	24020003 	li	v0,3
    6790:	8c624000 	lw	v0,16384(v1)
    6794:	24030002 	li	v1,2
    6798:	00021202 	srl	v0,v0,0x8
    679c:	3042000f 	andi	v0,v0,0xf
    67a0:	14430014 	bne	v0,v1,0x67f4
    67a4:	24020003 	li	v0,3
    67a8:	1262005e 	beq	s3,v0,0x6924
    67ac:	2a620004 	slti	v0,s3,4
    67b0:	10400040 	beqz	v0,0x68b4
    67b4:	24020004 	li	v0,4
    67b8:	12600064 	beqz	s3,0x694c
    67bc:	26431568 	addiu	v1,s2,5480
    67c0:	24020001 	li	v0,1
    67c4:	1662ffbb 	bne	s3,v0,0x66b4
    67c8:	00000000 	nop
    67cc:	9062431c 	lbu	v0,17180(v1)
    67d0:	00000000 	nop
    67d4:	0282102b 	sltu	v0,s4,v0
    67d8:	1040004e 	beqz	v0,0x6914
    67dc:	00000000 	nop
    67e0:	9062431f 	lbu	v0,17183(v1)
    67e4:	00000000 	nop
    67e8:	0054102b 	sltu	v0,v0,s4
    67ec:	1440003f 	bnez	v0,0x68ec
    67f0:	00000000 	nop
    67f4:	0c001880 	jal	0x6200
    67f8:	00000000 	nop
    67fc:	08001999 	j	0x6664
    6800:	00000000 	nop
    6804:	2402003b 	li	v0,59
    6808:	24030046 	li	v1,70
    680c:	a0a2431f 	sb	v0,17183(a1)
    6810:	a0a3431c 	sb	v1,17180(a1)
    6814:	24020041 	li	v0,65
    6818:	24030040 	li	v1,64
    681c:	08001985 	j	0x6614
    6820:	a0a2431d 	sb	v0,17181(a1)
    6824:	3502080d 	ori	v0,t0,0x80d
    6828:	90430000 	lbu	v1,0(v0)
    682c:	00000000 	nop
    6830:	3063000f 	andi	v1,v1,0xf
    6834:	2c620008 	sltiu	v0,v1,8
    6838:	3863000f 	xori	v1,v1,0xf
    683c:	1440ff6f 	bnez	v0,0x65fc
    6840:	24650001 	addiu	a1,v1,1
    6844:	00051600 	sll	v0,a1,0x18
    6848:	00052400 	sll	a0,a1,0x10
    684c:	00051a00 	sll	v1,a1,0x8
    6850:	00441025 	or	v0,v0,a0
    6854:	00431025 	or	v0,v0,v1
    6858:	00451025 	or	v0,v0,a1
    685c:	00651825 	or	v1,v1,a1
    6860:	ad234318 	sw	v1,17176(t1)
    6864:	0800196b 	j	0x65ac
    6868:	ad224314 	sw	v0,17172(t1)
    686c:	3c10000f 	lui	s0,0xf
    6870:	3c110001 	lui	s1,0x1
    6874:	3605ffff 	ori	a1,s0,0xffff
    6878:	362698f4 	ori	a2,s1,0x98f4
    687c:	0c00446a 	jal	0x111a8
    6880:	24040015 	li	a0,21
    6884:	0c000c54 	jal	0x3150
    6888:	24040064 	li	a0,100
    688c:	3605ffff 	ori	a1,s0,0xffff
    6890:	36263056 	ori	a2,s1,0x3056
    6894:	0c00446a 	jal	0x111a8
    6898:	2404001a 	li	a0,26
    689c:	0c000c54 	jal	0x3150
    68a0:	24040064 	li	a0,100
    68a4:	26431568 	addiu	v1,s2,5480
    68a8:	2402ffff 	li	v0,-1
    68ac:	08001936 	j	0x64d8
    68b0:	a0624304 	sb	v0,17156(v1)
    68b4:	12620011 	beq	s3,v0,0x68fc
    68b8:	240200ff 	li	v0,255
    68bc:	1662ff7d 	bne	s3,v0,0x66b4
    68c0:	26431568 	addiu	v1,s2,5480
    68c4:	9062431e 	lbu	v0,17182(v1)
    68c8:	00000000 	nop
    68cc:	0282102b 	sltu	v0,s4,v0
    68d0:	14400023 	bnez	v0,0x6960
    68d4:	00000000 	nop
    68d8:	9062431c 	lbu	v0,17180(v1)
    68dc:	00000000 	nop
    68e0:	0282102b 	sltu	v0,s4,v0
    68e4:	1040000b 	beqz	v0,0x6914
    68e8:	00000000 	nop
    68ec:	0c00183c 	jal	0x60f0
    68f0:	00000000 	nop
    68f4:	08001999 	j	0x6664
    68f8:	00000000 	nop
    68fc:	26431568 	addiu	v1,s2,5480
    6900:	9062431d 	lbu	v0,17181(v1)
    6904:	00000000 	nop
    6908:	0054102b 	sltu	v0,v0,s4
    690c:	1040fff7 	beqz	v0,0x68ec
    6910:	00000000 	nop
    6914:	0c0017fd 	jal	0x5ff4
    6918:	00000000 	nop
    691c:	08001999 	j	0x6664
    6920:	00000000 	nop
    6924:	26431568 	addiu	v1,s2,5480
    6928:	90624328 	lbu	v0,17192(v1)
    692c:	00000000 	nop
    6930:	0282102b 	sltu	v0,s4,v0
    6934:	1040ffaf 	beqz	v0,0x67f4
    6938:	00000000 	nop
    693c:	0c0018bd 	jal	0x62f4
    6940:	00000000 	nop
    6944:	08001999 	j	0x6664
    6948:	00000000 	nop
    694c:	9062431e 	lbu	v0,17182(v1)
    6950:	00000000 	nop
    6954:	0282102b 	sltu	v0,s4,v0
    6958:	1040ffe4 	beqz	v0,0x68ec
    695c:	00000000 	nop
    6960:	90624329 	lbu	v0,17193(v1)
    6964:	00000000 	nop
    6968:	0054102b 	sltu	v0,v0,s4
    696c:	1440ffa1 	bnez	v0,0x67f4
    6970:	00000000 	nop
    6974:	0c0018bd 	jal	0x62f4
    6978:	00000000 	nop
    697c:	08001999 	j	0x6664
    6980:	00000000 	nop
    6984:	3c088002 	lui	t0,0x8002
    6988:	25051568 	addiu	a1,t0,5480
    698c:	8ca463f0 	lw	a0,25584(a1)
    6990:	90a342e6 	lbu	v1,17126(a1)
    6994:	00041102 	srl	v0,a0,0x4
    6998:	14600026 	bnez	v1,0x6a34
    699c:	3046007f 	andi	a2,v0,0x7f
    69a0:	3c07b025 	lui	a3,0xb025
    69a4:	34e2004c 	ori	v0,a3,0x4c
    69a8:	90430000 	lbu	v1,0(v0)
    69ac:	00000000 	nop
    69b0:	10600020 	beqz	v1,0x6a34
    69b4:	00000000 	nop
    69b8:	3402ffff 	li	v0,0xffff
    69bc:	1082001d 	beq	a0,v0,0x6a34
    69c0:	00000000 	nop
    69c4:	34e30800 	ori	v1,a3,0x800
    69c8:	90620000 	lbu	v0,0(v1)
    69cc:	00000000 	nop
    69d0:	30420001 	andi	v0,v0,0x1
    69d4:	10400019 	beqz	v0,0x6a3c
    69d8:	2cc2004b 	sltiu	v0,a2,75
    69dc:	1040003e 	beqz	v0,0x6ad8
    69e0:	24040001 	li	a0,1
    69e4:	24c2ffd8 	addiu	v0,a2,-40
    69e8:	2c42001e 	sltiu	v0,v0,30
    69ec:	10400049 	beqz	v0,0x6b14
    69f0:	2cc20023 	sltiu	v0,a2,35
    69f4:	25041568 	addiu	a0,t0,5480
    69f8:	908242d3 	lbu	v0,17107(a0)
    69fc:	00000000 	nop
    6a00:	10400044 	beqz	v0,0x6b14
    6a04:	2cc20023 	sltiu	v0,a2,35
    6a08:	3c02b025 	lui	v0,0xb025
    6a0c:	34420c87 	ori	v0,v0,0xc87
    6a10:	24030020 	li	v1,32
    6a14:	a0430000 	sb	v1,0(v0)
    6a18:	a08042d3 	sb	zero,17107(a0)
    6a1c:	00001021 	move	v0,zero
    6a20:	24420001 	addiu	v0,v0,1
    6a24:	304200ff 	andi	v0,v0,0xff
    6a28:	2c430006 	sltiu	v1,v0,6
    6a2c:	1460fffc 	bnez	v1,0x6a20
    6a30:	00000000 	nop
    6a34:	03e00008 	jr	ra
    6a38:	00001021 	move	v0,zero
    6a3c:	10400017 	beqz	v0,0x6a9c
    6a40:	24040001 	li	a0,1
    6a44:	24c2ffd8 	addiu	v0,a2,-40
    6a48:	2c42001e 	sltiu	v0,v0,30
    6a4c:	10400044 	beqz	v0,0x6b60
    6a50:	2cc20023 	sltiu	v0,a2,35
    6a54:	25041568 	addiu	a0,t0,5480
    6a58:	908242d3 	lbu	v0,17107(a0)
    6a5c:	00000000 	nop
    6a60:	1040003f 	beqz	v0,0x6b60
    6a64:	2cc20023 	sltiu	v0,a2,35
    6a68:	3c02b025 	lui	v0,0xb025
    6a6c:	34420c30 	ori	v0,v0,0xc30
    6a70:	24030044 	li	v1,68
    6a74:	a0430000 	sb	v1,0(v0)
    6a78:	a08042d3 	sb	zero,17107(a0)
    6a7c:	00001021 	move	v0,zero
    6a80:	24420001 	addiu	v0,v0,1
    6a84:	304200ff 	andi	v0,v0,0xff
    6a88:	2c430006 	sltiu	v1,v0,6
    6a8c:	1460fffc 	bnez	v1,0x6a80
    6a90:	00000000 	nop
    6a94:	03e00008 	jr	ra
    6a98:	00001021 	move	v0,zero
    6a9c:	90a242d3 	lbu	v0,17107(a1)
    6aa0:	00000000 	nop
    6aa4:	1044ffe7 	beq	v0,a0,0x6a44
    6aa8:	24020043 	li	v0,67
    6aac:	34e30c30 	ori	v1,a3,0xc30
    6ab0:	a0a442d3 	sb	a0,17107(a1)
    6ab4:	a0620000 	sb	v0,0(v1)
    6ab8:	00001021 	move	v0,zero
    6abc:	24420001 	addiu	v0,v0,1
    6ac0:	304200ff 	andi	v0,v0,0xff
    6ac4:	2c430006 	sltiu	v1,v0,6
    6ac8:	1460fffc 	bnez	v1,0x6abc
    6acc:	00000000 	nop
    6ad0:	03e00008 	jr	ra
    6ad4:	00001021 	move	v0,zero
    6ad8:	90a242d3 	lbu	v0,17107(a1)
    6adc:	00000000 	nop
    6ae0:	1044ffc0 	beq	v0,a0,0x69e4
    6ae4:	24020010 	li	v0,16
    6ae8:	34e30c87 	ori	v1,a3,0xc87
    6aec:	a0a442d3 	sb	a0,17107(a1)
    6af0:	a0620000 	sb	v0,0(v1)
    6af4:	00001021 	move	v0,zero
    6af8:	24420001 	addiu	v0,v0,1
    6afc:	304200ff 	andi	v0,v0,0xff
    6b00:	2c430006 	sltiu	v1,v0,6
    6b04:	1460fffc 	bnez	v1,0x6af8
    6b08:	00000000 	nop
    6b0c:	03e00008 	jr	ra
    6b10:	00001021 	move	v0,zero
    6b14:	1040ffc7 	beqz	v0,0x6a34
    6b18:	00000000 	nop
    6b1c:	25041568 	addiu	a0,t0,5480
    6b20:	908242d3 	lbu	v0,17107(a0)
    6b24:	24030002 	li	v1,2
    6b28:	1043ffc2 	beq	v0,v1,0x6a34
    6b2c:	00000000 	nop
    6b30:	3c02b025 	lui	v0,0xb025
    6b34:	34420c87 	ori	v0,v0,0xc87
    6b38:	a08342d3 	sb	v1,17107(a0)
    6b3c:	a0400000 	sb	zero,0(v0)
    6b40:	00001021 	move	v0,zero
    6b44:	24420001 	addiu	v0,v0,1
    6b48:	304200ff 	andi	v0,v0,0xff
    6b4c:	2c430006 	sltiu	v1,v0,6
    6b50:	1460fffc 	bnez	v1,0x6b44
    6b54:	00000000 	nop
    6b58:	03e00008 	jr	ra
    6b5c:	00001021 	move	v0,zero
    6b60:	1040ffb4 	beqz	v0,0x6a34
    6b64:	00000000 	nop
    6b68:	25041568 	addiu	a0,t0,5480
    6b6c:	908242d3 	lbu	v0,17107(a0)
    6b70:	24030002 	li	v1,2
    6b74:	1043ffaf 	beq	v0,v1,0x6a34
    6b78:	00000000 	nop
    6b7c:	3c02b025 	lui	v0,0xb025
    6b80:	a08342d3 	sb	v1,17107(a0)
    6b84:	34420c30 	ori	v0,v0,0xc30
    6b88:	24030042 	li	v1,66
    6b8c:	a0430000 	sb	v1,0(v0)
    6b90:	00001021 	move	v0,zero
    6b94:	24420001 	addiu	v0,v0,1
    6b98:	304200ff 	andi	v0,v0,0xff
    6b9c:	2c430006 	sltiu	v1,v0,6
    6ba0:	1460fffc 	bnez	v1,0x6b94
    6ba4:	00000000 	nop
    6ba8:	03e00008 	jr	ra
    6bac:	00001021 	move	v0,zero
    6bb0:	308dffff 	andi	t5,a0,0xffff
    6bb4:	400f6000 	mfc0	t7,$12
    6bb8:	35e10001 	ori	at,t7,0x1
    6bbc:	38210001 	xori	at,at,0x1
    6bc0:	40816000 	mtc0	at,$12
    6bc4:	3c068002 	lui	a2,0x8002
    6bc8:	24ce1568 	addiu	t6,a2,5480
    6bcc:	91c24b7e 	lbu	v0,19326(t6)
    6bd0:	00000000 	nop
    6bd4:	1040001d 	beqz	v0,0x6c4c
    6bd8:	3c03b025 	lui	v1,0xb025
    6bdc:	34640238 	ori	a0,v1,0x238
    6be0:	2402ff80 	li	v0,-128
    6be4:	a0820000 	sb	v0,0(a0)
    6be8:	346a0234 	ori	t2,v1,0x234
    6bec:	346501d2 	ori	a1,v1,0x1d2
    6bf0:	346601d6 	ori	a2,v1,0x1d6
    6bf4:	346701da 	ori	a3,v1,0x1da
    6bf8:	346301de 	ori	v1,v1,0x1de
    6bfc:	94a80000 	lhu	t0,0(a1)
    6c00:	94c90000 	lhu	t1,0(a2)
    6c04:	94eb0000 	lhu	t3,0(a3)
    6c08:	946c0000 	lhu	t4,0(v1)
    6c0c:	95440000 	lhu	a0,0(t2)
    6c10:	25a2feb0 	addiu	v0,t5,-336
    6c14:	304dffff 	andi	t5,v0,0xffff
    6c18:	a5c44b7c 	sh	a0,19324(t6)
    6c1c:	a4a00000 	sh	zero,0(a1)
    6c20:	a5c84b74 	sh	t0,19316(t6)
    6c24:	a4c00000 	sh	zero,0(a2)
    6c28:	a5c94b76 	sh	t1,19318(t6)
    6c2c:	a4e00000 	sh	zero,0(a3)
    6c30:	a5cb4b78 	sh	t3,19320(t6)
    6c34:	a4600000 	sh	zero,0(v1)
    6c38:	a54d0000 	sh	t5,0(t2)
    6c3c:	a5cc4b7a 	sh	t4,19322(t6)
    6c40:	408f6000 	mtc0	t7,$12
    6c44:	03e00008 	jr	ra
    6c48:	00000000 	nop
    6c4c:	3c02b02a 	lui	v0,0xb02a
    6c50:	3445000a 	ori	a1,v0,0xa
    6c54:	24030063 	li	v1,99
    6c58:	3404ffff 	li	a0,0xffff
    6c5c:	90a20000 	lbu	v0,0(a1)
    6c60:	00000000 	nop
    6c64:	1040000a 	beqz	v0,0x6c90
    6c68:	24c21568 	addiu	v0,a2,5480
    6c6c:	24020064 	li	v0,100
    6c70:	2442ffff 	addiu	v0,v0,-1
    6c74:	3042ffff 	andi	v0,v0,0xffff
    6c78:	1440fffe 	bnez	v0,0x6c74
    6c7c:	2442ffff 	addiu	v0,v0,-1
    6c80:	2462ffff 	addiu	v0,v1,-1
    6c84:	3043ffff 	andi	v1,v0,0xffff
    6c88:	1464fff4 	bne	v1,a0,0x6c5c
    6c8c:	24c21568 	addiu	v0,a2,5480
    6c90:	94484b7c 	lhu	t0,19324(v0)
    6c94:	94474b7a 	lhu	a3,19322(v0)
    6c98:	94494b74 	lhu	t1,19316(v0)
    6c9c:	944a4b76 	lhu	t2,19318(v0)
    6ca0:	944b4b78 	lhu	t3,19320(v0)
    6ca4:	3c03b025 	lui	v1,0xb025
    6ca8:	346c0238 	ori	t4,v1,0x238
    6cac:	34620234 	ori	v0,v1,0x234
    6cb0:	346401d2 	ori	a0,v1,0x1d2
    6cb4:	346501d6 	ori	a1,v1,0x1d6
    6cb8:	346601da 	ori	a2,v1,0x1da
    6cbc:	346301de 	ori	v1,v1,0x1de
    6cc0:	a4480000 	sh	t0,0(v0)
    6cc4:	a4890000 	sh	t1,0(a0)
    6cc8:	a4aa0000 	sh	t2,0(a1)
    6ccc:	a4cb0000 	sh	t3,0(a2)
    6cd0:	a4670000 	sh	a3,0(v1)
    6cd4:	a1800000 	sb	zero,0(t4)
    6cd8:	408f6000 	mtc0	t7,$12
    6cdc:	03e00008 	jr	ra
    6ce0:	00000000 	nop
    6ce4:	3c02b025 	lui	v0,0xb025
    6ce8:	34430008 	ori	v1,v0,0x8
    6cec:	94640000 	lhu	a0,0(v1)
    6cf0:	34490003 	ori	t1,v0,0x3
    6cf4:	34450040 	ori	a1,v0,0x40
    6cf8:	00042400 	sll	a0,a0,0x10
    6cfc:	00042403 	sra	a0,a0,0x10
    6d00:	240a77fc 	li	t2,30716
    6d04:	34460300 	ori	a2,v0,0x300
    6d08:	34470304 	ori	a3,v0,0x304
    6d0c:	0480000f 	bltz	a0,0x6d4c
    6d10:	34480023 	ori	t0,v0,0x23
    6d14:	91220000 	lbu	v0,0(t1)
    6d18:	2403fffe 	li	v1,-2
    6d1c:	00431024 	and	v0,v0,v1
    6d20:	a1220000 	sb	v0,0(t1)
    6d24:	24020022 	li	v0,34
    6d28:	acc00000 	sw	zero,0(a2)
    6d2c:	ace00000 	sw	zero,0(a3)
    6d30:	a1020000 	sb	v0,0(t0)
    6d34:	240237fc 	li	v0,14332
    6d38:	a4aa0000 	sh	t2,0(a1)
    6d3c:	a4a20000 	sh	v0,0(a1)
    6d40:	a4aa0000 	sh	t2,0(a1)
    6d44:	a4a00000 	sh	zero,0(a1)
    6d48:	a4a00000 	sh	zero,0(a1)
    6d4c:	03e00008 	jr	ra
    6d50:	00000000 	nop
    6d54:	27bdffd0 	addiu	sp,sp,-48
    6d58:	afb1001c 	sw	s1,28(sp)
    6d5c:	afbf002c 	sw	ra,44(sp)
    6d60:	afb40028 	sw	s4,40(sp)
    6d64:	afb30024 	sw	s3,36(sp)
    6d68:	afb20020 	sw	s2,32(sp)
    6d6c:	afb00018 	sw	s0,24(sp)
    6d70:	2411ffff 	li	s1,-1
    6d74:	3c138002 	lui	s3,0x8002
    6d78:	3c02b041 	lui	v0,0xb041
    6d7c:	26661568 	addiu	a2,s3,5480
    6d80:	34420004 	ori	v0,v0,0x4
    6d84:	8c470000 	lw	a3,0(v0)
    6d88:	8cc54b08 	lw	a1,19208(a2)
    6d8c:	3c038002 	lui	v1,0x8002
    6d90:	90647e2e 	lbu	a0,32302(v1)
    6d94:	8cc84b04 	lw	t0,19204(a2)
    6d98:	3c028002 	lui	v0,0x8002
    6d9c:	90497e50 	lbu	t1,32336(v0)
    6da0:	3c0ab025 	lui	t2,0xb025
    6da4:	00a79025 	or	s2,a1,a3
    6da8:	354203b0 	ori	v0,t2,0x3b0
    6dac:	ac520000 	sw	s2,0(v0)
    6db0:	00042400 	sll	a0,a0,0x10
    6db4:	ac480000 	sw	t0,0(v0)
    6db8:	35430284 	ori	v1,t2,0x284
    6dbc:	3545028c 	ori	a1,t2,0x28c
    6dc0:	24020001 	li	v0,1
    6dc4:	ac720000 	sw	s2,0(v1)
    6dc8:	aca40000 	sw	a0,0(a1)
    6dcc:	1122048e 	beq	t1,v0,0x8008
    6dd0:	acd24b08 	sw	s2,19208(a2)
    6dd4:	26701568 	addiu	s0,s3,5480
    6dd8:	8e024b04 	lw	v0,19204(s0)
    6ddc:	00000000 	nop
    6de0:	00521024 	and	v0,v0,s2
    6de4:	30420001 	andi	v0,v0,0x1
    6de8:	10400034 	beqz	v0,0x6ebc
    6dec:	3c148002 	lui	s4,0x8002
    6df0:	3c0bb025 	lui	t3,0xb025
    6df4:	356303b0 	ori	v1,t3,0x3b0
    6df8:	24040001 	li	a0,1
    6dfc:	ac640000 	sw	a0,0(v1)
    6e00:	35620004 	ori	v0,t3,0x4
    6e04:	8c4a0000 	lw	t2,0(v0)
    6e08:	8e0c4b08 	lw	t4,19208(s0)
    6e0c:	3c020040 	lui	v0,0x40
    6e10:	01421024 	and	v0,t2,v0
    6e14:	1440046f 	bnez	v0,0x7fd4
    6e18:	39830001 	xori	v1,t4,0x1
    6e1c:	92827e22 	lbu	v0,32290(s4)
    6e20:	00000000 	nop
    6e24:	3042000f 	andi	v0,v0,0xf
    6e28:	104404ca 	beq	v0,a0,0x8154
    6e2c:	ae034b08 	sw	v1,19208(s0)
    6e30:	3c02bd20 	lui	v0,0xbd20
    6e34:	356502ec 	ori	a1,t3,0x2ec
    6e38:	3568004d 	ori	t0,t3,0x4d
    6e3c:	356902f1 	ori	t1,t3,0x2f1
    6e40:	24070008 	li	a3,8
    6e44:	34420278 	ori	v0,v0,0x278
    6e48:	a4440000 	sh	a0,0(v0)
    6e4c:	a1000000 	sb	zero,0(t0)
    6e50:	a1270000 	sb	a3,0(t1)
    6e54:	aca00000 	sw	zero,0(a1)
    6e58:	8ca20000 	lw	v0,0(a1)
    6e5c:	3c0300ff 	lui	v1,0xff
    6e60:	3c040080 	lui	a0,0x80
    6e64:	304a00ff 	andi	t2,v0,0xff
    6e68:	01435025 	or	t2,t2,v1
    6e6c:	01442024 	and	a0,t2,a0
    6e70:	356602f2 	ori	a2,t3,0x2f2
    6e74:	356a000a 	ori	t2,t3,0xa
    6e78:	2402ff80 	li	v0,-128
    6e7c:	a1000000 	sb	zero,0(t0)
    6e80:	a1270000 	sb	a3,0(t1)
    6e84:	aca30000 	sw	v1,0(a1)
    6e88:	aca30000 	sw	v1,0(a1)
    6e8c:	a0c00000 	sb	zero,0(a2)
    6e90:	a1420000 	sb	v0,0(t2)
    6e94:	10800004 	beqz	a0,0x6ea8
    6e98:	35620002 	ori	v0,t3,0x2
    6e9c:	2402ff84 	li	v0,-124
    6ea0:	a1420000 	sb	v0,0(t2)
    6ea4:	35620002 	ori	v0,t3,0x2
    6ea8:	94430000 	lhu	v1,0(v0)
    6eac:	2404bfff 	li	a0,-16385
    6eb0:	ae0c4b08 	sw	t4,19208(s0)
    6eb4:	00641824 	and	v1,v1,a0
    6eb8:	a4430000 	sh	v1,0(v0)
    6ebc:	26661568 	addiu	a2,s3,5480
    6ec0:	8cc24b04 	lw	v0,19204(a2)
    6ec4:	00000000 	nop
    6ec8:	00522824 	and	a1,v0,s2
    6ecc:	30a30004 	andi	v1,a1,0x4
    6ed0:	10600009 	beqz	v1,0x6ef8
    6ed4:	30a20008 	andi	v0,a1,0x8
    6ed8:	8cc24b08 	lw	v0,19208(a2)
    6edc:	3c03b025 	lui	v1,0xb025
    6ee0:	24040004 	li	a0,4
    6ee4:	38420004 	xori	v0,v0,0x4
    6ee8:	346303b0 	ori	v1,v1,0x3b0
    6eec:	ac640000 	sw	a0,0(v1)
    6ef0:	acc24b08 	sw	v0,19208(a2)
    6ef4:	30a20008 	andi	v0,a1,0x8
    6ef8:	10400006 	beqz	v0,0x6f14
    6efc:	30a20010 	andi	v0,a1,0x10
    6f00:	8cc24b08 	lw	v0,19208(a2)
    6f04:	00000000 	nop
    6f08:	38420008 	xori	v0,v0,0x8
    6f0c:	acc24b08 	sw	v0,19208(a2)
    6f10:	30a20010 	andi	v0,a1,0x10
    6f14:	10400006 	beqz	v0,0x6f30
    6f18:	30a20020 	andi	v0,a1,0x20
    6f1c:	8cc24b08 	lw	v0,19208(a2)
    6f20:	00000000 	nop
    6f24:	38420010 	xori	v0,v0,0x10
    6f28:	acc24b08 	sw	v0,19208(a2)
    6f2c:	30a20020 	andi	v0,a1,0x20
    6f30:	10400006 	beqz	v0,0x6f4c
    6f34:	30a20040 	andi	v0,a1,0x40
    6f38:	8cc24b08 	lw	v0,19208(a2)
    6f3c:	00000000 	nop
    6f40:	38420020 	xori	v0,v0,0x20
    6f44:	acc24b08 	sw	v0,19208(a2)
    6f48:	30a20040 	andi	v0,a1,0x40
    6f4c:	10400006 	beqz	v0,0x6f68
    6f50:	30a20080 	andi	v0,a1,0x80
    6f54:	8cc24b08 	lw	v0,19208(a2)
    6f58:	00000000 	nop
    6f5c:	38420040 	xori	v0,v0,0x40
    6f60:	acc24b08 	sw	v0,19208(a2)
    6f64:	30a20080 	andi	v0,a1,0x80
    6f68:	10400006 	beqz	v0,0x6f84
    6f6c:	30a20100 	andi	v0,a1,0x100
    6f70:	8cc24b08 	lw	v0,19208(a2)
    6f74:	00000000 	nop
    6f78:	38420080 	xori	v0,v0,0x80
    6f7c:	acc24b08 	sw	v0,19208(a2)
    6f80:	30a20100 	andi	v0,a1,0x100
    6f84:	10400006 	beqz	v0,0x6fa0
    6f88:	30a20200 	andi	v0,a1,0x200
    6f8c:	8cc24b08 	lw	v0,19208(a2)
    6f90:	00000000 	nop
    6f94:	38420100 	xori	v0,v0,0x100
    6f98:	acc24b08 	sw	v0,19208(a2)
    6f9c:	30a20200 	andi	v0,a1,0x200
    6fa0:	10400006 	beqz	v0,0x6fbc
    6fa4:	30a20400 	andi	v0,a1,0x400
    6fa8:	8cc24b08 	lw	v0,19208(a2)
    6fac:	00000000 	nop
    6fb0:	38420200 	xori	v0,v0,0x200
    6fb4:	acc24b08 	sw	v0,19208(a2)
    6fb8:	30a20400 	andi	v0,a1,0x400
    6fbc:	10400005 	beqz	v0,0x6fd4
    6fc0:	00000000 	nop
    6fc4:	8cc24b08 	lw	v0,19208(a2)
    6fc8:	00000000 	nop
    6fcc:	38420400 	xori	v0,v0,0x400
    6fd0:	acc24b08 	sw	v0,19208(a2)
    6fd4:	30a20800 	andi	v0,a1,0x800
    6fd8:	10400036 	beqz	v0,0x70b4
    6fdc:	3c03b02a 	lui	v1,0xb02a
    6fe0:	8c6a0000 	lw	t2,0(v1)
    6fe4:	240200ff 	li	v0,255
    6fe8:	314400ff 	andi	a0,t2,0xff
    6fec:	1082002c 	beq	a0,v0,0x70a0
    6ff0:	31428000 	andi	v0,t2,0x8000
    6ff4:	14400415 	bnez	v0,0x804c
    6ff8:	3c028000 	lui	v0,0x8000
    6ffc:	3c02ff00 	lui	v0,0xff00
    7000:	01421024 	and	v0,t2,v0
    7004:	1040000b 	beqz	v0,0x7034
    7008:	240200ff 	li	v0,255
    700c:	90c2649c 	lbu	v0,25756(a2)
    7010:	3c03b020 	lui	v1,0xb020
    7014:	00021200 	sll	v0,v0,0x8
    7018:	00431021 	addu	v0,v0,v1
    701c:	8c4a000c 	lw	t2,12(v0)
    7020:	3c03b025 	lui	v1,0xb025
    7024:	346303b0 	ori	v1,v1,0x3b0
    7028:	ac6a0000 	sw	t2,0(v1)
    702c:	314400ff 	andi	a0,t2,0xff
    7030:	240200ff 	li	v0,255
    7034:	1082001a 	beq	a0,v0,0x70a0
    7038:	26701568 	addiu	s0,s3,5480
    703c:	314300ff 	andi	v1,t2,0xff
    7040:	8e056554 	lw	a1,25940(s0)
    7044:	3c021020 	lui	v0,0x1020
    7048:	00031a00 	sll	v1,v1,0x8
    704c:	00621821 	addu	v1,v1,v0
    7050:	00603021 	move	a2,v1
    7054:	ae0364e8 	sw	v1,25832(s0)
    7058:	00002021 	move	a0,zero
    705c:	a20a649c 	sb	t2,25756(s0)
    7060:	24070040 	li	a3,64
    7064:	0c000110 	jal	0x440
    7068:	afa00010 	sw	zero,16(sp)
    706c:	8e054b04 	lw	a1,19204(s0)
    7070:	3c068002 	lui	a2,0x8002
    7074:	8cc47f04 	lw	a0,32516(a2)
    7078:	2402c7ff 	li	v0,-14337
    707c:	00a22824 	and	a1,a1,v0
    7080:	3c02b025 	lui	v0,0xb025
    7084:	34840004 	ori	a0,a0,0x4
    7088:	34420380 	ori	v0,v0,0x380
    708c:	3c03b041 	lui	v1,0xb041
    7090:	ac440000 	sw	a0,0(v0)
    7094:	ac650000 	sw	a1,0(v1)
    7098:	acc47f04 	sw	a0,32516(a2)
    709c:	ae054b04 	sw	a1,19204(s0)
    70a0:	26631568 	addiu	v1,s3,5480
    70a4:	8c624b08 	lw	v0,19208(v1)
    70a8:	00000000 	nop
    70ac:	38420800 	xori	v0,v0,0x800
    70b0:	ac624b08 	sw	v0,19208(v1)
    70b4:	26651568 	addiu	a1,s3,5480
    70b8:	8ca24b04 	lw	v0,19204(a1)
    70bc:	00000000 	nop
    70c0:	00521024 	and	v0,v0,s2
    70c4:	30421000 	andi	v0,v0,0x1000
    70c8:	10400038 	beqz	v0,0x71ac
    70cc:	3c02b02a 	lui	v0,0xb02a
    70d0:	34430008 	ori	v1,v0,0x8
    70d4:	8c6a0000 	lw	t2,0(v1)
    70d8:	240200ff 	li	v0,255
    70dc:	314400ff 	andi	a0,t2,0xff
    70e0:	1082002c 	beq	a0,v0,0x7194
    70e4:	31428000 	andi	v0,t2,0x8000
    70e8:	144003db 	bnez	v0,0x8058
    70ec:	3c028000 	lui	v0,0x8000
    70f0:	3c02ff00 	lui	v0,0xff00
    70f4:	01421024 	and	v0,t2,v0
    70f8:	1040000b 	beqz	v0,0x7128
    70fc:	240200ff 	li	v0,255
    7100:	90a264a4 	lbu	v0,25764(a1)
    7104:	3c03b020 	lui	v1,0xb020
    7108:	00021200 	sll	v0,v0,0x8
    710c:	00431021 	addu	v0,v0,v1
    7110:	8c4a000c 	lw	t2,12(v0)
    7114:	3c03b025 	lui	v1,0xb025
    7118:	346303b0 	ori	v1,v1,0x3b0
    711c:	ac6a0000 	sw	t2,0(v1)
    7120:	314400ff 	andi	a0,t2,0xff
    7124:	240200ff 	li	v0,255
    7128:	1082001a 	beq	a0,v0,0x7194
    712c:	26701568 	addiu	s0,s3,5480
    7130:	314300ff 	andi	v1,t2,0xff
    7134:	8e05656c 	lw	a1,25964(s0)
    7138:	3c021020 	lui	v0,0x1020
    713c:	00031a00 	sll	v1,v1,0x8
    7140:	00621821 	addu	v1,v1,v0
    7144:	00603021 	move	a2,v1
    7148:	ae036500 	sw	v1,25856(s0)
    714c:	24040001 	li	a0,1
    7150:	a20a64a4 	sb	t2,25764(s0)
    7154:	24070040 	li	a3,64
    7158:	0c000110 	jal	0x440
    715c:	afa00010 	sw	zero,16(sp)
    7160:	8e054b04 	lw	a1,19204(s0)
    7164:	3c068002 	lui	a2,0x8002
    7168:	8cc47f04 	lw	a0,32516(a2)
    716c:	2402c7ff 	li	v0,-14337
    7170:	00a22824 	and	a1,a1,v0
    7174:	3c02b025 	lui	v0,0xb025
    7178:	34840010 	ori	a0,a0,0x10
    717c:	34420380 	ori	v0,v0,0x380
    7180:	3c03b041 	lui	v1,0xb041
    7184:	ac440000 	sw	a0,0(v0)
    7188:	ac650000 	sw	a1,0(v1)
    718c:	acc47f04 	sw	a0,32516(a2)
    7190:	ae054b04 	sw	a1,19204(s0)
    7194:	26631568 	addiu	v1,s3,5480
    7198:	8c624b08 	lw	v0,19208(v1)
    719c:	00000000 	nop
    71a0:	38421000 	xori	v0,v0,0x1000
    71a4:	ac624b08 	sw	v0,19208(v1)
    71a8:	26651568 	addiu	a1,s3,5480
    71ac:	8ca24b04 	lw	v0,19204(a1)
    71b0:	00000000 	nop
    71b4:	00521024 	and	v0,v0,s2
    71b8:	30422000 	andi	v0,v0,0x2000
    71bc:	10400037 	beqz	v0,0x729c
    71c0:	3c02b02a 	lui	v0,0xb02a
    71c4:	34430004 	ori	v1,v0,0x4
    71c8:	8c6a0000 	lw	t2,0(v1)
    71cc:	240200ff 	li	v0,255
    71d0:	314400ff 	andi	a0,t2,0xff
    71d4:	108203bf 	beq	a0,v0,0x80d4
    71d8:	31428000 	andi	v0,t2,0x8000
    71dc:	144003a1 	bnez	v0,0x8064
    71e0:	3c028000 	lui	v0,0x8000
    71e4:	3c02ff00 	lui	v0,0xff00
    71e8:	01421024 	and	v0,t2,v0
    71ec:	1040000b 	beqz	v0,0x721c
    71f0:	240200ff 	li	v0,255
    71f4:	90a264a0 	lbu	v0,25760(a1)
    71f8:	3c03b020 	lui	v1,0xb020
    71fc:	00021200 	sll	v0,v0,0x8
    7200:	00431021 	addu	v0,v0,v1
    7204:	8c4a000c 	lw	t2,12(v0)
    7208:	3c03b025 	lui	v1,0xb025
    720c:	346303b0 	ori	v1,v1,0x3b0
    7210:	ac6a0000 	sw	t2,0(v1)
    7214:	314400ff 	andi	a0,t2,0xff
    7218:	240200ff 	li	v0,255
    721c:	1082001a 	beq	a0,v0,0x7288
    7220:	26701568 	addiu	s0,s3,5480
    7224:	314300ff 	andi	v1,t2,0xff
    7228:	8e056560 	lw	a1,25952(s0)
    722c:	3c021020 	lui	v0,0x1020
    7230:	00031a00 	sll	v1,v1,0x8
    7234:	00621821 	addu	v1,v1,v0
    7238:	00603021 	move	a2,v1
    723c:	ae0364f4 	sw	v1,25844(s0)
    7240:	24040001 	li	a0,1
    7244:	a20a64a0 	sb	t2,25760(s0)
    7248:	24070040 	li	a3,64
    724c:	0c000110 	jal	0x440
    7250:	afa00010 	sw	zero,16(sp)
    7254:	8e054b04 	lw	a1,19204(s0)
    7258:	3c068002 	lui	a2,0x8002
    725c:	8cc47f04 	lw	a0,32516(a2)
    7260:	2402c7ff 	li	v0,-14337
    7264:	00a22824 	and	a1,a1,v0
    7268:	3c02b025 	lui	v0,0xb025
    726c:	34840020 	ori	a0,a0,0x20
    7270:	34420380 	ori	v0,v0,0x380
    7274:	3c03b041 	lui	v1,0xb041
    7278:	ac440000 	sw	a0,0(v0)
    727c:	ac650000 	sw	a1,0(v1)
    7280:	acc47f04 	sw	a0,32516(a2)
    7284:	ae054b04 	sw	a1,19204(s0)
    7288:	26631568 	addiu	v1,s3,5480
    728c:	8c624b08 	lw	v0,19208(v1)
    7290:	00000000 	nop
    7294:	38422000 	xori	v0,v0,0x2000
    7298:	ac624b08 	sw	v0,19208(v1)
    729c:	26651568 	addiu	a1,s3,5480
    72a0:	8ca24b04 	lw	v0,19204(a1)
    72a4:	00000000 	nop
    72a8:	00521024 	and	v0,v0,s2
    72ac:	30428000 	andi	v0,v0,0x8000
    72b0:	10400059 	beqz	v0,0x7418
    72b4:	3c06b02a 	lui	a2,0xb02a
    72b8:	34c3000c 	ori	v1,a2,0xc
    72bc:	8c6a0000 	lw	t2,0(v1)
    72c0:	240700ff 	li	a3,255
    72c4:	314400ff 	andi	a0,t2,0xff
    72c8:	10870373 	beq	a0,a3,0x8098
    72cc:	31428000 	andi	v0,t2,0x8000
    72d0:	14400024 	bnez	v0,0x7364
    72d4:	3c028000 	lui	v0,0x8000
    72d8:	3c02ff00 	lui	v0,0xff00
    72dc:	01421024 	and	v0,t2,v0
    72e0:	10400022 	beqz	v0,0x736c
    72e4:	240200ff 	li	v0,255
    72e8:	34c60040 	ori	a2,a2,0x40
    72ec:	90c20000 	lbu	v0,0(a2)
    72f0:	00000000 	nop
    72f4:	304400ff 	andi	a0,v0,0xff
    72f8:	1087000f 	beq	a0,a3,0x7338
    72fc:	26621568 	addiu	v0,s3,5480
    7300:	a0a4647c 	sb	a0,25724(a1)
    7304:	90c20000 	lbu	v0,0(a2)
    7308:	308300ff 	andi	v1,a0,0xff
    730c:	304400ff 	andi	a0,v0,0xff
    7310:	10830009 	beq	a0,v1,0x7338
    7314:	26621568 	addiu	v0,s3,5480
    7318:	00a03821 	move	a3,a1
    731c:	00c02821 	move	a1,a2
    7320:	90a20000 	lbu	v0,0(a1)
    7324:	00801821 	move	v1,a0
    7328:	1462fffd 	bne	v1,v0,0x7320
    732c:	304400ff 	andi	a0,v0,0xff
    7330:	a0e3647c 	sb	v1,25724(a3)
    7334:	26621568 	addiu	v0,s3,5480
    7338:	9043647c 	lbu	v1,25724(v0)
    733c:	3c02b020 	lui	v0,0xb020
    7340:	00031a00 	sll	v1,v1,0x8
    7344:	00621821 	addu	v1,v1,v0
    7348:	8c6a000c 	lw	t2,12(v1)
    734c:	3c02b025 	lui	v0,0xb025
    7350:	344203b0 	ori	v0,v0,0x3b0
    7354:	314400ff 	andi	a0,t2,0xff
    7358:	ac4a0000 	sw	t2,0(v0)
    735c:	08001cc7 	j	0x731c
    7360:	240200ff 	li	v0,255
    7364:	ac620000 	sw	v0,0(v1)
    7368:	240200ff 	li	v0,255
    736c:	10820024 	beq	a0,v0,0x7400
    7370:	26701568 	addiu	s0,s3,5480
    7374:	314300ff 	andi	v1,t2,0xff
    7378:	8e056524 	lw	a1,25892(s0)
    737c:	3c021020 	lui	v0,0x1020
    7380:	00031a00 	sll	v1,v1,0x8
    7384:	00621821 	addu	v1,v1,v0
    7388:	00603021 	move	a2,v1
    738c:	a20a647c 	sb	t2,25724(s0)
    7390:	ae0364b8 	sw	v1,25784(s0)
    7394:	24040003 	li	a0,3
    7398:	24070040 	li	a3,64
    739c:	0c000110 	jal	0x440
    73a0:	afa00010 	sw	zero,16(sp)
    73a4:	3c0a8002 	lui	t2,0x8002
    73a8:	91477f14 	lbu	a3,32532(t2)
    73ac:	3c098002 	lui	t1,0x8002
    73b0:	8d257f04 	lw	a1,32516(t1)
    73b4:	8e064b04 	lw	a2,19204(s0)
    73b8:	3c080001 	lui	t0,0x1
    73bc:	2402ff80 	li	v0,-128
    73c0:	00e23825 	or	a3,a3,v0
    73c4:	35038000 	ori	v1,t0,0x8000
    73c8:	34a50080 	ori	a1,a1,0x80
    73cc:	00031827 	nor	v1,zero,v1
    73d0:	00072600 	sll	a0,a3,0x18
    73d4:	3c02b025 	lui	v0,0xb025
    73d8:	00c33024 	and	a2,a2,v1
    73dc:	00852025 	or	a0,a0,a1
    73e0:	34420380 	ori	v0,v0,0x380
    73e4:	3c03b041 	lui	v1,0xb041
    73e8:	ac440000 	sw	a0,0(v0)
    73ec:	00088827 	nor	s1,zero,t0
    73f0:	ac660000 	sw	a2,0(v1)
    73f4:	ad257f04 	sw	a1,32516(t1)
    73f8:	a1477f14 	sb	a3,32532(t2)
    73fc:	ae064b04 	sw	a2,19204(s0)
    7400:	26631568 	addiu	v1,s3,5480
    7404:	8c624b08 	lw	v0,19208(v1)
    7408:	00000000 	nop
    740c:	38428000 	xori	v0,v0,0x8000
    7410:	ac624b08 	sw	v0,19208(v1)
    7414:	26651568 	addiu	a1,s3,5480
    7418:	8ca24b04 	lw	v0,19204(a1)
    741c:	3c030001 	lui	v1,0x1
    7420:	00521024 	and	v0,v0,s2
    7424:	00511024 	and	v0,v0,s1
    7428:	00431024 	and	v0,v0,v1
    742c:	10400056 	beqz	v0,0x7588
    7430:	3c06b02a 	lui	a2,0xb02a
    7434:	34c30010 	ori	v1,a2,0x10
    7438:	8c6a0000 	lw	t2,0(v1)
    743c:	240700ff 	li	a3,255
    7440:	314400ff 	andi	a0,t2,0xff
    7444:	1087031e 	beq	a0,a3,0x80c0
    7448:	3c02b025 	lui	v0,0xb025
    744c:	31428000 	andi	v0,t2,0x8000
    7450:	14400023 	bnez	v0,0x74e0
    7454:	3c028000 	lui	v0,0x8000
    7458:	3c02ff00 	lui	v0,0xff00
    745c:	01421024 	and	v0,t2,v0
    7460:	10400021 	beqz	v0,0x74e8
    7464:	240200ff 	li	v0,255
    7468:	34c60041 	ori	a2,a2,0x41
    746c:	90c20000 	lbu	v0,0(a2)
    7470:	00000000 	nop
    7474:	304400ff 	andi	a0,v0,0xff
    7478:	1087000e 	beq	a0,a3,0x74b4
    747c:	26621568 	addiu	v0,s3,5480
    7480:	a0a46480 	sb	a0,25728(a1)
    7484:	90c20000 	lbu	v0,0(a2)
    7488:	308300ff 	andi	v1,a0,0xff
    748c:	304400ff 	andi	a0,v0,0xff
    7490:	10830007 	beq	a0,v1,0x74b0
    7494:	00a03821 	move	a3,a1
    7498:	00c02821 	move	a1,a2
    749c:	90a20000 	lbu	v0,0(a1)
    74a0:	00801821 	move	v1,a0
    74a4:	1462fffd 	bne	v1,v0,0x749c
    74a8:	304400ff 	andi	a0,v0,0xff
    74ac:	a0e36480 	sb	v1,25728(a3)
    74b0:	26621568 	addiu	v0,s3,5480
    74b4:	90436480 	lbu	v1,25728(v0)
    74b8:	3c02b020 	lui	v0,0xb020
    74bc:	00031a00 	sll	v1,v1,0x8
    74c0:	00621821 	addu	v1,v1,v0
    74c4:	8c6a000c 	lw	t2,12(v1)
    74c8:	3c02b025 	lui	v0,0xb025
    74cc:	344203b0 	ori	v0,v0,0x3b0
    74d0:	314400ff 	andi	a0,t2,0xff
    74d4:	ac4a0000 	sw	t2,0(v0)
    74d8:	08001d26 	j	0x7498
    74dc:	240200ff 	li	v0,255
    74e0:	ac620000 	sw	v0,0(v1)
    74e4:	240200ff 	li	v0,255
    74e8:	10820022 	beq	a0,v0,0x7574
    74ec:	26701568 	addiu	s0,s3,5480
    74f0:	314300ff 	andi	v1,t2,0xff
    74f4:	8e056524 	lw	a1,25892(s0)
    74f8:	3c021020 	lui	v0,0x1020
    74fc:	00031a00 	sll	v1,v1,0x8
    7500:	00621821 	addu	v1,v1,v0
    7504:	00603021 	move	a2,v1
    7508:	ae0364b8 	sw	v1,25784(s0)
    750c:	24040003 	li	a0,3
    7510:	24070040 	li	a3,64
    7514:	a20a6480 	sb	t2,25728(s0)
    7518:	0c000110 	jal	0x440
    751c:	afa00010 	sw	zero,16(sp)
    7520:	3c098002 	lui	t1,0x8002
    7524:	91277f14 	lbu	a3,32532(t1)
    7528:	3c088002 	lui	t0,0x8002
    752c:	8d057f04 	lw	a1,32516(t0)
    7530:	8e064b04 	lw	a2,19204(s0)
    7534:	3c020001 	lui	v0,0x1
    7538:	34428000 	ori	v0,v0,0x8000
    753c:	34e70040 	ori	a3,a3,0x40
    7540:	00021027 	nor	v0,zero,v0
    7544:	00c23024 	and	a2,a2,v0
    7548:	34a50080 	ori	a1,a1,0x80
    754c:	00072600 	sll	a0,a3,0x18
    7550:	3c02b025 	lui	v0,0xb025
    7554:	00852025 	or	a0,a0,a1
    7558:	34420380 	ori	v0,v0,0x380
    755c:	3c03b041 	lui	v1,0xb041
    7560:	ac440000 	sw	a0,0(v0)
    7564:	ac660000 	sw	a2,0(v1)
    7568:	ad057f04 	sw	a1,32516(t0)
    756c:	a1277f14 	sb	a3,32532(t1)
    7570:	ae064b04 	sw	a2,19204(s0)
    7574:	26621568 	addiu	v0,s3,5480
    7578:	8c434b08 	lw	v1,19208(v0)
    757c:	3c040001 	lui	a0,0x1
    7580:	00641826 	xor	v1,v1,a0
    7584:	ac434b08 	sw	v1,19208(v0)
    7588:	26651568 	addiu	a1,s3,5480
    758c:	8ca24b04 	lw	v0,19204(a1)
    7590:	3c030002 	lui	v1,0x2
    7594:	00521024 	and	v0,v0,s2
    7598:	00431024 	and	v0,v0,v1
    759c:	1040005a 	beqz	v0,0x7708
    75a0:	3c06b02a 	lui	a2,0xb02a
    75a4:	34c30014 	ori	v1,a2,0x14
    75a8:	8c6a0000 	lw	t2,0(v1)
    75ac:	240700ff 	li	a3,255
    75b0:	314400ff 	andi	a0,t2,0xff
    75b4:	108702e2 	beq	a0,a3,0x8140
    75b8:	3c02b025 	lui	v0,0xb025
    75bc:	31428000 	andi	v0,t2,0x8000
    75c0:	14400023 	bnez	v0,0x7650
    75c4:	3c028000 	lui	v0,0x8000
    75c8:	3c02ff00 	lui	v0,0xff00
    75cc:	01421024 	and	v0,t2,v0
    75d0:	10400021 	beqz	v0,0x7658
    75d4:	240200ff 	li	v0,255
    75d8:	34c60042 	ori	a2,a2,0x42
    75dc:	90c20000 	lbu	v0,0(a2)
    75e0:	00000000 	nop
    75e4:	304400ff 	andi	a0,v0,0xff
    75e8:	1087000e 	beq	a0,a3,0x7624
    75ec:	26621568 	addiu	v0,s3,5480
    75f0:	a0a46484 	sb	a0,25732(a1)
    75f4:	90c20000 	lbu	v0,0(a2)
    75f8:	308300ff 	andi	v1,a0,0xff
    75fc:	304400ff 	andi	a0,v0,0xff
    7600:	10830007 	beq	a0,v1,0x7620
    7604:	00a03821 	move	a3,a1
    7608:	00c02821 	move	a1,a2
    760c:	90a20000 	lbu	v0,0(a1)
    7610:	00801821 	move	v1,a0
    7614:	1462fffd 	bne	v1,v0,0x760c
    7618:	304400ff 	andi	a0,v0,0xff
    761c:	a0e36484 	sb	v1,25732(a3)
    7620:	26621568 	addiu	v0,s3,5480
    7624:	90436484 	lbu	v1,25732(v0)
    7628:	3c02b020 	lui	v0,0xb020
    762c:	00031a00 	sll	v1,v1,0x8
    7630:	00621821 	addu	v1,v1,v0
    7634:	8c6a000c 	lw	t2,12(v1)
    7638:	3c02b025 	lui	v0,0xb025
    763c:	344203b0 	ori	v0,v0,0x3b0
    7640:	314400ff 	andi	a0,t2,0xff
    7644:	ac4a0000 	sw	t2,0(v0)
    7648:	08001d82 	j	0x7608
    764c:	240200ff 	li	v0,255
    7650:	ac620000 	sw	v0,0(v1)
    7654:	240200ff 	li	v0,255
    7658:	10820025 	beq	a0,v0,0x76f0
    765c:	26701568 	addiu	s0,s3,5480
    7660:	314300ff 	andi	v1,t2,0xff
    7664:	8e056530 	lw	a1,25904(s0)
    7668:	3c021020 	lui	v0,0x1020
    766c:	00031a00 	sll	v1,v1,0x8
    7670:	00621821 	addu	v1,v1,v0
    7674:	00603021 	move	a2,v1
    7678:	a20a6484 	sb	t2,25732(s0)
    767c:	ae0364c4 	sw	v1,25796(s0)
    7680:	24040004 	li	a0,4
    7684:	24070040 	li	a3,64
    7688:	0c000110 	jal	0x440
    768c:	afa00010 	sw	zero,16(sp)
    7690:	3c0a8002 	lui	t2,0x8002
    7694:	91477f14 	lbu	a3,32532(t2)
    7698:	3c098002 	lui	t1,0x8002
    769c:	8d257f04 	lw	a1,32516(t1)
    76a0:	8e064b04 	lw	a2,19204(s0)
    76a4:	3c020006 	lui	v0,0x6
    76a8:	34e70020 	ori	a3,a3,0x20
    76ac:	00021027 	nor	v0,zero,v0
    76b0:	00c23024 	and	a2,a2,v0
    76b4:	34a50100 	ori	a1,a1,0x100
    76b8:	3c03b025 	lui	v1,0xb025
    76bc:	3c020004 	lui	v0,0x4
    76c0:	00072600 	sll	a0,a3,0x18
    76c4:	02228826 	xor	s1,s1,v0
    76c8:	346803b0 	ori	t0,v1,0x3b0
    76cc:	00852025 	or	a0,a0,a1
    76d0:	34630380 	ori	v1,v1,0x380
    76d4:	3c02b041 	lui	v0,0xb041
    76d8:	ac640000 	sw	a0,0(v1)
    76dc:	ac460000 	sw	a2,0(v0)
    76e0:	ad257f04 	sw	a1,32516(t1)
    76e4:	a1477f14 	sb	a3,32532(t2)
    76e8:	ae064b04 	sw	a2,19204(s0)
    76ec:	ad110000 	sw	s1,0(t0)
    76f0:	26621568 	addiu	v0,s3,5480
    76f4:	8c434b08 	lw	v1,19208(v0)
    76f8:	3c040002 	lui	a0,0x2
    76fc:	00641826 	xor	v1,v1,a0
    7700:	ac434b08 	sw	v1,19208(v0)
    7704:	26651568 	addiu	a1,s3,5480
    7708:	8ca24b04 	lw	v0,19204(a1)
    770c:	3c030004 	lui	v1,0x4
    7710:	00521024 	and	v0,v0,s2
    7714:	00511024 	and	v0,v0,s1
    7718:	00431024 	and	v0,v0,v1
    771c:	10400058 	beqz	v0,0x7880
    7720:	3c03b025 	lui	v1,0xb025
    7724:	346203b0 	ori	v0,v1,0x3b0
    7728:	3c08b02a 	lui	t0,0xb02a
    772c:	ac510000 	sw	s1,0(v0)
    7730:	35060018 	ori	a2,t0,0x18
    7734:	8cca0000 	lw	t2,0(a2)
    7738:	240700ff 	li	a3,255
    773c:	314400ff 	andi	a0,t2,0xff
    7740:	1087026e 	beq	a0,a3,0x80fc
    7744:	24020004 	li	v0,4
    7748:	31428000 	andi	v0,t2,0x8000
    774c:	14400023 	bnez	v0,0x77dc
    7750:	3c028000 	lui	v0,0x8000
    7754:	3c02ff00 	lui	v0,0xff00
    7758:	01421024 	and	v0,t2,v0
    775c:	10400021 	beqz	v0,0x77e4
    7760:	240200ff 	li	v0,255
    7764:	35060043 	ori	a2,t0,0x43
    7768:	90c20000 	lbu	v0,0(a2)
    776c:	00000000 	nop
    7770:	304400ff 	andi	a0,v0,0xff
    7774:	1087000e 	beq	a0,a3,0x77b0
    7778:	26621568 	addiu	v0,s3,5480
    777c:	a0a46488 	sb	a0,25736(a1)
    7780:	90c20000 	lbu	v0,0(a2)
    7784:	308300ff 	andi	v1,a0,0xff
    7788:	304400ff 	andi	a0,v0,0xff
    778c:	10830007 	beq	a0,v1,0x77ac
    7790:	00a03821 	move	a3,a1
    7794:	00c02821 	move	a1,a2
    7798:	90a20000 	lbu	v0,0(a1)
    779c:	00801821 	move	v1,a0
    77a0:	1462fffd 	bne	v1,v0,0x7798
    77a4:	304400ff 	andi	a0,v0,0xff
    77a8:	a0e36488 	sb	v1,25736(a3)
    77ac:	26621568 	addiu	v0,s3,5480
    77b0:	90436488 	lbu	v1,25736(v0)
    77b4:	3c02b020 	lui	v0,0xb020
    77b8:	00031a00 	sll	v1,v1,0x8
    77bc:	00621821 	addu	v1,v1,v0
    77c0:	8c6a000c 	lw	t2,12(v1)
    77c4:	3c02b025 	lui	v0,0xb025
    77c8:	344203b0 	ori	v0,v0,0x3b0
    77cc:	314400ff 	andi	a0,t2,0xff
    77d0:	ac4a0000 	sw	t2,0(v0)
    77d4:	08001de5 	j	0x7794
    77d8:	240200ff 	li	v0,255
    77dc:	acc20000 	sw	v0,0(a2)
    77e0:	240200ff 	li	v0,255
    77e4:	10820021 	beq	a0,v0,0x786c
    77e8:	26701568 	addiu	s0,s3,5480
    77ec:	314300ff 	andi	v1,t2,0xff
    77f0:	8e056530 	lw	a1,25904(s0)
    77f4:	3c021020 	lui	v0,0x1020
    77f8:	00031a00 	sll	v1,v1,0x8
    77fc:	00621821 	addu	v1,v1,v0
    7800:	00603021 	move	a2,v1
    7804:	ae0364c4 	sw	v1,25796(s0)
    7808:	24040004 	li	a0,4
    780c:	24070040 	li	a3,64
    7810:	a20a6488 	sb	t2,25736(s0)
    7814:	0c000110 	jal	0x440
    7818:	afa00010 	sw	zero,16(sp)
    781c:	3c098002 	lui	t1,0x8002
    7820:	91277f14 	lbu	a3,32532(t1)
    7824:	3c088002 	lui	t0,0x8002
    7828:	8d057f04 	lw	a1,32516(t0)
    782c:	8e064b04 	lw	a2,19204(s0)
    7830:	3c020006 	lui	v0,0x6
    7834:	34e70010 	ori	a3,a3,0x10
    7838:	00021027 	nor	v0,zero,v0
    783c:	00c23024 	and	a2,a2,v0
    7840:	34a50100 	ori	a1,a1,0x100
    7844:	00072600 	sll	a0,a3,0x18
    7848:	3c02b025 	lui	v0,0xb025
    784c:	00852025 	or	a0,a0,a1
    7850:	34420380 	ori	v0,v0,0x380
    7854:	3c03b041 	lui	v1,0xb041
    7858:	ac440000 	sw	a0,0(v0)
    785c:	ac660000 	sw	a2,0(v1)
    7860:	ad057f04 	sw	a1,32516(t0)
    7864:	a1277f14 	sb	a3,32532(t1)
    7868:	ae064b04 	sw	a2,19204(s0)
    786c:	26621568 	addiu	v0,s3,5480
    7870:	8c434b08 	lw	v1,19208(v0)
    7874:	3c040004 	lui	a0,0x4
    7878:	00641826 	xor	v1,v1,a0
    787c:	ac434b08 	sw	v1,19208(v0)
    7880:	26651568 	addiu	a1,s3,5480
    7884:	8ca24b04 	lw	v0,19204(a1)
    7888:	3c030008 	lui	v1,0x8
    788c:	00521024 	and	v0,v0,s2
    7890:	00431024 	and	v0,v0,v1
    7894:	1040005a 	beqz	v0,0x7a00
    7898:	3c06b02a 	lui	a2,0xb02a
    789c:	34c3001c 	ori	v1,a2,0x1c
    78a0:	8c6a0000 	lw	t2,0(v1)
    78a4:	240700ff 	li	a3,255
    78a8:	314400ff 	andi	a0,t2,0xff
    78ac:	10870217 	beq	a0,a3,0x810c
    78b0:	3c02b025 	lui	v0,0xb025
    78b4:	31428000 	andi	v0,t2,0x8000
    78b8:	14400023 	bnez	v0,0x7948
    78bc:	3c028000 	lui	v0,0x8000
    78c0:	3c02ff00 	lui	v0,0xff00
    78c4:	01421024 	and	v0,t2,v0
    78c8:	10400021 	beqz	v0,0x7950
    78cc:	240200ff 	li	v0,255
    78d0:	34c60044 	ori	a2,a2,0x44
    78d4:	90c20000 	lbu	v0,0(a2)
    78d8:	00000000 	nop
    78dc:	304400ff 	andi	a0,v0,0xff
    78e0:	1087000e 	beq	a0,a3,0x791c
    78e4:	26621568 	addiu	v0,s3,5480
    78e8:	a0a4648c 	sb	a0,25740(a1)
    78ec:	90c20000 	lbu	v0,0(a2)
    78f0:	308300ff 	andi	v1,a0,0xff
    78f4:	304400ff 	andi	a0,v0,0xff
    78f8:	10830007 	beq	a0,v1,0x7918
    78fc:	00a03821 	move	a3,a1
    7900:	00c02821 	move	a1,a2
    7904:	90a20000 	lbu	v0,0(a1)
    7908:	00801821 	move	v1,a0
    790c:	1462fffd 	bne	v1,v0,0x7904
    7910:	304400ff 	andi	a0,v0,0xff
    7914:	a0e3648c 	sb	v1,25740(a3)
    7918:	26621568 	addiu	v0,s3,5480
    791c:	9043648c 	lbu	v1,25740(v0)
    7920:	3c02b020 	lui	v0,0xb020
    7924:	00031a00 	sll	v1,v1,0x8
    7928:	00621821 	addu	v1,v1,v0
    792c:	8c6a000c 	lw	t2,12(v1)
    7930:	3c02b025 	lui	v0,0xb025
    7934:	344203b0 	ori	v0,v0,0x3b0
    7938:	314400ff 	andi	a0,t2,0xff
    793c:	ac4a0000 	sw	t2,0(v0)
    7940:	08001e40 	j	0x7900
    7944:	240200ff 	li	v0,255
    7948:	ac620000 	sw	v0,0(v1)
    794c:	240200ff 	li	v0,255
    7950:	10820025 	beq	a0,v0,0x79e8
    7954:	26701568 	addiu	s0,s3,5480
    7958:	314300ff 	andi	v1,t2,0xff
    795c:	8e05653c 	lw	a1,25916(s0)
    7960:	3c021020 	lui	v0,0x1020
    7964:	00031a00 	sll	v1,v1,0x8
    7968:	00621821 	addu	v1,v1,v0
    796c:	00603021 	move	a2,v1
    7970:	a20a648c 	sb	t2,25740(s0)
    7974:	ae0364d0 	sw	v1,25808(s0)
    7978:	24040005 	li	a0,5
    797c:	24070040 	li	a3,64
    7980:	0c000110 	jal	0x440
    7984:	afa00010 	sw	zero,16(sp)
    7988:	3c0a8002 	lui	t2,0x8002
    798c:	91477f14 	lbu	a3,32532(t2)
    7990:	3c098002 	lui	t1,0x8002
    7994:	8d257f04 	lw	a1,32516(t1)
    7998:	8e064b04 	lw	a2,19204(s0)
    799c:	3c020018 	lui	v0,0x18
    79a0:	34e70008 	ori	a3,a3,0x8
    79a4:	00021027 	nor	v0,zero,v0
    79a8:	00c23024 	and	a2,a2,v0
    79ac:	34a50200 	ori	a1,a1,0x200
    79b0:	3c03b025 	lui	v1,0xb025
    79b4:	3c020010 	lui	v0,0x10
    79b8:	00072600 	sll	a0,a3,0x18
    79bc:	02228826 	xor	s1,s1,v0
    79c0:	346803b0 	ori	t0,v1,0x3b0
    79c4:	00852025 	or	a0,a0,a1
    79c8:	34630380 	ori	v1,v1,0x380
    79cc:	3c02b041 	lui	v0,0xb041
    79d0:	ac640000 	sw	a0,0(v1)
    79d4:	ac460000 	sw	a2,0(v0)
    79d8:	ad257f04 	sw	a1,32516(t1)
    79dc:	a1477f14 	sb	a3,32532(t2)
    79e0:	ae064b04 	sw	a2,19204(s0)
    79e4:	ad110000 	sw	s1,0(t0)
    79e8:	26621568 	addiu	v0,s3,5480
    79ec:	8c434b08 	lw	v1,19208(v0)
    79f0:	3c040008 	lui	a0,0x8
    79f4:	00641826 	xor	v1,v1,a0
    79f8:	ac434b08 	sw	v1,19208(v0)
    79fc:	26651568 	addiu	a1,s3,5480
    7a00:	8ca24b04 	lw	v0,19204(a1)
    7a04:	3c030010 	lui	v1,0x10
    7a08:	00521024 	and	v0,v0,s2
    7a0c:	00511024 	and	v0,v0,s1
    7a10:	00431024 	and	v0,v0,v1
    7a14:	10400058 	beqz	v0,0x7b78
    7a18:	3c06b025 	lui	a2,0xb025
    7a1c:	34c203b0 	ori	v0,a2,0x3b0
    7a20:	3c08b02a 	lui	t0,0xb02a
    7a24:	ac510000 	sw	s1,0(v0)
    7a28:	35030020 	ori	v1,t0,0x20
    7a2c:	8c6a0000 	lw	t2,0(v1)
    7a30:	240700ff 	li	a3,255
    7a34:	314400ff 	andi	a0,t2,0xff
    7a38:	108701b9 	beq	a0,a3,0x8120
    7a3c:	34c20390 	ori	v0,a2,0x390
    7a40:	31428000 	andi	v0,t2,0x8000
    7a44:	14400023 	bnez	v0,0x7ad4
    7a48:	3c028000 	lui	v0,0x8000
    7a4c:	3c02ff00 	lui	v0,0xff00
    7a50:	01421024 	and	v0,t2,v0
    7a54:	10400021 	beqz	v0,0x7adc
    7a58:	240200ff 	li	v0,255
    7a5c:	35060045 	ori	a2,t0,0x45
    7a60:	90c20000 	lbu	v0,0(a2)
    7a64:	00000000 	nop
    7a68:	304400ff 	andi	a0,v0,0xff
    7a6c:	1087000e 	beq	a0,a3,0x7aa8
    7a70:	26621568 	addiu	v0,s3,5480
    7a74:	a0a46498 	sb	a0,25752(a1)
    7a78:	90c20000 	lbu	v0,0(a2)
    7a7c:	308300ff 	andi	v1,a0,0xff
    7a80:	304400ff 	andi	a0,v0,0xff
    7a84:	10830007 	beq	a0,v1,0x7aa4
    7a88:	00a03821 	move	a3,a1
    7a8c:	00c02821 	move	a1,a2
    7a90:	90a20000 	lbu	v0,0(a1)
    7a94:	00801821 	move	v1,a0
    7a98:	1462fffd 	bne	v1,v0,0x7a90
    7a9c:	304400ff 	andi	a0,v0,0xff
    7aa0:	a0e36498 	sb	v1,25752(a3)
    7aa4:	26621568 	addiu	v0,s3,5480
    7aa8:	90436498 	lbu	v1,25752(v0)
    7aac:	3c02b020 	lui	v0,0xb020
    7ab0:	00031a00 	sll	v1,v1,0x8
    7ab4:	00621821 	addu	v1,v1,v0
    7ab8:	8c6a000c 	lw	t2,12(v1)
    7abc:	3c02b025 	lui	v0,0xb025
    7ac0:	344203b0 	ori	v0,v0,0x3b0
    7ac4:	314400ff 	andi	a0,t2,0xff
    7ac8:	ac4a0000 	sw	t2,0(v0)
    7acc:	08001ea3 	j	0x7a8c
    7ad0:	240200ff 	li	v0,255
    7ad4:	ac620000 	sw	v0,0(v1)
    7ad8:	240200ff 	li	v0,255
    7adc:	10820021 	beq	a0,v0,0x7b64
    7ae0:	26701568 	addiu	s0,s3,5480
    7ae4:	314300ff 	andi	v1,t2,0xff
    7ae8:	8e05653c 	lw	a1,25916(s0)
    7aec:	3c021020 	lui	v0,0x1020
    7af0:	00031a00 	sll	v1,v1,0x8
    7af4:	00621821 	addu	v1,v1,v0
    7af8:	00603021 	move	a2,v1
    7afc:	ae0364d0 	sw	v1,25808(s0)
    7b00:	24040005 	li	a0,5
    7b04:	24070040 	li	a3,64
    7b08:	a20a6498 	sb	t2,25752(s0)
    7b0c:	0c000110 	jal	0x440
    7b10:	afa00010 	sw	zero,16(sp)
    7b14:	3c098002 	lui	t1,0x8002
    7b18:	91277f14 	lbu	a3,32532(t1)
    7b1c:	3c088002 	lui	t0,0x8002
    7b20:	8d057f04 	lw	a1,32516(t0)
    7b24:	8e064b04 	lw	a2,19204(s0)
    7b28:	3c020018 	lui	v0,0x18
    7b2c:	34e70001 	ori	a3,a3,0x1
    7b30:	00021027 	nor	v0,zero,v0
    7b34:	00c23024 	and	a2,a2,v0
    7b38:	34a50200 	ori	a1,a1,0x200
    7b3c:	00072600 	sll	a0,a3,0x18
    7b40:	3c02b025 	lui	v0,0xb025
    7b44:	00852025 	or	a0,a0,a1
    7b48:	34420380 	ori	v0,v0,0x380
    7b4c:	3c03b041 	lui	v1,0xb041
    7b50:	ac440000 	sw	a0,0(v0)
    7b54:	ac660000 	sw	a2,0(v1)
    7b58:	ad057f04 	sw	a1,32516(t0)
    7b5c:	a1277f14 	sb	a3,32532(t1)
    7b60:	ae064b04 	sw	a2,19204(s0)
    7b64:	26621568 	addiu	v0,s3,5480
    7b68:	8c434b08 	lw	v1,19208(v0)
    7b6c:	3c040010 	lui	a0,0x10
    7b70:	00641826 	xor	v1,v1,a0
    7b74:	ac434b08 	sw	v1,19208(v0)
    7b78:	26651568 	addiu	a1,s3,5480
    7b7c:	8ca24b04 	lw	v0,19204(a1)
    7b80:	3c030020 	lui	v1,0x20
    7b84:	00521024 	and	v0,v0,s2
    7b88:	00431024 	and	v0,v0,v1
    7b8c:	1040005a 	beqz	v0,0x7cf8
    7b90:	3c06b02a 	lui	a2,0xb02a
    7b94:	34c30024 	ori	v1,a2,0x24
    7b98:	8c6a0000 	lw	t2,0(v1)
    7b9c:	240700ff 	li	a3,255
    7ba0:	314400ff 	andi	a0,t2,0xff
    7ba4:	10870161 	beq	a0,a3,0x812c
    7ba8:	3c02b025 	lui	v0,0xb025
    7bac:	31428000 	andi	v0,t2,0x8000
    7bb0:	14400023 	bnez	v0,0x7c40
    7bb4:	3c028000 	lui	v0,0x8000
    7bb8:	3c02ff00 	lui	v0,0xff00
    7bbc:	01421024 	and	v0,t2,v0
    7bc0:	10400021 	beqz	v0,0x7c48
    7bc4:	240200ff 	li	v0,255
    7bc8:	34c60046 	ori	a2,a2,0x46
    7bcc:	90c20000 	lbu	v0,0(a2)
    7bd0:	00000000 	nop
    7bd4:	304400ff 	andi	a0,v0,0xff
    7bd8:	1087000e 	beq	a0,a3,0x7c14
    7bdc:	26621568 	addiu	v0,s3,5480
    7be0:	a0a46490 	sb	a0,25744(a1)
    7be4:	90c20000 	lbu	v0,0(a2)
    7be8:	308300ff 	andi	v1,a0,0xff
    7bec:	304400ff 	andi	a0,v0,0xff
    7bf0:	10830007 	beq	a0,v1,0x7c10
    7bf4:	00a03821 	move	a3,a1
    7bf8:	00c02821 	move	a1,a2
    7bfc:	90a20000 	lbu	v0,0(a1)
    7c00:	00801821 	move	v1,a0
    7c04:	1462fffd 	bne	v1,v0,0x7bfc
    7c08:	304400ff 	andi	a0,v0,0xff
    7c0c:	a0e36490 	sb	v1,25744(a3)
    7c10:	26621568 	addiu	v0,s3,5480
    7c14:	90436490 	lbu	v1,25744(v0)
    7c18:	3c02b020 	lui	v0,0xb020
    7c1c:	00031a00 	sll	v1,v1,0x8
    7c20:	00621821 	addu	v1,v1,v0
    7c24:	8c6a000c 	lw	t2,12(v1)
    7c28:	3c02b025 	lui	v0,0xb025
    7c2c:	344203b0 	ori	v0,v0,0x3b0
    7c30:	314400ff 	andi	a0,t2,0xff
    7c34:	ac4a0000 	sw	t2,0(v0)
    7c38:	08001efe 	j	0x7bf8
    7c3c:	240200ff 	li	v0,255
    7c40:	ac620000 	sw	v0,0(v1)
    7c44:	240200ff 	li	v0,255
    7c48:	10820025 	beq	a0,v0,0x7ce0
    7c4c:	26701568 	addiu	s0,s3,5480
    7c50:	314300ff 	andi	v1,t2,0xff
    7c54:	8e056548 	lw	a1,25928(s0)
    7c58:	3c021020 	lui	v0,0x1020
    7c5c:	00031a00 	sll	v1,v1,0x8
    7c60:	00621821 	addu	v1,v1,v0
    7c64:	00603021 	move	a2,v1
    7c68:	a20a6490 	sb	t2,25744(s0)
    7c6c:	ae0364dc 	sw	v1,25820(s0)
    7c70:	24040006 	li	a0,6
    7c74:	24070040 	li	a3,64
    7c78:	0c000110 	jal	0x440
    7c7c:	afa00010 	sw	zero,16(sp)
    7c80:	3c0a8002 	lui	t2,0x8002
    7c84:	91477f14 	lbu	a3,32532(t2)
    7c88:	3c098002 	lui	t1,0x8002
    7c8c:	8d257f04 	lw	a1,32516(t1)
    7c90:	8e064b04 	lw	a2,19204(s0)
    7c94:	3c020060 	lui	v0,0x60
    7c98:	34e70004 	ori	a3,a3,0x4
    7c9c:	00021027 	nor	v0,zero,v0
    7ca0:	00c23024 	and	a2,a2,v0
    7ca4:	34a50400 	ori	a1,a1,0x400
    7ca8:	3c03b025 	lui	v1,0xb025
    7cac:	3c020040 	lui	v0,0x40
    7cb0:	00072600 	sll	a0,a3,0x18
    7cb4:	02228826 	xor	s1,s1,v0
    7cb8:	346803b0 	ori	t0,v1,0x3b0
    7cbc:	00852025 	or	a0,a0,a1
    7cc0:	34630380 	ori	v1,v1,0x380
    7cc4:	3c02b041 	lui	v0,0xb041
    7cc8:	ac640000 	sw	a0,0(v1)
    7ccc:	ac460000 	sw	a2,0(v0)
    7cd0:	ad257f04 	sw	a1,32516(t1)
    7cd4:	a1477f14 	sb	a3,32532(t2)
    7cd8:	ae064b04 	sw	a2,19204(s0)
    7cdc:	ad110000 	sw	s1,0(t0)
    7ce0:	26621568 	addiu	v0,s3,5480
    7ce4:	8c434b08 	lw	v1,19208(v0)
    7ce8:	3c040020 	lui	a0,0x20
    7cec:	00641826 	xor	v1,v1,a0
    7cf0:	ac434b08 	sw	v1,19208(v0)
    7cf4:	26651568 	addiu	a1,s3,5480
    7cf8:	8ca24b04 	lw	v0,19204(a1)
    7cfc:	3c030040 	lui	v1,0x40
    7d00:	00521024 	and	v0,v0,s2
    7d04:	00511024 	and	v0,v0,s1
    7d08:	00431024 	and	v0,v0,v1
    7d0c:	1040005a 	beqz	v0,0x7e78
    7d10:	26701568 	addiu	s0,s3,5480
    7d14:	3c02b025 	lui	v0,0xb025
    7d18:	3c07b02a 	lui	a3,0xb02a
    7d1c:	344203b0 	ori	v0,v0,0x3b0
    7d20:	ac510000 	sw	s1,0(v0)
    7d24:	34e30028 	ori	v1,a3,0x28
    7d28:	8c6a0000 	lw	t2,0(v1)
    7d2c:	240600ff 	li	a2,255
    7d30:	314400ff 	andi	a0,t2,0xff
    7d34:	108600ce 	beq	a0,a2,0x8070
    7d38:	3c02bd25 	lui	v0,0xbd25
    7d3c:	31428000 	andi	v0,t2,0x8000
    7d40:	14400023 	bnez	v0,0x7dd0
    7d44:	3c028000 	lui	v0,0x8000
    7d48:	3c02ff00 	lui	v0,0xff00
    7d4c:	01421024 	and	v0,t2,v0
    7d50:	10400021 	beqz	v0,0x7dd8
    7d54:	240200ff 	li	v0,255
    7d58:	34e70047 	ori	a3,a3,0x47
    7d5c:	90e20000 	lbu	v0,0(a3)
    7d60:	00000000 	nop
    7d64:	304400ff 	andi	a0,v0,0xff
    7d68:	1086000e 	beq	a0,a2,0x7da4
    7d6c:	26621568 	addiu	v0,s3,5480
    7d70:	a0a46494 	sb	a0,25748(a1)
    7d74:	90e20000 	lbu	v0,0(a3)
    7d78:	308300ff 	andi	v1,a0,0xff
    7d7c:	304400ff 	andi	a0,v0,0xff
    7d80:	10830007 	beq	a0,v1,0x7da0
    7d84:	00a03021 	move	a2,a1
    7d88:	00e02821 	move	a1,a3
    7d8c:	90a20000 	lbu	v0,0(a1)
    7d90:	00801821 	move	v1,a0
    7d94:	1462fffd 	bne	v1,v0,0x7d8c
    7d98:	304400ff 	andi	a0,v0,0xff
    7d9c:	a0c36494 	sb	v1,25748(a2)
    7da0:	26621568 	addiu	v0,s3,5480
    7da4:	90436494 	lbu	v1,25748(v0)
    7da8:	3c02b020 	lui	v0,0xb020
    7dac:	00031a00 	sll	v1,v1,0x8
    7db0:	00621821 	addu	v1,v1,v0
    7db4:	8c6a000c 	lw	t2,12(v1)
    7db8:	3c02b025 	lui	v0,0xb025
    7dbc:	344203b0 	ori	v0,v0,0x3b0
    7dc0:	314400ff 	andi	a0,t2,0xff
    7dc4:	ac4a0000 	sw	t2,0(v0)
    7dc8:	08001f62 	j	0x7d88
    7dcc:	240200ff 	li	v0,255
    7dd0:	ac620000 	sw	v0,0(v1)
    7dd4:	240200ff 	li	v0,255
    7dd8:	10820021 	beq	a0,v0,0x7e60
    7ddc:	26701568 	addiu	s0,s3,5480
    7de0:	314300ff 	andi	v1,t2,0xff
    7de4:	8e056548 	lw	a1,25928(s0)
    7de8:	3c021020 	lui	v0,0x1020
    7dec:	00031a00 	sll	v1,v1,0x8
    7df0:	00621821 	addu	v1,v1,v0
    7df4:	00603021 	move	a2,v1
    7df8:	ae0364dc 	sw	v1,25820(s0)
    7dfc:	24040006 	li	a0,6
    7e00:	24070040 	li	a3,64
    7e04:	a20a6494 	sb	t2,25748(s0)
    7e08:	0c000110 	jal	0x440
    7e0c:	afa00010 	sw	zero,16(sp)
    7e10:	3c098002 	lui	t1,0x8002
    7e14:	91277f14 	lbu	a3,32532(t1)
    7e18:	3c088002 	lui	t0,0x8002
    7e1c:	8d057f04 	lw	a1,32516(t0)
    7e20:	8e064b04 	lw	a2,19204(s0)
    7e24:	3c020060 	lui	v0,0x60
    7e28:	34e70002 	ori	a3,a3,0x2
    7e2c:	00021027 	nor	v0,zero,v0
    7e30:	00c23024 	and	a2,a2,v0
    7e34:	34a50400 	ori	a1,a1,0x400
    7e38:	00072600 	sll	a0,a3,0x18
    7e3c:	3c02b025 	lui	v0,0xb025
    7e40:	00852025 	or	a0,a0,a1
    7e44:	34420380 	ori	v0,v0,0x380
    7e48:	3c03b041 	lui	v1,0xb041
    7e4c:	ac440000 	sw	a0,0(v0)
    7e50:	ac660000 	sw	a2,0(v1)
    7e54:	ad057f04 	sw	a1,32516(t0)
    7e58:	a1277f14 	sb	a3,32532(t1)
    7e5c:	ae064b04 	sw	a2,19204(s0)
    7e60:	26621568 	addiu	v0,s3,5480
    7e64:	8c434b08 	lw	v1,19208(v0)
    7e68:	3c040040 	lui	a0,0x40
    7e6c:	00641826 	xor	v1,v1,a0
    7e70:	ac434b08 	sw	v1,19208(v0)
    7e74:	26701568 	addiu	s0,s3,5480
    7e78:	8e064b04 	lw	a2,19204(s0)
    7e7c:	3c110400 	lui	s1,0x400
    7e80:	00d21024 	and	v0,a2,s2
    7e84:	00511024 	and	v0,v0,s1
    7e88:	14400055 	bnez	v0,0x7fe0
    7e8c:	00000000 	nop
    7e90:	00d22824 	and	a1,a2,s2
    7e94:	3c040800 	lui	a0,0x800
    7e98:	00a41024 	and	v0,a1,a0
    7e9c:	10400008 	beqz	v0,0x7ec0
    7ea0:	3c070080 	lui	a3,0x80
    7ea4:	8e034b08 	lw	v1,19208(s0)
    7ea8:	3c02b025 	lui	v0,0xb025
    7eac:	344203b0 	ori	v0,v0,0x3b0
    7eb0:	00641826 	xor	v1,v1,a0
    7eb4:	ac440000 	sw	a0,0(v0)
    7eb8:	ae034b08 	sw	v1,19208(s0)
    7ebc:	3c070080 	lui	a3,0x80
    7ec0:	00a71024 	and	v0,a1,a3
    7ec4:	10400021 	beqz	v0,0x7f4c
    7ec8:	00000000 	nop
    7ecc:	8e034b08 	lw	v1,19208(s0)
    7ed0:	3c08b025 	lui	t0,0xb025
    7ed4:	350903b0 	ori	t1,t0,0x3b0
    7ed8:	3c02b02a 	lui	v0,0xb02a
    7edc:	ad230000 	sw	v1,0(t1)
    7ee0:	34420036 	ori	v0,v0,0x36
    7ee4:	90430000 	lbu	v1,0(v0)
    7ee8:	3c04b023 	lui	a0,0xb023
    7eec:	3c021fff 	lui	v0,0x1fff
    7ef0:	000318c0 	sll	v1,v1,0x3
    7ef4:	306307f0 	andi	v1,v1,0x7f0
    7ef8:	8e0565f0 	lw	a1,26096(s0)
    7efc:	00641821 	addu	v1,v1,a0
    7f00:	3442ffff 	ori	v0,v0,0xffff
    7f04:	00621824 	and	v1,v1,v0
    7f08:	1065005e 	beq	v1,a1,0x8084
    7f0c:	ae0365f4 	sw	v1,26100(s0)
    7f10:	3c058002 	lui	a1,0x8002
    7f14:	8ca37f04 	lw	v1,32516(a1)
    7f18:	00072027 	nor	a0,zero,a3
    7f1c:	00c42024 	and	a0,a2,a0
    7f20:	34630800 	ori	v1,v1,0x800
    7f24:	3c02b041 	lui	v0,0xb041
    7f28:	ad230000 	sw	v1,0(t1)
    7f2c:	ac440000 	sw	a0,0(v0)
    7f30:	aca37f04 	sw	v1,32516(a1)
    7f34:	ae044b04 	sw	a0,19204(s0)
    7f38:	26621568 	addiu	v0,s3,5480
    7f3c:	8c434b08 	lw	v1,19208(v0)
    7f40:	3c040080 	lui	a0,0x80
    7f44:	00641826 	xor	v1,v1,a0
    7f48:	ac434b08 	sw	v1,19208(v0)
    7f4c:	26661568 	addiu	a2,s3,5480
    7f50:	8cc34b04 	lw	v1,19204(a2)
    7f54:	3c040100 	lui	a0,0x100
    7f58:	00722824 	and	a1,v1,s2
    7f5c:	00a41024 	and	v0,a1,a0
    7f60:	10400006 	beqz	v0,0x7f7c
    7f64:	3c02b025 	lui	v0,0xb025
    7f68:	8cc34b08 	lw	v1,19208(a2)
    7f6c:	344203b0 	ori	v0,v0,0x3b0
    7f70:	00641826 	xor	v1,v1,a0
    7f74:	ac440000 	sw	a0,0(v0)
    7f78:	acc34b08 	sw	v1,19208(a2)
    7f7c:	3c040200 	lui	a0,0x200
    7f80:	00a41024 	and	v0,a1,a0
    7f84:	10400006 	beqz	v0,0x7fa0
    7f88:	3c03b025 	lui	v1,0xb025
    7f8c:	8cc24b08 	lw	v0,19208(a2)
    7f90:	346303b0 	ori	v1,v1,0x3b0
    7f94:	00441026 	xor	v0,v0,a0
    7f98:	acc24b08 	sw	v0,19208(a2)
    7f9c:	ac640000 	sw	a0,0(v1)
    7fa0:	92827e22 	lbu	v0,32290(s4)
    7fa4:	24030001 	li	v1,1
    7fa8:	3042000f 	andi	v0,v0,0xf
    7fac:	1043001f 	beq	v0,v1,0x802c
    7fb0:	00000000 	nop
    7fb4:	8fbf002c 	lw	ra,44(sp)
    7fb8:	8fb40028 	lw	s4,40(sp)
    7fbc:	8fb30024 	lw	s3,36(sp)
    7fc0:	8fb20020 	lw	s2,32(sp)
    7fc4:	8fb1001c 	lw	s1,28(sp)
    7fc8:	8fb00018 	lw	s0,24(sp)
    7fcc:	03e00008 	jr	ra
    7fd0:	27bd0030 	addiu	sp,sp,48
    7fd4:	3c148002 	lui	s4,0x8002
    7fd8:	08001b9b 	j	0x6e6c
    7fdc:	ae0c4b08 	sw	t4,19208(s0)
    7fe0:	0c0050e6 	jal	0x14398
    7fe4:	24040007 	li	a0,7
    7fe8:	8e034b08 	lw	v1,19208(s0)
    7fec:	8e064b04 	lw	a2,19204(s0)
    7ff0:	3c02b025 	lui	v0,0xb025
    7ff4:	00711826 	xor	v1,v1,s1
    7ff8:	344203b0 	ori	v0,v0,0x3b0
    7ffc:	ac430000 	sw	v1,0(v0)
    8000:	08001f90 	j	0x7e40
    8004:	ae034b08 	sw	v1,19208(s0)
    8008:	35420156 	ori	v0,t2,0x156
    800c:	94430000 	lhu	v1,0(v0)
    8010:	00000000 	nop
    8014:	1060fb6f 	beqz	v1,0x6dd4
    8018:	00000000 	nop
    801c:	0c0050e6 	jal	0x14398
    8020:	24040007 	li	a0,7
    8024:	08001b62 	j	0x6d88
    8028:	26701568 	addiu	s0,s3,5480
    802c:	8fbf002c 	lw	ra,44(sp)
    8030:	8fb40028 	lw	s4,40(sp)
    8034:	8fb30024 	lw	s3,36(sp)
    8038:	8fb20020 	lw	s2,32(sp)
    803c:	8fb1001c 	lw	s1,28(sp)
    8040:	8fb00018 	lw	s0,24(sp)
    8044:	08001b25 	j	0x6c94
    8048:	27bd0030 	addiu	sp,sp,48
    804c:	ac620000 	sw	v0,0(v1)
    8050:	08001bf9 	j	0x6fe4
    8054:	240200ff 	li	v0,255
    8058:	ac620000 	sw	v0,0(v1)
    805c:	08001c36 	j	0x70d8
    8060:	240200ff 	li	v0,255
    8064:	ac620000 	sw	v0,0(v1)
    8068:	08001c73 	j	0x71cc
    806c:	240200ff 	li	v0,255
    8070:	24030001 	li	v1,1
    8074:	34420390 	ori	v0,v0,0x390
    8078:	ac430000 	sw	v1,0(v0)
    807c:	08001f85 	j	0x7e14
    8080:	26621568 	addiu	v0,s3,5480
    8084:	350303d0 	ori	v1,t0,0x3d0
    8088:	24020080 	li	v0,128
    808c:	ac620000 	sw	v0,0(v1)
    8090:	08001fbb 	j	0x7eec
    8094:	26621568 	addiu	v0,s3,5480
    8098:	3c02b025 	lui	v0,0xb025
    809c:	24030007 	li	v1,7
    80a0:	34420390 	ori	v0,v0,0x390
    80a4:	ac430000 	sw	v1,0(v0)
    80a8:	26631568 	addiu	v1,s3,5480
    80ac:	8c624b08 	lw	v0,19208(v1)
    80b0:	00000000 	nop
    80b4:	38428000 	xori	v0,v0,0x8000
    80b8:	08001cf1 	j	0x73c4
    80bc:	ac624b08 	sw	v0,19208(v1)
    80c0:	24030006 	li	v1,6
    80c4:	34420390 	ori	v0,v0,0x390
    80c8:	ac430000 	sw	v1,0(v0)
    80cc:	08001d4a 	j	0x7528
    80d0:	26621568 	addiu	v0,s3,5480
    80d4:	3c02b025 	lui	v0,0xb025
    80d8:	24030007 	li	v1,7
    80dc:	34420390 	ori	v0,v0,0x390
    80e0:	ac430000 	sw	v1,0(v0)
    80e4:	26631568 	addiu	v1,s3,5480
    80e8:	8c624b08 	lw	v0,19208(v1)
    80ec:	00000000 	nop
    80f0:	38422000 	xori	v0,v0,0x2000
    80f4:	08001c93 	j	0x724c
    80f8:	ac624b08 	sw	v0,19208(v1)
    80fc:	34630390 	ori	v1,v1,0x390
    8100:	ac620000 	sw	v0,0(v1)
    8104:	08001e08 	j	0x7820
    8108:	26621568 	addiu	v0,s3,5480
    810c:	24030003 	li	v1,3
    8110:	34420390 	ori	v0,v0,0x390
    8114:	ac430000 	sw	v1,0(v0)
    8118:	08001e67 	j	0x799c
    811c:	26621568 	addiu	v0,s3,5480
    8120:	ac400000 	sw	zero,0(v0)
    8124:	08001ec6 	j	0x7b18
    8128:	26621568 	addiu	v0,s3,5480
    812c:	24030002 	li	v1,2
    8130:	34420390 	ori	v0,v0,0x390
    8134:	ac430000 	sw	v1,0(v0)
    8138:	08001f25 	j	0x7c94
    813c:	26621568 	addiu	v0,s3,5480
    8140:	24030005 	li	v1,5
    8144:	34420390 	ori	v0,v0,0x390
    8148:	ac430000 	sw	v1,0(v0)
    814c:	08001da9 	j	0x76a4
    8150:	26621568 	addiu	v0,s3,5480
    8154:	24040001 	li	a0,1
    8158:	24050017 	li	a1,23
    815c:	00003021 	move	a2,zero
    8160:	0c000868 	jal	0x21a0
    8164:	00003821 	move	a3,zero
    8168:	1040fb55 	beqz	v0,0x6ec0
    816c:	26661568 	addiu	a2,s3,5480
    8170:	8e024b08 	lw	v0,19208(s0)
    8174:	00000000 	nop
    8178:	38420001 	xori	v0,v0,0x1
    817c:	08001b9c 	j	0x6e70
    8180:	ae024b08 	sw	v0,19208(s0)
    8184:	3c0db025 	lui	t5,0xb025
    8188:	3c028001 	lui	v0,0x8001
    818c:	35a40318 	ori	a0,t5,0x318
    8190:	24428134 	addiu	v0,v0,-32460
    8194:	3c038002 	lui	v1,0x8002
    8198:	3c08b041 	lui	t0,0xb041
    819c:	ac820000 	sw	v0,0(a0)
    81a0:	246a1568 	addiu	t2,v1,5480
    81a4:	3502000a 	ori	v0,t0,0xa
    81a8:	94440000 	lhu	a0,0(v0)
    81ac:	95434b12 	lhu	v1,19218(t2)
    81b0:	954b4b10 	lhu	t3,19216(t2)
    81b4:	00641825 	or	v1,v1,a0
    81b8:	306cffff 	andi	t4,v1,0xffff
    81bc:	018b1024 	and	v0,t4,t3
    81c0:	30420002 	andi	v0,v0,0x2
    81c4:	10400053 	beqz	v0,0x8314
    81c8:	38640002 	xori	a0,v1,0x2
    81cc:	24020002 	li	v0,2
    81d0:	35a303c0 	ori	v1,t5,0x3c0
    81d4:	ac620000 	sw	v0,0(v1)
    81d8:	a5444b12 	sh	a0,19218(t2)
    81dc:	018b3824 	and	a3,t4,t3
    81e0:	30e20004 	andi	v0,a3,0x4
    81e4:	1040000a 	beqz	v0,0x8210
    81e8:	30e20008 	andi	v0,a3,0x8
    81ec:	95434b12 	lhu	v1,19218(t2)
    81f0:	3504000c 	ori	a0,t0,0xc
    81f4:	35a503c0 	ori	a1,t5,0x3c0
    81f8:	38630004 	xori	v1,v1,0x4
    81fc:	24020004 	li	v0,4
    8200:	8c860000 	lw	a2,0(a0)
    8204:	aca20000 	sw	v0,0(a1)
    8208:	a5434b12 	sh	v1,19218(t2)
    820c:	30e20008 	andi	v0,a3,0x8
    8210:	10400008 	beqz	v0,0x8234
    8214:	30e20010 	andi	v0,a3,0x10
    8218:	95424b12 	lhu	v0,19218(t2)
    821c:	35a403c0 	ori	a0,t5,0x3c0
    8220:	24030008 	li	v1,8
    8224:	38420008 	xori	v0,v0,0x8
    8228:	ac830000 	sw	v1,0(a0)
    822c:	a5424b12 	sh	v0,19218(t2)
    8230:	30e20010 	andi	v0,a3,0x10
    8234:	10400008 	beqz	v0,0x8258
    8238:	30e20020 	andi	v0,a3,0x20
    823c:	95424b12 	lhu	v0,19218(t2)
    8240:	35a403c0 	ori	a0,t5,0x3c0
    8244:	24030010 	li	v1,16
    8248:	38420010 	xori	v0,v0,0x10
    824c:	ac830000 	sw	v1,0(a0)
    8250:	a5424b12 	sh	v0,19218(t2)
    8254:	30e20020 	andi	v0,a3,0x20
    8258:	10400008 	beqz	v0,0x827c
    825c:	30e20080 	andi	v0,a3,0x80
    8260:	95424b12 	lhu	v0,19218(t2)
    8264:	35a403c0 	ori	a0,t5,0x3c0
    8268:	24030020 	li	v1,32
    826c:	38420020 	xori	v0,v0,0x20
    8270:	ac830000 	sw	v1,0(a0)
    8274:	a5424b12 	sh	v0,19218(t2)
    8278:	30e20080 	andi	v0,a3,0x80
    827c:	10400015 	beqz	v0,0x82d4
    8280:	018b1024 	and	v0,t4,t3
    8284:	3c098002 	lui	t1,0x8002
    8288:	95464b12 	lhu	a2,19218(t2)
    828c:	8d257f04 	lw	a1,32516(t1)
    8290:	3c020008 	lui	v0,0x8
    8294:	2404ff7f 	li	a0,-129
    8298:	01642024 	and	a0,t3,a0
    829c:	00a22825 	or	a1,a1,v0
    82a0:	38c60080 	xori	a2,a2,0x80
    82a4:	35a703b0 	ori	a3,t5,0x3b0
    82a8:	35080008 	ori	t0,t0,0x8
    82ac:	35a303c0 	ori	v1,t5,0x3c0
    82b0:	24020080 	li	v0,128
    82b4:	ac620000 	sw	v0,0(v1)
    82b8:	00805821 	move	t3,a0
    82bc:	ace50000 	sw	a1,0(a3)
    82c0:	a5464b12 	sh	a2,19218(t2)
    82c4:	ad257f04 	sw	a1,32516(t1)
    82c8:	a5040000 	sh	a0,0(t0)
    82cc:	a5444b10 	sh	a0,19216(t2)
    82d0:	018b1024 	and	v0,t4,t3
    82d4:	30423000 	andi	v0,v0,0x3000
    82d8:	10400007 	beqz	v0,0x82f8
    82dc:	3c028002 	lui	v0,0x8002
    82e0:	95424b12 	lhu	v0,19218(t2)
    82e4:	00000000 	nop
    82e8:	38421000 	xori	v0,v0,0x1000
    82ec:	34422000 	ori	v0,v0,0x2000
    82f0:	a5424b12 	sh	v0,19218(t2)
    82f4:	3c028002 	lui	v0,0x8002
    82f8:	90437e22 	lbu	v1,32290(v0)
    82fc:	24020001 	li	v0,1
    8300:	3063000f 	andi	v1,v1,0xf
    8304:	10620005 	beq	v1,v0,0x831c
    8308:	00000000 	nop
    830c:	03e00008 	jr	ra
    8310:	00000000 	nop
    8314:	08002063 	j	0x818c
    8318:	a5434b12 	sh	v1,19218(t2)
    831c:	08001b25 	j	0x6c94
    8320:	00000000 	nop
    8324:	27bdfff8 	addiu	sp,sp,-8
    8328:	afb10004 	sw	s1,4(sp)
    832c:	afb00000 	sw	s0,0(sp)
    8330:	40024000 	mfc0	v0,$8
    8334:	40086800 	mfc0	t0,$13
    8338:	40027000 	mfc0	v0,$14
    833c:	40096000 	mfc0	t1,$12
    8340:	3c05b025 	lui	a1,0xb025
    8344:	3c028001 	lui	v0,0x8001
    8348:	34a30318 	ori	v1,a1,0x318
    834c:	244282d4 	addiu	v0,v0,-32044
    8350:	ac620000 	sw	v0,0(v1)
    8354:	8c870080 	lw	a3,128(a0)
    8358:	34a2027c 	ori	v0,a1,0x27c
    835c:	34a30284 	ori	v1,a1,0x284
    8360:	34a60288 	ori	a2,a1,0x288
    8364:	ac470000 	sw	a3,0(v0)
    8368:	ac680000 	sw	t0,0(v1)
    836c:	acc90000 	sw	t1,0(a2)
    8370:	8c830074 	lw	v1,116(a0)
    8374:	34a2028c 	ori	v0,a1,0x28c
    8378:	34a70290 	ori	a3,a1,0x290
    837c:	ac430000 	sw	v1,0(v0)
    8380:	8c860008 	lw	a2,8(a0)
    8384:	34a80294 	ori	t0,a1,0x294
    8388:	34a90298 	ori	t1,a1,0x298
    838c:	ace60000 	sw	a2,0(a3)
    8390:	8c82000c 	lw	v0,12(a0)
    8394:	34a6029c 	ori	a2,a1,0x29c
    8398:	34a702a0 	ori	a3,a1,0x2a0
    839c:	ad020000 	sw	v0,0(t0)
    83a0:	8c830010 	lw	v1,16(a0)
    83a4:	34a802a4 	ori	t0,a1,0x2a4
    83a8:	34aa02a8 	ori	t2,a1,0x2a8
    83ac:	ad230000 	sw	v1,0(t1)
    83b0:	8c820014 	lw	v0,20(a0)
    83b4:	34a902ac 	ori	t1,a1,0x2ac
    83b8:	34ab02b0 	ori	t3,a1,0x2b0
    83bc:	acc20000 	sw	v0,0(a2)
    83c0:	8c830018 	lw	v1,24(a0)
    83c4:	34a602b4 	ori	a2,a1,0x2b4
    83c8:	34ac02b8 	ori	t4,a1,0x2b8
    83cc:	ace30000 	sw	v1,0(a3)
    83d0:	8c82001c 	lw	v0,28(a0)
    83d4:	34a702bc 	ori	a3,a1,0x2bc
    83d8:	34ad02c0 	ori	t5,a1,0x2c0
    83dc:	ad020000 	sw	v0,0(t0)
    83e0:	8c830020 	lw	v1,32(a0)
    83e4:	34a802c4 	ori	t0,a1,0x2c4
    83e8:	34ae02c8 	ori	t6,a1,0x2c8
    83ec:	ad430000 	sw	v1,0(t2)
    83f0:	8c820024 	lw	v0,36(a0)
    83f4:	34aa02cc 	ori	t2,a1,0x2cc
    83f8:	34af02d0 	ori	t7,a1,0x2d0
    83fc:	ad220000 	sw	v0,0(t1)
    8400:	8c830028 	lw	v1,40(a0)
    8404:	34a902d4 	ori	t1,a1,0x2d4
    8408:	34b002d8 	ori	s0,a1,0x2d8
    840c:	ad630000 	sw	v1,0(t3)
    8410:	8c82002c 	lw	v0,44(a0)
    8414:	34ab0270 	ori	t3,a1,0x270
    8418:	34b10274 	ori	s1,a1,0x274
    841c:	acc20000 	sw	v0,0(a2)
    8420:	8c830030 	lw	v1,48(a0)
    8424:	34a50278 	ori	a1,a1,0x278
    8428:	ad830000 	sw	v1,0(t4)
    842c:	8c820034 	lw	v0,52(a0)
    8430:	00000000 	nop
    8434:	ace20000 	sw	v0,0(a3)
    8438:	8c830038 	lw	v1,56(a0)
    843c:	00000000 	nop
    8440:	ada30000 	sw	v1,0(t5)
    8444:	8c82003c 	lw	v0,60(a0)
    8448:	00000000 	nop
    844c:	ad020000 	sw	v0,0(t0)
    8450:	8c830040 	lw	v1,64(a0)
    8454:	00000000 	nop
    8458:	adc30000 	sw	v1,0(t6)
    845c:	8c820044 	lw	v0,68(a0)
    8460:	00000000 	nop
    8464:	ad420000 	sw	v0,0(t2)
    8468:	8c830048 	lw	v1,72(a0)
    846c:	00000000 	nop
    8470:	ade30000 	sw	v1,0(t7)
    8474:	8c82004c 	lw	v0,76(a0)
    8478:	00000000 	nop
    847c:	ad220000 	sw	v0,0(t1)
    8480:	8c830050 	lw	v1,80(a0)
    8484:	00000000 	nop
    8488:	ae030000 	sw	v1,0(s0)
    848c:	8c820054 	lw	v0,84(a0)
    8490:	00000000 	nop
    8494:	ad620000 	sw	v0,0(t3)
    8498:	8c830058 	lw	v1,88(a0)
    849c:	00000000 	nop
    84a0:	ae230000 	sw	v1,0(s1)
    84a4:	8c82005c 	lw	v0,92(a0)
    84a8:	00000000 	nop
    84ac:	aca20000 	sw	v0,0(a1)
    84b0:	08002118 	j	0x8460
    84b4:	00000000 	nop
    84b8:	3c1b8001 	lui	k1,0x8001
    84bc:	277b8468 	addiu	k1,k1,-31640
    84c0:	3c1ab025 	lui	k0,0xb025
    84c4:	275a0318 	addiu	k0,k0,792
    84c8:	af5b0000 	sw	k1,0(k0)
    84cc:	03a0d821 	move	k1,sp
    84d0:	001bda82 	srl	k1,k1,0xa
    84d4:	001bda80 	sll	k1,k1,0xa
    84d8:	277b0008 	addiu	k1,k1,8
    84dc:	af610004 	sw	at,4(k1)
    84e0:	af620008 	sw	v0,8(k1)
    84e4:	af63000c 	sw	v1,12(k1)
    84e8:	af640010 	sw	a0,16(k1)
    84ec:	af650014 	sw	a1,20(k1)
    84f0:	af660018 	sw	a2,24(k1)
    84f4:	af67001c 	sw	a3,28(k1)
    84f8:	af680020 	sw	t0,32(k1)
    84fc:	af690024 	sw	t1,36(k1)
    8500:	af6a0028 	sw	t2,40(k1)
    8504:	af6b002c 	sw	t3,44(k1)
    8508:	af6c0030 	sw	t4,48(k1)
    850c:	af6d0034 	sw	t5,52(k1)
    8510:	af6e0038 	sw	t6,56(k1)
    8514:	af6f003c 	sw	t7,60(k1)
    8518:	00004012 	mflo	t0
    851c:	00004810 	mfhi	t1
    8520:	400a7000 	mfc0	t2,$14
    8524:	af700040 	sw	s0,64(k1)
    8528:	af710044 	sw	s1,68(k1)
    852c:	af720048 	sw	s2,72(k1)
    8530:	af73004c 	sw	s3,76(k1)
    8534:	af740050 	sw	s4,80(k1)
    8538:	af750054 	sw	s5,84(k1)
    853c:	af760058 	sw	s6,88(k1)
    8540:	af77005c 	sw	s7,92(k1)
    8544:	af780060 	sw	t8,96(k1)
    8548:	af790064 	sw	t9,100(k1)
    854c:	af7c0068 	sw	gp,104(k1)
    8550:	af7d006c 	sw	sp,108(k1)
    8554:	af7e0070 	sw	s8,112(k1)
    8558:	af7f0074 	sw	ra,116(k1)
    855c:	af680078 	sw	t0,120(k1)
    8560:	af69007c 	sw	t1,124(k1)
    8564:	af6a0080 	sw	t2,128(k1)
    8568:	401a6800 	mfc0	k0,$13
    856c:	3c1bb025 	lui	k1,0xb025
    8570:	377b031c 	ori	k1,k1,0x31c
    8574:	00000000 	nop
    8578:	af7a0000 	sw	k0,0(k1)
    857c:	335b007f 	andi	k1,k0,0x7f
    8580:	13600030 	beqz	k1,0x8644
    8584:	00000000 	nop
    8588:	3c1bb025 	lui	k1,0xb025
    858c:	377b0330 	ori	k1,k1,0x330
    8590:	00000000 	nop
    8594:	af7a0000 	sw	k0,0(k1)
    8598:	00000000 	nop
    859c:	03a0d821 	move	k1,sp
    85a0:	001bda82 	srl	k1,k1,0xa
    85a4:	001bda80 	sll	k1,k1,0xa
    85a8:	277b0008 	addiu	k1,k1,8
    85ac:	af610004 	sw	at,4(k1)
    85b0:	af620008 	sw	v0,8(k1)
    85b4:	af63000c 	sw	v1,12(k1)
    85b8:	af640010 	sw	a0,16(k1)
    85bc:	af650014 	sw	a1,20(k1)
    85c0:	af660018 	sw	a2,24(k1)
    85c4:	af67001c 	sw	a3,28(k1)
    85c8:	af680020 	sw	t0,32(k1)
    85cc:	af690024 	sw	t1,36(k1)
    85d0:	af6a0028 	sw	t2,40(k1)
    85d4:	af6b002c 	sw	t3,44(k1)
    85d8:	af6c0030 	sw	t4,48(k1)
    85dc:	af6d0034 	sw	t5,52(k1)
    85e0:	af6e0038 	sw	t6,56(k1)
    85e4:	af6f003c 	sw	t7,60(k1)
    85e8:	00004012 	mflo	t0
    85ec:	00004810 	mfhi	t1
    85f0:	400a7000 	mfc0	t2,$14
    85f4:	af700040 	sw	s0,64(k1)
    85f8:	af710044 	sw	s1,68(k1)
    85fc:	af720048 	sw	s2,72(k1)
    8600:	af73004c 	sw	s3,76(k1)
    8604:	af740050 	sw	s4,80(k1)
    8608:	af750054 	sw	s5,84(k1)
    860c:	af760058 	sw	s6,88(k1)
    8610:	af77005c 	sw	s7,92(k1)
    8614:	af780060 	sw	t8,96(k1)
    8618:	af790064 	sw	t9,100(k1)
    861c:	af7c0068 	sw	gp,104(k1)
    8620:	af7d006c 	sw	sp,108(k1)
    8624:	af7e0070 	sw	s8,112(k1)
    8628:	af7f0074 	sw	ra,116(k1)
    862c:	af680078 	sw	t0,120(k1)
    8630:	af69007c 	sw	t1,124(k1)
    8634:	af6a0080 	sw	t2,128(k1)
    8638:	080020b5 	j	0x82d4
    863c:	03602021 	move	a0,k1
    8640:	00000000 	nop
    8644:	3c08b025 	lui	t0,0xb025
    8648:	35080320 	ori	t0,t0,0x320
    864c:	00000000 	nop
    8650:	ad1a0000 	sw	k0,0(t0)
    8654:	335b0400 	andi	k1,k0,0x400
    8658:	1360000a 	beqz	k1,0x8684
    865c:	00000000 	nop
    8660:	3c088000 	lui	t0,0x8000
    8664:	25086d04 	addiu	t0,t0,27908
    8668:	00000000 	nop
    866c:	3c1bb025 	lui	k1,0xb025
    8670:	377b0324 	ori	k1,k1,0x324
    8674:	00000000 	nop
    8678:	af680000 	sw	t0,0(k1)
    867c:	0100f809 	jalr	t0
    8680:	00000000 	nop
    8684:	335b0800 	andi	k1,k0,0x800
    8688:	3c08b025 	lui	t0,0xb025
    868c:	35080328 	ori	t0,t0,0x328
    8690:	00000000 	nop
    8694:	ad1b0000 	sw	k1,0(t0)
    8698:	13600006 	beqz	k1,0x86b4
    869c:	00000000 	nop
    86a0:	3c088001 	lui	t0,0x8001
    86a4:	25088134 	addiu	t0,t0,-32460
    86a8:	00000000 	nop
    86ac:	0100f809 	jalr	t0
    86b0:	00000000 	nop
    86b4:	3c1a8002 	lui	k0,0x8002
    86b8:	275a7f04 	addiu	k0,k0,32516
    86bc:	975b0004 	lhu	k1,4(k0)
    86c0:	3c08b025 	lui	t0,0xb025
    86c4:	35080330 	ori	t0,t0,0x330
    86c8:	00000000 	nop
    86cc:	ad1b0000 	sw	k1,0(t0)
    86d0:	13600018 	beqz	k1,0x8734
    86d4:	00000000 	nop
    86d8:	279bec08 	addiu	k1,gp,-5112
    86dc:	00000000 	nop
    86e0:	8f610004 	lw	at,4(k1)
    86e4:	7b7003fc 	.word	0x7b7003fc
    86e8:	7b62007c 	.word	0x7b62007c
    86ec:	7b6400bc 	.word	0x7b6400bc
    86f0:	7b6600fc 	.word	0x7b6600fc
    86f4:	7b68013c 	.word	0x7b68013c
    86f8:	02000013 	mtlo	s0
    86fc:	02200011 	mthi	s1
    8700:	7b6a017c 	.word	0x7b6a017c
    8704:	7b6c01bc 	.word	0x7b6c01bc
    8708:	7b6e01fc 	.word	0x7b6e01fc
    870c:	7b70023c 	.word	0x7b70023c
    8710:	7b72027c 	.word	0x7b72027c
    8714:	7b7402bc 	.word	0x7b7402bc
    8718:	7b7602fc 	.word	0x7b7602fc
    871c:	7b78033c 	.word	0x7b78033c
    8720:	7b7c037c 	.word	0x7b7c037c
    8724:	7b7e03bc 	.word	0x7b7e03bc
    8728:	8f7b0080 	lw	k1,128(k1)
    872c:	08002205 	j	0x8814
    8730:	00000000 	nop
    8734:	03a0d821 	move	k1,sp
    8738:	001bda82 	srl	k1,k1,0xa
    873c:	001bda80 	sll	k1,k1,0xa
    8740:	277b0008 	addiu	k1,k1,8
    8744:	af5b0008 	sw	k1,8(k0)
    8748:	279deffc 	addiu	sp,gp,-4100
    874c:	8f4a0000 	lw	t2,0(k0)
    8750:	00000000 	nop
    8754:	11400021 	beqz	t2,0x87dc
    8758:	00000000 	nop
    875c:	3c088002 	lui	t0,0x8002
    8760:	25087e64 	addiu	t0,t0,32356
    8764:	00004821 	move	t1,zero
    8768:	00005821 	move	t3,zero
    876c:	256b0001 	addiu	t3,t3,1
    8770:	1140001a 	beqz	t2,0x87dc
    8774:	014b7024 	and	t6,t2,t3
    8778:	11c00014 	beqz	t6,0x87cc
    877c:	24040001 	li	a0,1
    8780:	00000000 	nop
    8784:	a3440004 	sb	a0,4(k0)
    8788:	014b5026 	xor	t2,t2,t3
    878c:	af4a0000 	sw	t2,0(k0)
    8790:	00098080 	sll	s0,t1,0x2
    8794:	02088021 	addu	s0,s0,t0
    8798:	8e100000 	lw	s0,0(s0)
    879c:	00000000 	nop
    87a0:	0200f809 	jalr	s0
    87a4:	00000000 	nop
    87a8:	3c1b8001 	lui	k1,0x8001
    87ac:	277b8740 	addiu	k1,k1,-30912
    87b0:	3c1ab025 	lui	k0,0xb025
    87b4:	275a0318 	addiu	k0,k0,792
    87b8:	af5b0000 	sw	k1,0(k0)
    87bc:	3c1a8002 	lui	k0,0x8002
    87c0:	275a7f04 	addiu	k0,k0,32516
    87c4:	1000ffe1 	b	0x874c
    87c8:	00000000 	nop
    87cc:	25290001 	addiu	t1,t1,1
    87d0:	000b5840 	sll	t3,t3,0x1
    87d4:	080021c8 	j	0x8720
    87d8:	00000000 	nop
    87dc:	3c1b8002 	lui	k1,0x8002
    87e0:	277b7f04 	addiu	k1,k1,32516
    87e4:	00006021 	move	t4,zero
    87e8:	a76c0004 	sh	t4,4(k1)
    87ec:	8f7a0008 	lw	k0,8(k1)
    87f0:	00000000 	nop
    87f4:	275afff8 	addiu	k0,k0,-8
    87f8:	8f5a0000 	lw	k0,0(k0)
    87fc:	00000000 	nop
    8800:	275a0008 	addiu	k0,k0,8
    8804:	8f440084 	lw	a0,132(k0)
    8808:	00000000 	nop
    880c:	1080fff9 	beqz	a0,0x87f4
    8810:	00000000 	nop
    8814:	8f410004 	lw	at,4(k0)
    8818:	7b5003fc 	.word	0x7b5003fc
    881c:	7b42007c 	.word	0x7b42007c
    8820:	7b4400bc 	.word	0x7b4400bc
    8824:	7b4600fc 	.word	0x7b4600fc
    8828:	7b48013c 	.word	0x7b48013c
    882c:	02000013 	mtlo	s0
    8830:	02200011 	mthi	s1
    8834:	7b4a017c 	.word	0x7b4a017c
    8838:	7b4c01bc 	.word	0x7b4c01bc
    883c:	7b4e01fc 	.word	0x7b4e01fc
    8840:	7b50023c 	.word	0x7b50023c
    8844:	7b52027c 	.word	0x7b52027c
    8848:	7b5402bc 	.word	0x7b5402bc
    884c:	7b5602fc 	.word	0x7b5602fc
    8850:	7b58033c 	.word	0x7b58033c
    8854:	7b5c037c 	.word	0x7b5c037c
    8858:	7b5e03bc 	.word	0x7b5e03bc
    885c:	8f5b0080 	lw	k1,128(k0)
    8860:	00000000 	nop
    8864:	03600008 	jr	k1
    8868:	42000010 	c0	0x10
    886c:	40056000 	mfc0	a1,$12
    8870:	00052842 	srl	a1,a1,0x1
    8874:	00052840 	sll	a1,a1,0x1
    8878:	40856000 	mtc0	a1,$12
    887c:	ac810004 	sw	at,4(a0)
    8880:	ac820008 	sw	v0,8(a0)
    8884:	ac83000c 	sw	v1,12(a0)
    8888:	ac880020 	sw	t0,32(a0)
    888c:	ac890024 	sw	t1,36(a0)
    8890:	ac8a0028 	sw	t2,40(a0)
    8894:	ac8b002c 	sw	t3,44(a0)
    8898:	ac8c0030 	sw	t4,48(a0)
    889c:	ac8d0034 	sw	t5,52(a0)
    88a0:	ac8e0038 	sw	t6,56(a0)
    88a4:	ac8f003c 	sw	t7,60(a0)
    88a8:	00004012 	mflo	t0
    88ac:	00004810 	mfhi	t1
    88b0:	ac900040 	sw	s0,64(a0)
    88b4:	ac910044 	sw	s1,68(a0)
    88b8:	ac920048 	sw	s2,72(a0)
    88bc:	ac93004c 	sw	s3,76(a0)
    88c0:	ac940050 	sw	s4,80(a0)
    88c4:	ac950054 	sw	s5,84(a0)
    88c8:	ac960058 	sw	s6,88(a0)
    88cc:	ac97005c 	sw	s7,92(a0)
    88d0:	ac980060 	sw	t8,96(a0)
    88d4:	ac990064 	sw	t9,100(a0)
    88d8:	ac9c0068 	sw	gp,104(a0)
    88dc:	ac9d006c 	sw	sp,108(a0)
    88e0:	ac9e0070 	sw	s8,112(a0)
    88e4:	ac9f0074 	sw	ra,116(a0)
    88e8:	ac880078 	sw	t0,120(a0)
    88ec:	ac89007c 	sw	t1,124(a0)
    88f0:	ac9f0080 	sw	ra,128(a0)
    88f4:	2484fff8 	addiu	a0,a0,-8
    88f8:	8c840000 	lw	a0,0(a0)
    88fc:	00000000 	nop
    8900:	24840008 	addiu	a0,a0,8
    8904:	8c860084 	lw	a2,132(a0)
    8908:	00000000 	nop
    890c:	10c0fff9 	beqz	a2,0x88f4
    8910:	00000000 	nop
    8914:	0080d821 	move	k1,a0
    8918:	24ba0001 	addiu	k0,a1,1
    891c:	8f610004 	lw	at,4(k1)
    8920:	7b7003fc 	.word	0x7b7003fc
    8924:	7b62007c 	.word	0x7b62007c
    8928:	7b6400bc 	.word	0x7b6400bc
    892c:	7b6600fc 	.word	0x7b6600fc
    8930:	7b68013c 	.word	0x7b68013c
    8934:	02000013 	mtlo	s0
    8938:	02200011 	mthi	s1
    893c:	7b6a017c 	.word	0x7b6a017c
    8940:	7b6c01bc 	.word	0x7b6c01bc
    8944:	7b6e01fc 	.word	0x7b6e01fc
    8948:	7b70023c 	.word	0x7b70023c
    894c:	7b72027c 	.word	0x7b72027c
    8950:	7b7402bc 	.word	0x7b7402bc
    8954:	7b7602fc 	.word	0x7b7602fc
    8958:	7b78033c 	.word	0x7b78033c
    895c:	7b7c037c 	.word	0x7b7c037c
    8960:	7b7e03bc 	.word	0x7b7e03bc
    8964:	8f7b0080 	lw	k1,128(k1)
    8968:	00000000 	nop
    896c:	03600008 	jr	k1
    8970:	409a6000 	mtc0	k0,$12
    8974:	40056000 	mfc0	a1,$12
    8978:	00052842 	srl	a1,a1,0x1
    897c:	00052840 	sll	a1,a1,0x1
    8980:	40856000 	mtc0	a1,$12
    8984:	ac810004 	sw	at,4(a0)
    8988:	ac820008 	sw	v0,8(a0)
    898c:	ac83000c 	sw	v1,12(a0)
    8990:	ac880020 	sw	t0,32(a0)
    8994:	ac890024 	sw	t1,36(a0)
    8998:	ac8a0028 	sw	t2,40(a0)
    899c:	ac8b002c 	sw	t3,44(a0)
    89a0:	ac8c0030 	sw	t4,48(a0)
    89a4:	ac8d0034 	sw	t5,52(a0)
    89a8:	ac8e0038 	sw	t6,56(a0)
    89ac:	ac8f003c 	sw	t7,60(a0)
    89b0:	00004012 	mflo	t0
    89b4:	00004810 	mfhi	t1
    89b8:	ac900040 	sw	s0,64(a0)
    89bc:	ac910044 	sw	s1,68(a0)
    89c0:	ac920048 	sw	s2,72(a0)
    89c4:	ac93004c 	sw	s3,76(a0)
    89c8:	ac940050 	sw	s4,80(a0)
    89cc:	ac940054 	sw	s4,84(a0)
    89d0:	ac960058 	sw	s6,88(a0)
    89d4:	ac96005c 	sw	s6,92(a0)
    89d8:	ac980060 	sw	t8,96(a0)
    89dc:	ac990064 	sw	t9,100(a0)
    89e0:	ac9c0068 	sw	gp,104(a0)
    89e4:	ac9d006c 	sw	sp,108(a0)
    89e8:	ac9e0070 	sw	s8,112(a0)
    89ec:	ac880078 	sw	t0,120(a0)
    89f0:	ac89007c 	sw	t1,124(a0)
    89f4:	ac9f0080 	sw	ra,128(a0)
    89f8:	ac800084 	sw	zero,132(a0)
    89fc:	2484fff8 	addiu	a0,a0,-8
    8a00:	8c840000 	lw	a0,0(a0)
    8a04:	00000000 	nop
    8a08:	24840008 	addiu	a0,a0,8
    8a0c:	8c860084 	lw	a2,132(a0)
    8a10:	10c0fffa 	beqz	a2,0x89fc
    8a14:	00000000 	nop
    8a18:	0080d821 	move	k1,a0
    8a1c:	24ba0001 	addiu	k0,a1,1
    8a20:	8f610004 	lw	at,4(k1)
    8a24:	7b7003fc 	.word	0x7b7003fc
    8a28:	7b62007c 	.word	0x7b62007c
    8a2c:	7b6400bc 	.word	0x7b6400bc
    8a30:	7b6600fc 	.word	0x7b6600fc
    8a34:	7b68013c 	.word	0x7b68013c
    8a38:	02000013 	mtlo	s0
    8a3c:	02200011 	mthi	s1
    8a40:	7b6a017c 	.word	0x7b6a017c
    8a44:	7b6c01bc 	.word	0x7b6c01bc
    8a48:	7b6e01fc 	.word	0x7b6e01fc
    8a4c:	7b70023c 	.word	0x7b70023c
    8a50:	7b72027c 	.word	0x7b72027c
    8a54:	7b7402bc 	.word	0x7b7402bc
    8a58:	7b7602fc 	.word	0x7b7602fc
    8a5c:	7b78033c 	.word	0x7b78033c
    8a60:	7b7c037c 	.word	0x7b7c037c
    8a64:	7b7e03bc 	.word	0x7b7e03bc
    8a68:	8f7b0080 	lw	k1,128(k1)
    8a6c:	03600008 	jr	k1
    8a70:	409a6000 	mtc0	k0,$12
	...
    8c50:	00009f0d 	break	0x0,0x27c
    8c54:	00000000 	nop
    8c58:	3c1b8001 	lui	k1,0x8001
    8c5c:	277b0000 	addiu	k1,k1,0
    8c60:	3c1ab025 	lui	k0,0xb025
    8c64:	275a0318 	addiu	k0,k0,792
    8c68:	af5b0000 	sw	k1,0(k0)
    8c6c:	24050000 	li	a1,0
    8c70:	24a40003 	addiu	a0,a1,3
    8c74:	4080a000 	mtc0	zero,$20
    8c78:	4084a000 	mtc0	a0,$20
    8c7c:	3c048001 	lui	a0,0x8001
    8c80:	24840398 	addiu	a0,a0,920
    8c84:	00800008 	jr	a0
    8c88:	00000000 	nop
	...
    8ff0:	3c1b8001 	lui	k1,0x8001
    8ff4:	277b0398 	addiu	k1,k1,920
    8ff8:	3c1ab025 	lui	k0,0xb025
    8ffc:	275a0318 	addiu	k0,k0,792
    9000:	af5b0000 	sw	k1,0(k0)
    9004:	3c1a8002 	lui	k0,0x8002
    9008:	275a0000 	addiu	k0,k0,0
    900c:	275d03fc 	addiu	sp,k0,1020
    9010:	3c1c8002 	lui	gp,0x8002
    9014:	279c1400 	addiu	gp,gp,5120
    9018:	3c08f000 	lui	t0,0xf000
    901c:	35080c00 	ori	t0,t0,0xc00
    9020:	40886000 	mtc0	t0,$12
    9024:	3c048002 	lui	a0,0x8002
    9028:	24840000 	addiu	a0,a0,0
    902c:	3c057fff 	lui	a1,0x7fff
    9030:	34a5ffff 	ori	a1,a1,0xffff
    9034:	00852024 	and	a0,a0,a1
    9038:	4c842000 	.word	0x4c842000
    903c:	3405ffff 	li	a1,0xffff
    9040:	00a42821 	addu	a1,a1,a0
    9044:	4c852800 	.word	0x4c852800
    9048:	3c048000 	lui	a0,0x8000
    904c:	24840000 	addiu	a0,a0,0
    9050:	3c057fff 	lui	a1,0x7fff
    9054:	34a5ffff 	ori	a1,a1,0xffff
    9058:	00852024 	and	a0,a0,a1
    905c:	4c840000 	.word	0x4c840000
    9060:	3406ffff 	li	a2,0xffff
    9064:	00c43021 	addu	a2,a2,a0
    9068:	00c53024 	and	a2,a2,a1
    906c:	4c860800 	.word	0x4c860800
    9070:	4004a000 	mfc0	a0,$20
    9074:	34840010 	ori	a0,a0,0x10
    9078:	4084a000 	mtc0	a0,$20
    907c:	3c1b8001 	lui	k1,0x8001
    9080:	277b0424 	addiu	k1,k1,1060
    9084:	3c1ab025 	lui	k0,0xb025
    9088:	275a0318 	addiu	k0,k0,792
    908c:	af5b0000 	sw	k1,0(k0)
    9090:	00000000 	nop
    9094:	3c04b025 	lui	a0,0xb025
    9098:	34840044 	ori	a0,a0,0x44
    909c:	84850000 	lh	a1,0(a0)
    90a0:	24060020 	li	a2,32
    90a4:	00a62825 	or	a1,a1,a2
    90a8:	a4850000 	sh	a1,0(a0)
    90ac:	3c1b8001 	lui	k1,0x8001
    90b0:	277b0454 	addiu	k1,k1,1108
    90b4:	3c1ab025 	lui	k0,0xb025
    90b8:	275a0318 	addiu	k0,k0,792
    90bc:	af5b0000 	sw	k1,0(k0)
    90c0:	3c04b025 	lui	a0,0xb025
    90c4:	34840044 	ori	a0,a0,0x44
    90c8:	8c850000 	lw	a1,0(a0)
    90cc:	00000000 	nop
    90d0:	30a50010 	andi	a1,a1,0x10
    90d4:	10a0fffc 	beqz	a1,0x90c8
    90d8:	00000000 	nop
    90dc:	3c071fff 	lui	a3,0x1fff
    90e0:	34e7ffff 	ori	a3,a3,0xffff
    90e4:	3c058002 	lui	a1,0x8002
    90e8:	24a57e20 	addiu	a1,a1,32288
    90ec:	30a5ffff 	andi	a1,a1,0xffff
    90f0:	3c04b040 	lui	a0,0xb040
    90f4:	00a42825 	or	a1,a1,a0
    90f8:	00a72824 	and	a1,a1,a3
    90fc:	00003021 	move	a2,zero
    9100:	3c02b043 	lui	v0,0xb043
    9104:	3c048000 	lui	a0,0x8000
    9108:	34840040 	ori	a0,a0,0x40
    910c:	ac450000 	sw	a1,0(v0)
    9110:	ac460004 	sw	a2,4(v0)
    9114:	ac440008 	sw	a0,8(v0)
    9118:	08005d82 	j	0x17608
    911c:	00000000 	nop
    9120:	03e00008 	jr	ra
    9124:	00000000 	nop
    9128:	24020009 	li	v0,9
    912c:	2442ffff 	addiu	v0,v0,-1
    9130:	0441ffff 	bgez	v0,0x9130
    9134:	2442ffff 	addiu	v0,v0,-1
    9138:	03e00008 	jr	ra
    913c:	24420001 	addiu	v0,v0,1
    9140:	40026000 	mfc0	v0,$12
    9144:	34410001 	ori	at,v0,0x1
    9148:	38210001 	xori	at,at,0x1
    914c:	40816000 	mtc0	at,$12
    9150:	03e00008 	jr	ra
    9154:	ac820000 	sw	v0,0(a0)
    9158:	8c820000 	lw	v0,0(a0)
    915c:	00000000 	nop
    9160:	00401821 	move	v1,v0
    9164:	40836000 	mtc0	v1,$12
    9168:	03e00008 	jr	ra
    916c:	ac820000 	sw	v0,0(a0)
    9170:	40016000 	mfc0	at,$12
    9174:	34210001 	ori	at,at,0x1
    9178:	40816000 	mtc0	at,$12
    917c:	03e00008 	jr	ra
    9180:	00000000 	nop
    9184:	40016000 	mfc0	at,$12
    9188:	34210001 	ori	at,at,0x1
    918c:	38210001 	xori	at,at,0x1
    9190:	40816000 	mtc0	at,$12
    9194:	03e00008 	jr	ra
    9198:	00000000 	nop
    919c:	3c038001 	lui	v1,0x8001
    91a0:	3c02b025 	lui	v0,0xb025
    91a4:	24630544 	addiu	v1,v1,1348
    91a8:	34420318 	ori	v0,v0,0x318
    91ac:	ac430000 	sw	v1,0(v0)
    91b0:	8c850004 	lw	a1,4(a0)
    91b4:	3c038000 	lui	v1,0x8000
    91b8:	24020001 	li	v0,1
    91bc:	00a32825 	or	a1,a1,v1
    91c0:	8ca40000 	lw	a0,0(a1)
    91c4:	03e00008 	jr	ra
    91c8:	00000000 	nop
    91cc:	3c038001 	lui	v1,0x8001
    91d0:	3c02b025 	lui	v0,0xb025
    91d4:	24630574 	addiu	v1,v1,1396
    91d8:	34420318 	ori	v0,v0,0x318
    91dc:	ac430000 	sw	v1,0(v0)
    91e0:	8c820004 	lw	v0,4(a0)
    91e4:	94830002 	lhu	v1,2(a0)
    91e8:	3c078000 	lui	a3,0x8000
    91ec:	00472825 	or	a1,v0,a3
    91f0:	8ca20000 	lw	v0,0(a1)
    91f4:	24020010 	li	v0,16
    91f8:	10620013 	beq	v1,v0,0x9248
    91fc:	28660011 	slti	a2,v1,17
    9200:	10c00006 	beqz	a2,0x921c
    9204:	24020020 	li	v0,32
    9208:	24020008 	li	v0,8
    920c:	10620017 	beq	v1,v0,0x926c
    9210:	00000000 	nop
    9214:	03e00008 	jr	ra
    9218:	24020001 	li	v0,1
    921c:	1462fffd 	bne	v1,v0,0x9214
    9220:	00000000 	nop
    9224:	8c830008 	lw	v1,8(a0)
    9228:	00000000 	nop
    922c:	aca30000 	sw	v1,0(a1)
    9230:	8c820004 	lw	v0,4(a0)
    9234:	00000000 	nop
    9238:	00471025 	or	v0,v0,a3
    923c:	8c420000 	lw	v0,0(v0)
    9240:	03e00008 	jr	ra
    9244:	24020001 	li	v0,1
    9248:	8c820008 	lw	v0,8(a0)
    924c:	00000000 	nop
    9250:	a4a20000 	sh	v0,0(a1)
    9254:	8c830004 	lw	v1,4(a0)
    9258:	00000000 	nop
    925c:	00671825 	or	v1,v1,a3
    9260:	94620000 	lhu	v0,0(v1)
    9264:	03e00008 	jr	ra
    9268:	24020001 	li	v0,1
    926c:	8c820008 	lw	v0,8(a0)
    9270:	00000000 	nop
    9274:	a0a20000 	sb	v0,0(a1)
    9278:	8c830004 	lw	v1,4(a0)
    927c:	00000000 	nop
    9280:	00671825 	or	v1,v1,a3
    9284:	90620000 	lbu	v0,0(v1)
    9288:	03e00008 	jr	ra
    928c:	24020001 	li	v0,1
    9290:	27bdffe0 	addiu	sp,sp,-32
    9294:	afb10014 	sw	s1,20(sp)
    9298:	3c118002 	lui	s1,0x8002
    929c:	afbf001c 	sw	ra,28(sp)
    92a0:	afb20018 	sw	s2,24(sp)
    92a4:	afb00010 	sw	s0,16(sp)
    92a8:	26311568 	addiu	s1,s1,5480
    92ac:	96306578 	lhu	s0,25976(s1)
    92b0:	3c028002 	lui	v0,0x8002
    92b4:	3c038001 	lui	v1,0x8001
    92b8:	02028025 	or	s0,s0,v0
    92bc:	3c02b025 	lui	v0,0xb025
    92c0:	24630638 	addiu	v1,v1,1592
    92c4:	34420318 	ori	v0,v0,0x318
    92c8:	26040060 	addiu	a0,s0,96
    92cc:	26050080 	addiu	a1,s0,128
    92d0:	ac430000 	sw	v1,0(v0)
    92d4:	0c00456c 	jal	0x115b0
    92d8:	24060003 	li	a2,3
    92dc:	02002021 	move	a0,s0
    92e0:	00002821 	move	a1,zero
    92e4:	0c004558 	jal	0x11560
    92e8:	24060008 	li	a2,8
    92ec:	8e226578 	lw	v0,25976(s1)
    92f0:	2403000c 	li	v1,12
    92f4:	ae43000c 	sw	v1,12(s2)
    92f8:	ae420008 	sw	v0,8(s2)
    92fc:	24020012 	li	v0,18
    9300:	ae420014 	sw	v0,20(s2)
    9304:	02402021 	move	a0,s2
    9308:	8fbf001c 	lw	ra,28(sp)
    930c:	8fb20018 	lw	s2,24(sp)
    9310:	8fb10014 	lw	s1,20(sp)
    9314:	8fb00010 	lw	s0,16(sp)
    9318:	08000830 	j	0x20c0
    931c:	27bd0020 	addiu	sp,sp,32
    9320:	03e00008 	jr	ra
    9324:	00000000 	nop
    9328:	03e00008 	jr	ra
    932c:	00001021 	move	v0,zero
    9330:	03e00008 	jr	ra
    9334:	00001021 	move	v0,zero
    9338:	03e00008 	jr	ra
    933c:	00001021 	move	v0,zero
    9340:	03e00008 	jr	ra
    9344:	00001021 	move	v0,zero
    9348:	03e00008 	jr	ra
    934c:	00001021 	move	v0,zero
    9350:	03e00008 	jr	ra
    9354:	00001021 	move	v0,zero
    9358:	03e00008 	jr	ra
    935c:	00001021 	move	v0,zero
    9360:	03e00008 	jr	ra
    9364:	00001021 	move	v0,zero
    9368:	03e00008 	jr	ra
    936c:	00001021 	move	v0,zero
    9370:	03e00008 	jr	ra
    9374:	00000000 	nop
    9378:	03e00008 	jr	ra
    937c:	00000000 	nop
    9380:	03e00008 	jr	ra
    9384:	00001021 	move	v0,zero
    9388:	03e00008 	jr	ra
    938c:	00001021 	move	v0,zero
    9390:	03e00008 	jr	ra
    9394:	00001021 	move	v0,zero
    9398:	03e00008 	jr	ra
    939c:	00001021 	move	v0,zero
    93a0:	03e00008 	jr	ra
    93a4:	00001021 	move	v0,zero
    93a8:	03e00008 	jr	ra
    93ac:	00001021 	move	v0,zero
    93b0:	03e00008 	jr	ra
    93b4:	00001021 	move	v0,zero
    93b8:	03e00008 	jr	ra
    93bc:	24020001 	li	v0,1
    93c0:	03e00008 	jr	ra
    93c4:	00001021 	move	v0,zero
    93c8:	03e00008 	jr	ra
    93cc:	24020001 	li	v0,1
    93d0:	03e00008 	jr	ra
    93d4:	00001021 	move	v0,zero
    93d8:	03e00008 	jr	ra
    93dc:	00001021 	move	v0,zero
    93e0:	03e00008 	jr	ra
    93e4:	24020001 	li	v0,1
    93e8:	03e00008 	jr	ra
    93ec:	00001021 	move	v0,zero
    93f0:	03e00008 	jr	ra
    93f4:	24020001 	li	v0,1
    93f8:	03e00008 	jr	ra
    93fc:	00001021 	move	v0,zero
    9400:	03e00008 	jr	ra
    9404:	00000000 	nop
    9408:	03e00008 	jr	ra
    940c:	24020001 	li	v0,1
    9410:	03e00008 	jr	ra
    9414:	24020001 	li	v0,1
    9418:	3c028002 	lui	v0,0x8002
    941c:	00804821 	move	t1,a0
    9420:	24481568 	addiu	t0,v0,5480
    9424:	00003821 	move	a3,zero
    9428:	01272821 	addu	a1,t1,a3
    942c:	90a20000 	lbu	v0,0(a1)
    9430:	00e82021 	addu	a0,a3,t0
    9434:	24e70001 	addiu	a3,a3,1
    9438:	a0824c4c 	sb	v0,19532(a0)
    943c:	90a3001e 	lbu	v1,30(a1)
    9440:	28e6001e 	slti	a2,a3,30
    9444:	a0834c6a 	sb	v1,19562(a0)
    9448:	90a2003c 	lbu	v0,60(a1)
    944c:	00000000 	nop
    9450:	a0824c88 	sb	v0,19592(a0)
    9454:	90a3005a 	lbu	v1,90(a1)
    9458:	14c0fff3 	bnez	a2,0x9428
    945c:	a0834ca6 	sb	v1,19622(a0)
    9460:	03e00008 	jr	ra
    9464:	00001021 	move	v0,zero
    9468:	03e00008 	jr	ra
    946c:	24020001 	li	v0,1
    9470:	3c03bd20 	lui	v1,0xbd20
    9474:	34630058 	ori	v1,v1,0x58
    9478:	90620000 	lbu	v0,0(v1)
    947c:	2407270f 	li	a3,9999
    9480:	34420020 	ori	v0,v0,0x20
    9484:	a0620000 	sb	v0,0(v1)
    9488:	24e7ffff 	addiu	a3,a3,-1
    948c:	04e1ffff 	bgez	a3,0x948c
    9490:	24e7ffff 	addiu	a3,a3,-1
    9494:	3c04bd62 	lui	a0,0xbd62
    9498:	34821024 	ori	v0,a0,0x1024
    949c:	a0400000 	sb	zero,0(v0)
    94a0:	34831028 	ori	v1,a0,0x1028
    94a4:	3486110c 	ori	a2,a0,0x110c
    94a8:	2402000e 	li	v0,14
    94ac:	a0600000 	sb	zero,0(v1)
    94b0:	34851100 	ori	a1,a0,0x1100
    94b4:	a0c20000 	sb	v0,0(a2)
    94b8:	8ca70000 	lw	a3,0(a1)
    94bc:	2402ffdf 	li	v0,-33
    94c0:	34860010 	ori	a2,a0,0x10
    94c4:	00e23824 	and	a3,a3,v0
    94c8:	24030c49 	li	v1,3145
    94cc:	2402ffcf 	li	v0,-49
    94d0:	acc30000 	sw	v1,0(a2)
    94d4:	34840004 	ori	a0,a0,0x4
    94d8:	aca70000 	sw	a3,0(a1)
    94dc:	00e23824 	and	a3,a3,v0
    94e0:	24020c41 	li	v0,3137
    94e4:	aca70000 	sw	a3,0(a1)
    94e8:	ac800000 	sw	zero,0(a0)
    94ec:	acc20000 	sw	v0,0(a2)
    94f0:	03e00008 	jr	ra
    94f4:	00001021 	move	v0,zero
    94f8:	03e00008 	jr	ra
    94fc:	00001021 	move	v0,zero
    9500:	3c05b025 	lui	a1,0xb025
    9504:	3c038001 	lui	v1,0x8001
    9508:	00803821 	move	a3,a0
    950c:	34a20318 	ori	v0,a1,0x318
    9510:	246308a8 	addiu	v1,v1,2216
    9514:	24040001 	li	a0,1
    9518:	ac430000 	sw	v1,0(v0)
    951c:	10e40035 	beq	a3,a0,0x95f4
    9520:	00000000 	nop
    9524:	10e00008 	beqz	a3,0x9548
    9528:	34a20820 	ori	v0,a1,0x820
    952c:	24020002 	li	v0,2
    9530:	10e20083 	beq	a3,v0,0x9740
    9534:	24020003 	li	v0,3
    9538:	10e2005a 	beq	a3,v0,0x96a4
    953c:	00000000 	nop
    9540:	03e00008 	jr	ra
    9544:	00000000 	nop
    9548:	3c038002 	lui	v1,0x8002
    954c:	8c440000 	lw	a0,0(v0)
    9550:	24661568 	addiu	a2,v1,5480
    9554:	24020870 	li	v0,2160
    9558:	240308e0 	li	v1,2272
    955c:	acc24b88 	sw	v0,19336(a2)
    9560:	24020840 	li	v0,2112
    9564:	acc34b8c 	sw	v1,19340(a2)
    9568:	acc24b98 	sw	v0,19352(a2)
    956c:	24030878 	li	v1,2168
    9570:	2402080c 	li	v0,2060
    9574:	acc34b9c 	sw	v1,19356(a2)
    9578:	acc24ba0 	sw	v0,19360(a2)
    957c:	24030810 	li	v1,2064
    9580:	24020820 	li	v0,2080
    9584:	acc34ba4 	sw	v1,19364(a2)
    9588:	acc24ba8 	sw	v0,19368(a2)
    958c:	24030824 	li	v1,2084
    9590:	24020858 	li	v0,2136
    9594:	acc34bac 	sw	v1,19372(a2)
    9598:	acc24bb0 	sw	v0,19376(a2)
    959c:	24030c50 	li	v1,3152
    95a0:	24020c54 	li	v0,3156
    95a4:	acc34bb4 	sw	v1,19380(a2)
    95a8:	acc24bb8 	sw	v0,19384(a2)
    95ac:	24030c14 	li	v1,3092
    95b0:	24020c10 	li	v0,3088
    95b4:	24050860 	li	a1,2144
    95b8:	acc34bbc 	sw	v1,19388(a2)
    95bc:	acc24bc0 	sw	v0,19392(a2)
    95c0:	24030c80 	li	v1,3200
    95c4:	24020c84 	li	v0,3204
    95c8:	30840100 	andi	a0,a0,0x100
    95cc:	acc24bc8 	sw	v0,19400(a2)
    95d0:	acc54b94 	sw	a1,19348(a2)
    95d4:	acc34bc4 	sw	v1,19396(a2)
    95d8:	a0c04b85 	sb	zero,19333(a2)
    95dc:	acc54b90 	sw	a1,19344(a2)
    95e0:	10800002 	beqz	a0,0x95ec
    95e4:	240208a0 	li	v0,2208
    95e8:	240208b8 	li	v0,2232
    95ec:	03e00008 	jr	ra
    95f0:	acc24bcc 	sw	v0,19404(a2)
    95f4:	34a20828 	ori	v0,a1,0x828
    95f8:	3c038002 	lui	v1,0x8002
    95fc:	8c440000 	lw	a0,0(v0)
    9600:	24661568 	addiu	a2,v1,5480
    9604:	24020870 	li	v0,2160
    9608:	240308e0 	li	v1,2272
    960c:	acc24b88 	sw	v0,19336(a2)
    9610:	24020844 	li	v0,2116
    9614:	acc34b8c 	sw	v1,19340(a2)
    9618:	acc24b98 	sw	v0,19352(a2)
    961c:	24030878 	li	v1,2168
    9620:	2402080c 	li	v0,2060
    9624:	acc34b9c 	sw	v1,19356(a2)
    9628:	acc24ba0 	sw	v0,19360(a2)
    962c:	24030814 	li	v1,2068
    9630:	24020828 	li	v0,2088
    9634:	acc34ba4 	sw	v1,19364(a2)
    9638:	acc24ba8 	sw	v0,19368(a2)
    963c:	2403082c 	li	v1,2092
    9640:	24020858 	li	v0,2136
    9644:	acc34bac 	sw	v1,19372(a2)
    9648:	acc24bb0 	sw	v0,19376(a2)
    964c:	24030c58 	li	v1,3160
    9650:	24020c5c 	li	v0,3164
    9654:	acc34bb4 	sw	v1,19380(a2)
    9658:	acc24bb8 	sw	v0,19384(a2)
    965c:	24030c1c 	li	v1,3100
    9660:	24020c18 	li	v0,3096
    9664:	24050864 	li	a1,2148
    9668:	acc34bbc 	sw	v1,19388(a2)
    966c:	acc24bc0 	sw	v0,19392(a2)
    9670:	24030c88 	li	v1,3208
    9674:	24020c8c 	li	v0,3212
    9678:	30840100 	andi	a0,a0,0x100
    967c:	acc24bc8 	sw	v0,19400(a2)
    9680:	a0c74b85 	sb	a3,19333(a2)
    9684:	acc54b94 	sw	a1,19348(a2)
    9688:	acc34bc4 	sw	v1,19396(a2)
    968c:	acc54b90 	sw	a1,19344(a2)
    9690:	1080ffd6 	beqz	a0,0x95ec
    9694:	240208a4 	li	v0,2212
    9698:	240208bc 	li	v0,2236
    969c:	03e00008 	jr	ra
    96a0:	acc24bcc 	sw	v0,19404(a2)
    96a4:	3c028002 	lui	v0,0x8002
    96a8:	24421568 	addiu	v0,v0,5480
    96ac:	240308ac 	li	v1,2220
    96b0:	ac434bcc 	sw	v1,19404(v0)
    96b4:	24030874 	li	v1,2164
    96b8:	240408e4 	li	a0,2276
    96bc:	ac434b88 	sw	v1,19336(v0)
    96c0:	2403084c 	li	v1,2124
    96c4:	ac444b8c 	sw	a0,19340(v0)
    96c8:	ac434b98 	sw	v1,19352(v0)
    96cc:	2404087c 	li	a0,2172
    96d0:	2403080c 	li	v1,2060
    96d4:	ac444b9c 	sw	a0,19356(v0)
    96d8:	ac434ba0 	sw	v1,19360(v0)
    96dc:	2404081c 	li	a0,2076
    96e0:	24030838 	li	v1,2104
    96e4:	ac444ba4 	sw	a0,19364(v0)
    96e8:	ac434ba8 	sw	v1,19368(v0)
    96ec:	2404083c 	li	a0,2108
    96f0:	2403085c 	li	v1,2140
    96f4:	ac444bac 	sw	a0,19372(v0)
    96f8:	ac434bb0 	sw	v1,19376(v0)
    96fc:	24040c68 	li	a0,3176
    9700:	24030c6c 	li	v1,3180
    9704:	ac444bb4 	sw	a0,19380(v0)
    9708:	ac434bb8 	sw	v1,19384(v0)
    970c:	24040c2c 	li	a0,3116
    9710:	24030c28 	li	v1,3112
    9714:	2405086c 	li	a1,2156
    9718:	ac444bbc 	sw	a0,19388(v0)
    971c:	ac434bc0 	sw	v1,19392(v0)
    9720:	24040c98 	li	a0,3224
    9724:	24030c9c 	li	v1,3228
    9728:	a0474b85 	sb	a3,19333(v0)
    972c:	ac454b94 	sw	a1,19348(v0)
    9730:	ac444bc4 	sw	a0,19396(v0)
    9734:	ac434bc8 	sw	v1,19400(v0)
    9738:	03e00008 	jr	ra
    973c:	ac454b90 	sw	a1,19344(v0)
    9740:	3c028002 	lui	v0,0x8002
    9744:	24421568 	addiu	v0,v0,5480
    9748:	240308a8 	li	v1,2216
    974c:	ac434bcc 	sw	v1,19404(v0)
    9750:	24030874 	li	v1,2164
    9754:	240408e4 	li	a0,2276
    9758:	ac434b88 	sw	v1,19336(v0)
    975c:	24030848 	li	v1,2120
    9760:	ac444b8c 	sw	a0,19340(v0)
    9764:	ac434b98 	sw	v1,19352(v0)
    9768:	2404087c 	li	a0,2172
    976c:	2403080c 	li	v1,2060
    9770:	ac444b9c 	sw	a0,19356(v0)
    9774:	ac434ba0 	sw	v1,19360(v0)
    9778:	24040818 	li	a0,2072
    977c:	24030830 	li	v1,2096
    9780:	ac444ba4 	sw	a0,19364(v0)
    9784:	ac434ba8 	sw	v1,19368(v0)
    9788:	24040834 	li	a0,2100
    978c:	2403085c 	li	v1,2140
    9790:	ac444bac 	sw	a0,19372(v0)
    9794:	ac434bb0 	sw	v1,19376(v0)
    9798:	24040c60 	li	a0,3168
    979c:	24030c64 	li	v1,3172
    97a0:	ac444bb4 	sw	a0,19380(v0)
    97a4:	ac434bb8 	sw	v1,19384(v0)
    97a8:	24040c24 	li	a0,3108
    97ac:	24030c20 	li	v1,3104
    97b0:	24050868 	li	a1,2152
    97b4:	ac444bbc 	sw	a0,19388(v0)
    97b8:	ac434bc0 	sw	v1,19392(v0)
    97bc:	24040c90 	li	a0,3216
    97c0:	24030c94 	li	v1,3220
    97c4:	a0474b85 	sb	a3,19333(v0)
    97c8:	ac454b94 	sw	a1,19348(v0)
    97cc:	ac444bc4 	sw	a0,19396(v0)
    97d0:	ac434bc8 	sw	v1,19400(v0)
    97d4:	03e00008 	jr	ra
    97d8:	ac454b90 	sw	a1,19344(v0)
    97dc:	080042e6 	j	0x10b98
    97e0:	00001821 	move	v1,zero
    97e4:	2c620020 	sltiu	v0,v1,32
    97e8:	10400006 	beqz	v0,0x9804
    97ec:	00000000 	nop
    97f0:	00641006 	srlv	v0,a0,v1
    97f4:	30420001 	andi	v0,v0,0x1
    97f8:	1040fffa 	beqz	v0,0x97e4
    97fc:	24630001 	addiu	v1,v1,1
    9800:	2463ffff 	addiu	v1,v1,-1
    9804:	03e00008 	jr	ra
    9808:	00601021 	move	v0,v1
    980c:	27bdffd8 	addiu	sp,sp,-40
    9810:	3c02b025 	lui	v0,0xb025
    9814:	afb20018 	sw	s2,24(sp)
    9818:	00829021 	addu	s2,a0,v0
    981c:	2402ffff 	li	v0,-1
    9820:	afb3001c 	sw	s3,28(sp)
    9824:	afb10014 	sw	s1,20(sp)
    9828:	afbf0020 	sw	ra,32(sp)
    982c:	afb00010 	sw	s0,16(sp)
    9830:	00a08821 	move	s1,a1
    9834:	00a02021 	move	a0,a1
    9838:	02401821 	move	v1,s2
    983c:	10a20010 	beq	a1,v0,0x9880
    9840:	00c09821 	move	s3,a2
    9844:	8e500000 	lw	s0,0(s2)
    9848:	0c0042e1 	jal	0x10b84
    984c:	00000000 	nop
    9850:	00531004 	sllv	v0,s3,v0
    9854:	00111827 	nor	v1,zero,s1
    9858:	00621825 	or	v1,v1,v0
    985c:	00701824 	and	v1,v1,s0
    9860:	ae430000 	sw	v1,0(s2)
    9864:	8fbf0020 	lw	ra,32(sp)
    9868:	8fb3001c 	lw	s3,28(sp)
    986c:	8fb20018 	lw	s2,24(sp)
    9870:	8fb10014 	lw	s1,20(sp)
    9874:	8fb00010 	lw	s0,16(sp)
    9878:	03e00008 	jr	ra
    987c:	27bd0028 	addiu	sp,sp,40
    9880:	8fbf0020 	lw	ra,32(sp)
    9884:	8fb3001c 	lw	s3,28(sp)
    9888:	8fb20018 	lw	s2,24(sp)
    988c:	8fb10014 	lw	s1,20(sp)
    9890:	8fb00010 	lw	s0,16(sp)
    9894:	27bd0028 	addiu	sp,sp,40
    9898:	ac660000 	sw	a2,0(v1)
    989c:	03e00008 	jr	ra
    98a0:	00000000 	nop
    98a4:	3c028002 	lui	v0,0x8002
    98a8:	00803021 	move	a2,a0
    98ac:	8c446100 	lw	a0,24832(v0)
    98b0:	080042ed 	j	0x10bb4
    98b4:	2405ffff 	li	a1,-1
    98b8:	27bdffe0 	addiu	sp,sp,-32
    98bc:	3c02b025 	lui	v0,0xb025
    98c0:	afbf0018 	sw	ra,24(sp)
    98c4:	afb10014 	sw	s1,20(sp)
    98c8:	afb00010 	sw	s0,16(sp)
    98cc:	00822021 	addu	a0,a0,v0
    98d0:	8c900000 	lw	s0,0(a0)
    98d4:	00a08821 	move	s1,a1
    98d8:	0c0042e1 	jal	0x10b84
    98dc:	00a02021 	move	a0,a1
    98e0:	02118024 	and	s0,s0,s1
    98e4:	00501006 	srlv	v0,s0,v0
    98e8:	8fbf0018 	lw	ra,24(sp)
    98ec:	8fb10014 	lw	s1,20(sp)
    98f0:	8fb00010 	lw	s0,16(sp)
    98f4:	03e00008 	jr	ra
    98f8:	27bd0020 	addiu	sp,sp,32
    98fc:	27bdffd0 	addiu	sp,sp,-48
    9900:	afb10014 	sw	s1,20(sp)
    9904:	3c118002 	lui	s1,0x8002
    9908:	afbf0028 	sw	ra,40(sp)
    990c:	afb40020 	sw	s4,32(sp)
    9910:	afb3001c 	sw	s3,28(sp)
    9914:	afb20018 	sw	s2,24(sp)
    9918:	afb50024 	sw	s5,36(sp)
    991c:	afb00010 	sw	s0,16(sp)
    9920:	26311568 	addiu	s1,s1,5480
    9924:	8e224bac 	lw	v0,19372(s1)
    9928:	3c12b025 	lui	s2,0xb025
    992c:	36530824 	ori	s3,s2,0x824
    9930:	00521021 	addu	v0,v0,s2
    9934:	8e700000 	lw	s0,0(s3)
    9938:	8c550000 	lw	s5,0(v0)
    993c:	3c03807f 	lui	v1,0x807f
    9940:	3c027fff 	lui	v0,0x7fff
    9944:	3463ffff 	ori	v1,v1,0xffff
    9948:	3442ffff 	ori	v0,v0,0xffff
    994c:	02021024 	and	v0,s0,v0
    9950:	02a31824 	and	v1,s5,v1
    9954:	000425c0 	sll	a0,a0,0x17
    9958:	00641825 	or	v1,v1,a0
    995c:	3c148000 	lui	s4,0x8000
    9960:	ae620000 	sw	v0,0(s3)
    9964:	24040001 	li	a0,1
    9968:	0c000c25 	jal	0x3094
    996c:	0074a825 	or	s5,v1,s4
    9970:	8e224bac 	lw	v0,19372(s1)
    9974:	02148025 	or	s0,s0,s4
    9978:	24040001 	li	a0,1
    997c:	00521021 	addu	v0,v0,s2
    9980:	ac550000 	sw	s5,0(v0)
    9984:	0c000c25 	jal	0x3094
    9988:	00000000 	nop
    998c:	ae700000 	sw	s0,0(s3)
    9990:	0c000c25 	jal	0x3094
    9994:	24040001 	li	a0,1
    9998:	8e244bcc 	lw	a0,19404(s1)
    999c:	3c05000f 	lui	a1,0xf
    99a0:	8fbf0028 	lw	ra,40(sp)
    99a4:	8fb50024 	lw	s5,36(sp)
    99a8:	8fb40020 	lw	s4,32(sp)
    99ac:	8fb3001c 	lw	s3,28(sp)
    99b0:	8fb20018 	lw	s2,24(sp)
    99b4:	8fb10014 	lw	s1,20(sp)
    99b8:	8fb00010 	lw	s0,16(sp)
    99bc:	34a5ffff 	ori	a1,a1,0xffff
    99c0:	08004318 	j	0x10c60
    99c4:	27bd0030 	addiu	sp,sp,48
    99c8:	27bdffe0 	addiu	sp,sp,-32
    99cc:	afb10014 	sw	s1,20(sp)
    99d0:	3c118002 	lui	s1,0x8002
    99d4:	afb00010 	sw	s0,16(sp)
    99d8:	afbf0018 	sw	ra,24(sp)
    99dc:	26271568 	addiu	a3,s1,5480
    99e0:	90e54b87 	lbu	a1,19335(a3)
    99e4:	3c038001 	lui	v1,0x8001
    99e8:	3c02b025 	lui	v0,0xb025
    99ec:	24630d70 	addiu	v1,v1,3440
    99f0:	34420318 	ori	v0,v0,0x318
    99f4:	24060002 	li	a2,2
    99f8:	ac430000 	sw	v1,0(v0)
    99fc:	10a60034 	beq	a1,a2,0x9ad0
    9a00:	00808021 	move	s0,a0
    9a04:	24030003 	li	v1,3
    9a08:	10a3003a 	beq	a1,v1,0x9af4
    9a0c:	2e02002e 	sltiu	v0,s0,46
    9a10:	2e020010 	sltiu	v0,s0,16
    9a14:	10400007 	beqz	v0,0x9a34
    9a18:	00000000 	nop
    9a1c:	320400ff 	andi	a0,s0,0xff
    9a20:	8fbf0018 	lw	ra,24(sp)
    9a24:	8fb10014 	lw	s1,20(sp)
    9a28:	8fb00010 	lw	s0,16(sp)
    9a2c:	08004329 	j	0x10ca4
    9a30:	27bd0020 	addiu	sp,sp,32
    9a34:	14a6fffa 	bne	a1,a2,0x9a20
    9a38:	320400ff 	andi	a0,s0,0xff
    9a3c:	90e44b85 	lbu	a0,19333(a3)
    9a40:	24020001 	li	v0,1
    9a44:	10820033 	beq	a0,v0,0x9b14
    9a48:	28820002 	slti	v0,a0,2
    9a4c:	14400038 	bnez	v0,0x9b30
    9a50:	00000000 	nop
    9a54:	10850038 	beq	a0,a1,0x9b38
    9a58:	26221568 	addiu	v0,s1,5480
    9a5c:	1083002e 	beq	a0,v1,0x9b18
    9a60:	00000000 	nop
    9a64:	24040800 	li	a0,2048
    9a68:	0c004318 	jal	0x10c60
    9a6c:	2405ffff 	li	a1,-1
    9a70:	3c06fcff 	lui	a2,0xfcff
    9a74:	34c6ffff 	ori	a2,a2,0xffff
    9a78:	00463024 	and	a2,v0,a2
    9a7c:	24040800 	li	a0,2048
    9a80:	0c0042ed 	jal	0x10bb4
    9a84:	2405ffff 	li	a1,-1
    9a88:	26221568 	addiu	v0,s1,5480
    9a8c:	90444b85 	lbu	a0,19333(v0)
    9a90:	24030001 	li	v1,1
    9a94:	10830007 	beq	a0,v1,0x9ab4
    9a98:	28820002 	slti	v0,a0,2
    9a9c:	1440002c 	bnez	v0,0x9b50
    9aa0:	24020002 	li	v0,2
    9aa4:	1082002c 	beq	a0,v0,0x9b58
    9aa8:	24020003 	li	v0,3
    9aac:	1482ffdb 	bne	a0,v0,0x9a1c
    9ab0:	00000000 	nop
    9ab4:	26221568 	addiu	v0,s1,5480
    9ab8:	8c444b88 	lw	a0,19336(v0)
    9abc:	3c05000f 	lui	a1,0xf
    9ac0:	0c0042ed 	jal	0x10bb4
    9ac4:	00003021 	move	a2,zero
    9ac8:	08004372 	j	0x10dc8
    9acc:	320400ff 	andi	a0,s0,0xff
    9ad0:	2c820025 	sltiu	v0,a0,37
    9ad4:	1440ffcc 	bnez	v0,0x9a08
    9ad8:	24030003 	li	v1,3
    9adc:	8fbf0018 	lw	ra,24(sp)
    9ae0:	8fb10014 	lw	s1,20(sp)
    9ae4:	8fb00010 	lw	s0,16(sp)
    9ae8:	00001021 	move	v0,zero
    9aec:	03e00008 	jr	ra
    9af0:	27bd0020 	addiu	sp,sp,32
    9af4:	1440ffc7 	bnez	v0,0x9a14
    9af8:	2e020010 	sltiu	v0,s0,16
    9afc:	8fbf0018 	lw	ra,24(sp)
    9b00:	8fb10014 	lw	s1,20(sp)
    9b04:	8fb00010 	lw	s0,16(sp)
    9b08:	00001021 	move	v0,zero
    9b0c:	03e00008 	jr	ra
    9b10:	27bd0020 	addiu	sp,sp,32
    9b14:	26221568 	addiu	v0,s1,5480
    9b18:	8c444b88 	lw	a0,19336(v0)
    9b1c:	3c05000f 	lui	a1,0xf
    9b20:	0c0042ed 	jal	0x10bb4
    9b24:	2406000f 	li	a2,15
    9b28:	08004384 	j	0x10e10
    9b2c:	24040800 	li	a0,2048
    9b30:	1480ffcc 	bnez	a0,0x9a64
    9b34:	26221568 	addiu	v0,s1,5480
    9b38:	8c444b88 	lw	a0,19336(v0)
    9b3c:	2405000f 	li	a1,15
    9b40:	0c0042ed 	jal	0x10bb4
    9b44:	2406000f 	li	a2,15
    9b48:	08004384 	j	0x10e10
    9b4c:	24040800 	li	a0,2048
    9b50:	1480ffb2 	bnez	a0,0x9a1c
    9b54:	00000000 	nop
    9b58:	26221568 	addiu	v0,s1,5480
    9b5c:	8c444b88 	lw	a0,19336(v0)
    9b60:	2405000f 	li	a1,15
    9b64:	0c0042ed 	jal	0x10bb4
    9b68:	00003021 	move	a2,zero
    9b6c:	08004372 	j	0x10dc8
    9b70:	320400ff 	andi	a0,s0,0xff
    9b74:	27bdffe0 	addiu	sp,sp,-32
    9b78:	afb10014 	sw	s1,20(sp)
    9b7c:	3c118002 	lui	s1,0x8002
    9b80:	26281568 	addiu	t0,s1,5480
    9b84:	91064b87 	lbu	a2,19335(t0)
    9b88:	3c038001 	lui	v1,0x8001
    9b8c:	3c02b025 	lui	v0,0xb025
    9b90:	24630f1c 	addiu	v1,v1,3868
    9b94:	34420318 	ori	v0,v0,0x318
    9b98:	24070002 	li	a3,2
    9b9c:	afb20018 	sw	s2,24(sp)
    9ba0:	afb00010 	sw	s0,16(sp)
    9ba4:	afbf001c 	sw	ra,28(sp)
    9ba8:	ac430000 	sw	v1,0(v0)
    9bac:	00a09021 	move	s2,a1
    9bb0:	10c70039 	beq	a2,a3,0x9c98
    9bb4:	309000ff 	andi	s0,a0,0xff
    9bb8:	24030003 	li	v1,3
    9bbc:	10c3003f 	beq	a2,v1,0x9cbc
    9bc0:	2e02002e 	sltiu	v0,s0,46
    9bc4:	2e020010 	sltiu	v0,s0,16
    9bc8:	1040000c 	beqz	v0,0x9bfc
    9bcc:	00000000 	nop
    9bd0:	3c04000f 	lui	a0,0xf
    9bd4:	3484ffff 	ori	a0,a0,0xffff
    9bd8:	02442024 	and	a0,s2,a0
    9bdc:	00101500 	sll	v0,s0,0x14
    9be0:	8fbf001c 	lw	ra,28(sp)
    9be4:	8fb20018 	lw	s2,24(sp)
    9be8:	8fb10014 	lw	s1,20(sp)
    9bec:	8fb00010 	lw	s0,16(sp)
    9bf0:	00442025 	or	a0,v0,a0
    9bf4:	08004313 	j	0x10c4c
    9bf8:	27bd0020 	addiu	sp,sp,32
    9bfc:	14c7fff5 	bne	a2,a3,0x9bd4
    9c00:	3c04000f 	lui	a0,0xf
    9c04:	91044b85 	lbu	a0,19333(t0)
    9c08:	24020001 	li	v0,1
    9c0c:	10820033 	beq	a0,v0,0x9cdc
    9c10:	28820002 	slti	v0,a0,2
    9c14:	14400038 	bnez	v0,0x9cf8
    9c18:	00000000 	nop
    9c1c:	10860038 	beq	a0,a2,0x9d00
    9c20:	26221568 	addiu	v0,s1,5480
    9c24:	1083002e 	beq	a0,v1,0x9ce0
    9c28:	00000000 	nop
    9c2c:	24040800 	li	a0,2048
    9c30:	0c004318 	jal	0x10c60
    9c34:	2405ffff 	li	a1,-1
    9c38:	3c06fcff 	lui	a2,0xfcff
    9c3c:	34c6ffff 	ori	a2,a2,0xffff
    9c40:	00463024 	and	a2,v0,a2
    9c44:	24040800 	li	a0,2048
    9c48:	0c0042ed 	jal	0x10bb4
    9c4c:	2405ffff 	li	a1,-1
    9c50:	26221568 	addiu	v0,s1,5480
    9c54:	90444b85 	lbu	a0,19333(v0)
    9c58:	24030001 	li	v1,1
    9c5c:	10830007 	beq	a0,v1,0x9c7c
    9c60:	28820002 	slti	v0,a0,2
    9c64:	1440002c 	bnez	v0,0x9d18
    9c68:	24020002 	li	v0,2
    9c6c:	1082002c 	beq	a0,v0,0x9d20
    9c70:	24020003 	li	v0,3
    9c74:	1482ffd6 	bne	a0,v0,0x9bd0
    9c78:	00000000 	nop
    9c7c:	26221568 	addiu	v0,s1,5480
    9c80:	8c444b88 	lw	a0,19336(v0)
    9c84:	3c05000f 	lui	a1,0xf
    9c88:	0c0042ed 	jal	0x10bb4
    9c8c:	00003021 	move	a2,zero
    9c90:	080043df 	j	0x10f7c
    9c94:	3c04000f 	lui	a0,0xf
    9c98:	2e020025 	sltiu	v0,s0,37
    9c9c:	1440ffc7 	bnez	v0,0x9bbc
    9ca0:	24030003 	li	v1,3
    9ca4:	8fbf001c 	lw	ra,28(sp)
    9ca8:	8fb20018 	lw	s2,24(sp)
    9cac:	8fb10014 	lw	s1,20(sp)
    9cb0:	8fb00010 	lw	s0,16(sp)
    9cb4:	03e00008 	jr	ra
    9cb8:	27bd0020 	addiu	sp,sp,32
    9cbc:	1440ffc1 	bnez	v0,0x9bc4
    9cc0:	00000000 	nop
    9cc4:	8fbf001c 	lw	ra,28(sp)
    9cc8:	8fb20018 	lw	s2,24(sp)
    9ccc:	8fb10014 	lw	s1,20(sp)
    9cd0:	8fb00010 	lw	s0,16(sp)
    9cd4:	03e00008 	jr	ra
    9cd8:	27bd0020 	addiu	sp,sp,32
    9cdc:	26221568 	addiu	v0,s1,5480
    9ce0:	8c444b88 	lw	a0,19336(v0)
    9ce4:	3c05000f 	lui	a1,0xf
    9ce8:	0c0042ed 	jal	0x10bb4
    9cec:	2406000f 	li	a2,15
    9cf0:	080043f6 	j	0x10fd8
    9cf4:	24040800 	li	a0,2048
    9cf8:	1480ffcc 	bnez	a0,0x9c2c
    9cfc:	26221568 	addiu	v0,s1,5480
    9d00:	8c444b88 	lw	a0,19336(v0)
    9d04:	2405000f 	li	a1,15
    9d08:	0c0042ed 	jal	0x10bb4
    9d0c:	2406000f 	li	a2,15
    9d10:	080043f6 	j	0x10fd8
    9d14:	24040800 	li	a0,2048
    9d18:	1480ffad 	bnez	a0,0x9bd0
    9d1c:	00000000 	nop
    9d20:	26221568 	addiu	v0,s1,5480
    9d24:	8c444b88 	lw	a0,19336(v0)
    9d28:	2405000f 	li	a1,15
    9d2c:	0c0042ed 	jal	0x10bb4
    9d30:	00003021 	move	a2,zero
    9d34:	080043df 	j	0x10f7c
    9d38:	3c04000f 	lui	a0,0xf
    9d3c:	27bdffe8 	addiu	sp,sp,-24
    9d40:	afb00010 	sw	s0,16(sp)
    9d44:	00808021 	move	s0,a0
    9d48:	afbf0014 	sw	ra,20(sp)
    9d4c:	0c004329 	jal	0x10ca4
    9d50:	00002021 	move	a0,zero
    9d54:	34440140 	ori	a0,v0,0x140
    9d58:	00401821 	move	v1,v0
    9d5c:	2e02001f 	sltiu	v0,s0,31
    9d60:	00042300 	sll	a0,a0,0xc
    9d64:	10400010 	beqz	v0,0x9da8
    9d68:	2e050010 	sltiu	a1,s0,16
    9d6c:	34640100 	ori	a0,v1,0x100
    9d70:	10a00006 	beqz	a1,0x9d8c
    9d74:	00042300 	sll	a0,a0,0xc
    9d78:	02001021 	move	v0,s0
    9d7c:	8fbf0014 	lw	ra,20(sp)
    9d80:	8fb00010 	lw	s0,16(sp)
    9d84:	03e00008 	jr	ra
    9d88:	27bd0018 	addiu	sp,sp,24
    9d8c:	0c004313 	jal	0x10c4c
    9d90:	2610fff1 	addiu	s0,s0,-15
    9d94:	02001021 	move	v0,s0
    9d98:	8fbf0014 	lw	ra,20(sp)
    9d9c:	8fb00010 	lw	s0,16(sp)
    9da0:	03e00008 	jr	ra
    9da4:	27bd0018 	addiu	sp,sp,24
    9da8:	0c004313 	jal	0x10c4c
    9dac:	2610ffe2 	addiu	s0,s0,-30
    9db0:	02001021 	move	v0,s0
    9db4:	8fbf0014 	lw	ra,20(sp)
    9db8:	8fb00010 	lw	s0,16(sp)
    9dbc:	03e00008 	jr	ra
    9dc0:	27bd0018 	addiu	sp,sp,24
    9dc4:	3c02b025 	lui	v0,0xb025
    9dc8:	00053827 	nor	a3,zero,a1
    9dcc:	00824021 	addu	t0,a0,v0
    9dd0:	2402ffff 	li	v0,-1
    9dd4:	10a20007 	beq	a1,v0,0x9df4
    9dd8:	00e63825 	or	a3,a3,a2
    9ddc:	8d020000 	lw	v0,0(t0)
    9de0:	00000000 	nop
    9de4:	00e21024 	and	v0,a3,v0
    9de8:	ad020000 	sw	v0,0(t0)
    9dec:	03e00008 	jr	ra
    9df0:	00000000 	nop
    9df4:	ad060000 	sw	a2,0(t0)
    9df8:	03e00008 	jr	ra
    9dfc:	00000000 	nop
    9e00:	3c028001 	lui	v0,0x8001
    9e04:	3c03b025 	lui	v1,0xb025
    9e08:	27bdffd8 	addiu	sp,sp,-40
    9e0c:	244211a8 	addiu	v0,v0,4520
    9e10:	34630318 	ori	v1,v1,0x318
    9e14:	afb40020 	sw	s4,32(sp)
    9e18:	afb3001c 	sw	s3,28(sp)
    9e1c:	afb10014 	sw	s1,20(sp)
    9e20:	afbf0024 	sw	ra,36(sp)
    9e24:	afb20018 	sw	s2,24(sp)
    9e28:	afb00010 	sw	s0,16(sp)
    9e2c:	ac620000 	sw	v0,0(v1)
    9e30:	00a08821 	move	s1,a1
    9e34:	00c09821 	move	s3,a2
    9e38:	0080a021 	move	s4,a0
    9e3c:	40126000 	mfc0	s2,$12
    9e40:	36410001 	ori	at,s2,0x1
    9e44:	38210001 	xori	at,at,0x1
    9e48:	40816000 	mtc0	at,$12
    9e4c:	3c02000f 	lui	v0,0xf
    9e50:	3442ffff 	ori	v0,v0,0xffff
    9e54:	1222000a 	beq	s1,v0,0x9e80
    9e58:	00c02821 	move	a1,a2
    9e5c:	0c00435c 	jal	0x10d70
    9e60:	00000000 	nop
    9e64:	02202021 	move	a0,s1
    9e68:	0c0042e1 	jal	0x10b84
    9e6c:	00408021 	move	s0,v0
    9e70:	00531004 	sllv	v0,s3,v0
    9e74:	00112827 	nor	a1,zero,s1
    9e78:	00a22825 	or	a1,a1,v0
    9e7c:	00b02824 	and	a1,a1,s0
    9e80:	0c0043c7 	jal	0x10f1c
    9e84:	328400ff 	andi	a0,s4,0xff
    9e88:	40926000 	mtc0	s2,$12
    9e8c:	8fbf0024 	lw	ra,36(sp)
    9e90:	8fb40020 	lw	s4,32(sp)
    9e94:	8fb3001c 	lw	s3,28(sp)
    9e98:	8fb20018 	lw	s2,24(sp)
    9e9c:	8fb10014 	lw	s1,20(sp)
    9ea0:	8fb00010 	lw	s0,16(sp)
    9ea4:	03e00008 	jr	ra
    9ea8:	27bd0028 	addiu	sp,sp,40
    9eac:	3c038001 	lui	v1,0x8001
    9eb0:	3c02b025 	lui	v0,0xb025
    9eb4:	27bdffe0 	addiu	sp,sp,-32
    9eb8:	24631254 	addiu	v1,v1,4692
    9ebc:	34420318 	ori	v0,v0,0x318
    9ec0:	afb20018 	sw	s2,24(sp)
    9ec4:	afbf001c 	sw	ra,28(sp)
    9ec8:	afb10014 	sw	s1,20(sp)
    9ecc:	afb00010 	sw	s0,16(sp)
    9ed0:	ac430000 	sw	v1,0(v0)
    9ed4:	00a09021 	move	s2,a1
    9ed8:	40116000 	mfc0	s1,$12
    9edc:	36210001 	ori	at,s1,0x1
    9ee0:	38210001 	xori	at,at,0x1
    9ee4:	40816000 	mtc0	at,$12
    9ee8:	0c00435c 	jal	0x10d70
    9eec:	00000000 	nop
    9ef0:	00408021 	move	s0,v0
    9ef4:	0c0042e1 	jal	0x10b84
    9ef8:	02402021 	move	a0,s2
    9efc:	02128024 	and	s0,s0,s2
    9f00:	00508006 	srlv	s0,s0,v0
    9f04:	40916000 	mtc0	s1,$12
    9f08:	02001021 	move	v0,s0
    9f0c:	8fbf001c 	lw	ra,28(sp)
    9f10:	8fb20018 	lw	s2,24(sp)
    9f14:	8fb10014 	lw	s1,20(sp)
    9f18:	8fb00010 	lw	s0,16(sp)
    9f1c:	03e00008 	jr	ra
    9f20:	27bd0020 	addiu	sp,sp,32
    9f24:	03e00008 	jr	ra
    9f28:	00000000 	nop
    9f2c:	03e00008 	jr	ra
    9f30:	00000000 	nop
    9f34:	03e00008 	jr	ra
    9f38:	00000000 	nop
    9f3c:	03e00008 	jr	ra
    9f40:	00000000 	nop
    9f44:	03e00008 	jr	ra
    9f48:	00000000 	nop
    9f4c:	03e00008 	jr	ra
    9f50:	00001021 	move	v0,zero
    9f54:	03e00008 	jr	ra
    9f58:	00000000 	nop
    9f5c:	03e00008 	jr	ra
    9f60:	00000000 	nop
    9f64:	03e00008 	jr	ra
    9f68:	00000000 	nop
    9f6c:	03e00008 	jr	ra
    9f70:	00000000 	nop
    9f74:	03e00008 	jr	ra
    9f78:	00000000 	nop
    9f7c:	03e00008 	jr	ra
    9f80:	00000000 	nop
    9f84:	03e00008 	jr	ra
    9f88:	00001021 	move	v0,zero
    9f8c:	03e00008 	jr	ra
    9f90:	00001021 	move	v0,zero
    9f94:	03e00008 	jr	ra
    9f98:	00001021 	move	v0,zero
    9f9c:	03e00008 	jr	ra
    9fa0:	00001021 	move	v0,zero
    9fa4:	03e00008 	jr	ra
    9fa8:	00001021 	move	v0,zero
    9fac:	03e00008 	jr	ra
    9fb0:	00001021 	move	v0,zero
    9fb4:	03e00008 	jr	ra
    9fb8:	00001021 	move	v0,zero
    9fbc:	03e00008 	jr	ra
    9fc0:	00000000 	nop
    9fc4:	03e00008 	jr	ra
    9fc8:	00000000 	nop
    9fcc:	03e00008 	jr	ra
    9fd0:	00000000 	nop
    9fd4:	03e00008 	jr	ra
    9fd8:	00000000 	nop
    9fdc:	03e00008 	jr	ra
    9fe0:	24020001 	li	v0,1
    9fe4:	03e00008 	jr	ra
    9fe8:	00000000 	nop
    9fec:	03e00008 	jr	ra
    9ff0:	00001021 	move	v0,zero
    9ff4:	03e00008 	jr	ra
    9ff8:	00001021 	move	v0,zero
    9ffc:	03e00008 	jr	ra
    a000:	00001021 	move	v0,zero
    a004:	03e00008 	jr	ra
    a008:	00001021 	move	v0,zero
    a00c:	03e00008 	jr	ra
    a010:	00000000 	nop
    a014:	03e00008 	jr	ra
    a018:	00000000 	nop
    a01c:	03e00008 	jr	ra
    a020:	00000000 	nop
    a024:	03e00008 	jr	ra
    a028:	00000000 	nop
    a02c:	03e00008 	jr	ra
    a030:	00000000 	nop
    a034:	03e00008 	jr	ra
    a038:	00000000 	nop
    a03c:	03e00008 	jr	ra
    a040:	00000000 	nop
    a044:	27bdffc8 	addiu	sp,sp,-56
    a048:	afb1002c 	sw	s1,44(sp)
    a04c:	2405ffff 	li	a1,-1
    a050:	00808821 	move	s1,a0
    a054:	24060002 	li	a2,2
    a058:	27a40010 	addiu	a0,sp,16
    a05c:	afbf0034 	sw	ra,52(sp)
    a060:	afb20030 	sw	s2,48(sp)
    a064:	0c004558 	jal	0x11560
    a068:	afb00028 	sw	s0,40(sp)
    a06c:	96300008 	lhu	s0,8(s1)
    a070:	3c028002 	lui	v0,0x8002
    a074:	00002821 	move	a1,zero
    a078:	02028025 	or	s0,s0,v0
    a07c:	02002021 	move	a0,s0
    a080:	0c004558 	jal	0x11560
    a084:	24060010 	li	a2,16
    a088:	96020020 	lhu	v0,32(s0)
    a08c:	26040024 	addiu	a0,s0,36
    a090:	27a50010 	addiu	a1,sp,16
    a094:	3042ff03 	andi	v0,v0,0xff03
    a098:	344200c8 	ori	v0,v0,0xc8
    a09c:	a6020020 	sh	v0,32(s0)
    a0a0:	0c004560 	jal	0x11580
    a0a4:	24060006 	li	a2,6
    a0a8:	3c03b025 	lui	v1,0xb025
    a0ac:	34620050 	ori	v0,v1,0x50
    a0b0:	8c440000 	lw	a0,0(v0)
    a0b4:	34650054 	ori	a1,v1,0x54
    a0b8:	34660058 	ori	a2,v1,0x58
    a0bc:	afa40018 	sw	a0,24(sp)
    a0c0:	8ca20000 	lw	v0,0(a1)
    a0c4:	3463005c 	ori	v1,v1,0x5c
    a0c8:	2604002a 	addiu	a0,s0,42
    a0cc:	afa2001c 	sw	v0,28(sp)
    a0d0:	8cc70000 	lw	a3,0(a2)
    a0d4:	27a50018 	addiu	a1,sp,24
    a0d8:	24060006 	li	a2,6
    a0dc:	afa70020 	sw	a3,32(sp)
    a0e0:	8c620000 	lw	v0,0(v1)
    a0e4:	2412001a 	li	s2,26
    a0e8:	0c004560 	jal	0x11580
    a0ec:	afa20024 	sw	v0,36(sp)
    a0f0:	26040030 	addiu	a0,s0,48
    a0f4:	27a50020 	addiu	a1,sp,32
    a0f8:	0c004560 	jal	0x11580
    a0fc:	24060006 	li	a2,6
    a100:	24030013 	li	v1,19
    a104:	ae230014 	sw	v1,20(s1)
    a108:	ae32000c 	sw	s2,12(s1)
    a10c:	8e050008 	lw	a1,8(s0)
    a110:	8e040004 	lw	a0,4(s0)
    a114:	3c02dfff 	lui	v0,0xdfff
    a118:	8e060014 	lw	a2,20(s0)
    a11c:	3442ffff 	ori	v0,v0,0xffff
    a120:	8e070010 	lw	a3,16(s0)
    a124:	2403e0ff 	li	v1,-7937
    a128:	00a22824 	and	a1,a1,v0
    a12c:	3c024000 	lui	v0,0x4000
    a130:	00832024 	and	a0,a0,v1
    a134:	00a22825 	or	a1,a1,v0
    a138:	240381ff 	li	v1,-32257
    a13c:	3c02fffe 	lui	v0,0xfffe
    a140:	00c33024 	and	a2,a2,v1
    a144:	3442ffff 	ori	v0,v0,0xffff
    a148:	34841200 	ori	a0,a0,0x1200
    a14c:	3c038000 	lui	v1,0x8000
    a150:	00822024 	and	a0,a0,v0
    a154:	00e33825 	or	a3,a3,v1
    a158:	34c62600 	ori	a2,a2,0x2600
    a15c:	34a50080 	ori	a1,a1,0x80
    a160:	24020020 	li	v0,32
    a164:	a6120000 	sh	s2,0(s0)
    a168:	ae070010 	sw	a3,16(s0)
    a16c:	a2020002 	sb	v0,2(s0)
    a170:	ae060014 	sw	a2,20(s0)
    a174:	ae040004 	sw	a0,4(s0)
    a178:	ae050008 	sw	a1,8(s0)
    a17c:	8fbf0034 	lw	ra,52(sp)
    a180:	8fb20030 	lw	s2,48(sp)
    a184:	8fb1002c 	lw	s1,44(sp)
    a188:	8fb00028 	lw	s0,40(sp)
    a18c:	03e00008 	jr	ra
    a190:	27bd0038 	addiu	sp,sp,56
    a194:	08004554 	j	0x11550
    a198:	30a500ff 	andi	a1,a1,0xff
    a19c:	a0850000 	sb	a1,0(a0)
    a1a0:	24c6ffff 	addiu	a2,a2,-1
    a1a4:	24840001 	addiu	a0,a0,1
    a1a8:	14c0fffc 	bnez	a2,0xa19c
    a1ac:	00000000 	nop
    a1b0:	03e00008 	jr	ra
    a1b4:	00000000 	nop
    a1b8:	10c00005 	beqz	a2,0xa1d0
    a1bc:	00000000 	nop
    a1c0:	ac850000 	sw	a1,0(a0)
    a1c4:	24c6ffff 	addiu	a2,a2,-1
    a1c8:	14c0fffd 	bnez	a2,0xa1c0
    a1cc:	24840004 	addiu	a0,a0,4
    a1d0:	03e00008 	jr	ra
    a1d4:	00000000 	nop
    a1d8:	00803821 	move	a3,a0
    a1dc:	10c00008 	beqz	a2,0xa200
    a1e0:	24c3ffff 	addiu	v1,a2,-1
    a1e4:	2406ffff 	li	a2,-1
    a1e8:	90a20000 	lbu	v0,0(a1)
    a1ec:	2463ffff 	addiu	v1,v1,-1
    a1f0:	24a50001 	addiu	a1,a1,1
    a1f4:	a0e20000 	sb	v0,0(a3)
    a1f8:	1466fffb 	bne	v1,a2,0xa1e8
    a1fc:	24e70001 	addiu	a3,a3,1
    a200:	03e00008 	jr	ra
    a204:	00801021 	move	v0,a0
    a208:	00803821 	move	a3,a0
    a20c:	10c00008 	beqz	a2,0xa230
    a210:	24c3ffff 	addiu	v1,a2,-1
    a214:	2406ffff 	li	a2,-1
    a218:	8ca20000 	lw	v0,0(a1)
    a21c:	2463ffff 	addiu	v1,v1,-1
    a220:	24a50004 	addiu	a1,a1,4
    a224:	ace20000 	sw	v0,0(a3)
    a228:	1466fffb 	bne	v1,a2,0xa218
    a22c:	24e70004 	addiu	a3,a3,4
    a230:	03e00008 	jr	ra
    a234:	00801021 	move	v0,a0
    a238:	00a4102b 	sltu	v0,a1,a0
    a23c:	1440000d 	bnez	v0,0xa274
    a240:	2402ffff 	li	v0,-1
    a244:	24c6ffff 	addiu	a2,a2,-1
    a248:	10c20008 	beq	a2,v0,0xa26c
    a24c:	00801821 	move	v1,a0
    a250:	2407ffff 	li	a3,-1
    a254:	90a20000 	lbu	v0,0(a1)
    a258:	24c6ffff 	addiu	a2,a2,-1
    a25c:	24a50001 	addiu	a1,a1,1
    a260:	a0620000 	sb	v0,0(v1)
    a264:	14c7fffb 	bne	a2,a3,0xa254
    a268:	24630001 	addiu	v1,v1,1
    a26c:	03e00008 	jr	ra
    a270:	00801021 	move	v0,a0
    a274:	00a62821 	addu	a1,a1,a2
    a278:	00861821 	addu	v1,a0,a2
    a27c:	24c6ffff 	addiu	a2,a2,-1
    a280:	10c2fffa 	beq	a2,v0,0xa26c
    a284:	00000000 	nop
    a288:	2407ffff 	li	a3,-1
    a28c:	24a5ffff 	addiu	a1,a1,-1
    a290:	90a20000 	lbu	v0,0(a1)
    a294:	2463ffff 	addiu	v1,v1,-1
    a298:	24c6ffff 	addiu	a2,a2,-1
    a29c:	14c7fffb 	bne	a2,a3,0xa28c
    a2a0:	a0620000 	sb	v0,0(v1)
    a2a4:	03e00008 	jr	ra
    a2a8:	00801021 	move	v0,a0
    a2ac:	10c0000c 	beqz	a2,0xa2e0
    a2b0:	00000000 	nop
    a2b4:	90820000 	lbu	v0,0(a0)
    a2b8:	90a30000 	lbu	v1,0(a1)
    a2bc:	24840001 	addiu	a0,a0,1
    a2c0:	00431023 	subu	v0,v0,v1
    a2c4:	00021600 	sll	v0,v0,0x18
    a2c8:	00021603 	sra	v0,v0,0x18
    a2cc:	14400004 	bnez	v0,0xa2e0
    a2d0:	24a50001 	addiu	a1,a1,1
    a2d4:	24c6ffff 	addiu	a2,a2,-1
    a2d8:	14c0fff6 	bnez	a2,0xa2b4
    a2dc:	00000000 	nop
    a2e0:	03e00008 	jr	ra
    a2e4:	00c01021 	move	v0,a2
    a2e8:	080045ab 	j	0x116ac
    a2ec:	00861821 	addu	v1,a0,a2
    a2f0:	90820000 	lbu	v0,0(a0)
    a2f4:	00000000 	nop
    a2f8:	10450004 	beq	v0,a1,0xa30c
    a2fc:	00000000 	nop
    a300:	24840001 	addiu	a0,a0,1
    a304:	1483fffa 	bne	a0,v1,0xa2f0
    a308:	00000000 	nop
    a30c:	03e00008 	jr	ra
    a310:	00801021 	move	v0,a0
    a314:	10c00009 	beqz	a2,0xa33c
    a318:	24c3ffff 	addiu	v1,a2,-1
    a31c:	30a500ff 	andi	a1,a1,0xff
    a320:	2406ffff 	li	a2,-1
    a324:	90820000 	lbu	v0,0(a0)
    a328:	2463ffff 	addiu	v1,v1,-1
    a32c:	10450005 	beq	v0,a1,0xa344
    a330:	24840001 	addiu	a0,a0,1
    a334:	1466fffb 	bne	v1,a2,0xa324
    a338:	00000000 	nop
    a33c:	03e00008 	jr	ra
    a340:	00001021 	move	v0,zero
    a344:	03e00008 	jr	ra
    a348:	2482ffff 	addiu	v0,a0,-1
    a34c:	00003821 	move	a3,zero
    a350:	10c0001f 	beqz	a2,0xa3d0
    a354:	00001821 	move	v1,zero
    a358:	3c028002 	lui	v0,0x8002
    a35c:	244babc0 	addiu	t3,v0,-21568
    a360:	90870000 	lbu	a3,0(a0)
    a364:	90a30000 	lbu	v1,0(a1)
    a368:	24c6ffff 	addiu	a2,a2,-1
    a36c:	24840001 	addiu	a0,a0,1
    a370:	00eb1021 	addu	v0,a3,t3
    a374:	10e00016 	beqz	a3,0xa3d0
    a378:	24a50001 	addiu	a1,a1,1
    a37c:	10600014 	beqz	v1,0xa3d0
    a380:	006b4821 	addu	t1,v1,t3
    a384:	10e30010 	beq	a3,v1,0xa3c8
    a388:	24e80020 	addiu	t0,a3,32
    a38c:	90420000 	lbu	v0,0(v0)
    a390:	00000000 	nop
    a394:	30420001 	andi	v0,v0,0x1
    a398:	10400002 	beqz	v0,0xa3a4
    a39c:	246a0020 	addiu	t2,v1,32
    a3a0:	310700ff 	andi	a3,t0,0xff
    a3a4:	91220000 	lbu	v0,0(t1)
    a3a8:	00000000 	nop
    a3ac:	30420001 	andi	v0,v0,0x1
    a3b0:	10400002 	beqz	v0,0xa3bc
    a3b4:	30e700ff 	andi	a3,a3,0xff
    a3b8:	314300ff 	andi	v1,t2,0xff
    a3bc:	306300ff 	andi	v1,v1,0xff
    a3c0:	14e30003 	bne	a3,v1,0xa3d0
    a3c4:	00000000 	nop
    a3c8:	14c0ffe5 	bnez	a2,0xa360
    a3cc:	00000000 	nop
    a3d0:	03e00008 	jr	ra
    a3d4:	00e31023 	subu	v0,a3,v1
    a3d8:	00801821 	move	v1,a0
    a3dc:	90a20000 	lbu	v0,0(a1)
    a3e0:	24a50001 	addiu	a1,a1,1
    a3e4:	a0820000 	sb	v0,0(a0)
    a3e8:	1440fffc 	bnez	v0,0xa3dc
    a3ec:	24840001 	addiu	a0,a0,1
    a3f0:	03e00008 	jr	ra
    a3f4:	00601021 	move	v0,v1
    a3f8:	00803821 	move	a3,a0
    a3fc:	2403ffff 	li	v1,-1
    a400:	24c6ffff 	addiu	a2,a2,-1
    a404:	10c30006 	beq	a2,v1,0xa420
    a408:	00000000 	nop
    a40c:	90a20000 	lbu	v0,0(a1)
    a410:	24a50001 	addiu	a1,a1,1
    a414:	a0820000 	sb	v0,0(a0)
    a418:	1440fff9 	bnez	v0,0xa400
    a41c:	24840001 	addiu	a0,a0,1
    a420:	03e00008 	jr	ra
    a424:	00e01021 	move	v0,a3
    a428:	80820000 	lb	v0,0(a0)
    a42c:	080045fa 	j	0x117e8
    a430:	00801821 	move	v1,a0
    a434:	24840001 	addiu	a0,a0,1
    a438:	80820000 	lb	v0,0(a0)
    a43c:	00000000 	nop
    a440:	1440fffc 	bnez	v0,0xa434
    a444:	00000000 	nop
    a448:	90a20000 	lbu	v0,0(a1)
    a44c:	24a50001 	addiu	a1,a1,1
    a450:	a0820000 	sb	v0,0(a0)
    a454:	1440fffc 	bnez	v0,0xa448
    a458:	24840001 	addiu	a0,a0,1
    a45c:	03e00008 	jr	ra
    a460:	00601021 	move	v0,v1
    a464:	10c00012 	beqz	a2,0xa4b0
    a468:	00801821 	move	v1,a0
    a46c:	80820000 	lb	v0,0(a0)
    a470:	0800460b 	j	0x1182c
    a474:	00000000 	nop
    a478:	24840001 	addiu	a0,a0,1
    a47c:	80820000 	lb	v0,0(a0)
    a480:	00000000 	nop
    a484:	1440fffc 	bnez	v0,0xa478
    a488:	00000000 	nop
    a48c:	90a20000 	lbu	v0,0(a1)
    a490:	24a50001 	addiu	a1,a1,1
    a494:	a0820000 	sb	v0,0(a0)
    a498:	10400005 	beqz	v0,0xa4b0
    a49c:	24840001 	addiu	a0,a0,1
    a4a0:	24c6ffff 	addiu	a2,a2,-1
    a4a4:	14c0fff9 	bnez	a2,0xa48c
    a4a8:	00000000 	nop
    a4ac:	a0800000 	sb	zero,0(a0)
    a4b0:	03e00008 	jr	ra
    a4b4:	00601021 	move	v0,v1
    a4b8:	90830000 	lbu	v1,0(a0)
    a4bc:	90a20000 	lbu	v0,0(a1)
    a4c0:	24840001 	addiu	a0,a0,1
    a4c4:	00621023 	subu	v0,v1,v0
    a4c8:	00021600 	sll	v0,v0,0x18
    a4cc:	00021603 	sra	v0,v0,0x18
    a4d0:	14400003 	bnez	v0,0xa4e0
    a4d4:	24a50001 	addiu	a1,a1,1
    a4d8:	1460fff7 	bnez	v1,0xa4b8
    a4dc:	00000000 	nop
    a4e0:	03e00008 	jr	ra
    a4e4:	00000000 	nop
    a4e8:	00001021 	move	v0,zero
    a4ec:	10c0000b 	beqz	a2,0xa51c
    a4f0:	00000000 	nop
    a4f4:	90a20000 	lbu	v0,0(a1)
    a4f8:	90830000 	lbu	v1,0(a0)
    a4fc:	24c6ffff 	addiu	a2,a2,-1
    a500:	00621023 	subu	v0,v1,v0
    a504:	00021600 	sll	v0,v0,0x18
    a508:	00021603 	sra	v0,v0,0x18
    a50c:	14400003 	bnez	v0,0xa51c
    a510:	24a50001 	addiu	a1,a1,1
    a514:	1460fff5 	bnez	v1,0xa4ec
    a518:	24840001 	addiu	a0,a0,1
    a51c:	03e00008 	jr	ra
    a520:	00000000 	nop
    a524:	80830000 	lb	v1,0(a0)
    a528:	00052e00 	sll	a1,a1,0x18
    a52c:	00801021 	move	v0,a0
    a530:	0800463c 	j	0x118f0
    a534:	00052e03 	sra	a1,a1,0x18
    a538:	10600007 	beqz	v1,0xa558
    a53c:	24420001 	addiu	v0,v0,1
    a540:	80430000 	lb	v1,0(v0)
    a544:	00000000 	nop
    a548:	1465fffb 	bne	v1,a1,0xa538
    a54c:	00000000 	nop
    a550:	03e00008 	jr	ra
    a554:	00000000 	nop
    a558:	03e00008 	jr	ra
    a55c:	00001021 	move	v0,zero
    a560:	80820000 	lb	v0,0(a0)
    a564:	08004648 	j	0x11920
    a568:	00801821 	move	v1,a0
    a56c:	24630001 	addiu	v1,v1,1
    a570:	80620000 	lb	v0,0(v1)
    a574:	00000000 	nop
    a578:	1440fffc 	bnez	v0,0xa56c
    a57c:	00641023 	subu	v0,v1,a0
    a580:	03e00008 	jr	ra
    a584:	00000000 	nop
    a588:	27bdffe0 	addiu	sp,sp,-32
    a58c:	afb00010 	sw	s0,16(sp)
    a590:	00a08021 	move	s0,a1
    a594:	afb10014 	sw	s1,20(sp)
    a598:	afbf0018 	sw	ra,24(sp)
    a59c:	00808821 	move	s1,a0
    a5a0:	0c004642 	jal	0x11908
    a5a4:	00108600 	sll	s0,s0,0x18
    a5a8:	00511821 	addu	v1,v0,s1
    a5ac:	00108603 	sra	s0,s0,0x18
    a5b0:	80620000 	lb	v0,0(v1)
    a5b4:	00000000 	nop
    a5b8:	1050000a 	beq	v0,s0,0xa5e4
    a5bc:	00601021 	move	v0,v1
    a5c0:	2463ffff 	addiu	v1,v1,-1
    a5c4:	0071102b 	sltu	v0,v1,s1
    a5c8:	1040fff9 	beqz	v0,0xa5b0
    a5cc:	00001021 	move	v0,zero
    a5d0:	8fbf0018 	lw	ra,24(sp)
    a5d4:	8fb10014 	lw	s1,20(sp)
    a5d8:	8fb00010 	lw	s0,16(sp)
    a5dc:	03e00008 	jr	ra
    a5e0:	27bd0020 	addiu	sp,sp,32
    a5e4:	8fbf0018 	lw	ra,24(sp)
    a5e8:	8fb10014 	lw	s1,20(sp)
    a5ec:	8fb00010 	lw	s0,16(sp)
    a5f0:	03e00008 	jr	ra
    a5f4:	27bd0020 	addiu	sp,sp,32
    a5f8:	00803021 	move	a2,a0
    a5fc:	10a0000d 	beqz	a1,0xa634
    a600:	24a3ffff 	addiu	v1,a1,-1
    a604:	80820000 	lb	v0,0(a0)
    a608:	00000000 	nop
    a60c:	10400009 	beqz	v0,0xa634
    a610:	00000000 	nop
    a614:	2405ffff 	li	a1,-1
    a618:	2463ffff 	addiu	v1,v1,-1
    a61c:	10650005 	beq	v1,a1,0xa634
    a620:	24c60001 	addiu	a2,a2,1
    a624:	80c20000 	lb	v0,0(a2)
    a628:	00000000 	nop
    a62c:	1440fffa 	bnez	v0,0xa618
    a630:	00000000 	nop
    a634:	03e00008 	jr	ra
    a638:	00c41023 	subu	v0,a2,a0
    a63c:	90820000 	lbu	v0,0(a0)
    a640:	00000000 	nop
    a644:	10400019 	beqz	v0,0xa6ac
    a648:	00004021 	move	t0,zero
    a64c:	80a90000 	lb	t1,0(a1)
    a650:	00000000 	nop
    a654:	11200017 	beqz	t1,0xa6b4
    a658:	00a03021 	move	a2,a1
    a65c:	00023e00 	sll	a3,v0,0x18
    a660:	00073e03 	sra	a3,a3,0x18
    a664:	01201821 	move	v1,t1
    a668:	10e30015 	beq	a3,v1,0xa6c0
    a66c:	00000000 	nop
    a670:	24c60001 	addiu	a2,a2,1
    a674:	90c20000 	lbu	v0,0(a2)
    a678:	00000000 	nop
    a67c:	00021e00 	sll	v1,v0,0x18
    a680:	00031e03 	sra	v1,v1,0x18
    a684:	1460fff8 	bnez	v1,0xa668
    a688:	00021600 	sll	v0,v0,0x18
    a68c:	00021603 	sra	v0,v0,0x18
    a690:	10400006 	beqz	v0,0xa6ac
    a694:	00000000 	nop
    a698:	24840001 	addiu	a0,a0,1
    a69c:	90820000 	lbu	v0,0(a0)
    a6a0:	00000000 	nop
    a6a4:	1440ffeb 	bnez	v0,0xa654
    a6a8:	25080001 	addiu	t0,t0,1
    a6ac:	03e00008 	jr	ra
    a6b0:	01001021 	move	v0,t0
    a6b4:	90a20000 	lbu	v0,0(a1)
    a6b8:	0800468d 	j	0x11a34
    a6bc:	00021600 	sll	v0,v0,0x18
    a6c0:	90c20000 	lbu	v0,0(a2)
    a6c4:	0800468d 	j	0x11a34
    a6c8:	00021600 	sll	v0,v0,0x18
    a6cc:	90870000 	lbu	a3,0(a0)
    a6d0:	00000000 	nop
    a6d4:	10e00014 	beqz	a3,0xa728
    a6d8:	00801021 	move	v0,a0
    a6dc:	90a40000 	lbu	a0,0(a1)
    a6e0:	00000000 	nop
    a6e4:	00041e00 	sll	v1,a0,0x18
    a6e8:	00031e03 	sra	v1,v1,0x18
    a6ec:	10600009 	beqz	v1,0xa714
    a6f0:	00a03021 	move	a2,a1
    a6f4:	00073e00 	sll	a3,a3,0x18
    a6f8:	00073e03 	sra	a3,a3,0x18
    a6fc:	10e3000b 	beq	a3,v1,0xa72c
    a700:	24c60001 	addiu	a2,a2,1
    a704:	80c30000 	lb	v1,0(a2)
    a708:	00000000 	nop
    a70c:	1460fffb 	bnez	v1,0xa6fc
    a710:	00000000 	nop
    a714:	24420001 	addiu	v0,v0,1
    a718:	90470000 	lbu	a3,0(v0)
    a71c:	00000000 	nop
    a720:	14e0fff0 	bnez	a3,0xa6e4
    a724:	00000000 	nop
    a728:	00001021 	move	v0,zero
    a72c:	03e00008 	jr	ra
    a730:	00000000 	nop
    a734:	27bdffe0 	addiu	sp,sp,-32
    a738:	afb10014 	sw	s1,20(sp)
    a73c:	afb00010 	sw	s0,16(sp)
    a740:	afbf0018 	sw	ra,24(sp)
    a744:	00808021 	move	s0,a0
    a748:	1080001d 	beqz	a0,0xa7c0
    a74c:	00a08821 	move	s1,a1
    a750:	0c004679 	jal	0x119e4
    a754:	02002021 	move	a0,s0
    a758:	02028021 	addu	s0,s0,v0
    a75c:	82020000 	lb	v0,0(s0)
    a760:	02202821 	move	a1,s1
    a764:	02002021 	move	a0,s0
    a768:	10400022 	beqz	v0,0xa7f4
    a76c:	00001821 	move	v1,zero
    a770:	0c00469d 	jal	0x11a74
    a774:	00000000 	nop
    a778:	10400005 	beqz	v0,0xa790
    a77c:	00401821 	move	v1,v0
    a780:	80420000 	lb	v0,0(v0)
    a784:	00000000 	nop
    a788:	1440000a 	bnez	v0,0xa7b4
    a78c:	00000000 	nop
    a790:	3c028002 	lui	v0,0x8002
    a794:	ac43ace8 	sw	v1,-21272(v0)
    a798:	02001821 	move	v1,s0
    a79c:	8fbf0018 	lw	ra,24(sp)
    a7a0:	8fb10014 	lw	s1,20(sp)
    a7a4:	8fb00010 	lw	s0,16(sp)
    a7a8:	00601021 	move	v0,v1
    a7ac:	03e00008 	jr	ra
    a7b0:	27bd0020 	addiu	sp,sp,32
    a7b4:	a0600000 	sb	zero,0(v1)
    a7b8:	080046ce 	j	0x11b38
    a7bc:	24630001 	addiu	v1,v1,1
    a7c0:	3c028002 	lui	v0,0x8002
    a7c4:	8c50ace8 	lw	s0,-21272(v0)
    a7c8:	00000000 	nop
    a7cc:	1200fff3 	beqz	s0,0xa79c
    a7d0:	00001821 	move	v1,zero
    a7d4:	0c004679 	jal	0x119e4
    a7d8:	02002021 	move	a0,s0
    a7dc:	02028021 	addu	s0,s0,v0
    a7e0:	82020000 	lb	v0,0(s0)
    a7e4:	02202821 	move	a1,s1
    a7e8:	02002021 	move	a0,s0
    a7ec:	1440ffe0 	bnez	v0,0xa770
    a7f0:	00001821 	move	v1,zero
    a7f4:	8fbf0018 	lw	ra,24(sp)
    a7f8:	8fb10014 	lw	s1,20(sp)
    a7fc:	8fb00010 	lw	s0,16(sp)
    a800:	3c028002 	lui	v0,0x8002
    a804:	ac40ace8 	sw	zero,-21272(v0)
    a808:	27bd0020 	addiu	sp,sp,32
    a80c:	03e00008 	jr	ra
    a810:	00601021 	move	v0,v1
    a814:	27bdffe0 	addiu	sp,sp,-32
    a818:	afb20018 	sw	s2,24(sp)
    a81c:	afb10014 	sw	s1,20(sp)
    a820:	afbf001c 	sw	ra,28(sp)
    a824:	afb00010 	sw	s0,16(sp)
    a828:	8c900000 	lw	s0,0(a0)
    a82c:	00809021 	move	s2,a0
    a830:	00a08821 	move	s1,a1
    a834:	00001821 	move	v1,zero
    a838:	1200000f 	beqz	s0,0xa878
    a83c:	02002021 	move	a0,s0
    a840:	0c004679 	jal	0x119e4
    a844:	00000000 	nop
    a848:	02028021 	addu	s0,s0,v0
    a84c:	82020000 	lb	v0,0(s0)
    a850:	02202821 	move	a1,s1
    a854:	02002021 	move	a0,s0
    a858:	10400007 	beqz	v0,0xa878
    a85c:	00001821 	move	v1,zero
    a860:	0c00469d 	jal	0x11a74
    a864:	00000000 	nop
    a868:	00401821 	move	v1,v0
    a86c:	14400009 	bnez	v0,0xa894
    a870:	ae420000 	sw	v0,0(s2)
    a874:	02001821 	move	v1,s0
    a878:	8fbf001c 	lw	ra,28(sp)
    a87c:	8fb20018 	lw	s2,24(sp)
    a880:	8fb10014 	lw	s1,20(sp)
    a884:	8fb00010 	lw	s0,16(sp)
    a888:	00601021 	move	v0,v1
    a88c:	03e00008 	jr	ra
    a890:	27bd0020 	addiu	sp,sp,32
    a894:	80420000 	lb	v0,0(v0)
    a898:	00000000 	nop
    a89c:	1040fff5 	beqz	v0,0xa874
    a8a0:	24640001 	addiu	a0,v1,1
    a8a4:	a0600000 	sb	zero,0(v1)
    a8a8:	08004707 	j	0x11c1c
    a8ac:	ae440000 	sw	a0,0(s2)
    a8b0:	27bdffd8 	addiu	sp,sp,-40
    a8b4:	afb10014 	sw	s1,20(sp)
    a8b8:	00808821 	move	s1,a0
    a8bc:	00a02021 	move	a0,a1
    a8c0:	afb3001c 	sw	s3,28(sp)
    a8c4:	afb20018 	sw	s2,24(sp)
    a8c8:	afbf0020 	sw	ra,32(sp)
    a8cc:	afb00010 	sw	s0,16(sp)
    a8d0:	0c004642 	jal	0x11908
    a8d4:	00a09821 	move	s3,a1
    a8d8:	00409021 	move	s2,v0
    a8dc:	16400008 	bnez	s2,0xa900
    a8e0:	02201021 	move	v0,s1
    a8e4:	8fbf0020 	lw	ra,32(sp)
    a8e8:	8fb3001c 	lw	s3,28(sp)
    a8ec:	8fb20018 	lw	s2,24(sp)
    a8f0:	8fb10014 	lw	s1,20(sp)
    a8f4:	8fb00010 	lw	s0,16(sp)
    a8f8:	03e00008 	jr	ra
    a8fc:	27bd0028 	addiu	sp,sp,40
    a900:	0c004642 	jal	0x11908
    a904:	02202021 	move	a0,s1
    a908:	00408021 	move	s0,v0
    a90c:	0052102a 	slt	v0,v0,s2
    a910:	1440000a 	bnez	v0,0xa93c
    a914:	00000000 	nop
    a918:	02202021 	move	a0,s1
    a91c:	02602821 	move	a1,s3
    a920:	02403021 	move	a2,s2
    a924:	0c004595 	jal	0x11654
    a928:	2610ffff 	addiu	s0,s0,-1
    a92c:	1040000b 	beqz	v0,0xa95c
    a930:	0212182a 	slt	v1,s0,s2
    a934:	1060fff8 	beqz	v1,0xa918
    a938:	26310001 	addiu	s1,s1,1
    a93c:	8fbf0020 	lw	ra,32(sp)
    a940:	8fb3001c 	lw	s3,28(sp)
    a944:	8fb20018 	lw	s2,24(sp)
    a948:	8fb10014 	lw	s1,20(sp)
    a94c:	8fb00010 	lw	s0,16(sp)
    a950:	00001021 	move	v0,zero
    a954:	03e00008 	jr	ra
    a958:	27bd0028 	addiu	sp,sp,40
    a95c:	08004723 	j	0x11c8c
    a960:	02201021 	move	v0,s1
    a964:	3c028001 	lui	v0,0x8001
    a968:	24431d0c 	addiu	v1,v0,7436
    a96c:	3c02b025 	lui	v0,0xb025
    a970:	27bdffc0 	addiu	sp,sp,-64
    a974:	34420318 	ori	v0,v0,0x318
    a978:	afbe0038 	sw	s8,56(sp)
    a97c:	afb70034 	sw	s7,52(sp)
    a980:	afb60030 	sw	s6,48(sp)
    a984:	afb5002c 	sw	s5,44(sp)
    a988:	afbf003c 	sw	ra,60(sp)
    a98c:	afb40028 	sw	s4,40(sp)
    a990:	afb30024 	sw	s3,36(sp)
    a994:	afb20020 	sw	s2,32(sp)
    a998:	afb1001c 	sw	s1,28(sp)
    a99c:	afb00018 	sw	s0,24(sp)
    a9a0:	ac430000 	sw	v1,0(v0)
    a9a4:	0000f021 	move	s8,zero
    a9a8:	3c158002 	lui	s5,0x8002
    a9ac:	3c178002 	lui	s7,0x8002
    a9b0:	3c168002 	lui	s6,0x8002
    a9b4:	3c05b025 	lui	a1,0xb025
    a9b8:	3c048001 	lui	a0,0x8001
    a9bc:	24821d0c 	addiu	v0,a0,7436
    a9c0:	34a30318 	ori	v1,a1,0x318
    a9c4:	ac620000 	sw	v0,0(v1)
    a9c8:	34a802a0 	ori	t0,a1,0x2a0
    a9cc:	26ae1568 	addiu	t6,s5,5480
    a9d0:	8d040000 	lw	a0,0(t0)
    a9d4:	95c363ec 	lhu	v1,25580(t6)
    a9d8:	3c020fff 	lui	v0,0xfff
    a9dc:	3447ffff 	ori	a3,v0,0xffff
    a9e0:	00879824 	and	s3,a0,a3
    a9e4:	3c060001 	lui	a2,0x1
    a9e8:	24630001 	addiu	v1,v1,1
    a9ec:	00d3102b 	sltu	v0,a2,s3
    a9f0:	10400007 	beqz	v0,0xaa10
    a9f4:	a5c363ec 	sh	v1,25580(t6)
    a9f8:	34a202a4 	ori	v0,a1,0x2a4
    a9fc:	8c540000 	lw	s4,0(v0)
    aa00:	3c03b000 	lui	v1,0xb000
    aa04:	02639825 	or	s3,s3,v1
    aa08:	ae740000 	sw	s4,0(s3)
    aa0c:	ad000000 	sw	zero,0(t0)
    aa10:	3c04b025 	lui	a0,0xb025
    aa14:	348502b0 	ori	a1,a0,0x2b0
    aa18:	8ca20000 	lw	v0,0(a1)
    aa1c:	00000000 	nop
    aa20:	00479824 	and	s3,v0,a3
    aa24:	00d3182b 	sltu	v1,a2,s3
    aa28:	10600008 	beqz	v1,0xaa4c
    aa2c:	348202c0 	ori	v0,a0,0x2c0
    aa30:	3c02b000 	lui	v0,0xb000
    aa34:	02629825 	or	s3,s3,v0
    aa38:	8e740000 	lw	s4,0(s3)
    aa3c:	348202b4 	ori	v0,a0,0x2b4
    aa40:	ac540000 	sw	s4,0(v0)
    aa44:	aca00000 	sw	zero,0(a1)
    aa48:	348202c0 	ori	v0,a0,0x2c0
    aa4c:	8c530000 	lw	s3,0(v0)
    aa50:	3c0500ff 	lui	a1,0xff
    aa54:	34a2ffff 	ori	v0,a1,0xffff
    aa58:	0053102b 	sltu	v0,v0,s3
    aa5c:	10400049 	beqz	v0,0xab84
    aa60:	00000000 	nop
    aa64:	3c11b025 	lui	s1,0xb025
    aa68:	8e220000 	lw	v0,0(s1)
    aa6c:	362402ac 	ori	a0,s1,0x2ac
    aa70:	362302bc 	ori	v1,s1,0x2bc
    aa74:	24420001 	addiu	v0,v0,1
    aa78:	ac820000 	sw	v0,0(a0)
    aa7c:	3c02ff00 	lui	v0,0xff00
    aa80:	344200ff 	ori	v0,v0,0xff
    aa84:	3c08fd00 	lui	t0,0xfd00
    aa88:	ac730000 	sw	s3,0(v1)
    aa8c:	02623824 	and	a3,s3,v0
    aa90:	35030009 	ori	v1,t0,0x9
    aa94:	8c820000 	lw	v0,0(a0)
    aa98:	10e30412 	beq	a3,v1,0xbae4
    aa9c:	0067102b 	sltu	v0,v1,a3
    aaa0:	144000af 	bnez	v0,0xad60
    aaa4:	350200ac 	ori	v0,t0,0xac
    aaa8:	3c03f800 	lui	v1,0xf800
    aaac:	34620017 	ori	v0,v1,0x17
    aab0:	10e2043b 	beq	a3,v0,0xbba0
    aab4:	0047102b 	sltu	v0,v0,a3
    aab8:	144000d7 	bnez	v0,0xae18
    aabc:	3c04fb00 	lui	a0,0xfb00
    aac0:	3c04f100 	lui	a0,0xf100
    aac4:	34820001 	ori	v0,a0,0x1
    aac8:	10e20447 	beq	a3,v0,0xbbe8
    aacc:	0047102b 	sltu	v0,v0,a3
    aad0:	14400168 	bnez	v0,0xb074
    aad4:	34620011 	ori	v0,v1,0x11
    aad8:	3c03f000 	lui	v1,0xf000
    aadc:	34620001 	ori	v0,v1,0x1
    aae0:	10e204e3 	beq	a3,v0,0xbe70
    aae4:	0047102b 	sltu	v0,v0,a3
    aae8:	1440020a 	bnez	v0,0xb314
    aaec:	34620008 	ori	v0,v1,0x8
    aaf0:	3c02d000 	lui	v0,0xd000
    aaf4:	10e20123 	beq	a3,v0,0xaf84
    aaf8:	0047102b 	sltu	v0,v0,a3
    aafc:	144003c0 	bnez	v0,0xba00
    ab00:	3c02e000 	lui	v0,0xe000
    ab04:	3c02c000 	lui	v0,0xc000
    ab08:	10e20548 	beq	a3,v0,0xc02c
    ab0c:	3c02f000 	lui	v0,0xf000
    ab10:	02623824 	and	a3,s3,v0
    ab14:	10e20018 	beq	a3,v0,0xab78
    ab18:	3c03000f 	lui	v1,0xf
    ab1c:	3c0a7000 	lui	t2,0x7000
    ab20:	026a1024 	and	v0,s3,t2
    ab24:	00132502 	srl	a0,s3,0x14
    ab28:	3463ffff 	ori	v1,v1,0xffff
    ab2c:	3c085000 	lui	t0,0x5000
    ab30:	02632824 	and	a1,s3,v1
    ab34:	00024f02 	srl	t1,v0,0x1c
    ab38:	308400ff 	andi	a0,a0,0xff
    ab3c:	10e8019a 	beq	a3,t0,0xb1a8
    ab40:	326600ff 	andi	a2,s3,0xff
    ab44:	0107102b 	sltu	v0,t0,a3
    ab48:	1440018e 	bnez	v0,0xb184
    ab4c:	3c028000 	lui	v0,0x8000
    ab50:	3c022000 	lui	v0,0x2000
    ab54:	10e203d8 	beq	a3,v0,0xbab8
    ab58:	0047102b 	sltu	v0,v0,a3
    ab5c:	14400273 	bnez	v0,0xb52c
    ab60:	3c023000 	lui	v0,0x3000
    ab64:	10e003d5 	beqz	a3,0xbabc
    ab68:	00041080 	sll	v0,a0,0x2
    ab6c:	3c021000 	lui	v0,0x1000
    ab70:	10e203d2 	beq	a3,v0,0xbabc
    ab74:	00041080 	sll	v0,a0,0x2
    ab78:	3c02b025 	lui	v0,0xb025
    ab7c:	344202c0 	ori	v0,v0,0x2c0
    ab80:	ac400000 	sw	zero,0(v0)
    ab84:	40016000 	mfc0	at,$12
    ab88:	34210001 	ori	at,at,0x1
    ab8c:	38210001 	xori	at,at,0x1
    ab90:	40816000 	mtc0	at,$12
    ab94:	3c07b025 	lui	a3,0xb025
    ab98:	34e20364 	ori	v0,a3,0x364
    ab9c:	90430000 	lbu	v1,0(v0)
    aba0:	00000000 	nop
    aba4:	a2e37e60 	sb	v1,32352(s7)
    aba8:	40016000 	mfc0	at,$12
    abac:	34210001 	ori	at,at,0x1
    abb0:	40816000 	mtc0	at,$12
    abb4:	92e27e60 	lbu	v0,32352(s7)
    abb8:	00000000 	nop
    abbc:	30420001 	andi	v0,v0,0x1
    abc0:	10400054 	beqz	v0,0xad14
    abc4:	26a51568 	addiu	a1,s5,5480
    abc8:	8ca34000 	lw	v1,16384(a1)
    abcc:	8ca442e4 	lw	a0,17124(a1)
    abd0:	3c025000 	lui	v0,0x5000
    abd4:	34631000 	ori	v1,v1,0x1000
    abd8:	00822024 	and	a0,a0,v0
    abdc:	3c021000 	lui	v0,0x1000
    abe0:	aca34000 	sw	v1,16384(a1)
    abe4:	108203ca 	beq	a0,v0,0xbb10
    abe8:	a0a042d6 	sb	zero,17110(a1)
    abec:	92e27e60 	lbu	v0,32352(s7)
    abf0:	00000000 	nop
    abf4:	30420002 	andi	v0,v0,0x2
    abf8:	10400041 	beqz	v0,0xad00
    abfc:	26a21568 	addiu	v0,s5,5480
    ac00:	26a31568 	addiu	v1,s5,5480
    ac04:	8c624000 	lw	v0,16384(v1)
    ac08:	00000000 	nop
    ac0c:	34422000 	ori	v0,v0,0x2000
    ac10:	ac624000 	sw	v0,16384(v1)
    ac14:	92e27e60 	lbu	v0,32352(s7)
    ac18:	00000000 	nop
    ac1c:	30420004 	andi	v0,v0,0x4
    ac20:	10400032 	beqz	v0,0xacec
    ac24:	26a21568 	addiu	v0,s5,5480
    ac28:	26a31568 	addiu	v1,s5,5480
    ac2c:	8c624000 	lw	v0,16384(v1)
    ac30:	00000000 	nop
    ac34:	34424000 	ori	v0,v0,0x4000
    ac38:	ac624000 	sw	v0,16384(v1)
    ac3c:	3c05b025 	lui	a1,0xb025
    ac40:	34a3004c 	ori	v1,a1,0x4c
    ac44:	90620000 	lbu	v0,0(v1)
    ac48:	00000000 	nop
    ac4c:	30420003 	andi	v0,v0,0x3
    ac50:	14400006 	bnez	v0,0xac6c
    ac54:	26a41568 	addiu	a0,s5,5480
    ac58:	8c834000 	lw	v1,16384(a0)
    ac5c:	3c02ffff 	lui	v0,0xffff
    ac60:	34427fff 	ori	v0,v0,0x7fff
    ac64:	00621824 	and	v1,v1,v0
    ac68:	ac834000 	sw	v1,16384(a0)
    ac6c:	8ec47b94 	lw	a0,31636(s6)
    ac70:	3c068001 	lui	a2,0x8001
    ac74:	24c21e0c 	addiu	v0,a2,7692
    ac78:	34a30318 	ori	v1,a1,0x318
    ac7c:	26c67b94 	addiu	a2,s6,31636
    ac80:	ac620000 	sw	v0,0(v1)
    ac84:	10860011 	beq	a0,a2,0xaccc
    ac88:	3c028002 	lui	v0,0x8002
    ac8c:	34b200bf 	ori	s2,a1,0xbf
    ac90:	24511568 	addiu	s1,v0,5480
    ac94:	00c08021 	move	s0,a2
    ac98:	0000f021 	move	s8,zero
    ac9c:	92420000 	lbu	v0,0(s2)
    aca0:	00000000 	nop
    aca4:	2c420004 	sltiu	v0,v0,4
    aca8:	10400009 	beqz	v0,0xacd0
    acac:	3c028002 	lui	v0,0x8002
    acb0:	8e24662c 	lw	a0,26156(s1)
    acb4:	0c000830 	jal	0x20c0
    acb8:	00000000 	nop
    acbc:	8ec27b94 	lw	v0,31636(s6)
    acc0:	00000000 	nop
    acc4:	1450fff5 	bne	v0,s0,0xac9c
    acc8:	00000000 	nop
    accc:	3c028002 	lui	v0,0x8002
    acd0:	24440808 	addiu	a0,v0,2056
    acd4:	00002821 	move	a1,zero
    acd8:	00003021 	move	a2,zero
    acdc:	0c002207 	jal	0x881c
    ace0:	00003821 	move	a3,zero
    ace4:	08004758 	j	0x11d60
    ace8:	3c05b025 	lui	a1,0xb025
    acec:	8c434000 	lw	v1,16384(v0)
    acf0:	2404bfff 	li	a0,-16385
    acf4:	00641824 	and	v1,v1,a0
    acf8:	080047f9 	j	0x11fe4
    acfc:	ac434000 	sw	v1,16384(v0)
    ad00:	8c434000 	lw	v1,16384(v0)
    ad04:	2404dfff 	li	a0,-8193
    ad08:	00641824 	and	v1,v1,a0
    ad0c:	080047ef 	j	0x11fbc
    ad10:	ac434000 	sw	v1,16384(v0)
    ad14:	8ca44000 	lw	a0,16384(a1)
    ad18:	8ca642e4 	lw	a2,17124(a1)
    ad1c:	2402efff 	li	v0,-4097
    ad20:	3c039000 	lui	v1,0x9000
    ad24:	00822024 	and	a0,a0,v0
    ad28:	00c31824 	and	v1,a2,v1
    ad2c:	3c021000 	lui	v0,0x1000
    ad30:	1462ffae 	bne	v1,v0,0xabec
    ad34:	aca44000 	sw	a0,16384(a1)
    ad38:	34e30c50 	ori	v1,a3,0xc50
    ad3c:	3c02bfff 	lui	v0,0xbfff
    ad40:	90640000 	lbu	a0,0(v1)
    ad44:	3442ffff 	ori	v0,v0,0xffff
    ad48:	00c21024 	and	v0,a2,v0
    ad4c:	3c038000 	lui	v1,0x8000
    ad50:	00431025 	or	v0,v0,v1
    ad54:	aca242e4 	sw	v0,17124(a1)
    ad58:	080047e5 	j	0x11f94
    ad5c:	a0a442d7 	sb	a0,17111(a1)
    ad60:	10e20388 	beq	a3,v0,0xbb84
    ad64:	3c03fd00 	lui	v1,0xfd00
    ad68:	0047102b 	sltu	v0,v0,a3
    ad6c:	14400042 	bnez	v0,0xae78
    ad70:	35020028 	ori	v0,t0,0x28
    ad74:	10e203de 	beq	a3,v0,0xbcf0
    ad78:	0047102b 	sltu	v0,v0,a3
    ad7c:	14400073 	bnez	v0,0xaf4c
    ad80:	350200a4 	ori	v0,t0,0xa4
    ad84:	35020018 	ori	v0,t0,0x18
    ad88:	10e2041c 	beq	a3,v0,0xbdfc
    ad8c:	0047102b 	sltu	v0,v0,a3
    ad90:	1440012c 	bnez	v0,0xb244
    ad94:	35020021 	ori	v0,t0,0x21
    ad98:	35020015 	ori	v0,t0,0x15
    ad9c:	10e204ba 	beq	a3,v0,0xc088
    ada0:	0047102b 	sltu	v0,v0,a3
    ada4:	14400203 	bnez	v0,0xb5b4
    ada8:	34620016 	ori	v0,v1,0x16
    adac:	35020014 	ori	v0,t0,0x14
    adb0:	14e2ff57 	bne	a3,v0,0xab10
    adb4:	3c02f000 	lui	v0,0xf000
    adb8:	3c0400ff 	lui	a0,0xff
    adbc:	3482ff00 	ori	v0,a0,0xff00
    adc0:	02621024 	and	v0,s3,v0
    adc4:	1040ff6d 	beqz	v0,0xab7c
    adc8:	3c02b025 	lui	v0,0xb025
    adcc:	26a31568 	addiu	v1,s5,5480
    add0:	3265ff00 	andi	a1,s3,0xff00
    add4:	90664304 	lbu	a2,17156(v1)
    add8:	00052a02 	srl	a1,a1,0x8
    addc:	24a2fffb 	addiu	v0,a1,-5
    ade0:	02642024 	and	a0,s3,a0
    ade4:	00042402 	srl	a0,a0,0x10
    ade8:	a062431f 	sb	v0,17183(v1)
    adec:	3c02b025 	lui	v0,0xb025
    adf0:	34c60100 	ori	a2,a2,0x100
    adf4:	2487fffb 	addiu	a3,a0,-5
    adf8:	344202c0 	ori	v0,v0,0x2c0
    adfc:	ac664304 	sw	a2,17156(v1)
    ae00:	a067431d 	sb	a3,17181(v1)
    ae04:	a064431c 	sb	a0,17180(v1)
    ae08:	a065431e 	sb	a1,17182(v1)
    ae0c:	ac400000 	sw	zero,0(v0)
    ae10:	080047cb 	j	0x11f2c
    ae14:	00000000 	nop
    ae18:	10e40368 	beq	a3,a0,0xbbbc
    ae1c:	0087102b 	sltu	v0,a0,a3
    ae20:	144000bf 	bnez	v0,0xb120
    ae24:	35020002 	ori	v0,t0,0x2
    ae28:	3c04f900 	lui	a0,0xf900
    ae2c:	34820003 	ori	v0,a0,0x3
    ae30:	10e2041f 	beq	a3,v0,0xbeb0
    ae34:	0047102b 	sltu	v0,v0,a3
    ae38:	1440015f 	bnez	v0,0xb3b8
    ae3c:	34820006 	ori	v0,a0,0x6
    ae40:	10e404ff 	beq	a3,a0,0xc240
    ae44:	0087102b 	sltu	v0,a0,a3
    ae48:	14400302 	bnez	v0,0xba54
    ae4c:	34820001 	ori	v0,a0,0x1
    ae50:	34620018 	ori	v0,v1,0x18
    ae54:	14e2ff2e 	bne	a3,v0,0xab10
    ae58:	3c02f000 	lui	v0,0xf000
    ae5c:	0c000d3b 	jal	0x34ec
    ae60:	00000000 	nop
    ae64:	3c02b025 	lui	v0,0xb025
    ae68:	344202c0 	ori	v0,v0,0x2c0
    ae6c:	ac400000 	sw	zero,0(v0)
    ae70:	080047cb 	j	0x11f2c
    ae74:	00000000 	nop
    ae78:	3c03ff00 	lui	v1,0xff00
    ae7c:	34620001 	ori	v0,v1,0x1
    ae80:	10e20394 	beq	a3,v0,0xbcd4
    ae84:	0047102b 	sltu	v0,v0,a3
    ae88:	14400062 	bnez	v0,0xb014
    ae8c:	34620010 	ori	v0,v1,0x10
    ae90:	3c04fe00 	lui	a0,0xfe00
    ae94:	34820011 	ori	v0,a0,0x11
    ae98:	10e20436 	beq	a3,v0,0xbf74
    ae9c:	0047102b 	sltu	v0,v0,a3
    aea0:	144000cc 	bnez	v0,0xb1d4
    aea4:	34820019 	ori	v0,a0,0x19
    aea8:	350200ae 	ori	v0,t0,0xae
    aeac:	10e2050e 	beq	a3,v0,0xc2e8
    aeb0:	00e2102b 	sltu	v0,a3,v0
    aeb4:	1440046d 	bnez	v0,0xc06c
    aeb8:	350200af 	ori	v0,t0,0xaf
    aebc:	10e20566 	beq	a3,v0,0xc458
    aec0:	34820010 	ori	v0,a0,0x10
    aec4:	14e2ff12 	bne	a3,v0,0xab10
    aec8:	3c02f000 	lui	v0,0xf000
    aecc:	26a71568 	addiu	a3,s5,5480
    aed0:	90e24b7e 	lbu	v0,19326(a3)
    aed4:	00000000 	nop
    aed8:	1440ff28 	bnez	v0,0xab7c
    aedc:	3c02b025 	lui	v0,0xb025
    aee0:	40016000 	mfc0	at,$12
    aee4:	34210001 	ori	at,at,0x1
    aee8:	38210001 	xori	at,at,0x1
    aeec:	40816000 	mtc0	at,$12
    aef0:	3c0200ff 	lui	v0,0xff
    aef4:	3442ff00 	ori	v0,v0,0xff00
    aef8:	02621024 	and	v0,s3,v0
    aefc:	0002f202 	srl	s8,v0,0x8
    af00:	3c03b025 	lui	v1,0xb025
    af04:	346602c8 	ori	a2,v1,0x2c8
    af08:	33c500ff 	andi	a1,s8,0xff
    af0c:	346302cc 	ori	v1,v1,0x2cc
    af10:	24020001 	li	v0,1
    af14:	ac7e0000 	sw	s8,0(v1)
    af18:	03c02021 	move	a0,s8
    af1c:	acc50000 	sw	a1,0(a2)
    af20:	a0e24b7e 	sb	v0,19326(a3)
    af24:	0c001ad8 	jal	0x6b60
    af28:	a0fe4b7f 	sb	s8,19327(a3)
    af2c:	40016000 	mfc0	at,$12
    af30:	34210001 	ori	at,at,0x1
    af34:	40816000 	mtc0	at,$12
    af38:	3c02b025 	lui	v0,0xb025
    af3c:	344202c0 	ori	v0,v0,0x2c0
    af40:	ac400000 	sw	zero,0(v0)
    af44:	080047cb 	j	0x11f2c
    af48:	00000000 	nop
    af4c:	10e203c0 	beq	a3,v0,0xbe50
    af50:	0047102b 	sltu	v0,v0,a3
    af54:	144000cf 	bnez	v0,0xb294
    af58:	350200a7 	ori	v0,t0,0xa7
    af5c:	350200a1 	ori	v0,t0,0xa1
    af60:	10e20432 	beq	a3,v0,0xc02c
    af64:	0047102b 	sltu	v0,v0,a3
    af68:	1440021f 	bnez	v0,0xb7e8
    af6c:	350200a2 	ori	v0,t0,0xa2
    af70:	35020029 	ori	v0,t0,0x29
    af74:	10e206fc 	beq	a3,v0,0xcb68
    af78:	350200a0 	ori	v0,t0,0xa0
    af7c:	14e2fee4 	bne	a3,v0,0xab10
    af80:	3c02f000 	lui	v0,0xf000
    af84:	26a51568 	addiu	a1,s5,5480
    af88:	00131402 	srl	v0,s3,0x10
    af8c:	a0a24000 	sb	v0,16384(a1)
    af90:	8ca34000 	lw	v1,16384(a1)
    af94:	2404f0ff 	li	a0,-3841
    af98:	3262f000 	andi	v0,s3,0xf000
    af9c:	00641824 	and	v1,v1,a0
    afa0:	00021102 	srl	v0,v0,0x4
    afa4:	00621825 	or	v1,v1,v0
    afa8:	aca34000 	sw	v1,16384(a1)
    afac:	90a44000 	lbu	a0,16384(a1)
    afb0:	3c02b025 	lui	v0,0xb025
    afb4:	34420c92 	ori	v0,v0,0xc92
    afb8:	a0440000 	sb	a0,0(v0)
    afbc:	00001021 	move	v0,zero
    afc0:	24420001 	addiu	v0,v0,1
    afc4:	304200ff 	andi	v0,v0,0xff
    afc8:	2c430006 	sltiu	v1,v0,6
    afcc:	1460fffd 	bnez	v1,0xafc4
    afd0:	24420001 	addiu	v0,v0,1
    afd4:	32620f00 	andi	v0,s3,0xf00
    afd8:	00022202 	srl	a0,v0,0x8
    afdc:	24030001 	li	v1,1
    afe0:	108307a6 	beq	a0,v1,0xce7c
    afe4:	24020002 	li	v0,2
    afe8:	1082079d 	beq	a0,v0,0xce60
    afec:	24020003 	li	v0,3
    aff0:	1082078d 	beq	a0,v0,0xce28
    aff4:	00000000 	nop
    aff8:	0c0052bb 	jal	0x14aec
    affc:	00002021 	move	a0,zero
    b000:	3c02b025 	lui	v0,0xb025
    b004:	344202c0 	ori	v0,v0,0x2c0
    b008:	ac400000 	sw	zero,0(v0)
    b00c:	080047cb 	j	0x11f2c
    b010:	00000000 	nop
    b014:	10e20384 	beq	a3,v0,0xbe28
    b018:	0047102b 	sltu	v0,v0,a3
    b01c:	144000ad 	bnez	v0,0xb2d4
    b020:	34620013 	ori	v0,v1,0x13
    b024:	3462000d 	ori	v0,v1,0xd
    b028:	10e20408 	beq	a3,v0,0xc04c
    b02c:	0047102b 	sltu	v0,v0,a3
    b030:	14400204 	bnez	v0,0xb844
    b034:	3462000e 	ori	v0,v1,0xe
    b038:	34620007 	ori	v0,v1,0x7
    b03c:	10e206a7 	beq	a3,v0,0xcadc
    b040:	3462000c 	ori	v0,v1,0xc
    b044:	14e2feb2 	bne	a3,v0,0xab10
    b048:	3c02f000 	lui	v0,0xf000
    b04c:	26a21568 	addiu	v0,s5,5480
    b050:	94446458 	lhu	a0,25688(v0)
    b054:	3c03b025 	lui	v1,0xb025
    b058:	3c02b025 	lui	v0,0xb025
    b05c:	346302c4 	ori	v1,v1,0x2c4
    b060:	344202c0 	ori	v0,v0,0x2c0
    b064:	a4640000 	sh	a0,0(v1)
    b068:	ac400000 	sw	zero,0(v0)
    b06c:	080047cb 	j	0x11f2c
    b070:	00000000 	nop
    b074:	10e203a2 	beq	a3,v0,0xbf00
    b078:	3c05f800 	lui	a1,0xf800
    b07c:	0047102b 	sltu	v0,v0,a3
    b080:	144000f3 	bnez	v0,0xb450
    b084:	34620014 	ori	v0,v1,0x14
    b088:	34820003 	ori	v0,a0,0x3
    b08c:	10e204f9 	beq	a3,v0,0xc474
    b090:	00e2102b 	sltu	v0,a3,v0
    b094:	1440feb9 	bnez	v0,0xab7c
    b098:	3c02b025 	lui	v0,0xb025
    b09c:	34820004 	ori	v0,a0,0x4
    b0a0:	10e204b6 	beq	a3,v0,0xc37c
    b0a4:	34620010 	ori	v0,v1,0x10
    b0a8:	14e2fe99 	bne	a3,v0,0xab10
    b0ac:	3c02f000 	lui	v0,0xf000
    b0b0:	0000a021 	move	s4,zero
    b0b4:	0800491c 	j	0x12470
    b0b8:	3c04b027 	lui	a0,0xb027
    b0bc:	2e820100 	sltiu	v0,s4,256
    b0c0:	1040000c 	beqz	v0,0xb0f4
    b0c4:	24840008 	addiu	a0,a0,8
    b0c8:	94830000 	lhu	v1,0(a0)
    b0cc:	00000000 	nop
    b0d0:	307effff 	andi	s8,v1,0xffff
    b0d4:	33c200ff 	andi	v0,s8,0xff
    b0d8:	284200f0 	slti	v0,v0,240
    b0dc:	1440fff7 	bnez	v0,0xb0bc
    b0e0:	26940001 	addiu	s4,s4,1
    b0e4:	2694ffff 	addiu	s4,s4,-1
    b0e8:	3c02b025 	lui	v0,0xb025
    b0ec:	344202c4 	ori	v0,v0,0x2c4
    b0f0:	a45e0000 	sh	s8,0(v0)
    b0f4:	2e8200ff 	sltiu	v0,s4,255
    b0f8:	1440fea0 	bnez	v0,0xab7c
    b0fc:	3c02b025 	lui	v0,0xb025
    b100:	344202c4 	ori	v0,v0,0x2c4
    b104:	3c038712 	lui	v1,0x8712
    b108:	ac430000 	sw	v1,0(v0)
    b10c:	3c02b025 	lui	v0,0xb025
    b110:	344202c0 	ori	v0,v0,0x2c0
    b114:	ac400000 	sw	zero,0(v0)
    b118:	080047cb 	j	0x11f2c
    b11c:	00000000 	nop
    b120:	10e2036c 	beq	a3,v0,0xbed4
    b124:	3c03fd00 	lui	v1,0xfd00
    b128:	0047102b 	sltu	v0,v0,a3
    b12c:	144000b5 	bnez	v0,0xb404
    b130:	35020005 	ori	v0,t0,0x5
    b134:	34820003 	ori	v0,a0,0x3
    b138:	10e20461 	beq	a3,v0,0xc2c0
    b13c:	0047102b 	sltu	v0,v0,a3
    b140:	144001db 	bnez	v0,0xb8b0
    b144:	34820001 	ori	v0,a0,0x1
    b148:	10e205b0 	beq	a3,v0,0xc80c
    b14c:	34820002 	ori	v0,a0,0x2
    b150:	14e2fe6f 	bne	a3,v0,0xab10
    b154:	3c02f000 	lui	v0,0xf000
    b158:	26a21568 	addiu	v0,s5,5480
    b15c:	8c43640c 	lw	v1,25612(v0)
    b160:	2404fffe 	li	a0,-2
    b164:	34630002 	ori	v1,v1,0x2
    b168:	00641824 	and	v1,v1,a0
    b16c:	ac43640c 	sw	v1,25612(v0)
    b170:	3c02b025 	lui	v0,0xb025
    b174:	344202c0 	ori	v0,v0,0x2c0
    b178:	ac400000 	sw	zero,0(v0)
    b17c:	080047cb 	j	0x11f2c
    b180:	00000000 	nop
    b184:	10e20391 	beq	a3,v0,0xbfcc
    b188:	0047102b 	sltu	v0,v0,a3
    b18c:	144000d8 	bnez	v0,0xb4f0
    b190:	3c02a000 	lui	v0,0xa000
    b194:	3c026000 	lui	v0,0x6000
    b198:	10e20004 	beq	a3,v0,0xb1ac
    b19c:	00041080 	sll	v0,a0,0x2
    b1a0:	14eafe76 	bne	a3,t2,0xab7c
    b1a4:	3c02b025 	lui	v0,0xb025
    b1a8:	00041080 	sll	v0,a0,0x2
    b1ac:	00441021 	addu	v0,v0,a0
    b1b0:	26a31568 	addiu	v1,s5,5480
    b1b4:	00431021 	addu	v0,v0,v1
    b1b8:	00491021 	addu	v0,v0,t1
    b1bc:	a04643c9 	sb	a2,17353(v0)
    b1c0:	3c02b025 	lui	v0,0xb025
    b1c4:	344202c0 	ori	v0,v0,0x2c0
    b1c8:	ac400000 	sw	zero,0(v0)
    b1cc:	080047cb 	j	0x11f2c
    b1d0:	00000000 	nop
    b1d4:	10e20385 	beq	a3,v0,0xbfec
    b1d8:	0047102b 	sltu	v0,v0,a3
    b1dc:	144000db 	bnez	v0,0xb54c
    b1e0:	3482001a 	ori	v0,a0,0x1a
    b1e4:	34820012 	ori	v0,a0,0x12
    b1e8:	10e204ca 	beq	a3,v0,0xc514
    b1ec:	34820018 	ori	v0,a0,0x18
    b1f0:	14e2fe47 	bne	a3,v0,0xab10
    b1f4:	3c02f000 	lui	v0,0xf000
    b1f8:	40016000 	mfc0	at,$12
    b1fc:	34210001 	ori	at,at,0x1
    b200:	38210001 	xori	at,at,0x1
    b204:	40816000 	mtc0	at,$12
    b208:	26a31568 	addiu	v1,s5,5480
    b20c:	90644b7f 	lbu	a0,19327(v1)
    b210:	3c02b025 	lui	v0,0xb025
    b214:	344302c4 	ori	v1,v0,0x2c4
    b218:	344202cc 	ori	v0,v0,0x2cc
    b21c:	ac530000 	sw	s3,0(v0)
    b220:	ac640000 	sw	a0,0(v1)
    b224:	40016000 	mfc0	at,$12
    b228:	34210001 	ori	at,at,0x1
    b22c:	40816000 	mtc0	at,$12
    b230:	3c02b025 	lui	v0,0xb025
    b234:	344202c0 	ori	v0,v0,0x2c0
    b238:	ac400000 	sw	zero,0(v0)
    b23c:	080047cb 	j	0x11f2c
    b240:	00000000 	nop
    b244:	10e203d3 	beq	a3,v0,0xc194
    b248:	0047102b 	sltu	v0,v0,a3
    b24c:	14400171 	bnez	v0,0xb814
    b250:	34620022 	ori	v0,v1,0x22
    b254:	35020019 	ori	v0,t0,0x19
    b258:	10e204c0 	beq	a3,v0,0xc55c
    b25c:	35020020 	ori	v0,t0,0x20
    b260:	14e2fe2b 	bne	a3,v0,0xab10
    b264:	3c02f000 	lui	v0,0xf000
    b268:	26a41568 	addiu	a0,s5,5480
    b26c:	8c834008 	lw	v1,16392(a0)
    b270:	3c029fff 	lui	v0,0x9fff
    b274:	3442ffff 	ori	v0,v0,0xffff
    b278:	00621824 	and	v1,v1,v0
    b27c:	3c02b025 	lui	v0,0xb025
    b280:	344202c0 	ori	v0,v0,0x2c0
    b284:	ac834008 	sw	v1,16392(a0)
    b288:	ac400000 	sw	zero,0(v0)
    b28c:	080047cb 	j	0x11f2c
    b290:	00000000 	nop
    b294:	10e20385 	beq	a3,v0,0xc0ac
    b298:	0047102b 	sltu	v0,v0,a3
    b29c:	14400179 	bnez	v0,0xb884
    b2a0:	346200aa 	ori	v0,v1,0xaa
    b2a4:	350200a5 	ori	v0,t0,0xa5
    b2a8:	10e2064c 	beq	a3,v0,0xcbdc
    b2ac:	350200a6 	ori	v0,t0,0xa6
    b2b0:	14e2fe17 	bne	a3,v0,0xab10
    b2b4:	3c02f000 	lui	v0,0xf000
    b2b8:	0c005403 	jal	0x1500c
    b2bc:	00000000 	nop
    b2c0:	3c02b025 	lui	v0,0xb025
    b2c4:	344202c0 	ori	v0,v0,0x2c0
    b2c8:	ac400000 	sw	zero,0(v0)
    b2cc:	080047cb 	j	0x11f2c
    b2d0:	00000000 	nop
    b2d4:	10e203c2 	beq	a3,v0,0xc1e0
    b2d8:	0047102b 	sltu	v0,v0,a3
    b2dc:	1440012c 	bnez	v0,0xb790
    b2e0:	34620014 	ori	v0,v1,0x14
    b2e4:	34620011 	ori	v0,v1,0x11
    b2e8:	10e205cb 	beq	a3,v0,0xca18
    b2ec:	34620012 	ori	v0,v1,0x12
    b2f0:	14e2fe07 	bne	a3,v0,0xab10
    b2f4:	3c02f000 	lui	v0,0xf000
    b2f8:	0c005135 	jal	0x144d4
    b2fc:	00002021 	move	a0,zero
    b300:	3c02b025 	lui	v0,0xb025
    b304:	344202c0 	ori	v0,v0,0x2c0
    b308:	ac400000 	sw	zero,0(v0)
    b30c:	080047cb 	j	0x11f2c
    b310:	00000000 	nop
    b314:	10e203db 	beq	a3,v0,0xc284
    b318:	0047102b 	sltu	v0,v0,a3
    b31c:	1440018c 	bnez	v0,0xb950
    b320:	34620020 	ori	v0,v1,0x20
    b324:	34620002 	ori	v0,v1,0x2
    b328:	10e20513 	beq	a3,v0,0xc778
    b32c:	34620003 	ori	v0,v1,0x3
    b330:	14e2fdf7 	bne	a3,v0,0xab10
    b334:	3c02f000 	lui	v0,0xf000
    b338:	00131402 	srl	v0,s3,0x10
    b33c:	3c03b025 	lui	v1,0xb025
    b340:	3264ff00 	andi	a0,s3,0xff00
    b344:	346302cc 	ori	v1,v1,0x2cc
    b348:	305e00ff 	andi	s8,v0,0xff
    b34c:	ac730000 	sw	s3,0(v1)
    b350:	13c00004 	beqz	s8,0xb364
    b354:	00049a02 	srl	s3,a0,0x8
    b358:	24020001 	li	v0,1
    b35c:	13c20002 	beq	s8,v0,0xb368
    b360:	24040001 	li	a0,1
    b364:	00002021 	move	a0,zero
    b368:	3c10b025 	lui	s0,0xb025
    b36c:	0c00422a 	jal	0x108a8
    b370:	361202c4 	ori	s2,s0,0x2c4
    b374:	8e540000 	lw	s4,0(s2)
    b378:	3c11000f 	lui	s1,0xf
    b37c:	02602021 	move	a0,s3
    b380:	02803021 	move	a2,s4
    b384:	0c00446a 	jal	0x111a8
    b388:	3625ffff 	ori	a1,s1,0xffff
    b38c:	02602021 	move	a0,s3
    b390:	0c004495 	jal	0x11254
    b394:	3625ffff 	ori	a1,s1,0xffff
    b398:	361002c8 	ori	s0,s0,0x2c8
    b39c:	ae420000 	sw	v0,0(s2)
    b3a0:	ae020000 	sw	v0,0(s0)
    b3a4:	3c02b025 	lui	v0,0xb025
    b3a8:	344202c0 	ori	v0,v0,0x2c0
    b3ac:	ac400000 	sw	zero,0(v0)
    b3b0:	080047cb 	j	0x11f2c
    b3b4:	00000000 	nop
    b3b8:	10e20398 	beq	a3,v0,0xc21c
    b3bc:	0047102b 	sltu	v0,v0,a3
    b3c0:	1440014a 	bnez	v0,0xb8ec
    b3c4:	34820007 	ori	v0,a0,0x7
    b3c8:	34820004 	ori	v0,a0,0x4
    b3cc:	10e204e0 	beq	a3,v0,0xc750
    b3d0:	34820005 	ori	v0,a0,0x5
    b3d4:	14e2fdce 	bne	a3,v0,0xab10
    b3d8:	3c02f000 	lui	v0,0xf000
    b3dc:	26a21568 	addiu	v0,s5,5480
    b3e0:	90446484 	lbu	a0,25732(v0)
    b3e4:	3c03b025 	lui	v1,0xb025
    b3e8:	3c02b025 	lui	v0,0xb025
    b3ec:	346302c4 	ori	v1,v1,0x2c4
    b3f0:	344202c0 	ori	v0,v0,0x2c0
    b3f4:	ac640000 	sw	a0,0(v1)
    b3f8:	ac400000 	sw	zero,0(v0)
    b3fc:	080047cb 	j	0x11f2c
    b400:	00000000 	nop
    b404:	0047102b 	sltu	v0,v0,a3
    b408:	1440005b 	bnez	v0,0xb578
    b40c:	35020007 	ori	v0,t0,0x7
    b410:	35020004 	ori	v0,t0,0x4
    b414:	00e2102b 	sltu	v0,a3,v0
    b418:	1040fdd8 	beqz	v0,0xab7c
    b41c:	3c02b025 	lui	v0,0xb025
    b420:	26a41568 	addiu	a0,s5,5480
    b424:	8c8342e4 	lw	v1,17124(a0)
    b428:	3c02efff 	lui	v0,0xefff
    b42c:	3442ffff 	ori	v0,v0,0xffff
    b430:	00621824 	and	v1,v1,v0
    b434:	3c02b025 	lui	v0,0xb025
    b438:	344202c0 	ori	v0,v0,0x2c0
    b43c:	ac8342e4 	sw	v1,17124(a0)
    b440:	a08042e6 	sb	zero,17126(a0)
    b444:	ac400000 	sw	zero,0(v0)
    b448:	080047cb 	j	0x11f2c
    b44c:	00000000 	nop
    b450:	10e2041f 	beq	a3,v0,0xc4d0
    b454:	0047102b 	sltu	v0,v0,a3
    b458:	144000d8 	bnez	v0,0xb7bc
    b45c:	34a20015 	ori	v0,a1,0x15
    b460:	34620012 	ori	v0,v1,0x12
    b464:	10e2049b 	beq	a3,v0,0xc6d4
    b468:	34620013 	ori	v0,v1,0x13
    b46c:	14e2fda8 	bne	a3,v0,0xab10
    b470:	3c02f000 	lui	v0,0xf000
    b474:	3c14b028 	lui	s4,0xb028
    b478:	96820000 	lhu	v0,0(s4)
    b47c:	00131c02 	srl	v1,s3,0x10
    b480:	306400ff 	andi	a0,v1,0xff
    b484:	305effff 	andi	s8,v0,0xffff
    b488:	33c300ff 	andi	v1,s8,0xff
    b48c:	14830006 	bne	a0,v1,0xb4a8
    b490:	3c037fff 	lui	v1,0x7fff
    b494:	08004a1d 	j	0x12874
    b498:	3463ffff 	ori	v1,v1,0xffff
    b49c:	2c420800 	sltiu	v0,v0,2048
    b4a0:	10400009 	beqz	v0,0xb4c8
    b4a4:	3c037fff 	lui	v1,0x7fff
    b4a8:	26940008 	addiu	s4,s4,8
    b4ac:	96820000 	lhu	v0,0(s4)
    b4b0:	00000000 	nop
    b4b4:	305effff 	andi	s8,v0,0xffff
    b4b8:	33c300ff 	andi	v1,s8,0xff
    b4bc:	1483fff7 	bne	a0,v1,0xb49c
    b4c0:	3282ffff 	andi	v0,s4,0xffff
    b4c4:	3c037fff 	lui	v1,0x7fff
    b4c8:	3463ffff 	ori	v1,v1,0xffff
    b4cc:	3c02b025 	lui	v0,0xb025
    b4d0:	344202c4 	ori	v0,v0,0x2c4
    b4d4:	02831824 	and	v1,s4,v1
    b4d8:	ac430000 	sw	v1,0(v0)
    b4dc:	3c02b025 	lui	v0,0xb025
    b4e0:	344202c0 	ori	v0,v0,0x2c0
    b4e4:	ac400000 	sw	zero,0(v0)
    b4e8:	080047cb 	j	0x11f2c
    b4ec:	00000000 	nop
    b4f0:	10e20399 	beq	a3,v0,0xc358
    b4f4:	0047102b 	sltu	v0,v0,a3
    b4f8:	14400164 	bnez	v0,0xba8c
    b4fc:	3c02b000 	lui	v0,0xb000
    b500:	3c029000 	lui	v0,0x9000
    b504:	14e2fd9d 	bne	a3,v0,0xab7c
    b508:	3c02b025 	lui	v0,0xb025
    b50c:	26a21568 	addiu	v0,s5,5480
    b510:	00821021 	addu	v0,a0,v0
    b514:	a046447b 	sb	a2,17531(v0)
    b518:	3c02b025 	lui	v0,0xb025
    b51c:	344202c0 	ori	v0,v0,0x2c0
    b520:	ac400000 	sw	zero,0(v0)
    b524:	080047cb 	j	0x11f2c
    b528:	00000000 	nop
    b52c:	10e20162 	beq	a3,v0,0xbab8
    b530:	3c024000 	lui	v0,0x4000
    b534:	10e2ff1c 	beq	a3,v0,0xb1a8
    b538:	3c02b025 	lui	v0,0xb025
    b53c:	344202c0 	ori	v0,v0,0x2c0
    b540:	ac400000 	sw	zero,0(v0)
    b544:	080047cb 	j	0x11f2c
    b548:	00000000 	nop
    b54c:	10e203a5 	beq	a3,v0,0xc3e4
    b550:	3c0200ff 	lui	v0,0xff
    b554:	14e3fd6e 	bne	a3,v1,0xab10
    b558:	3c02f000 	lui	v0,0xf000
    b55c:	0c0050e6 	jal	0x14398
    b560:	00002021 	move	a0,zero
    b564:	3c02b025 	lui	v0,0xb025
    b568:	344202c0 	ori	v0,v0,0x2c0
    b56c:	ac400000 	sw	zero,0(v0)
    b570:	080047cb 	j	0x11f2c
    b574:	00000000 	nop
    b578:	10e204b6 	beq	a3,v0,0xc854
    b57c:	35020008 	ori	v0,t0,0x8
    b580:	14e2fd63 	bne	a3,v0,0xab10
    b584:	3c02f000 	lui	v0,0xf000
    b588:	3c03b025 	lui	v1,0xb025
    b58c:	34630364 	ori	v1,v1,0x364
    b590:	90620000 	lbu	v0,0(v1)
    b594:	00000000 	nop
    b598:	304200fd 	andi	v0,v0,0xfd
    b59c:	a0620000 	sb	v0,0(v1)
    b5a0:	3c02b025 	lui	v0,0xb025
    b5a4:	344202c0 	ori	v0,v0,0x2c0
    b5a8:	ac400000 	sw	zero,0(v0)
    b5ac:	080047cb 	j	0x11f2c
    b5b0:	00000000 	nop
    b5b4:	10e2037f 	beq	a3,v0,0xc3b4
    b5b8:	34620017 	ori	v0,v1,0x17
    b5bc:	14e2fd54 	bne	a3,v0,0xab10
    b5c0:	3c02f000 	lui	v0,0xf000
    b5c4:	26af1568 	addiu	t7,s5,5480
    b5c8:	8de74008 	lw	a3,16392(t7)
    b5cc:	3c0eb025 	lui	t6,0xb025
    b5d0:	35c302c0 	ori	v1,t6,0x2c0
    b5d4:	00071742 	srl	v0,a3,0x1d
    b5d8:	30420003 	andi	v0,v0,0x3
    b5dc:	ac600000 	sw	zero,0(v1)
    b5e0:	1440005c 	bnez	v0,0xb754
    b5e4:	26a21568 	addiu	v0,s5,5480
    b5e8:	35c20d03 	ori	v0,t6,0xd03
    b5ec:	90450000 	lbu	a1,0(v0)
    b5f0:	8de64010 	lw	a2,16400(t7)
    b5f4:	3c039fff 	lui	v1,0x9fff
    b5f8:	3463ffff 	ori	v1,v1,0xffff
    b5fc:	3c023fff 	lui	v0,0x3fff
    b600:	3442ffff 	ori	v0,v0,0xffff
    b604:	00e31824 	and	v1,a3,v1
    b608:	3c042000 	lui	a0,0x2000
    b60c:	00c26024 	and	t4,a2,v0
    b610:	00641825 	or	v1,v1,a0
    b614:	3c024000 	lui	v0,0x4000
    b618:	30a50070 	andi	a1,a1,0x70
    b61c:	01826025 	or	t4,t4,v0
    b620:	10a0058b 	beqz	a1,0xcc50
    b624:	ade34008 	sw	v1,16392(t7)
    b628:	35c20e94 	ori	v0,t6,0xe94
    b62c:	35c30e9c 	ori	v1,t6,0xe9c
    b630:	35c40ea4 	ori	a0,t6,0xea4
    b634:	35c70eac 	ori	a3,t6,0xeac
    b638:	8c450000 	lw	a1,0(v0)
    b63c:	8c690000 	lw	t1,0(v1)
    b640:	8c8b0000 	lw	t3,0(a0)
    b644:	8ce60000 	lw	a2,0(a3)
    b648:	8de3400c 	lw	v1,16396(t7)
    b64c:	35c20eb4 	ori	v0,t6,0xeb4
    b650:	8c4a0000 	lw	t2,0(v0)
    b654:	3c0703ff 	lui	a3,0x3ff
    b658:	2408fc00 	li	t0,-1024
    b65c:	35c20ebc 	ori	v0,t6,0xebc
    b660:	00a72824 	and	a1,a1,a3
    b664:	00c73024 	and	a2,a2,a3
    b668:	01882024 	and	a0,t4,t0
    b66c:	00052c02 	srl	a1,a1,0x10
    b670:	8c4c0000 	lw	t4,0(v0)
    b674:	00681824 	and	v1,v1,t0
    b678:	00063402 	srl	a2,a2,0x10
    b67c:	35cd0ecc 	ori	t5,t6,0xecc
    b680:	35c80ec4 	ori	t0,t6,0xec4
    b684:	3c02fff0 	lui	v0,0xfff0
    b688:	344203ff 	ori	v0,v0,0x3ff
    b68c:	00651825 	or	v1,v1,a1
    b690:	00862025 	or	a0,a0,a2
    b694:	8d050000 	lw	a1,0(t0)
    b698:	01274824 	and	t1,t1,a3
    b69c:	8da60000 	lw	a2,0(t5)
    b6a0:	01475024 	and	t2,t2,a3
    b6a4:	00822024 	and	a0,a0,v0
    b6a8:	00621824 	and	v1,v1,v0
    b6ac:	00094982 	srl	t1,t1,0x6
    b6b0:	000a5182 	srl	t2,t2,0x6
    b6b4:	3c02c00f 	lui	v0,0xc00f
    b6b8:	3442ffff 	ori	v0,v0,0xffff
    b6bc:	00691825 	or	v1,v1,t1
    b6c0:	008a2025 	or	a0,a0,t2
    b6c4:	01675824 	and	t3,t3,a3
    b6c8:	01876024 	and	t4,t4,a3
    b6cc:	00822024 	and	a0,a0,v0
    b6d0:	00c73024 	and	a2,a2,a3
    b6d4:	000b5900 	sll	t3,t3,0x4
    b6d8:	00621824 	and	v1,v1,v0
    b6dc:	000c6100 	sll	t4,t4,0x4
    b6e0:	00a72824 	and	a1,a1,a3
    b6e4:	006b1825 	or	v1,v1,t3
    b6e8:	008c2025 	or	a0,a0,t4
    b6ec:	00052c02 	srl	a1,a1,0x10
    b6f0:	00063402 	srl	a2,a2,0x10
    b6f4:	a5e64016 	sh	a2,16406(t7)
    b6f8:	ade3400c 	sw	v1,16396(t7)
    b6fc:	ade44010 	sw	a0,16400(t7)
    b700:	a5e54014 	sh	a1,16404(t7)
    b704:	26a31568 	addiu	v1,s5,5480
    b708:	8c62400c 	lw	v0,16396(v1)
    b70c:	00000000 	nop
    b710:	0440054b 	bltz	v0,0xcc40
    b714:	00000000 	nop
    b718:	3262ff00 	andi	v0,s3,0xff00
    b71c:	10400550 	beqz	v0,0xcc60
    b720:	00000000 	nop
    b724:	00021202 	srl	v0,v0,0x8
    b728:	a06242c3 	sb	v0,17091(v1)
    b72c:	0c005812 	jal	0x16048
    b730:	27a40010 	addiu	a0,sp,16
    b734:	0c00574d 	jal	0x15d34
    b738:	00000000 	nop
    b73c:	26a21568 	addiu	v0,s5,5480
    b740:	8c43400c 	lw	v1,16396(v0)
    b744:	3c048000 	lui	a0,0x8000
    b748:	00641825 	or	v1,v1,a0
    b74c:	ac43400c 	sw	v1,16396(v0)
    b750:	26a21568 	addiu	v0,s5,5480
    b754:	904442c3 	lbu	a0,17091(v0)
    b758:	3c03b025 	lui	v1,0xb025
    b75c:	34630c61 	ori	v1,v1,0xc61
    b760:	a0640000 	sb	a0,0(v1)
    b764:	00001021 	move	v0,zero
    b768:	24420001 	addiu	v0,v0,1
    b76c:	304200ff 	andi	v0,v0,0xff
    b770:	2c430006 	sltiu	v1,v0,6
    b774:	1460fffd 	bnez	v1,0xb76c
    b778:	24420001 	addiu	v0,v0,1
    b77c:	3c02b025 	lui	v0,0xb025
    b780:	344202c0 	ori	v0,v0,0x2c0
    b784:	ac400000 	sw	zero,0(v0)
    b788:	080047cb 	j	0x11f2c
    b78c:	00000000 	nop
    b790:	10e2033f 	beq	a3,v0,0xc490
    b794:	34620043 	ori	v0,v1,0x43
    b798:	14e2fcdd 	bne	a3,v0,0xab10
    b79c:	3c02f000 	lui	v0,0xf000
    b7a0:	0c00510d 	jal	0x14434
    b7a4:	3404ffff 	li	a0,0xffff
    b7a8:	3c02b025 	lui	v0,0xb025
    b7ac:	344202c0 	ori	v0,v0,0x2c0
    b7b0:	ac400000 	sw	zero,0(v0)
    b7b4:	080047cb 	j	0x11f2c
    b7b8:	00000000 	nop
    b7bc:	10e2048f 	beq	a3,v0,0xc9fc
    b7c0:	34a20016 	ori	v0,a1,0x16
    b7c4:	14e2fcd2 	bne	a3,v0,0xab10
    b7c8:	3c02f000 	lui	v0,0xf000
    b7cc:	0c000ce2 	jal	0x3388
    b7d0:	00000000 	nop
    b7d4:	3c02b025 	lui	v0,0xb025
    b7d8:	344202c0 	ori	v0,v0,0x2c0
    b7dc:	ac400000 	sw	zero,0(v0)
    b7e0:	080047cb 	j	0x11f2c
    b7e4:	00000000 	nop
    b7e8:	10e204ae 	beq	a3,v0,0xcaa4
    b7ec:	350200a3 	ori	v0,t0,0xa3
    b7f0:	14e2fcc7 	bne	a3,v0,0xab10
    b7f4:	3c02f000 	lui	v0,0xf000
    b7f8:	26a21568 	addiu	v0,s5,5480
    b7fc:	ac406620 	sw	zero,26144(v0)
    b800:	3c02b025 	lui	v0,0xb025
    b804:	344202c0 	ori	v0,v0,0x2c0
    b808:	ac400000 	sw	zero,0(v0)
    b80c:	080047cb 	j	0x11f2c
    b810:	00000000 	nop
    b814:	10e203c2 	beq	a3,v0,0xc720
    b818:	34620025 	ori	v0,v1,0x25
    b81c:	14e2fcbc 	bne	a3,v0,0xab10
    b820:	3c02f000 	lui	v0,0xf000
    b824:	26a21568 	addiu	v0,s5,5480
    b828:	00131a02 	srl	v1,s3,0x8
    b82c:	a0434000 	sb	v1,16384(v0)
    b830:	3c02b025 	lui	v0,0xb025
    b834:	344202c0 	ori	v0,v0,0x2c0
    b838:	ac400000 	sw	zero,0(v0)
    b83c:	080047cb 	j	0x11f2c
    b840:	00000000 	nop
    b844:	10e202fd 	beq	a3,v0,0xc43c
    b848:	3462000f 	ori	v0,v1,0xf
    b84c:	14e2fcb0 	bne	a3,v0,0xab10
    b850:	3c02f000 	lui	v0,0xf000
    b854:	3c03b025 	lui	v1,0xb025
    b858:	240200ff 	li	v0,255
    b85c:	34630156 	ori	v1,v1,0x156
    b860:	a4620000 	sh	v0,0(v1)
    b864:	3c02b025 	lui	v0,0xb025
    b868:	24040001 	li	a0,1
    b86c:	3c068002 	lui	a2,0x8002
    b870:	344202c0 	ori	v0,v0,0x2c0
    b874:	a0c47e50 	sb	a0,32336(a2)
    b878:	ac400000 	sw	zero,0(v0)
    b87c:	080047cb 	j	0x11f2c
    b880:	00000000 	nop
    b884:	10e20456 	beq	a3,v0,0xc9e0
    b888:	346200ab 	ori	v0,v1,0xab
    b88c:	14e2fca0 	bne	a3,v0,0xab10
    b890:	3c02f000 	lui	v0,0xf000
    b894:	0c005bad 	jal	0x16eb4
    b898:	02602021 	move	a0,s3
    b89c:	3c02b025 	lui	v0,0xb025
    b8a0:	344202c0 	ori	v0,v0,0x2c0
    b8a4:	ac400000 	sw	zero,0(v0)
    b8a8:	080047cb 	j	0x11f2c
    b8ac:	00000000 	nop
    b8b0:	10e30299 	beq	a3,v1,0xc318
    b8b4:	34620001 	ori	v0,v1,0x1
    b8b8:	14e2fc95 	bne	a3,v0,0xab10
    b8bc:	3c02f000 	lui	v0,0xf000
    b8c0:	3c03b025 	lui	v1,0xb025
    b8c4:	34630364 	ori	v1,v1,0x364
    b8c8:	90620000 	lbu	v0,0(v1)
    b8cc:	00000000 	nop
    b8d0:	304200fa 	andi	v0,v0,0xfa
    b8d4:	a0620000 	sb	v0,0(v1)
    b8d8:	3c02b025 	lui	v0,0xb025
    b8dc:	344202c0 	ori	v0,v0,0x2c0
    b8e0:	ac400000 	sw	zero,0(v0)
    b8e4:	080047cb 	j	0x11f2c
    b8e8:	00000000 	nop
    b8ec:	10e203bd 	beq	a3,v0,0xc7e4
    b8f0:	34820020 	ori	v0,a0,0x20
    b8f4:	14e2fc86 	bne	a3,v0,0xab10
    b8f8:	3c02f000 	lui	v0,0xf000
    b8fc:	3c0200ff 	lui	v0,0xff
    b900:	3442ff00 	ori	v0,v0,0xff00
    b904:	02621024 	and	v0,s3,v0
    b908:	0002f202 	srl	s8,v0,0x8
    b90c:	24030007 	li	v1,7
    b910:	13c304d5 	beq	s8,v1,0xcc68
    b914:	2bc20008 	slti	v0,s8,8
    b918:	10400477 	beqz	v0,0xcaf8
    b91c:	24020020 	li	v0,32
    b920:	17c0fc96 	bnez	s8,0xab7c
    b924:	3c02b025 	lui	v0,0xb025
    b928:	3c028002 	lui	v0,0x8002
    b92c:	94437e20 	lhu	v1,32288(v0)
    b930:	3c02b025 	lui	v0,0xb025
    b934:	344202c4 	ori	v0,v0,0x2c4
    b938:	ac430000 	sw	v1,0(v0)
    b93c:	3c02b025 	lui	v0,0xb025
    b940:	344202c0 	ori	v0,v0,0x2c0
    b944:	ac400000 	sw	zero,0(v0)
    b948:	080047cb 	j	0x11f2c
    b94c:	00000000 	nop
    b950:	10e203f0 	beq	a3,v0,0xc914
    b954:	3c02f100 	lui	v0,0xf100
    b958:	14e2fc6d 	bne	a3,v0,0xab10
    b95c:	3c02f000 	lui	v0,0xf000
    b960:	3c0500ff 	lui	a1,0xff
    b964:	34a5ff00 	ori	a1,a1,0xff00
    b968:	02652824 	and	a1,s3,a1
    b96c:	3c04b025 	lui	a0,0xb025
    b970:	00052a02 	srl	a1,a1,0x8
    b974:	34830094 	ori	v1,a0,0x94
    b978:	00051140 	sll	v0,a1,0x5
    b97c:	3c06b026 	lui	a2,0xb026
    b980:	a4650000 	sh	a1,0(v1)
    b984:	2454ffc0 	addiu	s4,v0,-64
    b988:	34cc007c 	ori	t4,a2,0x7c
    b98c:	24070004 	li	a3,4
    b990:	3488009a 	ori	t0,a0,0x9a
    b994:	34890098 	ori	t1,a0,0x98
    b998:	348a0096 	ori	t2,a0,0x96
    b99c:	34c6007a 	ori	a2,a2,0x7a
    b9a0:	348b03b0 	ori	t3,a0,0x3b0
    b9a4:	24020400 	li	v0,1024
    b9a8:	240380a0 	li	v1,-32608
    b9ac:	a5020000 	sh	v0,0(t0)
    b9b0:	34840044 	ori	a0,a0,0x44
    b9b4:	a5230000 	sh	v1,0(t1)
    b9b8:	a5470000 	sh	a3,0(t2)
    b9bc:	a0c70000 	sb	a3,0(a2)
    b9c0:	ad740000 	sw	s4,0(t3)
    b9c4:	a5940000 	sh	s4,0(t4)
    b9c8:	94830000 	lhu	v1,0(a0)
    b9cc:	2402fdff 	li	v0,-513
    b9d0:	26a61568 	addiu	a2,s5,5480
    b9d4:	00621824 	and	v1,v1,v0
    b9d8:	a4830000 	sh	v1,0(a0)
    b9dc:	94820000 	lhu	v0,0(a0)
    b9e0:	a4c54aee 	sh	a1,19182(a2)
    b9e4:	34420200 	ori	v0,v0,0x200
    b9e8:	a4820000 	sh	v0,0(a0)
    b9ec:	3c02b025 	lui	v0,0xb025
    b9f0:	344202c0 	ori	v0,v0,0x2c0
    b9f4:	ac400000 	sw	zero,0(v0)
    b9f8:	080047cb 	j	0x11f2c
    b9fc:	00000000 	nop
    ba00:	10e20245 	beq	a3,v0,0xc318
    ba04:	00000000 	nop
    ba08:	14e3fc41 	bne	a3,v1,0xab10
    ba0c:	3c02f000 	lui	v0,0xf000
    ba10:	3c0200ff 	lui	v0,0xff
    ba14:	3442ff00 	ori	v0,v0,0xff00
    ba18:	3c04b025 	lui	a0,0xb025
    ba1c:	02621024 	and	v0,s3,v0
    ba20:	00029a02 	srl	s3,v0,0x8
    ba24:	348302cc 	ori	v1,a0,0x2cc
    ba28:	ac730000 	sw	s3,0(v1)
    ba2c:	02641021 	addu	v0,s3,a0
    ba30:	8c540000 	lw	s4,0(v0)
    ba34:	348402c4 	ori	a0,a0,0x2c4
    ba38:	ac940000 	sw	s4,0(a0)
    ba3c:	8c540000 	lw	s4,0(v0)
    ba40:	3c02b025 	lui	v0,0xb025
    ba44:	344202c0 	ori	v0,v0,0x2c0
    ba48:	ac400000 	sw	zero,0(v0)
    ba4c:	080047cb 	j	0x11f2c
    ba50:	00000000 	nop
    ba54:	10e20386 	beq	a3,v0,0xc870
    ba58:	34820002 	ori	v0,a0,0x2
    ba5c:	14e2fc2c 	bne	a3,v0,0xab10
    ba60:	3c02f000 	lui	v0,0xf000
    ba64:	26a21568 	addiu	v0,s5,5480
    ba68:	90446490 	lbu	a0,25744(v0)
    ba6c:	3c03b025 	lui	v1,0xb025
    ba70:	3c02b025 	lui	v0,0xb025
    ba74:	346302c4 	ori	v1,v1,0x2c4
    ba78:	344202c0 	ori	v0,v0,0x2c0
    ba7c:	ac640000 	sw	a0,0(v1)
    ba80:	ac400000 	sw	zero,0(v0)
    ba84:	080047cb 	j	0x11f2c
    ba88:	00000000 	nop
    ba8c:	14e2fc3b 	bne	a3,v0,0xab7c
    ba90:	3c02b025 	lui	v0,0xb025
    ba94:	00041080 	sll	v0,a0,0x2
    ba98:	26a31568 	addiu	v1,s5,5480
    ba9c:	00431021 	addu	v0,v0,v1
    baa0:	ac454568 	sw	a1,17768(v0)
    baa4:	3c02b025 	lui	v0,0xb025
    baa8:	344202c0 	ori	v0,v0,0x2c0
    baac:	ac400000 	sw	zero,0(v0)
    bab0:	080047cb 	j	0x11f2c
    bab4:	00000000 	nop
    bab8:	00041080 	sll	v0,a0,0x2
    babc:	00441021 	addu	v0,v0,a0
    bac0:	26a31568 	addiu	v1,s5,5480
    bac4:	00431021 	addu	v0,v0,v1
    bac8:	00491021 	addu	v0,v0,t1
    bacc:	a046433c 	sb	a2,17212(v0)
    bad0:	3c02b025 	lui	v0,0xb025
    bad4:	344202c0 	ori	v0,v0,0x2c0
    bad8:	ac400000 	sw	zero,0(v0)
    badc:	080047cb 	j	0x11f2c
    bae0:	00000000 	nop
    bae4:	36220364 	ori	v0,s1,0x364
    bae8:	90430000 	lbu	v1,0(v0)
    baec:	00000000 	nop
    baf0:	307400ff 	andi	s4,v1,0xff
    baf4:	36840002 	ori	a0,s4,0x2
    baf8:	a0440000 	sb	a0,0(v0)
    bafc:	3c02b025 	lui	v0,0xb025
    bb00:	344202c0 	ori	v0,v0,0x2c0
    bb04:	ac400000 	sw	zero,0(v0)
    bb08:	080047cb 	j	0x11f2c
    bb0c:	00000000 	nop
    bb10:	90a342d7 	lbu	v1,17111(a1)
    bb14:	34e20c50 	ori	v0,a3,0xc50
    bb18:	00002021 	move	a0,zero
    bb1c:	a0430000 	sb	v1,0(v0)
    bb20:	24820001 	addiu	v0,a0,1
    bb24:	304400ff 	andi	a0,v0,0xff
    bb28:	2c830006 	sltiu	v1,a0,6
    bb2c:	1460fffd 	bnez	v1,0xbb24
    bb30:	24820001 	addiu	v0,a0,1
    bb34:	26a21568 	addiu	v0,s5,5480
    bb38:	904442d7 	lbu	a0,17111(v0)
    bb3c:	3c03b025 	lui	v1,0xb025
    bb40:	34630c58 	ori	v1,v1,0xc58
    bb44:	a0640000 	sb	a0,0(v1)
    bb48:	00001021 	move	v0,zero
    bb4c:	24420001 	addiu	v0,v0,1
    bb50:	304200ff 	andi	v0,v0,0xff
    bb54:	2c430006 	sltiu	v1,v0,6
    bb58:	1460fffd 	bnez	v1,0xbb50
    bb5c:	24420001 	addiu	v0,v0,1
    bb60:	26a51568 	addiu	a1,s5,5480
    bb64:	8ca342e4 	lw	v1,17124(a1)
    bb68:	3c044000 	lui	a0,0x4000
    bb6c:	3c027fff 	lui	v0,0x7fff
    bb70:	00641825 	or	v1,v1,a0
    bb74:	3442ffff 	ori	v0,v0,0xffff
    bb78:	00621824 	and	v1,v1,v0
    bb7c:	080047e5 	j	0x11f94
    bb80:	aca342e4 	sw	v1,17124(a1)
    bb84:	0c0051a0 	jal	0x14680
    bb88:	02602021 	move	a0,s3
    bb8c:	3c02b025 	lui	v0,0xb025
    bb90:	344202c0 	ori	v0,v0,0x2c0
    bb94:	ac400000 	sw	zero,0(v0)
    bb98:	080047cb 	j	0x11f2c
    bb9c:	00000000 	nop
    bba0:	0c000d6e 	jal	0x35b8
    bba4:	00000000 	nop
    bba8:	3c02b025 	lui	v0,0xb025
    bbac:	344202c0 	ori	v0,v0,0x2c0
    bbb0:	ac400000 	sw	zero,0(v0)
    bbb4:	080047cb 	j	0x11f2c
    bbb8:	00000000 	nop
    bbbc:	8dc2640c 	lw	v0,25612(t6)
    bbc0:	2403fffd 	li	v1,-3
    bbc4:	2404fffe 	li	a0,-2
    bbc8:	00431024 	and	v0,v0,v1
    bbcc:	00441024 	and	v0,v0,a0
    bbd0:	adc2640c 	sw	v0,25612(t6)
    bbd4:	3c02b025 	lui	v0,0xb025
    bbd8:	344202c0 	ori	v0,v0,0x2c0
    bbdc:	ac400000 	sw	zero,0(v0)
    bbe0:	080047cb 	j	0x11f2c
    bbe4:	00000000 	nop
    bbe8:	3262ff00 	andi	v0,s3,0xff00
    bbec:	0002f202 	srl	s8,v0,0x8
    bbf0:	13c0005a 	beqz	s8,0xbd5c
    bbf4:	3622004f 	ori	v0,s1,0x4f
    bbf8:	36220094 	ori	v0,s1,0x94
    bbfc:	94430000 	lhu	v1,0(v0)
    bc00:	362503b0 	ori	a1,s1,0x3b0
    bc04:	27c9ffff 	addiu	t1,s8,-1
    bc08:	3074ffff 	andi	s4,v1,0xffff
    bc0c:	029e001b 	divu	zero,s4,s8
    bc10:	17c00002 	bnez	s8,0xbc1c
    bc14:	00000000 	nop
    bc18:	0007000d 	break	0x7
    bc1c:	acb40000 	sw	s4,0(a1)
    bc20:	95c64aee 	lhu	a2,19182(t6)
    bc24:	24020001 	li	v0,1
    bc28:	a1c24aeb 	sb	v0,19179(t6)
    bc2c:	2402ff80 	li	v0,-128
    bc30:	362a036a 	ori	t2,s1,0x36a
    bc34:	362b004f 	ori	t3,s1,0x4f
    bc38:	362c009e 	ori	t4,s1,0x9e
    bc3c:	36270044 	ori	a3,s1,0x44
    bc40:	362d00d8 	ori	t5,s1,0xd8
    bc44:	0000a012 	mflo	s4
    bc48:	00142280 	sll	a0,s4,0xa
    bc4c:	2484f800 	addiu	a0,a0,-2048
    bc50:	03d40018 	mult	s8,s4
    bc54:	313effff 	andi	s8,t1,0xffff
    bc58:	001e1900 	sll	v1,s8,0x4
    bc5c:	00621825 	or	v1,v1,v0
    bc60:	3c02b026 	lui	v0,0xb026
    bc64:	3442007c 	ori	v0,v0,0x7c
    bc68:	00004012 	mflo	t0
    bc6c:	00c83023 	subu	a2,a2,t0
    bc70:	a5460000 	sh	a2,0(t2)
    bc74:	acbe0000 	sw	s8,0(a1)
    bc78:	a1630000 	sb	v1,0(t3)
    bc7c:	acb40000 	sw	s4,0(a1)
    bc80:	a5940000 	sh	s4,0(t4)
    bc84:	0004a142 	srl	s4,a0,0x5
    bc88:	acb40000 	sw	s4,0(a1)
    bc8c:	a4540000 	sh	s4,0(v0)
    bc90:	94e30000 	lhu	v1,0(a3)
    bc94:	2402fdff 	li	v0,-513
    bc98:	a5c64af0 	sh	a2,19184(t6)
    bc9c:	00621824 	and	v1,v1,v0
    bca0:	a4e30000 	sh	v1,0(a3)
    bca4:	94e20000 	lhu	v0,0(a3)
    bca8:	00000000 	nop
    bcac:	34420200 	ori	v0,v0,0x200
    bcb0:	a4e20000 	sh	v0,0(a3)
    bcb4:	91a30000 	lbu	v1,0(t5)
    bcb8:	3c02b025 	lui	v0,0xb025
    bcbc:	344202c0 	ori	v0,v0,0x2c0
    bcc0:	34630040 	ori	v1,v1,0x40
    bcc4:	a1a30000 	sb	v1,0(t5)
    bcc8:	ac400000 	sw	zero,0(v0)
    bccc:	080047cb 	j	0x11f2c
    bcd0:	00000000 	nop
    bcd4:	0c0050e6 	jal	0x14398
    bcd8:	24040001 	li	a0,1
    bcdc:	3c02b025 	lui	v0,0xb025
    bce0:	344202c0 	ori	v0,v0,0x2c0
    bce4:	ac400000 	sw	zero,0(v0)
    bce8:	080047cb 	j	0x11f2c
    bcec:	00000000 	nop
    bcf0:	3c10000f 	lui	s0,0xf
    bcf4:	3605ffff 	ori	a1,s0,0xffff
    bcf8:	24060060 	li	a2,96
    bcfc:	0c00446a 	jal	0x111a8
    bd00:	24040024 	li	a0,36
    bd04:	0c000c25 	jal	0x3094
    bd08:	240403e8 	li	a0,1000
    bd0c:	40016000 	mfc0	at,$12
    bd10:	34210001 	ori	at,at,0x1
    bd14:	38210001 	xori	at,at,0x1
    bd18:	40816000 	mtc0	at,$12
    bd1c:	24040024 	li	a0,36
    bd20:	0c004495 	jal	0x11254
    bd24:	3605ffff 	ori	a1,s0,0xffff
    bd28:	3054001f 	andi	s4,v0,0x1f
    bd2c:	40016000 	mfc0	at,$12
    bd30:	34210001 	ori	at,at,0x1
    bd34:	40816000 	mtc0	at,$12
    bd38:	0c000c54 	jal	0x3150
    bd3c:	24040064 	li	a0,100
    bd40:	362202c4 	ori	v0,s1,0x2c4
    bd44:	a0540000 	sb	s4,0(v0)
    bd48:	3c02b025 	lui	v0,0xb025
    bd4c:	344202c0 	ori	v0,v0,0x2c0
    bd50:	ac400000 	sw	zero,0(v0)
    bd54:	080047cb 	j	0x11f2c
    bd58:	00000000 	nop
    bd5c:	3623009e 	ori	v1,s1,0x9e
    bd60:	a0400000 	sb	zero,0(v0)
    bd64:	a4600000 	sh	zero,0(v1)
    bd68:	36220094 	ori	v0,s1,0x94
    bd6c:	94430000 	lhu	v1,0(v0)
    bd70:	3624009a 	ori	a0,s1,0x9a
    bd74:	36250098 	ori	a1,s1,0x98
    bd78:	3074ffff 	andi	s4,v1,0xffff
    bd7c:	00141280 	sll	v0,s4,0xa
    bd80:	2442f800 	addiu	v0,v0,-2048
    bd84:	0002a142 	srl	s4,v0,0x5
    bd88:	24021400 	li	v0,5120
    bd8c:	a4820000 	sh	v0,0(a0)
    bd90:	3c02b026 	lui	v0,0xb026
    bd94:	240380a0 	li	v1,-32608
    bd98:	3442007c 	ori	v0,v0,0x7c
    bd9c:	362603b0 	ori	a2,s1,0x3b0
    bda0:	a4a30000 	sh	v1,0(a1)
    bda4:	36240044 	ori	a0,s1,0x44
    bda8:	acd40000 	sw	s4,0(a2)
    bdac:	a4540000 	sh	s4,0(v0)
    bdb0:	94830000 	lhu	v1,0(a0)
    bdb4:	2402fdff 	li	v0,-513
    bdb8:	362500d8 	ori	a1,s1,0xd8
    bdbc:	00621824 	and	v1,v1,v0
    bdc0:	a4830000 	sh	v1,0(a0)
    bdc4:	94820000 	lhu	v0,0(a0)
    bdc8:	a5c04af0 	sh	zero,19184(t6)
    bdcc:	34420200 	ori	v0,v0,0x200
    bdd0:	a4820000 	sh	v0,0(a0)
    bdd4:	90a30000 	lbu	v1,0(a1)
    bdd8:	2402ffbf 	li	v0,-65
    bddc:	a1c04aeb 	sb	zero,19179(t6)
    bde0:	00621824 	and	v1,v1,v0
    bde4:	3c02b025 	lui	v0,0xb025
    bde8:	344202c0 	ori	v0,v0,0x2c0
    bdec:	a0a30000 	sb	v1,0(a1)
    bdf0:	ac400000 	sw	zero,0(v0)
    bdf4:	080047cb 	j	0x11f2c
    bdf8:	00000000 	nop
    bdfc:	26a41568 	addiu	a0,s5,5480
    be00:	8c834008 	lw	v1,16392(a0)
    be04:	3c029fff 	lui	v0,0x9fff
    be08:	3442ffff 	ori	v0,v0,0xffff
    be0c:	00621824 	and	v1,v1,v0
    be10:	3c02b025 	lui	v0,0xb025
    be14:	344202c0 	ori	v0,v0,0x2c0
    be18:	ac834008 	sw	v1,16392(a0)
    be1c:	ac400000 	sw	zero,0(v0)
    be20:	080047cb 	j	0x11f2c
    be24:	00000000 	nop
    be28:	3263ff00 	andi	v1,s3,0xff00
    be2c:	3402ff00 	li	v0,0xff00
    be30:	1062010c 	beq	v1,v0,0xc264
    be34:	26a21568 	addiu	v0,s5,5480
    be38:	ac406620 	sw	zero,26144(v0)
    be3c:	3c02b025 	lui	v0,0xb025
    be40:	344202c0 	ori	v0,v0,0x2c0
    be44:	ac400000 	sw	zero,0(v0)
    be48:	080047cb 	j	0x11f2c
    be4c:	00000000 	nop
    be50:	3402ffff 	li	v0,0xffff
    be54:	26a31568 	addiu	v1,s5,5480
    be58:	ac626620 	sw	v0,26144(v1)
    be5c:	3c02b025 	lui	v0,0xb025
    be60:	344202c0 	ori	v0,v0,0x2c0
    be64:	ac400000 	sw	zero,0(v0)
    be68:	080047cb 	j	0x11f2c
    be6c:	00000000 	nop
    be70:	34a2ff00 	ori	v0,a1,0xff00
    be74:	02621024 	and	v0,s3,v0
    be78:	00029a02 	srl	s3,v0,0x8
    be7c:	362302cc 	ori	v1,s1,0x2cc
    be80:	ac730000 	sw	s3,0(v1)
    be84:	362402c4 	ori	a0,s1,0x2c4
    be88:	8c940000 	lw	s4,0(a0)
    be8c:	02711021 	addu	v0,s3,s1
    be90:	ac540000 	sw	s4,0(v0)
    be94:	8c540000 	lw	s4,0(v0)
    be98:	3c02b025 	lui	v0,0xb025
    be9c:	344202c0 	ori	v0,v0,0x2c0
    bea0:	ac940000 	sw	s4,0(a0)
    bea4:	ac400000 	sw	zero,0(v0)
    bea8:	080047cb 	j	0x11f2c
    beac:	00000000 	nop
    beb0:	26a21568 	addiu	v0,s5,5480
    beb4:	9044648c 	lbu	a0,25740(v0)
    beb8:	3c02b025 	lui	v0,0xb025
    bebc:	362302c4 	ori	v1,s1,0x2c4
    bec0:	344202c0 	ori	v0,v0,0x2c0
    bec4:	ac640000 	sw	a0,0(v1)
    bec8:	ac400000 	sw	zero,0(v0)
    becc:	080047cb 	j	0x11f2c
    bed0:	00000000 	nop
    bed4:	36220364 	ori	v0,s1,0x364
    bed8:	90430000 	lbu	v1,0(v0)
    bedc:	00000000 	nop
    bee0:	307400ff 	andi	s4,v1,0xff
    bee4:	36840005 	ori	a0,s4,0x5
    bee8:	a0440000 	sb	a0,0(v0)
    beec:	3c02b025 	lui	v0,0xb025
    bef0:	344202c0 	ori	v0,v0,0x2c0
    bef4:	ac400000 	sw	zero,0(v0)
    bef8:	080047cb 	j	0x11f2c
    befc:	00000000 	nop
    bf00:	3262ff00 	andi	v0,s3,0xff00
    bf04:	00022202 	srl	a0,v0,0x8
    bf08:	0000a021 	move	s4,zero
    bf0c:	08004cb2 	j	0x132c8
    bf10:	3c07b027 	lui	a3,0xb027
    bf14:	2e820100 	sltiu	v0,s4,256
    bf18:	1040000b 	beqz	v0,0xbf48
    bf1c:	24e70008 	addiu	a3,a3,8
    bf20:	94e20000 	lhu	v0,0(a3)
    bf24:	00000000 	nop
    bf28:	305effff 	andi	s8,v0,0xffff
    bf2c:	33c300ff 	andi	v1,s8,0xff
    bf30:	1464fff8 	bne	v1,a0,0xbf14
    bf34:	26940001 	addiu	s4,s4,1
    bf38:	2694ffff 	addiu	s4,s4,-1
    bf3c:	3c02b025 	lui	v0,0xb025
    bf40:	344202c4 	ori	v0,v0,0x2c4
    bf44:	a4540000 	sh	s4,0(v0)
    bf48:	2e8200ff 	sltiu	v0,s4,255
    bf4c:	1440fb0b 	bnez	v0,0xab7c
    bf50:	3c02b025 	lui	v0,0xb025
    bf54:	344202c4 	ori	v0,v0,0x2c4
    bf58:	3c038712 	lui	v1,0x8712
    bf5c:	ac430000 	sw	v1,0(v0)
    bf60:	3c02b025 	lui	v0,0xb025
    bf64:	344202c0 	ori	v0,v0,0x2c0
    bf68:	ac400000 	sw	zero,0(v0)
    bf6c:	080047cb 	j	0x11f2c
    bf70:	00000000 	nop
    bf74:	40016000 	mfc0	at,$12
    bf78:	34210001 	ori	at,at,0x1
    bf7c:	38210001 	xori	at,at,0x1
    bf80:	40816000 	mtc0	at,$12
    bf84:	34a2ff00 	ori	v0,a1,0xff00
    bf88:	02621024 	and	v0,s3,v0
    bf8c:	0002f202 	srl	s8,v0,0x8
    bf90:	362302cc 	ori	v1,s1,0x2cc
    bf94:	26a21568 	addiu	v0,s5,5480
    bf98:	03c02021 	move	a0,s8
    bf9c:	a0404b7e 	sb	zero,19326(v0)
    bfa0:	ac7e0000 	sw	s8,0(v1)
    bfa4:	0c001ad8 	jal	0x6b60
    bfa8:	00000000 	nop
    bfac:	40016000 	mfc0	at,$12
    bfb0:	34210001 	ori	at,at,0x1
    bfb4:	40816000 	mtc0	at,$12
    bfb8:	3c02b025 	lui	v0,0xb025
    bfbc:	344202c0 	ori	v0,v0,0x2c0
    bfc0:	ac400000 	sw	zero,0(v0)
    bfc4:	080047cb 	j	0x11f2c
    bfc8:	00000000 	nop
    bfcc:	26a21568 	addiu	v0,s5,5480
    bfd0:	00821021 	addu	v0,a0,v0
    bfd4:	a046445e 	sb	a2,17502(v0)
    bfd8:	3c02b025 	lui	v0,0xb025
    bfdc:	344202c0 	ori	v0,v0,0x2c0
    bfe0:	ac400000 	sw	zero,0(v0)
    bfe4:	080047cb 	j	0x11f2c
    bfe8:	00000000 	nop
    bfec:	40016000 	mfc0	at,$12
    bff0:	34210001 	ori	at,at,0x1
    bff4:	38210001 	xori	at,at,0x1
    bff8:	40816000 	mtc0	at,$12
    bffc:	26a21568 	addiu	v0,s5,5480
    c000:	90444b7e 	lbu	a0,19326(v0)
    c004:	362302c4 	ori	v1,s1,0x2c4
    c008:	ac640000 	sw	a0,0(v1)
    c00c:	40016000 	mfc0	at,$12
    c010:	34210001 	ori	at,at,0x1
    c014:	40816000 	mtc0	at,$12
    c018:	3c02b025 	lui	v0,0xb025
    c01c:	344202c0 	ori	v0,v0,0x2c0
    c020:	ac400000 	sw	zero,0(v0)
    c024:	080047cb 	j	0x11f2c
    c028:	00000000 	nop
    c02c:	00132402 	srl	a0,s3,0x10
    c030:	0c001147 	jal	0x451c
    c034:	308400ff 	andi	a0,a0,0xff
    c038:	3c02b025 	lui	v0,0xb025
    c03c:	344202c0 	ori	v0,v0,0x2c0
    c040:	ac400000 	sw	zero,0(v0)
    c044:	080047cb 	j	0x11f2c
    c048:	00000000 	nop
    c04c:	24020001 	li	v0,1
    c050:	26a31568 	addiu	v1,s5,5480
    c054:	a462645a 	sh	v0,25690(v1)
    c058:	3c02b025 	lui	v0,0xb025
    c05c:	344202c0 	ori	v0,v0,0x2c0
    c060:	ac400000 	sw	zero,0(v0)
    c064:	080047cb 	j	0x11f2c
    c068:	00000000 	nop
    c06c:	0c0051af 	jal	0x146bc
    c070:	02602021 	move	a0,s3
    c074:	3c02b025 	lui	v0,0xb025
    c078:	344202c0 	ori	v0,v0,0x2c0
    c07c:	ac400000 	sw	zero,0(v0)
    c080:	080047cb 	j	0x11f2c
    c084:	00000000 	nop
    c088:	26a31568 	addiu	v1,s5,5480
    c08c:	90624304 	lbu	v0,17156(v1)
    c090:	00000000 	nop
    c094:	ac624304 	sw	v0,17156(v1)
    c098:	3c02b025 	lui	v0,0xb025
    c09c:	344202c0 	ori	v0,v0,0x2c0
    c0a0:	ac400000 	sw	zero,0(v0)
    c0a4:	080047cb 	j	0x11f2c
    c0a8:	00000000 	nop
    c0ac:	3262ff00 	andi	v0,s3,0xff00
    c0b0:	02651824 	and	v1,s3,a1
    c0b4:	0002a202 	srl	s4,v0,0x8
    c0b8:	24020001 	li	v0,1
    c0bc:	12820206 	beq	s4,v0,0xc8d8
    c0c0:	00032c02 	srl	a1,v1,0x10
    c0c4:	24020002 	li	v0,2
    c0c8:	128201f3 	beq	s4,v0,0xc898
    c0cc:	24020003 	li	v0,3
    c0d0:	1282022e 	beq	s4,v0,0xc98c
    c0d4:	24020004 	li	v0,4
    c0d8:	1282021c 	beq	s4,v0,0xc94c
    c0dc:	24020008 	li	v0,8
    c0e0:	12820290 	beq	s4,v0,0xcb24
    c0e4:	24020009 	li	v0,9
    c0e8:	128202c4 	beq	s4,v0,0xcbfc
    c0ec:	2402000a 	li	v0,10
    c0f0:	128202f8 	beq	s4,v0,0xccd4
    c0f4:	2402000b 	li	v0,11
    c0f8:	128202e5 	beq	s4,v0,0xcc90
    c0fc:	2402000c 	li	v0,12
    c100:	12820338 	beq	s4,v0,0xcde4
    c104:	2402000d 	li	v0,13
    c108:	12820325 	beq	s4,v0,0xcda0
    c10c:	2402000e 	li	v0,14
    c110:	12820312 	beq	s4,v0,0xcd5c
    c114:	2402000f 	li	v0,15
    c118:	128202ff 	beq	s4,v0,0xcd18
    c11c:	24020010 	li	v0,16
    c120:	1682fa96 	bne	s4,v0,0xab7c
    c124:	3c02b025 	lui	v0,0xb025
    c128:	000510c0 	sll	v0,a1,0x3
    c12c:	00451021 	addu	v0,v0,a1
    c130:	00021080 	sll	v0,v0,0x2
    c134:	00451021 	addu	v0,v0,a1
    c138:	26a31568 	addiu	v1,s5,5480
    c13c:	00021080 	sll	v0,v0,0x2
    c140:	00431021 	addu	v0,v0,v1
    c144:	94445160 	lhu	a0,20832(v0)
    c148:	9445515c 	lhu	a1,20828(v0)
    c14c:	3c06b025 	lui	a2,0xb025
    c150:	00042400 	sll	a0,a0,0x10
    c154:	34c302c4 	ori	v1,a2,0x2c4
    c158:	00a42821 	addu	a1,a1,a0
    c15c:	ac650000 	sw	a1,0(v1)
    c160:	8c47516c 	lw	a3,20844(v0)
    c164:	8c435168 	lw	v1,20840(v0)
    c168:	94445164 	lhu	a0,20836(v0)
    c16c:	3c02b025 	lui	v0,0xb025
    c170:	00671821 	addu	v1,v1,a3
    c174:	00031c00 	sll	v1,v1,0x10
    c178:	34c602c8 	ori	a2,a2,0x2c8
    c17c:	00832021 	addu	a0,a0,v1
    c180:	344202c0 	ori	v0,v0,0x2c0
    c184:	acc40000 	sw	a0,0(a2)
    c188:	ac400000 	sw	zero,0(v0)
    c18c:	080047cb 	j	0x11f2c
    c190:	00000000 	nop
    c194:	26a41568 	addiu	a0,s5,5480
    c198:	8c834008 	lw	v1,16392(a0)
    c19c:	3c029fff 	lui	v0,0x9fff
    c1a0:	3442ffff 	ori	v0,v0,0xffff
    c1a4:	00621824 	and	v1,v1,v0
    c1a8:	00133402 	srl	a2,s3,0x10
    c1ac:	3c022000 	lui	v0,0x2000
    c1b0:	00621825 	or	v1,v1,v0
    c1b4:	30c2003f 	andi	v0,a2,0x3f
    c1b8:	a08242c1 	sb	v0,17089(a0)
    c1bc:	32651f00 	andi	a1,s3,0x1f00
    c1c0:	3c02b025 	lui	v0,0xb025
    c1c4:	0005a202 	srl	s4,a1,0x8
    c1c8:	344202c0 	ori	v0,v0,0x2c0
    c1cc:	ac834008 	sw	v1,16392(a0)
    c1d0:	a09442bc 	sb	s4,17084(a0)
    c1d4:	ac400000 	sw	zero,0(v0)
    c1d8:	080047cb 	j	0x11f2c
    c1dc:	00000000 	nop
    c1e0:	26a21568 	addiu	v0,s5,5480
    c1e4:	90446465 	lbu	a0,25701(v0)
    c1e8:	94456466 	lhu	a1,25702(v0)
    c1ec:	90436464 	lbu	v1,25700(v0)
    c1f0:	00042200 	sll	a0,a0,0x8
    c1f4:	00052c00 	sll	a1,a1,0x10
    c1f8:	00641825 	or	v1,v1,a0
    c1fc:	362202c4 	ori	v0,s1,0x2c4
    c200:	00651825 	or	v1,v1,a1
    c204:	ac430000 	sw	v1,0(v0)
    c208:	3c02b025 	lui	v0,0xb025
    c20c:	344202c0 	ori	v0,v0,0x2c0
    c210:	ac400000 	sw	zero,0(v0)
    c214:	080047cb 	j	0x11f2c
    c218:	00000000 	nop
    c21c:	26a21568 	addiu	v0,s5,5480
    c220:	90446480 	lbu	a0,25728(v0)
    c224:	3c02b025 	lui	v0,0xb025
    c228:	362302c4 	ori	v1,s1,0x2c4
    c22c:	344202c0 	ori	v0,v0,0x2c0
    c230:	ac640000 	sw	a0,0(v1)
    c234:	ac400000 	sw	zero,0(v0)
    c238:	080047cb 	j	0x11f2c
    c23c:	00000000 	nop
    c240:	26a21568 	addiu	v0,s5,5480
    c244:	90446498 	lbu	a0,25752(v0)
    c248:	3c02b025 	lui	v0,0xb025
    c24c:	362302c4 	ori	v1,s1,0x2c4
    c250:	344202c0 	ori	v0,v0,0x2c0
    c254:	ac640000 	sw	a0,0(v1)
    c258:	ac400000 	sw	zero,0(v0)
    c25c:	080047cb 	j	0x11f2c
    c260:	00000000 	nop
    c264:	3402ffff 	li	v0,0xffff
    c268:	26a31568 	addiu	v1,s5,5480
    c26c:	ac626620 	sw	v0,26144(v1)
    c270:	3c02b025 	lui	v0,0xb025
    c274:	344202c0 	ori	v0,v0,0x2c0
    c278:	ac400000 	sw	zero,0(v0)
    c27c:	080047cb 	j	0x11f2c
    c280:	00000000 	nop
    c284:	3262ff00 	andi	v0,s3,0xff00
    c288:	00029a02 	srl	s3,v0,0x8
    c28c:	362302cc 	ori	v1,s1,0x2cc
    c290:	ac730000 	sw	s3,0(v1)
    c294:	12600168 	beqz	s3,0xc838
    c298:	24020001 	li	v0,1
    c29c:	126202e9 	beq	s3,v0,0xce44
    c2a0:	00000000 	nop
    c2a4:	0c00422a 	jal	0x108a8
    c2a8:	00002021 	move	a0,zero
    c2ac:	3c02b025 	lui	v0,0xb025
    c2b0:	344202c0 	ori	v0,v0,0x2c0
    c2b4:	ac400000 	sw	zero,0(v0)
    c2b8:	080047cb 	j	0x11f2c
    c2bc:	00000000 	nop
    c2c0:	26a31568 	addiu	v1,s5,5480
    c2c4:	8c62640c 	lw	v0,25612(v1)
    c2c8:	00000000 	nop
    c2cc:	34420003 	ori	v0,v0,0x3
    c2d0:	ac62640c 	sw	v0,25612(v1)
    c2d4:	3c02b025 	lui	v0,0xb025
    c2d8:	344202c0 	ori	v0,v0,0x2c0
    c2dc:	ac400000 	sw	zero,0(v0)
    c2e0:	080047cb 	j	0x11f2c
    c2e4:	00000000 	nop
    c2e8:	02652024 	and	a0,s3,a1
    c2ec:	3265ff00 	andi	a1,s3,0xff00
    c2f0:	00042402 	srl	a0,a0,0x10
    c2f4:	0c00523d 	jal	0x148f4
    c2f8:	00052a02 	srl	a1,a1,0x8
    c2fc:	362302c4 	ori	v1,s1,0x2c4
    c300:	a0620000 	sb	v0,0(v1)
    c304:	3c02b025 	lui	v0,0xb025
    c308:	344202c0 	ori	v0,v0,0x2c0
    c30c:	ac400000 	sw	zero,0(v0)
    c310:	080047cb 	j	0x11f2c
    c314:	00000000 	nop
    c318:	0c005ae1 	jal	0x16b84
    c31c:	02602021 	move	a0,s3
    c320:	3263ff00 	andi	v1,s3,0xff00
    c324:	3402cc00 	li	v0,0xcc00
    c328:	1462fa14 	bne	v1,v0,0xab7c
    c32c:	3c02b025 	lui	v0,0xb025
    c330:	26a21568 	addiu	v0,s5,5480
    c334:	8c4342e4 	lw	v1,17124(v0)
    c338:	3c041000 	lui	a0,0x1000
    c33c:	00641825 	or	v1,v1,a0
    c340:	ac4342e4 	sw	v1,17124(v0)
    c344:	3c02b025 	lui	v0,0xb025
    c348:	344202c0 	ori	v0,v0,0x2c0
    c34c:	ac400000 	sw	zero,0(v0)
    c350:	080047cb 	j	0x11f2c
    c354:	00000000 	nop
    c358:	00041080 	sll	v0,a0,0x2
    c35c:	26a31568 	addiu	v1,s5,5480
    c360:	00431021 	addu	v0,v0,v1
    c364:	ac4544f4 	sw	a1,17652(v0)
    c368:	3c02b025 	lui	v0,0xb025
    c36c:	344202c0 	ori	v0,v0,0x2c0
    c370:	ac400000 	sw	zero,0(v0)
    c374:	080047cb 	j	0x11f2c
    c378:	00000000 	nop
    c37c:	00131402 	srl	v0,s3,0x10
    c380:	305400ff 	andi	s4,v0,0xff
    c384:	3263ff00 	andi	v1,s3,0xff00
    c388:	2e820007 	sltiu	v0,s4,7
    c38c:	1040f9fa 	beqz	v0,0xab78
    c390:	0003f202 	srl	s8,v1,0x8
    c394:	3c048002 	lui	a0,0x8002
    c398:	2483a7f0 	addiu	v1,a0,-22544
    c39c:	00141080 	sll	v0,s4,0x2
    c3a0:	00431021 	addu	v0,v0,v1
    c3a4:	8c440000 	lw	a0,0(v0)
    c3a8:	00000000 	nop
    c3ac:	00800008 	jr	a0
    c3b0:	00000000 	nop
    c3b4:	3262ff00 	andi	v0,s3,0xff00
    c3b8:	00022202 	srl	a0,v0,0x8
    c3bc:	2c830003 	sltiu	v1,a0,3
    c3c0:	1060f9ee 	beqz	v1,0xab7c
    c3c4:	3c02b025 	lui	v0,0xb025
    c3c8:	26a21568 	addiu	v0,s5,5480
    c3cc:	a0444002 	sb	a0,16386(v0)
    c3d0:	3c02b025 	lui	v0,0xb025
    c3d4:	344202c0 	ori	v0,v0,0x2c0
    c3d8:	ac400000 	sw	zero,0(v0)
    c3dc:	080047cb 	j	0x11f2c
    c3e0:	00000000 	nop
    c3e4:	3442ff00 	ori	v0,v0,0xff00
    c3e8:	02621024 	and	v0,s3,v0
    c3ec:	3c05b025 	lui	a1,0xb025
    c3f0:	0002f202 	srl	s8,v0,0x8
    c3f4:	34a302cc 	ori	v1,a1,0x2cc
    c3f8:	24020001 	li	v0,1
    c3fc:	ac7e0000 	sw	s8,0(v1)
    c400:	13c2019f 	beq	s8,v0,0xca80
    c404:	2bc20002 	slti	v0,s8,2
    c408:	14400193 	bnez	v0,0xca58
    c40c:	24020003 	li	v0,3
    c410:	13c20189 	beq	s8,v0,0xca38
    c414:	26a21568 	addiu	v0,s5,5480
    c418:	94444b78 	lhu	a0,19320(v0)
    c41c:	3c03b025 	lui	v1,0xb025
    c420:	3c02b025 	lui	v0,0xb025
    c424:	346302c4 	ori	v1,v1,0x2c4
    c428:	344202c0 	ori	v0,v0,0x2c0
    c42c:	ac640000 	sw	a0,0(v1)
    c430:	ac400000 	sw	zero,0(v0)
    c434:	080047cb 	j	0x11f2c
    c438:	00000000 	nop
    c43c:	26a21568 	addiu	v0,s5,5480
    c440:	a440645a 	sh	zero,25690(v0)
    c444:	3c02b025 	lui	v0,0xb025
    c448:	344202c0 	ori	v0,v0,0x2c0
    c44c:	ac400000 	sw	zero,0(v0)
    c450:	080047cb 	j	0x11f2c
    c454:	00000000 	nop
    c458:	0c00528b 	jal	0x14a2c
    c45c:	00000000 	nop
    c460:	3c02b025 	lui	v0,0xb025
    c464:	344202c0 	ori	v0,v0,0x2c0
    c468:	ac400000 	sw	zero,0(v0)
    c46c:	080047cb 	j	0x11f2c
    c470:	00000000 	nop
    c474:	0c00095b 	jal	0x256c
    c478:	03c02021 	move	a0,s8
    c47c:	3c02b025 	lui	v0,0xb025
    c480:	344202c0 	ori	v0,v0,0x2c0
    c484:	ac400000 	sw	zero,0(v0)
    c488:	080047cb 	j	0x11f2c
    c48c:	00000000 	nop
    c490:	26a21568 	addiu	v0,s5,5480
    c494:	90436479 	lbu	v1,25721(v0)
    c498:	90446478 	lbu	a0,25720(v0)
    c49c:	90456464 	lbu	a1,25700(v0)
    c4a0:	00031a00 	sll	v1,v1,0x8
    c4a4:	00042400 	sll	a0,a0,0x10
    c4a8:	00a32825 	or	a1,a1,v1
    c4ac:	3c02b025 	lui	v0,0xb025
    c4b0:	344202c4 	ori	v0,v0,0x2c4
    c4b4:	00a42825 	or	a1,a1,a0
    c4b8:	ac450000 	sw	a1,0(v0)
    c4bc:	3c02b025 	lui	v0,0xb025
    c4c0:	344202c0 	ori	v0,v0,0x2c0
    c4c4:	ac400000 	sw	zero,0(v0)
    c4c8:	080047cb 	j	0x11f2c
    c4cc:	00000000 	nop
    c4d0:	0c000c74 	jal	0x31d0
    c4d4:	240400fd 	li	a0,253
    c4d8:	3c021010 	lui	v0,0x1010
    c4dc:	34421010 	ori	v0,v0,0x1010
    c4e0:	362300a0 	ori	v1,s1,0xa0
    c4e4:	ac620000 	sw	v0,0(v1)
    c4e8:	3c02c000 	lui	v0,0xc000
    c4ec:	3442a100 	ori	v0,v0,0xa100
    c4f0:	362500a8 	ori	a1,s1,0xa8
    c4f4:	362400a4 	ori	a0,s1,0xa4
    c4f8:	ac800000 	sw	zero,0(a0)
    c4fc:	aca20000 	sw	v0,0(a1)
    c500:	3c02b025 	lui	v0,0xb025
    c504:	344202c0 	ori	v0,v0,0x2c0
    c508:	ac400000 	sw	zero,0(v0)
    c50c:	080047cb 	j	0x11f2c
    c510:	00000000 	nop
    c514:	40016000 	mfc0	at,$12
    c518:	34210001 	ori	at,at,0x1
    c51c:	38210001 	xori	at,at,0x1
    c520:	40816000 	mtc0	at,$12
    c524:	3c0200ff 	lui	v0,0xff
    c528:	3442ff00 	ori	v0,v0,0xff00
    c52c:	02621024 	and	v0,s3,v0
    c530:	0002f202 	srl	s8,v0,0x8
    c534:	26a31568 	addiu	v1,s5,5480
    c538:	a07e4b7f 	sb	s8,19327(v1)
    c53c:	40016000 	mfc0	at,$12
    c540:	34210001 	ori	at,at,0x1
    c544:	40816000 	mtc0	at,$12
    c548:	3c02b025 	lui	v0,0xb025
    c54c:	344202c0 	ori	v0,v0,0x2c0
    c550:	ac400000 	sw	zero,0(v0)
    c554:	080047cb 	j	0x11f2c
    c558:	00000000 	nop
    c55c:	3c03b025 	lui	v1,0xb025
    c560:	346202c0 	ori	v0,v1,0x2c0
    c564:	ac400000 	sw	zero,0(v0)
    c568:	34640e94 	ori	a0,v1,0xe94
    c56c:	34620e9c 	ori	v0,v1,0xe9c
    c570:	34650ea4 	ori	a1,v1,0xea4
    c574:	34660eac 	ori	a2,v1,0xeac
    c578:	8c890000 	lw	t1,0(a0)
    c57c:	26af1568 	addiu	t7,s5,5480
    c580:	8c4b0000 	lw	t3,0(v0)
    c584:	8cac0000 	lw	t4,0(a1)
    c588:	8cc40000 	lw	a0,0(a2)
    c58c:	34620eb4 	ori	v0,v1,0xeb4
    c590:	8de5400c 	lw	a1,16396(t7)
    c594:	8de64010 	lw	a2,16400(t7)
    c598:	8c4a0000 	lw	t2,0(v0)
    c59c:	3c0703ff 	lui	a3,0x3ff
    c5a0:	2408fc00 	li	t0,-1024
    c5a4:	34620ebc 	ori	v0,v1,0xebc
    c5a8:	01274824 	and	t1,t1,a3
    c5ac:	00872024 	and	a0,a0,a3
    c5b0:	8c4d0000 	lw	t5,0(v0)
    c5b4:	00c83024 	and	a2,a2,t0
    c5b8:	00094c02 	srl	t1,t1,0x10
    c5bc:	00a82824 	and	a1,a1,t0
    c5c0:	00042402 	srl	a0,a0,0x10
    c5c4:	34680ecc 	ori	t0,v1,0xecc
    c5c8:	3c02fff0 	lui	v0,0xfff0
    c5cc:	34630ec4 	ori	v1,v1,0xec4
    c5d0:	344203ff 	ori	v0,v0,0x3ff
    c5d4:	00a92825 	or	a1,a1,t1
    c5d8:	00c43025 	or	a2,a2,a0
    c5dc:	8c690000 	lw	t1,0(v1)
    c5e0:	8de44008 	lw	a0,16392(t7)
    c5e4:	8d0e0000 	lw	t6,0(t0)
    c5e8:	01675824 	and	t3,t3,a3
    c5ec:	01475024 	and	t2,t2,a3
    c5f0:	00c23024 	and	a2,a2,v0
    c5f4:	00a22824 	and	a1,a1,v0
    c5f8:	000b5982 	srl	t3,t3,0x6
    c5fc:	000a5182 	srl	t2,t2,0x6
    c600:	3c03c00f 	lui	v1,0xc00f
    c604:	3c029fff 	lui	v0,0x9fff
    c608:	3463ffff 	ori	v1,v1,0xffff
    c60c:	3442ffff 	ori	v0,v0,0xffff
    c610:	00ab2825 	or	a1,a1,t3
    c614:	00ca3025 	or	a2,a2,t2
    c618:	01876024 	and	t4,t4,a3
    c61c:	01a76824 	and	t5,t5,a3
    c620:	3c0800ff 	lui	t0,0xff
    c624:	00822024 	and	a0,a0,v0
    c628:	00c33024 	and	a2,a2,v1
    c62c:	00a32824 	and	a1,a1,v1
    c630:	01c77024 	and	t6,t6,a3
    c634:	000c6100 	sll	t4,t4,0x4
    c638:	000d6900 	sll	t5,t5,0x4
    c63c:	01274824 	and	t1,t1,a3
    c640:	3503ff00 	ori	v1,t0,0xff00
    c644:	3c022000 	lui	v0,0x2000
    c648:	00822025 	or	a0,a0,v0
    c64c:	00ac2825 	or	a1,a1,t4
    c650:	00cd3025 	or	a2,a2,t5
    c654:	00094c02 	srl	t1,t1,0x10
    c658:	000e7402 	srl	t6,t6,0x10
    c65c:	02631824 	and	v1,s3,v1
    c660:	ade44008 	sw	a0,16392(t7)
    c664:	ade5400c 	sw	a1,16396(t7)
    c668:	ade64010 	sw	a2,16400(t7)
    c66c:	a5e94014 	sh	t1,16404(t7)
    c670:	106000d7 	beqz	v1,0xc9d0
    c674:	a5ee4016 	sh	t6,16406(t7)
    c678:	02681024 	and	v0,s3,t0
    c67c:	00021402 	srl	v0,v0,0x10
    c680:	00131a02 	srl	v1,s3,0x8
    c684:	a1e242c7 	sb	v0,17095(t7)
    c688:	a1e342c3 	sb	v1,17091(t7)
    c68c:	26a21568 	addiu	v0,s5,5480
    c690:	904442c3 	lbu	a0,17091(v0)
    c694:	3c03b025 	lui	v1,0xb025
    c698:	34630c61 	ori	v1,v1,0xc61
    c69c:	a0640000 	sb	a0,0(v1)
    c6a0:	00001021 	move	v0,zero
    c6a4:	24420001 	addiu	v0,v0,1
    c6a8:	304200ff 	andi	v0,v0,0xff
    c6ac:	2c430006 	sltiu	v1,v0,6
    c6b0:	1460fffd 	bnez	v1,0xc6a8
    c6b4:	24420001 	addiu	v0,v0,1
    c6b8:	0c005812 	jal	0x16048
    c6bc:	27a40010 	addiu	a0,sp,16
    c6c0:	3c02b025 	lui	v0,0xb025
    c6c4:	344202c0 	ori	v0,v0,0x2c0
    c6c8:	ac400000 	sw	zero,0(v0)
    c6cc:	080047cb 	j	0x11f2c
    c6d0:	00000000 	nop
    c6d4:	3c02b028 	lui	v0,0xb028
    c6d8:	90430000 	lbu	v1,0(v0)
    c6dc:	240200ff 	li	v0,255
    c6e0:	307300ff 	andi	s3,v1,0xff
    c6e4:	1262f924 	beq	s3,v0,0xab78
    c6e8:	240400ff 	li	a0,255
    c6ec:	3c05b028 	lui	a1,0xb028
    c6f0:	001310c0 	sll	v0,s3,0x3
    c6f4:	00451021 	addu	v0,v0,a1
    c6f8:	90430000 	lbu	v1,0(v0)
    c6fc:	00000000 	nop
    c700:	307300ff 	andi	s3,v1,0xff
    c704:	1664fffb 	bne	s3,a0,0xc6f4
    c708:	001310c0 	sll	v0,s3,0x3
    c70c:	3c02b025 	lui	v0,0xb025
    c710:	344202c0 	ori	v0,v0,0x2c0
    c714:	ac400000 	sw	zero,0(v0)
    c718:	080047cb 	j	0x11f2c
    c71c:	00000000 	nop
    c720:	32631f00 	andi	v1,s3,0x1f00
    c724:	00131402 	srl	v0,s3,0x10
    c728:	0003a202 	srl	s4,v1,0x8
    c72c:	3042003f 	andi	v0,v0,0x3f
    c730:	26a31568 	addiu	v1,s5,5480
    c734:	a06242c1 	sb	v0,17089(v1)
    c738:	3c02b025 	lui	v0,0xb025
    c73c:	344202c0 	ori	v0,v0,0x2c0
    c740:	a07442bc 	sb	s4,17084(v1)
    c744:	ac400000 	sw	zero,0(v0)
    c748:	080047cb 	j	0x11f2c
    c74c:	00000000 	nop
    c750:	26a21568 	addiu	v0,s5,5480
    c754:	90446488 	lbu	a0,25736(v0)
    c758:	3c03b025 	lui	v1,0xb025
    c75c:	3c02b025 	lui	v0,0xb025
    c760:	346302c4 	ori	v1,v1,0x2c4
    c764:	344202c0 	ori	v0,v0,0x2c0
    c768:	ac640000 	sw	a0,0(v1)
    c76c:	ac400000 	sw	zero,0(v0)
    c770:	080047cb 	j	0x11f2c
    c774:	00000000 	nop
    c778:	00131402 	srl	v0,s3,0x10
    c77c:	3c03b025 	lui	v1,0xb025
    c780:	3264ff00 	andi	a0,s3,0xff00
    c784:	346302cc 	ori	v1,v1,0x2cc
    c788:	305e00ff 	andi	s8,v0,0xff
    c78c:	ac730000 	sw	s3,0(v1)
    c790:	13c00004 	beqz	s8,0xc7a4
    c794:	00049a02 	srl	s3,a0,0x8
    c798:	24020001 	li	v0,1
    c79c:	13c20002 	beq	s8,v0,0xc7a8
    c7a0:	24040001 	li	a0,1
    c7a4:	00002021 	move	a0,zero
    c7a8:	0c00422a 	jal	0x108a8
    c7ac:	3c10000f 	lui	s0,0xf
    c7b0:	3605ffff 	ori	a1,s0,0xffff
    c7b4:	0c004495 	jal	0x11254
    c7b8:	02602021 	move	a0,s3
    c7bc:	3610ffff 	ori	s0,s0,0xffff
    c7c0:	0050a024 	and	s4,v0,s0
    c7c4:	3c02b025 	lui	v0,0xb025
    c7c8:	344202c4 	ori	v0,v0,0x2c4
    c7cc:	ac540000 	sw	s4,0(v0)
    c7d0:	3c02b025 	lui	v0,0xb025
    c7d4:	344202c0 	ori	v0,v0,0x2c0
    c7d8:	ac400000 	sw	zero,0(v0)
    c7dc:	080047cb 	j	0x11f2c
    c7e0:	00000000 	nop
    c7e4:	26a21568 	addiu	v0,s5,5480
    c7e8:	9044647c 	lbu	a0,25724(v0)
    c7ec:	3c03b025 	lui	v1,0xb025
    c7f0:	3c02b025 	lui	v0,0xb025
    c7f4:	346302c4 	ori	v1,v1,0x2c4
    c7f8:	344202c0 	ori	v0,v0,0x2c0
    c7fc:	ac640000 	sw	a0,0(v1)
    c800:	ac400000 	sw	zero,0(v0)
    c804:	080047cb 	j	0x11f2c
    c808:	00000000 	nop
    c80c:	26a21568 	addiu	v0,s5,5480
    c810:	8c43640c 	lw	v1,25612(v0)
    c814:	2404fffd 	li	a0,-3
    c818:	00641824 	and	v1,v1,a0
    c81c:	34630001 	ori	v1,v1,0x1
    c820:	ac43640c 	sw	v1,25612(v0)
    c824:	3c02b025 	lui	v0,0xb025
    c828:	344202c0 	ori	v0,v0,0x2c0
    c82c:	ac400000 	sw	zero,0(v0)
    c830:	080047cb 	j	0x11f2c
    c834:	00000000 	nop
    c838:	0c00422a 	jal	0x108a8
    c83c:	00002021 	move	a0,zero
    c840:	3c02b025 	lui	v0,0xb025
    c844:	344202c0 	ori	v0,v0,0x2c0
    c848:	ac400000 	sw	zero,0(v0)
    c84c:	080047cb 	j	0x11f2c
    c850:	00000000 	nop
    c854:	0c005aee 	jal	0x16bb8
    c858:	02602021 	move	a0,s3
    c85c:	3c02b025 	lui	v0,0xb025
    c860:	344202c0 	ori	v0,v0,0x2c0
    c864:	ac400000 	sw	zero,0(v0)
    c868:	080047cb 	j	0x11f2c
    c86c:	00000000 	nop
    c870:	26a21568 	addiu	v0,s5,5480
    c874:	90446494 	lbu	a0,25748(v0)
    c878:	3c03b025 	lui	v1,0xb025
    c87c:	3c02b025 	lui	v0,0xb025
    c880:	346302c4 	ori	v1,v1,0x2c4
    c884:	344202c0 	ori	v0,v0,0x2c0
    c888:	ac640000 	sw	a0,0(v1)
    c88c:	ac400000 	sw	zero,0(v0)
    c890:	080047cb 	j	0x11f2c
    c894:	00000000 	nop
    c898:	000510c0 	sll	v0,a1,0x3
    c89c:	00451021 	addu	v0,v0,a1
    c8a0:	00021080 	sll	v0,v0,0x2
    c8a4:	00451021 	addu	v0,v0,a1
    c8a8:	26a31568 	addiu	v1,s5,5480
    c8ac:	00021080 	sll	v0,v0,0x2
    c8b0:	00431021 	addu	v0,v0,v1
    c8b4:	8c445188 	lw	a0,20872(v0)
    c8b8:	3c03b025 	lui	v1,0xb025
    c8bc:	3c02b025 	lui	v0,0xb025
    c8c0:	346302c4 	ori	v1,v1,0x2c4
    c8c4:	344202c0 	ori	v0,v0,0x2c0
    c8c8:	ac640000 	sw	a0,0(v1)
    c8cc:	ac400000 	sw	zero,0(v0)
    c8d0:	080047cb 	j	0x11f2c
    c8d4:	00000000 	nop
    c8d8:	000510c0 	sll	v0,a1,0x3
    c8dc:	00451021 	addu	v0,v0,a1
    c8e0:	00021080 	sll	v0,v0,0x2
    c8e4:	00451021 	addu	v0,v0,a1
    c8e8:	26a31568 	addiu	v1,s5,5480
    c8ec:	00021080 	sll	v0,v0,0x2
    c8f0:	00431021 	addu	v0,v0,v1
    c8f4:	8c445184 	lw	a0,20868(v0)
    c8f8:	3c02b025 	lui	v0,0xb025
    c8fc:	362302c4 	ori	v1,s1,0x2c4
    c900:	344202c0 	ori	v0,v0,0x2c0
    c904:	ac640000 	sw	a0,0(v1)
    c908:	ac400000 	sw	zero,0(v0)
    c90c:	080047cb 	j	0x11f2c
    c910:	00000000 	nop
    c914:	40016000 	mfc0	at,$12
    c918:	34210001 	ori	at,at,0x1
    c91c:	38210001 	xori	at,at,0x1
    c920:	40816000 	mtc0	at,$12
    c924:	0c00541c 	jal	0x15070
    c928:	00000000 	nop
    c92c:	40016000 	mfc0	at,$12
    c930:	34210001 	ori	at,at,0x1
    c934:	40816000 	mtc0	at,$12
    c938:	3c02b025 	lui	v0,0xb025
    c93c:	344202c0 	ori	v0,v0,0x2c0
    c940:	ac400000 	sw	zero,0(v0)
    c944:	080047cb 	j	0x11f2c
    c948:	00000000 	nop
    c94c:	000510c0 	sll	v0,a1,0x3
    c950:	00451021 	addu	v0,v0,a1
    c954:	00021080 	sll	v0,v0,0x2
    c958:	00451021 	addu	v0,v0,a1
    c95c:	26a31568 	addiu	v1,s5,5480
    c960:	00021080 	sll	v0,v0,0x2
    c964:	00431021 	addu	v0,v0,v1
    c968:	8c4451e8 	lw	a0,20968(v0)
    c96c:	3c03b025 	lui	v1,0xb025
    c970:	3c02b025 	lui	v0,0xb025
    c974:	346302c4 	ori	v1,v1,0x2c4
    c978:	344202c0 	ori	v0,v0,0x2c0
    c97c:	ac640000 	sw	a0,0(v1)
    c980:	ac400000 	sw	zero,0(v0)
    c984:	080047cb 	j	0x11f2c
    c988:	00000000 	nop
    c98c:	000510c0 	sll	v0,a1,0x3
    c990:	00451021 	addu	v0,v0,a1
    c994:	00021080 	sll	v0,v0,0x2
    c998:	3c048002 	lui	a0,0x8002
    c99c:	00451021 	addu	v0,v0,a1
    c9a0:	248366f4 	addiu	v1,a0,26356
    c9a4:	00021080 	sll	v0,v0,0x2
    c9a8:	00431021 	addu	v0,v0,v1
    c9ac:	8c440000 	lw	a0,0(v0)
    c9b0:	3c03b025 	lui	v1,0xb025
    c9b4:	3c02b025 	lui	v0,0xb025
    c9b8:	346302c4 	ori	v1,v1,0x2c4
    c9bc:	344202c0 	ori	v0,v0,0x2c0
    c9c0:	ac640000 	sw	a0,0(v1)
    c9c4:	ac400000 	sw	zero,0(v0)
    c9c8:	080047cb 	j	0x11f2c
    c9cc:	00000000 	nop
    c9d0:	24020012 	li	v0,18
    c9d4:	a1e242c7 	sb	v0,17095(t7)
    c9d8:	08004e8d 	j	0x13a34
    c9dc:	a1e242c3 	sb	v0,17091(t7)
    c9e0:	0c005bc7 	jal	0x16f1c
    c9e4:	00000000 	nop
    c9e8:	3c02b025 	lui	v0,0xb025
    c9ec:	344202c0 	ori	v0,v0,0x2c0
    c9f0:	ac400000 	sw	zero,0(v0)
    c9f4:	080047cb 	j	0x11f2c
    c9f8:	00000000 	nop
    c9fc:	0c000ca8 	jal	0x32a0
    ca00:	00000000 	nop
    ca04:	3c02b025 	lui	v0,0xb025
    ca08:	344202c0 	ori	v0,v0,0x2c0
    ca0c:	ac400000 	sw	zero,0(v0)
    ca10:	080047cb 	j	0x11f2c
    ca14:	00000000 	nop
    ca18:	00132202 	srl	a0,s3,0x8
    ca1c:	0c005121 	jal	0x14484
    ca20:	308400ff 	andi	a0,a0,0xff
    ca24:	3c02b025 	lui	v0,0xb025
    ca28:	344202c0 	ori	v0,v0,0x2c0
    ca2c:	ac400000 	sw	zero,0(v0)
    ca30:	080047cb 	j	0x11f2c
    ca34:	00000000 	nop
    ca38:	94444b7a 	lhu	a0,19322(v0)
    ca3c:	3c02b025 	lui	v0,0xb025
    ca40:	34a302c4 	ori	v1,a1,0x2c4
    ca44:	344202c0 	ori	v0,v0,0x2c0
    ca48:	ac640000 	sw	a0,0(v1)
    ca4c:	ac400000 	sw	zero,0(v0)
    ca50:	080047cb 	j	0x11f2c
    ca54:	00000000 	nop
    ca58:	17c0fe6f 	bnez	s8,0xc418
    ca5c:	26a21568 	addiu	v0,s5,5480
    ca60:	94444b74 	lhu	a0,19316(v0)
    ca64:	3c02b025 	lui	v0,0xb025
    ca68:	34a302c4 	ori	v1,a1,0x2c4
    ca6c:	344202c0 	ori	v0,v0,0x2c0
    ca70:	ac640000 	sw	a0,0(v1)
    ca74:	ac400000 	sw	zero,0(v0)
    ca78:	080047cb 	j	0x11f2c
    ca7c:	00000000 	nop
    ca80:	26a21568 	addiu	v0,s5,5480
    ca84:	94444b76 	lhu	a0,19318(v0)
    ca88:	3c02b025 	lui	v0,0xb025
    ca8c:	34a302c4 	ori	v1,a1,0x2c4
    ca90:	344202c0 	ori	v0,v0,0x2c0
    ca94:	ac640000 	sw	a0,0(v1)
    ca98:	ac400000 	sw	zero,0(v0)
    ca9c:	080047cb 	j	0x11f2c
    caa0:	00000000 	nop
    caa4:	3c02b025 	lui	v0,0xb025
    caa8:	3c0300ff 	lui	v1,0xff
    caac:	344202c4 	ori	v0,v0,0x2c4
    cab0:	3463ff00 	ori	v1,v1,0xff00
    cab4:	8c450000 	lw	a1,0(v0)
    cab8:	02631824 	and	v1,s3,v1
    cabc:	0003f202 	srl	s8,v1,0x8
    cac0:	0c0053c7 	jal	0x14f1c
    cac4:	03c02021 	move	a0,s8
    cac8:	3c02b025 	lui	v0,0xb025
    cacc:	344202c0 	ori	v0,v0,0x2c0
    cad0:	ac400000 	sw	zero,0(v0)
    cad4:	080047cb 	j	0x11f2c
    cad8:	00000000 	nop
    cadc:	0c0050e6 	jal	0x14398
    cae0:	24040007 	li	a0,7
    cae4:	3c02b025 	lui	v0,0xb025
    cae8:	344202c0 	ori	v0,v0,0x2c0
    caec:	ac400000 	sw	zero,0(v0)
    caf0:	080047cb 	j	0x11f2c
    caf4:	00000000 	nop
    caf8:	17c2f820 	bne	s8,v0,0xab7c
    cafc:	3c02b025 	lui	v0,0xb025
    cb00:	3c068002 	lui	a2,0x8002
    cb04:	90c37e40 	lbu	v1,32320(a2)
    cb08:	344202c4 	ori	v0,v0,0x2c4
    cb0c:	ac430000 	sw	v1,0(v0)
    cb10:	3c02b025 	lui	v0,0xb025
    cb14:	344202c0 	ori	v0,v0,0x2c0
    cb18:	ac400000 	sw	zero,0(v0)
    cb1c:	080047cb 	j	0x11f2c
    cb20:	00000000 	nop
    cb24:	000510c0 	sll	v0,a1,0x3
    cb28:	00451021 	addu	v0,v0,a1
    cb2c:	00021080 	sll	v0,v0,0x2
    cb30:	00451021 	addu	v0,v0,a1
    cb34:	3c068002 	lui	a2,0x8002
    cb38:	24c366f8 	addiu	v1,a2,26360
    cb3c:	00021080 	sll	v0,v0,0x2
    cb40:	00431021 	addu	v0,v0,v1
    cb44:	8c440000 	lw	a0,0(v0)
    cb48:	3c03b025 	lui	v1,0xb025
    cb4c:	3c02b025 	lui	v0,0xb025
    cb50:	346302c4 	ori	v1,v1,0x2c4
    cb54:	344202c0 	ori	v0,v0,0x2c0
    cb58:	ac640000 	sw	a0,0(v1)
    cb5c:	ac400000 	sw	zero,0(v0)
    cb60:	080047cb 	j	0x11f2c
    cb64:	00000000 	nop
    cb68:	32621f00 	andi	v0,s3,0x1f00
    cb6c:	00131c02 	srl	v1,s3,0x10
    cb70:	0002a202 	srl	s4,v0,0x8
    cb74:	26b01568 	addiu	s0,s5,5480
    cb78:	3062003f 	andi	v0,v1,0x3f
    cb7c:	a20242c1 	sb	v0,17089(s0)
    cb80:	a21442bc 	sb	s4,17084(s0)
    cb84:	40016000 	mfc0	at,$12
    cb88:	34210001 	ori	at,at,0x1
    cb8c:	38210001 	xori	at,at,0x1
    cb90:	40816000 	mtc0	at,$12
    cb94:	0c001735 	jal	0x5cd4
    cb98:	00000000 	nop
    cb9c:	0040a021 	move	s4,v0
    cba0:	3c02b025 	lui	v0,0xb025
    cba4:	344202c4 	ori	v0,v0,0x2c4
    cba8:	ac540000 	sw	s4,0(v0)
    cbac:	40016000 	mfc0	at,$12
    cbb0:	34210001 	ori	at,at,0x1
    cbb4:	40816000 	mtc0	at,$12
    cbb8:	92024003 	lbu	v0,16387(s0)
    cbbc:	00000000 	nop
    cbc0:	24420001 	addiu	v0,v0,1
    cbc4:	a2024003 	sb	v0,16387(s0)
    cbc8:	3c02b025 	lui	v0,0xb025
    cbcc:	344202c0 	ori	v0,v0,0x2c0
    cbd0:	ac400000 	sw	zero,0(v0)
    cbd4:	080047cb 	j	0x11f2c
    cbd8:	00000000 	nop
    cbdc:	00132402 	srl	a0,s3,0x10
    cbe0:	0c005401 	jal	0x15004
    cbe4:	308400ff 	andi	a0,a0,0xff
    cbe8:	3c02b025 	lui	v0,0xb025
    cbec:	344202c0 	ori	v0,v0,0x2c0
    cbf0:	ac400000 	sw	zero,0(v0)
    cbf4:	080047cb 	j	0x11f2c
    cbf8:	00000000 	nop
    cbfc:	000510c0 	sll	v0,a1,0x3
    cc00:	00451021 	addu	v0,v0,a1
    cc04:	00021080 	sll	v0,v0,0x2
    cc08:	3c048002 	lui	a0,0x8002
    cc0c:	00451021 	addu	v0,v0,a1
    cc10:	248366fc 	addiu	v1,a0,26364
    cc14:	00021080 	sll	v0,v0,0x2
    cc18:	00431021 	addu	v0,v0,v1
    cc1c:	8c440000 	lw	a0,0(v0)
    cc20:	3c03b025 	lui	v1,0xb025
    cc24:	3c02b025 	lui	v0,0xb025
    cc28:	346302c4 	ori	v1,v1,0x2c4
    cc2c:	344202c0 	ori	v0,v0,0x2c0
    cc30:	ac640000 	sw	a0,0(v1)
    cc34:	ac400000 	sw	zero,0(v0)
    cc38:	080047cb 	j	0x11f2c
    cc3c:	00000000 	nop
    cc40:	0c005812 	jal	0x16048
    cc44:	27a40010 	addiu	a0,sp,16
    cc48:	08004abf 	j	0x12afc
    cc4c:	26a21568 	addiu	v0,s5,5480
    cc50:	0c00541c 	jal	0x15070
    cc54:	adec4010 	sw	t4,16400(t7)
    cc58:	08004aac 	j	0x12ab0
    cc5c:	26a31568 	addiu	v1,s5,5480
    cc60:	08004ab4 	j	0x12ad0
    cc64:	24020012 	li	v0,18
    cc68:	3c048002 	lui	a0,0x8002
    cc6c:	90837e27 	lbu	v1,32295(a0)
    cc70:	3c02b025 	lui	v0,0xb025
    cc74:	344202c4 	ori	v0,v0,0x2c4
    cc78:	ac430000 	sw	v1,0(v0)
    cc7c:	3c02b025 	lui	v0,0xb025
    cc80:	344202c0 	ori	v0,v0,0x2c0
    cc84:	ac400000 	sw	zero,0(v0)
    cc88:	080047cb 	j	0x11f2c
    cc8c:	00000000 	nop
    cc90:	000510c0 	sll	v0,a1,0x3
    cc94:	00451021 	addu	v0,v0,a1
    cc98:	00021080 	sll	v0,v0,0x2
    cc9c:	3c048002 	lui	a0,0x8002
    cca0:	00451021 	addu	v0,v0,a1
    cca4:	24836704 	addiu	v1,a0,26372
    cca8:	00021080 	sll	v0,v0,0x2
    ccac:	00431021 	addu	v0,v0,v1
    ccb0:	8c440000 	lw	a0,0(v0)
    ccb4:	3c03b025 	lui	v1,0xb025
    ccb8:	3c02b025 	lui	v0,0xb025
    ccbc:	346302c4 	ori	v1,v1,0x2c4
    ccc0:	344202c0 	ori	v0,v0,0x2c0
    ccc4:	ac640000 	sw	a0,0(v1)
    ccc8:	ac400000 	sw	zero,0(v0)
    cccc:	080047cb 	j	0x11f2c
    ccd0:	00000000 	nop
    ccd4:	000510c0 	sll	v0,a1,0x3
    ccd8:	00451021 	addu	v0,v0,a1
    ccdc:	00021080 	sll	v0,v0,0x2
    cce0:	00451021 	addu	v0,v0,a1
    cce4:	3c068002 	lui	a2,0x8002
    cce8:	24c36700 	addiu	v1,a2,26368
    ccec:	00021080 	sll	v0,v0,0x2
    ccf0:	00431021 	addu	v0,v0,v1
    ccf4:	8c440000 	lw	a0,0(v0)
    ccf8:	3c03b025 	lui	v1,0xb025
    ccfc:	3c02b025 	lui	v0,0xb025
    cd00:	346302c4 	ori	v1,v1,0x2c4
    cd04:	344202c0 	ori	v0,v0,0x2c0
    cd08:	ac640000 	sw	a0,0(v1)
    cd0c:	ac400000 	sw	zero,0(v0)
    cd10:	080047cb 	j	0x11f2c
    cd14:	00000000 	nop
    cd18:	000510c0 	sll	v0,a1,0x3
    cd1c:	00451021 	addu	v0,v0,a1
    cd20:	00021080 	sll	v0,v0,0x2
    cd24:	3c048002 	lui	a0,0x8002
    cd28:	00451021 	addu	v0,v0,a1
    cd2c:	24836714 	addiu	v1,a0,26388
    cd30:	00021080 	sll	v0,v0,0x2
    cd34:	00431021 	addu	v0,v0,v1
    cd38:	8c440000 	lw	a0,0(v0)
    cd3c:	3c03b025 	lui	v1,0xb025
    cd40:	3c02b025 	lui	v0,0xb025
    cd44:	346302c4 	ori	v1,v1,0x2c4
    cd48:	344202c0 	ori	v0,v0,0x2c0
    cd4c:	ac640000 	sw	a0,0(v1)
    cd50:	ac400000 	sw	zero,0(v0)
    cd54:	080047cb 	j	0x11f2c
    cd58:	00000000 	nop
    cd5c:	000510c0 	sll	v0,a1,0x3
    cd60:	00451021 	addu	v0,v0,a1
    cd64:	00021080 	sll	v0,v0,0x2
    cd68:	00451021 	addu	v0,v0,a1
    cd6c:	3c068002 	lui	a2,0x8002
    cd70:	24c36710 	addiu	v1,a2,26384
    cd74:	00021080 	sll	v0,v0,0x2
    cd78:	00431021 	addu	v0,v0,v1
    cd7c:	8c440000 	lw	a0,0(v0)
    cd80:	3c03b025 	lui	v1,0xb025
    cd84:	3c02b025 	lui	v0,0xb025
    cd88:	346302c4 	ori	v1,v1,0x2c4
    cd8c:	344202c0 	ori	v0,v0,0x2c0
    cd90:	ac640000 	sw	a0,0(v1)
    cd94:	ac400000 	sw	zero,0(v0)
    cd98:	080047cb 	j	0x11f2c
    cd9c:	00000000 	nop
    cda0:	000510c0 	sll	v0,a1,0x3
    cda4:	00451021 	addu	v0,v0,a1
    cda8:	00021080 	sll	v0,v0,0x2
    cdac:	3c048002 	lui	a0,0x8002
    cdb0:	00451021 	addu	v0,v0,a1
    cdb4:	2483670c 	addiu	v1,a0,26380
    cdb8:	00021080 	sll	v0,v0,0x2
    cdbc:	00431021 	addu	v0,v0,v1
    cdc0:	8c440000 	lw	a0,0(v0)
    cdc4:	3c03b025 	lui	v1,0xb025
    cdc8:	3c02b025 	lui	v0,0xb025
    cdcc:	346302c4 	ori	v1,v1,0x2c4
    cdd0:	344202c0 	ori	v0,v0,0x2c0
    cdd4:	ac640000 	sw	a0,0(v1)
    cdd8:	ac400000 	sw	zero,0(v0)
    cddc:	080047cb 	j	0x11f2c
    cde0:	00000000 	nop
    cde4:	000510c0 	sll	v0,a1,0x3
    cde8:	00451021 	addu	v0,v0,a1
    cdec:	00021080 	sll	v0,v0,0x2
    cdf0:	00451021 	addu	v0,v0,a1
    cdf4:	3c068002 	lui	a2,0x8002
    cdf8:	24c36708 	addiu	v1,a2,26376
    cdfc:	00021080 	sll	v0,v0,0x2
    ce00:	00431021 	addu	v0,v0,v1
    ce04:	8c440000 	lw	a0,0(v0)
    ce08:	3c03b025 	lui	v1,0xb025
    ce0c:	3c02b025 	lui	v0,0xb025
    ce10:	346302c4 	ori	v1,v1,0x2c4
    ce14:	344202c0 	ori	v0,v0,0x2c0
    ce18:	ac640000 	sw	a0,0(v1)
    ce1c:	ac400000 	sw	zero,0(v0)
    ce20:	080047cb 	j	0x11f2c
    ce24:	00000000 	nop
    ce28:	0c0052bb 	jal	0x14aec
    ce2c:	24040003 	li	a0,3
    ce30:	3c02b025 	lui	v0,0xb025
    ce34:	344202c0 	ori	v0,v0,0x2c0
    ce38:	ac400000 	sw	zero,0(v0)
    ce3c:	080047cb 	j	0x11f2c
    ce40:	00000000 	nop
    ce44:	0c00422a 	jal	0x108a8
    ce48:	24040001 	li	a0,1
    ce4c:	3c02b025 	lui	v0,0xb025
    ce50:	344202c0 	ori	v0,v0,0x2c0
    ce54:	ac400000 	sw	zero,0(v0)
    ce58:	080047cb 	j	0x11f2c
    ce5c:	00000000 	nop
    ce60:	0c0052bb 	jal	0x14aec
    ce64:	24040002 	li	a0,2
    ce68:	3c02b025 	lui	v0,0xb025
    ce6c:	344202c0 	ori	v0,v0,0x2c0
    ce70:	ac400000 	sw	zero,0(v0)
    ce74:	080047cb 	j	0x11f2c
    ce78:	00000000 	nop
    ce7c:	0c0052bb 	jal	0x14aec
    ce80:	24040001 	li	a0,1
    ce84:	3c02b025 	lui	v0,0xb025
    ce88:	344202c0 	ori	v0,v0,0x2c0
    ce8c:	ac400000 	sw	zero,0(v0)
    ce90:	080047cb 	j	0x11f2c
    ce94:	00000000 	nop
    ce98:	26a21568 	addiu	v0,s5,5480
    ce9c:	001e1900 	sll	v1,s8,0x4
    cea0:	00621821 	addu	v1,v1,v0
    cea4:	9464433a 	lhu	a0,17210(v1)
    cea8:	3c02b025 	lui	v0,0xb025
    ceac:	344202c4 	ori	v0,v0,0x2c4
    ceb0:	ac440000 	sw	a0,0(v0)
    ceb4:	3c02b025 	lui	v0,0xb025
    ceb8:	344202c0 	ori	v0,v0,0x2c0
    cebc:	ac400000 	sw	zero,0(v0)
    cec0:	080047cb 	j	0x11f2c
    cec4:	00000000 	nop
    cec8:	26a21568 	addiu	v0,s5,5480
    cecc:	001e1900 	sll	v1,s8,0x4
    ced0:	00621821 	addu	v1,v1,v0
    ced4:	90644339 	lbu	a0,17209(v1)
    ced8:	3c02b025 	lui	v0,0xb025
    cedc:	344202c4 	ori	v0,v0,0x2c4
    cee0:	ac440000 	sw	a0,0(v0)
    cee4:	3c02b025 	lui	v0,0xb025
    cee8:	344202c0 	ori	v0,v0,0x2c0
    ceec:	ac400000 	sw	zero,0(v0)
    cef0:	080047cb 	j	0x11f2c
    cef4:	00000000 	nop
    cef8:	26a21568 	addiu	v0,s5,5480
    cefc:	001e1900 	sll	v1,s8,0x4
    cf00:	00621821 	addu	v1,v1,v0
    cf04:	90644338 	lbu	a0,17208(v1)
    cf08:	3c02b025 	lui	v0,0xb025
    cf0c:	344202c4 	ori	v0,v0,0x2c4
    cf10:	ac440000 	sw	a0,0(v0)
    cf14:	3c02b025 	lui	v0,0xb025
    cf18:	344202c0 	ori	v0,v0,0x2c0
    cf1c:	ac400000 	sw	zero,0(v0)
    cf20:	080047cb 	j	0x11f2c
    cf24:	00000000 	nop
    cf28:	26a21568 	addiu	v0,s5,5480
    cf2c:	001e1900 	sll	v1,s8,0x4
    cf30:	00621821 	addu	v1,v1,v0
    cf34:	94644336 	lhu	a0,17206(v1)
    cf38:	3c02b025 	lui	v0,0xb025
    cf3c:	344202c4 	ori	v0,v0,0x2c4
    cf40:	ac440000 	sw	a0,0(v0)
    cf44:	3c02b025 	lui	v0,0xb025
    cf48:	344202c0 	ori	v0,v0,0x2c0
    cf4c:	ac400000 	sw	zero,0(v0)
    cf50:	080047cb 	j	0x11f2c
    cf54:	00000000 	nop
    cf58:	26a21568 	addiu	v0,s5,5480
    cf5c:	001e1900 	sll	v1,s8,0x4
    cf60:	00621821 	addu	v1,v1,v0
    cf64:	94644334 	lhu	a0,17204(v1)
    cf68:	3c02b025 	lui	v0,0xb025
    cf6c:	344202c4 	ori	v0,v0,0x2c4
    cf70:	ac440000 	sw	a0,0(v0)
    cf74:	3c02b025 	lui	v0,0xb025
    cf78:	344202c0 	ori	v0,v0,0x2c0
    cf7c:	ac400000 	sw	zero,0(v0)
    cf80:	080047cb 	j	0x11f2c
    cf84:	00000000 	nop
    cf88:	001e1100 	sll	v0,s8,0x4
    cf8c:	26a31568 	addiu	v1,s5,5480
    cf90:	00431021 	addu	v0,v0,v1
    cf94:	8c444330 	lw	a0,17200(v0)
    cf98:	3c02b025 	lui	v0,0xb025
    cf9c:	344202c4 	ori	v0,v0,0x2c4
    cfa0:	00042642 	srl	a0,a0,0x19
    cfa4:	ac440000 	sw	a0,0(v0)
    cfa8:	3c02b025 	lui	v0,0xb025
    cfac:	344202c0 	ori	v0,v0,0x2c0
    cfb0:	ac400000 	sw	zero,0(v0)
    cfb4:	080047cb 	j	0x11f2c
    cfb8:	00000000 	nop
    cfbc:	001e1100 	sll	v0,s8,0x4
    cfc0:	26a31568 	addiu	v1,s5,5480
    cfc4:	00431021 	addu	v0,v0,v1
    cfc8:	90444333 	lbu	a0,17203(v0)
    cfcc:	3c02b025 	lui	v0,0xb025
    cfd0:	344202c4 	ori	v0,v0,0x2c4
    cfd4:	30840001 	andi	a0,a0,0x1
    cfd8:	ac440000 	sw	a0,0(v0)
    cfdc:	3c02b025 	lui	v0,0xb025
    cfe0:	344202c0 	ori	v0,v0,0x2c0
    cfe4:	ac400000 	sw	zero,0(v0)
    cfe8:	080047cb 	j	0x11f2c
    cfec:	00000000 	nop
    cff0:	3c05b025 	lui	a1,0xb025
    cff4:	24060001 	li	a2,1
    cff8:	3c028001 	lui	v0,0x8001
    cffc:	00863004 	sllv	a2,a2,a0
    d000:	34a702f1 	ori	a3,a1,0x2f1
    d004:	34a402ed 	ori	a0,a1,0x2ed
    d008:	24424398 	addiu	v0,v0,17304
    d00c:	34a50318 	ori	a1,a1,0x318
    d010:	24030008 	li	v1,8
    d014:	aca20000 	sw	v0,0(a1)
    d018:	a0e30000 	sb	v1,0(a3)
    d01c:	a0800000 	sb	zero,0(a0)
    d020:	a0860000 	sb	a2,0(a0)
    d024:	a0800000 	sb	zero,0(a0)
    d028:	a0860000 	sb	a2,0(a0)
    d02c:	a0800000 	sb	zero,0(a0)
    d030:	a0860000 	sb	a2,0(a0)
    d034:	a0800000 	sb	zero,0(a0)
    d038:	a0860000 	sb	a2,0(a0)
    d03c:	a0800000 	sb	zero,0(a0)
    d040:	a0e00000 	sb	zero,0(a3)
    d044:	03e00008 	jr	ra
    d048:	00000000 	nop
    d04c:	3084ffff 	andi	a0,a0,0xffff
    d050:	40066000 	mfc0	a2,$12
    d054:	34c10001 	ori	at,a2,0x1
    d058:	38210001 	xori	at,at,0x1
    d05c:	40816000 	mtc0	at,$12
    d060:	3c058002 	lui	a1,0x8002
    d064:	24a51568 	addiu	a1,a1,5480
    d068:	94a363ee 	lhu	v1,25582(a1)
    d06c:	3c02b025 	lui	v0,0xb025
    d070:	3442031e 	ori	v0,v0,0x31e
    d074:	00832025 	or	a0,a0,v1
    d078:	a4440000 	sh	a0,0(v0)
    d07c:	a4a463ee 	sh	a0,25582(a1)
    d080:	40866000 	mtc0	a2,$12
    d084:	03e00008 	jr	ra
    d088:	00000000 	nop
    d08c:	3084ffff 	andi	a0,a0,0xffff
    d090:	40066000 	mfc0	a2,$12
    d094:	34c10001 	ori	at,a2,0x1
    d098:	38210001 	xori	at,at,0x1
    d09c:	40816000 	mtc0	at,$12
    d0a0:	3c058002 	lui	a1,0x8002
    d0a4:	24a51568 	addiu	a1,a1,5480
    d0a8:	94a263ee 	lhu	v0,25582(a1)
    d0ac:	94a3645c 	lhu	v1,25692(a1)
    d0b0:	00042027 	nor	a0,zero,a0
    d0b4:	00831824 	and	v1,a0,v1
    d0b8:	00822024 	and	a0,a0,v0
    d0bc:	3c02b025 	lui	v0,0xb025
    d0c0:	3442031e 	ori	v0,v0,0x31e
    d0c4:	a4a3645c 	sh	v1,25692(a1)
    d0c8:	a4440000 	sh	a0,0(v0)
    d0cc:	a4a463ee 	sh	a0,25582(a1)
    d0d0:	40866000 	mtc0	a2,$12
    d0d4:	03e00008 	jr	ra
    d0d8:	00000000 	nop
    d0dc:	308600ff 	andi	a2,a0,0xff
    d0e0:	14c00004 	bnez	a2,0xd0f4
    d0e4:	3c048002 	lui	a0,0x8002
    d0e8:	24831568 	addiu	v1,a0,5480
    d0ec:	24020001 	li	v0,1
    d0f0:	a0626464 	sb	v0,25700(v1)
    d0f4:	24821568 	addiu	v0,a0,5480
    d0f8:	90446464 	lbu	a0,25700(v0)
    d0fc:	24050014 	li	a1,20
    d100:	3c038002 	lui	v1,0x8002
    d104:	00c42025 	or	a0,a2,a0
    d108:	ac65acf8 	sw	a1,-21256(v1)
    d10c:	a0406478 	sb	zero,25720(v0)
    d110:	a440646a 	sh	zero,25706(v0)
    d114:	a0446464 	sb	a0,25700(v0)
    d118:	ac40646c 	sw	zero,25708(v0)
    d11c:	ac406470 	sw	zero,25712(v0)
    d120:	ac406474 	sw	zero,25716(v0)
    d124:	03e00008 	jr	ra
    d128:	a0406479 	sb	zero,25721(v0)
    d12c:	3c028002 	lui	v0,0x8002
    d130:	3c038002 	lui	v1,0x8002
    d134:	ac40acf8 	sw	zero,-21256(v0)
    d138:	03e00008 	jr	ra
    d13c:	a06079cc 	sb	zero,31180(v1)
    d140:	3c028001 	lui	v0,0x8001
    d144:	3c03b025 	lui	v1,0xb025
    d148:	244244e8 	addiu	v0,v0,17640
    d14c:	34630318 	ori	v1,v1,0x318
    d150:	ac620000 	sw	v0,0(v1)
    d154:	90830000 	lbu	v1,0(a0)
    d158:	24020030 	li	v0,48
    d15c:	10620005 	beq	v1,v0,0xd174
    d160:	00002021 	move	a0,zero
    d164:	24020031 	li	v0,49
    d168:	10620002 	beq	v1,v0,0xd174
    d16c:	24040001 	li	a0,1
    d170:	24040007 	li	a0,7
    d174:	080050e6 	j	0x14398
    d178:	00000000 	nop
    d17c:	3c028001 	lui	v0,0x8001
    d180:	3c03b025 	lui	v1,0xb025
    d184:	24424524 	addiu	v0,v0,17700
    d188:	34630318 	ori	v1,v1,0x318
    d18c:	3c048002 	lui	a0,0x8002
    d190:	ac620000 	sw	v0,0(v1)
    d194:	03e00008 	jr	ra
    d198:	ac807e5c 	sw	zero,32348(a0)
    d19c:	3c028002 	lui	v0,0x8002
    d1a0:	24427b9c 	addiu	v0,v0,31644
    d1a4:	000420c0 	sll	a0,a0,0x3
    d1a8:	00822021 	addu	a0,a0,v0
    d1ac:	00002821 	move	a1,zero
    d1b0:	40066000 	mfc0	a2,$12
    d1b4:	34c10001 	ori	at,a2,0x1
    d1b8:	38210001 	xori	at,at,0x1
    d1bc:	40816000 	mtc0	at,$12
    d1c0:	8c820000 	lw	v0,0(a0)
    d1c4:	00000000 	nop
    d1c8:	10440009 	beq	v0,a0,0xd1f0
    d1cc:	00000000 	nop
    d1d0:	8c430004 	lw	v1,4(v0)
    d1d4:	00402821 	move	a1,v0
    d1d8:	8c420000 	lw	v0,0(v0)
    d1dc:	00000000 	nop
    d1e0:	ac620000 	sw	v0,0(v1)
    d1e4:	ac430004 	sw	v1,4(v0)
    d1e8:	aca50000 	sw	a1,0(a1)
    d1ec:	aca50004 	sw	a1,4(a1)
    d1f0:	40866000 	mtc0	a2,$12
    d1f4:	03e00008 	jr	ra
    d1f8:	00a01021 	move	v0,a1
    d1fc:	00801821 	move	v1,a0
    d200:	27bdffe8 	addiu	sp,sp,-24
    d204:	2c620101 	sltiu	v0,v1,257
    d208:	afbf0010 	sw	ra,16(sp)
    d20c:	24040001 	li	a0,1
    d210:	2c650201 	sltiu	a1,v1,513
    d214:	1440000a 	bnez	v0,0xd240
    d218:	00003021 	move	a2,zero
    d21c:	24040002 	li	a0,2
    d220:	14a00007 	bnez	a1,0xd240
    d224:	2c620801 	sltiu	v0,v1,2049
    d228:	14400005 	bnez	v0,0xd240
    d22c:	24040003 	li	a0,3
    d230:	8fbf0010 	lw	ra,16(sp)
    d234:	00c01021 	move	v0,a2
    d238:	03e00008 	jr	ra
    d23c:	27bd0018 	addiu	sp,sp,24
    d240:	0c005151 	jal	0x14544
    d244:	00000000 	nop
    d248:	8fbf0010 	lw	ra,16(sp)
    d24c:	00403021 	move	a2,v0
    d250:	00c01021 	move	v0,a2
    d254:	03e00008 	jr	ra
    d258:	27bd0018 	addiu	sp,sp,24
    d25c:	3c038002 	lui	v1,0x8002
    d260:	8c627bb4 	lw	v0,31668(v1)
    d264:	03e00008 	jr	ra
    d268:	00000000 	nop
    d26c:	40066000 	mfc0	a2,$12
    d270:	34c10001 	ori	at,a2,0x1
    d274:	38210001 	xori	at,at,0x1
    d278:	40816000 	mtc0	at,$12
    d27c:	8c830010 	lw	v1,16(a0)
    d280:	3c028002 	lui	v0,0x8002
    d284:	24427b9c 	addiu	v0,v0,31644
    d288:	000318c0 	sll	v1,v1,0x3
    d28c:	00621821 	addu	v1,v1,v0
    d290:	8c650000 	lw	a1,0(v1)
    d294:	00000000 	nop
    d298:	ac850000 	sw	a1,0(a0)
    d29c:	aca40004 	sw	a0,4(a1)
    d2a0:	ac640000 	sw	a0,0(v1)
    d2a4:	ac830004 	sw	v1,4(a0)
    d2a8:	40866000 	mtc0	a2,$12
    d2ac:	03e00008 	jr	ra
    d2b0:	00000000 	nop
    d2b4:	ac850000 	sw	a1,0(a0)
    d2b8:	00001021 	move	v0,zero
    d2bc:	24420001 	addiu	v0,v0,1
    d2c0:	304200ff 	andi	v0,v0,0xff
    d2c4:	2c430006 	sltiu	v1,v0,6
    d2c8:	1460fffc 	bnez	v1,0xd2bc
    d2cc:	00000000 	nop
    d2d0:	03e00008 	jr	ra
    d2d4:	00000000 	nop
    d2d8:	00042402 	srl	a0,a0,0x10
    d2dc:	308400ff 	andi	a0,a0,0xff
    d2e0:	000418c0 	sll	v1,a0,0x3
    d2e4:	00641821 	addu	v1,v1,a0
    d2e8:	00031880 	sll	v1,v1,0x2
    d2ec:	00641821 	addu	v1,v1,a0
    d2f0:	3c028002 	lui	v0,0x8002
    d2f4:	24421568 	addiu	v0,v0,5480
    d2f8:	00031880 	sll	v1,v1,0x2
    d2fc:	00621821 	addu	v1,v1,v0
    d300:	8c64518c 	lw	a0,20876(v1)
    d304:	2402f1ff 	li	v0,-3585
    d308:	00822024 	and	a0,a0,v0
    d30c:	03e00008 	jr	ra
    d310:	ac64518c 	sw	a0,20876(v1)
    d314:	00042402 	srl	a0,a0,0x10
    d318:	308400ff 	andi	a0,a0,0xff
    d31c:	000418c0 	sll	v1,a0,0x3
    d320:	00641821 	addu	v1,v1,a0
    d324:	00031880 	sll	v1,v1,0x2
    d328:	00641821 	addu	v1,v1,a0
    d32c:	3c028002 	lui	v0,0x8002
    d330:	24421568 	addiu	v0,v0,5480
    d334:	00031880 	sll	v1,v1,0x2
    d338:	00621821 	addu	v1,v1,v0
    d33c:	8c64518c 	lw	a0,20876(v1)
    d340:	2402f1ff 	li	v0,-3585
    d344:	00822024 	and	a0,a0,v0
    d348:	34840200 	ori	a0,a0,0x200
    d34c:	03e00008 	jr	ra
    d350:	ac64518c 	sw	a0,20876(v1)
    d354:	27bdffe0 	addiu	sp,sp,-32
    d358:	afb00010 	sw	s0,16(sp)
    d35c:	000480c0 	sll	s0,a0,0x3
    d360:	02048021 	addu	s0,s0,a0
    d364:	00108080 	sll	s0,s0,0x2
    d368:	02048021 	addu	s0,s0,a0
    d36c:	3c028002 	lui	v0,0x8002
    d370:	24421568 	addiu	v0,v0,5480
    d374:	00108080 	sll	s0,s0,0x2
    d378:	02028021 	addu	s0,s0,v0
    d37c:	afbf001c 	sw	ra,28(sp)
    d380:	afb20018 	sw	s2,24(sp)
    d384:	afb10014 	sw	s1,20(sp)
    d388:	8e05518c 	lw	a1,20876(s0)
    d38c:	3c021fff 	lui	v0,0x1fff
    d390:	3c12b025 	lui	s2,0xb025
    d394:	3442ffff 	ori	v0,v0,0xffff
    d398:	2403fff8 	li	v1,-8
    d39c:	ae025184 	sw	v0,20868(s0)
    d3a0:	36460184 	ori	a2,s2,0x184
    d3a4:	00a32824 	and	a1,a1,v1
    d3a8:	2402feff 	li	v0,-257
    d3ac:	8cc70000 	lw	a3,0(a2)
    d3b0:	00a22824 	and	a1,a1,v0
    d3b4:	2403efff 	li	v1,-4097
    d3b8:	3c02ffff 	lui	v0,0xffff
    d3bc:	34421fff 	ori	v0,v0,0x1fff
    d3c0:	00a32824 	and	a1,a1,v1
    d3c4:	00a22824 	and	a1,a1,v0
    d3c8:	ae075188 	sw	a3,20872(s0)
    d3cc:	ae05518c 	sw	a1,20876(s0)
    d3d0:	0c0010a2 	jal	0x4288
    d3d4:	00808821 	move	s1,a0
    d3d8:	9202518e 	lbu	v0,20878(s0)
    d3dc:	02328821 	addu	s1,s1,s2
    d3e0:	8fbf001c 	lw	ra,28(sp)
    d3e4:	a2220160 	sb	v0,352(s1)
    d3e8:	8fb20018 	lw	s2,24(sp)
    d3ec:	ae005178 	sw	zero,20856(s0)
    d3f0:	ae00515c 	sw	zero,20828(s0)
    d3f4:	ae005160 	sw	zero,20832(s0)
    d3f8:	ae005164 	sw	zero,20836(s0)
    d3fc:	ae005168 	sw	zero,20840(s0)
    d400:	ae00516c 	sw	zero,20844(s0)
    d404:	ae005170 	sw	zero,20848(s0)
    d408:	ae005174 	sw	zero,20852(s0)
    d40c:	8fb10014 	lw	s1,20(sp)
    d410:	8fb00010 	lw	s0,16(sp)
    d414:	03e00008 	jr	ra
    d418:	27bd0020 	addiu	sp,sp,32
    d41c:	30a500ff 	andi	a1,a1,0xff
    d420:	000510c0 	sll	v0,a1,0x3
    d424:	00451021 	addu	v0,v0,a1
    d428:	00021080 	sll	v0,v0,0x2
    d42c:	00451021 	addu	v0,v0,a1
    d430:	3c038002 	lui	v1,0x8002
    d434:	24631568 	addiu	v1,v1,5480
    d438:	00021080 	sll	v0,v0,0x2
    d43c:	00431021 	addu	v0,v0,v1
    d440:	8c43518c 	lw	v1,20876(v0)
    d444:	3c05b025 	lui	a1,0xb025
    d448:	30c600ff 	andi	a2,a2,0xff
    d44c:	00c53021 	addu	a2,a2,a1
    d450:	90c201af 	lbu	v0,431(a2)
    d454:	30630007 	andi	v1,v1,0x7
    d458:	00031880 	sll	v1,v1,0x2
    d45c:	00651821 	addu	v1,v1,a1
    d460:	308800ff 	andi	t0,a0,0xff
    d464:	304900ff 	andi	t1,v0,0xff
    d468:	8c660184 	lw	a2,388(v1)
    d46c:	00005021 	move	t2,zero
    d470:	00005821 	move	t3,zero
    d474:	1120002b 	beqz	t1,0xd524
    d478:	01002021 	move	a0,t0
    d47c:	10c0002b 	beqz	a2,0xd52c
    d480:	0109102b 	sltu	v0,t0,t1
    d484:	00002821 	move	a1,zero
    d488:	08005212 	j	0x14848
    d48c:	24070001 	li	a3,1
    d490:	306500ff 	andi	a1,v1,0xff
    d494:	2ca2001d 	sltiu	v0,a1,29
    d498:	10400007 	beqz	v0,0xd4b8
    d49c:	2502ffff 	addiu	v0,t0,-1
    d4a0:	00a71004 	sllv	v0,a3,a1
    d4a4:	00461024 	and	v0,v0,a2
    d4a8:	1040fff9 	beqz	v0,0xd490
    d4ac:	24a30001 	addiu	v1,a1,1
    d4b0:	00a05821 	move	t3,a1
    d4b4:	2502ffff 	addiu	v0,t0,-1
    d4b8:	304500ff 	andi	a1,v0,0xff
    d4bc:	00ab182b 	sltu	v1,a1,t3
    d4c0:	1460000f 	bnez	v1,0xd500
    d4c4:	0149102b 	sltu	v0,t2,t1
    d4c8:	24040001 	li	a0,1
    d4cc:	00a41004 	sllv	v0,a0,a1
    d4d0:	00461024 	and	v0,v0,a2
    d4d4:	24a7ffff 	addiu	a3,a1,-1
    d4d8:	10400004 	beqz	v0,0xd4ec
    d4dc:	25430001 	addiu	v1,t2,1
    d4e0:	11490017 	beq	t2,t1,0xd540
    d4e4:	306a00ff 	andi	t2,v1,0xff
    d4e8:	00a04021 	move	t0,a1
    d4ec:	30e500ff 	andi	a1,a3,0xff
    d4f0:	00ab102b 	sltu	v0,a1,t3
    d4f4:	1040fff6 	beqz	v0,0xd4d0
    d4f8:	00a41004 	sllv	v0,a0,a1
    d4fc:	0149102b 	sltu	v0,t2,t1
    d500:	10400008 	beqz	v0,0xd524
    d504:	01002021 	move	a0,t0
    d508:	012a1023 	subu	v0,t1,t2
    d50c:	0162102a 	slt	v0,t3,v0
    d510:	14400004 	bnez	v0,0xd524
    d514:	00002021 	move	a0,zero
    d518:	01691023 	subu	v0,t3,t1
    d51c:	004a1021 	addu	v0,v0,t2
    d520:	304400ff 	andi	a0,v0,0xff
    d524:	03e00008 	jr	ra
    d528:	00801021 	move	v0,a0
    d52c:	1440fffd 	bnez	v0,0xd524
    d530:	00002021 	move	a0,zero
    d534:	01091023 	subu	v0,t0,t1
    d538:	08005233 	j	0x148cc
    d53c:	304400ff 	andi	a0,v0,0xff
    d540:	01002021 	move	a0,t0
    d544:	03e00008 	jr	ra
    d548:	00801021 	move	v0,a0
    d54c:	308400ff 	andi	a0,a0,0xff
    d550:	000410c0 	sll	v0,a0,0x3
    d554:	00441021 	addu	v0,v0,a0
    d558:	00021080 	sll	v0,v0,0x2
    d55c:	00441021 	addu	v0,v0,a0
    d560:	3c038002 	lui	v1,0x8002
    d564:	24631568 	addiu	v1,v1,5480
    d568:	00021080 	sll	v0,v0,0x2
    d56c:	00431021 	addu	v0,v0,v1
    d570:	3c06b025 	lui	a2,0xb025
    d574:	8c43518c 	lw	v1,20876(v0)
    d578:	30a500ff 	andi	a1,a1,0xff
    d57c:	00862021 	addu	a0,a0,a2
    d580:	00a62821 	addu	a1,a1,a2
    d584:	90820160 	lbu	v0,352(a0)
    d588:	90a401af 	lbu	a0,431(a1)
    d58c:	30630007 	andi	v1,v1,0x7
    d590:	00031880 	sll	v1,v1,0x2
    d594:	00661821 	addu	v1,v1,a2
    d598:	304800ff 	andi	t0,v0,0xff
    d59c:	308900ff 	andi	t1,a0,0xff
    d5a0:	8c660184 	lw	a2,388(v1)
    d5a4:	00005021 	move	t2,zero
    d5a8:	00005821 	move	t3,zero
    d5ac:	1120002b 	beqz	t1,0xd65c
    d5b0:	01002021 	move	a0,t0
    d5b4:	10c0002b 	beqz	a2,0xd664
    d5b8:	0109102b 	sltu	v0,t0,t1
    d5bc:	00002821 	move	a1,zero
    d5c0:	08005260 	j	0x14980
    d5c4:	24070001 	li	a3,1
    d5c8:	306500ff 	andi	a1,v1,0xff
    d5cc:	2ca2001d 	sltiu	v0,a1,29
    d5d0:	10400007 	beqz	v0,0xd5f0
    d5d4:	2502ffff 	addiu	v0,t0,-1
    d5d8:	00a71004 	sllv	v0,a3,a1
    d5dc:	00461024 	and	v0,v0,a2
    d5e0:	1040fff9 	beqz	v0,0xd5c8
    d5e4:	24a30001 	addiu	v1,a1,1
    d5e8:	00a05821 	move	t3,a1
    d5ec:	2502ffff 	addiu	v0,t0,-1
    d5f0:	304500ff 	andi	a1,v0,0xff
    d5f4:	00ab182b 	sltu	v1,a1,t3
    d5f8:	1460000f 	bnez	v1,0xd638
    d5fc:	0149102b 	sltu	v0,t2,t1
    d600:	24040001 	li	a0,1
    d604:	00a41004 	sllv	v0,a0,a1
    d608:	00461024 	and	v0,v0,a2
    d60c:	24a7ffff 	addiu	a3,a1,-1
    d610:	10400004 	beqz	v0,0xd624
    d614:	25430001 	addiu	v1,t2,1
    d618:	11490017 	beq	t2,t1,0xd678
    d61c:	306a00ff 	andi	t2,v1,0xff
    d620:	00a04021 	move	t0,a1
    d624:	30e500ff 	andi	a1,a3,0xff
    d628:	00ab102b 	sltu	v0,a1,t3
    d62c:	1040fff6 	beqz	v0,0xd608
    d630:	00a41004 	sllv	v0,a0,a1
    d634:	0149102b 	sltu	v0,t2,t1
    d638:	10400008 	beqz	v0,0xd65c
    d63c:	01002021 	move	a0,t0
    d640:	012a1023 	subu	v0,t1,t2
    d644:	0162102a 	slt	v0,t3,v0
    d648:	14400004 	bnez	v0,0xd65c
    d64c:	00002021 	move	a0,zero
    d650:	01691023 	subu	v0,t3,t1
    d654:	004a1021 	addu	v0,v0,t2
    d658:	304400ff 	andi	a0,v0,0xff
    d65c:	03e00008 	jr	ra
    d660:	00801021 	move	v0,a0
    d664:	1440fffd 	bnez	v0,0xd65c
    d668:	00002021 	move	a0,zero
    d66c:	01091023 	subu	v0,t0,t1
    d670:	08005281 	j	0x14a04
    d674:	304400ff 	andi	a0,v0,0xff
    d678:	01002021 	move	a0,t0
    d67c:	03e00008 	jr	ra
    d680:	00801021 	move	v0,a0
    d684:	27bdffd8 	addiu	sp,sp,-40
    d688:	3c028002 	lui	v0,0x8002
    d68c:	afb20018 	sw	s2,24(sp)
    d690:	3c03ffff 	lui	v1,0xffff
    d694:	24521568 	addiu	s2,v0,5480
    d698:	afb3001c 	sw	s3,28(sp)
    d69c:	afb10014 	sw	s1,20(sp)
    d6a0:	afb00010 	sw	s0,16(sp)
    d6a4:	afbf0020 	sw	ra,32(sp)
    d6a8:	34731fff 	ori	s3,v1,0x1fff
    d6ac:	00008821 	move	s1,zero
    d6b0:	02408021 	move	s0,s2
    d6b4:	0c0051bf 	jal	0x146fc
    d6b8:	02202021 	move	a0,s1
    d6bc:	8e02518c 	lw	v0,20876(s0)
    d6c0:	00002821 	move	a1,zero
    d6c4:	00531024 	and	v0,v0,s3
    d6c8:	34422000 	ori	v0,v0,0x2000
    d6cc:	ae02518c 	sw	v0,20876(s0)
    d6d0:	9203518e 	lbu	v1,20878(s0)
    d6d4:	00000000 	nop
    d6d8:	00031880 	sll	v1,v1,0x2
    d6dc:	00721821 	addu	v1,v1,s2
    d6e0:	8c6444f4 	lw	a0,17652(v1)
    d6e4:	8c624568 	lw	v0,17768(v1)
    d6e8:	00000000 	nop
    d6ec:	00441021 	addu	v0,v0,a0
    d6f0:	00021042 	srl	v0,v0,0x1
    d6f4:	ae025158 	sw	v0,20824(s0)
    d6f8:	02051021 	addu	v0,s0,a1
    d6fc:	24a50001 	addiu	a1,a1,1
    d700:	28a3001d 	slti	v1,a1,29
    d704:	a04051ca 	sb	zero,20938(v0)
    d708:	a0405190 	sb	zero,20880(v0)
    d70c:	1460fffa 	bnez	v1,0xd6f8
    d710:	a04051ad 	sb	zero,20909(v0)
    d714:	26310001 	addiu	s1,s1,1
    d718:	2a220020 	slti	v0,s1,32
    d71c:	ae0051e8 	sw	zero,20968(s0)
    d720:	1440ffe4 	bnez	v0,0xd6b4
    d724:	26100094 	addiu	s0,s0,148
    d728:	8fbf0020 	lw	ra,32(sp)
    d72c:	8fb3001c 	lw	s3,28(sp)
    d730:	8fb20018 	lw	s2,24(sp)
    d734:	8fb10014 	lw	s1,20(sp)
    d738:	8fb00010 	lw	s0,16(sp)
    d73c:	03e00008 	jr	ra
    d740:	27bd0028 	addiu	sp,sp,40
    d744:	27bdffc0 	addiu	sp,sp,-64
    d748:	3c028002 	lui	v0,0x8002
    d74c:	afb5002c 	sw	s5,44(sp)
    d750:	24461568 	addiu	a2,v0,5480
    d754:	afbf003c 	sw	ra,60(sp)
    d758:	afbe0038 	sw	s8,56(sp)
    d75c:	afb70034 	sw	s7,52(sp)
    d760:	afb60030 	sw	s6,48(sp)
    d764:	afb40028 	sw	s4,40(sp)
    d768:	afb30024 	sw	s3,36(sp)
    d76c:	afb20020 	sw	s2,32(sp)
    d770:	afb1001c 	sw	s1,28(sp)
    d774:	afb00018 	sw	s0,24(sp)
    d778:	8cc26620 	lw	v0,26144(a2)
    d77c:	240300ff 	li	v1,255
    d780:	308d00ff 	andi	t5,a0,0xff
    d784:	3842ffff 	xori	v0,v0,0xffff
    d788:	0002180b 	.word	0x2180b
    d78c:	3404ffff 	li	a0,0xffff
    d790:	afa30010 	sw	v1,16(sp)
    d794:	acc46620 	sw	a0,26144(a2)
    d798:	11a000b9 	beqz	t5,0xda80
    d79c:	24150008 	li	s5,8
    d7a0:	3c028002 	lui	v0,0x8002
    d7a4:	2445a6bc 	addiu	a1,v0,-22852
    d7a8:	24c44498 	addiu	a0,a2,17560
    d7ac:	080052dc 	j	0x14b70
    d7b0:	00008821 	move	s1,zero
    d7b4:	26310001 	addiu	s1,s1,1
    d7b8:	a0820000 	sb	v0,0(a0)
    d7bc:	2a22001d 	slti	v0,s1,29
    d7c0:	1040000b 	beqz	v0,0xd7f0
    d7c4:	24840001 	addiu	a0,a0,1
    d7c8:	02251021 	addu	v0,s1,a1
    d7cc:	90420000 	lbu	v0,0(v0)
    d7d0:	00000000 	nop
    d7d4:	1040fff7 	beqz	v0,0xd7b4
    d7d8:	2443fffd 	addiu	v1,v0,-3
    d7dc:	26310001 	addiu	s1,s1,1
    d7e0:	2a22001d 	slti	v0,s1,29
    d7e4:	a0830000 	sb	v1,0(a0)
    d7e8:	1440fff7 	bnez	v0,0xd7c8
    d7ec:	24840001 	addiu	a0,a0,1
    d7f0:	3c028002 	lui	v0,0x8002
    d7f4:	244a1568 	addiu	t2,v0,5480
    d7f8:	3c038002 	lui	v1,0x8002
    d7fc:	3c028002 	lui	v0,0x8002
    d800:	246ca454 	addiu	t4,v1,-23468
    d804:	244ba3dc 	addiu	t3,v0,-23588
    d808:	00008821 	move	s1,zero
    d80c:	00004821 	move	t1,zero
    d810:	00003021 	move	a2,zero
    d814:	012a4021 	addu	t0,t1,t2
    d818:	012c3821 	addu	a3,t1,t4
    d81c:	00e61021 	addu	v0,a3,a2
    d820:	90440091 	lbu	a0,145(v0)
    d824:	90450000 	lbu	a1,0(v0)
    d828:	01061821 	addu	v1,t0,a2
    d82c:	24c60001 	addiu	a2,a2,1
    d830:	28c20005 	slti	v0,a2,5
    d834:	a06443cd 	sb	a0,17357(v1)
    d838:	1440fff8 	bnez	v0,0xd81c
    d83c:	a065433c 	sb	a1,17212(v1)
    d840:	022b1021 	addu	v0,s1,t3
    d844:	9044001d 	lbu	a0,29(v0)
    d848:	90450000 	lbu	a1,0(v0)
    d84c:	022a1821 	addu	v1,s1,t2
    d850:	26310001 	addiu	s1,s1,1
    d854:	2a22001d 	slti	v0,s1,29
    d858:	a064447b 	sb	a0,17531(v1)
    d85c:	a065445e 	sb	a1,17502(v1)
    d860:	1440ffeb 	bnez	v0,0xd810
    d864:	25290005 	addiu	t1,t1,5
    d868:	11a000af 	beqz	t5,0xdb28
    d86c:	3c028002 	lui	v0,0x8002
    d870:	24481568 	addiu	t0,v0,5480
    d874:	3c038002 	lui	v1,0x8002
    d878:	3c028002 	lui	v0,0x8002
    d87c:	2469a750 	addiu	t1,v1,-22704
    d880:	2447a6dc 	addiu	a3,v0,-22820
    d884:	00008821 	move	s1,zero
    d888:	00111880 	sll	v1,s1,0x2
    d88c:	00691021 	addu	v0,v1,t1
    d890:	00672021 	addu	a0,v1,a3
    d894:	8c460000 	lw	a2,0(v0)
    d898:	8c850000 	lw	a1,0(a0)
    d89c:	26310001 	addiu	s1,s1,1
    d8a0:	00681821 	addu	v1,v1,t0
    d8a4:	2a220004 	slti	v0,s1,4
    d8a8:	ac6544f4 	sw	a1,17652(v1)
    d8ac:	1440fff6 	bnez	v0,0xd888
    d8b0:	ac664568 	sw	a2,17768(v1)
    d8b4:	3c028002 	lui	v0,0x8002
    d8b8:	24491568 	addiu	t1,v0,5480
    d8bc:	3c038002 	lui	v1,0x8002
    d8c0:	3c028002 	lui	v0,0x8002
    d8c4:	2468a750 	addiu	t0,v1,-22704
    d8c8:	2447a6dc 	addiu	a3,v0,-22820
    d8cc:	24110004 	li	s1,4
    d8d0:	00112080 	sll	a0,s1,0x2
    d8d4:	00881021 	addu	v0,a0,t0
    d8d8:	00873021 	addu	a2,a0,a3
    d8dc:	8c450000 	lw	a1,0(v0)
    d8e0:	8cc30000 	lw	v1,0(a2)
    d8e4:	26310001 	addiu	s1,s1,1
    d8e8:	00892021 	addu	a0,a0,t1
    d8ec:	00052882 	srl	a1,a1,0x2
    d8f0:	00031882 	srl	v1,v1,0x2
    d8f4:	2a22001d 	slti	v0,s1,29
    d8f8:	ac8344f4 	sw	v1,17652(a0)
    d8fc:	1440fff4 	bnez	v0,0xd8d0
    d900:	ac854568 	sw	a1,17768(a0)
    d904:	3c028002 	lui	v0,0x8002
    d908:	24561568 	addiu	s6,v0,5480
    d90c:	3c02ffff 	lui	v0,0xffff
    d910:	02c0f021 	move	s8,s6
    d914:	34571fff 	ori	s7,v0,0x1fff
    d918:	00008821 	move	s1,zero
    d91c:	0000a021 	move	s4,zero
    d920:	08005339 	j	0x14ce4
    d924:	02c09021 	move	s2,s6
    d928:	26310001 	addiu	s1,s1,1
    d92c:	2a220020 	slti	v0,s1,32
    d930:	26520094 	addiu	s2,s2,148
    d934:	1040003d 	beqz	v0,0xda2c
    d938:	26940094 	addiu	s4,s4,148
    d93c:	8e44518c 	lw	a0,20876(s2)
    d940:	24030001 	li	v1,1
    d944:	00041302 	srl	v0,a0,0xc
    d948:	30530001 	andi	s3,v0,0x1
    d94c:	1663fff6 	bne	s3,v1,0xd928
    d950:	30820007 	andi	v0,a0,0x7
    d954:	3c03b025 	lui	v1,0xb025
    d958:	00021080 	sll	v0,v0,0x2
    d95c:	00431021 	addu	v0,v0,v1
    d960:	8c450184 	lw	a1,388(v0)
    d964:	8e435184 	lw	v1,20868(s2)
    d968:	02202021 	move	a0,s1
    d96c:	00a32824 	and	a1,a1,v1
    d970:	0c0010a2 	jal	0x4288
    d974:	ae455188 	sw	a1,20872(s2)
    d978:	9244518e 	lbu	a0,20878(s2)
    d97c:	0c001021 	jal	0x4084
    d980:	322500ff 	andi	a1,s1,0xff
    d984:	8e42518c 	lw	v0,20876(s2)
    d988:	00000000 	nop
    d98c:	00571024 	and	v0,v0,s7
    d990:	34422000 	ori	v0,v0,0x2000
    d994:	ae42518c 	sw	v0,20876(s2)
    d998:	9250518e 	lbu	s0,20878(s2)
    d99c:	00000000 	nop
    d9a0:	02002021 	move	a0,s0
    d9a4:	0c001037 	jal	0x40dc
    d9a8:	00108080 	sll	s0,s0,0x2
    d9ac:	02168021 	addu	s0,s0,s6
    d9b0:	ae40515c 	sw	zero,20828(s2)
    d9b4:	ae405160 	sw	zero,20832(s2)
    d9b8:	ae405164 	sw	zero,20836(s2)
    d9bc:	ae405168 	sw	zero,20840(s2)
    d9c0:	ae40516c 	sw	zero,20844(s2)
    d9c4:	ae405170 	sw	zero,20848(s2)
    d9c8:	ae405174 	sw	zero,20852(s2)
    d9cc:	ae405178 	sw	zero,20856(s2)
    d9d0:	8e0444f4 	lw	a0,17652(s0)
    d9d4:	8e034568 	lw	v1,17768(s0)
    d9d8:	00531026 	xor	v0,v0,s3
    d9dc:	00003021 	move	a2,zero
    d9e0:	00641821 	addu	v1,v1,a0
    d9e4:	00031842 	srl	v1,v1,0x1
    d9e8:	24040004 	li	a0,4
    d9ec:	0082a80a 	.word	0x82a80a
    d9f0:	ae435158 	sw	v1,20824(s2)
    d9f4:	029e2021 	addu	a0,s4,s8
    d9f8:	00861021 	addu	v0,a0,a2
    d9fc:	24c60001 	addiu	a2,a2,1
    da00:	28c3001d 	slti	v1,a2,29
    da04:	a04051ca 	sb	zero,20938(v0)
    da08:	a0405190 	sb	zero,20880(v0)
    da0c:	1460fffa 	bnez	v1,0xd9f8
    da10:	a04051ad 	sb	zero,20909(v0)
    da14:	26310001 	addiu	s1,s1,1
    da18:	2a220020 	slti	v0,s1,32
    da1c:	ac8051e8 	sw	zero,20968(a0)
    da20:	26520094 	addiu	s2,s2,148
    da24:	1440ffc5 	bnez	v0,0xd93c
    da28:	26940094 	addiu	s4,s4,148
    da2c:	3c02b025 	lui	v0,0xb025
    da30:	34420180 	ori	v0,v0,0x180
    da34:	a0550000 	sb	s5,0(v0)
    da38:	8fa30010 	lw	v1,16(sp)
    da3c:	00000000 	nop
    da40:	14600003 	bnez	v1,0xda50
    da44:	3c038002 	lui	v1,0x8002
    da48:	24621568 	addiu	v0,v1,5480
    da4c:	ac406620 	sw	zero,26144(v0)
    da50:	8fbf003c 	lw	ra,60(sp)
    da54:	8fbe0038 	lw	s8,56(sp)
    da58:	8fb70034 	lw	s7,52(sp)
    da5c:	8fb60030 	lw	s6,48(sp)
    da60:	8fb5002c 	lw	s5,44(sp)
    da64:	8fb40028 	lw	s4,40(sp)
    da68:	8fb30024 	lw	s3,36(sp)
    da6c:	8fb20020 	lw	s2,32(sp)
    da70:	8fb1001c 	lw	s1,28(sp)
    da74:	8fb00018 	lw	s0,24(sp)
    da78:	03e00008 	jr	ra
    da7c:	27bd0040 	addiu	sp,sp,64
    da80:	3c028002 	lui	v0,0x8002
    da84:	2445a6bc 	addiu	a1,v0,-22852
    da88:	24c44498 	addiu	a0,a2,17560
    da8c:	00008821 	move	s1,zero
    da90:	02251021 	addu	v0,s1,a1
    da94:	90430000 	lbu	v1,0(v0)
    da98:	26310001 	addiu	s1,s1,1
    da9c:	2a22001d 	slti	v0,s1,29
    daa0:	a0830000 	sb	v1,0(a0)
    daa4:	1440fffa 	bnez	v0,0xda90
    daa8:	24840001 	addiu	a0,a0,1
    daac:	3c028002 	lui	v0,0x8002
    dab0:	244a1568 	addiu	t2,v0,5480
    dab4:	3c038002 	lui	v1,0x8002
    dab8:	3c028002 	lui	v0,0x8002
    dabc:	246ca578 	addiu	t4,v1,-23176
    dac0:	244ba418 	addiu	t3,v0,-23528
    dac4:	00008821 	move	s1,zero
    dac8:	00004821 	move	t1,zero
    dacc:	00003021 	move	a2,zero
    dad0:	012a4021 	addu	t0,t1,t2
    dad4:	012c3821 	addu	a3,t1,t4
    dad8:	00e61021 	addu	v0,a3,a2
    dadc:	90440091 	lbu	a0,145(v0)
    dae0:	90450000 	lbu	a1,0(v0)
    dae4:	01061821 	addu	v1,t0,a2
    dae8:	24c60001 	addiu	a2,a2,1
    daec:	28c20005 	slti	v0,a2,5
    daf0:	a06443cd 	sb	a0,17357(v1)
    daf4:	1440fff8 	bnez	v0,0xdad8
    daf8:	a065433c 	sb	a1,17212(v1)
    dafc:	022b1021 	addu	v0,s1,t3
    db00:	9044001d 	lbu	a0,29(v0)
    db04:	90450000 	lbu	a1,0(v0)
    db08:	022a1821 	addu	v1,s1,t2
    db0c:	26310001 	addiu	s1,s1,1
    db10:	2a22001d 	slti	v0,s1,29
    db14:	a064447b 	sb	a0,17531(v1)
    db18:	a065445e 	sb	a1,17502(v1)
    db1c:	1440ffeb 	bnez	v0,0xdacc
    db20:	25290005 	addiu	t1,t1,5
    db24:	3c028002 	lui	v0,0x8002
    db28:	24491568 	addiu	t1,v0,5480
    db2c:	3c038002 	lui	v1,0x8002
    db30:	3c028002 	lui	v0,0x8002
    db34:	2468a750 	addiu	t0,v1,-22704
    db38:	2447a6dc 	addiu	a3,v0,-22820
    db3c:	00008821 	move	s1,zero
    db40:	00111880 	sll	v1,s1,0x2
    db44:	00681021 	addu	v0,v1,t0
    db48:	00672021 	addu	a0,v1,a3
    db4c:	8c460000 	lw	a2,0(v0)
    db50:	8c850000 	lw	a1,0(a0)
    db54:	26310001 	addiu	s1,s1,1
    db58:	00691821 	addu	v1,v1,t1
    db5c:	2a22001d 	slti	v0,s1,29
    db60:	ac6544f4 	sw	a1,17652(v1)
    db64:	1440fff6 	bnez	v0,0xdb40
    db68:	ac664568 	sw	a2,17768(v1)
    db6c:	0800532c 	j	0x14cb0
    db70:	3c028002 	lui	v0,0x8002
    db74:	27bdffd8 	addiu	sp,sp,-40
    db78:	3084ffff 	andi	a0,a0,0xffff
    db7c:	afb20018 	sw	s2,24(sp)
    db80:	309201f0 	andi	s2,a0,0x1f0
    db84:	00129102 	srl	s2,s2,0x4
    db88:	afb10014 	sw	s1,20(sp)
    db8c:	001288c0 	sll	s1,s2,0x3
    db90:	02328821 	addu	s1,s1,s2
    db94:	00118880 	sll	s1,s1,0x2
    db98:	02328821 	addu	s1,s1,s2
    db9c:	3c028002 	lui	v0,0x8002
    dba0:	24421568 	addiu	v0,v0,5480
    dba4:	00118880 	sll	s1,s1,0x2
    dba8:	02228821 	addu	s1,s1,v0
    dbac:	afbf0020 	sw	ra,32(sp)
    dbb0:	afb3001c 	sw	s3,28(sp)
    dbb4:	afb00010 	sw	s0,16(sp)
    dbb8:	8e30518c 	lw	s0,20876(s1)
    dbbc:	30830200 	andi	v1,a0,0x200
    dbc0:	2402feff 	li	v0,-257
    dbc4:	0003182b 	sltu	v1,zero,v1
    dbc8:	36101000 	ori	s0,s0,0x1000
    dbcc:	02028024 	and	s0,s0,v0
    dbd0:	00031a00 	sll	v1,v1,0x8
    dbd4:	30820400 	andi	v0,a0,0x400
    dbd8:	02038025 	or	s0,s0,v1
    dbdc:	0002102b 	sltu	v0,zero,v0
    dbe0:	2403fff7 	li	v1,-9
    dbe4:	02038024 	and	s0,s0,v1
    dbe8:	000210c0 	sll	v0,v0,0x3
    dbec:	02028025 	or	s0,s0,v0
    dbf0:	ae255184 	sw	a1,20868(s1)
    dbf4:	ae30518c 	sw	s0,20876(s1)
    dbf8:	0c001174 	jal	0x45d0
    dbfc:	00a09821 	move	s3,a1
    dc00:	2403fff8 	li	v1,-8
    dc04:	02038024 	and	s0,s0,v1
    dc08:	30420007 	andi	v0,v0,0x7
    dc0c:	02028025 	or	s0,s0,v0
    dc10:	32030007 	andi	v1,s0,0x7
    dc14:	3c02b025 	lui	v0,0xb025
    dc18:	00031880 	sll	v1,v1,0x2
    dc1c:	ae30518c 	sw	s0,20876(s1)
    dc20:	00621821 	addu	v1,v1,v0
    dc24:	8c620184 	lw	v0,388(v1)
    dc28:	02402021 	move	a0,s2
    dc2c:	00531024 	and	v0,v0,s3
    dc30:	0c0010a2 	jal	0x4288
    dc34:	ae225188 	sw	v0,20872(s1)
    dc38:	9224518e 	lbu	a0,20878(s1)
    dc3c:	02402821 	move	a1,s2
    dc40:	8fbf0020 	lw	ra,32(sp)
    dc44:	8fb3001c 	lw	s3,28(sp)
    dc48:	8fb20018 	lw	s2,24(sp)
    dc4c:	8fb10014 	lw	s1,20(sp)
    dc50:	8fb00010 	lw	s0,16(sp)
    dc54:	08001021 	j	0x4084
    dc58:	27bd0028 	addiu	sp,sp,40
    dc5c:	080051bf 	j	0x146fc
    dc60:	308400ff 	andi	a0,a0,0xff
    dc64:	3c028002 	lui	v0,0x8002
    dc68:	24431568 	addiu	v1,v0,5480
    dc6c:	2404001f 	li	a0,31
    dc70:	8c62518c 	lw	v0,20876(v1)
    dc74:	2484ffff 	addiu	a0,a0,-1
    dc78:	34421000 	ori	v0,v0,0x1000
    dc7c:	ac62518c 	sw	v0,20876(v1)
    dc80:	0481fffb 	bgez	a0,0xdc70
    dc84:	24630094 	addiu	v1,v1,148
    dc88:	03e00008 	jr	ra
    dc8c:	00000000 	nop
    dc90:	ac850000 	sw	a1,0(a0)
    dc94:	00001021 	move	v0,zero
    dc98:	24420001 	addiu	v0,v0,1
    dc9c:	304200ff 	andi	v0,v0,0xff
    dca0:	2c430006 	sltiu	v1,v0,6
    dca4:	1460fffc 	bnez	v1,0xdc98
    dca8:	00000000 	nop
    dcac:	03e00008 	jr	ra
    dcb0:	00000000 	nop
    dcb4:	00a41023 	subu	v0,a1,a0
    dcb8:	00a4182b 	sltu	v1,a1,a0
    dcbc:	00852023 	subu	a0,a0,a1
    dcc0:	03e00008 	jr	ra
    dcc4:	0083100b 	.word	0x83100b
    dcc8:	27bdff20 	addiu	sp,sp,-224
    dccc:	afb500cc 	sw	s5,204(sp)
    dcd0:	afbf00dc 	sw	ra,220(sp)
    dcd4:	afbe00d8 	sw	s8,216(sp)
    dcd8:	afb700d4 	sw	s7,212(sp)
    dcdc:	afb600d0 	sw	s6,208(sp)
    dce0:	afb400c8 	sw	s4,200(sp)
    dce4:	afb300c4 	sw	s3,196(sp)
    dce8:	afb200c0 	sw	s2,192(sp)
    dcec:	afb100bc 	sw	s1,188(sp)
    dcf0:	afb000b8 	sw	s0,184(sp)
    dcf4:	0000a821 	move	s5,zero
    dcf8:	00151140 	sll	v0,s5,0x5
    dcfc:	27a30010 	addiu	v1,sp,16
    dd00:	00431021 	addu	v0,v0,v1
    dd04:	24160007 	li	s6,7
    dd08:	26d6ffff 	addiu	s6,s6,-1
    dd0c:	ac400000 	sw	zero,0(v0)
    dd10:	06c1fffd 	bgez	s6,0xdd08
    dd14:	24420004 	addiu	v0,v0,4
    dd18:	26b50001 	addiu	s5,s5,1
    dd1c:	2ea20003 	sltiu	v0,s5,3
    dd20:	1440fff6 	bnez	v0,0xdcfc
    dd24:	00151140 	sll	v0,s5,0x5
    dd28:	3c10b025 	lui	s0,0xb025
    dd2c:	360202c4 	ori	v0,s0,0x2c4
    dd30:	ac400000 	sw	zero,0(v0)
    dd34:	36030004 	ori	v1,s0,0x4
    dd38:	8c620000 	lw	v0,0(v1)
    dd3c:	36030c04 	ori	v1,s0,0xc04
    dd40:	8c630000 	lw	v1,0(v1)
    dd44:	36040c08 	ori	a0,s0,0xc08
    dd48:	3c11000f 	lui	s1,0xf
    dd4c:	afa300ac 	sw	v1,172(sp)
    dd50:	8c840000 	lw	a0,0(a0)
    dd54:	00511024 	and	v0,v0,s1
    dd58:	0002f402 	srl	s8,v0,0x10
    dd5c:	afa400b0 	sw	a0,176(sp)
    dd60:	40016000 	mfc0	at,$12
    dd64:	34210001 	ori	at,at,0x1
    dd68:	38210001 	xori	at,at,0x1
    dd6c:	40816000 	mtc0	at,$12
    dd70:	00002021 	move	a0,zero
    dd74:	0c004495 	jal	0x11254
    dd78:	3625ffff 	ori	a1,s1,0xffff
    dd7c:	afa20070 	sw	v0,112(sp)
    dd80:	40016000 	mfc0	at,$12
    dd84:	34210001 	ori	at,at,0x1
    dd88:	40816000 	mtc0	at,$12
    dd8c:	0c000c54 	jal	0x3150
    dd90:	24040064 	li	a0,100
    dd94:	0c00422a 	jal	0x108a8
    dd98:	24040001 	li	a0,1
    dd9c:	40016000 	mfc0	at,$12
    dda0:	34210001 	ori	at,at,0x1
    dda4:	38210001 	xori	at,at,0x1
    dda8:	40816000 	mtc0	at,$12
    ddac:	00002021 	move	a0,zero
    ddb0:	0c004495 	jal	0x11254
    ddb4:	3625ffff 	ori	a1,s1,0xffff
    ddb8:	afa20074 	sw	v0,116(sp)
    ddbc:	40016000 	mfc0	at,$12
    ddc0:	34210001 	ori	at,at,0x1
    ddc4:	40816000 	mtc0	at,$12
    ddc8:	0c000c54 	jal	0x3150
    ddcc:	24040064 	li	a0,100
    ddd0:	0c00422a 	jal	0x108a8
    ddd4:	00002021 	move	a0,zero
    ddd8:	36020ee0 	ori	v0,s0,0xee0
    dddc:	00402021 	move	a0,v0
    dde0:	8c420000 	lw	v0,0(v0)
    dde4:	36120edc 	ori	s2,s0,0xedc
    dde8:	36130e70 	ori	s3,s0,0xe70
    ddec:	afa20078 	sw	v0,120(sp)
    ddf0:	8e420000 	lw	v0,0(s2)
    ddf4:	36140e74 	ori	s4,s0,0xe74
    ddf8:	36150e78 	ori	s5,s0,0xe78
    ddfc:	afa2007c 	sw	v0,124(sp)
    de00:	8e630000 	lw	v1,0(s3)
    de04:	36160e7c 	ori	s6,s0,0xe7c
    de08:	36170e80 	ori	s7,s0,0xe80
    de0c:	afa30080 	sw	v1,128(sp)
    de10:	8e820000 	lw	v0,0(s4)
    de14:	36100ed4 	ori	s0,s0,0xed4
    de18:	3c113fed 	lui	s1,0x3fed
    de1c:	afa20084 	sw	v0,132(sp)
    de20:	8ea30000 	lw	v1,0(s5)
    de24:	362592fb 	ori	a1,s1,0x92fb
    de28:	afa30088 	sw	v1,136(sp)
    de2c:	8ec20000 	lw	v0,0(s6)
    de30:	00000000 	nop
    de34:	afa2008c 	sw	v0,140(sp)
    de38:	8ee30000 	lw	v1,0(s7)
    de3c:	3c02b025 	lui	v0,0xb025
    de40:	34420e84 	ori	v0,v0,0xe84
    de44:	afa30090 	sw	v1,144(sp)
    de48:	8c420000 	lw	v0,0(v0)
    de4c:	3c03b025 	lui	v1,0xb025
    de50:	34630e88 	ori	v1,v1,0xe88
    de54:	afa20094 	sw	v0,148(sp)
    de58:	8c630000 	lw	v1,0(v1)
    de5c:	3c02b025 	lui	v0,0xb025
    de60:	34420e8c 	ori	v0,v0,0xe8c
    de64:	afa30098 	sw	v1,152(sp)
    de68:	8c420000 	lw	v0,0(v0)
    de6c:	3c03b025 	lui	v1,0xb025
    de70:	34630ed0 	ori	v1,v1,0xed0
    de74:	afa2009c 	sw	v0,156(sp)
    de78:	8c630000 	lw	v1,0(v1)
    de7c:	00000000 	nop
    de80:	afa300a0 	sw	v1,160(sp)
    de84:	8e020000 	lw	v0,0(s0)
    de88:	3c03b025 	lui	v1,0xb025
    de8c:	34630ed8 	ori	v1,v1,0xed8
    de90:	afa200a4 	sw	v0,164(sp)
    de94:	8c630000 	lw	v1,0(v1)
    de98:	0c00540e 	jal	0x15038
    de9c:	afa300a8 	sw	v1,168(sp)
    dea0:	02402021 	move	a0,s2
    dea4:	0c00540e 	jal	0x15038
    dea8:	362592fb 	ori	a1,s1,0x92fb
    deac:	02602021 	move	a0,s3
    deb0:	0c00540e 	jal	0x15038
    deb4:	362592fb 	ori	a1,s1,0x92fb
    deb8:	02802021 	move	a0,s4
    debc:	0c00540e 	jal	0x15038
    dec0:	362592fb 	ori	a1,s1,0x92fb
    dec4:	02a02021 	move	a0,s5
    dec8:	0c00540e 	jal	0x15038
    decc:	362592fb 	ori	a1,s1,0x92fb
    ded0:	02c02021 	move	a0,s6
    ded4:	0c00540e 	jal	0x15038
    ded8:	362592fb 	ori	a1,s1,0x92fb
    dedc:	02e02021 	move	a0,s7
    dee0:	0c00540e 	jal	0x15038
    dee4:	362592fb 	ori	a1,s1,0x92fb
    dee8:	3c028002 	lui	v0,0x8002
    deec:	2442a844 	addiu	v0,v0,-22460
    def0:	8c440000 	lw	a0,0(v0)
    def4:	362592fb 	ori	a1,s1,0x92fb
    def8:	0c00540e 	jal	0x15038
    defc:	3c13b025 	lui	s3,0xb025
    df00:	3c038002 	lui	v1,0x8002
    df04:	2463a848 	addiu	v1,v1,-22456
    df08:	8c640000 	lw	a0,0(v1)
    df0c:	362592fb 	ori	a1,s1,0x92fb
    df10:	0c00540e 	jal	0x15038
    df14:	0000b021 	move	s6,zero
    df18:	3c028002 	lui	v0,0x8002
    df1c:	2442a84c 	addiu	v0,v0,-22452
    df20:	8c440000 	lw	a0,0(v0)
    df24:	362592fb 	ori	a1,s1,0x92fb
    df28:	0c00540e 	jal	0x15038
    df2c:	3c1403ff 	lui	s4,0x3ff
    df30:	3c038002 	lui	v1,0x8002
    df34:	2463a850 	addiu	v1,v1,-22448
    df38:	8c640000 	lw	a0,0(v1)
    df3c:	362592fb 	ori	a1,s1,0x92fb
    df40:	0c00540e 	jal	0x15038
    df44:	27b70010 	addiu	s7,sp,16
    df48:	02002021 	move	a0,s0
    df4c:	0c00540e 	jal	0x15038
    df50:	362592fb 	ori	a1,s1,0x92fb
    df54:	3c028002 	lui	v0,0x8002
    df58:	2442a854 	addiu	v0,v0,-22444
    df5c:	8c440000 	lw	a0,0(v0)
    df60:	0c00540e 	jal	0x15038
    df64:	362592fb 	ori	a1,s1,0x92fb
    df68:	080054fa 	j	0x153e8
    df6c:	0000a821 	move	s5,zero
    df70:	13c2006e 	beq	s8,v0,0xe12c
    df74:	3c028002 	lui	v0,0x8002
    df78:	36620eac 	ori	v0,s3,0xeac
    df7c:	36630e94 	ori	v1,s3,0xe94
    df80:	8c480000 	lw	t0,0(v0)
    df84:	8c640000 	lw	a0,0(v1)
    df88:	36620eb4 	ori	v0,s3,0xeb4
    df8c:	36630e9c 	ori	v1,s3,0xe9c
    df90:	8c450000 	lw	a1,0(v0)
    df94:	8c660000 	lw	a2,0(v1)
    df98:	3c03b025 	lui	v1,0xb025
    df9c:	34630ebc 	ori	v1,v1,0xebc
    dfa0:	8c670000 	lw	a3,0(v1)
    dfa4:	00942024 	and	a0,a0,s4
    dfa8:	3c02d800 	lui	v0,0xd800
    dfac:	01021024 	and	v0,t0,v0
    dfb0:	00b42824 	and	a1,a1,s4
    dfb4:	00d43024 	and	a2,a2,s4
    dfb8:	00f43824 	and	a3,a3,s4
    dfbc:	00042402 	srl	a0,a0,0x10
    dfc0:	24030120 	li	v1,288
    dfc4:	2c420001 	sltiu	v0,v0,1
    dfc8:	00052c02 	srl	a1,a1,0x10
    dfcc:	00063402 	srl	a2,a2,0x10
    dfd0:	108300e8 	beq	a0,v1,0xe374
    dfd4:	00073c02 	srl	a3,a3,0x10
    dfd8:	10a300e6 	beq	a1,v1,0xe374
    dfdc:	24030020 	li	v1,32
    dfe0:	10c300e4 	beq	a2,v1,0xe374
    dfe4:	00000000 	nop
    dfe8:	10e300e2 	beq	a3,v1,0xe374
    dfec:	24080001 	li	t0,1
    dff0:	24030080 	li	v1,128
    dff4:	10830008 	beq	a0,v1,0xe018
    dff8:	00002021 	move	a0,zero
    dffc:	10a30006 	beq	a1,v1,0xe018
    e000:	00002021 	move	a0,zero
    e004:	240303e0 	li	v1,992
    e008:	10c30003 	beq	a2,v1,0xe018
    e00c:	00000000 	nop
    e010:	10e300db 	beq	a3,v1,0xe380
    e014:	24040001 	li	a0,1
    e018:	10400005 	beqz	v0,0xe030
    e01c:	00000000 	nop
    e020:	11000003 	beqz	t0,0xe030
    e024:	00000000 	nop
    e028:	148000d7 	bnez	a0,0xe388
    e02c:	36630e94 	ori	v1,s3,0xe94
    e030:	26b50001 	addiu	s5,s5,1
    e034:	2ea2000a 	sltiu	v0,s5,10
    e038:	10400101 	beqz	v0,0xe440
    e03c:	00000000 	nop
    e040:	17c0ffcb 	bnez	s8,0xdf70
    e044:	24020001 	li	v0,1
    e048:	3c0300a0 	lui	v1,0xa0
    e04c:	34655430 	ori	a1,v1,0x5430
    e050:	0c00540e 	jal	0x15038
    e054:	36640c04 	ori	a0,s3,0xc04
    e058:	3c050008 	lui	a1,0x8
    e05c:	34a500e4 	ori	a1,a1,0xe4
    e060:	0c00540e 	jal	0x15038
    e064:	36640c08 	ori	a0,s3,0xc08
    e068:	36640e28 	ori	a0,s3,0xe28
    e06c:	0c00540e 	jal	0x15038
    e070:	3c058080 	lui	a1,0x8080
    e074:	3c020214 	lui	v0,0x214
    e078:	34450148 	ori	a1,v0,0x148
    e07c:	0c00540e 	jal	0x15038
    e080:	36640e40 	ori	a0,s3,0xe40
    e084:	3c056816 	lui	a1,0x6816
    e088:	34a504a2 	ori	a1,a1,0x4a2
    e08c:	0c00540e 	jal	0x15038
    e090:	36640e44 	ori	a0,s3,0xe44
    e094:	36640e4c 	ori	a0,s3,0xe4c
    e098:	0c00540e 	jal	0x15038
    e09c:	240528d1 	li	a1,10449
    e0a0:	3c030214 	lui	v1,0x214
    e0a4:	3465014d 	ori	a1,v1,0x14d
    e0a8:	0c00540e 	jal	0x15038
    e0ac:	36640e60 	ori	a0,s3,0xe60
    e0b0:	3c052816 	lui	a1,0x2816
    e0b4:	34a508ba 	ori	a1,a1,0x8ba
    e0b8:	0c00540e 	jal	0x15038
    e0bc:	36640e64 	ori	a0,s3,0xe64
    e0c0:	36640e6c 	ori	a0,s3,0xe6c
    e0c4:	0c00540e 	jal	0x15038
    e0c8:	240528d1 	li	a1,10449
    e0cc:	3c05fb00 	lui	a1,0xfb00
    e0d0:	34a50001 	ori	a1,a1,0x1
    e0d4:	0c00540e 	jal	0x15038
    e0d8:	36640e48 	ori	a0,s3,0xe48
    e0dc:	3c05f800 	lui	a1,0xf800
    e0e0:	34a50001 	ori	a1,a1,0x1
    e0e4:	0c00540e 	jal	0x15038
    e0e8:	36640e48 	ori	a0,s3,0xe48
    e0ec:	0c000c25 	jal	0x3094
    e0f0:	24040003 	li	a0,3
    e0f4:	3c0200a0 	lui	v0,0xa0
    e0f8:	34455433 	ori	a1,v0,0x5433
    e0fc:	0c00540e 	jal	0x15038
    e100:	36640c04 	ori	a0,s3,0xc04
    e104:	36640c08 	ori	a0,s3,0xc08
    e108:	0c00540e 	jal	0x15038
    e10c:	240500e4 	li	a1,228
    e110:	36640e28 	ori	a0,s3,0xe28
    e114:	0c00540e 	jal	0x15038
    e118:	00002821 	move	a1,zero
    e11c:	24020001 	li	v0,1
    e120:	17c2ff96 	bne	s8,v0,0xdf7c
    e124:	36620eac 	ori	v0,s3,0xeac
    e128:	3c028002 	lui	v0,0x8002
    e12c:	2442a858 	addiu	v0,v0,-22440
    e130:	3c03b025 	lui	v1,0xb025
    e134:	8c440000 	lw	a0,0(v0)
    e138:	34630820 	ori	v1,v1,0x820
    e13c:	8c710000 	lw	s1,0(v1)
    e140:	3c030100 	lui	v1,0x100
    e144:	34650100 	ori	a1,v1,0x100
    e148:	0c00540e 	jal	0x15038
    e14c:	3c12b025 	lui	s2,0xb025
    e150:	3c020100 	lui	v0,0x100
    e154:	34450100 	ori	a1,v0,0x100
    e158:	0c00540e 	jal	0x15038
    e15c:	36440828 	ori	a0,s2,0x828
    e160:	3c0300a0 	lui	v1,0xa0
    e164:	34655430 	ori	a1,v1,0x5430
    e168:	0c00540e 	jal	0x15038
    e16c:	36440c04 	ori	a0,s2,0xc04
    e170:	3c050008 	lui	a1,0x8
    e174:	34a500e4 	ori	a1,a1,0xe4
    e178:	0c00540e 	jal	0x15038
    e17c:	36440c08 	ori	a0,s2,0xc08
    e180:	36440e28 	ori	a0,s2,0xe28
    e184:	0c00540e 	jal	0x15038
    e188:	3c058080 	lui	a1,0x8080
    e18c:	3c020100 	lui	v0,0x100
    e190:	34457c00 	ori	a1,v0,0x7c00
    e194:	0c00540e 	jal	0x15038
    e198:	36440e30 	ori	a0,s2,0xe30
    e19c:	3c030100 	lui	v1,0x100
    e1a0:	34654800 	ori	a1,v1,0x4800
    e1a4:	0c00540e 	jal	0x15038
    e1a8:	36440e34 	ori	a0,s2,0xe34
    e1ac:	3c021000 	lui	v0,0x1000
    e1b0:	3445dc1f 	ori	a1,v0,0xdc1f
    e1b4:	0c00540e 	jal	0x15038
    e1b8:	36440e38 	ori	a0,s2,0xe38
    e1bc:	3c031000 	lui	v1,0x1000
    e1c0:	34658c1f 	ori	a1,v1,0x8c1f
    e1c4:	0c00540e 	jal	0x15038
    e1c8:	36440e3c 	ori	a0,s2,0xe3c
    e1cc:	3c020214 	lui	v0,0x214
    e1d0:	34450102 	ori	a1,v0,0x102
    e1d4:	0c00540e 	jal	0x15038
    e1d8:	36440e40 	ori	a0,s2,0xe40
    e1dc:	3c056816 	lui	a1,0x6816
    e1e0:	34a504c7 	ori	a1,a1,0x4c7
    e1e4:	0c00540e 	jal	0x15038
    e1e8:	36440e44 	ori	a0,s2,0xe44
    e1ec:	36440e4c 	ori	a0,s2,0xe4c
    e1f0:	0c00540e 	jal	0x15038
    e1f4:	240528d1 	li	a1,10449
    e1f8:	36440e6c 	ori	a0,s2,0xe6c
    e1fc:	0c00540e 	jal	0x15038
    e200:	240528d1 	li	a1,10449
    e204:	3c030100 	lui	v1,0x100
    e208:	34657c00 	ori	a1,v1,0x7c00
    e20c:	0c00540e 	jal	0x15038
    e210:	36440e50 	ori	a0,s2,0xe50
    e214:	3c020100 	lui	v0,0x100
    e218:	34454800 	ori	a1,v0,0x4800
    e21c:	0c00540e 	jal	0x15038
    e220:	36440e54 	ori	a0,s2,0xe54
    e224:	3c031000 	lui	v1,0x1000
    e228:	3465dc23 	ori	a1,v1,0xdc23
    e22c:	0c00540e 	jal	0x15038
    e230:	36440e58 	ori	a0,s2,0xe58
    e234:	3c021000 	lui	v0,0x1000
    e238:	34458c23 	ori	a1,v0,0x8c23
    e23c:	0c00540e 	jal	0x15038
    e240:	36440e5c 	ori	a0,s2,0xe5c
    e244:	3c030214 	lui	v1,0x214
    e248:	34650102 	ori	a1,v1,0x102
    e24c:	0c00540e 	jal	0x15038
    e250:	36440e60 	ori	a0,s2,0xe60
    e254:	3c052816 	lui	a1,0x2816
    e258:	34a50d07 	ori	a1,a1,0xd07
    e25c:	0c00540e 	jal	0x15038
    e260:	36440e64 	ori	a0,s2,0xe64
    e264:	36440e48 	ori	a0,s2,0xe48
    e268:	0c00540e 	jal	0x15038
    e26c:	3c05fb00 	lui	a1,0xfb00
    e270:	3c05f800 	lui	a1,0xf800
    e274:	0c00540e 	jal	0x15038
    e278:	36440e48 	ori	a0,s2,0xe48
    e27c:	3c100200 	lui	s0,0x200
    e280:	0c000c25 	jal	0x3094
    e284:	24040003 	li	a0,3
    e288:	36440e4c 	ori	a0,s2,0xe4c
    e28c:	0c00540e 	jal	0x15038
    e290:	360528d1 	ori	a1,s0,0x28d1
    e294:	360528d1 	ori	a1,s0,0x28d1
    e298:	0c00540e 	jal	0x15038
    e29c:	36440e6c 	ori	a0,s2,0xe6c
    e2a0:	36440e48 	ori	a0,s2,0xe48
    e2a4:	0c00540e 	jal	0x15038
    e2a8:	3c05fb00 	lui	a1,0xfb00
    e2ac:	3c05f800 	lui	a1,0xf800
    e2b0:	0c00540e 	jal	0x15038
    e2b4:	36440e48 	ori	a0,s2,0xe48
    e2b8:	0c000c25 	jal	0x3094
    e2bc:	24040003 	li	a0,3
    e2c0:	8fa500ac 	lw	a1,172(sp)
    e2c4:	36440c04 	ori	a0,s2,0xc04
    e2c8:	0c00540e 	jal	0x15038
    e2cc:	32310100 	andi	s1,s1,0x100
    e2d0:	8fa500b0 	lw	a1,176(sp)
    e2d4:	36440c08 	ori	a0,s2,0xc08
    e2d8:	0c00540e 	jal	0x15038
    e2dc:	0011882b 	sltu	s1,zero,s1
    e2e0:	36440e28 	ori	a0,s2,0xe28
    e2e4:	0c00540e 	jal	0x15038
    e2e8:	00002821 	move	a1,zero
    e2ec:	1620ff23 	bnez	s1,0xdf7c
    e2f0:	36620eac 	ori	v0,s3,0xeac
    e2f4:	3c028002 	lui	v0,0x8002
    e2f8:	2442a858 	addiu	v0,v0,-22440
    e2fc:	8c440000 	lw	a0,0(v0)
    e300:	0c00540e 	jal	0x15038
    e304:	3c050100 	lui	a1,0x100
    e308:	36440828 	ori	a0,s2,0x828
    e30c:	0c00540e 	jal	0x15038
    e310:	3c050100 	lui	a1,0x100
    e314:	36620eac 	ori	v0,s3,0xeac
    e318:	36630e94 	ori	v1,s3,0xe94
    e31c:	8c480000 	lw	t0,0(v0)
    e320:	8c640000 	lw	a0,0(v1)
    e324:	36620eb4 	ori	v0,s3,0xeb4
    e328:	36630e9c 	ori	v1,s3,0xe9c
    e32c:	8c450000 	lw	a1,0(v0)
    e330:	8c660000 	lw	a2,0(v1)
    e334:	3c03b025 	lui	v1,0xb025
    e338:	34630ebc 	ori	v1,v1,0xebc
    e33c:	8c670000 	lw	a3,0(v1)
    e340:	00942024 	and	a0,a0,s4
    e344:	3c02d800 	lui	v0,0xd800
    e348:	01021024 	and	v0,t0,v0
    e34c:	00b42824 	and	a1,a1,s4
    e350:	00d43024 	and	a2,a2,s4
    e354:	00f43824 	and	a3,a3,s4
    e358:	00042402 	srl	a0,a0,0x10
    e35c:	24030120 	li	v1,288
    e360:	2c420001 	sltiu	v0,v0,1
    e364:	00052c02 	srl	a1,a1,0x10
    e368:	00063402 	srl	a2,a2,0x10
    e36c:	1483ff1a 	bne	a0,v1,0xdfd8
    e370:	00073c02 	srl	a3,a3,0x10
    e374:	24030080 	li	v1,128
    e378:	1483ff20 	bne	a0,v1,0xdffc
    e37c:	00004021 	move	t0,zero
    e380:	080054f0 	j	0x153c0
    e384:	00002021 	move	a0,zero
    e388:	8c620000 	lw	v0,0(v1)
    e38c:	36650e9c 	ori	a1,s3,0xe9c
    e390:	36660ea4 	ori	a2,s3,0xea4
    e394:	00541024 	and	v0,v0,s4
    e398:	00021402 	srl	v0,v0,0x10
    e39c:	aee20000 	sw	v0,0(s7)
    e3a0:	8ca40000 	lw	a0,0(a1)
    e3a4:	36670eac 	ori	a3,s3,0xeac
    e3a8:	36650eb4 	ori	a1,s3,0xeb4
    e3ac:	00942024 	and	a0,a0,s4
    e3b0:	00042402 	srl	a0,a0,0x10
    e3b4:	aee40004 	sw	a0,4(s7)
    e3b8:	8cc30000 	lw	v1,0(a2)
    e3bc:	36640ec4 	ori	a0,s3,0xec4
    e3c0:	00741824 	and	v1,v1,s4
    e3c4:	00031c02 	srl	v1,v1,0x10
    e3c8:	aee30008 	sw	v1,8(s7)
    e3cc:	8ce20000 	lw	v0,0(a3)
    e3d0:	00000000 	nop
    e3d4:	00541024 	and	v0,v0,s4
    e3d8:	00021402 	srl	v0,v0,0x10
    e3dc:	aee2000c 	sw	v0,12(s7)
    e3e0:	8ca30000 	lw	v1,0(a1)
    e3e4:	00000000 	nop
    e3e8:	00741824 	and	v1,v1,s4
    e3ec:	00031c02 	srl	v1,v1,0x10
    e3f0:	aee30010 	sw	v1,16(s7)
    e3f4:	3c03b025 	lui	v1,0xb025
    e3f8:	34630ebc 	ori	v1,v1,0xebc
    e3fc:	8c620000 	lw	v0,0(v1)
    e400:	00000000 	nop
    e404:	00541024 	and	v0,v0,s4
    e408:	00021402 	srl	v0,v0,0x10
    e40c:	aee20014 	sw	v0,20(s7)
    e410:	8c830000 	lw	v1,0(a0)
    e414:	00000000 	nop
    e418:	00741824 	and	v1,v1,s4
    e41c:	00031c02 	srl	v1,v1,0x10
    e420:	aee30018 	sw	v1,24(s7)
    e424:	3c03b025 	lui	v1,0xb025
    e428:	34630ecc 	ori	v1,v1,0xecc
    e42c:	8c620000 	lw	v0,0(v1)
    e430:	00000000 	nop
    e434:	00541024 	and	v0,v0,s4
    e438:	00021402 	srl	v0,v0,0x10
    e43c:	aee2001c 	sw	v0,28(s7)
    e440:	26d60001 	addiu	s6,s6,1
    e444:	2ec20003 	sltiu	v0,s6,3
    e448:	1440fec7 	bnez	v0,0xdf68
    e44c:	26f70020 	addiu	s7,s7,32
    e450:	8fb00010 	lw	s0,16(sp)
    e454:	00000000 	nop
    e458:	16000149 	bnez	s0,0xe980
    e45c:	00000000 	nop
    e460:	8fb10030 	lw	s1,48(sp)
    e464:	00000000 	nop
    e468:	16200006 	bnez	s1,0xe484
    e46c:	02002021 	move	a0,s0
    e470:	8fa20050 	lw	v0,80(sp)
    e474:	00000000 	nop
    e478:	10400029 	beqz	v0,0xe520
    e47c:	240500ff 	li	a1,255
    e480:	02002021 	move	a0,s0
    e484:	0c005417 	jal	0x1505c
    e488:	02202821 	move	a1,s1
    e48c:	2c420003 	sltiu	v0,v0,3
    e490:	10400008 	beqz	v0,0xe4b4
    e494:	00000000 	nop
    e498:	8fa50034 	lw	a1,52(sp)
    e49c:	8fa40014 	lw	a0,20(sp)
    e4a0:	0c005417 	jal	0x1505c
    e4a4:	00000000 	nop
    e4a8:	2c420003 	sltiu	v0,v0,3
    e4ac:	1440001c 	bnez	v0,0xe520
    e4b0:	00002821 	move	a1,zero
    e4b4:	8fb20050 	lw	s2,80(sp)
    e4b8:	02002021 	move	a0,s0
    e4bc:	0c005417 	jal	0x1505c
    e4c0:	02402821 	move	a1,s2
    e4c4:	2c420003 	sltiu	v0,v0,3
    e4c8:	10400009 	beqz	v0,0xe4f0
    e4cc:	02202021 	move	a0,s1
    e4d0:	8fa50054 	lw	a1,84(sp)
    e4d4:	8fa40014 	lw	a0,20(sp)
    e4d8:	0c005417 	jal	0x1505c
    e4dc:	00000000 	nop
    e4e0:	2c420003 	sltiu	v0,v0,3
    e4e4:	1440000e 	bnez	v0,0xe520
    e4e8:	00002821 	move	a1,zero
    e4ec:	02202021 	move	a0,s1
    e4f0:	0c005417 	jal	0x1505c
    e4f4:	02402821 	move	a1,s2
    e4f8:	2c420003 	sltiu	v0,v0,3
    e4fc:	104000e0 	beqz	v0,0xe880
    e500:	00000000 	nop
    e504:	8fa50054 	lw	a1,84(sp)
    e508:	8fa40034 	lw	a0,52(sp)
    e50c:	0c005417 	jal	0x1505c
    e510:	00000000 	nop
    e514:	2c420003 	sltiu	v0,v0,3
    e518:	104000d9 	beqz	v0,0xe880
    e51c:	24050001 	li	a1,1
    e520:	240200ff 	li	v0,255
    e524:	10a200db 	beq	a1,v0,0xe894
    e528:	3c03b025 	lui	v1,0xb025
    e52c:	27a20010 	addiu	v0,sp,16
    e530:	00052940 	sll	a1,a1,0x5
    e534:	3c0f8002 	lui	t7,0x8002
    e538:	00a22821 	addu	a1,a1,v0
    e53c:	25ec1568 	addiu	t4,t7,5480
    e540:	8ca60000 	lw	a2,0(a1)
    e544:	8ca7000c 	lw	a3,12(a1)
    e548:	8d83400c 	lw	v1,16396(t4)
    e54c:	8d844010 	lw	a0,16400(t4)
    e550:	8ca80004 	lw	t0,4(a1)
    e554:	8ca90010 	lw	t1,16(a1)
    e558:	2402fc00 	li	v0,-1024
    e55c:	8caa0008 	lw	t2,8(a1)
    e560:	8cab0014 	lw	t3,20(a1)
    e564:	00822024 	and	a0,a0,v0
    e568:	30c603ff 	andi	a2,a2,0x3ff
    e56c:	00621824 	and	v1,v1,v0
    e570:	30e703ff 	andi	a3,a3,0x3ff
    e574:	3c02fff0 	lui	v0,0xfff0
    e578:	344203ff 	ori	v0,v0,0x3ff
    e57c:	00661825 	or	v1,v1,a2
    e580:	00872025 	or	a0,a0,a3
    e584:	310803ff 	andi	t0,t0,0x3ff
    e588:	312903ff 	andi	t1,t1,0x3ff
    e58c:	00822024 	and	a0,a0,v0
    e590:	00621824 	and	v1,v1,v0
    e594:	00084280 	sll	t0,t0,0xa
    e598:	00094a80 	sll	t1,t1,0xa
    e59c:	3c02c00f 	lui	v0,0xc00f
    e5a0:	8ca6001c 	lw	a2,28(a1)
    e5a4:	8ca70018 	lw	a3,24(a1)
    e5a8:	3442ffff 	ori	v0,v0,0xffff
    e5ac:	00681825 	or	v1,v1,t0
    e5b0:	00892025 	or	a0,a0,t1
    e5b4:	314a03ff 	andi	t2,t2,0x3ff
    e5b8:	316b03ff 	andi	t3,t3,0x3ff
    e5bc:	00822024 	and	a0,a0,v0
    e5c0:	000a5500 	sll	t2,t2,0x14
    e5c4:	00621824 	and	v1,v1,v0
    e5c8:	000b5d00 	sll	t3,t3,0x14
    e5cc:	006a1825 	or	v1,v1,t2
    e5d0:	008b2025 	or	a0,a0,t3
    e5d4:	a5864016 	sh	a2,16406(t4)
    e5d8:	ad83400c 	sw	v1,16396(t4)
    e5dc:	ad844010 	sw	a0,16400(t4)
    e5e0:	a5874014 	sh	a3,16404(t4)
    e5e4:	25f11568 	addiu	s1,t7,5480
    e5e8:	8e224010 	lw	v0,16400(s1)
    e5ec:	24030001 	li	v1,1
    e5f0:	00021782 	srl	v0,v0,0x1e
    e5f4:	1043004d 	beq	v0,v1,0xe72c
    e5f8:	3c12b025 	lui	s2,0xb025
    e5fc:	8e23400c 	lw	v1,16396(s1)
    e600:	36440c80 	ori	a0,s2,0xc80
    e604:	8c880000 	lw	t0,0(a0)
    e608:	30620200 	andi	v0,v1,0x200
    e60c:	3c13ffc0 	lui	s3,0xffc0
    e610:	00086d82 	srl	t5,t0,0x16
    e614:	10400003 	beqz	v0,0xe624
    e618:	306503ff 	andi	a1,v1,0x3ff
    e61c:	2402fc00 	li	v0,-1024
    e620:	00a22825 	or	a1,a1,v0
    e624:	00ad0018 	mult	a1,t5
    e628:	00036282 	srl	t4,v1,0xa
    e62c:	318c03ff 	andi	t4,t4,0x3ff
    e630:	31830200 	andi	v1,t4,0x200
    e634:	00001012 	mflo	v0
    e638:	00021202 	srl	v0,v0,0x8
    e63c:	10600003 	beqz	v1,0xe64c
    e640:	304603ff 	andi	a2,v0,0x3ff
    e644:	2402fc00 	li	v0,-1024
    e648:	01826025 	or	t4,t4,v0
    e64c:	018d0018 	mult	t4,t5
    e650:	3674fc00 	ori	s4,s3,0xfc00
    e654:	01142824 	and	a1,t0,s4
    e658:	00008012 	mflo	s0
    e65c:	00108202 	srl	s0,s0,0x8
    e660:	3202003f 	andi	v0,s0,0x3f
    e664:	00021400 	sll	v0,v0,0x10
    e668:	00a22825 	or	a1,a1,v0
    e66c:	0c00540e 	jal	0x15038
    e670:	00a62825 	or	a1,a1,a2
    e674:	36440c94 	ori	a0,s2,0xc94
    e678:	8c850000 	lw	a1,0(a0)
    e67c:	3c020fff 	lui	v0,0xfff
    e680:	3455ffff 	ori	s5,v0,0xffff
    e684:	321003c0 	andi	s0,s0,0x3c0
    e688:	00b52824 	and	a1,a1,s5
    e68c:	00108580 	sll	s0,s0,0x16
    e690:	0c00540e 	jal	0x15038
    e694:	00b02825 	or	a1,a1,s0
    e698:	8e2c4010 	lw	t4,16400(s1)
    e69c:	36440c88 	ori	a0,s2,0xc88
    e6a0:	8c880000 	lw	t0,0(a0)
    e6a4:	000c2a82 	srl	a1,t4,0xa
    e6a8:	30a503ff 	andi	a1,a1,0x3ff
    e6ac:	01131024 	and	v0,t0,s3
    e6b0:	30a30200 	andi	v1,a1,0x200
    e6b4:	10600003 	beqz	v1,0xe6c4
    e6b8:	00026d82 	srl	t5,v0,0x16
    e6bc:	2402fc00 	li	v0,-1024
    e6c0:	00a22825 	or	a1,a1,v0
    e6c4:	00ad0018 	mult	a1,t5
    e6c8:	000c6502 	srl	t4,t4,0x14
    e6cc:	318c03ff 	andi	t4,t4,0x3ff
    e6d0:	31830200 	andi	v1,t4,0x200
    e6d4:	00001012 	mflo	v0
    e6d8:	00021202 	srl	v0,v0,0x8
    e6dc:	10600003 	beqz	v1,0xe6ec
    e6e0:	304603ff 	andi	a2,v0,0x3ff
    e6e4:	2402fc00 	li	v0,-1024
    e6e8:	01826025 	or	t4,t4,v0
    e6ec:	018d0018 	mult	t4,t5
    e6f0:	01142824 	and	a1,t0,s4
    e6f4:	00008012 	mflo	s0
    e6f8:	00108202 	srl	s0,s0,0x8
    e6fc:	3202003f 	andi	v0,s0,0x3f
    e700:	00021400 	sll	v0,v0,0x10
    e704:	00a22825 	or	a1,a1,v0
    e708:	0c00540e 	jal	0x15038
    e70c:	00a62825 	or	a1,a1,a2
    e710:	36440c9c 	ori	a0,s2,0xc9c
    e714:	8c850000 	lw	a1,0(a0)
    e718:	321003c0 	andi	s0,s0,0x3c0
    e71c:	00108580 	sll	s0,s0,0x16
    e720:	00b52824 	and	a1,a1,s5
    e724:	0c00540e 	jal	0x15038
    e728:	00b02825 	or	a1,a1,s0
    e72c:	8fa50078 	lw	a1,120(sp)
    e730:	3c10b025 	lui	s0,0xb025
    e734:	0c00540e 	jal	0x15038
    e738:	36040ee0 	ori	a0,s0,0xee0
    e73c:	8fa5007c 	lw	a1,124(sp)
    e740:	0c00540e 	jal	0x15038
    e744:	36040edc 	ori	a0,s0,0xedc
    e748:	8fa50080 	lw	a1,128(sp)
    e74c:	0c00540e 	jal	0x15038
    e750:	36040e70 	ori	a0,s0,0xe70
    e754:	8fa50084 	lw	a1,132(sp)
    e758:	0c00540e 	jal	0x15038
    e75c:	36040e74 	ori	a0,s0,0xe74
    e760:	8fa50088 	lw	a1,136(sp)
    e764:	0c00540e 	jal	0x15038
    e768:	36040e78 	ori	a0,s0,0xe78
    e76c:	8fa5008c 	lw	a1,140(sp)
    e770:	0c00540e 	jal	0x15038
    e774:	36040e7c 	ori	a0,s0,0xe7c
    e778:	8fa50090 	lw	a1,144(sp)
    e77c:	0c00540e 	jal	0x15038
    e780:	36040e80 	ori	a0,s0,0xe80
    e784:	8fa50094 	lw	a1,148(sp)
    e788:	0c00540e 	jal	0x15038
    e78c:	36040e84 	ori	a0,s0,0xe84
    e790:	8fa50098 	lw	a1,152(sp)
    e794:	0c00540e 	jal	0x15038
    e798:	36040e88 	ori	a0,s0,0xe88
    e79c:	8fa5009c 	lw	a1,156(sp)
    e7a0:	0c00540e 	jal	0x15038
    e7a4:	36040e8c 	ori	a0,s0,0xe8c
    e7a8:	8fa500a0 	lw	a1,160(sp)
    e7ac:	0c00540e 	jal	0x15038
    e7b0:	36040ed0 	ori	a0,s0,0xed0
    e7b4:	8fa500a4 	lw	a1,164(sp)
    e7b8:	0c00540e 	jal	0x15038
    e7bc:	36040ed4 	ori	a0,s0,0xed4
    e7c0:	8fa500a8 	lw	a1,168(sp)
    e7c4:	36040e88 	ori	a0,s0,0xe88
    e7c8:	0c00540e 	jal	0x15038
    e7cc:	3c10000f 	lui	s0,0xf
    e7d0:	8fa60070 	lw	a2,112(sp)
    e7d4:	3605ffff 	ori	a1,s0,0xffff
    e7d8:	0c00446a 	jal	0x111a8
    e7dc:	00002021 	move	a0,zero
    e7e0:	0c000c54 	jal	0x3150
    e7e4:	24040064 	li	a0,100
    e7e8:	0c00422a 	jal	0x108a8
    e7ec:	24040001 	li	a0,1
    e7f0:	8fa60074 	lw	a2,116(sp)
    e7f4:	3605ffff 	ori	a1,s0,0xffff
    e7f8:	0c00446a 	jal	0x111a8
    e7fc:	00002021 	move	a0,zero
    e800:	0c000c54 	jal	0x3150
    e804:	24040064 	li	a0,100
    e808:	0c00422a 	jal	0x108a8
    e80c:	00002021 	move	a0,zero
    e810:	3605ffff 	ori	a1,s0,0xffff
    e814:	0c004495 	jal	0x11254
    e818:	2404001e 	li	a0,30
    e81c:	00408821 	move	s1,v0
    e820:	2406fffd 	li	a2,-3
    e824:	34420001 	ori	v0,v0,0x1
    e828:	00463024 	and	a2,v0,a2
    e82c:	3605ffff 	ori	a1,s0,0xffff
    e830:	0c00446a 	jal	0x111a8
    e834:	2404001e 	li	a0,30
    e838:	0c000c25 	jal	0x3094
    e83c:	24040003 	li	a0,3
    e840:	3605ffff 	ori	a1,s0,0xffff
    e844:	36260003 	ori	a2,s1,0x3
    e848:	0c00446a 	jal	0x111a8
    e84c:	2404001e 	li	a0,30
    e850:	8fbf00dc 	lw	ra,220(sp)
    e854:	8fbe00d8 	lw	s8,216(sp)
    e858:	8fb700d4 	lw	s7,212(sp)
    e85c:	8fb600d0 	lw	s6,208(sp)
    e860:	8fb500cc 	lw	s5,204(sp)
    e864:	8fb400c8 	lw	s4,200(sp)
    e868:	8fb300c4 	lw	s3,196(sp)
    e86c:	8fb200c0 	lw	s2,192(sp)
    e870:	8fb100bc 	lw	s1,188(sp)
    e874:	8fb000b8 	lw	s0,184(sp)
    e878:	03e00008 	jr	ra
    e87c:	27bd00e0 	addiu	sp,sp,224
    e880:	240500ff 	li	a1,255
    e884:	240200ff 	li	v0,255
    e888:	14a2ff29 	bne	a1,v0,0xe530
    e88c:	27a20010 	addiu	v0,sp,16
    e890:	3c03b025 	lui	v1,0xb025
    e894:	34620e94 	ori	v0,v1,0xe94
    e898:	34640e9c 	ori	a0,v1,0xe9c
    e89c:	34650ea4 	ori	a1,v1,0xea4
    e8a0:	34660eac 	ori	a2,v1,0xeac
    e8a4:	3c0f8002 	lui	t7,0x8002
    e8a8:	8c490000 	lw	t1,0(v0)
    e8ac:	25ed1568 	addiu	t5,t7,5480
    e8b0:	8c8c0000 	lw	t4,0(a0)
    e8b4:	8cae0000 	lw	t6,0(a1)
    e8b8:	8cc70000 	lw	a3,0(a2)
    e8bc:	34620eb4 	ori	v0,v1,0xeb4
    e8c0:	8da4400c 	lw	a0,16396(t5)
    e8c4:	8da54010 	lw	a1,16400(t5)
    e8c8:	8c4a0000 	lw	t2,0(v0)
    e8cc:	3c0603ff 	lui	a2,0x3ff
    e8d0:	2408fc00 	li	t0,-1024
    e8d4:	34620ebc 	ori	v0,v1,0xebc
    e8d8:	01264824 	and	t1,t1,a2
    e8dc:	00e63824 	and	a3,a3,a2
    e8e0:	8c4b0000 	lw	t3,0(v0)
    e8e4:	00a82824 	and	a1,a1,t0
    e8e8:	00882024 	and	a0,a0,t0
    e8ec:	00073c02 	srl	a3,a3,0x10
    e8f0:	34680ecc 	ori	t0,v1,0xecc
    e8f4:	00094c02 	srl	t1,t1,0x10
    e8f8:	34630ec4 	ori	v1,v1,0xec4
    e8fc:	3c02fff0 	lui	v0,0xfff0
    e900:	344203ff 	ori	v0,v0,0x3ff
    e904:	00a72825 	or	a1,a1,a3
    e908:	00892025 	or	a0,a0,t1
    e90c:	8c670000 	lw	a3,0(v1)
    e910:	01866024 	and	t4,t4,a2
    e914:	8d030000 	lw	v1,0(t0)
    e918:	01465024 	and	t2,t2,a2
    e91c:	00a22824 	and	a1,a1,v0
    e920:	00822024 	and	a0,a0,v0
    e924:	000c6182 	srl	t4,t4,0x6
    e928:	000a5182 	srl	t2,t2,0x6
    e92c:	3c02c00f 	lui	v0,0xc00f
    e930:	3442ffff 	ori	v0,v0,0xffff
    e934:	008c2025 	or	a0,a0,t4
    e938:	00aa2825 	or	a1,a1,t2
    e93c:	01c67024 	and	t6,t6,a2
    e940:	01665824 	and	t3,t3,a2
    e944:	00a22824 	and	a1,a1,v0
    e948:	00661824 	and	v1,v1,a2
    e94c:	000e7100 	sll	t6,t6,0x4
    e950:	00822024 	and	a0,a0,v0
    e954:	000b5900 	sll	t3,t3,0x4
    e958:	00e63824 	and	a3,a3,a2
    e95c:	008e2025 	or	a0,a0,t6
    e960:	00ab2825 	or	a1,a1,t3
    e964:	00073c02 	srl	a3,a3,0x10
    e968:	00031c02 	srl	v1,v1,0x10
    e96c:	a5a34016 	sh	v1,16406(t5)
    e970:	ada4400c 	sw	a0,16396(t5)
    e974:	ada54010 	sw	a1,16400(t5)
    e978:	08005663 	j	0x1598c
    e97c:	a5a74014 	sh	a3,16404(t5)
    e980:	8fb10030 	lw	s1,48(sp)
    e984:	0800560b 	j	0x1582c
    e988:	02002021 	move	a0,s0
    e98c:	27bdffe0 	addiu	sp,sp,-32
    e990:	24020044 	li	v0,68
    e994:	a3a20010 	sb	v0,16(sp)
    e998:	24030049 	li	v1,73
    e99c:	24020047 	li	v0,71
    e9a0:	3c078002 	lui	a3,0x8002
    e9a4:	24e7ae04 	addiu	a3,a3,-20988
    e9a8:	a3a30011 	sb	v1,17(sp)
    e9ac:	a3a20012 	sb	v0,18(sp)
    e9b0:	24032710 	li	v1,10000
    e9b4:	24020001 	li	v0,1
    e9b8:	3c068001 	lui	a2,0x8001
    e9bc:	27a50010 	addiu	a1,sp,16
    e9c0:	00e02021 	move	a0,a3
    e9c4:	24c66048 	addiu	a2,a2,24648
    e9c8:	ace3000c 	sw	v1,12(a3)
    e9cc:	a0e20014 	sb	v0,20(a3)
    e9d0:	afbf0018 	sw	ra,24(sp)
    e9d4:	0c000fab 	jal	0x3eac
    e9d8:	a3a00013 	sb	zero,19(sp)
    e9dc:	8fbf0018 	lw	ra,24(sp)
    e9e0:	00000000 	nop
    e9e4:	03e00008 	jr	ra
    e9e8:	27bd0020 	addiu	sp,sp,32
    e9ec:	27bdffd0 	addiu	sp,sp,-48
    e9f0:	3c03b025 	lui	v1,0xb025
    e9f4:	afb40020 	sw	s4,32(sp)
    e9f8:	afb3001c 	sw	s3,28(sp)
    e9fc:	afbf002c 	sw	ra,44(sp)
    ea00:	afb60028 	sw	s6,40(sp)
    ea04:	afb50024 	sw	s5,36(sp)
    ea08:	afb20018 	sw	s2,24(sp)
    ea0c:	afb10014 	sw	s1,20(sp)
    ea10:	afb00010 	sw	s0,16(sp)
    ea14:	34640d03 	ori	a0,v1,0xd03
    ea18:	90820000 	lbu	v0,0(a0)
    ea1c:	00000000 	nop
    ea20:	305400ff 	andi	s4,v0,0xff
    ea24:	32930070 	andi	s3,s4,0x70
    ea28:	12600063 	beqz	s3,0xebb8
    ea2c:	34630042 	ori	v1,v1,0x42
    ea30:	3282008f 	andi	v0,s4,0x8f
    ea34:	a0820000 	sb	v0,0(a0)
    ea38:	00001021 	move	v0,zero
    ea3c:	24420001 	addiu	v0,v0,1
    ea40:	304200ff 	andi	v0,v0,0xff
    ea44:	2c430006 	sltiu	v1,v0,6
    ea48:	1460fffd 	bnez	v1,0xea40
    ea4c:	24420001 	addiu	v0,v0,1
    ea50:	1260005b 	beqz	s3,0xebc0
    ea54:	00000000 	nop
    ea58:	40016000 	mfc0	at,$12
    ea5c:	34210001 	ori	at,at,0x1
    ea60:	38210001 	xori	at,at,0x1
    ea64:	40816000 	mtc0	at,$12
    ea68:	3c11000f 	lui	s1,0xf
    ea6c:	00002021 	move	a0,zero
    ea70:	0c004495 	jal	0x11254
    ea74:	3625ffff 	ori	a1,s1,0xffff
    ea78:	0040a821 	move	s5,v0
    ea7c:	40016000 	mfc0	at,$12
    ea80:	34210001 	ori	at,at,0x1
    ea84:	40816000 	mtc0	at,$12
    ea88:	0c000c54 	jal	0x3150
    ea8c:	24040064 	li	a0,100
    ea90:	0c00422a 	jal	0x108a8
    ea94:	24040001 	li	a0,1
    ea98:	40016000 	mfc0	at,$12
    ea9c:	34210001 	ori	at,at,0x1
    eaa0:	38210001 	xori	at,at,0x1
    eaa4:	40816000 	mtc0	at,$12
    eaa8:	00002021 	move	a0,zero
    eaac:	0c004495 	jal	0x11254
    eab0:	3625ffff 	ori	a1,s1,0xffff
    eab4:	0040b021 	move	s6,v0
    eab8:	40016000 	mfc0	at,$12
    eabc:	34210001 	ori	at,at,0x1
    eac0:	40816000 	mtc0	at,$12
    eac4:	24040064 	li	a0,100
    eac8:	0c000c54 	jal	0x3150
    eacc:	3c100008 	lui	s0,0x8
    ead0:	3610ffff 	ori	s0,s0,0xffff
    ead4:	0c00422a 	jal	0x108a8
    ead8:	00002021 	move	a0,zero
    eadc:	3c120001 	lui	s2,0x1
    eae0:	02b03024 	and	a2,s5,s0
    eae4:	00d23025 	or	a2,a2,s2
    eae8:	3625ffff 	ori	a1,s1,0xffff
    eaec:	0c00446a 	jal	0x111a8
    eaf0:	00002021 	move	a0,zero
    eaf4:	0c000c54 	jal	0x3150
    eaf8:	24040064 	li	a0,100
    eafc:	02d08024 	and	s0,s6,s0
    eb00:	0c00422a 	jal	0x108a8
    eb04:	24040001 	li	a0,1
    eb08:	02123025 	or	a2,s0,s2
    eb0c:	3625ffff 	ori	a1,s1,0xffff
    eb10:	0c00446a 	jal	0x111a8
    eb14:	00002021 	move	a0,zero
    eb18:	0c000c54 	jal	0x3150
    eb1c:	24040064 	li	a0,100
    eb20:	0c00422a 	jal	0x108a8
    eb24:	00002021 	move	a0,zero
    eb28:	40016000 	mfc0	at,$12
    eb2c:	34210001 	ori	at,at,0x1
    eb30:	38210001 	xori	at,at,0x1
    eb34:	40816000 	mtc0	at,$12
    eb38:	3c11000f 	lui	s1,0xf
    eb3c:	24040018 	li	a0,24
    eb40:	0c004495 	jal	0x11254
    eb44:	3625ffff 	ori	a1,s1,0xffff
    eb48:	00408021 	move	s0,v0
    eb4c:	40016000 	mfc0	at,$12
    eb50:	34210001 	ori	at,at,0x1
    eb54:	40816000 	mtc0	at,$12
    eb58:	0c000c54 	jal	0x3150
    eb5c:	24040064 	li	a0,100
    eb60:	24040018 	li	a0,24
    eb64:	3625ffff 	ori	a1,s1,0xffff
    eb68:	0c00446a 	jal	0x111a8
    eb6c:	36068000 	ori	a2,s0,0x8000
    eb70:	0c000c25 	jal	0x3094
    eb74:	24040003 	li	a0,3
    eb78:	16600027 	bnez	s3,0xec18
    eb7c:	3c02b025 	lui	v0,0xb025
    eb80:	8fbf002c 	lw	ra,44(sp)
    eb84:	8fb60028 	lw	s6,40(sp)
    eb88:	8fb50024 	lw	s5,36(sp)
    eb8c:	8fb40020 	lw	s4,32(sp)
    eb90:	8fb3001c 	lw	s3,28(sp)
    eb94:	8fb20018 	lw	s2,24(sp)
    eb98:	8fb10014 	lw	s1,20(sp)
    eb9c:	8fb00010 	lw	s0,16(sp)
    eba0:	3c02b025 	lui	v0,0xb025
    eba4:	34420042 	ori	v0,v0,0x42
    eba8:	27bd0030 	addiu	sp,sp,48
    ebac:	a0400000 	sb	zero,0(v0)
    ebb0:	03e00008 	jr	ra
    ebb4:	00000000 	nop
    ebb8:	2402ffff 	li	v0,-1
    ebbc:	a0620000 	sb	v0,0(v1)
    ebc0:	40016000 	mfc0	at,$12
    ebc4:	34210001 	ori	at,at,0x1
    ebc8:	38210001 	xori	at,at,0x1
    ebcc:	40816000 	mtc0	at,$12
    ebd0:	3c11000f 	lui	s1,0xf
    ebd4:	24040018 	li	a0,24
    ebd8:	0c004495 	jal	0x11254
    ebdc:	3625ffff 	ori	a1,s1,0xffff
    ebe0:	00408021 	move	s0,v0
    ebe4:	40016000 	mfc0	at,$12
    ebe8:	34210001 	ori	at,at,0x1
    ebec:	40816000 	mtc0	at,$12
    ebf0:	0c000c54 	jal	0x3150
    ebf4:	24040064 	li	a0,100
    ebf8:	24040018 	li	a0,24
    ebfc:	3625ffff 	ori	a1,s1,0xffff
    ec00:	0c00446a 	jal	0x111a8
    ec04:	36068000 	ori	a2,s0,0x8000
    ec08:	0c000c25 	jal	0x3094
    ec0c:	24040003 	li	a0,3
    ec10:	1260ffdb 	beqz	s3,0xeb80
    ec14:	3c02b025 	lui	v0,0xb025
    ec18:	34420d03 	ori	v0,v0,0xd03
    ec1c:	a0540000 	sb	s4,0(v0)
    ec20:	00001021 	move	v0,zero
    ec24:	24420001 	addiu	v0,v0,1
    ec28:	304200ff 	andi	v0,v0,0xff
    ec2c:	2c430006 	sltiu	v1,v0,6
    ec30:	1460fffd 	bnez	v1,0xec28
    ec34:	24420001 	addiu	v0,v0,1
    ec38:	3c10000f 	lui	s0,0xf
    ec3c:	02a03021 	move	a2,s5
    ec40:	3605ffff 	ori	a1,s0,0xffff
    ec44:	0c00446a 	jal	0x111a8
    ec48:	00002021 	move	a0,zero
    ec4c:	0c000c54 	jal	0x3150
    ec50:	24040064 	li	a0,100
    ec54:	0c00422a 	jal	0x108a8
    ec58:	24040001 	li	a0,1
    ec5c:	3605ffff 	ori	a1,s0,0xffff
    ec60:	02c03021 	move	a2,s6
    ec64:	0c00446a 	jal	0x111a8
    ec68:	00002021 	move	a0,zero
    ec6c:	0c000c54 	jal	0x3150
    ec70:	24040064 	li	a0,100
    ec74:	8fbf002c 	lw	ra,44(sp)
    ec78:	8fb60028 	lw	s6,40(sp)
    ec7c:	8fb50024 	lw	s5,36(sp)
    ec80:	8fb40020 	lw	s4,32(sp)
    ec84:	8fb3001c 	lw	s3,28(sp)
    ec88:	8fb20018 	lw	s2,24(sp)
    ec8c:	8fb10014 	lw	s1,20(sp)
    ec90:	8fb00010 	lw	s0,16(sp)
    ec94:	00002021 	move	a0,zero
    ec98:	0800422a 	j	0x108a8
    ec9c:	27bd0030 	addiu	sp,sp,48
    eca0:	27bdffc0 	addiu	sp,sp,-64
    eca4:	afb40028 	sw	s4,40(sp)
    eca8:	3c148002 	lui	s4,0x8002
    ecac:	afb60030 	sw	s6,48(sp)
    ecb0:	afbf0038 	sw	ra,56(sp)
    ecb4:	afb70034 	sw	s7,52(sp)
    ecb8:	afb5002c 	sw	s5,44(sp)
    ecbc:	afb30024 	sw	s3,36(sp)
    ecc0:	afb20020 	sw	s2,32(sp)
    ecc4:	afb1001c 	sw	s1,28(sp)
    ecc8:	afb00018 	sw	s0,24(sp)
    eccc:	26851568 	addiu	a1,s4,5480
    ecd0:	8ca2400c 	lw	v0,16396(a1)
    ecd4:	00000000 	nop
    ecd8:	00021782 	srl	v0,v0,0x1e
    ecdc:	30420001 	andi	v0,v0,0x1
    ece0:	14400008 	bnez	v0,0xed04
    ece4:	24160006 	li	s6,6
    ece8:	8ca24008 	lw	v0,16392(a1)
    ecec:	24030001 	li	v1,1
    ecf0:	00021742 	srl	v0,v0,0x1d
    ecf4:	30420003 	andi	v0,v0,0x3
    ecf8:	1043015d 	beq	v0,v1,0xf270
    ecfc:	3c02b025 	lui	v0,0xb025
    ed00:	26851568 	addiu	a1,s4,5480
    ed04:	8ca2400c 	lw	v0,16396(a1)
    ed08:	24030001 	li	v1,1
    ed0c:	00021782 	srl	v0,v0,0x1e
    ed10:	30440001 	andi	a0,v0,0x1
    ed14:	1083000d 	beq	a0,v1,0xed4c
    ed18:	00000000 	nop
    ed1c:	8fbf0038 	lw	ra,56(sp)
    ed20:	8fb70034 	lw	s7,52(sp)
    ed24:	8fb60030 	lw	s6,48(sp)
    ed28:	8fb5002c 	lw	s5,44(sp)
    ed2c:	8fb40028 	lw	s4,40(sp)
    ed30:	8fb30024 	lw	s3,36(sp)
    ed34:	8fb20020 	lw	s2,32(sp)
    ed38:	8fb1001c 	lw	s1,28(sp)
    ed3c:	8fb00018 	lw	s0,24(sp)
    ed40:	00001021 	move	v0,zero
    ed44:	03e00008 	jr	ra
    ed48:	27bd0040 	addiu	sp,sp,64
    ed4c:	8ca24008 	lw	v0,16392(a1)
    ed50:	00000000 	nop
    ed54:	00021742 	srl	v0,v0,0x1d
    ed58:	30420003 	andi	v0,v0,0x3
    ed5c:	1444ffef 	bne	v0,a0,0xed1c
    ed60:	3c02b025 	lui	v0,0xb025
    ed64:	34440c0e 	ori	a0,v0,0xc0e
    ed68:	90830000 	lbu	v1,0(a0)
    ed6c:	24020100 	li	v0,256
    ed70:	306300ff 	andi	v1,v1,0xff
    ed74:	24630001 	addiu	v1,v1,1
    ed78:	10620259 	beq	v1,v0,0xf6e0
    ed7c:	306200ff 	andi	v0,v1,0xff
    ed80:	a0820000 	sb	v0,0(a0)
    ed84:	00001021 	move	v0,zero
    ed88:	24420001 	addiu	v0,v0,1
    ed8c:	304200ff 	andi	v0,v0,0xff
    ed90:	2c430006 	sltiu	v1,v0,6
    ed94:	1460fffd 	bnez	v1,0xed8c
    ed98:	24420001 	addiu	v0,v0,1
    ed9c:	26841568 	addiu	a0,s4,5480
    eda0:	8c824010 	lw	v0,16400(a0)
    eda4:	24030001 	li	v1,1
    eda8:	00021782 	srl	v0,v0,0x1e
    edac:	10430273 	beq	v0,v1,0xf77c
    edb0:	3c10000f 	lui	s0,0xf
    edb4:	909342c7 	lbu	s3,17095(a0)
    edb8:	3c02b025 	lui	v0,0xb025
    edbc:	34420c62 	ori	v0,v0,0xc62
    edc0:	326300ff 	andi	v1,s3,0xff
    edc4:	a0430000 	sb	v1,0(v0)
    edc8:	00001021 	move	v0,zero
    edcc:	24420001 	addiu	v0,v0,1
    edd0:	304200ff 	andi	v0,v0,0xff
    edd4:	2c430006 	sltiu	v1,v0,6
    edd8:	1460fffd 	bnez	v1,0xedd0
    eddc:	24420001 	addiu	v0,v0,1
    ede0:	26901568 	addiu	s0,s4,5480
    ede4:	920242c6 	lbu	v0,17094(s0)
    ede8:	00000000 	nop
    edec:	10400179 	beqz	v0,0xf3d4
    edf0:	24020001 	li	v0,1
    edf4:	3c11b025 	lui	s1,0xb025
    edf8:	36230d03 	ori	v1,s1,0xd03
    edfc:	90620000 	lbu	v0,0(v1)
    ee00:	00000000 	nop
    ee04:	30420070 	andi	v0,v0,0x70
    ee08:	1440019f 	bnez	v0,0xf488
    ee0c:	240200cc 	li	v0,204
    ee10:	960242c4 	lhu	v0,17092(s0)
    ee14:	00000000 	nop
    ee18:	00532023 	subu	a0,v0,s3
    ee1c:	0053182b 	sltu	v1,v0,s3
    ee20:	02621023 	subu	v0,s3,v0
    ee24:	0083100a 	.word	0x83100a
    ee28:	2c420003 	sltiu	v0,v0,3
    ee2c:	1040016c 	beqz	v0,0xf3e0
    ee30:	00000000 	nop
    ee34:	920342c4 	lbu	v1,17092(s0)
    ee38:	36220c63 	ori	v0,s1,0xc63
    ee3c:	00002021 	move	a0,zero
    ee40:	a0430000 	sb	v1,0(v0)
    ee44:	24820001 	addiu	v0,a0,1
    ee48:	304400ff 	andi	a0,v0,0xff
    ee4c:	2c830006 	sltiu	v1,a0,6
    ee50:	1460fffd 	bnez	v1,0xee48
    ee54:	24820001 	addiu	v0,a0,1
    ee58:	26831568 	addiu	v1,s4,5480
    ee5c:	906242c3 	lbu	v0,17091(v1)
    ee60:	8c664008 	lw	a2,16392(v1)
    ee64:	a07342c2 	sb	s3,17090(v1)
    ee68:	00532023 	subu	a0,v0,s3
    ee6c:	0262382b 	sltu	a3,s3,v0
    ee70:	02629023 	subu	s2,s3,v0
    ee74:	00062c02 	srl	a1,a2,0x10
    ee78:	0087900b 	.word	0x87900b
    ee7c:	30a5003f 	andi	a1,a1,0x3f
    ee80:	30c4003f 	andi	a0,a2,0x3f
    ee84:	24020024 	li	v0,36
    ee88:	24030020 	li	v1,32
    ee8c:	00441023 	subu	v0,v0,a0
    ee90:	1640018a 	bnez	s2,0xf4bc
    ee94:	00651823 	subu	v1,v1,a1
    ee98:	00804021 	move	t0,a0
    ee9c:	00a0a821 	move	s5,a1
    eea0:	3c178002 	lui	s7,0x8002
    eea4:	02c8282b 	sltu	a1,s6,t0
    eea8:	10a00181 	beqz	a1,0xf4b0
    eeac:	26821568 	addiu	v0,s4,5480
    eeb0:	00081080 	sll	v0,t0,0x2
    eeb4:	26831568 	addiu	v1,s4,5480
    eeb8:	00431021 	addu	v0,v0,v1
    eebc:	8c444018 	lw	a0,16408(v0)
    eec0:	00000000 	nop
    eec4:	00042582 	srl	a0,a0,0x16
    eec8:	26861568 	addiu	a2,s4,5480
    eecc:	8cc3400c 	lw	v1,16396(a2)
    eed0:	00000000 	nop
    eed4:	306703ff 	andi	a3,v1,0x3ff
    eed8:	10e001e9 	beqz	a3,0xf680
    eedc:	30620200 	andi	v0,v1,0x200
    eee0:	10400004 	beqz	v0,0xeef4
    eee4:	00e40018 	mult	a3,a0
    eee8:	2402fc00 	li	v0,-1024
    eeec:	00e23825 	or	a3,a3,v0
    eef0:	00e40018 	mult	a3,a0
    eef4:	00038282 	srl	s0,v1,0xa
    eef8:	321003ff 	andi	s0,s0,0x3ff
    eefc:	32030200 	andi	v1,s0,0x200
    ef00:	00001012 	mflo	v0
    ef04:	00021202 	srl	v0,v0,0x8
    ef08:	10600003 	beqz	v1,0xef18
    ef0c:	304503ff 	andi	a1,v0,0x3ff
    ef10:	2402fc00 	li	v0,-1024
    ef14:	02028025 	or	s0,s0,v0
    ef18:	02040018 	mult	s0,a0
    ef1c:	00041d80 	sll	v1,a0,0x16
    ef20:	3c11b025 	lui	s1,0xb025
    ef24:	36240c80 	ori	a0,s1,0xc80
    ef28:	36310c94 	ori	s1,s1,0xc94
    ef2c:	00008012 	mflo	s0
    ef30:	00108202 	srl	s0,s0,0x8
    ef34:	3202003f 	andi	v0,s0,0x3f
    ef38:	00021400 	sll	v0,v0,0x10
    ef3c:	00621825 	or	v1,v1,v0
    ef40:	00651825 	or	v1,v1,a1
    ef44:	00602821 	move	a1,v1
    ef48:	0c00540e 	jal	0x15038
    ef4c:	afa30010 	sw	v1,16(sp)
    ef50:	8e230000 	lw	v1,0(s1)
    ef54:	3c020fff 	lui	v0,0xfff
    ef58:	321003c0 	andi	s0,s0,0x3c0
    ef5c:	3442ffff 	ori	v0,v0,0xffff
    ef60:	00621824 	and	v1,v1,v0
    ef64:	00108580 	sll	s0,s0,0x16
    ef68:	00701825 	or	v1,v1,s0
    ef6c:	02202021 	move	a0,s1
    ef70:	00602821 	move	a1,v1
    ef74:	afa30010 	sw	v1,16(sp)
    ef78:	0c00540e 	jal	0x15038
    ef7c:	00000000 	nop
    ef80:	26831568 	addiu	v1,s4,5480
    ef84:	8c624008 	lw	v0,16392(v1)
    ef88:	00000000 	nop
    ef8c:	0440015b 	bltz	v0,0xf4fc
    ef90:	001528c0 	sll	a1,s5,0x3
    ef94:	00a31021 	addu	v0,a1,v1
    ef98:	904440ac 	lbu	a0,16556(v0)
    ef9c:	3c03b025 	lui	v1,0xb025
    efa0:	34630a22 	ori	v1,v1,0xa22
    efa4:	a0640000 	sb	a0,0(v1)
    efa8:	00001021 	move	v0,zero
    efac:	24420001 	addiu	v0,v0,1
    efb0:	304200ff 	andi	v0,v0,0xff
    efb4:	2c430006 	sltiu	v1,v0,6
    efb8:	1460fffd 	bnez	v1,0xefb0
    efbc:	24420001 	addiu	v0,v0,1
    efc0:	26821568 	addiu	v0,s4,5480
    efc4:	00a21021 	addu	v0,a1,v0
    efc8:	904440ad 	lbu	a0,16557(v0)
    efcc:	3c03b025 	lui	v1,0xb025
    efd0:	34630a23 	ori	v1,v1,0xa23
    efd4:	a0640000 	sb	a0,0(v1)
    efd8:	00001021 	move	v0,zero
    efdc:	24420001 	addiu	v0,v0,1
    efe0:	304200ff 	andi	v0,v0,0xff
    efe4:	2c430006 	sltiu	v1,v0,6
    efe8:	1460fffd 	bnez	v1,0xefe0
    efec:	24420001 	addiu	v0,v0,1
    eff0:	26821568 	addiu	v0,s4,5480
    eff4:	00a21021 	addu	v0,a1,v0
    eff8:	904440ae 	lbu	a0,16558(v0)
    effc:	3c03b025 	lui	v1,0xb025
    f000:	34630a24 	ori	v1,v1,0xa24
    f004:	a0640000 	sb	a0,0(v1)
    f008:	00001021 	move	v0,zero
    f00c:	24420001 	addiu	v0,v0,1
    f010:	304200ff 	andi	v0,v0,0xff
    f014:	2c430006 	sltiu	v1,v0,6
    f018:	1460fffd 	bnez	v1,0xf010
    f01c:	24420001 	addiu	v0,v0,1
    f020:	26821568 	addiu	v0,s4,5480
    f024:	00a21021 	addu	v0,a1,v0
    f028:	904440af 	lbu	a0,16559(v0)
    f02c:	3c03b025 	lui	v1,0xb025
    f030:	34630a25 	ori	v1,v1,0xa25
    f034:	a0640000 	sb	a0,0(v1)
    f038:	00001021 	move	v0,zero
    f03c:	24420001 	addiu	v0,v0,1
    f040:	304200ff 	andi	v0,v0,0xff
    f044:	2c430006 	sltiu	v1,v0,6
    f048:	1460fffd 	bnez	v1,0xf040
    f04c:	24420001 	addiu	v0,v0,1
    f050:	26821568 	addiu	v0,s4,5480
    f054:	00a21021 	addu	v0,a1,v0
    f058:	904440b0 	lbu	a0,16560(v0)
    f05c:	3c03b025 	lui	v1,0xb025
    f060:	34630a26 	ori	v1,v1,0xa26
    f064:	a0640000 	sb	a0,0(v1)
    f068:	00001021 	move	v0,zero
    f06c:	24420001 	addiu	v0,v0,1
    f070:	304200ff 	andi	v0,v0,0xff
    f074:	2c430006 	sltiu	v1,v0,6
    f078:	1460fffd 	bnez	v1,0xf070
    f07c:	24420001 	addiu	v0,v0,1
    f080:	26821568 	addiu	v0,s4,5480
    f084:	00a21021 	addu	v0,a1,v0
    f088:	904440b1 	lbu	a0,16561(v0)
    f08c:	3c03b025 	lui	v1,0xb025
    f090:	34630a27 	ori	v1,v1,0xa27
    f094:	a0640000 	sb	a0,0(v1)
    f098:	00001021 	move	v0,zero
    f09c:	24420001 	addiu	v0,v0,1
    f0a0:	304200ff 	andi	v0,v0,0xff
    f0a4:	2c430006 	sltiu	v1,v0,6
    f0a8:	1460fffd 	bnez	v1,0xf0a0
    f0ac:	24420001 	addiu	v0,v0,1
    f0b0:	26821568 	addiu	v0,s4,5480
    f0b4:	00a21021 	addu	v0,a1,v0
    f0b8:	904440b2 	lbu	a0,16562(v0)
    f0bc:	3c03b025 	lui	v1,0xb025
    f0c0:	34630a28 	ori	v1,v1,0xa28
    f0c4:	a0640000 	sb	a0,0(v1)
    f0c8:	00001021 	move	v0,zero
    f0cc:	24420001 	addiu	v0,v0,1
    f0d0:	304200ff 	andi	v0,v0,0xff
    f0d4:	2c430006 	sltiu	v1,v0,6
    f0d8:	1460fffd 	bnez	v1,0xf0d0
    f0dc:	24420001 	addiu	v0,v0,1
    f0e0:	26821568 	addiu	v0,s4,5480
    f0e4:	00a21021 	addu	v0,a1,v0
    f0e8:	904440b3 	lbu	a0,16563(v0)
    f0ec:	3c03b025 	lui	v1,0xb025
    f0f0:	34630a29 	ori	v1,v1,0xa29
    f0f4:	a0640000 	sb	a0,0(v1)
    f0f8:	00001021 	move	v0,zero
    f0fc:	24420001 	addiu	v0,v0,1
    f100:	304200ff 	andi	v0,v0,0xff
    f104:	2c430006 	sltiu	v1,v0,6
    f108:	1460fffd 	bnez	v1,0xf100
    f10c:	24420001 	addiu	v0,v0,1
    f110:	92e37e26 	lbu	v1,32294(s7)
    f114:	24020022 	li	v0,34
    f118:	10620003 	beq	v1,v0,0xf128
    f11c:	24020092 	li	v0,146
    f120:	1462fefe 	bne	v1,v0,0xed1c
    f124:	00000000 	nop
    f128:	26821568 	addiu	v0,s4,5480
    f12c:	8c434008 	lw	v1,16392(v0)
    f130:	3a440001 	xori	a0,s2,0x1
    f134:	24020024 	li	v0,36
    f138:	00031a02 	srl	v1,v1,0x8
    f13c:	3063003f 	andi	v1,v1,0x3f
    f140:	30840001 	andi	a0,a0,0x1
    f144:	10800187 	beqz	a0,0xf764
    f148:	00432823 	subu	a1,v0,v1
    f14c:	00121842 	srl	v1,s2,0x1
    f150:	00031040 	sll	v0,v1,0x1
    f154:	00439021 	addu	s2,v0,v1
    f158:	26831568 	addiu	v1,s4,5480
    f15c:	906242c3 	lbu	v0,17091(v1)
    f160:	00000000 	nop
    f164:	0262102b 	sltu	v0,s3,v0
    f168:	10400150 	beqz	v0,0xf6ac
    f16c:	0245102b 	sltu	v0,s2,a1
    f170:	10400006 	beqz	v0,0xf18c
    f174:	24060024 	li	a2,36
    f178:	8c624008 	lw	v0,16392(v1)
    f17c:	00000000 	nop
    f180:	00021202 	srl	v0,v0,0x8
    f184:	3042003f 	andi	v0,v0,0x3f
    f188:	00523021 	addu	a2,v0,s2
    f18c:	02c6282b 	sltu	a1,s6,a2
    f190:	10a00150 	beqz	a1,0xf6d4
    f194:	26821568 	addiu	v0,s4,5480
    f198:	00061080 	sll	v0,a2,0x2
    f19c:	26831568 	addiu	v1,s4,5480
    f1a0:	00431021 	addu	v0,v0,v1
    f1a4:	8c444018 	lw	a0,16408(v0)
    f1a8:	00000000 	nop
    f1ac:	00042582 	srl	a0,a0,0x16
    f1b0:	26831568 	addiu	v1,s4,5480
    f1b4:	8c704010 	lw	s0,16400(v1)
    f1b8:	00000000 	nop
    f1bc:	00103a82 	srl	a3,s0,0xa
    f1c0:	30e703ff 	andi	a3,a3,0x3ff
    f1c4:	10e0015a 	beqz	a3,0xf730
    f1c8:	30e20200 	andi	v0,a3,0x200
    f1cc:	10400004 	beqz	v0,0xf1e0
    f1d0:	00e40018 	mult	a3,a0
    f1d4:	2402fc00 	li	v0,-1024
    f1d8:	00e23825 	or	a3,a3,v0
    f1dc:	00e40018 	mult	a3,a0
    f1e0:	00108502 	srl	s0,s0,0x14
    f1e4:	321003ff 	andi	s0,s0,0x3ff
    f1e8:	32030200 	andi	v1,s0,0x200
    f1ec:	00001012 	mflo	v0
    f1f0:	00021202 	srl	v0,v0,0x8
    f1f4:	10600003 	beqz	v1,0xf204
    f1f8:	304503ff 	andi	a1,v0,0x3ff
    f1fc:	2402fc00 	li	v0,-1024
    f200:	02028025 	or	s0,s0,v0
    f204:	02040018 	mult	s0,a0
    f208:	00041d80 	sll	v1,a0,0x16
    f20c:	3c11b025 	lui	s1,0xb025
    f210:	36240c88 	ori	a0,s1,0xc88
    f214:	36310c9c 	ori	s1,s1,0xc9c
    f218:	00008012 	mflo	s0
    f21c:	00108202 	srl	s0,s0,0x8
    f220:	3202003f 	andi	v0,s0,0x3f
    f224:	00021400 	sll	v0,v0,0x10
    f228:	00621825 	or	v1,v1,v0
    f22c:	00651825 	or	v1,v1,a1
    f230:	00602821 	move	a1,v1
    f234:	0c00540e 	jal	0x15038
    f238:	afa30010 	sw	v1,16(sp)
    f23c:	8e230000 	lw	v1,0(s1)
    f240:	3c020fff 	lui	v0,0xfff
    f244:	3442ffff 	ori	v0,v0,0xffff
    f248:	321003c0 	andi	s0,s0,0x3c0
    f24c:	00621824 	and	v1,v1,v0
    f250:	00108580 	sll	s0,s0,0x16
    f254:	00701825 	or	v1,v1,s0
    f258:	02202021 	move	a0,s1
    f25c:	00602821 	move	a1,v1
    f260:	0c00540e 	jal	0x15038
    f264:	afa30010 	sw	v1,16(sp)
    f268:	08005831 	j	0x160c4
    f26c:	00000000 	nop
    f270:	34420c80 	ori	v0,v0,0xc80
    f274:	8c430000 	lw	v1,0(v0)
    f278:	00a03021 	move	a2,a1
    f27c:	3c02ffc0 	lui	v0,0xffc0
    f280:	00622024 	and	a0,v1,v0
    f284:	00008821 	move	s1,zero
    f288:	3c05ffc0 	lui	a1,0xffc0
    f28c:	08005993 	j	0x1664c
    f290:	24c34018 	addiu	v1,a2,16408
    f294:	26310001 	addiu	s1,s1,1
    f298:	2e220025 	sltiu	v0,s1,37
    f29c:	1040000d 	beqz	v0,0xf2d4
    f2a0:	3c178002 	lui	s7,0x8002
    f2a4:	8c620000 	lw	v0,0(v1)
    f2a8:	00000000 	nop
    f2ac:	00451024 	and	v0,v0,a1
    f2b0:	1444fff8 	bne	v0,a0,0xf294
    f2b4:	24630004 	addiu	v1,v1,4
    f2b8:	8cc24008 	lw	v0,16392(a2)
    f2bc:	2403ffc0 	li	v1,-64
    f2c0:	3224003f 	andi	a0,s1,0x3f
    f2c4:	00431024 	and	v0,v0,v1
    f2c8:	00441025 	or	v0,v0,a0
    f2cc:	acc24008 	sw	v0,16392(a2)
    f2d0:	3c178002 	lui	s7,0x8002
    f2d4:	92e37e26 	lbu	v1,32294(s7)
    f2d8:	24020022 	li	v0,34
    f2dc:	10620044 	beq	v1,v0,0xf3f0
    f2e0:	24020092 	li	v0,146
    f2e4:	10620043 	beq	v1,v0,0xf3f4
    f2e8:	3c02b025 	lui	v0,0xb025
    f2ec:	3c02b025 	lui	v0,0xb025
    f2f0:	34420a24 	ori	v0,v0,0xa24
    f2f4:	8c440000 	lw	a0,0(v0)
    f2f8:	3c033f3f 	lui	v1,0x3f3f
    f2fc:	34633f3f 	ori	v1,v1,0x3f3f
    f300:	00832024 	and	a0,a0,v1
    f304:	3c028002 	lui	v0,0x8002
    f308:	3c038002 	lui	v1,0x8002
    f30c:	24535616 	addiu	s3,v0,22038
    f310:	2472571e 	addiu	s2,v1,22302
    f314:	00008821 	move	s1,zero
    f318:	080059ba 	j	0x166e8
    f31c:	afa40010 	sw	a0,16(sp)
    f320:	0c004595 	jal	0x11654
    f324:	00000000 	nop
    f328:	1040004d 	beqz	v0,0xf460
    f32c:	26851568 	addiu	a1,s4,5480
    f330:	26310001 	addiu	s1,s1,1
    f334:	2e220021 	sltiu	v0,s1,33
    f338:	10400017 	beqz	v0,0xf398
    f33c:	26841568 	addiu	a0,s4,5480
    f340:	001180c0 	sll	s0,s1,0x3
    f344:	27a40010 	addiu	a0,sp,16
    f348:	02132821 	addu	a1,s0,s3
    f34c:	0c004595 	jal	0x11654
    f350:	24060004 	li	a2,4
    f354:	02122821 	addu	a1,s0,s2
    f358:	27a40010 	addiu	a0,sp,16
    f35c:	1440fff0 	bnez	v0,0xf320
    f360:	24060004 	li	a2,4
    f364:	26851568 	addiu	a1,s4,5480
    f368:	8ca34008 	lw	v1,16392(a1)
    f36c:	3c02ffc0 	lui	v0,0xffc0
    f370:	3442ffff 	ori	v0,v0,0xffff
    f374:	3224003f 	andi	a0,s1,0x3f
    f378:	00621824 	and	v1,v1,v0
    f37c:	00042400 	sll	a0,a0,0x10
    f380:	3c027fff 	lui	v0,0x7fff
    f384:	00641825 	or	v1,v1,a0
    f388:	3442ffff 	ori	v0,v0,0xffff
    f38c:	00621824 	and	v1,v1,v0
    f390:	aca34008 	sw	v1,16392(a1)
    f394:	26841568 	addiu	a0,s4,5480
    f398:	8c83400c 	lw	v1,16396(a0)
    f39c:	3c024000 	lui	v0,0x4000
    f3a0:	00621825 	or	v1,v1,v0
    f3a4:	3c02b025 	lui	v0,0xb025
    f3a8:	34420c0e 	ori	v0,v0,0xc0e
    f3ac:	ac83400c 	sw	v1,16396(a0)
    f3b0:	a0400000 	sb	zero,0(v0)
    f3b4:	00001021 	move	v0,zero
    f3b8:	24420001 	addiu	v0,v0,1
    f3bc:	304200ff 	andi	v0,v0,0xff
    f3c0:	2c430006 	sltiu	v1,v0,6
    f3c4:	1460fffd 	bnez	v1,0xf3bc
    f3c8:	24420001 	addiu	v0,v0,1
    f3cc:	0800582b 	j	0x160ac
    f3d0:	26851568 	addiu	a1,s4,5480
    f3d4:	a20242c6 	sb	v0,17094(s0)
    f3d8:	08005867 	j	0x1619c
    f3dc:	a61342c4 	sh	s3,17092(s0)
    f3e0:	0c005765 	jal	0x15d94
    f3e4:	00000000 	nop
    f3e8:	08005877 	j	0x161dc
    f3ec:	a61342c4 	sh	s3,17092(s0)
    f3f0:	3c02b025 	lui	v0,0xb025
    f3f4:	34420c88 	ori	v0,v0,0xc88
    f3f8:	8c440000 	lw	a0,0(v0)
    f3fc:	3c038002 	lui	v1,0x8002
    f400:	24661568 	addiu	a2,v1,5480
    f404:	3c02ffc0 	lui	v0,0xffc0
    f408:	00822024 	and	a0,a0,v0
    f40c:	00008821 	move	s1,zero
    f410:	3c05ffc0 	lui	a1,0xffc0
    f414:	080059f5 	j	0x167d4
    f418:	24c34018 	addiu	v1,a2,16408
    f41c:	26310001 	addiu	s1,s1,1
    f420:	2e220025 	sltiu	v0,s1,37
    f424:	1040ffb2 	beqz	v0,0xf2f0
    f428:	3c02b025 	lui	v0,0xb025
    f42c:	8c620000 	lw	v0,0(v1)
    f430:	00000000 	nop
    f434:	00451024 	and	v0,v0,a1
    f438:	1444fff8 	bne	v0,a0,0xf41c
    f43c:	24630004 	addiu	v1,v1,4
    f440:	8cc24008 	lw	v0,16392(a2)
    f444:	3223003f 	andi	v1,s1,0x3f
    f448:	2404c0ff 	li	a0,-16129
    f44c:	00441024 	and	v0,v0,a0
    f450:	00031a00 	sll	v1,v1,0x8
    f454:	00431025 	or	v0,v0,v1
    f458:	080059a5 	j	0x16694
    f45c:	acc24008 	sw	v0,16392(a2)
    f460:	8ca34008 	lw	v1,16392(a1)
    f464:	3c02ffc0 	lui	v0,0xffc0
    f468:	3442ffff 	ori	v0,v0,0xffff
    f46c:	3224003f 	andi	a0,s1,0x3f
    f470:	00621824 	and	v1,v1,v0
    f474:	00042400 	sll	a0,a0,0x10
    f478:	00641825 	or	v1,v1,a0
    f47c:	3c028000 	lui	v0,0x8000
    f480:	080059ce 	j	0x16738
    f484:	00621825 	or	v1,v1,v0
    f488:	36230c63 	ori	v1,s1,0xc63
    f48c:	a0620000 	sb	v0,0(v1)
    f490:	00001021 	move	v0,zero
    f494:	24420001 	addiu	v0,v0,1
    f498:	304200ff 	andi	v0,v0,0xff
    f49c:	2c430006 	sltiu	v1,v0,6
    f4a0:	1460fffd 	bnez	v1,0xf498
    f4a4:	24420001 	addiu	v0,v0,1
    f4a8:	08005881 	j	0x16204
    f4ac:	26831568 	addiu	v1,s4,5480
    f4b0:	8c434030 	lw	v1,16432(v0)
    f4b4:	0800589c 	j	0x16270
    f4b8:	00032582 	srl	a0,v1,0x16
    f4bc:	10e00091 	beqz	a3,0xf704
    f4c0:	00004021 	move	t0,zero
    f4c4:	0242102b 	sltu	v0,s2,v0
    f4c8:	00922021 	addu	a0,a0,s2
    f4cc:	38420000 	xori	v0,v0,0x0
    f4d0:	24080024 	li	t0,36
    f4d4:	0243182b 	sltu	v1,s2,v1
    f4d8:	0082400b 	.word	0x82400b
    f4dc:	1060fe70 	beqz	v1,0xeea0
    f4e0:	24150020 	li	s5,32
    f4e4:	26831568 	addiu	v1,s4,5480
    f4e8:	9462400a 	lhu	v0,16394(v1)
    f4ec:	3c178002 	lui	s7,0x8002
    f4f0:	3042003f 	andi	v0,v0,0x3f
    f4f4:	08005893 	j	0x1624c
    f4f8:	0052a821 	addu	s5,v0,s2
    f4fc:	00a31021 	addu	v0,a1,v1
    f500:	904441b4 	lbu	a0,16820(v0)
    f504:	3c03b025 	lui	v1,0xb025
    f508:	34630a22 	ori	v1,v1,0xa22
    f50c:	a0640000 	sb	a0,0(v1)
    f510:	00001021 	move	v0,zero
    f514:	24420001 	addiu	v0,v0,1
    f518:	304200ff 	andi	v0,v0,0xff
    f51c:	2c430006 	sltiu	v1,v0,6
    f520:	1460fffd 	bnez	v1,0xf518
    f524:	24420001 	addiu	v0,v0,1
    f528:	26821568 	addiu	v0,s4,5480
    f52c:	00a21021 	addu	v0,a1,v0
    f530:	904441b5 	lbu	a0,16821(v0)
    f534:	3c03b025 	lui	v1,0xb025
    f538:	34630a23 	ori	v1,v1,0xa23
    f53c:	a0640000 	sb	a0,0(v1)
    f540:	00001021 	move	v0,zero
    f544:	24420001 	addiu	v0,v0,1
    f548:	304200ff 	andi	v0,v0,0xff
    f54c:	2c430006 	sltiu	v1,v0,6
    f550:	1460fffd 	bnez	v1,0xf548
    f554:	24420001 	addiu	v0,v0,1
    f558:	26821568 	addiu	v0,s4,5480
    f55c:	00a21021 	addu	v0,a1,v0
    f560:	904441b6 	lbu	a0,16822(v0)
    f564:	3c03b025 	lui	v1,0xb025
    f568:	34630a24 	ori	v1,v1,0xa24
    f56c:	a0640000 	sb	a0,0(v1)
    f570:	00001021 	move	v0,zero
    f574:	24420001 	addiu	v0,v0,1
    f578:	304200ff 	andi	v0,v0,0xff
    f57c:	2c430006 	sltiu	v1,v0,6
    f580:	1460fffd 	bnez	v1,0xf578
    f584:	24420001 	addiu	v0,v0,1
    f588:	26821568 	addiu	v0,s4,5480
    f58c:	00a21021 	addu	v0,a1,v0
    f590:	904441b7 	lbu	a0,16823(v0)
    f594:	3c03b025 	lui	v1,0xb025
    f598:	34630a25 	ori	v1,v1,0xa25
    f59c:	a0640000 	sb	a0,0(v1)
    f5a0:	00001021 	move	v0,zero
    f5a4:	24420001 	addiu	v0,v0,1
    f5a8:	304200ff 	andi	v0,v0,0xff
    f5ac:	2c430006 	sltiu	v1,v0,6
    f5b0:	1460fffd 	bnez	v1,0xf5a8
    f5b4:	24420001 	addiu	v0,v0,1
    f5b8:	26821568 	addiu	v0,s4,5480
    f5bc:	00a21021 	addu	v0,a1,v0
    f5c0:	904441b8 	lbu	a0,16824(v0)
    f5c4:	3c03b025 	lui	v1,0xb025
    f5c8:	34630a26 	ori	v1,v1,0xa26
    f5cc:	a0640000 	sb	a0,0(v1)
    f5d0:	00001021 	move	v0,zero
    f5d4:	24420001 	addiu	v0,v0,1
    f5d8:	304200ff 	andi	v0,v0,0xff
    f5dc:	2c430006 	sltiu	v1,v0,6
    f5e0:	1460fffd 	bnez	v1,0xf5d8
    f5e4:	24420001 	addiu	v0,v0,1
    f5e8:	26821568 	addiu	v0,s4,5480
    f5ec:	00a21021 	addu	v0,a1,v0
    f5f0:	904441b9 	lbu	a0,16825(v0)
    f5f4:	3c03b025 	lui	v1,0xb025
    f5f8:	34630a27 	ori	v1,v1,0xa27
    f5fc:	a0640000 	sb	a0,0(v1)
    f600:	00001021 	move	v0,zero
    f604:	24420001 	addiu	v0,v0,1
    f608:	304200ff 	andi	v0,v0,0xff
    f60c:	2c430006 	sltiu	v1,v0,6
    f610:	1460fffd 	bnez	v1,0xf608
    f614:	24420001 	addiu	v0,v0,1
    f618:	26821568 	addiu	v0,s4,5480
    f61c:	00a21021 	addu	v0,a1,v0
    f620:	904441ba 	lbu	a0,16826(v0)
    f624:	3c03b025 	lui	v1,0xb025
    f628:	34630a28 	ori	v1,v1,0xa28
    f62c:	a0640000 	sb	a0,0(v1)
    f630:	00001021 	move	v0,zero
    f634:	24420001 	addiu	v0,v0,1
    f638:	304200ff 	andi	v0,v0,0xff
    f63c:	2c430006 	sltiu	v1,v0,6
    f640:	1460fffd 	bnez	v1,0xf638
    f644:	24420001 	addiu	v0,v0,1
    f648:	26821568 	addiu	v0,s4,5480
    f64c:	00a21021 	addu	v0,a1,v0
    f650:	904441bb 	lbu	a0,16827(v0)
    f654:	3c03b025 	lui	v1,0xb025
    f658:	34630a29 	ori	v1,v1,0xa29
    f65c:	a0640000 	sb	a0,0(v1)
    f660:	00001021 	move	v0,zero
    f664:	24420001 	addiu	v0,v0,1
    f668:	304200ff 	andi	v0,v0,0xff
    f66c:	2c430006 	sltiu	v1,v0,6
    f670:	1460fffd 	bnez	v1,0xf668
    f674:	24420001 	addiu	v0,v0,1
    f678:	0800592e 	j	0x164b8
    f67c:	00000000 	nop
    f680:	10a00028 	beqz	a1,0xf724
    f684:	00081080 	sll	v0,t0,0x2
    f688:	00461021 	addu	v0,v0,a2
    f68c:	8c454018 	lw	a1,16408(v0)
    f690:	3c04b025 	lui	a0,0xb025
    f694:	0c00540e 	jal	0x15038
    f698:	34840c80 	ori	a0,a0,0xc80
    f69c:	3c04b025 	lui	a0,0xb025
    f6a0:	34840c94 	ori	a0,a0,0xc94
    f6a4:	080058c8 	j	0x16320
    f6a8:	00002821 	move	a1,zero
    f6ac:	8c624008 	lw	v0,16392(v1)
    f6b0:	00000000 	nop
    f6b4:	00021202 	srl	v0,v0,0x8
    f6b8:	3042003f 	andi	v0,v0,0x3f
    f6bc:	0242182b 	sltu	v1,s2,v0
    f6c0:	1460feb2 	bnez	v1,0xf18c
    f6c4:	00523023 	subu	a2,v0,s2
    f6c8:	00003021 	move	a2,zero
    f6cc:	00002821 	move	a1,zero
    f6d0:	26821568 	addiu	v0,s4,5480
    f6d4:	8c434030 	lw	v1,16432(v0)
    f6d8:	08005956 	j	0x16558
    f6dc:	00032582 	srl	a0,v1,0x16
    f6e0:	a0800000 	sb	zero,0(a0)
    f6e4:	00001021 	move	v0,zero
    f6e8:	24420001 	addiu	v0,v0,1
    f6ec:	304200ff 	andi	v0,v0,0xff
    f6f0:	2c430006 	sltiu	v1,v0,6
    f6f4:	1460fffd 	bnez	v1,0xf6ec
    f6f8:	24420001 	addiu	v0,v0,1
    f6fc:	08005852 	j	0x16148
    f700:	26841568 	addiu	a0,s4,5480
    f704:	00921023 	subu	v0,a0,s2
    f708:	0244182b 	sltu	v1,s2,a0
    f70c:	0245202b 	sltu	a0,s2,a1
    f710:	0043400b 	.word	0x43400b
    f714:	1480fde2 	bnez	a0,0xeea0
    f718:	00b2a823 	subu	s5,a1,s2
    f71c:	08005892 	j	0x16248
    f720:	0000a821 	move	s5,zero
    f724:	8cc54030 	lw	a1,16432(a2)
    f728:	08005a8f 	j	0x16a3c
    f72c:	3c04b025 	lui	a0,0xb025
    f730:	10a00027 	beqz	a1,0xf7d0
    f734:	00061080 	sll	v0,a2,0x2
    f738:	00431021 	addu	v0,v0,v1
    f73c:	8c454018 	lw	a1,16408(v0)
    f740:	3c04b025 	lui	a0,0xb025
    f744:	0c00540e 	jal	0x15038
    f748:	34840c88 	ori	a0,a0,0xc88
    f74c:	3c04b025 	lui	a0,0xb025
    f750:	34840c9c 	ori	a0,a0,0xc9c
    f754:	0c00540e 	jal	0x15038
    f758:	00002821 	move	a1,zero
    f75c:	08005831 	j	0x160c4
    f760:	00000000 	nop
    f764:	2643ffff 	addiu	v1,s2,-1
    f768:	00031842 	srl	v1,v1,0x1
    f76c:	00031040 	sll	v0,v1,0x1
    f770:	00431021 	addu	v0,v0,v1
    f774:	08005940 	j	0x16500
    f778:	24520001 	addiu	s2,v0,1
    f77c:	3605ffff 	ori	a1,s0,0xffff
    f780:	24060060 	li	a2,96
    f784:	0c00446a 	jal	0x111a8
    f788:	24040024 	li	a0,36
    f78c:	0c000c25 	jal	0x3094
    f790:	240403e8 	li	a0,1000
    f794:	40016000 	mfc0	at,$12
    f798:	34210001 	ori	at,at,0x1
    f79c:	38210001 	xori	at,at,0x1
    f7a0:	40816000 	mtc0	at,$12
    f7a4:	24040024 	li	a0,36
    f7a8:	0c004495 	jal	0x11254
    f7ac:	3605ffff 	ori	a1,s0,0xffff
    f7b0:	3053001f 	andi	s3,v0,0x1f
    f7b4:	40016000 	mfc0	at,$12
    f7b8:	34210001 	ori	at,at,0x1
    f7bc:	40816000 	mtc0	at,$12
    f7c0:	0c000c54 	jal	0x3150
    f7c4:	24040064 	li	a0,100
    f7c8:	08005859 	j	0x16164
    f7cc:	3c02b025 	lui	v0,0xb025
    f7d0:	8c654030 	lw	a1,16432(v1)
    f7d4:	08005abb 	j	0x16aec
    f7d8:	3c04b025 	lui	a0,0xb025
    f7dc:	3084ff00 	andi	a0,a0,0xff00
    f7e0:	00042202 	srl	a0,a0,0x8
    f7e4:	10800008 	beqz	a0,0xf808
    f7e8:	3c028002 	lui	v0,0x8002
    f7ec:	240200ff 	li	v0,255
    f7f0:	10820004 	beq	a0,v0,0xf804
    f7f4:	2403ffcc 	li	v1,-52
    f7f8:	3c028002 	lui	v0,0x8002
    f7fc:	03e00008 	jr	ra
    f800:	a043584e 	sb	v1,22606(v0)
    f804:	3c028002 	lui	v0,0x8002
    f808:	03e00008 	jr	ra
    f80c:	a044584e 	sb	a0,22606(v0)
    f810:	00042402 	srl	a0,a0,0x10
    f814:	308400ff 	andi	a0,a0,0xff
    f818:	000410c0 	sll	v0,a0,0x3
    f81c:	00441021 	addu	v0,v0,a0
    f820:	00021080 	sll	v0,v0,0x2
    f824:	00441021 	addu	v0,v0,a0
    f828:	3c038002 	lui	v1,0x8002
    f82c:	00021080 	sll	v0,v0,0x2
    f830:	24631568 	addiu	v1,v1,5480
    f834:	2c840020 	sltiu	a0,a0,32
    f838:	10800009 	beqz	a0,0xf860
    f83c:	00431021 	addu	v0,v0,v1
    f840:	8c43517c 	lw	v1,20860(v0)
    f844:	3c02b025 	lui	v0,0xb025
    f848:	344202c4 	ori	v0,v0,0x2c4
    f84c:	00031902 	srl	v1,v1,0x4
    f850:	3063007f 	andi	v1,v1,0x7f
    f854:	ac430000 	sw	v1,0(v0)
    f858:	03e00008 	jr	ra
    f85c:	00000000 	nop
    f860:	3c028002 	lui	v0,0x8002
    f864:	8c437958 	lw	v1,31064(v0)
    f868:	3c02b025 	lui	v0,0xb025
    f86c:	344202c4 	ori	v0,v0,0x2c4
    f870:	00031902 	srl	v1,v1,0x4
    f874:	3063007f 	andi	v1,v1,0x7f
    f878:	ac430000 	sw	v1,0(v0)
    f87c:	03e00008 	jr	ra
    f880:	00000000 	nop
    f884:	308500ff 	andi	a1,a0,0xff
    f888:	24a3ffd2 	addiu	v1,a1,-46
    f88c:	24a2fffe 	addiu	v0,a1,-2
    f890:	24a4ffda 	addiu	a0,a1,-38
    f894:	2c630004 	sltiu	v1,v1,4
    f898:	2c840008 	sltiu	a0,a0,8
    f89c:	14600006 	bnez	v1,0xf8b8
    f8a0:	304200ff 	andi	v0,v0,0xff
    f8a4:	24a2fff0 	addiu	v0,a1,-16
    f8a8:	24a3fffc 	addiu	v1,a1,-4
    f8ac:	2c460016 	sltiu	a2,v0,22
    f8b0:	10800003 	beqz	a0,0xf8c0
    f8b4:	306200ff 	andi	v0,v1,0xff
    f8b8:	03e00008 	jr	ra
    f8bc:	00000000 	nop
    f8c0:	24a3fffa 	addiu	v1,a1,-6
    f8c4:	10c0fffc 	beqz	a2,0xf8b8
    f8c8:	00a01021 	move	v0,a1
    f8cc:	03e00008 	jr	ra
    f8d0:	306200ff 	andi	v0,v1,0xff
    f8d4:	27bdffe0 	addiu	sp,sp,-32
    f8d8:	24020044 	li	v0,68
    f8dc:	a3a20010 	sb	v0,16(sp)
    f8e0:	24030049 	li	v1,73
    f8e4:	24020047 	li	v0,71
    f8e8:	3c078002 	lui	a3,0x8002
    f8ec:	24e7adcc 	addiu	a3,a3,-21044
    f8f0:	a3a30011 	sb	v1,17(sp)
    f8f4:	a3a20012 	sb	v0,18(sp)
    f8f8:	240301f4 	li	v1,500
    f8fc:	24020001 	li	v0,1
    f900:	3c068001 	lui	a2,0x8001
    f904:	27a50010 	addiu	a1,sp,16
    f908:	00e02021 	move	a0,a3
    f90c:	24c66cdc 	addiu	a2,a2,27868
    f910:	ace3000c 	sw	v1,12(a3)
    f914:	a0e20014 	sb	v0,20(a3)
    f918:	afbf0018 	sw	ra,24(sp)
    f91c:	0c000fab 	jal	0x3eac
    f920:	a3a00013 	sb	zero,19(sp)
    f924:	8fbf0018 	lw	ra,24(sp)
    f928:	00000000 	nop
    f92c:	03e00008 	jr	ra
    f930:	27bd0020 	addiu	sp,sp,32
    f934:	27bdffe0 	addiu	sp,sp,-32
    f938:	afbf0018 	sw	ra,24(sp)
    f93c:	afb10014 	sw	s1,20(sp)
    f940:	afb00010 	sw	s0,16(sp)
    f944:	3c028002 	lui	v0,0x8002
    f948:	90447e26 	lbu	a0,32294(v0)
    f94c:	24030022 	li	v1,34
    f950:	10830007 	beq	a0,v1,0xf970
    f954:	3c04b025 	lui	a0,0xb025
    f958:	8fbf0018 	lw	ra,24(sp)
    f95c:	8fb10014 	lw	s1,20(sp)
    f960:	8fb00010 	lw	s0,16(sp)
    f964:	00001021 	move	v0,zero
    f968:	03e00008 	jr	ra
    f96c:	27bd0020 	addiu	sp,sp,32
    f970:	3483004c 	ori	v1,a0,0x4c
    f974:	90620000 	lbu	v0,0(v1)
    f978:	00000000 	nop
    f97c:	30420003 	andi	v0,v0,0x3
    f980:	1040fff5 	beqz	v0,0xf958
    f984:	3c118002 	lui	s1,0x8002
    f988:	26301568 	addiu	s0,s1,5480
    f98c:	8e0563f8 	lw	a1,25592(s0)
    f990:	3402ffff 	li	v0,0xffff
    f994:	10a2fff0 	beq	a1,v0,0xf958
    f998:	00000000 	nop
    f99c:	8e0263f0 	lw	v0,25584(s0)
    f9a0:	00000000 	nop
    f9a4:	00021102 	srl	v0,v0,0x4
    f9a8:	3042007f 	andi	v0,v0,0x7f
    f9ac:	2c43003f 	sltiu	v1,v0,63
    f9b0:	14600012 	bnez	v1,0xf9fc
    f9b4:	2c42003b 	sltiu	v0,v0,59
    f9b8:	8e0263fc 	lw	v0,25596(s0)
    f9bc:	00051902 	srl	v1,a1,0x4
    f9c0:	00021102 	srl	v0,v0,0x4
    f9c4:	00621823 	subu	v1,v1,v0
    f9c8:	1860001d 	blez	v1,0xfa40
    f9cc:	3c050222 	lui	a1,0x222
    f9d0:	3c050112 	lui	a1,0x112
    f9d4:	3484090c 	ori	a0,a0,0x90c
    f9d8:	34a51313 	ori	a1,a1,0x1313
    f9dc:	0c00540e 	jal	0x15038
    f9e0:	00000000 	nop
    f9e4:	26221568 	addiu	v0,s1,5480
    f9e8:	8c4342e4 	lw	v1,17124(v0)
    f9ec:	3c042000 	lui	a0,0x2000
    f9f0:	00641825 	or	v1,v1,a0
    f9f4:	08005b40 	j	0x16d00
    f9f8:	ac4342e4 	sw	v1,17124(v0)
    f9fc:	1040ffd6 	beqz	v0,0xf958
    fa00:	24030001 	li	v1,1
    fa04:	8e0242e4 	lw	v0,17124(s0)
    fa08:	00000000 	nop
    fa0c:	00021742 	srl	v0,v0,0x1d
    fa10:	30420001 	andi	v0,v0,0x1
    fa14:	1443ffd0 	bne	v0,v1,0xf958
    fa18:	3c050332 	lui	a1,0x332
    fa1c:	3484090c 	ori	a0,a0,0x90c
    fa20:	0c00540e 	jal	0x15038
    fa24:	34a51333 	ori	a1,a1,0x1333
    fa28:	8e0342e4 	lw	v1,17124(s0)
    fa2c:	3c02dfff 	lui	v0,0xdfff
    fa30:	3442ffff 	ori	v0,v0,0xffff
    fa34:	00621824 	and	v1,v1,v0
    fa38:	08005b40 	j	0x16d00
    fa3c:	ae0342e4 	sw	v1,17124(s0)
    fa40:	3484090c 	ori	a0,a0,0x90c
    fa44:	08005b61 	j	0x16d84
    fa48:	34a51323 	ori	a1,a1,0x1323
    fa4c:	3c03b025 	lui	v1,0xb025
    fa50:	34630d03 	ori	v1,v1,0xd03
    fa54:	90620000 	lbu	v0,0(v1)
    fa58:	00002021 	move	a0,zero
    fa5c:	304200ff 	andi	v0,v0,0xff
    fa60:	34420008 	ori	v0,v0,0x8
    fa64:	a0620000 	sb	v0,0(v1)
    fa68:	24820001 	addiu	v0,a0,1
    fa6c:	304400ff 	andi	a0,v0,0xff
    fa70:	2c830006 	sltiu	v1,a0,6
    fa74:	1460fffd 	bnez	v1,0xfa6c
    fa78:	24820001 	addiu	v0,a0,1
    fa7c:	3c03b025 	lui	v1,0xb025
    fa80:	34630d03 	ori	v1,v1,0xd03
    fa84:	90620000 	lbu	v0,0(v1)
    fa88:	00002021 	move	a0,zero
    fa8c:	304200f7 	andi	v0,v0,0xf7
    fa90:	a0620000 	sb	v0,0(v1)
    fa94:	24820001 	addiu	v0,a0,1
    fa98:	304400ff 	andi	a0,v0,0xff
    fa9c:	2c830006 	sltiu	v1,a0,6
    faa0:	1460fffd 	bnez	v1,0xfa98
    faa4:	24820001 	addiu	v0,a0,1
    faa8:	3c03b025 	lui	v1,0xb025
    faac:	34630a2d 	ori	v1,v1,0xa2d
    fab0:	90620000 	lbu	v0,0(v1)
    fab4:	00002021 	move	a0,zero
    fab8:	3042003f 	andi	v0,v0,0x3f
    fabc:	a0620000 	sb	v0,0(v1)
    fac0:	24820001 	addiu	v0,a0,1
    fac4:	304400ff 	andi	a0,v0,0xff
    fac8:	2c830006 	sltiu	v1,a0,6
    facc:	1460fffd 	bnez	v1,0xfac4
    fad0:	24820001 	addiu	v0,a0,1
    fad4:	3c03b025 	lui	v1,0xb025
    fad8:	34630a2d 	ori	v1,v1,0xa2d
    fadc:	90620000 	lbu	v0,0(v1)
    fae0:	00002021 	move	a0,zero
    fae4:	304200ff 	andi	v0,v0,0xff
    fae8:	34420080 	ori	v0,v0,0x80
    faec:	a0620000 	sb	v0,0(v1)
    faf0:	24820001 	addiu	v0,a0,1
    faf4:	304400ff 	andi	a0,v0,0xff
    faf8:	2c830006 	sltiu	v1,a0,6
    fafc:	1460fffc 	bnez	v1,0xfaf0
    fb00:	00000000 	nop
    fb04:	03e00008 	jr	ra
    fb08:	00000000 	nop
    fb0c:	3c02b025 	lui	v0,0xb025
    fb10:	3c0300ff 	lui	v1,0xff
    fb14:	34490182 	ori	t1,v0,0x182
    fb18:	34480181 	ori	t0,v0,0x181
    fb1c:	00831024 	and	v0,a0,v1
    fb20:	00023c02 	srl	a3,v0,0x10
    fb24:	3463ff00 	ori	v1,v1,0xff00
    fb28:	3c028002 	lui	v0,0x8002
    fb2c:	24451568 	addiu	a1,v0,5480
    fb30:	00043202 	srl	a2,a0,0x8
    fb34:	24020001 	li	v0,1
    fb38:	00832024 	and	a0,a0,v1
    fb3c:	a0a24cd6 	sb	v0,19670(a1)
    fb40:	aca04cc4 	sw	zero,19652(a1)
    fb44:	aca04cc8 	sw	zero,19656(a1)
    fb48:	aca04ccc 	sw	zero,19660(a1)
    fb4c:	14800006 	bnez	a0,0xfb68
    fb50:	aca04cd0 	sw	zero,19664(a1)
    fb54:	91020000 	lbu	v0,0(t0)
    fb58:	91230000 	lbu	v1,0(t1)
    fb5c:	a0a24cd4 	sb	v0,19668(a1)
    fb60:	03e00008 	jr	ra
    fb64:	a0a34cd5 	sb	v1,19669(a1)
    fb68:	a0a74cd5 	sb	a3,19669(a1)
    fb6c:	03e00008 	jr	ra
    fb70:	a0a64cd4 	sb	a2,19668(a1)
    fb74:	3c038002 	lui	v1,0x8002
    fb78:	24631568 	addiu	v1,v1,5480
    fb7c:	90664cd5 	lbu	a2,19669(v1)
    fb80:	90654cd4 	lbu	a1,19668(v1)
    fb84:	3c02b025 	lui	v0,0xb025
    fb88:	34440182 	ori	a0,v0,0x182
    fb8c:	34420181 	ori	v0,v0,0x181
    fb90:	a0450000 	sb	a1,0(v0)
    fb94:	a0860000 	sb	a2,0(a0)
    fb98:	03e00008 	jr	ra
    fb9c:	a0604cd6 	sb	zero,19670(v1)
    fba0:	3c088002 	lui	t0,0x8002
    fba4:	25041568 	addiu	a0,t0,5480
    fba8:	90824cd6 	lbu	v0,19670(a0)
    fbac:	00000000 	nop
    fbb0:	10400015 	beqz	v0,0xfc08
    fbb4:	00001821 	move	v1,zero
    fbb8:	8c824cc8 	lw	v0,19656(a0)
    fbbc:	8c854cc4 	lw	a1,19652(a0)
    fbc0:	3c03b025 	lui	v1,0xb025
    fbc4:	00021140 	sll	v0,v0,0x5
    fbc8:	00a2102b 	sltu	v0,a1,v0
    fbcc:	34670182 	ori	a3,v1,0x182
    fbd0:	1040000f 	beqz	v0,0xfc10
    fbd4:	34660181 	ori	a2,v1,0x181
    fbd8:	90834cd5 	lbu	v1,19669(a0)
    fbdc:	90824cd4 	lbu	v0,19668(a0)
    fbe0:	306300f0 	andi	v1,v1,0xf0
    fbe4:	3042001f 	andi	v0,v0,0x1f
    fbe8:	a0c20000 	sb	v0,0(a2)
    fbec:	a0e30000 	sb	v1,0(a3)
    fbf0:	25021568 	addiu	v0,t0,5480
    fbf4:	24030001 	li	v1,1
    fbf8:	ac404cd0 	sw	zero,19664(v0)
    fbfc:	ac404cc4 	sw	zero,19652(v0)
    fc00:	ac404cc8 	sw	zero,19656(v0)
    fc04:	ac404ccc 	sw	zero,19660(v0)
    fc08:	03e00008 	jr	ra
    fc0c:	00601021 	move	v0,v1
    fc10:	8c824ccc 	lw	v0,19660(a0)
    fc14:	3c03b025 	lui	v1,0xb025
    fc18:	34690182 	ori	t1,v1,0x182
    fc1c:	00021140 	sll	v0,v0,0x5
    fc20:	00a2102b 	sltu	v0,a1,v0
    fc24:	1440000e 	bnez	v0,0xfc60
    fc28:	34660181 	ori	a2,v1,0x181
    fc2c:	8c824cd0 	lw	v0,19664(a0)
    fc30:	00000000 	nop
    fc34:	00021140 	sll	v0,v0,0x5
    fc38:	00a2102b 	sltu	v0,a1,v0
    fc3c:	14400008 	bnez	v0,0xfc60
    fc40:	00000000 	nop
    fc44:	90834cd5 	lbu	v1,19669(a0)
    fc48:	90824cd4 	lbu	v0,19668(a0)
    fc4c:	00000000 	nop
    fc50:	a0c20000 	sb	v0,0(a2)
    fc54:	a1230000 	sb	v1,0(t1)
    fc58:	08005be7 	j	0x16f9c
    fc5c:	25021568 	addiu	v0,t0,5480
    fc60:	90834cd5 	lbu	v1,19669(a0)
    fc64:	90824cd4 	lbu	v0,19668(a0)
    fc68:	306300f0 	andi	v1,v1,0xf0
    fc6c:	3042007f 	andi	v0,v0,0x7f
    fc70:	a0c20000 	sb	v0,0(a2)
    fc74:	a1230000 	sb	v1,0(t1)
    fc78:	08005be7 	j	0x16f9c
    fc7c:	25021568 	addiu	v0,t0,5480
    fc80:	ac850000 	sw	a1,0(a0)
    fc84:	00001021 	move	v0,zero
    fc88:	24420001 	addiu	v0,v0,1
    fc8c:	304200ff 	andi	v0,v0,0xff
    fc90:	2c430006 	sltiu	v1,v0,6
    fc94:	1460fffc 	bnez	v1,0xfc88
    fc98:	00000000 	nop
    fc9c:	03e00008 	jr	ra
    fca0:	00000000 	nop
    fca4:	3c03b025 	lui	v1,0xb025
    fca8:	34650233 	ori	a1,v1,0x233
    fcac:	00041100 	sll	v0,a0,0x4
    fcb0:	a0a20000 	sb	v0,0(a1)
    fcb4:	34630230 	ori	v1,v1,0x230
    fcb8:	8c650000 	lw	a1,0(v1)
    fcbc:	3c02000f 	lui	v0,0xf
    fcc0:	3442ffff 	ori	v0,v0,0xffff
    fcc4:	00a22824 	and	a1,a1,v0
    fcc8:	24030001 	li	v1,1
    fccc:	00831804 	sllv	v1,v1,a0
    fcd0:	10a00002 	beqz	a1,0xfcdc
    fcd4:	00001021 	move	v0,zero
    fcd8:	3062ffff 	andi	v0,v1,0xffff
    fcdc:	03e00008 	jr	ra
    fce0:	00000000 	nop
    fce4:	27bdffe0 	addiu	sp,sp,-32
    fce8:	afb10014 	sw	s1,20(sp)
    fcec:	3c11b025 	lui	s1,0xb025
    fcf0:	afb20018 	sw	s2,24(sp)
    fcf4:	3622004c 	ori	v0,s1,0x4c
    fcf8:	afbf001c 	sw	ra,28(sp)
    fcfc:	afb00010 	sw	s0,16(sp)
    fd00:	90440000 	lbu	a0,0(v0)
    fd04:	3c038002 	lui	v1,0x8002
    fd08:	24020002 	li	v0,2
    fd0c:	308400ff 	andi	a0,a0,0xff
    fd10:	10820007 	beq	a0,v0,0xfd30
    fd14:	24721568 	addiu	s2,v1,5480
    fd18:	8fbf001c 	lw	ra,28(sp)
    fd1c:	8fb20018 	lw	s2,24(sp)
    fd20:	8fb10014 	lw	s1,20(sp)
    fd24:	8fb00010 	lw	s0,16(sp)
    fd28:	03e00008 	jr	ra
    fd2c:	27bd0020 	addiu	sp,sp,32
    fd30:	9643645a 	lhu	v1,25690(s2)
    fd34:	24020001 	li	v0,1
    fd38:	1462fff7 	bne	v1,v0,0xfd18
    fd3c:	00002021 	move	a0,zero
    fd40:	0c005c13 	jal	0x1704c
    fd44:	00000000 	nop
    fd48:	24040004 	li	a0,4
    fd4c:	0c005c13 	jal	0x1704c
    fd50:	00408021 	move	s0,v0
    fd54:	02028025 	or	s0,s0,v0
    fd58:	36230233 	ori	v1,s1,0x233
    fd5c:	24020008 	li	v0,8
    fd60:	3210ffff 	andi	s0,s0,0xffff
    fd64:	36250040 	ori	a1,s1,0x40
    fd68:	a0620000 	sb	v0,0(v1)
    fd6c:	1600ffea 	bnez	s0,0xfd18
    fd70:	00000000 	nop
    fd74:	94a20000 	lhu	v0,0(a1)
    fd78:	96436458 	lhu	v1,25688(s2)
    fd7c:	3042dfff 	andi	v0,v0,0xdfff
    fd80:	34442000 	ori	a0,v0,0x2000
    fd84:	24630001 	addiu	v1,v1,1
    fd88:	a6436458 	sh	v1,25688(s2)
    fd8c:	a4a20000 	sh	v0,0(a1)
    fd90:	a4a40000 	sh	a0,0(a1)
    fd94:	08005c30 	j	0x170c0
    fd98:	00000000 	nop
    fd9c:	03e00008 	jr	ra
    fda0:	00000000 	nop
    fda4:	03e00008 	jr	ra
    fda8:	00000000 	nop
    fdac:	27bdffb8 	addiu	sp,sp,-72
    fdb0:	3c028002 	lui	v0,0x8002
    fdb4:	afb1003c 	sw	s1,60(sp)
    fdb8:	afb00038 	sw	s0,56(sp)
    fdbc:	afbf0040 	sw	ra,64(sp)
    fdc0:	24501568 	addiu	s0,v0,5480
    fdc4:	8e03640c 	lw	v1,25612(s0)
    fdc8:	3c118002 	lui	s1,0x8002
    fdcc:	24020001 	li	v0,1
    fdd0:	30630001 	andi	v1,v1,0x1
    fdd4:	27a40010 	addiu	a0,sp,16
    fdd8:	26257978 	addiu	a1,s1,31096
    fddc:	10620007 	beq	v1,v0,0xfdfc
    fde0:	2406000a 	li	a2,10
    fde4:	8fbf0040 	lw	ra,64(sp)
    fde8:	8fb1003c 	lw	s1,60(sp)
    fdec:	8fb00038 	lw	s0,56(sp)
    fdf0:	00001021 	move	v0,zero
    fdf4:	03e00008 	jr	ra
    fdf8:	27bd0048 	addiu	sp,sp,72
    fdfc:	0c00456c 	jal	0x115b0
    fe00:	00000000 	nop
    fe04:	40016000 	mfc0	at,$12
    fe08:	34210001 	ori	at,at,0x1
    fe0c:	38210001 	xori	at,at,0x1
    fe10:	40816000 	mtc0	at,$12
    fe14:	00002821 	move	a1,zero
    fe18:	26247978 	addiu	a0,s1,31096
    fe1c:	0c004558 	jal	0x11560
    fe20:	2406000a 	li	a2,10
    fe24:	24030028 	li	v1,40
    fe28:	24020005 	li	v0,5
    fe2c:	a2036411 	sb	v1,25617(s0)
    fe30:	a2026410 	sb	v0,25616(s0)
    fe34:	40016000 	mfc0	at,$12
    fe38:	34210001 	ori	at,at,0x1
    fe3c:	40816000 	mtc0	at,$12
    fe40:	0c005169 	jal	0x145a4
    fe44:	24040048 	li	a0,72
    fe48:	00408021 	move	s0,v0
    fe4c:	27a50010 	addiu	a1,sp,16
    fe50:	1040ffe4 	beqz	v0,0xfde4
    fe54:	2406000a 	li	a2,10
    fe58:	94440008 	lhu	a0,8(v0)
    fe5c:	24020014 	li	v0,20
    fe60:	ae020014 	sw	v0,20(s0)
    fe64:	3c028002 	lui	v0,0x8002
    fe68:	24030028 	li	v1,40
    fe6c:	00822025 	or	a0,a0,v0
    fe70:	ae03000c 	sw	v1,12(s0)
    fe74:	0c00456c 	jal	0x115b0
    fe78:	24840020 	addiu	a0,a0,32
    fe7c:	0c000830 	jal	0x20c0
    fe80:	02002021 	move	a0,s0
    fe84:	08005c63 	j	0x1718c
    fe88:	00000000 	nop
    fe8c:	3c038001 	lui	v1,0x8001
    fe90:	3c02b025 	lui	v0,0xb025
    fe94:	34420318 	ori	v0,v0,0x318
    fe98:	24637234 	addiu	v1,v1,29236
    fe9c:	ac430000 	sw	v1,0(v0)
    fea0:	24020063 	li	v0,99
    fea4:	2442ffff 	addiu	v0,v0,-1
    fea8:	0441ffff 	bgez	v0,0xfea8
    feac:	2442ffff 	addiu	v0,v0,-1
    feb0:	3c028002 	lui	v0,0x8002
    feb4:	94457e20 	lhu	a1,32288(v0)
    feb8:	3c038002 	lui	v1,0x8002
    febc:	3c028002 	lui	v0,0x8002
    fec0:	90667e23 	lbu	a2,32291(v1)
    fec4:	90477e30 	lbu	a3,32304(v0)
    fec8:	3c038002 	lui	v1,0x8002
    fecc:	3c028002 	lui	v0,0x8002
    fed0:	90697e3b 	lbu	t1,32315(v1)
    fed4:	904a7e3d 	lbu	t2,32317(v0)
    fed8:	3c038002 	lui	v1,0x8002
    fedc:	3c028002 	lui	v0,0x8002
    fee0:	906b7e40 	lbu	t3,32320(v1)
    fee4:	904c7e42 	lbu	t4,32322(v0)
    fee8:	24030007 	li	v1,7
    feec:	3c028002 	lui	v0,0x8002
    fef0:	3c04b025 	lui	a0,0xb025
    fef4:	a0437e2d 	sb	v1,32301(v0)
    fef8:	348403b0 	ori	a0,a0,0x3b0
    fefc:	3c028002 	lui	v0,0x8002
    ff00:	3c188002 	lui	t8,0x8002
    ff04:	93087e22 	lbu	t0,32290(t8)
    ff08:	ac850000 	sw	a1,0(a0)
    ff0c:	a0407e2e 	sb	zero,32302(v0)
    ff10:	3c028002 	lui	v0,0x8002
    ff14:	ac860000 	sw	a2,0(a0)
    ff18:	3c0f8002 	lui	t7,0x8002
    ff1c:	a0407e2f 	sb	zero,32303(v0)
    ff20:	3c028002 	lui	v0,0x8002
    ff24:	ac870000 	sw	a3,0(a0)
    ff28:	25ee1568 	addiu	t6,t7,5480
    ff2c:	a0407e50 	sb	zero,32336(v0)
    ff30:	2402fffd 	li	v0,-3
    ff34:	a1c24add 	sb	v0,19165(t6)
    ff38:	24030001 	li	v1,1
    ff3c:	24027800 	li	v0,30720
    ff40:	a1c34adc 	sb	v1,19164(t6)
    ff44:	a5c24ae0 	sh	v0,19168(t6)
    ff48:	240307ff 	li	v1,2047
    ff4c:	310d000f 	andi	t5,t0,0xf
    ff50:	24020002 	li	v0,2
    ff54:	a5c34ae2 	sh	v1,19170(t6)
    ff58:	ac880000 	sw	t0,0(a0)
    ff5c:	ac890000 	sw	t1,0(a0)
    ff60:	ac8a0000 	sw	t2,0(a0)
    ff64:	ac8b0000 	sw	t3,0(a0)
    ff68:	ac8c0000 	sw	t4,0(a0)
    ff6c:	11a20017 	beq	t5,v0,0xffcc
    ff70:	3c028002 	lui	v0,0x8002
    ff74:	93027e22 	lbu	v0,32290(t8)
    ff78:	24030001 	li	v1,1
    ff7c:	3042000f 	andi	v0,v0,0xf
    ff80:	10430005 	beq	v0,v1,0xff98
    ff84:	00000000 	nop
    ff88:	3c028002 	lui	v0,0x8002
    ff8c:	a4407e62 	sh	zero,32354(v0)
    ff90:	03e00008 	jr	ra
    ff94:	00000000 	nop
    ff98:	3c028000 	lui	v0,0x8000
    ff9c:	25e41568 	addiu	a0,t7,5480
    ffa0:	3442bc02 	ori	v0,v0,0xbc02
    ffa4:	ac824b70 	sw	v0,19312(a0)
    ffa8:	3c031515 	lui	v1,0x1515
    ffac:	3c020202 	lui	v0,0x202
    ffb0:	34630707 	ori	v1,v1,0x707
    ffb4:	ac824b6c 	sw	v0,19308(a0)
    ffb8:	3c028002 	lui	v0,0x8002
    ffbc:	ac834b68 	sw	v1,19304(a0)
    ffc0:	a4407e62 	sh	zero,32354(v0)
    ffc4:	03e00008 	jr	ra
    ffc8:	00000000 	nop
    ffcc:	90447e27 	lbu	a0,32295(v0)
    ffd0:	24030006 	li	v1,6
    ffd4:	10830015 	beq	a0,v1,0x1002c
    ffd8:	2402000b 	li	v0,11
    ffdc:	1082000a 	beq	a0,v0,0x10008
    ffe0:	3c02e000 	lui	v0,0xe000
    ffe4:	25e41568 	addiu	a0,t7,5480
    ffe8:	3442b200 	ori	v0,v0,0xb200
    ffec:	3c031c00 	lui	v1,0x1c00
    fff0:	ac824b70 	sw	v0,19312(a0)
    fff4:	34631c00 	ori	v1,v1,0x1c00
    fff8:	24020400 	li	v0,1024
    fffc:	ac834b68 	sw	v1,19304(a0)
   10000:	08005cc7 	j	0x1731c
   10004:	ac824b6c 	sw	v0,19308(a0)
   10008:	3c028000 	lui	v0,0x8000
   1000c:	3442bc00 	ori	v0,v0,0xbc00
   10010:	3c031515 	lui	v1,0x1515
   10014:	adc24b70 	sw	v0,19312(t6)
   10018:	34630707 	ori	v1,v1,0x707
   1001c:	3c020303 	lui	v0,0x303
   10020:	adc34b68 	sw	v1,19304(t6)
   10024:	08005cc7 	j	0x1731c
   10028:	adc24b6c 	sw	v0,19308(t6)
   1002c:	3c02c000 	lui	v0,0xc000
   10030:	3442b200 	ori	v0,v0,0xb200
   10034:	3c031c1c 	lui	v1,0x1c1c
   10038:	adc24b70 	sw	v0,19312(t6)
   1003c:	34630707 	ori	v1,v1,0x707
   10040:	24020400 	li	v0,1024
   10044:	adc34b68 	sw	v1,19304(t6)
   10048:	08005cc7 	j	0x1731c
   1004c:	adc24b6c 	sw	v0,19308(t6)
   10050:	03e00008 	jr	ra
   10054:	00000000 	nop
   10058:	3c02007f 	lui	v0,0x7f
   1005c:	3445bffd 	ori	a1,v0,0xbffd
   10060:	3c030480 	lui	v1,0x480
   10064:	00a32825 	or	a1,a1,v1
   10068:	3c040800 	lui	a0,0x800
   1006c:	3c028002 	lui	v0,0x8002
   10070:	24421568 	addiu	v0,v0,5480
   10074:	00a42825 	or	a1,a1,a0
   10078:	3c03b041 	lui	v1,0xb041
   1007c:	ac650000 	sw	a1,0(v1)
   10080:	ac454b0c 	sw	a1,19212(v0)
   10084:	ac454b04 	sw	a1,19204(v0)
   10088:	34630008 	ori	v1,v1,0x8
   1008c:	24050086 	li	a1,134
   10090:	a4650000 	sh	a1,0(v1)
   10094:	a4454b10 	sh	a1,19216(v0)
   10098:	ac404b08 	sw	zero,19208(v0)
   1009c:	a4404b12 	sh	zero,19218(v0)
   100a0:	a4454b14 	sh	a1,19220(v0)
   100a4:	40016000 	mfc0	at,$12
   100a8:	34210001 	ori	at,at,0x1
   100ac:	40816000 	mtc0	at,$12
   100b0:	03e00008 	jr	ra
   100b4:	00000000 	nop
   100b8:	08005d18 	j	0x17460
   100bc:	00000000 	nop
   100c0:	3c02b042 	lui	v0,0xb042
   100c4:	2403ffa0 	li	v1,-96
   100c8:	34420001 	ori	v0,v0,0x1
   100cc:	27bdffe8 	addiu	sp,sp,-24
   100d0:	00002021 	move	a0,zero
   100d4:	24050001 	li	a1,1
   100d8:	24060100 	li	a2,256
   100dc:	a0430000 	sb	v1,0(v0)
   100e0:	afbf0010 	sw	ra,16(sp)
   100e4:	0c000f74 	jal	0x3dd0
   100e8:	00000000 	nop
   100ec:	8fbf0010 	lw	ra,16(sp)
   100f0:	24040003 	li	a0,3
   100f4:	24050001 	li	a1,1
   100f8:	24061f40 	li	a2,8000
   100fc:	08000f74 	j	0x3dd0
   10100:	27bd0018 	addiu	sp,sp,24
   10104:	27bdffe0 	addiu	sp,sp,-32
   10108:	afb00010 	sw	s0,16(sp)
   1010c:	3c108002 	lui	s0,0x8002
   10110:	26101568 	addiu	s0,s0,5480
   10114:	a2004b7e 	sb	zero,19326(s0)
   10118:	afb10014 	sw	s1,20(sp)
   1011c:	afbf0018 	sw	ra,24(sp)
   10120:	0c00606b 	jal	0x181ac
   10124:	02008821 	move	s1,s0
   10128:	24020148 	li	v0,328
   1012c:	ae0263f4 	sw	v0,25588(s0)
   10130:	ae0263f0 	sw	v0,25584(s0)
   10134:	02001021 	move	v0,s0
   10138:	2403001f 	li	v1,31
   1013c:	2463ffff 	addiu	v1,v1,-1
   10140:	a4404cd8 	sh	zero,19672(v0)
   10144:	a4404cda 	sh	zero,19674(v0)
   10148:	a4404cdc 	sh	zero,19676(v0)
   1014c:	a4404cde 	sh	zero,19678(v0)
   10150:	a4404ce0 	sh	zero,19680(v0)
   10154:	a4404ce2 	sh	zero,19682(v0)
   10158:	a4404ce4 	sh	zero,19684(v0)
   1015c:	a4404ce6 	sh	zero,19686(v0)
   10160:	a4404ce8 	sh	zero,19688(v0)
   10164:	0461fff5 	bgez	v1,0x1013c
   10168:	24420024 	addiu	v0,v0,36
   1016c:	3c02b025 	lui	v0,0xb025
   10170:	24030010 	li	v1,16
   10174:	344203b0 	ori	v0,v0,0x3b0
   10178:	3c048002 	lui	a0,0x8002
   1017c:	24845894 	addiu	a0,a0,22676
   10180:	ac430000 	sw	v1,0(v0)
   10184:	00002821 	move	a1,zero
   10188:	0c004558 	jal	0x11560
   1018c:	24060004 	li	a2,4
   10190:	0c006139 	jal	0x184e4
   10194:	00000000 	nop
   10198:	0c0061c1 	jal	0x18704
   1019c:	ae206620 	sw	zero,26144(s1)
   101a0:	0c0062f7 	jal	0x18bdc
   101a4:	00000000 	nop
   101a8:	0c005b1f 	jal	0x16c7c
   101ac:	00000000 	nop
   101b0:	3c038002 	lui	v1,0x8002
   101b4:	90647e26 	lbu	a0,32294(v1)
   101b8:	24020092 	li	v0,146
   101bc:	10820003 	beq	a0,v0,0x101cc
   101c0:	00000000 	nop
   101c4:	0c006360 	jal	0x18d80
   101c8:	00000000 	nop
   101cc:	0c006346 	jal	0x18d18
   101d0:	00000000 	nop
   101d4:	0c0061db 	jal	0x1876c
   101d8:	00000000 	nop
   101dc:	0c0063d0 	jal	0x18f40
   101e0:	00000000 	nop
   101e4:	a620645a 	sh	zero,25690(s1)
   101e8:	0c0063b6 	jal	0x18ed8
   101ec:	a6206458 	sh	zero,25688(s1)
   101f0:	3c048002 	lui	a0,0x8002
   101f4:	3c058002 	lui	a1,0x8002
   101f8:	24827b8c 	addiu	v0,a0,31628
   101fc:	24a37b94 	addiu	v1,a1,31636
   10200:	a2206479 	sb	zero,25721(s1)
   10204:	8fbf0018 	lw	ra,24(sp)
   10208:	ac420004 	sw	v0,4(v0)
   1020c:	ac827b8c 	sw	v0,31628(a0)
   10210:	aca37b94 	sw	v1,31636(a1)
   10214:	ac630004 	sw	v1,4(v1)
   10218:	8fb00010 	lw	s0,16(sp)
   1021c:	a2206464 	sb	zero,25700(s1)
   10220:	a2206465 	sb	zero,25701(s1)
   10224:	a6206466 	sh	zero,25702(s1)
   10228:	ae20646c 	sw	zero,25708(s1)
   1022c:	ae206470 	sw	zero,25712(s1)
   10230:	ae206474 	sw	zero,25716(s1)
   10234:	a2206478 	sb	zero,25720(s1)
   10238:	8fb10014 	lw	s1,20(sp)
   1023c:	03e00008 	jr	ra
   10240:	27bd0020 	addiu	sp,sp,32
   10244:	3c038001 	lui	v1,0x8001
   10248:	3c02b025 	lui	v0,0xb025
   1024c:	246375ec 	addiu	v1,v1,30188
   10250:	34420318 	ori	v0,v0,0x318
   10254:	ac430000 	sw	v1,0(v0)
   10258:	08006053 	j	0x1814c
   1025c:	00000000 	nop
   10260:	27bdffe8 	addiu	sp,sp,-24
   10264:	afb00010 	sw	s0,16(sp)
   10268:	3c028001 	lui	v0,0x8001
   1026c:	3c10b025 	lui	s0,0xb025
   10270:	36030318 	ori	v1,s0,0x318
   10274:	24427608 	addiu	v0,v0,30216
   10278:	ac620000 	sw	v0,0(v1)
   1027c:	afbf0014 	sw	ra,20(sp)
   10280:	0c005c8d 	jal	0x17234
   10284:	00000000 	nop
   10288:	0c005e07 	jal	0x1781c
   1028c:	00000000 	nop
   10290:	24030001 	li	v1,1
   10294:	3c028002 	lui	v0,0x8002
   10298:	0c00602f 	jal	0x180bc
   1029c:	a04360ef 	sb	v1,24815(v0)
   102a0:	0c004132 	jal	0x104c8
   102a4:	00000000 	nop
   102a8:	0c005d2b 	jal	0x174ac
   102ac:	00000000 	nop
   102b0:	36030044 	ori	v1,s0,0x44
   102b4:	94620000 	lhu	v0,0(v1)
   102b8:	00000000 	nop
   102bc:	34420040 	ori	v0,v0,0x40
   102c0:	a4620000 	sh	v0,0(v1)
   102c4:	0c005d7b 	jal	0x175ec
   102c8:	00000000 	nop
   102cc:	0c005d1a 	jal	0x17468
   102d0:	00000000 	nop
   102d4:	0c005ffb 	jal	0x17fec
   102d8:	00000000 	nop
   102dc:	0c005fc0 	jal	0x17f00
   102e0:	00000000 	nop
   102e4:	3c048000 	lui	a0,0x8000
   102e8:	248429fc 	addiu	a0,a0,10748
   102ec:	0c006018 	jal	0x18060
   102f0:	24050001 	li	a1,1
   102f4:	3c048001 	lui	a0,0x8001
   102f8:	24841d0c 	addiu	a0,a0,7436
   102fc:	0c006018 	jal	0x18060
   10300:	24050002 	li	a1,2
   10304:	0c005149 	jal	0x14524
   10308:	00000000 	nop
   1030c:	3c048000 	lui	a0,0x8000
   10310:	24843f14 	addiu	a0,a0,16148
   10314:	0c006018 	jal	0x18060
   10318:	24050003 	li	a1,3
   1031c:	3c028002 	lui	v0,0x8002
   10320:	90437e30 	lbu	v1,32304(v0)
   10324:	36040043 	ori	a0,s0,0x43
   10328:	10600029 	beqz	v1,0x103d0
   1032c:	361000d8 	ori	s0,s0,0xd8
   10330:	24020007 	li	v0,7
   10334:	1062002b 	beq	v1,v0,0x103e4
   10338:	3c04b025 	lui	a0,0xb025
   1033c:	34860210 	ori	a2,a0,0x210
   10340:	34850043 	ori	a1,a0,0x43
   10344:	24020003 	li	v0,3
   10348:	24030010 	li	v1,16
   1034c:	a0a20000 	sb	v0,0(a1)
   10350:	348400d8 	ori	a0,a0,0xd8
   10354:	a0c30000 	sb	v1,0(a2)
   10358:	90820000 	lbu	v0,0(a0)
   1035c:	2403ff80 	li	v1,-128
   10360:	3c05b042 	lui	a1,0xb042
   10364:	00431025 	or	v0,v0,v1
   10368:	a0820000 	sb	v0,0(a0)
   1036c:	3c04b025 	lui	a0,0xb025
   10370:	34840044 	ori	a0,a0,0x44
   10374:	94820000 	lhu	v0,0(a0)
   10378:	00000000 	nop
   1037c:	344200c0 	ori	v0,v0,0xc0
   10380:	a4820000 	sh	v0,0(a0)
   10384:	90a30000 	lbu	v1,0(a1)
   10388:	00000000 	nop
   1038c:	34630001 	ori	v1,v1,0x1
   10390:	a0a30000 	sb	v1,0(a1)
   10394:	0c005d00 	jal	0x17400
   10398:	00000000 	nop
   1039c:	3c048002 	lui	a0,0x8002
   103a0:	24840008 	addiu	a0,a0,8
   103a4:	00002821 	move	a1,zero
   103a8:	00003021 	move	a2,zero
   103ac:	0c002207 	jal	0x881c
   103b0:	00003821 	move	a3,zero
   103b4:	0c005d18 	jal	0x17460
   103b8:	00000000 	nop
   103bc:	8fbf0014 	lw	ra,20(sp)
   103c0:	8fb00010 	lw	s0,16(sp)
   103c4:	24020001 	li	v0,1
   103c8:	03e00008 	jr	ra
   103cc:	27bd0018 	addiu	sp,sp,24
   103d0:	a0800000 	sb	zero,0(a0)
   103d4:	92030000 	lbu	v1,0(s0)
   103d8:	2402ff80 	li	v0,-128
   103dc:	00621825 	or	v1,v1,v0
   103e0:	a2030000 	sb	v1,0(s0)
   103e4:	3c04b025 	lui	a0,0xb025
   103e8:	34840044 	ori	a0,a0,0x44
   103ec:	94820000 	lhu	v0,0(a0)
   103f0:	3c05b042 	lui	a1,0xb042
   103f4:	344200c0 	ori	v0,v0,0xc0
   103f8:	a4820000 	sh	v0,0(a0)
   103fc:	90a30000 	lbu	v1,0(a1)
   10400:	00000000 	nop
   10404:	34630001 	ori	v1,v1,0x1
   10408:	a0a30000 	sb	v1,0(a1)
   1040c:	0c005d00 	jal	0x17400
   10410:	00000000 	nop
   10414:	3c048002 	lui	a0,0x8002
   10418:	24840008 	addiu	a0,a0,8
   1041c:	00002821 	move	a1,zero
   10420:	00003021 	move	a2,zero
   10424:	0c002207 	jal	0x881c
   10428:	00003821 	move	a3,zero
   1042c:	0c005d18 	jal	0x17460
   10430:	00000000 	nop
   10434:	8fbf0014 	lw	ra,20(sp)
   10438:	8fb00010 	lw	s0,16(sp)
   1043c:	24020001 	li	v0,1
   10440:	03e00008 	jr	ra
   10444:	27bd0018 	addiu	sp,sp,24
   10448:	00002021 	move	a0,zero
   1044c:	3c06b020 	lui	a2,0xb020
   10450:	3405ffff 	li	a1,0xffff
   10454:	00861821 	addu	v1,a0,a2
   10458:	24840004 	addiu	a0,a0,4
   1045c:	00a4102a 	slt	v0,a1,a0
   10460:	ac600000 	sw	zero,0(v1)
   10464:	1040fffb 	beqz	v0,0x10454
   10468:	00000000 	nop
   1046c:	03e00008 	jr	ra
   10470:	00000000 	nop
   10474:	27bdffb8 	addiu	sp,sp,-72
   10478:	3c04b025 	lui	a0,0xb025
   1047c:	afbf0044 	sw	ra,68(sp)
   10480:	afbe0040 	sw	s8,64(sp)
   10484:	afb7003c 	sw	s7,60(sp)
   10488:	afb60038 	sw	s6,56(sp)
   1048c:	afb50034 	sw	s5,52(sp)
   10490:	afb40030 	sw	s4,48(sp)
   10494:	afb3002c 	sw	s3,44(sp)
   10498:	afb20028 	sw	s2,40(sp)
   1049c:	afb10024 	sw	s1,36(sp)
   104a0:	afb00020 	sw	s0,32(sp)
   104a4:	3483000a 	ori	v1,a0,0xa
   104a8:	90620000 	lbu	v0,0(v1)
   104ac:	00000000 	nop
   104b0:	30420020 	andi	v0,v0,0x20
   104b4:	1040000c 	beqz	v0,0x104e8
   104b8:	3c02874c 	lui	v0,0x874c
   104bc:	90620000 	lbu	v0,0(v1)
   104c0:	00000000 	nop
   104c4:	30420010 	andi	v0,v0,0x10
   104c8:	10400166 	beqz	v0,0x10a64
   104cc:	3c02874c 	lui	v0,0x874c
   104d0:	34830054 	ori	v1,a0,0x54
   104d4:	34820050 	ori	v0,a0,0x50
   104d8:	ac450000 	sw	a1,0(v0)
   104dc:	a4650000 	sh	a1,0(v1)
   104e0:	08005e2b 	j	0x178ac
   104e4:	3c038002 	lui	v1,0x8002
   104e8:	34850054 	ori	a1,a0,0x54
   104ec:	3442e000 	ori	v0,v0,0xe000
   104f0:	34840050 	ori	a0,a0,0x50
   104f4:	24030112 	li	v1,274
   104f8:	ac820000 	sw	v0,0(a0)
   104fc:	aca30000 	sw	v1,0(a1)
   10500:	3c038002 	lui	v1,0x8002
   10504:	24621568 	addiu	v0,v1,5480
   10508:	90434add 	lbu	v1,19165(v0)
   1050c:	94454ae2 	lhu	a1,19170(v0)
   10510:	3c1eb025 	lui	s8,0xb025
   10514:	a3a3001c 	sb	v1,28(sp)
   10518:	8c434b68 	lw	v1,19304(v0)
   1051c:	37c60058 	ori	a2,s8,0x58
   10520:	2404ffff 	li	a0,-1
   10524:	afa30010 	sw	v1,16(sp)
   10528:	8c434b6c 	lw	v1,19308(v0)
   1052c:	37c7005c 	ori	a3,s8,0x5c
   10530:	37c80060 	ori	t0,s8,0x60
   10534:	afa30014 	sw	v1,20(sp)
   10538:	8c424b70 	lw	v0,19312(v0)
   1053c:	37c90064 	ori	t1,s8,0x64
   10540:	37ca008a 	ori	t2,s8,0x8a
   10544:	afa20018 	sw	v0,24(sp)
   10548:	3c021024 	lui	v0,0x1024
   1054c:	00a22821 	addu	a1,a1,v0
   10550:	3c02814c 	lui	v0,0x814c
   10554:	3442e000 	ori	v0,v0,0xe000
   10558:	acc20000 	sw	v0,0(a2)
   1055c:	24030196 	li	v1,406
   10560:	24022828 	li	v0,10280
   10564:	ace30000 	sw	v1,0(a3)
   10568:	37cb0089 	ori	t3,s8,0x89
   1056c:	ad040000 	sw	a0,0(t0)
   10570:	37cc008c 	ori	t4,s8,0x8c
   10574:	ad240000 	sw	a0,0(t1)
   10578:	24030009 	li	v1,9
   1057c:	a5420000 	sh	v0,0(t2)
   10580:	24021010 	li	v0,4112
   10584:	a1630000 	sb	v1,0(t3)
   10588:	37cd008e 	ori	t5,s8,0x8e
   1058c:	a5820000 	sh	v0,0(t4)
   10590:	24030a0a 	li	v1,2570
   10594:	24020013 	li	v0,19
   10598:	37ce0090 	ori	t6,s8,0x90
   1059c:	a5a30000 	sh	v1,0(t5)
   105a0:	a1c20000 	sb	v0,0(t6)
   105a4:	3c02b025 	lui	v0,0xb025
   105a8:	24030040 	li	v1,64
   105ac:	34420091 	ori	v0,v0,0x91
   105b0:	a0430000 	sb	v1,0(v0)
   105b4:	3c03b025 	lui	v1,0xb025
   105b8:	2402013a 	li	v0,314
   105bc:	34630092 	ori	v1,v1,0x92
   105c0:	a4620000 	sh	v0,0(v1)
   105c4:	37d100b5 	ori	s1,s8,0xb5
   105c8:	24030021 	li	v1,33
   105cc:	a2230000 	sb	v1,0(s1)
   105d0:	8fa20010 	lw	v0,16(sp)
   105d4:	37d200a0 	ori	s2,s8,0xa0
   105d8:	37d300a4 	ori	s3,s8,0xa4
   105dc:	ae420000 	sw	v0,0(s2)
   105e0:	8fa30014 	lw	v1,20(sp)
   105e4:	37d400a8 	ori	s4,s8,0xa8
   105e8:	37d500ac 	ori	s5,s8,0xac
   105ec:	ae630000 	sw	v1,0(s3)
   105f0:	8fa20018 	lw	v0,24(sp)
   105f4:	3c03b025 	lui	v1,0xb025
   105f8:	346300b0 	ori	v1,v1,0xb0
   105fc:	ae820000 	sw	v0,0(s4)
   10600:	3c021021 	lui	v0,0x1021
   10604:	344277ff 	ori	v0,v0,0x77ff
   10608:	aea20000 	sw	v0,0(s5)
   1060c:	3c02b025 	lui	v0,0xb025
   10610:	344200d8 	ori	v0,v0,0xd8
   10614:	ac650000 	sw	a1,0(v1)
   10618:	a0400000 	sb	zero,0(v0)
   1061c:	93a2001c 	lbu	v0,28(sp)
   10620:	3c03b025 	lui	v1,0xb025
   10624:	346300b4 	ori	v1,v1,0xb4
   10628:	a0620000 	sb	v0,0(v1)
   1062c:	3c03b025 	lui	v1,0xb025
   10630:	24020004 	li	v0,4
   10634:	346300b6 	ori	v1,v1,0xb6
   10638:	a0620000 	sb	v0,0(v1)
   1063c:	3c03b025 	lui	v1,0xb025
   10640:	2402000f 	li	v0,15
   10644:	346300ba 	ori	v1,v1,0xba
   10648:	37df00b9 	ori	ra,s8,0xb9
   1064c:	a3e40000 	sb	a0,0(ra)
   10650:	a4620000 	sh	v0,0(v1)
   10654:	3c02b025 	lui	v0,0xb025
   10658:	3442011a 	ori	v0,v0,0x11a
   1065c:	37d00116 	ori	s0,s8,0x116
   10660:	37cf0118 	ori	t7,s8,0x118
   10664:	a6000000 	sh	zero,0(s0)
   10668:	3c03b025 	lui	v1,0xb025
   1066c:	a5e00000 	sh	zero,0(t7)
   10670:	a4400000 	sh	zero,0(v0)
   10674:	3c02ffff 	lui	v0,0xffff
   10678:	34420fff 	ori	v0,v0,0xfff
   1067c:	346300dc 	ori	v1,v1,0xdc
   10680:	ac620000 	sw	v0,0(v1)
   10684:	3c03002f 	lui	v1,0x2f
   10688:	3c02b025 	lui	v0,0xb025
   1068c:	34633232 	ori	v1,v1,0x3232
   10690:	344201d0 	ori	v0,v0,0x1d0
   10694:	ac430000 	sw	v1,0(v0)
   10698:	3c02005e 	lui	v0,0x5e
   1069c:	3c03b025 	lui	v1,0xb025
   106a0:	34424332 	ori	v0,v0,0x4332
   106a4:	346301d4 	ori	v1,v1,0x1d4
   106a8:	ac620000 	sw	v0,0(v1)
   106ac:	3c030008 	lui	v1,0x8
   106b0:	3c02b025 	lui	v0,0xb025
   106b4:	3463a530 	ori	v1,v1,0xa530
   106b8:	344201d8 	ori	v0,v0,0x1d8
   106bc:	ac430000 	sw	v1,0(v0)
   106c0:	37c401dc 	ori	a0,s8,0x1dc
   106c4:	3c038002 	lui	v1,0x8002
   106c8:	3402a549 	li	v0,0xa549
   106cc:	906d7e26 	lbu	t5,32294(v1)
   106d0:	ac820000 	sw	v0,0(a0)
   106d4:	3c0200c2 	lui	v0,0xc2
   106d8:	2403061a 	li	v1,1562
   106dc:	34421051 	ori	v0,v0,0x1051
   106e0:	37c501e0 	ori	a1,s8,0x1e0
   106e4:	37c601f4 	ori	a2,s8,0x1f4
   106e8:	37c701f8 	ori	a3,s8,0x1f8
   106ec:	24040707 	li	a0,1799
   106f0:	a4a30000 	sh	v1,0(a1)
   106f4:	37c80200 	ori	t0,s8,0x200
   106f8:	a4c40000 	sh	a0,0(a2)
   106fc:	24030026 	li	v1,38
   10700:	ace20000 	sw	v0,0(a3)
   10704:	37c90203 	ori	t1,s8,0x203
   10708:	24020004 	li	v0,4
   1070c:	a5030000 	sh	v1,0(t0)
   10710:	37ca0236 	ori	t2,s8,0x236
   10714:	a1220000 	sb	v0,0(t1)
   10718:	240301c0 	li	v1,448
   1071c:	2402000c 	li	v0,12
   10720:	37cb0234 	ori	t3,s8,0x234
   10724:	a1420000 	sb	v0,0(t2)
   10728:	37cc0237 	ori	t4,s8,0x237
   1072c:	a5630000 	sh	v1,0(t3)
   10730:	24020003 	li	v0,3
   10734:	24030022 	li	v1,34
   10738:	a1820000 	sb	v0,0(t4)
   1073c:	11a300d6 	beq	t5,v1,0x10a98
   10740:	3c021b1b 	lui	v0,0x1b1b
   10744:	3c021313 	lui	v0,0x1313
   10748:	34421313 	ori	v0,v0,0x1313
   1074c:	37c30160 	ori	v1,s8,0x160
   10750:	37c40164 	ori	a0,s8,0x164
   10754:	37c50168 	ori	a1,s8,0x168
   10758:	37ca017c 	ori	t2,s8,0x17c
   1075c:	37c6016c 	ori	a2,s8,0x16c
   10760:	37c70170 	ori	a3,s8,0x170
   10764:	37c80174 	ori	t0,s8,0x174
   10768:	37c90178 	ori	t1,s8,0x178
   1076c:	ac620000 	sw	v0,0(v1)
   10770:	ac820000 	sw	v0,0(a0)
   10774:	3c038002 	lui	v1,0x8002
   10778:	aca20000 	sw	v0,0(a1)
   1077c:	acc20000 	sw	v0,0(a2)
   10780:	ace20000 	sw	v0,0(a3)
   10784:	ad020000 	sw	v0,0(t0)
   10788:	ad220000 	sw	v0,0(t1)
   1078c:	ad420000 	sw	v0,0(t2)
   10790:	90657e26 	lbu	a1,32294(v1)
   10794:	3c0cb025 	lui	t4,0xb025
   10798:	3c037001 	lui	v1,0x7001
   1079c:	35820180 	ori	v0,t4,0x180
   107a0:	34635f08 	ori	v1,v1,0x5f08
   107a4:	24040022 	li	a0,34
   107a8:	ac430000 	sw	v1,0(v0)
   107ac:	10a400b5 	beq	a1,a0,0x10a84
   107b0:	3c021f0f 	lui	v0,0x1f0f
   107b4:	24020092 	li	v0,146
   107b8:	10a200b2 	beq	a1,v0,0x10a84
   107bc:	3c021f0f 	lui	v0,0x1f0f
   107c0:	3c02100f 	lui	v0,0x100f
   107c4:	3451f000 	ori	s1,v0,0xf000
   107c8:	359201f7 	ori	s2,t4,0x1f7
   107cc:	344df015 	ori	t5,v0,0xf015
   107d0:	240e0077 	li	t6,119
   107d4:	35870184 	ori	a3,t4,0x184
   107d8:	35880188 	ori	t0,t4,0x188
   107dc:	3444f010 	ori	a0,v0,0xf010
   107e0:	3585018c 	ori	a1,t4,0x18c
   107e4:	3442f005 	ori	v0,v0,0xf005
   107e8:	aced0000 	sw	t5,0(a3)
   107ec:	35830190 	ori	v1,t4,0x190
   107f0:	ad040000 	sw	a0,0(t0)
   107f4:	35860194 	ori	a2,t4,0x194
   107f8:	aca20000 	sw	v0,0(a1)
   107fc:	24020ff5 	li	v0,4085
   10800:	ac710000 	sw	s1,0(v1)
   10804:	3c05b025 	lui	a1,0xb025
   10808:	acc20000 	sw	v0,0(a2)
   1080c:	35890198 	ori	t1,t4,0x198
   10810:	358a019c 	ori	t2,t4,0x19c
   10814:	24030ff0 	li	v1,4080
   10818:	2402000d 	li	v0,13
   1081c:	ad230000 	sw	v1,0(t1)
   10820:	358b01a0 	ori	t3,t4,0x1a0
   10824:	ad420000 	sw	v0,0(t2)
   10828:	34b701a7 	ori	s7,a1,0x1a7
   1082c:	358c01f6 	ori	t4,t4,0x1f6
   10830:	2402ffff 	li	v0,-1
   10834:	ad6d0000 	sw	t5,0(t3)
   10838:	a18e0000 	sb	t6,0(t4)
   1083c:	a24e0000 	sb	t6,0(s2)
   10840:	a2e20000 	sb	v0,0(s7)
   10844:	3c02b025 	lui	v0,0xb025
   10848:	34b601a8 	ori	s6,a1,0x1a8
   1084c:	2409ffff 	li	t1,-1
   10850:	344201ac 	ori	v0,v0,0x1ac
   10854:	aec90000 	sw	t1,0(s6)
   10858:	3c040403 	lui	a0,0x403
   1085c:	ac490000 	sw	t1,0(v0)
   10860:	3c030807 	lui	v1,0x807
   10864:	3c02b025 	lui	v0,0xb025
   10868:	34840201 	ori	a0,a0,0x201
   1086c:	34630605 	ori	v1,v1,0x605
   10870:	34b101b4 	ori	s1,a1,0x1b4
   10874:	34b201b8 	ori	s2,a1,0x1b8
   10878:	34b301bc 	ori	s3,a1,0x1bc
   1087c:	344201b0 	ori	v0,v0,0x1b0
   10880:	ac440000 	sw	a0,0(v0)
   10884:	ae230000 	sw	v1,0(s1)
   10888:	3c02b025 	lui	v0,0xb025
   1088c:	ae440000 	sw	a0,0(s2)
   10890:	ae630000 	sw	v1,0(s3)
   10894:	3c03b025 	lui	v1,0xb025
   10898:	2406000c 	li	a2,12
   1089c:	34b401c0 	ori	s4,a1,0x1c0
   108a0:	34b501c1 	ori	s5,a1,0x1c1
   108a4:	2408000d 	li	t0,13
   108a8:	346301c2 	ori	v1,v1,0x1c2
   108ac:	344201c3 	ori	v0,v0,0x1c3
   108b0:	a2860000 	sb	a2,0(s4)
   108b4:	34ab01c4 	ori	t3,a1,0x1c4
   108b8:	a2a60000 	sb	a2,0(s5)
   108bc:	34ac01c5 	ori	t4,a1,0x1c5
   108c0:	a0660000 	sb	a2,0(v1)
   108c4:	2407000e 	li	a3,14
   108c8:	a0480000 	sb	t0,0(v0)
   108cc:	34aa01c6 	ori	t2,a1,0x1c6
   108d0:	34ad01c7 	ori	t5,a1,0x1c7
   108d4:	2402000f 	li	v0,15
   108d8:	a1680000 	sb	t0,0(t3)
   108dc:	a1870000 	sb	a3,0(t4)
   108e0:	a1470000 	sb	a3,0(t2)
   108e4:	a1a20000 	sb	v0,0(t5)
   108e8:	3c020157 	lui	v0,0x157
   108ec:	34bf0048 	ori	ra,a1,0x48
   108f0:	34ae0046 	ori	t6,a1,0x46
   108f4:	3442e20e 	ori	v0,v0,0xe20e
   108f8:	a5c00000 	sh	zero,0(t6)
   108fc:	34be004c 	ori	s8,a1,0x4c
   10900:	afe20000 	sw	v0,0(ra)
   10904:	34b9004d 	ori	t9,a1,0x4d
   10908:	2402ff80 	li	v0,-128
   1090c:	a3c00000 	sb	zero,0(s8)
   10910:	a3220000 	sb	v0,0(t9)
   10914:	3c02b025 	lui	v0,0xb025
   10918:	240300bc 	li	v1,188
   1091c:	34420040 	ori	v0,v0,0x40
   10920:	a4430000 	sh	v1,0(v0)
   10924:	3c03b025 	lui	v1,0xb025
   10928:	34b80364 	ori	t8,a1,0x364
   1092c:	240237fc 	li	v0,14332
   10930:	34630040 	ori	v1,v1,0x40
   10934:	a3000000 	sb	zero,0(t8)
   10938:	34a700d8 	ori	a3,a1,0xd8
   1093c:	a4620000 	sh	v0,0(v1)
   10940:	90e30000 	lbu	v1,0(a3)
   10944:	2402ff80 	li	v0,-128
   10948:	3c04b02a 	lui	a0,0xb02a
   1094c:	00621825 	or	v1,v1,v0
   10950:	a0e30000 	sb	v1,0(a3)
   10954:	3c06b026 	lui	a2,0xb026
   10958:	34890030 	ori	t1,a0,0x30
   1095c:	24022020 	li	v0,8224
   10960:	34840038 	ori	a0,a0,0x38
   10964:	24030040 	li	v1,64
   10968:	a4820000 	sh	v0,0(a0)
   1096c:	34c80079 	ori	t0,a2,0x79
   10970:	a1230000 	sb	v1,0(t1)
   10974:	34aa0094 	ori	t2,a1,0x94
   10978:	24020016 	li	v0,22
   1097c:	24030064 	li	v1,100
   10980:	a1020000 	sb	v0,0(t0)
   10984:	34d2007c 	ori	s2,a2,0x7c
   10988:	a5430000 	sh	v1,0(t2)
   1098c:	34ab0098 	ori	t3,a1,0x98
   10990:	34c6007a 	ori	a2,a2,0x7a
   10994:	24020022 	li	v0,34
   10998:	24030004 	li	v1,4
   1099c:	a5620000 	sh	v0,0(t3)
   109a0:	34ac009c 	ori	t4,a1,0x9c
   109a4:	a0c30000 	sb	v1,0(a2)
   109a8:	24020c20 	li	v0,3104
   109ac:	2403000a 	li	v1,10
   109b0:	a6420000 	sh	v0,0(s2)
   109b4:	34ad009a 	ori	t5,a1,0x9a
   109b8:	a1830000 	sb	v1,0(t4)
   109bc:	34ae0096 	ori	t6,a1,0x96
   109c0:	240203ff 	li	v0,1023
   109c4:	24030002 	li	v1,2
   109c8:	a5a20000 	sh	v0,0(t5)
   109cc:	a5c30000 	sh	v1,0(t6)
   109d0:	3c03b025 	lui	v1,0xb025
   109d4:	24020020 	li	v0,32
   109d8:	346300b7 	ori	v1,v1,0xb7
   109dc:	a0620000 	sb	v0,0(v1)
   109e0:	34b10089 	ori	s1,a1,0x89
   109e4:	24030009 	li	v1,9
   109e8:	a2230000 	sb	v1,0(s1)
   109ec:	34a50044 	ori	a1,a1,0x44
   109f0:	94a30000 	lhu	v1,0(a1)
   109f4:	3c028002 	lui	v0,0x8002
   109f8:	24461568 	addiu	a2,v0,5480
   109fc:	2402fdff 	li	v0,-513
   10a00:	00621824 	and	v1,v1,v0
   10a04:	a4a30000 	sh	v1,0(a1)
   10a08:	94a20000 	lhu	v0,0(a1)
   10a0c:	90c44add 	lbu	a0,19165(a2)
   10a10:	24030204 	li	v1,516
   10a14:	34420200 	ori	v0,v0,0x200
   10a18:	a4a20000 	sh	v0,0(a1)
   10a1c:	3c02b029 	lui	v0,0xb029
   10a20:	34420040 	ori	v0,v0,0x40
   10a24:	a4430000 	sh	v1,0(v0)
   10a28:	0c000c74 	jal	0x31d0
   10a2c:	00000000 	nop
   10a30:	8fbf0044 	lw	ra,68(sp)
   10a34:	8fbe0040 	lw	s8,64(sp)
   10a38:	8fb7003c 	lw	s7,60(sp)
   10a3c:	8fb60038 	lw	s6,56(sp)
   10a40:	8fb50034 	lw	s5,52(sp)
   10a44:	8fb40030 	lw	s4,48(sp)
   10a48:	8fb3002c 	lw	s3,44(sp)
   10a4c:	8fb20028 	lw	s2,40(sp)
   10a50:	8fb10024 	lw	s1,36(sp)
   10a54:	8fb00020 	lw	s0,32(sp)
   10a58:	24020001 	li	v0,1
   10a5c:	03e00008 	jr	ra
   10a60:	27bd0048 	addiu	sp,sp,72
   10a64:	34850054 	ori	a1,a0,0x54
   10a68:	3442e000 	ori	v0,v0,0xe000
   10a6c:	34840050 	ori	a0,a0,0x50
   10a70:	24030112 	li	v1,274
   10a74:	ac820000 	sw	v0,0(a0)
   10a78:	a4a30000 	sh	v1,0(a1)
   10a7c:	08005e2b 	j	0x178ac
   10a80:	3c038002 	lui	v1,0x8002
   10a84:	3451f000 	ori	s1,v0,0xf000
   10a88:	359201f7 	ori	s2,t4,0x1f7
   10a8c:	344df015 	ori	t5,v0,0xf015
   10a90:	08005edf 	j	0x17b7c
   10a94:	240effff 	li	t6,-1
   10a98:	08005ebd 	j	0x17af4
   10a9c:	34421b1b 	ori	v0,v0,0x1b1b
   10aa0:	3c03b025 	lui	v1,0xb025
   10aa4:	3c08b025 	lui	t0,0xb025
   10aa8:	240237fc 	li	v0,14332
   10aac:	34630040 	ori	v1,v1,0x40
   10ab0:	3c048002 	lui	a0,0x8002
   10ab4:	a4620000 	sh	v0,0(v1)
   10ab8:	248495f8 	addiu	a0,a0,-27144
   10abc:	240700ff 	li	a3,255
   10ac0:	350603b0 	ori	a2,t0,0x3b0
   10ac4:	94830000 	lhu	v1,0(a0)
   10ac8:	00000000 	nop
   10acc:	306200ff 	andi	v0,v1,0xff
   10ad0:	00681821 	addu	v1,v1,t0
   10ad4:	1047000a 	beq	v0,a3,0x10b00
   10ad8:	306500ff 	andi	a1,v1,0xff
   10adc:	8c820004 	lw	v0,4(a0)
   10ae0:	00000000 	nop
   10ae4:	ac620000 	sw	v0,0(v1)
   10ae8:	acc30000 	sw	v1,0(a2)
   10aec:	8c820004 	lw	v0,4(a0)
   10af0:	24840008 	addiu	a0,a0,8
   10af4:	acc20000 	sw	v0,0(a2)
   10af8:	14a7fff2 	bne	a1,a3,0x10ac4
   10afc:	00000000 	nop
   10b00:	3c08b025 	lui	t0,0xb025
   10b04:	3c028002 	lui	v0,0x8002
   10b08:	24448ff0 	addiu	a0,v0,-28688
   10b0c:	240700ff 	li	a3,255
   10b10:	350603b0 	ori	a2,t0,0x3b0
   10b14:	94830000 	lhu	v1,0(a0)
   10b18:	00000000 	nop
   10b1c:	306200ff 	andi	v0,v1,0xff
   10b20:	00681821 	addu	v1,v1,t0
   10b24:	1047000a 	beq	v0,a3,0x10b50
   10b28:	306500ff 	andi	a1,v1,0xff
   10b2c:	8c820004 	lw	v0,4(a0)
   10b30:	00000000 	nop
   10b34:	ac620000 	sw	v0,0(v1)
   10b38:	acc30000 	sw	v1,0(a2)
   10b3c:	8c820004 	lw	v0,4(a0)
   10b40:	24840008 	addiu	a0,a0,8
   10b44:	acc20000 	sw	v0,0(a2)
   10b48:	14a7fff2 	bne	a1,a3,0x10b14
   10b4c:	00000000 	nop
   10b50:	03e00008 	jr	ra
   10b54:	00000000 	nop
   10b58:	3c028001 	lui	v0,0x8001
   10b5c:	3c058002 	lui	a1,0x8002
   10b60:	24427fd8 	addiu	v0,v0,32728
   10b64:	3c038002 	lui	v1,0x8002
   10b68:	aca27e64 	sw	v0,32356(a1)
   10b6c:	3c028000 	lui	v0,0x8000
   10b70:	ac607f04 	sw	zero,32516(v1)
   10b74:	24a47e64 	addiu	a0,a1,32356
   10b78:	3c038002 	lui	v1,0x8002
   10b7c:	244206c8 	addiu	v0,v0,1736
   10b80:	a4607f08 	sh	zero,32520(v1)
   10b84:	ac820008 	sw	v0,8(a0)
   10b88:	3c038002 	lui	v1,0x8002
   10b8c:	3c028000 	lui	v0,0x8000
   10b90:	a4607f0a 	sh	zero,32522(v1)
   10b94:	3c068002 	lui	a2,0x8002
   10b98:	24420aa4 	addiu	v0,v0,2724
   10b9c:	3c038000 	lui	v1,0x8000
   10ba0:	24c77f0c 	addiu	a3,a2,32524
   10ba4:	ac820014 	sw	v0,20(a0)
   10ba8:	24630854 	addiu	v1,v1,2132
   10bac:	3c028002 	lui	v0,0x8002
   10bb0:	acc07f0c 	sw	zero,32524(a2)
   10bb4:	ac830010 	sw	v1,16(a0)
   10bb8:	ace00004 	sw	zero,4(a3)
   10bbc:	a0407f14 	sb	zero,32532(v0)
   10bc0:	3c028000 	lui	v0,0x8000
   10bc4:	24421c1c 	addiu	v0,v0,7196
   10bc8:	ac82003c 	sw	v0,60(a0)
   10bcc:	3c038000 	lui	v1,0x8000
   10bd0:	3c028000 	lui	v0,0x8000
   10bd4:	24630d38 	addiu	v1,v1,3384
   10bd8:	244210c8 	addiu	v0,v0,4296
   10bdc:	ac83001c 	sw	v1,28(a0)
   10be0:	ac820020 	sw	v0,32(a0)
   10be4:	3c038000 	lui	v1,0x8000
   10be8:	3c028000 	lui	v0,0x8000
   10bec:	24631454 	addiu	v1,v1,5204
   10bf0:	24421838 	addiu	v0,v0,6200
   10bf4:	ac830024 	sw	v1,36(a0)
   10bf8:	ac820028 	sw	v0,40(a0)
   10bfc:	3c038000 	lui	v1,0x8000
   10c00:	3c028001 	lui	v0,0x8001
   10c04:	24632258 	addiu	v1,v1,8792
   10c08:	244204d0 	addiu	v0,v0,1232
   10c0c:	ac83002c 	sw	v1,44(a0)
   10c10:	ac820030 	sw	v0,48(a0)
   10c14:	3c038000 	lui	v1,0x8000
   10c18:	3c028000 	lui	v0,0x8000
   10c1c:	24631c78 	addiu	v1,v1,7288
   10c20:	24420300 	addiu	v0,v0,768
   10c24:	ac830038 	sw	v1,56(a0)
   10c28:	03e00008 	jr	ra
   10c2c:	ac82004c 	sw	v0,76(a0)
   10c30:	3c02b025 	lui	v0,0xb025
   10c34:	34420008 	ori	v0,v0,0x8
   10c38:	8c430000 	lw	v1,0(v0)
   10c3c:	03e00008 	jr	ra
   10c40:	00000000 	nop
   10c44:	3c0e8002 	lui	t6,0x8002
   10c48:	3c088002 	lui	t0,0x8002
   10c4c:	3c028002 	lui	v0,0x8002
   10c50:	3c038002 	lui	v1,0x8002
   10c54:	244d03f8 	addiu	t5,v0,1016
   10c58:	246c1400 	addiu	t4,v1,5120
   10c5c:	24070001 	li	a3,1
   10c60:	25cb0000 	addiu	t3,t6,0
   10c64:	240affff 	li	t2,-1
   10c68:	25090400 	addiu	t1,t0,1024
   10c6c:	00071a80 	sll	v1,a3,0xa
   10c70:	006b1021 	addu	v0,v1,t3
   10c74:	ac420000 	sw	v0,0(v0)
   10c78:	ac4a0090 	sw	t2,144(v0)
   10c7c:	8d040400 	lw	a0,1024(t0)
   10c80:	24e70001 	addiu	a3,a3,1
   10c84:	24450008 	addiu	a1,v0,8
   10c88:	006d1821 	addu	v1,v1,t5
   10c8c:	28e60005 	slti	a2,a3,5
   10c90:	ac820004 	sw	v0,4(a0)
   10c94:	ac440000 	sw	a0,0(v0)
   10c98:	ac490004 	sw	t1,4(v0)
   10c9c:	ad020400 	sw	v0,1024(t0)
   10ca0:	ac40008c 	sw	zero,140(v0)
   10ca4:	aca3006c 	sw	v1,108(a1)
   10ca8:	14c0fff0 	bnez	a2,0x10c6c
   10cac:	acac0068 	sw	t4,104(a1)
   10cb0:	03e00008 	jr	ra
   10cb4:	adc90000 	sw	t1,0(t6)
   10cb8:	2ca20005 	sltiu	v0,a1,5
   10cbc:	10400013 	beqz	v0,0x10d0c
   10cc0:	2407ffff 	li	a3,-1
   10cc4:	3c028002 	lui	v0,0x8002
   10cc8:	00051a80 	sll	v1,a1,0xa
   10ccc:	24420000 	addiu	v0,v0,0
   10cd0:	10a0000e 	beqz	a1,0x10d0c
   10cd4:	00623021 	addu	a2,v1,v0
   10cd8:	8cc30090 	lw	v1,144(a2)
   10cdc:	2402ffff 	li	v0,-1
   10ce0:	1462000a 	bne	v1,v0,0x10d0c
   10ce4:	00000000 	nop
   10ce8:	8cc2008c 	lw	v0,140(a2)
   10cec:	00000000 	nop
   10cf0:	14400006 	bnez	v0,0x10d0c
   10cf4:	00000000 	nop
   10cf8:	24020001 	li	v0,1
   10cfc:	acc40088 	sw	a0,136(a2)
   10d00:	acc2008c 	sw	v0,140(a2)
   10d04:	acc50090 	sw	a1,144(a2)
   10d08:	00a03821 	move	a3,a1
   10d0c:	03e00008 	jr	ra
   10d10:	00e01021 	move	v0,a3
   10d14:	3c04b025 	lui	a0,0xb025
   10d18:	3c028002 	lui	v0,0x8002
   10d1c:	34850318 	ori	a1,a0,0x318
   10d20:	244280bc 	addiu	v0,v0,-32580
   10d24:	27bdffe0 	addiu	sp,sp,-32
   10d28:	aca20000 	sw	v0,0(a1)
   10d2c:	3486001b 	ori	a2,a0,0x1b
   10d30:	2403ffdb 	li	v1,-37
   10d34:	34840027 	ori	a0,a0,0x27
   10d38:	24020007 	li	v0,7
   10d3c:	afb10014 	sw	s1,20(sp)
   10d40:	afb00010 	sw	s0,16(sp)
   10d44:	a0830000 	sb	v1,0(a0)
   10d48:	afbf0018 	sw	ra,24(sp)
   10d4c:	a0c20000 	sb	v0,0(a2)
   10d50:	24110001 	li	s1,1
   10d54:	00008021 	move	s0,zero
   10d58:	0c00422a 	jal	0x108a8
   10d5c:	02002021 	move	a0,s0
   10d60:	26020001 	addiu	v0,s0,1
   10d64:	305000ff 	andi	s0,v0,0xff
   10d68:	0230182b 	sltu	v1,s1,s0
   10d6c:	1060fffa 	beqz	v1,0x10d58
   10d70:	00000000 	nop
   10d74:	0c00422a 	jal	0x108a8
   10d78:	00002021 	move	a0,zero
   10d7c:	8fbf0018 	lw	ra,24(sp)
   10d80:	8fb10014 	lw	s1,20(sp)
   10d84:	8fb00010 	lw	s0,16(sp)
   10d88:	24020001 	li	v0,1
   10d8c:	03e00008 	jr	ra
   10d90:	27bd0020 	addiu	sp,sp,32
   10d94:	03e00008 	jr	ra
   10d98:	00000000 	nop
   10d9c:	03e00008 	jr	ra
   10da0:	00000000 	nop
   10da4:	3c04b025 	lui	a0,0xb025
   10da8:	34840a2d 	ori	a0,a0,0xa2d
   10dac:	90830000 	lbu	v1,0(a0)
   10db0:	3c068002 	lui	a2,0x8002
   10db4:	24c5acec 	addiu	a1,a2,-21268
   10db8:	24020002 	li	v0,2
   10dbc:	306300cf 	andi	v1,v1,0xcf
   10dc0:	a0a20014 	sb	v0,20(a1)
   10dc4:	34630020 	ori	v1,v1,0x20
   10dc8:	24024e20 	li	v0,20000
   10dcc:	a0830000 	sb	v1,0(a0)
   10dd0:	aca2000c 	sw	v0,12(a1)
   10dd4:	00001021 	move	v0,zero
   10dd8:	24420001 	addiu	v0,v0,1
   10ddc:	304200ff 	andi	v0,v0,0xff
   10de0:	2c430006 	sltiu	v1,v0,6
   10de4:	1460fffd 	bnez	v1,0x10ddc
   10de8:	24420001 	addiu	v0,v0,1
   10dec:	24c4acec 	addiu	a0,a2,-21268
   10df0:	3c058002 	lui	a1,0x8002
   10df4:	3c068000 	lui	a2,0x8000
   10df8:	24a5a2d8 	addiu	a1,a1,-23848
   10dfc:	08000fab 	j	0x3eac
   10e00:	24c635fc 	addiu	a2,a2,13820
   10e04:	3c028002 	lui	v0,0x8002
   10e08:	24421568 	addiu	v0,v0,5480
   10e0c:	3c031040 	lui	v1,0x1040
   10e10:	3044ffff 	andi	a0,v0,0xffff
   10e14:	0083c025 	or	t8,a0,v1
   10e18:	ac586528 	sw	t8,25896(v0)
   10e1c:	27180080 	addiu	t8,t8,128
   10e20:	ac586534 	sw	t8,25908(v0)
   10e24:	27180080 	addiu	t8,t8,128
   10e28:	ac586540 	sw	t8,25920(v0)
   10e2c:	27180080 	addiu	t8,t8,128
   10e30:	ac58654c 	sw	t8,25932(v0)
   10e34:	27180080 	addiu	t8,t8,128
   10e38:	27bdffe0 	addiu	sp,sp,-32
   10e3c:	ac586558 	sw	t8,25944(v0)
   10e40:	27180080 	addiu	t8,t8,128
   10e44:	afb7001c 	sw	s7,28(sp)
   10e48:	afb60018 	sw	s6,24(sp)
   10e4c:	afb50014 	sw	s5,20(sp)
   10e50:	afb40010 	sw	s4,16(sp)
   10e54:	afb3000c 	sw	s3,12(sp)
   10e58:	afb20008 	sw	s2,8(sp)
   10e5c:	afb10004 	sw	s1,4(sp)
   10e60:	afb00000 	sw	s0,0(sp)
   10e64:	ac586564 	sw	t8,25956(v0)
   10e68:	8c456534 	lw	a1,25908(v0)
   10e6c:	8c466540 	lw	a2,25920(v0)
   10e70:	8c47654c 	lw	a3,25932(v0)
   10e74:	8c486558 	lw	t0,25944(v0)
   10e78:	8c496564 	lw	t1,25956(v0)
   10e7c:	27180080 	addiu	t8,t8,128
   10e80:	ac586570 	sw	t8,25968(v0)
   10e84:	03005021 	move	t2,t8
   10e88:	00832025 	or	a0,a0,v1
   10e8c:	27180080 	addiu	t8,t8,128
   10e90:	3c031020 	lui	v1,0x1020
   10e94:	ac446524 	sw	a0,25892(v0)
   10e98:	ac456530 	sw	a1,25904(v0)
   10e9c:	ac46653c 	sw	a2,25916(v0)
   10ea0:	ac476548 	sw	a3,25928(v0)
   10ea4:	ac486554 	sw	t0,25940(v0)
   10ea8:	ac496560 	sw	t1,25952(v0)
   10eac:	3c06b025 	lui	a2,0xb025
   10eb0:	ac4364bc 	sw	v1,25788(v0)
   10eb4:	ac4364b8 	sw	v1,25784(v0)
   10eb8:	ac4364c8 	sw	v1,25800(v0)
   10ebc:	ac4364c4 	sw	v1,25796(v0)
   10ec0:	ac4364d4 	sw	v1,25812(v0)
   10ec4:	ac4364d0 	sw	v1,25808(v0)
   10ec8:	ac4364e0 	sw	v1,25824(v0)
   10ecc:	ac4364dc 	sw	v1,25820(v0)
   10ed0:	ac58657c 	sw	t8,25980(v0)
   10ed4:	27180200 	addiu	t8,t8,512
   10ed8:	ac4a656c 	sw	t2,25964(v0)
   10edc:	ac586594 	sw	t8,26004(v0)
   10ee0:	ac4364ec 	sw	v1,25836(v0)
   10ee4:	ac4364e8 	sw	v1,25832(v0)
   10ee8:	ac4364f8 	sw	v1,25848(v0)
   10eec:	ac4364f4 	sw	v1,25844(v0)
   10ef0:	ac436504 	sw	v1,25860(v0)
   10ef4:	ac436500 	sw	v1,25856(v0)
   10ef8:	34c400ac 	ori	a0,a2,0xac
   10efc:	34c500b0 	ori	a1,a2,0xb0
   10f00:	8c920000 	lw	s2,0(a0)
   10f04:	8c50657c 	lw	s0,25980(v0)
   10f08:	8cb30000 	lw	s3,0(a1)
   10f0c:	3c041021 	lui	a0,0x1021
   10f10:	3c091023 	lui	t1,0x1023
   10f14:	3c0c1022 	lui	t4,0x1022
   10f18:	3c148002 	lui	s4,0x8002
   10f1c:	3c158002 	lui	s5,0x8002
   10f20:	3c168002 	lui	s6,0x8002
   10f24:	3c178002 	lui	s7,0x8002
   10f28:	3c051024 	lui	a1,0x1024
   10f2c:	03008821 	move	s1,t8
   10f30:	26877b9c 	addiu	a3,s4,31644
   10f34:	27180400 	addiu	t8,t8,1024
   10f38:	26a87ba4 	addiu	t0,s5,31652
   10f3c:	26ca7bac 	addiu	t2,s6,31660
   10f40:	26eb7bb4 	addiu	t3,s7,31668
   10f44:	352d0400 	ori	t5,t1,0x400
   10f48:	348e4000 	ori	t6,a0,0x4000
   10f4c:	358f8000 	ori	t7,t4,0x8000
   10f50:	34c60100 	ori	a2,a2,0x100
   10f54:	ac506578 	sw	s0,25976(v0)
   10f58:	ac516590 	sw	s1,26000(v0)
   10f5c:	ac4d65f8 	sw	t5,26104(v0)
   10f60:	ac5265bc 	sw	s2,26044(v0)
   10f64:	ac4e65c8 	sw	t6,26056(v0)
   10f68:	ac4f65ec 	sw	t7,26092(v0)
   10f6c:	ac5365e0 	sw	s3,26080(v0)
   10f70:	acc50000 	sw	a1,0(a2)
   10f74:	ac4565dc 	sw	a1,26076(v0)
   10f78:	ac4365fc 	sw	v1,26108(v0)
   10f7c:	ac586608 	sw	t8,26120(v0)
   10f80:	ac436510 	sw	v1,25872(v0)
   10f84:	ac43650c 	sw	v1,25868(v0)
   10f88:	a440659a 	sh	zero,26010(v0)
   10f8c:	a0406599 	sb	zero,26009(v0)
   10f90:	a0406598 	sb	zero,26008(v0)
   10f94:	ac4965f0 	sw	t1,26096(v0)
   10f98:	ac4965f4 	sw	t1,26100(v0)
   10f9c:	ac4465b4 	sw	a0,26036(v0)
   10fa0:	ac4465b8 	sw	a0,26040(v0)
   10fa4:	ac4465c0 	sw	a0,26048(v0)
   10fa8:	ac4465c4 	sw	a0,26052(v0)
   10fac:	ac4c65e4 	sw	t4,26084(v0)
   10fb0:	ac4c65e8 	sw	t4,26088(v0)
   10fb4:	ac4565d8 	sw	a1,26072(v0)
   10fb8:	ac436600 	sw	v1,26112(v0)
   10fbc:	ac58660c 	sw	t8,26124(v0)
   10fc0:	ad080004 	sw	t0,4(t0)
   10fc4:	ae877b9c 	sw	a3,31644(s4)
   10fc8:	ad4a0004 	sw	t2,4(t2)
   10fcc:	aea87ba4 	sw	t0,31652(s5)
   10fd0:	ad6b0004 	sw	t3,4(t3)
   10fd4:	aeca7bac 	sw	t2,31660(s6)
   10fd8:	aeeb7bb4 	sw	t3,31668(s7)
   10fdc:	ace70004 	sw	a3,4(a3)
   10fe0:	3c028002 	lui	v0,0x8002
   10fe4:	24431400 	addiu	v1,v0,5120
   10fe8:	00e02021 	move	a0,a3
   10fec:	24060003 	li	a2,3
   10ff0:	00801021 	move	v0,a0
   10ff4:	24c6ffff 	addiu	a2,a2,-1
   10ff8:	ac780008 	sw	t8,8(v1)
   10ffc:	ac630000 	sw	v1,0(v1)
   11000:	ac600010 	sw	zero,16(v1)
   11004:	ac670000 	sw	a3,0(v1)
   11008:	00602021 	move	a0,v1
   1100c:	ac620004 	sw	v0,4(v1)
   11010:	ac430000 	sw	v1,0(v0)
   11014:	27180100 	addiu	t8,t8,256
   11018:	04c1fff5 	bgez	a2,0x10ff0
   1101c:	24630018 	addiu	v1,v1,24
   11020:	3c028002 	lui	v0,0x8002
   11024:	24497ba4 	addiu	t1,v0,31652
   11028:	3c038002 	lui	v1,0x8002
   1102c:	3c028002 	lui	v0,0x8002
   11030:	8d280004 	lw	t0,4(t1)
   11034:	244b1460 	addiu	t3,v0,5216
   11038:	ace40004 	sw	a0,4(a3)
   1103c:	246a1400 	addiu	t2,v1,5120
   11040:	24070001 	li	a3,1
   11044:	00002821 	move	a1,zero
   11048:	24060007 	li	a2,7
   1104c:	00ab2021 	addu	a0,a1,t3
   11050:	00aa1021 	addu	v0,a1,t2
   11054:	24c6ffff 	addiu	a2,a2,-1
   11058:	ac580068 	sw	t8,104(v0)
   1105c:	ac470070 	sw	a3,112(v0)
   11060:	24a50018 	addiu	a1,a1,24
   11064:	ac890000 	sw	t1,0(a0)
   11068:	ac880004 	sw	t0,4(a0)
   1106c:	ad040000 	sw	a0,0(t0)
   11070:	27180100 	addiu	t8,t8,256
   11074:	04c1fff5 	bgez	a2,0x1104c
   11078:	00804021 	move	t0,a0
   1107c:	3c028002 	lui	v0,0x8002
   11080:	244a7bac 	addiu	t2,v0,31660
   11084:	3c038002 	lui	v1,0x8002
   11088:	3c028002 	lui	v0,0x8002
   1108c:	8d450004 	lw	a1,4(t2)
   11090:	244b1520 	addiu	t3,v0,5408
   11094:	ad240004 	sw	a0,4(t1)
   11098:	24070002 	li	a3,2
   1109c:	24691400 	addiu	t1,v1,5120
   110a0:	00002021 	move	a0,zero
   110a4:	24060001 	li	a2,1
   110a8:	008b4021 	addu	t0,a0,t3
   110ac:	00891021 	addu	v0,a0,t1
   110b0:	24c6ffff 	addiu	a2,a2,-1
   110b4:	ac580128 	sw	t8,296(v0)
   110b8:	ac470130 	sw	a3,304(v0)
   110bc:	24840018 	addiu	a0,a0,24
   110c0:	ad0a0000 	sw	t2,0(t0)
   110c4:	ad050004 	sw	a1,4(t0)
   110c8:	aca80000 	sw	t0,0(a1)
   110cc:	27180200 	addiu	t8,t8,512
   110d0:	04c1fff5 	bgez	a2,0x110a8
   110d4:	01002821 	move	a1,t0
   110d8:	3c058002 	lui	a1,0x8002
   110dc:	24a57bb4 	addiu	a1,a1,31668
   110e0:	8ca60004 	lw	a2,4(a1)
   110e4:	8fb7001c 	lw	s7,28(sp)
   110e8:	8fb60018 	lw	s6,24(sp)
   110ec:	8fb50014 	lw	s5,20(sp)
   110f0:	8fb40010 	lw	s4,16(sp)
   110f4:	8fb3000c 	lw	s3,12(sp)
   110f8:	8fb20008 	lw	s2,8(sp)
   110fc:	8fb10004 	lw	s1,4(sp)
   11100:	8fb00000 	lw	s0,0(sp)
   11104:	3c078002 	lui	a3,0x8002
   11108:	3c038002 	lui	v1,0x8002
   1110c:	24e41550 	addiu	a0,a3,5456
   11110:	24631400 	addiu	v1,v1,5120
   11114:	24020003 	li	v0,3
   11118:	27bd0020 	addiu	sp,sp,32
   1111c:	ac780158 	sw	t8,344(v1)
   11120:	ad480004 	sw	t0,4(t2)
   11124:	aca40004 	sw	a0,4(a1)
   11128:	ac620160 	sw	v0,352(v1)
   1112c:	ace51550 	sw	a1,5456(a3)
   11130:	ac860004 	sw	a2,4(a0)
   11134:	03e00008 	jr	ra
   11138:	acc40000 	sw	a0,0(a2)
   1113c:	27bdffc8 	addiu	sp,sp,-56
   11140:	3c028002 	lui	v0,0x8002
   11144:	3c038002 	lui	v1,0x8002
   11148:	afb40028 	sw	s4,40(sp)
   1114c:	afb30024 	sw	s3,36(sp)
   11150:	2474a6dc 	addiu	s4,v1,-22820
   11154:	2453a750 	addiu	s3,v0,-22704
   11158:	3c038002 	lui	v1,0x8002
   1115c:	3c02ffff 	lui	v0,0xffff
   11160:	afb5002c 	sw	s5,44(sp)
   11164:	afb20020 	sw	s2,32(sp)
   11168:	afb1001c 	sw	s1,28(sp)
   1116c:	afb00018 	sw	s0,24(sp)
   11170:	afbf0030 	sw	ra,48(sp)
   11174:	34551fff 	ori	s5,v0,0x1fff
   11178:	24701568 	addiu	s0,v1,5480
   1117c:	00008821 	move	s1,zero
   11180:	3c128002 	lui	s2,0x8002
   11184:	0c0051bf 	jal	0x146fc
   11188:	02202021 	move	a0,s1
   1118c:	8e02518c 	lw	v0,20876(s0)
   11190:	8e86006c 	lw	a2,108(s4)
   11194:	2643a6bc 	addiu	v1,s2,-22852
   11198:	8e64006c 	lw	a0,108(s3)
   1119c:	9065001b 	lbu	a1,27(v1)
   111a0:	00551024 	and	v0,v0,s5
   111a4:	34422000 	ori	v0,v0,0x2000
   111a8:	2403f1ff 	li	v1,-3585
   111ac:	00862021 	addu	a0,a0,a2
   111b0:	00431024 	and	v0,v0,v1
   111b4:	00052900 	sll	a1,a1,0x4
   111b8:	00042042 	srl	a0,a0,0x1
   111bc:	34420200 	ori	v0,v0,0x200
   111c0:	ae045158 	sw	a0,20824(s0)
   111c4:	ae05517c 	sw	a1,20860(s0)
   111c8:	ae02518c 	sw	v0,20876(s0)
   111cc:	ae055180 	sw	a1,20864(s0)
   111d0:	00003021 	move	a2,zero
   111d4:	02061021 	addu	v0,s0,a2
   111d8:	24c60001 	addiu	a2,a2,1
   111dc:	28c3001d 	slti	v1,a2,29
   111e0:	a04051ad 	sb	zero,20909(v0)
   111e4:	a0405190 	sb	zero,20880(v0)
   111e8:	1460fffa 	bnez	v1,0x111d4
   111ec:	a04051ca 	sb	zero,20938(v0)
   111f0:	26310001 	addiu	s1,s1,1
   111f4:	2a220020 	slti	v0,s1,32
   111f8:	ae0051e8 	sw	zero,20968(s0)
   111fc:	1440ffe1 	bnez	v0,0x11184
   11200:	26100094 	addiu	s0,s0,148
   11204:	3c028002 	lui	v0,0x8002
   11208:	3c038002 	lui	v1,0x8002
   1120c:	244b1568 	addiu	t3,v0,5480
   11210:	3c028002 	lui	v0,0x8002
   11214:	246fa750 	addiu	t7,v1,-22704
   11218:	244da6dc 	addiu	t5,v0,-22820
   1121c:	3c038002 	lui	v1,0x8002
   11220:	3c028002 	lui	v0,0x8002
   11224:	246ea6bc 	addiu	t6,v1,-22852
   11228:	244ca69c 	addiu	t4,v0,-22884
   1122c:	00008821 	move	s1,zero
   11230:	00111880 	sll	v1,s1,0x2
   11234:	006d2021 	addu	a0,v1,t5
   11238:	006f1021 	addu	v0,v1,t7
   1123c:	022e2821 	addu	a1,s1,t6
   11240:	022c3021 	addu	a2,s1,t4
   11244:	8c880000 	lw	t0,0(a0)
   11248:	90a90000 	lbu	t1,0(a1)
   1124c:	90c70000 	lbu	a3,0(a2)
   11250:	8c4a0000 	lw	t2,0(v0)
   11254:	022b1021 	addu	v0,s1,t3
   11258:	26310001 	addiu	s1,s1,1
   1125c:	006b1821 	addu	v1,v1,t3
   11260:	2a24001d 	slti	a0,s1,29
   11264:	ac6844f4 	sw	t0,17652(v1)
   11268:	a04744d2 	sb	a3,17618(v0)
   1126c:	ac6a4568 	sw	t2,17768(v1)
   11270:	1480ffef 	bnez	a0,0x11230
   11274:	a0494498 	sb	t1,17560(v0)
   11278:	3c028002 	lui	v0,0x8002
   1127c:	244a1568 	addiu	t2,v0,5480
   11280:	3c038002 	lui	v1,0x8002
   11284:	3c028002 	lui	v0,0x8002
   11288:	246ba578 	addiu	t3,v1,-23176
   1128c:	244ca418 	addiu	t4,v0,-23528
   11290:	00008821 	move	s1,zero
   11294:	00004821 	move	t1,zero
   11298:	00003021 	move	a2,zero
   1129c:	012a4021 	addu	t0,t1,t2
   112a0:	012b3821 	addu	a3,t1,t3
   112a4:	00e61021 	addu	v0,a3,a2
   112a8:	90440091 	lbu	a0,145(v0)
   112ac:	90450000 	lbu	a1,0(v0)
   112b0:	01061821 	addu	v1,t0,a2
   112b4:	24c60001 	addiu	a2,a2,1
   112b8:	28c20005 	slti	v0,a2,5
   112bc:	a06443cd 	sb	a0,17357(v1)
   112c0:	1440fff8 	bnez	v0,0x112a4
   112c4:	a065433c 	sb	a1,17212(v1)
   112c8:	022c1021 	addu	v0,s1,t4
   112cc:	9044001d 	lbu	a0,29(v0)
   112d0:	90450000 	lbu	a1,0(v0)
   112d4:	022a1821 	addu	v1,s1,t2
   112d8:	26310001 	addiu	s1,s1,1
   112dc:	2a22001d 	slti	v0,s1,29
   112e0:	a064447b 	sb	a0,17531(v1)
   112e4:	a065445e 	sb	a1,17502(v1)
   112e8:	1440ffeb 	bnez	v0,0x11298
   112ec:	25290005 	addiu	t1,t1,5
   112f0:	24020052 	li	v0,82
   112f4:	a3a20010 	sb	v0,16(sp)
   112f8:	24030041 	li	v1,65
   112fc:	2402004d 	li	v0,77
   11300:	3c078002 	lui	a3,0x8002
   11304:	24e7ad78 	addiu	a3,a3,-21128
   11308:	a3a30011 	sb	v1,17(sp)
   1130c:	a3a20012 	sb	v0,18(sp)
   11310:	240303e8 	li	v1,1000
   11314:	24020001 	li	v0,1
   11318:	3c068000 	lui	a2,0x8000
   1131c:	27a50010 	addiu	a1,sp,16
   11320:	00e02021 	move	a0,a3
   11324:	24c64340 	addiu	a2,a2,17216
   11328:	ace3000c 	sw	v1,12(a3)
   1132c:	a0e20014 	sb	v0,20(a3)
   11330:	0c000fab 	jal	0x3eac
   11334:	a3a00013 	sb	zero,19(sp)
   11338:	8fbf0030 	lw	ra,48(sp)
   1133c:	8fb5002c 	lw	s5,44(sp)
   11340:	8fb40028 	lw	s4,40(sp)
   11344:	8fb30024 	lw	s3,36(sp)
   11348:	8fb20020 	lw	s2,32(sp)
   1134c:	8fb1001c 	lw	s1,28(sp)
   11350:	8fb00018 	lw	s0,24(sp)
   11354:	03e00008 	jr	ra
   11358:	27bd0038 	addiu	sp,sp,56
   1135c:	27bdffe0 	addiu	sp,sp,-32
   11360:	3c028002 	lui	v0,0x8002
   11364:	24030042 	li	v1,66
   11368:	a3a30010 	sb	v1,16(sp)
   1136c:	a040605d 	sb	zero,24669(v0)
   11370:	2403004e 	li	v1,78
   11374:	24020043 	li	v0,67
   11378:	3c078002 	lui	a3,0x8002
   1137c:	24e7adb0 	addiu	a3,a3,-21072
   11380:	a3a20011 	sb	v0,17(sp)
   11384:	a3a30012 	sb	v1,18(sp)
   11388:	240207d0 	li	v0,2000
   1138c:	24030001 	li	v1,1
   11390:	3c068000 	lui	a2,0x8000
   11394:	27a50010 	addiu	a1,sp,16
   11398:	00e02021 	move	a0,a3
   1139c:	24c6551c 	addiu	a2,a2,21788
   113a0:	ace2000c 	sw	v0,12(a3)
   113a4:	a0e30014 	sb	v1,20(a3)
   113a8:	afbf0018 	sw	ra,24(sp)
   113ac:	0c000fab 	jal	0x3eac
   113b0:	a3a00013 	sb	zero,19(sp)
   113b4:	8fbf0018 	lw	ra,24(sp)
   113b8:	00000000 	nop
   113bc:	03e00008 	jr	ra
   113c0:	27bd0020 	addiu	sp,sp,32
   113c4:	27bdfd48 	addiu	sp,sp,-696
   113c8:	afb302b4 	sw	s3,692(sp)
   113cc:	3c028002 	lui	v0,0x8002
   113d0:	3c138002 	lui	s3,0x8002
   113d4:	2446a85c 	addiu	a2,v0,-22436
   113d8:	26631568 	addiu	v1,s3,5480
   113dc:	afb202b0 	sw	s2,688(sp)
   113e0:	afb102ac 	sw	s1,684(sp)
   113e4:	afb002a8 	sw	s0,680(sp)
   113e8:	a0604003 	sb	zero,16387(v1)
   113ec:	03a03821 	move	a3,sp
   113f0:	24c80090 	addiu	t0,a2,144
   113f4:	8cc20000 	lw	v0,0(a2)
   113f8:	8cc30004 	lw	v1,4(a2)
   113fc:	8cc40008 	lw	a0,8(a2)
   11400:	8cc5000c 	lw	a1,12(a2)
   11404:	24c60010 	addiu	a2,a2,16
   11408:	ace20000 	sw	v0,0(a3)
   1140c:	ace30004 	sw	v1,4(a3)
   11410:	ace40008 	sw	a0,8(a3)
   11414:	ace5000c 	sw	a1,12(a3)
   11418:	14c8fff6 	bne	a2,t0,0x113f4
   1141c:	24e70010 	addiu	a3,a3,16
   11420:	8cc30000 	lw	v1,0(a2)
   11424:	3c028002 	lui	v0,0x8002
   11428:	2458a8f0 	addiu	t8,v0,-22288
   1142c:	ace30000 	sw	v1,0(a3)
   11430:	27b90098 	addiu	t9,sp,152
   11434:	27120100 	addiu	s2,t8,256
   11438:	93020001 	lbu	v0,1(t8)
   1143c:	93030005 	lbu	v1,5(t8)
   11440:	93040009 	lbu	a0,9(t8)
   11444:	9305000d 	lbu	a1,13(t8)
   11448:	93110000 	lbu	s1,0(t8)
   1144c:	930d0002 	lbu	t5,2(t8)
   11450:	93100004 	lbu	s0,4(t8)
   11454:	930c0006 	lbu	t4,6(t8)
   11458:	930f0008 	lbu	t7,8(t8)
   1145c:	9307000a 	lbu	a3,10(t8)
   11460:	930e000c 	lbu	t6,12(t8)
   11464:	9306000e 	lbu	a2,14(t8)
   11468:	93080003 	lbu	t0,3(t8)
   1146c:	93090007 	lbu	t1,7(t8)
   11470:	930a000b 	lbu	t2,11(t8)
   11474:	930b000f 	lbu	t3,15(t8)
   11478:	00021200 	sll	v0,v0,0x8
   1147c:	00031a00 	sll	v1,v1,0x8
   11480:	00042200 	sll	a0,a0,0x8
   11484:	00052a00 	sll	a1,a1,0x8
   11488:	00511025 	or	v0,v0,s1
   1148c:	00701825 	or	v1,v1,s0
   11490:	008f2025 	or	a0,a0,t7
   11494:	00ae2825 	or	a1,a1,t6
   11498:	000d6c00 	sll	t5,t5,0x10
   1149c:	000c6400 	sll	t4,t4,0x10
   114a0:	00073c00 	sll	a3,a3,0x10
   114a4:	00063400 	sll	a2,a2,0x10
   114a8:	01a26825 	or	t5,t5,v0
   114ac:	01836025 	or	t4,t4,v1
   114b0:	00e43825 	or	a3,a3,a0
   114b4:	00c53025 	or	a2,a2,a1
   114b8:	00084600 	sll	t0,t0,0x18
   114bc:	00094e00 	sll	t1,t1,0x18
   114c0:	000a5600 	sll	t2,t2,0x18
   114c4:	000b5e00 	sll	t3,t3,0x18
   114c8:	010d4025 	or	t0,t0,t5
   114cc:	012c4825 	or	t1,t1,t4
   114d0:	01475025 	or	t2,t2,a3
   114d4:	01665825 	or	t3,t3,a2
   114d8:	27180010 	addiu	t8,t8,16
   114dc:	af280000 	sw	t0,0(t9)
   114e0:	af290004 	sw	t1,4(t9)
   114e4:	af2a0008 	sw	t2,8(t9)
   114e8:	af2b000c 	sw	t3,12(t9)
   114ec:	1712ffd2 	bne	t8,s2,0x11438
   114f0:	27390010 	addiu	t9,t9,16
   114f4:	93020001 	lbu	v0,1(t8)
   114f8:	93030005 	lbu	v1,5(t8)
   114fc:	93090000 	lbu	t1,0(t8)
   11500:	93040002 	lbu	a0,2(t8)
   11504:	93080004 	lbu	t0,4(t8)
   11508:	93050006 	lbu	a1,6(t8)
   1150c:	93060007 	lbu	a2,7(t8)
   11510:	93070003 	lbu	a3,3(t8)
   11514:	00021200 	sll	v0,v0,0x8
   11518:	00031a00 	sll	v1,v1,0x8
   1151c:	00491025 	or	v0,v0,t1
   11520:	00681825 	or	v1,v1,t0
   11524:	00042400 	sll	a0,a0,0x10
   11528:	00052c00 	sll	a1,a1,0x10
   1152c:	00822025 	or	a0,a0,v0
   11530:	00a32825 	or	a1,a1,v1
   11534:	00073e00 	sll	a3,a3,0x18
   11538:	00063600 	sll	a2,a2,0x18
   1153c:	3c028002 	lui	v0,0x8002
   11540:	00e43825 	or	a3,a3,a0
   11544:	00c53025 	or	a2,a2,a1
   11548:	2458a9f8 	addiu	t8,v0,-22024
   1154c:	af260004 	sw	a2,4(t9)
   11550:	af270000 	sw	a3,0(t9)
   11554:	27120100 	addiu	s2,t8,256
   11558:	27b901a0 	addiu	t9,sp,416
   1155c:	93020001 	lbu	v0,1(t8)
   11560:	93030005 	lbu	v1,5(t8)
   11564:	93040009 	lbu	a0,9(t8)
   11568:	9305000d 	lbu	a1,13(t8)
   1156c:	93110000 	lbu	s1,0(t8)
   11570:	930d0002 	lbu	t5,2(t8)
   11574:	93100004 	lbu	s0,4(t8)
   11578:	930c0006 	lbu	t4,6(t8)
   1157c:	930f0008 	lbu	t7,8(t8)
   11580:	9307000a 	lbu	a3,10(t8)
   11584:	930e000c 	lbu	t6,12(t8)
   11588:	9306000e 	lbu	a2,14(t8)
   1158c:	93080003 	lbu	t0,3(t8)
   11590:	93090007 	lbu	t1,7(t8)
   11594:	930a000b 	lbu	t2,11(t8)
   11598:	930b000f 	lbu	t3,15(t8)
   1159c:	00021200 	sll	v0,v0,0x8
   115a0:	00031a00 	sll	v1,v1,0x8
   115a4:	00042200 	sll	a0,a0,0x8
   115a8:	00052a00 	sll	a1,a1,0x8
   115ac:	00511025 	or	v0,v0,s1
   115b0:	00701825 	or	v1,v1,s0
   115b4:	008f2025 	or	a0,a0,t7
   115b8:	00ae2825 	or	a1,a1,t6
   115bc:	000d6c00 	sll	t5,t5,0x10
   115c0:	000c6400 	sll	t4,t4,0x10
   115c4:	00073c00 	sll	a3,a3,0x10
   115c8:	00063400 	sll	a2,a2,0x10
   115cc:	01a26825 	or	t5,t5,v0
   115d0:	01836025 	or	t4,t4,v1
   115d4:	00e43825 	or	a3,a3,a0
   115d8:	00c53025 	or	a2,a2,a1
   115dc:	00084600 	sll	t0,t0,0x18
   115e0:	00094e00 	sll	t1,t1,0x18
   115e4:	000a5600 	sll	t2,t2,0x18
   115e8:	000b5e00 	sll	t3,t3,0x18
   115ec:	010d4025 	or	t0,t0,t5
   115f0:	012c4825 	or	t1,t1,t4
   115f4:	01475025 	or	t2,t2,a3
   115f8:	01665825 	or	t3,t3,a2
   115fc:	27180010 	addiu	t8,t8,16
   11600:	af280000 	sw	t0,0(t9)
   11604:	af290004 	sw	t1,4(t9)
   11608:	af2a0008 	sw	t2,8(t9)
   1160c:	af2b000c 	sw	t3,12(t9)
   11610:	1712ffd2 	bne	t8,s2,0x1155c
   11614:	27390010 	addiu	t9,t9,16
   11618:	93020001 	lbu	v0,1(t8)
   1161c:	93030005 	lbu	v1,5(t8)
   11620:	93090000 	lbu	t1,0(t8)
   11624:	93040002 	lbu	a0,2(t8)
   11628:	93080004 	lbu	t0,4(t8)
   1162c:	93050006 	lbu	a1,6(t8)
   11630:	93060007 	lbu	a2,7(t8)
   11634:	93070003 	lbu	a3,3(t8)
   11638:	00021200 	sll	v0,v0,0x8
   1163c:	00031a00 	sll	v1,v1,0x8
   11640:	00491025 	or	v0,v0,t1
   11644:	00681825 	or	v1,v1,t0
   11648:	00042400 	sll	a0,a0,0x10
   1164c:	00052c00 	sll	a1,a1,0x10
   11650:	00822025 	or	a0,a0,v0
   11654:	00a32825 	or	a1,a1,v1
   11658:	00073e00 	sll	a3,a3,0x18
   1165c:	00063600 	sll	a2,a2,0x18
   11660:	00c53025 	or	a2,a2,a1
   11664:	00e43825 	or	a3,a3,a0
   11668:	3c028002 	lui	v0,0x8002
   1166c:	af260004 	sw	a2,4(t9)
   11670:	af270000 	sw	a3,0(t9)
   11674:	24461568 	addiu	a2,v0,5480
   11678:	00005021 	move	t2,zero
   1167c:	000a2080 	sll	a0,t2,0x2
   11680:	009d1021 	addu	v0,a0,sp
   11684:	8c450000 	lw	a1,0(v0)
   11688:	25430001 	addiu	v1,t2,1
   1168c:	306a00ff 	andi	t2,v1,0xff
   11690:	00862021 	addu	a0,a0,a2
   11694:	2d420025 	sltiu	v0,t2,37
   11698:	1440fff8 	bnez	v0,0x1167c
   1169c:	ac854018 	sw	a1,16408(a0)
   116a0:	3c028002 	lui	v0,0x8002
   116a4:	244b1568 	addiu	t3,v0,5480
   116a8:	00005021 	move	t2,zero
   116ac:	000a10c0 	sll	v0,t2,0x3
   116b0:	005d4821 	addu	t1,v0,sp
   116b4:	00003821 	move	a3,zero
   116b8:	004b4021 	addu	t0,v0,t3
   116bc:	01271021 	addu	v0,t1,a3
   116c0:	904601a0 	lbu	a2,416(v0)
   116c4:	90450098 	lbu	a1,152(v0)
   116c8:	24e40001 	addiu	a0,a3,1
   116cc:	01071821 	addu	v1,t0,a3
   116d0:	308700ff 	andi	a3,a0,0xff
   116d4:	2ce20008 	sltiu	v0,a3,8
   116d8:	a06641b4 	sb	a2,16820(v1)
   116dc:	1440fff7 	bnez	v0,0x116bc
   116e0:	a06540ac 	sb	a1,16556(v1)
   116e4:	25420001 	addiu	v0,t2,1
   116e8:	304a00ff 	andi	t2,v0,0xff
   116ec:	2d430021 	sltiu	v1,t2,33
   116f0:	1460ffef 	bnez	v1,0x116b0
   116f4:	000a10c0 	sll	v0,t2,0x3
   116f8:	3c02b025 	lui	v0,0xb025
   116fc:	3442000a 	ori	v0,v0,0xa
   11700:	90430000 	lbu	v1,0(v0)
   11704:	00000000 	nop
   11708:	30630020 	andi	v1,v1,0x20
   1170c:	10600042 	beqz	v1,0x11818
   11710:	26641568 	addiu	a0,s3,5480
   11714:	24020033 	li	v0,51
   11718:	a16242c1 	sb	v0,17089(t3)
   1171c:	2403001c 	li	v1,28
   11720:	2402000f 	li	v0,15
   11724:	a16342bc 	sb	v1,17084(t3)
   11728:	a16242bd 	sb	v0,17085(t3)
   1172c:	26651568 	addiu	a1,s3,5480
   11730:	8ca44008 	lw	a0,16392(a1)
   11734:	3c087fff 	lui	t0,0x7fff
   11738:	3508ffff 	ori	t0,t0,0xffff
   1173c:	2402ffc0 	li	v0,-64
   11740:	00882024 	and	a0,a0,t0
   11744:	00822024 	and	a0,a0,v0
   11748:	3484000c 	ori	a0,a0,0xc
   1174c:	2402c0ff 	li	v0,-16129
   11750:	00822024 	and	a0,a0,v0
   11754:	3c02ffc0 	lui	v0,0xffc0
   11758:	3442ffff 	ori	v0,v0,0xffff
   1175c:	34841800 	ori	a0,a0,0x1800
   11760:	3c03ffbf 	lui	v1,0xffbf
   11764:	00822024 	and	a0,a0,v0
   11768:	3463ffff 	ori	v1,v1,0xffff
   1176c:	3c02ff7f 	lui	v0,0xff7f
   11770:	00832024 	and	a0,a0,v1
   11774:	3442ffff 	ori	v0,v0,0xffff
   11778:	00822024 	and	a0,a0,v0
   1177c:	8ca6400c 	lw	a2,16396(a1)
   11780:	2403ff7f 	li	v1,-129
   11784:	34844040 	ori	a0,a0,0x4040
   11788:	3c02ffff 	lui	v0,0xffff
   1178c:	00832024 	and	a0,a0,v1
   11790:	34427fff 	ori	v0,v0,0x7fff
   11794:	3c03bfff 	lui	v1,0xbfff
   11798:	8ca74010 	lw	a3,16400(a1)
   1179c:	00822024 	and	a0,a0,v0
   117a0:	3463ffff 	ori	v1,v1,0xffff
   117a4:	3c029fff 	lui	v0,0x9fff
   117a8:	00c33024 	and	a2,a2,v1
   117ac:	3442ffff 	ori	v0,v0,0xffff
   117b0:	3c033fff 	lui	v1,0x3fff
   117b4:	00822024 	and	a0,a0,v0
   117b8:	3463ffff 	ori	v1,v1,0xffff
   117bc:	24020012 	li	v0,18
   117c0:	8fb302b4 	lw	s3,692(sp)
   117c4:	8fb202b0 	lw	s2,688(sp)
   117c8:	8fb102ac 	lw	s1,684(sp)
   117cc:	8fb002a8 	lw	s0,680(sp)
   117d0:	00e33824 	and	a3,a3,v1
   117d4:	a0a242c7 	sb	v0,17095(a1)
   117d8:	2403001f 	li	v1,31
   117dc:	24020001 	li	v0,1
   117e0:	00c83024 	and	a2,a2,t0
   117e4:	a0a342be 	sb	v1,17086(a1)
   117e8:	a0a242c0 	sb	v0,17088(a1)
   117ec:	240300ff 	li	v1,255
   117f0:	2402ffff 	li	v0,-1
   117f4:	27bd02b8 	addiu	sp,sp,696
   117f8:	aca44008 	sw	a0,16392(a1)
   117fc:	aca74010 	sw	a3,16400(a1)
   11800:	aca6400c 	sw	a2,16396(a1)
   11804:	a0a242c2 	sb	v0,17090(a1)
   11808:	a4a342c4 	sh	v1,17092(a1)
   1180c:	a0a042bf 	sb	zero,17087(a1)
   11810:	03e00008 	jr	ra
   11814:	a0a042c6 	sb	zero,17094(a1)
   11818:	24020033 	li	v0,51
   1181c:	a08242c1 	sb	v0,17089(a0)
   11820:	2403000d 	li	v1,13
   11824:	24020003 	li	v0,3
   11828:	a08342bc 	sb	v1,17084(a0)
   1182c:	080062b5 	j	0x18ad4
   11830:	a08242bd 	sb	v0,17085(a0)
   11834:	27bdffe0 	addiu	sp,sp,-32
   11838:	3c078002 	lui	a3,0x8002
   1183c:	24e71568 	addiu	a3,a3,5480
   11840:	afbf0018 	sw	ra,24(sp)
   11844:	8ce34000 	lw	v1,16384(a3)
   11848:	a0e042e6 	sb	zero,17126(a3)
   1184c:	2402f0ff 	li	v0,-3841
   11850:	8ce842e4 	lw	t0,17124(a3)
   11854:	00621824 	and	v1,v1,v0
   11858:	2402ffff 	li	v0,-1
   1185c:	ace34000 	sw	v1,16384(a3)
   11860:	a0e24000 	sb	v0,16384(a3)
   11864:	3c02efff 	lui	v0,0xefff
   11868:	3442ffff 	ori	v0,v0,0xffff
   1186c:	3c03bfff 	lui	v1,0xbfff
   11870:	01024024 	and	t0,t0,v0
   11874:	3463ffff 	ori	v1,v1,0xffff
   11878:	3c027fff 	lui	v0,0x7fff
   1187c:	01034024 	and	t0,t0,v1
   11880:	3442ffff 	ori	v0,v0,0xffff
   11884:	8ce94000 	lw	t1,16384(a3)
   11888:	01024024 	and	t0,t0,v0
   1188c:	3c02dfff 	lui	v0,0xdfff
   11890:	3442ffff 	ori	v0,v0,0xffff
   11894:	01024024 	and	t0,t0,v0
   11898:	2404efff 	li	a0,-4097
   1189c:	2402000a 	li	v0,10
   118a0:	a0e242d2 	sb	v0,17106(a3)
   118a4:	01244824 	and	t1,t1,a0
   118a8:	2403bfff 	li	v1,-16385
   118ac:	24020020 	li	v0,32
   118b0:	01234824 	and	t1,t1,v1
   118b4:	a4e242c8 	sh	v0,17096(a3)
   118b8:	24030100 	li	v1,256
   118bc:	24020200 	li	v0,512
   118c0:	3c0b8002 	lui	t3,0x8002
   118c4:	256bad94 	addiu	t3,t3,-21100
   118c8:	a4e342ca 	sh	v1,17098(a3)
   118cc:	a4e242cc 	sh	v0,17100(a3)
   118d0:	24030049 	li	v1,73
   118d4:	24020044 	li	v0,68
   118d8:	3c068000 	lui	a2,0x8000
   118dc:	ace94000 	sw	t1,16384(a3)
   118e0:	ace842e4 	sw	t0,17124(a3)
   118e4:	340affff 	li	t2,0xffff
   118e8:	240c0020 	li	t4,32
   118ec:	240e003e 	li	t6,62
   118f0:	240d0001 	li	t5,1
   118f4:	a3a20010 	sb	v0,16(sp)
   118f8:	a3a30011 	sb	v1,17(sp)
   118fc:	27a50010 	addiu	a1,sp,16
   11900:	24020047 	li	v0,71
   11904:	240307d0 	li	v1,2000
   11908:	01602021 	move	a0,t3
   1190c:	24c655d4 	addiu	a2,a2,21972
   11910:	a3a20012 	sb	v0,18(sp)
   11914:	acea4004 	sw	t2,16388(a3)
   11918:	a0ee42d0 	sb	t6,17104(a3)
   1191c:	a0ec42d7 	sb	t4,17111(a3)
   11920:	a0ed4002 	sb	t5,16386(a3)
   11924:	ad63000c 	sw	v1,12(t3)
   11928:	a16d0014 	sb	t5,20(t3)
   1192c:	acea63f0 	sw	t2,25584(a3)
   11930:	acea63f8 	sw	t2,25592(a3)
   11934:	acea63fc 	sw	t2,25596(a3)
   11938:	acea6400 	sw	t2,25600(a3)
   1193c:	ace06404 	sw	zero,25604(a3)
   11940:	ace06408 	sw	zero,25608(a3)
   11944:	a0ee42ce 	sb	t6,17102(a3)
   11948:	a0ec42cf 	sb	t4,17103(a3)
   1194c:	a0ec42d1 	sb	t4,17105(a3)
   11950:	a0e042d6 	sb	zero,17110(a3)
   11954:	a0e042d4 	sb	zero,17108(a3)
   11958:	0c000fab 	jal	0x3eac
   1195c:	a3a00013 	sb	zero,19(sp)
   11960:	8fbf0018 	lw	ra,24(sp)
   11964:	00000000 	nop
   11968:	03e00008 	jr	ra
   1196c:	27bd0020 	addiu	sp,sp,32
   11970:	27bdffe0 	addiu	sp,sp,-32
   11974:	3c028002 	lui	v0,0x8002
   11978:	24030050 	li	v1,80
   1197c:	a3a30010 	sb	v1,16(sp)
   11980:	a040623e 	sb	zero,25150(v0)
   11984:	24030041 	li	v1,65
   11988:	24020052 	li	v0,82
   1198c:	3c078002 	lui	a3,0x8002
   11990:	24e7ae3c 	addiu	a3,a3,-20932
   11994:	a3a20011 	sb	v0,17(sp)
   11998:	a3a30012 	sb	v1,18(sp)
   1199c:	240207d0 	li	v0,2000
   119a0:	24030001 	li	v1,1
   119a4:	3c068001 	lui	a2,0x8001
   119a8:	27a50010 	addiu	a1,sp,16
   119ac:	00e02021 	move	a0,a3
   119b0:	24c66f48 	addiu	a2,a2,28488
   119b4:	ace2000c 	sw	v0,12(a3)
   119b8:	a0e30014 	sb	v1,20(a3)
   119bc:	afbf0018 	sw	ra,24(sp)
   119c0:	0c000fab 	jal	0x3eac
   119c4:	a3a00013 	sb	zero,19(sp)
   119c8:	8fbf0018 	lw	ra,24(sp)
   119cc:	00000000 	nop
   119d0:	03e00008 	jr	ra
   119d4:	27bd0020 	addiu	sp,sp,32
   119d8:	27bdffd8 	addiu	sp,sp,-40
   119dc:	afb00018 	sw	s0,24(sp)
   119e0:	3c108002 	lui	s0,0x8002
   119e4:	26101568 	addiu	s0,s0,5480
   119e8:	afbf0020 	sw	ra,32(sp)
   119ec:	afb1001c 	sw	s1,28(sp)
   119f0:	8e094000 	lw	t1,16384(s0)
   119f4:	2402ffff 	li	v0,-1
   119f8:	304b00ff 	andi	t3,v0,0xff
   119fc:	2402dfff 	li	v0,-8193
   11a00:	01224824 	and	t1,t1,v0
   11a04:	3c02ffff 	lui	v0,0xffff
   11a08:	34427fff 	ori	v0,v0,0x7fff
   11a0c:	01224824 	and	t1,t1,v0
   11a10:	3c070001 	lui	a3,0x1
   11a14:	24020047 	li	v0,71
   11a18:	2403003b 	li	v1,59
   11a1c:	3c088002 	lui	t0,0x8002
   11a20:	a3a20010 	sb	v0,16(sp)
   11a24:	a3a30011 	sb	v1,17(sp)
   11a28:	2508ae58 	addiu	t0,t0,-20904
   11a2c:	34ea3056 	ori	t2,a3,0x3056
   11a30:	240207d0 	li	v0,2000
   11a34:	24030001 	li	v1,1
   11a38:	34e798f4 	ori	a3,a3,0x98f4
   11a3c:	3c068000 	lui	a2,0x8000
   11a40:	ae0b4304 	sw	t3,17156(s0)
   11a44:	ae094000 	sw	t1,16384(s0)
   11a48:	24110043 	li	s1,67
   11a4c:	27a50010 	addiu	a1,sp,16
   11a50:	ae07430c 	sw	a3,17164(s0)
   11a54:	ae0a4310 	sw	t2,17168(s0)
   11a58:	ad02000c 	sw	v0,12(t0)
   11a5c:	a1030014 	sb	v1,20(t0)
   11a60:	ae004320 	sw	zero,17184(s0)
   11a64:	ae004324 	sw	zero,17188(s0)
   11a68:	ae004308 	sw	zero,17160(s0)
   11a6c:	ae004314 	sw	zero,17172(s0)
   11a70:	ae004318 	sw	zero,17176(s0)
   11a74:	01002021 	move	a0,t0
   11a78:	24c66424 	addiu	a2,a2,25636
   11a7c:	a3b10012 	sb	s1,18(sp)
   11a80:	0c000fab 	jal	0x3eac
   11a84:	a3a00013 	sb	zero,19(sp)
   11a88:	2402001e 	li	v0,30
   11a8c:	a2024329 	sb	v0,17193(s0)
   11a90:	2403004a 	li	v1,74
   11a94:	24020045 	li	v0,69
   11a98:	a203431c 	sb	v1,17180(s0)
   11a9c:	a202431d 	sb	v0,17181(s0)
   11aa0:	24030023 	li	v1,35
   11aa4:	2402003e 	li	v0,62
   11aa8:	a211431e 	sb	s1,17182(s0)
   11aac:	a202431f 	sb	v0,17183(s0)
   11ab0:	a2034328 	sb	v1,17192(s0)
   11ab4:	8fbf0020 	lw	ra,32(sp)
   11ab8:	8fb1001c 	lw	s1,28(sp)
   11abc:	8fb00018 	lw	s0,24(sp)
   11ac0:	03e00008 	jr	ra
   11ac4:	27bd0028 	addiu	sp,sp,40
   11ac8:	27bdffe0 	addiu	sp,sp,-32
   11acc:	2402003b 	li	v0,59
   11ad0:	24030043 	li	v1,67
   11ad4:	a3a20010 	sb	v0,16(sp)
   11ad8:	a3a30011 	sb	v1,17(sp)
   11adc:	24020036 	li	v0,54
   11ae0:	3c038002 	lui	v1,0x8002
   11ae4:	3c078002 	lui	a3,0x8002
   11ae8:	24e7ae74 	addiu	a3,a3,-20876
   11aec:	a3a20012 	sb	v0,18(sp)
   11af0:	a060583b 	sb	zero,22587(v1)
   11af4:	240207d0 	li	v0,2000
   11af8:	24030001 	li	v1,1
   11afc:	3c068000 	lui	a2,0x8000
   11b00:	27a50010 	addiu	a1,sp,16
   11b04:	00e02021 	move	a0,a3
   11b08:	24c66934 	addiu	a2,a2,26932
   11b0c:	ace2000c 	sw	v0,12(a3)
   11b10:	a0e30014 	sb	v1,20(a3)
   11b14:	afbf0018 	sw	ra,24(sp)
   11b18:	0c000fab 	jal	0x3eac
   11b1c:	a3a00013 	sb	zero,19(sp)
   11b20:	8fbf0018 	lw	ra,24(sp)
   11b24:	00000000 	nop
   11b28:	03e00008 	jr	ra
   11b2c:	27bd0020 	addiu	sp,sp,32
   11b30:	27bdffe0 	addiu	sp,sp,-32
   11b34:	3c028002 	lui	v0,0x8002
   11b38:	24030052 	li	v1,82
   11b3c:	a3a30010 	sb	v1,16(sp)
   11b40:	a44079c0 	sh	zero,31168(v0)
   11b44:	24030054 	li	v1,84
   11b48:	24020053 	li	v0,83
   11b4c:	3c078002 	lui	a3,0x8002
   11b50:	24e7aeac 	addiu	a3,a3,-20820
   11b54:	a3a20011 	sb	v0,17(sp)
   11b58:	a3a30012 	sb	v1,18(sp)
   11b5c:	240201f4 	li	v0,500
   11b60:	24030001 	li	v1,1
   11b64:	3c068001 	lui	a2,0x8001
   11b68:	27a50010 	addiu	a1,sp,16
   11b6c:	00e02021 	move	a0,a3
   11b70:	24c6708c 	addiu	a2,a2,28812
   11b74:	ace2000c 	sw	v0,12(a3)
   11b78:	a0e30014 	sb	v1,20(a3)
   11b7c:	afbf0018 	sw	ra,24(sp)
   11b80:	0c000fab 	jal	0x3eac
   11b84:	a3a00013 	sb	zero,19(sp)
   11b88:	8fbf0018 	lw	ra,24(sp)
   11b8c:	00000000 	nop
   11b90:	03e00008 	jr	ra
   11b94:	27bd0020 	addiu	sp,sp,32
   11b98:	3c048002 	lui	a0,0x8002
   11b9c:	27bdffd8 	addiu	sp,sp,-40
   11ba0:	24847978 	addiu	a0,a0,31096
   11ba4:	00002821 	move	a1,zero
   11ba8:	afbf0020 	sw	ra,32(sp)
   11bac:	0c004558 	jal	0x11560
   11bb0:	2406000a 	li	a2,10
   11bb4:	3c078002 	lui	a3,0x8002
   11bb8:	24e71568 	addiu	a3,a3,5480
   11bbc:	8ce3640c 	lw	v1,25612(a3)
   11bc0:	2402fffd 	li	v0,-3
   11bc4:	3c088002 	lui	t0,0x8002
   11bc8:	00621824 	and	v1,v1,v0
   11bcc:	2402fffe 	li	v0,-2
   11bd0:	00621824 	and	v1,v1,v0
   11bd4:	24020005 	li	v0,5
   11bd8:	ace3640c 	sw	v1,25612(a3)
   11bdc:	a0e26410 	sb	v0,25616(a3)
   11be0:	24030028 	li	v1,40
   11be4:	24020046 	li	v0,70
   11be8:	a3a20010 	sb	v0,16(sp)
   11bec:	a0e36411 	sb	v1,25617(a3)
   11bf0:	2402004b 	li	v0,75
   11bf4:	24030042 	li	v1,66
   11bf8:	2508aec8 	addiu	t0,t0,-20792
   11bfc:	a3a30011 	sb	v1,17(sp)
   11c00:	a3a20012 	sb	v0,18(sp)
   11c04:	240307d0 	li	v1,2000
   11c08:	24020001 	li	v0,1
   11c0c:	3c068001 	lui	a2,0x8001
   11c10:	27a50010 	addiu	a1,sp,16
   11c14:	01002021 	move	a0,t0
   11c18:	24c67154 	addiu	a2,a2,29012
   11c1c:	a4e0640e 	sh	zero,25614(a3)
   11c20:	ad03000c 	sw	v1,12(t0)
   11c24:	a1020014 	sb	v0,20(t0)
   11c28:	0c000fab 	jal	0x3eac
   11c2c:	a3a00013 	sb	zero,19(sp)
   11c30:	8fbf0020 	lw	ra,32(sp)
   11c34:	00000000 	nop
   11c38:	03e00008 	jr	ra
   11c3c:	27bd0028 	addiu	sp,sp,40
	...
   11c48:	00000c78 	dsll	at,zero,0x11
   11c4c:	5e000001 	bgtzl	s0,0x11c54
   11c50:	00000c78 	dsll	at,zero,0x11
   11c54:	5e010001 	.word	0x5e010001
   11c58:	00000c78 	dsll	at,zero,0x11
   11c5c:	5e020001 	.word	0x5e020001
   11c60:	00000c78 	dsll	at,zero,0x11
   11c64:	5e030001 	.word	0x5e030001
   11c68:	00000c78 	dsll	at,zero,0x11
   11c6c:	5d040001 	.word	0x5d040001
   11c70:	00000c78 	dsll	at,zero,0x11
   11c74:	5b050001 	.word	0x5b050001
   11c78:	00000c78 	dsll	at,zero,0x11
   11c7c:	59060001 	.word	0x59060001
   11c80:	00000c78 	dsll	at,zero,0x11
   11c84:	57070001 	bnel	t8,a3,0x11c8c
   11c88:	00000c78 	dsll	at,zero,0x11
   11c8c:	55080001 	bnel	t0,t0,0x11c94
   11c90:	00000c78 	dsll	at,zero,0x11
   11c94:	53090001 	beql	t8,t1,0x11c9c
   11c98:	00000c78 	dsll	at,zero,0x11
   11c9c:	510a0001 	beql	t0,t2,0x11ca4
   11ca0:	00000c78 	dsll	at,zero,0x11
   11ca4:	4f0b0001 	.word	0x4f0b0001
   11ca8:	00000c78 	dsll	at,zero,0x11
   11cac:	4d0c0001 	.word	0x4d0c0001
   11cb0:	00000c78 	dsll	at,zero,0x11
   11cb4:	4b0d0001 	c2	0x10d0001
   11cb8:	00000c78 	dsll	at,zero,0x11
   11cbc:	490e0001 	.word	0x490e0001
   11cc0:	00000c78 	dsll	at,zero,0x11
   11cc4:	470f0001 	c1	0x10f0001
   11cc8:	00000c78 	dsll	at,zero,0x11
   11ccc:	45100001 	.word	0x45100001
   11cd0:	00000c78 	dsll	at,zero,0x11
   11cd4:	43110001 	c0	0x1110001
   11cd8:	00000c78 	dsll	at,zero,0x11
   11cdc:	41120001 	.word	0x41120001
   11ce0:	00000c78 	dsll	at,zero,0x11
   11ce4:	3f130001 	.word	0x3f130001
   11ce8:	00000c78 	dsll	at,zero,0x11
   11cec:	3d140001 	.word	0x3d140001
   11cf0:	00000c78 	dsll	at,zero,0x11
   11cf4:	3b150001 	xori	s5,t8,0x1
   11cf8:	00000c78 	dsll	at,zero,0x11
   11cfc:	39160001 	xori	s6,t0,0x1
   11d00:	00000c78 	dsll	at,zero,0x11
   11d04:	37170001 	ori	s7,t8,0x1
   11d08:	00000c78 	dsll	at,zero,0x11
   11d0c:	35180001 	ori	t8,t0,0x1
   11d10:	00000c78 	dsll	at,zero,0x11
   11d14:	33190001 	andi	t9,t8,0x1
   11d18:	00000c78 	dsll	at,zero,0x11
   11d1c:	311a0001 	andi	k0,t0,0x1
   11d20:	00000c78 	dsll	at,zero,0x11
   11d24:	2f1b0001 	sltiu	k1,t8,1
   11d28:	00000c78 	dsll	at,zero,0x11
   11d2c:	2d1c0001 	sltiu	gp,t0,1
   11d30:	00000c78 	dsll	at,zero,0x11
   11d34:	2b1d0001 	slti	sp,t8,1
   11d38:	00000c78 	dsll	at,zero,0x11
   11d3c:	291e0001 	slti	s8,t0,1
   11d40:	00000c78 	dsll	at,zero,0x11
   11d44:	271f0001 	addiu	ra,t8,1
   11d48:	00000c78 	dsll	at,zero,0x11
   11d4c:	25200001 	addiu	zero,t1,1
   11d50:	00000c78 	dsll	at,zero,0x11
   11d54:	23210001 	addi	at,t9,1
   11d58:	00000c78 	dsll	at,zero,0x11
   11d5c:	21220001 	addi	v0,t1,1
   11d60:	00000c78 	dsll	at,zero,0x11
   11d64:	1f230001 	.word	0x1f230001
   11d68:	00000c78 	dsll	at,zero,0x11
   11d6c:	1d240001 	.word	0x1d240001
   11d70:	00000c78 	dsll	at,zero,0x11
   11d74:	1b250001 	.word	0x1b250001
   11d78:	00000c78 	dsll	at,zero,0x11
   11d7c:	19260001 	.word	0x19260001
   11d80:	00000c78 	dsll	at,zero,0x11
   11d84:	17270001 	bne	t9,a3,0x11d8c
   11d88:	00000c78 	dsll	at,zero,0x11
   11d8c:	15280001 	bne	t1,t0,0x11d94
   11d90:	00000c78 	dsll	at,zero,0x11
   11d94:	13290001 	beq	t9,t1,0x11d9c
   11d98:	00000c78 	dsll	at,zero,0x11
   11d9c:	112a0001 	beq	t1,t2,0x11da4
   11da0:	00000c78 	dsll	at,zero,0x11
   11da4:	0f2b0001 	jal	0xcac0004
   11da8:	00000c78 	dsll	at,zero,0x11
   11dac:	0d2c0001 	jal	0x4b00004
   11db0:	00000c78 	dsll	at,zero,0x11
   11db4:	0b2d0001 	j	0xcb40004
   11db8:	00000c78 	dsll	at,zero,0x11
   11dbc:	092e0001 	j	0x4b80004
   11dc0:	00000c78 	dsll	at,zero,0x11
   11dc4:	072f0001 	.word	0x72f0001
   11dc8:	00000c78 	dsll	at,zero,0x11
   11dcc:	05300001 	bltzal	t1,0x11dd4
   11dd0:	00000c78 	dsll	at,zero,0x11
   11dd4:	03310001 	.word	0x3310001
   11dd8:	00000c78 	dsll	at,zero,0x11
   11ddc:	01320001 	.word	0x1320001
   11de0:	00000c78 	dsll	at,zero,0x11
   11de4:	01330001 	.word	0x1330001
   11de8:	00000c78 	dsll	at,zero,0x11
   11dec:	01340001 	.word	0x1340001
   11df0:	00000c78 	dsll	at,zero,0x11
   11df4:	01350001 	.word	0x1350001
   11df8:	00000c78 	dsll	at,zero,0x11
   11dfc:	01360001 	.word	0x1360001
   11e00:	00000c78 	dsll	at,zero,0x11
   11e04:	01370001 	.word	0x1370001
   11e08:	00000c78 	dsll	at,zero,0x11
   11e0c:	01380001 	.word	0x1380001
   11e10:	00000c78 	dsll	at,zero,0x11
   11e14:	01390001 	.word	0x1390001
   11e18:	00000c78 	dsll	at,zero,0x11
   11e1c:	013a0001 	.word	0x13a0001
   11e20:	00000c78 	dsll	at,zero,0x11
   11e24:	013b0001 	.word	0x13b0001
   11e28:	00000c78 	dsll	at,zero,0x11
   11e2c:	013c0001 	.word	0x13c0001
   11e30:	00000c78 	dsll	at,zero,0x11
   11e34:	013d0001 	.word	0x13d0001
   11e38:	00000c78 	dsll	at,zero,0x11
   11e3c:	013e0001 	.word	0x13e0001
   11e40:	00000c78 	dsll	at,zero,0x11
   11e44:	013f0001 	.word	0x13f0001
   11e48:	00000c78 	dsll	at,zero,0x11
   11e4c:	5e400001 	bgtzl	s2,0x11e54
   11e50:	00000c78 	dsll	at,zero,0x11
   11e54:	5e410001 	.word	0x5e410001
   11e58:	00000c78 	dsll	at,zero,0x11
   11e5c:	5e420001 	.word	0x5e420001
   11e60:	00000c78 	dsll	at,zero,0x11
   11e64:	5e430001 	.word	0x5e430001
   11e68:	00000c78 	dsll	at,zero,0x11
   11e6c:	5d440001 	.word	0x5d440001
   11e70:	00000c78 	dsll	at,zero,0x11
   11e74:	5b450001 	.word	0x5b450001
   11e78:	00000c78 	dsll	at,zero,0x11
   11e7c:	59460001 	.word	0x59460001
   11e80:	00000c78 	dsll	at,zero,0x11
   11e84:	57470001 	bnel	k0,a3,0x11e8c
   11e88:	00000c78 	dsll	at,zero,0x11
   11e8c:	55480001 	bnel	t2,t0,0x11e94
   11e90:	00000c78 	dsll	at,zero,0x11
   11e94:	53490001 	beql	k0,t1,0x11e9c
   11e98:	00000c78 	dsll	at,zero,0x11
   11e9c:	514a0001 	beql	t2,t2,0x11ea4
   11ea0:	00000c78 	dsll	at,zero,0x11
   11ea4:	4f4b0001 	.word	0x4f4b0001
   11ea8:	00000c78 	dsll	at,zero,0x11
   11eac:	4d4c0001 	.word	0x4d4c0001
   11eb0:	00000c78 	dsll	at,zero,0x11
   11eb4:	4b4d0001 	c2	0x14d0001
   11eb8:	00000c78 	dsll	at,zero,0x11
   11ebc:	494e0001 	.word	0x494e0001
   11ec0:	00000c78 	dsll	at,zero,0x11
   11ec4:	474f0001 	c1	0x14f0001
   11ec8:	00000c78 	dsll	at,zero,0x11
   11ecc:	45500001 	.word	0x45500001
   11ed0:	00000c78 	dsll	at,zero,0x11
   11ed4:	43510001 	c0	0x1510001
   11ed8:	00000c78 	dsll	at,zero,0x11
   11edc:	41520001 	.word	0x41520001
   11ee0:	00000c78 	dsll	at,zero,0x11
   11ee4:	3f530001 	.word	0x3f530001
   11ee8:	00000c78 	dsll	at,zero,0x11
   11eec:	3d540001 	.word	0x3d540001
   11ef0:	00000c78 	dsll	at,zero,0x11
   11ef4:	3b550001 	xori	s5,k0,0x1
   11ef8:	00000c78 	dsll	at,zero,0x11
   11efc:	39560001 	xori	s6,t2,0x1
   11f00:	00000c78 	dsll	at,zero,0x11
   11f04:	37570001 	ori	s7,k0,0x1
   11f08:	00000c78 	dsll	at,zero,0x11
   11f0c:	35580001 	ori	t8,t2,0x1
   11f10:	00000c78 	dsll	at,zero,0x11
   11f14:	33590001 	andi	t9,k0,0x1
   11f18:	00000c78 	dsll	at,zero,0x11
   11f1c:	315a0001 	andi	k0,t2,0x1
   11f20:	00000c78 	dsll	at,zero,0x11
   11f24:	2f5b0001 	sltiu	k1,k0,1
   11f28:	00000c78 	dsll	at,zero,0x11
   11f2c:	2d5c0001 	sltiu	gp,t2,1
   11f30:	00000c78 	dsll	at,zero,0x11
   11f34:	2b5d0001 	slti	sp,k0,1
   11f38:	00000c78 	dsll	at,zero,0x11
   11f3c:	295e0001 	slti	s8,t2,1
   11f40:	00000c78 	dsll	at,zero,0x11
   11f44:	275f0001 	addiu	ra,k0,1
   11f48:	00000c78 	dsll	at,zero,0x11
   11f4c:	25600001 	addiu	zero,t3,1
   11f50:	00000c78 	dsll	at,zero,0x11
   11f54:	23610001 	addi	at,k1,1
   11f58:	00000c78 	dsll	at,zero,0x11
   11f5c:	21620001 	addi	v0,t3,1
   11f60:	00000c78 	dsll	at,zero,0x11
   11f64:	1f630001 	.word	0x1f630001
   11f68:	00000c78 	dsll	at,zero,0x11
   11f6c:	1d640001 	.word	0x1d640001
   11f70:	00000c78 	dsll	at,zero,0x11
   11f74:	1b650001 	.word	0x1b650001
   11f78:	00000c78 	dsll	at,zero,0x11
   11f7c:	19660001 	.word	0x19660001
   11f80:	00000c78 	dsll	at,zero,0x11
   11f84:	17670001 	bne	k1,a3,0x11f8c
   11f88:	00000c78 	dsll	at,zero,0x11
   11f8c:	15680001 	bne	t3,t0,0x11f94
   11f90:	00000c78 	dsll	at,zero,0x11
   11f94:	13690001 	beq	k1,t1,0x11f9c
   11f98:	00000c78 	dsll	at,zero,0x11
   11f9c:	116a0001 	beq	t3,t2,0x11fa4
   11fa0:	00000c78 	dsll	at,zero,0x11
   11fa4:	0f6b0001 	jal	0xdac0004
   11fa8:	00000c78 	dsll	at,zero,0x11
   11fac:	0d6c0001 	jal	0x5b00004
   11fb0:	00000c78 	dsll	at,zero,0x11
   11fb4:	0b6d0001 	j	0xdb40004
   11fb8:	00000c78 	dsll	at,zero,0x11
   11fbc:	096e0001 	j	0x5b80004
   11fc0:	00000c78 	dsll	at,zero,0x11
   11fc4:	076f0001 	.word	0x76f0001
   11fc8:	00000c78 	dsll	at,zero,0x11
   11fcc:	05700001 	bltzal	t3,0x11fd4
   11fd0:	00000c78 	dsll	at,zero,0x11
   11fd4:	03710001 	.word	0x3710001
   11fd8:	00000c78 	dsll	at,zero,0x11
   11fdc:	01720001 	.word	0x1720001
   11fe0:	00000c78 	dsll	at,zero,0x11
   11fe4:	01730001 	.word	0x1730001
   11fe8:	00000c78 	dsll	at,zero,0x11
   11fec:	01740001 	.word	0x1740001
   11ff0:	00000c78 	dsll	at,zero,0x11
   11ff4:	01750001 	.word	0x1750001
   11ff8:	00000c78 	dsll	at,zero,0x11
   11ffc:	01760001 	.word	0x1760001
   12000:	00000c78 	dsll	at,zero,0x11
   12004:	01770001 	.word	0x1770001
   12008:	00000c78 	dsll	at,zero,0x11
   1200c:	01780001 	.word	0x1780001
   12010:	00000c78 	dsll	at,zero,0x11
   12014:	01790001 	.word	0x1790001
   12018:	00000c78 	dsll	at,zero,0x11
   1201c:	017a0001 	.word	0x17a0001
   12020:	00000c78 	dsll	at,zero,0x11
   12024:	017b0001 	.word	0x17b0001
   12028:	00000c78 	dsll	at,zero,0x11
   1202c:	017c0001 	.word	0x17c0001
   12030:	00000c78 	dsll	at,zero,0x11
   12034:	017d0001 	.word	0x17d0001
   12038:	00000c78 	dsll	at,zero,0x11
   1203c:	017e0001 	.word	0x17e0001
   12040:	00000c78 	dsll	at,zero,0x11
   12044:	017f0001 	.word	0x17f0001
   12048:	00000c78 	dsll	at,zero,0x11
   1204c:	3000001e 	andi	zero,zero,0x1e
   12050:	00000c78 	dsll	at,zero,0x11
   12054:	3001001e 	andi	at,zero,0x1e
   12058:	00000c78 	dsll	at,zero,0x11
   1205c:	3002001e 	andi	v0,zero,0x1e
   12060:	00000c78 	dsll	at,zero,0x11
   12064:	3003001e 	andi	v1,zero,0x1e
   12068:	00000c78 	dsll	at,zero,0x11
   1206c:	3004001e 	andi	a0,zero,0x1e
   12070:	00000c78 	dsll	at,zero,0x11
   12074:	3005001e 	andi	a1,zero,0x1e
   12078:	00000c78 	dsll	at,zero,0x11
   1207c:	3006001e 	andi	a2,zero,0x1e
   12080:	00000c78 	dsll	at,zero,0x11
   12084:	3007001e 	andi	a3,zero,0x1e
   12088:	00000c78 	dsll	at,zero,0x11
   1208c:	3e08001e 	.word	0x3e08001e
   12090:	00000c78 	dsll	at,zero,0x11
   12094:	4009001e 	.word	0x4009001e
   12098:	00000c78 	dsll	at,zero,0x11
   1209c:	420a001e 	c0	0xa001e
   120a0:	00000c78 	dsll	at,zero,0x11
   120a4:	440b001e 	.word	0x440b001e
   120a8:	00000c78 	dsll	at,zero,0x11
   120ac:	460c001e 	c1	0xc001e
   120b0:	00000c78 	dsll	at,zero,0x11
   120b4:	480d001e 	.word	0x480d001e
   120b8:	00000c78 	dsll	at,zero,0x11
   120bc:	480e001e 	.word	0x480e001e
   120c0:	00000c78 	dsll	at,zero,0x11
   120c4:	4a0f001e 	c2	0xf001e
   120c8:	00000c78 	dsll	at,zero,0x11
   120cc:	4a10001e 	c2	0x10001e
   120d0:	00000c78 	dsll	at,zero,0x11
   120d4:	4c11001e 	.word	0x4c11001e
   120d8:	00000c78 	dsll	at,zero,0x11
   120dc:	4c12001e 	.word	0x4c12001e
   120e0:	00000c78 	dsll	at,zero,0x11
   120e4:	4e13001e 	.word	0x4e13001e
   120e8:	00000c78 	dsll	at,zero,0x11
   120ec:	5014001e 	beql	zero,s4,0x12168
   120f0:	00000c78 	dsll	at,zero,0x11
   120f4:	5015001e 	beql	zero,s5,0x12170
   120f8:	00000c78 	dsll	at,zero,0x11
   120fc:	5016001e 	beql	zero,s6,0x12178
   12100:	00000c78 	dsll	at,zero,0x11
   12104:	5217001e 	beql	s0,s7,0x12180
   12108:	00000c78 	dsll	at,zero,0x11
   1210c:	5218001e 	beql	s0,t8,0x12188
   12110:	00000c78 	dsll	at,zero,0x11
   12114:	5219001e 	beql	s0,t9,0x12190
   12118:	00000c78 	dsll	at,zero,0x11
   1211c:	541a001e 	bnel	zero,k0,0x12198
   12120:	00000c78 	dsll	at,zero,0x11
   12124:	541b001e 	bnel	zero,k1,0x121a0
   12128:	00000c78 	dsll	at,zero,0x11
   1212c:	541c001e 	bnel	zero,gp,0x121a8
   12130:	00000c78 	dsll	at,zero,0x11
   12134:	561d001e 	bnel	s0,sp,0x121b0
   12138:	00000c78 	dsll	at,zero,0x11
   1213c:	561e001e 	bnel	s0,s8,0x121b8
   12140:	00000c78 	dsll	at,zero,0x11
   12144:	561f001e 	bnel	s0,ra,0x121c0
   12148:	00000c78 	dsll	at,zero,0x11
   1214c:	5620001e 	bnezl	s1,0x121c8
   12150:	00000c78 	dsll	at,zero,0x11
   12154:	5821001e 	.word	0x5821001e
   12158:	00000c78 	dsll	at,zero,0x11
   1215c:	5822001e 	.word	0x5822001e
   12160:	00000c78 	dsll	at,zero,0x11
   12164:	5823001e 	.word	0x5823001e
   12168:	00000c78 	dsll	at,zero,0x11
   1216c:	5824001e 	.word	0x5824001e
   12170:	00000c78 	dsll	at,zero,0x11
   12174:	5a25001e 	.word	0x5a25001e
   12178:	00000c78 	dsll	at,zero,0x11
   1217c:	5a26001e 	.word	0x5a26001e
   12180:	00000c78 	dsll	at,zero,0x11
   12184:	5a27001e 	.word	0x5a27001e
   12188:	00000c78 	dsll	at,zero,0x11
   1218c:	5c28001e 	.word	0x5c28001e
   12190:	00000c78 	dsll	at,zero,0x11
   12194:	5c29001e 	.word	0x5c29001e
   12198:	00000c78 	dsll	at,zero,0x11
   1219c:	5e2a001e 	.word	0x5e2a001e
   121a0:	00000c78 	dsll	at,zero,0x11
   121a4:	5e2b001e 	.word	0x5e2b001e
   121a8:	00000c78 	dsll	at,zero,0x11
   121ac:	5e2c001e 	.word	0x5e2c001e
   121b0:	00000c78 	dsll	at,zero,0x11
   121b4:	5e2d001e 	.word	0x5e2d001e
   121b8:	00000c78 	dsll	at,zero,0x11
   121bc:	5e2e001e 	.word	0x5e2e001e
   121c0:	00000c78 	dsll	at,zero,0x11
   121c4:	5e2f001e 	.word	0x5e2f001e
   121c8:	00000c78 	dsll	at,zero,0x11
   121cc:	5e30001e 	.word	0x5e30001e
   121d0:	00000c78 	dsll	at,zero,0x11
   121d4:	5e31001e 	.word	0x5e31001e
   121d8:	00000c78 	dsll	at,zero,0x11
   121dc:	5e32001e 	.word	0x5e32001e
   121e0:	00000c78 	dsll	at,zero,0x11
   121e4:	5e33001e 	.word	0x5e33001e
   121e8:	00000c78 	dsll	at,zero,0x11
   121ec:	5e34001e 	.word	0x5e34001e
   121f0:	00000c78 	dsll	at,zero,0x11
   121f4:	5e35001e 	.word	0x5e35001e
   121f8:	00000c78 	dsll	at,zero,0x11
   121fc:	5e36001e 	.word	0x5e36001e
   12200:	00000c78 	dsll	at,zero,0x11
   12204:	5e37001e 	.word	0x5e37001e
   12208:	00000c78 	dsll	at,zero,0x11
   1220c:	5e38001e 	.word	0x5e38001e
   12210:	00000c78 	dsll	at,zero,0x11
   12214:	5e39001e 	.word	0x5e39001e
   12218:	00000c78 	dsll	at,zero,0x11
   1221c:	5e3a001e 	.word	0x5e3a001e
   12220:	00000c78 	dsll	at,zero,0x11
   12224:	5e3b001e 	.word	0x5e3b001e
   12228:	00000c78 	dsll	at,zero,0x11
   1222c:	5e3c001e 	.word	0x5e3c001e
   12230:	00000c78 	dsll	at,zero,0x11
   12234:	5e3d001e 	.word	0x5e3d001e
   12238:	00000c78 	dsll	at,zero,0x11
   1223c:	5e3e001e 	.word	0x5e3e001e
   12240:	00000c78 	dsll	at,zero,0x11
   12244:	5e3f001e 	.word	0x5e3f001e
   12248:	000000ff 	dsra32	zero,zero,0x3
   1224c:	ffffffff 	sd	ra,-1(ra)
   12250:	00000800 	sll	at,zero,0x0
   12254:	03040000 	.word	0x3040000
   12258:	00000804 	sllv	at,zero,zero
   1225c:	00000003 	sra	zero,zero,0x0
   12260:	00000808 	.word	0x808
   12264:	0000fc00 	sll	ra,zero,0x10
   12268:	0000080c 	syscall	0x20
   1226c:	0400000a 	bltz	zero,0x12298
   12270:	00000810 	mfhi	at
   12274:	801010ff 	lb	s0,4351(zero)
   12278:	00000814 	dsllv	at,zero,zero
   1227c:	020c3d10 	.word	0x20c3d10
   12280:	00000818 	.word	0x818
   12284:	000003c5 	.word	0x3c5
   12288:	0000081c 	.word	0x81c
   1228c:	00000000 	nop
   12290:	00000820 	add	at,zero,zero
   12294:	00000004 	sllv	zero,zero,zero
   12298:	00000824 	and	at,zero,zero
   1229c:	00690200 	.word	0x690200
   122a0:	00000828 	.word	0x828
   122a4:	00000004 	sllv	zero,zero,zero
   122a8:	0000082c 	dadd	at,zero,zero
   122ac:	00690200 	.word	0x690200
   122b0:	00000830 	tge	zero,zero,0x20
   122b4:	00000004 	sllv	zero,zero,zero
   122b8:	00000834 	teq	zero,zero,0x20
   122bc:	00690200 	.word	0x690200
   122c0:	00000838 	dsll	at,zero,0x0
   122c4:	00000004 	sllv	zero,zero,zero
   122c8:	0000083c 	dsll32	at,zero,0x0
   122cc:	00690200 	.word	0x690200
   122d0:	00000840 	sll	at,zero,0x1
   122d4:	00000000 	nop
   122d8:	00000844 	.word	0x844
   122dc:	00000000 	nop
   122e0:	00000848 	.word	0x848
   122e4:	00000000 	nop
   122e8:	0000084c 	syscall	0x21
   122ec:	00000000 	nop
   122f0:	00000850 	.word	0x850
   122f4:	00000000 	nop
   122f8:	00000854 	.word	0x854
   122fc:	00000000 	nop
   12300:	00000858 	.word	0x858
   12304:	a965a965 	swl	a1,-22171(t3)
   12308:	0000085c 	.word	0x85c
   1230c:	a965a965 	swl	a1,-22171(t3)
   12310:	00000860 	.word	0x860
   12314:	0f7f0130 	jal	0xdfc04c0
   12318:	00000864 	.word	0x864
   1231c:	0f7f0130 	jal	0xdfc04c0
   12320:	00000868 	.word	0x868
   12324:	0f7f0130 	jal	0xdfc04c0
   12328:	0000086c 	.word	0x86c
   1232c:	0f7f0130 	jal	0xdfc04c0
   12330:	00000870 	tge	zero,zero,0x21
   12334:	03000300 	.word	0x3000300
   12338:	00000874 	teq	zero,zero,0x21
   1233c:	03000300 	.word	0x3000300
   12340:	00000878 	dsll	at,zero,0x1
   12344:	00000000 	nop
   12348:	0000087c 	dsll32	at,zero,0x1
   1234c:	00000000 	nop
   12350:	00000890 	.word	0x890
   12354:	00000000 	nop
   12358:	00000894 	.word	0x894
   1235c:	fffffffe 	sd	ra,-2(ra)
   12360:	00000898 	.word	0x898
   12364:	40302010 	.word	0x40302010
   12368:	0000089c 	.word	0x89c
   1236c:	00706050 	.word	0x706050
   12370:	000008b0 	tge	zero,zero,0x22
   12374:	00000000 	nop
   12378:	000008e0 	.word	0x8e0
   1237c:	00000000 	nop
   12380:	000008e4 	.word	0x8e4
   12384:	00000000 	nop
   12388:	00000e00 	sll	at,zero,0x18
   1238c:	03030303 	.word	0x3030303
   12390:	00000e04 	.word	0xe04
   12394:	03030303 	.word	0x3030303
   12398:	00000e08 	.word	0xe08
   1239c:	00000303 	sra	zero,zero,0xc
   123a0:	00000e0c 	syscall	0x38
   123a4:	00000000 	nop
   123a8:	00000e10 	.word	0xe10
   123ac:	03030303 	.word	0x3030303
   123b0:	00000e14 	.word	0xe14
   123b4:	03030303 	.word	0x3030303
   123b8:	00000e18 	.word	0xe18
   123bc:	03030303 	.word	0x3030303
   123c0:	00000e1c 	.word	0xe1c
   123c4:	03030303 	.word	0x3030303
   123c8:	00000900 	sll	at,zero,0x4
   123cc:	00000000 	nop
   123d0:	00000904 	.word	0x904
   123d4:	00000023 	negu	zero,zero
   123d8:	00000908 	.word	0x908
   123dc:	00000000 	nop
   123e0:	0000090c 	syscall	0x24
   123e4:	03321333 	tltu	t9,s2,0x4c
   123e8:	00000a08 	.word	0xa08
   123ec:	8f888600 	lw	t0,-31232(gp)
   123f0:	00000a2c 	.word	0xa2c
   123f4:	00920000 	.word	0x920000
   123f8:	00000c00 	sll	at,zero,0x10
   123fc:	00000080 	sll	zero,zero,0x2
   12400:	00000c04 	.word	0xc04
   12404:	00005433 	tltu	zero,zero,0x150
   12408:	00000c08 	.word	0xc08
   1240c:	000000e4 	.word	0xe4
   12410:	00000c0c 	syscall	0x30
   12414:	6c6c6c6c 	ldr	t4,27756(v1)
   12418:	00000c10 	.word	0xc10
   1241c:	08000000 	j	0x0
   12420:	00000c14 	.word	0xc14
   12424:	40000100 	.word	0x40000100
   12428:	00000c18 	.word	0xc18
   1242c:	08000000 	j	0x0
   12430:	00000c1c 	.word	0xc1c
   12434:	40000100 	.word	0x40000100
   12438:	00000c20 	.word	0xc20
   1243c:	08000000 	j	0x0
   12440:	00000c24 	.word	0xc24
   12444:	40000100 	.word	0x40000100
   12448:	00000c28 	.word	0xc28
   1244c:	08000000 	j	0x0
   12450:	00000c2c 	.word	0xc2c
   12454:	40000100 	.word	0x40000100
   12458:	00000c30 	tge	zero,zero,0x30
   1245c:	8de96a44 	lw	t1,27204(t7)
   12460:	00000c34 	teq	zero,zero,0x30
   12464:	469652cd 	c1	0x9652cd
   12468:	00000c38 	dsll	at,zero,0x10
   1246c:	48015a90 	.word	0x48015a90
   12470:	00000c3c 	dsll32	at,zero,0x10
   12474:	1a979764 	.word	0x1a979764
   12478:	00000c40 	sll	at,zero,0x11
   1247c:	1f7c423f 	.word	0x1f7c423f
   12480:	00000c44 	.word	0xc44
   12484:	000100b7 	.word	0x100b7
   12488:	00000c48 	.word	0xc48
   1248c:	ec020000 	.word	0xec020000
   12490:	00000c4c 	syscall	0x31
   12494:	00fc0303 	.word	0xfc0303
   12498:	00000c50 	.word	0xc50
   1249c:	6954341c 	ldl	s4,13340(t2)
   124a0:	00000c54 	.word	0xc54
   124a4:	433c0094 	c0	0x13c0094
   124a8:	00000c58 	.word	0xc58
   124ac:	6954341c 	ldl	s4,13340(t2)
   124b0:	00000c5c 	.word	0xc5c
   124b4:	433c0094 	c0	0x13c0094
   124b8:	00000c60 	.word	0xc60
   124bc:	6954341c 	ldl	s4,13340(t2)
   124c0:	00000c64 	.word	0xc64
   124c4:	433c0094 	c0	0x13c0094
   124c8:	00000c68 	.word	0xc68
   124cc:	6954341c 	ldl	s4,13340(t2)
   124d0:	00000c6c 	.word	0xc6c
   124d4:	433c0094 	c0	0x13c0094
   124d8:	00000c70 	tge	zero,zero,0x31
   124dc:	2c5a000d 	sltiu	k0,v0,13
   124e0:	00000c74 	teq	zero,zero,0x31
   124e4:	0186151b 	.word	0x186151b
   124e8:	00000c78 	dsll	at,zero,0x11
   124ec:	0000001f 	ddivu	zero,zero,zero
   124f0:	00000c7c 	dsll32	at,zero,0x11
   124f4:	00b91612 	.word	0xb91612
   124f8:	00000c80 	sll	at,zero,0x12
   124fc:	20000080 	addi	zero,zero,128
   12500:	00000c84 	.word	0xc84
   12504:	00000000 	nop
   12508:	00000c88 	.word	0xc88
   1250c:	20000080 	addi	zero,zero,128
   12510:	00000c8c 	syscall	0x32
   12514:	08200000 	j	0x800000
   12518:	00000c90 	.word	0xc90
   1251c:	40000100 	.word	0x40000100
   12520:	00000c94 	.word	0xc94
   12524:	00000000 	nop
   12528:	00000c98 	.word	0xc98
   1252c:	40000100 	.word	0x40000100
   12530:	00000c9c 	.word	0xc9c
   12534:	00000000 	nop
   12538:	00000ca0 	.word	0xca0
   1253c:	00492492 	.word	0x492492
   12540:	00000ca4 	.word	0xca4
   12544:	00000000 	nop
   12548:	00000ca8 	.word	0xca8
   1254c:	00000000 	nop
   12550:	00000cac 	.word	0xcac
   12554:	00000000 	nop
   12558:	00000cb0 	tge	zero,zero,0x32
   1255c:	00000000 	nop
   12560:	00000cb4 	teq	zero,zero,0x32
   12564:	00000000 	nop
   12568:	00000cb8 	dsll	at,zero,0x12
   1256c:	00000000 	nop
   12570:	00000cbc 	dsll32	at,zero,0x12
   12574:	00492492 	.word	0x492492
   12578:	00000cc0 	sll	at,zero,0x13
   1257c:	00000000 	nop
   12580:	00000cc4 	.word	0xcc4
   12584:	00000000 	nop
   12588:	00000cc8 	.word	0xcc8
   1258c:	00000000 	nop
   12590:	00000ccc 	syscall	0x33
   12594:	00000000 	nop
   12598:	00000cd0 	.word	0xcd0
   1259c:	00000000 	nop
   125a0:	00000cd4 	.word	0xcd4
   125a4:	00000000 	nop
   125a8:	00000cd8 	.word	0xcd8
   125ac:	64b22427 	daddiu	s2,a1,9255
   125b0:	00000cdc 	.word	0xcdc
   125b4:	00766932 	tlt	v1,s6,0x1a4
   125b8:	00000ce0 	.word	0xce0
   125bc:	00222222 	.word	0x222222
   125c0:	00000ce4 	.word	0xce4
   125c4:	00000000 	nop
   125c8:	00000ce8 	.word	0xce8
   125cc:	07644302 	.word	0x7644302
   125d0:	00000d00 	sll	at,zero,0x14
   125d4:	00000780 	sll	zero,zero,0x1e
   125d8:	00000d04 	.word	0xd04
   125dc:	00000403 	sra	zero,zero,0x10
   125e0:	00000d08 	.word	0xd08
   125e4:	0000907f 	dsra32	s2,zero,0x1
   125e8:	00000d0c 	syscall	0x34
   125ec:	00000001 	.word	0x1
   125f0:	00000d10 	.word	0xd10
   125f4:	a0699999 	sb	t1,-26215(v1)
   125f8:	00000d14 	.word	0xd14
   125fc:	99993c67 	lwr	t9,15463(t4)
   12600:	00000d18 	.word	0xd18
   12604:	6a8f5b6b 	ldl	t7,23403(s4)
   12608:	00000d1c 	.word	0xd1c
   1260c:	00000000 	nop
   12610:	00000d20 	.word	0xd20
   12614:	00000000 	nop
   12618:	00000d24 	.word	0xd24
   1261c:	00000000 	nop
   12620:	00000d28 	.word	0xd28
   12624:	00000000 	nop
   12628:	00000d2c 	.word	0xd2c
   1262c:	cc971975 	.word	0xcc971975
   12630:	00000d30 	tge	zero,zero,0x34
   12634:	00000000 	nop
   12638:	00000d34 	teq	zero,zero,0x34
   1263c:	00000000 	nop
   12640:	00000d38 	dsll	at,zero,0x14
   12644:	00000000 	nop
   12648:	00000d3c 	dsll32	at,zero,0x14
   1264c:	00027293 	.word	0x27293
   12650:	00000d40 	sll	at,zero,0x15
   12654:	00000000 	nop
   12658:	00000d44 	.word	0xd44
   1265c:	00000000 	nop
   12660:	00000d48 	.word	0xd48
   12664:	00000000 	nop
   12668:	00000d50 	.word	0xd50
   1266c:	6437140a 	daddiu	s7,at,5130
   12670:	00000d54 	.word	0xd54
   12674:	024dbd02 	.word	0x24dbd02
   12678:	00000d58 	.word	0xd58
   1267c:	00000000 	nop
   12680:	00000d5c 	.word	0xd5c
   12684:	30032064 	andi	v1,zero,0x2064
   12688:	00000d60 	.word	0xd60
   1268c:	4653de68 	c1	0x53de68
   12690:	00000d64 	.word	0xd64
   12694:	00518a3c 	.word	0x518a3c
   12698:	00000d68 	.word	0xd68
   1269c:	00000106 	.word	0x106
   126a0:	000000ff 	dsra32	zero,zero,0x3
   126a4:	ffffffff 	sd	ra,-1(ra)
	...
   126b0:	00000010 	mfhi	zero
   126b4:	80010544 	lb	at,1348(zero)
   126b8:	00000010 	mfhi	zero
   126bc:	80010574 	lb	at,1396(zero)
   126c0:	00000010 	mfhi	zero
   126c4:	800039a0 	lb	zero,14752(zero)
   126c8:	00000010 	mfhi	zero
   126cc:	800039ac 	lb	zero,14764(zero)
   126d0:	00000010 	mfhi	zero
   126d4:	800108a0 	lb	at,2208(zero)
   126d8:	00000010 	mfhi	zero
   126dc:	80002574 	lb	zero,9588(zero)
   126e0:	00000010 	mfhi	zero
   126e4:	8000256c 	lb	zero,9580(zero)
   126e8:	00000010 	mfhi	zero
   126ec:	8000257c 	lb	zero,9596(zero)
   126f0:	00000008 	jr	zero
   126f4:	80010638 	lb	at,1592(zero)
   126f8:	0000b700 	sll	s6,zero,0x1c
   126fc:	000ee001 	.word	0xee001
   12700:	00044d02 	srl	t1,a0,0x14
   12704:	00044103 	sra	t0,a0,0x4
   12708:	0008c304 	.word	0x8c304
   1270c:	000c7205 	.word	0xc7205
   12710:	0000e606 	.word	0xe606
   12714:	00082a07 	.word	0x82a07
   12718:	00003f08 	.word	0x3f08
   1271c:	00033509 	.word	0x33509
   12720:	0009d40a 	.word	0x9d40a
   12724:	0007bb0b 	.word	0x7bb0b
   12728:	0008500c 	syscall	0x2140
   1272c:	000cdf0d 	break	0xc,0x37c
   12730:	00002b0e 	.word	0x2b0e
   12734:	0001140f 	.word	0x1140f
   12738:	0001b700 	sll	s6,at,0x1c
   1273c:	00000101 	.word	0x101
   12740:	00040002 	srl	zero,a0,0x0
   12744:	00000201 	.word	0x201
   12748:	00040102 	srl	zero,a0,0x4
   1274c:	00000301 	.word	0x301
   12750:	00040202 	srl	zero,a0,0x8
   12754:	00000401 	.word	0x401
   12758:	00040302 	srl	zero,a0,0xc
   1275c:	00000501 	.word	0x501
   12760:	00040402 	srl	zero,a0,0x10
   12764:	00000601 	.word	0x601
   12768:	00040502 	srl	zero,a0,0x14
   1276c:	00000701 	.word	0x701
   12770:	00040802 	srl	at,a0,0x0
   12774:	00000801 	.word	0x801
   12778:	00040902 	srl	at,a0,0x4
   1277c:	00000901 	.word	0x901
   12780:	00040a02 	srl	at,a0,0x8
   12784:	00000a01 	.word	0xa01
   12788:	00040b02 	srl	at,a0,0xc
   1278c:	00000b01 	.word	0xb01
   12790:	00050202 	srl	zero,a1,0x8
   12794:	00000c01 	.word	0xc01
   12798:	00050302 	srl	zero,a1,0xc
   1279c:	00000d01 	.word	0xd01
   127a0:	00050402 	srl	zero,a1,0x10
   127a4:	00000e01 	.word	0xe01
   127a8:	00050502 	srl	zero,a1,0x14
   127ac:	00000f01 	.word	0xf01
   127b0:	00054002 	srl	t0,a1,0x0
   127b4:	00001001 	.word	0x1001
   127b8:	00054102 	srl	t0,a1,0x4
   127bc:	00001101 	.word	0x1101
   127c0:	00054202 	srl	t0,a1,0x8
   127c4:	00001201 	.word	0x1201
   127c8:	00054302 	srl	t0,a1,0xc
   127cc:	00001301 	.word	0x1301
   127d0:	00054402 	srl	t0,a1,0x10
   127d4:	00001401 	.word	0x1401
   127d8:	00054502 	srl	t0,a1,0x14
   127dc:	00001501 	.word	0x1501
   127e0:	00058002 	srl	s0,a1,0x0
   127e4:	00001601 	.word	0x1601
   127e8:	00058102 	srl	s0,a1,0x4
   127ec:	00001701 	.word	0x1701
   127f0:	00058202 	srl	s0,a1,0x8
   127f4:	00001801 	.word	0x1801
   127f8:	00058302 	srl	s0,a1,0xc
   127fc:	00001901 	.word	0x1901
   12800:	00058402 	srl	s0,a1,0x10
   12804:	00001a01 	.word	0x1a01
   12808:	00058502 	srl	s0,a1,0x14
   1280c:	00001b01 	.word	0x1b01
   12810:	00058802 	srl	s1,a1,0x0
   12814:	00001c01 	.word	0x1c01
   12818:	00058902 	srl	s1,a1,0x4
   1281c:	00001d01 	.word	0x1d01
   12820:	00058a02 	srl	s1,a1,0x8
   12824:	00001e01 	.word	0x1e01
   12828:	00058b02 	srl	s1,a1,0xc
   1282c:	00001f01 	.word	0x1f01
   12830:	00064302 	srl	t0,a2,0xc
   12834:	00002001 	.word	0x2001
   12838:	00064402 	srl	t0,a2,0x10
   1283c:	00002101 	.word	0x2101
   12840:	00064502 	srl	t0,a2,0x14
   12844:	00002201 	.word	0x2201
   12848:	00068002 	srl	s0,a2,0x0
   1284c:	00002301 	.word	0x2301
   12850:	00068102 	srl	s0,a2,0x4
   12854:	00002401 	.word	0x2401
   12858:	00068202 	srl	s0,a2,0x8
   1285c:	00002501 	.word	0x2501
   12860:	00068302 	srl	s0,a2,0xc
   12864:	00002601 	.word	0x2601
   12868:	00068402 	srl	s0,a2,0x10
   1286c:	00002701 	.word	0x2701
   12870:	00068502 	srl	s0,a2,0x14
   12874:	00002801 	.word	0x2801
   12878:	00068802 	srl	s1,a2,0x0
   1287c:	00002901 	.word	0x2901
   12880:	00068902 	srl	s1,a2,0x4
   12884:	00002a01 	.word	0x2a01
   12888:	00068a02 	srl	s1,a2,0x8
   1288c:	00002b01 	.word	0x2b01
   12890:	00068b02 	srl	s1,a2,0xc
   12894:	00002c01 	.word	0x2c01
   12898:	00068c02 	srl	s1,a2,0x10
   1289c:	00002d01 	.word	0x2d01
   128a0:	00074202 	srl	t0,a3,0x8
   128a4:	00002e01 	.word	0x2e01
   128a8:	00074302 	srl	t0,a3,0xc
   128ac:	00002f01 	.word	0x2f01
   128b0:	00074402 	srl	t0,a3,0x10
   128b4:	00003001 	.word	0x3001
   128b8:	00074502 	srl	t0,a3,0x14
   128bc:	00003101 	.word	0x3101
   128c0:	00078002 	srl	s0,a3,0x0
   128c4:	00003201 	.word	0x3201
   128c8:	00078102 	srl	s0,a3,0x4
   128cc:	00003301 	.word	0x3301
   128d0:	00078202 	srl	s0,a3,0x8
   128d4:	00003401 	.word	0x3401
   128d8:	00078302 	srl	s0,a3,0xc
   128dc:	00003501 	.word	0x3501
   128e0:	00078402 	srl	s0,a3,0x10
   128e4:	00003601 	.word	0x3601
   128e8:	00078502 	srl	s0,a3,0x14
   128ec:	00003701 	.word	0x3701
   128f0:	00078802 	srl	s1,a3,0x0
   128f4:	00003801 	.word	0x3801
   128f8:	00078902 	srl	s1,a3,0x4
   128fc:	00003901 	.word	0x3901
   12900:	00078a02 	srl	s1,a3,0x8
   12904:	00003a01 	.word	0x3a01
   12908:	00078b02 	srl	s1,a3,0xc
   1290c:	00003b01 	.word	0x3b01
   12910:	00078c02 	srl	s1,a3,0x10
   12914:	00003c01 	.word	0x3c01
   12918:	00078d02 	srl	s1,a3,0x14
   1291c:	00003d01 	.word	0x3d01
   12920:	00079002 	srl	s2,a3,0x0
   12924:	00003e01 	.word	0x3e01
   12928:	00079102 	srl	s2,a3,0x4
   1292c:	00003f01 	.word	0x3f01
   12930:	00079202 	srl	s2,a3,0x8
   12934:	00004001 	.word	0x4001
   12938:	00079302 	srl	s2,a3,0xc
   1293c:	00004101 	.word	0x4101
   12940:	00079402 	srl	s2,a3,0x10
   12944:	00004201 	.word	0x4201
   12948:	00079502 	srl	s2,a3,0x14
   1294c:	00004301 	.word	0x4301
   12950:	00079802 	srl	s3,a3,0x0
   12954:	00004401 	.word	0x4401
   12958:	00079902 	srl	s3,a3,0x4
   1295c:	00004501 	.word	0x4501
   12960:	00079a02 	srl	s3,a3,0x8
   12964:	00004601 	.word	0x4601
   12968:	00079b02 	srl	s3,a3,0xc
   1296c:	00004701 	.word	0x4701
   12970:	00079c02 	srl	s3,a3,0x10
   12974:	00004801 	.word	0x4801
   12978:	00079d02 	srl	s3,a3,0x14
   1297c:	00004901 	.word	0x4901
   12980:	0007a002 	srl	s4,a3,0x0
   12984:	00004a01 	.word	0x4a01
   12988:	0007a102 	srl	s4,a3,0x4
   1298c:	00004b01 	.word	0x4b01
   12990:	0007a202 	srl	s4,a3,0x8
   12994:	00004c01 	.word	0x4c01
   12998:	0007a302 	srl	s4,a3,0xc
   1299c:	00004d01 	.word	0x4d01
   129a0:	0007a402 	srl	s4,a3,0x10
   129a4:	00004e01 	.word	0x4e01
   129a8:	0007a502 	srl	s4,a3,0x14
   129ac:	00004f01 	.word	0x4f01
   129b0:	0007a802 	srl	s5,a3,0x0
   129b4:	00005001 	.word	0x5001
   129b8:	0007a902 	srl	s5,a3,0x4
   129bc:	00005101 	.word	0x5101
   129c0:	0003aa02 	srl	s5,v1,0x8
   129c4:	00005201 	.word	0x5201
   129c8:	0003ab02 	srl	s5,v1,0xc
   129cc:	00005301 	.word	0x5301
   129d0:	0003ac02 	srl	s5,v1,0x10
   129d4:	00005401 	.word	0x5401
   129d8:	0003ad02 	srl	s5,v1,0x14
   129dc:	00005501 	.word	0x5501
   129e0:	0003b002 	srl	s6,v1,0x0
   129e4:	00005601 	.word	0x5601
   129e8:	0003b102 	srl	s6,v1,0x4
   129ec:	00005701 	.word	0x5701
   129f0:	0003b202 	srl	s6,v1,0x8
   129f4:	00005801 	.word	0x5801
   129f8:	0003b302 	srl	s6,v1,0xc
   129fc:	00005901 	.word	0x5901
   12a00:	0003b402 	srl	s6,v1,0x10
   12a04:	00005a01 	.word	0x5a01
   12a08:	0003b502 	srl	s6,v1,0x14
   12a0c:	00005b01 	.word	0x5b01
   12a10:	0003b802 	srl	s7,v1,0x0
   12a14:	00005c01 	.word	0x5c01
   12a18:	0003b902 	srl	s7,v1,0x4
   12a1c:	00005d01 	.word	0x5d01
   12a20:	0003ba02 	srl	s7,v1,0x8
   12a24:	00005e01 	.word	0x5e01
   12a28:	0003bb02 	srl	s7,v1,0xc
   12a2c:	00005f01 	.word	0x5f01
   12a30:	0003bb02 	srl	s7,v1,0xc
   12a34:	00008003 	sra	s0,zero,0x0
   12a38:	00000405 	.word	0x405
   12a3c:	0000b700 	sll	s6,zero,0x1c
   12a40:	000000fe 	dsrl32	zero,zero,0x3
   12a44:	000000fe 	dsrl32	zero,zero,0x3
   12a48:	000000fe 	dsrl32	zero,zero,0x3
   12a4c:	000c4d02 	srl	t1,t4,0x14
   12a50:	000000fe 	dsrl32	zero,zero,0x3
   12a54:	000000fe 	dsrl32	zero,zero,0x3
   12a58:	00044d02 	srl	t1,a0,0x14
   12a5c:	0002bf00 	sll	s7,v0,0x1c
   12a60:	00ffffff 	.word	0xffffff
   12a64:	00ffffff 	.word	0xffffff
   12a68:	0000b700 	sll	s6,zero,0x1c
   12a6c:	000ee001 	.word	0xee001
   12a70:	00044d02 	srl	t1,a0,0x14
   12a74:	00044103 	sra	t0,a0,0x4
   12a78:	0008c304 	.word	0x8c304
   12a7c:	000c7205 	.word	0xc7205
   12a80:	0000e606 	.word	0xe606
   12a84:	00082a07 	.word	0x82a07
   12a88:	00003f08 	.word	0x3f08
   12a8c:	00033509 	.word	0x33509
   12a90:	0009d40a 	.word	0x9d40a
   12a94:	0007bb0b 	.word	0x7bb0b
   12a98:	0008500c 	syscall	0x2140
   12a9c:	000cdf0d 	break	0xc,0x37c
   12aa0:	00002b0e 	.word	0x2b0e
   12aa4:	0001140f 	.word	0x1140f
   12aa8:	0001b700 	sll	s6,at,0x1c
   12aac:	00000101 	.word	0x101
   12ab0:	00040002 	srl	zero,a0,0x0
   12ab4:	00000201 	.word	0x201
   12ab8:	00040102 	srl	zero,a0,0x4
   12abc:	00000301 	.word	0x301
   12ac0:	00040202 	srl	zero,a0,0x8
   12ac4:	00000401 	.word	0x401
   12ac8:	00040302 	srl	zero,a0,0xc
   12acc:	00000501 	.word	0x501
   12ad0:	00040402 	srl	zero,a0,0x10
   12ad4:	00000601 	.word	0x601
   12ad8:	00040502 	srl	zero,a0,0x14
   12adc:	00000701 	.word	0x701
   12ae0:	00040802 	srl	at,a0,0x0
   12ae4:	00000801 	.word	0x801
   12ae8:	00040902 	srl	at,a0,0x4
   12aec:	00000901 	.word	0x901
   12af0:	00040a02 	srl	at,a0,0x8
   12af4:	00000a01 	.word	0xa01
   12af8:	00040b02 	srl	at,a0,0xc
   12afc:	00000b01 	.word	0xb01
   12b00:	00050202 	srl	zero,a1,0x8
   12b04:	00000c01 	.word	0xc01
   12b08:	00050302 	srl	zero,a1,0xc
   12b0c:	00000d01 	.word	0xd01
   12b10:	00050402 	srl	zero,a1,0x10
   12b14:	00000e01 	.word	0xe01
   12b18:	00050502 	srl	zero,a1,0x14
   12b1c:	00000f01 	.word	0xf01
   12b20:	00054002 	srl	t0,a1,0x0
   12b24:	00001001 	.word	0x1001
   12b28:	00054102 	srl	t0,a1,0x4
   12b2c:	00001101 	.word	0x1101
   12b30:	00054202 	srl	t0,a1,0x8
   12b34:	00001201 	.word	0x1201
   12b38:	00054302 	srl	t0,a1,0xc
   12b3c:	00001301 	.word	0x1301
   12b40:	00054402 	srl	t0,a1,0x10
   12b44:	00001401 	.word	0x1401
   12b48:	00054502 	srl	t0,a1,0x14
   12b4c:	00001501 	.word	0x1501
   12b50:	00058002 	srl	s0,a1,0x0
   12b54:	00001601 	.word	0x1601
   12b58:	00058102 	srl	s0,a1,0x4
   12b5c:	00001701 	.word	0x1701
   12b60:	00058202 	srl	s0,a1,0x8
   12b64:	00001801 	.word	0x1801
   12b68:	00058302 	srl	s0,a1,0xc
   12b6c:	00001901 	.word	0x1901
   12b70:	00058402 	srl	s0,a1,0x10
   12b74:	00001a01 	.word	0x1a01
   12b78:	00058502 	srl	s0,a1,0x14
   12b7c:	00001b01 	.word	0x1b01
   12b80:	00058802 	srl	s1,a1,0x0
   12b84:	00001c01 	.word	0x1c01
   12b88:	00058902 	srl	s1,a1,0x4
   12b8c:	00001d01 	.word	0x1d01
   12b90:	00058a02 	srl	s1,a1,0x8
   12b94:	00001e01 	.word	0x1e01
   12b98:	00058b02 	srl	s1,a1,0xc
   12b9c:	00001f01 	.word	0x1f01
   12ba0:	00064302 	srl	t0,a2,0xc
   12ba4:	00002001 	.word	0x2001
   12ba8:	00064402 	srl	t0,a2,0x10
   12bac:	00002101 	.word	0x2101
   12bb0:	00064502 	srl	t0,a2,0x14
   12bb4:	00002201 	.word	0x2201
   12bb8:	00068002 	srl	s0,a2,0x0
   12bbc:	00002301 	.word	0x2301
   12bc0:	00068102 	srl	s0,a2,0x4
   12bc4:	00002401 	.word	0x2401
   12bc8:	00068202 	srl	s0,a2,0x8
   12bcc:	00002501 	.word	0x2501
   12bd0:	00068302 	srl	s0,a2,0xc
   12bd4:	00002601 	.word	0x2601
   12bd8:	00068402 	srl	s0,a2,0x10
   12bdc:	00002701 	.word	0x2701
   12be0:	00068502 	srl	s0,a2,0x14
   12be4:	00002801 	.word	0x2801
   12be8:	00068802 	srl	s1,a2,0x0
   12bec:	00002901 	.word	0x2901
   12bf0:	00068902 	srl	s1,a2,0x4
   12bf4:	00002a01 	.word	0x2a01
   12bf8:	00068a02 	srl	s1,a2,0x8
   12bfc:	00002b01 	.word	0x2b01
   12c00:	00068b02 	srl	s1,a2,0xc
   12c04:	00002c01 	.word	0x2c01
   12c08:	00068c02 	srl	s1,a2,0x10
   12c0c:	00002d01 	.word	0x2d01
   12c10:	00074202 	srl	t0,a3,0x8
   12c14:	00002e01 	.word	0x2e01
   12c18:	00074302 	srl	t0,a3,0xc
   12c1c:	00002f01 	.word	0x2f01
   12c20:	00074402 	srl	t0,a3,0x10
   12c24:	00003001 	.word	0x3001
   12c28:	00074502 	srl	t0,a3,0x14
   12c2c:	00003101 	.word	0x3101
   12c30:	00078002 	srl	s0,a3,0x0
   12c34:	00003201 	.word	0x3201
   12c38:	00078102 	srl	s0,a3,0x4
   12c3c:	00003301 	.word	0x3301
   12c40:	00078202 	srl	s0,a3,0x8
   12c44:	00003401 	.word	0x3401
   12c48:	00078302 	srl	s0,a3,0xc
   12c4c:	00003501 	.word	0x3501
   12c50:	00078402 	srl	s0,a3,0x10
   12c54:	00003601 	.word	0x3601
   12c58:	00078502 	srl	s0,a3,0x14
   12c5c:	00003701 	.word	0x3701
   12c60:	00078802 	srl	s1,a3,0x0
   12c64:	00003801 	.word	0x3801
   12c68:	00078902 	srl	s1,a3,0x4
   12c6c:	00003901 	.word	0x3901
   12c70:	00078a02 	srl	s1,a3,0x8
   12c74:	00003a01 	.word	0x3a01
   12c78:	00078b02 	srl	s1,a3,0xc
   12c7c:	00003b01 	.word	0x3b01
   12c80:	00078c02 	srl	s1,a3,0x10
   12c84:	00003c01 	.word	0x3c01
   12c88:	00078d02 	srl	s1,a3,0x14
   12c8c:	00003d01 	.word	0x3d01
   12c90:	00079002 	srl	s2,a3,0x0
   12c94:	00003e01 	.word	0x3e01
   12c98:	00079102 	srl	s2,a3,0x4
   12c9c:	00003f01 	.word	0x3f01
   12ca0:	00079202 	srl	s2,a3,0x8
   12ca4:	00004001 	.word	0x4001
   12ca8:	00079302 	srl	s2,a3,0xc
   12cac:	00004101 	.word	0x4101
   12cb0:	00079402 	srl	s2,a3,0x10
   12cb4:	00004201 	.word	0x4201
   12cb8:	00079502 	srl	s2,a3,0x14
   12cbc:	00004301 	.word	0x4301
   12cc0:	00079802 	srl	s3,a3,0x0
   12cc4:	00004401 	.word	0x4401
   12cc8:	00079902 	srl	s3,a3,0x4
   12ccc:	00004501 	.word	0x4501
   12cd0:	00079a02 	srl	s3,a3,0x8
   12cd4:	00004601 	.word	0x4601
   12cd8:	00079b02 	srl	s3,a3,0xc
   12cdc:	00004701 	.word	0x4701
   12ce0:	00079c02 	srl	s3,a3,0x10
   12ce4:	00004801 	.word	0x4801
   12ce8:	00079d02 	srl	s3,a3,0x14
   12cec:	00004901 	.word	0x4901
   12cf0:	0007a002 	srl	s4,a3,0x0
   12cf4:	00004a01 	.word	0x4a01
   12cf8:	0007a102 	srl	s4,a3,0x4
   12cfc:	00004b01 	.word	0x4b01
   12d00:	0007a202 	srl	s4,a3,0x8
   12d04:	00004c01 	.word	0x4c01
   12d08:	0007a302 	srl	s4,a3,0xc
   12d0c:	00004d01 	.word	0x4d01
   12d10:	0007a402 	srl	s4,a3,0x10
   12d14:	00004e01 	.word	0x4e01
   12d18:	0007a502 	srl	s4,a3,0x14
   12d1c:	00004f01 	.word	0x4f01
   12d20:	0007a802 	srl	s5,a3,0x0
   12d24:	00005001 	.word	0x5001
   12d28:	0007a902 	srl	s5,a3,0x4
   12d2c:	00005101 	.word	0x5101
   12d30:	0003aa02 	srl	s5,v1,0x8
   12d34:	00005201 	.word	0x5201
   12d38:	0003ab02 	srl	s5,v1,0xc
   12d3c:	00005301 	.word	0x5301
   12d40:	0003ac02 	srl	s5,v1,0x10
   12d44:	00005401 	.word	0x5401
   12d48:	0003ad02 	srl	s5,v1,0x14
   12d4c:	00005501 	.word	0x5501
   12d50:	0003b002 	srl	s6,v1,0x0
   12d54:	00005601 	.word	0x5601
   12d58:	0003b102 	srl	s6,v1,0x4
   12d5c:	00005701 	.word	0x5701
   12d60:	0003b202 	srl	s6,v1,0x8
   12d64:	00005801 	.word	0x5801
   12d68:	0003b302 	srl	s6,v1,0xc
   12d6c:	00005901 	.word	0x5901
   12d70:	0003b402 	srl	s6,v1,0x10
   12d74:	00005a01 	.word	0x5a01
   12d78:	0003b502 	srl	s6,v1,0x14
   12d7c:	00005b01 	.word	0x5b01
   12d80:	0003b802 	srl	s7,v1,0x0
   12d84:	00005c01 	.word	0x5c01
   12d88:	0003b902 	srl	s7,v1,0x4
   12d8c:	00005d01 	.word	0x5d01
   12d90:	0003ba02 	srl	s7,v1,0x8
   12d94:	00005e01 	.word	0x5e01
   12d98:	0003bb02 	srl	s7,v1,0xc
   12d9c:	00005f01 	.word	0x5f01
   12da0:	0003bb02 	srl	s7,v1,0xc
   12da4:	00008003 	sra	s0,zero,0x0
   12da8:	00000405 	.word	0x405
   12dac:	0000b700 	sll	s6,zero,0x1c
   12db0:	000000fe 	dsrl32	zero,zero,0x3
   12db4:	000000fe 	dsrl32	zero,zero,0x3
   12db8:	000000fe 	dsrl32	zero,zero,0x3
   12dbc:	000c4d02 	srl	t1,t4,0x14
   12dc0:	000000fe 	dsrl32	zero,zero,0x3
   12dc4:	000000fe 	dsrl32	zero,zero,0x3
   12dc8:	00044d02 	srl	t1,a0,0x14
   12dcc:	0002bf00 	sll	s7,v0,0x1c
   12dd0:	00ffffff 	.word	0xffffff
   12dd4:	00ffffff 	.word	0xffffff
   12dd8:	0000000a 	.word	0xa
   12ddc:	73416e4f 	.word	0x73416e4f
   12de0:	52636f73 	beql	s3,v1,0x2ebb0
   12de4:	00007165 	.word	0x7165
   12de8:	73416e4f 	.word	0x73416e4f
   12dec:	52636f73 	beql	s3,v1,0x2ebbc
   12df0:	00007073 	tltu	zero,zero,0x1c1
   12df4:	65526e4f 	daddiu	s2,t2,28239
   12df8:	6f737341 	ldr	s3,29505(k1)
   12dfc:	71655263 	.word	0x71655263
   12e00:	00000000 	nop
   12e04:	65526e4f 	daddiu	s2,t2,28239
   12e08:	6f737341 	ldr	s3,29505(k1)
   12e0c:	70735263 	.word	0x70735263
   12e10:	00000000 	nop
   12e14:	72506e4f 	.word	0x72506e4f
   12e18:	5265626f 	beql	s3,a1,0x2b7d8
   12e1c:	00007165 	.word	0x7165
   12e20:	72506e4f 	.word	0x72506e4f
   12e24:	5265626f 	beql	s3,a1,0x2b7e4
   12e28:	00007073 	tltu	zero,zero,0x1c1
   12e2c:	65526f44 	daddiu	s2,t2,28484
   12e30:	76726573 	jalx	0x9c995cd
   12e34:	00006465 	.word	0x6465
   12e38:	65526f44 	daddiu	s2,t2,28484
   12e3c:	76726573 	jalx	0x9c995cd
   12e40:	00006465 	.word	0x6465
   12e44:	65426e4f 	daddiu	v0,t2,28239
   12e48:	6e6f6361 	ldr	t7,25441(s3)
   12e4c:	00000000 	nop
   12e50:	54416e4f 	bnel	v0,at,0x2e790
   12e54:	00004d49 	.word	0x4d49
   12e58:	69446e4f 	ldl	a0,28239(t2)
   12e5c:	73736173 	.word	0x73736173
   12e60:	0000636f 	.word	0x636f
   12e64:	75416e4f 	jalx	0x505b93d
   12e68:	00006874 	teq	zero,zero,0x1a1
   12e6c:	65446e4f 	daddiu	a0,t2,28239
   12e70:	68747541 	ldl	s4,30017(v1)
   12e74:	00000000 	nop
   12e78:	63416e4f 	daddi	at,k0,28239
   12e7c:	6e6f6974 	ldr	t7,26996(s3)
	...
   12e88:	8001a184 	lb	at,-24188(zero)
   12e8c:	8001132c 	lb	at,4908(zero)
   12e90:	00000010 	mfhi	zero
   12e94:	8001a190 	lb	at,-24176(zero)
   12e98:	80011334 	lb	at,4916(zero)
   12e9c:	00000020 	add	zero,zero,zero
   12ea0:	8001a19c 	lb	at,-24164(zero)
   12ea4:	8001132c 	lb	at,4908(zero)
   12ea8:	00000030 	tge	zero,zero
   12eac:	8001a1ac 	lb	at,-24148(zero)
   12eb0:	80011334 	lb	at,4916(zero)
   12eb4:	00000040 	ssnop
   12eb8:	8001a1bc 	lb	at,-24132(zero)
   12ebc:	8001133c 	lb	at,4924(zero)
   12ec0:	00000050 	.word	0x50
   12ec4:	8001a1c8 	lb	at,-24120(zero)
   12ec8:	80011344 	lb	at,4932(zero)
   12ecc:	00000000 	nop
   12ed0:	8001a1d4 	lb	at,-24108(zero)
   12ed4:	800113ac 	lb	at,5036(zero)
   12ed8:	00000000 	nop
   12edc:	8001a1e0 	lb	at,-24096(zero)
   12ee0:	800113ac 	lb	at,5036(zero)
   12ee4:	00000080 	sll	zero,zero,0x2
   12ee8:	8001a1ec 	lb	at,-24084(zero)
   12eec:	8001134c 	lb	at,4940(zero)
   12ef0:	00000090 	.word	0x90
   12ef4:	8001a1f8 	lb	at,-24072(zero)
   12ef8:	80011354 	lb	at,4948(zero)
   12efc:	000000a0 	.word	0xa0
   12f00:	8001a200 	lb	at,-24064(zero)
   12f04:	8001135c 	lb	at,4956(zero)
   12f08:	000000b0 	tge	zero,zero,0x2
   12f0c:	8001a20c 	lb	at,-24052(zero)
   12f10:	80011394 	lb	at,5012(zero)
   12f14:	000000c0 	ehb
   12f18:	8001a214 	lb	at,-24044(zero)
   12f1c:	8001139c 	lb	at,5020(zero)
   12f20:	000000d0 	.word	0xd0
   12f24:	8001a220 	lb	at,-24032(zero)
   12f28:	800113a4 	lb	at,5028(zero)
   12f2c:	00000000 	nop
   12f30:	575f4242 	bnel	k0,ra,0x2383c
   12f34:	00474f44 	.word	0x474f44
   12f38:	8001a2e0 	lb	at,-23840(zero)
   12f3c:	8001a2e0 	lb	at,-23840(zero)
   12f40:	00101031 	tgeu	zero,s0,0x40
   12f44:	00003000 	sll	a2,zero,0x0
   12f48:	00102031 	tgeu	zero,s0,0x80
   12f4c:	00003000 	sll	a2,zero,0x0
   12f50:	00102831 	tgeu	zero,s0,0xa0
   12f54:	00003000 	sll	a2,zero,0x0
   12f58:	10102c31 	beq	zero,s0,0x1e020
   12f5c:	00003000 	sll	a2,zero,0x0
   12f60:	10102f31 	beq	zero,s0,0x1ec28
   12f64:	00003000 	sll	a2,zero,0x0
   12f68:	00183031 	tgeu	zero,t8,0xc0
   12f6c:	00003000 	sll	a2,zero,0x0
   12f70:	10203031 	beqz	at,0x1f038
   12f74:	00003000 	sll	a2,zero,0x0
   12f78:	08182022 	j	0x608088
   12f7c:	00002000 	sll	a0,zero,0x0
   12f80:	08142122 	j	0x508488
   12f84:	00002000 	sll	a0,zero,0x0
   12f88:	081c2122 	j	0x708488
   12f8c:	00002000 	sll	a0,zero,0x0
   12f90:	08202122 	j	0x808488
   12f94:	00002000 	sll	a0,zero,0x0
   12f98:	10202122 	beqz	at,0x1b424
   12f9c:	00002000 	sll	a0,zero,0x0
   12fa0:	18202122 	blez	at,0x1b42c
   12fa4:	00002000 	sll	a0,zero,0x0
   12fa8:	1018191a 	beq	zero,t8,0x19414
   12fac:	00001800 	sll	v1,zero,0x0
   12fb0:	08101112 	j	0x404448
   12fb4:	00001000 	sll	v0,zero,0x0
   12fb8:	0008090a 	.word	0x8090a
   12fbc:	00000800 	sll	at,zero,0x0
   12fc0:	0208090a 	.word	0x208090a
   12fc4:	00000800 	sll	at,zero,0x0
   12fc8:	0408090a 	tgei	zero,2314
   12fcc:	00000800 	sll	at,zero,0x0
   12fd0:	0608090a 	tgei	s0,2314
   12fd4:	00000800 	sll	at,zero,0x0
   12fd8:	04060708 	.word	0x4060708
   12fdc:	00000600 	sll	zero,zero,0x18
   12fe0:	02040506 	.word	0x2040506
   12fe4:	00000400 	sll	zero,zero,0x10
   12fe8:	03040506 	.word	0x3040506
   12fec:	00000400 	sll	zero,zero,0x10
   12ff0:	02030405 	.word	0x2030405
   12ff4:	00000300 	sll	zero,zero,0xc
   12ff8:	06070809 	.word	0x6070809
   12ffc:	05060607 	.word	0x5060607
   13000:	03040405 	.word	0x3040405
   13004:	04050506 	.word	0x4050506
   13008:	03030304 	.word	0x3030304
   1300c:	03040405 	.word	0x3040405
   13010:	02020203 	.word	0x2020203
   13014:	07080900 	tgei	t8,2304
   13018:	06060706 	.word	0x6060706
   1301c:	04040505 	.word	0x4040505
   13020:	04040503 	.word	0x4040503
   13024:	02020303 	.word	0x2020303
   13028:	03030402 	.word	0x3030402
   1302c:	01010202 	.word	0x1010202
   13030:	00000001 	.word	0x1
   13034:	08080808 	j	0x202020
   13038:	08080808 	j	0x202020
   1303c:	20101008 	addi	s0,zero,4104
   13040:	08080808 	j	0x202020
   13044:	20202020 	addi	zero,at,8224
   13048:	08080808 	j	0x202020
   1304c:	20202018 	addi	zero,at,8216
   13050:	08080830 	j	0x2020c0
   13054:	18181808 	.word	0x18181808
   13058:	30201818 	andi	zero,at,0x1818
   1305c:	20201030 	addi	zero,at,4144
   13060:	30202020 	andi	zero,at,0x2020
   13064:	20100830 	addi	s0,zero,2096
   13068:	30303020 	andi	s0,at,0x3020
   1306c:	00003030 	tge	zero,zero,0xc0
   13070:	08080808 	j	0x202020
   13074:	08080808 	j	0x202020
   13078:	20101008 	addi	s0,zero,4104
   1307c:	08080808 	j	0x202020
   13080:	20202008 	addi	zero,at,8200
   13084:	08080808 	j	0x202020
   13088:	20202018 	addi	zero,at,8216
   1308c:	08080820 	j	0x202080
   13090:	18181808 	.word	0x18181808
   13094:	30201818 	andi	zero,at,0x1818
   13098:	08080830 	j	0x2020c0
   1309c:	30202008 	andi	zero,at,0x2008
   130a0:	20100830 	addi	s0,zero,2096
   130a4:	30302020 	andi	s0,at,0x2020
   130a8:	00003030 	tge	zero,zero,0xc0
   130ac:	0408090a 	tgei	zero,2314
   130b0:	08090a00 	j	0x242800
   130b4:	090a0004 	j	0x4280010
   130b8:	0a000408 	j	0x8001020
   130bc:	00040809 	.word	0x40809
   130c0:	0008090a 	.word	0x8090a
   130c4:	08090a00 	j	0x242800
   130c8:	090a0000 	j	0x4280000
   130cc:	0a000008 	j	0x8000020
   130d0:	00000809 	jalr	at,zero
   130d4:	0008090a 	.word	0x8090a
   130d8:	10111200 	beq	zero,s1,0x178dc
   130dc:	11120008 	beq	t0,s2,0x13100
   130e0:	22000810 	addi	zero,s0,2064
   130e4:	00182021 	addu	a0,zero,t8
   130e8:	0008090a 	.word	0x8090a
   130ec:	08090a00 	j	0x242800
   130f0:	090a0000 	j	0x4280000
   130f4:	0a000008 	j	0x8000020
   130f8:	00000809 	jalr	at,zero
   130fc:	18202122 	blez	at,0x1b588
   13100:	20212200 	addi	at,at,8704
   13104:	21220018 	addi	v0,t1,24
   13108:	2200081c 	addi	zero,s0,2076
   1310c:	00081820 	add	v1,zero,t0
   13110:	0208090a 	.word	0x208090a
   13114:	08090a00 	j	0x242800
   13118:	090a0002 	j	0x4280008
   1311c:	0a000208 	j	0x8000820
   13120:	00020809 	.word	0x20809
   13124:	1018191a 	beq	zero,t8,0x19590
   13128:	20212200 	addi	at,at,8704
   1312c:	21220010 	addi	v0,t1,16
   13130:	22000820 	addi	zero,s0,2080
   13134:	00081c21 	.word	0x81c21
   13138:	00183031 	tgeu	zero,t8,0xc0
   1313c:	08090a00 	j	0x242800
   13140:	090a0004 	j	0x4280010
   13144:	0a000408 	j	0x8001020
   13148:	00040809 	.word	0x40809
   1314c:	0408090a 	tgei	zero,2314
   13150:	18191a00 	.word	0x18191a00
   13154:	191a0010 	.word	0x191a0010
   13158:	1a001018 	blez	s0,0x171bc
   1315c:	00101819 	.word	0x101819
   13160:	1018191a 	beq	zero,t8,0x195cc
   13164:	18191a00 	.word	0x18191a00
   13168:	21220010 	addi	v0,t1,16
   1316c:	31000820 	andi	zero,t0,0x820
   13170:	0010102c 	dadd	v0,zero,s0
   13174:	00102831 	tgeu	zero,s0,0xa0
   13178:	10111200 	beq	zero,s1,0x1797c
   1317c:	21220008 	addi	v0,t1,8
   13180:	22001820 	addi	zero,s0,6176
   13184:	00182021 	addu	a0,zero,t8
   13188:	18202122 	blez	at,0x1b614
   1318c:	1c212200 	.word	0x1c212200
   13190:	21220008 	addi	v0,t1,8
   13194:	31000814 	andi	zero,t0,0x814
   13198:	00102030 	tge	zero,s0,0x80
   1319c:	10102c31 	beq	zero,s0,0x1e264
   131a0:	08090a00 	j	0x242800
   131a4:	11120000 	beq	t0,s2,0x131a8
   131a8:	22000810 	addi	zero,s0,2064
   131ac:	00182021 	addu	a0,zero,t8
   131b0:	08182022 	j	0x608088
   131b4:	20303100 	addi	s0,at,12544
   131b8:	2f310010 	sltiu	s1,t9,16
   131bc:	31001010 	andi	zero,t0,0x1010
   131c0:	0010102f 	dnegu	v0,s0
   131c4:	00101031 	tgeu	zero,s0,0x40
   131c8:	102c3100 	beq	at,t4,0x1f5cc
   131cc:	00000010 	mfhi	zero
   131d0:	0408090a 	tgei	zero,2314
   131d4:	08090a00 	j	0x242800
   131d8:	090a0004 	j	0x4280010
   131dc:	0a000408 	j	0x8001020
   131e0:	00040809 	.word	0x40809
   131e4:	0008090a 	.word	0x8090a
   131e8:	08090a00 	j	0x242800
   131ec:	090a0000 	j	0x4280000
   131f0:	0a000008 	j	0x8000020
   131f4:	00000809 	jalr	at,zero
   131f8:	0008090a 	.word	0x8090a
   131fc:	10111200 	beq	zero,s1,0x17a00
   13200:	11120008 	beq	t0,s2,0x13224
   13204:	22000810 	addi	zero,s0,2064
   13208:	00182021 	addu	a0,zero,t8
   1320c:	0408090a 	tgei	zero,2314
   13210:	08090a00 	j	0x242800
   13214:	090a0004 	j	0x4280010
   13218:	0a000208 	j	0x8000820
   1321c:	00000809 	jalr	at,zero
   13220:	0008090a 	.word	0x8090a
   13224:	20212200 	addi	at,at,8704
   13228:	21220018 	addi	v0,t1,24
   1322c:	2200081c 	addi	zero,s0,2076
   13230:	00081421 	.word	0x81421
   13234:	0208090a 	.word	0x208090a
   13238:	08090a00 	j	0x242800
   1323c:	090a0002 	j	0x4280008
   13240:	0a000208 	j	0x8000820
   13244:	00000809 	jalr	at,zero
   13248:	1018191a 	beq	zero,t8,0x196b4
   1324c:	20212200 	addi	at,at,8704
   13250:	21220010 	addi	v0,t1,16
   13254:	22000820 	addi	zero,s0,2080
   13258:	00081421 	.word	0x81421
   1325c:	08142122 	j	0x508488
   13260:	08090a00 	j	0x242800
   13264:	090a0004 	j	0x4280010
   13268:	0a000408 	j	0x8001020
   1326c:	00040809 	.word	0x40809
   13270:	0408090a 	tgei	zero,2314
   13274:	18191a00 	.word	0x18191a00
   13278:	191a0010 	.word	0x191a0010
   1327c:	1a001018 	blez	s0,0x172e0
   13280:	00101819 	.word	0x101819
   13284:	1018191a 	beq	zero,t8,0x196f0
   13288:	18191a00 	.word	0x18191a00
   1328c:	21220010 	addi	v0,t1,16
   13290:	31000820 	andi	zero,t0,0x820
   13294:	0010102c 	dadd	v0,zero,s0
   13298:	00102831 	tgeu	zero,s0,0xa0
   1329c:	08090a00 	j	0x242800
   132a0:	090a0004 	j	0x4280010
   132a4:	0a000408 	j	0x8001020
   132a8:	00020809 	.word	0x20809
   132ac:	0008090a 	.word	0x8090a
   132b0:	20212200 	addi	at,at,8704
   132b4:	20220018 	addi	v0,at,24
   132b8:	31000818 	andi	zero,t0,0x818
   132bc:	00001830 	tge	zero,zero,0x60
   132c0:	10102c31 	beq	zero,s0,0x1e388
   132c4:	08090a00 	j	0x242800
   132c8:	11120000 	beq	t0,s2,0x132cc
   132cc:	22000810 	addi	zero,s0,2064
   132d0:	00182021 	addu	a0,zero,t8
   132d4:	081c2122 	j	0x708488
   132d8:	18202200 	blez	at,0x1badc
   132dc:	30310008 	andi	s1,at,0x8
   132e0:	31001020 	andi	zero,t0,0x1020
   132e4:	00001830 	tge	zero,zero,0x60
   132e8:	10102f31 	beq	zero,s0,0x1efb0
   132ec:	102c3100 	beq	at,t4,0x1f6f0
   132f0:	00000010 	mfhi	zero
   132f4:	08040201 	j	0x100804
   132f8:	0c080402 	jal	0x201008
   132fc:	30201810 	andi	zero,at,0x1810
   13300:	0c080402 	jal	0x201008
   13304:	30201810 	andi	zero,at,0x1810
   13308:	18100c06 	.word	0x18100c06
   1330c:	483c3024 	.word	0x483c3024
   13310:	00000048 	.word	0x48
	...
   1331c:	2a262400 	slti	a2,s1,9216
   13320:	00000000 	nop
   13324:	2a292721 	slti	t1,s1,10017
   13328:	1f000000 	bgtz	t8,0x1332c
   1332c:	2c2a2823 	sltiu	t2,at,10275
   13330:	0000002d 	move	zero,zero
   13334:	00000004 	sllv	zero,zero,zero
   13338:	00000004 	sllv	zero,zero,zero
   1333c:	00000008 	jr	zero
   13340:	00000010 	mfhi	zero
   13344:	00000018 	mult	zero,zero
   13348:	00000024 	and	zero,zero,zero
   1334c:	00000030 	tge	zero,zero
   13350:	00000048 	.word	0x48
   13354:	00000060 	.word	0x60
   13358:	00000090 	.word	0x90
   1335c:	000000c0 	ehb
   13360:	000000d8 	.word	0xd8
   13364:	00000050 	.word	0x50
   13368:	00000078 	dsll	zero,zero,0x1
   1336c:	000000a0 	.word	0xa0
   13370:	000000c8 	.word	0xc8
   13374:	00000140 	sll	zero,zero,0x5
   13378:	00000190 	.word	0x190
   1337c:	000001e0 	.word	0x1e0
   13380:	00000230 	tge	zero,zero,0x8
   13384:	0000012c 	.word	0x12c
   13388:	00000140 	sll	zero,zero,0x5
   1338c:	000001e0 	.word	0x1e0
   13390:	00000348 	.word	0x348
   13394:	00000960 	.word	0x960
   13398:	00000960 	.word	0x960
   1339c:	00000c80 	sll	at,zero,0x12
   133a0:	00000fa0 	.word	0xfa0
   133a4:	00000fa0 	.word	0xfa0
   133a8:	00000002 	srl	zero,zero,0x0
   133ac:	00000002 	srl	zero,zero,0x0
   133b0:	00000004 	sllv	zero,zero,zero
   133b4:	00000008 	jr	zero
   133b8:	0000000c 	syscall
   133bc:	00000012 	mflo	zero
   133c0:	00000018 	mult	zero,zero
   133c4:	00000024 	and	zero,zero,zero
   133c8:	00000030 	tge	zero,zero
   133cc:	00000048 	.word	0x48
   133d0:	00000060 	.word	0x60
   133d4:	0000006c 	.word	0x6c
   133d8:	00000028 	.word	0x28
   133dc:	0000003c 	dsll32	zero,zero,0x0
   133e0:	00000050 	.word	0x50
   133e4:	00000064 	.word	0x64
   133e8:	000000a0 	.word	0xa0
   133ec:	000000c8 	.word	0xc8
   133f0:	000000f0 	tge	zero,zero,0x3
   133f4:	00000118 	.word	0x118
   133f8:	00000064 	.word	0x64
   133fc:	000000a0 	.word	0xa0
   13400:	000000f0 	tge	zero,zero,0x3
   13404:	000001a4 	.word	0x1a4
   13408:	000004b0 	tge	zero,zero,0x12
   1340c:	000004b0 	tge	zero,zero,0x12
   13410:	00000640 	sll	zero,zero,0x19
   13414:	000007d0 	.word	0x7d0
   13418:	000007d0 	.word	0x7d0
   1341c:	8000052c 	lb	zero,1324(zero)
   13420:	80000520 	lb	zero,1312(zero)
   13424:	80000514 	lb	zero,1300(zero)
   13428:	80000508 	lb	zero,1288(zero)
   1342c:	800004fc 	lb	zero,1276(zero)
   13430:	800004f0 	lb	zero,1264(zero)
   13434:	800004e4 	lb	zero,1252(zero)
   13438:	800004d8 	lb	zero,1240(zero)
   1343c:	800004cc 	lb	zero,1228(zero)
   13440:	800004c0 	lb	zero,1216(zero)
   13444:	80000478 	lb	zero,1144(zero)
   13448:	80014364 	lb	at,17252(zero)
   1344c:	80014330 	lb	at,17200(zero)
   13450:	80014300 	lb	at,17152(zero)
   13454:	800142d0 	lb	at,17104(zero)
   13458:	800142a0 	lb	at,17056(zero)
   1345c:	80014270 	lb	at,17008(zero)
   13460:	80014240 	lb	at,16960(zero)
   13464:	80004610 	lb	zero,17936(zero)
   13468:	8000461c 	lb	zero,17948(zero)
   1346c:	80004628 	lb	zero,17960(zero)
   13470:	80004634 	lb	zero,17972(zero)
   13474:	80004610 	lb	zero,17936(zero)
   13478:	80004610 	lb	zero,17936(zero)
   1347c:	80004610 	lb	zero,17936(zero)
   13480:	80004610 	lb	zero,17936(zero)
   13484:	80004640 	lb	zero,17984(zero)
   13488:	8000464c 	lb	zero,17996(zero)
   1348c:	80004658 	lb	zero,18008(zero)
   13490:	80004664 	lb	zero,18020(zero)
   13494:	80021568 	lb	v0,5480(zero)
   13498:	80021568 	lb	v0,5480(zero)
   1349c:	b0250e84 	sdl	a1,3716(at)
   134a0:	b0250e88 	sdl	a1,3720(at)
   134a4:	b0250e8c 	sdl	a1,3724(at)
   134a8:	b0250ed0 	sdl	a1,3792(at)
   134ac:	b0250ed8 	sdl	a1,3800(at)
   134b0:	b0250820 	sdl	a1,2080(at)
   134b4:	7f8001fe 	.word	0x7f8001fe
   134b8:	788001e2 	.word	0x788001e2
   134bc:	71c001c7 	.word	0x71c001c7
   134c0:	6b8001ae 	ldl	zero,430(gp)
   134c4:	65400195 	daddiu	zero,t2,405
   134c8:	5fc0017f 	bgtzl	s8,0x13ac8
   134cc:	5a400169 	blezl	s2,0x13a74
   134d0:	55400155 	bnezl	t2,0x13a28
   134d4:	50800142 	beqzl	a0,0x139e0
   134d8:	4c000130 	.word	0x4c000130
   134dc:	47c0011f 	c1	0x1c0011f
   134e0:	43c0010f 	c0	0x1c0010f
   134e4:	40000100 	.word	0x40000100
   134e8:	3c8000f2 	.word	0x3c8000f2
   134ec:	390000e4 	xori	zero,t0,0xe4
   134f0:	35c000d7 	ori	zero,t6,0xd7
   134f4:	32c000cb 	andi	zero,s6,0xcb
   134f8:	300000c0 	andi	zero,zero,0xc0
   134fc:	2d4000b5 	sltiu	zero,t2,181
   13500:	2ac000ab 	slti	zero,s6,171
   13504:	288000a2 	slti	zero,a0,162
   13508:	26000098 	addiu	zero,s0,152
   1350c:	24000090 	li	zero,144
   13510:	22000088 	addi	zero,s0,136
   13514:	20000080 	addi	zero,zero,128
   13518:	1e400079 	bgtz	s2,0x13700
   1351c:	1c800072 	bgtz	a0,0x136e8
   13520:	1b00006c 	blez	t8,0x136d4
   13524:	19800066 	blez	t4,0x136c0
   13528:	18000060 	blez	zero,0x136ac
   1352c:	16c0005b 	bnez	s6,0x1369c
   13530:	15800056 	bnez	t4,0x1368c
   13534:	14400051 	bnez	v0,0x1367c
   13538:	1300004c 	beqz	t8,0x1366c
   1353c:	12000048 	beqz	s0,0x13660
   13540:	11000044 	beqz	t0,0x13654
   13544:	10000040 	b	0x13648
   13548:	252e3536 	addiu	t6,t1,13622
   1354c:	0409121c 	tgeiu	zero,4636
   13550:	232b3233 	addi	t3,t9,12851
   13554:	0408111a 	tgei	zero,4378
   13558:	21292f30 	addi	t1,t1,12080
   1355c:	03081019 	.word	0x3081019
   13560:	1f272d2d 	.word	0x1f272d2d
   13564:	03080f18 	.word	0x3080f18
   13568:	1e252a2b 	.word	0x1e252a2b
   1356c:	03070e16 	.word	0x3070e16
   13570:	1c222828 	.word	0x1c222828
   13574:	03070d15 	.word	0x3070d15
   13578:	1b212526 	.word	0x1b212526
   1357c:	03060d14 	.word	0x3060d14
   13580:	191f2324 	.word	0x191f2324
   13584:	03060c13 	.word	0x3060c13
   13588:	181d2122 	.word	0x181d2122
   1358c:	02060b11 	.word	0x2060b11
   13590:	161b2020 	bne	s0,k1,0x1b614
   13594:	02050811 	.word	0x2050811
   13598:	151a1e1f 	bne	t0,k0,0x1ae18
   1359c:	02050a10 	.word	0x2050a10
   135a0:	14181c1d 	bne	zero,t8,0x1a618
   135a4:	02050a0f 	.word	0x2050a0f
   135a8:	13171a1b 	beq	t8,s7,0x19e18
   135ac:	0204090e 	.word	0x204090e
   135b0:	1216191a 	beq	s0,s6,0x19a1c
   135b4:	0204090d 	break	0x204,0x24
   135b8:	11151718 	beq	t0,s5,0x1921c
   135bc:	0204080c 	syscall	0x81020
   135c0:	10131617 	beq	zero,s3,0x18e20
   135c4:	0204080c 	syscall	0x81020
   135c8:	0f121516 	jal	0xc485458
   135cc:	0104070b 	.word	0x104070b
   135d0:	0e111414 	jal	0x8445050
   135d4:	0203070b 	.word	0x203070b
   135d8:	0d101313 	jal	0x4404c4c
   135dc:	0103060a 	.word	0x103060a
   135e0:	0c0f1212 	jal	0x3c4848
   135e4:	01030609 	.word	0x1030609
   135e8:	0c0f1111 	jal	0x3c4444
   135ec:	01030609 	.word	0x1030609
   135f0:	0b0e1010 	j	0xc384040
   135f4:	01030508 	.word	0x1030508
   135f8:	0b0d0f0f 	j	0xc343c3c
   135fc:	01030508 	.word	0x1030508
   13600:	0a0c0e0e 	j	0x8303838
   13604:	01020508 	.word	0x1020508
   13608:	0a0c0d0d 	j	0x8303434
   1360c:	01020507 	.word	0x1020507
   13610:	090b0c0d 	j	0x42c3034
   13614:	01020407 	.word	0x1020407
   13618:	090a0c0c 	j	0x4283030
   1361c:	01020406 	.word	0x1020406
   13620:	080a0b0b 	j	0x282c2c
   13624:	01020406 	.word	0x1020406
   13628:	08090a0b 	j	0x24282c
   1362c:	01020406 	.word	0x1020406
   13630:	07090a0a 	tgeiu	t8,2570
   13634:	01020305 	.word	0x1020305
   13638:	0708090a 	tgei	t8,2314
   1363c:	01020305 	.word	0x1020305
   13640:	06080909 	tgei	s0,2313
   13644:	01010305 	.word	0x1010305
   13648:	06070809 	.word	0x6070809
   1364c:	01010304 	.word	0x1010304
   13650:	1b2e3536 	.word	0x1b2e3536
   13654:	00000000 	nop
   13658:	192b3233 	.word	0x192b3233
   1365c:	00000000 	nop
   13660:	18292f30 	.word	0x18292f30
   13664:	00000000 	nop
   13668:	17172d2d 	bne	t8,s7,0x1eb20
   1366c:	00000000 	nop
   13670:	15252a2b 	bne	t1,a1,0x1df20
   13674:	00000000 	nop
   13678:	14242828 	bne	at,a0,0x1d71c
   1367c:	00000000 	nop
   13680:	13212526 	beq	t9,at,0x1cb1c
   13684:	00000000 	nop
   13688:	121f2324 	beq	s0,ra,0x1c31c
   1368c:	00000000 	nop
   13690:	111d2122 	beq	t0,sp,0x1bb1c
   13694:	00000000 	nop
   13698:	101b2020 	beq	zero,k1,0x1b71c
   1369c:	00000000 	nop
   136a0:	0f1a1e1f 	jal	0xc68787c
   136a4:	00000000 	nop
   136a8:	0e181c1d 	jal	0x8607074
   136ac:	00000000 	nop
   136b0:	0e171a1b 	jal	0x85c686c
   136b4:	00000000 	nop
   136b8:	0d16191a 	jal	0x4586468
   136bc:	00000000 	nop
   136c0:	0c151718 	jal	0x545c60
   136c4:	00000000 	nop
   136c8:	0b131617 	j	0xc4c585c
   136cc:	00000000 	nop
   136d0:	0b121516 	j	0xc485458
   136d4:	00000000 	nop
   136d8:	0a111414 	j	0x8445050
   136dc:	00000000 	nop
   136e0:	0a101313 	j	0x8404c4c
   136e4:	00000000 	nop
   136e8:	090f1212 	j	0x43c4848
   136ec:	00000000 	nop
   136f0:	090f1111 	j	0x43c4444
   136f4:	00000000 	nop
   136f8:	080e1010 	j	0x384040
   136fc:	00000000 	nop
   13700:	080d0f0f 	j	0x343c3c
   13704:	00000000 	nop
   13708:	070c0e0e 	teqi	t8,3598
   1370c:	00000000 	nop
   13710:	070c0d0d 	teqi	t8,3341
   13714:	00000000 	nop
   13718:	060b0c0d 	tltiu	s0,3085
   1371c:	00000000 	nop
   13720:	060a0c0c 	tlti	s0,3084
   13724:	00000000 	nop
   13728:	060a0b0b 	tlti	s0,2827
   1372c:	00000000 	nop
   13730:	05090a0b 	tgeiu	t0,2571
   13734:	00000000 	nop
   13738:	05090a0a 	tgeiu	t0,2570
   1373c:	00000000 	nop
   13740:	0508090a 	tgei	t0,2314
   13744:	00000000 	nop
   13748:	05080909 	tgei	t0,2313
   1374c:	00000000 	nop
   13750:	04070809 	.word	0x4070809
   13754:	00000000 	nop
   13758:	b02a0006 	sdl	t2,6(at)
   1375c:	b02a0005 	sdl	t2,5(at)
	...
   13818:	08080808 	j	0x202020
   1381c:	08080808 	j	0x202020
   13820:	28282808 	slti	t0,at,10248
   13824:	08082828 	j	0x20a0a0
   13828:	08080808 	j	0x202020
   1382c:	08080808 	j	0x202020
   13830:	08080808 	j	0x202020
   13834:	08080808 	j	0x202020
   13838:	101010a0 	beq	zero,s0,0x17abc
   1383c:	10101010 	beq	zero,s0,0x17880
   13840:	10101010 	beq	zero,s0,0x17884
   13844:	10101010 	beq	zero,s0,0x17888
   13848:	04040404 	.word	0x4040404
   1384c:	04040404 	.word	0x4040404
   13850:	10100404 	beq	zero,s0,0x14864
   13854:	10101010 	beq	zero,s0,0x17898
   13858:	41414110 	.word	0x41414110
   1385c:	01414141 	.word	0x1414141
   13860:	01010101 	.word	0x1010101
   13864:	01010101 	.word	0x1010101
   13868:	01010101 	.word	0x1010101
   1386c:	01010101 	.word	0x1010101
   13870:	10010101 	beq	zero,at,0x13c78
   13874:	10101010 	beq	zero,s0,0x178b8
   13878:	42424210 	c0	0x424210
   1387c:	02424242 	.word	0x2424242
   13880:	02020202 	.word	0x2020202
   13884:	02020202 	.word	0x2020202
   13888:	02020202 	.word	0x2020202
   1388c:	02020202 	.word	0x2020202
   13890:	10020202 	beq	zero,v0,0x1409c
   13894:	08101010 	j	0x404040
   13898:	00000000 	nop
	...
   138b8:	101010a0 	beq	zero,s0,0x17b3c
   138bc:	10101010 	beq	zero,s0,0x17900
   138c0:	10101010 	beq	zero,s0,0x17904
   138c4:	10101010 	beq	zero,s0,0x17908
   138c8:	10101010 	beq	zero,s0,0x1790c
   138cc:	10101010 	beq	zero,s0,0x17910
   138d0:	10101010 	beq	zero,s0,0x17914
   138d4:	10101010 	beq	zero,s0,0x17918
   138d8:	01010101 	.word	0x1010101
   138dc:	01010101 	.word	0x1010101
   138e0:	01010101 	.word	0x1010101
   138e4:	01010101 	.word	0x1010101
   138e8:	01010101 	.word	0x1010101
   138ec:	10010101 	beq	zero,at,0x13cf4
   138f0:	01010101 	.word	0x1010101
   138f4:	02010101 	.word	0x2010101
   138f8:	02020202 	.word	0x2020202
   138fc:	02020202 	.word	0x2020202
   13900:	02020202 	.word	0x2020202
   13904:	02020202 	.word	0x2020202
   13908:	02020202 	.word	0x2020202
   1390c:	10020202 	beq	zero,v0,0x14118
   13910:	02020202 	.word	0x2020202
   13914:	00020202 	srl	zero,v0,0x8
   13918:	0000c27f 	dsra32	t8,zero,0x9
   1391c:	00000000 	nop
   13920:	f0f45e00 	scd	s4,24064(a3)
   13924:	f0f45e00 	scd	s4,24064(a3)
	...
   13934:	60e55e00 	daddi	a1,a3,24064
   13938:	ffffffff 	sd	ra,-1(ra)
   1393c:	02000000 	.word	0x2000000
	...
   13948:	b8005808 	swr	zero,22536(zero)
   1394c:	ffffffff 	sd	ra,-1(ra)