../git/linux-firmware/./bnx2/bnx2-mips-06-5.0.0.j6.fw:     file format binary


Disassembly of section .data:

00000000 <.data>:
       0:	08000110 	j	0x440
       4:	08000000 	j	0x0
       8:	00004cc8 	.word	0x4cc8
       c:	000000c8 	.word	0xc8
	...
      1c:	08004cc8 	j	0x13320
      20:	00000014 	dsllv	zero,zero,zero
      24:	00004d90 	.word	0x4d90
      28:	08000088 	j	0x220
      2c:	08000000 	j	0x0
      30:	000058c4 	.word	0x58c4
      34:	00004da4 	.word	0x4da4
      38:	08005a40 	j	0x16900
      3c:	00000084 	.word	0x84
      40:	0000a668 	.word	0xa668
      44:	080058c4 	j	0x16310
      48:	00000154 	.word	0x154
      4c:	0000a6ec 	.word	0xa6ec
      50:	080031d8 	j	0xc760
      54:	08000000 	j	0x0
      58:	00007534 	teq	zero,zero,0x1d4
      5c:	0000a840 	sll	s5,zero,0x1
	...
      6c:	08007534 	j	0x1d4d0
      70:	00000024 	and	zero,zero,zero
      74:	00011d74 	teq	zero,at,0x75
      78:	08000488 	j	0x1220
      7c:	08000400 	j	0x1000
      80:	0000175c 	.word	0x175c
      84:	00011d98 	.word	0x11d98
	...
      a0:	080000a8 	j	0x2a0
      a4:	08000000 	j	0x0
      a8:	00003b38 	dsll	a3,zero,0xc
      ac:	000134f4 	teq	zero,at,0xd3
	...
      c8:	0a000044 	j	0x8000110
      cc:	00000000 	nop
      d0:	00000000 	nop
      d4:	0000000d 	break
      d8:	636f6d35 	daddi	t7,k1,27957
      dc:	2e302e30 	sltiu	s0,s1,11824
      e0:	6a360000 	ldl	s6,0(s1)
      e4:	05000002 	bltz	t0,0xf0
      e8:	00000000 	nop
      ec:	00000003 	sra	zero,zero,0x0
      f0:	00000014 	dsllv	zero,zero,zero
      f4:	00000032 	tlt	zero,zero
      f8:	00000003 	sra	zero,zero,0x0
	...
     110:	00000010 	mfhi	zero
     114:	00000136 	tne	zero,zero,0x4
     118:	0000ea60 	.word	0xea60
     11c:	00000005 	.word	0x5
	...
     12c:	00000008 	jr	zero
     130:	00000000 	nop
	...
     160:	00000002 	srl	zero,zero,0x0
	...
     188:	00000010 	mfhi	zero
	...
     1dc:	10000003 	b	0x1ec
     1e0:	00000000 	nop
     1e4:	0000000d 	break
     1e8:	0000000d 	break
     1ec:	3c020800 	lui	v0,0x800
     1f0:	24424d00 	addiu	v0,v0,19712
     1f4:	3c030800 	lui	v1,0x800
     1f8:	24634dfc 	addiu	v1,v1,19964
     1fc:	ac400000 	sw	zero,0(v0)
     200:	0043202b 	sltu	a0,v0,v1
     204:	1480fffd 	bnez	a0,0x1fc
     208:	24420004 	addiu	v0,v0,4
     20c:	3c1d0800 	lui	sp,0x800
     210:	37bd7ffc 	ori	sp,sp,0x7ffc
     214:	03a0f021 	move	s8,sp
     218:	3c100800 	lui	s0,0x800
     21c:	26100110 	addiu	s0,s0,272
     220:	3c1c0800 	lui	gp,0x800
     224:	279c4d00 	addiu	gp,gp,19712
     228:	0e000214 	jal	0x8000850
     22c:	00000000 	nop
     230:	0000000d 	break
     234:	27bdffe8 	addiu	sp,sp,-24
     238:	afbf0014 	sw	ra,20(sp)
     23c:	afb00010 	sw	s0,16(sp)
     240:	97420108 	lhu	v0,264(k0)
     244:	30437000 	andi	v1,v0,0x7000
     248:	24022000 	li	v0,8192
     24c:	1062000b 	beq	v1,v0,0x27c
     250:	28622001 	slti	v0,v1,8193
     254:	1440002f 	bnez	v0,0x314
     258:	00001021 	move	v0,zero
     25c:	24024000 	li	v0,16384
     260:	10620025 	beq	v1,v0,0x2f8
     264:	00000000 	nop
     268:	24026000 	li	v0,24576
     26c:	10620026 	beq	v1,v0,0x308
     270:	00001021 	move	v0,zero
     274:	0a000094 	j	0x8000250
     278:	8fbf0014 	lw	ra,20(sp)
     27c:	27500100 	addiu	s0,k0,256
     280:	92020009 	lbu	v0,9(s0)
     284:	1040001a 	beqz	v0,0x2f0
     288:	24030001 	li	v1,1
     28c:	3c020800 	lui	v0,0x800
     290:	8c420020 	lw	v0,32(v0)
     294:	10400016 	beqz	v0,0x2f0
     298:	00001821 	move	v1,zero
     29c:	0e00052b 	jal	0x80014ac
     2a0:	00000000 	nop
     2a4:	96030008 	lhu	v1,8(s0)
     2a8:	3c060800 	lui	a2,0x800
     2ac:	94c64dbe 	lhu	a2,19902(a2)
     2b0:	8e040018 	lw	a0,24(s0)
     2b4:	8f820020 	lw	v0,32(gp)
     2b8:	9605000c 	lhu	a1,12(s0)
     2bc:	00031c00 	sll	v1,v1,0x10
     2c0:	00661825 	or	v1,v1,a2
     2c4:	ac440000 	sw	a0,0(v0)
     2c8:	ac450004 	sw	a1,4(v0)
     2cc:	24040001 	li	a0,1
     2d0:	ac400008 	sw	zero,8(v0)
     2d4:	ac40000c 	sw	zero,12(v0)
     2d8:	ac400010 	sw	zero,16(v0)
     2dc:	ac400014 	sw	zero,20(v0)
     2e0:	ac400018 	sw	zero,24(v0)
     2e4:	0e000550 	jal	0x8001540
     2e8:	ac43001c 	sw	v1,28(v0)
     2ec:	00001821 	move	v1,zero
     2f0:	0a000093 	j	0x800024c
     2f4:	00601021 	move	v0,v1
     2f8:	0e0003bd 	jal	0x8000ef4
     2fc:	00000000 	nop
     300:	0a000093 	j	0x800024c
     304:	00001021 	move	v0,zero
     308:	0e000f81 	jal	0x8003e04
     30c:	00000000 	nop
     310:	00001021 	move	v0,zero
     314:	8fbf0014 	lw	ra,20(sp)
     318:	8fb00010 	lw	s0,16(sp)
     31c:	03e00008 	jr	ra
     320:	27bd0018 	addiu	sp,sp,24
     324:	27bdffe0 	addiu	sp,sp,-32
     328:	afb00010 	sw	s0,16(sp)
     32c:	afbf0018 	sw	ra,24(sp)
     330:	afb10014 	sw	s1,20(sp)
     334:	27500100 	addiu	s0,k0,256
     338:	9203000b 	lbu	v1,11(s0)
     33c:	2402001a 	li	v0,26
     340:	96110008 	lhu	s1,8(s0)
     344:	1462005b 	bne	v1,v0,0x4b4
     348:	00002821 	move	a1,zero
     34c:	32220001 	andi	v0,s1,0x1
     350:	10400008 	beqz	v0,0x374
     354:	00000000 	nop
     358:	8e020000 	lw	v0,0(s0)
     35c:	96030014 	lhu	v1,20(s0)
     360:	000211c2 	srl	v0,v0,0x7
     364:	00021040 	sll	v0,v0,0x1
     368:	005a1021 	addu	v0,v0,k0
     36c:	0a0000db 	j	0x800036c
     370:	a4430080 	sh	v1,128(v0)
     374:	3c020800 	lui	v0,0x800
     378:	8c420020 	lw	v0,32(v0)
     37c:	10400028 	beqz	v0,0x420
     380:	00000000 	nop
     384:	0e00052b 	jal	0x80014ac
     388:	00000000 	nop
     38c:	97420108 	lhu	v0,264(k0)
     390:	9743010c 	lhu	v1,268(k0)
     394:	8f850020 	lw	a1,32(gp)
     398:	3042003e 	andi	v0,v0,0x3e
     39c:	3063ffff 	andi	v1,v1,0xffff
     3a0:	00021400 	sll	v0,v0,0x10
     3a4:	00431025 	or	v0,v0,v1
     3a8:	aca20000 	sw	v0,0(a1)
     3ac:	8f420100 	lw	v0,256(k0)
     3b0:	3c060800 	lui	a2,0x800
     3b4:	94c64dbe 	lhu	a2,19902(a2)
     3b8:	aca20004 	sw	v0,4(a1)
     3bc:	97430116 	lhu	v1,278(k0)
     3c0:	9744010e 	lhu	a0,270(k0)
     3c4:	3c022000 	lui	v0,0x2000
     3c8:	00031c00 	sll	v1,v1,0x10
     3cc:	3084ffff 	andi	a0,a0,0xffff
     3d0:	00641825 	or	v1,v1,a0
     3d4:	aca30008 	sw	v1,8(a1)
     3d8:	00c23025 	or	a2,a2,v0
     3dc:	97420110 	lhu	v0,272(k0)
     3e0:	97430112 	lhu	v1,274(k0)
     3e4:	24040001 	li	a0,1
     3e8:	00021400 	sll	v0,v0,0x10
     3ec:	3063ffff 	andi	v1,v1,0xffff
     3f0:	00431025 	or	v0,v0,v1
     3f4:	aca2000c 	sw	v0,12(a1)
     3f8:	97420114 	lhu	v0,276(k0)
     3fc:	3042ffff 	andi	v0,v0,0xffff
     400:	aca20010 	sw	v0,16(a1)
     404:	8f420118 	lw	v0,280(k0)
     408:	aca20014 	sw	v0,20(a1)
     40c:	9342010b 	lbu	v0,267(k0)
     410:	304200ff 	andi	v0,v0,0xff
     414:	aca20018 	sw	v0,24(a1)
     418:	0e000550 	jal	0x8001540
     41c:	aca6001c 	sw	a2,28(a1)
     420:	3c020800 	lui	v0,0x800
     424:	8c420040 	lw	v0,64(v0)
     428:	24420001 	addiu	v0,v0,1
     42c:	3c010800 	lui	at,0x800
     430:	ac220040 	sw	v0,64(at)
     434:	3c030800 	lui	v1,0x800
     438:	8c630044 	lw	v1,68(v1)
     43c:	32220002 	andi	v0,s1,0x2
     440:	32240004 	andi	a0,s1,0x4
     444:	24630001 	addiu	v1,v1,1
     448:	3c010800 	lui	at,0x800
     44c:	ac230044 	sw	v1,68(at)
     450:	10800018 	beqz	a0,0x4b4
     454:	0002282b 	sltu	a1,zero,v0
     458:	8f4202b8 	lw	v0,696(k0)
     45c:	04430008 	bgezl	v0,0x480
     460:	8e020020 	lw	v0,32(s0)
     464:	3c020800 	lui	v0,0x800
     468:	8c420060 	lw	v0,96(v0)
     46c:	24420001 	addiu	v0,v0,1
     470:	3c010800 	lui	at,0x800
     474:	ac220060 	sw	v0,96(at)
     478:	0a0000fb 	j	0x80003ec
     47c:	24050001 	li	a1,1
     480:	96030016 	lhu	v1,22(s0)
     484:	00002821 	move	a1,zero
     488:	af420280 	sw	v0,640(k0)
     48c:	8e020004 	lw	v0,4(s0)
     490:	a7430284 	sh	v1,644(k0)
     494:	af420288 	sw	v0,648(k0)
     498:	3c021000 	lui	v0,0x1000
     49c:	af4202b8 	sw	v0,696(k0)
     4a0:	3c020800 	lui	v0,0x800
     4a4:	8c42005c 	lw	v0,92(v0)
     4a8:	24420001 	addiu	v0,v0,1
     4ac:	3c010800 	lui	at,0x800
     4b0:	ac22005c 	sw	v0,92(at)
     4b4:	8fbf0018 	lw	ra,24(sp)
     4b8:	8fb10014 	lw	s1,20(sp)
     4bc:	8fb00010 	lw	s0,16(sp)
     4c0:	00a01021 	move	v0,a1
     4c4:	03e00008 	jr	ra
     4c8:	27bd0020 	addiu	sp,sp,32
     4cc:	27bdffe0 	addiu	sp,sp,-32
     4d0:	afb00010 	sw	s0,16(sp)
     4d4:	afbf0018 	sw	ra,24(sp)
     4d8:	afb10014 	sw	s1,20(sp)
     4dc:	27500100 	addiu	s0,k0,256
     4e0:	9203000b 	lbu	v1,11(s0)
     4e4:	24020003 	li	v0,3
     4e8:	96110008 	lhu	s1,8(s0)
     4ec:	1462006d 	bne	v1,v0,0x6a4
     4f0:	00002021 	move	a0,zero
     4f4:	32220001 	andi	v0,s1,0x1
     4f8:	10400008 	beqz	v0,0x51c
     4fc:	00000000 	nop
     500:	8e020000 	lw	v0,0(s0)
     504:	96030014 	lhu	v1,20(s0)
     508:	000211c2 	srl	v0,v0,0x7
     50c:	00021040 	sll	v0,v0,0x1
     510:	005a1021 	addu	v0,v0,k0
     514:	0a000142 	j	0x8000508
     518:	a4430080 	sh	v1,128(v0)
     51c:	3c020800 	lui	v0,0x800
     520:	8c420020 	lw	v0,32(v0)
     524:	10400025 	beqz	v0,0x5bc
     528:	00000000 	nop
     52c:	0e00052b 	jal	0x80014ac
     530:	00000000 	nop
     534:	97420108 	lhu	v0,264(k0)
     538:	9743010c 	lhu	v1,268(k0)
     53c:	8f850020 	lw	a1,32(gp)
     540:	3042003e 	andi	v0,v0,0x3e
     544:	3063ffff 	andi	v1,v1,0xffff
     548:	00021400 	sll	v0,v0,0x10
     54c:	00431025 	or	v0,v0,v1
     550:	aca20000 	sw	v0,0(a1)
     554:	8f420100 	lw	v0,256(k0)
     558:	3c060800 	lui	a2,0x800
     55c:	94c64dbe 	lhu	a2,19902(a2)
     560:	aca20004 	sw	v0,4(a1)
     564:	97430116 	lhu	v1,278(k0)
     568:	9744010e 	lhu	a0,270(k0)
     56c:	3c022000 	lui	v0,0x2000
     570:	00031c00 	sll	v1,v1,0x10
     574:	3084ffff 	andi	a0,a0,0xffff
     578:	00641825 	or	v1,v1,a0
     57c:	aca30008 	sw	v1,8(a1)
     580:	00c23025 	or	a2,a2,v0
     584:	97420110 	lhu	v0,272(k0)
     588:	97430112 	lhu	v1,274(k0)
     58c:	24040001 	li	a0,1
     590:	00021400 	sll	v0,v0,0x10
     594:	3063ffff 	andi	v1,v1,0xffff
     598:	00431025 	or	v0,v0,v1
     59c:	aca2000c 	sw	v0,12(a1)
     5a0:	97420114 	lhu	v0,276(k0)
     5a4:	3042ffff 	andi	v0,v0,0xffff
     5a8:	aca20010 	sw	v0,16(a1)
     5ac:	aca00014 	sw	zero,20(a1)
     5b0:	aca00018 	sw	zero,24(a1)
     5b4:	0e000550 	jal	0x8001540
     5b8:	aca6001c 	sw	a2,28(a1)
     5bc:	3c020800 	lui	v0,0x800
     5c0:	8c420040 	lw	v0,64(v0)
     5c4:	24420001 	addiu	v0,v0,1
     5c8:	3c010800 	lui	at,0x800
     5cc:	ac220040 	sw	v0,64(at)
     5d0:	3c020800 	lui	v0,0x800
     5d4:	8c420044 	lw	v0,68(v0)
     5d8:	32230004 	andi	v1,s1,0x4
     5dc:	24420001 	addiu	v0,v0,1
     5e0:	3c010800 	lui	at,0x800
     5e4:	ac220044 	sw	v0,68(at)
     5e8:	1060001a 	beqz	v1,0x654
     5ec:	32220002 	andi	v0,s1,0x2
     5f0:	8f4202b8 	lw	v0,696(k0)
     5f4:	04430008 	bgezl	v0,0x618
     5f8:	8e020020 	lw	v0,32(s0)
     5fc:	3c020800 	lui	v0,0x800
     600:	8c420060 	lw	v0,96(v0)
     604:	24420001 	addiu	v0,v0,1
     608:	3c010800 	lui	at,0x800
     60c:	ac220060 	sw	v0,96(at)
     610:	0a000177 	j	0x80005dc
     614:	24040001 	li	a0,1
     618:	96030016 	lhu	v1,22(s0)
     61c:	00002021 	move	a0,zero
     620:	af420280 	sw	v0,640(k0)
     624:	8e020004 	lw	v0,4(s0)
     628:	a7430284 	sh	v1,644(k0)
     62c:	af420288 	sw	v0,648(k0)
     630:	3c021000 	lui	v0,0x1000
     634:	af4202b8 	sw	v0,696(k0)
     638:	3c020800 	lui	v0,0x800
     63c:	8c42005c 	lw	v0,92(v0)
     640:	24420001 	addiu	v0,v0,1
     644:	3c010800 	lui	at,0x800
     648:	ac22005c 	sw	v0,92(at)
     64c:	0a000178 	j	0x80005e0
     650:	8fbf0018 	lw	ra,24(sp)
     654:	10400013 	beqz	v0,0x6a4
     658:	00002021 	move	a0,zero
     65c:	8f430104 	lw	v1,260(k0)
     660:	3c026020 	lui	v0,0x6020
     664:	ac430014 	sw	v1,20(v0)
     668:	8c420004 	lw	v0,4(v0)
     66c:	240301fe 	li	v1,510
     670:	304203ff 	andi	v0,v0,0x3ff
     674:	1443000b 	bne	v0,v1,0x6a4
     678:	00002021 	move	a0,zero
     67c:	8f420100 	lw	v0,256(k0)
     680:	000211c0 	sll	v0,v0,0x7
     684:	2442fffc 	addiu	v0,v0,-4
     688:	2c420008 	sltiu	v0,v0,8
     68c:	10400002 	beqz	v0,0x698
     690:	24030002 	li	v1,2
     694:	00031f40 	sll	v1,v1,0x1d
     698:	3c026000 	lui	v0,0x6000
     69c:	ac436914 	sw	v1,26900(v0)
     6a0:	00002021 	move	a0,zero
     6a4:	8fbf0018 	lw	ra,24(sp)
     6a8:	8fb10014 	lw	s1,20(sp)
     6ac:	8fb00010 	lw	s0,16(sp)
     6b0:	00801021 	move	v0,a0
     6b4:	03e00008 	jr	ra
     6b8:	27bd0020 	addiu	sp,sp,32
     6bc:	8f430100 	lw	v1,256(k0)
     6c0:	24020100 	li	v0,256
     6c4:	50620003 	beql	v1,v0,0x6d4
     6c8:	000311c2 	srl	v0,v1,0x7
     6cc:	0000000d 	break
     6d0:	000311c2 	srl	v0,v1,0x7
     6d4:	00021040 	sll	v0,v0,0x1
     6d8:	005a1021 	addu	v0,v0,k0
     6dc:	a4400080 	sh	zero,128(v0)
     6e0:	03e00008 	jr	ra
     6e4:	00001021 	move	v0,zero
     6e8:	93620000 	lbu	v0,0(k1)
     6ec:	03e00008 	jr	ra
     6f0:	af800000 	sw	zero,0(gp)
     6f4:	03e00008 	jr	ra
     6f8:	00001021 	move	v0,zero
     6fc:	03e00008 	jr	ra
     700:	00001021 	move	v0,zero
     704:	24020100 	li	v0,256
     708:	14820008 	bne	a0,v0,0x72c
     70c:	00000000 	nop
     710:	3c020800 	lui	v0,0x800
     714:	8c4200fc 	lw	v0,252(v0)
     718:	24420001 	addiu	v0,v0,1
     71c:	3c010800 	lui	at,0x800
     720:	ac2200fc 	sw	v0,252(at)
     724:	0a00019f 	j	0x800067c
     728:	30a20020 	andi	v0,a1,0x20
     72c:	3c020800 	lui	v0,0x800
     730:	8c420084 	lw	v0,132(v0)
     734:	24420001 	addiu	v0,v0,1
     738:	3c010800 	lui	at,0x800
     73c:	ac220084 	sw	v0,132(at)
     740:	30a20020 	andi	v0,a1,0x20
     744:	10400008 	beqz	v0,0x768
     748:	30a30010 	andi	v1,a1,0x10
     74c:	3c020800 	lui	v0,0x800
     750:	8c420108 	lw	v0,264(v0)
     754:	24420001 	addiu	v0,v0,1
     758:	3c010800 	lui	at,0x800
     75c:	ac220108 	sw	v0,264(at)
     760:	03e00008 	jr	ra
     764:	00000000 	nop
     768:	10600008 	beqz	v1,0x78c
     76c:	00000000 	nop
     770:	3c020800 	lui	v0,0x800
     774:	8c420104 	lw	v0,260(v0)
     778:	24420001 	addiu	v0,v0,1
     77c:	3c010800 	lui	at,0x800
     780:	ac220104 	sw	v0,260(at)
     784:	03e00008 	jr	ra
     788:	00000000 	nop
     78c:	3c020800 	lui	v0,0x800
     790:	8c420100 	lw	v0,256(v0)
     794:	24420001 	addiu	v0,v0,1
     798:	3c010800 	lui	at,0x800
     79c:	ac220100 	sw	v0,256(at)
     7a0:	03e00008 	jr	ra
     7a4:	00000000 	nop
     7a8:	27bdffe8 	addiu	sp,sp,-24
     7ac:	afbf0010 	sw	ra,16(sp)
     7b0:	27440100 	addiu	a0,k0,256
     7b4:	94830008 	lhu	v1,8(a0)
     7b8:	30620004 	andi	v0,v1,0x4
     7bc:	1040001b 	beqz	v0,0x82c
     7c0:	30660002 	andi	a2,v1,0x2
     7c4:	8f4202b8 	lw	v0,696(k0)
     7c8:	04410008 	bgez	v0,0x7ec
     7cc:	24050001 	li	a1,1
     7d0:	3c020800 	lui	v0,0x800
     7d4:	8c420060 	lw	v0,96(v0)
     7d8:	24420001 	addiu	v0,v0,1
     7dc:	3c010800 	lui	at,0x800
     7e0:	ac220060 	sw	v0,96(at)
     7e4:	0a0001eb 	j	0x80007ac
     7e8:	8fbf0010 	lw	ra,16(sp)
     7ec:	8c820020 	lw	v0,32(a0)
     7f0:	94830016 	lhu	v1,22(a0)
     7f4:	00002821 	move	a1,zero
     7f8:	af420280 	sw	v0,640(k0)
     7fc:	8c820004 	lw	v0,4(a0)
     800:	a7430284 	sh	v1,644(k0)
     804:	af420288 	sw	v0,648(k0)
     808:	3c021000 	lui	v0,0x1000
     80c:	af4202b8 	sw	v0,696(k0)
     810:	3c020800 	lui	v0,0x800
     814:	8c42005c 	lw	v0,92(v0)
     818:	24420001 	addiu	v0,v0,1
     81c:	3c010800 	lui	at,0x800
     820:	ac22005c 	sw	v0,92(at)
     824:	0a0001eb 	j	0x80007ac
     828:	8fbf0010 	lw	ra,16(sp)
     82c:	10c00006 	beqz	a2,0x848
     830:	00602821 	move	a1,v1
     834:	8f440100 	lw	a0,256(k0)
     838:	0e00018f 	jal	0x800063c
     83c:	00000000 	nop
     840:	0a0001ea 	j	0x80007a8
     844:	24050001 	li	a1,1
     848:	8f820008 	lw	v0,8(gp)
     84c:	8f430104 	lw	v1,260(k0)
     850:	50430007 	beql	v0,v1,0x870
     854:	00002821 	move	a1,zero
     858:	8f440100 	lw	a0,256(k0)
     85c:	0e00018f 	jal	0x800063c
     860:	00000000 	nop
     864:	8f420104 	lw	v0,260(k0)
     868:	af820008 	sw	v0,8(gp)
     86c:	00002821 	move	a1,zero
     870:	8fbf0010 	lw	ra,16(sp)
     874:	00a01021 	move	v0,a1
     878:	03e00008 	jr	ra
     87c:	27bd0018 	addiu	sp,sp,24
     880:	3c020800 	lui	v0,0x800
     884:	8c420088 	lw	v0,136(v0)
     888:	27430100 	addiu	v1,k0,256
     88c:	9465000c 	lhu	a1,12(v1)
     890:	24420001 	addiu	v0,v0,1
     894:	3c010800 	lui	at,0x800
     898:	ac220088 	sw	v0,136(at)
     89c:	8c640018 	lw	a0,24(v1)
     8a0:	03451021 	addu	v0,k0,a1
     8a4:	90454000 	lbu	a1,16384(v0)
     8a8:	af440038 	sw	a0,56(k0)
     8ac:	8c62001c 	lw	v0,28(v1)
     8b0:	2403fff8 	li	v1,-8
     8b4:	00052e00 	sll	a1,a1,0x18
     8b8:	00431024 	and	v0,v0,v1
     8bc:	34420004 	ori	v0,v0,0x4
     8c0:	af42003c 	sw	v0,60(k0)
     8c4:	3c020005 	lui	v0,0x5
     8c8:	af420030 	sw	v0,48(k0)
	...
     8d8:	af450404 	sw	a1,1028(k0)
	...
     8e8:	3c020006 	lui	v0,0x6
     8ec:	34420001 	ori	v0,v0,0x1
     8f0:	af420030 	sw	v0,48(k0)
	...
     900:	8f420000 	lw	v0,0(k0)
     904:	30420010 	andi	v0,v0,0x10
     908:	1040fffd 	beqz	v0,0x900
     90c:	00001021 	move	v0,zero
     910:	03e00008 	jr	ra
     914:	00000000 	nop
     918:	27bdffe0 	addiu	sp,sp,-32
     91c:	afb20018 	sw	s2,24(sp)
     920:	3c036010 	lui	v1,0x6010
     924:	afbf001c 	sw	ra,28(sp)
     928:	afb10014 	sw	s1,20(sp)
     92c:	afb00010 	sw	s0,16(sp)
     930:	8c645000 	lw	a0,20480(v1)
     934:	2402ff7f 	li	v0,-129
     938:	3c1a8000 	lui	k0,0x8000
     93c:	00822024 	and	a0,a0,v0
     940:	3484380c 	ori	a0,a0,0x380c
     944:	24020037 	li	v0,55
     948:	ac645000 	sw	a0,20480(v1)
     94c:	3c120800 	lui	s2,0x800
     950:	26524d38 	addiu	s2,s2,19768
     954:	af420008 	sw	v0,8(k0)
     958:	24020c80 	li	v0,3200
     95c:	af420024 	sw	v0,36(k0)
     960:	3c1b8008 	lui	k1,0x8008
     964:	3c060800 	lui	a2,0x800
     968:	24c6062c 	addiu	a2,a2,1580
     96c:	02401021 	move	v0,s2
     970:	2404001c 	li	a0,28
     974:	2484ffff 	addiu	a0,a0,-1
     978:	ac460000 	sw	a2,0(v0)
     97c:	0481fffd 	bgez	a0,0x974
     980:	24420004 	addiu	v0,v0,4
     984:	3c020800 	lui	v0,0x800
     988:	2442016c 	addiu	v0,v0,364
     98c:	3c010800 	lui	at,0x800
     990:	ac224d40 	sw	v0,19776(at)
     994:	3c020800 	lui	v0,0x800
     998:	24420404 	addiu	v0,v0,1028
     99c:	3c010800 	lui	at,0x800
     9a0:	ac224d44 	sw	v0,19780(at)
     9a4:	3c020800 	lui	v0,0x800
     9a8:	244207b8 	addiu	v0,v0,1976
     9ac:	3c010800 	lui	at,0x800
     9b0:	ac224d88 	sw	v0,19848(at)
     9b4:	3c020800 	lui	v0,0x800
     9b8:	2442025c 	addiu	v0,v0,604
     9bc:	3c030800 	lui	v1,0x800
     9c0:	24630634 	addiu	v1,v1,1588
     9c4:	3c040800 	lui	a0,0x800
     9c8:	248406e0 	addiu	a0,a0,1760
     9cc:	3c050800 	lui	a1,0x800
     9d0:	24a53b50 	addiu	a1,a1,15184
     9d4:	3c010800 	lui	at,0x800
     9d8:	ac224da0 	sw	v0,19872(at)
     9dc:	3c020800 	lui	v0,0x800
     9e0:	244205f4 	addiu	v0,v0,1524
     9e4:	3c010800 	lui	at,0x800
     9e8:	ac264d84 	sw	a2,19844(at)
     9ec:	3c010800 	lui	at,0x800
     9f0:	ac254d94 	sw	a1,19860(at)
     9f4:	3c010800 	lui	at,0x800
     9f8:	ac234d9c 	sw	v1,19868(at)
     9fc:	3c010800 	lui	at,0x800
     a00:	ac244da4 	sw	a0,19876(at)
     a04:	3c010800 	lui	at,0x800
     a08:	ac224da8 	sw	v0,19880(at)
     a0c:	3c010800 	lui	at,0x800
     a10:	ac234d3c 	sw	v1,19772(at)
     a14:	3c010800 	lui	at,0x800
     a18:	ac204d48 	sw	zero,19784(at)
     a1c:	3c010800 	lui	at,0x800
     a20:	ac204d4c 	sw	zero,19788(at)
     a24:	3c010800 	lui	at,0x800
     a28:	ac204d50 	sw	zero,19792(at)
     a2c:	3c010800 	lui	at,0x800
     a30:	ac204d54 	sw	zero,19796(at)
     a34:	3c010800 	lui	at,0x800
     a38:	ac204d58 	sw	zero,19800(at)
     a3c:	3c010800 	lui	at,0x800
     a40:	ac204d5c 	sw	zero,19804(at)
     a44:	3c010800 	lui	at,0x800
     a48:	ac204d60 	sw	zero,19808(at)
     a4c:	3c010800 	lui	at,0x800
     a50:	ac244d64 	sw	a0,19812(at)
     a54:	3c010800 	lui	at,0x800
     a58:	ac204d68 	sw	zero,19816(at)
     a5c:	3c010800 	lui	at,0x800
     a60:	ac204d6c 	sw	zero,19820(at)
     a64:	3c010800 	lui	at,0x800
     a68:	ac204d70 	sw	zero,19824(at)
     a6c:	3c010800 	lui	at,0x800
     a70:	ac204d74 	sw	zero,19828(at)
     a74:	3c010800 	lui	at,0x800
     a78:	ac204d78 	sw	zero,19832(at)
     a7c:	3c010800 	lui	at,0x800
     a80:	ac264d7c 	sw	a2,19836(at)
     a84:	3c010800 	lui	at,0x800
     a88:	ac264d80 	sw	a2,19840(at)
     a8c:	3c010800 	lui	at,0x800
     a90:	ac204d8c 	sw	zero,19852(at)
     a94:	3c010800 	lui	at,0x800
     a98:	ac254d90 	sw	a1,19856(at)
     a9c:	3c010800 	lui	at,0x800
     aa0:	ac234d98 	sw	v1,19864(at)
     aa4:	0e0006bb 	jal	0x8001aec
     aa8:	00000000 	nop
     aac:	3c028000 	lui	v0,0x8000
     ab0:	34420070 	ori	v0,v0,0x70
     ab4:	8c420000 	lw	v0,0(v0)
     ab8:	af820014 	sw	v0,20(gp)
     abc:	3c030800 	lui	v1,0x800
     ac0:	8c630020 	lw	v1,32(v1)
     ac4:	8f820004 	lw	v0,4(gp)
     ac8:	10430004 	beq	v0,v1,0xadc
     acc:	3c028000 	lui	v0,0x8000
     ad0:	0e0004f3 	jal	0x80013cc
     ad4:	af830004 	sw	v1,4(gp)
     ad8:	3c028000 	lui	v0,0x8000
     adc:	34460070 	ori	a2,v0,0x70
     ae0:	3c030800 	lui	v1,0x800
     ae4:	8c6300a0 	lw	v1,160(v1)
     ae8:	3c020800 	lui	v0,0x800
     aec:	8c4200a4 	lw	v0,164(v0)
     af0:	10430004 	beq	v0,v1,0xb04
     af4:	8f840014 	lw	a0,20(gp)
     af8:	3c010800 	lui	at,0x800
     afc:	ac2300a4 	sw	v1,164(at)
     b00:	a743009e 	sh	v1,158(k0)
     b04:	8cca0000 	lw	t2,0(a2)
     b08:	3c030800 	lui	v1,0x800
     b0c:	8c6300bc 	lw	v1,188(v1)
     b10:	3c020800 	lui	v0,0x800
     b14:	8c4200b8 	lw	v0,184(v0)
     b18:	01442023 	subu	a0,t2,a0
     b1c:	00641821 	addu	v1,v1,a0
     b20:	00004021 	move	t0,zero
     b24:	0064202b 	sltu	a0,v1,a0
     b28:	00481021 	addu	v0,v0,t0
     b2c:	00441021 	addu	v0,v0,a0
     b30:	3c010800 	lui	at,0x800
     b34:	ac2300bc 	sw	v1,188(at)
     b38:	3c010800 	lui	at,0x800
     b3c:	ac2200b8 	sw	v0,184(at)
     b40:	8f510000 	lw	s1,0(k0)
     b44:	32220007 	andi	v0,s1,0x7
     b48:	1040ffdc 	beqz	v0,0xabc
     b4c:	af8a0014 	sw	t2,20(gp)
     b50:	8cc60000 	lw	a2,0(a2)
     b54:	3c050800 	lui	a1,0x800
     b58:	8ca500bc 	lw	a1,188(a1)
     b5c:	3c040800 	lui	a0,0x800
     b60:	8c8400b8 	lw	a0,184(a0)
     b64:	00ca3023 	subu	a2,a2,t2
     b68:	00a62821 	addu	a1,a1,a2
     b6c:	00001021 	move	v0,zero
     b70:	00a6302b 	sltu	a2,a1,a2
     b74:	00822021 	addu	a0,a0,v0
     b78:	00862021 	addu	a0,a0,a2
     b7c:	32270001 	andi	a3,s1,0x1
     b80:	3c010800 	lui	at,0x800
     b84:	ac2500bc 	sw	a1,188(at)
     b88:	3c010800 	lui	at,0x800
     b8c:	ac2400b8 	sw	a0,184(at)
     b90:	10e0001f 	beqz	a3,0xc10
     b94:	32220002 	andi	v0,s1,0x2
     b98:	8f420100 	lw	v0,256(k0)
     b9c:	af420020 	sw	v0,32(k0)
     ba0:	8f420104 	lw	v0,260(k0)
     ba4:	af4200a8 	sw	v0,168(k0)
     ba8:	9342010b 	lbu	v0,267(k0)
     bac:	0e000188 	jal	0x8000620
     bb0:	305000ff 	andi	s0,v0,0xff
     bb4:	2e02001d 	sltiu	v0,s0,29
     bb8:	54400004 	bnezl	v0,0xbcc
     bbc:	00101080 	sll	v0,s0,0x2
     bc0:	0e00018b 	jal	0x800062c
     bc4:	0a0002c5 	j	0x8000b14
     bc8:	00000000 	nop
     bcc:	00521021 	addu	v0,v0,s2
     bd0:	8c420000 	lw	v0,0(v0)
     bd4:	0040f809 	jalr	v0
     bd8:	00000000 	nop
     bdc:	10400005 	beqz	v0,0xbf4
     be0:	3c024000 	lui	v0,0x4000
     be4:	8f430104 	lw	v1,260(k0)
     be8:	3c026020 	lui	v0,0x6020
     bec:	ac430014 	sw	v1,20(v0)
     bf0:	3c024000 	lui	v0,0x4000
     bf4:	af420138 	sw	v0,312(k0)
     bf8:	3c020800 	lui	v0,0x800
     bfc:	8c420034 	lw	v0,52(v0)
     c00:	24420001 	addiu	v0,v0,1
     c04:	3c010800 	lui	at,0x800
     c08:	ac220034 	sw	v0,52(at)
     c0c:	32220002 	andi	v0,s1,0x2
     c10:	1040000e 	beqz	v0,0xc4c
     c14:	32220004 	andi	v0,s1,0x4
     c18:	8f420140 	lw	v0,320(k0)
     c1c:	0e000188 	jal	0x8000620
     c20:	af420020 	sw	v0,32(k0)
     c24:	0e00034b 	jal	0x8000d2c
     c28:	00000000 	nop
     c2c:	3c024000 	lui	v0,0x4000
     c30:	af420178 	sw	v0,376(k0)
     c34:	3c020800 	lui	v0,0x800
     c38:	8c420038 	lw	v0,56(v0)
     c3c:	24420001 	addiu	v0,v0,1
     c40:	3c010800 	lui	at,0x800
     c44:	ac220038 	sw	v0,56(at)
     c48:	32220004 	andi	v0,s1,0x4
     c4c:	1040ff98 	beqz	v0,0xab0
     c50:	3c028000 	lui	v0,0x8000
     c54:	8f420180 	lw	v0,384(k0)
     c58:	0e000188 	jal	0x8000620
     c5c:	af420020 	sw	v0,32(k0)
     c60:	8f430180 	lw	v1,384(k0)
     c64:	24020f00 	li	v0,3840
     c68:	14620005 	bne	v1,v0,0xc80
     c6c:	00000000 	nop
     c70:	8f420188 	lw	v0,392(k0)
     c74:	a742009c 	sh	v0,156(k0)
     c78:	0a0002fa 	j	0x8000be8
     c7c:	3c024000 	lui	v0,0x4000
     c80:	93620000 	lbu	v0,0(k1)
     c84:	24030050 	li	v1,80
     c88:	304200ff 	andi	v0,v0,0xff
     c8c:	14430008 	bne	v0,v1,0xcb0
     c90:	3c024000 	lui	v0,0x4000
     c94:	0e00032d 	jal	0x8000cb4
     c98:	00000000 	nop
     c9c:	54400004 	bnezl	v0,0xcb0
     ca0:	3c024000 	lui	v0,0x4000
     ca4:	0e000e0d 	jal	0x8003834
     ca8:	00000000 	nop
     cac:	3c024000 	lui	v0,0x4000
     cb0:	af4201b8 	sw	v0,440(k0)
     cb4:	3c020800 	lui	v0,0x800
     cb8:	8c42003c 	lw	v0,60(v0)
     cbc:	24420001 	addiu	v0,v0,1
     cc0:	3c010800 	lui	at,0x800
     cc4:	ac22003c 	sw	v0,60(at)
     cc8:	0a00027a 	j	0x80009e8
     ccc:	3c028000 	lui	v0,0x8000
     cd0:	3c029000 	lui	v0,0x9000
     cd4:	34420001 	ori	v0,v0,0x1
     cd8:	00822025 	or	a0,a0,v0
     cdc:	af440020 	sw	a0,32(k0)
     ce0:	8f420020 	lw	v0,32(k0)
     ce4:	0440fffe 	bltz	v0,0xce0
     ce8:	00000000 	nop
     cec:	03e00008 	jr	ra
     cf0:	00000000 	nop
     cf4:	3c028000 	lui	v0,0x8000
     cf8:	34420001 	ori	v0,v0,0x1
     cfc:	00822025 	or	a0,a0,v0
     d00:	03e00008 	jr	ra
     d04:	af440020 	sw	a0,32(k0)
     d08:	27bdffe0 	addiu	sp,sp,-32
     d0c:	afb10014 	sw	s1,20(sp)
     d10:	afb00010 	sw	s0,16(sp)
     d14:	00808821 	move	s1,a0
     d18:	afbf0018 	sw	ra,24(sp)
     d1c:	0e000302 	jal	0x8000c08
     d20:	30b000ff 	andi	s0,a1,0xff
     d24:	9362007d 	lbu	v0,125(k1)
     d28:	02202021 	move	a0,s1
     d2c:	02028025 	or	s0,s0,v0
     d30:	a370007d 	sb	s0,125(k1)
     d34:	8f700074 	lw	s0,116(k1)
     d38:	3c028000 	lui	v0,0x8000
     d3c:	0e00030b 	jal	0x8000c2c
     d40:	02028024 	and	s0,s0,v0
     d44:	16000009 	bnez	s0,0xd6c
     d48:	8fbf0018 	lw	ra,24(sp)
     d4c:	8f4201f8 	lw	v0,504(k0)
     d50:	0440fffe 	bltz	v0,0xd4c
     d54:	24020002 	li	v0,2
     d58:	af5101c0 	sw	s1,448(k0)
     d5c:	a34201c4 	sb	v0,452(k0)
     d60:	3c021000 	lui	v0,0x1000
     d64:	af4201f8 	sw	v0,504(k0)
     d68:	8fbf0018 	lw	ra,24(sp)
     d6c:	8fb10014 	lw	s1,20(sp)
     d70:	8fb00010 	lw	s0,16(sp)
     d74:	03e00008 	jr	ra
     d78:	27bd0020 	addiu	sp,sp,32
     d7c:	27bdffe8 	addiu	sp,sp,-24
     d80:	afbf0010 	sw	ra,16(sp)
     d84:	97420184 	lhu	v0,388(k0)
     d88:	30420200 	andi	v0,v0,0x200
     d8c:	10400005 	beqz	v0,0xda4
     d90:	00002021 	move	a0,zero
     d94:	0e001042 	jal	0x8004108
     d98:	00000000 	nop
     d9c:	0a000341 	j	0x8000d04
     da0:	24040001 	li	a0,1
     da4:	8f420188 	lw	v0,392(k0)
     da8:	04400009 	bltz	v0,0xdd0
     dac:	8fbf0010 	lw	ra,16(sp)
     db0:	8f420188 	lw	v0,392(k0)
     db4:	3c03ff00 	lui	v1,0xff00
     db8:	00431024 	and	v0,v0,v1
     dbc:	3c030400 	lui	v1,0x400
     dc0:	14430003 	bne	v0,v1,0xdd0
     dc4:	24040001 	li	a0,1
     dc8:	9362003e 	lbu	v0,62(k1)
     dcc:	8fbf0010 	lw	ra,16(sp)
     dd0:	00801021 	move	v0,a0
     dd4:	03e00008 	jr	ra
     dd8:	27bd0018 	addiu	sp,sp,24
     ddc:	24020001 	li	v0,1
     de0:	a3600022 	sb	zero,34(k1)
     de4:	a7620016 	sh	v0,22(k1)
     de8:	8f440140 	lw	a0,320(k0)
     dec:	0a000310 	j	0x8000c40
     df0:	24050001 	li	a1,1
     df4:	27bdffe8 	addiu	sp,sp,-24
     df8:	afbf0014 	sw	ra,20(sp)
     dfc:	afb00010 	sw	s0,16(sp)
     e00:	93620000 	lbu	v0,0(k1)
     e04:	304400ff 	andi	a0,v0,0xff
     e08:	38830020 	xori	v1,a0,0x20
     e0c:	38820030 	xori	v0,a0,0x30
     e10:	0003182b 	sltu	v1,zero,v1
     e14:	0002102b 	sltu	v0,zero,v0
     e18:	00621824 	and	v1,v1,v0
     e1c:	10600003 	beqz	v1,0xe2c
     e20:	24020050 	li	v0,80
     e24:	14820062 	bne	a0,v0,0xfb0
     e28:	8fbf0014 	lw	ra,20(sp)
     e2c:	93420148 	lbu	v0,328(k0)
     e30:	304200ff 	andi	v0,v0,0xff
     e34:	2443ffff 	addiu	v1,v0,-1
     e38:	2c620005 	sltiu	v0,v1,5
     e3c:	1040005c 	beqz	v0,0xfb0
     e40:	8fbf0014 	lw	ra,20(sp)
     e44:	00031080 	sll	v0,v1,0x2
     e48:	3c030800 	lui	v1,0x800
     e4c:	24634cc8 	addiu	v1,v1,19656
     e50:	00431021 	addu	v0,v0,v1
     e54:	8c420000 	lw	v0,0(v0)
     e58:	00400008 	jr	v0
     e5c:	00000000 	nop
     e60:	0e000302 	jal	0x8000c08
     e64:	8f440140 	lw	a0,320(k0)
     e68:	8f70000c 	lw	s0,12(k1)
     e6c:	8f420144 	lw	v0,324(k0)
     e70:	16020002 	bne	s0,v0,0xe7c
     e74:	24020001 	li	v0,1
     e78:	af62000c 	sw	v0,12(k1)
     e7c:	0e00030b 	jal	0x8000c2c
     e80:	8f440140 	lw	a0,320(k0)
     e84:	8f420144 	lw	v0,324(k0)
     e88:	14500004 	bne	v0,s0,0xe9c
     e8c:	8fbf0014 	lw	ra,20(sp)
     e90:	8fb00010 	lw	s0,16(sp)
     e94:	0a000fb8 	j	0x8003ee0
     e98:	27bd0018 	addiu	sp,sp,24
     e9c:	8f62000c 	lw	v0,12(k1)
     ea0:	0a0003b3 	j	0x8000ecc
     ea4:	00000000 	nop
     ea8:	97620010 	lhu	v0,16(k1)
     eac:	8f430144 	lw	v1,324(k0)
     eb0:	3042ffff 	andi	v0,v0,0xffff
     eb4:	14620009 	bne	v1,v0,0xedc
     eb8:	00000000 	nop
     ebc:	24020001 	li	v0,1
     ec0:	a7620010 	sh	v0,16(k1)
     ec4:	8f420140 	lw	v0,320(k0)
     ec8:	af420200 	sw	v0,512(k0)
     ecc:	3c021000 	lui	v0,0x1000
     ed0:	af420238 	sw	v0,568(k0)
     ed4:	0a0003ba 	j	0x8000ee8
     ed8:	8fbf0014 	lw	ra,20(sp)
     edc:	97620010 	lhu	v0,16(k1)
     ee0:	0a0003b3 	j	0x8000ecc
     ee4:	00000000 	nop
     ee8:	0e000302 	jal	0x8000c08
     eec:	8f440140 	lw	a0,320(k0)
     ef0:	97620012 	lhu	v0,18(k1)
     ef4:	8f430144 	lw	v1,324(k0)
     ef8:	3050ffff 	andi	s0,v0,0xffff
     efc:	16030002 	bne	s0,v1,0xf08
     f00:	24020001 	li	v0,1
     f04:	a7620012 	sh	v0,18(k1)
     f08:	0e00030b 	jal	0x8000c2c
     f0c:	8f440140 	lw	a0,320(k0)
     f10:	8f420144 	lw	v0,324(k0)
     f14:	16020004 	bne	s0,v0,0xf28
     f18:	8fbf0014 	lw	ra,20(sp)
     f1c:	8fb00010 	lw	s0,16(sp)
     f20:	0a000345 	j	0x8000d14
     f24:	27bd0018 	addiu	sp,sp,24
     f28:	97620012 	lhu	v0,18(k1)
     f2c:	0a0003b3 	j	0x8000ecc
     f30:	00000000 	nop
     f34:	97620014 	lhu	v0,20(k1)
     f38:	8f430144 	lw	v1,324(k0)
     f3c:	3042ffff 	andi	v0,v0,0xffff
     f40:	14620006 	bne	v1,v0,0xf5c
     f44:	8fbf0014 	lw	ra,20(sp)
     f48:	24020001 	li	v0,1
     f4c:	8fb00010 	lw	s0,16(sp)
     f50:	a7620014 	sh	v0,20(k1)
     f54:	0a0012e2 	j	0x8004b88
     f58:	27bd0018 	addiu	sp,sp,24
     f5c:	97620014 	lhu	v0,20(k1)
     f60:	0a0003b3 	j	0x8000ecc
     f64:	00000000 	nop
     f68:	97620016 	lhu	v0,22(k1)
     f6c:	8f430144 	lw	v1,324(k0)
     f70:	3042ffff 	andi	v0,v0,0xffff
     f74:	14620006 	bne	v1,v0,0xf90
     f78:	24020001 	li	v0,1
     f7c:	8fbf0014 	lw	ra,20(sp)
     f80:	8fb00010 	lw	s0,16(sp)
     f84:	a7620016 	sh	v0,22(k1)
     f88:	0a000baa 	j	0x8002ea8
     f8c:	27bd0018 	addiu	sp,sp,24
     f90:	97620016 	lhu	v0,22(k1)
     f94:	14400006 	bnez	v0,0xfb0
     f98:	8fbf0014 	lw	ra,20(sp)
     f9c:	3c020800 	lui	v0,0x800
     fa0:	8c420070 	lw	v0,112(v0)
     fa4:	24420001 	addiu	v0,v0,1
     fa8:	3c010800 	lui	at,0x800
     fac:	ac220070 	sw	v0,112(at)
     fb0:	8fb00010 	lw	s0,16(sp)
     fb4:	03e00008 	jr	ra
     fb8:	27bd0018 	addiu	sp,sp,24
     fbc:	27bdffe8 	addiu	sp,sp,-24
     fc0:	afbf0014 	sw	ra,20(sp)
     fc4:	afb00010 	sw	s0,16(sp)
     fc8:	8f500100 	lw	s0,256(k0)
     fcc:	93620000 	lbu	v0,0(k1)
     fd0:	93430109 	lbu	v1,265(k0)
     fd4:	304400ff 	andi	a0,v0,0xff
     fd8:	2402001f 	li	v0,31
     fdc:	106200a5 	beq	v1,v0,0x1274
     fe0:	28620020 	slti	v0,v1,32
     fe4:	10400018 	beqz	v0,0x1048
     fe8:	24020038 	li	v0,56
     fec:	2862000a 	slti	v0,v1,10
     ff0:	1040000c 	beqz	v0,0x1024
     ff4:	2402000b 	li	v0,11
     ff8:	28620008 	slti	v0,v1,8
     ffc:	1040002c 	beqz	v0,0x10b0
    1000:	00000000 	nop
    1004:	046000e5 	bltz	v1,0x139c
    1008:	28620002 	slti	v0,v1,2
    100c:	14400028 	bnez	v0,0x10b0
    1010:	24020006 	li	v0,6
    1014:	10620026 	beq	v1,v0,0x10b0
    1018:	8fbf0014 	lw	ra,20(sp)
    101c:	0a0004b7 	j	0x80012dc
    1020:	8fb00010 	lw	s0,16(sp)
    1024:	1062005e 	beq	v1,v0,0x11a0
    1028:	2862000b 	slti	v0,v1,11
    102c:	144000dc 	bnez	v0,0x13a0
    1030:	8fbf0014 	lw	ra,20(sp)
    1034:	2402000e 	li	v0,14
    1038:	10620073 	beq	v1,v0,0x1208
    103c:	8fb00010 	lw	s0,16(sp)
    1040:	0a0004b7 	j	0x80012dc
    1044:	00000000 	nop
    1048:	106200c0 	beq	v1,v0,0x134c
    104c:	28620039 	slti	v0,v1,57
    1050:	1040000a 	beqz	v0,0x107c
    1054:	24020080 	li	v0,128
    1058:	24020036 	li	v0,54
    105c:	106200ca 	beq	v1,v0,0x1388
    1060:	28620037 	slti	v0,v1,55
    1064:	104000b4 	beqz	v0,0x1338
    1068:	24020035 	li	v0,53
    106c:	106200c1 	beq	v1,v0,0x1374
    1070:	8fbf0014 	lw	ra,20(sp)
    1074:	0a0004b7 	j	0x80012dc
    1078:	8fb00010 	lw	s0,16(sp)
    107c:	1062002b 	beq	v1,v0,0x112c
    1080:	28620081 	slti	v0,v1,129
    1084:	10400006 	beqz	v0,0x10a0
    1088:	240200c8 	li	v0,200
    108c:	24020039 	li	v0,57
    1090:	106200b4 	beq	v1,v0,0x1364
    1094:	8fbf0014 	lw	ra,20(sp)
    1098:	0a0004b7 	j	0x80012dc
    109c:	8fb00010 	lw	s0,16(sp)
    10a0:	10620099 	beq	v1,v0,0x1308
    10a4:	8fbf0014 	lw	ra,20(sp)
    10a8:	0a0004b7 	j	0x80012dc
    10ac:	8fb00010 	lw	s0,16(sp)
    10b0:	3c020800 	lui	v0,0x800
    10b4:	8c420020 	lw	v0,32(v0)
    10b8:	104000b9 	beqz	v0,0x13a0
    10bc:	8fbf0014 	lw	ra,20(sp)
    10c0:	0e00052b 	jal	0x80014ac
    10c4:	00000000 	nop
    10c8:	8f420100 	lw	v0,256(k0)
    10cc:	8f830020 	lw	v1,32(gp)
    10d0:	9745010c 	lhu	a1,268(k0)
    10d4:	97460108 	lhu	a2,264(k0)
    10d8:	ac620000 	sw	v0,0(v1)
    10dc:	8f420104 	lw	v0,260(k0)
    10e0:	3c040800 	lui	a0,0x800
    10e4:	94844dbe 	lhu	a0,19902(a0)
    10e8:	00052c00 	sll	a1,a1,0x10
    10ec:	ac620004 	sw	v0,4(v1)
    10f0:	8f420118 	lw	v0,280(k0)
    10f4:	00063400 	sll	a2,a2,0x10
    10f8:	00c43025 	or	a2,a2,a0
    10fc:	ac620008 	sw	v0,8(v1)
    1100:	8f42011c 	lw	v0,284(k0)
    1104:	24040001 	li	a0,1
    1108:	ac62000c 	sw	v0,12(v1)
    110c:	9342010a 	lbu	v0,266(k0)
    1110:	00a22825 	or	a1,a1,v0
    1114:	ac650010 	sw	a1,16(v1)
    1118:	ac600014 	sw	zero,20(v1)
    111c:	ac600018 	sw	zero,24(v1)
    1120:	ac66001c 	sw	a2,28(v1)
    1124:	0a00048d 	j	0x8001234
    1128:	8fbf0014 	lw	ra,20(sp)
    112c:	3c020800 	lui	v0,0x800
    1130:	8c420020 	lw	v0,32(v0)
    1134:	1040009a 	beqz	v0,0x13a0
    1138:	8fbf0014 	lw	ra,20(sp)
    113c:	0e00052b 	jal	0x80014ac
    1140:	00000000 	nop
    1144:	97440108 	lhu	a0,264(k0)
    1148:	3c030800 	lui	v1,0x800
    114c:	94634dbe 	lhu	v1,19902(v1)
    1150:	9745010c 	lhu	a1,268(k0)
    1154:	00042202 	srl	a0,a0,0x8
    1158:	9746010e 	lhu	a2,270(k0)
    115c:	8f820020 	lw	v0,32(gp)
    1160:	00042600 	sll	a0,a0,0x18
    1164:	00832025 	or	a0,a0,v1
    1168:	00052c00 	sll	a1,a1,0x10
    116c:	3c030080 	lui	v1,0x80
    1170:	00a62825 	or	a1,a1,a2
    1174:	00832025 	or	a0,a0,v1
    1178:	ac400000 	sw	zero,0(v0)
    117c:	ac400004 	sw	zero,4(v0)
    1180:	ac400008 	sw	zero,8(v0)
    1184:	ac40000c 	sw	zero,12(v0)
    1188:	ac450010 	sw	a1,16(v0)
    118c:	ac400014 	sw	zero,20(v0)
    1190:	ac400018 	sw	zero,24(v0)
    1194:	ac44001c 	sw	a0,28(v0)
    1198:	0a00048c 	j	0x8001230
    119c:	24040001 	li	a0,1
    11a0:	9742010c 	lhu	v0,268(k0)
    11a4:	14400015 	bnez	v0,0x11fc
    11a8:	00000000 	nop
    11ac:	93620005 	lbu	v0,5(k1)
    11b0:	30420010 	andi	v0,v0,0x10
    11b4:	14400011 	bnez	v0,0x11fc
    11b8:	00000000 	nop
    11bc:	0e000302 	jal	0x8000c08
    11c0:	02002021 	move	a0,s0
    11c4:	93620005 	lbu	v0,5(k1)
    11c8:	02002021 	move	a0,s0
    11cc:	34420010 	ori	v0,v0,0x10
    11d0:	0e00030b 	jal	0x8000c2c
    11d4:	a3620005 	sb	v0,5(k1)
    11d8:	93620000 	lbu	v0,0(k1)
    11dc:	24030020 	li	v1,32
    11e0:	304200ff 	andi	v0,v0,0xff
    11e4:	1043006d 	beq	v0,v1,0x139c
    11e8:	02002021 	move	a0,s0
    11ec:	8fbf0014 	lw	ra,20(sp)
    11f0:	8fb00010 	lw	s0,16(sp)
    11f4:	0a001058 	j	0x8004160
    11f8:	27bd0018 	addiu	sp,sp,24
    11fc:	0000000d 	break
    1200:	0a0004b6 	j	0x80012d8
    1204:	8fbf0014 	lw	ra,20(sp)
    1208:	3c020800 	lui	v0,0x800
    120c:	8c420020 	lw	v0,32(v0)
    1210:	10400063 	beqz	v0,0x13a0
    1214:	8fbf0014 	lw	ra,20(sp)
    1218:	0e00052b 	jal	0x80014ac
    121c:	00000000 	nop
    1220:	8f420104 	lw	v0,260(k0)
    1224:	8f830020 	lw	v1,32(gp)
    1228:	9744010c 	lhu	a0,268(k0)
    122c:	3c050800 	lui	a1,0x800
    1230:	94a54dbe 	lhu	a1,19902(a1)
    1234:	ac620000 	sw	v0,0(v1)
    1238:	9762002c 	lhu	v0,44(k1)
    123c:	00042400 	sll	a0,a0,0x10
    1240:	3042ffff 	andi	v0,v0,0xffff
    1244:	00822025 	or	a0,a0,v0
    1248:	3c02400e 	lui	v0,0x400e
    124c:	00a22825 	or	a1,a1,v0
    1250:	ac640004 	sw	a0,4(v1)
    1254:	ac600008 	sw	zero,8(v1)
    1258:	ac60000c 	sw	zero,12(v1)
    125c:	ac600010 	sw	zero,16(v1)
    1260:	ac600014 	sw	zero,20(v1)
    1264:	ac600018 	sw	zero,24(v1)
    1268:	ac65001c 	sw	a1,28(v1)
    126c:	0a00048c 	j	0x8001230
    1270:	24040001 	li	a0,1
    1274:	0e000302 	jal	0x8000c08
    1278:	02002021 	move	a0,s0
    127c:	a7600008 	sh	zero,8(k1)
    1280:	0e00030b 	jal	0x8000c2c
    1284:	02002021 	move	a0,s0
    1288:	02002021 	move	a0,s0
    128c:	0e000310 	jal	0x8000c40
    1290:	24050001 	li	a1,1
    1294:	3c020800 	lui	v0,0x800
    1298:	8c420020 	lw	v0,32(v0)
    129c:	10400040 	beqz	v0,0x13a0
    12a0:	8fbf0014 	lw	ra,20(sp)
    12a4:	0e00052b 	jal	0x80014ac
    12a8:	00000000 	nop
    12ac:	9742010c 	lhu	v0,268(k0)
    12b0:	8f830020 	lw	v1,32(gp)
    12b4:	3c050800 	lui	a1,0x800
    12b8:	94a54dbe 	lhu	a1,19902(a1)
    12bc:	00021400 	sll	v0,v0,0x10
    12c0:	ac700000 	sw	s0,0(v1)
    12c4:	ac620004 	sw	v0,4(v1)
    12c8:	ac600008 	sw	zero,8(v1)
    12cc:	8f64004c 	lw	a0,76(k1)
    12d0:	3c02401f 	lui	v0,0x401f
    12d4:	00a22825 	or	a1,a1,v0
    12d8:	ac64000c 	sw	a0,12(v1)
    12dc:	8f620050 	lw	v0,80(k1)
    12e0:	24040001 	li	a0,1
    12e4:	ac620010 	sw	v0,16(v1)
    12e8:	8f620054 	lw	v0,84(k1)
    12ec:	ac620014 	sw	v0,20(v1)
    12f0:	ac600018 	sw	zero,24(v1)
    12f4:	ac65001c 	sw	a1,28(v1)
    12f8:	8fbf0014 	lw	ra,20(sp)
    12fc:	8fb00010 	lw	s0,16(sp)
    1300:	0a000550 	j	0x8001540
    1304:	27bd0018 	addiu	sp,sp,24
    1308:	24020020 	li	v0,32
    130c:	50820025 	beql	a0,v0,0x13a4
    1310:	8fb00010 	lw	s0,16(sp)
    1314:	0e000fa2 	jal	0x8003e88
    1318:	02002021 	move	a0,s0
    131c:	10400020 	beqz	v0,0x13a0
    1320:	8fbf0014 	lw	ra,20(sp)
    1324:	02002021 	move	a0,s0
    1328:	8fb00010 	lw	s0,16(sp)
    132c:	00002821 	move	a1,zero
    1330:	0a000310 	j	0x8000c40
    1334:	27bd0018 	addiu	sp,sp,24
    1338:	02002021 	move	a0,s0
    133c:	8fbf0014 	lw	ra,20(sp)
    1340:	8fb00010 	lw	s0,16(sp)
    1344:	0a000618 	j	0x8001860
    1348:	27bd0018 	addiu	sp,sp,24
    134c:	9745010c 	lhu	a1,268(k0)
    1350:	02002021 	move	a0,s0
    1354:	8fbf0014 	lw	ra,20(sp)
    1358:	8fb00010 	lw	s0,16(sp)
    135c:	0a000638 	j	0x80018e0
    1360:	27bd0018 	addiu	sp,sp,24
    1364:	02002021 	move	a0,s0
    1368:	8fb00010 	lw	s0,16(sp)
    136c:	0a00065d 	j	0x8001974
    1370:	27bd0018 	addiu	sp,sp,24
    1374:	9345010d 	lbu	a1,269(k0)
    1378:	02002021 	move	a0,s0
    137c:	8fb00010 	lw	s0,16(sp)
    1380:	0a0006a7 	j	0x8001a9c
    1384:	27bd0018 	addiu	sp,sp,24
    1388:	02002021 	move	a0,s0
    138c:	8fbf0014 	lw	ra,20(sp)
    1390:	8fb00010 	lw	s0,16(sp)
    1394:	0a000683 	j	0x8001a0c
    1398:	27bd0018 	addiu	sp,sp,24
    139c:	8fbf0014 	lw	ra,20(sp)
    13a0:	8fb00010 	lw	s0,16(sp)
    13a4:	03e00008 	jr	ra
    13a8:	27bd0018 	addiu	sp,sp,24
    13ac:	8f420278 	lw	v0,632(k0)
    13b0:	0440fffe 	bltz	v0,0x13ac
    13b4:	24020002 	li	v0,2
    13b8:	34840080 	ori	a0,a0,0x80
    13bc:	af440240 	sw	a0,576(k0)
    13c0:	a3420244 	sb	v0,580(k0)
    13c4:	3c021000 	lui	v0,0x1000
    13c8:	03e00008 	jr	ra
    13cc:	af420278 	sw	v0,632(k0)
    13d0:	3c040800 	lui	a0,0x800
    13d4:	94844dca 	lhu	a0,19914(a0)
    13d8:	3c020800 	lui	v0,0x800
    13dc:	8c424dd4 	lw	v0,19924(v0)
    13e0:	3083ffff 	andi	v1,a0,0xffff
    13e4:	000318c0 	sll	v1,v1,0x3
    13e8:	00431021 	addu	v0,v0,v1
    13ec:	af42003c 	sw	v0,60(k0)
    13f0:	3c020800 	lui	v0,0x800
    13f4:	8c424dd0 	lw	v0,19920(v0)
    13f8:	af420038 	sw	v0,56(k0)
    13fc:	3c020050 	lui	v0,0x50
    1400:	34420008 	ori	v0,v0,0x8
    1404:	af420030 	sw	v0,48(k0)
	...
    1414:	8f420000 	lw	v0,0(k0)
    1418:	30420020 	andi	v0,v0,0x20
    141c:	1040fffd 	beqz	v0,0x1414
    1420:	00000000 	nop
    1424:	8f420400 	lw	v0,1024(k0)
    1428:	3c010800 	lui	at,0x800
    142c:	ac224dc0 	sw	v0,19904(at)
    1430:	8f420404 	lw	v0,1028(k0)
    1434:	3c010800 	lui	at,0x800
    1438:	ac224dc4 	sw	v0,19908(at)
    143c:	3c020020 	lui	v0,0x20
    1440:	af420030 	sw	v0,48(k0)
    1444:	00000000 	nop
    1448:	3c020800 	lui	v0,0x800
    144c:	94424dc8 	lhu	v0,19912(v0)
    1450:	3c030800 	lui	v1,0x800
    1454:	94634dcc 	lhu	v1,19916(v1)
    1458:	3c050800 	lui	a1,0x800
    145c:	94a54dce 	lhu	a1,19918(a1)
    1460:	24840001 	addiu	a0,a0,1
    1464:	00431021 	addu	v0,v0,v1
    1468:	3083ffff 	andi	v1,a0,0xffff
    146c:	3c010800 	lui	at,0x800
    1470:	a4224dc8 	sh	v0,19912(at)
    1474:	3c010800 	lui	at,0x800
    1478:	a4244dca 	sh	a0,19914(at)
    147c:	14650003 	bne	v1,a1,0x148c
    1480:	00000000 	nop
    1484:	3c010800 	lui	at,0x800
    1488:	a4204dca 	sh	zero,19914(at)
    148c:	03e00008 	jr	ra
    1490:	00000000 	nop
    1494:	3c05000a 	lui	a1,0xa
    1498:	27bdffe8 	addiu	sp,sp,-24
    149c:	03452821 	addu	a1,k0,a1
    14a0:	3c040800 	lui	a0,0x800
    14a4:	24844db0 	addiu	a0,a0,19888
    14a8:	afbf0010 	sw	ra,16(sp)
    14ac:	0e0005b5 	jal	0x80016d4
    14b0:	2406000a 	li	a2,10
    14b4:	3c020800 	lui	v0,0x800
    14b8:	94424db2 	lhu	v0,19890(v0)
    14bc:	3c030800 	lui	v1,0x800
    14c0:	94634dce 	lhu	v1,19918(v1)
    14c4:	3042000f 	andi	v0,v0,0xf
    14c8:	24420003 	addiu	v0,v0,3
    14cc:	00431804 	sllv	v1,v1,v0
    14d0:	24027fff 	li	v0,32767
    14d4:	0043102b 	sltu	v0,v0,v1
    14d8:	10400002 	beqz	v0,0x14e4
    14dc:	af83001c 	sw	v1,28(gp)
    14e0:	0000000d 	break
    14e4:	0e0004c2 	jal	0x8001308
    14e8:	00000000 	nop
    14ec:	3c020800 	lui	v0,0x800
    14f0:	94424dba 	lhu	v0,19898(v0)
    14f4:	8fbf0010 	lw	ra,16(sp)
    14f8:	27bd0018 	addiu	sp,sp,24
    14fc:	03e00008 	jr	ra
    1500:	a74200a2 	sh	v0,162(k0)
    1504:	3c02000a 	lui	v0,0xa
    1508:	03421021 	addu	v0,k0,v0
    150c:	94430006 	lhu	v1,6(v0)
    1510:	3c020800 	lui	v0,0x800
    1514:	94424dba 	lhu	v0,19898(v0)
    1518:	3c010800 	lui	at,0x800
    151c:	a4234db6 	sh	v1,19894(at)
    1520:	00431023 	subu	v0,v0,v1
    1524:	8f83001c 	lw	v1,28(gp)
    1528:	00021400 	sll	v0,v0,0x10
    152c:	00021403 	sra	v0,v0,0x10
    1530:	0043102b 	sltu	v0,v0,v1
    1534:	03e00008 	jr	ra
    1538:	38420001 	xori	v0,v0,0x1
    153c:	27bdffe8 	addiu	sp,sp,-24
    1540:	afbf0010 	sw	ra,16(sp)
    1544:	3c02000a 	lui	v0,0xa
    1548:	03421021 	addu	v0,k0,v0
    154c:	94420006 	lhu	v0,6(v0)
    1550:	3c010800 	lui	at,0x800
    1554:	a4224db6 	sh	v0,19894(at)
    1558:	0e00050f 	jal	0x800143c
    155c:	00000000 	nop
    1560:	5440fff9 	bnezl	v0,0x1548
    1564:	3c02000a 	lui	v0,0xa
    1568:	8fbf0010 	lw	ra,16(sp)
    156c:	03e00008 	jr	ra
    1570:	27bd0018 	addiu	sp,sp,24
    1574:	27bdffe8 	addiu	sp,sp,-24
    1578:	afbf0010 	sw	ra,16(sp)
    157c:	0e00050f 	jal	0x800143c
    1580:	00000000 	nop
    1584:	10400003 	beqz	v0,0x1594
    1588:	00000000 	nop
    158c:	0e00051d 	jal	0x8001474
    1590:	00000000 	nop
    1594:	3c020800 	lui	v0,0x800
    1598:	8c424dc0 	lw	v0,19904(v0)
    159c:	8fbf0010 	lw	ra,16(sp)
    15a0:	27430400 	addiu	v1,k0,1024
    15a4:	af420038 	sw	v0,56(k0)
    15a8:	3c020800 	lui	v0,0x800
    15ac:	8c424dc4 	lw	v0,19908(v0)
    15b0:	27bd0018 	addiu	sp,sp,24
    15b4:	af830020 	sw	v1,32(gp)
    15b8:	af42003c 	sw	v0,60(k0)
    15bc:	3c020005 	lui	v0,0x5
    15c0:	af420030 	sw	v0,48(k0)
    15c4:	03e00008 	jr	ra
    15c8:	af800018 	sw	zero,24(gp)
    15cc:	8f820018 	lw	v0,24(gp)
    15d0:	3c030006 	lui	v1,0x6
    15d4:	00021140 	sll	v0,v0,0x5
    15d8:	00431025 	or	v0,v0,v1
    15dc:	af420030 	sw	v0,48(k0)
	...
    15ec:	8f420000 	lw	v0,0(k0)
    15f0:	30420010 	andi	v0,v0,0x10
    15f4:	1040fffd 	beqz	v0,0x15ec
    15f8:	27420400 	addiu	v0,k0,1024
    15fc:	af820020 	sw	v0,32(gp)
    1600:	03e00008 	jr	ra
    1604:	af800018 	sw	zero,24(gp)
    1608:	3c060800 	lui	a2,0x800
    160c:	8cc64dc4 	lw	a2,19908(a2)
    1610:	8f850018 	lw	a1,24(gp)
    1614:	8f830020 	lw	v1,32(gp)
    1618:	3c020800 	lui	v0,0x800
    161c:	94424dba 	lhu	v0,19898(v0)
    1620:	27bdffe0 	addiu	sp,sp,-32
    1624:	24a50001 	addiu	a1,a1,1
    1628:	24630020 	addiu	v1,v1,32
    162c:	24420001 	addiu	v0,v0,1
    1630:	24c70020 	addiu	a3,a2,32
    1634:	afb10014 	sw	s1,20(sp)
    1638:	afb00010 	sw	s0,16(sp)
    163c:	afbf0018 	sw	ra,24(sp)
    1640:	af850018 	sw	a1,24(gp)
    1644:	af830020 	sw	v1,32(gp)
    1648:	3c010800 	lui	at,0x800
    164c:	a4224dba 	sh	v0,19898(at)
    1650:	309000ff 	andi	s0,a0,0xff
    1654:	3c010800 	lui	at,0x800
    1658:	ac274dc4 	sw	a3,19908(at)
    165c:	04c10008 	bgez	a2,0x1680
    1660:	00008821 	move	s1,zero
    1664:	04e00006 	bltz	a3,0x1680
    1668:	00000000 	nop
    166c:	3c020800 	lui	v0,0x800
    1670:	8c424dc0 	lw	v0,19904(v0)
    1674:	24420001 	addiu	v0,v0,1
    1678:	3c010800 	lui	at,0x800
    167c:	ac224dc0 	sw	v0,19904(at)
    1680:	3c020800 	lui	v0,0x800
    1684:	94424dba 	lhu	v0,19898(v0)
    1688:	3c030800 	lui	v1,0x800
    168c:	94634dc8 	lhu	v1,19912(v1)
    1690:	0010202b 	sltu	a0,zero,s0
    1694:	00431026 	xor	v0,v0,v1
    1698:	2c420001 	sltiu	v0,v0,1
    169c:	00441025 	or	v0,v0,a0
    16a0:	14400004 	bnez	v0,0x16b4
    16a4:	8f830018 	lw	v1,24(gp)
    16a8:	24020010 	li	v0,16
    16ac:	1462000f 	bne	v1,v0,0x16ec
    16b0:	00000000 	nop
    16b4:	0e000541 	jal	0x8001504
    16b8:	24110001 	li	s1,1
    16bc:	3c030800 	lui	v1,0x800
    16c0:	94634dba 	lhu	v1,19898(v1)
    16c4:	3c020800 	lui	v0,0x800
    16c8:	94424dc8 	lhu	v0,19912(v0)
    16cc:	14620003 	bne	v1,v0,0x16dc
    16d0:	00000000 	nop
    16d4:	0e0004c2 	jal	0x8001308
    16d8:	00000000 	nop
    16dc:	16000003 	bnez	s0,0x16ec
    16e0:	00000000 	nop
    16e4:	0e00052b 	jal	0x80014ac
    16e8:	00000000 	nop
    16ec:	3c030800 	lui	v1,0x800
    16f0:	94634dbe 	lhu	v1,19902(v1)
    16f4:	3c020800 	lui	v0,0x800
    16f8:	94424dbc 	lhu	v0,19900(v0)
    16fc:	24630001 	addiu	v1,v1,1
    1700:	3064ffff 	andi	a0,v1,0xffff
    1704:	3c010800 	lui	at,0x800
    1708:	a4234dbe 	sh	v1,19902(at)
    170c:	14820003 	bne	a0,v0,0x171c
    1710:	00000000 	nop
    1714:	3c010800 	lui	at,0x800
    1718:	a4204dbe 	sh	zero,19902(at)
    171c:	12000006 	beqz	s0,0x1738
    1720:	00000000 	nop
    1724:	3c020800 	lui	v0,0x800
    1728:	94424dba 	lhu	v0,19898(v0)
    172c:	a74200a2 	sh	v0,162(k0)
    1730:	0a0005a3 	j	0x800168c
    1734:	02201021 	move	v0,s1
    1738:	0e00050f 	jal	0x800143c
    173c:	00000000 	nop
    1740:	10400004 	beqz	v0,0x1754
    1744:	02201021 	move	v0,s1
    1748:	0e00051d 	jal	0x8001474
    174c:	00000000 	nop
    1750:	02201021 	move	v0,s1
    1754:	8fbf0018 	lw	ra,24(sp)
    1758:	8fb10014 	lw	s1,20(sp)
    175c:	8fb00010 	lw	s0,16(sp)
    1760:	03e00008 	jr	ra
    1764:	27bd0020 	addiu	sp,sp,32
    1768:	3084ffff 	andi	a0,a0,0xffff
    176c:	30a5ffff 	andi	a1,a1,0xffff
    1770:	00001821 	move	v1,zero
    1774:	10800007 	beqz	a0,0x1794
    1778:	00000000 	nop
    177c:	30820001 	andi	v0,a0,0x1
    1780:	10400002 	beqz	v0,0x178c
    1784:	00042042 	srl	a0,a0,0x1
    1788:	00651821 	addu	v1,v1,a1
    178c:	0a0005ab 	j	0x80016ac
    1790:	00052840 	sll	a1,a1,0x1
    1794:	03e00008 	jr	ra
    1798:	00601021 	move	v0,v1
    179c:	10c00006 	beqz	a2,0x17b8
    17a0:	24c6ffff 	addiu	a2,a2,-1
    17a4:	8ca20000 	lw	v0,0(a1)
    17a8:	24a50004 	addiu	a1,a1,4
    17ac:	ac820000 	sw	v0,0(a0)
    17b0:	0a0005b5 	j	0x80016d4
    17b4:	24840004 	addiu	a0,a0,4
    17b8:	03e00008 	jr	ra
    17bc:	00000000 	nop
    17c0:	10a00008 	beqz	a1,0x17e4
    17c4:	24a3ffff 	addiu	v1,a1,-1
    17c8:	ac860000 	sw	a2,0(a0)
	...
    17d4:	2402ffff 	li	v0,-1
    17d8:	2463ffff 	addiu	v1,v1,-1
    17dc:	1462fffa 	bne	v1,v0,0x17c8
    17e0:	24840004 	addiu	a0,a0,4
    17e4:	03e00008 	jr	ra
    17e8:	00000000 	nop
    17ec:	24020001 	li	v0,1
    17f0:	af62000c 	sw	v0,12(k1)
    17f4:	a7620010 	sh	v0,16(k1)
    17f8:	a7620012 	sh	v0,18(k1)
    17fc:	a7620014 	sh	v0,20(k1)
    1800:	03e00008 	jr	ra
    1804:	a7620016 	sh	v0,22(k1)
    1808:	3082007f 	andi	v0,a0,0x7f
    180c:	03421021 	addu	v0,k0,v0
    1810:	3c08000e 	lui	t0,0xe
    1814:	00481821 	addu	v1,v0,t0
    1818:	3c020800 	lui	v0,0x800
    181c:	8c420020 	lw	v0,32(v0)
    1820:	27bdffd8 	addiu	sp,sp,-40
    1824:	2407ff80 	li	a3,-128
    1828:	afb3001c 	sw	s3,28(sp)
    182c:	afb20018 	sw	s2,24(sp)
    1830:	afb10014 	sw	s1,20(sp)
    1834:	afb00010 	sw	s0,16(sp)
    1838:	afbf0020 	sw	ra,32(sp)
    183c:	00808021 	move	s0,a0
    1840:	30b100ff 	andi	s1,a1,0xff
    1844:	00872024 	and	a0,a0,a3
    1848:	30d200ff 	andi	s2,a2,0xff
    184c:	1040002f 	beqz	v0,0x190c
    1850:	00009821 	move	s3,zero
    1854:	af44002c 	sw	a0,44(k0)
    1858:	90620000 	lbu	v0,0(v1)
    185c:	24030050 	li	v1,80
    1860:	304200ff 	andi	v0,v0,0xff
    1864:	1443000e 	bne	v0,v1,0x18a0
    1868:	00000000 	nop
    186c:	3c020800 	lui	v0,0x800
    1870:	8c4200e0 	lw	v0,224(v0)
    1874:	02021021 	addu	v0,s0,v0
    1878:	00471024 	and	v0,v0,a3
    187c:	af42002c 	sw	v0,44(k0)
    1880:	3c020800 	lui	v0,0x800
    1884:	8c4200e0 	lw	v0,224(v0)
    1888:	02021021 	addu	v0,s0,v0
    188c:	3042007f 	andi	v0,v0,0x7f
    1890:	03421021 	addu	v0,k0,v0
    1894:	00481021 	addu	v0,v0,t0
    1898:	944200d4 	lhu	v0,212(v0)
    189c:	3053ffff 	andi	s3,v0,0xffff
    18a0:	0e00052b 	jal	0x80014ac
    18a4:	00000000 	nop
    18a8:	3c020800 	lui	v0,0x800
    18ac:	94424dbe 	lhu	v0,19902(v0)
    18b0:	8f830020 	lw	v1,32(gp)
    18b4:	00113400 	sll	a2,s1,0x10
    18b8:	00c23025 	or	a2,a2,v0
    18bc:	00122c00 	sll	a1,s2,0x10
    18c0:	3c024000 	lui	v0,0x4000
    18c4:	00c23025 	or	a2,a2,v0
    18c8:	34a50001 	ori	a1,a1,0x1
    18cc:	ac700000 	sw	s0,0(v1)
    18d0:	8fbf0020 	lw	ra,32(sp)
    18d4:	ac600004 	sw	zero,4(v1)
    18d8:	8fb20018 	lw	s2,24(sp)
    18dc:	ac730008 	sw	s3,8(v1)
    18e0:	8fb10014 	lw	s1,20(sp)
    18e4:	ac60000c 	sw	zero,12(v1)
    18e8:	8fb3001c 	lw	s3,28(sp)
    18ec:	ac650010 	sw	a1,16(v1)
    18f0:	8fb00010 	lw	s0,16(sp)
    18f4:	ac600014 	sw	zero,20(v1)
    18f8:	24040001 	li	a0,1
    18fc:	ac600018 	sw	zero,24(v1)
    1900:	27bd0028 	addiu	sp,sp,40
    1904:	0a000550 	j	0x8001540
    1908:	ac66001c 	sw	a2,28(v1)
    190c:	8fbf0020 	lw	ra,32(sp)
    1910:	8fb3001c 	lw	s3,28(sp)
    1914:	8fb20018 	lw	s2,24(sp)
    1918:	8fb10014 	lw	s1,20(sp)
    191c:	8fb00010 	lw	s0,16(sp)
    1920:	03e00008 	jr	ra
    1924:	27bd0028 	addiu	sp,sp,40
    1928:	9343010f 	lbu	v1,271(k0)
    192c:	24020010 	li	v0,16
    1930:	1062000e 	beq	v1,v0,0x196c
    1934:	28650011 	slti	a1,v1,17
    1938:	10a00007 	beqz	a1,0x1958
    193c:	24020012 	li	v0,18
    1940:	24020008 	li	v0,8
    1944:	2405003a 	li	a1,58
    1948:	10620006 	beq	v1,v0,0x1964
    194c:	00003021 	move	a2,zero
    1950:	03e00008 	jr	ra
    1954:	00000000 	nop
    1958:	24050035 	li	a1,53
    195c:	1462fffc 	bne	v1,v0,0x1950
    1960:	00003021 	move	a2,zero
    1964:	0a0005d0 	j	0x8001740
    1968:	00000000 	nop
    196c:	8f420074 	lw	v0,116(k0)
    1970:	24420fa0 	addiu	v0,v0,4000
    1974:	03e00008 	jr	ra
    1978:	af62000c 	sw	v0,12(k1)
    197c:	27bdffe8 	addiu	sp,sp,-24
    1980:	afbf0010 	sw	ra,16(sp)
    1984:	0e000310 	jal	0x8000c40
    1988:	24050001 	li	a1,1
    198c:	8fbf0010 	lw	ra,16(sp)
    1990:	24020001 	li	v0,1
    1994:	a7620012 	sh	v0,18(k1)
    1998:	27bd0018 	addiu	sp,sp,24
    199c:	24020001 	li	v0,1
    19a0:	03e00008 	jr	ra
    19a4:	a3600022 	sb	zero,34(k1)
    19a8:	27bdffe0 	addiu	sp,sp,-32
    19ac:	afb10014 	sw	s1,20(sp)
    19b0:	afb00010 	sw	s0,16(sp)
    19b4:	afbf0018 	sw	ra,24(sp)
    19b8:	30b1ffff 	andi	s1,a1,0xffff
    19bc:	0e000302 	jal	0x8000c08
    19c0:	00808021 	move	s0,a0
    19c4:	9362003f 	lbu	v0,63(k1)
    19c8:	24030004 	li	v1,4
    19cc:	304200ff 	andi	v0,v0,0xff
    19d0:	1443000c 	bne	v0,v1,0x1a04
    19d4:	02002021 	move	a0,s0
    19d8:	12200008 	beqz	s1,0x19fc
    19dc:	2402000a 	li	v0,10
    19e0:	0e0005c9 	jal	0x8001724
    19e4:	00000000 	nop
    19e8:	93620005 	lbu	v0,5(k1)
    19ec:	2403fffe 	li	v1,-2
    19f0:	00431024 	and	v0,v0,v1
    19f4:	a3620005 	sb	v0,5(k1)
    19f8:	24020012 	li	v0,18
    19fc:	a362003f 	sb	v0,63(k1)
    1a00:	02002021 	move	a0,s0
    1a04:	0e00030b 	jal	0x8000c2c
    1a08:	a3600081 	sb	zero,129(k1)
    1a0c:	16200003 	bnez	s1,0x1a1c
    1a10:	02002021 	move	a0,s0
    1a14:	0e00062d 	jal	0x80018b4
    1a18:	00000000 	nop
    1a1c:	02002021 	move	a0,s0
    1a20:	322600ff 	andi	a2,s1,0xff
    1a24:	8fbf0018 	lw	ra,24(sp)
    1a28:	8fb10014 	lw	s1,20(sp)
    1a2c:	8fb00010 	lw	s0,16(sp)
    1a30:	24050038 	li	a1,56
    1a34:	0a0005d0 	j	0x8001740
    1a38:	27bd0020 	addiu	sp,sp,32
    1a3c:	27bdffe0 	addiu	sp,sp,-32
    1a40:	afbf001c 	sw	ra,28(sp)
    1a44:	afb20018 	sw	s2,24(sp)
    1a48:	afb10014 	sw	s1,20(sp)
    1a4c:	afb00010 	sw	s0,16(sp)
    1a50:	0e000302 	jal	0x8000c08
    1a54:	00808021 	move	s0,a0
    1a58:	0e0005c9 	jal	0x8001724
    1a5c:	00000000 	nop
    1a60:	9362003f 	lbu	v0,63(k1)
    1a64:	24120018 	li	s2,24
    1a68:	305100ff 	andi	s1,v0,0xff
    1a6c:	12320003 	beq	s1,s2,0x1a7c
    1a70:	02002021 	move	a0,s0
    1a74:	24020012 	li	v0,18
    1a78:	a362003f 	sb	v0,63(k1)
    1a7c:	93620005 	lbu	v0,5(k1)
    1a80:	2403fffe 	li	v1,-2
    1a84:	00431024 	and	v0,v0,v1
    1a88:	0e00030b 	jal	0x8000c2c
    1a8c:	a3620005 	sb	v0,5(k1)
    1a90:	02002021 	move	a0,s0
    1a94:	24050020 	li	a1,32
    1a98:	16320007 	bne	s1,s2,0x1ab8
    1a9c:	00003021 	move	a2,zero
    1aa0:	8fbf001c 	lw	ra,28(sp)
    1aa4:	8fb20018 	lw	s2,24(sp)
    1aa8:	8fb10014 	lw	s1,20(sp)
    1aac:	8fb00010 	lw	s0,16(sp)
    1ab0:	0a000310 	j	0x8000c40
    1ab4:	27bd0020 	addiu	sp,sp,32
    1ab8:	8fbf001c 	lw	ra,28(sp)
    1abc:	8fb20018 	lw	s2,24(sp)
    1ac0:	8fb10014 	lw	s1,20(sp)
    1ac4:	8fb00010 	lw	s0,16(sp)
    1ac8:	24050039 	li	a1,57
    1acc:	0a0005d0 	j	0x8001740
    1ad0:	27bd0020 	addiu	sp,sp,32
    1ad4:	27bdffe8 	addiu	sp,sp,-24
    1ad8:	afb00010 	sw	s0,16(sp)
    1adc:	afbf0014 	sw	ra,20(sp)
    1ae0:	9742010c 	lhu	v0,268(k0)
    1ae4:	24050036 	li	a1,54
    1ae8:	00808021 	move	s0,a0
    1aec:	14400010 	bnez	v0,0x1b30
    1af0:	304600ff 	andi	a2,v0,0xff
    1af4:	0e000302 	jal	0x8000c08
    1af8:	00000000 	nop
    1afc:	24020012 	li	v0,18
    1b00:	a362003f 	sb	v0,63(k1)
    1b04:	93620005 	lbu	v0,5(k1)
    1b08:	34420010 	ori	v0,v0,0x10
    1b0c:	0e0005c9 	jal	0x8001724
    1b10:	a3620005 	sb	v0,5(k1)
    1b14:	0e00030b 	jal	0x8000c2c
    1b18:	02002021 	move	a0,s0
    1b1c:	02002021 	move	a0,s0
    1b20:	0e000310 	jal	0x8000c40
    1b24:	24050020 	li	a1,32
    1b28:	0a00069c 	j	0x8001a70
    1b2c:	00000000 	nop
    1b30:	0e0005d0 	jal	0x8001740
    1b34:	00000000 	nop
    1b38:	0e000302 	jal	0x8000c08
    1b3c:	02002021 	move	a0,s0
    1b40:	93620023 	lbu	v0,35(k1)
    1b44:	2403ff9f 	li	v1,-97
    1b48:	02002021 	move	a0,s0
    1b4c:	00431024 	and	v0,v0,v1
    1b50:	8fbf0014 	lw	ra,20(sp)
    1b54:	8fb00010 	lw	s0,16(sp)
    1b58:	a3620023 	sb	v0,35(k1)
    1b5c:	0a00030b 	j	0x8000c2c
    1b60:	27bd0018 	addiu	sp,sp,24
    1b64:	27bdffe0 	addiu	sp,sp,-32
    1b68:	afbf0018 	sw	ra,24(sp)
    1b6c:	afb10014 	sw	s1,20(sp)
    1b70:	afb00010 	sw	s0,16(sp)
    1b74:	30b100ff 	andi	s1,a1,0xff
    1b78:	0e000302 	jal	0x8000c08
    1b7c:	00808021 	move	s0,a0
    1b80:	24020012 	li	v0,18
    1b84:	0e0005c9 	jal	0x8001724
    1b88:	a362003f 	sb	v0,63(k1)
    1b8c:	0e00030b 	jal	0x8000c2c
    1b90:	02002021 	move	a0,s0
    1b94:	02002021 	move	a0,s0
    1b98:	02203021 	move	a2,s1
    1b9c:	8fbf0018 	lw	ra,24(sp)
    1ba0:	8fb10014 	lw	s1,20(sp)
    1ba4:	8fb00010 	lw	s0,16(sp)
    1ba8:	24050035 	li	a1,53
    1bac:	0a0005d0 	j	0x8001740
    1bb0:	27bd0020 	addiu	sp,sp,32
    1bb4:	a380002c 	sb	zero,44(gp)
    1bb8:	03e00008 	jr	ra
    1bbc:	a380002d 	sb	zero,45(gp)
    1bc0:	8f420278 	lw	v0,632(k0)
    1bc4:	0440fffe 	bltz	v0,0x1bc0
    1bc8:	8f820034 	lw	v0,52(gp)
    1bcc:	af420240 	sw	v0,576(k0)
    1bd0:	24020002 	li	v0,2
    1bd4:	a3420244 	sb	v0,580(k0)
    1bd8:	3c021000 	lui	v0,0x1000
    1bdc:	03e00008 	jr	ra
    1be0:	af420278 	sw	v0,632(k0)
    1be4:	3c036000 	lui	v1,0x6000
    1be8:	8c625400 	lw	v0,21504(v1)
    1bec:	30420008 	andi	v0,v0,0x8
    1bf0:	1440fffd 	bnez	v0,0x1be8
    1bf4:	00000000 	nop
    1bf8:	8c625408 	lw	v0,21512(v1)
    1bfc:	af82000c 	sw	v0,12(gp)
    1c00:	24020052 	li	v0,82
    1c04:	ac605408 	sw	zero,21512(v1)
    1c08:	ac645430 	sw	a0,21552(v1)
    1c0c:	ac625434 	sw	v0,21556(v1)
    1c10:	24020008 	li	v0,8
    1c14:	03e00008 	jr	ra
    1c18:	ac625400 	sw	v0,21504(v1)
    1c1c:	3c026000 	lui	v0,0x6000
    1c20:	8c425400 	lw	v0,21504(v0)
    1c24:	30420008 	andi	v0,v0,0x8
    1c28:	10400005 	beqz	v0,0x1c40
    1c2c:	3c036000 	lui	v1,0x6000
    1c30:	8c625400 	lw	v0,21504(v1)
    1c34:	30420008 	andi	v0,v0,0x8
    1c38:	1440fffd 	bnez	v0,0x1c30
    1c3c:	00000000 	nop
    1c40:	8f83000c 	lw	v1,12(gp)
    1c44:	3c026000 	lui	v0,0x6000
    1c48:	03e00008 	jr	ra
    1c4c:	ac435408 	sw	v1,21512(v0)
    1c50:	90a30000 	lbu	v1,0(a1)
    1c54:	24020005 	li	v0,5
    1c58:	00804021 	move	t0,a0
    1c5c:	3063003f 	andi	v1,v1,0x3f
    1c60:	00004821 	move	t1,zero
    1c64:	14620005 	bne	v1,v0,0x1c7c
    1c68:	00005021 	move	t2,zero
    1c6c:	90a2001c 	lbu	v0,28(a1)
    1c70:	94a3001e 	lhu	v1,30(a1)
    1c74:	304900ff 	andi	t1,v0,0xff
    1c78:	306affff 	andi	t2,v1,0xffff
    1c7c:	ad00000c 	sw	zero,12(t0)
    1c80:	ad000010 	sw	zero,16(t0)
    1c84:	ad000024 	sw	zero,36(t0)
    1c88:	95020014 	lhu	v0,20(t0)
    1c8c:	8d05001c 	lw	a1,28(t0)
    1c90:	8d040018 	lw	a0,24(t0)
    1c94:	3042ffff 	andi	v0,v0,0xffff
    1c98:	00491023 	subu	v0,v0,t1
    1c9c:	00021100 	sll	v0,v0,0x4
    1ca0:	000237c3 	sra	a2,v0,0x1f
    1ca4:	00403821 	move	a3,v0
    1ca8:	00862023 	subu	a0,a0,a2
    1cac:	00a2102b 	sltu	v0,a1,v0
    1cb0:	00822023 	subu	a0,a0,v0
    1cb4:	00a72823 	subu	a1,a1,a3
    1cb8:	ad05001c 	sw	a1,28(t0)
    1cbc:	ad040018 	sw	a0,24(t0)
    1cc0:	a5090014 	sh	t1,20(t0)
    1cc4:	a5090020 	sh	t1,32(t0)
    1cc8:	a50a0016 	sh	t2,22(t0)
    1ccc:	03e00008 	jr	ra
    1cd0:	a50a0022 	sh	t2,34(t0)
    1cd4:	8f4201f8 	lw	v0,504(k0)
    1cd8:	0440fffe 	bltz	v0,0x1cd4
    1cdc:	24020002 	li	v0,2
    1ce0:	af4401c0 	sw	a0,448(k0)
    1ce4:	a34201c4 	sb	v0,452(k0)
    1ce8:	3c021000 	lui	v0,0x1000
    1cec:	03e00008 	jr	ra
    1cf0:	af4201f8 	sw	v0,504(k0)
    1cf4:	3c020800 	lui	v0,0x800
    1cf8:	8c4200b4 	lw	v0,180(v0)
    1cfc:	27bdffe8 	addiu	sp,sp,-24
    1d00:	afbf0014 	sw	ra,20(sp)
    1d04:	24420001 	addiu	v0,v0,1
    1d08:	afb00010 	sw	s0,16(sp)
    1d0c:	3c010800 	lui	at,0x800
    1d10:	ac2200b4 	sw	v0,180(at)
    1d14:	8f430024 	lw	v1,36(k0)
    1d18:	3c02001f 	lui	v0,0x1f
    1d1c:	30aa00ff 	andi	t2,a1,0xff
    1d20:	3442ff80 	ori	v0,v0,0xff80
    1d24:	30d800ff 	andi	t8,a2,0xff
    1d28:	00628024 	and	s0,v1,v0
    1d2c:	0080f821 	move	ra,a0
    1d30:	30ef00ff 	andi	t7,a3,0xff
    1d34:	1158003b 	beq	t2,t8,0x1e24
    1d38:	01405821 	move	t3,t2
    1d3c:	240cff80 	li	t4,-128
    1d40:	3c19000a 	lui	t9,0xa
    1d44:	3163007f 	andi	v1,t3,0x7f
    1d48:	000310c0 	sll	v0,v1,0x3
    1d4c:	00031940 	sll	v1,v1,0x5
    1d50:	00621821 	addu	v1,v1,v0
    1d54:	3c020800 	lui	v0,0x800
    1d58:	8c4200dc 	lw	v0,220(v0)
    1d5c:	25680001 	addiu	t0,t3,1
    1d60:	310d007f 	andi	t5,t0,0x7f
    1d64:	03e21021 	addu	v0,ra,v0
    1d68:	00431021 	addu	v0,v0,v1
    1d6c:	3043007f 	andi	v1,v0,0x7f
    1d70:	03431821 	addu	v1,k0,v1
    1d74:	004c1024 	and	v0,v0,t4
    1d78:	00794821 	addu	t1,v1,t9
    1d7c:	af420024 	sw	v0,36(k0)
    1d80:	8d220024 	lw	v0,36(t1)
    1d84:	016c1824 	and	v1,t3,t4
    1d88:	006c7026 	xor	t6,v1,t4
    1d8c:	ad22000c 	sw	v0,12(t1)
    1d90:	8d220024 	lw	v0,36(t1)
    1d94:	310800ff 	andi	t0,t0,0xff
    1d98:	ad220010 	sw	v0,16(t1)
    1d9c:	95220014 	lhu	v0,20(t1)
    1da0:	95230020 	lhu	v1,32(t1)
    1da4:	8d27001c 	lw	a3,28(t1)
    1da8:	3042ffff 	andi	v0,v0,0xffff
    1dac:	3063ffff 	andi	v1,v1,0xffff
    1db0:	8d260018 	lw	a2,24(t1)
    1db4:	00431023 	subu	v0,v0,v1
    1db8:	00021100 	sll	v0,v0,0x4
    1dbc:	000227c3 	sra	a0,v0,0x1f
    1dc0:	00402821 	move	a1,v0
    1dc4:	00c43023 	subu	a2,a2,a0
    1dc8:	00e2102b 	sltu	v0,a3,v0
    1dcc:	00c23023 	subu	a2,a2,v0
    1dd0:	00e53823 	subu	a3,a3,a1
    1dd4:	ad27001c 	sw	a3,28(t1)
    1dd8:	ad260018 	sw	a2,24(t1)
    1ddc:	95220020 	lhu	v0,32(t1)
    1de0:	a5220014 	sh	v0,20(t1)
    1de4:	95220022 	lhu	v0,34(t1)
    1de8:	154b000a 	bne	t2,t3,0x1e14
    1dec:	a5220016 	sh	v0,22(t1)
    1df0:	8d230024 	lw	v1,36(t1)
    1df4:	8d220008 	lw	v0,8(t1)
    1df8:	25460001 	addiu	a2,t2,1
    1dfc:	31450080 	andi	a1,t2,0x80
    1e00:	14620004 	bne	v1,v0,0x1e14
    1e04:	30c4007f 	andi	a0,a2,0x7f
    1e08:	108f0002 	beq	a0,t7,0x1e14
    1e0c:	38aa0080 	xori	t2,a1,0x80
    1e10:	00c05021 	move	t2,a2
    1e14:	51af0001 	beql	t5,t7,0x1e1c
    1e18:	31c800ff 	andi	t0,t6,0xff
    1e1c:	1518ffc9 	bne	t0,t8,0x1d44
    1e20:	01005821 	move	t3,t0
    1e24:	8f840034 	lw	a0,52(gp)
    1e28:	3082007f 	andi	v0,a0,0x7f
    1e2c:	03421821 	addu	v1,k0,v0
    1e30:	3c02000a 	lui	v0,0xa
    1e34:	00621821 	addu	v1,v1,v0
    1e38:	2402ff80 	li	v0,-128
    1e3c:	00822024 	and	a0,a0,v0
    1e40:	af440024 	sw	a0,36(k0)
    1e44:	a06a0079 	sb	t2,121(v1)
    1e48:	a06a0083 	sb	t2,131(v1)
    1e4c:	8c620050 	lw	v0,80(v1)
    1e50:	8f840034 	lw	a0,52(gp)
    1e54:	ac620070 	sw	v0,112(v1)
    1e58:	8c650074 	lw	a1,116(v1)
    1e5c:	3c027fff 	lui	v0,0x7fff
    1e60:	3442ffff 	ori	v0,v0,0xffff
    1e64:	00a22824 	and	a1,a1,v0
    1e68:	0e000703 	jal	0x8001c0c
    1e6c:	ac650074 	sw	a1,116(v1)
    1e70:	af500024 	sw	s0,36(k0)
    1e74:	8fbf0014 	lw	ra,20(sp)
    1e78:	8fb00010 	lw	s0,16(sp)
    1e7c:	03e00008 	jr	ra
    1e80:	27bd0018 	addiu	sp,sp,24
    1e84:	27bdffc0 	addiu	sp,sp,-64
    1e88:	afbe0038 	sw	s8,56(sp)
    1e8c:	afb70034 	sw	s7,52(sp)
    1e90:	afb5002c 	sw	s5,44(sp)
    1e94:	afb20020 	sw	s2,32(sp)
    1e98:	afb1001c 	sw	s1,28(sp)
    1e9c:	afb00018 	sw	s0,24(sp)
    1ea0:	afbf003c 	sw	ra,60(sp)
    1ea4:	afb60030 	sw	s6,48(sp)
    1ea8:	afb40028 	sw	s4,40(sp)
    1eac:	afb30024 	sw	s3,36(sp)
    1eb0:	8f450024 	lw	a1,36(k0)
    1eb4:	8f460028 	lw	a2,40(k0)
    1eb8:	8f43002c 	lw	v1,44(k0)
    1ebc:	3c02001f 	lui	v0,0x1f
    1ec0:	3442ff80 	ori	v0,v0,0xff80
    1ec4:	00621824 	and	v1,v1,v0
    1ec8:	00c23024 	and	a2,a2,v0
    1ecc:	0080a821 	move	s5,a0
    1ed0:	afa30014 	sw	v1,20(sp)
    1ed4:	00a2f024 	and	s8,a1,v0
    1ed8:	0e0006c7 	jal	0x8001b1c
    1edc:	afa60010 	sw	a2,16(sp)
    1ee0:	3c020800 	lui	v0,0x800
    1ee4:	8c4200e0 	lw	v0,224(v0)
    1ee8:	2410ff80 	li	s0,-128
    1eec:	03608821 	move	s1,k1
    1ef0:	02a21021 	addu	v0,s5,v0
    1ef4:	00501024 	and	v0,v0,s0
    1ef8:	af420024 	sw	v0,36(k0)
    1efc:	3c020800 	lui	v0,0x800
    1f00:	8c4200e0 	lw	v0,224(v0)
    1f04:	02a21021 	addu	v0,s5,v0
    1f08:	3042007f 	andi	v0,v0,0x7f
    1f0c:	03421821 	addu	v1,k0,v0
    1f10:	3c02000a 	lui	v0,0xa
    1f14:	00629021 	addu	s2,v1,v0
    1f18:	924200d2 	lbu	v0,210(s2)
    1f1c:	93630084 	lbu	v1,132(k1)
    1f20:	305700ff 	andi	s7,v0,0xff
    1f24:	306300ff 	andi	v1,v1,0xff
    1f28:	24020001 	li	v0,1
    1f2c:	10620034 	beq	v1,v0,0x2000
    1f30:	03602021 	move	a0,k1
    1f34:	24020002 	li	v0,2
    1f38:	14620036 	bne	v1,v0,0x2014
    1f3c:	00000000 	nop
    1f40:	0e0012ae 	jal	0x8004ab8
    1f44:	02402821 	move	a1,s2
    1f48:	92230083 	lbu	v1,131(s1)
    1f4c:	92220083 	lbu	v0,131(s1)
    1f50:	3063007f 	andi	v1,v1,0x7f
    1f54:	3042007f 	andi	v0,v0,0x7f
    1f58:	000210c0 	sll	v0,v0,0x3
    1f5c:	00031940 	sll	v1,v1,0x5
    1f60:	00621821 	addu	v1,v1,v0
    1f64:	3c020800 	lui	v0,0x800
    1f68:	8c4200dc 	lw	v0,220(v0)
    1f6c:	02a21021 	addu	v0,s5,v0
    1f70:	00433821 	addu	a3,v0,v1
    1f74:	00f01024 	and	v0,a3,s0
    1f78:	af420028 	sw	v0,40(k0)
    1f7c:	92250078 	lbu	a1,120(s1)
    1f80:	92240083 	lbu	a0,131(s1)
    1f84:	30e2007f 	andi	v0,a3,0x7f
    1f88:	03421821 	addu	v1,k0,v0
    1f8c:	3c02000c 	lui	v0,0xc
    1f90:	14850007 	bne	a0,a1,0x1fb0
    1f94:	00628021 	addu	s0,v1,v0
    1f98:	2402ffff 	li	v0,-1
    1f9c:	a24200f1 	sb	v0,241(s2)
    1fa0:	2402ffff 	li	v0,-1
    1fa4:	a64200f2 	sh	v0,242(s2)
    1fa8:	0a0007bf 	j	0x8001efc
    1fac:	2402ffff 	li	v0,-1
    1fb0:	96020020 	lhu	v0,32(s0)
    1fb4:	a24200f1 	sb	v0,241(s2)
    1fb8:	96020022 	lhu	v0,34(s0)
    1fbc:	a64200f2 	sh	v0,242(s2)
    1fc0:	8e020024 	lw	v0,36(s0)
    1fc4:	ae4200f4 	sw	v0,244(s2)
    1fc8:	92220083 	lbu	v0,131(s1)
    1fcc:	a24200f0 	sb	v0,240(s2)
    1fd0:	8e4200c8 	lw	v0,200(s2)
    1fd4:	ae4200fc 	sw	v0,252(s2)
    1fd8:	8e4200c4 	lw	v0,196(s2)
    1fdc:	ae4200f8 	sw	v0,248(s2)
    1fe0:	8e220050 	lw	v0,80(s1)
    1fe4:	ae420100 	sw	v0,256(s2)
    1fe8:	8e4200cc 	lw	v0,204(s2)
    1fec:	ae420104 	sw	v0,260(s2)
    1ff0:	92220085 	lbu	v0,133(s1)
    1ff4:	3042003f 	andi	v0,v0,0x3f
    1ff8:	0a00081a 	j	0x8002068
    1ffc:	34420040 	ori	v0,v0,0x40
    2000:	0e0012d1 	jal	0x8004b44
    2004:	02402821 	move	a1,s2
    2008:	92220085 	lbu	v0,133(s1)
    200c:	0a00081a 	j	0x8002068
    2010:	3042003f 	andi	v0,v0,0x3f
    2014:	93620085 	lbu	v0,133(k1)
    2018:	2403ffdf 	li	v1,-33
    201c:	3042003f 	andi	v0,v0,0x3f
    2020:	a3620085 	sb	v0,133(k1)
    2024:	93620085 	lbu	v0,133(k1)
    2028:	00431024 	and	v0,v0,v1
    202c:	a3620085 	sb	v0,133(k1)
    2030:	93630083 	lbu	v1,131(k1)
    2034:	93620078 	lbu	v0,120(k1)
    2038:	307400ff 	andi	s4,v1,0xff
    203c:	304200ff 	andi	v0,v0,0xff
    2040:	10540036 	beq	v0,s4,0x211c
    2044:	240aff80 	li	t2,-128
    2048:	3c0c000c 	lui	t4,0xc
    204c:	3283007f 	andi	v1,s4,0x7f
    2050:	000310c0 	sll	v0,v1,0x3
    2054:	00031940 	sll	v1,v1,0x5
    2058:	00621821 	addu	v1,v1,v0
    205c:	3c020800 	lui	v0,0x800
    2060:	8c4200dc 	lw	v0,220(v0)
    2064:	26880001 	addiu	t0,s4,1
    2068:	3109007f 	andi	t1,t0,0x7f
    206c:	02a21021 	addu	v0,s5,v0
    2070:	00433821 	addu	a3,v0,v1
    2074:	30e2007f 	andi	v0,a3,0x7f
    2078:	03421821 	addu	v1,k0,v0
    207c:	00ea1024 	and	v0,a3,t2
    2080:	af420028 	sw	v0,40(k0)
    2084:	006c8021 	addu	s0,v1,t4
    2088:	8e020024 	lw	v0,36(s0)
    208c:	028a1824 	and	v1,s4,t2
    2090:	006a5826 	xor	t3,v1,t2
    2094:	ae02000c 	sw	v0,12(s0)
    2098:	8e020024 	lw	v0,36(s0)
    209c:	310800ff 	andi	t0,t0,0xff
    20a0:	ae020010 	sw	v0,16(s0)
    20a4:	96020014 	lhu	v0,20(s0)
    20a8:	96030020 	lhu	v1,32(s0)
    20ac:	8e07001c 	lw	a3,28(s0)
    20b0:	3042ffff 	andi	v0,v0,0xffff
    20b4:	3063ffff 	andi	v1,v1,0xffff
    20b8:	8e060018 	lw	a2,24(s0)
    20bc:	00431023 	subu	v0,v0,v1
    20c0:	00021100 	sll	v0,v0,0x4
    20c4:	000227c3 	sra	a0,v0,0x1f
    20c8:	00402821 	move	a1,v0
    20cc:	00c43023 	subu	a2,a2,a0
    20d0:	00e2102b 	sltu	v0,a3,v0
    20d4:	00c23023 	subu	a2,a2,v0
    20d8:	00e53823 	subu	a3,a3,a1
    20dc:	ae07001c 	sw	a3,28(s0)
    20e0:	ae060018 	sw	a2,24(s0)
    20e4:	96020020 	lhu	v0,32(s0)
    20e8:	a6020014 	sh	v0,20(s0)
    20ec:	96020022 	lhu	v0,34(s0)
    20f0:	a6020016 	sh	v0,22(s0)
    20f4:	92220079 	lbu	v0,121(s1)
    20f8:	304200ff 	andi	v0,v0,0xff
    20fc:	10540007 	beq	v0,s4,0x211c
    2100:	00000000 	nop
    2104:	51370001 	beql	t1,s7,0x210c
    2108:	316800ff 	andi	t0,t3,0xff
    210c:	92220078 	lbu	v0,120(s1)
    2110:	304200ff 	andi	v0,v0,0xff
    2114:	1448ffcd 	bne	v0,t0,0x204c
    2118:	0100a021 	move	s4,t0
    211c:	92220083 	lbu	v0,131(s1)
    2120:	a2220079 	sb	v0,121(s1)
    2124:	8e220050 	lw	v0,80(s1)
    2128:	0a00087a 	j	0x80021e8
    212c:	ae220070 	sw	v0,112(s1)
    2130:	a2220085 	sb	v0,133(s1)
    2134:	8e22004c 	lw	v0,76(s1)
    2138:	2405ff80 	li	a1,-128
    213c:	ae42010c 	sw	v0,268(s2)
    2140:	92220085 	lbu	v0,133(s1)
    2144:	34420020 	ori	v0,v0,0x20
    2148:	a2220085 	sb	v0,133(s1)
    214c:	924200d1 	lbu	v0,209(s2)
    2150:	3c030800 	lui	v1,0x800
    2154:	8c6300dc 	lw	v1,220(v1)
    2158:	305400ff 	andi	s4,v0,0xff
    215c:	3c020800 	lui	v0,0x800
    2160:	8c4200e4 	lw	v0,228(v0)
    2164:	00143140 	sll	a2,s4,0x5
    2168:	001420c0 	sll	a0,s4,0x3
    216c:	02a31821 	addu	v1,s5,v1
    2170:	00c42021 	addu	a0,a2,a0
    2174:	02a21021 	addu	v0,s5,v0
    2178:	00643821 	addu	a3,v1,a0
    217c:	00461021 	addu	v0,v0,a2
    2180:	00451824 	and	v1,v0,a1
    2184:	00e52824 	and	a1,a3,a1
    2188:	af450028 	sw	a1,40(k0)
    218c:	af43002c 	sw	v1,44(k0)
    2190:	3042007f 	andi	v0,v0,0x7f
    2194:	924400d0 	lbu	a0,208(s2)
    2198:	30e3007f 	andi	v1,a3,0x7f
    219c:	03422821 	addu	a1,k0,v0
    21a0:	03431821 	addu	v1,k0,v1
    21a4:	3c02000c 	lui	v0,0xc
    21a8:	00628021 	addu	s0,v1,v0
    21ac:	3c02000e 	lui	v0,0xe
    21b0:	309600ff 	andi	s6,a0,0xff
    21b4:	00a29821 	addu	s3,a1,v0
    21b8:	1296002a 	beq	s4,s6,0x2264
    21bc:	00000000 	nop
    21c0:	8e02000c 	lw	v0,12(s0)
    21c4:	02002021 	move	a0,s0
    21c8:	02602821 	move	a1,s3
    21cc:	10400025 	beqz	v0,0x2264
    21d0:	26100028 	addiu	s0,s0,40
    21d4:	0e0006e2 	jal	0x8001b88
    21d8:	00000000 	nop
    21dc:	9262000d 	lbu	v0,13(s3)
    21e0:	26830001 	addiu	v1,s4,1
    21e4:	307400ff 	andi	s4,v1,0xff
    21e8:	3042007f 	andi	v0,v0,0x7f
    21ec:	a262000d 	sb	v0,13(s3)
    21f0:	2404ff80 	li	a0,-128
    21f4:	1697fff0 	bne	s4,s7,0x21b8
    21f8:	26730020 	addiu	s3,s3,32
    21fc:	3c020800 	lui	v0,0x800
    2200:	8c4200dc 	lw	v0,220(v0)
    2204:	0000a021 	move	s4,zero
    2208:	02a21021 	addu	v0,s5,v0
    220c:	00441024 	and	v0,v0,a0
    2210:	af420028 	sw	v0,40(k0)
    2214:	3c020800 	lui	v0,0x800
    2218:	8c4200e4 	lw	v0,228(v0)
    221c:	3c030800 	lui	v1,0x800
    2220:	8c6300dc 	lw	v1,220(v1)
    2224:	02a21021 	addu	v0,s5,v0
    2228:	00441024 	and	v0,v0,a0
    222c:	af42002c 	sw	v0,44(k0)
    2230:	3c020800 	lui	v0,0x800
    2234:	8c4200e4 	lw	v0,228(v0)
    2238:	02a31821 	addu	v1,s5,v1
    223c:	3063007f 	andi	v1,v1,0x7f
    2240:	02a21021 	addu	v0,s5,v0
    2244:	3042007f 	andi	v0,v0,0x7f
    2248:	03422021 	addu	a0,k0,v0
    224c:	03431821 	addu	v1,k0,v1
    2250:	3c02000c 	lui	v0,0xc
    2254:	00628021 	addu	s0,v1,v0
    2258:	3c02000e 	lui	v0,0xe
    225c:	0a00083c 	j	0x80020f0
    2260:	00829821 	addu	s3,a0,v0
    2264:	8e4200d8 	lw	v0,216(s2)
    2268:	ae220050 	sw	v0,80(s1)
    226c:	8e4200d8 	lw	v0,216(s2)
    2270:	ae220070 	sw	v0,112(s1)
    2274:	92250083 	lbu	a1,131(s1)
    2278:	924600d1 	lbu	a2,209(s2)
    227c:	92230083 	lbu	v1,131(s1)
    2280:	924400d1 	lbu	a0,209(s2)
    2284:	2402ff80 	li	v0,-128
    2288:	00a22824 	and	a1,a1,v0
    228c:	3063007f 	andi	v1,v1,0x7f
    2290:	308400ff 	andi	a0,a0,0xff
    2294:	00a62825 	or	a1,a1,a2
    2298:	0064182a 	slt	v1,v1,a0
    229c:	10600002 	beqz	v1,0x22a8
    22a0:	30a500ff 	andi	a1,a1,0xff
    22a4:	38a50080 	xori	a1,a1,0x80
    22a8:	a2250083 	sb	a1,131(s1)
    22ac:	a2250079 	sb	a1,121(s1)
    22b0:	0e0006d5 	jal	0x8001b54
    22b4:	00000000 	nop
    22b8:	9222007e 	lbu	v0,126(s1)
    22bc:	02a02021 	move	a0,s5
    22c0:	a222007a 	sb	v0,122(s1)
    22c4:	8e230074 	lw	v1,116(s1)
    22c8:	3c027fff 	lui	v0,0x7fff
    22cc:	3442ffff 	ori	v0,v0,0xffff
    22d0:	00621824 	and	v1,v1,v0
    22d4:	0e000703 	jal	0x8001c0c
    22d8:	ae230074 	sw	v1,116(s1)
    22dc:	8fa20010 	lw	v0,16(sp)
    22e0:	af5e0024 	sw	s8,36(k0)
    22e4:	8fbf003c 	lw	ra,60(sp)
    22e8:	af420028 	sw	v0,40(k0)
    22ec:	8fbe0038 	lw	s8,56(sp)
    22f0:	8fa20014 	lw	v0,20(sp)
    22f4:	8fb70034 	lw	s7,52(sp)
    22f8:	8fb60030 	lw	s6,48(sp)
    22fc:	8fb5002c 	lw	s5,44(sp)
    2300:	8fb40028 	lw	s4,40(sp)
    2304:	8fb30024 	lw	s3,36(sp)
    2308:	8fb20020 	lw	s2,32(sp)
    230c:	8fb1001c 	lw	s1,28(sp)
    2310:	8fb00018 	lw	s0,24(sp)
    2314:	27bd0040 	addiu	sp,sp,64
    2318:	03e00008 	jr	ra
    231c:	af42002c 	sw	v0,44(k0)
    2320:	90a20000 	lbu	v0,0(a1)
    2324:	24420001 	addiu	v0,v0,1
    2328:	a0a20000 	sb	v0,0(a1)
    232c:	3c030800 	lui	v1,0x800
    2330:	8c6300f4 	lw	v1,244(v1)
    2334:	304200ff 	andi	v0,v0,0xff
    2338:	1443000f 	bne	v0,v1,0x2378
    233c:	00803021 	move	a2,a0
    2340:	a0a00000 	sb	zero,0(a1)
    2344:	3c020800 	lui	v0,0x800
    2348:	8c4200e4 	lw	v0,228(v0)
    234c:	8f840034 	lw	a0,52(gp)
    2350:	00822021 	addu	a0,a0,v0
    2354:	3082007f 	andi	v0,a0,0x7f
    2358:	03421821 	addu	v1,k0,v0
    235c:	3c02000c 	lui	v0,0xc
    2360:	00621821 	addu	v1,v1,v0
    2364:	2402ff80 	li	v0,-128
    2368:	00822024 	and	a0,a0,v0
    236c:	acc30000 	sw	v1,0(a2)
    2370:	03e00008 	jr	ra
    2374:	af440028 	sw	a0,40(k0)
    2378:	8c820000 	lw	v0,0(a0)
    237c:	24420020 	addiu	v0,v0,32
    2380:	03e00008 	jr	ra
    2384:	ac820000 	sw	v0,0(a0)
    2388:	94c20000 	lhu	v0,0(a2)
    238c:	3c080800 	lui	t0,0x800
    2390:	950800ca 	lhu	t0,202(t0)
    2394:	30e7ffff 	andi	a3,a3,0xffff
    2398:	00804821 	move	t1,a0
    239c:	01021021 	addu	v0,t0,v0
    23a0:	a4c20000 	sh	v0,0(a2)
    23a4:	94c20000 	lhu	v0,0(a2)
    23a8:	3042ffff 	andi	v0,v0,0xffff
    23ac:	00e2102b 	sltu	v0,a3,v0
    23b0:	54400001 	bnezl	v0,0x23b8
    23b4:	a4c70000 	sh	a3,0(a2)
    23b8:	94a20000 	lhu	v0,0(a1)
    23bc:	3c030800 	lui	v1,0x800
    23c0:	8c6300cc 	lw	v1,204(v1)
    23c4:	24420001 	addiu	v0,v0,1
    23c8:	a4a20000 	sh	v0,0(a1)
    23cc:	94a20000 	lhu	v0,0(a1)
    23d0:	3042ffff 	andi	v0,v0,0xffff
    23d4:	54430007 	bnel	v0,v1,0x23f4
    23d8:	8f860028 	lw	a2,40(gp)
    23dc:	0107102b 	sltu	v0,t0,a3
    23e0:	a4a00000 	sh	zero,0(a1)
    23e4:	54400001 	bnezl	v0,0x23ec
    23e8:	01003821 	move	a3,t0
    23ec:	a4c70000 	sh	a3,0(a2)
    23f0:	8f860028 	lw	a2,40(gp)
    23f4:	8cc4001c 	lw	a0,28(a2)
    23f8:	af44003c 	sw	a0,60(k0)
    23fc:	94a20000 	lhu	v0,0(a1)
    2400:	8f43003c 	lw	v1,60(k0)
    2404:	3042ffff 	andi	v0,v0,0xffff
    2408:	000210c0 	sll	v0,v0,0x3
    240c:	00621821 	addu	v1,v1,v0
    2410:	af43003c 	sw	v1,60(k0)
    2414:	8f42003c 	lw	v0,60(k0)
    2418:	00822023 	subu	a0,a0,v0
    241c:	18800004 	blez	a0,0x2430
    2420:	00000000 	nop
    2424:	8cc20018 	lw	v0,24(a2)
    2428:	0a0008db 	j	0x800236c
    242c:	24420001 	addiu	v0,v0,1
    2430:	8cc20018 	lw	v0,24(a2)
    2434:	af420038 	sw	v0,56(k0)
    2438:	3c020050 	lui	v0,0x50
    243c:	34420010 	ori	v0,v0,0x10
    2440:	af420030 	sw	v0,48(k0)
	...
    2450:	8f420000 	lw	v0,0(k0)
    2454:	30420020 	andi	v0,v0,0x20
    2458:	1040fffd 	beqz	v0,0x2450
    245c:	00000000 	nop
    2460:	8f420404 	lw	v0,1028(k0)
    2464:	ad220004 	sw	v0,4(t1)
    2468:	8f420400 	lw	v0,1024(k0)
    246c:	ad220000 	sw	v0,0(t1)
    2470:	3c020020 	lui	v0,0x20
    2474:	af420030 	sw	v0,48(k0)
    2478:	03e00008 	jr	ra
    247c:	00000000 	nop
    2480:	27bdffe0 	addiu	sp,sp,-32
    2484:	afb20018 	sw	s2,24(sp)
    2488:	afb10014 	sw	s1,20(sp)
    248c:	afb00010 	sw	s0,16(sp)
    2490:	afbf001c 	sw	ra,28(sp)
    2494:	94c20000 	lhu	v0,0(a2)
    2498:	00c08021 	move	s0,a2
    249c:	3c120800 	lui	s2,0x800
    24a0:	965200c6 	lhu	s2,198(s2)
    24a4:	24420001 	addiu	v0,v0,1
    24a8:	a6020000 	sh	v0,0(s0)
    24ac:	96030000 	lhu	v1,0(s0)
    24b0:	94e20000 	lhu	v0,0(a3)
    24b4:	00e03021 	move	a2,a3
    24b8:	14430005 	bne	v0,v1,0x24d0
    24bc:	8fb10030 	lw	s1,48(sp)
    24c0:	0e0008b0 	jal	0x80022c0
    24c4:	02403821 	move	a3,s2
    24c8:	0a00090d 	j	0x8002434
    24cc:	00000000 	nop
    24d0:	8c830004 	lw	v1,4(a0)
    24d4:	8c820004 	lw	v0,4(a0)
    24d8:	24420040 	addiu	v0,v0,64
    24dc:	04610007 	bgez	v1,0x24fc
    24e0:	ac820004 	sw	v0,4(a0)
    24e4:	8c820004 	lw	v0,4(a0)
    24e8:	04400004 	bltz	v0,0x24fc
    24ec:	00000000 	nop
    24f0:	8c820000 	lw	v0,0(a0)
    24f4:	24420001 	addiu	v0,v0,1
    24f8:	ac820000 	sw	v0,0(a0)
    24fc:	96020000 	lhu	v0,0(s0)
    2500:	3042ffff 	andi	v0,v0,0xffff
    2504:	50520001 	beql	v0,s2,0x250c
    2508:	a6000000 	sh	zero,0(s0)
    250c:	96220000 	lhu	v0,0(s1)
    2510:	24420001 	addiu	v0,v0,1
    2514:	a6220000 	sh	v0,0(s1)
    2518:	8f820028 	lw	v0,40(gp)
    251c:	96230000 	lhu	v1,0(s1)
    2520:	94420016 	lhu	v0,22(v0)
    2524:	14430004 	bne	v0,v1,0x2538
    2528:	8fbf001c 	lw	ra,28(sp)
    252c:	24020001 	li	v0,1
    2530:	a6220000 	sh	v0,0(s1)
    2534:	8fbf001c 	lw	ra,28(sp)
    2538:	8fb20018 	lw	s2,24(sp)
    253c:	8fb10014 	lw	s1,20(sp)
    2540:	8fb00010 	lw	s0,16(sp)
    2544:	03e00008 	jr	ra
    2548:	27bd0020 	addiu	sp,sp,32
    254c:	8f890028 	lw	t1,40(gp)
    2550:	27bdffe0 	addiu	sp,sp,-32
    2554:	afbf0018 	sw	ra,24(sp)
    2558:	8d220028 	lw	v0,40(t1)
    255c:	27480400 	addiu	t0,k0,1024
    2560:	30e700ff 	andi	a3,a3,0xff
    2564:	af420038 	sw	v0,56(k0)
    2568:	8d22002c 	lw	v0,44(t1)
    256c:	af880030 	sw	t0,48(gp)
    2570:	af42003c 	sw	v0,60(k0)
    2574:	3c020005 	lui	v0,0x5
    2578:	af420030 	sw	v0,48(k0)
	...
    2594:	8c82000c 	lw	v0,12(a0)
    2598:	8c82000c 	lw	v0,12(a0)
    259c:	ad020000 	sw	v0,0(t0)
    25a0:	8c820010 	lw	v0,16(a0)
    25a4:	ad020004 	sw	v0,4(t0)
    25a8:	8c820018 	lw	v0,24(a0)
    25ac:	ad020008 	sw	v0,8(t0)
    25b0:	8c82001c 	lw	v0,28(a0)
    25b4:	ad02000c 	sw	v0,12(t0)
    25b8:	8ca20014 	lw	v0,20(a1)
    25bc:	ad020010 	sw	v0,16(t0)
    25c0:	8c820020 	lw	v0,32(a0)
    25c4:	ad020014 	sw	v0,20(t0)
    25c8:	90820005 	lbu	v0,5(a0)
    25cc:	304200ff 	andi	v0,v0,0xff
    25d0:	00021200 	sll	v0,v0,0x8
    25d4:	ad020018 	sw	v0,24(t0)
    25d8:	8ca20018 	lw	v0,24(a1)
    25dc:	ad02001c 	sw	v0,28(t0)
    25e0:	8ca2000c 	lw	v0,12(a1)
    25e4:	ad020020 	sw	v0,32(t0)
    25e8:	8ca20010 	lw	v0,16(a1)
    25ec:	ad020024 	sw	v0,36(t0)
    25f0:	8ca2001c 	lw	v0,28(a1)
    25f4:	ad020028 	sw	v0,40(t0)
    25f8:	8ca20020 	lw	v0,32(a1)
    25fc:	ad02002c 	sw	v0,44(t0)
    2600:	ad060030 	sw	a2,48(t0)
    2604:	ad000034 	sw	zero,52(t0)
    2608:	97830026 	lhu	v1,38(gp)
    260c:	3402ffff 	li	v0,0xffff
    2610:	14620002 	bne	v1,v0,0x261c
    2614:	00602021 	move	a0,v1
    2618:	3404ffff 	li	a0,0xffff
    261c:	10e00011 	beqz	a3,0x2664
    2620:	ad040038 	sw	a0,56(t0)
    2624:	95230036 	lhu	v1,54(t1)
    2628:	95240036 	lhu	a0,54(t1)
    262c:	24020001 	li	v0,1
    2630:	3063ffff 	andi	v1,v1,0xffff
    2634:	000318c2 	srl	v1,v1,0x3
    2638:	00691821 	addu	v1,v1,t1
    263c:	90650040 	lbu	a1,64(v1)
    2640:	30840007 	andi	a0,a0,0x7
    2644:	00821004 	sllv	v0,v0,a0
    2648:	00451025 	or	v0,v0,a1
    264c:	a0620040 	sb	v0,64(v1)
    2650:	8f820028 	lw	v0,40(gp)
    2654:	94420056 	lhu	v0,86(v0)
    2658:	3042ffff 	andi	v0,v0,0xffff
    265c:	0a000974 	j	0x80025d0
    2660:	ad02003c 	sw	v0,60(t0)
    2664:	95230036 	lhu	v1,54(t1)
    2668:	95240036 	lhu	a0,54(t1)
    266c:	24020001 	li	v0,1
    2670:	3063ffff 	andi	v1,v1,0xffff
    2674:	000318c2 	srl	v1,v1,0x3
    2678:	00691821 	addu	v1,v1,t1
    267c:	90650040 	lbu	a1,64(v1)
    2680:	30840007 	andi	a0,a0,0x7
    2684:	00821004 	sllv	v0,v0,a0
    2688:	00021027 	nor	v0,zero,v0
    268c:	00451024 	and	v0,v0,a1
    2690:	a0620040 	sb	v0,64(v1)
    2694:	ad00003c 	sw	zero,60(t0)
	...
    26a4:	3c020006 	lui	v0,0x6
    26a8:	34420040 	ori	v0,v0,0x40
    26ac:	af420030 	sw	v0,48(k0)
	...
    26bc:	8f420000 	lw	v0,0(k0)
    26c0:	30420010 	andi	v0,v0,0x10
    26c4:	1040fffd 	beqz	v0,0x26bc
    26c8:	8f860028 	lw	a2,40(gp)
    26cc:	af880030 	sw	t0,48(gp)
    26d0:	24c20056 	addiu	v0,a2,86
    26d4:	24c7003c 	addiu	a3,a2,60
    26d8:	24c40028 	addiu	a0,a2,40
    26dc:	24c50032 	addiu	a1,a2,50
    26e0:	24c60036 	addiu	a2,a2,54
    26e4:	0e0008ee 	jal	0x80023b8
    26e8:	afa20010 	sw	v0,16(sp)
    26ec:	8fbf0018 	lw	ra,24(sp)
    26f0:	03e00008 	jr	ra
    26f4:	27bd0020 	addiu	sp,sp,32
    26f8:	8f830024 	lw	v1,36(gp)
    26fc:	3c060800 	lui	a2,0x800
    2700:	8cc600e8 	lw	a2,232(a2)
    2704:	8f820034 	lw	v0,52(gp)
    2708:	30633fff 	andi	v1,v1,0x3fff
    270c:	00031980 	sll	v1,v1,0x6
    2710:	00461021 	addu	v0,v0,a2
    2714:	00431021 	addu	v0,v0,v1
    2718:	2403ff80 	li	v1,-128
    271c:	3046007f 	andi	a2,v0,0x7f
    2720:	00431024 	and	v0,v0,v1
    2724:	af420028 	sw	v0,40(k0)
    2728:	03461821 	addu	v1,k0,a2
    272c:	3c02000c 	lui	v0,0xc
    2730:	00623021 	addu	a2,v1,v0
    2734:	90c2000d 	lbu	v0,13(a2)
    2738:	30a500ff 	andi	a1,a1,0xff
    273c:	00003821 	move	a3,zero
    2740:	34420010 	ori	v0,v0,0x10
    2744:	a0c2000d 	sb	v0,13(a2)
    2748:	8f890028 	lw	t1,40(gp)
    274c:	8f8a0024 	lw	t2,36(gp)
    2750:	95230036 	lhu	v1,54(t1)
    2754:	000a1382 	srl	v0,t2,0xe
    2758:	30480003 	andi	t0,v0,0x3
    275c:	24020001 	li	v0,1
    2760:	a4c3000e 	sh	v1,14(a2)
    2764:	1102000b 	beq	t0,v0,0x2794
    2768:	29020002 	slti	v0,t0,2
    276c:	10400005 	beqz	v0,0x2784
    2770:	24020002 	li	v0,2
    2774:	1100000c 	beqz	t0,0x27a8
    2778:	24030001 	li	v1,1
    277c:	0a0009b8 	j	0x80026e0
    2780:	00001821 	move	v1,zero
    2784:	11020006 	beq	t0,v0,0x27a0
    2788:	00000000 	nop
    278c:	0a0009b8 	j	0x80026e0
    2790:	00001821 	move	v1,zero
    2794:	8cc2002c 	lw	v0,44(a2)
    2798:	0a0009b8 	j	0x80026e0
    279c:	24430001 	addiu	v1,v0,1
    27a0:	8cc20014 	lw	v0,20(a2)
    27a4:	24430001 	addiu	v1,v0,1
    27a8:	8cc20018 	lw	v0,24(a2)
    27ac:	0043102b 	sltu	v0,v0,v1
    27b0:	50400009 	beqzl	v0,0x27d8
    27b4:	24070001 	li	a3,1
    27b8:	24020027 	li	v0,39
    27bc:	14a20003 	bne	a1,v0,0x27cc
    27c0:	00000000 	nop
    27c4:	0a0009c4 	j	0x8002710
    27c8:	24070001 	li	a3,1
    27cc:	9522003e 	lhu	v0,62(t1)
    27d0:	24420001 	addiu	v0,v0,1
    27d4:	a522003e 	sh	v0,62(t1)
    27d8:	000a1382 	srl	v0,t2,0xe
    27dc:	30430003 	andi	v1,v0,0x3
    27e0:	2c620002 	sltiu	v0,v1,2
    27e4:	10400009 	beqz	v0,0x280c
    27e8:	00802821 	move	a1,a0
    27ec:	14600004 	bnez	v1,0x2800
    27f0:	00000000 	nop
    27f4:	94c20036 	lhu	v0,54(a2)
    27f8:	0a0009d4 	j	0x8002750
    27fc:	3046ffff 	andi	a2,v0,0xffff
    2800:	8cc60038 	lw	a2,56(a2)
    2804:	0a0009d4 	j	0x8002750
    2808:	00802821 	move	a1,a0
    280c:	00003021 	move	a2,zero
    2810:	3c040800 	lui	a0,0x800
    2814:	24844dd8 	addiu	a0,a0,19928
    2818:	0a000921 	j	0x8002484
    281c:	00000000 	nop
    2820:	27490100 	addiu	t1,k0,256
    2824:	8d22000c 	lw	v0,12(t1)
    2828:	95230006 	lhu	v1,6(t1)
    282c:	01202021 	move	a0,t1
    2830:	00021602 	srl	v0,v0,0x18
    2834:	3046003f 	andi	a2,v0,0x3f
    2838:	3063ffff 	andi	v1,v1,0xffff
    283c:	24020027 	li	v0,39
    2840:	00c02821 	move	a1,a2
    2844:	28c70028 	slti	a3,a2,40
    2848:	10c2000e 	beq	a2,v0,0x2884
    284c:	af830024 	sw	v1,36(gp)
    2850:	10e00008 	beqz	a3,0x2874
    2854:	24020031 	li	v0,49
    2858:	24020021 	li	v0,33
    285c:	10c20009 	beq	a2,v0,0x2884
    2860:	24020025 	li	v0,37
    2864:	10c20007 	beq	a2,v0,0x2884
    2868:	9382002d 	lbu	v0,45(gp)
    286c:	0a0009f3 	j	0x80027cc
    2870:	00000000 	nop
    2874:	10c20005 	beq	a2,v0,0x288c
    2878:	9382002d 	lbu	v0,45(gp)
    287c:	0a0009f3 	j	0x80027cc
    2880:	00000000 	nop
    2884:	0a00098c 	j	0x8002630
    2888:	00000000 	nop
    288c:	0a0006be 	j	0x8001af8
    2890:	00000000 	nop
    2894:	95230006 	lhu	v1,6(t1)
    2898:	91240005 	lbu	a0,5(t1)
    289c:	8d25000c 	lw	a1,12(t1)
    28a0:	8d260010 	lw	a2,16(t1)
    28a4:	8d270018 	lw	a3,24(t1)
    28a8:	8d28001c 	lw	t0,28(t1)
    28ac:	8d290020 	lw	t1,32(t1)
    28b0:	24420001 	addiu	v0,v0,1
    28b4:	3c010800 	lui	at,0x800
    28b8:	a4234dde 	sh	v1,19934(at)
    28bc:	3c010800 	lui	at,0x800
    28c0:	a0244ddd 	sb	a0,19933(at)
    28c4:	3c010800 	lui	at,0x800
    28c8:	ac254de4 	sw	a1,19940(at)
    28cc:	3c010800 	lui	at,0x800
    28d0:	ac264de8 	sw	a2,19944(at)
    28d4:	3c010800 	lui	at,0x800
    28d8:	ac274df0 	sw	a3,19952(at)
    28dc:	3c010800 	lui	at,0x800
    28e0:	ac284df4 	sw	t0,19956(at)
    28e4:	3c010800 	lui	at,0x800
    28e8:	ac294df8 	sw	t1,19960(at)
    28ec:	03e00008 	jr	ra
    28f0:	a382002d 	sb	v0,45(gp)
    28f4:	8f870028 	lw	a3,40(gp)
    28f8:	27bdffc0 	addiu	sp,sp,-64
    28fc:	afb30034 	sw	s3,52(sp)
    2900:	afb20030 	sw	s2,48(sp)
    2904:	afb1002c 	sw	s1,44(sp)
    2908:	afb00028 	sw	s0,40(sp)
    290c:	afbf0038 	sw	ra,56(sp)
    2910:	3c020800 	lui	v0,0x800
    2914:	8c4200d0 	lw	v0,208(v0)
    2918:	94e30030 	lhu	v1,48(a3)
    291c:	30b0ffff 	andi	s0,a1,0xffff
    2920:	00501007 	srav	v0,s0,v0
    2924:	3045ffff 	andi	a1,v0,0xffff
    2928:	3063ffff 	andi	v1,v1,0xffff
    292c:	00c09821 	move	s3,a2
    2930:	a7a20010 	sh	v0,16(sp)
    2934:	3c110800 	lui	s1,0x800
    2938:	963100c6 	lhu	s1,198(s1)
    293c:	14a30006 	bne	a1,v1,0x2958
    2940:	3092ffff 	andi	s2,a0,0xffff
    2944:	8ce20024 	lw	v0,36(a3)
    2948:	24420030 	addiu	v0,v0,48
    294c:	af42003c 	sw	v0,60(k0)
    2950:	0a000a2c 	j	0x80028b0
    2954:	8ce20020 	lw	v0,32(a3)
    2958:	94e20032 	lhu	v0,50(a3)
    295c:	3042ffff 	andi	v0,v0,0xffff
    2960:	54a20008 	bnel	a1,v0,0x2984
    2964:	27a40018 	addiu	a0,sp,24
    2968:	8ce2002c 	lw	v0,44(a3)
    296c:	24420030 	addiu	v0,v0,48
    2970:	af42003c 	sw	v0,60(k0)
    2974:	8ce20028 	lw	v0,40(a3)
    2978:	af420038 	sw	v0,56(k0)
    297c:	0a000a3a 	j	0x80028e8
    2980:	8f840028 	lw	a0,40(gp)
    2984:	27a50010 	addiu	a1,sp,16
    2988:	27a60020 	addiu	a2,sp,32
    298c:	02203821 	move	a3,s1
    2990:	0e0008b0 	jal	0x80022c0
    2994:	a7a00020 	sh	zero,32(sp)
    2998:	8fa20018 	lw	v0,24(sp)
    299c:	24420030 	addiu	v0,v0,48
    29a0:	af420038 	sw	v0,56(k0)
    29a4:	8fa2001c 	lw	v0,28(sp)
    29a8:	af42003c 	sw	v0,60(k0)
    29ac:	8f840028 	lw	a0,40(gp)
    29b0:	3c020005 	lui	v0,0x5
    29b4:	af420030 	sw	v0,48(k0)
    29b8:	94820034 	lhu	v0,52(a0)
    29bc:	27430400 	addiu	v1,k0,1024
    29c0:	3042ffff 	andi	v0,v0,0xffff
    29c4:	0202102b 	sltu	v0,s0,v0
    29c8:	14400007 	bnez	v0,0x29e8
    29cc:	af830030 	sw	v1,48(gp)
    29d0:	94820054 	lhu	v0,84(a0)
    29d4:	94830034 	lhu	v1,52(a0)
    29d8:	02021021 	addu	v0,s0,v0
    29dc:	00431023 	subu	v0,v0,v1
    29e0:	0a000a4e 	j	0x8002938
    29e4:	3043ffff 	andi	v1,v0,0xffff
    29e8:	94830054 	lhu	v1,84(a0)
    29ec:	94820034 	lhu	v0,52(a0)
    29f0:	02231821 	addu	v1,s1,v1
    29f4:	00501023 	subu	v0,v0,s0
    29f8:	00621823 	subu	v1,v1,v0
    29fc:	3063ffff 	andi	v1,v1,0xffff
    2a00:	94820016 	lhu	v0,22(a0)
    2a04:	3042ffff 	andi	v0,v0,0xffff
    2a08:	14430003 	bne	v0,v1,0x2a18
    2a0c:	00000000 	nop
    2a10:	0a000a5c 	j	0x8002970
    2a14:	24030001 	li	v1,1
    2a18:	94820016 	lhu	v0,22(a0)
    2a1c:	3042ffff 	andi	v0,v0,0xffff
    2a20:	0043102b 	sltu	v0,v0,v1
    2a24:	10400005 	beqz	v0,0x2a3c
    2a28:	8f820030 	lw	v0,48(gp)
    2a2c:	94820016 	lhu	v0,22(a0)
    2a30:	00621023 	subu	v0,v1,v0
    2a34:	3043ffff 	andi	v1,v0,0xffff
    2a38:	8f820030 	lw	v0,48(gp)
    2a3c:	ac530000 	sw	s3,0(v0)
    2a40:	ac400004 	sw	zero,4(v0)
    2a44:	ac520008 	sw	s2,8(v0)
    2a48:	ac43000c 	sw	v1,12(v0)
    2a4c:	3c020006 	lui	v0,0x6
    2a50:	34420010 	ori	v0,v0,0x10
    2a54:	af420030 	sw	v0,48(k0)
	...
    2a64:	8f420000 	lw	v0,0(k0)
    2a68:	30420010 	andi	v0,v0,0x10
    2a6c:	1040fffd 	beqz	v0,0x2a64
    2a70:	001018c2 	srl	v1,s0,0x3
    2a74:	00641821 	addu	v1,v1,a0
    2a78:	90650040 	lbu	a1,64(v1)
    2a7c:	32040007 	andi	a0,s0,0x7
    2a80:	24020001 	li	v0,1
    2a84:	8fbf0038 	lw	ra,56(sp)
    2a88:	8fb30034 	lw	s3,52(sp)
    2a8c:	8fb20030 	lw	s2,48(sp)
    2a90:	8fb1002c 	lw	s1,44(sp)
    2a94:	8fb00028 	lw	s0,40(sp)
    2a98:	00821004 	sllv	v0,v0,a0
    2a9c:	00451025 	or	v0,v0,a1
    2aa0:	27bd0040 	addiu	sp,sp,64
    2aa4:	03e00008 	jr	ra
    2aa8:	a0620040 	sb	v0,64(v1)
    2aac:	27bdffa8 	addiu	sp,sp,-88
    2ab0:	afb60050 	sw	s6,80(sp)
    2ab4:	afb5004c 	sw	s5,76(sp)
    2ab8:	afb40048 	sw	s4,72(sp)
    2abc:	afb30044 	sw	s3,68(sp)
    2ac0:	afb1003c 	sw	s1,60(sp)
    2ac4:	afbf0054 	sw	ra,84(sp)
    2ac8:	afb20040 	sw	s2,64(sp)
    2acc:	afb00038 	sw	s0,56(sp)
    2ad0:	8c900000 	lw	s0,0(a0)
    2ad4:	3c020800 	lui	v0,0x800
    2ad8:	8c4200e8 	lw	v0,232(v0)
    2adc:	8f860034 	lw	a2,52(gp)
    2ae0:	96030002 	lhu	v1,2(s0)
    2ae4:	2413ff80 	li	s3,-128
    2ae8:	00c23021 	addu	a2,a2,v0
    2aec:	30633fff 	andi	v1,v1,0x3fff
    2af0:	00031980 	sll	v1,v1,0x6
    2af4:	00c33821 	addu	a3,a2,v1
    2af8:	00f31024 	and	v0,a3,s3
    2afc:	90b20000 	lbu	s2,0(a1)
    2b00:	af42002c 	sw	v0,44(k0)
    2b04:	92030002 	lbu	v1,2(s0)
    2b08:	30e2007f 	andi	v0,a3,0x7f
    2b0c:	03423021 	addu	a2,k0,v0
    2b10:	3c02000e 	lui	v0,0xe
    2b14:	00c28821 	addu	s1,a2,v0
    2b18:	306300c0 	andi	v1,v1,0xc0
    2b1c:	24020040 	li	v0,64
    2b20:	0080a821 	move	s5,a0
    2b24:	00a0b021 	move	s6,a1
    2b28:	14620026 	bne	v1,v0,0x2bc4
    2b2c:	0000a021 	move	s4,zero
    2b30:	8e340038 	lw	s4,56(s1)
    2b34:	8e220018 	lw	v0,24(s1)
    2b38:	14400002 	bnez	v0,0x2b44
    2b3c:	24020001 	li	v0,1
    2b40:	ae220018 	sw	v0,24(s1)
    2b44:	9202000d 	lbu	v0,13(s0)
    2b48:	30420020 	andi	v0,v0,0x20
    2b4c:	14400015 	bnez	v0,0x2ba4
    2b50:	8f820034 	lw	v0,52(gp)
    2b54:	3c030800 	lui	v1,0x800
    2b58:	8c6300dc 	lw	v1,220(v1)
    2b5c:	001238c0 	sll	a3,s2,0x3
    2b60:	00123140 	sll	a2,s2,0x5
    2b64:	00431021 	addu	v0,v0,v1
    2b68:	00c73021 	addu	a2,a2,a3
    2b6c:	00463821 	addu	a3,v0,a2
    2b70:	30e30007 	andi	v1,a3,0x7
    2b74:	3c020080 	lui	v0,0x80
    2b78:	30e60078 	andi	a2,a3,0x78
    2b7c:	00c23025 	or	a2,a2,v0
    2b80:	03431821 	addu	v1,k0,v1
    2b84:	00f31024 	and	v0,a3,s3
    2b88:	af420800 	sw	v0,2048(k0)
    2b8c:	24630900 	addiu	v1,v1,2304
    2b90:	af460810 	sw	a2,2064(k0)
    2b94:	8e220018 	lw	v0,24(s1)
    2b98:	8c630008 	lw	v1,8(v1)
    2b9c:	00431021 	addu	v0,v0,v1
    2ba0:	ae220018 	sw	v0,24(s1)
    2ba4:	8e22002c 	lw	v0,44(s1)
    2ba8:	8e230018 	lw	v1,24(s1)
    2bac:	24420001 	addiu	v0,v0,1
    2bb0:	0062182b 	sltu	v1,v1,v0
    2bb4:	1060003d 	beqz	v1,0x2cac
    2bb8:	00000000 	nop
    2bbc:	0a000b10 	j	0x8002c40
    2bc0:	00000000 	nop
    2bc4:	92030002 	lbu	v1,2(s0)
    2bc8:	2402ffc0 	li	v0,-64
    2bcc:	00431024 	and	v0,v0,v1
    2bd0:	304200ff 	andi	v0,v0,0xff
    2bd4:	14400005 	bnez	v0,0x2bec
    2bd8:	24020001 	li	v0,1
    2bdc:	ae220018 	sw	v0,24(s1)
    2be0:	96220036 	lhu	v0,54(s1)
    2be4:	0a000af9 	j	0x8002be4
    2be8:	3054ffff 	andi	s4,v0,0xffff
    2bec:	8e220014 	lw	v0,20(s1)
    2bf0:	24420001 	addiu	v0,v0,1
    2bf4:	ae220018 	sw	v0,24(s1)
    2bf8:	92020000 	lbu	v0,0(s0)
    2bfc:	00021600 	sll	v0,v0,0x18
    2c00:	00021603 	sra	v0,v0,0x18
    2c04:	04410029 	bgez	v0,0x2cac
    2c08:	00000000 	nop
    2c0c:	96020002 	lhu	v0,2(s0)
    2c10:	27a40010 	addiu	a0,sp,16
    2c14:	00802821 	move	a1,a0
    2c18:	a7a20016 	sh	v0,22(sp)
    2c1c:	96020002 	lhu	v0,2(s0)
    2c20:	24070001 	li	a3,1
    2c24:	00003021 	move	a2,zero
    2c28:	3042ffff 	andi	v0,v0,0xffff
    2c2c:	af820024 	sw	v0,36(gp)
    2c30:	0e000921 	jal	0x8002484
    2c34:	afa0001c 	sw	zero,28(sp)
    2c38:	96030002 	lhu	v1,2(s0)
    2c3c:	3c040800 	lui	a0,0x800
    2c40:	8c8400e8 	lw	a0,232(a0)
    2c44:	8f820034 	lw	v0,52(gp)
    2c48:	30633fff 	andi	v1,v1,0x3fff
    2c4c:	00031980 	sll	v1,v1,0x6
    2c50:	00441021 	addu	v0,v0,a0
    2c54:	00431021 	addu	v0,v0,v1
    2c58:	3043007f 	andi	v1,v0,0x7f
    2c5c:	3c05000c 	lui	a1,0xc
    2c60:	00531024 	and	v0,v0,s3
    2c64:	03431821 	addu	v1,k0,v1
    2c68:	af420028 	sw	v0,40(k0)
    2c6c:	00651821 	addu	v1,v1,a1
    2c70:	9062000d 	lbu	v0,13(v1)
    2c74:	00122140 	sll	a0,s2,0x5
    2c78:	3042007f 	andi	v0,v0,0x7f
    2c7c:	a062000d 	sb	v0,13(v1)
    2c80:	3c030800 	lui	v1,0x800
    2c84:	8c6300e4 	lw	v1,228(v1)
    2c88:	8f820034 	lw	v0,52(gp)
    2c8c:	00431021 	addu	v0,v0,v1
    2c90:	00443821 	addu	a3,v0,a0
    2c94:	30e2007f 	andi	v0,a3,0x7f
    2c98:	03421021 	addu	v0,k0,v0
    2c9c:	00451021 	addu	v0,v0,a1
    2ca0:	00f31824 	and	v1,a3,s3
    2ca4:	af430028 	sw	v1,40(k0)
    2ca8:	aea20000 	sw	v0,0(s5)
    2cac:	9222000d 	lbu	v0,13(s1)
    2cb0:	30420010 	andi	v0,v0,0x10
    2cb4:	10400013 	beqz	v0,0x2d04
    2cb8:	02a02021 	move	a0,s5
    2cbc:	8f830028 	lw	v1,40(gp)
    2cc0:	8ea40000 	lw	a0,0(s5)
    2cc4:	02803021 	move	a2,s4
    2cc8:	9462003e 	lhu	v0,62(v1)
    2ccc:	2442ffff 	addiu	v0,v0,-1
    2cd0:	a462003e 	sh	v0,62(v1)
    2cd4:	94840002 	lhu	a0,2(a0)
    2cd8:	9625000e 	lhu	a1,14(s1)
    2cdc:	3084ffff 	andi	a0,a0,0xffff
    2ce0:	0e000a0b 	jal	0x800282c
    2ce4:	30a5ffff 	andi	a1,a1,0xffff
    2ce8:	8f820028 	lw	v0,40(gp)
    2cec:	94430034 	lhu	v1,52(v0)
    2cf0:	9622000e 	lhu	v0,14(s1)
    2cf4:	14430003 	bne	v0,v1,0x2d04
    2cf8:	02a02021 	move	a0,s5
    2cfc:	24020001 	li	v0,1
    2d00:	a382002c 	sb	v0,44(gp)
    2d04:	02c02821 	move	a1,s6
    2d08:	0e000896 	jal	0x8002258
    2d0c:	00000000 	nop
    2d10:	8fbf0054 	lw	ra,84(sp)
    2d14:	8fb60050 	lw	s6,80(sp)
    2d18:	8fb5004c 	lw	s5,76(sp)
    2d1c:	8fb40048 	lw	s4,72(sp)
    2d20:	8fb30044 	lw	s3,68(sp)
    2d24:	8fb20040 	lw	s2,64(sp)
    2d28:	8fb1003c 	lw	s1,60(sp)
    2d2c:	8fb00038 	lw	s0,56(sp)
    2d30:	03e00008 	jr	ra
    2d34:	27bd0058 	addiu	sp,sp,88
    2d38:	8f820028 	lw	v0,40(gp)
    2d3c:	27bdffd0 	addiu	sp,sp,-48
    2d40:	afb40028 	sw	s4,40(sp)
    2d44:	afb20020 	sw	s2,32(sp)
    2d48:	afbf002c 	sw	ra,44(sp)
    2d4c:	afb30024 	sw	s3,36(sp)
    2d50:	afb1001c 	sw	s1,28(sp)
    2d54:	afb00018 	sw	s0,24(sp)
    2d58:	904400d0 	lbu	a0,208(v0)
    2d5c:	904300d1 	lbu	v1,209(v0)
    2d60:	0000a021 	move	s4,zero
    2d64:	309200ff 	andi	s2,a0,0xff
    2d68:	a3a30010 	sb	v1,16(sp)
    2d6c:	306300ff 	andi	v1,v1,0xff
    2d70:	8c5100d8 	lw	s1,216(v0)
    2d74:	8c5300dc 	lw	s3,220(v0)
    2d78:	1072002b 	beq	v1,s2,0x2e28
    2d7c:	24020001 	li	v0,1
    2d80:	3c030800 	lui	v1,0x800
    2d84:	8c6300e4 	lw	v1,228(v1)
    2d88:	93a40010 	lbu	a0,16(sp)
    2d8c:	8f820034 	lw	v0,52(gp)
    2d90:	2406ff80 	li	a2,-128
    2d94:	00042140 	sll	a0,a0,0x5
    2d98:	00431021 	addu	v0,v0,v1
    2d9c:	00441021 	addu	v0,v0,a0
    2da0:	3043007f 	andi	v1,v0,0x7f
    2da4:	00461024 	and	v0,v0,a2
    2da8:	af420028 	sw	v0,40(k0)
    2dac:	03431821 	addu	v1,k0,v1
    2db0:	3c02000c 	lui	v0,0xc
    2db4:	00621821 	addu	v1,v1,v0
    2db8:	8c620004 	lw	v0,4(v1)
    2dbc:	27a40014 	addiu	a0,sp,20
    2dc0:	27a50010 	addiu	a1,sp,16
    2dc4:	02228021 	addu	s0,s1,v0
    2dc8:	02701023 	subu	v0,s3,s0
    2dcc:	04400015 	bltz	v0,0x2e24
    2dd0:	afa30014 	sw	v1,20(sp)
    2dd4:	9062000d 	lbu	v0,13(v1)
    2dd8:	00c21024 	and	v0,a2,v0
    2ddc:	304200ff 	andi	v0,v0,0xff
    2de0:	14400007 	bnez	v0,0x2e00
    2de4:	02008821 	move	s1,s0
    2de8:	9062000d 	lbu	v0,13(v1)
    2dec:	34420040 	ori	v0,v0,0x40
    2df0:	0e000896 	jal	0x8002258
    2df4:	a062000d 	sb	v0,13(v1)
    2df8:	0a000b55 	j	0x8002d54
    2dfc:	93a20010 	lbu	v0,16(sp)
    2e00:	0e000a79 	jal	0x80029e4
    2e04:	24140001 	li	s4,1
    2e08:	8f830028 	lw	v1,40(gp)
    2e0c:	ac7000d8 	sw	s0,216(v1)
    2e10:	93a20010 	lbu	v0,16(sp)
    2e14:	a06200d1 	sb	v0,209(v1)
    2e18:	93a20010 	lbu	v0,16(sp)
    2e1c:	1452ffd8 	bne	v0,s2,0x2d80
    2e20:	00000000 	nop
    2e24:	24020001 	li	v0,1
    2e28:	16820004 	bne	s4,v0,0x2e3c
    2e2c:	8fbf002c 	lw	ra,44(sp)
    2e30:	0e0006be 	jal	0x8001af8
    2e34:	00000000 	nop
    2e38:	8fbf002c 	lw	ra,44(sp)
    2e3c:	8fb40028 	lw	s4,40(sp)
    2e40:	8fb30024 	lw	s3,36(sp)
    2e44:	8fb20020 	lw	s2,32(sp)
    2e48:	8fb1001c 	lw	s1,28(sp)
    2e4c:	8fb00018 	lw	s0,24(sp)
    2e50:	03e00008 	jr	ra
    2e54:	27bd0030 	addiu	sp,sp,48
    2e58:	27bdffd8 	addiu	sp,sp,-40
    2e5c:	afb3001c 	sw	s3,28(sp)
    2e60:	afb20018 	sw	s2,24(sp)
    2e64:	afb10014 	sw	s1,20(sp)
    2e68:	afb00010 	sw	s0,16(sp)
    2e6c:	afbf0020 	sw	ra,32(sp)
    2e70:	00809821 	move	s3,a0
    2e74:	00e08021 	move	s0,a3
    2e78:	30b1ffff 	andi	s1,a1,0xffff
    2e7c:	0e00052b 	jal	0x80014ac
    2e80:	30d200ff 	andi	s2,a2,0xff
	...
    2e90:	8f820020 	lw	v0,32(gp)
    2e94:	ac510000 	sw	s1,0(v0)
    2e98:	ac520004 	sw	s2,4(v0)
    2e9c:	ac530008 	sw	s3,8(v0)
    2ea0:	ac40000c 	sw	zero,12(v0)
    2ea4:	ac400010 	sw	zero,16(v0)
    2ea8:	ac400014 	sw	zero,20(v0)
    2eac:	ac400018 	sw	zero,24(v0)
    2eb0:	3c030800 	lui	v1,0x800
    2eb4:	94634dbe 	lhu	v1,19902(v1)
    2eb8:	02038025 	or	s0,s0,v1
    2ebc:	ac50001c 	sw	s0,28(v0)
	...
    2ecc:	24040001 	li	a0,1
    2ed0:	8fbf0020 	lw	ra,32(sp)
    2ed4:	8fb3001c 	lw	s3,28(sp)
    2ed8:	8fb20018 	lw	s2,24(sp)
    2edc:	8fb10014 	lw	s1,20(sp)
    2ee0:	8fb00010 	lw	s0,16(sp)
    2ee4:	0a000550 	j	0x8001540
    2ee8:	27bd0028 	addiu	sp,sp,40
    2eec:	27bdffe8 	addiu	sp,sp,-24
    2ef0:	afb00010 	sw	s0,16(sp)
    2ef4:	afbf0014 	sw	ra,20(sp)
    2ef8:	30a5ffff 	andi	a1,a1,0xffff
    2efc:	30c600ff 	andi	a2,a2,0xff
    2f00:	00808021 	move	s0,a0
    2f04:	24020c80 	li	v0,3200
    2f08:	af420024 	sw	v0,36(k0)
	...
    2f20:	0e000b64 	jal	0x8002d90
    2f24:	00000000 	nop
    2f28:	3c040800 	lui	a0,0x800
    2f2c:	248400e0 	addiu	a0,a0,224
    2f30:	8c820000 	lw	v0,0(a0)
    2f34:	2403ff80 	li	v1,-128
    2f38:	8fbf0014 	lw	ra,20(sp)
    2f3c:	02021021 	addu	v0,s0,v0
    2f40:	00431024 	and	v0,v0,v1
    2f44:	af420024 	sw	v0,36(k0)
    2f48:	8c820000 	lw	v0,0(a0)
    2f4c:	3c03000a 	lui	v1,0xa
    2f50:	02028021 	addu	s0,s0,v0
    2f54:	3210007f 	andi	s0,s0,0x7f
    2f58:	03501021 	addu	v0,k0,s0
    2f5c:	8fb00010 	lw	s0,16(sp)
    2f60:	00431021 	addu	v0,v0,v1
    2f64:	27bd0018 	addiu	sp,sp,24
    2f68:	03e00008 	jr	ra
    2f6c:	af820028 	sw	v0,40(gp)
    2f70:	27bdffe8 	addiu	sp,sp,-24
    2f74:	afbf0010 	sw	ra,16(sp)
    2f78:	8f440140 	lw	a0,320(k0)
    2f7c:	3c030800 	lui	v1,0x800
    2f80:	8c6300e0 	lw	v1,224(v1)
    2f84:	2402ff80 	li	v0,-128
    2f88:	af840034 	sw	a0,52(gp)
    2f8c:	00831821 	addu	v1,a0,v1
    2f90:	00621024 	and	v0,v1,v0
    2f94:	af420024 	sw	v0,36(k0)
    2f98:	3c020008 	lui	v0,0x8
    2f9c:	03424021 	addu	t0,k0,v0
    2fa0:	95050002 	lhu	a1,2(t0)
    2fa4:	3063007f 	andi	v1,v1,0x7f
    2fa8:	3c02000a 	lui	v0,0xa
    2fac:	03431821 	addu	v1,k0,v1
    2fb0:	00621821 	addu	v1,v1,v0
    2fb4:	30a5ffff 	andi	a1,a1,0xffff
    2fb8:	3402ffff 	li	v0,0xffff
    2fbc:	00003021 	move	a2,zero
    2fc0:	3c076020 	lui	a3,0x6020
    2fc4:	10a20006 	beq	a1,v0,0x2fe0
    2fc8:	af830028 	sw	v1,40(gp)
    2fcc:	2402ffff 	li	v0,-1
    2fd0:	a5020002 	sh	v0,2(t0)
    2fd4:	946500d4 	lhu	a1,212(v1)
    2fd8:	0e000b89 	jal	0x8002e24
    2fdc:	30a5ffff 	andi	a1,a1,0xffff
    2fe0:	8fbf0010 	lw	ra,16(sp)
    2fe4:	24020c80 	li	v0,3200
    2fe8:	27bd0018 	addiu	sp,sp,24
    2fec:	03e00008 	jr	ra
    2ff0:	af420024 	sw	v0,36(k0)
    2ff4:	3c020008 	lui	v0,0x8
    2ff8:	03424021 	addu	t0,k0,v0
    2ffc:	95020002 	lhu	v0,2(t0)
    3000:	3c0a0800 	lui	t2,0x800
    3004:	954a00c6 	lhu	t2,198(t2)
    3008:	3046ffff 	andi	a2,v0,0xffff
    300c:	14c00007 	bnez	a2,0x302c
    3010:	3402ffff 	li	v0,0xffff
    3014:	8f820028 	lw	v0,40(gp)
    3018:	8f840034 	lw	a0,52(gp)
    301c:	3c076020 	lui	a3,0x6020
    3020:	944500d4 	lhu	a1,212(v0)
    3024:	0a000bf2 	j	0x8002fc8
    3028:	30a5ffff 	andi	a1,a1,0xffff
    302c:	10c20024 	beq	a2,v0,0x30c0
    3030:	8f870028 	lw	a3,40(gp)
    3034:	94e20054 	lhu	v0,84(a3)
    3038:	94e40016 	lhu	a0,22(a3)
    303c:	3045ffff 	andi	a1,v0,0xffff
    3040:	00a61023 	subu	v0,a1,a2
    3044:	00a6182b 	sltu	v1,a1,a2
    3048:	3089ffff 	andi	t1,a0,0xffff
    304c:	10600004 	beqz	v1,0x3060
    3050:	3044ffff 	andi	a0,v0,0xffff
    3054:	00c51023 	subu	v0,a2,a1
    3058:	01221023 	subu	v0,t1,v0
    305c:	3044ffff 	andi	a0,v0,0xffff
    3060:	008a102b 	sltu	v0,a0,t2
    3064:	1040000c 	beqz	v0,0x3098
    3068:	012a1023 	subu	v0,t1,t2
    306c:	24020001 	li	v0,1
    3070:	a5020016 	sh	v0,22(t0)
    3074:	2402ffff 	li	v0,-1
    3078:	a5020002 	sh	v0,2(t0)
    307c:	94e500d4 	lhu	a1,212(a3)
    3080:	8f840034 	lw	a0,52(gp)
    3084:	00003021 	move	a2,zero
    3088:	30a5ffff 	andi	a1,a1,0xffff
    308c:	3c076020 	lui	a3,0x6020
    3090:	0a000b89 	j	0x8002e24
    3094:	00000000 	nop
    3098:	0044102a 	slt	v0,v0,a0
    309c:	10400008 	beqz	v0,0x30c0
    30a0:	00000000 	nop
    30a4:	95020016 	lhu	v0,22(t0)
    30a8:	30420001 	andi	v0,v0,0x1
    30ac:	10400004 	beqz	v0,0x30c0
    30b0:	00000000 	nop
    30b4:	9742007e 	lhu	v0,126(k0)
    30b8:	24420014 	addiu	v0,v0,20
    30bc:	a5020016 	sh	v0,22(t0)
    30c0:	03e00008 	jr	ra
    30c4:	00000000 	nop
    30c8:	8f840028 	lw	a0,40(gp)
    30cc:	27bdffe0 	addiu	sp,sp,-32
    30d0:	afbf0018 	sw	ra,24(sp)
    30d4:	94820034 	lhu	v0,52(a0)
    30d8:	9483003e 	lhu	v1,62(a0)
    30dc:	1060001a 	beqz	v1,0x3148
    30e0:	3048ffff 	andi	t0,v0,0xffff
    30e4:	9383002c 	lbu	v1,44(gp)
    30e8:	24020001 	li	v0,1
    30ec:	14620027 	bne	v1,v0,0x318c
    30f0:	8fbf0018 	lw	ra,24(sp)
    30f4:	8f820028 	lw	v0,40(gp)
    30f8:	000818c2 	srl	v1,t0,0x3
    30fc:	31080007 	andi	t0,t0,0x7
    3100:	00621821 	addu	v1,v1,v0
    3104:	2447003a 	addiu	a3,v0,58
    3108:	24490054 	addiu	t1,v0,84
    310c:	24440020 	addiu	a0,v0,32
    3110:	24450030 	addiu	a1,v0,48
    3114:	24460034 	addiu	a2,v0,52
    3118:	90620040 	lbu	v0,64(v1)
    311c:	304200ff 	andi	v0,v0,0xff
    3120:	01021007 	srav	v0,v0,t0
    3124:	30420001 	andi	v0,v0,0x1
    3128:	10400016 	beqz	v0,0x3184
    312c:	8fbf0018 	lw	ra,24(sp)
    3130:	0e0008ee 	jal	0x80023b8
    3134:	afa90010 	sw	t1,16(sp)
    3138:	8f820028 	lw	v0,40(gp)
    313c:	94420034 	lhu	v0,52(v0)
    3140:	0a000c0b 	j	0x800302c
    3144:	3048ffff 	andi	t0,v0,0xffff
    3148:	94830036 	lhu	v1,54(a0)
    314c:	94820034 	lhu	v0,52(a0)
    3150:	1043000e 	beq	v0,v1,0x318c
    3154:	8fbf0018 	lw	ra,24(sp)
    3158:	94820036 	lhu	v0,54(a0)
    315c:	a4820034 	sh	v0,52(a0)
    3160:	94820056 	lhu	v0,86(a0)
    3164:	a4820054 	sh	v0,84(a0)
    3168:	8c82002c 	lw	v0,44(a0)
    316c:	ac820024 	sw	v0,36(a0)
    3170:	94820032 	lhu	v0,50(a0)
    3174:	a4820030 	sh	v0,48(a0)
    3178:	9482003c 	lhu	v0,60(a0)
    317c:	a482003a 	sh	v0,58(a0)
    3180:	8fbf0018 	lw	ra,24(sp)
    3184:	0a000bcb 	j	0x8002f2c
    3188:	27bd0020 	addiu	sp,sp,32
    318c:	03e00008 	jr	ra
    3190:	27bd0020 	addiu	sp,sp,32
    3194:	27bdffe8 	addiu	sp,sp,-24
    3198:	afbf0010 	sw	ra,16(sp)
    319c:	8f4a0100 	lw	t2,256(k0)
    31a0:	3c050800 	lui	a1,0x800
    31a4:	8ca500e0 	lw	a1,224(a1)
    31a8:	3c020800 	lui	v0,0x800
    31ac:	90424de4 	lbu	v0,19940(v0)
    31b0:	3c0c0800 	lui	t4,0x800
    31b4:	958c4dde 	lhu	t4,19934(t4)
    31b8:	01452821 	addu	a1,t2,a1
    31bc:	304b003f 	andi	t3,v0,0x3f
    31c0:	30a2007f 	andi	v0,a1,0x7f
    31c4:	03424021 	addu	t0,k0,v0
    31c8:	39690032 	xori	t1,t3,0x32
    31cc:	3c02000a 	lui	v0,0xa
    31d0:	3963003f 	xori	v1,t3,0x3f
    31d4:	2c630001 	sltiu	v1,v1,1
    31d8:	01024021 	addu	t0,t0,v0
    31dc:	2d290001 	sltiu	t1,t1,1
    31e0:	2402ff80 	li	v0,-128
    31e4:	00a22824 	and	a1,a1,v0
    31e8:	01234825 	or	t1,t1,v1
    31ec:	af8a0034 	sw	t2,52(gp)
    31f0:	00801821 	move	v1,a0
    31f4:	af450024 	sw	a1,36(k0)
    31f8:	00003021 	move	a2,zero
    31fc:	00802821 	move	a1,a0
    3200:	24070001 	li	a3,1
    3204:	af880028 	sw	t0,40(gp)
    3208:	3c040800 	lui	a0,0x800
    320c:	24844dd8 	addiu	a0,a0,19928
    3210:	af8c0024 	sw	t4,36(gp)
    3214:	15200007 	bnez	t1,0x3234
    3218:	a380002d 	sb	zero,45(gp)
    321c:	24020020 	li	v0,32
    3220:	5562000f 	bnel	t3,v0,0x3260
    3224:	00602021 	move	a0,v1
    3228:	3402ffff 	li	v0,0xffff
    322c:	5582000c 	bnel	t4,v0,0x3260
    3230:	00602021 	move	a0,v1
    3234:	24020020 	li	v0,32
    3238:	15620005 	bne	t3,v0,0x3250
    323c:	00000000 	nop
    3240:	8c630014 	lw	v1,20(v1)
    3244:	2402ffff 	li	v0,-1
    3248:	10620007 	beq	v1,v0,0x3268
    324c:	00000000 	nop
    3250:	0e000921 	jal	0x8002484
    3254:	00000000 	nop
    3258:	0a000c68 	j	0x80031a0
    325c:	00000000 	nop
    3260:	0e00098c 	jal	0x8002630
    3264:	01602821 	move	a1,t3
    3268:	0e000c00 	jal	0x8003000
    326c:	00000000 	nop
    3270:	8fbf0010 	lw	ra,16(sp)
    3274:	24020c80 	li	v0,3200
    3278:	27bd0018 	addiu	sp,sp,24
    327c:	03e00008 	jr	ra
    3280:	af420024 	sw	v0,36(k0)
    3284:	3c020800 	lui	v0,0x800
    3288:	8c4200e0 	lw	v0,224(v0)
    328c:	27bdffa0 	addiu	sp,sp,-96
    3290:	afb1003c 	sw	s1,60(sp)
    3294:	00821021 	addu	v0,a0,v0
    3298:	2411ff80 	li	s1,-128
    329c:	afbe0058 	sw	s8,88(sp)
    32a0:	afb70054 	sw	s7,84(sp)
    32a4:	afb20040 	sw	s2,64(sp)
    32a8:	afb00038 	sw	s0,56(sp)
    32ac:	afbf005c 	sw	ra,92(sp)
    32b0:	afb60050 	sw	s6,80(sp)
    32b4:	afb5004c 	sw	s5,76(sp)
    32b8:	afb40048 	sw	s4,72(sp)
    32bc:	afb30044 	sw	s3,68(sp)
    32c0:	00511024 	and	v0,v0,s1
    32c4:	8f480024 	lw	t0,36(k0)
    32c8:	8f490028 	lw	t1,40(k0)
    32cc:	8f470028 	lw	a3,40(k0)
    32d0:	af420024 	sw	v0,36(k0)
    32d4:	3c020800 	lui	v0,0x800
    32d8:	8c4200e0 	lw	v0,224(v0)
    32dc:	00809021 	move	s2,a0
    32e0:	24060006 	li	a2,6
    32e4:	00821021 	addu	v0,a0,v0
    32e8:	3042007f 	andi	v0,v0,0x7f
    32ec:	03421821 	addu	v1,k0,v0
    32f0:	3c02000a 	lui	v0,0xa
    32f4:	00628021 	addu	s0,v1,v0
    32f8:	3c02001f 	lui	v0,0x1f
    32fc:	3442ff80 	ori	v0,v0,0xff80
    3300:	00e23824 	and	a3,a3,v0
    3304:	27a40010 	addiu	a0,sp,16
    3308:	260500f0 	addiu	a1,s0,240
    330c:	0122f024 	and	s8,t1,v0
    3310:	0102b824 	and	s7,t0,v0
    3314:	0e0005b5 	jal	0x80016d4
    3318:	afa70030 	sw	a3,48(sp)
    331c:	8fa20018 	lw	v0,24(sp)
    3320:	ae0200c4 	sw	v0,196(s0)
    3324:	8fa2001c 	lw	v0,28(sp)
    3328:	ae0200c8 	sw	v0,200(s0)
    332c:	8fa20024 	lw	v0,36(sp)
    3330:	ae0200cc 	sw	v0,204(s0)
    3334:	93a40010 	lbu	a0,16(sp)
    3338:	920300d1 	lbu	v1,209(s0)
    333c:	2402ff80 	li	v0,-128
    3340:	00821024 	and	v0,a0,v0
    3344:	00431025 	or	v0,v0,v1
    3348:	304900ff 	andi	t1,v0,0xff
    334c:	3083007f 	andi	v1,a0,0x7f
    3350:	3122007f 	andi	v0,t1,0x7f
    3354:	0062102a 	slt	v0,v1,v0
    3358:	10400004 	beqz	v0,0x336c
    335c:	000310c0 	sll	v0,v1,0x3
    3360:	01311026 	xor	v0,t1,s1
    3364:	304900ff 	andi	t1,v0,0xff
    3368:	000310c0 	sll	v0,v1,0x3
    336c:	00031940 	sll	v1,v1,0x5
    3370:	00621821 	addu	v1,v1,v0
    3374:	3c020800 	lui	v0,0x800
    3378:	8c4200dc 	lw	v0,220(v0)
    337c:	920400d2 	lbu	a0,210(s0)
    3380:	02421021 	addu	v0,s2,v0
    3384:	00431021 	addu	v0,v0,v1
    3388:	00511024 	and	v0,v0,s1
    338c:	af420028 	sw	v0,40(k0)
    3390:	93a30010 	lbu	v1,16(sp)
    3394:	3063007f 	andi	v1,v1,0x7f
    3398:	000310c0 	sll	v0,v1,0x3
    339c:	00031940 	sll	v1,v1,0x5
    33a0:	00621821 	addu	v1,v1,v0
    33a4:	3c020800 	lui	v0,0x800
    33a8:	8c4200dc 	lw	v0,220(v0)
    33ac:	02421021 	addu	v0,s2,v0
    33b0:	00431021 	addu	v0,v0,v1
    33b4:	3042007f 	andi	v0,v0,0x7f
    33b8:	03421821 	addu	v1,k0,v0
    33bc:	3c02000c 	lui	v0,0xc
    33c0:	00624021 	addu	t0,v1,v0
    33c4:	8fa30014 	lw	v1,20(sp)
    33c8:	2402ffff 	li	v0,-1
    33cc:	10620030 	beq	v1,v0,0x3490
    33d0:	309500ff 	andi	s5,a0,0xff
    33d4:	93a20011 	lbu	v0,17(sp)
    33d8:	95030014 	lhu	v1,20(t0)
    33dc:	304400ff 	andi	a0,v0,0xff
    33e0:	3063ffff 	andi	v1,v1,0xffff
    33e4:	0064182b 	sltu	v1,v1,a0
    33e8:	1060000d 	beqz	v1,0x3420
    33ec:	00000000 	nop
    33f0:	95040014 	lhu	a0,20(t0)
    33f4:	8d07001c 	lw	a3,28(t0)
    33f8:	8d060018 	lw	a2,24(t0)
    33fc:	3084ffff 	andi	a0,a0,0xffff
    3400:	00442023 	subu	a0,v0,a0
    3404:	00042100 	sll	a0,a0,0x4
    3408:	00001021 	move	v0,zero
    340c:	00e43821 	addu	a3,a3,a0
    3410:	00e4202b 	sltu	a0,a3,a0
    3414:	00c23021 	addu	a2,a2,v0
    3418:	0a000ce2 	j	0x8003388
    341c:	00c43021 	addu	a2,a2,a0
    3420:	95040014 	lhu	a0,20(t0)
    3424:	8d07001c 	lw	a3,28(t0)
    3428:	8d060018 	lw	a2,24(t0)
    342c:	3084ffff 	andi	a0,a0,0xffff
    3430:	00822023 	subu	a0,a0,v0
    3434:	00042100 	sll	a0,a0,0x4
    3438:	00001021 	move	v0,zero
    343c:	00801821 	move	v1,a0
    3440:	00c23023 	subu	a2,a2,v0
    3444:	00e4202b 	sltu	a0,a3,a0
    3448:	00c43023 	subu	a2,a2,a0
    344c:	00e33823 	subu	a3,a3,v1
    3450:	ad07001c 	sw	a3,28(t0)
    3454:	ad060018 	sw	a2,24(t0)
    3458:	93a20011 	lbu	v0,17(sp)
    345c:	a5020014 	sh	v0,20(t0)
    3460:	97a20012 	lhu	v0,18(sp)
    3464:	a5020016 	sh	v0,22(t0)
    3468:	8fa20014 	lw	v0,20(sp)
    346c:	ad020010 	sw	v0,16(t0)
    3470:	8fa20014 	lw	v0,20(sp)
    3474:	ad02000c 	sw	v0,12(t0)
    3478:	93a20011 	lbu	v0,17(sp)
    347c:	a5020020 	sh	v0,32(t0)
    3480:	97a20012 	lhu	v0,18(sp)
    3484:	a5020022 	sh	v0,34(t0)
    3488:	8fa20014 	lw	v0,20(sp)
    348c:	ad020024 	sw	v0,36(t0)
    3490:	2406ff80 	li	a2,-128
    3494:	02461024 	and	v0,s2,a2
    3498:	3256007f 	andi	s6,s2,0x7f
    349c:	af420024 	sw	v0,36(k0)
    34a0:	03561821 	addu	v1,k0,s6
    34a4:	3c02000a 	lui	v0,0xa
    34a8:	00628021 	addu	s0,v1,v0
    34ac:	8e02004c 	lw	v0,76(s0)
    34b0:	8fa20020 	lw	v0,32(sp)
    34b4:	3124007f 	andi	a0,t1,0x7f
    34b8:	000428c0 	sll	a1,a0,0x3
    34bc:	ae020050 	sw	v0,80(s0)
    34c0:	8fa20020 	lw	v0,32(sp)
    34c4:	00042140 	sll	a0,a0,0x5
    34c8:	00852821 	addu	a1,a0,a1
    34cc:	ae020070 	sw	v0,112(s0)
    34d0:	93a20010 	lbu	v0,16(sp)
    34d4:	01208821 	move	s1,t1
    34d8:	a2020083 	sb	v0,131(s0)
    34dc:	93a20010 	lbu	v0,16(sp)
    34e0:	a2020079 	sb	v0,121(s0)
    34e4:	92020085 	lbu	v0,133(s0)
    34e8:	3042003f 	andi	v0,v0,0x3f
    34ec:	a2020085 	sb	v0,133(s0)
    34f0:	3c020800 	lui	v0,0x800
    34f4:	8c4200dc 	lw	v0,220(v0)
    34f8:	02421021 	addu	v0,s2,v0
    34fc:	00451021 	addu	v0,v0,a1
    3500:	00461024 	and	v0,v0,a2
    3504:	af42002c 	sw	v0,44(k0)
    3508:	3c020800 	lui	v0,0x800
    350c:	8c4200e4 	lw	v0,228(v0)
    3510:	3c030800 	lui	v1,0x800
    3514:	8c6300dc 	lw	v1,220(v1)
    3518:	02421021 	addu	v0,s2,v0
    351c:	00441021 	addu	v0,v0,a0
    3520:	00461024 	and	v0,v0,a2
    3524:	af420028 	sw	v0,40(k0)
    3528:	3c020800 	lui	v0,0x800
    352c:	8c4200e4 	lw	v0,228(v0)
    3530:	02431821 	addu	v1,s2,v1
    3534:	00651821 	addu	v1,v1,a1
    3538:	02421021 	addu	v0,s2,v0
    353c:	00441021 	addu	v0,v0,a0
    3540:	3042007f 	andi	v0,v0,0x7f
    3544:	3063007f 	andi	v1,v1,0x7f
    3548:	93a50010 	lbu	a1,16(sp)
    354c:	03422021 	addu	a0,k0,v0
    3550:	03431821 	addu	v1,k0,v1
    3554:	3c02000e 	lui	v0,0xe
    3558:	00624021 	addu	t0,v1,v0
    355c:	3c02000c 	lui	v0,0xc
    3560:	10b1008c 	beq	a1,s1,0x3794
    3564:	00824821 	addu	t1,a0,v0
    3568:	3233007f 	andi	s3,s1,0x7f
    356c:	16600019 	bnez	s3,0x35d4
    3570:	2404ff80 	li	a0,-128
    3574:	3c020800 	lui	v0,0x800
    3578:	8c4200dc 	lw	v0,220(v0)
    357c:	02421021 	addu	v0,s2,v0
    3580:	00441024 	and	v0,v0,a0
    3584:	af42002c 	sw	v0,44(k0)
    3588:	3c020800 	lui	v0,0x800
    358c:	8c4200e4 	lw	v0,228(v0)
    3590:	3c030800 	lui	v1,0x800
    3594:	8c6300dc 	lw	v1,220(v1)
    3598:	02421021 	addu	v0,s2,v0
    359c:	00441024 	and	v0,v0,a0
    35a0:	af420028 	sw	v0,40(k0)
    35a4:	3c020800 	lui	v0,0x800
    35a8:	8c4200e4 	lw	v0,228(v0)
    35ac:	02431821 	addu	v1,s2,v1
    35b0:	3063007f 	andi	v1,v1,0x7f
    35b4:	02421021 	addu	v0,s2,v0
    35b8:	3042007f 	andi	v0,v0,0x7f
    35bc:	03422021 	addu	a0,k0,v0
    35c0:	03431821 	addu	v1,k0,v1
    35c4:	3c02000e 	lui	v0,0xe
    35c8:	00624021 	addu	t0,v1,v0
    35cc:	3c02000c 	lui	v0,0xc
    35d0:	00824821 	addu	t1,a0,v0
    35d4:	9124000d 	lbu	a0,13(t1)
    35d8:	2414ff80 	li	s4,-128
    35dc:	00001021 	move	v0,zero
    35e0:	00942025 	or	a0,a0,s4
    35e4:	a124000d 	sb	a0,13(t1)
    35e8:	95040002 	lhu	a0,2(t0)
    35ec:	95050014 	lhu	a1,20(t0)
    35f0:	8d07001c 	lw	a3,28(t0)
    35f4:	3084ffff 	andi	a0,a0,0xffff
    35f8:	30a5ffff 	andi	a1,a1,0xffff
    35fc:	8d060018 	lw	a2,24(t0)
    3600:	00852023 	subu	a0,a0,a1
    3604:	00042100 	sll	a0,a0,0x4
    3608:	00e43821 	addu	a3,a3,a0
    360c:	00c23021 	addu	a2,a2,v0
    3610:	00e4202b 	sltu	a0,a3,a0
    3614:	00c43021 	addu	a2,a2,a0
    3618:	ad07001c 	sw	a3,28(t0)
    361c:	ad060018 	sw	a2,24(t0)
    3620:	95020002 	lhu	v0,2(t0)
    3624:	a5020014 	sh	v0,20(t0)
    3628:	a5000016 	sh	zero,22(t0)
    362c:	8d020008 	lw	v0,8(t0)
    3630:	ad020010 	sw	v0,16(t0)
    3634:	8d020008 	lw	v0,8(t0)
    3638:	ad02000c 	sw	v0,12(t0)
    363c:	95020002 	lhu	v0,2(t0)
    3640:	a5020020 	sh	v0,32(t0)
    3644:	a5000022 	sh	zero,34(t0)
    3648:	8d020008 	lw	v0,8(t0)
    364c:	ad020024 	sw	v0,36(t0)
    3650:	9122000d 	lbu	v0,13(t1)
    3654:	30420040 	andi	v0,v0,0x40
    3658:	10400042 	beqz	v0,0x3764
    365c:	26220001 	addiu	v0,s1,1
    3660:	3c020800 	lui	v0,0x800
    3664:	8c4200e0 	lw	v0,224(v0)
    3668:	a3b30028 	sb	s3,40(sp)
    366c:	3c10000a 	lui	s0,0xa
    3670:	02421021 	addu	v0,s2,v0
    3674:	00541024 	and	v0,v0,s4
    3678:	af420024 	sw	v0,36(k0)
    367c:	3c020800 	lui	v0,0x800
    3680:	8c4200e0 	lw	v0,224(v0)
    3684:	a380002c 	sb	zero,44(gp)
    3688:	27a4002c 	addiu	a0,sp,44
    368c:	02421021 	addu	v0,s2,v0
    3690:	3042007f 	andi	v0,v0,0x7f
    3694:	03421821 	addu	v1,k0,v0
    3698:	00701821 	addu	v1,v1,s0
    369c:	8c6200d8 	lw	v0,216(v1)
    36a0:	8d260004 	lw	a2,4(t1)
    36a4:	27a50028 	addiu	a1,sp,40
    36a8:	afa9002c 	sw	t1,44(sp)
    36ac:	00461021 	addu	v0,v0,a2
    36b0:	ac6200d8 	sw	v0,216(v1)
    36b4:	0e000a79 	jal	0x80029e4
    36b8:	af830028 	sw	v1,40(gp)
    36bc:	93a30028 	lbu	v1,40(sp)
    36c0:	8f820028 	lw	v0,40(gp)
    36c4:	0e0006be 	jal	0x8001af8
    36c8:	a04300d1 	sb	v1,209(v0)
    36cc:	0e000c00 	jal	0x8003000
    36d0:	00000000 	nop
    36d4:	02541024 	and	v0,s2,s4
    36d8:	af420024 	sw	v0,36(k0)
    36dc:	3c020800 	lui	v0,0x800
    36e0:	8c4200dc 	lw	v0,220(v0)
    36e4:	00132940 	sll	a1,s3,0x5
    36e8:	001320c0 	sll	a0,s3,0x3
    36ec:	00a42021 	addu	a0,a1,a0
    36f0:	02421021 	addu	v0,s2,v0
    36f4:	00441021 	addu	v0,v0,a0
    36f8:	00541024 	and	v0,v0,s4
    36fc:	af42002c 	sw	v0,44(k0)
    3700:	3c020800 	lui	v0,0x800
    3704:	8c4200e4 	lw	v0,228(v0)
    3708:	3c030800 	lui	v1,0x800
    370c:	8c6300dc 	lw	v1,220(v1)
    3710:	03563021 	addu	a2,k0,s6
    3714:	02421021 	addu	v0,s2,v0
    3718:	00451021 	addu	v0,v0,a1
    371c:	00541024 	and	v0,v0,s4
    3720:	af420028 	sw	v0,40(k0)
    3724:	3c020800 	lui	v0,0x800
    3728:	8c4200e4 	lw	v0,228(v0)
    372c:	02431821 	addu	v1,s2,v1
    3730:	00641821 	addu	v1,v1,a0
    3734:	02421021 	addu	v0,s2,v0
    3738:	00451021 	addu	v0,v0,a1
    373c:	3042007f 	andi	v0,v0,0x7f
    3740:	3063007f 	andi	v1,v1,0x7f
    3744:	03422021 	addu	a0,k0,v0
    3748:	03431821 	addu	v1,k0,v1
    374c:	3c02000e 	lui	v0,0xe
    3750:	00624021 	addu	t0,v1,v0
    3754:	3c02000c 	lui	v0,0xc
    3758:	00d08021 	addu	s0,a2,s0
    375c:	00824821 	addu	t1,a0,v0
    3760:	26220001 	addiu	v0,s1,1
    3764:	3043007f 	andi	v1,v0,0x7f
    3768:	14750005 	bne	v1,s5,0x3780
    376c:	304400ff 	andi	a0,v0,0xff
    3770:	2403ff80 	li	v1,-128
    3774:	02231024 	and	v0,s1,v1
    3778:	00431026 	xor	v0,v0,v1
    377c:	304400ff 	andi	a0,v0,0xff
    3780:	93a20010 	lbu	v0,16(sp)
    3784:	00808821 	move	s1,a0
    3788:	25080028 	addiu	t0,t0,40
    378c:	1444ff76 	bne	v0,a0,0x3568
    3790:	25290020 	addiu	t1,t1,32
    3794:	93a40010 	lbu	a0,16(sp)
    3798:	8fa30014 	lw	v1,20(sp)
    379c:	2402ffff 	li	v0,-1
    37a0:	1062000a 	beq	v1,v0,0x37cc
    37a4:	308900ff 	andi	t1,a0,0xff
    37a8:	24820001 	addiu	v0,a0,1
    37ac:	24830001 	addiu	v1,a0,1
    37b0:	3042007f 	andi	v0,v0,0x7f
    37b4:	14550005 	bne	v0,s5,0x37cc
    37b8:	306900ff 	andi	t1,v1,0xff
    37bc:	2403ff80 	li	v1,-128
    37c0:	00831024 	and	v0,a0,v1
    37c4:	00431026 	xor	v0,v0,v1
    37c8:	304900ff 	andi	t1,v0,0xff
    37cc:	92020078 	lbu	v0,120(s0)
    37d0:	305300ff 	andi	s3,v0,0xff
    37d4:	11330032 	beq	t1,s3,0x38a0
    37d8:	01208821 	move	s1,t1
    37dc:	3c020800 	lui	v0,0x800
    37e0:	8c4200dc 	lw	v0,220(v0)
    37e4:	3225007f 	andi	a1,s1,0x7f
    37e8:	000520c0 	sll	a0,a1,0x3
    37ec:	00052940 	sll	a1,a1,0x5
    37f0:	00a42021 	addu	a0,a1,a0
    37f4:	02421021 	addu	v0,s2,v0
    37f8:	2406ff80 	li	a2,-128
    37fc:	00441021 	addu	v0,v0,a0
    3800:	00461024 	and	v0,v0,a2
    3804:	af42002c 	sw	v0,44(k0)
    3808:	3c030800 	lui	v1,0x800
    380c:	8c6300dc 	lw	v1,220(v1)
    3810:	3c020800 	lui	v0,0x800
    3814:	8c4200e4 	lw	v0,228(v0)
    3818:	02431821 	addu	v1,s2,v1
    381c:	02421021 	addu	v0,s2,v0
    3820:	00451021 	addu	v0,v0,a1
    3824:	00641821 	addu	v1,v1,a0
    3828:	00461024 	and	v0,v0,a2
    382c:	3063007f 	andi	v1,v1,0x7f
    3830:	af420028 	sw	v0,40(k0)
    3834:	03431821 	addu	v1,k0,v1
    3838:	3c02000e 	lui	v0,0xe
    383c:	00624021 	addu	t0,v1,v0
    3840:	3c020800 	lui	v0,0x800
    3844:	8c4200e4 	lw	v0,228(v0)
    3848:	8d06000c 	lw	a2,12(t0)
    384c:	01002021 	move	a0,t0
    3850:	02421021 	addu	v0,s2,v0
    3854:	00451021 	addu	v0,v0,a1
    3858:	3042007f 	andi	v0,v0,0x7f
    385c:	03421821 	addu	v1,k0,v0
    3860:	3c02000c 	lui	v0,0xc
    3864:	00624821 	addu	t1,v1,v0
    3868:	10c0000d 	beqz	a2,0x38a0
    386c:	01202821 	move	a1,t1
    3870:	0e0006e2 	jal	0x8001b88
    3874:	00000000 	nop
    3878:	2402ff80 	li	v0,-128
    387c:	02221824 	and	v1,s1,v0
    3880:	26240001 	addiu	a0,s1,1
    3884:	00622826 	xor	a1,v1,v0
    3888:	3082007f 	andi	v0,a0,0x7f
    388c:	14550002 	bne	v0,s5,0x3898
    3890:	308300ff 	andi	v1,a0,0xff
    3894:	30a300ff 	andi	v1,a1,0xff
    3898:	1473ffd0 	bne	v1,s3,0x37dc
    389c:	00608821 	move	s1,v1
    38a0:	8e030074 	lw	v1,116(s0)
    38a4:	3c027fff 	lui	v0,0x7fff
    38a8:	3442ffff 	ori	v0,v0,0xffff
    38ac:	00621824 	and	v1,v1,v0
    38b0:	ae030074 	sw	v1,116(s0)
    38b4:	0e000703 	jal	0x8001c0c
    38b8:	02402021 	move	a0,s2
    38bc:	af570024 	sw	s7,36(k0)
    38c0:	8fa20030 	lw	v0,48(sp)
    38c4:	af5e0028 	sw	s8,40(k0)
    38c8:	8fbf005c 	lw	ra,92(sp)
    38cc:	8fbe0058 	lw	s8,88(sp)
    38d0:	8fb70054 	lw	s7,84(sp)
    38d4:	8fb60050 	lw	s6,80(sp)
    38d8:	8fb5004c 	lw	s5,76(sp)
    38dc:	8fb40048 	lw	s4,72(sp)
    38e0:	8fb30044 	lw	s3,68(sp)
    38e4:	8fb20040 	lw	s2,64(sp)
    38e8:	8fb1003c 	lw	s1,60(sp)
    38ec:	8fb00038 	lw	s0,56(sp)
    38f0:	27bd0060 	addiu	sp,sp,96
    38f4:	03e00008 	jr	ra
    38f8:	af42002c 	sw	v0,44(k0)
    38fc:	27bdffd8 	addiu	sp,sp,-40
    3900:	afb1001c 	sw	s1,28(sp)
    3904:	afbf0020 	sw	ra,32(sp)
    3908:	afb00018 	sw	s0,24(sp)
    390c:	27510188 	addiu	s1,k0,392
    3910:	92220003 	lbu	v0,3(s1)
    3914:	2408ff80 	li	t0,-128
    3918:	3c03000a 	lui	v1,0xa
    391c:	3047007f 	andi	a3,v0,0x7f
    3920:	a3a70010 	sb	a3,16(sp)
    3924:	8f460180 	lw	a2,384(k0)
    3928:	3c020800 	lui	v0,0x800
    392c:	8c4200e0 	lw	v0,224(v0)
    3930:	af860034 	sw	a2,52(gp)
    3934:	00c22821 	addu	a1,a2,v0
    3938:	00a81024 	and	v0,a1,t0
    393c:	af420024 	sw	v0,36(k0)
    3940:	92240000 	lbu	a0,0(s1)
    3944:	30a2007f 	andi	v0,a1,0x7f
    3948:	03421021 	addu	v0,k0,v0
    394c:	00431021 	addu	v0,v0,v1
    3950:	af820028 	sw	v0,40(gp)
    3954:	3084007f 	andi	a0,a0,0x7f
    3958:	24020002 	li	v0,2
    395c:	14820025 	bne	a0,v0,0x39f4
    3960:	00071940 	sll	v1,a3,0x5
    3964:	3c020800 	lui	v0,0x800
    3968:	8c4200e4 	lw	v0,228(v0)
    396c:	00c21021 	addu	v0,a2,v0
    3970:	00432821 	addu	a1,v0,v1
    3974:	30a2007f 	andi	v0,a1,0x7f
    3978:	03421821 	addu	v1,k0,v0
    397c:	00a81024 	and	v0,a1,t0
    3980:	af420028 	sw	v0,40(k0)
    3984:	3c02000c 	lui	v0,0xc
    3988:	00621821 	addu	v1,v1,v0
    398c:	9062000d 	lbu	v0,13(v1)
    3990:	afa30014 	sw	v1,20(sp)
    3994:	00481025 	or	v0,v0,t0
    3998:	a062000d 	sb	v0,13(v1)
    399c:	8fa30014 	lw	v1,20(sp)
    39a0:	9062000d 	lbu	v0,13(v1)
    39a4:	30420040 	andi	v0,v0,0x40
    39a8:	5040006a 	beqzl	v0,0x3b54
    39ac:	8fbf0020 	lw	ra,32(sp)
    39b0:	8f860028 	lw	a2,40(gp)
    39b4:	a380002c 	sb	zero,44(gp)
    39b8:	27a40014 	addiu	a0,sp,20
    39bc:	8cc200d8 	lw	v0,216(a2)
    39c0:	8c630004 	lw	v1,4(v1)
    39c4:	27a50010 	addiu	a1,sp,16
    39c8:	00431021 	addu	v0,v0,v1
    39cc:	0e000a79 	jal	0x80029e4
    39d0:	acc200d8 	sw	v0,216(a2)
    39d4:	93a30010 	lbu	v1,16(sp)
    39d8:	8f820028 	lw	v0,40(gp)
    39dc:	0e0006be 	jal	0x8001af8
    39e0:	a04300d1 	sb	v1,209(v0)
    39e4:	0e000c00 	jal	0x8003000
    39e8:	00000000 	nop
    39ec:	0a000ea3 	j	0x8003a8c
    39f0:	8fbf0020 	lw	ra,32(sp)
    39f4:	0e0006c7 	jal	0x8001b1c
    39f8:	00c02021 	move	a0,a2
    39fc:	0e0006d5 	jal	0x8001b54
    3a00:	00000000 	nop
    3a04:	3c020008 	lui	v0,0x8
    3a08:	03428021 	addu	s0,k0,v0
    3a0c:	92230001 	lbu	v1,1(s1)
    3a10:	9202007b 	lbu	v0,123(s0)
    3a14:	1443004f 	bne	v0,v1,0x3b54
    3a18:	8fbf0020 	lw	ra,32(sp)
    3a1c:	92220000 	lbu	v0,0(s1)
    3a20:	3044007f 	andi	a0,v0,0x7f
    3a24:	24020004 	li	v0,4
    3a28:	10820017 	beq	a0,v0,0x3a88
    3a2c:	28820005 	slti	v0,a0,5
    3a30:	10400006 	beqz	v0,0x3a4c
    3a34:	24020005 	li	v0,5
    3a38:	24020003 	li	v0,3
    3a3c:	10820007 	beq	a0,v0,0x3a5c
    3a40:	8fb1001c 	lw	s1,28(sp)
    3a44:	0a000ea4 	j	0x8003a90
    3a48:	00000000 	nop
    3a4c:	10820012 	beq	a0,v0,0x3a98
    3a50:	8fbf0020 	lw	ra,32(sp)
    3a54:	0a000ea4 	j	0x8003a90
    3a58:	8fb1001c 	lw	s1,28(sp)
    3a5c:	92050083 	lbu	a1,131(s0)
    3a60:	92060078 	lbu	a2,120(s0)
    3a64:	8e070074 	lw	a3,116(s0)
    3a68:	8f840034 	lw	a0,52(gp)
    3a6c:	30a500ff 	andi	a1,a1,0xff
    3a70:	00073e02 	srl	a3,a3,0x18
    3a74:	30c600ff 	andi	a2,a2,0xff
    3a78:	0e00070b 	jal	0x8001c2c
    3a7c:	30e7007f 	andi	a3,a3,0x7f
    3a80:	0a000ea3 	j	0x8003a8c
    3a84:	8fbf0020 	lw	ra,32(sp)
    3a88:	0e000c6f 	jal	0x80031bc
    3a8c:	8f840034 	lw	a0,52(gp)
    3a90:	0a000ea3 	j	0x8003a8c
    3a94:	8fbf0020 	lw	ra,32(sp)
    3a98:	24020c80 	li	v0,3200
    3a9c:	af420024 	sw	v0,36(k0)
    3aa0:	9202003e 	lbu	v0,62(s0)
    3aa4:	30420040 	andi	v0,v0,0x40
    3aa8:	10400020 	beqz	v0,0x3b2c
    3aac:	00000000 	nop
    3ab0:	9202003e 	lbu	v0,62(s0)
    3ab4:	00021600 	sll	v0,v0,0x18
    3ab8:	00021603 	sra	v0,v0,0x18
    3abc:	04410006 	bgez	v0,0x3ad8
    3ac0:	00000000 	nop
    3ac4:	8f840034 	lw	a0,52(gp)
    3ac8:	0e000638 	jal	0x80018e0
    3acc:	24050093 	li	a1,147
    3ad0:	0a000ea3 	j	0x8003a8c
    3ad4:	8fbf0020 	lw	ra,32(sp)
    3ad8:	9202003f 	lbu	v0,63(s0)
    3adc:	24030018 	li	v1,24
    3ae0:	304200ff 	andi	v0,v0,0xff
    3ae4:	1443000c 	bne	v0,v1,0x3b18
    3ae8:	8f840034 	lw	a0,52(gp)
    3aec:	24050039 	li	a1,57
    3af0:	0e0005d0 	jal	0x8001740
    3af4:	00003021 	move	a2,zero
    3af8:	0e000302 	jal	0x8000c08
    3afc:	8f840034 	lw	a0,52(gp)
    3b00:	24020012 	li	v0,18
    3b04:	a202003f 	sb	v0,63(s0)
    3b08:	0e00030b 	jal	0x8000c2c
    3b0c:	8f840034 	lw	a0,52(gp)
    3b10:	0a000ea3 	j	0x8003a8c
    3b14:	8fbf0020 	lw	ra,32(sp)
    3b18:	24050036 	li	a1,54
    3b1c:	0e0005d0 	jal	0x8001740
    3b20:	00003021 	move	a2,zero
    3b24:	0a000ea3 	j	0x8003a8c
    3b28:	8fbf0020 	lw	ra,32(sp)
    3b2c:	0e000302 	jal	0x8000c08
    3b30:	8f840034 	lw	a0,52(gp)
    3b34:	92020005 	lbu	v0,5(s0)
    3b38:	34420020 	ori	v0,v0,0x20
    3b3c:	a2020005 	sb	v0,5(s0)
    3b40:	0e00030b 	jal	0x8000c2c
    3b44:	8f840034 	lw	a0,52(gp)
    3b48:	0e001058 	jal	0x8004160
    3b4c:	8f840034 	lw	a0,52(gp)
    3b50:	8fbf0020 	lw	ra,32(sp)
    3b54:	8fb1001c 	lw	s1,28(sp)
    3b58:	8fb00018 	lw	s0,24(sp)
    3b5c:	24020c80 	li	v0,3200
    3b60:	27bd0028 	addiu	sp,sp,40
    3b64:	03e00008 	jr	ra
    3b68:	af420024 	sw	v0,36(k0)
    3b6c:	27bdffe8 	addiu	sp,sp,-24
    3b70:	afb00010 	sw	s0,16(sp)
    3b74:	afbf0014 	sw	ra,20(sp)
    3b78:	27430100 	addiu	v1,k0,256
    3b7c:	94620008 	lhu	v0,8(v1)
    3b80:	00021400 	sll	v0,v0,0x10
    3b84:	00021403 	sra	v0,v0,0x10
    3b88:	04410002 	bgez	v0,0x3b94
    3b8c:	00008021 	move	s0,zero
    3b90:	24100001 	li	s0,1
    3b94:	94620008 	lhu	v0,8(v1)
    3b98:	30420080 	andi	v0,v0,0x80
    3b9c:	1040001a 	beqz	v0,0x3c08
    3ba0:	02001021 	move	v0,s0
    3ba4:	94620008 	lhu	v0,8(v1)
    3ba8:	30422000 	andi	v0,v0,0x2000
    3bac:	10400016 	beqz	v0,0x3c08
    3bb0:	02001021 	move	v0,s0
    3bb4:	8c630018 	lw	v1,24(v1)
    3bb8:	3c021c2d 	lui	v0,0x1c2d
    3bbc:	344219ed 	ori	v0,v0,0x19ed
    3bc0:	24060006 	li	a2,6
    3bc4:	1062000f 	beq	v1,v0,0x3c04
    3bc8:	3c076021 	lui	a3,0x6021
    3bcc:	3c020800 	lui	v0,0x800
    3bd0:	8c4200d4 	lw	v0,212(v0)
    3bd4:	10400007 	beqz	v0,0x3bf4
    3bd8:	8f820028 	lw	v0,40(gp)
    3bdc:	8f830028 	lw	v1,40(gp)
    3be0:	90620062 	lbu	v0,98(v1)
    3be4:	3042000f 	andi	v0,v0,0xf
    3be8:	34420040 	ori	v0,v0,0x40
    3bec:	a0620062 	sb	v0,98(v1)
    3bf0:	8f820028 	lw	v0,40(gp)
    3bf4:	8f840034 	lw	a0,52(gp)
    3bf8:	944500d4 	lhu	a1,212(v0)
    3bfc:	0e000b89 	jal	0x8002e24
    3c00:	30a5ffff 	andi	a1,a1,0xffff
    3c04:	02001021 	move	v0,s0
    3c08:	8fbf0014 	lw	ra,20(sp)
    3c0c:	8fb00010 	lw	s0,16(sp)
    3c10:	03e00008 	jr	ra
    3c14:	27bd0018 	addiu	sp,sp,24
    3c18:	27bdffe0 	addiu	sp,sp,-32
    3c1c:	afb10014 	sw	s1,20(sp)
    3c20:	afb00010 	sw	s0,16(sp)
    3c24:	a380002c 	sb	zero,44(gp)
    3c28:	afbf0018 	sw	ra,24(sp)
    3c2c:	8f450100 	lw	a1,256(k0)
    3c30:	3c030800 	lui	v1,0x800
    3c34:	8c6300e0 	lw	v1,224(v1)
    3c38:	2402ff80 	li	v0,-128
    3c3c:	af850034 	sw	a1,52(gp)
    3c40:	00a31821 	addu	v1,a1,v1
    3c44:	3064007f 	andi	a0,v1,0x7f
    3c48:	03442021 	addu	a0,k0,a0
    3c4c:	00621824 	and	v1,v1,v0
    3c50:	3c02000a 	lui	v0,0xa
    3c54:	00822021 	addu	a0,a0,v0
    3c58:	af430024 	sw	v1,36(k0)
    3c5c:	27500100 	addiu	s0,k0,256
    3c60:	8e020014 	lw	v0,20(s0)
    3c64:	8c8300dc 	lw	v1,220(a0)
    3c68:	af840028 	sw	a0,40(gp)
    3c6c:	00431023 	subu	v0,v0,v1
    3c70:	18400004 	blez	v0,0x3c84
    3c74:	00008821 	move	s1,zero
    3c78:	8e020014 	lw	v0,20(s0)
    3c7c:	0e000b1c 	jal	0x8002c70
    3c80:	ac8200dc 	sw	v0,220(a0)
    3c84:	9202000b 	lbu	v0,11(s0)
    3c88:	24030002 	li	v1,2
    3c8c:	304200ff 	andi	v0,v0,0xff
    3c90:	1443002f 	bne	v0,v1,0x3d50
    3c94:	00000000 	nop
    3c98:	96020008 	lhu	v0,8(s0)
    3c9c:	304300ff 	andi	v1,v0,0xff
    3ca0:	24020082 	li	v0,130
    3ca4:	14620005 	bne	v1,v0,0x3cbc
    3ca8:	24020084 	li	v0,132
    3cac:	0e0009d6 	jal	0x8002758
    3cb0:	00000000 	nop
    3cb4:	0a000f2f 	j	0x8003cbc
    3cb8:	00000000 	nop
    3cbc:	14620009 	bne	v1,v0,0x3ce4
    3cc0:	24020081 	li	v0,129
    3cc4:	8f820028 	lw	v0,40(gp)
    3cc8:	8f840034 	lw	a0,52(gp)
    3ccc:	3c076021 	lui	a3,0x6021
    3cd0:	944500d4 	lhu	a1,212(v0)
    3cd4:	92060005 	lbu	a2,5(s0)
    3cd8:	30a5ffff 	andi	a1,a1,0xffff
    3cdc:	0a000f1e 	j	0x8003c78
    3ce0:	30c600ff 	andi	a2,a2,0xff
    3ce4:	14620027 	bne	v1,v0,0x3d84
    3ce8:	00000000 	nop
    3cec:	9202000a 	lbu	v0,10(s0)
    3cf0:	304300ff 	andi	v1,v0,0xff
    3cf4:	30620020 	andi	v0,v1,0x20
    3cf8:	10400004 	beqz	v0,0x3d0c
    3cfc:	30620040 	andi	v0,v1,0x40
    3d00:	8f840034 	lw	a0,52(gp)
    3d04:	0a000f1a 	j	0x8003c68
    3d08:	24060040 	li	a2,64
    3d0c:	10400004 	beqz	v0,0x3d20
    3d10:	00031600 	sll	v0,v1,0x18
    3d14:	8f840034 	lw	a0,52(gp)
    3d18:	0a000f1a 	j	0x8003c68
    3d1c:	24060041 	li	a2,65
    3d20:	00021603 	sra	v0,v0,0x18
    3d24:	04410017 	bgez	v0,0x3d84
    3d28:	8f840034 	lw	a0,52(gp)
    3d2c:	24060042 	li	a2,66
    3d30:	8f820028 	lw	v0,40(gp)
    3d34:	3c076019 	lui	a3,0x6019
    3d38:	944500d4 	lhu	a1,212(v0)
    3d3c:	30a5ffff 	andi	a1,a1,0xffff
    3d40:	0e000b89 	jal	0x8002e24
    3d44:	00000000 	nop
    3d48:	0a000f2f 	j	0x8003cbc
    3d4c:	00000000 	nop
    3d50:	9202000b 	lbu	v0,11(s0)
    3d54:	24030016 	li	v1,22
    3d58:	304200ff 	andi	v0,v0,0xff
    3d5c:	10430006 	beq	v0,v1,0x3d78
    3d60:	00000000 	nop
    3d64:	9202000b 	lbu	v0,11(s0)
    3d68:	24030017 	li	v1,23
    3d6c:	304200ff 	andi	v0,v0,0xff
    3d70:	14430004 	bne	v0,v1,0x3d84
    3d74:	00000000 	nop
    3d78:	0e000ea9 	jal	0x8003aa4
    3d7c:	00000000 	nop
    3d80:	00408821 	move	s1,v0
    3d84:	0e000c00 	jal	0x8003000
    3d88:	00000000 	nop
    3d8c:	9202000a 	lbu	v0,10(s0)
    3d90:	30420008 	andi	v0,v0,0x8
    3d94:	10400006 	beqz	v0,0x3db0
    3d98:	24020c80 	li	v0,3200
    3d9c:	8f850028 	lw	a1,40(gp)
    3da0:	3c040008 	lui	a0,0x8
    3da4:	0e001286 	jal	0x8004a18
    3da8:	03442021 	addu	a0,k0,a0
    3dac:	24020c80 	li	v0,3200
    3db0:	af420024 	sw	v0,36(k0)
    3db4:	8fbf0018 	lw	ra,24(sp)
    3db8:	02201021 	move	v0,s1
    3dbc:	8fb00010 	lw	s0,16(sp)
    3dc0:	8fb10014 	lw	s1,20(sp)
    3dc4:	03e00008 	jr	ra
    3dc8:	27bd0020 	addiu	sp,sp,32
    3dcc:	27bdffe8 	addiu	sp,sp,-24
    3dd0:	afbf0014 	sw	ra,20(sp)
    3dd4:	afb00010 	sw	s0,16(sp)
    3dd8:	8f500024 	lw	s0,36(k0)
    3ddc:	3c030800 	lui	v1,0x800
    3de0:	8c6300e0 	lw	v1,224(v1)
    3de4:	8f450100 	lw	a1,256(k0)
    3de8:	2402ff80 	li	v0,-128
    3dec:	00a31821 	addu	v1,a1,v1
    3df0:	3064007f 	andi	a0,v1,0x7f
    3df4:	03442021 	addu	a0,k0,a0
    3df8:	00621824 	and	v1,v1,v0
    3dfc:	3c02000a 	lui	v0,0xa
    3e00:	00822021 	addu	a0,a0,v0
    3e04:	af850034 	sw	a1,52(gp)
    3e08:	af430024 	sw	v1,36(k0)
    3e0c:	90820062 	lbu	v0,98(a0)
    3e10:	af840028 	sw	a0,40(gp)
    3e14:	3042000f 	andi	v0,v0,0xf
    3e18:	34420050 	ori	v0,v0,0x50
    3e1c:	a0820062 	sb	v0,98(a0)
    3e20:	3c02001f 	lui	v0,0x1f
    3e24:	3442ff80 	ori	v0,v0,0xff80
    3e28:	0e0006be 	jal	0x8001af8
    3e2c:	02028024 	and	s0,s0,v0
    3e30:	af500024 	sw	s0,36(k0)
    3e34:	8fbf0014 	lw	ra,20(sp)
    3e38:	8fb00010 	lw	s0,16(sp)
    3e3c:	03e00008 	jr	ra
    3e40:	27bd0018 	addiu	sp,sp,24
    3e44:	3c020800 	lui	v0,0x800
    3e48:	8c420020 	lw	v0,32(v0)
    3e4c:	1040001d 	beqz	v0,0x3ec4
    3e50:	27450100 	addiu	a1,k0,256
    3e54:	90a30009 	lbu	v1,9(a1)
    3e58:	3c020008 	lui	v0,0x8
    3e5c:	03422021 	addu	a0,k0,v0
    3e60:	24020018 	li	v0,24
    3e64:	54620003 	bnel	v1,v0,0x3e74
    3e68:	3c020008 	lui	v0,0x8
    3e6c:	0a000f70 	j	0x8003dc0
    3e70:	24020008 	li	v0,8
    3e74:	03422021 	addu	a0,k0,v0
    3e78:	24020016 	li	v0,22
    3e7c:	14620005 	bne	v1,v0,0x3e94
    3e80:	24020017 	li	v0,23
    3e84:	24020012 	li	v0,18
    3e88:	a082003f 	sb	v0,63(a0)
    3e8c:	0a000f7a 	j	0x8003de8
    3e90:	94a70008 	lhu	a3,8(a1)
    3e94:	54620006 	bnel	v1,v0,0x3eb0
    3e98:	94a70008 	lhu	a3,8(a1)
    3e9c:	93620005 	lbu	v0,5(k1)
    3ea0:	2403fffe 	li	v1,-2
    3ea4:	00431024 	and	v0,v0,v1
    3ea8:	a3620005 	sb	v0,5(k1)
    3eac:	94a70008 	lhu	a3,8(a1)
    3eb0:	90a6001b 	lbu	a2,27(a1)
    3eb4:	8ca40000 	lw	a0,0(a1)
    3eb8:	94a50006 	lhu	a1,6(a1)
    3ebc:	0a000b64 	j	0x8002d90
    3ec0:	00073c00 	sll	a3,a3,0x10
    3ec4:	03e00008 	jr	ra
    3ec8:	00000000 	nop
    3ecc:	27440100 	addiu	a0,k0,256
    3ed0:	94820008 	lhu	v0,8(a0)
    3ed4:	304500ff 	andi	a1,v0,0xff
    3ed8:	38a30082 	xori	v1,a1,0x82
    3edc:	38a20084 	xori	v0,a1,0x84
    3ee0:	2c630001 	sltiu	v1,v1,1
    3ee4:	2c420001 	sltiu	v0,v0,1
    3ee8:	00621825 	or	v1,v1,v0
    3eec:	10600006 	beqz	v1,0x3f08
    3ef0:	24020083 	li	v0,131
    3ef4:	9382002d 	lbu	v0,45(gp)
    3ef8:	1040000d 	beqz	v0,0x3f30
    3efc:	00000000 	nop
    3f00:	0a000c33 	j	0x80030cc
    3f04:	00000000 	nop
    3f08:	14a20005 	bne	a1,v0,0x3f20
    3f0c:	24a2ff80 	addiu	v0,a1,-128
    3f10:	8f430104 	lw	v1,260(k0)
    3f14:	3c026020 	lui	v0,0x6020
    3f18:	03e00008 	jr	ra
    3f1c:	ac430014 	sw	v1,20(v0)
    3f20:	304200ff 	andi	v0,v0,0xff
    3f24:	2c420002 	sltiu	v0,v0,2
    3f28:	10400003 	beqz	v0,0x3f38
    3f2c:	24020022 	li	v0,34
    3f30:	0a000ed4 	j	0x8003b50
    3f34:	00000000 	nop
    3f38:	14a20003 	bne	a1,v0,0x3f48
    3f3c:	00000000 	nop
    3f40:	0a000f41 	j	0x8003d04
    3f44:	00000000 	nop
    3f48:	0a000f5f 	j	0x8003d7c
    3f4c:	00000000 	nop
    3f50:	9363007e 	lbu	v1,126(k1)
    3f54:	9362007a 	lbu	v0,122(k1)
    3f58:	14430009 	bne	v0,v1,0x3f80
    3f5c:	00002021 	move	a0,zero
    3f60:	93620000 	lbu	v0,0(k1)
    3f64:	24030050 	li	v1,80
    3f68:	304200ff 	andi	v0,v0,0xff
    3f6c:	14430004 	bne	v0,v1,0x3f80
    3f70:	24040001 	li	a0,1
    3f74:	9362007e 	lbu	v0,126(k1)
    3f78:	24420001 	addiu	v0,v0,1
    3f7c:	a362007e 	sb	v0,126(k1)
    3f80:	03e00008 	jr	ra
    3f84:	00801021 	move	v0,a0
    3f88:	8f4201f8 	lw	v0,504(k0)
    3f8c:	0440fffe 	bltz	v0,0x3f88
    3f90:	24020002 	li	v0,2
    3f94:	af4401c0 	sw	a0,448(k0)
    3f98:	a34201c4 	sb	v0,452(k0)
    3f9c:	3c021000 	lui	v0,0x1000
    3fa0:	03e00008 	jr	ra
    3fa4:	af4201f8 	sw	v0,504(k0)
    3fa8:	27bdffe8 	addiu	sp,sp,-24
    3fac:	afbf0010 	sw	ra,16(sp)
    3fb0:	9362003f 	lbu	v0,63(k1)
    3fb4:	2403000a 	li	v1,10
    3fb8:	304200ff 	andi	v0,v0,0xff
    3fbc:	14430046 	bne	v0,v1,0x40d8
    3fc0:	00000000 	nop
    3fc4:	8f630054 	lw	v1,84(k1)
    3fc8:	8f62004c 	lw	v0,76(k1)
    3fcc:	1062007d 	beq	v1,v0,0x41c4
    3fd0:	03603021 	move	a2,k1
    3fd4:	93620000 	lbu	v0,0(k1)
    3fd8:	24030050 	li	v1,80
    3fdc:	304200ff 	andi	v0,v0,0xff
    3fe0:	1443002f 	bne	v0,v1,0x40a0
    3fe4:	00000000 	nop
    3fe8:	8f440140 	lw	a0,320(k0)
    3fec:	3c020800 	lui	v0,0x800
    3ff0:	8c4200e0 	lw	v0,224(v0)
    3ff4:	2403ff80 	li	v1,-128
    3ff8:	00821021 	addu	v0,a0,v0
    3ffc:	00431024 	and	v0,v0,v1
    4000:	af420024 	sw	v0,36(k0)
    4004:	3c020800 	lui	v0,0x800
    4008:	8c4200e0 	lw	v0,224(v0)
    400c:	8f650054 	lw	a1,84(k1)
    4010:	3c03000a 	lui	v1,0xa
    4014:	00822021 	addu	a0,a0,v0
    4018:	3084007f 	andi	a0,a0,0x7f
    401c:	03441021 	addu	v0,k0,a0
    4020:	00431021 	addu	v0,v0,v1
    4024:	ac450108 	sw	a1,264(v0)
    4028:	9762003c 	lhu	v0,60(k1)
    402c:	8f63004c 	lw	v1,76(k1)
    4030:	3042ffff 	andi	v0,v0,0xffff
    4034:	00021040 	sll	v0,v0,0x1
    4038:	00621821 	addu	v1,v1,v0
    403c:	af63005c 	sw	v1,92(k1)
    4040:	8f630054 	lw	v1,84(k1)
    4044:	8f64004c 	lw	a0,76(k1)
    4048:	9762003c 	lhu	v0,60(k1)
    404c:	00641823 	subu	v1,v1,a0
    4050:	3042ffff 	andi	v0,v0,0xffff
    4054:	00031843 	sra	v1,v1,0x1
    4058:	00021040 	sll	v0,v0,0x1
    405c:	0043102a 	slt	v0,v0,v1
    4060:	10400006 	beqz	v0,0x407c
    4064:	00000000 	nop
    4068:	8f620054 	lw	v0,84(k1)
    406c:	8f63004c 	lw	v1,76(k1)
    4070:	00431023 	subu	v0,v0,v1
    4074:	0a000ff0 	j	0x8003fc0
    4078:	00021043 	sra	v0,v0,0x1
    407c:	9762003c 	lhu	v0,60(k1)
    4080:	3042ffff 	andi	v0,v0,0xffff
    4084:	00021040 	sll	v0,v0,0x1
    4088:	acc20064 	sw	v0,100(a2)
    408c:	24020001 	li	v0,1
    4090:	a0c0007c 	sb	zero,124(a2)
    4094:	a0c20084 	sb	v0,132(a2)
    4098:	24020c80 	li	v0,3200
    409c:	af420024 	sw	v0,36(k0)
    40a0:	0e000fa2 	jal	0x8003e88
    40a4:	8f440140 	lw	a0,320(k0)
    40a8:	10400047 	beqz	v0,0x41c8
    40ac:	8fbf0010 	lw	ra,16(sp)
    40b0:	8f430140 	lw	v1,320(k0)
    40b4:	8f4201f8 	lw	v0,504(k0)
    40b8:	0440fffe 	bltz	v0,0x40b4
    40bc:	24020002 	li	v0,2
    40c0:	af4301c0 	sw	v1,448(k0)
    40c4:	a34201c4 	sb	v0,452(k0)
    40c8:	3c021000 	lui	v0,0x1000
    40cc:	af4201f8 	sw	v0,504(k0)
    40d0:	0a001040 	j	0x8004100
    40d4:	8fbf0010 	lw	ra,16(sp)
    40d8:	9362003f 	lbu	v0,63(k1)
    40dc:	24030010 	li	v1,16
    40e0:	304200ff 	andi	v0,v0,0xff
    40e4:	14430004 	bne	v0,v1,0x40f8
    40e8:	00000000 	nop
    40ec:	8f440140 	lw	a0,320(k0)
    40f0:	0a00102c 	j	0x80040b0
    40f4:	00002821 	move	a1,zero
    40f8:	9362003f 	lbu	v0,63(k1)
    40fc:	24030016 	li	v1,22
    4100:	304200ff 	andi	v0,v0,0xff
    4104:	14430004 	bne	v0,v1,0x4118
    4108:	24020014 	li	v0,20
    410c:	a362003f 	sb	v0,63(k1)
    4110:	0a00103a 	j	0x80040e8
    4114:	00000000 	nop
    4118:	8f62004c 	lw	v0,76(k1)
    411c:	8f630050 	lw	v1,80(k1)
    4120:	00431023 	subu	v0,v0,v1
    4124:	04410028 	bgez	v0,0x41c8
    4128:	8fbf0010 	lw	ra,16(sp)
    412c:	93620081 	lbu	v0,129(k1)
    4130:	24420001 	addiu	v0,v0,1
    4134:	a3620081 	sb	v0,129(k1)
    4138:	93620081 	lbu	v0,129(k1)
    413c:	2c420004 	sltiu	v0,v0,4
    4140:	14400010 	bnez	v0,0x4184
    4144:	00000000 	nop
    4148:	9362003f 	lbu	v0,63(k1)
    414c:	24030004 	li	v1,4
    4150:	304200ff 	andi	v0,v0,0xff
    4154:	14430006 	bne	v0,v1,0x4170
    4158:	00000000 	nop
    415c:	8f440140 	lw	a0,320(k0)
    4160:	8fbf0010 	lw	ra,16(sp)
    4164:	24050093 	li	a1,147
    4168:	0a000638 	j	0x80018e0
    416c:	27bd0018 	addiu	sp,sp,24
    4170:	8f440140 	lw	a0,320(k0)
    4174:	24050093 	li	a1,147
    4178:	8fbf0010 	lw	ra,16(sp)
    417c:	0a0006a7 	j	0x8001a9c
    4180:	27bd0018 	addiu	sp,sp,24
    4184:	8f440140 	lw	a0,320(k0)
    4188:	0e000302 	jal	0x8000c08
    418c:	00000000 	nop
    4190:	8f620054 	lw	v0,84(k1)
    4194:	2442ffff 	addiu	v0,v0,-1
    4198:	af620054 	sw	v0,84(k1)
    419c:	8f620050 	lw	v0,80(k1)
    41a0:	2442ffff 	addiu	v0,v0,-1
    41a4:	af620050 	sw	v0,80(k1)
    41a8:	0e00030b 	jal	0x8000c2c
    41ac:	8f440140 	lw	a0,320(k0)
    41b0:	8f440140 	lw	a0,320(k0)
    41b4:	8fbf0010 	lw	ra,16(sp)
    41b8:	24050004 	li	a1,4
    41bc:	0a000310 	j	0x8000c40
    41c0:	27bd0018 	addiu	sp,sp,24
    41c4:	8fbf0010 	lw	ra,16(sp)
    41c8:	03e00008 	jr	ra
    41cc:	27bd0018 	addiu	sp,sp,24
    41d0:	8f420188 	lw	v0,392(k0)
    41d4:	9363007e 	lbu	v1,126(k1)
    41d8:	00021402 	srl	v0,v0,0x10
    41dc:	304400ff 	andi	a0,v0,0xff
    41e0:	306300ff 	andi	v1,v1,0xff
    41e4:	1464000d 	bne	v1,a0,0x421c
    41e8:	00000000 	nop
    41ec:	93620080 	lbu	v0,128(k1)
    41f0:	304200ff 	andi	v0,v0,0xff
    41f4:	10440009 	beq	v0,a0,0x421c
    41f8:	00000000 	nop
    41fc:	a3640080 	sb	a0,128(k1)
    4200:	93620000 	lbu	v0,0(k1)
    4204:	24030050 	li	v1,80
    4208:	304200ff 	andi	v0,v0,0xff
    420c:	14430004 	bne	v0,v1,0x4220
    4210:	00000000 	nop
    4214:	0a00076f 	j	0x8001dbc
    4218:	8f440180 	lw	a0,384(k0)
    421c:	a3640080 	sb	a0,128(k1)
    4220:	03e00008 	jr	ra
    4224:	00000000 	nop
    4228:	27bdffe8 	addiu	sp,sp,-24
    422c:	afb00010 	sw	s0,16(sp)
    4230:	afbf0014 	sw	ra,20(sp)
    4234:	93620005 	lbu	v0,5(k1)
    4238:	24030030 	li	v1,48
    423c:	30420030 	andi	v0,v0,0x30
    4240:	14430089 	bne	v0,v1,0x4468
    4244:	00808021 	move	s0,a0
    4248:	3c020800 	lui	v0,0x800
    424c:	8c420020 	lw	v0,32(v0)
    4250:	10400080 	beqz	v0,0x4454
    4254:	02002021 	move	a0,s0
    4258:	0e00052b 	jal	0x80014ac
    425c:	00000000 	nop
    4260:	8f850020 	lw	a1,32(gp)
    4264:	acb00000 	sw	s0,0(a1)
    4268:	9362003e 	lbu	v0,62(k1)
    426c:	9363003f 	lbu	v1,63(k1)
    4270:	304200ff 	andi	v0,v0,0xff
    4274:	00021200 	sll	v0,v0,0x8
    4278:	306300ff 	andi	v1,v1,0xff
    427c:	00431025 	or	v0,v0,v1
    4280:	aca20004 	sw	v0,4(a1)
    4284:	93620082 	lbu	v0,130(k1)
    4288:	00021600 	sll	v0,v0,0x18
    428c:	00021603 	sra	v0,v0,0x18
    4290:	04410005 	bgez	v0,0x42a8
    4294:	00000000 	nop
    4298:	3c030800 	lui	v1,0x800
    429c:	8c630048 	lw	v1,72(v1)
    42a0:	0a00107e 	j	0x80041f8
    42a4:	00000000 	nop
    42a8:	9362003e 	lbu	v0,62(k1)
    42ac:	30420040 	andi	v0,v0,0x40
    42b0:	14400003 	bnez	v0,0x42c0
    42b4:	00001821 	move	v1,zero
    42b8:	93620081 	lbu	v0,129(k1)
    42bc:	304300ff 	andi	v1,v0,0xff
    42c0:	93620082 	lbu	v0,130(k1)
    42c4:	00031e00 	sll	v1,v1,0x18
    42c8:	304200ff 	andi	v0,v0,0xff
    42cc:	00021400 	sll	v0,v0,0x10
    42d0:	00621825 	or	v1,v1,v0
    42d4:	aca30008 	sw	v1,8(a1)
    42d8:	8f620040 	lw	v0,64(k1)
    42dc:	aca2000c 	sw	v0,12(a1)
    42e0:	8f620048 	lw	v0,72(k1)
    42e4:	aca20010 	sw	v0,16(a1)
    42e8:	8f62004c 	lw	v0,76(k1)
    42ec:	aca20014 	sw	v0,20(a1)
    42f0:	8f620050 	lw	v0,80(k1)
    42f4:	8f63004c 	lw	v1,76(k1)
    42f8:	00431023 	subu	v0,v0,v1
    42fc:	04410003 	bgez	v0,0x430c
    4300:	00000000 	nop
    4304:	0a001092 	j	0x8004248
    4308:	8f62004c 	lw	v0,76(k1)
    430c:	8f620050 	lw	v0,80(k1)
    4310:	aca20018 	sw	v0,24(a1)
    4314:	3c020800 	lui	v0,0x800
    4318:	94424dbe 	lhu	v0,19902(v0)
    431c:	3c03c00b 	lui	v1,0xc00b
    4320:	00002021 	move	a0,zero
    4324:	00431025 	or	v0,v0,v1
    4328:	0e000550 	jal	0x8001540
    432c:	aca2001c 	sw	v0,28(a1)
    4330:	8f620054 	lw	v0,84(k1)
    4334:	8f840020 	lw	a0,32(gp)
    4338:	ac820000 	sw	v0,0(a0)
    433c:	8f620058 	lw	v0,88(k1)
    4340:	ac820004 	sw	v0,4(a0)
    4344:	8f62005c 	lw	v0,92(k1)
    4348:	ac820008 	sw	v0,8(a0)
    434c:	8f620060 	lw	v0,96(k1)
    4350:	8f430074 	lw	v1,116(k0)
    4354:	00431021 	addu	v0,v0,v1
    4358:	ac82000c 	sw	v0,12(a0)
    435c:	8f620064 	lw	v0,100(k1)
    4360:	ac820010 	sw	v0,16(a0)
    4364:	97630068 	lhu	v1,104(k1)
    4368:	9762006a 	lhu	v0,106(k1)
    436c:	00031c00 	sll	v1,v1,0x10
    4370:	3042ffff 	andi	v0,v0,0xffff
    4374:	00621825 	or	v1,v1,v0
    4378:	ac830014 	sw	v1,20(a0)
    437c:	93620082 	lbu	v0,130(k1)
    4380:	24030080 	li	v1,128
    4384:	304200ff 	andi	v0,v0,0xff
    4388:	14430003 	bne	v0,v1,0x4398
    438c:	00000000 	nop
    4390:	0a0010c6 	j	0x8004318
    4394:	ac800018 	sw	zero,24(a0)
    4398:	8f63000c 	lw	v1,12(k1)
    439c:	24020001 	li	v0,1
    43a0:	1062000e 	beq	v1,v0,0x43dc
    43a4:	2402ffff 	li	v0,-1
    43a8:	9362003e 	lbu	v0,62(k1)
    43ac:	30420040 	andi	v0,v0,0x40
    43b0:	1440000a 	bnez	v0,0x43dc
    43b4:	2402ffff 	li	v0,-1
    43b8:	8f63000c 	lw	v1,12(k1)
    43bc:	8f420074 	lw	v0,116(k0)
    43c0:	00621823 	subu	v1,v1,v0
    43c4:	3c020800 	lui	v0,0x800
    43c8:	00621024 	and	v0,v1,v0
    43cc:	14400002 	bnez	v0,0x43d8
    43d0:	00002821 	move	a1,zero
    43d4:	00602821 	move	a1,v1
    43d8:	00051043 	sra	v0,a1,0x1
    43dc:	ac820018 	sw	v0,24(a0)
    43e0:	3c020800 	lui	v0,0x800
    43e4:	94424dbe 	lhu	v0,19902(v0)
    43e8:	3c03c00c 	lui	v1,0xc00c
    43ec:	00002021 	move	a0,zero
    43f0:	00431025 	or	v0,v0,v1
    43f4:	8f830020 	lw	v1,32(gp)
    43f8:	0e000550 	jal	0x8001540
    43fc:	ac62001c 	sw	v0,28(v1)
    4400:	8f620018 	lw	v0,24(k1)
    4404:	8f830020 	lw	v1,32(gp)
    4408:	3c050800 	lui	a1,0x800
    440c:	94a54dbe 	lhu	a1,19902(a1)
    4410:	24040001 	li	a0,1
    4414:	ac620000 	sw	v0,0(v1)
    4418:	ac600004 	sw	zero,4(v1)
    441c:	8f66006c 	lw	a2,108(k1)
    4420:	3c02400d 	lui	v0,0x400d
    4424:	00a22825 	or	a1,a1,v0
    4428:	ac660008 	sw	a2,8(v1)
    442c:	8f6200dc 	lw	v0,220(k1)
    4430:	ac62000c 	sw	v0,12(v1)
    4434:	ac600010 	sw	zero,16(v1)
    4438:	93620005 	lbu	v0,5(k1)
    443c:	00021600 	sll	v0,v0,0x18
    4440:	ac620014 	sw	v0,20(v1)
    4444:	ac600018 	sw	zero,24(v1)
    4448:	0e000550 	jal	0x8001540
    444c:	ac65001c 	sw	a1,28(v1)
    4450:	02002021 	move	a0,s0
    4454:	8fbf0014 	lw	ra,20(sp)
    4458:	8fb00010 	lw	s0,16(sp)
    445c:	a3600005 	sb	zero,5(k1)
    4460:	0a0004b9 	j	0x80012e4
    4464:	27bd0018 	addiu	sp,sp,24
    4468:	8fbf0014 	lw	ra,20(sp)
    446c:	8fb00010 	lw	s0,16(sp)
    4470:	03e00008 	jr	ra
    4474:	27bd0018 	addiu	sp,sp,24
    4478:	9742007c 	lhu	v0,124(k0)
    447c:	30c600ff 	andi	a2,a2,0xff
    4480:	a0860084 	sb	a2,132(a0)
    4484:	3047ffff 	andi	a3,v0,0xffff
    4488:	24020005 	li	v0,5
    448c:	14c2000b 	bne	a2,v0,0x44bc
    4490:	24e34650 	addiu	v1,a3,18000
    4494:	90a20112 	lbu	v0,274(a1)
    4498:	2c420007 	sltiu	v0,v0,7
    449c:	10400007 	beqz	v0,0x44bc
    44a0:	24e30a00 	addiu	v1,a3,2560
    44a4:	90a30112 	lbu	v1,274(a1)
    44a8:	24020014 	li	v0,20
    44ac:	00621004 	sllv	v0,v0,v1
    44b0:	00e21021 	addu	v0,a3,v0
    44b4:	0a0010fe 	j	0x80043f8
    44b8:	3047ffff 	andi	a3,v0,0xffff
    44bc:	3067ffff 	andi	a3,v1,0xffff
    44c0:	03e00008 	jr	ra
    44c4:	a4870014 	sh	a3,20(a0)
    44c8:	ac87004c 	sw	a3,76(a0)
    44cc:	8ca20108 	lw	v0,264(a1)
    44d0:	00804021 	move	t0,a0
    44d4:	00a04821 	move	t1,a1
    44d8:	00e21023 	subu	v0,a3,v0
    44dc:	30c600ff 	andi	a2,a2,0xff
    44e0:	18400003 	blez	v0,0x44f0
    44e4:	93aa0013 	lbu	t2,19(sp)
    44e8:	24e2fffc 	addiu	v0,a3,-4
    44ec:	aca20108 	sw	v0,264(a1)
    44f0:	30c20001 	andi	v0,a2,0x1
    44f4:	10400008 	beqz	v0,0x4518
    44f8:	00000000 	nop
    44fc:	8d020050 	lw	v0,80(t0)
    4500:	00e21023 	subu	v0,a3,v0
    4504:	04410013 	bgez	v0,0x4554
    4508:	24060005 	li	a2,5
    450c:	8d020054 	lw	v0,84(t0)
    4510:	10e20010 	beq	a3,v0,0x4554
    4514:	00000000 	nop
    4518:	8d020054 	lw	v0,84(t0)
    451c:	14e2001a 	bne	a3,v0,0x4588
    4520:	00000000 	nop
    4524:	3c020800 	lui	v0,0x800
    4528:	8c4200d8 	lw	v0,216(v0)
    452c:	30420020 	andi	v0,v0,0x20
    4530:	1040000a 	beqz	v0,0x455c
    4534:	24020001 	li	v0,1
    4538:	91030078 	lbu	v1,120(t0)
    453c:	91020083 	lbu	v0,131(t0)
    4540:	14430006 	bne	v0,v1,0x455c
    4544:	24020001 	li	v0,1
    4548:	01002021 	move	a0,t0
    454c:	01202821 	move	a1,t1
    4550:	24060004 	li	a2,4
    4554:	0a0010ec 	j	0x80043b0
    4558:	00000000 	nop
    455c:	a1000084 	sb	zero,132(t0)
    4560:	11400009 	beqz	t2,0x4588
    4564:	a5020014 	sh	v0,20(t0)
    4568:	8f430100 	lw	v1,256(k0)
    456c:	8f4201f8 	lw	v0,504(k0)
    4570:	0440fffe 	bltz	v0,0x456c
    4574:	24020002 	li	v0,2
    4578:	af4301c0 	sw	v1,448(k0)
    457c:	a34201c4 	sb	v0,452(k0)
    4580:	3c021000 	lui	v0,0x1000
    4584:	af4201f8 	sw	v0,504(k0)
    4588:	03e00008 	jr	ra
    458c:	00000000 	nop
    4590:	27bdffe8 	addiu	sp,sp,-24
    4594:	8fa90028 	lw	t1,40(sp)
    4598:	afbf0010 	sw	ra,16(sp)
    459c:	00804021 	move	t0,a0
    45a0:	00e91823 	subu	v1,a3,t1
    45a4:	18600073 	blez	v1,0x4774
    45a8:	30c600ff 	andi	a2,a2,0xff
    45ac:	a080007c 	sb	zero,124(a0)
    45b0:	a0800081 	sb	zero,129(a0)
    45b4:	8ca20108 	lw	v0,264(a1)
    45b8:	00e21023 	subu	v0,a3,v0
    45bc:	0440004d 	bltz	v0,0x46f4
    45c0:	00000000 	nop
    45c4:	8c820050 	lw	v0,80(a0)
    45c8:	9483003c 	lhu	v1,60(a0)
    45cc:	8c840064 	lw	a0,100(a0)
    45d0:	00474823 	subu	t1,v0,a3
    45d4:	3063ffff 	andi	v1,v1,0xffff
    45d8:	01231821 	addu	v1,t1,v1
    45dc:	0083202b 	sltu	a0,a0,v1
    45e0:	10800004 	beqz	a0,0x45f4
    45e4:	00000000 	nop
    45e8:	8d020064 	lw	v0,100(t0)
    45ec:	0a00114f 	j	0x800453c
    45f0:	00e21021 	addu	v0,a3,v0
    45f4:	9502003c 	lhu	v0,60(t0)
    45f8:	3042ffff 	andi	v0,v0,0xffff
    45fc:	01221021 	addu	v0,t1,v0
    4600:	00e21021 	addu	v0,a3,v0
    4604:	ad02005c 	sw	v0,92(t0)
    4608:	9502003c 	lhu	v0,60(t0)
    460c:	8d03005c 	lw	v1,92(t0)
    4610:	3042ffff 	andi	v0,v0,0xffff
    4614:	00021040 	sll	v0,v0,0x1
    4618:	00e21021 	addu	v0,a3,v0
    461c:	0043102b 	sltu	v0,v0,v1
    4620:	10400003 	beqz	v0,0x4630
    4624:	00000000 	nop
    4628:	0a00115e 	j	0x8004578
    462c:	8d02005c 	lw	v0,92(t0)
    4630:	9502003c 	lhu	v0,60(t0)
    4634:	3042ffff 	andi	v0,v0,0xffff
    4638:	00021040 	sll	v0,v0,0x1
    463c:	00e21021 	addu	v0,a3,v0
    4640:	ad02005c 	sw	v0,92(t0)
    4644:	a1000084 	sb	zero,132(t0)
    4648:	ad07004c 	sw	a3,76(t0)
    464c:	8ca20108 	lw	v0,264(a1)
    4650:	00e21023 	subu	v0,a3,v0
    4654:	18400002 	blez	v0,0x4660
    4658:	24e2fffc 	addiu	v0,a3,-4
    465c:	aca20108 	sw	v0,264(a1)
    4660:	30c20001 	andi	v0,a2,0x1
    4664:	1040000a 	beqz	v0,0x4690
    4668:	00000000 	nop
    466c:	8d020050 	lw	v0,80(t0)
    4670:	00e21023 	subu	v0,a3,v0
    4674:	04410004 	bgez	v0,0x4688
    4678:	01002021 	move	a0,t0
    467c:	8d020054 	lw	v0,84(t0)
    4680:	14e20003 	bne	a3,v0,0x4690
    4684:	00000000 	nop
    4688:	0a001180 	j	0x8004600
    468c:	24060005 	li	a2,5
    4690:	8d020054 	lw	v0,84(t0)
    4694:	14e20047 	bne	a3,v0,0x47b4
    4698:	8fbf0010 	lw	ra,16(sp)
    469c:	3c020800 	lui	v0,0x800
    46a0:	8c4200d8 	lw	v0,216(v0)
    46a4:	30420020 	andi	v0,v0,0x20
    46a8:	1040000a 	beqz	v0,0x46d4
    46ac:	24020001 	li	v0,1
    46b0:	91030078 	lbu	v1,120(t0)
    46b4:	91020083 	lbu	v0,131(t0)
    46b8:	14430006 	bne	v0,v1,0x46d4
    46bc:	24020001 	li	v0,1
    46c0:	01002021 	move	a0,t0
    46c4:	24060004 	li	a2,4
    46c8:	8fbf0010 	lw	ra,16(sp)
    46cc:	0a0010ec 	j	0x80043b0
    46d0:	27bd0018 	addiu	sp,sp,24
    46d4:	a1000084 	sb	zero,132(t0)
    46d8:	a5020014 	sh	v0,20(t0)
    46dc:	8f430100 	lw	v1,256(k0)
    46e0:	8f4201f8 	lw	v0,504(k0)
    46e4:	0440fffe 	bltz	v0,0x46e0
    46e8:	24020002 	li	v0,2
    46ec:	0a0011a5 	j	0x8004694
    46f0:	00000000 	nop
    46f4:	8c82005c 	lw	v0,92(a0)
    46f8:	00491023 	subu	v0,v0,t1
    46fc:	0043102b 	sltu	v0,v0,v1
    4700:	54400001 	bnezl	v0,0x4708
    4704:	ac87005c 	sw	a3,92(a0)
    4708:	9502003c 	lhu	v0,60(t0)
    470c:	3042ffff 	andi	v0,v0,0xffff
    4710:	0062102b 	sltu	v0,v1,v0
    4714:	14400007 	bnez	v0,0x4734
    4718:	24020002 	li	v0,2
    471c:	9502003c 	lhu	v0,60(t0)
    4720:	8d03005c 	lw	v1,92(t0)
    4724:	3042ffff 	andi	v0,v0,0xffff
    4728:	00621821 	addu	v1,v1,v0
    472c:	ad03005c 	sw	v1,92(t0)
    4730:	24020002 	li	v0,2
    4734:	ad07004c 	sw	a3,76(t0)
    4738:	a1020084 	sb	v0,132(t0)
    473c:	0e000fa2 	jal	0x8003e88
    4740:	8f440100 	lw	a0,256(k0)
    4744:	1040001b 	beqz	v0,0x47b4
    4748:	8fbf0010 	lw	ra,16(sp)
    474c:	8f430100 	lw	v1,256(k0)
    4750:	8f4201f8 	lw	v0,504(k0)
    4754:	0440fffe 	bltz	v0,0x4750
    4758:	24020002 	li	v0,2
    475c:	af4301c0 	sw	v1,448(k0)
    4760:	a34201c4 	sb	v0,452(k0)
    4764:	3c021000 	lui	v0,0x1000
    4768:	af4201f8 	sw	v0,504(k0)
    476c:	0a0011bb 	j	0x80046ec
    4770:	8fbf0010 	lw	ra,16(sp)
    4774:	30c20010 	andi	v0,a2,0x10
    4778:	1040000e 	beqz	v0,0x47b4
    477c:	8fbf0010 	lw	ra,16(sp)
    4780:	8c83005c 	lw	v1,92(a0)
    4784:	9482003c 	lhu	v0,60(a0)
    4788:	00691823 	subu	v1,v1,t1
    478c:	3042ffff 	andi	v0,v0,0xffff
    4790:	00621821 	addu	v1,v1,v0
    4794:	3c023fff 	lui	v0,0x3fff
    4798:	3444ffff 	ori	a0,v0,0xffff
    479c:	0083102b 	sltu	v0,a0,v1
    47a0:	54400001 	bnezl	v0,0x47a8
    47a4:	00801821 	move	v1,a0
    47a8:	01231021 	addu	v0,t1,v1
    47ac:	ad02005c 	sw	v0,92(t0)
    47b0:	8fbf0010 	lw	ra,16(sp)
    47b4:	03e00008 	jr	ra
    47b8:	27bd0018 	addiu	sp,sp,24
    47bc:	27bdffe8 	addiu	sp,sp,-24
    47c0:	8faa0028 	lw	t2,40(sp)
    47c4:	afbf0010 	sw	ra,16(sp)
    47c8:	00804021 	move	t0,a0
    47cc:	00ea4823 	subu	t1,a3,t2
    47d0:	19200021 	blez	t1,0x4858
    47d4:	30c600ff 	andi	a2,a2,0xff
    47d8:	8c83005c 	lw	v1,92(a0)
    47dc:	8c820064 	lw	v0,100(a0)
    47e0:	006a1823 	subu	v1,v1,t2
    47e4:	0043102b 	sltu	v0,v0,v1
    47e8:	50400010 	beqzl	v0,0x482c
    47ec:	00691821 	addu	v1,v1,t1
    47f0:	94a20110 	lhu	v0,272(a1)
    47f4:	01221021 	addu	v0,t1,v0
    47f8:	a4a20110 	sh	v0,272(a1)
    47fc:	94a20110 	lhu	v0,272(a1)
    4800:	3042ffff 	andi	v0,v0,0xffff
    4804:	0043102b 	sltu	v0,v0,v1
    4808:	1440000a 	bnez	v0,0x4834
    480c:	3c023fff 	lui	v0,0x3fff
    4810:	94a20110 	lhu	v0,272(a1)
    4814:	00431023 	subu	v0,v0,v1
    4818:	a4a20110 	sh	v0,272(a1)
    481c:	9482003c 	lhu	v0,60(a0)
    4820:	3042ffff 	andi	v0,v0,0xffff
    4824:	0a0011da 	j	0x8004768
    4828:	00621821 	addu	v1,v1,v0
    482c:	a4a00110 	sh	zero,272(a1)
    4830:	3c023fff 	lui	v0,0x3fff
    4834:	3444ffff 	ori	a0,v0,0xffff
    4838:	0083102b 	sltu	v0,a0,v1
    483c:	54400001 	bnezl	v0,0x4844
    4840:	00801821 	move	v1,a0
    4844:	00671021 	addu	v0,v1,a3
    4848:	ad02005c 	sw	v0,92(t0)
    484c:	a100007c 	sb	zero,124(t0)
    4850:	0a001222 	j	0x8004888
    4854:	a1000081 	sb	zero,129(t0)
    4858:	30c20010 	andi	v0,a2,0x10
    485c:	1040003c 	beqz	v0,0x4950
    4860:	00000000 	nop
    4864:	8c820050 	lw	v0,80(a0)
    4868:	004a1023 	subu	v0,v0,t2
    486c:	18400038 	blez	v0,0x4950
    4870:	00000000 	nop
    4874:	9082007c 	lbu	v0,124(a0)
    4878:	24420001 	addiu	v0,v0,1
    487c:	a082007c 	sb	v0,124(a0)
    4880:	9082007c 	lbu	v0,124(a0)
    4884:	3c030800 	lui	v1,0x800
    4888:	8c630024 	lw	v1,36(v1)
    488c:	304200ff 	andi	v0,v0,0xff
    4890:	0043102b 	sltu	v0,v0,v1
    4894:	1440005c 	bnez	v0,0x4a08
    4898:	8fbf0010 	lw	ra,16(sp)
    489c:	8ca20108 	lw	v0,264(a1)
    48a0:	00e21023 	subu	v0,a3,v0
    48a4:	18400058 	blez	v0,0x4a08
    48a8:	00000000 	nop
    48ac:	8c830054 	lw	v1,84(a0)
    48b0:	9482003c 	lhu	v0,60(a0)
    48b4:	006a1823 	subu	v1,v1,t2
    48b8:	3042ffff 	andi	v0,v0,0xffff
    48bc:	00031843 	sra	v1,v1,0x1
    48c0:	00021040 	sll	v0,v0,0x1
    48c4:	0043102a 	slt	v0,v0,v1
    48c8:	10400005 	beqz	v0,0x48e0
    48cc:	00000000 	nop
    48d0:	8c820054 	lw	v0,84(a0)
    48d4:	004a1023 	subu	v0,v0,t2
    48d8:	0a001209 	j	0x8004824
    48dc:	00021043 	sra	v0,v0,0x1
    48e0:	9482003c 	lhu	v0,60(a0)
    48e4:	3042ffff 	andi	v0,v0,0xffff
    48e8:	00021040 	sll	v0,v0,0x1
    48ec:	ad020064 	sw	v0,100(t0)
    48f0:	9502003c 	lhu	v0,60(t0)
    48f4:	8d040064 	lw	a0,100(t0)
    48f8:	9503003c 	lhu	v1,60(t0)
    48fc:	3042ffff 	andi	v0,v0,0xffff
    4900:	00021040 	sll	v0,v0,0x1
    4904:	00822021 	addu	a0,a0,v0
    4908:	3063ffff 	andi	v1,v1,0xffff
    490c:	00831821 	addu	v1,a0,v1
    4910:	01431021 	addu	v0,t2,v1
    4914:	ad02005c 	sw	v0,92(t0)
    4918:	8d020054 	lw	v0,84(t0)
    491c:	aca20108 	sw	v0,264(a1)
    4920:	24020002 	li	v0,2
    4924:	a1020084 	sb	v0,132(t0)
    4928:	0e000fa2 	jal	0x8003e88
    492c:	8f440100 	lw	a0,256(k0)
    4930:	10400035 	beqz	v0,0x4a08
    4934:	8fbf0010 	lw	ra,16(sp)
    4938:	8f430100 	lw	v1,256(k0)
    493c:	8f4201f8 	lw	v0,504(k0)
    4940:	0440fffe 	bltz	v0,0x493c
    4944:	24020002 	li	v0,2
    4948:	0a00124b 	j	0x800492c
    494c:	00000000 	nop
    4950:	ad07004c 	sw	a3,76(t0)
    4954:	8ca20108 	lw	v0,264(a1)
    4958:	00e21023 	subu	v0,a3,v0
    495c:	18400002 	blez	v0,0x4968
    4960:	24e2fffc 	addiu	v0,a3,-4
    4964:	aca20108 	sw	v0,264(a1)
    4968:	30c20001 	andi	v0,a2,0x1
    496c:	1040000a 	beqz	v0,0x4998
    4970:	00000000 	nop
    4974:	8d020050 	lw	v0,80(t0)
    4978:	00e21023 	subu	v0,a3,v0
    497c:	04410004 	bgez	v0,0x4990
    4980:	01002021 	move	a0,t0
    4984:	8d020054 	lw	v0,84(t0)
    4988:	14e20003 	bne	a3,v0,0x4998
    498c:	00000000 	nop
    4990:	0a001242 	j	0x8004908
    4994:	24060005 	li	a2,5
    4998:	8d020054 	lw	v0,84(t0)
    499c:	14e2001a 	bne	a3,v0,0x4a08
    49a0:	8fbf0010 	lw	ra,16(sp)
    49a4:	3c020800 	lui	v0,0x800
    49a8:	8c4200d8 	lw	v0,216(v0)
    49ac:	30420020 	andi	v0,v0,0x20
    49b0:	1040000a 	beqz	v0,0x49dc
    49b4:	24020001 	li	v0,1
    49b8:	91030078 	lbu	v1,120(t0)
    49bc:	91020083 	lbu	v0,131(t0)
    49c0:	14430006 	bne	v0,v1,0x49dc
    49c4:	24020001 	li	v0,1
    49c8:	01002021 	move	a0,t0
    49cc:	24060004 	li	a2,4
    49d0:	8fbf0010 	lw	ra,16(sp)
    49d4:	0a0010ec 	j	0x80043b0
    49d8:	27bd0018 	addiu	sp,sp,24
    49dc:	a1000084 	sb	zero,132(t0)
    49e0:	a5020014 	sh	v0,20(t0)
    49e4:	8f430100 	lw	v1,256(k0)
    49e8:	8f4201f8 	lw	v0,504(k0)
    49ec:	0440fffe 	bltz	v0,0x49e8
    49f0:	24020002 	li	v0,2
    49f4:	af4301c0 	sw	v1,448(k0)
    49f8:	a34201c4 	sb	v0,452(k0)
    49fc:	3c021000 	lui	v0,0x1000
    4a00:	af4201f8 	sw	v0,504(k0)
    4a04:	8fbf0010 	lw	ra,16(sp)
    4a08:	03e00008 	jr	ra
    4a0c:	27bd0018 	addiu	sp,sp,24
    4a10:	8faa0010 	lw	t2,16(sp)
    4a14:	8c820050 	lw	v0,80(a0)
    4a18:	00804021 	move	t0,a0
    4a1c:	30c600ff 	andi	a2,a2,0xff
    4a20:	004a1023 	subu	v0,v0,t2
    4a24:	00a04821 	move	t1,a1
    4a28:	18400007 	blez	v0,0x4a48
    4a2c:	00e01821 	move	v1,a3
    4a30:	24020001 	li	v0,1
    4a34:	a0800084 	sb	zero,132(a0)
    4a38:	a0a00112 	sb	zero,274(a1)
    4a3c:	a4820014 	sh	v0,20(a0)
    4a40:	0a0011bd 	j	0x80046f4
    4a44:	afaa0010 	sw	t2,16(sp)
    4a48:	a0800081 	sb	zero,129(a0)
    4a4c:	ad07004c 	sw	a3,76(t0)
    4a50:	8ca20108 	lw	v0,264(a1)
    4a54:	00e21023 	subu	v0,a3,v0
    4a58:	18400002 	blez	v0,0x4a64
    4a5c:	24e2fffc 	addiu	v0,a3,-4
    4a60:	aca20108 	sw	v0,264(a1)
    4a64:	30c20001 	andi	v0,a2,0x1
    4a68:	10400008 	beqz	v0,0x4a8c
    4a6c:	00000000 	nop
    4a70:	8d020050 	lw	v0,80(t0)
    4a74:	00621023 	subu	v0,v1,v0
    4a78:	04410013 	bgez	v0,0x4ac8
    4a7c:	24060005 	li	a2,5
    4a80:	8d020054 	lw	v0,84(t0)
    4a84:	10620010 	beq	v1,v0,0x4ac8
    4a88:	00000000 	nop
    4a8c:	8d020054 	lw	v0,84(t0)
    4a90:	14620011 	bne	v1,v0,0x4ad8
    4a94:	00000000 	nop
    4a98:	3c020800 	lui	v0,0x800
    4a9c:	8c4200d8 	lw	v0,216(v0)
    4aa0:	30420020 	andi	v0,v0,0x20
    4aa4:	1040000a 	beqz	v0,0x4ad0
    4aa8:	24020001 	li	v0,1
    4aac:	91030078 	lbu	v1,120(t0)
    4ab0:	91020083 	lbu	v0,131(t0)
    4ab4:	14430006 	bne	v0,v1,0x4ad0
    4ab8:	24020001 	li	v0,1
    4abc:	01002021 	move	a0,t0
    4ac0:	01202821 	move	a1,t1
    4ac4:	24060004 	li	a2,4
    4ac8:	0a0010ec 	j	0x80043b0
    4acc:	00000000 	nop
    4ad0:	a1000084 	sb	zero,132(t0)
    4ad4:	a5020014 	sh	v0,20(t0)
    4ad8:	03e00008 	jr	ra
    4adc:	00000000 	nop
    4ae0:	27bdffe0 	addiu	sp,sp,-32
    4ae4:	afbf0018 	sw	ra,24(sp)
    4ae8:	27420100 	addiu	v0,k0,256
    4aec:	9046000a 	lbu	a2,10(v0)
    4af0:	8c480014 	lw	t0,20(v0)
    4af4:	8c8b004c 	lw	t3,76(a0)
    4af8:	90820084 	lbu	v0,132(a0)
    4afc:	30c900ff 	andi	t1,a2,0xff
    4b00:	01681823 	subu	v1,t3,t0
    4b04:	304a00ff 	andi	t2,v0,0xff
    4b08:	1c60001a 	bgtz	v1,0x4b74
    4b0c:	2d460006 	sltiu	a2,t2,6
    4b10:	24020001 	li	v0,1
    4b14:	01421004 	sllv	v0,v0,t2
    4b18:	10c00016 	beqz	a2,0x4b74
    4b1c:	30430003 	andi	v1,v0,0x3
    4b20:	01203021 	move	a2,t1
    4b24:	01003821 	move	a3,t0
    4b28:	14600007 	bnez	v1,0x4b48
    4b2c:	304c000c 	andi	t4,v0,0xc
    4b30:	15800009 	bnez	t4,0x4b58
    4b34:	30420030 	andi	v0,v0,0x30
    4b38:	1440000b 	bnez	v0,0x4b68
    4b3c:	8fbf0018 	lw	ra,24(sp)
    4b40:	0a0012ac 	j	0x8004ab0
    4b44:	00000000 	nop
    4b48:	0e0011bd 	jal	0x80046f4
    4b4c:	afab0010 	sw	t3,16(sp)
    4b50:	0a0012ac 	j	0x8004ab0
    4b54:	8fbf0018 	lw	ra,24(sp)
    4b58:	0e001132 	jal	0x80044c8
    4b5c:	afab0010 	sw	t3,16(sp)
    4b60:	0a0012ac 	j	0x8004ab0
    4b64:	8fbf0018 	lw	ra,24(sp)
    4b68:	afab0010 	sw	t3,16(sp)
    4b6c:	0e001252 	jal	0x8004948
    4b70:	afaa0014 	sw	t2,20(sp)
    4b74:	8fbf0018 	lw	ra,24(sp)
    4b78:	03e00008 	jr	ra
    4b7c:	27bd0020 	addiu	sp,sp,32
    4b80:	24020003 	li	v0,3
    4b84:	a0820084 	sb	v0,132(a0)
    4b88:	8c820054 	lw	v0,84(a0)
    4b8c:	03e00008 	jr	ra
    4b90:	aca20108 	sw	v0,264(a1)
    4b94:	3c020008 	lui	v0,0x8
    4b98:	03421821 	addu	v1,k0,v0
    4b9c:	90620081 	lbu	v0,129(v1)
    4ba0:	24060043 	li	a2,67
    4ba4:	3c076019 	lui	a3,0x6019
    4ba8:	24420001 	addiu	v0,v0,1
    4bac:	a0620081 	sb	v0,129(v1)
    4bb0:	90630081 	lbu	v1,129(v1)
    4bb4:	3c020800 	lui	v0,0x800
    4bb8:	8c4200c0 	lw	v0,192(v0)
    4bbc:	306300ff 	andi	v1,v1,0xff
    4bc0:	14620010 	bne	v1,v0,0x4c04
    4bc4:	2403ff80 	li	v1,-128
    4bc8:	3c020800 	lui	v0,0x800
    4bcc:	8c4200e0 	lw	v0,224(v0)
    4bd0:	00821021 	addu	v0,a0,v0
    4bd4:	00431024 	and	v0,v0,v1
    4bd8:	af420024 	sw	v0,36(k0)
    4bdc:	3c020800 	lui	v0,0x800
    4be0:	8c4200e0 	lw	v0,224(v0)
    4be4:	3c03000a 	lui	v1,0xa
    4be8:	00821021 	addu	v0,a0,v0
    4bec:	3042007f 	andi	v0,v0,0x7f
    4bf0:	03421021 	addu	v0,k0,v0
    4bf4:	00431021 	addu	v0,v0,v1
    4bf8:	944500d4 	lhu	a1,212(v0)
    4bfc:	0a000b89 	j	0x8002e24
    4c00:	30a5ffff 	andi	a1,a1,0xffff
    4c04:	03e00008 	jr	ra
    4c08:	00000000 	nop
    4c0c:	27bdffe0 	addiu	sp,sp,-32
    4c10:	afbf0018 	sw	ra,24(sp)
    4c14:	afb10014 	sw	s1,20(sp)
    4c18:	afb00010 	sw	s0,16(sp)
    4c1c:	8f420180 	lw	v0,384(k0)
    4c20:	00808021 	move	s0,a0
    4c24:	00a08821 	move	s1,a1
    4c28:	0e0012b3 	jal	0x8004acc
    4c2c:	00402021 	move	a0,v0
    4c30:	a2000084 	sb	zero,132(s0)
    4c34:	8e020054 	lw	v0,84(s0)
    4c38:	8fbf0018 	lw	ra,24(sp)
    4c3c:	8fb00010 	lw	s0,16(sp)
    4c40:	ae220108 	sw	v0,264(s1)
    4c44:	8fb10014 	lw	s1,20(sp)
    4c48:	03e00008 	jr	ra
    4c4c:	27bd0020 	addiu	sp,sp,32
    4c50:	27bdffe0 	addiu	sp,sp,-32
    4c54:	3c020008 	lui	v0,0x8
    4c58:	afb00010 	sw	s0,16(sp)
    4c5c:	afbf0018 	sw	ra,24(sp)
    4c60:	afb10014 	sw	s1,20(sp)
    4c64:	03428021 	addu	s0,k0,v0
    4c68:	8f510140 	lw	s1,320(k0)
    4c6c:	92030084 	lbu	v1,132(s0)
    4c70:	8e040050 	lw	a0,80(s0)
    4c74:	8e02004c 	lw	v0,76(s0)
    4c78:	14820040 	bne	a0,v0,0x4d7c
    4c7c:	306600ff 	andi	a2,v1,0xff
    4c80:	3c020800 	lui	v0,0x800
    4c84:	8c4200e0 	lw	v0,224(v0)
    4c88:	2403ff80 	li	v1,-128
    4c8c:	02221021 	addu	v0,s1,v0
    4c90:	00431024 	and	v0,v0,v1
    4c94:	af420024 	sw	v0,36(k0)
    4c98:	3c020800 	lui	v0,0x800
    4c9c:	8c4200e0 	lw	v0,224(v0)
    4ca0:	9744007c 	lhu	a0,124(k0)
    4ca4:	92050081 	lbu	a1,129(s0)
    4ca8:	02221021 	addu	v0,s1,v0
    4cac:	3042007f 	andi	v0,v0,0x7f
    4cb0:	03421821 	addu	v1,k0,v0
    4cb4:	3c02000a 	lui	v0,0xa
    4cb8:	00621821 	addu	v1,v1,v0
    4cbc:	14a0000b 	bnez	a1,0x4cec
    4cc0:	3084ffff 	andi	a0,a0,0xffff
    4cc4:	24020005 	li	v0,5
    4cc8:	54c20014 	bnel	a2,v0,0x4d1c
    4ccc:	248205dc 	addiu	v0,a0,1500
    4cd0:	90620112 	lbu	v0,274(v1)
    4cd4:	24420001 	addiu	v0,v0,1
    4cd8:	a0620112 	sb	v0,274(v1)
    4cdc:	24020c80 	li	v0,3200
    4ce0:	af420024 	sw	v0,36(k0)
    4ce4:	0a00130b 	j	0x8004c2c
    4ce8:	24020005 	li	v0,5
    4cec:	a0600112 	sb	zero,274(v1)
    4cf0:	24020005 	li	v0,5
    4cf4:	14c20009 	bne	a2,v0,0x4d1c
    4cf8:	248205dc 	addiu	v0,a0,1500
    4cfc:	92020081 	lbu	v0,129(s0)
    4d00:	2c420007 	sltiu	v0,v0,7
    4d04:	50400005 	beqzl	v0,0x4d1c
    4d08:	24820a00 	addiu	v0,a0,2560
    4d0c:	92030081 	lbu	v1,129(s0)
    4d10:	24020014 	li	v0,20
    4d14:	00621004 	sllv	v0,v0,v1
    4d18:	00821021 	addu	v0,a0,v0
    4d1c:	3044ffff 	andi	a0,v0,0xffff
    4d20:	a6040014 	sh	a0,20(s0)
    4d24:	0e0012b3 	jal	0x8004acc
    4d28:	02202021 	move	a0,s1
    4d2c:	9602003c 	lhu	v0,60(s0)
    4d30:	8e03004c 	lw	v1,76(s0)
    4d34:	02202021 	move	a0,s1
    4d38:	3042ffff 	andi	v0,v0,0xffff
    4d3c:	00021040 	sll	v0,v0,0x1
    4d40:	00621821 	addu	v1,v1,v0
    4d44:	0e000302 	jal	0x8000c08
    4d48:	ae03005c 	sw	v1,92(s0)
    4d4c:	9202007d 	lbu	v0,125(s0)
    4d50:	02202021 	move	a0,s1
    4d54:	34420040 	ori	v0,v0,0x40
    4d58:	0e00030b 	jal	0x8000c2c
    4d5c:	a202007d 	sb	v0,125(s0)
    4d60:	8f4201f8 	lw	v0,504(k0)
    4d64:	0440fffe 	bltz	v0,0x4d60
    4d68:	24020002 	li	v0,2
    4d6c:	af5101c0 	sw	s1,448(k0)
    4d70:	a34201c4 	sb	v0,452(k0)
    4d74:	3c021000 	lui	v0,0x1000
    4d78:	af4201f8 	sw	v0,504(k0)
    4d7c:	8fbf0018 	lw	ra,24(sp)
    4d80:	8fb10014 	lw	s1,20(sp)
    4d84:	8fb00010 	lw	s0,16(sp)
    4d88:	03e00008 	jr	ra
    4d8c:	27bd0020 	addiu	sp,sp,32
    4d90:	08000d98 	j	0x3660
    4d94:	08000de0 	j	0x3780
    4d98:	08000e20 	j	0x3880
    4d9c:	08000e6c 	j	0x39b0
    4da0:	08000ea0 	j	0x3a80
    4da4:	0a000022 	j	0x8000088
    4da8:	00000000 	nop
    4dac:	00000000 	nop
    4db0:	0000000d 	break
    4db4:	6370352e 	daddi	s0,k1,13614
    4db8:	302e306a 	andi	t6,at,0x306a
    4dbc:	36000000 	ori	zero,s0,0x0
    4dc0:	05000004 	bltz	t0,0x4dd4
    4dc4:	00000000 	nop
	...
    4dec:	00000020 	add	zero,zero,zero
	...
    4e1c:	00000001 	.word	0x1
    4e20:	0000002b 	sltu	zero,zero,zero
	...
    4e30:	10000003 	b	0x4e40
    4e34:	00000000 	nop
    4e38:	0000000d 	break
    4e3c:	0000000d 	break
    4e40:	3c020800 	lui	v0,0x800
    4e44:	24425ac4 	addiu	v0,v0,23236
    4e48:	3c030800 	lui	v1,0x800
    4e4c:	24636190 	addiu	v1,v1,24976
    4e50:	ac400000 	sw	zero,0(v0)
    4e54:	0043202b 	sltu	a0,v0,v1
    4e58:	1480fffd 	bnez	a0,0x4e50
    4e5c:	24420004 	addiu	v0,v0,4
    4e60:	3c1d0800 	lui	sp,0x800
    4e64:	37bd7ffc 	ori	sp,sp,0x7ffc
    4e68:	03a0f021 	move	s8,sp
    4e6c:	3c100800 	lui	s0,0x800
    4e70:	26100088 	addiu	s0,s0,136
    4e74:	3c1c0800 	lui	gp,0x800
    4e78:	279c5ac4 	addiu	gp,gp,23236
    4e7c:	0e0001a6 	jal	0x8000698
    4e80:	00000000 	nop
    4e84:	0000000d 	break
    4e88:	27bdffe8 	addiu	sp,sp,-24
    4e8c:	3c096018 	lui	t1,0x6018
    4e90:	afbf0010 	sw	ra,16(sp)
    4e94:	8d2c5000 	lw	t4,20480(t1)
    4e98:	240dff7f 	li	t5,-129
    4e9c:	24080031 	li	t0,49
    4ea0:	018d5824 	and	t3,t4,t5
    4ea4:	356a380c 	ori	t2,t3,0x380c
    4ea8:	24070c00 	li	a3,3072
    4eac:	3c1a8000 	lui	k0,0x8000
    4eb0:	ad2a5000 	sw	t2,20480(t1)
    4eb4:	3c04800a 	lui	a0,0x800a
    4eb8:	af480008 	sw	t0,8(k0)
    4ebc:	3c1b8008 	lui	k1,0x8008
    4ec0:	af470024 	sw	a3,36(k0)
    4ec4:	0e000935 	jal	0x80024d4
    4ec8:	af840010 	sw	a0,16(gp)
    4ecc:	0e0008f8 	jal	0x80023e0
    4ed0:	00000000 	nop
    4ed4:	0e000845 	jal	0x8002114
    4ed8:	00000000 	nop
    4edc:	0e0012dc 	jal	0x8004b70
    4ee0:	00000000 	nop
    4ee4:	3c046016 	lui	a0,0x6016
    4ee8:	8c850000 	lw	a1,0(a0)
    4eec:	3c06ffff 	lui	a2,0xffff
    4ef0:	3c025353 	lui	v0,0x5353
    4ef4:	00a61824 	and	v1,a1,a2
    4ef8:	10620047 	beq	v1,v0,0x5018
    4efc:	34867c00 	ori	a2,a0,0x7c00
    4f00:	94c201f2 	lhu	v0,498(a2)
    4f04:	a780002c 	sh	zero,44(gp)
    4f08:	10400003 	beqz	v0,0x4f18
    4f0c:	a78000cc 	sh	zero,204(gp)
    4f10:	38581e1e 	xori	t8,v0,0x1e1e
    4f14:	a798002c 	sh	t8,44(gp)
    4f18:	94c201f8 	lhu	v0,504(a2)
    4f1c:	10400004 	beqz	v0,0x4f30
    4f20:	978300cc 	lhu	v1,204(gp)
    4f24:	38591e1e 	xori	t9,v0,0x1e1e
    4f28:	a79900cc 	sh	t9,204(gp)
    4f2c:	978300cc 	lhu	v1,204(gp)
    4f30:	2c7f0067 	sltiu	ra,v1,103
    4f34:	53e00001 	beqzl	ra,0x4f3c
    4f38:	24030066 	li	v1,102
    4f3c:	9784002c 	lhu	a0,44(gp)
    4f40:	2c820401 	sltiu	v0,a0,1025
    4f44:	14400002 	bnez	v0,0x4f50
    4f48:	00602821 	move	a1,v1
    4f4c:	24040400 	li	a0,1024
    4f50:	3c076000 	lui	a3,0x6000
    4f54:	8ce90438 	lw	t1,1080(a3)
    4f58:	2403103c 	li	v1,4156
    4f5c:	3128ffff 	andi	t0,t1,0xffff
    4f60:	1103001f 	beq	t0,v1,0x4fe0
    4f64:	30b9ffff 	andi	t9,a1,0xffff
    4f68:	57200010 	bnezl	t9,0x4fac
    4f6c:	a38000ce 	sb	zero,206(gp)
    4f70:	24020050 	li	v0,80
    4f74:	a38200ce 	sb	v0,206(gp)
    4f78:	939f00ce 	lbu	ra,206(gp)
    4f7c:	53e0000f 	beqzl	ra,0x4fbc
    4f80:	a78500cc 	sh	a1,204(gp)
    4f84:	a78000cc 	sh	zero,204(gp)
    4f88:	978500cc 	lhu	a1,204(gp)
    4f8c:	8fbf0010 	lw	ra,16(sp)
    4f90:	a780002c 	sh	zero,44(gp)
    4f94:	a7800034 	sh	zero,52(gp)
    4f98:	a78000e6 	sh	zero,230(gp)
    4f9c:	3c010800 	lui	at,0x800
    4fa0:	ac250080 	sw	a1,128(at)
    4fa4:	03e00008 	jr	ra
    4fa8:	27bd0018 	addiu	sp,sp,24
    4fac:	939f00ce 	lbu	ra,206(gp)
    4fb0:	57e0fff5 	bnezl	ra,0x4f88
    4fb4:	a78000cc 	sh	zero,204(gp)
    4fb8:	a78500cc 	sh	a1,204(gp)
    4fbc:	978500cc 	lhu	a1,204(gp)
    4fc0:	8fbf0010 	lw	ra,16(sp)
    4fc4:	a784002c 	sh	a0,44(gp)
    4fc8:	a7800034 	sh	zero,52(gp)
    4fcc:	a78000e6 	sh	zero,230(gp)
    4fd0:	3c010800 	lui	at,0x800
    4fd4:	ac250080 	sw	a1,128(at)
    4fd8:	03e00008 	jr	ra
    4fdc:	27bd0018 	addiu	sp,sp,24
    4fe0:	a38000ce 	sb	zero,206(gp)
    4fe4:	8ccb003c 	lw	t3,60(a2)
    4fe8:	316a0001 	andi	t2,t3,0x1
    4fec:	1140000e 	beqz	t2,0x5028
    4ff0:	00000000 	nop
    4ff4:	30a7ffff 	andi	a3,a1,0xffff
    4ff8:	10e0ffde 	beqz	a3,0x4f74
    4ffc:	24020050 	li	v0,80
    5000:	8ccc00c8 	lw	t4,200(a2)
    5004:	31860001 	andi	a2,t4,0x1
    5008:	14c0ffdc 	bnez	a2,0x4f7c
    500c:	939f00ce 	lbu	ra,206(gp)
    5010:	0a000074 	j	0x80001d0
    5014:	24020051 	li	v0,81
    5018:	8c8f0004 	lw	t7,4(a0)
    501c:	3c0e6000 	lui	t6,0x6000
    5020:	0a000057 	j	0x800015c
    5024:	01ee3021 	addu	a2,t7,t6
    5028:	8cef0808 	lw	t7,2056(a3)
    502c:	240d5708 	li	t5,22280
    5030:	000f7402 	srl	t6,t7,0x10
    5034:	11cd0004 	beq	t6,t5,0x5048
    5038:	30b8ffff 	andi	t8,a1,0xffff
    503c:	24050066 	li	a1,102
    5040:	0a000075 	j	0x80001d4
    5044:	24040400 	li	a0,1024
    5048:	1700ffcc 	bnez	t8,0x4f7c
    504c:	939f00ce 	lbu	ra,206(gp)
    5050:	0a000074 	j	0x80001d0
    5054:	24020050 	li	v0,80
    5058:	8f860010 	lw	a2,16(gp)
    505c:	3089ffff 	andi	t1,a0,0xffff
    5060:	00093940 	sll	a3,t1,0x5
    5064:	8cc30010 	lw	v1,16(a2)
    5068:	3c080050 	lui	t0,0x50
    506c:	00e82025 	or	a0,a3,t0
    5070:	af430038 	sw	v1,56(k0)
    5074:	8cc50014 	lw	a1,20(a2)
    5078:	27420400 	addiu	v0,k0,1024
    507c:	af82001c 	sw	v0,28(gp)
    5080:	af45003c 	sw	a1,60(k0)
    5084:	af440030 	sw	a0,48(k0)
	...
    50a8:	8f4b0000 	lw	t3,0(k0)
    50ac:	316a0020 	andi	t2,t3,0x20
    50b0:	1140fffd 	beqz	t2,0x50a8
    50b4:	00000000 	nop
    50b8:	03e00008 	jr	ra
    50bc:	00000000 	nop
    50c0:	8f840010 	lw	a0,16(gp)
    50c4:	948a001a 	lhu	t2,26(a0)
    50c8:	8c870024 	lw	a3,36(a0)
    50cc:	3149ffff 	andi	t1,t2,0xffff
    50d0:	000940c0 	sll	t0,t1,0x3
    50d4:	00e83021 	addu	a2,a3,t0
    50d8:	af46003c 	sw	a2,60(k0)
    50dc:	8c850024 	lw	a1,36(a0)
    50e0:	8f43003c 	lw	v1,60(k0)
    50e4:	00a31023 	subu	v0,a1,v1
    50e8:	18400029 	blez	v0,0x5190
    50ec:	00000000 	nop
    50f0:	8c8b0020 	lw	t3,32(a0)
    50f4:	25620001 	addiu	v0,t3,1
    50f8:	3c0d0050 	lui	t5,0x50
    50fc:	35ac0008 	ori	t4,t5,0x8
    5100:	af420038 	sw	v0,56(k0)
    5104:	af4c0030 	sw	t4,48(k0)
	...
    5128:	8f4f0000 	lw	t7,0(k0)
    512c:	31ee0020 	andi	t6,t7,0x20
    5130:	11c0fffd 	beqz	t6,0x5128
    5134:	00000000 	nop
    5138:	8f4a0400 	lw	t2,1024(k0)
    513c:	3c080020 	lui	t0,0x20
    5140:	ac8a0010 	sw	t2,16(a0)
    5144:	8f490404 	lw	t1,1028(k0)
    5148:	ac890014 	sw	t1,20(a0)
    514c:	af480030 	sw	t0,48(k0)
    5150:	00000000 	nop
    5154:	94860018 	lhu	a2,24(a0)
    5158:	9487001c 	lhu	a3,28(a0)
    515c:	00c71821 	addu	v1,a2,a3
    5160:	a4830018 	sh	v1,24(a0)
    5164:	9485001a 	lhu	a1,26(a0)
    5168:	24a20001 	addiu	v0,a1,1
    516c:	a482001a 	sh	v0,26(a0)
    5170:	9498001a 	lhu	t8,26(a0)
    5174:	9499001e 	lhu	t9,30(a0)
    5178:	13380003 	beq	t9,t8,0x5188
    517c:	00000000 	nop
    5180:	03e00008 	jr	ra
    5184:	00000000 	nop
    5188:	03e00008 	jr	ra
    518c:	a480001a 	sh	zero,26(a0)
    5190:	8c820020 	lw	v0,32(a0)
    5194:	0a0000d6 	j	0x8000358
    5198:	3c0d0050 	lui	t5,0x50
    519c:	0a0000c7 	j	0x800031c
    51a0:	00000000 	nop
    51a4:	3c030800 	lui	v1,0x800
    51a8:	8c630020 	lw	v1,32(v1)
    51ac:	8f820018 	lw	v0,24(gp)
    51b0:	27bdffe8 	addiu	sp,sp,-24
    51b4:	10620008 	beq	v1,v0,0x51d8
    51b8:	afbf0010 	sw	ra,16(sp)
    51bc:	0e0000fe 	jal	0x80003f8
    51c0:	af830018 	sw	v1,24(gp)
    51c4:	3c030800 	lui	v1,0x800
    51c8:	8c630020 	lw	v1,32(v1)
    51cc:	24040001 	li	a0,1
    51d0:	10640004 	beq	v1,a0,0x51e4
    51d4:	8f890010 	lw	t1,16(gp)
    51d8:	8fbf0010 	lw	ra,16(sp)
    51dc:	03e00008 	jr	ra
    51e0:	27bd0018 	addiu	sp,sp,24
    51e4:	8fbf0010 	lw	ra,16(sp)
    51e8:	3c076012 	lui	a3,0x6012
    51ec:	a520000a 	sh	zero,10(t1)
    51f0:	9528000a 	lhu	t0,10(t1)
    51f4:	34e50010 	ori	a1,a3,0x10
    51f8:	27bd0018 	addiu	sp,sp,24
    51fc:	3106ffff 	andi	a2,t0,0xffff
    5200:	03e00008 	jr	ra
    5204:	aca60090 	sw	a2,144(a1)
    5208:	3c020800 	lui	v0,0x800
    520c:	8c420020 	lw	v0,32(v0)
    5210:	27bdffc8 	addiu	sp,sp,-56
    5214:	afbf0034 	sw	ra,52(sp)
    5218:	afbe0030 	sw	s8,48(sp)
    521c:	afb7002c 	sw	s7,44(sp)
    5220:	afb60028 	sw	s6,40(sp)
    5224:	afb50024 	sw	s5,36(sp)
    5228:	afb40020 	sw	s4,32(sp)
    522c:	afb3001c 	sw	s3,28(sp)
    5230:	afb20018 	sw	s2,24(sp)
    5234:	afb10014 	sw	s1,20(sp)
    5238:	10400050 	beqz	v0,0x537c
    523c:	afb00010 	sw	s0,16(sp)
    5240:	8f840010 	lw	a0,16(gp)
    5244:	94860006 	lhu	a2,6(a0)
    5248:	9483000a 	lhu	v1,10(a0)
    524c:	00c32823 	subu	a1,a2,v1
    5250:	30b6ffff 	andi	s6,a1,0xffff
    5254:	12c0004a 	beqz	s6,0x5380
    5258:	8fbf0034 	lw	ra,52(sp)
    525c:	94890018 	lhu	t1,24(a0)
    5260:	948a000a 	lhu	t2,10(a0)
    5264:	012a4023 	subu	t0,t1,t2
    5268:	3102ffff 	andi	v0,t0,0xffff
    526c:	02c2382b 	sltu	a3,s6,v0
    5270:	14e00002 	bnez	a3,0x527c
    5274:	02c02021 	move	a0,s6
    5278:	00402021 	move	a0,v0
    527c:	2c8c0005 	sltiu	t4,a0,5
    5280:	15800002 	bnez	t4,0x528c
    5284:	0080a021 	move	s4,a0
    5288:	24140004 	li	s4,4
    528c:	0e0000ad 	jal	0x80002b4
    5290:	02802021 	move	a0,s4
    5294:	8f870010 	lw	a3,16(gp)
    5298:	02809821 	move	s3,s4
    529c:	af800014 	sw	zero,20(gp)
    52a0:	94ed000a 	lhu	t5,10(a3)
    52a4:	02808821 	move	s1,s4
    52a8:	1280004e 	beqz	s4,0x53e4
    52ac:	31b2ffff 	andi	s2,t5,0xffff
    52b0:	3c177000 	lui	s7,0x7000
    52b4:	3c154000 	lui	s5,0x4000
    52b8:	3c1e6000 	lui	s8,0x6000
    52bc:	8f8f001c 	lw	t7,28(gp)
    52c0:	8dee0000 	lw	t6,0(t7)
    52c4:	01d71824 	and	v1,t6,s7
    52c8:	50750050 	beql	v1,s5,0x540c
    52cc:	02202021 	move	a0,s1
    52d0:	02a3802b 	sltu	s0,s5,v1
    52d4:	16000035 	bnez	s0,0x53ac
    52d8:	3c182000 	lui	t8,0x2000
    52dc:	50780047 	beql	v1,t8,0x53fc
    52e0:	02202021 	move	a0,s1
    52e4:	24100001 	li	s0,1
    52e8:	8f830014 	lw	v1,20(gp)
    52ec:	14600039 	bnez	v1,0x53d4
    52f0:	02915823 	subu	t3,s4,s1
    52f4:	0230f823 	subu	ra,s1,s0
    52f8:	0250c821 	addu	t9,s2,s0
    52fc:	33f1ffff 	andi	s1,ra,0xffff
    5300:	1620ffee 	bnez	s1,0x52bc
    5304:	3332ffff 	andi	s2,t9,0xffff
    5308:	8f870010 	lw	a3,16(gp)
    530c:	3c110020 	lui	s1,0x20
    5310:	af510030 	sw	s1,48(k0)
    5314:	00000000 	nop
    5318:	94e6000a 	lhu	a2,10(a3)
    531c:	3c1e6012 	lui	s8,0x6012
    5320:	37d50010 	ori	s5,s8,0x10
    5324:	02662821 	addu	a1,s3,a2
    5328:	a4e5000a 	sh	a1,10(a3)
    532c:	94e2000a 	lhu	v0,10(a3)
    5330:	94f2000a 	lhu	s2,10(a3)
    5334:	94f40018 	lhu	s4,24(a3)
    5338:	3057ffff 	andi	s7,v0,0xffff
    533c:	1292003b 	beq	s4,s2,0x542c
    5340:	aeb70090 	sw	s7,144(s5)
    5344:	8ced0014 	lw	t5,20(a3)
    5348:	8ce40010 	lw	a0,16(a3)
    534c:	00137140 	sll	t6,s3,0x5
    5350:	01ae4021 	addu	t0,t5,t6
    5354:	000e5fc3 	sra	t3,t6,0x1f
    5358:	010e502b 	sltu	t2,t0,t6
    535c:	008b4821 	addu	t1,a0,t3
    5360:	012a1821 	addu	v1,t1,t2
    5364:	ace80014 	sw	t0,20(a3)
    5368:	ace30010 	sw	v1,16(a3)
    536c:	02d33823 	subu	a3,s6,s3
    5370:	30f6ffff 	andi	s6,a3,0xffff
    5374:	16c0ffb9 	bnez	s6,0x525c
    5378:	8f840010 	lw	a0,16(gp)
    537c:	8fbf0034 	lw	ra,52(sp)
    5380:	8fbe0030 	lw	s8,48(sp)
    5384:	8fb7002c 	lw	s7,44(sp)
    5388:	8fb60028 	lw	s6,40(sp)
    538c:	8fb50024 	lw	s5,36(sp)
    5390:	8fb40020 	lw	s4,32(sp)
    5394:	8fb3001c 	lw	s3,28(sp)
    5398:	8fb20018 	lw	s2,24(sp)
    539c:	8fb10014 	lw	s1,20(sp)
    53a0:	8fb00010 	lw	s0,16(sp)
    53a4:	03e00008 	jr	ra
    53a8:	27bd0038 	addiu	sp,sp,56
    53ac:	107e001b 	beq	v1,s8,0x541c
    53b0:	00000000 	nop
    53b4:	1477ffcc 	bne	v1,s7,0x52e8
    53b8:	24100001 	li	s0,1
    53bc:	0e001627 	jal	0x800589c
    53c0:	00000000 	nop
    53c4:	8f830014 	lw	v1,20(gp)
    53c8:	1060ffcb 	beqz	v1,0x52f8
    53cc:	0230f823 	subu	ra,s1,s0
    53d0:	02915823 	subu	t3,s4,s1
    53d4:	8f870010 	lw	a3,16(gp)
    53d8:	01702021 	addu	a0,t3,s0
    53dc:	0a000191 	j	0x8000644
    53e0:	3093ffff 	andi	s3,a0,0xffff
    53e4:	8f830014 	lw	v1,20(gp)
    53e8:	1460ffcb 	bnez	v1,0x5318
    53ec:	3c110020 	lui	s1,0x20
    53f0:	af510030 	sw	s1,48(k0)
    53f4:	0a00015d 	j	0x8000574
    53f8:	00000000 	nop
    53fc:	0e00079e 	jal	0x8001e78
    5400:	02402821 	move	a1,s2
    5404:	0a000151 	j	0x8000544
    5408:	00408021 	move	s0,v0
    540c:	0e00034b 	jal	0x8000d2c
    5410:	02402821 	move	a1,s2
    5414:	0a000151 	j	0x8000544
    5418:	00408021 	move	s0,v0
    541c:	0e0014ef 	jal	0x80053bc
    5420:	02202021 	move	a0,s1
    5424:	0a000151 	j	0x8000544
    5428:	00408021 	move	s0,v0
    542c:	0e0000c7 	jal	0x800031c
    5430:	00000000 	nop
    5434:	0a000173 	j	0x80005cc
    5438:	02d33823 	subu	a3,s6,s3
    543c:	27bdffe8 	addiu	sp,sp,-24
    5440:	afb00010 	sw	s0,16(sp)
    5444:	afbf0014 	sw	ra,20(sp)
    5448:	0e000039 	jal	0x80000e4
    544c:	00000000 	nop
    5450:	3c028000 	lui	v0,0x8000
    5454:	34500070 	ori	s0,v0,0x70
    5458:	0a0001b4 	j	0x80006d0
    545c:	8e060000 	lw	a2,0(s0)
    5460:	8f4f0000 	lw	t7,0(k0)
    5464:	39ee0001 	xori	t6,t7,0x1
    5468:	31c20001 	andi	v0,t6,0x1
    546c:	10400024 	beqz	v0,0x5500
    5470:	8f8600a8 	lw	a2,168(gp)
    5474:	8e070000 	lw	a3,0(s0)
    5478:	3c0c0800 	lui	t4,0x800
    547c:	8d8c003c 	lw	t4,60(t4)
    5480:	3c090800 	lui	t1,0x800
    5484:	8d290038 	lw	t1,56(t1)
    5488:	00e66823 	subu	t5,a3,a2
    548c:	018d2821 	addu	a1,t4,t5
    5490:	00005021 	move	t2,zero
    5494:	00ad302b 	sltu	a2,a1,t5
    5498:	012a4021 	addu	t0,t1,t2
    549c:	01062021 	addu	a0,t0,a2
    54a0:	3c010800 	lui	at,0x800
    54a4:	ac25003c 	sw	a1,60(at)
    54a8:	af8700a8 	sw	a3,168(gp)
    54ac:	3c010800 	lui	at,0x800
    54b0:	ac240038 	sw	a0,56(at)
    54b4:	0e000100 	jal	0x8000400
    54b8:	00000000 	nop
    54bc:	3c030800 	lui	v1,0x800
    54c0:	8c630070 	lw	v1,112(v1)
    54c4:	1060ffe6 	beqz	v1,0x5460
    54c8:	00602021 	move	a0,v1
    54cc:	3c050800 	lui	a1,0x800
    54d0:	8ca50068 	lw	a1,104(a1)
    54d4:	3c060800 	lui	a2,0x800
    54d8:	8cc6006c 	lw	a2,108(a2)
    54dc:	0e0015b6 	jal	0x80056d8
    54e0:	00000000 	nop
    54e4:	3c010800 	lui	at,0x800
    54e8:	ac200070 	sw	zero,112(at)
    54ec:	8f4f0000 	lw	t7,0(k0)
    54f0:	39ee0001 	xori	t6,t7,0x1
    54f4:	31c20001 	andi	v0,t6,0x1
    54f8:	1440ffde 	bnez	v0,0x5474
    54fc:	8f8600a8 	lw	a2,168(gp)
    5500:	8e0a0000 	lw	t2,0(s0)
    5504:	8f8b00a8 	lw	t3,168(gp)
    5508:	3c050800 	lui	a1,0x800
    550c:	8ca5003c 	lw	a1,60(a1)
    5510:	3c040800 	lui	a0,0x800
    5514:	8c840038 	lw	a0,56(a0)
    5518:	014b4823 	subu	t1,t2,t3
    551c:	00a93821 	addu	a3,a1,t1
    5520:	00821821 	addu	v1,a0,v0
    5524:	00e9402b 	sltu	t0,a3,t1
    5528:	00681021 	addu	v0,v1,t0
    552c:	3c010800 	lui	at,0x800
    5530:	ac27003c 	sw	a3,60(at)
    5534:	3c010800 	lui	at,0x800
    5538:	ac220038 	sw	v0,56(at)
    553c:	8f5f0100 	lw	ra,256(k0)
    5540:	2419ff00 	li	t9,-256
    5544:	24180c00 	li	t8,3072
    5548:	03f92024 	and	a0,ra,t9
    554c:	10980012 	beq	a0,t8,0x5598
    5550:	af840000 	sw	a0,0(gp)
    5554:	af440020 	sw	a0,32(k0)
    5558:	936d0000 	lbu	t5,0(k1)
    555c:	240c0020 	li	t4,32
    5560:	31a600ff 	andi	a2,t5,0xff
    5564:	10cc0012 	beq	a2,t4,0x55b0
    5568:	240e0050 	li	t6,80
    556c:	10ce0004 	beq	a2,t6,0x5580
    5570:	3c194000 	lui	t9,0x4000
    5574:	af590138 	sw	t9,312(k0)
    5578:	0a0001ad 	j	0x80006b4
    557c:	00000000 	nop
    5580:	0e001252 	jal	0x8004948
    5584:	00000000 	nop
    5588:	3c194000 	lui	t9,0x4000
    558c:	af590138 	sw	t9,312(k0)
    5590:	0a0001ad 	j	0x80006b4
    5594:	00000000 	nop
    5598:	0e000119 	jal	0x8000464
    559c:	00000000 	nop
    55a0:	3c194000 	lui	t9,0x4000
    55a4:	af590138 	sw	t9,312(k0)
    55a8:	0a0001ad 	j	0x80006b4
    55ac:	00000000 	nop
    55b0:	8f580100 	lw	t8,256(k0)
    55b4:	00802821 	move	a1,a0
    55b8:	330f00ff 	andi	t7,t8,0xff
    55bc:	01e02021 	move	a0,t7
    55c0:	0e0002f8 	jal	0x8000be0
    55c4:	af8f0004 	sw	t7,4(gp)
    55c8:	3c194000 	lui	t9,0x4000
    55cc:	af590138 	sw	t9,312(k0)
    55d0:	0a0001ad 	j	0x80006b4
    55d4:	00000000 	nop
    55d8:	00a4102b 	sltu	v0,a1,a0
    55dc:	24030001 	li	v1,1
    55e0:	10400009 	beqz	v0,0x5608
    55e4:	00003021 	move	a2,zero
    55e8:	00052840 	sll	a1,a1,0x1
    55ec:	00a4102b 	sltu	v0,a1,a0
    55f0:	04a00003 	bltz	a1,0x5600
    55f4:	00031840 	sll	v1,v1,0x1
    55f8:	5440fffc 	bnezl	v0,0x55ec
    55fc:	00052840 	sll	a1,a1,0x1
    5600:	5060000a 	beqzl	v1,0x562c
    5604:	0004182b 	sltu	v1,zero,a0
    5608:	0085382b 	sltu	a3,a0,a1
    560c:	54e00004 	bnezl	a3,0x5620
    5610:	00031842 	srl	v1,v1,0x1
    5614:	00c33025 	or	a2,a2,v1
    5618:	00852023 	subu	a0,a0,a1
    561c:	00031842 	srl	v1,v1,0x1
    5620:	1460fff9 	bnez	v1,0x5608
    5624:	00052842 	srl	a1,a1,0x1
    5628:	0004182b 	sltu	v1,zero,a0
    562c:	03e00008 	jr	ra
    5630:	00c31021 	addu	v0,a2,v1
    5634:	3084ffff 	andi	a0,a0,0xffff
    5638:	30a5ffff 	andi	a1,a1,0xffff
    563c:	8f4201b8 	lw	v0,440(k0)
    5640:	0440fffe 	bltz	v0,0x563c
    5644:	3c074080 	lui	a3,0x4080
    5648:	00873025 	or	a2,a0,a3
    564c:	3c031000 	lui	v1,0x1000
    5650:	af400180 	sw	zero,384(k0)
    5654:	af450184 	sw	a1,388(k0)
    5658:	af460188 	sw	a2,392(k0)
    565c:	03e00008 	jr	ra
    5660:	af4301b8 	sw	v1,440(k0)
    5664:	3084ffff 	andi	a0,a0,0xffff
    5668:	8f4201b8 	lw	v0,440(k0)
    566c:	0440fffe 	bltz	v0,0x5668
    5670:	3c074038 	lui	a3,0x4038
    5674:	8ca60000 	lw	a2,0(a1)
    5678:	00872825 	or	a1,a0,a3
    567c:	3c031000 	lui	v1,0x1000
    5680:	af460180 	sw	a2,384(k0)
    5684:	af450188 	sw	a1,392(k0)
    5688:	03e00008 	jr	ra
    568c:	af4301b8 	sw	v1,440(k0)
    5690:	8f830038 	lw	v1,56(gp)
    5694:	8f860030 	lw	a2,48(gp)
    5698:	1066000b 	beq	v1,a2,0x56c8
    569c:	00804021 	move	t0,a0
    56a0:	3c070800 	lui	a3,0x800
    56a4:	24e75c38 	addiu	a3,a3,23608
    56a8:	000328c0 	sll	a1,v1,0x3
    56ac:	00a71021 	addu	v0,a1,a3
    56b0:	8c440000 	lw	a0,0(v0)
    56b4:	24630001 	addiu	v1,v1,1
    56b8:	10880005 	beq	a0,t0,0x56d0
    56bc:	3063000f 	andi	v1,v1,0xf
    56c0:	5466fffa 	bnel	v1,a2,0x56ac
    56c4:	000328c0 	sll	a1,v1,0x3
    56c8:	03e00008 	jr	ra
    56cc:	00001021 	move	v0,zero
    56d0:	3c070800 	lui	a3,0x800
    56d4:	24e75c3c 	addiu	a3,a3,23612
    56d8:	00a73021 	addu	a2,a1,a3
    56dc:	03e00008 	jr	ra
    56e0:	8cc20000 	lw	v0,0(a2)
    56e4:	3c039000 	lui	v1,0x9000
    56e8:	34620001 	ori	v0,v1,0x1
    56ec:	00822025 	or	a0,a0,v0
    56f0:	af440020 	sw	a0,32(k0)
    56f4:	8f450020 	lw	a1,32(k0)
    56f8:	04a0fffe 	bltz	a1,0x56f4
    56fc:	00000000 	nop
    5700:	03e00008 	jr	ra
    5704:	00000000 	nop
    5708:	3c038000 	lui	v1,0x8000
    570c:	34620001 	ori	v0,v1,0x1
    5710:	00822025 	or	a0,a0,v0
    5714:	03e00008 	jr	ra
    5718:	af440020 	sw	a0,32(k0)
    571c:	27bdffe0 	addiu	sp,sp,-32
    5720:	afb10014 	sw	s1,20(sp)
    5724:	3091ffff 	andi	s1,a0,0xffff
    5728:	afb00010 	sw	s0,16(sp)
    572c:	afbf0018 	sw	ra,24(sp)
    5730:	12200015 	beqz	s1,0x5788
    5734:	00a08021 	move	s0,a1
    5738:	8ca50000 	lw	a1,0(a1)
    573c:	10a00013 	beqz	a1,0x578c
    5740:	24040002 	li	a0,2
    5744:	0e000c7c 	jal	0x80031f0
    5748:	24060140 	li	a2,320
    574c:	ae000000 	sw	zero,0(s0)
    5750:	8f4201b8 	lw	v0,440(k0)
    5754:	0440000d 	bltz	v0,0x578c
    5758:	00002821 	move	a1,zero
    575c:	3c064000 	lui	a2,0x4000
    5760:	02262025 	or	a0,s1,a2
    5764:	8fbf0018 	lw	ra,24(sp)
    5768:	8fb10014 	lw	s1,20(sp)
    576c:	8fb00010 	lw	s0,16(sp)
    5770:	3c031000 	lui	v1,0x1000
    5774:	27bd0020 	addiu	sp,sp,32
    5778:	af450180 	sw	a1,384(k0)
    577c:	af440188 	sw	a0,392(k0)
    5780:	03e00008 	jr	ra
    5784:	af4301b8 	sw	v1,440(k0)
    5788:	8ca50000 	lw	a1,0(a1)
    578c:	8f4201b8 	lw	v0,440(k0)
    5790:	0440fffe 	bltz	v0,0x578c
    5794:	3c064000 	lui	a2,0x4000
    5798:	02262025 	or	a0,s1,a2
    579c:	8fbf0018 	lw	ra,24(sp)
    57a0:	8fb10014 	lw	s1,20(sp)
    57a4:	8fb00010 	lw	s0,16(sp)
    57a8:	3c031000 	lui	v1,0x1000
    57ac:	27bd0020 	addiu	sp,sp,32
    57b0:	af450180 	sw	a1,384(k0)
    57b4:	af440188 	sw	a0,392(k0)
    57b8:	03e00008 	jr	ra
    57bc:	af4301b8 	sw	v1,440(k0)
    57c0:	3086ffff 	andi	a2,a0,0xffff
    57c4:	8f4201b8 	lw	v0,440(k0)
    57c8:	0440fffe 	bltz	v0,0x57c4
    57cc:	3c094006 	lui	t1,0x4006
    57d0:	8ca80000 	lw	t0,0(a1)
    57d4:	00c93825 	or	a3,a2,t1
    57d8:	af480180 	sw	t0,384(k0)
    57dc:	8ca40004 	lw	a0,4(a1)
    57e0:	3c031000 	lui	v1,0x1000
    57e4:	af440184 	sw	a0,388(k0)
    57e8:	af470188 	sw	a3,392(k0)
    57ec:	03e00008 	jr	ra
    57f0:	af4301b8 	sw	v1,440(k0)
    57f4:	27bdffe0 	addiu	sp,sp,-32
    57f8:	afb00010 	sw	s0,16(sp)
    57fc:	afbf0018 	sw	ra,24(sp)
    5800:	afb10014 	sw	s1,20(sp)
    5804:	9363003e 	lbu	v1,62(k1)
    5808:	00808021 	move	s0,a0
    580c:	00802821 	move	a1,a0
    5810:	30620040 	andi	v0,v1,0x40
    5814:	00002021 	move	a0,zero
    5818:	1040000f 	beqz	v0,0x5858
    581c:	8e110000 	lw	s1,0(s0)
    5820:	0e000871 	jal	0x80021c4
    5824:	02202021 	move	a0,s1
    5828:	93670000 	lbu	a3,0(k1)
    582c:	24040050 	li	a0,80
    5830:	30e500ff 	andi	a1,a3,0xff
    5834:	50a40012 	beql	a1,a0,0x5880
    5838:	8e0f0000 	lw	t7,0(s0)
    583c:	02202021 	move	a0,s1
    5840:	8fbf0018 	lw	ra,24(sp)
    5844:	8fb10014 	lw	s1,20(sp)
    5848:	8fb00010 	lw	s0,16(sp)
    584c:	a762013c 	sh	v0,316(k1)
    5850:	0a000931 	j	0x80024c4
    5854:	27bd0020 	addiu	sp,sp,32
    5858:	0e000287 	jal	0x8000a1c
    585c:	00000000 	nop
    5860:	0e000871 	jal	0x80021c4
    5864:	02202021 	move	a0,s1
    5868:	93670000 	lbu	a3,0(k1)
    586c:	24040050 	li	a0,80
    5870:	30e500ff 	andi	a1,a3,0xff
    5874:	14a4fff2 	bne	a1,a0,0x5840
    5878:	02202021 	move	a0,s1
    587c:	8e0f0000 	lw	t7,0(s0)
    5880:	3c100800 	lui	s0,0x800
    5884:	8e100050 	lw	s0,80(s0)
    5888:	3c0d000c 	lui	t5,0xc
    588c:	240bff80 	li	t3,-128
    5890:	01f05021 	addu	t2,t7,s0
    5894:	314e007f 	andi	t6,t2,0x7f
    5898:	01da6021 	addu	t4,t6,k0
    589c:	018d4021 	addu	t0,t4,t5
    58a0:	014b4824 	and	t1,t2,t3
    58a4:	af490028 	sw	t1,40(k0)
    58a8:	02202021 	move	a0,s1
    58ac:	8fbf0018 	lw	ra,24(sp)
    58b0:	8fb10014 	lw	s1,20(sp)
    58b4:	8fb00010 	lw	s0,16(sp)
    58b8:	a50200d6 	sh	v0,214(t0)
    58bc:	27bd0020 	addiu	sp,sp,32
    58c0:	0a000931 	j	0x80024c4
    58c4:	af8800d0 	sw	t0,208(gp)
    58c8:	27bdffe0 	addiu	sp,sp,-32
    58cc:	afbf0018 	sw	ra,24(sp)
    58d0:	afb10014 	sw	s1,20(sp)
    58d4:	afb00010 	sw	s0,16(sp)
    58d8:	93660001 	lbu	a2,1(k1)
    58dc:	00808021 	move	s0,a0
    58e0:	0e000250 	jal	0x8000940
    58e4:	30d10004 	andi	s1,a2,0x4
    58e8:	93640005 	lbu	a0,5(k1)
    58ec:	001029c2 	srl	a1,s0,0x7
    58f0:	a7650000 	sh	a1,0(k1)
    58f4:	34830040 	ori	v1,a0,0x40
    58f8:	a3630005 	sb	v1,5(k1)
    58fc:	0e000259 	jal	0x8000964
    5900:	02002021 	move	a0,s0
    5904:	0e000933 	jal	0x80024cc
    5908:	02002021 	move	a0,s0
    590c:	24020001 	li	v0,1
    5910:	af62000c 	sw	v0,12(k1)
    5914:	02002821 	move	a1,s0
    5918:	a7620010 	sh	v0,16(k1)
    591c:	24040002 	li	a0,2
    5920:	a7620012 	sh	v0,18(k1)
    5924:	24060140 	li	a2,320
    5928:	a7620014 	sh	v0,20(k1)
    592c:	0e000c7c 	jal	0x80031f0
    5930:	a7620016 	sh	v0,22(k1)
    5934:	1620000f 	bnez	s1,0x5974
    5938:	8fbf0018 	lw	ra,24(sp)
    593c:	978c0034 	lhu	t4,52(gp)
    5940:	3c0b0800 	lui	t3,0x800
    5944:	8d6b0078 	lw	t3,120(t3)
    5948:	2588ffff 	addiu	t0,t4,-1
    594c:	3109ffff 	andi	t1,t0,0xffff
    5950:	256a0001 	addiu	t2,t3,1
    5954:	012a382b 	sltu	a3,t1,t2
    5958:	10e00006 	beqz	a3,0x5974
    595c:	a7880034 	sh	t0,52(gp)
    5960:	3c0f6006 	lui	t7,0x6006
    5964:	240e0016 	li	t6,22
    5968:	35ed0010 	ori	t5,t7,0x10
    596c:	adae0050 	sw	t6,80(t5)
    5970:	8fbf0018 	lw	ra,24(sp)
    5974:	8fb10014 	lw	s1,20(sp)
    5978:	8fb00010 	lw	s0,16(sp)
    597c:	03e00008 	jr	ra
    5980:	27bd0020 	addiu	sp,sp,32
    5984:	27bdffe0 	addiu	sp,sp,-32
    5988:	afb10014 	sw	s1,20(sp)
    598c:	afbf0018 	sw	ra,24(sp)
    5990:	afb00010 	sw	s0,16(sp)
    5994:	00a08821 	move	s1,a1
    5998:	1080000a 	beqz	a0,0x59c4
    599c:	3c036000 	lui	v1,0x6000
    59a0:	24020080 	li	v0,128
    59a4:	10820012 	beq	a0,v0,0x59f0
    59a8:	00000000 	nop
    59ac:	0000000d 	break
    59b0:	8fbf0018 	lw	ra,24(sp)
    59b4:	8fb10014 	lw	s1,20(sp)
    59b8:	8fb00010 	lw	s0,16(sp)
    59bc:	03e00008 	jr	ra
    59c0:	27bd0020 	addiu	sp,sp,32
    59c4:	8c682bf8 	lw	t0,11256(v1)
    59c8:	0500fffe 	bltz	t0,0x59c4
    59cc:	00000000 	nop
    59d0:	ac712bc0 	sw	s1,11200(v1)
    59d4:	8fbf0018 	lw	ra,24(sp)
    59d8:	8fb10014 	lw	s1,20(sp)
    59dc:	8fb00010 	lw	s0,16(sp)
    59e0:	3c091000 	lui	t1,0x1000
    59e4:	27bd0020 	addiu	sp,sp,32
    59e8:	03e00008 	jr	ra
    59ec:	ac692bf8 	sw	t1,11256(v1)
    59f0:	0e000250 	jal	0x8000940
    59f4:	00a02021 	move	a0,a1
    59f8:	93650005 	lbu	a1,5(k1)
    59fc:	02202021 	move	a0,s1
    5a00:	0e000259 	jal	0x8000964
    5a04:	30b000ff 	andi	s0,a1,0xff
    5a08:	2403003e 	li	v1,62
    5a0c:	1603ffe7 	bne	s0,v1,0x59ac
    5a10:	00000000 	nop
    5a14:	8f440178 	lw	a0,376(k0)
    5a18:	0480fffe 	bltz	a0,0x5a14
    5a1c:	24070007 	li	a3,7
    5a20:	3c061000 	lui	a2,0x1000
    5a24:	af510140 	sw	s1,320(k0)
    5a28:	02202021 	move	a0,s1
    5a2c:	a3470144 	sb	a3,324(k0)
    5a30:	8fbf0018 	lw	ra,24(sp)
    5a34:	8fb10014 	lw	s1,20(sp)
    5a38:	8fb00010 	lw	s0,16(sp)
    5a3c:	af460178 	sw	a2,376(k0)
    5a40:	0a0002c9 	j	0x8000b24
    5a44:	27bd0020 	addiu	sp,sp,32
    5a48:	27bdffe8 	addiu	sp,sp,-24
    5a4c:	afbf0014 	sw	ra,20(sp)
    5a50:	afb00010 	sw	s0,16(sp)
    5a54:	8f500020 	lw	s0,32(k0)
    5a58:	00000000 	nop
    5a5c:	0e000933 	jal	0x80024cc
    5a60:	af440020 	sw	a0,32(k0)
    5a64:	af500020 	sw	s0,32(k0)
    5a68:	8fbf0014 	lw	ra,20(sp)
    5a6c:	8fb00010 	lw	s0,16(sp)
    5a70:	03e00008 	jr	ra
    5a74:	27bd0018 	addiu	sp,sp,24
    5a78:	3084ffff 	andi	a0,a0,0xffff
    5a7c:	8f4201b8 	lw	v0,440(k0)
    5a80:	0440fffe 	bltz	v0,0x5a7c
    5a84:	3c074035 	lui	a3,0x4035
    5a88:	00873025 	or	a2,a0,a3
    5a8c:	3c031000 	lui	v1,0x1000
    5a90:	af450180 	sw	a1,384(k0)
    5a94:	af400184 	sw	zero,388(k0)
    5a98:	af460188 	sw	a2,392(k0)
    5a9c:	03e00008 	jr	ra
    5aa0:	af4301b8 	sw	v1,440(k0)
    5aa4:	3084ffff 	andi	a0,a0,0xffff
    5aa8:	8f4201b8 	lw	v0,440(k0)
    5aac:	0440fffe 	bltz	v0,0x5aa8
    5ab0:	3c074036 	lui	a3,0x4036
    5ab4:	00873025 	or	a2,a0,a3
    5ab8:	3c031000 	lui	v1,0x1000
    5abc:	af450180 	sw	a1,384(k0)
    5ac0:	af400184 	sw	zero,388(k0)
    5ac4:	af460188 	sw	a2,392(k0)
    5ac8:	03e00008 	jr	ra
    5acc:	af4301b8 	sw	v1,440(k0)
    5ad0:	27bdffd0 	addiu	sp,sp,-48
    5ad4:	afb3001c 	sw	s3,28(sp)
    5ad8:	3093ffff 	andi	s3,a0,0xffff
    5adc:	afb50024 	sw	s5,36(sp)
    5ae0:	afb20018 	sw	s2,24(sp)
    5ae4:	afbf0028 	sw	ra,40(sp)
    5ae8:	afb40020 	sw	s4,32(sp)
    5aec:	afb10014 	sw	s1,20(sp)
    5af0:	afb00010 	sw	s0,16(sp)
    5af4:	30b5ffff 	andi	s5,a1,0xffff
    5af8:	12600027 	beqz	s3,0x5b98
    5afc:	00009021 	move	s2,zero
    5b00:	8f90001c 	lw	s0,28(gp)
    5b04:	8e030000 	lw	v1,0(s0)
    5b08:	3c068000 	lui	a2,0x8000
    5b0c:	24020040 	li	v0,64
    5b10:	00033e02 	srl	a3,v1,0x18
    5b14:	00032c02 	srl	a1,v1,0x10
    5b18:	30e4007f 	andi	a0,a3,0x7f
    5b1c:	00668824 	and	s1,v1,a2
    5b20:	1482001d 	bne	a0,v0,0x5b98
    5b24:	30a500ff 	andi	a1,a1,0xff
    5b28:	8f830028 	lw	v1,40(gp)
    5b2c:	2c68000a 	sltiu	t0,v1,10
    5b30:	51000010 	beqzl	t0,0x5b74
    5b34:	8f910014 	lw	s1,20(gp)
    5b38:	00035880 	sll	t3,v1,0x2
    5b3c:	3c0c0800 	lui	t4,0x800
    5b40:	258c58c4 	addiu	t4,t4,22724
    5b44:	016c5021 	addu	t2,t3,t4
    5b48:	8d490000 	lw	t1,0(t2)
    5b4c:	01200008 	jr	t1
    5b50:	00000000 	nop
    5b54:	02b21821 	addu	v1,s5,s2
    5b58:	3065ffff 	andi	a1,v1,0xffff
    5b5c:	0e000224 	jal	0x8000890
    5b60:	24040084 	li	a0,132
    5b64:	16200002 	bnez	s1,0x5b70
    5b68:	8f90001c 	lw	s0,28(gp)
    5b6c:	af800028 	sw	zero,40(gp)
    5b70:	8f910014 	lw	s1,20(gp)
    5b74:	260c0020 	addiu	t4,s0,32
    5b78:	264b0001 	addiu	t3,s2,1
    5b7c:	01808021 	move	s0,t4
    5b80:	3172ffff 	andi	s2,t3,0xffff
    5b84:	16200004 	bnez	s1,0x5b98
    5b88:	af8c001c 	sw	t4,28(gp)
    5b8c:	0253282b 	sltu	a1,s2,s3
    5b90:	14a0ffdc 	bnez	a1,0x5b04
    5b94:	00000000 	nop
    5b98:	02401021 	move	v0,s2
    5b9c:	8fbf0028 	lw	ra,40(sp)
    5ba0:	8fb50024 	lw	s5,36(sp)
    5ba4:	8fb40020 	lw	s4,32(sp)
    5ba8:	8fb3001c 	lw	s3,28(sp)
    5bac:	8fb20018 	lw	s2,24(sp)
    5bb0:	8fb10014 	lw	s1,20(sp)
    5bb4:	8fb00010 	lw	s0,16(sp)
    5bb8:	03e00008 	jr	ra
    5bbc:	27bd0030 	addiu	sp,sp,48
    5bc0:	240d0034 	li	t5,52
    5bc4:	14ad00f6 	bne	a1,t5,0x5fa0
    5bc8:	00000000 	nop
    5bcc:	920b000e 	lbu	t3,14(s0)
    5bd0:	240a1680 	li	t2,5760
    5bd4:	3c07000c 	lui	a3,0xc
    5bd8:	a36b0021 	sb	t3,33(k1)
    5bdc:	9203000d 	lbu	v1,13(s0)
    5be0:	0347f821 	addu	ra,k0,a3
    5be4:	3c066000 	lui	a2,0x6000
    5be8:	a3630020 	sb	v1,32(k1)
    5bec:	96110012 	lhu	s1,18(s0)
    5bf0:	3c057fff 	lui	a1,0x7fff
    5bf4:	34acffff 	ori	t4,a1,0xffff
    5bf8:	a771003c 	sh	s1,60(k1)
    5bfc:	96020010 	lhu	v0,16(s0)
    5c00:	240b0005 	li	t3,5
    5c04:	3054ffff 	andi	s4,v0,0xffff
    5c08:	af740084 	sw	s4,132(k1)
    5c0c:	8e19001c 	lw	t9,28(s0)
    5c10:	af4a0028 	sw	t2,40(k0)
    5c14:	8ff80000 	lw	t8,0(ra)
    5c18:	8ccf4448 	lw	t7,17480(a2)
    5c1c:	03197026 	xor	t6,t8,t9
    5c20:	01ee3021 	addu	a2,t7,t6
    5c24:	af66004c 	sw	a2,76(k1)
    5c28:	8f69004c 	lw	t1,76(k1)
    5c2c:	24cd0001 	addiu	t5,a2,1
    5c30:	3c197f00 	lui	t9,0x7f00
    5c34:	af690050 	sw	t1,80(k1)
    5c38:	8f640050 	lw	a0,80(k1)
    5c3c:	af640054 	sw	a0,84(k1)
    5c40:	af660070 	sw	a2,112(k1)
    5c44:	af6d0058 	sw	t5,88(k1)
    5c48:	8f680058 	lw	t0,88(k1)
    5c4c:	24040050 	li	a0,80
    5c50:	af68005c 	sw	t0,92(k1)
    5c54:	a3600023 	sb	zero,35(k1)
    5c58:	af6c0064 	sw	t4,100(k1)
    5c5c:	a36b0037 	sb	t3,55(k1)
    5c60:	8e030014 	lw	v1,20(s0)
    5c64:	af630048 	sw	v1,72(k1)
    5c68:	8f710048 	lw	s1,72(k1)
    5c6c:	af710024 	sw	s1,36(k1)
    5c70:	8e020018 	lw	v0,24(s0)
    5c74:	af62006c 	sw	v0,108(k1)
    5c78:	9214000c 	lbu	s4,12(s0)
    5c7c:	a3740036 	sb	s4,54(k1)
    5c80:	936a003e 	lbu	t2,62(k1)
    5c84:	355f0020 	ori	ra,t2,0x20
    5c88:	a37f003e 	sb	ra,62(k1)
    5c8c:	8f780074 	lw	t8,116(k1)
    5c90:	03197824 	and	t7,t8,t9
    5c94:	35ee4000 	ori	t6,t7,0x4000
    5c98:	af6e0074 	sw	t6,116(k1)
    5c9c:	93690000 	lbu	t1,0(k1)
    5ca0:	313000ff 	andi	s0,t1,0xff
    5ca4:	1204022c 	beq	s0,a0,0x6558
    5ca8:	2418ff80 	li	t8,-128
    5cac:	3c040800 	lui	a0,0x800
    5cb0:	24845cb8 	addiu	a0,a0,23736
    5cb4:	0e000294 	jal	0x8000a50
    5cb8:	00000000 	nop
    5cbc:	24060004 	li	a2,4
    5cc0:	24070001 	li	a3,1
    5cc4:	3c040800 	lui	a0,0x800
    5cc8:	8c845cb8 	lw	a0,23736(a0)
    5ccc:	a366007d 	sb	a2,125(k1)
    5cd0:	a3670005 	sb	a3,5(k1)
    5cd4:	8f4a0178 	lw	t2,376(k0)
    5cd8:	0540fffe 	bltz	t2,0x5cd4
    5cdc:	24020002 	li	v0,2
    5ce0:	af440140 	sw	a0,320(k0)
    5ce4:	a3420144 	sb	v0,324(k0)
    5ce8:	8f90001c 	lw	s0,28(gp)
    5cec:	3c141000 	lui	s4,0x1000
    5cf0:	af540178 	sw	s4,376(k0)
    5cf4:	0a000373 	j	0x8000dcc
    5cf8:	af800028 	sw	zero,40(gp)
    5cfc:	2cad0037 	sltiu	t5,a1,55
    5d00:	51a0ff9c 	beqzl	t5,0x5b74
    5d04:	8f910014 	lw	s1,20(gp)
    5d08:	0005a080 	sll	s4,a1,0x2
    5d0c:	3c180800 	lui	t8,0x800
    5d10:	271858ec 	addiu	t8,t8,22764
    5d14:	02987821 	addu	t7,s4,t8
    5d18:	8dee0000 	lw	t6,0(t7)
    5d1c:	01c00008 	jr	t6
    5d20:	00000000 	nop
    5d24:	24060006 	li	a2,6
    5d28:	14a60011 	bne	a1,a2,0x5d70
    5d2c:	00000000 	nop
    5d30:	3c1f0800 	lui	ra,0x800
    5d34:	8fff5cb8 	lw	ra,23736(ra)
    5d38:	24040005 	li	a0,5
    5d3c:	af5f0020 	sw	ra,32(k0)
    5d40:	8e190018 	lw	t9,24(s0)
    5d44:	af790018 	sw	t9,24(k1)
    5d48:	8f78004c 	lw	t8,76(k1)
    5d4c:	af78001c 	sw	t8,28(k1)
    5d50:	8f6f0050 	lw	t7,80(k1)
    5d54:	122000c2 	beqz	s1,0x6060
    5d58:	af6f0070 	sw	t7,112(k1)
    5d5c:	0a000373 	j	0x8000dcc
    5d60:	af840028 	sw	a0,40(gp)
    5d64:	240a0007 	li	t2,7
    5d68:	10aa0084 	beq	a1,t2,0x5f7c
    5d6c:	24030006 	li	v1,6
    5d70:	3c050800 	lui	a1,0x800
    5d74:	24a55cb8 	addiu	a1,a1,23736
    5d78:	0e00025e 	jal	0x8000978
    5d7c:	24040081 	li	a0,129
    5d80:	8f90001c 	lw	s0,28(gp)
    5d84:	0011102b 	sltu	v0,zero,s1
    5d88:	0a000373 	j	0x8000dcc
    5d8c:	af820028 	sw	v0,40(gp)
    5d90:	24020004 	li	v0,4
    5d94:	14a2fff6 	bne	a1,v0,0x5d70
    5d98:	240a0050 	li	t2,80
    5d9c:	3c090800 	lui	t1,0x800
    5da0:	8d295cb8 	lw	t1,23736(t1)
    5da4:	af490020 	sw	t1,32(k0)
    5da8:	8e040008 	lw	a0,8(s0)
    5dac:	af640040 	sw	a0,64(k1)
    5db0:	8e060008 	lw	a2,8(s0)
    5db4:	af660044 	sw	a2,68(k1)
    5db8:	8e07000c 	lw	a3,12(s0)
    5dbc:	af670048 	sw	a3,72(k1)
    5dc0:	8e0d0010 	lw	t5,16(s0)
    5dc4:	af6d004c 	sw	t5,76(k1)
    5dc8:	8e080010 	lw	t0,16(s0)
    5dcc:	af680084 	sw	t0,132(k1)
    5dd0:	8e050014 	lw	a1,20(s0)
    5dd4:	af650050 	sw	a1,80(k1)
    5dd8:	8e0c0018 	lw	t4,24(s0)
    5ddc:	af6c0054 	sw	t4,84(k1)
    5de0:	8e0b001c 	lw	t3,28(s0)
    5de4:	af6b0058 	sw	t3,88(k1)
    5de8:	93740000 	lbu	s4,0(k1)
    5dec:	328300ff 	andi	v1,s4,0xff
    5df0:	106a01ee 	beq	v1,t2,0x65ac
    5df4:	00000000 	nop
    5df8:	8f670048 	lw	a3,72(k1)
    5dfc:	8f660040 	lw	a2,64(k1)
    5e00:	00e66823 	subu	t5,a3,a2
    5e04:	05a00004 	bltz	t5,0x5e18
    5e08:	2404008c 	li	a0,140
    5e0c:	1620ffde 	bnez	s1,0x5d88
    5e10:	24020003 	li	v0,3
    5e14:	24040082 	li	a0,130
    5e18:	3c050800 	lui	a1,0x800
    5e1c:	24a55cb8 	addiu	a1,a1,23736
    5e20:	0e000287 	jal	0x8000a1c
    5e24:	00000000 	nop
    5e28:	8f90001c 	lw	s0,28(gp)
    5e2c:	00001021 	move	v0,zero
    5e30:	0a000373 	j	0x8000dcc
    5e34:	af820028 	sw	v0,40(gp)
    5e38:	24040005 	li	a0,5
    5e3c:	14a4ffcc 	bne	a1,a0,0x5d70
    5e40:	24052000 	li	a1,8192
    5e44:	3c1f0800 	lui	ra,0x800
    5e48:	8fff5cb8 	lw	ra,23736(ra)
    5e4c:	af5f0020 	sw	ra,32(k0)
    5e50:	8e190004 	lw	t9,4(s0)
    5e54:	af79005c 	sw	t9,92(k1)
    5e58:	92180008 	lbu	t8,8(s0)
    5e5c:	24100008 	li	s0,8
    5e60:	a3780021 	sb	t8,33(k1)
    5e64:	8f8f001c 	lw	t7,28(gp)
    5e68:	91ee0009 	lbu	t6,9(t7)
    5e6c:	a36e0020 	sb	t6,32(k1)
    5e70:	8f86001c 	lw	a2,28(gp)
    5e74:	90c9000a 	lbu	t1,10(a2)
    5e78:	312400ff 	andi	a0,t1,0xff
    5e7c:	10900010 	beq	a0,s0,0x5ec0
    5e80:	288a0009 	slti	t2,a0,9
    5e84:	1540006c 	bnez	t2,0x6038
    5e88:	24020002 	li	v0,2
    5e8c:	240c0020 	li	t4,32
    5e90:	108c000b 	beq	a0,t4,0x5ec0
    5e94:	34058000 	li	a1,0x8000
    5e98:	28850021 	slti	a1,a0,33
    5e9c:	14a00008 	bnez	a1,0x5ec0
    5ea0:	24054000 	li	a1,16384
    5ea4:	24080040 	li	t0,64
    5ea8:	10880005 	beq	a0,t0,0x5ec0
    5eac:	3c050001 	lui	a1,0x1
    5eb0:	240d0080 	li	t5,128
    5eb4:	108d0002 	beq	a0,t5,0x5ec0
    5eb8:	3c050002 	lui	a1,0x2
    5ebc:	24054000 	li	a1,16384
    5ec0:	8f6e0074 	lw	t6,116(k1)
    5ec4:	3c0fff00 	lui	t7,0xff00
    5ec8:	01cf4824 	and	t1,t6,t7
    5ecc:	01258025 	or	s0,t1,a1
    5ed0:	af700074 	sw	s0,116(k1)
    5ed4:	90c4000b 	lbu	a0,11(a2)
    5ed8:	a3640081 	sb	a0,129(k1)
    5edc:	8f84001c 	lw	a0,28(gp)
    5ee0:	9487000c 	lhu	a3,12(a0)
    5ee4:	10e00194 	beqz	a3,0x6538
    5ee8:	00000000 	nop
    5eec:	948e000c 	lhu	t6,12(a0)
    5ef0:	241fffbf 	li	ra,-65
    5ef4:	24060004 	li	a2,4
    5ef8:	a76e003c 	sh	t6,60(k1)
    5efc:	9089000e 	lbu	t1,14(a0)
    5f00:	a369003e 	sb	t1,62(k1)
    5f04:	8f90001c 	lw	s0,28(gp)
    5f08:	9204000f 	lbu	a0,15(s0)
    5f0c:	a364003f 	sb	a0,63(k1)
    5f10:	8f94001c 	lw	s4,28(gp)
    5f14:	8e8d0010 	lw	t5,16(s4)
    5f18:	8f470074 	lw	a3,116(k0)
    5f1c:	01a74023 	subu	t0,t5,a3
    5f20:	af680060 	sw	t0,96(k1)
    5f24:	8e850014 	lw	a1,20(s4)
    5f28:	af650064 	sw	a1,100(k1)
    5f2c:	968c0018 	lhu	t4,24(s4)
    5f30:	a76c0068 	sh	t4,104(k1)
    5f34:	968b001a 	lhu	t3,26(s4)
    5f38:	a76b006a 	sh	t3,106(k1)
    5f3c:	8e83001c 	lw	v1,28(s4)
    5f40:	af63006c 	sw	v1,108(k1)
    5f44:	96820002 	lhu	v0,2(s4)
    5f48:	a762013e 	sh	v0,318(k1)
    5f4c:	928a000e 	lbu	t2,14(s4)
    5f50:	a36a003e 	sb	t2,62(k1)
    5f54:	9379003e 	lbu	t9,62(k1)
    5f58:	033fc024 	and	t8,t9,ra
    5f5c:	12200167 	beqz	s1,0x64fc
    5f60:	a378003e 	sb	t8,62(k1)
    5f64:	8f90001c 	lw	s0,28(gp)
    5f68:	0a000373 	j	0x8000dcc
    5f6c:	af860028 	sw	a2,40(gp)
    5f70:	24140022 	li	s4,34
    5f74:	14b4ff7e 	bne	a1,s4,0x5d70
    5f78:	24030007 	li	v1,7
    5f7c:	3c020800 	lui	v0,0x800
    5f80:	8c425cb8 	lw	v0,23736(v0)
    5f84:	1220000c 	beqz	s1,0x5fb8
    5f88:	af420020 	sw	v0,32(k0)
    5f8c:	0a000373 	j	0x8000dcc
    5f90:	af830028 	sw	v1,40(gp)
    5f94:	240c0033 	li	t4,51
    5f98:	10ac0014 	beq	a1,t4,0x5fec
    5f9c:	24050028 	li	a1,40
    5fa0:	3c050800 	lui	a1,0x800
    5fa4:	24a55cb8 	addiu	a1,a1,23736
    5fa8:	0e000230 	jal	0x80008c0
    5fac:	24040081 	li	a0,129
    5fb0:	0a0003f8 	j	0x8000fe0
    5fb4:	8f90001c 	lw	s0,28(gp)
    5fb8:	3c040800 	lui	a0,0x800
    5fbc:	24845cb8 	addiu	a0,a0,23736
    5fc0:	0e000294 	jal	0x8000a50
    5fc4:	00000000 	nop
    5fc8:	936b0000 	lbu	t3,0(k1)
    5fcc:	24110050 	li	s1,80
    5fd0:	316300ff 	andi	v1,t3,0xff
    5fd4:	10710151 	beq	v1,s1,0x651c
    5fd8:	00000000 	nop
    5fdc:	8f90001c 	lw	s0,28(gp)
    5fe0:	00001821 	move	v1,zero
    5fe4:	0a000373 	j	0x8000dcc
    5fe8:	af830028 	sw	v1,40(gp)
    5fec:	3c080800 	lui	t0,0x800
    5ff0:	8d085cb8 	lw	t0,23736(t0)
    5ff4:	24040081 	li	a0,129
    5ff8:	af480020 	sw	t0,32(k0)
    5ffc:	a3650034 	sb	a1,52(k1)
    6000:	3c050800 	lui	a1,0x800
    6004:	24a55cb8 	addiu	a1,a1,23736
    6008:	0e000230 	jal	0x80008c0
    600c:	00000000 	nop
    6010:	8f90001c 	lw	s0,28(gp)
    6014:	24020009 	li	v0,9
    6018:	0a000373 	j	0x8000dcc
    601c:	af820028 	sw	v0,40(gp)
    6020:	02b28821 	addu	s1,s5,s2
    6024:	3225ffff 	andi	a1,s1,0xffff
    6028:	0e000224 	jal	0x8000890
    602c:	24040084 	li	a0,132
    6030:	0a000373 	j	0x8000dcc
    6034:	8f90001c 	lw	s0,28(gp)
    6038:	1082ffa1 	beq	a0,v0,0x5ec0
    603c:	24050400 	li	a1,1024
    6040:	28830003 	slti	v1,a0,3
    6044:	1060016f 	beqz	v1,0x6604
    6048:	240b0004 	li	t3,4
    604c:	24140001 	li	s4,1
    6050:	5494ff9b 	bnel	a0,s4,0x5ec0
    6054:	24054000 	li	a1,16384
    6058:	0a000447 	j	0x800111c
    605c:	24050100 	li	a1,256
    6060:	3c040800 	lui	a0,0x800
    6064:	24845cb8 	addiu	a0,a0,23736
    6068:	8f62004c 	lw	v0,76(k1)
    606c:	0e000294 	jal	0x8000a50
    6070:	8f630050 	lw	v1,80(k1)
    6074:	8f90001c 	lw	s0,28(gp)
    6078:	00002021 	move	a0,zero
    607c:	0a000373 	j	0x8000dcc
    6080:	af840028 	sw	a0,40(gp)
    6084:	8e100004 	lw	s0,4(s0)
    6088:	2404008a 	li	a0,138
    608c:	af500020 	sw	s0,32(k0)
    6090:	936e0005 	lbu	t6,5(k1)
    6094:	31c90002 	andi	t1,t6,0x2
    6098:	1520015e 	bnez	t1,0x6614
    609c:	02002821 	move	a1,s0
    60a0:	93780023 	lbu	t8,35(k1)
    60a4:	02002821 	move	a1,s0
    60a8:	330f0020 	andi	t7,t8,0x20
    60ac:	15e00159 	bnez	t7,0x6614
    60b0:	2404008d 	li	a0,141
    60b4:	9362003f 	lbu	v0,63(k1)
    60b8:	24190012 	li	t9,18
    60bc:	305f00ff 	andi	ra,v0,0xff
    60c0:	13f90154 	beq	ra,t9,0x6614
    60c4:	24040081 	li	a0,129
    60c8:	0e000250 	jal	0x8000940
    60cc:	02002021 	move	a0,s0
    60d0:	93740023 	lbu	s4,35(k1)
    60d4:	240a0004 	li	t2,4
    60d8:	02002021 	move	a0,s0
    60dc:	36830042 	ori	v1,s4,0x42
    60e0:	a3630023 	sb	v1,35(k1)
    60e4:	0e000259 	jal	0x8000964
    60e8:	a36a007d 	sb	t2,125(k1)
    60ec:	8f4b0178 	lw	t3,376(k0)
    60f0:	0560fffe 	bltz	t3,0x60ec
    60f4:	24050002 	li	a1,2
    60f8:	af500140 	sw	s0,320(k0)
    60fc:	a3450144 	sb	a1,324(k0)
    6100:	8f90001c 	lw	s0,28(gp)
    6104:	3c0c1000 	lui	t4,0x1000
    6108:	af4c0178 	sw	t4,376(k0)
    610c:	0a0003f9 	j	0x8000fe4
    6110:	0011102b 	sltu	v0,zero,s1
    6114:	8e100004 	lw	s0,4(s0)
    6118:	2404008a 	li	a0,138
    611c:	af500020 	sw	s0,32(k0)
    6120:	936d0005 	lbu	t5,5(k1)
    6124:	31a80002 	andi	t0,t5,0x2
    6128:	15000016 	bnez	t0,0x6184
    612c:	02002821 	move	a1,s0
    6130:	9364003f 	lbu	a0,63(k1)
    6134:	24070004 	li	a3,4
    6138:	02002821 	move	a1,s0
    613c:	308600ff 	andi	a2,a0,0xff
    6140:	10c70010 	beq	a2,a3,0x6184
    6144:	24040081 	li	a0,129
    6148:	0e000250 	jal	0x8000940
    614c:	02002021 	move	a0,s0
    6150:	937f0023 	lbu	ra,35(k1)
    6154:	24180012 	li	t8,18
    6158:	240ffffe 	li	t7,-2
    615c:	37f90020 	ori	t9,ra,0x20
    6160:	a3790023 	sb	t9,35(k1)
    6164:	a378003f 	sb	t8,63(k1)
    6168:	936e0005 	lbu	t6,5(k1)
    616c:	02002021 	move	a0,s0
    6170:	01cf4824 	and	t1,t6,t7
    6174:	0e000259 	jal	0x8000964
    6178:	a3690005 	sb	t1,5(k1)
    617c:	02002821 	move	a1,s0
    6180:	00002021 	move	a0,zero
    6184:	0e000340 	jal	0x8000d00
    6188:	00000000 	nop
    618c:	0a0003f8 	j	0x8000fe0
    6190:	8f90001c 	lw	s0,28(gp)
    6194:	8e050004 	lw	a1,4(s0)
    6198:	3c0f0008 	lui	t7,0x8
    619c:	034f4021 	addu	t0,k0,t7
    61a0:	af450020 	sw	a1,32(k0)
    61a4:	910e0000 	lbu	t6,0(t0)
    61a8:	24060050 	li	a2,80
    61ac:	31c900ff 	andi	t1,t6,0xff
    61b0:	11260176 	beq	t1,a2,0x678c
    61b4:	24040088 	li	a0,136
    61b8:	8f5901b8 	lw	t9,440(k0)
    61bc:	0720fffe 	bltz	t9,0x61b8
    61c0:	3c0c400e 	lui	t4,0x400e
    61c4:	008c5825 	or	t3,a0,t4
    61c8:	3c031000 	lui	v1,0x1000
    61cc:	af450180 	sw	a1,384(k0)
    61d0:	af400184 	sw	zero,388(k0)
    61d4:	af4b0188 	sw	t3,392(k0)
    61d8:	af4301b8 	sw	v1,440(k0)
    61dc:	91020000 	lbu	v0,0(t0)
    61e0:	240aff80 	li	t2,-128
    61e4:	24040004 	li	a0,4
    61e8:	004af825 	or	ra,v0,t2
    61ec:	a11f0000 	sb	ra,0(t0)
    61f0:	0e000c7c 	jal	0x80031f0
    61f4:	24060030 	li	a2,48
    61f8:	0a0003f8 	j	0x8000fe0
    61fc:	8f90001c 	lw	s0,28(gp)
    6200:	8e0f0004 	lw	t7,4(s0)
    6204:	3c140800 	lui	s4,0x800
    6208:	26945cb8 	addiu	s4,s4,23736
    620c:	3c010800 	lui	at,0x800
    6210:	ac2f5cb8 	sw	t7,23736(at)
    6214:	af4f0020 	sw	t7,32(k0)
    6218:	920e0003 	lbu	t6,3(s0)
    621c:	31c90004 	andi	t1,t6,0x4
    6220:	11200002 	beqz	t1,0x622c
    6224:	24020012 	li	v0,18
    6228:	24020006 	li	v0,6
    622c:	a362003f 	sb	v0,63(k1)
    6230:	9203001b 	lbu	v1,27(s0)
    6234:	240affc0 	li	t2,-64
    6238:	3062003f 	andi	v0,v1,0x3f
    623c:	004af825 	or	ra,v0,t2
    6240:	a37f003e 	sb	ra,62(k1)
    6244:	92190003 	lbu	t9,3(s0)
    6248:	33380001 	andi	t8,t9,0x1
    624c:	1700011c 	bnez	t8,0x66c0
    6250:	00000000 	nop
    6254:	8e020008 	lw	v0,8(s0)
    6258:	ae820008 	sw	v0,8(s4)
    625c:	3c020800 	lui	v0,0x800
    6260:	8c425cc0 	lw	v0,23744(v0)
    6264:	1040011b 	beqz	v0,0x66d4
    6268:	00000000 	nop
    626c:	000221c2 	srl	a0,v0,0x7
    6270:	a7640008 	sh	a0,8(k1)
    6274:	8e0d000c 	lw	t5,12(s0)
    6278:	240b0001 	li	t3,1
    627c:	24140014 	li	s4,20
    6280:	af6d002c 	sw	t5,44(k1)
    6284:	8e080010 	lw	t0,16(s0)
    6288:	af680030 	sw	t0,48(k1)
    628c:	96050016 	lhu	a1,22(s0)
    6290:	a7650038 	sh	a1,56(k1)
    6294:	960c0014 	lhu	t4,20(s0)
    6298:	a76c003a 	sh	t4,58(k1)
    629c:	af6b000c 	sw	t3,12(k1)
    62a0:	a76b0010 	sh	t3,16(k1)
    62a4:	a76b0012 	sh	t3,18(k1)
    62a8:	a76b0014 	sh	t3,20(k1)
    62ac:	a76b0016 	sh	t3,22(k1)
    62b0:	12200146 	beqz	s1,0x67cc
    62b4:	a3740034 	sb	s4,52(k1)
    62b8:	92060003 	lbu	a2,3(s0)
    62bc:	30c70002 	andi	a3,a2,0x2
    62c0:	2cf00001 	sltiu	s0,a3,1
    62c4:	26020008 	addiu	v0,s0,8
    62c8:	8f90001c 	lw	s0,28(gp)
    62cc:	0a000373 	j	0x8000dcc
    62d0:	af820028 	sw	v0,40(gp)
    62d4:	8e140004 	lw	s4,4(s0)
    62d8:	24030081 	li	v1,129
    62dc:	af540020 	sw	s4,32(k0)
    62e0:	93680023 	lbu	t0,35(k1)
    62e4:	31050010 	andi	a1,t0,0x10
    62e8:	10a00107 	beqz	a1,0x6708
    62ec:	00000000 	nop
    62f0:	8f4401b8 	lw	a0,440(k0)
    62f4:	0480fffe 	bltz	a0,0x62f0
    62f8:	3c06401f 	lui	a2,0x401f
    62fc:	0011382b 	sltu	a3,zero,s1
    6300:	00661025 	or	v0,v1,a2
    6304:	3c111000 	lui	s1,0x1000
    6308:	af540180 	sw	s4,384(k0)
    630c:	af870028 	sw	a3,40(gp)
    6310:	af400184 	sw	zero,388(k0)
    6314:	af420188 	sw	v0,392(k0)
    6318:	af5101b8 	sw	s1,440(k0)
    631c:	0a000374 	j	0x8000dd0
    6320:	8f910014 	lw	s1,20(gp)
    6324:	8e060004 	lw	a2,4(s0)
    6328:	3c190008 	lui	t9,0x8
    632c:	03592021 	addu	a0,k0,t9
    6330:	af460020 	sw	a2,32(k0)
    6334:	8e070008 	lw	a3,8(s0)
    6338:	90980000 	lbu	t8,0(a0)
    633c:	240f0050 	li	t7,80
    6340:	331400ff 	andi	s4,t8,0xff
    6344:	128f0102 	beq	s4,t7,0x6750
    6348:	24050088 	li	a1,136
    634c:	8f4401b8 	lw	a0,440(k0)
    6350:	0480fffe 	bltz	a0,0x634c
    6354:	3c0d4009 	lui	t5,0x4009
    6358:	0011602b 	sltu	t4,zero,s1
    635c:	00ad1025 	or	v0,a1,t5
    6360:	3c111000 	lui	s1,0x1000
    6364:	af460180 	sw	a2,384(k0)
    6368:	af8c0028 	sw	t4,40(gp)
    636c:	af470184 	sw	a3,388(k0)
    6370:	af420188 	sw	v0,392(k0)
    6374:	af5101b8 	sw	s1,440(k0)
    6378:	0a000374 	j	0x8000dd0
    637c:	8f910014 	lw	s1,20(gp)
    6380:	8e04001c 	lw	a0,28(s0)
    6384:	0e00023b 	jal	0x80008ec
    6388:	00000000 	nop
    638c:	104000e8 	beqz	v0,0x6730
    6390:	00404821 	move	t1,v0
    6394:	8f90001c 	lw	s0,28(gp)
    6398:	24050089 	li	a1,137
    639c:	8f4d01b8 	lw	t5,440(k0)
    63a0:	05a0fffe 	bltz	t5,0x639c
    63a4:	00000000 	nop
    63a8:	af490180 	sw	t1,384(k0)
    63ac:	8e0f001c 	lw	t7,28(s0)
    63b0:	3c144001 	lui	s4,0x4001
    63b4:	0011702b 	sltu	t6,zero,s1
    63b8:	00b44825 	or	t1,a1,s4
    63bc:	3c111000 	lui	s1,0x1000
    63c0:	af4f0184 	sw	t7,388(k0)
    63c4:	af8e0028 	sw	t6,40(gp)
    63c8:	af490188 	sw	t1,392(k0)
    63cc:	af5101b8 	sw	s1,440(k0)
    63d0:	0a000374 	j	0x8000dd0
    63d4:	8f910014 	lw	s1,20(gp)
    63d8:	96190002 	lhu	t9,2(s0)
    63dc:	3c140800 	lui	s4,0x800
    63e0:	26945cb8 	addiu	s4,s4,23736
    63e4:	33380004 	andi	t8,t9,0x4
    63e8:	1300008e 	beqz	t8,0x6624
    63ec:	3c026000 	lui	v0,0x6000
    63f0:	8e1f001c 	lw	ra,28(s0)
    63f4:	3c010800 	lui	at,0x800
    63f8:	ac3f5cb8 	sw	ra,23736(at)
    63fc:	af5f0020 	sw	ra,32(k0)
    6400:	920c0010 	lbu	t4,16(s0)
    6404:	240b0014 	li	t3,20
    6408:	318400ff 	andi	a0,t4,0xff
    640c:	148b00b8 	bne	a0,t3,0x66f0
    6410:	00000000 	nop
    6414:	96090002 	lhu	t1,2(s0)
    6418:	312d0001 	andi	t5,t1,0x1
    641c:	15a0014e 	bnez	t5,0x6958
    6420:	00000000 	nop
    6424:	8e020004 	lw	v0,4(s0)
    6428:	ae820008 	sw	v0,8(s4)
    642c:	3c0e0800 	lui	t6,0x800
    6430:	8dce5cc0 	lw	t6,23744(t6)
    6434:	11c00144 	beqz	t6,0x6948
    6438:	00000000 	nop
    643c:	8f690074 	lw	t1,116(k1)
    6440:	3c0e8000 	lui	t6,0x8000
    6444:	24040001 	li	a0,1
    6448:	012e6825 	or	t5,t1,t6
    644c:	af6d0074 	sw	t5,116(k1)
    6450:	a3600005 	sb	zero,5(k1)
    6454:	af64000c 	sw	a0,12(k1)
    6458:	3c0c0800 	lui	t4,0x800
    645c:	8d8c5cc0 	lw	t4,23744(t4)
    6460:	8f88001c 	lw	t0,28(gp)
    6464:	a7640010 	sh	a0,16(k1)
    6468:	000c59c2 	srl	t3,t4,0x7
    646c:	a7640012 	sh	a0,18(k1)
    6470:	a7640014 	sh	a0,20(k1)
    6474:	a7640016 	sh	a0,22(k1)
    6478:	a76b0008 	sh	t3,8(k1)
    647c:	8d030008 	lw	v1,8(t0)
    6480:	24040002 	li	a0,2
    6484:	af63002c 	sw	v1,44(k1)
    6488:	8d0a000c 	lw	t2,12(t0)
    648c:	af6a0030 	sw	t2,48(k1)
    6490:	91070010 	lbu	a3,16(t0)
    6494:	a3670034 	sb	a3,52(k1)
    6498:	8f82001c 	lw	v0,28(gp)
    649c:	90450011 	lbu	a1,17(v0)
    64a0:	a3650035 	sb	a1,53(k1)
    64a4:	8f86001c 	lw	a2,28(gp)
    64a8:	90d00012 	lbu	s0,18(a2)
    64ac:	a3700036 	sb	s0,54(k1)
    64b0:	8f9f001c 	lw	ra,28(gp)
    64b4:	93f90013 	lbu	t9,19(ra)
    64b8:	a3790037 	sb	t9,55(k1)
    64bc:	8f90001c 	lw	s0,28(gp)
    64c0:	96180014 	lhu	t8,20(s0)
    64c4:	a7780038 	sh	t8,56(k1)
    64c8:	96140016 	lhu	s4,22(s0)
    64cc:	a774003a 	sh	s4,58(k1)
    64d0:	8e0f0018 	lw	t7,24(s0)
    64d4:	af6f0024 	sw	t7,36(k1)
    64d8:	5620fda5 	bnezl	s1,0x5b70
    64dc:	af840028 	sw	a0,40(gp)
    64e0:	3c050800 	lui	a1,0x800
    64e4:	24a55cb8 	addiu	a1,a1,23736
    64e8:	0e00025e 	jal	0x8000978
    64ec:	00002021 	move	a0,zero
    64f0:	8f90001c 	lw	s0,28(gp)
    64f4:	0a0004b6 	j	0x80012d8
    64f8:	00002021 	move	a0,zero
    64fc:	3c050800 	lui	a1,0x800
    6500:	24a55cb8 	addiu	a1,a1,23736
    6504:	0e000287 	jal	0x8000a1c
    6508:	24040082 	li	a0,130
    650c:	8f90001c 	lw	s0,28(gp)
    6510:	00003021 	move	a2,zero
    6514:	0a000373 	j	0x8000dcc
    6518:	af860028 	sw	a2,40(gp)
    651c:	3c040800 	lui	a0,0x800
    6520:	8c845cb8 	lw	a0,23736(a0)
    6524:	0e001574 	jal	0x80055d0
    6528:	00000000 	nop
    652c:	8f90001c 	lw	s0,28(gp)
    6530:	0a000490 	j	0x8001240
    6534:	00001821 	move	v1,zero
    6538:	3c050800 	lui	a1,0x800
    653c:	24a55cb8 	addiu	a1,a1,23736
    6540:	0e000287 	jal	0x8000a1c
    6544:	2404008b 	li	a0,139
    6548:	8f90001c 	lw	s0,28(gp)
    654c:	0011302b 	sltu	a2,zero,s1
    6550:	0a000373 	j	0x8000dcc
    6554:	af860028 	sw	a2,40(gp)
    6558:	3c190800 	lui	t9,0x800
    655c:	8f395cb8 	lw	t9,23736(t9)
    6560:	3c1f0800 	lui	ra,0x800
    6564:	8fff0050 	lw	ra,80(ra)
    6568:	24ccfffe 	addiu	t4,a2,-2
    656c:	033f7821 	addu	t7,t9,ra
    6570:	01f87024 	and	t6,t7,t8
    6574:	af4e0028 	sw	t6,40(k0)
    6578:	3c040800 	lui	a0,0x800
    657c:	8c845cb8 	lw	a0,23736(a0)
    6580:	3c090800 	lui	t1,0x800
    6584:	8d290050 	lw	t1,80(t1)
    6588:	00896821 	addu	t5,a0,t1
    658c:	31a8007f 	andi	t0,t5,0x7f
    6590:	011a2821 	addu	a1,t0,k0
    6594:	00a78021 	addu	s0,a1,a3
    6598:	ae0600d8 	sw	a2,216(s0)
    659c:	af9000d0 	sw	s0,208(gp)
    65a0:	ae0000dc 	sw	zero,220(s0)
    65a4:	0a0003c2 	j	0x8000f08
    65a8:	ae0c0108 	sw	t4,264(s0)
    65ac:	af600084 	sw	zero,132(k1)
    65b0:	3c050800 	lui	a1,0x800
    65b4:	8ca55cb8 	lw	a1,23736(a1)
    65b8:	3c080800 	lui	t0,0x800
    65bc:	8d080050 	lw	t0,80(t0)
    65c0:	240cff80 	li	t4,-128
    65c4:	3c02000c 	lui	v0,0xc
    65c8:	00a8a021 	addu	s4,a1,t0
    65cc:	028c5824 	and	t3,s4,t4
    65d0:	af4b0028 	sw	t3,40(k0)
    65d4:	8e1f0014 	lw	ra,20(s0)
    65d8:	3283007f 	andi	v1,s4,0x7f
    65dc:	007a5021 	addu	t2,v1,k0
    65e0:	01427021 	addu	t6,t2,v0
    65e4:	addf00d8 	sw	ra,216(t6)
    65e8:	8e190014 	lw	t9,20(s0)
    65ec:	af8e00d0 	sw	t6,208(gp)
    65f0:	add900dc 	sw	t9,220(t6)
    65f4:	8e180010 	lw	t8,16(s0)
    65f8:	270ffffe 	addiu	t7,t8,-2
    65fc:	0a000415 	j	0x8001054
    6600:	adcf0108 	sw	t7,264(t6)
    6604:	548bfe2e 	bnel	a0,t3,0x5ec0
    6608:	24054000 	li	a1,16384
    660c:	0a000447 	j	0x800111c
    6610:	24051000 	li	a1,4096
    6614:	0e000335 	jal	0x8000cd4
    6618:	00000000 	nop
    661c:	0a0003f8 	j	0x8000fe0
    6620:	8f90001c 	lw	s0,28(gp)
    6624:	8c46442c 	lw	a2,17452(v0)
    6628:	3c056c62 	lui	a1,0x6c62
    662c:	34b07970 	ori	s0,a1,0x7970
    6630:	3c010800 	lui	at,0x800
    6634:	ac205cb8 	sw	zero,23736(at)
    6638:	14d00008 	bne	a2,s0,0x665c
    663c:	24040002 	li	a0,2
    6640:	97880034 	lhu	t0,52(gp)
    6644:	978a002c 	lhu	t2,44(gp)
    6648:	02802821 	move	a1,s4
    664c:	010a382b 	sltu	a3,t0,t2
    6650:	10e00011 	beqz	a3,0x6698
    6654:	24040092 	li	a0,146
    6658:	24040002 	li	a0,2
    665c:	0e000c9a 	jal	0x8003268
    6660:	24050140 	li	a1,320
    6664:	3c010800 	lui	at,0x800
    6668:	ac225cb8 	sw	v0,23736(at)
    666c:	af420020 	sw	v0,32(k0)
    6670:	3c030800 	lui	v1,0x800
    6674:	8c635cb8 	lw	v1,23736(v1)
    6678:	10600005 	beqz	v1,0x6690
    667c:	24040083 	li	a0,131
    6680:	0e000865 	jal	0x8002194
    6684:	00000000 	nop
    6688:	10400009 	beqz	v0,0x66b0
    668c:	24040083 	li	a0,131
    6690:	3c050800 	lui	a1,0x800
    6694:	24a55cb8 	addiu	a1,a1,23736
    6698:	0e00025e 	jal	0x8000978
    669c:	00000000 	nop
    66a0:	8f90001c 	lw	s0,28(gp)
    66a4:	0011202b 	sltu	a0,zero,s1
    66a8:	0a000373 	j	0x8000dcc
    66ac:	af840028 	sw	a0,40(gp)
    66b0:	0e000869 	jal	0x80021a4
    66b4:	00000000 	nop
    66b8:	0a000597 	j	0x800165c
    66bc:	8f90001c 	lw	s0,28(gp)
    66c0:	8e040008 	lw	a0,8(s0)
    66c4:	0e00023b 	jal	0x80008ec
    66c8:	00000000 	nop
    66cc:	0a00052e 	j	0x80014b8
    66d0:	ae820008 	sw	v0,8(s4)
    66d4:	3c050800 	lui	a1,0x800
    66d8:	24a55cb8 	addiu	a1,a1,23736
    66dc:	0e000230 	jal	0x80008c0
    66e0:	24040087 	li	a0,135
    66e4:	8f90001c 	lw	s0,28(gp)
    66e8:	0a00054a 	j	0x8001528
    66ec:	0011102b 	sltu	v0,zero,s1
    66f0:	0e00086d 	jal	0x80021b4
    66f4:	00000000 	nop
    66f8:	3c050800 	lui	a1,0x800
    66fc:	24a55cb8 	addiu	a1,a1,23736
    6700:	0a00063d 	j	0x80018f4
    6704:	2404008b 	li	a0,139
    6708:	0e000250 	jal	0x8000940
    670c:	02802021 	move	a0,s4
    6710:	93700023 	lbu	s0,35(k1)
    6714:	02802021 	move	a0,s4
    6718:	360d0010 	ori	t5,s0,0x10
    671c:	0e000259 	jal	0x8000964
    6720:	a36d0023 	sb	t5,35(k1)
    6724:	8f90001c 	lw	s0,28(gp)
    6728:	0a000553 	j	0x800154c
    672c:	00001821 	move	v1,zero
    6730:	24040004 	li	a0,4
    6734:	0e000c9a 	jal	0x8003268
    6738:	24050030 	li	a1,48
    673c:	1440002a 	bnez	v0,0x67e8
    6740:	00404821 	move	t1,v0
    6744:	8f90001c 	lw	s0,28(gp)
    6748:	0a00057e 	j	0x80015f8
    674c:	24050083 	li	a1,131
    6750:	9205000c 	lbu	a1,12(s0)
    6754:	30bf0001 	andi	ra,a1,0x1
    6758:	13e00003 	beqz	ra,0x6768
    675c:	00000000 	nop
    6760:	9602000e 	lhu	v0,14(s0)
    6764:	a482002c 	sh	v0,44(a0)
    6768:	920a000c 	lbu	t2,12(s0)
    676c:	31480002 	andi	t0,t2,0x2
    6770:	1100fef6 	beqz	t0,0x634c
    6774:	00002821 	move	a1,zero
    6778:	960b0012 	lhu	t3,18(s0)
    677c:	8e030014 	lw	v1,20(s0)
    6780:	a48b001a 	sh	t3,26(a0)
    6784:	0a00056a 	j	0x80015a8
    6788:	ac83001c 	sw	v1,28(a0)
    678c:	8f830038 	lw	v1,56(gp)
    6790:	8f870030 	lw	a3,48(gp)
    6794:	1067fe88 	beq	v1,a3,0x61b8
    6798:	00002021 	move	a0,zero
    679c:	3c090800 	lui	t1,0x800
    67a0:	25295c3c 	addiu	t1,t1,23612
    67a4:	000320c0 	sll	a0,v1,0x3
    67a8:	00893021 	addu	a2,a0,t1
    67ac:	8cd40000 	lw	s4,0(a2)
    67b0:	1285005e 	beq	s4,a1,0x692c
    67b4:	24780001 	addiu	t8,v1,1
    67b8:	3303000f 	andi	v1,t8,0xf
    67bc:	5467fffa 	bnel	v1,a3,0x67a8
    67c0:	000320c0 	sll	a0,v1,0x3
    67c4:	0a000505 	j	0x8001414
    67c8:	00002021 	move	a0,zero
    67cc:	3c050800 	lui	a1,0x800
    67d0:	24a55cb8 	addiu	a1,a1,23736
    67d4:	0e000287 	jal	0x8000a1c
    67d8:	24040082 	li	a0,130
    67dc:	8f90001c 	lw	s0,28(gp)
    67e0:	0a00054a 	j	0x8001528
    67e4:	00001021 	move	v0,zero
    67e8:	3c0b0008 	lui	t3,0x8
    67ec:	034b2021 	addu	a0,k0,t3
    67f0:	24030050 	li	v1,80
    67f4:	240a0001 	li	t2,1
    67f8:	af420020 	sw	v0,32(k0)
    67fc:	a0830000 	sb	v1,0(a0)
    6800:	a08a0001 	sb	t2,1(a0)
    6804:	8f88001c 	lw	t0,28(gp)
    6808:	91070004 	lbu	a3,4(t0)
    680c:	a0870018 	sb	a3,24(a0)
    6810:	8f82001c 	lw	v0,28(gp)
    6814:	90450005 	lbu	a1,5(v0)
    6818:	a0850019 	sb	a1,25(a0)
    681c:	8f86001c 	lw	a2,28(gp)
    6820:	90df0006 	lbu	ra,6(a2)
    6824:	a09f001a 	sb	ra,26(a0)
    6828:	8f99001c 	lw	t9,28(gp)
    682c:	93380007 	lbu	t8,7(t9)
    6830:	a098001b 	sb	t8,27(a0)
    6834:	8f94001c 	lw	s4,28(gp)
    6838:	928f0008 	lbu	t7,8(s4)
    683c:	a08f001c 	sb	t7,28(a0)
    6840:	8f90001c 	lw	s0,28(gp)
    6844:	920e0009 	lbu	t6,9(s0)
    6848:	a08e001d 	sb	t6,29(a0)
    684c:	8f8d001c 	lw	t5,28(gp)
    6850:	91ac000a 	lbu	t4,10(t5)
    6854:	a08c001e 	sb	t4,30(a0)
    6858:	8f8b001c 	lw	t3,28(gp)
    685c:	3c0c0800 	lui	t4,0x800
    6860:	258c5c3c 	addiu	t4,t4,23612
    6864:	9163000b 	lbu	v1,11(t3)
    6868:	3c0b0800 	lui	t3,0x800
    686c:	256b5c38 	addiu	t3,t3,23608
    6870:	a083001f 	sb	v1,31(a0)
    6874:	8f8a001c 	lw	t2,28(gp)
    6878:	9148000c 	lbu	t0,12(t2)
    687c:	a0880020 	sb	t0,32(a0)
    6880:	8f87001c 	lw	a3,28(gp)
    6884:	90e5000d 	lbu	a1,13(a3)
    6888:	a0850021 	sb	a1,33(a0)
    688c:	8f82001c 	lw	v0,28(gp)
    6890:	24054646 	li	a1,17990
    6894:	9046000e 	lbu	a2,14(v0)
    6898:	a0860022 	sb	a2,34(a0)
    689c:	8f9f001c 	lw	ra,28(gp)
    68a0:	93f9000f 	lbu	t9,15(ra)
    68a4:	a0990023 	sb	t9,35(a0)
    68a8:	8f98001c 	lw	t8,28(gp)
    68ac:	93140010 	lbu	s4,16(t8)
    68b0:	a0940024 	sb	s4,36(a0)
    68b4:	8f8f001c 	lw	t7,28(gp)
    68b8:	91f00011 	lbu	s0,17(t7)
    68bc:	a0900025 	sb	s0,37(a0)
    68c0:	8f90001c 	lw	s0,28(gp)
    68c4:	8f8e0030 	lw	t6,48(gp)
    68c8:	8f990038 	lw	t9,56(gp)
    68cc:	960d0014 	lhu	t5,20(s0)
    68d0:	000e18c0 	sll	v1,t6,0x3
    68d4:	25c80001 	addiu	t0,t6,1
    68d8:	a48d0028 	sh	t5,40(a0)
    68dc:	960a0016 	lhu	t2,22(s0)
    68e0:	006c3021 	addu	a2,v1,t4
    68e4:	006bf821 	addu	ra,v1,t3
    68e8:	a48a002a 	sh	t2,42(a0)
    68ec:	96070018 	lhu	a3,24(s0)
    68f0:	3108000f 	andi	t0,t0,0xf
    68f4:	a487002c 	sh	a3,44(a0)
    68f8:	a485002e 	sh	a1,46(a0)
    68fc:	8e02001c 	lw	v0,28(s0)
    6900:	acc90000 	sw	t1,0(a2)
    6904:	af880030 	sw	t0,48(gp)
    6908:	11190003 	beq	t0,t9,0x6918
    690c:	afe20000 	sw	v0,0(ra)
    6910:	0a00057e 	j	0x80015f8
    6914:	00002821 	move	a1,zero
    6918:	250c0001 	addiu	t4,t0,1
    691c:	3184000f 	andi	a0,t4,0xf
    6920:	00002821 	move	a1,zero
    6924:	0a00057e 	j	0x80015f8
    6928:	af840038 	sw	a0,56(gp)
    692c:	3c070800 	lui	a3,0x800
    6930:	24e75c38 	addiu	a3,a3,23608
    6934:	00878021 	addu	s0,a0,a3
    6938:	00002021 	move	a0,zero
    693c:	acc00000 	sw	zero,0(a2)
    6940:	0a000505 	j	0x8001414
    6944:	ae000000 	sw	zero,0(s0)
    6948:	3c050800 	lui	a1,0x800
    694c:	24a55cb8 	addiu	a1,a1,23736
    6950:	0a00063d 	j	0x80018f4
    6954:	24040087 	li	a0,135
    6958:	8e040004 	lw	a0,4(s0)
    695c:	0e00023b 	jal	0x80008ec
    6960:	00000000 	nop
    6964:	0a0005a2 	j	0x8001688
    6968:	ae820008 	sw	v0,8(s4)
    696c:	3084ffff 	andi	a0,a0,0xffff
    6970:	30c600ff 	andi	a2,a2,0xff
    6974:	8f4201b8 	lw	v0,440(k0)
    6978:	0440fffe 	bltz	v0,0x6974
    697c:	00064400 	sll	t0,a2,0x10
    6980:	01043025 	or	a2,t0,a0
    6984:	3c072000 	lui	a3,0x2000
    6988:	00c72025 	or	a0,a2,a3
    698c:	3c031000 	lui	v1,0x1000
    6990:	af400180 	sw	zero,384(k0)
    6994:	af450184 	sw	a1,388(k0)
    6998:	af440188 	sw	a0,392(k0)
    699c:	03e00008 	jr	ra
    69a0:	af4301b8 	sw	v1,440(k0)
    69a4:	27bdffe8 	addiu	sp,sp,-24
    69a8:	afb00010 	sw	s0,16(sp)
    69ac:	afbf0014 	sw	ra,20(sp)
    69b0:	3c076000 	lui	a3,0x6000
    69b4:	24060002 	li	a2,2
    69b8:	10800006 	beqz	a0,0x69d4
    69bc:	00a08021 	move	s0,a1
    69c0:	0010102b 	sltu	v0,zero,s0
    69c4:	8fbf0014 	lw	ra,20(sp)
    69c8:	8fb00010 	lw	s0,16(sp)
    69cc:	03e00008 	jr	ra
    69d0:	27bd0018 	addiu	sp,sp,24
    69d4:	3c09600e 	lui	t1,0x600e
    69d8:	ad200034 	sw	zero,52(t1)
    69dc:	8ce5201c 	lw	a1,8220(a3)
    69e0:	8f82001c 	lw	v0,28(gp)
    69e4:	2408fffc 	li	t0,-4
    69e8:	00a81824 	and	v1,a1,t0
    69ec:	ace3201c 	sw	v1,8220(a3)
    69f0:	0e0006f2 	jal	0x8001bc8
    69f4:	8c45000c 	lw	a1,12(v0)
    69f8:	0010102b 	sltu	v0,zero,s0
    69fc:	8fbf0014 	lw	ra,20(sp)
    6a00:	8fb00010 	lw	s0,16(sp)
    6a04:	03e00008 	jr	ra
    6a08:	27bd0018 	addiu	sp,sp,24
    6a0c:	3c02600e 	lui	v0,0x600e
    6a10:	34470100 	ori	a3,v0,0x100
    6a14:	24090018 	li	t1,24
    6a18:	274a0400 	addiu	t2,k0,1024
	...
    6a28:	3c060050 	lui	a2,0x50
    6a2c:	34c30200 	ori	v1,a2,0x200
    6a30:	af440038 	sw	a0,56(k0)
    6a34:	af45003c 	sw	a1,60(k0)
    6a38:	af430030 	sw	v1,48(k0)
    6a3c:	01401821 	move	v1,t2
    6a40:	8f4b0000 	lw	t3,0(k0)
    6a44:	31680020 	andi	t0,t3,0x20
    6a48:	1100fffd 	beqz	t0,0x6a40
    6a4c:	2406007f 	li	a2,127
    6a50:	2408ffff 	li	t0,-1
    6a54:	8c6c0000 	lw	t4,0(v1)
    6a58:	24c6ffff 	addiu	a2,a2,-1
    6a5c:	24630004 	addiu	v1,v1,4
    6a60:	acec0000 	sw	t4,0(a3)
    6a64:	14c8fffb 	bne	a2,t0,0x6a54
    6a68:	24e70004 	addiu	a3,a3,4
	...
    6a78:	3c0f0020 	lui	t7,0x20
    6a7c:	af4f0030 	sw	t7,48(k0)
    6a80:	00000000 	nop
    6a84:	24ad0200 	addiu	t5,a1,512
    6a88:	01a5702b 	sltu	t6,t5,a1
    6a8c:	2529ffff 	addiu	t1,t1,-1
    6a90:	008e2021 	addu	a0,a0,t6
    6a94:	1520ffe1 	bnez	t1,0x6a1c
    6a98:	01a02821 	move	a1,t5
    6a9c:	03e00008 	jr	ra
    6aa0:	00000000 	nop
    6aa4:	27bdffe0 	addiu	sp,sp,-32
    6aa8:	afb10014 	sw	s1,20(sp)
    6aac:	afbf0018 	sw	ra,24(sp)
    6ab0:	afb00010 	sw	s0,16(sp)
    6ab4:	3c05600e 	lui	a1,0x600e
    6ab8:	8ca20034 	lw	v0,52(a1)
    6abc:	00808821 	move	s1,a0
    6ac0:	14400006 	bnez	v0,0x6adc
    6ac4:	3c046000 	lui	a0,0x6000
    6ac8:	8c87201c 	lw	a3,8220(a0)
    6acc:	2408fffc 	li	t0,-4
    6ad0:	00e83024 	and	a2,a3,t0
    6ad4:	34c30001 	ori	v1,a2,0x1
    6ad8:	ac83201c 	sw	v1,8220(a0)
    6adc:	8f8b001c 	lw	t3,28(gp)
    6ae0:	24090001 	li	t1,1
    6ae4:	aca90034 	sw	t1,52(a1)
    6ae8:	95690002 	lhu	t1,2(t3)
    6aec:	8d650014 	lw	a1,20(t3)
    6af0:	8d70000c 	lw	s0,12(t3)
    6af4:	2d240081 	sltiu	a0,t1,129
    6af8:	8d670004 	lw	a3,4(t3)
    6afc:	8d660008 	lw	a2,8(t3)
    6b00:	10800007 	beqz	a0,0x6b20
    6b04:	8d6a0010 	lw	t2,16(t3)
    6b08:	2d2c0004 	sltiu	t4,t1,4
    6b0c:	1580000e 	bnez	t4,0x6b48
    6b10:	30ce0007 	andi	t6,a2,0x7
    6b14:	312d0003 	andi	t5,t1,0x3
    6b18:	11a0000b 	beqz	t5,0x6b48
    6b1c:	00000000 	nop
    6b20:	2404008b 	li	a0,139
    6b24:	02002821 	move	a1,s0
    6b28:	0e0006f2 	jal	0x8001bc8
    6b2c:	24060003 	li	a2,3
    6b30:	0011102b 	sltu	v0,zero,s1
    6b34:	8fbf0018 	lw	ra,24(sp)
    6b38:	8fb10014 	lw	s1,20(sp)
    6b3c:	8fb00010 	lw	s0,16(sp)
    6b40:	03e00008 	jr	ra
    6b44:	27bd0020 	addiu	sp,sp,32
    6b48:	15c0fff6 	bnez	t6,0x6b24
    6b4c:	2404008b 	li	a0,139
    6b50:	3c030020 	lui	v1,0x20
    6b54:	af430030 	sw	v1,48(k0)
    6b58:	00000000 	nop
    6b5c:	24020001 	li	v0,1
    6b60:	af820014 	sw	v0,20(gp)
	...
    6b70:	3c1f0150 	lui	ra,0x150
    6b74:	013fc825 	or	t9,t1,ra
    6b78:	25380003 	addiu	t8,t1,3
    6b7c:	3c0f600e 	lui	t7,0x600e
    6b80:	af470038 	sw	a3,56(k0)
    6b84:	00181882 	srl	v1,t8,0x2
    6b88:	af46003c 	sw	a2,60(k0)
    6b8c:	35e8003c 	ori	t0,t7,0x3c
    6b90:	af590030 	sw	t9,48(k0)
    6b94:	27470400 	addiu	a3,k0,1024
    6b98:	8f440000 	lw	a0,0(k0)
    6b9c:	30860020 	andi	a2,a0,0x20
    6ba0:	10c0fffd 	beqz	a2,0x6b98
    6ba4:	00000000 	nop
    6ba8:	10600008 	beqz	v1,0x6bcc
    6bac:	2466ffff 	addiu	a2,v1,-1
    6bb0:	2403ffff 	li	v1,-1
    6bb4:	8ceb0000 	lw	t3,0(a3)
    6bb8:	24c6ffff 	addiu	a2,a2,-1
    6bbc:	24e70004 	addiu	a3,a3,4
    6bc0:	ad0b0000 	sw	t3,0(t0)
    6bc4:	14c3fffb 	bne	a2,v1,0x6bb4
    6bc8:	25080004 	addiu	t0,t0,4
    6bcc:	3c08600e 	lui	t0,0x600e
    6bd0:	ad090038 	sw	t1,56(t0)
	...
    6be0:	3c070020 	lui	a3,0x20
    6be4:	af470030 	sw	a3,48(k0)
    6be8:	00000000 	nop
    6bec:	0e00071a 	jal	0x8001c68
    6bf0:	01402021 	move	a0,t2
    6bf4:	02002821 	move	a1,s0
    6bf8:	00002021 	move	a0,zero
    6bfc:	0e0006f2 	jal	0x8001bc8
    6c00:	24060003 	li	a2,3
    6c04:	0011102b 	sltu	v0,zero,s1
    6c08:	8fbf0018 	lw	ra,24(sp)
    6c0c:	8fb10014 	lw	s1,20(sp)
    6c10:	8fb00010 	lw	s0,16(sp)
    6c14:	03e00008 	jr	ra
    6c18:	27bd0020 	addiu	sp,sp,32
    6c1c:	27bdffd8 	addiu	sp,sp,-40
    6c20:	afb20018 	sw	s2,24(sp)
    6c24:	3092ffff 	andi	s2,a0,0xffff
    6c28:	afb10014 	sw	s1,20(sp)
    6c2c:	afbf0020 	sw	ra,32(sp)
    6c30:	afb3001c 	sw	s3,28(sp)
    6c34:	afb00010 	sw	s0,16(sp)
    6c38:	1240002c 	beqz	s2,0x6cec
    6c3c:	00008821 	move	s1,zero
    6c40:	0a0007b2 	j	0x8001ec8
    6c44:	24130001 	li	s3,1
    6c48:	50b30040 	beql	a1,s3,0x6d4c
    6c4c:	8ce5000c 	lw	a1,12(a3)
    6c50:	0000000d 	break
    6c54:	26390001 	addiu	t9,s1,1
    6c58:	3331ffff 	andi	s1,t9,0xffff
    6c5c:	24f80020 	addiu	t8,a3,32
    6c60:	0232382b 	sltu	a3,s1,s2
    6c64:	10e00021 	beqz	a3,0x6cec
    6c68:	af98001c 	sw	t8,28(gp)
    6c6c:	8f820014 	lw	v0,20(gp)
    6c70:	1440001e 	bnez	v0,0x6cec
    6c74:	8f87001c 	lw	a3,28(gp)
    6c78:	3c067000 	lui	a2,0x7000
    6c7c:	3c032000 	lui	v1,0x2000
    6c80:	8ce40000 	lw	a0,0(a3)
    6c84:	00862824 	and	a1,a0,a2
    6c88:	14a30018 	bne	a1,v1,0x6cec
    6c8c:	8f85003c 	lw	a1,60(gp)
    6c90:	00044402 	srl	t0,a0,0x10
    6c94:	3c098000 	lui	t1,0x8000
    6c98:	00898024 	and	s0,a0,t1
    6c9c:	14a0ffea 	bnez	a1,0x6c48
    6ca0:	310600ff 	andi	a2,t0,0xff
    6ca4:	240a0002 	li	t2,2
    6ca8:	10ca002e 	beq	a2,t2,0x6d64
    6cac:	28cb0003 	slti	t3,a2,3
    6cb0:	11600016 	beqz	t3,0x6d0c
    6cb4:	240c0003 	li	t4,3
    6cb8:	14d3ffe7 	bne	a2,s3,0x6c58
    6cbc:	26390001 	addiu	t9,s1,1
    6cc0:	02002821 	move	a1,s0
    6cc4:	0e000700 	jal	0x8001c00
    6cc8:	24040001 	li	a0,1
    6ccc:	8f87001c 	lw	a3,28(gp)
    6cd0:	af82003c 	sw	v0,60(gp)
    6cd4:	26390001 	addiu	t9,s1,1
    6cd8:	3331ffff 	andi	s1,t9,0xffff
    6cdc:	24f80020 	addiu	t8,a3,32
    6ce0:	0232382b 	sltu	a3,s1,s2
    6ce4:	14e0ffe1 	bnez	a3,0x6c6c
    6ce8:	af98001c 	sw	t8,28(gp)
    6cec:	02201021 	move	v0,s1
    6cf0:	8fbf0020 	lw	ra,32(sp)
    6cf4:	8fb3001c 	lw	s3,28(sp)
    6cf8:	8fb20018 	lw	s2,24(sp)
    6cfc:	8fb10014 	lw	s1,20(sp)
    6d00:	8fb00010 	lw	s0,16(sp)
    6d04:	03e00008 	jr	ra
    6d08:	27bd0028 	addiu	sp,sp,40
    6d0c:	10cc001a 	beq	a2,t4,0x6d78
    6d10:	240d0004 	li	t5,4
    6d14:	14cdffd0 	bne	a2,t5,0x6c58
    6d18:	26390001 	addiu	t9,s1,1
    6d1c:	308effff 	andi	t6,a0,0xffff
    6d20:	000e19c0 	sll	v1,t6,0x7
    6d24:	8f4401b8 	lw	a0,440(k0)
    6d28:	0480fffe 	bltz	a0,0x6d24
    6d2c:	3c0f1000 	lui	t7,0x1000
    6d30:	3c102004 	lui	s0,0x2004
    6d34:	af430180 	sw	v1,384(k0)
    6d38:	af400184 	sw	zero,388(k0)
    6d3c:	af500188 	sw	s0,392(k0)
    6d40:	af4f01b8 	sw	t7,440(k0)
    6d44:	0a0007ad 	j	0x8001eb4
    6d48:	26390001 	addiu	t9,s1,1
    6d4c:	0e0006f2 	jal	0x8001bc8
    6d50:	24040084 	li	a0,132
    6d54:	1600ffbf 	bnez	s0,0x6c54
    6d58:	8f87001c 	lw	a3,28(gp)
    6d5c:	0a0007ac 	j	0x8001eb0
    6d60:	af80003c 	sw	zero,60(gp)
    6d64:	02002821 	move	a1,s0
    6d68:	0e000700 	jal	0x8001c00
    6d6c:	00002021 	move	a0,zero
    6d70:	0a0007cb 	j	0x8001f2c
    6d74:	8f87001c 	lw	a3,28(gp)
    6d78:	0e000740 	jal	0x8001d00
    6d7c:	02002021 	move	a0,s0
    6d80:	8f87001c 	lw	a3,28(gp)
    6d84:	0a0007cc 	j	0x8001f30
    6d88:	af82003c 	sw	v0,60(gp)
    6d8c:	3082ffff 	andi	v0,a0,0xffff
    6d90:	14400003 	bnez	v0,0x6da0
    6d94:	00001821 	move	v1,zero
    6d98:	00042402 	srl	a0,a0,0x10
    6d9c:	24030010 	li	v1,16
    6da0:	308500ff 	andi	a1,a0,0xff
    6da4:	14a00005 	bnez	a1,0x6dbc
    6da8:	3087000f 	andi	a3,a0,0xf
    6dac:	24660008 	addiu	a2,v1,8
    6db0:	00042202 	srl	a0,a0,0x8
    6db4:	30c300ff 	andi	v1,a2,0xff
    6db8:	3087000f 	andi	a3,a0,0xf
    6dbc:	14e00005 	bnez	a3,0x6dd4
    6dc0:	30890003 	andi	t1,a0,0x3
    6dc4:	24680004 	addiu	t0,v1,4
    6dc8:	00042102 	srl	a0,a0,0x4
    6dcc:	310300ff 	andi	v1,t0,0xff
    6dd0:	30890003 	andi	t1,a0,0x3
    6dd4:	15200005 	bnez	t1,0x6dec
    6dd8:	388b0001 	xori	t3,a0,0x1
    6ddc:	246a0002 	addiu	t2,v1,2
    6de0:	00042082 	srl	a0,a0,0x2
    6de4:	314300ff 	andi	v1,t2,0xff
    6de8:	388b0001 	xori	t3,a0,0x1
    6dec:	31640001 	andi	a0,t3,0x1
    6df0:	10800002 	beqz	a0,0x6dfc
    6df4:	246c0001 	addiu	t4,v1,1
    6df8:	318300ff 	andi	v1,t4,0xff
    6dfc:	03e00008 	jr	ra
    6e00:	00601021 	move	v0,v1
    6e04:	308bffff 	andi	t3,a0,0xffff
    6e08:	000b3942 	srl	a3,t3,0x5
    6e0c:	30e600ff 	andi	a2,a3,0xff
    6e10:	3c090800 	lui	t1,0x800
    6e14:	25295bb8 	addiu	t1,t1,23480
    6e18:	00064080 	sll	t0,a2,0x2
    6e1c:	01096021 	addu	t4,t0,t1
    6e20:	8d870000 	lw	a3,0(t4)
    6e24:	3164001f 	andi	a0,t3,0x1f
    6e28:	240a0001 	li	t2,1
    6e2c:	008a1804 	sllv	v1,t2,a0
    6e30:	30a500ff 	andi	a1,a1,0xff
    6e34:	00e32025 	or	a0,a3,v1
    6e38:	14a00002 	bnez	a1,0x6e44
    6e3c:	00031027 	nor	v0,zero,v1
    6e40:	00e22024 	and	a0,a3,v0
    6e44:	240f0001 	li	t7,1
    6e48:	00cf7004 	sllv	t6,t7,a2
    6e4c:	01096821 	addu	t5,t0,t1
    6e50:	000e2827 	nor	a1,zero,t6
    6e54:	14800005 	bnez	a0,0x6e6c
    6e58:	ada40000 	sw	a0,0(t5)
    6e5c:	8f86000c 	lw	a2,12(gp)
    6e60:	00a61024 	and	v0,a1,a2
    6e64:	03e00008 	jr	ra
    6e68:	af82000c 	sw	v0,12(gp)
    6e6c:	8f88000c 	lw	t0,12(gp)
    6e70:	01c81025 	or	v0,t6,t0
    6e74:	03e00008 	jr	ra
    6e78:	af82000c 	sw	v0,12(gp)
    6e7c:	3c06001f 	lui	a2,0x1f
    6e80:	3c036000 	lui	v1,0x6000
    6e84:	3084ffff 	andi	a0,a0,0xffff
    6e88:	34c5ff80 	ori	a1,a2,0xff80
    6e8c:	24020020 	li	v0,32
    6e90:	ac602008 	sw	zero,8200(v1)
    6e94:	ac60200c 	sw	zero,8204(v1)
    6e98:	ac602010 	sw	zero,8208(v1)
    6e9c:	ac652014 	sw	a1,8212(v1)
    6ea0:	ac642018 	sw	a0,8216(v1)
    6ea4:	ac622000 	sw	v0,8192(v1)
	...
    6eb0:	03e00008 	jr	ra
    6eb4:	00000000 	nop
    6eb8:	27bdffe8 	addiu	sp,sp,-24
    6ebc:	2402ffff 	li	v0,-1
    6ec0:	afbf0010 	sw	ra,16(sp)
    6ec4:	af82000c 	sw	v0,12(gp)
    6ec8:	00002021 	move	a0,zero
    6ecc:	3c060800 	lui	a2,0x800
    6ed0:	24c65bb8 	addiu	a2,a2,23480
    6ed4:	2405ffff 	li	a1,-1
    6ed8:	24890001 	addiu	t1,a0,1
    6edc:	00044080 	sll	t0,a0,0x2
    6ee0:	3124ffff 	andi	a0,t1,0xffff
    6ee4:	01061821 	addu	v1,t0,a2
    6ee8:	2c870020 	sltiu	a3,a0,32
    6eec:	14e0fffa 	bnez	a3,0x6ed8
    6ef0:	ac650000 	sw	a1,0(v1)
    6ef4:	0e000836 	jal	0x80020d8
    6ef8:	00002021 	move	a0,zero
    6efc:	24020001 	li	v0,1
    6f00:	3c046000 	lui	a0,0x6000
    6f04:	24050020 	li	a1,32
    6f08:	ac822018 	sw	v0,8216(a0)
    6f0c:	ac852000 	sw	a1,8192(a0)
	...
    6f1c:	244a0001 	addiu	t2,v0,1
    6f20:	3142ffff 	andi	v0,t2,0xffff
    6f24:	2c460400 	sltiu	a2,v0,1024
    6f28:	14c0fff7 	bnez	a2,0x6f08
    6f2c:	8fbf0010 	lw	ra,16(sp)
    6f30:	03e00008 	jr	ra
    6f34:	27bd0018 	addiu	sp,sp,24
    6f38:	8f830008 	lw	v1,8(gp)
    6f3c:	2c620400 	sltiu	v0,v1,1024
    6f40:	03e00008 	jr	ra
    6f44:	38420001 	xori	v0,v0,0x1
    6f48:	8f830008 	lw	v1,8(gp)
    6f4c:	24620001 	addiu	v0,v1,1
    6f50:	03e00008 	jr	ra
    6f54:	af820008 	sw	v0,8(gp)
    6f58:	8f830008 	lw	v1,8(gp)
    6f5c:	2462ffff 	addiu	v0,v1,-1
    6f60:	03e00008 	jr	ra
    6f64:	af820008 	sw	v0,8(gp)
    6f68:	27bdffe0 	addiu	sp,sp,-32
    6f6c:	afb10014 	sw	s1,20(sp)
    6f70:	afbf0018 	sw	ra,24(sp)
    6f74:	afb00010 	sw	s0,16(sp)
    6f78:	8f6b0030 	lw	t3,48(k1)
    6f7c:	3c066000 	lui	a2,0x6000
    6f80:	00808821 	move	s1,a0
    6f84:	accb2008 	sw	t3,8200(a2)
    6f88:	8f6a002c 	lw	t2,44(k1)
    6f8c:	3c028000 	lui	v0,0x8000
    6f90:	24030008 	li	v1,8
    6f94:	acca200c 	sw	t2,8204(a2)
    6f98:	9769003a 	lhu	t1,58(k1)
    6f9c:	97680038 	lhu	t0,56(k1)
    6fa0:	00092c00 	sll	a1,t1,0x10
    6fa4:	3107ffff 	andi	a3,t0,0xffff
    6fa8:	00a72025 	or	a0,a1,a3
    6fac:	acc42010 	sw	a0,8208(a2)
    6fb0:	acc22014 	sw	v0,8212(a2)
    6fb4:	acc32000 	sw	v1,8192(a2)
	...
    6fc4:	3c036000 	lui	v1,0x6000
    6fc8:	8c6d2000 	lw	t5,8192(v1)
    6fcc:	31ac0008 	andi	t4,t5,0x8
    6fd0:	1580fff9 	bnez	t4,0x6fb8
    6fd4:	00000000 	nop
    6fd8:	8c6e2014 	lw	t6,8212(v1)
    6fdc:	05c00020 	bltz	t6,0x7060
    6fe0:	00000000 	nop
    6fe4:	0e0007fa 	jal	0x8001fe8
    6fe8:	8f84000c 	lw	a0,12(gp)
    6fec:	00024080 	sll	t0,v0,0x2
    6ff0:	3c090800 	lui	t1,0x800
    6ff4:	25295bb8 	addiu	t1,t1,23480
    6ff8:	01093821 	addu	a3,t0,t1
    6ffc:	8ce40000 	lw	a0,0(a3)
    7000:	0e0007fa 	jal	0x8001fe8
    7004:	00028140 	sll	s0,v0,0x5
    7008:	02022021 	addu	a0,s0,v0
    700c:	3090ffff 	andi	s0,a0,0xffff
    7010:	02002021 	move	a0,s0
    7014:	0e000818 	jal	0x8002060
    7018:	00002821 	move	a1,zero
    701c:	3c0c8000 	lui	t4,0x8000
    7020:	022c5825 	or	t3,s1,t4
    7024:	3210ffff 	andi	s0,s0,0xffff
    7028:	3c116000 	lui	s1,0x6000
    702c:	240a0020 	li	t2,32
    7030:	ae2b2014 	sw	t3,8212(s1)
    7034:	ae302018 	sw	s0,8216(s1)
    7038:	ae2a2000 	sw	t2,8192(s1)
	...
    7048:	02001021 	move	v0,s0
    704c:	8fbf0018 	lw	ra,24(sp)
    7050:	8fb10014 	lw	s1,20(sp)
    7054:	8fb00010 	lw	s0,16(sp)
    7058:	03e00008 	jr	ra
    705c:	27bd0020 	addiu	sp,sp,32
    7060:	8c662014 	lw	a2,8212(v1)
    7064:	3c02001f 	lui	v0,0x1f
    7068:	3443ff80 	ori	v1,v0,0xff80
    706c:	3c1fffe8 	lui	ra,0xffe8
    7070:	00c3c024 	and	t8,a2,v1
    7074:	37f90800 	ori	t9,ra,0x800
    7078:	03198021 	addu	s0,t8,t9
    707c:	001079c2 	srl	t7,s0,0x7
    7080:	3c0c8000 	lui	t4,0x8000
    7084:	022c5825 	or	t3,s1,t4
    7088:	31f0ffff 	andi	s0,t7,0xffff
    708c:	3c116000 	lui	s1,0x6000
    7090:	240a0020 	li	t2,32
    7094:	ae2b2014 	sw	t3,8212(s1)
    7098:	ae302018 	sw	s0,8216(s1)
    709c:	ae2a2000 	sw	t2,8192(s1)
	...
    70ac:	02001021 	move	v0,s0
    70b0:	8fbf0018 	lw	ra,24(sp)
    70b4:	8fb10014 	lw	s1,20(sp)
    70b8:	8fb00010 	lw	s0,16(sp)
    70bc:	03e00008 	jr	ra
    70c0:	27bd0020 	addiu	sp,sp,32
    70c4:	27bdffe8 	addiu	sp,sp,-24
    70c8:	afb00010 	sw	s0,16(sp)
    70cc:	3402ffff 	li	v0,0xffff
    70d0:	3090ffff 	andi	s0,a0,0xffff
    70d4:	afbf0014 	sw	ra,20(sp)
    70d8:	12020006 	beq	s0,v0,0x70f4
    70dc:	02002021 	move	a0,s0
    70e0:	0e000836 	jal	0x80020d8
    70e4:	00000000 	nop
    70e8:	02002021 	move	a0,s0
    70ec:	0e000818 	jal	0x8002060
    70f0:	24050001 	li	a1,1
    70f4:	8f840008 	lw	a0,8(gp)
    70f8:	8fbf0014 	lw	ra,20(sp)
    70fc:	8fb00010 	lw	s0,16(sp)
    7100:	2483ffff 	addiu	v1,a0,-1
    7104:	27bd0018 	addiu	sp,sp,24
    7108:	03e00008 	jr	ra
    710c:	af830008 	sw	v1,8(gp)
    7110:	000439c2 	srl	a3,a0,0x7
    7114:	30e6003f 	andi	a2,a3,0x3f
    7118:	00043b42 	srl	a3,a0,0xd
    711c:	00071840 	sll	v1,a3,0x1
    7120:	24021000 	li	v0,4096
    7124:	2cc40020 	sltiu	a0,a2,32
    7128:	24c8ffe0 	addiu	t0,a2,-32
    712c:	af42002c 	sw	v0,44(k0)
    7130:	24630001 	addiu	v1,v1,1
    7134:	14800003 	bnez	a0,0x7144
    7138:	30a900ff 	andi	t1,a1,0xff
    713c:	00071840 	sll	v1,a3,0x1
    7140:	310600ff 	andi	a2,t0,0xff
    7144:	00036080 	sll	t4,v1,0x2
    7148:	24080001 	li	t0,1
    714c:	019a5821 	addu	t3,t4,k0
    7150:	3c0a000e 	lui	t2,0xe
    7154:	00c82804 	sllv	a1,t0,a2
    7158:	016a3821 	addu	a3,t3,t2
    715c:	11200005 	beqz	t1,0x7174
    7160:	00053027 	nor	a2,zero,a1
    7164:	8ce90000 	lw	t1,0(a3)
    7168:	01253025 	or	a2,t1,a1
    716c:	03e00008 	jr	ra
    7170:	ace60000 	sw	a2,0(a3)
    7174:	8cee0000 	lw	t6,0(a3)
    7178:	01c66824 	and	t5,t6,a2
    717c:	03e00008 	jr	ra
    7180:	aced0000 	sw	t5,0(a3)
    7184:	27bdffe8 	addiu	sp,sp,-24
    7188:	afbf0014 	sw	ra,20(sp)
    718c:	afb00010 	sw	s0,16(sp)
    7190:	3c046000 	lui	a0,0x6000
    7194:	8c850808 	lw	a1,2056(a0)
    7198:	3403f000 	li	v1,0xf000
    719c:	30a2f000 	andi	v0,a1,0xf000
    71a0:	50430006 	beql	v0,v1,0x71bc
    71a4:	24020001 	li	v0,1
    71a8:	8c870808 	lw	a3,2056(a0)
    71ac:	3404e000 	li	a0,0xe000
    71b0:	30e6f000 	andi	a2,a3,0xf000
    71b4:	10c4001e 	beq	a2,a0,0x7230
    71b8:	24020002 	li	v0,2
    71bc:	af820040 	sw	v0,64(gp)
    71c0:	3c106000 	lui	s0,0x6000
    71c4:	3c0a0200 	lui	t2,0x200
    71c8:	ae0a0814 	sw	t2,2068(s0)
    71cc:	24091000 	li	t1,4096
    71d0:	3c08000e 	lui	t0,0xe
    71d4:	8e034400 	lw	v1,17408(s0)
    71d8:	03482021 	addu	a0,k0,t0
    71dc:	af49002c 	sw	t1,44(k0)
    71e0:	24050120 	li	a1,288
    71e4:	0e000ce0 	jal	0x8003380
    71e8:	00003021 	move	a2,zero
    71ec:	8f830040 	lw	v1,64(gp)
    71f0:	10600004 	beqz	v1,0x7204
    71f4:	3c021691 	lui	v0,0x1691
    71f8:	240b0001 	li	t3,1
    71fc:	106b000e 	beq	v1,t3,0x7238
    7200:	3c023d6c 	lui	v0,0x3d6c
    7204:	344f0090 	ori	t7,v0,0x90
    7208:	ae0f4408 	sw	t7,17416(s0)
    720c:	8fbf0014 	lw	ra,20(sp)
    7210:	8fb00010 	lw	s0,16(sp)
    7214:	3c0c6000 	lui	t4,0x6000
    7218:	240e1000 	li	t6,4096
    721c:	3c0d0200 	lui	t5,0x200
    7220:	27bd0018 	addiu	sp,sp,24
    7224:	ad8e4420 	sw	t6,17440(t4)
    7228:	03e00008 	jr	ra
    722c:	ad8d0810 	sw	t5,2064(t4)
    7230:	0a000907 	j	0x800241c
    7234:	af800040 	sw	zero,64(gp)
    7238:	3c0218da 	lui	v0,0x18da
    723c:	344f0090 	ori	t7,v0,0x90
    7240:	ae0f4408 	sw	t7,17416(s0)
    7244:	8fbf0014 	lw	ra,20(sp)
    7248:	8fb00010 	lw	s0,16(sp)
    724c:	3c0c6000 	lui	t4,0x6000
    7250:	240e1000 	li	t6,4096
    7254:	3c0d0200 	lui	t5,0x200
    7258:	27bd0018 	addiu	sp,sp,24
    725c:	ad8e4420 	sw	t6,17440(t4)
    7260:	03e00008 	jr	ra
    7264:	ad8d0810 	sw	t5,2064(t4)
    7268:	0a0008db 	j	0x800236c
    726c:	24050001 	li	a1,1
    7270:	0a0008db 	j	0x800236c
    7274:	00002821 	move	a1,zero
    7278:	3c080800 	lui	t0,0x800
    727c:	25085fc4 	addiu	t0,t0,24516
    7280:	2404ffff 	li	a0,-1
    7284:	01001821 	move	v1,t0
    7288:	2402001e 	li	v0,30
    728c:	2442ffff 	addiu	v0,v0,-1
    7290:	ac640000 	sw	a0,0(v1)
    7294:	0441fffd 	bgez	v0,0x728c
    7298:	24630004 	addiu	v1,v1,4
    729c:	3c070800 	lui	a3,0x800
    72a0:	24e76040 	addiu	a3,a3,24640
    72a4:	8ce5fffc 	lw	a1,-4(a3)
    72a8:	2404001c 	li	a0,28
    72ac:	24060001 	li	a2,1
    72b0:	308a001f 	andi	t2,a0,0x1f
    72b4:	01464804 	sllv	t1,a2,t2
    72b8:	24840001 	addiu	a0,a0,1
    72bc:	00091027 	nor	v0,zero,t1
    72c0:	2c830020 	sltiu	v1,a0,32
    72c4:	1460fffa 	bnez	v1,0x72b0
    72c8:	00a22824 	and	a1,a1,v0
    72cc:	ace5fffc 	sw	a1,-4(a3)
    72d0:	3c056666 	lui	a1,0x6666
    72d4:	34a4616e 	ori	a0,a1,0x616e
    72d8:	3c060800 	lui	a2,0x800
    72dc:	24c66100 	addiu	a2,a2,24832
    72e0:	af840058 	sw	a0,88(gp)
    72e4:	af88009c 	sw	t0,156(gp)
    72e8:	2404ffff 	li	a0,-1
    72ec:	00c01821 	move	v1,a2
    72f0:	2402001f 	li	v0,31
    72f4:	2442ffff 	addiu	v0,v0,-1
    72f8:	ac640000 	sw	a0,0(v1)
    72fc:	0441fffd 	bgez	v0,0x72f4
    7300:	24630004 	addiu	v1,v1,4
    7304:	3c076666 	lui	a3,0x6666
    7308:	3c050800 	lui	a1,0x800
    730c:	24a560c0 	addiu	a1,a1,24768
    7310:	af860048 	sw	a2,72(gp)
    7314:	34e6616e 	ori	a2,a3,0x616e
    7318:	af860098 	sw	a2,152(gp)
    731c:	2404ffff 	li	a0,-1
    7320:	00a01821 	move	v1,a1
    7324:	2402000f 	li	v0,15
    7328:	2442ffff 	addiu	v0,v0,-1
    732c:	ac640000 	sw	a0,0(v1)
    7330:	0441fffd 	bgez	v0,0x7328
    7334:	24630004 	addiu	v1,v1,4
    7338:	3c0b6666 	lui	t3,0x6666
    733c:	3c060800 	lui	a2,0x800
    7340:	24c66040 	addiu	a2,a2,24640
    7344:	3568616e 	ori	t0,t3,0x616e
    7348:	af8500a4 	sw	a1,164(gp)
    734c:	af880070 	sw	t0,112(gp)
    7350:	2404ffff 	li	a0,-1
    7354:	00c01821 	move	v1,a2
    7358:	2402001f 	li	v0,31
    735c:	2442ffff 	addiu	v0,v0,-1
    7360:	ac640000 	sw	a0,0(v1)
    7364:	0441fffd 	bgez	v0,0x735c
    7368:	24630004 	addiu	v1,v1,4
    736c:	3c0d6666 	lui	t5,0x6666
    7370:	3c0a0800 	lui	t2,0x800
    7374:	254a6180 	addiu	t2,t2,24960
    7378:	35ac616e 	ori	t4,t5,0x616e
    737c:	af860090 	sw	a2,144(gp)
    7380:	af8c005c 	sw	t4,92(gp)
    7384:	2404ffff 	li	a0,-1
    7388:	01401821 	move	v1,t2
    738c:	24020003 	li	v0,3
    7390:	2442ffff 	addiu	v0,v0,-1
    7394:	ac640000 	sw	a0,0(v1)
    7398:	0441fffd 	bgez	v0,0x7390
    739c:	24630004 	addiu	v1,v1,4
    73a0:	3c090800 	lui	t1,0x800
    73a4:	25296190 	addiu	t1,t1,24976
    73a8:	8d27fffc 	lw	a3,-4(t1)
    73ac:	24040006 	li	a0,6
    73b0:	24050001 	li	a1,1
    73b4:	3099001f 	andi	t9,a0,0x1f
    73b8:	0325c004 	sllv	t8,a1,t9
    73bc:	24840001 	addiu	a0,a0,1
    73c0:	00187827 	nor	t7,zero,t8
    73c4:	2c8e0020 	sltiu	t6,a0,32
    73c8:	15c0fffa 	bnez	t6,0x73b4
    73cc:	00ef3824 	and	a3,a3,t7
    73d0:	ad27fffc 	sw	a3,-4(t1)
    73d4:	3c096666 	lui	t1,0x6666
    73d8:	24030400 	li	v1,1024
    73dc:	240403dc 	li	a0,988
    73e0:	24050200 	li	a1,512
    73e4:	24060066 	li	a2,102
    73e8:	3522616e 	ori	v0,t1,0x616e
    73ec:	3c080800 	lui	t0,0x800
    73f0:	25085cc4 	addiu	t0,t0,23748
    73f4:	af820074 	sw	v0,116(gp)
    73f8:	af830044 	sw	v1,68(gp)
    73fc:	af83006c 	sw	v1,108(gp)
    7400:	af830050 	sw	v1,80(gp)
    7404:	af830084 	sw	v1,132(gp)
    7408:	af8a008c 	sw	t2,140(gp)
    740c:	af840064 	sw	a0,100(gp)
    7410:	af85004c 	sw	a1,76(gp)
    7414:	af860054 	sw	a2,84(gp)
    7418:	af840078 	sw	a0,120(gp)
    741c:	af850060 	sw	a1,96(gp)
    7420:	af860080 	sw	a2,128(gp)
    7424:	01001821 	move	v1,t0
    7428:	24020002 	li	v0,2
    742c:	2442ffff 	addiu	v0,v0,-1
    7430:	ac600000 	sw	zero,0(v1)
    7434:	0441fffd 	bgez	v0,0x742c
    7438:	24630004 	addiu	v1,v1,4
    743c:	24040003 	li	a0,3
    7440:	2403000c 	li	v1,12
    7444:	3c0a0800 	lui	t2,0x800
    7448:	254a5cd0 	addiu	t2,t2,23760
    744c:	af8a0068 	sw	t2,104(gp)
    7450:	0a0009ae 	j	0x80026b8
    7454:	2405ffff 	li	a1,-1
    7458:	00041880 	sll	v1,a0,0x2
    745c:	24840001 	addiu	a0,a0,1
    7460:	00685821 	addu	t3,v1,t0
    7464:	2c8700c0 	sltiu	a3,a0,192
    7468:	14e0fffb 	bnez	a3,0x7458
    746c:	ad650000 	sw	a1,0(t3)
    7470:	3c0e6666 	lui	t6,0x6666
    7474:	35cd616e 	ori	t5,t6,0x616e
    7478:	240c17a0 	li	t4,6048
    747c:	24081800 	li	t0,6144
    7480:	af8d0088 	sw	t5,136(gp)
    7484:	af8c0094 	sw	t4,148(gp)
    7488:	03e00008 	jr	ra
    748c:	af88007c 	sw	t0,124(gp)
    7490:	2484007f 	addiu	a0,a0,127
    7494:	000421c2 	srl	a0,a0,0x7
    7498:	00004021 	move	t0,zero
    749c:	00003021 	move	a2,zero
    74a0:	00003821 	move	a3,zero
    74a4:	00002821 	move	a1,zero
    74a8:	0a0009c5 	j	0x8002714
    74ac:	af8400a0 	sw	a0,160(gp)
    74b0:	10600006 	beqz	v1,0x74cc
    74b4:	24e70001 	addiu	a3,a3,1
    74b8:	00c43021 	addu	a2,a2,a0
    74bc:	24a50001 	addiu	a1,a1,1
    74c0:	2cc20bf5 	sltiu	v0,a2,3061
    74c4:	1440fffa 	bnez	v0,0x74b0
    74c8:	2ca30066 	sltiu	v1,a1,102
    74cc:	3c090800 	lui	t1,0x800
    74d0:	25296180 	addiu	t1,t1,24960
    74d4:	01201821 	move	v1,t1
    74d8:	24020003 	li	v0,3
    74dc:	2442ffff 	addiu	v0,v0,-1
    74e0:	ac600000 	sw	zero,0(v1)
    74e4:	0441fffd 	bgez	v0,0x74dc
    74e8:	24630004 	addiu	v1,v1,4
    74ec:	10e0001a 	beqz	a3,0x7558
    74f0:	24e3ffff 	addiu	v1,a3,-1
    74f4:	00032942 	srl	a1,v1,0x5
    74f8:	10a0000a 	beqz	a1,0x7524
    74fc:	00002021 	move	a0,zero
    7500:	2406ffff 	li	a2,-1
    7504:	3c030800 	lui	v1,0x800
    7508:	24636180 	addiu	v1,v1,24960
    750c:	24840001 	addiu	a0,a0,1
    7510:	0085502b 	sltu	t2,a0,a1
    7514:	ac660000 	sw	a2,0(v1)
    7518:	25080001 	addiu	t0,t0,1
    751c:	1540fffb 	bnez	t2,0x750c
    7520:	24630004 	addiu	v1,v1,4
    7524:	30e2001f 	andi	v0,a3,0x1f
    7528:	10400008 	beqz	v0,0x754c
    752c:	00086880 	sll	t5,t0,0x2
    7530:	240c0001 	li	t4,1
    7534:	004c3804 	sllv	a3,t4,v0
    7538:	00085880 	sll	t3,t0,0x2
    753c:	01692821 	addu	a1,t3,t1
    7540:	24e6ffff 	addiu	a2,a3,-1
    7544:	03e00008 	jr	ra
    7548:	aca60000 	sw	a2,0(a1)
    754c:	01a94021 	addu	t0,t5,t1
    7550:	2409ffff 	li	t1,-1
    7554:	ad090000 	sw	t1,0(t0)
    7558:	03e00008 	jr	ra
    755c:	00000000 	nop
    7560:	af440028 	sw	a0,40(k0)
    7564:	3c04000c 	lui	a0,0xc
    7568:	03442021 	addu	a0,k0,a0
    756c:	00052882 	srl	a1,a1,0x2
    7570:	0a000ce0 	j	0x8003380
    7574:	00003021 	move	a2,zero
    7578:	00042180 	sll	a0,a0,0x6
    757c:	3c036000 	lui	v1,0x6000
    7580:	ac641008 	sw	a0,4104(v1)
    7584:	00000000 	nop
    7588:	00052980 	sll	a1,a1,0x6
    758c:	ac65100c 	sw	a1,4108(v1)
    7590:	00000000 	nop
    7594:	03e00008 	jr	ra
    7598:	8c62100c 	lw	v0,4108(v1)
    759c:	27bdffe8 	addiu	sp,sp,-24
    75a0:	00802821 	move	a1,a0
    75a4:	24040038 	li	a0,56
    75a8:	afbf0014 	sw	ra,20(sp)
    75ac:	0e0009f5 	jal	0x80027d4
    75b0:	afb00010 	sw	s0,16(sp)
    75b4:	24040e00 	li	a0,3584
    75b8:	af440028 	sw	a0,40(k0)
    75bc:	3c10000c 	lui	s0,0xc
    75c0:	03502021 	addu	a0,k0,s0
    75c4:	24050010 	li	a1,16
    75c8:	0e000ce0 	jal	0x8003380
    75cc:	00003021 	move	a2,zero
    75d0:	03501021 	addu	v0,k0,s0
    75d4:	ac400000 	sw	zero,0(v0)
    75d8:	ac400004 	sw	zero,4(v0)
    75dc:	24040038 	li	a0,56
    75e0:	8fbf0014 	lw	ra,20(sp)
    75e4:	8fb00010 	lw	s0,16(sp)
    75e8:	24053fff 	li	a1,16383
    75ec:	27bd0018 	addiu	sp,sp,24
    75f0:	0a0009f5 	j	0x80027d4
    75f4:	8c430000 	lw	v1,0(v0)
    75f8:	00042180 	sll	a0,a0,0x6
    75fc:	3c036000 	lui	v1,0x6000
    7600:	ac641008 	sw	a0,4104(v1)
    7604:	00000000 	nop
    7608:	8c62100c 	lw	v0,4108(v1)
    760c:	03e00008 	jr	ra
    7610:	00021182 	srl	v0,v0,0x6
    7614:	27bdffc8 	addiu	sp,sp,-56
    7618:	afb40020 	sw	s4,32(sp)
    761c:	8f940068 	lw	s4,104(gp)
    7620:	afbe0030 	sw	s8,48(sp)
    7624:	afb7002c 	sw	s7,44(sp)
    7628:	afb60028 	sw	s6,40(sp)
    762c:	0000b821 	move	s7,zero
    7630:	0080b021 	move	s6,a0
    7634:	241e00c0 	li	s8,192
    7638:	afbf0034 	sw	ra,52(sp)
    763c:	afb50024 	sw	s5,36(sp)
    7640:	afb3001c 	sw	s3,28(sp)
    7644:	afb20018 	sw	s2,24(sp)
    7648:	afb10014 	sw	s1,20(sp)
    764c:	afb00010 	sw	s0,16(sp)
    7650:	0a000a32 	j	0x80028c8
    7654:	afa5003c 	sw	a1,60(sp)
    7658:	50400001 	beqzl	v0,0x7660
    765c:	8f940068 	lw	s4,104(gp)
    7660:	27deffff 	addiu	s8,s8,-1
    7664:	13c00028 	beqz	s8,0x7708
    7668:	26940004 	addiu	s4,s4,4
    766c:	8e920000 	lw	s2,0(s4)
    7670:	3c030800 	lui	v1,0x800
    7674:	24635fc0 	addiu	v1,v1,24512
    7678:	1240fff7 	beqz	s2,0x7658
    767c:	0283102b 	sltu	v0,s4,v1
    7680:	3c040800 	lui	a0,0x800
    7684:	24845cc4 	addiu	a0,a0,23748
    7688:	02841023 	subu	v0,s4,a0
    768c:	0002a8c0 	sll	s5,v0,0x3
    7690:	00009821 	move	s3,zero
    7694:	0a000a41 	j	0x8002904
    7698:	24110001 	li	s1,1
    769c:	00118840 	sll	s1,s1,0x1
    76a0:	12200026 	beqz	s1,0x773c
    76a4:	00000000 	nop
    76a8:	02b38021 	addu	s0,s5,s3
    76ac:	02512824 	and	a1,s2,s1
    76b0:	02002021 	move	a0,s0
    76b4:	10a0fff9 	beqz	a1,0x769c
    76b8:	26730001 	addiu	s3,s3,1
    76bc:	0e0009fe 	jal	0x80027f8
    76c0:	00000000 	nop
    76c4:	00166840 	sll	t5,s6,0x1
    76c8:	32ec0001 	andi	t4,s7,0x1
    76cc:	01ac2021 	addu	a0,t5,t4
    76d0:	0e0009f5 	jal	0x80027d4
    76d4:	02002821 	move	a1,s0
    76d8:	8f890094 	lw	t1,148(gp)
    76dc:	26f70001 	addiu	s7,s7,1
    76e0:	8fa6003c 	lw	a2,60(sp)
    76e4:	3aeb0001 	xori	t3,s7,0x1
    76e8:	316a0001 	andi	t2,t3,0x1
    76ec:	2528ffff 	addiu	t0,t1,-1
    76f0:	00113827 	nor	a3,zero,s1
    76f4:	02cab021 	addu	s6,s6,t2
    76f8:	af880094 	sw	t0,148(gp)
    76fc:	16e6ffe7 	bne	s7,a2,0x769c
    7700:	02479024 	and	s2,s2,a3
    7704:	ae920000 	sw	s2,0(s4)
    7708:	02e01021 	move	v0,s7
    770c:	8fbf0034 	lw	ra,52(sp)
    7710:	8fbe0030 	lw	s8,48(sp)
    7714:	8fb7002c 	lw	s7,44(sp)
    7718:	8fb60028 	lw	s6,40(sp)
    771c:	8fb50024 	lw	s5,36(sp)
    7720:	8fb40020 	lw	s4,32(sp)
    7724:	8fb3001c 	lw	s3,28(sp)
    7728:	8fb20018 	lw	s2,24(sp)
    772c:	8fb10014 	lw	s1,20(sp)
    7730:	8fb00010 	lw	s0,16(sp)
    7734:	03e00008 	jr	ra
    7738:	27bd0038 	addiu	sp,sp,56
    773c:	3c0e0800 	lui	t6,0x800
    7740:	25ce5fc0 	addiu	t6,t6,24512
    7744:	028e102b 	sltu	v0,s4,t6
    7748:	0a000a2d 	j	0x80028b4
    774c:	ae920000 	sw	s2,0(s4)
    7750:	27bdffd8 	addiu	sp,sp,-40
    7754:	afb10014 	sw	s1,20(sp)
    7758:	afb00010 	sw	s0,16(sp)
    775c:	afbf0020 	sw	ra,32(sp)
    7760:	afb3001c 	sw	s3,28(sp)
    7764:	afb20018 	sw	s2,24(sp)
    7768:	00a08821 	move	s1,a1
    776c:	10a0001f 	beqz	a1,0x77ec
    7770:	00048040 	sll	s0,a0,0x1
    7774:	3c130800 	lui	s3,0x800
    7778:	26735cc4 	addiu	s3,s3,23748
    777c:	0a000a7a 	j	0x80029e8
    7780:	24120001 	li	s2,1
    7784:	12200019 	beqz	s1,0x77ec
    7788:	26100001 	addiu	s0,s0,1
    778c:	0e000a15 	jal	0x8002854
    7790:	02002021 	move	a0,s0
    7794:	00023142 	srl	a2,v0,0x5
    7798:	2444ffa0 	addiu	a0,v0,-96
    779c:	00061880 	sll	v1,a2,0x2
    77a0:	3045001f 	andi	a1,v0,0x1f
    77a4:	2c8217a1 	sltiu	v0,a0,6049
    77a8:	00731821 	addu	v1,v1,s3
    77ac:	2631ffff 	addiu	s1,s1,-1
    77b0:	1040fff4 	beqz	v0,0x7784
    77b4:	00b23004 	sllv	a2,s2,a1
    77b8:	8c690000 	lw	t1,0(v1)
    77bc:	02002021 	move	a0,s0
    77c0:	24053fff 	li	a1,16383
    77c4:	01264024 	and	t0,t1,a2
    77c8:	1500ffee 	bnez	t0,0x7784
    77cc:	01263825 	or	a3,t1,a2
    77d0:	0e0009f5 	jal	0x80027d4
    77d4:	ac670000 	sw	a3,0(v1)
    77d8:	8f8a0094 	lw	t2,148(gp)
    77dc:	26100001 	addiu	s0,s0,1
    77e0:	25470001 	addiu	a3,t2,1
    77e4:	1620ffe9 	bnez	s1,0x778c
    77e8:	af870094 	sw	a3,148(gp)
    77ec:	8fbf0020 	lw	ra,32(sp)
    77f0:	8fb3001c 	lw	s3,28(sp)
    77f4:	8fb20018 	lw	s2,24(sp)
    77f8:	8fb10014 	lw	s1,20(sp)
    77fc:	8fb00010 	lw	s0,16(sp)
    7800:	03e00008 	jr	ra
    7804:	27bd0028 	addiu	sp,sp,40
    7808:	8f85009c 	lw	a1,156(gp)
    780c:	00805821 	move	t3,a0
    7810:	00004021 	move	t0,zero
    7814:	00004821 	move	t1,zero
    7818:	240a001f 	li	t2,31
    781c:	3c0c0800 	lui	t4,0x800
    7820:	258c603c 	addiu	t4,t4,24636
    7824:	3c0d0800 	lui	t5,0x800
    7828:	25ad5fc4 	addiu	t5,t5,24516
    782c:	8ca60000 	lw	a2,0(a1)
    7830:	50c00014 	beqzl	a2,0x7884
    7834:	00004021 	move	t0,zero
    7838:	00ad1023 	subu	v0,a1,t5
    783c:	000238c0 	sll	a3,v0,0x3
    7840:	24030001 	li	v1,1
    7844:	0a000ab3 	j	0x8002acc
    7848:	00002021 	move	a0,zero
    784c:	15000003 	bnez	t0,0x785c
    7850:	00e41021 	addu	v0,a3,a0
    7854:	24482024 	addiu	t0,v0,8228
    7858:	00004821 	move	t1,zero
    785c:	25290001 	addiu	t1,t1,1
    7860:	512b0013 	beql	t1,t3,0x78b0
    7864:	2506dfdc 	addiu	a2,t0,-8228
    7868:	10600006 	beqz	v1,0x7884
    786c:	24840001 	addiu	a0,a0,1
    7870:	00c37024 	and	t6,a2,v1
    7874:	15c0fff5 	bnez	t6,0x784c
    7878:	00031840 	sll	v1,v1,0x1
    787c:	0a000ab1 	j	0x8002ac4
    7880:	00004021 	move	t0,zero
    7884:	10ac0026 	beq	a1,t4,0x7920
    7888:	24a30004 	addiu	v1,a1,4
    788c:	00602821 	move	a1,v1
    7890:	254affff 	addiu	t2,t2,-1
    7894:	1540ffe5 	bnez	t2,0x782c
    7898:	af85009c 	sw	a1,156(gp)
    789c:	512b0004 	beql	t1,t3,0x78b0
    78a0:	2506dfdc 	addiu	a2,t0,-8228
    78a4:	00004021 	move	t0,zero
    78a8:	03e00008 	jr	ra
    78ac:	01001021 	move	v0,t0
    78b0:	00066142 	srl	t4,a2,0x5
    78b4:	30c5001f 	andi	a1,a2,0x1f
    78b8:	000c5080 	sll	t2,t4,0x2
    78bc:	3c070800 	lui	a3,0x800
    78c0:	24e75fc4 	addiu	a3,a3,24516
    78c4:	24040001 	li	a0,1
    78c8:	01473021 	addu	a2,t2,a3
    78cc:	1120000f 	beqz	t1,0x790c
    78d0:	00a42004 	sllv	a0,a0,a1
    78d4:	3c050800 	lui	a1,0x800
    78d8:	24a56040 	addiu	a1,a1,24640
    78dc:	14800005 	bnez	a0,0x78f4
    78e0:	2529ffff 	addiu	t1,t1,-1
    78e4:	24c60004 	addiu	a2,a2,4
    78e8:	10c50011 	beq	a2,a1,0x7930
    78ec:	00000000 	nop
    78f0:	24040001 	li	a0,1
    78f4:	8ccf0000 	lw	t7,0(a2)
    78f8:	0004c027 	nor	t8,zero,a0
    78fc:	00042040 	sll	a0,a0,0x1
    7900:	01f86824 	and	t5,t7,t8
    7904:	1520fff5 	bnez	t1,0x78dc
    7908:	accd0000 	sw	t5,0(a2)
    790c:	8f990078 	lw	t9,120(gp)
    7910:	01001021 	move	v0,t0
    7914:	032b4823 	subu	t1,t9,t3
    7918:	03e00008 	jr	ra
    791c:	af890078 	sw	t1,120(gp)
    7920:	3c050800 	lui	a1,0x800
    7924:	24a55fc4 	addiu	a1,a1,24516
    7928:	0a000abb 	j	0x8002aec
    792c:	00004021 	move	t0,zero
    7930:	3c060800 	lui	a2,0x800
    7934:	24c65fc4 	addiu	a2,a2,24516
    7938:	0a000ad4 	j	0x8002b50
    793c:	24040001 	li	a0,1
    7940:	308800ff 	andi	t0,a0,0xff
    7944:	24020002 	li	v0,2
    7948:	1102000a 	beq	t0,v0,0x7974
    794c:	24030003 	li	v1,3
    7950:	1103005c 	beq	t0,v1,0x7ac4
    7954:	8f8900a4 	lw	t1,164(gp)
    7958:	24040004 	li	a0,4
    795c:	1104005f 	beq	t0,a0,0x7adc
    7960:	24050005 	li	a1,5
    7964:	11050067 	beq	t0,a1,0x7b04
    7968:	00001821 	move	v1,zero
    796c:	03e00008 	jr	ra
    7970:	00601021 	move	v0,v1
    7974:	8f890048 	lw	t1,72(gp)
    7978:	3c0c0800 	lui	t4,0x800
    797c:	258c6100 	addiu	t4,t4,24832
    7980:	3c040800 	lui	a0,0x800
    7984:	24846180 	addiu	a0,a0,24960
    7988:	24030020 	li	v1,32
    798c:	1060000f 	beqz	v1,0x79cc
    7990:	00005821 	move	t3,zero
    7994:	240d0002 	li	t5,2
    7998:	240e0003 	li	t6,3
    799c:	3c0f0800 	lui	t7,0x800
    79a0:	25ef6100 	addiu	t7,t7,24832
    79a4:	8d270000 	lw	a3,0(t1)
    79a8:	14e0000b 	bnez	a3,0x79d8
    79ac:	30f9ffff 	andi	t9,a3,0xffff
    79b0:	25290004 	addiu	t1,t1,4
    79b4:	0124c02b 	sltu	t8,t1,a0
    79b8:	53000001 	beqzl	t8,0x79c0
    79bc:	01804821 	move	t1,t4
    79c0:	2463ffff 	addiu	v1,v1,-1
    79c4:	5460fff8 	bnezl	v1,0x79a8
    79c8:	8d270000 	lw	a3,0(t1)
    79cc:	01601821 	move	v1,t3
    79d0:	03e00008 	jr	ra
    79d4:	00601021 	move	v0,v1
    79d8:	13200032 	beqz	t9,0x7aa4
    79dc:	3c0500ff 	lui	a1,0xff
    79e0:	30e200ff 	andi	v0,a3,0xff
    79e4:	00403021 	move	a2,v0
    79e8:	10400042 	beqz	v0,0x7af4
    79ec:	00005021 	move	t2,zero
    79f0:	24050001 	li	a1,1
    79f4:	00002021 	move	a0,zero
    79f8:	0005c840 	sll	t9,a1,0x1
    79fc:	00a6c024 	and	t8,a1,a2
    7a00:	17000003 	bnez	t8,0x7a10
    7a04:	332500ff 	andi	a1,t9,0xff
    7a08:	14a0fffb 	bnez	a1,0x79f8
    7a0c:	24840001 	addiu	a0,a0,1
    7a10:	012cc023 	subu	t8,t1,t4
    7a14:	001828c0 	sll	a1,t8,0x3
    7a18:	00aa6021 	addu	t4,a1,t2
    7a1c:	008c5021 	addu	t2,a0,t4
    7a20:	3144001f 	andi	a0,t2,0x1f
    7a24:	240c0001 	li	t4,1
    7a28:	008c1804 	sllv	v1,t4,a0
    7a2c:	00031027 	nor	v0,zero,v1
    7a30:	00e23024 	and	a2,a3,v0
    7a34:	110d0041 	beq	t0,t5,0x7b3c
    7a38:	ad260000 	sw	a2,0(t1)
    7a3c:	110e004c 	beq	t0,t6,0x7b70
    7a40:	000a1840 	sll	v1,t2,0x1
    7a44:	110d0036 	beq	t0,t5,0x7b20
    7a48:	8f87006c 	lw	a3,108(gp)
    7a4c:	510e0056 	beql	t0,t6,0x7ba8
    7a50:	8f8c0060 	lw	t4,96(gp)
    7a54:	240d0004 	li	t5,4
    7a58:	110d005a 	beq	t0,t5,0x7bc4
    7a5c:	8f8e0084 	lw	t6,132(gp)
    7a60:	240e0005 	li	t6,5
    7a64:	150effda 	bne	t0,t6,0x79d0
    7a68:	01601821 	move	v1,t3
    7a6c:	240b1430 	li	t3,5168
    7a70:	11400006 	beqz	t2,0x7a8c
    7a74:	00001821 	move	v1,zero
    7a78:	8f8400a0 	lw	a0,160(gp)
    7a7c:	24630001 	addiu	v1,v1,1
    7a80:	006a402b 	sltu	t0,v1,t2
    7a84:	1500fffd 	bnez	t0,0x7a7c
    7a88:	01645821 	addu	t3,t3,a0
    7a8c:	8f8a0080 	lw	t2,128(gp)
    7a90:	af89008c 	sw	t1,140(gp)
    7a94:	01601821 	move	v1,t3
    7a98:	2549ffff 	addiu	t1,t2,-1
    7a9c:	0a000b0b 	j	0x8002c2c
    7aa0:	af890080 	sw	t1,128(gp)
    7aa4:	00e52024 	and	a0,a3,a1
    7aa8:	00073602 	srl	a2,a3,0x18
    7aac:	1080ffd0 	beqz	a0,0x79f0
    7ab0:	240a0018 	li	t2,24
    7ab4:	00075402 	srl	t2,a3,0x10
    7ab8:	314600ff 	andi	a2,t2,0xff
    7abc:	0a000b13 	j	0x8002c4c
    7ac0:	240a0010 	li	t2,16
    7ac4:	3c0c0800 	lui	t4,0x800
    7ac8:	258c60c0 	addiu	t4,t4,24768
    7acc:	3c040800 	lui	a0,0x800
    7ad0:	24846100 	addiu	a0,a0,24832
    7ad4:	0a000afa 	j	0x8002be8
    7ad8:	24030010 	li	v1,16
    7adc:	3c0c0800 	lui	t4,0x800
    7ae0:	258c6040 	addiu	t4,t4,24640
    7ae4:	3c040800 	lui	a0,0x800
    7ae8:	248460c0 	addiu	a0,a0,24768
    7aec:	0a000af9 	j	0x8002be4
    7af0:	8f890090 	lw	t1,144(gp)
    7af4:	00071a02 	srl	v1,a3,0x8
    7af8:	306600ff 	andi	a2,v1,0xff
    7afc:	0a000b13 	j	0x8002c4c
    7b00:	240a0008 	li	t2,8
    7b04:	8f89008c 	lw	t1,140(gp)
    7b08:	3c0c0800 	lui	t4,0x800
    7b0c:	258c6180 	addiu	t4,t4,24960
    7b10:	3c040800 	lui	a0,0x800
    7b14:	24846190 	addiu	a0,a0,24976
    7b18:	0a000afa 	j	0x8002be8
    7b1c:	24030004 	li	v1,4
    7b20:	000a4080 	sll	t0,t2,0x2
    7b24:	250b0030 	addiu	t3,t0,48
    7b28:	24e6ffff 	addiu	a2,a3,-1
    7b2c:	01601821 	move	v1,t3
    7b30:	af890048 	sw	t1,72(gp)
    7b34:	0a000b0b 	j	0x8002c2c
    7b38:	af86006c 	sw	a2,108(gp)
    7b3c:	000ac982 	srl	t9,t2,0x6
    7b40:	00197880 	sll	t7,t9,0x2
    7b44:	3c070800 	lui	a3,0x800
    7b48:	24e760c0 	addiu	a3,a3,24768
    7b4c:	01e72021 	addu	a0,t7,a3
    7b50:	000a1842 	srl	v1,t2,0x1
    7b54:	8c8f0000 	lw	t7,0(a0)
    7b58:	3079001f 	andi	t9,v1,0x1f
    7b5c:	032c3804 	sllv	a3,t4,t9
    7b60:	0007c027 	nor	t8,zero,a3
    7b64:	01f86024 	and	t4,t7,t8
    7b68:	0a000b28 	j	0x8002ca0
    7b6c:	ac8c0000 	sw	t4,0(a0)
    7b70:	00033142 	srl	a2,v1,0x5
    7b74:	00062880 	sll	a1,a2,0x2
    7b78:	00af2821 	addu	a1,a1,t7
    7b7c:	3062001f 	andi	v0,v1,0x1f
    7b80:	8cb80000 	lw	t8,0(a1)
    7b84:	24630001 	addiu	v1,v1,1
    7b88:	004cc804 	sllv	t9,t4,v0
    7b8c:	00032142 	srl	a0,v1,0x5
    7b90:	00193827 	nor	a3,zero,t9
    7b94:	00041080 	sll	v0,a0,0x2
    7b98:	03073024 	and	a2,t8,a3
    7b9c:	004f2021 	addu	a0,v0,t7
    7ba0:	0a000b6c 	j	0x8002db0
    7ba4:	aca60000 	sw	a2,0(a1)
    7ba8:	000a68c0 	sll	t5,t2,0x3
    7bac:	25ab0032 	addiu	t3,t5,50
    7bb0:	258affff 	addiu	t2,t4,-1
    7bb4:	01601821 	move	v1,t3
    7bb8:	af8900a4 	sw	t1,164(gp)
    7bbc:	0a000b0b 	j	0x8002c2c
    7bc0:	af8a0060 	sw	t2,96(gp)
    7bc4:	254b1030 	addiu	t3,t2,4144
    7bc8:	af890090 	sw	t1,144(gp)
    7bcc:	01601821 	move	v1,t3
    7bd0:	25c9ffff 	addiu	t1,t6,-1
    7bd4:	0a000b0b 	j	0x8002c2c
    7bd8:	af890084 	sw	t1,132(gp)
    7bdc:	30860007 	andi	a2,a0,0x7
    7be0:	2cc20006 	sltiu	v0,a2,6
    7be4:	10400014 	beqz	v0,0x7c38
    7be8:	00000000 	nop
    7bec:	00064080 	sll	t0,a2,0x2
    7bf0:	3c030800 	lui	v1,0x800
    7bf4:	246359c8 	addiu	v1,v1,22984
    7bf8:	01033821 	addu	a3,t0,v1
    7bfc:	8ce40000 	lw	a0,0(a3)
    7c00:	00800008 	jr	a0
    7c04:	00000000 	nop
    7c08:	24090003 	li	t1,3
    7c0c:	10a9000e 	beq	a1,t1,0x7c48
    7c10:	00000000 	nop
    7c14:	240a0005 	li	t2,5
    7c18:	10aa000b 	beq	a1,t2,0x7c48
    7c1c:	00000000 	nop
    7c20:	240b0001 	li	t3,1
    7c24:	10ab0008 	beq	a1,t3,0x7c48
    7c28:	00000000 	nop
    7c2c:	8f8c00a0 	lw	t4,160(gp)
    7c30:	10ac0005 	beq	a1,t4,0x7c48
    7c34:	00000000 	nop
    7c38:	03e00008 	jr	ra
    7c3c:	00001021 	move	v0,zero
    7c40:	0a000a99 	j	0x8002a64
    7c44:	00a02021 	move	a0,a1
    7c48:	0a000ae7 	j	0x8002b9c
    7c4c:	00c02021 	move	a0,a2
    7c50:	27bdffe8 	addiu	sp,sp,-24
    7c54:	308400ff 	andi	a0,a0,0xff
    7c58:	24030002 	li	v1,2
    7c5c:	1083000b 	beq	a0,v1,0x7c8c
    7c60:	afbf0010 	sw	ra,16(sp)
    7c64:	24060003 	li	a2,3
    7c68:	1086003a 	beq	a0,a2,0x7d54
    7c6c:	24080004 	li	t0,4
    7c70:	10880068 	beq	a0,t0,0x7e14
    7c74:	240e0005 	li	t6,5
    7c78:	108e007f 	beq	a0,t6,0x7e78
    7c7c:	2caf1430 	sltiu	t7,a1,5168
    7c80:	8fbf0010 	lw	ra,16(sp)
    7c84:	03e00008 	jr	ra
    7c88:	27bd0018 	addiu	sp,sp,24
    7c8c:	2ca20030 	sltiu	v0,a1,48
    7c90:	1440fffc 	bnez	v0,0x7c84
    7c94:	8fbf0010 	lw	ra,16(sp)
    7c98:	24a5ffd0 	addiu	a1,a1,-48
    7c9c:	000531c2 	srl	a2,a1,0x7
    7ca0:	00066880 	sll	t5,a2,0x2
    7ca4:	3c070800 	lui	a3,0x800
    7ca8:	24e76100 	addiu	a3,a3,24832
    7cac:	01a73021 	addu	a2,t5,a3
    7cb0:	8cc90000 	lw	t1,0(a2)
    7cb4:	00052882 	srl	a1,a1,0x2
    7cb8:	30ac001f 	andi	t4,a1,0x1f
    7cbc:	240b0001 	li	t3,1
    7cc0:	018b5004 	sllv	t2,t3,t4
    7cc4:	8f840048 	lw	a0,72(gp)
    7cc8:	012a4025 	or	t0,t1,t2
    7ccc:	acc80000 	sw	t0,0(a2)
    7cd0:	8c830000 	lw	v1,0(a0)
    7cd4:	50600001 	beqzl	v1,0x7cdc
    7cd8:	af860048 	sw	a2,72(gp)
    7cdc:	8f98006c 	lw	t8,108(gp)
    7ce0:	30ae0001 	andi	t6,a1,0x1
    7ce4:	24a6ffff 	addiu	a2,a1,-1
    7ce8:	270f0001 	addiu	t7,t8,1
    7cec:	15c00002 	bnez	t6,0x7cf8
    7cf0:	af8f006c 	sw	t7,108(gp)
    7cf4:	24a60001 	addiu	a2,a1,1
    7cf8:	00064142 	srl	t0,a2,0x5
    7cfc:	00082080 	sll	a0,t0,0x2
    7d00:	00871821 	addu	v1,a0,a3
    7d04:	8c790000 	lw	t9,0(v1)
    7d08:	30c2001f 	andi	v0,a2,0x1f
    7d0c:	24060001 	li	a2,1
    7d10:	0046f804 	sllv	ra,a2,v0
    7d14:	033f3824 	and	a3,t9,ra
    7d18:	10e0ffda 	beqz	a3,0x7c84
    7d1c:	8fbf0010 	lw	ra,16(sp)
    7d20:	0005c182 	srl	t8,a1,0x6
    7d24:	00187080 	sll	t6,t8,0x2
    7d28:	3c0f0800 	lui	t7,0x800
    7d2c:	25ef60c0 	addiu	t7,t7,24768
    7d30:	01cf4821 	addu	t1,t6,t7
    7d34:	8d2b0000 	lw	t3,0(t1)
    7d38:	00056842 	srl	t5,a1,0x1
    7d3c:	31a5001f 	andi	a1,t5,0x1f
    7d40:	00a66004 	sllv	t4,a2,a1
    7d44:	016c5025 	or	t2,t3,t4
    7d48:	27bd0018 	addiu	sp,sp,24
    7d4c:	03e00008 	jr	ra
    7d50:	ad2a0000 	sw	t2,0(t1)
    7d54:	2ca70030 	sltiu	a3,a1,48
    7d58:	14e0ffca 	bnez	a3,0x7c84
    7d5c:	8fbf0010 	lw	ra,16(sp)
    7d60:	30b90007 	andi	t9,a1,0x7
    7d64:	1723ffc7 	bne	t9,v1,0x7c84
    7d68:	24a8ffce 	addiu	t0,a1,-50
    7d6c:	00086a02 	srl	t5,t0,0x8
    7d70:	000d6080 	sll	t4,t5,0x2
    7d74:	3c0b0800 	lui	t3,0x800
    7d78:	256b60c0 	addiu	t3,t3,24768
    7d7c:	018b3021 	addu	a2,t4,t3
    7d80:	8cc40000 	lw	a0,0(a2)
    7d84:	000828c2 	srl	a1,t0,0x3
    7d88:	30aa001f 	andi	t2,a1,0x1f
    7d8c:	24080001 	li	t0,1
    7d90:	01484804 	sllv	t1,t0,t2
    7d94:	8f8200a4 	lw	v0,164(gp)
    7d98:	00891825 	or	v1,a0,t1
    7d9c:	acc30000 	sw	v1,0(a2)
    7da0:	8c5f0000 	lw	ra,0(v0)
    7da4:	53e00001 	beqzl	ra,0x7dac
    7da8:	af8600a4 	sw	a2,164(gp)
    7dac:	00057040 	sll	t6,a1,0x1
    7db0:	000e7942 	srl	t7,t6,0x5
    7db4:	000f2880 	sll	a1,t7,0x2
    7db8:	3c040800 	lui	a0,0x800
    7dbc:	24846100 	addiu	a0,a0,24832
    7dc0:	00a41821 	addu	v1,a1,a0
    7dc4:	8c6b0000 	lw	t3,0(v1)
    7dc8:	25df0001 	addiu	ra,t6,1
    7dcc:	31cd001f 	andi	t5,t6,0x1f
    7dd0:	001f5142 	srl	t2,ra,0x5
    7dd4:	01a86004 	sllv	t4,t0,t5
    7dd8:	016c4825 	or	t1,t3,t4
    7ddc:	000a1080 	sll	v0,t2,0x2
    7de0:	ac690000 	sw	t1,0(v1)
    7de4:	00442821 	addu	a1,v0,a0
    7de8:	8ca60000 	lw	a2,0(a1)
    7dec:	8f980060 	lw	t8,96(gp)
    7df0:	33f9001f 	andi	t9,ra,0x1f
    7df4:	8fbf0010 	lw	ra,16(sp)
    7df8:	03283804 	sllv	a3,t0,t9
    7dfc:	00c77825 	or	t7,a2,a3
    7e00:	270e0001 	addiu	t6,t8,1
    7e04:	27bd0018 	addiu	sp,sp,24
    7e08:	acaf0000 	sw	t7,0(a1)
    7e0c:	03e00008 	jr	ra
    7e10:	af8e0060 	sw	t6,96(gp)
    7e14:	24a5efd0 	addiu	a1,a1,-4144
    7e18:	2cb80400 	sltiu	t8,a1,1024
    7e1c:	1300ff99 	beqz	t8,0x7c84
    7e20:	8fbf0010 	lw	ra,16(sp)
    7e24:	00053142 	srl	a2,a1,0x5
    7e28:	00065880 	sll	t3,a2,0x2
    7e2c:	3c0a0800 	lui	t2,0x800
    7e30:	254a6040 	addiu	t2,t2,24640
    7e34:	016a3021 	addu	a2,t3,t2
    7e38:	8cc40000 	lw	a0,0(a2)
    7e3c:	30a3001f 	andi	v1,a1,0x1f
    7e40:	24090001 	li	t1,1
    7e44:	00691004 	sllv	v0,t1,v1
    7e48:	8f990090 	lw	t9,144(gp)
    7e4c:	0082f825 	or	ra,a0,v0
    7e50:	acdf0000 	sw	ra,0(a2)
    7e54:	8f270000 	lw	a3,0(t9)
    7e58:	50e00001 	beqzl	a3,0x7e60
    7e5c:	af860090 	sw	a2,144(gp)
    7e60:	8f8d0084 	lw	t5,132(gp)
    7e64:	8fbf0010 	lw	ra,16(sp)
    7e68:	27bd0018 	addiu	sp,sp,24
    7e6c:	25ac0001 	addiu	t4,t5,1
    7e70:	03e00008 	jr	ra
    7e74:	af8c0084 	sw	t4,132(gp)
    7e78:	15e0ff82 	bnez	t7,0x7c84
    7e7c:	8fbf0010 	lw	ra,16(sp)
    7e80:	8f8600a0 	lw	a2,160(gp)
    7e84:	00061040 	sll	v0,a2,0x1
    7e88:	0046f821 	addu	ra,v0,a2
    7e8c:	001f2100 	sll	a0,ra,0x4
    7e90:	03e4c821 	addu	t9,ra,a0
    7e94:	00193840 	sll	a3,t9,0x1
    7e98:	24f81430 	addiu	t8,a3,5168
    7e9c:	00b8402b 	sltu	t0,a1,t8
    7ea0:	1100ff78 	beqz	t0,0x7c84
    7ea4:	8fbf0010 	lw	ra,16(sp)
    7ea8:	24a4ebd0 	addiu	a0,a1,-5168
    7eac:	0e00020d 	jal	0x8000834
    7eb0:	00c02821 	move	a1,a2
    7eb4:	00027942 	srl	t7,v0,0x5
    7eb8:	000f7080 	sll	t6,t7,0x2
    7ebc:	3c0d0800 	lui	t5,0x800
    7ec0:	25ad6180 	addiu	t5,t5,24960
    7ec4:	01cd2021 	addu	a0,t6,t5
    7ec8:	8c8b0000 	lw	t3,0(a0)
    7ecc:	304c001f 	andi	t4,v0,0x1f
    7ed0:	24060001 	li	a2,1
    7ed4:	01861804 	sllv	v1,a2,t4
    7ed8:	8f89008c 	lw	t1,140(gp)
    7edc:	01635025 	or	t2,t3,v1
    7ee0:	ac8a0000 	sw	t2,0(a0)
    7ee4:	8d250000 	lw	a1,0(t1)
    7ee8:	50a00001 	beqzl	a1,0x7ef0
    7eec:	af84008c 	sw	a0,140(gp)
    7ef0:	8f980080 	lw	t8,128(gp)
    7ef4:	8fbf0010 	lw	ra,16(sp)
    7ef8:	27bd0018 	addiu	sp,sp,24
    7efc:	27080001 	addiu	t0,t8,1
    7f00:	03e00008 	jr	ra
    7f04:	af880080 	sw	t0,128(gp)
    7f08:	30a50007 	andi	a1,a1,0x7
    7f0c:	24030003 	li	v1,3
    7f10:	10a30010 	beq	a1,v1,0x7f54
    7f14:	28a20004 	slti	v0,a1,4
    7f18:	14400008 	bnez	v0,0x7f3c
    7f1c:	24070002 	li	a3,2
    7f20:	24030004 	li	v1,4
    7f24:	10a30015 	beq	a1,v1,0x7f7c
    7f28:	24080005 	li	t0,5
    7f2c:	10a8000f 	beq	a1,t0,0x7f6c
    7f30:	8f8500a0 	lw	a1,160(gp)
    7f34:	03e00008 	jr	ra
    7f38:	00000000 	nop
    7f3c:	14a7fffd 	bne	a1,a3,0x7f34
    7f40:	00802821 	move	a1,a0
    7f44:	14c3fffb 	bne	a2,v1,0x7f34
    7f48:	24040002 	li	a0,2
    7f4c:	0a000bab 	j	0x8002eac
    7f50:	00000000 	nop
    7f54:	24090005 	li	t1,5
    7f58:	00802821 	move	a1,a0
    7f5c:	10c9fffb 	beq	a2,t1,0x7f4c
    7f60:	24040003 	li	a0,3
    7f64:	03e00008 	jr	ra
    7f68:	00000000 	nop
    7f6c:	14c5fff1 	bne	a2,a1,0x7f34
    7f70:	00802821 	move	a1,a0
    7f74:	0a000bab 	j	0x8002eac
    7f78:	24040005 	li	a0,5
    7f7c:	240a0001 	li	t2,1
    7f80:	00802821 	move	a1,a0
    7f84:	10cafff1 	beq	a2,t2,0x7f4c
    7f88:	24040004 	li	a0,4
    7f8c:	03e00008 	jr	ra
    7f90:	00000000 	nop
    7f94:	27bdffe0 	addiu	sp,sp,-32
    7f98:	afb00010 	sw	s0,16(sp)
    7f9c:	000581c2 	srl	s0,a1,0x7
    7fa0:	2603ffd0 	addiu	v1,s0,-48
    7fa4:	24c5003f 	addiu	a1,a2,63
    7fa8:	2c6223d0 	sltiu	v0,v1,9168
    7fac:	24c6007f 	addiu	a2,a2,127
    7fb0:	afb20018 	sw	s2,24(sp)
    7fb4:	afb10014 	sw	s1,20(sp)
    7fb8:	afbf001c 	sw	ra,28(sp)
    7fbc:	309100ff 	andi	s1,a0,0xff
    7fc0:	000691c2 	srl	s2,a2,0x7
    7fc4:	00052982 	srl	a1,a1,0x6
    7fc8:	02002021 	move	a0,s0
    7fcc:	10400008 	beqz	v0,0x7ff0
    7fd0:	2403ffff 	li	v1,-1
    7fd4:	0e000a6b 	jal	0x80029ac
    7fd8:	00000000 	nop
    7fdc:	02002021 	move	a0,s0
    7fe0:	02202821 	move	a1,s1
    7fe4:	0e000c59 	jal	0x8003164
    7fe8:	02403021 	move	a2,s2
    7fec:	00001821 	move	v1,zero
    7ff0:	8fbf001c 	lw	ra,28(sp)
    7ff4:	8fb20018 	lw	s2,24(sp)
    7ff8:	8fb10014 	lw	s1,20(sp)
    7ffc:	8fb00010 	lw	s0,16(sp)
    8000:	00601021 	move	v0,v1
    8004:	03e00008 	jr	ra
    8008:	27bd0020 	addiu	sp,sp,32
    800c:	27bdffd8 	addiu	sp,sp,-40
    8010:	24a2007f 	addiu	v0,a1,127
    8014:	afb3001c 	sw	s3,28(sp)
    8018:	afb20018 	sw	s2,24(sp)
    801c:	000299c2 	srl	s3,v0,0x7
    8020:	309200ff 	andi	s2,a0,0xff
    8024:	24a3003f 	addiu	v1,a1,63
    8028:	02402021 	move	a0,s2
    802c:	02602821 	move	a1,s3
    8030:	afb10014 	sw	s1,20(sp)
    8034:	afb00010 	sw	s0,16(sp)
    8038:	afbf0020 	sw	ra,32(sp)
    803c:	0e000b8e 	jal	0x8002e38
    8040:	00038982 	srl	s1,v1,0x6
    8044:	00408021 	move	s0,v0
    8048:	00402021 	move	a0,v0
    804c:	02202821 	move	a1,s1
    8050:	14400009 	bnez	v0,0x8078
    8054:	00001821 	move	v1,zero
    8058:	8fbf0020 	lw	ra,32(sp)
    805c:	8fb3001c 	lw	s3,28(sp)
    8060:	8fb20018 	lw	s2,24(sp)
    8064:	8fb10014 	lw	s1,20(sp)
    8068:	8fb00010 	lw	s0,16(sp)
    806c:	00601021 	move	v0,v1
    8070:	03e00008 	jr	ra
    8074:	27bd0028 	addiu	sp,sp,40
    8078:	0e000a1c 	jal	0x8002870
    807c:	00000000 	nop
    8080:	00402821 	move	a1,v0
    8084:	02002021 	move	a0,s0
    8088:	1051fff3 	beq	v0,s1,0x8058
    808c:	001019c0 	sll	v1,s0,0x7
    8090:	0e000a6b 	jal	0x80029ac
    8094:	00000000 	nop
    8098:	02002021 	move	a0,s0
    809c:	02402821 	move	a1,s2
    80a0:	0e000c59 	jal	0x8003164
    80a4:	02603021 	move	a2,s3
    80a8:	8fbf0020 	lw	ra,32(sp)
    80ac:	8fb3001c 	lw	s3,28(sp)
    80b0:	8fb20018 	lw	s2,24(sp)
    80b4:	8fb10014 	lw	s1,20(sp)
    80b8:	8fb00010 	lw	s0,16(sp)
    80bc:	00001821 	move	v1,zero
    80c0:	00601021 	move	v0,v1
    80c4:	03e00008 	jr	ra
    80c8:	27bd0028 	addiu	sp,sp,40
    80cc:	3084ffff 	andi	a0,a0,0xffff
    80d0:	30a5ffff 	andi	a1,a1,0xffff
    80d4:	10800007 	beqz	a0,0x80f4
    80d8:	00001821 	move	v1,zero
    80dc:	30820001 	andi	v0,a0,0x1
    80e0:	10400002 	beqz	v0,0x80ec
    80e4:	00042042 	srl	a0,a0,0x1
    80e8:	00651821 	addu	v1,v1,a1
    80ec:	1480fffb 	bnez	a0,0x80dc
    80f0:	00052840 	sll	a1,a1,0x1
    80f4:	03e00008 	jr	ra
    80f8:	00601021 	move	v0,v1
    80fc:	10c00007 	beqz	a2,0x811c
    8100:	00000000 	nop
    8104:	8ca20000 	lw	v0,0(a1)
    8108:	24c6ffff 	addiu	a2,a2,-1
    810c:	24a50004 	addiu	a1,a1,4
    8110:	ac820000 	sw	v0,0(a0)
    8114:	14c0fffb 	bnez	a2,0x8104
    8118:	24840004 	addiu	a0,a0,4
    811c:	03e00008 	jr	ra
    8120:	00000000 	nop
    8124:	10a00008 	beqz	a1,0x8148
    8128:	24a3ffff 	addiu	v1,a1,-1
    812c:	ac860000 	sw	a2,0(a0)
	...
    8138:	2402ffff 	li	v0,-1
    813c:	2463ffff 	addiu	v1,v1,-1
    8140:	1462fffa 	bne	v1,v0,0x812c
    8144:	24840004 	addiu	a0,a0,4
    8148:	03e00008 	jr	ra
    814c:	00000000 	nop
    8150:	30a5ffff 	andi	a1,a1,0xffff
    8154:	8f4201b8 	lw	v0,440(k0)
    8158:	0440fffe 	bltz	v0,0x8154
    815c:	3c076015 	lui	a3,0x6015
    8160:	00a73025 	or	a2,a1,a3
    8164:	3c031000 	lui	v1,0x1000
    8168:	af440180 	sw	a0,384(k0)
    816c:	af400184 	sw	zero,388(k0)
    8170:	af460188 	sw	a2,392(k0)
    8174:	03e00008 	jr	ra
    8178:	af4301b8 	sw	v1,440(k0)
    817c:	8f8500d0 	lw	a1,208(gp)
    8180:	2c864000 	sltiu	a2,a0,16384
    8184:	00801821 	move	v1,a0
    8188:	8ca70084 	lw	a3,132(a1)
    818c:	0087102b 	sltu	v0,a0,a3
    8190:	14400010 	bnez	v0,0x81d4
    8194:	00000000 	nop
    8198:	8ca80084 	lw	t0,132(a1)
    819c:	2d064000 	sltiu	a2,t0,16384
    81a0:	50c0000f 	beqzl	a2,0x81e0
    81a4:	24034000 	li	v1,16384
    81a8:	8caa0084 	lw	t2,132(a1)
    81ac:	008a482b 	sltu	t1,a0,t2
    81b0:	51200001 	beqzl	t1,0x81b8
    81b4:	8ca30084 	lw	v1,132(a1)
    81b8:	00035a42 	srl	t3,v1,0x9
    81bc:	000b2080 	sll	a0,t3,0x2
    81c0:	3c050800 	lui	a1,0x800
    81c4:	24a55a40 	addiu	a1,a1,23104
    81c8:	00851821 	addu	v1,a0,a1
    81cc:	03e00008 	jr	ra
    81d0:	8c620000 	lw	v0,0(v1)
    81d4:	14c0fff4 	bnez	a2,0x81a8
    81d8:	00000000 	nop
    81dc:	24034000 	li	v1,16384
    81e0:	00035a42 	srl	t3,v1,0x9
    81e4:	000b2080 	sll	a0,t3,0x2
    81e8:	3c050800 	lui	a1,0x800
    81ec:	24a55a40 	addiu	a1,a1,23104
    81f0:	00851821 	addu	v1,a0,a1
    81f4:	03e00008 	jr	ra
    81f8:	8c620000 	lw	v0,0(v1)
    81fc:	8f8300d0 	lw	v1,208(gp)
    8200:	906600d0 	lbu	a2,208(v1)
    8204:	24c50001 	addiu	a1,a2,1
    8208:	a06500d0 	sb	a1,208(v1)
    820c:	8f8500d0 	lw	a1,208(gp)
    8210:	906400d0 	lbu	a0,208(v1)
    8214:	90a200d2 	lbu	v0,210(a1)
    8218:	10440017 	beq	v0,a0,0x8278
    821c:	00000000 	nop
    8220:	936c0078 	lbu	t4,120(k1)
    8224:	8f8b00bc 	lw	t3,188(gp)
    8228:	318a00ff 	andi	t2,t4,0xff
    822c:	a16a000c 	sb	t2,12(t3)
    8230:	25490001 	addiu	t1,t2,1
    8234:	938700c4 	lbu	a3,196(gp)
    8238:	312200ff 	andi	v0,t1,0xff
    823c:	3048007f 	andi	t0,v0,0x7f
    8240:	1107000b 	beq	t0,a3,0x8270
    8244:	00026827 	nor	t5,zero,v0
    8248:	a3620078 	sb	v0,120(k1)
    824c:	8f4e0178 	lw	t6,376(k0)
    8250:	05c0fffe 	bltz	t6,0x824c
    8254:	8f9900b0 	lw	t9,176(gp)
    8258:	24180002 	li	t8,2
    825c:	3c0f1000 	lui	t7,0x1000
    8260:	af590140 	sw	t9,320(k0)
    8264:	a3580144 	sb	t8,324(k0)
    8268:	03e00008 	jr	ra
    826c:	af4f0178 	sw	t7,376(k0)
    8270:	0a000d29 	j	0x80034a4
    8274:	31a20080 	andi	v0,t5,0x80
    8278:	a0a000d0 	sb	zero,208(a1)
    827c:	0a000d1f 	j	0x800347c
    8280:	00000000 	nop
    8284:	27bdffd8 	addiu	sp,sp,-40
    8288:	afb20018 	sw	s2,24(sp)
    828c:	8f9200b8 	lw	s2,184(gp)
    8290:	afbf0020 	sw	ra,32(sp)
    8294:	afb3001c 	sw	s3,28(sp)
    8298:	afb00010 	sw	s0,16(sp)
    829c:	afb10014 	sw	s1,20(sp)
    82a0:	8f9300b4 	lw	s3,180(gp)
    82a4:	8e590028 	lw	t9,40(s2)
    82a8:	3c100080 	lui	s0,0x80
    82ac:	3c0effef 	lui	t6,0xffef
    82b0:	ae790000 	sw	t9,0(s3)
    82b4:	8e580024 	lw	t8,36(s2)
    82b8:	a260000a 	sb	zero,10(s3)
    82bc:	35cdffff 	ori	t5,t6,0xffff
    82c0:	ae780004 	sw	t8,4(s3)
    82c4:	9251002c 	lbu	s1,44(s2)
    82c8:	3c0bff9f 	lui	t3,0xff9f
    82cc:	356affff 	ori	t2,t3,0xffff
    82d0:	a271000c 	sb	s1,12(s3)
    82d4:	8e6f000c 	lw	t7,12(s3)
    82d8:	3c080040 	lui	t0,0x40
    82dc:	a271000b 	sb	s1,11(s3)
    82e0:	01f06025 	or	t4,t7,s0
    82e4:	018d4824 	and	t1,t4,t5
    82e8:	012a3824 	and	a3,t1,t2
    82ec:	00e83025 	or	a2,a3,t0
    82f0:	ae66000c 	sw	a2,12(s3)
    82f4:	8e450004 	lw	a1,4(s2)
    82f8:	ae600018 	sw	zero,24(s3)
    82fc:	3c0400ff 	lui	a0,0xff
    8300:	ae650014 	sw	a1,20(s3)
    8304:	8e43002c 	lw	v1,44(s2)
    8308:	3482ffff 	ori	v0,a0,0xffff
    830c:	a6600008 	sh	zero,8(s3)
    8310:	0062f824 	and	ra,v1,v0
    8314:	ae7f0010 	sw	ra,16(s3)
    8318:	8e590008 	lw	t9,8(s2)
    831c:	8f9000b0 	lw	s0,176(gp)
    8320:	964e0012 	lhu	t6,18(s2)
    8324:	ae790020 	sw	t9,32(s3)
    8328:	8e51000c 	lw	s1,12(s2)
    832c:	31d83fff 	andi	t8,t6,0x3fff
    8330:	00187980 	sll	t7,t8,0x6
    8334:	ae710024 	sw	s1,36(s3)
    8338:	8e4d0014 	lw	t5,20(s2)
    833c:	01f06021 	addu	t4,t7,s0
    8340:	31cb0001 	andi	t3,t6,0x1
    8344:	ae6d0028 	sw	t5,40(s3)
    8348:	8e4a0018 	lw	t2,24(s2)
    834c:	000c41c2 	srl	t0,t4,0x7
    8350:	000b4b80 	sll	t1,t3,0xe
    8354:	ae6a002c 	sw	t2,44(s3)
    8358:	8e46001c 	lw	a2,28(s2)
    835c:	01093821 	addu	a3,t0,t1
    8360:	a667001c 	sh	a3,28(s3)
    8364:	ae660030 	sw	a2,48(s3)
    8368:	96450002 	lhu	a1,2(s2)
    836c:	8e440020 	lw	a0,32(s2)
    8370:	a665001e 	sh	a1,30(s3)
    8374:	ae640034 	sw	a0,52(s3)
    8378:	92430033 	lbu	v1,51(s2)
    837c:	30620004 	andi	v0,v1,0x4
    8380:	54400005 	bnezl	v0,0x8398
    8384:	92460000 	lbu	a2,0(s2)
    8388:	8f8300d0 	lw	v1,208(gp)
    838c:	8c7f007c 	lw	ra,124(v1)
    8390:	ae7f0030 	sw	ra,48(s3)
    8394:	92460000 	lbu	a2,0(s2)
    8398:	8f8500bc 	lw	a1,188(gp)
    839c:	a0a60000 	sb	a2,0(a1)
    83a0:	92440033 	lbu	a0,51(s2)
    83a4:	30820002 	andi	v0,a0,0x2
    83a8:	50400007 	beqzl	v0,0x83c8
    83ac:	924e0001 	lbu	t6,1(s2)
    83b0:	8f8700bc 	lw	a3,188(gp)
    83b4:	240aff80 	li	t2,-128
    83b8:	90e90000 	lbu	t1,0(a3)
    83bc:	012a4025 	or	t0,t1,t2
    83c0:	a0e80000 	sb	t0,0(a3)
    83c4:	924e0001 	lbu	t6,1(s2)
    83c8:	8f8d00bc 	lw	t5,188(gp)
    83cc:	2409ffbf 	li	t1,-65
    83d0:	2404ffdf 	li	a0,-33
    83d4:	a1ae0001 	sb	t6,1(t5)
    83d8:	8f8a00bc 	lw	t2,188(gp)
    83dc:	914c000d 	lbu	t4,13(t2)
    83e0:	318b007f 	andi	t3,t4,0x7f
    83e4:	a14b000d 	sb	t3,13(t2)
    83e8:	8f8600bc 	lw	a2,188(gp)
    83ec:	90c8000d 	lbu	t0,13(a2)
    83f0:	01093824 	and	a3,t0,t1
    83f4:	a0c7000d 	sb	a3,13(a2)
    83f8:	8f9100bc 	lw	s1,188(gp)
    83fc:	8e650014 	lw	a1,20(s3)
    8400:	9223000d 	lbu	v1,13(s1)
    8404:	2ca20001 	sltiu	v0,a1,1
    8408:	0002f940 	sll	ra,v0,0x5
    840c:	0064c824 	and	t9,v1,a0
    8410:	033fc025 	or	t8,t9,ra
    8414:	a238000d 	sb	t8,13(s1)
    8418:	8f8800bc 	lw	t0,188(gp)
    841c:	96500012 	lhu	s0,18(s2)
    8420:	8f8700d0 	lw	a3,208(gp)
    8424:	a5100002 	sh	s0,2(t0)
    8428:	8e450004 	lw	a1,4(s2)
    842c:	90ed00bc 	lbu	t5,188(a3)
    8430:	30af0003 	andi	t7,a1,0x3
    8434:	000f7023 	negu	t6,t7
    8438:	31cc0003 	andi	t4,t6,0x3
    843c:	00ac1021 	addu	v0,a1,t4
    8440:	31ab0002 	andi	t3,t5,0x2
    8444:	15600002 	bnez	t3,0x8450
    8448:	24440034 	addiu	a0,v0,52
    844c:	24440030 	addiu	a0,v0,48
    8450:	90f100bc 	lbu	s1,188(a3)
    8454:	00b18024 	and	s0,a1,s1
    8458:	320f0004 	andi	t7,s0,0x4
    845c:	15e00002 	bnez	t7,0x8468
    8460:	24830004 	addiu	v1,a0,4
    8464:	00801821 	move	v1,a0
    8468:	8f8900ac 	lw	t1,172(gp)
    846c:	240a0002 	li	t2,2
    8470:	ad030004 	sw	v1,4(t0)
    8474:	a12a0000 	sb	t2,0(t1)
    8478:	9248003f 	lbu	t0,63(s2)
    847c:	8f8700ac 	lw	a3,172(gp)
    8480:	a0e80001 	sb	t0,1(a3)
    8484:	8f9100ac 	lw	s1,172(gp)
    8488:	9246003f 	lbu	a2,63(s2)
    848c:	8e440004 	lw	a0,4(s2)
    8490:	a6260002 	sh	a2,2(s1)
    8494:	9765003c 	lhu	a1,60(k1)
    8498:	0e000cf6 	jal	0x80033d8
    849c:	30b0ffff 	andi	s0,a1,0xffff
    84a0:	00021380 	sll	v0,v0,0xe
    84a4:	00502025 	or	a0,v0,s0
    84a8:	3c034200 	lui	v1,0x4200
    84ac:	0083f825 	or	ra,a0,v1
    84b0:	ae3f0004 	sw	ra,4(s1)
    84b4:	8f8500ac 	lw	a1,172(gp)
    84b8:	8e590038 	lw	t9,56(s2)
    84bc:	acb90018 	sw	t9,24(a1)
    84c0:	8e580034 	lw	t8,52(s2)
    84c4:	acb8001c 	sw	t8,28(a1)
    84c8:	aca0000c 	sw	zero,12(a1)
    84cc:	aca00010 	sw	zero,16(a1)
    84d0:	a4a00014 	sh	zero,20(a1)
    84d4:	a4a00016 	sh	zero,22(a1)
    84d8:	a4a00020 	sh	zero,32(a1)
    84dc:	a4a00022 	sh	zero,34(a1)
    84e0:	aca00024 	sw	zero,36(a1)
    84e4:	8e620014 	lw	v0,20(s3)
    84e8:	50400001 	beqzl	v0,0x84f0
    84ec:	24020001 	li	v0,1
    84f0:	8fbf0020 	lw	ra,32(sp)
    84f4:	8fb3001c 	lw	s3,28(sp)
    84f8:	8fb20018 	lw	s2,24(sp)
    84fc:	8fb10014 	lw	s1,20(sp)
    8500:	8fb00010 	lw	s0,16(sp)
    8504:	aca20008 	sw	v0,8(a1)
    8508:	0a000d16 	j	0x8003458
    850c:	27bd0028 	addiu	sp,sp,40
    8510:	8f8600d0 	lw	a2,208(gp)
    8514:	27bdffd0 	addiu	sp,sp,-48
    8518:	afbf002c 	sw	ra,44(sp)
    851c:	afb60028 	sw	s6,40(sp)
    8520:	afb50024 	sw	s5,36(sp)
    8524:	afb40020 	sw	s4,32(sp)
    8528:	afb3001c 	sw	s3,28(sp)
    852c:	afb20018 	sw	s2,24(sp)
    8530:	afb10014 	sw	s1,20(sp)
    8534:	afb00010 	sw	s0,16(sp)
    8538:	94c300e0 	lhu	v1,224(a2)
    853c:	94c200e2 	lhu	v0,226(a2)
    8540:	10430041 	beq	v0,v1,0x8648
    8544:	2405ffff 	li	a1,-1
    8548:	3c16000e 	lui	s6,0xe
    854c:	90c400d0 	lbu	a0,208(a2)
    8550:	90c800d1 	lbu	t0,209(a2)
    8554:	309200ff 	andi	s2,a0,0xff
    8558:	310400ff 	andi	a0,t0,0xff
    855c:	0244382b 	sltu	a3,s2,a0
    8560:	10e00044 	beqz	a3,0x8674
    8564:	26490001 	addiu	t1,s2,1
    8568:	10890037 	beq	a0,t1,0x8648
    856c:	8f9800b0 	lw	t8,176(gp)
    8570:	3c050800 	lui	a1,0x800
    8574:	8ca5005c 	lw	a1,92(a1)
    8578:	2414ff80 	li	s4,-128
    857c:	00b86021 	addu	t4,a1,t8
    8580:	01946824 	and	t5,t4,s4
    8584:	af4d002c 	sw	t5,44(k0)
    8588:	94ca00e2 	lhu	t2,226(a2)
    858c:	318b007f 	andi	t3,t4,0x7f
    8590:	017a4821 	addu	t1,t3,k0
    8594:	31447fff 	andi	a0,t2,0x7fff
    8598:	01364021 	addu	t0,t1,s6
    859c:	00041040 	sll	v0,a0,0x1
    85a0:	0048a821 	addu	s5,v0,t0
    85a4:	96a70000 	lhu	a3,0(s5)
    85a8:	3c1f0800 	lui	ra,0x800
    85ac:	8fff0058 	lw	ra,88(ra)
    85b0:	30f53fff 	andi	s5,a3,0x3fff
    85b4:	00151980 	sll	v1,s5,0x6
    85b8:	03e3c821 	addu	t9,ra,v1
    85bc:	03198821 	addu	s1,t8,t9
    85c0:	3233007f 	andi	s3,s1,0x7f
    85c4:	027a7821 	addu	t7,s3,k0
    85c8:	02348024 	and	s0,s1,s4
    85cc:	af50002c 	sw	s0,44(k0)
    85d0:	01f69821 	addu	s3,t7,s6
    85d4:	926e000d 	lbu	t6,13(s3)
    85d8:	31c50004 	andi	a1,t6,0x4
    85dc:	10a00048 	beqz	a1,0x8700
    85e0:	00000000 	nop
    85e4:	94c300e2 	lhu	v1,226(a2)
    85e8:	94c300e2 	lhu	v1,226(a2)
    85ec:	94d800e2 	lhu	t8,226(a2)
    85f0:	24048000 	li	a0,-32768
    85f4:	307f7fff 	andi	ra,v1,0x7fff
    85f8:	27f90001 	addiu	t9,ra,1
    85fc:	33317fff 	andi	s1,t9,0x7fff
    8600:	03048024 	and	s0,t8,a0
    8604:	02117825 	or	t7,s0,s1
    8608:	a4cf00e2 	sh	t7,226(a2)
    860c:	94ce00e2 	lhu	t6,226(a2)
    8610:	3c120800 	lui	s2,0x800
    8614:	8e520060 	lw	s2,96(s2)
    8618:	31d47fff 	andi	s4,t6,0x7fff
    861c:	129200df 	beq	s4,s2,0x899c
    8620:	00000000 	nop
    8624:	8e720018 	lw	s2,24(s3)
    8628:	00002821 	move	a1,zero
    862c:	2646ffff 	addiu	a2,s2,-1
    8630:	ae66002c 	sw	a2,44(s3)
    8634:	8f8600d0 	lw	a2,208(gp)
    8638:	94c800e0 	lhu	t0,224(a2)
    863c:	94c900e2 	lhu	t1,226(a2)
    8640:	1528ffc2 	bne	t1,t0,0x854c
    8644:	00000000 	nop
    8648:	8fbf002c 	lw	ra,44(sp)
    864c:	8fb60028 	lw	s6,40(sp)
    8650:	8fb50024 	lw	s5,36(sp)
    8654:	8fb40020 	lw	s4,32(sp)
    8658:	8fb3001c 	lw	s3,28(sp)
    865c:	8fb20018 	lw	s2,24(sp)
    8660:	8fb10014 	lw	s1,20(sp)
    8664:	8fb00010 	lw	s0,16(sp)
    8668:	00a01021 	move	v0,a1
    866c:	03e00008 	jr	ra
    8670:	27bd0030 	addiu	sp,sp,48
    8674:	90cd00d2 	lbu	t5,210(a2)
    8678:	264a0001 	addiu	t2,s2,1
    867c:	31ac00ff 	andi	t4,t5,0xff
    8680:	008c5821 	addu	t3,a0,t4
    8684:	116afff0 	beq	t3,t2,0x8648
    8688:	8f9800b0 	lw	t8,176(gp)
    868c:	3c050800 	lui	a1,0x800
    8690:	8ca5005c 	lw	a1,92(a1)
    8694:	2414ff80 	li	s4,-128
    8698:	00b86021 	addu	t4,a1,t8
    869c:	01946824 	and	t5,t4,s4
    86a0:	af4d002c 	sw	t5,44(k0)
    86a4:	94ca00e2 	lhu	t2,226(a2)
    86a8:	318b007f 	andi	t3,t4,0x7f
    86ac:	017a4821 	addu	t1,t3,k0
    86b0:	31447fff 	andi	a0,t2,0x7fff
    86b4:	01364021 	addu	t0,t1,s6
    86b8:	00041040 	sll	v0,a0,0x1
    86bc:	0048a821 	addu	s5,v0,t0
    86c0:	96a70000 	lhu	a3,0(s5)
    86c4:	3c1f0800 	lui	ra,0x800
    86c8:	8fff0058 	lw	ra,88(ra)
    86cc:	30f53fff 	andi	s5,a3,0x3fff
    86d0:	00151980 	sll	v1,s5,0x6
    86d4:	03e3c821 	addu	t9,ra,v1
    86d8:	03198821 	addu	s1,t8,t9
    86dc:	3233007f 	andi	s3,s1,0x7f
    86e0:	027a7821 	addu	t7,s3,k0
    86e4:	02348024 	and	s0,s1,s4
    86e8:	af50002c 	sw	s0,44(k0)
    86ec:	01f69821 	addu	s3,t7,s6
    86f0:	926e000d 	lbu	t6,13(s3)
    86f4:	31c50004 	andi	a1,t6,0x4
    86f8:	14a0ffba 	bnez	a1,0x85e4
    86fc:	00000000 	nop
    8700:	8e660010 	lw	a2,16(s3)
    8704:	0012c0c0 	sll	t8,s2,0x3
    8708:	8e6e0030 	lw	t6,48(s3)
    870c:	00129140 	sll	s2,s2,0x5
    8710:	02587821 	addu	t7,s2,t8
    8714:	036f5821 	addu	t3,k1,t7
    8718:	00ce6823 	subu	t5,a2,t6
    871c:	256c0088 	addiu	t4,t3,136
    8720:	24020002 	li	v0,2
    8724:	ae6d0010 	sw	t5,16(s3)
    8728:	af8c00ac 	sw	t4,172(gp)
    872c:	a1620088 	sb	v0,136(t3)
    8730:	976a003c 	lhu	t2,60(k1)
    8734:	8e640030 	lw	a0,48(s3)
    8738:	8f9100ac 	lw	s1,172(gp)
    873c:	0e000cf6 	jal	0x80033d8
    8740:	3150ffff 	andi	s0,t2,0xffff
    8744:	00022380 	sll	a0,v0,0xe
    8748:	00904825 	or	t1,a0,s0
    874c:	3c034200 	lui	v1,0x4200
    8750:	01234025 	or	t0,t1,v1
    8754:	ae280004 	sw	t0,4(s1)
    8758:	8e670004 	lw	a3,4(s3)
    875c:	8f8c00ac 	lw	t4,172(gp)
    8760:	8e7f0000 	lw	ra,0(s3)
    8764:	240d0008 	li	t5,8
    8768:	ad87001c 	sw	a3,28(t4)
    876c:	ad9f0018 	sw	ra,24(t4)
    8770:	ad80000c 	sw	zero,12(t4)
    8774:	ad800010 	sw	zero,16(t4)
    8778:	9265000a 	lbu	a1,10(s3)
    877c:	30b900ff 	andi	t9,a1,0xff
    8780:	a5990014 	sh	t9,20(t4)
    8784:	96780008 	lhu	t8,8(s3)
    8788:	3c05000c 	lui	a1,0xc
    878c:	a5980016 	sh	t8,22(t4)
    8790:	9271000a 	lbu	s1,10(s3)
    8794:	322f00ff 	andi	t7,s1,0xff
    8798:	a58f0020 	sh	t7,32(t4)
    879c:	96700008 	lhu	s0,8(s3)
    87a0:	24110005 	li	s1,5
    87a4:	a5900022 	sh	s0,34(t4)
    87a8:	ad800024 	sw	zero,36(t4)
    87ac:	926e000b 	lbu	t6,11(s3)
    87b0:	2410c000 	li	s0,-16384
    87b4:	31c600ff 	andi	a2,t6,0xff
    87b8:	a5860002 	sh	a2,2(t4)
    87bc:	a18d0001 	sb	t5,1(t4)
    87c0:	8e6b0030 	lw	t3,48(s3)
    87c4:	8f8200ac 	lw	v0,172(gp)
    87c8:	8f8800b0 	lw	t0,176(gp)
    87cc:	ac4b0008 	sw	t3,8(v0)
    87d0:	3c0a0800 	lui	t2,0x800
    87d4:	8d4a0054 	lw	t2,84(t2)
    87d8:	01482021 	addu	a0,t2,t0
    87dc:	00944824 	and	t1,a0,s4
    87e0:	af490028 	sw	t1,40(k0)
    87e4:	3c030800 	lui	v1,0x800
    87e8:	8c630054 	lw	v1,84(v1)
    87ec:	00683821 	addu	a3,v1,t0
    87f0:	30ff007f 	andi	ra,a3,0x7f
    87f4:	03fac821 	addu	t9,ra,k0
    87f8:	0325c021 	addu	t8,t9,a1
    87fc:	02587821 	addu	t7,s2,t8
    8800:	af8f00bc 	sw	t7,188(gp)
    8804:	af9800c0 	sw	t8,192(gp)
    8808:	a1f10000 	sb	s1,0(t7)
    880c:	8f8b00bc 	lw	t3,188(gp)
    8810:	2403ffbf 	li	v1,-65
    8814:	2405ffdf 	li	a1,-33
    8818:	956e0002 	lhu	t6,2(t3)
    881c:	01d0a024 	and	s4,t6,s0
    8820:	02959025 	or	s2,s4,s5
    8824:	a5720002 	sh	s2,2(t3)
    8828:	91660002 	lbu	a2,2(t3)
    882c:	30cd003f 	andi	t5,a2,0x3f
    8830:	35ac0040 	ori	t4,t5,0x40
    8834:	a16c0002 	sb	t4,2(t3)
    8838:	8f8800bc 	lw	t0,188(gp)
    883c:	8f8200d0 	lw	v0,208(gp)
    8840:	3c0c7fff 	lui	t4,0x7fff
    8844:	ad000004 	sw	zero,4(t0)
    8848:	8c4a007c 	lw	t2,124(v0)
    884c:	358bffff 	ori	t3,t4,0xffff
    8850:	3c028000 	lui	v0,0x8000
    8854:	ad0a0008 	sw	t2,8(t0)
    8858:	9104000d 	lbu	a0,13(t0)
    885c:	3089007f 	andi	t1,a0,0x7f
    8860:	a109000d 	sb	t1,13(t0)
    8864:	8f9f00bc 	lw	ra,188(gp)
    8868:	93f5000d 	lbu	s5,13(ra)
    886c:	02a33824 	and	a3,s5,v1
    8870:	a3e7000d 	sb	a3,13(ra)
    8874:	8f9100bc 	lw	s1,188(gp)
    8878:	9239000d 	lbu	t9,13(s1)
    887c:	0325c024 	and	t8,t9,a1
    8880:	a238000d 	sb	t8,13(s1)
    8884:	8e6f0034 	lw	t7,52(s3)
    8888:	8f8d00bc 	lw	t5,188(gp)
    888c:	adaf0010 	sw	t7,16(t5)
    8890:	8e6e002c 	lw	t6,44(s3)
    8894:	8e700030 	lw	s0,48(s3)
    8898:	01d0a023 	subu	s4,t6,s0
    889c:	adb40014 	sw	s4,20(t5)
    88a0:	91b20018 	lbu	s2,24(t5)
    88a4:	3246007f 	andi	a2,s2,0x7f
    88a8:	a1a60018 	sb	a2,24(t5)
    88ac:	8f8700bc 	lw	a3,188(gp)
    88b0:	8e6a0030 	lw	t2,48(s3)
    88b4:	8ce40018 	lw	a0,24(a3)
    88b8:	014b4824 	and	t1,t2,t3
    88bc:	00824024 	and	t0,a0,v0
    88c0:	0109a825 	or	s5,t0,t1
    88c4:	acf50018 	sw	s5,24(a3)
    88c8:	9263000a 	lbu	v1,10(s3)
    88cc:	a0e3001c 	sb	v1,28(a3)
    88d0:	967f0008 	lhu	ra,8(s3)
    88d4:	8f8500bc 	lw	a1,188(gp)
    88d8:	8f9900d0 	lw	t9,208(gp)
    88dc:	a4bf001e 	sh	ra,30(a1)
    88e0:	8e700030 	lw	s0,48(s3)
    88e4:	8e640030 	lw	a0,48(s3)
    88e8:	0e00020d 	jal	0x8000834
    88ec:	8f250084 	lw	a1,132(t9)
    88f0:	8f8500d0 	lw	a1,208(gp)
    88f4:	00028940 	sll	s1,v0,0x5
    88f8:	0002c100 	sll	t8,v0,0x4
    88fc:	90ae00bc 	lbu	t6,188(a1)
    8900:	02387821 	addu	t7,s1,t8
    8904:	00403021 	move	a2,v0
    8908:	31d40002 	andi	s4,t6,0x2
    890c:	12800003 	beqz	s4,0x891c
    8910:	020f8021 	addu	s0,s0,t7
    8914:	0002a880 	sll	s5,v0,0x2
    8918:	02158021 	addu	s0,s0,s5
    891c:	90b200bc 	lbu	s2,188(a1)
    8920:	32540004 	andi	s4,s2,0x4
    8924:	12800002 	beqz	s4,0x8930
    8928:	0006c880 	sll	t9,a2,0x2
    892c:	02198021 	addu	s0,s0,t9
    8930:	8e6f0030 	lw	t7,48(s3)
    8934:	8f8b00bc 	lw	t3,188(gp)
    8938:	24068000 	li	a2,-32768
    893c:	31ee0003 	andi	t6,t7,0x3
    8940:	000e6823 	negu	t5,t6
    8944:	31ac0003 	andi	t4,t5,0x3
    8948:	020c1021 	addu	v0,s0,t4
    894c:	ad620004 	sw	v0,4(t3)
    8950:	94a400e2 	lhu	a0,226(a1)
    8954:	94aa00e2 	lhu	t2,226(a1)
    8958:	94a300e2 	lhu	v1,226(a1)
    895c:	31507fff 	andi	s0,t2,0x7fff
    8960:	26040001 	addiu	a0,s0,1
    8964:	30897fff 	andi	t1,a0,0x7fff
    8968:	00664024 	and	t0,v1,a2
    896c:	01098825 	or	s1,t0,t1
    8970:	a4b100e2 	sh	s1,226(a1)
    8974:	94a700e2 	lhu	a3,226(a1)
    8978:	3c130800 	lui	s3,0x800
    897c:	8e730060 	lw	s3,96(s3)
    8980:	30ff7fff 	andi	ra,a3,0x7fff
    8984:	13f30012 	beq	ra,s3,0x89d0
    8988:	00000000 	nop
    898c:	0e000d16 	jal	0x8003458
    8990:	00000000 	nop
    8994:	0a000e24 	j	0x8003890
    8998:	00002821 	move	a1,zero
    899c:	94cd00e2 	lhu	t5,226(a2)
    89a0:	01a46024 	and	t4,t5,a0
    89a4:	a4cc00e2 	sh	t4,226(a2)
    89a8:	90cb00e2 	lbu	t3,226(a2)
    89ac:	90c200e2 	lbu	v0,226(a2)
    89b0:	316a00ff 	andi	t2,t3,0xff
    89b4:	000a49c2 	srl	t1,t2,0x7
    89b8:	00092027 	nor	a0,zero,t1
    89bc:	000441c0 	sll	t0,a0,0x7
    89c0:	3055007f 	andi	s5,v0,0x7f
    89c4:	02a83825 	or	a3,s5,t0
    89c8:	0a000e20 	j	0x8003880
    89cc:	a0c700e2 	sb	a3,226(a2)
    89d0:	94b100e2 	lhu	s1,226(a1)
    89d4:	02263824 	and	a3,s1,a2
    89d8:	a4a700e2 	sh	a3,226(a1)
    89dc:	90bf00e2 	lbu	ra,226(a1)
    89e0:	90b400e2 	lbu	s4,226(a1)
    89e4:	33f300ff 	andi	s3,ra,0xff
    89e8:	0013c9c2 	srl	t9,s3,0x7
    89ec:	00199027 	nor	s2,zero,t9
    89f0:	3298007f 	andi	t8,s4,0x7f
    89f4:	0012a9c0 	sll	s5,s2,0x7
    89f8:	03153025 	or	a2,t8,s5
    89fc:	0e000d16 	jal	0x8003458
    8a00:	a0a600e2 	sb	a2,226(a1)
    8a04:	0a000e24 	j	0x8003890
    8a08:	00002821 	move	a1,zero
    8a0c:	3084ffff 	andi	a0,a0,0xffff
    8a10:	30a5ffff 	andi	a1,a1,0xffff
    8a14:	af440018 	sw	a0,24(k0)
    8a18:	af45001c 	sw	a1,28(k0)
    8a1c:	03e00008 	jr	ra
    8a20:	8f420014 	lw	v0,20(k0)
    8a24:	27bdffb0 	addiu	sp,sp,-80
    8a28:	afb00028 	sw	s0,40(sp)
    8a2c:	8f9000d0 	lw	s0,208(gp)
    8a30:	afb40038 	sw	s4,56(sp)
    8a34:	afbf004c 	sw	ra,76(sp)
    8a38:	afbe0048 	sw	s8,72(sp)
    8a3c:	afb70044 	sw	s7,68(sp)
    8a40:	afb60040 	sw	s6,64(sp)
    8a44:	afb5003c 	sw	s5,60(sp)
    8a48:	afb30034 	sw	s3,52(sp)
    8a4c:	afb20030 	sw	s2,48(sp)
    8a50:	afb1002c 	sw	s1,44(sp)
    8a54:	a7a00014 	sh	zero,20(sp)
    8a58:	920600d1 	lbu	a2,209(s0)
    8a5c:	920500d0 	lbu	a1,208(s0)
    8a60:	3094ffff 	andi	s4,a0,0xffff
    8a64:	30c400ff 	andi	a0,a2,0xff
    8a68:	30a300ff 	andi	v1,a1,0xff
    8a6c:	0064102b 	sltu	v0,v1,a0
    8a70:	a7a0001e 	sh	zero,30(sp)
    8a74:	10400071 	beqz	v0,0x8c3c
    8a78:	afa00010 	sw	zero,16(sp)
    8a7c:	920900d0 	lbu	t1,208(s0)
    8a80:	0014982b 	sltu	s3,zero,s4
    8a84:	312800ff 	andi	t0,t1,0xff
    8a88:	00883823 	subu	a3,a0,t0
    8a8c:	24f2ffff 	addiu	s2,a3,-1
    8a90:	0012882b 	sltu	s1,zero,s2
    8a94:	02337824 	and	t7,s1,s3
    8a98:	51e00075 	beqzl	t7,0x8c70
    8a9c:	8fb20010 	lw	s2,16(sp)
    8aa0:	96180012 	lhu	t8,18(s0)
    8aa4:	96190010 	lhu	t9,16(s0)
    8aa8:	0014f400 	sll	s8,s4,0x10
    8aac:	0319b823 	subu	s7,t8,t9
    8ab0:	0017b400 	sll	s6,s7,0x10
    8ab4:	00161403 	sra	v0,s6,0x10
    8ab8:	0282a82a 	slt	s5,s4,v0
    8abc:	16a00002 	bnez	s5,0x8ac8
    8ac0:	001e2403 	sra	a0,s8,0x10
    8ac4:	00402021 	move	a0,v0
    8ac8:	0244f82b 	sltu	ra,s2,a0
    8acc:	13e00002 	beqz	ra,0x8ad8
    8ad0:	00801821 	move	v1,a0
    8ad4:	02401821 	move	v1,s2
    8ad8:	00033400 	sll	a2,v1,0x10
    8adc:	00061c03 	sra	v1,a2,0x10
    8ae0:	3065ffff 	andi	a1,v1,0xffff
    8ae4:	2ca20009 	sltiu	v0,a1,9
    8ae8:	14400002 	bnez	v0,0x8af4
    8aec:	00609821 	move	s3,v1
    8af0:	24130008 	li	s3,8
    8af4:	8e090008 	lw	t1,8(s0)
    8af8:	00135980 	sll	t3,s3,0x6
    8afc:	8e08000c 	lw	t0,12(s0)
    8b00:	3164ffff 	andi	a0,t3,0xffff
    8b04:	3c0a0010 	lui	t2,0x10
    8b08:	008a3825 	or	a3,a0,t2
    8b0c:	274a0400 	addiu	t2,k0,1024
    8b10:	af490038 	sw	t1,56(k0)
    8b14:	af8a00b8 	sw	t2,184(gp)
    8b18:	af48003c 	sw	t0,60(k0)
    8b1c:	af470030 	sw	a3,48(k0)
	...
    8b40:	8f4d0000 	lw	t5,0(k0)
    8b44:	31ac0020 	andi	t4,t5,0x20
    8b48:	1180fffd 	beqz	t4,0x8b40
    8b4c:	0013702a 	slt	t6,zero,s3
    8b50:	01d11024 	and	v0,t6,s1
    8b54:	0000a821 	move	s5,zero
    8b58:	104001c0 	beqz	v0,0x925c
    8b5c:	00000000 	nop
    8b60:	8f9800b0 	lw	t8,176(gp)
    8b64:	3c0b0800 	lui	t3,0x800
    8b68:	8d6b0054 	lw	t3,84(t3)
    8b6c:	2411ff80 	li	s1,-128
    8b70:	921e00d0 	lbu	s8,208(s0)
    8b74:	01782021 	addu	a0,t3,t8
    8b78:	00911024 	and	v0,a0,s1
    8b7c:	921900d0 	lbu	t9,208(s0)
    8b80:	af420028 	sw	v0,40(k0)
    8b84:	8d450010 	lw	a1,16(t2)
    8b88:	3c060800 	lui	a2,0x800
    8b8c:	8cc60058 	lw	a2,88(a2)
    8b90:	3c170800 	lui	s7,0x800
    8b94:	8ef70054 	lw	s7,84(s7)
    8b98:	30a73fff 	andi	a3,a1,0x3fff
    8b9c:	00071980 	sll	v1,a3,0x6
    8ba0:	00c34021 	addu	t0,a2,v1
    8ba4:	03082021 	addu	a0,t8,t0
    8ba8:	0091f824 	and	ra,a0,s1
    8bac:	920b00d0 	lbu	t3,208(s0)
    8bb0:	af5f002c 	sw	ra,44(k0)
    8bb4:	91480000 	lbu	t0,0(t2)
    8bb8:	33d600ff 	andi	s6,s8,0xff
    8bbc:	332f00ff 	andi	t7,t9,0xff
    8bc0:	02f87021 	addu	t6,s7,t8
    8bc4:	00166140 	sll	t4,s6,0x5
    8bc8:	000f68c0 	sll	t5,t7,0x3
    8bcc:	31c9007f 	andi	t1,t6,0x7f
    8bd0:	018d3821 	addu	a3,t4,t5
    8bd4:	013a2821 	addu	a1,t1,k0
    8bd8:	316300ff 	andi	v1,t3,0xff
    8bdc:	3086007f 	andi	a2,a0,0x7f
    8be0:	3c02000c 	lui	v0,0xc
    8be4:	00a2b021 	addu	s6,a1,v0
    8be8:	00038940 	sll	s1,v1,0x5
    8bec:	0367c821 	addu	t9,k1,a3
    8bf0:	00daf821 	addu	ra,a2,k0
    8bf4:	3108003f 	andi	t0,t0,0x3f
    8bf8:	3c1e000e 	lui	s8,0xe
    8bfc:	0236b821 	addu	s7,s1,s6
    8c00:	27380088 	addiu	t8,t9,136
    8c04:	03fe8821 	addu	s1,ra,s8
    8c08:	2d0f0008 	sltiu	t7,t0,8
    8c0c:	af9800ac 	sw	t8,172(gp)
    8c10:	af9700bc 	sw	s7,188(gp)
    8c14:	af9600c0 	sw	s6,192(gp)
    8c18:	11e0018f 	beqz	t7,0x9258
    8c1c:	af9100b4 	sw	s1,180(gp)
    8c20:	00086880 	sll	t5,t0,0x2
    8c24:	3c0e0800 	lui	t6,0x800
    8c28:	25ce59e0 	addiu	t6,t6,23008
    8c2c:	01ae6021 	addu	t4,t5,t6
    8c30:	8d890000 	lw	t1,0(t4)
    8c34:	01200008 	jr	t1
    8c38:	00000000 	nop
    8c3c:	920e00d2 	lbu	t6,210(s0)
    8c40:	920d00d0 	lbu	t5,208(s0)
    8c44:	0014982b 	sltu	s3,zero,s4
    8c48:	31ca00ff 	andi	t2,t6,0xff
    8c4c:	31ac00ff 	andi	t4,t5,0xff
    8c50:	008c5823 	subu	t3,a0,t4
    8c54:	014b2021 	addu	a0,t2,t3
    8c58:	2492ffff 	addiu	s2,a0,-1
    8c5c:	0012882b 	sltu	s1,zero,s2
    8c60:	02337824 	and	t7,s1,s3
    8c64:	15e0ff8e 	bnez	t7,0x8aa0
    8c68:	00000000 	nop
    8c6c:	8fb20010 	lw	s2,16(sp)
    8c70:	8fbf004c 	lw	ra,76(sp)
    8c74:	8fbe0048 	lw	s8,72(sp)
    8c78:	3a420001 	xori	v0,s2,0x1
    8c7c:	8fb70044 	lw	s7,68(sp)
    8c80:	8fb60040 	lw	s6,64(sp)
    8c84:	8fb5003c 	lw	s5,60(sp)
    8c88:	8fb40038 	lw	s4,56(sp)
    8c8c:	8fb30034 	lw	s3,52(sp)
    8c90:	8fb20030 	lw	s2,48(sp)
    8c94:	8fb1002c 	lw	s1,44(sp)
    8c98:	8fb00028 	lw	s0,40(sp)
    8c9c:	03e00008 	jr	ra
    8ca0:	27bd0050 	addiu	sp,sp,80
    8ca4:	91580001 	lbu	t8,1(t2)
    8ca8:	33170020 	andi	s7,t8,0x20
    8cac:	12e00204 	beqz	s7,0x94c0
    8cb0:	24160001 	li	s6,1
    8cb4:	921f00bc 	lbu	ra,188(s0)
    8cb8:	0000b021 	move	s6,zero
    8cbc:	33f90001 	andi	t9,ra,0x1
    8cc0:	1320000d 	beqz	t9,0x8cf8
    8cc4:	241e0001 	li	s8,1
    8cc8:	8d480014 	lw	t0,20(t2)
    8ccc:	8e030084 	lw	v1,132(s0)
    8cd0:	0103b02b 	sltu	s6,t0,v1
    8cd4:	16c00002 	bnez	s6,0x8ce0
    8cd8:	01003021 	move	a2,t0
    8cdc:	8e060084 	lw	a2,132(s0)
    8ce0:	8e050064 	lw	a1,100(s0)
    8ce4:	00c5382b 	sltu	a3,a2,a1
    8ce8:	14e00002 	bnez	a3,0x8cf4
    8cec:	00c02021 	move	a0,a2
    8cf0:	8e040064 	lw	a0,100(s0)
    8cf4:	0080b021 	move	s6,a0
    8cf8:	8d420014 	lw	v0,20(t2)
    8cfc:	8e0b0064 	lw	t3,100(s0)
    8d00:	004b302b 	sltu	a2,v0,t3
    8d04:	14c00002 	bnez	a2,0x8d10
    8d08:	00402021 	move	a0,v0
    8d0c:	8e040064 	lw	a0,100(s0)
    8d10:	0096b823 	subu	s7,a0,s6
    8d14:	56e00001 	bnezl	s7,0x8d1c
    8d18:	241e0002 	li	s8,2
    8d1c:	025e202b 	sltu	a0,s2,s8
    8d20:	14800148 	bnez	a0,0x9244
    8d24:	00001821 	move	v1,zero
    8d28:	8d590038 	lw	t9,56(t2)
    8d2c:	8e2f000c 	lw	t7,12(s1)
    8d30:	3c180080 	lui	t8,0x80
    8d34:	ae390000 	sw	t9,0(s1)
    8d38:	8d500034 	lw	s0,52(t2)
    8d3c:	3c0eff9f 	lui	t6,0xff9f
    8d40:	01f86025 	or	t4,t7,t8
    8d44:	ae300004 	sw	s0,4(s1)
    8d48:	9149003f 	lbu	t1,63(t2)
    8d4c:	35cdffff 	ori	t5,t6,0xffff
    8d50:	018d2024 	and	a0,t4,t5
    8d54:	3c0a0020 	lui	t2,0x20
    8d58:	3c0bffef 	lui	t3,0xffef
    8d5c:	a229000b 	sb	t1,11(s1)
    8d60:	008a3825 	or	a3,a0,t2
    8d64:	3562ffff 	ori	v0,t3,0xffff
    8d68:	00e22824 	and	a1,a3,v0
    8d6c:	3c060008 	lui	a2,0x8
    8d70:	8f8700b8 	lw	a3,184(gp)
    8d74:	00a6c825 	or	t9,a1,a2
    8d78:	ae39000c 	sw	t9,12(s1)
    8d7c:	8ce30014 	lw	v1,20(a3)
    8d80:	ae200018 	sw	zero,24(s1)
    8d84:	3c08fffb 	lui	t0,0xfffb
    8d88:	ae230014 	sw	v1,20(s1)
    8d8c:	8cf80018 	lw	t8,24(a3)
    8d90:	351fffff 	ori	ra,t0,0xffff
    8d94:	033f7024 	and	t6,t9,ra
    8d98:	ae38001c 	sw	t8,28(s1)
    8d9c:	8cef0008 	lw	t7,8(a3)
    8da0:	02d78021 	addu	s0,s6,s7
    8da4:	ae2f0024 	sw	t7,36(s1)
    8da8:	8ced000c 	lw	t5,12(a3)
    8dac:	ae30002c 	sw	s0,44(s1)
    8db0:	ae2e000c 	sw	t6,12(s1)
    8db4:	ae2d0020 	sw	t5,32(s1)
    8db8:	ae200028 	sw	zero,40(s1)
    8dbc:	a6200038 	sh	zero,56(s1)
    8dc0:	a620003a 	sh	zero,58(s1)
    8dc4:	8cec0014 	lw	t4,20(a3)
    8dc8:	01964823 	subu	t1,t4,s6
    8dcc:	01375023 	subu	t2,t1,s7
    8dd0:	11400011 	beqz	t2,0x8e18
    8dd4:	ae2a0010 	sw	t2,16(s1)
    8dd8:	90ee003d 	lbu	t6,61(a3)
    8ddc:	8e2c0004 	lw	t4,4(s1)
    8de0:	8e240000 	lw	a0,0(s1)
    8de4:	000e6900 	sll	t5,t6,0x4
    8de8:	018d2821 	addu	a1,t4,t5
    8dec:	00005021 	move	t2,zero
    8df0:	00ad302b 	sltu	a2,a1,t5
    8df4:	008a5821 	addu	t3,a0,t2
    8df8:	01661021 	addu	v0,t3,a2
    8dfc:	ae250004 	sw	a1,4(s1)
    8e00:	ae220000 	sw	v0,0(s1)
    8e04:	90e3003d 	lbu	v1,61(a3)
    8e08:	a223000a 	sb	v1,10(s1)
    8e0c:	8f8800b8 	lw	t0,184(gp)
    8e10:	951f0006 	lhu	ra,6(t0)
    8e14:	a63f0008 	sh	ra,8(s1)
    8e18:	8f8b00ac 	lw	t3,172(gp)
    8e1c:	24060002 	li	a2,2
    8e20:	02c02021 	move	a0,s6
    8e24:	a1660000 	sb	a2,0(t3)
    8e28:	9765003c 	lhu	a1,60(k1)
    8e2c:	8f9000ac 	lw	s0,172(gp)
    8e30:	30a2ffff 	andi	v0,a1,0xffff
    8e34:	0e000cf6 	jal	0x80033d8
    8e38:	afa20020 	sw	v0,32(sp)
    8e3c:	8fa30020 	lw	v1,32(sp)
    8e40:	00024380 	sll	t0,v0,0xe
    8e44:	8f8500b8 	lw	a1,184(gp)
    8e48:	0103c825 	or	t9,t0,v1
    8e4c:	3c1f4200 	lui	ra,0x4200
    8e50:	033fc025 	or	t8,t9,ra
    8e54:	ae180004 	sw	t8,4(s0)
    8e58:	8f8400ac 	lw	a0,172(gp)
    8e5c:	8caf0038 	lw	t7,56(a1)
    8e60:	ac8f0018 	sw	t7,24(a0)
    8e64:	8cb00034 	lw	s0,52(a1)
    8e68:	ac90001c 	sw	s0,28(a0)
    8e6c:	ac80000c 	sw	zero,12(a0)
    8e70:	ac800010 	sw	zero,16(a0)
    8e74:	a4800014 	sh	zero,20(a0)
    8e78:	a4800016 	sh	zero,22(a0)
    8e7c:	a4800020 	sh	zero,32(a0)
    8e80:	a4800022 	sh	zero,34(a0)
    8e84:	ac800024 	sw	zero,36(a0)
    8e88:	90a7003f 	lbu	a3,63(a1)
    8e8c:	a4870002 	sh	a3,2(a0)
    8e90:	12c00210 	beqz	s6,0x96d4
    8e94:	240d0001 	li	t5,1
    8e98:	52e00002 	beqzl	s7,0x8ea4
    8e9c:	90a2003d 	lbu	v0,61(a1)
    8ea0:	90a2003e 	lbu	v0,62(a1)
    8ea4:	244a0001 	addiu	t2,v0,1
    8ea8:	a08a0001 	sb	t2,1(a0)
    8eac:	8f8400ac 	lw	a0,172(gp)
    8eb0:	ac960008 	sw	s6,8(a0)
    8eb4:	8f8300d0 	lw	v1,208(gp)
    8eb8:	24070034 	li	a3,52
    8ebc:	906f00bc 	lbu	t7,188(v1)
    8ec0:	31ee0002 	andi	t6,t7,0x2
    8ec4:	51c00001 	beqzl	t6,0x8ecc
    8ec8:	24070030 	li	a3,48
    8ecc:	8f8200b8 	lw	v0,184(gp)
    8ed0:	8f9900bc 	lw	t9,188(gp)
    8ed4:	906800bc 	lbu	t0,188(v1)
    8ed8:	905f0000 	lbu	ra,0(v0)
    8edc:	24100004 	li	s0,4
    8ee0:	32cf0003 	andi	t7,s6,0x3
    8ee4:	a33f0000 	sb	ra,0(t9)
    8ee8:	8f9800b8 	lw	t8,184(gp)
    8eec:	8f8c00bc 	lw	t4,188(gp)
    8ef0:	020f7023 	subu	t6,s0,t7
    8ef4:	930d0001 	lbu	t5,1(t8)
    8ef8:	2405c000 	li	a1,-16384
    8efc:	31ca0003 	andi	t2,t6,0x3
    8f00:	a18d0001 	sb	t5,1(t4)
    8f04:	8f9000bc 	lw	s0,188(gp)
    8f08:	8f8900b8 	lw	t1,184(gp)
    8f0c:	00f63821 	addu	a3,a3,s6
    8f10:	96040002 	lhu	a0,2(s0)
    8f14:	95260012 	lhu	a2,18(t1)
    8f18:	00ea3821 	addu	a3,a3,t2
    8f1c:	00855824 	and	t3,a0,a1
    8f20:	30c33fff 	andi	v1,a2,0x3fff
    8f24:	01631025 	or	v0,t3,v1
    8f28:	a6020002 	sh	v0,2(s0)
    8f2c:	921f0002 	lbu	ra,2(s0)
    8f30:	31080004 	andi	t0,t0,0x4
    8f34:	33f9003f 	andi	t9,ra,0x3f
    8f38:	37380040 	ori	t8,t9,0x40
    8f3c:	a2180002 	sb	t8,2(s0)
    8f40:	12c00002 	beqz	s6,0x8f4c
    8f44:	8f8500bc 	lw	a1,188(gp)
    8f48:	00e83821 	addu	a3,a3,t0
    8f4c:	8f8600d0 	lw	a2,208(gp)
    8f50:	aca70004 	sw	a3,4(a1)
    8f54:	241fffbf 	li	ra,-65
    8f58:	8cc3007c 	lw	v1,124(a2)
    8f5c:	2ecb0001 	sltiu	t3,s6,1
    8f60:	240fffdf 	li	t7,-33
    8f64:	aca30008 	sw	v1,8(a1)
    8f68:	90a8000d 	lbu	t0,13(a1)
    8f6c:	000b6940 	sll	t5,t3,0x5
    8f70:	3102007f 	andi	v0,t0,0x7f
    8f74:	a0a2000d 	sb	v0,13(a1)
    8f78:	8f9000bc 	lw	s0,188(gp)
    8f7c:	9219000d 	lbu	t9,13(s0)
    8f80:	033fc024 	and	t8,t9,ra
    8f84:	a218000d 	sb	t8,13(s0)
    8f88:	8f8a00bc 	lw	t2,188(gp)
    8f8c:	914e000d 	lbu	t6,13(t2)
    8f90:	01cf6024 	and	t4,t6,t7
    8f94:	018d4825 	or	t1,t4,t5
    8f98:	a149000d 	sb	t1,13(t2)
    8f9c:	8f8600b8 	lw	a2,184(gp)
    8fa0:	8f8b00bc 	lw	t3,188(gp)
    8fa4:	8cc70020 	lw	a3,32(a2)
    8fa8:	ad670010 	sw	a3,16(t3)
    8fac:	8cc50024 	lw	a1,36(a2)
    8fb0:	ad650014 	sw	a1,20(t3)
    8fb4:	8cc40028 	lw	a0,40(a2)
    8fb8:	ad640018 	sw	a0,24(t3)
    8fbc:	8cc3002c 	lw	v1,44(a2)
    8fc0:	0e000d16 	jal	0x8003458
    8fc4:	ad63001c 	sw	v1,28(t3)
    8fc8:	24080002 	li	t0,2
    8fcc:	57c8009c 	bnel	s8,t0,0x9240
    8fd0:	8f9000d0 	lw	s0,208(gp)
    8fd4:	8f8f00d0 	lw	t7,208(gp)
    8fd8:	8f8a00c0 	lw	t2,192(gp)
    8fdc:	02e02021 	move	a0,s7
    8fe0:	91e800d0 	lbu	t0,208(t7)
    8fe4:	91eb00d0 	lbu	t3,208(t7)
    8fe8:	91e700d0 	lbu	a3,208(t7)
    8fec:	311000ff 	andi	s0,t0,0xff
    8ff0:	316e00ff 	andi	t6,t3,0xff
    8ff4:	00106940 	sll	t5,s0,0x5
    8ff8:	000e28c0 	sll	a1,t6,0x3
    8ffc:	01a51821 	addu	v1,t5,a1
    9000:	30e900ff 	andi	t1,a3,0xff
    9004:	0363c821 	addu	t9,k1,v1
    9008:	00093140 	sll	a2,t1,0x5
    900c:	00caf821 	addu	ra,a2,t2
    9010:	27220088 	addiu	v0,t9,136
    9014:	af8200ac 	sw	v0,172(gp)
    9018:	af9f00bc 	sw	ra,188(gp)
    901c:	a33e0088 	sb	s8,136(t9)
    9020:	0e000cf6 	jal	0x80033d8
    9024:	8f9000ac 	lw	s0,172(gp)
    9028:	8fb80020 	lw	t8,32(sp)
    902c:	00026380 	sll	t4,v0,0xe
    9030:	3c0f4200 	lui	t7,0x4200
    9034:	01984025 	or	t0,t4,t8
    9038:	8f8c00b8 	lw	t4,184(gp)
    903c:	010f5825 	or	t3,t0,t7
    9040:	ae0b0004 	sw	t3,4(s0)
    9044:	8d840038 	lw	a0,56(t4)
    9048:	8f8b00ac 	lw	t3,172(gp)
    904c:	00002821 	move	a1,zero
    9050:	00053900 	sll	a3,a1,0x4
    9054:	ad640018 	sw	a0,24(t3)
    9058:	8d8e0034 	lw	t6,52(t4)
    905c:	3c0f7fff 	lui	t7,0x7fff
    9060:	35e8ffff 	ori	t0,t7,0xffff
    9064:	ad6e001c 	sw	t6,28(t3)
    9068:	9183003e 	lbu	v1,62(t4)
    906c:	8d69001c 	lw	t1,28(t3)
    9070:	8d660018 	lw	a2,24(t3)
    9074:	00035100 	sll	t2,v1,0x4
    9078:	00036f02 	srl	t5,v1,0x1c
    907c:	012ac021 	addu	t8,t1,t2
    9080:	00ed1025 	or	v0,a3,t5
    9084:	030af82b 	sltu	ra,t8,t2
    9088:	00c2c821 	addu	t9,a2,v0
    908c:	033f8021 	addu	s0,t9,ra
    9090:	ad78001c 	sw	t8,28(t3)
    9094:	ad700018 	sw	s0,24(t3)
    9098:	ad60000c 	sw	zero,12(t3)
    909c:	ad600010 	sw	zero,16(t3)
    90a0:	9184003e 	lbu	a0,62(t4)
    90a4:	241f0005 	li	ra,5
    90a8:	2410c000 	li	s0,-16384
    90ac:	a5640014 	sh	a0,20(t3)
    90b0:	958e0004 	lhu	t6,4(t4)
    90b4:	02e84024 	and	t0,s7,t0
    90b8:	02e02021 	move	a0,s7
    90bc:	a56e0016 	sh	t6,22(t3)
    90c0:	9185003e 	lbu	a1,62(t4)
    90c4:	a5650020 	sh	a1,32(t3)
    90c8:	958d0004 	lhu	t5,4(t4)
    90cc:	a56d0022 	sh	t5,34(t3)
    90d0:	ad600024 	sw	zero,36(t3)
    90d4:	9187003f 	lbu	a3,63(t4)
    90d8:	a5670002 	sh	a3,2(t3)
    90dc:	9183003e 	lbu	v1,62(t4)
    90e0:	9189003d 	lbu	t1,61(t4)
    90e4:	01235023 	subu	t2,t1,v1
    90e8:	25460001 	addiu	a2,t2,1
    90ec:	a1660001 	sb	a2,1(t3)
    90f0:	8f8200ac 	lw	v0,172(gp)
    90f4:	8f9900bc 	lw	t9,188(gp)
    90f8:	ac570008 	sw	s7,8(v0)
    90fc:	a33f0000 	sb	ra,0(t9)
    9100:	8f8a00bc 	lw	t2,188(gp)
    9104:	8f9800b8 	lw	t8,184(gp)
    9108:	954f0002 	lhu	t7,2(t2)
    910c:	970e0012 	lhu	t6,18(t8)
    9110:	2418ffbf 	li	t8,-65
    9114:	020f6824 	and	t5,s0,t7
    9118:	31c53fff 	andi	a1,t6,0x3fff
    911c:	01a53825 	or	a3,t5,a1
    9120:	a5470002 	sh	a3,2(t2)
    9124:	914c0002 	lbu	t4,2(t2)
    9128:	2405ffdf 	li	a1,-33
    912c:	3189003f 	andi	t1,t4,0x3f
    9130:	35230040 	ori	v1,t1,0x40
    9134:	a1430002 	sb	v1,2(t2)
    9138:	8f9900bc 	lw	t9,188(gp)
    913c:	8f8600d0 	lw	a2,208(gp)
    9140:	2409ffff 	li	t1,-1
    9144:	af200004 	sw	zero,4(t9)
    9148:	8ccb007c 	lw	t3,124(a2)
    914c:	2403ff80 	li	v1,-128
    9150:	af2b0008 	sw	t3,8(t9)
    9154:	9322000d 	lbu	v0,13(t9)
    9158:	3c0b8000 	lui	t3,0x8000
    915c:	305f007f 	andi	ra,v0,0x7f
    9160:	a33f000d 	sb	ra,13(t9)
    9164:	8f8e00bc 	lw	t6,188(gp)
    9168:	91d0000d 	lbu	s0,13(t6)
    916c:	02187824 	and	t7,s0,t8
    9170:	a1cf000d 	sb	t7,13(t6)
    9174:	8f8c00bc 	lw	t4,188(gp)
    9178:	918d000d 	lbu	t5,13(t4)
    917c:	01a53824 	and	a3,t5,a1
    9180:	a187000d 	sb	a3,13(t4)
    9184:	8f8600bc 	lw	a2,188(gp)
    9188:	acc90010 	sw	t1,16(a2)
    918c:	acd60014 	sw	s6,20(a2)
    9190:	90ca0018 	lbu	t2,24(a2)
    9194:	0143b025 	or	s6,t2,v1
    9198:	a0d60018 	sb	s6,24(a2)
    919c:	8f8f00bc 	lw	t7,188(gp)
    91a0:	8f9800b8 	lw	t8,184(gp)
    91a4:	8de20018 	lw	v0,24(t7)
    91a8:	004bf824 	and	ra,v0,t3
    91ac:	03e8c825 	or	t9,ra,t0
    91b0:	adf90018 	sw	t9,24(t7)
    91b4:	9310003e 	lbu	s0,62(t8)
    91b8:	a1f0001c 	sb	s0,28(t7)
    91bc:	8f8e00b8 	lw	t6,184(gp)
    91c0:	8f8d00bc 	lw	t5,188(gp)
    91c4:	8f8700d0 	lw	a3,208(gp)
    91c8:	95c50004 	lhu	a1,4(t6)
    91cc:	a5a5001e 	sh	a1,30(t5)
    91d0:	0e00020d 	jal	0x8000834
    91d4:	8ce50084 	lw	a1,132(a3)
    91d8:	8f8700d0 	lw	a3,208(gp)
    91dc:	00026140 	sll	t4,v0,0x5
    91e0:	00022100 	sll	a0,v0,0x4
    91e4:	90ea00bc 	lbu	t2,188(a3)
    91e8:	01844821 	addu	t1,t4,a0
    91ec:	00402821 	move	a1,v0
    91f0:	31560002 	andi	s6,t2,0x2
    91f4:	12c00003 	beqz	s6,0x9204
    91f8:	02e93021 	addu	a2,s7,t1
    91fc:	0002b080 	sll	s6,v0,0x2
    9200:	00d63021 	addu	a2,a2,s6
    9204:	90ec00bc 	lbu	t4,188(a3)
    9208:	31840004 	andi	a0,t4,0x4
    920c:	10800003 	beqz	a0,0x921c
    9210:	32ea0003 	andi	t2,s7,0x3
    9214:	0005c080 	sll	t8,a1,0x2
    9218:	00d83021 	addu	a2,a2,t8
    921c:	24090004 	li	t1,4
    9220:	8f9700bc 	lw	s7,188(gp)
    9224:	012a1023 	subu	v0,t1,t2
    9228:	305f0003 	andi	ra,v0,0x3
    922c:	00dfc821 	addu	t9,a2,ra
    9230:	aef90004 	sw	t9,4(s7)
    9234:	0e000d16 	jal	0x8003458
    9238:	a6250038 	sh	a1,56(s1)
    923c:	8f9000d0 	lw	s0,208(gp)
    9240:	03c01821 	move	v1,s8
    9244:	14600002 	bnez	v1,0x9250
    9248:	0060b021 	move	s6,v1
    924c:	00009021 	move	s2,zero
    9250:	56c00086 	bnezl	s6,0x946c
    9254:	8f9700b8 	lw	s7,184(gp)
    9258:	0012882b 	sltu	s1,zero,s2
    925c:	96090010 	lhu	t1,16(s0)
    9260:	02955023 	subu	t2,s4,s5
    9264:	3c140020 	lui	s4,0x20
    9268:	02a91021 	addu	v0,s5,t1
    926c:	a6020010 	sh	v0,16(s0)
    9270:	af540030 	sw	s4,48(k0)
    9274:	3154ffff 	andi	s4,t2,0xffff
    9278:	00000000 	nop
    927c:	96130010 	lhu	s3,16(s0)
    9280:	961f0012 	lhu	ra,18(s0)
    9284:	13f30011 	beq	ra,s3,0x92cc
    9288:	00000000 	nop
    928c:	8e17000c 	lw	s7,12(s0)
    9290:	8e0c0008 	lw	t4,8(s0)
    9294:	0015c980 	sll	t9,s5,0x6
    9298:	02f94021 	addu	t0,s7,t9
    929c:	001927c3 	sra	a0,t9,0x1f
    92a0:	0119b02b 	sltu	s6,t0,t9
    92a4:	01847821 	addu	t7,t4,a0
    92a8:	01f65821 	addu	t3,t7,s6
    92ac:	ae08000c 	sw	t0,12(s0)
    92b0:	ae0b0008 	sw	t3,8(s0)
    92b4:	0014a82b 	sltu	s5,zero,s4
    92b8:	02358024 	and	s0,s1,s5
    92bc:	1200fe6b 	beqz	s0,0x8c6c
    92c0:	8f9000d0 	lw	s0,208(gp)
    92c4:	0a000f3f 	j	0x8003cfc
    92c8:	00000000 	nop
    92cc:	960b0014 	lhu	t3,20(s0)
    92d0:	8e050004 	lw	a1,4(s0)
    92d4:	3163ffff 	andi	v1,t3,0xffff
    92d8:	000370c0 	sll	t6,v1,0x3
    92dc:	00ae3821 	addu	a3,a1,t6
    92e0:	af47003c 	sw	a3,60(k0)
    92e4:	8e060004 	lw	a2,4(s0)
    92e8:	8f4d003c 	lw	t5,60(k0)
    92ec:	00cdf023 	subu	s8,a2,t5
    92f0:	1bc00036 	blez	s8,0x93cc
    92f4:	00000000 	nop
    92f8:	8e080000 	lw	t0,0(s0)
    92fc:	25020001 	addiu	v0,t0,1
    9300:	3c160010 	lui	s6,0x10
    9304:	36cf0008 	ori	t7,s6,0x8
    9308:	af420038 	sw	v0,56(k0)
    930c:	af4f0030 	sw	t7,48(k0)
	...
    9330:	8f440000 	lw	a0,0(k0)
    9334:	308c0020 	andi	t4,a0,0x20
    9338:	1180fffd 	beqz	t4,0x9330
    933c:	00000000 	nop
    9340:	8f590400 	lw	t9,1024(k0)
    9344:	3c170020 	lui	s7,0x20
    9348:	ae190008 	sw	t9,8(s0)
    934c:	8f550404 	lw	s5,1028(k0)
    9350:	ae15000c 	sw	s5,12(s0)
    9354:	af570030 	sw	s7,48(k0)
    9358:	00000000 	nop
    935c:	3c060800 	lui	a2,0x800
    9360:	8cc60044 	lw	a2,68(a2)
    9364:	24180001 	li	t8,1
    9368:	10d800d3 	beq	a2,t8,0x96b8
    936c:	00000000 	nop
    9370:	96070012 	lhu	a3,18(s0)
    9374:	3c050800 	lui	a1,0x800
    9378:	8ca50040 	lw	a1,64(a1)
    937c:	00a76821 	addu	t5,a1,a3
    9380:	a60d0012 	sh	t5,18(s0)
    9384:	961e0014 	lhu	s8,20(s0)
    9388:	27c90001 	addiu	t1,s8,1
    938c:	a6090014 	sh	t1,20(s0)
    9390:	96020014 	lhu	v0,20(s0)
    9394:	3044ffff 	andi	a0,v0,0xffff
    9398:	5486ffc7 	bnel	a0,a2,0x92b8
    939c:	0014a82b 	sltu	s5,zero,s4
    93a0:	30a5ffff 	andi	a1,a1,0xffff
    93a4:	0e000f1a 	jal	0x8003c68
    93a8:	a6000014 	sh	zero,20(s0)
    93ac:	3c030800 	lui	v1,0x800
    93b0:	8c630024 	lw	v1,36(v1)
    93b4:	96050012 	lhu	a1,18(s0)
    93b8:	00437023 	subu	t6,v0,v1
    93bc:	00ae3023 	subu	a2,a1,t6
    93c0:	a6060012 	sh	a2,18(s0)
    93c4:	0a001145 	j	0x8004514
    93c8:	0014a82b 	sltu	s5,zero,s4
    93cc:	8e020000 	lw	v0,0(s0)
    93d0:	0a001158 	j	0x8004560
    93d4:	3c160010 	lui	s6,0x10
    93d8:	91560001 	lbu	s6,1(t2)
    93dc:	24100001 	li	s0,1
    93e0:	00167842 	srl	t7,s6,0x1
    93e4:	15f0001c 	bne	t7,s0,0x9458
    93e8:	97a8001e 	lhu	t0,30(sp)
    93ec:	8d5f0014 	lw	ra,20(t2)
    93f0:	2411c000 	li	s1,-16384
    93f4:	33fe3fff 	andi	s8,ra,0x3fff
    93f8:	0111c824 	and	t9,t0,s1
    93fc:	3c180800 	lui	t8,0x800
    9400:	8f180060 	lw	t8,96(t8)
    9404:	033eb825 	or	s7,t9,s8
    9408:	32e53fff 	andi	a1,s7,0x3fff
    940c:	00b8502b 	sltu	t2,a1,t8
    9410:	11400011 	beqz	t2,0x9458
    9414:	a7b7001e 	sh	s7,30(sp)
    9418:	3c100800 	lui	s0,0x800
    941c:	8e100058 	lw	s0,88(s0)
    9420:	8f8f00b0 	lw	t7,176(gp)
    9424:	00057180 	sll	t6,a1,0x6
    9428:	240cff80 	li	t4,-128
    942c:	020f6821 	addu	t5,s0,t7
    9430:	01ae4821 	addu	t1,t5,t6
    9434:	3124007f 	andi	a0,t1,0x7f
    9438:	012c5824 	and	t3,t1,t4
    943c:	009a2821 	addu	a1,a0,k0
    9440:	3c02000e 	lui	v0,0xe
    9444:	af4b002c 	sw	t3,44(k0)
    9448:	00a23021 	addu	a2,a1,v0
    944c:	90c7000d 	lbu	a3,13(a2)
    9450:	34e30004 	ori	v1,a3,0x4
    9454:	a0c3000d 	sb	v1,13(a2)
    9458:	0e000d38 	jal	0x80034e0
    945c:	00000000 	nop
    9460:	8f9000d0 	lw	s0,208(gp)
    9464:	24030001 	li	v1,1
    9468:	8f9700b8 	lw	s7,184(gp)
    946c:	26b90001 	addiu	t9,s5,1
    9470:	0019ac00 	sll	s5,t9,0x10
    9474:	02439023 	subu	s2,s2,v1
    9478:	0015ac03 	sra	s5,s5,0x10
    947c:	26f80040 	addiu	t8,s7,64
    9480:	02b3202a 	slt	a0,s5,s3
    9484:	0012882b 	sltu	s1,zero,s2
    9488:	240c0001 	li	t4,1
    948c:	03005021 	move	t2,t8
    9490:	00911024 	and	v0,a0,s1
    9494:	af9800b8 	sw	t8,184(gp)
    9498:	0a000f6d 	j	0x8003db4
    949c:	afac0010 	sw	t4,16(sp)
    94a0:	95560012 	lhu	s6,18(t2)
    94a4:	8f8400b0 	lw	a0,176(gp)
    94a8:	32c5ffff 	andi	a1,s6,0xffff
    94ac:	0e000ceb 	jal	0x80033ac
    94b0:	a7b60014 	sh	s6,20(sp)
    94b4:	8f9000d0 	lw	s0,208(gp)
    94b8:	0a0011b1 	j	0x80046c4
    94bc:	00001821 	move	v1,zero
    94c0:	8d590038 	lw	t9,56(t2)
    94c4:	a6200008 	sh	zero,8(s1)
    94c8:	24040003 	li	a0,3
    94cc:	ae390000 	sw	t9,0(s1)
    94d0:	8d570034 	lw	s7,52(t2)
    94d4:	a220000a 	sb	zero,10(s1)
    94d8:	8f9800b8 	lw	t8,184(gp)
    94dc:	ae370004 	sw	s7,4(s1)
    94e0:	3c0f0080 	lui	t7,0x80
    94e4:	930c003f 	lbu	t4,63(t8)
    94e8:	a224000c 	sb	a0,12(s1)
    94ec:	8e28000c 	lw	t0,12(s1)
    94f0:	3c0bff9f 	lui	t3,0xff9f
    94f4:	a22c000b 	sb	t4,11(s1)
    94f8:	010f1825 	or	v1,t0,t7
    94fc:	356effff 	ori	t6,t3,0xffff
    9500:	3c05ffef 	lui	a1,0xffef
    9504:	8f9700b8 	lw	s7,184(gp)
    9508:	006e6824 	and	t5,v1,t6
    950c:	34a7ffff 	ori	a3,a1,0xffff
    9510:	01a73024 	and	a2,t5,a3
    9514:	ae26000c 	sw	a2,12(s1)
    9518:	8efe0014 	lw	s8,20(s7)
    951c:	96ff0012 	lhu	ra,18(s7)
    9520:	8f8200b0 	lw	v0,176(gp)
    9524:	ae3e0010 	sw	s8,16(s1)
    9528:	8ef00014 	lw	s0,20(s7)
    952c:	ae200018 	sw	zero,24(s1)
    9530:	ae200020 	sw	zero,32(s1)
    9534:	ae300014 	sw	s0,20(s1)
    9538:	ae200024 	sw	zero,36(s1)
    953c:	8ee90018 	lw	t1,24(s7)
    9540:	33f03fff 	andi	s0,ra,0x3fff
    9544:	00105180 	sll	t2,s0,0x6
    9548:	ae290028 	sw	t1,40(s1)
    954c:	8ef90008 	lw	t9,8(s7)
    9550:	0142c021 	addu	t8,t2,v0
    9554:	33ec0001 	andi	t4,ra,0x1
    9558:	ae390030 	sw	t9,48(s1)
    955c:	8eeb000c 	lw	t3,12(s7)
    9560:	8f8500ac 	lw	a1,172(gp)
    9564:	001879c2 	srl	t7,t8,0x7
    9568:	000c2380 	sll	a0,t4,0xe
    956c:	01e44021 	addu	t0,t7,a0
    9570:	240e0002 	li	t6,2
    9574:	a628001c 	sh	t0,28(s1)
    9578:	a6200036 	sh	zero,54(s1)
    957c:	ae2b002c 	sw	t3,44(s1)
    9580:	a0ae0000 	sb	t6,0(a1)
    9584:	9767003c 	lhu	a3,60(k1)
    9588:	8f8a00ac 	lw	t2,172(gp)
    958c:	3c034200 	lui	v1,0x4200
    9590:	30edffff 	andi	t5,a3,0xffff
    9594:	01a33025 	or	a2,t5,v1
    9598:	ad460004 	sw	a2,4(t2)
    959c:	8f9e00b8 	lw	s8,184(gp)
    95a0:	24020001 	li	v0,1
    95a4:	2408c000 	li	t0,-16384
    95a8:	8fd10038 	lw	s1,56(s8)
    95ac:	24060034 	li	a2,52
    95b0:	ad510018 	sw	s1,24(t2)
    95b4:	8fc90034 	lw	t1,52(s8)
    95b8:	ad49001c 	sw	t1,28(t2)
    95bc:	ad40000c 	sw	zero,12(t2)
    95c0:	ad400010 	sw	zero,16(t2)
    95c4:	a5400014 	sh	zero,20(t2)
    95c8:	a5400016 	sh	zero,22(t2)
    95cc:	a5400020 	sh	zero,32(t2)
    95d0:	a5400022 	sh	zero,34(t2)
    95d4:	ad400024 	sw	zero,36(t2)
    95d8:	a5560002 	sh	s6,2(t2)
    95dc:	a1420001 	sb	v0,1(t2)
    95e0:	8f9f00ac 	lw	ra,172(gp)
    95e4:	8f9900b8 	lw	t9,184(gp)
    95e8:	8f9800bc 	lw	t8,188(gp)
    95ec:	aff60008 	sw	s6,8(ra)
    95f0:	93370000 	lbu	s7,0(t9)
    95f4:	a3170000 	sb	s7,0(t8)
    95f8:	8f8c00b8 	lw	t4,184(gp)
    95fc:	8f8f00bc 	lw	t7,188(gp)
    9600:	91840001 	lbu	a0,1(t4)
    9604:	a1e40001 	sb	a0,1(t7)
    9608:	8f8d00bc 	lw	t5,188(gp)
    960c:	95ab0002 	lhu	t3,2(t5)
    9610:	01687024 	and	t6,t3,t0
    9614:	01d02825 	or	a1,t6,s0
    9618:	a5a50002 	sh	a1,2(t5)
    961c:	91a70002 	lbu	a3,2(t5)
    9620:	30e3003f 	andi	v1,a3,0x3f
    9624:	a1a30002 	sb	v1,2(t5)
    9628:	8f8300d0 	lw	v1,208(gp)
    962c:	8f8400bc 	lw	a0,188(gp)
    9630:	907100bc 	lbu	s1,188(v1)
    9634:	323e0002 	andi	s8,s1,0x2
    9638:	53c00001 	beqzl	s8,0x9640
    963c:	24060030 	li	a2,48
    9640:	ac860004 	sw	a2,4(a0)
    9644:	8c6f007c 	lw	t7,124(v1)
    9648:	2403ffbf 	li	v1,-65
    964c:	ac8f0008 	sw	t7,8(a0)
    9650:	9088000d 	lbu	t0,13(a0)
    9654:	310b007f 	andi	t3,t0,0x7f
    9658:	a08b000d 	sb	t3,13(a0)
    965c:	8f8700bc 	lw	a3,188(gp)
    9660:	90ee000d 	lbu	t6,13(a3)
    9664:	01c32824 	and	a1,t6,v1
    9668:	a0e5000d 	sb	a1,13(a3)
    966c:	8f9e00bc 	lw	s8,188(gp)
    9670:	93cd000d 	lbu	t5,13(s8)
    9674:	35a60020 	ori	a2,t5,0x20
    9678:	a3c6000d 	sb	a2,13(s8)
    967c:	8f8a00b8 	lw	t2,184(gp)
    9680:	8f9100bc 	lw	s1,188(gp)
    9684:	8d500020 	lw	s0,32(t2)
    9688:	ae300010 	sw	s0,16(s1)
    968c:	8d490024 	lw	t1,36(t2)
    9690:	ae290014 	sw	t1,20(s1)
    9694:	8d420028 	lw	v0,40(t2)
    9698:	ae220018 	sw	v0,24(s1)
    969c:	8d5f002c 	lw	ra,44(t2)
    96a0:	ae3f001c 	sw	ra,28(s1)
    96a4:	0e000d16 	jal	0x8003458
    96a8:	00000000 	nop
    96ac:	8f9000d0 	lw	s0,208(gp)
    96b0:	0a00112b 	j	0x80044ac
    96b4:	02c01821 	move	v1,s6
    96b8:	960a0012 	lhu	t2,18(s0)
    96bc:	3c1f0800 	lui	ra,0x800
    96c0:	8fff0024 	lw	ra,36(ra)
    96c4:	03ea9821 	addu	s3,ra,t2
    96c8:	a6130012 	sh	s3,18(s0)
    96cc:	0a001145 	j	0x8004514
    96d0:	0014a82b 	sltu	s5,zero,s4
    96d4:	a08d0001 	sb	t5,1(a0)
    96d8:	8f8900ac 	lw	t1,172(gp)
    96dc:	240c0001 	li	t4,1
    96e0:	ad2c0008 	sw	t4,8(t1)
    96e4:	0a001045 	j	0x8004114
    96e8:	8f8300d0 	lw	v1,208(gp)
    96ec:	27bdffe0 	addiu	sp,sp,-32
    96f0:	3c180800 	lui	t8,0x800
    96f4:	8f180050 	lw	t8,80(t8)
    96f8:	afb00010 	sw	s0,16(sp)
    96fc:	afbf0018 	sw	ra,24(sp)
    9700:	afb10014 	sw	s1,20(sp)
    9704:	af8400b0 	sw	a0,176(gp)
    9708:	93710074 	lbu	s1,116(k1)
    970c:	03047821 	addu	t7,t8,a0
    9710:	2410ff80 	li	s0,-128
    9714:	31ee007f 	andi	t6,t7,0x7f
    9718:	3225007f 	andi	a1,s1,0x7f
    971c:	01f05824 	and	t3,t7,s0
    9720:	01da6821 	addu	t5,t6,k0
    9724:	3c0c000a 	lui	t4,0xa
    9728:	a38500c4 	sb	a1,196(gp)
    972c:	01ac2821 	addu	a1,t5,t4
    9730:	af4b0024 	sw	t3,36(k0)
    9734:	94a90010 	lhu	t1,16(a1)
    9738:	97680006 	lhu	t0,6(k1)
    973c:	90a60062 	lbu	a2,98(a1)
    9740:	00803821 	move	a3,a0
    9744:	24020030 	li	v0,48
    9748:	01092023 	subu	a0,t0,t1
    974c:	30c300f0 	andi	v1,a2,0xf0
    9750:	af8500d0 	sw	a1,208(gp)
    9754:	10620019 	beq	v1,v0,0x97bc
    9758:	3090ffff 	andi	s0,a0,0xffff
    975c:	90ae0062 	lbu	t6,98(a1)
    9760:	240dfff0 	li	t5,-16
    9764:	240a0050 	li	t2,80
    9768:	01ae6024 	and	t4,t5,t6
    976c:	318b00ff 	andi	t3,t4,0xff
    9770:	116a002f 	beq	t3,t2,0x9830
    9774:	00000000 	nop
    9778:	16000007 	bnez	s0,0x9798
    977c:	241f0c00 	li	ra,3072
    9780:	af5f0024 	sw	ra,36(k0)
    9784:	8fb10014 	lw	s1,20(sp)
    9788:	8fbf0018 	lw	ra,24(sp)
    978c:	8fb00010 	lw	s0,16(sp)
    9790:	03e00008 	jr	ra
    9794:	27bd0020 	addiu	sp,sp,32
    9798:	0e000f20 	jal	0x8003c80
    979c:	02002021 	move	a0,s0
    97a0:	241f0c00 	li	ra,3072
    97a4:	af5f0024 	sw	ra,36(k0)
    97a8:	8fb10014 	lw	s1,20(sp)
    97ac:	8fbf0018 	lw	ra,24(sp)
    97b0:	8fb00010 	lw	s0,16(sp)
    97b4:	03e00008 	jr	ra
    97b8:	27bd0020 	addiu	sp,sp,32
    97bc:	94a200e0 	lhu	v0,224(a1)
    97c0:	94a400e2 	lhu	a0,226(a1)
    97c4:	90bf0113 	lbu	ra,275(a1)
    97c8:	00821826 	xor	v1,a0,v0
    97cc:	3079ffff 	andi	t9,v1,0xffff
    97d0:	33e700c0 	andi	a3,ra,0xc0
    97d4:	14e00009 	bnez	a3,0x97fc
    97d8:	2f310001 	sltiu	s1,t9,1
    97dc:	16000038 	bnez	s0,0x98c0
    97e0:	00000000 	nop
    97e4:	5620ffe6 	bnezl	s1,0x9780
    97e8:	241f0c00 	li	ra,3072
    97ec:	0e000ddb 	jal	0x800376c
    97f0:	00000000 	nop
    97f4:	0a001277 	j	0x80049dc
    97f8:	241f0c00 	li	ra,3072
    97fc:	1620ffde 	bnez	s1,0x9778
    9800:	00000000 	nop
    9804:	0e000ddb 	jal	0x800376c
    9808:	00000000 	nop
    980c:	1440ffdc 	bnez	v0,0x9780
    9810:	241f0c00 	li	ra,3072
    9814:	16000022 	bnez	s0,0x98a0
    9818:	8f8300d0 	lw	v1,208(gp)
    981c:	90690113 	lbu	t1,275(v1)
    9820:	3122003f 	andi	v0,t1,0x3f
    9824:	a0620113 	sb	v0,275(v1)
    9828:	0a001277 	j	0x80049dc
    982c:	241f0c00 	li	ra,3072
    9830:	94af00d4 	lhu	t7,212(a1)
    9834:	8f8600d4 	lw	a2,212(gp)
    9838:	00e02821 	move	a1,a3
    983c:	24040005 	li	a0,5
    9840:	0e000c7c 	jal	0x80031f0
    9844:	31f0ffff 	andi	s0,t7,0xffff
    9848:	14400005 	bnez	v0,0x9860
    984c:	24030003 	li	v1,3
    9850:	979100e6 	lhu	s1,230(gp)
    9854:	00001821 	move	v1,zero
    9858:	2625ffff 	addiu	a1,s1,-1
    985c:	a78500e6 	sh	a1,230(gp)
    9860:	8f5801b8 	lw	t8,440(k0)
    9864:	0700fffe 	bltz	t8,0x9860
    9868:	3c196013 	lui	t9,0x6013
    986c:	af400180 	sw	zero,384(k0)
    9870:	241f0c00 	li	ra,3072
    9874:	af500184 	sw	s0,388(k0)
    9878:	00793825 	or	a3,v1,t9
    987c:	3c101000 	lui	s0,0x1000
    9880:	af470188 	sw	a3,392(k0)
    9884:	8fb10014 	lw	s1,20(sp)
    9888:	af5001b8 	sw	s0,440(k0)
    988c:	af5f0024 	sw	ra,36(k0)
    9890:	8fb00010 	lw	s0,16(sp)
    9894:	8fbf0018 	lw	ra,24(sp)
    9898:	03e00008 	jr	ra
    989c:	27bd0020 	addiu	sp,sp,32
    98a0:	0e000f20 	jal	0x8003c80
    98a4:	02002021 	move	a0,s0
    98a8:	5040ffb5 	beqzl	v0,0x9780
    98ac:	241f0c00 	li	ra,3072
    98b0:	8f8300d0 	lw	v1,208(gp)
    98b4:	90690113 	lbu	t1,275(v1)
    98b8:	0a0012a0 	j	0x8004a80
    98bc:	3122003f 	andi	v0,t1,0x3f
    98c0:	0e000f20 	jal	0x8003c80
    98c4:	02002021 	move	a0,s0
    98c8:	1440ffad 	bnez	v0,0x9780
    98cc:	241f0c00 	li	ra,3072
    98d0:	12200007 	beqz	s1,0x98f0
    98d4:	8f8300d0 	lw	v1,208(gp)
    98d8:	90680113 	lbu	t0,275(v1)
    98dc:	3106003f 	andi	a2,t0,0x3f
    98e0:	34c20040 	ori	v0,a2,0x40
    98e4:	a0620113 	sb	v0,275(v1)
    98e8:	0a001277 	j	0x80049dc
    98ec:	241f0c00 	li	ra,3072
    98f0:	0e000ddb 	jal	0x800376c
    98f4:	00000000 	nop
    98f8:	5040ffa1 	beqzl	v0,0x9780
    98fc:	241f0c00 	li	ra,3072
    9900:	8f8300d0 	lw	v1,208(gp)
    9904:	90680113 	lbu	t0,275(v1)
    9908:	3106003f 	andi	a2,t0,0x3f
    990c:	0a0012d0 	j	0x8004b40
    9910:	34c20040 	ori	v0,a2,0x40
    9914:	af9b00c8 	sw	k1,200(gp)
    9918:	03e00008 	jr	ra
    991c:	af8000ec 	sw	zero,236(gp)
    9920:	3089ffff 	andi	t1,a0,0xffff
    9924:	00094042 	srl	t0,t1,0x1
    9928:	2d020041 	sltiu	v0,t0,65
    992c:	00092980 	sll	a1,t1,0x6
    9930:	14400002 	bnez	v0,0x993c
    9934:	00095040 	sll	t2,t1,0x1
    9938:	24080040 	li	t0,64
    993c:	00087940 	sll	t7,t0,0x5
    9940:	0008c0c0 	sll	t8,t0,0x3
    9944:	01f85821 	addu	t3,t7,t8
    9948:	256701a8 	addiu	a3,t3,424
    994c:	00ef7021 	addu	t6,a3,t7
    9950:	25cc007f 	addiu	t4,t6,127
    9954:	240dff80 	li	t5,-128
    9958:	018d1824 	and	v1,t4,t5
    995c:	00653021 	addu	a2,v1,a1
    9960:	00ca2821 	addu	a1,a2,t2
    9964:	25640088 	addiu	a0,t3,136
    9968:	240a0088 	li	t2,136
    996c:	3c010800 	lui	at,0x800
    9970:	ac2a004c 	sw	t2,76(at)
    9974:	3c010800 	lui	at,0x800
    9978:	ac240050 	sw	a0,80(at)
    997c:	af8500d4 	sw	a1,212(gp)
    9980:	3c010800 	lui	at,0x800
    9984:	ac290060 	sw	t1,96(at)
    9988:	3c010800 	lui	at,0x800
    998c:	ac280064 	sw	t0,100(at)
    9990:	3c010800 	lui	at,0x800
    9994:	ac270054 	sw	a3,84(at)
    9998:	3c010800 	lui	at,0x800
    999c:	ac230058 	sw	v1,88(at)
    99a0:	3c010800 	lui	at,0x800
    99a4:	ac26005c 	sw	a2,92(at)
    99a8:	03e00008 	jr	ra
    99ac:	00000000 	nop
    99b0:	308300ff 	andi	v1,a0,0xff
    99b4:	30c6ffff 	andi	a2,a2,0xffff
    99b8:	30e400ff 	andi	a0,a3,0xff
    99bc:	8f4201b8 	lw	v0,440(k0)
    99c0:	0440fffe 	bltz	v0,0x99bc
    99c4:	00034c00 	sll	t1,v1,0x10
    99c8:	01243825 	or	a3,t1,a0
    99cc:	3c086000 	lui	t0,0x6000
    99d0:	00e82025 	or	a0,a3,t0
    99d4:	3c031000 	lui	v1,0x1000
    99d8:	af450180 	sw	a1,384(k0)
    99dc:	af460184 	sw	a2,388(k0)
    99e0:	af440188 	sw	a0,392(k0)
    99e4:	03e00008 	jr	ra
    99e8:	af4301b8 	sw	v1,440(k0)
    99ec:	8f86001c 	lw	a2,28(gp)
    99f0:	3c096012 	lui	t1,0x6012
    99f4:	35270010 	ori	a3,t1,0x10
    99f8:	8ccb0004 	lw	t3,4(a2)
    99fc:	3c0c600e 	lui	t4,0x600e
    9a00:	35850010 	ori	a1,t4,0x10
    9a04:	316a0006 	andi	t2,t3,0x6
    9a08:	2d480001 	sltiu	t0,t2,1
    9a0c:	ace800c4 	sw	t0,196(a3)
    9a10:	8cc40004 	lw	a0,4(a2)
    9a14:	aca43180 	sw	a0,12672(a1)
    9a18:	8cc20008 	lw	v0,8(a2)
    9a1c:	94c30002 	lhu	v1,2(a2)
    9a20:	aca23184 	sw	v0,12676(a1)
    9a24:	03e00008 	jr	ra
    9a28:	a78300e4 	sh	v1,228(gp)
    9a2c:	3c030800 	lui	v1,0x800
    9a30:	8c630050 	lw	v1,80(v1)
    9a34:	8f8400e8 	lw	a0,232(gp)
    9a38:	8f86001c 	lw	a2,28(gp)
    9a3c:	2402ff80 	li	v0,-128
    9a40:	0064c021 	addu	t8,v1,a0
    9a44:	0302c824 	and	t9,t8,v0
    9a48:	af590028 	sw	t9,40(k0)
    9a4c:	8ccd0004 	lw	t5,4(a2)
    9a50:	3305007f 	andi	a1,t8,0x7f
    9a54:	00ba7821 	addu	t7,a1,k0
    9a58:	3c0e000c 	lui	t6,0xc
    9a5c:	01ee2821 	addu	a1,t7,t6
    9a60:	acad0058 	sw	t5,88(a1)
    9a64:	8cc80008 	lw	t0,8(a2)
    9a68:	af8500d0 	sw	a1,208(gp)
    9a6c:	3c076012 	lui	a3,0x6012
    9a70:	aca8005c 	sw	t0,92(a1)
    9a74:	8ccc0010 	lw	t4,16(a2)
    9a78:	34e80010 	ori	t0,a3,0x10
    9a7c:	acac000c 	sw	t4,12(a1)
    9a80:	8ccb000c 	lw	t3,12(a2)
    9a84:	acab0008 	sw	t3,8(a1)
    9a88:	94aa0014 	lhu	t2,20(a1)
    9a8c:	3c020800 	lui	v0,0x800
    9a90:	8c420044 	lw	v0,68(v0)
    9a94:	25490001 	addiu	t1,t2,1
    9a98:	a4a90014 	sh	t1,20(a1)
    9a9c:	94a40014 	lhu	a0,20(a1)
    9aa0:	3083ffff 	andi	v1,a0,0xffff
    9aa4:	10620017 	beq	v1,v0,0x9b04
    9aa8:	8f8400d0 	lw	a0,208(gp)
    9aac:	3c0a0800 	lui	t2,0x800
    9ab0:	8d4a0040 	lw	t2,64(t2)
    9ab4:	a4aa0012 	sh	t2,18(a1)
    9ab8:	8cce0018 	lw	t6,24(a2)
    9abc:	ac8e0024 	sw	t6,36(a0)
    9ac0:	8ccd0014 	lw	t5,20(a2)
    9ac4:	ac8d0020 	sw	t5,32(a0)
    9ac8:	8cc70018 	lw	a3,24(a2)
    9acc:	ac87002c 	sw	a3,44(a0)
    9ad0:	8ccc0014 	lw	t4,20(a2)
    9ad4:	24060001 	li	a2,1
    9ad8:	ac8c0028 	sw	t4,40(a0)
    9adc:	8d0b00bc 	lw	t3,188(t0)
    9ae0:	5166001a 	beql	t3,a2,0x9b4c
    9ae4:	8d0200b4 	lw	v0,180(t0)
    9ae8:	8d0200b8 	lw	v0,184(t0)
    9aec:	a482003a 	sh	v0,58(a0)
    9af0:	948f003a 	lhu	t7,58(a0)
    9af4:	a48f003c 	sh	t7,60(a0)
    9af8:	948800d4 	lhu	t0,212(a0)
    9afc:	03e00008 	jr	ra
    9b00:	3102ffff 	andi	v0,t0,0xffff
    9b04:	3c090800 	lui	t1,0x800
    9b08:	8d290024 	lw	t1,36(t1)
    9b0c:	a4a00014 	sh	zero,20(a1)
    9b10:	8f8400d0 	lw	a0,208(gp)
    9b14:	a4a90012 	sh	t1,18(a1)
    9b18:	8cce0018 	lw	t6,24(a2)
    9b1c:	ac8e0024 	sw	t6,36(a0)
    9b20:	8ccd0014 	lw	t5,20(a2)
    9b24:	ac8d0020 	sw	t5,32(a0)
    9b28:	8cc70018 	lw	a3,24(a2)
    9b2c:	ac87002c 	sw	a3,44(a0)
    9b30:	8ccc0014 	lw	t4,20(a2)
    9b34:	24060001 	li	a2,1
    9b38:	ac8c0028 	sw	t4,40(a0)
    9b3c:	8d0b00bc 	lw	t3,188(t0)
    9b40:	5566ffea 	bnel	t3,a2,0x9aec
    9b44:	8d0200b8 	lw	v0,184(t0)
    9b48:	8d0200b4 	lw	v0,180(t0)
    9b4c:	a482003a 	sh	v0,58(a0)
    9b50:	948f003a 	lhu	t7,58(a0)
    9b54:	a48f003c 	sh	t7,60(a0)
    9b58:	948800d4 	lhu	t0,212(a0)
    9b5c:	03e00008 	jr	ra
    9b60:	3102ffff 	andi	v0,t0,0xffff
    9b64:	8f86001c 	lw	a2,28(gp)
    9b68:	3c0c0800 	lui	t4,0x800
    9b6c:	8d8c0050 	lw	t4,80(t4)
    9b70:	240bff80 	li	t3,-128
    9b74:	8ccd0008 	lw	t5,8(a2)
    9b78:	3c03000c 	lui	v1,0xc
    9b7c:	000d51c0 	sll	t2,t5,0x7
    9b80:	018a4021 	addu	t0,t4,t2
    9b84:	010b4824 	and	t1,t0,t3
    9b88:	af8a00e8 	sw	t2,232(gp)
    9b8c:	af490028 	sw	t1,40(k0)
    9b90:	90c70007 	lbu	a3,7(a2)
    9b94:	3105007f 	andi	a1,t0,0x7f
    9b98:	00ba1021 	addu	v0,a1,k0
    9b9c:	00432821 	addu	a1,v0,v1
    9ba0:	30e40004 	andi	a0,a3,0x4
    9ba4:	1080002f 	beqz	a0,0x9c64
    9ba8:	af8500d0 	sw	a1,208(gp)
    9bac:	90cf0007 	lbu	t7,7(a2)
    9bb0:	31ee0008 	andi	t6,t7,0x8
    9bb4:	11c0003c 	beqz	t6,0x9ca8
    9bb8:	00000000 	nop
    9bbc:	8cd9000c 	lw	t9,12(a2)
    9bc0:	8cc40014 	lw	a0,20(a2)
    9bc4:	0324c02b 	sltu	t8,t9,a0
    9bc8:	13000026 	beqz	t8,0x9c64
    9bcc:	00000000 	nop
    9bd0:	8cc2000c 	lw	v0,12(a2)
    9bd4:	aca20064 	sw	v0,100(a1)
    9bd8:	8ccd0018 	lw	t5,24(a2)
    9bdc:	2402fff8 	li	v0,-8
    9be0:	acad0068 	sw	t5,104(a1)
    9be4:	8ccc0010 	lw	t4,16(a2)
    9be8:	acac0080 	sw	t4,128(a1)
    9bec:	8ccb000c 	lw	t3,12(a2)
    9bf0:	acab0084 	sw	t3,132(a1)
    9bf4:	8cca001c 	lw	t2,28(a2)
    9bf8:	acaa007c 	sw	t2,124(a1)
    9bfc:	90a900bc 	lbu	t1,188(a1)
    9c00:	01224024 	and	t0,t1,v0
    9c04:	a0a800bc 	sb	t0,188(a1)
    9c08:	90c30007 	lbu	v1,7(a2)
    9c0c:	30670008 	andi	a3,v1,0x8
    9c10:	10e00004 	beqz	a3,0x9c24
    9c14:	8f8500d0 	lw	a1,208(gp)
    9c18:	90af00bc 	lbu	t7,188(a1)
    9c1c:	35ee0001 	ori	t6,t7,0x1
    9c20:	a0ae00bc 	sb	t6,188(a1)
    9c24:	90d90007 	lbu	t9,7(a2)
    9c28:	33380001 	andi	t8,t9,0x1
    9c2c:	1300000f 	beqz	t8,0x9c6c
    9c30:	8f8400d0 	lw	a0,208(gp)
    9c34:	24070020 	li	a3,32
    9c38:	908200bc 	lbu	v0,188(a0)
    9c3c:	34490002 	ori	t1,v0,0x2
    9c40:	a08900bc 	sb	t1,188(a0)
    9c44:	8f8400d0 	lw	a0,208(gp)
    9c48:	90880062 	lbu	t0,98(a0)
    9c4c:	310300f0 	andi	v1,t0,0xf0
    9c50:	14670006 	bne	v1,a3,0x9c6c
    9c54:	240a0034 	li	t2,52
    9c58:	ac8a00c0 	sw	t2,192(a0)
    9c5c:	0a0013b2 	j	0x8004ec8
    9c60:	00000000 	nop
    9c64:	0a00138c 	j	0x8004e30
    9c68:	8cc20014 	lw	v0,20(a2)
    9c6c:	90cb0007 	lbu	t3,7(a2)
    9c70:	31660002 	andi	a2,t3,0x2
    9c74:	10c00005 	beqz	a2,0x9c8c
    9c78:	00000000 	nop
    9c7c:	908d00bc 	lbu	t5,188(a0)
    9c80:	35ac0004 	ori	t4,t5,0x4
    9c84:	a08c00bc 	sb	t4,188(a0)
    9c88:	8f8400d0 	lw	a0,208(gp)
    9c8c:	90980113 	lbu	t8,275(a0)
    9c90:	330f003f 	andi	t7,t8,0x3f
    9c94:	a08f0113 	sb	t7,275(a0)
    9c98:	8f8e00d0 	lw	t6,208(gp)
    9c9c:	95c500d4 	lhu	a1,212(t6)
    9ca0:	03e00008 	jr	ra
    9ca4:	30a2ffff 	andi	v0,a1,0xffff
    9ca8:	aca00064 	sw	zero,100(a1)
    9cac:	0a00138d 	j	0x8004e34
    9cb0:	00000000 	nop
    9cb4:	27bdffd8 	addiu	sp,sp,-40
    9cb8:	afb00010 	sw	s0,16(sp)
    9cbc:	8f90001c 	lw	s0,28(gp)
    9cc0:	afbf0024 	sw	ra,36(sp)
    9cc4:	afb40020 	sw	s4,32(sp)
    9cc8:	afb20018 	sw	s2,24(sp)
    9ccc:	afb10014 	sw	s1,20(sp)
    9cd0:	afb3001c 	sw	s3,28(sp)
    9cd4:	9613000e 	lhu	s3,14(s0)
    9cd8:	3c07600a 	lui	a3,0x600a
    9cdc:	3c146006 	lui	s4,0x6006
    9ce0:	3264ffff 	andi	a0,s3,0xffff
    9ce4:	36930010 	ori	s3,s4,0x10
    9ce8:	0e0012df 	jal	0x8004b7c
    9cec:	34f40410 	ori	s4,a3,0x410
    9cf0:	8f8400d4 	lw	a0,212(gp)
    9cf4:	3c11600e 	lui	s1,0x600e
    9cf8:	0e0009bb 	jal	0x80026ec
    9cfc:	36310010 	ori	s1,s1,0x10
    9d00:	920e0015 	lbu	t6,21(s0)
    9d04:	3c070800 	lui	a3,0x800
    9d08:	8ce70060 	lw	a3,96(a3)
    9d0c:	3c126012 	lui	s2,0x6012
    9d10:	31cd000f 	andi	t5,t6,0xf
    9d14:	a38d00f0 	sb	t5,240(gp)
    9d18:	8e0e0004 	lw	t6,4(s0)
    9d1c:	8e0d0008 	lw	t5,8(s0)
    9d20:	96080012 	lhu	t0,18(s0)
    9d24:	961f0010 	lhu	ra,16(s0)
    9d28:	9619001a 	lhu	t9,26(s0)
    9d2c:	9618001e 	lhu	t8,30(s0)
    9d30:	960f001c 	lhu	t7,28(s0)
    9d34:	310cffff 	andi	t4,t0,0xffff
    9d38:	33ebffff 	andi	t3,ra,0xffff
    9d3c:	332affff 	andi	t2,t9,0xffff
    9d40:	3309ffff 	andi	t1,t8,0xffff
    9d44:	31e6ffff 	andi	a2,t7,0xffff
    9d48:	3c010800 	lui	at,0x800
    9d4c:	ac2b0040 	sw	t3,64(at)
    9d50:	3c010800 	lui	at,0x800
    9d54:	ac2c0024 	sw	t4,36(at)
    9d58:	3c010800 	lui	at,0x800
    9d5c:	ac2a0044 	sw	t2,68(at)
    9d60:	ae293178 	sw	t1,12664(s1)
    9d64:	ae26317c 	sw	a2,12668(s1)
    9d68:	92020015 	lbu	v0,21(s0)
    9d6c:	96030016 	lhu	v1,22(s0)
    9d70:	36520010 	ori	s2,s2,0x10
    9d74:	304400ff 	andi	a0,v0,0xff
    9d78:	3065ffff 	andi	a1,v1,0xffff
    9d7c:	3c060800 	lui	a2,0x800
    9d80:	8cc60064 	lw	a2,100(a2)
    9d84:	ae243188 	sw	a0,12680(s1)
    9d88:	ae4500b4 	sw	a1,180(s2)
    9d8c:	92080014 	lbu	t0,20(s0)
    9d90:	96190018 	lhu	t9,24(s0)
    9d94:	241f0001 	li	ra,1
    9d98:	011fc004 	sllv	t8,ra,t0
    9d9c:	332fffff 	andi	t7,t9,0xffff
    9da0:	3c050800 	lui	a1,0x800
    9da4:	8ca50058 	lw	a1,88(a1)
    9da8:	ae5800b8 	sw	t8,184(s2)
    9dac:	ae4f00bc 	sw	t7,188(s2)
    9db0:	920c0014 	lbu	t4,20(s0)
    9db4:	af8e00d8 	sw	t6,216(gp)
    9db8:	af8d00dc 	sw	t5,220(gp)
    9dbc:	318b00ff 	andi	t3,t4,0xff
    9dc0:	ae4b00c0 	sw	t3,192(s2)
    9dc4:	920a0015 	lbu	t2,21(s0)
    9dc8:	ae670048 	sw	a3,72(s3)
    9dcc:	ae66004c 	sw	a2,76(s3)
    9dd0:	314900ff 	andi	t1,t2,0xff
    9dd4:	ae4900c8 	sw	t1,200(s2)
    9dd8:	ae65007c 	sw	a1,124(s3)
    9ddc:	3c030800 	lui	v1,0x800
    9de0:	8c630050 	lw	v1,80(v1)
    9de4:	3c040800 	lui	a0,0x800
    9de8:	8c84004c 	lw	a0,76(a0)
    9dec:	3c080800 	lui	t0,0x800
    9df0:	8d080054 	lw	t0,84(t0)
    9df4:	3c020800 	lui	v0,0x800
    9df8:	8c42005c 	lw	v0,92(v0)
    9dfc:	8fbf0024 	lw	ra,36(sp)
    9e00:	ae630080 	sw	v1,128(s3)
    9e04:	8fb00010 	lw	s0,16(sp)
    9e08:	ae830074 	sw	v1,116(s4)
    9e0c:	8fb3001c 	lw	s3,28(sp)
    9e10:	ae22319c 	sw	v0,12700(s1)
    9e14:	ae4200dc 	sw	v0,220(s2)
    9e18:	ae2731a0 	sw	a3,12704(s1)
    9e1c:	ae2631a4 	sw	a2,12708(s1)
    9e20:	ae24318c 	sw	a0,12684(s1)
    9e24:	ae233190 	sw	v1,12688(s1)
    9e28:	ae283194 	sw	t0,12692(s1)
    9e2c:	ae253198 	sw	a1,12696(s1)
    9e30:	ae870050 	sw	a3,80(s4)
    9e34:	ae860054 	sw	a2,84(s4)
    9e38:	ae850070 	sw	a1,112(s4)
    9e3c:	8fb10014 	lw	s1,20(sp)
    9e40:	ae4700e0 	sw	a3,224(s2)
    9e44:	ae4600e4 	sw	a2,228(s2)
    9e48:	ae4400cc 	sw	a0,204(s2)
    9e4c:	ae4300d0 	sw	v1,208(s2)
    9e50:	ae4800d4 	sw	t0,212(s2)
    9e54:	ae4500d8 	sw	a1,216(s2)
    9e58:	8fb40020 	lw	s4,32(sp)
    9e5c:	8fb20018 	lw	s2,24(sp)
    9e60:	03e00008 	jr	ra
    9e64:	27bd0028 	addiu	sp,sp,40
    9e68:	27bdffe0 	addiu	sp,sp,-32
    9e6c:	afb10014 	sw	s1,20(sp)
    9e70:	afbf0018 	sw	ra,24(sp)
    9e74:	24110001 	li	s1,1
    9e78:	0e000865 	jal	0x8002194
    9e7c:	afb00010 	sw	s0,16(sp)
    9e80:	10510005 	beq	v0,s1,0x9e98
    9e84:	978400e6 	lhu	a0,230(gp)
    9e88:	978300cc 	lhu	v1,204(gp)
    9e8c:	0083102b 	sltu	v0,a0,v1
    9e90:	14400008 	bnez	v0,0x9eb4
    9e94:	8f8500d4 	lw	a1,212(gp)
    9e98:	24070002 	li	a3,2
    9e9c:	8fbf0018 	lw	ra,24(sp)
    9ea0:	8fb10014 	lw	s1,20(sp)
    9ea4:	8fb00010 	lw	s0,16(sp)
    9ea8:	00e01021 	move	v0,a3
    9eac:	03e00008 	jr	ra
    9eb0:	27bd0020 	addiu	sp,sp,32
    9eb4:	0e000c9a 	jal	0x8003268
    9eb8:	24040005 	li	a0,5
    9ebc:	af8200e8 	sw	v0,232(gp)
    9ec0:	1040fff6 	beqz	v0,0x9e9c
    9ec4:	24070002 	li	a3,2
    9ec8:	0e000869 	jal	0x80021a4
    9ecc:	8f90001c 	lw	s0,28(gp)
    9ed0:	979f00e6 	lhu	ra,230(gp)
    9ed4:	8f9900e8 	lw	t9,232(gp)
    9ed8:	8f8d00c8 	lw	t5,200(gp)
    9edc:	27ef0001 	addiu	t7,ra,1
    9ee0:	240e0050 	li	t6,80
    9ee4:	af590020 	sw	t9,32(k0)
    9ee8:	a78f00e6 	sh	t7,230(gp)
    9eec:	a1ae0000 	sb	t6,0(t5)
    9ef0:	3c0c0800 	lui	t4,0x800
    9ef4:	8d8c0064 	lw	t4,100(t4)
    9ef8:	8f8600c8 	lw	a2,200(gp)
    9efc:	240a8000 	li	t2,-32768
    9f00:	000c5e00 	sll	t3,t4,0x18
    9f04:	accb0074 	sw	t3,116(a2)
    9f08:	a4c00006 	sh	zero,6(a2)
    9f0c:	94c9000a 	lhu	t1,10(a2)
    9f10:	241fff80 	li	ra,-128
    9f14:	3c0d000c 	lui	t5,0xc
    9f18:	012ac024 	and	t8,t1,t2
    9f1c:	a4d8000a 	sh	t8,10(a2)
    9f20:	90c8000a 	lbu	t0,10(a2)
    9f24:	24182000 	li	t8,8192
    9f28:	011f1825 	or	v1,t0,ra
    9f2c:	a0c3000a 	sb	v1,10(a2)
    9f30:	8f8700c8 	lw	a3,200(gp)
    9f34:	a0e00078 	sb	zero,120(a3)
    9f38:	8f8500c8 	lw	a1,200(gp)
    9f3c:	00003821 	move	a3,zero
    9f40:	a0a00083 	sb	zero,131(a1)
    9f44:	3c020800 	lui	v0,0x800
    9f48:	8c420050 	lw	v0,80(v0)
    9f4c:	8f8400e8 	lw	a0,232(gp)
    9f50:	00447821 	addu	t7,v0,a0
    9f54:	01ffc824 	and	t9,t7,ra
    9f58:	af590028 	sw	t9,40(k0)
    9f5c:	960b0002 	lhu	t3,2(s0)
    9f60:	31ee007f 	andi	t6,t7,0x7f
    9f64:	01da6021 	addu	t4,t6,k0
    9f68:	018d3021 	addu	a2,t4,t5
    9f6c:	a4cb00d4 	sh	t3,212(a2)
    9f70:	960a0002 	lhu	t2,2(s0)
    9f74:	af8600d0 	sw	a2,208(gp)
    9f78:	3c0e0004 	lui	t6,0x4
    9f7c:	25492401 	addiu	t1,t2,9217
    9f80:	a4c900e6 	sh	t1,230(a2)
    9f84:	8e080004 	lw	t0,4(s0)
    9f88:	acc80004 	sw	t0,4(a2)
    9f8c:	8e030008 	lw	v1,8(s0)
    9f90:	acc30000 	sw	v1,0(a2)
    9f94:	a4c00010 	sh	zero,16(a2)
    9f98:	a4c00014 	sh	zero,20(a2)
    9f9c:	a0c000d0 	sb	zero,208(a2)
    9fa0:	8f8500d0 	lw	a1,208(gp)
    9fa4:	2403ffbf 	li	v1,-65
    9fa8:	a0a000d1 	sb	zero,209(a1)
    9fac:	3c040800 	lui	a0,0x800
    9fb0:	8c840064 	lw	a0,100(a0)
    9fb4:	8f8200d0 	lw	v0,208(gp)
    9fb8:	a04400d2 	sb	a0,210(v0)
    9fbc:	8e1f000c 	lw	ra,12(s0)
    9fc0:	8f8a00d0 	lw	t2,208(gp)
    9fc4:	978f00e4 	lhu	t7,228(gp)
    9fc8:	ad5f001c 	sw	ra,28(t2)
    9fcc:	8e190010 	lw	t9,16(s0)
    9fd0:	24100030 	li	s0,48
    9fd4:	ad590018 	sw	t9,24(t2)
    9fd8:	a5400030 	sh	zero,48(t2)
    9fdc:	a5510054 	sh	s1,84(t2)
    9fe0:	a5510056 	sh	s1,86(t2)
    9fe4:	a54f0016 	sh	t7,22(t2)
    9fe8:	ad4e0068 	sw	t6,104(t2)
    9fec:	ad580080 	sw	t8,128(t2)
    9ff0:	ad580084 	sw	t8,132(t2)
    9ff4:	914d0062 	lbu	t5,98(t2)
    9ff8:	31ac000f 	andi	t4,t5,0xf
    9ffc:	358b0010 	ori	t3,t4,0x10
    a000:	a14b0062 	sb	t3,98(t2)
    a004:	8f8600d0 	lw	a2,208(gp)
    a008:	90c90063 	lbu	t1,99(a2)
    a00c:	3128007f 	andi	t0,t1,0x7f
    a010:	a0c80063 	sb	t0,99(a2)
    a014:	8f8400d0 	lw	a0,208(gp)
    a018:	2406ffff 	li	a2,-1
    a01c:	90850063 	lbu	a1,99(a0)
    a020:	00a31024 	and	v0,a1,v1
    a024:	a0820063 	sb	v0,99(a0)
    a028:	8f9100d0 	lw	s1,208(gp)
    a02c:	00e01021 	move	v0,a3
    a030:	923f00bc 	lbu	ra,188(s1)
    a034:	37f90001 	ori	t9,ra,0x1
    a038:	a23900bc 	sb	t9,188(s1)
    a03c:	8f8a00d0 	lw	t2,208(gp)
    a040:	938f00f0 	lbu	t7,240(gp)
    a044:	ad580064 	sw	t8,100(t2)
    a048:	ad5000c0 	sw	s0,192(t2)
    a04c:	914e00d3 	lbu	t6,211(t2)
    a050:	000f6900 	sll	t5,t7,0x4
    a054:	31cc000f 	andi	t4,t6,0xf
    a058:	018d5825 	or	t3,t4,t5
    a05c:	a14b00d3 	sb	t3,211(t2)
    a060:	8f8500d0 	lw	a1,208(gp)
    a064:	8f8900dc 	lw	t1,220(gp)
    a068:	aca900e8 	sw	t1,232(a1)
    a06c:	8f8800d8 	lw	t0,216(gp)
    a070:	8fbf0018 	lw	ra,24(sp)
    a074:	8fb10014 	lw	s1,20(sp)
    a078:	8fb00010 	lw	s0,16(sp)
    a07c:	27bd0020 	addiu	sp,sp,32
    a080:	aca800ec 	sw	t0,236(a1)
    a084:	a4a600d6 	sh	a2,214(a1)
    a088:	a4a000e0 	sh	zero,224(a1)
    a08c:	a4a000e2 	sh	zero,226(a1)
    a090:	03e00008 	jr	ra
    a094:	00000000 	nop
    a098:	27bdffe0 	addiu	sp,sp,-32
    a09c:	afb00010 	sw	s0,16(sp)
    a0a0:	8f90001c 	lw	s0,28(gp)
    a0a4:	afb10014 	sw	s1,20(sp)
    a0a8:	afbf0018 	sw	ra,24(sp)
    a0ac:	8e190004 	lw	t9,4(s0)
    a0b0:	3c180800 	lui	t8,0x800
    a0b4:	8f180050 	lw	t8,80(t8)
    a0b8:	240fff80 	li	t7,-128
    a0bc:	001989c0 	sll	s1,t9,0x7
    a0c0:	02387021 	addu	t6,s1,t8
    a0c4:	31cd007f 	andi	t5,t6,0x7f
    a0c8:	01cf6024 	and	t4,t6,t7
    a0cc:	01ba5021 	addu	t2,t5,k0
    a0d0:	3c0b000c 	lui	t3,0xc
    a0d4:	af4c0028 	sw	t4,40(k0)
    a0d8:	014b4021 	addu	t0,t2,t3
    a0dc:	950900d4 	lhu	t1,212(t0)
    a0e0:	950400d6 	lhu	a0,214(t0)
    a0e4:	8e070004 	lw	a3,4(s0)
    a0e8:	3131ffff 	andi	s1,t1,0xffff
    a0ec:	af8800d0 	sw	t0,208(gp)
    a0f0:	0e000933 	jal	0x80024cc
    a0f4:	000721c0 	sll	a0,a3,0x7
    a0f8:	8e060004 	lw	a2,4(s0)
    a0fc:	8f8300c8 	lw	v1,200(gp)
    a100:	000629c0 	sll	a1,a2,0x7
    a104:	af450020 	sw	a1,32(k0)
    a108:	9064003e 	lbu	a0,62(v1)
    a10c:	30820040 	andi	v0,a0,0x40
    a110:	14400006 	bnez	v0,0xa12c
    a114:	8f8400d0 	lw	a0,208(gp)
    a118:	341fffff 	li	ra,0xffff
    a11c:	948300d6 	lhu	v1,214(a0)
    a120:	3062ffff 	andi	v0,v1,0xffff
    a124:	145f0004 	bne	v0,ra,0xa138
    a128:	00000000 	nop
    a12c:	948400d6 	lhu	a0,214(a0)
    a130:	0e0008c8 	jal	0x8002320
    a134:	3084ffff 	andi	a0,a0,0xffff
    a138:	8e050004 	lw	a1,4(s0)
    a13c:	02203021 	move	a2,s1
    a140:	8fbf0018 	lw	ra,24(sp)
    a144:	8fb10014 	lw	s1,20(sp)
    a148:	8fb00010 	lw	s0,16(sp)
    a14c:	24040022 	li	a0,34
    a150:	00003821 	move	a3,zero
    a154:	000529c0 	sll	a1,a1,0x7
    a158:	0a001303 	j	0x8004c0c
    a15c:	27bd0020 	addiu	sp,sp,32
    a160:	27bdffe0 	addiu	sp,sp,-32
    a164:	afb10014 	sw	s1,20(sp)
    a168:	3091ffff 	andi	s1,a0,0xffff
    a16c:	afb00010 	sw	s0,16(sp)
    a170:	afbf0018 	sw	ra,24(sp)
    a174:	1220001d 	beqz	s1,0xa1ec
    a178:	00008021 	move	s0,zero
    a17c:	8f86001c 	lw	a2,28(gp)
    a180:	8cc50000 	lw	a1,0(a2)
    a184:	24030006 	li	v1,6
    a188:	00053f02 	srl	a3,a1,0x1c
    a18c:	00051402 	srl	v0,a1,0x10
    a190:	30e40007 	andi	a0,a3,0x7
    a194:	14830015 	bne	a0,v1,0xa1ec
    a198:	304500ff 	andi	a1,v0,0xff
    a19c:	2ca80006 	sltiu	t0,a1,6
    a1a0:	1100004d 	beqz	t0,0xa2d8
    a1a4:	00055880 	sll	t3,a1,0x2
    a1a8:	3c0c0800 	lui	t4,0x800
    a1ac:	258c5a00 	addiu	t4,t4,23040
    a1b0:	016c5021 	addu	t2,t3,t4
    a1b4:	8d490000 	lw	t1,0(t2)
    a1b8:	01200008 	jr	t1
    a1bc:	00000000 	nop
    a1c0:	8f8e00ec 	lw	t6,236(gp)
    a1c4:	240d0001 	li	t5,1
    a1c8:	11cd0059 	beq	t6,t5,0xa330
    a1cc:	00000000 	nop
    a1d0:	260b0001 	addiu	t3,s0,1
    a1d4:	3170ffff 	andi	s0,t3,0xffff
    a1d8:	24ca0020 	addiu	t2,a2,32
    a1dc:	0211202b 	sltu	a0,s0,s1
    a1e0:	01403021 	move	a2,t2
    a1e4:	1480ffe6 	bnez	a0,0xa180
    a1e8:	af8a001c 	sw	t2,28(gp)
    a1ec:	02001021 	move	v0,s0
    a1f0:	8fbf0018 	lw	ra,24(sp)
    a1f4:	8fb10014 	lw	s1,20(sp)
    a1f8:	8fb00010 	lw	s0,16(sp)
    a1fc:	03e00008 	jr	ra
    a200:	27bd0020 	addiu	sp,sp,32
    a204:	938700ce 	lbu	a3,206(gp)
    a208:	14e00038 	bnez	a3,0xa2ec
    a20c:	24040014 	li	a0,20
    a210:	0e0013c4 	jal	0x8004f10
    a214:	00000000 	nop
    a218:	8f86001c 	lw	a2,28(gp)
    a21c:	24020001 	li	v0,1
    a220:	0a00150b 	j	0x800542c
    a224:	af8200ec 	sw	v0,236(gp)
    a228:	8f8900ec 	lw	t1,236(gp)
    a22c:	24080002 	li	t0,2
    a230:	1128003b 	beq	t1,t0,0xa320
    a234:	24040013 	li	a0,19
    a238:	00002821 	move	a1,zero
    a23c:	00003021 	move	a2,zero
    a240:	24070001 	li	a3,1
    a244:	0e001303 	jal	0x8004c0c
    a248:	00000000 	nop
    a24c:	0a00150b 	j	0x800542c
    a250:	8f86001c 	lw	a2,28(gp)
    a254:	8f8700ec 	lw	a3,236(gp)
    a258:	24050002 	li	a1,2
    a25c:	14e5fff6 	bne	a3,a1,0xa238
    a260:	24040012 	li	a0,18
    a264:	0e001370 	jal	0x8004dc0
    a268:	00000000 	nop
    a26c:	8f8500e8 	lw	a1,232(gp)
    a270:	00403021 	move	a2,v0
    a274:	24040012 	li	a0,18
    a278:	0e001303 	jal	0x8004c0c
    a27c:	00003821 	move	a3,zero
    a280:	0a00150b 	j	0x800542c
    a284:	8f86001c 	lw	a2,28(gp)
    a288:	8f8300ec 	lw	v1,236(gp)
    a28c:	241f0003 	li	ra,3
    a290:	147fffd0 	bne	v1,ra,0xa1d4
    a294:	260b0001 	addiu	t3,s0,1
    a298:	0e001322 	jal	0x8004c88
    a29c:	00000000 	nop
    a2a0:	8f8500e8 	lw	a1,232(gp)
    a2a4:	00403021 	move	a2,v0
    a2a8:	24020002 	li	v0,2
    a2ac:	24040010 	li	a0,16
    a2b0:	00003821 	move	a3,zero
    a2b4:	af8200ec 	sw	v0,236(gp)
    a2b8:	0e001303 	jal	0x8004c0c
    a2bc:	00000000 	nop
    a2c0:	0a00150b 	j	0x800542c
    a2c4:	8f86001c 	lw	a2,28(gp)
    a2c8:	8f8f00ec 	lw	t7,236(gp)
    a2cc:	24060002 	li	a2,2
    a2d0:	11e6000b 	beq	t7,a2,0xa300
    a2d4:	00000000 	nop
    a2d8:	24040010 	li	a0,16
    a2dc:	00002821 	move	a1,zero
    a2e0:	00003021 	move	a2,zero
    a2e4:	0a001528 	j	0x80054a0
    a2e8:	24070001 	li	a3,1
    a2ec:	00002821 	move	a1,zero
    a2f0:	0e001303 	jal	0x8004c0c
    a2f4:	00003021 	move	a2,zero
    a2f8:	0a00150b 	j	0x800542c
    a2fc:	8f86001c 	lw	a2,28(gp)
    a300:	0e001431 	jal	0x80050c4
    a304:	00000000 	nop
    a308:	14400012 	bnez	v0,0xa354
    a30c:	8f99001c 	lw	t9,28(gp)
    a310:	8f86001c 	lw	a2,28(gp)
    a314:	24020003 	li	v0,3
    a318:	0a00150b 	j	0x800542c
    a31c:	af8200ec 	sw	v0,236(gp)
    a320:	0e0014bd 	jal	0x80052f4
    a324:	00000000 	nop
    a328:	0a00150b 	j	0x800542c
    a32c:	8f86001c 	lw	a2,28(gp)
    a330:	0e001312 	jal	0x8004c48
    a334:	00000000 	nop
    a338:	24020002 	li	v0,2
    a33c:	24040014 	li	a0,20
    a340:	00002821 	move	a1,zero
    a344:	00003021 	move	a2,zero
    a348:	00003821 	move	a3,zero
    a34c:	0a001545 	j	0x8005514
    a350:	af8200ec 	sw	v0,236(gp)
    a354:	00403821 	move	a3,v0
    a358:	24040010 	li	a0,16
    a35c:	97380002 	lhu	t8,2(t9)
    a360:	00002821 	move	a1,zero
    a364:	0e001303 	jal	0x8004c0c
    a368:	3306ffff 	andi	a2,t8,0xffff
    a36c:	0a00150b 	j	0x800542c
    a370:	8f86001c 	lw	a2,28(gp)
    a374:	8f8400c8 	lw	a0,200(gp)
    a378:	3c077fff 	lui	a3,0x7fff
    a37c:	34e6ffff 	ori	a2,a3,0xffff
    a380:	8c850074 	lw	a1,116(a0)
    a384:	24020001 	li	v0,1
    a388:	00a61824 	and	v1,a1,a2
    a38c:	ac830074 	sw	v1,116(a0)
    a390:	03e00008 	jr	ra
    a394:	a0820005 	sb	v0,5(a0)
    a398:	10a00036 	beqz	a1,0xa474
    a39c:	2ca20080 	sltiu	v0,a1,128
    a3a0:	274a0400 	addiu	t2,k0,1024
    a3a4:	3c0b0005 	lui	t3,0x5
    a3a8:	24090080 	li	t1,128
    a3ac:	10400007 	beqz	v0,0xa3cc
    a3b0:	24080080 	li	t0,128
    a3b4:	30a6000f 	andi	a2,a1,0xf
    a3b8:	00c54021 	addu	t0,a2,a1
    a3bc:	2d030081 	sltiu	v1,t0,129
    a3c0:	14600002 	bnez	v1,0xa3cc
    a3c4:	00a04821 	move	t1,a1
    a3c8:	24080080 	li	t0,128
    a3cc:	af4b0030 	sw	t3,48(k0)
	...
    a3dc:	11000009 	beqz	t0,0xa404
    a3e0:	00003821 	move	a3,zero
    a3e4:	01403021 	move	a2,t2
    a3e8:	8c8d0000 	lw	t5,0(a0)
    a3ec:	24e70004 	addiu	a3,a3,4
    a3f0:	00e8602b 	sltu	t4,a3,t0
    a3f4:	accd0000 	sw	t5,0(a2)
    a3f8:	24840004 	addiu	a0,a0,4
    a3fc:	1580fffa 	bnez	t4,0xa3e8
    a400:	24c60004 	addiu	a2,a2,4
	...
    a410:	3c0e0006 	lui	t6,0x6
    a414:	010e3825 	or	a3,t0,t6
    a418:	af470030 	sw	a3,48(k0)
	...
    a428:	8f4f0000 	lw	t7,0(k0)
    a42c:	31e80010 	andi	t0,t7,0x10
    a430:	1100fffd 	beqz	t0,0xa428
    a434:	00000000 	nop
    a438:	8f42003c 	lw	v0,60(k0)
    a43c:	8f43003c 	lw	v1,60(k0)
    a440:	0049c821 	addu	t9,v0,t1
    a444:	0323c02b 	sltu	t8,t9,v1
    a448:	13000004 	beqz	t8,0xa45c
    a44c:	00000000 	nop
    a450:	8f4c0038 	lw	t4,56(k0)
    a454:	25860001 	addiu	a2,t4,1
    a458:	af460038 	sw	a2,56(k0)
    a45c:	8f47003c 	lw	a3,60(k0)
    a460:	00a92823 	subu	a1,a1,t1
    a464:	00e96821 	addu	t5,a3,t1
    a468:	af4d003c 	sw	t5,60(k0)
    a46c:	14a0ffce 	bnez	a1,0xa3a8
    a470:	2ca20080 	sltiu	v0,a1,128
    a474:	03e00008 	jr	ra
    a478:	00000000 	nop
    a47c:	27bdffd0 	addiu	sp,sp,-48
    a480:	3c020002 	lui	v0,0x2
    a484:	afb10014 	sw	s1,20(sp)
    a488:	3c11000c 	lui	s1,0xc
    a48c:	af450038 	sw	a1,56(k0)
    a490:	afb3001c 	sw	s3,28(sp)
    a494:	af46003c 	sw	a2,60(k0)
    a498:	00809821 	move	s3,a0
    a49c:	af420030 	sw	v0,48(k0)
    a4a0:	24050088 	li	a1,136
    a4a4:	af440028 	sw	a0,40(k0)
    a4a8:	03512021 	addu	a0,k0,s1
    a4ac:	afbf0028 	sw	ra,40(sp)
    a4b0:	afb50024 	sw	s5,36(sp)
    a4b4:	afb40020 	sw	s4,32(sp)
    a4b8:	afb20018 	sw	s2,24(sp)
    a4bc:	0e00157d 	jal	0x80055f4
    a4c0:	afb00010 	sw	s0,16(sp)
    a4c4:	3c1f0800 	lui	ra,0x800
    a4c8:	8fff004c 	lw	ra,76(ra)
    a4cc:	3c180800 	lui	t8,0x800
    a4d0:	8f180064 	lw	t8,100(t8)
    a4d4:	2410ff80 	li	s0,-128
    a4d8:	03f3a821 	addu	s5,ra,s3
    a4dc:	32b9007f 	andi	t9,s5,0x7f
    a4e0:	02b07824 	and	t7,s5,s0
    a4e4:	0018a0c0 	sll	s4,t8,0x3
    a4e8:	033a7021 	addu	t6,t9,k0
    a4ec:	00189140 	sll	s2,t8,0x5
    a4f0:	01d12021 	addu	a0,t6,s1
    a4f4:	af4f0028 	sw	t7,40(k0)
    a4f8:	0e00157d 	jal	0x80055f4
    a4fc:	02542821 	addu	a1,s2,s4
    a500:	3c0d0800 	lui	t5,0x800
    a504:	8dad0050 	lw	t5,80(t5)
    a508:	24050120 	li	a1,288
    a50c:	01b35821 	addu	t3,t5,s3
    a510:	316c007f 	andi	t4,t3,0x7f
    a514:	01705024 	and	t2,t3,s0
    a518:	019a4821 	addu	t1,t4,k0
    a51c:	01312021 	addu	a0,t1,s1
    a520:	0e00157d 	jal	0x80055f4
    a524:	af4a0028 	sw	t2,40(k0)
    a528:	3c080800 	lui	t0,0x800
    a52c:	8d080054 	lw	t0,84(t0)
    a530:	3c050800 	lui	a1,0x800
    a534:	8ca50064 	lw	a1,100(a1)
    a538:	01133821 	addu	a3,t0,s3
    a53c:	30e6007f 	andi	a2,a3,0x7f
    a540:	00f01824 	and	v1,a3,s0
    a544:	00da2021 	addu	a0,a2,k0
    a548:	00912021 	addu	a0,a0,s1
    a54c:	af430028 	sw	v1,40(k0)
    a550:	0e00157d 	jal	0x80055f4
    a554:	00052940 	sll	a1,a1,0x5
    a558:	3c020800 	lui	v0,0x800
    a55c:	8c420058 	lw	v0,88(v0)
    a560:	3c100800 	lui	s0,0x800
    a564:	8e100060 	lw	s0,96(s0)
    a568:	1200001c 	beqz	s0,0xa5dc
    a56c:	00538821 	addu	s1,v0,s3
    a570:	2415ff80 	li	s5,-128
    a574:	0a001600 	j	0x8005800
    a578:	3c14000c 	lui	s4,0xc
    a57c:	3226007f 	andi	a2,s1,0x7f
    a580:	02351824 	and	v1,s1,s5
    a584:	00da2021 	addu	a0,a2,k0
    a588:	02402821 	move	a1,s2
    a58c:	af430028 	sw	v1,40(k0)
    a590:	00942021 	addu	a0,a0,s4
    a594:	0e00157d 	jal	0x80055f4
    a598:	2610ffc0 	addiu	s0,s0,-64
    a59c:	1200000f 	beqz	s0,0xa5dc
    a5a0:	02328821 	addu	s1,s1,s2
    a5a4:	2e050041 	sltiu	a1,s0,65
    a5a8:	10a0fff4 	beqz	a1,0xa57c
    a5ac:	24121000 	li	s2,4096
    a5b0:	3226007f 	andi	a2,s1,0x7f
    a5b4:	00109180 	sll	s2,s0,0x6
    a5b8:	02351824 	and	v1,s1,s5
    a5bc:	00da2021 	addu	a0,a2,k0
    a5c0:	02402821 	move	a1,s2
    a5c4:	af430028 	sw	v1,40(k0)
    a5c8:	00942021 	addu	a0,a0,s4
    a5cc:	0e00157d 	jal	0x80055f4
    a5d0:	00008021 	move	s0,zero
    a5d4:	1600fff3 	bnez	s0,0xa5a4
    a5d8:	02328821 	addu	s1,s1,s2
    a5dc:	3c0b0800 	lui	t3,0x800
    a5e0:	8d6b005c 	lw	t3,92(t3)
    a5e4:	240aff80 	li	t2,-128
    a5e8:	24050002 	li	a1,2
    a5ec:	01734021 	addu	t0,t3,s3
    a5f0:	010a4824 	and	t1,t0,t2
    a5f4:	af490028 	sw	t1,40(k0)
    a5f8:	3c040800 	lui	a0,0x800
    a5fc:	94840062 	lhu	a0,98(a0)
    a600:	3110007f 	andi	s0,t0,0x7f
    a604:	021a8821 	addu	s1,s0,k0
    a608:	3c07000c 	lui	a3,0xc
    a60c:	0e000cca 	jal	0x8003328
    a610:	02279821 	addu	s3,s1,a3
    a614:	00402821 	move	a1,v0
    a618:	02602021 	move	a0,s3
    a61c:	8fbf0028 	lw	ra,40(sp)
    a620:	8fb50024 	lw	s5,36(sp)
    a624:	8fb40020 	lw	s4,32(sp)
    a628:	8fb3001c 	lw	s3,28(sp)
    a62c:	8fb20018 	lw	s2,24(sp)
    a630:	8fb10014 	lw	s1,20(sp)
    a634:	8fb00010 	lw	s0,16(sp)
    a638:	0a00157d 	j	0x80055f4
    a63c:	27bd0030 	addiu	sp,sp,48
    a640:	8f83001c 	lw	v1,28(gp)
    a644:	8c620004 	lw	v0,4(v1)
    a648:	10400003 	beqz	v0,0xa658
    a64c:	00000000 	nop
    a650:	03e00008 	jr	ra
    a654:	00000000 	nop
    a658:	8c640010 	lw	a0,16(v1)
    a65c:	8c650008 	lw	a1,8(v1)
    a660:	0a0015b6 	j	0x80056d8
    a664:	8c66000c 	lw	a2,12(v1)
    a668:	00000000 	nop
    a66c:	0000001b 	divu	zero,zero,zero
    a670:	0000000f 	sync
    a674:	0000000a 	.word	0xa
    a678:	00000008 	jr	zero
    a67c:	00000006 	srlv	zero,zero,zero
    a680:	00000005 	.word	0x5
    a684:	00000005 	.word	0x5
    a688:	00000004 	sllv	zero,zero,zero
    a68c:	00000004 	sllv	zero,zero,zero
    a690:	00000003 	sra	zero,zero,0x0
    a694:	00000003 	sra	zero,zero,0x0
    a698:	00000003 	sra	zero,zero,0x0
    a69c:	00000003 	sra	zero,zero,0x0
    a6a0:	00000003 	sra	zero,zero,0x0
    a6a4:	00000002 	srl	zero,zero,0x0
    a6a8:	00000002 	srl	zero,zero,0x0
    a6ac:	00000002 	srl	zero,zero,0x0
    a6b0:	00000002 	srl	zero,zero,0x0
    a6b4:	00000002 	srl	zero,zero,0x0
    a6b8:	00000002 	srl	zero,zero,0x0
    a6bc:	00000002 	srl	zero,zero,0x0
    a6c0:	00000002 	srl	zero,zero,0x0
    a6c4:	00000002 	srl	zero,zero,0x0
    a6c8:	00000002 	srl	zero,zero,0x0
    a6cc:	00000002 	srl	zero,zero,0x0
    a6d0:	00000002 	srl	zero,zero,0x0
    a6d4:	00000002 	srl	zero,zero,0x0
    a6d8:	00000002 	srl	zero,zero,0x0
    a6dc:	00000002 	srl	zero,zero,0x0
    a6e0:	00000001 	.word	0x1
    a6e4:	00000001 	.word	0x1
    a6e8:	00000001 	.word	0x1
    a6ec:	08000f58 	j	0x3d60
    a6f0:	08000db0 	j	0x36c0
    a6f4:	08000fec 	j	0x3fb0
    a6f8:	08001094 	j	0x4250
    a6fc:	08000f80 	j	0x3e00
    a700:	08000fc0 	j	0x3f00
    a704:	080011cc 	j	0x4730
    a708:	08000dcc 	j	0x3730
    a70c:	080011f0 	j	0x47c0
    a710:	08000e1c 	j	0x3870
    a714:	08001634 	j	0x58d0
    a718:	080015dc 	j	0x5770
    a71c:	08000dcc 	j	0x3730
    a720:	08000dcc 	j	0x3730
    a724:	08000dcc 	j	0x3730
    a728:	0800127c 	j	0x49f0
    a72c:	0800127c 	j	0x49f0
    a730:	08000dcc 	j	0x3730
    a734:	08000dcc 	j	0x3730
    a738:	08001580 	j	0x5600
    a73c:	08000dcc 	j	0x3730
    a740:	08000dcc 	j	0x3730
    a744:	08000dcc 	j	0x3730
    a748:	08000dcc 	j	0x3730
    a74c:	080013f0 	j	0x4fc0
    a750:	08000dcc 	j	0x3730
    a754:	08000dcc 	j	0x3730
    a758:	08000dcc 	j	0x3730
    a75c:	08000dcc 	j	0x3730
    a760:	08000dcc 	j	0x3730
    a764:	08000dcc 	j	0x3730
    a768:	08000dcc 	j	0x3730
    a76c:	08000dcc 	j	0x3730
    a770:	08000dcc 	j	0x3730
    a774:	08000dcc 	j	0x3730
    a778:	08000dcc 	j	0x3730
    a77c:	08000dcc 	j	0x3730
    a780:	08000dcc 	j	0x3730
    a784:	08000dcc 	j	0x3730
    a788:	08000fe0 	j	0x3f80
    a78c:	08000dcc 	j	0x3730
    a790:	08000dcc 	j	0x3730
    a794:	08001530 	j	0x54c0
    a798:	08000dcc 	j	0x3730
    a79c:	08000dcc 	j	0x3730
    a7a0:	08000dcc 	j	0x3730
    a7a4:	08000dcc 	j	0x3730
    a7a8:	08000dcc 	j	0x3730
    a7ac:	08000dcc 	j	0x3730
    a7b0:	08000dcc 	j	0x3730
    a7b4:	08000dcc 	j	0x3730
    a7b8:	08000dcc 	j	0x3730
    a7bc:	08000dcc 	j	0x3730
    a7c0:	08000dcc 	j	0x3730
    a7c4:	08000dcc 	j	0x3730
    a7c8:	08000dcc 	j	0x3730
    a7cc:	08000dcc 	j	0x3730
    a7d0:	08000dcc 	j	0x3730
    a7d4:	08000dcc 	j	0x3730
    a7d8:	08000dcc 	j	0x3730
    a7dc:	0800145c 	j	0x5170
    a7e0:	08000dcc 	j	0x3730
    a7e4:	08000dcc 	j	0x3730
    a7e8:	08001370 	j	0x4dc0
    a7ec:	080012e0 	j	0x4b80
    a7f0:	08002e94 	j	0xba50
    a7f4:	08002e9c 	j	0xba70
    a7f8:	08002e64 	j	0xb990
    a7fc:	08002e70 	j	0xb9c0
    a800:	08002e7c 	j	0xb9f0
    a804:	08002e88 	j	0xba20
    a808:	080046b4 	j	0x11ad0
    a80c:	08003f00 	j	0xfc00
    a810:	08004634 	j	0x118d0
    a814:	080046b4 	j	0x11ad0
    a818:	080046b4 	j	0x11ad0
    a81c:	080044b4 	j	0x112d0
    a820:	080046b4 	j	0x11ad0
    a824:	080046fc 	j	0x11bf0
    a828:	08005524 	j	0x15490
    a82c:	080054e4 	j	0x15390
    a830:	080054b0 	j	0x152c0
    a834:	08005484 	j	0x15210
    a838:	08005460 	j	0x15180
    a83c:	0800541c 	j	0x15070
    a840:	0a000c76 	j	0x80031d8
    a844:	00000000 	nop
    a848:	00000000 	nop
    a84c:	0000000d 	break
    a850:	72787035 	.word	0x72787035
    a854:	2e302e30 	sltiu	s0,s1,11824
    a858:	6a360000 	ldl	s6,0(s1)
    a85c:	05000003 	bltz	t0,0xa86c
    a860:	00000000 	nop
    a864:	00000001 	.word	0x1
	...
    da1c:	10000003 	b	0xda2c
    da20:	00000000 	nop
    da24:	0000000d 	break
    da28:	0000000d 	break
    da2c:	3c020800 	lui	v0,0x800
    da30:	24427580 	addiu	v0,v0,30080
    da34:	3c030800 	lui	v1,0x800
    da38:	24637a28 	addiu	v1,v1,31272
    da3c:	ac400000 	sw	zero,0(v0)
    da40:	0043202b 	sltu	a0,v0,v1
    da44:	1480fffd 	bnez	a0,0xda3c
    da48:	24420004 	addiu	v0,v0,4
    da4c:	3c1d0800 	lui	sp,0x800
    da50:	37bd7ffc 	ori	sp,sp,0x7ffc
    da54:	03a0f021 	move	s8,sp
    da58:	3c100800 	lui	s0,0x800
    da5c:	261031d8 	addiu	s0,s0,12760
    da60:	3c1c0800 	lui	gp,0x800
    da64:	279c7580 	addiu	gp,gp,30080
    da68:	0e0010ef 	jal	0x80043bc
    da6c:	00000000 	nop
    da70:	0000000d 	break
    da74:	30a5ffff 	andi	a1,a1,0xffff
    da78:	30c600ff 	andi	a2,a2,0xff
    da7c:	27430180 	addiu	v1,k0,384
    da80:	8f4201b8 	lw	v0,440(k0)
    da84:	0440fffe 	bltz	v0,0xda80
    da88:	24020002 	li	v0,2
    da8c:	ac640000 	sw	a0,0(v1)
    da90:	a4650008 	sh	a1,8(v1)
    da94:	a066000a 	sb	a2,10(v1)
    da98:	a062000b 	sb	v0,11(v1)
    da9c:	3c021000 	lui	v0,0x1000
    daa0:	ac670018 	sw	a3,24(v1)
    daa4:	03e00008 	jr	ra
    daa8:	af4201b8 	sw	v0,440(k0)
    daac:	3c036000 	lui	v1,0x6000
    dab0:	8c624ff8 	lw	v0,20472(v1)
    dab4:	0440fffe 	bltz	v0,0xdab0
    dab8:	3c020200 	lui	v0,0x200
    dabc:	ac644fc0 	sw	a0,20416(v1)
    dac0:	ac624fc4 	sw	v0,20420(v1)
    dac4:	3c021000 	lui	v0,0x1000
    dac8:	03e00008 	jr	ra
    dacc:	ac624ff8 	sw	v0,20472(v1)
    dad0:	9482000c 	lhu	v0,12(a0)
    dad4:	24860014 	addiu	a2,a0,20
    dad8:	00a03821 	move	a3,a1
    dadc:	00021302 	srl	v0,v0,0xc
    dae0:	00021080 	sll	v0,v0,0x2
    dae4:	00824021 	addu	t0,a0,v0
    dae8:	00c8102b 	sltu	v0,a2,t0
    daec:	10400057 	beqz	v0,0xdc4c
    daf0:	00000000 	nop
    daf4:	90c30000 	lbu	v1,0(a2)
    daf8:	2c620009 	sltiu	v0,v1,9
    dafc:	50400051 	beqzl	v0,0xdc44
    db00:	90c20001 	lbu	v0,1(a2)
    db04:	00031080 	sll	v0,v1,0x2
    db08:	3c030800 	lui	v1,0x800
    db0c:	24637534 	addiu	v1,v1,30004
    db10:	00431021 	addu	v0,v0,v1
    db14:	8c420000 	lw	v0,0(v0)
    db18:	00400008 	jr	v0
    db1c:	00000000 	nop
    db20:	90c30001 	lbu	v1,1(a2)
    db24:	2402000a 	li	v0,10
    db28:	1462003a 	bne	v1,v0,0xdc14
    db2c:	00000000 	nop
    db30:	01061023 	subu	v0,t0,a2
    db34:	2c42000a 	sltiu	v0,v0,10
    db38:	14400036 	bnez	v0,0xdc14
    db3c:	24c60002 	addiu	a2,a2,2
    db40:	8ce20000 	lw	v0,0(a3)
    db44:	34420100 	ori	v0,v0,0x100
    db48:	ace20000 	sw	v0,0(a3)
    db4c:	90c20000 	lbu	v0,0(a2)
    db50:	90c30001 	lbu	v1,1(a2)
    db54:	90c40002 	lbu	a0,2(a2)
    db58:	90c50003 	lbu	a1,3(a2)
    db5c:	00031c00 	sll	v1,v1,0x10
    db60:	00021600 	sll	v0,v0,0x18
    db64:	00431025 	or	v0,v0,v1
    db68:	00042200 	sll	a0,a0,0x8
    db6c:	00441025 	or	v0,v0,a0
    db70:	00451025 	or	v0,v0,a1
    db74:	24c60004 	addiu	a2,a2,4
    db78:	ace20004 	sw	v0,4(a3)
    db7c:	90c20000 	lbu	v0,0(a2)
    db80:	90c30001 	lbu	v1,1(a2)
    db84:	90c40002 	lbu	a0,2(a2)
    db88:	90c50003 	lbu	a1,3(a2)
    db8c:	00021600 	sll	v0,v0,0x18
    db90:	00031c00 	sll	v1,v1,0x10
    db94:	00431025 	or	v0,v0,v1
    db98:	00042200 	sll	a0,a0,0x8
    db9c:	00441025 	or	v0,v0,a0
    dba0:	00451025 	or	v0,v0,a1
    dba4:	24c60004 	addiu	a2,a2,4
    dba8:	0a000caa 	j	0x80032a8
    dbac:	ace20008 	sw	v0,8(a3)
    dbb0:	90c30001 	lbu	v1,1(a2)
    dbb4:	24020004 	li	v0,4
    dbb8:	14620016 	bne	v1,v0,0xdc14
    dbbc:	24c60002 	addiu	a2,a2,2
    dbc0:	90c20000 	lbu	v0,0(a2)
    dbc4:	90c40001 	lbu	a0,1(a2)
    dbc8:	8ce30000 	lw	v1,0(a3)
    dbcc:	00021200 	sll	v0,v0,0x8
    dbd0:	00441025 	or	v0,v0,a0
    dbd4:	34630004 	ori	v1,v1,0x4
    dbd8:	24c60002 	addiu	a2,a2,2
    dbdc:	ace2000c 	sw	v0,12(a3)
    dbe0:	0a000caa 	j	0x80032a8
    dbe4:	ace30000 	sw	v1,0(a3)
    dbe8:	90c30001 	lbu	v1,1(a2)
    dbec:	24020003 	li	v0,3
    dbf0:	14620008 	bne	v1,v0,0xdc14
    dbf4:	24c60002 	addiu	a2,a2,2
    dbf8:	8ce20000 	lw	v0,0(a3)
    dbfc:	90c30000 	lbu	v1,0(a2)
    dc00:	24c60001 	addiu	a2,a2,1
    dc04:	34420008 	ori	v0,v0,0x8
    dc08:	a0e30010 	sb	v1,16(a3)
    dc0c:	0a000caa 	j	0x80032a8
    dc10:	ace20000 	sw	v0,0(a3)
    dc14:	03e00008 	jr	ra
    dc18:	24020001 	li	v0,1
    dc1c:	90c30001 	lbu	v1,1(a2)
    dc20:	24020002 	li	v0,2
    dc24:	10620002 	beq	v1,v0,0xdc30
    dc28:	24c40002 	addiu	a0,a2,2
    dc2c:	01002021 	move	a0,t0
    dc30:	0a000caa 	j	0x80032a8
    dc34:	00803021 	move	a2,a0
    dc38:	0a000caa 	j	0x80032a8
    dc3c:	24c60001 	addiu	a2,a2,1
    dc40:	90c20001 	lbu	v0,1(a2)
    dc44:	0a000caa 	j	0x80032a8
    dc48:	00c23021 	addu	a2,a2,v0
    dc4c:	03e00008 	jr	ra
    dc50:	00001021 	move	v0,zero
    dc54:	27bdffe8 	addiu	sp,sp,-24
    dc58:	afbf0014 	sw	ra,20(sp)
    dc5c:	afb00010 	sw	s0,16(sp)
    dc60:	0e00130e 	jal	0x8004c38
    dc64:	00808021 	move	s0,a0
    dc68:	93620005 	lbu	v0,5(k1)
    dc6c:	2403fffe 	li	v1,-2
    dc70:	02002021 	move	a0,s0
    dc74:	00431024 	and	v0,v0,v1
    dc78:	8fbf0014 	lw	ra,20(sp)
    dc7c:	8fb00010 	lw	s0,16(sp)
    dc80:	a3620005 	sb	v0,5(k1)
    dc84:	0a001317 	j	0x8004c5c
    dc88:	27bd0018 	addiu	sp,sp,24
    dc8c:	27bdffe8 	addiu	sp,sp,-24
    dc90:	afb00010 	sw	s0,16(sp)
    dc94:	afbf0014 	sw	ra,20(sp)
    dc98:	0e000f0e 	jal	0x8003c38
    dc9c:	00808021 	move	s0,a0
    dca0:	93620000 	lbu	v0,0(k1)
    dca4:	24030050 	li	v1,80
    dca8:	304200ff 	andi	v0,v0,0xff
    dcac:	14430004 	bne	v0,v1,0xdcc0
    dcb0:	24020100 	li	v0,256
    dcb4:	af420180 	sw	v0,384(k0)
    dcb8:	0a000d22 	j	0x8003488
    dcbc:	02002021 	move	a0,s0
    dcc0:	af400180 	sw	zero,384(k0)
    dcc4:	02002021 	move	a0,s0
    dcc8:	8fbf0014 	lw	ra,20(sp)
    dccc:	8fb00010 	lw	s0,16(sp)
    dcd0:	0a000fad 	j	0x8003eb4
    dcd4:	27bd0018 	addiu	sp,sp,24
    dcd8:	27bdff80 	addiu	sp,sp,-128
    dcdc:	afbe0078 	sw	s8,120(sp)
    dce0:	afb70074 	sw	s7,116(sp)
    dce4:	afb30064 	sw	s3,100(sp)
    dce8:	afbf007c 	sw	ra,124(sp)
    dcec:	afb60070 	sw	s6,112(sp)
    dcf0:	afb5006c 	sw	s5,108(sp)
    dcf4:	afb40068 	sw	s4,104(sp)
    dcf8:	afb20060 	sw	s2,96(sp)
    dcfc:	afb1005c 	sw	s1,92(sp)
    dd00:	afb00058 	sw	s0,88(sp)
    dd04:	8f500128 	lw	s0,296(k0)
    dd08:	9363003f 	lbu	v1,63(k1)
    dd0c:	93620005 	lbu	v0,5(k1)
    dd10:	0000f021 	move	s8,zero
    dd14:	307300ff 	andi	s3,v1,0xff
    dd18:	00021027 	nor	v0,zero,v0
    dd1c:	30420001 	andi	v0,v0,0x1
    dd20:	0000b821 	move	s7,zero
    dd24:	14400066 	bnez	v0,0xdec0
    dd28:	afa00050 	sw	zero,80(sp)
    dd2c:	93420116 	lbu	v0,278(k0)
    dd30:	93430112 	lbu	v1,274(k0)
    dd34:	304200ff 	andi	v0,v0,0xff
    dd38:	306300ff 	andi	v1,v1,0xff
    dd3c:	03422021 	addu	a0,k0,v0
    dd40:	03431021 	addu	v0,k0,v1
    dd44:	24454000 	addiu	a1,v0,16384
    dd48:	8f82001c 	lw	v0,28(gp)
    dd4c:	10400018 	beqz	v0,0xddb0
    dd50:	24914000 	addiu	s1,a0,16384
    dd54:	8f420104 	lw	v0,260(k0)
    dd58:	3c030001 	lui	v1,0x1
    dd5c:	00431024 	and	v0,v0,v1
    dd60:	10400013 	beqz	v0,0xddb0
    dd64:	00000000 	nop
    dd68:	8ca3000c 	lw	v1,12(a1)
    dd6c:	8f620030 	lw	v0,48(k1)
    dd70:	146201b5 	bne	v1,v0,0xe448
    dd74:	24020001 	li	v0,1
    dd78:	8ca30010 	lw	v1,16(a1)
    dd7c:	8f62002c 	lw	v0,44(k1)
    dd80:	146201b1 	bne	v1,v0,0xe448
    dd84:	24020001 	li	v0,1
    dd88:	9762003a 	lhu	v0,58(k1)
    dd8c:	94834000 	lhu	v1,16384(a0)
    dd90:	3042ffff 	andi	v0,v0,0xffff
    dd94:	146201ac 	bne	v1,v0,0xe448
    dd98:	24020001 	li	v0,1
    dd9c:	97620038 	lhu	v0,56(k1)
    dda0:	96230002 	lhu	v1,2(s1)
    dda4:	3042ffff 	andi	v0,v0,0xffff
    dda8:	146201a7 	bne	v1,v0,0xe448
    ddac:	24020001 	li	v0,1
    ddb0:	93620000 	lbu	v0,0(k1)
    ddb4:	304300ff 	andi	v1,v0,0xff
    ddb8:	24020020 	li	v0,32
    ddbc:	10620005 	beq	v1,v0,0xddd4
    ddc0:	24020050 	li	v0,80
    ddc4:	10620006 	beq	v1,v0,0xdde0
    ddc8:	00000000 	nop
    ddcc:	0a000d6c 	j	0x80035b0
    ddd0:	00000000 	nop
    ddd4:	0000000d 	break
    ddd8:	0a000d75 	j	0x80035d4
    dddc:	afa00030 	sw	zero,48(sp)
    dde0:	3c1e0800 	lui	s8,0x800
    dde4:	27de75e8 	addiu	s8,s8,30184
    dde8:	0a000d75 	j	0x80035d4
    ddec:	afa00030 	sw	zero,48(sp)
    ddf0:	3c020800 	lui	v0,0x800
    ddf4:	8c4200dc 	lw	v0,220(v0)
    ddf8:	24420001 	addiu	v0,v0,1
    ddfc:	3c010800 	lui	at,0x800
    de00:	ac2200dc 	sw	v0,220(at)
    de04:	0e0013d8 	jal	0x8004f60
    de08:	00000000 	nop
    de0c:	0a000f03 	j	0x8003c0c
    de10:	8fbf007c 	lw	ra,124(sp)
    de14:	8f420104 	lw	v0,260(k0)
    de18:	3c030020 	lui	v1,0x20
    de1c:	9234000d 	lbu	s4,13(s1)
    de20:	00431024 	and	v0,v0,v1
    de24:	0002202b 	sltu	a0,zero,v0
    de28:	00042140 	sll	a0,a0,0x5
    de2c:	afa40030 	sw	a0,48(sp)
    de30:	8f430104 	lw	v1,260(k0)
    de34:	3c020040 	lui	v0,0x40
    de38:	00621824 	and	v1,v1,v0
    de3c:	14600002 	bnez	v1,0xde48
    de40:	34870040 	ori	a3,a0,0x40
    de44:	00803821 	move	a3,a0
    de48:	32820020 	andi	v0,s4,0x20
    de4c:	afa70030 	sw	a3,48(sp)
    de50:	14400002 	bnez	v0,0xde5c
    de54:	34e60080 	ori	a2,a3,0x80
    de58:	00e03021 	move	a2,a3
    de5c:	10c0000b 	beqz	a2,0xde8c
    de60:	afa60030 	sw	a2,48(sp)
    de64:	93c50008 	lbu	a1,8(s8)
    de68:	8f67004c 	lw	a3,76(k1)
    de6c:	02002021 	move	a0,s0
    de70:	00052b00 	sll	a1,a1,0xc
    de74:	34a50081 	ori	a1,a1,0x81
    de78:	30a5f081 	andi	a1,a1,0xf081
    de7c:	0e000c8d 	jal	0x8003234
    de80:	30c600ff 	andi	a2,a2,0xff
    de84:	0a000f00 	j	0x8003c00
    de88:	00000000 	nop
    de8c:	9362003e 	lbu	v0,62(k1)
    de90:	30420040 	andi	v0,v0,0x40
    de94:	1040000e 	beqz	v0,0xded0
    de98:	24020004 	li	v0,4
    de9c:	56620006 	bnel	s3,v0,0xdeb8
    dea0:	24020012 	li	v0,18
    dea4:	02002021 	move	a0,s0
    dea8:	0e0014e6 	jal	0x8005398
    deac:	02203021 	move	a2,s1
    deb0:	0a000f03 	j	0x8003c0c
    deb4:	8fbf007c 	lw	ra,124(sp)
    deb8:	16620005 	bne	s3,v0,0xded0
    debc:	00000000 	nop
    dec0:	0e000d13 	jal	0x800344c
    dec4:	00002021 	move	a0,zero
    dec8:	0a000f03 	j	0x8003c0c
    decc:	8fbf007c 	lw	ra,124(sp)
    ded0:	9743011a 	lhu	v1,282(k0)
    ded4:	9624000e 	lhu	a0,14(s1)
    ded8:	93620035 	lbu	v0,53(k1)
    dedc:	32850004 	andi	a1,s4,0x4
    dee0:	3076ffff 	andi	s6,v1,0xffff
    dee4:	00442004 	sllv	a0,a0,v0
    dee8:	afa40054 	sw	a0,84(sp)
    deec:	8e320004 	lw	s2,4(s1)
    def0:	10a00015 	beqz	a1,0xdf48
    def4:	8e350008 	lw	s5,8(s1)
    def8:	9362003e 	lbu	v0,62(k1)
    defc:	30420040 	andi	v0,v0,0x40
    df00:	10400007 	beqz	v0,0xdf20
    df04:	00000000 	nop
    df08:	0e001428 	jal	0x80050a0
    df0c:	02402021 	move	a0,s2
    df10:	1040000d 	beqz	v0,0xdf48
    df14:	00000000 	nop
    df18:	0a000f00 	j	0x8003c00
    df1c:	00000000 	nop
    df20:	8f620044 	lw	v0,68(k1)
    df24:	02421023 	subu	v0,s2,v0
    df28:	04400145 	bltz	v0,0xe440
    df2c:	00000000 	nop
    df30:	8f620048 	lw	v0,72(k1)
    df34:	02421023 	subu	v0,s2,v0
    df38:	04410141 	bgez	v0,0xe440
    df3c:	24040016 	li	a0,22
    df40:	0a000e03 	j	0x800380c
    df44:	8fc20004 	lw	v0,4(s8)
    df48:	8f620048 	lw	v0,72(k1)
    df4c:	02421023 	subu	v0,s2,v0
    df50:	04400008 	bltz	v0,0xdf74
    df54:	00000000 	nop
    df58:	3c020800 	lui	v0,0x800
    df5c:	8c423100 	lw	v0,12544(v0)
    df60:	24420001 	addiu	v0,v0,1
    df64:	3c010800 	lui	at,0x800
    df68:	ac223100 	sw	v0,12544(at)
    df6c:	0a000ef5 	j	0x8003bd4
    df70:	00000000 	nop
    df74:	8f620040 	lw	v0,64(k1)
    df78:	02421023 	subu	v0,s2,v0
    df7c:	18400009 	blez	v0,0xdfa4
    df80:	2402000c 	li	v0,12
    df84:	3c020800 	lui	v0,0x800
    df88:	8c423100 	lw	v0,12544(v0)
    df8c:	329400fc 	andi	s4,s4,0xfc
    df90:	0000b021 	move	s6,zero
    df94:	24420001 	addiu	v0,v0,1
    df98:	3c010800 	lui	at,0x800
    df9c:	ac223100 	sw	v0,12544(at)
    dfa0:	2402000c 	li	v0,12
    dfa4:	afa20030 	sw	v0,48(sp)
    dfa8:	8f620040 	lw	v0,64(k1)
    dfac:	00522023 	subu	a0,v0,s2
    dfb0:	1880000d 	blez	a0,0xdfe8
    dfb4:	02c4102a 	slt	v0,s6,a0
    dfb8:	14400116 	bnez	v0,0xe414
    dfbc:	00000000 	nop
    dfc0:	14960006 	bne	a0,s6,0xdfdc
    dfc4:	02c41023 	subu	v0,s6,a0
    dfc8:	3a820001 	xori	v0,s4,0x1
    dfcc:	30420001 	andi	v0,v0,0x1
    dfd0:	14400110 	bnez	v0,0xe414
    dfd4:	00000000 	nop
    dfd8:	02c41023 	subu	v0,s6,a0
    dfdc:	02449021 	addu	s2,s2,a0
    dfe0:	0a000deb 	j	0x80037ac
    dfe4:	3056ffff 	andi	s6,v0,0xffff
    dfe8:	00002021 	move	a0,zero
    dfec:	32820002 	andi	v0,s4,0x2
    dff0:	1040001a 	beqz	v0,0xe05c
    dff4:	32820010 	andi	v0,s4,0x10
    dff8:	9362003e 	lbu	v0,62(k1)
    dffc:	30420040 	andi	v0,v0,0x40
    e000:	50400011 	beqzl	v0,0xe048
    e004:	8fc20004 	lw	v0,4(s8)
    e008:	0e00130e 	jal	0x8004c38
    e00c:	02002021 	move	a0,s0
    e010:	24020018 	li	v0,24
    e014:	a362003f 	sb	v0,63(k1)
    e018:	93620005 	lbu	v0,5(k1)
    e01c:	2403fffe 	li	v1,-2
    e020:	02002021 	move	a0,s0
    e024:	00431024 	and	v0,v0,v1
    e028:	0e001317 	jal	0x8004c5c
    e02c:	a3620005 	sb	v0,5(k1)
    e030:	24040039 	li	a0,57
    e034:	00002821 	move	a1,zero
    e038:	0e001411 	jal	0x8005044
    e03c:	24060018 	li	a2,24
    e040:	0a000f02 	j	0x8003c08
    e044:	24020001 	li	v0,1
    e048:	24040017 	li	a0,23
    e04c:	0040f809 	jalr	v0
    e050:	00000000 	nop
    e054:	0a000f02 	j	0x8003c08
    e058:	24020001 	li	v0,1
    e05c:	104000f8 	beqz	v0,0xe440
    e060:	00000000 	nop
    e064:	8f63004c 	lw	v1,76(k1)
    e068:	8f620054 	lw	v0,84(k1)
    e06c:	02a21023 	subu	v0,s5,v0
    e070:	1c4000f3 	bgtz	v0,0xe440
    e074:	02a31023 	subu	v0,s5,v1
    e078:	04420001 	bltzl	v0,0xe080
    e07c:	0060a821 	move	s5,v1
    e080:	afa40018 	sw	a0,24(sp)
    e084:	afb20010 	sw	s2,16(sp)
    e088:	afb60014 	sw	s6,20(sp)
    e08c:	93420120 	lbu	v0,288(k0)
    e090:	8f650040 	lw	a1,64(k1)
    e094:	9763003c 	lhu	v1,60(k1)
    e098:	304200ff 	andi	v0,v0,0xff
    e09c:	03421021 	addu	v0,k0,v0
    e0a0:	00441021 	addu	v0,v0,a0
    e0a4:	8fa40054 	lw	a0,84(sp)
    e0a8:	3063ffff 	andi	v1,v1,0xffff
    e0ac:	24424000 	addiu	v0,v0,16384
    e0b0:	0083182b 	sltu	v1,a0,v1
    e0b4:	8fa40030 	lw	a0,48(sp)
    e0b8:	afa20020 	sw	v0,32(sp)
    e0bc:	afa50028 	sw	a1,40(sp)
    e0c0:	00832025 	or	a0,a0,v1
    e0c4:	afa40030 	sw	a0,48(sp)
    e0c8:	afa50024 	sw	a1,36(sp)
    e0cc:	afa0002c 	sw	zero,44(sp)
    e0d0:	afb50034 	sw	s5,52(sp)
    e0d4:	9362003e 	lbu	v0,62(k1)
    e0d8:	30420008 	andi	v0,v0,0x8
    e0dc:	50400011 	beqzl	v0,0xe124
    e0e0:	8fc20000 	lw	v0,0(s8)
    e0e4:	02202021 	move	a0,s1
    e0e8:	27a50038 	addiu	a1,sp,56
    e0ec:	0e000ca4 	jal	0x8003290
    e0f0:	afa00038 	sw	zero,56(sp)
    e0f4:	5440000b 	bnezl	v0,0xe124
    e0f8:	8fc20000 	lw	v0,0(s8)
    e0fc:	8fa20038 	lw	v0,56(sp)
    e100:	30420100 	andi	v0,v0,0x100
    e104:	50400007 	beqzl	v0,0xe124
    e108:	8fc20000 	lw	v0,0(s8)
    e10c:	8fa3003c 	lw	v1,60(sp)
    e110:	8f620060 	lw	v0,96(k1)
    e114:	00621023 	subu	v0,v1,v0
    e118:	04430001 	bgezl	v0,0xe120
    e11c:	af630060 	sw	v1,96(k1)
    e120:	8fc20000 	lw	v0,0(s8)
    e124:	0040f809 	jalr	v0
    e128:	27a40010 	addiu	a0,sp,16
    e12c:	8fa20030 	lw	v0,48(sp)
    e130:	30420002 	andi	v0,v0,0x2
    e134:	54400001 	bnezl	v0,0xe13c
    e138:	329400fe 	andi	s4,s4,0xfe
    e13c:	9362003e 	lbu	v0,62(k1)
    e140:	30420040 	andi	v0,v0,0x40
    e144:	10400037 	beqz	v0,0xe224
    e148:	8fa30014 	lw	v1,20(sp)
    e14c:	8f620054 	lw	v0,84(k1)
    e150:	16a2001a 	bne	s5,v0,0xe1bc
    e154:	32820001 	andi	v0,s4,0x1
    e158:	24020014 	li	v0,20
    e15c:	12620010 	beq	s3,v0,0xe1a0
    e160:	2a620015 	slti	v0,s3,21
    e164:	10400006 	beqz	v0,0xe180
    e168:	24020016 	li	v0,22
    e16c:	2402000c 	li	v0,12
    e170:	12620007 	beq	s3,v0,0xe190
    e174:	32820001 	andi	v0,s4,0x1
    e178:	0a000e5f 	j	0x800397c
    e17c:	00000000 	nop
    e180:	12620005 	beq	s3,v0,0xe198
    e184:	32820001 	andi	v0,s4,0x1
    e188:	0a000e5f 	j	0x800397c
    e18c:	00000000 	nop
    e190:	0a000e5a 	j	0x8003968
    e194:	2417000e 	li	s7,14
    e198:	0a000e5a 	j	0x8003968
    e19c:	24170010 	li	s7,16
    e1a0:	0a000e5e 	j	0x8003978
    e1a4:	24170012 	li	s7,18
    e1a8:	93620023 	lbu	v0,35(k1)
    e1ac:	2403ffbd 	li	v1,-67
    e1b0:	00431024 	and	v0,v0,v1
    e1b4:	a3620023 	sb	v0,35(k1)
    e1b8:	32820001 	andi	v0,s4,0x1
    e1bc:	10400019 	beqz	v0,0xe224
    e1c0:	8fa30014 	lw	v1,20(sp)
    e1c4:	2402000c 	li	v0,12
    e1c8:	1262000e 	beq	s3,v0,0xe204
    e1cc:	2a62000d 	slti	v0,s3,13
    e1d0:	10400006 	beqz	v0,0xe1ec
    e1d4:	2402000e 	li	v0,14
    e1d8:	2402000a 	li	v0,10
    e1dc:	12620007 	beq	s3,v0,0xe1fc
    e1e0:	8fa20024 	lw	v0,36(sp)
    e1e4:	0a000e77 	j	0x80039dc
    e1e8:	24420001 	addiu	v0,v0,1
    e1ec:	12620008 	beq	s3,v0,0xe210
    e1f0:	8fa20024 	lw	v0,36(sp)
    e1f4:	0a000e77 	j	0x80039dc
    e1f8:	24420001 	addiu	v0,v0,1
    e1fc:	0a000e75 	j	0x80039d4
    e200:	24170008 	li	s7,8
    e204:	2402000e 	li	v0,14
    e208:	16e20002 	bne	s7,v0,0xe214
    e20c:	24170016 	li	s7,22
    e210:	24170010 	li	s7,16
    e214:	8fa20024 	lw	v0,36(sp)
    e218:	24420001 	addiu	v0,v0,1
    e21c:	afa20024 	sw	v0,36(sp)
    e220:	8fa30014 	lw	v1,20(sp)
    e224:	8fa20024 	lw	v0,36(sp)
    e228:	8f730040 	lw	s3,64(k1)
    e22c:	00431021 	addu	v0,v0,v1
    e230:	af620040 	sw	v0,64(k1)
    e234:	8fa20054 	lw	v0,84(sp)
    e238:	93640036 	lbu	a0,54(k1)
    e23c:	8f630040 	lw	v1,64(k1)
    e240:	02a28821 	addu	s1,s5,v0
    e244:	3402ffff 	li	v0,0xffff
    e248:	00821004 	sllv	v0,v0,a0
    e24c:	00621821 	addu	v1,v1,v0
    e250:	af630048 	sw	v1,72(k1)
    e254:	8fa60030 	lw	a2,48(sp)
    e258:	30c20008 	andi	v0,a2,0x8
    e25c:	1040000e 	beqz	v0,0xe298
    e260:	00000000 	nop
    e264:	8f620058 	lw	v0,88(k1)
    e268:	16220004 	bne	s1,v0,0xe27c
    e26c:	30c600ff 	andi	a2,a2,0xff
    e270:	9742011a 	lhu	v0,282(k0)
    e274:	50400001 	beqzl	v0,0xe27c
    e278:	34c60010 	ori	a2,a2,0x10
    e27c:	93c50008 	lbu	a1,8(s8)
    e280:	8fa70034 	lw	a3,52(sp)
    e284:	02002021 	move	a0,s0
    e288:	00052b00 	sll	a1,a1,0xc
    e28c:	34a50080 	ori	a1,a1,0x80
    e290:	0e000c8d 	jal	0x8003234
    e294:	30a5f080 	andi	a1,a1,0xf080
    e298:	8f620040 	lw	v0,64(k1)
    e29c:	00531023 	subu	v0,v0,s3
    e2a0:	18400017 	blez	v0,0xe300
    e2a4:	8fa20018 	lw	v0,24(sp)
    e2a8:	3c020800 	lui	v0,0x800
    e2ac:	8c423198 	lw	v0,12696(v0)
    e2b0:	30420010 	andi	v0,v0,0x10
    e2b4:	10400009 	beqz	v0,0xe2dc
    e2b8:	24020001 	li	v0,1
    e2bc:	97620068 	lhu	v0,104(k1)
    e2c0:	14400006 	bnez	v0,0xe2dc
    e2c4:	24020001 	li	v0,1
    e2c8:	a7620068 	sh	v0,104(k1)
    e2cc:	9742007a 	lhu	v0,122(k0)
    e2d0:	2442000a 	addiu	v0,v0,10
    e2d4:	0a000ebb 	j	0x8003aec
    e2d8:	a7620012 	sh	v0,18(k1)
    e2dc:	a7620012 	sh	v0,18(k1)
    e2e0:	0e00130e 	jal	0x8004c38
    e2e4:	02002021 	move	a0,s0
    e2e8:	9362007d 	lbu	v0,125(k1)
    e2ec:	24030001 	li	v1,1
    e2f0:	02002021 	move	a0,s0
    e2f4:	34420001 	ori	v0,v0,0x1
    e2f8:	0a000eb9 	j	0x8003ae4
    e2fc:	afa30050 	sw	v1,80(sp)
    e300:	1840000a 	blez	v0,0xe32c
    e304:	00000000 	nop
    e308:	0e00130e 	jal	0x8004c38
    e30c:	02002021 	move	a0,s0
    e310:	9362007d 	lbu	v0,125(k1)
    e314:	24030001 	li	v1,1
    e318:	02002021 	move	a0,s0
    e31c:	afa30050 	sw	v1,80(sp)
    e320:	34420004 	ori	v0,v0,0x4
    e324:	0e001317 	jal	0x8004c5c
    e328:	a362007d 	sb	v0,125(k1)
    e32c:	9362003e 	lbu	v0,62(k1)
    e330:	30420040 	andi	v0,v0,0x40
    e334:	1440000c 	bnez	v0,0xe368
    e338:	32820001 	andi	v0,s4,0x1
    e33c:	1040000a 	beqz	v0,0xe368
    e340:	00000000 	nop
    e344:	8f630040 	lw	v1,64(k1)
    e348:	8fc20004 	lw	v0,4(s8)
    e34c:	24040018 	li	a0,24
    e350:	24630001 	addiu	v1,v1,1
    e354:	0040f809 	jalr	v0
    e358:	af630040 	sw	v1,64(k1)
    e35c:	8fa20030 	lw	v0,48(sp)
    e360:	0a000f02 	j	0x8003c08
    e364:	30420004 	andi	v0,v0,0x4
    e368:	8f620058 	lw	v0,88(k1)
    e36c:	10510010 	beq	v0,s1,0xe3b0
    e370:	00000000 	nop
    e374:	8f620018 	lw	v0,24(k1)
    e378:	02421023 	subu	v0,s2,v0
    e37c:	1c400008 	bgtz	v0,0xe3a0
    e380:	24040001 	li	a0,1
    e384:	8f620018 	lw	v0,24(k1)
    e388:	16420009 	bne	s2,v0,0xe3b0
    e38c:	00000000 	nop
    e390:	8f62001c 	lw	v0,28(k1)
    e394:	02a21023 	subu	v0,s5,v0
    e398:	04400005 	bltz	v0,0xe3b0
    e39c:	00000000 	nop
    e3a0:	af710058 	sw	s1,88(k1)
    e3a4:	afa40050 	sw	a0,80(sp)
    e3a8:	af720018 	sw	s2,24(k1)
    e3ac:	af75001c 	sw	s5,28(k1)
    e3b0:	12e0000b 	beqz	s7,0xe3e0
    e3b4:	8fa20050 	lw	v0,80(sp)
    e3b8:	0e00130e 	jal	0x8004c38
    e3bc:	02002021 	move	a0,s0
    e3c0:	a377003f 	sb	s7,63(k1)
    e3c4:	0e001317 	jal	0x8004c5c
    e3c8:	02002021 	move	a0,s0
    e3cc:	02e03021 	move	a2,s7
    e3d0:	24040037 	li	a0,55
    e3d4:	0e001411 	jal	0x8005044
    e3d8:	00002821 	move	a1,zero
    e3dc:	8fa20050 	lw	v0,80(sp)
    e3e0:	10400003 	beqz	v0,0xe3f0
    e3e4:	00000000 	nop
    e3e8:	0e000c9b 	jal	0x800326c
    e3ec:	02002021 	move	a0,s0
    e3f0:	12c00005 	beqz	s6,0xe408
    e3f4:	00001821 	move	v1,zero
    e3f8:	8fa20030 	lw	v0,48(sp)
    e3fc:	30420004 	andi	v0,v0,0x4
    e400:	50400011 	beqzl	v0,0xe448
    e404:	00601021 	move	v0,v1
    e408:	24030001 	li	v1,1
    e40c:	0a000f02 	j	0x8003c08
    e410:	00601021 	move	v0,v1
    e414:	0e00130e 	jal	0x8004c38
    e418:	02002021 	move	a0,s0
    e41c:	9362007d 	lbu	v0,125(k1)
    e420:	02002021 	move	a0,s0
    e424:	34420004 	ori	v0,v0,0x4
    e428:	0e001317 	jal	0x8004c5c
    e42c:	a362007d 	sb	v0,125(k1)
    e430:	0e000c9b 	jal	0x800326c
    e434:	02002021 	move	a0,s0
    e438:	0a000f02 	j	0x8003c08
    e43c:	24020001 	li	v0,1
    e440:	af400044 	sw	zero,68(k0)
    e444:	24020001 	li	v0,1
    e448:	8fbf007c 	lw	ra,124(sp)
    e44c:	8fbe0078 	lw	s8,120(sp)
    e450:	8fb70074 	lw	s7,116(sp)
    e454:	8fb60070 	lw	s6,112(sp)
    e458:	8fb5006c 	lw	s5,108(sp)
    e45c:	8fb40068 	lw	s4,104(sp)
    e460:	8fb30064 	lw	s3,100(sp)
    e464:	8fb20060 	lw	s2,96(sp)
    e468:	8fb1005c 	lw	s1,92(sp)
    e46c:	8fb00058 	lw	s0,88(sp)
    e470:	03e00008 	jr	ra
    e474:	27bd0080 	addiu	sp,sp,128
    e478:	8f4201b8 	lw	v0,440(k0)
    e47c:	0440fffe 	bltz	v0,0xe478
    e480:	24020800 	li	v0,2048
    e484:	af4201b8 	sw	v0,440(k0)
    e488:	03e00008 	jr	ra
    e48c:	00000000 	nop
    e490:	30a5ffff 	andi	a1,a1,0xffff
    e494:	30c6ffff 	andi	a2,a2,0xffff
    e498:	8f4201b8 	lw	v0,440(k0)
    e49c:	0440fffe 	bltz	v0,0xe498
    e4a0:	3c020008 	lui	v0,0x8
    e4a4:	af440180 	sw	a0,384(k0)
    e4a8:	03421021 	addu	v0,k0,v0
    e4ac:	af440020 	sw	a0,32(k0)
    e4b0:	94420048 	lhu	v0,72(v0)
    e4b4:	3044ffff 	andi	a0,v0,0xffff
    e4b8:	10800019 	beqz	a0,0xe520
    e4bc:	24020003 	li	v0,3
    e4c0:	24a20012 	addiu	v0,a1,18
    e4c4:	0082102b 	sltu	v0,a0,v0
    e4c8:	10400015 	beqz	v0,0xe520
    e4cc:	24020003 	li	v0,3
    e4d0:	93420120 	lbu	v0,288(k0)
    e4d4:	2403001a 	li	v1,26
    e4d8:	a343018b 	sb	v1,395(k0)
    e4dc:	304200ff 	andi	v0,v0,0xff
    e4e0:	2447fffe 	addiu	a3,v0,-2
    e4e4:	8f820000 	lw	v0,0(gp)
    e4e8:	0087182b 	sltu	v1,a0,a3
    e4ec:	38630001 	xori	v1,v1,0x1
    e4f0:	00021382 	srl	v0,v0,0xe
    e4f4:	00431024 	and	v0,v0,v1
    e4f8:	10400005 	beqz	v0,0xe510
    e4fc:	8f830004 	lw	v1,4(gp)
    e500:	34620001 	ori	v0,v1,0x1
    e504:	a7470194 	sh	a3,404(k0)
    e508:	0a000f39 	j	0x8003ce4
    e50c:	af820004 	sw	v0,4(gp)
    e510:	2402fffe 	li	v0,-2
    e514:	00621024 	and	v0,v1,v0
    e518:	0a000f39 	j	0x8003ce4
    e51c:	af820004 	sw	v0,4(gp)
    e520:	a342018b 	sb	v0,395(k0)
    e524:	24020002 	li	v0,2
    e528:	a742018c 	sh	v0,396(k0)
    e52c:	8f820000 	lw	v0,0(gp)
    e530:	8f840004 	lw	a0,4(gp)
    e534:	a745018e 	sh	a1,398(k0)
    e538:	a7420190 	sh	v0,400(k0)
    e53c:	8f82000c 	lw	v0,12(gp)
    e540:	30838000 	andi	v1,a0,0x8000
    e544:	af4201a8 	sw	v0,424(k0)
    e548:	a7460188 	sh	a2,392(k0)
    e54c:	1060000e 	beqz	v1,0xe588
    e550:	8f820004 	lw	v0,4(gp)
    e554:	93420116 	lbu	v0,278(k0)
    e558:	304200fc 	andi	v0,v0,0xfc
    e55c:	24420004 	addiu	v0,v0,4
    e560:	005a1021 	addu	v0,v0,k0
    e564:	8c424000 	lw	v0,16384(v0)
    e568:	3042ffff 	andi	v0,v0,0xffff
    e56c:	14400006 	bnez	v0,0xe588
    e570:	8f820004 	lw	v0,4(gp)
    e574:	3c02ffff 	lui	v0,0xffff
    e578:	34427fff 	ori	v0,v0,0x7fff
    e57c:	00821024 	and	v0,a0,v0
    e580:	af820004 	sw	v0,4(gp)
    e584:	8f820004 	lw	v0,4(gp)
    e588:	2403bfff 	li	v1,-16385
    e58c:	97840002 	lhu	a0,2(gp)
    e590:	00431024 	and	v0,v0,v1
    e594:	a74201a6 	sh	v0,422(k0)
    e598:	9742010c 	lhu	v0,268(k0)
    e59c:	00021400 	sll	v0,v0,0x10
    e5a0:	00441025 	or	v0,v0,a0
    e5a4:	af4201ac 	sw	v0,428(k0)
    e5a8:	3c021000 	lui	v0,0x1000
    e5ac:	af4201b8 	sw	v0,440(k0)
    e5b0:	03e00008 	jr	ra
    e5b4:	00000000 	nop
    e5b8:	8f470070 	lw	a3,112(k0)
    e5bc:	93420112 	lbu	v0,274(k0)
    e5c0:	8f830000 	lw	v1,0(gp)
    e5c4:	27bdfff0 	addiu	sp,sp,-16
    e5c8:	304200ff 	andi	v0,v0,0xff
    e5cc:	00022882 	srl	a1,v0,0x2
    e5d0:	30620100 	andi	v0,v1,0x100
    e5d4:	00003021 	move	a2,zero
    e5d8:	10400043 	beqz	v0,0xe6e8
    e5dc:	24a40003 	addiu	a0,a1,3
    e5e0:	30624000 	andi	v0,v1,0x4000
    e5e4:	10400010 	beqz	v0,0xe628
    e5e8:	30622000 	andi	v0,v1,0x2000
    e5ec:	00041080 	sll	v0,a0,0x2
    e5f0:	005a1021 	addu	v0,v0,k0
    e5f4:	8c434000 	lw	v1,16384(v0)
    e5f8:	24a40004 	addiu	a0,a1,4
    e5fc:	00041080 	sll	v0,a0,0x2
    e600:	afa30000 	sw	v1,0(sp)
    e604:	005a1021 	addu	v0,v0,k0
    e608:	8c424000 	lw	v0,16384(v0)
    e60c:	afa20004 	sw	v0,4(sp)
    e610:	93420116 	lbu	v0,278(k0)
    e614:	304200fc 	andi	v0,v0,0xfc
    e618:	005a1021 	addu	v0,v0,k0
    e61c:	8c424000 	lw	v0,16384(v0)
    e620:	0a000f86 	j	0x8003e18
    e624:	afa20008 	sw	v0,8(sp)
    e628:	1040002f 	beqz	v0,0xe6e8
    e62c:	00003021 	move	a2,zero
    e630:	00041080 	sll	v0,a0,0x2
    e634:	005a1021 	addu	v0,v0,k0
    e638:	8c434000 	lw	v1,16384(v0)
    e63c:	24a40004 	addiu	a0,a1,4
    e640:	00041080 	sll	v0,a0,0x2
    e644:	afa30000 	sw	v1,0(sp)
    e648:	005a1021 	addu	v0,v0,k0
    e64c:	8c424000 	lw	v0,16384(v0)
    e650:	afa00008 	sw	zero,8(sp)
    e654:	afa20004 	sw	v0,4(sp)
    e658:	8fa80008 	lw	t0,8(sp)
    e65c:	00003021 	move	a2,zero
    e660:	00002021 	move	a0,zero
    e664:	240a0008 	li	t2,8
    e668:	3c090800 	lui	t1,0x800
    e66c:	25290100 	addiu	t1,t1,256
    e670:	03a41021 	addu	v0,sp,a0
    e674:	148a0003 	bne	a0,t2,0xe684
    e678:	00042a00 	sll	a1,a0,0x8
    e67c:	1100000a 	beqz	t0,0xe6a8
    e680:	00000000 	nop
    e684:	90420000 	lbu	v0,0(v0)
    e688:	24840001 	addiu	a0,a0,1
    e68c:	2c83000c 	sltiu	v1,a0,12
    e690:	00a21021 	addu	v0,a1,v0
    e694:	00021080 	sll	v0,v0,0x2
    e698:	00491021 	addu	v0,v0,t1
    e69c:	8c420000 	lw	v0,0(v0)
    e6a0:	1460fff3 	bnez	v1,0xe670
    e6a4:	00c23026 	xor	a2,a2,v0
    e6a8:	3c040800 	lui	a0,0x800
    e6ac:	8c843104 	lw	a0,12548(a0)
    e6b0:	8f420070 	lw	v0,112(k0)
    e6b4:	2c830020 	sltiu	v1,a0,32
    e6b8:	10600009 	beqz	v1,0xe6e0
    e6bc:	00473823 	subu	a3,v0,a3
    e6c0:	3c030800 	lui	v1,0x800
    e6c4:	24633108 	addiu	v1,v1,12552
    e6c8:	00041080 	sll	v0,a0,0x2
    e6cc:	00431021 	addu	v0,v0,v1
    e6d0:	24830001 	addiu	v1,a0,1
    e6d4:	ac470000 	sw	a3,0(v0)
    e6d8:	3c010800 	lui	at,0x800
    e6dc:	ac233104 	sw	v1,12548(at)
    e6e0:	af86000c 	sw	a2,12(gp)
    e6e4:	24060001 	li	a2,1
    e6e8:	00c01021 	move	v0,a2
    e6ec:	03e00008 	jr	ra
    e6f0:	27bd0010 	addiu	sp,sp,16
    e6f4:	3c020800 	lui	v0,0x800
    e6f8:	8c420038 	lw	v0,56(v0)
    e6fc:	27bdffd0 	addiu	sp,sp,-48
    e700:	afb60028 	sw	s6,40(sp)
    e704:	afb40020 	sw	s4,32(sp)
    e708:	afb20018 	sw	s2,24(sp)
    e70c:	afbf002c 	sw	ra,44(sp)
    e710:	afb50024 	sw	s5,36(sp)
    e714:	afb3001c 	sw	s3,28(sp)
    e718:	afb10014 	sw	s1,20(sp)
    e71c:	afb00010 	sw	s0,16(sp)
    e720:	00009021 	move	s2,zero
    e724:	3c160800 	lui	s6,0x800
    e728:	26d60038 	addiu	s6,s6,56
    e72c:	14400002 	bnez	v0,0xe738
    e730:	2454ffff 	addiu	s4,v0,-1
    e734:	0000a021 	move	s4,zero
    e738:	9742010e 	lhu	v0,270(k0)
    e73c:	8f840000 	lw	a0,0(gp)
    e740:	3042ffff 	andi	v0,v0,0xffff
    e744:	30834000 	andi	v1,a0,0x4000
    e748:	1060000a 	beqz	v1,0xe774
    e74c:	24530004 	addiu	s3,v0,4
    e750:	3c020020 	lui	v0,0x20
    e754:	00821024 	and	v0,a0,v0
    e758:	50400007 	beqzl	v0,0xe778
    e75c:	30828000 	andi	v0,a0,0x8000
    e760:	8f820004 	lw	v0,4(gp)
    e764:	2403bfff 	li	v1,-16385
    e768:	00831824 	and	v1,a0,v1
    e76c:	0a000fd7 	j	0x8003f5c
    e770:	34421000 	ori	v0,v0,0x1000
    e774:	30828000 	andi	v0,a0,0x8000
    e778:	1040000a 	beqz	v0,0xe7a4
    e77c:	3c020020 	lui	v0,0x20
    e780:	00821024 	and	v0,a0,v0
    e784:	10400007 	beqz	v0,0xe7a4
    e788:	8f820004 	lw	v0,4(gp)
    e78c:	3c03ffff 	lui	v1,0xffff
    e790:	34637fff 	ori	v1,v1,0x7fff
    e794:	00831824 	and	v1,a0,v1
    e798:	34428000 	ori	v0,v0,0x8000
    e79c:	af820004 	sw	v0,4(gp)
    e7a0:	af830000 	sw	v1,0(gp)
    e7a4:	0e000f5e 	jal	0x8003d78
    e7a8:	00000000 	nop
    e7ac:	14400007 	bnez	v0,0xe7cc
    e7b0:	00000000 	nop
    e7b4:	9743011e 	lhu	v1,286(k0)
    e7b8:	9742011c 	lhu	v0,284(k0)
    e7bc:	3063ffff 	andi	v1,v1,0xffff
    e7c0:	00021400 	sll	v0,v0,0x10
    e7c4:	00621825 	or	v1,v1,v0
    e7c8:	af83000c 	sw	v1,12(gp)
    e7cc:	9742010c 	lhu	v0,268(k0)
    e7d0:	8f434000 	lw	v1,16384(k0)
    e7d4:	3046ffff 	andi	a2,v0,0xffff
    e7d8:	3402ffff 	li	v0,0xffff
    e7dc:	14620003 	bne	v1,v0,0xe7ec
    e7e0:	00000000 	nop
    e7e4:	0a000fef 	j	0x8003fbc
    e7e8:	24120020 	li	s2,32
    e7ec:	8f424000 	lw	v0,16384(k0)
    e7f0:	30420100 	andi	v0,v0,0x100
    e7f4:	54400001 	bnezl	v0,0xe7fc
    e7f8:	24120010 	li	s2,16
    e7fc:	8f840000 	lw	a0,0(gp)
    e800:	30821000 	andi	v0,a0,0x1000
    e804:	50400014 	beqzl	v0,0xe858
    e808:	36520001 	ori	s2,s2,0x1
    e80c:	30820020 	andi	v0,a0,0x20
    e810:	1440000b 	bnez	v0,0xe840
    e814:	3c021000 	lui	v0,0x1000
    e818:	00821024 	and	v0,a0,v0
    e81c:	5040000e 	beqzl	v0,0xe858
    e820:	36520001 	ori	s2,s2,0x1
    e824:	3c030e00 	lui	v1,0xe00
    e828:	3c020dff 	lui	v0,0xdff
    e82c:	00831824 	and	v1,a0,v1
    e830:	3442ffff 	ori	v0,v0,0xffff
    e834:	0043102b 	sltu	v0,v0,v1
    e838:	50400007 	beqzl	v0,0xe858
    e83c:	36520001 	ori	s2,s2,0x1
    e840:	3c020800 	lui	v0,0x800
    e844:	8c42002c 	lw	v0,44(v0)
    e848:	24420001 	addiu	v0,v0,1
    e84c:	3c010800 	lui	at,0x800
    e850:	ac22002c 	sw	v0,44(at)
    e854:	36520005 	ori	s2,s2,0x5
    e858:	3c050800 	lui	a1,0x800
    e85c:	8ca50034 	lw	a1,52(a1)
    e860:	54a00040 	bnezl	a1,0xe964
    e864:	8f840000 	lw	a0,0(gp)
    e868:	8f820010 	lw	v0,16(gp)
    e86c:	5440003d 	bnezl	v0,0xe964
    e870:	8f840000 	lw	a0,0(gp)
    e874:	8f820004 	lw	v0,4(gp)
    e878:	30424000 	andi	v0,v0,0x4000
    e87c:	54400039 	bnezl	v0,0xe964
    e880:	8f840000 	lw	a0,0(gp)
    e884:	3c021f01 	lui	v0,0x1f01
    e888:	00821024 	and	v0,a0,v0
    e88c:	3c031000 	lui	v1,0x1000
    e890:	14430034 	bne	v0,v1,0xe964
    e894:	8f840000 	lw	a0,0(gp)
    e898:	30c20200 	andi	v0,a2,0x200
    e89c:	14400032 	bnez	v0,0xe968
    e8a0:	3c020001 	lui	v0,0x1
    e8a4:	3265ffff 	andi	a1,s3,0xffff
    e8a8:	36460002 	ori	a2,s2,0x2
    e8ac:	8f4201b8 	lw	v0,440(k0)
    e8b0:	0440fffe 	bltz	v0,0xe8ac
    e8b4:	3c020008 	lui	v0,0x8
    e8b8:	af400180 	sw	zero,384(k0)
    e8bc:	03421021 	addu	v0,k0,v0
    e8c0:	94420048 	lhu	v0,72(v0)
    e8c4:	3043ffff 	andi	v1,v0,0xffff
    e8c8:	10600019 	beqz	v1,0xe930
    e8cc:	af830008 	sw	v1,8(gp)
    e8d0:	24a20012 	addiu	v0,a1,18
    e8d4:	0062102b 	sltu	v0,v1,v0
    e8d8:	10400016 	beqz	v0,0xe934
    e8dc:	24020003 	li	v0,3
    e8e0:	93420120 	lbu	v0,288(k0)
    e8e4:	2403001a 	li	v1,26
    e8e8:	a343018b 	sb	v1,395(k0)
    e8ec:	304200ff 	andi	v0,v0,0xff
    e8f0:	2443fffe 	addiu	v1,v0,-2
    e8f4:	8f820000 	lw	v0,0(gp)
    e8f8:	30424000 	andi	v0,v0,0x4000
    e8fc:	10400008 	beqz	v0,0xe920
    e900:	8f820004 	lw	v0,4(gp)
    e904:	8f820008 	lw	v0,8(gp)
    e908:	0043102b 	sltu	v0,v0,v1
    e90c:	14400004 	bnez	v0,0xe920
    e910:	8f820004 	lw	v0,4(gp)
    e914:	a7430194 	sh	v1,404(k0)
    e918:	0a00103a 	j	0x80040e8
    e91c:	34420001 	ori	v0,v0,0x1
    e920:	2403fffe 	li	v1,-2
    e924:	00431024 	and	v0,v0,v1
    e928:	0a00103e 	j	0x80040f8
    e92c:	af820004 	sw	v0,4(gp)
    e930:	24020003 	li	v0,3
    e934:	a342018b 	sb	v0,395(k0)
    e938:	8f830004 	lw	v1,4(gp)
    e93c:	2402bfff 	li	v0,-16385
    e940:	00621824 	and	v1,v1,v0
    e944:	24020002 	li	v0,2
    e948:	a742018c 	sh	v0,396(k0)
    e94c:	8f820000 	lw	v0,0(gp)
    e950:	a745018e 	sh	a1,398(k0)
    e954:	a7460188 	sh	a2,392(k0)
    e958:	a74301a6 	sh	v1,422(k0)
    e95c:	0a0010d9 	j	0x8004364
    e960:	a7420190 	sh	v0,400(k0)
    e964:	3c020001 	lui	v0,0x1
    e968:	00821024 	and	v0,a0,v0
    e96c:	1040000b 	beqz	v0,0xe99c
    e970:	3c021000 	lui	v0,0x1000
    e974:	3c020800 	lui	v0,0x800
    e978:	8c4200d8 	lw	v0,216(v0)
    e97c:	9745010e 	lhu	a1,270(k0)
    e980:	24040080 	li	a0,128
    e984:	24420001 	addiu	v0,v0,1
    e988:	30a5ffff 	andi	a1,a1,0xffff
    e98c:	3c010800 	lui	at,0x800
    e990:	ac2200d8 	sw	v0,216(at)
    e994:	0a0010e2 	j	0x8004388
    e998:	24060003 	li	a2,3
    e99c:	00821024 	and	v0,a0,v0
    e9a0:	10400041 	beqz	v0,0xeaa8
    e9a4:	00000000 	nop
    e9a8:	3c020800 	lui	v0,0x800
    e9ac:	8c420030 	lw	v0,48(v0)
    e9b0:	1040000c 	beqz	v0,0xe9e4
    e9b4:	8f820004 	lw	v0,4(gp)
    e9b8:	30424000 	andi	v0,v0,0x4000
    e9bc:	10400009 	beqz	v0,0xe9e4
    e9c0:	3c030f00 	lui	v1,0xf00
    e9c4:	00831824 	and	v1,a0,v1
    e9c8:	3c020100 	lui	v0,0x100
    e9cc:	0043102b 	sltu	v0,v0,v1
    e9d0:	14400004 	bnez	v0,0xe9e4
    e9d4:	36460002 	ori	a2,s2,0x2
    e9d8:	3265ffff 	andi	a1,s3,0xffff
    e9dc:	0a0010e2 	j	0x8004388
    e9e0:	24040080 	li	a0,128
    e9e4:	10a0000d 	beqz	a1,0xea1c
    e9e8:	30820100 	andi	v0,a0,0x100
    e9ec:	1040000b 	beqz	v0,0xea1c
    e9f0:	3c020f00 	lui	v0,0xf00
    e9f4:	00821024 	and	v0,a0,v0
    e9f8:	3c030200 	lui	v1,0x200
    e9fc:	10430007 	beq	v0,v1,0xea1c
    ea00:	8f82000c 	lw	v0,12(gp)
    ea04:	00541024 	and	v0,v0,s4
    ea08:	00561021 	addu	v0,v0,s6
    ea0c:	90420004 	lbu	v0,4(v0)
    ea10:	24420004 	addiu	v0,v0,4
    ea14:	0a001097 	j	0x800425c
    ea18:	000221c0 	sll	a0,v0,0x7
    ea1c:	00000000 	nop
    ea20:	8f860000 	lw	a2,0(gp)
    ea24:	3c050800 	lui	a1,0x800
    ea28:	8ca500d0 	lw	a1,208(a1)
    ea2c:	00061602 	srl	v0,a2,0x18
    ea30:	3050000f 	andi	s0,v0,0xf
    ea34:	38a20001 	xori	v0,a1,0x1
    ea38:	2c420001 	sltiu	v0,v0,1
    ea3c:	2e03000c 	sltiu	v1,s0,12
    ea40:	00431024 	and	v0,v0,v1
    ea44:	14400015 	bnez	v0,0xea9c
    ea48:	001021c0 	sll	a0,s0,0x7
    ea4c:	2602fffc 	addiu	v0,s0,-4
    ea50:	2c420004 	sltiu	v0,v0,4
    ea54:	54400011 	bnezl	v0,0xea9c
    ea58:	00002021 	move	a0,zero
    ea5c:	38a20002 	xori	v0,a1,0x2
    ea60:	2c420001 	sltiu	v0,v0,1
    ea64:	00431024 	and	v0,v0,v1
    ea68:	10400003 	beqz	v0,0xea78
    ea6c:	00061242 	srl	v0,a2,0x9
    ea70:	0a001097 	j	0x800425c
    ea74:	00002021 	move	a0,zero
    ea78:	0010182b 	sltu	v1,zero,s0
    ea7c:	00431024 	and	v0,v0,v1
    ea80:	50400006 	beqzl	v0,0xea9c
    ea84:	001021c0 	sll	a0,s0,0x7
    ea88:	00002021 	move	a0,zero
    ea8c:	3265ffff 	andi	a1,s3,0xffff
    ea90:	0e000f14 	jal	0x8003c50
    ea94:	3246fffb 	andi	a2,s2,0xfffb
    ea98:	001021c0 	sll	a0,s0,0x7
    ea9c:	3265ffff 	andi	a1,s3,0xffff
    eaa0:	0a0010e2 	j	0x8004388
    eaa4:	36460002 	ori	a2,s2,0x2
    eaa8:	8f424000 	lw	v0,16384(k0)
    eaac:	3c110800 	lui	s1,0x800
    eab0:	8e310024 	lw	s1,36(s1)
    eab4:	30420100 	andi	v0,v0,0x100
    eab8:	1040003e 	beqz	v0,0xebb4
    eabc:	32220001 	andi	v0,s1,0x1
    eac0:	02208021 	move	s0,s1
    eac4:	10a00014 	beqz	a1,0xeb18
    eac8:	32550004 	andi	s5,s2,0x4
    eacc:	30820100 	andi	v0,a0,0x100
    ead0:	10400012 	beqz	v0,0xeb1c
    ead4:	24020001 	li	v0,1
    ead8:	3c020f00 	lui	v0,0xf00
    eadc:	00821024 	and	v0,a0,v0
    eae0:	3c030200 	lui	v1,0x200
    eae4:	1043000c 	beq	v0,v1,0xeb18
    eae8:	8f82000c 	lw	v0,12(gp)
    eaec:	02403021 	move	a2,s2
    eaf0:	3265ffff 	andi	a1,s3,0xffff
    eaf4:	00541024 	and	v0,v0,s4
    eaf8:	00561021 	addu	v0,v0,s6
    eafc:	90440004 	lbu	a0,4(v0)
    eb00:	3252fffb 	andi	s2,s2,0xfffb
    eb04:	24840004 	addiu	a0,a0,4
    eb08:	0e000f14 	jal	0x8003c50
    eb0c:	000421c0 	sll	a0,a0,0x7
    eb10:	2402fffe 	li	v0,-2
    eb14:	02228024 	and	s0,s1,v0
    eb18:	24020001 	li	v0,1
    eb1c:	16020007 	bne	s0,v0,0xeb3c
    eb20:	32020001 	andi	v0,s0,0x1
    eb24:	32420004 	andi	v0,s2,0x4
    eb28:	50400001 	beqzl	v0,0xeb30
    eb2c:	36520002 	ori	s2,s2,0x2
    eb30:	3265ffff 	andi	a1,s3,0xffff
    eb34:	0a0010e1 	j	0x8004384
    eb38:	02403021 	move	a2,s2
    eb3c:	10400007 	beqz	v0,0xeb5c
    eb40:	32020004 	andi	v0,s0,0x4
    eb44:	02403021 	move	a2,s2
    eb48:	00002021 	move	a0,zero
    eb4c:	0e000f14 	jal	0x8003c50
    eb50:	3265ffff 	andi	a1,s3,0xffff
    eb54:	3252fffb 	andi	s2,s2,0xfffb
    eb58:	32020004 	andi	v0,s0,0x4
    eb5c:	10400007 	beqz	v0,0xeb7c
    eb60:	8f820000 	lw	v0,0(gp)
    eb64:	30420800 	andi	v0,v0,0x800
    eb68:	10400004 	beqz	v0,0xeb7c
    eb6c:	3265ffff 	andi	a1,s3,0xffff
    eb70:	02403021 	move	a2,s2
    eb74:	0e000f14 	jal	0x8003c50
    eb78:	24040100 	li	a0,256
    eb7c:	16a00015 	bnez	s5,0xebd4
    eb80:	8fbf002c 	lw	ra,44(sp)
    eb84:	27430180 	addiu	v1,k0,384
    eb88:	8f4201b8 	lw	v0,440(k0)
    eb8c:	0440fffe 	bltz	v0,0xeb88
    eb90:	24022000 	li	v0,8192
    eb94:	a4620008 	sh	v0,8(v1)
    eb98:	24020002 	li	v0,2
    eb9c:	a062000b 	sb	v0,11(v1)
    eba0:	a4600010 	sh	zero,16(v1)
    eba4:	3c021000 	lui	v0,0x1000
    eba8:	af4201b8 	sw	v0,440(k0)
    ebac:	0a0010e5 	j	0x8004394
    ebb0:	8fbf002c 	lw	ra,44(sp)
    ebb4:	10400007 	beqz	v0,0xebd4
    ebb8:	8fbf002c 	lw	ra,44(sp)
    ebbc:	3265ffff 	andi	a1,s3,0xffff
    ebc0:	36460002 	ori	a2,s2,0x2
    ebc4:	00002021 	move	a0,zero
    ebc8:	0e000f14 	jal	0x8003c50
    ebcc:	00000000 	nop
    ebd0:	8fbf002c 	lw	ra,44(sp)
    ebd4:	8fb60028 	lw	s6,40(sp)
    ebd8:	8fb50024 	lw	s5,36(sp)
    ebdc:	8fb40020 	lw	s4,32(sp)
    ebe0:	8fb3001c 	lw	s3,28(sp)
    ebe4:	8fb20018 	lw	s2,24(sp)
    ebe8:	8fb10014 	lw	s1,20(sp)
    ebec:	8fb00010 	lw	s0,16(sp)
    ebf0:	00001021 	move	v0,zero
    ebf4:	03e00008 	jr	ra
    ebf8:	27bd0030 	addiu	sp,sp,48
    ebfc:	27bdffc8 	addiu	sp,sp,-56
    ec00:	afb00010 	sw	s0,16(sp)
    ec04:	3c04600c 	lui	a0,0x600c
    ec08:	afbf0030 	sw	ra,48(sp)
    ec0c:	afb7002c 	sw	s7,44(sp)
    ec10:	afb60028 	sw	s6,40(sp)
    ec14:	afb50024 	sw	s5,36(sp)
    ec18:	afb40020 	sw	s4,32(sp)
    ec1c:	afb3001c 	sw	s3,28(sp)
    ec20:	afb20018 	sw	s2,24(sp)
    ec24:	afb10014 	sw	s1,20(sp)
    ec28:	8c825000 	lw	v0,20480(a0)
    ec2c:	2403ff7f 	li	v1,-129
    ec30:	3c1a8000 	lui	k0,0x8000
    ec34:	00431024 	and	v0,v0,v1
    ec38:	3442380c 	ori	v0,v0,0x380c
    ec3c:	ac825000 	sw	v0,20480(a0)
    ec40:	24020003 	li	v0,3
    ec44:	3c106000 	lui	s0,0x6000
    ec48:	af420008 	sw	v0,8(k0)
    ec4c:	8e020808 	lw	v0,2056(s0)
    ec50:	3c1b8008 	lui	k1,0x8008
    ec54:	3c010800 	lui	at,0x800
    ec58:	ac200020 	sw	zero,32(at)
    ec5c:	3042fff0 	andi	v0,v0,0xfff0
    ec60:	38420010 	xori	v0,v0,0x10
    ec64:	2c420001 	sltiu	v0,v0,1
    ec68:	0e001c46 	jal	0x8007118
    ec6c:	af82001c 	sw	v0,28(gp)
    ec70:	3c04ffff 	lui	a0,0xffff
    ec74:	3c020400 	lui	v0,0x400
    ec78:	34830806 	ori	v1,a0,0x806
    ec7c:	3442000c 	ori	v0,v0,0xc
    ec80:	ae021948 	sw	v0,6472(s0)
    ec84:	ae03194c 	sw	v1,6476(s0)
    ec88:	3c056016 	lui	a1,0x6016
    ec8c:	8e021980 	lw	v0,6528(s0)
    ec90:	8ca30000 	lw	v1,0(a1)
    ec94:	34420200 	ori	v0,v0,0x200
    ec98:	00641824 	and	v1,v1,a0
    ec9c:	ae021980 	sw	v0,6528(s0)
    eca0:	3c025353 	lui	v0,0x5353
    eca4:	14620003 	bne	v1,v0,0xecb4
    eca8:	34a47c00 	ori	a0,a1,0x7c00
    ecac:	8ca20004 	lw	v0,4(a1)
    ecb0:	00502021 	addu	a0,v0,s0
    ecb4:	8c82007c 	lw	v0,124(a0)
    ecb8:	8c830078 	lw	v1,120(a0)
    ecbc:	af820018 	sw	v0,24(gp)
    ecc0:	af830014 	sw	v1,20(gp)
    ecc4:	3c028000 	lui	v0,0x8000
    ecc8:	34420070 	ori	v0,v0,0x70
    eccc:	8c430000 	lw	v1,0(v0)
    ecd0:	00403821 	move	a3,v0
    ecd4:	af830020 	sw	v1,32(gp)
    ecd8:	00603021 	move	a2,v1
    ecdc:	8ce80000 	lw	t0,0(a3)
    ece0:	3c050800 	lui	a1,0x800
    ece4:	8ca500fc 	lw	a1,252(a1)
    ece8:	3c040800 	lui	a0,0x800
    ecec:	8c8400f8 	lw	a0,248(a0)
    ecf0:	01063023 	subu	a2,t0,a2
    ecf4:	00001021 	move	v0,zero
    ecf8:	00a62821 	addu	a1,a1,a2
    ecfc:	00a6302b 	sltu	a2,a1,a2
    ed00:	00822021 	addu	a0,a0,v0
    ed04:	00862021 	addu	a0,a0,a2
    ed08:	3c010800 	lui	at,0x800
    ed0c:	ac2500fc 	sw	a1,252(at)
    ed10:	3c010800 	lui	at,0x800
    ed14:	ac2400f8 	sw	a0,248(at)
    ed18:	8f560000 	lw	s6,0(k0)
    ed1c:	32c20003 	andi	v0,s6,0x3
    ed20:	1040ffee 	beqz	v0,0xecdc
    ed24:	01003021 	move	a2,t0
    ed28:	8ce60000 	lw	a2,0(a3)
    ed2c:	3c050800 	lui	a1,0x800
    ed30:	8ca500fc 	lw	a1,252(a1)
    ed34:	3c040800 	lui	a0,0x800
    ed38:	8c8400f8 	lw	a0,248(a0)
    ed3c:	00c83023 	subu	a2,a2,t0
    ed40:	00a62821 	addu	a1,a1,a2
    ed44:	00001021 	move	v0,zero
    ed48:	00a6302b 	sltu	a2,a1,a2
    ed4c:	00822021 	addu	a0,a0,v0
    ed50:	00862021 	addu	a0,a0,a2
    ed54:	32c70001 	andi	a3,s6,0x1
    ed58:	3c010800 	lui	at,0x800
    ed5c:	ac2500fc 	sw	a1,252(at)
    ed60:	af880020 	sw	t0,32(gp)
    ed64:	3c010800 	lui	at,0x800
    ed68:	ac2400f8 	sw	a0,248(at)
    ed6c:	10e0016b 	beqz	a3,0xf31c
    ed70:	32c20002 	andi	v0,s6,0x2
    ed74:	8f430128 	lw	v1,296(k0)
    ed78:	3c020008 	lui	v0,0x8
    ed7c:	03421021 	addu	v0,k0,v0
    ed80:	af430020 	sw	v1,32(k0)
    ed84:	8f430104 	lw	v1,260(k0)
    ed88:	8f440100 	lw	a0,256(k0)
    ed8c:	94420048 	lhu	v0,72(v0)
    ed90:	af830000 	sw	v1,0(gp)
    ed94:	af840004 	sw	a0,4(gp)
    ed98:	3042ffff 	andi	v0,v0,0xffff
    ed9c:	0e000f0e 	jal	0x8003c38
    eda0:	af820008 	sw	v0,8(gp)
    eda4:	3c020800 	lui	v0,0x800
    eda8:	8c4200c0 	lw	v0,192(v0)
    edac:	10400008 	beqz	v0,0xedd0
    edb0:	8f840000 	lw	a0,0(gp)
    edb4:	3c020800 	lui	v0,0x800
    edb8:	8c4200c4 	lw	v0,196(v0)
    edbc:	24420001 	addiu	v0,v0,1
    edc0:	3c010800 	lui	at,0x800
    edc4:	ac2200c4 	sw	v0,196(at)
    edc8:	0a0012af 	j	0x8004abc
    edcc:	00000000 	nop
    edd0:	3c020010 	lui	v0,0x10
    edd4:	00821024 	and	v0,a0,v0
    edd8:	14400135 	bnez	v0,0xf2b0
    eddc:	8f830004 	lw	v1,4(gp)
    ede0:	3c020800 	lui	v0,0x800
    ede4:	8c420020 	lw	v0,32(v0)
    ede8:	3c030800 	lui	v1,0x800
    edec:	8c630038 	lw	v1,56(v1)
    edf0:	00009021 	move	s2,zero
    edf4:	24420001 	addiu	v0,v0,1
    edf8:	3c010800 	lui	at,0x800
    edfc:	ac220020 	sw	v0,32(at)
    ee00:	3c170800 	lui	s7,0x800
    ee04:	26f70038 	addiu	s7,s7,56
    ee08:	14600002 	bnez	v1,0xee14
    ee0c:	2474ffff 	addiu	s4,v1,-1
    ee10:	0000a021 	move	s4,zero
    ee14:	9742010e 	lhu	v0,270(k0)
    ee18:	30834000 	andi	v1,a0,0x4000
    ee1c:	3042ffff 	andi	v0,v0,0xffff
    ee20:	1060000a 	beqz	v1,0xee4c
    ee24:	24530004 	addiu	s3,v0,4
    ee28:	3c020020 	lui	v0,0x20
    ee2c:	00821024 	and	v0,a0,v0
    ee30:	50400007 	beqzl	v0,0xee50
    ee34:	30828000 	andi	v0,a0,0x8000
    ee38:	8f820004 	lw	v0,4(gp)
    ee3c:	2403bfff 	li	v1,-16385
    ee40:	00831824 	and	v1,a0,v1
    ee44:	0a00118d 	j	0x8004634
    ee48:	34421000 	ori	v0,v0,0x1000
    ee4c:	30828000 	andi	v0,a0,0x8000
    ee50:	1040000a 	beqz	v0,0xee7c
    ee54:	3c020020 	lui	v0,0x20
    ee58:	00821024 	and	v0,a0,v0
    ee5c:	10400007 	beqz	v0,0xee7c
    ee60:	8f820004 	lw	v0,4(gp)
    ee64:	3c03ffff 	lui	v1,0xffff
    ee68:	34637fff 	ori	v1,v1,0x7fff
    ee6c:	00831824 	and	v1,a0,v1
    ee70:	34428000 	ori	v0,v0,0x8000
    ee74:	af820004 	sw	v0,4(gp)
    ee78:	af830000 	sw	v1,0(gp)
    ee7c:	0e000f5e 	jal	0x8003d78
    ee80:	00000000 	nop
    ee84:	14400007 	bnez	v0,0xeea4
    ee88:	00000000 	nop
    ee8c:	9743011e 	lhu	v1,286(k0)
    ee90:	9742011c 	lhu	v0,284(k0)
    ee94:	3063ffff 	andi	v1,v1,0xffff
    ee98:	00021400 	sll	v0,v0,0x10
    ee9c:	00621825 	or	v1,v1,v0
    eea0:	af83000c 	sw	v1,12(gp)
    eea4:	9742010c 	lhu	v0,268(k0)
    eea8:	8f434000 	lw	v1,16384(k0)
    eeac:	3046ffff 	andi	a2,v0,0xffff
    eeb0:	3402ffff 	li	v0,0xffff
    eeb4:	14620003 	bne	v1,v0,0xeec4
    eeb8:	00000000 	nop
    eebc:	0a0011a5 	j	0x8004694
    eec0:	24120020 	li	s2,32
    eec4:	8f424000 	lw	v0,16384(k0)
    eec8:	30420100 	andi	v0,v0,0x100
    eecc:	54400001 	bnezl	v0,0xeed4
    eed0:	24120010 	li	s2,16
    eed4:	8f840000 	lw	a0,0(gp)
    eed8:	30821000 	andi	v0,a0,0x1000
    eedc:	50400014 	beqzl	v0,0xef30
    eee0:	36520001 	ori	s2,s2,0x1
    eee4:	30820020 	andi	v0,a0,0x20
    eee8:	1440000b 	bnez	v0,0xef18
    eeec:	3c021000 	lui	v0,0x1000
    eef0:	00821024 	and	v0,a0,v0
    eef4:	5040000e 	beqzl	v0,0xef30
    eef8:	36520001 	ori	s2,s2,0x1
    eefc:	3c030e00 	lui	v1,0xe00
    ef00:	3c020dff 	lui	v0,0xdff
    ef04:	00831824 	and	v1,a0,v1
    ef08:	3442ffff 	ori	v0,v0,0xffff
    ef0c:	0043102b 	sltu	v0,v0,v1
    ef10:	50400007 	beqzl	v0,0xef30
    ef14:	36520001 	ori	s2,s2,0x1
    ef18:	3c020800 	lui	v0,0x800
    ef1c:	8c42002c 	lw	v0,44(v0)
    ef20:	24420001 	addiu	v0,v0,1
    ef24:	3c010800 	lui	at,0x800
    ef28:	ac22002c 	sw	v0,44(at)
    ef2c:	36520005 	ori	s2,s2,0x5
    ef30:	3c050800 	lui	a1,0x800
    ef34:	8ca50034 	lw	a1,52(a1)
    ef38:	54a00040 	bnezl	a1,0xf03c
    ef3c:	8f840000 	lw	a0,0(gp)
    ef40:	8f820010 	lw	v0,16(gp)
    ef44:	5440003d 	bnezl	v0,0xf03c
    ef48:	8f840000 	lw	a0,0(gp)
    ef4c:	8f820004 	lw	v0,4(gp)
    ef50:	30424000 	andi	v0,v0,0x4000
    ef54:	54400039 	bnezl	v0,0xf03c
    ef58:	8f840000 	lw	a0,0(gp)
    ef5c:	3c021f01 	lui	v0,0x1f01
    ef60:	00821024 	and	v0,a0,v0
    ef64:	3c031000 	lui	v1,0x1000
    ef68:	14430034 	bne	v0,v1,0xf03c
    ef6c:	8f840000 	lw	a0,0(gp)
    ef70:	30c20200 	andi	v0,a2,0x200
    ef74:	14400032 	bnez	v0,0xf040
    ef78:	3c020001 	lui	v0,0x1
    ef7c:	3265ffff 	andi	a1,s3,0xffff
    ef80:	36460002 	ori	a2,s2,0x2
    ef84:	8f4201b8 	lw	v0,440(k0)
    ef88:	0440fffe 	bltz	v0,0xef84
    ef8c:	3c020008 	lui	v0,0x8
    ef90:	af400180 	sw	zero,384(k0)
    ef94:	03421021 	addu	v0,k0,v0
    ef98:	94420048 	lhu	v0,72(v0)
    ef9c:	3043ffff 	andi	v1,v0,0xffff
    efa0:	10600019 	beqz	v1,0xf008
    efa4:	af830008 	sw	v1,8(gp)
    efa8:	24a20012 	addiu	v0,a1,18
    efac:	0062102b 	sltu	v0,v1,v0
    efb0:	10400016 	beqz	v0,0xf00c
    efb4:	24020003 	li	v0,3
    efb8:	93420120 	lbu	v0,288(k0)
    efbc:	2403001a 	li	v1,26
    efc0:	a343018b 	sb	v1,395(k0)
    efc4:	304200ff 	andi	v0,v0,0xff
    efc8:	2443fffe 	addiu	v1,v0,-2
    efcc:	8f820000 	lw	v0,0(gp)
    efd0:	30424000 	andi	v0,v0,0x4000
    efd4:	10400008 	beqz	v0,0xeff8
    efd8:	8f820004 	lw	v0,4(gp)
    efdc:	8f820008 	lw	v0,8(gp)
    efe0:	0043102b 	sltu	v0,v0,v1
    efe4:	14400004 	bnez	v0,0xeff8
    efe8:	8f820004 	lw	v0,4(gp)
    efec:	a7430194 	sh	v1,404(k0)
    eff0:	0a0011f0 	j	0x80047c0
    eff4:	34420001 	ori	v0,v0,0x1
    eff8:	2403fffe 	li	v1,-2
    effc:	00431024 	and	v0,v0,v1
    f000:	0a0011f4 	j	0x80047d0
    f004:	af820004 	sw	v0,4(gp)
    f008:	24020003 	li	v0,3
    f00c:	a342018b 	sb	v0,395(k0)
    f010:	8f830004 	lw	v1,4(gp)
    f014:	2402bfff 	li	v0,-16385
    f018:	00621824 	and	v1,v1,v0
    f01c:	24020002 	li	v0,2
    f020:	a742018c 	sh	v0,396(k0)
    f024:	8f820000 	lw	v0,0(gp)
    f028:	a745018e 	sh	a1,398(k0)
    f02c:	a7460188 	sh	a2,392(k0)
    f030:	a74301a6 	sh	v1,422(k0)
    f034:	0a00128f 	j	0x8004a3c
    f038:	a7420190 	sh	v0,400(k0)
    f03c:	3c020001 	lui	v0,0x1
    f040:	00821024 	and	v0,a0,v0
    f044:	5040000b 	beqzl	v0,0xf074
    f048:	3c021000 	lui	v0,0x1000
    f04c:	3c020800 	lui	v0,0x800
    f050:	8c4200d8 	lw	v0,216(v0)
    f054:	9745010e 	lhu	a1,270(k0)
    f058:	24040080 	li	a0,128
    f05c:	24420001 	addiu	v0,v0,1
    f060:	30a5ffff 	andi	a1,a1,0xffff
    f064:	3c010800 	lui	at,0x800
    f068:	ac2200d8 	sw	v0,216(at)
    f06c:	0a001298 	j	0x8004a60
    f070:	24060003 	li	a2,3
    f074:	00821024 	and	v0,a0,v0
    f078:	10400041 	beqz	v0,0xf180
    f07c:	00000000 	nop
    f080:	3c020800 	lui	v0,0x800
    f084:	8c420030 	lw	v0,48(v0)
    f088:	1040000c 	beqz	v0,0xf0bc
    f08c:	8f820004 	lw	v0,4(gp)
    f090:	30424000 	andi	v0,v0,0x4000
    f094:	10400009 	beqz	v0,0xf0bc
    f098:	3c030f00 	lui	v1,0xf00
    f09c:	00831824 	and	v1,a0,v1
    f0a0:	3c020100 	lui	v0,0x100
    f0a4:	0043102b 	sltu	v0,v0,v1
    f0a8:	14400004 	bnez	v0,0xf0bc
    f0ac:	36460002 	ori	a2,s2,0x2
    f0b0:	3265ffff 	andi	a1,s3,0xffff
    f0b4:	0a001298 	j	0x8004a60
    f0b8:	24040080 	li	a0,128
    f0bc:	10a0000d 	beqz	a1,0xf0f4
    f0c0:	30820100 	andi	v0,a0,0x100
    f0c4:	1040000b 	beqz	v0,0xf0f4
    f0c8:	3c020f00 	lui	v0,0xf00
    f0cc:	00821024 	and	v0,a0,v0
    f0d0:	3c030200 	lui	v1,0x200
    f0d4:	10430007 	beq	v0,v1,0xf0f4
    f0d8:	8f82000c 	lw	v0,12(gp)
    f0dc:	00541024 	and	v0,v0,s4
    f0e0:	00571021 	addu	v0,v0,s7
    f0e4:	90420004 	lbu	v0,4(v0)
    f0e8:	24420004 	addiu	v0,v0,4
    f0ec:	0a00124d 	j	0x8004934
    f0f0:	000221c0 	sll	a0,v0,0x7
    f0f4:	00000000 	nop
    f0f8:	8f860000 	lw	a2,0(gp)
    f0fc:	3c050800 	lui	a1,0x800
    f100:	8ca500d0 	lw	a1,208(a1)
    f104:	00061602 	srl	v0,a2,0x18
    f108:	3050000f 	andi	s0,v0,0xf
    f10c:	38a20001 	xori	v0,a1,0x1
    f110:	2c420001 	sltiu	v0,v0,1
    f114:	2e03000c 	sltiu	v1,s0,12
    f118:	00431024 	and	v0,v0,v1
    f11c:	14400015 	bnez	v0,0xf174
    f120:	001021c0 	sll	a0,s0,0x7
    f124:	2602fffc 	addiu	v0,s0,-4
    f128:	2c420004 	sltiu	v0,v0,4
    f12c:	54400011 	bnezl	v0,0xf174
    f130:	00002021 	move	a0,zero
    f134:	38a20002 	xori	v0,a1,0x2
    f138:	2c420001 	sltiu	v0,v0,1
    f13c:	00431024 	and	v0,v0,v1
    f140:	50400003 	beqzl	v0,0xf150
    f144:	00061242 	srl	v0,a2,0x9
    f148:	0a00124d 	j	0x8004934
    f14c:	00002021 	move	a0,zero
    f150:	0010182b 	sltu	v1,zero,s0
    f154:	00431024 	and	v0,v0,v1
    f158:	50400006 	beqzl	v0,0xf174
    f15c:	001021c0 	sll	a0,s0,0x7
    f160:	00002021 	move	a0,zero
    f164:	3265ffff 	andi	a1,s3,0xffff
    f168:	0e000f14 	jal	0x8003c50
    f16c:	3246fffb 	andi	a2,s2,0xfffb
    f170:	001021c0 	sll	a0,s0,0x7
    f174:	3265ffff 	andi	a1,s3,0xffff
    f178:	0a001298 	j	0x8004a60
    f17c:	36460002 	ori	a2,s2,0x2
    f180:	8f424000 	lw	v0,16384(k0)
    f184:	3c110800 	lui	s1,0x800
    f188:	8e310024 	lw	s1,36(s1)
    f18c:	30420100 	andi	v0,v0,0x100
    f190:	1040003e 	beqz	v0,0xf28c
    f194:	32220001 	andi	v0,s1,0x1
    f198:	02208021 	move	s0,s1
    f19c:	10a00014 	beqz	a1,0xf1f0
    f1a0:	32550004 	andi	s5,s2,0x4
    f1a4:	30820100 	andi	v0,a0,0x100
    f1a8:	10400012 	beqz	v0,0xf1f4
    f1ac:	24020001 	li	v0,1
    f1b0:	3c020f00 	lui	v0,0xf00
    f1b4:	00821024 	and	v0,a0,v0
    f1b8:	3c030200 	lui	v1,0x200
    f1bc:	1043000c 	beq	v0,v1,0xf1f0
    f1c0:	8f82000c 	lw	v0,12(gp)
    f1c4:	02403021 	move	a2,s2
    f1c8:	3265ffff 	andi	a1,s3,0xffff
    f1cc:	00541024 	and	v0,v0,s4
    f1d0:	00571021 	addu	v0,v0,s7
    f1d4:	90440004 	lbu	a0,4(v0)
    f1d8:	3252fffb 	andi	s2,s2,0xfffb
    f1dc:	24840004 	addiu	a0,a0,4
    f1e0:	0e000f14 	jal	0x8003c50
    f1e4:	000421c0 	sll	a0,a0,0x7
    f1e8:	2402fffe 	li	v0,-2
    f1ec:	02228024 	and	s0,s1,v0
    f1f0:	24020001 	li	v0,1
    f1f4:	16020007 	bne	s0,v0,0xf214
    f1f8:	32020001 	andi	v0,s0,0x1
    f1fc:	32420004 	andi	v0,s2,0x4
    f200:	50400001 	beqzl	v0,0xf208
    f204:	36520002 	ori	s2,s2,0x2
    f208:	3265ffff 	andi	a1,s3,0xffff
    f20c:	0a001297 	j	0x8004a5c
    f210:	02403021 	move	a2,s2
    f214:	10400007 	beqz	v0,0xf234
    f218:	32020004 	andi	v0,s0,0x4
    f21c:	02403021 	move	a2,s2
    f220:	00002021 	move	a0,zero
    f224:	0e000f14 	jal	0x8003c50
    f228:	3265ffff 	andi	a1,s3,0xffff
    f22c:	3252fffb 	andi	s2,s2,0xfffb
    f230:	32020004 	andi	v0,s0,0x4
    f234:	10400007 	beqz	v0,0xf254
    f238:	8f820000 	lw	v0,0(gp)
    f23c:	30420800 	andi	v0,v0,0x800
    f240:	10400004 	beqz	v0,0xf254
    f244:	3265ffff 	andi	a1,s3,0xffff
    f248:	02403021 	move	a2,s2
    f24c:	0e000f14 	jal	0x8003c50
    f250:	24040100 	li	a0,256
    f254:	16a0002e 	bnez	s5,0xf310
    f258:	3c024000 	lui	v0,0x4000
    f25c:	27430180 	addiu	v1,k0,384
    f260:	8f4201b8 	lw	v0,440(k0)
    f264:	0440fffe 	bltz	v0,0xf260
    f268:	24022000 	li	v0,8192
    f26c:	a4620008 	sh	v0,8(v1)
    f270:	24020002 	li	v0,2
    f274:	a062000b 	sb	v0,11(v1)
    f278:	a4600010 	sh	zero,16(v1)
    f27c:	3c021000 	lui	v0,0x1000
    f280:	af4201b8 	sw	v0,440(k0)
    f284:	0a0012b4 	j	0x8004ad0
    f288:	3c024000 	lui	v0,0x4000
    f28c:	50400020 	beqzl	v0,0xf310
    f290:	3c024000 	lui	v0,0x4000
    f294:	3265ffff 	andi	a1,s3,0xffff
    f298:	36460002 	ori	a2,s2,0x2
    f29c:	00002021 	move	a0,zero
    f2a0:	0e000f14 	jal	0x8003c50
    f2a4:	00000000 	nop
    f2a8:	0a0012b4 	j	0x8004ad0
    f2ac:	3c024000 	lui	v0,0x4000
    f2b0:	2402bfff 	li	v0,-16385
    f2b4:	00621024 	and	v0,v1,v0
    f2b8:	10400008 	beqz	v0,0xf2dc
    f2bc:	00000000 	nop
    f2c0:	240287ff 	li	v0,-30721
    f2c4:	00621024 	and	v0,v1,v0
    f2c8:	14400008 	bnez	v0,0xf2ec
    f2cc:	3c020060 	lui	v0,0x60
    f2d0:	00821024 	and	v0,a0,v0
    f2d4:	10400005 	beqz	v0,0xf2ec
    f2d8:	00000000 	nop
    f2dc:	0e000d26 	jal	0x8003498
    f2e0:	00000000 	nop
    f2e4:	0a0012ad 	j	0x8004ab4
    f2e8:	00000000 	nop
    f2ec:	0e0012f8 	jal	0x8004be0
    f2f0:	00000000 	nop
    f2f4:	10400006 	beqz	v0,0xf310
    f2f8:	3c024000 	lui	v0,0x4000
    f2fc:	8f430124 	lw	v1,292(k0)
    f300:	3c026020 	lui	v0,0x6020
    f304:	ac430014 	sw	v1,20(v0)
    f308:	00000000 	nop
    f30c:	3c024000 	lui	v0,0x4000
    f310:	af420138 	sw	v0,312(k0)
    f314:	00000000 	nop
    f318:	32c20002 	andi	v0,s6,0x2
    f31c:	1040fe6a 	beqz	v0,0xecc8
    f320:	3c028000 	lui	v0,0x8000
    f324:	8f420140 	lw	v0,320(k0)
    f328:	3c044000 	lui	a0,0x4000
    f32c:	af420020 	sw	v0,32(k0)
    f330:	8f430148 	lw	v1,328(k0)
    f334:	3c027000 	lui	v0,0x7000
    f338:	00621824 	and	v1,v1,v0
    f33c:	1064002d 	beq	v1,a0,0xf3f4
    f340:	00000000 	nop
    f344:	0083102b 	sltu	v0,a0,v1
    f348:	14400006 	bnez	v0,0xf364
    f34c:	3c026000 	lui	v0,0x6000
    f350:	3c022000 	lui	v0,0x2000
    f354:	10620007 	beq	v1,v0,0xf374
    f358:	3c024000 	lui	v0,0x4000
    f35c:	0a0012f4 	j	0x8004bd0
    f360:	00000000 	nop
    f364:	10620027 	beq	v1,v0,0xf404
    f368:	00000000 	nop
    f36c:	0a0012f4 	j	0x8004bd0
    f370:	3c024000 	lui	v0,0x4000
    f374:	8f420148 	lw	v0,328(k0)
    f378:	24030004 	li	v1,4
    f37c:	00021402 	srl	v0,v0,0x10
    f380:	304200ff 	andi	v0,v0,0xff
    f384:	1443000b 	bne	v0,v1,0xf3b4
    f388:	27440180 	addiu	a0,k0,384
    f38c:	8f430140 	lw	v1,320(k0)
    f390:	8f4201b8 	lw	v0,440(k0)
    f394:	0440fffe 	bltz	v0,0xf390
    f398:	2402001c 	li	v0,28
    f39c:	ac830000 	sw	v1,0(a0)
    f3a0:	a082000b 	sb	v0,11(a0)
    f3a4:	3c021000 	lui	v0,0x1000
    f3a8:	af4201b8 	sw	v0,440(k0)
    f3ac:	0a0012f4 	j	0x8004bd0
    f3b0:	3c024000 	lui	v0,0x4000
    f3b4:	8f4201b8 	lw	v0,440(k0)
    f3b8:	0440fffe 	bltz	v0,0xf3b4
    f3bc:	00000000 	nop
    f3c0:	8f420148 	lw	v0,328(k0)
    f3c4:	00021402 	srl	v0,v0,0x10
    f3c8:	a4820008 	sh	v0,8(a0)
    f3cc:	24020002 	li	v0,2
    f3d0:	a082000b 	sb	v0,11(a0)
    f3d4:	8f420148 	lw	v0,328(k0)
    f3d8:	a4820010 	sh	v0,16(a0)
    f3dc:	8f420144 	lw	v0,324(k0)
    f3e0:	ac820024 	sw	v0,36(a0)
    f3e4:	3c021000 	lui	v0,0x1000
    f3e8:	af4201b8 	sw	v0,440(k0)
    f3ec:	0a0012f4 	j	0x8004bd0
    f3f0:	3c024000 	lui	v0,0x4000
    f3f4:	0e00131c 	jal	0x8004c70
    f3f8:	00000000 	nop
    f3fc:	0a0012f4 	j	0x8004bd0
    f400:	3c024000 	lui	v0,0x4000
    f404:	0e001c53 	jal	0x800714c
    f408:	00000000 	nop
    f40c:	3c024000 	lui	v0,0x4000
    f410:	af420178 	sw	v0,376(k0)
    f414:	00000000 	nop
    f418:	0a001122 	j	0x8004488
    f41c:	3c028000 	lui	v0,0x8000
    f420:	8f420100 	lw	v0,256(k0)
    f424:	3042003e 	andi	v0,v0,0x3e
    f428:	14400011 	bnez	v0,0xf470
    f42c:	24020001 	li	v0,1
    f430:	af400048 	sw	zero,72(k0)
    f434:	8f420100 	lw	v0,256(k0)
    f438:	304207c0 	andi	v0,v0,0x7c0
    f43c:	10400005 	beqz	v0,0xf454
    f440:	00000000 	nop
    f444:	af40004c 	sw	zero,76(k0)
    f448:	af400050 	sw	zero,80(k0)
    f44c:	03e00008 	jr	ra
    f450:	24020001 	li	v0,1
    f454:	af400054 	sw	zero,84(k0)
    f458:	af400040 	sw	zero,64(k0)
    f45c:	8f420100 	lw	v0,256(k0)
    f460:	30423800 	andi	v0,v0,0x3800
    f464:	54400001 	bnezl	v0,0xf46c
    f468:	af400044 	sw	zero,68(k0)
    f46c:	24020001 	li	v0,1
    f470:	03e00008 	jr	ra
    f474:	00000000 	nop
    f478:	3c029000 	lui	v0,0x9000
    f47c:	34420001 	ori	v0,v0,0x1
    f480:	00822025 	or	a0,a0,v0
    f484:	af440020 	sw	a0,32(k0)
    f488:	8f420020 	lw	v0,32(k0)
    f48c:	0440fffe 	bltz	v0,0xf488
    f490:	00000000 	nop
    f494:	03e00008 	jr	ra
    f498:	00000000 	nop
    f49c:	3c028000 	lui	v0,0x8000
    f4a0:	34420001 	ori	v0,v0,0x1
    f4a4:	00822025 	or	a0,a0,v0
    f4a8:	03e00008 	jr	ra
    f4ac:	af440020 	sw	a0,32(k0)
    f4b0:	27bdffe0 	addiu	sp,sp,-32
    f4b4:	afb20018 	sw	s2,24(sp)
    f4b8:	afbf001c 	sw	ra,28(sp)
    f4bc:	afb10014 	sw	s1,20(sp)
    f4c0:	afb00010 	sw	s0,16(sp)
    f4c4:	8f500140 	lw	s0,320(k0)
    f4c8:	8f510148 	lw	s1,328(k0)
    f4cc:	3c028000 	lui	v0,0x8000
    f4d0:	00119402 	srl	s2,s1,0x10
    f4d4:	02222024 	and	a0,s1,v0
    f4d8:	324300ff 	andi	v1,s2,0xff
    f4dc:	2402000e 	li	v0,14
    f4e0:	1062008a 	beq	v1,v0,0xf70c
    f4e4:	2862000f 	slti	v0,v1,15
    f4e8:	10400012 	beqz	v0,0xf534
    f4ec:	28620037 	slti	v0,v1,55
    f4f0:	24020006 	li	v0,6
    f4f4:	1062003b 	beq	v1,v0,0xf5e4
    f4f8:	28620007 	slti	v0,v1,7
    f4fc:	10400007 	beqz	v0,0xf51c
    f500:	24020009 	li	v0,9
    f504:	1060001a 	beqz	v1,0xf570
    f508:	24020001 	li	v0,1
    f50c:	10620025 	beq	v1,v0,0xf5a4
    f510:	00000000 	nop
    f514:	0a0013d1 	j	0x8004f44
    f518:	00000000 	nop
    f51c:	1062007b 	beq	v1,v0,0xf70c
    f520:	2402000b 	li	v0,11
    f524:	1062005b 	beq	v1,v0,0xf694
    f528:	3222ffff 	andi	v0,s1,0xffff
    f52c:	0a0013d1 	j	0x8004f44
    f530:	00000000 	nop
    f534:	10400008 	beqz	v0,0xf558
    f538:	24020038 	li	v0,56
    f53c:	28620035 	slti	v0,v1,53
    f540:	10400080 	beqz	v0,0xf744
    f544:	2402001f 	li	v0,31
    f548:	1062007e 	beq	v1,v0,0xf744
    f54c:	00000000 	nop
    f550:	0a0013d1 	j	0x8004f44
    f554:	00000000 	nop
    f558:	1062007a 	beq	v1,v0,0xf744
    f55c:	24020080 	li	v0,128
    f560:	10620042 	beq	v1,v0,0xf66c
    f564:	00000000 	nop
    f568:	0a0013d1 	j	0x8004f44
    f56c:	00000000 	nop
    f570:	8f4201b8 	lw	v0,440(k0)
    f574:	0440fffe 	bltz	v0,0xf570
    f578:	24020001 	li	v0,1
    f57c:	af500180 	sw	s0,384(k0)
    f580:	af400184 	sw	zero,388(k0)
    f584:	a7520188 	sh	s2,392(k0)
    f588:	a342018a 	sb	v0,394(k0)
    f58c:	24020002 	li	v0,2
    f590:	a342018b 	sb	v0,395(k0)
    f594:	a7510190 	sh	s1,400(k0)
    f598:	8f420144 	lw	v0,324(k0)
    f59c:	0a0013cc 	j	0x8004f30
    f5a0:	af4201a4 	sw	v0,420(k0)
    f5a4:	1080000a 	beqz	a0,0xf5d0
    f5a8:	24020002 	li	v0,2
    f5ac:	3c010800 	lui	at,0x800
    f5b0:	a02275d8 	sb	v0,30168(at)
    f5b4:	3c010800 	lui	at,0x800
    f5b8:	ac3075e0 	sw	s0,30176(at)
    f5bc:	8f420144 	lw	v0,324(k0)
    f5c0:	3c010800 	lui	at,0x800
    f5c4:	ac2275dc 	sw	v0,30172(at)
    f5c8:	0a0013d3 	j	0x8004f4c
    f5cc:	8fbf001c 	lw	ra,28(sp)
    f5d0:	8f4201b8 	lw	v0,440(k0)
    f5d4:	0440fffe 	bltz	v0,0xf5d0
    f5d8:	24020002 	li	v0,2
    f5dc:	0a0013b6 	j	0x8004ed8
    f5e0:	00000000 	nop
    f5e4:	8f4201b8 	lw	v0,440(k0)
    f5e8:	0440fffe 	bltz	v0,0xf5e4
    f5ec:	00000000 	nop
    f5f0:	af500180 	sw	s0,384(k0)
    f5f4:	3c020800 	lui	v0,0x800
    f5f8:	904275d8 	lbu	v0,30168(v0)
    f5fc:	10400003 	beqz	v0,0xf60c
    f600:	00001821 	move	v1,zero
    f604:	3c030800 	lui	v1,0x800
    f608:	8c6375e0 	lw	v1,30176(v1)
    f60c:	af430184 	sw	v1,388(k0)
    f610:	a7520188 	sh	s2,392(k0)
    f614:	3c020800 	lui	v0,0x800
    f618:	904275d8 	lbu	v0,30168(v0)
    f61c:	00001821 	move	v1,zero
    f620:	34420001 	ori	v0,v0,0x1
    f624:	a342018a 	sb	v0,394(k0)
    f628:	24020002 	li	v0,2
    f62c:	a342018b 	sb	v0,395(k0)
    f630:	a7510190 	sh	s1,400(k0)
    f634:	8f420144 	lw	v0,324(k0)
    f638:	af4201a4 	sw	v0,420(k0)
    f63c:	3c020800 	lui	v0,0x800
    f640:	904275d8 	lbu	v0,30168(v0)
    f644:	10400003 	beqz	v0,0xf654
    f648:	3c021000 	lui	v0,0x1000
    f64c:	3c030800 	lui	v1,0x800
    f650:	8c6375dc 	lw	v1,30172(v1)
    f654:	af4301a8 	sw	v1,424(k0)
    f658:	af4201b8 	sw	v0,440(k0)
    f65c:	3c010800 	lui	at,0x800
    f660:	a02075d8 	sb	zero,30168(at)
    f664:	0a0013d3 	j	0x8004f4c
    f668:	8fbf001c 	lw	ra,28(sp)
    f66c:	8f4201b8 	lw	v0,440(k0)
    f670:	0440fffe 	bltz	v0,0xf66c
    f674:	24020002 	li	v0,2
    f678:	a342018b 	sb	v0,395(k0)
    f67c:	a7520188 	sh	s2,392(k0)
    f680:	a7510190 	sh	s1,400(k0)
    f684:	8f420144 	lw	v0,324(k0)
    f688:	a7420192 	sh	v0,402(k0)
    f68c:	0a0013ce 	j	0x8004f38
    f690:	3c021000 	lui	v0,0x1000
    f694:	1440001d 	bnez	v0,0xf70c
    f698:	00000000 	nop
    f69c:	93620005 	lbu	v0,5(k1)
    f6a0:	30420004 	andi	v0,v0,0x4
    f6a4:	14400037 	bnez	v0,0xf784
    f6a8:	00000000 	nop
    f6ac:	0e00130e 	jal	0x8004c38
    f6b0:	02002021 	move	a0,s0
    f6b4:	93620005 	lbu	v0,5(k1)
    f6b8:	02002021 	move	a0,s0
    f6bc:	34420004 	ori	v0,v0,0x4
    f6c0:	0e001317 	jal	0x8004c5c
    f6c4:	a3620005 	sb	v0,5(k1)
    f6c8:	93620005 	lbu	v0,5(k1)
    f6cc:	30420004 	andi	v0,v0,0x4
    f6d0:	14400002 	bnez	v0,0xf6dc
    f6d4:	00000000 	nop
    f6d8:	0000000d 	break
    f6dc:	93620000 	lbu	v0,0(k1)
    f6e0:	24030020 	li	v1,32
    f6e4:	304200ff 	andi	v0,v0,0xff
    f6e8:	14430008 	bne	v0,v1,0xf70c
    f6ec:	00000000 	nop
    f6f0:	8f4201b8 	lw	v0,440(k0)
    f6f4:	0440fffe 	bltz	v0,0xf6f0
    f6f8:	24020005 	li	v0,5
    f6fc:	af500180 	sw	s0,384(k0)
    f700:	a342018b 	sb	v0,395(k0)
    f704:	3c021000 	lui	v0,0x1000
    f708:	af4201b8 	sw	v0,440(k0)
    f70c:	8f4201b8 	lw	v0,440(k0)
    f710:	0440fffe 	bltz	v0,0xf70c
    f714:	24020002 	li	v0,2
    f718:	af400180 	sw	zero,384(k0)
    f71c:	af500184 	sw	s0,388(k0)
    f720:	a7520188 	sh	s2,392(k0)
    f724:	a342018a 	sb	v0,394(k0)
    f728:	a342018b 	sb	v0,395(k0)
    f72c:	a7510190 	sh	s1,400(k0)
    f730:	af4001a4 	sw	zero,420(k0)
    f734:	8f420144 	lw	v0,324(k0)
    f738:	af4201a8 	sw	v0,424(k0)
    f73c:	0a0013ce 	j	0x8004f38
    f740:	3c021000 	lui	v0,0x1000
    f744:	8f4201b8 	lw	v0,440(k0)
    f748:	0440fffe 	bltz	v0,0xf744
    f74c:	24020001 	li	v0,1
    f750:	af500180 	sw	s0,384(k0)
    f754:	af400184 	sw	zero,388(k0)
    f758:	a7520188 	sh	s2,392(k0)
    f75c:	a342018a 	sb	v0,394(k0)
    f760:	24020002 	li	v0,2
    f764:	a342018b 	sb	v0,395(k0)
    f768:	a7510190 	sh	s1,400(k0)
    f76c:	af4001a4 	sw	zero,420(k0)
    f770:	af4001a8 	sw	zero,424(k0)
    f774:	3c021000 	lui	v0,0x1000
    f778:	af4201b8 	sw	v0,440(k0)
    f77c:	0a0013d3 	j	0x8004f4c
    f780:	8fbf001c 	lw	ra,28(sp)
    f784:	0000000d 	break
    f788:	8fbf001c 	lw	ra,28(sp)
    f78c:	8fb20018 	lw	s2,24(sp)
    f790:	8fb10014 	lw	s1,20(sp)
    f794:	8fb00010 	lw	s0,16(sp)
    f798:	03e00008 	jr	ra
    f79c:	27bd0020 	addiu	sp,sp,32
    f7a0:	27bdffe8 	addiu	sp,sp,-24
    f7a4:	afbf0010 	sw	ra,16(sp)
    f7a8:	0e000f0e 	jal	0x8003c38
    f7ac:	00000000 	nop
    f7b0:	af400180 	sw	zero,384(k0)
    f7b4:	8fbf0010 	lw	ra,16(sp)
    f7b8:	00002021 	move	a0,zero
    f7bc:	0a000fad 	j	0x8003eb4
    f7c0:	27bd0018 	addiu	sp,sp,24
    f7c4:	3084ffff 	andi	a0,a0,0xffff
    f7c8:	30a5ffff 	andi	a1,a1,0xffff
    f7cc:	00001821 	move	v1,zero
    f7d0:	10800007 	beqz	a0,0xf7f0
    f7d4:	00000000 	nop
    f7d8:	30820001 	andi	v0,a0,0x1
    f7dc:	10400002 	beqz	v0,0xf7e8
    f7e0:	00042042 	srl	a0,a0,0x1
    f7e4:	00651821 	addu	v1,v1,a1
    f7e8:	0a0013e4 	j	0x8004f90
    f7ec:	00052840 	sll	a1,a1,0x1
    f7f0:	03e00008 	jr	ra
    f7f4:	00601021 	move	v0,v1
    f7f8:	10c00006 	beqz	a2,0xf814
    f7fc:	24c6ffff 	addiu	a2,a2,-1
    f800:	8ca20000 	lw	v0,0(a1)
    f804:	24a50004 	addiu	a1,a1,4
    f808:	ac820000 	sw	v0,0(a0)
    f80c:	0a0013ee 	j	0x8004fb8
    f810:	24840004 	addiu	a0,a0,4
    f814:	03e00008 	jr	ra
    f818:	00000000 	nop
    f81c:	10a00008 	beqz	a1,0xf840
    f820:	24a3ffff 	addiu	v1,a1,-1
    f824:	ac860000 	sw	a2,0(a0)
	...
    f830:	2402ffff 	li	v0,-1
    f834:	2463ffff 	addiu	v1,v1,-1
    f838:	1462fffa 	bne	v1,v0,0xf824
    f83c:	24840004 	addiu	a0,a0,4
    f840:	03e00008 	jr	ra
    f844:	00000000 	nop
    f848:	27bdffe8 	addiu	sp,sp,-24
    f84c:	afbf0014 	sw	ra,20(sp)
    f850:	afb00010 	sw	s0,16(sp)
    f854:	0e00130e 	jal	0x8004c38
    f858:	00808021 	move	s0,a0
    f85c:	9362007d 	lbu	v0,125(k1)
    f860:	02002021 	move	a0,s0
    f864:	34420020 	ori	v0,v0,0x20
    f868:	0e001317 	jal	0x8004c5c
    f86c:	a362007d 	sb	v0,125(k1)
    f870:	02002021 	move	a0,s0
    f874:	8fbf0014 	lw	ra,20(sp)
    f878:	8fb00010 	lw	s0,16(sp)
    f87c:	0a000c9b 	j	0x800326c
    f880:	27bd0018 	addiu	sp,sp,24
    f884:	308300ff 	andi	v1,a0,0xff
    f888:	30a500ff 	andi	a1,a1,0xff
    f88c:	30c600ff 	andi	a2,a2,0xff
    f890:	27470180 	addiu	a3,k0,384
    f894:	8f4201b8 	lw	v0,440(k0)
    f898:	0440fffe 	bltz	v0,0xf894
    f89c:	00000000 	nop
    f8a0:	8f420128 	lw	v0,296(k0)
    f8a4:	34634000 	ori	v1,v1,0x4000
    f8a8:	ace20000 	sw	v0,0(a3)
    f8ac:	24020001 	li	v0,1
    f8b0:	ace00004 	sw	zero,4(a3)
    f8b4:	a4e30008 	sh	v1,8(a3)
    f8b8:	a0e2000a 	sb	v0,10(a3)
    f8bc:	24020002 	li	v0,2
    f8c0:	a0e2000b 	sb	v0,11(a3)
    f8c4:	3c021000 	lui	v0,0x1000
    f8c8:	a4e50010 	sh	a1,16(a3)
    f8cc:	ace00024 	sw	zero,36(a3)
    f8d0:	ace00028 	sw	zero,40(a3)
    f8d4:	a4e60012 	sh	a2,18(a3)
    f8d8:	03e00008 	jr	ra
    f8dc:	af4201b8 	sw	v0,440(k0)
    f8e0:	27bdffe8 	addiu	sp,sp,-24
    f8e4:	afbf0010 	sw	ra,16(sp)
    f8e8:	9362003f 	lbu	v0,63(k1)
    f8ec:	24030012 	li	v1,18
    f8f0:	304200ff 	andi	v0,v0,0xff
    f8f4:	1043000d 	beq	v0,v1,0xf92c
    f8f8:	00803021 	move	a2,a0
    f8fc:	8f620044 	lw	v0,68(k1)
    f900:	00821023 	subu	v0,a0,v0
    f904:	0440000a 	bltz	v0,0xf930
    f908:	8fbf0010 	lw	ra,16(sp)
    f90c:	8f620048 	lw	v0,72(k1)
    f910:	24040039 	li	a0,57
    f914:	00002821 	move	a1,zero
    f918:	00c21023 	subu	v0,a2,v0
    f91c:	04410004 	bgez	v0,0xf930
    f920:	24060012 	li	a2,18
    f924:	0e001411 	jal	0x8005044
    f928:	00000000 	nop
    f92c:	8fbf0010 	lw	ra,16(sp)
    f930:	24020001 	li	v0,1
    f934:	03e00008 	jr	ra
    f938:	27bd0018 	addiu	sp,sp,24
    f93c:	27bdffc8 	addiu	sp,sp,-56
    f940:	afb1002c 	sw	s1,44(sp)
    f944:	00a08821 	move	s1,a1
    f948:	afb20030 	sw	s2,48(sp)
    f94c:	27a50010 	addiu	a1,sp,16
    f950:	00809021 	move	s2,a0
    f954:	02202021 	move	a0,s1
    f958:	afbf0034 	sw	ra,52(sp)
    f95c:	afb00028 	sw	s0,40(sp)
    f960:	0e000ca4 	jal	0x8003290
    f964:	afa00010 	sw	zero,16(sp)
    f968:	10400009 	beqz	v0,0xf990
    f96c:	02402021 	move	a0,s2
    f970:	8e220008 	lw	v0,8(s1)
    f974:	af620084 	sw	v0,132(k1)
    f978:	0e001402 	jal	0x8005008
    f97c:	af600040 	sw	zero,64(k1)
    f980:	24040038 	li	a0,56
    f984:	2405008d 	li	a1,141
    f988:	0a0014dd 	j	0x8005374
    f98c:	24060012 	li	a2,18
    f990:	9362003e 	lbu	v0,62(k1)
    f994:	30420008 	andi	v0,v0,0x8
    f998:	1040000f 	beqz	v0,0xf9d8
    f99c:	8fa20010 	lw	v0,16(sp)
    f9a0:	30420100 	andi	v0,v0,0x100
    f9a4:	10400007 	beqz	v0,0xf9c4
    f9a8:	8fa30014 	lw	v1,20(sp)
    f9ac:	8f620060 	lw	v0,96(k1)
    f9b0:	00621023 	subu	v0,v1,v0
    f9b4:	04430008 	bgezl	v0,0xf9d8
    f9b8:	af630060 	sw	v1,96(k1)
    f9bc:	0a001466 	j	0x8005198
    f9c0:	00000000 	nop
    f9c4:	af600060 	sw	zero,96(k1)
    f9c8:	9362003e 	lbu	v0,62(k1)
    f9cc:	2403fff7 	li	v1,-9
    f9d0:	00431024 	and	v0,v0,v1
    f9d4:	a362003e 	sb	v0,62(k1)
    f9d8:	9362003e 	lbu	v0,62(k1)
    f9dc:	30420008 	andi	v0,v0,0x8
    f9e0:	14400002 	bnez	v0,0xf9ec
    f9e4:	24060003 	li	a2,3
    f9e8:	00003021 	move	a2,zero
    f9ec:	93620034 	lbu	v0,52(k1)
    f9f0:	93630037 	lbu	v1,55(k1)
    f9f4:	8f640084 	lw	a0,132(k1)
    f9f8:	304200ff 	andi	v0,v0,0xff
    f9fc:	306300ff 	andi	v1,v1,0xff
    fa00:	00661821 	addu	v1,v1,a2
    fa04:	00031880 	sll	v1,v1,0x2
    fa08:	00432821 	addu	a1,v0,v1
    fa0c:	00a4202b 	sltu	a0,a1,a0
    fa10:	1080000b 	beqz	a0,0xfa40
    fa14:	00000000 	nop
    fa18:	9763003c 	lhu	v1,60(k1)
    fa1c:	8f620084 	lw	v0,132(k1)
    fa20:	3063ffff 	andi	v1,v1,0xffff
    fa24:	00451023 	subu	v0,v0,a1
    fa28:	0062182b 	sltu	v1,v1,v0
    fa2c:	14600004 	bnez	v1,0xfa40
    fa30:	00000000 	nop
    fa34:	8f620084 	lw	v0,132(k1)
    fa38:	0a001482 	j	0x8005208
    fa3c:	00458023 	subu	s0,v0,a1
    fa40:	9762003c 	lhu	v0,60(k1)
    fa44:	3050ffff 	andi	s0,v0,0xffff
    fa48:	8fa30010 	lw	v1,16(sp)
    fa4c:	30620004 	andi	v0,v1,0x4
    fa50:	10400004 	beqz	v0,0xfa64
    fa54:	00062880 	sll	a1,a2,0x2
    fa58:	8fa2001c 	lw	v0,28(sp)
    fa5c:	0a00148a 	j	0x8005228
    fa60:	0202102b 	sltu	v0,s0,v0
    fa64:	2e020218 	sltiu	v0,s0,536
    fa68:	50400003 	beqzl	v0,0xfa78
    fa6c:	24020218 	li	v0,536
    fa70:	0a001493 	j	0x800524c
    fa74:	02051023 	subu	v0,s0,a1
    fa78:	30630004 	andi	v1,v1,0x4
    fa7c:	10600003 	beqz	v1,0xfa8c
    fa80:	00451023 	subu	v0,v0,a1
    fa84:	8fa2001c 	lw	v0,28(sp)
    fa88:	00451023 	subu	v0,v0,a1
    fa8c:	00408021 	move	s0,v0
    fa90:	2c420080 	sltiu	v0,v0,128
    fa94:	54400001 	bnezl	v0,0xfa9c
    fa98:	24100080 	li	s0,128
    fa9c:	0e00130e 	jal	0x8004c38
    faa0:	02402021 	move	a0,s2
    faa4:	24020001 	li	v0,1
    faa8:	af62000c 	sw	v0,12(k1)
    faac:	9362003e 	lbu	v0,62(k1)
    fab0:	00102040 	sll	a0,s0,0x1
    fab4:	3042007f 	andi	v0,v0,0x7f
    fab8:	a362003e 	sb	v0,62(k1)
    fabc:	8e220004 	lw	v0,4(s1)
    fac0:	24420001 	addiu	v0,v0,1
    fac4:	af620040 	sw	v0,64(k1)
    fac8:	a770003c 	sh	s0,60(k1)
    facc:	8f620050 	lw	v0,80(k1)
    fad0:	9623000e 	lhu	v1,14(s1)
    fad4:	00431021 	addu	v0,v0,v1
    fad8:	af620058 	sw	v0,88(k1)
    fadc:	8f620050 	lw	v0,80(k1)
    fae0:	00441021 	addu	v0,v0,a0
    fae4:	af62005c 	sw	v0,92(k1)
    fae8:	8e220004 	lw	v0,4(s1)
    faec:	af620018 	sw	v0,24(k1)
    faf0:	8e220008 	lw	v0,8(s1)
    faf4:	af62001c 	sw	v0,28(k1)
    faf8:	8fa20010 	lw	v0,16(sp)
    fafc:	30420008 	andi	v0,v0,0x8
    fb00:	5440000a 	bnezl	v0,0xfb2c
    fb04:	93a20020 	lbu	v0,32(sp)
    fb08:	a3600036 	sb	zero,54(k1)
    fb0c:	93620036 	lbu	v0,54(k1)
    fb10:	2403ffdf 	li	v1,-33
    fb14:	a3620035 	sb	v0,53(k1)
    fb18:	9362003e 	lbu	v0,62(k1)
    fb1c:	00431024 	and	v0,v0,v1
    fb20:	a362003e 	sb	v0,62(k1)
    fb24:	0a0014bd 	j	0x80052f4
    fb28:	8e220008 	lw	v0,8(s1)
    fb2c:	a3620035 	sb	v0,53(k1)
    fb30:	8e220008 	lw	v0,8(s1)
    fb34:	af62004c 	sw	v0,76(k1)
    fb38:	8f620024 	lw	v0,36(k1)
    fb3c:	8f630040 	lw	v1,64(k1)
    fb40:	00431021 	addu	v0,v0,v1
    fb44:	af620048 	sw	v0,72(k1)
    fb48:	93620000 	lbu	v0,0(k1)
    fb4c:	24030050 	li	v1,80
    fb50:	304200ff 	andi	v0,v0,0xff
    fb54:	14430012 	bne	v0,v1,0xfba0
    fb58:	2403ff80 	li	v1,-128
    fb5c:	3c020800 	lui	v0,0x800
    fb60:	8c4231a0 	lw	v0,12704(v0)
    fb64:	02421021 	addu	v0,s2,v0
    fb68:	00431024 	and	v0,v0,v1
    fb6c:	af420028 	sw	v0,40(k0)
    fb70:	3c020800 	lui	v0,0x800
    fb74:	8c4231a0 	lw	v0,12704(v0)
    fb78:	8e240008 	lw	a0,8(s1)
    fb7c:	3c03000c 	lui	v1,0xc
    fb80:	02421021 	addu	v0,s2,v0
    fb84:	3042007f 	andi	v0,v0,0x7f
    fb88:	03421021 	addu	v0,k0,v0
    fb8c:	00431021 	addu	v0,v0,v1
    fb90:	ac4400d8 	sw	a0,216(v0)
    fb94:	8e230008 	lw	v1,8(s1)
    fb98:	af820028 	sw	v0,40(gp)
    fb9c:	ac4300dc 	sw	v1,220(v0)
    fba0:	0e001317 	jal	0x8004c5c
    fba4:	02402021 	move	a0,s2
    fba8:	24040038 	li	a0,56
    fbac:	00002821 	move	a1,zero
    fbb0:	2406000a 	li	a2,10
    fbb4:	0e001411 	jal	0x8005044
    fbb8:	00000000 	nop
    fbbc:	8fbf0034 	lw	ra,52(sp)
    fbc0:	8fb20030 	lw	s2,48(sp)
    fbc4:	8fb1002c 	lw	s1,44(sp)
    fbc8:	8fb00028 	lw	s0,40(sp)
    fbcc:	24020001 	li	v0,1
    fbd0:	03e00008 	jr	ra
    fbd4:	27bd0038 	addiu	sp,sp,56
    fbd8:	27bdffe8 	addiu	sp,sp,-24
    fbdc:	afbf0010 	sw	ra,16(sp)
    fbe0:	90c7000d 	lbu	a3,13(a2)
    fbe4:	00c02821 	move	a1,a2
    fbe8:	30e60010 	andi	a2,a3,0x10
    fbec:	10c0000a 	beqz	a2,0xfc18
    fbf0:	30e20005 	andi	v0,a3,0x5
    fbf4:	8ca30008 	lw	v1,8(a1)
    fbf8:	8f620054 	lw	v0,84(k1)
    fbfc:	10620006 	beq	v1,v0,0xfc18
    fc00:	30e20005 	andi	v0,a3,0x5
    fc04:	14400017 	bnez	v0,0xfc64
    fc08:	8fbf0010 	lw	ra,16(sp)
    fc0c:	00002021 	move	a0,zero
    fc10:	0a000d13 	j	0x800344c
    fc14:	27bd0018 	addiu	sp,sp,24
    fc18:	1040000d 	beqz	v0,0xfc50
    fc1c:	30e30012 	andi	v1,a3,0x12
    fc20:	10c00010 	beqz	a2,0xfc64
    fc24:	8fbf0010 	lw	ra,16(sp)
    fc28:	8ca30008 	lw	v1,8(a1)
    fc2c:	8f620054 	lw	v0,84(k1)
    fc30:	1462000d 	bne	v1,v0,0xfc68
    fc34:	24020001 	li	v0,1
    fc38:	24040038 	li	a0,56
    fc3c:	2405008d 	li	a1,141
    fc40:	0e001411 	jal	0x8005044
    fc44:	24060012 	li	a2,18
    fc48:	0a001509 	j	0x8005424
    fc4c:	8fbf0010 	lw	ra,16(sp)
    fc50:	24020012 	li	v0,18
    fc54:	14620003 	bne	v1,v0,0xfc64
    fc58:	8fbf0010 	lw	ra,16(sp)
    fc5c:	0a00143f 	j	0x80050fc
    fc60:	27bd0018 	addiu	sp,sp,24
    fc64:	24020001 	li	v0,1
    fc68:	03e00008 	jr	ra
    fc6c:	27bd0018 	addiu	sp,sp,24
    fc70:	27bdfff8 	addiu	sp,sp,-8
    fc74:	27420180 	addiu	v0,k0,384
    fc78:	afa20000 	sw	v0,0(sp)
    fc7c:	308a00ff 	andi	t2,a0,0xff
    fc80:	8f4201b8 	lw	v0,440(k0)
    fc84:	0440fffe 	bltz	v0,0xfc80
    fc88:	00000000 	nop
    fc8c:	8f460128 	lw	a2,296(k0)
    fc90:	3c020800 	lui	v0,0x800
    fc94:	8c4231a0 	lw	v0,12704(v0)
    fc98:	2403ff80 	li	v1,-128
    fc9c:	af860050 	sw	a2,80(gp)
    fca0:	00c21021 	addu	v0,a2,v0
    fca4:	00431024 	and	v0,v0,v1
    fca8:	af420024 	sw	v0,36(k0)
    fcac:	3c020800 	lui	v0,0x800
    fcb0:	8c4231a0 	lw	v0,12704(v0)
    fcb4:	8fa90000 	lw	t1,0(sp)
    fcb8:	8fa80000 	lw	t0,0(sp)
    fcbc:	00c21021 	addu	v0,a2,v0
    fcc0:	3042007f 	andi	v0,v0,0x7f
    fcc4:	03421821 	addu	v1,k0,v0
    fcc8:	3c02000a 	lui	v0,0xa
    fccc:	00621821 	addu	v1,v1,v0
    fcd0:	946400d4 	lhu	a0,212(v1)
    fcd4:	8fa70000 	lw	a3,0(sp)
    fcd8:	8fa50000 	lw	a1,0(sp)
    fcdc:	24020002 	li	v0,2
    fce0:	af830028 	sw	v1,40(gp)
    fce4:	a0a2000b 	sb	v0,11(a1)
    fce8:	8fa30000 	lw	v1,0(sp)
    fcec:	35426000 	ori	v0,t2,0x6000
    fcf0:	3084ffff 	andi	a0,a0,0xffff
    fcf4:	a4e20008 	sh	v0,8(a3)
    fcf8:	3c021000 	lui	v0,0x1000
    fcfc:	ad260000 	sw	a2,0(t1)
    fd00:	ad040004 	sw	a0,4(t0)
    fd04:	ac600024 	sw	zero,36(v1)
    fd08:	27bd0008 	addiu	sp,sp,8
    fd0c:	af4201b8 	sw	v0,440(k0)
    fd10:	03e00008 	jr	ra
    fd14:	24020001 	li	v0,1
    fd18:	8c820004 	lw	v0,4(a0)
    fd1c:	8f830028 	lw	v1,40(gp)
    fd20:	00451023 	subu	v0,v0,a1
    fd24:	ac820004 	sw	v0,4(a0)
    fd28:	90620063 	lbu	v0,99(v1)
    fd2c:	3042007f 	andi	v0,v0,0x7f
    fd30:	a0620063 	sb	v0,99(v1)
    fd34:	8c820020 	lw	v0,32(a0)
    fd38:	93830030 	lbu	v1,48(gp)
    fd3c:	8f850028 	lw	a1,40(gp)
    fd40:	34420002 	ori	v0,v0,0x2
    fd44:	af830044 	sw	v1,68(gp)
    fd48:	a7800042 	sh	zero,66(gp)
    fd4c:	ac820020 	sw	v0,32(a0)
    fd50:	a4a000e4 	sh	zero,228(a1)
    fd54:	90a20063 	lbu	v0,99(a1)
    fd58:	2403ffbf 	li	v1,-65
    fd5c:	00431024 	and	v0,v0,v1
    fd60:	03e00008 	jr	ra
    fd64:	a0a20063 	sb	v0,99(a1)
    fd68:	27430180 	addiu	v1,k0,384
    fd6c:	8f4201b8 	lw	v0,440(k0)
    fd70:	0440fffe 	bltz	v0,0xfd6c
    fd74:	8f820050 	lw	v0,80(gp)
    fd78:	ac620000 	sw	v0,0(v1)
    fd7c:	8f420124 	lw	v0,292(k0)
    fd80:	ac620004 	sw	v0,4(v1)
    fd84:	24026083 	li	v0,24707
    fd88:	a4620008 	sh	v0,8(v1)
    fd8c:	24020002 	li	v0,2
    fd90:	a062000b 	sb	v0,11(v1)
    fd94:	3c021000 	lui	v0,0x1000
    fd98:	03e00008 	jr	ra
    fd9c:	af4201b8 	sw	v0,440(k0)
    fda0:	8f880044 	lw	t0,68(gp)
    fda4:	93820030 	lbu	v0,48(gp)
    fda8:	8f830028 	lw	v1,40(gp)
    fdac:	3c070800 	lui	a3,0x800
    fdb0:	24e779f4 	addiu	a3,a3,31220
    fdb4:	00481023 	subu	v0,v0,t0
    fdb8:	304200ff 	andi	v0,v0,0xff
    fdbc:	304900fc 	andi	t1,v0,0xfc
    fdc0:	24650088 	addiu	a1,v1,136
    fdc4:	8f860048 	lw	a2,72(gp)
    fdc8:	304a0003 	andi	t2,v0,0x3
    fdcc:	11200009 	beqz	t1,0xfdf4
    fdd0:	00002021 	move	a0,zero
    fdd4:	24820004 	addiu	v0,a0,4
    fdd8:	8ca30000 	lw	v1,0(a1)
    fddc:	304400ff 	andi	a0,v0,0xff
    fde0:	0089102a 	slt	v0,a0,t1
    fde4:	ace30000 	sw	v1,0(a3)
    fde8:	24a50004 	addiu	a1,a1,4
    fdec:	1440fff9 	bnez	v0,0xfdd4
    fdf0:	24e70004 	addiu	a3,a3,4
    fdf4:	11400009 	beqz	t2,0xfe1c
    fdf8:	00002021 	move	a0,zero
    fdfc:	24820001 	addiu	v0,a0,1
    fe00:	90a30000 	lbu	v1,0(a1)
    fe04:	304400ff 	andi	a0,v0,0xff
    fe08:	008a102b 	sltu	v0,a0,t2
    fe0c:	a0e30000 	sb	v1,0(a3)
    fe10:	24a50001 	addiu	a1,a1,1
    fe14:	1440fff9 	bnez	v0,0xfdfc
    fe18:	24e70001 	addiu	a3,a3,1
    fe1c:	30c20003 	andi	v0,a2,0x3
    fe20:	14400004 	bnez	v0,0xfe34
    fe24:	8f850044 	lw	a1,68(gp)
    fe28:	31020003 	andi	v0,t0,0x3
    fe2c:	1040000d 	beqz	v0,0xfe64
    fe30:	00000000 	nop
    fe34:	10a00009 	beqz	a1,0xfe5c
    fe38:	00002021 	move	a0,zero
    fe3c:	24820001 	addiu	v0,a0,1
    fe40:	90c30000 	lbu	v1,0(a2)
    fe44:	304400ff 	andi	a0,v0,0xff
    fe48:	0085102b 	sltu	v0,a0,a1
    fe4c:	a0e30000 	sb	v1,0(a3)
    fe50:	24c60001 	addiu	a2,a2,1
    fe54:	1440fff9 	bnez	v0,0xfe3c
    fe58:	24e70001 	addiu	a3,a3,1
    fe5c:	03e00008 	jr	ra
    fe60:	00000000 	nop
    fe64:	1100fffd 	beqz	t0,0xfe5c
    fe68:	00002021 	move	a0,zero
    fe6c:	24820004 	addiu	v0,a0,4
    fe70:	8cc30000 	lw	v1,0(a2)
    fe74:	304400ff 	andi	a0,v0,0xff
    fe78:	0088102b 	sltu	v0,a0,t0
    fe7c:	ace30000 	sw	v1,0(a3)
    fe80:	24c60004 	addiu	a2,a2,4
    fe84:	1440fff9 	bnez	v0,0xfe6c
    fe88:	24e70004 	addiu	a3,a3,4
    fe8c:	03e00008 	jr	ra
    fe90:	00000000 	nop
    fe94:	8f830044 	lw	v1,68(gp)
    fe98:	93820030 	lbu	v0,48(gp)
    fe9c:	30c600ff 	andi	a2,a2,0xff
    fea0:	30a500ff 	andi	a1,a1,0xff
    fea4:	00431023 	subu	v0,v0,v1
    fea8:	304300ff 	andi	v1,v0,0xff
    feac:	8f820028 	lw	v0,40(gp)
    feb0:	00803821 	move	a3,a0
    feb4:	00431021 	addu	v0,v0,v1
    feb8:	14c00002 	bnez	a2,0xfec4
    febc:	24480088 	addiu	t0,v0,136
    fec0:	00833821 	addu	a3,a0,v1
    fec4:	30e20003 	andi	v0,a3,0x3
    fec8:	14400005 	bnez	v0,0xfee0
    fecc:	30a20003 	andi	v0,a1,0x3
    fed0:	14400003 	bnez	v0,0xfee0
    fed4:	30620003 	andi	v0,v1,0x3
    fed8:	1040000d 	beqz	v0,0xff10
    fedc:	00000000 	nop
    fee0:	10a00009 	beqz	a1,0xff08
    fee4:	00002021 	move	a0,zero
    fee8:	24820001 	addiu	v0,a0,1
    feec:	90e30000 	lbu	v1,0(a3)
    fef0:	304400ff 	andi	a0,v0,0xff
    fef4:	0085102b 	sltu	v0,a0,a1
    fef8:	a1030000 	sb	v1,0(t0)
    fefc:	24e70001 	addiu	a3,a3,1
    ff00:	1440fff9 	bnez	v0,0xfee8
    ff04:	25080001 	addiu	t0,t0,1
    ff08:	03e00008 	jr	ra
    ff0c:	00000000 	nop
    ff10:	10a0fffd 	beqz	a1,0xff08
    ff14:	00002021 	move	a0,zero
    ff18:	24820004 	addiu	v0,a0,4
    ff1c:	8ce30000 	lw	v1,0(a3)
    ff20:	304400ff 	andi	a0,v0,0xff
    ff24:	0085102b 	sltu	v0,a0,a1
    ff28:	ad030000 	sw	v1,0(t0)
    ff2c:	24e70004 	addiu	a3,a3,4
    ff30:	1440fff9 	bnez	v0,0xff18
    ff34:	25080004 	addiu	t0,t0,4
    ff38:	03e00008 	jr	ra
    ff3c:	00000000 	nop
    ff40:	27bdfff8 	addiu	sp,sp,-8
    ff44:	2402ffff 	li	v0,-1
    ff48:	afa20000 	sw	v0,0(sp)
    ff4c:	00803821 	move	a3,a0
    ff50:	2405002f 	li	a1,47
    ff54:	3c090800 	lui	t1,0x800
    ff58:	252975f4 	addiu	t1,t1,30196
    ff5c:	240800ff 	li	t0,255
    ff60:	2406ffff 	li	a2,-1
    ff64:	90e20000 	lbu	v0,0(a3)
    ff68:	24a3ffff 	addiu	v1,a1,-1
    ff6c:	00062202 	srl	a0,a2,0x8
    ff70:	00c21026 	xor	v0,a2,v0
    ff74:	304200ff 	andi	v0,v0,0xff
    ff78:	00021080 	sll	v0,v0,0x2
    ff7c:	00491021 	addu	v0,v0,t1
    ff80:	8c420000 	lw	v0,0(v0)
    ff84:	306500ff 	andi	a1,v1,0xff
    ff88:	24e70001 	addiu	a3,a3,1
    ff8c:	14a8fff5 	bne	a1,t0,0xff64
    ff90:	00823026 	xor	a2,a0,v0
    ff94:	00061027 	nor	v0,zero,a2
    ff98:	afa20004 	sw	v0,4(sp)
    ff9c:	afa20000 	sw	v0,0(sp)
    ffa0:	00002821 	move	a1,zero
    ffa4:	27a60004 	addiu	a2,sp,4
    ffa8:	00c51023 	subu	v0,a2,a1
    ffac:	90440003 	lbu	a0,3(v0)
    ffb0:	24a20001 	addiu	v0,a1,1
    ffb4:	00bd1821 	addu	v1,a1,sp
    ffb8:	304500ff 	andi	a1,v0,0xff
    ffbc:	2ca20004 	sltiu	v0,a1,4
    ffc0:	1440fff9 	bnez	v0,0xffa8
    ffc4:	a0640000 	sb	a0,0(v1)
    ffc8:	8fa20000 	lw	v0,0(sp)
    ffcc:	03e00008 	jr	ra
    ffd0:	27bd0008 	addiu	sp,sp,8
    ffd4:	00804821 	move	t1,a0
    ffd8:	30aaffff 	andi	t2,a1,0xffff
    ffdc:	30c600ff 	andi	a2,a2,0xff
    ffe0:	30e7ffff 	andi	a3,a3,0xffff
    ffe4:	27480180 	addiu	t0,k0,384
    ffe8:	8f4201b8 	lw	v0,440(k0)
    ffec:	0440fffe 	bltz	v0,0xffe8
    fff0:	8f820050 	lw	v0,80(gp)
    fff4:	ad020000 	sw	v0,0(t0)
    fff8:	8f420124 	lw	v0,292(k0)
    fffc:	ad020004 	sw	v0,4(t0)
   10000:	8d220020 	lw	v0,32(t1)
   10004:	a5070008 	sh	a3,8(t0)
   10008:	a102000a 	sb	v0,10(t0)
   1000c:	24020016 	li	v0,22
   10010:	a102000b 	sb	v0,11(t0)
   10014:	93430120 	lbu	v1,288(k0)
   10018:	8d220008 	lw	v0,8(t1)
   1001c:	8d240004 	lw	a0,4(t1)
   10020:	306300ff 	andi	v1,v1,0xff
   10024:	00431021 	addu	v0,v0,v1
   10028:	97830042 	lhu	v1,66(gp)
   1002c:	00441021 	addu	v0,v0,a0
   10030:	8d250024 	lw	a1,36(t1)
   10034:	00431023 	subu	v0,v0,v1
   10038:	3c030800 	lui	v1,0x800
   1003c:	8c6331a0 	lw	v1,12704(v1)
   10040:	8f840028 	lw	a0,40(gp)
   10044:	a502000c 	sh	v0,12(t0)
   10048:	246300e8 	addiu	v1,v1,232
   1004c:	2402ffff 	li	v0,-1
   10050:	a50a000e 	sh	t2,14(t0)
   10054:	a5030010 	sh	v1,16(t0)
   10058:	a5060012 	sh	a2,18(t0)
   1005c:	ad050018 	sw	a1,24(t0)
   10060:	ad020024 	sw	v0,36(t0)
   10064:	94820114 	lhu	v0,276(a0)
   10068:	2403fff7 	li	v1,-9
   1006c:	3042ffff 	andi	v0,v0,0xffff
   10070:	ad020028 	sw	v0,40(t0)
   10074:	8c820118 	lw	v0,280(a0)
   10078:	ad02002c 	sw	v0,44(t0)
   1007c:	3c021000 	lui	v0,0x1000
   10080:	ad000030 	sw	zero,48(t0)
   10084:	af4201b8 	sw	v0,440(k0)
   10088:	8d220020 	lw	v0,32(t1)
   1008c:	00431024 	and	v0,v0,v1
   10090:	03e00008 	jr	ra
   10094:	ad220020 	sw	v0,32(t1)
   10098:	8f820028 	lw	v0,40(gp)
   1009c:	30e7ffff 	andi	a3,a3,0xffff
   100a0:	00804821 	move	t1,a0
   100a4:	904200d3 	lbu	v0,211(v0)
   100a8:	30a5ffff 	andi	a1,a1,0xffff
   100ac:	30c600ff 	andi	a2,a2,0xff
   100b0:	00021100 	sll	v0,v0,0x4
   100b4:	30420f00 	andi	v0,v0,0xf00
   100b8:	00e23825 	or	a3,a3,v0
   100bc:	27480180 	addiu	t0,k0,384
   100c0:	8f4201b8 	lw	v0,440(k0)
   100c4:	0440fffe 	bltz	v0,0x100c0
   100c8:	8f820050 	lw	v0,80(gp)
   100cc:	ad020000 	sw	v0,0(t0)
   100d0:	8f420124 	lw	v0,292(k0)
   100d4:	ad020004 	sw	v0,4(t0)
   100d8:	8d220020 	lw	v0,32(t1)
   100dc:	a5070008 	sh	a3,8(t0)
   100e0:	a102000a 	sb	v0,10(t0)
   100e4:	24020017 	li	v0,23
   100e8:	a102000b 	sb	v0,11(t0)
   100ec:	93430120 	lbu	v1,288(k0)
   100f0:	8d220008 	lw	v0,8(t1)
   100f4:	8d240004 	lw	a0,4(t1)
   100f8:	306300ff 	andi	v1,v1,0xff
   100fc:	00431021 	addu	v0,v0,v1
   10100:	97830042 	lhu	v1,66(gp)
   10104:	00441021 	addu	v0,v0,a0
   10108:	8f840028 	lw	a0,40(gp)
   1010c:	00431023 	subu	v0,v0,v1
   10110:	3c030800 	lui	v1,0x800
   10114:	8c6331a0 	lw	v1,12704(v1)
   10118:	a502000c 	sh	v0,12(t0)
   1011c:	a505000e 	sh	a1,14(t0)
   10120:	246300e8 	addiu	v1,v1,232
   10124:	a5030010 	sh	v1,16(t0)
   10128:	a5060012 	sh	a2,18(t0)
   1012c:	ad000014 	sw	zero,20(t0)
   10130:	8d220024 	lw	v0,36(t1)
   10134:	ad020018 	sw	v0,24(t0)
   10138:	8c82005c 	lw	v0,92(a0)
   1013c:	ad02001c 	sw	v0,28(t0)
   10140:	8c820058 	lw	v0,88(a0)
   10144:	ad020020 	sw	v0,32(t0)
   10148:	2402ffff 	li	v0,-1
   1014c:	ad020024 	sw	v0,36(t0)
   10150:	948200e6 	lhu	v0,230(a0)
   10154:	3042ffff 	andi	v0,v0,0xffff
   10158:	ad020028 	sw	v0,40(t0)
   1015c:	94820060 	lhu	v0,96(a0)
   10160:	948300be 	lhu	v1,190(a0)
   10164:	30427fff 	andi	v0,v0,0x7fff
   10168:	3063ffff 	andi	v1,v1,0xffff
   1016c:	00021200 	sll	v0,v0,0x8
   10170:	00431021 	addu	v0,v0,v1
   10174:	ad02002c 	sw	v0,44(t0)
   10178:	3c021000 	lui	v0,0x1000
   1017c:	ad000030 	sw	zero,48(t0)
   10180:	af4201b8 	sw	v0,440(k0)
   10184:	948200be 	lhu	v0,190(a0)
   10188:	2403fff7 	li	v1,-9
   1018c:	00a21021 	addu	v0,a1,v0
   10190:	a48200be 	sh	v0,190(a0)
   10194:	8d220020 	lw	v0,32(t1)
   10198:	00431024 	and	v0,v0,v1
   1019c:	03e00008 	jr	ra
   101a0:	ad220020 	sw	v0,32(t1)
   101a4:	27430180 	addiu	v1,k0,384
   101a8:	8f4201b8 	lw	v0,440(k0)
   101ac:	0440fffe 	bltz	v0,0x101a8
   101b0:	24020018 	li	v0,24
   101b4:	ac640000 	sw	a0,0(v1)
   101b8:	a062000b 	sb	v0,11(v1)
   101bc:	8f820028 	lw	v0,40(gp)
   101c0:	944200e6 	lhu	v0,230(v0)
   101c4:	a4620010 	sh	v0,16(v1)
   101c8:	3c021000 	lui	v0,0x1000
   101cc:	ac600030 	sw	zero,48(v1)
   101d0:	03e00008 	jr	ra
   101d4:	af4201b8 	sw	v0,440(k0)
   101d8:	27430180 	addiu	v1,k0,384
   101dc:	8f4201b8 	lw	v0,440(k0)
   101e0:	0440fffe 	bltz	v0,0x101dc
   101e4:	8f82002c 	lw	v0,44(gp)
   101e8:	9442001c 	lhu	v0,28(v0)
   101ec:	3042ffff 	andi	v0,v0,0xffff
   101f0:	000211c0 	sll	v0,v0,0x7
   101f4:	ac620000 	sw	v0,0(v1)
   101f8:	24020019 	li	v0,25
   101fc:	a062000b 	sb	v0,11(v1)
   10200:	3c021000 	lui	v0,0x1000
   10204:	ac600030 	sw	zero,48(v1)
   10208:	03e00008 	jr	ra
   1020c:	af4201b8 	sw	v0,440(k0)
   10210:	8f870034 	lw	a3,52(gp)
   10214:	30c300ff 	andi	v1,a2,0xff
   10218:	8f4201b8 	lw	v0,440(k0)
   1021c:	0440fffe 	bltz	v0,0x10218
   10220:	8f820050 	lw	v0,80(gp)
   10224:	34636000 	ori	v1,v1,0x6000
   10228:	aca20000 	sw	v0,0(a1)
   1022c:	9382004c 	lbu	v0,76(gp)
   10230:	a0a20005 	sb	v0,5(a1)
   10234:	8ce20010 	lw	v0,16(a3)
   10238:	a4a20006 	sh	v0,6(a1)
   1023c:	a4a30008 	sh	v1,8(a1)
   10240:	8c820020 	lw	v0,32(a0)
   10244:	2403fff7 	li	v1,-9
   10248:	a0a2000a 	sb	v0,10(a1)
   1024c:	24020002 	li	v0,2
   10250:	a0a2000b 	sb	v0,11(a1)
   10254:	8ce20000 	lw	v0,0(a3)
   10258:	aca20010 	sw	v0,16(a1)
   1025c:	8ce20004 	lw	v0,4(a3)
   10260:	aca20014 	sw	v0,20(a1)
   10264:	8ce2001c 	lw	v0,28(a3)
   10268:	aca20024 	sw	v0,36(a1)
   1026c:	8ce20020 	lw	v0,32(a3)
   10270:	aca20028 	sw	v0,40(a1)
   10274:	8ce2002c 	lw	v0,44(a3)
   10278:	aca2002c 	sw	v0,44(a1)
   1027c:	8c820024 	lw	v0,36(a0)
   10280:	aca20018 	sw	v0,24(a1)
   10284:	3c021000 	lui	v0,0x1000
   10288:	af4201b8 	sw	v0,440(k0)
   1028c:	8c820020 	lw	v0,32(a0)
   10290:	00431024 	and	v0,v0,v1
   10294:	03e00008 	jr	ra
   10298:	ac820020 	sw	v0,32(a0)
   1029c:	9382004c 	lbu	v0,76(gp)
   102a0:	24030001 	li	v1,1
   102a4:	27bdffe8 	addiu	sp,sp,-24
   102a8:	00433004 	sllv	a2,v1,v0
   102ac:	2c420020 	sltiu	v0,v0,32
   102b0:	afb00010 	sw	s0,16(sp)
   102b4:	afbf0014 	sw	ra,20(sp)
   102b8:	2410fffe 	li	s0,-2
   102bc:	10400005 	beqz	v0,0x102d4
   102c0:	27450180 	addiu	a1,k0,384
   102c4:	3c020800 	lui	v0,0x800
   102c8:	8c423190 	lw	v0,12688(v0)
   102cc:	0a0016a8 	j	0x8005aa0
   102d0:	00461024 	and	v0,v0,a2
   102d4:	3c020800 	lui	v0,0x800
   102d8:	8c423194 	lw	v0,12692(v0)
   102dc:	00461024 	and	v0,v0,a2
   102e0:	14400007 	bnez	v0,0x10300
   102e4:	24060084 	li	a2,132
   102e8:	8f830028 	lw	v1,40(gp)
   102ec:	2410ffff 	li	s0,-1
   102f0:	90620062 	lbu	v0,98(v1)
   102f4:	3042000f 	andi	v0,v0,0xf
   102f8:	34420040 	ori	v0,v0,0x40
   102fc:	a0620062 	sb	v0,98(v1)
   10300:	0e001674 	jal	0x80059d0
   10304:	00000000 	nop
   10308:	02001021 	move	v0,s0
   1030c:	8fbf0014 	lw	ra,20(sp)
   10310:	8fb00010 	lw	s0,16(sp)
   10314:	03e00008 	jr	ra
   10318:	27bd0018 	addiu	sp,sp,24
   1031c:	8f83002c 	lw	v1,44(gp)
   10320:	27bdffe0 	addiu	sp,sp,-32
   10324:	afb20018 	sw	s2,24(sp)
   10328:	afb10014 	sw	s1,20(sp)
   1032c:	afb00010 	sw	s0,16(sp)
   10330:	afbf001c 	sw	ra,28(sp)
   10334:	9062000d 	lbu	v0,13(v1)
   10338:	00a09021 	move	s2,a1
   1033c:	30d100ff 	andi	s1,a2,0xff
   10340:	3042007f 	andi	v0,v0,0x7f
   10344:	a062000d 	sb	v0,13(v1)
   10348:	8f850028 	lw	a1,40(gp)
   1034c:	8e430018 	lw	v1,24(s2)
   10350:	00808021 	move	s0,a0
   10354:	8ca2007c 	lw	v0,124(a1)
   10358:	14620005 	bne	v1,v0,0x10370
   1035c:	2402000e 	li	v0,14
   10360:	90a20063 	lbu	v0,99(a1)
   10364:	34420020 	ori	v0,v0,0x20
   10368:	0a0016d1 	j	0x8005b44
   1036c:	a0a20063 	sb	v0,99(a1)
   10370:	0e001697 	jal	0x8005a5c
   10374:	a382004c 	sb	v0,76(gp)
   10378:	2403ffff 	li	v1,-1
   1037c:	10430047 	beq	v0,v1,0x1049c
   10380:	2404ffff 	li	a0,-1
   10384:	52200045 	beqzl	s1,0x1049c
   10388:	00002021 	move	a0,zero
   1038c:	8e430000 	lw	v1,0(s2)
   10390:	3c020010 	lui	v0,0x10
   10394:	00621024 	and	v0,v1,v0
   10398:	50400004 	beqzl	v0,0x103ac
   1039c:	3c020008 	lui	v0,0x8
   103a0:	02002021 	move	a0,s0
   103a4:	0a0016e0 	j	0x8005b80
   103a8:	24020015 	li	v0,21
   103ac:	00621024 	and	v0,v1,v0
   103b0:	50400009 	beqzl	v0,0x103d8
   103b4:	8e450000 	lw	a1,0(s2)
   103b8:	02002021 	move	a0,s0
   103bc:	24020014 	li	v0,20
   103c0:	0e001697 	jal	0x8005a5c
   103c4:	a382004c 	sb	v0,76(gp)
   103c8:	2403ffff 	li	v1,-1
   103cc:	10430033 	beq	v0,v1,0x1049c
   103d0:	2404ffff 	li	a0,-1
   103d4:	8e450000 	lw	a1,0(s2)
   103d8:	3c020002 	lui	v0,0x2
   103dc:	00a21024 	and	v0,a1,v0
   103e0:	10400016 	beqz	v0,0x1043c
   103e4:	3c020004 	lui	v0,0x4
   103e8:	8f86002c 	lw	a2,44(gp)
   103ec:	8cc20014 	lw	v0,20(a2)
   103f0:	8cc30010 	lw	v1,16(a2)
   103f4:	8cc40014 	lw	a0,20(a2)
   103f8:	00431023 	subu	v0,v0,v1
   103fc:	0044102b 	sltu	v0,v0,a0
   10400:	50400005 	beqzl	v0,0x10418
   10404:	02002021 	move	a0,s0
   10408:	8e43002c 	lw	v1,44(s2)
   1040c:	8cc20010 	lw	v0,16(a2)
   10410:	10620003 	beq	v1,v0,0x10420
   10414:	02002021 	move	a0,s0
   10418:	0a001711 	j	0x8005c44
   1041c:	24020012 	li	v0,18
   10420:	3c020004 	lui	v0,0x4
   10424:	00a21024 	and	v0,a1,v0
   10428:	5040001c 	beqzl	v0,0x1049c
   1042c:	00002021 	move	a0,zero
   10430:	02002021 	move	a0,s0
   10434:	0a001711 	j	0x8005c44
   10438:	24020013 	li	v0,19
   1043c:	00a21024 	and	v0,a1,v0
   10440:	10400006 	beqz	v0,0x1045c
   10444:	8f83002c 	lw	v1,44(gp)
   10448:	8c620010 	lw	v0,16(v1)
   1044c:	50400013 	beqzl	v0,0x1049c
   10450:	00002021 	move	a0,zero
   10454:	0a00170b 	j	0x8005c2c
   10458:	02002021 	move	a0,s0
   1045c:	8c620010 	lw	v0,16(v1)
   10460:	50400004 	beqzl	v0,0x10474
   10464:	8e42002c 	lw	v0,44(s2)
   10468:	02002021 	move	a0,s0
   1046c:	0a001711 	j	0x8005c44
   10470:	24020011 	li	v0,17
   10474:	50400009 	beqzl	v0,0x1049c
   10478:	00002021 	move	a0,zero
   1047c:	02002021 	move	a0,s0
   10480:	24020017 	li	v0,23
   10484:	0e001697 	jal	0x8005a5c
   10488:	a382004c 	sb	v0,76(gp)
   1048c:	2403ffff 	li	v1,-1
   10490:	10430002 	beq	v0,v1,0x1049c
   10494:	2404ffff 	li	a0,-1
   10498:	00002021 	move	a0,zero
   1049c:	8fbf001c 	lw	ra,28(sp)
   104a0:	8fb20018 	lw	s2,24(sp)
   104a4:	8fb10014 	lw	s1,20(sp)
   104a8:	8fb00010 	lw	s0,16(sp)
   104ac:	00801021 	move	v0,a0
   104b0:	03e00008 	jr	ra
   104b4:	27bd0020 	addiu	sp,sp,32
   104b8:	93830030 	lbu	v1,48(gp)
   104bc:	27bdffe0 	addiu	sp,sp,-32
   104c0:	24020034 	li	v0,52
   104c4:	afb20018 	sw	s2,24(sp)
   104c8:	afb10014 	sw	s1,20(sp)
   104cc:	afbf001c 	sw	ra,28(sp)
   104d0:	afb00010 	sw	s0,16(sp)
   104d4:	00808821 	move	s1,a0
   104d8:	1462000c 	bne	v1,v0,0x1050c
   104dc:	00a09021 	move	s2,a1
   104e0:	8f840034 	lw	a0,52(gp)
   104e4:	0e0015c0 	jal	0x8005700
   104e8:	8c900030 	lw	s0,48(a0)
   104ec:	12020007 	beq	s0,v0,0x1050c
   104f0:	24020005 	li	v0,5
   104f4:	02202021 	move	a0,s1
   104f8:	0e001697 	jal	0x8005a5c
   104fc:	a382004c 	sb	v0,76(gp)
   10500:	2403ffff 	li	v1,-1
   10504:	10430060 	beq	v0,v1,0x10688
   10508:	2404ffff 	li	a0,-1
   1050c:	92420004 	lbu	v0,4(s2)
   10510:	10400009 	beqz	v0,0x10538
   10514:	8f820028 	lw	v0,40(gp)
   10518:	02202021 	move	a0,s1
   1051c:	2402000c 	li	v0,12
   10520:	0e001697 	jal	0x8005a5c
   10524:	a382004c 	sb	v0,76(gp)
   10528:	2403ffff 	li	v1,-1
   1052c:	10430056 	beq	v0,v1,0x10688
   10530:	2404ffff 	li	a0,-1
   10534:	8f820028 	lw	v0,40(gp)
   10538:	a3800024 	sb	zero,36(gp)
   1053c:	8e430004 	lw	v1,4(s2)
   10540:	8c440080 	lw	a0,128(v0)
   10544:	3c0200ff 	lui	v0,0xff
   10548:	3442ffff 	ori	v0,v0,0xffff
   1054c:	00621824 	and	v1,v1,v0
   10550:	0083202b 	sltu	a0,a0,v1
   10554:	10800008 	beqz	a0,0x10578
   10558:	af83003c 	sw	v1,60(gp)
   1055c:	02202021 	move	a0,s1
   10560:	24020019 	li	v0,25
   10564:	0e001697 	jal	0x8005a5c
   10568:	a382004c 	sb	v0,76(gp)
   1056c:	2403ffff 	li	v1,-1
   10570:	10430045 	beq	v0,v1,0x10688
   10574:	2404ffff 	li	a0,-1
   10578:	97820042 	lhu	v0,66(gp)
   1057c:	8f870044 	lw	a3,68(gp)
   10580:	8f85003c 	lw	a1,60(gp)
   10584:	00472023 	subu	a0,v0,a3
   10588:	10a0003a 	beqz	a1,0x10674
   1058c:	a7840042 	sh	a0,66(gp)
   10590:	8f860028 	lw	a2,40(gp)
   10594:	30a20003 	andi	v0,a1,0x3
   10598:	00021023 	negu	v0,v0
   1059c:	90c300bc 	lbu	v1,188(a2)
   105a0:	30500003 	andi	s0,v0,0x3
   105a4:	00b02821 	addu	a1,a1,s0
   105a8:	00031882 	srl	v1,v1,0x2
   105ac:	30710001 	andi	s1,v1,0x1
   105b0:	00111080 	sll	v0,s1,0x2
   105b4:	00a22821 	addu	a1,a1,v0
   105b8:	3c030800 	lui	v1,0x800
   105bc:	8c6331a0 	lw	v1,12704(v1)
   105c0:	8f820050 	lw	v0,80(gp)
   105c4:	3084ffff 	andi	a0,a0,0xffff
   105c8:	0085202b 	sltu	a0,a0,a1
   105cc:	00431021 	addu	v0,v0,v1
   105d0:	10800010 	beqz	a0,0x10614
   105d4:	24420088 	addiu	v0,v0,136
   105d8:	8f840034 	lw	a0,52(gp)
   105dc:	1082000d 	beq	a0,v0,0x10614
   105e0:	3c033f01 	lui	v1,0x3f01
   105e4:	8e420000 	lw	v0,0(s2)
   105e8:	00431024 	and	v0,v0,v1
   105ec:	3c032500 	lui	v1,0x2500
   105f0:	14430006 	bne	v0,v1,0x1060c
   105f4:	30e500ff 	andi	a1,a3,0xff
   105f8:	8c820000 	lw	v0,0(a0)
   105fc:	acc20088 	sw	v0,136(a2)
   10600:	8c820010 	lw	v0,16(a0)
   10604:	0a001775 	j	0x8005dd4
   10608:	acc20098 	sw	v0,152(a2)
   1060c:	0e001595 	jal	0x8005654
   10610:	00003021 	move	a2,zero
   10614:	93820024 	lbu	v0,36(gp)
   10618:	8f850028 	lw	a1,40(gp)
   1061c:	8f830048 	lw	v1,72(gp)
   10620:	02023821 	addu	a3,s0,v0
   10624:	8f820044 	lw	v0,68(gp)
   10628:	a3870024 	sb	a3,36(gp)
   1062c:	94a400e4 	lhu	a0,228(a1)
   10630:	00621821 	addu	v1,v1,v0
   10634:	8f82003c 	lw	v0,60(gp)
   10638:	34841000 	ori	a0,a0,0x1000
   1063c:	af830048 	sw	v1,72(gp)
   10640:	00503021 	addu	a2,v0,s0
   10644:	a4a400e4 	sh	a0,228(a1)
   10648:	1220000e 	beqz	s1,0x10684
   1064c:	af860044 	sw	a2,68(gp)
   10650:	24e20004 	addiu	v0,a3,4
   10654:	a3820024 	sb	v0,36(gp)
   10658:	94a200e4 	lhu	v0,228(a1)
   1065c:	24c30004 	addiu	v1,a2,4
   10660:	af830044 	sw	v1,68(gp)
   10664:	34422000 	ori	v0,v0,0x2000
   10668:	a4a200e4 	sh	v0,228(a1)
   1066c:	0a001792 	j	0x8005e48
   10670:	00002021 	move	a0,zero
   10674:	8f820048 	lw	v0,72(gp)
   10678:	af800044 	sw	zero,68(gp)
   1067c:	00471021 	addu	v0,v0,a3
   10680:	af820048 	sw	v0,72(gp)
   10684:	00002021 	move	a0,zero
   10688:	8fbf001c 	lw	ra,28(sp)
   1068c:	8fb20018 	lw	s2,24(sp)
   10690:	8fb10014 	lw	s1,20(sp)
   10694:	8fb00010 	lw	s0,16(sp)
   10698:	00801021 	move	v0,a0
   1069c:	03e00008 	jr	ra
   106a0:	27bd0020 	addiu	sp,sp,32
   106a4:	8f860028 	lw	a2,40(gp)
   106a8:	27bdffe8 	addiu	sp,sp,-24
   106ac:	afbf0014 	sw	ra,20(sp)
   106b0:	afb00010 	sw	s0,16(sp)
   106b4:	90c20063 	lbu	v0,99(a2)
   106b8:	30420020 	andi	v0,v0,0x20
   106bc:	10400008 	beqz	v0,0x106e0
   106c0:	30a500ff 	andi	a1,a1,0xff
   106c4:	8cc2007c 	lw	v0,124(a2)
   106c8:	2403ffdf 	li	v1,-33
   106cc:	24420001 	addiu	v0,v0,1
   106d0:	acc2007c 	sw	v0,124(a2)
   106d4:	90c20063 	lbu	v0,99(a2)
   106d8:	00431024 	and	v0,v0,v1
   106dc:	a0c20063 	sb	v0,99(a2)
   106e0:	10a00023 	beqz	a1,0x10770
   106e4:	8f830028 	lw	v1,40(gp)
   106e8:	27500180 	addiu	s0,k0,384
   106ec:	02002821 	move	a1,s0
   106f0:	0e001674 	jal	0x80059d0
   106f4:	24060082 	li	a2,130
   106f8:	8f820028 	lw	v0,40(gp)
   106fc:	90420063 	lbu	v0,99(v0)
   10700:	30420040 	andi	v0,v0,0x40
   10704:	50400019 	beqzl	v0,0x1076c
   10708:	a380004c 	sb	zero,76(gp)
   1070c:	8f830034 	lw	v1,52(gp)
   10710:	8f4201b8 	lw	v0,440(k0)
   10714:	0440fffe 	bltz	v0,0x10710
   10718:	8f820050 	lw	v0,80(gp)
   1071c:	ae020000 	sw	v0,0(s0)
   10720:	24026082 	li	v0,24706
   10724:	a6020008 	sh	v0,8(s0)
   10728:	24020002 	li	v0,2
   1072c:	a202000b 	sb	v0,11(s0)
   10730:	8c620008 	lw	v0,8(v1)
   10734:	ae020010 	sw	v0,16(s0)
   10738:	8c62000c 	lw	v0,12(v1)
   1073c:	ae020014 	sw	v0,20(s0)
   10740:	8c620014 	lw	v0,20(v1)
   10744:	ae020018 	sw	v0,24(s0)
   10748:	8c620018 	lw	v0,24(v1)
   1074c:	ae020024 	sw	v0,36(s0)
   10750:	8c620024 	lw	v0,36(v1)
   10754:	ae020028 	sw	v0,40(s0)
   10758:	8c620028 	lw	v0,40(v1)
   1075c:	ae02002c 	sw	v0,44(s0)
   10760:	3c021000 	lui	v0,0x1000
   10764:	af4201b8 	sw	v0,440(k0)
   10768:	a380004c 	sb	zero,76(gp)
   1076c:	8f830028 	lw	v1,40(gp)
   10770:	8fbf0014 	lw	ra,20(sp)
   10774:	8fb00010 	lw	s0,16(sp)
   10778:	90620063 	lbu	v0,99(v1)
   1077c:	27bd0018 	addiu	sp,sp,24
   10780:	3042007f 	andi	v0,v0,0x7f
   10784:	a0620063 	sb	v0,99(v1)
   10788:	97820042 	lhu	v0,66(gp)
   1078c:	8f860044 	lw	a2,68(gp)
   10790:	8f850028 	lw	a1,40(gp)
   10794:	93830030 	lbu	v1,48(gp)
   10798:	00461023 	subu	v0,v0,a2
   1079c:	a7820042 	sh	v0,66(gp)
   107a0:	a4a000e4 	sh	zero,228(a1)
   107a4:	90a40063 	lbu	a0,99(a1)
   107a8:	8f820048 	lw	v0,72(gp)
   107ac:	af830044 	sw	v1,68(gp)
   107b0:	2403ffbf 	li	v1,-65
   107b4:	00461021 	addu	v0,v0,a2
   107b8:	00832024 	and	a0,a0,v1
   107bc:	af820048 	sw	v0,72(gp)
   107c0:	a0a40063 	sb	a0,99(a1)
   107c4:	8f820028 	lw	v0,40(gp)
   107c8:	a04000bd 	sb	zero,189(v0)
   107cc:	8f820028 	lw	v0,40(gp)
   107d0:	03e00008 	jr	ra
   107d4:	a44000be 	sh	zero,190(v0)
   107d8:	8f8a0028 	lw	t2,40(gp)
   107dc:	27bdffe0 	addiu	sp,sp,-32
   107e0:	afb10014 	sw	s1,20(sp)
   107e4:	afb00010 	sw	s0,16(sp)
   107e8:	8f880044 	lw	t0,68(gp)
   107ec:	afbf0018 	sw	ra,24(sp)
   107f0:	93890024 	lbu	t1,36(gp)
   107f4:	954200e4 	lhu	v0,228(t2)
   107f8:	30d100ff 	andi	s1,a2,0xff
   107fc:	0109182b 	sltu	v1,t0,t1
   10800:	00808021 	move	s0,a0
   10804:	30ac00ff 	andi	t4,a1,0xff
   10808:	3047ffff 	andi	a3,v0,0xffff
   1080c:	00005821 	move	t3,zero
   10810:	14600003 	bnez	v1,0x10820
   10814:	310600ff 	andi	a2,t0,0xff
   10818:	01203021 	move	a2,t1
   1081c:	01095823 	subu	t3,t0,t1
   10820:	97830042 	lhu	v1,66(gp)
   10824:	0068102b 	sltu	v0,v1,t0
   10828:	14400032 	bnez	v0,0x108f4
   1082c:	00000000 	nop
   10830:	14680007 	bne	v1,t0,0x10850
   10834:	24020001 	li	v0,1
   10838:	8e020020 	lw	v0,32(s0)
   1083c:	2403fffb 	li	v1,-5
   10840:	34e78000 	ori	a3,a3,0x8000
   10844:	00431024 	and	v0,v0,v1
   10848:	ae020020 	sw	v0,32(s0)
   1084c:	24020001 	li	v0,1
   10850:	34e70880 	ori	a3,a3,0x880
   10854:	15820005 	bne	t4,v0,0x1086c
   10858:	3165ffff 	andi	a1,t3,0xffff
   1085c:	0e0015e5 	jal	0x8005794
   10860:	02002021 	move	a0,s0
   10864:	0a001827 	j	0x800609c
   10868:	02002021 	move	a0,s0
   1086c:	0e001616 	jal	0x8005858
   10870:	02002021 	move	a0,s0
   10874:	0e001659 	jal	0x8005964
   10878:	8f840050 	lw	a0,80(gp)
   1087c:	8f840028 	lw	a0,40(gp)
   10880:	94820060 	lhu	v0,96(a0)
   10884:	24420001 	addiu	v0,v0,1
   10888:	a4820060 	sh	v0,96(a0)
   1088c:	94820060 	lhu	v0,96(a0)
   10890:	3c030800 	lui	v1,0x800
   10894:	8c633188 	lw	v1,12680(v1)
   10898:	30427fff 	andi	v0,v0,0x7fff
   1089c:	5443000f 	bnel	v0,v1,0x108dc
   108a0:	02002021 	move	a0,s0
   108a4:	94820060 	lhu	v0,96(a0)
   108a8:	24038000 	li	v1,-32768
   108ac:	00431024 	and	v0,v0,v1
   108b0:	a4820060 	sh	v0,96(a0)
   108b4:	90820060 	lbu	v0,96(a0)
   108b8:	90830060 	lbu	v1,96(a0)
   108bc:	304200ff 	andi	v0,v0,0xff
   108c0:	000211c2 	srl	v0,v0,0x7
   108c4:	00021027 	nor	v0,zero,v0
   108c8:	000211c0 	sll	v0,v0,0x7
   108cc:	3063007f 	andi	v1,v1,0x7f
   108d0:	00621825 	or	v1,v1,v0
   108d4:	a0830060 	sb	v1,96(a0)
   108d8:	02002021 	move	a0,s0
   108dc:	02202821 	move	a1,s1
   108e0:	8fbf0018 	lw	ra,24(sp)
   108e4:	8fb10014 	lw	s1,20(sp)
   108e8:	8fb00010 	lw	s0,16(sp)
   108ec:	0a001799 	j	0x8005e64
   108f0:	27bd0020 	addiu	sp,sp,32
   108f4:	91420063 	lbu	v0,99(t2)
   108f8:	2403ff80 	li	v1,-128
   108fc:	00431025 	or	v0,v0,v1
   10900:	a1420063 	sb	v0,99(t2)
   10904:	97820042 	lhu	v0,66(gp)
   10908:	3048ffff 	andi	t0,v0,0xffff
   1090c:	11000020 	beqz	t0,0x10990
   10910:	93830024 	lbu	v1,36(gp)
   10914:	8f840028 	lw	a0,40(gp)
   10918:	004b1023 	subu	v0,v0,t3
   1091c:	304600ff 	andi	a2,v0,0xff
   10920:	948300e4 	lhu	v1,228(a0)
   10924:	2402efff 	li	v0,-4097
   10928:	0168282b 	sltu	a1,t3,t0
   1092c:	00621824 	and	v1,v1,v0
   10930:	a48300e4 	sh	v1,228(a0)
   10934:	14a00003 	bnez	a1,0x10944
   10938:	8e020020 	lw	v0,32(s0)
   1093c:	01005821 	move	t3,t0
   10940:	00003021 	move	a2,zero
   10944:	2403fffb 	li	v1,-5
   10948:	34e78000 	ori	a3,a3,0x8000
   1094c:	00431024 	and	v0,v0,v1
   10950:	ae020020 	sw	v0,32(s0)
   10954:	24020001 	li	v0,1
   10958:	15820005 	bne	t4,v0,0x10970
   1095c:	3165ffff 	andi	a1,t3,0xffff
   10960:	0e0015e5 	jal	0x8005794
   10964:	02002021 	move	a0,s0
   10968:	0a00184f 	j	0x800613c
   1096c:	97830042 	lhu	v1,66(gp)
   10970:	0e001616 	jal	0x8005858
   10974:	02002021 	move	a0,s0
   10978:	97830042 	lhu	v1,66(gp)
   1097c:	8f820044 	lw	v0,68(gp)
   10980:	a7800042 	sh	zero,66(gp)
   10984:	00431023 	subu	v0,v0,v1
   10988:	af820044 	sw	v0,68(gp)
   1098c:	93830024 	lbu	v1,36(gp)
   10990:	8f820028 	lw	v0,40(gp)
   10994:	8fbf0018 	lw	ra,24(sp)
   10998:	8fb10014 	lw	s1,20(sp)
   1099c:	8fb00010 	lw	s0,16(sp)
   109a0:	27bd0020 	addiu	sp,sp,32
   109a4:	03e00008 	jr	ra
   109a8:	a04300bd 	sb	v1,189(v0)
   109ac:	8f820028 	lw	v0,40(gp)
   109b0:	90430088 	lbu	v1,136(v0)
   109b4:	904500bd 	lbu	a1,189(v0)
   109b8:	24490088 	addiu	t1,v0,136
   109bc:	3063003f 	andi	v1,v1,0x3f
   109c0:	2463ffe0 	addiu	v1,v1,-32
   109c4:	24020001 	li	v0,1
   109c8:	00623804 	sllv	a3,v0,v1
   109cc:	2c630020 	sltiu	v1,v1,32
   109d0:	30e80019 	andi	t0,a3,0x19
   109d4:	a3850024 	sb	a1,36(gp)
   109d8:	10600010 	beqz	v1,0x10a1c
   109dc:	af890034 	sw	t1,52(gp)
   109e0:	3c028000 	lui	v0,0x8000
   109e4:	34420002 	ori	v0,v0,0x2
   109e8:	24050001 	li	a1,1
   109ec:	24060001 	li	a2,1
   109f0:	15000008 	bnez	t0,0x10a14
   109f4:	00e21824 	and	v1,a3,v0
   109f8:	00002821 	move	a1,zero
   109fc:	14600005 	bnez	v1,0x10a14
   10a00:	30e20020 	andi	v0,a3,0x20
   10a04:	10400005 	beqz	v0,0x10a1c
   10a08:	24050001 	li	a1,1
   10a0c:	91260001 	lbu	a2,1(t1)
   10a10:	30c60001 	andi	a2,a2,0x1
   10a14:	0a0017e6 	j	0x8005f98
   10a18:	00000000 	nop
   10a1c:	03e00008 	jr	ra
   10a20:	00000000 	nop
   10a24:	27bdffd8 	addiu	sp,sp,-40
   10a28:	afb00010 	sw	s0,16(sp)
   10a2c:	8f900034 	lw	s0,52(gp)
   10a30:	afb40020 	sw	s4,32(sp)
   10a34:	afb10014 	sw	s1,20(sp)
   10a38:	afbf0024 	sw	ra,36(sp)
   10a3c:	afb3001c 	sw	s3,28(sp)
   10a40:	afb20018 	sw	s2,24(sp)
   10a44:	8e050010 	lw	a1,16(s0)
   10a48:	3c020800 	lui	v0,0x800
   10a4c:	8c4231b0 	lw	v0,12720(v0)
   10a50:	8f860038 	lw	a2,56(gp)
   10a54:	30a33fff 	andi	v1,a1,0x3fff
   10a58:	0062182b 	sltu	v1,v1,v0
   10a5c:	8cd30014 	lw	s3,20(a2)
   10a60:	00808821 	move	s1,a0
   10a64:	8cd20020 	lw	s2,32(a2)
   10a68:	10600078 	beqz	v1,0x10c4c
   10a6c:	0000a021 	move	s4,zero
   10a70:	90c3000d 	lbu	v1,13(a2)
   10a74:	2402ff80 	li	v0,-128
   10a78:	00431024 	and	v0,v0,v1
   10a7c:	304200ff 	andi	v0,v0,0xff
   10a80:	50400073 	beqzl	v0,0x10c50
   10a84:	02202021 	move	a0,s1
   10a88:	00051382 	srl	v0,a1,0xe
   10a8c:	30420003 	andi	v0,v0,0x3
   10a90:	5440006f 	bnezl	v0,0x10c50
   10a94:	02202021 	move	a0,s1
   10a98:	94c3001c 	lhu	v1,28(a2)
   10a9c:	8f820028 	lw	v0,40(gp)
   10aa0:	8e050028 	lw	a1,40(s0)
   10aa4:	a4430114 	sh	v1,276(v0)
   10aa8:	8cc20010 	lw	v0,16(a2)
   10aac:	02621823 	subu	v1,s3,v0
   10ab0:	14650007 	bne	v1,a1,0x10ad0
   10ab4:	2402001f 	li	v0,31
   10ab8:	8f82003c 	lw	v0,60(gp)
   10abc:	00621021 	addu	v0,v1,v0
   10ac0:	0262102b 	sltu	v0,s3,v0
   10ac4:	10400008 	beqz	v0,0x10ae8
   10ac8:	8f83002c 	lw	v1,44(gp)
   10acc:	24020018 	li	v0,24
   10ad0:	0e001697 	jal	0x8005a5c
   10ad4:	a382004c 	sb	v0,76(gp)
   10ad8:	2403ffff 	li	v1,-1
   10adc:	1043006f 	beq	v0,v1,0x10c9c
   10ae0:	2404ffff 	li	a0,-1
   10ae4:	8f83002c 	lw	v1,44(gp)
   10ae8:	8f84003c 	lw	a0,60(gp)
   10aec:	8c620010 	lw	v0,16(v1)
   10af0:	02449021 	addu	s2,s2,a0
   10af4:	00441023 	subu	v0,v0,a0
   10af8:	ac620010 	sw	v0,16(v1)
   10afc:	8f820028 	lw	v0,40(gp)
   10b00:	ac720020 	sw	s2,32(v1)
   10b04:	8c420068 	lw	v0,104(v0)
   10b08:	0052102b 	sltu	v0,v0,s2
   10b0c:	10400009 	beqz	v0,0x10b34
   10b10:	8f830038 	lw	v1,56(gp)
   10b14:	02202021 	move	a0,s1
   10b18:	2402001d 	li	v0,29
   10b1c:	0e001697 	jal	0x8005a5c
   10b20:	a382004c 	sb	v0,76(gp)
   10b24:	2403ffff 	li	v1,-1
   10b28:	1043005c 	beq	v0,v1,0x10c9c
   10b2c:	2404ffff 	li	a0,-1
   10b30:	8f830038 	lw	v1,56(gp)
   10b34:	8e020024 	lw	v0,36(s0)
   10b38:	8c630024 	lw	v1,36(v1)
   10b3c:	10430007 	beq	v0,v1,0x10b5c
   10b40:	02202021 	move	a0,s1
   10b44:	2402001c 	li	v0,28
   10b48:	0e001697 	jal	0x8005a5c
   10b4c:	a382004c 	sb	v0,76(gp)
   10b50:	2403ffff 	li	v1,-1
   10b54:	10430051 	beq	v0,v1,0x10c9c
   10b58:	2404ffff 	li	a0,-1
   10b5c:	8f84002c 	lw	a0,44(gp)
   10b60:	8c820024 	lw	v0,36(a0)
   10b64:	24420001 	addiu	v0,v0,1
   10b68:	ac820024 	sw	v0,36(a0)
   10b6c:	12530004 	beq	s2,s3,0x10b80
   10b70:	8f820028 	lw	v0,40(gp)
   10b74:	8c420068 	lw	v0,104(v0)
   10b78:	5642000e 	bnel	s2,v0,0x10bb4
   10b7c:	8e020000 	lw	v0,0(s0)
   10b80:	8e020000 	lw	v0,0(s0)
   10b84:	3c030080 	lui	v1,0x80
   10b88:	00431024 	and	v0,v0,v1
   10b8c:	1440000d 	bnez	v0,0x10bc4
   10b90:	2402001a 	li	v0,26
   10b94:	02202021 	move	a0,s1
   10b98:	0e001697 	jal	0x8005a5c
   10b9c:	a382004c 	sb	v0,76(gp)
   10ba0:	2403ffff 	li	v1,-1
   10ba4:	1043003d 	beq	v0,v1,0x10c9c
   10ba8:	2404ffff 	li	a0,-1
   10bac:	0a0018e3 	j	0x800638c
   10bb0:	8e020014 	lw	v0,20(s0)
   10bb4:	3c030080 	lui	v1,0x80
   10bb8:	00431024 	and	v0,v0,v1
   10bbc:	50400003 	beqzl	v0,0x10bcc
   10bc0:	8e020014 	lw	v0,20(s0)
   10bc4:	ac800020 	sw	zero,32(a0)
   10bc8:	8e020014 	lw	v0,20(s0)
   10bcc:	2412ffff 	li	s2,-1
   10bd0:	10520006 	beq	v0,s2,0x10bec
   10bd4:	2402001b 	li	v0,27
   10bd8:	02202021 	move	a0,s1
   10bdc:	0e001697 	jal	0x8005a5c
   10be0:	a382004c 	sb	v0,76(gp)
   10be4:	1052002d 	beq	v0,s2,0x10c9c
   10be8:	2404ffff 	li	a0,-1
   10bec:	8e030000 	lw	v1,0(s0)
   10bf0:	3c020001 	lui	v0,0x1
   10bf4:	00621024 	and	v0,v1,v0
   10bf8:	1040001f 	beqz	v0,0x10c78
   10bfc:	3c020080 	lui	v0,0x80
   10c00:	00621024 	and	v0,v1,v0
   10c04:	14400008 	bnez	v0,0x10c28
   10c08:	02202021 	move	a0,s1
   10c0c:	2402001a 	li	v0,26
   10c10:	0e001697 	jal	0x8005a5c
   10c14:	a382004c 	sb	v0,76(gp)
   10c18:	2403ffff 	li	v1,-1
   10c1c:	1043001f 	beq	v0,v1,0x10c9c
   10c20:	2404ffff 	li	a0,-1
   10c24:	02202021 	move	a0,s1
   10c28:	02002821 	move	a1,s0
   10c2c:	0e0016b7 	jal	0x8005adc
   10c30:	24060001 	li	a2,1
   10c34:	2403ffff 	li	v1,-1
   10c38:	2404ffff 	li	a0,-1
   10c3c:	1443000e 	bne	v0,v1,0x10c78
   10c40:	24140001 	li	s4,1
   10c44:	0a001918 	j	0x8006460
   10c48:	8fbf0024 	lw	ra,36(sp)
   10c4c:	02202021 	move	a0,s1
   10c50:	2402000d 	li	v0,13
   10c54:	8fbf0024 	lw	ra,36(sp)
   10c58:	8fb40020 	lw	s4,32(sp)
   10c5c:	8fb3001c 	lw	s3,28(sp)
   10c60:	8fb20018 	lw	s2,24(sp)
   10c64:	8fb10014 	lw	s1,20(sp)
   10c68:	8fb00010 	lw	s0,16(sp)
   10c6c:	27bd0028 	addiu	sp,sp,40
   10c70:	0a001697 	j	0x8005a5c
   10c74:	a382004c 	sb	v0,76(gp)
   10c78:	8f83002c 	lw	v1,44(gp)
   10c7c:	02202021 	move	a0,s1
   10c80:	02803021 	move	a2,s4
   10c84:	94620036 	lhu	v0,54(v1)
   10c88:	24050001 	li	a1,1
   10c8c:	24420001 	addiu	v0,v0,1
   10c90:	0e0017e6 	jal	0x8005f98
   10c94:	a4620036 	sh	v0,54(v1)
   10c98:	00002021 	move	a0,zero
   10c9c:	8fbf0024 	lw	ra,36(sp)
   10ca0:	8fb40020 	lw	s4,32(sp)
   10ca4:	8fb3001c 	lw	s3,28(sp)
   10ca8:	8fb20018 	lw	s2,24(sp)
   10cac:	8fb10014 	lw	s1,20(sp)
   10cb0:	8fb00010 	lw	s0,16(sp)
   10cb4:	00801021 	move	v0,a0
   10cb8:	03e00008 	jr	ra
   10cbc:	27bd0028 	addiu	sp,sp,40
   10cc0:	8f830028 	lw	v1,40(gp)
   10cc4:	27bdffd8 	addiu	sp,sp,-40
   10cc8:	afb40020 	sw	s4,32(sp)
   10ccc:	afb3001c 	sw	s3,28(sp)
   10cd0:	afb20018 	sw	s2,24(sp)
   10cd4:	afb10014 	sw	s1,20(sp)
   10cd8:	afb00010 	sw	s0,16(sp)
   10cdc:	afbf0024 	sw	ra,36(sp)
   10ce0:	90620063 	lbu	v0,99(v1)
   10ce4:	8f910034 	lw	s1,52(gp)
   10ce8:	2412ffff 	li	s2,-1
   10cec:	34420040 	ori	v0,v0,0x40
   10cf0:	92250000 	lbu	a1,0(s1)
   10cf4:	a0620063 	sb	v0,99(v1)
   10cf8:	8e220010 	lw	v0,16(s1)
   10cfc:	00809821 	move	s3,a0
   10d00:	30b0003f 	andi	s0,a1,0x3f
   10d04:	10520006 	beq	v0,s2,0x10d20
   10d08:	0360a021 	move	s4,k1
   10d0c:	2402000d 	li	v0,13
   10d10:	0e001697 	jal	0x8005a5c
   10d14:	a382004c 	sb	v0,76(gp)
   10d18:	10520052 	beq	v0,s2,0x10e64
   10d1c:	2404ffff 	li	a0,-1
   10d20:	8f830028 	lw	v1,40(gp)
   10d24:	8e220018 	lw	v0,24(s1)
   10d28:	8c63007c 	lw	v1,124(v1)
   10d2c:	10430007 	beq	v0,v1,0x10d4c
   10d30:	02602021 	move	a0,s3
   10d34:	2402000e 	li	v0,14
   10d38:	0e001697 	jal	0x8005a5c
   10d3c:	a382004c 	sb	v0,76(gp)
   10d40:	2403ffff 	li	v1,-1
   10d44:	10430047 	beq	v0,v1,0x10e64
   10d48:	2404ffff 	li	a0,-1
   10d4c:	24040020 	li	a0,32
   10d50:	12040004 	beq	s0,a0,0x10d64
   10d54:	8f830028 	lw	v1,40(gp)
   10d58:	90620063 	lbu	v0,99(v1)
   10d5c:	34420020 	ori	v0,v0,0x20
   10d60:	a0620063 	sb	v0,99(v1)
   10d64:	8f85003c 	lw	a1,60(gp)
   10d68:	10a0001e 	beqz	a1,0x10de4
   10d6c:	00000000 	nop
   10d70:	56040004 	bnel	s0,a0,0x10d84
   10d74:	8f820028 	lw	v0,40(gp)
   10d78:	02602021 	move	a0,s3
   10d7c:	0a001962 	j	0x8006588
   10d80:	2402000a 	li	v0,10
   10d84:	9683000a 	lhu	v1,10(s4)
   10d88:	2404fffd 	li	a0,-3
   10d8c:	94420060 	lhu	v0,96(v0)
   10d90:	3042ffff 	andi	v0,v0,0xffff
   10d94:	10430034 	beq	v0,v1,0x10e68
   10d98:	8fbf0024 	lw	ra,36(sp)
   10d9c:	3c020800 	lui	v0,0x800
   10da0:	8c42318c 	lw	v0,12684(v0)
   10da4:	0045102b 	sltu	v0,v0,a1
   10da8:	14400006 	bnez	v0,0x10dc4
   10dac:	02602021 	move	a0,s3
   10db0:	00002821 	move	a1,zero
   10db4:	0e0017e6 	jal	0x8005f98
   10db8:	24060001 	li	a2,1
   10dbc:	0a001989 	j	0x8006624
   10dc0:	00002021 	move	a0,zero
   10dc4:	2402002d 	li	v0,45
   10dc8:	0e001697 	jal	0x8005a5c
   10dcc:	a382004c 	sb	v0,76(gp)
   10dd0:	2403ffff 	li	v1,-1
   10dd4:	10430023 	beq	v0,v1,0x10e64
   10dd8:	2404ffff 	li	a0,-1
   10ddc:	0a001989 	j	0x8006624
   10de0:	00002021 	move	a0,zero
   10de4:	16040005 	bne	s0,a0,0x10dfc
   10de8:	8f840028 	lw	a0,40(gp)
   10dec:	8e230014 	lw	v1,20(s1)
   10df0:	2402ffff 	li	v0,-1
   10df4:	50620018 	beql	v1,v0,0x10e58
   10df8:	02602021 	move	a0,s3
   10dfc:	94820060 	lhu	v0,96(a0)
   10e00:	24420001 	addiu	v0,v0,1
   10e04:	a4820060 	sh	v0,96(a0)
   10e08:	94820060 	lhu	v0,96(a0)
   10e0c:	3c030800 	lui	v1,0x800
   10e10:	8c633188 	lw	v1,12680(v1)
   10e14:	30427fff 	andi	v0,v0,0x7fff
   10e18:	5443000f 	bnel	v0,v1,0x10e58
   10e1c:	02602021 	move	a0,s3
   10e20:	94820060 	lhu	v0,96(a0)
   10e24:	24038000 	li	v1,-32768
   10e28:	00431024 	and	v0,v0,v1
   10e2c:	a4820060 	sh	v0,96(a0)
   10e30:	90820060 	lbu	v0,96(a0)
   10e34:	90830060 	lbu	v1,96(a0)
   10e38:	304200ff 	andi	v0,v0,0xff
   10e3c:	000211c2 	srl	v0,v0,0x7
   10e40:	00021027 	nor	v0,zero,v0
   10e44:	000211c0 	sll	v0,v0,0x7
   10e48:	3063007f 	andi	v1,v1,0x7f
   10e4c:	00621825 	or	v1,v1,v0
   10e50:	a0830060 	sb	v1,96(a0)
   10e54:	02602021 	move	a0,s3
   10e58:	0e001799 	jal	0x8005e64
   10e5c:	24050001 	li	a1,1
   10e60:	00002021 	move	a0,zero
   10e64:	8fbf0024 	lw	ra,36(sp)
   10e68:	8fb40020 	lw	s4,32(sp)
   10e6c:	8fb3001c 	lw	s3,28(sp)
   10e70:	8fb20018 	lw	s2,24(sp)
   10e74:	8fb10014 	lw	s1,20(sp)
   10e78:	8fb00010 	lw	s0,16(sp)
   10e7c:	00801021 	move	v0,a0
   10e80:	03e00008 	jr	ra
   10e84:	27bd0028 	addiu	sp,sp,40
   10e88:	8f830028 	lw	v1,40(gp)
   10e8c:	27bdffe8 	addiu	sp,sp,-24
   10e90:	afb00010 	sw	s0,16(sp)
   10e94:	afbf0014 	sw	ra,20(sp)
   10e98:	90620063 	lbu	v0,99(v1)
   10e9c:	8f870034 	lw	a3,52(gp)
   10ea0:	00808021 	move	s0,a0
   10ea4:	34420040 	ori	v0,v0,0x40
   10ea8:	8ce60010 	lw	a2,16(a3)
   10eac:	a0620063 	sb	v0,99(v1)
   10eb0:	3c030800 	lui	v1,0x800
   10eb4:	8c6331b0 	lw	v1,12720(v1)
   10eb8:	30c23fff 	andi	v0,a2,0x3fff
   10ebc:	0043102b 	sltu	v0,v0,v1
   10ec0:	1040004e 	beqz	v0,0x10ffc
   10ec4:	8f850038 	lw	a1,56(gp)
   10ec8:	2402ff80 	li	v0,-128
   10ecc:	90a3000d 	lbu	v1,13(a1)
   10ed0:	00431024 	and	v0,v0,v1
   10ed4:	304200ff 	andi	v0,v0,0xff
   10ed8:	50400049 	beqzl	v0,0x11000
   10edc:	02002021 	move	a0,s0
   10ee0:	00061382 	srl	v0,a2,0xe
   10ee4:	30480003 	andi	t0,v0,0x3
   10ee8:	24020002 	li	v0,2
   10eec:	55020044 	bnel	t0,v0,0x11000
   10ef0:	02002021 	move	a0,s0
   10ef4:	94a2001c 	lhu	v0,28(a1)
   10ef8:	8f850028 	lw	a1,40(gp)
   10efc:	24030023 	li	v1,35
   10f00:	a4a20114 	sh	v0,276(a1)
   10f04:	8ce60000 	lw	a2,0(a3)
   10f08:	00061602 	srl	v0,a2,0x18
   10f0c:	3042003f 	andi	v0,v0,0x3f
   10f10:	10430010 	beq	v0,v1,0x10f54
   10f14:	3c030083 	lui	v1,0x83
   10f18:	8ce30018 	lw	v1,24(a3)
   10f1c:	8ca2007c 	lw	v0,124(a1)
   10f20:	10620006 	beq	v1,v0,0x10f3c
   10f24:	2402000e 	li	v0,14
   10f28:	0e001697 	jal	0x8005a5c
   10f2c:	a382004c 	sb	v0,76(gp)
   10f30:	2403ffff 	li	v1,-1
   10f34:	10430038 	beq	v0,v1,0x11018
   10f38:	2404ffff 	li	a0,-1
   10f3c:	8f830028 	lw	v1,40(gp)
   10f40:	90620063 	lbu	v0,99(v1)
   10f44:	34420020 	ori	v0,v0,0x20
   10f48:	a0620063 	sb	v0,99(v1)
   10f4c:	0a0019ce 	j	0x8006738
   10f50:	8f83002c 	lw	v1,44(gp)
   10f54:	00c31024 	and	v0,a2,v1
   10f58:	14430007 	bne	v0,v1,0x10f78
   10f5c:	8f83002c 	lw	v1,44(gp)
   10f60:	90a20062 	lbu	v0,98(a1)
   10f64:	3042000f 	andi	v0,v0,0xf
   10f68:	34420020 	ori	v0,v0,0x20
   10f6c:	a0a20062 	sb	v0,98(a1)
   10f70:	a3880040 	sb	t0,64(gp)
   10f74:	8f83002c 	lw	v1,44(gp)
   10f78:	9062000d 	lbu	v0,13(v1)
   10f7c:	3042007f 	andi	v0,v0,0x7f
   10f80:	a062000d 	sb	v0,13(v1)
   10f84:	8f83003c 	lw	v1,60(gp)
   10f88:	10600018 	beqz	v1,0x10fec
   10f8c:	02002021 	move	a0,s0
   10f90:	8f840038 	lw	a0,56(gp)
   10f94:	8c820010 	lw	v0,16(a0)
   10f98:	0043102b 	sltu	v0,v0,v1
   10f9c:	10400009 	beqz	v0,0x10fc4
   10fa0:	24020018 	li	v0,24
   10fa4:	02002021 	move	a0,s0
   10fa8:	0e001697 	jal	0x8005a5c
   10fac:	a382004c 	sb	v0,76(gp)
   10fb0:	2403ffff 	li	v1,-1
   10fb4:	10430018 	beq	v0,v1,0x11018
   10fb8:	2404ffff 	li	a0,-1
   10fbc:	0a0019f6 	j	0x80067d8
   10fc0:	00002021 	move	a0,zero
   10fc4:	8c820010 	lw	v0,16(a0)
   10fc8:	24050001 	li	a1,1
   10fcc:	02002021 	move	a0,s0
   10fd0:	00431023 	subu	v0,v0,v1
   10fd4:	8f83002c 	lw	v1,44(gp)
   10fd8:	24060001 	li	a2,1
   10fdc:	0e0017e6 	jal	0x8005f98
   10fe0:	ac620010 	sw	v0,16(v1)
   10fe4:	0a0019f6 	j	0x80067d8
   10fe8:	00002021 	move	a0,zero
   10fec:	0e001799 	jal	0x8005e64
   10ff0:	24050001 	li	a1,1
   10ff4:	0a0019f6 	j	0x80067d8
   10ff8:	00002021 	move	a0,zero
   10ffc:	02002021 	move	a0,s0
   11000:	2402000d 	li	v0,13
   11004:	8fbf0014 	lw	ra,20(sp)
   11008:	8fb00010 	lw	s0,16(sp)
   1100c:	27bd0018 	addiu	sp,sp,24
   11010:	0a001697 	j	0x8005a5c
   11014:	a382004c 	sb	v0,76(gp)
   11018:	8fbf0014 	lw	ra,20(sp)
   1101c:	8fb00010 	lw	s0,16(sp)
   11020:	00801021 	move	v0,a0
   11024:	03e00008 	jr	ra
   11028:	27bd0018 	addiu	sp,sp,24
   1102c:	27bdffd8 	addiu	sp,sp,-40
   11030:	afb00010 	sw	s0,16(sp)
   11034:	8f900034 	lw	s0,52(gp)
   11038:	afb3001c 	sw	s3,28(sp)
   1103c:	afbf0020 	sw	ra,32(sp)
   11040:	afb20018 	sw	s2,24(sp)
   11044:	afb10014 	sw	s1,20(sp)
   11048:	8e120010 	lw	s2,16(s0)
   1104c:	3c030800 	lui	v1,0x800
   11050:	8c6331b0 	lw	v1,12720(v1)
   11054:	32423fff 	andi	v0,s2,0x3fff
   11058:	0043102b 	sltu	v0,v0,v1
   1105c:	1040007c 	beqz	v0,0x11250
   11060:	00809821 	move	s3,a0
   11064:	8f850038 	lw	a1,56(gp)
   11068:	2402ff80 	li	v0,-128
   1106c:	90a3000d 	lbu	v1,13(a1)
   11070:	00431024 	and	v0,v0,v1
   11074:	304200ff 	andi	v0,v0,0xff
   11078:	50400076 	beqzl	v0,0x11254
   1107c:	02602021 	move	a0,s3
   11080:	00121382 	srl	v0,s2,0xe
   11084:	30420003 	andi	v0,v0,0x3
   11088:	24030001 	li	v1,1
   1108c:	54430071 	bnel	v0,v1,0x11254
   11090:	02602021 	move	a0,s3
   11094:	90a2000d 	lbu	v0,13(a1)
   11098:	30420008 	andi	v0,v0,0x8
   1109c:	54400003 	bnezl	v0,0x110ac
   110a0:	8f82003c 	lw	v0,60(gp)
   110a4:	0a001a26 	j	0x8006898
   110a8:	24020024 	li	v0,36
   110ac:	50400003 	beqzl	v0,0x110bc
   110b0:	8e03000c 	lw	v1,12(s0)
   110b4:	0a001a26 	j	0x8006898
   110b8:	24020027 	li	v0,39
   110bc:	8ca20020 	lw	v0,32(a1)
   110c0:	14620005 	bne	v1,v0,0x110d8
   110c4:	24020020 	li	v0,32
   110c8:	8e030008 	lw	v1,8(s0)
   110cc:	8ca20024 	lw	v0,36(a1)
   110d0:	10620008 	beq	v1,v0,0x110f4
   110d4:	24020020 	li	v0,32
   110d8:	0e001697 	jal	0x8005a5c
   110dc:	a382004c 	sb	v0,76(gp)
   110e0:	2403ffff 	li	v1,-1
   110e4:	1043006a 	beq	v0,v1,0x11290
   110e8:	2404ffff 	li	a0,-1
   110ec:	0a001a51 	j	0x8006944
   110f0:	8f84002c 	lw	a0,44(gp)
   110f4:	8e020014 	lw	v0,20(s0)
   110f8:	2411ffff 	li	s1,-1
   110fc:	14510003 	bne	v0,s1,0x1110c
   11100:	8f870028 	lw	a3,40(gp)
   11104:	0a001a4c 	j	0x8006930
   11108:	24020025 	li	v0,37
   1110c:	8e030018 	lw	v1,24(s0)
   11110:	8ce2007c 	lw	v0,124(a3)
   11114:	14620016 	bne	v1,v0,0x11170
   11118:	2402000e 	li	v0,14
   1111c:	8e030024 	lw	v1,36(s0)
   11120:	8ca20028 	lw	v0,40(a1)
   11124:	14620012 	bne	v1,v0,0x11170
   11128:	24020021 	li	v0,33
   1112c:	8e060028 	lw	a2,40(s0)
   11130:	8ca2002c 	lw	v0,44(a1)
   11134:	14c2000e 	bne	a2,v0,0x11170
   11138:	2402001f 	li	v0,31
   1113c:	8e03002c 	lw	v1,44(s0)
   11140:	1060000b 	beqz	v1,0x11170
   11144:	24020023 	li	v0,35
   11148:	8ce20068 	lw	v0,104(a3)
   1114c:	0043102b 	sltu	v0,v0,v1
   11150:	14400007 	bnez	v0,0x11170
   11154:	24020026 	li	v0,38
   11158:	8ca20014 	lw	v0,20(a1)
   1115c:	00661821 	addu	v1,v1,a2
   11160:	0043102b 	sltu	v0,v0,v1
   11164:	50400007 	beqzl	v0,0x11184
   11168:	8f84002c 	lw	a0,44(gp)
   1116c:	24020022 	li	v0,34
   11170:	0e001697 	jal	0x8005a5c
   11174:	a382004c 	sb	v0,76(gp)
   11178:	10510045 	beq	v0,s1,0x11290
   1117c:	2404ffff 	li	a0,-1
   11180:	8f84002c 	lw	a0,44(gp)
   11184:	2403fff7 	li	v1,-9
   11188:	9082000d 	lbu	v0,13(a0)
   1118c:	00431024 	and	v0,v0,v1
   11190:	a082000d 	sb	v0,13(a0)
   11194:	8f860028 	lw	a2,40(gp)
   11198:	3c030800 	lui	v1,0x800
   1119c:	8c6331ac 	lw	v1,12716(v1)
   111a0:	8f820050 	lw	v0,80(gp)
   111a4:	94c400e0 	lhu	a0,224(a2)
   111a8:	8f85002c 	lw	a1,44(gp)
   111ac:	00431021 	addu	v0,v0,v1
   111b0:	30847fff 	andi	a0,a0,0x7fff
   111b4:	00042040 	sll	a0,a0,0x1
   111b8:	00441021 	addu	v0,v0,a0
   111bc:	3043007f 	andi	v1,v0,0x7f
   111c0:	03432021 	addu	a0,k0,v1
   111c4:	3c03000e 	lui	v1,0xe
   111c8:	00832021 	addu	a0,a0,v1
   111cc:	2403ff80 	li	v1,-128
   111d0:	00431024 	and	v0,v0,v1
   111d4:	af42002c 	sw	v0,44(k0)
   111d8:	a4920000 	sh	s2,0(a0)
   111dc:	8ca20028 	lw	v0,40(a1)
   111e0:	24420001 	addiu	v0,v0,1
   111e4:	aca20028 	sw	v0,40(a1)
   111e8:	8ca2002c 	lw	v0,44(a1)
   111ec:	8e03002c 	lw	v1,44(s0)
   111f0:	00431021 	addu	v0,v0,v1
   111f4:	aca2002c 	sw	v0,44(a1)
   111f8:	8e02002c 	lw	v0,44(s0)
   111fc:	aca20030 	sw	v0,48(a1)
   11200:	8e020014 	lw	v0,20(s0)
   11204:	aca20034 	sw	v0,52(a1)
   11208:	94a2003a 	lhu	v0,58(a1)
   1120c:	24420001 	addiu	v0,v0,1
   11210:	a4a2003a 	sh	v0,58(a1)
   11214:	94c600e0 	lhu	a2,224(a2)
   11218:	3c020800 	lui	v0,0x800
   1121c:	8c4231b0 	lw	v0,12720(v0)
   11220:	24c40001 	addiu	a0,a2,1
   11224:	30837fff 	andi	v1,a0,0x7fff
   11228:	14620013 	bne	v1,v0,0x11278
   1122c:	00803021 	move	a2,a0
   11230:	24028000 	li	v0,-32768
   11234:	00823024 	and	a2,a0,v0
   11238:	30c2ffff 	andi	v0,a2,0xffff
   1123c:	000213c2 	srl	v0,v0,0xf
   11240:	304200ff 	andi	v0,v0,0xff
   11244:	00021027 	nor	v0,zero,v0
   11248:	0a001a8e 	j	0x8006a38
   1124c:	000233c0 	sll	a2,v0,0xf
   11250:	02602021 	move	a0,s3
   11254:	2402000d 	li	v0,13
   11258:	8fbf0020 	lw	ra,32(sp)
   1125c:	8fb3001c 	lw	s3,28(sp)
   11260:	8fb20018 	lw	s2,24(sp)
   11264:	8fb10014 	lw	s1,20(sp)
   11268:	8fb00010 	lw	s0,16(sp)
   1126c:	27bd0028 	addiu	sp,sp,40
   11270:	0a001697 	j	0x8005a5c
   11274:	a382004c 	sb	v0,76(gp)
   11278:	8f820028 	lw	v0,40(gp)
   1127c:	02602021 	move	a0,s3
   11280:	24050001 	li	a1,1
   11284:	0e001799 	jal	0x8005e64
   11288:	a44600e0 	sh	a2,224(v0)
   1128c:	00002021 	move	a0,zero
   11290:	8fbf0020 	lw	ra,32(sp)
   11294:	8fb3001c 	lw	s3,28(sp)
   11298:	8fb20018 	lw	s2,24(sp)
   1129c:	8fb10014 	lw	s1,20(sp)
   112a0:	8fb00010 	lw	s0,16(sp)
   112a4:	00801021 	move	v0,a0
   112a8:	03e00008 	jr	ra
   112ac:	27bd0028 	addiu	sp,sp,40
   112b0:	27bdffe0 	addiu	sp,sp,-32
   112b4:	afb10014 	sw	s1,20(sp)
   112b8:	8f910034 	lw	s1,52(gp)
   112bc:	afb00010 	sw	s0,16(sp)
   112c0:	afbf0018 	sw	ra,24(sp)
   112c4:	8e260010 	lw	a2,16(s1)
   112c8:	3c030800 	lui	v1,0x800
   112cc:	8c6331b0 	lw	v1,12720(v1)
   112d0:	30c23fff 	andi	v0,a2,0x3fff
   112d4:	0043102b 	sltu	v0,v0,v1
   112d8:	1040005e 	beqz	v0,0x11454
   112dc:	00808021 	move	s0,a0
   112e0:	8f850038 	lw	a1,56(gp)
   112e4:	2402ff80 	li	v0,-128
   112e8:	90a3000d 	lbu	v1,13(a1)
   112ec:	00431024 	and	v0,v0,v1
   112f0:	304200ff 	andi	v0,v0,0xff
   112f4:	50400058 	beqzl	v0,0x11458
   112f8:	02002021 	move	a0,s0
   112fc:	8f82003c 	lw	v0,60(gp)
   11300:	10400008 	beqz	v0,0x11324
   11304:	00061382 	srl	v0,a2,0xe
   11308:	8f820028 	lw	v0,40(gp)
   1130c:	9763000a 	lhu	v1,10(k1)
   11310:	2404fffd 	li	a0,-3
   11314:	94420060 	lhu	v0,96(v0)
   11318:	3042ffff 	andi	v0,v0,0xffff
   1131c:	10430055 	beq	v0,v1,0x11474
   11320:	00061382 	srl	v0,a2,0xe
   11324:	30420003 	andi	v0,v0,0x3
   11328:	1440000e 	bnez	v0,0x11364
   1132c:	00000000 	nop
   11330:	92220002 	lbu	v0,2(s1)
   11334:	10400005 	beqz	v0,0x1134c
   11338:	8e230024 	lw	v1,36(s1)
   1133c:	50600015 	beqzl	v1,0x11394
   11340:	92230003 	lbu	v1,3(s1)
   11344:	0a001ac7 	j	0x8006b1c
   11348:	02002021 	move	a0,s0
   1134c:	8ca20024 	lw	v0,36(a1)
   11350:	50620010 	beql	v1,v0,0x11394
   11354:	92230003 	lbu	v1,3(s1)
   11358:	02002021 	move	a0,s0
   1135c:	0a001acf 	j	0x8006b3c
   11360:	2402000f 	li	v0,15
   11364:	90a2000d 	lbu	v0,13(a1)
   11368:	30420008 	andi	v0,v0,0x8
   1136c:	54400009 	bnezl	v0,0x11394
   11370:	92230003 	lbu	v1,3(s1)
   11374:	02002021 	move	a0,s0
   11378:	24020010 	li	v0,16
   1137c:	0e001697 	jal	0x8005a5c
   11380:	a382004c 	sb	v0,76(gp)
   11384:	2403ffff 	li	v1,-1
   11388:	1043003a 	beq	v0,v1,0x11474
   1138c:	2404ffff 	li	a0,-1
   11390:	92230003 	lbu	v1,3(s1)
   11394:	24020002 	li	v0,2
   11398:	5462000c 	bnel	v1,v0,0x113cc
   1139c:	92220003 	lbu	v0,3(s1)
   113a0:	8f82003c 	lw	v0,60(gp)
   113a4:	54400009 	bnezl	v0,0x113cc
   113a8:	92220003 	lbu	v0,3(s1)
   113ac:	02002021 	move	a0,s0
   113b0:	2402002c 	li	v0,44
   113b4:	0e001697 	jal	0x8005a5c
   113b8:	a382004c 	sb	v0,76(gp)
   113bc:	2403ffff 	li	v1,-1
   113c0:	1043002c 	beq	v0,v1,0x11474
   113c4:	2404ffff 	li	a0,-1
   113c8:	92220003 	lbu	v0,3(s1)
   113cc:	02202821 	move	a1,s1
   113d0:	02002021 	move	a0,s0
   113d4:	38460010 	xori	a2,v0,0x10
   113d8:	2cc60001 	sltiu	a2,a2,1
   113dc:	2c420001 	sltiu	v0,v0,1
   113e0:	0e0016b7 	jal	0x8005adc
   113e4:	00463025 	or	a2,v0,a2
   113e8:	2411ffff 	li	s1,-1
   113ec:	10510021 	beq	v0,s1,0x11474
   113f0:	2404ffff 	li	a0,-1
   113f4:	8f83003c 	lw	v1,60(gp)
   113f8:	10600012 	beqz	v1,0x11444
   113fc:	02002021 	move	a0,s0
   11400:	3c020800 	lui	v0,0x800
   11404:	8c42318c 	lw	v0,12684(v0)
   11408:	0043102b 	sltu	v0,v0,v1
   1140c:	14400006 	bnez	v0,0x11428
   11410:	00000000 	nop
   11414:	00002821 	move	a1,zero
   11418:	0e0017e6 	jal	0x8005f98
   1141c:	24060001 	li	a2,1
   11420:	0a001b0d 	j	0x8006c34
   11424:	00002021 	move	a0,zero
   11428:	2402002d 	li	v0,45
   1142c:	0e001697 	jal	0x8005a5c
   11430:	a382004c 	sb	v0,76(gp)
   11434:	1051000f 	beq	v0,s1,0x11474
   11438:	2404ffff 	li	a0,-1
   1143c:	0a001b0d 	j	0x8006c34
   11440:	00002021 	move	a0,zero
   11444:	0e001799 	jal	0x8005e64
   11448:	24050001 	li	a1,1
   1144c:	0a001b0d 	j	0x8006c34
   11450:	00002021 	move	a0,zero
   11454:	02002021 	move	a0,s0
   11458:	2402000d 	li	v0,13
   1145c:	8fbf0018 	lw	ra,24(sp)
   11460:	8fb10014 	lw	s1,20(sp)
   11464:	8fb00010 	lw	s0,16(sp)
   11468:	27bd0020 	addiu	sp,sp,32
   1146c:	0a001697 	j	0x8005a5c
   11470:	a382004c 	sb	v0,76(gp)
   11474:	8fbf0018 	lw	ra,24(sp)
   11478:	8fb10014 	lw	s1,20(sp)
   1147c:	8fb00010 	lw	s0,16(sp)
   11480:	00801021 	move	v0,a0
   11484:	03e00008 	jr	ra
   11488:	27bd0020 	addiu	sp,sp,32
   1148c:	93830040 	lbu	v1,64(gp)
   11490:	27bdffe0 	addiu	sp,sp,-32
   11494:	24020002 	li	v0,2
   11498:	afb10014 	sw	s1,20(sp)
   1149c:	afb00010 	sw	s0,16(sp)
   114a0:	00808821 	move	s1,a0
   114a4:	afbf0018 	sw	ra,24(sp)
   114a8:	00008021 	move	s0,zero
   114ac:	1062008c 	beq	v1,v0,0x116e0
   114b0:	2404fffd 	li	a0,-3
   114b4:	97850042 	lhu	a1,66(gp)
   114b8:	8f830044 	lw	v1,68(gp)
   114bc:	30a2ffff 	andi	v0,a1,0xffff
   114c0:	0043102b 	sltu	v0,v0,v1
   114c4:	5440007d 	bnezl	v0,0x116bc
   114c8:	8f840048 	lw	a0,72(gp)
   114cc:	0e001558 	jal	0x8005560
   114d0:	00000000 	nop
   114d4:	3c020800 	lui	v0,0x800
   114d8:	244279f4 	addiu	v0,v0,31220
   114dc:	02202021 	move	a0,s1
   114e0:	00402821 	move	a1,v0
   114e4:	0e00171e 	jal	0x8005c78
   114e8:	af820034 	sw	v0,52(gp)
   114ec:	2409ffff 	li	t1,-1
   114f0:	1049007b 	beq	v0,t1,0x116e0
   114f4:	2404ffff 	li	a0,-1
   114f8:	3c080800 	lui	t0,0x800
   114fc:	8d087a04 	lw	t0,31236(t0)
   11500:	3c020800 	lui	v0,0x800
   11504:	8c4231b0 	lw	v0,12720(v0)
   11508:	3c030800 	lui	v1,0x800
   1150c:	906379f4 	lbu	v1,31220(v1)
   11510:	31043fff 	andi	a0,t0,0x3fff
   11514:	0082102b 	sltu	v0,a0,v0
   11518:	1040001b 	beqz	v0,0x11588
   1151c:	3067003f 	andi	a3,v1,0x3f
   11520:	3c020800 	lui	v0,0x800
   11524:	8c4231a8 	lw	v0,12712(v0)
   11528:	8f830050 	lw	v1,80(gp)
   1152c:	00042180 	sll	a0,a0,0x6
   11530:	00621821 	addu	v1,v1,v0
   11534:	00641821 	addu	v1,v1,a0
   11538:	3062007f 	andi	v0,v1,0x7f
   1153c:	03422821 	addu	a1,k0,v0
   11540:	3c02000c 	lui	v0,0xc
   11544:	00a22821 	addu	a1,a1,v0
   11548:	3c020080 	lui	v0,0x80
   1154c:	34420001 	ori	v0,v0,0x1
   11550:	30660078 	andi	a2,v1,0x78
   11554:	00c23025 	or	a2,a2,v0
   11558:	2402ff80 	li	v0,-128
   1155c:	00621024 	and	v0,v1,v0
   11560:	af420028 	sw	v0,40(k0)
   11564:	30640007 	andi	a0,v1,0x7
   11568:	af420804 	sw	v0,2052(k0)
   1156c:	8f820028 	lw	v0,40(gp)
   11570:	03442021 	addu	a0,k0,a0
   11574:	24840940 	addiu	a0,a0,2368
   11578:	af460814 	sw	a2,2068(k0)
   1157c:	af85002c 	sw	a1,44(gp)
   11580:	af840038 	sw	a0,56(gp)
   11584:	ac430118 	sw	v1,280(v0)
   11588:	93830040 	lbu	v1,64(gp)
   1158c:	24020003 	li	v0,3
   11590:	1462003b 	bne	v1,v0,0x11680
   11594:	24020001 	li	v0,1
   11598:	24020026 	li	v0,38
   1159c:	10e2003d 	beq	a3,v0,0x11694
   115a0:	28e20027 	slti	v0,a3,39
   115a4:	10400013 	beqz	v0,0x115f4
   115a8:	24020032 	li	v0,50
   115ac:	24020022 	li	v0,34
   115b0:	10e20038 	beq	a3,v0,0x11694
   115b4:	28e20023 	slti	v0,a3,35
   115b8:	10400008 	beqz	v0,0x115dc
   115bc:	24020024 	li	v0,36
   115c0:	24020020 	li	v0,32
   115c4:	10e20024 	beq	a3,v0,0x11658
   115c8:	24020021 	li	v0,33
   115cc:	10e2001e 	beq	a3,v0,0x11648
   115d0:	02202021 	move	a0,s1
   115d4:	0a001b8c 	j	0x8006e30
   115d8:	2402000b 	li	v0,11
   115dc:	10e2002d 	beq	a3,v0,0x11694
   115e0:	24020025 	li	v0,37
   115e4:	10e20010 	beq	a3,v0,0x11628
   115e8:	02202021 	move	a0,s1
   115ec:	0a001b8c 	j	0x8006e30
   115f0:	2402000b 	li	v0,11
   115f4:	10e2001a 	beq	a3,v0,0x11660
   115f8:	28e20033 	slti	v0,a3,51
   115fc:	10400006 	beqz	v0,0x11618
   11600:	2402003f 	li	v0,63
   11604:	24020031 	li	v0,49
   11608:	10e2000b 	beq	a3,v0,0x11638
   1160c:	02202021 	move	a0,s1
   11610:	0a001b8c 	j	0x8006e30
   11614:	2402000b 	li	v0,11
   11618:	10e20011 	beq	a3,v0,0x11660
   1161c:	02202021 	move	a0,s1
   11620:	0a001b8c 	j	0x8006e30
   11624:	2402000b 	li	v0,11
   11628:	0e001879 	jal	0x80061e4
   1162c:	02202021 	move	a0,s1
   11630:	0a001ba7 	j	0x8006e9c
   11634:	00408021 	move	s0,v0
   11638:	0e0019fb 	jal	0x80067ec
   1163c:	02202021 	move	a0,s1
   11640:	0a001ba7 	j	0x8006e9c
   11644:	00408021 	move	s0,v0
   11648:	0e001a9c 	jal	0x8006a70
   1164c:	02202021 	move	a0,s1
   11650:	0a001ba7 	j	0x8006e9c
   11654:	00408021 	move	s0,v0
   11658:	1509000e 	bne	t0,t1,0x11694
   1165c:	00000000 	nop
   11660:	0e001920 	jal	0x8006480
   11664:	02202021 	move	a0,s1
   11668:	0a001ba7 	j	0x8006e9c
   1166c:	00408021 	move	s0,v0
   11670:	0e001697 	jal	0x8005a5c
   11674:	a382004c 	sb	v0,76(gp)
   11678:	0a001ba7 	j	0x8006e9c
   1167c:	00408021 	move	s0,v0
   11680:	14620017 	bne	v1,v0,0x116e0
   11684:	02002021 	move	a0,s0
   11688:	24020023 	li	v0,35
   1168c:	14e20005 	bne	a3,v0,0x116a4
   11690:	2402000b 	li	v0,11
   11694:	0e001992 	jal	0x8006648
   11698:	02202021 	move	a0,s1
   1169c:	0a001ba7 	j	0x8006e9c
   116a0:	00408021 	move	s0,v0
   116a4:	02202021 	move	a0,s1
   116a8:	a382004c 	sb	v0,76(gp)
   116ac:	0e001697 	jal	0x8005a5c
   116b0:	2410ffff 	li	s0,-1
   116b4:	0a001ba8 	j	0x8006ea0
   116b8:	02002021 	move	a0,s0
   116bc:	30a500ff 	andi	a1,a1,0xff
   116c0:	0e001595 	jal	0x8005654
   116c4:	24060001 	li	a2,1
   116c8:	97830042 	lhu	v1,66(gp)
   116cc:	8f820044 	lw	v0,68(gp)
   116d0:	a7800042 	sh	zero,66(gp)
   116d4:	00431023 	subu	v0,v0,v1
   116d8:	af820044 	sw	v0,68(gp)
   116dc:	02002021 	move	a0,s0
   116e0:	8fbf0018 	lw	ra,24(sp)
   116e4:	8fb10014 	lw	s1,20(sp)
   116e8:	8fb00010 	lw	s0,16(sp)
   116ec:	00801021 	move	v0,a0
   116f0:	03e00008 	jr	ra
   116f4:	27bd0020 	addiu	sp,sp,32
   116f8:	27bdffe0 	addiu	sp,sp,-32
   116fc:	afb10014 	sw	s1,20(sp)
   11700:	afbf0018 	sw	ra,24(sp)
   11704:	afb00010 	sw	s0,16(sp)
   11708:	8f460128 	lw	a2,296(k0)
   1170c:	3c030800 	lui	v1,0x800
   11710:	8c6331a0 	lw	v1,12704(v1)
   11714:	2402ff80 	li	v0,-128
   11718:	af860050 	sw	a2,80(gp)
   1171c:	00c31821 	addu	v1,a2,v1
   11720:	3065007f 	andi	a1,v1,0x7f
   11724:	03452821 	addu	a1,k0,a1
   11728:	00621824 	and	v1,v1,v0
   1172c:	3c02000a 	lui	v0,0xa
   11730:	af430024 	sw	v1,36(k0)
   11734:	00a22821 	addu	a1,a1,v0
   11738:	90a20062 	lbu	v0,98(a1)
   1173c:	00808821 	move	s1,a0
   11740:	af850028 	sw	a1,40(gp)
   11744:	304200ff 	andi	v0,v0,0xff
   11748:	00021102 	srl	v0,v0,0x4
   1174c:	a3820040 	sb	v0,64(gp)
   11750:	90a200bc 	lbu	v0,188(a1)
   11754:	30420002 	andi	v0,v0,0x2
   11758:	14400002 	bnez	v0,0x11764
   1175c:	24030034 	li	v1,52
   11760:	24030030 	li	v1,48
   11764:	8f820028 	lw	v0,40(gp)
   11768:	a3830030 	sb	v1,48(gp)
   1176c:	93830040 	lbu	v1,64(gp)
   11770:	8c4200c0 	lw	v0,192(v0)
   11774:	a380004c 	sb	zero,76(gp)
   11778:	af820044 	sw	v0,68(gp)
   1177c:	24020004 	li	v0,4
   11780:	10620030 	beq	v1,v0,0x11844
   11784:	8f840044 	lw	a0,68(gp)
   11788:	8e240004 	lw	a0,4(s1)
   1178c:	5080002d 	beqzl	a0,0x11844
   11790:	8f840044 	lw	a0,68(gp)
   11794:	8e220010 	lw	v0,16(s1)
   11798:	3083ffff 	andi	v1,a0,0xffff
   1179c:	a7840042 	sh	a0,66(gp)
   117a0:	1060001f 	beqz	v1,0x11820
   117a4:	af820048 	sw	v0,72(gp)
   117a8:	8f830028 	lw	v1,40(gp)
   117ac:	2405ff80 	li	a1,-128
   117b0:	02202021 	move	a0,s1
   117b4:	90620063 	lbu	v0,99(v1)
   117b8:	00a21024 	and	v0,a1,v0
   117bc:	304200ff 	andi	v0,v0,0xff
   117c0:	1440000d 	bnez	v0,0x117f8
   117c4:	00000000 	nop
   117c8:	0e001b13 	jal	0x8006c4c
   117cc:	97900042 	lhu	s0,66(gp)
   117d0:	10400010 	beqz	v0,0x11814
   117d4:	00401821 	move	v1,v0
   117d8:	2402fffd 	li	v0,-3
   117dc:	54620011 	bnel	v1,v0,0x11824
   117e0:	8e230020 	lw	v1,32(s1)
   117e4:	02002821 	move	a1,s0
   117e8:	0e001536 	jal	0x80054d8
   117ec:	02202021 	move	a0,s1
   117f0:	0a001bf9 	j	0x8006fe4
   117f4:	8e230020 	lw	v1,32(s1)
   117f8:	90620063 	lbu	v0,99(v1)
   117fc:	00a21024 	and	v0,a1,v0
   11800:	304200ff 	andi	v0,v0,0xff
   11804:	10400003 	beqz	v0,0x11814
   11808:	02202021 	move	a0,s1
   1180c:	0e00185b 	jal	0x800616c
   11810:	00000000 	nop
   11814:	97820042 	lhu	v0,66(gp)
   11818:	1440ffe4 	bnez	v0,0x117ac
   1181c:	8f830028 	lw	v1,40(gp)
   11820:	8e230020 	lw	v1,32(s1)
   11824:	30620004 	andi	v0,v1,0x4
   11828:	10400006 	beqz	v0,0x11844
   1182c:	8f840044 	lw	a0,68(gp)
   11830:	2402fffb 	li	v0,-5
   11834:	00621024 	and	v0,v1,v0
   11838:	0e00154a 	jal	0x8005528
   1183c:	ae220020 	sw	v0,32(s1)
   11840:	8f840044 	lw	a0,68(gp)
   11844:	8f830028 	lw	v1,40(gp)
   11848:	8fbf0018 	lw	ra,24(sp)
   1184c:	8fb10014 	lw	s1,20(sp)
   11850:	8fb00010 	lw	s0,16(sp)
   11854:	24020001 	li	v0,1
   11858:	27bd0020 	addiu	sp,sp,32
   1185c:	03e00008 	jr	ra
   11860:	ac6400c0 	sw	a0,192(v1)
   11864:	30a500ff 	andi	a1,a1,0xff
   11868:	24030001 	li	v1,1
   1186c:	24a90001 	addiu	t1,a1,1
   11870:	0069102b 	sltu	v0,v1,t1
   11874:	1040000c 	beqz	v0,0x118a8
   11878:	00004021 	move	t0,zero
   1187c:	240a0001 	li	t2,1
   11880:	00a31023 	subu	v0,a1,v1
   11884:	004a3804 	sllv	a3,t2,v0
   11888:	24630001 	addiu	v1,v1,1
   1188c:	30820001 	andi	v0,a0,0x1
   11890:	0069302b 	sltu	a2,v1,t1
   11894:	10400002 	beqz	v0,0x118a0
   11898:	00042042 	srl	a0,a0,0x1
   1189c:	01074025 	or	t0,t0,a3
   118a0:	54c0fff8 	bnezl	a2,0x11884
   118a4:	00a31023 	subu	v0,a1,v1
   118a8:	03e00008 	jr	ra
   118ac:	01001021 	move	v0,t0
   118b0:	27bdffe0 	addiu	sp,sp,-32
   118b4:	3c021edc 	lui	v0,0x1edc
   118b8:	afb20018 	sw	s2,24(sp)
   118bc:	afb10014 	sw	s1,20(sp)
   118c0:	afbf001c 	sw	ra,28(sp)
   118c4:	afb00010 	sw	s0,16(sp)
   118c8:	34526f41 	ori	s2,v0,0x6f41
   118cc:	00008821 	move	s1,zero
   118d0:	24050008 	li	a1,8
   118d4:	0e001c09 	jal	0x8007024
   118d8:	02202021 	move	a0,s1
   118dc:	00118080 	sll	s0,s1,0x2
   118e0:	3c070800 	lui	a3,0x800
   118e4:	24e775f4 	addiu	a3,a3,30196
   118e8:	00021600 	sll	v0,v0,0x18
   118ec:	02071821 	addu	v1,s0,a3
   118f0:	ac620000 	sw	v0,0(v1)
   118f4:	00002821 	move	a1,zero
   118f8:	24a20001 	addiu	v0,a1,1
   118fc:	3045ffff 	andi	a1,v0,0xffff
   11900:	8c620000 	lw	v0,0(v1)
   11904:	2ca60008 	sltiu	a2,a1,8
   11908:	04410002 	bgez	v0,0x11914
   1190c:	00022040 	sll	a0,v0,0x1
   11910:	00922026 	xor	a0,a0,s2
   11914:	14c0fff8 	bnez	a2,0x118f8
   11918:	ac640000 	sw	a0,0(v1)
   1191c:	02078021 	addu	s0,s0,a3
   11920:	8e040000 	lw	a0,0(s0)
   11924:	0e001c09 	jal	0x8007024
   11928:	24050020 	li	a1,32
   1192c:	26230001 	addiu	v1,s1,1
   11930:	3071ffff 	andi	s1,v1,0xffff
   11934:	2e230100 	sltiu	v1,s1,256
   11938:	1460ffe5 	bnez	v1,0x118d0
   1193c:	ae020000 	sw	v0,0(s0)
   11940:	8fbf001c 	lw	ra,28(sp)
   11944:	8fb20018 	lw	s2,24(sp)
   11948:	8fb10014 	lw	s1,20(sp)
   1194c:	8fb00010 	lw	s0,16(sp)
   11950:	03e00008 	jr	ra
   11954:	27bd0020 	addiu	sp,sp,32
   11958:	3c020800 	lui	v0,0x800
   1195c:	24426eb8 	addiu	v0,v0,28344
   11960:	3c010800 	lui	at,0x800
   11964:	ac2275e8 	sw	v0,30184(at)
   11968:	3c020800 	lui	v0,0x800
   1196c:	24425430 	addiu	v0,v0,21552
   11970:	3c010800 	lui	at,0x800
   11974:	ac2275ec 	sw	v0,30188(at)
   11978:	24020006 	li	v0,6
   1197c:	3c010800 	lui	at,0x800
   11980:	a02275f0 	sb	v0,30192(at)
   11984:	0a001c1c 	j	0x8007070
   11988:	00000000 	nop
   1198c:	27bdffd8 	addiu	sp,sp,-40
   11990:	afb3001c 	sw	s3,28(sp)
   11994:	afb20018 	sw	s2,24(sp)
   11998:	afbf0020 	sw	ra,32(sp)
   1199c:	afb10014 	sw	s1,20(sp)
   119a0:	afb00010 	sw	s0,16(sp)
   119a4:	8f510140 	lw	s1,320(k0)
   119a8:	8f480148 	lw	t0,328(k0)
   119ac:	00089402 	srl	s2,t0,0x10
   119b0:	324300ff 	andi	v1,s2,0xff
   119b4:	311300ff 	andi	s3,t0,0xff
   119b8:	8f4201b8 	lw	v0,440(k0)
   119bc:	0440fffe 	bltz	v0,0x119b8
   119c0:	27500180 	addiu	s0,k0,384
   119c4:	ae110000 	sw	s1,0(s0)
   119c8:	8f420144 	lw	v0,324(k0)
   119cc:	ae020004 	sw	v0,4(s0)
   119d0:	24020002 	li	v0,2
   119d4:	a6120008 	sh	s2,8(s0)
   119d8:	a202000b 	sb	v0,11(s0)
   119dc:	24020014 	li	v0,20
   119e0:	ae130024 	sw	s3,36(s0)
   119e4:	10620025 	beq	v1,v0,0x11a7c
   119e8:	28620015 	slti	v0,v1,21
   119ec:	10400008 	beqz	v0,0x11a10
   119f0:	24020015 	li	v0,21
   119f4:	24020010 	li	v0,16
   119f8:	10620030 	beq	v1,v0,0x11abc
   119fc:	24020012 	li	v0,18
   11a00:	10620009 	beq	v1,v0,0x11a28
   11a04:	8fbf0020 	lw	ra,32(sp)
   11a08:	0a001d46 	j	0x8007518
   11a0c:	8fb3001c 	lw	s3,28(sp)
   11a10:	10620070 	beq	v1,v0,0x11bd4
   11a14:	24020022 	li	v0,34
   11a18:	10620037 	beq	v1,v0,0x11af8
   11a1c:	8fbf0020 	lw	ra,32(sp)
   11a20:	0a001d46 	j	0x8007518
   11a24:	8fb3001c 	lw	s3,28(sp)
   11a28:	3c020800 	lui	v0,0x800
   11a2c:	8c4231a0 	lw	v0,12704(v0)
   11a30:	2403ff80 	li	v1,-128
   11a34:	02221021 	addu	v0,s1,v0
   11a38:	00431024 	and	v0,v0,v1
   11a3c:	af420024 	sw	v0,36(k0)
   11a40:	3c020800 	lui	v0,0x800
   11a44:	8c4231a0 	lw	v0,12704(v0)
   11a48:	02221021 	addu	v0,s1,v0
   11a4c:	3042007f 	andi	v0,v0,0x7f
   11a50:	03421821 	addu	v1,k0,v0
   11a54:	3c02000a 	lui	v0,0xa
   11a58:	00621821 	addu	v1,v1,v0
   11a5c:	166000bc 	bnez	s3,0x11d50
   11a60:	af830028 	sw	v1,40(gp)
   11a64:	90620062 	lbu	v0,98(v1)
   11a68:	3042000f 	andi	v0,v0,0xf
   11a6c:	34420030 	ori	v0,v0,0x30
   11a70:	a0620062 	sb	v0,98(v1)
   11a74:	0a001d45 	j	0x8007514
   11a78:	8fbf0020 	lw	ra,32(sp)
   11a7c:	3c046000 	lui	a0,0x6000
   11a80:	8c832c08 	lw	v1,11272(a0)
   11a84:	3c02f003 	lui	v0,0xf003
   11a88:	3442ffff 	ori	v0,v0,0xffff
   11a8c:	00621824 	and	v1,v1,v0
   11a90:	ac832c08 	sw	v1,11272(a0)
   11a94:	3c020800 	lui	v0,0x800
   11a98:	8c4231a0 	lw	v0,12704(v0)
   11a9c:	8c832c08 	lw	v1,11272(a0)
   11aa0:	24420074 	addiu	v0,v0,116
   11aa4:	00021082 	srl	v0,v0,0x2
   11aa8:	00021480 	sll	v0,v0,0x12
   11aac:	00621825 	or	v1,v1,v0
   11ab0:	ac832c08 	sw	v1,11272(a0)
   11ab4:	0a001d45 	j	0x8007514
   11ab8:	8fbf0020 	lw	ra,32(sp)
   11abc:	3c020800 	lui	v0,0x800
   11ac0:	8c4231a0 	lw	v0,12704(v0)
   11ac4:	2403ff80 	li	v1,-128
   11ac8:	02221021 	addu	v0,s1,v0
   11acc:	00431024 	and	v0,v0,v1
   11ad0:	af420024 	sw	v0,36(k0)
   11ad4:	3c020800 	lui	v0,0x800
   11ad8:	8c4231a0 	lw	v0,12704(v0)
   11adc:	3c03000a 	lui	v1,0xa
   11ae0:	02221021 	addu	v0,s1,v0
   11ae4:	3042007f 	andi	v0,v0,0x7f
   11ae8:	03421021 	addu	v0,k0,v0
   11aec:	00431021 	addu	v0,v0,v1
   11af0:	0a001d44 	j	0x8007510
   11af4:	af820028 	sw	v0,40(gp)
   11af8:	3c020800 	lui	v0,0x800
   11afc:	8c4231a0 	lw	v0,12704(v0)
   11b00:	2405ff80 	li	a1,-128
   11b04:	02221021 	addu	v0,s1,v0
   11b08:	00451024 	and	v0,v0,a1
   11b0c:	af420024 	sw	v0,36(k0)
   11b10:	3c020800 	lui	v0,0x800
   11b14:	8c4231a0 	lw	v0,12704(v0)
   11b18:	02221021 	addu	v0,s1,v0
   11b1c:	3042007f 	andi	v0,v0,0x7f
   11b20:	03421821 	addu	v1,k0,v0
   11b24:	3c02000a 	lui	v0,0xa
   11b28:	00621821 	addu	v1,v1,v0
   11b2c:	90620063 	lbu	v0,99(v1)
   11b30:	00a21024 	and	v0,a1,v0
   11b34:	304200ff 	andi	v0,v0,0xff
   11b38:	10400085 	beqz	v0,0x11d50
   11b3c:	af830028 	sw	v1,40(gp)
   11b40:	24620088 	addiu	v0,v1,136
   11b44:	94430012 	lhu	v1,18(v0)
   11b48:	3c020800 	lui	v0,0x800
   11b4c:	8c4231a8 	lw	v0,12712(v0)
   11b50:	30633fff 	andi	v1,v1,0x3fff
   11b54:	00031980 	sll	v1,v1,0x6
   11b58:	02221021 	addu	v0,s1,v0
   11b5c:	00431021 	addu	v0,v0,v1
   11b60:	3043007f 	andi	v1,v0,0x7f
   11b64:	03432021 	addu	a0,k0,v1
   11b68:	00451024 	and	v0,v0,a1
   11b6c:	3c03000c 	lui	v1,0xc
   11b70:	00832021 	addu	a0,a0,v1
   11b74:	af420028 	sw	v0,40(k0)
   11b78:	9082000d 	lbu	v0,13(a0)
   11b7c:	00a21024 	and	v0,a1,v0
   11b80:	304200ff 	andi	v0,v0,0xff
   11b84:	10400072 	beqz	v0,0x11d50
   11b88:	af84002c 	sw	a0,44(gp)
   11b8c:	9082000d 	lbu	v0,13(a0)
   11b90:	30420010 	andi	v0,v0,0x10
   11b94:	1440006f 	bnez	v0,0x11d54
   11b98:	8fbf0020 	lw	ra,32(sp)
   11b9c:	0e001666 	jal	0x8005998
   11ba0:	00000000 	nop
   11ba4:	8f4201b8 	lw	v0,440(k0)
   11ba8:	0440fffe 	bltz	v0,0x11ba4
   11bac:	00000000 	nop
   11bb0:	ae110000 	sw	s1,0(s0)
   11bb4:	8f420144 	lw	v0,324(k0)
   11bb8:	ae020004 	sw	v0,4(s0)
   11bbc:	24020002 	li	v0,2
   11bc0:	a6120008 	sh	s2,8(s0)
   11bc4:	a202000b 	sb	v0,11(s0)
   11bc8:	ae130024 	sw	s3,36(s0)
   11bcc:	0a001d45 	j	0x8007514
   11bd0:	8fbf0020 	lw	ra,32(sp)
   11bd4:	2406ff80 	li	a2,-128
   11bd8:	02261024 	and	v0,s1,a2
   11bdc:	af420020 	sw	v0,32(k0)
   11be0:	3c020800 	lui	v0,0x800
   11be4:	8c4231a0 	lw	v0,12704(v0)
   11be8:	31043fff 	andi	a0,t0,0x3fff
   11bec:	00042180 	sll	a0,a0,0x6
   11bf0:	02221021 	addu	v0,s1,v0
   11bf4:	00461024 	and	v0,v0,a2
   11bf8:	af420024 	sw	v0,36(k0)
   11bfc:	3c030800 	lui	v1,0x800
   11c00:	8c6331a8 	lw	v1,12712(v1)
   11c04:	3c020800 	lui	v0,0x800
   11c08:	8c4231a0 	lw	v0,12704(v0)
   11c0c:	3227007f 	andi	a3,s1,0x7f
   11c10:	02231821 	addu	v1,s1,v1
   11c14:	02221021 	addu	v0,s1,v0
   11c18:	00641821 	addu	v1,v1,a0
   11c1c:	3042007f 	andi	v0,v0,0x7f
   11c20:	3064007f 	andi	a0,v1,0x7f
   11c24:	03422821 	addu	a1,k0,v0
   11c28:	3c02000a 	lui	v0,0xa
   11c2c:	00661824 	and	v1,v1,a2
   11c30:	00a22821 	addu	a1,a1,v0
   11c34:	03442021 	addu	a0,k0,a0
   11c38:	3c02000c 	lui	v0,0xc
   11c3c:	00822021 	addu	a0,a0,v0
   11c40:	af430028 	sw	v1,40(k0)
   11c44:	3c020008 	lui	v0,0x8
   11c48:	03471821 	addu	v1,k0,a3
   11c4c:	00629021 	addu	s2,v1,v0
   11c50:	af850028 	sw	a1,40(gp)
   11c54:	af84002c 	sw	a0,44(gp)
   11c58:	0e001666 	jal	0x8005998
   11c5c:	01008021 	move	s0,t0
   11c60:	8f4201b8 	lw	v0,440(k0)
   11c64:	0440fffe 	bltz	v0,0x11c60
   11c68:	8f82002c 	lw	v0,44(gp)
   11c6c:	8f840028 	lw	a0,40(gp)
   11c70:	27450180 	addiu	a1,k0,384
   11c74:	9042000d 	lbu	v0,13(v0)
   11c78:	acb10000 	sw	s1,0(a1)
   11c7c:	a4b00006 	sh	s0,6(a1)
   11c80:	00021600 	sll	v0,v0,0x18
   11c84:	00021603 	sra	v0,v0,0x18
   11c88:	00021027 	nor	v0,zero,v0
   11c8c:	000237c2 	srl	a2,v0,0x1f
   11c90:	14c00016 	bnez	a2,0x11cec
   11c94:	24820088 	addiu	v0,a0,136
   11c98:	94420012 	lhu	v0,18(v0)
   11c9c:	32033fff 	andi	v1,s0,0x3fff
   11ca0:	30423fff 	andi	v0,v0,0x3fff
   11ca4:	14430012 	bne	v0,v1,0x11cf0
   11ca8:	24026082 	li	v0,24706
   11cac:	90830063 	lbu	v1,99(a0)
   11cb0:	2402ff80 	li	v0,-128
   11cb4:	00431024 	and	v0,v0,v1
   11cb8:	304200ff 	andi	v0,v0,0xff
   11cbc:	5040000c 	beqzl	v0,0x11cf0
   11cc0:	24026082 	li	v0,24706
   11cc4:	90820062 	lbu	v0,98(a0)
   11cc8:	3042000f 	andi	v0,v0,0xf
   11ccc:	34420040 	ori	v0,v0,0x40
   11cd0:	a0820062 	sb	v0,98(a0)
   11cd4:	24026084 	li	v0,24708
   11cd8:	a4a20008 	sh	v0,8(a1)
   11cdc:	2402000d 	li	v0,13
   11ce0:	a0a20005 	sb	v0,5(a1)
   11ce4:	0a001d2f 	j	0x80074bc
   11ce8:	3c022700 	lui	v0,0x2700
   11cec:	24026082 	li	v0,24706
   11cf0:	a4a20008 	sh	v0,8(a1)
   11cf4:	a0a00005 	sb	zero,5(a1)
   11cf8:	3c022700 	lui	v0,0x2700
   11cfc:	00061c00 	sll	v1,a2,0x10
   11d00:	00621825 	or	v1,v1,v0
   11d04:	24020002 	li	v0,2
   11d08:	a0a2000b 	sb	v0,11(a1)
   11d0c:	aca30010 	sw	v1,16(a1)
   11d10:	aca00014 	sw	zero,20(a1)
   11d14:	aca00024 	sw	zero,36(a1)
   11d18:	aca00028 	sw	zero,40(a1)
   11d1c:	aca0002c 	sw	zero,44(a1)
   11d20:	8e42004c 	lw	v0,76(s2)
   11d24:	8f84002c 	lw	a0,44(gp)
   11d28:	aca20018 	sw	v0,24(a1)
   11d2c:	9083000d 	lbu	v1,13(a0)
   11d30:	2402ff80 	li	v0,-128
   11d34:	00431024 	and	v0,v0,v1
   11d38:	304200ff 	andi	v0,v0,0xff
   11d3c:	10400005 	beqz	v0,0x11d54
   11d40:	8fbf0020 	lw	ra,32(sp)
   11d44:	9082000d 	lbu	v0,13(a0)
   11d48:	3042007f 	andi	v0,v0,0x7f
   11d4c:	a082000d 	sb	v0,13(a0)
   11d50:	8fbf0020 	lw	ra,32(sp)
   11d54:	8fb3001c 	lw	s3,28(sp)
   11d58:	8fb20018 	lw	s2,24(sp)
   11d5c:	8fb10014 	lw	s1,20(sp)
   11d60:	8fb00010 	lw	s0,16(sp)
   11d64:	3c021000 	lui	v0,0x1000
   11d68:	27bd0028 	addiu	sp,sp,40
   11d6c:	03e00008 	jr	ra
   11d70:	af4201b8 	sw	v0,440(k0)
   11d74:	080033f8 	j	0xcfe0
   11d78:	080033f8 	j	0xcfe0
   11d7c:	08003370 	j	0xcdc0
   11d80:	080033a8 	j	0xcea0
   11d84:	080033dc 	j	0xcf70
   11d88:	08003400 	j	0xd000
   11d8c:	08003400 	j	0xd000
   11d90:	08003400 	j	0xd000
   11d94:	080032e0 	j	0xcb80
   11d98:	0a000122 	j	0x8000488
   11d9c:	00000000 	nop
   11da0:	00000000 	nop
   11da4:	0000000d 	break
   11da8:	74706135 	jalx	0x1c184d5
   11dac:	2e302e30 	sltiu	s0,s1,11824
   11db0:	6a360000 	ldl	s6,0(s1)
   11db4:	05000001 	bltz	t0,0x11dbc
   11db8:	00000000 	nop
	...
   11e24:	10000003 	b	0x11e34
   11e28:	00000000 	nop
   11e2c:	0000000d 	break
   11e30:	0000000d 	break
   11e34:	3c020800 	lui	v0,0x800
   11e38:	24421b80 	addiu	v0,v0,7040
   11e3c:	3c030800 	lui	v1,0x800
   11e40:	24632014 	addiu	v1,v1,8212
   11e44:	ac400000 	sw	zero,0(v0)
   11e48:	0043202b 	sltu	a0,v0,v1
   11e4c:	1480fffd 	bnez	a0,0x11e44
   11e50:	24420004 	addiu	v0,v0,4
   11e54:	3c1d0800 	lui	sp,0x800
   11e58:	37bd2ffc 	ori	sp,sp,0x2ffc
   11e5c:	03a0f021 	move	s8,sp
   11e60:	3c100800 	lui	s0,0x800
   11e64:	26100488 	addiu	s0,s0,1160
   11e68:	3c1c0800 	lui	gp,0x800
   11e6c:	279c1b80 	addiu	gp,gp,7040
   11e70:	0e00015a 	jal	0x8000568
   11e74:	00000000 	nop
   11e78:	0000000d 	break
   11e7c:	3084ffff 	andi	a0,a0,0xffff
   11e80:	30820007 	andi	v0,a0,0x7
   11e84:	8f850018 	lw	a1,24(gp)
   11e88:	10400002 	beqz	v0,0x11e94
   11e8c:	24830007 	addiu	v1,a0,7
   11e90:	3064fff8 	andi	a0,v1,0xfff8
   11e94:	00853021 	addu	a2,a0,a1
   11e98:	30c41fff 	andi	a0,a2,0x1fff
   11e9c:	03441821 	addu	v1,k0,a0
   11ea0:	247b4000 	addiu	k1,v1,16384
   11ea4:	af85001c 	sw	a1,28(gp)
   11ea8:	af840018 	sw	a0,24(gp)
   11eac:	03e00008 	jr	ra
   11eb0:	af440084 	sw	a0,132(k0)
   11eb4:	3084ffff 	andi	a0,a0,0xffff
   11eb8:	30820007 	andi	v0,a0,0x7
   11ebc:	8f850020 	lw	a1,32(gp)
   11ec0:	8f860028 	lw	a2,40(gp)
   11ec4:	10400002 	beqz	v0,0x11ed0
   11ec8:	24830007 	addiu	v1,a0,7
   11ecc:	3064fff8 	andi	a0,v1,0xfff8
   11ed0:	00852021 	addu	a0,a0,a1
   11ed4:	0086182b 	sltu	v1,a0,a2
   11ed8:	14600002 	bnez	v1,0x11ee4
   11edc:	af850024 	sw	a1,36(gp)
   11ee0:	00862023 	subu	a0,a0,a2
   11ee4:	03442821 	addu	a1,k0,a0
   11ee8:	34068000 	li	a2,0x8000
   11eec:	af840020 	sw	a0,32(gp)
   11ef0:	af440080 	sw	a0,128(k0)
   11ef4:	00a62021 	addu	a0,a1,a2
   11ef8:	03e00008 	jr	ra
   11efc:	af840038 	sw	a0,56(gp)
   11f00:	27bdffd8 	addiu	sp,sp,-40
   11f04:	afb3001c 	sw	s3,28(sp)
   11f08:	afb20018 	sw	s2,24(sp)
   11f0c:	afb00010 	sw	s0,16(sp)
   11f10:	afbf0024 	sw	ra,36(sp)
   11f14:	afb40020 	sw	s4,32(sp)
   11f18:	afb10014 	sw	s1,20(sp)
   11f1c:	3c086008 	lui	t0,0x6008
   11f20:	8d145000 	lw	s4,20480(t0)
   11f24:	2418ff7f 	li	t8,-129
   11f28:	3c1a8000 	lui	k0,0x8000
   11f2c:	02989824 	and	s3,s4,t8
   11f30:	3672380c 	ori	s2,s3,0x380c
   11f34:	ad125000 	sw	s2,20480(t0)
   11f38:	8f510008 	lw	s1,8(k0)
   11f3c:	3c07601c 	lui	a3,0x601c
   11f40:	3c086000 	lui	t0,0x6000
   11f44:	36300001 	ori	s0,s1,0x1
   11f48:	af500008 	sw	s0,8(k0)
   11f4c:	af800018 	sw	zero,24(gp)
   11f50:	af400080 	sw	zero,128(k0)
   11f54:	af400084 	sw	zero,132(k0)
   11f58:	8ce60008 	lw	a2,8(a3)
   11f5c:	8d0f0808 	lw	t7,2056(t0)
   11f60:	3c076016 	lui	a3,0x6016
   11f64:	8cec0000 	lw	t4,0(a3)
   11f68:	31eefff0 	andi	t6,t7,0xfff0
   11f6c:	39ca0010 	xori	t2,t6,0x10
   11f70:	3c0dffff 	lui	t5,0xffff
   11f74:	340b8000 	li	t3,0x8000
   11f78:	3c030080 	lui	v1,0x80
   11f7c:	034b4821 	addu	t1,k0,t3
   11f80:	2d440001 	sltiu	a0,t2,1
   11f84:	018d2824 	and	a1,t4,t5
   11f88:	3c025353 	lui	v0,0x5353
   11f8c:	3c010800 	lui	at,0x800
   11f90:	ac230420 	sw	v1,1056(at)
   11f94:	af890038 	sw	t1,56(gp)
   11f98:	af860028 	sw	a2,40(gp)
   11f9c:	af840010 	sw	a0,16(gp)
   11fa0:	275b4000 	addiu	k1,k0,16384
   11fa4:	14a20003 	bne	a1,v0,0x11fb4
   11fa8:	34e37c00 	ori	v1,a3,0x7c00
   11fac:	8cf90004 	lw	t9,4(a3)
   11fb0:	03281821 	addu	v1,t9,t0
   11fb4:	8c7f007c 	lw	ra,124(v1)
   11fb8:	8c650078 	lw	a1,120(v1)
   11fbc:	3c028000 	lui	v0,0x8000
   11fc0:	34520070 	ori	s2,v0,0x70
   11fc4:	af85003c 	sw	a1,60(gp)
   11fc8:	af9f0040 	sw	ra,64(gp)
   11fcc:	3c130800 	lui	s3,0x800
   11fd0:	26731bc4 	addiu	s3,s3,7108
   11fd4:	0240a021 	move	s4,s2
   11fd8:	8e480000 	lw	t0,0(s2)
   11fdc:	8f460000 	lw	a2,0(k0)
   11fe0:	38c30001 	xori	v1,a2,0x1
   11fe4:	30640001 	andi	a0,v1,0x1
   11fe8:	10800017 	beqz	a0,0x12048
   11fec:	af880034 	sw	t0,52(gp)
   11ff0:	02804821 	move	t1,s4
   11ff4:	8d2d0000 	lw	t5,0(t1)
   11ff8:	3c190800 	lui	t9,0x800
   11ffc:	8f39045c 	lw	t9,1116(t9)
   12000:	3c110800 	lui	s1,0x800
   12004:	8e310458 	lw	s1,1112(s1)
   12008:	01a8f823 	subu	ra,t5,t0
   1200c:	033f7821 	addu	t7,t9,ra
   12010:	00004021 	move	t0,zero
   12014:	02283821 	addu	a3,s1,t0
   12018:	01ff802b 	sltu	s0,t7,ra
   1201c:	00f07021 	addu	t6,a3,s0
   12020:	3c010800 	lui	at,0x800
   12024:	ac2f045c 	sw	t7,1116(at)
   12028:	3c010800 	lui	at,0x800
   1202c:	ac2e0458 	sw	t6,1112(at)
   12030:	8f4c0000 	lw	t4,0(k0)
   12034:	398b0001 	xori	t3,t4,0x1
   12038:	316a0001 	andi	t2,t3,0x1
   1203c:	1540ffed 	bnez	t2,0x11ff4
   12040:	01a04021 	move	t0,t5
   12044:	af8d0034 	sw	t5,52(gp)
   12048:	8e4e0000 	lw	t6,0(s2)
   1204c:	3c0c0800 	lui	t4,0x800
   12050:	8d8c045c 	lw	t4,1116(t4)
   12054:	3c0a0800 	lui	t2,0x800
   12058:	8d4a0458 	lw	t2,1112(t2)
   1205c:	01c86823 	subu	t5,t6,t0
   12060:	018d2821 	addu	a1,t4,t5
   12064:	00005821 	move	t3,zero
   12068:	00ad302b 	sltu	a2,a1,t5
   1206c:	014b2021 	addu	a0,t2,t3
   12070:	00861021 	addu	v0,a0,a2
   12074:	3c010800 	lui	at,0x800
   12078:	ac25045c 	sw	a1,1116(at)
   1207c:	3c010800 	lui	at,0x800
   12080:	ac220458 	sw	v0,1112(at)
   12084:	8f450108 	lw	a1,264(k0)
   12088:	8f440100 	lw	a0,256(k0)
   1208c:	30a92000 	andi	t1,a1,0x2000
   12090:	af850000 	sw	a1,0(gp)
   12094:	af84000c 	sw	a0,12(gp)
   12098:	1120000a 	beqz	t1,0x120c4
   1209c:	00a03021 	move	a2,a1
   120a0:	3c070800 	lui	a3,0x800
   120a4:	8ce7042c 	lw	a3,1068(a3)
   120a8:	24ef0001 	addiu	t7,a3,1
   120ac:	3c010800 	lui	at,0x800
   120b0:	ac2f042c 	sw	t7,1068(at)
   120b4:	3c104000 	lui	s0,0x4000
   120b8:	af500138 	sw	s0,312(k0)
   120bc:	0a000190 	j	0x8000640
   120c0:	00000000 	nop
   120c4:	30b00200 	andi	s0,a1,0x200
   120c8:	16000014 	bnez	s0,0x1211c
   120cc:	24110f00 	li	s1,3840
   120d0:	10910012 	beq	a0,s1,0x1211c
   120d4:	24070d00 	li	a3,3328
   120d8:	10870233 	beq	a0,a3,0x129a8
   120dc:	30b00006 	andi	s0,a1,0x6
   120e0:	5200fff5 	beqzl	s0,0x120b8
   120e4:	3c104000 	lui	s0,0x4000
   120e8:	936d0000 	lbu	t5,0(k1)
   120ec:	240c0010 	li	t4,16
   120f0:	31a600f0 	andi	a2,t5,0xf0
   120f4:	10cc0269 	beq	a2,t4,0x12a9c
   120f8:	240e0070 	li	t6,112
   120fc:	10ce02dd 	beq	a2,t6,0x12c74
   12100:	8f8b0014 	lw	t3,20(gp)
   12104:	25670001 	addiu	a3,t3,1
   12108:	af870014 	sw	a3,20(gp)
   1210c:	3c104000 	lui	s0,0x4000
   12110:	af500138 	sw	s0,312(k0)
   12114:	0a000190 	j	0x8000640
   12118:	00000000 	nop
   1211c:	97480104 	lhu	t0,260(k0)
   12120:	1100ffe5 	beqz	t0,0x120b8
   12124:	3c104000 	lui	s0,0x4000
   12128:	30b84000 	andi	t8,a1,0x4000
   1212c:	170000a2 	bnez	t8,0x123b8
   12130:	00000000 	nop
   12134:	8f590178 	lw	t9,376(k0)
   12138:	0720fffe 	bltz	t9,0x12134
   1213c:	8f870038 	lw	a3,56(gp)
   12140:	24090008 	li	t1,8
   12144:	24050800 	li	a1,2048
   12148:	8ce30008 	lw	v1,8(a3)
   1214c:	af450178 	sw	a1,376(k0)
   12150:	a7490140 	sh	t1,320(k0)
   12154:	a7400142 	sh	zero,322(k0)
   12158:	97420104 	lhu	v0,260(k0)
   1215c:	8f860000 	lw	a2,0(gp)
   12160:	3049ffff 	andi	t1,v0,0xffff
   12164:	30df0001 	andi	ra,a2,0x1
   12168:	13e002d5 	beqz	ra,0x12cc0
   1216c:	01204021 	move	t0,t1
   12170:	2524fffe 	addiu	a0,t1,-2
   12174:	240a0002 	li	t2,2
   12178:	a74a0146 	sh	t2,326(k0)
   1217c:	3088ffff 	andi	t0,a0,0xffff
   12180:	a7440148 	sh	a0,328(k0)
   12184:	3c0b0800 	lui	t3,0x800
   12188:	8d6b043c 	lw	t3,1084(t3)
   1218c:	156002c4 	bnez	t3,0x12ca0
   12190:	8f8f000c 	lw	t7,12(gp)
   12194:	30c30020 	andi	v1,a2,0x20
   12198:	14600002 	bnez	v1,0x121a4
   1219c:	24040009 	li	a0,9
   121a0:	24040001 	li	a0,1
   121a4:	30cd0c00 	andi	t5,a2,0xc00
   121a8:	240c0400 	li	t4,1024
   121ac:	51ac0001 	beql	t5,t4,0x121b4
   121b0:	34840004 	ori	a0,a0,0x4
   121b4:	a744014a 	sh	a0,330(k0)
   121b8:	3c050800 	lui	a1,0x800
   121bc:	8ca50420 	lw	a1,1056(a1)
   121c0:	3c020048 	lui	v0,0x48
   121c4:	3c190001 	lui	t9,0x1
   121c8:	00a2f825 	or	ra,a1,v0
   121cc:	30d80002 	andi	t8,a2,0x2
   121d0:	03f92825 	or	a1,ra,t9
   121d4:	13000004 	beqz	t8,0x121e8
   121d8:	00001821 	move	v1,zero
   121dc:	3c040100 	lui	a0,0x100
   121e0:	00a42825 	or	a1,a1,a0
   121e4:	24030001 	li	v1,1
   121e8:	30ca0004 	andi	t2,a2,0x4
   121ec:	51400005 	beqzl	t2,0x12204
   121f0:	af830008 	sw	v1,8(gp)
   121f4:	3c060010 	lui	a2,0x10
   121f8:	00a62825 	or	a1,a1,a2
   121fc:	24030001 	li	v1,1
   12200:	af830008 	sw	v1,8(gp)
   12204:	af451000 	sw	a1,4096(k0)
	...
   12218:	8f830008 	lw	v1,8(gp)
   1221c:	10600023 	beqz	v1,0x122ac
   12220:	00000000 	nop
   12224:	8f4b1000 	lw	t3,4096(k0)
   12228:	0561fffe 	bgez	t3,0x12224
   1222c:	00000000 	nop
   12230:	1060001e 	beqz	v1,0x122ac
   12234:	00000000 	nop
   12238:	8f4d1000 	lw	t5,4096(k0)
   1223c:	3c030020 	lui	v1,0x20
   12240:	01a36024 	and	t4,t5,v1
   12244:	11800019 	beqz	t4,0x122ac
   12248:	8f8f0000 	lw	t7,0(gp)
   1224c:	31ee0002 	andi	t6,t7,0x2
   12250:	11c00016 	beqz	t6,0x122ac
   12254:	00000000 	nop
   12258:	97501014 	lhu	s0,4116(k0)
   1225c:	16000013 	bnez	s0,0x122ac
   12260:	00000000 	nop
   12264:	97451008 	lhu	a1,4104(k0)
   12268:	30bfffff 	andi	ra,a1,0xffff
   1226c:	27f80006 	addiu	t8,ra,6
   12270:	0018c882 	srl	t9,t8,0x2
   12274:	00193080 	sll	a2,t9,0x2
   12278:	00c72821 	addu	a1,a2,a3
   1227c:	33110001 	andi	s1,t8,0x1
   12280:	33030003 	andi	v1,t8,0x3
   12284:	12200320 	beqz	s1,0x12f08
   12288:	8ca20000 	lw	v0,0(a1)
   1228c:	0000000d 	break
   12290:	00c7f821 	addu	ra,a2,a3
   12294:	afe20000 	sw	v0,0(ra)
   12298:	3c190800 	lui	t9,0x800
   1229c:	8f390430 	lw	t9,1072(t9)
   122a0:	27260001 	addiu	a2,t9,1
   122a4:	3c010800 	lui	at,0x800
   122a8:	ac260430 	sw	a2,1072(at)
   122ac:	8f6a0000 	lw	t2,0(k1)
   122b0:	3405ffff 	li	a1,0xffff
   122b4:	af8a0004 	sw	t2,4(gp)
   122b8:	8ce20000 	lw	v0,0(a3)
   122bc:	1045029a 	beq	v0,a1,0x12d28
   122c0:	00002021 	move	a0,zero
   122c4:	8ce50000 	lw	a1,0(a3)
   122c8:	30bf0100 	andi	ra,a1,0x100
   122cc:	13e0027e 	beqz	ra,0x12cc8
   122d0:	01002021 	move	a0,t0
   122d4:	3c070800 	lui	a3,0x800
   122d8:	8ce70474 	lw	a3,1140(a3)
   122dc:	3c100800 	lui	s0,0x800
   122e0:	8e10044c 	lw	s0,1100(s0)
   122e4:	00e85821 	addu	t3,a3,t0
   122e8:	3c180800 	lui	t8,0x800
   122ec:	8f180470 	lw	t8,1136(t8)
   122f0:	0168882b 	sltu	s1,t3,t0
   122f4:	3c080800 	lui	t0,0x800
   122f8:	8d080448 	lw	t0,1096(t0)
   122fc:	00007821 	move	t7,zero
   12300:	02046021 	addu	t4,s0,a0
   12304:	030f1821 	addu	v1,t8,t7
   12308:	0184702b 	sltu	t6,t4,a0
   1230c:	010f6821 	addu	t5,t0,t7
   12310:	00715021 	addu	t2,v1,s1
   12314:	01ae1021 	addu	v0,t5,t6
   12318:	3c010800 	lui	at,0x800
   1231c:	ac2c044c 	sw	t4,1100(at)
   12320:	3c010800 	lui	at,0x800
   12324:	ac220448 	sw	v0,1096(at)
   12328:	3c010800 	lui	at,0x800
   1232c:	ac2b0474 	sw	t3,1140(at)
   12330:	3c010800 	lui	at,0x800
   12334:	ac2a0470 	sw	t2,1136(at)
   12338:	8f8d0018 	lw	t5,24(gp)
   1233c:	01203021 	move	a2,t1
   12340:	31290007 	andi	t1,t1,0x7
   12344:	25ae0008 	addiu	t6,t5,8
   12348:	31c21fff 	andi	v0,t6,0x1fff
   1234c:	03426021 	addu	t4,k0,v0
   12350:	af8d001c 	sw	t5,28(gp)
   12354:	af820018 	sw	v0,24(gp)
   12358:	259b4000 	addiu	k1,t4,16384
   1235c:	af420084 	sw	v0,132(k0)
   12360:	11200003 	beqz	t1,0x12370
   12364:	8f900020 	lw	s0,32(gp)
   12368:	24c80007 	addiu	t0,a2,7
   1236c:	3106fff8 	andi	a2,t0,0xfff8
   12370:	8f840028 	lw	a0,40(gp)
   12374:	00d02821 	addu	a1,a2,s0
   12378:	00a4782b 	sltu	t7,a1,a0
   1237c:	15e00002 	bnez	t7,0x12388
   12380:	af900024 	sw	s0,36(gp)
   12384:	00a42823 	subu	a1,a1,a0
   12388:	03452021 	addu	a0,k0,a1
   1238c:	34038000 	li	v1,0x8000
   12390:	00831021 	addu	v0,a0,v1
   12394:	3c061000 	lui	a2,0x1000
   12398:	af850020 	sw	a1,32(gp)
   1239c:	af820038 	sw	v0,56(gp)
   123a0:	af450080 	sw	a1,128(k0)
   123a4:	af460178 	sw	a2,376(k0)
   123a8:	8f8b0014 	lw	t3,20(gp)
   123ac:	25670001 	addiu	a3,t3,1
   123b0:	0a0001dd 	j	0x8000774
   123b4:	af870014 	sw	a3,20(gp)
   123b8:	8f620008 	lw	v0,8(k1)
   123bc:	8f670000 	lw	a3,0(k1)
   123c0:	24110030 	li	s1,48
   123c4:	0007c602 	srl	t8,a3,0x18
   123c8:	330300f0 	andi	v1,t8,0xf0
   123cc:	107100a2 	beq	v1,s1,0x12658
   123d0:	24190040 	li	t9,64
   123d4:	1479ff4b 	bne	v1,t9,0x12104
   123d8:	8f8b0014 	lw	t3,20(gp)
   123dc:	8f4a0178 	lw	t2,376(k0)
   123e0:	0540fffe 	bltz	t2,0x123dc
   123e4:	30a70200 	andi	a3,a1,0x200
   123e8:	14e00003 	bnez	a3,0x123f8
   123ec:	00051282 	srl	v0,a1,0xa
   123f0:	0000000d 	break
   123f4:	00051282 	srl	v0,a1,0xa
   123f8:	30500003 	andi	s0,v0,0x3
   123fc:	00104900 	sll	t1,s0,0x4
   12400:	01307021 	addu	t6,t1,s0
   12404:	000e6880 	sll	t5,t6,0x2
   12408:	01b06021 	addu	t4,t5,s0
   1240c:	000c5880 	sll	t3,t4,0x2
   12410:	01738021 	addu	s0,t3,s3
   12414:	8e080000 	lw	t0,0(s0)
   12418:	15000002 	bnez	t0,0x12424
   1241c:	00000000 	nop
   12420:	0000000d 	break
   12424:	8f6f0004 	lw	t7,4(k1)
   12428:	05e202b1 	bltzl	t7,0x12ef0
   1242c:	92030006 	lbu	v1,6(s0)
   12430:	92070005 	lbu	a3,5(s0)
   12434:	920f0004 	lbu	t7,4(s0)
   12438:	3c020001 	lui	v0,0x1
   1243c:	00072880 	sll	a1,a3,0x2
   12440:	00b06021 	addu	t4,a1,s0
   12444:	8d890018 	lw	t1,24(t4)
   12448:	27710008 	addiu	s1,k1,8
   1244c:	25ee0005 	addiu	t6,t7,5
   12450:	01226821 	addu	t5,t1,v0
   12454:	000e3082 	srl	a2,t6,0x2
   12458:	ad8d0018 	sw	t5,24(t4)
   1245c:	02202021 	move	a0,s1
   12460:	0e000580 	jal	0x8001600
   12464:	26050014 	addiu	a1,s0,20
   12468:	920b0006 	lbu	t3,6(s0)
   1246c:	8f7f0004 	lw	ra,4(k1)
   12470:	3c087fff 	lui	t0,0x7fff
   12474:	000b2080 	sll	a0,t3,0x2
   12478:	00913021 	addu	a2,a0,s1
   1247c:	8cc30004 	lw	v1,4(a2)
   12480:	350affff 	ori	t2,t0,0xffff
   12484:	03eac824 	and	t9,ra,t2
   12488:	0079c021 	addu	t8,v1,t9
   1248c:	acd80004 	sw	t8,4(a2)
   12490:	92070005 	lbu	a3,5(s0)
   12494:	92090004 	lbu	t1,4(s0)
   12498:	960d0008 	lhu	t5,8(s0)
   1249c:	00072880 	sll	a1,a3,0x2
   124a0:	00b1f821 	addu	ra,a1,s1
   124a4:	8fef0000 	lw	t7,0(ra)
   124a8:	97420104 	lhu	v0,260(k0)
   124ac:	3c07ffff 	lui	a3,0xffff
   124b0:	01e75024 	and	t2,t7,a3
   124b4:	304effff 	andi	t6,v0,0xffff
   124b8:	01c96021 	addu	t4,t6,t1
   124bc:	018d5823 	subu	t3,t4,t5
   124c0:	3168ffff 	andi	t0,t3,0xffff
   124c4:	01482025 	or	a0,t2,t0
   124c8:	afe40000 	sw	a0,0(ra)
   124cc:	92030007 	lbu	v1,7(s0)
   124d0:	24190001 	li	t9,1
   124d4:	10790269 	beq	v1,t9,0x12e7c
   124d8:	24060003 	li	a2,3
   124dc:	10660279 	beq	v1,a2,0x12ec4
   124e0:	00000000 	nop
   124e4:	8e190010 	lw	t9,16(s0)
   124e8:	241f000a 	li	ra,10
   124ec:	a75f0140 	sh	ra,320(k0)
   124f0:	a7590142 	sh	t9,322(k0)
   124f4:	92030004 	lbu	v1,4(s0)
   124f8:	8f860000 	lw	a2,0(gp)
   124fc:	24070001 	li	a3,1
   12500:	a7430144 	sh	v1,324(k0)
   12504:	a7400146 	sh	zero,326(k0)
   12508:	97580104 	lhu	t8,260(k0)
   1250c:	30d10002 	andi	s1,a2,0x2
   12510:	3c050041 	lui	a1,0x41
   12514:	a7580148 	sh	t8,328(k0)
   12518:	00001821 	move	v1,zero
   1251c:	a747014a 	sh	a3,330(k0)
   12520:	12200003 	beqz	s1,0x12530
   12524:	30ca0004 	andi	t2,a2,0x4
   12528:	3c050141 	lui	a1,0x141
   1252c:	24030001 	li	v1,1
   12530:	51400005 	beqzl	t2,0x12548
   12534:	af830008 	sw	v1,8(gp)
   12538:	3c080010 	lui	t0,0x10
   1253c:	00a82825 	or	a1,a1,t0
   12540:	24030001 	li	v1,1
   12544:	af830008 	sw	v1,8(gp)
   12548:	af451000 	sw	a1,4096(k0)
	...
   1255c:	8f8b0008 	lw	t3,8(gp)
   12560:	11600004 	beqz	t3,0x12574
   12564:	00000000 	nop
   12568:	8f441000 	lw	a0,4096(k0)
   1256c:	0481fffe 	bgez	a0,0x12568
   12570:	00000000 	nop
   12574:	8f6a0000 	lw	t2,0(k1)
   12578:	92070004 	lbu	a3,4(s0)
   1257c:	3c050800 	lui	a1,0x800
   12580:	8ca50444 	lw	a1,1092(a1)
   12584:	af8a0004 	sw	t2,4(gp)
   12588:	975f0104 	lhu	ra,260(k0)
   1258c:	3c0f0800 	lui	t7,0x800
   12590:	8def0440 	lw	t7,1088(t7)
   12594:	30e300ff 	andi	v1,a3,0xff
   12598:	33f9ffff 	andi	t9,ra,0xffff
   1259c:	0079c021 	addu	t8,v1,t9
   125a0:	00b86821 	addu	t5,a1,t8
   125a4:	00001021 	move	v0,zero
   125a8:	24e6000a 	addiu	a2,a3,10
   125ac:	30c8ffff 	andi	t0,a2,0xffff
   125b0:	01b8482b 	sltu	t1,t5,t8
   125b4:	01e27021 	addu	t6,t7,v0
   125b8:	01c96021 	addu	t4,t6,t1
   125bc:	31100007 	andi	s0,t0,0x7
   125c0:	3c010800 	lui	at,0x800
   125c4:	ac2d0444 	sw	t5,1092(at)
   125c8:	3c010800 	lui	at,0x800
   125cc:	ac2c0440 	sw	t4,1088(at)
   125d0:	12000003 	beqz	s0,0x125e0
   125d4:	8f8d0018 	lw	t5,24(gp)
   125d8:	250b0007 	addiu	t3,t0,7
   125dc:	3168fff8 	andi	t0,t3,0xfff8
   125e0:	010d7021 	addu	t6,t0,t5
   125e4:	31cc1fff 	andi	t4,t6,0x1fff
   125e8:	af8d001c 	sw	t5,28(gp)
   125ec:	af8c0018 	sw	t4,24(gp)
   125f0:	af4c0084 	sw	t4,132(k0)
   125f4:	97440104 	lhu	a0,260(k0)
   125f8:	034c8021 	addu	s0,k0,t4
   125fc:	3084ffff 	andi	a0,a0,0xffff
   12600:	30880007 	andi	t0,a0,0x7
   12604:	11000003 	beqz	t0,0x12614
   12608:	261b4000 	addiu	k1,s0,16384
   1260c:	24890007 	addiu	t1,a0,7
   12610:	3124fff8 	andi	a0,t1,0xfff8
   12614:	8f820020 	lw	v0,32(gp)
   12618:	8f850028 	lw	a1,40(gp)
   1261c:	00822021 	addu	a0,a0,v0
   12620:	0085782b 	sltu	t7,a0,a1
   12624:	15e00002 	bnez	t7,0x12630
   12628:	af820024 	sw	v0,36(gp)
   1262c:	00852023 	subu	a0,a0,a1
   12630:	03448821 	addu	s1,k0,a0
   12634:	34058000 	li	a1,0x8000
   12638:	02251021 	addu	v0,s1,a1
   1263c:	3c061000 	lui	a2,0x1000
   12640:	af840020 	sw	a0,32(gp)
   12644:	af820038 	sw	v0,56(gp)
   12648:	af440080 	sw	a0,128(k0)
   1264c:	af460178 	sw	a2,376(k0)
   12650:	0a000285 	j	0x8000a14
   12654:	8f8b0014 	lw	t3,20(gp)
   12658:	8f5f0178 	lw	ra,376(k0)
   1265c:	07e0fffe 	bltz	ra,0x12658
   12660:	30aa0200 	andi	t2,a1,0x200
   12664:	15400003 	bnez	t2,0x12674
   12668:	00054282 	srl	t0,a1,0xa
   1266c:	0000000d 	break
   12670:	00054282 	srl	t0,a1,0xa
   12674:	31020003 	andi	v0,t0,0x3
   12678:	00027100 	sll	t6,v0,0x4
   1267c:	01c26821 	addu	t5,t6,v0
   12680:	000d6080 	sll	t4,t5,0x2
   12684:	01824821 	addu	t1,t4,v0
   12688:	00092880 	sll	a1,t1,0x2
   1268c:	00b38021 	addu	s0,a1,s3
   12690:	8e0b0000 	lw	t3,0(s0)
   12694:	11600002 	beqz	t3,0x126a0
   12698:	00000000 	nop
   1269c:	0000000d 	break
   126a0:	8f6f000c 	lw	t7,12(k1)
   126a4:	05e001f3 	bltz	t7,0x12e74
   126a8:	8f870038 	lw	a3,56(gp)
   126ac:	24190001 	li	t9,1
   126b0:	ae190000 	sw	t9,0(s0)
   126b4:	8ce30008 	lw	v1,8(a3)
   126b8:	a2000007 	sb	zero,7(s0)
   126bc:	8f780004 	lw	t8,4(k1)
   126c0:	00181c02 	srl	v1,t8,0x10
   126c4:	306600ff 	andi	a2,v1,0xff
   126c8:	24d10005 	addiu	s1,a2,5
   126cc:	00113082 	srl	a2,s1,0x2
   126d0:	2cc40041 	sltiu	a0,a2,65
   126d4:	14800002 	bnez	a0,0x126e0
   126d8:	a2030004 	sb	v1,4(s0)
   126dc:	0000000d 	break
   126e0:	8f6b0004 	lw	t3,4(k1)
   126e4:	3c0effff 	lui	t6,0xffff
   126e8:	00e02821 	move	a1,a3
   126ec:	3164ffff 	andi	a0,t3,0xffff
   126f0:	248f000b 	addiu	t7,a0,11
   126f4:	000f4082 	srl	t0,t7,0x2
   126f8:	00081080 	sll	v0,t0,0x2
   126fc:	00474821 	addu	t1,v0,a3
   12700:	8d2d0000 	lw	t5,0(t1)
   12704:	26040014 	addiu	a0,s0,20
   12708:	a60b0008 	sh	t3,8(s0)
   1270c:	01ae6024 	and	t4,t5,t6
   12710:	0e000580 	jal	0x8001600
   12714:	ad2c0000 	sw	t4,0(t1)
   12718:	8f5f0108 	lw	ra,264(k0)
   1271c:	3c0a1000 	lui	t2,0x1000
   12720:	03ea3824 	and	a3,ra,t2
   12724:	10e001a3 	beqz	a3,0x12db4
   12728:	00000000 	nop
   1272c:	97460104 	lhu	a2,260(k0)
   12730:	92030007 	lbu	v1,7(s0)
   12734:	24d1ffec 	addiu	s1,a2,-20
   12738:	34650002 	ori	a1,v1,0x2
   1273c:	3224ffff 	andi	a0,s1,0xffff
   12740:	a2050007 	sb	a1,7(s0)
   12744:	96060008 	lhu	a2,8(s0)
   12748:	2cc70013 	sltiu	a3,a2,19
   1274c:	54e00005 	bnezl	a3,0x12764
   12750:	92030007 	lbu	v1,7(s0)
   12754:	920a0007 	lbu	t2,7(s0)
   12758:	355f0001 	ori	ra,t2,0x1
   1275c:	a21f0007 	sb	ra,7(s0)
   12760:	92030007 	lbu	v1,7(s0)
   12764:	240b0001 	li	t3,1
   12768:	106b01ba 	beq	v1,t3,0x12e54
   1276c:	24090003 	li	t1,3
   12770:	106901cd 	beq	v1,t1,0x12ea8
   12774:	8f880038 	lw	t0,56(gp)
   12778:	30cfffff 	andi	t7,a2,0xffff
   1277c:	25e40002 	addiu	a0,t7,2
   12780:	0004c883 	sra	t9,a0,0x2
   12784:	333f00ff 	andi	ra,t9,0xff
   12788:	001f2880 	sll	a1,ra,0x2
   1278c:	a2190005 	sb	t9,5(s0)
   12790:	00a85821 	addu	t3,a1,t0
   12794:	8d780000 	lw	t8,0(t3)
   12798:	97510104 	lhu	s1,260(k0)
   1279c:	3c03ffff 	lui	v1,0xffff
   127a0:	03036024 	and	t4,t8,v1
   127a4:	3222ffff 	andi	v0,s1,0xffff
   127a8:	004f7023 	subu	t6,v0,t7
   127ac:	25cdfffe 	addiu	t5,t6,-2
   127b0:	018d4825 	or	t1,t4,t5
   127b4:	ad690000 	sw	t1,0(t3)
   127b8:	92060005 	lbu	a2,5(s0)
   127bc:	3c02fff6 	lui	v0,0xfff6
   127c0:	344effff 	ori	t6,v0,0xffff
   127c4:	30ca00ff 	andi	t2,a2,0xff
   127c8:	000a3880 	sll	a3,t2,0x2
   127cc:	00f02021 	addu	a0,a3,s0
   127d0:	90990014 	lbu	t9,20(a0)
   127d4:	3c1fff7f 	lui	ra,0xff7f
   127d8:	37e7ffff 	ori	a3,ra,0xffff
   127dc:	3323000f 	andi	v1,t9,0xf
   127e0:	00667821 	addu	t7,v1,a2
   127e4:	31f800ff 	andi	t8,t7,0xff
   127e8:	00182880 	sll	a1,t8,0x2
   127ec:	00b08821 	addu	s1,a1,s0
   127f0:	8e2d0020 	lw	t5,32(s1)
   127f4:	00a86021 	addu	t4,a1,t0
   127f8:	a20f0006 	sb	t7,6(s0)
   127fc:	01ae4824 	and	t1,t5,t6
   12800:	ae0d000c 	sw	t5,12(s0)
   12804:	ad89000c 	sw	t1,12(t4)
   12808:	920b0006 	lbu	t3,6(s0)
   1280c:	8e04000c 	lw	a0,12(s0)
   12810:	0127f824 	and	ra,t1,a3
   12814:	000b5080 	sll	t2,t3,0x2
   12818:	0150c821 	addu	t9,t2,s0
   1281c:	97260026 	lhu	a2,38(t9)
   12820:	0148c021 	addu	t8,t2,t0
   12824:	00874024 	and	t0,a0,a3
   12828:	af260024 	sw	a2,36(t9)
   1282c:	ae08000c 	sw	t0,12(s0)
   12830:	af3f0020 	sw	ra,32(t9)
   12834:	af060010 	sw	a2,16(t8)
   12838:	8f860000 	lw	a2,0(gp)
   1283c:	240c0010 	li	t4,16
   12840:	24090002 	li	t1,2
   12844:	a74c0140 	sh	t4,320(k0)
   12848:	a7400142 	sh	zero,322(k0)
   1284c:	a7400144 	sh	zero,324(k0)
   12850:	a7490146 	sh	t1,326(k0)
   12854:	974b0104 	lhu	t3,260(k0)
   12858:	24070001 	li	a3,1
   1285c:	30c80002 	andi	t0,a2,0x2
   12860:	256afffe 	addiu	t2,t3,-2
   12864:	a74a0148 	sh	t2,328(k0)
   12868:	3c050009 	lui	a1,0x9
   1286c:	a747014a 	sh	a3,330(k0)
   12870:	11000003 	beqz	t0,0x12880
   12874:	00001821 	move	v1,zero
   12878:	3c050109 	lui	a1,0x109
   1287c:	24030001 	li	v1,1
   12880:	30cd0004 	andi	t5,a2,0x4
   12884:	51a00005 	beqzl	t5,0x1289c
   12888:	af830008 	sw	v1,8(gp)
   1288c:	3c060010 	lui	a2,0x10
   12890:	00a62825 	or	a1,a1,a2
   12894:	24030001 	li	v1,1
   12898:	af830008 	sw	v1,8(gp)
   1289c:	af451000 	sw	a1,4096(k0)
	...
   128b0:	92180004 	lbu	t8,4(s0)
   128b4:	27110002 	addiu	s1,t8,2
   128b8:	322f0007 	andi	t7,s1,0x7
   128bc:	000f1023 	negu	v0,t7
   128c0:	304e0007 	andi	t6,v0,0x7
   128c4:	ae0e0010 	sw	t6,16(s0)
   128c8:	8f900008 	lw	s0,8(gp)
   128cc:	12000004 	beqz	s0,0x128e0
   128d0:	00000000 	nop
   128d4:	8f431000 	lw	v1,4096(k0)
   128d8:	0461fffe 	bgez	v1,0x128d4
   128dc:	00000000 	nop
   128e0:	8f780000 	lw	t8,0(k1)
   128e4:	8f8f0018 	lw	t7,24(gp)
   128e8:	3c100800 	lui	s0,0x800
   128ec:	8e100444 	lw	s0,1092(s0)
   128f0:	af980004 	sw	t8,4(gp)
   128f4:	97510104 	lhu	s1,260(k0)
   128f8:	25e60010 	addiu	a2,t7,16
   128fc:	30ca1fff 	andi	t2,a2,0x1fff
   12900:	3222ffff 	andi	v0,s1,0xffff
   12904:	af8f001c 	sw	t7,28(gp)
   12908:	af8a0018 	sw	t2,24(gp)
   1290c:	af4a0084 	sw	t2,132(k0)
   12910:	2449fffe 	addiu	t1,v0,-2
   12914:	3c0b0800 	lui	t3,0x800
   12918:	8d6b0440 	lw	t3,1088(t3)
   1291c:	974e0104 	lhu	t6,260(k0)
   12920:	01206821 	move	t5,t1
   12924:	000967c3 	sra	t4,t1,0x1f
   12928:	020d2821 	addu	a1,s0,t5
   1292c:	31c9ffff 	andi	t1,t6,0xffff
   12930:	00ad402b 	sltu	t0,a1,t5
   12934:	016c3821 	addu	a3,t3,t4
   12938:	00e82021 	addu	a0,a3,t0
   1293c:	034af821 	addu	ra,k0,t2
   12940:	31390007 	andi	t9,t1,0x7
   12944:	3c010800 	lui	at,0x800
   12948:	ac250444 	sw	a1,1092(at)
   1294c:	3c010800 	lui	at,0x800
   12950:	ac240440 	sw	a0,1088(at)
   12954:	13200003 	beqz	t9,0x12964
   12958:	27fb4000 	addiu	k1,ra,16384
   1295c:	25230007 	addiu	v1,t1,7
   12960:	3069fff8 	andi	t1,v1,0xfff8
   12964:	8f9f0020 	lw	ra,32(gp)
   12968:	8f840028 	lw	a0,40(gp)
   1296c:	013f3821 	addu	a3,t1,ra
   12970:	00e4c82b 	sltu	t9,a3,a0
   12974:	17200002 	bnez	t9,0x12980
   12978:	af9f0024 	sw	ra,36(gp)
   1297c:	00e43823 	subu	a3,a3,a0
   12980:	03472021 	addu	a0,k0,a3
   12984:	34058000 	li	a1,0x8000
   12988:	00851021 	addu	v0,a0,a1
   1298c:	3c061000 	lui	a2,0x1000
   12990:	af870020 	sw	a3,32(gp)
   12994:	af820038 	sw	v0,56(gp)
   12998:	af470080 	sw	a3,128(k0)
   1299c:	af460178 	sw	a2,376(k0)
   129a0:	0a000285 	j	0x8000a14
   129a4:	8f8b0014 	lw	t3,20(gp)
   129a8:	97580104 	lhu	t8,260(k0)
   129ac:	1300fdc2 	beqz	t8,0x120b8
   129b0:	3c104000 	lui	s0,0x4000
   129b4:	8f430178 	lw	v1,376(k0)
   129b8:	0460fffe 	bltz	v1,0x129b4
   129bc:	30b94000 	andi	t9,a1,0x4000
   129c0:	13200003 	beqz	t9,0x129d0
   129c4:	3c040008 	lui	a0,0x8
   129c8:	0000000d 	break
   129cc:	3c040008 	lui	a0,0x8
   129d0:	af440140 	sw	a0,320(k0)
   129d4:	24080800 	li	t0,2048
   129d8:	af480178 	sw	t0,376(k0)
   129dc:	8f8b0000 	lw	t3,0(gp)
   129e0:	974a0104 	lhu	t2,260(k0)
   129e4:	317f0001 	andi	ra,t3,0x1
   129e8:	13e000e9 	beqz	ra,0x12d90
   129ec:	3146ffff 	andi	a2,t2,0xffff
   129f0:	24d0fffe 	addiu	s0,a2,-2
   129f4:	240c0002 	li	t4,2
   129f8:	a74c0146 	sh	t4,326(k0)
   129fc:	a7500148 	sh	s0,328(k0)
   12a00:	8f8f0018 	lw	t7,24(gp)
   12a04:	2405000d 	li	a1,13
   12a08:	a745014a 	sh	a1,330(k0)
   12a0c:	8f710000 	lw	s1,0(k1)
   12a10:	25e20008 	addiu	v0,t7,8
   12a14:	30491fff 	andi	t1,v0,0x1fff
   12a18:	03497021 	addu	t6,k0,t1
   12a1c:	30cd0007 	andi	t5,a2,0x7
   12a20:	af910004 	sw	s1,4(gp)
   12a24:	af8f001c 	sw	t7,28(gp)
   12a28:	af890018 	sw	t1,24(gp)
   12a2c:	00c03821 	move	a3,a2
   12a30:	af490084 	sw	t1,132(k0)
   12a34:	11a00003 	beqz	t5,0x12a44
   12a38:	25db4000 	addiu	k1,t6,16384
   12a3c:	24c60007 	addiu	a2,a2,7
   12a40:	30c7fff8 	andi	a3,a2,0xfff8
   12a44:	8f980020 	lw	t8,32(gp)
   12a48:	8f840028 	lw	a0,40(gp)
   12a4c:	00f83021 	addu	a2,a3,t8
   12a50:	00c4382b 	sltu	a3,a2,a0
   12a54:	14e00002 	bnez	a3,0x12a60
   12a58:	af980024 	sw	t8,36(gp)
   12a5c:	00c43023 	subu	a2,a2,a0
   12a60:	8f8a0014 	lw	t2,20(gp)
   12a64:	03465821 	addu	t3,k0,a2
   12a68:	34088000 	li	t0,0x8000
   12a6c:	0168f821 	addu	ra,t3,t0
   12a70:	25590001 	addiu	t9,t2,1
   12a74:	3c031000 	lui	v1,0x1000
   12a78:	3c104000 	lui	s0,0x4000
   12a7c:	af860020 	sw	a2,32(gp)
   12a80:	af9f0038 	sw	ra,56(gp)
   12a84:	af460080 	sw	a2,128(k0)
   12a88:	af430178 	sw	v1,376(k0)
   12a8c:	af990014 	sw	t9,20(gp)
   12a90:	af500138 	sw	s0,312(k0)
   12a94:	0a000190 	j	0x8000640
   12a98:	00000000 	nop
   12a9c:	8f690000 	lw	t1,0(k1)
   12aa0:	97440104 	lhu	a0,260(k0)
   12aa4:	3127ffff 	andi	a3,t1,0xffff
   12aa8:	3088ffff 	andi	t0,a0,0xffff
   12aac:	8f4f0178 	lw	t7,376(k0)
   12ab0:	05e0fffe 	bltz	t7,0x12aac
   12ab4:	30ff0007 	andi	ra,a3,0x7
   12ab8:	001f1823 	negu	v1,ra
   12abc:	30780007 	andi	t8,v1,0x7
   12ac0:	24e6fffe 	addiu	a2,a3,-2
   12ac4:	2419000a 	li	t9,10
   12ac8:	a7590140 	sh	t9,320(k0)
   12acc:	a7580142 	sh	t8,322(k0)
   12ad0:	a7460144 	sh	a2,324(k0)
   12ad4:	a7400146 	sh	zero,326(k0)
   12ad8:	a7480148 	sh	t0,328(k0)
   12adc:	8f420108 	lw	v0,264(k0)
   12ae0:	30510020 	andi	s1,v0,0x20
   12ae4:	16200002 	bnez	s1,0x12af0
   12ae8:	24030009 	li	v1,9
   12aec:	24030001 	li	v1,1
   12af0:	30aa0002 	andi	t2,a1,0x2
   12af4:	a743014a 	sh	v1,330(k0)
   12af8:	3c040041 	lui	a0,0x41
   12afc:	11400003 	beqz	t2,0x12b0c
   12b00:	00001821 	move	v1,zero
   12b04:	3c040141 	lui	a0,0x141
   12b08:	24030001 	li	v1,1
   12b0c:	30ab0004 	andi	t3,a1,0x4
   12b10:	51600005 	beqzl	t3,0x12b28
   12b14:	af830008 	sw	v1,8(gp)
   12b18:	3c050010 	lui	a1,0x10
   12b1c:	00852025 	or	a0,a0,a1
   12b20:	24030001 	li	v1,1
   12b24:	af830008 	sw	v1,8(gp)
   12b28:	af441000 	sw	a0,4096(k0)
	...
   12b3c:	8f900008 	lw	s0,8(gp)
   12b40:	12000004 	beqz	s0,0x12b54
   12b44:	00000000 	nop
   12b48:	8f4c1000 	lw	t4,4096(k0)
   12b4c:	0581fffe 	bgez	t4,0x12b48
   12b50:	00000000 	nop
   12b54:	8f780000 	lw	t8,0(k1)
   12b58:	27620008 	addiu	v0,k1,8
   12b5c:	8f8d003c 	lw	t5,60(gp)
   12b60:	af980004 	sw	t8,4(gp)
   12b64:	94460008 	lhu	a2,8(v0)
   12b68:	9451000a 	lhu	s1,10(v0)
   12b6c:	944f000c 	lhu	t7,12(v0)
   12b70:	30ceffff 	andi	t6,a2,0xffff
   12b74:	00112400 	sll	a0,s1,0x10
   12b78:	31e9ffff 	andi	t1,t7,0xffff
   12b7c:	11cd00a2 	beq	t6,t5,0x12e08
   12b80:	00892025 	or	a0,a0,t1
   12b84:	3c030800 	lui	v1,0x800
   12b88:	8c630444 	lw	v1,1092(v1)
   12b8c:	3c180800 	lui	t8,0x800
   12b90:	8f180440 	lw	t8,1088(t8)
   12b94:	00e85021 	addu	t2,a3,t0
   12b98:	255ffffe 	addiu	ra,t2,-2
   12b9c:	007f7821 	addu	t7,v1,ra
   12ba0:	00001021 	move	v0,zero
   12ba4:	01ff302b 	sltu	a2,t7,ra
   12ba8:	03028821 	addu	s1,t8,v0
   12bac:	02264821 	addu	t1,s1,a2
   12bb0:	3c010800 	lui	at,0x800
   12bb4:	ac2f0444 	sw	t7,1092(at)
   12bb8:	3c010800 	lui	at,0x800
   12bbc:	ac290440 	sw	t1,1088(at)
   12bc0:	24eb0008 	addiu	t3,a3,8
   12bc4:	3162ffff 	andi	v0,t3,0xffff
   12bc8:	30470007 	andi	a3,v0,0x7
   12bcc:	10e00003 	beqz	a3,0x12bdc
   12bd0:	8f850018 	lw	a1,24(gp)
   12bd4:	24500007 	addiu	s0,v0,7
   12bd8:	3202fff8 	andi	v0,s0,0xfff8
   12bdc:	3106ffff 	andi	a2,t0,0xffff
   12be0:	30c80007 	andi	t0,a2,0x7
   12be4:	00457021 	addu	t6,v0,a1
   12be8:	31cd1fff 	andi	t5,t6,0x1fff
   12bec:	034d6021 	addu	t4,k0,t5
   12bf0:	af85001c 	sw	a1,28(gp)
   12bf4:	af8d0018 	sw	t5,24(gp)
   12bf8:	259b4000 	addiu	k1,t4,16384
   12bfc:	af4d0084 	sw	t5,132(k0)
   12c00:	11000003 	beqz	t0,0x12c10
   12c04:	8f8f0020 	lw	t7,32(gp)
   12c08:	24c40007 	addiu	a0,a2,7
   12c0c:	3086fff8 	andi	a2,a0,0xfff8
   12c10:	8f840028 	lw	a0,40(gp)
   12c14:	00cf2821 	addu	a1,a2,t7
   12c18:	00a4482b 	sltu	t1,a1,a0
   12c1c:	15200002 	bnez	t1,0x12c28
   12c20:	af8f0024 	sw	t7,36(gp)
   12c24:	00a42823 	subu	a1,a1,a0
   12c28:	af850020 	sw	a1,32(gp)
   12c2c:	af450080 	sw	a1,128(k0)
   12c30:	3c110800 	lui	s1,0x800
   12c34:	8e310434 	lw	s1,1076(s1)
   12c38:	0345c021 	addu	t8,k0,a1
   12c3c:	34028000 	li	v0,0x8000
   12c40:	03023021 	addu	a2,t8,v0
   12c44:	12200005 	beqz	s1,0x12c5c
   12c48:	af860038 	sw	a2,56(gp)
   12c4c:	93830017 	lbu	v1,23(gp)
   12c50:	2419000e 	li	t9,14
   12c54:	1079000d 	beq	v1,t9,0x12c8c
   12c58:	241f043f 	li	ra,1087
   12c5c:	3c0a1000 	lui	t2,0x1000
   12c60:	af4a0178 	sw	t2,376(k0)
   12c64:	8f8b0014 	lw	t3,20(gp)
   12c68:	25670001 	addiu	a3,t3,1
   12c6c:	0a0001dd 	j	0x8000774
   12c70:	af870014 	sw	a3,20(gp)
   12c74:	0e0005a6 	jal	0x8001698
   12c78:	3c104000 	lui	s0,0x4000
   12c7c:	8f8b0014 	lw	t3,20(gp)
   12c80:	25670001 	addiu	a3,t3,1
   12c84:	0a0001de 	j	0x8000778
   12c88:	af870014 	sw	a3,20(gp)
   12c8c:	3c0a1000 	lui	t2,0x1000
   12c90:	a75f0148 	sh	ra,328(k0)
   12c94:	af4a0178 	sw	t2,376(k0)
   12c98:	0a0004b4 	j	0x80012d0
   12c9c:	8f8b0014 	lw	t3,20(gp)
   12ca0:	240e0f00 	li	t6,3840
   12ca4:	11ee003d 	beq	t7,t6,0x12d9c
   12ca8:	30d10020 	andi	s1,a2,0x20
   12cac:	16200002 	bnez	s1,0x12cb8
   12cb0:	24030009 	li	v1,9
   12cb4:	24030001 	li	v1,1
   12cb8:	0a000208 	j	0x8000820
   12cbc:	a743014a 	sh	v1,330(k0)
   12cc0:	0a0001fb 	j	0x80007ec
   12cc4:	a7400146 	sh	zero,326(k0)
   12cc8:	94e50008 	lhu	a1,8(a3)
   12ccc:	94e2000a 	lhu	v0,10(a3)
   12cd0:	94eb000c 	lhu	t3,12(a3)
   12cd4:	8f86003c 	lw	a2,60(gp)
   12cd8:	0002fc00 	sll	ra,v0,0x10
   12cdc:	316affff 	andi	t2,t3,0xffff
   12ce0:	30b9ffff 	andi	t9,a1,0xffff
   12ce4:	13260037 	beq	t9,a2,0x12dc4
   12ce8:	03ea2025 	or	a0,ra,t2
   12cec:	3c050800 	lui	a1,0x800
   12cf0:	8ca50444 	lw	a1,1092(a1)
   12cf4:	3c1f0800 	lui	ra,0x800
   12cf8:	8fff0440 	lw	ra,1088(ra)
   12cfc:	00005021 	move	t2,zero
   12d00:	00a83821 	addu	a3,a1,t0
   12d04:	00e8302b 	sltu	a2,a3,t0
   12d08:	03eac821 	addu	t9,ra,t2
   12d0c:	0326c021 	addu	t8,t9,a2
   12d10:	3c010800 	lui	at,0x800
   12d14:	ac270444 	sw	a3,1092(at)
   12d18:	3c010800 	lui	at,0x800
   12d1c:	ac380440 	sw	t8,1088(at)
   12d20:	0a000269 	j	0x80009a4
   12d24:	8f8d0018 	lw	t5,24(gp)
   12d28:	3c190800 	lui	t9,0x800
   12d2c:	8f39047c 	lw	t9,1148(t9)
   12d30:	3c030800 	lui	v1,0x800
   12d34:	8c630454 	lw	v1,1108(v1)
   12d38:	3c060800 	lui	a2,0x800
   12d3c:	8cc60478 	lw	a2,1144(a2)
   12d40:	3c0f0800 	lui	t7,0x800
   12d44:	8def0450 	lw	t7,1104(t7)
   12d48:	03283821 	addu	a3,t9,t0
   12d4c:	00686821 	addu	t5,v1,t0
   12d50:	00e8c02b 	sltu	t8,a3,t0
   12d54:	00c48821 	addu	s1,a2,a0
   12d58:	01a8402b 	sltu	t0,t5,t0
   12d5c:	01e47021 	addu	t6,t7,a0
   12d60:	02385821 	addu	t3,s1,t8
   12d64:	01c86021 	addu	t4,t6,t0
   12d68:	3c010800 	lui	at,0x800
   12d6c:	ac2d0454 	sw	t5,1108(at)
   12d70:	3c010800 	lui	at,0x800
   12d74:	ac2c0450 	sw	t4,1104(at)
   12d78:	3c010800 	lui	at,0x800
   12d7c:	ac27047c 	sw	a3,1148(at)
   12d80:	3c010800 	lui	at,0x800
   12d84:	ac2b0478 	sw	t3,1144(at)
   12d88:	0a000269 	j	0x80009a4
   12d8c:	8f8d0018 	lw	t5,24(gp)
   12d90:	a7400146 	sh	zero,326(k0)
   12d94:	0a00041b 	j	0x800106c
   12d98:	8f8f0018 	lw	t7,24(gp)
   12d9c:	30d00020 	andi	s0,a2,0x20
   12da0:	1600ffc5 	bnez	s0,0x12cb8
   12da4:	2403000d 	li	v1,13
   12da8:	24030005 	li	v1,5
   12dac:	0a000208 	j	0x8000820
   12db0:	a743014a 	sh	v1,330(k0)
   12db4:	97590104 	lhu	t9,260(k0)
   12db8:	2738fff0 	addiu	t8,t9,-16
   12dbc:	0a00036b 	j	0x8000dac
   12dc0:	3304ffff 	andi	a0,t8,0xffff
   12dc4:	8f8c0040 	lw	t4,64(gp)
   12dc8:	148cffc8 	bne	a0,t4,0x12cec
   12dcc:	00008021 	move	s0,zero
   12dd0:	3c110800 	lui	s1,0x800
   12dd4:	8e31046c 	lw	s1,1132(s1)
   12dd8:	3c040800 	lui	a0,0x800
   12ddc:	8c840468 	lw	a0,1128(a0)
   12de0:	02287021 	addu	t6,s1,t0
   12de4:	01c8782b 	sltu	t7,t6,t0
   12de8:	00904021 	addu	t0,a0,s0
   12dec:	010f6821 	addu	t5,t0,t7
   12df0:	3c010800 	lui	at,0x800
   12df4:	ac2e046c 	sw	t6,1132(at)
   12df8:	3c010800 	lui	at,0x800
   12dfc:	ac2d0468 	sw	t5,1128(at)
   12e00:	0a000269 	j	0x80009a4
   12e04:	8f8d0018 	lw	t5,24(gp)
   12e08:	8f990040 	lw	t9,64(gp)
   12e0c:	1499ff5d 	bne	a0,t9,0x12b84
   12e10:	00006021 	move	t4,zero
   12e14:	3c050800 	lui	a1,0x800
   12e18:	8ca5046c 	lw	a1,1132(a1)
   12e1c:	3c100800 	lui	s0,0x800
   12e20:	8e100468 	lw	s0,1128(s0)
   12e24:	00e82021 	addu	a0,a3,t0
   12e28:	248efffe 	addiu	t6,a0,-2
   12e2c:	00aef821 	addu	ra,a1,t6
   12e30:	03ee582b 	sltu	t3,ra,t6
   12e34:	020c5021 	addu	t2,s0,t4
   12e38:	014b1821 	addu	v1,t2,t3
   12e3c:	3c010800 	lui	at,0x800
   12e40:	ac3f046c 	sw	ra,1132(at)
   12e44:	3c010800 	lui	at,0x800
   12e48:	ac230468 	sw	v1,1128(at)
   12e4c:	0a00048b 	j	0x800122c
   12e50:	24eb0008 	addiu	t3,a3,8
   12e54:	8f880038 	lw	t0,56(gp)
   12e58:	3c02ffff 	lui	v0,0xffff
   12e5c:	8d0e000c 	lw	t6,12(t0)
   12e60:	01c26824 	and	t5,t6,v0
   12e64:	01a46025 	or	t4,t5,a0
   12e68:	ad0c000c 	sw	t4,12(t0)
   12e6c:	0a000379 	j	0x8000de4
   12e70:	30cfffff 	andi	t7,a2,0xffff
   12e74:	0a0003a9 	j	0x8000ea4
   12e78:	ae000000 	sw	zero,0(s0)
   12e7c:	974b0104 	lhu	t3,260(k0)
   12e80:	92040004 	lbu	a0,4(s0)
   12e84:	8e2a000c 	lw	t2,12(s1)
   12e88:	01644021 	addu	t0,t3,a0
   12e8c:	251ffff2 	addiu	ra,t0,-14
   12e90:	01471824 	and	v1,t2,a3
   12e94:	33f9ffff 	andi	t9,ra,0xffff
   12e98:	0079c025 	or	t8,v1,t9
   12e9c:	ae38000c 	sw	t8,12(s1)
   12ea0:	0a0002d4 	j	0x8000b50
   12ea4:	8e190010 	lw	t9,16(s0)
   12ea8:	3c03ffff 	lui	v1,0xffff
   12eac:	8d110010 	lw	s1,16(t0)
   12eb0:	02232824 	and	a1,s1,v1
   12eb4:	00a47825 	or	t7,a1,a0
   12eb8:	ad0f0010 	sw	t7,16(t0)
   12ebc:	0a000379 	j	0x8000de4
   12ec0:	30cfffff 	andi	t7,a2,0xffff
   12ec4:	97450104 	lhu	a1,260(k0)
   12ec8:	92060004 	lbu	a2,4(s0)
   12ecc:	8e2f0010 	lw	t7,16(s1)
   12ed0:	00a61021 	addu	v0,a1,a2
   12ed4:	2449ffee 	addiu	t1,v0,-18
   12ed8:	01e76824 	and	t5,t7,a3
   12edc:	312effff 	andi	t6,t1,0xffff
   12ee0:	01ae6025 	or	t4,t5,t6
   12ee4:	ae2c0010 	sw	t4,16(s1)
   12ee8:	0a0002d4 	j	0x8000b50
   12eec:	8e190010 	lw	t9,16(s0)
   12ef0:	8e06000c 	lw	a2,12(s0)
   12ef4:	ae000000 	sw	zero,0(s0)
   12ef8:	0003c080 	sll	t8,v1,0x2
   12efc:	03108821 	addu	s1,t8,s0
   12f00:	0a0002a6 	j	0x8000a98
   12f04:	ae260020 	sw	a2,32(s1)
   12f08:	1460000d 	bnez	v1,0x12f40
   12f0c:	3050ffff 	andi	s0,v0,0xffff
   12f10:	3c04ffff 	lui	a0,0xffff
   12f14:	00446024 	and	t4,v0,a0
   12f18:	01846826 	xor	t5,t4,a0
   12f1c:	000d582b 	sltu	t3,zero,t5
   12f20:	000c502b 	sltu	t2,zero,t4
   12f24:	014b1024 	and	v0,t2,t3
   12f28:	10400002 	beqz	v0,0x12f34
   12f2c:	00000000 	nop
   12f30:	0000000d 	break
   12f34:	8ca30000 	lw	v1,0(a1)
   12f38:	0a00023e 	j	0x80008f8
   12f3c:	00641025 	or	v0,v1,a0
   12f40:	3a11ffff 	xori	s1,s0,0xffff
   12f44:	0011782b 	sltu	t7,zero,s1
   12f48:	0010702b 	sltu	t6,zero,s0
   12f4c:	01cf2024 	and	a0,t6,t7
   12f50:	10800002 	beqz	a0,0x12f5c
   12f54:	00000000 	nop
   12f58:	0000000d 	break
   12f5c:	8cb80000 	lw	t8,0(a1)
   12f60:	0a00023e 	j	0x80008f8
   12f64:	3702ffff 	ori	v0,t8,0xffff
   12f68:	3084ffff 	andi	a0,a0,0xffff
   12f6c:	30a5ffff 	andi	a1,a1,0xffff
   12f70:	10800007 	beqz	a0,0x12f90
   12f74:	00001821 	move	v1,zero
   12f78:	30820001 	andi	v0,a0,0x1
   12f7c:	10400002 	beqz	v0,0x12f88
   12f80:	00042042 	srl	a0,a0,0x1
   12f84:	00651821 	addu	v1,v1,a1
   12f88:	1480fffb 	bnez	a0,0x12f78
   12f8c:	00052840 	sll	a1,a1,0x1
   12f90:	03e00008 	jr	ra
   12f94:	00601021 	move	v0,v1
   12f98:	10c00007 	beqz	a2,0x12fb8
   12f9c:	00000000 	nop
   12fa0:	8ca20000 	lw	v0,0(a1)
   12fa4:	24c6ffff 	addiu	a2,a2,-1
   12fa8:	24a50004 	addiu	a1,a1,4
   12fac:	ac820000 	sw	v0,0(a0)
   12fb0:	14c0fffb 	bnez	a2,0x12fa0
   12fb4:	24840004 	addiu	a0,a0,4
   12fb8:	03e00008 	jr	ra
   12fbc:	00000000 	nop
   12fc0:	10a00008 	beqz	a1,0x12fe4
   12fc4:	24a3ffff 	addiu	v1,a1,-1
   12fc8:	ac860000 	sw	a2,0(a0)
	...
   12fd4:	2402ffff 	li	v0,-1
   12fd8:	2463ffff 	addiu	v1,v1,-1
   12fdc:	1462fffa 	bne	v1,v0,0x12fc8
   12fe0:	24840004 	addiu	a0,a0,4
   12fe4:	03e00008 	jr	ra
   12fe8:	00000000 	nop
   12fec:	308effff 	andi	t6,a0,0xffff
   12ff0:	30d8ffff 	andi	t8,a2,0xffff
   12ff4:	00057c00 	sll	t7,a1,0x10
   12ff8:	01f86025 	or	t4,t7,t8
   12ffc:	39cdffff 	xori	t5,t6,0xffff
   13000:	01ac5021 	addu	t2,t5,t4
   13004:	014c582b 	sltu	t3,t2,t4
   13008:	014b4821 	addu	t1,t2,t3
   1300c:	00094402 	srl	t0,t1,0x10
   13010:	3127ffff 	andi	a3,t1,0xffff
   13014:	00e83021 	addu	a2,a3,t0
   13018:	00062402 	srl	a0,a2,0x10
   1301c:	30c5ffff 	andi	a1,a2,0xffff
   13020:	00a41821 	addu	v1,a1,a0
   13024:	3862ffff 	xori	v0,v1,0xffff
   13028:	03e00008 	jr	ra
   1302c:	3042ffff 	andi	v0,v0,0xffff
   13030:	3c0c0800 	lui	t4,0x800
   13034:	8d8c0484 	lw	t4,1156(t4)
   13038:	240bff80 	li	t3,-128
   1303c:	27bdffd0 	addiu	sp,sp,-48
   13040:	01845021 	addu	t2,t4,a0
   13044:	014b4824 	and	t1,t2,t3
   13048:	af490020 	sw	t1,32(k0)
   1304c:	3c080800 	lui	t0,0x800
   13050:	8d080484 	lw	t0,1156(t0)
   13054:	afb20020 	sw	s2,32(sp)
   13058:	afb00018 	sw	s0,24(sp)
   1305c:	afbf0028 	sw	ra,40(sp)
   13060:	afb30024 	sw	s3,36(sp)
   13064:	afb1001c 	sw	s1,28(sp)
   13068:	93660004 	lbu	a2,4(k1)
   1306c:	01043821 	addu	a3,t0,a0
   13070:	30e4007f 	andi	a0,a3,0x7f
   13074:	009a1021 	addu	v0,a0,k0
   13078:	3c030008 	lui	v1,0x8
   1307c:	00439021 	addu	s2,v0,v1
   13080:	30c50020 	andi	a1,a2,0x20
   13084:	03608021 	move	s0,k1
   13088:	3c080111 	lui	t0,0x111
   1308c:	277b0008 	addiu	k1,k1,8
   13090:	14a00002 	bnez	a1,0x1309c
   13094:	26460070 	addiu	a2,s2,112
   13098:	2646006c 	addiu	a2,s2,108
   1309c:	92130004 	lbu	s3,4(s0)
   130a0:	97510104 	lhu	s1,260(k0)
   130a4:	920f0004 	lbu	t7,4(s0)
   130a8:	3267000f 	andi	a3,s3,0xf
   130ac:	322effff 	andi	t6,s1,0xffff
   130b0:	31ed0040 	andi	t5,t7,0x40
   130b4:	01c72823 	subu	a1,t6,a3
   130b8:	11a00005 	beqz	t5,0x130d0
   130bc:	00004821 	move	t1,zero
   130c0:	925900bc 	lbu	t9,188(s2)
   130c4:	33380004 	andi	t8,t9,0x4
   130c8:	17000090 	bnez	t8,0x1330c
   130cc:	00000000 	nop
   130d0:	924300bc 	lbu	v1,188(s2)
   130d4:	307f0004 	andi	ra,v1,0x4
   130d8:	13e0000f 	beqz	ra,0x13118
   130dc:	00000000 	nop
   130e0:	10a0000d 	beqz	a1,0x13118
   130e4:	00000000 	nop
   130e8:	960e0002 	lhu	t6,2(s0)
   130ec:	240aff80 	li	t2,-128
   130f0:	00a76021 	addu	t4,a1,a3
   130f4:	25cdfffe 	addiu	t5,t6,-2
   130f8:	a74d1016 	sh	t5,4118(k0)
   130fc:	920b0004 	lbu	t3,4(s0)
   13100:	014b2024 	and	a0,t2,t3
   13104:	308200ff 	andi	v0,a0,0xff
   13108:	10400085 	beqz	v0,0x13320
   1310c:	010c4025 	or	t0,t0,t4
   13110:	3c0f0400 	lui	t7,0x400
   13114:	010f4025 	or	t0,t0,t7
   13118:	8f530178 	lw	s3,376(k0)
   1311c:	0660fffe 	bltz	s3,0x13118
   13120:	2404000a 	li	a0,10
   13124:	a7440140 	sh	a0,320(k0)
   13128:	960d0002 	lhu	t5,2(s0)
   1312c:	24040009 	li	a0,9
   13130:	31ac0007 	andi	t4,t5,0x7
   13134:	000c5823 	negu	t3,t4
   13138:	316a0007 	andi	t2,t3,0x7
   1313c:	a74a0142 	sh	t2,322(k0)
   13140:	96020002 	lhu	v0,2(s0)
   13144:	2443fffe 	addiu	v1,v0,-2
   13148:	a7430144 	sh	v1,324(k0)
   1314c:	a7400146 	sh	zero,326(k0)
   13150:	975f0104 	lhu	ra,260(k0)
   13154:	a75f0148 	sh	ra,328(k0)
   13158:	8f590108 	lw	t9,264(k0)
   1315c:	33380020 	andi	t8,t9,0x20
   13160:	53000001 	beqzl	t8,0x13168
   13164:	24040001 	li	a0,1
   13168:	920f0004 	lbu	t7,4(s0)
   1316c:	31ee0010 	andi	t6,t7,0x10
   13170:	15c00002 	bnez	t6,0x1317c
   13174:	34830010 	ori	v1,a0,0x10
   13178:	00801821 	move	v1,a0
   1317c:	a743014a 	sh	v1,330(k0)
	...
   13190:	af481000 	sw	t0,4096(k0)
	...
   131a4:	8f511000 	lw	s1,4096(k0)
   131a8:	0621fffe 	bgez	s1,0x131a4
   131ac:	3113ffff 	andi	s3,t0,0xffff
   131b0:	12600003 	beqz	s3,0x131c0
   131b4:	00000000 	nop
   131b8:	8f481018 	lw	t0,4120(k0)
   131bc:	acc80000 	sw	t0,0(a2)
   131c0:	96030006 	lhu	v1,6(s0)
   131c4:	307fffff 	andi	ra,v1,0xffff
   131c8:	27f90002 	addiu	t9,ra,2
   131cc:	00199882 	srl	s3,t9,0x2
   131d0:	00138880 	sll	s1,s3,0x2
   131d4:	023b3021 	addu	a2,s1,k1
   131d8:	8cd80000 	lw	t8,0(a2)
   131dc:	15200057 	bnez	t1,0x1333c
   131e0:	00183402 	srl	a2,t8,0x10
   131e4:	92030004 	lbu	v1,4(s0)
   131e8:	2405ff80 	li	a1,-128
   131ec:	00a3f824 	and	ra,a1,v1
   131f0:	33f100ff 	andi	s1,ra,0xff
   131f4:	1220002c 	beqz	s1,0x132a8
   131f8:	00000000 	nop
   131fc:	924700bc 	lbu	a3,188(s2)
   13200:	30f20002 	andi	s2,a3,0x2
   13204:	12400028 	beqz	s2,0x132a8
   13208:	00000000 	nop
   1320c:	974b100c 	lhu	t3,4108(k0)
   13210:	2562fffe 	addiu	v0,t3,-2
   13214:	a7421016 	sh	v0,4118(k0)
   13218:	00000000 	nop
   1321c:	3c0a0400 	lui	t2,0x400
   13220:	35490030 	ori	t1,t2,0x30
   13224:	af491000 	sw	t1,4096(k0)
	...
   13238:	8f4c1000 	lw	t4,4096(k0)
   1323c:	0581fffe 	bgez	t4,0x13238
   13240:	00000000 	nop
   13244:	9749100c 	lhu	t1,4108(k0)
   13248:	8f51101c 	lw	s1,4124(k0)
   1324c:	00c02021 	move	a0,a2
   13250:	3127ffff 	andi	a3,t1,0xffff
   13254:	24f20030 	addiu	s2,a3,48
   13258:	00121882 	srl	v1,s2,0x2
   1325c:	00032880 	sll	a1,v1,0x2
   13260:	00bbf821 	addu	ra,a1,k1
   13264:	3226ffff 	andi	a2,s1,0xffff
   13268:	aff10000 	sw	s1,0(ra)
   1326c:	0e000595 	jal	0x8001654
   13270:	00112c02 	srl	a1,s1,0x10
   13274:	0013c880 	sll	t9,s3,0x2
   13278:	033b9821 	addu	s3,t9,k1
   1327c:	8e780000 	lw	t8,0(s3)
   13280:	00027400 	sll	t6,v0,0x10
   13284:	afb80010 	sw	t8,16(sp)
   13288:	8fa80010 	lw	t0,16(sp)
   1328c:	310fffff 	andi	t7,t0,0xffff
   13290:	afaf0010 	sw	t7,16(sp)
   13294:	8fa40010 	lw	a0,16(sp)
   13298:	01c46825 	or	t5,t6,a0
   1329c:	afad0010 	sw	t5,16(sp)
   132a0:	8fa60010 	lw	a2,16(sp)
   132a4:	ae660000 	sw	a2,0(s3)
   132a8:	97730008 	lhu	s3,8(k1)
   132ac:	976d000a 	lhu	t5,10(k1)
   132b0:	9766000c 	lhu	a2,12(k1)
   132b4:	8f8a003c 	lw	t2,60(gp)
   132b8:	000d5c00 	sll	t3,t5,0x10
   132bc:	30ccffff 	andi	t4,a2,0xffff
   132c0:	3262ffff 	andi	v0,s3,0xffff
   132c4:	104a0036 	beq	v0,t2,0x133a0
   132c8:	016c2025 	or	a0,t3,t4
   132cc:	96060002 	lhu	a2,2(s0)
   132d0:	3c101000 	lui	s0,0x1000
   132d4:	24d30008 	addiu	s3,a2,8
   132d8:	0e000139 	jal	0x80004e4
   132dc:	3264ffff 	andi	a0,s3,0xffff
   132e0:	974c0104 	lhu	t4,260(k0)
   132e4:	0e000147 	jal	0x800051c
   132e8:	3184ffff 	andi	a0,t4,0xffff
   132ec:	af500178 	sw	s0,376(k0)
   132f0:	8fbf0028 	lw	ra,40(sp)
   132f4:	8fb30024 	lw	s3,36(sp)
   132f8:	8fb20020 	lw	s2,32(sp)
   132fc:	8fb1001c 	lw	s1,28(sp)
   13300:	8fb00018 	lw	s0,24(sp)
   13304:	03e00008 	jr	ra
   13308:	27bd0030 	addiu	sp,sp,48
   1330c:	10a0ff70 	beqz	a1,0x130d0
   13310:	00000000 	nop
   13314:	24a5fffc 	addiu	a1,a1,-4
   13318:	0a0005ce 	j	0x8001738
   1331c:	24090004 	li	t1,4
   13320:	8cd10000 	lw	s1,0(a2)
   13324:	af511018 	sw	s1,4120(k0)
   13328:	8f530178 	lw	s3,376(k0)
   1332c:	0660ff7a 	bltz	s3,0x13118
   13330:	2404000a 	li	a0,10
   13334:	0a0005e3 	j	0x800178c
   13338:	00000000 	nop
   1333c:	00a7c821 	addu	t9,a1,a3
   13340:	8f880038 	lw	t0,56(gp)
   13344:	8f4e101c 	lw	t6,4124(k0)
   13348:	0019c082 	srl	t8,t9,0x2
   1334c:	00187880 	sll	t7,t8,0x2
   13350:	01e82021 	addu	a0,t7,t0
   13354:	ac8e0000 	sw	t6,0(a0)
   13358:	000e2c02 	srl	a1,t6,0x10
   1335c:	00c02021 	move	a0,a2
   13360:	0e000595 	jal	0x8001654
   13364:	31c6ffff 	andi	a2,t6,0xffff
   13368:	023b2821 	addu	a1,s1,k1
   1336c:	8cad0000 	lw	t5,0(a1)
   13370:	00025400 	sll	t2,v0,0x10
   13374:	00403021 	move	a2,v0
   13378:	afad0010 	sw	t5,16(sp)
   1337c:	8fac0010 	lw	t4,16(sp)
   13380:	318bffff 	andi	t3,t4,0xffff
   13384:	afab0010 	sw	t3,16(sp)
   13388:	8fa20010 	lw	v0,16(sp)
   1338c:	01424825 	or	t1,t2,v0
   13390:	afa90010 	sw	t1,16(sp)
   13394:	8fa70010 	lw	a3,16(sp)
   13398:	0a000613 	j	0x800184c
   1339c:	aca70000 	sw	a3,0(a1)
   133a0:	8f8f0040 	lw	t7,64(gp)
   133a4:	148fffc9 	bne	a0,t7,0x132cc
   133a8:	00000000 	nop
   133ac:	97420104 	lhu	v0,260(k0)
   133b0:	960b0002 	lhu	t3,2(s0)
   133b4:	3c050800 	lui	a1,0x800
   133b8:	8ca5046c 	lw	a1,1132(a1)
   133bc:	3049ffff 	andi	t1,v0,0xffff
   133c0:	316affff 	andi	t2,t3,0xffff
   133c4:	3c110800 	lui	s1,0x800
   133c8:	8e310468 	lw	s1,1128(s1)
   133cc:	012a3821 	addu	a3,t1,t2
   133d0:	24f2fffe 	addiu	s2,a3,-2
   133d4:	00b24021 	addu	t0,a1,s2
   133d8:	0012ffc3 	sra	ra,s2,0x1f
   133dc:	0112c82b 	sltu	t9,t0,s2
   133e0:	023fc021 	addu	t8,s1,ra
   133e4:	03192021 	addu	a0,t8,t9
   133e8:	3c010800 	lui	at,0x800
   133ec:	ac28046c 	sw	t0,1132(at)
   133f0:	3c010800 	lui	at,0x800
   133f4:	ac240468 	sw	a0,1128(at)
   133f8:	0a00064d 	j	0x8001934
   133fc:	00000000 	nop
   13400:	00a4102b 	sltu	v0,a1,a0
   13404:	10400009 	beqz	v0,0x1342c
   13408:	24030001 	li	v1,1
   1340c:	00052840 	sll	a1,a1,0x1
   13410:	00a4102b 	sltu	v0,a1,a0
   13414:	04a00003 	bltz	a1,0x13424
   13418:	00031840 	sll	v1,v1,0x1
   1341c:	5440fffc 	bnezl	v0,0x13410
   13420:	00052840 	sll	a1,a1,0x1
   13424:	10600007 	beqz	v1,0x13444
   13428:	00000000 	nop
   1342c:	0085302b 	sltu	a2,a0,a1
   13430:	14c00002 	bnez	a2,0x1343c
   13434:	00031842 	srl	v1,v1,0x1
   13438:	00852023 	subu	a0,a0,a1
   1343c:	1460fffb 	bnez	v1,0x1342c
   13440:	00052842 	srl	a1,a1,0x1
   13444:	03e00008 	jr	ra
   13448:	00801021 	move	v0,a0
   1344c:	8f85002c 	lw	a1,44(gp)
   13450:	27bdffe8 	addiu	sp,sp,-24
   13454:	00053027 	nor	a2,zero,a1
   13458:	2cc30001 	sltiu	v1,a2,1
   1345c:	2ca40002 	sltiu	a0,a1,2
   13460:	00831025 	or	v0,a0,v1
   13464:	10400003 	beqz	v0,0x13474
   13468:	afbf0010 	sw	ra,16(sp)
   1346c:	2405007f 	li	a1,127
   13470:	af85002c 	sw	a1,44(gp)
   13474:	00052827 	nor	a1,zero,a1
   13478:	30a5ffff 	andi	a1,a1,0xffff
   1347c:	0e000574 	jal	0x80015d0
   13480:	240426f5 	li	a0,9973
   13484:	8f830030 	lw	v1,48(gp)
   13488:	240402bd 	li	a0,701
   1348c:	00403021 	move	a2,v0
   13490:	0083382b 	sltu	a3,a0,v1
   13494:	10e00009 	beqz	a3,0x134bc
   13498:	24050001 	li	a1,1
   1349c:	00042040 	sll	a0,a0,0x1
   134a0:	0083102b 	sltu	v0,a0,v1
   134a4:	04800003 	bltz	a0,0x134b4
   134a8:	00052840 	sll	a1,a1,0x1
   134ac:	5440fffc 	bnezl	v0,0x134a0
   134b0:	00042040 	sll	a0,a0,0x1
   134b4:	10a00008 	beqz	a1,0x134d8
   134b8:	00c35021 	addu	t2,a2,v1
   134bc:	0064402b 	sltu	t0,v1,a0
   134c0:	15000002 	bnez	t0,0x134cc
   134c4:	00052842 	srl	a1,a1,0x1
   134c8:	00641823 	subu	v1,v1,a0
   134cc:	14a0fffb 	bnez	a1,0x134bc
   134d0:	00042042 	srl	a0,a0,0x1
   134d4:	00c35021 	addu	t2,a2,v1
   134d8:	8fbf0010 	lw	ra,16(sp)
   134dc:	000a4c02 	srl	t1,t2,0x10
   134e0:	312200ff 	andi	v0,t1,0xff
   134e4:	27bd0018 	addiu	sp,sp,24
   134e8:	af8a002c 	sw	t2,44(gp)
   134ec:	03e00008 	jr	ra
   134f0:	af890030 	sw	t1,48(gp)
   134f4:	0a00002a 	j	0x80000a8
   134f8:	00000000 	nop
   134fc:	00000000 	nop
   13500:	0000000d 	break
   13504:	74787035 	jalx	0x1e1c0d5
   13508:	2e302e30 	sltiu	s0,s1,11824
   1350c:	6a360000 	ldl	s6,0(s1)
   13510:	05000000 	bltz	t0,0x13514
   13514:	0000000a 	.word	0xa
   13518:	00000136 	tne	zero,zero,0x4
   1351c:	0000ea60 	.word	0xea60
	...
   13554:	00000016 	dsrlv	zero,zero,zero
	...
   1358c:	00001388 	.word	0x1388
   13590:	00000000 	nop
   13594:	000005dc 	.word	0x5dc
	...
   135a0:	10000003 	b	0x135b0
   135a4:	00000000 	nop
   135a8:	0000000d 	break
   135ac:	0000000d 	break
   135b0:	3c020800 	lui	v0,0x800
   135b4:	24423b60 	addiu	v0,v0,15200
   135b8:	3c030800 	lui	v1,0x800
   135bc:	24633d14 	addiu	v1,v1,15636
   135c0:	ac400000 	sw	zero,0(v0)
   135c4:	0043202b 	sltu	a0,v0,v1
   135c8:	1480fffd 	bnez	a0,0x135c0
   135cc:	24420004 	addiu	v0,v0,4
   135d0:	3c1d0800 	lui	sp,0x800
   135d4:	37bd7ffc 	ori	sp,sp,0x7ffc
   135d8:	03a0f021 	move	s8,sp
   135dc:	3c100800 	lui	s0,0x800
   135e0:	261000a8 	addiu	s0,s0,168
   135e4:	3c1c0800 	lui	gp,0x800
   135e8:	279c3b60 	addiu	gp,gp,15200
   135ec:	0e0002ba 	jal	0x8000ae8
   135f0:	00000000 	nop
   135f4:	0000000d 	break
   135f8:	8f830038 	lw	v1,56(gp)
   135fc:	3c088000 	lui	t0,0x8000
   13600:	35070070 	ori	a3,t0,0x70
   13604:	8ce50000 	lw	a1,0(a3)
   13608:	00833025 	or	a2,a0,v1
   1360c:	3c029000 	lui	v0,0x9000
   13610:	00c22025 	or	a0,a2,v0
   13614:	af850030 	sw	a1,48(gp)
   13618:	af440020 	sw	a0,32(k0)
   1361c:	8f490020 	lw	t1,32(k0)
   13620:	0520fffe 	bltz	t1,0x1361c
   13624:	3c038000 	lui	v1,0x8000
   13628:	34620070 	ori	v0,v1,0x70
   1362c:	8c450000 	lw	a1,0(v0)
   13630:	8f860030 	lw	a2,48(gp)
   13634:	3c190800 	lui	t9,0x800
   13638:	8f39007c 	lw	t9,124(t9)
   1363c:	3c0e0800 	lui	t6,0x800
   13640:	8dce0078 	lw	t6,120(t6)
   13644:	00a62023 	subu	a0,a1,a2
   13648:	03245821 	addu	t3,t9,a0
   1364c:	00007821 	move	t7,zero
   13650:	0164682b 	sltu	t5,t3,a0
   13654:	01cf6021 	addu	t4,t6,t7
   13658:	018d5021 	addu	t2,t4,t5
   1365c:	3c010800 	lui	at,0x800
   13660:	ac2b007c 	sw	t3,124(at)
   13664:	3c010800 	lui	at,0x800
   13668:	ac2a0078 	sw	t2,120(at)
   1366c:	03e00008 	jr	ra
   13670:	00000000 	nop
   13674:	0a000041 	j	0x8000104
   13678:	24040001 	li	a0,1
   1367c:	8f840038 	lw	a0,56(gp)
   13680:	3c058000 	lui	a1,0x8000
   13684:	34a20001 	ori	v0,a1,0x1
   13688:	00821825 	or	v1,a0,v0
   1368c:	03e00008 	jr	ra
   13690:	af430020 	sw	v1,32(k0)
   13694:	03e00008 	jr	ra
   13698:	00001021 	move	v0,zero
   1369c:	3084ffff 	andi	a0,a0,0xffff
   136a0:	30a5ffff 	andi	a1,a1,0xffff
   136a4:	10800007 	beqz	a0,0x136c4
   136a8:	00001821 	move	v1,zero
   136ac:	30820001 	andi	v0,a0,0x1
   136b0:	10400002 	beqz	v0,0x136bc
   136b4:	00042042 	srl	a0,a0,0x1
   136b8:	00651821 	addu	v1,v1,a1
   136bc:	1480fffb 	bnez	a0,0x136ac
   136c0:	00052840 	sll	a1,a1,0x1
   136c4:	03e00008 	jr	ra
   136c8:	00601021 	move	v0,v1
   136cc:	10c00007 	beqz	a2,0x136ec
   136d0:	00000000 	nop
   136d4:	8ca20000 	lw	v0,0(a1)
   136d8:	24c6ffff 	addiu	a2,a2,-1
   136dc:	24a50004 	addiu	a1,a1,4
   136e0:	ac820000 	sw	v0,0(a0)
   136e4:	14c0fffb 	bnez	a2,0x136d4
   136e8:	24840004 	addiu	a0,a0,4
   136ec:	03e00008 	jr	ra
   136f0:	00000000 	nop
   136f4:	10a00008 	beqz	a1,0x13718
   136f8:	24a3ffff 	addiu	v1,a1,-1
   136fc:	ac860000 	sw	a2,0(a0)
	...
   13708:	2402ffff 	li	v0,-1
   1370c:	2463ffff 	addiu	v1,v1,-1
   13710:	1462fffa 	bne	v1,v0,0x136fc
   13714:	24840004 	addiu	a0,a0,4
   13718:	03e00008 	jr	ra
   1371c:	00000000 	nop
   13720:	308affff 	andi	t2,a0,0xffff
   13724:	93a80013 	lbu	t0,19(sp)
   13728:	a74a0144 	sh	t2,324(k0)
   1372c:	97490e16 	lhu	t1,3606(k0)
   13730:	30c600ff 	andi	a2,a2,0xff
   13734:	3c021000 	lui	v0,0x1000
   13738:	a7490146 	sh	t1,326(k0)
   1373c:	af450148 	sw	a1,328(k0)
   13740:	a3460152 	sb	a2,338(k0)
   13744:	a748015a 	sh	t0,346(k0)
   13748:	af470160 	sw	a3,352(k0)
   1374c:	8fa40018 	lw	a0,24(sp)
   13750:	8fa30014 	lw	v1,20(sp)
   13754:	a7440158 	sh	a0,344(k0)
   13758:	af430154 	sw	v1,340(k0)
   1375c:	03e00008 	jr	ra
   13760:	af420178 	sw	v0,376(k0)
   13764:	03e00008 	jr	ra
   13768:	00000000 	nop
   1376c:	3c038000 	lui	v1,0x8000
   13770:	34620070 	ori	v0,v1,0x70
   13774:	8c490000 	lw	t1,0(v0)
   13778:	8f880000 	lw	t0,0(gp)
   1377c:	24840007 	addiu	a0,a0,7
   13780:	27bdfff8 	addiu	sp,sp,-8
   13784:	3084fff8 	andi	a0,a0,0xfff8
   13788:	af890030 	sw	t1,48(gp)
   1378c:	974d008a 	lhu	t5,138(k0)
   13790:	31acffff 	andi	t4,t5,0xffff
   13794:	afac0000 	sw	t4,0(sp)
   13798:	8fab0000 	lw	t3,0(sp)
   1379c:	01685023 	subu	t2,t3,t0
   137a0:	2547ffff 	addiu	a3,t2,-1
   137a4:	30e61fff 	andi	a2,a3,0x1fff
   137a8:	00c4282b 	sltu	a1,a2,a0
   137ac:	14a0fff7 	bnez	a1,0x1378c
   137b0:	3c0c8000 	lui	t4,0x8000
   137b4:	358b0070 	ori	t3,t4,0x70
   137b8:	8d6a0000 	lw	t2,0(t3)
   137bc:	3c070800 	lui	a3,0x800
   137c0:	8ce70084 	lw	a3,132(a3)
   137c4:	3c060800 	lui	a2,0x800
   137c8:	8cc60080 	lw	a2,128(a2)
   137cc:	00081082 	srl	v0,t0,0x2
   137d0:	01491823 	subu	v1,t2,t1
   137d4:	00027880 	sll	t7,v0,0x2
   137d8:	00e37021 	addu	t6,a3,v1
   137dc:	00002021 	move	a0,zero
   137e0:	01c3c82b 	sltu	t9,t6,v1
   137e4:	00c4c021 	addu	t8,a2,a0
   137e8:	01fa4021 	addu	t0,t7,k0
   137ec:	03194821 	addu	t1,t8,t9
   137f0:	25024000 	addiu	v0,t0,16384
   137f4:	27bd0008 	addiu	sp,sp,8
   137f8:	3c010800 	lui	at,0x800
   137fc:	ac2e0084 	sw	t6,132(at)
   13800:	3c010800 	lui	at,0x800
   13804:	ac290080 	sw	t1,128(at)
   13808:	03e00008 	jr	ra
   1380c:	00000000 	nop
   13810:	8f820000 	lw	v0,0(gp)
   13814:	24860007 	addiu	a2,a0,7
   13818:	30c5fff8 	andi	a1,a2,0xfff8
   1381c:	00a21821 	addu	v1,a1,v0
   13820:	30641fff 	andi	a0,v1,0x1fff
   13824:	03e00008 	jr	ra
   13828:	af840000 	sw	a0,0(gp)
   1382c:	8f870038 	lw	a3,56(gp)
   13830:	8f8a0040 	lw	t2,64(gp)
   13834:	27bdffb8 	addiu	sp,sp,-72
   13838:	8f860044 	lw	a2,68(gp)
   1383c:	afb60040 	sw	s6,64(sp)
   13840:	afbf0044 	sw	ra,68(sp)
   13844:	afb5003c 	sw	s5,60(sp)
   13848:	afb40038 	sw	s4,56(sp)
   1384c:	afb30034 	sw	s3,52(sp)
   13850:	afb20030 	sw	s2,48(sp)
   13854:	afb1002c 	sw	s1,44(sp)
   13858:	afb00028 	sw	s0,40(sp)
   1385c:	8f450104 	lw	a1,260(k0)
   13860:	8d4900ac 	lw	t1,172(t2)
   13864:	af470080 	sw	a3,128(k0)
   13868:	8cc80020 	lw	t0,32(a2)
   1386c:	00a93823 	subu	a3,a1,t1
   13870:	0000b021 	move	s6,zero
   13874:	af480e10 	sw	t0,3600(k0)
   13878:	8f440e10 	lw	a0,3600(k0)
   1387c:	00004821 	move	t1,zero
   13880:	af440e14 	sw	a0,3604(k0)
   13884:	8cc20024 	lw	v0,36(a2)
   13888:	af420e18 	sw	v0,3608(k0)
   1388c:	8f430e18 	lw	v1,3608(k0)
   13890:	af430e1c 	sw	v1,3612(k0)
   13894:	10e00125 	beqz	a3,0x13d2c
   13898:	2d230001 	sltiu	v1,t1,1
   1389c:	936b0008 	lbu	t3,8(k1)
   138a0:	116000d4 	beqz	t3,0x13bf4
   138a4:	00000000 	nop
   138a8:	976e0010 	lhu	t6,16(k1)
   138ac:	31cdffff 	andi	t5,t6,0xffff
   138b0:	00ed602b 	sltu	t4,a3,t5
   138b4:	158000cf 	bnez	t4,0x13bf4
   138b8:	00000000 	nop
   138bc:	97700010 	lhu	s0,16(k1)
   138c0:	320fffff 	andi	t7,s0,0xffff
   138c4:	af4f0e00 	sw	t7,3584(k0)
   138c8:	8f520000 	lw	s2,0(k0)
   138cc:	32510008 	andi	s1,s2,0x8
   138d0:	1220fffd 	beqz	s1,0x138c8
   138d4:	00000000 	nop
   138d8:	97540e08 	lhu	s4,3592(k0)
   138dc:	8f460e04 	lw	a2,3588(k0)
   138e0:	3285ffff 	andi	a1,s4,0xffff
   138e4:	30b30001 	andi	s3,a1,0x1
   138e8:	12600132 	beqz	s3,0x13db4
   138ec:	00000000 	nop
   138f0:	0000000d 	break
   138f4:	30b8a040 	andi	t8,a1,0xa040
   138f8:	24150040 	li	s5,64
   138fc:	131500c0 	beq	t8,s5,0x13c00
   13900:	30a9a000 	andi	t1,a1,0xa000
   13904:	1120012d 	beqz	t1,0x13dbc
   13908:	00000000 	nop
   1390c:	937f0008 	lbu	ra,8(k1)
   13910:	13e00008 	beqz	ra,0x13934
   13914:	00000000 	nop
   13918:	97630010 	lhu	v1,16(k1)
   1391c:	306bffff 	andi	t3,v1,0xffff
   13920:	00cb402b 	sltu	t0,a2,t3
   13924:	11000003 	beqz	t0,0x13934
   13928:	30ac0040 	andi	t4,a1,0x40
   1392c:	11800123 	beqz	t4,0x13dbc
   13930:	00000000 	nop
   13934:	a785003c 	sh	a1,60(gp)
   13938:	af860034 	sw	a2,52(gp)
   1393c:	93660008 	lbu	a2,8(k1)
   13940:	00e02821 	move	a1,a3
   13944:	afa70020 	sw	a3,32(sp)
   13948:	14c00124 	bnez	a2,0x13ddc
   1394c:	27b30020 	addiu	s3,sp,32
   13950:	af60000c 	sw	zero,12(k1)
   13954:	9782003c 	lhu	v0,60(gp)
   13958:	30474000 	andi	a3,v0,0x4000
   1395c:	14e00002 	bnez	a3,0x13968
   13960:	24030016 	li	v1,22
   13964:	2403000e 	li	v1,14
   13968:	24194007 	li	t9,16391
   1396c:	a363000a 	sb	v1,10(k1)
   13970:	af790014 	sw	t9,20(k1)
   13974:	938a003e 	lbu	t2,62(gp)
   13978:	8f740014 	lw	s4,20(k1)
   1397c:	31580007 	andi	t8,t2,0x7
   13980:	0018aa40 	sll	s5,t8,0x9
   13984:	02959025 	or	s2,s4,s5
   13988:	af720014 	sw	s2,20(k1)
   1398c:	9784003c 	lhu	a0,60(gp)
   13990:	8f700014 	lw	s0,20(k1)
   13994:	30910010 	andi	s1,a0,0x10
   13998:	02117825 	or	t7,s0,s1
   1399c:	af6f0014 	sw	t7,20(k1)
   139a0:	978e003c 	lhu	t6,60(gp)
   139a4:	31cd0008 	andi	t5,t6,0x8
   139a8:	11a00147 	beqz	t5,0x13ec8
   139ac:	00002821 	move	a1,zero
   139b0:	8f670014 	lw	a3,20(k1)
   139b4:	3c021000 	lui	v0,0x1000
   139b8:	3c0c8100 	lui	t4,0x8100
   139bc:	00e22825 	or	a1,a3,v0
   139c0:	af650014 	sw	a1,20(k1)
   139c4:	97460e0a 	lhu	a2,3594(k0)
   139c8:	2408000e 	li	t0,14
   139cc:	3405fffc 	li	a1,0xfffc
   139d0:	30c3ffff 	andi	v1,a2,0xffff
   139d4:	006c5825 	or	t3,v1,t4
   139d8:	af6b0004 	sw	t3,4(k1)
   139dc:	a3680002 	sb	t0,2(k1)
   139e0:	937f000a 	lbu	ra,10(k1)
   139e4:	27e90004 	addiu	t1,ra,4
   139e8:	a369000a 	sb	t1,10(k1)
   139ec:	9786003c 	lhu	a2,60(gp)
   139f0:	9363000a 	lbu	v1,10(k1)
   139f4:	30cc1f00 	andi	t4,a2,0x1f00
   139f8:	000c5983 	sra	t3,t4,0x6
   139fc:	01634021 	addu	t0,t3,v1
   13a00:	251f0028 	addiu	ra,t0,40
   13a04:	a37f0009 	sb	ra,9(k1)
   13a08:	97490e0c 	lhu	t1,3596(k0)
   13a0c:	a7690010 	sh	t1,16(k1)
   13a10:	93790009 	lbu	t9,9(k1)
   13a14:	272a0002 	addiu	t2,t9,2
   13a18:	31580007 	andi	t8,t2,0x7
   13a1c:	0018a823 	negu	s5,t8
   13a20:	32b10007 	andi	s1,s5,0x7
   13a24:	a371000b 	sb	s1,11(k1)
   13a28:	93740009 	lbu	s4,9(k1)
   13a2c:	97640010 	lhu	a0,16(k1)
   13a30:	8f910034 	lw	s1,52(gp)
   13a34:	978f003c 	lhu	t7,60(gp)
   13a38:	329200ff 	andi	s2,s4,0xff
   13a3c:	02448021 	addu	s0,s2,a0
   13a40:	02057021 	addu	t6,s0,a1
   13a44:	31ed0040 	andi	t5,t7,0x40
   13a48:	11a00005 	beqz	t5,0x13a60
   13a4c:	31c4ffff 	andi	a0,t6,0xffff
   13a50:	0091282b 	sltu	a1,a0,s1
   13a54:	3c128000 	lui	s2,0x8000
   13a58:	10a00014 	beqz	a1,0x13aac
   13a5c:	0000a021 	move	s4,zero
   13a60:	0224382b 	sltu	a3,s1,a0
   13a64:	14e0011b 	bnez	a3,0x13ed4
   13a68:	8fa50020 	lw	a1,32(sp)
   13a6c:	8f4d0e14 	lw	t5,3604(k0)
   13a70:	af4d0e10 	sw	t5,3600(k0)
   13a74:	8f420e1c 	lw	v0,3612(k0)
   13a78:	af420e18 	sw	v0,3608(k0)
   13a7c:	af440e00 	sw	a0,3584(k0)
   13a80:	8f4f0000 	lw	t7,0(k0)
   13a84:	31ee0008 	andi	t6,t7,0x8
   13a88:	11c0fffd 	beqz	t6,0x13a80
   13a8c:	00000000 	nop
   13a90:	97540e08 	lhu	s4,3592(k0)
   13a94:	00808821 	move	s1,a0
   13a98:	00009021 	move	s2,zero
   13a9c:	a794003c 	sh	s4,60(gp)
   13aa0:	8f500e04 	lw	s0,3588(k0)
   13aa4:	24140001 	li	s4,1
   13aa8:	af900034 	sw	s0,52(gp)
   13aac:	97640010 	lhu	a0,16(k1)
   13ab0:	3095ffff 	andi	s5,a0,0xffff
   13ab4:	8e680000 	lw	t0,0(s3)
   13ab8:	0111f823 	subu	ra,t0,s1
   13abc:	17e00009 	bnez	ra,0x13ae4
   13ac0:	ae7f0000 	sw	ra,0(s3)
   13ac4:	8f650014 	lw	a1,20(k1)
   13ac8:	8f8b0044 	lw	t3,68(gp)
   13acc:	34a60040 	ori	a2,a1,0x40
   13ad0:	af660014 	sw	a2,20(k1)
   13ad4:	8f4c0e10 	lw	t4,3600(k0)
   13ad8:	ad6c0020 	sw	t4,32(t3)
   13adc:	8f430e18 	lw	v1,3608(k0)
   13ae0:	ad630024 	sw	v1,36(t3)
   13ae4:	93670008 	lbu	a3,8(k1)
   13ae8:	14e000d2 	bnez	a3,0x13e34
   13aec:	00000000 	nop
   13af0:	0e00009e 	jal	0x8000278
   13af4:	24040010 	li	a0,16
   13af8:	8f890048 	lw	t1,72(gp)
   13afc:	3c083200 	lui	t0,0x3200
   13b00:	00402821 	move	a1,v0
   13b04:	312600ff 	andi	a2,t1,0xff
   13b08:	0006fc00 	sll	ra,a2,0x10
   13b0c:	03e85025 	or	t2,ra,t0
   13b10:	25390001 	addiu	t9,t1,1
   13b14:	af990048 	sw	t9,72(gp)
   13b18:	ac4a0000 	sw	t2,0(v0)
   13b1c:	93780009 	lbu	t8,9(k1)
   13b20:	9370000a 	lbu	s0,10(k1)
   13b24:	330400ff 	andi	a0,t8,0xff
   13b28:	00047400 	sll	t6,a0,0x10
   13b2c:	320f00ff 	andi	t7,s0,0xff
   13b30:	01cf6825 	or	t5,t6,t7
   13b34:	ac4d0004 	sw	t5,4(v0)
   13b38:	8f820048 	lw	v0,72(gp)
   13b3c:	064000ea 	bltz	s2,0x13ee8
   13b40:	aca20008 	sw	v0,8(a1)
   13b44:	aca0000c 	sw	zero,12(a1)
   13b48:	9783003c 	lhu	v1,60(gp)
   13b4c:	306b0008 	andi	t3,v1,0x8
   13b50:	15600002 	bnez	t3,0x13b5c
   13b54:	26280006 	addiu	t0,s1,6
   13b58:	26280002 	addiu	t0,s1,2
   13b5c:	974e0e14 	lhu	t6,3604(k0)
   13b60:	8f450e1c 	lw	a1,3612(k0)
   13b64:	8f670004 	lw	a3,4(k1)
   13b68:	936d0002 	lbu	t5,2(k1)
   13b6c:	31c4ffff 	andi	a0,t6,0xffff
   13b70:	31a200ff 	andi	v0,t5,0xff
   13b74:	afa20010 	sw	v0,16(sp)
   13b78:	8f6c0014 	lw	t4,20(k1)
   13b7c:	afa80018 	sw	t0,24(sp)
   13b80:	0e00008b 	jal	0x800022c
   13b84:	afac0014 	sw	t4,20(sp)
   13b88:	24040010 	li	a0,16
   13b8c:	0e0000c7 	jal	0x800031c
   13b90:	00000000 	nop
   13b94:	8e720000 	lw	s2,0(s3)
   13b98:	16400005 	bnez	s2,0x13bb0
   13b9c:	00000000 	nop
   13ba0:	8f640014 	lw	a0,20(k1)
   13ba4:	2405ffbf 	li	a1,-65
   13ba8:	00859824 	and	s3,a0,a1
   13bac:	af730014 	sw	s3,20(k1)
   13bb0:	8f79000c 	lw	t9,12(k1)
   13bb4:	03353821 	addu	a3,t9,s5
   13bb8:	af67000c 	sw	a3,12(k1)
   13bbc:	93750008 	lbu	s5,8(k1)
   13bc0:	16a00008 	bnez	s5,0x13be4
   13bc4:	00000000 	nop
   13bc8:	12800006 	beqz	s4,0x13be4
   13bcc:	00000000 	nop
   13bd0:	8f7f0014 	lw	ra,20(k1)
   13bd4:	3c0befff 	lui	t3,0xefff
   13bd8:	3568fffe 	ori	t0,t3,0xfffe
   13bdc:	03e84824 	and	t1,ra,t0
   13be0:	af690014 	sw	t1,20(k1)
   13be4:	a3740008 	sb	s4,8(k1)
   13be8:	8fa50020 	lw	a1,32(sp)
   13bec:	0a000246 	j	0x8000918
   13bf0:	02202021 	move	a0,s1
   13bf4:	af470e00 	sw	a3,3584(k0)
   13bf8:	0a0000f5 	j	0x80003d4
   13bfc:	00000000 	nop
   13c00:	8f590178 	lw	t9,376(k0)
   13c04:	0720fffe 	bltz	t9,0x13c00
   13c08:	241f0800 	li	ra,2048
   13c0c:	8f840000 	lw	a0,0(gp)
   13c10:	af5f0178 	sw	ra,376(k0)
   13c14:	974b008a 	lhu	t3,138(k0)
   13c18:	316affff 	andi	t2,t3,0xffff
   13c1c:	01444823 	subu	t1,t2,a0
   13c20:	2528ffff 	addiu	t0,t1,-1
   13c24:	31021fff 	andi	v0,t0,0x1fff
   13c28:	2c430008 	sltiu	v1,v0,8
   13c2c:	1460fff9 	bnez	v1,0x13c14
   13c30:	00000000 	nop
   13c34:	8f8e0048 	lw	t6,72(gp)
   13c38:	8f8d0038 	lw	t5,56(gp)
   13c3c:	00c04821 	move	t1,a2
   13c40:	03442021 	addu	a0,k0,a0
   13c44:	25c60001 	addiu	a2,t6,1
   13c48:	240c0f00 	li	t4,3840
   13c4c:	af860048 	sw	a2,72(gp)
   13c50:	00e93823 	subu	a3,a3,t1
   13c54:	24864000 	addiu	a2,a0,16384
   13c58:	31ca00ff 	andi	t2,t6,0xff
   13c5c:	11ac0005 	beq	t5,t4,0x13c74
   13c60:	24080001 	li	t0,1
   13c64:	9391003e 	lbu	s1,62(gp)
   13c68:	32300007 	andi	s0,s1,0x7
   13c6c:	00107a40 	sll	t7,s0,0x9
   13c70:	35e80001 	ori	t0,t7,0x1
   13c74:	000aac00 	sll	s5,t2,0x10
   13c78:	3c180100 	lui	t8,0x100
   13c7c:	02b8a025 	or	s4,s5,t8
   13c80:	ac944000 	sw	s4,16384(a0)
   13c84:	8f930048 	lw	s3,72(gp)
   13c88:	30b20036 	andi	s2,a1,0x36
   13c8c:	30a40008 	andi	a0,a1,0x8
   13c90:	acd30004 	sw	s3,4(a2)
   13c94:	10800097 	beqz	a0,0x13ef4
   13c98:	01123025 	or	a2,t0,s2
   13c9c:	974e0e0a 	lhu	t6,3594(k0)
   13ca0:	8f8d0000 	lw	t5,0(gp)
   13ca4:	3c028100 	lui	v0,0x8100
   13ca8:	31ccffff 	andi	t4,t6,0xffff
   13cac:	25ab0008 	addiu	t3,t5,8
   13cb0:	01824025 	or	t0,t4,v0
   13cb4:	3c031000 	lui	v1,0x1000
   13cb8:	31651fff 	andi	a1,t3,0x1fff
   13cbc:	25390006 	addiu	t9,t1,6
   13cc0:	241f000e 	li	ra,14
   13cc4:	af480160 	sw	t0,352(k0)
   13cc8:	00c33025 	or	a2,a2,v1
   13ccc:	a75f015a 	sh	ra,346(k0)
   13cd0:	af850000 	sw	a1,0(gp)
   13cd4:	a7590158 	sh	t9,344(k0)
   13cd8:	14e0000a 	bnez	a3,0x13d04
   13cdc:	8f930038 	lw	s3,56(gp)
   13ce0:	24120f00 	li	s2,3840
   13ce4:	52720002 	beql	s3,s2,0x13cf0
   13ce8:	24160001 	li	s6,1
   13cec:	34c60040 	ori	a2,a2,0x40
   13cf0:	8f580e10 	lw	t8,3600(k0)
   13cf4:	8f940044 	lw	s4,68(gp)
   13cf8:	ae980020 	sw	t8,32(s4)
   13cfc:	8f550e18 	lw	s5,3608(k0)
   13d00:	ae950024 	sw	s5,36(s4)
   13d04:	8f450e14 	lw	a1,3604(k0)
   13d08:	af450144 	sw	a1,324(k0)
   13d0c:	8f590e1c 	lw	t9,3612(k0)
   13d10:	af590148 	sw	t9,328(k0)
   13d14:	a34a0152 	sb	t2,338(k0)
   13d18:	3c0a1000 	lui	t2,0x1000
   13d1c:	af460154 	sw	a2,340(k0)
   13d20:	af4a0178 	sw	t2,376(k0)
   13d24:	14e0fedd 	bnez	a3,0x1389c
   13d28:	2d230001 	sltiu	v1,t1,1
   13d2c:	0076a025 	or	s4,v1,s6
   13d30:	12800017 	beqz	s4,0x13d90
   13d34:	8fbf0044 	lw	ra,68(sp)
   13d38:	8f840038 	lw	a0,56(gp)
   13d3c:	24160f00 	li	s6,3840
   13d40:	10960084 	beq	a0,s6,0x13f54
   13d44:	00000000 	nop
   13d48:	8f450178 	lw	a1,376(k0)
   13d4c:	04a0fffe 	bltz	a1,0x13d48
   13d50:	24150f00 	li	s5,3840
   13d54:	1095006e 	beq	a0,s5,0x13f10
   13d58:	00000000 	nop
   13d5c:	8f470e14 	lw	a3,3604(k0)
   13d60:	24020240 	li	v0,576
   13d64:	3c1f1000 	lui	ra,0x1000
   13d68:	af470144 	sw	a3,324(k0)
   13d6c:	8f440e1c 	lw	a0,3612(k0)
   13d70:	af440148 	sw	a0,328(k0)
   13d74:	a3400152 	sb	zero,338(k0)
   13d78:	a740015a 	sh	zero,346(k0)
   13d7c:	af400160 	sw	zero,352(k0)
   13d80:	a7400158 	sh	zero,344(k0)
   13d84:	af420154 	sw	v0,340(k0)
   13d88:	af5f0178 	sw	ra,376(k0)
   13d8c:	8fbf0044 	lw	ra,68(sp)
   13d90:	8fb60040 	lw	s6,64(sp)
   13d94:	8fb5003c 	lw	s5,60(sp)
   13d98:	8fb40038 	lw	s4,56(sp)
   13d9c:	8fb30034 	lw	s3,52(sp)
   13da0:	8fb20030 	lw	s2,48(sp)
   13da4:	8fb1002c 	lw	s1,44(sp)
   13da8:	8fb00028 	lw	s0,40(sp)
   13dac:	03e00008 	jr	ra
   13db0:	27bd0048 	addiu	sp,sp,72
   13db4:	14c0fed0 	bnez	a2,0x138f8
   13db8:	30b8a040 	andi	t8,a1,0xa040
   13dbc:	8f420e14 	lw	v0,3604(k0)
   13dc0:	8f840044 	lw	a0,68(gp)
   13dc4:	00004821 	move	t1,zero
   13dc8:	ac820020 	sw	v0,32(a0)
   13dcc:	8f510e1c 	lw	s1,3612(k0)
   13dd0:	ac910024 	sw	s1,36(a0)
   13dd4:	0a00020e 	j	0x8000838
   13dd8:	2d230001 	sltiu	v1,t1,1
   13ddc:	8f910034 	lw	s1,52(gp)
   13de0:	978a003c 	lhu	t2,60(gp)
   13de4:	3c128000 	lui	s2,0x8000
   13de8:	0220a821 	move	s5,s1
   13dec:	31580040 	andi	t8,t2,0x40
   13df0:	1700ff30 	bnez	t8,0x13ab4
   13df4:	0000a021 	move	s4,zero
   13df8:	97690010 	lhu	t1,16(k1)
   13dfc:	8f920034 	lw	s2,52(gp)
   13e00:	3139ffff 	andi	t9,t1,0xffff
   13e04:	13320035 	beq	t9,s2,0x13edc
   13e08:	00002021 	move	a0,zero
   13e0c:	00804821 	move	t1,a0
   13e10:	1480fea0 	bnez	a0,0x13894
   13e14:	00a03821 	move	a3,a1
   13e18:	8f420e14 	lw	v0,3604(k0)
   13e1c:	8f840044 	lw	a0,68(gp)
   13e20:	ac820020 	sw	v0,32(a0)
   13e24:	8f510e1c 	lw	s1,3612(k0)
   13e28:	ac910024 	sw	s1,36(a0)
   13e2c:	0a00020e 	j	0x8000838
   13e30:	2d230001 	sltiu	v1,t1,1
   13e34:	936a0009 	lbu	t2,9(k1)
   13e38:	9378000b 	lbu	t8,11(k1)
   13e3c:	315000ff 	andi	s0,t2,0xff
   13e40:	330f00ff 	andi	t7,t8,0xff
   13e44:	020f7021 	addu	t6,s0,t7
   13e48:	25c2000a 	addiu	v0,t6,10
   13e4c:	3050ffff 	andi	s0,v0,0xffff
   13e50:	0e00009e 	jal	0x8000278
   13e54:	02002021 	move	a0,s0
   13e58:	8f860048 	lw	a2,72(gp)
   13e5c:	3c1f4100 	lui	ra,0x4100
   13e60:	24cd0001 	addiu	t5,a2,1
   13e64:	af8d0048 	sw	t5,72(gp)
   13e68:	936c0009 	lbu	t4,9(k1)
   13e6c:	30c600ff 	andi	a2,a2,0xff
   13e70:	00064400 	sll	t0,a2,0x10
   13e74:	318300ff 	andi	v1,t4,0xff
   13e78:	246b0002 	addiu	t3,v1,2
   13e7c:	010b4825 	or	t1,t0,t3
   13e80:	013fc825 	or	t9,t1,ra
   13e84:	ac590000 	sw	t9,0(v0)
   13e88:	8f67000c 	lw	a3,12(k1)
   13e8c:	97440e14 	lhu	a0,3604(k0)
   13e90:	00f22825 	or	a1,a3,s2
   13e94:	ac450004 	sw	a1,4(v0)
   13e98:	8f450e1c 	lw	a1,3612(k0)
   13e9c:	8f670004 	lw	a3,4(k1)
   13ea0:	936a0002 	lbu	t2,2(k1)
   13ea4:	3084ffff 	andi	a0,a0,0xffff
   13ea8:	315800ff 	andi	t8,t2,0xff
   13eac:	afb80010 	sw	t8,16(sp)
   13eb0:	8f6f0014 	lw	t7,20(k1)
   13eb4:	afb10018 	sw	s1,24(sp)
   13eb8:	0e00008b 	jal	0x800022c
   13ebc:	afaf0014 	sw	t7,20(sp)
   13ec0:	0a0001a6 	j	0x8000698
   13ec4:	02002021 	move	a0,s0
   13ec8:	af600004 	sw	zero,4(k1)
   13ecc:	0a00013e 	j	0x80004f8
   13ed0:	a3600002 	sb	zero,2(k1)
   13ed4:	0a000246 	j	0x8000918
   13ed8:	00002021 	move	a0,zero
   13edc:	00009021 	move	s2,zero
   13ee0:	0a000170 	j	0x80005c0
   13ee4:	24140001 	li	s4,1
   13ee8:	3c128000 	lui	s2,0x8000
   13eec:	0a000195 	j	0x8000654
   13ef0:	acb2000c 	sw	s2,12(a1)
   13ef4:	8f910000 	lw	s1,0(gp)
   13ef8:	25240002 	addiu	a0,t1,2
   13efc:	a7440158 	sh	a0,344(k0)
   13f00:	26300008 	addiu	s0,s1,8
   13f04:	320f1fff 	andi	t7,s0,0x1fff
   13f08:	0a0001f9 	j	0x80007e4
   13f0c:	af8f0000 	sw	t7,0(gp)
   13f10:	af40014c 	sw	zero,332(k0)
   13f14:	1120002c 	beqz	t1,0x13fc8
   13f18:	00000000 	nop
   13f1c:	8f590e10 	lw	t9,3600(k0)
   13f20:	af590144 	sw	t9,324(k0)
   13f24:	8f430e18 	lw	v1,3608(k0)
   13f28:	24020040 	li	v0,64
   13f2c:	3c1f1000 	lui	ra,0x1000
   13f30:	af430148 	sw	v1,328(k0)
   13f34:	a3400152 	sb	zero,338(k0)
   13f38:	a740015a 	sh	zero,346(k0)
   13f3c:	af400160 	sw	zero,352(k0)
   13f40:	a7400158 	sh	zero,344(k0)
   13f44:	af420154 	sw	v0,340(k0)
   13f48:	af5f0178 	sw	ra,376(k0)
   13f4c:	0a000227 	j	0x800089c
   13f50:	8fbf0044 	lw	ra,68(sp)
   13f54:	11200006 	beqz	t1,0x13f70
   13f58:	00000000 	nop
   13f5c:	97460e08 	lhu	a2,3592(k0)
   13f60:	30cc0040 	andi	t4,a2,0x40
   13f64:	15800002 	bnez	t4,0x13f70
   13f68:	00000000 	nop
   13f6c:	0000000d 	break
   13f70:	8f4d0178 	lw	t5,376(k0)
   13f74:	05a0fffe 	bltz	t5,0x13f70
   13f78:	00000000 	nop
   13f7c:	97530e10 	lhu	s3,3600(k0)
   13f80:	3c120500 	lui	s2,0x500
   13f84:	240e2000 	li	t6,8192
   13f88:	326affff 	andi	t2,s3,0xffff
   13f8c:	0152c025 	or	t8,t2,s2
   13f90:	af58014c 	sw	t8,332(k0)
   13f94:	8f4f0e14 	lw	t7,3604(k0)
   13f98:	3c021000 	lui	v0,0x1000
   13f9c:	af4f0144 	sw	t7,324(k0)
   13fa0:	8f500e1c 	lw	s0,3612(k0)
   13fa4:	af500148 	sw	s0,328(k0)
   13fa8:	a3400152 	sb	zero,338(k0)
   13fac:	8f840038 	lw	a0,56(gp)
   13fb0:	a740015a 	sh	zero,346(k0)
   13fb4:	af400160 	sw	zero,352(k0)
   13fb8:	a7400158 	sh	zero,344(k0)
   13fbc:	af4e0154 	sw	t6,340(k0)
   13fc0:	0a000215 	j	0x8000854
   13fc4:	af420178 	sw	v0,376(k0)
   13fc8:	8f490e14 	lw	t1,3604(k0)
   13fcc:	af490144 	sw	t1,324(k0)
   13fd0:	8f430e1c 	lw	v1,3612(k0)
   13fd4:	0a00028e 	j	0x8000a38
   13fd8:	24020040 	li	v0,64
   13fdc:	3c0e20ff 	lui	t6,0x20ff
   13fe0:	27bdffe0 	addiu	sp,sp,-32
   13fe4:	3c1a8000 	lui	k0,0x8000
   13fe8:	3c0f8008 	lui	t7,0x8008
   13fec:	35cdfffd 	ori	t5,t6,0xfffd
   13ff0:	afbf001c 	sw	ra,28(sp)
   13ff4:	afb20018 	sw	s2,24(sp)
   13ff8:	afb10014 	sw	s1,20(sp)
   13ffc:	afb00010 	sw	s0,16(sp)
   14000:	af8f0040 	sw	t7,64(gp)
   14004:	af4d0e00 	sw	t5,3584(k0)
	...
   1401c:	3c0c00ff 	lui	t4,0xff
   14020:	358bfffd 	ori	t3,t4,0xfffd
   14024:	af4b0e00 	sw	t3,3584(k0)
   14028:	3c066004 	lui	a2,0x6004
   1402c:	8cc95000 	lw	t1,20480(a2)
   14030:	240aff7f 	li	t2,-129
   14034:	3c116000 	lui	s1,0x6000
   14038:	012a4024 	and	t0,t1,t2
   1403c:	3507380c 	ori	a3,t0,0x380c
   14040:	acc75000 	sw	a3,20480(a2)
   14044:	8e240438 	lw	a0,1080(s1)
   14048:	24050009 	li	a1,9
   1404c:	af450008 	sw	a1,8(k0)
   14050:	3083ffff 	andi	v1,a0,0xffff
   14054:	38622f71 	xori	v0,v1,0x2f71
   14058:	2450c0b3 	addiu	s0,v0,-16205
   1405c:	af800048 	sw	zero,72(gp)
   14060:	0e000068 	jal	0x80001a0
   14064:	af800000 	sw	zero,0(gp)
   14068:	52000001 	beqzl	s0,0x14070
   1406c:	ae20442c 	sw	zero,17452(s1)
   14070:	0e000435 	jal	0x80010d4
   14074:	3c118000 	lui	s1,0x8000
   14078:	0e000ea8 	jal	0x8003aa0
   1407c:	36300070 	ori	s0,s1,0x70
   14080:	8f8a0040 	lw	t2,64(gp)
   14084:	3c120800 	lui	s2,0x800
   14088:	26523bc8 	addiu	s2,s2,15304
   1408c:	02008821 	move	s1,s0
   14090:	8e080000 	lw	t0,0(s0)
   14094:	8f5f0000 	lw	ra,0(k0)
   14098:	3bf90001 	xori	t9,ra,0x1
   1409c:	33380001 	andi	t8,t9,0x1
   140a0:	13000017 	beqz	t8,0x14100
   140a4:	af880030 	sw	t0,48(gp)
   140a8:	02204821 	move	t1,s1
   140ac:	8d270000 	lw	a3,0(t1)
   140b0:	3c0f0800 	lui	t7,0x800
   140b4:	8def006c 	lw	t7,108(t7)
   140b8:	3c0c0800 	lui	t4,0x800
   140bc:	8d8c0068 	lw	t4,104(t4)
   140c0:	00e8c023 	subu	t8,a3,t0
   140c4:	01f82821 	addu	a1,t7,t8
   140c8:	00006821 	move	t5,zero
   140cc:	00b8302b 	sltu	a2,a1,t8
   140d0:	018d5821 	addu	t3,t4,t5
   140d4:	01664021 	addu	t0,t3,a2
   140d8:	3c010800 	lui	at,0x800
   140dc:	ac25006c 	sw	a1,108(at)
   140e0:	3c010800 	lui	at,0x800
   140e4:	ac280068 	sw	t0,104(at)
   140e8:	8f440000 	lw	a0,0(k0)
   140ec:	38830001 	xori	v1,a0,0x1
   140f0:	30620001 	andi	v0,v1,0x1
   140f4:	1440ffed 	bnez	v0,0x140ac
   140f8:	00e04021 	move	t0,a3
   140fc:	af870030 	sw	a3,48(gp)
   14100:	8e0c0000 	lw	t4,0(s0)
   14104:	3c050800 	lui	a1,0x800
   14108:	8ca5006c 	lw	a1,108(a1)
   1410c:	3c040800 	lui	a0,0x800
   14110:	8c840068 	lw	a0,104(a0)
   14114:	01883023 	subu	a2,t4,t0
   14118:	00a63821 	addu	a3,a1,a2
   1411c:	00001021 	move	v0,zero
   14120:	00e6402b 	sltu	t0,a3,a2
   14124:	00821821 	addu	v1,a0,v0
   14128:	0068f821 	addu	ra,v1,t0
   1412c:	3c010800 	lui	at,0x800
   14130:	ac27006c 	sw	a3,108(at)
   14134:	3c010800 	lui	at,0x800
   14138:	ac3f0068 	sw	ra,104(at)
   1413c:	8f490100 	lw	t1,256(k0)
   14140:	25590088 	addiu	t9,t2,136
   14144:	af990044 	sw	t9,68(gp)
   14148:	af890038 	sw	t1,56(gp)
   1414c:	af490020 	sw	t1,32(k0)
   14150:	8e070000 	lw	a3,0(s0)
   14154:	af870030 	sw	a3,48(gp)
   14158:	8f4d0178 	lw	t5,376(k0)
   1415c:	05a0fffe 	bltz	t5,0x14158
   14160:	00000000 	nop
   14164:	8e060000 	lw	a2,0(s0)
   14168:	3c0b0800 	lui	t3,0x800
   1416c:	8d6b0074 	lw	t3,116(t3)
   14170:	3c040800 	lui	a0,0x800
   14174:	8c840070 	lw	a0,112(a0)
   14178:	00c72823 	subu	a1,a2,a3
   1417c:	0165f821 	addu	ra,t3,a1
   14180:	00001021 	move	v0,zero
   14184:	03e5402b 	sltu	t0,ra,a1
   14188:	00823821 	addu	a3,a0,v0
   1418c:	00e8c821 	addu	t9,a3,t0
   14190:	24090800 	li	t1,2048
   14194:	3c010800 	lui	at,0x800
   14198:	ac3f0074 	sw	ra,116(at)
   1419c:	3c010800 	lui	at,0x800
   141a0:	ac390070 	sw	t9,112(at)
   141a4:	af490178 	sw	t1,376(k0)
   141a8:	93580108 	lbu	t8,264(k0)
   141ac:	a398003e 	sb	t8,62(gp)
   141b0:	938f003e 	lbu	t7,62(gp)
   141b4:	31ee0001 	andi	t6,t7,0x1
   141b8:	15c00015 	bnez	t6,0x14210
   141bc:	8f830038 	lw	v1,56(gp)
   141c0:	240e0d00 	li	t6,3328
   141c4:	106e0019 	beq	v1,t6,0x1422c
   141c8:	240f0f00 	li	t7,3840
   141cc:	106f001d 	beq	v1,t7,0x14244
   141d0:	00000000 	nop
   141d4:	91590000 	lbu	t9,0(t2)
   141d8:	24180050 	li	t8,80
   141dc:	332900ff 	andi	t1,t9,0xff
   141e0:	11380004 	beq	t1,t8,0x141f4
   141e4:	3c1f4000 	lui	ra,0x4000
   141e8:	af5f0138 	sw	ra,312(k0)
   141ec:	0a0002e7 	j	0x8000b9c
   141f0:	00000000 	nop
   141f4:	0e0008ee 	jal	0x80023b8
   141f8:	00000000 	nop
   141fc:	8f8a0040 	lw	t2,64(gp)
   14200:	3c1f4000 	lui	ra,0x4000
   14204:	af5f0138 	sw	ra,312(k0)
   14208:	0a0002e7 	j	0x8000b9c
   1420c:	00000000 	nop
   14210:	938d003e 	lbu	t5,62(gp)
   14214:	31ac0006 	andi	t4,t5,0x6
   14218:	000c5100 	sll	t2,t4,0x4
   1421c:	0e0000ce 	jal	0x8000338
   14220:	0152d821 	addu	k1,t2,s2
   14224:	0a000343 	j	0x8000d0c
   14228:	8f8a0040 	lw	t2,64(gp)
   1422c:	3c1b0800 	lui	k1,0x800
   14230:	277b3c48 	addiu	k1,k1,15432
   14234:	0e0000ce 	jal	0x8000338
   14238:	00000000 	nop
   1423c:	0a000343 	j	0x8000d0c
   14240:	8f8a0040 	lw	t2,64(gp)
   14244:	3c1b0800 	lui	k1,0x800
   14248:	277b3c68 	addiu	k1,k1,15464
   1424c:	0e0000ce 	jal	0x8000338
   14250:	00000000 	nop
   14254:	0a000343 	j	0x8000d0c
   14258:	8f8a0040 	lw	t2,64(gp)
   1425c:	90aa0001 	lbu	t2,1(a1)
   14260:	8fab0010 	lw	t3,16(sp)
   14264:	8cac0010 	lw	t4,16(a1)
   14268:	3c0300ff 	lui	v1,0xff
   1426c:	8d680004 	lw	t0,4(t3)
   14270:	ad6c0020 	sw	t4,32(t3)
   14274:	8cad0014 	lw	t5,20(a1)
   14278:	00e06021 	move	t4,a3
   1427c:	3462ffff 	ori	v0,v1,0xffff
   14280:	ad6d0024 	sw	t5,36(t3)
   14284:	8ca70018 	lw	a3,24(a1)
   14288:	3c09ff00 	lui	t1,0xff00
   1428c:	0109c024 	and	t8,t0,t1
   14290:	ad670028 	sw	a3,40(t3)
   14294:	8cae001c 	lw	t6,28(a1)
   14298:	0182c824 	and	t9,t4,v0
   1429c:	03197825 	or	t7,t8,t9
   142a0:	ad6f0004 	sw	t7,4(t3)
   142a4:	ad6e002c 	sw	t6,44(t3)
   142a8:	8cad0008 	lw	t5,8(a1)
   142ac:	314a00ff 	andi	t2,t2,0xff
   142b0:	ad6d001c 	sw	t5,28(t3)
   142b4:	94a90002 	lhu	t1,2(a1)
   142b8:	3128ffff 	andi	t0,t1,0xffff
   142bc:	ad680010 	sw	t0,16(t3)
   142c0:	90a70000 	lbu	a3,0(a1)
   142c4:	a5600002 	sh	zero,2(t3)
   142c8:	a1600004 	sb	zero,4(t3)
   142cc:	a1670000 	sb	a3,0(t3)
   142d0:	90a30002 	lbu	v1,2(a1)
   142d4:	306200ff 	andi	v0,v1,0xff
   142d8:	00021982 	srl	v1,v0,0x6
   142dc:	10600005 	beqz	v1,0x142f4
   142e0:	24050001 	li	a1,1
   142e4:	1065000e 	beq	v1,a1,0x14320
   142e8:	00000000 	nop
   142ec:	03e00008 	jr	ra
   142f0:	a16a0001 	sb	t2,1(t3)
   142f4:	8cd80028 	lw	t8,40(a2)
   142f8:	354a0080 	ori	t2,t2,0x80
   142fc:	ad780018 	sw	t8,24(t3)
   14300:	8ccf0014 	lw	t7,20(a2)
   14304:	ad6f0014 	sw	t7,20(t3)
   14308:	8cce0030 	lw	t6,48(a2)
   1430c:	ad6e0008 	sw	t6,8(t3)
   14310:	8cc4002c 	lw	a0,44(a2)
   14314:	a16a0001 	sb	t2,1(t3)
   14318:	03e00008 	jr	ra
   1431c:	ad64000c 	sw	a0,12(t3)
   14320:	8ccd001c 	lw	t5,28(a2)
   14324:	ad6d0018 	sw	t5,24(t3)
   14328:	8cc90014 	lw	t1,20(a2)
   1432c:	ad690014 	sw	t1,20(t3)
   14330:	8cc80024 	lw	t0,36(a2)
   14334:	ad680008 	sw	t0,8(t3)
   14338:	8cc70020 	lw	a3,32(a2)
   1433c:	ad67000c 	sw	a3,12(t3)
   14340:	8cc20014 	lw	v0,20(a2)
   14344:	8c830064 	lw	v1,100(a0)
   14348:	0043c82b 	sltu	t9,v0,v1
   1434c:	13200007 	beqz	t9,0x1436c
   14350:	00000000 	nop
   14354:	8cc20014 	lw	v0,20(a2)
   14358:	144cffe4 	bne	v0,t4,0x142ec
   1435c:	00000000 	nop
   14360:	354a0080 	ori	t2,t2,0x80
   14364:	03e00008 	jr	ra
   14368:	a16a0001 	sb	t2,1(t3)
   1436c:	8c820064 	lw	v0,100(a0)
   14370:	0a000399 	j	0x8000e64
   14374:	00000000 	nop
   14378:	90aa0000 	lbu	t2,0(a1)
   1437c:	27bdfff8 	addiu	sp,sp,-8
   14380:	8fa9001c 	lw	t1,28(sp)
   14384:	a3aa0000 	sb	t2,0(sp)
   14388:	8fae0000 	lw	t6,0(sp)
   1438c:	3c0fff80 	lui	t7,0xff80
   14390:	8fa80018 	lw	t0,24(sp)
   14394:	35e2ffff 	ori	v0,t7,0xffff
   14398:	8ccd002c 	lw	t5,44(a2)
   1439c:	01c26024 	and	t4,t6,v0
   143a0:	afac0000 	sw	t4,0(sp)
   143a4:	a1200004 	sb	zero,4(t1)
   143a8:	00e06021 	move	t4,a3
   143ac:	a7a00002 	sh	zero,2(sp)
   143b0:	8fb80000 	lw	t8,0(sp)
   143b4:	8d270004 	lw	a3,4(t1)
   143b8:	01881821 	addu	v1,t4,t0
   143bc:	00a05821 	move	t3,a1
   143c0:	00c05021 	move	t2,a2
   143c4:	006d2826 	xor	a1,v1,t5
   143c8:	3c06ff7f 	lui	a2,0xff7f
   143cc:	3c0f00ff 	lui	t7,0xff
   143d0:	2cad0001 	sltiu	t5,a1,1
   143d4:	35eeffff 	ori	t6,t7,0xffff
   143d8:	34d9ffff 	ori	t9,a2,0xffff
   143dc:	3c02ff00 	lui	v0,0xff00
   143e0:	03193024 	and	a2,t8,t9
   143e4:	000d1dc0 	sll	v1,t5,0x17
   143e8:	010ec824 	and	t9,t0,t6
   143ec:	00e2c024 	and	t8,a3,v0
   143f0:	00c37025 	or	t6,a2,v1
   143f4:	03197825 	or	t7,t8,t9
   143f8:	ad2e0000 	sw	t6,0(t1)
   143fc:	ad2f0004 	sw	t7,4(t1)
   14400:	8d450024 	lw	a1,36(t2)
   14404:	afae0000 	sw	t6,0(sp)
   14408:	ad250008 	sw	a1,8(t1)
   1440c:	8d4d0020 	lw	t5,32(t2)
   14410:	2405ffff 	li	a1,-1
   14414:	ad2d000c 	sw	t5,12(t1)
   14418:	95680002 	lhu	t0,2(t3)
   1441c:	3107ffff 	andi	a3,t0,0xffff
   14420:	ad270010 	sw	a3,16(t1)
   14424:	91660018 	lbu	a2,24(t3)
   14428:	30c200ff 	andi	v0,a2,0xff
   1442c:	000219c2 	srl	v1,v0,0x7
   14430:	50600001 	beqzl	v1,0x14438
   14434:	8d450034 	lw	a1,52(t2)
   14438:	ad250014 	sw	a1,20(t1)
   1443c:	8d670008 	lw	a3,8(t3)
   14440:	27bd0008 	addiu	sp,sp,8
   14444:	ad27001c 	sw	a3,28(t1)
   14448:	8c8b00cc 	lw	t3,204(a0)
   1444c:	ad2c0028 	sw	t4,40(t1)
   14450:	ad20002c 	sw	zero,44(t1)
   14454:	ad2b0024 	sw	t3,36(t1)
   14458:	ad200018 	sw	zero,24(t1)
   1445c:	03e00008 	jr	ra
   14460:	ad200020 	sw	zero,32(t1)
   14464:	27bdffe0 	addiu	sp,sp,-32
   14468:	afb20018 	sw	s2,24(sp)
   1446c:	afb10014 	sw	s1,20(sp)
   14470:	afb00010 	sw	s0,16(sp)
   14474:	afbf001c 	sw	ra,28(sp)
   14478:	90980000 	lbu	t8,0(a0)
   1447c:	00c08821 	move	s1,a2
   14480:	3c0d00ff 	lui	t5,0xff
   14484:	330f007f 	andi	t7,t8,0x7f
   14488:	a0cf0000 	sb	t7,0(a2)
   1448c:	908e0001 	lbu	t6,1(a0)
   14490:	35acffff 	ori	t4,t5,0xffff
   14494:	3c0aff00 	lui	t2,0xff00
   14498:	a0ce0001 	sb	t6,1(a2)
   1449c:	94a6001e 	lhu	a2,30(a1)
   144a0:	a2200004 	sb	zero,4(s1)
   144a4:	8cab0014 	lw	t3,20(a1)
   144a8:	8e290004 	lw	t1,4(s1)
   144ac:	00a08021 	move	s0,a1
   144b0:	016c2824 	and	a1,t3,t4
   144b4:	012a4024 	and	t0,t1,t2
   144b8:	00809021 	move	s2,a0
   144bc:	01052025 	or	a0,t0,a1
   144c0:	a6260002 	sh	a2,2(s1)
   144c4:	ae240004 	sw	a0,4(s1)
   144c8:	26050020 	addiu	a1,s0,32
   144cc:	26240008 	addiu	a0,s1,8
   144d0:	0e000076 	jal	0x80001d8
   144d4:	24060002 	li	a2,2
   144d8:	92470000 	lbu	a3,0(s2)
   144dc:	26050028 	addiu	a1,s0,40
   144e0:	26240014 	addiu	a0,s1,20
   144e4:	00071e00 	sll	v1,a3,0x18
   144e8:	00031603 	sra	v0,v1,0x18
   144ec:	24060004 	li	a2,4
   144f0:	04400003 	bltz	v0,0x14500
   144f4:	2403ffff 	li	v1,-1
   144f8:	96590002 	lhu	t9,2(s2)
   144fc:	3323ffff 	andi	v1,t9,0xffff
   14500:	0e000076 	jal	0x80001d8
   14504:	ae230010 	sw	v1,16(s1)
   14508:	26240024 	addiu	a0,s1,36
   1450c:	8fbf001c 	lw	ra,28(sp)
   14510:	8fb20018 	lw	s2,24(sp)
   14514:	8fb10014 	lw	s1,20(sp)
   14518:	8fb00010 	lw	s0,16(sp)
   1451c:	24050003 	li	a1,3
   14520:	00003021 	move	a2,zero
   14524:	0a000080 	j	0x8000200
   14528:	27bd0020 	addiu	sp,sp,32
   1452c:	27bdffd8 	addiu	sp,sp,-40
   14530:	afb1001c 	sw	s1,28(sp)
   14534:	afb00018 	sw	s0,24(sp)
   14538:	afbf0020 	sw	ra,32(sp)
   1453c:	90a80000 	lbu	t0,0(a1)
   14540:	24020001 	li	v0,1
   14544:	8fb0003c 	lw	s0,60(sp)
   14548:	3103003f 	andi	v1,t0,0x3f
   1454c:	00808821 	move	s1,a0
   14550:	10620014 	beq	v1,v0,0x145a4
   14554:	8faa0038 	lw	t2,56(sp)
   14558:	240b0005 	li	t3,5
   1455c:	506b0016 	beql	v1,t3,0x145b8
   14560:	afaa0010 	sw	t2,16(sp)
   14564:	00a02021 	move	a0,a1
   14568:	00c02821 	move	a1,a2
   1456c:	0e0003dc 	jal	0x8000f70
   14570:	02003021 	move	a2,s0
   14574:	922400bc 	lbu	a0,188(s1)
   14578:	30830002 	andi	v1,a0,0x2
   1457c:	10600003 	beqz	v1,0x1458c
   14580:	26060030 	addiu	a2,s0,48
   14584:	acc00000 	sw	zero,0(a2)
   14588:	24c60004 	addiu	a2,a2,4
   1458c:	8fbf0020 	lw	ra,32(sp)
   14590:	8fb1001c 	lw	s1,28(sp)
   14594:	8fb00018 	lw	s0,24(sp)
   14598:	00c01021 	move	v0,a2
   1459c:	03e00008 	jr	ra
   145a0:	27bd0028 	addiu	sp,sp,40
   145a4:	01403821 	move	a3,t2
   145a8:	0e00035a 	jal	0x8000d68
   145ac:	afb00010 	sw	s0,16(sp)
   145b0:	0a000420 	j	0x8001080
   145b4:	00000000 	nop
   145b8:	0e0003a1 	jal	0x8000e84
   145bc:	afb00014 	sw	s0,20(sp)
   145c0:	0a000420 	j	0x8001080
   145c4:	00000000 	nop
   145c8:	3c02000a 	lui	v0,0xa
   145cc:	03421821 	addu	v1,k0,v0
   145d0:	3c040800 	lui	a0,0x800
   145d4:	24843cac 	addiu	a0,a0,15532
   145d8:	2405001a 	li	a1,26
   145dc:	00003021 	move	a2,zero
   145e0:	0a000080 	j	0x8000200
   145e4:	af830054 	sw	v1,84(gp)
   145e8:	3c038000 	lui	v1,0x8000
   145ec:	34620070 	ori	v0,v1,0x70
   145f0:	8c480000 	lw	t0,0(v0)
   145f4:	00a05821 	move	t3,a1
   145f8:	00c04821 	move	t1,a2
   145fc:	308a00ff 	andi	t2,a0,0xff
   14600:	af880030 	sw	t0,48(gp)
   14604:	8f440178 	lw	a0,376(k0)
   14608:	0480fffe 	bltz	a0,0x14604
   1460c:	3c0c8000 	lui	t4,0x8000
   14610:	35860070 	ori	a2,t4,0x70
   14614:	8cc50000 	lw	a1,0(a2)
   14618:	3c030800 	lui	v1,0x800
   1461c:	8c630074 	lw	v1,116(v1)
   14620:	3c180800 	lui	t8,0x800
   14624:	8f180070 	lw	t8,112(t8)
   14628:	00a82023 	subu	a0,a1,t0
   1462c:	00646821 	addu	t5,v1,a0
   14630:	0000c821 	move	t9,zero
   14634:	01a4782b 	sltu	t7,t5,a0
   14638:	03197021 	addu	t6,t8,t9
   1463c:	01cf6021 	addu	t4,t6,t7
   14640:	3c010800 	lui	at,0x800
   14644:	ac2d0074 	sw	t5,116(at)
   14648:	3c010800 	lui	at,0x800
   1464c:	ac2c0070 	sw	t4,112(at)
   14650:	8f480e14 	lw	t0,3604(k0)
   14654:	af480144 	sw	t0,324(k0)
   14658:	af47014c 	sw	a3,332(k0)
   1465c:	a34a0152 	sb	t2,338(k0)
   14660:	a74b0158 	sh	t3,344(k0)
   14664:	93460108 	lbu	a2,264(k0)
   14668:	30c50008 	andi	a1,a2,0x8
   1466c:	54a00001 	bnezl	a1,0x14674
   14670:	35291000 	ori	t1,t1,0x1000
   14674:	934b0900 	lbu	t3,2304(k0)
   14678:	24070050 	li	a3,80
   1467c:	316a00ff 	andi	t2,t3,0xff
   14680:	11470007 	beq	t2,a3,0x146a0
   14684:	00000000 	nop
   14688:	8f450e1c 	lw	a1,3612(k0)
   1468c:	af450148 	sw	a1,328(k0)
   14690:	af490154 	sw	t1,340(k0)
   14694:	3c091000 	lui	t1,0x1000
   14698:	03e00008 	jr	ra
   1469c:	af490178 	sw	t1,376(k0)
   146a0:	934d0108 	lbu	t5,264(k0)
   146a4:	31a80008 	andi	t0,t5,0x8
   146a8:	11000010 	beqz	t0,0x146ec
   146ac:	00000000 	nop
   146b0:	934f0108 	lbu	t7,264(k0)
   146b4:	31ee0010 	andi	t6,t7,0x10
   146b8:	51c00001 	beqzl	t6,0x146c0
   146bc:	35290008 	ori	t1,t1,0x8
   146c0:	3c040800 	lui	a0,0x800
   146c4:	90843d10 	lbu	a0,15632(a0)
   146c8:	a3440150 	sb	a0,336(k0)
   146cc:	8f4309a4 	lw	v1,2468(k0)
   146d0:	af430148 	sw	v1,328(k0)
   146d4:	8f4209a0 	lw	v0,2464(k0)
   146d8:	af420144 	sw	v0,324(k0)
   146dc:	af490154 	sw	t1,340(k0)
   146e0:	3c091000 	lui	t1,0x1000
   146e4:	03e00008 	jr	ra
   146e8:	af490178 	sw	t1,376(k0)
   146ec:	3c190800 	lui	t9,0x800
   146f0:	8f393ccc 	lw	t9,15564(t9)
   146f4:	33380008 	andi	t8,t9,0x8
   146f8:	5700fff1 	bnezl	t8,0x146c0
   146fc:	35290008 	ori	t1,t1,0x8
   14700:	0a000473 	j	0x80011cc
   14704:	00000000 	nop
   14708:	24070040 	li	a3,64
   1470c:	af470814 	sw	a3,2068(k0)
   14710:	af400810 	sw	zero,2064(k0)
   14714:	8f420944 	lw	v0,2372(k0)
   14718:	8f430950 	lw	v1,2384(k0)
   1471c:	8f440954 	lw	a0,2388(k0)
   14720:	8f45095c 	lw	a1,2396(k0)
   14724:	8f46094c 	lw	a2,2380(k0)
   14728:	af820064 	sw	v0,100(gp)
   1472c:	af830050 	sw	v1,80(gp)
   14730:	af84004c 	sw	a0,76(gp)
   14734:	af85005c 	sw	a1,92(gp)
   14738:	03e00008 	jr	ra
   1473c:	af860060 	sw	a2,96(gp)
   14740:	93460109 	lbu	a2,265(k0)
   14744:	30c5007f 	andi	a1,a2,0x7f
   14748:	000518c0 	sll	v1,a1,0x3
   1474c:	00052140 	sll	a0,a1,0x5
   14750:	00831021 	addu	v0,a0,v1
   14754:	03e00008 	jr	ra
   14758:	24420088 	addiu	v0,v0,136
   1475c:	3c0a0800 	lui	t2,0x800
   14760:	914a3cd1 	lbu	t2,15569(t2)
   14764:	3c090800 	lui	t1,0x800
   14768:	95293cca 	lhu	t1,15562(t1)
   1476c:	3c051100 	lui	a1,0x1100
   14770:	000a3c00 	sll	a3,t2,0x10
   14774:	25280002 	addiu	t0,t1,2
   14778:	00e83025 	or	a2,a3,t0
   1477c:	00c51825 	or	v1,a2,a1
   14780:	24820008 	addiu	v0,a0,8
   14784:	ac830000 	sw	v1,0(a0)
   14788:	03e00008 	jr	ra
   1478c:	ac800004 	sw	zero,4(a0)
   14790:	8f4a002c 	lw	t2,44(k0)
   14794:	974e0908 	lhu	t6,2312(k0)
   14798:	3c0f000e 	lui	t7,0xe
   1479c:	034f3821 	addu	a3,k0,t7
   147a0:	31cdffff 	andi	t5,t6,0xffff
   147a4:	000d41c0 	sll	t0,t5,0x7
   147a8:	af48002c 	sw	t0,44(k0)
   147ac:	97430908 	lhu	v1,2312(k0)
   147b0:	94ec001a 	lhu	t4,26(a3)
   147b4:	00804021 	move	t0,a0
   147b8:	24020001 	li	v0,1
   147bc:	318bffff 	andi	t3,t4,0xffff
   147c0:	ac8b0000 	sw	t3,0(a0)
   147c4:	8ce9001c 	lw	t1,28(a3)
   147c8:	00a05821 	move	t3,a1
   147cc:	00c06021 	move	t4,a2
   147d0:	ac890004 	sw	t1,4(a0)
   147d4:	8ce40020 	lw	a0,32(a3)
   147d8:	ad040008 	sw	a0,8(t0)
   147dc:	90e30019 	lbu	v1,25(a3)
   147e0:	30630003 	andi	v1,v1,0x3
   147e4:	10620040 	beq	v1,v0,0x148e8
   147e8:	00000000 	nop
   147ec:	28650002 	slti	a1,v1,2
   147f0:	14a00073 	bnez	a1,0x149c0
   147f4:	24060002 	li	a2,2
   147f8:	1066004e 	beq	v1,a2,0x14934
   147fc:	00000000 	nop
   14800:	24180003 	li	t8,3
   14804:	10780057 	beq	v1,t8,0x14964
   14808:	00000000 	nop
   1480c:	3c090800 	lui	t1,0x800
   14810:	95293cc0 	lhu	t1,15552(t1)
   14814:	93450934 	lbu	a1,2356(k0)
   14818:	93460921 	lbu	a2,2337(k0)
   1481c:	3c0e0800 	lui	t6,0x800
   14820:	95ce3cc6 	lhu	t6,15558(t6)
   14824:	30a200ff 	andi	v0,a1,0xff
   14828:	0002c882 	srl	t9,v0,0x2
   1482c:	94e5002a 	lhu	a1,42(a3)
   14830:	30c400ff 	andi	a0,a2,0xff
   14834:	97870058 	lhu	a3,88(gp)
   14838:	0019c600 	sll	t8,t9,0x18
   1483c:	00041c00 	sll	v1,a0,0x10
   14840:	312fffff 	andi	t7,t1,0xffff
   14844:	03031025 	or	v0,t8,v1
   14848:	01cf6821 	addu	t5,t6,t7
   1484c:	004dc825 	or	t9,v0,t5
   14850:	00a72021 	addu	a0,a1,a3
   14854:	3c064000 	lui	a2,0x4000
   14858:	0326c025 	or	t8,t9,a2
   1485c:	00044c00 	sll	t1,a0,0x10
   14860:	ad090004 	sw	t1,4(t0)
   14864:	ad180000 	sw	t8,0(t0)
   14868:	934f0920 	lbu	t7,2336(k0)
   1486c:	3c030006 	lui	v1,0x6
   14870:	25090014 	addiu	t1,t0,20
   14874:	000f7600 	sll	t6,t7,0x18
   14878:	01c36825 	or	t5,t6,v1
   1487c:	ad0d0008 	sw	t5,8(t0)
   14880:	8f42092c 	lw	v0,2348(k0)
   14884:	24e50001 	addiu	a1,a3,1
   14888:	30a67fff 	andi	a2,a1,0x7fff
   1488c:	ad02000c 	sw	v0,12(t0)
   14890:	8f590930 	lw	t9,2352(k0)
   14894:	25020028 	addiu	v0,t0,40
   14898:	a7860058 	sh	a2,88(gp)
   1489c:	ad190010 	sw	t9,16(t0)
   148a0:	8f440938 	lw	a0,2360(k0)
   148a4:	ad040014 	sw	a0,20(t0)
   148a8:	ad2b0004 	sw	t3,4(t1)
   148ac:	8f580940 	lw	t8,2368(k0)
   148b0:	ad380008 	sw	t8,8(t1)
   148b4:	934f0937 	lbu	t7,2359(k0)
   148b8:	3c0d0800 	lui	t5,0x800
   148bc:	91ad3cd0 	lbu	t5,15568(t5)
   148c0:	ad200010 	sw	zero,16(t1)
   148c4:	31ee00ff 	andi	t6,t7,0xff
   148c8:	01cc1821 	addu	v1,t6,t4
   148cc:	00036700 	sll	t4,v1,0x1c
   148d0:	000d4400 	sll	t0,t5,0x10
   148d4:	01885825 	or	t3,t4,t0
   148d8:	3567ffff 	ori	a3,t3,0xffff
   148dc:	ad27000c 	sw	a3,12(t1)
   148e0:	03e00008 	jr	ra
   148e4:	af4a002c 	sw	t2,44(k0)
   148e8:	3c090800 	lui	t1,0x800
   148ec:	95293cc0 	lhu	t1,15552(t1)
   148f0:	3c050800 	lui	a1,0x800
   148f4:	94a53cca 	lhu	a1,15562(a1)
   148f8:	3c0f0800 	lui	t7,0x800
   148fc:	95ef3cbc 	lhu	t7,15548(t7)
   14900:	94e40024 	lhu	a0,36(a3)
   14904:	3126ffff 	andi	a2,t1,0xffff
   14908:	00a67021 	addu	t6,a1,a2
   1490c:	01cf6823 	subu	t5,t6,t7
   14910:	00041c00 	sll	v1,a0,0x10
   14914:	25a2fff2 	addiu	v0,t5,-14
   14918:	0062c825 	or	t9,v1,v0
   1491c:	24180800 	li	t8,2048
   14920:	ad19000c 	sw	t9,12(t0)
   14924:	ad180014 	sw	t8,20(t0)
   14928:	ad000010 	sw	zero,16(t0)
   1492c:	0a0004c8 	j	0x8001320
   14930:	25080018 	addiu	t0,t0,24
   14934:	94e60024 	lhu	a2,36(a3)
   14938:	94e50028 	lhu	a1,40(a3)
   1493c:	3c090800 	lui	t1,0x800
   14940:	95293cc0 	lhu	t1,15552(t1)
   14944:	00067c00 	sll	t7,a2,0x10
   14948:	00057400 	sll	t6,a1,0x10
   1494c:	35ed8100 	ori	t5,t7,0x8100
   14950:	35c40800 	ori	a0,t6,0x800
   14954:	ad0d000c 	sw	t5,12(t0)
   14958:	ad040010 	sw	a0,16(t0)
   1495c:	0a0004c8 	j	0x8001320
   14960:	25080014 	addiu	t0,t0,20
   14964:	3c090800 	lui	t1,0x800
   14968:	95293cc0 	lhu	t1,15552(t1)
   1496c:	3c020800 	lui	v0,0x800
   14970:	94423cca 	lhu	v0,15562(v0)
   14974:	3c060800 	lui	a2,0x800
   14978:	94c63cbc 	lhu	a2,15548(a2)
   1497c:	94e40024 	lhu	a0,36(a3)
   14980:	3125ffff 	andi	a1,t1,0xffff
   14984:	94f80028 	lhu	t8,40(a3)
   14988:	0045c821 	addu	t9,v0,a1
   1498c:	03267823 	subu	t7,t9,a2
   14990:	00181c00 	sll	v1,t8,0x10
   14994:	00046c00 	sll	t5,a0,0x10
   14998:	25eeffee 	addiu	t6,t7,-18
   1499c:	006ec825 	or	t9,v1,t6
   149a0:	35a28100 	ori	v0,t5,0x8100
   149a4:	24180800 	li	t8,2048
   149a8:	ad02000c 	sw	v0,12(t0)
   149ac:	ad190010 	sw	t9,16(t0)
   149b0:	ad180018 	sw	t8,24(t0)
   149b4:	ad000014 	sw	zero,20(t0)
   149b8:	0a0004c8 	j	0x8001320
   149bc:	2508001c 	addiu	t0,t0,28
   149c0:	1460ff92 	bnez	v1,0x1480c
   149c4:	00000000 	nop
   149c8:	94e30024 	lhu	v1,36(a3)
   149cc:	3c090800 	lui	t1,0x800
   149d0:	95293cc0 	lhu	t1,15552(t1)
   149d4:	00031400 	sll	v0,v1,0x10
   149d8:	34590800 	ori	t9,v0,0x800
   149dc:	ad19000c 	sw	t9,12(t0)
   149e0:	0a0004c8 	j	0x8001320
   149e4:	25080010 	addiu	t0,t0,16
   149e8:	03e00008 	jr	ra
   149ec:	240201f4 	li	v0,500
   149f0:	27bdffe8 	addiu	sp,sp,-24
   149f4:	afb00010 	sw	s0,16(sp)
   149f8:	afbf0014 	sw	ra,20(sp)
   149fc:	0e000060 	jal	0x8000180
   14a00:	00808021 	move	s0,a0
   14a04:	24050040 	li	a1,64
   14a08:	af450814 	sw	a1,2068(k0)
   14a0c:	8f830050 	lw	v1,80(gp)
   14a10:	8f84004c 	lw	a0,76(gp)
   14a14:	8f85005c 	lw	a1,92(gp)
   14a18:	00701821 	addu	v1,v1,s0
   14a1c:	00641023 	subu	v0,v1,a0
   14a20:	18400004 	blez	v0,0x14a34
   14a24:	af830050 	sw	v1,80(gp)
   14a28:	af630054 	sw	v1,84(k1)
   14a2c:	8f660054 	lw	a2,84(k1)
   14a30:	af86004c 	sw	a2,76(gp)
   14a34:	1200000c 	beqz	s0,0x14a68
   14a38:	00000000 	nop
   14a3c:	8f440074 	lw	a0,116(k0)
   14a40:	93680081 	lbu	t0,129(k1)
   14a44:	3409fa00 	li	t1,0xfa00
   14a48:	2d070007 	sltiu	a3,t0,7
   14a4c:	10e00005 	beqz	a3,0x14a64
   14a50:	00891021 	addu	v0,a0,t1
   14a54:	936c0081 	lbu	t4,129(k1)
   14a58:	240b01f4 	li	t3,500
   14a5c:	018b5004 	sllv	t2,t3,t4
   14a60:	01441021 	addu	v0,t2,a0
   14a64:	af62000c 	sw	v0,12(k1)
   14a68:	8f4e095c 	lw	t6,2396(k0)
   14a6c:	01c56823 	subu	t5,t6,a1
   14a70:	19a00004 	blez	t5,0x14a84
   14a74:	8fbf0014 	lw	ra,20(sp)
   14a78:	8f4f095c 	lw	t7,2396(k0)
   14a7c:	af8f005c 	sw	t7,92(gp)
   14a80:	8fbf0014 	lw	ra,20(sp)
   14a84:	8fb00010 	lw	s0,16(sp)
   14a88:	0a000062 	j	0x8000188
   14a8c:	27bd0018 	addiu	sp,sp,24
   14a90:	8f840064 	lw	a0,100(gp)
   14a94:	8f830050 	lw	v1,80(gp)
   14a98:	8f82004c 	lw	v0,76(gp)
   14a9c:	af640044 	sw	a0,68(k1)
   14aa0:	af630050 	sw	v1,80(k1)
   14aa4:	03e00008 	jr	ra
   14aa8:	af620054 	sw	v0,84(k1)
   14aac:	3c038000 	lui	v1,0x8000
   14ab0:	34620070 	ori	v0,v1,0x70
   14ab4:	8c430000 	lw	v1,0(v0)
   14ab8:	27bdfff8 	addiu	sp,sp,-8
   14abc:	308700ff 	andi	a3,a0,0xff
   14ac0:	30a900ff 	andi	t1,a1,0xff
   14ac4:	30c800ff 	andi	t0,a2,0xff
   14ac8:	af830030 	sw	v1,48(gp)
   14acc:	8f440178 	lw	a0,376(k0)
   14ad0:	0480fffe 	bltz	a0,0x14acc
   14ad4:	3c028000 	lui	v0,0x8000
   14ad8:	34590070 	ori	t9,v0,0x70
   14adc:	8f380000 	lw	t8,0(t9)
   14ae0:	a3a70003 	sb	a3,3(sp)
   14ae4:	3c070800 	lui	a3,0x800
   14ae8:	8ce70074 	lw	a3,116(a3)
   14aec:	8fac0000 	lw	t4,0(sp)
   14af0:	3c060800 	lui	a2,0x800
   14af4:	8cc60070 	lw	a2,112(a2)
   14af8:	03037823 	subu	t7,t8,v1
   14afc:	3c0e7fff 	lui	t6,0x7fff
   14b00:	00efc821 	addu	t9,a3,t7
   14b04:	35cdffff 	ori	t5,t6,0xffff
   14b08:	00005021 	move	t2,zero
   14b0c:	018d2824 	and	a1,t4,t5
   14b10:	00ca1821 	addu	v1,a2,t2
   14b14:	000847c0 	sll	t0,t0,0x1f
   14b18:	032f202b 	sltu	a0,t9,t7
   14b1c:	00a81025 	or	v0,a1,t0
   14b20:	0064c021 	addu	t8,v1,a0
   14b24:	afa20000 	sw	v0,0(sp)
   14b28:	3c010800 	lui	at,0x800
   14b2c:	ac390074 	sw	t9,116(at)
   14b30:	3c010800 	lui	at,0x800
   14b34:	ac380070 	sw	t8,112(at)
   14b38:	934f010a 	lbu	t7,266(k0)
   14b3c:	a3a00002 	sb	zero,2(sp)
   14b40:	3c0e80ff 	lui	t6,0x80ff
   14b44:	a3af0001 	sb	t7,1(sp)
   14b48:	8fac0000 	lw	t4,0(sp)
   14b4c:	312b007f 	andi	t3,t1,0x7f
   14b50:	35cdffff 	ori	t5,t6,0xffff
   14b54:	018d4824 	and	t1,t4,t5
   14b58:	000b5600 	sll	t2,t3,0x18
   14b5c:	012a4025 	or	t0,t1,t2
   14b60:	24073000 	li	a3,12288
   14b64:	2406ff80 	li	a2,-128
   14b68:	3c051000 	lui	a1,0x1000
   14b6c:	27bd0008 	addiu	sp,sp,8
   14b70:	af48014c 	sw	t0,332(k0)
   14b74:	af470154 	sw	a3,340(k0)
   14b78:	a7400158 	sh	zero,344(k0)
   14b7c:	a3460152 	sb	a2,338(k0)
   14b80:	03e00008 	jr	ra
   14b84:	af450178 	sw	a1,376(k0)
   14b88:	27bdffe8 	addiu	sp,sp,-24
   14b8c:	afbf0014 	sw	ra,20(sp)
   14b90:	afb00010 	sw	s0,16(sp)
   14b94:	8f650074 	lw	a1,116(k1)
   14b98:	3c068000 	lui	a2,0x8000
   14b9c:	309000ff 	andi	s0,a0,0xff
   14ba0:	00a62025 	or	a0,a1,a2
   14ba4:	0e000060 	jal	0x8000180
   14ba8:	af640074 	sw	a0,116(k1)
   14bac:	93630005 	lbu	v1,5(k1)
   14bb0:	34620008 	ori	v0,v1,0x8
   14bb4:	0e000062 	jal	0x8000188
   14bb8:	a3620005 	sb	v0,5(k1)
   14bbc:	02002021 	move	a0,s0
   14bc0:	8fbf0014 	lw	ra,20(sp)
   14bc4:	8fb00010 	lw	s0,16(sp)
   14bc8:	24050005 	li	a1,5
   14bcc:	24060001 	li	a2,1
   14bd0:	0a00056e 	j	0x80015b8
   14bd4:	27bd0018 	addiu	sp,sp,24
   14bd8:	27bdffe0 	addiu	sp,sp,-32
   14bdc:	3c038000 	lui	v1,0x8000
   14be0:	afb00010 	sw	s0,16(sp)
   14be4:	afbf0018 	sw	ra,24(sp)
   14be8:	afb10014 	sw	s1,20(sp)
   14bec:	34620070 	ori	v0,v1,0x70
   14bf0:	8c470000 	lw	a3,0(v0)
   14bf4:	309000ff 	andi	s0,a0,0xff
   14bf8:	30a800ff 	andi	t0,a1,0xff
   14bfc:	af870030 	sw	a3,48(gp)
   14c00:	8f440178 	lw	a0,376(k0)
   14c04:	0480fffe 	bltz	a0,0x14c00
   14c08:	3c188000 	lui	t8,0x8000
   14c0c:	37110070 	ori	s1,t8,0x70
   14c10:	8e2f0000 	lw	t7,0(s1)
   14c14:	3c0d0800 	lui	t5,0x800
   14c18:	8dad0074 	lw	t5,116(t5)
   14c1c:	3c0a0800 	lui	t2,0x800
   14c20:	8d4a0070 	lw	t2,112(t2)
   14c24:	01e77023 	subu	t6,t7,a3
   14c28:	01ae2821 	addu	a1,t5,t6
   14c2c:	00005821 	move	t3,zero
   14c30:	00ae302b 	sltu	a2,a1,t6
   14c34:	014b4821 	addu	t1,t2,t3
   14c38:	01263821 	addu	a3,t1,a2
   14c3c:	3c010800 	lui	at,0x800
   14c40:	ac250074 	sw	a1,116(at)
   14c44:	00008821 	move	s1,zero
   14c48:	3c010800 	lui	at,0x800
   14c4c:	ac270070 	sw	a3,112(at)
   14c50:	1100000f 	beqz	t0,0x14c90
   14c54:	00000000 	nop
   14c58:	8f620074 	lw	v0,116(k1)
   14c5c:	2619ffff 	addiu	t9,s0,-1
   14c60:	3208007f 	andi	t0,s0,0x7f
   14c64:	0002fe02 	srl	ra,v0,0x18
   14c68:	33e5007f 	andi	a1,ra,0x7f
   14c6c:	15000006 	bnez	t0,0x14c88
   14c70:	332200ff 	andi	v0,t9,0xff
   14c74:	2407ff80 	li	a3,-128
   14c78:	02072026 	xor	a0,s0,a3
   14c7c:	24a3ffff 	addiu	v1,a1,-1
   14c80:	00838025 	or	s0,a0,v1
   14c84:	320200ff 	andi	v0,s0,0xff
   14c88:	00408021 	move	s0,v0
   14c8c:	24111008 	li	s1,4104
   14c90:	0e000060 	jal	0x8000180
   14c94:	00000000 	nop
   14c98:	8f490818 	lw	t1,2072(k0)
   14c9c:	31250004 	andi	a1,t1,0x4
   14ca0:	14a0fffd 	bnez	a1,0x14c98
   14ca4:	3218007f 	andi	t8,s0,0x7f
   14ca8:	001878c0 	sll	t7,t8,0x3
   14cac:	00187140 	sll	t6,t8,0x5
   14cb0:	01cf6821 	addu	t5,t6,t7
   14cb4:	25ac0088 	addiu	t4,t5,136
   14cb8:	af4c0818 	sw	t4,2072(k0)
   14cbc:	274a0980 	addiu	t2,k0,2432
   14cc0:	8d4b0020 	lw	t3,32(t2)
   14cc4:	af4b0144 	sw	t3,324(k0)
   14cc8:	8d460024 	lw	a2,36(t2)
   14ccc:	af460148 	sw	a2,328(k0)
   14cd0:	a3500150 	sb	s0,336(k0)
   14cd4:	0e000062 	jal	0x8000188
   14cd8:	a7400158 	sh	zero,344(k0)
   14cdc:	02201021 	move	v0,s1
   14ce0:	8fbf0018 	lw	ra,24(sp)
   14ce4:	8fb10014 	lw	s1,20(sp)
   14ce8:	8fb00010 	lw	s0,16(sp)
   14cec:	03e00008 	jr	ra
   14cf0:	27bd0020 	addiu	sp,sp,32
   14cf4:	27bdffe8 	addiu	sp,sp,-24
   14cf8:	308400ff 	andi	a0,a0,0xff
   14cfc:	afbf0010 	sw	ra,16(sp)
   14d00:	0e0005b9 	jal	0x80016e4
   14d04:	30a500ff 	andi	a1,a1,0xff
   14d08:	8f830050 	lw	v1,80(gp)
   14d0c:	8fbf0010 	lw	ra,16(sp)
   14d10:	34450040 	ori	a1,v0,0x40
   14d14:	2404ff90 	li	a0,-112
   14d18:	3c021000 	lui	v0,0x1000
   14d1c:	27bd0018 	addiu	sp,sp,24
   14d20:	af43014c 	sw	v1,332(k0)
   14d24:	a3440152 	sb	a0,338(k0)
   14d28:	af450154 	sw	a1,340(k0)
   14d2c:	03e00008 	jr	ra
   14d30:	af420178 	sw	v0,376(k0)
   14d34:	9343093e 	lbu	v1,2366(k0)
   14d38:	30620008 	andi	v0,v1,0x8
   14d3c:	1040000d 	beqz	v0,0x14d74
   14d40:	3c090101 	lui	t1,0x101
   14d44:	3528080a 	ori	t0,t1,0x80a
   14d48:	ac880000 	sw	t0,0(a0)
   14d4c:	8f470074 	lw	a3,116(k0)
   14d50:	ac870004 	sw	a3,4(a0)
   14d54:	3c060800 	lui	a2,0x800
   14d58:	90c63cd0 	lbu	a2,15568(a2)
   14d5c:	30c50010 	andi	a1,a2,0x10
   14d60:	50a00006 	beqzl	a1,0x14d7c
   14d64:	ac800008 	sw	zero,8(a0)
   14d68:	8f6a0060 	lw	t2,96(k1)
   14d6c:	ac8a0008 	sw	t2,8(a0)
   14d70:	2484000c 	addiu	a0,a0,12
   14d74:	03e00008 	jr	ra
   14d78:	00801021 	move	v0,a0
   14d7c:	0a000620 	j	0x8001880
   14d80:	2484000c 	addiu	a0,a0,12
   14d84:	27bdffe8 	addiu	sp,sp,-24
   14d88:	afbf0014 	sw	ra,20(sp)
   14d8c:	afb00010 	sw	s0,16(sp)
   14d90:	9346093f 	lbu	a2,2367(k0)
   14d94:	00a05021 	move	t2,a1
   14d98:	00052880 	sll	a1,a1,0x2
   14d9c:	00853823 	subu	a3,a0,a1
   14da0:	30c200ff 	andi	v0,a2,0xff
   14da4:	24030006 	li	v1,6
   14da8:	3c090800 	lui	t1,0x800
   14dac:	95293cc6 	lhu	t1,15558(t1)
   14db0:	24e8ffd8 	addiu	t0,a3,-40
   14db4:	24050004 	li	a1,4
   14db8:	10430037 	beq	v0,v1,0x14e98
   14dbc:	24060002 	li	a2,2
   14dc0:	9750093c 	lhu	s0,2364(k0)
   14dc4:	3c0f0204 	lui	t7,0x204
   14dc8:	00063400 	sll	a2,a2,0x10
   14dcc:	320effff 	andi	t6,s0,0xffff
   14dd0:	01cf6825 	or	t5,t6,t7
   14dd4:	ac8d0000 	sw	t5,0(a0)
   14dd8:	934c093e 	lbu	t4,2366(k0)
   14ddc:	318b0020 	andi	t3,t4,0x20
   14de0:	11600008 	beqz	t3,0x14e04
   14de4:	00000000 	nop
   14de8:	93430936 	lbu	v1,2358(k0)
   14dec:	3c020103 	lui	v0,0x103
   14df0:	345f0300 	ori	ra,v0,0x300
   14df4:	307900ff 	andi	t9,v1,0xff
   14df8:	033fc025 	or	t8,t9,ra
   14dfc:	24050008 	li	a1,8
   14e00:	ac980004 	sw	t8,4(a0)
   14e04:	93430934 	lbu	v1,2356(k0)
   14e08:	93590921 	lbu	t9,2337(k0)
   14e0c:	0005f882 	srl	ra,a1,0x2
   14e10:	306200ff 	andi	v0,v1,0xff
   14e14:	0002c082 	srl	t8,v0,0x2
   14e18:	332f00ff 	andi	t7,t9,0xff
   14e1c:	00186e00 	sll	t5,t8,0x18
   14e20:	000f7400 	sll	t6,t7,0x10
   14e24:	01ae6025 	or	t4,t5,t6
   14e28:	01892025 	or	a0,t4,t1
   14e2c:	3c094000 	lui	t1,0x4000
   14e30:	00898025 	or	s0,a0,t1
   14e34:	acf0ffd8 	sw	s0,-40(a3)
   14e38:	93430937 	lbu	v1,2359(k0)
   14e3c:	8f4f0948 	lw	t7,2376(k0)
   14e40:	8f580940 	lw	t8,2368(k0)
   14e44:	306200ff 	andi	v0,v1,0xff
   14e48:	004ac821 	addu	t9,v0,t2
   14e4c:	033f7021 	addu	t6,t9,ra
   14e50:	01f86023 	subu	t4,t7,t8
   14e54:	000e6f00 	sll	t5,t6,0x1c
   14e58:	01a65025 	or	t2,t5,a2
   14e5c:	3185ffff 	andi	a1,t4,0xffff
   14e60:	001f5880 	sll	t3,ra,0x2
   14e64:	01454825 	or	t1,t2,a1
   14e68:	01683821 	addu	a3,t3,t0
   14e6c:	ad090020 	sw	t1,32(t0)
   14e70:	0e000060 	jal	0x8000180
   14e74:	24f00028 	addiu	s0,a3,40
   14e78:	24040004 	li	a0,4
   14e7c:	0e000062 	jal	0x8000188
   14e80:	a364003f 	sb	a0,63(k1)
   14e84:	02001021 	move	v0,s0
   14e88:	8fbf0014 	lw	ra,20(sp)
   14e8c:	8fb00010 	lw	s0,16(sp)
   14e90:	03e00008 	jr	ra
   14e94:	27bd0018 	addiu	sp,sp,24
   14e98:	0a000633 	j	0x80018cc
   14e9c:	24060012 	li	a2,18
   14ea0:	27bdffd0 	addiu	sp,sp,-48
   14ea4:	24090010 	li	t1,16
   14ea8:	afb60028 	sw	s6,40(sp)
   14eac:	afb50024 	sw	s5,36(sp)
   14eb0:	afb40020 	sw	s4,32(sp)
   14eb4:	afb10014 	sw	s1,20(sp)
   14eb8:	afb00010 	sw	s0,16(sp)
   14ebc:	3c010800 	lui	at,0x800
   14ec0:	a0293cd0 	sb	t1,15568(at)
   14ec4:	afbf002c 	sw	ra,44(sp)
   14ec8:	afb3001c 	sw	s3,28(sp)
   14ecc:	afb20018 	sw	s2,24(sp)
   14ed0:	97480908 	lhu	t0,2312(k0)
   14ed4:	309500ff 	andi	s5,a0,0xff
   14ed8:	3c02000e 	lui	v0,0xe
   14edc:	3107ffff 	andi	a3,t0,0xffff
   14ee0:	000731c0 	sll	a2,a3,0x7
   14ee4:	af46002c 	sw	a2,44(k0)
   14ee8:	97440908 	lhu	a0,2312(k0)
   14eec:	9344010b 	lbu	a0,267(k0)
   14ef0:	30b400ff 	andi	s4,a1,0xff
   14ef4:	03428021 	addu	s0,k0,v0
   14ef8:	30830030 	andi	v1,a0,0x30
   14efc:	0000b021 	move	s6,zero
   14f00:	10600107 	beqz	v1,0x15320
   14f04:	00008821 	move	s1,zero
   14f08:	240c0004 	li	t4,4
   14f0c:	3c010800 	lui	at,0x800
   14f10:	a02c3cd0 	sb	t4,15568(at)
   14f14:	934b093e 	lbu	t3,2366(k0)
   14f18:	000b5600 	sll	t2,t3,0x18
   14f1c:	000a2e03 	sra	a1,t2,0x18
   14f20:	04a0014b 	bltz	a1,0x15450
   14f24:	00000000 	nop
   14f28:	af400048 	sw	zero,72(k0)
   14f2c:	934f010b 	lbu	t7,267(k0)
   14f30:	31ee0020 	andi	t6,t7,0x20
   14f34:	11c00006 	beqz	t6,0x14f50
   14f38:	00000000 	nop
   14f3c:	9358093e 	lbu	t8,2366(k0)
   14f40:	00189e00 	sll	s3,t8,0x18
   14f44:	00139603 	sra	s2,s3,0x18
   14f48:	0640016b 	bltz	s2,0x154f8
   14f4c:	00000000 	nop
   14f50:	9344010b 	lbu	a0,267(k0)
   14f54:	30830040 	andi	v1,a0,0x40
   14f58:	10600003 	beqz	v1,0x14f68
   14f5c:	8f930050 	lw	s3,80(gp)
   14f60:	8f820050 	lw	v0,80(gp)
   14f64:	2453ffff 	addiu	s3,v0,-1
   14f68:	9347093e 	lbu	a3,2366(k0)
   14f6c:	30e60008 	andi	a2,a3,0x8
   14f70:	14c00002 	bnez	a2,0x14f7c
   14f74:	24120003 	li	s2,3
   14f78:	00009021 	move	s2,zero
   14f7c:	9619002c 	lhu	t9,44(s0)
   14f80:	93580934 	lbu	t8,2356(k0)
   14f84:	934f0937 	lbu	t7,2359(k0)
   14f88:	a7990058 	sh	t9,88(gp)
   14f8c:	330c00ff 	andi	t4,t8,0xff
   14f90:	31ee00ff 	andi	t6,t7,0xff
   14f94:	024e6821 	addu	t5,s2,t6
   14f98:	000d5880 	sll	t3,t5,0x2
   14f9c:	016c5021 	addu	t2,t3,t4
   14fa0:	01514021 	addu	t0,t2,s1
   14fa4:	3c010800 	lui	at,0x800
   14fa8:	a4283cc6 	sh	t0,15558(at)
   14fac:	92050018 	lbu	a1,24(s0)
   14fb0:	30a900ff 	andi	t1,a1,0xff
   14fb4:	01091821 	addu	v1,t0,t1
   14fb8:	3c010800 	lui	at,0x800
   14fbc:	a4233cc8 	sh	v1,15560(at)
   14fc0:	92110018 	lbu	s1,24(s0)
   14fc4:	16200003 	bnez	s1,0x14fd4
   14fc8:	2467000a 	addiu	a3,v1,10
   14fcc:	0000000d 	break
   14fd0:	2467000a 	addiu	a3,v1,10
   14fd4:	30f0ffff 	andi	s0,a3,0xffff
   14fd8:	3c010800 	lui	at,0x800
   14fdc:	a4233cca 	sh	v1,15562(at)
   14fe0:	3c010800 	lui	at,0x800
   14fe4:	a4203cc0 	sh	zero,15552(at)
   14fe8:	3c010800 	lui	at,0x800
   14fec:	a4203cbc 	sh	zero,15548(at)
   14ff0:	0e00009e 	jal	0x8000278
   14ff4:	02002021 	move	a0,s0
   14ff8:	0e00049a 	jal	0x8001268
   14ffc:	00402021 	move	a0,v0
   15000:	8f4b002c 	lw	t3,44(k0)
   15004:	974a0908 	lhu	t2,2312(k0)
   15008:	3c0c000e 	lui	t4,0xe
   1500c:	034c3821 	addu	a3,k0,t4
   15010:	3145ffff 	andi	a1,t2,0xffff
   15014:	000549c0 	sll	t1,a1,0x7
   15018:	af49002c 	sw	t1,44(k0)
   1501c:	97430908 	lhu	v1,2312(k0)
   15020:	94f1001a 	lhu	s1,26(a3)
   15024:	00404021 	move	t0,v0
   15028:	241f0001 	li	ra,1
   1502c:	3226ffff 	andi	a2,s1,0xffff
   15030:	ac460000 	sw	a2,0(v0)
   15034:	8ce2001c 	lw	v0,28(a3)
   15038:	ad020004 	sw	v0,4(t0)
   1503c:	8ce40020 	lw	a0,32(a3)
   15040:	ad040008 	sw	a0,8(t0)
   15044:	90e30019 	lbu	v1,25(a3)
   15048:	30630003 	andi	v1,v1,0x3
   1504c:	107f00d6 	beq	v1,ra,0x153a8
   15050:	286d0002 	slti	t5,v1,2
   15054:	15a0011c 	bnez	t5,0x154c8
   15058:	240e0002 	li	t6,2
   1505c:	106e010e 	beq	v1,t6,0x15498
   15060:	240f0003 	li	t7,3
   15064:	106f00e3 	beq	v1,t7,0x153f4
   15068:	00000000 	nop
   1506c:	3c090800 	lui	t1,0x800
   15070:	95293cc0 	lhu	t1,15552(t1)
   15074:	934e0934 	lbu	t6,2356(k0)
   15078:	93510921 	lbu	s1,2337(k0)
   1507c:	3c0a0800 	lui	t2,0x800
   15080:	954a3cc6 	lhu	t2,15558(t2)
   15084:	31cd00ff 	andi	t5,t6,0xff
   15088:	94f9002a 	lhu	t9,42(a3)
   1508c:	000d1882 	srl	v1,t5,0x2
   15090:	97870058 	lhu	a3,88(gp)
   15094:	322c00ff 	andi	t4,s1,0xff
   15098:	00032e00 	sll	a1,v1,0x18
   1509c:	000c2400 	sll	a0,t4,0x10
   150a0:	3126ffff 	andi	a2,t1,0xffff
   150a4:	3142ffff 	andi	v0,t2,0xffff
   150a8:	00a4f825 	or	ra,a1,a0
   150ac:	00464821 	addu	t1,v0,a2
   150b0:	03e97825 	or	t7,ra,t1
   150b4:	03277021 	addu	t6,t9,a3
   150b8:	3c184000 	lui	t8,0x4000
   150bc:	01f86825 	or	t5,t7,t8
   150c0:	000e8c00 	sll	s1,t6,0x10
   150c4:	ad0d0000 	sw	t5,0(t0)
   150c8:	ad110004 	sw	s1,4(t0)
   150cc:	934c0920 	lbu	t4,2336(k0)
   150d0:	3c030006 	lui	v1,0x6
   150d4:	25110014 	addiu	s1,t0,20
   150d8:	000c2e00 	sll	a1,t4,0x18
   150dc:	00a31025 	or	v0,a1,v1
   150e0:	ad020008 	sw	v0,8(t0)
   150e4:	8f49092c 	lw	t1,2348(k0)
   150e8:	24e40001 	addiu	a0,a3,1
   150ec:	309f7fff 	andi	ra,a0,0x7fff
   150f0:	ad09000c 	sw	t1,12(t0)
   150f4:	8f460930 	lw	a2,2352(k0)
   150f8:	25090028 	addiu	t1,t0,40
   150fc:	a79f0058 	sh	ra,88(gp)
   15100:	ad060010 	sw	a2,16(t0)
   15104:	8f590938 	lw	t9,2360(k0)
   15108:	01203021 	move	a2,t1
   1510c:	ad190014 	sw	t9,20(t0)
   15110:	ae330004 	sw	s3,4(s1)
   15114:	8f580940 	lw	t8,2368(k0)
   15118:	ae380008 	sw	t8,8(s1)
   1511c:	934f0937 	lbu	t7,2359(k0)
   15120:	3c0c0800 	lui	t4,0x800
   15124:	918c3cd0 	lbu	t4,15568(t4)
   15128:	ae200010 	sw	zero,16(s1)
   1512c:	31ee00ff 	andi	t6,t7,0xff
   15130:	01d26821 	addu	t5,t6,s2
   15134:	000d2f00 	sll	a1,t5,0x1c
   15138:	000c1c00 	sll	v1,t4,0x10
   1513c:	00a31025 	or	v0,a1,v1
   15140:	3447ffff 	ori	a3,v0,0xffff
   15144:	ae27000c 	sw	a3,12(s1)
   15148:	af4b002c 	sw	t3,44(k0)
   1514c:	934b093e 	lbu	t3,2366(k0)
   15150:	31730008 	andi	s3,t3,0x8
   15154:	1260000d 	beqz	s3,0x1518c
   15158:	3c0f0101 	lui	t7,0x101
   1515c:	35e7080a 	ori	a3,t7,0x80a
   15160:	ad070028 	sw	a3,40(t0)
   15164:	8f4b0074 	lw	t3,116(k0)
   15168:	ad2b0004 	sw	t3,4(t1)
   1516c:	3c130800 	lui	s3,0x800
   15170:	92733cd0 	lbu	s3,15568(s3)
   15174:	32680010 	andi	t0,s3,0x10
   15178:	51000003 	beqzl	t0,0x15188
   1517c:	ad200008 	sw	zero,8(t1)
   15180:	8f780060 	lw	t8,96(k1)
   15184:	ad380008 	sw	t8,8(t1)
   15188:	2526000c 	addiu	a2,t1,12
   1518c:	12c00038 	beqz	s6,0x15270
   15190:	00000000 	nop
   15194:	935f093f 	lbu	ra,2367(k0)
   15198:	24160006 	li	s6,6
   1519c:	24070004 	li	a3,4
   151a0:	33f900ff 	andi	t9,ra,0xff
   151a4:	133600d2 	beq	t9,s6,0x154f0
   151a8:	24080002 	li	t0,2
   151ac:	9743093c 	lhu	v1,2364(k0)
   151b0:	3c0c0204 	lui	t4,0x204
   151b4:	3064ffff 	andi	a0,v1,0xffff
   151b8:	008c2825 	or	a1,a0,t4
   151bc:	acc50000 	sw	a1,0(a2)
   151c0:	9342093e 	lbu	v0,2366(k0)
   151c4:	30490020 	andi	t1,v0,0x20
   151c8:	11200008 	beqz	t1,0x151ec
   151cc:	00000000 	nop
   151d0:	934b0936 	lbu	t3,2358(k0)
   151d4:	3c130103 	lui	s3,0x103
   151d8:	366e0300 	ori	t6,s3,0x300
   151dc:	316d00ff 	andi	t5,t3,0xff
   151e0:	01ae8825 	or	s1,t5,t6
   151e4:	acd10004 	sw	s1,4(a2)
   151e8:	24070008 	li	a3,8
   151ec:	93490934 	lbu	t1,2356(k0)
   151f0:	93590921 	lbu	t9,2337(k0)
   151f4:	314bffff 	andi	t3,t2,0xffff
   151f8:	313f00ff 	andi	ra,t1,0xff
   151fc:	001fb082 	srl	s6,ra,0x2
   15200:	333800ff 	andi	t8,t9,0xff
   15204:	00165600 	sll	t2,s6,0x18
   15208:	00187c00 	sll	t7,t8,0x10
   1520c:	014f9825 	or	s3,t2,t7
   15210:	00122880 	sll	a1,s2,0x2
   15214:	026b6825 	or	t5,s3,t3
   15218:	3c0e4000 	lui	t6,0x4000
   1521c:	00c55023 	subu	t2,a2,a1
   15220:	01ae8825 	or	s1,t5,t6
   15224:	ad51ffd8 	sw	s1,-40(t2)
   15228:	93430937 	lbu	v1,2359(k0)
   1522c:	8f5f0948 	lw	ra,2376(k0)
   15230:	8f490940 	lw	t1,2368(k0)
   15234:	306c00ff 	andi	t4,v1,0xff
   15238:	01921021 	addu	v0,t4,s2
   1523c:	00072082 	srl	a0,a3,0x2
   15240:	0044c821 	addu	t9,v0,a0
   15244:	03e97823 	subu	t7,ra,t1
   15248:	0019c700 	sll	t8,t9,0x1c
   1524c:	0008b400 	sll	s6,t0,0x10
   15250:	03164025 	or	t0,t8,s6
   15254:	31e7ffff 	andi	a3,t7,0xffff
   15258:	01073025 	or	a2,t0,a3
   1525c:	0e000060 	jal	0x8000180
   15260:	ad46fff8 	sw	a2,-8(t2)
   15264:	24120004 	li	s2,4
   15268:	0e000062 	jal	0x8000188
   1526c:	a372003f 	sb	s2,63(k1)
   15270:	0e0000c7 	jal	0x800031c
   15274:	02002021 	move	a0,s0
   15278:	3c120800 	lui	s2,0x800
   1527c:	92523cd0 	lbu	s2,15568(s2)
   15280:	32500003 	andi	s0,s2,0x3
   15284:	1200000f 	beqz	s0,0x152c4
   15288:	02a02021 	move	a0,s5
   1528c:	8f820050 	lw	v0,80(gp)
   15290:	24470001 	addiu	a3,v0,1
   15294:	af870050 	sw	a3,80(gp)
   15298:	af670050 	sw	a3,80(k1)
   1529c:	8f680054 	lw	t0,84(k1)
   152a0:	01073023 	subu	a2,t0,a3
   152a4:	18c00002 	blez	a2,0x152b0
   152a8:	00e02021 	move	a0,a3
   152ac:	8f640054 	lw	a0,84(k1)
   152b0:	af640054 	sw	a0,84(k1)
   152b4:	8f4c0074 	lw	t4,116(k0)
   152b8:	258401f4 	addiu	a0,t4,500
   152bc:	af64000c 	sw	a0,12(k1)
   152c0:	02a02021 	move	a0,s5
   152c4:	02802821 	move	a1,s4
   152c8:	a7600068 	sh	zero,104(k1)
   152cc:	0e0005b9 	jal	0x80016e4
   152d0:	3c141000 	lui	s4,0x1000
   152d4:	8f8d0050 	lw	t5,80(gp)
   152d8:	34550006 	ori	s5,v0,0x6
   152dc:	af4d014c 	sw	t5,332(k0)
   152e0:	8f910048 	lw	s1,72(gp)
   152e4:	8fbf002c 	lw	ra,44(sp)
   152e8:	8fb60028 	lw	s6,40(sp)
   152ec:	26230001 	addiu	v1,s1,1
   152f0:	af830048 	sw	v1,72(gp)
   152f4:	8fb3001c 	lw	s3,28(sp)
   152f8:	a3510152 	sb	s1,338(k0)
   152fc:	8fb20018 	lw	s2,24(sp)
   15300:	af550154 	sw	s5,340(k0)
   15304:	8fb10014 	lw	s1,20(sp)
   15308:	af540178 	sw	s4,376(k0)
   1530c:	8fb50024 	lw	s5,36(sp)
   15310:	8fb40020 	lw	s4,32(sp)
   15314:	8fb00010 	lw	s0,16(sp)
   15318:	03e00008 	jr	ra
   1531c:	27bd0030 	addiu	sp,sp,48
   15320:	9358093e 	lbu	t8,2366(k0)
   15324:	00189e00 	sll	s3,t8,0x18
   15328:	00139603 	sra	s2,s3,0x18
   1532c:	06420051 	bltzl	s2,0x15474
   15330:	24110002 	li	s1,2
   15334:	93440923 	lbu	a0,2339(k0)
   15338:	30830002 	andi	v1,a0,0x2
   1533c:	1060fefb 	beqz	v1,0x14f2c
   15340:	8f860060 	lw	a2,96(gp)
   15344:	8f820050 	lw	v0,80(gp)
   15348:	14c2fef8 	bne	a2,v0,0x14f2c
   1534c:	00000000 	nop
   15350:	0e000060 	jal	0x8000180
   15354:	00000000 	nop
   15358:	9369003f 	lbu	t1,63(k1)
   1535c:	24070016 	li	a3,22
   15360:	312800ff 	andi	t0,t1,0xff
   15364:	1107000c 	beq	t0,a3,0x15398
   15368:	24050008 	li	a1,8
   1536c:	3c0c0800 	lui	t4,0x800
   15370:	918c3cd0 	lbu	t4,15568(t4)
   15374:	358b0001 	ori	t3,t4,0x1
   15378:	3c010800 	lui	at,0x800
   1537c:	a02b3cd0 	sb	t3,15568(at)
   15380:	936a003f 	lbu	t2,63(k1)
   15384:	314300ff 	andi	v1,t2,0xff
   15388:	10650065 	beq	v1,a1,0x15520
   1538c:	240d000a 	li	t5,10
   15390:	106d005e 	beq	v1,t5,0x1550c
   15394:	2402000c 	li	v0,12
   15398:	0e000062 	jal	0x8000188
   1539c:	00000000 	nop
   153a0:	0a00068e 	j	0x8001a38
   153a4:	00000000 	nop
   153a8:	3c090800 	lui	t1,0x800
   153ac:	95293cc0 	lhu	t1,15552(t1)
   153b0:	3c040800 	lui	a0,0x800
   153b4:	94843cca 	lhu	a0,15562(a0)
   153b8:	3c1f0800 	lui	ra,0x800
   153bc:	97ff3cbc 	lhu	ra,15548(ra)
   153c0:	94f80024 	lhu	t8,36(a3)
   153c4:	3123ffff 	andi	v1,t1,0xffff
   153c8:	0083c821 	addu	t9,a0,v1
   153cc:	033f7823 	subu	t7,t9,ra
   153d0:	00186c00 	sll	t5,t8,0x10
   153d4:	25eefff2 	addiu	t6,t7,-14
   153d8:	01ae6025 	or	t4,t5,t6
   153dc:	240a0800 	li	t2,2048
   153e0:	ad0c000c 	sw	t4,12(t0)
   153e4:	ad0a0014 	sw	t2,20(t0)
   153e8:	ad000010 	sw	zero,16(t0)
   153ec:	0a0006e0 	j	0x8001b80
   153f0:	25080018 	addiu	t0,t0,24
   153f4:	3c090800 	lui	t1,0x800
   153f8:	95293cc0 	lhu	t1,15552(t1)
   153fc:	3c1f0800 	lui	ra,0x800
   15400:	97ff3cca 	lhu	ra,15562(ra)
   15404:	3c190800 	lui	t9,0x800
   15408:	97393cbc 	lhu	t9,15548(t9)
   1540c:	94ef0024 	lhu	t7,36(a3)
   15410:	3124ffff 	andi	a0,t1,0xffff
   15414:	94ee0028 	lhu	t6,40(a3)
   15418:	03e4c021 	addu	t8,ra,a0
   1541c:	03196823 	subu	t5,t8,t9
   15420:	000f2c00 	sll	a1,t7,0x10
   15424:	000e5400 	sll	t2,t6,0x10
   15428:	25acffee 	addiu	t4,t5,-18
   1542c:	014c8825 	or	s1,t2,t4
   15430:	34a28100 	ori	v0,a1,0x8100
   15434:	24060800 	li	a2,2048
   15438:	ad02000c 	sw	v0,12(t0)
   1543c:	ad110010 	sw	s1,16(t0)
   15440:	ad060018 	sw	a2,24(t0)
   15444:	ad000014 	sw	zero,20(t0)
   15448:	0a0006e0 	j	0x8001b80
   1544c:	2508001c 	addiu	t0,t0,28
   15450:	8f6e0084 	lw	t6,132(k1)
   15454:	8f4d0940 	lw	t5,2368(k0)
   15458:	11a0feb3 	beqz	t5,0x14f28
   1545c:	af8e0050 	sw	t6,80(gp)
   15460:	240f0014 	li	t7,20
   15464:	3c010800 	lui	at,0x800
   15468:	a02f3cd0 	sb	t7,15568(at)
   1546c:	0a00068d 	j	0x8001a34
   15470:	00000000 	nop
   15474:	3c010800 	lui	at,0x800
   15478:	a0313cd0 	sb	s1,15568(at)
   1547c:	935f093e 	lbu	ra,2366(k0)
   15480:	24160001 	li	s6,1
   15484:	33f90020 	andi	t9,ra,0x20
   15488:	1720fea8 	bnez	t9,0x14f2c
   1548c:	24110008 	li	s1,8
   15490:	0a00068e 	j	0x8001a38
   15494:	24110004 	li	s1,4
   15498:	94e50024 	lhu	a1,36(a3)
   1549c:	94f10028 	lhu	s1,40(a3)
   154a0:	3c090800 	lui	t1,0x800
   154a4:	95293cc0 	lhu	t1,15552(t1)
   154a8:	00051400 	sll	v0,a1,0x10
   154ac:	00113400 	sll	a2,s1,0x10
   154b0:	34448100 	ori	a0,v0,0x8100
   154b4:	34c30800 	ori	v1,a2,0x800
   154b8:	ad04000c 	sw	a0,12(t0)
   154bc:	ad030010 	sw	v1,16(t0)
   154c0:	0a0006e0 	j	0x8001b80
   154c4:	25080014 	addiu	t0,t0,20
   154c8:	1460fee8 	bnez	v1,0x1506c
   154cc:	00000000 	nop
   154d0:	94ff0024 	lhu	ra,36(a3)
   154d4:	3c090800 	lui	t1,0x800
   154d8:	95293cc0 	lhu	t1,15552(t1)
   154dc:	001fcc00 	sll	t9,ra,0x10
   154e0:	37380800 	ori	t8,t9,0x800
   154e4:	ad18000c 	sw	t8,12(t0)
   154e8:	0a0006e0 	j	0x8001b80
   154ec:	25080010 	addiu	t0,t0,16
   154f0:	0a00072e 	j	0x8001cb8
   154f4:	24080012 	li	t0,18
   154f8:	8f7f004c 	lw	ra,76(k1)
   154fc:	af7f0054 	sw	ra,84(k1)
   15500:	8f790054 	lw	t9,84(k1)
   15504:	0a000697 	j	0x8001a5c
   15508:	af790050 	sw	t9,80(k1)
   1550c:	a362003f 	sb	v0,63(k1)
   15510:	0e000062 	jal	0x8000188
   15514:	00000000 	nop
   15518:	0a00068e 	j	0x8001a38
   1551c:	00000000 	nop
   15520:	24020014 	li	v0,20
   15524:	0a000807 	j	0x800201c
   15528:	a362003f 	sb	v0,63(k1)
   1552c:	27bdffe8 	addiu	sp,sp,-24
   15530:	308400ff 	andi	a0,a0,0xff
   15534:	afbf0010 	sw	ra,16(sp)
   15538:	0e0005b9 	jal	0x80016e4
   1553c:	30a500ff 	andi	a1,a1,0xff
   15540:	9378007e 	lbu	t8,126(k1)
   15544:	9379007f 	lbu	t9,127(k1)
   15548:	936e0080 	lbu	t6,128(k1)
   1554c:	9368007a 	lbu	t0,122(k1)
   15550:	332f00ff 	andi	t7,t9,0xff
   15554:	00186600 	sll	t4,t8,0x18
   15558:	000f6c00 	sll	t5,t7,0x10
   1555c:	31cb00ff 	andi	t3,t6,0xff
   15560:	018d4825 	or	t1,t4,t5
   15564:	000b5200 	sll	t2,t3,0x8
   15568:	8fbf0010 	lw	ra,16(sp)
   1556c:	012a3825 	or	a3,t1,t2
   15570:	310600ff 	andi	a2,t0,0xff
   15574:	34447000 	ori	a0,v0,0x7000
   15578:	00e62825 	or	a1,a3,a2
   1557c:	2402ff81 	li	v0,-127
   15580:	3c031000 	lui	v1,0x1000
   15584:	27bd0018 	addiu	sp,sp,24
   15588:	af45014c 	sw	a1,332(k0)
   1558c:	af440154 	sw	a0,340(k0)
   15590:	a3420152 	sb	v0,338(k0)
   15594:	03e00008 	jr	ra
   15598:	af430178 	sw	v1,376(k0)
   1559c:	27bdffd8 	addiu	sp,sp,-40
   155a0:	afb20018 	sw	s2,24(sp)
   155a4:	afb10014 	sw	s1,20(sp)
   155a8:	afb00010 	sw	s0,16(sp)
   155ac:	afbf0020 	sw	ra,32(sp)
   155b0:	afb3001c 	sw	s3,28(sp)
   155b4:	93420109 	lbu	v0,265(k0)
   155b8:	308600ff 	andi	a2,a0,0xff
   155bc:	30b000ff 	andi	s0,a1,0xff
   155c0:	000618c2 	srl	v1,a2,0x3
   155c4:	32040002 	andi	a0,s0,0x2
   155c8:	30710001 	andi	s1,v1,0x1
   155cc:	14800005 	bnez	a0,0x155e4
   155d0:	305200ff 	andi	s2,v0,0xff
   155d4:	93670005 	lbu	a3,5(k1)
   155d8:	30e50008 	andi	a1,a3,0x8
   155dc:	10a0000d 	beqz	a1,0x15614
   155e0:	30c80010 	andi	t0,a2,0x10
   155e4:	02402021 	move	a0,s2
   155e8:	0e0005a5 	jal	0x8001694
   155ec:	02202821 	move	a1,s1
   155f0:	24040001 	li	a0,1
   155f4:	8fbf0020 	lw	ra,32(sp)
   155f8:	8fb3001c 	lw	s3,28(sp)
   155fc:	8fb20018 	lw	s2,24(sp)
   15600:	8fb10014 	lw	s1,20(sp)
   15604:	8fb00010 	lw	s0,16(sp)
   15608:	00801021 	move	v0,a0
   1560c:	03e00008 	jr	ra
   15610:	27bd0028 	addiu	sp,sp,40
   15614:	15000032 	bnez	t0,0x156e0
   15618:	00000000 	nop
   1561c:	93430109 	lbu	v1,265(k0)
   15620:	00002821 	move	a1,zero
   15624:	3062007f 	andi	v0,v1,0x7f
   15628:	000220c0 	sll	a0,v0,0x3
   1562c:	0002f940 	sll	ra,v0,0x5
   15630:	03e49821 	addu	s3,ra,a0
   15634:	26790088 	addiu	t9,s3,136
   15638:	033b9821 	addu	s3,t9,k1
   1563c:	8e780024 	lw	t8,36(s3)
   15640:	8e6f0008 	lw	t7,8(s3)
   15644:	130f0046 	beq	t8,t7,0x15760
   15648:	00000000 	nop
   1564c:	8f640084 	lw	a0,132(k1)
   15650:	24180002 	li	t8,2
   15654:	0004fd82 	srl	ra,a0,0x16
   15658:	33f90003 	andi	t9,ra,0x3
   1565c:	1338007c 	beq	t9,t8,0x15850
   15660:	00000000 	nop
   15664:	93660083 	lbu	a2,131(k1)
   15668:	934a0109 	lbu	t2,265(k0)
   1566c:	51460004 	beql	t2,a2,0x15680
   15670:	3205007c 	andi	a1,s0,0x7c
   15674:	10a00060 	beqz	a1,0x157f8
   15678:	00000000 	nop
   1567c:	3205007c 	andi	a1,s0,0x7c
   15680:	14a00053 	bnez	a1,0x157d0
   15684:	02402021 	move	a0,s2
   15688:	16200006 	bnez	s1,0x156a4
   1568c:	32040001 	andi	a0,s0,0x1
   15690:	8e7f0024 	lw	ra,36(s3)
   15694:	8f590104 	lw	t9,260(k0)
   15698:	17f9ffd6 	bne	ra,t9,0x155f4
   1569c:	00002021 	move	a0,zero
   156a0:	32040001 	andi	a0,s0,0x1
   156a4:	1080000a 	beqz	a0,0x156d0
   156a8:	02402021 	move	a0,s2
   156ac:	8f420940 	lw	v0,2368(k0)
   156b0:	8f930064 	lw	s3,100(gp)
   156b4:	10530006 	beq	v0,s3,0x156d0
   156b8:	00000000 	nop
   156bc:	0e00066b 	jal	0x80019ac
   156c0:	02202821 	move	a1,s1
   156c4:	8f430940 	lw	v1,2368(k0)
   156c8:	af630044 	sw	v1,68(k1)
   156cc:	02402021 	move	a0,s2
   156d0:	0e000600 	jal	0x8001800
   156d4:	02202821 	move	a1,s1
   156d8:	0a000840 	j	0x8002100
   156dc:	24040001 	li	a0,1
   156e0:	3c090800 	lui	t1,0x800
   156e4:	8d290064 	lw	t1,100(t1)
   156e8:	25260001 	addiu	a2,t1,1
   156ec:	3c010800 	lui	at,0x800
   156f0:	ac260064 	sw	a2,100(at)
   156f4:	16000012 	bnez	s0,0x15740
   156f8:	00000000 	nop
   156fc:	8f6d0084 	lw	t5,132(k1)
   15700:	3c0e00c0 	lui	t6,0xc0
   15704:	01ae6024 	and	t4,t5,t6
   15708:	15800005 	bnez	t4,0x15720
   1570c:	02402021 	move	a0,s2
   15710:	0e00080e 	jal	0x8002038
   15714:	02202821 	move	a1,s1
   15718:	0a000840 	j	0x8002100
   1571c:	24040001 	li	a0,1
   15720:	24050004 	li	a1,4
   15724:	0e00056e 	jal	0x80015b8
   15728:	24060001 	li	a2,1
   1572c:	02402021 	move	a0,s2
   15730:	0e00080e 	jal	0x8002038
   15734:	02202821 	move	a1,s1
   15738:	0a000840 	j	0x8002100
   1573c:	24040001 	li	a0,1
   15740:	0e000041 	jal	0x8000104
   15744:	24040001 	li	a0,1
   15748:	936b007d 	lbu	t3,125(k1)
   1574c:	020b5025 	or	t2,s0,t3
   15750:	0e000062 	jal	0x8000188
   15754:	a36a007d 	sb	t2,125(k1)
   15758:	0a000883 	j	0x800220c
   1575c:	8f6d0084 	lw	t5,132(k1)
   15760:	8f660074 	lw	a2,116(k1)
   15764:	8f480104 	lw	t0,260(k0)
   15768:	8e670024 	lw	a3,36(s3)
   1576c:	00064e02 	srl	t1,a2,0x18
   15770:	1507ffb6 	bne	t0,a3,0x1564c
   15774:	3126007f 	andi	a2,t1,0x7f
   15778:	936b0083 	lbu	t3,131(k1)
   1577c:	26440001 	addiu	a0,s2,1
   15780:	308a007f 	andi	t2,a0,0x7f
   15784:	11460043 	beq	t2,a2,0x15894
   15788:	316300ff 	andi	v1,t3,0xff
   1578c:	5464ffb0 	bnel	v1,a0,0x15650
   15790:	8f640084 	lw	a0,132(k1)
   15794:	26450001 	addiu	a1,s2,1
   15798:	30b1007f 	andi	s1,a1,0x7f
   1579c:	30a200ff 	andi	v0,a1,0xff
   157a0:	12260004 	beq	s1,a2,0x157b4
   157a4:	24050001 	li	a1,1
   157a8:	00409021 	move	s2,v0
   157ac:	0a000856 	j	0x8002158
   157b0:	24110001 	li	s1,1
   157b4:	240fff80 	li	t7,-128
   157b8:	024f7024 	and	t6,s2,t7
   157bc:	01cf9026 	xor	s2,t6,t7
   157c0:	324200ff 	andi	v0,s2,0xff
   157c4:	00409021 	move	s2,v0
   157c8:	0a000856 	j	0x8002158
   157cc:	24110001 	li	s1,1
   157d0:	0e00066b 	jal	0x80019ac
   157d4:	02202821 	move	a1,s1
   157d8:	32180030 	andi	t8,s0,0x30
   157dc:	1300ffaa 	beqz	t8,0x15688
   157e0:	32100082 	andi	s0,s0,0x82
   157e4:	02402021 	move	a0,s2
   157e8:	0e0005a5 	jal	0x8001694
   157ec:	02202821 	move	a1,s1
   157f0:	0a000840 	j	0x8002100
   157f4:	24040001 	li	a0,1
   157f8:	8f6e0074 	lw	t6,116(k1)
   157fc:	3c0f8000 	lui	t7,0x8000
   15800:	24050003 	li	a1,3
   15804:	01cf9025 	or	s2,t6,t7
   15808:	af720074 	sw	s2,116(k1)
   1580c:	93710083 	lbu	s1,131(k1)
   15810:	24060001 	li	a2,1
   15814:	0e00056e 	jal	0x80015b8
   15818:	322400ff 	andi	a0,s1,0xff
   1581c:	0e000041 	jal	0x8000104
   15820:	24040001 	li	a0,1
   15824:	936d007d 	lbu	t5,125(k1)
   15828:	020d6025 	or	t4,s0,t5
   1582c:	0e000062 	jal	0x8000188
   15830:	a36c007d 	sb	t4,125(k1)
   15834:	3c0b0800 	lui	t3,0x800
   15838:	8d6b0054 	lw	t3,84(t3)
   1583c:	25700001 	addiu	s0,t3,1
   15840:	3c010800 	lui	at,0x800
   15844:	ac300054 	sw	s0,84(at)
   15848:	0a000840 	j	0x8002100
   1584c:	24040001 	li	a0,1
   15850:	8f680074 	lw	t0,116(k1)
   15854:	3c098000 	lui	t1,0x8000
   15858:	24050004 	li	a1,4
   1585c:	01093825 	or	a3,t0,t1
   15860:	af670074 	sw	a3,116(k1)
   15864:	93630083 	lbu	v1,131(k1)
   15868:	24060001 	li	a2,1
   1586c:	0e00056e 	jal	0x80015b8
   15870:	306400ff 	andi	a0,v1,0xff
   15874:	0e000041 	jal	0x8000104
   15878:	24040001 	li	a0,1
   1587c:	9362007d 	lbu	v0,125(k1)
   15880:	02029825 	or	s3,s0,v0
   15884:	0e000062 	jal	0x8000188
   15888:	a373007d 	sb	s3,125(k1)
   1588c:	0a000840 	j	0x8002100
   15890:	24040001 	li	a0,1
   15894:	324d0080 	andi	t5,s2,0x80
   15898:	39ac0080 	xori	t4,t5,0x80
   1589c:	546cff6c 	bnel	v1,t4,0x15650
   158a0:	8f640084 	lw	a0,132(k1)
   158a4:	0a0008a9 	j	0x80022a4
   158a8:	26450001 	addiu	a1,s2,1
   158ac:	27bdffc8 	addiu	sp,sp,-56
   158b0:	3c0a0008 	lui	t2,0x8
   158b4:	afbf0030 	sw	ra,48(sp)
   158b8:	afb5002c 	sw	s5,44(sp)
   158bc:	afb40028 	sw	s4,40(sp)
   158c0:	afb30024 	sw	s3,36(sp)
   158c4:	afb20020 	sw	s2,32(sp)
   158c8:	afb1001c 	sw	s1,28(sp)
   158cc:	afb00018 	sw	s0,24(sp)
   158d0:	034ad821 	addu	k1,k0,t2
   158d4:	24090040 	li	t1,64
   158d8:	af490814 	sw	t1,2068(k0)
   158dc:	af400810 	sw	zero,2064(k0)
   158e0:	8f420944 	lw	v0,2372(k0)
   158e4:	8f430950 	lw	v1,2384(k0)
   158e8:	8f460954 	lw	a2,2388(k0)
   158ec:	8f47095c 	lw	a3,2396(k0)
   158f0:	8f48094c 	lw	t0,2380(k0)
   158f4:	93440108 	lbu	a0,264(k0)
   158f8:	9345010b 	lbu	a1,267(k0)
   158fc:	af820064 	sw	v0,100(gp)
   15900:	308400ff 	andi	a0,a0,0xff
   15904:	30a500ff 	andi	a1,a1,0xff
   15908:	af830050 	sw	v1,80(gp)
   1590c:	af86004c 	sw	a2,76(gp)
   15910:	af87005c 	sw	a3,92(gp)
   15914:	0e00082a 	jal	0x80020a8
   15918:	af880060 	sw	t0,96(gp)
   1591c:	14400174 	bnez	v0,0x15ef0
   15920:	8fbf0030 	lw	ra,48(sp)
   15924:	a7600068 	sh	zero,104(k1)
   15928:	934d0900 	lbu	t5,2304(k0)
   1592c:	240b0050 	li	t3,80
   15930:	3c150800 	lui	s5,0x800
   15934:	26b53c88 	addiu	s5,s5,15496
   15938:	31ac00ff 	andi	t4,t5,0xff
   1593c:	3c120800 	lui	s2,0x800
   15940:	26523c98 	addiu	s2,s2,15512
   15944:	118b0003 	beq	t4,t3,0x15954
   15948:	00000000 	nop
   1594c:	0000a821 	move	s5,zero
   15950:	00009021 	move	s2,zero
   15954:	93510109 	lbu	s1,265(k0)
   15958:	8f9f0050 	lw	ra,80(gp)
   1595c:	24040010 	li	a0,16
   15960:	322e007f 	andi	t6,s1,0x7f
   15964:	000e68c0 	sll	t5,t6,0x3
   15968:	000e6140 	sll	t4,t6,0x5
   1596c:	018d2821 	addu	a1,t4,t5
   15970:	24b40088 	addiu	s4,a1,136
   15974:	af540818 	sw	s4,2072(k0)
   15978:	8f490104 	lw	t1,260(k0)
   1597c:	8f4a09a4 	lw	t2,2468(k0)
   15980:	3c0b000e 	lui	t3,0xe
   15984:	034bc021 	addu	t8,k0,t3
   15988:	012a1023 	subu	v0,t1,t2
   1598c:	3c010800 	lui	at,0x800
   15990:	ac223cac 	sw	v0,15532(at)
   15994:	8f430958 	lw	v1,2392(k0)
   15998:	3c010800 	lui	at,0x800
   1599c:	a0243cd0 	sb	a0,15568(at)
   159a0:	97470908 	lhu	a3,2312(k0)
   159a4:	007f3023 	subu	a2,v1,ra
   159a8:	3c010800 	lui	at,0x800
   159ac:	ac263cb0 	sw	a2,15536(at)
   159b0:	30e8ffff 	andi	t0,a3,0xffff
   159b4:	0008c9c0 	sll	t9,t0,0x7
   159b8:	3c010800 	lui	at,0x800
   159bc:	ac3f3cd4 	sw	ra,15572(at)
   159c0:	af59002c 	sw	t9,44(k0)
   159c4:	97420908 	lhu	v0,2312(k0)
   159c8:	9710002c 	lhu	s0,44(t8)
   159cc:	8eb10000 	lw	s1,0(s5)
   159d0:	930f0018 	lbu	t7,24(t8)
   159d4:	03749821 	addu	s3,k1,s4
   159d8:	a7900058 	sh	s0,88(gp)
   159dc:	af930044 	sw	s3,68(gp)
   159e0:	0220f809 	jalr	s1
   159e4:	31f000ff 	andi	s0,t7,0xff
   159e8:	304e0002 	andi	t6,v0,0x2
   159ec:	15c001a9 	bnez	t6,0x16094
   159f0:	304f0001 	andi	t7,v0,0x1
   159f4:	11e0015d 	beqz	t7,0x15f6c
   159f8:	00000000 	nop
   159fc:	9343093e 	lbu	v1,2366(k0)
   15a00:	30660008 	andi	a2,v1,0x8
   15a04:	14c00002 	bnez	a2,0x15a10
   15a08:	24140003 	li	s4,3
   15a0c:	0000a021 	move	s4,zero
   15a10:	8f5809a4 	lw	t8,2468(k0)
   15a14:	24130001 	li	s3,1
   15a18:	3c010800 	lui	at,0x800
   15a1c:	ac383cd8 	sw	t8,15576(at)
   15a20:	934f0934 	lbu	t7,2356(k0)
   15a24:	93510937 	lbu	s1,2359(k0)
   15a28:	31ec00ff 	andi	t4,t7,0xff
   15a2c:	322e00ff 	andi	t6,s1,0xff
   15a30:	028e6821 	addu	t5,s4,t6
   15a34:	000d2880 	sll	a1,t5,0x2
   15a38:	00ac5021 	addu	t2,a1,t4
   15a3c:	01505821 	addu	t3,t2,s0
   15a40:	3c010800 	lui	at,0x800
   15a44:	a42b3cc8 	sh	t3,15560(at)
   15a48:	3c010800 	lui	at,0x800
   15a4c:	a42a3cc6 	sh	t2,15558(at)
   15a50:	93490934 	lbu	t1,2356(k0)
   15a54:	312200ff 	andi	v0,t1,0xff
   15a58:	02022021 	addu	a0,s0,v0
   15a5c:	24900010 	addiu	s0,a0,16
   15a60:	3c010800 	lui	at,0x800
   15a64:	a4303cc4 	sh	s0,15556(at)
   15a68:	24070006 	li	a3,6
   15a6c:	8f9f0050 	lw	ra,80(gp)
   15a70:	3c010800 	lui	at,0x800
   15a74:	ac273ccc 	sw	a3,15564(at)
   15a78:	8f88005c 	lw	t0,92(gp)
   15a7c:	8f590958 	lw	t9,2392(k0)
   15a80:	00008021 	move	s0,zero
   15a84:	011f2823 	subu	a1,t0,ra
   15a88:	04a00151 	bltz	a1,0x15fd0
   15a8c:	033f2023 	subu	a0,t9,ra
   15a90:	0480014f 	bltz	a0,0x15fd0
   15a94:	00a4302b 	sltu	a2,a1,a0
   15a98:	10c00151 	beqz	a2,0x15fe0
   15a9c:	00000000 	nop
   15aa0:	3c010800 	lui	at,0x800
   15aa4:	ac253cb0 	sw	a1,15536(at)
   15aa8:	8e420000 	lw	v0,0(s2)
   15aac:	0040f809 	jalr	v0
   15ab0:	00000000 	nop
   15ab4:	30430002 	andi	v1,v0,0x2
   15ab8:	146000f1 	bnez	v1,0x15e80
   15abc:	00408821 	move	s1,v0
   15ac0:	30440001 	andi	a0,v0,0x1
   15ac4:	54800010 	bnezl	a0,0x15b08
   15ac8:	8e420004 	lw	v0,4(s2)
   15acc:	3c090800 	lui	t1,0x800
   15ad0:	8d293cb4 	lw	t1,15540(t1)
   15ad4:	3c0ac000 	lui	t2,0xc000
   15ad8:	012a8025 	or	s0,t1,t2
   15adc:	af500e00 	sw	s0,3584(k0)
   15ae0:	8f450000 	lw	a1,0(k0)
   15ae4:	30ab0008 	andi	t3,a1,0x8
   15ae8:	1160fffd 	beqz	t3,0x15ae0
   15aec:	00000000 	nop
   15af0:	974d0e08 	lhu	t5,3592(k0)
   15af4:	24100001 	li	s0,1
   15af8:	a78d003c 	sh	t5,60(gp)
   15afc:	8f4c0e04 	lw	t4,3588(k0)
   15b00:	af8c0034 	sw	t4,52(gp)
   15b04:	8e420004 	lw	v0,4(s2)
   15b08:	0040f809 	jalr	v0
   15b0c:	00000000 	nop
   15b10:	02228825 	or	s1,s1,v0
   15b14:	322e0002 	andi	t6,s1,0x2
   15b18:	15c0016f 	bnez	t6,0x160d8
   15b1c:	00000000 	nop
   15b20:	3c090800 	lui	t1,0x800
   15b24:	95293cbc 	lhu	t1,15548(t1)
   15b28:	3c060800 	lui	a2,0x800
   15b2c:	94c63cc8 	lhu	a2,15560(a2)
   15b30:	3c040800 	lui	a0,0x800
   15b34:	94843cbe 	lhu	a0,15550(a0)
   15b38:	3c180800 	lui	t8,0x800
   15b3c:	8f183cb4 	lw	t8,15540(t8)
   15b40:	01265821 	addu	t3,t1,a2
   15b44:	3c0f0800 	lui	t7,0x800
   15b48:	8def3cd8 	lw	t7,15576(t7)
   15b4c:	3c1f0800 	lui	ra,0x800
   15b50:	97ff3cd2 	lhu	ra,15570(ra)
   15b54:	01641821 	addu	v1,t3,a0
   15b58:	8f4d0940 	lw	t5,2368(k0)
   15b5c:	0309c821 	addu	t9,t8,t1
   15b60:	246e0002 	addiu	t6,v1,2
   15b64:	033f2821 	addu	a1,t9,ra
   15b68:	01f86021 	addu	t4,t7,t8
   15b6c:	3c010800 	lui	at,0x800
   15b70:	a42b3cca 	sh	t3,15562(at)
   15b74:	af8d0064 	sw	t5,100(gp)
   15b78:	3c010800 	lui	at,0x800
   15b7c:	ac2c3cd8 	sw	t4,15576(at)
   15b80:	3c010800 	lui	at,0x800
   15b84:	a4253cc0 	sh	a1,15552(at)
   15b88:	0e00009e 	jal	0x8000278
   15b8c:	31c4ffff 	andi	a0,t6,0xffff
   15b90:	8f870048 	lw	a3,72(gp)
   15b94:	00402021 	move	a0,v0
   15b98:	3c010800 	lui	at,0x800
   15b9c:	a0273cd1 	sb	a3,15569(at)
   15ba0:	8e420008 	lw	v0,8(s2)
   15ba4:	24e80001 	addiu	t0,a3,1
   15ba8:	af880048 	sw	t0,72(gp)
   15bac:	0040f809 	jalr	v0
   15bb0:	00000000 	nop
   15bb4:	8f4b002c 	lw	t3,44(k0)
   15bb8:	97490908 	lhu	t1,2312(k0)
   15bbc:	3c0a000e 	lui	t2,0xe
   15bc0:	034a3821 	addu	a3,k0,t2
   15bc4:	3124ffff 	andi	a0,t1,0xffff
   15bc8:	000419c0 	sll	v1,a0,0x7
   15bcc:	8f8a0050 	lw	t2,80(gp)
   15bd0:	af43002c 	sw	v1,44(k0)
   15bd4:	97430908 	lhu	v1,2312(k0)
   15bd8:	94e6001a 	lhu	a2,26(a3)
   15bdc:	00404021 	move	t0,v0
   15be0:	30dfffff 	andi	ra,a2,0xffff
   15be4:	ac5f0000 	sw	ra,0(v0)
   15be8:	8cf9001c 	lw	t9,28(a3)
   15bec:	ac590004 	sw	t9,4(v0)
   15bf0:	8cf80020 	lw	t8,32(a3)
   15bf4:	ac580008 	sw	t8,8(v0)
   15bf8:	90ef0019 	lbu	t7,25(a3)
   15bfc:	31e30003 	andi	v1,t7,0x3
   15c00:	107300fb 	beq	v1,s3,0x15ff0
   15c04:	00000000 	nop
   15c08:	28620002 	slti	v0,v1,2
   15c0c:	14400117 	bnez	v0,0x1606c
   15c10:	24050002 	li	a1,2
   15c14:	10650109 	beq	v1,a1,0x1603c
   15c18:	240c0003 	li	t4,3
   15c1c:	106c00bc 	beq	v1,t4,0x15f10
   15c20:	00000000 	nop
   15c24:	3c090800 	lui	t1,0x800
   15c28:	95293cc0 	lhu	t1,15552(t1)
   15c2c:	935f0934 	lbu	ra,2356(k0)
   15c30:	934c0921 	lbu	t4,2337(k0)
   15c34:	3c0d0800 	lui	t5,0x800
   15c38:	95ad3cc6 	lhu	t5,15558(t5)
   15c3c:	33f900ff 	andi	t9,ra,0xff
   15c40:	94e5002a 	lhu	a1,42(a3)
   15c44:	0019c082 	srl	t8,t9,0x2
   15c48:	318f00ff 	andi	t7,t4,0xff
   15c4c:	978c0058 	lhu	t4,88(gp)
   15c50:	00181600 	sll	v0,t8,0x18
   15c54:	000f7400 	sll	t6,t7,0x10
   15c58:	3124ffff 	andi	a0,t1,0xffff
   15c5c:	004e3825 	or	a3,v0,t6
   15c60:	01a43021 	addu	a2,t5,a0
   15c64:	00e6f825 	or	ra,a3,a2
   15c68:	00acc821 	addu	t9,a1,t4
   15c6c:	3c034000 	lui	v1,0x4000
   15c70:	03e3c025 	or	t8,ra,v1
   15c74:	00194c00 	sll	t1,t9,0x10
   15c78:	ad180000 	sw	t8,0(t0)
   15c7c:	ad090004 	sw	t1,4(t0)
   15c80:	934f0920 	lbu	t7,2336(k0)
   15c84:	3c0e0006 	lui	t6,0x6
   15c88:	25090014 	addiu	t1,t0,20
   15c8c:	000f6e00 	sll	t5,t7,0x18
   15c90:	01ae2825 	or	a1,t5,t6
   15c94:	ad050008 	sw	a1,8(t0)
   15c98:	8f46092c 	lw	a2,2348(k0)
   15c9c:	25820001 	addiu	v0,t4,1
   15ca0:	30477fff 	andi	a3,v0,0x7fff
   15ca4:	ad06000c 	sw	a2,12(t0)
   15ca8:	8f440930 	lw	a0,2352(k0)
   15cac:	a7870058 	sh	a3,88(gp)
   15cb0:	25060028 	addiu	a2,t0,40
   15cb4:	ad040010 	sw	a0,16(t0)
   15cb8:	8f430938 	lw	v1,2360(k0)
   15cbc:	00c02021 	move	a0,a2
   15cc0:	ad030014 	sw	v1,20(t0)
   15cc4:	ad2a0004 	sw	t2,4(t1)
   15cc8:	8f5f0940 	lw	ra,2368(k0)
   15ccc:	ad3f0008 	sw	ra,8(t1)
   15cd0:	93590937 	lbu	t9,2359(k0)
   15cd4:	3c0e0800 	lui	t6,0x800
   15cd8:	91ce3cd0 	lbu	t6,15568(t6)
   15cdc:	ad200010 	sw	zero,16(t1)
   15ce0:	333800ff 	andi	t8,t9,0xff
   15ce4:	03147821 	addu	t7,t8,s4
   15ce8:	000f6700 	sll	t4,t7,0x1c
   15cec:	000e6c00 	sll	t5,t6,0x10
   15cf0:	018d2825 	or	a1,t4,t5
   15cf4:	34a2ffff 	ori	v0,a1,0xffff
   15cf8:	ad22000c 	sw	v0,12(t1)
   15cfc:	af4b002c 	sw	t3,44(k0)
   15d00:	9347093e 	lbu	a3,2366(k0)
   15d04:	30ea0008 	andi	t2,a3,0x8
   15d08:	5140000f 	beqzl	t2,0x15d48
   15d0c:	8e58000c 	lw	t8,12(s2)
   15d10:	3c030101 	lui	v1,0x101
   15d14:	3469080a 	ori	t1,v1,0x80a
   15d18:	ad090028 	sw	t1,40(t0)
   15d1c:	8f4a0074 	lw	t2,116(k0)
   15d20:	acca0004 	sw	t2,4(a2)
   15d24:	3c0b0800 	lui	t3,0x800
   15d28:	916b3cd0 	lbu	t3,15568(t3)
   15d2c:	31680010 	andi	t0,t3,0x10
   15d30:	51000003 	beqzl	t0,0x15d40
   15d34:	acc00008 	sw	zero,8(a2)
   15d38:	8f650060 	lw	a1,96(k1)
   15d3c:	acc50008 	sw	a1,8(a2)
   15d40:	24c4000c 	addiu	a0,a2,12
   15d44:	8e58000c 	lw	t8,12(s2)
   15d48:	0300f809 	jalr	t8
   15d4c:	00000000 	nop
   15d50:	3c0f0800 	lui	t7,0x800
   15d54:	95ef3cca 	lhu	t7,15562(t7)
   15d58:	3c020800 	lui	v0,0x800
   15d5c:	94423cbe 	lhu	v0,15550(v0)
   15d60:	01e27021 	addu	t6,t7,v0
   15d64:	25c40002 	addiu	a0,t6,2
   15d68:	0e0000c7 	jal	0x800031c
   15d6c:	3084ffff 	andi	a0,a0,0xffff
   15d70:	3c060800 	lui	a2,0x800
   15d74:	8cc63cac 	lw	a2,15532(a2)
   15d78:	3c0d0800 	lui	t5,0x800
   15d7c:	8dad3cb4 	lw	t5,15540(t5)
   15d80:	00cd3823 	subu	a3,a2,t5
   15d84:	3c010800 	lui	at,0x800
   15d88:	ac273cac 	sw	a3,15532(at)
   15d8c:	14e00006 	bnez	a3,0x15da8
   15d90:	00000000 	nop
   15d94:	3c190800 	lui	t9,0x800
   15d98:	8f393ccc 	lw	t9,15564(t9)
   15d9c:	372c0040 	ori	t4,t9,0x40
   15da0:	3c010800 	lui	at,0x800
   15da4:	ac2c3ccc 	sw	t4,15564(at)
   15da8:	12000085 	beqz	s0,0x15fc0
   15dac:	8f8b0044 	lw	t3,68(gp)
   15db0:	8f480e10 	lw	t0,3600(k0)
   15db4:	8f900044 	lw	s0,68(gp)
   15db8:	ae080020 	sw	t0,32(s0)
   15dbc:	8f5f0e18 	lw	ra,3608(k0)
   15dc0:	ae1f0024 	sw	ra,36(s0)
   15dc4:	3c100800 	lui	s0,0x800
   15dc8:	96103cc0 	lhu	s0,15552(s0)
   15dcc:	0e000060 	jal	0x8000180
   15dd0:	00000000 	nop
   15dd4:	24050040 	li	a1,64
   15dd8:	af450814 	sw	a1,2068(k0)
   15ddc:	8f830050 	lw	v1,80(gp)
   15de0:	8f89004c 	lw	t1,76(gp)
   15de4:	00701821 	addu	v1,v1,s0
   15de8:	00695023 	subu	t2,v1,t1
   15dec:	19400004 	blez	t2,0x15e00
   15df0:	af830050 	sw	v1,80(gp)
   15df4:	af630054 	sw	v1,84(k1)
   15df8:	8f670054 	lw	a3,84(k1)
   15dfc:	af87004c 	sw	a3,76(gp)
   15e00:	1200000c 	beqz	s0,0x15e34
   15e04:	00000000 	nop
   15e08:	8f440074 	lw	a0,116(k0)
   15e0c:	936d0081 	lbu	t5,129(k1)
   15e10:	340efa00 	li	t6,0xfa00
   15e14:	2da60007 	sltiu	a2,t5,7
   15e18:	10c00005 	beqz	a2,0x15e30
   15e1c:	008e1821 	addu	v1,a0,t6
   15e20:	93780081 	lbu	t8,129(k1)
   15e24:	240201f4 	li	v0,500
   15e28:	03027804 	sllv	t7,v0,t8
   15e2c:	01e41821 	addu	v1,t7,a0
   15e30:	af63000c 	sw	v1,12(k1)
   15e34:	8f4c095c 	lw	t4,2396(k0)
   15e38:	8f99005c 	lw	t9,92(gp)
   15e3c:	01992023 	subu	a0,t4,t9
   15e40:	18800003 	blez	a0,0x15e50
   15e44:	00000000 	nop
   15e48:	8f50095c 	lw	s0,2396(k0)
   15e4c:	af90005c 	sw	s0,92(gp)
   15e50:	0e000062 	jal	0x8000188
   15e54:	00000000 	nop
   15e58:	8f8b0050 	lw	t3,80(gp)
   15e5c:	8e480010 	lw	t0,16(s2)
   15e60:	3c010800 	lui	at,0x800
   15e64:	ac2b3cd4 	sw	t3,15572(at)
   15e68:	0100f809 	jalr	t0
   15e6c:	00000000 	nop
   15e70:	3c1f0800 	lui	ra,0x800
   15e74:	8fff3cac 	lw	ra,15532(ra)
   15e78:	17e0fefc 	bnez	ra,0x15a6c
   15e7c:	24070006 	li	a3,6
   15e80:	8f450024 	lw	a1,36(k0)
   15e84:	97420908 	lhu	v0,2312(k0)
   15e88:	8f8a0064 	lw	t2,100(gp)
   15e8c:	8f940050 	lw	s4,80(gp)
   15e90:	3c0f001f 	lui	t7,0x1f
   15e94:	97870058 	lhu	a3,88(gp)
   15e98:	8f830054 	lw	v1,84(gp)
   15e9c:	8f93004c 	lw	s3,76(gp)
   15ea0:	304dffff 	andi	t5,v0,0xffff
   15ea4:	35eeff80 	ori	t6,t7,0xff80
   15ea8:	00ae4824 	and	t1,a1,t6
   15eac:	000d31c0 	sll	a2,t5,0x7
   15eb0:	32320010 	andi	s2,s1,0x10
   15eb4:	af460024 	sw	a2,36(k0)
   15eb8:	a467002c 	sh	a3,44(v1)
   15ebc:	af490024 	sw	t1,36(k0)
   15ec0:	af6a0044 	sw	t2,68(k1)
   15ec4:	af740050 	sw	s4,80(k1)
   15ec8:	af730054 	sw	s3,84(k1)
   15ecc:	5640007e 	bnezl	s2,0x160c8
   15ed0:	8eb80004 	lw	t8,4(s5)
   15ed4:	32240040 	andi	a0,s1,0x40
   15ed8:	54800032 	bnezl	a0,0x15fa4
   15edc:	8eb10008 	lw	s1,8(s5)
   15ee0:	8eac000c 	lw	t4,12(s5)
   15ee4:	0180f809 	jalr	t4
   15ee8:	00000000 	nop
   15eec:	8fbf0030 	lw	ra,48(sp)
   15ef0:	8fb5002c 	lw	s5,44(sp)
   15ef4:	8fb40028 	lw	s4,40(sp)
   15ef8:	8fb30024 	lw	s3,36(sp)
   15efc:	8fb20020 	lw	s2,32(sp)
   15f00:	8fb1001c 	lw	s1,28(sp)
   15f04:	8fb00018 	lw	s0,24(sp)
   15f08:	03e00008 	jr	ra
   15f0c:	27bd0038 	addiu	sp,sp,56
   15f10:	3c090800 	lui	t1,0x800
   15f14:	95293cc0 	lhu	t1,15552(t1)
   15f18:	3c040800 	lui	a0,0x800
   15f1c:	94843cca 	lhu	a0,15562(a0)
   15f20:	3c1f0800 	lui	ra,0x800
   15f24:	97ff3cbc 	lhu	ra,15548(ra)
   15f28:	94f80024 	lhu	t8,36(a3)
   15f2c:	3123ffff 	andi	v1,t1,0xffff
   15f30:	94ef0028 	lhu	t7,40(a3)
   15f34:	0083c821 	addu	t9,a0,v1
   15f38:	033f7023 	subu	t6,t9,ra
   15f3c:	00182c00 	sll	a1,t8,0x10
   15f40:	000f6400 	sll	t4,t7,0x10
   15f44:	25cdffee 	addiu	t5,t6,-18
   15f48:	018d3025 	or	a2,t4,t5
   15f4c:	34a28100 	ori	v0,a1,0x8100
   15f50:	24030800 	li	v1,2048
   15f54:	ad02000c 	sw	v0,12(t0)
   15f58:	ad060010 	sw	a2,16(t0)
   15f5c:	ad030018 	sw	v1,24(t0)
   15f60:	ad000014 	sw	zero,20(t0)
   15f64:	0a0009ce 	j	0x8002738
   15f68:	2508001c 	addiu	t0,t0,28
   15f6c:	93470109 	lbu	a3,265(k0)
   15f70:	8f880038 	lw	t0,56(gp)
   15f74:	0007fe00 	sll	ra,a3,0x18
   15f78:	03e8c825 	or	t9,ra,t0
   15f7c:	af590080 	sw	t9,128(k0)
   15f80:	8f5809a0 	lw	t8,2464(k0)
   15f84:	8f5309a4 	lw	s3,2468(k0)
   15f88:	afb80010 	sw	t8,16(sp)
   15f8c:	af580e14 	sw	t8,3604(k0)
   15f90:	8fb40010 	lw	s4,16(sp)
   15f94:	af540e10 	sw	s4,3600(k0)
   15f98:	af530e1c 	sw	s3,3612(k0)
   15f9c:	0a000942 	j	0x8002508
   15fa0:	af530e18 	sw	s3,3608(k0)
   15fa4:	0220f809 	jalr	s1
   15fa8:	00000000 	nop
   15fac:	8eac000c 	lw	t4,12(s5)
   15fb0:	0180f809 	jalr	t4
   15fb4:	00000000 	nop
   15fb8:	0a000a7f 	j	0x80029fc
   15fbc:	8fbf0030 	lw	ra,48(sp)
   15fc0:	a5600020 	sh	zero,32(t3)
   15fc4:	a5730022 	sh	s3,34(t3)
   15fc8:	0a000a34 	j	0x80028d0
   15fcc:	ad730024 	sw	s3,36(t3)
   15fd0:	3c010800 	lui	at,0x800
   15fd4:	ac203cb0 	sw	zero,15536(at)
   15fd8:	0a00096e 	j	0x80025b8
   15fdc:	8e420000 	lw	v0,0(s2)
   15fe0:	3c010800 	lui	at,0x800
   15fe4:	ac243cb0 	sw	a0,15536(at)
   15fe8:	0a00096e 	j	0x80025b8
   15fec:	8e420000 	lw	v0,0(s2)
   15ff0:	3c090800 	lui	t1,0x800
   15ff4:	95293cc0 	lhu	t1,15552(t1)
   15ff8:	3c1f0800 	lui	ra,0x800
   15ffc:	97ff3cca 	lhu	ra,15562(ra)
   16000:	3c190800 	lui	t9,0x800
   16004:	97393cbc 	lhu	t9,15548(t9)
   16008:	94ef0024 	lhu	t7,36(a3)
   1600c:	3124ffff 	andi	a0,t1,0xffff
   16010:	03e4c021 	addu	t8,ra,a0
   16014:	03197023 	subu	t6,t8,t9
   16018:	000f6400 	sll	t4,t7,0x10
   1601c:	25cdfff2 	addiu	t5,t6,-14
   16020:	018d2825 	or	a1,t4,t5
   16024:	ac45000c 	sw	a1,12(v0)
   16028:	24020800 	li	v0,2048
   1602c:	ad020014 	sw	v0,20(t0)
   16030:	ad000010 	sw	zero,16(t0)
   16034:	0a0009ce 	j	0x8002738
   16038:	25080018 	addiu	t0,t0,24
   1603c:	94e60024 	lhu	a2,36(a3)
   16040:	94e30028 	lhu	v1,40(a3)
   16044:	3c090800 	lui	t1,0x800
   16048:	95293cc0 	lhu	t1,15552(t1)
   1604c:	00062400 	sll	a0,a2,0x10
   16050:	0003fc00 	sll	ra,v1,0x10
   16054:	34998100 	ori	t9,a0,0x8100
   16058:	37f80800 	ori	t8,ra,0x800
   1605c:	ad19000c 	sw	t9,12(t0)
   16060:	ad180010 	sw	t8,16(t0)
   16064:	0a0009ce 	j	0x8002738
   16068:	25080014 	addiu	t0,t0,20
   1606c:	1460feed 	bnez	v1,0x15c24
   16070:	00000000 	nop
   16074:	94ef0024 	lhu	t7,36(a3)
   16078:	3c090800 	lui	t1,0x800
   1607c:	95293cc0 	lhu	t1,15552(t1)
   16080:	000f7400 	sll	t6,t7,0x10
   16084:	35cd0800 	ori	t5,t6,0x800
   16088:	ad0d000c 	sw	t5,12(t0)
   1608c:	0a0009ce 	j	0x8002738
   16090:	25080010 	addiu	t0,t0,16
   16094:	93520109 	lbu	s2,265(k0)
   16098:	00002821 	move	a1,zero
   1609c:	0e000600 	jal	0x8001800
   160a0:	324400ff 	andi	a0,s2,0xff
   160a4:	8fbf0030 	lw	ra,48(sp)
   160a8:	8fb5002c 	lw	s5,44(sp)
   160ac:	8fb40028 	lw	s4,40(sp)
   160b0:	8fb30024 	lw	s3,36(sp)
   160b4:	8fb20020 	lw	s2,32(sp)
   160b8:	8fb1001c 	lw	s1,28(sp)
   160bc:	8fb00018 	lw	s0,24(sp)
   160c0:	03e00008 	jr	ra
   160c4:	27bd0038 	addiu	sp,sp,56
   160c8:	0300f809 	jalr	t8
   160cc:	00000000 	nop
   160d0:	0a000a79 	j	0x80029e4
   160d4:	32240040 	andi	a0,s1,0x40
   160d8:	1200ff69 	beqz	s0,0x15e80
   160dc:	00000000 	nop
   160e0:	8f540e14 	lw	s4,3604(k0)
   160e4:	8f920044 	lw	s2,68(gp)
   160e8:	ae540020 	sw	s4,32(s2)
   160ec:	8f530e1c 	lw	s3,3612(k0)
   160f0:	0a000a63 	j	0x800298c
   160f4:	ae530024 	sw	s3,36(s2)
   160f8:	8f82001c 	lw	v0,28(gp)
   160fc:	00804021 	move	t0,a0
   16100:	3c040100 	lui	a0,0x100
   16104:	90470085 	lbu	a3,133(v0)
   16108:	30e30020 	andi	v1,a3,0x20
   1610c:	10600009 	beqz	v1,0x16134
   16110:	00000000 	nop
   16114:	3c070800 	lui	a3,0x800
   16118:	8ce73cd4 	lw	a3,15572(a3)
   1611c:	8f830018 	lw	v1,24(gp)
   16120:	00e32023 	subu	a0,a3,v1
   16124:	04800008 	bltz	a0,0x16148
   16128:	93890004 	lbu	t1,4(gp)
   1612c:	14e30003 	bne	a3,v1,0x1613c
   16130:	01002021 	move	a0,t0
   16134:	03e00008 	jr	ra
   16138:	00801021 	move	v0,a0
   1613c:	3c040100 	lui	a0,0x100
   16140:	03e00008 	jr	ra
   16144:	00801021 	move	v0,a0
   16148:	1120000b 	beqz	t1,0x16178
   1614c:	00673823 	subu	a3,v1,a3
   16150:	8f8c0020 	lw	t4,32(gp)
   16154:	24090034 	li	t1,52
   16158:	918b00bc 	lbu	t3,188(t4)
   1615c:	316a0002 	andi	t2,t3,0x2
   16160:	51400001 	beqzl	t2,0x16168
   16164:	24090030 	li	t1,48
   16168:	00e9682b 	sltu	t5,a3,t1
   1616c:	15a0fff1 	bnez	t5,0x16134
   16170:	01002021 	move	a0,t0
   16174:	00e93823 	subu	a3,a3,t1
   16178:	2419fffc 	li	t9,-4
   1617c:	00b9c024 	and	t8,a1,t9
   16180:	00f97824 	and	t7,a3,t9
   16184:	00f8702b 	sltu	t6,a3,t8
   16188:	15c0ffea 	bnez	t6,0x16134
   1618c:	01e82021 	addu	a0,t7,t0
   16190:	30c20003 	andi	v0,a2,0x3
   16194:	00021823 	negu	v1,v0
   16198:	14c00012 	bnez	a2,0x161e4
   1619c:	30690003 	andi	t1,v1,0x3
   161a0:	00003021 	move	a2,zero
   161a4:	00a97021 	addu	t6,a1,t1
   161a8:	01c66821 	addu	t5,t6,a2
   161ac:	00ed602b 	sltu	t4,a3,t5
   161b0:	1180ffe0 	beqz	t4,0x16134
   161b4:	3c040100 	lui	a0,0x100
   161b8:	2d2f0001 	sltiu	t7,t1,1
   161bc:	0006482b 	sltu	t1,zero,a2
   161c0:	01053821 	addu	a3,t0,a1
   161c4:	01e93024 	and	a2,t7,t1
   161c8:	14c0ffda 	bnez	a2,0x16134
   161cc:	24e4fffc 	addiu	a0,a3,-4
   161d0:	2419fffc 	li	t9,-4
   161d4:	00b9c024 	and	t8,a1,t9
   161d8:	03082021 	addu	a0,t8,t0
   161dc:	03e00008 	jr	ra
   161e0:	00801021 	move	v0,a0
   161e4:	8f8b0020 	lw	t3,32(gp)
   161e8:	24060004 	li	a2,4
   161ec:	916a00bc 	lbu	t2,188(t3)
   161f0:	31440004 	andi	a0,t2,0x4
   161f4:	1480ffec 	bnez	a0,0x161a8
   161f8:	00a97021 	addu	t6,a1,t1
   161fc:	0a000b2d 	j	0x8002cb4
   16200:	00003021 	move	a2,zero
   16204:	27bdffe8 	addiu	sp,sp,-24
   16208:	afbf0010 	sw	ra,16(sp)
   1620c:	8f460100 	lw	a2,256(k0)
   16210:	934a0109 	lbu	t2,265(k0)
   16214:	3c1f0800 	lui	ra,0x800
   16218:	8fff0090 	lw	ra,144(ra)
   1621c:	2407ff80 	li	a3,-128
   16220:	314f00ff 	andi	t7,t2,0xff
   16224:	31e8007f 	andi	t0,t7,0x7f
   16228:	00086140 	sll	t4,t0,0x5
   1622c:	03e6c821 	addu	t9,ra,a2
   16230:	032cc021 	addu	t8,t9,t4
   16234:	27090120 	addiu	t1,t8,288
   16238:	01277024 	and	t6,t1,a3
   1623c:	3c010800 	lui	at,0x800
   16240:	a02f3d10 	sb	t7,15632(at)
   16244:	af4e080c 	sw	t6,2060(k0)
   16248:	3c0d0800 	lui	t5,0x800
   1624c:	8dad0090 	lw	t5,144(t5)
   16250:	3c040080 	lui	a0,0x80
   16254:	34820003 	ori	v0,a0,0x3
   16258:	01a65821 	addu	t3,t5,a2
   1625c:	016c1821 	addu	v1,t3,t4
   16260:	24650120 	addiu	a1,v1,288
   16264:	30aa0078 	andi	t2,a1,0x78
   16268:	01424025 	or	t0,t2,v0
   1626c:	af48081c 	sw	t0,2076(k0)
   16270:	3c1f0800 	lui	ra,0x800
   16274:	8fff0090 	lw	ra,144(ra)
   16278:	8f880040 	lw	t0,64(gp)
   1627c:	03e6c021 	addu	t8,ra,a2
   16280:	33190007 	andi	t9,t8,0x7
   16284:	03074824 	and	t1,t8,a3
   16288:	033a7821 	addu	t7,t9,k0
   1628c:	af490028 	sw	t1,40(k0)
   16290:	25e909c0 	addiu	t1,t7,2496
   16294:	952e0002 	lhu	t6,2(t1)
   16298:	3c0d0800 	lui	t5,0x800
   1629c:	8dad008c 	lw	t5,140(t5)
   162a0:	3c0a0800 	lui	t2,0x800
   162a4:	8d4a0090 	lw	t2,144(t2)
   162a8:	31cc3fff 	andi	t4,t6,0x3fff
   162ac:	01a61821 	addu	v1,t5,a2
   162b0:	000c5980 	sll	t3,t4,0x6
   162b4:	006b2821 	addu	a1,v1,t3
   162b8:	00a72024 	and	a0,a1,a3
   162bc:	af44002c 	sw	a0,44(k0)
   162c0:	95220002 	lhu	v0,2(t1)
   162c4:	3c1f0800 	lui	ra,0x800
   162c8:	8fff008c 	lw	ra,140(ra)
   162cc:	91070085 	lbu	a3,133(t0)
   162d0:	30593fff 	andi	t9,v0,0x3fff
   162d4:	03e67821 	addu	t7,ra,a2
   162d8:	0019c180 	sll	t8,t9,0x6
   162dc:	01467021 	addu	t6,t2,a2
   162e0:	01f86821 	addu	t5,t7,t8
   162e4:	31cc007f 	andi	t4,t6,0x7f
   162e8:	31ab007f 	andi	t3,t5,0x7f
   162ec:	019a2821 	addu	a1,t4,k0
   162f0:	017a5021 	addu	t2,t3,k0
   162f4:	3c03000c 	lui	v1,0xc
   162f8:	3c04000e 	lui	a0,0xe
   162fc:	00a32821 	addu	a1,a1,v1
   16300:	01441021 	addu	v0,t2,a0
   16304:	30e60020 	andi	a2,a3,0x20
   16308:	27470980 	addiu	a3,k0,2432
   1630c:	af82002c 	sw	v0,44(gp)
   16310:	af88001c 	sw	t0,28(gp)
   16314:	af890024 	sw	t1,36(gp)
   16318:	af850020 	sw	a1,32(gp)
   1631c:	10c00006 	beqz	a2,0x16338
   16320:	af870028 	sw	a3,40(gp)
   16324:	8d020050 	lw	v0,80(t0)
   16328:	8ca4010c 	lw	a0,268(a1)
   1632c:	00443023 	subu	a2,v0,a0
   16330:	18c00077 	blez	a2,0x16510
   16334:	00000000 	nop
   16338:	910c0085 	lbu	t4,133(t0)
   1633c:	240dffdf 	li	t5,-33
   16340:	018d3824 	and	a3,t4,t5
   16344:	a1070085 	sb	a3,133(t0)
   16348:	8f8b001c 	lw	t3,28(gp)
   1634c:	8f890024 	lw	t1,36(gp)
   16350:	8f870028 	lw	a3,40(gp)
   16354:	8d65004c 	lw	a1,76(t3)
   16358:	af850018 	sw	a1,24(gp)
   1635c:	912f000d 	lbu	t7,13(t1)
   16360:	31ee0020 	andi	t6,t7,0x20
   16364:	11c00017 	beqz	t6,0x163c4
   16368:	00000000 	nop
   1636c:	24090001 	li	t1,1
   16370:	a3890004 	sb	t1,4(gp)
   16374:	af80000c 	sw	zero,12(gp)
   16378:	8ce40024 	lw	a0,36(a3)
   1637c:	8f85000c 	lw	a1,12(gp)
   16380:	240a0008 	li	t2,8
   16384:	af800008 	sw	zero,8(gp)
   16388:	af800010 	sw	zero,16(gp)
   1638c:	3c010800 	lui	at,0x800
   16390:	a42a3cbe 	sh	t2,15550(at)
   16394:	3c010800 	lui	at,0x800
   16398:	a4203cd2 	sh	zero,15570(at)
   1639c:	0e000b01 	jal	0x8002c04
   163a0:	00003021 	move	a2,zero
   163a4:	8f850024 	lw	a1,36(gp)
   163a8:	8fbf0010 	lw	ra,16(sp)
   163ac:	af820014 	sw	v0,20(gp)
   163b0:	90a8000d 	lbu	t0,13(a1)
   163b4:	27bd0018 	addiu	sp,sp,24
   163b8:	00083942 	srl	a3,t0,0x5
   163bc:	03e00008 	jr	ra
   163c0:	30e20001 	andi	v0,a3,0x1
   163c4:	913f0002 	lbu	ra,2(t1)
   163c8:	24180001 	li	t8,1
   163cc:	33f900ff 	andi	t9,ra,0xff
   163d0:	00192182 	srl	a0,t9,0x6
   163d4:	10980039 	beq	a0,t8,0x164bc
   163d8:	24080002 	li	t0,2
   163dc:	1088005b 	beq	a0,t0,0x1654c
   163e0:	8f86002c 	lw	a2,44(gp)
   163e4:	8ce50024 	lw	a1,36(a3)
   163e8:	14a0001b 	bnez	a1,0x16458
   163ec:	8f9f0020 	lw	ra,32(gp)
   163f0:	91220000 	lbu	v0,0(t1)
   163f4:	240a0005 	li	t2,5
   163f8:	3046003f 	andi	a2,v0,0x3f
   163fc:	10ca0047 	beq	a2,t2,0x1651c
   16400:	24040001 	li	a0,1
   16404:	8f860008 	lw	a2,8(gp)
   16408:	a3840004 	sb	a0,4(gp)
   1640c:	af860010 	sw	a2,16(gp)
   16410:	af86000c 	sw	a2,12(gp)
   16414:	8ce40024 	lw	a0,36(a3)
   16418:	8f85000c 	lw	a1,12(gp)
   1641c:	240a0008 	li	t2,8
   16420:	3c010800 	lui	at,0x800
   16424:	a42a3cbe 	sh	t2,15550(at)
   16428:	3c010800 	lui	at,0x800
   1642c:	a4203cd2 	sh	zero,15570(at)
   16430:	0e000b01 	jal	0x8002c04
   16434:	00000000 	nop
   16438:	8f850024 	lw	a1,36(gp)
   1643c:	8fbf0010 	lw	ra,16(sp)
   16440:	af820014 	sw	v0,20(gp)
   16444:	90a8000d 	lbu	t0,13(a1)
   16448:	27bd0018 	addiu	sp,sp,24
   1644c:	00083942 	srl	a3,t0,0x5
   16450:	03e00008 	jr	ra
   16454:	30e20001 	andi	v0,a3,0x1
   16458:	8cf80008 	lw	t8,8(a3)
   1645c:	8cf90024 	lw	t9,36(a3)
   16460:	8fee00c4 	lw	t6,196(ra)
   16464:	a3800004 	sb	zero,4(gp)
   16468:	8ce40024 	lw	a0,36(a3)
   1646c:	af8e000c 	sw	t6,12(gp)
   16470:	8f85000c 	lw	a1,12(gp)
   16474:	8f860008 	lw	a2,8(gp)
   16478:	03197823 	subu	t7,t8,t9
   1647c:	240a0008 	li	t2,8
   16480:	af8f0010 	sw	t7,16(gp)
   16484:	3c010800 	lui	at,0x800
   16488:	a42a3cbe 	sh	t2,15550(at)
   1648c:	3c010800 	lui	at,0x800
   16490:	a4203cd2 	sh	zero,15570(at)
   16494:	0e000b01 	jal	0x8002c04
   16498:	00000000 	nop
   1649c:	8f850024 	lw	a1,36(gp)
   164a0:	8fbf0010 	lw	ra,16(sp)
   164a4:	af820014 	sw	v0,20(gp)
   164a8:	90a8000d 	lbu	t0,13(a1)
   164ac:	27bd0018 	addiu	sp,sp,24
   164b0:	00083942 	srl	a3,t0,0x5
   164b4:	03e00008 	jr	ra
   164b8:	30e20001 	andi	v0,a3,0x1
   164bc:	91230000 	lbu	v1,0(t1)
   164c0:	3062003f 	andi	v0,v1,0x3f
   164c4:	10440027 	beq	v0,a0,0x16564
   164c8:	8f850020 	lw	a1,32(gp)
   164cc:	8ce40024 	lw	a0,36(a3)
   164d0:	14800021 	bnez	a0,0x16558
   164d4:	00000000 	nop
   164d8:	8d2e0018 	lw	t6,24(t1)
   164dc:	3c187fff 	lui	t8,0x7fff
   164e0:	8f850020 	lw	a1,32(gp)
   164e4:	370fffff 	ori	t7,t8,0xffff
   164e8:	01cf1824 	and	v1,t6,t7
   164ec:	af830008 	sw	v1,8(gp)
   164f0:	8f9f0008 	lw	ra,8(gp)
   164f4:	8ca80084 	lw	t0,132(a1)
   164f8:	03e8c82b 	sltu	t9,ra,t0
   164fc:	17200002 	bnez	t9,0x16508
   16500:	03e02021 	move	a0,ra
   16504:	8ca40084 	lw	a0,132(a1)
   16508:	0a000bbc 	j	0x8002ef0
   1650c:	af840008 	sw	a0,8(gp)
   16510:	8ca3010c 	lw	v1,268(a1)
   16514:	0a000b9a 	j	0x8002e68
   16518:	af830018 	sw	v1,24(gp)
   1651c:	8d2c0018 	lw	t4,24(t1)
   16520:	8f860008 	lw	a2,8(gp)
   16524:	3c0d7fff 	lui	t5,0x7fff
   16528:	8f890020 	lw	t1,32(gp)
   1652c:	35a3ffff 	ori	v1,t5,0xffff
   16530:	01835824 	and	t3,t4,v1
   16534:	24040001 	li	a0,1
   16538:	af8b0010 	sw	t3,16(gp)
   1653c:	ad2000cc 	sw	zero,204(t1)
   16540:	a3840004 	sb	a0,4(gp)
   16544:	0a000bc8 	j	0x8002f20
   16548:	af86000c 	sw	a2,12(gp)
   1654c:	8cca0014 	lw	t2,20(a2)
   16550:	0a000bbc 	j	0x8002ef0
   16554:	af8a0008 	sw	t2,8(gp)
   16558:	8ca300c8 	lw	v1,200(a1)
   1655c:	0a000bff 	j	0x8002ffc
   16560:	af830008 	sw	v1,8(gp)
   16564:	8f84002c 	lw	a0,44(gp)
   16568:	8cac0064 	lw	t4,100(a1)
   1656c:	8c8d0014 	lw	t5,20(a0)
   16570:	018d582b 	sltu	t3,t4,t5
   16574:	11600004 	beqz	t3,0x16588
   16578:	00000000 	nop
   1657c:	8ca20064 	lw	v0,100(a1)
   16580:	0a000bff 	j	0x8002ffc
   16584:	af820008 	sw	v0,8(gp)
   16588:	8c820014 	lw	v0,20(a0)
   1658c:	0a000bff 	j	0x8002ffc
   16590:	af820008 	sw	v0,8(gp)
   16594:	8f85000c 	lw	a1,12(gp)
   16598:	27bdffe0 	addiu	sp,sp,-32
   1659c:	afbf0018 	sw	ra,24(sp)
   165a0:	afb10014 	sw	s1,20(sp)
   165a4:	14a00007 	bnez	a1,0x165c4
   165a8:	afb00010 	sw	s0,16(sp)
   165ac:	8f860024 	lw	a2,36(gp)
   165b0:	24020005 	li	v0,5
   165b4:	90c40000 	lbu	a0,0(a2)
   165b8:	3083003f 	andi	v1,a0,0x3f
   165bc:	106200b6 	beq	v1,v0,0x16898
   165c0:	8f840020 	lw	a0,32(gp)
   165c4:	8f910008 	lw	s1,8(gp)
   165c8:	00a08021 	move	s0,a1
   165cc:	8f8c0028 	lw	t4,40(gp)
   165d0:	3c050800 	lui	a1,0x800
   165d4:	8ca53cb0 	lw	a1,15536(a1)
   165d8:	8d8b0004 	lw	t3,4(t4)
   165dc:	31663fff 	andi	a2,t3,0x3fff
   165e0:	00c5502b 	sltu	t2,a2,a1
   165e4:	55400001 	bnezl	t2,0x165ec
   165e8:	00c02821 	move	a1,a2
   165ec:	938d0004 	lbu	t5,4(gp)
   165f0:	11a00073 	beqz	t5,0x167c0
   165f4:	00b0f82b 	sltu	ra,a1,s0
   165f8:	8f980020 	lw	t8,32(gp)
   165fc:	24040034 	li	a0,52
   16600:	930f00bc 	lbu	t7,188(t8)
   16604:	31ee0002 	andi	t6,t7,0x2
   16608:	51c00001 	beqzl	t6,0x16610
   1660c:	24040030 	li	a0,48
   16610:	00a4c82b 	sltu	t9,a1,a0
   16614:	172000d1 	bnez	t9,0x1695c
   16618:	00000000 	nop
   1661c:	00a42823 	subu	a1,a1,a0
   16620:	00b0f82b 	sltu	ra,a1,s0
   16624:	3c010800 	lui	at,0x800
   16628:	a4243cbc 	sh	a0,15548(at)
   1662c:	17e00068 	bnez	ra,0x167d0
   16630:	02002021 	move	a0,s0
   16634:	3c030800 	lui	v1,0x800
   16638:	8c633cac 	lw	v1,15532(v1)
   1663c:	0083102b 	sltu	v0,a0,v1
   16640:	54400001 	bnezl	v0,0x16648
   16644:	00801821 	move	v1,a0
   16648:	8f880024 	lw	t0,36(gp)
   1664c:	3c010800 	lui	at,0x800
   16650:	ac233cb4 	sw	v1,15540(at)
   16654:	00004821 	move	t1,zero
   16658:	9104000d 	lbu	a0,13(t0)
   1665c:	30830020 	andi	v1,a0,0x20
   16660:	50600001 	beqzl	v1,0x16668
   16664:	8f490e18 	lw	t1,3608(k0)
   16668:	8f830014 	lw	v1,20(gp)
   1666c:	0123382b 	sltu	a3,t1,v1
   16670:	10e00059 	beqz	a3,0x167d8
   16674:	00000000 	nop
   16678:	3c040800 	lui	a0,0x800
   1667c:	8c843cb4 	lw	a0,15540(a0)
   16680:	00895821 	addu	t3,a0,t1
   16684:	006b502b 	sltu	t2,v1,t3
   16688:	11400056 	beqz	t2,0x167e4
   1668c:	0090602b 	sltu	t4,a0,s0
   16690:	00693023 	subu	a2,v1,t1
   16694:	00c02021 	move	a0,a2
   16698:	3c010800 	lui	at,0x800
   1669c:	ac263cb4 	sw	a2,15540(at)
   166a0:	12000003 	beqz	s0,0x166b0
   166a4:	241ffffc 	li	ra,-4
   166a8:	1090008a 	beq	a0,s0,0x168d4
   166ac:	32270003 	andi	a3,s1,0x3
   166b0:	009fc824 	and	t9,a0,ra
   166b4:	3c010800 	lui	at,0x800
   166b8:	ac393cb4 	sw	t9,15540(at)
   166bc:	3c010800 	lui	at,0x800
   166c0:	a4203cd2 	sh	zero,15570(at)
   166c4:	8f84000c 	lw	a0,12(gp)
   166c8:	12040007 	beq	s0,a0,0x166e8
   166cc:	8f830020 	lw	v1,32(gp)
   166d0:	af910008 	sw	s1,8(gp)
   166d4:	02002021 	move	a0,s0
   166d8:	8c7100cc 	lw	s1,204(v1)
   166dc:	af90000c 	sw	s0,12(gp)
   166e0:	26300001 	addiu	s0,s1,1
   166e4:	ac7000cc 	sw	s0,204(v1)
   166e8:	3c020800 	lui	v0,0x800
   166ec:	8c423cb4 	lw	v0,15540(v0)
   166f0:	8f8a0010 	lw	t2,16(gp)
   166f4:	24070018 	li	a3,24
   166f8:	00822023 	subu	a0,a0,v0
   166fc:	01422823 	subu	a1,t2,v0
   16700:	af84000c 	sw	a0,12(gp)
   16704:	10800002 	beqz	a0,0x16710
   16708:	af850010 	sw	a1,16(gp)
   1670c:	24070010 	li	a3,16
   16710:	8f86001c 	lw	a2,28(gp)
   16714:	3c010800 	lui	at,0x800
   16718:	a0273cd0 	sb	a3,15568(at)
   1671c:	24070040 	li	a3,64
   16720:	90cc0085 	lbu	t4,133(a2)
   16724:	318b00c0 	andi	t3,t4,0xc0
   16728:	11670040 	beq	t3,a3,0x1682c
   1672c:	8f8d0014 	lw	t5,20(gp)
   16730:	14a00015 	bnez	a1,0x16788
   16734:	00002021 	move	a0,zero
   16738:	934a0109 	lbu	t2,265(k0)
   1673c:	8f420974 	lw	v0,2420(k0)
   16740:	314500ff 	andi	a1,t2,0xff
   16744:	00022602 	srl	a0,v0,0x18
   16748:	24a30001 	addiu	v1,a1,1
   1674c:	3090007f 	andi	s0,a0,0x7f
   16750:	3071007f 	andi	s1,v1,0x7f
   16754:	1230007a 	beq	s1,s0,0x16940
   16758:	2407ff80 	li	a3,-128
   1675c:	a0c30083 	sb	v1,131(a2)
   16760:	3c090800 	lui	t1,0x800
   16764:	8d293ccc 	lw	t1,15564(t1)
   16768:	8f880024 	lw	t0,36(gp)
   1676c:	240d0002 	li	t5,2
   16770:	352c0008 	ori	t4,t1,0x8
   16774:	3c010800 	lui	at,0x800
   16778:	a02d3d11 	sb	t5,15633(at)
   1677c:	3c010800 	lui	at,0x800
   16780:	ac2c3ccc 	sw	t4,15564(at)
   16784:	24040010 	li	a0,16
   16788:	910e000d 	lbu	t6,13(t0)
   1678c:	31c60020 	andi	a2,t6,0x20
   16790:	10c00005 	beqz	a2,0x167a8
   16794:	00801821 	move	v1,a0
   16798:	24080001 	li	t0,1
   1679c:	3c010800 	lui	at,0x800
   167a0:	ac283cb4 	sw	t0,15540(at)
   167a4:	34830001 	ori	v1,a0,0x1
   167a8:	8fbf0018 	lw	ra,24(sp)
   167ac:	8fb10014 	lw	s1,20(sp)
   167b0:	8fb00010 	lw	s0,16(sp)
   167b4:	00601021 	move	v0,v1
   167b8:	03e00008 	jr	ra
   167bc:	27bd0020 	addiu	sp,sp,32
   167c0:	3c010800 	lui	at,0x800
   167c4:	a4203cbc 	sh	zero,15548(at)
   167c8:	13e0ff9a 	beqz	ra,0x16634
   167cc:	02002021 	move	a0,s0
   167d0:	0a000c50 	j	0x8003140
   167d4:	00a02021 	move	a0,a1
   167d8:	3c040800 	lui	a0,0x800
   167dc:	8c843cb4 	lw	a0,15540(a0)
   167e0:	0090602b 	sltu	t4,a0,s0
   167e4:	1180ffae 	beqz	t4,0x166a0
   167e8:	00000000 	nop
   167ec:	3c0f0800 	lui	t7,0x800
   167f0:	95ef3cbc 	lhu	t7,15548(t7)
   167f4:	01e47021 	addu	t6,t7,a0
   167f8:	01c6682b 	sltu	t5,t6,a2
   167fc:	11a00007 	beqz	t5,0x1681c
   16800:	2c820004 	sltiu	v0,a0,4
   16804:	3c1f6000 	lui	ra,0x6000
   16808:	8ff95404 	lw	t9,21508(ra)
   1680c:	3338003f 	andi	t8,t9,0x3f
   16810:	1700ffe5 	bnez	t8,0x167a8
   16814:	24030042 	li	v1,66
   16818:	2c820004 	sltiu	v0,a0,4
   1681c:	1040ffa0 	beqz	v0,0x166a0
   16820:	24030042 	li	v1,66
   16824:	0a000cae 	j	0x80032b8
   16828:	8fbf0018 	lw	ra,24(sp)
   1682c:	152dffc0 	bne	t1,t5,0x16730
   16830:	00000000 	nop
   16834:	8cdf0074 	lw	ra,116(a2)
   16838:	3c038000 	lui	v1,0x8000
   1683c:	2405ff80 	li	a1,-128
   16840:	03e3c825 	or	t9,ra,v1
   16844:	acd90074 	sw	t9,116(a2)
   16848:	90d80085 	lbu	t8,133(a2)
   1684c:	240e0004 	li	t6,4
   16850:	24040010 	li	a0,16
   16854:	330f003f 	andi	t7,t8,0x3f
   16858:	01e54025 	or	t0,t7,a1
   1685c:	a0c80085 	sb	t0,133(a2)
   16860:	8f880024 	lw	t0,36(gp)
   16864:	3c010800 	lui	at,0x800
   16868:	a02e3d11 	sb	t6,15633(at)
   1686c:	24030001 	li	v1,1
   16870:	9106000d 	lbu	a2,13(t0)
   16874:	30c90020 	andi	t1,a2,0x20
   16878:	15200003 	bnez	t1,0x16888
   1687c:	00000000 	nop
   16880:	3c030800 	lui	v1,0x800
   16884:	8c633cb4 	lw	v1,15540(v1)
   16888:	3c010800 	lui	at,0x800
   1688c:	ac233cac 	sw	v1,15532(at)
   16890:	0a000ca5 	j	0x8003294
   16894:	00000000 	nop
   16898:	8f870010 	lw	a3,16(gp)
   1689c:	8c880084 	lw	t0,132(a0)
   168a0:	00e8282b 	sltu	a1,a3,t0
   168a4:	14a00002 	bnez	a1,0x168b0
   168a8:	00e08821 	move	s1,a3
   168ac:	8c910084 	lw	s1,132(a0)
   168b0:	24090001 	li	t1,1
   168b4:	a3890004 	sb	t1,4(gp)
   168b8:	8f440e18 	lw	a0,3608(k0)
   168bc:	02202821 	move	a1,s1
   168c0:	0e000b01 	jal	0x8002c04
   168c4:	02203021 	move	a2,s1
   168c8:	02208021 	move	s0,s1
   168cc:	0a000c36 	j	0x80030d8
   168d0:	af820014 	sw	v0,20(gp)
   168d4:	00071823 	negu	v1,a3
   168d8:	30660003 	andi	a2,v1,0x3
   168dc:	3c010800 	lui	at,0x800
   168e0:	a4263cd2 	sh	a2,15570(at)
   168e4:	12200005 	beqz	s1,0x168fc
   168e8:	8f8c0020 	lw	t4,32(gp)
   168ec:	918b00bc 	lbu	t3,188(t4)
   168f0:	316a0004 	andi	t2,t3,0x4
   168f4:	15400015 	bnez	t2,0x1694c
   168f8:	24cd0004 	addiu	t5,a2,4
   168fc:	3c0f0800 	lui	t7,0x800
   16900:	95ef3cd2 	lhu	t7,15570(t7)
   16904:	01e47021 	addu	t6,t7,a0
   16908:	00ae302b 	sltu	a2,a1,t6
   1690c:	50c0ff6e 	beqzl	a2,0x166c8
   16910:	8f84000c 	lw	a0,12(gp)
   16914:	2c850005 	sltiu	a1,a0,5
   16918:	14a0ffa3 	bnez	a1,0x167a8
   1691c:	24030042 	li	v1,66
   16920:	30980003 	andi	t8,a0,0x3
   16924:	17000002 	bnez	t8,0x16930
   16928:	00981823 	subu	v1,a0,t8
   1692c:	2483fffc 	addiu	v1,a0,-4
   16930:	3c010800 	lui	at,0x800
   16934:	ac233cb4 	sw	v1,15540(at)
   16938:	0a000c72 	j	0x80031c8
   1693c:	00000000 	nop
   16940:	00a75824 	and	t3,a1,a3
   16944:	0a000c9a 	j	0x8003268
   16948:	01671826 	xor	v1,t3,a3
   1694c:	3c010800 	lui	at,0x800
   16950:	a42d3cd2 	sh	t5,15570(at)
   16954:	0a000d02 	j	0x8003408
   16958:	00000000 	nop
   1695c:	3c010800 	lui	at,0x800
   16960:	ac203cb4 	sw	zero,15540(at)
   16964:	0a000cad 	j	0x80032b4
   16968:	24030042 	li	v1,66
   1696c:	8f830010 	lw	v1,16(gp)
   16970:	14600007 	bnez	v1,0x16990
   16974:	00001021 	move	v0,zero
   16978:	8f880024 	lw	t0,36(gp)
   1697c:	24050005 	li	a1,5
   16980:	91060000 	lbu	a2,0(t0)
   16984:	30c400ff 	andi	a0,a2,0xff
   16988:	10850003 	beq	a0,a1,0x16998
   1698c:	00000000 	nop
   16990:	03e00008 	jr	ra
   16994:	00000000 	nop
   16998:	910a0018 	lbu	t2,24(t0)
   1699c:	314900ff 	andi	t1,t2,0xff
   169a0:	000939c2 	srl	a3,t1,0x7
   169a4:	14e0fffa 	bnez	a3,0x16990
   169a8:	8f85001c 	lw	a1,28(gp)
   169ac:	3c040800 	lui	a0,0x800
   169b0:	94843cbc 	lhu	a0,15548(a0)
   169b4:	3c030800 	lui	v1,0x800
   169b8:	8c633cd4 	lw	v1,15572(v1)
   169bc:	3c190800 	lui	t9,0x800
   169c0:	8f393cb4 	lw	t9,15540(t9)
   169c4:	3c0f0800 	lui	t7,0x800
   169c8:	95ef3cd2 	lhu	t7,15570(t7)
   169cc:	0064c021 	addu	t8,v1,a0
   169d0:	8cad0054 	lw	t5,84(a1)
   169d4:	03197021 	addu	t6,t8,t9
   169d8:	01cf6021 	addu	t4,t6,t7
   169dc:	018d5823 	subu	t3,t4,t5
   169e0:	1960001d 	blez	t3,0x16a58
   169e4:	00000000 	nop
   169e8:	910e001c 	lbu	t6,28(t0)
   169ec:	8f8c002c 	lw	t4,44(gp)
   169f0:	974b0e10 	lhu	t3,3600(k0)
   169f4:	31cd00ff 	andi	t5,t6,0xff
   169f8:	8d850004 	lw	a1,4(t4)
   169fc:	016d3023 	subu	a2,t3,t5
   16a00:	8d880000 	lw	t0,0(t4)
   16a04:	30ceffff 	andi	t6,a2,0xffff
   16a08:	000e5100 	sll	t2,t6,0x4
   16a0c:	00aac821 	addu	t9,a1,t2
   16a10:	00003821 	move	a3,zero
   16a14:	01072021 	addu	a0,t0,a3
   16a18:	032a182b 	sltu	v1,t9,t2
   16a1c:	0083c021 	addu	t8,a0,v1
   16a20:	ad990004 	sw	t9,4(t4)
   16a24:	ad980000 	sw	t8,0(t4)
   16a28:	918f000a 	lbu	t7,10(t4)
   16a2c:	01cf6821 	addu	t5,t6,t7
   16a30:	a18d000a 	sb	t5,10(t4)
   16a34:	8f88002c 	lw	t0,44(gp)
   16a38:	974b0e12 	lhu	t3,3602(k0)
   16a3c:	a50b0008 	sh	t3,8(t0)
   16a40:	950a0038 	lhu	t2,56(t0)
   16a44:	25490001 	addiu	t1,t2,1
   16a48:	a5090038 	sh	t1,56(t0)
   16a4c:	9107000d 	lbu	a3,13(t0)
   16a50:	34e60008 	ori	a2,a3,0x8
   16a54:	a106000d 	sb	a2,13(t0)
   16a58:	03e00008 	jr	ra
   16a5c:	00000000 	nop
   16a60:	27bdffe0 	addiu	sp,sp,-32
   16a64:	93870004 	lbu	a3,4(gp)
   16a68:	8f8f0024 	lw	t7,36(gp)
   16a6c:	8fad0014 	lw	t5,20(sp)
   16a70:	3c0e7fff 	lui	t6,0x7fff
   16a74:	8f89000c 	lw	t1,12(gp)
   16a78:	35c8ffff 	ori	t0,t6,0xffff
   16a7c:	afbf001c 	sw	ra,28(sp)
   16a80:	afb00018 	sw	s0,24(sp)
   16a84:	01a81824 	and	v1,t5,t0
   16a88:	91ea000d 	lbu	t2,13(t7)
   16a8c:	000717c0 	sll	v0,a3,0x1f
   16a90:	3c1fbfff 	lui	ra,0xbfff
   16a94:	00625825 	or	t3,v1,v0
   16a98:	2d2e0001 	sltiu	t6,t1,1
   16a9c:	8f900018 	lw	s0,24(gp)
   16aa0:	37f9ffff 	ori	t9,ra,0xffff
   16aa4:	3c180800 	lui	t8,0x800
   16aa8:	8f183cd4 	lw	t8,15572(t8)
   16aac:	3c0f0800 	lui	t7,0x800
   16ab0:	95ef3cca 	lhu	t7,15562(t7)
   16ab4:	01796824 	and	t5,t3,t9
   16ab8:	000e4780 	sll	t0,t6,0x1e
   16abc:	3c07efff 	lui	a3,0xefff
   16ac0:	3c05f0ff 	lui	a1,0xf0ff
   16ac4:	01a81825 	or	v1,t5,t0
   16ac8:	31490020 	andi	t1,t2,0x20
   16acc:	34e2ffff 	ori	v0,a3,0xffff
   16ad0:	34acffff 	ori	t4,a1,0xffff
   16ad4:	03105823 	subu	t3,t8,s0
   16ad8:	27a50010 	addiu	a1,sp,16
   16adc:	24060002 	li	a2,2
   16ae0:	25ea0002 	addiu	t2,t7,2
   16ae4:	00621824 	and	v1,v1,v0
   16ae8:	00808021 	move	s0,a0
   16aec:	15200002 	bnez	t1,0x16af8
   16af0:	00004021 	move	t0,zero
   16af4:	8f480e1c 	lw	t0,3612(k0)
   16af8:	a7aa0012 	sh	t2,18(sp)
   16afc:	05600037 	bltz	t3,0x16bdc
   16b00:	24070000 	li	a3,0
   16b04:	30ff00ff 	andi	ra,a3,0xff
   16b08:	001fcf00 	sll	t9,ra,0x1c
   16b0c:	8f8b001c 	lw	t3,28(gp)
   16b10:	00793825 	or	a3,v1,t9
   16b14:	afa70014 	sw	a3,20(sp)
   16b18:	916f0085 	lbu	t7,133(t3)
   16b1c:	3c080800 	lui	t0,0x800
   16b20:	91083cd1 	lbu	t0,15569(t0)
   16b24:	3c18dfff 	lui	t8,0xdfff
   16b28:	31ee00c0 	andi	t6,t7,0xc0
   16b2c:	370affff 	ori	t2,t8,0xffff
   16b30:	000e182b 	sltu	v1,zero,t6
   16b34:	3c1f0800 	lui	ra,0x800
   16b38:	97ff3cc4 	lhu	ra,15556(ra)
   16b3c:	00ea6824 	and	t5,a3,t2
   16b40:	a3a80011 	sb	t0,17(sp)
   16b44:	00031740 	sll	v0,v1,0x1d
   16b48:	01a24825 	or	t1,t5,v0
   16b4c:	8fb90010 	lw	t9,16(sp)
   16b50:	afa90014 	sw	t1,20(sp)
   16b54:	3c0a0800 	lui	t2,0x800
   16b58:	914a3cd3 	lbu	t2,15571(t2)
   16b5c:	a7bf0016 	sh	ra,22(sp)
   16b60:	8fa80014 	lw	t0,20(sp)
   16b64:	032cc024 	and	t8,t9,t4
   16b68:	3c0b0100 	lui	t3,0x100
   16b6c:	3c0f0fff 	lui	t7,0xfff
   16b70:	030b1825 	or	v1,t8,t3
   16b74:	31470003 	andi	a3,t2,0x3
   16b78:	35eeffff 	ori	t6,t7,0xffff
   16b7c:	010c6824 	and	t5,t0,t4
   16b80:	00071600 	sll	v0,a3,0x18
   16b84:	006ef824 	and	ra,v1,t6
   16b88:	3c097000 	lui	t1,0x7000
   16b8c:	01a2c825 	or	t9,t5,v0
   16b90:	03e95825 	or	t3,ra,t1
   16b94:	afb90014 	sw	t9,20(sp)
   16b98:	afab0010 	sw	t3,16(sp)
   16b9c:	0e000076 	jal	0x80001d8
   16ba0:	a3a00015 	sb	zero,21(sp)
   16ba4:	8f8c0024 	lw	t4,36(gp)
   16ba8:	26020008 	addiu	v0,s0,8
   16bac:	9186000d 	lbu	a2,13(t4)
   16bb0:	30c40020 	andi	a0,a2,0x20
   16bb4:	10800006 	beqz	a0,0x16bd0
   16bb8:	8fbf001c 	lw	ra,28(sp)
   16bbc:	3c050800 	lui	a1,0x800
   16bc0:	94a53cc0 	lhu	a1,15552(a1)
   16bc4:	24b0ffff 	addiu	s0,a1,-1
   16bc8:	3c010800 	lui	at,0x800
   16bcc:	a4303cc0 	sh	s0,15552(at)
   16bd0:	8fb00018 	lw	s0,24(sp)
   16bd4:	03e00008 	jr	ra
   16bd8:	27bd0020 	addiu	sp,sp,32
   16bdc:	8f980014 	lw	t8,20(gp)
   16be0:	0118502b 	sltu	t2,t0,t8
   16be4:	5540ffc7 	bnezl	t2,0x16b04
   16be8:	24070001 	li	a3,1
   16bec:	0a000d85 	j	0x8003614
   16bf0:	30ff00ff 	andi	ra,a3,0xff
   16bf4:	93820004 	lbu	v0,4(gp)
   16bf8:	27bdffe0 	addiu	sp,sp,-32
   16bfc:	afbf0018 	sw	ra,24(sp)
   16c00:	1040000f 	beqz	v0,0x16c40
   16c04:	00805021 	move	t2,a0
   16c08:	8f880024 	lw	t0,36(gp)
   16c0c:	240b0005 	li	t3,5
   16c10:	8f890008 	lw	t1,8(gp)
   16c14:	91070000 	lbu	a3,0(t0)
   16c18:	8f840020 	lw	a0,32(gp)
   16c1c:	01002821 	move	a1,t0
   16c20:	30e3003f 	andi	v1,a3,0x3f
   16c24:	8f86002c 	lw	a2,44(gp)
   16c28:	106b0008 	beq	v1,t3,0x16c4c
   16c2c:	00003821 	move	a3,zero
   16c30:	afa90010 	sw	t1,16(sp)
   16c34:	0e00040e 	jal	0x8001038
   16c38:	afaa0014 	sw	t2,20(sp)
   16c3c:	a3800004 	sb	zero,4(gp)
   16c40:	8fbf0018 	lw	ra,24(sp)
   16c44:	03e00008 	jr	ra
   16c48:	27bd0020 	addiu	sp,sp,32
   16c4c:	8d190018 	lw	t9,24(t0)
   16c50:	3c0f0800 	lui	t7,0x800
   16c54:	8def3cb4 	lw	t7,15540(t7)
   16c58:	8f980010 	lw	t8,16(gp)
   16c5c:	3c027fff 	lui	v0,0x7fff
   16c60:	8d080014 	lw	t0,20(t0)
   16c64:	345fffff 	ori	ra,v0,0xffff
   16c68:	033f6824 	and	t5,t9,ra
   16c6c:	01f87021 	addu	t6,t7,t8
   16c70:	01ae6023 	subu	t4,t5,t6
   16c74:	01883821 	addu	a3,t4,t0
   16c78:	afa90010 	sw	t1,16(sp)
   16c7c:	0e00040e 	jal	0x8001038
   16c80:	afaa0014 	sw	t2,20(sp)
   16c84:	0a000dd3 	j	0x800374c
   16c88:	a3800004 	sb	zero,4(gp)
   16c8c:	8f870024 	lw	a3,36(gp)
   16c90:	3c050800 	lui	a1,0x800
   16c94:	94a53cd2 	lhu	a1,15570(a1)
   16c98:	3c020800 	lui	v0,0x800
   16c9c:	8c423ccc 	lw	v0,15564(v0)
   16ca0:	90e6000d 	lbu	a2,13(a3)
   16ca4:	00052400 	sll	a0,a1,0x10
   16ca8:	30c30020 	andi	v1,a2,0x20
   16cac:	1060002c 	beqz	v1,0x16d60
   16cb0:	00444025 	or	t0,v0,a0
   16cb4:	8f85001c 	lw	a1,28(gp)
   16cb8:	00006021 	move	t4,zero
   16cbc:	240b0001 	li	t3,1
   16cc0:	90a30085 	lbu	v1,133(a1)
   16cc4:	00004821 	move	t1,zero
   16cc8:	240a0001 	li	t2,1
   16ccc:	3c0f8000 	lui	t7,0x8000
   16cd0:	35ee0070 	ori	t6,t7,0x70
   16cd4:	8dc70000 	lw	a3,0(t6)
   16cd8:	af870030 	sw	a3,48(gp)
   16cdc:	8f580178 	lw	t8,376(k0)
   16ce0:	0700fffe 	bltz	t8,0x16cdc
   16ce4:	3c038000 	lui	v1,0x8000
   16ce8:	34790070 	ori	t9,v1,0x70
   16cec:	8f380000 	lw	t8,0(t9)
   16cf0:	3c050800 	lui	a1,0x800
   16cf4:	8ca50074 	lw	a1,116(a1)
   16cf8:	3c0d0800 	lui	t5,0x800
   16cfc:	8dad0070 	lw	t5,112(t5)
   16d00:	03077823 	subu	t7,t8,a3
   16d04:	00af3821 	addu	a3,a1,t7
   16d08:	00001021 	move	v0,zero
   16d0c:	00ef302b 	sltu	a2,a3,t7
   16d10:	01a22021 	addu	a0,t5,v0
   16d14:	00861821 	addu	v1,a0,a2
   16d18:	3c010800 	lui	at,0x800
   16d1c:	ac270074 	sw	a3,116(at)
   16d20:	3c010800 	lui	at,0x800
   16d24:	ac230070 	sw	v1,112(at)
   16d28:	af4b0148 	sw	t3,328(k0)
   16d2c:	3c190800 	lui	t9,0x800
   16d30:	8f393cd4 	lw	t9,15572(t9)
   16d34:	a7490144 	sh	t1,324(k0)
   16d38:	a74a0146 	sh	t2,326(k0)
   16d3c:	af59014c 	sw	t9,332(k0)
   16d40:	3c0b0800 	lui	t3,0x800
   16d44:	916b3cd1 	lbu	t3,15569(t3)
   16d48:	a34b0152 	sb	t3,338(k0)
   16d4c:	af480154 	sw	t0,340(k0)
   16d50:	3c081000 	lui	t0,0x1000
   16d54:	a74c0158 	sh	t4,344(k0)
   16d58:	03e00008 	jr	ra
   16d5c:	af480178 	sw	t0,376(k0)
   16d60:	8f4b0e1c 	lw	t3,3612(k0)
   16d64:	3c0a0800 	lui	t2,0x800
   16d68:	8d4a3cb4 	lw	t2,15540(t2)
   16d6c:	97490e16 	lhu	t1,3606(k0)
   16d70:	974d0e14 	lhu	t5,3604(k0)
   16d74:	01456021 	addu	t4,t2,a1
   16d78:	312affff 	andi	t2,t1,0xffff
   16d7c:	0a000df6 	j	0x80037d8
   16d80:	31a9ffff 	andi	t1,t5,0xffff
   16d84:	8f830024 	lw	v1,36(gp)
   16d88:	9064000d 	lbu	a0,13(v1)
   16d8c:	30820020 	andi	v0,a0,0x20
   16d90:	10400029 	beqz	v0,0x16e38
   16d94:	00000000 	nop
   16d98:	00004821 	move	t1,zero
   16d9c:	00005021 	move	t2,zero
   16da0:	00004021 	move	t0,zero
   16da4:	3c078000 	lui	a3,0x8000
   16da8:	34eb0070 	ori	t3,a3,0x70
   16dac:	8d670000 	lw	a3,0(t3)
   16db0:	af870030 	sw	a3,48(gp)
   16db4:	8f4c0178 	lw	t4,376(k0)
   16db8:	0580fffe 	bltz	t4,0x16db4
   16dbc:	3c0d8000 	lui	t5,0x8000
   16dc0:	35ac0070 	ori	t4,t5,0x70
   16dc4:	8d8b0000 	lw	t3,0(t4)
   16dc8:	3c050800 	lui	a1,0x800
   16dcc:	8ca50074 	lw	a1,116(a1)
   16dd0:	3c040800 	lui	a0,0x800
   16dd4:	8c840070 	lw	a0,112(a0)
   16dd8:	01673023 	subu	a2,t3,a3
   16ddc:	00a67821 	addu	t7,a1,a2
   16de0:	00001021 	move	v0,zero
   16de4:	01e6c82b 	sltu	t9,t7,a2
   16de8:	0082c021 	addu	t8,a0,v0
   16dec:	03197021 	addu	t6,t8,t9
   16df0:	3c010800 	lui	at,0x800
   16df4:	ac2f0074 	sw	t7,116(at)
   16df8:	3c010800 	lui	at,0x800
   16dfc:	ac2e0070 	sw	t6,112(at)
   16e00:	af490148 	sw	t1,328(k0)
   16e04:	3c0d0800 	lui	t5,0x800
   16e08:	8dad3cd4 	lw	t5,15572(t5)
   16e0c:	a7480144 	sh	t0,324(k0)
   16e10:	24090040 	li	t1,64
   16e14:	a74a0146 	sh	t2,326(k0)
   16e18:	3c081000 	lui	t0,0x1000
   16e1c:	240aff91 	li	t2,-111
   16e20:	af4d014c 	sw	t5,332(k0)
   16e24:	a34a0152 	sb	t2,338(k0)
   16e28:	af490154 	sw	t1,340(k0)
   16e2c:	a7400158 	sh	zero,344(k0)
   16e30:	03e00008 	jr	ra
   16e34:	af480178 	sw	t0,376(k0)
   16e38:	8f490e18 	lw	t1,3608(k0)
   16e3c:	97460e12 	lhu	a2,3602(k0)
   16e40:	97450e10 	lhu	a1,3600(k0)
   16e44:	30caffff 	andi	t2,a2,0xffff
   16e48:	0a000e2c 	j	0x80038b0
   16e4c:	30a8ffff 	andi	t0,a1,0xffff
   16e50:	8f830024 	lw	v1,36(gp)
   16e54:	27bdfff8 	addiu	sp,sp,-8
   16e58:	9064000d 	lbu	a0,13(v1)
   16e5c:	30820020 	andi	v0,a0,0x20
   16e60:	1040003a 	beqz	v0,0x16f4c
   16e64:	00000000 	nop
   16e68:	240b0001 	li	t3,1
   16e6c:	00004821 	move	t1,zero
   16e70:	240a0001 	li	t2,1
   16e74:	3c088000 	lui	t0,0x8000
   16e78:	35070070 	ori	a3,t0,0x70
   16e7c:	8ce30000 	lw	v1,0(a3)
   16e80:	af830030 	sw	v1,48(gp)
   16e84:	8f4c0178 	lw	t4,376(k0)
   16e88:	0580fffe 	bltz	t4,0x16e84
   16e8c:	3c0e8000 	lui	t6,0x8000
   16e90:	3c040800 	lui	a0,0x800
   16e94:	90843d10 	lbu	a0,15632(a0)
   16e98:	35c70070 	ori	a3,t6,0x70
   16e9c:	8cec0000 	lw	t4,0(a3)
   16ea0:	3c050800 	lui	a1,0x800
   16ea4:	8ca50074 	lw	a1,116(a1)
   16ea8:	a3a40003 	sb	a0,3(sp)
   16eac:	3c190800 	lui	t9,0x800
   16eb0:	8f390070 	lw	t9,112(t9)
   16eb4:	8fad0000 	lw	t5,0(sp)
   16eb8:	01833023 	subu	a2,t4,v1
   16ebc:	00a63821 	addu	a3,a1,a2
   16ec0:	00001021 	move	v0,zero
   16ec4:	03227821 	addu	t7,t9,v0
   16ec8:	00e6c02b 	sltu	t8,a3,a2
   16ecc:	01f86021 	addu	t4,t7,t8
   16ed0:	01ae4025 	or	t0,t5,t6
   16ed4:	afa80000 	sw	t0,0(sp)
   16ed8:	3c010800 	lui	at,0x800
   16edc:	ac270074 	sw	a3,116(at)
   16ee0:	3c010800 	lui	at,0x800
   16ee4:	ac2c0070 	sw	t4,112(at)
   16ee8:	9346010a 	lbu	a2,266(k0)
   16eec:	3c040800 	lui	a0,0x800
   16ef0:	90843d11 	lbu	a0,15633(a0)
   16ef4:	a3a00002 	sb	zero,2(sp)
   16ef8:	a3a60001 	sb	a2,1(sp)
   16efc:	8fa30000 	lw	v1,0(sp)
   16f00:	3c0580ff 	lui	a1,0x80ff
   16f04:	3099007f 	andi	t9,a0,0x7f
   16f08:	34a2ffff 	ori	v0,a1,0xffff
   16f0c:	00627824 	and	t7,v1,v0
   16f10:	0019c600 	sll	t8,t9,0x18
   16f14:	01f87025 	or	t6,t7,t8
   16f18:	240d3000 	li	t5,12288
   16f1c:	af4e014c 	sw	t6,332(k0)
   16f20:	27bd0008 	addiu	sp,sp,8
   16f24:	af4d0154 	sw	t5,340(k0)
   16f28:	a7400158 	sh	zero,344(k0)
   16f2c:	af4b0148 	sw	t3,328(k0)
   16f30:	a7490144 	sh	t1,324(k0)
   16f34:	a74a0146 	sh	t2,326(k0)
   16f38:	3c091000 	lui	t1,0x1000
   16f3c:	240aff80 	li	t2,-128
   16f40:	a34a0152 	sb	t2,338(k0)
   16f44:	03e00008 	jr	ra
   16f48:	af490178 	sw	t1,376(k0)
   16f4c:	8f4b0e18 	lw	t3,3608(k0)
   16f50:	97460e12 	lhu	a2,3602(k0)
   16f54:	97450e10 	lhu	a1,3600(k0)
   16f58:	30caffff 	andi	t2,a2,0xffff
   16f5c:	0a000e60 	j	0x8003980
   16f60:	30a9ffff 	andi	t1,a1,0xffff
   16f64:	8f85001c 	lw	a1,28(gp)
   16f68:	24020080 	li	v0,128
   16f6c:	90a40085 	lbu	a0,133(a1)
   16f70:	308300c0 	andi	v1,a0,0xc0
   16f74:	10620005 	beq	v1,v0,0x16f8c
   16f78:	8f860020 	lw	a2,32(gp)
   16f7c:	8f880008 	lw	t0,8(gp)
   16f80:	8f87000c 	lw	a3,12(gp)
   16f84:	acc800c8 	sw	t0,200(a2)
   16f88:	acc700c4 	sw	a3,196(a2)
   16f8c:	03e00008 	jr	ra
   16f90:	00000000 	nop
   16f94:	3c0a0800 	lui	t2,0x800
   16f98:	254a3890 	addiu	t2,t2,14480
   16f9c:	3c090800 	lui	t1,0x800
   16fa0:	2529395c 	addiu	t1,t1,14684
   16fa4:	3c080800 	lui	t0,0x800
   16fa8:	25082d10 	addiu	t0,t0,11536
   16fac:	3c070800 	lui	a3,0x800
   16fb0:	24e73a70 	addiu	a3,a3,14960
   16fb4:	3c060800 	lui	a2,0x800
   16fb8:	24c63700 	addiu	a2,a2,14080
   16fbc:	3c050800 	lui	a1,0x800
   16fc0:	24a53478 	addiu	a1,a1,13432
   16fc4:	3c040800 	lui	a0,0x800
   16fc8:	248430a0 	addiu	a0,a0,12448
   16fcc:	3c030800 	lui	v1,0x800
   16fd0:	24633798 	addiu	v1,v1,14232
   16fd4:	3c020800 	lui	v0,0x800
   16fd8:	2442356c 	addiu	v0,v0,13676
   16fdc:	3c010800 	lui	at,0x800
   16fe0:	ac2a3c90 	sw	t2,15504(at)
   16fe4:	3c010800 	lui	at,0x800
   16fe8:	ac293c8c 	sw	t1,15500(at)
   16fec:	3c010800 	lui	at,0x800
   16ff0:	ac283c88 	sw	t0,15496(at)
   16ff4:	3c010800 	lui	at,0x800
   16ff8:	ac273c94 	sw	a3,15508(at)
   16ffc:	3c010800 	lui	at,0x800
   17000:	ac263ca4 	sw	a2,15524(at)
   17004:	3c010800 	lui	at,0x800
   17008:	ac253c9c 	sw	a1,15516(at)
   1700c:	3c010800 	lui	at,0x800
   17010:	ac243c98 	sw	a0,15512(at)
   17014:	3c010800 	lui	at,0x800
   17018:	ac233ca8 	sw	v1,15528(at)
   1701c:	3c010800 	lui	at,0x800
   17020:	ac223ca0 	sw	v0,15520(at)
   17024:	03e00008 	jr	ra
   17028:	00000000 	nop