../git/linux-firmware/./bnx2/bnx2-mips-09-5.0.0.j15.fw:     file format binary


Disassembly of section .data:

00000000 <.data>:
       0:	08000110 	j	0x440
       4:	08000000 	j	0x0
       8:	000051f8 	dsll	t2,zero,0x7
       c:	000000c8 	.word	0xc8
	...
      1c:	080051f8 	j	0x147e0
      20:	00000038 	dsll	zero,zero,0x0
      24:	000052c0 	sll	t2,zero,0xb
      28:	08000088 	j	0x220
      2c:	08000000 	j	0x0
      30:	0000528c 	syscall	0x14a
      34:	000052f8 	dsll	t2,zero,0xb
      38:	08005480 	j	0x15200
      3c:	00000084 	.word	0x84
      40:	0000a584 	.word	0xa584
      44:	0800528c 	j	0x14a30
      48:	000001c0 	sll	zero,zero,0x7
      4c:	0000a608 	.word	0xa608
      50:	080031d8 	j	0xc760
      54:	08000000 	j	0x0
      58:	00008108 	.word	0x8108
      5c:	0000a7c8 	.word	0xa7c8
	...
      6c:	08008108 	j	0x20420
      70:	00000124 	.word	0x124
      74:	000128d0 	.word	0x128d0
      78:	08000488 	j	0x1220
      7c:	08000400 	j	0x1000
      80:	000017ec 	.word	0x17ec
      84:	000129f4 	teq	zero,at,0xa7
	...
      94:	08001bec 	j	0x6fb0
      98:	00000004 	sllv	zero,zero,zero
      9c:	000141e0 	.word	0x141e0
      a0:	080000a8 	j	0x2a0
      a4:	08000000 	j	0x0
      a8:	000038d0 	.word	0x38d0
      ac:	000141e4 	.word	0x141e4
	...
      bc:	080038d0 	j	0xe340
      c0:	00000030 	tge	zero,zero
      c4:	00017ab4 	teq	zero,at,0x1ea
      c8:	0a000044 	j	0x8000110
      cc:	00000000 	nop
      d0:	00000000 	nop
      d4:	0000000d 	break
      d8:	636f6d35 	daddi	t7,k1,27957
      dc:	2e302e30 	sltiu	s0,s1,11824
      e0:	6a313500 	ldl	s1,13568(s1)
      e4:	05000002 	bltz	t0,0xf0
      e8:	00000000 	nop
      ec:	00000003 	sra	zero,zero,0x0
      f0:	00000014 	dsllv	zero,zero,zero
      f4:	00000032 	tlt	zero,zero
      f8:	00000003 	sra	zero,zero,0x0
	...
     110:	00000010 	mfhi	zero
     114:	00000136 	tne	zero,zero,0x4
     118:	0000ea60 	.word	0xea60
     11c:	00000005 	.word	0x5
	...
     12c:	00000008 	jr	zero
     130:	00000000 	nop
	...
     160:	00000002 	srl	zero,zero,0x0
	...
     188:	00000010 	mfhi	zero
	...
     1dc:	10000003 	b	0x1ec
     1e0:	00000000 	nop
     1e4:	0000000d 	break
     1e8:	0000000d 	break
     1ec:	3c020800 	lui	v0,0x800
     1f0:	24425260 	addiu	v0,v0,21088
     1f4:	3c030800 	lui	v1,0x800
     1f8:	2463539c 	addiu	v1,v1,21404
     1fc:	ac400000 	sw	zero,0(v0)
     200:	0043202b 	sltu	a0,v0,v1
     204:	1480fffd 	bnez	a0,0x1fc
     208:	24420004 	addiu	v0,v0,4
     20c:	3c1d0800 	lui	sp,0x800
     210:	37bd9ffc 	ori	sp,sp,0x9ffc
     214:	03a0f021 	move	s8,sp
     218:	3c100800 	lui	s0,0x800
     21c:	26100110 	addiu	s0,s0,272
     220:	3c1c0800 	lui	gp,0x800
     224:	279c5260 	addiu	gp,gp,21088
     228:	0e00026b 	jal	0x80009ac
     22c:	00000000 	nop
     230:	0000000d 	break
     234:	27bdffe0 	addiu	sp,sp,-32
     238:	afbf0018 	sw	ra,24(sp)
     23c:	afb10014 	sw	s1,20(sp)
     240:	afb00010 	sw	s0,16(sp)
     244:	3c048000 	lui	a0,0x8000
     248:	94820108 	lhu	v0,264(a0)
     24c:	30437000 	andi	v1,v0,0x7000
     250:	24022000 	li	v0,8192
     254:	1062000b 	beq	v1,v0,0x284
     258:	28622001 	slti	v0,v1,8193
     25c:	14400036 	bnez	v0,0x338
     260:	00001021 	move	v0,zero
     264:	24024000 	li	v0,16384
     268:	1062002c 	beq	v1,v0,0x31c
     26c:	00000000 	nop
     270:	24026000 	li	v0,24576
     274:	1062002d 	beq	v1,v0,0x32c
     278:	00001021 	move	v0,zero
     27c:	0a00009d 	j	0x8000274
     280:	8fbf0018 	lw	ra,24(sp)
     284:	34910100 	ori	s1,a0,0x100
     288:	92240009 	lbu	a0,9(s1)
     28c:	8e300018 	lw	s0,24(s1)
     290:	10800020 	beqz	a0,0x314
     294:	24030001 	li	v1,1
     298:	24020009 	li	v0,9
     29c:	14820006 	bne	a0,v0,0x2b8
     2a0:	8f820024 	lw	v0,36(gp)
     2a4:	3c028008 	lui	v0,0x8008
     2a8:	9442001a 	lhu	v0,26(v0)
     2ac:	00021400 	sll	v0,v0,0x10
     2b0:	02028025 	or	s0,s0,v0
     2b4:	8f820024 	lw	v0,36(gp)
     2b8:	8c42000c 	lw	v0,12(v0)
     2bc:	10400015 	beqz	v0,0x314
     2c0:	00001821 	move	v1,zero
     2c4:	0e000d52 	jal	0x8003548
     2c8:	00000000 	nop
     2cc:	8f830024 	lw	v1,36(gp)
     2d0:	96240008 	lhu	a0,8(s1)
     2d4:	8f820020 	lw	v0,32(gp)
     2d8:	9463001e 	lhu	v1,30(v1)
     2dc:	9625000c 	lhu	a1,12(s1)
     2e0:	00042400 	sll	a0,a0,0x10
     2e4:	00832025 	or	a0,a0,v1
     2e8:	ac500000 	sw	s0,0(v0)
     2ec:	ac450004 	sw	a1,4(v0)
     2f0:	ac400008 	sw	zero,8(v0)
     2f4:	ac40000c 	sw	zero,12(v0)
     2f8:	ac400010 	sw	zero,16(v0)
     2fc:	ac400014 	sw	zero,20(v0)
     300:	ac400018 	sw	zero,24(v0)
     304:	ac44001c 	sw	a0,28(v0)
     308:	0e000d86 	jal	0x8003618
     30c:	24040001 	li	a0,1
     310:	00001821 	move	v1,zero
     314:	0a00009c 	j	0x8000270
     318:	00601021 	move	v0,v1
     31c:	0e00043b 	jal	0x80010ec
     320:	00000000 	nop
     324:	0a00009c 	j	0x8000270
     328:	00001021 	move	v0,zero
     32c:	0e000c72 	jal	0x80031c8
     330:	00000000 	nop
     334:	00001021 	move	v0,zero
     338:	8fbf0018 	lw	ra,24(sp)
     33c:	8fb10014 	lw	s1,20(sp)
     340:	8fb00010 	lw	s0,16(sp)
     344:	03e00008 	jr	ra
     348:	27bd0020 	addiu	sp,sp,32
     34c:	8f820024 	lw	v0,36(gp)
     350:	27bdffe0 	addiu	sp,sp,-32
     354:	afb00010 	sw	s0,16(sp)
     358:	afbf0018 	sw	ra,24(sp)
     35c:	afb10014 	sw	s1,20(sp)
     360:	8c42000c 	lw	v0,12(v0)
     364:	3c108000 	lui	s0,0x8000
     368:	8e110100 	lw	s1,256(s0)
     36c:	10400034 	beqz	v0,0x440
     370:	8fbf0018 	lw	ra,24(sp)
     374:	0e000d52 	jal	0x8003548
     378:	00000000 	nop
     37c:	8f850020 	lw	a1,32(gp)
     380:	24047fff 	li	a0,32767
     384:	0091202b 	sltu	a0,a0,s1
     388:	acb10000 	sw	s1,0(a1)
     38c:	8e030104 	lw	v1,260(s0)
     390:	96020108 	lhu	v0,264(s0)
     394:	00031c00 	sll	v1,v1,0x10
     398:	3042ffff 	andi	v0,v0,0xffff
     39c:	00621825 	or	v1,v1,v0
     3a0:	aca30004 	sw	v1,4(a1)
     3a4:	9202010a 	lbu	v0,266(s0)
     3a8:	96030114 	lhu	v1,276(s0)
     3ac:	304200ff 	andi	v0,v0,0xff
     3b0:	3063ffff 	andi	v1,v1,0xffff
     3b4:	00021400 	sll	v0,v0,0x10
     3b8:	00431025 	or	v0,v0,v1
     3bc:	aca20008 	sw	v0,8(a1)
     3c0:	9603010c 	lhu	v1,268(s0)
     3c4:	9602010e 	lhu	v0,270(s0)
     3c8:	00031c00 	sll	v1,v1,0x10
     3cc:	3042ffff 	andi	v0,v0,0xffff
     3d0:	00621825 	or	v1,v1,v0
     3d4:	aca3000c 	sw	v1,12(a1)
     3d8:	96030110 	lhu	v1,272(s0)
     3dc:	96020112 	lhu	v0,274(s0)
     3e0:	00031c00 	sll	v1,v1,0x10
     3e4:	3042ffff 	andi	v0,v0,0xffff
     3e8:	00621825 	or	v1,v1,v0
     3ec:	aca30010 	sw	v1,16(a1)
     3f0:	8e020118 	lw	v0,280(s0)
     3f4:	aca20014 	sw	v0,20(a1)
     3f8:	8e02011c 	lw	v0,284(s0)
     3fc:	aca20018 	sw	v0,24(a1)
     400:	14800008 	bnez	a0,0x424
     404:	8f820024 	lw	v0,36(gp)
     408:	97820000 	lhu	v0,0(gp)
     40c:	3c042005 	lui	a0,0x2005
     410:	00441825 	or	v1,v0,a0
     414:	24420001 	addiu	v0,v0,1
     418:	aca3001c 	sw	v1,28(a1)
     41c:	0a0000db 	j	0x800036c
     420:	a7820000 	sh	v0,0(gp)
     424:	3c034018 	lui	v1,0x4018
     428:	9442001e 	lhu	v0,30(v0)
     42c:	00431025 	or	v0,v0,v1
     430:	aca2001c 	sw	v0,28(a1)
     434:	0e000d86 	jal	0x8003618
     438:	24040001 	li	a0,1
     43c:	8fbf0018 	lw	ra,24(sp)
     440:	8fb10014 	lw	s1,20(sp)
     444:	8fb00010 	lw	s0,16(sp)
     448:	00001021 	move	v0,zero
     44c:	03e00008 	jr	ra
     450:	27bd0020 	addiu	sp,sp,32
     454:	3c068000 	lui	a2,0x8000
     458:	8cc202b8 	lw	v0,696(a2)
     45c:	24030001 	li	v1,1
     460:	04410008 	bgez	v0,0x484
     464:	00802821 	move	a1,a0
     468:	3c020800 	lui	v0,0x800
     46c:	8c420060 	lw	v0,96(v0)
     470:	24420001 	addiu	v0,v0,1
     474:	3c010800 	lui	at,0x800
     478:	ac220060 	sw	v0,96(at)
     47c:	03e00008 	jr	ra
     480:	00601021 	move	v0,v1
     484:	8c830020 	lw	v1,32(a0)
     488:	94820016 	lhu	v0,22(a0)
     48c:	acc30280 	sw	v1,640(a2)
     490:	2442fffc 	addiu	v0,v0,-4
     494:	a4c20284 	sh	v0,644(a2)
     498:	3c020800 	lui	v0,0x800
     49c:	8c42005c 	lw	v0,92(v0)
     4a0:	8c840004 	lw	a0,4(a0)
     4a4:	94a3000e 	lhu	v1,14(a1)
     4a8:	24420001 	addiu	v0,v0,1
     4ac:	3c010800 	lui	at,0x800
     4b0:	ac22005c 	sw	v0,92(at)
     4b4:	3c021000 	lui	v0,0x1000
     4b8:	a4c30286 	sh	v1,646(a2)
     4bc:	acc40288 	sw	a0,648(a2)
     4c0:	00001821 	move	v1,zero
     4c4:	acc202b8 	sw	v0,696(a2)
     4c8:	03e00008 	jr	ra
     4cc:	00601021 	move	v0,v1
     4d0:	27bdffe0 	addiu	sp,sp,-32
     4d4:	afb00010 	sw	s0,16(sp)
     4d8:	3c108000 	lui	s0,0x8000
     4dc:	afb20018 	sw	s2,24(sp)
     4e0:	afbf001c 	sw	ra,28(sp)
     4e4:	afb10014 	sw	s1,20(sp)
     4e8:	36120100 	ori	s2,s0,0x100
     4ec:	9243000b 	lbu	v1,11(s2)
     4f0:	2402001a 	li	v0,26
     4f4:	96510008 	lhu	s1,8(s2)
     4f8:	1462005a 	bne	v1,v0,0x664
     4fc:	00002821 	move	a1,zero
     500:	32220001 	andi	v0,s1,0x1
     504:	10400018 	beqz	v0,0x568
     508:	8f820024 	lw	v0,36(gp)
     50c:	8e420000 	lw	v0,0(s2)
     510:	00022340 	sll	a0,v0,0xd
     514:	3c02003f 	lui	v0,0x3f
     518:	3442ffff 	ori	v0,v0,0xffff
     51c:	0044102b 	sltu	v0,v0,a0
     520:	10400004 	beqz	v0,0x534
     524:	3c030040 	lui	v1,0x40
     528:	96420014 	lhu	v0,20(s2)
     52c:	0a000124 	j	0x8000490
     530:	00832021 	addu	a0,a0,v1
     534:	8e030100 	lw	v1,256(s0)
     538:	24020100 	li	v0,256
     53c:	54620006 	bnel	v1,v0,0x558
     540:	96420014 	lhu	v0,20(s2)
     544:	3c028008 	lui	v0,0x8008
     548:	90420004 	lbu	v0,4(v0)
     54c:	3042000f 	andi	v0,v0,0xf
     550:	00022500 	sll	a0,v0,0x14
     554:	96420014 	lhu	v0,20(s2)
     558:	00821025 	or	v0,a0,v0
     55c:	ae020080 	sw	v0,128(s0)
     560:	0a000157 	j	0x800055c
     564:	00000000 	nop
     568:	8c42000c 	lw	v0,12(v0)
     56c:	10400028 	beqz	v0,0x610
     570:	00000000 	nop
     574:	0e000d52 	jal	0x8003548
     578:	00000000 	nop
     57c:	96020108 	lhu	v0,264(s0)
     580:	9603010c 	lhu	v1,268(s0)
     584:	8f850020 	lw	a1,32(gp)
     588:	3042003e 	andi	v0,v0,0x3e
     58c:	3063ffff 	andi	v1,v1,0xffff
     590:	00021400 	sll	v0,v0,0x10
     594:	00431025 	or	v0,v0,v1
     598:	aca20000 	sw	v0,0(a1)
     59c:	8e020100 	lw	v0,256(s0)
     5a0:	aca20004 	sw	v0,4(a1)
     5a4:	96030116 	lhu	v1,278(s0)
     5a8:	9604010e 	lhu	a0,270(s0)
     5ac:	8f820024 	lw	v0,36(gp)
     5b0:	00031c00 	sll	v1,v1,0x10
     5b4:	3084ffff 	andi	a0,a0,0xffff
     5b8:	00641825 	or	v1,v1,a0
     5bc:	aca30008 	sw	v1,8(a1)
     5c0:	96030110 	lhu	v1,272(s0)
     5c4:	96040112 	lhu	a0,274(s0)
     5c8:	9446001e 	lhu	a2,30(v0)
     5cc:	00031c00 	sll	v1,v1,0x10
     5d0:	3084ffff 	andi	a0,a0,0xffff
     5d4:	00641825 	or	v1,v1,a0
     5d8:	aca3000c 	sw	v1,12(a1)
     5dc:	3c022000 	lui	v0,0x2000
     5e0:	00c23025 	or	a2,a2,v0
     5e4:	96020114 	lhu	v0,276(s0)
     5e8:	24040001 	li	a0,1
     5ec:	3042ffff 	andi	v0,v0,0xffff
     5f0:	aca20010 	sw	v0,16(a1)
     5f4:	8e020118 	lw	v0,280(s0)
     5f8:	aca20014 	sw	v0,20(a1)
     5fc:	9202010b 	lbu	v0,267(s0)
     600:	304200ff 	andi	v0,v0,0xff
     604:	aca20018 	sw	v0,24(a1)
     608:	0e000d86 	jal	0x8003618
     60c:	aca6001c 	sw	a2,28(a1)
     610:	3c020800 	lui	v0,0x800
     614:	8c420040 	lw	v0,64(v0)
     618:	24420001 	addiu	v0,v0,1
     61c:	3c010800 	lui	at,0x800
     620:	ac220040 	sw	v0,64(at)
     624:	3c030800 	lui	v1,0x800
     628:	8c630044 	lw	v1,68(v1)
     62c:	32220002 	andi	v0,s1,0x2
     630:	32240004 	andi	a0,s1,0x4
     634:	24630001 	addiu	v1,v1,1
     638:	3c010800 	lui	at,0x800
     63c:	ac230044 	sw	v1,68(at)
     640:	10800008 	beqz	a0,0x664
     644:	0002282b 	sltu	a1,zero,v0
     648:	02402021 	move	a0,s2
     64c:	8fbf001c 	lw	ra,28(sp)
     650:	8fb20018 	lw	s2,24(sp)
     654:	8fb10014 	lw	s1,20(sp)
     658:	8fb00010 	lw	s0,16(sp)
     65c:	0a0000e3 	j	0x800038c
     660:	27bd0020 	addiu	sp,sp,32
     664:	8fbf001c 	lw	ra,28(sp)
     668:	8fb20018 	lw	s2,24(sp)
     66c:	8fb10014 	lw	s1,20(sp)
     670:	8fb00010 	lw	s0,16(sp)
     674:	00a01021 	move	v0,a1
     678:	03e00008 	jr	ra
     67c:	27bd0020 	addiu	sp,sp,32
     680:	27bdffe0 	addiu	sp,sp,-32
     684:	afb00010 	sw	s0,16(sp)
     688:	3c108000 	lui	s0,0x8000
     68c:	afb20018 	sw	s2,24(sp)
     690:	afbf001c 	sw	ra,28(sp)
     694:	afb10014 	sw	s1,20(sp)
     698:	36120100 	ori	s2,s0,0x100
     69c:	9243000b 	lbu	v1,11(s2)
     6a0:	24020003 	li	v0,3
     6a4:	96510008 	lhu	s1,8(s2)
     6a8:	14620075 	bne	v1,v0,0x880
     6ac:	00002821 	move	a1,zero
     6b0:	32220001 	andi	v0,s1,0x1
     6b4:	10400017 	beqz	v0,0x714
     6b8:	8f820024 	lw	v0,36(gp)
     6bc:	8e430000 	lw	v1,0(s2)
     6c0:	3c02003f 	lui	v0,0x3f
     6c4:	3442ffff 	ori	v0,v0,0xffff
     6c8:	00032340 	sll	a0,v1,0xd
     6cc:	0044102b 	sltu	v0,v0,a0
     6d0:	50400005 	beqzl	v0,0x6e8
     6d4:	24020100 	li	v0,256
     6d8:	96420014 	lhu	v0,20(s2)
     6dc:	3c030040 	lui	v1,0x40
     6e0:	0a00018f 	j	0x800063c
     6e4:	00832021 	addu	a0,a0,v1
     6e8:	54620006 	bnel	v1,v0,0x704
     6ec:	96420014 	lhu	v0,20(s2)
     6f0:	3c028008 	lui	v0,0x8008
     6f4:	90420004 	lbu	v0,4(v0)
     6f8:	3042000f 	andi	v0,v0,0xf
     6fc:	00022500 	sll	a0,v0,0x14
     700:	96420014 	lhu	v0,20(s2)
     704:	00821025 	or	v0,a0,v0
     708:	ae020080 	sw	v0,128(s0)
     70c:	0a0001bf 	j	0x80006fc
     710:	00000000 	nop
     714:	8c42000c 	lw	v0,12(v0)
     718:	10400025 	beqz	v0,0x7b0
     71c:	00000000 	nop
     720:	0e000d52 	jal	0x8003548
     724:	00000000 	nop
     728:	96020108 	lhu	v0,264(s0)
     72c:	9603010c 	lhu	v1,268(s0)
     730:	8f850020 	lw	a1,32(gp)
     734:	3042003e 	andi	v0,v0,0x3e
     738:	3063ffff 	andi	v1,v1,0xffff
     73c:	00021400 	sll	v0,v0,0x10
     740:	00431025 	or	v0,v0,v1
     744:	aca20000 	sw	v0,0(a1)
     748:	8e020100 	lw	v0,256(s0)
     74c:	aca20004 	sw	v0,4(a1)
     750:	96030116 	lhu	v1,278(s0)
     754:	9604010e 	lhu	a0,270(s0)
     758:	8f820024 	lw	v0,36(gp)
     75c:	00031c00 	sll	v1,v1,0x10
     760:	3084ffff 	andi	a0,a0,0xffff
     764:	00641825 	or	v1,v1,a0
     768:	aca30008 	sw	v1,8(a1)
     76c:	96030110 	lhu	v1,272(s0)
     770:	96040112 	lhu	a0,274(s0)
     774:	9446001e 	lhu	a2,30(v0)
     778:	00031c00 	sll	v1,v1,0x10
     77c:	3084ffff 	andi	a0,a0,0xffff
     780:	00641825 	or	v1,v1,a0
     784:	aca3000c 	sw	v1,12(a1)
     788:	3c022000 	lui	v0,0x2000
     78c:	00c23025 	or	a2,a2,v0
     790:	96020114 	lhu	v0,276(s0)
     794:	24040001 	li	a0,1
     798:	3042ffff 	andi	v0,v0,0xffff
     79c:	aca20010 	sw	v0,16(a1)
     7a0:	aca00014 	sw	zero,20(a1)
     7a4:	aca00018 	sw	zero,24(a1)
     7a8:	0e000d86 	jal	0x8003618
     7ac:	aca6001c 	sw	a2,28(a1)
     7b0:	3c020800 	lui	v0,0x800
     7b4:	8c420040 	lw	v0,64(v0)
     7b8:	24420001 	addiu	v0,v0,1
     7bc:	3c010800 	lui	at,0x800
     7c0:	ac220040 	sw	v0,64(at)
     7c4:	3c020800 	lui	v0,0x800
     7c8:	8c420044 	lw	v0,68(v0)
     7cc:	32230004 	andi	v1,s1,0x4
     7d0:	24420001 	addiu	v0,v0,1
     7d4:	3c010800 	lui	at,0x800
     7d8:	ac220044 	sw	v0,68(at)
     7dc:	10600008 	beqz	v1,0x800
     7e0:	32220002 	andi	v0,s1,0x2
     7e4:	02402021 	move	a0,s2
     7e8:	8fbf001c 	lw	ra,28(sp)
     7ec:	8fb20018 	lw	s2,24(sp)
     7f0:	8fb10014 	lw	s1,20(sp)
     7f4:	8fb00010 	lw	s0,16(sp)
     7f8:	0a0000e3 	j	0x800038c
     7fc:	27bd0020 	addiu	sp,sp,32
     800:	1040001f 	beqz	v0,0x880
     804:	00002821 	move	a1,zero
     808:	3c058000 	lui	a1,0x8000
     80c:	34a20070 	ori	v0,a1,0x70
     810:	8c440000 	lw	a0,0(v0)
     814:	8f82000c 	lw	v0,12(gp)
     818:	00821023 	subu	v0,a0,v0
     81c:	2c43012c 	sltiu	v1,v0,300
     820:	10600004 	beqz	v1,0x834
     824:	af820010 	sw	v0,16(gp)
     828:	24050001 	li	a1,1
     82c:	0a0001ee 	j	0x80007b8
     830:	af84000c 	sw	a0,12(gp)
     834:	8ca30104 	lw	v1,260(a1)
     838:	3c026020 	lui	v0,0x6020
     83c:	ac430014 	sw	v1,20(v0)
     840:	8c420004 	lw	v0,4(v0)
     844:	240301fe 	li	v1,510
     848:	304203ff 	andi	v0,v0,0x3ff
     84c:	1443000b 	bne	v0,v1,0x87c
     850:	af84000c 	sw	a0,12(gp)
     854:	8ca20100 	lw	v0,256(a1)
     858:	000219c2 	srl	v1,v0,0x7
     85c:	2462fffc 	addiu	v0,v1,-4
     860:	2c420008 	sltiu	v0,v0,8
     864:	10400003 	beqz	v0,0x874
     868:	24040002 	li	a0,2
     86c:	2462fffd 	addiu	v0,v1,-3
     870:	00442004 	sllv	a0,a0,v0
     874:	3c026000 	lui	v0,0x6000
     878:	ac446914 	sw	a0,26900(v0)
     87c:	00002821 	move	a1,zero
     880:	8fbf001c 	lw	ra,28(sp)
     884:	8fb20018 	lw	s2,24(sp)
     888:	8fb10014 	lw	s1,20(sp)
     88c:	8fb00010 	lw	s0,16(sp)
     890:	00a01021 	move	v0,a1
     894:	03e00008 	jr	ra
     898:	27bd0020 	addiu	sp,sp,32
     89c:	3c048000 	lui	a0,0x8000
     8a0:	8c830100 	lw	v1,256(a0)
     8a4:	24020100 	li	v0,256
     8a8:	50620003 	beql	v1,v0,0x8b8
     8ac:	3c028008 	lui	v0,0x8008
     8b0:	0000000d 	break
     8b4:	3c028008 	lui	v0,0x8008
     8b8:	90430004 	lbu	v1,4(v0)
     8bc:	00001021 	move	v0,zero
     8c0:	3063000f 	andi	v1,v1,0xf
     8c4:	00031d00 	sll	v1,v1,0x14
     8c8:	03e00008 	jr	ra
     8cc:	ac830080 	sw	v1,128(a0)
     8d0:	2c840781 	sltiu	a0,a0,1921
     8d4:	1080000a 	beqz	a0,0x900
     8d8:	00002821 	move	a1,zero
     8dc:	3c028000 	lui	v0,0x8000
     8e0:	94420108 	lhu	v0,264(v0)
     8e4:	24032000 	li	v1,8192
     8e8:	30427000 	andi	v0,v0,0x7000
     8ec:	14430005 	bne	v0,v1,0x904
     8f0:	2783ffa4 	addiu	v1,gp,-92
     8f4:	3c028008 	lui	v0,0x8008
     8f8:	90420005 	lbu	v0,5(v0)
     8fc:	304500ff 	andi	a1,v0,0xff
     900:	2783ffa4 	addiu	v1,gp,-92
     904:	00052080 	sll	a0,a1,0x2
     908:	00832021 	addu	a0,a0,v1
     90c:	000510c0 	sll	v0,a1,0x3
     910:	00451023 	subu	v0,v0,a1
     914:	8c840000 	lw	a0,0(a0)
     918:	3c030800 	lui	v1,0x800
     91c:	2463532c 	addiu	v1,v1,21292
     920:	000210c0 	sll	v0,v0,0x3
     924:	00431021 	addu	v0,v0,v1
     928:	3c038000 	lui	v1,0x8000
     92c:	ac640090 	sw	a0,144(v1)
     930:	03e00008 	jr	ra
     934:	af820024 	sw	v0,36(gp)
     938:	03e00008 	jr	ra
     93c:	00001021 	move	v0,zero
     940:	03e00008 	jr	ra
     944:	00001021 	move	v0,zero
     948:	24020100 	li	v0,256
     94c:	14820008 	bne	a0,v0,0x970
     950:	00000000 	nop
     954:	3c020800 	lui	v0,0x800
     958:	8c4200fc 	lw	v0,252(v0)
     95c:	24420001 	addiu	v0,v0,1
     960:	3c010800 	lui	at,0x800
     964:	ac2200fc 	sw	v0,252(at)
     968:	0a000230 	j	0x80008c0
     96c:	30a20020 	andi	v0,a1,0x20
     970:	3c020800 	lui	v0,0x800
     974:	8c420084 	lw	v0,132(v0)
     978:	24420001 	addiu	v0,v0,1
     97c:	3c010800 	lui	at,0x800
     980:	ac220084 	sw	v0,132(at)
     984:	30a20020 	andi	v0,a1,0x20
     988:	10400008 	beqz	v0,0x9ac
     98c:	30a30010 	andi	v1,a1,0x10
     990:	3c020800 	lui	v0,0x800
     994:	8c420108 	lw	v0,264(v0)
     998:	24420001 	addiu	v0,v0,1
     99c:	3c010800 	lui	at,0x800
     9a0:	ac220108 	sw	v0,264(at)
     9a4:	03e00008 	jr	ra
     9a8:	00000000 	nop
     9ac:	10600008 	beqz	v1,0x9d0
     9b0:	00000000 	nop
     9b4:	3c020800 	lui	v0,0x800
     9b8:	8c420104 	lw	v0,260(v0)
     9bc:	24420001 	addiu	v0,v0,1
     9c0:	3c010800 	lui	at,0x800
     9c4:	ac220104 	sw	v0,260(at)
     9c8:	03e00008 	jr	ra
     9cc:	00000000 	nop
     9d0:	3c020800 	lui	v0,0x800
     9d4:	8c420100 	lw	v0,256(v0)
     9d8:	24420001 	addiu	v0,v0,1
     9dc:	3c010800 	lui	at,0x800
     9e0:	ac220100 	sw	v0,256(at)
     9e4:	03e00008 	jr	ra
     9e8:	00000000 	nop
     9ec:	27bdffe8 	addiu	sp,sp,-24
     9f0:	afb00010 	sw	s0,16(sp)
     9f4:	3c108000 	lui	s0,0x8000
     9f8:	afbf0014 	sw	ra,20(sp)
     9fc:	36040100 	ori	a0,s0,0x100
     a00:	94830008 	lhu	v1,8(a0)
     a04:	30620004 	andi	v0,v1,0x4
     a08:	10400005 	beqz	v0,0xa20
     a0c:	30660002 	andi	a2,v1,0x2
     a10:	8fbf0014 	lw	ra,20(sp)
     a14:	8fb00010 	lw	s0,16(sp)
     a18:	0a0000e3 	j	0x800038c
     a1c:	27bd0018 	addiu	sp,sp,24
     a20:	10c00006 	beqz	a2,0xa3c
     a24:	00602821 	move	a1,v1
     a28:	8e040100 	lw	a0,256(s0)
     a2c:	0e000220 	jal	0x8000880
     a30:	00000000 	nop
     a34:	0a000267 	j	0x800099c
     a38:	24020001 	li	v0,1
     a3c:	8f820008 	lw	v0,8(gp)
     a40:	8e030104 	lw	v1,260(s0)
     a44:	10430007 	beq	v0,v1,0xa64
     a48:	00001021 	move	v0,zero
     a4c:	8e040100 	lw	a0,256(s0)
     a50:	0e000220 	jal	0x8000880
     a54:	00000000 	nop
     a58:	8e020104 	lw	v0,260(s0)
     a5c:	af820008 	sw	v0,8(gp)
     a60:	00001021 	move	v0,zero
     a64:	8fbf0014 	lw	ra,20(sp)
     a68:	8fb00010 	lw	s0,16(sp)
     a6c:	03e00008 	jr	ra
     a70:	27bd0018 	addiu	sp,sp,24
     a74:	27bdffd8 	addiu	sp,sp,-40
     a78:	3c036010 	lui	v1,0x6010
     a7c:	afb3001c 	sw	s3,28(sp)
     a80:	afbf0020 	sw	ra,32(sp)
     a84:	afb20018 	sw	s2,24(sp)
     a88:	afb10014 	sw	s1,20(sp)
     a8c:	afb00010 	sw	s0,16(sp)
     a90:	8c645000 	lw	a0,20480(v1)
     a94:	2402ff7f 	li	v0,-129
     a98:	3c130800 	lui	s3,0x800
     a9c:	26735290 	addiu	s3,s3,21136
     aa0:	00822024 	and	a0,a0,v0
     aa4:	3484380c 	ori	a0,a0,0x380c
     aa8:	ac645000 	sw	a0,20480(v1)
     aac:	3c028000 	lui	v0,0x8000
     ab0:	24030037 	li	v1,55
     ab4:	ac430008 	sw	v1,8(v0)
     ab8:	3c060800 	lui	a2,0x800
     abc:	24c60870 	addiu	a2,a2,2160
     ac0:	02601021 	move	v0,s3
     ac4:	2404001c 	li	a0,28
     ac8:	2484ffff 	addiu	a0,a0,-1
     acc:	ac460000 	sw	a2,0(v0)
     ad0:	0481fffd 	bgez	a0,0xac8
     ad4:	24420004 	addiu	v0,v0,4
     ad8:	3c020800 	lui	v0,0x800
     adc:	2442016c 	addiu	v0,v0,364
     ae0:	3c010800 	lui	at,0x800
     ae4:	ac225298 	sw	v0,21144(at)
     ae8:	3c020800 	lui	v0,0x800
     aec:	244205b8 	addiu	v0,v0,1464
     af0:	3c010800 	lui	at,0x800
     af4:	ac22529c 	sw	v0,21148(at)
     af8:	3c020800 	lui	v0,0x800
     afc:	24420284 	addiu	v0,v0,644
     b00:	3c010800 	lui	at,0x800
     b04:	ac2252d8 	sw	v0,21208(at)
     b08:	3c020800 	lui	v0,0x800
     b0c:	24420408 	addiu	v0,v0,1032
     b10:	3c030800 	lui	v1,0x800
     b14:	24630878 	addiu	v1,v1,2168
     b18:	3c040800 	lui	a0,0x800
     b1c:	24840924 	addiu	a0,a0,2340
     b20:	3c050800 	lui	a1,0x800
     b24:	24a52c80 	addiu	a1,a1,11392
     b28:	3c010800 	lui	at,0x800
     b2c:	ac2252f8 	sw	v0,21240(at)
     b30:	3c020800 	lui	v0,0x800
     b34:	244207d4 	addiu	v0,v0,2004
     b38:	3c010800 	lui	at,0x800
     b3c:	ac2652e0 	sw	a2,21216(at)
     b40:	3c010800 	lui	at,0x800
     b44:	ac2552ec 	sw	a1,21228(at)
     b48:	3c010800 	lui	at,0x800
     b4c:	ac2352f4 	sw	v1,21236(at)
     b50:	3c010800 	lui	at,0x800
     b54:	ac2452fc 	sw	a0,21244(at)
     b58:	3c010800 	lui	at,0x800
     b5c:	ac225300 	sw	v0,21248(at)
     b60:	3c010800 	lui	at,0x800
     b64:	ac235294 	sw	v1,21140(at)
     b68:	3c010800 	lui	at,0x800
     b6c:	ac2052a0 	sw	zero,21152(at)
     b70:	3c010800 	lui	at,0x800
     b74:	ac2052a4 	sw	zero,21156(at)
     b78:	3c010800 	lui	at,0x800
     b7c:	ac2052a8 	sw	zero,21160(at)
     b80:	3c010800 	lui	at,0x800
     b84:	ac2052ac 	sw	zero,21164(at)
     b88:	3c010800 	lui	at,0x800
     b8c:	ac2052b0 	sw	zero,21168(at)
     b90:	3c010800 	lui	at,0x800
     b94:	ac2052b4 	sw	zero,21172(at)
     b98:	3c010800 	lui	at,0x800
     b9c:	ac2052b8 	sw	zero,21176(at)
     ba0:	3c010800 	lui	at,0x800
     ba4:	ac2452bc 	sw	a0,21180(at)
     ba8:	3c010800 	lui	at,0x800
     bac:	ac2052c0 	sw	zero,21184(at)
     bb0:	3c010800 	lui	at,0x800
     bb4:	ac2052c4 	sw	zero,21188(at)
     bb8:	3c010800 	lui	at,0x800
     bbc:	ac2052c8 	sw	zero,21192(at)
     bc0:	3c010800 	lui	at,0x800
     bc4:	ac2052cc 	sw	zero,21196(at)
     bc8:	3c010800 	lui	at,0x800
     bcc:	ac2052d0 	sw	zero,21200(at)
     bd0:	3c010800 	lui	at,0x800
     bd4:	ac2652d4 	sw	a2,21204(at)
     bd8:	3c010800 	lui	at,0x800
     bdc:	ac2652dc 	sw	a2,21212(at)
     be0:	3c010800 	lui	at,0x800
     be4:	ac2052e4 	sw	zero,21220(at)
     be8:	3c010800 	lui	at,0x800
     bec:	ac2552e8 	sw	a1,21224(at)
     bf0:	3c010800 	lui	at,0x800
     bf4:	ac2352f0 	sw	v1,21232(at)
     bf8:	0e000567 	jal	0x800159c
     bfc:	00000000 	nop
     c00:	af80000c 	sw	zero,12(gp)
     c04:	8f830004 	lw	v1,4(gp)
     c08:	3c020800 	lui	v0,0x800
     c0c:	8c420020 	lw	v0,32(v0)
     c10:	1062001f 	beq	v1,v0,0xc90
     c14:	00008821 	move	s1,zero
     c18:	2792ffa4 	addiu	s2,gp,-92
     c1c:	3c100800 	lui	s0,0x800
     c20:	2610532c 	addiu	s0,s0,21292
     c24:	3c020800 	lui	v0,0x800
     c28:	8c420020 	lw	v0,32(v0)
     c2c:	24050001 	li	a1,1
     c30:	02251804 	sllv	v1,a1,s1
     c34:	00432024 	and	a0,v0,v1
     c38:	8f820004 	lw	v0,4(gp)
     c3c:	00431024 	and	v0,v0,v1
     c40:	5044000c 	beql	v0,a0,0xc74
     c44:	26310001 	addiu	s1,s1,1
     c48:	10800008 	beqz	a0,0xc6c
     c4c:	af900024 	sw	s0,36(gp)
     c50:	8e430000 	lw	v1,0(s2)
     c54:	3c028000 	lui	v0,0x8000
     c58:	ac430090 	sw	v1,144(v0)
     c5c:	0e000d19 	jal	0x8003464
     c60:	ae05000c 	sw	a1,12(s0)
     c64:	0a0002eb 	j	0x8000bac
     c68:	26310001 	addiu	s1,s1,1
     c6c:	ae00000c 	sw	zero,12(s0)
     c70:	26310001 	addiu	s1,s1,1
     c74:	2e220002 	sltiu	v0,s1,2
     c78:	26100038 	addiu	s0,s0,56
     c7c:	1440ffe9 	bnez	v0,0xc24
     c80:	26520004 	addiu	s2,s2,4
     c84:	3c020800 	lui	v0,0x800
     c88:	8c420020 	lw	v0,32(v0)
     c8c:	af820004 	sw	v0,4(gp)
     c90:	3c108000 	lui	s0,0x8000
     c94:	8e110000 	lw	s1,0(s0)
     c98:	32220007 	andi	v0,s1,0x7
     c9c:	1040ffda 	beqz	v0,0xc08
     ca0:	8f830004 	lw	v1,4(gp)
     ca4:	32220001 	andi	v0,s1,0x1
     ca8:	10400021 	beqz	v0,0xd30
     cac:	32220002 	andi	v0,s1,0x2
     cb0:	8e020100 	lw	v0,256(s0)
     cb4:	ae020020 	sw	v0,32(s0)
     cb8:	8e020104 	lw	v0,260(s0)
     cbc:	ae0200a8 	sw	v0,168(s0)
     cc0:	0e000202 	jal	0x8000808
     cc4:	8e040100 	lw	a0,256(s0)
     cc8:	9202010b 	lbu	v0,267(s0)
     ccc:	304300ff 	andi	v1,v0,0xff
     cd0:	2c62001d 	sltiu	v0,v1,29
     cd4:	54400004 	bnezl	v0,0xce8
     cd8:	00031080 	sll	v0,v1,0x2
     cdc:	0e00021c 	jal	0x8000870
     ce0:	0a00030c 	j	0x8000c30
     ce4:	00000000 	nop
     ce8:	00531021 	addu	v0,v0,s3
     cec:	8c420000 	lw	v0,0(v0)
     cf0:	0040f809 	jalr	v0
     cf4:	00000000 	nop
     cf8:	10400004 	beqz	v0,0xd0c
     cfc:	3c028000 	lui	v0,0x8000
     d00:	8c430104 	lw	v1,260(v0)
     d04:	3c026020 	lui	v0,0x6020
     d08:	ac430014 	sw	v1,20(v0)
     d0c:	3c020800 	lui	v0,0x800
     d10:	8c420034 	lw	v0,52(v0)
     d14:	3c044000 	lui	a0,0x4000
     d18:	3c038000 	lui	v1,0x8000
     d1c:	24420001 	addiu	v0,v0,1
     d20:	ac640138 	sw	a0,312(v1)
     d24:	3c010800 	lui	at,0x800
     d28:	ac220034 	sw	v0,52(at)
     d2c:	32220002 	andi	v0,s1,0x2
     d30:	10400010 	beqz	v0,0xd74
     d34:	32220004 	andi	v0,s1,0x4
     d38:	3c108000 	lui	s0,0x8000
     d3c:	8e020140 	lw	v0,320(s0)
     d40:	ae020020 	sw	v0,32(s0)
     d44:	0e000202 	jal	0x8000808
     d48:	8e040140 	lw	a0,320(s0)
     d4c:	0e0003a4 	jal	0x8000e90
     d50:	00000000 	nop
     d54:	3c024000 	lui	v0,0x4000
     d58:	ae020178 	sw	v0,376(s0)
     d5c:	3c020800 	lui	v0,0x800
     d60:	8c420038 	lw	v0,56(v0)
     d64:	24420001 	addiu	v0,v0,1
     d68:	3c010800 	lui	at,0x800
     d6c:	ac220038 	sw	v0,56(at)
     d70:	32220004 	andi	v0,s1,0x4
     d74:	1040ffa4 	beqz	v0,0xc08
     d78:	8f830004 	lw	v1,4(gp)
     d7c:	3c108000 	lui	s0,0x8000
     d80:	8e020180 	lw	v0,384(s0)
     d84:	ae020020 	sw	v0,32(s0)
     d88:	0e000202 	jal	0x8000808
     d8c:	8e040180 	lw	a0,384(s0)
     d90:	8e030180 	lw	v1,384(s0)
     d94:	24020f00 	li	v0,3840
     d98:	14620007 	bne	v1,v0,0xdb8
     d9c:	3c028008 	lui	v0,0x8008
     da0:	8e020188 	lw	v0,392(s0)
     da4:	3c0300e0 	lui	v1,0xe0
     da8:	3042ffff 	andi	v0,v0,0xffff
     dac:	00431025 	or	v0,v0,v1
     db0:	0a000348 	j	0x8000d20
     db4:	ae020080 	sw	v0,128(s0)
     db8:	34420080 	ori	v0,v0,0x80
     dbc:	90420000 	lbu	v0,0(v0)
     dc0:	24030050 	li	v1,80
     dc4:	304200ff 	andi	v0,v0,0xff
     dc8:	14430007 	bne	v0,v1,0xde8
     dcc:	00000000 	nop
     dd0:	0e000381 	jal	0x8000e04
     dd4:	00000000 	nop
     dd8:	14400003 	bnez	v0,0xde8
     ddc:	00000000 	nop
     de0:	0e00096a 	jal	0x80025a8
     de4:	00000000 	nop
     de8:	3c020800 	lui	v0,0x800
     dec:	8c42003c 	lw	v0,60(v0)
     df0:	3c044000 	lui	a0,0x4000
     df4:	3c038000 	lui	v1,0x8000
     df8:	24420001 	addiu	v0,v0,1
     dfc:	ac6401b8 	sw	a0,440(v1)
     e00:	3c010800 	lui	at,0x800
     e04:	ac22003c 	sw	v0,60(at)
     e08:	0a0002d0 	j	0x8000b40
     e0c:	8f830004 	lw	v1,4(gp)
     e10:	3c029000 	lui	v0,0x9000
     e14:	34420001 	ori	v0,v0,0x1
     e18:	00822025 	or	a0,a0,v0
     e1c:	3c028000 	lui	v0,0x8000
     e20:	ac440020 	sw	a0,32(v0)
     e24:	3c038000 	lui	v1,0x8000
     e28:	8c620020 	lw	v0,32(v1)
     e2c:	0440fffe 	bltz	v0,0xe28
     e30:	00000000 	nop
     e34:	03e00008 	jr	ra
     e38:	00000000 	nop
     e3c:	3c028000 	lui	v0,0x8000
     e40:	34430001 	ori	v1,v0,0x1
     e44:	00832025 	or	a0,a0,v1
     e48:	03e00008 	jr	ra
     e4c:	ac440020 	sw	a0,32(v0)
     e50:	27bdffe0 	addiu	sp,sp,-32
     e54:	afb10014 	sw	s1,20(sp)
     e58:	afb00010 	sw	s0,16(sp)
     e5c:	00808821 	move	s1,a0
     e60:	afbf0018 	sw	ra,24(sp)
     e64:	0e000352 	jal	0x8000d48
     e68:	30b000ff 	andi	s0,a1,0xff
     e6c:	8f83ff9c 	lw	v1,-100(gp)
     e70:	02202021 	move	a0,s1
     e74:	90620025 	lbu	v0,37(v1)
     e78:	02028025 	or	s0,s0,v0
     e7c:	a0700025 	sb	s0,37(v1)
     e80:	8c700018 	lw	s0,24(v1)
     e84:	3c028000 	lui	v0,0x8000
     e88:	0e00035d 	jal	0x8000d74
     e8c:	02028024 	and	s0,s0,v0
     e90:	1600000a 	bnez	s0,0xebc
     e94:	8fbf0018 	lw	ra,24(sp)
     e98:	3c038000 	lui	v1,0x8000
     e9c:	8c6201f8 	lw	v0,504(v1)
     ea0:	0440fffe 	bltz	v0,0xe9c
     ea4:	24020002 	li	v0,2
     ea8:	ac7101c0 	sw	s1,448(v1)
     eac:	a06201c4 	sb	v0,452(v1)
     eb0:	3c021000 	lui	v0,0x1000
     eb4:	ac6201f8 	sw	v0,504(v1)
     eb8:	8fbf0018 	lw	ra,24(sp)
     ebc:	8fb10014 	lw	s1,20(sp)
     ec0:	8fb00010 	lw	s0,16(sp)
     ec4:	03e00008 	jr	ra
     ec8:	27bd0020 	addiu	sp,sp,32
     ecc:	27bdffe8 	addiu	sp,sp,-24
     ed0:	afbf0010 	sw	ra,16(sp)
     ed4:	3c038000 	lui	v1,0x8000
     ed8:	94620184 	lhu	v0,388(v1)
     edc:	30420200 	andi	v0,v0,0x200
     ee0:	10400005 	beqz	v0,0xef8
     ee4:	00002021 	move	a0,zero
     ee8:	0e000fda 	jal	0x8003f68
     eec:	00000000 	nop
     ef0:	0a000397 	j	0x8000e5c
     ef4:	24040001 	li	a0,1
     ef8:	8c620188 	lw	v0,392(v1)
     efc:	0440000a 	bltz	v0,0xf28
     f00:	8fbf0010 	lw	ra,16(sp)
     f04:	8c620188 	lw	v0,392(v1)
     f08:	3c03ff00 	lui	v1,0xff00
     f0c:	00431024 	and	v0,v0,v1
     f10:	3c030400 	lui	v1,0x400
     f14:	14430004 	bne	v0,v1,0xf28
     f18:	24040001 	li	a0,1
     f1c:	8f82ff9c 	lw	v0,-100(gp)
     f20:	90420008 	lbu	v0,8(v0)
     f24:	8fbf0010 	lw	ra,16(sp)
     f28:	00801021 	move	v0,a0
     f2c:	03e00008 	jr	ra
     f30:	27bd0018 	addiu	sp,sp,24
     f34:	8f82ffa0 	lw	v0,-96(gp)
     f38:	24030001 	li	v1,1
     f3c:	24050001 	li	a1,1
     f40:	a040001a 	sb	zero,26(v0)
     f44:	8f82ff9c 	lw	v0,-100(gp)
     f48:	a4430016 	sh	v1,22(v0)
     f4c:	3c028000 	lui	v0,0x8000
     f50:	0a000362 	j	0x8000d88
     f54:	8c440140 	lw	a0,320(v0)
     f58:	8f85ff9c 	lw	a1,-100(gp)
     f5c:	27bdffe0 	addiu	sp,sp,-32
     f60:	afbf001c 	sw	ra,28(sp)
     f64:	afb20018 	sw	s2,24(sp)
     f68:	afb10014 	sw	s1,20(sp)
     f6c:	afb00010 	sw	s0,16(sp)
     f70:	90a20000 	lbu	v0,0(a1)
     f74:	304400ff 	andi	a0,v0,0xff
     f78:	38830020 	xori	v1,a0,0x20
     f7c:	38820030 	xori	v0,a0,0x30
     f80:	0003182b 	sltu	v1,zero,v1
     f84:	0002102b 	sltu	v0,zero,v0
     f88:	00621824 	and	v1,v1,v0
     f8c:	10600005 	beqz	v1,0xfa4
     f90:	3c028000 	lui	v0,0x8000
     f94:	24020050 	li	v0,80
     f98:	14820081 	bne	a0,v0,0x11a0
     f9c:	8fbf001c 	lw	ra,28(sp)
     fa0:	3c028000 	lui	v0,0x8000
     fa4:	90420148 	lbu	v0,328(v0)
     fa8:	304200ff 	andi	v0,v0,0xff
     fac:	2443ffff 	addiu	v1,v0,-1
     fb0:	2c620005 	sltiu	v0,v1,5
     fb4:	1040007a 	beqz	v0,0x11a0
     fb8:	8fbf001c 	lw	ra,28(sp)
     fbc:	00031080 	sll	v0,v1,0x2
     fc0:	3c030800 	lui	v1,0x800
     fc4:	24635210 	addiu	v1,v1,21008
     fc8:	00431021 	addu	v0,v0,v1
     fcc:	8c420000 	lw	v0,0(v0)
     fd0:	00400008 	jr	v0
     fd4:	00000000 	nop
     fd8:	3c118000 	lui	s1,0x8000
     fdc:	8e240140 	lw	a0,320(s1)
     fe0:	0e000352 	jal	0x8000d48
     fe4:	8f92ff9c 	lw	s2,-100(gp)
     fe8:	8e50000c 	lw	s0,12(s2)
     fec:	8e220144 	lw	v0,324(s1)
     ff0:	16020002 	bne	s0,v0,0xffc
     ff4:	24020001 	li	v0,1
     ff8:	ae42000c 	sw	v0,12(s2)
     ffc:	0e00035d 	jal	0x8000d74
    1000:	8e240140 	lw	a0,320(s1)
    1004:	8e220144 	lw	v0,324(s1)
    1008:	14500006 	bne	v0,s0,0x1024
    100c:	8fbf001c 	lw	ra,28(sp)
    1010:	8fb20018 	lw	s2,24(sp)
    1014:	8fb10014 	lw	s1,20(sp)
    1018:	8fb00010 	lw	s0,16(sp)
    101c:	0a000f46 	j	0x8003d18
    1020:	27bd0020 	addiu	sp,sp,32
    1024:	8e42000c 	lw	v0,12(s2)
    1028:	0a00042f 	j	0x80010bc
    102c:	00000000 	nop
    1030:	94a20010 	lhu	v0,16(a1)
    1034:	3c048000 	lui	a0,0x8000
    1038:	8c830144 	lw	v1,324(a0)
    103c:	3042ffff 	andi	v0,v0,0xffff
    1040:	14620009 	bne	v1,v0,0x1068
    1044:	00000000 	nop
    1048:	24020001 	li	v0,1
    104c:	a4a20010 	sh	v0,16(a1)
    1050:	8c820140 	lw	v0,320(a0)
    1054:	ac820200 	sw	v0,512(a0)
    1058:	3c021000 	lui	v0,0x1000
    105c:	ac820238 	sw	v0,568(a0)
    1060:	0a000436 	j	0x80010d8
    1064:	8fbf001c 	lw	ra,28(sp)
    1068:	94a20010 	lhu	v0,16(a1)
    106c:	0a00042f 	j	0x80010bc
    1070:	00000000 	nop
    1074:	24020020 	li	v0,32
    1078:	1482000e 	bne	a0,v0,0x10b4
    107c:	3c118000 	lui	s1,0x8000
    1080:	94a20012 	lhu	v0,18(a1)
    1084:	3c038000 	lui	v1,0x8000
    1088:	8c630144 	lw	v1,324(v1)
    108c:	3042ffff 	andi	v0,v0,0xffff
    1090:	14620005 	bne	v1,v0,0x10a8
    1094:	00000000 	nop
    1098:	24020001 	li	v0,1
    109c:	a4a20012 	sh	v0,18(a1)
    10a0:	0a000409 	j	0x8001024
    10a4:	8fbf001c 	lw	ra,28(sp)
    10a8:	94a20012 	lhu	v0,18(a1)
    10ac:	0a00042f 	j	0x80010bc
    10b0:	00000000 	nop
    10b4:	8e240140 	lw	a0,320(s1)
    10b8:	0e000352 	jal	0x8000d48
    10bc:	8f92ff9c 	lw	s2,-100(gp)
    10c0:	96420012 	lhu	v0,18(s2)
    10c4:	8e230144 	lw	v1,324(s1)
    10c8:	3050ffff 	andi	s0,v0,0xffff
    10cc:	16030002 	bne	s0,v1,0x10d8
    10d0:	24020001 	li	v0,1
    10d4:	a6420012 	sh	v0,18(s2)
    10d8:	0e00035d 	jal	0x8000d74
    10dc:	8e240140 	lw	a0,320(s1)
    10e0:	8e220144 	lw	v0,324(s1)
    10e4:	16020006 	bne	s0,v0,0x1100
    10e8:	8fbf001c 	lw	ra,28(sp)
    10ec:	8fb20018 	lw	s2,24(sp)
    10f0:	8fb10014 	lw	s1,20(sp)
    10f4:	8fb00010 	lw	s0,16(sp)
    10f8:	0a00039b 	j	0x8000e6c
    10fc:	27bd0020 	addiu	sp,sp,32
    1100:	96420012 	lhu	v0,18(s2)
    1104:	0a00042f 	j	0x80010bc
    1108:	00000000 	nop
    110c:	94a20014 	lhu	v0,20(a1)
    1110:	3c038000 	lui	v1,0x8000
    1114:	8c630144 	lw	v1,324(v1)
    1118:	3042ffff 	andi	v0,v0,0xffff
    111c:	14620008 	bne	v1,v0,0x1140
    1120:	8fbf001c 	lw	ra,28(sp)
    1124:	24020001 	li	v0,1
    1128:	8fb20018 	lw	s2,24(sp)
    112c:	8fb10014 	lw	s1,20(sp)
    1130:	8fb00010 	lw	s0,16(sp)
    1134:	a4a20014 	sh	v0,20(a1)
    1138:	0a001431 	j	0x80050c4
    113c:	27bd0020 	addiu	sp,sp,32
    1140:	94a20014 	lhu	v0,20(a1)
    1144:	0a00042f 	j	0x80010bc
    1148:	00000000 	nop
    114c:	94a20016 	lhu	v0,22(a1)
    1150:	3c038000 	lui	v1,0x8000
    1154:	8c630144 	lw	v1,324(v1)
    1158:	3042ffff 	andi	v0,v0,0xffff
    115c:	14620008 	bne	v1,v0,0x1180
    1160:	24020001 	li	v0,1
    1164:	8fbf001c 	lw	ra,28(sp)
    1168:	8fb20018 	lw	s2,24(sp)
    116c:	8fb10014 	lw	s1,20(sp)
    1170:	8fb00010 	lw	s0,16(sp)
    1174:	a4a20016 	sh	v0,22(a1)
    1178:	0a000b0d 	j	0x8002c34
    117c:	27bd0020 	addiu	sp,sp,32
    1180:	94a20016 	lhu	v0,22(a1)
    1184:	14400006 	bnez	v0,0x11a0
    1188:	8fbf001c 	lw	ra,28(sp)
    118c:	3c020800 	lui	v0,0x800
    1190:	8c420070 	lw	v0,112(v0)
    1194:	24420001 	addiu	v0,v0,1
    1198:	3c010800 	lui	at,0x800
    119c:	ac220070 	sw	v0,112(at)
    11a0:	8fb20018 	lw	s2,24(sp)
    11a4:	8fb10014 	lw	s1,20(sp)
    11a8:	8fb00010 	lw	s0,16(sp)
    11ac:	03e00008 	jr	ra
    11b0:	27bd0020 	addiu	sp,sp,32
    11b4:	27bdffd8 	addiu	sp,sp,-40
    11b8:	afb20018 	sw	s2,24(sp)
    11bc:	8f92ff9c 	lw	s2,-100(gp)
    11c0:	afb10014 	sw	s1,20(sp)
    11c4:	afbf0020 	sw	ra,32(sp)
    11c8:	afb3001c 	sw	s3,28(sp)
    11cc:	afb00010 	sw	s0,16(sp)
    11d0:	3c028000 	lui	v0,0x8000
    11d4:	34510100 	ori	s1,v0,0x100
    11d8:	8c500100 	lw	s0,256(v0)
    11dc:	92420000 	lbu	v0,0(s2)
    11e0:	92230009 	lbu	v1,9(s1)
    11e4:	304400ff 	andi	a0,v0,0xff
    11e8:	2402001f 	li	v0,31
    11ec:	106200ab 	beq	v1,v0,0x149c
    11f0:	28620020 	slti	v0,v1,32
    11f4:	10400019 	beqz	v0,0x125c
    11f8:	24020038 	li	v0,56
    11fc:	2862000a 	slti	v0,v1,10
    1200:	1040000d 	beqz	v0,0x1238
    1204:	2402000b 	li	v0,11
    1208:	28620008 	slti	v0,v1,8
    120c:	1040002e 	beqz	v0,0x12c8
    1210:	8f820024 	lw	v0,36(gp)
    1214:	04600103 	bltz	v1,0x1624
    1218:	28620002 	slti	v0,v1,2
    121c:	1440002a 	bnez	v0,0x12c8
    1220:	8f820024 	lw	v0,36(gp)
    1224:	24020006 	li	v0,6
    1228:	10620026 	beq	v1,v0,0x12c4
    122c:	8fbf0020 	lw	ra,32(sp)
    1230:	0a000559 	j	0x8001564
    1234:	8fb3001c 	lw	s3,28(sp)
    1238:	10620060 	beq	v1,v0,0x13bc
    123c:	2862000b 	slti	v0,v1,11
    1240:	144000f9 	bnez	v0,0x1628
    1244:	8fbf0020 	lw	ra,32(sp)
    1248:	2402000e 	li	v0,14
    124c:	10620078 	beq	v1,v0,0x1430
    1250:	8f820024 	lw	v0,36(gp)
    1254:	0a000559 	j	0x8001564
    1258:	8fb3001c 	lw	s3,28(sp)
    125c:	106200d1 	beq	v1,v0,0x15a4
    1260:	28620039 	slti	v0,v1,57
    1264:	1040000a 	beqz	v0,0x1290
    1268:	24020080 	li	v0,128
    126c:	24020036 	li	v0,54
    1270:	106200e4 	beq	v1,v0,0x1604
    1274:	28620037 	slti	v0,v1,55
    1278:	104000c2 	beqz	v0,0x1584
    127c:	24020035 	li	v0,53
    1280:	106200d8 	beq	v1,v0,0x15e4
    1284:	8fbf0020 	lw	ra,32(sp)
    1288:	0a000559 	j	0x8001564
    128c:	8fb3001c 	lw	s3,28(sp)
    1290:	1062002d 	beq	v1,v0,0x1348
    1294:	28620081 	slti	v0,v1,129
    1298:	10400006 	beqz	v0,0x12b4
    129c:	240200c8 	li	v0,200
    12a0:	24020039 	li	v0,57
    12a4:	106200c8 	beq	v1,v0,0x15c8
    12a8:	8fbf0020 	lw	ra,32(sp)
    12ac:	0a000559 	j	0x8001564
    12b0:	8fb3001c 	lw	s3,28(sp)
    12b4:	106200a2 	beq	v1,v0,0x1540
    12b8:	8fbf0020 	lw	ra,32(sp)
    12bc:	0a000559 	j	0x8001564
    12c0:	8fb3001c 	lw	s3,28(sp)
    12c4:	8f820024 	lw	v0,36(gp)
    12c8:	8c42000c 	lw	v0,12(v0)
    12cc:	104000d6 	beqz	v0,0x1628
    12d0:	8fbf0020 	lw	ra,32(sp)
    12d4:	0e000d52 	jal	0x8003548
    12d8:	00000000 	nop
    12dc:	3c038000 	lui	v1,0x8000
    12e0:	34630100 	ori	v1,v1,0x100
    12e4:	8c620000 	lw	v0,0(v1)
    12e8:	8f850020 	lw	a1,32(gp)
    12ec:	94670008 	lhu	a3,8(v1)
    12f0:	9466000c 	lhu	a2,12(v1)
    12f4:	aca20000 	sw	v0,0(a1)
    12f8:	8c640004 	lw	a0,4(v1)
    12fc:	8f820024 	lw	v0,36(gp)
    1300:	00063400 	sll	a2,a2,0x10
    1304:	aca40004 	sw	a0,4(a1)
    1308:	9448001e 	lhu	t0,30(v0)
    130c:	8c620018 	lw	v0,24(v1)
    1310:	00073c00 	sll	a3,a3,0x10
    1314:	00e83825 	or	a3,a3,t0
    1318:	aca20008 	sw	v0,8(a1)
    131c:	8c62001c 	lw	v0,28(v1)
    1320:	24040001 	li	a0,1
    1324:	aca2000c 	sw	v0,12(a1)
    1328:	9062000a 	lbu	v0,10(v1)
    132c:	00c23025 	or	a2,a2,v0
    1330:	aca60010 	sw	a2,16(a1)
    1334:	aca00014 	sw	zero,20(a1)
    1338:	aca00018 	sw	zero,24(a1)
    133c:	aca7001c 	sw	a3,28(a1)
    1340:	0a000518 	j	0x8001460
    1344:	8fbf0020 	lw	ra,32(sp)
    1348:	8f820024 	lw	v0,36(gp)
    134c:	8c42000c 	lw	v0,12(v0)
    1350:	104000b5 	beqz	v0,0x1628
    1354:	8fbf0020 	lw	ra,32(sp)
    1358:	0e000d52 	jal	0x8003548
    135c:	00000000 	nop
    1360:	8f820024 	lw	v0,36(gp)
    1364:	96240008 	lhu	a0,8(s1)
    1368:	9625000c 	lhu	a1,12(s1)
    136c:	9443001e 	lhu	v1,30(v0)
    1370:	00042202 	srl	a0,a0,0x8
    1374:	9626000e 	lhu	a2,14(s1)
    1378:	8f820020 	lw	v0,32(gp)
    137c:	00042600 	sll	a0,a0,0x18
    1380:	00832025 	or	a0,a0,v1
    1384:	00052c00 	sll	a1,a1,0x10
    1388:	3c030080 	lui	v1,0x80
    138c:	00a62825 	or	a1,a1,a2
    1390:	00832025 	or	a0,a0,v1
    1394:	ac400000 	sw	zero,0(v0)
    1398:	ac400004 	sw	zero,4(v0)
    139c:	ac400008 	sw	zero,8(v0)
    13a0:	ac40000c 	sw	zero,12(v0)
    13a4:	ac450010 	sw	a1,16(v0)
    13a8:	ac400014 	sw	zero,20(v0)
    13ac:	ac400018 	sw	zero,24(v0)
    13b0:	ac44001c 	sw	a0,28(v0)
    13b4:	0a000517 	j	0x800145c
    13b8:	24040001 	li	a0,1
    13bc:	9622000c 	lhu	v0,12(s1)
    13c0:	14400018 	bnez	v0,0x1424
    13c4:	00000000 	nop
    13c8:	92420005 	lbu	v0,5(s2)
    13cc:	30420010 	andi	v0,v0,0x10
    13d0:	14400014 	bnez	v0,0x1424
    13d4:	00000000 	nop
    13d8:	0e000352 	jal	0x8000d48
    13dc:	02002021 	move	a0,s0
    13e0:	92420005 	lbu	v0,5(s2)
    13e4:	02002021 	move	a0,s0
    13e8:	34420010 	ori	v0,v0,0x10
    13ec:	0e00035d 	jal	0x8000d74
    13f0:	a2420005 	sb	v0,5(s2)
    13f4:	92420000 	lbu	v0,0(s2)
    13f8:	24030020 	li	v1,32
    13fc:	304200ff 	andi	v0,v0,0xff
    1400:	10430088 	beq	v0,v1,0x1624
    1404:	02002021 	move	a0,s0
    1408:	8fbf0020 	lw	ra,32(sp)
    140c:	8fb3001c 	lw	s3,28(sp)
    1410:	8fb20018 	lw	s2,24(sp)
    1414:	8fb10014 	lw	s1,20(sp)
    1418:	8fb00010 	lw	s0,16(sp)
    141c:	0a001043 	j	0x800410c
    1420:	27bd0028 	addiu	sp,sp,40
    1424:	0000000d 	break
    1428:	0a000558 	j	0x8001560
    142c:	8fbf0020 	lw	ra,32(sp)
    1430:	8c42000c 	lw	v0,12(v0)
    1434:	1040007c 	beqz	v0,0x1628
    1438:	8fbf0020 	lw	ra,32(sp)
    143c:	0e000d52 	jal	0x8003548
    1440:	00000000 	nop
    1444:	8e220004 	lw	v0,4(s1)
    1448:	8f840020 	lw	a0,32(gp)
    144c:	9623000c 	lhu	v1,12(s1)
    1450:	ac820000 	sw	v0,0(a0)
    1454:	3c028008 	lui	v0,0x8008
    1458:	9445002c 	lhu	a1,44(v0)
    145c:	8f820024 	lw	v0,36(gp)
    1460:	00031c00 	sll	v1,v1,0x10
    1464:	30a5ffff 	andi	a1,a1,0xffff
    1468:	9446001e 	lhu	a2,30(v0)
    146c:	3c02400e 	lui	v0,0x400e
    1470:	00651825 	or	v1,v1,a1
    1474:	00c23025 	or	a2,a2,v0
    1478:	ac830004 	sw	v1,4(a0)
    147c:	ac800008 	sw	zero,8(a0)
    1480:	ac80000c 	sw	zero,12(a0)
    1484:	ac800010 	sw	zero,16(a0)
    1488:	ac800014 	sw	zero,20(a0)
    148c:	ac800018 	sw	zero,24(a0)
    1490:	ac86001c 	sw	a2,28(a0)
    1494:	0a000517 	j	0x800145c
    1498:	24040001 	li	a0,1
    149c:	0e000352 	jal	0x8000d48
    14a0:	02002021 	move	a0,s0
    14a4:	8f93ffa0 	lw	s3,-96(gp)
    14a8:	02002021 	move	a0,s0
    14ac:	0e00035d 	jal	0x8000d74
    14b0:	a660000c 	sh	zero,12(s3)
    14b4:	02002021 	move	a0,s0
    14b8:	0e000362 	jal	0x8000d88
    14bc:	24050001 	li	a1,1
    14c0:	8f820024 	lw	v0,36(gp)
    14c4:	8c42000c 	lw	v0,12(v0)
    14c8:	10400057 	beqz	v0,0x1628
    14cc:	8fbf0020 	lw	ra,32(sp)
    14d0:	0e000d52 	jal	0x8003548
    14d4:	00000000 	nop
    14d8:	9622000c 	lhu	v0,12(s1)
    14dc:	8f830020 	lw	v1,32(gp)
    14e0:	00021400 	sll	v0,v0,0x10
    14e4:	ac700000 	sw	s0,0(v1)
    14e8:	ac620004 	sw	v0,4(v1)
    14ec:	ac600008 	sw	zero,8(v1)
    14f0:	8e440038 	lw	a0,56(s2)
    14f4:	8f820024 	lw	v0,36(gp)
    14f8:	ac64000c 	sw	a0,12(v1)
    14fc:	8e46003c 	lw	a2,60(s2)
    1500:	9445001e 	lhu	a1,30(v0)
    1504:	3c02401f 	lui	v0,0x401f
    1508:	ac660010 	sw	a2,16(v1)
    150c:	00a22825 	or	a1,a1,v0
    1510:	8e620004 	lw	v0,4(s3)
    1514:	24040001 	li	a0,1
    1518:	ac620014 	sw	v0,20(v1)
    151c:	ac600018 	sw	zero,24(v1)
    1520:	ac65001c 	sw	a1,28(v1)
    1524:	8fbf0020 	lw	ra,32(sp)
    1528:	8fb3001c 	lw	s3,28(sp)
    152c:	8fb20018 	lw	s2,24(sp)
    1530:	8fb10014 	lw	s1,20(sp)
    1534:	8fb00010 	lw	s0,16(sp)
    1538:	0a000d86 	j	0x8003618
    153c:	27bd0028 	addiu	sp,sp,40
    1540:	24020020 	li	v0,32
    1544:	10820039 	beq	a0,v0,0x162c
    1548:	8fb3001c 	lw	s3,28(sp)
    154c:	0e000f2c 	jal	0x8003cb0
    1550:	00000000 	nop
    1554:	10400034 	beqz	v0,0x1628
    1558:	8fbf0020 	lw	ra,32(sp)
    155c:	3c038000 	lui	v1,0x8000
    1560:	8c6201f8 	lw	v0,504(v1)
    1564:	0440fffe 	bltz	v0,0x1560
    1568:	24020002 	li	v0,2
    156c:	ac7001c0 	sw	s0,448(v1)
    1570:	a06201c4 	sb	v0,452(v1)
    1574:	3c021000 	lui	v0,0x1000
    1578:	ac6201f8 	sw	v0,504(v1)
    157c:	0a000558 	j	0x8001560
    1580:	8fbf0020 	lw	ra,32(sp)
    1584:	02002021 	move	a0,s0
    1588:	8fbf0020 	lw	ra,32(sp)
    158c:	8fb3001c 	lw	s3,28(sp)
    1590:	8fb20018 	lw	s2,24(sp)
    1594:	8fb10014 	lw	s1,20(sp)
    1598:	8fb00010 	lw	s0,16(sp)
    159c:	0a000e75 	j	0x80039d4
    15a0:	27bd0028 	addiu	sp,sp,40
    15a4:	9625000c 	lhu	a1,12(s1)
    15a8:	02002021 	move	a0,s0
    15ac:	8fbf0020 	lw	ra,32(sp)
    15b0:	8fb3001c 	lw	s3,28(sp)
    15b4:	8fb20018 	lw	s2,24(sp)
    15b8:	8fb10014 	lw	s1,20(sp)
    15bc:	8fb00010 	lw	s0,16(sp)
    15c0:	0a000e9a 	j	0x8003a68
    15c4:	27bd0028 	addiu	sp,sp,40
    15c8:	02002021 	move	a0,s0
    15cc:	8fb3001c 	lw	s3,28(sp)
    15d0:	8fb20018 	lw	s2,24(sp)
    15d4:	8fb10014 	lw	s1,20(sp)
    15d8:	8fb00010 	lw	s0,16(sp)
    15dc:	0a000ec5 	j	0x8003b14
    15e0:	27bd0028 	addiu	sp,sp,40
    15e4:	9225000d 	lbu	a1,13(s1)
    15e8:	02002021 	move	a0,s0
    15ec:	8fb3001c 	lw	s3,28(sp)
    15f0:	8fb20018 	lw	s2,24(sp)
    15f4:	8fb10014 	lw	s1,20(sp)
    15f8:	8fb00010 	lw	s0,16(sp)
    15fc:	0a000f16 	j	0x8003c58
    1600:	27bd0028 	addiu	sp,sp,40
    1604:	02002021 	move	a0,s0
    1608:	8fbf0020 	lw	ra,32(sp)
    160c:	8fb3001c 	lw	s3,28(sp)
    1610:	8fb20018 	lw	s2,24(sp)
    1614:	8fb10014 	lw	s1,20(sp)
    1618:	8fb00010 	lw	s0,16(sp)
    161c:	0a000eed 	j	0x8003bb4
    1620:	27bd0028 	addiu	sp,sp,40
    1624:	8fbf0020 	lw	ra,32(sp)
    1628:	8fb3001c 	lw	s3,28(sp)
    162c:	8fb20018 	lw	s2,24(sp)
    1630:	8fb10014 	lw	s1,20(sp)
    1634:	8fb00010 	lw	s0,16(sp)
    1638:	03e00008 	jr	ra
    163c:	27bd0028 	addiu	sp,sp,40
    1640:	3c038000 	lui	v1,0x8000
    1644:	8c620278 	lw	v0,632(v1)
    1648:	0440fffe 	bltz	v0,0x1644
    164c:	24020002 	li	v0,2
    1650:	ac640240 	sw	a0,576(v1)
    1654:	a0620244 	sb	v0,580(v1)
    1658:	3c021000 	lui	v0,0x1000
    165c:	03e00008 	jr	ra
    1660:	ac620278 	sw	v0,632(v1)
    1664:	a3800018 	sb	zero,24(gp)
    1668:	03e00008 	jr	ra
    166c:	a3800019 	sb	zero,25(gp)
    1670:	3c038000 	lui	v1,0x8000
    1674:	8c620278 	lw	v0,632(v1)
    1678:	0440fffe 	bltz	v0,0x1674
    167c:	8f82001c 	lw	v0,28(gp)
    1680:	ac620240 	sw	v0,576(v1)
    1684:	24020002 	li	v0,2
    1688:	a0620244 	sb	v0,580(v1)
    168c:	3c021000 	lui	v0,0x1000
    1690:	03e00008 	jr	ra
    1694:	ac620278 	sw	v0,632(v1)
    1698:	3c026000 	lui	v0,0x6000
    169c:	03e00008 	jr	ra
    16a0:	8c425404 	lw	v0,21508(v0)
    16a4:	90830030 	lbu	v1,48(a0)
    16a8:	24020005 	li	v0,5
    16ac:	00804021 	move	t0,a0
    16b0:	3063003f 	andi	v1,v1,0x3f
    16b4:	00004821 	move	t1,zero
    16b8:	14620005 	bne	v1,v0,0x16d0
    16bc:	00005021 	move	t2,zero
    16c0:	9082004c 	lbu	v0,76(a0)
    16c4:	9483004e 	lhu	v1,78(a0)
    16c8:	304900ff 	andi	t1,v0,0xff
    16cc:	306affff 	andi	t2,v1,0xffff
    16d0:	ad00000c 	sw	zero,12(t0)
    16d4:	ad000010 	sw	zero,16(t0)
    16d8:	ad000024 	sw	zero,36(t0)
    16dc:	95020014 	lhu	v0,20(t0)
    16e0:	8d05001c 	lw	a1,28(t0)
    16e4:	8d040018 	lw	a0,24(t0)
    16e8:	3042ffff 	andi	v0,v0,0xffff
    16ec:	00491023 	subu	v0,v0,t1
    16f0:	00021100 	sll	v0,v0,0x4
    16f4:	000237c3 	sra	a2,v0,0x1f
    16f8:	00403821 	move	a3,v0
    16fc:	00862023 	subu	a0,a0,a2
    1700:	00a2102b 	sltu	v0,a1,v0
    1704:	00822023 	subu	a0,a0,v0
    1708:	00a72823 	subu	a1,a1,a3
    170c:	ad05001c 	sw	a1,28(t0)
    1710:	ad040018 	sw	a0,24(t0)
    1714:	a5090014 	sh	t1,20(t0)
    1718:	a5090020 	sh	t1,32(t0)
    171c:	a50a0016 	sh	t2,22(t0)
    1720:	03e00008 	jr	ra
    1724:	a50a0022 	sh	t2,34(t0)
    1728:	03e00008 	jr	ra
    172c:	00000000 	nop
    1730:	27bdffd8 	addiu	sp,sp,-40
    1734:	afb20018 	sw	s2,24(sp)
    1738:	3c128008 	lui	s2,0x8008
    173c:	afb40020 	sw	s4,32(sp)
    1740:	afb3001c 	sw	s3,28(sp)
    1744:	afb10014 	sw	s1,20(sp)
    1748:	afbf0024 	sw	ra,36(sp)
    174c:	afb00010 	sw	s0,16(sp)
    1750:	36510100 	ori	s1,s2,0x100
    1754:	3c026000 	lui	v0,0x6000
    1758:	8c425404 	lw	v0,21508(v0)
    175c:	9222000c 	lbu	v0,12(s1)
    1760:	3c140800 	lui	s4,0x800
    1764:	929400f7 	lbu	s4,247(s4)
    1768:	304300ff 	andi	v1,v0,0xff
    176c:	24020001 	li	v0,1
    1770:	10620032 	beq	v1,v0,0x183c
    1774:	00809821 	move	s3,a0
    1778:	24020002 	li	v0,2
    177c:	14620035 	bne	v1,v0,0x1854
    1780:	36500080 	ori	s0,s2,0x80
    1784:	0e00140b 	jal	0x800502c
    1788:	00000000 	nop
    178c:	9202004c 	lbu	v0,76(s0)
    1790:	2403ff80 	li	v1,-128
    1794:	3c048000 	lui	a0,0x8000
    1798:	3042007f 	andi	v0,v0,0x7f
    179c:	000211c0 	sll	v0,v0,0x7
    17a0:	24420240 	addiu	v0,v0,576
    17a4:	02621021 	addu	v0,s3,v0
    17a8:	00431824 	and	v1,v0,v1
    17ac:	ac830094 	sw	v1,148(a0)
    17b0:	92450008 	lbu	a1,8(s2)
    17b4:	9204004c 	lbu	a0,76(s0)
    17b8:	3042007f 	andi	v0,v0,0x7f
    17bc:	3c038006 	lui	v1,0x8006
    17c0:	14850007 	bne	a0,a1,0x17e0
    17c4:	00438021 	addu	s0,v0,v1
    17c8:	2402ffff 	li	v0,-1
    17cc:	a2220011 	sb	v0,17(s1)
    17d0:	2402ffff 	li	v0,-1
    17d4:	a6220012 	sh	v0,18(s1)
    17d8:	0a0005cb 	j	0x800172c
    17dc:	2402ffff 	li	v0,-1
    17e0:	96020020 	lhu	v0,32(s0)
    17e4:	a2220011 	sb	v0,17(s1)
    17e8:	96020022 	lhu	v0,34(s0)
    17ec:	a6220012 	sh	v0,18(s1)
    17f0:	8e020024 	lw	v0,36(s0)
    17f4:	3c048008 	lui	a0,0x8008
    17f8:	ae220014 	sw	v0,20(s1)
    17fc:	34850080 	ori	a1,a0,0x80
    1800:	90a2004c 	lbu	v0,76(a1)
    1804:	34830100 	ori	v1,a0,0x100
    1808:	a0620010 	sb	v0,16(v1)
    180c:	8ca2003c 	lw	v0,60(a1)
    1810:	ac620018 	sw	v0,24(v1)
    1814:	8c820068 	lw	v0,104(a0)
    1818:	ac6200e4 	sw	v0,228(v1)
    181c:	8c820064 	lw	v0,100(a0)
    1820:	ac6200e0 	sw	v0,224(v1)
    1824:	8c82006c 	lw	v0,108(a0)
    1828:	ac6200e8 	sw	v0,232(v1)
    182c:	24020001 	li	v0,1
    1830:	a0a20068 	sb	v0,104(a1)
    1834:	0a0005e7 	j	0x800179c
    1838:	3c048008 	lui	a0,0x8008
    183c:	0e001424 	jal	0x8005090
    1840:	00000000 	nop
    1844:	36420080 	ori	v0,s2,0x80
    1848:	a0400068 	sb	zero,104(v0)
    184c:	0a0005e7 	j	0x800179c
    1850:	3c048008 	lui	a0,0x8008
    1854:	a2000068 	sb	zero,104(s0)
    1858:	a2000069 	sb	zero,105(s0)
    185c:	0a000622 	j	0x8001888
    1860:	3c028008 	lui	v0,0x8008
    1864:	34830080 	ori	v1,a0,0x80
    1868:	8c620038 	lw	v0,56(v1)
    186c:	34850100 	ori	a1,a0,0x100
    1870:	ac62006c 	sw	v0,108(v1)
    1874:	24020001 	li	v0,1
    1878:	a0620069 	sb	v0,105(v1)
    187c:	90a200c5 	lbu	v0,197(a1)
    1880:	90830008 	lbu	v1,8(a0)
    1884:	305100ff 	andi	s1,v0,0xff
    1888:	3072007f 	andi	s2,v1,0x7f
    188c:	12320019 	beq	s1,s2,0x18f4
    1890:	001111c0 	sll	v0,s1,0x7
    1894:	24420240 	addiu	v0,v0,576
    1898:	02621021 	addu	v0,s3,v0
    189c:	2403ff80 	li	v1,-128
    18a0:	00431824 	and	v1,v0,v1
    18a4:	3c048000 	lui	a0,0x8000
    18a8:	ac830094 	sw	v1,148(a0)
    18ac:	3042007f 	andi	v0,v0,0x7f
    18b0:	3c038006 	lui	v1,0x8006
    18b4:	00438021 	addu	s0,v0,v1
    18b8:	8e02000c 	lw	v0,12(s0)
    18bc:	1040000d 	beqz	v0,0x18f4
    18c0:	02002021 	move	a0,s0
    18c4:	0e000577 	jal	0x80015dc
    18c8:	00000000 	nop
    18cc:	26220001 	addiu	v0,s1,1
    18d0:	305100ff 	andi	s1,v0,0xff
    18d4:	9203003c 	lbu	v1,60(s0)
    18d8:	02341026 	xor	v0,s1,s4
    18dc:	0002102b 	sltu	v0,zero,v0
    18e0:	00021023 	negu	v0,v0
    18e4:	3063007f 	andi	v1,v1,0x7f
    18e8:	02228824 	and	s1,s1,v0
    18ec:	0a0005f1 	j	0x80017c4
    18f0:	a203003c 	sb	v1,60(s0)
    18f4:	3c088008 	lui	t0,0x8008
    18f8:	35040100 	ori	a0,t0,0x100
    18fc:	8c8200d0 	lw	v0,208(a0)
    1900:	35070080 	ori	a3,t0,0x80
    1904:	ace2003c 	sw	v0,60(a3)
    1908:	8c8200d0 	lw	v0,208(a0)
    190c:	ad020000 	sw	v0,0(t0)
    1910:	90e5004c 	lbu	a1,76(a3)
    1914:	908600c5 	lbu	a2,197(a0)
    1918:	90e3004c 	lbu	v1,76(a3)
    191c:	908400c5 	lbu	a0,197(a0)
    1920:	2402ff80 	li	v0,-128
    1924:	00a22824 	and	a1,a1,v0
    1928:	3063007f 	andi	v1,v1,0x7f
    192c:	308400ff 	andi	a0,a0,0xff
    1930:	00a62825 	or	a1,a1,a2
    1934:	0064182a 	slt	v1,v1,a0
    1938:	10600002 	beqz	v1,0x1944
    193c:	30a500ff 	andi	a1,a1,0xff
    1940:	38a50080 	xori	a1,a1,0x80
    1944:	a0e5004c 	sb	a1,76(a3)
    1948:	a1050009 	sb	a1,9(t0)
    194c:	3c028008 	lui	v0,0x8008
    1950:	9043000e 	lbu	v1,14(v0)
    1954:	34440080 	ori	a0,v0,0x80
    1958:	3c058000 	lui	a1,0x8000
    195c:	a043000a 	sb	v1,10(v0)
    1960:	8c830018 	lw	v1,24(a0)
    1964:	3c027fff 	lui	v0,0x7fff
    1968:	3442ffff 	ori	v0,v0,0xffff
    196c:	00621824 	and	v1,v1,v0
    1970:	ac830018 	sw	v1,24(a0)
    1974:	8ca201f8 	lw	v0,504(a1)
    1978:	0440fffe 	bltz	v0,0x1974
    197c:	00000000 	nop
    1980:	acb301c0 	sw	s3,448(a1)
    1984:	8fbf0024 	lw	ra,36(sp)
    1988:	8fb40020 	lw	s4,32(sp)
    198c:	8fb3001c 	lw	s3,28(sp)
    1990:	8fb20018 	lw	s2,24(sp)
    1994:	8fb10014 	lw	s1,20(sp)
    1998:	8fb00010 	lw	s0,16(sp)
    199c:	24020002 	li	v0,2
    19a0:	a0a201c4 	sb	v0,452(a1)
    19a4:	27bd0028 	addiu	sp,sp,40
    19a8:	3c021000 	lui	v0,0x1000
    19ac:	03e00008 	jr	ra
    19b0:	aca201f8 	sw	v0,504(a1)
    19b4:	90a20000 	lbu	v0,0(a1)
    19b8:	24420001 	addiu	v0,v0,1
    19bc:	a0a20000 	sb	v0,0(a1)
    19c0:	3c030800 	lui	v1,0x800
    19c4:	8c6300f4 	lw	v1,244(v1)
    19c8:	304200ff 	andi	v0,v0,0xff
    19cc:	14430002 	bne	v0,v1,0x19d8
    19d0:	00803021 	move	a2,a0
    19d4:	a0a00000 	sb	zero,0(a1)
    19d8:	90a20000 	lbu	v0,0(a1)
    19dc:	8f84001c 	lw	a0,28(gp)
    19e0:	000211c0 	sll	v0,v0,0x7
    19e4:	24420240 	addiu	v0,v0,576
    19e8:	24830040 	addiu	v1,a0,64
    19ec:	00822021 	addu	a0,a0,v0
    19f0:	2402ff80 	li	v0,-128
    19f4:	00822024 	and	a0,a0,v0
    19f8:	3063007f 	andi	v1,v1,0x7f
    19fc:	3c02800a 	lui	v0,0x800a
    1a00:	00621821 	addu	v1,v1,v0
    1a04:	3c028000 	lui	v0,0x8000
    1a08:	ac440024 	sw	a0,36(v0)
    1a0c:	03e00008 	jr	ra
    1a10:	acc30000 	sw	v1,0(a2)
    1a14:	94820006 	lhu	v0,6(a0)
    1a18:	90830005 	lbu	v1,5(a0)
    1a1c:	8c85000c 	lw	a1,12(a0)
    1a20:	8c860010 	lw	a2,16(a0)
    1a24:	8c870018 	lw	a3,24(a0)
    1a28:	8c88001c 	lw	t0,28(a0)
    1a2c:	8c840020 	lw	a0,32(a0)
    1a30:	3c010800 	lui	at,0x800
    1a34:	a422530e 	sh	v0,21262(at)
    1a38:	3c010800 	lui	at,0x800
    1a3c:	a023530d 	sb	v1,21261(at)
    1a40:	3c010800 	lui	at,0x800
    1a44:	ac255314 	sw	a1,21268(at)
    1a48:	3c010800 	lui	at,0x800
    1a4c:	ac265318 	sw	a2,21272(at)
    1a50:	3c010800 	lui	at,0x800
    1a54:	ac275320 	sw	a3,21280(at)
    1a58:	3c010800 	lui	at,0x800
    1a5c:	ac285324 	sw	t0,21284(at)
    1a60:	3c010800 	lui	at,0x800
    1a64:	ac245328 	sw	a0,21288(at)
    1a68:	03e00008 	jr	ra
    1a6c:	00000000 	nop
    1a70:	3c028008 	lui	v0,0x8008
    1a74:	34420100 	ori	v0,v0,0x100
    1a78:	8c440034 	lw	a0,52(v0)
    1a7c:	3c038000 	lui	v1,0x8000
    1a80:	34650400 	ori	a1,v1,0x400
    1a84:	ac640038 	sw	a0,56(v1)
    1a88:	8c420038 	lw	v0,56(v0)
    1a8c:	af850028 	sw	a1,40(gp)
    1a90:	ac62003c 	sw	v0,60(v1)
    1a94:	3c020005 	lui	v0,0x5
    1a98:	ac620030 	sw	v0,48(v1)
	...
    1aa4:	03e00008 	jr	ra
    1aa8:	00000000 	nop
    1aac:	3c020006 	lui	v0,0x6
    1ab0:	308400ff 	andi	a0,a0,0xff
    1ab4:	00822025 	or	a0,a0,v0
    1ab8:	3c028000 	lui	v0,0x8000
    1abc:	ac440030 	sw	a0,48(v0)
	...
    1acc:	3c038000 	lui	v1,0x8000
    1ad0:	8c620000 	lw	v0,0(v1)
    1ad4:	30420010 	andi	v0,v0,0x10
    1ad8:	1040fffd 	beqz	v0,0x1ad0
    1adc:	34620400 	ori	v0,v1,0x400
    1ae0:	03e00008 	jr	ra
    1ae4:	af820028 	sw	v0,40(gp)
    1ae8:	94c20000 	lhu	v0,0(a2)
    1aec:	3c080800 	lui	t0,0x800
    1af0:	950800ca 	lhu	t0,202(t0)
    1af4:	30e7ffff 	andi	a3,a3,0xffff
    1af8:	00804821 	move	t1,a0
    1afc:	01021021 	addu	v0,t0,v0
    1b00:	a4c20000 	sh	v0,0(a2)
    1b04:	94c20000 	lhu	v0,0(a2)
    1b08:	3042ffff 	andi	v0,v0,0xffff
    1b0c:	00e2102b 	sltu	v0,a3,v0
    1b10:	54400001 	bnezl	v0,0x1b18
    1b14:	a4c70000 	sh	a3,0(a2)
    1b18:	94a20000 	lhu	v0,0(a1)
    1b1c:	3c030800 	lui	v1,0x800
    1b20:	8c6300cc 	lw	v1,204(v1)
    1b24:	24420001 	addiu	v0,v0,1
    1b28:	a4a20000 	sh	v0,0(a1)
    1b2c:	94a20000 	lhu	v0,0(a1)
    1b30:	3042ffff 	andi	v0,v0,0xffff
    1b34:	14430007 	bne	v0,v1,0x1b54
    1b38:	3c028008 	lui	v0,0x8008
    1b3c:	0107102b 	sltu	v0,t0,a3
    1b40:	a4a00000 	sh	zero,0(a1)
    1b44:	54400001 	bnezl	v0,0x1b4c
    1b48:	01003821 	move	a3,t0
    1b4c:	a4c70000 	sh	a3,0(a2)
    1b50:	3c028008 	lui	v0,0x8008
    1b54:	34460100 	ori	a2,v0,0x100
    1b58:	8cc30028 	lw	v1,40(a2)
    1b5c:	94a20000 	lhu	v0,0(a1)
    1b60:	3c048000 	lui	a0,0x8000
    1b64:	3042fffe 	andi	v0,v0,0xfffe
    1b68:	000210c0 	sll	v0,v0,0x3
    1b6c:	00621021 	addu	v0,v1,v0
    1b70:	ac82003c 	sw	v0,60(a0)
    1b74:	8c82003c 	lw	v0,60(a0)
    1b78:	00621823 	subu	v1,v1,v0
    1b7c:	18600004 	blez	v1,0x1b90
    1b80:	00000000 	nop
    1b84:	8cc20024 	lw	v0,36(a2)
    1b88:	0a0006b3 	j	0x8001acc
    1b8c:	24420001 	addiu	v0,v0,1
    1b90:	8cc20024 	lw	v0,36(a2)
    1b94:	ac820038 	sw	v0,56(a0)
    1b98:	3c020050 	lui	v0,0x50
    1b9c:	34420010 	ori	v0,v0,0x10
    1ba0:	3c038000 	lui	v1,0x8000
    1ba4:	ac620030 	sw	v0,48(v1)
	...
    1bb4:	8c620000 	lw	v0,0(v1)
    1bb8:	30420020 	andi	v0,v0,0x20
    1bbc:	1040fffd 	beqz	v0,0x1bb4
    1bc0:	00000000 	nop
    1bc4:	94a20000 	lhu	v0,0(a1)
    1bc8:	3c048000 	lui	a0,0x8000
    1bcc:	30420001 	andi	v0,v0,0x1
    1bd0:	000210c0 	sll	v0,v0,0x3
    1bd4:	00441021 	addu	v0,v0,a0
    1bd8:	8c430400 	lw	v1,1024(v0)
    1bdc:	ad230000 	sw	v1,0(t1)
    1be0:	8c420404 	lw	v0,1028(v0)
    1be4:	ad220004 	sw	v0,4(t1)
    1be8:	3c020020 	lui	v0,0x20
    1bec:	03e00008 	jr	ra
    1bf0:	ac820030 	sw	v0,48(a0)
    1bf4:	27bdffe0 	addiu	sp,sp,-32
    1bf8:	afb20018 	sw	s2,24(sp)
    1bfc:	afb10014 	sw	s1,20(sp)
    1c00:	afb00010 	sw	s0,16(sp)
    1c04:	afbf001c 	sw	ra,28(sp)
    1c08:	94c20000 	lhu	v0,0(a2)
    1c0c:	00c08021 	move	s0,a2
    1c10:	3c120800 	lui	s2,0x800
    1c14:	965200c6 	lhu	s2,198(s2)
    1c18:	24420001 	addiu	v0,v0,1
    1c1c:	a6020000 	sh	v0,0(s0)
    1c20:	96030000 	lhu	v1,0(s0)
    1c24:	94e20000 	lhu	v0,0(a3)
    1c28:	00e03021 	move	a2,a3
    1c2c:	14430005 	bne	v0,v1,0x1c44
    1c30:	8fb10030 	lw	s1,48(sp)
    1c34:	0e000688 	jal	0x8001a20
    1c38:	02403821 	move	a3,s2
    1c3c:	0a0006ea 	j	0x8001ba8
    1c40:	00000000 	nop
    1c44:	8c830004 	lw	v1,4(a0)
    1c48:	8c820004 	lw	v0,4(a0)
    1c4c:	24420040 	addiu	v0,v0,64
    1c50:	04610007 	bgez	v1,0x1c70
    1c54:	ac820004 	sw	v0,4(a0)
    1c58:	8c820004 	lw	v0,4(a0)
    1c5c:	04400004 	bltz	v0,0x1c70
    1c60:	00000000 	nop
    1c64:	8c820000 	lw	v0,0(a0)
    1c68:	24420001 	addiu	v0,v0,1
    1c6c:	ac820000 	sw	v0,0(a0)
    1c70:	96020000 	lhu	v0,0(s0)
    1c74:	3042ffff 	andi	v0,v0,0xffff
    1c78:	50520001 	beql	v0,s2,0x1c80
    1c7c:	a6000000 	sh	zero,0(s0)
    1c80:	96220000 	lhu	v0,0(s1)
    1c84:	24420001 	addiu	v0,v0,1
    1c88:	a6220000 	sh	v0,0(s1)
    1c8c:	3c028008 	lui	v0,0x8008
    1c90:	34420100 	ori	v0,v0,0x100
    1c94:	96230000 	lhu	v1,0(s1)
    1c98:	9442003c 	lhu	v0,60(v0)
    1c9c:	14430004 	bne	v0,v1,0x1cb0
    1ca0:	8fbf001c 	lw	ra,28(sp)
    1ca4:	24020001 	li	v0,1
    1ca8:	a6220000 	sh	v0,0(s1)
    1cac:	8fbf001c 	lw	ra,28(sp)
    1cb0:	8fb20018 	lw	s2,24(sp)
    1cb4:	8fb10014 	lw	s1,20(sp)
    1cb8:	8fb00010 	lw	s0,16(sp)
    1cbc:	03e00008 	jr	ra
    1cc0:	27bd0020 	addiu	sp,sp,32
    1cc4:	27bdffe0 	addiu	sp,sp,-32
    1cc8:	3c028008 	lui	v0,0x8008
    1ccc:	afbf0018 	sw	ra,24(sp)
    1cd0:	34420100 	ori	v0,v0,0x100
    1cd4:	8c480034 	lw	t0,52(v0)
    1cd8:	3c038000 	lui	v1,0x8000
    1cdc:	34690400 	ori	t1,v1,0x400
    1ce0:	ac680038 	sw	t0,56(v1)
    1ce4:	8c420038 	lw	v0,56(v0)
    1ce8:	30e700ff 	andi	a3,a3,0xff
    1cec:	af890028 	sw	t1,40(gp)
    1cf0:	ac62003c 	sw	v0,60(v1)
    1cf4:	3c020005 	lui	v0,0x5
    1cf8:	ac620030 	sw	v0,48(v1)
	...
    1d14:	8c82000c 	lw	v0,12(a0)
    1d18:	8c82000c 	lw	v0,12(a0)
    1d1c:	97830016 	lhu	v1,22(gp)
    1d20:	ad220000 	sw	v0,0(t1)
    1d24:	8c820010 	lw	v0,16(a0)
    1d28:	00604021 	move	t0,v1
    1d2c:	ad220004 	sw	v0,4(t1)
    1d30:	8c820018 	lw	v0,24(a0)
    1d34:	ad220008 	sw	v0,8(t1)
    1d38:	8c82001c 	lw	v0,28(a0)
    1d3c:	ad22000c 	sw	v0,12(t1)
    1d40:	8ca20014 	lw	v0,20(a1)
    1d44:	ad220010 	sw	v0,16(t1)
    1d48:	8c820020 	lw	v0,32(a0)
    1d4c:	ad220014 	sw	v0,20(t1)
    1d50:	90820005 	lbu	v0,5(a0)
    1d54:	304200ff 	andi	v0,v0,0xff
    1d58:	00021200 	sll	v0,v0,0x8
    1d5c:	ad220018 	sw	v0,24(t1)
    1d60:	8ca20018 	lw	v0,24(a1)
    1d64:	ad22001c 	sw	v0,28(t1)
    1d68:	8ca2000c 	lw	v0,12(a1)
    1d6c:	ad220020 	sw	v0,32(t1)
    1d70:	8ca20010 	lw	v0,16(a1)
    1d74:	ad220024 	sw	v0,36(t1)
    1d78:	8ca2001c 	lw	v0,28(a1)
    1d7c:	ad220028 	sw	v0,40(t1)
    1d80:	8ca20020 	lw	v0,32(a1)
    1d84:	ad22002c 	sw	v0,44(t1)
    1d88:	3402ffff 	li	v0,0xffff
    1d8c:	ad260030 	sw	a2,48(t1)
    1d90:	ad200034 	sw	zero,52(t1)
    1d94:	50620001 	beql	v1,v0,0x1d9c
    1d98:	3408ffff 	li	t0,0xffff
    1d9c:	ad280038 	sw	t0,56(t1)
    1da0:	50e00011 	beqzl	a3,0x1de8
    1da4:	3c028008 	lui	v0,0x8008
    1da8:	3c048008 	lui	a0,0x8008
    1dac:	34840100 	ori	a0,a0,0x100
    1db0:	94820050 	lhu	v0,80(a0)
    1db4:	3042ffff 	andi	v0,v0,0xffff
    1db8:	ad22003c 	sw	v0,60(t1)
    1dbc:	94830044 	lhu	v1,68(a0)
    1dc0:	94850044 	lhu	a1,68(a0)
    1dc4:	24020001 	li	v0,1
    1dc8:	3063ffff 	andi	v1,v1,0xffff
    1dcc:	000318c2 	srl	v1,v1,0x3
    1dd0:	00641821 	addu	v1,v1,a0
    1dd4:	90640054 	lbu	a0,84(v1)
    1dd8:	30a50007 	andi	a1,a1,0x7
    1ddc:	00a21004 	sllv	v0,v0,a1
    1de0:	0a000755 	j	0x8001d54
    1de4:	00441025 	or	v0,v0,a0
    1de8:	34420100 	ori	v0,v0,0x100
    1dec:	ad20003c 	sw	zero,60(t1)
    1df0:	94430044 	lhu	v1,68(v0)
    1df4:	94440044 	lhu	a0,68(v0)
    1df8:	3063ffff 	andi	v1,v1,0xffff
    1dfc:	000318c2 	srl	v1,v1,0x3
    1e00:	00621821 	addu	v1,v1,v0
    1e04:	30840007 	andi	a0,a0,0x7
    1e08:	90650054 	lbu	a1,84(v1)
    1e0c:	24020001 	li	v0,1
    1e10:	00821004 	sllv	v0,v0,a0
    1e14:	00021027 	nor	v0,zero,v0
    1e18:	00451024 	and	v0,v0,a1
    1e1c:	a0620054 	sb	v0,84(v1)
	...
    1e2c:	3c020006 	lui	v0,0x6
    1e30:	34420040 	ori	v0,v0,0x40
    1e34:	3c038000 	lui	v1,0x8000
    1e38:	ac620030 	sw	v0,48(v1)
	...
    1e48:	8c620000 	lw	v0,0(v1)
    1e4c:	30420010 	andi	v0,v0,0x10
    1e50:	1040fffd 	beqz	v0,0x1e48
    1e54:	3c068008 	lui	a2,0x8008
    1e58:	34c20150 	ori	v0,a2,0x150
    1e5c:	34630400 	ori	v1,v1,0x400
    1e60:	34c7014a 	ori	a3,a2,0x14a
    1e64:	34c40134 	ori	a0,a2,0x134
    1e68:	34c50140 	ori	a1,a2,0x140
    1e6c:	34c60144 	ori	a2,a2,0x144
    1e70:	afa20010 	sw	v0,16(sp)
    1e74:	0e0006cb 	jal	0x8001b2c
    1e78:	af830028 	sw	v1,40(gp)
    1e7c:	8fbf0018 	lw	ra,24(sp)
    1e80:	03e00008 	jr	ra
    1e84:	27bd0020 	addiu	sp,sp,32
    1e88:	8f830014 	lw	v1,20(gp)
    1e8c:	3c060800 	lui	a2,0x800
    1e90:	8cc600e8 	lw	a2,232(a2)
    1e94:	8f82001c 	lw	v0,28(gp)
    1e98:	30633fff 	andi	v1,v1,0x3fff
    1e9c:	00031980 	sll	v1,v1,0x6
    1ea0:	00461021 	addu	v0,v0,a2
    1ea4:	00431021 	addu	v0,v0,v1
    1ea8:	2403ff80 	li	v1,-128
    1eac:	00431824 	and	v1,v0,v1
    1eb0:	3c068000 	lui	a2,0x8000
    1eb4:	acc30028 	sw	v1,40(a2)
    1eb8:	3042007f 	andi	v0,v0,0x7f
    1ebc:	3c03800c 	lui	v1,0x800c
    1ec0:	00433021 	addu	a2,v0,v1
    1ec4:	90c2000d 	lbu	v0,13(a2)
    1ec8:	30a500ff 	andi	a1,a1,0xff
    1ecc:	00003821 	move	a3,zero
    1ed0:	34420010 	ori	v0,v0,0x10
    1ed4:	a0c2000d 	sb	v0,13(a2)
    1ed8:	8f890014 	lw	t1,20(gp)
    1edc:	3c028008 	lui	v0,0x8008
    1ee0:	34420100 	ori	v0,v0,0x100
    1ee4:	94430044 	lhu	v1,68(v0)
    1ee8:	00091382 	srl	v0,t1,0xe
    1eec:	30480003 	andi	t0,v0,0x3
    1ef0:	24020001 	li	v0,1
    1ef4:	a4c3000e 	sh	v1,14(a2)
    1ef8:	1102000b 	beq	t0,v0,0x1f28
    1efc:	29020002 	slti	v0,t0,2
    1f00:	10400005 	beqz	v0,0x1f18
    1f04:	24020002 	li	v0,2
    1f08:	1100000c 	beqz	t0,0x1f3c
    1f0c:	24030001 	li	v1,1
    1f10:	0a00079d 	j	0x8001e74
    1f14:	00001821 	move	v1,zero
    1f18:	11020006 	beq	t0,v0,0x1f34
    1f1c:	00000000 	nop
    1f20:	0a00079d 	j	0x8001e74
    1f24:	00001821 	move	v1,zero
    1f28:	8cc2002c 	lw	v0,44(a2)
    1f2c:	0a00079d 	j	0x8001e74
    1f30:	24430001 	addiu	v1,v0,1
    1f34:	8cc20014 	lw	v0,20(a2)
    1f38:	24430001 	addiu	v1,v0,1
    1f3c:	8cc20018 	lw	v0,24(a2)
    1f40:	0043102b 	sltu	v0,v0,v1
    1f44:	5040000a 	beqzl	v0,0x1f70
    1f48:	24070001 	li	a3,1
    1f4c:	24020027 	li	v0,39
    1f50:	14a20003 	bne	a1,v0,0x1f60
    1f54:	3c038008 	lui	v1,0x8008
    1f58:	0a0007aa 	j	0x8001ea8
    1f5c:	24070001 	li	a3,1
    1f60:	34630100 	ori	v1,v1,0x100
    1f64:	9462004c 	lhu	v0,76(v1)
    1f68:	24420001 	addiu	v0,v0,1
    1f6c:	a462004c 	sh	v0,76(v1)
    1f70:	00091382 	srl	v0,t1,0xe
    1f74:	30430003 	andi	v1,v0,0x3
    1f78:	2c620002 	sltiu	v0,v1,2
    1f7c:	10400009 	beqz	v0,0x1fa4
    1f80:	00802821 	move	a1,a0
    1f84:	14600004 	bnez	v1,0x1f98
    1f88:	00000000 	nop
    1f8c:	94c20034 	lhu	v0,52(a2)
    1f90:	0a0007ba 	j	0x8001ee8
    1f94:	3046ffff 	andi	a2,v0,0xffff
    1f98:	8cc60038 	lw	a2,56(a2)
    1f9c:	0a0007ba 	j	0x8001ee8
    1fa0:	00802821 	move	a1,a0
    1fa4:	00003021 	move	a2,zero
    1fa8:	3c040800 	lui	a0,0x800
    1fac:	24845308 	addiu	a0,a0,21256
    1fb0:	0a0006ff 	j	0x8001bfc
    1fb4:	00000000 	nop
    1fb8:	27bdff90 	addiu	sp,sp,-112
    1fbc:	afb60068 	sw	s6,104(sp)
    1fc0:	afb50064 	sw	s5,100(sp)
    1fc4:	afb40060 	sw	s4,96(sp)
    1fc8:	afb3005c 	sw	s3,92(sp)
    1fcc:	afb20058 	sw	s2,88(sp)
    1fd0:	afb10054 	sw	s1,84(sp)
    1fd4:	afbf006c 	sw	ra,108(sp)
    1fd8:	afb00050 	sw	s0,80(sp)
    1fdc:	8c900000 	lw	s0,0(a0)
    1fe0:	0080b021 	move	s6,a0
    1fe4:	3c020800 	lui	v0,0x800
    1fe8:	8c4200e8 	lw	v0,232(v0)
    1fec:	96040032 	lhu	a0,50(s0)
    1ff0:	8f83001c 	lw	v1,28(gp)
    1ff4:	2414ff80 	li	s4,-128
    1ff8:	30843fff 	andi	a0,a0,0x3fff
    1ffc:	00621821 	addu	v1,v1,v0
    2000:	00042180 	sll	a0,a0,0x6
    2004:	00641821 	addu	v1,v1,a0
    2008:	00741024 	and	v0,v1,s4
    200c:	3c138000 	lui	s3,0x8000
    2010:	00a09021 	move	s2,a1
    2014:	90a50000 	lbu	a1,0(a1)
    2018:	ae620028 	sw	v0,40(s3)
    201c:	92040032 	lbu	a0,50(s0)
    2020:	3c02800c 	lui	v0,0x800c
    2024:	3063007f 	andi	v1,v1,0x7f
    2028:	00628821 	addu	s1,v1,v0
    202c:	308400c0 	andi	a0,a0,0xc0
    2030:	24020040 	li	v0,64
    2034:	14820032 	bne	a0,v0,0x2100
    2038:	0000a821 	move	s5,zero
    203c:	8e350038 	lw	s5,56(s1)
    2040:	8e220018 	lw	v0,24(s1)
    2044:	14400002 	bnez	v0,0x2050
    2048:	24020001 	li	v0,1
    204c:	ae220018 	sw	v0,24(s1)
    2050:	9202003c 	lbu	v0,60(s0)
    2054:	30420020 	andi	v0,v0,0x20
    2058:	1440000e 	bnez	v0,0x2094
    205c:	8f83001c 	lw	v1,28(gp)
    2060:	000511c0 	sll	v0,a1,0x7
    2064:	24420240 	addiu	v0,v0,576
    2068:	00621821 	addu	v1,v1,v0
    206c:	30640078 	andi	a0,v1,0x78
    2070:	3c020080 	lui	v0,0x80
    2074:	00822025 	or	a0,a0,v0
    2078:	00741824 	and	v1,v1,s4
    207c:	ae630800 	sw	v1,2048(s3)
    2080:	ae640810 	sw	a0,2064(s3)
    2084:	8e220018 	lw	v0,24(s1)
    2088:	8e030008 	lw	v1,8(s0)
    208c:	00431021 	addu	v0,v0,v1
    2090:	ae220018 	sw	v0,24(s1)
    2094:	8e22002c 	lw	v0,44(s1)
    2098:	8e230018 	lw	v1,24(s1)
    209c:	24420001 	addiu	v0,v0,1
    20a0:	0062182b 	sltu	v1,v1,v0
    20a4:	10600043 	beqz	v1,0x21b4
    20a8:	00000000 	nop
    20ac:	92420000 	lbu	v0,0(s2)
    20b0:	24420001 	addiu	v0,v0,1
    20b4:	a2420000 	sb	v0,0(s2)
    20b8:	3c030800 	lui	v1,0x800
    20bc:	8c6300f4 	lw	v1,244(v1)
    20c0:	304200ff 	andi	v0,v0,0xff
    20c4:	50430001 	beql	v0,v1,0x20cc
    20c8:	a2400000 	sb	zero,0(s2)
    20cc:	92420000 	lbu	v0,0(s2)
    20d0:	8f84001c 	lw	a0,28(gp)
    20d4:	000211c0 	sll	v0,v0,0x7
    20d8:	24420240 	addiu	v0,v0,576
    20dc:	24830040 	addiu	v1,a0,64
    20e0:	3063007f 	andi	v1,v1,0x7f
    20e4:	00822021 	addu	a0,a0,v0
    20e8:	3c02800a 	lui	v0,0x800a
    20ec:	00942024 	and	a0,a0,s4
    20f0:	00621821 	addu	v1,v1,v0
    20f4:	ae640024 	sw	a0,36(s3)
    20f8:	0a0008cb 	j	0x800232c
    20fc:	aec30000 	sw	v1,0(s6)
    2100:	92030032 	lbu	v1,50(s0)
    2104:	2402ffc0 	li	v0,-64
    2108:	00431024 	and	v0,v0,v1
    210c:	304200ff 	andi	v0,v0,0xff
    2110:	14400005 	bnez	v0,0x2128
    2114:	24020001 	li	v0,1
    2118:	ae220018 	sw	v0,24(s1)
    211c:	96220034 	lhu	v0,52(s1)
    2120:	0a00083b 	j	0x80020ec
    2124:	3055ffff 	andi	s5,v0,0xffff
    2128:	8e220014 	lw	v0,20(s1)
    212c:	24420001 	addiu	v0,v0,1
    2130:	ae220018 	sw	v0,24(s1)
    2134:	92020030 	lbu	v0,48(s0)
    2138:	00021600 	sll	v0,v0,0x18
    213c:	00021603 	sra	v0,v0,0x18
    2140:	0441001c 	bgez	v0,0x21b4
    2144:	00000000 	nop
    2148:	96020032 	lhu	v0,50(s0)
    214c:	27a40010 	addiu	a0,sp,16
    2150:	00802821 	move	a1,a0
    2154:	a7a20016 	sh	v0,22(sp)
    2158:	96020032 	lhu	v0,50(s0)
    215c:	00003021 	move	a2,zero
    2160:	24070001 	li	a3,1
    2164:	3042ffff 	andi	v0,v0,0xffff
    2168:	af820014 	sw	v0,20(gp)
    216c:	0e0006ff 	jal	0x8001bfc
    2170:	afa0001c 	sw	zero,28(sp)
    2174:	96020032 	lhu	v0,50(s0)
    2178:	8f83001c 	lw	v1,28(gp)
    217c:	3c040800 	lui	a0,0x800
    2180:	8c8400e8 	lw	a0,232(a0)
    2184:	30423fff 	andi	v0,v0,0x3fff
    2188:	00021180 	sll	v0,v0,0x6
    218c:	00641821 	addu	v1,v1,a0
    2190:	00621821 	addu	v1,v1,v0
    2194:	00741024 	and	v0,v1,s4
    2198:	ae62002c 	sw	v0,44(s3)
    219c:	3063007f 	andi	v1,v1,0x7f
    21a0:	3c02800e 	lui	v0,0x800e
    21a4:	00621821 	addu	v1,v1,v0
    21a8:	9062000d 	lbu	v0,13(v1)
    21ac:	3042007f 	andi	v0,v0,0x7f
    21b0:	a062000d 	sb	v0,13(v1)
    21b4:	9222000d 	lbu	v0,13(s1)
    21b8:	30420010 	andi	v0,v0,0x10
    21bc:	50400078 	beqzl	v0,0x23a0
    21c0:	92420000 	lbu	v0,0(s2)
    21c4:	3c028008 	lui	v0,0x8008
    21c8:	34440100 	ori	a0,v0,0x100
    21cc:	9482004c 	lhu	v0,76(a0)
    21d0:	8ec30000 	lw	v1,0(s6)
    21d4:	3c130800 	lui	s3,0x800
    21d8:	967300c6 	lhu	s3,198(s3)
    21dc:	2442ffff 	addiu	v0,v0,-1
    21e0:	a482004c 	sh	v0,76(a0)
    21e4:	94620032 	lhu	v0,50(v1)
    21e8:	9623000e 	lhu	v1,14(s1)
    21ec:	3054ffff 	andi	s4,v0,0xffff
    21f0:	3070ffff 	andi	s0,v1,0xffff
    21f4:	3c030800 	lui	v1,0x800
    21f8:	8c6300d0 	lw	v1,208(v1)
    21fc:	00701807 	srav	v1,s0,v1
    2200:	a7a30038 	sh	v1,56(sp)
    2204:	9482003e 	lhu	v0,62(a0)
    2208:	3063ffff 	andi	v1,v1,0xffff
    220c:	3042ffff 	andi	v0,v0,0xffff
    2210:	14620007 	bne	v1,v0,0x2230
    2214:	00000000 	nop
    2218:	8c820030 	lw	v0,48(a0)
    221c:	3c038000 	lui	v1,0x8000
    2220:	24420030 	addiu	v0,v0,48
    2224:	ac62003c 	sw	v0,60(v1)
    2228:	0a000863 	j	0x800218c
    222c:	8c82002c 	lw	v0,44(a0)
    2230:	94820040 	lhu	v0,64(a0)
    2234:	3042ffff 	andi	v0,v0,0xffff
    2238:	54620009 	bnel	v1,v0,0x2260
    223c:	27a40040 	addiu	a0,sp,64
    2240:	8c820038 	lw	v0,56(a0)
    2244:	3c038000 	lui	v1,0x8000
    2248:	24420030 	addiu	v0,v0,48
    224c:	ac62003c 	sw	v0,60(v1)
    2250:	8c820034 	lw	v0,52(a0)
    2254:	ac620038 	sw	v0,56(v1)
    2258:	0a000872 	j	0x80021c8
    225c:	3c038000 	lui	v1,0x8000
    2260:	27a50038 	addiu	a1,sp,56
    2264:	27a60048 	addiu	a2,sp,72
    2268:	02603821 	move	a3,s3
    226c:	0e000688 	jal	0x8001a20
    2270:	a7a00048 	sh	zero,72(sp)
    2274:	8fa30040 	lw	v1,64(sp)
    2278:	3c028000 	lui	v0,0x8000
    227c:	24630030 	addiu	v1,v1,48
    2280:	ac430038 	sw	v1,56(v0)
    2284:	8fa30044 	lw	v1,68(sp)
    2288:	ac43003c 	sw	v1,60(v0)
    228c:	3c038000 	lui	v1,0x8000
    2290:	3c020005 	lui	v0,0x5
    2294:	ac620030 	sw	v0,48(v1)
    2298:	3c028008 	lui	v0,0x8008
    229c:	34440100 	ori	a0,v0,0x100
    22a0:	94820042 	lhu	v0,66(a0)
    22a4:	34630400 	ori	v1,v1,0x400
    22a8:	3042ffff 	andi	v0,v0,0xffff
    22ac:	0202102b 	sltu	v0,s0,v0
    22b0:	14400007 	bnez	v0,0x22d0
    22b4:	af830028 	sw	v1,40(gp)
    22b8:	9482004e 	lhu	v0,78(a0)
    22bc:	94830042 	lhu	v1,66(a0)
    22c0:	02021021 	addu	v0,s0,v0
    22c4:	00431023 	subu	v0,v0,v1
    22c8:	0a000888 	j	0x8002220
    22cc:	3043ffff 	andi	v1,v0,0xffff
    22d0:	9483004e 	lhu	v1,78(a0)
    22d4:	94820042 	lhu	v0,66(a0)
    22d8:	02631821 	addu	v1,s3,v1
    22dc:	00501023 	subu	v0,v0,s0
    22e0:	00621823 	subu	v1,v1,v0
    22e4:	3063ffff 	andi	v1,v1,0xffff
    22e8:	3c028008 	lui	v0,0x8008
    22ec:	34440100 	ori	a0,v0,0x100
    22f0:	9482003c 	lhu	v0,60(a0)
    22f4:	3042ffff 	andi	v0,v0,0xffff
    22f8:	14430003 	bne	v0,v1,0x2308
    22fc:	00000000 	nop
    2300:	0a000898 	j	0x8002260
    2304:	24030001 	li	v1,1
    2308:	9482003c 	lhu	v0,60(a0)
    230c:	3042ffff 	andi	v0,v0,0xffff
    2310:	0062102b 	sltu	v0,v1,v0
    2314:	14400005 	bnez	v0,0x232c
    2318:	8f820028 	lw	v0,40(gp)
    231c:	9482003c 	lhu	v0,60(a0)
    2320:	00621023 	subu	v0,v1,v0
    2324:	3043ffff 	andi	v1,v0,0xffff
    2328:	8f820028 	lw	v0,40(gp)
    232c:	ac550000 	sw	s5,0(v0)
    2330:	ac400004 	sw	zero,4(v0)
    2334:	ac540008 	sw	s4,8(v0)
    2338:	ac43000c 	sw	v1,12(v0)
    233c:	3c020006 	lui	v0,0x6
    2340:	34420010 	ori	v0,v0,0x10
    2344:	3c038000 	lui	v1,0x8000
    2348:	ac620030 	sw	v0,48(v1)
	...
    2358:	8c620000 	lw	v0,0(v1)
    235c:	30420010 	andi	v0,v0,0x10
    2360:	1040fffd 	beqz	v0,0x2358
    2364:	3c048008 	lui	a0,0x8008
    2368:	34840100 	ori	a0,a0,0x100
    236c:	001018c2 	srl	v1,s0,0x3
    2370:	00641821 	addu	v1,v1,a0
    2374:	90650054 	lbu	a1,84(v1)
    2378:	32020007 	andi	v0,s0,0x7
    237c:	24060001 	li	a2,1
    2380:	00461004 	sllv	v0,a2,v0
    2384:	00451025 	or	v0,v0,a1
    2388:	a0620054 	sb	v0,84(v1)
    238c:	94830042 	lhu	v1,66(a0)
    2390:	9622000e 	lhu	v0,14(s1)
    2394:	50430001 	beql	v0,v1,0x239c
    2398:	a3860018 	sb	a2,24(gp)
    239c:	92420000 	lbu	v0,0(s2)
    23a0:	24420001 	addiu	v0,v0,1
    23a4:	a2420000 	sb	v0,0(s2)
    23a8:	3c030800 	lui	v1,0x800
    23ac:	8c6300f4 	lw	v1,244(v1)
    23b0:	304200ff 	andi	v0,v0,0xff
    23b4:	50430001 	beql	v0,v1,0x23bc
    23b8:	a2400000 	sb	zero,0(s2)
    23bc:	92420000 	lbu	v0,0(s2)
    23c0:	8f84001c 	lw	a0,28(gp)
    23c4:	000211c0 	sll	v0,v0,0x7
    23c8:	24420240 	addiu	v0,v0,576
    23cc:	24830040 	addiu	v1,a0,64
    23d0:	00822021 	addu	a0,a0,v0
    23d4:	2402ff80 	li	v0,-128
    23d8:	00822024 	and	a0,a0,v0
    23dc:	3063007f 	andi	v1,v1,0x7f
    23e0:	3c02800a 	lui	v0,0x800a
    23e4:	00621821 	addu	v1,v1,v0
    23e8:	3c028000 	lui	v0,0x8000
    23ec:	ac440024 	sw	a0,36(v0)
    23f0:	aec30000 	sw	v1,0(s6)
    23f4:	8fbf006c 	lw	ra,108(sp)
    23f8:	8fb60068 	lw	s6,104(sp)
    23fc:	8fb50064 	lw	s5,100(sp)
    2400:	8fb40060 	lw	s4,96(sp)
    2404:	8fb3005c 	lw	s3,92(sp)
    2408:	8fb20058 	lw	s2,88(sp)
    240c:	8fb10054 	lw	s1,84(sp)
    2410:	8fb00050 	lw	s0,80(sp)
    2414:	03e00008 	jr	ra
    2418:	27bd0070 	addiu	sp,sp,112
    241c:	27bdffd8 	addiu	sp,sp,-40
    2420:	afb3001c 	sw	s3,28(sp)
    2424:	afb20018 	sw	s2,24(sp)
    2428:	afb10014 	sw	s1,20(sp)
    242c:	afb00010 	sw	s0,16(sp)
    2430:	afbf0020 	sw	ra,32(sp)
    2434:	00809821 	move	s3,a0
    2438:	00e08021 	move	s0,a3
    243c:	30b1ffff 	andi	s1,a1,0xffff
    2440:	0e000d52 	jal	0x8003548
    2444:	30d200ff 	andi	s2,a2,0xff
	...
    2454:	8f820020 	lw	v0,32(gp)
    2458:	8f830024 	lw	v1,36(gp)
    245c:	ac510000 	sw	s1,0(v0)
    2460:	ac520004 	sw	s2,4(v0)
    2464:	ac530008 	sw	s3,8(v0)
    2468:	ac40000c 	sw	zero,12(v0)
    246c:	ac400010 	sw	zero,16(v0)
    2470:	ac400014 	sw	zero,20(v0)
    2474:	ac400018 	sw	zero,24(v0)
    2478:	9463001e 	lhu	v1,30(v1)
    247c:	02038025 	or	s0,s0,v1
    2480:	ac50001c 	sw	s0,28(v0)
	...
    2490:	24040001 	li	a0,1
    2494:	8fbf0020 	lw	ra,32(sp)
    2498:	8fb3001c 	lw	s3,28(sp)
    249c:	8fb20018 	lw	s2,24(sp)
    24a0:	8fb10014 	lw	s1,20(sp)
    24a4:	8fb00010 	lw	s0,16(sp)
    24a8:	0a000d86 	j	0x8003618
    24ac:	27bd0028 	addiu	sp,sp,40
    24b0:	30a5ffff 	andi	a1,a1,0xffff
    24b4:	0a0008d5 	j	0x8002354
    24b8:	30c600ff 	andi	a2,a2,0xff
    24bc:	3c028008 	lui	v0,0x8008
    24c0:	34430100 	ori	v1,v0,0x100
    24c4:	9462000e 	lhu	v0,14(v1)
    24c8:	3c080800 	lui	t0,0x800
    24cc:	950800c6 	lhu	t0,198(t0)
    24d0:	3046ffff 	andi	a2,v0,0xffff
    24d4:	14c00004 	bnez	a2,0x24e8
    24d8:	3402ffff 	li	v0,0xffff
    24dc:	946500da 	lhu	a1,218(v1)
    24e0:	0a000922 	j	0x8002488
    24e4:	8f84001c 	lw	a0,28(gp)
    24e8:	10c20027 	beq	a2,v0,0x2588
    24ec:	00000000 	nop
    24f0:	9462004e 	lhu	v0,78(v1)
    24f4:	9464003c 	lhu	a0,60(v1)
    24f8:	3045ffff 	andi	a1,v0,0xffff
    24fc:	00a61023 	subu	v0,a1,a2
    2500:	00a6182b 	sltu	v1,a1,a2
    2504:	3087ffff 	andi	a3,a0,0xffff
    2508:	10600004 	beqz	v1,0x251c
    250c:	3044ffff 	andi	a0,v0,0xffff
    2510:	00c51023 	subu	v0,a2,a1
    2514:	00e21023 	subu	v0,a3,v0
    2518:	3044ffff 	andi	a0,v0,0xffff
    251c:	0088102b 	sltu	v0,a0,t0
    2520:	1040000e 	beqz	v0,0x255c
    2524:	00e81023 	subu	v0,a3,t0
    2528:	3c028008 	lui	v0,0x8008
    252c:	34440100 	ori	a0,v0,0x100
    2530:	24030001 	li	v1,1
    2534:	34420080 	ori	v0,v0,0x80
    2538:	a4430016 	sh	v1,22(v0)
    253c:	2402ffff 	li	v0,-1
    2540:	a482000e 	sh	v0,14(a0)
    2544:	948500da 	lhu	a1,218(a0)
    2548:	8f84001c 	lw	a0,28(gp)
    254c:	00003021 	move	a2,zero
    2550:	30a5ffff 	andi	a1,a1,0xffff
    2554:	0a0008fa 	j	0x80023e8
    2558:	3c076020 	lui	a3,0x6020
    255c:	0044102a 	slt	v0,v0,a0
    2560:	10400009 	beqz	v0,0x2588
    2564:	3c028008 	lui	v0,0x8008
    2568:	34430080 	ori	v1,v0,0x80
    256c:	94620016 	lhu	v0,22(v1)
    2570:	30420001 	andi	v0,v0,0x1
    2574:	10400004 	beqz	v0,0x2588
    2578:	3c028000 	lui	v0,0x8000
    257c:	9442007e 	lhu	v0,126(v0)
    2580:	24420014 	addiu	v0,v0,20
    2584:	a4620016 	sh	v0,22(v1)
    2588:	03e00008 	jr	ra
    258c:	00000000 	nop
    2590:	27bdffe0 	addiu	sp,sp,-32
    2594:	3c028008 	lui	v0,0x8008
    2598:	afbf001c 	sw	ra,28(sp)
    259c:	afb00018 	sw	s0,24(sp)
    25a0:	34420100 	ori	v0,v0,0x100
    25a4:	94430042 	lhu	v1,66(v0)
    25a8:	9442004c 	lhu	v0,76(v0)
    25ac:	10400019 	beqz	v0,0x2614
    25b0:	3068ffff 	andi	t0,v1,0xffff
    25b4:	93830018 	lbu	v1,24(gp)
    25b8:	24020001 	li	v0,1
    25bc:	14620029 	bne	v1,v0,0x2664
    25c0:	8fbf001c 	lw	ra,28(sp)
    25c4:	3c068008 	lui	a2,0x8008
    25c8:	34d00100 	ori	s0,a2,0x100
    25cc:	000810c2 	srl	v0,t0,0x3
    25d0:	00501021 	addu	v0,v0,s0
    25d4:	90420054 	lbu	v0,84(v0)
    25d8:	31030007 	andi	v1,t0,0x7
    25dc:	34c70148 	ori	a3,a2,0x148
    25e0:	304200ff 	andi	v0,v0,0xff
    25e4:	00621007 	srav	v0,v0,v1
    25e8:	30420001 	andi	v0,v0,0x1
    25ec:	34c9014e 	ori	t1,a2,0x14e
    25f0:	34c4012c 	ori	a0,a2,0x12c
    25f4:	34c5013e 	ori	a1,a2,0x13e
    25f8:	10400016 	beqz	v0,0x2654
    25fc:	34c60142 	ori	a2,a2,0x142
    2600:	0e0006cb 	jal	0x8001b2c
    2604:	afa90010 	sw	t1,16(sp)
    2608:	96020042 	lhu	v0,66(s0)
    260c:	0a00093f 	j	0x80024fc
    2610:	3048ffff 	andi	t0,v0,0xffff
    2614:	3c028008 	lui	v0,0x8008
    2618:	34440100 	ori	a0,v0,0x100
    261c:	94830044 	lhu	v1,68(a0)
    2620:	94820042 	lhu	v0,66(a0)
    2624:	1043000f 	beq	v0,v1,0x2664
    2628:	8fbf001c 	lw	ra,28(sp)
    262c:	94820044 	lhu	v0,68(a0)
    2630:	a4820042 	sh	v0,66(a0)
    2634:	94820050 	lhu	v0,80(a0)
    2638:	a482004e 	sh	v0,78(a0)
    263c:	8c820038 	lw	v0,56(a0)
    2640:	ac820030 	sw	v0,48(a0)
    2644:	94820040 	lhu	v0,64(a0)
    2648:	a482003e 	sh	v0,62(a0)
    264c:	9482004a 	lhu	v0,74(a0)
    2650:	a4820048 	sh	v0,72(a0)
    2654:	8fbf001c 	lw	ra,28(sp)
    2658:	8fb00018 	lw	s0,24(sp)
    265c:	0a0008fd 	j	0x80023f4
    2660:	27bd0020 	addiu	sp,sp,32
    2664:	8fb00018 	lw	s0,24(sp)
    2668:	03e00008 	jr	ra
    266c:	27bd0020 	addiu	sp,sp,32
    2670:	27bdffa0 	addiu	sp,sp,-96
    2674:	afb1004c 	sw	s1,76(sp)
    2678:	3c118000 	lui	s1,0x8000
    267c:	afbf0058 	sw	ra,88(sp)
    2680:	afb30054 	sw	s3,84(sp)
    2684:	afb20050 	sw	s2,80(sp)
    2688:	afb00048 	sw	s0,72(sp)
    268c:	36260188 	ori	a2,s1,0x188
    2690:	90c20003 	lbu	v0,3(a2)
    2694:	3044007f 	andi	a0,v0,0x7f
    2698:	a3a40010 	sb	a0,16(sp)
    269c:	8e320180 	lw	s2,384(s1)
    26a0:	90c20000 	lbu	v0,0(a2)
    26a4:	3043007f 	andi	v1,v0,0x7f
    26a8:	24020003 	li	v0,3
    26ac:	1062003b 	beq	v1,v0,0x279c
    26b0:	af92001c 	sw	s2,28(gp)
    26b4:	28620004 	slti	v0,v1,4
    26b8:	10400006 	beqz	v0,0x26d4
    26bc:	24020004 	li	v0,4
    26c0:	24020002 	li	v0,2
    26c4:	10620009 	beq	v1,v0,0x26ec
    26c8:	8fbf0058 	lw	ra,88(sp)
    26cc:	0a000b08 	j	0x8002c20
    26d0:	8fb30054 	lw	s3,84(sp)
    26d4:	1062004d 	beq	v1,v0,0x280c
    26d8:	24020005 	li	v0,5
    26dc:	1062014e 	beq	v1,v0,0x2c18
    26e0:	8fbf0058 	lw	ra,88(sp)
    26e4:	0a000b08 	j	0x8002c20
    26e8:	8fb30054 	lw	s3,84(sp)
    26ec:	000411c0 	sll	v0,a0,0x7
    26f0:	02421021 	addu	v0,s2,v0
    26f4:	2404ff80 	li	a0,-128
    26f8:	24420240 	addiu	v0,v0,576
    26fc:	00441024 	and	v0,v0,a0
    2700:	26430040 	addiu	v1,s2,64
    2704:	ae220024 	sw	v0,36(s1)
    2708:	3063007f 	andi	v1,v1,0x7f
    270c:	3c02800a 	lui	v0,0x800a
    2710:	00621821 	addu	v1,v1,v0
    2714:	9062003c 	lbu	v0,60(v1)
    2718:	afa3003c 	sw	v1,60(sp)
    271c:	00441025 	or	v0,v0,a0
    2720:	a062003c 	sb	v0,60(v1)
    2724:	8fa3003c 	lw	v1,60(sp)
    2728:	9062003c 	lbu	v0,60(v1)
    272c:	30420040 	andi	v0,v0,0x40
    2730:	1040016c 	beqz	v0,0x2ce4
    2734:	8fbf0058 	lw	ra,88(sp)
    2738:	3c108008 	lui	s0,0x8008
    273c:	a3800018 	sb	zero,24(gp)
    2740:	36100100 	ori	s0,s0,0x100
    2744:	8e0200d0 	lw	v0,208(s0)
    2748:	8c630034 	lw	v1,52(v1)
    274c:	27a4003c 	addiu	a0,sp,60
    2750:	27a50010 	addiu	a1,sp,16
    2754:	00431021 	addu	v0,v0,v1
    2758:	0e0007bc 	jal	0x8001ef0
    275c:	ae0200d0 	sw	v0,208(s0)
    2760:	93a20010 	lbu	v0,16(sp)
    2764:	3c038000 	lui	v1,0x8000
    2768:	a20200c5 	sb	v0,197(s0)
    276c:	8c620278 	lw	v0,632(v1)
    2770:	0440fffe 	bltz	v0,0x276c
    2774:	8f82001c 	lw	v0,28(gp)
    2778:	ac620240 	sw	v0,576(v1)
    277c:	24020002 	li	v0,2
    2780:	a0620244 	sb	v0,580(v1)
    2784:	3c021000 	lui	v0,0x1000
    2788:	ac620278 	sw	v0,632(v1)
    278c:	0e000932 	jal	0x80024c8
    2790:	00000000 	nop
    2794:	0a000b07 	j	0x8002c1c
    2798:	8fbf0058 	lw	ra,88(sp)
    279c:	3c058008 	lui	a1,0x8008
    27a0:	90c30001 	lbu	v1,1(a2)
    27a4:	90a2000b 	lbu	v0,11(a1)
    27a8:	1443014e 	bne	v0,v1,0x2ce4
    27ac:	8fbf0058 	lw	ra,88(sp)
    27b0:	34a40080 	ori	a0,a1,0x80
    27b4:	8c820018 	lw	v0,24(a0)
    27b8:	9082004c 	lbu	v0,76(a0)
    27bc:	90a20008 	lbu	v0,8(a1)
    27c0:	3c026000 	lui	v0,0x6000
    27c4:	8c425404 	lw	v0,21508(v0)
    27c8:	8c830018 	lw	v1,24(a0)
    27cc:	3c027fff 	lui	v0,0x7fff
    27d0:	3442ffff 	ori	v0,v0,0xffff
    27d4:	00621824 	and	v1,v1,v0
    27d8:	3c020800 	lui	v0,0x800
    27dc:	8c4200b4 	lw	v0,180(v0)
    27e0:	ac830018 	sw	v1,24(a0)
    27e4:	3c038000 	lui	v1,0x8000
    27e8:	24420001 	addiu	v0,v0,1
    27ec:	3c010800 	lui	at,0x800
    27f0:	ac2200b4 	sw	v0,180(at)
    27f4:	8c6201f8 	lw	v0,504(v1)
    27f8:	0440fffe 	bltz	v0,0x27f4
    27fc:	8f82001c 	lw	v0,28(gp)
    2800:	ac6201c0 	sw	v0,448(v1)
    2804:	0a000acf 	j	0x8002b3c
    2808:	24020002 	li	v0,2
    280c:	3c108008 	lui	s0,0x8008
    2810:	90c30001 	lbu	v1,1(a2)
    2814:	9202000b 	lbu	v0,11(s0)
    2818:	14430132 	bne	v0,v1,0x2ce4
    281c:	8fbf0058 	lw	ra,88(sp)
    2820:	27a40018 	addiu	a0,sp,24
    2824:	36050110 	ori	a1,s0,0x110
    2828:	24060003 	li	a2,3
    282c:	3c026000 	lui	v0,0x6000
    2830:	8c425404 	lw	v0,21508(v0)
    2834:	0e000e15 	jal	0x8003854
    2838:	00000000 	nop
    283c:	27a40028 	addiu	a0,sp,40
    2840:	360501e0 	ori	a1,s0,0x1e0
    2844:	0e000e15 	jal	0x8003854
    2848:	24060003 	li	a2,3
    284c:	8fa20028 	lw	v0,40(sp)
    2850:	36030100 	ori	v1,s0,0x100
    2854:	ae020064 	sw	v0,100(s0)
    2858:	8fa2002c 	lw	v0,44(sp)
    285c:	ae020068 	sw	v0,104(s0)
    2860:	8fa20030 	lw	v0,48(sp)
    2864:	ae02006c 	sw	v0,108(s0)
    2868:	93a40018 	lbu	a0,24(sp)
    286c:	906300c5 	lbu	v1,197(v1)
    2870:	2402ff80 	li	v0,-128
    2874:	00821024 	and	v0,a0,v0
    2878:	00431025 	or	v0,v0,v1
    287c:	304900ff 	andi	t1,v0,0xff
    2880:	3084007f 	andi	a0,a0,0x7f
    2884:	3122007f 	andi	v0,t1,0x7f
    2888:	0082102a 	slt	v0,a0,v0
    288c:	54400001 	bnezl	v0,0x2894
    2890:	39290080 	xori	t1,t1,0x80
    2894:	000411c0 	sll	v0,a0,0x7
    2898:	24420240 	addiu	v0,v0,576
    289c:	2403ff80 	li	v1,-128
    28a0:	02421021 	addu	v0,s2,v0
    28a4:	00431024 	and	v0,v0,v1
    28a8:	ae220094 	sw	v0,148(s1)
    28ac:	26420040 	addiu	v0,s2,64
    28b0:	3042007f 	andi	v0,v0,0x7f
    28b4:	3c038006 	lui	v1,0x8006
    28b8:	00434021 	addu	t0,v0,v1
    28bc:	8fa3001c 	lw	v1,28(sp)
    28c0:	2402ffff 	li	v0,-1
    28c4:	afa80040 	sw	t0,64(sp)
    28c8:	3c130800 	lui	s3,0x800
    28cc:	927300f7 	lbu	s3,247(s3)
    28d0:	10620033 	beq	v1,v0,0x29a0
    28d4:	93a20019 	lbu	v0,25(sp)
    28d8:	95030014 	lhu	v1,20(t0)
    28dc:	304400ff 	andi	a0,v0,0xff
    28e0:	3063ffff 	andi	v1,v1,0xffff
    28e4:	0064182b 	sltu	v1,v1,a0
    28e8:	10600010 	beqz	v1,0x292c
    28ec:	00000000 	nop
    28f0:	95040014 	lhu	a0,20(t0)
    28f4:	8d07001c 	lw	a3,28(t0)
    28f8:	8d060018 	lw	a2,24(t0)
    28fc:	3084ffff 	andi	a0,a0,0xffff
    2900:	00442023 	subu	a0,v0,a0
    2904:	00042100 	sll	a0,a0,0x4
    2908:	00e43821 	addu	a3,a3,a0
    290c:	00001021 	move	v0,zero
    2910:	00e4202b 	sltu	a0,a3,a0
    2914:	00c23021 	addu	a2,a2,v0
    2918:	00c43021 	addu	a2,a2,a0
    291c:	ad07001c 	sw	a3,28(t0)
    2920:	ad060018 	sw	a2,24(t0)
    2924:	0a000a28 	j	0x80028a0
    2928:	93a20019 	lbu	v0,25(sp)
    292c:	95040014 	lhu	a0,20(t0)
    2930:	8d07001c 	lw	a3,28(t0)
    2934:	8d060018 	lw	a2,24(t0)
    2938:	3084ffff 	andi	a0,a0,0xffff
    293c:	00822023 	subu	a0,a0,v0
    2940:	00042100 	sll	a0,a0,0x4
    2944:	00001021 	move	v0,zero
    2948:	00801821 	move	v1,a0
    294c:	00c23023 	subu	a2,a2,v0
    2950:	00e4202b 	sltu	a0,a3,a0
    2954:	00c43023 	subu	a2,a2,a0
    2958:	00e33823 	subu	a3,a3,v1
    295c:	ad07001c 	sw	a3,28(t0)
    2960:	ad060018 	sw	a2,24(t0)
    2964:	93a20019 	lbu	v0,25(sp)
    2968:	8fa30040 	lw	v1,64(sp)
    296c:	a4620014 	sh	v0,20(v1)
    2970:	97a2001a 	lhu	v0,26(sp)
    2974:	a4620016 	sh	v0,22(v1)
    2978:	8fa2001c 	lw	v0,28(sp)
    297c:	ac620010 	sw	v0,16(v1)
    2980:	8fa2001c 	lw	v0,28(sp)
    2984:	ac62000c 	sw	v0,12(v1)
    2988:	93a20019 	lbu	v0,25(sp)
    298c:	a4620020 	sh	v0,32(v1)
    2990:	97a2001a 	lhu	v0,26(sp)
    2994:	a4620022 	sh	v0,34(v1)
    2998:	8fa2001c 	lw	v0,28(sp)
    299c:	ac620024 	sw	v0,36(v1)
    29a0:	3c048008 	lui	a0,0x8008
    29a4:	34830080 	ori	v1,a0,0x80
    29a8:	8c620038 	lw	v0,56(v1)
    29ac:	8fa20020 	lw	v0,32(sp)
    29b0:	01208821 	move	s1,t1
    29b4:	ac62003c 	sw	v0,60(v1)
    29b8:	8fa20020 	lw	v0,32(sp)
    29bc:	ac820000 	sw	v0,0(a0)
    29c0:	93a20018 	lbu	v0,24(sp)
    29c4:	a062004c 	sb	v0,76(v1)
    29c8:	93a20018 	lbu	v0,24(sp)
    29cc:	a0820009 	sb	v0,9(a0)
    29d0:	a0600068 	sb	zero,104(v1)
    29d4:	93a20018 	lbu	v0,24(sp)
    29d8:	10510051 	beq	v0,s1,0x2b20
    29dc:	2407ff80 	li	a3,-128
    29e0:	3229007f 	andi	t1,s1,0x7f
    29e4:	000911c0 	sll	v0,t1,0x7
    29e8:	24420240 	addiu	v0,v0,576
    29ec:	02421021 	addu	v0,s2,v0
    29f0:	3046007f 	andi	a2,v0,0x7f
    29f4:	3c038000 	lui	v1,0x8000
    29f8:	00471024 	and	v0,v0,a3
    29fc:	ac620094 	sw	v0,148(v1)
    2a00:	3c028006 	lui	v0,0x8006
    2a04:	00c23021 	addu	a2,a2,v0
    2a08:	90c2003c 	lbu	v0,60(a2)
    2a0c:	afa60040 	sw	a2,64(sp)
    2a10:	00002021 	move	a0,zero
    2a14:	00471025 	or	v0,v0,a3
    2a18:	a0c2003c 	sb	v0,60(a2)
    2a1c:	8fa80040 	lw	t0,64(sp)
    2a20:	95020002 	lhu	v0,2(t0)
    2a24:	95030014 	lhu	v1,20(t0)
    2a28:	8d07001c 	lw	a3,28(t0)
    2a2c:	3042ffff 	andi	v0,v0,0xffff
    2a30:	3063ffff 	andi	v1,v1,0xffff
    2a34:	8d060018 	lw	a2,24(t0)
    2a38:	00431023 	subu	v0,v0,v1
    2a3c:	00021100 	sll	v0,v0,0x4
    2a40:	00e23821 	addu	a3,a3,v0
    2a44:	00e2102b 	sltu	v0,a3,v0
    2a48:	00c43021 	addu	a2,a2,a0
    2a4c:	00c23021 	addu	a2,a2,v0
    2a50:	ad07001c 	sw	a3,28(t0)
    2a54:	ad060018 	sw	a2,24(t0)
    2a58:	95020002 	lhu	v0,2(t0)
    2a5c:	a5020014 	sh	v0,20(t0)
    2a60:	a5000016 	sh	zero,22(t0)
    2a64:	8d020008 	lw	v0,8(t0)
    2a68:	ad020010 	sw	v0,16(t0)
    2a6c:	8d020008 	lw	v0,8(t0)
    2a70:	ad02000c 	sw	v0,12(t0)
    2a74:	95020002 	lhu	v0,2(t0)
    2a78:	a5020020 	sh	v0,32(t0)
    2a7c:	a5000022 	sh	zero,34(t0)
    2a80:	8d020008 	lw	v0,8(t0)
    2a84:	ad020024 	sw	v0,36(t0)
    2a88:	9102003c 	lbu	v0,60(t0)
    2a8c:	30420040 	andi	v0,v0,0x40
    2a90:	1040001a 	beqz	v0,0x2afc
    2a94:	26220001 	addiu	v0,s1,1
    2a98:	3c108008 	lui	s0,0x8008
    2a9c:	a3a90038 	sb	t1,56(sp)
    2aa0:	a3800018 	sb	zero,24(gp)
    2aa4:	36100100 	ori	s0,s0,0x100
    2aa8:	8e0200d0 	lw	v0,208(s0)
    2aac:	8d030034 	lw	v1,52(t0)
    2ab0:	27a40040 	addiu	a0,sp,64
    2ab4:	27a50038 	addiu	a1,sp,56
    2ab8:	00431021 	addu	v0,v0,v1
    2abc:	0e0007bc 	jal	0x8001ef0
    2ac0:	ae0200d0 	sw	v0,208(s0)
    2ac4:	93a20038 	lbu	v0,56(sp)
    2ac8:	3c038000 	lui	v1,0x8000
    2acc:	a20200c5 	sb	v0,197(s0)
    2ad0:	8c620278 	lw	v0,632(v1)
    2ad4:	0440fffe 	bltz	v0,0x2ad0
    2ad8:	8f82001c 	lw	v0,28(gp)
    2adc:	ac620240 	sw	v0,576(v1)
    2ae0:	24020002 	li	v0,2
    2ae4:	a0620244 	sb	v0,580(v1)
    2ae8:	3c021000 	lui	v0,0x1000
    2aec:	ac620278 	sw	v0,632(v1)
    2af0:	0e000932 	jal	0x80024c8
    2af4:	00000000 	nop
    2af8:	26220001 	addiu	v0,s1,1
    2afc:	3043007f 	andi	v1,v0,0x7f
    2b00:	14730004 	bne	v1,s3,0x2b14
    2b04:	00402021 	move	a0,v0
    2b08:	2403ff80 	li	v1,-128
    2b0c:	02231024 	and	v0,s1,v1
    2b10:	00432026 	xor	a0,v0,v1
    2b14:	93a20018 	lbu	v0,24(sp)
    2b18:	0a000a44 	j	0x8002910
    2b1c:	309100ff 	andi	s1,a0,0xff
    2b20:	93a40018 	lbu	a0,24(sp)
    2b24:	8fa3001c 	lw	v1,28(sp)
    2b28:	2402ffff 	li	v0,-1
    2b2c:	1062000a 	beq	v1,v0,0x2b58
    2b30:	308900ff 	andi	t1,a0,0xff
    2b34:	24820001 	addiu	v0,a0,1
    2b38:	24830001 	addiu	v1,a0,1
    2b3c:	3042007f 	andi	v0,v0,0x7f
    2b40:	14530005 	bne	v0,s3,0x2b58
    2b44:	306900ff 	andi	t1,v1,0xff
    2b48:	2403ff80 	li	v1,-128
    2b4c:	00831024 	and	v0,a0,v1
    2b50:	00431026 	xor	v0,v0,v1
    2b54:	304900ff 	andi	t1,v0,0xff
    2b58:	3c028008 	lui	v0,0x8008
    2b5c:	90420008 	lbu	v0,8(v0)
    2b60:	01208821 	move	s1,t1
    2b64:	305000ff 	andi	s0,v0,0xff
    2b68:	12300019 	beq	s1,s0,0x2bd0
    2b6c:	3222007f 	andi	v0,s1,0x7f
    2b70:	000211c0 	sll	v0,v0,0x7
    2b74:	02421021 	addu	v0,s2,v0
    2b78:	24420240 	addiu	v0,v0,576
    2b7c:	2403ff80 	li	v1,-128
    2b80:	00431824 	and	v1,v0,v1
    2b84:	3c048000 	lui	a0,0x8000
    2b88:	ac830094 	sw	v1,148(a0)
    2b8c:	3042007f 	andi	v0,v0,0x7f
    2b90:	3c038006 	lui	v1,0x8006
    2b94:	00431021 	addu	v0,v0,v1
    2b98:	8c43000c 	lw	v1,12(v0)
    2b9c:	00402021 	move	a0,v0
    2ba0:	1060000b 	beqz	v1,0x2bd0
    2ba4:	afa20040 	sw	v0,64(sp)
    2ba8:	0e000577 	jal	0x80015dc
    2bac:	00000000 	nop
    2bb0:	26230001 	addiu	v1,s1,1
    2bb4:	2405ff80 	li	a1,-128
    2bb8:	3062007f 	andi	v0,v1,0x7f
    2bbc:	14530002 	bne	v0,s3,0x2bc8
    2bc0:	02252024 	and	a0,s1,a1
    2bc4:	00851826 	xor	v1,a0,a1
    2bc8:	0a000aa8 	j	0x8002aa0
    2bcc:	307100ff 	andi	s1,v1,0xff
    2bd0:	3c048008 	lui	a0,0x8008
    2bd4:	34840080 	ori	a0,a0,0x80
    2bd8:	8c830018 	lw	v1,24(a0)
    2bdc:	3c027fff 	lui	v0,0x7fff
    2be0:	3442ffff 	ori	v0,v0,0xffff
    2be4:	00621824 	and	v1,v1,v0
    2be8:	ac830018 	sw	v1,24(a0)
    2bec:	3c038000 	lui	v1,0x8000
    2bf0:	8c6201f8 	lw	v0,504(v1)
    2bf4:	0440fffe 	bltz	v0,0x2bf0
    2bf8:	00000000 	nop
    2bfc:	ac7201c0 	sw	s2,448(v1)
    2c00:	24020002 	li	v0,2
    2c04:	a06201c4 	sb	v0,452(v1)
    2c08:	3c021000 	lui	v0,0x1000
    2c0c:	ac6201f8 	sw	v0,504(v1)
    2c10:	0a000b07 	j	0x8002c1c
    2c14:	8fbf0058 	lw	ra,88(sp)
    2c18:	3c048008 	lui	a0,0x8008
    2c1c:	90c30001 	lbu	v1,1(a2)
    2c20:	9082000b 	lbu	v0,11(a0)
    2c24:	1443002f 	bne	v0,v1,0x2ce4
    2c28:	8fbf0058 	lw	ra,88(sp)
    2c2c:	34900080 	ori	s0,a0,0x80
    2c30:	92020008 	lbu	v0,8(s0)
    2c34:	30420040 	andi	v0,v0,0x40
    2c38:	10400020 	beqz	v0,0x2cbc
    2c3c:	00000000 	nop
    2c40:	92020008 	lbu	v0,8(s0)
    2c44:	00021600 	sll	v0,v0,0x18
    2c48:	00021603 	sra	v0,v0,0x18
    2c4c:	04410005 	bgez	v0,0x2c64
    2c50:	02402021 	move	a0,s2
    2c54:	0e000e9a 	jal	0x8003a68
    2c58:	24050093 	li	a1,147
    2c5c:	0a000b07 	j	0x8002c1c
    2c60:	8fbf0058 	lw	ra,88(sp)
    2c64:	92020009 	lbu	v0,9(s0)
    2c68:	24030018 	li	v1,24
    2c6c:	304200ff 	andi	v0,v0,0xff
    2c70:	1443000d 	bne	v0,v1,0x2ca8
    2c74:	02402021 	move	a0,s2
    2c78:	24050039 	li	a1,57
    2c7c:	0e000e32 	jal	0x80038c8
    2c80:	00003021 	move	a2,zero
    2c84:	0e000352 	jal	0x8000d48
    2c88:	8f84001c 	lw	a0,28(gp)
    2c8c:	8f82ff9c 	lw	v0,-100(gp)
    2c90:	24030012 	li	v1,18
    2c94:	a0430009 	sb	v1,9(v0)
    2c98:	0e00035d 	jal	0x8000d74
    2c9c:	8f84001c 	lw	a0,28(gp)
    2ca0:	0a000b07 	j	0x8002c1c
    2ca4:	8fbf0058 	lw	ra,88(sp)
    2ca8:	24050036 	li	a1,54
    2cac:	0e000e32 	jal	0x80038c8
    2cb0:	00003021 	move	a2,zero
    2cb4:	0a000b07 	j	0x8002c1c
    2cb8:	8fbf0058 	lw	ra,88(sp)
    2cbc:	0e000352 	jal	0x8000d48
    2cc0:	02402021 	move	a0,s2
    2cc4:	92020005 	lbu	v0,5(s0)
    2cc8:	8f84001c 	lw	a0,28(gp)
    2ccc:	34420020 	ori	v0,v0,0x20
    2cd0:	0e00035d 	jal	0x8000d74
    2cd4:	a2020005 	sb	v0,5(s0)
    2cd8:	0e001043 	jal	0x800410c
    2cdc:	8f84001c 	lw	a0,28(gp)
    2ce0:	8fbf0058 	lw	ra,88(sp)
    2ce4:	8fb30054 	lw	s3,84(sp)
    2ce8:	8fb20050 	lw	s2,80(sp)
    2cec:	8fb1004c 	lw	s1,76(sp)
    2cf0:	8fb00048 	lw	s0,72(sp)
    2cf4:	03e00008 	jr	ra
    2cf8:	27bd0060 	addiu	sp,sp,96
    2cfc:	3c028008 	lui	v0,0x8008
    2d00:	34450100 	ori	a1,v0,0x100
    2d04:	3c028000 	lui	v0,0x8000
    2d08:	8c420140 	lw	v0,320(v0)
    2d0c:	94a3000e 	lhu	v1,14(a1)
    2d10:	00003021 	move	a2,zero
    2d14:	00402021 	move	a0,v0
    2d18:	af82001c 	sw	v0,28(gp)
    2d1c:	3063ffff 	andi	v1,v1,0xffff
    2d20:	3402ffff 	li	v0,0xffff
    2d24:	10620006 	beq	v1,v0,0x2d40
    2d28:	3c076020 	lui	a3,0x6020
    2d2c:	2402ffff 	li	v0,-1
    2d30:	a4a2000e 	sh	v0,14(a1)
    2d34:	94a500da 	lhu	a1,218(a1)
    2d38:	0a0008fa 	j	0x80023e8
    2d3c:	30a5ffff 	andi	a1,a1,0xffff
    2d40:	03e00008 	jr	ra
    2d44:	00000000 	nop
    2d48:	27bdffc8 	addiu	sp,sp,-56
    2d4c:	3c028000 	lui	v0,0x8000
    2d50:	3c068008 	lui	a2,0x8008
    2d54:	afb5002c 	sw	s5,44(sp)
    2d58:	afb1001c 	sw	s1,28(sp)
    2d5c:	afbf0030 	sw	ra,48(sp)
    2d60:	afb40028 	sw	s4,40(sp)
    2d64:	afb30024 	sw	s3,36(sp)
    2d68:	afb20020 	sw	s2,32(sp)
    2d6c:	afb00018 	sw	s0,24(sp)
    2d70:	34510100 	ori	s1,v0,0x100
    2d74:	34c50100 	ori	a1,a2,0x100
    2d78:	8c430100 	lw	v1,256(v0)
    2d7c:	8e220014 	lw	v0,20(s1)
    2d80:	8ca400d4 	lw	a0,212(a1)
    2d84:	0000a821 	move	s5,zero
    2d88:	af83001c 	sw	v1,28(gp)
    2d8c:	00441023 	subu	v0,v0,a0
    2d90:	18400052 	blez	v0,0x2edc
    2d94:	a3800018 	sb	zero,24(gp)
    2d98:	8e220014 	lw	v0,20(s1)
    2d9c:	00005021 	move	t2,zero
    2da0:	aca200d4 	sw	v0,212(a1)
    2da4:	90c30008 	lbu	v1,8(a2)
    2da8:	90a200c5 	lbu	v0,197(a1)
    2dac:	3073007f 	andi	s3,v1,0x7f
    2db0:	a3a20010 	sb	v0,16(sp)
    2db4:	8cb200d0 	lw	s2,208(a1)
    2db8:	8cb400d4 	lw	s4,212(a1)
    2dbc:	304200ff 	andi	v0,v0,0xff
    2dc0:	1053003b 	beq	v0,s3,0x2eb0
    2dc4:	93a20010 	lbu	v0,16(sp)
    2dc8:	8f83001c 	lw	v1,28(gp)
    2dcc:	2407ff80 	li	a3,-128
    2dd0:	000211c0 	sll	v0,v0,0x7
    2dd4:	00621021 	addu	v0,v1,v0
    2dd8:	24420240 	addiu	v0,v0,576
    2ddc:	24630040 	addiu	v1,v1,64
    2de0:	00471024 	and	v0,v0,a3
    2de4:	3063007f 	andi	v1,v1,0x7f
    2de8:	3c098000 	lui	t1,0x8000
    2dec:	3c08800a 	lui	t0,0x800a
    2df0:	00681821 	addu	v1,v1,t0
    2df4:	ad220024 	sw	v0,36(t1)
    2df8:	8c620034 	lw	v0,52(v1)
    2dfc:	27a40014 	addiu	a0,sp,20
    2e00:	27a50010 	addiu	a1,sp,16
    2e04:	02428021 	addu	s0,s2,v0
    2e08:	02901023 	subu	v0,s4,s0
    2e0c:	04400028 	bltz	v0,0x2eb0
    2e10:	afa30014 	sw	v1,20(sp)
    2e14:	9062003c 	lbu	v0,60(v1)
    2e18:	00e21024 	and	v0,a3,v0
    2e1c:	304200ff 	andi	v0,v0,0xff
    2e20:	14400019 	bnez	v0,0x2e88
    2e24:	02009021 	move	s2,s0
    2e28:	9062003c 	lbu	v0,60(v1)
    2e2c:	34420040 	ori	v0,v0,0x40
    2e30:	a062003c 	sb	v0,60(v1)
    2e34:	8f86001c 	lw	a2,28(gp)
    2e38:	93a30010 	lbu	v1,16(sp)
    2e3c:	24c20040 	addiu	v0,a2,64
    2e40:	3042007f 	andi	v0,v0,0x7f
    2e44:	00482821 	addu	a1,v0,t0
    2e48:	3c020800 	lui	v0,0x800
    2e4c:	8c4200f4 	lw	v0,244(v0)
    2e50:	24630001 	addiu	v1,v1,1
    2e54:	306400ff 	andi	a0,v1,0xff
    2e58:	14820002 	bne	a0,v0,0x2e64
    2e5c:	a3a30010 	sb	v1,16(sp)
    2e60:	a3a00010 	sb	zero,16(sp)
    2e64:	93a20010 	lbu	v0,16(sp)
    2e68:	afa50014 	sw	a1,20(sp)
    2e6c:	000211c0 	sll	v0,v0,0x7
    2e70:	24420240 	addiu	v0,v0,576
    2e74:	00c21021 	addu	v0,a2,v0
    2e78:	00471024 	and	v0,v0,a3
    2e7c:	ad220024 	sw	v0,36(t1)
    2e80:	0a000b3e 	j	0x8002cf8
    2e84:	93a20010 	lbu	v0,16(sp)
    2e88:	0e0007bc 	jal	0x8001ef0
    2e8c:	00000000 	nop
    2e90:	3c028008 	lui	v0,0x8008
    2e94:	34420100 	ori	v0,v0,0x100
    2e98:	ac5000d0 	sw	s0,208(v0)
    2e9c:	93a30010 	lbu	v1,16(sp)
    2ea0:	240a0001 	li	t2,1
    2ea4:	a04300c5 	sb	v1,197(v0)
    2ea8:	0a000b3e 	j	0x8002cf8
    2eac:	93a20010 	lbu	v0,16(sp)
    2eb0:	24020001 	li	v0,1
    2eb4:	15420009 	bne	t2,v0,0x2edc
    2eb8:	3c038000 	lui	v1,0x8000
    2ebc:	8c620278 	lw	v0,632(v1)
    2ec0:	0440fffe 	bltz	v0,0x2ebc
    2ec4:	8f82001c 	lw	v0,28(gp)
    2ec8:	ac620240 	sw	v0,576(v1)
    2ecc:	24020002 	li	v0,2
    2ed0:	a0620244 	sb	v0,580(v1)
    2ed4:	3c021000 	lui	v0,0x1000
    2ed8:	ac620278 	sw	v0,632(v1)
    2edc:	9222000b 	lbu	v0,11(s1)
    2ee0:	24030002 	li	v1,2
    2ee4:	304200ff 	andi	v0,v0,0xff
    2ee8:	14430072 	bne	v0,v1,0x30b4
    2eec:	00000000 	nop
    2ef0:	96220008 	lhu	v0,8(s1)
    2ef4:	304300ff 	andi	v1,v0,0xff
    2ef8:	24020082 	li	v0,130
    2efc:	14620040 	bne	v1,v0,0x3000
    2f00:	24020084 	li	v0,132
    2f04:	3c028000 	lui	v0,0x8000
    2f08:	34490100 	ori	t1,v0,0x100
    2f0c:	8d22000c 	lw	v0,12(t1)
    2f10:	95230006 	lhu	v1,6(t1)
    2f14:	00021602 	srl	v0,v0,0x18
    2f18:	3063ffff 	andi	v1,v1,0xffff
    2f1c:	3045003f 	andi	a1,v0,0x3f
    2f20:	24020027 	li	v0,39
    2f24:	10a2000f 	beq	a1,v0,0x2f64
    2f28:	af830014 	sw	v1,20(gp)
    2f2c:	28a20028 	slti	v0,a1,40
    2f30:	10400008 	beqz	v0,0x2f54
    2f34:	24020031 	li	v0,49
    2f38:	24020021 	li	v0,33
    2f3c:	10a20009 	beq	a1,v0,0x2f64
    2f40:	24020025 	li	v0,37
    2f44:	10a20007 	beq	a1,v0,0x2f64
    2f48:	93820019 	lbu	v0,25(gp)
    2f4c:	0a000bb6 	j	0x8002ed8
    2f50:	00000000 	nop
    2f54:	10a20007 	beq	a1,v0,0x2f74
    2f58:	93820019 	lbu	v0,25(gp)
    2f5c:	0a000bb6 	j	0x8002ed8
    2f60:	00000000 	nop
    2f64:	0e000770 	jal	0x8001dc0
    2f68:	01202021 	move	a0,t1
    2f6c:	0a000c36 	j	0x80030d8
    2f70:	00000000 	nop
    2f74:	3c038000 	lui	v1,0x8000
    2f78:	8c620278 	lw	v0,632(v1)
    2f7c:	0440fffe 	bltz	v0,0x2f78
    2f80:	8f82001c 	lw	v0,28(gp)
    2f84:	ac620240 	sw	v0,576(v1)
    2f88:	24020002 	li	v0,2
    2f8c:	a0620244 	sb	v0,580(v1)
    2f90:	3c021000 	lui	v0,0x1000
    2f94:	ac620278 	sw	v0,632(v1)
    2f98:	0a000c36 	j	0x80030d8
    2f9c:	00000000 	nop
    2fa0:	95230006 	lhu	v1,6(t1)
    2fa4:	91240005 	lbu	a0,5(t1)
    2fa8:	8d25000c 	lw	a1,12(t1)
    2fac:	8d260010 	lw	a2,16(t1)
    2fb0:	8d270018 	lw	a3,24(t1)
    2fb4:	8d28001c 	lw	t0,28(t1)
    2fb8:	8d290020 	lw	t1,32(t1)
    2fbc:	24420001 	addiu	v0,v0,1
    2fc0:	3c010800 	lui	at,0x800
    2fc4:	a423530e 	sh	v1,21262(at)
    2fc8:	3c010800 	lui	at,0x800
    2fcc:	a024530d 	sb	a0,21261(at)
    2fd0:	3c010800 	lui	at,0x800
    2fd4:	ac255314 	sw	a1,21268(at)
    2fd8:	3c010800 	lui	at,0x800
    2fdc:	ac265318 	sw	a2,21272(at)
    2fe0:	3c010800 	lui	at,0x800
    2fe4:	ac275320 	sw	a3,21280(at)
    2fe8:	3c010800 	lui	at,0x800
    2fec:	ac285324 	sw	t0,21284(at)
    2ff0:	3c010800 	lui	at,0x800
    2ff4:	ac295328 	sw	t1,21288(at)
    2ff8:	0a000c36 	j	0x80030d8
    2ffc:	a3820019 	sb	v0,25(gp)
    3000:	1462000a 	bne	v1,v0,0x302c
    3004:	24020081 	li	v0,129
    3008:	3c028008 	lui	v0,0x8008
    300c:	34420100 	ori	v0,v0,0x100
    3010:	944500da 	lhu	a1,218(v0)
    3014:	92260005 	lbu	a2,5(s1)
    3018:	8f84001c 	lw	a0,28(gp)
    301c:	30a5ffff 	andi	a1,a1,0xffff
    3020:	30c600ff 	andi	a2,a2,0xff
    3024:	0a000bf7 	j	0x8002fdc
    3028:	3c076021 	lui	a3,0x6021
    302c:	1462005c 	bne	v1,v0,0x31a0
    3030:	00000000 	nop
    3034:	9222000a 	lbu	v0,10(s1)
    3038:	304300ff 	andi	v1,v0,0xff
    303c:	30620020 	andi	v0,v1,0x20
    3040:	10400007 	beqz	v0,0x3060
    3044:	30620040 	andi	v0,v1,0x40
    3048:	3c028008 	lui	v0,0x8008
    304c:	34420100 	ori	v0,v0,0x100
    3050:	944500da 	lhu	a1,218(v0)
    3054:	8f84001c 	lw	a0,28(gp)
    3058:	0a000bf5 	j	0x8002fd4
    305c:	24060040 	li	a2,64
    3060:	10400007 	beqz	v0,0x3080
    3064:	00031600 	sll	v0,v1,0x18
    3068:	3c028008 	lui	v0,0x8008
    306c:	34420100 	ori	v0,v0,0x100
    3070:	944500da 	lhu	a1,218(v0)
    3074:	8f84001c 	lw	a0,28(gp)
    3078:	0a000bf5 	j	0x8002fd4
    307c:	24060041 	li	a2,65
    3080:	00021603 	sra	v0,v0,0x18
    3084:	04410046 	bgez	v0,0x31a0
    3088:	3c028008 	lui	v0,0x8008
    308c:	34420100 	ori	v0,v0,0x100
    3090:	944500da 	lhu	a1,218(v0)
    3094:	8f84001c 	lw	a0,28(gp)
    3098:	24060042 	li	a2,66
    309c:	30a5ffff 	andi	a1,a1,0xffff
    30a0:	3c076019 	lui	a3,0x6019
    30a4:	0e0008fa 	jal	0x80023e8
    30a8:	00000000 	nop
    30ac:	0a000c36 	j	0x80030d8
    30b0:	00000000 	nop
    30b4:	9222000b 	lbu	v0,11(s1)
    30b8:	24040016 	li	a0,22
    30bc:	304200ff 	andi	v0,v0,0xff
    30c0:	10440006 	beq	v0,a0,0x30dc
    30c4:	3c068000 	lui	a2,0x8000
    30c8:	9222000b 	lbu	v0,11(s1)
    30cc:	24030017 	li	v1,23
    30d0:	304200ff 	andi	v0,v0,0xff
    30d4:	14430032 	bne	v0,v1,0x31a0
    30d8:	00000000 	nop
    30dc:	34c50100 	ori	a1,a2,0x100
    30e0:	90a2000b 	lbu	v0,11(a1)
    30e4:	304200ff 	andi	v0,v0,0xff
    30e8:	1444000b 	bne	v0,a0,0x3118
    30ec:	00008021 	move	s0,zero
    30f0:	8ca20020 	lw	v0,32(a1)
    30f4:	8ca40020 	lw	a0,32(a1)
    30f8:	2403ff80 	li	v1,-128
    30fc:	00431024 	and	v0,v0,v1
    3100:	00021140 	sll	v0,v0,0x5
    3104:	3084007f 	andi	a0,a0,0x7f
    3108:	00441025 	or	v0,v0,a0
    310c:	3c032000 	lui	v1,0x2000
    3110:	00431025 	or	v0,v0,v1
    3114:	acc20830 	sw	v0,2096(a2)
    3118:	94a20008 	lhu	v0,8(a1)
    311c:	00021400 	sll	v0,v0,0x10
    3120:	00021403 	sra	v0,v0,0x10
    3124:	04420001 	bltzl	v0,0x312c
    3128:	24100001 	li	s0,1
    312c:	94a20008 	lhu	v0,8(a1)
    3130:	30420080 	andi	v0,v0,0x80
    3134:	5040001a 	beqzl	v0,0x31a0
    3138:	0200a821 	move	s5,s0
    313c:	94a20008 	lhu	v0,8(a1)
    3140:	30422000 	andi	v0,v0,0x2000
    3144:	50400016 	beqzl	v0,0x31a0
    3148:	0200a821 	move	s5,s0
    314c:	8ca30018 	lw	v1,24(a1)
    3150:	3c021c2d 	lui	v0,0x1c2d
    3154:	344219ed 	ori	v0,v0,0x19ed
    3158:	10620011 	beq	v1,v0,0x31a0
    315c:	0200a821 	move	s5,s0
    3160:	3c020800 	lui	v0,0x800
    3164:	8c4200d4 	lw	v0,212(v0)
    3168:	10400005 	beqz	v0,0x3180
    316c:	3c028008 	lui	v0,0x8008
    3170:	24030004 	li	v1,4
    3174:	34420100 	ori	v0,v0,0x100
    3178:	a04300ec 	sb	v1,236(v0)
    317c:	3c028008 	lui	v0,0x8008
    3180:	34420100 	ori	v0,v0,0x100
    3184:	944500da 	lhu	a1,218(v0)
    3188:	8f84001c 	lw	a0,28(gp)
    318c:	24060006 	li	a2,6
    3190:	30a5ffff 	andi	a1,a1,0xffff
    3194:	0e0008fa 	jal	0x80023e8
    3198:	3c076021 	lui	a3,0x6021
    319c:	0200a821 	move	s5,s0
    31a0:	0e000932 	jal	0x80024c8
    31a4:	00000000 	nop
    31a8:	9222000a 	lbu	v0,10(s1)
    31ac:	30420008 	andi	v0,v0,0x8
    31b0:	10400004 	beqz	v0,0x31c4
    31b4:	02a01021 	move	v0,s5
    31b8:	0e001347 	jal	0x8004d1c
    31bc:	00000000 	nop
    31c0:	02a01021 	move	v0,s5
    31c4:	8fbf0030 	lw	ra,48(sp)
    31c8:	8fb5002c 	lw	s5,44(sp)
    31cc:	8fb40028 	lw	s4,40(sp)
    31d0:	8fb30024 	lw	s3,36(sp)
    31d4:	8fb20020 	lw	s2,32(sp)
    31d8:	8fb1001c 	lw	s1,28(sp)
    31dc:	8fb00018 	lw	s0,24(sp)
    31e0:	03e00008 	jr	ra
    31e4:	27bd0038 	addiu	sp,sp,56
    31e8:	2402ff80 	li	v0,-128
    31ec:	00822024 	and	a0,a0,v0
    31f0:	3c029000 	lui	v0,0x9000
    31f4:	34420007 	ori	v0,v0,0x7
    31f8:	00822025 	or	a0,a0,v0
    31fc:	3c028000 	lui	v0,0x8000
    3200:	ac440020 	sw	a0,32(v0)
    3204:	3c038000 	lui	v1,0x8000
    3208:	8c620020 	lw	v0,32(v1)
    320c:	0440fffe 	bltz	v0,0x3208
    3210:	00000000 	nop
    3214:	03e00008 	jr	ra
    3218:	00000000 	nop
    321c:	3c038000 	lui	v1,0x8000
    3220:	2402ff80 	li	v0,-128
    3224:	00822024 	and	a0,a0,v0
    3228:	34620007 	ori	v0,v1,0x7
    322c:	00822025 	or	a0,a0,v0
    3230:	ac640020 	sw	a0,32(v1)
    3234:	8c620020 	lw	v0,32(v1)
    3238:	0440fffe 	bltz	v0,0x3234
    323c:	00000000 	nop
    3240:	03e00008 	jr	ra
    3244:	00000000 	nop
    3248:	3c028008 	lui	v0,0x8008
    324c:	24030005 	li	v1,5
    3250:	34420100 	ori	v0,v0,0x100
    3254:	a04300ec 	sb	v1,236(v0)
    3258:	3c028000 	lui	v0,0x8000
    325c:	8c420100 	lw	v0,256(v0)
    3260:	3c038000 	lui	v1,0x8000
    3264:	af82001c 	sw	v0,28(gp)
    3268:	8c620278 	lw	v0,632(v1)
    326c:	0440fffe 	bltz	v0,0x3268
    3270:	8f82001c 	lw	v0,28(gp)
    3274:	ac620240 	sw	v0,576(v1)
    3278:	24020002 	li	v0,2
    327c:	a0620244 	sb	v0,580(v1)
    3280:	3c021000 	lui	v0,0x1000
    3284:	ac620278 	sw	v0,632(v1)
    3288:	03e00008 	jr	ra
    328c:	00000000 	nop
    3290:	27bdffe8 	addiu	sp,sp,-24
    3294:	3c068000 	lui	a2,0x8000
    3298:	afbf0010 	sw	ra,16(sp)
    329c:	34c70100 	ori	a3,a2,0x100
    32a0:	94e20008 	lhu	v0,8(a3)
    32a4:	304400ff 	andi	a0,v0,0xff
    32a8:	38830082 	xori	v1,a0,0x82
    32ac:	38820084 	xori	v0,a0,0x84
    32b0:	2c630001 	sltiu	v1,v1,1
    32b4:	2c420001 	sltiu	v0,v0,1
    32b8:	00621825 	or	v1,v1,v0
    32bc:	1060002d 	beqz	v1,0x3374
    32c0:	24020083 	li	v0,131
    32c4:	93820019 	lbu	v0,25(gp)
    32c8:	50400036 	beqzl	v0,0x33a4
    32cc:	8fbf0010 	lw	ra,16(sp)
    32d0:	3c020800 	lui	v0,0x800
    32d4:	90425314 	lbu	v0,21268(v0)
    32d8:	8cc40100 	lw	a0,256(a2)
    32dc:	3c060800 	lui	a2,0x800
    32e0:	94c6530e 	lhu	a2,21262(a2)
    32e4:	3045003f 	andi	a1,v0,0x3f
    32e8:	38a30032 	xori	v1,a1,0x32
    32ec:	38a2003f 	xori	v0,a1,0x3f
    32f0:	2c630001 	sltiu	v1,v1,1
    32f4:	2c420001 	sltiu	v0,v0,1
    32f8:	00621825 	or	v1,v1,v0
    32fc:	af84001c 	sw	a0,28(gp)
    3300:	af860014 	sw	a2,20(gp)
    3304:	a3800019 	sb	zero,25(gp)
    3308:	14600007 	bnez	v1,0x3328
    330c:	00e02021 	move	a0,a3
    3310:	24020020 	li	v0,32
    3314:	14a20012 	bne	a1,v0,0x3360
    3318:	00000000 	nop
    331c:	3402ffff 	li	v0,0xffff
    3320:	14c2000f 	bne	a2,v0,0x3360
    3324:	00000000 	nop
    3328:	24020020 	li	v0,32
    332c:	14a20005 	bne	a1,v0,0x3344
    3330:	00e02821 	move	a1,a3
    3334:	8ce30014 	lw	v1,20(a3)
    3338:	2402ffff 	li	v0,-1
    333c:	5062000b 	beql	v1,v0,0x336c
    3340:	8fbf0010 	lw	ra,16(sp)
    3344:	3c040800 	lui	a0,0x800
    3348:	24845308 	addiu	a0,a0,21256
    334c:	00003021 	move	a2,zero
    3350:	0e0006ff 	jal	0x8001bfc
    3354:	24070001 	li	a3,1
    3358:	0a000ca9 	j	0x80032a4
    335c:	8fbf0010 	lw	ra,16(sp)
    3360:	0e000770 	jal	0x8001dc0
    3364:	00000000 	nop
    3368:	8fbf0010 	lw	ra,16(sp)
    336c:	0a000932 	j	0x80024c8
    3370:	27bd0018 	addiu	sp,sp,24
    3374:	14820006 	bne	a0,v0,0x3390
    3378:	2482ff80 	addiu	v0,a0,-128
    337c:	8cc30104 	lw	v1,260(a2)
    3380:	3c026020 	lui	v0,0x6020
    3384:	ac430014 	sw	v1,20(v0)
    3388:	0a000cdf 	j	0x800337c
    338c:	8fbf0010 	lw	ra,16(sp)
    3390:	304200ff 	andi	v0,v0,0xff
    3394:	2c420002 	sltiu	v0,v0,2
    3398:	10400004 	beqz	v0,0x33ac
    339c:	24020022 	li	v0,34
    33a0:	8fbf0010 	lw	ra,16(sp)
    33a4:	0a000b20 	j	0x8002c80
    33a8:	27bd0018 	addiu	sp,sp,24
    33ac:	14820004 	bne	a0,v0,0x33c0
    33b0:	8f820024 	lw	v0,36(gp)
    33b4:	8fbf0010 	lw	ra,16(sp)
    33b8:	0a000c60 	j	0x8003180
    33bc:	27bd0018 	addiu	sp,sp,24
    33c0:	8c42000c 	lw	v0,12(v0)
    33c4:	1040001e 	beqz	v0,0x3440
    33c8:	00e02821 	move	a1,a3
    33cc:	90e30009 	lbu	v1,9(a3)
    33d0:	24020018 	li	v0,24
    33d4:	14620003 	bne	v1,v0,0x33e4
    33d8:	24020016 	li	v0,22
    33dc:	0a000cca 	j	0x8003328
    33e0:	24030008 	li	v1,8
    33e4:	14620007 	bne	v1,v0,0x3404
    33e8:	24020017 	li	v0,23
    33ec:	24030012 	li	v1,18
    33f0:	3c028008 	lui	v0,0x8008
    33f4:	34420080 	ori	v0,v0,0x80
    33f8:	a0430009 	sb	v1,9(v0)
    33fc:	0a000cd7 	j	0x800335c
    3400:	94a70008 	lhu	a3,8(a1)
    3404:	54620007 	bnel	v1,v0,0x3424
    3408:	94a70008 	lhu	a3,8(a1)
    340c:	8f82ff9c 	lw	v0,-100(gp)
    3410:	2404fffe 	li	a0,-2
    3414:	90430005 	lbu	v1,5(v0)
    3418:	00641824 	and	v1,v1,a0
    341c:	a0430005 	sb	v1,5(v0)
    3420:	94a70008 	lhu	a3,8(a1)
    3424:	90a6001b 	lbu	a2,27(a1)
    3428:	8ca40000 	lw	a0,0(a1)
    342c:	94a50006 	lhu	a1,6(a1)
    3430:	8fbf0010 	lw	ra,16(sp)
    3434:	00073c00 	sll	a3,a3,0x10
    3438:	0a0008d5 	j	0x8002354
    343c:	27bd0018 	addiu	sp,sp,24
    3440:	8fbf0010 	lw	ra,16(sp)
    3444:	03e00008 	jr	ra
    3448:	27bd0018 	addiu	sp,sp,24
    344c:	8f850024 	lw	a1,36(gp)
    3450:	3c048000 	lui	a0,0x8000
    3454:	94a2002a 	lhu	v0,42(a1)
    3458:	8ca30034 	lw	v1,52(a1)
    345c:	000230c0 	sll	a2,v0,0x3
    3460:	2402fff0 	li	v0,-16
    3464:	00c21024 	and	v0,a2,v0
    3468:	00621821 	addu	v1,v1,v0
    346c:	ac83003c 	sw	v1,60(a0)
    3470:	8ca20030 	lw	v0,48(a1)
    3474:	3c038000 	lui	v1,0x8000
    3478:	ac820038 	sw	v0,56(a0)
    347c:	3c020050 	lui	v0,0x50
    3480:	34420010 	ori	v0,v0,0x10
    3484:	ac620030 	sw	v0,48(v1)
	...
    3494:	8c620000 	lw	v0,0(v1)
    3498:	30420020 	andi	v0,v0,0x20
    349c:	1040fffd 	beqz	v0,0x3494
    34a0:	30c20008 	andi	v0,a2,0x8
    34a4:	10400006 	beqz	v0,0x34c0
    34a8:	3c028000 	lui	v0,0x8000
    34ac:	8c620408 	lw	v0,1032(v1)
    34b0:	aca20020 	sw	v0,32(a1)
    34b4:	8c62040c 	lw	v0,1036(v1)
    34b8:	0a000d02 	j	0x8003408
    34bc:	aca20024 	sw	v0,36(a1)
    34c0:	8c430400 	lw	v1,1024(v0)
    34c4:	aca30020 	sw	v1,32(a1)
    34c8:	8c420404 	lw	v0,1028(v0)
    34cc:	aca20024 	sw	v0,36(a1)
    34d0:	3c030020 	lui	v1,0x20
    34d4:	3c028000 	lui	v0,0x8000
    34d8:	ac430030 	sw	v1,48(v0)
    34dc:	3c048000 	lui	a0,0x8000
    34e0:	8c820030 	lw	v0,48(a0)
    34e4:	00431024 	and	v0,v0,v1
    34e8:	1440fffd 	bnez	v0,0x34e0
    34ec:	8f860024 	lw	a2,36(gp)
    34f0:	3c020040 	lui	v0,0x40
    34f4:	ac820030 	sw	v0,48(a0)
    34f8:	94c3002a 	lhu	v1,42(a2)
    34fc:	94c20028 	lhu	v0,40(a2)
    3500:	94c4002c 	lhu	a0,44(a2)
    3504:	94c5002e 	lhu	a1,46(a2)
    3508:	24630001 	addiu	v1,v1,1
    350c:	00441021 	addu	v0,v0,a0
    3510:	3064ffff 	andi	a0,v1,0xffff
    3514:	a4c20028 	sh	v0,40(a2)
    3518:	14850002 	bne	a0,a1,0x3524
    351c:	a4c3002a 	sh	v1,42(a2)
    3520:	a4c0002a 	sh	zero,42(a2)
    3524:	03e00008 	jr	ra
    3528:	00000000 	nop
    352c:	8f840024 	lw	a0,36(gp)
    3530:	27bdffe8 	addiu	sp,sp,-24
    3534:	3c058004 	lui	a1,0x8004
    3538:	24840010 	addiu	a0,a0,16
    353c:	afbf0010 	sw	ra,16(sp)
    3540:	0e000e15 	jal	0x8003854
    3544:	2406000a 	li	a2,10
    3548:	8f840024 	lw	a0,36(gp)
    354c:	94820012 	lhu	v0,18(a0)
    3550:	9483002e 	lhu	v1,46(a0)
    3554:	3042000f 	andi	v0,v0,0xf
    3558:	24420003 	addiu	v0,v0,3
    355c:	00431804 	sllv	v1,v1,v0
    3560:	24027fff 	li	v0,32767
    3564:	0043102b 	sltu	v0,v0,v1
    3568:	10400002 	beqz	v0,0x3574
    356c:	ac830000 	sw	v1,0(a0)
    3570:	0000000d 	break
    3574:	0e000ce1 	jal	0x8003384
    3578:	00000000 	nop
    357c:	8f830024 	lw	v1,36(gp)
    3580:	8fbf0010 	lw	ra,16(sp)
    3584:	27bd0018 	addiu	sp,sp,24
    3588:	94620014 	lhu	v0,20(v1)
    358c:	9463001a 	lhu	v1,26(v1)
    3590:	3042000f 	andi	v0,v0,0xf
    3594:	00021500 	sll	v0,v0,0x14
    3598:	00621825 	or	v1,v1,v0
    359c:	3c028000 	lui	v0,0x8000
    35a0:	03e00008 	jr	ra
    35a4:	ac4300a0 	sw	v1,160(v0)
    35a8:	8f830024 	lw	v1,36(gp)
    35ac:	3c028004 	lui	v0,0x8004
    35b0:	94440006 	lhu	a0,6(v0)
    35b4:	9462001a 	lhu	v0,26(v1)
    35b8:	8c650000 	lw	a1,0(v1)
    35bc:	a4640016 	sh	a0,22(v1)
    35c0:	00441023 	subu	v0,v0,a0
    35c4:	3042ffff 	andi	v0,v0,0xffff
    35c8:	0045102b 	sltu	v0,v0,a1
    35cc:	03e00008 	jr	ra
    35d0:	38420001 	xori	v0,v0,0x1
    35d4:	8f840024 	lw	a0,36(gp)
    35d8:	3c078004 	lui	a3,0x8004
    35dc:	9486001a 	lhu	a2,26(a0)
    35e0:	8c850000 	lw	a1,0(a0)
    35e4:	94e20006 	lhu	v0,6(a3)
    35e8:	a4820016 	sh	v0,22(a0)
    35ec:	94e30006 	lhu	v1,6(a3)
    35f0:	00c31023 	subu	v0,a2,v1
    35f4:	3042ffff 	andi	v0,v0,0xffff
    35f8:	0045102b 	sltu	v0,v0,a1
    35fc:	38420001 	xori	v0,v0,0x1
    3600:	1440fff8 	bnez	v0,0x35e4
    3604:	a4830016 	sh	v1,22(a0)
    3608:	03e00008 	jr	ra
    360c:	00000000 	nop
    3610:	8f840024 	lw	a0,36(gp)
    3614:	3c028004 	lui	v0,0x8004
    3618:	94420006 	lhu	v0,6(v0)
    361c:	9483001a 	lhu	v1,26(a0)
    3620:	8c850000 	lw	a1,0(a0)
    3624:	a4820016 	sh	v0,22(a0)
    3628:	00621023 	subu	v0,v1,v0
    362c:	3042ffff 	andi	v0,v0,0xffff
    3630:	0045102b 	sltu	v0,v0,a1
    3634:	38420001 	xori	v0,v0,0x1
    3638:	5040000d 	beqzl	v0,0x3670
    363c:	8f850024 	lw	a1,36(gp)
    3640:	00603021 	move	a2,v1
    3644:	3c078004 	lui	a3,0x8004
    3648:	94e20006 	lhu	v0,6(a3)
    364c:	a4820016 	sh	v0,22(a0)
    3650:	94e30006 	lhu	v1,6(a3)
    3654:	00c31023 	subu	v0,a2,v1
    3658:	3042ffff 	andi	v0,v0,0xffff
    365c:	0045102b 	sltu	v0,v0,a1
    3660:	38420001 	xori	v0,v0,0x1
    3664:	1440fff8 	bnez	v0,0x3648
    3668:	a4830016 	sh	v1,22(a0)
    366c:	8f850024 	lw	a1,36(gp)
    3670:	3c038000 	lui	v1,0x8000
    3674:	34620400 	ori	v0,v1,0x400
    3678:	8ca40020 	lw	a0,32(a1)
    367c:	af820020 	sw	v0,32(gp)
    3680:	ac640038 	sw	a0,56(v1)
    3684:	8ca20024 	lw	v0,36(a1)
    3688:	ac62003c 	sw	v0,60(v1)
    368c:	3c020005 	lui	v0,0x5
    3690:	ac620030 	sw	v0,48(v1)
    3694:	03e00008 	jr	ra
    3698:	aca00004 	sw	zero,4(a1)
    369c:	8f840024 	lw	a0,36(gp)
    36a0:	3c030006 	lui	v1,0x6
    36a4:	8c820004 	lw	v0,4(a0)
    36a8:	00021140 	sll	v0,v0,0x5
    36ac:	00431025 	or	v0,v0,v1
    36b0:	3c038000 	lui	v1,0x8000
    36b4:	ac620030 	sw	v0,48(v1)
	...
    36c4:	8c620000 	lw	v0,0(v1)
    36c8:	30420010 	andi	v0,v0,0x10
    36cc:	1040fffd 	beqz	v0,0x36c4
    36d0:	34620400 	ori	v0,v1,0x400
    36d4:	ac800004 	sw	zero,4(a0)
    36d8:	03e00008 	jr	ra
    36dc:	af820020 	sw	v0,32(gp)
    36e0:	8f860024 	lw	a2,36(gp)
    36e4:	27bdffe0 	addiu	sp,sp,-32
    36e8:	afb10014 	sw	s1,20(sp)
    36ec:	afb00010 	sw	s0,16(sp)
    36f0:	afbf0018 	sw	ra,24(sp)
    36f4:	8cc30004 	lw	v1,4(a2)
    36f8:	8cc50024 	lw	a1,36(a2)
    36fc:	8f820020 	lw	v0,32(gp)
    3700:	309000ff 	andi	s0,a0,0xff
    3704:	94c4001a 	lhu	a0,26(a2)
    3708:	24630001 	addiu	v1,v1,1
    370c:	24420020 	addiu	v0,v0,32
    3710:	24840001 	addiu	a0,a0,1
    3714:	24a70020 	addiu	a3,a1,32
    3718:	acc30004 	sw	v1,4(a2)
    371c:	af820020 	sw	v0,32(gp)
    3720:	a4c4001a 	sh	a0,26(a2)
    3724:	acc70024 	sw	a3,36(a2)
    3728:	04a10006 	bgez	a1,0x3744
    372c:	00008821 	move	s1,zero
    3730:	04e20005 	bltzl	a3,0x3748
    3734:	94c2001a 	lhu	v0,26(a2)
    3738:	8cc20020 	lw	v0,32(a2)
    373c:	24420001 	addiu	v0,v0,1
    3740:	acc20020 	sw	v0,32(a2)
    3744:	94c2001a 	lhu	v0,26(a2)
    3748:	94c30028 	lhu	v1,40(a2)
    374c:	2e040001 	sltiu	a0,s0,1
    3750:	00431026 	xor	v0,v0,v1
    3754:	2c420001 	sltiu	v0,v0,1
    3758:	00441024 	and	v0,v0,a0
    375c:	50400005 	beqzl	v0,0x3774
    3760:	94c2001a 	lhu	v0,26(a2)
    3764:	24020001 	li	v0,1
    3768:	acc20008 	sw	v0,8(a2)
    376c:	94c2001a 	lhu	v0,26(a2)
    3770:	94c30028 	lhu	v1,40(a2)
    3774:	0010202b 	sltu	a0,zero,s0
    3778:	00431026 	xor	v0,v0,v1
    377c:	2c420001 	sltiu	v0,v0,1
    3780:	00441025 	or	v0,v0,a0
    3784:	14400007 	bnez	v0,0x37a4
    3788:	00000000 	nop
    378c:	8cc20008 	lw	v0,8(a2)
    3790:	14400004 	bnez	v0,0x37a4
    3794:	24020010 	li	v0,16
    3798:	8cc30004 	lw	v1,4(a2)
    379c:	1462000f 	bne	v1,v0,0x37dc
    37a0:	8f850024 	lw	a1,36(gp)
    37a4:	0e000d75 	jal	0x80035d4
    37a8:	24110001 	li	s1,1
    37ac:	8f820024 	lw	v0,36(gp)
    37b0:	94430028 	lhu	v1,40(v0)
    37b4:	9442001a 	lhu	v0,26(v0)
    37b8:	14430003 	bne	v0,v1,0x37c8
    37bc:	00000000 	nop
    37c0:	0e000ce1 	jal	0x8003384
    37c4:	00000000 	nop
    37c8:	16000004 	bnez	s0,0x37dc
    37cc:	8f850024 	lw	a1,36(gp)
    37d0:	0e000d52 	jal	0x8003548
    37d4:	00000000 	nop
    37d8:	8f850024 	lw	a1,36(gp)
    37dc:	94a2001e 	lhu	v0,30(a1)
    37e0:	94a4001c 	lhu	a0,28(a1)
    37e4:	24420001 	addiu	v0,v0,1
    37e8:	3043ffff 	andi	v1,v0,0xffff
    37ec:	14640002 	bne	v1,a0,0x37f8
    37f0:	a4a2001e 	sh	v0,30(a1)
    37f4:	a4a0001e 	sh	zero,30(a1)
    37f8:	1200000a 	beqz	s0,0x3824
    37fc:	3c028004 	lui	v0,0x8004
    3800:	94a20014 	lhu	v0,20(a1)
    3804:	94a3001a 	lhu	v1,26(a1)
    3808:	3042000f 	andi	v0,v0,0xf
    380c:	00021500 	sll	v0,v0,0x14
    3810:	00621825 	or	v1,v1,v0
    3814:	3c028000 	lui	v0,0x8000
    3818:	ac4300a0 	sw	v1,160(v0)
    381c:	0a000dec 	j	0x80037b0
    3820:	aca00008 	sw	zero,8(a1)
    3824:	94420006 	lhu	v0,6(v0)
    3828:	94a3001a 	lhu	v1,26(a1)
    382c:	8ca40000 	lw	a0,0(a1)
    3830:	a4a20016 	sh	v0,22(a1)
    3834:	00621023 	subu	v0,v1,v0
    3838:	3042ffff 	andi	v0,v0,0xffff
    383c:	0044102b 	sltu	v0,v0,a0
    3840:	38420001 	xori	v0,v0,0x1
    3844:	1040000d 	beqz	v0,0x387c
    3848:	02201021 	move	v0,s1
    384c:	00603021 	move	a2,v1
    3850:	3c078004 	lui	a3,0x8004
    3854:	94e20006 	lhu	v0,6(a3)
    3858:	a4a20016 	sh	v0,22(a1)
    385c:	94e30006 	lhu	v1,6(a3)
    3860:	00c31023 	subu	v0,a2,v1
    3864:	3042ffff 	andi	v0,v0,0xffff
    3868:	0044102b 	sltu	v0,v0,a0
    386c:	38420001 	xori	v0,v0,0x1
    3870:	1440fff8 	bnez	v0,0x3854
    3874:	a4a30016 	sh	v1,22(a1)
    3878:	02201021 	move	v0,s1
    387c:	8fbf0018 	lw	ra,24(sp)
    3880:	8fb10014 	lw	s1,20(sp)
    3884:	8fb00010 	lw	s0,16(sp)
    3888:	03e00008 	jr	ra
    388c:	27bd0020 	addiu	sp,sp,32
    3890:	03e00008 	jr	ra
    3894:	00000000 	nop
    3898:	8f82002c 	lw	v0,44(gp)
    389c:	3c030006 	lui	v1,0x6
    38a0:	00021140 	sll	v0,v0,0x5
    38a4:	00431025 	or	v0,v0,v1
    38a8:	3c038000 	lui	v1,0x8000
    38ac:	ac620030 	sw	v0,48(v1)
	...
    38bc:	8c620000 	lw	v0,0(v1)
    38c0:	30420010 	andi	v0,v0,0x10
    38c4:	1040fffd 	beqz	v0,0x38bc
    38c8:	34620400 	ori	v0,v1,0x400
    38cc:	af820028 	sw	v0,40(gp)
    38d0:	03e00008 	jr	ra
    38d4:	af80002c 	sw	zero,44(gp)
    38d8:	03e00008 	jr	ra
    38dc:	00001021 	move	v0,zero
    38e0:	03e00008 	jr	ra
    38e4:	00000000 	nop
    38e8:	3084ffff 	andi	a0,a0,0xffff
    38ec:	30a5ffff 	andi	a1,a1,0xffff
    38f0:	00001821 	move	v1,zero
    38f4:	10800007 	beqz	a0,0x3914
    38f8:	00000000 	nop
    38fc:	30820001 	andi	v0,a0,0x1
    3900:	10400002 	beqz	v0,0x390c
    3904:	00042042 	srl	a0,a0,0x1
    3908:	00651821 	addu	v1,v1,a1
    390c:	0a000e0b 	j	0x800382c
    3910:	00052840 	sll	a1,a1,0x1
    3914:	03e00008 	jr	ra
    3918:	00601021 	move	v0,v1
    391c:	10c00006 	beqz	a2,0x3938
    3920:	24c6ffff 	addiu	a2,a2,-1
    3924:	8ca20000 	lw	v0,0(a1)
    3928:	24a50004 	addiu	a1,a1,4
    392c:	ac820000 	sw	v0,0(a0)
    3930:	0a000e15 	j	0x8003854
    3934:	24840004 	addiu	a0,a0,4
    3938:	03e00008 	jr	ra
    393c:	00000000 	nop
    3940:	10a00008 	beqz	a1,0x3964
    3944:	24a3ffff 	addiu	v1,a1,-1
    3948:	ac860000 	sw	a2,0(a0)
	...
    3954:	2402ffff 	li	v0,-1
    3958:	2463ffff 	addiu	v1,v1,-1
    395c:	1462fffa 	bne	v1,v0,0x3948
    3960:	24840004 	addiu	a0,a0,4
    3964:	03e00008 	jr	ra
    3968:	00000000 	nop
    396c:	3c028008 	lui	v0,0x8008
    3970:	34420080 	ori	v0,v0,0x80
    3974:	24030001 	li	v1,1
    3978:	ac43000c 	sw	v1,12(v0)
    397c:	a4430010 	sh	v1,16(v0)
    3980:	a4430012 	sh	v1,18(v0)
    3984:	a4430014 	sh	v1,20(v0)
    3988:	03e00008 	jr	ra
    398c:	a4430016 	sh	v1,22(v0)
    3990:	8f820024 	lw	v0,36(gp)
    3994:	27bdffd8 	addiu	sp,sp,-40
    3998:	afb3001c 	sw	s3,28(sp)
    399c:	afb20018 	sw	s2,24(sp)
    39a0:	afb10014 	sw	s1,20(sp)
    39a4:	afb00010 	sw	s0,16(sp)
    39a8:	afbf0020 	sw	ra,32(sp)
    39ac:	8c47000c 	lw	a3,12(v0)
    39b0:	24820080 	addiu	v0,a0,128
    39b4:	2409ff80 	li	t1,-128
    39b8:	3c08800e 	lui	t0,0x800e
    39bc:	3043007f 	andi	v1,v0,0x7f
    39c0:	00808021 	move	s0,a0
    39c4:	3c0a8000 	lui	t2,0x8000
    39c8:	00492024 	and	a0,v0,t1
    39cc:	00681821 	addu	v1,v1,t0
    39d0:	30b100ff 	andi	s1,a1,0xff
    39d4:	30d200ff 	andi	s2,a2,0xff
    39d8:	10e00029 	beqz	a3,0x3a80
    39dc:	00009821 	move	s3,zero
    39e0:	26020100 	addiu	v0,s0,256
    39e4:	ad44002c 	sw	a0,44(t2)
    39e8:	00492824 	and	a1,v0,t1
    39ec:	3042007f 	andi	v0,v0,0x7f
    39f0:	00482021 	addu	a0,v0,t0
    39f4:	90620000 	lbu	v0,0(v1)
    39f8:	24030050 	li	v1,80
    39fc:	304200ff 	andi	v0,v0,0xff
    3a00:	14430004 	bne	v0,v1,0x3a14
    3a04:	00000000 	nop
    3a08:	ad45002c 	sw	a1,44(t2)
    3a0c:	948200da 	lhu	v0,218(a0)
    3a10:	3053ffff 	andi	s3,v0,0xffff
    3a14:	0e000d52 	jal	0x8003548
    3a18:	00000000 	nop
    3a1c:	8f820024 	lw	v0,36(gp)
    3a20:	8f830020 	lw	v1,32(gp)
    3a24:	00112c00 	sll	a1,s1,0x10
    3a28:	9442001e 	lhu	v0,30(v0)
    3a2c:	00122400 	sll	a0,s2,0x10
    3a30:	34840001 	ori	a0,a0,0x1
    3a34:	00a22825 	or	a1,a1,v0
    3a38:	3c024000 	lui	v0,0x4000
    3a3c:	00a22825 	or	a1,a1,v0
    3a40:	ac700000 	sw	s0,0(v1)
    3a44:	8fbf0020 	lw	ra,32(sp)
    3a48:	ac600004 	sw	zero,4(v1)
    3a4c:	8fb20018 	lw	s2,24(sp)
    3a50:	ac730008 	sw	s3,8(v1)
    3a54:	8fb10014 	lw	s1,20(sp)
    3a58:	ac60000c 	sw	zero,12(v1)
    3a5c:	8fb3001c 	lw	s3,28(sp)
    3a60:	ac640010 	sw	a0,16(v1)
    3a64:	8fb00010 	lw	s0,16(sp)
    3a68:	ac600014 	sw	zero,20(v1)
    3a6c:	24040001 	li	a0,1
    3a70:	ac600018 	sw	zero,24(v1)
    3a74:	27bd0028 	addiu	sp,sp,40
    3a78:	0a000d86 	j	0x8003618
    3a7c:	ac65001c 	sw	a1,28(v1)
    3a80:	8fbf0020 	lw	ra,32(sp)
    3a84:	8fb3001c 	lw	s3,28(sp)
    3a88:	8fb20018 	lw	s2,24(sp)
    3a8c:	8fb10014 	lw	s1,20(sp)
    3a90:	8fb00010 	lw	s0,16(sp)
    3a94:	03e00008 	jr	ra
    3a98:	27bd0028 	addiu	sp,sp,40
    3a9c:	3c068000 	lui	a2,0x8000
    3aa0:	34c20100 	ori	v0,a2,0x100
    3aa4:	9043000f 	lbu	v1,15(v0)
    3aa8:	24020010 	li	v0,16
    3aac:	1062000e 	beq	v1,v0,0x3ae8
    3ab0:	28650011 	slti	a1,v1,17
    3ab4:	10a00007 	beqz	a1,0x3ad4
    3ab8:	24020012 	li	v0,18
    3abc:	24020008 	li	v0,8
    3ac0:	2405003a 	li	a1,58
    3ac4:	10620006 	beq	v1,v0,0x3ae0
    3ac8:	00003021 	move	a2,zero
    3acc:	03e00008 	jr	ra
    3ad0:	00000000 	nop
    3ad4:	24050035 	li	a1,53
    3ad8:	1462fffc 	bne	v1,v0,0x3acc
    3adc:	00003021 	move	a2,zero
    3ae0:	0a000e32 	j	0x80038c8
    3ae4:	00000000 	nop
    3ae8:	8cc20074 	lw	v0,116(a2)
    3aec:	8f83ff9c 	lw	v1,-100(gp)
    3af0:	24420fa0 	addiu	v0,v0,4000
    3af4:	03e00008 	jr	ra
    3af8:	ac62000c 	sw	v0,12(v1)
    3afc:	27bdffe8 	addiu	sp,sp,-24
    3b00:	afbf0010 	sw	ra,16(sp)
    3b04:	0e000362 	jal	0x8000d88
    3b08:	24050001 	li	a1,1
    3b0c:	3c048008 	lui	a0,0x8008
    3b10:	8fbf0010 	lw	ra,16(sp)
    3b14:	24020001 	li	v0,1
    3b18:	34830080 	ori	v1,a0,0x80
    3b1c:	a4620012 	sh	v0,18(v1)
    3b20:	27bd0018 	addiu	sp,sp,24
    3b24:	24020001 	li	v0,1
    3b28:	03e00008 	jr	ra
    3b2c:	a080001a 	sb	zero,26(a0)
    3b30:	27bdffe0 	addiu	sp,sp,-32
    3b34:	afb20018 	sw	s2,24(sp)
    3b38:	afb10014 	sw	s1,20(sp)
    3b3c:	afb00010 	sw	s0,16(sp)
    3b40:	afbf001c 	sw	ra,28(sp)
    3b44:	30b2ffff 	andi	s2,a1,0xffff
    3b48:	0e000352 	jal	0x8000d48
    3b4c:	00808821 	move	s1,a0
    3b50:	3c028008 	lui	v0,0x8008
    3b54:	34500080 	ori	s0,v0,0x80
    3b58:	92020009 	lbu	v0,9(s0)
    3b5c:	24030004 	li	v1,4
    3b60:	304200ff 	andi	v0,v0,0xff
    3b64:	1443000c 	bne	v0,v1,0x3b98
    3b68:	3c028008 	lui	v0,0x8008
    3b6c:	12400008 	beqz	s2,0x3b90
    3b70:	2402000a 	li	v0,10
    3b74:	0e000e29 	jal	0x80038a4
    3b78:	00000000 	nop
    3b7c:	92020005 	lbu	v0,5(s0)
    3b80:	2403fffe 	li	v1,-2
    3b84:	00431024 	and	v0,v0,v1
    3b88:	a2020005 	sb	v0,5(s0)
    3b8c:	24020012 	li	v0,18
    3b90:	a2020009 	sb	v0,9(s0)
    3b94:	3c028008 	lui	v0,0x8008
    3b98:	34420080 	ori	v0,v0,0x80
    3b9c:	02202021 	move	a0,s1
    3ba0:	0e00035d 	jal	0x8000d74
    3ba4:	a0400027 	sb	zero,39(v0)
    3ba8:	16400003 	bnez	s2,0x3bb8
    3bac:	02202021 	move	a0,s1
    3bb0:	0e000e8d 	jal	0x8003a34
    3bb4:	00000000 	nop
    3bb8:	02202021 	move	a0,s1
    3bbc:	324600ff 	andi	a2,s2,0xff
    3bc0:	8fbf001c 	lw	ra,28(sp)
    3bc4:	8fb20018 	lw	s2,24(sp)
    3bc8:	8fb10014 	lw	s1,20(sp)
    3bcc:	8fb00010 	lw	s0,16(sp)
    3bd0:	24050038 	li	a1,56
    3bd4:	0a000e32 	j	0x80038c8
    3bd8:	27bd0020 	addiu	sp,sp,32
    3bdc:	27bdffe0 	addiu	sp,sp,-32
    3be0:	afbf001c 	sw	ra,28(sp)
    3be4:	afb20018 	sw	s2,24(sp)
    3be8:	afb10014 	sw	s1,20(sp)
    3bec:	afb00010 	sw	s0,16(sp)
    3bf0:	0e000352 	jal	0x8000d48
    3bf4:	00808021 	move	s0,a0
    3bf8:	0e000e29 	jal	0x80038a4
    3bfc:	00000000 	nop
    3c00:	3c028008 	lui	v0,0x8008
    3c04:	34450080 	ori	a1,v0,0x80
    3c08:	90a20009 	lbu	v0,9(a1)
    3c0c:	24120018 	li	s2,24
    3c10:	305100ff 	andi	s1,v0,0xff
    3c14:	12320003 	beq	s1,s2,0x3c24
    3c18:	02002021 	move	a0,s0
    3c1c:	24020012 	li	v0,18
    3c20:	a0a20009 	sb	v0,9(a1)
    3c24:	90a20005 	lbu	v0,5(a1)
    3c28:	2403fffe 	li	v1,-2
    3c2c:	00431024 	and	v0,v0,v1
    3c30:	0e00035d 	jal	0x8000d74
    3c34:	a0a20005 	sb	v0,5(a1)
    3c38:	02002021 	move	a0,s0
    3c3c:	24050020 	li	a1,32
    3c40:	16320007 	bne	s1,s2,0x3c60
    3c44:	00003021 	move	a2,zero
    3c48:	8fbf001c 	lw	ra,28(sp)
    3c4c:	8fb20018 	lw	s2,24(sp)
    3c50:	8fb10014 	lw	s1,20(sp)
    3c54:	8fb00010 	lw	s0,16(sp)
    3c58:	0a000362 	j	0x8000d88
    3c5c:	27bd0020 	addiu	sp,sp,32
    3c60:	8fbf001c 	lw	ra,28(sp)
    3c64:	8fb20018 	lw	s2,24(sp)
    3c68:	8fb10014 	lw	s1,20(sp)
    3c6c:	8fb00010 	lw	s0,16(sp)
    3c70:	24050039 	li	a1,57
    3c74:	0a000e32 	j	0x80038c8
    3c78:	27bd0020 	addiu	sp,sp,32
    3c7c:	27bdffe8 	addiu	sp,sp,-24
    3c80:	3c028000 	lui	v0,0x8000
    3c84:	afb00010 	sw	s0,16(sp)
    3c88:	afbf0014 	sw	ra,20(sp)
    3c8c:	34420100 	ori	v0,v0,0x100
    3c90:	9442000c 	lhu	v0,12(v0)
    3c94:	24050036 	li	a1,54
    3c98:	00808021 	move	s0,a0
    3c9c:	14400012 	bnez	v0,0x3ce8
    3ca0:	304600ff 	andi	a2,v0,0xff
    3ca4:	0e000352 	jal	0x8000d48
    3ca8:	00000000 	nop
    3cac:	3c028008 	lui	v0,0x8008
    3cb0:	34420080 	ori	v0,v0,0x80
    3cb4:	24030012 	li	v1,18
    3cb8:	a0430009 	sb	v1,9(v0)
    3cbc:	90430005 	lbu	v1,5(v0)
    3cc0:	34630010 	ori	v1,v1,0x10
    3cc4:	0e000e29 	jal	0x80038a4
    3cc8:	a0430005 	sb	v1,5(v0)
    3ccc:	0e00035d 	jal	0x8000d74
    3cd0:	02002021 	move	a0,s0
    3cd4:	02002021 	move	a0,s0
    3cd8:	0e000362 	jal	0x8000d88
    3cdc:	24050020 	li	a1,32
    3ce0:	0a000f0a 	j	0x8003c28
    3ce4:	00000000 	nop
    3ce8:	0e000e32 	jal	0x80038c8
    3cec:	00000000 	nop
    3cf0:	0e000352 	jal	0x8000d48
    3cf4:	02002021 	move	a0,s0
    3cf8:	3c028008 	lui	v0,0x8008
    3cfc:	9043001b 	lbu	v1,27(v0)
    3d00:	2405ff9f 	li	a1,-97
    3d04:	02002021 	move	a0,s0
    3d08:	00651824 	and	v1,v1,a1
    3d0c:	8fbf0014 	lw	ra,20(sp)
    3d10:	8fb00010 	lw	s0,16(sp)
    3d14:	a043001b 	sb	v1,27(v0)
    3d18:	0a00035d 	j	0x8000d74
    3d1c:	27bd0018 	addiu	sp,sp,24
    3d20:	27bdffe0 	addiu	sp,sp,-32
    3d24:	afbf0018 	sw	ra,24(sp)
    3d28:	afb10014 	sw	s1,20(sp)
    3d2c:	afb00010 	sw	s0,16(sp)
    3d30:	30b100ff 	andi	s1,a1,0xff
    3d34:	0e000352 	jal	0x8000d48
    3d38:	00808021 	move	s0,a0
    3d3c:	3c028008 	lui	v0,0x8008
    3d40:	24030012 	li	v1,18
    3d44:	34420080 	ori	v0,v0,0x80
    3d48:	0e000e29 	jal	0x80038a4
    3d4c:	a0430009 	sb	v1,9(v0)
    3d50:	0e00035d 	jal	0x8000d74
    3d54:	02002021 	move	a0,s0
    3d58:	02002021 	move	a0,s0
    3d5c:	02203021 	move	a2,s1
    3d60:	8fbf0018 	lw	ra,24(sp)
    3d64:	8fb10014 	lw	s1,20(sp)
    3d68:	8fb00010 	lw	s0,16(sp)
    3d6c:	24050035 	li	a1,53
    3d70:	0a000e32 	j	0x80038c8
    3d74:	27bd0020 	addiu	sp,sp,32
    3d78:	3c048008 	lui	a0,0x8008
    3d7c:	9083000e 	lbu	v1,14(a0)
    3d80:	9082000a 	lbu	v0,10(a0)
    3d84:	1443000b 	bne	v0,v1,0x3db4
    3d88:	00002821 	move	a1,zero
    3d8c:	8f82ff9c 	lw	v0,-100(gp)
    3d90:	24030050 	li	v1,80
    3d94:	24050001 	li	a1,1
    3d98:	90420000 	lbu	v0,0(v0)
    3d9c:	304200ff 	andi	v0,v0,0xff
    3da0:	14430004 	bne	v0,v1,0x3db4
    3da4:	00000000 	nop
    3da8:	9082000e 	lbu	v0,14(a0)
    3dac:	24420001 	addiu	v0,v0,1
    3db0:	a082000e 	sb	v0,14(a0)
    3db4:	03e00008 	jr	ra
    3db8:	00a01021 	move	v0,a1
    3dbc:	3c038000 	lui	v1,0x8000
    3dc0:	8c6201f8 	lw	v0,504(v1)
    3dc4:	0440fffe 	bltz	v0,0x3dc0
    3dc8:	24020002 	li	v0,2
    3dcc:	ac6401c0 	sw	a0,448(v1)
    3dd0:	a06201c4 	sb	v0,452(v1)
    3dd4:	3c021000 	lui	v0,0x1000
    3dd8:	03e00008 	jr	ra
    3ddc:	ac6201f8 	sw	v0,504(v1)
    3de0:	27bdffe0 	addiu	sp,sp,-32
    3de4:	afb20018 	sw	s2,24(sp)
    3de8:	3c128008 	lui	s2,0x8008
    3dec:	afb10014 	sw	s1,20(sp)
    3df0:	afbf001c 	sw	ra,28(sp)
    3df4:	afb00010 	sw	s0,16(sp)
    3df8:	36510080 	ori	s1,s2,0x80
    3dfc:	92220009 	lbu	v0,9(s1)
    3e00:	2403000a 	li	v1,10
    3e04:	304200ff 	andi	v0,v0,0xff
    3e08:	1443003e 	bne	v0,v1,0x3f04
    3e0c:	00000000 	nop
    3e10:	8e430004 	lw	v1,4(s2)
    3e14:	8e220038 	lw	v0,56(s1)
    3e18:	50620080 	beql	v1,v0,0x401c
    3e1c:	8fbf001c 	lw	ra,28(sp)
    3e20:	92220000 	lbu	v0,0(s1)
    3e24:	24030050 	li	v1,80
    3e28:	304200ff 	andi	v0,v0,0xff
    3e2c:	14430025 	bne	v0,v1,0x3ec4
    3e30:	3c028000 	lui	v0,0x8000
    3e34:	8c420140 	lw	v0,320(v0)
    3e38:	8e430004 	lw	v1,4(s2)
    3e3c:	36420100 	ori	v0,s2,0x100
    3e40:	02202821 	move	a1,s1
    3e44:	ac43001c 	sw	v1,28(v0)
    3e48:	9622005c 	lhu	v0,92(s1)
    3e4c:	8e230038 	lw	v1,56(s1)
    3e50:	3042ffff 	andi	v0,v0,0xffff
    3e54:	00021040 	sll	v0,v0,0x1
    3e58:	00621821 	addu	v1,v1,v0
    3e5c:	ae23001c 	sw	v1,28(s1)
    3e60:	8e430004 	lw	v1,4(s2)
    3e64:	8e240038 	lw	a0,56(s1)
    3e68:	9622005c 	lhu	v0,92(s1)
    3e6c:	00641823 	subu	v1,v1,a0
    3e70:	3042ffff 	andi	v0,v0,0xffff
    3e74:	00031843 	sra	v1,v1,0x1
    3e78:	00021040 	sll	v0,v0,0x1
    3e7c:	0043102a 	slt	v0,v0,v1
    3e80:	10400006 	beqz	v0,0x3e9c
    3e84:	00000000 	nop
    3e88:	8e420004 	lw	v0,4(s2)
    3e8c:	8e230038 	lw	v1,56(s1)
    3e90:	00431023 	subu	v0,v0,v1
    3e94:	0a000f78 	j	0x8003de0
    3e98:	00022043 	sra	a0,v0,0x1
    3e9c:	9622005c 	lhu	v0,92(s1)
    3ea0:	3042ffff 	andi	v0,v0,0xffff
    3ea4:	00022040 	sll	a0,v0,0x1
    3ea8:	3c028008 	lui	v0,0x8008
    3eac:	34430100 	ori	v1,v0,0x100
    3eb0:	34420080 	ori	v0,v0,0x80
    3eb4:	aca4002c 	sw	a0,44(a1)
    3eb8:	a0400024 	sb	zero,36(v0)
    3ebc:	24020001 	li	v0,1
    3ec0:	a062000c 	sb	v0,12(v1)
    3ec4:	0e000f2c 	jal	0x8003cb0
    3ec8:	00000000 	nop
    3ecc:	10400053 	beqz	v0,0x401c
    3ed0:	8fbf001c 	lw	ra,28(sp)
    3ed4:	3c028000 	lui	v0,0x8000
    3ed8:	8c440140 	lw	a0,320(v0)
    3edc:	3c038000 	lui	v1,0x8000
    3ee0:	8c6201f8 	lw	v0,504(v1)
    3ee4:	0440fffe 	bltz	v0,0x3ee0
    3ee8:	24020002 	li	v0,2
    3eec:	ac6401c0 	sw	a0,448(v1)
    3ef0:	a06201c4 	sb	v0,452(v1)
    3ef4:	3c021000 	lui	v0,0x1000
    3ef8:	ac6201f8 	sw	v0,504(v1)
    3efc:	0a000fd5 	j	0x8003f54
    3f00:	8fbf001c 	lw	ra,28(sp)
    3f04:	92220009 	lbu	v0,9(s1)
    3f08:	24030010 	li	v1,16
    3f0c:	304200ff 	andi	v0,v0,0xff
    3f10:	14430004 	bne	v0,v1,0x3f24
    3f14:	3c028000 	lui	v0,0x8000
    3f18:	8c440140 	lw	a0,320(v0)
    3f1c:	0a000fbc 	j	0x8003ef0
    3f20:	00002821 	move	a1,zero
    3f24:	92220009 	lbu	v0,9(s1)
    3f28:	24030016 	li	v1,22
    3f2c:	304200ff 	andi	v0,v0,0xff
    3f30:	14430006 	bne	v0,v1,0x3f4c
    3f34:	24020014 	li	v0,20
    3f38:	a2220009 	sb	v0,9(s1)
    3f3c:	3c028000 	lui	v0,0x8000
    3f40:	8c440140 	lw	a0,320(v0)
    3f44:	0a000fcf 	j	0x8003f3c
    3f48:	8fbf001c 	lw	ra,28(sp)
    3f4c:	8e220038 	lw	v0,56(s1)
    3f50:	8e23003c 	lw	v1,60(s1)
    3f54:	00431023 	subu	v0,v0,v1
    3f58:	04410030 	bgez	v0,0x401c
    3f5c:	8fbf001c 	lw	ra,28(sp)
    3f60:	92220027 	lbu	v0,39(s1)
    3f64:	24420001 	addiu	v0,v0,1
    3f68:	a2220027 	sb	v0,39(s1)
    3f6c:	92220027 	lbu	v0,39(s1)
    3f70:	2c420004 	sltiu	v0,v0,4
    3f74:	14400016 	bnez	v0,0x3fd0
    3f78:	3c108000 	lui	s0,0x8000
    3f7c:	92220009 	lbu	v0,9(s1)
    3f80:	24030004 	li	v1,4
    3f84:	304200ff 	andi	v0,v0,0xff
    3f88:	14430009 	bne	v0,v1,0x3fb0
    3f8c:	3c028000 	lui	v0,0x8000
    3f90:	8c440140 	lw	a0,320(v0)
    3f94:	8fbf001c 	lw	ra,28(sp)
    3f98:	8fb20018 	lw	s2,24(sp)
    3f9c:	8fb10014 	lw	s1,20(sp)
    3fa0:	8fb00010 	lw	s0,16(sp)
    3fa4:	24050093 	li	a1,147
    3fa8:	0a000e9a 	j	0x8003a68
    3fac:	27bd0020 	addiu	sp,sp,32
    3fb0:	8c440140 	lw	a0,320(v0)
    3fb4:	24050093 	li	a1,147
    3fb8:	8fbf001c 	lw	ra,28(sp)
    3fbc:	8fb20018 	lw	s2,24(sp)
    3fc0:	8fb10014 	lw	s1,20(sp)
    3fc4:	8fb00010 	lw	s0,16(sp)
    3fc8:	0a000f16 	j	0x8003c58
    3fcc:	27bd0020 	addiu	sp,sp,32
    3fd0:	8e040140 	lw	a0,320(s0)
    3fd4:	0e000352 	jal	0x8000d48
    3fd8:	00000000 	nop
    3fdc:	8e420004 	lw	v0,4(s2)
    3fe0:	2442ffff 	addiu	v0,v0,-1
    3fe4:	ae420004 	sw	v0,4(s2)
    3fe8:	8e22003c 	lw	v0,60(s1)
    3fec:	2442ffff 	addiu	v0,v0,-1
    3ff0:	ae22003c 	sw	v0,60(s1)
    3ff4:	0e00035d 	jal	0x8000d74
    3ff8:	8e040140 	lw	a0,320(s0)
    3ffc:	8e040140 	lw	a0,320(s0)
    4000:	8fbf001c 	lw	ra,28(sp)
    4004:	8fb20018 	lw	s2,24(sp)
    4008:	8fb10014 	lw	s1,20(sp)
    400c:	8fb00010 	lw	s0,16(sp)
    4010:	24050004 	li	a1,4
    4014:	0a000362 	j	0x8000d88
    4018:	27bd0020 	addiu	sp,sp,32
    401c:	8fb20018 	lw	s2,24(sp)
    4020:	8fb10014 	lw	s1,20(sp)
    4024:	8fb00010 	lw	s0,16(sp)
    4028:	03e00008 	jr	ra
    402c:	27bd0020 	addiu	sp,sp,32
    4030:	3c068000 	lui	a2,0x8000
    4034:	8cc20188 	lw	v0,392(a2)
    4038:	3c038008 	lui	v1,0x8008
    403c:	34650080 	ori	a1,v1,0x80
    4040:	9063000e 	lbu	v1,14(v1)
    4044:	00021402 	srl	v0,v0,0x10
    4048:	304400ff 	andi	a0,v0,0xff
    404c:	306300ff 	andi	v1,v1,0xff
    4050:	1464000e 	bne	v1,a0,0x408c
    4054:	3c028008 	lui	v0,0x8008
    4058:	90a20026 	lbu	v0,38(a1)
    405c:	304200ff 	andi	v0,v0,0xff
    4060:	10440009 	beq	v0,a0,0x4088
    4064:	8f82ff9c 	lw	v0,-100(gp)
    4068:	a0a40026 	sb	a0,38(a1)
    406c:	24030050 	li	v1,80
    4070:	90420000 	lbu	v0,0(v0)
    4074:	304200ff 	andi	v0,v0,0xff
    4078:	14430006 	bne	v0,v1,0x4094
    407c:	00000000 	nop
    4080:	0a00059a 	j	0x8001668
    4084:	8cc40180 	lw	a0,384(a2)
    4088:	3c028008 	lui	v0,0x8008
    408c:	34420080 	ori	v0,v0,0x80
    4090:	a0440026 	sb	a0,38(v0)
    4094:	03e00008 	jr	ra
    4098:	00000000 	nop
    409c:	27bdffe0 	addiu	sp,sp,-32
    40a0:	30e700ff 	andi	a3,a3,0xff
    40a4:	afb20018 	sw	s2,24(sp)
    40a8:	afbf001c 	sw	ra,28(sp)
    40ac:	afb10014 	sw	s1,20(sp)
    40b0:	afb00010 	sw	s0,16(sp)
    40b4:	00809021 	move	s2,a0
    40b8:	14e00006 	bnez	a3,0x40d4
    40bc:	30c600ff 	andi	a2,a2,0xff
    40c0:	00000000 	nop
    40c4:	0000000d 	break
    40c8:	00000000 	nop
    40cc:	0a00102e 	j	0x80040b8
    40d0:	2400010e 	li	zero,270
    40d4:	3c038008 	lui	v1,0x8008
    40d8:	9062000e 	lbu	v0,14(v1)
    40dc:	304200ff 	andi	v0,v0,0xff
    40e0:	14460023 	bne	v0,a2,0x4170
    40e4:	34620080 	ori	v0,v1,0x80
    40e8:	90420026 	lbu	v0,38(v0)
    40ec:	304200ff 	andi	v0,v0,0xff
    40f0:	1446001f 	bne	v0,a2,0x4170
    40f4:	00000000 	nop
    40f8:	9062000f 	lbu	v0,15(v1)
    40fc:	304200ff 	andi	v0,v0,0xff
    4100:	1446001b 	bne	v0,a2,0x4170
    4104:	00000000 	nop
    4108:	9062000a 	lbu	v0,10(v1)
    410c:	304200ff 	andi	v0,v0,0xff
    4110:	14460003 	bne	v0,a2,0x4120
    4114:	8f90ff9c 	lw	s0,-100(gp)
    4118:	0000000d 	break
    411c:	8f90ff9c 	lw	s0,-100(gp)
    4120:	8f82ffa0 	lw	v0,-96(gp)
    4124:	3c118000 	lui	s1,0x8000
    4128:	ae05003c 	sw	a1,60(s0)
    412c:	ac450000 	sw	a1,0(v0)
    4130:	a066000a 	sb	a2,10(v1)
    4134:	0e000352 	jal	0x8000d48
    4138:	8e240100 	lw	a0,256(s1)
    413c:	a2000024 	sb	zero,36(s0)
    4140:	0e00035d 	jal	0x8000d74
    4144:	8e240100 	lw	a0,256(s1)
    4148:	3c038000 	lui	v1,0x8000
    414c:	8c6201f8 	lw	v0,504(v1)
    4150:	0440fffe 	bltz	v0,0x414c
    4154:	24020002 	li	v0,2
    4158:	ac7201c0 	sw	s2,448(v1)
    415c:	a06201c4 	sb	v0,452(v1)
    4160:	3c021000 	lui	v0,0x1000
    4164:	ac6201f8 	sw	v0,504(v1)
    4168:	0a00102f 	j	0x80040bc
    416c:	8fbf001c 	lw	ra,28(sp)
    4170:	00000000 	nop
    4174:	0000000d 	break
    4178:	00000000 	nop
    417c:	24000137 	li	zero,311
    4180:	8fbf001c 	lw	ra,28(sp)
    4184:	8fb20018 	lw	s2,24(sp)
    4188:	8fb10014 	lw	s1,20(sp)
    418c:	8fb00010 	lw	s0,16(sp)
    4190:	03e00008 	jr	ra
    4194:	27bd0020 	addiu	sp,sp,32
    4198:	8f83ff9c 	lw	v1,-100(gp)
    419c:	3c028000 	lui	v0,0x8000
    41a0:	8c440100 	lw	a0,256(v0)
    41a4:	34420100 	ori	v0,v0,0x100
    41a8:	8c65003c 	lw	a1,60(v1)
    41ac:	9046001b 	lbu	a2,27(v0)
    41b0:	0a000ff5 	j	0x8003fd4
    41b4:	24070001 	li	a3,1
    41b8:	3c028008 	lui	v0,0x8008
    41bc:	9043000e 	lbu	v1,14(v0)
    41c0:	9042000a 	lbu	v0,10(v0)
    41c4:	00431026 	xor	v0,v0,v1
    41c8:	304200ff 	andi	v0,v0,0xff
    41cc:	03e00008 	jr	ra
    41d0:	0002102b 	sltu	v0,zero,v0
    41d4:	27bdffe0 	addiu	sp,sp,-32
    41d8:	3c028008 	lui	v0,0x8008
    41dc:	afb10014 	sw	s1,20(sp)
    41e0:	afb00010 	sw	s0,16(sp)
    41e4:	afbf0018 	sw	ra,24(sp)
    41e8:	34500080 	ori	s0,v0,0x80
    41ec:	92020005 	lbu	v0,5(s0)
    41f0:	24030030 	li	v1,48
    41f4:	30420030 	andi	v0,v0,0x30
    41f8:	14430085 	bne	v0,v1,0x4410
    41fc:	00808821 	move	s1,a0
    4200:	8f820024 	lw	v0,36(gp)
    4204:	8c42000c 	lw	v0,12(v0)
    4208:	10400082 	beqz	v0,0x4414
    420c:	8fbf0018 	lw	ra,24(sp)
    4210:	0e000d52 	jal	0x8003548
    4214:	00000000 	nop
    4218:	8f860020 	lw	a2,32(gp)
    421c:	acd10000 	sw	s1,0(a2)
    4220:	92020008 	lbu	v0,8(s0)
    4224:	92030009 	lbu	v1,9(s0)
    4228:	304200ff 	andi	v0,v0,0xff
    422c:	00021200 	sll	v0,v0,0x8
    4230:	306300ff 	andi	v1,v1,0xff
    4234:	00431025 	or	v0,v0,v1
    4238:	acc20004 	sw	v0,4(a2)
    423c:	9202004d 	lbu	v0,77(s0)
    4240:	00021600 	sll	v0,v0,0x18
    4244:	00021603 	sra	v0,v0,0x18
    4248:	04410005 	bgez	v0,0x4260
    424c:	00000000 	nop
    4250:	3c030800 	lui	v1,0x800
    4254:	8c630048 	lw	v1,72(v1)
    4258:	0a00106d 	j	0x80041b4
    425c:	3c108008 	lui	s0,0x8008
    4260:	92020008 	lbu	v0,8(s0)
    4264:	30420040 	andi	v0,v0,0x40
    4268:	14400003 	bnez	v0,0x4278
    426c:	00001821 	move	v1,zero
    4270:	92020027 	lbu	v0,39(s0)
    4274:	304300ff 	andi	v1,v0,0xff
    4278:	3c108008 	lui	s0,0x8008
    427c:	36110080 	ori	s1,s0,0x80
    4280:	9222004d 	lbu	v0,77(s1)
    4284:	00031e00 	sll	v1,v1,0x18
    4288:	304200ff 	andi	v0,v0,0xff
    428c:	00021400 	sll	v0,v0,0x10
    4290:	00621825 	or	v1,v1,v0
    4294:	acc30008 	sw	v1,8(a2)
    4298:	8e240030 	lw	a0,48(s1)
    429c:	8f820024 	lw	v0,36(gp)
    42a0:	acc4000c 	sw	a0,12(a2)
    42a4:	8e250034 	lw	a1,52(s1)
    42a8:	9443001e 	lhu	v1,30(v0)
    42ac:	3c02c00b 	lui	v0,0xc00b
    42b0:	acc50010 	sw	a1,16(a2)
    42b4:	00621825 	or	v1,v1,v0
    42b8:	8e220038 	lw	v0,56(s1)
    42bc:	00002021 	move	a0,zero
    42c0:	acc20014 	sw	v0,20(a2)
    42c4:	8e22003c 	lw	v0,60(s1)
    42c8:	acc20018 	sw	v0,24(a2)
    42cc:	0e000d86 	jal	0x8003618
    42d0:	acc3001c 	sw	v1,28(a2)
    42d4:	8e020004 	lw	v0,4(s0)
    42d8:	8f840020 	lw	a0,32(gp)
    42dc:	3c058000 	lui	a1,0x8000
    42e0:	ac820000 	sw	v0,0(a0)
    42e4:	8e220020 	lw	v0,32(s1)
    42e8:	ac820004 	sw	v0,4(a0)
    42ec:	8e22001c 	lw	v0,28(s1)
    42f0:	ac820008 	sw	v0,8(a0)
    42f4:	8e220058 	lw	v0,88(s1)
    42f8:	8ca30074 	lw	v1,116(a1)
    42fc:	00431021 	addu	v0,v0,v1
    4300:	ac82000c 	sw	v0,12(a0)
    4304:	8e22002c 	lw	v0,44(s1)
    4308:	ac820010 	sw	v0,16(a0)
    430c:	8e220040 	lw	v0,64(s1)
    4310:	8e230044 	lw	v1,68(s1)
    4314:	00021400 	sll	v0,v0,0x10
    4318:	00431025 	or	v0,v0,v1
    431c:	ac820014 	sw	v0,20(a0)
    4320:	9222004d 	lbu	v0,77(s1)
    4324:	24030080 	li	v1,128
    4328:	304200ff 	andi	v0,v0,0xff
    432c:	14430004 	bne	v0,v1,0x4340
    4330:	00000000 	nop
    4334:	ac800018 	sw	zero,24(a0)
    4338:	0a0010b1 	j	0x80042c4
    433c:	8f820024 	lw	v0,36(gp)
    4340:	8e23000c 	lw	v1,12(s1)
    4344:	24020001 	li	v0,1
    4348:	1062000e 	beq	v1,v0,0x4384
    434c:	2402ffff 	li	v0,-1
    4350:	92220008 	lbu	v0,8(s1)
    4354:	30420040 	andi	v0,v0,0x40
    4358:	1440000a 	bnez	v0,0x4384
    435c:	2402ffff 	li	v0,-1
    4360:	8e23000c 	lw	v1,12(s1)
    4364:	8ca20074 	lw	v0,116(a1)
    4368:	00621823 	subu	v1,v1,v0
    436c:	3c020800 	lui	v0,0x800
    4370:	00621024 	and	v0,v1,v0
    4374:	14400002 	bnez	v0,0x4380
    4378:	00002821 	move	a1,zero
    437c:	00602821 	move	a1,v1
    4380:	00051043 	sra	v0,a1,0x1
    4384:	ac820018 	sw	v0,24(a0)
    4388:	8f820024 	lw	v0,36(gp)
    438c:	00002021 	move	a0,zero
    4390:	9443001e 	lhu	v1,30(v0)
    4394:	3c02c00c 	lui	v0,0xc00c
    4398:	00621825 	or	v1,v1,v0
    439c:	8f820020 	lw	v0,32(gp)
    43a0:	0e000d86 	jal	0x8003618
    43a4:	ac43001c 	sw	v1,28(v0)
    43a8:	3c038008 	lui	v1,0x8008
    43ac:	34620100 	ori	v0,v1,0x100
    43b0:	8c420000 	lw	v0,0(v0)
    43b4:	8f850020 	lw	a1,32(gp)
    43b8:	34630080 	ori	v1,v1,0x80
    43bc:	8fbf0018 	lw	ra,24(sp)
    43c0:	aca20000 	sw	v0,0(a1)
    43c4:	aca00004 	sw	zero,4(a1)
    43c8:	8c640048 	lw	a0,72(v1)
    43cc:	8f820024 	lw	v0,36(gp)
    43d0:	8fb10014 	lw	s1,20(sp)
    43d4:	aca40008 	sw	a0,8(a1)
    43d8:	aca0000c 	sw	zero,12(a1)
    43dc:	aca00010 	sw	zero,16(a1)
    43e0:	90630005 	lbu	v1,5(v1)
    43e4:	9446001e 	lhu	a2,30(v0)
    43e8:	3c02400d 	lui	v0,0x400d
    43ec:	00031e00 	sll	v1,v1,0x18
    43f0:	00c23025 	or	a2,a2,v0
    43f4:	aca30014 	sw	v1,20(a1)
    43f8:	8fb00010 	lw	s0,16(sp)
    43fc:	aca00018 	sw	zero,24(a1)
    4400:	24040001 	li	a0,1
    4404:	aca6001c 	sw	a2,28(a1)
    4408:	0a000d86 	j	0x8003618
    440c:	27bd0020 	addiu	sp,sp,32
    4410:	8fbf0018 	lw	ra,24(sp)
    4414:	8fb10014 	lw	s1,20(sp)
    4418:	8fb00010 	lw	s0,16(sp)
    441c:	03e00008 	jr	ra
    4420:	27bd0020 	addiu	sp,sp,32
    4424:	3c028000 	lui	v0,0x8000
    4428:	9443007c 	lhu	v1,124(v0)
    442c:	3c028008 	lui	v0,0x8008
    4430:	34460100 	ori	a2,v0,0x100
    4434:	308400ff 	andi	a0,a0,0xff
    4438:	3065ffff 	andi	a1,v1,0xffff
    443c:	24020005 	li	v0,5
    4440:	24a34650 	addiu	v1,a1,18000
    4444:	a0c4000c 	sb	a0,12(a2)
    4448:	5482000c 	bnel	a0,v0,0x447c
    444c:	3065ffff 	andi	a1,v1,0xffff
    4450:	90c2000d 	lbu	v0,13(a2)
    4454:	2c420007 	sltiu	v0,v0,7
    4458:	10400007 	beqz	v0,0x4478
    445c:	24a30a00 	addiu	v1,a1,2560
    4460:	90c3000d 	lbu	v1,13(a2)
    4464:	24020014 	li	v0,20
    4468:	00621004 	sllv	v0,v0,v1
    446c:	00a21021 	addu	v0,a1,v0
    4470:	0a0010ed 	j	0x80043b4
    4474:	3045ffff 	andi	a1,v0,0xffff
    4478:	3065ffff 	andi	a1,v1,0xffff
    447c:	3c028008 	lui	v0,0x8008
    4480:	34420080 	ori	v0,v0,0x80
    4484:	03e00008 	jr	ra
    4488:	a4450014 	sh	a1,20(v0)
    448c:	3c038008 	lui	v1,0x8008
    4490:	34680080 	ori	t0,v1,0x80
    4494:	ad050038 	sw	a1,56(t0)
    4498:	34670100 	ori	a3,v1,0x100
    449c:	8ce2001c 	lw	v0,28(a3)
    44a0:	308400ff 	andi	a0,a0,0xff
    44a4:	00a21023 	subu	v0,a1,v0
    44a8:	18400003 	blez	v0,0x44b8
    44ac:	30c600ff 	andi	a2,a2,0xff
    44b0:	24a2fffc 	addiu	v0,a1,-4
    44b4:	ace2001c 	sw	v0,28(a3)
    44b8:	30820001 	andi	v0,a0,0x1
    44bc:	50400008 	beqzl	v0,0x44e0
    44c0:	3c038008 	lui	v1,0x8008
    44c4:	8d02003c 	lw	v0,60(t0)
    44c8:	00a21023 	subu	v0,a1,v0
    44cc:	04410012 	bgez	v0,0x4518
    44d0:	24040005 	li	a0,5
    44d4:	8c620004 	lw	v0,4(v1)
    44d8:	10a2000f 	beq	a1,v0,0x4518
    44dc:	3c038008 	lui	v1,0x8008
    44e0:	8c620004 	lw	v0,4(v1)
    44e4:	14a2001e 	bne	a1,v0,0x4560
    44e8:	00000000 	nop
    44ec:	3c020800 	lui	v0,0x800
    44f0:	8c4200d8 	lw	v0,216(v0)
    44f4:	30420020 	andi	v0,v0,0x20
    44f8:	10400009 	beqz	v0,0x4520
    44fc:	3c028008 	lui	v0,0x8008
    4500:	34620080 	ori	v0,v1,0x80
    4504:	90630008 	lbu	v1,8(v1)
    4508:	9042004c 	lbu	v0,76(v0)
    450c:	14430004 	bne	v0,v1,0x4520
    4510:	3c028008 	lui	v0,0x8008
    4514:	24040004 	li	a0,4
    4518:	0a0010d7 	j	0x800435c
    451c:	00000000 	nop
    4520:	34430080 	ori	v1,v0,0x80
    4524:	34420100 	ori	v0,v0,0x100
    4528:	a040000c 	sb	zero,12(v0)
    452c:	24020001 	li	v0,1
    4530:	a4620014 	sh	v0,20(v1)
    4534:	10c0000a 	beqz	a2,0x4560
    4538:	3c028000 	lui	v0,0x8000
    453c:	8c440100 	lw	a0,256(v0)
    4540:	3c038000 	lui	v1,0x8000
    4544:	8c6201f8 	lw	v0,504(v1)
    4548:	0440fffe 	bltz	v0,0x4544
    454c:	24020002 	li	v0,2
    4550:	ac6401c0 	sw	a0,448(v1)
    4554:	a06201c4 	sb	v0,452(v1)
    4558:	3c021000 	lui	v0,0x1000
    455c:	ac6201f8 	sw	v0,504(v1)
    4560:	03e00008 	jr	ra
    4564:	00000000 	nop
    4568:	27bdffe8 	addiu	sp,sp,-24
    456c:	00a61823 	subu	v1,a1,a2
    4570:	afbf0010 	sw	ra,16(sp)
    4574:	18600080 	blez	v1,0x4778
    4578:	308800ff 	andi	t0,a0,0xff
    457c:	3c028008 	lui	v0,0x8008
    4580:	34470080 	ori	a3,v0,0x80
    4584:	a0e00024 	sb	zero,36(a3)
    4588:	34440100 	ori	a0,v0,0x100
    458c:	a0e00027 	sb	zero,39(a3)
    4590:	8c82001c 	lw	v0,28(a0)
    4594:	00a21023 	subu	v0,a1,v0
    4598:	04400056 	bltz	v0,0x46f4
    459c:	00000000 	nop
    45a0:	8ce2003c 	lw	v0,60(a3)
    45a4:	94e3005c 	lhu	v1,92(a3)
    45a8:	8ce4002c 	lw	a0,44(a3)
    45ac:	00453023 	subu	a2,v0,a1
    45b0:	3063ffff 	andi	v1,v1,0xffff
    45b4:	00c31821 	addu	v1,a2,v1
    45b8:	0083202b 	sltu	a0,a0,v1
    45bc:	10800004 	beqz	a0,0x45d0
    45c0:	00e01821 	move	v1,a3
    45c4:	8ce2002c 	lw	v0,44(a3)
    45c8:	0a001146 	j	0x8004518
    45cc:	00a21021 	addu	v0,a1,v0
    45d0:	94e2005c 	lhu	v0,92(a3)
    45d4:	3042ffff 	andi	v0,v0,0xffff
    45d8:	00c21021 	addu	v0,a2,v0
    45dc:	00a21021 	addu	v0,a1,v0
    45e0:	ac62001c 	sw	v0,28(v1)
    45e4:	3c028008 	lui	v0,0x8008
    45e8:	34440080 	ori	a0,v0,0x80
    45ec:	9482005c 	lhu	v0,92(a0)
    45f0:	8c83001c 	lw	v1,28(a0)
    45f4:	3042ffff 	andi	v0,v0,0xffff
    45f8:	00021040 	sll	v0,v0,0x1
    45fc:	00a21021 	addu	v0,a1,v0
    4600:	0043102b 	sltu	v0,v0,v1
    4604:	10400004 	beqz	v0,0x4618
    4608:	00000000 	nop
    460c:	8c82001c 	lw	v0,28(a0)
    4610:	0a001159 	j	0x8004564
    4614:	3c068008 	lui	a2,0x8008
    4618:	9482005c 	lhu	v0,92(a0)
    461c:	3042ffff 	andi	v0,v0,0xffff
    4620:	00021040 	sll	v0,v0,0x1
    4624:	00a21021 	addu	v0,a1,v0
    4628:	3c068008 	lui	a2,0x8008
    462c:	34c30100 	ori	v1,a2,0x100
    4630:	34c70080 	ori	a3,a2,0x80
    4634:	ac82001c 	sw	v0,28(a0)
    4638:	a060000c 	sb	zero,12(v1)
    463c:	ace50038 	sw	a1,56(a3)
    4640:	8c62001c 	lw	v0,28(v1)
    4644:	00a21023 	subu	v0,a1,v0
    4648:	18400002 	blez	v0,0x4654
    464c:	24a2fffc 	addiu	v0,a1,-4
    4650:	ac62001c 	sw	v0,28(v1)
    4654:	31020001 	andi	v0,t0,0x1
    4658:	10400008 	beqz	v0,0x467c
    465c:	3c038008 	lui	v1,0x8008
    4660:	8ce2003c 	lw	v0,60(a3)
    4664:	00a21023 	subu	v0,a1,v0
    4668:	04410012 	bgez	v0,0x46b4
    466c:	24040005 	li	a0,5
    4670:	8cc20004 	lw	v0,4(a2)
    4674:	10a20010 	beq	a1,v0,0x46b8
    4678:	8fbf0010 	lw	ra,16(sp)
    467c:	8c620004 	lw	v0,4(v1)
    4680:	14a2004f 	bne	a1,v0,0x47c0
    4684:	8fbf0010 	lw	ra,16(sp)
    4688:	3c020800 	lui	v0,0x800
    468c:	8c4200d8 	lw	v0,216(v0)
    4690:	30420020 	andi	v0,v0,0x20
    4694:	1040000a 	beqz	v0,0x46c0
    4698:	3c028008 	lui	v0,0x8008
    469c:	34620080 	ori	v0,v1,0x80
    46a0:	90630008 	lbu	v1,8(v1)
    46a4:	9042004c 	lbu	v0,76(v0)
    46a8:	14430005 	bne	v0,v1,0x46c0
    46ac:	3c028008 	lui	v0,0x8008
    46b0:	24040004 	li	a0,4
    46b4:	8fbf0010 	lw	ra,16(sp)
    46b8:	0a0010d7 	j	0x800435c
    46bc:	27bd0018 	addiu	sp,sp,24
    46c0:	34430080 	ori	v1,v0,0x80
    46c4:	34420100 	ori	v0,v0,0x100
    46c8:	a040000c 	sb	zero,12(v0)
    46cc:	24020001 	li	v0,1
    46d0:	a4620014 	sh	v0,20(v1)
    46d4:	3c028000 	lui	v0,0x8000
    46d8:	8c440100 	lw	a0,256(v0)
    46dc:	3c038000 	lui	v1,0x8000
    46e0:	8c6201f8 	lw	v0,504(v1)
    46e4:	0440fffe 	bltz	v0,0x46e0
    46e8:	24020002 	li	v0,2
    46ec:	0a0011a6 	j	0x8004698
    46f0:	00000000 	nop
    46f4:	8ce2001c 	lw	v0,28(a3)
    46f8:	00461023 	subu	v0,v0,a2
    46fc:	0043102b 	sltu	v0,v0,v1
    4700:	54400001 	bnezl	v0,0x4708
    4704:	ace5001c 	sw	a1,28(a3)
    4708:	94e2005c 	lhu	v0,92(a3)
    470c:	3042ffff 	andi	v0,v0,0xffff
    4710:	0062102b 	sltu	v0,v1,v0
    4714:	14400007 	bnez	v0,0x4734
    4718:	24020002 	li	v0,2
    471c:	94e2005c 	lhu	v0,92(a3)
    4720:	8ce3001c 	lw	v1,28(a3)
    4724:	3042ffff 	andi	v0,v0,0xffff
    4728:	00621821 	addu	v1,v1,v0
    472c:	ace3001c 	sw	v1,28(a3)
    4730:	24020002 	li	v0,2
    4734:	ace50038 	sw	a1,56(a3)
    4738:	0e000f2c 	jal	0x8003cb0
    473c:	a082000c 	sb	v0,12(a0)
    4740:	1040001f 	beqz	v0,0x47c0
    4744:	8fbf0010 	lw	ra,16(sp)
    4748:	3c028000 	lui	v0,0x8000
    474c:	8c440100 	lw	a0,256(v0)
    4750:	3c038000 	lui	v1,0x8000
    4754:	8c6201f8 	lw	v0,504(v1)
    4758:	0440fffe 	bltz	v0,0x4754
    475c:	24020002 	li	v0,2
    4760:	ac6401c0 	sw	a0,448(v1)
    4764:	a06201c4 	sb	v0,452(v1)
    4768:	3c021000 	lui	v0,0x1000
    476c:	ac6201f8 	sw	v0,504(v1)
    4770:	0a0011be 	j	0x80046f8
    4774:	8fbf0010 	lw	ra,16(sp)
    4778:	31020010 	andi	v0,t0,0x10
    477c:	10400010 	beqz	v0,0x47c0
    4780:	8fbf0010 	lw	ra,16(sp)
    4784:	3c028008 	lui	v0,0x8008
    4788:	34450080 	ori	a1,v0,0x80
    478c:	8ca3001c 	lw	v1,28(a1)
    4790:	94a2005c 	lhu	v0,92(a1)
    4794:	00661823 	subu	v1,v1,a2
    4798:	3042ffff 	andi	v0,v0,0xffff
    479c:	00621821 	addu	v1,v1,v0
    47a0:	3c023fff 	lui	v0,0x3fff
    47a4:	3444ffff 	ori	a0,v0,0xffff
    47a8:	0083102b 	sltu	v0,a0,v1
    47ac:	54400001 	bnezl	v0,0x47b4
    47b0:	00801821 	move	v1,a0
    47b4:	00c31021 	addu	v0,a2,v1
    47b8:	aca2001c 	sw	v0,28(a1)
    47bc:	8fbf0010 	lw	ra,16(sp)
    47c0:	03e00008 	jr	ra
    47c4:	27bd0018 	addiu	sp,sp,24
    47c8:	27bdffe8 	addiu	sp,sp,-24
    47cc:	00c04021 	move	t0,a2
    47d0:	00a63023 	subu	a2,a1,a2
    47d4:	afbf0010 	sw	ra,16(sp)
    47d8:	18c00026 	blez	a2,0x4874
    47dc:	308a00ff 	andi	t2,a0,0xff
    47e0:	3c028008 	lui	v0,0x8008
    47e4:	34490080 	ori	t1,v0,0x80
    47e8:	8d24001c 	lw	a0,28(t1)
    47ec:	8d23002c 	lw	v1,44(t1)
    47f0:	00882023 	subu	a0,a0,t0
    47f4:	0064182b 	sltu	v1,v1,a0
    47f8:	1060000f 	beqz	v1,0x4838
    47fc:	34470100 	ori	a3,v0,0x100
    4800:	8ce20020 	lw	v0,32(a3)
    4804:	00461021 	addu	v0,v0,a2
    4808:	ace20020 	sw	v0,32(a3)
    480c:	8ce20020 	lw	v0,32(a3)
    4810:	0044102b 	sltu	v0,v0,a0
    4814:	1440000b 	bnez	v0,0x4844
    4818:	3c023fff 	lui	v0,0x3fff
    481c:	8ce20020 	lw	v0,32(a3)
    4820:	00441023 	subu	v0,v0,a0
    4824:	ace20020 	sw	v0,32(a3)
    4828:	9522005c 	lhu	v0,92(t1)
    482c:	3042ffff 	andi	v0,v0,0xffff
    4830:	0a0011de 	j	0x8004778
    4834:	00822021 	addu	a0,a0,v0
    4838:	ace00020 	sw	zero,32(a3)
    483c:	00862021 	addu	a0,a0,a2
    4840:	3c023fff 	lui	v0,0x3fff
    4844:	3443ffff 	ori	v1,v0,0xffff
    4848:	0064102b 	sltu	v0,v1,a0
    484c:	54400001 	bnezl	v0,0x4854
    4850:	00602021 	move	a0,v1
    4854:	3c028008 	lui	v0,0x8008
    4858:	34420080 	ori	v0,v0,0x80
    485c:	00851821 	addu	v1,a0,a1
    4860:	ac43001c 	sw	v1,28(v0)
    4864:	a0400024 	sb	zero,36(v0)
    4868:	a0400027 	sb	zero,39(v0)
    486c:	0a001230 	j	0x80048c0
    4870:	3c038008 	lui	v1,0x8008
    4874:	31420010 	andi	v0,t2,0x10
    4878:	10400043 	beqz	v0,0x4988
    487c:	3c038008 	lui	v1,0x8008
    4880:	3c068008 	lui	a2,0x8008
    4884:	34c40080 	ori	a0,a2,0x80
    4888:	8c82003c 	lw	v0,60(a0)
    488c:	00481023 	subu	v0,v0,t0
    4890:	5840003e 	blezl	v0,0x498c
    4894:	34660080 	ori	a2,v1,0x80
    4898:	90820024 	lbu	v0,36(a0)
    489c:	24420001 	addiu	v0,v0,1
    48a0:	a0820024 	sb	v0,36(a0)
    48a4:	90820024 	lbu	v0,36(a0)
    48a8:	3c030800 	lui	v1,0x800
    48ac:	8c630024 	lw	v1,36(v1)
    48b0:	304200ff 	andi	v0,v0,0xff
    48b4:	0043102b 	sltu	v0,v0,v1
    48b8:	14400068 	bnez	v0,0x4a5c
    48bc:	8fbf0010 	lw	ra,16(sp)
    48c0:	34c20100 	ori	v0,a2,0x100
    48c4:	8c42001c 	lw	v0,28(v0)
    48c8:	00a21023 	subu	v0,a1,v0
    48cc:	18400063 	blez	v0,0x4a5c
    48d0:	00000000 	nop
    48d4:	8cc30004 	lw	v1,4(a2)
    48d8:	9482005c 	lhu	v0,92(a0)
    48dc:	00681823 	subu	v1,v1,t0
    48e0:	3042ffff 	andi	v0,v0,0xffff
    48e4:	00031843 	sra	v1,v1,0x1
    48e8:	00021040 	sll	v0,v0,0x1
    48ec:	0043102a 	slt	v0,v0,v1
    48f0:	10400005 	beqz	v0,0x4908
    48f4:	00000000 	nop
    48f8:	8cc20004 	lw	v0,4(a2)
    48fc:	00481023 	subu	v0,v0,t0
    4900:	0a001213 	j	0x800484c
    4904:	00021043 	sra	v0,v0,0x1
    4908:	9482005c 	lhu	v0,92(a0)
    490c:	3042ffff 	andi	v0,v0,0xffff
    4910:	00021040 	sll	v0,v0,0x1
    4914:	3c068008 	lui	a2,0x8008
    4918:	ac82002c 	sw	v0,44(a0)
    491c:	34c50080 	ori	a1,a2,0x80
    4920:	94a2005c 	lhu	v0,92(a1)
    4924:	8ca4002c 	lw	a0,44(a1)
    4928:	94a3005c 	lhu	v1,92(a1)
    492c:	3042ffff 	andi	v0,v0,0xffff
    4930:	00021040 	sll	v0,v0,0x1
    4934:	00822021 	addu	a0,a0,v0
    4938:	3063ffff 	andi	v1,v1,0xffff
    493c:	00832021 	addu	a0,a0,v1
    4940:	01041021 	addu	v0,t0,a0
    4944:	aca2001c 	sw	v0,28(a1)
    4948:	8cc20004 	lw	v0,4(a2)
    494c:	34c60100 	ori	a2,a2,0x100
    4950:	acc2001c 	sw	v0,28(a2)
    4954:	24020002 	li	v0,2
    4958:	0e000f2c 	jal	0x8003cb0
    495c:	a0c2000c 	sb	v0,12(a2)
    4960:	1040003e 	beqz	v0,0x4a5c
    4964:	8fbf0010 	lw	ra,16(sp)
    4968:	3c028000 	lui	v0,0x8000
    496c:	8c440100 	lw	a0,256(v0)
    4970:	3c038000 	lui	v1,0x8000
    4974:	8c6201f8 	lw	v0,504(v1)
    4978:	0440fffe 	bltz	v0,0x4974
    497c:	24020002 	li	v0,2
    4980:	0a001260 	j	0x8004980
    4984:	00000000 	nop
    4988:	34660080 	ori	a2,v1,0x80
    498c:	acc50038 	sw	a1,56(a2)
    4990:	34640100 	ori	a0,v1,0x100
    4994:	8c82001c 	lw	v0,28(a0)
    4998:	00a21023 	subu	v0,a1,v0
    499c:	18400002 	blez	v0,0x49a8
    49a0:	24a2fffc 	addiu	v0,a1,-4
    49a4:	ac82001c 	sw	v0,28(a0)
    49a8:	31420001 	andi	v0,t2,0x1
    49ac:	5040000a 	beqzl	v0,0x49d8
    49b0:	3c038008 	lui	v1,0x8008
    49b4:	8cc2003c 	lw	v0,60(a2)
    49b8:	00a21023 	subu	v0,a1,v0
    49bc:	04430014 	bgezl	v0,0x4a10
    49c0:	24040005 	li	a0,5
    49c4:	8c620004 	lw	v0,4(v1)
    49c8:	14a20003 	bne	a1,v0,0x49d8
    49cc:	3c038008 	lui	v1,0x8008
    49d0:	0a001252 	j	0x8004948
    49d4:	24040005 	li	a0,5
    49d8:	8c620004 	lw	v0,4(v1)
    49dc:	14a2001f 	bne	a1,v0,0x4a5c
    49e0:	8fbf0010 	lw	ra,16(sp)
    49e4:	3c020800 	lui	v0,0x800
    49e8:	8c4200d8 	lw	v0,216(v0)
    49ec:	30420020 	andi	v0,v0,0x20
    49f0:	1040000a 	beqz	v0,0x4a1c
    49f4:	3c028008 	lui	v0,0x8008
    49f8:	34620080 	ori	v0,v1,0x80
    49fc:	90630008 	lbu	v1,8(v1)
    4a00:	9042004c 	lbu	v0,76(v0)
    4a04:	14430005 	bne	v0,v1,0x4a1c
    4a08:	3c028008 	lui	v0,0x8008
    4a0c:	24040004 	li	a0,4
    4a10:	8fbf0010 	lw	ra,16(sp)
    4a14:	0a0010d7 	j	0x800435c
    4a18:	27bd0018 	addiu	sp,sp,24
    4a1c:	34430080 	ori	v1,v0,0x80
    4a20:	34420100 	ori	v0,v0,0x100
    4a24:	a040000c 	sb	zero,12(v0)
    4a28:	24020001 	li	v0,1
    4a2c:	a4620014 	sh	v0,20(v1)
    4a30:	3c028000 	lui	v0,0x8000
    4a34:	8c440100 	lw	a0,256(v0)
    4a38:	3c038000 	lui	v1,0x8000
    4a3c:	8c6201f8 	lw	v0,504(v1)
    4a40:	0440fffe 	bltz	v0,0x4a3c
    4a44:	24020002 	li	v0,2
    4a48:	ac6401c0 	sw	a0,448(v1)
    4a4c:	a06201c4 	sb	v0,452(v1)
    4a50:	3c021000 	lui	v0,0x1000
    4a54:	ac6201f8 	sw	v0,504(v1)
    4a58:	8fbf0010 	lw	ra,16(sp)
    4a5c:	03e00008 	jr	ra
    4a60:	27bd0018 	addiu	sp,sp,24
    4a64:	27bdffe8 	addiu	sp,sp,-24
    4a68:	3c0a8008 	lui	t2,0x8008
    4a6c:	afbf0010 	sw	ra,16(sp)
    4a70:	35490080 	ori	t1,t2,0x80
    4a74:	8d22003c 	lw	v0,60(t1)
    4a78:	00c04021 	move	t0,a2
    4a7c:	308400ff 	andi	a0,a0,0xff
    4a80:	00461023 	subu	v0,v0,a2
    4a84:	1840009d 	blez	v0,0x4cfc
    4a88:	30e700ff 	andi	a3,a3,0xff
    4a8c:	35470100 	ori	a3,t2,0x100
    4a90:	24020001 	li	v0,1
    4a94:	00a63023 	subu	a2,a1,a2
    4a98:	a0e0000c 	sb	zero,12(a3)
    4a9c:	a0e0000d 	sb	zero,13(a3)
    4aa0:	a5220014 	sh	v0,20(t1)
    4aa4:	18c00024 	blez	a2,0x4b38
    4aa8:	30820010 	andi	v0,a0,0x10
    4aac:	8d23001c 	lw	v1,28(t1)
    4ab0:	8d22002c 	lw	v0,44(t1)
    4ab4:	00681823 	subu	v1,v1,t0
    4ab8:	0043102b 	sltu	v0,v0,v1
    4abc:	1040000f 	beqz	v0,0x4afc
    4ac0:	00000000 	nop
    4ac4:	8ce20020 	lw	v0,32(a3)
    4ac8:	00461021 	addu	v0,v0,a2
    4acc:	ace20020 	sw	v0,32(a3)
    4ad0:	8ce20020 	lw	v0,32(a3)
    4ad4:	0043102b 	sltu	v0,v0,v1
    4ad8:	1440000b 	bnez	v0,0x4b08
    4adc:	3c023fff 	lui	v0,0x3fff
    4ae0:	8ce20020 	lw	v0,32(a3)
    4ae4:	00431023 	subu	v0,v0,v1
    4ae8:	ace20020 	sw	v0,32(a3)
    4aec:	9522005c 	lhu	v0,92(t1)
    4af0:	3042ffff 	andi	v0,v0,0xffff
    4af4:	0a00128f 	j	0x8004a3c
    4af8:	00621821 	addu	v1,v1,v0
    4afc:	ace00020 	sw	zero,32(a3)
    4b00:	00661821 	addu	v1,v1,a2
    4b04:	3c023fff 	lui	v0,0x3fff
    4b08:	3446ffff 	ori	a2,v0,0xffff
    4b0c:	00c3102b 	sltu	v0,a2,v1
    4b10:	54400001 	bnezl	v0,0x4b18
    4b14:	00c01821 	move	v1,a2
    4b18:	3c028008 	lui	v0,0x8008
    4b1c:	34420080 	ori	v0,v0,0x80
    4b20:	00651821 	addu	v1,v1,a1
    4b24:	ac43001c 	sw	v1,28(v0)
    4b28:	a0400024 	sb	zero,36(v0)
    4b2c:	a0400027 	sb	zero,39(v0)
    4b30:	0a0012dd 	j	0x8004b74
    4b34:	3c038008 	lui	v1,0x8008
    4b38:	10400040 	beqz	v0,0x4c3c
    4b3c:	3c038008 	lui	v1,0x8008
    4b40:	8d22003c 	lw	v0,60(t1)
    4b44:	00481023 	subu	v0,v0,t0
    4b48:	5840003d 	blezl	v0,0x4c40
    4b4c:	34670080 	ori	a3,v1,0x80
    4b50:	91220024 	lbu	v0,36(t1)
    4b54:	24420001 	addiu	v0,v0,1
    4b58:	a1220024 	sb	v0,36(t1)
    4b5c:	91220024 	lbu	v0,36(t1)
    4b60:	3c030800 	lui	v1,0x800
    4b64:	8c630024 	lw	v1,36(v1)
    4b68:	304200ff 	andi	v0,v0,0xff
    4b6c:	0043102b 	sltu	v0,v0,v1
    4b70:	1440009a 	bnez	v0,0x4ddc
    4b74:	8fbf0010 	lw	ra,16(sp)
    4b78:	8ce2001c 	lw	v0,28(a3)
    4b7c:	00a21023 	subu	v0,a1,v0
    4b80:	18400096 	blez	v0,0x4ddc
    4b84:	00000000 	nop
    4b88:	8d430004 	lw	v1,4(t2)
    4b8c:	9522005c 	lhu	v0,92(t1)
    4b90:	00681823 	subu	v1,v1,t0
    4b94:	3042ffff 	andi	v0,v0,0xffff
    4b98:	00031843 	sra	v1,v1,0x1
    4b9c:	00021040 	sll	v0,v0,0x1
    4ba0:	0043102a 	slt	v0,v0,v1
    4ba4:	10400005 	beqz	v0,0x4bbc
    4ba8:	01202021 	move	a0,t1
    4bac:	8d420004 	lw	v0,4(t2)
    4bb0:	00481023 	subu	v0,v0,t0
    4bb4:	0a0012c0 	j	0x8004b00
    4bb8:	00021043 	sra	v0,v0,0x1
    4bbc:	9522005c 	lhu	v0,92(t1)
    4bc0:	3042ffff 	andi	v0,v0,0xffff
    4bc4:	00021040 	sll	v0,v0,0x1
    4bc8:	3c068008 	lui	a2,0x8008
    4bcc:	ac82002c 	sw	v0,44(a0)
    4bd0:	34c50080 	ori	a1,a2,0x80
    4bd4:	94a2005c 	lhu	v0,92(a1)
    4bd8:	8ca4002c 	lw	a0,44(a1)
    4bdc:	94a3005c 	lhu	v1,92(a1)
    4be0:	3042ffff 	andi	v0,v0,0xffff
    4be4:	00021040 	sll	v0,v0,0x1
    4be8:	00822021 	addu	a0,a0,v0
    4bec:	3063ffff 	andi	v1,v1,0xffff
    4bf0:	00831821 	addu	v1,a0,v1
    4bf4:	01031021 	addu	v0,t0,v1
    4bf8:	aca2001c 	sw	v0,28(a1)
    4bfc:	8cc20004 	lw	v0,4(a2)
    4c00:	34c60100 	ori	a2,a2,0x100
    4c04:	acc2001c 	sw	v0,28(a2)
    4c08:	24020002 	li	v0,2
    4c0c:	0e000f2c 	jal	0x8003cb0
    4c10:	a0c2000c 	sb	v0,12(a2)
    4c14:	10400071 	beqz	v0,0x4ddc
    4c18:	8fbf0010 	lw	ra,16(sp)
    4c1c:	3c028000 	lui	v0,0x8000
    4c20:	8c440100 	lw	a0,256(v0)
    4c24:	3c038000 	lui	v1,0x8000
    4c28:	8c6201f8 	lw	v0,504(v1)
    4c2c:	0440fffe 	bltz	v0,0x4c28
    4c30:	24020002 	li	v0,2
    4c34:	0a001307 	j	0x8004c1c
    4c38:	00000000 	nop
    4c3c:	34670080 	ori	a3,v1,0x80
    4c40:	ace50038 	sw	a1,56(a3)
    4c44:	34660100 	ori	a2,v1,0x100
    4c48:	8cc2001c 	lw	v0,28(a2)
    4c4c:	00a21023 	subu	v0,a1,v0
    4c50:	18400002 	blez	v0,0x4c5c
    4c54:	24a2fffc 	addiu	v0,a1,-4
    4c58:	acc2001c 	sw	v0,28(a2)
    4c5c:	30820001 	andi	v0,a0,0x1
    4c60:	50400008 	beqzl	v0,0x4c84
    4c64:	3c038008 	lui	v1,0x8008
    4c68:	8ce2003c 	lw	v0,60(a3)
    4c6c:	00a21023 	subu	v0,a1,v0
    4c70:	04430051 	bgezl	v0,0x4db8
    4c74:	24040005 	li	a0,5
    4c78:	8c620004 	lw	v0,4(v1)
    4c7c:	10a2003e 	beq	a1,v0,0x4d78
    4c80:	3c038008 	lui	v1,0x8008
    4c84:	8c620004 	lw	v0,4(v1)
    4c88:	54a20054 	bnel	a1,v0,0x4ddc
    4c8c:	8fbf0010 	lw	ra,16(sp)
    4c90:	3c020800 	lui	v0,0x800
    4c94:	8c4200d8 	lw	v0,216(v0)
    4c98:	30420020 	andi	v0,v0,0x20
    4c9c:	10400006 	beqz	v0,0x4cb8
    4ca0:	3c028008 	lui	v0,0x8008
    4ca4:	34620080 	ori	v0,v1,0x80
    4ca8:	90630008 	lbu	v1,8(v1)
    4cac:	9042004c 	lbu	v0,76(v0)
    4cb0:	10430040 	beq	v0,v1,0x4db4
    4cb4:	3c028008 	lui	v0,0x8008
    4cb8:	34430080 	ori	v1,v0,0x80
    4cbc:	34420100 	ori	v0,v0,0x100
    4cc0:	a040000c 	sb	zero,12(v0)
    4cc4:	24020001 	li	v0,1
    4cc8:	a4620014 	sh	v0,20(v1)
    4ccc:	3c028000 	lui	v0,0x8000
    4cd0:	8c440100 	lw	a0,256(v0)
    4cd4:	3c038000 	lui	v1,0x8000
    4cd8:	8c6201f8 	lw	v0,504(v1)
    4cdc:	0440fffe 	bltz	v0,0x4cd8
    4ce0:	24020002 	li	v0,2
    4ce4:	ac6401c0 	sw	a0,448(v1)
    4ce8:	a06201c4 	sb	v0,452(v1)
    4cec:	3c021000 	lui	v0,0x1000
    4cf0:	ac6201f8 	sw	v0,504(v1)
    4cf4:	0a001345 	j	0x8004d14
    4cf8:	8fbf0010 	lw	ra,16(sp)
    4cfc:	24020005 	li	v0,5
    4d00:	a1200027 	sb	zero,39(t1)
    4d04:	14e2000a 	bne	a3,v0,0x4d30
    4d08:	3c038008 	lui	v1,0x8008
    4d0c:	35430100 	ori	v1,t2,0x100
    4d10:	9062000d 	lbu	v0,13(v1)
    4d14:	2c420006 	sltiu	v0,v0,6
    4d18:	50400005 	beqzl	v0,0x4d30
    4d1c:	3c038008 	lui	v1,0x8008
    4d20:	9062000d 	lbu	v0,13(v1)
    4d24:	24420001 	addiu	v0,v0,1
    4d28:	a062000d 	sb	v0,13(v1)
    4d2c:	3c038008 	lui	v1,0x8008
    4d30:	34670080 	ori	a3,v1,0x80
    4d34:	ace50038 	sw	a1,56(a3)
    4d38:	34660100 	ori	a2,v1,0x100
    4d3c:	8cc2001c 	lw	v0,28(a2)
    4d40:	00a21023 	subu	v0,a1,v0
    4d44:	18400002 	blez	v0,0x4d50
    4d48:	24a2fffc 	addiu	v0,a1,-4
    4d4c:	acc2001c 	sw	v0,28(a2)
    4d50:	30820001 	andi	v0,a0,0x1
    4d54:	5040000a 	beqzl	v0,0x4d80
    4d58:	3c038008 	lui	v1,0x8008
    4d5c:	8ce2003c 	lw	v0,60(a3)
    4d60:	00a21023 	subu	v0,a1,v0
    4d64:	04410014 	bgez	v0,0x4db8
    4d68:	24040005 	li	a0,5
    4d6c:	8c620004 	lw	v0,4(v1)
    4d70:	14a20003 	bne	a1,v0,0x4d80
    4d74:	3c038008 	lui	v1,0x8008
    4d78:	0a00133c 	j	0x8004cf0
    4d7c:	24040005 	li	a0,5
    4d80:	8c620004 	lw	v0,4(v1)
    4d84:	14a20015 	bne	a1,v0,0x4ddc
    4d88:	8fbf0010 	lw	ra,16(sp)
    4d8c:	3c020800 	lui	v0,0x800
    4d90:	8c4200d8 	lw	v0,216(v0)
    4d94:	30420020 	andi	v0,v0,0x20
    4d98:	1040000a 	beqz	v0,0x4dc4
    4d9c:	3c028008 	lui	v0,0x8008
    4da0:	34620080 	ori	v0,v1,0x80
    4da4:	90630008 	lbu	v1,8(v1)
    4da8:	9042004c 	lbu	v0,76(v0)
    4dac:	14430005 	bne	v0,v1,0x4dc4
    4db0:	3c028008 	lui	v0,0x8008
    4db4:	24040004 	li	a0,4
    4db8:	8fbf0010 	lw	ra,16(sp)
    4dbc:	0a0010d7 	j	0x800435c
    4dc0:	27bd0018 	addiu	sp,sp,24
    4dc4:	34430080 	ori	v1,v0,0x80
    4dc8:	34420100 	ori	v0,v0,0x100
    4dcc:	a040000c 	sb	zero,12(v0)
    4dd0:	24020001 	li	v0,1
    4dd4:	a4620014 	sh	v0,20(v1)
    4dd8:	8fbf0010 	lw	ra,16(sp)
    4ddc:	03e00008 	jr	ra
    4de0:	27bd0018 	addiu	sp,sp,24
    4de4:	3c0b8008 	lui	t3,0x8008
    4de8:	27bdffe8 	addiu	sp,sp,-24
    4dec:	3c028000 	lui	v0,0x8000
    4df0:	afbf0010 	sw	ra,16(sp)
    4df4:	34420100 	ori	v0,v0,0x100
    4df8:	356a0080 	ori	t2,t3,0x80
    4dfc:	9044000a 	lbu	a0,10(v0)
    4e00:	35690100 	ori	t1,t3,0x100
    4e04:	8c450014 	lw	a1,20(v0)
    4e08:	8d480038 	lw	t0,56(t2)
    4e0c:	9123000c 	lbu	v1,12(t1)
    4e10:	308400ff 	andi	a0,a0,0xff
    4e14:	01051023 	subu	v0,t0,a1
    4e18:	1c4000b3 	bgtz	v0,0x50e8
    4e1c:	306700ff 	andi	a3,v1,0xff
    4e20:	2ce20006 	sltiu	v0,a3,6
    4e24:	504000b1 	beqzl	v0,0x50ec
    4e28:	8fbf0010 	lw	ra,16(sp)
    4e2c:	24020001 	li	v0,1
    4e30:	00e23004 	sllv	a2,v0,a3
    4e34:	30c20003 	andi	v0,a2,0x3
    4e38:	54400008 	bnezl	v0,0x4e5c
    4e3c:	00a83023 	subu	a2,a1,t0
    4e40:	30c2000c 	andi	v0,a2,0xc
    4e44:	144000a1 	bnez	v0,0x50cc
    4e48:	30c20030 	andi	v0,a2,0x30
    4e4c:	144000a3 	bnez	v0,0x50dc
    4e50:	8fbf0010 	lw	ra,16(sp)
    4e54:	0a001409 	j	0x8005024
    4e58:	00000000 	nop
    4e5c:	18c00024 	blez	a2,0x4ef0
    4e60:	30820010 	andi	v0,a0,0x10
    4e64:	8d43001c 	lw	v1,28(t2)
    4e68:	8d42002c 	lw	v0,44(t2)
    4e6c:	00681823 	subu	v1,v1,t0
    4e70:	0043102b 	sltu	v0,v0,v1
    4e74:	1040000f 	beqz	v0,0x4eb4
    4e78:	00000000 	nop
    4e7c:	8d220020 	lw	v0,32(t1)
    4e80:	00461021 	addu	v0,v0,a2
    4e84:	ad220020 	sw	v0,32(t1)
    4e88:	8d220020 	lw	v0,32(t1)
    4e8c:	0043102b 	sltu	v0,v0,v1
    4e90:	1440000b 	bnez	v0,0x4ec0
    4e94:	3c023fff 	lui	v0,0x3fff
    4e98:	8d220020 	lw	v0,32(t1)
    4e9c:	00431023 	subu	v0,v0,v1
    4ea0:	ad220020 	sw	v0,32(t1)
    4ea4:	9542005c 	lhu	v0,92(t2)
    4ea8:	3042ffff 	andi	v0,v0,0xffff
    4eac:	0a00137d 	j	0x8004df4
    4eb0:	00621821 	addu	v1,v1,v0
    4eb4:	ad200020 	sw	zero,32(t1)
    4eb8:	00661821 	addu	v1,v1,a2
    4ebc:	3c023fff 	lui	v0,0x3fff
    4ec0:	3446ffff 	ori	a2,v0,0xffff
    4ec4:	00c3102b 	sltu	v0,a2,v1
    4ec8:	54400001 	bnezl	v0,0x4ed0
    4ecc:	00c01821 	move	v1,a2
    4ed0:	3c028008 	lui	v0,0x8008
    4ed4:	34420080 	ori	v0,v0,0x80
    4ed8:	00651821 	addu	v1,v1,a1
    4edc:	ac43001c 	sw	v1,28(v0)
    4ee0:	a0400024 	sb	zero,36(v0)
    4ee4:	a0400027 	sb	zero,39(v0)
    4ee8:	0a0013cb 	j	0x8004f2c
    4eec:	3c038008 	lui	v1,0x8008
    4ef0:	10400040 	beqz	v0,0x4ff4
    4ef4:	3c038008 	lui	v1,0x8008
    4ef8:	8d42003c 	lw	v0,60(t2)
    4efc:	00481023 	subu	v0,v0,t0
    4f00:	1840003d 	blez	v0,0x4ff8
    4f04:	34670080 	ori	a3,v1,0x80
    4f08:	91420024 	lbu	v0,36(t2)
    4f0c:	24420001 	addiu	v0,v0,1
    4f10:	a1420024 	sb	v0,36(t2)
    4f14:	91420024 	lbu	v0,36(t2)
    4f18:	3c030800 	lui	v1,0x800
    4f1c:	8c630024 	lw	v1,36(v1)
    4f20:	304200ff 	andi	v0,v0,0xff
    4f24:	0043102b 	sltu	v0,v0,v1
    4f28:	14400070 	bnez	v0,0x50ec
    4f2c:	8fbf0010 	lw	ra,16(sp)
    4f30:	8d22001c 	lw	v0,28(t1)
    4f34:	00a21023 	subu	v0,a1,v0
    4f38:	1840006c 	blez	v0,0x50ec
    4f3c:	00000000 	nop
    4f40:	8d630004 	lw	v1,4(t3)
    4f44:	9542005c 	lhu	v0,92(t2)
    4f48:	00681823 	subu	v1,v1,t0
    4f4c:	3042ffff 	andi	v0,v0,0xffff
    4f50:	00031843 	sra	v1,v1,0x1
    4f54:	00021040 	sll	v0,v0,0x1
    4f58:	0043102a 	slt	v0,v0,v1
    4f5c:	10400005 	beqz	v0,0x4f74
    4f60:	01402021 	move	a0,t2
    4f64:	8d620004 	lw	v0,4(t3)
    4f68:	00481023 	subu	v0,v0,t0
    4f6c:	0a0013ae 	j	0x8004eb8
    4f70:	00021043 	sra	v0,v0,0x1
    4f74:	9542005c 	lhu	v0,92(t2)
    4f78:	3042ffff 	andi	v0,v0,0xffff
    4f7c:	00021040 	sll	v0,v0,0x1
    4f80:	3c068008 	lui	a2,0x8008
    4f84:	ac82002c 	sw	v0,44(a0)
    4f88:	34c50080 	ori	a1,a2,0x80
    4f8c:	94a2005c 	lhu	v0,92(a1)
    4f90:	8ca4002c 	lw	a0,44(a1)
    4f94:	94a3005c 	lhu	v1,92(a1)
    4f98:	3042ffff 	andi	v0,v0,0xffff
    4f9c:	00021040 	sll	v0,v0,0x1
    4fa0:	00822021 	addu	a0,a0,v0
    4fa4:	3063ffff 	andi	v1,v1,0xffff
    4fa8:	00831821 	addu	v1,a0,v1
    4fac:	01031021 	addu	v0,t0,v1
    4fb0:	aca2001c 	sw	v0,28(a1)
    4fb4:	8cc20004 	lw	v0,4(a2)
    4fb8:	34c60100 	ori	a2,a2,0x100
    4fbc:	acc2001c 	sw	v0,28(a2)
    4fc0:	24020002 	li	v0,2
    4fc4:	0e000f2c 	jal	0x8003cb0
    4fc8:	a0c2000c 	sb	v0,12(a2)
    4fcc:	10400047 	beqz	v0,0x50ec
    4fd0:	8fbf0010 	lw	ra,16(sp)
    4fd4:	3c028000 	lui	v0,0x8000
    4fd8:	8c440100 	lw	a0,256(v0)
    4fdc:	3c038000 	lui	v1,0x8000
    4fe0:	8c6201f8 	lw	v0,504(v1)
    4fe4:	0440fffe 	bltz	v0,0x4fe0
    4fe8:	24020002 	li	v0,2
    4fec:	0a0013fb 	j	0x8004fec
    4ff0:	00000000 	nop
    4ff4:	34670080 	ori	a3,v1,0x80
    4ff8:	ace50038 	sw	a1,56(a3)
    4ffc:	34660100 	ori	a2,v1,0x100
    5000:	8cc2001c 	lw	v0,28(a2)
    5004:	00a21023 	subu	v0,a1,v0
    5008:	18400002 	blez	v0,0x5014
    500c:	24a2fffc 	addiu	v0,a1,-4
    5010:	acc2001c 	sw	v0,28(a2)
    5014:	30820001 	andi	v0,a0,0x1
    5018:	5040000a 	beqzl	v0,0x5044
    501c:	3c038008 	lui	v1,0x8008
    5020:	8ce2003c 	lw	v0,60(a3)
    5024:	00a21023 	subu	v0,a1,v0
    5028:	04430014 	bgezl	v0,0x507c
    502c:	24040005 	li	a0,5
    5030:	8c620004 	lw	v0,4(v1)
    5034:	14a20003 	bne	a1,v0,0x5044
    5038:	3c038008 	lui	v1,0x8008
    503c:	0a0013ed 	j	0x8004fb4
    5040:	24040005 	li	a0,5
    5044:	8c620004 	lw	v0,4(v1)
    5048:	14a20028 	bne	a1,v0,0x50ec
    504c:	8fbf0010 	lw	ra,16(sp)
    5050:	3c020800 	lui	v0,0x800
    5054:	8c4200d8 	lw	v0,216(v0)
    5058:	30420020 	andi	v0,v0,0x20
    505c:	1040000a 	beqz	v0,0x5088
    5060:	3c028008 	lui	v0,0x8008
    5064:	34620080 	ori	v0,v1,0x80
    5068:	90630008 	lbu	v1,8(v1)
    506c:	9042004c 	lbu	v0,76(v0)
    5070:	14430005 	bne	v0,v1,0x5088
    5074:	3c028008 	lui	v0,0x8008
    5078:	24040004 	li	a0,4
    507c:	8fbf0010 	lw	ra,16(sp)
    5080:	0a0010d7 	j	0x800435c
    5084:	27bd0018 	addiu	sp,sp,24
    5088:	34430080 	ori	v1,v0,0x80
    508c:	34420100 	ori	v0,v0,0x100
    5090:	a040000c 	sb	zero,12(v0)
    5094:	24020001 	li	v0,1
    5098:	a4620014 	sh	v0,20(v1)
    509c:	3c028000 	lui	v0,0x8000
    50a0:	8c440100 	lw	a0,256(v0)
    50a4:	3c038000 	lui	v1,0x8000
    50a8:	8c6201f8 	lw	v0,504(v1)
    50ac:	0440fffe 	bltz	v0,0x50a8
    50b0:	24020002 	li	v0,2
    50b4:	ac6401c0 	sw	a0,448(v1)
    50b8:	a06201c4 	sb	v0,452(v1)
    50bc:	3c021000 	lui	v0,0x1000
    50c0:	ac6201f8 	sw	v0,504(v1)
    50c4:	0a001409 	j	0x8005024
    50c8:	8fbf0010 	lw	ra,16(sp)
    50cc:	8fbf0010 	lw	ra,16(sp)
    50d0:	01003021 	move	a2,t0
    50d4:	0a001128 	j	0x80044a0
    50d8:	27bd0018 	addiu	sp,sp,24
    50dc:	01003021 	move	a2,t0
    50e0:	0a001267 	j	0x800499c
    50e4:	27bd0018 	addiu	sp,sp,24
    50e8:	8fbf0010 	lw	ra,16(sp)
    50ec:	03e00008 	jr	ra
    50f0:	27bd0018 	addiu	sp,sp,24
    50f4:	3c038008 	lui	v1,0x8008
    50f8:	34640100 	ori	a0,v1,0x100
    50fc:	24020003 	li	v0,3
    5100:	a082000c 	sb	v0,12(a0)
    5104:	8c620004 	lw	v0,4(v1)
    5108:	03e00008 	jr	ra
    510c:	ac82001c 	sw	v0,28(a0)
    5110:	3c058008 	lui	a1,0x8008
    5114:	34a30080 	ori	v1,a1,0x80
    5118:	90620027 	lbu	v0,39(v1)
    511c:	34a50100 	ori	a1,a1,0x100
    5120:	24060043 	li	a2,67
    5124:	24420001 	addiu	v0,v0,1
    5128:	a0620027 	sb	v0,39(v1)
    512c:	90630027 	lbu	v1,39(v1)
    5130:	3c020800 	lui	v0,0x800
    5134:	8c420048 	lw	v0,72(v0)
    5138:	306300ff 	andi	v1,v1,0xff
    513c:	14620004 	bne	v1,v0,0x5150
    5140:	3c076021 	lui	a3,0x6021
    5144:	94a500da 	lhu	a1,218(a1)
    5148:	0a0008fa 	j	0x80023e8
    514c:	30a5ffff 	andi	a1,a1,0xffff
    5150:	03e00008 	jr	ra
    5154:	00000000 	nop
    5158:	27bdffe8 	addiu	sp,sp,-24
    515c:	afbf0010 	sw	ra,16(sp)
    5160:	3c028000 	lui	v0,0x8000
    5164:	0e001412 	jal	0x8005048
    5168:	8c440180 	lw	a0,384(v0)
    516c:	3c028008 	lui	v0,0x8008
    5170:	34430100 	ori	v1,v0,0x100
    5174:	a060000c 	sb	zero,12(v1)
    5178:	8c420004 	lw	v0,4(v0)
    517c:	8fbf0010 	lw	ra,16(sp)
    5180:	27bd0018 	addiu	sp,sp,24
    5184:	03e00008 	jr	ra
    5188:	ac62001c 	sw	v0,28(v1)
    518c:	27bdffe0 	addiu	sp,sp,-32
    5190:	3c028008 	lui	v0,0x8008
    5194:	afbf0018 	sw	ra,24(sp)
    5198:	afb10014 	sw	s1,20(sp)
    519c:	afb00010 	sw	s0,16(sp)
    51a0:	34450080 	ori	a1,v0,0x80
    51a4:	34460100 	ori	a2,v0,0x100
    51a8:	3c088000 	lui	t0,0x8000
    51ac:	8d090140 	lw	t1,320(t0)
    51b0:	90c3000c 	lbu	v1,12(a2)
    51b4:	8ca4003c 	lw	a0,60(a1)
    51b8:	8ca20038 	lw	v0,56(a1)
    51bc:	1482003b 	bne	a0,v0,0x52ac
    51c0:	306700ff 	andi	a3,v1,0xff
    51c4:	9502007c 	lhu	v0,124(t0)
    51c8:	90a30027 	lbu	v1,39(a1)
    51cc:	14600009 	bnez	v1,0x51f4
    51d0:	3045ffff 	andi	a1,v0,0xffff
    51d4:	24020005 	li	v0,5
    51d8:	54e20008 	bnel	a3,v0,0x51fc
    51dc:	3c048008 	lui	a0,0x8008
    51e0:	90c2000d 	lbu	v0,13(a2)
    51e4:	24420001 	addiu	v0,v0,1
    51e8:	a0c2000d 	sb	v0,13(a2)
    51ec:	0a00144d 	j	0x8005134
    51f0:	3c048008 	lui	a0,0x8008
    51f4:	a0c0000d 	sb	zero,13(a2)
    51f8:	3c048008 	lui	a0,0x8008
    51fc:	34820100 	ori	v0,a0,0x100
    5200:	9042000c 	lbu	v0,12(v0)
    5204:	24030005 	li	v1,5
    5208:	304200ff 	andi	v0,v0,0xff
    520c:	1443000a 	bne	v0,v1,0x5238
    5210:	24a205dc 	addiu	v0,a1,1500
    5214:	34830080 	ori	v1,a0,0x80
    5218:	90620027 	lbu	v0,39(v1)
    521c:	2c420007 	sltiu	v0,v0,7
    5220:	50400005 	beqzl	v0,0x5238
    5224:	24a20a00 	addiu	v0,a1,2560
    5228:	90630027 	lbu	v1,39(v1)
    522c:	24020014 	li	v0,20
    5230:	00621004 	sllv	v0,v0,v1
    5234:	00a21021 	addu	v0,a1,v0
    5238:	3c108008 	lui	s0,0x8008
    523c:	36100080 	ori	s0,s0,0x80
    5240:	3045ffff 	andi	a1,v0,0xffff
    5244:	01202021 	move	a0,t1
    5248:	0e001412 	jal	0x8005048
    524c:	a6050014 	sh	a1,20(s0)
    5250:	9602005c 	lhu	v0,92(s0)
    5254:	8e030038 	lw	v1,56(s0)
    5258:	3c118000 	lui	s1,0x8000
    525c:	3042ffff 	andi	v0,v0,0xffff
    5260:	00021040 	sll	v0,v0,0x1
    5264:	00621821 	addu	v1,v1,v0
    5268:	ae03001c 	sw	v1,28(s0)
    526c:	0e000352 	jal	0x8000d48
    5270:	8e240140 	lw	a0,320(s1)
    5274:	92020025 	lbu	v0,37(s0)
    5278:	34420040 	ori	v0,v0,0x40
    527c:	a2020025 	sb	v0,37(s0)
    5280:	0e00035d 	jal	0x8000d74
    5284:	8e240140 	lw	a0,320(s1)
    5288:	8e240140 	lw	a0,320(s1)
    528c:	3c038000 	lui	v1,0x8000
    5290:	8c6201f8 	lw	v0,504(v1)
    5294:	0440fffe 	bltz	v0,0x5290
    5298:	24020002 	li	v0,2
    529c:	ac6401c0 	sw	a0,448(v1)
    52a0:	a06201c4 	sb	v0,452(v1)
    52a4:	3c021000 	lui	v0,0x1000
    52a8:	ac6201f8 	sw	v0,504(v1)
    52ac:	8fbf0018 	lw	ra,24(sp)
    52b0:	8fb10014 	lw	s1,20(sp)
    52b4:	8fb00010 	lw	s0,16(sp)
    52b8:	03e00008 	jr	ra
    52bc:	27bd0020 	addiu	sp,sp,32
    52c0:	80080100 	lb	t0,256(zero)
    52c4:	80080080 	lb	t0,128(zero)
    52c8:	80080000 	lb	t0,0(zero)
    52cc:	00000c80 	sll	at,zero,0x12
    52d0:	00003200 	sll	a2,zero,0x8
    52d4:	80080240 	lb	t0,576(zero)
    52d8:	08000f10 	j	0x3c40
    52dc:	08000f68 	j	0x3da0
    52e0:	08000fac 	j	0x3eb0
    52e4:	08001044 	j	0x4110
    52e8:	08001084 	j	0x4210
    52ec:	80080100 	lb	t0,256(zero)
    52f0:	80080080 	lb	t0,128(zero)
    52f4:	80080000 	lb	t0,0(zero)
    52f8:	0a000022 	j	0x8000088
    52fc:	00000000 	nop
    5300:	00000000 	nop
    5304:	0000000d 	break
    5308:	6370352e 	daddi	s0,k1,13614
    530c:	302e306a 	andi	t6,at,0x306a
    5310:	31350000 	andi	s5,t1,0x0
    5314:	05000004 	bltz	t0,0x5328
    5318:	00000000 	nop
	...
    532c:	38003c00 	xori	zero,zero,0x3c00
	...
    5340:	00000020 	add	zero,zero,zero
	...
    536c:	21003800 	addi	zero,t0,14336
    5370:	00000001 	.word	0x1
    5374:	0000002b 	sltu	zero,zero,zero
	...
    5384:	10000003 	b	0x5394
    5388:	00000000 	nop
    538c:	0000000d 	break
    5390:	0000000d 	break
    5394:	3c020800 	lui	v0,0x800
    5398:	24425504 	addiu	v0,v0,21764
    539c:	3c030800 	lui	v1,0x800
    53a0:	24635744 	addiu	v1,v1,22340
    53a4:	ac400000 	sw	zero,0(v0)
    53a8:	0043202b 	sltu	a0,v0,v1
    53ac:	1480fffd 	bnez	a0,0x53a4
    53b0:	24420004 	addiu	v0,v0,4
    53b4:	3c1d0800 	lui	sp,0x800
    53b8:	37bd9ffc 	ori	sp,sp,0x9ffc
    53bc:	03a0f021 	move	s8,sp
    53c0:	3c100800 	lui	s0,0x800
    53c4:	26100088 	addiu	s0,s0,136
    53c8:	3c1c0800 	lui	gp,0x800
    53cc:	279c5504 	addiu	gp,gp,21764
    53d0:	0e00029a 	jal	0x8000a68
    53d4:	00000000 	nop
    53d8:	0000000d 	break
    53dc:	00a01821 	move	v1,a1
    53e0:	00801021 	move	v0,a0
    53e4:	00802821 	move	a1,a0
    53e8:	3c046000 	lui	a0,0x6000
    53ec:	3c076000 	lui	a3,0x6000
    53f0:	24060008 	li	a2,8
    53f4:	10600006 	beqz	v1,0x5410
    53f8:	34842078 	ori	a0,a0,0x2078
    53fc:	8c420000 	lw	v0,0(v0)
    5400:	ace22008 	sw	v0,8200(a3)
    5404:	8c630000 	lw	v1,0(v1)
    5408:	03e00008 	jr	ra
    540c:	ace3200c 	sw	v1,8204(a3)
    5410:	0a000e60 	j	0x8003980
    5414:	00000000 	nop
    5418:	24030040 	li	v1,64
    541c:	3c026000 	lui	v0,0x6000
    5420:	03e00008 	jr	ra
    5424:	ac432000 	sw	v1,8192(v0)
    5428:	3c076000 	lui	a3,0x6000
    542c:	8f860004 	lw	a2,4(gp)
    5430:	8ce52074 	lw	a1,8308(a3)
    5434:	00861021 	addu	v0,a0,a2
    5438:	00a2182b 	sltu	v1,a1,v0
    543c:	14600007 	bnez	v1,0x545c
    5440:	00002821 	move	a1,zero
    5444:	8f8afd90 	lw	t2,-624(gp)
    5448:	24050001 	li	a1,1
    544c:	a1440013 	sb	a0,19(t2)
    5450:	8f890004 	lw	t1,4(gp)
    5454:	01244021 	addu	t0,t1,a0
    5458:	af880004 	sw	t0,4(gp)
    545c:	03e00008 	jr	ra
    5460:	00a01021 	move	v0,a1
    5464:	8f84fd90 	lw	a0,-624(gp)
    5468:	8f850004 	lw	a1,4(gp)
    546c:	90860013 	lbu	a2,19(a0)
    5470:	30c300ff 	andi	v1,a2,0xff
    5474:	00a31023 	subu	v0,a1,v1
    5478:	af820004 	sw	v0,4(gp)
    547c:	03e00008 	jr	ra
    5480:	a0800013 	sb	zero,19(a0)
    5484:	8f84fd90 	lw	a0,-624(gp)
    5488:	27bdffe8 	addiu	sp,sp,-24
    548c:	afb00010 	sw	s0,16(sp)
    5490:	afbf0014 	sw	ra,20(sp)
    5494:	90890011 	lbu	t1,17(a0)
    5498:	90870011 	lbu	a3,17(a0)
    549c:	24020028 	li	v0,40
    54a0:	312800ff 	andi	t0,t1,0xff
    54a4:	39060028 	xori	a2,t0,0x28
    54a8:	30e300ff 	andi	v1,a3,0xff
    54ac:	2485002c 	addiu	a1,a0,44
    54b0:	2cd00001 	sltiu	s0,a2,1
    54b4:	10620016 	beq	v1,v0,0x5510
    54b8:	2484001c 	addiu	a0,a0,28
    54bc:	0e000039 	jal	0x80000e4
    54c0:	00000000 	nop
    54c4:	8f8ffd90 	lw	t7,-624(gp)
    54c8:	3c056000 	lui	a1,0x6000
    54cc:	24020204 	li	v0,516
    54d0:	95ee003e 	lhu	t6,62(t7)
    54d4:	95ed003c 	lhu	t5,60(t7)
    54d8:	000e5c00 	sll	t3,t6,0x10
    54dc:	31acffff 	andi	t4,t5,0xffff
    54e0:	016c5025 	or	t2,t3,t4
    54e4:	acaa2010 	sw	t2,8208(a1)
    54e8:	52000001 	beqzl	s0,0x54f0
    54ec:	24020004 	li	v0,4
    54f0:	aca22000 	sw	v0,8192(a1)
	...
    5500:	8fbf0014 	lw	ra,20(sp)
    5504:	8fb00010 	lw	s0,16(sp)
    5508:	03e00008 	jr	ra
    550c:	27bd0018 	addiu	sp,sp,24
    5510:	0a000071 	j	0x80001c4
    5514:	00002821 	move	a1,zero
    5518:	8f85fd90 	lw	a1,-624(gp)
    551c:	27bdffd8 	addiu	sp,sp,-40
    5520:	afbf0020 	sw	ra,32(sp)
    5524:	afb3001c 	sw	s3,28(sp)
    5528:	afb20018 	sw	s2,24(sp)
    552c:	afb10014 	sw	s1,20(sp)
    5530:	afb00010 	sw	s0,16(sp)
    5534:	00809821 	move	s3,a0
    5538:	90a40011 	lbu	a0,17(a1)
    553c:	24b0001c 	addiu	s0,a1,28
    5540:	24b1002c 	addiu	s1,a1,44
    5544:	308300ff 	andi	v1,a0,0xff
    5548:	38620028 	xori	v0,v1,0x28
    554c:	0e00005b 	jal	0x800016c
    5550:	2c520001 	sltiu	s2,v0,1
    5554:	0e000063 	jal	0x800018c
    5558:	00000000 	nop
    555c:	02002021 	move	a0,s0
    5560:	12400002 	beqz	s2,0x556c
    5564:	02202821 	move	a1,s1
    5568:	00002821 	move	a1,zero
    556c:	0e000039 	jal	0x80000e4
    5570:	00000000 	nop
    5574:	8f8dfd90 	lw	t5,-624(gp)
    5578:	3c088000 	lui	t0,0x8000
    557c:	3c056000 	lui	a1,0x6000
    5580:	95ac003e 	lhu	t4,62(t5)
    5584:	95ab003c 	lhu	t3,60(t5)
    5588:	02683025 	or	a2,s3,t0
    558c:	000c4c00 	sll	t1,t4,0x10
    5590:	316affff 	andi	t2,t3,0xffff
    5594:	012a3825 	or	a3,t1,t2
    5598:	aca72010 	sw	a3,8208(a1)
    559c:	24020202 	li	v0,514
    55a0:	aca62014 	sw	a2,8212(a1)
    55a4:	52400001 	beqzl	s2,0x55ac
    55a8:	24020002 	li	v0,2
    55ac:	8fbf0020 	lw	ra,32(sp)
    55b0:	8fb3001c 	lw	s3,28(sp)
    55b4:	8fb20018 	lw	s2,24(sp)
    55b8:	8fb10014 	lw	s1,20(sp)
    55bc:	8fb00010 	lw	s0,16(sp)
    55c0:	27bd0028 	addiu	sp,sp,40
    55c4:	03e00008 	jr	ra
    55c8:	aca22000 	sw	v0,8192(a1)
    55cc:	27bdffe0 	addiu	sp,sp,-32
    55d0:	afb20018 	sw	s2,24(sp)
    55d4:	afb10014 	sw	s1,20(sp)
    55d8:	afb00010 	sw	s0,16(sp)
    55dc:	afbf001c 	sw	ra,28(sp)
    55e0:	3c116000 	lui	s1,0x6000
    55e4:	8e232074 	lw	v1,8308(s1)
    55e8:	8f820004 	lw	v0,4(gp)
    55ec:	30d0ffff 	andi	s0,a2,0xffff
    55f0:	30f2ffff 	andi	s2,a3,0xffff
    55f4:	1062000c 	beq	v1,v0,0x5628
    55f8:	2406008f 	li	a2,143
    55fc:	0e000039 	jal	0x80000e4
    5600:	00000000 	nop
    5604:	3c06801f 	lui	a2,0x801f
    5608:	00104400 	sll	t0,s0,0x10
    560c:	34c5ff00 	ori	a1,a2,0xff00
    5610:	01123825 	or	a3,t0,s2
    5614:	24040002 	li	a0,2
    5618:	ae272010 	sw	a3,8208(s1)
    561c:	00003021 	move	a2,zero
    5620:	ae252014 	sw	a1,8212(s1)
    5624:	ae242000 	sw	a0,8192(s1)
    5628:	8fbf001c 	lw	ra,28(sp)
    562c:	8fb20018 	lw	s2,24(sp)
    5630:	8fb10014 	lw	s1,20(sp)
    5634:	8fb00010 	lw	s0,16(sp)
    5638:	00c01021 	move	v0,a2
    563c:	03e00008 	jr	ra
    5640:	27bd0020 	addiu	sp,sp,32
    5644:	27bdffe0 	addiu	sp,sp,-32
    5648:	afb00010 	sw	s0,16(sp)
    564c:	30d0ffff 	andi	s0,a2,0xffff
    5650:	afbf0018 	sw	ra,24(sp)
    5654:	afb10014 	sw	s1,20(sp)
    5658:	0e000039 	jal	0x80000e4
    565c:	30f1ffff 	andi	s1,a3,0xffff
    5660:	00102400 	sll	a0,s0,0x10
    5664:	00918025 	or	s0,a0,s1
    5668:	3c036000 	lui	v1,0x6000
    566c:	ac702010 	sw	s0,8208(v1)
    5670:	8fbf0018 	lw	ra,24(sp)
    5674:	8fb10014 	lw	s1,20(sp)
    5678:	8fb00010 	lw	s0,16(sp)
    567c:	24020004 	li	v0,4
    5680:	ac622000 	sw	v0,8192(v1)
    5684:	27bd0020 	addiu	sp,sp,32
    5688:	03e00008 	jr	ra
    568c:	00001021 	move	v0,zero
    5690:	27bdffe8 	addiu	sp,sp,-24
    5694:	3c0b6018 	lui	t3,0x6018
    5698:	afbf0010 	sw	ra,16(sp)
    569c:	8d6f5000 	lw	t7,20480(t3)
    56a0:	2418ff7f 	li	t8,-129
    56a4:	340c8071 	li	t4,0x8071
    56a8:	01f87024 	and	t6,t7,t8
    56ac:	35cd380c 	ori	t5,t6,0x380c
    56b0:	240a0031 	li	t2,49
    56b4:	3c098000 	lui	t1,0x8000
    56b8:	ad6d5000 	sw	t5,20480(t3)
    56bc:	3c08800a 	lui	t0,0x800a
    56c0:	ad6c53bc 	sw	t4,21436(t3)
    56c4:	ad2a0008 	sw	t2,8(t1)
    56c8:	0e0004d1 	jal	0x8001344
    56cc:	af880040 	sw	t0,64(gp)
    56d0:	0e00048f 	jal	0x800123c
    56d4:	00000000 	nop
    56d8:	0e000048 	jal	0x8000120
    56dc:	00000000 	nop
    56e0:	3c076000 	lui	a3,0x6000
    56e4:	8ce50808 	lw	a1,2056(a3)
    56e8:	2406fff0 	li	a2,-16
    56ec:	3c035709 	lui	v1,0x5709
    56f0:	00a62024 	and	a0,a1,a2
    56f4:	3462f000 	ori	v0,v1,0xf000
    56f8:	10820062 	beq	a0,v0,0x5884
    56fc:	24190001 	li	t9,1
    5700:	af80004c 	sw	zero,76(gp)
    5704:	0e000bf2 	jal	0x8002fc8
    5708:	00000000 	nop
    570c:	3c066016 	lui	a2,0x6016
    5710:	3c076014 	lui	a3,0x6014
    5714:	8cc40000 	lw	a0,0(a2)
    5718:	8ce500a0 	lw	a1,160(a3)
    571c:	3c03ffff 	lui	v1,0xffff
    5720:	00831024 	and	v0,a0,v1
    5724:	3c1f5353 	lui	ra,0x5353
    5728:	00052fc2 	srl	a1,a1,0x1f
    572c:	105f004f 	beq	v0,ra,0x586c
    5730:	34c77c00 	ori	a3,a2,0x7c00
    5734:	94e201f2 	lhu	v0,498(a3)
    5738:	a7800064 	sh	zero,100(gp)
    573c:	10400003 	beqz	v0,0x574c
    5740:	a7800074 	sh	zero,116(gp)
    5744:	384b1e1e 	xori	t3,v0,0x1e1e
    5748:	a78b0064 	sh	t3,100(gp)
    574c:	94e201f8 	lhu	v0,504(a3)
    5750:	10400004 	beqz	v0,0x5764
    5754:	8f8d004c 	lw	t5,76(gp)
    5758:	384c1e1e 	xori	t4,v0,0x1e1e
    575c:	a78c0074 	sh	t4,116(gp)
    5760:	8f8d004c 	lw	t5,76(gp)
    5764:	11a00004 	beqz	t5,0x5778
    5768:	97840074 	lhu	a0,116(gp)
    576c:	240e0020 	li	t6,32
    5770:	a78e0064 	sh	t6,100(gp)
    5774:	97840074 	lhu	a0,116(gp)
    5778:	2c8f0081 	sltiu	t7,a0,129
    577c:	51e00001 	beqzl	t7,0x5784
    5780:	24040080 	li	a0,128
    5784:	97860064 	lhu	a2,100(gp)
    5788:	2cd80401 	sltiu	t8,a2,1025
    578c:	53000001 	beqzl	t8,0x5794
    5790:	24060400 	li	a2,1024
    5794:	3c026000 	lui	v0,0x6000
    5798:	8c450438 	lw	a1,1080(v0)
    579c:	2419103c 	li	t9,4156
    57a0:	30bfffff 	andi	ra,a1,0xffff
    57a4:	13f90003 	beq	ra,t9,0x57b4
    57a8:	3083ffff 	andi	v1,a0,0xffff
    57ac:	10600018 	beqz	v1,0x5810
    57b0:	24080050 	li	t0,80
    57b4:	a3800076 	sb	zero,118(gp)
    57b8:	93890076 	lbu	t1,118(gp)
    57bc:	51200019 	beqzl	t1,0x5824
    57c0:	a7840074 	sh	a0,116(gp)
    57c4:	a7800074 	sh	zero,116(gp)
    57c8:	978c0074 	lhu	t4,116(gp)
    57cc:	8fbf0010 	lw	ra,16(sp)
    57d0:	3c0a600e 	lui	t2,0x600e
    57d4:	24eb0388 	addiu	t3,a3,904
    57d8:	35460010 	ori	a2,t2,0x10
    57dc:	00003821 	move	a3,zero
    57e0:	00002021 	move	a0,zero
    57e4:	27bd0018 	addiu	sp,sp,24
    57e8:	a7800064 	sh	zero,100(gp)
    57ec:	3c010800 	lui	at,0x800
    57f0:	ac2c0080 	sw	t4,128(at)
    57f4:	af8b0010 	sw	t3,16(gp)
    57f8:	af860048 	sw	a2,72(gp)
    57fc:	a780006c 	sh	zero,108(gp)
    5800:	a780008a 	sh	zero,138(gp)
    5804:	af870018 	sw	a3,24(gp)
    5808:	03e00008 	jr	ra
    580c:	af840014 	sw	a0,20(gp)
    5810:	a3880076 	sb	t0,118(gp)
    5814:	93890076 	lbu	t1,118(gp)
    5818:	5520ffeb 	bnezl	t1,0x57c8
    581c:	a7800074 	sh	zero,116(gp)
    5820:	a7840074 	sh	a0,116(gp)
    5824:	978c0074 	lhu	t4,116(gp)
    5828:	8fbf0010 	lw	ra,16(sp)
    582c:	3c0a600e 	lui	t2,0x600e
    5830:	24eb0388 	addiu	t3,a3,904
    5834:	a7860064 	sh	a2,100(gp)
    5838:	00003821 	move	a3,zero
    583c:	35460010 	ori	a2,t2,0x10
    5840:	00002021 	move	a0,zero
    5844:	27bd0018 	addiu	sp,sp,24
    5848:	3c010800 	lui	at,0x800
    584c:	ac2c0080 	sw	t4,128(at)
    5850:	af8b0010 	sw	t3,16(gp)
    5854:	af860048 	sw	a2,72(gp)
    5858:	a780006c 	sh	zero,108(gp)
    585c:	a780008a 	sh	zero,138(gp)
    5860:	af870018 	sw	a3,24(gp)
    5864:	03e00008 	jr	ra
    5868:	af840014 	sw	a0,20(gp)
    586c:	00055080 	sll	t2,a1,0x2
    5870:	01464821 	addu	t1,t2,a2
    5874:	8d280004 	lw	t0,4(t1)
    5878:	3c066000 	lui	a2,0x6000
    587c:	0a00010f 	j	0x800043c
    5880:	01063821 	addu	a3,t0,a2
    5884:	0a000103 	j	0x800040c
    5888:	af99004c 	sw	t9,76(gp)
    588c:	3083ffff 	andi	v1,a0,0xffff
    5890:	8f880040 	lw	t0,64(gp)
    5894:	8f87003c 	lw	a3,60(gp)
    5898:	00032140 	sll	a0,v1,0x5
    589c:	3c058000 	lui	a1,0x8000
    58a0:	3c020050 	lui	v0,0x50
    58a4:	00824825 	or	t1,a0,v0
    58a8:	3c066000 	lui	a2,0x6000
    58ac:	3c0a0100 	lui	t2,0x100
    58b0:	34ac0400 	ori	t4,a1,0x400
    58b4:	8ccd08e0 	lw	t5,2272(a2)
    58b8:	01aa5824 	and	t3,t5,t2
    58bc:	11600005 	beqz	t3,0x58d4
    58c0:	00000000 	nop
    58c4:	8ccf08e0 	lw	t7,2272(a2)
    58c8:	24e70001 	addiu	a3,a3,1
    58cc:	01ea7025 	or	t6,t7,t2
    58d0:	acce08e0 	sw	t6,2272(a2)
    58d4:	8d190010 	lw	t9,16(t0)
    58d8:	01805821 	move	t3,t4
    58dc:	acb90038 	sw	t9,56(a1)
    58e0:	8d180014 	lw	t8,20(t0)
    58e4:	acb8003c 	sw	t8,60(a1)
    58e8:	aca90030 	sw	t1,48(a1)
	...
    590c:	3c038000 	lui	v1,0x8000
    5910:	8c640000 	lw	a0,0(v1)
    5914:	30820020 	andi	v0,a0,0x20
    5918:	1040fffd 	beqz	v0,0x5910
    591c:	3c0f6000 	lui	t7,0x6000
    5920:	8ded08e0 	lw	t5,2272(t7)
    5924:	3c0e0100 	lui	t6,0x100
    5928:	01ae1824 	and	v1,t5,t6
    592c:	1460ffe1 	bnez	v1,0x58b4
    5930:	00000000 	nop
    5934:	af87003c 	sw	a3,60(gp)
    5938:	03e00008 	jr	ra
    593c:	af8b0050 	sw	t3,80(gp)
    5940:	8f850040 	lw	a1,64(gp)
    5944:	240bfff0 	li	t3,-16
    5948:	3c068000 	lui	a2,0x8000
    594c:	94a7001a 	lhu	a3,26(a1)
    5950:	8ca90024 	lw	t1,36(a1)
    5954:	30ecffff 	andi	t4,a3,0xffff
    5958:	000c38c0 	sll	a3,t4,0x3
    595c:	00eb5024 	and	t2,a3,t3
    5960:	012a4021 	addu	t0,t1,t2
    5964:	acc8003c 	sw	t0,60(a2)
    5968:	8ca40024 	lw	a0,36(a1)
    596c:	8cc3003c 	lw	v1,60(a2)
    5970:	00831023 	subu	v0,a0,v1
    5974:	18400033 	blez	v0,0x5a44
    5978:	00000000 	nop
    597c:	8cad0020 	lw	t5,32(a1)
    5980:	25a20001 	addiu	v0,t5,1
    5984:	3c0f0050 	lui	t7,0x50
    5988:	acc20038 	sw	v0,56(a2)
    598c:	35ee0010 	ori	t6,t7,0x10
    5990:	3c068000 	lui	a2,0x8000
    5994:	acce0030 	sw	t6,48(a2)
	...
    59b8:	3c048000 	lui	a0,0x8000
    59bc:	8c990000 	lw	t9,0(a0)
    59c0:	33380020 	andi	t8,t9,0x20
    59c4:	1300fffd 	beqz	t8,0x59bc
    59c8:	30e20008 	andi	v0,a3,0x8
    59cc:	10400017 	beqz	v0,0x5a2c
    59d0:	3c098000 	lui	t1,0x8000
    59d4:	8c880408 	lw	t0,1032(a0)
    59d8:	aca80010 	sw	t0,16(a1)
    59dc:	8c83040c 	lw	v1,1036(a0)
    59e0:	aca30014 	sw	v1,20(a1)
    59e4:	3c190020 	lui	t9,0x20
    59e8:	3c188000 	lui	t8,0x8000
    59ec:	af190030 	sw	t9,48(t8)
    59f0:	94ae0018 	lhu	t6,24(a1)
    59f4:	94af001c 	lhu	t7,28(a1)
    59f8:	01cf3021 	addu	a2,t6,t7
    59fc:	a4a60018 	sh	a2,24(a1)
    5a00:	94ad001a 	lhu	t5,26(a1)
    5a04:	25a70001 	addiu	a3,t5,1
    5a08:	a4a7001a 	sh	a3,26(a1)
    5a0c:	94ab001a 	lhu	t3,26(a1)
    5a10:	94ac001e 	lhu	t4,30(a1)
    5a14:	118b0003 	beq	t4,t3,0x5a24
    5a18:	00000000 	nop
    5a1c:	03e00008 	jr	ra
    5a20:	00000000 	nop
    5a24:	03e00008 	jr	ra
    5a28:	a4a0001a 	sh	zero,26(a1)
    5a2c:	8d2a0400 	lw	t2,1024(t1)
    5a30:	acaa0010 	sw	t2,16(a1)
    5a34:	8d240404 	lw	a0,1028(t1)
    5a38:	aca40014 	sw	a0,20(a1)
    5a3c:	0a0001bc 	j	0x80006f0
    5a40:	3c190020 	lui	t9,0x20
    5a44:	8ca20020 	lw	v0,32(a1)
    5a48:	0a0001a4 	j	0x8000690
    5a4c:	3c0f0050 	lui	t7,0x50
    5a50:	0a000192 	j	0x8000648
    5a54:	00000000 	nop
    5a58:	27bdffe8 	addiu	sp,sp,-24
    5a5c:	afbf0010 	sw	ra,16(sp)
    5a60:	0e0001d6 	jal	0x8000758
    5a64:	00000000 	nop
    5a68:	8f890040 	lw	t1,64(gp)
    5a6c:	8fbf0010 	lw	ra,16(sp)
    5a70:	3c038000 	lui	v1,0x8000
    5a74:	a520000a 	sh	zero,10(t1)
    5a78:	9528000a 	lhu	t0,10(t1)
    5a7c:	95270004 	lhu	a3,4(t1)
    5a80:	27bd0018 	addiu	sp,sp,24
    5a84:	3105ffff 	andi	a1,t0,0xffff
    5a88:	30e6000f 	andi	a2,a3,0xf
    5a8c:	00061500 	sll	v0,a2,0x14
    5a90:	00a22025 	or	a0,a1,v0
    5a94:	03e00008 	jr	ra
    5a98:	ac640080 	sw	a0,128(v1)
    5a9c:	3c050800 	lui	a1,0x800
    5aa0:	8ca50020 	lw	a1,32(a1)
    5aa4:	8f83000c 	lw	v1,12(gp)
    5aa8:	27bdffe8 	addiu	sp,sp,-24
    5aac:	afb00010 	sw	s0,16(sp)
    5ab0:	afbf0014 	sw	ra,20(sp)
    5ab4:	10a30010 	beq	a1,v1,0x5af8
    5ab8:	00008021 	move	s0,zero
    5abc:	24040001 	li	a0,1
    5ac0:	02043004 	sllv	a2,a0,s0
    5ac4:	00a62024 	and	a0,a1,a2
    5ac8:	00c31024 	and	v0,a2,v1
    5acc:	50440006 	beql	v0,a0,0x5ae8
    5ad0:	26100001 	addiu	s0,s0,1
    5ad4:	00101880 	sll	v1,s0,0x2
    5ad8:	2787fd94 	addiu	a3,gp,-620
    5adc:	1480000a 	bnez	a0,0x5b08
    5ae0:	00671821 	addu	v1,v1,a3
    5ae4:	26100001 	addiu	s0,s0,1
    5ae8:	2e090002 	sltiu	t1,s0,2
    5aec:	5520fff3 	bnezl	t1,0x5abc
    5af0:	8f83000c 	lw	v1,12(gp)
    5af4:	af85000c 	sw	a1,12(gp)
    5af8:	8fbf0014 	lw	ra,20(sp)
    5afc:	8fb00010 	lw	s0,16(sp)
    5b00:	03e00008 	jr	ra
    5b04:	27bd0018 	addiu	sp,sp,24
    5b08:	8c680000 	lw	t0,0(v1)
    5b0c:	3c058000 	lui	a1,0x8000
    5b10:	aca80024 	sw	t0,36(a1)
    5b14:	0e0001d8 	jal	0x8000760
    5b18:	26100001 	addiu	s0,s0,1
    5b1c:	3c050800 	lui	a1,0x800
    5b20:	8ca50020 	lw	a1,32(a1)
    5b24:	0a0001fd 	j	0x80007f4
    5b28:	2e090002 	sltiu	t1,s0,2
    5b2c:	24050001 	li	a1,1
    5b30:	00851804 	sllv	v1,a1,a0
    5b34:	3c040800 	lui	a0,0x800
    5b38:	8c840020 	lw	a0,32(a0)
    5b3c:	27bdffc8 	addiu	sp,sp,-56
    5b40:	afbf0034 	sw	ra,52(sp)
    5b44:	00831024 	and	v0,a0,v1
    5b48:	afbe0030 	sw	s8,48(sp)
    5b4c:	afb7002c 	sw	s7,44(sp)
    5b50:	afb60028 	sw	s6,40(sp)
    5b54:	afb50024 	sw	s5,36(sp)
    5b58:	afb40020 	sw	s4,32(sp)
    5b5c:	afb3001c 	sw	s3,28(sp)
    5b60:	afb20018 	sw	s2,24(sp)
    5b64:	afb10014 	sw	s1,20(sp)
    5b68:	10400051 	beqz	v0,0x5cb0
    5b6c:	afb00010 	sw	s0,16(sp)
    5b70:	8f840040 	lw	a0,64(gp)
    5b74:	94870006 	lhu	a3,6(a0)
    5b78:	9488000a 	lhu	t0,10(a0)
    5b7c:	00e83023 	subu	a2,a3,t0
    5b80:	30d5ffff 	andi	s5,a2,0xffff
    5b84:	12a0004b 	beqz	s5,0x5cb4
    5b88:	8fbf0034 	lw	ra,52(sp)
    5b8c:	948b0018 	lhu	t3,24(a0)
    5b90:	948c000a 	lhu	t4,10(a0)
    5b94:	016c5023 	subu	t2,t3,t4
    5b98:	3142ffff 	andi	v0,t2,0xffff
    5b9c:	02a2482b 	sltu	t1,s5,v0
    5ba0:	15200002 	bnez	t1,0x5bac
    5ba4:	02a02021 	move	a0,s5
    5ba8:	00402021 	move	a0,v0
    5bac:	2c8f0005 	sltiu	t7,a0,5
    5bb0:	15e00002 	bnez	t7,0x5bbc
    5bb4:	00809821 	move	s3,a0
    5bb8:	24130004 	li	s3,4
    5bbc:	0e000165 	jal	0x8000594
    5bc0:	02602021 	move	a0,s3
    5bc4:	8f870040 	lw	a3,64(gp)
    5bc8:	02609021 	move	s2,s3
    5bcc:	af800044 	sw	zero,68(gp)
    5bd0:	94f4000a 	lhu	s4,10(a3)
    5bd4:	02608021 	move	s0,s3
    5bd8:	1260004e 	beqz	s3,0x5d14
    5bdc:	3291ffff 	andi	s1,s4,0xffff
    5be0:	3c167000 	lui	s6,0x7000
    5be4:	3c144000 	lui	s4,0x4000
    5be8:	3c1e2000 	lui	s8,0x2000
    5bec:	3c176000 	lui	s7,0x6000
    5bf0:	8f990050 	lw	t9,80(gp)
    5bf4:	8f380000 	lw	t8,0(t9)
    5bf8:	03161824 	and	v1,t8,s6
    5bfc:	1074004f 	beq	v1,s4,0x5d3c
    5c00:	0283f82b 	sltu	ra,s4,v1
    5c04:	17e00036 	bnez	ra,0x5ce0
    5c08:	00000000 	nop
    5c0c:	107e0047 	beq	v1,s8,0x5d2c
    5c10:	8f860044 	lw	a2,68(gp)
    5c14:	14c0003a 	bnez	a2,0x5d00
    5c18:	24030001 	li	v1,1
    5c1c:	02031023 	subu	v0,s0,v1
    5c20:	02232021 	addu	a0,s1,v1
    5c24:	3050ffff 	andi	s0,v0,0xffff
    5c28:	1600fff1 	bnez	s0,0x5bf0
    5c2c:	3091ffff 	andi	s1,a0,0xffff
    5c30:	8f870040 	lw	a3,64(gp)
    5c34:	3c110020 	lui	s1,0x20
    5c38:	3c108000 	lui	s0,0x8000
    5c3c:	ae110030 	sw	s1,48(s0)
    5c40:	94eb000a 	lhu	t3,10(a3)
    5c44:	3c178000 	lui	s7,0x8000
    5c48:	024b5021 	addu	t2,s2,t3
    5c4c:	a4ea000a 	sh	t2,10(a3)
    5c50:	94e9000a 	lhu	t1,10(a3)
    5c54:	94e80004 	lhu	t0,4(a3)
    5c58:	3123ffff 	andi	v1,t1,0xffff
    5c5c:	3106000f 	andi	a2,t0,0xf
    5c60:	00062d00 	sll	a1,a2,0x14
    5c64:	0065f025 	or	s8,v1,a1
    5c68:	aefe0080 	sw	s8,128(s7)
    5c6c:	94f3000a 	lhu	s3,10(a3)
    5c70:	94f60018 	lhu	s6,24(a3)
    5c74:	12d30036 	beq	s6,s3,0x5d50
    5c78:	00122140 	sll	a0,s2,0x5
    5c7c:	8cff0014 	lw	ra,20(a3)
    5c80:	8cf40010 	lw	s4,16(a3)
    5c84:	03e46821 	addu	t5,ra,a0
    5c88:	0000c021 	move	t8,zero
    5c8c:	01a4782b 	sltu	t7,t5,a0
    5c90:	02987021 	addu	t6,s4,t8
    5c94:	01cf6021 	addu	t4,t6,t7
    5c98:	aced0014 	sw	t5,20(a3)
    5c9c:	acec0010 	sw	t4,16(a3)
    5ca0:	02b23823 	subu	a3,s5,s2
    5ca4:	30f5ffff 	andi	s5,a3,0xffff
    5ca8:	16a0ffb8 	bnez	s5,0x5b8c
    5cac:	8f840040 	lw	a0,64(gp)
    5cb0:	8fbf0034 	lw	ra,52(sp)
    5cb4:	8fbe0030 	lw	s8,48(sp)
    5cb8:	8fb7002c 	lw	s7,44(sp)
    5cbc:	8fb60028 	lw	s6,40(sp)
    5cc0:	8fb50024 	lw	s5,36(sp)
    5cc4:	8fb40020 	lw	s4,32(sp)
    5cc8:	8fb3001c 	lw	s3,28(sp)
    5ccc:	8fb20018 	lw	s2,24(sp)
    5cd0:	8fb10014 	lw	s1,20(sp)
    5cd4:	8fb00010 	lw	s0,16(sp)
    5cd8:	03e00008 	jr	ra
    5cdc:	27bd0038 	addiu	sp,sp,56
    5ce0:	1477ffcc 	bne	v1,s7,0x5c14
    5ce4:	8f860044 	lw	a2,68(gp)
    5ce8:	0e000dc1 	jal	0x8003704
    5cec:	02002021 	move	a0,s0
    5cf0:	00401821 	move	v1,v0
    5cf4:	8f860044 	lw	a2,68(gp)
    5cf8:	10c0ffc9 	beqz	a2,0x5c20
    5cfc:	02031023 	subu	v0,s0,v1
    5d00:	02707023 	subu	t6,s3,s0
    5d04:	8f870040 	lw	a3,64(gp)
    5d08:	01c36821 	addu	t5,t6,v1
    5d0c:	0a000288 	j	0x8000a20
    5d10:	31b2ffff 	andi	s2,t5,0xffff
    5d14:	8f860044 	lw	a2,68(gp)
    5d18:	14c0ffc9 	bnez	a2,0x5c40
    5d1c:	3c110020 	lui	s1,0x20
    5d20:	3c108000 	lui	s0,0x8000
    5d24:	0a000252 	j	0x8000948
    5d28:	ae110030 	sw	s1,48(s0)
    5d2c:	0e0003fa 	jal	0x8000fe8
    5d30:	02002021 	move	a0,s0
    5d34:	0a00027f 	j	0x80009fc
    5d38:	00401821 	move	v1,v0
    5d3c:	02002021 	move	a0,s0
    5d40:	0e000811 	jal	0x8002044
    5d44:	02202821 	move	a1,s1
    5d48:	0a00027f 	j	0x80009fc
    5d4c:	00401821 	move	v1,v0
    5d50:	0e000192 	jal	0x8000648
    5d54:	00000000 	nop
    5d58:	0a00026b 	j	0x80009ac
    5d5c:	02b23823 	subu	a3,s5,s2
    5d60:	27bdffc8 	addiu	sp,sp,-56
    5d64:	afb7002c 	sw	s7,44(sp)
    5d68:	afb60028 	sw	s6,40(sp)
    5d6c:	afb50024 	sw	s5,36(sp)
    5d70:	afb40020 	sw	s4,32(sp)
    5d74:	afb3001c 	sw	s3,28(sp)
    5d78:	afb20018 	sw	s2,24(sp)
    5d7c:	afb10014 	sw	s1,20(sp)
    5d80:	afb00010 	sw	s0,16(sp)
    5d84:	afbf0030 	sw	ra,48(sp)
    5d88:	0e0000e6 	jal	0x8000398
    5d8c:	24130001 	li	s3,1
    5d90:	3c047fff 	lui	a0,0x7fff
    5d94:	3c038008 	lui	v1,0x8008
    5d98:	3c022000 	lui	v0,0x2000
    5d9c:	3c010800 	lui	at,0x800
    5da0:	ac200070 	sw	zero,112(at)
    5da4:	3497ffff 	ori	s7,a0,0xffff
    5da8:	34750080 	ori	s5,v1,0x80
    5dac:	34520003 	ori	s2,v0,0x3
    5db0:	3c1612c0 	lui	s6,0x12c0
    5db4:	24140001 	li	s4,1
    5db8:	3c108000 	lui	s0,0x8000
    5dbc:	2411ff80 	li	s1,-128
    5dc0:	0e0001e9 	jal	0x80007a4
    5dc4:	00000000 	nop
    5dc8:	8f870048 	lw	a3,72(gp)
    5dcc:	8f8b0018 	lw	t3,24(gp)
    5dd0:	8f890014 	lw	t1,20(gp)
    5dd4:	8cea00ec 	lw	t2,236(a3)
    5dd8:	8ce800e8 	lw	t0,232(a3)
    5ddc:	014b302b 	sltu	a2,t2,t3
    5de0:	01092823 	subu	a1,t0,t1
    5de4:	00a61023 	subu	v0,a1,a2
    5de8:	14400006 	bnez	v0,0x5e04
    5dec:	014b1823 	subu	v1,t2,t3
    5df0:	1440000e 	bnez	v0,0x5e2c
    5df4:	3c058000 	lui	a1,0x8000
    5df8:	02c3602b 	sltu	t4,s6,v1
    5dfc:	1180000b 	beqz	t4,0x5e2c
    5e00:	00000000 	nop
    5e04:	3c056000 	lui	a1,0x6000
    5e08:	8cee00ec 	lw	t6,236(a3)
    5e0c:	8ced00e8 	lw	t5,232(a3)
    5e10:	8ca4180c 	lw	a0,6156(a1)
    5e14:	af8e0018 	sw	t6,24(gp)
    5e18:	04800045 	bltz	a0,0x5f30
    5e1c:	af8d0014 	sw	t5,20(gp)
    5e20:	8f8f0010 	lw	t7,16(gp)
    5e24:	adf40000 	sw	s4,0(t7)
    5e28:	3c058000 	lui	a1,0x8000
    5e2c:	8cbf0000 	lw	ra,0(a1)
    5e30:	3bf90001 	xori	t9,ra,0x1
    5e34:	33380001 	andi	t8,t9,0x1
    5e38:	1700ffe1 	bnez	t8,0x5dc0
    5e3c:	3c038000 	lui	v1,0x8000
    5e40:	8c620100 	lw	v0,256(v1)
    5e44:	24060c00 	li	a2,3072
    5e48:	10460009 	beq	v0,a2,0x5e70
    5e4c:	00000000 	nop
    5e50:	8c680100 	lw	t0,256(v1)
    5e54:	2d043080 	sltiu	a0,t0,12416
    5e58:	54800010 	bnezl	a0,0x5e9c
    5e5c:	3c048000 	lui	a0,0x8000
    5e60:	8c690100 	lw	t1,256(v1)
    5e64:	2d233181 	sltiu	v1,t1,12673
    5e68:	1060000c 	beqz	v1,0x5e9c
    5e6c:	3c048000 	lui	a0,0x8000
    5e70:	8caa0100 	lw	t2,256(a1)
    5e74:	11460004 	beq	t2,a2,0x5e88
    5e78:	00002021 	move	a0,zero
    5e7c:	8ca60100 	lw	a2,256(a1)
    5e80:	24c5ff81 	addiu	a1,a2,-127
    5e84:	30a400ff 	andi	a0,a1,0xff
    5e88:	8e0b0100 	lw	t3,256(s0)
    5e8c:	0e00020d 	jal	0x8000834
    5e90:	ae0b0024 	sw	t3,36(s0)
    5e94:	0a0002f3 	j	0x8000bcc
    5e98:	3c048000 	lui	a0,0x8000
    5e9c:	8c8e0100 	lw	t6,256(a0)
    5ea0:	240c0020 	li	t4,32
    5ea4:	ac8e0020 	sw	t6,32(a0)
    5ea8:	92ad0000 	lbu	t5,0(s5)
    5eac:	31a300ff 	andi	v1,t5,0xff
    5eb0:	106c0023 	beq	v1,t4,0x5f40
    5eb4:	24070050 	li	a3,80
    5eb8:	10670026 	beq	v1,a3,0x5f54
    5ebc:	00000000 	nop
    5ec0:	3c048000 	lui	a0,0x8000
    5ec4:	8c8f0100 	lw	t7,256(a0)
    5ec8:	15e00003 	bnez	t7,0x5ed8
    5ecc:	00000000 	nop
    5ed0:	56600014 	bnezl	s3,0x5f24
    5ed4:	3c044000 	lui	a0,0x4000
    5ed8:	8c870100 	lw	a3,256(a0)
    5edc:	8c8d0100 	lw	t5,256(a0)
    5ee0:	00009821 	move	s3,zero
    5ee4:	00f17024 	and	t6,a3,s1
    5ee8:	000e5940 	sll	t3,t6,0x5
    5eec:	31ac007f 	andi	t4,t5,0x7f
    5ef0:	016c3025 	or	a2,t3,t4
    5ef4:	00d22825 	or	a1,a2,s2
    5ef8:	ac850830 	sw	a1,2096(a0)
    5efc:	8c8a0100 	lw	t2,256(a0)
    5f00:	8c830100 	lw	v1,256(a0)
    5f04:	25490100 	addiu	t1,t2,256
    5f08:	01311024 	and	v0,t1,s1
    5f0c:	0002f940 	sll	ra,v0,0x5
    5f10:	3068007f 	andi	t0,v1,0x7f
    5f14:	03e8c825 	or	t9,ra,t0
    5f18:	0332c025 	or	t8,t9,s2
    5f1c:	ac980830 	sw	t8,2096(a0)
    5f20:	3c044000 	lui	a0,0x4000
    5f24:	ae040138 	sw	a0,312(s0)
    5f28:	0a0002b2 	j	0x8000ac8
    5f2c:	00000000 	nop
    5f30:	00973824 	and	a3,a0,s7
    5f34:	aca7180c 	sw	a3,6156(a1)
    5f38:	0a0002cb 	j	0x8000b2c
    5f3c:	8f8f0010 	lw	t7,16(gp)
    5f40:	8c850100 	lw	a1,256(a0)
    5f44:	0e0007c3 	jal	0x8001f0c
    5f48:	24040080 	li	a0,128
    5f4c:	0a0002f3 	j	0x8000bcc
    5f50:	3c048000 	lui	a0,0x8000
    5f54:	8c840100 	lw	a0,256(a0)
    5f58:	0e001420 	jal	0x8005080
    5f5c:	00000000 	nop
    5f60:	0a0002f3 	j	0x8000bcc
    5f64:	3c048000 	lui	a0,0x8000
    5f68:	00a4102b 	sltu	v0,a1,a0
    5f6c:	24030001 	li	v1,1
    5f70:	10400009 	beqz	v0,0x5f98
    5f74:	00003021 	move	a2,zero
    5f78:	00052840 	sll	a1,a1,0x1
    5f7c:	00a4102b 	sltu	v0,a1,a0
    5f80:	04a00003 	bltz	a1,0x5f90
    5f84:	00031840 	sll	v1,v1,0x1
    5f88:	5440fffc 	bnezl	v0,0x5f7c
    5f8c:	00052840 	sll	a1,a1,0x1
    5f90:	5060000a 	beqzl	v1,0x5fbc
    5f94:	0004182b 	sltu	v1,zero,a0
    5f98:	0085382b 	sltu	a3,a0,a1
    5f9c:	54e00004 	bnezl	a3,0x5fb0
    5fa0:	00031842 	srl	v1,v1,0x1
    5fa4:	00c33025 	or	a2,a2,v1
    5fa8:	00852023 	subu	a0,a0,a1
    5fac:	00031842 	srl	v1,v1,0x1
    5fb0:	1460fff9 	bnez	v1,0x5f98
    5fb4:	00052842 	srl	a1,a1,0x1
    5fb8:	0004182b 	sltu	v1,zero,a0
    5fbc:	03e00008 	jr	ra
    5fc0:	00c31021 	addu	v0,a2,v1
    5fc4:	3084ffff 	andi	a0,a0,0xffff
    5fc8:	30c600ff 	andi	a2,a2,0xff
    5fcc:	3c078000 	lui	a3,0x8000
    5fd0:	8ce201b8 	lw	v0,440(a3)
    5fd4:	0440fffe 	bltz	v0,0x5fd0
    5fd8:	00064c00 	sll	t1,a2,0x10
    5fdc:	01243025 	or	a2,t1,a0
    5fe0:	3c082000 	lui	t0,0x2000
    5fe4:	00c82025 	or	a0,a2,t0
    5fe8:	3c031000 	lui	v1,0x1000
    5fec:	ace00180 	sw	zero,384(a3)
    5ff0:	ace50184 	sw	a1,388(a3)
    5ff4:	ace40188 	sw	a0,392(a3)
    5ff8:	03e00008 	jr	ra
    5ffc:	ace301b8 	sw	v1,440(a3)
    6000:	3c066000 	lui	a2,0x6000
    6004:	8cc5201c 	lw	a1,8220(a2)
    6008:	2402fff0 	li	v0,-16
    600c:	30830200 	andi	v1,a0,0x200
    6010:	30860100 	andi	a2,a0,0x100
    6014:	1060000e 	beqz	v1,0x6050
    6018:	00a22824 	and	a1,a1,v0
    601c:	34a50001 	ori	a1,a1,0x1
    6020:	30873000 	andi	a3,a0,0x3000
    6024:	10e00005 	beqz	a3,0x603c
    6028:	30830c00 	andi	v1,a0,0xc00
    602c:	34a50004 	ori	a1,a1,0x4
    6030:	3c046000 	lui	a0,0x6000
    6034:	03e00008 	jr	ra
    6038:	ac85201c 	sw	a1,8220(a0)
    603c:	1060fffd 	beqz	v1,0x6034
    6040:	3c046000 	lui	a0,0x6000
    6044:	34a50008 	ori	a1,a1,0x8
    6048:	03e00008 	jr	ra
    604c:	ac85201c 	sw	a1,8220(a0)
    6050:	54c0fff3 	bnezl	a2,0x6020
    6054:	34a50002 	ori	a1,a1,0x2
    6058:	0a00034b 	j	0x8000d2c
    605c:	30873000 	andi	a3,a0,0x3000
    6060:	27bdffe8 	addiu	sp,sp,-24
    6064:	afb00010 	sw	s0,16(sp)
    6068:	afbf0014 	sw	ra,20(sp)
    606c:	3c076000 	lui	a3,0x6000
    6070:	24060002 	li	a2,2
    6074:	10800011 	beqz	a0,0x60bc
    6078:	00a08021 	move	s0,a1
    607c:	8f830050 	lw	v1,80(gp)
    6080:	0e000342 	jal	0x8000d08
    6084:	8c640018 	lw	a0,24(v1)
    6088:	8f820050 	lw	v0,80(gp)
    608c:	00002021 	move	a0,zero
    6090:	24060001 	li	a2,1
    6094:	8c45000c 	lw	a1,12(v0)
    6098:	0e000333 	jal	0x8000ccc
    609c:	00000000 	nop
    60a0:	16000002 	bnez	s0,0x60ac
    60a4:	24020003 	li	v0,3
    60a8:	00001021 	move	v0,zero
    60ac:	8fbf0014 	lw	ra,20(sp)
    60b0:	8fb00010 	lw	s0,16(sp)
    60b4:	03e00008 	jr	ra
    60b8:	27bd0018 	addiu	sp,sp,24
    60bc:	8ce8201c 	lw	t0,8220(a3)
    60c0:	2409fff0 	li	t1,-16
    60c4:	01092824 	and	a1,t0,t1
    60c8:	ace5201c 	sw	a1,8220(a3)
    60cc:	8f870050 	lw	a3,80(gp)
    60d0:	0a000368 	j	0x8000da0
    60d4:	8ce5000c 	lw	a1,12(a3)
    60d8:	3c02600e 	lui	v0,0x600e
    60dc:	00804021 	move	t0,a0
    60e0:	34460100 	ori	a2,v0,0x100
    60e4:	24090018 	li	t1,24
	...
    60f4:	3c0a0050 	lui	t2,0x50
    60f8:	3c038000 	lui	v1,0x8000
    60fc:	35470200 	ori	a3,t2,0x200
    6100:	ac680038 	sw	t0,56(v1)
    6104:	34640400 	ori	a0,v1,0x400
    6108:	ac65003c 	sw	a1,60(v1)
    610c:	ac670030 	sw	a3,48(v1)
    6110:	8c6c0000 	lw	t4,0(v1)
    6114:	318b0020 	andi	t3,t4,0x20
    6118:	1160fffd 	beqz	t3,0x6110
    611c:	2407ffff 	li	a3,-1
    6120:	2403007f 	li	v1,127
    6124:	8c8d0000 	lw	t5,0(a0)
    6128:	2463ffff 	addiu	v1,v1,-1
    612c:	24840004 	addiu	a0,a0,4
    6130:	accd0000 	sw	t5,0(a2)
    6134:	1467fffb 	bne	v1,a3,0x6124
    6138:	24c60004 	addiu	a2,a2,4
	...
    6148:	24a40200 	addiu	a0,a1,512
    614c:	0085282b 	sltu	a1,a0,a1
    6150:	3c030020 	lui	v1,0x20
    6154:	3c0e8000 	lui	t6,0x8000
    6158:	2529ffff 	addiu	t1,t1,-1
    615c:	01054021 	addu	t0,t0,a1
    6160:	adc30030 	sw	v1,48(t6)
    6164:	1520ffe0 	bnez	t1,0x60e8
    6168:	00802821 	move	a1,a0
    616c:	03e00008 	jr	ra
    6170:	00000000 	nop
    6174:	8f820050 	lw	v0,80(gp)
    6178:	27bdffd8 	addiu	sp,sp,-40
    617c:	afb3001c 	sw	s3,28(sp)
    6180:	afbf0020 	sw	ra,32(sp)
    6184:	afb20018 	sw	s2,24(sp)
    6188:	afb10014 	sw	s1,20(sp)
    618c:	afb00010 	sw	s0,16(sp)
    6190:	94460002 	lhu	a2,2(v0)
    6194:	00809821 	move	s3,a0
    6198:	8c520018 	lw	s2,24(v0)
    619c:	2cc30081 	sltiu	v1,a2,129
    61a0:	8c480004 	lw	t0,4(v0)
    61a4:	8c470008 	lw	a3,8(v0)
    61a8:	8c51000c 	lw	s1,12(v0)
    61ac:	8c490010 	lw	t1,16(v0)
    61b0:	10600007 	beqz	v1,0x61d0
    61b4:	8c4a0014 	lw	t2,20(v0)
    61b8:	2cc40004 	sltiu	a0,a2,4
    61bc:	14800013 	bnez	a0,0x620c
    61c0:	30eb0007 	andi	t3,a3,0x7
    61c4:	30c50003 	andi	a1,a2,0x3
    61c8:	10a00010 	beqz	a1,0x620c
    61cc:	00000000 	nop
    61d0:	2410008b 	li	s0,139
    61d4:	02002021 	move	a0,s0
    61d8:	02202821 	move	a1,s1
    61dc:	0e000333 	jal	0x8000ccc
    61e0:	24060003 	li	a2,3
    61e4:	16600002 	bnez	s3,0x61f0
    61e8:	24020003 	li	v0,3
    61ec:	00001021 	move	v0,zero
    61f0:	8fbf0020 	lw	ra,32(sp)
    61f4:	8fb3001c 	lw	s3,28(sp)
    61f8:	8fb20018 	lw	s2,24(sp)
    61fc:	8fb10014 	lw	s1,20(sp)
    6200:	8fb00010 	lw	s0,16(sp)
    6204:	03e00008 	jr	ra
    6208:	27bd0028 	addiu	sp,sp,40
    620c:	1560fff1 	bnez	t3,0x61d4
    6210:	2410008b 	li	s0,139
    6214:	3c0c8000 	lui	t4,0x8000
    6218:	3c030020 	lui	v1,0x20
    621c:	241f0001 	li	ra,1
    6220:	ad830030 	sw	v1,48(t4)
    6224:	af9f0044 	sw	ra,68(gp)
	...
    6234:	2419fff0 	li	t9,-16
    6238:	24d8000f 	addiu	t8,a2,15
    623c:	03197824 	and	t7,t8,t9
    6240:	3c1000d0 	lui	s0,0xd0
    6244:	ad880038 	sw	t0,56(t4)
    6248:	01f07025 	or	t6,t7,s0
    624c:	24cd0003 	addiu	t5,a2,3
    6250:	3c08600e 	lui	t0,0x600e
    6254:	ad87003c 	sw	a3,60(t4)
    6258:	35850400 	ori	a1,t4,0x400
    625c:	ad8e0030 	sw	t6,48(t4)
    6260:	000d3882 	srl	a3,t5,0x2
    6264:	3504003c 	ori	a0,t0,0x3c
    6268:	3c038000 	lui	v1,0x8000
    626c:	8c6b0000 	lw	t3,0(v1)
    6270:	31620020 	andi	v0,t3,0x20
    6274:	1040fffd 	beqz	v0,0x626c
    6278:	00000000 	nop
    627c:	10e00008 	beqz	a3,0x62a0
    6280:	24e3ffff 	addiu	v1,a3,-1
    6284:	2407ffff 	li	a3,-1
    6288:	8ca80000 	lw	t0,0(a1)
    628c:	2463ffff 	addiu	v1,v1,-1
    6290:	24a50004 	addiu	a1,a1,4
    6294:	ac880000 	sw	t0,0(a0)
    6298:	1467fffb 	bne	v1,a3,0x6288
    629c:	24840004 	addiu	a0,a0,4
    62a0:	3c04600e 	lui	a0,0x600e
    62a4:	ac860038 	sw	a2,56(a0)
	...
    62b4:	3c070020 	lui	a3,0x20
    62b8:	3c068000 	lui	a2,0x8000
    62bc:	01202021 	move	a0,t1
    62c0:	01402821 	move	a1,t2
    62c4:	acc70030 	sw	a3,48(a2)
    62c8:	0e000378 	jal	0x8000de0
    62cc:	00008021 	move	s0,zero
    62d0:	0e000342 	jal	0x8000d08
    62d4:	02402021 	move	a0,s2
    62d8:	0a0003b8 	j	0x8000ee0
    62dc:	02002021 	move	a0,s0
    62e0:	27bdffe0 	addiu	sp,sp,-32
    62e4:	afb20018 	sw	s2,24(sp)
    62e8:	3092ffff 	andi	s2,a0,0xffff
    62ec:	afb10014 	sw	s1,20(sp)
    62f0:	afbf001c 	sw	ra,28(sp)
    62f4:	afb00010 	sw	s0,16(sp)
    62f8:	1640000d 	bnez	s2,0x6330
    62fc:	00008821 	move	s1,zero
    6300:	0a000427 	j	0x800109c
    6304:	02201021 	move	v0,s1
    6308:	24050003 	li	a1,3
    630c:	50850027 	beql	a0,a1,0x63ac
    6310:	8ce5000c 	lw	a1,12(a3)
    6314:	0000000d 	break
    6318:	262c0001 	addiu	t4,s1,1
    631c:	3191ffff 	andi	s1,t4,0xffff
    6320:	24eb0020 	addiu	t3,a3,32
    6324:	0232502b 	sltu	t2,s1,s2
    6328:	11400019 	beqz	t2,0x6390
    632c:	af8b0050 	sw	t3,80(gp)
    6330:	8f820044 	lw	v0,68(gp)
    6334:	14400016 	bnez	v0,0x6390
    6338:	8f870050 	lw	a3,80(gp)
    633c:	3c067000 	lui	a2,0x7000
    6340:	3c032000 	lui	v1,0x2000
    6344:	8ce50000 	lw	a1,0(a3)
    6348:	00a62024 	and	a0,a1,a2
    634c:	14830010 	bne	a0,v1,0x6390
    6350:	8f840058 	lw	a0,88(gp)
    6354:	00054402 	srl	t0,a1,0x10
    6358:	3c098000 	lui	t1,0x8000
    635c:	00a98024 	and	s0,a1,t1
    6360:	1480ffe9 	bnez	a0,0x6308
    6364:	310600ff 	andi	a2,t0,0xff
    6368:	2cca000b 	sltiu	t2,a2,11
    636c:	1140ffeb 	beqz	t2,0x631c
    6370:	262c0001 	addiu	t4,s1,1
    6374:	00066880 	sll	t5,a2,0x2
    6378:	3c0e0800 	lui	t6,0x800
    637c:	25ce52a0 	addiu	t6,t6,21152
    6380:	01ae6021 	addu	t4,t5,t6
    6384:	8d8b0000 	lw	t3,0(t4)
    6388:	01600008 	jr	t3
    638c:	00000000 	nop
    6390:	02201021 	move	v0,s1
    6394:	8fbf001c 	lw	ra,28(sp)
    6398:	8fb20018 	lw	s2,24(sp)
    639c:	8fb10014 	lw	s1,20(sp)
    63a0:	8fb00010 	lw	s0,16(sp)
    63a4:	03e00008 	jr	ra
    63a8:	27bd0020 	addiu	sp,sp,32
    63ac:	0e000333 	jal	0x8000ccc
    63b0:	24040084 	li	a0,132
    63b4:	1600ffd8 	bnez	s0,0x6318
    63b8:	8f870050 	lw	a3,80(gp)
    63bc:	0a000408 	j	0x8001020
    63c0:	af800058 	sw	zero,88(gp)
    63c4:	02002821 	move	a1,s0
    63c8:	0e00035a 	jal	0x8000d68
    63cc:	24040001 	li	a0,1
    63d0:	8f870050 	lw	a3,80(gp)
    63d4:	0a000408 	j	0x8001020
    63d8:	af820058 	sw	v0,88(gp)
    63dc:	02002821 	move	a1,s0
    63e0:	0e00035a 	jal	0x8000d68
    63e4:	00002021 	move	a0,zero
    63e8:	0a000437 	j	0x80010dc
    63ec:	8f870050 	lw	a3,80(gp)
    63f0:	0e00039f 	jal	0x8000e7c
    63f4:	02002021 	move	a0,s0
    63f8:	8f870050 	lw	a3,80(gp)
    63fc:	0a000408 	j	0x8001020
    6400:	af820058 	sw	v0,88(gp)
    6404:	30afffff 	andi	t7,a1,0xffff
    6408:	000f19c0 	sll	v1,t7,0x7
    640c:	3c048000 	lui	a0,0x8000
    6410:	8c9001b8 	lw	s0,440(a0)
    6414:	0600fffe 	bltz	s0,0x6410
    6418:	3c192004 	lui	t9,0x2004
    641c:	3c181000 	lui	t8,0x1000
    6420:	ac830180 	sw	v1,384(a0)
    6424:	ac800184 	sw	zero,388(a0)
    6428:	ac990188 	sw	t9,392(a0)
    642c:	ac9801b8 	sw	t8,440(a0)
    6430:	0a000409 	j	0x8001024
    6434:	262c0001 	addiu	t4,s1,1
    6438:	90e20002 	lbu	v0,2(a3)
    643c:	90ff0003 	lbu	ra,3(a3)
    6440:	00002021 	move	a0,zero
    6444:	00023a00 	sll	a3,v0,0x8
    6448:	00ff2825 	or	a1,a3,ra
    644c:	24060008 	li	a2,8
    6450:	0e000333 	jal	0x8000ccc
    6454:	00000000 	nop
    6458:	1600ffdd 	bnez	s0,0x63d0
    645c:	24020003 	li	v0,3
    6460:	8f870050 	lw	a3,80(gp)
    6464:	00001021 	move	v0,zero
    6468:	0a000408 	j	0x8001020
    646c:	af820058 	sw	v0,88(gp)
    6470:	90e50002 	lbu	a1,2(a3)
    6474:	00002021 	move	a0,zero
    6478:	0a000456 	j	0x8001158
    647c:	24060009 	li	a2,9
    6480:	94e50004 	lhu	a1,4(a3)
    6484:	90e90003 	lbu	t1,3(a3)
    6488:	90e30002 	lbu	v1,2(a3)
    648c:	00053400 	sll	a2,a1,0x10
    6490:	00094200 	sll	t0,t1,0x8
    6494:	00c82025 	or	a0,a2,t0
    6498:	00832825 	or	a1,a0,v1
    649c:	2406000a 	li	a2,10
    64a0:	0a000456 	j	0x8001158
    64a4:	00002021 	move	a0,zero
    64a8:	90e50002 	lbu	a1,2(a3)
    64ac:	00002021 	move	a0,zero
    64b0:	0a000456 	j	0x8001158
    64b4:	2406000b 	li	a2,11
    64b8:	000449c2 	srl	t1,a0,0x7
    64bc:	3127003f 	andi	a3,t1,0x3f
    64c0:	00044342 	srl	t0,a0,0xd
    64c4:	3c028000 	lui	v0,0x8000
    64c8:	00082040 	sll	a0,t0,0x1
    64cc:	24031680 	li	v1,5760
    64d0:	2ce60020 	sltiu	a2,a3,32
    64d4:	ac43002c 	sw	v1,44(v0)
    64d8:	24eaffe0 	addiu	t2,a3,-32
    64dc:	24820001 	addiu	v0,a0,1
    64e0:	14c00003 	bnez	a2,0x64f0
    64e4:	30a900ff 	andi	t1,a1,0xff
    64e8:	00801021 	move	v0,a0
    64ec:	314700ff 	andi	a3,t2,0xff
    64f0:	00026080 	sll	t4,v0,0x2
    64f4:	3c0d8000 	lui	t5,0x8000
    64f8:	240a0001 	li	t2,1
    64fc:	018d2021 	addu	a0,t4,t5
    6500:	3c0b000e 	lui	t3,0xe
    6504:	00ea2804 	sllv	a1,t2,a3
    6508:	008b3021 	addu	a2,a0,t3
    650c:	11200005 	beqz	t1,0x6524
    6510:	00053827 	nor	a3,zero,a1
    6514:	8cce0000 	lw	t6,0(a2)
    6518:	01c53825 	or	a3,t6,a1
    651c:	03e00008 	jr	ra
    6520:	acc70000 	sw	a3,0(a2)
    6524:	8cd80000 	lw	t8,0(a2)
    6528:	03077824 	and	t7,t8,a3
    652c:	03e00008 	jr	ra
    6530:	accf0000 	sw	t7,0(a2)
    6534:	27bdffe0 	addiu	sp,sp,-32
    6538:	afb10014 	sw	s1,20(sp)
    653c:	afb00010 	sw	s0,16(sp)
    6540:	afbf0018 	sw	ra,24(sp)
    6544:	3c076000 	lui	a3,0x6000
    6548:	8ce40808 	lw	a0,2056(a3)
    654c:	3402f000 	li	v0,0xf000
    6550:	3c116000 	lui	s1,0x6000
    6554:	3083f000 	andi	v1,a0,0xf000
    6558:	240501c0 	li	a1,448
    655c:	3c04800e 	lui	a0,0x800e
    6560:	00003021 	move	a2,zero
    6564:	10620006 	beq	v1,v0,0x6580
    6568:	24100001 	li	s0,1
    656c:	8cea0808 	lw	t2,2056(a3)
    6570:	3149f000 	andi	t1,t2,0xf000
    6574:	3928e000 	xori	t0,t1,0xe000
    6578:	0008382b 	sltu	a3,zero,t0
    657c:	00078040 	sll	s0,a3,0x1
    6580:	3c0d0200 	lui	t5,0x200
    6584:	ae2d0814 	sw	t5,2068(s1)
    6588:	240c1680 	li	t4,5760
    658c:	3c0b8000 	lui	t3,0x8000
    6590:	8e274400 	lw	a3,17408(s1)
    6594:	0e000e6a 	jal	0x80039a8
    6598:	ad6c002c 	sw	t4,44(t3)
    659c:	12000004 	beqz	s0,0x65b0
    65a0:	3c021691 	lui	v0,0x1691
    65a4:	24050001 	li	a1,1
    65a8:	12050010 	beq	s0,a1,0x65ec
    65ac:	3c023d6c 	lui	v0,0x3d6c
    65b0:	345800e0 	ori	t8,v0,0xe0
    65b4:	ae384408 	sw	t8,17416(s1)
    65b8:	3c110800 	lui	s1,0x800
    65bc:	8e31007c 	lw	s1,124(s1)
    65c0:	8fbf0018 	lw	ra,24(sp)
    65c4:	3c066000 	lui	a2,0x6000
    65c8:	00118540 	sll	s0,s1,0x15
    65cc:	360f1680 	ori	t7,s0,0x1680
    65d0:	8fb10014 	lw	s1,20(sp)
    65d4:	8fb00010 	lw	s0,16(sp)
    65d8:	3c0e0200 	lui	t6,0x200
    65dc:	27bd0020 	addiu	sp,sp,32
    65e0:	accf4420 	sw	t7,17440(a2)
    65e4:	03e00008 	jr	ra
    65e8:	acce0810 	sw	t6,2064(a2)
    65ec:	3c0218da 	lui	v0,0x18da
    65f0:	345800e0 	ori	t8,v0,0xe0
    65f4:	ae384408 	sw	t8,17416(s1)
    65f8:	3c110800 	lui	s1,0x800
    65fc:	8e31007c 	lw	s1,124(s1)
    6600:	8fbf0018 	lw	ra,24(sp)
    6604:	3c066000 	lui	a2,0x6000
    6608:	00118540 	sll	s0,s1,0x15
    660c:	360f1680 	ori	t7,s0,0x1680
    6610:	8fb10014 	lw	s1,20(sp)
    6614:	8fb00010 	lw	s0,16(sp)
    6618:	3c0e0200 	lui	t6,0x200
    661c:	27bd0020 	addiu	sp,sp,32
    6620:	accf4420 	sw	t7,17440(a2)
    6624:	03e00008 	jr	ra
    6628:	acce0810 	sw	t6,2064(a2)
    662c:	0a000470 	j	0x80011c0
    6630:	24050001 	li	a1,1
    6634:	0a000470 	j	0x80011c0
    6638:	00002821 	move	a1,zero
    663c:	24020400 	li	v0,1024
    6640:	a7820024 	sh	v0,36(gp)
    6644:	a780001c 	sh	zero,28(gp)
    6648:	00002021 	move	a0,zero
    664c:	3c060800 	lui	a2,0x800
    6650:	24c655a8 	addiu	a2,a2,21928
    6654:	2405ffff 	li	a1,-1
    6658:	24890001 	addiu	t1,a0,1
    665c:	00044080 	sll	t0,a0,0x2
    6660:	3124ffff 	andi	a0,t1,0xffff
    6664:	01061821 	addu	v1,t0,a2
    6668:	2c870020 	sltiu	a3,a0,32
    666c:	14e0fffa 	bnez	a3,0x6658
    6670:	ac650000 	sw	a1,0(v1)
    6674:	24040400 	li	a0,1024
    6678:	a7840026 	sh	a0,38(gp)
    667c:	a780001e 	sh	zero,30(gp)
    6680:	00002021 	move	a0,zero
    6684:	3c060800 	lui	a2,0x800
    6688:	24c65628 	addiu	a2,a2,22056
    668c:	2405ffff 	li	a1,-1
    6690:	248d0001 	addiu	t5,a0,1
    6694:	00046080 	sll	t4,a0,0x2
    6698:	31a4ffff 	andi	a0,t5,0xffff
    669c:	01865821 	addu	t3,t4,a2
    66a0:	2c8a0020 	sltiu	t2,a0,32
    66a4:	1540fffa 	bnez	t2,0x6690
    66a8:	ad650000 	sw	a1,0(t3)
    66ac:	a7800028 	sh	zero,40(gp)
    66b0:	a7800020 	sh	zero,32(gp)
    66b4:	a7800022 	sh	zero,34(gp)
    66b8:	00002021 	move	a0,zero
    66bc:	3c060800 	lui	a2,0x800
    66c0:	24c656a8 	addiu	a2,a2,22184
    66c4:	2405ffff 	li	a1,-1
    66c8:	24990001 	addiu	t9,a0,1
    66cc:	0004c080 	sll	t8,a0,0x2
    66d0:	3324ffff 	andi	a0,t9,0xffff
    66d4:	03067821 	addu	t7,t8,a2
    66d8:	2c8e0004 	sltiu	t6,a0,4
    66dc:	15c0fffa 	bnez	t6,0x66c8
    66e0:	ade50000 	sw	a1,0(t7)
    66e4:	3c056000 	lui	a1,0x6000
    66e8:	8ca73d00 	lw	a3,15616(a1)
    66ec:	2403e08f 	li	v1,-8049
    66f0:	00e31024 	and	v0,a3,v1
    66f4:	34460140 	ori	a2,v0,0x140
    66f8:	03e00008 	jr	ra
    66fc:	aca63d00 	sw	a2,15616(a1)
    6700:	2487007f 	addiu	a3,a0,127
    6704:	000731c2 	srl	a2,a3,0x7
    6708:	24c5ffff 	addiu	a1,a2,-1
    670c:	000518c2 	srl	v1,a1,0x3
    6710:	24640001 	addiu	a0,v1,1
    6714:	3082ffff 	andi	v0,a0,0xffff
    6718:	000238c0 	sll	a3,v0,0x3
    671c:	a7840030 	sh	a0,48(gp)
    6720:	3c010800 	lui	at,0x800
    6724:	ac270030 	sw	a3,48(at)
    6728:	af80002c 	sw	zero,44(gp)
    672c:	00002821 	move	a1,zero
    6730:	00002021 	move	a0,zero
    6734:	00003021 	move	a2,zero
    6738:	24890001 	addiu	t1,a0,1
    673c:	00a72821 	addu	a1,a1,a3
    6740:	3124ffff 	andi	a0,t1,0xffff
    6744:	2ca81701 	sltiu	t0,a1,5889
    6748:	11000003 	beqz	t0,0x6758
    674c:	2c830080 	sltiu	v1,a0,128
    6750:	1460fff9 	bnez	v1,0x6738
    6754:	24c60001 	addiu	a2,a2,1
    6758:	00c02821 	move	a1,a2
    675c:	af86002c 	sw	a2,44(gp)
    6760:	10c0001d 	beqz	a2,0x67d8
    6764:	a786002a 	sh	a2,42(gp)
    6768:	24caffff 	addiu	t2,a2,-1
    676c:	000a1142 	srl	v0,t2,0x5
    6770:	3c080800 	lui	t0,0x800
    6774:	250856a8 	addiu	t0,t0,22184
    6778:	1040000a 	beqz	v0,0x67a4
    677c:	00002021 	move	a0,zero
    6780:	00403021 	move	a2,v0
    6784:	2407ffff 	li	a3,-1
    6788:	248e0001 	addiu	t6,a0,1
    678c:	00046880 	sll	t5,a0,0x2
    6790:	31c4ffff 	andi	a0,t6,0xffff
    6794:	01a86021 	addu	t4,t5,t0
    6798:	0086582b 	sltu	t3,a0,a2
    679c:	1560fffa 	bnez	t3,0x6788
    67a0:	ad870000 	sw	a3,0(t4)
    67a4:	30a2001f 	andi	v0,a1,0x1f
    67a8:	50400008 	beqzl	v0,0x67cc
    67ac:	00043080 	sll	a2,a0,0x2
    67b0:	24030001 	li	v1,1
    67b4:	0043c804 	sllv	t9,v1,v0
    67b8:	00041080 	sll	v0,a0,0x2
    67bc:	00487821 	addu	t7,v0,t0
    67c0:	2738ffff 	addiu	t8,t9,-1
    67c4:	03e00008 	jr	ra
    67c8:	adf80000 	sw	t8,0(t7)
    67cc:	00c82021 	addu	a0,a2,t0
    67d0:	2405ffff 	li	a1,-1
    67d4:	ac850000 	sw	a1,0(a0)
    67d8:	03e00008 	jr	ra
    67dc:	00000000 	nop
    67e0:	30a5ffff 	andi	a1,a1,0xffff
    67e4:	30c6ffff 	andi	a2,a2,0xffff
    67e8:	30a8001f 	andi	t0,a1,0x1f
    67ec:	00806021 	move	t4,a0
    67f0:	30e700ff 	andi	a3,a3,0xff
    67f4:	00052942 	srl	a1,a1,0x5
    67f8:	00005021 	move	t2,zero
    67fc:	10c0001d 	beqz	a2,0x6874
    6800:	24090001 	li	t1,1
    6804:	240b0001 	li	t3,1
    6808:	25180001 	addiu	t8,t0,1
    680c:	010b2004 	sllv	a0,t3,t0
    6810:	330800ff 	andi	t0,t8,0xff
    6814:	01267826 	xor	t7,t1,a2
    6818:	390e0020 	xori	t6,t0,0x20
    681c:	2ded0001 	sltiu	t5,t7,1
    6820:	2dc20001 	sltiu	v0,t6,1
    6824:	01a21825 	or	v1,t5,v0
    6828:	1060000d 	beqz	v1,0x6860
    682c:	01445025 	or	t2,t2,a0
    6830:	0005c880 	sll	t9,a1,0x2
    6834:	032c4021 	addu	t0,t9,t4
    6838:	01001821 	move	v1,t0
    683c:	10e0000f 	beqz	a3,0x687c
    6840:	000a2027 	nor	a0,zero,t2
    6844:	8d040000 	lw	a0,0(t0)
    6848:	008a1825 	or	v1,a0,t2
    684c:	ad030000 	sw	v1,0(t0)
    6850:	24ad0001 	addiu	t5,a1,1
    6854:	00004021 	move	t0,zero
    6858:	00005021 	move	t2,zero
    685c:	31a5ffff 	andi	a1,t5,0xffff
    6860:	252e0001 	addiu	t6,t1,1
    6864:	31c9ffff 	andi	t1,t6,0xffff
    6868:	00c9102b 	sltu	v0,a2,t1
    686c:	1040ffe7 	beqz	v0,0x680c
    6870:	25180001 	addiu	t8,t0,1
    6874:	03e00008 	jr	ra
    6878:	00000000 	nop
    687c:	8d0a0000 	lw	t2,0(t0)
    6880:	01444024 	and	t0,t2,a0
    6884:	0a000556 	j	0x8001558
    6888:	ac680000 	sw	t0,0(v1)
    688c:	27bdffe8 	addiu	sp,sp,-24
    6890:	30a5ffff 	andi	a1,a1,0xffff
    6894:	30c6ffff 	andi	a2,a2,0xffff
    6898:	afb00010 	sw	s0,16(sp)
    689c:	afbf0014 	sw	ra,20(sp)
    68a0:	30e7ffff 	andi	a3,a3,0xffff
    68a4:	00005021 	move	t2,zero
    68a8:	3410ffff 	li	s0,0xffff
    68ac:	00006021 	move	t4,zero
    68b0:	24af001f 	addiu	t7,a1,31
    68b4:	00c04821 	move	t1,a2
    68b8:	24180001 	li	t8,1
    68bc:	24190020 	li	t9,32
    68c0:	05e00016 	bltz	t7,0x691c
    68c4:	01e01021 	move	v0,t7
    68c8:	0002f943 	sra	ra,v0,0x5
    68cc:	019f682a 	slt	t5,t4,ra
    68d0:	0009702b 	sltu	t6,zero,t1
    68d4:	01ae4024 	and	t0,t5,t6
    68d8:	11000017 	beqz	t0,0x6938
    68dc:	000c1880 	sll	v1,t4,0x2
    68e0:	00641021 	addu	v0,v1,a0
    68e4:	10e00005 	beqz	a3,0x68fc
    68e8:	8c4b0000 	lw	t3,0(v0)
    68ec:	00f84004 	sllv	t0,t8,a3
    68f0:	00083823 	negu	a3,t0
    68f4:	01675824 	and	t3,t3,a3
    68f8:	00003821 	move	a3,zero
    68fc:	15400041 	bnez	t2,0x6a04
    6900:	00004021 	move	t0,zero
    6904:	55600016 	bnezl	t3,0x6960
    6908:	3169ffff 	andi	t1,t3,0xffff
    690c:	258b0001 	addiu	t3,t4,1
    6910:	316cffff 	andi	t4,t3,0xffff
    6914:	05e1ffec 	bgez	t7,0x68c8
    6918:	01e01021 	move	v0,t7
    691c:	24a2003e 	addiu	v0,a1,62
    6920:	0002f943 	sra	ra,v0,0x5
    6924:	019f682a 	slt	t5,t4,ra
    6928:	0009702b 	sltu	t6,zero,t1
    692c:	01ae4024 	and	t0,t5,t6
    6930:	1500ffeb 	bnez	t0,0x68e0
    6934:	000c1880 	sll	v1,t4,0x2
    6938:	15460005 	bne	t2,a2,0x6950
    693c:	3402ffff 	li	v0,0xffff
    6940:	02002821 	move	a1,s0
    6944:	0e00053a 	jal	0x80014e8
    6948:	00003821 	move	a3,zero
    694c:	02001021 	move	v0,s0
    6950:	8fbf0014 	lw	ra,20(sp)
    6954:	8fb00010 	lw	s0,16(sp)
    6958:	03e00008 	jr	ra
    695c:	27bd0018 	addiu	sp,sp,24
    6960:	15200003 	bnez	t1,0x6970
    6964:	01601821 	move	v1,t3
    6968:	000b1c02 	srl	v1,t3,0x10
    696c:	24080010 	li	t0,16
    6970:	306a00ff 	andi	t2,v1,0xff
    6974:	15400005 	bnez	t2,0x698c
    6978:	306e000f 	andi	t6,v1,0xf
    697c:	250d0008 	addiu	t5,t0,8
    6980:	00031a02 	srl	v1,v1,0x8
    6984:	31a800ff 	andi	t0,t5,0xff
    6988:	306e000f 	andi	t6,v1,0xf
    698c:	15c00005 	bnez	t6,0x69a4
    6990:	307f0003 	andi	ra,v1,0x3
    6994:	25100004 	addiu	s0,t0,4
    6998:	00031902 	srl	v1,v1,0x4
    699c:	320800ff 	andi	t0,s0,0xff
    69a0:	307f0003 	andi	ra,v1,0x3
    69a4:	17e00005 	bnez	ra,0x69bc
    69a8:	38690001 	xori	t1,v1,0x1
    69ac:	25020002 	addiu	v0,t0,2
    69b0:	00031882 	srl	v1,v1,0x2
    69b4:	304800ff 	andi	t0,v0,0xff
    69b8:	38690001 	xori	t1,v1,0x1
    69bc:	31230001 	andi	v1,t1,0x1
    69c0:	10600004 	beqz	v1,0x69d4
    69c4:	310300ff 	andi	v1,t0,0xff
    69c8:	250a0001 	addiu	t2,t0,1
    69cc:	314800ff 	andi	t0,t2,0xff
    69d0:	310300ff 	andi	v1,t0,0xff
    69d4:	000c6940 	sll	t5,t4,0x5
    69d8:	01a34021 	addu	t0,t5,v1
    69dc:	240a0001 	li	t2,1
    69e0:	10caffd5 	beq	a2,t2,0x6938
    69e4:	3110ffff 	andi	s0,t0,0xffff
    69e8:	246e0001 	addiu	t6,v1,1
    69ec:	31c800ff 	andi	t0,t6,0xff
    69f0:	1119ffc6 	beq	t0,t9,0x690c
    69f4:	38c90001 	xori	t1,a2,0x1
    69f8:	2d1f0020 	sltiu	ra,t0,32
    69fc:	53e0001c 	beqzl	ra,0x6a70
    6a00:	258b0001 	addiu	t3,t4,1
    6a04:	240d0001 	li	t5,1
    6a08:	0a0005cd 	j	0x8001734
    6a0c:	240e0020 	li	t6,32
    6a10:	51460017 	beql	t2,a2,0x6a70
    6a14:	258b0001 	addiu	t3,t4,1
    6a18:	25090001 	addiu	t1,t0,1
    6a1c:	312800ff 	andi	t0,t1,0xff
    6a20:	2d090020 	sltiu	t1,t0,32
    6a24:	51200012 	beqzl	t1,0x6a70
    6a28:	258b0001 	addiu	t3,t4,1
    6a2c:	25430001 	addiu	v1,t2,1
    6a30:	010d5004 	sllv	t2,t5,t0
    6a34:	014b1024 	and	v0,t2,t3
    6a38:	25090001 	addiu	t1,t0,1
    6a3c:	1440fff4 	bnez	v0,0x6a10
    6a40:	306affff 	andi	t2,v1,0xffff
    6a44:	3127ffff 	andi	a3,t1,0xffff
    6a48:	10ee000c 	beq	a3,t6,0x6a7c
    6a4c:	2582ffff 	addiu	v0,t4,-1
    6a50:	304cffff 	andi	t4,v0,0xffff
    6a54:	00005021 	move	t2,zero
    6a58:	3410ffff 	li	s0,0xffff
    6a5c:	312800ff 	andi	t0,t1,0xff
    6a60:	2d090020 	sltiu	t1,t0,32
    6a64:	5520fff2 	bnezl	t1,0x6a30
    6a68:	25430001 	addiu	v1,t2,1
    6a6c:	258b0001 	addiu	t3,t4,1
    6a70:	01464826 	xor	t1,t2,a2
    6a74:	0a000587 	j	0x800161c
    6a78:	316cffff 	andi	t4,t3,0xffff
    6a7c:	00003821 	move	a3,zero
    6a80:	00005021 	move	t2,zero
    6a84:	0a0005d9 	j	0x8001764
    6a88:	3410ffff 	li	s0,0xffff
    6a8c:	27bdffd8 	addiu	sp,sp,-40
    6a90:	afb00010 	sw	s0,16(sp)
    6a94:	30f0ffff 	andi	s0,a3,0xffff
    6a98:	afb10014 	sw	s1,20(sp)
    6a9c:	00103942 	srl	a3,s0,0x5
    6aa0:	3211ffe0 	andi	s1,s0,0xffe0
    6aa4:	00071080 	sll	v0,a3,0x2
    6aa8:	afb3001c 	sw	s3,28(sp)
    6aac:	00b12823 	subu	a1,a1,s1
    6ab0:	30d3ffff 	andi	s3,a2,0xffff
    6ab4:	afb20018 	sw	s2,24(sp)
    6ab8:	30a5ffff 	andi	a1,a1,0xffff
    6abc:	00809021 	move	s2,a0
    6ac0:	02603021 	move	a2,s3
    6ac4:	00442021 	addu	a0,v0,a0
    6ac8:	afbf0020 	sw	ra,32(sp)
    6acc:	0e000565 	jal	0x8001594
    6ad0:	3207001f 	andi	a3,s0,0x1f
    6ad4:	02228821 	addu	s1,s1,v0
    6ad8:	3403ffff 	li	v1,0xffff
    6adc:	02402021 	move	a0,s2
    6ae0:	02002821 	move	a1,s0
    6ae4:	02603021 	move	a2,s3
    6ae8:	00003821 	move	a3,zero
    6aec:	10430009 	beq	v0,v1,0x6b14
    6af0:	3231ffff 	andi	s1,s1,0xffff
    6af4:	02201021 	move	v0,s1
    6af8:	8fbf0020 	lw	ra,32(sp)
    6afc:	8fb3001c 	lw	s3,28(sp)
    6b00:	8fb20018 	lw	s2,24(sp)
    6b04:	8fb10014 	lw	s1,20(sp)
    6b08:	8fb00010 	lw	s0,16(sp)
    6b0c:	03e00008 	jr	ra
    6b10:	27bd0028 	addiu	sp,sp,40
    6b14:	0e000565 	jal	0x8001594
    6b18:	00000000 	nop
    6b1c:	00408821 	move	s1,v0
    6b20:	02201021 	move	v0,s1
    6b24:	8fbf0020 	lw	ra,32(sp)
    6b28:	8fb3001c 	lw	s3,28(sp)
    6b2c:	8fb20018 	lw	s2,24(sp)
    6b30:	8fb10014 	lw	s1,20(sp)
    6b34:	8fb00010 	lw	s0,16(sp)
    6b38:	03e00008 	jr	ra
    6b3c:	27bd0028 	addiu	sp,sp,40
    6b40:	00042400 	sll	a0,a0,0x10
    6b44:	3c036000 	lui	v1,0x6000
    6b48:	ac603d08 	sw	zero,15624(v1)
    6b4c:	10a00002 	beqz	a1,0x6b58
    6b50:	34821006 	ori	v0,a0,0x1006
    6b54:	34821016 	ori	v0,a0,0x1016
    6b58:	03e00008 	jr	ra
    6b5c:	ac623d04 	sw	v0,15620(v1)
    6b60:	27bdffe0 	addiu	sp,sp,-32
    6b64:	afb00010 	sw	s0,16(sp)
    6b68:	309000ff 	andi	s0,a0,0xff
    6b6c:	2e020006 	sltiu	v0,s0,6
    6b70:	afbf0018 	sw	ra,24(sp)
    6b74:	10400008 	beqz	v0,0x6b98
    6b78:	afb10014 	sw	s1,20(sp)
    6b7c:	00103080 	sll	a2,s0,0x2
    6b80:	3c030800 	lui	v1,0x800
    6b84:	246352cc 	addiu	v1,v1,21196
    6b88:	00c32821 	addu	a1,a2,v1
    6b8c:	8ca40000 	lw	a0,0(a1)
    6b90:	00800008 	jr	a0
    6b94:	00000000 	nop
    6b98:	00002021 	move	a0,zero
    6b9c:	8fbf0018 	lw	ra,24(sp)
    6ba0:	8fb10014 	lw	s1,20(sp)
    6ba4:	8fb00010 	lw	s0,16(sp)
    6ba8:	00801021 	move	v0,a0
    6bac:	03e00008 	jr	ra
    6bb0:	27bd0020 	addiu	sp,sp,32
    6bb4:	9791002a 	lhu	s1,42(gp)
    6bb8:	16200051 	bnez	s1,0x6d00
    6bbc:	00002021 	move	a0,zero
    6bc0:	3c020800 	lui	v0,0x800
    6bc4:	90420033 	lbu	v0,51(v0)
    6bc8:	0a000640 	j	0x8001900
    6bcc:	00000000 	nop
    6bd0:	978d0026 	lhu	t5,38(gp)
    6bd4:	15a00031 	bnez	t5,0x6c9c
    6bd8:	00002021 	move	a0,zero
    6bdc:	0a000640 	j	0x8001900
    6be0:	24020008 	li	v0,8
    6be4:	97870024 	lhu	a3,36(gp)
    6be8:	14e0001a 	bnez	a3,0x6c54
    6bec:	00001821 	move	v1,zero
    6bf0:	00602021 	move	a0,v1
    6bf4:	24020001 	li	v0,1
    6bf8:	1080ffe9 	beqz	a0,0x6ba0
    6bfc:	8fbf0018 	lw	ra,24(sp)
    6c00:	000429c2 	srl	a1,a0,0x7
    6c04:	00453021 	addu	a2,v0,a1
    6c08:	00a6582b 	sltu	t3,a1,a2
    6c0c:	1160ffe4 	beqz	t3,0x6ba0
    6c10:	3c088000 	lui	t0,0x8000
    6c14:	3c072000 	lui	a3,0x2000
    6c18:	000569c0 	sll	t5,a1,0x7
    6c1c:	01a76025 	or	t4,t5,a3
    6c20:	ad0c0020 	sw	t4,32(t0)
    6c24:	3c038008 	lui	v1,0x8008
    6c28:	2402001f 	li	v0,31
    6c2c:	2442ffff 	addiu	v0,v0,-1
    6c30:	ac600000 	sw	zero,0(v1)
    6c34:	0441fffd 	bgez	v0,0x6c2c
    6c38:	24630004 	addiu	v1,v1,4
    6c3c:	24a50001 	addiu	a1,a1,1
    6c40:	00a6702b 	sltu	t6,a1,a2
    6c44:	15c0fff5 	bnez	t6,0x6c1c
    6c48:	000569c0 	sll	t5,a1,0x7
    6c4c:	0a00062a 	j	0x80018a8
    6c50:	8fbf0018 	lw	ra,24(sp)
    6c54:	9787001c 	lhu	a3,28(gp)
    6c58:	3c040800 	lui	a0,0x800
    6c5c:	248455a8 	addiu	a0,a0,21928
    6c60:	24050400 	li	a1,1024
    6c64:	0e0005e5 	jal	0x8001794
    6c68:	24060001 	li	a2,1
    6c6c:	978b0024 	lhu	t3,36(gp)
    6c70:	24440001 	addiu	a0,v0,1
    6c74:	308affff 	andi	t2,a0,0xffff
    6c78:	2569ffff 	addiu	t1,t3,-1
    6c7c:	2d480400 	sltiu	t0,t2,1024
    6c80:	00402821 	move	a1,v0
    6c84:	15000040 	bnez	t0,0x6d88
    6c88:	a7890024 	sh	t1,36(gp)
    6c8c:	24ac3800 	addiu	t4,a1,14336
    6c90:	000c19c0 	sll	v1,t4,0x7
    6c94:	0a00063e 	j	0x80018f8
    6c98:	a780001c 	sh	zero,28(gp)
    6c9c:	9787001e 	lhu	a3,30(gp)
    6ca0:	3c040800 	lui	a0,0x800
    6ca4:	24845628 	addiu	a0,a0,22056
    6ca8:	24050400 	li	a1,1024
    6cac:	0e0005e5 	jal	0x8001794
    6cb0:	24060001 	li	a2,1
    6cb4:	97990026 	lhu	t9,38(gp)
    6cb8:	24440001 	addiu	a0,v0,1
    6cbc:	3098ffff 	andi	t8,a0,0xffff
    6cc0:	272fffff 	addiu	t7,t9,-1
    6cc4:	2f0e0400 	sltiu	t6,t8,1024
    6cc8:	00408821 	move	s1,v0
    6ccc:	15c0002c 	bnez	t6,0x6d80
    6cd0:	a78f0026 	sh	t7,38(gp)
    6cd4:	a780001e 	sh	zero,30(gp)
    6cd8:	3a020003 	xori	v0,s0,0x3
    6cdc:	26240100 	addiu	a0,s1,256
    6ce0:	3084ffff 	andi	a0,a0,0xffff
    6ce4:	0e000612 	jal	0x8001848
    6ce8:	2c450001 	sltiu	a1,v0,1
    6cec:	0011f8c0 	sll	ra,s1,0x3
    6cf0:	27f00100 	addiu	s0,ra,256
    6cf4:	001021c0 	sll	a0,s0,0x7
    6cf8:	0a000640 	j	0x8001900
    6cfc:	24020008 	li	v0,8
    6d00:	9785002e 	lhu	a1,46(gp)
    6d04:	97870022 	lhu	a3,34(gp)
    6d08:	3c040800 	lui	a0,0x800
    6d0c:	248456a8 	addiu	a0,a0,22184
    6d10:	0e0005e5 	jal	0x8001794
    6d14:	24060001 	li	a2,1
    6d18:	9787002a 	lhu	a3,42(gp)
    6d1c:	8f89002c 	lw	t1,44(gp)
    6d20:	24450001 	addiu	a1,v0,1
    6d24:	30a8ffff 	andi	t0,a1,0xffff
    6d28:	24e3ffff 	addiu	v1,a3,-1
    6d2c:	0109302b 	sltu	a2,t0,t1
    6d30:	00408021 	move	s0,v0
    6d34:	14c00018 	bnez	a2,0x6d98
    6d38:	a783002a 	sh	v1,42(gp)
    6d3c:	a7800022 	sh	zero,34(gp)
    6d40:	97850030 	lhu	a1,48(gp)
    6d44:	0e000e54 	jal	0x8003950
    6d48:	02002021 	move	a0,s0
    6d4c:	244a0500 	addiu	t2,v0,1280
    6d50:	3144ffff 	andi	a0,t2,0xffff
    6d54:	0e000612 	jal	0x8001848
    6d58:	24050001 	li	a1,1
    6d5c:	3c050800 	lui	a1,0x800
    6d60:	94a50032 	lhu	a1,50(a1)
    6d64:	0e000e54 	jal	0x8003950
    6d68:	02002021 	move	a0,s0
    6d6c:	24452100 	addiu	a1,v0,8448
    6d70:	3c020800 	lui	v0,0x800
    6d74:	90420033 	lbu	v0,51(v0)
    6d78:	0a000640 	j	0x8001900
    6d7c:	000521c0 	sll	a0,a1,0x7
    6d80:	0a000678 	j	0x80019e0
    6d84:	a784001e 	sh	a0,30(gp)
    6d88:	24ac3800 	addiu	t4,a1,14336
    6d8c:	000c19c0 	sll	v1,t4,0x7
    6d90:	0a00063e 	j	0x80018f8
    6d94:	a784001c 	sh	a0,28(gp)
    6d98:	0a000692 	j	0x8001a48
    6d9c:	a7850022 	sh	a1,34(gp)
    6da0:	308400ff 	andi	a0,a0,0xff
    6da4:	27bdffe8 	addiu	sp,sp,-24
    6da8:	2c820006 	sltiu	v0,a0,6
    6dac:	afbf0014 	sw	ra,20(sp)
    6db0:	afb00010 	sw	s0,16(sp)
    6db4:	10400015 	beqz	v0,0x6e0c
    6db8:	00a03821 	move	a3,a1
    6dbc:	00044080 	sll	t0,a0,0x2
    6dc0:	3c030800 	lui	v1,0x800
    6dc4:	246352e4 	addiu	v1,v1,21220
    6dc8:	01032821 	addu	a1,t0,v1
    6dcc:	8ca40000 	lw	a0,0(a1)
    6dd0:	00800008 	jr	a0
    6dd4:	00000000 	nop
    6dd8:	24cc007f 	addiu	t4,a2,127
    6ddc:	000751c2 	srl	t2,a3,0x7
    6de0:	000c59c2 	srl	t3,t4,0x7
    6de4:	3170ffff 	andi	s0,t3,0xffff
    6de8:	2547c400 	addiu	a3,t2,-15360
    6dec:	30e5ffff 	andi	a1,a3,0xffff
    6df0:	2784001c 	addiu	a0,gp,28
    6df4:	02003021 	move	a2,s0
    6df8:	0e00053a 	jal	0x80014e8
    6dfc:	24070001 	li	a3,1
    6e00:	97860028 	lhu	a2,40(gp)
    6e04:	02062021 	addu	a0,s0,a2
    6e08:	a7840028 	sh	a0,40(gp)
    6e0c:	8fbf0014 	lw	ra,20(sp)
    6e10:	8fb00010 	lw	s0,16(sp)
    6e14:	03e00008 	jr	ra
    6e18:	27bd0018 	addiu	sp,sp,24
    6e1c:	3c050800 	lui	a1,0x800
    6e20:	8ca50030 	lw	a1,48(a1)
    6e24:	000779c2 	srl	t7,a3,0x7
    6e28:	0e00031c 	jal	0x8000c70
    6e2c:	25e4df00 	addiu	a0,t7,-8448
    6e30:	3045ffff 	andi	a1,v0,0xffff
    6e34:	3c040800 	lui	a0,0x800
    6e38:	248456a8 	addiu	a0,a0,22184
    6e3c:	24060001 	li	a2,1
    6e40:	0e00053a 	jal	0x80014e8
    6e44:	24070001 	li	a3,1
    6e48:	978e002a 	lhu	t6,42(gp)
    6e4c:	8fbf0014 	lw	ra,20(sp)
    6e50:	8fb00010 	lw	s0,16(sp)
    6e54:	25cd0001 	addiu	t5,t6,1
    6e58:	27bd0018 	addiu	sp,sp,24
    6e5c:	03e00008 	jr	ra
    6e60:	a78d002a 	sh	t5,42(gp)
    6e64:	0007c9c2 	srl	t9,a3,0x7
    6e68:	2738ff00 	addiu	t8,t9,-256
    6e6c:	001878c2 	srl	t7,t8,0x3
    6e70:	31f0ffff 	andi	s0,t7,0xffff
    6e74:	3c040800 	lui	a0,0x800
    6e78:	24845628 	addiu	a0,a0,22056
    6e7c:	02002821 	move	a1,s0
    6e80:	24060001 	li	a2,1
    6e84:	0e00053a 	jal	0x80014e8
    6e88:	24070001 	li	a3,1
    6e8c:	978d0026 	lhu	t5,38(gp)
    6e90:	260e0100 	addiu	t6,s0,256
    6e94:	000e8400 	sll	s0,t6,0x10
    6e98:	25ac0001 	addiu	t4,t5,1
    6e9c:	3c0b6000 	lui	t3,0x6000
    6ea0:	a78c0026 	sh	t4,38(gp)
    6ea4:	ad603d08 	sw	zero,15624(t3)
    6ea8:	36040006 	ori	a0,s0,0x6
    6eac:	00003021 	move	a2,zero
    6eb0:	3c076000 	lui	a3,0x6000
    6eb4:	8ce23d04 	lw	v0,15620(a3)
    6eb8:	305f0006 	andi	ra,v0,0x6
    6ebc:	17e0fffd 	bnez	ra,0x6eb4
    6ec0:	24c90001 	addiu	t1,a2,1
    6ec4:	00061b00 	sll	v1,a2,0xc
    6ec8:	312600ff 	andi	a2,t1,0xff
    6ecc:	00644025 	or	t0,v1,a0
    6ed0:	2cc50004 	sltiu	a1,a2,4
    6ed4:	ace83d04 	sw	t0,15620(a3)
    6ed8:	14a0fff6 	bnez	a1,0x6eb4
    6edc:	8fbf0014 	lw	ra,20(sp)
    6ee0:	8fb00010 	lw	s0,16(sp)
    6ee4:	03e00008 	jr	ra
    6ee8:	27bd0018 	addiu	sp,sp,24
    6eec:	000751c2 	srl	t2,a3,0x7
    6ef0:	2549c800 	addiu	t1,t2,-14336
    6ef4:	24060001 	li	a2,1
    6ef8:	24070001 	li	a3,1
    6efc:	3c040800 	lui	a0,0x800
    6f00:	248455a8 	addiu	a0,a0,21928
    6f04:	0e00053a 	jal	0x80014e8
    6f08:	3125ffff 	andi	a1,t1,0xffff
    6f0c:	97870024 	lhu	a3,36(gp)
    6f10:	8fbf0014 	lw	ra,20(sp)
    6f14:	8fb00010 	lw	s0,16(sp)
    6f18:	24e60001 	addiu	a2,a3,1
    6f1c:	27bd0018 	addiu	sp,sp,24
    6f20:	03e00008 	jr	ra
    6f24:	a7860024 	sh	a2,36(gp)
    6f28:	3084ffff 	andi	a0,a0,0xffff
    6f2c:	30a5ffff 	andi	a1,a1,0xffff
    6f30:	3c068000 	lui	a2,0x8000
    6f34:	8cc201b8 	lw	v0,440(a2)
    6f38:	0440fffe 	bltz	v0,0x6f34
    6f3c:	3c084080 	lui	t0,0x4080
    6f40:	00883825 	or	a3,a0,t0
    6f44:	3c031000 	lui	v1,0x1000
    6f48:	acc00180 	sw	zero,384(a2)
    6f4c:	acc50184 	sw	a1,388(a2)
    6f50:	acc70188 	sw	a3,392(a2)
    6f54:	03e00008 	jr	ra
    6f58:	acc301b8 	sw	v1,440(a2)
    6f5c:	3084ffff 	andi	a0,a0,0xffff
    6f60:	3c068000 	lui	a2,0x8000
    6f64:	8cc201b8 	lw	v0,440(a2)
    6f68:	0440fffe 	bltz	v0,0x6f64
    6f6c:	3c084038 	lui	t0,0x4038
    6f70:	8ca70000 	lw	a3,0(a1)
    6f74:	00882825 	or	a1,a0,t0
    6f78:	3c031000 	lui	v1,0x1000
    6f7c:	acc70180 	sw	a3,384(a2)
    6f80:	acc50188 	sw	a1,392(a2)
    6f84:	03e00008 	jr	ra
    6f88:	acc301b8 	sw	v1,440(a2)
    6f8c:	8f830070 	lw	v1,112(gp)
    6f90:	8f860068 	lw	a2,104(gp)
    6f94:	1066000b 	beq	v1,a2,0x6fc4
    6f98:	00804021 	move	t0,a0
    6f9c:	3c070800 	lui	a3,0x800
    6fa0:	24e756b8 	addiu	a3,a3,22200
    6fa4:	000328c0 	sll	a1,v1,0x3
    6fa8:	00a71021 	addu	v0,a1,a3
    6fac:	8c440000 	lw	a0,0(v0)
    6fb0:	24630001 	addiu	v1,v1,1
    6fb4:	10880005 	beq	a0,t0,0x6fcc
    6fb8:	3063000f 	andi	v1,v1,0xf
    6fbc:	5466fffa 	bnel	v1,a2,0x6fa8
    6fc0:	000328c0 	sll	a1,v1,0x3
    6fc4:	03e00008 	jr	ra
    6fc8:	00001021 	move	v0,zero
    6fcc:	3c070800 	lui	a3,0x800
    6fd0:	24e756bc 	addiu	a3,a3,22204
    6fd4:	00a73021 	addu	a2,a1,a3
    6fd8:	03e00008 	jr	ra
    6fdc:	8cc20000 	lw	v0,0(a2)
    6fe0:	3c039000 	lui	v1,0x9000
    6fe4:	34620001 	ori	v0,v1,0x1
    6fe8:	00822025 	or	a0,a0,v0
    6fec:	3c038000 	lui	v1,0x8000
    6ff0:	ac640020 	sw	a0,32(v1)
    6ff4:	8c650020 	lw	a1,32(v1)
    6ff8:	04a0fffe 	bltz	a1,0x6ff4
    6ffc:	00000000 	nop
    7000:	03e00008 	jr	ra
    7004:	00000000 	nop
    7008:	3c028000 	lui	v0,0x8000
    700c:	34430001 	ori	v1,v0,0x1
    7010:	00832025 	or	a0,a0,v1
    7014:	03e00008 	jr	ra
    7018:	ac440020 	sw	a0,32(v0)
    701c:	27bdffe0 	addiu	sp,sp,-32
    7020:	afb10014 	sw	s1,20(sp)
    7024:	3091ffff 	andi	s1,a0,0xffff
    7028:	afb00010 	sw	s0,16(sp)
    702c:	afbf0018 	sw	ra,24(sp)
    7030:	12200012 	beqz	s1,0x707c
    7034:	00a08021 	move	s0,a1
    7038:	8ca50000 	lw	a1,0(a1)
    703c:	14a00011 	bnez	a1,0x7084
    7040:	24040002 	li	a0,2
    7044:	3c068000 	lui	a2,0x8000
    7048:	8cc201b8 	lw	v0,440(a2)
    704c:	0440fffe 	bltz	v0,0x7048
    7050:	3c074000 	lui	a3,0x4000
    7054:	02272025 	or	a0,s1,a3
    7058:	8fbf0018 	lw	ra,24(sp)
    705c:	8fb10014 	lw	s1,20(sp)
    7060:	8fb00010 	lw	s0,16(sp)
    7064:	3c031000 	lui	v1,0x1000
    7068:	27bd0020 	addiu	sp,sp,32
    706c:	acc50180 	sw	a1,384(a2)
    7070:	acc40188 	sw	a0,392(a2)
    7074:	03e00008 	jr	ra
    7078:	acc301b8 	sw	v1,440(a2)
    707c:	0a000753 	j	0x8001d4c
    7080:	8ca50000 	lw	a1,0(a1)
    7084:	0e0006aa 	jal	0x8001aa8
    7088:	24060200 	li	a2,512
    708c:	00002821 	move	a1,zero
    7090:	0a000753 	j	0x8001d4c
    7094:	ae000000 	sw	zero,0(s0)
    7098:	3087ffff 	andi	a3,a0,0xffff
    709c:	3c068000 	lui	a2,0x8000
    70a0:	8cc201b8 	lw	v0,440(a2)
    70a4:	0440fffe 	bltz	v0,0x70a0
    70a8:	3c0a4006 	lui	t2,0x4006
    70ac:	8ca90000 	lw	t1,0(a1)
    70b0:	00ea4025 	or	t0,a3,t2
    70b4:	acc90180 	sw	t1,384(a2)
    70b8:	8ca40004 	lw	a0,4(a1)
    70bc:	3c031000 	lui	v1,0x1000
    70c0:	acc40184 	sw	a0,388(a2)
    70c4:	acc80188 	sw	t0,392(a2)
    70c8:	03e00008 	jr	ra
    70cc:	acc301b8 	sw	v1,440(a2)
    70d0:	8f83fd8c 	lw	v1,-628(gp)
    70d4:	27bdffe8 	addiu	sp,sp,-24
    70d8:	afbf0014 	sw	ra,20(sp)
    70dc:	afb00010 	sw	s0,16(sp)
    70e0:	90670008 	lbu	a3,8(v1)
    70e4:	00801021 	move	v0,a0
    70e8:	00802821 	move	a1,a0
    70ec:	30e60040 	andi	a2,a3,0x40
    70f0:	00002021 	move	a0,zero
    70f4:	10c00008 	beqz	a2,0x7118
    70f8:	8c500000 	lw	s0,0(v0)
    70fc:	0e000088 	jal	0x8000220
    7100:	02002021 	move	a0,s0
    7104:	02002021 	move	a0,s0
    7108:	8fbf0014 	lw	ra,20(sp)
    710c:	8fb00010 	lw	s0,16(sp)
    7110:	0a0004cd 	j	0x8001334
    7114:	27bd0018 	addiu	sp,sp,24
    7118:	0e000768 	jal	0x8001da0
    711c:	00000000 	nop
    7120:	0e000088 	jal	0x8000220
    7124:	02002021 	move	a0,s0
    7128:	02002021 	move	a0,s0
    712c:	8fbf0014 	lw	ra,20(sp)
    7130:	8fb00010 	lw	s0,16(sp)
    7134:	0a0004cd 	j	0x8001334
    7138:	27bd0018 	addiu	sp,sp,24
    713c:	27bdffe0 	addiu	sp,sp,-32
    7140:	afb00010 	sw	s0,16(sp)
    7144:	8f90fd8c 	lw	s0,-628(gp)
    7148:	afbf001c 	sw	ra,28(sp)
    714c:	afb20018 	sw	s2,24(sp)
    7150:	afb10014 	sw	s1,20(sp)
    7154:	92060001 	lbu	a2,1(s0)
    7158:	00808821 	move	s1,a0
    715c:	0e00073a 	jal	0x8001ce8
    7160:	30d20004 	andi	s2,a2,0x4
    7164:	92040005 	lbu	a0,5(s0)
    7168:	001129c2 	srl	a1,s1,0x7
    716c:	a6050000 	sh	a1,0(s0)
    7170:	34830040 	ori	v1,a0,0x40
    7174:	a2030005 	sb	v1,5(s0)
    7178:	0e000744 	jal	0x8001d10
    717c:	02202021 	move	a0,s1
    7180:	0e0004cf 	jal	0x800133c
    7184:	02202021 	move	a0,s1
    7188:	24020001 	li	v0,1
    718c:	ae02000c 	sw	v0,12(s0)
    7190:	02202821 	move	a1,s1
    7194:	a6020010 	sh	v0,16(s0)
    7198:	24040002 	li	a0,2
    719c:	a6020012 	sh	v0,18(s0)
    71a0:	24060200 	li	a2,512
    71a4:	a6020014 	sh	v0,20(s0)
    71a8:	0e0006aa 	jal	0x8001aa8
    71ac:	a6020016 	sh	v0,22(s0)
    71b0:	1640000f 	bnez	s2,0x71f0
    71b4:	8fbf001c 	lw	ra,28(sp)
    71b8:	978c006c 	lhu	t4,108(gp)
    71bc:	3c0b0800 	lui	t3,0x800
    71c0:	8d6b0078 	lw	t3,120(t3)
    71c4:	2588ffff 	addiu	t0,t4,-1
    71c8:	3109ffff 	andi	t1,t0,0xffff
    71cc:	256a0001 	addiu	t2,t3,1
    71d0:	012a382b 	sltu	a3,t1,t2
    71d4:	10e00006 	beqz	a3,0x71f0
    71d8:	a788006c 	sh	t0,108(gp)
    71dc:	3c0f6006 	lui	t7,0x6006
    71e0:	240e0016 	li	t6,22
    71e4:	35ed0010 	ori	t5,t7,0x10
    71e8:	adae0050 	sw	t6,80(t5)
    71ec:	8fbf001c 	lw	ra,28(sp)
    71f0:	8fb20018 	lw	s2,24(sp)
    71f4:	8fb10014 	lw	s1,20(sp)
    71f8:	8fb00010 	lw	s0,16(sp)
    71fc:	03e00008 	jr	ra
    7200:	27bd0020 	addiu	sp,sp,32
    7204:	27bdffe0 	addiu	sp,sp,-32
    7208:	afb10014 	sw	s1,20(sp)
    720c:	afbf0018 	sw	ra,24(sp)
    7210:	afb00010 	sw	s0,16(sp)
    7214:	10800004 	beqz	a0,0x7228
    7218:	00a08821 	move	s1,a1
    721c:	24020080 	li	v0,128
    7220:	10820007 	beq	a0,v0,0x7240
    7224:	00000000 	nop
    7228:	0000000d 	break
    722c:	8fbf0018 	lw	ra,24(sp)
    7230:	8fb10014 	lw	s1,20(sp)
    7234:	8fb00010 	lw	s0,16(sp)
    7238:	03e00008 	jr	ra
    723c:	27bd0020 	addiu	sp,sp,32
    7240:	0e00073a 	jal	0x8001ce8
    7244:	00a02021 	move	a0,a1
    7248:	8f86fd8c 	lw	a2,-628(gp)
    724c:	02202021 	move	a0,s1
    7250:	90c50005 	lbu	a1,5(a2)
    7254:	0e000744 	jal	0x8001d10
    7258:	30b000ff 	andi	s0,a1,0xff
    725c:	2403003e 	li	v1,62
    7260:	1603fff1 	bne	s0,v1,0x7228
    7264:	00000000 	nop
    7268:	3c058000 	lui	a1,0x8000
    726c:	8ca40178 	lw	a0,376(a1)
    7270:	0480fffe 	bltz	a0,0x726c
    7274:	24080007 	li	t0,7
    7278:	3c071000 	lui	a3,0x1000
    727c:	acb10140 	sw	s1,320(a1)
    7280:	02202021 	move	a0,s1
    7284:	a0a80144 	sb	t0,324(a1)
    7288:	8fbf0018 	lw	ra,24(sp)
    728c:	8fb10014 	lw	s1,20(sp)
    7290:	8fb00010 	lw	s0,16(sp)
    7294:	aca70178 	sw	a3,376(a1)
    7298:	0a000791 	j	0x8001e44
    729c:	27bd0020 	addiu	sp,sp,32
    72a0:	27bdffe0 	addiu	sp,sp,-32
    72a4:	afb00010 	sw	s0,16(sp)
    72a8:	afbf0018 	sw	ra,24(sp)
    72ac:	afb10014 	sw	s1,20(sp)
    72b0:	3c108000 	lui	s0,0x8000
    72b4:	8e110020 	lw	s1,32(s0)
    72b8:	00000000 	nop
    72bc:	0e0004cf 	jal	0x800133c
    72c0:	ae040020 	sw	a0,32(s0)
    72c4:	ae110020 	sw	s1,32(s0)
    72c8:	8fbf0018 	lw	ra,24(sp)
    72cc:	8fb10014 	lw	s1,20(sp)
    72d0:	8fb00010 	lw	s0,16(sp)
    72d4:	03e00008 	jr	ra
    72d8:	27bd0020 	addiu	sp,sp,32
    72dc:	3084ffff 	andi	a0,a0,0xffff
    72e0:	3c068000 	lui	a2,0x8000
    72e4:	8cc201b8 	lw	v0,440(a2)
    72e8:	0440fffe 	bltz	v0,0x72e4
    72ec:	3c084035 	lui	t0,0x4035
    72f0:	00883825 	or	a3,a0,t0
    72f4:	3c031000 	lui	v1,0x1000
    72f8:	acc50180 	sw	a1,384(a2)
    72fc:	acc00184 	sw	zero,388(a2)
    7300:	acc70188 	sw	a3,392(a2)
    7304:	03e00008 	jr	ra
    7308:	acc301b8 	sw	v1,440(a2)
    730c:	3084ffff 	andi	a0,a0,0xffff
    7310:	3c068000 	lui	a2,0x8000
    7314:	8cc201b8 	lw	v0,440(a2)
    7318:	0440fffe 	bltz	v0,0x7314
    731c:	3c084036 	lui	t0,0x4036
    7320:	00883825 	or	a3,a0,t0
    7324:	3c031000 	lui	v1,0x1000
    7328:	acc50180 	sw	a1,384(a2)
    732c:	acc00184 	sw	zero,388(a2)
    7330:	acc70188 	sw	a3,392(a2)
    7334:	03e00008 	jr	ra
    7338:	acc301b8 	sw	v1,440(a2)
    733c:	27bdffd0 	addiu	sp,sp,-48
    7340:	afb50024 	sw	s5,36(sp)
    7344:	3095ffff 	andi	s5,a0,0xffff
    7348:	afb60028 	sw	s6,40(sp)
    734c:	afb40020 	sw	s4,32(sp)
    7350:	afbf002c 	sw	ra,44(sp)
    7354:	afb3001c 	sw	s3,28(sp)
    7358:	afb20018 	sw	s2,24(sp)
    735c:	afb10014 	sw	s1,20(sp)
    7360:	afb00010 	sw	s0,16(sp)
    7364:	30b6ffff 	andi	s6,a1,0xffff
    7368:	12a00027 	beqz	s5,0x7408
    736c:	0000a021 	move	s4,zero
    7370:	8f920050 	lw	s2,80(gp)
    7374:	8e430000 	lw	v1,0(s2)
    7378:	3c068000 	lui	a2,0x8000
    737c:	24020040 	li	v0,64
    7380:	00033e02 	srl	a3,v1,0x18
    7384:	00032c02 	srl	a1,v1,0x10
    7388:	30e4007f 	andi	a0,a3,0x7f
    738c:	00669824 	and	s3,v1,a2
    7390:	1482001d 	bne	a0,v0,0x7408
    7394:	30a500ff 	andi	a1,a1,0xff
    7398:	8f830060 	lw	v1,96(gp)
    739c:	2c68000a 	sltiu	t0,v1,10
    73a0:	51000010 	beqzl	t0,0x73e4
    73a4:	8f860044 	lw	a2,68(gp)
    73a8:	00035880 	sll	t3,v1,0x2
    73ac:	3c0c0800 	lui	t4,0x800
    73b0:	258c5300 	addiu	t4,t4,21248
    73b4:	016c5021 	addu	t2,t3,t4
    73b8:	8d490000 	lw	t1,0(t2)
    73bc:	01200008 	jr	t1
    73c0:	00000000 	nop
    73c4:	02d47021 	addu	t6,s6,s4
    73c8:	31c5ffff 	andi	a1,t6,0xffff
    73cc:	0e00070c 	jal	0x8001c30
    73d0:	24040084 	li	a0,132
    73d4:	16600002 	bnez	s3,0x73e0
    73d8:	8f920050 	lw	s2,80(gp)
    73dc:	af800060 	sw	zero,96(gp)
    73e0:	8f860044 	lw	a2,68(gp)
    73e4:	264f0020 	addiu	t7,s2,32
    73e8:	26890001 	addiu	t1,s4,1
    73ec:	01e09021 	move	s2,t7
    73f0:	3134ffff 	andi	s4,t1,0xffff
    73f4:	14c00004 	bnez	a2,0x7408
    73f8:	af8f0050 	sw	t7,80(gp)
    73fc:	0295282b 	sltu	a1,s4,s5
    7400:	14a0ffdc 	bnez	a1,0x7374
    7404:	00000000 	nop
    7408:	02801021 	move	v0,s4
    740c:	8fbf002c 	lw	ra,44(sp)
    7410:	8fb60028 	lw	s6,40(sp)
    7414:	8fb50024 	lw	s5,36(sp)
    7418:	8fb40020 	lw	s4,32(sp)
    741c:	8fb3001c 	lw	s3,28(sp)
    7420:	8fb20018 	lw	s2,24(sp)
    7424:	8fb10014 	lw	s1,20(sp)
    7428:	8fb00010 	lw	s0,16(sp)
    742c:	03e00008 	jr	ra
    7430:	27bd0030 	addiu	sp,sp,48
    7434:	24070034 	li	a3,52
    7438:	14a70146 	bne	a1,a3,0x7954
    743c:	00000000 	nop
    7440:	9247000e 	lbu	a3,14(s2)
    7444:	8f98fd90 	lw	t8,-624(gp)
    7448:	8f90fd8c 	lw	s0,-628(gp)
    744c:	240f1600 	li	t7,5632
    7450:	a3070019 	sb	a3,25(t8)
    7454:	9244000d 	lbu	a0,13(s2)
    7458:	3c088000 	lui	t0,0x8000
    745c:	3c07800c 	lui	a3,0x800c
    7460:	a3040018 	sb	a0,24(t8)
    7464:	965f0012 	lhu	ra,18(s2)
    7468:	3c096000 	lui	t1,0x6000
    746c:	3c117fff 	lui	s1,0x7fff
    7470:	a61f005c 	sh	ra,92(s0)
    7474:	96590010 	lhu	t9,16(s2)
    7478:	3622ffff 	ori	v0,s1,0xffff
    747c:	24040005 	li	a0,5
    7480:	3325ffff 	andi	a1,t9,0xffff
    7484:	ae050054 	sw	a1,84(s0)
    7488:	8e46001c 	lw	a2,28(s2)
    748c:	ad0f0028 	sw	t7,40(t0)
    7490:	8cee0000 	lw	t6,0(a3)
    7494:	8d2d4448 	lw	t5,17480(t1)
    7498:	01c61826 	xor	v1,t6,a2
    749c:	01a33021 	addu	a2,t5,v1
    74a0:	ae060038 	sw	a2,56(s0)
    74a4:	8e0c0038 	lw	t4,56(s0)
    74a8:	24ca0001 	addiu	t2,a2,1
    74ac:	3c0d7f00 	lui	t5,0x7f00
    74b0:	ae0c003c 	sw	t4,60(s0)
    74b4:	8e0b003c 	lw	t3,60(s0)
    74b8:	af0b0004 	sw	t3,4(t8)
    74bc:	ae0a0020 	sw	t2,32(s0)
    74c0:	8e130020 	lw	s3,32(s0)
    74c4:	ae13001c 	sw	s3,28(s0)
    74c8:	a300001b 	sb	zero,27(t8)
    74cc:	ae02002c 	sw	v0,44(s0)
    74d0:	a3040012 	sb	a0,18(t8)
    74d4:	8e5f0014 	lw	ra,20(s2)
    74d8:	24130050 	li	s3,80
    74dc:	ae1f0034 	sw	ra,52(s0)
    74e0:	8e190034 	lw	t9,52(s0)
    74e4:	af190014 	sw	t9,20(t8)
    74e8:	8e450018 	lw	a1,24(s2)
    74ec:	ae050048 	sw	a1,72(s0)
    74f0:	924f000c 	lbu	t7,12(s2)
    74f4:	a20f004e 	sb	t7,78(s0)
    74f8:	92090008 	lbu	t1,8(s0)
    74fc:	352e0020 	ori	t6,t1,0x20
    7500:	a20e0008 	sb	t6,8(s0)
    7504:	8e030018 	lw	v1,24(s0)
    7508:	006d6024 	and	t4,v1,t5
    750c:	358b4000 	ori	t3,t4,0x4000
    7510:	ae0b0018 	sw	t3,24(s0)
    7514:	920a0000 	lbu	t2,0(s0)
    7518:	315200ff 	andi	s2,t2,0xff
    751c:	125302a6 	beq	s2,s3,0x7fb8
    7520:	2413ff80 	li	s3,-128
    7524:	3c040800 	lui	a0,0x800
    7528:	24845738 	addiu	a0,a0,22328
    752c:	0e000776 	jal	0x8001dd8
    7530:	00000000 	nop
    7534:	240c0004 	li	t4,4
    7538:	24080001 	li	t0,1
    753c:	3c050800 	lui	a1,0x800
    7540:	8ca55738 	lw	a1,22328(a1)
    7544:	3c048000 	lui	a0,0x8000
    7548:	a20c0025 	sb	t4,37(s0)
    754c:	a2080005 	sb	t0,5(s0)
    7550:	8c900178 	lw	s0,376(a0)
    7554:	0600fffe 	bltz	s0,0x7550
    7558:	8f920050 	lw	s2,80(gp)
    755c:	240d0002 	li	t5,2
    7560:	3c031000 	lui	v1,0x1000
    7564:	ac850140 	sw	a1,320(a0)
    7568:	a08d0144 	sb	t5,324(a0)
    756c:	ac830178 	sw	v1,376(a0)
    7570:	0a00083a 	j	0x80020e8
    7574:	af800060 	sw	zero,96(gp)
    7578:	2cad0037 	sltiu	t5,a1,55
    757c:	11a0ff99 	beqz	t5,0x73e4
    7580:	8f860044 	lw	a2,68(gp)
    7584:	00058080 	sll	s0,a1,0x2
    7588:	3c110800 	lui	s1,0x800
    758c:	26315328 	addiu	s1,s1,21288
    7590:	02117821 	addu	t7,s0,s1
    7594:	8dee0000 	lw	t6,0(t7)
    7598:	01c00008 	jr	t6
    759c:	00000000 	nop
    75a0:	24100004 	li	s0,4
    75a4:	14b0008e 	bne	a1,s0,0x77e0
    75a8:	3c078000 	lui	a3,0x8000
    75ac:	3c0b0800 	lui	t3,0x800
    75b0:	8d6b5738 	lw	t3,22328(t3)
    75b4:	8f86fd8c 	lw	a2,-628(gp)
    75b8:	aceb0020 	sw	t3,32(a3)
    75bc:	8e430008 	lw	v1,8(s2)
    75c0:	8f8ffd90 	lw	t7,-624(gp)
    75c4:	240e0050 	li	t6,80
    75c8:	acc30030 	sw	v1,48(a2)
    75cc:	8e4a0008 	lw	t2,8(s2)
    75d0:	acca0050 	sw	t2,80(a2)
    75d4:	8e42000c 	lw	v0,12(s2)
    75d8:	acc20034 	sw	v0,52(a2)
    75dc:	8e440010 	lw	a0,16(s2)
    75e0:	acc40038 	sw	a0,56(a2)
    75e4:	8e5f0010 	lw	ra,16(s2)
    75e8:	acdf0054 	sw	ra,84(a2)
    75ec:	8e590014 	lw	t9,20(s2)
    75f0:	acd9003c 	sw	t9,60(a2)
    75f4:	8e580018 	lw	t8,24(s2)
    75f8:	adf80004 	sw	t8,4(t7)
    75fc:	8e51001c 	lw	s1,28(s2)
    7600:	acd10020 	sw	s1,32(a2)
    7604:	90c50000 	lbu	a1,0(a2)
    7608:	30a900ff 	andi	t1,a1,0xff
    760c:	112e0276 	beq	t1,t6,0x7fe8
    7610:	00000000 	nop
    7614:	8cc50034 	lw	a1,52(a2)
    7618:	8cd10030 	lw	s1,48(a2)
    761c:	00b13023 	subu	a2,a1,s1
    7620:	04c000f3 	bltz	a2,0x79f0
    7624:	2404008c 	li	a0,140
    7628:	126000f0 	beqz	s3,0x79ec
    762c:	24020003 	li	v0,3
    7630:	0a00083a 	j	0x80020e8
    7634:	af820060 	sw	v0,96(gp)
    7638:	240f0005 	li	t7,5
    763c:	14af0068 	bne	a1,t7,0x77e0
    7640:	3c0b8000 	lui	t3,0x8000
    7644:	3c030800 	lui	v1,0x800
    7648:	8c635738 	lw	v1,22328(v1)
    764c:	8f86fd8c 	lw	a2,-628(gp)
    7650:	ad630020 	sw	v1,32(t3)
    7654:	8e4a0004 	lw	t2,4(s2)
    7658:	8f99fd90 	lw	t9,-624(gp)
    765c:	24072000 	li	a3,8192
    7660:	acca001c 	sw	t2,28(a2)
    7664:	92420008 	lbu	v0,8(s2)
    7668:	24120008 	li	s2,8
    766c:	a3220019 	sb	v0,25(t9)
    7670:	8f840050 	lw	a0,80(gp)
    7674:	909f0009 	lbu	ra,9(a0)
    7678:	a33f0018 	sb	ra,24(t9)
    767c:	8f850050 	lw	a1,80(gp)
    7680:	90b8000a 	lbu	t8,10(a1)
    7684:	330400ff 	andi	a0,t8,0xff
    7688:	10920010 	beq	a0,s2,0x76cc
    768c:	288c0009 	slti	t4,a0,9
    7690:	158000bc 	bnez	t4,0x7984
    7694:	24080002 	li	t0,2
    7698:	240e0020 	li	t6,32
    769c:	108e000b 	beq	a0,t6,0x76cc
    76a0:	34078000 	li	a3,0x8000
    76a4:	28890021 	slti	t1,a0,33
    76a8:	15200008 	bnez	t1,0x76cc
    76ac:	24074000 	li	a3,16384
    76b0:	24110040 	li	s1,64
    76b4:	10910005 	beq	a0,s1,0x76cc
    76b8:	3c070001 	lui	a3,0x1
    76bc:	240f0080 	li	t7,128
    76c0:	108f0002 	beq	a0,t7,0x76cc
    76c4:	3c070002 	lui	a3,0x2
    76c8:	24074000 	li	a3,16384
    76cc:	8cdf0018 	lw	ra,24(a2)
    76d0:	3c04ff00 	lui	a0,0xff00
    76d4:	03e4c824 	and	t9,ra,a0
    76d8:	0327c025 	or	t8,t9,a3
    76dc:	acd80018 	sw	t8,24(a2)
    76e0:	90b2000b 	lbu	s2,11(a1)
    76e4:	a0d20027 	sb	s2,39(a2)
    76e8:	8f830050 	lw	v1,80(gp)
    76ec:	9465000c 	lhu	a1,12(v1)
    76f0:	10a0022a 	beqz	a1,0x7f9c
    76f4:	00000000 	nop
    76f8:	9467000c 	lhu	a3,12(v1)
    76fc:	3c198000 	lui	t9,0x8000
    7700:	240bffbf 	li	t3,-65
    7704:	a4c7005c 	sh	a3,92(a2)
    7708:	9062000e 	lbu	v0,14(v1)
    770c:	24070004 	li	a3,4
    7710:	a0c20008 	sb	v0,8(a2)
    7714:	8f840050 	lw	a0,80(gp)
    7718:	909f000f 	lbu	ra,15(a0)
    771c:	a0df0009 	sb	ra,9(a2)
    7720:	8f8c0050 	lw	t4,80(gp)
    7724:	8d920010 	lw	s2,16(t4)
    7728:	8f380074 	lw	t8,116(t9)
    772c:	02582823 	subu	a1,s2,t8
    7730:	acc50058 	sw	a1,88(a2)
    7734:	8d8f0014 	lw	t7,20(t4)
    7738:	accf002c 	sw	t7,44(a2)
    773c:	95910018 	lhu	s1,24(t4)
    7740:	3229ffff 	andi	t1,s1,0xffff
    7744:	acc90040 	sw	t1,64(a2)
    7748:	958e001a 	lhu	t6,26(t4)
    774c:	31d0ffff 	andi	s0,t6,0xffff
    7750:	acd00044 	sw	s0,68(a2)
    7754:	8d8d001c 	lw	t5,28(t4)
    7758:	accd0048 	sw	t5,72(a2)
    775c:	95880002 	lhu	t0,2(t4)
    7760:	a4c80078 	sh	t0,120(a2)
    7764:	9183000e 	lbu	v1,14(t4)
    7768:	a0c30008 	sb	v1,8(a2)
    776c:	90ca0008 	lbu	t2,8(a2)
    7770:	014b1024 	and	v0,t2,t3
    7774:	126001d4 	beqz	s3,0x7ec8
    7778:	a0c20008 	sb	v0,8(a2)
    777c:	8f920050 	lw	s2,80(gp)
    7780:	0a00083a 	j	0x80020e8
    7784:	af870060 	sw	a3,96(gp)
    7788:	24060006 	li	a2,6
    778c:	14a60014 	bne	a1,a2,0x77e0
    7790:	3c0d8000 	lui	t5,0x8000
    7794:	3c100800 	lui	s0,0x800
    7798:	8e105738 	lw	s0,22328(s0)
    779c:	8f8cfd88 	lw	t4,-632(gp)
    77a0:	adb00020 	sw	s0,32(t5)
    77a4:	8e480018 	lw	t0,24(s2)
    77a8:	8f86fd8c 	lw	a2,-628(gp)
    77ac:	8f8afd90 	lw	t2,-624(gp)
    77b0:	ad880000 	sw	t0,0(t4)
    77b4:	8cc30038 	lw	v1,56(a2)
    77b8:	24040005 	li	a0,5
    77bc:	ad830004 	sw	v1,4(t4)
    77c0:	8ccb003c 	lw	t3,60(a2)
    77c4:	12600081 	beqz	s3,0x79cc
    77c8:	ad4b0000 	sw	t3,0(t2)
    77cc:	0a00083a 	j	0x80020e8
    77d0:	af840060 	sw	a0,96(gp)
    77d4:	240e0007 	li	t6,7
    77d8:	10ae004b 	beq	a1,t6,0x7908
    77dc:	24040006 	li	a0,6
    77e0:	3c050800 	lui	a1,0x800
    77e4:	24a55738 	addiu	a1,a1,22328
    77e8:	0e000749 	jal	0x8001d24
    77ec:	24040081 	li	a0,129
    77f0:	8f920050 	lw	s2,80(gp)
    77f4:	0013102b 	sltu	v0,zero,s3
    77f8:	0a00083a 	j	0x80020e8
    77fc:	af820060 	sw	v0,96(gp)
    7800:	24190023 	li	t9,35
    7804:	14b9fff6 	bne	a1,t9,0x77e0
    7808:	3c0b8000 	lui	t3,0x8000
    780c:	3c0c0800 	lui	t4,0x800
    7810:	8d8c5738 	lw	t4,22328(t4)
    7814:	8f8afd90 	lw	t2,-624(gp)
    7818:	ad6c0020 	sw	t4,32(t3)
    781c:	8f91fd8c 	lw	s1,-628(gp)
    7820:	8e460004 	lw	a2,4(s2)
    7824:	25440020 	addiu	a0,t2,32
    7828:	26450014 	addiu	a1,s2,20
    782c:	ae260028 	sw	a2,40(s1)
    7830:	24060003 	li	a2,3
    7834:	0e000e60 	jal	0x8003980
    7838:	25500030 	addiu	s0,t2,48
    783c:	8f870050 	lw	a3,80(gp)
    7840:	02002021 	move	a0,s0
    7844:	24060003 	li	a2,3
    7848:	0e000e60 	jal	0x8003980
    784c:	24e50008 	addiu	a1,a3,8
    7850:	3c040800 	lui	a0,0x800
    7854:	24845738 	addiu	a0,a0,22328
    7858:	0e000776 	jal	0x8001dd8
    785c:	00000000 	nop
    7860:	92220000 	lbu	v0,0(s1)
    7864:	241f0050 	li	ra,80
    7868:	304400ff 	andi	a0,v0,0xff
    786c:	549fffe1 	bnel	a0,ra,0x77f4
    7870:	8f920050 	lw	s2,80(gp)
    7874:	0e000e4b 	jal	0x800392c
    7878:	00000000 	nop
    787c:	0a00093f 	j	0x80024fc
    7880:	8f920050 	lw	s2,80(gp)
    7884:	24030033 	li	v1,51
    7888:	14a30032 	bne	a1,v1,0x7954
    788c:	3c028000 	lui	v0,0x8000
    7890:	3c110800 	lui	s1,0x800
    7894:	8e315738 	lw	s1,22328(s1)
    7898:	8f8efd90 	lw	t6,-624(gp)
    789c:	ac510020 	sw	s1,32(v0)
    78a0:	8e440008 	lw	a0,8(s2)
    78a4:	24090028 	li	t1,40
    78a8:	8f88fd8c 	lw	t0,-628(gp)
    78ac:	adc40030 	sw	a0,48(t6)
    78b0:	8e5f000c 	lw	ra,12(s2)
    78b4:	24060009 	li	a2,9
    78b8:	addf0034 	sw	ra,52(t6)
    78bc:	8e590010 	lw	t9,16(s2)
    78c0:	add90038 	sw	t9,56(t6)
    78c4:	8e580014 	lw	t8,20(s2)
    78c8:	add80020 	sw	t8,32(t6)
    78cc:	8e450018 	lw	a1,24(s2)
    78d0:	adc50024 	sw	a1,36(t6)
    78d4:	8e4f001c 	lw	t7,28(s2)
    78d8:	adcf0028 	sw	t7,40(t6)
    78dc:	a1c90011 	sb	t1,17(t6)
    78e0:	8e4d0004 	lw	t5,4(s2)
    78e4:	12600031 	beqz	s3,0x79ac
    78e8:	ad0d0028 	sw	t5,40(t0)
    78ec:	8f920050 	lw	s2,80(gp)
    78f0:	0a00083a 	j	0x80020e8
    78f4:	af860060 	sw	a2,96(gp)
    78f8:	24090022 	li	t1,34
    78fc:	14a9ffb8 	bne	a1,t1,0x77e0
    7900:	00000000 	nop
    7904:	24040007 	li	a0,7
    7908:	3c0f0800 	lui	t7,0x800
    790c:	8def5738 	lw	t7,22328(t7)
    7910:	3c118000 	lui	s1,0x8000
    7914:	ae2f0020 	sw	t7,32(s1)
    7918:	5660feb1 	bnezl	s3,0x73e0
    791c:	af840060 	sw	a0,96(gp)
    7920:	3c040800 	lui	a0,0x800
    7924:	24845738 	addiu	a0,a0,22328
    7928:	0e000776 	jal	0x8001dd8
    792c:	24130050 	li	s3,80
    7930:	8f98fd8c 	lw	t8,-628(gp)
    7934:	93120000 	lbu	s2,0(t8)
    7938:	324500ff 	andi	a1,s2,0xff
    793c:	10b30169 	beq	a1,s3,0x7ee4
    7940:	00000000 	nop
    7944:	8f920050 	lw	s2,80(gp)
    7948:	00002021 	move	a0,zero
    794c:	0a00083a 	j	0x80020e8
    7950:	af840060 	sw	a0,96(gp)
    7954:	3c050800 	lui	a1,0x800
    7958:	24a55738 	addiu	a1,a1,22328
    795c:	0e000719 	jal	0x8001c64
    7960:	24040081 	li	a0,129
    7964:	0a00093f 	j	0x80024fc
    7968:	8f920050 	lw	s2,80(gp)
    796c:	02d49821 	addu	s3,s6,s4
    7970:	3265ffff 	andi	a1,s3,0xffff
    7974:	0e00070c 	jal	0x8001c30
    7978:	24040084 	li	a0,132
    797c:	0a00083a 	j	0x80020e8
    7980:	8f920050 	lw	s2,80(gp)
    7984:	1088ff51 	beq	a0,t0,0x76cc
    7988:	24070400 	li	a3,1024
    798c:	28870003 	slti	a3,a0,3
    7990:	10e001a3 	beqz	a3,0x8020
    7994:	24100004 	li	s0,4
    7998:	240d0001 	li	t5,1
    799c:	548dff4b 	bnel	a0,t5,0x76cc
    79a0:	24074000 	li	a3,16384
    79a4:	0a0008f5 	j	0x80023d4
    79a8:	24070100 	li	a3,256
    79ac:	3c050800 	lui	a1,0x800
    79b0:	24a55738 	addiu	a1,a1,22328
    79b4:	0e000768 	jal	0x8001da0
    79b8:	24040082 	li	a0,130
    79bc:	8f920050 	lw	s2,80(gp)
    79c0:	00003021 	move	a2,zero
    79c4:	0a00083a 	j	0x80020e8
    79c8:	af860060 	sw	a2,96(gp)
    79cc:	3c040800 	lui	a0,0x800
    79d0:	24845738 	addiu	a0,a0,22328
    79d4:	8cc20038 	lw	v0,56(a2)
    79d8:	0e000776 	jal	0x8001dd8
    79dc:	8cc3003c 	lw	v1,60(a2)
    79e0:	8f920050 	lw	s2,80(gp)
    79e4:	0a000995 	j	0x8002654
    79e8:	00002021 	move	a0,zero
    79ec:	24040082 	li	a0,130
    79f0:	3c050800 	lui	a1,0x800
    79f4:	24a55738 	addiu	a1,a1,22328
    79f8:	0e000768 	jal	0x8001da0
    79fc:	00000000 	nop
    7a00:	8f920050 	lw	s2,80(gp)
    7a04:	00001021 	move	v0,zero
    7a08:	0a00083a 	j	0x80020e8
    7a0c:	af820060 	sw	v0,96(gp)
    7a10:	8e500004 	lw	s0,4(s2)
    7a14:	8f91fd8c 	lw	s1,-628(gp)
    7a18:	3c0a8000 	lui	t2,0x8000
    7a1c:	ad500020 	sw	s0,32(t2)
    7a20:	92220005 	lbu	v0,5(s1)
    7a24:	02002821 	move	a1,s0
    7a28:	30460002 	andi	a2,v0,0x2
    7a2c:	14c00180 	bnez	a2,0x8030
    7a30:	2404008a 	li	a0,138
    7a34:	8f92fd90 	lw	s2,-624(gp)
    7a38:	02002821 	move	a1,s0
    7a3c:	2404008d 	li	a0,141
    7a40:	924b001b 	lbu	t3,27(s2)
    7a44:	31630020 	andi	v1,t3,0x20
    7a48:	14600179 	bnez	v1,0x8030
    7a4c:	00000000 	nop
    7a50:	922d0009 	lbu	t5,9(s1)
    7a54:	240c0012 	li	t4,18
    7a58:	31a800ff 	andi	t0,t5,0xff
    7a5c:	110c0174 	beq	t0,t4,0x8030
    7a60:	24040081 	li	a0,129
    7a64:	0e00073a 	jal	0x8001ce8
    7a68:	02002021 	move	a0,s0
    7a6c:	9245001b 	lbu	a1,27(s2)
    7a70:	240e0004 	li	t6,4
    7a74:	02002021 	move	a0,s0
    7a78:	34a90042 	ori	t1,a1,0x42
    7a7c:	a249001b 	sb	t1,27(s2)
    7a80:	0e000744 	jal	0x8001d10
    7a84:	a22e0025 	sb	t6,37(s1)
    7a88:	3c048000 	lui	a0,0x8000
    7a8c:	8c910178 	lw	s1,376(a0)
    7a90:	0620fffe 	bltz	s1,0x7a8c
    7a94:	24180002 	li	t8,2
    7a98:	ac900140 	sw	s0,320(a0)
    7a9c:	a0980144 	sb	t8,324(a0)
    7aa0:	8f920050 	lw	s2,80(gp)
    7aa4:	3c0f1000 	lui	t7,0x1000
    7aa8:	ac8f0178 	sw	t7,376(a0)
    7aac:	0a000940 	j	0x8002500
    7ab0:	0013102b 	sltu	v0,zero,s3
    7ab4:	8e500004 	lw	s0,4(s2)
    7ab8:	8f91fd8c 	lw	s1,-628(gp)
    7abc:	3c1f8000 	lui	ra,0x8000
    7ac0:	aff00020 	sw	s0,32(ra)
    7ac4:	92390005 	lbu	t9,5(s1)
    7ac8:	02002821 	move	a1,s0
    7acc:	33270002 	andi	a3,t9,0x2
    7ad0:	14e00017 	bnez	a3,0x7b30
    7ad4:	2404008a 	li	a0,138
    7ad8:	92240009 	lbu	a0,9(s1)
    7adc:	24120004 	li	s2,4
    7ae0:	02002821 	move	a1,s0
    7ae4:	308600ff 	andi	a2,a0,0xff
    7ae8:	10d20011 	beq	a2,s2,0x7b30
    7aec:	24040081 	li	a0,129
    7af0:	0e00073a 	jal	0x8001ce8
    7af4:	02002021 	move	a0,s0
    7af8:	8f8cfd90 	lw	t4,-624(gp)
    7afc:	240b0012 	li	t3,18
    7b00:	2403fffe 	li	v1,-2
    7b04:	918d001b 	lbu	t5,27(t4)
    7b08:	02002021 	move	a0,s0
    7b0c:	35a80020 	ori	t0,t5,0x20
    7b10:	a188001b 	sb	t0,27(t4)
    7b14:	a22b0009 	sb	t3,9(s1)
    7b18:	922a0005 	lbu	t2,5(s1)
    7b1c:	01431024 	and	v0,t2,v1
    7b20:	0e000744 	jal	0x8001d10
    7b24:	a2220005 	sb	v0,5(s1)
    7b28:	02002821 	move	a1,s0
    7b2c:	00002021 	move	a0,zero
    7b30:	0e000805 	jal	0x8002014
    7b34:	00000000 	nop
    7b38:	0a00093f 	j	0x80024fc
    7b3c:	8f920050 	lw	s2,80(gp)
    7b40:	8e510004 	lw	s1,4(s2)
    7b44:	3c028000 	lui	v0,0x8000
    7b48:	3c100800 	lui	s0,0x800
    7b4c:	26105738 	addiu	s0,s0,22328
    7b50:	ac510020 	sw	s1,32(v0)
    7b54:	3c010800 	lui	at,0x800
    7b58:	ac315738 	sw	s1,22328(at)
    7b5c:	92460003 	lbu	a2,3(s2)
    7b60:	30c40004 	andi	a0,a2,0x4
    7b64:	10800165 	beqz	a0,0x80fc
    7b68:	8f84fd8c 	lw	a0,-628(gp)
    7b6c:	24020006 	li	v0,6
    7b70:	a0820009 	sb	v0,9(a0)
    7b74:	924d001b 	lbu	t5,27(s2)
    7b78:	2408ffc0 	li	t0,-64
    7b7c:	31ac003f 	andi	t4,t5,0x3f
    7b80:	01885825 	or	t3,t4,t0
    7b84:	a08b0008 	sb	t3,8(a0)
    7b88:	92430003 	lbu	v1,3(s2)
    7b8c:	306a0001 	andi	t2,v1,0x1
    7b90:	1540015c 	bnez	t2,0x8104
    7b94:	00000000 	nop
    7b98:	8e420008 	lw	v0,8(s2)
    7b9c:	ae020008 	sw	v0,8(s0)
    7ba0:	3c020800 	lui	v0,0x800
    7ba4:	8c425740 	lw	v0,22336(v0)
    7ba8:	1040015b 	beqz	v0,0x8118
    7bac:	8f8efd90 	lw	t6,-624(gp)
    7bb0:	000281c2 	srl	s0,v0,0x7
    7bb4:	8f85fd8c 	lw	a1,-628(gp)
    7bb8:	a5d0000c 	sh	s0,12(t6)
    7bbc:	8e5f000c 	lw	ra,12(s2)
    7bc0:	240f0001 	li	t7,1
    7bc4:	24090014 	li	t1,20
    7bc8:	addf002c 	sw	ra,44(t6)
    7bcc:	8e590010 	lw	t9,16(s2)
    7bd0:	add9001c 	sw	t9,28(t6)
    7bd4:	96470016 	lhu	a3,22(s2)
    7bd8:	a5c7003c 	sh	a3,60(t6)
    7bdc:	96580014 	lhu	t8,20(s2)
    7be0:	a5d8003e 	sh	t8,62(t6)
    7be4:	acaf000c 	sw	t7,12(a1)
    7be8:	a4af0010 	sh	t7,16(a1)
    7bec:	a4af0012 	sh	t7,18(a1)
    7bf0:	a4af0014 	sh	t7,20(a1)
    7bf4:	a4af0016 	sh	t7,22(a1)
    7bf8:	1260015f 	beqz	s3,0x8178
    7bfc:	a1c90011 	sb	t1,17(t6)
    7c00:	92440003 	lbu	a0,3(s2)
    7c04:	30920002 	andi	s2,a0,0x2
    7c08:	2e530001 	sltiu	s3,s2,1
    7c0c:	8f920050 	lw	s2,80(gp)
    7c10:	26620008 	addiu	v0,s3,8
    7c14:	0a00083a 	j	0x80020e8
    7c18:	af820060 	sw	v0,96(gp)
    7c1c:	8e460004 	lw	a2,4(s2)
    7c20:	3c058000 	lui	a1,0x8000
    7c24:	3c048008 	lui	a0,0x8008
    7c28:	aca60020 	sw	a2,32(a1)
    7c2c:	8e470008 	lw	a3,8(s2)
    7c30:	90890000 	lbu	t1,0(a0)
    7c34:	24110050 	li	s1,80
    7c38:	312200ff 	andi	v0,t1,0xff
    7c3c:	105100b8 	beq	v0,s1,0x7f20
    7c40:	24050088 	li	a1,136
    7c44:	3c048000 	lui	a0,0x8000
    7c48:	8c8f01b8 	lw	t7,440(a0)
    7c4c:	05e0fffe 	bltz	t7,0x7c48
    7c50:	0013802b 	sltu	s0,zero,s3
    7c54:	3c184009 	lui	t8,0x4009
    7c58:	00b81025 	or	v0,a1,t8
    7c5c:	af900060 	sw	s0,96(gp)
    7c60:	3c101000 	lui	s0,0x1000
    7c64:	ac860180 	sw	a2,384(a0)
    7c68:	ac870184 	sw	a3,388(a0)
    7c6c:	ac820188 	sw	v0,392(a0)
    7c70:	ac9001b8 	sw	s0,440(a0)
    7c74:	0a00083b 	j	0x80020ec
    7c78:	8f860044 	lw	a2,68(gp)
    7c7c:	8e450004 	lw	a1,4(s2)
    7c80:	3c068000 	lui	a2,0x8000
    7c84:	3c098008 	lui	t1,0x8008
    7c88:	acc50020 	sw	a1,32(a2)
    7c8c:	913f0000 	lbu	ra,0(t1)
    7c90:	24040050 	li	a0,80
    7c94:	33f900ff 	andi	t9,ra,0xff
    7c98:	132400b0 	beq	t9,a0,0x7f5c
    7c9c:	24060088 	li	a2,136
    7ca0:	3c048000 	lui	a0,0x8000
    7ca4:	8c8a01b8 	lw	t2,440(a0)
    7ca8:	0540fffe 	bltz	t2,0x7ca4
    7cac:	3c0e400e 	lui	t6,0x400e
    7cb0:	00ce6825 	or	t5,a2,t6
    7cb4:	3c081000 	lui	t0,0x1000
    7cb8:	ac850180 	sw	a1,384(a0)
    7cbc:	ac800184 	sw	zero,388(a0)
    7cc0:	ac8d0188 	sw	t5,392(a0)
    7cc4:	ac8801b8 	sw	t0,440(a0)
    7cc8:	912b0000 	lbu	t3,0(t1)
    7ccc:	240cff80 	li	t4,-128
    7cd0:	24040004 	li	a0,4
    7cd4:	016c1825 	or	v1,t3,t4
    7cd8:	24060030 	li	a2,48
    7cdc:	0e0006aa 	jal	0x8001aa8
    7ce0:	a1230000 	sb	v1,0(t1)
    7ce4:	0a00093f 	j	0x80024fc
    7ce8:	8f920050 	lw	s2,80(gp)
    7cec:	8e500004 	lw	s0,4(s2)
    7cf0:	8f91fd90 	lw	s1,-624(gp)
    7cf4:	3c0f8000 	lui	t7,0x8000
    7cf8:	adf00020 	sw	s0,32(t7)
    7cfc:	9225001b 	lbu	a1,27(s1)
    7d00:	30a90010 	andi	t1,a1,0x10
    7d04:	1120007c 	beqz	t1,0x7ef8
    7d08:	24030081 	li	v1,129
    7d0c:	3c048000 	lui	a0,0x8000
    7d10:	8c8701b8 	lw	a3,440(a0)
    7d14:	04e0fffe 	bltz	a3,0x7d10
    7d18:	3c1f401f 	lui	ra,0x401f
    7d1c:	ac900180 	sw	s0,384(a0)
    7d20:	007f1025 	or	v0,v1,ra
    7d24:	0013c82b 	sltu	t9,zero,s3
    7d28:	3c101000 	lui	s0,0x1000
    7d2c:	ac800184 	sw	zero,388(a0)
    7d30:	af990060 	sw	t9,96(gp)
    7d34:	ac820188 	sw	v0,392(a0)
    7d38:	ac9001b8 	sw	s0,440(a0)
    7d3c:	0a00083b 	j	0x80020ec
    7d40:	8f860044 	lw	a2,68(gp)
    7d44:	8e44001c 	lw	a0,28(s2)
    7d48:	0e000725 	jal	0x8001c94
    7d4c:	00000000 	nop
    7d50:	104000f8 	beqz	v0,0x8134
    7d54:	00403821 	move	a3,v0
    7d58:	8f920050 	lw	s2,80(gp)
    7d5c:	24060089 	li	a2,137
    7d60:	3c058000 	lui	a1,0x8000
    7d64:	8cae01b8 	lw	t6,440(a1)
    7d68:	05c0fffe 	bltz	t6,0x7d64
    7d6c:	00000000 	nop
    7d70:	aca70180 	sw	a3,384(a1)
    7d74:	8e50001c 	lw	s0,28(s2)
    7d78:	3c114001 	lui	s1,0x4001
    7d7c:	0013782b 	sltu	t7,zero,s3
    7d80:	00d13825 	or	a3,a2,s1
    7d84:	3c131000 	lui	s3,0x1000
    7d88:	acb00184 	sw	s0,388(a1)
    7d8c:	af8f0060 	sw	t7,96(gp)
    7d90:	aca70188 	sw	a3,392(a1)
    7d94:	acb301b8 	sw	s3,440(a1)
    7d98:	0a00083b 	j	0x80020ec
    7d9c:	8f860044 	lw	a2,68(gp)
    7da0:	96590002 	lhu	t9,2(s2)
    7da4:	3c100800 	lui	s0,0x800
    7da8:	26105738 	addiu	s0,s0,22328
    7dac:	33380004 	andi	t8,t9,0x4
    7db0:	130000a3 	beqz	t8,0x8040
    7db4:	3c046000 	lui	a0,0x6000
    7db8:	8e5f001c 	lw	ra,28(s2)
    7dbc:	3c068000 	lui	a2,0x8000
    7dc0:	acdf0020 	sw	ra,32(a2)
    7dc4:	3c010800 	lui	at,0x800
    7dc8:	ac3f5738 	sw	ra,22328(at)
    7dcc:	964f0002 	lhu	t7,2(s2)
    7dd0:	31e70001 	andi	a3,t7,0x1
    7dd4:	14e000e3 	bnez	a3,0x8164
    7dd8:	00000000 	nop
    7ddc:	8e420004 	lw	v0,4(s2)
    7de0:	ae020008 	sw	v0,8(s0)
    7de4:	3c100800 	lui	s0,0x800
    7de8:	8e105740 	lw	s0,22336(s0)
    7dec:	120000d9 	beqz	s0,0x8154
    7df0:	3c068000 	lui	a2,0x8000
    7df4:	8f85fd8c 	lw	a1,-628(gp)
    7df8:	24100001 	li	s0,1
    7dfc:	8cbf0018 	lw	ra,24(a1)
    7e00:	8f91fd90 	lw	s1,-624(gp)
    7e04:	8f89fd88 	lw	t1,-632(gp)
    7e08:	03e6c825 	or	t9,ra,a2
    7e0c:	acb90018 	sw	t9,24(a1)
    7e10:	a0a00005 	sb	zero,5(a1)
    7e14:	acb0000c 	sw	s0,12(a1)
    7e18:	3c180800 	lui	t8,0x800
    7e1c:	8f185740 	lw	t8,22336(t8)
    7e20:	8f870050 	lw	a3,80(gp)
    7e24:	a4b00010 	sh	s0,16(a1)
    7e28:	001879c2 	srl	t7,t8,0x7
    7e2c:	a4b00012 	sh	s0,18(a1)
    7e30:	a4b00014 	sh	s0,20(a1)
    7e34:	a4b00016 	sh	s0,22(a1)
    7e38:	a62f000c 	sh	t7,12(s1)
    7e3c:	8cee0008 	lw	t6,8(a3)
    7e40:	8f8d0050 	lw	t5,80(gp)
    7e44:	8f8c0050 	lw	t4,80(gp)
    7e48:	ae2e002c 	sw	t6,44(s1)
    7e4c:	8da8000c 	lw	t0,12(t5)
    7e50:	24070002 	li	a3,2
    7e54:	ae28001c 	sw	t0,28(s1)
    7e58:	918b0010 	lbu	t3,16(t4)
    7e5c:	a22b0011 	sb	t3,17(s1)
    7e60:	8f830050 	lw	v1,80(gp)
    7e64:	906a0011 	lbu	t2,17(v1)
    7e68:	a12a0008 	sb	t2,8(t1)
    7e6c:	8f820050 	lw	v0,80(gp)
    7e70:	90440012 	lbu	a0,18(v0)
    7e74:	a0a4004e 	sb	a0,78(a1)
    7e78:	8f920050 	lw	s2,80(gp)
    7e7c:	92460013 	lbu	a2,19(s2)
    7e80:	a2260012 	sb	a2,18(s1)
    7e84:	8f920050 	lw	s2,80(gp)
    7e88:	965f0014 	lhu	ra,20(s2)
    7e8c:	a63f003c 	sh	ra,60(s1)
    7e90:	96590016 	lhu	t9,22(s2)
    7e94:	a639003e 	sh	t9,62(s1)
    7e98:	8e580018 	lw	t8,24(s2)
    7e9c:	ae380014 	sw	t8,20(s1)
    7ea0:	5660fd4f 	bnezl	s3,0x73e0
    7ea4:	af870060 	sw	a3,96(gp)
    7ea8:	3c050800 	lui	a1,0x800
    7eac:	24a55738 	addiu	a1,a1,22328
    7eb0:	0e000749 	jal	0x8001d24
    7eb4:	00002021 	move	a0,zero
    7eb8:	8f920050 	lw	s2,80(gp)
    7ebc:	00003821 	move	a3,zero
    7ec0:	0a00083a 	j	0x80020e8
    7ec4:	af870060 	sw	a3,96(gp)
    7ec8:	3c050800 	lui	a1,0x800
    7ecc:	24a55738 	addiu	a1,a1,22328
    7ed0:	0e000768 	jal	0x8001da0
    7ed4:	24040082 	li	a0,130
    7ed8:	8f920050 	lw	s2,80(gp)
    7edc:	0a000922 	j	0x8002488
    7ee0:	00003821 	move	a3,zero
    7ee4:	0e000e4b 	jal	0x800392c
    7ee8:	00000000 	nop
    7eec:	8f920050 	lw	s2,80(gp)
    7ef0:	0a000995 	j	0x8002654
    7ef4:	00002021 	move	a0,zero
    7ef8:	0e00073a 	jal	0x8001ce8
    7efc:	02002021 	move	a0,s0
    7f00:	9232001b 	lbu	s2,27(s1)
    7f04:	02002021 	move	a0,s0
    7f08:	36580010 	ori	t8,s2,0x10
    7f0c:	0e000744 	jal	0x8001d10
    7f10:	a238001b 	sb	t8,27(s1)
    7f14:	8f920050 	lw	s2,80(gp)
    7f18:	0a000a85 	j	0x8002a14
    7f1c:	00001821 	move	v1,zero
    7f20:	9243000c 	lbu	v1,12(s2)
    7f24:	306a0001 	andi	t2,v1,0x1
    7f28:	11400003 	beqz	t2,0x7f38
    7f2c:	00000000 	nop
    7f30:	964b000e 	lhu	t3,14(s2)
    7f34:	a48b002c 	sh	t3,44(a0)
    7f38:	9248000c 	lbu	t0,12(s2)
    7f3c:	310c0002 	andi	t4,t0,0x2
    7f40:	1180ff40 	beqz	t4,0x7c44
    7f44:	00002821 	move	a1,zero
    7f48:	964e0012 	lhu	t6,18(s2)
    7f4c:	8e4d0014 	lw	t5,20(s2)
    7f50:	a48e001a 	sh	t6,26(a0)
    7f54:	0a000a53 	j	0x800294c
    7f58:	ac8d001c 	sw	t5,28(a0)
    7f5c:	8f830070 	lw	v1,112(gp)
    7f60:	8f870068 	lw	a3,104(gp)
    7f64:	1067ff4e 	beq	v1,a3,0x7ca0
    7f68:	00003021 	move	a2,zero
    7f6c:	3c080800 	lui	t0,0x800
    7f70:	250856bc 	addiu	t0,t0,22204
    7f74:	000320c0 	sll	a0,v1,0x3
    7f78:	00883021 	addu	a2,a0,t0
    7f7c:	8cd10000 	lw	s1,0(a2)
    7f80:	122500c8 	beq	s1,a1,0x82a4
    7f84:	24620001 	addiu	v0,v1,1
    7f88:	3043000f 	andi	v1,v0,0xf
    7f8c:	1467fffa 	bne	v1,a3,0x7f78
    7f90:	000320c0 	sll	a0,v1,0x3
    7f94:	0a000a6a 	j	0x80029a8
    7f98:	00003021 	move	a2,zero
    7f9c:	3c050800 	lui	a1,0x800
    7fa0:	24a55738 	addiu	a1,a1,22328
    7fa4:	0e000768 	jal	0x8001da0
    7fa8:	2404008b 	li	a0,139
    7fac:	8f920050 	lw	s2,80(gp)
    7fb0:	0a000922 	j	0x8002488
    7fb4:	0013382b 	sltu	a3,zero,s3
    7fb8:	3c0b0800 	lui	t3,0x800
    7fbc:	8d6b5738 	lw	t3,22328(t3)
    7fc0:	24d8fffe 	addiu	t8,a2,-2
    7fc4:	25710100 	addiu	s1,t3,256
    7fc8:	322a007f 	andi	t2,s1,0x7f
    7fcc:	01479021 	addu	s2,t2,a3
    7fd0:	02331024 	and	v0,s1,s3
    7fd4:	ad020028 	sw	v0,40(t0)
    7fd8:	ae4600d0 	sw	a2,208(s2)
    7fdc:	ae4000d4 	sw	zero,212(s2)
    7fe0:	0a00088b 	j	0x800222c
    7fe4:	ae58001c 	sw	t8,28(s2)
    7fe8:	acc00054 	sw	zero,84(a2)
    7fec:	3c0e0800 	lui	t6,0x800
    7ff0:	8dce5738 	lw	t6,22328(t6)
    7ff4:	3c09800c 	lui	t1,0x800c
    7ff8:	352c0100 	ori	t4,t1,0x100
    7ffc:	acee0028 	sw	t6,40(a3)
    8000:	8e500014 	lw	s0,20(s2)
    8004:	ad9000d0 	sw	s0,208(t4)
    8008:	8e4d0014 	lw	t5,20(s2)
    800c:	ad8d00d4 	sw	t5,212(t4)
    8010:	8e480010 	lw	t0,16(s2)
    8014:	2507fffe 	addiu	a3,t0,-2
    8018:	0a0008c7 	j	0x800231c
    801c:	ad87001c 	sw	a3,28(t4)
    8020:	5490fdaa 	bnel	a0,s0,0x76cc
    8024:	24074000 	li	a3,16384
    8028:	0a0008f5 	j	0x80023d4
    802c:	24071000 	li	a3,4096
    8030:	0e0007f9 	jal	0x8001fe4
    8034:	00000000 	nop
    8038:	0a00093f 	j	0x80024fc
    803c:	8f920050 	lw	s2,80(gp)
    8040:	8c83442c 	lw	v1,17452(a0)
    8044:	3c05dead 	lui	a1,0xdead
    8048:	34b2beef 	ori	s2,a1,0xbeef
    804c:	3c010800 	lui	at,0x800
    8050:	ac205738 	sw	zero,22328(at)
    8054:	10720090 	beq	v1,s2,0x8298
    8058:	00000000 	nop
    805c:	3c046c62 	lui	a0,0x6c62
    8060:	34827970 	ori	v0,a0,0x7970
    8064:	14620008 	bne	v1,v0,0x8088
    8068:	24040002 	li	a0,2
    806c:	978a006c 	lhu	t2,108(gp)
    8070:	97830064 	lhu	v1,100(gp)
    8074:	02002821 	move	a1,s0
    8078:	0143482b 	sltu	t1,t2,v1
    807c:	11200019 	beqz	t1,0x80e4
    8080:	24040092 	li	a0,146
    8084:	24040002 	li	a0,2
    8088:	0e00061a 	jal	0x8001868
    808c:	24050200 	li	a1,512
    8090:	3c0b8000 	lui	t3,0x8000
    8094:	ad620020 	sw	v0,32(t3)
    8098:	3c010800 	lui	at,0x800
    809c:	ac225738 	sw	v0,22328(at)
    80a0:	1040000d 	beqz	v0,0x80d8
    80a4:	8f8e0050 	lw	t6,80(gp)
    80a8:	240c0028 	li	t4,40
    80ac:	24040003 	li	a0,3
    80b0:	91cd0010 	lbu	t5,16(t6)
    80b4:	31a800ff 	andi	t0,t5,0xff
    80b8:	550c0001 	bnel	t0,t4,0x80c0
    80bc:	24040001 	li	a0,1
    80c0:	0e00004c 	jal	0x8000130
    80c4:	00000000 	nop
    80c8:	10400004 	beqz	v0,0x80dc
    80cc:	24040083 	li	a0,131
    80d0:	0a000ab5 	j	0x8002ad4
    80d4:	8f920050 	lw	s2,80(gp)
    80d8:	24040083 	li	a0,131
    80dc:	3c050800 	lui	a1,0x800
    80e0:	24a55738 	addiu	a1,a1,22328
    80e4:	0e000749 	jal	0x8001d24
    80e8:	00000000 	nop
    80ec:	8f920050 	lw	s2,80(gp)
    80f0:	0013382b 	sltu	a3,zero,s3
    80f4:	0a00083a 	j	0x80020e8
    80f8:	af870060 	sw	a3,96(gp)
    80fc:	0a000a1e 	j	0x8002878
    8100:	24020012 	li	v0,18
    8104:	8e440008 	lw	a0,8(s2)
    8108:	0e000725 	jal	0x8001c94
    810c:	00000000 	nop
    8110:	0a000a2a 	j	0x80028a8
    8114:	ae020008 	sw	v0,8(s0)
    8118:	3c050800 	lui	a1,0x800
    811c:	24a55738 	addiu	a1,a1,22328
    8120:	0e000719 	jal	0x8001c64
    8124:	24040087 	li	a0,135
    8128:	8f920050 	lw	s2,80(gp)
    812c:	0a000a47 	j	0x800291c
    8130:	0013102b 	sltu	v0,zero,s3
    8134:	24040004 	li	a0,4
    8138:	0e00061a 	jal	0x8001868
    813c:	24050030 	li	a1,48
    8140:	14400014 	bnez	v0,0x8194
    8144:	00403821 	move	a3,v0
    8148:	8f920050 	lw	s2,80(gp)
    814c:	0a000a9a 	j	0x8002a68
    8150:	24060083 	li	a2,131
    8154:	3c050800 	lui	a1,0x800
    8158:	24a55738 	addiu	a1,a1,22328
    815c:	0a000b7b 	j	0x8002dec
    8160:	24040087 	li	a0,135
    8164:	8e440004 	lw	a0,4(s2)
    8168:	0e000725 	jal	0x8001c94
    816c:	00000000 	nop
    8170:	0a000abb 	j	0x8002aec
    8174:	ae020008 	sw	v0,8(s0)
    8178:	3c050800 	lui	a1,0x800
    817c:	24a55738 	addiu	a1,a1,22328
    8180:	0e000768 	jal	0x8001da0
    8184:	24040082 	li	a0,130
    8188:	8f920050 	lw	s2,80(gp)
    818c:	0a000a47 	j	0x800291c
    8190:	00001021 	move	v0,zero
    8194:	8f920050 	lw	s2,80(gp)
    8198:	3c088008 	lui	t0,0x8008
    819c:	3c0c8000 	lui	t4,0x8000
    81a0:	240b0050 	li	t3,80
    81a4:	240a0001 	li	t2,1
    81a8:	ad820020 	sw	v0,32(t4)
    81ac:	a10b0000 	sb	t3,0(t0)
    81b0:	a10a0001 	sb	t2,1(t0)
    81b4:	92490004 	lbu	t1,4(s2)
    81b8:	a1090018 	sb	t1,24(t0)
    81bc:	92440005 	lbu	a0,5(s2)
    81c0:	a1040019 	sb	a0,25(t0)
    81c4:	92430006 	lbu	v1,6(s2)
    81c8:	3c040800 	lui	a0,0x800
    81cc:	248456bc 	addiu	a0,a0,22204
    81d0:	a103001a 	sb	v1,26(t0)
    81d4:	92420007 	lbu	v0,7(s2)
    81d8:	3c030800 	lui	v1,0x800
    81dc:	246356b8 	addiu	v1,v1,22200
    81e0:	a102001b 	sb	v0,27(t0)
    81e4:	92450008 	lbu	a1,8(s2)
    81e8:	a105001c 	sb	a1,28(t0)
    81ec:	92460009 	lbu	a2,9(s2)
    81f0:	a106001d 	sb	a2,29(t0)
    81f4:	925f000a 	lbu	ra,10(s2)
    81f8:	a11f001e 	sb	ra,30(t0)
    81fc:	9259000b 	lbu	t9,11(s2)
    8200:	a119001f 	sb	t9,31(t0)
    8204:	9258000c 	lbu	t8,12(s2)
    8208:	a1180020 	sb	t8,32(t0)
    820c:	9251000d 	lbu	s1,13(s2)
    8210:	a1110021 	sb	s1,33(t0)
    8214:	9250000e 	lbu	s0,14(s2)
    8218:	a1100022 	sb	s0,34(t0)
    821c:	924f000f 	lbu	t7,15(s2)
    8220:	a10f0023 	sb	t7,35(t0)
    8224:	924e0010 	lbu	t6,16(s2)
    8228:	a10e0024 	sb	t6,36(t0)
    822c:	924d0011 	lbu	t5,17(s2)
    8230:	a10d0025 	sb	t5,37(t0)
    8234:	964c0014 	lhu	t4,20(s2)
    8238:	a50c0028 	sh	t4,40(t0)
    823c:	964b0016 	lhu	t3,22(s2)
    8240:	8f8a0068 	lw	t2,104(gp)
    8244:	8f980070 	lw	t8,112(gp)
    8248:	a50b002a 	sh	t3,42(t0)
    824c:	96490018 	lhu	t1,24(s2)
    8250:	000a10c0 	sll	v0,t2,0x3
    8254:	25450001 	addiu	a1,t2,1
    8258:	a509002c 	sh	t1,44(t0)
    825c:	8e46001c 	lw	a2,28(s2)
    8260:	0044c821 	addu	t9,v0,a0
    8264:	0043f821 	addu	ra,v0,v1
    8268:	30a5000f 	andi	a1,a1,0xf
    826c:	afe60000 	sw	a2,0(ra)
    8270:	af270000 	sw	a3,0(t9)
    8274:	10b80003 	beq	a1,t8,0x8284
    8278:	af850068 	sw	a1,104(gp)
    827c:	0a000a9a 	j	0x8002a68
    8280:	00003021 	move	a2,zero
    8284:	24ad0001 	addiu	t5,a1,1
    8288:	31a8000f 	andi	t0,t5,0xf
    828c:	00003021 	move	a2,zero
    8290:	0a000a9a 	j	0x8002a68
    8294:	af880070 	sw	t0,112(gp)
    8298:	8c83442c 	lw	v1,17452(a0)
    829c:	0a000b5a 	j	0x8002d68
    82a0:	3c046c62 	lui	a0,0x6c62
    82a4:	3c070800 	lui	a3,0x800
    82a8:	24e756b8 	addiu	a3,a3,22200
    82ac:	00879021 	addu	s2,a0,a3
    82b0:	acc00000 	sw	zero,0(a2)
    82b4:	00003021 	move	a2,zero
    82b8:	0a000a6a 	j	0x80029a8
    82bc:	ae400000 	sw	zero,0(s2)
    82c0:	3c048201 	lui	a0,0x8201
    82c4:	3c036000 	lui	v1,0x6000
    82c8:	34820e02 	ori	v0,a0,0xe02
    82cc:	ac603d68 	sw	zero,15720(v1)
    82d0:	af800090 	sw	zero,144(gp)
    82d4:	03e00008 	jr	ra
    82d8:	ac623d6c 	sw	v0,15724(v1)
    82dc:	27bdffe8 	addiu	sp,sp,-24
    82e0:	afb00010 	sw	s0,16(sp)
    82e4:	3090ffff 	andi	s0,a0,0xffff
    82e8:	00101842 	srl	v1,s0,0x1
    82ec:	2c620041 	sltiu	v0,v1,65
    82f0:	afbf0014 	sw	ra,20(sp)
    82f4:	14400002 	bnez	v0,0x8300
    82f8:	24040080 	li	a0,128
    82fc:	24030040 	li	v1,64
    8300:	3c010800 	lui	at,0x800
    8304:	ac300060 	sw	s0,96(at)
    8308:	3c010800 	lui	at,0x800
    830c:	ac230064 	sw	v1,100(at)
    8310:	0e000e54 	jal	0x8003950
    8314:	00602821 	move	a1,v1
    8318:	244802bf 	addiu	t0,v0,703
    831c:	2409ff80 	li	t1,-128
    8320:	01092824 	and	a1,t0,t1
    8324:	00103980 	sll	a3,s0,0x6
    8328:	00103040 	sll	a2,s0,0x1
    832c:	8fbf0014 	lw	ra,20(sp)
    8330:	8fb00010 	lw	s0,16(sp)
    8334:	00a72021 	addu	a0,a1,a3
    8338:	00861821 	addu	v1,a0,a2
    833c:	af830078 	sw	v1,120(gp)
    8340:	3c010800 	lui	at,0x800
    8344:	ac250058 	sw	a1,88(at)
    8348:	3c010800 	lui	at,0x800
    834c:	ac24005c 	sw	a0,92(at)
    8350:	03e00008 	jr	ra
    8354:	27bd0018 	addiu	sp,sp,24
    8358:	308300ff 	andi	v1,a0,0xff
    835c:	30c6ffff 	andi	a2,a2,0xffff
    8360:	30e400ff 	andi	a0,a3,0xff
    8364:	3c088000 	lui	t0,0x8000
    8368:	8d0201b8 	lw	v0,440(t0)
    836c:	0440fffe 	bltz	v0,0x8368
    8370:	00035400 	sll	t2,v1,0x10
    8374:	01443825 	or	a3,t2,a0
    8378:	3c096000 	lui	t1,0x6000
    837c:	00e92025 	or	a0,a3,t1
    8380:	3c031000 	lui	v1,0x1000
    8384:	ad050180 	sw	a1,384(t0)
    8388:	ad060184 	sw	a2,388(t0)
    838c:	ad040188 	sw	a0,392(t0)
    8390:	03e00008 	jr	ra
    8394:	ad0301b8 	sw	v1,440(t0)
    8398:	8f860050 	lw	a2,80(gp)
    839c:	3c096012 	lui	t1,0x6012
    83a0:	35270010 	ori	a3,t1,0x10
    83a4:	8ccb0004 	lw	t3,4(a2)
    83a8:	3c0c600e 	lui	t4,0x600e
    83ac:	35850010 	ori	a1,t4,0x10
    83b0:	316a0006 	andi	t2,t3,0x6
    83b4:	2d480001 	sltiu	t0,t2,1
    83b8:	ace800c4 	sw	t0,196(a3)
    83bc:	8cc40004 	lw	a0,4(a2)
    83c0:	aca43180 	sw	a0,12672(a1)
    83c4:	8cc20008 	lw	v0,8(a2)
    83c8:	94c30002 	lhu	v1,2(a2)
    83cc:	aca23184 	sw	v0,12676(a1)
    83d0:	03e00008 	jr	ra
    83d4:	a7830088 	sh	v1,136(gp)
    83d8:	8f850050 	lw	a1,80(gp)
    83dc:	8f87ff18 	lw	a3,-232(gp)
    83e0:	8f86ff20 	lw	a2,-224(gp)
    83e4:	8cae0004 	lw	t6,4(a1)
    83e8:	3c0f6012 	lui	t7,0x6012
    83ec:	35e80010 	ori	t0,t7,0x10
    83f0:	acee0068 	sw	t6,104(a3)
    83f4:	8cad0008 	lw	t5,8(a1)
    83f8:	aced006c 	sw	t5,108(a3)
    83fc:	8cac0010 	lw	t4,16(a1)
    8400:	accc004c 	sw	t4,76(a2)
    8404:	8cab000c 	lw	t3,12(a1)
    8408:	accb0048 	sw	t3,72(a2)
    840c:	94ca0054 	lhu	t2,84(a2)
    8410:	3c020800 	lui	v0,0x800
    8414:	8c420044 	lw	v0,68(v0)
    8418:	25490001 	addiu	t1,t2,1
    841c:	a4c90054 	sh	t1,84(a2)
    8420:	94c40054 	lhu	a0,84(a2)
    8424:	3083ffff 	andi	v1,a0,0xffff
    8428:	10620017 	beq	v1,v0,0x8488
    842c:	00000000 	nop
    8430:	3c020800 	lui	v0,0x800
    8434:	8c420040 	lw	v0,64(v0)
    8438:	a4c20052 	sh	v0,82(a2)
    843c:	8ca30018 	lw	v1,24(a1)
    8440:	ace30030 	sw	v1,48(a3)
    8444:	8ca20014 	lw	v0,20(a1)
    8448:	ace2002c 	sw	v0,44(a3)
    844c:	8cb90018 	lw	t9,24(a1)
    8450:	acf90038 	sw	t9,56(a3)
    8454:	8cb80014 	lw	t8,20(a1)
    8458:	24050001 	li	a1,1
    845c:	acf80034 	sw	t8,52(a3)
    8460:	8d0600bc 	lw	a2,188(t0)
    8464:	50c50019 	beql	a2,a1,0x84cc
    8468:	8d0200b4 	lw	v0,180(t0)
    846c:	8d0200b8 	lw	v0,184(t0)
    8470:	a4e20048 	sh	v0,72(a3)
    8474:	94e40048 	lhu	a0,72(a3)
    8478:	a4e4004a 	sh	a0,74(a3)
    847c:	94e800da 	lhu	t0,218(a3)
    8480:	03e00008 	jr	ra
    8484:	3102ffff 	andi	v0,t0,0xffff
    8488:	3c020800 	lui	v0,0x800
    848c:	8c420024 	lw	v0,36(v0)
    8490:	a4c00054 	sh	zero,84(a2)
    8494:	a4c20052 	sh	v0,82(a2)
    8498:	8ca30018 	lw	v1,24(a1)
    849c:	ace30030 	sw	v1,48(a3)
    84a0:	8ca20014 	lw	v0,20(a1)
    84a4:	ace2002c 	sw	v0,44(a3)
    84a8:	8cb90018 	lw	t9,24(a1)
    84ac:	acf90038 	sw	t9,56(a3)
    84b0:	8cb80014 	lw	t8,20(a1)
    84b4:	24050001 	li	a1,1
    84b8:	acf80034 	sw	t8,52(a3)
    84bc:	8d0600bc 	lw	a2,188(t0)
    84c0:	54c5ffeb 	bnel	a2,a1,0x8470
    84c4:	8d0200b8 	lw	v0,184(t0)
    84c8:	8d0200b4 	lw	v0,180(t0)
    84cc:	a4e20048 	sh	v0,72(a3)
    84d0:	94e40048 	lhu	a0,72(a3)
    84d4:	a4e4004a 	sh	a0,74(a3)
    84d8:	94e800da 	lhu	t0,218(a3)
    84dc:	03e00008 	jr	ra
    84e0:	3102ffff 	andi	v0,t0,0xffff
    84e4:	8f860050 	lw	a2,80(gp)
    84e8:	3c048000 	lui	a0,0x8000
    84ec:	8cc90008 	lw	t1,8(a2)
    84f0:	8cc80008 	lw	t0,8(a2)
    84f4:	000929c0 	sll	a1,t1,0x7
    84f8:	000839c0 	sll	a3,t0,0x7
    84fc:	ac870020 	sw	a3,32(a0)
    8500:	90c30007 	lbu	v1,7(a2)
    8504:	30620004 	andi	v0,v1,0x4
    8508:	1040003a 	beqz	v0,0x85f4
    850c:	af85008c 	sw	a1,140(gp)
    8510:	90cb0007 	lbu	t3,7(a2)
    8514:	316a0008 	andi	t2,t3,0x8
    8518:	11400039 	beqz	t2,0x8600
    851c:	8f87ff1c 	lw	a3,-228(gp)
    8520:	8ccd000c 	lw	t5,12(a2)
    8524:	8cce0014 	lw	t6,20(a2)
    8528:	01ae602b 	sltu	t4,t5,t6
    852c:	11800032 	beqz	t4,0x85f8
    8530:	00000000 	nop
    8534:	8cc2000c 	lw	v0,12(a2)
    8538:	ace20070 	sw	v0,112(a3)
    853c:	8ccb0018 	lw	t3,24(a2)
    8540:	8f85ff18 	lw	a1,-232(gp)
    8544:	8f88ff20 	lw	t0,-224(gp)
    8548:	aceb0074 	sw	t3,116(a3)
    854c:	8cca0010 	lw	t2,16(a2)
    8550:	2402fff8 	li	v0,-8
    8554:	acaa00c8 	sw	t2,200(a1)
    8558:	8cc9000c 	lw	t1,12(a2)
    855c:	ad090060 	sw	t1,96(t0)
    8560:	8cc4001c 	lw	a0,28(a2)
    8564:	aca400c0 	sw	a0,192(a1)
    8568:	90e3007c 	lbu	v1,124(a3)
    856c:	0062c824 	and	t9,v1,v0
    8570:	a0f9007c 	sb	t9,124(a3)
    8574:	90d80007 	lbu	t8,7(a2)
    8578:	330f0008 	andi	t7,t8,0x8
    857c:	11e00004 	beqz	t7,0x8590
    8580:	00000000 	nop
    8584:	90ed007c 	lbu	t5,124(a3)
    8588:	35ac0001 	ori	t4,t5,0x1
    858c:	a0ec007c 	sb	t4,124(a3)
    8590:	90cf0007 	lbu	t7,7(a2)
    8594:	31ee0001 	andi	t6,t7,0x1
    8598:	11c00009 	beqz	t6,0x85c0
    859c:	00000000 	nop
    85a0:	90e4007c 	lbu	a0,124(a3)
    85a4:	24180002 	li	t8,2
    85a8:	34820002 	ori	v0,a0,0x2
    85ac:	a0e2007c 	sb	v0,124(a3)
    85b0:	90a300ec 	lbu	v1,236(a1)
    85b4:	307900ff 	andi	t9,v1,0xff
    85b8:	13380013 	beq	t9,t8,0x8608
    85bc:	24080034 	li	t0,52
    85c0:	90c90007 	lbu	t1,7(a2)
    85c4:	31260002 	andi	a2,t1,0x2
    85c8:	10c00004 	beqz	a2,0x85dc
    85cc:	00000000 	nop
    85d0:	90eb007c 	lbu	t3,124(a3)
    85d4:	356a0004 	ori	t2,t3,0x4
    85d8:	a0ea007c 	sb	t2,124(a3)
    85dc:	90ed007d 	lbu	t5,125(a3)
    85e0:	31ac003f 	andi	t4,t5,0x3f
    85e4:	a0ec007d 	sb	t4,125(a3)
    85e8:	94a700da 	lhu	a3,218(a1)
    85ec:	03e00008 	jr	ra
    85f0:	30e2ffff 	andi	v0,a3,0xffff
    85f4:	8f87ff1c 	lw	a3,-228(gp)
    85f8:	0a000c90 	j	0x8003240
    85fc:	8cc20014 	lw	v0,20(a2)
    8600:	0a000c91 	j	0x8003244
    8604:	ace00070 	sw	zero,112(a3)
    8608:	0a000cb2 	j	0x80032c8
    860c:	aca800cc 	sw	t0,204(a1)
    8610:	8f8c0050 	lw	t4,80(gp)
    8614:	27bdffd8 	addiu	sp,sp,-40
    8618:	afb3001c 	sw	s3,28(sp)
    861c:	afb20018 	sw	s2,24(sp)
    8620:	afb00010 	sw	s0,16(sp)
    8624:	afbf0020 	sw	ra,32(sp)
    8628:	afb10014 	sw	s1,20(sp)
    862c:	918f0015 	lbu	t7,21(t4)
    8630:	3c13600e 	lui	s3,0x600e
    8634:	36730010 	ori	s3,s3,0x10
    8638:	31eb000f 	andi	t3,t7,0xf
    863c:	a38b0094 	sb	t3,148(gp)
    8640:	8d8f0004 	lw	t7,4(t4)
    8644:	8d8b0008 	lw	t3,8(t4)
    8648:	959f0012 	lhu	ra,18(t4)
    864c:	95990010 	lhu	t9,16(t4)
    8650:	9584001a 	lhu	a0,26(t4)
    8654:	9598001e 	lhu	t8,30(t4)
    8658:	958e001c 	lhu	t6,28(t4)
    865c:	33edffff 	andi	t5,ra,0xffff
    8660:	332affff 	andi	t2,t9,0xffff
    8664:	3089ffff 	andi	t1,a0,0xffff
    8668:	3308ffff 	andi	t0,t8,0xffff
    866c:	31c7ffff 	andi	a3,t6,0xffff
    8670:	3c010800 	lui	at,0x800
    8674:	ac2d0024 	sw	t5,36(at)
    8678:	3c010800 	lui	at,0x800
    867c:	ac290044 	sw	t1,68(at)
    8680:	3c010800 	lui	at,0x800
    8684:	ac2a0040 	sw	t2,64(at)
    8688:	ae683178 	sw	t0,12664(s3)
    868c:	ae67317c 	sw	a3,12668(s3)
    8690:	91850015 	lbu	a1,21(t4)
    8694:	95910016 	lhu	s1,22(t4)
    8698:	3c126012 	lui	s2,0x6012
    869c:	36520010 	ori	s2,s2,0x10
    86a0:	30a200ff 	andi	v0,a1,0xff
    86a4:	3230ffff 	andi	s0,s1,0xffff
    86a8:	ae623188 	sw	v0,12680(s3)
    86ac:	ae5000b4 	sw	s0,180(s2)
    86b0:	91830014 	lbu	v1,20(t4)
    86b4:	959f0018 	lhu	ra,24(t4)
    86b8:	24060001 	li	a2,1
    86bc:	0066c804 	sllv	t9,a2,v1
    86c0:	33f8ffff 	andi	t8,ra,0xffff
    86c4:	ae5900b8 	sw	t9,184(s2)
    86c8:	ae5800bc 	sw	t8,188(s2)
    86cc:	918e0014 	lbu	t6,20(t4)
    86d0:	af8f007c 	sw	t7,124(gp)
    86d4:	3c086006 	lui	t0,0x6006
    86d8:	31cd00ff 	andi	t5,t6,0xff
    86dc:	ae4d00c0 	sw	t5,192(s2)
    86e0:	918a0015 	lbu	t2,21(t4)
    86e4:	9584000e 	lhu	a0,14(t4)
    86e8:	3c07600a 	lui	a3,0x600a
    86ec:	314900ff 	andi	t1,t2,0xff
    86f0:	af8b0080 	sw	t3,128(gp)
    86f4:	3084ffff 	andi	a0,a0,0xffff
    86f8:	ae4900c8 	sw	t1,200(s2)
    86fc:	35110010 	ori	s1,t0,0x10
    8700:	0e000bf9 	jal	0x8002fe4
    8704:	34f00410 	ori	s0,a3,0x410
    8708:	3c020800 	lui	v0,0x800
    870c:	8c420060 	lw	v0,96(v0)
    8710:	3c030800 	lui	v1,0x800
    8714:	8c630064 	lw	v1,100(v1)
    8718:	3c060800 	lui	a2,0x800
    871c:	8cc60058 	lw	a2,88(a2)
    8720:	3c050800 	lui	a1,0x800
    8724:	8ca5005c 	lw	a1,92(a1)
    8728:	8f840078 	lw	a0,120(gp)
    872c:	8fbf0020 	lw	ra,32(sp)
    8730:	ae23004c 	sw	v1,76(s1)
    8734:	ae65319c 	sw	a1,12700(s3)
    8738:	ae030054 	sw	v1,84(s0)
    873c:	ae4500dc 	sw	a1,220(s2)
    8740:	ae6231a0 	sw	v0,12704(s3)
    8744:	ae6331a4 	sw	v1,12708(s3)
    8748:	ae663198 	sw	a2,12696(s3)
    874c:	ae220048 	sw	v0,72(s1)
    8750:	8fb3001c 	lw	s3,28(sp)
    8754:	ae020050 	sw	v0,80(s0)
    8758:	8fb10014 	lw	s1,20(sp)
    875c:	ae4200e0 	sw	v0,224(s2)
    8760:	ae4300e4 	sw	v1,228(s2)
    8764:	ae4600d8 	sw	a2,216(s2)
    8768:	8fb00010 	lw	s0,16(sp)
    876c:	8fb20018 	lw	s2,24(sp)
    8770:	0a000502 	j	0x8001408
    8774:	27bd0028 	addiu	sp,sp,40
    8778:	9785008a 	lhu	a1,138(gp)
    877c:	97830074 	lhu	v1,116(gp)
    8780:	27bdffe8 	addiu	sp,sp,-24
    8784:	afb00010 	sw	s0,16(sp)
    8788:	00a3102b 	sltu	v0,a1,v1
    878c:	afbf0014 	sw	ra,20(sp)
    8790:	24040005 	li	a0,5
    8794:	8f900050 	lw	s0,80(gp)
    8798:	10400055 	beqz	v0,0x88f0
    879c:	24090002 	li	t1,2
    87a0:	0e00061a 	jal	0x8001868
    87a4:	8f850078 	lw	a1,120(gp)
    87a8:	af82008c 	sw	v0,140(gp)
    87ac:	24040003 	li	a0,3
    87b0:	1040004f 	beqz	v0,0x88f0
    87b4:	24090002 	li	t1,2
    87b8:	3c068000 	lui	a2,0x8000
    87bc:	0e00004c 	jal	0x8000130
    87c0:	acc20020 	sw	v0,32(a2)
    87c4:	24070001 	li	a3,1
    87c8:	24082000 	li	t0,8192
    87cc:	1040004d 	beqz	v0,0x8904
    87d0:	24040005 	li	a0,5
    87d4:	978e008a 	lhu	t6,138(gp)
    87d8:	8f8aff1c 	lw	t2,-228(gp)
    87dc:	24090050 	li	t1,80
    87e0:	25c50001 	addiu	a1,t6,1
    87e4:	a785008a 	sh	a1,138(gp)
    87e8:	a1490000 	sb	t1,0(t2)
    87ec:	3c0d0800 	lui	t5,0x800
    87f0:	8dad0064 	lw	t5,100(t5)
    87f4:	24038000 	li	v1,-32768
    87f8:	8f84ff18 	lw	a0,-232(gp)
    87fc:	000d6600 	sll	t4,t5,0x18
    8800:	ad4c0018 	sw	t4,24(t2)
    8804:	a5400006 	sh	zero,6(t2)
    8808:	954b000a 	lhu	t3,10(t2)
    880c:	8f85ff20 	lw	a1,-224(gp)
    8810:	2402ff80 	li	v0,-128
    8814:	01633024 	and	a2,t3,v1
    8818:	a546000a 	sh	a2,10(t2)
    881c:	915f000a 	lbu	ra,10(t2)
    8820:	00004821 	move	t1,zero
    8824:	03e2c825 	or	t9,ra,v0
    8828:	a159000a 	sb	t9,10(t2)
    882c:	a0a00008 	sb	zero,8(a1)
    8830:	a140004c 	sb	zero,76(t2)
    8834:	a08000c5 	sb	zero,197(a0)
    8838:	96180002 	lhu	t8,2(s0)
    883c:	97830088 	lhu	v1,136(gp)
    8840:	3c020004 	lui	v0,0x4
    8844:	a49800da 	sh	t8,218(a0)
    8848:	960f0002 	lhu	t7,2(s0)
    884c:	2418ffbf 	li	t8,-65
    8850:	25ee2401 	addiu	t6,t7,9217
    8854:	a48e00ae 	sh	t6,174(a0)
    8858:	8e0d0004 	lw	t5,4(s0)
    885c:	acad0044 	sw	t5,68(a1)
    8860:	8e0c0008 	lw	t4,8(s0)
    8864:	acac0040 	sw	t4,64(a1)
    8868:	a4a00050 	sh	zero,80(a1)
    886c:	a4a00054 	sh	zero,84(a1)
    8870:	8e0b000c 	lw	t3,12(s0)
    8874:	240c0030 	li	t4,48
    8878:	ac8b0028 	sw	t3,40(a0)
    887c:	8e060010 	lw	a2,16(s0)
    8880:	ac860024 	sw	a2,36(a0)
    8884:	a480003e 	sh	zero,62(a0)
    8888:	a487004e 	sh	a3,78(a0)
    888c:	a4870050 	sh	a3,80(a0)
    8890:	a483003c 	sh	v1,60(a0)
    8894:	ad420074 	sw	v0,116(t2)
    8898:	ac8800c8 	sw	t0,200(a0)
    889c:	aca80060 	sw	t0,96(a1)
    88a0:	a08700ec 	sb	a3,236(a0)
    88a4:	909f00c4 	lbu	ra,196(a0)
    88a8:	33f9007f 	andi	t9,ra,0x7f
    88ac:	a09900c4 	sb	t9,196(a0)
    88b0:	909000c4 	lbu	s0,196(a0)
    88b4:	02187824 	and	t7,s0,t8
    88b8:	a08f00c4 	sb	t7,196(a0)
    88bc:	914e007c 	lbu	t6,124(t2)
    88c0:	35cd0001 	ori	t5,t6,0x1
    88c4:	a14d007c 	sb	t5,124(t2)
    88c8:	938b0094 	lbu	t3,148(gp)
    88cc:	ad480070 	sw	t0,112(t2)
    88d0:	ac8c00cc 	sw	t4,204(a0)
    88d4:	a08b00c6 	sb	t3,198(a0)
    88d8:	8f880080 	lw	t0,128(gp)
    88dc:	8f87007c 	lw	a3,124(gp)
    88e0:	ac8800b4 	sw	t0,180(a0)
    88e4:	ac8700b8 	sw	a3,184(a0)
    88e8:	a5400078 	sh	zero,120(t2)
    88ec:	a540007a 	sh	zero,122(t2)
    88f0:	8fbf0014 	lw	ra,20(sp)
    88f4:	8fb00010 	lw	s0,16(sp)
    88f8:	01201021 	move	v0,t1
    88fc:	03e00008 	jr	ra
    8900:	27bd0018 	addiu	sp,sp,24
    8904:	8f85008c 	lw	a1,140(gp)
    8908:	0e0006aa 	jal	0x8001aa8
    890c:	8f860078 	lw	a2,120(gp)
    8910:	0a000d7e 	j	0x80035f8
    8914:	24090002 	li	t1,2
    8918:	27bdffe0 	addiu	sp,sp,-32
    891c:	afb00010 	sw	s0,16(sp)
    8920:	8f900050 	lw	s0,80(gp)
    8924:	afb10014 	sw	s1,20(sp)
    8928:	afbf0018 	sw	ra,24(sp)
    892c:	8e090004 	lw	t1,4(s0)
    8930:	0e0004cf 	jal	0x800133c
    8934:	000921c0 	sll	a0,t1,0x7
    8938:	8e080004 	lw	t0,4(s0)
    893c:	8f84ff18 	lw	a0,-232(gp)
    8940:	8f82ff20 	lw	v0,-224(gp)
    8944:	000839c0 	sll	a3,t0,0x7
    8948:	3c068000 	lui	a2,0x8000
    894c:	acc70020 	sw	a3,32(a2)
    8950:	948500da 	lhu	a1,218(a0)
    8954:	90430013 	lbu	v1,19(v0)
    8958:	1460001c 	bnez	v1,0x89cc
    895c:	30b1ffff 	andi	s1,a1,0xffff
    8960:	8f8cff1c 	lw	t4,-228(gp)
    8964:	918b0008 	lbu	t3,8(t4)
    8968:	316a0040 	andi	t2,t3,0x40
    896c:	1540000b 	bnez	t2,0x899c
    8970:	00000000 	nop
    8974:	8e0d0004 	lw	t5,4(s0)
    8978:	02203021 	move	a2,s1
    897c:	8fbf0018 	lw	ra,24(sp)
    8980:	8fb10014 	lw	s1,20(sp)
    8984:	8fb00010 	lw	s0,16(sp)
    8988:	24040022 	li	a0,34
    898c:	00003821 	move	a3,zero
    8990:	000d29c0 	sll	a1,t5,0x7
    8994:	0a000c18 	j	0x8003060
    8998:	27bd0020 	addiu	sp,sp,32
    899c:	0e000063 	jal	0x800018c
    89a0:	00000000 	nop
    89a4:	8e0d0004 	lw	t5,4(s0)
    89a8:	02203021 	move	a2,s1
    89ac:	8fbf0018 	lw	ra,24(sp)
    89b0:	8fb10014 	lw	s1,20(sp)
    89b4:	8fb00010 	lw	s0,16(sp)
    89b8:	24040022 	li	a0,34
    89bc:	00003821 	move	a3,zero
    89c0:	000d29c0 	sll	a1,t5,0x7
    89c4:	0a000c18 	j	0x8003060
    89c8:	27bd0020 	addiu	sp,sp,32
    89cc:	0e00005b 	jal	0x800016c
    89d0:	00000000 	nop
    89d4:	8e0d0004 	lw	t5,4(s0)
    89d8:	02203021 	move	a2,s1
    89dc:	8fbf0018 	lw	ra,24(sp)
    89e0:	8fb10014 	lw	s1,20(sp)
    89e4:	8fb00010 	lw	s0,16(sp)
    89e8:	24040022 	li	a0,34
    89ec:	00003821 	move	a3,zero
    89f0:	000d29c0 	sll	a1,t5,0x7
    89f4:	0a000c18 	j	0x8003060
    89f8:	27bd0020 	addiu	sp,sp,32
    89fc:	27bdffe0 	addiu	sp,sp,-32
    8a00:	afb20018 	sw	s2,24(sp)
    8a04:	3092ffff 	andi	s2,a0,0xffff
    8a08:	afb00010 	sw	s0,16(sp)
    8a0c:	afbf001c 	sw	ra,28(sp)
    8a10:	afb10014 	sw	s1,20(sp)
    8a14:	1240001e 	beqz	s2,0x8a90
    8a18:	00008021 	move	s0,zero
    8a1c:	8f860050 	lw	a2,80(gp)
    8a20:	8cc50000 	lw	a1,0(a2)
    8a24:	24030006 	li	v1,6
    8a28:	00053f02 	srl	a3,a1,0x1c
    8a2c:	00051402 	srl	v0,a1,0x10
    8a30:	30e40007 	andi	a0,a3,0x7
    8a34:	14830016 	bne	a0,v1,0x8a90
    8a38:	304500ff 	andi	a1,v0,0xff
    8a3c:	2ca80006 	sltiu	t0,a1,6
    8a40:	11000040 	beqz	t0,0x8b44
    8a44:	00055880 	sll	t3,a1,0x2
    8a48:	3c0c0800 	lui	t4,0x800
    8a4c:	258c5404 	addiu	t4,t4,21508
    8a50:	016c5021 	addu	t2,t3,t4
    8a54:	8d490000 	lw	t1,0(t2)
    8a58:	01200008 	jr	t1
    8a5c:	00000000 	nop
    8a60:	8f8e0090 	lw	t6,144(gp)
    8a64:	240d0001 	li	t5,1
    8a68:	11cd0050 	beq	t6,t5,0x8bac
    8a6c:	24020002 	li	v0,2
    8a70:	af820090 	sw	v0,144(gp)
    8a74:	26090001 	addiu	t1,s0,1
    8a78:	3130ffff 	andi	s0,t1,0xffff
    8a7c:	24c80020 	addiu	t0,a2,32
    8a80:	0212202b 	sltu	a0,s0,s2
    8a84:	01003021 	move	a2,t0
    8a88:	1480ffe5 	bnez	a0,0x8a20
    8a8c:	af880050 	sw	t0,80(gp)
    8a90:	02001021 	move	v0,s0
    8a94:	8fbf001c 	lw	ra,28(sp)
    8a98:	8fb20018 	lw	s2,24(sp)
    8a9c:	8fb10014 	lw	s1,20(sp)
    8aa0:	8fb00010 	lw	s0,16(sp)
    8aa4:	03e00008 	jr	ra
    8aa8:	27bd0020 	addiu	sp,sp,32
    8aac:	93870076 	lbu	a3,118(gp)
    8ab0:	54e00034 	bnezl	a3,0x8b84
    8ab4:	00003021 	move	a2,zero
    8ab8:	0e000cc6 	jal	0x8003318
    8abc:	00000000 	nop
    8ac0:	8f860050 	lw	a2,80(gp)
    8ac4:	0a000dde 	j	0x8003778
    8ac8:	24020001 	li	v0,1
    8acc:	8f870090 	lw	a3,144(gp)
    8ad0:	24050002 	li	a1,2
    8ad4:	10e50031 	beq	a3,a1,0x8b9c
    8ad8:	24040013 	li	a0,19
    8adc:	00002821 	move	a1,zero
    8ae0:	00003021 	move	a2,zero
    8ae4:	24070001 	li	a3,1
    8ae8:	0e000c18 	jal	0x8003060
    8aec:	00000000 	nop
    8af0:	0a000ddf 	j	0x800377c
    8af4:	8f860050 	lw	a2,80(gp)
    8af8:	8f830090 	lw	v1,144(gp)
    8afc:	24020002 	li	v0,2
    8b00:	1462fff6 	bne	v1,v0,0x8adc
    8b04:	24040012 	li	a0,18
    8b08:	0e000c7b 	jal	0x80031ec
    8b0c:	00000000 	nop
    8b10:	8f85008c 	lw	a1,140(gp)
    8b14:	00403021 	move	a2,v0
    8b18:	24040012 	li	a0,18
    8b1c:	0e000c18 	jal	0x8003060
    8b20:	00003821 	move	a3,zero
    8b24:	0a000ddf 	j	0x800377c
    8b28:	8f860050 	lw	a2,80(gp)
    8b2c:	8f830090 	lw	v1,144(gp)
    8b30:	24110003 	li	s1,3
    8b34:	10710029 	beq	v1,s1,0x8bdc
    8b38:	241f0002 	li	ra,2
    8b3c:	107fffce 	beq	v1,ra,0x8a78
    8b40:	26090001 	addiu	t1,s0,1
    8b44:	24040010 	li	a0,16
    8b48:	00002821 	move	a1,zero
    8b4c:	00003021 	move	a2,zero
    8b50:	0a000dfc 	j	0x80037f0
    8b54:	24070001 	li	a3,1
    8b58:	8f910090 	lw	s1,144(gp)
    8b5c:	24060002 	li	a2,2
    8b60:	1626fff9 	bne	s1,a2,0x8b48
    8b64:	24040010 	li	a0,16
    8b68:	0e000d20 	jal	0x8003480
    8b6c:	00000000 	nop
    8b70:	14400023 	bnez	v0,0x8c00
    8b74:	8f980050 	lw	t8,80(gp)
    8b78:	8f860050 	lw	a2,80(gp)
    8b7c:	0a000dde 	j	0x8003778
    8b80:	24020003 	li	v0,3
    8b84:	24040014 	li	a0,20
    8b88:	0e000c18 	jal	0x8003060
    8b8c:	00002821 	move	a1,zero
    8b90:	8f860050 	lw	a2,80(gp)
    8b94:	0a000dde 	j	0x8003778
    8b98:	24020002 	li	v0,2
    8b9c:	0e000d88 	jal	0x8003620
    8ba0:	00000000 	nop
    8ba4:	0a000ddf 	j	0x800377c
    8ba8:	8f860050 	lw	a2,80(gp)
    8bac:	0e000c28 	jal	0x80030a0
    8bb0:	00000000 	nop
    8bb4:	24190002 	li	t9,2
    8bb8:	24040014 	li	a0,20
    8bbc:	00002821 	move	a1,zero
    8bc0:	00003021 	move	a2,zero
    8bc4:	00003821 	move	a3,zero
    8bc8:	af990090 	sw	t9,144(gp)
    8bcc:	0e000c18 	jal	0x8003060
    8bd0:	00000000 	nop
    8bd4:	0a000ddf 	j	0x800377c
    8bd8:	8f860050 	lw	a2,80(gp)
    8bdc:	0e000c38 	jal	0x80030e0
    8be0:	00000000 	nop
    8be4:	8f85008c 	lw	a1,140(gp)
    8be8:	24190002 	li	t9,2
    8bec:	00403021 	move	a2,v0
    8bf0:	24040010 	li	a0,16
    8bf4:	00003821 	move	a3,zero
    8bf8:	0a000e35 	j	0x80038d4
    8bfc:	af990090 	sw	t9,144(gp)
    8c00:	00403821 	move	a3,v0
    8c04:	24040010 	li	a0,16
    8c08:	970f0002 	lhu	t7,2(t8)
    8c0c:	00002821 	move	a1,zero
    8c10:	0e000c18 	jal	0x8003060
    8c14:	31e6ffff 	andi	a2,t7,0xffff
    8c18:	8f860050 	lw	a2,80(gp)
    8c1c:	0a000ddf 	j	0x800377c
    8c20:	af910090 	sw	s1,144(gp)
    8c24:	8f84ff1c 	lw	a0,-228(gp)
    8c28:	3c077fff 	lui	a3,0x7fff
    8c2c:	34e6ffff 	ori	a2,a3,0xffff
    8c30:	8c850018 	lw	a1,24(a0)
    8c34:	24020001 	li	v0,1
    8c38:	00a61824 	and	v1,a1,a2
    8c3c:	ac830018 	sw	v1,24(a0)
    8c40:	03e00008 	jr	ra
    8c44:	a0820005 	sb	v0,5(a0)
    8c48:	3084ffff 	andi	a0,a0,0xffff
    8c4c:	30a5ffff 	andi	a1,a1,0xffff
    8c50:	10800007 	beqz	a0,0x8c70
    8c54:	00001821 	move	v1,zero
    8c58:	30820001 	andi	v0,a0,0x1
    8c5c:	10400002 	beqz	v0,0x8c68
    8c60:	00042042 	srl	a0,a0,0x1
    8c64:	00651821 	addu	v1,v1,a1
    8c68:	1480fffb 	bnez	a0,0x8c58
    8c6c:	00052840 	sll	a1,a1,0x1
    8c70:	03e00008 	jr	ra
    8c74:	00601021 	move	v0,v1
    8c78:	10c00007 	beqz	a2,0x8c98
    8c7c:	00000000 	nop
    8c80:	8ca20000 	lw	v0,0(a1)
    8c84:	24c6ffff 	addiu	a2,a2,-1
    8c88:	24a50004 	addiu	a1,a1,4
    8c8c:	ac820000 	sw	v0,0(a0)
    8c90:	14c0fffb 	bnez	a2,0x8c80
    8c94:	24840004 	addiu	a0,a0,4
    8c98:	03e00008 	jr	ra
    8c9c:	00000000 	nop
    8ca0:	10a00008 	beqz	a1,0x8cc4
    8ca4:	24a3ffff 	addiu	v1,a1,-1
    8ca8:	ac860000 	sw	a2,0(a0)
	...
    8cb4:	2402ffff 	li	v0,-1
    8cb8:	2463ffff 	addiu	v1,v1,-1
    8cbc:	1462fffa 	bne	v1,v0,0x8ca8
    8cc0:	24840004 	addiu	a0,a0,4
    8cc4:	03e00008 	jr	ra
    8cc8:	00000000 	nop
    8ccc:	000411c0 	sll	v0,a0,0x7
    8cd0:	03e00008 	jr	ra
    8cd4:	24420240 	addiu	v0,v0,576
    8cd8:	27bdffe8 	addiu	sp,sp,-24
    8cdc:	afb00010 	sw	s0,16(sp)
    8ce0:	00808021 	move	s0,a0
    8ce4:	afbf0014 	sw	ra,20(sp)
    8ce8:	0e000e75 	jal	0x80039d4
    8cec:	00a02021 	move	a0,a1
    8cf0:	00504821 	addu	t1,v0,s0
    8cf4:	240aff80 	li	t2,-128
    8cf8:	8fbf0014 	lw	ra,20(sp)
    8cfc:	8fb00010 	lw	s0,16(sp)
    8d00:	012a3024 	and	a2,t1,t2
    8d04:	3127007f 	andi	a3,t1,0x7f
    8d08:	3c08800a 	lui	t0,0x800a
    8d0c:	3c042100 	lui	a0,0x2100
    8d10:	00e81021 	addu	v0,a3,t0
    8d14:	00c42825 	or	a1,a2,a0
    8d18:	3c038000 	lui	v1,0x8000
    8d1c:	27bd0018 	addiu	sp,sp,24
    8d20:	ac650024 	sw	a1,36(v1)
    8d24:	af820038 	sw	v0,56(gp)
    8d28:	ac400000 	sw	zero,0(v0)
    8d2c:	ac650024 	sw	a1,36(v1)
    8d30:	03e00008 	jr	ra
    8d34:	ac400040 	sw	zero,64(v0)
    8d38:	3c0d0800 	lui	t5,0x800
    8d3c:	8dad0058 	lw	t5,88(t5)
    8d40:	00056180 	sll	t4,a1,0x6
    8d44:	240aff80 	li	t2,-128
    8d48:	01a45821 	addu	t3,t5,a0
    8d4c:	016c4821 	addu	t1,t3,t4
    8d50:	012a3024 	and	a2,t1,t2
    8d54:	3127007f 	andi	a3,t1,0x7f
    8d58:	3c08800c 	lui	t0,0x800c
    8d5c:	3c042100 	lui	a0,0x2100
    8d60:	00e81021 	addu	v0,a3,t0
    8d64:	00c42825 	or	a1,a2,a0
    8d68:	3c038000 	lui	v1,0x8000
    8d6c:	ac650028 	sw	a1,40(v1)
    8d70:	af820034 	sw	v0,52(gp)
    8d74:	03e00008 	jr	ra
    8d78:	ac400024 	sw	zero,36(v0)
    8d7c:	30a5ffff 	andi	a1,a1,0xffff
    8d80:	3c068000 	lui	a2,0x8000
    8d84:	8cc201b8 	lw	v0,440(a2)
    8d88:	0440fffe 	bltz	v0,0x8d84
    8d8c:	3c086015 	lui	t0,0x6015
    8d90:	00a83825 	or	a3,a1,t0
    8d94:	3c031000 	lui	v1,0x1000
    8d98:	acc40180 	sw	a0,384(a2)
    8d9c:	acc00184 	sw	zero,388(a2)
    8da0:	acc70188 	sw	a3,392(a2)
    8da4:	03e00008 	jr	ra
    8da8:	acc301b8 	sw	v1,440(a2)
    8dac:	3c0d0800 	lui	t5,0x800
    8db0:	8dad0058 	lw	t5,88(t5)
    8db4:	00056180 	sll	t4,a1,0x6
    8db8:	240aff80 	li	t2,-128
    8dbc:	01a45821 	addu	t3,t5,a0
    8dc0:	016c4021 	addu	t0,t3,t4
    8dc4:	010a4824 	and	t1,t0,t2
    8dc8:	00093140 	sll	a2,t1,0x5
    8dcc:	3107007f 	andi	a3,t0,0x7f
    8dd0:	00c72825 	or	a1,a2,a3
    8dd4:	3c042000 	lui	a0,0x2000
    8dd8:	00a41825 	or	v1,a1,a0
    8ddc:	3c028000 	lui	v0,0x8000
    8de0:	ac430830 	sw	v1,2096(v0)
    8de4:	03e00008 	jr	ra
    8de8:	af800034 	sw	zero,52(gp)
    8dec:	27bdffe8 	addiu	sp,sp,-24
    8df0:	afb00010 	sw	s0,16(sp)
    8df4:	00808021 	move	s0,a0
    8df8:	afbf0014 	sw	ra,20(sp)
    8dfc:	0e000e75 	jal	0x80039d4
    8e00:	00a02021 	move	a0,a1
    8e04:	00504821 	addu	t1,v0,s0
    8e08:	240bff80 	li	t3,-128
    8e0c:	012b5024 	and	t2,t1,t3
    8e10:	000a3940 	sll	a3,t2,0x5
    8e14:	3128007f 	andi	t0,t1,0x7f
    8e18:	3c062000 	lui	a2,0x2000
    8e1c:	8fbf0014 	lw	ra,20(sp)
    8e20:	8fb00010 	lw	s0,16(sp)
    8e24:	00e82825 	or	a1,a3,t0
    8e28:	34c20001 	ori	v0,a2,0x1
    8e2c:	00a21825 	or	v1,a1,v0
    8e30:	3c048000 	lui	a0,0x8000
    8e34:	27bd0018 	addiu	sp,sp,24
    8e38:	ac830830 	sw	v1,2096(a0)
    8e3c:	03e00008 	jr	ra
    8e40:	af800038 	sw	zero,56(gp)
    8e44:	3c058008 	lui	a1,0x8008
    8e48:	8ca70060 	lw	a3,96(a1)
    8e4c:	3c068008 	lui	a2,0x8008
    8e50:	0087102b 	sltu	v0,a0,a3
    8e54:	14400011 	bnez	v0,0x8e9c
    8e58:	2c834000 	sltiu	v1,a0,16384
    8e5c:	8ca80060 	lw	t0,96(a1)
    8e60:	2d034000 	sltiu	v1,t0,16384
    8e64:	1060000f 	beqz	v1,0x8ea4
    8e68:	24034000 	li	v1,16384
    8e6c:	8cc90060 	lw	t1,96(a2)
    8e70:	0089282b 	sltu	a1,a0,t1
    8e74:	14a00002 	bnez	a1,0x8e80
    8e78:	00801821 	move	v1,a0
    8e7c:	8cc30060 	lw	v1,96(a2)
    8e80:	00035a42 	srl	t3,v1,0x9
    8e84:	000b3080 	sll	a2,t3,0x2
    8e88:	3c0a0800 	lui	t2,0x800
    8e8c:	254a5480 	addiu	t2,t2,21632
    8e90:	00ca2021 	addu	a0,a2,t2
    8e94:	03e00008 	jr	ra
    8e98:	8c820000 	lw	v0,0(a0)
    8e9c:	1460fff3 	bnez	v1,0x8e6c
    8ea0:	24034000 	li	v1,16384
    8ea4:	00035a42 	srl	t3,v1,0x9
    8ea8:	000b3080 	sll	a2,t3,0x2
    8eac:	3c0a0800 	lui	t2,0x800
    8eb0:	254a5480 	addiu	t2,t2,21632
    8eb4:	00ca2021 	addu	a0,a2,t2
    8eb8:	03e00008 	jr	ra
    8ebc:	8c820000 	lw	v0,0(a0)
    8ec0:	3c058008 	lui	a1,0x8008
    8ec4:	90a60008 	lbu	a2,8(a1)
    8ec8:	938400a0 	lbu	a0,160(gp)
    8ecc:	24c20001 	addiu	v0,a2,1
    8ed0:	304200ff 	andi	v0,v0,0xff
    8ed4:	3043007f 	andi	v1,v0,0x7f
    8ed8:	1064000c 	beq	v1,a0,0x8f0c
    8edc:	00023827 	nor	a3,zero,v0
    8ee0:	a0a20008 	sb	v0,8(a1)
    8ee4:	3c048000 	lui	a0,0x8000
    8ee8:	8c850178 	lw	a1,376(a0)
    8eec:	04a0fffe 	bltz	a1,0x8ee8
    8ef0:	8f8a0098 	lw	t2,152(gp)
    8ef4:	24090002 	li	t1,2
    8ef8:	3c081000 	lui	t0,0x1000
    8efc:	ac8a0140 	sw	t2,320(a0)
    8f00:	a0890144 	sb	t1,324(a0)
    8f04:	03e00008 	jr	ra
    8f08:	ac880178 	sw	t0,376(a0)
    8f0c:	0a000efa 	j	0x8003be8
    8f10:	30e20080 	andi	v0,a3,0x80
    8f14:	27bdffd8 	addiu	sp,sp,-40
    8f18:	afb20018 	sw	s2,24(sp)
    8f1c:	8f92009c 	lw	s2,156(gp)
    8f20:	afbf0020 	sw	ra,32(sp)
    8f24:	afb3001c 	sw	s3,28(sp)
    8f28:	afb00010 	sw	s0,16(sp)
    8f2c:	afb10014 	sw	s1,20(sp)
    8f30:	8f930034 	lw	s3,52(gp)
    8f34:	8e590028 	lw	t9,40(s2)
    8f38:	3c100080 	lui	s0,0x80
    8f3c:	3c0effef 	lui	t6,0xffef
    8f40:	ae790000 	sw	t9,0(s3)
    8f44:	8e580024 	lw	t8,36(s2)
    8f48:	a260000a 	sb	zero,10(s3)
    8f4c:	35cdffff 	ori	t5,t6,0xffff
    8f50:	ae780004 	sw	t8,4(s3)
    8f54:	9251002c 	lbu	s1,44(s2)
    8f58:	3c0bff9f 	lui	t3,0xff9f
    8f5c:	356affff 	ori	t2,t3,0xffff
    8f60:	a271000c 	sb	s1,12(s3)
    8f64:	8e6f000c 	lw	t7,12(s3)
    8f68:	3c080040 	lui	t0,0x40
    8f6c:	a271000b 	sb	s1,11(s3)
    8f70:	01f06025 	or	t4,t7,s0
    8f74:	018d4824 	and	t1,t4,t5
    8f78:	012a3824 	and	a3,t1,t2
    8f7c:	00e83025 	or	a2,a3,t0
    8f80:	ae66000c 	sw	a2,12(s3)
    8f84:	8e450004 	lw	a1,4(s2)
    8f88:	ae600018 	sw	zero,24(s3)
    8f8c:	3c0400ff 	lui	a0,0xff
    8f90:	ae650014 	sw	a1,20(s3)
    8f94:	8e43002c 	lw	v1,44(s2)
    8f98:	3482ffff 	ori	v0,a0,0xffff
    8f9c:	a6600008 	sh	zero,8(s3)
    8fa0:	0062f824 	and	ra,v1,v0
    8fa4:	ae7f0010 	sw	ra,16(s3)
    8fa8:	8e590008 	lw	t9,8(s2)
    8fac:	8f900098 	lw	s0,152(gp)
    8fb0:	964e0012 	lhu	t6,18(s2)
    8fb4:	ae790020 	sw	t9,32(s3)
    8fb8:	8e51000c 	lw	s1,12(s2)
    8fbc:	31d83fff 	andi	t8,t6,0x3fff
    8fc0:	00187980 	sll	t7,t8,0x6
    8fc4:	ae710024 	sw	s1,36(s3)
    8fc8:	8e4d0014 	lw	t5,20(s2)
    8fcc:	01f06021 	addu	t4,t7,s0
    8fd0:	31cb0001 	andi	t3,t6,0x1
    8fd4:	ae6d0028 	sw	t5,40(s3)
    8fd8:	8e4a0018 	lw	t2,24(s2)
    8fdc:	000c41c2 	srl	t0,t4,0x7
    8fe0:	000b4b80 	sll	t1,t3,0xe
    8fe4:	ae6a002c 	sw	t2,44(s3)
    8fe8:	8e46001c 	lw	a2,28(s2)
    8fec:	01093821 	addu	a3,t0,t1
    8ff0:	a667001c 	sh	a3,28(s3)
    8ff4:	ae660030 	sw	a2,48(s3)
    8ff8:	96450002 	lhu	a1,2(s2)
    8ffc:	8e440020 	lw	a0,32(s2)
    9000:	a665001e 	sh	a1,30(s3)
    9004:	ae640034 	sw	a0,52(s3)
    9008:	92430033 	lbu	v1,51(s2)
    900c:	30620004 	andi	v0,v1,0x4
    9010:	54400006 	bnezl	v0,0x902c
    9014:	92470000 	lbu	a3,0(s2)
    9018:	3c028008 	lui	v0,0x8008
    901c:	34430100 	ori	v1,v0,0x100
    9020:	8c7f00c0 	lw	ra,192(v1)
    9024:	ae7f0030 	sw	ra,48(s3)
    9028:	92470000 	lbu	a3,0(s2)
    902c:	8f860038 	lw	a2,56(gp)
    9030:	a0c70030 	sb	a3,48(a2)
    9034:	92450033 	lbu	a1,51(s2)
    9038:	30a40002 	andi	a0,a1,0x2
    903c:	50800007 	beqzl	a0,0x905c
    9040:	92510001 	lbu	s1,1(s2)
    9044:	8f880038 	lw	t0,56(gp)
    9048:	240bff80 	li	t3,-128
    904c:	910a0030 	lbu	t2,48(t0)
    9050:	014b4825 	or	t1,t2,t3
    9054:	a1090030 	sb	t1,48(t0)
    9058:	92510001 	lbu	s1,1(s2)
    905c:	8f900038 	lw	s0,56(gp)
    9060:	240cffbf 	li	t4,-65
    9064:	2404ffdf 	li	a0,-33
    9068:	a2110031 	sb	s1,49(s0)
    906c:	8f8d0038 	lw	t5,56(gp)
    9070:	3c188008 	lui	t8,0x8008
    9074:	37110080 	ori	s1,t8,0x80
    9078:	91af003c 	lbu	t7,60(t5)
    907c:	31ee007f 	andi	t6,t7,0x7f
    9080:	a1ae003c 	sb	t6,60(t5)
    9084:	8f890038 	lw	t1,56(gp)
    9088:	912b003c 	lbu	t3,60(t1)
    908c:	016c5024 	and	t2,t3,t4
    9090:	a12a003c 	sb	t2,60(t1)
    9094:	8f9f0038 	lw	ra,56(gp)
    9098:	8e680014 	lw	t0,20(s3)
    909c:	93e6003c 	lbu	a2,60(ra)
    90a0:	2d070001 	sltiu	a3,t0,1
    90a4:	00071140 	sll	v0,a3,0x5
    90a8:	00c42824 	and	a1,a2,a0
    90ac:	00a21825 	or	v1,a1,v0
    90b0:	a3e3003c 	sb	v1,60(ra)
    90b4:	8f870038 	lw	a3,56(gp)
    90b8:	96590012 	lhu	t9,18(s2)
    90bc:	a4f90032 	sh	t9,50(a3)
    90c0:	8e450004 	lw	a1,4(s2)
    90c4:	922e007c 	lbu	t6,124(s1)
    90c8:	30b00003 	andi	s0,a1,0x3
    90cc:	00107823 	negu	t7,s0
    90d0:	31ed0003 	andi	t5,t7,0x3
    90d4:	00ad1021 	addu	v0,a1,t5
    90d8:	31cc0002 	andi	t4,t6,0x2
    90dc:	15800002 	bnez	t4,0x90e8
    90e0:	24460034 	addiu	a2,v0,52
    90e4:	24460030 	addiu	a2,v0,48
    90e8:	3c028008 	lui	v0,0x8008
    90ec:	34430080 	ori	v1,v0,0x80
    90f0:	907f007c 	lbu	ra,124(v1)
    90f4:	00bfc824 	and	t9,a1,ra
    90f8:	33380004 	andi	t8,t9,0x4
    90fc:	17000002 	bnez	t8,0x9108
    9100:	24c20004 	addiu	v0,a2,4
    9104:	00c01021 	move	v0,a2
    9108:	8f980038 	lw	t8,56(gp)
    910c:	24190002 	li	t9,2
    9110:	ace20034 	sw	v0,52(a3)
    9114:	a3190000 	sb	t9,0(t8)
    9118:	924f003f 	lbu	t7,63(s2)
    911c:	8f8e0038 	lw	t6,56(gp)
    9120:	3c0c8008 	lui	t4,0x8008
    9124:	358b0080 	ori	t3,t4,0x80
    9128:	a1cf0001 	sb	t7,1(t6)
    912c:	8f910038 	lw	s1,56(gp)
    9130:	924d003f 	lbu	t5,63(s2)
    9134:	8e440004 	lw	a0,4(s2)
    9138:	a62d0002 	sh	t5,2(s1)
    913c:	956a005c 	lhu	t2,92(t3)
    9140:	0e000ed3 	jal	0x8003b4c
    9144:	3150ffff 	andi	s0,t2,0xffff
    9148:	00024b80 	sll	t1,v0,0xe
    914c:	01303825 	or	a3,t1,s0
    9150:	3c084200 	lui	t0,0x4200
    9154:	00e82825 	or	a1,a3,t0
    9158:	ae250004 	sw	a1,4(s1)
    915c:	8e440038 	lw	a0,56(s2)
    9160:	8f850038 	lw	a1,56(gp)
    9164:	aca40018 	sw	a0,24(a1)
    9168:	8e460034 	lw	a2,52(s2)
    916c:	aca6001c 	sw	a2,28(a1)
    9170:	aca0000c 	sw	zero,12(a1)
    9174:	aca00010 	sw	zero,16(a1)
    9178:	a4a00014 	sh	zero,20(a1)
    917c:	a4a00016 	sh	zero,22(a1)
    9180:	a4a00020 	sh	zero,32(a1)
    9184:	a4a00022 	sh	zero,34(a1)
    9188:	aca00024 	sw	zero,36(a1)
    918c:	8e620014 	lw	v0,20(s3)
    9190:	50400001 	beqzl	v0,0x9198
    9194:	24020001 	li	v0,1
    9198:	8fbf0020 	lw	ra,32(sp)
    919c:	8fb3001c 	lw	s3,28(sp)
    91a0:	8fb20018 	lw	s2,24(sp)
    91a4:	8fb10014 	lw	s1,20(sp)
    91a8:	8fb00010 	lw	s0,16(sp)
    91ac:	aca20008 	sw	v0,8(a1)
    91b0:	0a000ef2 	j	0x8003bc8
    91b4:	27bd0028 	addiu	sp,sp,40
    91b8:	27bdffc8 	addiu	sp,sp,-56
    91bc:	3c058008 	lui	a1,0x8008
    91c0:	34a40080 	ori	a0,a1,0x80
    91c4:	afbf0034 	sw	ra,52(sp)
    91c8:	afbe0030 	sw	s8,48(sp)
    91cc:	afb7002c 	sw	s7,44(sp)
    91d0:	afb60028 	sw	s6,40(sp)
    91d4:	afb50024 	sw	s5,36(sp)
    91d8:	afb40020 	sw	s4,32(sp)
    91dc:	afb3001c 	sw	s3,28(sp)
    91e0:	afb20018 	sw	s2,24(sp)
    91e4:	afb10014 	sw	s1,20(sp)
    91e8:	afb00010 	sw	s0,16(sp)
    91ec:	94830078 	lhu	v1,120(a0)
    91f0:	9482007a 	lhu	v0,122(a0)
    91f4:	10430051 	beq	v0,v1,0x933c
    91f8:	2405ffff 	li	a1,-1
    91fc:	0080f021 	move	s8,a0
    9200:	0a001002 	j	0x8004008
    9204:	0080b821 	move	s7,a0
    9208:	108b004d 	beq	a0,t3,0x9340
    920c:	8fbf0034 	lw	ra,52(sp)
    9210:	8f860098 	lw	a2,152(gp)
    9214:	3c180800 	lui	t8,0x800
    9218:	8f18005c 	lw	t8,92(t8)
    921c:	2411ff80 	li	s1,-128
    9220:	3c168000 	lui	s6,0x8000
    9224:	03067821 	addu	t7,t8,a2
    9228:	01f18024 	and	s0,t7,s1
    922c:	aed0002c 	sw	s0,44(s6)
    9230:	96ee007a 	lhu	t6,122(s7)
    9234:	31ec007f 	andi	t4,t7,0x7f
    9238:	3c0d800e 	lui	t5,0x800e
    923c:	31cb7fff 	andi	t3,t6,0x7fff
    9240:	018d5021 	addu	t2,t4,t5
    9244:	000b4840 	sll	t1,t3,0x1
    9248:	012aa821 	addu	s5,t1,t2
    924c:	96a40000 	lhu	a0,0(s5)
    9250:	3c080800 	lui	t0,0x800
    9254:	8d080058 	lw	t0,88(t0)
    9258:	2405ff80 	li	a1,-128
    925c:	30953fff 	andi	s5,a0,0x3fff
    9260:	01061821 	addu	v1,t0,a2
    9264:	00153980 	sll	a3,s5,0x6
    9268:	0067c821 	addu	t9,v1,a3
    926c:	0325f824 	and	ra,t9,a1
    9270:	3c020100 	lui	v0,0x100
    9274:	03e29025 	or	s2,ra,v0
    9278:	3338007f 	andi	t8,t9,0x7f
    927c:	3c11800c 	lui	s1,0x800c
    9280:	aed20028 	sw	s2,40(s6)
    9284:	03119021 	addu	s2,t8,s1
    9288:	9250000d 	lbu	s0,13(s2)
    928c:	320f0004 	andi	t7,s0,0x4
    9290:	11e00037 	beqz	t7,0x9370
    9294:	02e09821 	move	s3,s7
    9298:	96e3007a 	lhu	v1,122(s7)
    929c:	96e8007a 	lhu	t0,122(s7)
    92a0:	96e5007a 	lhu	a1,122(s7)
    92a4:	24048000 	li	a0,-32768
    92a8:	31077fff 	andi	a3,t0,0x7fff
    92ac:	24e30001 	addiu	v1,a3,1
    92b0:	30627fff 	andi	v0,v1,0x7fff
    92b4:	00a4f824 	and	ra,a1,a0
    92b8:	03e2c825 	or	t9,ra,v0
    92bc:	a6f9007a 	sh	t9,122(s7)
    92c0:	96e6007a 	lhu	a2,122(s7)
    92c4:	3c140800 	lui	s4,0x800
    92c8:	8e940060 	lw	s4,96(s4)
    92cc:	30d67fff 	andi	s6,a2,0x7fff
    92d0:	12d400c1 	beq	s6,s4,0x95d8
    92d4:	00000000 	nop
    92d8:	8e580018 	lw	t8,24(s2)
    92dc:	8f840098 	lw	a0,152(gp)
    92e0:	02a02821 	move	a1,s5
    92e4:	2713ffff 	addiu	s3,t8,-1
    92e8:	0e000ead 	jal	0x8003ab4
    92ec:	ae53002c 	sw	s3,44(s2)
    92f0:	97d50078 	lhu	s5,120(s8)
    92f4:	97d4007a 	lhu	s4,122(s8)
    92f8:	12950010 	beq	s4,s5,0x933c
    92fc:	00002821 	move	a1,zero
    9300:	3c098008 	lui	t1,0x8008
    9304:	35240100 	ori	a0,t1,0x100
    9308:	3c0a8008 	lui	t2,0x8008
    930c:	91480008 	lbu	t0,8(t2)
    9310:	908700c5 	lbu	a3,197(a0)
    9314:	3114007f 	andi	s4,t0,0x7f
    9318:	30e400ff 	andi	a0,a3,0xff
    931c:	0284302b 	sltu	a2,s4,a0
    9320:	14c0ffb9 	bnez	a2,0x9208
    9324:	268b0001 	addiu	t3,s4,1
    9328:	938e00a0 	lbu	t6,160(gp)
    932c:	268c0001 	addiu	t4,s4,1
    9330:	008e6821 	addu	t5,a0,t6
    9334:	15acffb7 	bne	t5,t4,0x9214
    9338:	8f860098 	lw	a2,152(gp)
    933c:	8fbf0034 	lw	ra,52(sp)
    9340:	8fbe0030 	lw	s8,48(sp)
    9344:	8fb7002c 	lw	s7,44(sp)
    9348:	8fb60028 	lw	s6,40(sp)
    934c:	8fb50024 	lw	s5,36(sp)
    9350:	8fb40020 	lw	s4,32(sp)
    9354:	8fb3001c 	lw	s3,28(sp)
    9358:	8fb20018 	lw	s2,24(sp)
    935c:	8fb10014 	lw	s1,20(sp)
    9360:	8fb00010 	lw	s0,16(sp)
    9364:	00a01021 	move	v0,a1
    9368:	03e00008 	jr	ra
    936c:	27bd0038 	addiu	sp,sp,56
    9370:	00c02021 	move	a0,a2
    9374:	0e000e78 	jal	0x80039e0
    9378:	02802821 	move	a1,s4
    937c:	8e4b0010 	lw	t3,16(s2)
    9380:	8e4c0030 	lw	t4,48(s2)
    9384:	8f840038 	lw	a0,56(gp)
    9388:	24090002 	li	t1,2
    938c:	016c5023 	subu	t2,t3,t4
    9390:	ae4a0010 	sw	t2,16(s2)
    9394:	a0890000 	sb	t1,0(a0)
    9398:	96e3005c 	lhu	v1,92(s7)
    939c:	8e440030 	lw	a0,48(s2)
    93a0:	8f910038 	lw	s1,56(gp)
    93a4:	0e000ed3 	jal	0x8003b4c
    93a8:	3070ffff 	andi	s0,v1,0xffff
    93ac:	00024380 	sll	t0,v0,0xe
    93b0:	01102825 	or	a1,t0,s0
    93b4:	3c074200 	lui	a3,0x4200
    93b8:	00a71025 	or	v0,a1,a3
    93bc:	ae220004 	sw	v0,4(s1)
    93c0:	8e5f0004 	lw	ra,4(s2)
    93c4:	8f8a0038 	lw	t2,56(gp)
    93c8:	8e590000 	lw	t9,0(s2)
    93cc:	240b0008 	li	t3,8
    93d0:	ad5f001c 	sw	ra,28(t2)
    93d4:	ad590018 	sw	t9,24(t2)
    93d8:	ad40000c 	sw	zero,12(t2)
    93dc:	ad400010 	sw	zero,16(t2)
    93e0:	9246000a 	lbu	a2,10(s2)
    93e4:	24040005 	li	a0,5
    93e8:	2408c000 	li	t0,-16384
    93ec:	30d000ff 	andi	s0,a2,0xff
    93f0:	a5500014 	sh	s0,20(t2)
    93f4:	96580008 	lhu	t8,8(s2)
    93f8:	a5580016 	sh	t8,22(t2)
    93fc:	9251000a 	lbu	s1,10(s2)
    9400:	3c188008 	lui	t8,0x8008
    9404:	322f00ff 	andi	t7,s1,0xff
    9408:	a54f0020 	sh	t7,32(t2)
    940c:	964e0008 	lhu	t6,8(s2)
    9410:	37110100 	ori	s1,t8,0x100
    9414:	a54e0022 	sh	t6,34(t2)
    9418:	ad400024 	sw	zero,36(t2)
    941c:	924d000b 	lbu	t5,11(s2)
    9420:	31ac00ff 	andi	t4,t5,0xff
    9424:	a54c0002 	sh	t4,2(t2)
    9428:	a14b0001 	sb	t3,1(t2)
    942c:	8e490030 	lw	t1,48(s2)
    9430:	8f830038 	lw	v1,56(gp)
    9434:	240bffbf 	li	t3,-65
    9438:	ac690008 	sw	t1,8(v1)
    943c:	a0640030 	sb	a0,48(v1)
    9440:	8f900038 	lw	s0,56(gp)
    9444:	2403ffdf 	li	v1,-33
    9448:	96070032 	lhu	a3,50(s0)
    944c:	00e82824 	and	a1,a3,t0
    9450:	00b51025 	or	v0,a1,s5
    9454:	a6020032 	sh	v0,50(s0)
    9458:	921f0032 	lbu	ra,50(s0)
    945c:	33f9003f 	andi	t9,ra,0x3f
    9460:	37260040 	ori	a2,t9,0x40
    9464:	a2060032 	sb	a2,50(s0)
    9468:	8f8c0038 	lw	t4,56(gp)
    946c:	ad800034 	sw	zero,52(t4)
    9470:	8e2f00c0 	lw	t7,192(s1)
    9474:	ad8f0038 	sw	t7,56(t4)
    9478:	918e003c 	lbu	t6,60(t4)
    947c:	3c0f7fff 	lui	t7,0x7fff
    9480:	31cd007f 	andi	t5,t6,0x7f
    9484:	a18d003c 	sb	t5,60(t4)
    9488:	8f840038 	lw	a0,56(gp)
    948c:	35eeffff 	ori	t6,t7,0xffff
    9490:	908a003c 	lbu	t2,60(a0)
    9494:	014b4824 	and	t1,t2,t3
    9498:	a089003c 	sb	t1,60(a0)
    949c:	8f850038 	lw	a1,56(gp)
    94a0:	90a8003c 	lbu	t0,60(a1)
    94a4:	01033824 	and	a3,t0,v1
    94a8:	a0a7003c 	sb	a3,60(a1)
    94ac:	8e420034 	lw	v0,52(s2)
    94b0:	8f910038 	lw	s1,56(gp)
    94b4:	3c038008 	lui	v1,0x8008
    94b8:	ae220040 	sw	v0,64(s1)
    94bc:	8e59002c 	lw	t9,44(s2)
    94c0:	8e5f0030 	lw	ra,48(s2)
    94c4:	033f3023 	subu	a2,t9,ra
    94c8:	ae260044 	sw	a2,68(s1)
    94cc:	92300048 	lbu	s0,72(s1)
    94d0:	3218007f 	andi	t8,s0,0x7f
    94d4:	a2380048 	sb	t8,72(s1)
    94d8:	8f880038 	lw	t0,56(gp)
    94dc:	8e4d0030 	lw	t5,48(s2)
    94e0:	8d0c0048 	lw	t4,72(t0)
    94e4:	01ae5824 	and	t3,t5,t6
    94e8:	01965024 	and	t2,t4,s6
    94ec:	014b4825 	or	t1,t2,t3
    94f0:	ad090048 	sw	t1,72(t0)
    94f4:	9244000a 	lbu	a0,10(s2)
    94f8:	a104004c 	sb	a0,76(t0)
    94fc:	96470008 	lhu	a3,8(s2)
    9500:	8f850038 	lw	a1,56(gp)
    9504:	a4a7004e 	sh	a3,78(a1)
    9508:	8e500030 	lw	s0,48(s2)
    950c:	8e440030 	lw	a0,48(s2)
    9510:	0e00031c 	jal	0x8000c70
    9514:	8c650060 	lw	a1,96(v1)
    9518:	92f9007c 	lbu	t9,124(s7)
    951c:	0002f940 	sll	ra,v0,0x5
    9520:	00402821 	move	a1,v0
    9524:	00021100 	sll	v0,v0,0x4
    9528:	03e23021 	addu	a2,ra,v0
    952c:	33360002 	andi	s6,t9,0x2
    9530:	12c00003 	beqz	s6,0x9540
    9534:	02068021 	addu	s0,s0,a2
    9538:	0005b080 	sll	s6,a1,0x2
    953c:	02168021 	addu	s0,s0,s6
    9540:	926d007c 	lbu	t5,124(s3)
    9544:	31b30004 	andi	s3,t5,0x4
    9548:	12600002 	beqz	s3,0x9554
    954c:	00057080 	sll	t6,a1,0x2
    9550:	020e8021 	addu	s0,s0,t6
    9554:	8e4b0030 	lw	t3,48(s2)
    9558:	24058000 	li	a1,-32768
    955c:	316a0003 	andi	t2,t3,0x3
    9560:	000a4823 	negu	t1,t2
    9564:	31240003 	andi	a0,t1,0x3
    9568:	02041821 	addu	v1,s0,a0
    956c:	8f900038 	lw	s0,56(gp)
    9570:	ae030034 	sw	v1,52(s0)
    9574:	96e4007a 	lhu	a0,122(s7)
    9578:	96e8007a 	lhu	t0,122(s7)
    957c:	96f1007a 	lhu	s1,122(s7)
    9580:	31077fff 	andi	a3,t0,0x7fff
    9584:	24e20001 	addiu	v0,a3,1
    9588:	305f7fff 	andi	ra,v0,0x7fff
    958c:	0225c824 	and	t9,s1,a1
    9590:	033f3025 	or	a2,t9,ra
    9594:	a6e6007a 	sh	a2,122(s7)
    9598:	96f8007a 	lhu	t8,122(s7)
    959c:	3c120800 	lui	s2,0x800
    95a0:	8e520060 	lw	s2,96(s2)
    95a4:	330f7fff 	andi	t7,t8,0x7fff
    95a8:	11f20018 	beq	t7,s2,0x960c
    95ac:	00000000 	nop
    95b0:	8f840098 	lw	a0,152(gp)
    95b4:	0e000ead 	jal	0x8003ab4
    95b8:	02a02821 	move	a1,s5
    95bc:	8f840098 	lw	a0,152(gp)
    95c0:	0e000ebd 	jal	0x8003af4
    95c4:	02802821 	move	a1,s4
    95c8:	0e000ef2 	jal	0x8003bc8
    95cc:	00000000 	nop
    95d0:	0a000ffe 	j	0x8003ff8
    95d4:	00000000 	nop
    95d8:	96f1007a 	lhu	s1,122(s7)
    95dc:	02248024 	and	s0,s1,a0
    95e0:	a6f0007a 	sh	s0,122(s7)
    95e4:	92ef007a 	lbu	t7,122(s7)
    95e8:	92eb007a 	lbu	t3,122(s7)
    95ec:	31ee00ff 	andi	t6,t7,0xff
    95f0:	000e69c2 	srl	t5,t6,0x7
    95f4:	000d6027 	nor	t4,zero,t5
    95f8:	000c51c0 	sll	t2,t4,0x7
    95fc:	3169007f 	andi	t1,t3,0x7f
    9600:	012a2025 	or	a0,t1,t2
    9604:	0a000ff8 	j	0x8003fe0
    9608:	a2e4007a 	sb	a0,122(s7)
    960c:	96e6007a 	lhu	a2,122(s7)
    9610:	00c5c024 	and	t8,a2,a1
    9614:	a6f8007a 	sh	t8,122(s7)
    9618:	92ef007a 	lbu	t7,122(s7)
    961c:	92f3007a 	lbu	s3,122(s7)
    9620:	31f200ff 	andi	s2,t7,0xff
    9624:	001271c2 	srl	t6,s2,0x7
    9628:	000e6827 	nor	t5,zero,t6
    962c:	000db1c0 	sll	s6,t5,0x7
    9630:	326c007f 	andi	t4,s3,0x7f
    9634:	01962825 	or	a1,t4,s6
    9638:	a2e5007a 	sb	a1,122(s7)
    963c:	0a0010af 	j	0x80042bc
    9640:	8f840098 	lw	a0,152(gp)
    9644:	3c038000 	lui	v1,0x8000
    9648:	3084ffff 	andi	a0,a0,0xffff
    964c:	30a5ffff 	andi	a1,a1,0xffff
    9650:	ac640018 	sw	a0,24(v1)
    9654:	ac65001c 	sw	a1,28(v1)
    9658:	03e00008 	jr	ra
    965c:	8c620014 	lw	v0,20(v1)
    9660:	27bdffa8 	addiu	sp,sp,-88
    9664:	3c068008 	lui	a2,0x8008
    9668:	afbe0050 	sw	s8,80(sp)
    966c:	afbf0054 	sw	ra,84(sp)
    9670:	afb7004c 	sw	s7,76(sp)
    9674:	afb60048 	sw	s6,72(sp)
    9678:	afb50044 	sw	s5,68(sp)
    967c:	afb40040 	sw	s4,64(sp)
    9680:	afb3003c 	sw	s3,60(sp)
    9684:	afb20038 	sw	s2,56(sp)
    9688:	afb10034 	sw	s1,52(sp)
    968c:	afb00030 	sw	s0,48(sp)
    9690:	34c80100 	ori	t0,a2,0x100
    9694:	910500c5 	lbu	a1,197(t0)
    9698:	90c70008 	lbu	a3,8(a2)
    969c:	309effff 	andi	s8,a0,0xffff
    96a0:	30a500ff 	andi	a1,a1,0xff
    96a4:	30e2007f 	andi	v0,a3,0x7f
    96a8:	0045182a 	slt	v1,v0,a1
    96ac:	a7a00014 	sh	zero,20(sp)
    96b0:	a7a0001e 	sh	zero,30(sp)
    96b4:	10600053 	beqz	v1,0x9804
    96b8:	afa00010 	sw	zero,16(sp)
    96bc:	90c90008 	lbu	t1,8(a2)
    96c0:	3126007f 	andi	a2,t1,0x7f
    96c4:	00a62023 	subu	a0,a1,a2
    96c8:	2493ffff 	addiu	s3,a0,-1
    96cc:	0013802b 	sltu	s0,zero,s3
    96d0:	001e882b 	sltu	s1,zero,s8
    96d4:	02117824 	and	t7,s0,s1
    96d8:	51e00084 	beqzl	t7,0x98ec
    96dc:	8fb30010 	lw	s3,16(sp)
    96e0:	3c198008 	lui	t9,0x8008
    96e4:	97360052 	lhu	s6,82(t9)
    96e8:	97370050 	lhu	s7,80(t9)
    96ec:	001ec400 	sll	t8,s8,0x10
    96f0:	02d7a823 	subu	s5,s6,s7
    96f4:	0015a400 	sll	s4,s5,0x10
    96f8:	00141403 	sra	v0,s4,0x10
    96fc:	03c2902a 	slt	s2,s8,v0
    9700:	16400002 	bnez	s2,0x970c
    9704:	00182c03 	sra	a1,t8,0x10
    9708:	00402821 	move	a1,v0
    970c:	00131400 	sll	v0,s3,0x10
    9710:	00022403 	sra	a0,v0,0x10
    9714:	00a4f82a 	slt	ra,a1,a0
    9718:	57e00001 	bnezl	ra,0x9720
    971c:	00a02021 	move	a0,a1
    9720:	28830009 	slti	v1,a0,9
    9724:	14600002 	bnez	v1,0x9730
    9728:	0080a021 	move	s4,a0
    972c:	24140008 	li	s4,8
    9730:	3c0a8008 	lui	t2,0x8008
    9734:	8d450048 	lw	a1,72(t2)
    9738:	00144980 	sll	t1,s4,0x6
    973c:	8d48004c 	lw	t0,76(t2)
    9740:	3c038000 	lui	v1,0x8000
    9744:	3124ffff 	andi	a0,t1,0xffff
    9748:	3c060010 	lui	a2,0x10
    974c:	00863825 	or	a3,a0,a2
    9750:	34710400 	ori	s1,v1,0x400
    9754:	ac650038 	sw	a1,56(v1)
    9758:	af91009c 	sw	s1,156(gp)
    975c:	ac68003c 	sw	t0,60(v1)
    9760:	ac670030 	sw	a3,48(v1)
	...
    9784:	8c6c0000 	lw	t4,0(v1)
    9788:	318b0020 	andi	t3,t4,0x20
    978c:	1160fffd 	beqz	t3,0x9784
    9790:	0014682a 	slt	t5,zero,s4
    9794:	01b01024 	and	v0,t5,s0
    9798:	10400039 	beqz	v0,0x9880
    979c:	0000a821 	move	s5,zero
    97a0:	3c168008 	lui	s6,0x8008
    97a4:	92d70008 	lbu	s7,8(s6)
    97a8:	3c128000 	lui	s2,0x8000
    97ac:	8e440100 	lw	a0,256(s2)
    97b0:	32f6007f 	andi	s6,s7,0x7f
    97b4:	0e000e78 	jal	0x80039e0
    97b8:	02c02821 	move	a1,s6
    97bc:	8e2f0010 	lw	t7,16(s1)
    97c0:	8e440100 	lw	a0,256(s2)
    97c4:	00009021 	move	s2,zero
    97c8:	31f73fff 	andi	s7,t7,0x3fff
    97cc:	0e000e90 	jal	0x8003a40
    97d0:	02e02821 	move	a1,s7
    97d4:	922e0000 	lbu	t6,0(s1)
    97d8:	31c2003f 	andi	v0,t6,0x3f
    97dc:	2c500008 	sltiu	s0,v0,8
    97e0:	52000010 	beqzl	s0,0x9824
    97e4:	00008821 	move	s1,zero
    97e8:	0002f880 	sll	ra,v0,0x2
    97ec:	3c030800 	lui	v1,0x800
    97f0:	2463542c 	addiu	v1,v1,21548
    97f4:	03e3c821 	addu	t9,ra,v1
    97f8:	8f380000 	lw	t8,0(t9)
    97fc:	03000008 	jr	t8
    9800:	00000000 	nop
    9804:	90ce0008 	lbu	t6,8(a2)
    9808:	938b00a0 	lbu	t3,160(gp)
    980c:	31cd007f 	andi	t5,t6,0x7f
    9810:	00ad6023 	subu	t4,a1,t5
    9814:	016c5021 	addu	t2,t3,t4
    9818:	0a0010f5 	j	0x80043d4
    981c:	2553ffff 	addiu	s3,t2,-1
    9820:	00008821 	move	s1,zero
    9824:	3c108000 	lui	s0,0x8000
    9828:	8e040100 	lw	a0,256(s0)
    982c:	0e000ead 	jal	0x8003ab4
    9830:	02e02821 	move	a1,s7
    9834:	8e040100 	lw	a0,256(s0)
    9838:	0e000ebd 	jal	0x8003af4
    983c:	02c02821 	move	a1,s6
    9840:	1220000f 	beqz	s1,0x9880
    9844:	0013802b 	sltu	s0,zero,s3
    9848:	8f8a009c 	lw	t2,156(gp)
    984c:	26a90001 	addiu	t1,s5,1
    9850:	0009ac00 	sll	s5,t1,0x10
    9854:	02729823 	subu	s3,s3,s2
    9858:	0015ac03 	sra	s5,s5,0x10
    985c:	25450040 	addiu	a1,t2,64
    9860:	02b4b02a 	slt	s6,s5,s4
    9864:	0013802b 	sltu	s0,zero,s3
    9868:	24170001 	li	s7,1
    986c:	00a08821 	move	s1,a1
    9870:	02d01024 	and	v0,s6,s0
    9874:	af85009c 	sw	a1,156(gp)
    9878:	1440ffc9 	bnez	v0,0x97a0
    987c:	afb70010 	sw	s7,16(sp)
    9880:	3c078008 	lui	a3,0x8008
    9884:	94f10050 	lhu	s1,80(a3)
    9888:	3c058000 	lui	a1,0x8000
    988c:	3c060020 	lui	a2,0x20
    9890:	02b1c821 	addu	t9,s5,s1
    9894:	a4f90050 	sh	t9,80(a3)
    9898:	aca60030 	sw	a2,48(a1)
    989c:	94f40050 	lhu	s4,80(a3)
    98a0:	94e30052 	lhu	v1,82(a3)
    98a4:	03d56023 	subu	t4,s8,s5
    98a8:	1074001d 	beq	v1,s4,0x9920
    98ac:	319effff 	andi	s8,t4,0xffff
    98b0:	8ce5004c 	lw	a1,76(a3)
    98b4:	8ce90048 	lw	t1,72(a3)
    98b8:	00156180 	sll	t4,s5,0x6
    98bc:	00acb021 	addu	s6,a1,t4
    98c0:	0000a021 	move	s4,zero
    98c4:	02cca82b 	sltu	s5,s6,t4
    98c8:	01345021 	addu	t2,t1,s4
    98cc:	0155b821 	addu	s7,t2,s5
    98d0:	acf6004c 	sw	s6,76(a3)
    98d4:	acf70048 	sw	s7,72(a3)
    98d8:	001e882b 	sltu	s1,zero,s8
    98dc:	02117824 	and	t7,s0,s1
    98e0:	15e0ff80 	bnez	t7,0x96e4
    98e4:	3c198008 	lui	t9,0x8008
    98e8:	8fb30010 	lw	s3,16(sp)
    98ec:	8fbf0054 	lw	ra,84(sp)
    98f0:	8fbe0050 	lw	s8,80(sp)
    98f4:	3a620001 	xori	v0,s3,0x1
    98f8:	8fb7004c 	lw	s7,76(sp)
    98fc:	8fb60048 	lw	s6,72(sp)
    9900:	8fb50044 	lw	s5,68(sp)
    9904:	8fb40040 	lw	s4,64(sp)
    9908:	8fb3003c 	lw	s3,60(sp)
    990c:	8fb20038 	lw	s2,56(sp)
    9910:	8fb10034 	lw	s1,52(sp)
    9914:	8fb00030 	lw	s0,48(sp)
    9918:	03e00008 	jr	ra
    991c:	27bd0058 	addiu	sp,sp,88
    9920:	94f20054 	lhu	s2,84(a3)
    9924:	8cef0044 	lw	t7,68(a3)
    9928:	325ffffe 	andi	ra,s2,0xfffe
    992c:	001fc0c0 	sll	t8,ra,0x3
    9930:	01f87021 	addu	t6,t7,t8
    9934:	acae003c 	sw	t6,60(a1)
    9938:	8ceb0044 	lw	t3,68(a3)
    993c:	8cad003c 	lw	t5,60(a1)
    9940:	016d4023 	subu	t0,t3,t5
    9944:	1900003b 	blez	t0,0x9a34
    9948:	00000000 	nop
    994c:	8ce20040 	lw	v0,64(a3)
    9950:	24420001 	addiu	v0,v0,1
    9954:	3c070050 	lui	a3,0x50
    9958:	34e40010 	ori	a0,a3,0x10
    995c:	3c038000 	lui	v1,0x8000
    9960:	aca20038 	sw	v0,56(a1)
    9964:	ac640030 	sw	a0,48(v1)
	...
    9988:	8c760000 	lw	s6,0(v1)
    998c:	32d70020 	andi	s7,s6,0x20
    9990:	12e0fffd 	beqz	s7,0x9988
    9994:	3c118008 	lui	s1,0x8008
    9998:	96280054 	lhu	t0,84(s1)
    999c:	3c0a8000 	lui	t2,0x8000
    99a0:	3c068008 	lui	a2,0x8008
    99a4:	31190001 	andi	t9,t0,0x1
    99a8:	001960c0 	sll	t4,t9,0x3
    99ac:	018aa021 	addu	s4,t4,t2
    99b0:	8e830400 	lw	v1,1024(s4)
    99b4:	3c070800 	lui	a3,0x800
    99b8:	8ce70044 	lw	a3,68(a3)
    99bc:	3c150020 	lui	s5,0x20
    99c0:	acc30048 	sw	v1,72(a2)
    99c4:	8e890404 	lw	t1,1028(s4)
    99c8:	24050001 	li	a1,1
    99cc:	acc9004c 	sw	t1,76(a2)
    99d0:	10e50259 	beq	a3,a1,0xa338
    99d4:	ad550030 	sw	s5,48(t2)
    99d8:	963f0052 	lhu	ra,82(s1)
    99dc:	3c050800 	lui	a1,0x800
    99e0:	8ca50040 	lw	a1,64(a1)
    99e4:	00bfc021 	addu	t8,a1,ra
    99e8:	a6380052 	sh	t8,82(s1)
    99ec:	962f0054 	lhu	t7,84(s1)
    99f0:	25ee0001 	addiu	t6,t7,1
    99f4:	a62e0054 	sh	t6,84(s1)
    99f8:	96260054 	lhu	a2,84(s1)
    99fc:	30c4ffff 	andi	a0,a2,0xffff
    9a00:	5487ff34 	bnel	a0,a3,0x96d4
    9a04:	001e882b 	sltu	s1,zero,s8
    9a08:	30a5ffff 	andi	a1,a1,0xffff
    9a0c:	0e0010d3 	jal	0x800434c
    9a10:	a6200054 	sh	zero,84(s1)
    9a14:	3c040800 	lui	a0,0x800
    9a18:	8c840024 	lw	a0,36(a0)
    9a1c:	96270052 	lhu	a3,82(s1)
    9a20:	00441023 	subu	v0,v0,a0
    9a24:	00e29023 	subu	s2,a3,v0
    9a28:	a6320052 	sh	s2,82(s1)
    9a2c:	0a0010f7 	j	0x80043dc
    9a30:	001e882b 	sltu	s1,zero,s8
    9a34:	8ce20040 	lw	v0,64(a3)
    9a38:	0a001198 	j	0x8004660
    9a3c:	3c070050 	lui	a3,0x50
    9a40:	92280001 	lbu	t0,1(s1)
    9a44:	24070001 	li	a3,1
    9a48:	3102007f 	andi	v0,t0,0x7f
    9a4c:	1447001c 	bne	v0,a3,0x9ac0
    9a50:	97ac001e 	lhu	t4,30(sp)
    9a54:	8e2a0014 	lw	t2,20(s1)
    9a58:	240bc000 	li	t3,-16384
    9a5c:	31443fff 	andi	a0,t2,0x3fff
    9a60:	018b4824 	and	t1,t4,t3
    9a64:	3c060800 	lui	a2,0x800
    9a68:	8cc60060 	lw	a2,96(a2)
    9a6c:	01242825 	or	a1,t1,a0
    9a70:	30a43fff 	andi	a0,a1,0x3fff
    9a74:	0086882b 	sltu	s1,a0,a2
    9a78:	12200011 	beqz	s1,0x9ac0
    9a7c:	a7a5001e 	sh	a1,30(sp)
    9a80:	3c110800 	lui	s1,0x800
    9a84:	8e310058 	lw	s1,88(s1)
    9a88:	8f820098 	lw	v0,152(gp)
    9a8c:	00044180 	sll	t0,a0,0x6
    9a90:	2407ff80 	li	a3,-128
    9a94:	02221821 	addu	v1,s1,v0
    9a98:	0068f821 	addu	ra,v1,t0
    9a9c:	03e7c824 	and	t9,ra,a3
    9aa0:	33ef007f 	andi	t7,ra,0x7f
    9aa4:	3c188000 	lui	t8,0x8000
    9aa8:	3c12800e 	lui	s2,0x800e
    9aac:	af19002c 	sw	t9,44(t8)
    9ab0:	01f26821 	addu	t5,t7,s2
    9ab4:	91ae000d 	lbu	t6,13(t5)
    9ab8:	35d00004 	ori	s0,t6,0x4
    9abc:	a1b0000d 	sb	s0,13(t5)
    9ac0:	0e000f07 	jal	0x8003c1c
    9ac4:	24120001 	li	s2,1
    9ac8:	24110001 	li	s1,1
    9acc:	3c108000 	lui	s0,0x8000
    9ad0:	8e040100 	lw	a0,256(s0)
    9ad4:	0e000ead 	jal	0x8003ab4
    9ad8:	02e02821 	move	a1,s7
    9adc:	8e040100 	lw	a0,256(s0)
    9ae0:	0e000ebd 	jal	0x8003af4
    9ae4:	02c02821 	move	a1,s6
    9ae8:	1620ff58 	bnez	s1,0x984c
    9aec:	8f8a009c 	lw	t2,156(gp)
    9af0:	0a001162 	j	0x8004588
    9af4:	0013802b 	sltu	s0,zero,s3
    9af8:	8f86009c 	lw	a2,156(gp)
    9afc:	90c90001 	lbu	t1,1(a2)
    9b00:	31250020 	andi	a1,t1,0x20
    9b04:	10a0018a 	beqz	a1,0xa130
    9b08:	24100001 	li	s0,1
    9b0c:	3c048008 	lui	a0,0x8008
    9b10:	348c0080 	ori	t4,a0,0x80
    9b14:	918b007c 	lbu	t3,124(t4)
    9b18:	8f910034 	lw	s1,52(gp)
    9b1c:	00009021 	move	s2,zero
    9b20:	316a0001 	andi	t2,t3,0x1
    9b24:	1140000f 	beqz	t2,0x9b64
    9b28:	afb00020 	sw	s0,32(sp)
    9b2c:	8cd00014 	lw	s0,20(a2)
    9b30:	8c8e0060 	lw	t6,96(a0)
    9b34:	020e682b 	sltu	t5,s0,t6
    9b38:	15a00003 	bnez	t5,0x9b48
    9b3c:	02003821 	move	a3,s0
    9b40:	8c870060 	lw	a3,96(a0)
    9b44:	3c048008 	lui	a0,0x8008
    9b48:	34830080 	ori	v1,a0,0x80
    9b4c:	8c720070 	lw	s2,112(v1)
    9b50:	00f2782b 	sltu	t7,a3,s2
    9b54:	15e00002 	bnez	t7,0x9b60
    9b58:	00e02021 	move	a0,a3
    9b5c:	8c640070 	lw	a0,112(v1)
    9b60:	00809021 	move	s2,a0
    9b64:	3c078008 	lui	a3,0x8008
    9b68:	34e50080 	ori	a1,a3,0x80
    9b6c:	8cd90014 	lw	t9,20(a2)
    9b70:	8cbf0070 	lw	ra,112(a1)
    9b74:	033fc02b 	sltu	t8,t9,ra
    9b78:	17000002 	bnez	t8,0x9b84
    9b7c:	03202021 	move	a0,t9
    9b80:	8ca40070 	lw	a0,112(a1)
    9b84:	00921823 	subu	v1,a0,s2
    9b88:	10600003 	beqz	v1,0x9b98
    9b8c:	afa30028 	sw	v1,40(sp)
    9b90:	24080002 	li	t0,2
    9b94:	afa80020 	sw	t0,32(sp)
    9b98:	8fa50020 	lw	a1,32(sp)
    9b9c:	0265102b 	sltu	v0,s3,a1
    9ba0:	144000b5 	bnez	v0,0x9e78
    9ba4:	00001821 	move	v1,zero
    9ba8:	8cc40038 	lw	a0,56(a2)
    9bac:	8e2f000c 	lw	t7,12(s1)
    9bb0:	3c180080 	lui	t8,0x80
    9bb4:	ae240000 	sw	a0,0(s1)
    9bb8:	8cce0034 	lw	t6,52(a2)
    9bbc:	3c10ff9f 	lui	s0,0xff9f
    9bc0:	01f86025 	or	t4,t7,t8
    9bc4:	ae2e0004 	sw	t6,4(s1)
    9bc8:	90cb003f 	lbu	t3,63(a2)
    9bcc:	360dffff 	ori	t5,s0,0xffff
    9bd0:	018d4824 	and	t1,t4,t5
    9bd4:	3c0a0020 	lui	t2,0x20
    9bd8:	3c06ffef 	lui	a2,0xffef
    9bdc:	a22b000b 	sb	t3,11(s1)
    9be0:	012a3825 	or	a3,t1,t2
    9be4:	34c5ffff 	ori	a1,a2,0xffff
    9be8:	00e54024 	and	t0,a3,a1
    9bec:	3c020008 	lui	v0,0x8
    9bf0:	8f87009c 	lw	a3,156(gp)
    9bf4:	01022025 	or	a0,t0,v0
    9bf8:	ae24000c 	sw	a0,12(s1)
    9bfc:	8ce30014 	lw	v1,20(a3)
    9c00:	ae200018 	sw	zero,24(s1)
    9c04:	8faf0028 	lw	t7,40(sp)
    9c08:	ae230014 	sw	v1,20(s1)
    9c0c:	8cf80018 	lw	t8,24(a3)
    9c10:	3c1ffffb 	lui	ra,0xfffb
    9c14:	37f9ffff 	ori	t9,ra,0xffff
    9c18:	ae38001c 	sw	t8,28(s1)
    9c1c:	8cee0008 	lw	t6,8(a3)
    9c20:	00996824 	and	t5,a0,t9
    9c24:	024f8021 	addu	s0,s2,t7
    9c28:	ae2e0024 	sw	t6,36(s1)
    9c2c:	8cec000c 	lw	t4,12(a3)
    9c30:	ae2d000c 	sw	t5,12(s1)
    9c34:	a6200038 	sh	zero,56(s1)
    9c38:	a620003a 	sh	zero,58(s1)
    9c3c:	ae30002c 	sw	s0,44(s1)
    9c40:	ae2c0020 	sw	t4,32(s1)
    9c44:	ae200028 	sw	zero,40(s1)
    9c48:	8ceb0014 	lw	t3,20(a3)
    9c4c:	8faa0028 	lw	t2,40(sp)
    9c50:	01724823 	subu	t1,t3,s2
    9c54:	012a3023 	subu	a2,t1,t2
    9c58:	10c00011 	beqz	a2,0x9ca0
    9c5c:	ae260010 	sw	a2,16(s1)
    9c60:	90f0003d 	lbu	s0,61(a3)
    9c64:	8e2c0004 	lw	t4,4(s1)
    9c68:	8e2a0000 	lw	t2,0(s1)
    9c6c:	00106900 	sll	t5,s0,0x4
    9c70:	018d2821 	addu	a1,t4,t5
    9c74:	00001021 	move	v0,zero
    9c78:	00ad302b 	sltu	a2,a1,t5
    9c7c:	01424821 	addu	t1,t2,v0
    9c80:	01264021 	addu	t0,t1,a2
    9c84:	ae250004 	sw	a1,4(s1)
    9c88:	ae280000 	sw	t0,0(s1)
    9c8c:	90e3003d 	lbu	v1,61(a3)
    9c90:	a223000a 	sb	v1,10(s1)
    9c94:	8f9f009c 	lw	ra,156(gp)
    9c98:	97f90006 	lhu	t9,6(ra)
    9c9c:	a6390008 	sh	t9,8(s1)
    9ca0:	8f8a0038 	lw	t2,56(gp)
    9ca4:	24020002 	li	v0,2
    9ca8:	3c068008 	lui	a2,0x8008
    9cac:	a1420000 	sb	v0,0(t2)
    9cb0:	34c90080 	ori	t1,a2,0x80
    9cb4:	9525005c 	lhu	a1,92(t1)
    9cb8:	02402021 	move	a0,s2
    9cbc:	8f900038 	lw	s0,56(gp)
    9cc0:	30a8ffff 	andi	t0,a1,0xffff
    9cc4:	0e000ed3 	jal	0x8003b4c
    9cc8:	afa80024 	sw	t0,36(sp)
    9ccc:	8fa30024 	lw	v1,36(sp)
    9cd0:	0002fb80 	sll	ra,v0,0xe
    9cd4:	8f85009c 	lw	a1,156(gp)
    9cd8:	3c044200 	lui	a0,0x4200
    9cdc:	03e3c825 	or	t9,ra,v1
    9ce0:	0324c025 	or	t8,t9,a0
    9ce4:	ae180004 	sw	t8,4(s0)
    9ce8:	8f840038 	lw	a0,56(gp)
    9cec:	8caf0038 	lw	t7,56(a1)
    9cf0:	ac8f0018 	sw	t7,24(a0)
    9cf4:	8cae0034 	lw	t6,52(a1)
    9cf8:	ac8e001c 	sw	t6,28(a0)
    9cfc:	ac80000c 	sw	zero,12(a0)
    9d00:	ac800010 	sw	zero,16(a0)
    9d04:	a4800014 	sh	zero,20(a0)
    9d08:	a4800016 	sh	zero,22(a0)
    9d0c:	a4800020 	sh	zero,32(a0)
    9d10:	a4800022 	sh	zero,34(a0)
    9d14:	ac800024 	sw	zero,36(a0)
    9d18:	90a7003f 	lbu	a3,63(a1)
    9d1c:	a4870002 	sh	a3,2(a0)
    9d20:	5240018c 	beqzl	s2,0xa354
    9d24:	24070001 	li	a3,1
    9d28:	8fab0028 	lw	t3,40(sp)
    9d2c:	51600002 	beqzl	t3,0x9d38
    9d30:	90a2003d 	lbu	v0,61(a1)
    9d34:	90a2003e 	lbu	v0,62(a1)
    9d38:	244c0001 	addiu	t4,v0,1
    9d3c:	a08c0001 	sb	t4,1(a0)
    9d40:	8f840038 	lw	a0,56(gp)
    9d44:	ac920008 	sw	s2,8(a0)
    9d48:	3c188008 	lui	t8,0x8008
    9d4c:	37100080 	ori	s0,t8,0x80
    9d50:	920f007c 	lbu	t7,124(s0)
    9d54:	31ee0002 	andi	t6,t7,0x2
    9d58:	15c00002 	bnez	t6,0x9d64
    9d5c:	24070034 	li	a3,52
    9d60:	24070030 	li	a3,48
    9d64:	8f85009c 	lw	a1,156(gp)
    9d68:	3c088008 	lui	t0,0x8008
    9d6c:	35090080 	ori	t1,t0,0x80
    9d70:	90a30000 	lbu	v1,0(a1)
    9d74:	9128007c 	lbu	t0,124(t1)
    9d78:	32590003 	andi	t9,s2,0x3
    9d7c:	a0830030 	sb	v1,48(a0)
    9d80:	8f9f009c 	lw	ra,156(gp)
    9d84:	8f900038 	lw	s0,56(gp)
    9d88:	24040004 	li	a0,4
    9d8c:	93f80001 	lbu	t8,1(ra)
    9d90:	00997823 	subu	t7,a0,t9
    9d94:	240dc000 	li	t5,-16384
    9d98:	a2180031 	sb	t8,49(s0)
    9d9c:	8f990038 	lw	t9,56(gp)
    9da0:	8f8e009c 	lw	t6,156(gp)
    9da4:	31e50003 	andi	a1,t7,0x3
    9da8:	972c0032 	lhu	t4,50(t9)
    9dac:	95cb0012 	lhu	t3,18(t6)
    9db0:	00f24821 	addu	t1,a3,s2
    9db4:	018d5024 	and	t2,t4,t5
    9db8:	31623fff 	andi	v0,t3,0x3fff
    9dbc:	01423025 	or	a2,t2,v0
    9dc0:	a7260032 	sh	a2,50(t9)
    9dc4:	93230032 	lbu	v1,50(t9)
    9dc8:	01253821 	addu	a3,t1,a1
    9dcc:	31080004 	andi	t0,t0,0x4
    9dd0:	307f003f 	andi	ra,v1,0x3f
    9dd4:	37e40040 	ori	a0,ra,0x40
    9dd8:	a3240032 	sb	a0,50(t9)
    9ddc:	12400002 	beqz	s2,0x9de8
    9de0:	8f850038 	lw	a1,56(gp)
    9de4:	00e83821 	addu	a3,a3,t0
    9de8:	3c0c8008 	lui	t4,0x8008
    9dec:	aca70034 	sw	a3,52(a1)
    9df0:	358b0100 	ori	t3,t4,0x100
    9df4:	8d6200c0 	lw	v0,192(t3)
    9df8:	2e440001 	sltiu	a0,s2,1
    9dfc:	2403ffdf 	li	v1,-33
    9e00:	aca20038 	sw	v0,56(a1)
    9e04:	90aa003c 	lbu	t2,60(a1)
    9e08:	0004c940 	sll	t9,a0,0x5
    9e0c:	3146007f 	andi	a2,t2,0x7f
    9e10:	a0a6003c 	sb	a2,60(a1)
    9e14:	8f890038 	lw	t1,56(gp)
    9e18:	2405ffbf 	li	a1,-65
    9e1c:	9127003c 	lbu	a3,60(t1)
    9e20:	00e54024 	and	t0,a3,a1
    9e24:	a128003c 	sb	t0,60(t1)
    9e28:	8f8f0038 	lw	t7,56(gp)
    9e2c:	91ff003c 	lbu	ra,60(t7)
    9e30:	03e3c024 	and	t8,ra,v1
    9e34:	03198025 	or	s0,t8,t9
    9e38:	a1f0003c 	sb	s0,60(t7)
    9e3c:	8f8b009c 	lw	t3,156(gp)
    9e40:	8f8a0038 	lw	t2,56(gp)
    9e44:	8d6e0020 	lw	t6,32(t3)
    9e48:	ad4e0040 	sw	t6,64(t2)
    9e4c:	8d6d0024 	lw	t5,36(t3)
    9e50:	ad4d0044 	sw	t5,68(t2)
    9e54:	8d6c0028 	lw	t4,40(t3)
    9e58:	ad4c0048 	sw	t4,72(t2)
    9e5c:	8d62002c 	lw	v0,44(t3)
    9e60:	0e000ef2 	jal	0x8003bc8
    9e64:	ad42004c 	sw	v0,76(t2)
    9e68:	8fa60020 	lw	a2,32(sp)
    9e6c:	24070002 	li	a3,2
    9e70:	10c70011 	beq	a2,a3,0x9eb8
    9e74:	8fa30020 	lw	v1,32(sp)
    9e78:	0003202b 	sltu	a0,zero,v1
    9e7c:	00048023 	negu	s0,a0
    9e80:	02709824 	and	s3,s3,s0
    9e84:	00608021 	move	s0,v1
    9e88:	00609021 	move	s2,v1
    9e8c:	0a00114b 	j	0x800452c
    9e90:	0010882b 	sltu	s1,zero,s0
    9e94:	96270012 	lhu	a3,18(s1)
    9e98:	8f840098 	lw	a0,152(gp)
    9e9c:	00009021 	move	s2,zero
    9ea0:	30e5ffff 	andi	a1,a3,0xffff
    9ea4:	a7a70014 	sh	a3,20(sp)
    9ea8:	0e000ea1 	jal	0x8003a84
    9eac:	24110001 	li	s1,1
    9eb0:	0a0011f6 	j	0x80047d8
    9eb4:	3c108000 	lui	s0,0x8000
    9eb8:	3c198000 	lui	t9,0x8000
    9ebc:	3c028008 	lui	v0,0x8008
    9ec0:	8f240100 	lw	a0,256(t9)
    9ec4:	90580008 	lbu	t8,8(v0)
    9ec8:	0e000e78 	jal	0x80039e0
    9ecc:	3305007f 	andi	a1,t8,0x7f
    9ed0:	8f8e0038 	lw	t6,56(gp)
    9ed4:	8faf0020 	lw	t7,32(sp)
    9ed8:	8fa40028 	lw	a0,40(sp)
    9edc:	a1cf0000 	sb	t7,0(t6)
    9ee0:	0e000ed3 	jal	0x8003b4c
    9ee4:	8f900038 	lw	s0,56(gp)
    9ee8:	8fad0024 	lw	t5,36(sp)
    9eec:	00023b80 	sll	a3,v0,0xe
    9ef0:	3c0b4200 	lui	t3,0x4200
    9ef4:	00ed4025 	or	t0,a3,t5
    9ef8:	8f87009c 	lw	a3,156(gp)
    9efc:	010b2025 	or	a0,t0,t3
    9f00:	ae040004 	sw	a0,4(s0)
    9f04:	8ce50038 	lw	a1,56(a3)
    9f08:	8f900038 	lw	s0,56(gp)
    9f0c:	00005021 	move	t2,zero
    9f10:	000a1900 	sll	v1,t2,0x4
    9f14:	ae050018 	sw	a1,24(s0)
    9f18:	8cec0034 	lw	t4,52(a3)
    9f1c:	3c087fff 	lui	t0,0x7fff
    9f20:	3504ffff 	ori	a0,t0,0xffff
    9f24:	ae0c001c 	sw	t4,28(s0)
    9f28:	90e9003e 	lbu	t1,62(a3)
    9f2c:	8e1f001c 	lw	ra,28(s0)
    9f30:	8e180018 	lw	t8,24(s0)
    9f34:	0009c900 	sll	t9,t1,0x4
    9f38:	00093702 	srl	a2,t1,0x1c
    9f3c:	03f96821 	addu	t5,ra,t9
    9f40:	00661025 	or	v0,v1,a2
    9f44:	01b9782b 	sltu	t7,t5,t9
    9f48:	03027021 	addu	t6,t8,v0
    9f4c:	01cf5821 	addu	t3,t6,t7
    9f50:	ae0d001c 	sw	t5,28(s0)
    9f54:	ae0b0018 	sw	t3,24(s0)
    9f58:	ae00000c 	sw	zero,12(s0)
    9f5c:	ae000010 	sw	zero,16(s0)
    9f60:	90e5003e 	lbu	a1,62(a3)
    9f64:	8faf0028 	lw	t7,40(sp)
    9f68:	240e0005 	li	t6,5
    9f6c:	a6050014 	sh	a1,20(s0)
    9f70:	94ec0004 	lhu	t4,4(a3)
    9f74:	2405c000 	li	a1,-16384
    9f78:	01e45824 	and	t3,t7,a0
    9f7c:	a60c0016 	sh	t4,22(s0)
    9f80:	90ea003e 	lbu	t2,62(a3)
    9f84:	01e02021 	move	a0,t7
    9f88:	a60a0020 	sh	t2,32(s0)
    9f8c:	94e60004 	lhu	a2,4(a3)
    9f90:	a6060022 	sh	a2,34(s0)
    9f94:	ae000024 	sw	zero,36(s0)
    9f98:	90e3003f 	lbu	v1,63(a3)
    9f9c:	a6030002 	sh	v1,2(s0)
    9fa0:	90e9003e 	lbu	t1,62(a3)
    9fa4:	90ff003d 	lbu	ra,61(a3)
    9fa8:	03e9c823 	subu	t9,ra,t1
    9fac:	27380001 	addiu	t8,t9,1
    9fb0:	a2180001 	sb	t8,1(s0)
    9fb4:	8f8d0038 	lw	t5,56(gp)
    9fb8:	3c108008 	lui	s0,0x8008
    9fbc:	adaf0008 	sw	t7,8(t5)
    9fc0:	a1ae0030 	sb	t6,48(t5)
    9fc4:	8f980038 	lw	t8,56(gp)
    9fc8:	8f82009c 	lw	v0,156(gp)
    9fcc:	360f0100 	ori	t7,s0,0x100
    9fd0:	970c0032 	lhu	t4,50(t8)
    9fd4:	944a0012 	lhu	t2,18(v0)
    9fd8:	2410ff80 	li	s0,-128
    9fdc:	00ac3824 	and	a3,a1,t4
    9fe0:	31463fff 	andi	a2,t2,0x3fff
    9fe4:	00e61825 	or	v1,a3,a2
    9fe8:	a7030032 	sh	v1,50(t8)
    9fec:	93090032 	lbu	t1,50(t8)
    9ff0:	2405ffbf 	li	a1,-65
    9ff4:	2403ffdf 	li	v1,-33
    9ff8:	313f003f 	andi	ra,t1,0x3f
    9ffc:	37f90040 	ori	t9,ra,0x40
    a000:	a3190032 	sb	t9,50(t8)
    a004:	8f8c0038 	lw	t4,56(gp)
    a008:	2418ffff 	li	t8,-1
    a00c:	ad800034 	sw	zero,52(t4)
    a010:	8dee00c0 	lw	t6,192(t7)
    a014:	ad8e0038 	sw	t6,56(t4)
    a018:	918d003c 	lbu	t5,60(t4)
    a01c:	31a2007f 	andi	v0,t5,0x7f
    a020:	a182003c 	sb	v0,60(t4)
    a024:	8f870038 	lw	a3,56(gp)
    a028:	90ea003c 	lbu	t2,60(a3)
    a02c:	01453024 	and	a2,t2,a1
    a030:	a0e6003c 	sb	a2,60(a3)
    a034:	8f990038 	lw	t9,56(gp)
    a038:	9329003c 	lbu	t1,60(t9)
    a03c:	0123f824 	and	ra,t1,v1
    a040:	a33f003c 	sb	ra,60(t9)
    a044:	8f8d0038 	lw	t5,56(gp)
    a048:	3c1f8008 	lui	ra,0x8008
    a04c:	adb80040 	sw	t8,64(t5)
    a050:	adb20044 	sw	s2,68(t5)
    a054:	91af0048 	lbu	t7,72(t5)
    a058:	3c128000 	lui	s2,0x8000
    a05c:	01f07025 	or	t6,t7,s0
    a060:	a1ae0048 	sb	t6,72(t5)
    a064:	8f870038 	lw	a3,56(gp)
    a068:	8f86009c 	lw	a2,156(gp)
    a06c:	8cec0048 	lw	t4,72(a3)
    a070:	01921024 	and	v0,t4,s2
    a074:	004b5025 	or	t2,v0,t3
    a078:	acea0048 	sw	t2,72(a3)
    a07c:	90c5003e 	lbu	a1,62(a2)
    a080:	a0e5004c 	sb	a1,76(a3)
    a084:	8f88009c 	lw	t0,156(gp)
    a088:	8f830038 	lw	v1,56(gp)
    a08c:	95090004 	lhu	t1,4(t0)
    a090:	a469004e 	sh	t1,78(v1)
    a094:	8fe50060 	lw	a1,96(ra)
    a098:	0e00031c 	jal	0x8000c70
    a09c:	00000000 	nop
    a0a0:	8f99ff24 	lw	t9,-220(gp)
    a0a4:	8fae0028 	lw	t6,40(sp)
    a0a8:	00028140 	sll	s0,v0,0x5
    a0ac:	932f007c 	lbu	t7,124(t9)
    a0b0:	0002c100 	sll	t8,v0,0x4
    a0b4:	02186821 	addu	t5,s0,t8
    a0b8:	31f20002 	andi	s2,t7,0x2
    a0bc:	00402821 	move	a1,v0
    a0c0:	164000aa 	bnez	s2,0xa36c
    a0c4:	01cd3021 	addu	a2,t6,t5
    a0c8:	3c0a8008 	lui	t2,0x8008
    a0cc:	35430080 	ori	v1,t2,0x80
    a0d0:	9069007c 	lbu	t1,124(v1)
    a0d4:	313f0004 	andi	ra,t1,0x4
    a0d8:	13e00003 	beqz	ra,0xa0e8
    a0dc:	8fae0028 	lw	t6,40(sp)
    a0e0:	00056080 	sll	t4,a1,0x2
    a0e4:	00cc3021 	addu	a2,a2,t4
    a0e8:	240d0004 	li	t5,4
    a0ec:	8f900038 	lw	s0,56(gp)
    a0f0:	31c70003 	andi	a3,t6,0x3
    a0f4:	01a75823 	subu	t3,t5,a3
    a0f8:	31680003 	andi	t0,t3,0x3
    a0fc:	00c82021 	addu	a0,a2,t0
    a100:	ae040034 	sw	a0,52(s0)
    a104:	3c068008 	lui	a2,0x8008
    a108:	a6250038 	sh	a1,56(s1)
    a10c:	3c058000 	lui	a1,0x8000
    a110:	8ca40100 	lw	a0,256(a1)
    a114:	90d10008 	lbu	s1,8(a2)
    a118:	0e000ebd 	jal	0x8003af4
    a11c:	3225007f 	andi	a1,s1,0x7f
    a120:	0e000ef2 	jal	0x8003bc8
    a124:	00000000 	nop
    a128:	0a0012e0 	j	0x8004b80
    a12c:	8fa30020 	lw	v1,32(sp)
    a130:	8f850034 	lw	a1,52(gp)
    a134:	8cc20038 	lw	v0,56(a2)
    a138:	24180003 	li	t8,3
    a13c:	a4a00008 	sh	zero,8(a1)
    a140:	aca20000 	sw	v0,0(a1)
    a144:	8cdf0034 	lw	ra,52(a2)
    a148:	a0a0000a 	sb	zero,10(a1)
    a14c:	8f92009c 	lw	s2,156(gp)
    a150:	acbf0004 	sw	ra,4(a1)
    a154:	3c040080 	lui	a0,0x80
    a158:	924f003f 	lbu	t7,63(s2)
    a15c:	a0b8000c 	sb	t8,12(a1)
    a160:	8cae000c 	lw	t6,12(a1)
    a164:	3c0dff9f 	lui	t5,0xff9f
    a168:	a0af000b 	sb	t7,11(a1)
    a16c:	01c44025 	or	t0,t6,a0
    a170:	35abffff 	ori	t3,t5,0xffff
    a174:	3c11ffef 	lui	s1,0xffef
    a178:	8f98009c 	lw	t8,156(gp)
    a17c:	010b3024 	and	a2,t0,t3
    a180:	3639ffff 	ori	t9,s1,0xffff
    a184:	00d96024 	and	t4,a2,t9
    a188:	acac000c 	sw	t4,12(a1)
    a18c:	8f030014 	lw	v1,20(t8)
    a190:	971f0012 	lhu	ra,18(t8)
    a194:	8f870098 	lw	a3,152(gp)
    a198:	aca30010 	sw	v1,16(a1)
    a19c:	8f090014 	lw	t1,20(t8)
    a1a0:	aca00018 	sw	zero,24(a1)
    a1a4:	aca00020 	sw	zero,32(a1)
    a1a8:	aca90014 	sw	t1,20(a1)
    a1ac:	aca00024 	sw	zero,36(a1)
    a1b0:	8f0a0018 	lw	t2,24(t8)
    a1b4:	33e93fff 	andi	t1,ra,0x3fff
    a1b8:	00091180 	sll	v0,t1,0x6
    a1bc:	acaa0028 	sw	t2,40(a1)
    a1c0:	8f120008 	lw	s2,8(t8)
    a1c4:	00477821 	addu	t7,v0,a3
    a1c8:	33ee0001 	andi	t6,ra,0x1
    a1cc:	acb20030 	sw	s2,48(a1)
    a1d0:	8f08000c 	lw	t0,12(t8)
    a1d4:	8f990038 	lw	t9,56(gp)
    a1d8:	000f69c2 	srl	t5,t7,0x7
    a1dc:	000e2380 	sll	a0,t6,0xe
    a1e0:	01a45821 	addu	t3,t5,a0
    a1e4:	24110002 	li	s1,2
    a1e8:	3c068008 	lui	a2,0x8008
    a1ec:	a4ab001c 	sh	t3,28(a1)
    a1f0:	a4a00034 	sh	zero,52(a1)
    a1f4:	aca8002c 	sw	t0,44(a1)
    a1f8:	a3310000 	sb	s1,0(t9)
    a1fc:	34d90080 	ori	t9,a2,0x80
    a200:	972c005c 	lhu	t4,92(t9)
    a204:	8f8f0038 	lw	t7,56(gp)
    a208:	3c034200 	lui	v1,0x4200
    a20c:	318affff 	andi	t2,t4,0xffff
    a210:	01433825 	or	a3,t2,v1
    a214:	ade70004 	sw	a3,4(t7)
    a218:	8f82009c 	lw	v0,156(gp)
    a21c:	24180001 	li	t8,1
    a220:	2411c000 	li	s1,-16384
    a224:	8c5f0038 	lw	ra,56(v0)
    a228:	24070034 	li	a3,52
    a22c:	adff0018 	sw	ra,24(t7)
    a230:	8c520034 	lw	s2,52(v0)
    a234:	adf2001c 	sw	s2,28(t7)
    a238:	ade0000c 	sw	zero,12(t7)
    a23c:	ade00010 	sw	zero,16(t7)
    a240:	a5e00014 	sh	zero,20(t7)
    a244:	a5e00016 	sh	zero,22(t7)
    a248:	a5e00020 	sh	zero,32(t7)
    a24c:	a5e00022 	sh	zero,34(t7)
    a250:	ade00024 	sw	zero,36(t7)
    a254:	a5f00002 	sh	s0,2(t7)
    a258:	a1f80001 	sb	t8,1(t7)
    a25c:	8f8b0038 	lw	t3,56(gp)
    a260:	8f8e009c 	lw	t6,156(gp)
    a264:	ad700008 	sw	s0,8(t3)
    a268:	91cd0000 	lbu	t5,0(t6)
    a26c:	a16d0030 	sb	t5,48(t3)
    a270:	8f88009c 	lw	t0,156(gp)
    a274:	8f840038 	lw	a0,56(gp)
    a278:	91050001 	lbu	a1,1(t0)
    a27c:	a0850031 	sb	a1,49(a0)
    a280:	8f920038 	lw	s2,56(gp)
    a284:	964c0032 	lhu	t4,50(s2)
    a288:	01915024 	and	t2,t4,s1
    a28c:	01491825 	or	v1,t2,t1
    a290:	a6430032 	sh	v1,50(s2)
    a294:	925f0032 	lbu	ra,50(s2)
    a298:	33e2003f 	andi	v0,ra,0x3f
    a29c:	a2420032 	sb	v0,50(s2)
    a2a0:	9338007c 	lbu	t8,124(t9)
    a2a4:	330f0002 	andi	t7,t8,0x2
    a2a8:	15e00002 	bnez	t7,0xa2b4
    a2ac:	8f840038 	lw	a0,56(gp)
    a2b0:	24070030 	li	a3,48
    a2b4:	3c028008 	lui	v0,0x8008
    a2b8:	ac870034 	sw	a3,52(a0)
    a2bc:	34520100 	ori	s2,v0,0x100
    a2c0:	8e5f00c0 	lw	ra,192(s2)
    a2c4:	240effbf 	li	t6,-65
    a2c8:	02009021 	move	s2,s0
    a2cc:	ac9f0038 	sw	ra,56(a0)
    a2d0:	9098003c 	lbu	t8,60(a0)
    a2d4:	330f007f 	andi	t7,t8,0x7f
    a2d8:	a08f003c 	sb	t7,60(a0)
    a2dc:	8f880038 	lw	t0,56(gp)
    a2e0:	910d003c 	lbu	t5,60(t0)
    a2e4:	01ae5824 	and	t3,t5,t6
    a2e8:	a10b003c 	sb	t3,60(t0)
    a2ec:	8f860038 	lw	a2,56(gp)
    a2f0:	90d1003c 	lbu	s1,60(a2)
    a2f4:	36390020 	ori	t9,s1,0x20
    a2f8:	a0d9003c 	sb	t9,60(a2)
    a2fc:	8f8a009c 	lw	t2,156(gp)
    a300:	8f850038 	lw	a1,56(gp)
    a304:	0010882b 	sltu	s1,zero,s0
    a308:	8d4c0020 	lw	t4,32(t2)
    a30c:	acac0040 	sw	t4,64(a1)
    a310:	8d430024 	lw	v1,36(t2)
    a314:	aca30044 	sw	v1,68(a1)
    a318:	8d490028 	lw	t1,40(t2)
    a31c:	aca90048 	sw	t1,72(a1)
    a320:	8d47002c 	lw	a3,44(t2)
    a324:	aca7004c 	sw	a3,76(a1)
    a328:	0e000ef2 	jal	0x8003bc8
    a32c:	3c108000 	lui	s0,0x8000
    a330:	0a00114c 	j	0x8004530
    a334:	00000000 	nop
    a338:	94cd0052 	lhu	t5,82(a2)
    a33c:	3c0b0800 	lui	t3,0x800
    a340:	8d6b0024 	lw	t3,36(t3)
    a344:	016d8821 	addu	s1,t3,t5
    a348:	a4d10052 	sh	s1,82(a2)
    a34c:	0a0010f7 	j	0x80043dc
    a350:	001e882b 	sltu	s1,zero,s8
    a354:	a0870001 	sb	a3,1(a0)
    a358:	8f840038 	lw	a0,56(gp)
    a35c:	240d0001 	li	t5,1
    a360:	ac8d0008 	sw	t5,8(a0)
    a364:	0a001295 	j	0x8004a54
    a368:	3c188008 	lui	t8,0x8008
    a36c:	00029080 	sll	s2,v0,0x2
    a370:	0a001374 	j	0x8004dd0
    a374:	00d23021 	addu	a2,a2,s2
    a378:	27bdffe0 	addiu	sp,sp,-32
    a37c:	3c0d8008 	lui	t5,0x8008
    a380:	afb20018 	sw	s2,24(sp)
    a384:	afb00010 	sw	s0,16(sp)
    a388:	afbf001c 	sw	ra,28(sp)
    a38c:	afb10014 	sw	s1,20(sp)
    a390:	35b20080 	ori	s2,t5,0x80
    a394:	8e4c0018 	lw	t4,24(s2)
    a398:	35a80100 	ori	t0,t5,0x100
    a39c:	964b0006 	lhu	t3,6(s2)
    a3a0:	95a70050 	lhu	a3,80(t5)
    a3a4:	910900ec 	lbu	t1,236(t0)
    a3a8:	000c5602 	srl	t2,t4,0x18
    a3ac:	01672823 	subu	a1,t3,a3
    a3b0:	3143007f 	andi	v1,t2,0x7f
    a3b4:	312600ff 	andi	a2,t1,0xff
    a3b8:	24020003 	li	v0,3
    a3bc:	a38300a0 	sb	v1,160(gp)
    a3c0:	af840098 	sw	a0,152(gp)
    a3c4:	10c2001b 	beq	a2,v0,0xa434
    a3c8:	30b0ffff 	andi	s0,a1,0xffff
    a3cc:	910600ec 	lbu	a2,236(t0)
    a3d0:	24120005 	li	s2,5
    a3d4:	30c200ff 	andi	v0,a2,0xff
    a3d8:	10520033 	beq	v0,s2,0xa4a8
    a3dc:	00000000 	nop
    a3e0:	16000009 	bnez	s0,0xa408
    a3e4:	8fbf001c 	lw	ra,28(sp)
    a3e8:	8fb20018 	lw	s2,24(sp)
    a3ec:	8fb10014 	lw	s1,20(sp)
    a3f0:	8fb00010 	lw	s0,16(sp)
    a3f4:	240d0c00 	li	t5,3072
    a3f8:	3c0c8000 	lui	t4,0x8000
    a3fc:	27bd0020 	addiu	sp,sp,32
    a400:	03e00008 	jr	ra
    a404:	ad8d0024 	sw	t5,36(t4)
    a408:	0e0010da 	jal	0x8004368
    a40c:	02002021 	move	a0,s0
    a410:	8fbf001c 	lw	ra,28(sp)
    a414:	8fb20018 	lw	s2,24(sp)
    a418:	8fb10014 	lw	s1,20(sp)
    a41c:	8fb00010 	lw	s0,16(sp)
    a420:	240d0c00 	li	t5,3072
    a424:	3c0c8000 	lui	t4,0x8000
    a428:	27bd0020 	addiu	sp,sp,32
    a42c:	03e00008 	jr	ra
    a430:	ad8d0024 	sw	t5,36(t4)
    a434:	96580078 	lhu	t8,120(s2)
    a438:	9651007a 	lhu	s1,122(s2)
    a43c:	924e007d 	lbu	t6,125(s2)
    a440:	02387826 	xor	t7,s1,t8
    a444:	31e8ffff 	andi	t0,t7,0xffff
    a448:	31c400c0 	andi	a0,t6,0xc0
    a44c:	14800009 	bnez	a0,0xa474
    a450:	2d110001 	sltiu	s1,t0,1
    a454:	16000037 	bnez	s0,0xa534
    a458:	00000000 	nop
    a45c:	5620ffe2 	bnezl	s1,0xa3e8
    a460:	8fbf001c 	lw	ra,28(sp)
    a464:	0e000fb0 	jal	0x8003ec0
    a468:	00000000 	nop
    a46c:	0a00143c 	j	0x80050f0
    a470:	8fbf001c 	lw	ra,28(sp)
    a474:	1620ffda 	bnez	s1,0xa3e0
    a478:	00000000 	nop
    a47c:	0e000fb0 	jal	0x8003ec0
    a480:	00000000 	nop
    a484:	1440ffd8 	bnez	v0,0xa3e8
    a488:	8fbf001c 	lw	ra,28(sp)
    a48c:	16000022 	bnez	s0,0xa518
    a490:	00000000 	nop
    a494:	925f007d 	lbu	ra,125(s2)
    a498:	33e2003f 	andi	v0,ra,0x3f
    a49c:	a242007d 	sb	v0,125(s2)
    a4a0:	0a00143c 	j	0x80050f0
    a4a4:	8fbf001c 	lw	ra,28(sp)
    a4a8:	950900da 	lhu	t1,218(t0)
    a4ac:	8f860078 	lw	a2,120(gp)
    a4b0:	00802821 	move	a1,a0
    a4b4:	24040005 	li	a0,5
    a4b8:	0e0006aa 	jal	0x8001aa8
    a4bc:	3130ffff 	andi	s0,t1,0xffff
    a4c0:	9783008a 	lhu	v1,138(gp)
    a4c4:	3c048000 	lui	a0,0x8000
    a4c8:	2465ffff 	addiu	a1,v1,-1
    a4cc:	a785008a 	sh	a1,138(gp)
    a4d0:	8c8a01b8 	lw	t2,440(a0)
    a4d4:	0540fffe 	bltz	t2,0xa4d0
    a4d8:	00000000 	nop
    a4dc:	ac800180 	sw	zero,384(a0)
    a4e0:	8fbf001c 	lw	ra,28(sp)
    a4e4:	ac900184 	sw	s0,388(a0)
    a4e8:	8fb20018 	lw	s2,24(sp)
    a4ec:	8fb10014 	lw	s1,20(sp)
    a4f0:	8fb00010 	lw	s0,16(sp)
    a4f4:	3c076013 	lui	a3,0x6013
    a4f8:	3c0b1000 	lui	t3,0x1000
    a4fc:	240d0c00 	li	t5,3072
    a500:	3c0c8000 	lui	t4,0x8000
    a504:	27bd0020 	addiu	sp,sp,32
    a508:	ac870188 	sw	a3,392(a0)
    a50c:	ac8b01b8 	sw	t3,440(a0)
    a510:	03e00008 	jr	ra
    a514:	ad8d0024 	sw	t5,36(t4)
    a518:	0e0010da 	jal	0x8004368
    a51c:	02002021 	move	a0,s0
    a520:	5040ffb1 	beqzl	v0,0xa3e8
    a524:	8fbf001c 	lw	ra,28(sp)
    a528:	925f007d 	lbu	ra,125(s2)
    a52c:	0a001469 	j	0x80051a4
    a530:	33e2003f 	andi	v0,ra,0x3f
    a534:	0e0010da 	jal	0x8004368
    a538:	02002021 	move	a0,s0
    a53c:	1440ffaa 	bnez	v0,0xa3e8
    a540:	8fbf001c 	lw	ra,28(sp)
    a544:	12200007 	beqz	s1,0xa564
    a548:	00000000 	nop
    a54c:	9259007d 	lbu	t9,125(s2)
    a550:	3330003f 	andi	s0,t9,0x3f
    a554:	36020040 	ori	v0,s0,0x40
    a558:	a242007d 	sb	v0,125(s2)
    a55c:	0a00143c 	j	0x80050f0
    a560:	8fbf001c 	lw	ra,28(sp)
    a564:	0e000fb0 	jal	0x8003ec0
    a568:	00000000 	nop
    a56c:	5040ff9e 	beqzl	v0,0xa3e8
    a570:	8fbf001c 	lw	ra,28(sp)
    a574:	9259007d 	lbu	t9,125(s2)
    a578:	3330003f 	andi	s0,t9,0x3f
    a57c:	0a001498 	j	0x8005260
    a580:	36020040 	ori	v0,s0,0x40
    a584:	00000000 	nop
    a588:	0000001b 	divu	zero,zero,zero
    a58c:	0000000f 	sync
    a590:	0000000a 	.word	0xa
    a594:	00000008 	jr	zero
    a598:	00000006 	srlv	zero,zero,zero
    a59c:	00000005 	.word	0x5
    a5a0:	00000005 	.word	0x5
    a5a4:	00000004 	sllv	zero,zero,zero
    a5a8:	00000004 	sllv	zero,zero,zero
    a5ac:	00000003 	sra	zero,zero,0x0
    a5b0:	00000003 	sra	zero,zero,0x0
    a5b4:	00000003 	sra	zero,zero,0x0
    a5b8:	00000003 	sra	zero,zero,0x0
    a5bc:	00000003 	sra	zero,zero,0x0
    a5c0:	00000002 	srl	zero,zero,0x0
    a5c4:	00000002 	srl	zero,zero,0x0
    a5c8:	00000002 	srl	zero,zero,0x0
    a5cc:	00000002 	srl	zero,zero,0x0
    a5d0:	00000002 	srl	zero,zero,0x0
    a5d4:	00000002 	srl	zero,zero,0x0
    a5d8:	00000002 	srl	zero,zero,0x0
    a5dc:	00000002 	srl	zero,zero,0x0
    a5e0:	00000002 	srl	zero,zero,0x0
    a5e4:	00000002 	srl	zero,zero,0x0
    a5e8:	00000002 	srl	zero,zero,0x0
    a5ec:	00000002 	srl	zero,zero,0x0
    a5f0:	00000002 	srl	zero,zero,0x0
    a5f4:	00000002 	srl	zero,zero,0x0
    a5f8:	00000002 	srl	zero,zero,0x0
    a5fc:	00000001 	.word	0x1
    a600:	00000001 	.word	0x1
    a604:	00000001 	.word	0x1
    a608:	80080100 	lb	t0,256(zero)
    a60c:	80080080 	lb	t0,128(zero)
    a610:	80080000 	lb	t0,0(zero)
    a614:	00000c00 	sll	at,zero,0x10
    a618:	00003080 	sll	a2,zero,0x2
    a61c:	08001020 	j	0x4080
    a620:	080010cc 	j	0x4330
    a624:	080010e4 	j	0x4390
    a628:	080010f8 	j	0x43e0
    a62c:	0800110c 	j	0x4430
    a630:	08001020 	j	0x4080
    a634:	08001020 	j	0x4080
    a638:	08001140 	j	0x4500
    a63c:	08001178 	j	0x45e0
    a640:	08001188 	j	0x4620
    a644:	080011b0 	j	0x46c0
    a648:	080018a0 	j	0x6280
    a64c:	080018a0 	j	0x6280
    a650:	080018d8 	j	0x6360
    a654:	080018d8 	j	0x6360
    a658:	080018ec 	j	0x63b0
    a65c:	080018bc 	j	0x62f0
    a660:	08001b14 	j	0x6c50
    a664:	08001ae0 	j	0x6b80
    a668:	08001b6c 	j	0x6db0
    a66c:	08001b6c 	j	0x6db0
    a670:	08001bf4 	j	0x6fd0
    a674:	08001b24 	j	0x6c90
    a678:	80080240 	lb	t0,576(zero)
    a67c:	08002280 	j	0x8a00
    a680:	080020cc 	j	0x8330
    a684:	080022a8 	j	0x8aa0
    a688:	08002340 	j	0x8d00
    a68c:	08002490 	j	0x9240
    a690:	080024dc 	j	0x9370
    a694:	08002600 	j	0x9800
    a698:	08002508 	j	0x9420
    a69c:	0800258c 	j	0x9630
    a6a0:	0800213c 	j	0x84f0
    a6a4:	08002aa8 	j	0xaaa0
    a6a8:	08002a4c 	j	0xa930
    a6ac:	080020e8 	j	0x83a0
    a6b0:	080020e8 	j	0x83a0
    a6b4:	080020e8 	j	0x83a0
    a6b8:	08002674 	j	0x99d0
    a6bc:	08002674 	j	0x99d0
    a6c0:	080020e8 	j	0x83a0
    a6c4:	080020e8 	j	0x83a0
    a6c8:	08002924 	j	0xa490
    a6cc:	080020e8 	j	0x83a0
    a6d0:	080020e8 	j	0x83a0
    a6d4:	080020e8 	j	0x83a0
    a6d8:	080020e8 	j	0x83a0
    a6dc:	08002984 	j	0xa610
    a6e0:	080020e8 	j	0x83a0
    a6e4:	080020e8 	j	0x83a0
    a6e8:	080020e8 	j	0x83a0
    a6ec:	080020e8 	j	0x83a0
    a6f0:	080020e8 	j	0x83a0
    a6f4:	080020e8 	j	0x83a0
    a6f8:	080020e8 	j	0x83a0
    a6fc:	080020e8 	j	0x83a0
    a700:	080020e8 	j	0x83a0
    a704:	080020e8 	j	0x83a0
    a708:	080020e8 	j	0x83a0
    a70c:	080020e8 	j	0x83a0
    a710:	080020e8 	j	0x83a0
    a714:	080020e8 	j	0x83a0
    a718:	080024fc 	j	0x93f0
    a71c:	080020e8 	j	0x83a0
    a720:	080020e8 	j	0x83a0
    a724:	080029f4 	j	0xa7d0
    a728:	080020e8 	j	0x83a0
    a72c:	080020e8 	j	0x83a0
    a730:	080020e8 	j	0x83a0
    a734:	080020e8 	j	0x83a0
    a738:	080020e8 	j	0x83a0
    a73c:	080020e8 	j	0x83a0
    a740:	080020e8 	j	0x83a0
    a744:	080020e8 	j	0x83a0
    a748:	080020e8 	j	0x83a0
    a74c:	080020e8 	j	0x83a0
    a750:	080020e8 	j	0x83a0
    a754:	080020e8 	j	0x83a0
    a758:	080020e8 	j	0x83a0
    a75c:	080020e8 	j	0x83a0
    a760:	080020e8 	j	0x83a0
    a764:	080020e8 	j	0x83a0
    a768:	080020e8 	j	0x83a0
    a76c:	08002848 	j	0xa120
    a770:	080020e8 	j	0x83a0
    a774:	080020e8 	j	0x83a0
    a778:	080027bc 	j	0x9ef0
    a77c:	08002718 	j	0x9c60
    a780:	08003860 	j	0xe180
    a784:	08003834 	j	0xe0d0
    a788:	08003800 	j	0xe000
    a78c:	080037d4 	j	0xdf50
    a790:	080037b4 	j	0xded0
    a794:	08003768 	j	0xdda0
    a798:	80080100 	lb	t0,256(zero)
    a79c:	80080080 	lb	t0,128(zero)
    a7a0:	80080000 	lb	t0,0(zero)
    a7a4:	80080080 	lb	t0,128(zero)
    a7a8:	080047c8 	j	0x11f20
    a7ac:	08004800 	j	0x12000
    a7b0:	08004748 	j	0x11d20
    a7b4:	080047c8 	j	0x11f20
    a7b8:	080047c8 	j	0x11f20
    a7bc:	08004528 	j	0x114a0
    a7c0:	080047c8 	j	0x11f20
    a7c4:	08004b9c 	j	0x12e70
    a7c8:	0a000c76 	j	0x80031d8
    a7cc:	00000000 	nop
    a7d0:	00000000 	nop
    a7d4:	0000000d 	break
    a7d8:	72787035 	.word	0x72787035
    a7dc:	2e302e30 	sltiu	s0,s1,11824
    a7e0:	6a313500 	ldl	s1,13568(s1)
    a7e4:	05000003 	bltz	t0,0xa7f4
    a7e8:	00000000 	nop
    a7ec:	00000001 	.word	0x1
	...
    d9a4:	10000003 	b	0xd9b4
    d9a8:	00000000 	nop
    d9ac:	0000000d 	break
    d9b0:	0000000d 	break
    d9b4:	3c020801 	lui	v0,0x801
    d9b8:	24428260 	addiu	v0,v0,-32160
    d9bc:	3c030801 	lui	v1,0x801
    d9c0:	24638320 	addiu	v1,v1,-31968
    d9c4:	ac400000 	sw	zero,0(v0)
    d9c8:	0043202b 	sltu	a0,v0,v1
    d9cc:	1480fffd 	bnez	a0,0xd9c4
    d9d0:	24420004 	addiu	v0,v0,4
    d9d4:	3c1d0800 	lui	sp,0x800
    d9d8:	37bd9ffc 	ori	sp,sp,0x9ffc
    d9dc:	03a0f021 	move	s8,sp
    d9e0:	3c100800 	lui	s0,0x800
    d9e4:	261031d8 	addiu	s0,s0,12760
    d9e8:	3c1c0801 	lui	gp,0x801
    d9ec:	279c8260 	addiu	gp,gp,-32160
    d9f0:	0e0011ea 	jal	0x80047a8
    d9f4:	00000000 	nop
    d9f8:	0000000d 	break
    d9fc:	3c028000 	lui	v0,0x8000
    da00:	30a5ffff 	andi	a1,a1,0xffff
    da04:	30c600ff 	andi	a2,a2,0xff
    da08:	34430180 	ori	v1,v0,0x180
    da0c:	3c088000 	lui	t0,0x8000
    da10:	8d0901b8 	lw	t1,440(t0)
    da14:	0520fffe 	bltz	t1,0xda10
    da18:	00000000 	nop
    da1c:	ac640000 	sw	a0,0(v1)
    da20:	24040002 	li	a0,2
    da24:	a4650008 	sh	a1,8(v1)
    da28:	a066000a 	sb	a2,10(v1)
    da2c:	a064000b 	sb	a0,11(v1)
    da30:	ac670018 	sw	a3,24(v1)
    da34:	3c031000 	lui	v1,0x1000
    da38:	03e00008 	jr	ra
    da3c:	ad0301b8 	sw	v1,440(t0)
    da40:	3c056000 	lui	a1,0x6000
    da44:	8ca24ff8 	lw	v0,20472(a1)
    da48:	0440fffe 	bltz	v0,0xda44
    da4c:	00000000 	nop
    da50:	aca44fc0 	sw	a0,20416(a1)
    da54:	3c031000 	lui	v1,0x1000
    da58:	3c040200 	lui	a0,0x200
    da5c:	aca44fc4 	sw	a0,20420(a1)
    da60:	03e00008 	jr	ra
    da64:	aca34ff8 	sw	v1,20472(a1)
    da68:	9486000c 	lhu	a2,12(a0)
    da6c:	00a05021 	move	t2,a1
    da70:	24880014 	addiu	t0,a0,20
    da74:	00062b02 	srl	a1,a2,0xc
    da78:	00051080 	sll	v0,a1,0x2
    da7c:	00444821 	addu	t1,v0,a0
    da80:	0109182b 	sltu	v1,t0,t1
    da84:	10600011 	beqz	v1,0xdacc
    da88:	00000000 	nop
    da8c:	91030000 	lbu	v1,0(t0)
    da90:	2c640009 	sltiu	a0,v1,9
    da94:	50800009 	beqzl	a0,0xdabc
    da98:	91190001 	lbu	t9,1(t0)
    da9c:	00036080 	sll	t4,v1,0x2
    daa0:	3c0d0801 	lui	t5,0x801
    daa4:	25ad8108 	addiu	t5,t5,-32504
    daa8:	018d5821 	addu	t3,t4,t5
    daac:	8d670000 	lw	a3,0(t3)
    dab0:	00e00008 	jr	a3
    dab4:	00000000 	nop
    dab8:	91190001 	lbu	t9,1(t0)
    dabc:	01194021 	addu	t0,t0,t9
    dac0:	0109302b 	sltu	a2,t0,t1
    dac4:	54c0fff2 	bnezl	a2,0xda90
    dac8:	91030000 	lbu	v1,0(t0)
    dacc:	03e00008 	jr	ra
    dad0:	00001021 	move	v0,zero
    dad4:	0a000cbe 	j	0x80032f8
    dad8:	25080001 	addiu	t0,t0,1
    dadc:	910f0001 	lbu	t7,1(t0)
    dae0:	240e000a 	li	t6,10
    dae4:	15ee0040 	bne	t7,t6,0xdbe8
    dae8:	0128c823 	subu	t9,t1,t0
    daec:	2f38000a 	sltiu	t8,t9,10
    daf0:	1700003d 	bnez	t8,0xdbe8
    daf4:	250d0002 	addiu	t5,t0,2
    daf8:	8d580000 	lw	t8,0(t2)
    dafc:	250f0006 	addiu	t7,t0,6
    db00:	370e0100 	ori	t6,t8,0x100
    db04:	ad4e0000 	sw	t6,0(t2)
    db08:	910c0002 	lbu	t4,2(t0)
    db0c:	91ab0001 	lbu	t3,1(t5)
    db10:	91a40002 	lbu	a0,2(t5)
    db14:	91a60003 	lbu	a2,3(t5)
    db18:	000c2e00 	sll	a1,t4,0x18
    db1c:	000b3c00 	sll	a3,t3,0x10
    db20:	00a71025 	or	v0,a1,a3
    db24:	00041a00 	sll	v1,a0,0x8
    db28:	0043c825 	or	t9,v0,v1
    db2c:	0326c025 	or	t8,t9,a2
    db30:	ad580004 	sw	t8,4(t2)
    db34:	910e0006 	lbu	t6,6(t0)
    db38:	91ed0001 	lbu	t5,1(t7)
    db3c:	91e70002 	lbu	a3,2(t7)
    db40:	91e50003 	lbu	a1,3(t7)
    db44:	000e5e00 	sll	t3,t6,0x18
    db48:	000d6400 	sll	t4,t5,0x10
    db4c:	016c3025 	or	a2,t3,t4
    db50:	00072200 	sll	a0,a3,0x8
    db54:	00c41025 	or	v0,a2,a0
    db58:	00451825 	or	v1,v0,a1
    db5c:	2508000a 	addiu	t0,t0,10
    db60:	0a000cbe 	j	0x80032f8
    db64:	ad430008 	sw	v1,8(t2)
    db68:	910f0001 	lbu	t7,1(t0)
    db6c:	25040002 	addiu	a0,t0,2
    db70:	24080002 	li	t0,2
    db74:	55e80001 	bnel	t7,t0,0xdb7c
    db78:	01202021 	move	a0,t1
    db7c:	0a000cbe 	j	0x80032f8
    db80:	00804021 	move	t0,a0
    db84:	910c0001 	lbu	t4,1(t0)
    db88:	240b0003 	li	t3,3
    db8c:	158b0016 	bne	t4,t3,0xdbe8
    db90:	00000000 	nop
    db94:	8d580000 	lw	t8,0(t2)
    db98:	910e0002 	lbu	t6,2(t0)
    db9c:	25080003 	addiu	t0,t0,3
    dba0:	370d0008 	ori	t5,t8,0x8
    dba4:	a14e0010 	sb	t6,16(t2)
    dba8:	0a000cbe 	j	0x80032f8
    dbac:	ad4d0000 	sw	t5,0(t2)
    dbb0:	91190001 	lbu	t9,1(t0)
    dbb4:	240f0004 	li	t7,4
    dbb8:	172f000b 	bne	t9,t7,0xdbe8
    dbbc:	00000000 	nop
    dbc0:	91070002 	lbu	a3,2(t0)
    dbc4:	91040003 	lbu	a0,3(t0)
    dbc8:	8d430000 	lw	v1,0(t2)
    dbcc:	00072a00 	sll	a1,a3,0x8
    dbd0:	00a41025 	or	v0,a1,a0
    dbd4:	34660004 	ori	a2,v1,0x4
    dbd8:	25080004 	addiu	t0,t0,4
    dbdc:	ad42000c 	sw	v0,12(t2)
    dbe0:	0a000cbe 	j	0x80032f8
    dbe4:	ad460000 	sw	a2,0(t2)
    dbe8:	03e00008 	jr	ra
    dbec:	24020001 	li	v0,1
    dbf0:	27bdffe8 	addiu	sp,sp,-24
    dbf4:	afbf0014 	sw	ra,20(sp)
    dbf8:	afb00010 	sw	s0,16(sp)
    dbfc:	0e0014e6 	jal	0x8005398
    dc00:	00808021 	move	s0,a0
    dc04:	3c048008 	lui	a0,0x8008
    dc08:	34850080 	ori	a1,a0,0x80
    dc0c:	90a60005 	lbu	a2,5(a1)
    dc10:	2403fffe 	li	v1,-2
    dc14:	02002021 	move	a0,s0
    dc18:	00c31024 	and	v0,a2,v1
    dc1c:	8fbf0014 	lw	ra,20(sp)
    dc20:	8fb00010 	lw	s0,16(sp)
    dc24:	a0a20005 	sb	v0,5(a1)
    dc28:	0a0014f0 	j	0x80053c0
    dc2c:	27bd0018 	addiu	sp,sp,24
    dc30:	27bdffe8 	addiu	sp,sp,-24
    dc34:	afb00010 	sw	s0,16(sp)
    dc38:	afbf0014 	sw	ra,20(sp)
    dc3c:	0e000f4e 	jal	0x8003d38
    dc40:	00808021 	move	s0,a0
    dc44:	3c068008 	lui	a2,0x8008
    dc48:	34c50080 	ori	a1,a2,0x80
    dc4c:	90a40000 	lbu	a0,0(a1)
    dc50:	24020050 	li	v0,80
    dc54:	308300ff 	andi	v1,a0,0xff
    dc58:	10620007 	beq	v1,v0,0xdc78
    dc5c:	3c098000 	lui	t1,0x8000
    dc60:	02002021 	move	a0,s0
    dc64:	8fbf0014 	lw	ra,20(sp)
    dc68:	8fb00010 	lw	s0,16(sp)
    dc6c:	ad200180 	sw	zero,384(t1)
    dc70:	0a001010 	j	0x8004040
    dc74:	27bd0018 	addiu	sp,sp,24
    dc78:	24080100 	li	t0,256
    dc7c:	3c078000 	lui	a3,0x8000
    dc80:	02002021 	move	a0,s0
    dc84:	8fbf0014 	lw	ra,20(sp)
    dc88:	8fb00010 	lw	s0,16(sp)
    dc8c:	ace80180 	sw	t0,384(a3)
    dc90:	0a001010 	j	0x8004040
    dc94:	27bd0018 	addiu	sp,sp,24
    dc98:	27bdff70 	addiu	sp,sp,-144
    dc9c:	3c088008 	lui	t0,0x8008
    dca0:	afb60080 	sw	s6,128(sp)
    dca4:	afb5007c 	sw	s5,124(sp)
    dca8:	afb1006c 	sw	s1,108(sp)
    dcac:	afbf008c 	sw	ra,140(sp)
    dcb0:	afbe0088 	sw	s8,136(sp)
    dcb4:	afb70084 	sw	s7,132(sp)
    dcb8:	afb40078 	sw	s4,120(sp)
    dcbc:	afb30074 	sw	s3,116(sp)
    dcc0:	afb20070 	sw	s2,112(sp)
    dcc4:	afb00068 	sw	s0,104(sp)
    dcc8:	35050080 	ori	a1,t0,0x80
    dccc:	3c078000 	lui	a3,0x8000
    dcd0:	8cf20128 	lw	s2,296(a3)
    dcd4:	90a40009 	lbu	a0,9(a1)
    dcd8:	ace00084 	sw	zero,132(a3)
    dcdc:	90a60005 	lbu	a2,5(a1)
    dce0:	309100ff 	andi	s1,a0,0xff
    dce4:	0000a821 	move	s5,zero
    dce8:	00061827 	nor	v1,zero,a2
    dcec:	30620001 	andi	v0,v1,0x1
    dcf0:	0000b021 	move	s6,zero
    dcf4:	14400067 	bnez	v0,0xde94
    dcf8:	afa00050 	sw	zero,80(sp)
    dcfc:	90a90000 	lbu	t1,0(a1)
    dd00:	24050020 	li	a1,32
    dd04:	312400ff 	andi	a0,t1,0xff
    dd08:	10850016 	beq	a0,a1,0xdd64
    dd0c:	240a0050 	li	t2,80
    dd10:	108a008c 	beq	a0,t2,0xdf44
    dd14:	00000000 	nop
    dd18:	3c0c0800 	lui	t4,0x800
    dd1c:	8d8c00dc 	lw	t4,220(t4)
    dd20:	258b0001 	addiu	t3,t4,1
    dd24:	3c010800 	lui	at,0x800
    dd28:	ac2b00dc 	sw	t3,220(at)
    dd2c:	0e0015dc 	jal	0x8005770
    dd30:	00000000 	nop
    dd34:	8fbf008c 	lw	ra,140(sp)
    dd38:	8fbe0088 	lw	s8,136(sp)
    dd3c:	8fb70084 	lw	s7,132(sp)
    dd40:	8fb60080 	lw	s6,128(sp)
    dd44:	8fb5007c 	lw	s5,124(sp)
    dd48:	8fb40078 	lw	s4,120(sp)
    dd4c:	8fb30074 	lw	s3,116(sp)
    dd50:	8fb20070 	lw	s2,112(sp)
    dd54:	8fb1006c 	lw	s1,108(sp)
    dd58:	8fb00068 	lw	s0,104(sp)
    dd5c:	03e00008 	jr	ra
    dd60:	27bd0090 	addiu	sp,sp,144
    dd64:	0000000d 	break
    dd68:	3c108000 	lui	s0,0x8000
    dd6c:	afa00030 	sw	zero,48(sp)
    dd70:	961f0116 	lhu	ra,278(s0)
    dd74:	8e190104 	lw	t9,260(s0)
    dd78:	3c1e0020 	lui	s8,0x20
    dd7c:	36130c00 	ori	s3,s0,0xc00
    dd80:	033ec024 	and	t8,t9,s8
    dd84:	0018b82b 	sltu	s7,zero,t8
    dd88:	00173140 	sll	a2,s7,0x5
    dd8c:	afa60030 	sw	a2,48(sp)
    dd90:	8e0e0104 	lw	t6,260(s0)
    dd94:	33f4ffff 	andi	s4,ra,0xffff
    dd98:	3c0f0040 	lui	t7,0x40
    dd9c:	02938021 	addu	s0,s4,s3
    dda0:	01cf6824 	and	t5,t6,t7
    dda4:	9213000d 	lbu	s3,13(s0)
    dda8:	11a00048 	beqz	t5,0xdecc
    ddac:	34c40040 	ori	a0,a2,0x40
    ddb0:	32620020 	andi	v0,s3,0x20
    ddb4:	14400002 	bnez	v0,0xddc0
    ddb8:	34860080 	ori	a2,a0,0x80
    ddbc:	00803021 	move	a2,a0
    ddc0:	14c00093 	bnez	a2,0xe010
    ddc4:	afa60030 	sw	a2,48(sp)
    ddc8:	3c058008 	lui	a1,0x8008
    ddcc:	34a80080 	ori	t0,a1,0x80
    ddd0:	91070008 	lbu	a3,8(t0)
    ddd4:	30e60040 	andi	a2,a3,0x40
    ddd8:	50c00006 	beqzl	a2,0xddf4
    dddc:	3c068008 	lui	a2,0x8008
    dde0:	24090004 	li	t1,4
    dde4:	122900a2 	beq	s1,t1,0xe070
    dde8:	240a0012 	li	t2,18
    ddec:	122a0029 	beq	s1,t2,0xde94
    ddf0:	3c068008 	lui	a2,0x8008
    ddf4:	34d40100 	ori	s4,a2,0x100
    ddf8:	3c178000 	lui	s7,0x8000
    ddfc:	96ef011a 	lhu	t7,282(s7)
    de00:	960d000e 	lhu	t5,14(s0)
    de04:	928e0008 	lbu	t6,8(s4)
    de08:	326b0004 	andi	t3,s3,0x4
    de0c:	31f7ffff 	andi	s7,t7,0xffff
    de10:	01cd6004 	sllv	t4,t5,t6
    de14:	afac0054 	sw	t4,84(sp)
    de18:	8e140004 	lw	s4,4(s0)
    de1c:	11600031 	beqz	t3,0xdee4
    de20:	8e1e0008 	lw	s8,8(s0)
    de24:	34c30080 	ori	v1,a2,0x80
    de28:	90790008 	lbu	t9,8(v1)
    de2c:	33380040 	andi	t8,t9,0x40
    de30:	17000028 	bnez	t8,0xded4
    de34:	00000000 	nop
    de38:	8c730050 	lw	s3,80(v1)
    de3c:	02939023 	subu	s2,s4,s3
    de40:	06400006 	bltz	s2,0xde5c
    de44:	3c0c8000 	lui	t4,0x8000
    de48:	8c7e0034 	lw	s8,52(v1)
    de4c:	029e8023 	subu	s0,s4,s8
    de50:	06020083 	bltzl	s0,0xe060
    de54:	8ea20008 	lw	v0,8(s5)
    de58:	3c0c8000 	lui	t4,0x8000
    de5c:	ad800044 	sw	zero,68(t4)
    de60:	24020001 	li	v0,1
    de64:	8fbf008c 	lw	ra,140(sp)
    de68:	8fbe0088 	lw	s8,136(sp)
    de6c:	8fb70084 	lw	s7,132(sp)
    de70:	8fb60080 	lw	s6,128(sp)
    de74:	8fb5007c 	lw	s5,124(sp)
    de78:	8fb40078 	lw	s4,120(sp)
    de7c:	8fb30074 	lw	s3,116(sp)
    de80:	8fb20070 	lw	s2,112(sp)
    de84:	8fb1006c 	lw	s1,108(sp)
    de88:	8fb00068 	lw	s0,104(sp)
    de8c:	03e00008 	jr	ra
    de90:	27bd0090 	addiu	sp,sp,144
    de94:	0e000d1a 	jal	0x8003468
    de98:	00002021 	move	a0,zero
    de9c:	8fbf008c 	lw	ra,140(sp)
    dea0:	8fbe0088 	lw	s8,136(sp)
    dea4:	8fb70084 	lw	s7,132(sp)
    dea8:	8fb60080 	lw	s6,128(sp)
    deac:	8fb5007c 	lw	s5,124(sp)
    deb0:	8fb40078 	lw	s4,120(sp)
    deb4:	8fb30074 	lw	s3,116(sp)
    deb8:	8fb20070 	lw	s2,112(sp)
    debc:	8fb1006c 	lw	s1,108(sp)
    dec0:	8fb00068 	lw	s0,104(sp)
    dec4:	03e00008 	jr	ra
    dec8:	27bd0090 	addiu	sp,sp,144
    decc:	0a000d7a 	j	0x80035e8
    ded0:	00c02021 	move	a0,a2
    ded4:	0e00163d 	jal	0x80058f4
    ded8:	02802021 	move	a0,s4
    dedc:	1440ffdf 	bnez	v0,0xde5c
    dee0:	3c0c8000 	lui	t4,0x8000
    dee4:	3c038008 	lui	v1,0x8008
    dee8:	34630080 	ori	v1,v1,0x80
    deec:	8c620034 	lw	v0,52(v1)
    def0:	0282f823 	subu	ra,s4,v0
    def4:	07e00017 	bltz	ra,0xdf54
    def8:	00000000 	nop
    defc:	3c150800 	lui	s5,0x800
    df00:	8eb53100 	lw	s5,12544(s5)
    df04:	26b10001 	addiu	s1,s5,1
    df08:	3c010800 	lui	at,0x800
    df0c:	ac313100 	sw	s1,12544(at)
    df10:	0e0014e6 	jal	0x8005398
    df14:	02402021 	move	a0,s2
    df18:	3c0b8008 	lui	t3,0x8008
    df1c:	35700080 	ori	s0,t3,0x80
    df20:	920a0025 	lbu	t2,37(s0)
    df24:	02402021 	move	a0,s2
    df28:	35420004 	ori	v0,t2,0x4
    df2c:	0e0014f0 	jal	0x80053c0
    df30:	a2020025 	sb	v0,37(s0)
    df34:	0e000c9e 	jal	0x8003278
    df38:	02402021 	move	a0,s2
    df3c:	0a000da7 	j	0x800369c
    df40:	24020001 	li	v0,1
    df44:	3c150801 	lui	s5,0x801
    df48:	26b58310 	addiu	s5,s5,-31984
    df4c:	0a000d69 	j	0x80035a4
    df50:	3c108000 	lui	s0,0x8000
    df54:	8c660030 	lw	a2,48(v1)
    df58:	02862023 	subu	a0,s4,a2
    df5c:	18800008 	blez	a0,0xdf80
    df60:	2409000c 	li	t1,12
    df64:	3c080800 	lui	t0,0x800
    df68:	8d083100 	lw	t0,12544(t0)
    df6c:	327300fc 	andi	s3,s3,0xfc
    df70:	0000b821 	move	s7,zero
    df74:	25070001 	addiu	a3,t0,1
    df78:	3c010800 	lui	at,0x800
    df7c:	ac273100 	sw	a3,12544(at)
    df80:	afa90030 	sw	t1,48(sp)
    df84:	8c650030 	lw	a1,48(v1)
    df88:	00b43823 	subu	a3,a1,s4
    df8c:	18e000db 	blez	a3,0xe2fc
    df90:	02e7502a 	slt	t2,s7,a3
    df94:	1540ffde 	bnez	t2,0xdf10
    df98:	00000000 	nop
    df9c:	12e7002a 	beq	s7,a3,0xe048
    dfa0:	02e76823 	subu	t5,s7,a3
    dfa4:	0287a021 	addu	s4,s4,a3
    dfa8:	31b7ffff 	andi	s7,t5,0xffff
    dfac:	326e0002 	andi	t6,s3,0x2
    dfb0:	11c00034 	beqz	t6,0xe084
    dfb4:	327f0010 	andi	ra,s3,0x10
    dfb8:	3c148008 	lui	s4,0x8008
    dfbc:	36900080 	ori	s0,s4,0x80
    dfc0:	920f0008 	lbu	t7,8(s0)
    dfc4:	31f60040 	andi	s6,t7,0x40
    dfc8:	52c000ce 	beqzl	s6,0xe304
    dfcc:	8ea20008 	lw	v0,8(s5)
    dfd0:	02402021 	move	a0,s2
    dfd4:	0e0014e6 	jal	0x8005398
    dfd8:	24130018 	li	s3,24
    dfdc:	a2130009 	sb	s3,9(s0)
    dfe0:	92180005 	lbu	t8,5(s0)
    dfe4:	2419fffe 	li	t9,-2
    dfe8:	02402021 	move	a0,s2
    dfec:	0319b824 	and	s7,t8,t9
    dff0:	0e0014f0 	jal	0x80053c0
    dff4:	a2170005 	sb	s7,5(s0)
    dff8:	24040039 	li	a0,57
    dffc:	00002821 	move	a1,zero
    e000:	0e001618 	jal	0x8005860
    e004:	24060018 	li	a2,24
    e008:	0a000da7 	j	0x800369c
    e00c:	24020001 	li	v0,1
    e010:	92b6000c 	lbu	s6,12(s5)
    e014:	3c048008 	lui	a0,0x8008
    e018:	34830080 	ori	v1,a0,0x80
    e01c:	8c670038 	lw	a3,56(v1)
    e020:	0016ab00 	sll	s5,s6,0xc
    e024:	36b10081 	ori	s1,s5,0x81
    e028:	02402021 	move	a0,s2
    e02c:	3225f081 	andi	a1,s1,0xf081
    e030:	0e000c8d 	jal	0x8003234
    e034:	30c600ff 	andi	a2,a2,0xff
    e038:	3c0c8000 	lui	t4,0x8000
    e03c:	ad800044 	sw	zero,68(t4)
    e040:	0a000da7 	j	0x800369c
    e044:	24020001 	li	v0,1
    e048:	3a6c0001 	xori	t4,s3,0x1
    e04c:	318b0001 	andi	t3,t4,0x1
    e050:	1560ffaf 	bnez	t3,0xdf10
    e054:	0287a021 	addu	s4,s4,a3
    e058:	0a000df8 	j	0x80037e0
    e05c:	00000000 	nop
    e060:	0040f809 	jalr	v0
    e064:	24040016 	li	a0,22
    e068:	0a000da7 	j	0x800369c
    e06c:	24020001 	li	v0,1
    e070:	02402021 	move	a0,s2
    e074:	0e00171d 	jal	0x8005c74
    e078:	02002821 	move	a1,s0
    e07c:	0a000d5c 	j	0x8003570
    e080:	8fbf008c 	lw	ra,140(sp)
    e084:	13e0ff74 	beqz	ra,0xde58
    e088:	3c038008 	lui	v1,0x8008
    e08c:	34680080 	ori	t0,v1,0x80
    e090:	8d040038 	lw	a0,56(t0)
    e094:	8c660004 	lw	a2,4(v1)
    e098:	03c61023 	subu	v0,s8,a2
    e09c:	1c40ff6f 	bgtz	v0,0xde5c
    e0a0:	3c0c8000 	lui	t4,0x8000
    e0a4:	03c42823 	subu	a1,s8,a0
    e0a8:	04a20001 	bltzl	a1,0xe0b0
    e0ac:	0080f021 	move	s8,a0
    e0b0:	afb40010 	sw	s4,16(sp)
    e0b4:	afb70014 	sw	s7,20(sp)
    e0b8:	afa70018 	sw	a3,24(sp)
    e0bc:	3c1f8000 	lui	ra,0x8000
    e0c0:	97e30120 	lhu	v1,288(ra)
    e0c4:	8d090030 	lw	t1,48(t0)
    e0c8:	9506005c 	lhu	a2,92(t0)
    e0cc:	8fb90054 	lw	t9,84(sp)
    e0d0:	8fac0030 	lw	t4,48(sp)
    e0d4:	3062ffff 	andi	v0,v1,0xffff
    e0d8:	30d8ffff 	andi	t8,a2,0xffff
    e0dc:	00477021 	addu	t6,v0,a3
    e0e0:	37ef4000 	ori	t7,ra,0x4000
    e0e4:	0338682b 	sltu	t5,t9,t8
    e0e8:	01cf5821 	addu	t3,t6,t7
    e0ec:	018d5025 	or	t2,t4,t5
    e0f0:	afab0020 	sw	t3,32(sp)
    e0f4:	afa90028 	sw	t1,40(sp)
    e0f8:	afaa0030 	sw	t2,48(sp)
    e0fc:	afa90024 	sw	t1,36(sp)
    e100:	afa0002c 	sw	zero,44(sp)
    e104:	afbe0034 	sw	s8,52(sp)
    e108:	91070008 	lbu	a3,8(t0)
    e10c:	30e40008 	andi	a0,a3,0x8
    e110:	1480008f 	bnez	a0,0xe350
    e114:	02002021 	move	a0,s0
    e118:	8ea20004 	lw	v0,4(s5)
    e11c:	0040f809 	jalr	v0
    e120:	27a40010 	addiu	a0,sp,16
    e124:	8fa90030 	lw	t1,48(sp)
    e128:	31280002 	andi	t0,t1,0x2
    e12c:	55000001 	bnezl	t0,0xe134
    e130:	327300fe 	andi	s3,s3,0xfe
    e134:	3c048008 	lui	a0,0x8008
    e138:	348c0080 	ori	t4,a0,0x80
    e13c:	918b0008 	lbu	t3,8(t4)
    e140:	316a0040 	andi	t2,t3,0x40
    e144:	51400012 	beqzl	t2,0xe190
    e148:	8fa40024 	lw	a0,36(sp)
    e14c:	8c8d0004 	lw	t5,4(a0)
    e150:	11be00be 	beq	t5,s8,0xe44c
    e154:	240e0014 	li	t6,20
    e158:	32650001 	andi	a1,s3,0x1
    e15c:	10a0000c 	beqz	a1,0xe190
    e160:	8fa40024 	lw	a0,36(sp)
    e164:	2404000c 	li	a0,12
    e168:	122400d4 	beq	s1,a0,0xe4bc
    e16c:	2a27000d 	slti	a3,s1,13
    e170:	10e000ce 	beqz	a3,0xe4ac
    e174:	2409000e 	li	t1,14
    e178:	2408000a 	li	t0,10
    e17c:	52280001 	beql	s1,t0,0xe184
    e180:	24160008 	li	s6,8
    e184:	8fa20024 	lw	v0,36(sp)
    e188:	24440001 	addiu	a0,v0,1
    e18c:	afa40024 	sw	a0,36(sp)
    e190:	8fa60014 	lw	a2,20(sp)
    e194:	3c038008 	lui	v1,0x8008
    e198:	34650080 	ori	a1,v1,0x80
    e19c:	0086f821 	addu	ra,a0,a2
    e1a0:	8cb10030 	lw	s1,48(a1)
    e1a4:	acbf0030 	sw	ra,48(a1)
    e1a8:	90b9004e 	lbu	t9,78(a1)
    e1ac:	8cae0030 	lw	t6,48(a1)
    e1b0:	3418ffff 	li	t8,0xffff
    e1b4:	03387804 	sllv	t7,t8,t9
    e1b8:	01cf6821 	addu	t5,t6,t7
    e1bc:	acad0034 	sw	t5,52(a1)
    e1c0:	8fa60030 	lw	a2,48(sp)
    e1c4:	8fac0054 	lw	t4,84(sp)
    e1c8:	30ca0008 	andi	t2,a2,0x8
    e1cc:	03cc5821 	addu	t3,s8,t4
    e1d0:	1140000c 	beqz	t2,0xe204
    e1d4:	afab0058 	sw	t3,88(sp)
    e1d8:	8ca40020 	lw	a0,32(a1)
    e1dc:	8fb00058 	lw	s0,88(sp)
    e1e0:	10900094 	beq	a0,s0,0xe434
    e1e4:	30c600ff 	andi	a2,a2,0xff
    e1e8:	92a2000c 	lbu	v0,12(s5)
    e1ec:	8fa70034 	lw	a3,52(sp)
    e1f0:	02402021 	move	a0,s2
    e1f4:	00024b00 	sll	t1,v0,0xc
    e1f8:	35280080 	ori	t0,t1,0x80
    e1fc:	0e000c8d 	jal	0x8003234
    e200:	3105f080 	andi	a1,t0,0xf080
    e204:	3c0c8008 	lui	t4,0x8008
    e208:	35900080 	ori	s0,t4,0x80
    e20c:	8e0b0030 	lw	t3,48(s0)
    e210:	01715023 	subu	t2,t3,s1
    e214:	19400070 	blez	t2,0xe3d8
    e218:	26590080 	addiu	t9,s2,128
    e21c:	3c180800 	lui	t8,0x800
    e220:	8f183198 	lw	t8,12696(t8)
    e224:	241fff80 	li	ra,-128
    e228:	033f7824 	and	t7,t9,ra
    e22c:	332d007f 	andi	t5,t9,0x7f
    e230:	3c068000 	lui	a2,0x8000
    e234:	3c0e8004 	lui	t6,0x8004
    e238:	33110010 	andi	s1,t8,0x10
    e23c:	accf0090 	sw	t7,144(a2)
    e240:	12200034 	beqz	s1,0xe314
    e244:	01ae2821 	addu	a1,t5,t6
    e248:	90a3006b 	lbu	v1,107(a1)
    e24c:	54600032 	bnezl	v1,0xe318
    e250:	3c108008 	lui	s0,0x8008
    e254:	24070001 	li	a3,1
    e258:	a0a7006b 	sb	a3,107(a1)
    e25c:	94c4007a 	lhu	a0,122(a2)
    e260:	2486000a 	addiu	a2,a0,10
    e264:	a6060012 	sh	a2,18(s0)
    e268:	3c0d8008 	lui	t5,0x8008
    e26c:	35a50080 	ori	a1,t5,0x80
    e270:	90b10008 	lbu	s1,8(a1)
    e274:	322c0040 	andi	t4,s1,0x40
    e278:	15800004 	bnez	t4,0xe28c
    e27c:	3c038008 	lui	v1,0x8008
    e280:	326e0001 	andi	t6,s3,0x1
    e284:	15c00062 	bnez	t6,0xe410
    e288:	00000000 	nop
    e28c:	34640080 	ori	a0,v1,0x80
    e290:	8c8f0020 	lw	t7,32(a0)
    e294:	8fb30058 	lw	s3,88(sp)
    e298:	11f3000a 	beq	t7,s3,0xe2c4
    e29c:	34630100 	ori	v1,v1,0x100
    e2a0:	8c790000 	lw	t9,0(v1)
    e2a4:	0299c023 	subu	t8,s4,t9
    e2a8:	1b000077 	blez	t8,0xe488
    e2ac:	8fa80058 	lw	t0,88(sp)
    e2b0:	ac880020 	sw	t0,32(a0)
    e2b4:	ac740000 	sw	s4,0(v1)
    e2b8:	24140001 	li	s4,1
    e2bc:	ac7e0004 	sw	s8,4(v1)
    e2c0:	afb40050 	sw	s4,80(sp)
    e2c4:	16c00037 	bnez	s6,0xe3a4
    e2c8:	00000000 	nop
    e2cc:	8fa40050 	lw	a0,80(sp)
    e2d0:	14800030 	bnez	a0,0xe394
    e2d4:	00000000 	nop
    e2d8:	12e00005 	beqz	s7,0xe2f0
    e2dc:	00001821 	move	v1,zero
    e2e0:	8fa90030 	lw	t1,48(sp)
    e2e4:	31370004 	andi	s7,t1,0x4
    e2e8:	52e0fe92 	beqzl	s7,0xdd34
    e2ec:	00601021 	move	v0,v1
    e2f0:	24030001 	li	v1,1
    e2f4:	0a000d5b 	j	0x800356c
    e2f8:	00601021 	move	v0,v1
    e2fc:	0a000df9 	j	0x80037e4
    e300:	00003821 	move	a3,zero
    e304:	0040f809 	jalr	v0
    e308:	24040017 	li	a0,23
    e30c:	0a000da7 	j	0x800369c
    e310:	24020001 	li	v0,1
    e314:	3c108008 	lui	s0,0x8008
    e318:	36100080 	ori	s0,s0,0x80
    e31c:	24090001 	li	t1,1
    e320:	02402021 	move	a0,s2
    e324:	0e0014e6 	jal	0x8005398
    e328:	a6090012 	sh	t1,18(s0)
    e32c:	92080025 	lbu	t0,37(s0)
    e330:	24050001 	li	a1,1
    e334:	afa50050 	sw	a1,80(sp)
    e338:	35020001 	ori	v0,t0,0x1
    e33c:	02402021 	move	a0,s2
    e340:	0e0014f0 	jal	0x80053c0
    e344:	a2020025 	sb	v0,37(s0)
    e348:	0a000ea9 	j	0x8003aa4
    e34c:	3c0d8008 	lui	t5,0x8008
    e350:	27a50038 	addiu	a1,sp,56
    e354:	afa80060 	sw	t0,96(sp)
    e358:	0e000ca8 	jal	0x80032a0
    e35c:	afa00038 	sw	zero,56(sp)
    e360:	1440ff6d 	bnez	v0,0xe118
    e364:	8fa80060 	lw	t0,96(sp)
    e368:	8fa50038 	lw	a1,56(sp)
    e36c:	30b00100 	andi	s0,a1,0x100
    e370:	5200ff6a 	beqzl	s0,0xe11c
    e374:	8ea20004 	lw	v0,4(s5)
    e378:	8fa3003c 	lw	v1,60(sp)
    e37c:	8d070058 	lw	a3,88(t0)
    e380:	00672023 	subu	a0,v1,a3
    e384:	0483ff64 	bgezl	a0,0xe118
    e388:	ad030058 	sw	v1,88(t0)
    e38c:	0a000e55 	j	0x8003954
    e390:	8ea20004 	lw	v0,4(s5)
    e394:	0e000c9e 	jal	0x8003278
    e398:	02402021 	move	a0,s2
    e39c:	0a000ec4 	j	0x8003b10
    e3a0:	00000000 	nop
    e3a4:	0e0014e6 	jal	0x8005398
    e3a8:	02402021 	move	a0,s2
    e3ac:	3c058008 	lui	a1,0x8008
    e3b0:	34a30080 	ori	v1,a1,0x80
    e3b4:	02402021 	move	a0,s2
    e3b8:	0e0014f0 	jal	0x80053c0
    e3bc:	a0760009 	sb	s6,9(v1)
    e3c0:	02c03021 	move	a2,s6
    e3c4:	24040037 	li	a0,55
    e3c8:	0e001618 	jal	0x8005860
    e3cc:	00002821 	move	a1,zero
    e3d0:	0a000ec2 	j	0x8003b08
    e3d4:	8fa40050 	lw	a0,80(sp)
    e3d8:	8fa20018 	lw	v0,24(sp)
    e3dc:	5840ffa3 	blezl	v0,0xe26c
    e3e0:	3c0d8008 	lui	t5,0x8008
    e3e4:	0e0014e6 	jal	0x8005398
    e3e8:	02402021 	move	a0,s2
    e3ec:	920a0025 	lbu	t2,37(s0)
    e3f0:	240b0001 	li	t3,1
    e3f4:	afab0050 	sw	t3,80(sp)
    e3f8:	35420004 	ori	v0,t2,0x4
    e3fc:	02402021 	move	a0,s2
    e400:	0e0014f0 	jal	0x80053c0
    e404:	a2020025 	sb	v0,37(s0)
    e408:	0a000ea9 	j	0x8003aa4
    e40c:	3c0d8008 	lui	t5,0x8008
    e410:	8cb60030 	lw	s6,48(a1)
    e414:	8ebe0008 	lw	s8,8(s5)
    e418:	24040018 	li	a0,24
    e41c:	26d50001 	addiu	s5,s6,1
    e420:	03c0f809 	jalr	s8
    e424:	acb50030 	sw	s5,48(a1)
    e428:	8fb20030 	lw	s2,48(sp)
    e42c:	0a000d5b 	j	0x800356c
    e430:	32420004 	andi	v0,s2,0x4
    e434:	3c078000 	lui	a3,0x8000
    e438:	94e5011a 	lhu	a1,282(a3)
    e43c:	50a0ff6a 	beqzl	a1,0xe1e8
    e440:	34c60010 	ori	a2,a2,0x10
    e444:	0a000e89 	j	0x8003a24
    e448:	92a2000c 	lbu	v0,12(s5)
    e44c:	122e002a 	beq	s1,t6,0xe4f8
    e450:	2a2f0015 	slti	t7,s1,21
    e454:	11e0001e 	beqz	t7,0xe4d0
    e458:	24190016 	li	t9,22
    e45c:	2418000c 	li	t8,12
    e460:	5638ff3e 	bnel	s1,t8,0xe15c
    e464:	32650001 	andi	a1,s3,0x1
    e468:	3c1f8008 	lui	ra,0x8008
    e46c:	93e3001b 	lbu	v1,27(ra)
    e470:	2410ffbd 	li	s0,-67
    e474:	2416000e 	li	s6,14
    e478:	00703024 	and	a2,v1,s0
    e47c:	a3e6001b 	sb	a2,27(ra)
    e480:	0a000e65 	j	0x8003994
    e484:	32650001 	andi	a1,s3,0x1
    e488:	8c7f0000 	lw	ra,0(v1)
    e48c:	17f4ff8d 	bne	ra,s4,0xe2c4
    e490:	00000000 	nop
    e494:	8c670004 	lw	a3,4(v1)
    e498:	03c73023 	subu	a2,s8,a3
    e49c:	04c1ff84 	bgez	a2,0xe2b0
    e4a0:	8fa80058 	lw	t0,88(sp)
    e4a4:	0a000ebf 	j	0x8003afc
    e4a8:	00000000 	nop
    e4ac:	1629ff36 	bne	s1,t1,0xe188
    e4b0:	8fa20024 	lw	v0,36(sp)
    e4b4:	0a000e70 	j	0x80039c0
    e4b8:	24160010 	li	s6,16
    e4bc:	2411000e 	li	s1,14
    e4c0:	52d1ff30 	beql	s6,s1,0xe184
    e4c4:	24160010 	li	s6,16
    e4c8:	0a000e6f 	j	0x80039bc
    e4cc:	24160016 	li	s6,22
    e4d0:	5639ff22 	bnel	s1,t9,0xe15c
    e4d4:	32650001 	andi	a1,s3,0x1
    e4d8:	3c1f8008 	lui	ra,0x8008
    e4dc:	93e3001b 	lbu	v1,27(ra)
    e4e0:	2410ffbd 	li	s0,-67
    e4e4:	24160010 	li	s6,16
    e4e8:	00703024 	and	a2,v1,s0
    e4ec:	a3e6001b 	sb	a2,27(ra)
    e4f0:	0a000e65 	j	0x8003994
    e4f4:	32650001 	andi	a1,s3,0x1
    e4f8:	0a000e64 	j	0x8003990
    e4fc:	24160012 	li	s6,18
    e500:	3c038000 	lui	v1,0x8000
    e504:	8c6201b8 	lw	v0,440(v1)
    e508:	0440fffe 	bltz	v0,0xe504
    e50c:	24040800 	li	a0,2048
    e510:	ac6401b8 	sw	a0,440(v1)
    e514:	03e00008 	jr	ra
    e518:	00000000 	nop
    e51c:	30a5ffff 	andi	a1,a1,0xffff
    e520:	30c6ffff 	andi	a2,a2,0xffff
    e524:	3c078000 	lui	a3,0x8000
    e528:	8ce201b8 	lw	v0,440(a3)
    e52c:	0440fffe 	bltz	v0,0xe528
    e530:	34e80180 	ori	t0,a3,0x180
    e534:	ad040000 	sw	a0,0(t0)
    e538:	ace40020 	sw	a0,32(a3)
    e53c:	3c048008 	lui	a0,0x8008
    e540:	94830048 	lhu	v1,72(a0)
    e544:	3063ffff 	andi	v1,v1,0xffff
    e548:	1060001d 	beqz	v1,0xe5c0
    e54c:	3c0b8000 	lui	t3,0x8000
    e550:	24aa0012 	addiu	t2,a1,18
    e554:	006a482b 	sltu	t1,v1,t2
    e558:	5120001a 	beqzl	t1,0xe5c4
    e55c:	240a0003 	li	t2,3
    e560:	94f90120 	lhu	t9,288(a3)
    e564:	8f890000 	lw	t1,0(gp)
    e568:	240c001a 	li	t4,26
    e56c:	3338ffff 	andi	t8,t9,0xffff
    e570:	2707fffe 	addiu	a3,t8,-2
    e574:	0067782b 	sltu	t7,v1,a3
    e578:	39ee0001 	xori	t6,t7,0x1
    e57c:	00096b82 	srl	t5,t1,0xe
    e580:	01ae5824 	and	t3,t5,t6
    e584:	a10c000b 	sb	t4,11(t0)
    e588:	11600047 	beqz	t3,0xe6a8
    e58c:	8f830004 	lw	v1,4(gp)
    e590:	a5070014 	sh	a3,20(t0)
    e594:	8f880004 	lw	t0,4(gp)
    e598:	35070001 	ori	a3,t0,0x1
    e59c:	af870004 	sw	a3,4(gp)
    e5a0:	30cc0040 	andi	t4,a2,0x40
    e5a4:	5580000f 	bnezl	t4,0xe5e4
    e5a8:	3c088000 	lui	t0,0x8000
    e5ac:	3c0c8000 	lui	t4,0x8000
    e5b0:	35840180 	ori	a0,t4,0x180
    e5b4:	a485000e 	sh	a1,14(a0)
    e5b8:	0a000f98 	j	0x8003e60
    e5bc:	8f8f000c 	lw	t7,12(gp)
    e5c0:	240a0003 	li	t2,3
    e5c4:	35640180 	ori	a0,t3,0x180
    e5c8:	30cc0040 	andi	t4,a2,0x40
    e5cc:	8f890000 	lw	t1,0(gp)
    e5d0:	8f870004 	lw	a3,4(gp)
    e5d4:	a08a000b 	sb	t2,11(a0)
    e5d8:	5180fff5 	beqzl	t4,0xe5b0
    e5dc:	3c0c8000 	lui	t4,0x8000
    e5e0:	3c088000 	lui	t0,0x8000
    e5e4:	95030120 	lhu	v1,288(t0)
    e5e8:	3c088008 	lui	t0,0x8008
    e5ec:	95180040 	lhu	t8,64(t0)
    e5f0:	3079ffff 	andi	t9,v1,0xffff
    e5f4:	272efffe 	addiu	t6,t9,-2
    e5f8:	330fffff 	andi	t7,t8,0xffff
    e5fc:	01cf682b 	sltu	t5,t6,t7
    e600:	11a00003 	beqz	t5,0xe610
    e604:	01c02021 	move	a0,t6
    e608:	95020040 	lhu	v0,64(t0)
    e60c:	3044ffff 	andi	a0,v0,0xffff
    e610:	3c0b8000 	lui	t3,0x8000
    e614:	00a45023 	subu	t2,a1,a0
    e618:	35650180 	ori	a1,t3,0x180
    e61c:	a4a4000e 	sh	a0,14(a1)
    e620:	a4aa0024 	sh	t2,36(a1)
    e624:	8f8f000c 	lw	t7,12(gp)
    e628:	3c058000 	lui	a1,0x8000
    e62c:	34ae0180 	ori	t6,a1,0x180
    e630:	24180002 	li	t8,2
    e634:	30ed8000 	andi	t5,a3,0x8000
    e638:	a5d8000c 	sh	t8,12(t6)
    e63c:	a5c90010 	sh	t1,16(t6)
    e640:	adcf0028 	sw	t7,40(t6)
    e644:	a5c60008 	sh	a2,8(t6)
    e648:	11a0000e 	beqz	t5,0xe684
    e64c:	3c048000 	lui	a0,0x8000
    e650:	94aa0116 	lhu	t2,278(a1)
    e654:	3142fffc 	andi	v0,t2,0xfffc
    e658:	24480004 	addiu	t0,v0,4
    e65c:	01051821 	addu	v1,t0,a1
    e660:	8c794000 	lw	t9,16384(v1)
    e664:	3326ffff 	andi	a2,t9,0xffff
    e668:	14c00007 	bnez	a2,0xe688
    e66c:	240ebfff 	li	t6,-16385
    e670:	3c0bffff 	lui	t3,0xffff
    e674:	35657fff 	ori	a1,t3,0x7fff
    e678:	00e53824 	and	a3,a3,a1
    e67c:	af870004 	sw	a3,4(gp)
    e680:	3c048000 	lui	a0,0x8000
    e684:	240ebfff 	li	t6,-16385
    e688:	348c0180 	ori	t4,a0,0x180
    e68c:	00ee6824 	and	t5,a3,t6
    e690:	a58d0026 	sh	t5,38(t4)
    e694:	ad89002c 	sw	t1,44(t4)
    e698:	3c071000 	lui	a3,0x1000
    e69c:	ac8701b8 	sw	a3,440(a0)
    e6a0:	03e00008 	jr	ra
    e6a4:	00000000 	nop
    e6a8:	2402fffe 	li	v0,-2
    e6ac:	00623824 	and	a3,v1,v0
    e6b0:	0a000f76 	j	0x8003dd8
    e6b4:	af870004 	sw	a3,4(gp)
    e6b8:	3c058000 	lui	a1,0x8000
    e6bc:	34a40070 	ori	a0,a1,0x70
    e6c0:	8c8a0000 	lw	t2,0(a0)
    e6c4:	90a60112 	lbu	a2,274(a1)
    e6c8:	8f840000 	lw	a0,0(gp)
    e6cc:	27bdfff0 	addiu	sp,sp,-16
    e6d0:	30c300ff 	andi	v1,a2,0xff
    e6d4:	00031882 	srl	v1,v1,0x2
    e6d8:	30820100 	andi	v0,a0,0x100
    e6dc:	00003821 	move	a3,zero
    e6e0:	10400039 	beqz	v0,0xe7c8
    e6e4:	24660003 	addiu	a2,v1,3
    e6e8:	30874000 	andi	a3,a0,0x4000
    e6ec:	50e00039 	beqzl	a3,0xe7d4
    e6f0:	30882000 	andi	t0,a0,0x2000
    e6f4:	00061080 	sll	v0,a2,0x2
    e6f8:	0045c821 	addu	t9,v0,a1
    e6fc:	8f2f4000 	lw	t7,16384(t9)
    e700:	24780004 	addiu	t8,v1,4
    e704:	00187080 	sll	t6,t8,0x2
    e708:	afaf0000 	sw	t7,0(sp)
    e70c:	01c56821 	addu	t5,t6,a1
    e710:	8dac4000 	lw	t4,16384(t5)
    e714:	afac0004 	sw	t4,4(sp)
    e718:	94ab0116 	lhu	t3,278(a1)
    e71c:	3169fffc 	andi	t1,t3,0xfffc
    e720:	01254021 	addu	t0,t1,a1
    e724:	8d054000 	lw	a1,16384(t0)
    e728:	afa50008 	sw	a1,8(sp)
    e72c:	8fa90008 	lw	t1,8(sp)
    e730:	00003021 	move	a2,zero
    e734:	00002821 	move	a1,zero
    e738:	3c070800 	lui	a3,0x800
    e73c:	24e70100 	addiu	a3,a3,256
    e740:	0a000fe9 	j	0x8003fa4
    e744:	24080008 	li	t0,8
    e748:	90420000 	lbu	v0,0(v0)
    e74c:	24a50001 	addiu	a1,a1,1
    e750:	2cad000c 	sltiu	t5,a1,12
    e754:	0062c821 	addu	t9,v1,v0
    e758:	0019c080 	sll	t8,t9,0x2
    e75c:	03077821 	addu	t7,t8,a3
    e760:	8dee0000 	lw	t6,0(t7)
    e764:	11a00006 	beqz	t5,0xe780
    e768:	00ce3026 	xor	a2,a2,t6
    e76c:	03a51021 	addu	v0,sp,a1
    e770:	14a8fff5 	bne	a1,t0,0xe748
    e774:	00051a00 	sll	v1,a1,0x8
    e778:	5520fff4 	bnezl	t1,0xe74c
    e77c:	90420000 	lbu	v0,0(v0)
    e780:	3c048000 	lui	a0,0x8000
    e784:	34870070 	ori	a3,a0,0x70
    e788:	3c050800 	lui	a1,0x800
    e78c:	8ca53104 	lw	a1,12548(a1)
    e790:	8ce30000 	lw	v1,0(a3)
    e794:	2ca80020 	sltiu	t0,a1,32
    e798:	11000009 	beqz	t0,0xe7c0
    e79c:	006a3823 	subu	a3,v1,t2
    e7a0:	00055880 	sll	t3,a1,0x2
    e7a4:	3c0c0800 	lui	t4,0x800
    e7a8:	258c3108 	addiu	t4,t4,12552
    e7ac:	016c4821 	addu	t1,t3,t4
    e7b0:	24aa0001 	addiu	t2,a1,1
    e7b4:	ad270000 	sw	a3,0(t1)
    e7b8:	3c010800 	lui	at,0x800
    e7bc:	ac2a3104 	sw	t2,12548(at)
    e7c0:	af86000c 	sw	a2,12(gp)
    e7c4:	24070001 	li	a3,1
    e7c8:	00e01021 	move	v0,a3
    e7cc:	03e00008 	jr	ra
    e7d0:	27bd0010 	addiu	sp,sp,16
    e7d4:	1100fffc 	beqz	t0,0xe7c8
    e7d8:	00003821 	move	a3,zero
    e7dc:	00066080 	sll	t4,a2,0x2
    e7e0:	01855821 	addu	t3,t4,a1
    e7e4:	8d644000 	lw	a0,16384(t3)
    e7e8:	24690004 	addiu	t1,v1,4
    e7ec:	00093880 	sll	a3,t1,0x2
    e7f0:	afa40000 	sw	a0,0(sp)
    e7f4:	00e51821 	addu	v1,a3,a1
    e7f8:	8c664000 	lw	a2,16384(v1)
    e7fc:	afa00008 	sw	zero,8(sp)
    e800:	0a000fd9 	j	0x8003f64
    e804:	afa60004 	sw	a2,4(sp)
    e808:	27bdffd8 	addiu	sp,sp,-40
    e80c:	afb20018 	sw	s2,24(sp)
    e810:	afb00010 	sw	s0,16(sp)
    e814:	afbf0024 	sw	ra,36(sp)
    e818:	afb40020 	sw	s4,32(sp)
    e81c:	afb3001c 	sw	s3,28(sp)
    e820:	afb10014 	sw	s1,20(sp)
    e824:	8f870000 	lw	a3,0(gp)
    e828:	3c048000 	lui	a0,0x8000
    e82c:	9483010e 	lhu	v1,270(a0)
    e830:	30e24000 	andi	v0,a3,0x4000
    e834:	00008021 	move	s0,zero
    e838:	10400010 	beqz	v0,0xe87c
    e83c:	3072ffff 	andi	s2,v1,0xffff
    e840:	3c060020 	lui	a2,0x20
    e844:	00e62824 	and	a1,a3,a2
    e848:	10a0000d 	beqz	a1,0xe880
    e84c:	30ea8000 	andi	t2,a3,0x8000
    e850:	8f880004 	lw	t0,4(gp)
    e854:	2409bfff 	li	t1,-16385
    e858:	00e93824 	and	a3,a3,t1
    e85c:	35031000 	ori	v1,t0,0x1000
    e860:	af870000 	sw	a3,0(gp)
    e864:	30f12000 	andi	s1,a3,0x2000
    e868:	1620000b 	bnez	s1,0xe898
    e86c:	3c140004 	lui	s4,0x4
    e870:	2418ffbf 	li	t8,-65
    e874:	0a001038 	j	0x80040e0
    e878:	00781024 	and	v0,v1,t8
    e87c:	30ea8000 	andi	t2,a3,0x8000
    e880:	15400086 	bnez	t2,0xea9c
    e884:	3c0c0020 	lui	t4,0x20
    e888:	30f12000 	andi	s1,a3,0x2000
    e88c:	1220fff8 	beqz	s1,0xe870
    e890:	8f830004 	lw	v1,4(gp)
    e894:	3c140004 	lui	s4,0x4
    e898:	00f49824 	and	s3,a3,s4
    e89c:	1260fff5 	beqz	s3,0xe874
    e8a0:	2418ffbf 	li	t8,-65
    e8a4:	34620040 	ori	v0,v1,0x40
    e8a8:	30f90100 	andi	t9,a3,0x100
    e8ac:	1320000f 	beqz	t9,0xe8ec
    e8b0:	af820004 	sw	v0,4(gp)
    e8b4:	3c020020 	lui	v0,0x20
    e8b8:	00e2f824 	and	ra,a3,v0
    e8bc:	13e00005 	beqz	ra,0xe8d4
    e8c0:	3c0b8000 	lui	t3,0x8000
    e8c4:	3c040004 	lui	a0,0x4
    e8c8:	00e41824 	and	v1,a3,a0
    e8cc:	106000cf 	beqz	v1,0xec0c
    e8d0:	00000000 	nop
    e8d4:	956a011e 	lhu	t2,286(t3)
    e8d8:	9569011c 	lhu	t1,284(t3)
    e8dc:	3146ffff 	andi	a2,t2,0xffff
    e8e0:	00094400 	sll	t0,t1,0x10
    e8e4:	00c82825 	or	a1,a2,t0
    e8e8:	af85000c 	sw	a1,12(gp)
    e8ec:	3c0e8000 	lui	t6,0x8000
    e8f0:	95cd010c 	lhu	t5,268(t6)
    e8f4:	8dc44000 	lw	a0,16384(t6)
    e8f8:	340cffff 	li	t4,0xffff
    e8fc:	108c00b0 	beq	a0,t4,0xebc0
    e900:	31a5ffff 	andi	a1,t5,0xffff
    e904:	308f0100 	andi	t7,a0,0x100
    e908:	55e00001 	bnezl	t7,0xe910
    e90c:	24100010 	li	s0,16
    e910:	30f11000 	andi	s1,a3,0x1000
    e914:	52200008 	beqzl	s1,0xe938
    e918:	36110001 	ori	s1,s0,0x1
    e91c:	30f30020 	andi	s3,a3,0x20
    e920:	1660009f 	bnez	s3,0xeba0
    e924:	3c181000 	lui	t8,0x1000
    e928:	00f8a024 	and	s4,a3,t8
    e92c:	16800096 	bnez	s4,0xeb88
    e930:	3c040c00 	lui	a0,0xc00
    e934:	36110001 	ori	s1,s0,0x1
    e938:	30e80100 	andi	t0,a3,0x100
    e93c:	1500000b 	bnez	t0,0xe96c
    e940:	3c0a0001 	lui	t2,0x1
    e944:	8f880004 	lw	t0,4(gp)
    e948:	31094000 	andi	t1,t0,0x4000
    e94c:	15200008 	bnez	t1,0xe970
    e950:	00ea3024 	and	a2,a3,t2
    e954:	3c0c1f01 	lui	t4,0x1f01
    e958:	00ec5824 	and	t3,a3,t4
    e95c:	3c0a1000 	lui	t2,0x1000
    e960:	516a00ae 	beql	t3,t2,0xec1c
    e964:	30ad0200 	andi	t5,a1,0x200
    e968:	3c0a0001 	lui	t2,0x1
    e96c:	00ea3024 	and	a2,a3,t2
    e970:	14c00095 	bnez	a2,0xebc8
    e974:	3c051000 	lui	a1,0x1000
    e978:	00e52024 	and	a0,a3,a1
    e97c:	00004021 	move	t0,zero
    e980:	10800007 	beqz	a0,0xe9a0
    e984:	00009021 	move	s2,zero
    e988:	00079e02 	srl	s3,a3,0x18
    e98c:	3272000f 	andi	s2,s3,0xf
    e990:	00127880 	sll	t7,s2,0x2
    e994:	3c0e0801 	lui	t6,0x801
    e998:	25ce82c0 	addiu	t6,t6,-32064
    e99c:	01ee4021 	addu	t0,t7,t6
    e9a0:	8f940018 	lw	s4,24(gp)
    e9a4:	12800047 	beqz	s4,0xeac4
    e9a8:	02208021 	move	s0,s1
    e9ac:	10800091 	beqz	a0,0xebf4
    e9b0:	00000000 	nop
    e9b4:	3c098000 	lui	t1,0x8000
    e9b8:	9539010e 	lhu	t9,270(t1)
    e9bc:	91030000 	lbu	v1,0(t0)
    e9c0:	02203021 	move	a2,s1
    e9c4:	3338ffff 	andi	t8,t9,0xffff
    e9c8:	27050004 	addiu	a1,t8,4
    e9cc:	10600008 	beqz	v1,0xe9f0
    e9d0:	0000a021 	move	s4,zero
    e9d4:	241f0003 	li	ra,3
    e9d8:	107f013a 	beq	v1,ra,0xeec4
    e9dc:	24040002 	li	a0,2
    e9e0:	910c0001 	lbu	t4,1(t0)
    e9e4:	11840118 	beq	t4,a0,0xee48
    e9e8:	30ea0040 	andi	t2,a3,0x40
    e9ec:	0012a1c0 	sll	s4,s2,0x7
    e9f0:	8f92001c 	lw	s2,28(gp)
    e9f4:	52400001 	beqzl	s2,0xe9fc
    e9f8:	36260040 	ori	a2,s1,0x40
    e9fc:	3c138000 	lui	s3,0x8000
    ea00:	8e6f4000 	lw	t7,16384(s3)
    ea04:	31f10100 	andi	s1,t7,0x100
    ea08:	122000cb 	beqz	s1,0xed38
    ea0c:	30d1fffb 	andi	s1,a2,0xfffb
    ea10:	3c180800 	lui	t8,0x800
    ea14:	8f180024 	lw	t8,36(t8)
    ea18:	30d20004 	andi	s2,a2,0x4
    ea1c:	33060004 	andi	a2,t8,0x4
    ea20:	14c000cc 	bnez	a2,0xed54
    ea24:	30b0ffff 	andi	s0,a1,0xffff
    ea28:	56400001 	bnezl	s2,0xea30
    ea2c:	36310004 	ori	s1,s1,0x4
    ea30:	02802021 	move	a0,s4
    ea34:	02002821 	move	a1,s0
    ea38:	0e000f55 	jal	0x8003d54
    ea3c:	02203021 	move	a2,s1
    ea40:	1640000d 	bnez	s2,0xea78
    ea44:	00002021 	move	a0,zero
    ea48:	36650180 	ori	a1,s3,0x180
    ea4c:	3c048000 	lui	a0,0x8000
    ea50:	8c9301b8 	lw	s3,440(a0)
    ea54:	0660fffe 	bltz	s3,0xea50
    ea58:	24192000 	li	t9,8192
    ea5c:	24140002 	li	s4,2
    ea60:	a4b90008 	sh	t9,8(a1)
    ea64:	a0b4000b 	sb	s4,11(a1)
    ea68:	a4a00010 	sh	zero,16(a1)
    ea6c:	3c051000 	lui	a1,0x1000
    ea70:	ac8501b8 	sw	a1,440(a0)
    ea74:	00002021 	move	a0,zero
    ea78:	8fbf0024 	lw	ra,36(sp)
    ea7c:	8fb40020 	lw	s4,32(sp)
    ea80:	8fb3001c 	lw	s3,28(sp)
    ea84:	8fb20018 	lw	s2,24(sp)
    ea88:	8fb10014 	lw	s1,20(sp)
    ea8c:	8fb00010 	lw	s0,16(sp)
    ea90:	00801021 	move	v0,a0
    ea94:	03e00008 	jr	ra
    ea98:	27bd0028 	addiu	sp,sp,40
    ea9c:	00ec5824 	and	t3,a3,t4
    eaa0:	1160ff7a 	beqz	t3,0xe88c
    eaa4:	30f12000 	andi	s1,a3,0x2000
    eaa8:	8f8d0004 	lw	t5,4(gp)
    eaac:	3c0fffff 	lui	t7,0xffff
    eab0:	35ee7fff 	ori	t6,t7,0x7fff
    eab4:	00ee3824 	and	a3,a3,t6
    eab8:	35a38000 	ori	v1,t5,0x8000
    eabc:	0a001027 	j	0x800409c
    eac0:	af870000 	sw	a3,0(gp)
    eac4:	3c020800 	lui	v0,0x800
    eac8:	8c420038 	lw	v0,56(v0)
    eacc:	3c040800 	lui	a0,0x800
    ead0:	24840038 	addiu	a0,a0,56
    ead4:	1040004b 	beqz	v0,0xec04
    ead8:	2449ffff 	addiu	t1,v0,-1
    eadc:	3c038000 	lui	v1,0x8000
    eae0:	946c010e 	lhu	t4,270(v1)
    eae4:	318bffff 	andi	t3,t4,0xffff
    eae8:	110000a0 	beqz	t0,0xed6c
    eaec:	25730004 	addiu	s3,t3,4
    eaf0:	3c100800 	lui	s0,0x800
    eaf4:	8e100030 	lw	s0,48(s0)
    eaf8:	1200000a 	beqz	s0,0xeb24
    eafc:	30e60100 	andi	a2,a3,0x100
    eb00:	8f8a0004 	lw	t2,4(gp)
    eb04:	31434000 	andi	v1,t2,0x4000
    eb08:	10600006 	beqz	v1,0xeb24
    eb0c:	3c0f0f00 	lui	t7,0xf00
    eb10:	00ef7024 	and	t6,a3,t7
    eb14:	3c0d0100 	lui	t5,0x100
    eb18:	01ae402b 	sltu	t0,t5,t6
    eb1c:	110000df 	beqz	t0,0xee9c
    eb20:	3265ffff 	andi	a1,s3,0xffff
    eb24:	10c00069 	beqz	a2,0xeccc
    eb28:	3c140f00 	lui	s4,0xf00
    eb2c:	00f42824 	and	a1,a3,s4
    eb30:	3c180200 	lui	t8,0x200
    eb34:	10b80065 	beq	a1,t8,0xeccc
    eb38:	8f99000c 	lw	t9,12(gp)
    eb3c:	3270ffff 	andi	s0,s3,0xffff
    eb40:	03299824 	and	s3,t9,t1
    eb44:	02649021 	addu	s2,s3,a0
    eb48:	92490004 	lbu	t1,4(s2)
    eb4c:	25270004 	addiu	a3,t1,4
    eb50:	000721c0 	sll	a0,a3,0x7
    eb54:	02002821 	move	a1,s0
    eb58:	36260002 	ori	a2,s1,0x2
    eb5c:	0e000f55 	jal	0x8003d54
    eb60:	00000000 	nop
    eb64:	8fbf0024 	lw	ra,36(sp)
    eb68:	8fb40020 	lw	s4,32(sp)
    eb6c:	8fb3001c 	lw	s3,28(sp)
    eb70:	8fb20018 	lw	s2,24(sp)
    eb74:	8fb10014 	lw	s1,20(sp)
    eb78:	8fb00010 	lw	s0,16(sp)
    eb7c:	00001021 	move	v0,zero
    eb80:	03e00008 	jr	ra
    eb84:	27bd0028 	addiu	sp,sp,40
    eb88:	3c020bff 	lui	v0,0xbff
    eb8c:	00e41824 	and	v1,a3,a0
    eb90:	345fffff 	ori	ra,v0,0xffff
    eb94:	03e3c82b 	sltu	t9,ra,v1
    eb98:	5320ff67 	beqzl	t9,0xe938
    eb9c:	36110001 	ori	s1,s0,0x1
    eba0:	3c060800 	lui	a2,0x800
    eba4:	8cc6002c 	lw	a2,44(a2)
    eba8:	36110005 	ori	s1,s0,0x5
    ebac:	24d00001 	addiu	s0,a2,1
    ebb0:	3c010800 	lui	at,0x800
    ebb4:	ac30002c 	sw	s0,44(at)
    ebb8:	0a00105d 	j	0x8004174
    ebbc:	30e80100 	andi	t0,a3,0x100
    ebc0:	0a001052 	j	0x8004148
    ebc4:	24100020 	li	s0,32
    ebc8:	02402821 	move	a1,s2
    ebcc:	3c120800 	lui	s2,0x800
    ebd0:	8e5200d8 	lw	s2,216(s2)
    ebd4:	24040080 	li	a0,128
    ebd8:	264d0001 	addiu	t5,s2,1
    ebdc:	3c010800 	lui	at,0x800
    ebe0:	ac2d00d8 	sw	t5,216(at)
    ebe4:	0e000f55 	jal	0x8003d54
    ebe8:	24060003 	li	a2,3
    ebec:	0a0010e8 	j	0x80043a0
    ebf0:	8fbf0024 	lw	ra,36(sp)
    ebf4:	3c080801 	lui	t0,0x801
    ebf8:	250882c0 	addiu	t0,t0,-32064
    ebfc:	0a00107c 	j	0x80041f0
    ec00:	3c098000 	lui	t1,0x8000
    ec04:	0a0010c5 	j	0x8004314
    ec08:	00004821 	move	t1,zero
    ec0c:	0e000fbc 	jal	0x8003ef0
    ec10:	00000000 	nop
    ec14:	0a001049 	j	0x8004124
    ec18:	8f870000 	lw	a3,0(gp)
    ec1c:	15a0ff53 	bnez	t5,0xe96c
    ec20:	3c0a0001 	lui	t2,0x1
    ec24:	26450004 	addiu	a1,s2,4
    ec28:	30aaffff 	andi	t2,a1,0xffff
    ec2c:	36260002 	ori	a2,s1,0x2
    ec30:	3c038000 	lui	v1,0x8000
    ec34:	8c7201b8 	lw	s2,440(v1)
    ec38:	0640fffe 	bltz	s2,0xec34
    ec3c:	8f850008 	lw	a1,8(gp)
    ec40:	34690180 	ori	t1,v1,0x180
    ec44:	ad200000 	sw	zero,0(t1)
    ec48:	10a000af 	beqz	a1,0xef08
    ec4c:	3c048000 	lui	a0,0x8000
    ec50:	254f0012 	addiu	t7,t2,18
    ec54:	00af702b 	sltu	t6,a1,t7
    ec58:	51c000ac 	beqzl	t6,0xef0c
    ec5c:	24030003 	li	v1,3
    ec60:	94780120 	lhu	t8,288(v1)
    ec64:	2414001a 	li	s4,26
    ec68:	30f14000 	andi	s1,a3,0x4000
    ec6c:	3313ffff 	andi	s3,t8,0xffff
    ec70:	a134000b 	sb	s4,11(t1)
    ec74:	122000b6 	beqz	s1,0xef50
    ec78:	2663fffe 	addiu	v1,s3,-2
    ec7c:	00a3c82b 	sltu	t9,a1,v1
    ec80:	572000b4 	bnezl	t9,0xef54
    ec84:	241ffffe 	li	ra,-2
    ec88:	35080001 	ori	t0,t0,0x1
    ec8c:	a5230014 	sh	v1,20(t1)
    ec90:	af880004 	sw	t0,4(gp)
    ec94:	3c108000 	lui	s0,0x8000
    ec98:	240cbfff 	li	t4,-16385
    ec9c:	010c4824 	and	t1,t0,t4
    eca0:	240b0002 	li	t3,2
    eca4:	36080180 	ori	t0,s0,0x180
    eca8:	a50b000c 	sh	t3,12(t0)
    ecac:	a50a000e 	sh	t2,14(t0)
    ecb0:	a5060008 	sh	a2,8(t0)
    ecb4:	a5090026 	sh	t1,38(t0)
    ecb8:	a5070010 	sh	a3,16(t0)
    ecbc:	3c071000 	lui	a3,0x1000
    ecc0:	ae0701b8 	sw	a3,440(s0)
    ecc4:	0a0010e8 	j	0x80043a0
    ecc8:	8fbf0024 	lw	ra,36(sp)
    eccc:	3c030800 	lui	v1,0x800
    ecd0:	8c6300d0 	lw	v1,208(v1)
    ecd4:	2e45000c 	sltiu	a1,s2,12
    ecd8:	001221c0 	sll	a0,s2,0x7
    ecdc:	386b0001 	xori	t3,v1,0x1
    ece0:	2d620001 	sltiu	v0,t3,1
    ece4:	0045f824 	and	ra,v0,a1
    ece8:	17e0ff9a 	bnez	ra,0xeb54
    ecec:	3270ffff 	andi	s0,s3,0xffff
    ecf0:	264cfffc 	addiu	t4,s2,-4
    ecf4:	2d840004 	sltiu	a0,t4,4
    ecf8:	54800050 	bnezl	a0,0xee3c
    ecfc:	00002021 	move	a0,zero
    ed00:	386a0002 	xori	t2,v1,0x2
    ed04:	2d430001 	sltiu	v1,t2,1
    ed08:	00658024 	and	s0,v1,a1
    ed0c:	1600004a 	bnez	s0,0xee38
    ed10:	3270ffff 	andi	s0,s3,0xffff
    ed14:	00076a42 	srl	t5,a3,0x9
    ed18:	0012702b 	sltu	t6,zero,s2
    ed1c:	01ae4024 	and	t0,t5,t6
    ed20:	55000063 	bnezl	t0,0xeeb0
    ed24:	00002021 	move	a0,zero
    ed28:	001221c0 	sll	a0,s2,0x7
    ed2c:	02002821 	move	a1,s0
    ed30:	0a0010e5 	j	0x8004394
    ed34:	36260002 	ori	a2,s1,0x2
    ed38:	34df0002 	ori	ra,a2,0x2
    ed3c:	02802021 	move	a0,s4
    ed40:	33e6ffff 	andi	a2,ra,0xffff
    ed44:	0e000f55 	jal	0x8003d54
    ed48:	30a5ffff 	andi	a1,a1,0xffff
    ed4c:	0a0010ac 	j	0x80042b0
    ed50:	00002021 	move	a0,zero
    ed54:	24040100 	li	a0,256
    ed58:	02002821 	move	a1,s0
    ed5c:	0e000f55 	jal	0x8003d54
    ed60:	02203021 	move	a2,s1
    ed64:	0a001098 	j	0x8004260
    ed68:	00000000 	nop
    ed6c:	8c664000 	lw	a2,16384(v1)
    ed70:	30cf0100 	andi	t7,a2,0x100
    ed74:	11e0003d 	beqz	t7,0xee6c
    ed78:	30f80100 	andi	t8,a3,0x100
    ed7c:	3c120800 	lui	s2,0x800
    ed80:	8e520024 	lw	s2,36(s2)
    ed84:	13000011 	beqz	t8,0xedcc
    ed88:	32340004 	andi	s4,s1,0x4
    ed8c:	3c1f0f00 	lui	ra,0xf00
    ed90:	00ffc824 	and	t9,a3,ra
    ed94:	3c050200 	lui	a1,0x200
    ed98:	1325000c 	beq	t9,a1,0xedcc
    ed9c:	8f8c000c 	lw	t4,12(gp)
    eda0:	02203021 	move	a2,s1
    eda4:	3265ffff 	andi	a1,s3,0xffff
    eda8:	01895824 	and	t3,t4,t1
    edac:	01641021 	addu	v0,t3,a0
    edb0:	90490004 	lbu	t1,4(v0)
    edb4:	3230fffb 	andi	s0,s1,0xfffb
    edb8:	2411fffe 	li	s1,-2
    edbc:	25270004 	addiu	a3,t1,4
    edc0:	0e000f55 	jal	0x8003d54
    edc4:	000721c0 	sll	a0,a3,0x7
    edc8:	02519024 	and	s2,s2,s1
    edcc:	24040001 	li	a0,1
    edd0:	12440052 	beq	s2,a0,0xef1c
    edd4:	32430001 	andi	v1,s2,0x1
    edd8:	14600058 	bnez	v1,0xef3c
    eddc:	02003021 	move	a2,s0
    ede0:	324a0004 	andi	t2,s2,0x4
    ede4:	11400004 	beqz	t2,0xedf8
    ede8:	8f8d0000 	lw	t5,0(gp)
    edec:	31a80800 	andi	t0,t5,0x800
    edf0:	1500005a 	bnez	t0,0xef5c
    edf4:	3265ffff 	andi	a1,s3,0xffff
    edf8:	1680ff5b 	bnez	s4,0xeb68
    edfc:	8fbf0024 	lw	ra,36(sp)
    ee00:	3c138000 	lui	s3,0x8000
    ee04:	36650180 	ori	a1,s3,0x180
    ee08:	3c048000 	lui	a0,0x8000
    ee0c:	8c9001b8 	lw	s0,440(a0)
    ee10:	0600fffe 	bltz	s0,0xee0c
    ee14:	24062000 	li	a2,8192
    ee18:	240f0002 	li	t7,2
    ee1c:	a4a60008 	sh	a2,8(a1)
    ee20:	a0af000b 	sb	t7,11(a1)
    ee24:	a4a00010 	sh	zero,16(a1)
    ee28:	3c0e1000 	lui	t6,0x1000
    ee2c:	ac8e01b8 	sw	t6,440(a0)
    ee30:	0a0010e8 	j	0x80043a0
    ee34:	8fbf0024 	lw	ra,36(sp)
    ee38:	00002021 	move	a0,zero
    ee3c:	02002821 	move	a1,s0
    ee40:	0a0010e5 	j	0x8004394
    ee44:	36260002 	ori	a2,s1,0x2
    ee48:	1140fee9 	beqz	t2,0xe9f0
    ee4c:	0000a021 	move	s4,zero
    ee50:	952e0110 	lhu	t6,272(t1)
    ee54:	950d0002 	lhu	t5,2(t0)
    ee58:	31c8ffff 	andi	t0,t6,0xffff
    ee5c:	51a8fee4 	beql	t5,t0,0xe9f0
    ee60:	0012a1c0 	sll	s4,s2,0x7
    ee64:	0a00108b 	j	0x800422c
    ee68:	8f92001c 	lw	s2,28(gp)
    ee6c:	3c050800 	lui	a1,0x800
    ee70:	8ca50024 	lw	a1,36(a1)
    ee74:	30b80001 	andi	t8,a1,0x1
    ee78:	5300ff3b 	beqzl	t8,0xeb68
    ee7c:	8fbf0024 	lw	ra,36(sp)
    ee80:	3265ffff 	andi	a1,s3,0xffff
    ee84:	36260002 	ori	a2,s1,0x2
    ee88:	00002021 	move	a0,zero
    ee8c:	0e000f55 	jal	0x8003d54
    ee90:	00000000 	nop
    ee94:	0a0010e8 	j	0x80043a0
    ee98:	8fbf0024 	lw	ra,36(sp)
    ee9c:	36260002 	ori	a2,s1,0x2
    eea0:	0e000f55 	jal	0x8003d54
    eea4:	24040080 	li	a0,128
    eea8:	0a0010e8 	j	0x80043a0
    eeac:	8fbf0024 	lw	ra,36(sp)
    eeb0:	02002821 	move	a1,s0
    eeb4:	0e000f55 	jal	0x8003d54
    eeb8:	3226fffb 	andi	a2,s1,0xfffb
    eebc:	0a001159 	j	0x8004564
    eec0:	001221c0 	sll	a0,s2,0x7
    eec4:	91030001 	lbu	v1,1(t0)
    eec8:	24020001 	li	v0,1
    eecc:	1062feea 	beq	v1,v0,0xea78
    eed0:	24040001 	li	a0,1
    eed4:	24100002 	li	s0,2
    eed8:	1470fec5 	bne	v1,s0,0xe9f0
    eedc:	0000a021 	move	s4,zero
    eee0:	30e30040 	andi	v1,a3,0x40
    eee4:	1060fec3 	beqz	v1,0xe9f4
    eee8:	8f92001c 	lw	s2,28(gp)
    eeec:	952b0110 	lhu	t3,272(t1)
    eef0:	95090002 	lhu	t1,2(t0)
    eef4:	3167ffff 	andi	a3,t3,0xffff
    eef8:	1127fee0 	beq	t1,a3,0xea7c
    eefc:	8fbf0024 	lw	ra,36(sp)
    ef00:	0a00108b 	j	0x800422c
    ef04:	00000000 	nop
    ef08:	24030003 	li	v1,3
    ef0c:	34820180 	ori	v0,a0,0x180
    ef10:	a043000b 	sb	v1,11(v0)
    ef14:	0a001134 	j	0x80044d0
    ef18:	3c108000 	lui	s0,0x8000
    ef1c:	32140004 	andi	s4,s0,0x4
    ef20:	16800003 	bnez	s4,0xef30
    ef24:	3265ffff 	andi	a1,s3,0xffff
    ef28:	36120002 	ori	s2,s0,0x2
    ef2c:	3250ffff 	andi	s0,s2,0xffff
    ef30:	02003021 	move	a2,s0
    ef34:	0a0011b1 	j	0x80046c4
    ef38:	00002021 	move	a0,zero
    ef3c:	00002021 	move	a0,zero
    ef40:	0e000f55 	jal	0x8003d54
    ef44:	3265ffff 	andi	a1,s3,0xffff
    ef48:	0a001186 	j	0x8004618
    ef4c:	3210fffb 	andi	s0,s0,0xfffb
    ef50:	241ffffe 	li	ra,-2
    ef54:	0a001132 	j	0x80044c8
    ef58:	011f4024 	and	t0,t0,ra
    ef5c:	02003021 	move	a2,s0
    ef60:	0e000f55 	jal	0x8003d54
    ef64:	24040100 	li	a0,256
    ef68:	0a00118c 	j	0x8004630
    ef6c:	00000000 	nop
    ef70:	27bdffc8 	addiu	sp,sp,-56
    ef74:	afb00010 	sw	s0,16(sp)
    ef78:	afbf0034 	sw	ra,52(sp)
    ef7c:	3c10600c 	lui	s0,0x600c
    ef80:	afbe0030 	sw	s8,48(sp)
    ef84:	afb7002c 	sw	s7,44(sp)
    ef88:	afb60028 	sw	s6,40(sp)
    ef8c:	afb50024 	sw	s5,36(sp)
    ef90:	afb40020 	sw	s4,32(sp)
    ef94:	afb3001c 	sw	s3,28(sp)
    ef98:	afb20018 	sw	s2,24(sp)
    ef9c:	afb10014 	sw	s1,20(sp)
    efa0:	8e0e5000 	lw	t6,20480(s0)
    efa4:	240fff7f 	li	t7,-129
    efa8:	3c068000 	lui	a2,0x8000
    efac:	01cf6824 	and	t5,t6,t7
    efb0:	35ac380c 	ori	t4,t5,0x380c
    efb4:	240b0003 	li	t3,3
    efb8:	ae0c5000 	sw	t4,20480(s0)
    efbc:	accb0008 	sw	t3,8(a2)
    efc0:	3c010800 	lui	at,0x800
    efc4:	ac200020 	sw	zero,32(at)
    efc8:	0e001749 	jal	0x8005d24
    efcc:	00000000 	nop
    efd0:	3c0a0010 	lui	t2,0x10
    efd4:	35498051 	ori	t1,t2,0x8051
    efd8:	3c066016 	lui	a2,0x6016
    efdc:	ae09537c 	sw	t1,21372(s0)
    efe0:	8cc70000 	lw	a3,0(a2)
    efe4:	3c086014 	lui	t0,0x6014
    efe8:	8d0500a0 	lw	a1,160(t0)
    efec:	3c03ffff 	lui	v1,0xffff
    eff0:	00e32024 	and	a0,a3,v1
    eff4:	3c025353 	lui	v0,0x5353
    eff8:	00051fc2 	srl	v1,a1,0x1f
    effc:	10820262 	beq	a0,v0,0xf988
    f000:	34c57c00 	ori	a1,a2,0x7c00
    f004:	8cbe007c 	lw	s8,124(a1)
    f008:	8cbf0078 	lw	ra,120(a1)
    f00c:	3c026000 	lui	v0,0x6000
    f010:	34442020 	ori	a0,v0,0x2020
    f014:	3c050801 	lui	a1,0x801
    f018:	24a58138 	addiu	a1,a1,-32456
    f01c:	2406000a 	li	a2,10
    f020:	3c170098 	lui	s7,0x98
    f024:	af9e0014 	sw	s8,20(gp)
    f028:	af9f0010 	sw	ra,16(gp)
    f02c:	0e0015f2 	jal	0x80057c8
    f030:	3c118000 	lui	s1,0x8000
    f034:	36f600c0 	ori	s6,s7,0xc0
    f038:	3c190010 	lui	t9,0x10
    f03c:	3c18600c 	lui	t8,0x600c
    f040:	3c158000 	lui	s5,0x8000
    f044:	af1953fc 	sw	t9,21500(t8)
    f048:	363e0180 	ori	s8,s1,0x180
    f04c:	aeb6013c 	sw	s6,316(s5)
    f050:	8e300000 	lw	s0,0(s1)
    f054:	32040003 	andi	a0,s0,0x3
    f058:	1080fffd 	beqz	a0,0xf050
    f05c:	32050001 	andi	a1,s0,0x1
    f060:	14a00059 	bnez	a1,0xf1c8
    f064:	32060002 	andi	a2,s0,0x2
    f068:	10c0fff9 	beqz	a2,0xf050
    f06c:	3c048000 	lui	a0,0x8000
    f070:	8c920140 	lw	s2,320(a0)
    f074:	24100040 	li	s0,64
    f078:	ac920020 	sw	s2,32(a0)
    f07c:	8c8f0148 	lw	t7,328(a0)
    f080:	000f7602 	srl	t6,t7,0x18
    f084:	31c30070 	andi	v1,t6,0x70
    f088:	1070013e 	beq	v1,s0,0xf584
    f08c:	2c780041 	sltiu	t8,v1,65
    f090:	53000008 	beqzl	t8,0xf0b4
    f094:	24040060 	li	a0,96
    f098:	24190020 	li	t9,32
    f09c:	1079000e 	beq	v1,t9,0xf0d8
    f0a0:	3c1f4000 	lui	ra,0x4000
    f0a4:	3c088000 	lui	t0,0x8000
    f0a8:	ad1f0178 	sw	ra,376(t0)
    f0ac:	0a001222 	j	0x8004888
    f0b0:	00000000 	nop
    f0b4:	1464fffb 	bne	v1,a0,0xf0a4
    f0b8:	3c1f4000 	lui	ra,0x4000
    f0bc:	0e001f66 	jal	0x8007d98
    f0c0:	00000000 	nop
    f0c4:	3c1f4000 	lui	ra,0x4000
    f0c8:	3c088000 	lui	t0,0x8000
    f0cc:	ad1f0178 	sw	ra,376(t0)
    f0d0:	0a001222 	j	0x8004888
    f0d4:	00000000 	nop
    f0d8:	8c940148 	lw	s4,328(a0)
    f0dc:	24170004 	li	s7,4
    f0e0:	34880180 	ori	t0,a0,0x180
    f0e4:	00144c02 	srl	t1,s4,0x10
    f0e8:	312500ff 	andi	a1,t1,0xff
    f0ec:	8c830140 	lw	v1,320(a0)
    f0f0:	10b70170 	beq	a1,s7,0xf6b4
    f0f4:	24abfffa 	addiu	t3,a1,-6
    f0f8:	2d6a0006 	sltiu	t2,t3,6
    f0fc:	51400013 	beqzl	t2,0xf14c
    f100:	3c058000 	lui	a1,0x8000
    f104:	8c860144 	lw	a2,324(a0)
    f108:	30a400ff 	andi	a0,a1,0xff
    f10c:	30c300ff 	andi	v1,a2,0xff
    f110:	30d500ff 	andi	s5,a2,0xff
    f114:	2c760008 	sltiu	s6,v1,8
    f118:	16c00002 	bnez	s6,0xf124
    f11c:	26a70004 	addiu	a3,s5,4
    f120:	24070003 	li	a3,3
    f124:	240c0009 	li	t4,9
    f128:	108c01a8 	beq	a0,t4,0xf7cc
    f12c:	288d000a 	slti	t5,a0,10
    f130:	11a00194 	beqz	t5,0xf784
    f134:	2413000a 	li	s3,10
    f138:	24050008 	li	a1,8
    f13c:	10850014 	beq	a0,a1,0xf190
    f140:	8f980018 	lw	t8,24(gp)
    f144:	000719c0 	sll	v1,a3,0x7
    f148:	3c058000 	lui	a1,0x8000
    f14c:	8ca701b8 	lw	a3,440(a1)
    f150:	04e0fffe 	bltz	a3,0xf14c
    f154:	24140002 	li	s4,2
    f158:	ad030000 	sw	v1,0(t0)
    f15c:	a5090008 	sh	t1,8(t0)
    f160:	a114000b 	sb	s4,11(t0)
    f164:	8cb70148 	lw	s7,328(a1)
    f168:	3c091000 	lui	t1,0x1000
    f16c:	3c1f4000 	lui	ra,0x4000
    f170:	a5170010 	sh	s7,16(t0)
    f174:	8ca40144 	lw	a0,324(a1)
    f178:	ad040024 	sw	a0,36(t0)
    f17c:	3c088000 	lui	t0,0x8000
    f180:	aca901b8 	sw	t1,440(a1)
    f184:	ad1f0178 	sw	ra,376(t0)
    f188:	0a001222 	j	0x8004888
    f18c:	00000000 	nop
    f190:	00069202 	srl	s2,a2,0x8
    f194:	0007c880 	sll	t9,a3,0x2
    f198:	3c040801 	lui	a0,0x801
    f19c:	248482c0 	addiu	a0,a0,-32064
    f1a0:	03247821 	addu	t7,t9,a0
    f1a4:	270e0001 	addiu	t6,t8,1
    f1a8:	324500ff 	andi	a1,s2,0xff
    f1ac:	24100001 	li	s0,1
    f1b0:	a1f20000 	sb	s2,0(t7)
    f1b4:	14b0ffe3 	bne	a1,s0,0xf144
    f1b8:	af8e0018 	sw	t6,24(gp)
    f1bc:	000719c0 	sll	v1,a3,0x7
    f1c0:	0a001260 	j	0x8004980
    f1c4:	af85001c 	sw	a1,28(gp)
    f1c8:	8e340128 	lw	s4,296(s1)
    f1cc:	3c068008 	lui	a2,0x8008
    f1d0:	ae340020 	sw	s4,32(s1)
    f1d4:	8e2a0104 	lw	t2,260(s1)
    f1d8:	8e290100 	lw	t1,256(s1)
    f1dc:	94c80048 	lhu	t0,72(a2)
    f1e0:	af8a0000 	sw	t2,0(gp)
    f1e4:	af890004 	sw	t1,4(gp)
    f1e8:	3103ffff 	andi	v1,t0,0xffff
    f1ec:	0e000f4e 	jal	0x8003d38
    f1f0:	af830008 	sw	v1,8(gp)
    f1f4:	3c070800 	lui	a3,0x800
    f1f8:	8ce700c0 	lw	a3,192(a3)
    f1fc:	10e00024 	beqz	a3,0xf290
    f200:	8f870000 	lw	a3,0(gp)
    f204:	3c0c0800 	lui	t4,0x800
    f208:	8d8c00c4 	lw	t4,196(t4)
    f20c:	258b0001 	addiu	t3,t4,1
    f210:	3c010800 	lui	at,0x800
    f214:	ac2b00c4 	sw	t3,196(at)
    f218:	3c198000 	lui	t9,0x8000
    f21c:	8f240124 	lw	a0,292(t9)
    f220:	3c186020 	lui	t8,0x6020
    f224:	af040014 	sw	a0,20(t8)
    f228:	00000000 	nop
    f22c:	3c068000 	lui	a2,0x8000
    f230:	3c174000 	lui	s7,0x4000
    f234:	acd70138 	sw	s7,312(a2)
    f238:	00000000 	nop
    f23c:	5280ff8a 	beqzl	s4,0xf068
    f240:	32060002 	andi	a2,s0,0x2
    f244:	26870140 	addiu	a3,s4,320
    f248:	26850080 	addiu	a1,s4,128
    f24c:	2409ff80 	li	t1,-128
    f250:	00e96824 	and	t5,a3,t1
    f254:	00a99824 	and	s3,a1,t1
    f258:	00131940 	sll	v1,s3,0x5
    f25c:	30ac007f 	andi	t4,a1,0x7f
    f260:	000db140 	sll	s6,t5,0x5
    f264:	30f5007f 	andi	s5,a3,0x7f
    f268:	3c0b2000 	lui	t3,0x2000
    f26c:	35620002 	ori	v0,t3,0x2
    f270:	006c4025 	or	t0,v1,t4
    f274:	02d55025 	or	t2,s6,s5
    f278:	0142a025 	or	s4,t2,v0
    f27c:	0102f825 	or	ra,t0,v0
    f280:	acdf0830 	sw	ra,2096(a2)
    f284:	acd40830 	sw	s4,2096(a2)
    f288:	0a001228 	j	0x80048a0
    f28c:	32060002 	andi	a2,s0,0x2
    f290:	3c0e0010 	lui	t6,0x10
    f294:	00ee6824 	and	t5,a3,t6
    f298:	15a000a6 	bnez	t5,0xf534
    f29c:	8f830004 	lw	v1,4(gp)
    f2a0:	3c150800 	lui	s5,0x800
    f2a4:	8eb50020 	lw	s5,32(s5)
    f2a8:	3c168000 	lui	s6,0x8000
    f2ac:	96d2010e 	lhu	s2,270(s6)
    f2b0:	26b30001 	addiu	s3,s5,1
    f2b4:	30ef4000 	andi	t7,a3,0x4000
    f2b8:	3255ffff 	andi	s5,s2,0xffff
    f2bc:	3c010800 	lui	at,0x800
    f2c0:	ac330020 	sw	s3,32(at)
    f2c4:	11e000b6 	beqz	t7,0xf5a0
    f2c8:	00009021 	move	s2,zero
    f2cc:	3c180020 	lui	t8,0x20
    f2d0:	00f8b824 	and	s7,a3,t8
    f2d4:	12e000b3 	beqz	s7,0xf5a4
    f2d8:	30e28000 	andi	v0,a3,0x8000
    f2dc:	8f990004 	lw	t9,4(gp)
    f2e0:	241fbfff 	li	ra,-16385
    f2e4:	00ff3824 	and	a3,a3,ra
    f2e8:	37231000 	ori	v1,t9,0x1000
    f2ec:	af870000 	sw	a3,0(gp)
    f2f0:	30ea2000 	andi	t2,a3,0x2000
    f2f4:	114000b5 	beqz	t2,0xf5cc
    f2f8:	240cffbf 	li	t4,-65
    f2fc:	3c0b0004 	lui	t3,0x4
    f300:	00eb3024 	and	a2,a3,t3
    f304:	10c00002 	beqz	a2,0xf310
    f308:	006c1024 	and	v0,v1,t4
    f30c:	34620040 	ori	v0,v1,0x40
    f310:	30ed0100 	andi	t5,a3,0x100
    f314:	11a0000e 	beqz	t5,0xf350
    f318:	af820004 	sw	v0,4(gp)
    f31c:	3c0f0020 	lui	t7,0x20
    f320:	00ef7024 	and	t6,a3,t7
    f324:	11c00004 	beqz	t6,0xf338
    f328:	3c160004 	lui	s6,0x4
    f32c:	00f69824 	and	s3,a3,s6
    f330:	12600135 	beqz	s3,0xf808
    f334:	00000000 	nop
    f338:	9622011e 	lhu	v0,286(s1)
    f33c:	963f011c 	lhu	ra,284(s1)
    f340:	3058ffff 	andi	t8,v0,0xffff
    f344:	001fcc00 	sll	t9,ra,0x10
    f348:	0319b825 	or	s7,t8,t9
    f34c:	af97000c 	sw	s7,12(gp)
    f350:	9628010c 	lhu	t0,268(s1)
    f354:	8e244000 	lw	a0,16384(s1)
    f358:	3403ffff 	li	v1,0xffff
    f35c:	108300c8 	beq	a0,v1,0xf680
    f360:	3105ffff 	andi	a1,t0,0xffff
    f364:	30890100 	andi	t1,a0,0x100
    f368:	55200001 	bnezl	t1,0xf370
    f36c:	24120010 	li	s2,16
    f370:	30e41000 	andi	a0,a3,0x1000
    f374:	10800013 	beqz	a0,0xf3c4
    f378:	36530001 	ori	s3,s2,0x1
    f37c:	30ea0020 	andi	t2,a3,0x20
    f380:	1540000a 	bnez	t2,0xf3ac
    f384:	3c0b1000 	lui	t3,0x1000
    f388:	00eb3024 	and	a2,a3,t3
    f38c:	10c0000d 	beqz	a2,0xf3c4
    f390:	3c0f0bff 	lui	t7,0xbff
    f394:	3c130c00 	lui	s3,0xc00
    f398:	00f37024 	and	t6,a3,s3
    f39c:	35edffff 	ori	t5,t7,0xffff
    f3a0:	01ae602b 	sltu	t4,t5,t6
    f3a4:	11800007 	beqz	t4,0xf3c4
    f3a8:	36530001 	ori	s3,s2,0x1
    f3ac:	3c160800 	lui	s6,0x800
    f3b0:	8ed6002c 	lw	s6,44(s6)
    f3b4:	36530005 	ori	s3,s2,0x5
    f3b8:	26d20001 	addiu	s2,s6,1
    f3bc:	3c010800 	lui	at,0x800
    f3c0:	ac32002c 	sw	s2,44(at)
    f3c4:	30f70100 	andi	s7,a3,0x100
    f3c8:	16e0000b 	bnez	s7,0xf3f8
    f3cc:	3c060001 	lui	a2,0x1
    f3d0:	8f880004 	lw	t0,4(gp)
    f3d4:	31184000 	andi	t8,t0,0x4000
    f3d8:	57000008 	bnezl	t8,0xf3fc
    f3dc:	00e62824 	and	a1,a3,a2
    f3e0:	3c021f01 	lui	v0,0x1f01
    f3e4:	00e2f824 	and	ra,a3,v0
    f3e8:	3c191000 	lui	t9,0x1000
    f3ec:	13f9010a 	beq	ra,t9,0xf818
    f3f0:	30a30200 	andi	v1,a1,0x200
    f3f4:	3c060001 	lui	a2,0x1
    f3f8:	00e62824 	and	a1,a3,a2
    f3fc:	14a000a2 	bnez	a1,0xf688
    f400:	3c091000 	lui	t1,0x1000
    f404:	00e92024 	and	a0,a3,t1
    f408:	00004021 	move	t0,zero
    f40c:	10800007 	beqz	a0,0xf42c
    f410:	0000a821 	move	s5,zero
    f414:	00076602 	srl	t4,a3,0x18
    f418:	3195000f 	andi	s5,t4,0xf
    f41c:	00155880 	sll	t3,s5,0x2
    f420:	3c0a0801 	lui	t2,0x801
    f424:	254a82c0 	addiu	t2,t2,-32064
    f428:	016a4021 	addu	t0,t3,t2
    f42c:	8f8d0018 	lw	t5,24(gp)
    f430:	11a00068 	beqz	t5,0xf5d4
    f434:	02609021 	move	s2,s3
    f438:	14800003 	bnez	a0,0xf448
    f43c:	3c098000 	lui	t1,0x8000
    f440:	3c080801 	lui	t0,0x801
    f444:	250882c0 	addiu	t0,t0,-32064
    f448:	952e010e 	lhu	t6,270(t1)
    f44c:	91030000 	lbu	v1,0(t0)
    f450:	02603021 	move	a2,s3
    f454:	31c4ffff 	andi	a0,t6,0xffff
    f458:	24850004 	addiu	a1,a0,4
    f45c:	10600008 	beqz	v1,0xf480
    f460:	0000b821 	move	s7,zero
    f464:	240f0003 	li	t7,3
    f468:	106f011e 	beq	v1,t7,0xf8e4
    f46c:	24190002 	li	t9,2
    f470:	911f0001 	lbu	ra,1(t0)
    f474:	13f90026 	beq	ra,t9,0xf510
    f478:	30e20040 	andi	v0,a3,0x40
    f47c:	0015b9c0 	sll	s7,s5,0x7
    f480:	8f89001c 	lw	t1,28(gp)
    f484:	51200001 	beqzl	t1,0xf48c
    f488:	36660040 	ori	a2,s3,0x40
    f48c:	3c168000 	lui	s6,0x8000
    f490:	8ecb4000 	lw	t3,16384(s6)
    f494:	31730100 	andi	s3,t3,0x100
    f498:	126000c5 	beqz	s3,0xf7b0
    f49c:	30d50004 	andi	s5,a2,0x4
    f4a0:	3c0c0800 	lui	t4,0x800
    f4a4:	8d8c0024 	lw	t4,36(t4)
    f4a8:	30d3fffb 	andi	s3,a2,0xfffb
    f4ac:	31860004 	andi	a2,t4,0x4
    f4b0:	14c00106 	bnez	a2,0xf8cc
    f4b4:	30b2ffff 	andi	s2,a1,0xffff
    f4b8:	56a00001 	bnezl	s5,0xf4c0
    f4bc:	36730004 	ori	s3,s3,0x4
    f4c0:	02e02021 	move	a0,s7
    f4c4:	02402821 	move	a1,s2
    f4c8:	0e000f55 	jal	0x8003d54
    f4cc:	02603021 	move	a2,s3
    f4d0:	16a0000d 	bnez	s5,0xf508
    f4d4:	00002021 	move	a0,zero
    f4d8:	36c50180 	ori	a1,s6,0x180
    f4dc:	3c048000 	lui	a0,0x8000
    f4e0:	8c8d01b8 	lw	t5,440(a0)
    f4e4:	05a0fffe 	bltz	t5,0xf4e0
    f4e8:	240f2000 	li	t7,8192
    f4ec:	240e0002 	li	t6,2
    f4f0:	a4af0008 	sh	t7,8(a1)
    f4f4:	a0ae000b 	sb	t6,11(a1)
    f4f8:	a4a00010 	sh	zero,16(a1)
    f4fc:	3c051000 	lui	a1,0x1000
    f500:	ac8501b8 	sw	a1,440(a0)
    f504:	00002021 	move	a0,zero
    f508:	0a001367 	j	0x8004d9c
    f50c:	00801021 	move	v0,a0
    f510:	1040ffdb 	beqz	v0,0xf480
    f514:	0000b821 	move	s7,zero
    f518:	952a0110 	lhu	t2,272(t1)
    f51c:	95030002 	lhu	v1,2(t0)
    f520:	3148ffff 	andi	t0,t2,0xffff
    f524:	5068ffd6 	beql	v1,t0,0xf480
    f528:	0015b9c0 	sll	s7,s5,0x7
    f52c:	0a00132f 	j	0x8004cbc
    f530:	8f89001c 	lw	t1,28(gp)
    f534:	2413bfff 	li	s3,-16385
    f538:	00732824 	and	a1,v1,s3
    f53c:	10a00007 	beqz	a1,0xf55c
    f540:	240e87ff 	li	t6,-30721
    f544:	006e4824 	and	t1,v1,t6
    f548:	1520000a 	bnez	t1,0xf574
    f54c:	3c120060 	lui	s2,0x60
    f550:	00f27824 	and	t7,a3,s2
    f554:	11e00007 	beqz	t7,0xf574
    f558:	00000000 	nop
    f55c:	0e000d34 	jal	0x80034d0
    f560:	00000000 	nop
    f564:	1040ff32 	beqz	v0,0xf230
    f568:	3c068000 	lui	a2,0x8000
    f56c:	0a001295 	j	0x8004a54
    f570:	3c198000 	lui	t9,0x8000
    f574:	0e0014cf 	jal	0x800533c
    f578:	00000000 	nop
    f57c:	0a001367 	j	0x8004d9c
    f580:	00000000 	nop
    f584:	0e0014f5 	jal	0x80053d4
    f588:	00000000 	nop
    f58c:	3c1f4000 	lui	ra,0x4000
    f590:	3c088000 	lui	t0,0x8000
    f594:	ad1f0178 	sw	ra,376(t0)
    f598:	0a001222 	j	0x8004888
    f59c:	00000000 	nop
    f5a0:	30e28000 	andi	v0,a3,0x8000
    f5a4:	1040ff52 	beqz	v0,0xf2f0
    f5a8:	8f830004 	lw	v1,4(gp)
    f5ac:	3c050020 	lui	a1,0x20
    f5b0:	00e52024 	and	a0,a3,a1
    f5b4:	1080ff4e 	beqz	a0,0xf2f0
    f5b8:	3c09ffff 	lui	t1,0xffff
    f5bc:	35287fff 	ori	t0,t1,0x7fff
    f5c0:	00e83824 	and	a3,a3,t0
    f5c4:	0a0012c9 	j	0x8004b24
    f5c8:	34638000 	ori	v1,v1,0x8000
    f5cc:	0a0012d2 	j	0x8004b48
    f5d0:	006c1024 	and	v0,v1,t4
    f5d4:	3c040800 	lui	a0,0x800
    f5d8:	8c840038 	lw	a0,56(a0)
    f5dc:	14800002 	bnez	a0,0xf5e8
    f5e0:	2489ffff 	addiu	t1,a0,-1
    f5e4:	00004821 	move	t1,zero
    f5e8:	3c038000 	lui	v1,0x8000
    f5ec:	9476010e 	lhu	s6,270(v1)
    f5f0:	32d7ffff 	andi	s7,s6,0xffff
    f5f4:	110000ea 	beqz	t0,0xf9a0
    f5f8:	26f60004 	addiu	s6,s7,4
    f5fc:	3c120800 	lui	s2,0x800
    f600:	8e520030 	lw	s2,48(s2)
    f604:	1240000a 	beqz	s2,0xf630
    f608:	30ea0100 	andi	t2,a3,0x100
    f60c:	8f990004 	lw	t9,4(gp)
    f610:	33384000 	andi	t8,t9,0x4000
    f614:	13000006 	beqz	t8,0xf630
    f618:	3c030f00 	lui	v1,0xf00
    f61c:	00e34024 	and	t0,a3,v1
    f620:	3c020100 	lui	v0,0x100
    f624:	0048f82b 	sltu	ra,v0,t0
    f628:	13e000d2 	beqz	ra,0xf974
    f62c:	32c5ffff 	andi	a1,s6,0xffff
    f630:	1140002f 	beqz	t2,0xf6f0
    f634:	3c0c0f00 	lui	t4,0xf00
    f638:	00ec3024 	and	a2,a3,t4
    f63c:	3c0b0200 	lui	t3,0x200
    f640:	10cb002b 	beq	a2,t3,0xf6f0
    f644:	8f8f000c 	lw	t7,12(gp)
    f648:	3c0e0800 	lui	t6,0x800
    f64c:	25ce0038 	addiu	t6,t6,56
    f650:	32d2ffff 	andi	s2,s6,0xffff
    f654:	01e92824 	and	a1,t7,t1
    f658:	00ae6821 	addu	t5,a1,t6
    f65c:	91a90004 	lbu	t1,4(t5)
    f660:	25270004 	addiu	a3,t1,4
    f664:	000721c0 	sll	a0,a3,0x7
    f668:	02402821 	move	a1,s2
    f66c:	36660002 	ori	a2,s3,0x2
    f670:	0e000f55 	jal	0x8003d54
    f674:	00000000 	nop
    f678:	0a001367 	j	0x8004d9c
    f67c:	00001021 	move	v0,zero
    f680:	0a0012ea 	j	0x8004ba8
    f684:	24120020 	li	s2,32
    f688:	3c030800 	lui	v1,0x800
    f68c:	8c6300d8 	lw	v1,216(v1)
    f690:	02a02821 	move	a1,s5
    f694:	24040080 	li	a0,128
    f698:	24620001 	addiu	v0,v1,1
    f69c:	3c010800 	lui	at,0x800
    f6a0:	ac2200d8 	sw	v0,216(at)
    f6a4:	0e000f55 	jal	0x8003d54
    f6a8:	24060003 	li	a2,3
    f6ac:	0a001367 	j	0x8004d9c
    f6b0:	00001021 	move	v0,zero
    f6b4:	8c840140 	lw	a0,320(a0)
    f6b8:	01002821 	move	a1,t0
    f6bc:	3c038000 	lui	v1,0x8000
    f6c0:	8c7f01b8 	lw	ra,440(v1)
    f6c4:	07e0fffe 	bltz	ra,0xf6c0
    f6c8:	2402001c 	li	v0,28
    f6cc:	aca40000 	sw	a0,0(a1)
    f6d0:	a0a2000b 	sb	v0,11(a1)
    f6d4:	3c081000 	lui	t0,0x1000
    f6d8:	ac6801b8 	sw	t0,440(v1)
    f6dc:	3c1f4000 	lui	ra,0x4000
    f6e0:	3c088000 	lui	t0,0x8000
    f6e4:	ad1f0178 	sw	ra,376(t0)
    f6e8:	0a001222 	j	0x8004888
    f6ec:	00000000 	nop
    f6f0:	3c030800 	lui	v1,0x800
    f6f4:	8c6300d0 	lw	v1,208(v1)
    f6f8:	2ea5000c 	sltiu	a1,s5,12
    f6fc:	001521c0 	sll	a0,s5,0x7
    f700:	38780001 	xori	t8,v1,0x1
    f704:	2f120001 	sltiu	s2,t8,1
    f708:	0245b824 	and	s7,s2,a1
    f70c:	16e0ffd6 	bnez	s7,0xf668
    f710:	32d2ffff 	andi	s2,s6,0xffff
    f714:	26b9fffc 	addiu	t9,s5,-4
    f718:	2f240004 	sltiu	a0,t9,4
    f71c:	14800008 	bnez	a0,0xf740
    f720:	00002021 	move	a0,zero
    f724:	38680002 	xori	t0,v1,0x2
    f728:	2d020001 	sltiu	v0,t0,1
    f72c:	0045f824 	and	ra,v0,a1
    f730:	13e00006 	beqz	ra,0xf74c
    f734:	00075a42 	srl	t3,a3,0x9
    f738:	32d2ffff 	andi	s2,s6,0xffff
    f73c:	00002021 	move	a0,zero
    f740:	02402821 	move	a1,s2
    f744:	0a0013aa 	j	0x8004ea8
    f748:	36660002 	ori	a2,s3,0x2
    f74c:	0015182b 	sltu	v1,zero,s5
    f750:	01635024 	and	t2,t3,v1
    f754:	15400005 	bnez	t2,0xf76c
    f758:	32d2ffff 	andi	s2,s6,0xffff
    f75c:	001521c0 	sll	a0,s5,0x7
    f760:	02402821 	move	a1,s2
    f764:	0a0013aa 	j	0x8004ea8
    f768:	36660002 	ori	a2,s3,0x2
    f76c:	00002021 	move	a0,zero
    f770:	02402821 	move	a1,s2
    f774:	0e000f55 	jal	0x8003d54
    f778:	3266fffb 	andi	a2,s3,0xfffb
    f77c:	0a0013e6 	j	0x8004f98
    f780:	001521c0 	sll	a0,s5,0x7
    f784:	10930068 	beq	a0,s3,0xf928
    f788:	00076880 	sll	t5,a3,0x2
    f78c:	2406000b 	li	a2,11
    f790:	1486fe6d 	bne	a0,a2,0xf148
    f794:	000719c0 	sll	v1,a3,0x7
    f798:	0007c080 	sll	t8,a3,0x2
    f79c:	3c190801 	lui	t9,0x801
    f7a0:	273982c0 	addiu	t9,t9,-32064
    f7a4:	03193021 	addu	a2,t8,t9
    f7a8:	0a001260 	j	0x8004980
    f7ac:	a0c00001 	sb	zero,1(a2)
    f7b0:	34d50002 	ori	s5,a2,0x2
    f7b4:	02e02021 	move	a0,s7
    f7b8:	30a5ffff 	andi	a1,a1,0xffff
    f7bc:	0e000f55 	jal	0x8003d54
    f7c0:	32a6ffff 	andi	a2,s5,0xffff
    f7c4:	0a001350 	j	0x8004d40
    f7c8:	00002021 	move	a0,zero
    f7cc:	0007a080 	sll	s4,a3,0x2
    f7d0:	3c1f0801 	lui	ra,0x801
    f7d4:	27ff82c0 	addiu	ra,ra,-32064
    f7d8:	029f1021 	addu	v0,s4,ra
    f7dc:	90570000 	lbu	s7,0(v0)
    f7e0:	12e0fe59 	beqz	s7,0xf148
    f7e4:	000719c0 	sll	v1,a3,0x7
    f7e8:	a0400000 	sb	zero,0(v0)
    f7ec:	8f8a0018 	lw	t2,24(gp)
    f7f0:	2542ffff 	addiu	v0,t2,-1
    f7f4:	1440fe54 	bnez	v0,0xf148
    f7f8:	af820018 	sw	v0,24(gp)
    f7fc:	000719c0 	sll	v1,a3,0x7
    f800:	0a001260 	j	0x8004980
    f804:	af80001c 	sw	zero,28(gp)
    f808:	0e000fbc 	jal	0x8003ef0
    f80c:	00000000 	nop
    f810:	0a0012e2 	j	0x8004b88
    f814:	8f870000 	lw	a3,0(gp)
    f818:	1460fef7 	bnez	v1,0xf3f8
    f81c:	3c060001 	lui	a2,0x1
    f820:	26a90004 	addiu	t1,s5,4
    f824:	3125ffff 	andi	a1,t1,0xffff
    f828:	36660002 	ori	a2,s3,0x2
    f82c:	3c038000 	lui	v1,0x8000
    f830:	8c7501b8 	lw	s5,440(v1)
    f834:	06a0fffe 	bltz	s5,0xf830
    f838:	8f890008 	lw	t1,8(gp)
    f83c:	3c0a8000 	lui	t2,0x8000
    f840:	35440180 	ori	a0,t2,0x180
    f844:	ac800000 	sw	zero,0(a0)
    f848:	1120009b 	beqz	t1,0xfab8
    f84c:	24180003 	li	t8,3
    f850:	24ac0012 	addiu	t4,a1,18
    f854:	012c582b 	sltu	t3,t1,t4
    f858:	11600097 	beqz	t3,0xfab8
    f85c:	00000000 	nop
    f860:	94720120 	lhu	s2,288(v1)
    f864:	3c138000 	lui	s3,0x8000
    f868:	240f001a 	li	t7,26
    f86c:	324effff 	andi	t6,s2,0xffff
    f870:	366a0180 	ori	t2,s3,0x180
    f874:	30ed4000 	andi	t5,a3,0x4000
    f878:	a14f000b 	sb	t7,11(t2)
    f87c:	11a00091 	beqz	t5,0xfac4
    f880:	25c3fffe 	addiu	v1,t6,-2
    f884:	0123b02b 	sltu	s6,t1,v1
    f888:	16c0008f 	bnez	s6,0xfac8
    f88c:	2417fffe 	li	s7,-2
    f890:	35080001 	ori	t0,t0,0x1
    f894:	a5430014 	sh	v1,20(t2)
    f898:	af880004 	sw	t0,4(gp)
    f89c:	241fbfff 	li	ra,-16385
    f8a0:	011fc824 	and	t9,t0,ra
    f8a4:	24080002 	li	t0,2
    f8a8:	a7c8000c 	sh	t0,12(s8)
    f8ac:	a7c5000e 	sh	a1,14(s8)
    f8b0:	a7c60008 	sh	a2,8(s8)
    f8b4:	a7d90026 	sh	t9,38(s8)
    f8b8:	a7c70010 	sh	a3,16(s8)
    f8bc:	3c071000 	lui	a3,0x1000
    f8c0:	ae2701b8 	sw	a3,440(s1)
    f8c4:	0a001367 	j	0x8004d9c
    f8c8:	00001021 	move	v0,zero
    f8cc:	24040100 	li	a0,256
    f8d0:	02402821 	move	a1,s2
    f8d4:	0e000f55 	jal	0x8003d54
    f8d8:	02603021 	move	a2,s3
    f8dc:	0a00133c 	j	0x8004cf0
    f8e0:	00000000 	nop
    f8e4:	91030001 	lbu	v1,1(t0)
    f8e8:	24150001 	li	s5,1
    f8ec:	1075ff06 	beq	v1,s5,0xf508
    f8f0:	24040001 	li	a0,1
    f8f4:	24120002 	li	s2,2
    f8f8:	1472fee1 	bne	v1,s2,0xf480
    f8fc:	0000b821 	move	s7,zero
    f900:	30f60040 	andi	s6,a3,0x40
    f904:	52c0fedf 	beqzl	s6,0xf484
    f908:	8f89001c 	lw	t1,28(gp)
    f90c:	95270110 	lhu	a3,272(t1)
    f910:	95180002 	lhu	t8,2(t0)
    f914:	30f7ffff 	andi	s7,a3,0xffff
    f918:	1317fefb 	beq	t8,s7,0xf508
    f91c:	0000b821 	move	s7,zero
    f920:	0a00132f 	j	0x8004cbc
    f924:	8f89001c 	lw	t1,28(gp)
    f928:	3c120801 	lui	s2,0x801
    f92c:	265282c0 	addiu	s2,s2,-32064
    f930:	01b27021 	addu	t6,t5,s2
    f934:	00067a02 	srl	t7,a2,0x8
    f938:	a1cf0001 	sb	t7,1(t6)
    f93c:	3c0b6000 	lui	t3,0x6000
    f940:	8d631820 	lw	v1,6176(t3)
    f944:	24100001 	li	s0,1
    f948:	00f09804 	sllv	s3,s0,a3
    f94c:	3c050801 	lui	a1,0x801
    f950:	24a582c2 	addiu	a1,a1,-32062
    f954:	0073b025 	or	s6,v1,s3
    f958:	01a5a821 	addu	s5,t5,a1
    f95c:	00066402 	srl	t4,a2,0x10
    f960:	000719c0 	sll	v1,a3,0x7
    f964:	a6ac0000 	sh	t4,0(s5)
    f968:	ad761820 	sw	s6,6176(t3)
    f96c:	0a001261 	j	0x8004984
    f970:	3c058000 	lui	a1,0x8000
    f974:	36660002 	ori	a2,s3,0x2
    f978:	0e000f55 	jal	0x8003d54
    f97c:	24040080 	li	a0,128
    f980:	0a001367 	j	0x8004d9c
    f984:	00001021 	move	v0,zero
    f988:	0003a080 	sll	s4,v1,0x2
    f98c:	02869821 	addu	s3,s4,a2
    f990:	8e720004 	lw	s2,4(s3)
    f994:	3c116000 	lui	s1,0x6000
    f998:	0a00120f 	j	0x800483c
    f99c:	02512821 	addu	a1,s2,s1
    f9a0:	8c664000 	lw	a2,16384(v1)
    f9a4:	30d50100 	andi	s5,a2,0x100
    f9a8:	12a00037 	beqz	s5,0xfa88
    f9ac:	30ec0100 	andi	t4,a3,0x100
    f9b0:	3c150800 	lui	s5,0x800
    f9b4:	8eb50024 	lw	s5,36(s5)
    f9b8:	11800013 	beqz	t4,0xfa08
    f9bc:	32770004 	andi	s7,s3,0x4
    f9c0:	3c050f00 	lui	a1,0xf00
    f9c4:	00e56824 	and	t5,a3,a1
    f9c8:	3c070200 	lui	a3,0x200
    f9cc:	11a7000e 	beq	t5,a3,0xfa08
    f9d0:	8f84000c 	lw	a0,12(gp)
    f9d4:	3c180800 	lui	t8,0x800
    f9d8:	27180038 	addiu	t8,t8,56
    f9dc:	02603021 	move	a2,s3
    f9e0:	00899024 	and	s2,a0,t1
    f9e4:	02587821 	addu	t7,s2,t8
    f9e8:	91ee0004 	lbu	t6,4(t7)
    f9ec:	32c5ffff 	andi	a1,s6,0xffff
    f9f0:	3272fffb 	andi	s2,s3,0xfffb
    f9f4:	25c90004 	addiu	t1,t6,4
    f9f8:	000921c0 	sll	a0,t1,0x7
    f9fc:	0e000f55 	jal	0x8003d54
    fa00:	2413fffe 	li	s3,-2
    fa04:	02b3a824 	and	s5,s5,s3
    fa08:	24190001 	li	t9,1
    fa0c:	12b90030 	beq	s5,t9,0xfad0
    fa10:	32a20001 	andi	v0,s5,0x1
    fa14:	10400007 	beqz	v0,0xfa34
    fa18:	32a80004 	andi	t0,s5,0x4
    fa1c:	02403021 	move	a2,s2
    fa20:	00002021 	move	a0,zero
    fa24:	0e000f55 	jal	0x8003d54
    fa28:	32c5ffff 	andi	a1,s6,0xffff
    fa2c:	3252fffb 	andi	s2,s2,0xfffb
    fa30:	32a80004 	andi	t0,s5,0x4
    fa34:	11000004 	beqz	t0,0xfa48
    fa38:	8f8b0000 	lw	t3,0(gp)
    fa3c:	316a0800 	andi	t2,t3,0x800
    fa40:	5540002b 	bnezl	t2,0xfaf0
    fa44:	32c5ffff 	andi	a1,s6,0xffff
    fa48:	16e0fec6 	bnez	s7,0xf564
    fa4c:	00001021 	move	v0,zero
    fa50:	3c168000 	lui	s6,0x8000
    fa54:	36c40180 	ori	a0,s6,0x180
    fa58:	3c058000 	lui	a1,0x8000
    fa5c:	8ca301b8 	lw	v1,440(a1)
    fa60:	0460fffe 	bltz	v1,0xfa5c
    fa64:	240c2000 	li	t4,8192
    fa68:	24060002 	li	a2,2
    fa6c:	a48c0008 	sh	t4,8(a0)
    fa70:	a086000b 	sb	a2,11(a0)
    fa74:	a4800010 	sh	zero,16(a0)
    fa78:	3c151000 	lui	s5,0x1000
    fa7c:	acb501b8 	sw	s5,440(a1)
    fa80:	0a001367 	j	0x8004d9c
    fa84:	00001021 	move	v0,zero
    fa88:	3c0d0800 	lui	t5,0x800
    fa8c:	8dad0024 	lw	t5,36(t5)
    fa90:	31a70001 	andi	a3,t5,0x1
    fa94:	50e0feb3 	beqzl	a3,0xf564
    fa98:	00001021 	move	v0,zero
    fa9c:	32c5ffff 	andi	a1,s6,0xffff
    faa0:	36660002 	ori	a2,s3,0x2
    faa4:	00002021 	move	a0,zero
    faa8:	0e000f55 	jal	0x8003d54
    faac:	00000000 	nop
    fab0:	0a001367 	j	0x8004d9c
    fab4:	00001021 	move	v0,zero
    fab8:	a3d8000b 	sb	t8,11(s8)
    fabc:	0a001436 	j	0x80050d8
    fac0:	241fbfff 	li	ra,-16385
    fac4:	2417fffe 	li	s7,-2
    fac8:	0a001434 	j	0x80050d0
    facc:	01174024 	and	t0,t0,s7
    fad0:	32570004 	andi	s7,s2,0x4
    fad4:	16e00003 	bnez	s7,0xfae4
    fad8:	32c5ffff 	andi	a1,s6,0xffff
    fadc:	365f0002 	ori	ra,s2,0x2
    fae0:	33f2ffff 	andi	s2,ra,0xffff
    fae4:	02403021 	move	a2,s2
    fae8:	0a0014b8 	j	0x80052e0
    faec:	00002021 	move	a0,zero
    faf0:	02403021 	move	a2,s2
    faf4:	0e000f55 	jal	0x8003d54
    faf8:	24040100 	li	a0,256
    fafc:	0a0014a0 	j	0x8005280
    fb00:	00000000 	nop
    fb04:	3c038000 	lui	v1,0x8000
    fb08:	8c640100 	lw	a0,256(v1)
    fb0c:	3082003e 	andi	v0,a0,0x3e
    fb10:	14400008 	bnez	v0,0xfb34
    fb14:	00000000 	nop
    fb18:	ac600048 	sw	zero,72(v1)
    fb1c:	8c660100 	lw	a2,256(v1)
    fb20:	30c507c0 	andi	a1,a2,0x7c0
    fb24:	10a00005 	beqz	a1,0xfb3c
    fb28:	00000000 	nop
    fb2c:	ac60004c 	sw	zero,76(v1)
    fb30:	ac600050 	sw	zero,80(v1)
    fb34:	03e00008 	jr	ra
    fb38:	24020001 	li	v0,1
    fb3c:	ac600054 	sw	zero,84(v1)
    fb40:	ac600040 	sw	zero,64(v1)
    fb44:	8c680100 	lw	t0,256(v1)
    fb48:	31073800 	andi	a3,t0,0x3800
    fb4c:	10e0fff9 	beqz	a3,0xfb34
    fb50:	00000000 	nop
    fb54:	24020001 	li	v0,1
    fb58:	03e00008 	jr	ra
    fb5c:	ac600044 	sw	zero,68(v1)
    fb60:	3c039000 	lui	v1,0x9000
    fb64:	34620001 	ori	v0,v1,0x1
    fb68:	00822025 	or	a0,a0,v0
    fb6c:	3c038000 	lui	v1,0x8000
    fb70:	ac640020 	sw	a0,32(v1)
    fb74:	8c650020 	lw	a1,32(v1)
    fb78:	04a0fffe 	bltz	a1,0xfb74
    fb7c:	00000000 	nop
    fb80:	03e00008 	jr	ra
    fb84:	00000000 	nop
    fb88:	3c028000 	lui	v0,0x8000
    fb8c:	34430001 	ori	v1,v0,0x1
    fb90:	00832025 	or	a0,a0,v1
    fb94:	03e00008 	jr	ra
    fb98:	ac440020 	sw	a0,32(v0)
    fb9c:	27bdffd8 	addiu	sp,sp,-40
    fba0:	afb10014 	sw	s1,20(sp)
    fba4:	3c048000 	lui	a0,0x8000
    fba8:	afbf0020 	sw	ra,32(sp)
    fbac:	afb3001c 	sw	s3,28(sp)
    fbb0:	afb20018 	sw	s2,24(sp)
    fbb4:	afb00010 	sw	s0,16(sp)
    fbb8:	8c920140 	lw	s2,320(a0)
    fbbc:	8c900148 	lw	s0,328(a0)
    fbc0:	2402000e 	li	v0,14
    fbc4:	00108c02 	srl	s1,s0,0x10
    fbc8:	322300ff 	andi	v1,s1,0xff
    fbcc:	10620059 	beq	v1,v0,0xfd34
    fbd0:	02042824 	and	a1,s0,a0
    fbd4:	2866000f 	slti	a2,v1,15
    fbd8:	10c00013 	beqz	a2,0xfc28
    fbdc:	286a0037 	slti	t2,v1,55
    fbe0:	24070006 	li	a3,6
    fbe4:	1067008e 	beq	v1,a3,0xfe20
    fbe8:	28680007 	slti	t0,v1,7
    fbec:	5100002d 	beqzl	t0,0xfca4
    fbf0:	24040009 	li	a0,9
    fbf4:	10600078 	beqz	v1,0xfdd8
    fbf8:	3c068000 	lui	a2,0x8000
    fbfc:	24090001 	li	t1,1
    fc00:	106900b0 	beq	v1,t1,0xfec4
    fc04:	00000000 	nop
    fc08:	0000000d 	break
    fc0c:	8fbf0020 	lw	ra,32(sp)
    fc10:	8fb3001c 	lw	s3,28(sp)
    fc14:	8fb20018 	lw	s2,24(sp)
    fc18:	8fb10014 	lw	s1,20(sp)
    fc1c:	8fb00010 	lw	s0,16(sp)
    fc20:	03e00008 	jr	ra
    fc24:	27bd0028 	addiu	sp,sp,40
    fc28:	11400059 	beqz	t2,0xfd90
    fc2c:	240d0038 	li	t5,56
    fc30:	286b0035 	slti	t3,v1,53
    fc34:	11600005 	beqz	t3,0xfc4c
    fc38:	3c058000 	lui	a1,0x8000
    fc3c:	240c001f 	li	t4,31
    fc40:	146cfff1 	bne	v1,t4,0xfc08
    fc44:	00000000 	nop
    fc48:	3c058000 	lui	a1,0x8000
    fc4c:	8cb801b8 	lw	t8,440(a1)
    fc50:	0700fffe 	bltz	t8,0xfc4c
    fc54:	34b90180 	ori	t9,a1,0x180
    fc58:	af320000 	sw	s2,0(t9)
    fc5c:	241f0001 	li	ra,1
    fc60:	24120002 	li	s2,2
    fc64:	3c021000 	lui	v0,0x1000
    fc68:	af200004 	sw	zero,4(t9)
    fc6c:	a7310008 	sh	s1,8(t9)
    fc70:	a33f000a 	sb	ra,10(t9)
    fc74:	a332000b 	sb	s2,11(t9)
    fc78:	a7300010 	sh	s0,16(t9)
    fc7c:	af200024 	sw	zero,36(t9)
    fc80:	af200028 	sw	zero,40(t9)
    fc84:	aca201b8 	sw	v0,440(a1)
    fc88:	8fbf0020 	lw	ra,32(sp)
    fc8c:	8fb3001c 	lw	s3,28(sp)
    fc90:	8fb20018 	lw	s2,24(sp)
    fc94:	8fb10014 	lw	s1,20(sp)
    fc98:	8fb00010 	lw	s0,16(sp)
    fc9c:	03e00008 	jr	ra
    fca0:	27bd0028 	addiu	sp,sp,40
    fca4:	10640023 	beq	v1,a0,0xfd34
    fca8:	2405000b 	li	a1,11
    fcac:	1465ffd6 	bne	v1,a1,0xfc08
    fcb0:	3218ffff 	andi	t8,s0,0xffff
    fcb4:	17000020 	bnez	t8,0xfd38
    fcb8:	3c058000 	lui	a1,0x8000
    fcbc:	8f93fed0 	lw	s3,-304(gp)
    fcc0:	927f0005 	lbu	ra,5(s3)
    fcc4:	33f90004 	andi	t9,ra,0x4
    fcc8:	1720ffcf 	bnez	t9,0xfc08
    fccc:	00000000 	nop
    fcd0:	0e0014e6 	jal	0x8005398
    fcd4:	02402021 	move	a0,s2
    fcd8:	92690005 	lbu	t1,5(s3)
    fcdc:	02402021 	move	a0,s2
    fce0:	35280004 	ori	t0,t1,0x4
    fce4:	0e0014f0 	jal	0x80053c0
    fce8:	a2680005 	sb	t0,5(s3)
    fcec:	92670005 	lbu	a3,5(s3)
    fcf0:	30e20004 	andi	v0,a3,0x4
    fcf4:	14400002 	bnez	v0,0xfd00
    fcf8:	00000000 	nop
    fcfc:	0000000d 	break
    fd00:	926b0000 	lbu	t3,0(s3)
    fd04:	24060020 	li	a2,32
    fd08:	316a00ff 	andi	t2,t3,0xff
    fd0c:	1546000a 	bne	t2,a2,0xfd38
    fd10:	3c058000 	lui	a1,0x8000
    fd14:	8ca401b8 	lw	a0,440(a1)
    fd18:	0480fffe 	bltz	a0,0xfd14
    fd1c:	34ad0180 	ori	t5,a1,0x180
    fd20:	240e0005 	li	t6,5
    fd24:	3c0c1000 	lui	t4,0x1000
    fd28:	adb20000 	sw	s2,0(t5)
    fd2c:	a1ae000b 	sb	t6,11(t5)
    fd30:	acac01b8 	sw	t4,440(a1)
    fd34:	3c058000 	lui	a1,0x8000
    fd38:	8ca301b8 	lw	v1,440(a1)
    fd3c:	0460fffe 	bltz	v1,0xfd38
    fd40:	34af0180 	ori	t7,a1,0x180
    fd44:	24130002 	li	s3,2
    fd48:	adf20000 	sw	s2,0(t7)
    fd4c:	adf20004 	sw	s2,4(t7)
    fd50:	a5f10008 	sh	s1,8(t7)
    fd54:	a1f3000a 	sb	s3,10(t7)
    fd58:	a1f3000b 	sb	s3,11(t7)
    fd5c:	a5f00010 	sh	s0,16(t7)
    fd60:	ade00024 	sw	zero,36(t7)
    fd64:	8cb10144 	lw	s1,324(a1)
    fd68:	3c101000 	lui	s0,0x1000
    fd6c:	adf10028 	sw	s1,40(t7)
    fd70:	acb001b8 	sw	s0,440(a1)
    fd74:	8fbf0020 	lw	ra,32(sp)
    fd78:	8fb3001c 	lw	s3,28(sp)
    fd7c:	8fb20018 	lw	s2,24(sp)
    fd80:	8fb10014 	lw	s1,20(sp)
    fd84:	8fb00010 	lw	s0,16(sp)
    fd88:	03e00008 	jr	ra
    fd8c:	27bd0028 	addiu	sp,sp,40
    fd90:	106dffad 	beq	v1,t5,0xfc48
    fd94:	240e0080 	li	t6,128
    fd98:	146eff9b 	bne	v1,t6,0xfc08
    fd9c:	00000000 	nop
    fda0:	3c058000 	lui	a1,0x8000
    fda4:	8ca301b8 	lw	v1,440(a1)
    fda8:	0460fffe 	bltz	v1,0xfda4
    fdac:	34af0180 	ori	t7,a1,0x180
    fdb0:	24120002 	li	s2,2
    fdb4:	a1f2000b 	sb	s2,11(t7)
    fdb8:	a5f10008 	sh	s1,8(t7)
    fdbc:	a5f00010 	sh	s0,16(t7)
    fdc0:	8cb30144 	lw	s3,324(a1)
    fdc4:	3c021000 	lui	v0,0x1000
    fdc8:	a5f30012 	sh	s3,18(t7)
    fdcc:	aca201b8 	sw	v0,440(a1)
    fdd0:	0a001531 	j	0x80054c4
    fdd4:	8fbf0020 	lw	ra,32(sp)
    fdd8:	8cc301b8 	lw	v1,440(a2)
    fddc:	0460fffe 	bltz	v1,0xfdd8
    fde0:	34d30180 	ori	s3,a2,0x180
    fde4:	ae720000 	sw	s2,0(s3)
    fde8:	ae600004 	sw	zero,4(s3)
    fdec:	24120001 	li	s2,1
    fdf0:	a6710008 	sh	s1,8(s3)
    fdf4:	24110002 	li	s1,2
    fdf8:	a272000a 	sb	s2,10(s3)
    fdfc:	a271000b 	sb	s1,11(s3)
    fe00:	a6700010 	sh	s0,16(s3)
    fe04:	8cd00144 	lw	s0,324(a2)
    fe08:	3c0f1000 	lui	t7,0x1000
    fe0c:	ae700024 	sw	s0,36(s3)
    fe10:	ae600028 	sw	zero,40(s3)
    fe14:	accf01b8 	sw	t7,440(a2)
    fe18:	0a00156c 	j	0x80055b0
    fe1c:	8fbf0020 	lw	ra,32(sp)
    fe20:	3c038000 	lui	v1,0x8000
    fe24:	8c6601b8 	lw	a2,440(v1)
    fe28:	04c0fffe 	bltz	a2,0xfe24
    fe2c:	34620180 	ori	v0,v1,0x180
    fe30:	3c060801 	lui	a2,0x801
    fe34:	90c68300 	lbu	a2,-32000(a2)
    fe38:	ac520000 	sw	s2,0(v0)
    fe3c:	10c00003 	beqz	a2,0xfe4c
    fe40:	00003821 	move	a3,zero
    fe44:	3c070801 	lui	a3,0x801
    fe48:	8ce78308 	lw	a3,-31992(a3)
    fe4c:	3c058000 	lui	a1,0x8000
    fe50:	34aa0180 	ori	t2,a1,0x180
    fe54:	24040002 	li	a0,2
    fe58:	34cc0001 	ori	t4,a2,0x1
    fe5c:	ac470004 	sw	a3,4(v0)
    fe60:	a5510008 	sh	s1,8(t2)
    fe64:	a14c000a 	sb	t4,10(t2)
    fe68:	a144000b 	sb	a0,11(t2)
    fe6c:	a5500010 	sh	s0,16(t2)
    fe70:	8cab0144 	lw	t3,324(a1)
    fe74:	00002021 	move	a0,zero
    fe78:	01402821 	move	a1,t2
    fe7c:	ad4b0024 	sw	t3,36(t2)
    fe80:	10c00003 	beqz	a2,0xfe90
    fe84:	8fbf0020 	lw	ra,32(sp)
    fe88:	3c040801 	lui	a0,0x801
    fe8c:	8c848304 	lw	a0,-31996(a0)
    fe90:	8fb3001c 	lw	s3,28(sp)
    fe94:	8fb20018 	lw	s2,24(sp)
    fe98:	8fb10014 	lw	s1,20(sp)
    fe9c:	8fb00010 	lw	s0,16(sp)
    fea0:	3c0e1000 	lui	t6,0x1000
    fea4:	3c0d8000 	lui	t5,0x8000
    fea8:	27bd0028 	addiu	sp,sp,40
    feac:	aca40028 	sw	a0,40(a1)
    feb0:	adae01b8 	sw	t6,440(t5)
    feb4:	3c010801 	lui	at,0x801
    feb8:	a0208300 	sb	zero,-32000(at)
    febc:	03e00008 	jr	ra
    fec0:	00000000 	nop
    fec4:	10a0000b 	beqz	a1,0xfef4
    fec8:	3c068000 	lui	a2,0x8000
    fecc:	8c980144 	lw	t8,324(a0)
    fed0:	24190002 	li	t9,2
    fed4:	3c010801 	lui	at,0x801
    fed8:	a0398300 	sb	t9,-32000(at)
    fedc:	3c010801 	lui	at,0x801
    fee0:	ac328308 	sw	s2,-31992(at)
    fee4:	3c010801 	lui	at,0x801
    fee8:	ac388304 	sw	t8,-31996(at)
    feec:	0a00156c 	j	0x80055b0
    fef0:	8fbf0020 	lw	ra,32(sp)
    fef4:	8cdf01b8 	lw	ra,440(a2)
    fef8:	07e0fffe 	bltz	ra,0xfef4
    fefc:	34c70180 	ori	a3,a2,0x180
    ff00:	24090002 	li	t1,2
    ff04:	acf20000 	sw	s2,0(a3)
    ff08:	acf20004 	sw	s2,4(a3)
    ff0c:	a4f10008 	sh	s1,8(a3)
    ff10:	a0e9000a 	sb	t1,10(a3)
    ff14:	a0e9000b 	sb	t1,11(a3)
    ff18:	a4f00010 	sh	s0,16(a3)
    ff1c:	ace00024 	sw	zero,36(a3)
    ff20:	8cc80144 	lw	t0,324(a2)
    ff24:	3c021000 	lui	v0,0x1000
    ff28:	ace80028 	sw	t0,40(a3)
    ff2c:	acc201b8 	sw	v0,440(a2)
    ff30:	0a00156c 	j	0x80055b0
    ff34:	8fbf0020 	lw	ra,32(sp)
    ff38:	27bdffe8 	addiu	sp,sp,-24
    ff3c:	afbf0010 	sw	ra,16(sp)
    ff40:	0e000f4e 	jal	0x8003d38
    ff44:	00000000 	nop
    ff48:	3c028000 	lui	v0,0x8000
    ff4c:	8fbf0010 	lw	ra,16(sp)
    ff50:	00002021 	move	a0,zero
    ff54:	ac400180 	sw	zero,384(v0)
    ff58:	0a001010 	j	0x8004040
    ff5c:	27bd0018 	addiu	sp,sp,24
    ff60:	3084ffff 	andi	a0,a0,0xffff
    ff64:	30a5ffff 	andi	a1,a1,0xffff
    ff68:	10800007 	beqz	a0,0xff88
    ff6c:	00001821 	move	v1,zero
    ff70:	30820001 	andi	v0,a0,0x1
    ff74:	10400002 	beqz	v0,0xff80
    ff78:	00042042 	srl	a0,a0,0x1
    ff7c:	00651821 	addu	v1,v1,a1
    ff80:	1480fffb 	bnez	a0,0xff70
    ff84:	00052840 	sll	a1,a1,0x1
    ff88:	03e00008 	jr	ra
    ff8c:	00601021 	move	v0,v1
    ff90:	10c00007 	beqz	a2,0xffb0
    ff94:	00000000 	nop
    ff98:	8ca20000 	lw	v0,0(a1)
    ff9c:	24c6ffff 	addiu	a2,a2,-1
    ffa0:	24a50004 	addiu	a1,a1,4
    ffa4:	ac820000 	sw	v0,0(a0)
    ffa8:	14c0fffb 	bnez	a2,0xff98
    ffac:	24840004 	addiu	a0,a0,4
    ffb0:	03e00008 	jr	ra
    ffb4:	00000000 	nop
    ffb8:	10a00008 	beqz	a1,0xffdc
    ffbc:	24a3ffff 	addiu	v1,a1,-1
    ffc0:	ac860000 	sw	a2,0(a0)
	...
    ffcc:	2402ffff 	li	v0,-1
    ffd0:	2463ffff 	addiu	v1,v1,-1
    ffd4:	1462fffa 	bne	v1,v0,0xffc0
    ffd8:	24840004 	addiu	a0,a0,4
    ffdc:	03e00008 	jr	ra
    ffe0:	00000000 	nop
    ffe4:	27bdffe8 	addiu	sp,sp,-24
    ffe8:	afbf0014 	sw	ra,20(sp)
    ffec:	afb00010 	sw	s0,16(sp)
    fff0:	0e0014e6 	jal	0x8005398
    fff4:	00808021 	move	s0,a0
    fff8:	3c048008 	lui	a0,0x8008
    fffc:	34830080 	ori	v1,a0,0x80
   10000:	90650025 	lbu	a1,37(v1)
   10004:	02002021 	move	a0,s0
   10008:	34a20020 	ori	v0,a1,0x20
   1000c:	0e0014f0 	jal	0x80053c0
   10010:	a0620025 	sb	v0,37(v1)
   10014:	02002021 	move	a0,s0
   10018:	8fbf0014 	lw	ra,20(sp)
   1001c:	8fb00010 	lw	s0,16(sp)
   10020:	0a000c9e 	j	0x8003278
   10024:	27bd0018 	addiu	sp,sp,24
   10028:	3c038000 	lui	v1,0x8000
   1002c:	27bdfff8 	addiu	sp,sp,-8
   10030:	34620180 	ori	v0,v1,0x180
   10034:	afa20000 	sw	v0,0(sp)
   10038:	308c00ff 	andi	t4,a0,0xff
   1003c:	30ad00ff 	andi	t5,a1,0xff
   10040:	30ce00ff 	andi	t6,a2,0xff
   10044:	3c0b8000 	lui	t3,0x8000
   10048:	8d6401b8 	lw	a0,440(t3)
   1004c:	0480fffe 	bltz	a0,0x10048
   10050:	00000000 	nop
   10054:	8fa90000 	lw	t1,0(sp)
   10058:	8d680128 	lw	t0,296(t3)
   1005c:	8faa0000 	lw	t2,0(sp)
   10060:	8fa70000 	lw	a3,0(sp)
   10064:	8fa40000 	lw	a0,0(sp)
   10068:	24050001 	li	a1,1
   1006c:	24020002 	li	v0,2
   10070:	a085000a 	sb	a1,10(a0)
   10074:	8fa30000 	lw	v1,0(sp)
   10078:	35994000 	ori	t9,t4,0x4000
   1007c:	3c051000 	lui	a1,0x1000
   10080:	a062000b 	sb	v0,11(v1)
   10084:	8fb80000 	lw	t8,0(sp)
   10088:	8fac0000 	lw	t4,0(sp)
   1008c:	8fa60000 	lw	a2,0(sp)
   10090:	8faf0000 	lw	t7,0(sp)
   10094:	27bd0008 	addiu	sp,sp,8
   10098:	ad280000 	sw	t0,0(t1)
   1009c:	ad400004 	sw	zero,4(t2)
   100a0:	ad800024 	sw	zero,36(t4)
   100a4:	acc00028 	sw	zero,40(a2)
   100a8:	a4f90008 	sh	t9,8(a3)
   100ac:	a70d0010 	sh	t5,16(t8)
   100b0:	a5ee0012 	sh	t6,18(t7)
   100b4:	03e00008 	jr	ra
   100b8:	ad6501b8 	sw	a1,440(t3)
   100bc:	3c068008 	lui	a2,0x8008
   100c0:	27bdffe8 	addiu	sp,sp,-24
   100c4:	34c50080 	ori	a1,a2,0x80
   100c8:	afbf0010 	sw	ra,16(sp)
   100cc:	90a70009 	lbu	a3,9(a1)
   100d0:	24020012 	li	v0,18
   100d4:	30e300ff 	andi	v1,a3,0xff
   100d8:	1062000b 	beq	v1,v0,0x10108
   100dc:	00803021 	move	a2,a0
   100e0:	8ca80050 	lw	t0,80(a1)
   100e4:	00882023 	subu	a0,a0,t0
   100e8:	04800008 	bltz	a0,0x1010c
   100ec:	8fbf0010 	lw	ra,16(sp)
   100f0:	8caa0034 	lw	t2,52(a1)
   100f4:	24040039 	li	a0,57
   100f8:	00002821 	move	a1,zero
   100fc:	00ca4823 	subu	t1,a2,t2
   10100:	05200005 	bltz	t1,0x10118
   10104:	24060012 	li	a2,18
   10108:	8fbf0010 	lw	ra,16(sp)
   1010c:	24020001 	li	v0,1
   10110:	03e00008 	jr	ra
   10114:	27bd0018 	addiu	sp,sp,24
   10118:	0e001618 	jal	0x8005860
   1011c:	00000000 	nop
   10120:	8fbf0010 	lw	ra,16(sp)
   10124:	24020001 	li	v0,1
   10128:	03e00008 	jr	ra
   1012c:	27bd0018 	addiu	sp,sp,24
   10130:	27bdffc8 	addiu	sp,sp,-56
   10134:	afb1002c 	sw	s1,44(sp)
   10138:	00a08821 	move	s1,a1
   1013c:	afb20030 	sw	s2,48(sp)
   10140:	27a50010 	addiu	a1,sp,16
   10144:	00809021 	move	s2,a0
   10148:	02202021 	move	a0,s1
   1014c:	afbf0034 	sw	ra,52(sp)
   10150:	afb00028 	sw	s0,40(sp)
   10154:	0e000ca8 	jal	0x80032a0
   10158:	afa00010 	sw	zero,16(sp)
   1015c:	1440009b 	bnez	v0,0x103cc
   10160:	3c078008 	lui	a3,0x8008
   10164:	34e40080 	ori	a0,a3,0x80
   10168:	90860008 	lbu	a2,8(a0)
   1016c:	30c50008 	andi	a1,a2,0x8
   10170:	14a00069 	bnez	a1,0x10318
   10174:	8fa70010 	lw	a3,16(sp)
   10178:	3c188008 	lui	t8,0x8008
   1017c:	37100080 	ori	s0,t8,0x80
   10180:	920f0008 	lbu	t7,8(s0)
   10184:	31ee0008 	andi	t6,t7,0x8
   10188:	15c00002 	bnez	t6,0x10194
   1018c:	24080003 	li	t0,3
   10190:	00004021 	move	t0,zero
   10194:	3c0b8008 	lui	t3,0x8008
   10198:	91650011 	lbu	a1,17(t3)
   1019c:	916a0012 	lbu	t2,18(t3)
   101a0:	35660080 	ori	a2,t3,0x80
   101a4:	8cdf0054 	lw	ra,84(a2)
   101a8:	314900ff 	andi	t1,t2,0xff
   101ac:	01282021 	addu	a0,t1,t0
   101b0:	30a300ff 	andi	v1,a1,0xff
   101b4:	00041080 	sll	v0,a0,0x2
   101b8:	00622821 	addu	a1,v1,v0
   101bc:	00bfc82b 	sltu	t9,a1,ra
   101c0:	13200008 	beqz	t9,0x101e4
   101c4:	00000000 	nop
   101c8:	94d0005c 	lhu	s0,92(a2)
   101cc:	8ccf0054 	lw	t7,84(a2)
   101d0:	320dffff 	andi	t5,s0,0xffff
   101d4:	01e57023 	subu	t6,t7,a1
   101d8:	01ae602b 	sltu	t4,t5,t6
   101dc:	11800094 	beqz	t4,0x10430
   101e0:	00000000 	nop
   101e4:	94d9005c 	lhu	t9,92(a2)
   101e8:	3323ffff 	andi	v1,t9,0xffff
   101ec:	30ff0004 	andi	ra,a3,0x4
   101f0:	13e00074 	beqz	ra,0x103c4
   101f4:	00083080 	sll	a2,t0,0x2
   101f8:	8fa8001c 	lw	t0,28(sp)
   101fc:	0068102b 	sltu	v0,v1,t0
   10200:	5040004f 	beqzl	v0,0x10340
   10204:	30e30004 	andi	v1,a3,0x4
   10208:	00661023 	subu	v0,v1,a2
   1020c:	2c460080 	sltiu	a2,v0,128
   10210:	10c00002 	beqz	a2,0x1021c
   10214:	00408021 	move	s0,v0
   10218:	24100080 	li	s0,128
   1021c:	0e0014e6 	jal	0x8005398
   10220:	02402021 	move	a0,s2
   10224:	3c038008 	lui	v1,0x8008
   10228:	34660080 	ori	a2,v1,0x80
   1022c:	24070001 	li	a3,1
   10230:	acc7000c 	sw	a3,12(a2)
   10234:	90c80008 	lbu	t0,8(a2)
   10238:	00106840 	sll	t5,s0,0x1
   1023c:	34670100 	ori	a3,v1,0x100
   10240:	311f007f 	andi	ra,t0,0x7f
   10244:	a0df0008 	sb	ra,8(a2)
   10248:	8e390004 	lw	t9,4(s1)
   1024c:	27380001 	addiu	t8,t9,1
   10250:	acd80030 	sw	t8,48(a2)
   10254:	a4d0005c 	sh	s0,92(a2)
   10258:	8ccf003c 	lw	t7,60(a2)
   1025c:	9630000e 	lhu	s0,14(s1)
   10260:	01f07021 	addu	t6,t7,s0
   10264:	acce0020 	sw	t6,32(a2)
   10268:	8ccc003c 	lw	t4,60(a2)
   1026c:	018d5821 	addu	t3,t4,t5
   10270:	accb001c 	sw	t3,28(a2)
   10274:	8e2a0004 	lw	t2,4(s1)
   10278:	acea0000 	sw	t2,0(a3)
   1027c:	8e290008 	lw	t1,8(s1)
   10280:	ace90004 	sw	t1,4(a3)
   10284:	8fa50010 	lw	a1,16(sp)
   10288:	30a40008 	andi	a0,a1,0x8
   1028c:	54800032 	bnezl	a0,0x10358
   10290:	93a60020 	lbu	a2,32(sp)
   10294:	a0c0004e 	sb	zero,78(a2)
   10298:	90c9004e 	lbu	t1,78(a2)
   1029c:	2402ffdf 	li	v0,-33
   102a0:	3c188008 	lui	t8,0x8008
   102a4:	a0e90008 	sb	t1,8(a3)
   102a8:	90c50008 	lbu	a1,8(a2)
   102ac:	370d0080 	ori	t5,t8,0x80
   102b0:	240a0050 	li	t2,80
   102b4:	00a22024 	and	a0,a1,v0
   102b8:	a0c40008 	sb	a0,8(a2)
   102bc:	8e390008 	lw	t9,8(s1)
   102c0:	adb90038 	sw	t9,56(t5)
   102c4:	8f0f0014 	lw	t7,20(t8)
   102c8:	8db00030 	lw	s0,48(t5)
   102cc:	01f07021 	addu	t6,t7,s0
   102d0:	adae0034 	sw	t6,52(t5)
   102d4:	91ac0000 	lbu	t4,0(t5)
   102d8:	318b00ff 	andi	t3,t4,0xff
   102dc:	116a002c 	beq	t3,t2,0x10390
   102e0:	26450100 	addiu	a1,s2,256
   102e4:	0e0014f0 	jal	0x80053c0
   102e8:	02402021 	move	a0,s2
   102ec:	24040038 	li	a0,56
   102f0:	00002821 	move	a1,zero
   102f4:	0e001618 	jal	0x8005860
   102f8:	2406000a 	li	a2,10
   102fc:	8fbf0034 	lw	ra,52(sp)
   10300:	8fb20030 	lw	s2,48(sp)
   10304:	8fb1002c 	lw	s1,44(sp)
   10308:	8fb00028 	lw	s0,40(sp)
   1030c:	24020001 	li	v0,1
   10310:	03e00008 	jr	ra
   10314:	27bd0038 	addiu	sp,sp,56
   10318:	30e80100 	andi	t0,a3,0x100
   1031c:	1100003d 	beqz	t0,0x10414
   10320:	8fa30014 	lw	v1,20(sp)
   10324:	8c8a0058 	lw	t2,88(a0)
   10328:	006a4823 	subu	t1,v1,t2
   1032c:	0520ff93 	bltz	t1,0x1017c
   10330:	3c188008 	lui	t8,0x8008
   10334:	ac830058 	sw	v1,88(a0)
   10338:	0a00166c 	j	0x80059b0
   1033c:	8fa70010 	lw	a3,16(sp)
   10340:	24070218 	li	a3,536
   10344:	1060ffb1 	beqz	v1,0x1020c
   10348:	00e61023 	subu	v0,a3,a2
   1034c:	8fa2001c 	lw	v0,28(sp)
   10350:	0a001691 	j	0x8005a44
   10354:	00461023 	subu	v0,v0,a2
   10358:	3c188008 	lui	t8,0x8008
   1035c:	370d0080 	ori	t5,t8,0x80
   10360:	a0e60008 	sb	a2,8(a3)
   10364:	8e390008 	lw	t9,8(s1)
   10368:	240a0050 	li	t2,80
   1036c:	adb90038 	sw	t9,56(t5)
   10370:	8f0f0014 	lw	t7,20(t8)
   10374:	8db00030 	lw	s0,48(t5)
   10378:	01f07021 	addu	t6,t7,s0
   1037c:	adae0034 	sw	t6,52(t5)
   10380:	91ac0000 	lbu	t4,0(t5)
   10384:	318b00ff 	andi	t3,t4,0xff
   10388:	156affd6 	bne	t3,t2,0x102e4
   1038c:	26450100 	addiu	a1,s2,256
   10390:	2406ff80 	li	a2,-128
   10394:	00a61024 	and	v0,a1,a2
   10398:	3c098000 	lui	t1,0x8000
   1039c:	ad220028 	sw	v0,40(t1)
   103a0:	8e270008 	lw	a3,8(s1)
   103a4:	30a3007f 	andi	v1,a1,0x7f
   103a8:	3c04800c 	lui	a0,0x800c
   103ac:	0064f821 	addu	ra,v1,a0
   103b0:	afe700d0 	sw	a3,208(ra)
   103b4:	8e280008 	lw	t0,8(s1)
   103b8:	af9f0028 	sw	ra,40(gp)
   103bc:	0a0016c7 	j	0x8005b1c
   103c0:	afe800d4 	sw	t0,212(ra)
   103c4:	0a00168e 	j	0x8005a38
   103c8:	2c620218 	sltiu	v0,v1,536
   103cc:	8e230008 	lw	v1,8(s1)
   103d0:	3c048008 	lui	a0,0x8008
   103d4:	34820080 	ori	v0,a0,0x80
   103d8:	ac430054 	sw	v1,84(v0)
   103dc:	02402021 	move	a0,s2
   103e0:	0e001607 	jal	0x800581c
   103e4:	ac400030 	sw	zero,48(v0)
   103e8:	24040038 	li	a0,56
   103ec:	2405008d 	li	a1,141
   103f0:	0e001618 	jal	0x8005860
   103f4:	24060012 	li	a2,18
   103f8:	8fbf0034 	lw	ra,52(sp)
   103fc:	8fb20030 	lw	s2,48(sp)
   10400:	8fb1002c 	lw	s1,44(sp)
   10404:	8fb00028 	lw	s0,40(sp)
   10408:	24020001 	li	v0,1
   1040c:	03e00008 	jr	ra
   10410:	27bd0038 	addiu	sp,sp,56
   10414:	ac800058 	sw	zero,88(a0)
   10418:	908c0008 	lbu	t4,8(a0)
   1041c:	240dfff7 	li	t5,-9
   10420:	018d5824 	and	t3,t4,t5
   10424:	a08b0008 	sb	t3,8(a0)
   10428:	0a00166c 	j	0x80059b0
   1042c:	8fa70010 	lw	a3,16(sp)
   10430:	8cd80054 	lw	t8,84(a2)
   10434:	0a001689 	j	0x8005a24
   10438:	03051823 	subu	v1,t8,a1
   1043c:	27bdffe8 	addiu	sp,sp,-24
   10440:	afbf0010 	sw	ra,16(sp)
   10444:	90a6000d 	lbu	a2,13(a1)
   10448:	30c70010 	andi	a3,a2,0x10
   1044c:	10e0000c 	beqz	a3,0x10480
   10450:	00804021 	move	t0,a0
   10454:	3c028008 	lui	v0,0x8008
   10458:	8c440004 	lw	a0,4(v0)
   1045c:	8ca30008 	lw	v1,8(a1)
   10460:	10640008 	beq	v1,a0,0x10484
   10464:	30c90005 	andi	t1,a2,0x5
   10468:	30c50005 	andi	a1,a2,0x5
   1046c:	10a0001c 	beqz	a1,0x104e0
   10470:	8fbf0010 	lw	ra,16(sp)
   10474:	24020001 	li	v0,1
   10478:	03e00008 	jr	ra
   1047c:	27bd0018 	addiu	sp,sp,24
   10480:	30c90005 	andi	t1,a2,0x5
   10484:	11200010 	beqz	t1,0x104c8
   10488:	30cb0012 	andi	t3,a2,0x12
   1048c:	10e0fff9 	beqz	a3,0x10474
   10490:	8fbf0010 	lw	ra,16(sp)
   10494:	3c088008 	lui	t0,0x8008
   10498:	8ca70008 	lw	a3,8(a1)
   1049c:	8d060004 	lw	a2,4(t0)
   104a0:	14e6fff5 	bne	a3,a2,0x10478
   104a4:	24020001 	li	v0,1
   104a8:	24040038 	li	a0,56
   104ac:	2405008d 	li	a1,141
   104b0:	0e001618 	jal	0x8005860
   104b4:	24060012 	li	a2,18
   104b8:	8fbf0010 	lw	ra,16(sp)
   104bc:	24020001 	li	v0,1
   104c0:	03e00008 	jr	ra
   104c4:	27bd0018 	addiu	sp,sp,24
   104c8:	240a0012 	li	t2,18
   104cc:	156affe9 	bne	t3,t2,0x10474
   104d0:	8fbf0010 	lw	ra,16(sp)
   104d4:	01002021 	move	a0,t0
   104d8:	0a00165a 	j	0x8005968
   104dc:	27bd0018 	addiu	sp,sp,24
   104e0:	00002021 	move	a0,zero
   104e4:	0a000d1a 	j	0x8003468
   104e8:	27bd0018 	addiu	sp,sp,24
   104ec:	3c050800 	lui	a1,0x800
   104f0:	24a55d68 	addiu	a1,a1,23912
   104f4:	3c040800 	lui	a0,0x800
   104f8:	24847b34 	addiu	a0,a0,31540
   104fc:	3c020800 	lui	v0,0x800
   10500:	24425d70 	addiu	v0,v0,23920
   10504:	24030006 	li	v1,6
   10508:	3c010801 	lui	at,0x801
   1050c:	ac258310 	sw	a1,-31984(at)
   10510:	3c010801 	lui	at,0x801
   10514:	ac248314 	sw	a0,-31980(at)
   10518:	3c010801 	lui	at,0x801
   1051c:	ac228318 	sw	v0,-31976(at)
   10520:	3c010801 	lui	at,0x801
   10524:	a023831c 	sb	v1,-31972(at)
   10528:	03e00008 	jr	ra
   1052c:	00000000 	nop
   10530:	03e00008 	jr	ra
   10534:	24020001 	li	v0,1
   10538:	3c028000 	lui	v0,0x8000
   1053c:	308800ff 	andi	t0,a0,0xff
   10540:	34470180 	ori	a3,v0,0x180
   10544:	3c068000 	lui	a2,0x8000
   10548:	8cc301b8 	lw	v1,440(a2)
   1054c:	0460fffe 	bltz	v1,0x10548
   10550:	00000000 	nop
   10554:	8cc50128 	lw	a1,296(a2)
   10558:	2418ff80 	li	t8,-128
   1055c:	3c0d800a 	lui	t5,0x800a
   10560:	24af0100 	addiu	t7,a1,256
   10564:	01f87024 	and	t6,t7,t8
   10568:	31ec007f 	andi	t4,t7,0x7f
   1056c:	acce0024 	sw	t6,36(a2)
   10570:	018d2021 	addu	a0,t4,t5
   10574:	ace50000 	sw	a1,0(a3)
   10578:	948b00da 	lhu	t3,218(a0)
   1057c:	35096000 	ori	t1,t0,0x6000
   10580:	24080002 	li	t0,2
   10584:	316affff 	andi	t2,t3,0xffff
   10588:	acea0004 	sw	t2,4(a3)
   1058c:	24020001 	li	v0,1
   10590:	a4e90008 	sh	t1,8(a3)
   10594:	a0e8000b 	sb	t0,11(a3)
   10598:	ace00024 	sw	zero,36(a3)
   1059c:	3c071000 	lui	a3,0x1000
   105a0:	acc701b8 	sw	a3,440(a2)
   105a4:	af840028 	sw	a0,40(gp)
   105a8:	03e00008 	jr	ra
   105ac:	af85005c 	sw	a1,92(gp)
   105b0:	8c980004 	lw	t8,4(a0)
   105b4:	8f8c0028 	lw	t4,40(gp)
   105b8:	2409ffbf 	li	t1,-65
   105bc:	03057823 	subu	t7,t8,a1
   105c0:	ac8f0004 	sw	t7,4(a0)
   105c4:	918e00c4 	lbu	t6,196(t4)
   105c8:	2403ffef 	li	v1,-17
   105cc:	31cd007f 	andi	t5,t6,0x7f
   105d0:	a18d00c4 	sb	t5,196(t4)
   105d4:	8c8b0020 	lw	t3,32(a0)
   105d8:	8f860028 	lw	a2,40(gp)
   105dc:	a780004c 	sh	zero,76(gp)
   105e0:	356a0002 	ori	t2,t3,0x2
   105e4:	a4c000ac 	sh	zero,172(a2)
   105e8:	ac8a0020 	sw	t2,32(a0)
   105ec:	90c800c4 	lbu	t0,196(a2)
   105f0:	01093824 	and	a3,t0,t1
   105f4:	a0c700c4 	sb	a3,196(a2)
   105f8:	8f840028 	lw	a0,40(gp)
   105fc:	ac8000dc 	sw	zero,220(a0)
   10600:	908500c4 	lbu	a1,196(a0)
   10604:	00a31024 	and	v0,a1,v1
   10608:	03e00008 	jr	ra
   1060c:	a08200c4 	sb	v0,196(a0)
   10610:	3c028000 	lui	v0,0x8000
   10614:	34450180 	ori	a1,v0,0x180
   10618:	3c048000 	lui	a0,0x8000
   1061c:	8c8301b8 	lw	v1,440(a0)
   10620:	0460fffe 	bltz	v1,0x1061c
   10624:	8f89005c 	lw	t1,92(gp)
   10628:	24076083 	li	a3,24707
   1062c:	24060002 	li	a2,2
   10630:	aca90000 	sw	t1,0(a1)
   10634:	8c880124 	lw	t0,292(a0)
   10638:	aca80004 	sw	t0,4(a1)
   1063c:	a4a70008 	sh	a3,8(a1)
   10640:	a0a6000b 	sb	a2,11(a1)
   10644:	3c051000 	lui	a1,0x1000
   10648:	03e00008 	jr	ra
   1064c:	ac8501b8 	sw	a1,440(a0)
   10650:	93880038 	lbu	t0,56(gp)
   10654:	8f890050 	lw	t1,80(gp)
   10658:	8f820028 	lw	v0,40(gp)
   1065c:	30c600ff 	andi	a2,a2,0xff
   10660:	01093823 	subu	a3,t0,t1
   10664:	30e900ff 	andi	t1,a3,0xff
   10668:	01221821 	addu	v1,t1,v0
   1066c:	30a500ff 	andi	a1,a1,0xff
   10670:	24680078 	addiu	t0,v1,120
   10674:	10c00002 	beqz	a2,0x10680
   10678:	01243821 	addu	a3,t1,a0
   1067c:	00803821 	move	a3,a0
   10680:	30e40003 	andi	a0,a3,0x3
   10684:	14800003 	bnez	a0,0x10694
   10688:	30aa0003 	andi	t2,a1,0x3
   1068c:	1140000d 	beqz	t2,0x106c4
   10690:	312b0003 	andi	t3,t1,0x3
   10694:	10a00009 	beqz	a1,0x106bc
   10698:	00001021 	move	v0,zero
   1069c:	90ed0000 	lbu	t5,0(a3)
   106a0:	244e0001 	addiu	t6,v0,1
   106a4:	31c200ff 	andi	v0,t6,0xff
   106a8:	0045602b 	sltu	t4,v0,a1
   106ac:	a10d0000 	sb	t5,0(t0)
   106b0:	24e70001 	addiu	a3,a3,1
   106b4:	1580fff9 	bnez	t4,0x1069c
   106b8:	25080001 	addiu	t0,t0,1
   106bc:	03e00008 	jr	ra
   106c0:	00000000 	nop
   106c4:	1560fff3 	bnez	t3,0x10694
   106c8:	00000000 	nop
   106cc:	10a0fffb 	beqz	a1,0x106bc
   106d0:	00001021 	move	v0,zero
   106d4:	8cf80000 	lw	t8,0(a3)
   106d8:	24590004 	addiu	t9,v0,4
   106dc:	332200ff 	andi	v0,t9,0xff
   106e0:	0045782b 	sltu	t7,v0,a1
   106e4:	ad180000 	sw	t8,0(t0)
   106e8:	24e70004 	addiu	a3,a3,4
   106ec:	15e0fff9 	bnez	t7,0x106d4
   106f0:	25080004 	addiu	t0,t0,4
   106f4:	03e00008 	jr	ra
   106f8:	00000000 	nop
   106fc:	93850038 	lbu	a1,56(gp)
   10700:	93880048 	lbu	t0,72(gp)
   10704:	8f870050 	lw	a3,80(gp)
   10708:	00043200 	sll	a2,a0,0x8
   1070c:	3103007f 	andi	v1,t0,0x7f
   10710:	00e5102b 	sltu	v0,a3,a1
   10714:	30c47f00 	andi	a0,a2,0x7f00
   10718:	1040000f 	beqz	v0,0x10758
   1071c:	00642825 	or	a1,v1,a0
   10720:	8f840028 	lw	a0,40(gp)
   10724:	3c098000 	lui	t1,0x8000
   10728:	8c8a00dc 	lw	t2,220(a0)
   1072c:	ad2a00a4 	sw	t2,164(t1)
   10730:	3c038000 	lui	v1,0x8000
   10734:	00a35825 	or	t3,a1,v1
   10738:	ac6b00a0 	sw	t3,160(v1)
   1073c:	8c6c00a0 	lw	t4,160(v1)
   10740:	0580fffe 	bltz	t4,0x1073c
   10744:	00000000 	nop
   10748:	8c6d00ac 	lw	t5,172(v1)
   1074c:	ac8d00dc 	sw	t5,220(a0)
   10750:	03e00008 	jr	ra
   10754:	8c6200a8 	lw	v0,168(v1)
   10758:	0a0017da 	j	0x8005f68
   1075c:	8f840028 	lw	a0,40(gp)
   10760:	93880049 	lbu	t0,73(gp)
   10764:	3c028000 	lui	v0,0x8000
   10768:	00805021 	move	t2,a0
   1076c:	310300fe 	andi	v1,t0,0xfe
   10770:	a3830049 	sb	v1,73(gp)
   10774:	30abffff 	andi	t3,a1,0xffff
   10778:	30cc00ff 	andi	t4,a2,0xff
   1077c:	30e7ffff 	andi	a3,a3,0xffff
   10780:	34480180 	ori	t0,v0,0x180
   10784:	3c098000 	lui	t1,0x8000
   10788:	8d2401b8 	lw	a0,440(t1)
   1078c:	0480fffe 	bltz	a0,0x10788
   10790:	8f8d005c 	lw	t5,92(gp)
   10794:	24180016 	li	t8,22
   10798:	ad0d0000 	sw	t5,0(t0)
   1079c:	8d220124 	lw	v0,292(t1)
   107a0:	8f8d0028 	lw	t5,40(gp)
   107a4:	ad020004 	sw	v0,4(t0)
   107a8:	8d590020 	lw	t9,32(t2)
   107ac:	a5070008 	sh	a3,8(t0)
   107b0:	240201b4 	li	v0,436
   107b4:	a119000a 	sb	t9,10(t0)
   107b8:	a118000b 	sb	t8,11(t0)
   107bc:	952f0120 	lhu	t7,288(t1)
   107c0:	8d4e0008 	lw	t6,8(t2)
   107c4:	8d470004 	lw	a3,4(t2)
   107c8:	9783004c 	lhu	v1,76(gp)
   107cc:	8d590024 	lw	t9,36(t2)
   107d0:	01cf3021 	addu	a2,t6,t7
   107d4:	00c72821 	addu	a1,a2,a3
   107d8:	00a32023 	subu	a0,a1,v1
   107dc:	2418ffff 	li	t8,-1
   107e0:	a504000c 	sh	a0,12(t0)
   107e4:	a50b000e 	sh	t3,14(t0)
   107e8:	a5020010 	sh	v0,16(t0)
   107ec:	a50c0012 	sh	t4,18(t0)
   107f0:	ad190018 	sw	t9,24(t0)
   107f4:	ad180024 	sw	t8,36(t0)
   107f8:	95af00d8 	lhu	t7,216(t5)
   107fc:	3c0b1000 	lui	t3,0x1000
   10800:	2407fff7 	li	a3,-9
   10804:	31eeffff 	andi	t6,t7,0xffff
   10808:	ad0e0028 	sw	t6,40(t0)
   1080c:	8dac0074 	lw	t4,116(t5)
   10810:	ad0c002c 	sw	t4,44(t0)
   10814:	ad2b01b8 	sw	t3,440(t1)
   10818:	8d460020 	lw	a2,32(t2)
   1081c:	00c72824 	and	a1,a2,a3
   10820:	03e00008 	jr	ra
   10824:	ad450020 	sw	a1,32(t2)
   10828:	8f880028 	lw	t0,40(gp)
   1082c:	00805821 	move	t3,a0
   10830:	30e7ffff 	andi	a3,a3,0xffff
   10834:	910900c6 	lbu	t1,198(t0)
   10838:	3c028000 	lui	v0,0x8000
   1083c:	30a5ffff 	andi	a1,a1,0xffff
   10840:	312400ff 	andi	a0,t1,0xff
   10844:	00041a00 	sll	v1,a0,0x8
   10848:	00675025 	or	t2,v1,a3
   1084c:	30c600ff 	andi	a2,a2,0xff
   10850:	34470180 	ori	a3,v0,0x180
   10854:	3c098000 	lui	t1,0x8000
   10858:	8d2c01b8 	lw	t4,440(t1)
   1085c:	0580fffe 	bltz	t4,0x10858
   10860:	8f82005c 	lw	v0,92(gp)
   10864:	240f0017 	li	t7,23
   10868:	ace20000 	sw	v0,0(a3)
   1086c:	8d390124 	lw	t9,292(t1)
   10870:	acf90004 	sw	t9,4(a3)
   10874:	8d780020 	lw	t8,32(t3)
   10878:	a4ea0008 	sh	t2,8(a3)
   1087c:	241901b4 	li	t9,436
   10880:	a0f8000a 	sb	t8,10(a3)
   10884:	a0ef000b 	sb	t7,11(a3)
   10888:	95230120 	lhu	v1,288(t1)
   1088c:	8d6e0008 	lw	t6,8(t3)
   10890:	8d6d0004 	lw	t5,4(t3)
   10894:	9784004c 	lhu	a0,76(gp)
   10898:	01c35021 	addu	t2,t6,v1
   1089c:	014d6021 	addu	t4,t2,t5
   108a0:	01841023 	subu	v0,t4,a0
   108a4:	a4e2000c 	sh	v0,12(a3)
   108a8:	a4e5000e 	sh	a1,14(a3)
   108ac:	a4f90010 	sh	t9,16(a3)
   108b0:	a4e60012 	sh	a2,18(a3)
   108b4:	ace00014 	sw	zero,20(a3)
   108b8:	8d780024 	lw	t8,36(t3)
   108bc:	240dffff 	li	t5,-1
   108c0:	acf80018 	sw	t8,24(a3)
   108c4:	8d0f006c 	lw	t7,108(t0)
   108c8:	acef001c 	sw	t7,28(a3)
   108cc:	8d0e0068 	lw	t6,104(t0)
   108d0:	3c0f1000 	lui	t7,0x1000
   108d4:	acee0020 	sw	t6,32(a3)
   108d8:	aced0024 	sw	t5,36(a3)
   108dc:	950a00ae 	lhu	t2,174(t0)
   108e0:	240dfff7 	li	t5,-9
   108e4:	3146ffff 	andi	a2,t2,0xffff
   108e8:	ace60028 	sw	a2,40(a3)
   108ec:	950c0070 	lhu	t4,112(t0)
   108f0:	95040072 	lhu	a0,114(t0)
   108f4:	31837fff 	andi	v1,t4,0x7fff
   108f8:	0003ca00 	sll	t9,v1,0x8
   108fc:	3082ffff 	andi	v0,a0,0xffff
   10900:	0322c021 	addu	t8,t9,v0
   10904:	acf8002c 	sw	t8,44(a3)
   10908:	ad2f01b8 	sw	t7,440(t1)
   1090c:	950e0072 	lhu	t6,114(t0)
   10910:	8d6a0020 	lw	t2,32(t3)
   10914:	00ae3021 	addu	a2,a1,t6
   10918:	014d2824 	and	a1,t2,t5
   1091c:	a5060072 	sh	a2,114(t0)
   10920:	03e00008 	jr	ra
   10924:	ad650020 	sw	a1,32(t3)
   10928:	3c028000 	lui	v0,0x8000
   1092c:	34460180 	ori	a2,v0,0x180
   10930:	3c058000 	lui	a1,0x8000
   10934:	8ca301b8 	lw	v1,440(a1)
   10938:	0460fffe 	bltz	v1,0x10934
   1093c:	24090018 	li	t1,24
   10940:	acc40000 	sw	a0,0(a2)
   10944:	a0c9000b 	sb	t1,11(a2)
   10948:	8f880028 	lw	t0,40(gp)
   1094c:	3c041000 	lui	a0,0x1000
   10950:	950700ae 	lhu	a3,174(t0)
   10954:	a4c70010 	sh	a3,16(a2)
   10958:	acc00030 	sw	zero,48(a2)
   1095c:	03e00008 	jr	ra
   10960:	aca401b8 	sw	a0,440(a1)
   10964:	3c028000 	lui	v0,0x8000
   10968:	34450180 	ori	a1,v0,0x180
   1096c:	3c048000 	lui	a0,0x8000
   10970:	8c8301b8 	lw	v1,440(a0)
   10974:	0460fffe 	bltz	v1,0x10970
   10978:	8f8a0034 	lw	t2,52(gp)
   1097c:	24060019 	li	a2,25
   10980:	9549001c 	lhu	t1,28(t2)
   10984:	3128ffff 	andi	t0,t1,0xffff
   10988:	000839c0 	sll	a3,t0,0x7
   1098c:	aca70000 	sw	a3,0(a1)
   10990:	a0a6000b 	sb	a2,11(a1)
   10994:	3c051000 	lui	a1,0x1000
   10998:	03e00008 	jr	ra
   1099c:	ac8501b8 	sw	a1,440(a0)
   109a0:	8f87003c 	lw	a3,60(gp)
   109a4:	00804021 	move	t0,a0
   109a8:	30c400ff 	andi	a0,a2,0xff
   109ac:	3c068000 	lui	a2,0x8000
   109b0:	8cc201b8 	lw	v0,440(a2)
   109b4:	0440fffe 	bltz	v0,0x109b0
   109b8:	8f89005c 	lw	t1,92(gp)
   109bc:	93830058 	lbu	v1,88(gp)
   109c0:	34996000 	ori	t9,a0,0x6000
   109c4:	aca90000 	sw	t1,0(a1)
   109c8:	a0a30005 	sb	v1,5(a1)
   109cc:	8ce20010 	lw	v0,16(a3)
   109d0:	240f0002 	li	t7,2
   109d4:	2403fff7 	li	v1,-9
   109d8:	a4a20006 	sh	v0,6(a1)
   109dc:	a4b90008 	sh	t9,8(a1)
   109e0:	8d180020 	lw	t8,32(t0)
   109e4:	a0b8000a 	sb	t8,10(a1)
   109e8:	a0af000b 	sb	t7,11(a1)
   109ec:	8cee0000 	lw	t6,0(a3)
   109f0:	acae0010 	sw	t6,16(a1)
   109f4:	8ced0004 	lw	t5,4(a3)
   109f8:	acad0014 	sw	t5,20(a1)
   109fc:	8cec001c 	lw	t4,28(a3)
   10a00:	acac0024 	sw	t4,36(a1)
   10a04:	8ceb0020 	lw	t3,32(a3)
   10a08:	acab0028 	sw	t3,40(a1)
   10a0c:	8cea002c 	lw	t2,44(a3)
   10a10:	3c071000 	lui	a3,0x1000
   10a14:	acaa002c 	sw	t2,44(a1)
   10a18:	8d090024 	lw	t1,36(t0)
   10a1c:	aca90018 	sw	t1,24(a1)
   10a20:	acc701b8 	sw	a3,440(a2)
   10a24:	8d050020 	lw	a1,32(t0)
   10a28:	00a32024 	and	a0,a1,v1
   10a2c:	03e00008 	jr	ra
   10a30:	ad040020 	sw	a0,32(t0)
   10a34:	93850058 	lbu	a1,88(gp)
   10a38:	24030001 	li	v1,1
   10a3c:	27bdffe8 	addiu	sp,sp,-24
   10a40:	00a33004 	sllv	a2,v1,a1
   10a44:	2ca20020 	sltiu	v0,a1,32
   10a48:	afb00010 	sw	s0,16(sp)
   10a4c:	afbf0014 	sw	ra,20(sp)
   10a50:	00c01821 	move	v1,a2
   10a54:	10400013 	beqz	v0,0x10aa4
   10a58:	2410fffe 	li	s0,-2
   10a5c:	3c070800 	lui	a3,0x800
   10a60:	8ce73190 	lw	a3,12688(a3)
   10a64:	00e61024 	and	v0,a3,a2
   10a68:	3c088000 	lui	t0,0x8000
   10a6c:	35050180 	ori	a1,t0,0x180
   10a70:	14400005 	bnez	v0,0x10a88
   10a74:	24060084 	li	a2,132
   10a78:	8f890028 	lw	t1,40(gp)
   10a7c:	240a0004 	li	t2,4
   10a80:	2410ffff 	li	s0,-1
   10a84:	a12a00ec 	sb	t2,236(t1)
   10a88:	0e001876 	jal	0x80061d8
   10a8c:	00000000 	nop
   10a90:	02001021 	move	v0,s0
   10a94:	8fbf0014 	lw	ra,20(sp)
   10a98:	8fb00010 	lw	s0,16(sp)
   10a9c:	03e00008 	jr	ra
   10aa0:	27bd0018 	addiu	sp,sp,24
   10aa4:	3c060800 	lui	a2,0x800
   10aa8:	8cc63194 	lw	a2,12692(a2)
   10aac:	0a0018a8 	j	0x80062a0
   10ab0:	00c31024 	and	v0,a2,v1
   10ab4:	8f870034 	lw	a3,52(gp)
   10ab8:	27bdffe0 	addiu	sp,sp,-32
   10abc:	afb20018 	sw	s2,24(sp)
   10ac0:	afb10014 	sw	s1,20(sp)
   10ac4:	afb00010 	sw	s0,16(sp)
   10ac8:	afbf001c 	sw	ra,28(sp)
   10acc:	30d000ff 	andi	s0,a2,0xff
   10ad0:	90e6000d 	lbu	a2,13(a3)
   10ad4:	00a08821 	move	s1,a1
   10ad8:	00809021 	move	s2,a0
   10adc:	30c5007f 	andi	a1,a2,0x7f
   10ae0:	a0e5000d 	sb	a1,13(a3)
   10ae4:	8f850028 	lw	a1,40(gp)
   10ae8:	8e230018 	lw	v1,24(s1)
   10aec:	8ca200c0 	lw	v0,192(a1)
   10af0:	1062002e 	beq	v1,v0,0x10bac
   10af4:	240a000e 	li	t2,14
   10af8:	0e00189b 	jal	0x800626c
   10afc:	a38a0058 	sb	t2,88(gp)
   10b00:	2409ffff 	li	t1,-1
   10b04:	10490022 	beq	v0,t1,0x10b90
   10b08:	2404ffff 	li	a0,-1
   10b0c:	52000020 	beqzl	s0,0x10b90
   10b10:	00002021 	move	a0,zero
   10b14:	8e260000 	lw	a2,0(s1)
   10b18:	3c0c0010 	lui	t4,0x10
   10b1c:	00cc5824 	and	t3,a2,t4
   10b20:	15600039 	bnez	t3,0x10c08
   10b24:	3c0e0008 	lui	t6,0x8
   10b28:	00ce6824 	and	t5,a2,t6
   10b2c:	55a0003f 	bnezl	t5,0x10c2c
   10b30:	02402021 	move	a0,s2
   10b34:	3c180002 	lui	t8,0x2
   10b38:	00d88024 	and	s0,a2,t8
   10b3c:	1200001f 	beqz	s0,0x10bbc
   10b40:	3c0a0004 	lui	t2,0x4
   10b44:	8f870034 	lw	a3,52(gp)
   10b48:	8ce20014 	lw	v0,20(a3)
   10b4c:	8ce30010 	lw	v1,16(a3)
   10b50:	8ce50014 	lw	a1,20(a3)
   10b54:	0043f823 	subu	ra,v0,v1
   10b58:	03e5c82b 	sltu	t9,ra,a1
   10b5c:	13200005 	beqz	t9,0x10b74
   10b60:	02402021 	move	a0,s2
   10b64:	8e24002c 	lw	a0,44(s1)
   10b68:	8cf10010 	lw	s1,16(a3)
   10b6c:	10910031 	beq	a0,s1,0x10c34
   10b70:	02402021 	move	a0,s2
   10b74:	24020012 	li	v0,18
   10b78:	a3820058 	sb	v0,88(gp)
   10b7c:	0e00189b 	jal	0x800626c
   10b80:	2412ffff 	li	s2,-1
   10b84:	10520002 	beq	v0,s2,0x10b90
   10b88:	2404ffff 	li	a0,-1
   10b8c:	00002021 	move	a0,zero
   10b90:	8fbf001c 	lw	ra,28(sp)
   10b94:	8fb20018 	lw	s2,24(sp)
   10b98:	8fb10014 	lw	s1,20(sp)
   10b9c:	8fb00010 	lw	s0,16(sp)
   10ba0:	00801021 	move	v0,a0
   10ba4:	03e00008 	jr	ra
   10ba8:	27bd0020 	addiu	sp,sp,32
   10bac:	90a800c4 	lbu	t0,196(a1)
   10bb0:	35040020 	ori	a0,t0,0x20
   10bb4:	0a0018d1 	j	0x8006344
   10bb8:	a0a400c4 	sb	a0,196(a1)
   10bbc:	00ca4824 	and	t1,a2,t2
   10bc0:	1520000b 	bnez	t1,0x10bf0
   10bc4:	8f8b0034 	lw	t3,52(gp)
   10bc8:	8f8d0034 	lw	t5,52(gp)
   10bcc:	8dac0010 	lw	t4,16(t5)
   10bd0:	1580000b 	bnez	t4,0x10c00
   10bd4:	02402021 	move	a0,s2
   10bd8:	8e2e002c 	lw	t6,44(s1)
   10bdc:	51c0ffec 	beqzl	t6,0x10b90
   10be0:	00002021 	move	a0,zero
   10be4:	02402021 	move	a0,s2
   10be8:	0a0018ec 	j	0x80063b0
   10bec:	24020017 	li	v0,23
   10bf0:	8d660010 	lw	a2,16(t3)
   10bf4:	50c0ffe6 	beqzl	a2,0x10b90
   10bf8:	00002021 	move	a0,zero
   10bfc:	02402021 	move	a0,s2
   10c00:	0a0018ec 	j	0x80063b0
   10c04:	24020011 	li	v0,17
   10c08:	02402021 	move	a0,s2
   10c0c:	24020015 	li	v0,21
   10c10:	0e00189b 	jal	0x800626c
   10c14:	a3820058 	sb	v0,88(gp)
   10c18:	240fffff 	li	t7,-1
   10c1c:	104fffdc 	beq	v0,t7,0x10b90
   10c20:	2404ffff 	li	a0,-1
   10c24:	0a0018db 	j	0x800636c
   10c28:	8e260000 	lw	a2,0(s1)
   10c2c:	0a001912 	j	0x8006448
   10c30:	24020014 	li	v0,20
   10c34:	3c080004 	lui	t0,0x4
   10c38:	00c83824 	and	a3,a2,t0
   10c3c:	50e0ffd4 	beqzl	a3,0x10b90
   10c40:	00002021 	move	a0,zero
   10c44:	02402021 	move	a0,s2
   10c48:	0a0018ec 	j	0x80063b0
   10c4c:	24020013 	li	v0,19
   10c50:	8f860028 	lw	a2,40(gp)
   10c54:	27bdffe0 	addiu	sp,sp,-32
   10c58:	afb10014 	sw	s1,20(sp)
   10c5c:	afbf0018 	sw	ra,24(sp)
   10c60:	afb00010 	sw	s0,16(sp)
   10c64:	90c300c4 	lbu	v1,196(a2)
   10c68:	30a500ff 	andi	a1,a1,0xff
   10c6c:	30620020 	andi	v0,v1,0x20
   10c70:	10400008 	beqz	v0,0x10c94
   10c74:	00808821 	move	s1,a0
   10c78:	8ccb00c0 	lw	t3,192(a2)
   10c7c:	2409ffdf 	li	t1,-33
   10c80:	256a0001 	addiu	t2,t3,1
   10c84:	acca00c0 	sw	t2,192(a2)
   10c88:	90c800c4 	lbu	t0,196(a2)
   10c8c:	01093824 	and	a3,t0,t1
   10c90:	a0c700c4 	sb	a3,196(a2)
   10c94:	14a00040 	bnez	a1,0x10d98
   10c98:	3c0c8000 	lui	t4,0x8000
   10c9c:	8f840028 	lw	a0,40(gp)
   10ca0:	908700c4 	lbu	a3,196(a0)
   10ca4:	2418ffbf 	li	t8,-65
   10ca8:	2406ffef 	li	a2,-17
   10cac:	30e3007f 	andi	v1,a3,0x7f
   10cb0:	a08300c4 	sb	v1,196(a0)
   10cb4:	979f004c 	lhu	ra,76(gp)
   10cb8:	8f820050 	lw	v0,80(gp)
   10cbc:	8f8d0028 	lw	t5,40(gp)
   10cc0:	03e2c823 	subu	t9,ra,v0
   10cc4:	a799004c 	sh	t9,76(gp)
   10cc8:	a5a000ac 	sh	zero,172(t5)
   10ccc:	91af00c4 	lbu	t7,196(t5)
   10cd0:	01f87024 	and	t6,t7,t8
   10cd4:	a1ae00c4 	sb	t6,196(t5)
   10cd8:	8f8c0028 	lw	t4,40(gp)
   10cdc:	a18000c7 	sb	zero,199(t4)
   10ce0:	8f8a0028 	lw	t2,40(gp)
   10ce4:	a5400072 	sh	zero,114(t2)
   10ce8:	ad4000dc 	sw	zero,220(t2)
   10cec:	914500c4 	lbu	a1,196(t2)
   10cf0:	00a65824 	and	t3,a1,a2
   10cf4:	a14b00c4 	sb	t3,196(t2)
   10cf8:	8f900024 	lw	s0,36(gp)
   10cfc:	8f840050 	lw	a0,80(gp)
   10d00:	9786004c 	lhu	a2,76(gp)
   10d04:	02042821 	addu	a1,s0,a0
   10d08:	10c0000f 	beqz	a2,0x10d48
   10d0c:	af850024 	sw	a1,36(gp)
   10d10:	a3800048 	sb	zero,72(gp)
   10d14:	3c078000 	lui	a3,0x8000
   10d18:	8e2c0008 	lw	t4,8(s1)
   10d1c:	94ed0120 	lhu	t5,288(a3)
   10d20:	8e2b0004 	lw	t3,4(s1)
   10d24:	018d5021 	addu	t2,t4,t5
   10d28:	014b8021 	addu	s0,t2,t3
   10d2c:	02062023 	subu	a0,s0,a2
   10d30:	3086ffff 	andi	a2,a0,0xffff
   10d34:	30c8000f 	andi	t0,a2,0xf
   10d38:	39090001 	xori	t1,t0,0x1
   10d3c:	31310001 	andi	s1,t1,0x1
   10d40:	16200009 	bnez	s1,0x10d68
   10d44:	a3880048 	sb	t0,72(gp)
   10d48:	93860038 	lbu	a2,56(gp)
   10d4c:	8fbf0018 	lw	ra,24(sp)
   10d50:	8fb10014 	lw	s1,20(sp)
   10d54:	8fb00010 	lw	s0,16(sp)
   10d58:	27bd0020 	addiu	sp,sp,32
   10d5c:	af850054 	sw	a1,84(gp)
   10d60:	03e00008 	jr	ra
   10d64:	af860050 	sw	a2,80(gp)
   10d68:	00c87023 	subu	t6,a2,t0
   10d6c:	8fbf0018 	lw	ra,24(sp)
   10d70:	93860038 	lbu	a2,56(gp)
   10d74:	8fb10014 	lw	s1,20(sp)
   10d78:	8fb00010 	lw	s0,16(sp)
   10d7c:	34ef0c00 	ori	t7,a3,0xc00
   10d80:	010f2821 	addu	a1,t0,t7
   10d84:	27bd0020 	addiu	sp,sp,32
   10d88:	acee0084 	sw	t6,132(a3)
   10d8c:	af850054 	sw	a1,84(gp)
   10d90:	03e00008 	jr	ra
   10d94:	af860050 	sw	a2,80(gp)
   10d98:	35900180 	ori	s0,t4,0x180
   10d9c:	02002821 	move	a1,s0
   10da0:	0e001876 	jal	0x80061d8
   10da4:	24060082 	li	a2,130
   10da8:	8f840028 	lw	a0,40(gp)
   10dac:	908600c4 	lbu	a2,196(a0)
   10db0:	30c50040 	andi	a1,a2,0x40
   10db4:	50a0ffba 	beqzl	a1,0x10ca0
   10db8:	a3800058 	sb	zero,88(gp)
   10dbc:	8f85003c 	lw	a1,60(gp)
   10dc0:	3c068000 	lui	a2,0x8000
   10dc4:	8ccd01b8 	lw	t5,440(a2)
   10dc8:	05a0fffe 	bltz	t5,0x10dc4
   10dcc:	8f89005c 	lw	t1,92(gp)
   10dd0:	24086082 	li	t0,24706
   10dd4:	24070002 	li	a3,2
   10dd8:	ae090000 	sw	t1,0(s0)
   10ddc:	a6080008 	sh	t0,8(s0)
   10de0:	a207000b 	sb	a3,11(s0)
   10de4:	8ca30008 	lw	v1,8(a1)
   10de8:	3c0e1000 	lui	t6,0x1000
   10dec:	ae030010 	sw	v1,16(s0)
   10df0:	8ca2000c 	lw	v0,12(a1)
   10df4:	ae020014 	sw	v0,20(s0)
   10df8:	8cbf0014 	lw	ra,20(a1)
   10dfc:	ae1f0018 	sw	ra,24(s0)
   10e00:	8cb90018 	lw	t9,24(a1)
   10e04:	ae190024 	sw	t9,36(s0)
   10e08:	8cb80024 	lw	t8,36(a1)
   10e0c:	ae180028 	sw	t8,40(s0)
   10e10:	8caf0028 	lw	t7,40(a1)
   10e14:	ae0f002c 	sw	t7,44(s0)
   10e18:	acce01b8 	sw	t6,440(a2)
   10e1c:	0a001936 	j	0x80064d8
   10e20:	a3800058 	sb	zero,88(gp)
   10e24:	8f8a0028 	lw	t2,40(gp)
   10e28:	27bdffe0 	addiu	sp,sp,-32
   10e2c:	afb10014 	sw	s1,20(sp)
   10e30:	afb00010 	sw	s0,16(sp)
   10e34:	8f880050 	lw	t0,80(gp)
   10e38:	afbf0018 	sw	ra,24(sp)
   10e3c:	9389002c 	lbu	t1,44(gp)
   10e40:	954200ac 	lhu	v0,172(t2)
   10e44:	30d100ff 	andi	s1,a2,0xff
   10e48:	0109182b 	sltu	v1,t0,t1
   10e4c:	00808021 	move	s0,a0
   10e50:	30ac00ff 	andi	t4,a1,0xff
   10e54:	3047ffff 	andi	a3,v0,0xffff
   10e58:	00005821 	move	t3,zero
   10e5c:	14600003 	bnez	v1,0x10e6c
   10e60:	310600ff 	andi	a2,t0,0xff
   10e64:	01203021 	move	a2,t1
   10e68:	01095823 	subu	t3,t0,t1
   10e6c:	9783004c 	lhu	v1,76(gp)
   10e70:	0068202b 	sltu	a0,v1,t0
   10e74:	1480001b 	bnez	a0,0x10ee4
   10e78:	00000000 	nop
   10e7c:	10680043 	beq	v1,t0,0x10f8c
   10e80:	240a0001 	li	t2,1
   10e84:	118a0048 	beq	t4,t2,0x10fa8
   10e88:	34e70880 	ori	a3,a3,0x880
   10e8c:	3165ffff 	andi	a1,t3,0xffff
   10e90:	0e001818 	jal	0x8006060
   10e94:	02002021 	move	a0,s0
   10e98:	0e001858 	jal	0x8006160
   10e9c:	8f84005c 	lw	a0,92(gp)
   10ea0:	8f840028 	lw	a0,40(gp)
   10ea4:	948d0070 	lhu	t5,112(a0)
   10ea8:	25ac0001 	addiu	t4,t5,1
   10eac:	a48c0070 	sh	t4,112(a0)
   10eb0:	948b0070 	lhu	t3,112(a0)
   10eb4:	3c060800 	lui	a2,0x800
   10eb8:	8cc63188 	lw	a2,12680(a2)
   10ebc:	31677fff 	andi	a3,t3,0x7fff
   10ec0:	10e6004f 	beq	a3,a2,0x11000
   10ec4:	00000000 	nop
   10ec8:	02002021 	move	a0,s0
   10ecc:	02202821 	move	a1,s1
   10ed0:	8fbf0018 	lw	ra,24(sp)
   10ed4:	8fb10014 	lw	s1,20(sp)
   10ed8:	8fb00010 	lw	s0,16(sp)
   10edc:	0a001922 	j	0x8006488
   10ee0:	27bd0020 	addiu	sp,sp,32
   10ee4:	914400c4 	lbu	a0,196(t2)
   10ee8:	2406ff80 	li	a2,-128
   10eec:	00868825 	or	s1,a0,a2
   10ef0:	a15100c4 	sb	s1,196(t2)
   10ef4:	9784004c 	lhu	a0,76(gp)
   10ef8:	3088ffff 	andi	t0,a0,0xffff
   10efc:	1100001c 	beqz	t0,0x10f70
   10f00:	9389002c 	lbu	t1,44(gp)
   10f04:	8f8e0028 	lw	t6,40(gp)
   10f08:	2419efff 	li	t9,-4097
   10f0c:	008bf823 	subu	ra,a0,t3
   10f10:	95d800ac 	lhu	t8,172(t6)
   10f14:	0168682b 	sltu	t5,t3,t0
   10f18:	33e900ff 	andi	t1,ra,0xff
   10f1c:	03197824 	and	t7,t8,t9
   10f20:	a5cf00ac 	sh	t7,172(t6)
   10f24:	51a0002a 	beqzl	t5,0x10fd0
   10f28:	01005821 	move	t3,t0
   10f2c:	8e050020 	lw	a1,32(s0)
   10f30:	2408fffb 	li	t0,-5
   10f34:	24030001 	li	v1,1
   10f38:	00a81024 	and	v0,a1,t0
   10f3c:	ae020020 	sw	v0,32(s0)
   10f40:	11830025 	beq	t4,v1,0x10fd8
   10f44:	34e78000 	ori	a3,a3,0x8000
   10f48:	02002021 	move	a0,s0
   10f4c:	3165ffff 	andi	a1,t3,0xffff
   10f50:	0e001818 	jal	0x8006060
   10f54:	01203021 	move	a2,t1
   10f58:	978b004c 	lhu	t3,76(gp)
   10f5c:	8f870050 	lw	a3,80(gp)
   10f60:	a780004c 	sh	zero,76(gp)
   10f64:	00eb8023 	subu	s0,a3,t3
   10f68:	af900050 	sw	s0,80(gp)
   10f6c:	9389002c 	lbu	t1,44(gp)
   10f70:	8f8c0028 	lw	t4,40(gp)
   10f74:	8fbf0018 	lw	ra,24(sp)
   10f78:	8fb10014 	lw	s1,20(sp)
   10f7c:	8fb00010 	lw	s0,16(sp)
   10f80:	27bd0020 	addiu	sp,sp,32
   10f84:	03e00008 	jr	ra
   10f88:	a18900c7 	sb	t1,199(t4)
   10f8c:	8e080020 	lw	t0,32(s0)
   10f90:	2409fffb 	li	t1,-5
   10f94:	34e78000 	ori	a3,a3,0x8000
   10f98:	01092824 	and	a1,t0,t1
   10f9c:	ae050020 	sw	a1,32(s0)
   10fa0:	158affba 	bne	t4,t2,0x10e8c
   10fa4:	34e70880 	ori	a3,a3,0x880
   10fa8:	02002021 	move	a0,s0
   10fac:	0e0017e6 	jal	0x8005f98
   10fb0:	3165ffff 	andi	a1,t3,0xffff
   10fb4:	02002021 	move	a0,s0
   10fb8:	02202821 	move	a1,s1
   10fbc:	8fbf0018 	lw	ra,24(sp)
   10fc0:	8fb10014 	lw	s1,20(sp)
   10fc4:	8fb00010 	lw	s0,16(sp)
   10fc8:	0a001922 	j	0x8006488
   10fcc:	27bd0020 	addiu	sp,sp,32
   10fd0:	0a0019d9 	j	0x8006764
   10fd4:	00004821 	move	t1,zero
   10fd8:	02002021 	move	a0,s0
   10fdc:	3165ffff 	andi	a1,t3,0xffff
   10fe0:	0e0017e6 	jal	0x8005f98
   10fe4:	01203021 	move	a2,t1
   10fe8:	978b004c 	lhu	t3,76(gp)
   10fec:	8f870050 	lw	a3,80(gp)
   10ff0:	a780004c 	sh	zero,76(gp)
   10ff4:	00eb8023 	subu	s0,a3,t3
   10ff8:	0a0019e9 	j	0x80067a4
   10ffc:	af900050 	sw	s0,80(gp)
   11000:	94890070 	lhu	t1,112(a0)
   11004:	240a8000 	li	t2,-32768
   11008:	012a4024 	and	t0,t1,t2
   1100c:	a4880070 	sh	t0,112(a0)
   11010:	90850070 	lbu	a1,112(a0)
   11014:	90990070 	lbu	t9,112(a0)
   11018:	30a200ff 	andi	v0,a1,0xff
   1101c:	000219c2 	srl	v1,v0,0x7
   11020:	0003f827 	nor	ra,zero,v1
   11024:	001fc1c0 	sll	t8,ra,0x7
   11028:	332f007f 	andi	t7,t9,0x7f
   1102c:	01f87025 	or	t6,t7,t8
   11030:	a08e0070 	sb	t6,112(a0)
   11034:	0a0019c1 	j	0x8006704
   11038:	02002021 	move	a0,s0
   1103c:	8f880028 	lw	t0,40(gp)
   11040:	24030001 	li	v1,1
   11044:	910a0078 	lbu	t2,120(t0)
   11048:	910500c7 	lbu	a1,199(t0)
   1104c:	25090078 	addiu	t1,t0,120
   11050:	3147003f 	andi	a3,t2,0x3f
   11054:	24e6ffe0 	addiu	a2,a3,-32
   11058:	00c31804 	sllv	v1,v1,a2
   1105c:	2cc20020 	sltiu	v0,a2,32
   11060:	30670019 	andi	a3,v1,0x19
   11064:	a385002c 	sb	a1,44(gp)
   11068:	1040001a 	beqz	v0,0x110d4
   1106c:	af89003c 	sw	t1,60(gp)
   11070:	3c0a8000 	lui	t2,0x8000
   11074:	354b0002 	ori	t3,t2,0x2
   11078:	24050001 	li	a1,1
   1107c:	24060001 	li	a2,1
   11080:	14e00016 	bnez	a3,0x110dc
   11084:	006b1024 	and	v0,v1,t3
   11088:	00002821 	move	a1,zero
   1108c:	1440000f 	bnez	v0,0x110cc
   11090:	30630020 	andi	v1,v1,0x20
   11094:	1060000f 	beqz	v1,0x110d4
   11098:	24050001 	li	a1,1
   1109c:	8d060074 	lw	a2,116(t0)
   110a0:	8d190074 	lw	t9,116(t0)
   110a4:	2403ff80 	li	v1,-128
   110a8:	00c31024 	and	v0,a2,v1
   110ac:	00027940 	sll	t7,v0,0x5
   110b0:	3338007f 	andi	t8,t9,0x7f
   110b4:	01f86825 	or	t5,t7,t8
   110b8:	3c0e1000 	lui	t6,0x1000
   110bc:	01ae6025 	or	t4,t5,t6
   110c0:	ad4c0830 	sw	t4,2096(t2)
   110c4:	91280001 	lbu	t0,1(t1)
   110c8:	31060001 	andi	a2,t0,0x1
   110cc:	0a001997 	j	0x800665c
   110d0:	00000000 	nop
   110d4:	03e00008 	jr	ra
   110d8:	00000000 	nop
   110dc:	8d0f0074 	lw	t7,116(t0)
   110e0:	8d0d0074 	lw	t5,116(t0)
   110e4:	2418ff80 	li	t8,-128
   110e8:	01f87024 	and	t6,t7,t8
   110ec:	000e4140 	sll	t0,t6,0x5
   110f0:	31ac007f 	andi	t4,t5,0x7f
   110f4:	010c5025 	or	t2,t0,t4
   110f8:	3c0b1000 	lui	t3,0x1000
   110fc:	014b3825 	or	a3,t2,t3
   11100:	3c098000 	lui	t1,0x8000
   11104:	0a001997 	j	0x800665c
   11108:	ad270830 	sw	a3,2096(t1)
   1110c:	27bdffd8 	addiu	sp,sp,-40
   11110:	afb00010 	sw	s0,16(sp)
   11114:	8f90003c 	lw	s0,60(gp)
   11118:	afb40020 	sw	s4,32(sp)
   1111c:	afb10014 	sw	s1,20(sp)
   11120:	afbf0024 	sw	ra,36(sp)
   11124:	afb3001c 	sw	s3,28(sp)
   11128:	afb20018 	sw	s2,24(sp)
   1112c:	8e050010 	lw	a1,16(s0)
   11130:	3c020800 	lui	v0,0x800
   11134:	8c4231b0 	lw	v0,12720(v0)
   11138:	8f860040 	lw	a2,64(gp)
   1113c:	30a73fff 	andi	a3,a1,0x3fff
   11140:	00e2182b 	sltu	v1,a3,v0
   11144:	8cd20014 	lw	s2,20(a2)
   11148:	00808821 	move	s1,a0
   1114c:	8cd30020 	lw	s3,32(a2)
   11150:	10600007 	beqz	v1,0x11170
   11154:	0000a021 	move	s4,zero
   11158:	90cb000d 	lbu	t3,13(a2)
   1115c:	240aff80 	li	t2,-128
   11160:	014b4824 	and	t1,t2,t3
   11164:	312800ff 	andi	t0,t1,0xff
   11168:	1500000c 	bnez	t0,0x1119c
   1116c:	00056382 	srl	t4,a1,0xe
   11170:	02202021 	move	a0,s1
   11174:	2411000d 	li	s1,13
   11178:	a3910058 	sb	s1,88(gp)
   1117c:	8fbf0024 	lw	ra,36(sp)
   11180:	8fb40020 	lw	s4,32(sp)
   11184:	8fb3001c 	lw	s3,28(sp)
   11188:	8fb20018 	lw	s2,24(sp)
   1118c:	8fb10014 	lw	s1,20(sp)
   11190:	8fb00010 	lw	s0,16(sp)
   11194:	0a00189b 	j	0x800626c
   11198:	27bd0028 	addiu	sp,sp,40
   1119c:	31850003 	andi	a1,t4,0x3
   111a0:	54a0fff4 	bnezl	a1,0x11174
   111a4:	02202021 	move	a0,s1
   111a8:	94cf001c 	lhu	t7,28(a2)
   111ac:	8f8e0028 	lw	t6,40(gp)
   111b0:	8e070028 	lw	a3,40(s0)
   111b4:	a5cf00d8 	sh	t7,216(t6)
   111b8:	8ccd0010 	lw	t5,16(a2)
   111bc:	024d3023 	subu	a2,s2,t5
   111c0:	10e6005c 	beq	a3,a2,0x11334
   111c4:	2402001f 	li	v0,31
   111c8:	0e00189b 	jal	0x800626c
   111cc:	a3820058 	sb	v0,88(gp)
   111d0:	241fffff 	li	ra,-1
   111d4:	105f004e 	beq	v0,ra,0x11310
   111d8:	2404ffff 	li	a0,-1
   111dc:	8f830044 	lw	v1,68(gp)
   111e0:	8f880034 	lw	t0,52(gp)
   111e4:	02639821 	addu	s3,s3,v1
   111e8:	8d090010 	lw	t1,16(t0)
   111ec:	01231023 	subu	v0,t1,v1
   111f0:	8f830020 	lw	v1,32(gp)
   111f4:	ad020010 	sw	v0,16(t0)
   111f8:	ad130020 	sw	s3,32(t0)
   111fc:	8c670074 	lw	a3,116(v1)
   11200:	00f3202b 	sltu	a0,a3,s3
   11204:	14800062 	bnez	a0,0x11390
   11208:	02202021 	move	a0,s1
   1120c:	8f860040 	lw	a2,64(gp)
   11210:	8e0c0024 	lw	t4,36(s0)
   11214:	8cc50024 	lw	a1,36(a2)
   11218:	11850007 	beq	t4,a1,0x11238
   1121c:	02202021 	move	a0,s1
   11220:	240e001c 	li	t6,28
   11224:	0e00189b 	jal	0x800626c
   11228:	a38e0058 	sb	t6,88(gp)
   1122c:	240dffff 	li	t5,-1
   11230:	104d0037 	beq	v0,t5,0x11310
   11234:	2404ffff 	li	a0,-1
   11238:	8f840034 	lw	a0,52(gp)
   1123c:	8c980024 	lw	t8,36(a0)
   11240:	270f0001 	addiu	t7,t8,1
   11244:	ac8f0024 	sw	t7,36(a0)
   11248:	12720044 	beq	s3,s2,0x1135c
   1124c:	8f990020 	lw	t9,32(gp)
   11250:	8f320074 	lw	s2,116(t9)
   11254:	12530041 	beq	s2,s3,0x1135c
   11258:	3c0a0080 	lui	t2,0x80
   1125c:	8e090000 	lw	t1,0(s0)
   11260:	012a1024 	and	v0,t1,t2
   11264:	1440003a 	bnez	v0,0x11350
   11268:	00000000 	nop
   1126c:	8e040014 	lw	a0,20(s0)
   11270:	2412ffff 	li	s2,-1
   11274:	10920006 	beq	a0,s2,0x11290
   11278:	240b001b 	li	t3,27
   1127c:	02202021 	move	a0,s1
   11280:	0e00189b 	jal	0x800626c
   11284:	a38b0058 	sb	t3,88(gp)
   11288:	10520021 	beq	v0,s2,0x11310
   1128c:	2404ffff 	li	a0,-1
   11290:	8e030000 	lw	v1,0(s0)
   11294:	3c0c0001 	lui	t4,0x1
   11298:	006c2824 	and	a1,v1,t4
   1129c:	10a00013 	beqz	a1,0x112ec
   112a0:	3c060080 	lui	a2,0x80
   112a4:	0066a024 	and	s4,v1,a2
   112a8:	16800009 	bnez	s4,0x112d0
   112ac:	02002821 	move	a1,s0
   112b0:	02202021 	move	a0,s1
   112b4:	240e001a 	li	t6,26
   112b8:	0e00189b 	jal	0x800626c
   112bc:	a38e0058 	sb	t6,88(gp)
   112c0:	240dffff 	li	t5,-1
   112c4:	104d0012 	beq	v0,t5,0x11310
   112c8:	2404ffff 	li	a0,-1
   112cc:	02002821 	move	a1,s0
   112d0:	02202021 	move	a0,s1
   112d4:	0e0018bb 	jal	0x80062ec
   112d8:	24060001 	li	a2,1
   112dc:	2410ffff 	li	s0,-1
   112e0:	2404ffff 	li	a0,-1
   112e4:	1050000a 	beq	v0,s0,0x11310
   112e8:	24140001 	li	s4,1
   112ec:	8f8f0034 	lw	t7,52(gp)
   112f0:	02202021 	move	a0,s1
   112f4:	02803021 	move	a2,s4
   112f8:	95f20034 	lhu	s2,52(t7)
   112fc:	24050001 	li	a1,1
   11300:	26580001 	addiu	t8,s2,1
   11304:	0e001997 	jal	0x800665c
   11308:	a5f80034 	sh	t8,52(t7)
   1130c:	00002021 	move	a0,zero
   11310:	8fbf0024 	lw	ra,36(sp)
   11314:	8fb40020 	lw	s4,32(sp)
   11318:	8fb3001c 	lw	s3,28(sp)
   1131c:	8fb20018 	lw	s2,24(sp)
   11320:	8fb10014 	lw	s1,20(sp)
   11324:	8fb00010 	lw	s0,16(sp)
   11328:	00801021 	move	v0,a0
   1132c:	03e00008 	jr	ra
   11330:	27bd0028 	addiu	sp,sp,40
   11334:	8f830044 	lw	v1,68(gp)
   11338:	00e3c821 	addu	t9,a3,v1
   1133c:	0259c02b 	sltu	t8,s2,t9
   11340:	1300ffa8 	beqz	t8,0x111e4
   11344:	8f880034 	lw	t0,52(gp)
   11348:	0a001a80 	j	0x8006a00
   1134c:	24020018 	li	v0,24
   11350:	ac800020 	sw	zero,32(a0)
   11354:	0a001aaa 	j	0x8006aa8
   11358:	8e040014 	lw	a0,20(s0)
   1135c:	8e1f0000 	lw	ra,0(s0)
   11360:	3c070080 	lui	a3,0x80
   11364:	03e79824 	and	s3,ra,a3
   11368:	1660fff9 	bnez	s3,0x11350
   1136c:	2408001a 	li	t0,26
   11370:	02202021 	move	a0,s1
   11374:	0e00189b 	jal	0x800626c
   11378:	a3880058 	sb	t0,88(gp)
   1137c:	2403ffff 	li	v1,-1
   11380:	1443ffba 	bne	v0,v1,0x1126c
   11384:	2404ffff 	li	a0,-1
   11388:	0a001ad3 	j	0x8006b4c
   1138c:	8fbf0024 	lw	ra,36(sp)
   11390:	240b001d 	li	t3,29
   11394:	0e00189b 	jal	0x800626c
   11398:	a38b0058 	sb	t3,88(gp)
   1139c:	240affff 	li	t2,-1
   113a0:	144aff9a 	bne	v0,t2,0x1120c
   113a4:	2404ffff 	li	a0,-1
   113a8:	0a001ad3 	j	0x8006b4c
   113ac:	8fbf0024 	lw	ra,36(sp)
   113b0:	8f850028 	lw	a1,40(gp)
   113b4:	27bdffd8 	addiu	sp,sp,-40
   113b8:	afb3001c 	sw	s3,28(sp)
   113bc:	afb20018 	sw	s2,24(sp)
   113c0:	afb10014 	sw	s1,20(sp)
   113c4:	afb00010 	sw	s0,16(sp)
   113c8:	afbf0020 	sw	ra,32(sp)
   113cc:	90a700c4 	lbu	a3,196(a1)
   113d0:	8f90003c 	lw	s0,60(gp)
   113d4:	2412ffff 	li	s2,-1
   113d8:	34e20040 	ori	v0,a3,0x40
   113dc:	92060000 	lbu	a2,0(s0)
   113e0:	a0a200c4 	sb	v0,196(a1)
   113e4:	8e030010 	lw	v1,16(s0)
   113e8:	00809821 	move	s3,a0
   113ec:	10720006 	beq	v1,s2,0x11408
   113f0:	30d1003f 	andi	s1,a2,0x3f
   113f4:	2408000d 	li	t0,13
   113f8:	0e00189b 	jal	0x800626c
   113fc:	a3880058 	sb	t0,88(gp)
   11400:	10520025 	beq	v0,s2,0x11498
   11404:	2404ffff 	li	a0,-1
   11408:	8f8a0028 	lw	t2,40(gp)
   1140c:	8e090018 	lw	t1,24(s0)
   11410:	8d4400c0 	lw	a0,192(t2)
   11414:	11240007 	beq	t1,a0,0x11434
   11418:	02602021 	move	a0,s3
   1141c:	240c000e 	li	t4,14
   11420:	0e00189b 	jal	0x800626c
   11424:	a38c0058 	sb	t4,88(gp)
   11428:	240bffff 	li	t3,-1
   1142c:	104b001a 	beq	v0,t3,0x11498
   11430:	2404ffff 	li	a0,-1
   11434:	24040020 	li	a0,32
   11438:	12240004 	beq	s1,a0,0x1144c
   1143c:	8f8d0028 	lw	t5,40(gp)
   11440:	91af00c4 	lbu	t7,196(t5)
   11444:	35ee0020 	ori	t6,t7,0x20
   11448:	a1ae00c4 	sb	t6,196(t5)
   1144c:	8f850044 	lw	a1,68(gp)
   11450:	10a00019 	beqz	a1,0x114b8
   11454:	00000000 	nop
   11458:	1224004a 	beq	s1,a0,0x11584
   1145c:	8f980028 	lw	t8,40(gp)
   11460:	8f92fed0 	lw	s2,-304(gp)
   11464:	97100070 	lhu	s0,112(t8)
   11468:	9651000a 	lhu	s1,10(s2)
   1146c:	52300048 	beql	s1,s0,0x11590
   11470:	8f930030 	lw	s3,48(gp)
   11474:	3c1f0800 	lui	ra,0x800
   11478:	8fff318c 	lw	ra,12684(ra)
   1147c:	03e5c82b 	sltu	t9,ra,a1
   11480:	1720001e 	bnez	t9,0x114fc
   11484:	02602021 	move	a0,s3
   11488:	00002821 	move	a1,zero
   1148c:	0e001997 	jal	0x800665c
   11490:	24060001 	li	a2,1
   11494:	00002021 	move	a0,zero
   11498:	8fbf0020 	lw	ra,32(sp)
   1149c:	8fb3001c 	lw	s3,28(sp)
   114a0:	8fb20018 	lw	s2,24(sp)
   114a4:	8fb10014 	lw	s1,20(sp)
   114a8:	8fb00010 	lw	s0,16(sp)
   114ac:	00801021 	move	v0,a0
   114b0:	03e00008 	jr	ra
   114b4:	27bd0028 	addiu	sp,sp,40
   114b8:	5224002a 	beql	s1,a0,0x11564
   114bc:	8e050014 	lw	a1,20(s0)
   114c0:	8f840028 	lw	a0,40(gp)
   114c4:	948a0070 	lhu	t2,112(a0)
   114c8:	25490001 	addiu	t1,t2,1
   114cc:	a4890070 	sh	t1,112(a0)
   114d0:	94880070 	lhu	t0,112(a0)
   114d4:	3c020800 	lui	v0,0x800
   114d8:	8c423188 	lw	v0,12680(v0)
   114dc:	31077fff 	andi	a3,t0,0x7fff
   114e0:	10e2000e 	beq	a3,v0,0x1151c
   114e4:	00000000 	nop
   114e8:	02602021 	move	a0,s3
   114ec:	0e001922 	jal	0x8006488
   114f0:	24050001 	li	a1,1
   114f4:	0a001b34 	j	0x8006cd0
   114f8:	00002021 	move	a0,zero
   114fc:	2402002d 	li	v0,45
   11500:	0e00189b 	jal	0x800626c
   11504:	a3820058 	sb	v0,88(gp)
   11508:	2403ffff 	li	v1,-1
   1150c:	1443ffe1 	bne	v0,v1,0x11494
   11510:	2404ffff 	li	a0,-1
   11514:	0a001b35 	j	0x8006cd4
   11518:	8fbf0020 	lw	ra,32(sp)
   1151c:	94990070 	lhu	t9,112(a0)
   11520:	241f8000 	li	ra,-32768
   11524:	24050001 	li	a1,1
   11528:	033fc024 	and	t8,t9,ra
   1152c:	a4980070 	sh	t8,112(a0)
   11530:	90920070 	lbu	s2,112(a0)
   11534:	908e0070 	lbu	t6,112(a0)
   11538:	325100ff 	andi	s1,s2,0xff
   1153c:	001181c2 	srl	s0,s1,0x7
   11540:	00107827 	nor	t7,zero,s0
   11544:	000f69c0 	sll	t5,t7,0x7
   11548:	31cc007f 	andi	t4,t6,0x7f
   1154c:	018d5825 	or	t3,t4,t5
   11550:	a08b0070 	sb	t3,112(a0)
   11554:	0e001922 	jal	0x8006488
   11558:	02602021 	move	a0,s3
   1155c:	0a001b34 	j	0x8006cd0
   11560:	00002021 	move	a0,zero
   11564:	2406ffff 	li	a2,-1
   11568:	54a6ffd6 	bnel	a1,a2,0x114c4
   1156c:	8f840028 	lw	a0,40(gp)
   11570:	02602021 	move	a0,s3
   11574:	0e001922 	jal	0x8006488
   11578:	24050001 	li	a1,1
   1157c:	0a001b34 	j	0x8006cd0
   11580:	00002021 	move	a0,zero
   11584:	02602021 	move	a0,s3
   11588:	0a001b4e 	j	0x8006d38
   1158c:	2402000a 	li	v0,10
   11590:	2404fffd 	li	a0,-3
   11594:	0a001b34 	j	0x8006cd0
   11598:	af930050 	sw	s3,80(gp)
   1159c:	8f880028 	lw	t0,40(gp)
   115a0:	27bdffe8 	addiu	sp,sp,-24
   115a4:	afb00010 	sw	s0,16(sp)
   115a8:	afbf0014 	sw	ra,20(sp)
   115ac:	910a00c4 	lbu	t2,196(t0)
   115b0:	8f87003c 	lw	a3,60(gp)
   115b4:	00808021 	move	s0,a0
   115b8:	35490040 	ori	t1,t2,0x40
   115bc:	8ce60010 	lw	a2,16(a3)
   115c0:	a10900c4 	sb	t1,196(t0)
   115c4:	3c020800 	lui	v0,0x800
   115c8:	8c4231b0 	lw	v0,12720(v0)
   115cc:	30c53fff 	andi	a1,a2,0x3fff
   115d0:	00a2182b 	sltu	v1,a1,v0
   115d4:	10600007 	beqz	v1,0x115f4
   115d8:	8f850040 	lw	a1,64(gp)
   115dc:	240dff80 	li	t5,-128
   115e0:	90ae000d 	lbu	t6,13(a1)
   115e4:	01ae6024 	and	t4,t5,t6
   115e8:	318b00ff 	andi	t3,t4,0xff
   115ec:	15600008 	bnez	t3,0x11610
   115f0:	0006c382 	srl	t8,a2,0xe
   115f4:	02002021 	move	a0,s0
   115f8:	2403000d 	li	v1,13
   115fc:	8fbf0014 	lw	ra,20(sp)
   11600:	8fb00010 	lw	s0,16(sp)
   11604:	27bd0018 	addiu	sp,sp,24
   11608:	0a00189b 	j	0x800626c
   1160c:	a3830058 	sb	v1,88(gp)
   11610:	33060003 	andi	a2,t8,0x3
   11614:	240f0002 	li	t7,2
   11618:	54cffff7 	bnel	a2,t7,0x115f8
   1161c:	02002021 	move	a0,s0
   11620:	94a2001c 	lhu	v0,28(a1)
   11624:	8f850028 	lw	a1,40(gp)
   11628:	24190023 	li	t9,35
   1162c:	a4a200d8 	sh	v0,216(a1)
   11630:	8ce80000 	lw	t0,0(a3)
   11634:	00081e02 	srl	v1,t0,0x18
   11638:	307f003f 	andi	ra,v1,0x3f
   1163c:	13f90035 	beq	ra,t9,0x11714
   11640:	3c0a0083 	lui	t2,0x83
   11644:	8ce80018 	lw	t0,24(a3)
   11648:	8ca600c0 	lw	a2,192(a1)
   1164c:	11060008 	beq	t0,a2,0x11670
   11650:	00000000 	nop
   11654:	2405000e 	li	a1,14
   11658:	0e00189b 	jal	0x800626c
   1165c:	a3850058 	sb	a1,88(gp)
   11660:	2407ffff 	li	a3,-1
   11664:	10470018 	beq	v0,a3,0x116c8
   11668:	2404ffff 	li	a0,-1
   1166c:	8f850028 	lw	a1,40(gp)
   11670:	90a900c4 	lbu	t1,196(a1)
   11674:	35240020 	ori	a0,t1,0x20
   11678:	a0a400c4 	sb	a0,196(a1)
   1167c:	8f8c0034 	lw	t4,52(gp)
   11680:	918e000d 	lbu	t6,13(t4)
   11684:	31cd007f 	andi	t5,t6,0x7f
   11688:	a18d000d 	sb	t5,13(t4)
   1168c:	8f830044 	lw	v1,68(gp)
   11690:	1060001c 	beqz	v1,0x11704
   11694:	02002021 	move	a0,s0
   11698:	8f840040 	lw	a0,64(gp)
   1169c:	8c980010 	lw	t8,16(a0)
   116a0:	0303782b 	sltu	t7,t8,v1
   116a4:	11e0000d 	beqz	t7,0x116dc
   116a8:	24190018 	li	t9,24
   116ac:	02002021 	move	a0,s0
   116b0:	a3990058 	sb	t9,88(gp)
   116b4:	0e00189b 	jal	0x800626c
   116b8:	2410ffff 	li	s0,-1
   116bc:	10500002 	beq	v0,s0,0x116c8
   116c0:	2404ffff 	li	a0,-1
   116c4:	00002021 	move	a0,zero
   116c8:	8fbf0014 	lw	ra,20(sp)
   116cc:	8fb00010 	lw	s0,16(sp)
   116d0:	00801021 	move	v0,a0
   116d4:	03e00008 	jr	ra
   116d8:	27bd0018 	addiu	sp,sp,24
   116dc:	8c860010 	lw	a2,16(a0)
   116e0:	8f9f0034 	lw	ra,52(gp)
   116e4:	02002021 	move	a0,s0
   116e8:	00c31023 	subu	v0,a2,v1
   116ec:	afe20010 	sw	v0,16(ra)
   116f0:	24050001 	li	a1,1
   116f4:	0e001997 	jal	0x800665c
   116f8:	24060001 	li	a2,1
   116fc:	0a001bc0 	j	0x8006f00
   11700:	00002021 	move	a0,zero
   11704:	0e001922 	jal	0x8006488
   11708:	24050001 	li	a1,1
   1170c:	0a001bc0 	j	0x8006f00
   11710:	00002021 	move	a0,zero
   11714:	010a5824 	and	t3,t0,t2
   11718:	156affd9 	bne	t3,t2,0x11680
   1171c:	8f8c0034 	lw	t4,52(gp)
   11720:	a0a600ec 	sb	a2,236(a1)
   11724:	0a001bad 	j	0x8006eb4
   11728:	a386004a 	sb	a2,74(gp)
   1172c:	27bdffd8 	addiu	sp,sp,-40
   11730:	afb00010 	sw	s0,16(sp)
   11734:	8f90003c 	lw	s0,60(gp)
   11738:	afb20018 	sw	s2,24(sp)
   1173c:	afbf0020 	sw	ra,32(sp)
   11740:	afb3001c 	sw	s3,28(sp)
   11744:	afb10014 	sw	s1,20(sp)
   11748:	8e110010 	lw	s1,16(s0)
   1174c:	3c030800 	lui	v1,0x800
   11750:	8c6331b0 	lw	v1,12720(v1)
   11754:	32253fff 	andi	a1,s1,0x3fff
   11758:	00a3102b 	sltu	v0,a1,v1
   1175c:	10400008 	beqz	v0,0x11780
   11760:	00809021 	move	s2,a0
   11764:	8f860040 	lw	a2,64(gp)
   11768:	2409ff80 	li	t1,-128
   1176c:	90ca000d 	lbu	t2,13(a2)
   11770:	012a4024 	and	t0,t1,t2
   11774:	310700ff 	andi	a3,t0,0xff
   11778:	14e0000b 	bnez	a3,0x117a8
   1177c:	00116b82 	srl	t5,s1,0xe
   11780:	02402021 	move	a0,s2
   11784:	2412000d 	li	s2,13
   11788:	a3920058 	sb	s2,88(gp)
   1178c:	8fbf0020 	lw	ra,32(sp)
   11790:	8fb3001c 	lw	s3,28(sp)
   11794:	8fb20018 	lw	s2,24(sp)
   11798:	8fb10014 	lw	s1,20(sp)
   1179c:	8fb00010 	lw	s0,16(sp)
   117a0:	0a00189b 	j	0x800626c
   117a4:	27bd0028 	addiu	sp,sp,40
   117a8:	31ac0003 	andi	t4,t5,0x3
   117ac:	240b0001 	li	t3,1
   117b0:	558bfff4 	bnel	t4,t3,0x11784
   117b4:	02402021 	move	a0,s2
   117b8:	90cf000d 	lbu	t7,13(a2)
   117bc:	31ee0008 	andi	t6,t7,0x8
   117c0:	11c00060 	beqz	t6,0x11944
   117c4:	8f930044 	lw	s3,68(gp)
   117c8:	16600009 	bnez	s3,0x117f0
   117cc:	24020027 	li	v0,39
   117d0:	8e19000c 	lw	t9,12(s0)
   117d4:	8cd80020 	lw	t8,32(a2)
   117d8:	17380005 	bne	t9,t8,0x117f0
   117dc:	24020020 	li	v0,32
   117e0:	8e020008 	lw	v0,8(s0)
   117e4:	8cdf0024 	lw	ra,36(a2)
   117e8:	105f0040 	beq	v0,ra,0x118ec
   117ec:	24020020 	li	v0,32
   117f0:	0e00189b 	jal	0x800626c
   117f4:	a3820058 	sb	v0,88(gp)
   117f8:	2406ffff 	li	a2,-1
   117fc:	10460033 	beq	v0,a2,0x118cc
   11800:	2404ffff 	li	a0,-1
   11804:	8f990034 	lw	t9,52(gp)
   11808:	240afff7 	li	t2,-9
   1180c:	3c13800e 	lui	s3,0x800e
   11810:	9329000d 	lbu	t1,13(t9)
   11814:	2404ff80 	li	a0,-128
   11818:	3c0d8000 	lui	t5,0x8000
   1181c:	012af824 	and	ra,t1,t2
   11820:	a33f000d 	sb	ra,13(t9)
   11824:	8f990020 	lw	t9,32(gp)
   11828:	3c080800 	lui	t0,0x800
   1182c:	8d0831ac 	lw	t0,12716(t0)
   11830:	8f83005c 	lw	v1,92(gp)
   11834:	97270078 	lhu	a3,120(t9)
   11838:	8f9f0034 	lw	ra,52(gp)
   1183c:	01031021 	addu	v0,t0,v1
   11840:	30e57fff 	andi	a1,a3,0x7fff
   11844:	00053040 	sll	a2,a1,0x1
   11848:	00467821 	addu	t7,v0,a2
   1184c:	31f8007f 	andi	t8,t7,0x7f
   11850:	03136021 	addu	t4,t8,s3
   11854:	01e47024 	and	t6,t7,a0
   11858:	adae002c 	sw	t6,44(t5)
   1185c:	a5910000 	sh	s1,0(t4)
   11860:	8feb0028 	lw	t3,40(ra)
   11864:	256a0001 	addiu	t2,t3,1
   11868:	afea0028 	sw	t2,40(ra)
   1186c:	8fe3002c 	lw	v1,44(ra)
   11870:	8e09002c 	lw	t1,44(s0)
   11874:	00694021 	addu	t0,v1,t1
   11878:	afe8002c 	sw	t0,44(ra)
   1187c:	8e07002c 	lw	a3,44(s0)
   11880:	afe70030 	sw	a3,48(ra)
   11884:	8e050014 	lw	a1,20(s0)
   11888:	afe50034 	sw	a1,52(ra)
   1188c:	97e6003a 	lhu	a2,58(ra)
   11890:	24c20001 	addiu	v0,a2,1
   11894:	a7e2003a 	sh	v0,58(ra)
   11898:	97330078 	lhu	s3,120(t9)
   1189c:	3c100800 	lui	s0,0x800
   118a0:	8e1031b0 	lw	s0,12720(s0)
   118a4:	26630001 	addiu	v1,s3,1
   118a8:	30717fff 	andi	s1,v1,0x7fff
   118ac:	12300027 	beq	s1,s0,0x1194c
   118b0:	00603021 	move	a2,v1
   118b4:	8f8f0020 	lw	t7,32(gp)
   118b8:	02402021 	move	a0,s2
   118bc:	24050001 	li	a1,1
   118c0:	0e001922 	jal	0x8006488
   118c4:	a5e60078 	sh	a2,120(t7)
   118c8:	00002021 	move	a0,zero
   118cc:	8fbf0020 	lw	ra,32(sp)
   118d0:	8fb3001c 	lw	s3,28(sp)
   118d4:	8fb20018 	lw	s2,24(sp)
   118d8:	8fb10014 	lw	s1,20(sp)
   118dc:	8fb00010 	lw	s0,16(sp)
   118e0:	00801021 	move	v0,a0
   118e4:	03e00008 	jr	ra
   118e8:	27bd0028 	addiu	sp,sp,40
   118ec:	8e050014 	lw	a1,20(s0)
   118f0:	2413ffff 	li	s3,-1
   118f4:	10b3001d 	beq	a1,s3,0x1196c
   118f8:	8f830028 	lw	v1,40(gp)
   118fc:	8e080018 	lw	t0,24(s0)
   11900:	8c6700c0 	lw	a3,192(v1)
   11904:	15070009 	bne	t0,a3,0x1192c
   11908:	2402000e 	li	v0,14
   1190c:	8e0a0024 	lw	t2,36(s0)
   11910:	8cc90028 	lw	t1,40(a2)
   11914:	15490005 	bne	t2,t1,0x1192c
   11918:	24020021 	li	v0,33
   1191c:	8e070028 	lw	a3,40(s0)
   11920:	8ccb002c 	lw	t3,44(a2)
   11924:	10eb0013 	beq	a3,t3,0x11974
   11928:	2402001f 	li	v0,31
   1192c:	0e00189b 	jal	0x800626c
   11930:	a3820058 	sb	v0,88(gp)
   11934:	1453ffb3 	bne	v0,s3,0x11804
   11938:	2404ffff 	li	a0,-1
   1193c:	0a001c42 	j	0x8007108
   11940:	8fbf0020 	lw	ra,32(sp)
   11944:	0a001c0a 	j	0x8007028
   11948:	24020024 	li	v0,36
   1194c:	240e8000 	li	t6,-32768
   11950:	006e6824 	and	t5,v1,t6
   11954:	31acffff 	andi	t4,t5,0xffff
   11958:	000c5bc2 	srl	t3,t4,0xf
   1195c:	317100ff 	andi	s1,t3,0xff
   11960:	00118027 	nor	s0,zero,s1
   11964:	0a001c3b 	j	0x80070ec
   11968:	001033c0 	sll	a2,s0,0xf
   1196c:	0a001c59 	j	0x8007164
   11970:	24020025 	li	v0,37
   11974:	8e05002c 	lw	a1,44(s0)
   11978:	10a0ffec 	beqz	a1,0x1192c
   1197c:	24020023 	li	v0,35
   11980:	8f8e0020 	lw	t6,32(gp)
   11984:	8dcd0074 	lw	t5,116(t6)
   11988:	01a5602b 	sltu	t4,t5,a1
   1198c:	1580ffe7 	bnez	t4,0x1192c
   11990:	24020026 	li	v0,38
   11994:	8ccf0014 	lw	t7,20(a2)
   11998:	00a7c021 	addu	t8,a1,a3
   1199c:	01f8202b 	sltu	a0,t7,t8
   119a0:	1080ff99 	beqz	a0,0x11808
   119a4:	8f990034 	lw	t9,52(gp)
   119a8:	02402021 	move	a0,s2
   119ac:	0a001c59 	j	0x8007164
   119b0:	24020022 	li	v0,34
   119b4:	27bdffe0 	addiu	sp,sp,-32
   119b8:	afb00010 	sw	s0,16(sp)
   119bc:	8f90003c 	lw	s0,60(gp)
   119c0:	afb10014 	sw	s1,20(sp)
   119c4:	afbf0018 	sw	ra,24(sp)
   119c8:	8e050010 	lw	a1,16(s0)
   119cc:	3c030800 	lui	v1,0x800
   119d0:	8c6331b0 	lw	v1,12720(v1)
   119d4:	00808821 	move	s1,a0
   119d8:	30a43fff 	andi	a0,a1,0x3fff
   119dc:	0083102b 	sltu	v0,a0,v1
   119e0:	10400007 	beqz	v0,0x11a00
   119e4:	8f860040 	lw	a2,64(gp)
   119e8:	2409ff80 	li	t1,-128
   119ec:	90ca000d 	lbu	t2,13(a2)
   119f0:	012a4024 	and	t0,t1,t2
   119f4:	310700ff 	andi	a3,t0,0xff
   119f8:	14e00009 	bnez	a3,0x11a20
   119fc:	8f8b0044 	lw	t3,68(gp)
   11a00:	2410000d 	li	s0,13
   11a04:	02202021 	move	a0,s1
   11a08:	a3900058 	sb	s0,88(gp)
   11a0c:	8fbf0018 	lw	ra,24(sp)
   11a10:	8fb10014 	lw	s1,20(sp)
   11a14:	8fb00010 	lw	s0,16(sp)
   11a18:	0a00189b 	j	0x800626c
   11a1c:	27bd0020 	addiu	sp,sp,32
   11a20:	11600007 	beqz	t3,0x11a40
   11a24:	0005cb82 	srl	t9,a1,0xe
   11a28:	8f8f0028 	lw	t7,40(gp)
   11a2c:	8f8efed0 	lw	t6,-304(gp)
   11a30:	95ec0070 	lhu	t4,112(t7)
   11a34:	95cd000a 	lhu	t5,10(t6)
   11a38:	11ac0057 	beq	t5,t4,0x11b98
   11a3c:	8f850030 	lw	a1,48(gp)
   11a40:	33380003 	andi	t8,t9,0x3
   11a44:	17000010 	bnez	t8,0x11a88
   11a48:	00000000 	nop
   11a4c:	921f0002 	lbu	ra,2(s0)
   11a50:	13e00041 	beqz	ra,0x11b58
   11a54:	00000000 	nop
   11a58:	8e060024 	lw	a2,36(s0)
   11a5c:	50c0000f 	beqzl	a2,0x11a9c
   11a60:	92040003 	lbu	a0,3(s0)
   11a64:	02202021 	move	a0,s1
   11a68:	2402000f 	li	v0,15
   11a6c:	0e00189b 	jal	0x800626c
   11a70:	a3820058 	sb	v0,88(gp)
   11a74:	2408ffff 	li	t0,-1
   11a78:	14480007 	bne	v0,t0,0x11a98
   11a7c:	2404ffff 	li	a0,-1
   11a80:	0a001cd5 	j	0x8007354
   11a84:	8fbf0018 	lw	ra,24(sp)
   11a88:	90c7000d 	lbu	a3,13(a2)
   11a8c:	30e30008 	andi	v1,a3,0x8
   11a90:	10600037 	beqz	v1,0x11b70
   11a94:	02202021 	move	a0,s1
   11a98:	92040003 	lbu	a0,3(s0)
   11a9c:	24090002 	li	t1,2
   11aa0:	308a00ff 	andi	t2,a0,0xff
   11aa4:	15490005 	bne	t2,t1,0x11abc
   11aa8:	308500ff 	andi	a1,a0,0xff
   11aac:	8f8b0044 	lw	t3,68(gp)
   11ab0:	51600031 	beqzl	t3,0x11b78
   11ab4:	02202021 	move	a0,s1
   11ab8:	308500ff 	andi	a1,a0,0xff
   11abc:	38b80010 	xori	t8,a1,0x10
   11ac0:	2caf0001 	sltiu	t7,a1,1
   11ac4:	2f0e0001 	sltiu	t6,t8,1
   11ac8:	02002821 	move	a1,s0
   11acc:	02202021 	move	a0,s1
   11ad0:	0e0018bb 	jal	0x80062ec
   11ad4:	01ee3025 	or	a2,t7,t6
   11ad8:	2410ffff 	li	s0,-1
   11adc:	1050000e 	beq	v0,s0,0x11b18
   11ae0:	2404ffff 	li	a0,-1
   11ae4:	8f830044 	lw	v1,68(gp)
   11ae8:	10600017 	beqz	v1,0x11b48
   11aec:	02202021 	move	a0,s1
   11af0:	3c1f0800 	lui	ra,0x800
   11af4:	8fff318c 	lw	ra,12684(ra)
   11af8:	03e3c82b 	sltu	t9,ra,v1
   11afc:	5720000c 	bnezl	t9,0x11b30
   11b00:	2411002d 	li	s1,45
   11b04:	02202021 	move	a0,s1
   11b08:	00002821 	move	a1,zero
   11b0c:	0e001997 	jal	0x800665c
   11b10:	24060001 	li	a2,1
   11b14:	00002021 	move	a0,zero
   11b18:	8fbf0018 	lw	ra,24(sp)
   11b1c:	8fb10014 	lw	s1,20(sp)
   11b20:	8fb00010 	lw	s0,16(sp)
   11b24:	00801021 	move	v0,a0
   11b28:	03e00008 	jr	ra
   11b2c:	27bd0020 	addiu	sp,sp,32
   11b30:	0e00189b 	jal	0x800626c
   11b34:	a3910058 	sb	s1,88(gp)
   11b38:	1450fff6 	bne	v0,s0,0x11b14
   11b3c:	2404ffff 	li	a0,-1
   11b40:	0a001cd5 	j	0x8007354
   11b44:	8fbf0018 	lw	ra,24(sp)
   11b48:	0e001922 	jal	0x8006488
   11b4c:	24050001 	li	a1,1
   11b50:	0a001cd4 	j	0x8007350
   11b54:	00002021 	move	a0,zero
   11b58:	8cc40024 	lw	a0,36(a2)
   11b5c:	8e020024 	lw	v0,36(s0)
   11b60:	5444ffc1 	bnel	v0,a0,0x11a68
   11b64:	02202021 	move	a0,s1
   11b68:	0a001cb5 	j	0x80072d4
   11b6c:	92040003 	lbu	a0,3(s0)
   11b70:	0a001ca9 	j	0x80072a4
   11b74:	24020010 	li	v0,16
   11b78:	240d002c 	li	t5,44
   11b7c:	0e00189b 	jal	0x800626c
   11b80:	a38d0058 	sb	t5,88(gp)
   11b84:	240cffff 	li	t4,-1
   11b88:	104cffe3 	beq	v0,t4,0x11b18
   11b8c:	2404ffff 	li	a0,-1
   11b90:	0a001cbc 	j	0x80072f0
   11b94:	92040003 	lbu	a0,3(s0)
   11b98:	2404fffd 	li	a0,-3
   11b9c:	0a001cd4 	j	0x8007350
   11ba0:	af850050 	sw	a1,80(gp)
   11ba4:	30a500ff 	andi	a1,a1,0xff
   11ba8:	24060001 	li	a2,1
   11bac:	24a90001 	addiu	t1,a1,1
   11bb0:	00c9102b 	sltu	v0,a2,t1
   11bb4:	1040000c 	beqz	v0,0x11be8
   11bb8:	00004021 	move	t0,zero
   11bbc:	240a0001 	li	t2,1
   11bc0:	00a61823 	subu	v1,a1,a2
   11bc4:	308b0001 	andi	t3,a0,0x1
   11bc8:	24c60001 	addiu	a2,a2,1
   11bcc:	006a3804 	sllv	a3,t2,v1
   11bd0:	00042042 	srl	a0,a0,0x1
   11bd4:	11600002 	beqz	t3,0x11be0
   11bd8:	00c9182b 	sltu	v1,a2,t1
   11bdc:	01074025 	or	t0,t0,a3
   11be0:	1460fff8 	bnez	v1,0x11bc4
   11be4:	00a61823 	subu	v1,a1,a2
   11be8:	03e00008 	jr	ra
   11bec:	01001021 	move	v0,t0
   11bf0:	27bdffd8 	addiu	sp,sp,-40
   11bf4:	afb00018 	sw	s0,24(sp)
   11bf8:	8f90003c 	lw	s0,60(gp)
   11bfc:	afb1001c 	sw	s1,28(sp)
   11c00:	afbf0020 	sw	ra,32(sp)
   11c04:	2403ffff 	li	v1,-1
   11c08:	2411002f 	li	s1,47
   11c0c:	afa30010 	sw	v1,16(sp)
   11c10:	92060000 	lbu	a2,0(s0)
   11c14:	24050008 	li	a1,8
   11c18:	26100001 	addiu	s0,s0,1
   11c1c:	00662026 	xor	a0,v1,a2
   11c20:	0e001cf7 	jal	0x80073dc
   11c24:	308400ff 	andi	a0,a0,0xff
   11c28:	00021e00 	sll	v1,v0,0x18
   11c2c:	3c021edc 	lui	v0,0x1edc
   11c30:	34466f41 	ori	a2,v0,0x6f41
   11c34:	0a001d1f 	j	0x800747c
   11c38:	00001021 	move	v0,zero
   11c3c:	10a00009 	beqz	a1,0x11c64
   11c40:	00801821 	move	v1,a0
   11c44:	24450001 	addiu	a1,v0,1
   11c48:	30a2ffff 	andi	v0,a1,0xffff
   11c4c:	2c450008 	sltiu	a1,v0,8
   11c50:	0461fffa 	bgez	v1,0x11c3c
   11c54:	00032040 	sll	a0,v1,0x1
   11c58:	00862026 	xor	a0,a0,a2
   11c5c:	14a0fff9 	bnez	a1,0x11c44
   11c60:	00801821 	move	v1,a0
   11c64:	0e001cf7 	jal	0x80073dc
   11c68:	24050020 	li	a1,32
   11c6c:	8fa30010 	lw	v1,16(sp)
   11c70:	2629ffff 	addiu	t1,s1,-1
   11c74:	313100ff 	andi	s1,t1,0xff
   11c78:	00034202 	srl	t0,v1,0x8
   11c7c:	240700ff 	li	a3,255
   11c80:	1627ffe2 	bne	s1,a3,0x11c0c
   11c84:	01021826 	xor	v1,t0,v0
   11c88:	00035027 	nor	t2,zero,v1
   11c8c:	afaa0014 	sw	t2,20(sp)
   11c90:	afaa0010 	sw	t2,16(sp)
   11c94:	00003021 	move	a2,zero
   11c98:	27a80010 	addiu	t0,sp,16
   11c9c:	27a70014 	addiu	a3,sp,20
   11ca0:	00e67823 	subu	t7,a3,a2
   11ca4:	91ed0003 	lbu	t5,3(t7)
   11ca8:	24ce0001 	addiu	t6,a2,1
   11cac:	00c86021 	addu	t4,a2,t0
   11cb0:	31c600ff 	andi	a2,t6,0xff
   11cb4:	2ccb0004 	sltiu	t3,a2,4
   11cb8:	1560fff9 	bnez	t3,0x11ca0
   11cbc:	a18d0000 	sb	t5,0(t4)
   11cc0:	8fa20010 	lw	v0,16(sp)
   11cc4:	8fbf0020 	lw	ra,32(sp)
   11cc8:	8fb1001c 	lw	s1,28(sp)
   11ccc:	8fb00018 	lw	s0,24(sp)
   11cd0:	03e00008 	jr	ra
   11cd4:	27bd0028 	addiu	sp,sp,40
   11cd8:	93830038 	lbu	v1,56(gp)
   11cdc:	27bdffe0 	addiu	sp,sp,-32
   11ce0:	24020034 	li	v0,52
   11ce4:	afb10014 	sw	s1,20(sp)
   11ce8:	afb00010 	sw	s0,16(sp)
   11cec:	afbf001c 	sw	ra,28(sp)
   11cf0:	afb20018 	sw	s2,24(sp)
   11cf4:	00808021 	move	s0,a0
   11cf8:	10620065 	beq	v1,v0,0x11e90
   11cfc:	00a08821 	move	s1,a1
   11d00:	92240004 	lbu	a0,4(s1)
   11d04:	14800048 	bnez	a0,0x11e28
   11d08:	8f880028 	lw	t0,40(gp)
   11d0c:	a380002c 	sb	zero,44(gp)
   11d10:	8e250004 	lw	a1,4(s1)
   11d14:	8d0700c8 	lw	a3,200(t0)
   11d18:	3c0600ff 	lui	a2,0xff
   11d1c:	34c3ffff 	ori	v1,a2,0xffff
   11d20:	00a33024 	and	a2,a1,v1
   11d24:	00e6102b 	sltu	v0,a3,a2
   11d28:	14400050 	bnez	v0,0x11e6c
   11d2c:	af860044 	sw	a2,68(gp)
   11d30:	8f870050 	lw	a3,80(gp)
   11d34:	978a004c 	lhu	t2,76(gp)
   11d38:	af870030 	sw	a3,48(gp)
   11d3c:	01474023 	subu	t0,t2,a3
   11d40:	10c00034 	beqz	a2,0x11e14
   11d44:	a788004c 	sh	t0,76(gp)
   11d48:	8f990020 	lw	t9,32(gp)
   11d4c:	30df0003 	andi	ra,a2,0x3
   11d50:	001f2023 	negu	a0,ra
   11d54:	9332007c 	lbu	s2,124(t9)
   11d58:	30900003 	andi	s0,a0,0x3
   11d5c:	02067021 	addu	t6,s0,a2
   11d60:	0012c082 	srl	t8,s2,0x2
   11d64:	33120001 	andi	s2,t8,0x1
   11d68:	00127880 	sll	t7,s2,0x2
   11d6c:	01cf6821 	addu	t5,t6,t7
   11d70:	310cffff 	andi	t4,t0,0xffff
   11d74:	018d582b 	sltu	t3,t4,t5
   11d78:	5160005f 	beqzl	t3,0x11ef8
   11d7c:	8f880028 	lw	t0,40(gp)
   11d80:	8f890024 	lw	t1,36(gp)
   11d84:	8f820054 	lw	v0,84(gp)
   11d88:	1049007b 	beq	v0,t1,0x11f78
   11d8c:	3c033f01 	lui	v1,0x3f01
   11d90:	8e260000 	lw	a2,0(s1)
   11d94:	3c112500 	lui	s1,0x2500
   11d98:	00c32824 	and	a1,a2,v1
   11d9c:	14b10078 	bne	a1,s1,0x11f80
   11da0:	8f84003c 	lw	a0,60(gp)
   11da4:	8f8a003c 	lw	t2,60(gp)
   11da8:	8f880028 	lw	t0,40(gp)
   11dac:	8d4b0000 	lw	t3,0(t2)
   11db0:	ad0b0078 	sw	t3,120(t0)
   11db4:	8d470010 	lw	a3,16(t2)
   11db8:	ad070088 	sw	a3,136(t0)
   11dbc:	8f870050 	lw	a3,80(gp)
   11dc0:	8f860044 	lw	a2,68(gp)
   11dc4:	938c002c 	lbu	t4,44(gp)
   11dc8:	01276821 	addu	t5,t1,a3
   11dcc:	02062821 	addu	a1,s0,a2
   11dd0:	020c1821 	addu	v1,s0,t4
   11dd4:	a383002c 	sb	v1,44(gp)
   11dd8:	950900ac 	lhu	t1,172(t0)
   11ddc:	af8d0024 	sw	t5,36(gp)
   11de0:	35301000 	ori	s0,t1,0x1000
   11de4:	a51000ac 	sh	s0,172(t0)
   11de8:	16400050 	bnez	s2,0x11f2c
   11dec:	24720004 	addiu	s2,v1,4
   11df0:	af850050 	sw	a1,80(gp)
   11df4:	00002021 	move	a0,zero
   11df8:	8fbf001c 	lw	ra,28(sp)
   11dfc:	8fb20018 	lw	s2,24(sp)
   11e00:	8fb10014 	lw	s1,20(sp)
   11e04:	8fb00010 	lw	s0,16(sp)
   11e08:	00801021 	move	v0,a0
   11e0c:	03e00008 	jr	ra
   11e10:	27bd0020 	addiu	sp,sp,32
   11e14:	8f840024 	lw	a0,36(gp)
   11e18:	af800050 	sw	zero,80(gp)
   11e1c:	00874021 	addu	t0,a0,a3
   11e20:	0a001d8b 	j	0x800762c
   11e24:	af880024 	sw	t0,36(gp)
   11e28:	241f000c 	li	ra,12
   11e2c:	a39f0058 	sb	ra,88(gp)
   11e30:	0e00189b 	jal	0x800626c
   11e34:	02002021 	move	a0,s0
   11e38:	2419ffff 	li	t9,-1
   11e3c:	1059ffee 	beq	v0,t9,0x11df8
   11e40:	2404ffff 	li	a0,-1
   11e44:	8f880028 	lw	t0,40(gp)
   11e48:	a380002c 	sb	zero,44(gp)
   11e4c:	8e250004 	lw	a1,4(s1)
   11e50:	8d0700c8 	lw	a3,200(t0)
   11e54:	3c0600ff 	lui	a2,0xff
   11e58:	34c3ffff 	ori	v1,a2,0xffff
   11e5c:	00a33024 	and	a2,a1,v1
   11e60:	00e6102b 	sltu	v0,a3,a2
   11e64:	1040ffb2 	beqz	v0,0x11d30
   11e68:	af860044 	sw	a2,68(gp)
   11e6c:	02002021 	move	a0,s0
   11e70:	24090019 	li	t1,25
   11e74:	a3890058 	sb	t1,88(gp)
   11e78:	0e00189b 	jal	0x800626c
   11e7c:	2410ffff 	li	s0,-1
   11e80:	1050ffdd 	beq	v0,s0,0x11df8
   11e84:	2404ffff 	li	a0,-1
   11e88:	0a001d5a 	j	0x8007568
   11e8c:	8f860044 	lw	a2,68(gp)
   11e90:	8f840028 	lw	a0,40(gp)
   11e94:	8f87003c 	lw	a3,60(gp)
   11e98:	8cf20030 	lw	s2,48(a3)
   11e9c:	908600c4 	lbu	a2,196(a0)
   11ea0:	30c50010 	andi	a1,a2,0x10
   11ea4:	14a00010 	bnez	a1,0x11ee8
   11ea8:	8f830050 	lw	v1,80(gp)
   11eac:	2c680005 	sltiu	t0,v1,5
   11eb0:	15000026 	bnez	t0,0x11f4c
   11eb4:	00000000 	nop
   11eb8:	908a00c4 	lbu	t2,196(a0)
   11ebc:	246bfffc 	addiu	t3,v1,-4
   11ec0:	31490010 	andi	t1,t2,0x10
   11ec4:	15200008 	bnez	t1,0x11ee8
   11ec8:	316400ff 	andi	a0,t3,0xff
   11ecc:	8f8d0054 	lw	t5,84(gp)
   11ed0:	8f8c0024 	lw	t4,36(gp)
   11ed4:	11ac0004 	beq	t5,t4,0x11ee8
   11ed8:	388f0001 	xori	t7,a0,0x1
   11edc:	31ee0001 	andi	t6,t7,0x1
   11ee0:	15c0002f 	bnez	t6,0x11fa0
   11ee4:	00000000 	nop
   11ee8:	0e001d0a 	jal	0x8007428
   11eec:	00000000 	nop
   11ef0:	0a001de2 	j	0x8007788
   11ef4:	00000000 	nop
   11ef8:	8f890024 	lw	t1,36(gp)
   11efc:	938c002c 	lbu	t4,44(gp)
   11f00:	01276821 	addu	t5,t1,a3
   11f04:	02062821 	addu	a1,s0,a2
   11f08:	020c1821 	addu	v1,s0,t4
   11f0c:	a383002c 	sb	v1,44(gp)
   11f10:	950900ac 	lhu	t1,172(t0)
   11f14:	af8d0024 	sw	t5,36(gp)
   11f18:	35301000 	ori	s0,t1,0x1000
   11f1c:	a51000ac 	sh	s0,172(t0)
   11f20:	5240ffb4 	beqzl	s2,0x11df4
   11f24:	af850050 	sw	a1,80(gp)
   11f28:	24720004 	addiu	s2,v1,4
   11f2c:	a392002c 	sb	s2,44(gp)
   11f30:	950f00ac 	lhu	t7,172(t0)
   11f34:	24b80004 	addiu	t8,a1,4
   11f38:	af980050 	sw	t8,80(gp)
   11f3c:	35ee2000 	ori	t6,t7,0x2000
   11f40:	a50e00ac 	sh	t6,172(t0)
   11f44:	0a001d8c 	j	0x8007630
   11f48:	00002021 	move	a0,zero
   11f4c:	8c8200dc 	lw	v0,220(a0)
   11f50:	1242ff6b 	beq	s2,v0,0x11d00
   11f54:	02002021 	move	a0,s0
   11f58:	24180005 	li	t8,5
   11f5c:	a3980058 	sb	t8,88(gp)
   11f60:	0e00189b 	jal	0x800626c
   11f64:	2412ffff 	li	s2,-1
   11f68:	1452ff65 	bne	v0,s2,0x11d00
   11f6c:	2404ffff 	li	a0,-1
   11f70:	0a001d8d 	j	0x8007634
   11f74:	8fbf001c 	lw	ra,28(sp)
   11f78:	0a001dcd 	j	0x8007734
   11f7c:	8f880028 	lw	t0,40(gp)
   11f80:	30e500ff 	andi	a1,a3,0xff
   11f84:	0e0017a2 	jal	0x8005e88
   11f88:	00003021 	move	a2,zero
   11f8c:	8f880028 	lw	t0,40(gp)
   11f90:	8f870050 	lw	a3,80(gp)
   11f94:	8f890024 	lw	t1,36(gp)
   11f98:	0a001d7f 	j	0x80075fc
   11f9c:	8f860044 	lw	a2,68(gp)
   11fa0:	0e0017cd 	jal	0x8005f34
   11fa4:	00000000 	nop
   11fa8:	0a001de2 	j	0x8007788
   11fac:	00000000 	nop
   11fb0:	9383004a 	lbu	v1,74(gp)
   11fb4:	27bdffe0 	addiu	sp,sp,-32
   11fb8:	24020002 	li	v0,2
   11fbc:	afb20018 	sw	s2,24(sp)
   11fc0:	afb10014 	sw	s1,20(sp)
   11fc4:	afbf001c 	sw	ra,28(sp)
   11fc8:	afb00010 	sw	s0,16(sp)
   11fcc:	00808821 	move	s1,a0
   11fd0:	106200b6 	beq	v1,v0,0x122ac
   11fd4:	00009021 	move	s2,zero
   11fd8:	9783004c 	lhu	v1,76(gp)
   11fdc:	8f850050 	lw	a1,80(gp)
   11fe0:	3066ffff 	andi	a2,v1,0xffff
   11fe4:	00c5202b 	sltu	a0,a2,a1
   11fe8:	1480005b 	bnez	a0,0x12158
   11fec:	93870038 	lbu	a3,56(gp)
   11ff0:	3c088000 	lui	t0,0x8000
   11ff4:	95040120 	lhu	a0,288(t0)
   11ff8:	10e50052 	beq	a3,a1,0x12144
   11ffc:	8f8a0024 	lw	t2,36(gp)
   12000:	8f840054 	lw	a0,84(gp)
   12004:	30a500ff 	andi	a1,a1,0xff
   12008:	0e0017a2 	jal	0x8005e88
   1200c:	24060001 	li	a2,1
   12010:	8f82005c 	lw	v0,92(gp)
   12014:	3c0b8000 	lui	t3,0x8000
   12018:	3c1f4080 	lui	ra,0x4080
   1201c:	244e0178 	addiu	t6,v0,376
   12020:	31d00078 	andi	s0,t6,0x78
   12024:	240fff80 	li	t7,-128
   12028:	021f6025 	or	t4,s0,ra
   1202c:	35780900 	ori	t8,t3,0x900
   12030:	31d90007 	andi	t9,t6,0x7
   12034:	01cf6824 	and	t5,t6,t7
   12038:	ad6d0800 	sw	t5,2048(t3)
   1203c:	03388021 	addu	s0,t9,t8
   12040:	ad6c0810 	sw	t4,2064(t3)
   12044:	02202021 	move	a0,s1
   12048:	02002821 	move	a1,s0
   1204c:	0e001d44 	jal	0x8007510
   12050:	af90003c 	sw	s0,60(gp)
   12054:	2403ffff 	li	v1,-1
   12058:	10430033 	beq	v0,v1,0x12128
   1205c:	2404ffff 	li	a0,-1
   12060:	8e0c0010 	lw	t4,16(s0)
   12064:	3c070800 	lui	a3,0x800
   12068:	8ce731b0 	lw	a3,12720(a3)
   1206c:	92060000 	lbu	a2,0(s0)
   12070:	31843fff 	andi	a0,t4,0x3fff
   12074:	0087282b 	sltu	a1,a0,a3
   12078:	10a00023 	beqz	a1,0x12108
   1207c:	30cd003f 	andi	t5,a2,0x3f
   12080:	8f99005c 	lw	t9,92(gp)
   12084:	00047980 	sll	t7,a0,0x6
   12088:	3c040800 	lui	a0,0x800
   1208c:	8c8431a8 	lw	a0,12712(a0)
   12090:	2409ff80 	li	t1,-128
   12094:	93900049 	lbu	s0,73(gp)
   12098:	00994021 	addu	t0,a0,t9
   1209c:	010f2021 	addu	a0,t0,t7
   120a0:	00897824 	and	t7,a0,t1
   120a4:	000f5140 	sll	t2,t7,0x5
   120a8:	3c098000 	lui	t1,0x8000
   120ac:	309f007f 	andi	ra,a0,0x7f
   120b0:	3c0b0080 	lui	t3,0x80
   120b4:	8f880028 	lw	t0,40(gp)
   120b8:	308e0078 	andi	t6,a0,0x78
   120bc:	35780001 	ori	t8,t3,0x1
   120c0:	015f2825 	or	a1,t2,ra
   120c4:	30860007 	andi	a2,a0,0x7
   120c8:	35270940 	ori	a3,t1,0x940
   120cc:	3c031000 	lui	v1,0x1000
   120d0:	3c02800c 	lui	v0,0x800c
   120d4:	01d85825 	or	t3,t6,t8
   120d8:	00c7c821 	addu	t9,a2,a3
   120dc:	00a35025 	or	t2,a1,v1
   120e0:	03e2c021 	addu	t8,ra,v0
   120e4:	360e0001 	ori	t6,s0,0x1
   120e8:	ad2f0804 	sw	t7,2052(t1)
   120ec:	af990040 	sw	t9,64(gp)
   120f0:	ad2b0814 	sw	t3,2068(t1)
   120f4:	af980034 	sw	t8,52(gp)
   120f8:	ad2f0028 	sw	t7,40(t1)
   120fc:	ad040074 	sw	a0,116(t0)
   12100:	ad2a0830 	sw	t2,2096(t1)
   12104:	a38e0049 	sb	t6,73(gp)
   12108:	9383004a 	lbu	v1,74(gp)
   1210c:	24100003 	li	s0,3
   12110:	50700027 	beql	v1,s0,0x121b0
   12114:	25a3ffe0 	addiu	v1,t5,-32
   12118:	240c0001 	li	t4,1
   1211c:	106c001c 	beq	v1,t4,0x12190
   12120:	24060023 	li	a2,35
   12124:	02402021 	move	a0,s2
   12128:	8fbf001c 	lw	ra,28(sp)
   1212c:	8fb20018 	lw	s2,24(sp)
   12130:	8fb10014 	lw	s1,20(sp)
   12134:	8fb00010 	lw	s0,16(sp)
   12138:	00801021 	move	v0,a0
   1213c:	03e00008 	jr	ra
   12140:	27bd0020 	addiu	sp,sp,32
   12144:	31490003 	andi	t1,t2,0x3
   12148:	5520ffae 	bnezl	t1,0x12004
   1214c:	8f840054 	lw	a0,84(gp)
   12150:	0a001e1f 	j	0x800787c
   12154:	8f900054 	lw	s0,84(gp)
   12158:	8f840054 	lw	a0,84(gp)
   1215c:	306500ff 	andi	a1,v1,0xff
   12160:	0e0017a2 	jal	0x8005e88
   12164:	24060001 	li	a2,1
   12168:	938e0038 	lbu	t6,56(gp)
   1216c:	24070034 	li	a3,52
   12170:	11c70018 	beq	t6,a3,0x121d4
   12174:	8f850050 	lw	a1,80(gp)
   12178:	9783004c 	lhu	v1,76(gp)
   1217c:	3078ffff 	andi	t8,v1,0xffff
   12180:	00b87023 	subu	t6,a1,t8
   12184:	af8e0050 	sw	t6,80(gp)
   12188:	0a001e57 	j	0x800795c
   1218c:	a780004c 	sh	zero,76(gp)
   12190:	11a60032 	beq	t5,a2,0x1225c
   12194:	00000000 	nop
   12198:	02202021 	move	a0,s1
   1219c:	2411000b 	li	s1,11
   121a0:	0e00189b 	jal	0x800626c
   121a4:	a3910058 	sb	s1,88(gp)
   121a8:	0a001e57 	j	0x800795c
   121ac:	00409021 	move	s2,v0
   121b0:	2c720020 	sltiu	s2,v1,32
   121b4:	1240fff8 	beqz	s2,0x12198
   121b8:	00031080 	sll	v0,v1,0x2
   121bc:	3c050801 	lui	a1,0x801
   121c0:	24a58160 	addiu	a1,a1,-32416
   121c4:	0045f821 	addu	ra,v0,a1
   121c8:	8fed0000 	lw	t5,0(ra)
   121cc:	01a00008 	jr	t5
   121d0:	00000000 	nop
   121d4:	2cb80005 	sltiu	t8,a1,5
   121d8:	1700ffe8 	bnez	t8,0x1217c
   121dc:	9783004c 	lhu	v1,76(gp)
   121e0:	978a004c 	lhu	t2,76(gp)
   121e4:	3148ffff 	andi	t0,t2,0xffff
   121e8:	00a84823 	subu	t1,a1,t0
   121ec:	2d2b0005 	sltiu	t3,t1,5
   121f0:	11600003 	beqz	t3,0x12200
   121f4:	314400ff 	andi	a0,t2,0xff
   121f8:	24affffc 	addiu	t7,a1,-4
   121fc:	31e400ff 	andi	a0,t7,0xff
   12200:	8f900054 	lw	s0,84(gp)
   12204:	8f990024 	lw	t9,36(gp)
   12208:	12190004 	beq	s0,t9,0x1221c
   1220c:	389f0001 	xori	ra,a0,0x1
   12210:	33ed0001 	andi	t5,ra,0x1
   12214:	15a00029 	bnez	t5,0x122bc
   12218:	00000000 	nop
   1221c:	8f850028 	lw	a1,40(gp)
   12220:	90a700c4 	lbu	a3,196(a1)
   12224:	34e30010 	ori	v1,a3,0x10
   12228:	a0a300c4 	sb	v1,196(a1)
   1222c:	9783004c 	lhu	v1,76(gp)
   12230:	8f850050 	lw	a1,80(gp)
   12234:	8f840028 	lw	a0,40(gp)
   12238:	3078ffff 	andi	t8,v1,0xffff
   1223c:	00b87023 	subu	t6,a1,t8
   12240:	ac8000dc 	sw	zero,220(a0)
   12244:	a780004c 	sh	zero,76(gp)
   12248:	0a001e57 	j	0x800795c
   1224c:	af8e0050 	sw	t6,80(gp)
   12250:	2403ffff 	li	v1,-1
   12254:	11830005 	beq	t4,v1,0x1226c
   12258:	00000000 	nop
   1225c:	0e001b75 	jal	0x8006dd4
   12260:	02202021 	move	a0,s1
   12264:	0a001e57 	j	0x800795c
   12268:	00409021 	move	s2,v0
   1226c:	0e001afa 	jal	0x8006be8
   12270:	02202021 	move	a0,s1
   12274:	0a001e57 	j	0x800795c
   12278:	00409021 	move	s2,v0
   1227c:	0e001c7b 	jal	0x80071ec
   12280:	02202021 	move	a0,s1
   12284:	0a001e57 	j	0x800795c
   12288:	00409021 	move	s2,v0
   1228c:	0e001bd9 	jal	0x8006f64
   12290:	02202021 	move	a0,s1
   12294:	0a001e57 	j	0x800795c
   12298:	00409021 	move	s2,v0
   1229c:	0e001a51 	jal	0x8006944
   122a0:	02202021 	move	a0,s1
   122a4:	0a001e57 	j	0x800795c
   122a8:	00409021 	move	s2,v0
   122ac:	93850038 	lbu	a1,56(gp)
   122b0:	2404fffd 	li	a0,-3
   122b4:	0a001e58 	j	0x8007960
   122b8:	af850050 	sw	a1,80(gp)
   122bc:	0e0017cd 	jal	0x8005f34
   122c0:	00000000 	nop
   122c4:	9783004c 	lhu	v1,76(gp)
   122c8:	8f850050 	lw	a1,80(gp)
   122cc:	00402021 	move	a0,v0
   122d0:	3066ffff 	andi	a2,v1,0xffff
   122d4:	00a66023 	subu	t4,a1,a2
   122d8:	2d820005 	sltiu	v0,t4,5
   122dc:	1040ffa8 	beqz	v0,0x12180
   122e0:	3078ffff 	andi	t8,v1,0xffff
   122e4:	8f910028 	lw	s1,40(gp)
   122e8:	00b87023 	subu	t6,a1,t8
   122ec:	ae2400dc 	sw	a0,220(s1)
   122f0:	a780004c 	sh	zero,76(gp)
   122f4:	0a001e57 	j	0x800795c
   122f8:	af8e0050 	sw	t6,80(gp)
   122fc:	27bdffd0 	addiu	sp,sp,-48
   12300:	afb20018 	sw	s2,24(sp)
   12304:	afb00010 	sw	s0,16(sp)
   12308:	afbf0028 	sw	ra,40(sp)
   1230c:	afb50024 	sw	s5,36(sp)
   12310:	afb40020 	sw	s4,32(sp)
   12314:	afb3001c 	sw	s3,28(sp)
   12318:	afb10014 	sw	s1,20(sp)
   1231c:	3c0c8000 	lui	t4,0x8000
   12320:	8d880128 	lw	t0,296(t4)
   12324:	240fff80 	li	t7,-128
   12328:	3c07800a 	lui	a3,0x800a
   1232c:	25100100 	addiu	s0,t0,256
   12330:	250b0080 	addiu	t3,t0,128
   12334:	020f6824 	and	t5,s0,t7
   12338:	3205007f 	andi	a1,s0,0x7f
   1233c:	016f7024 	and	t6,t3,t7
   12340:	ad8e0090 	sw	t6,144(t4)
   12344:	00a72821 	addu	a1,a1,a3
   12348:	ad8d0024 	sw	t5,36(t4)
   1234c:	90a700ec 	lbu	a3,236(a1)
   12350:	3169007f 	andi	t1,t3,0x7f
   12354:	3c0a8004 	lui	t2,0x8004
   12358:	012a1821 	addu	v1,t1,t2
   1235c:	a387004a 	sb	a3,74(gp)
   12360:	9066007c 	lbu	a2,124(v1)
   12364:	00809021 	move	s2,a0
   12368:	af830020 	sw	v1,32(gp)
   1236c:	30c20002 	andi	v0,a2,0x2
   12370:	af88005c 	sw	t0,92(gp)
   12374:	af850028 	sw	a1,40(gp)
   12378:	00a01821 	move	v1,a1
   1237c:	14400002 	bnez	v0,0x12388
   12380:	24040034 	li	a0,52
   12384:	24040030 	li	a0,48
   12388:	a3840038 	sb	a0,56(gp)
   1238c:	8c6600cc 	lw	a2,204(v1)
   12390:	30f100ff 	andi	s1,a3,0xff
   12394:	24040004 	li	a0,4
   12398:	af860050 	sw	a2,80(gp)
   1239c:	12240004 	beq	s1,a0,0x123b0
   123a0:	a3800058 	sb	zero,88(gp)
   123a4:	8e530004 	lw	s3,4(s2)
   123a8:	1660001d 	bnez	s3,0x12420
   123ac:	3c088000 	lui	t0,0x8000
   123b0:	93870049 	lbu	a3,73(gp)
   123b4:	30f20001 	andi	s2,a3,0x1
   123b8:	1240000f 	beqz	s2,0x123f8
   123bc:	8fbf0028 	lw	ra,40(sp)
   123c0:	8cb80074 	lw	t8,116(a1)
   123c4:	8ca40074 	lw	a0,116(a1)
   123c8:	2419ff80 	li	t9,-128
   123cc:	03198824 	and	s1,t8,t9
   123d0:	00117140 	sll	t6,s1,0x5
   123d4:	308f007f 	andi	t7,a0,0x7f
   123d8:	01cf6025 	or	t4,t6,t7
   123dc:	3c0d2000 	lui	t5,0x2000
   123e0:	018d5825 	or	t3,t4,t5
   123e4:	30f500fe 	andi	s5,a3,0xfe
   123e8:	3c0a8000 	lui	t2,0x8000
   123ec:	ad4b0830 	sw	t3,2096(t2)
   123f0:	a3950049 	sb	s5,73(gp)
   123f4:	8fbf0028 	lw	ra,40(sp)
   123f8:	8fb50024 	lw	s5,36(sp)
   123fc:	8fb40020 	lw	s4,32(sp)
   12400:	8fb3001c 	lw	s3,28(sp)
   12404:	8fb20018 	lw	s2,24(sp)
   12408:	8fb10014 	lw	s1,20(sp)
   1240c:	8fb00010 	lw	s0,16(sp)
   12410:	24020001 	li	v0,1
   12414:	27bd0030 	addiu	sp,sp,48
   12418:	03e00008 	jr	ra
   1241c:	aca600cc 	sw	a2,204(a1)
   12420:	8e590008 	lw	t9,8(s2)
   12424:	951f0120 	lhu	ra,288(t0)
   12428:	8e460010 	lw	a2,16(s2)
   1242c:	033fc021 	addu	t8,t9,ra
   12430:	3307ffff 	andi	a3,t8,0xffff
   12434:	30f5000f 	andi	s5,a3,0xf
   12438:	32b40001 	andi	s4,s5,0x1
   1243c:	af860024 	sw	a2,36(gp)
   12440:	1680003b 	bnez	s4,0x12530
   12444:	a3950048 	sb	s5,72(gp)
   12448:	35060c00 	ori	a2,t0,0xc00
   1244c:	02a61021 	addu	v0,s5,a2
   12450:	00f51823 	subu	v1,a3,s5
   12454:	ad030084 	sw	v1,132(t0)
   12458:	af820054 	sw	v0,84(gp)
   1245c:	8e490004 	lw	t1,4(s2)
   12460:	3128ffff 	andi	t0,t1,0xffff
   12464:	1100002b 	beqz	t0,0x12514
   12468:	a789004c 	sh	t1,76(gp)
   1246c:	2410ff80 	li	s0,-128
   12470:	3c158000 	lui	s5,0x8000
   12474:	3c142000 	lui	s4,0x2000
   12478:	0a001f44 	j	0x8007d10
   1247c:	2413fffe 	li	s3,-2
   12480:	90ae00c4 	lbu	t6,196(a1)
   12484:	020e6824 	and	t5,s0,t6
   12488:	31ac00ff 	andi	t4,t5,0xff
   1248c:	1580002a 	bnez	t4,0x12538
   12490:	02402021 	move	a0,s2
   12494:	93840049 	lbu	a0,73(gp)
   12498:	9786004c 	lhu	a2,76(gp)
   1249c:	308f0001 	andi	t7,a0,0x1
   124a0:	11e0000b 	beqz	t7,0x124d0
   124a4:	02642824 	and	a1,s3,a0
   124a8:	8f890028 	lw	t1,40(gp)
   124ac:	8d230074 	lw	v1,116(t1)
   124b0:	8d280074 	lw	t0,116(t1)
   124b4:	a3850049 	sb	a1,73(gp)
   124b8:	00701024 	and	v0,v1,s0
   124bc:	0002c940 	sll	t9,v0,0x5
   124c0:	311f007f 	andi	ra,t0,0x7f
   124c4:	033fc025 	or	t8,t9,ra
   124c8:	03148825 	or	s1,t8,s4
   124cc:	aeb10830 	sw	s1,2096(s5)
   124d0:	10c00010 	beqz	a2,0x12514
   124d4:	8f850028 	lw	a1,40(gp)
   124d8:	90a700c4 	lbu	a3,196(a1)
   124dc:	02075824 	and	t3,s0,a3
   124e0:	316a00ff 	andi	t2,t3,0xff
   124e4:	1540ffe6 	bnez	t2,0x12480
   124e8:	02402021 	move	a0,s2
   124ec:	0e001dfa 	jal	0x80077e8
   124f0:	9791004c 	lhu	s1,76(gp)
   124f4:	1040ffe8 	beqz	v0,0x12498
   124f8:	93840049 	lbu	a0,73(gp)
   124fc:	2405fffd 	li	a1,-3
   12500:	54450005 	bnel	v0,a1,0x12518
   12504:	8e430020 	lw	v1,32(s2)
   12508:	02202821 	move	a1,s1
   1250c:	0e00177a 	jal	0x8005de8
   12510:	02402021 	move	a0,s2
   12514:	8e430020 	lw	v1,32(s2)
   12518:	30700004 	andi	s0,v1,0x4
   1251c:	1600000a 	bnez	s0,0x12548
   12520:	2414fffb 	li	s4,-5
   12524:	8f850028 	lw	a1,40(gp)
   12528:	0a001efa 	j	0x8007be8
   1252c:	8f860050 	lw	a2,80(gp)
   12530:	0a001f25 	j	0x8007c94
   12534:	af860054 	sw	a2,84(gp)
   12538:	0e001a1d 	jal	0x8006874
   1253c:	00000000 	nop
   12540:	0a001f34 	j	0x8007cd0
   12544:	93840049 	lbu	a0,73(gp)
   12548:	00749824 	and	s3,v1,s4
   1254c:	0e001792 	jal	0x8005e48
   12550:	ae530020 	sw	s3,32(s2)
   12554:	8f850028 	lw	a1,40(gp)
   12558:	0a001efa 	j	0x8007be8
   1255c:	8f860050 	lw	a2,80(gp)
   12560:	27bdffd8 	addiu	sp,sp,-40
   12564:	afb3001c 	sw	s3,28(sp)
   12568:	afb10014 	sw	s1,20(sp)
   1256c:	afbf0020 	sw	ra,32(sp)
   12570:	afb20018 	sw	s2,24(sp)
   12574:	afb00010 	sw	s0,16(sp)
   12578:	3c028000 	lui	v0,0x8000
   1257c:	8c520140 	lw	s2,320(v0)
   12580:	8c4b0148 	lw	t3,328(v0)
   12584:	3c048000 	lui	a0,0x8000
   12588:	000b8c02 	srl	s1,t3,0x10
   1258c:	322300ff 	andi	v1,s1,0xff
   12590:	317300ff 	andi	s3,t3,0xff
   12594:	8c8501b8 	lw	a1,440(a0)
   12598:	04a0fffe 	bltz	a1,0x12594
   1259c:	34900180 	ori	s0,a0,0x180
   125a0:	ae120000 	sw	s2,0(s0)
   125a4:	8c870144 	lw	a3,324(a0)
   125a8:	2464fff0 	addiu	a0,v1,-16
   125ac:	24060002 	li	a2,2
   125b0:	2c830013 	sltiu	v1,a0,19
   125b4:	ae070004 	sw	a3,4(s0)
   125b8:	a6110008 	sh	s1,8(s0)
   125bc:	a206000b 	sb	a2,11(s0)
   125c0:	ae130024 	sw	s3,36(s0)
   125c4:	1060004f 	beqz	v1,0x12704
   125c8:	8fbf0020 	lw	ra,32(sp)
   125cc:	00044880 	sll	t1,a0,0x2
   125d0:	3c0a0801 	lui	t2,0x801
   125d4:	254a81e0 	addiu	t2,t2,-32288
   125d8:	012a4021 	addu	t0,t1,t2
   125dc:	8d040000 	lw	a0,0(t0)
   125e0:	00800008 	jr	a0
   125e4:	00000000 	nop
   125e8:	3c100800 	lui	s0,0x800
   125ec:	8e1031a8 	lw	s0,12712(s0)
   125f0:	31733fff 	andi	s3,t3,0x3fff
   125f4:	00138980 	sll	s1,s3,0x6
   125f8:	0212c821 	addu	t9,s0,s2
   125fc:	2405ff80 	li	a1,-128
   12600:	03312021 	addu	a0,t9,s1
   12604:	264c0100 	addiu	t4,s2,256
   12608:	26470080 	addiu	a3,s2,128
   1260c:	3c1f8000 	lui	ra,0x8000
   12610:	00e51824 	and	v1,a3,a1
   12614:	318f007f 	andi	t7,t4,0x7f
   12618:	30e9007f 	andi	t1,a3,0x7f
   1261c:	308a007f 	andi	t2,a0,0x7f
   12620:	3c18800a 	lui	t8,0x800a
   12624:	3c0e8004 	lui	t6,0x8004
   12628:	3c0d800c 	lui	t5,0x800c
   1262c:	00851024 	and	v0,a0,a1
   12630:	01853024 	and	a2,t4,a1
   12634:	014d8021 	addu	s0,t2,t5
   12638:	afe60024 	sw	a2,36(ra)
   1263c:	01f84021 	addu	t0,t7,t8
   12640:	afe30090 	sw	v1,144(ra)
   12644:	012e9821 	addu	s3,t1,t6
   12648:	afe20028 	sw	v0,40(ra)
   1264c:	af900034 	sw	s0,52(gp)
   12650:	af880028 	sw	t0,40(gp)
   12654:	af930020 	sw	s3,32(gp)
   12658:	0e001867 	jal	0x800619c
   1265c:	01608021 	move	s0,t3
   12660:	3c038000 	lui	v1,0x8000
   12664:	8c6b01b8 	lw	t3,440(v1)
   12668:	0560fffe 	bltz	t3,0x12664
   1266c:	8f870034 	lw	a3,52(gp)
   12670:	34650180 	ori	a1,v1,0x180
   12674:	8f860028 	lw	a2,40(gp)
   12678:	90e3000d 	lbu	v1,13(a3)
   1267c:	acb20000 	sw	s2,0(a1)
   12680:	a4b00006 	sh	s0,6(a1)
   12684:	00031600 	sll	v0,v1,0x18
   12688:	0002fe03 	sra	ra,v0,0x18
   1268c:	001f9027 	nor	s2,zero,ra
   12690:	001227c2 	srl	a0,s2,0x1f
   12694:	1080007a 	beqz	a0,0x12880
   12698:	24c20078 	addiu	v0,a2,120
   1269c:	24196082 	li	t9,24706
   126a0:	a4b90008 	sh	t9,8(a1)
   126a4:	a0a00005 	sb	zero,5(a1)
   126a8:	241f0002 	li	ra,2
   126ac:	a0bf000b 	sb	ra,11(a1)
   126b0:	00041c00 	sll	v1,a0,0x10
   126b4:	8f8b0020 	lw	t3,32(gp)
   126b8:	3c022700 	lui	v0,0x2700
   126bc:	00629025 	or	s2,v1,v0
   126c0:	acb20010 	sw	s2,16(a1)
   126c4:	aca00014 	sw	zero,20(a1)
   126c8:	aca00024 	sw	zero,36(a1)
   126cc:	aca00028 	sw	zero,40(a1)
   126d0:	aca0002c 	sw	zero,44(a1)
   126d4:	8d730038 	lw	s3,56(t3)
   126d8:	2410ff80 	li	s0,-128
   126dc:	acb30018 	sw	s3,24(a1)
   126e0:	90e4000d 	lbu	a0,13(a3)
   126e4:	02048824 	and	s1,s0,a0
   126e8:	322500ff 	andi	a1,s1,0xff
   126ec:	10a00005 	beqz	a1,0x12704
   126f0:	8fbf0020 	lw	ra,32(sp)
   126f4:	90ec000d 	lbu	t4,13(a3)
   126f8:	3188007f 	andi	t0,t4,0x7f
   126fc:	a0e8000d 	sb	t0,13(a3)
   12700:	8fbf0020 	lw	ra,32(sp)
   12704:	8fb3001c 	lw	s3,28(sp)
   12708:	8fb20018 	lw	s2,24(sp)
   1270c:	8fb10014 	lw	s1,20(sp)
   12710:	8fb00010 	lw	s0,16(sp)
   12714:	3c0d1000 	lui	t5,0x1000
   12718:	3c0a8000 	lui	t2,0x8000
   1271c:	27bd0028 	addiu	sp,sp,40
   12720:	03e00008 	jr	ra
   12724:	ad4d01b8 	sw	t5,440(t2)
   12728:	265f0100 	addiu	ra,s2,256
   1272c:	2405ff80 	li	a1,-128
   12730:	33f8007f 	andi	t8,ra,0x7f
   12734:	3c068000 	lui	a2,0x8000
   12738:	03e57824 	and	t7,ra,a1
   1273c:	3c19800a 	lui	t9,0x800a
   12740:	03192021 	addu	a0,t8,t9
   12744:	accf0024 	sw	t7,36(a2)
   12748:	908e00c4 	lbu	t6,196(a0)
   1274c:	00ae6824 	and	t5,a1,t6
   12750:	31ac00ff 	andi	t4,t5,0xff
   12754:	1180ffea 	beqz	t4,0x12700
   12758:	af840028 	sw	a0,40(gp)
   1275c:	248e0078 	addiu	t6,a0,120
   12760:	95cd0012 	lhu	t5,18(t6)
   12764:	3c0c0800 	lui	t4,0x800
   12768:	8d8c31a8 	lw	t4,12712(t4)
   1276c:	31ab3fff 	andi	t3,t5,0x3fff
   12770:	01924821 	addu	t1,t4,s2
   12774:	000b5180 	sll	t2,t3,0x6
   12778:	012a4021 	addu	t0,t1,t2
   1277c:	01052024 	and	a0,t0,a1
   12780:	acc40028 	sw	a0,40(a2)
   12784:	3107007f 	andi	a3,t0,0x7f
   12788:	3c06800c 	lui	a2,0x800c
   1278c:	00e62021 	addu	a0,a3,a2
   12790:	9083000d 	lbu	v1,13(a0)
   12794:	00a31024 	and	v0,a1,v1
   12798:	304500ff 	andi	a1,v0,0xff
   1279c:	10a0ffd8 	beqz	a1,0x12700
   127a0:	af840034 	sw	a0,52(gp)
   127a4:	9098000d 	lbu	t8,13(a0)
   127a8:	330f0010 	andi	t7,t8,0x10
   127ac:	15e0ffd5 	bnez	t7,0x12704
   127b0:	8fbf0020 	lw	ra,32(sp)
   127b4:	0e001867 	jal	0x800619c
   127b8:	00000000 	nop
   127bc:	3c038000 	lui	v1,0x8000
   127c0:	8c7901b8 	lw	t9,440(v1)
   127c4:	0720fffe 	bltz	t9,0x127c0
   127c8:	00000000 	nop
   127cc:	ae120000 	sw	s2,0(s0)
   127d0:	8c720144 	lw	s2,324(v1)
   127d4:	ae120004 	sw	s2,4(s0)
   127d8:	a6110008 	sh	s1,8(s0)
   127dc:	24110002 	li	s1,2
   127e0:	a211000b 	sb	s1,11(s0)
   127e4:	ae130024 	sw	s3,36(s0)
   127e8:	0a001fcf 	j	0x8007f3c
   127ec:	8fbf0020 	lw	ra,32(sp)
   127f0:	3c126000 	lui	s2,0x6000
   127f4:	8e452c08 	lw	a1,11272(s2)
   127f8:	3c03f003 	lui	v1,0xf003
   127fc:	3462ffff 	ori	v0,v1,0xffff
   12800:	00a2f824 	and	ra,a1,v0
   12804:	ae5f2c08 	sw	ra,11272(s2)
   12808:	8e582c08 	lw	t8,11272(s2)
   1280c:	3c1901b0 	lui	t9,0x1b0
   12810:	03199825 	or	s3,t8,t9
   12814:	ae532c08 	sw	s3,11272(s2)
   12818:	0a001fcf 	j	0x8007f3c
   1281c:	8fbf0020 	lw	ra,32(sp)
   12820:	264d0100 	addiu	t5,s2,256
   12824:	31af007f 	andi	t7,t5,0x7f
   12828:	3c10800a 	lui	s0,0x800a
   1282c:	240eff80 	li	t6,-128
   12830:	01f02821 	addu	a1,t7,s0
   12834:	01ae6024 	and	t4,t5,t6
   12838:	3c0b8000 	lui	t3,0x8000
   1283c:	ad6c0024 	sw	t4,36(t3)
   12840:	1660ffaf 	bnez	s3,0x12700
   12844:	af850028 	sw	a1,40(gp)
   12848:	24110003 	li	s1,3
   1284c:	a0b100ec 	sb	s1,236(a1)
   12850:	0a001fcf 	j	0x8007f3c
   12854:	8fbf0020 	lw	ra,32(sp)
   12858:	26480100 	addiu	t0,s2,256
   1285c:	310a007f 	andi	t2,t0,0x7f
   12860:	3c0b800a 	lui	t3,0x800a
   12864:	2409ff80 	li	t1,-128
   12868:	014b3021 	addu	a2,t2,t3
   1286c:	01092024 	and	a0,t0,t1
   12870:	3c078000 	lui	a3,0x8000
   12874:	ace40024 	sw	a0,36(a3)
   12878:	0a001fce 	j	0x8007f38
   1287c:	af860028 	sw	a2,40(gp)
   12880:	944a0012 	lhu	t2,18(v0)
   12884:	32083fff 	andi	t0,s0,0x3fff
   12888:	314c3fff 	andi	t4,t2,0x3fff
   1288c:	1588ff84 	bne	t4,t0,0x126a0
   12890:	24196082 	li	t9,24706
   12894:	90cf00c4 	lbu	t7,196(a2)
   12898:	240eff80 	li	t6,-128
   1289c:	01cf4824 	and	t1,t6,t7
   128a0:	312d00ff 	andi	t5,t1,0xff
   128a4:	11a0ff7e 	beqz	t5,0x126a0
   128a8:	00000000 	nop
   128ac:	24070004 	li	a3,4
   128b0:	a0c700ec 	sb	a3,236(a2)
   128b4:	8f870034 	lw	a3,52(gp)
   128b8:	24186084 	li	t8,24708
   128bc:	2406000d 	li	a2,13
   128c0:	a4b80008 	sh	t8,8(a1)
   128c4:	a0a60005 	sb	a2,5(a1)
   128c8:	0a001fb9 	j	0x8007ee4
   128cc:	241f0002 	li	ra,2
   128d0:	0800330c 	j	0xcc30
   128d4:	0800330c 	j	0xcc30
   128d8:	080033e8 	j	0xcfa0
   128dc:	080033bc 	j	0xcef0
   128e0:	080033a0 	j	0xce80
   128e4:	080032f0 	j	0xcbc0
   128e8:	080032f0 	j	0xcbc0
   128ec:	080032f0 	j	0xcbc0
   128f0:	08003314 	j	0xcc50
   128f4:	80080100 	lb	t0,256(zero)
   128f8:	80080080 	lb	t0,128(zero)
   128fc:	80080000 	lb	t0,0(zero)
   12900:	5f865437 	.word	0x5f865437
   12904:	e4ac62cc 	swc1	$f12,25292(a1)
   12908:	50103a45 	beql	zero,s0,0x21220
   1290c:	36621985 	ori	v0,s3,0x1985
   12910:	bf14c0e8 	cache	0x14,-16152(t8)
   12914:	1bc27a1e 	.word	0x1bc27a1e
   12918:	84f4b556 	lh	s4,-19114(a3)
   1291c:	094ea6fe 	j	0x53a9bf8
   12920:	7dda01e7 	.word	0x7dda01e7
   12924:	c04d7481 	ll	t5,29825(v0)
   12928:	08007a88 	j	0x1ea20
   1292c:	08007ab4 	j	0x1ead0
   12930:	08007a94 	j	0x1ea50
   12934:	080079d0 	j	0x1e740
   12938:	08007a94 	j	0x1ea50
   1293c:	08007ad4 	j	0x1eb50
   12940:	08007a94 	j	0x1ea50
   12944:	080079d0 	j	0x1e740
   12948:	080079d0 	j	0x1e740
   1294c:	080079d0 	j	0x1e740
   12950:	080079d0 	j	0x1e740
   12954:	080079d0 	j	0x1e740
   12958:	080079d0 	j	0x1e740
   1295c:	080079d0 	j	0x1e740
   12960:	080079d0 	j	0x1e740
   12964:	080079d0 	j	0x1e740
   12968:	080079d0 	j	0x1e740
   1296c:	08007ac4 	j	0x1eb10
   12970:	08007aa4 	j	0x1ea90
   12974:	080079d0 	j	0x1e740
   12978:	080079d0 	j	0x1e740
   1297c:	080079d0 	j	0x1e740
   12980:	080079d0 	j	0x1e740
   12984:	080079d0 	j	0x1e740
   12988:	080079d0 	j	0x1e740
   1298c:	080079d0 	j	0x1e740
   12990:	080079d0 	j	0x1e740
   12994:	080079d0 	j	0x1e740
   12998:	080079d0 	j	0x1e740
   1299c:	080079d0 	j	0x1e740
   129a0:	080079d0 	j	0x1e740
   129a4:	08007aa4 	j	0x1ea90
   129a8:	08008090 	j	0x20240
   129ac:	08007f38 	j	0x1fce0
   129b0:	08008058 	j	0x20160
   129b4:	08007f38 	j	0x1fce0
   129b8:	08008028 	j	0x200a0
   129bc:	08007e20 	j	0x1f880
   129c0:	08007f38 	j	0x1fce0
   129c4:	08007f38 	j	0x1fce0
   129c8:	08007f38 	j	0x1fce0
   129cc:	08007f38 	j	0x1fce0
   129d0:	08007f38 	j	0x1fce0
   129d4:	08007f38 	j	0x1fce0
   129d8:	08007f38 	j	0x1fce0
   129dc:	08007f38 	j	0x1fce0
   129e0:	08007f38 	j	0x1fce0
   129e4:	08007f38 	j	0x1fce0
   129e8:	08007f38 	j	0x1fce0
   129ec:	08007f38 	j	0x1fce0
   129f0:	08007f60 	j	0x1fd80
   129f4:	0a000122 	j	0x8000488
   129f8:	00000000 	nop
   129fc:	00000000 	nop
   12a00:	0000000d 	break
   12a04:	74706135 	jalx	0x1c184d5
   12a08:	2e302e30 	sltiu	s0,s1,11824
   12a0c:	6a313500 	ldl	s1,13568(s1)
   12a10:	05000001 	bltz	t0,0x12a18
   12a14:	00000000 	nop
	...
   12a80:	10000003 	b	0x12a90
   12a84:	00000000 	nop
   12a88:	0000000d 	break
   12a8c:	0000000d 	break
   12a90:	3c020800 	lui	v0,0x800
   12a94:	24421c20 	addiu	v0,v0,7200
   12a98:	3c030800 	lui	v1,0x800
   12a9c:	24631fa0 	addiu	v1,v1,8096
   12aa0:	ac400000 	sw	zero,0(v0)
   12aa4:	0043202b 	sltu	a0,v0,v1
   12aa8:	1480fffd 	bnez	a0,0x12aa0
   12aac:	24420004 	addiu	v0,v0,4
   12ab0:	3c1d0800 	lui	sp,0x800
   12ab4:	37bd2ffc 	ori	sp,sp,0x2ffc
   12ab8:	03a0f021 	move	s8,sp
   12abc:	3c100800 	lui	s0,0x800
   12ac0:	26100488 	addiu	s0,s0,1160
   12ac4:	3c1c0800 	lui	gp,0x800
   12ac8:	279c1c20 	addiu	gp,gp,7200
   12acc:	0e0002e2 	jal	0x8000b88
   12ad0:	00000000 	nop
   12ad4:	0000000d 	break
   12ad8:	2402ff80 	li	v0,-128
   12adc:	27bdffe0 	addiu	sp,sp,-32
   12ae0:	00821024 	and	v0,a0,v0
   12ae4:	afb00010 	sw	s0,16(sp)
   12ae8:	af420020 	sw	v0,32(k0)
   12aec:	afbf0018 	sw	ra,24(sp)
   12af0:	afb10014 	sw	s1,20(sp)
   12af4:	93650004 	lbu	a1,4(k1)
   12af8:	3084007f 	andi	a0,a0,0x7f
   12afc:	03441821 	addu	v1,k0,a0
   12b00:	3c020008 	lui	v0,0x8
   12b04:	00621821 	addu	v1,v1,v0
   12b08:	30a50020 	andi	a1,a1,0x20
   12b0c:	03608021 	move	s0,k1
   12b10:	3c080111 	lui	t0,0x111
   12b14:	277b0008 	addiu	k1,k1,8
   12b18:	14a00002 	bnez	a1,0x12b24
   12b1c:	2466005c 	addiu	a2,v1,92
   12b20:	24660058 	addiu	a2,v1,88
   12b24:	92020004 	lbu	v0,4(s0)
   12b28:	97430104 	lhu	v1,260(k0)
   12b2c:	92040004 	lbu	a0,4(s0)
   12b30:	3047000f 	andi	a3,v0,0xf
   12b34:	3063ffff 	andi	v1,v1,0xffff
   12b38:	30840040 	andi	a0,a0,0x40
   12b3c:	00672823 	subu	a1,v1,a3
   12b40:	10800009 	beqz	a0,0x12b68
   12b44:	00004821 	move	t1,zero
   12b48:	92020005 	lbu	v0,5(s0)
   12b4c:	30420004 	andi	v0,v0,0x4
   12b50:	10400005 	beqz	v0,0x12b68
   12b54:	00000000 	nop
   12b58:	10a00003 	beqz	a1,0x12b68
   12b5c:	00000000 	nop
   12b60:	24a5fffc 	addiu	a1,a1,-4
   12b64:	24090004 	li	t1,4
   12b68:	92020005 	lbu	v0,5(s0)
   12b6c:	30420004 	andi	v0,v0,0x4
   12b70:	10400012 	beqz	v0,0x12bbc
   12b74:	00000000 	nop
   12b78:	10a00010 	beqz	a1,0x12bbc
   12b7c:	00000000 	nop
   12b80:	96020002 	lhu	v0,2(s0)
   12b84:	00a72021 	addu	a0,a1,a3
   12b88:	01044025 	or	t0,t0,a0
   12b8c:	2442fffe 	addiu	v0,v0,-2
   12b90:	a7421016 	sh	v0,4118(k0)
   12b94:	92030004 	lbu	v1,4(s0)
   12b98:	2402ff80 	li	v0,-128
   12b9c:	00431024 	and	v0,v0,v1
   12ba0:	304200ff 	andi	v0,v0,0xff
   12ba4:	10400003 	beqz	v0,0x12bb4
   12ba8:	3c020400 	lui	v0,0x400
   12bac:	0a000172 	j	0x80005c8
   12bb0:	01024025 	or	t0,t0,v0
   12bb4:	8cc20000 	lw	v0,0(a2)
   12bb8:	af421018 	sw	v0,4120(k0)
   12bbc:	8f420178 	lw	v0,376(k0)
   12bc0:	0440fffe 	bltz	v0,0x12bbc
   12bc4:	2402000a 	li	v0,10
   12bc8:	a7420140 	sh	v0,320(k0)
   12bcc:	96020002 	lhu	v0,2(s0)
   12bd0:	24040009 	li	a0,9
   12bd4:	30420007 	andi	v0,v0,0x7
   12bd8:	00021023 	negu	v0,v0
   12bdc:	30420007 	andi	v0,v0,0x7
   12be0:	a7420142 	sh	v0,322(k0)
   12be4:	96020002 	lhu	v0,2(s0)
   12be8:	2442fffe 	addiu	v0,v0,-2
   12bec:	a7420144 	sh	v0,324(k0)
   12bf0:	a7400146 	sh	zero,326(k0)
   12bf4:	97420104 	lhu	v0,260(k0)
   12bf8:	a7420148 	sh	v0,328(k0)
   12bfc:	8f420108 	lw	v0,264(k0)
   12c00:	30420020 	andi	v0,v0,0x20
   12c04:	50400001 	beqzl	v0,0x12c0c
   12c08:	24040001 	li	a0,1
   12c0c:	92020004 	lbu	v0,4(s0)
   12c10:	30420010 	andi	v0,v0,0x10
   12c14:	14400002 	bnez	v0,0x12c20
   12c18:	34830010 	ori	v1,a0,0x10
   12c1c:	00801821 	move	v1,a0
   12c20:	a743014a 	sh	v1,330(k0)
	...
   12c34:	af481000 	sw	t0,4096(k0)
	...
   12c48:	8f421000 	lw	v0,4096(k0)
   12c4c:	0441fffe 	bgez	v0,0x12c48
   12c50:	3102ffff 	andi	v0,t0,0xffff
   12c54:	10400007 	beqz	v0,0x12c74
   12c58:	00000000 	nop
   12c5c:	92020004 	lbu	v0,4(s0)
   12c60:	30420040 	andi	v0,v0,0x40
   12c64:	14400003 	bnez	v0,0x12c74
   12c68:	00000000 	nop
   12c6c:	8f421018 	lw	v0,4120(k0)
   12c70:	acc20000 	sw	v0,0(a2)
   12c74:	96020006 	lhu	v0,6(s0)
   12c78:	3042ffff 	andi	v0,v0,0xffff
   12c7c:	24420002 	addiu	v0,v0,2
   12c80:	00021043 	sra	v0,v0,0x1
   12c84:	00021040 	sll	v0,v0,0x1
   12c88:	03628821 	addu	s1,k1,v0
   12c8c:	96220000 	lhu	v0,0(s1)
   12c90:	1120000d 	beqz	t1,0x12cc8
   12c94:	3044ffff 	andi	a0,v0,0xffff
   12c98:	00a71021 	addu	v0,a1,a3
   12c9c:	8f830038 	lw	v1,56(gp)
   12ca0:	8f45101c 	lw	a1,4124(k0)
   12ca4:	00021082 	srl	v0,v0,0x2
   12ca8:	00021080 	sll	v0,v0,0x2
   12cac:	00431021 	addu	v0,v0,v1
   12cb0:	ac450000 	sw	a1,0(v0)
   12cb4:	30a6ffff 	andi	a2,a1,0xffff
   12cb8:	0e0002d1 	jal	0x8000b44
   12cbc:	00052c02 	srl	a1,a1,0x10
   12cc0:	00402021 	move	a0,v0
   12cc4:	a6220000 	sh	v0,0(s1)
   12cc8:	92030004 	lbu	v1,4(s0)
   12ccc:	2402ff80 	li	v0,-128
   12cd0:	00431024 	and	v0,v0,v1
   12cd4:	304200ff 	andi	v0,v0,0xff
   12cd8:	1040001f 	beqz	v0,0x12d58
   12cdc:	00000000 	nop
   12ce0:	92020005 	lbu	v0,5(s0)
   12ce4:	30420002 	andi	v0,v0,0x2
   12ce8:	1040001b 	beqz	v0,0x12d58
   12cec:	00000000 	nop
   12cf0:	9742100c 	lhu	v0,4108(k0)
   12cf4:	2442fffe 	addiu	v0,v0,-2
   12cf8:	a7421016 	sh	v0,4118(k0)
   12cfc:	00000000 	nop
   12d00:	3c020400 	lui	v0,0x400
   12d04:	34420030 	ori	v0,v0,0x30
   12d08:	af421000 	sw	v0,4096(k0)
	...
   12d1c:	8f421000 	lw	v0,4096(k0)
   12d20:	0441fffe 	bgez	v0,0x12d1c
   12d24:	00000000 	nop
   12d28:	9742100c 	lhu	v0,4108(k0)
   12d2c:	8f45101c 	lw	a1,4124(k0)
   12d30:	3042ffff 	andi	v0,v0,0xffff
   12d34:	24420030 	addiu	v0,v0,48
   12d38:	00021082 	srl	v0,v0,0x2
   12d3c:	00021080 	sll	v0,v0,0x2
   12d40:	005b1021 	addu	v0,v0,k1
   12d44:	ac450000 	sw	a1,0(v0)
   12d48:	30a6ffff 	andi	a2,a1,0xffff
   12d4c:	0e0002d1 	jal	0x8000b44
   12d50:	00052c02 	srl	a1,a1,0x10
   12d54:	a6220000 	sh	v0,0(s1)
   12d58:	96040002 	lhu	a0,2(s0)
   12d5c:	24840008 	addiu	a0,a0,8
   12d60:	0e0001e7 	jal	0x800079c
   12d64:	3084ffff 	andi	a0,a0,0xffff
   12d68:	97440104 	lhu	a0,260(k0)
   12d6c:	0e0001f5 	jal	0x80007d4
   12d70:	3084ffff 	andi	a0,a0,0xffff
   12d74:	8fbf0018 	lw	ra,24(sp)
   12d78:	8fb10014 	lw	s1,20(sp)
   12d7c:	8fb00010 	lw	s0,16(sp)
   12d80:	3c021000 	lui	v0,0x1000
   12d84:	27bd0020 	addiu	sp,sp,32
   12d88:	03e00008 	jr	ra
   12d8c:	af420178 	sw	v0,376(k0)
   12d90:	3084ffff 	andi	a0,a0,0xffff
   12d94:	30820007 	andi	v0,a0,0x7
   12d98:	8f850024 	lw	a1,36(gp)
   12d9c:	10400002 	beqz	v0,0x12da8
   12da0:	24830007 	addiu	v1,a0,7
   12da4:	3064fff8 	andi	a0,v1,0xfff8
   12da8:	00a41021 	addu	v0,a1,a0
   12dac:	30421fff 	andi	v0,v0,0x1fff
   12db0:	03421821 	addu	v1,k0,v0
   12db4:	247b4000 	addiu	k1,v1,16384
   12db8:	af850028 	sw	a1,40(gp)
   12dbc:	af820024 	sw	v0,36(gp)
   12dc0:	03e00008 	jr	ra
   12dc4:	af420084 	sw	v0,132(k0)
   12dc8:	3084ffff 	andi	a0,a0,0xffff
   12dcc:	3082000f 	andi	v0,a0,0xf
   12dd0:	8f85002c 	lw	a1,44(gp)
   12dd4:	8f860034 	lw	a2,52(gp)
   12dd8:	10400002 	beqz	v0,0x12de4
   12ddc:	2483000f 	addiu	v1,a0,15
   12de0:	3064fff0 	andi	a0,v1,0xfff0
   12de4:	00a41021 	addu	v0,a1,a0
   12de8:	0046182b 	sltu	v1,v0,a2
   12dec:	af850030 	sw	a1,48(gp)
   12df0:	00462023 	subu	a0,v0,a2
   12df4:	14600002 	bnez	v1,0x12e00
   12df8:	af82002c 	sw	v0,44(gp)
   12dfc:	af84002c 	sw	a0,44(gp)
   12e00:	8f82002c 	lw	v0,44(gp)
   12e04:	34048000 	li	a0,0x8000
   12e08:	03421821 	addu	v1,k0,v0
   12e0c:	00641821 	addu	v1,v1,a0
   12e10:	af830038 	sw	v1,56(gp)
   12e14:	03e00008 	jr	ra
   12e18:	af420080 	sw	v0,128(k0)
   12e1c:	8f820014 	lw	v0,20(gp)
   12e20:	10400008 	beqz	v0,0x12e44
   12e24:	8f820004 	lw	v0,4(gp)
   12e28:	8f82ffcc 	lw	v0,-52(gp)
   12e2c:	14400005 	bnez	v0,0x12e44
   12e30:	8f820004 	lw	v0,4(gp)
   12e34:	3c02ffbf 	lui	v0,0xffbf
   12e38:	3442ffff 	ori	v0,v0,0xffff
   12e3c:	00822024 	and	a0,a0,v0
   12e40:	8f820004 	lw	v0,4(gp)
   12e44:	30430006 	andi	v1,v0,0x6
   12e48:	24020002 	li	v0,2
   12e4c:	1062000f 	beq	v1,v0,0x12e8c
   12e50:	3c020101 	lui	v0,0x101
   12e54:	2c620003 	sltiu	v0,v1,3
   12e58:	50400005 	beqzl	v0,0x12e70
   12e5c:	24020004 	li	v0,4
   12e60:	1060000f 	beqz	v1,0x12ea0
   12e64:	3c020001 	lui	v0,0x1
   12e68:	0a00022e 	j	0x80008b8
   12e6c:	00000000 	nop
   12e70:	10620005 	beq	v1,v0,0x12e88
   12e74:	24020006 	li	v0,6
   12e78:	1462000c 	bne	v1,v0,0x12eac
   12e7c:	3c020111 	lui	v0,0x111
   12e80:	0a000227 	j	0x800089c
   12e84:	00821025 	or	v0,a0,v0
   12e88:	3c020011 	lui	v0,0x11
   12e8c:	00821025 	or	v0,a0,v0
   12e90:	af421000 	sw	v0,4096(k0)
   12e94:	24020001 	li	v0,1
   12e98:	0a00022e 	j	0x80008b8
   12e9c:	af82000c 	sw	v0,12(gp)
   12ea0:	00821025 	or	v0,a0,v0
   12ea4:	af421000 	sw	v0,4096(k0)
   12ea8:	af80000c 	sw	zero,12(gp)
	...
   12eb8:	03e00008 	jr	ra
   12ebc:	00000000 	nop
   12ec0:	8f82000c 	lw	v0,12(gp)
   12ec4:	10400004 	beqz	v0,0x12ed8
   12ec8:	00000000 	nop
   12ecc:	8f421000 	lw	v0,4096(k0)
   12ed0:	0441fffe 	bgez	v0,0x12ecc
   12ed4:	00000000 	nop
   12ed8:	03e00008 	jr	ra
   12edc:	00000000 	nop
   12ee0:	8f820010 	lw	v0,16(gp)
   12ee4:	2443f800 	addiu	v1,v0,-2048
   12ee8:	000229c2 	srl	a1,v0,0x7
   12eec:	24a2fff0 	addiu	v0,a1,-16
   12ef0:	2c630301 	sltiu	v1,v1,769
   12ef4:	10600003 	beqz	v1,0x12f04
   12ef8:	00021042 	srl	v0,v0,0x1
   12efc:	0a000255 	j	0x8000954
   12f00:	ac820000 	sw	v0,0(a0)
   12f04:	8f830018 	lw	v1,24(gp)
   12f08:	00a3102b 	sltu	v0,a1,v1
   12f0c:	1440000b 	bnez	v0,0x12f3c
   12f10:	00003821 	move	a3,zero
   12f14:	00a31023 	subu	v0,a1,v1
   12f18:	24460001 	addiu	a2,v0,1
   12f1c:	8f82001c 	lw	v0,28(gp)
   12f20:	00621021 	addu	v0,v1,v0
   12f24:	2442ffff 	addiu	v0,v0,-1
   12f28:	0045102b 	sltu	v0,v0,a1
   12f2c:	54400004 	bnezl	v0,0x12f40
   12f30:	2402ffff 	li	v0,-1
   12f34:	0a000255 	j	0x8000954
   12f38:	ac860000 	sw	a2,0(a0)
   12f3c:	2402ffff 	li	v0,-1
   12f40:	0a00025a 	j	0x8000968
   12f44:	ac820000 	sw	v0,0(a0)
   12f48:	8c820000 	lw	v0,0(a0)
   12f4c:	3c030800 	lui	v1,0x800
   12f50:	24631c5c 	addiu	v1,v1,7260
   12f54:	00021140 	sll	v0,v0,0x5
   12f58:	00433821 	addu	a3,v0,v1
   12f5c:	03e00008 	jr	ra
   12f60:	00e01021 	move	v0,a3
   12f64:	3c090800 	lui	t1,0x800
   12f68:	8d291d80 	lw	t1,7552(t1)
   12f6c:	00045140 	sll	t2,a0,0x5
   12f70:	3c190800 	lui	t9,0x800
   12f74:	27391c5c 	addiu	t9,t9,7260
   12f78:	00c07821 	move	t7,a2
   12f7c:	00806021 	move	t4,a0
   12f80:	240effff 	li	t6,-1
   12f84:	00003821 	move	a3,zero
   12f88:	01594021 	addu	t0,t2,t9
   12f8c:	11200036 	beqz	t1,0x13068
   12f90:	00003021 	move	a2,zero
   12f94:	3c180800 	lui	t8,0x800
   12f98:	27181d98 	addiu	t8,t8,7576
   12f9c:	3c0d0800 	lui	t5,0x800
   12fa0:	25ad1d9c 	addiu	t5,t5,7580
   12fa4:	000f582b 	sltu	t3,zero,t7
   12fa8:	00061180 	sll	v0,a2,0x6
   12fac:	00461021 	addu	v0,v0,a2
   12fb0:	000218c0 	sll	v1,v0,0x3
   12fb4:	00781021 	addu	v0,v1,t8
   12fb8:	8c420000 	lw	v0,0(v0)
   12fbc:	15820020 	bne	t4,v0,0x13040
   12fc0:	006d2021 	addu	a0,v1,t5
   12fc4:	8ca20000 	lw	v0,0(a1)
   12fc8:	54400009 	bnezl	v0,0x12ff0
   12fcc:	8d020018 	lw	v0,24(t0)
   12fd0:	3c020800 	lui	v0,0x800
   12fd4:	8c421d84 	lw	v0,7556(v0)
   12fd8:	24420001 	addiu	v0,v0,1
   12fdc:	ac820000 	sw	v0,0(a0)
   12fe0:	3c010800 	lui	at,0x800
   12fe4:	ac221d84 	sw	v0,7556(at)
   12fe8:	0a0002cf 	j	0x8000b3c
   12fec:	00002021 	move	a0,zero
   12ff0:	8f470020 	lw	a3,32(k0)
   12ff4:	00003021 	move	a2,zero
   12ff8:	000211c0 	sll	v0,v0,0x7
   12ffc:	1160004a 	beqz	t3,0x13128
   13000:	af420020 	sw	v0,32(k0)
   13004:	8d08001c 	lw	t0,28(t0)
   13008:	3c090008 	lui	t1,0x8
   1300c:	8ca30000 	lw	v1,0(a1)
   13010:	00661821 	addu	v1,v1,a2
   13014:	00031880 	sll	v1,v1,0x2
   13018:	007a1021 	addu	v0,v1,k0
   1301c:	00491021 	addu	v0,v0,t1
   13020:	8c440000 	lw	a0,0(v0)
   13024:	24c60001 	addiu	a2,a2,1
   13028:	00681821 	addu	v1,v1,t0
   1302c:	00cf102b 	sltu	v0,a2,t7
   13030:	1440fff6 	bnez	v0,0x1300c
   13034:	ac640000 	sw	a0,0(v1)
   13038:	0a0002cd 	j	0x8000b34
   1303c:	00000000 	nop
   13040:	8c840000 	lw	a0,0(a0)
   13044:	008e102b 	sltu	v0,a0,t6
   13048:	50400004 	beqzl	v0,0x1305c
   1304c:	24c60001 	addiu	a2,a2,1
   13050:	00807021 	move	t6,a0
   13054:	00c03821 	move	a3,a2
   13058:	24c60001 	addiu	a2,a2,1
   1305c:	00c9102b 	sltu	v0,a2,t1
   13060:	1440ffd2 	bnez	v0,0x12fac
   13064:	00061180 	sll	v0,a2,0x6
   13068:	24020001 	li	v0,1
   1306c:	aca20000 	sw	v0,0(a1)
   13070:	3c020800 	lui	v0,0x800
   13074:	8c421d7c 	lw	v0,7548(v0)
   13078:	3c030800 	lui	v1,0x800
   1307c:	8c631d80 	lw	v1,7552(v1)
   13080:	0043102b 	sltu	v0,v0,v1
   13084:	1440002a 	bnez	v0,0x13130
   13088:	2404fffe 	li	a0,-2
   1308c:	01591021 	addu	v0,t2,t9
   13090:	8c420018 	lw	v0,24(v0)
   13094:	10400026 	beqz	v0,0x13130
   13098:	2404ffff 	li	a0,-1
   1309c:	00072180 	sll	a0,a3,0x6
   130a0:	3c050800 	lui	a1,0x800
   130a4:	8ca51d84 	lw	a1,7556(a1)
   130a8:	00872021 	addu	a0,a0,a3
   130ac:	8d060018 	lw	a2,24(t0)
   130b0:	000420c0 	sll	a0,a0,0x3
   130b4:	3c020800 	lui	v0,0x800
   130b8:	24421d98 	addiu	v0,v0,7576
   130bc:	00821021 	addu	v0,a0,v0
   130c0:	3c030800 	lui	v1,0x800
   130c4:	24631d9c 	addiu	v1,v1,7580
   130c8:	ac4c0000 	sw	t4,0(v0)
   130cc:	24a50001 	addiu	a1,a1,1
   130d0:	00831821 	addu	v1,a0,v1
   130d4:	3c020800 	lui	v0,0x800
   130d8:	24421da0 	addiu	v0,v0,7584
   130dc:	ac650000 	sw	a1,0(v1)
   130e0:	000631c0 	sll	a2,a2,0x7
   130e4:	3c010800 	lui	at,0x800
   130e8:	ac251d84 	sw	a1,7556(at)
   130ec:	00822021 	addu	a0,a0,v0
   130f0:	8f470020 	lw	a3,32(k0)
   130f4:	ad04001c 	sw	a0,28(t0)
   130f8:	af460020 	sw	a2,32(k0)
   130fc:	11e0000a 	beqz	t7,0x13128
   13100:	00003021 	move	a2,zero
   13104:	3c020008 	lui	v0,0x8
   13108:	03422821 	addu	a1,k0,v0
   1310c:	8ca20000 	lw	v0,0(a1)
   13110:	24c60001 	addiu	a2,a2,1
   13114:	00cf182b 	sltu	v1,a2,t7
   13118:	ac820000 	sw	v0,0(a0)
   1311c:	24a50004 	addiu	a1,a1,4
   13120:	1460fffa 	bnez	v1,0x1310c
   13124:	24840004 	addiu	a0,a0,4
   13128:	af470020 	sw	a3,32(k0)
   1312c:	00002021 	move	a0,zero
   13130:	03e00008 	jr	ra
   13134:	00801021 	move	v0,a0
   13138:	3084ffff 	andi	a0,a0,0xffff
   1313c:	30c6ffff 	andi	a2,a2,0xffff
   13140:	00052c00 	sll	a1,a1,0x10
   13144:	00a62825 	or	a1,a1,a2
   13148:	3882ffff 	xori	v0,a0,0xffff
   1314c:	00451021 	addu	v0,v0,a1
   13150:	0045282b 	sltu	a1,v0,a1
   13154:	00451021 	addu	v0,v0,a1
   13158:	00021c02 	srl	v1,v0,0x10
   1315c:	3042ffff 	andi	v0,v0,0xffff
   13160:	00431021 	addu	v0,v0,v1
   13164:	00021c02 	srl	v1,v0,0x10
   13168:	3042ffff 	andi	v0,v0,0xffff
   1316c:	00431021 	addu	v0,v0,v1
   13170:	3842ffff 	xori	v0,v0,0xffff
   13174:	03e00008 	jr	ra
   13178:	3042ffff 	andi	v0,v0,0xffff
   1317c:	27bdffc8 	addiu	sp,sp,-56
   13180:	afbf0030 	sw	ra,48(sp)
   13184:	afb3002c 	sw	s3,44(sp)
   13188:	afb20028 	sw	s2,40(sp)
   1318c:	afb10024 	sw	s1,36(sp)
   13190:	afb00020 	sw	s0,32(sp)
   13194:	3c046008 	lui	a0,0x6008
   13198:	8c825000 	lw	v0,20480(a0)
   1319c:	2403ff7f 	li	v1,-129
   131a0:	3c066000 	lui	a2,0x6000
   131a4:	00431024 	and	v0,v0,v1
   131a8:	3442380c 	ori	v0,v0,0x380c
   131ac:	ac825000 	sw	v0,20480(a0)
   131b0:	8cc24c1c 	lw	v0,19484(a2)
   131b4:	3c1a8000 	lui	k0,0x8000
   131b8:	00021602 	srl	v0,v0,0x18
   131bc:	3042000f 	andi	v0,v0,0xf
   131c0:	10400007 	beqz	v0,0x131e0
   131c4:	af82001c 	sw	v0,28(gp)
   131c8:	8cc34c1c 	lw	v1,19484(a2)
   131cc:	3c02001f 	lui	v0,0x1f
   131d0:	3442fc00 	ori	v0,v0,0xfc00
   131d4:	00621824 	and	v1,v1,v0
   131d8:	000319c2 	srl	v1,v1,0x7
   131dc:	af830018 	sw	v1,24(gp)
   131e0:	8f420008 	lw	v0,8(k0)
   131e4:	275b4000 	addiu	k1,k0,16384
   131e8:	34420001 	ori	v0,v0,0x1
   131ec:	af420008 	sw	v0,8(k0)
   131f0:	af800024 	sw	zero,36(gp)
   131f4:	3c02601c 	lui	v0,0x601c
   131f8:	af400080 	sw	zero,128(k0)
   131fc:	af400084 	sw	zero,132(k0)
   13200:	8c450008 	lw	a1,8(v0)
   13204:	8cc30808 	lw	v1,2056(a2)
   13208:	34028000 	li	v0,0x8000
   1320c:	03422021 	addu	a0,k0,v0
   13210:	2402fff0 	li	v0,-16
   13214:	00621824 	and	v1,v1,v0
   13218:	3c020080 	lui	v0,0x80
   1321c:	3c010800 	lui	at,0x800
   13220:	ac220420 	sw	v0,1056(at)
   13224:	3c025709 	lui	v0,0x5709
   13228:	af840038 	sw	a0,56(gp)
   1322c:	14620004 	bne	v1,v0,0x13240
   13230:	af850034 	sw	a1,52(gp)
   13234:	24020001 	li	v0,1
   13238:	0a000314 	j	0x8000c50
   1323c:	af820014 	sw	v0,20(gp)
   13240:	af800014 	sw	zero,20(gp)
   13244:	2403003d 	li	v1,61
   13248:	24020004 	li	v0,4
   1324c:	3c010800 	lui	at,0x800
   13250:	ac221d94 	sw	v0,7572(at)
   13254:	3c010800 	lui	at,0x800
   13258:	ac231d90 	sw	v1,7568(at)
   1325c:	3c010800 	lui	at,0x800
   13260:	ac231d8c 	sw	v1,7564(at)
   13264:	3c010800 	lui	at,0x800
   13268:	ac231d88 	sw	v1,7560(at)
   1326c:	3c130800 	lui	s3,0x800
   13270:	26731c5c 	addiu	s3,s3,7260
   13274:	24040004 	li	a0,4
   13278:	3c020800 	lui	v0,0x800
   1327c:	24421c74 	addiu	v0,v0,7284
   13280:	24030008 	li	v1,8
   13284:	2463ffff 	addiu	v1,v1,-1
   13288:	ac400004 	sw	zero,4(v0)
   1328c:	ac400000 	sw	zero,0(v0)
   13290:	0461fffc 	bgez	v1,0x13284
   13294:	24420020 	addiu	v0,v0,32
   13298:	000410c0 	sll	v0,a0,0x3
   1329c:	00441021 	addu	v0,v0,a0
   132a0:	2442003d 	addiu	v0,v0,61
   132a4:	3c010800 	lui	at,0x800
   132a8:	ac221d90 	sw	v0,7568(at)
   132ac:	24020001 	li	v0,1
   132b0:	3c010800 	lui	at,0x800
   132b4:	ac221d7c 	sw	v0,7548(at)
   132b8:	2402ffff 	li	v0,-1
   132bc:	3c010800 	lui	at,0x800
   132c0:	ac221d98 	sw	v0,7576(at)
   132c4:	3c010800 	lui	at,0x800
   132c8:	ac201d84 	sw	zero,7556(at)
   132cc:	8f420000 	lw	v0,0(k0)
   132d0:	38420001 	xori	v0,v0,0x1
   132d4:	30420001 	andi	v0,v0,0x1
   132d8:	1440fffc 	bnez	v0,0x132cc
   132dc:	8f820014 	lw	v0,20(gp)
   132e0:	10400016 	beqz	v0,0x1333c
   132e4:	00000000 	nop
   132e8:	97420104 	lhu	v0,260(k0)
   132ec:	10400005 	beqz	v0,0x13304
   132f0:	8f830000 	lw	v1,0(gp)
   132f4:	14600007 	bnez	v1,0x13314
   132f8:	2462ffff 	addiu	v0,v1,-1
   132fc:	0a00034b 	j	0x8000d2c
   13300:	2c62000a 	sltiu	v0,v1,10
   13304:	2c620010 	sltiu	v0,v1,16
   13308:	50400004 	beqzl	v0,0x1331c
   1330c:	8f830000 	lw	v1,0(gp)
   13310:	24620001 	addiu	v0,v1,1
   13314:	af820000 	sw	v0,0(gp)
   13318:	8f830000 	lw	v1,0(gp)
   1331c:	2c62000a 	sltiu	v0,v1,10
   13320:	14400003 	bnez	v0,0x13330
   13324:	2c620007 	sltiu	v0,v1,7
   13328:	0a000352 	j	0x8000d48
   1332c:	af80ffcc 	sw	zero,-52(gp)
   13330:	10400002 	beqz	v0,0x1333c
   13334:	24020001 	li	v0,1
   13338:	af82ffcc 	sw	v0,-52(gp)
   1333c:	8f430108 	lw	v1,264(k0)
   13340:	8f440100 	lw	a0,256(k0)
   13344:	30622000 	andi	v0,v1,0x2000
   13348:	af830004 	sw	v1,4(gp)
   1334c:	10400008 	beqz	v0,0x13370
   13350:	af840010 	sw	a0,16(gp)
   13354:	3c020800 	lui	v0,0x800
   13358:	8c42042c 	lw	v0,1068(v0)
   1335c:	24420001 	addiu	v0,v0,1
   13360:	3c010800 	lui	at,0x800
   13364:	ac22042c 	sw	v0,1068(at)
   13368:	0a0006d7 	j	0x8001b5c
   1336c:	3c024000 	lui	v0,0x4000
   13370:	30650200 	andi	a1,v1,0x200
   13374:	14a00003 	bnez	a1,0x13384
   13378:	24020f00 	li	v0,3840
   1337c:	14820309 	bne	a0,v0,0x13fa4
   13380:	24020d00 	li	v0,3328
   13384:	97420104 	lhu	v0,260(k0)
   13388:	10400371 	beqz	v0,0x14150
   1338c:	3c024000 	lui	v0,0x4000
   13390:	30624000 	andi	v0,v1,0x4000
   13394:	144000ad 	bnez	v0,0x1364c
   13398:	8f820038 	lw	v0,56(gp)
   1339c:	8c440008 	lw	a0,8(v0)
   133a0:	8f420178 	lw	v0,376(k0)
   133a4:	0440fffe 	bltz	v0,0x133a0
   133a8:	24020800 	li	v0,2048
   133ac:	af420178 	sw	v0,376(k0)
   133b0:	24020008 	li	v0,8
   133b4:	a7420140 	sh	v0,320(k0)
   133b8:	a7400142 	sh	zero,322(k0)
   133bc:	97420104 	lhu	v0,260(k0)
   133c0:	8f840004 	lw	a0,4(gp)
   133c4:	3051ffff 	andi	s1,v0,0xffff
   133c8:	30820001 	andi	v0,a0,0x1
   133cc:	10400007 	beqz	v0,0x133ec
   133d0:	02208021 	move	s0,s1
   133d4:	2623fffe 	addiu	v1,s1,-2
   133d8:	24020002 	li	v0,2
   133dc:	3070ffff 	andi	s0,v1,0xffff
   133e0:	a7420146 	sh	v0,326(k0)
   133e4:	0a00037f 	j	0x8000dfc
   133e8:	a7430148 	sh	v1,328(k0)
   133ec:	a7400146 	sh	zero,326(k0)
   133f0:	3c020800 	lui	v0,0x800
   133f4:	8c42043c 	lw	v0,1084(v0)
   133f8:	1440000d 	bnez	v0,0x13430
   133fc:	8f830010 	lw	v1,16(gp)
   13400:	30820020 	andi	v0,a0,0x20
   13404:	14400002 	bnez	v0,0x13410
   13408:	24030009 	li	v1,9
   1340c:	24030001 	li	v1,1
   13410:	00602021 	move	a0,v1
   13414:	8f830010 	lw	v1,16(gp)
   13418:	24020900 	li	v0,2304
   1341c:	50620001 	beql	v1,v0,0x13424
   13420:	34840004 	ori	a0,a0,0x4
   13424:	a744014a 	sh	a0,330(k0)
   13428:	0a00039a 	j	0x8000e68
   1342c:	00000000 	nop
   13430:	24020f00 	li	v0,3840
   13434:	14620005 	bne	v1,v0,0x1344c
   13438:	30820020 	andi	v0,a0,0x20
   1343c:	14400006 	bnez	v0,0x13458
   13440:	2403000d 	li	v1,13
   13444:	0a000399 	j	0x8000e64
   13448:	24030005 	li	v1,5
   1344c:	14400002 	bnez	v0,0x13458
   13450:	24030009 	li	v1,9
   13454:	24030001 	li	v1,1
   13458:	a743014a 	sh	v1,330(k0)
   1345c:	3c020800 	lui	v0,0x800
   13460:	8c420420 	lw	v0,1056(v0)
   13464:	3c040048 	lui	a0,0x48
   13468:	0e00020a 	jal	0x8000828
   1346c:	00442025 	or	a0,v0,a0
   13470:	0e000233 	jal	0x80008cc
   13474:	00000000 	nop
   13478:	8f82000c 	lw	v0,12(gp)
   1347c:	1040003e 	beqz	v0,0x13578
   13480:	00000000 	nop
   13484:	8f421000 	lw	v0,4096(k0)
   13488:	3c030020 	lui	v1,0x20
   1348c:	00431024 	and	v0,v0,v1
   13490:	10400039 	beqz	v0,0x13578
   13494:	8f820004 	lw	v0,4(gp)
   13498:	30420002 	andi	v0,v0,0x2
   1349c:	10400036 	beqz	v0,0x13578
   134a0:	00000000 	nop
   134a4:	97421014 	lhu	v0,4116(k0)
   134a8:	14400033 	bnez	v0,0x13578
   134ac:	00000000 	nop
   134b0:	97421008 	lhu	v0,4104(k0)
   134b4:	8f880038 	lw	t0,56(gp)
   134b8:	3042ffff 	andi	v0,v0,0xffff
   134bc:	24420006 	addiu	v0,v0,6
   134c0:	00021882 	srl	v1,v0,0x2
   134c4:	00033880 	sll	a3,v1,0x2
   134c8:	00e83021 	addu	a2,a3,t0
   134cc:	30430001 	andi	v1,v0,0x1
   134d0:	8cc40000 	lw	a0,0(a2)
   134d4:	10600004 	beqz	v1,0x134e8
   134d8:	30420003 	andi	v0,v0,0x3
   134dc:	0000000d 	break
   134e0:	0a0003db 	j	0x8000f6c
   134e4:	00e81021 	addu	v0,a3,t0
   134e8:	54400010 	bnezl	v0,0x1352c
   134ec:	3084ffff 	andi	a0,a0,0xffff
   134f0:	3c05ffff 	lui	a1,0xffff
   134f4:	00852024 	and	a0,a0,a1
   134f8:	00851826 	xor	v1,a0,a1
   134fc:	0003182b 	sltu	v1,zero,v1
   13500:	0004102b 	sltu	v0,zero,a0
   13504:	00431024 	and	v0,v0,v1
   13508:	10400005 	beqz	v0,0x13520
   1350c:	00000000 	nop
   13510:	00000000 	nop
   13514:	0000000d 	break
   13518:	00000000 	nop
   1351c:	2400021c 	li	zero,540
   13520:	8cc20000 	lw	v0,0(a2)
   13524:	0a0003da 	j	0x8000f68
   13528:	00452025 	or	a0,v0,a1
   1352c:	3883ffff 	xori	v1,a0,0xffff
   13530:	0003182b 	sltu	v1,zero,v1
   13534:	0004102b 	sltu	v0,zero,a0
   13538:	00431024 	and	v0,v0,v1
   1353c:	10400005 	beqz	v0,0x13554
   13540:	00000000 	nop
   13544:	00000000 	nop
   13548:	0000000d 	break
   1354c:	00000000 	nop
   13550:	24000225 	li	zero,549
   13554:	8cc20000 	lw	v0,0(a2)
   13558:	3444ffff 	ori	a0,v0,0xffff
   1355c:	00e81021 	addu	v0,a3,t0
   13560:	ac440000 	sw	a0,0(v0)
   13564:	3c020800 	lui	v0,0x800
   13568:	8c420430 	lw	v0,1072(v0)
   1356c:	24420001 	addiu	v0,v0,1
   13570:	3c010800 	lui	at,0x800
   13574:	ac220430 	sw	v0,1072(at)
   13578:	8f620000 	lw	v0,0(k1)
   1357c:	8f840038 	lw	a0,56(gp)
   13580:	af820008 	sw	v0,8(gp)
   13584:	8c830000 	lw	v1,0(a0)
   13588:	3402ffff 	li	v0,0xffff
   1358c:	1462000f 	bne	v1,v0,0x135cc
   13590:	00001021 	move	v0,zero
   13594:	3c050800 	lui	a1,0x800
   13598:	8ca50454 	lw	a1,1108(a1)
   1359c:	3c040800 	lui	a0,0x800
   135a0:	8c840450 	lw	a0,1104(a0)
   135a4:	00b02821 	addu	a1,a1,s0
   135a8:	00b0302b 	sltu	a2,a1,s0
   135ac:	00822021 	addu	a0,a0,v0
   135b0:	00862021 	addu	a0,a0,a2
   135b4:	3c010800 	lui	at,0x800
   135b8:	ac250454 	sw	a1,1108(at)
   135bc:	3c010800 	lui	at,0x800
   135c0:	ac240450 	sw	a0,1104(at)
   135c4:	0a0006cd 	j	0x8001b34
   135c8:	24040008 	li	a0,8
   135cc:	8c820000 	lw	v0,0(a0)
   135d0:	30420100 	andi	v0,v0,0x100
   135d4:	1040000f 	beqz	v0,0x13614
   135d8:	00001021 	move	v0,zero
   135dc:	3c050800 	lui	a1,0x800
   135e0:	8ca5044c 	lw	a1,1100(a1)
   135e4:	3c040800 	lui	a0,0x800
   135e8:	8c840448 	lw	a0,1096(a0)
   135ec:	00b02821 	addu	a1,a1,s0
   135f0:	00b0302b 	sltu	a2,a1,s0
   135f4:	00822021 	addu	a0,a0,v0
   135f8:	00862021 	addu	a0,a0,a2
   135fc:	3c010800 	lui	at,0x800
   13600:	ac25044c 	sw	a1,1100(at)
   13604:	3c010800 	lui	at,0x800
   13608:	ac240448 	sw	a0,1096(at)
   1360c:	0a0006cd 	j	0x8001b34
   13610:	24040008 	li	a0,8
   13614:	3c050800 	lui	a1,0x800
   13618:	8ca50444 	lw	a1,1092(a1)
   1361c:	3c040800 	lui	a0,0x800
   13620:	8c840440 	lw	a0,1088(a0)
   13624:	00b02821 	addu	a1,a1,s0
   13628:	00b0302b 	sltu	a2,a1,s0
   1362c:	00822021 	addu	a0,a0,v0
   13630:	00862021 	addu	a0,a0,a2
   13634:	3c010800 	lui	at,0x800
   13638:	ac250444 	sw	a1,1092(at)
   1363c:	3c010800 	lui	at,0x800
   13640:	ac240440 	sw	a0,1088(at)
   13644:	0a0006cd 	j	0x8001b34
   13648:	24040008 	li	a0,8
   1364c:	8f620008 	lw	v0,8(k1)
   13650:	8f620000 	lw	v0,0(k1)
   13654:	00021602 	srl	v0,v0,0x18
   13658:	304300f0 	andi	v1,v0,0xf0
   1365c:	24020030 	li	v0,48
   13660:	10620005 	beq	v1,v0,0x13678
   13664:	24020040 	li	v0,64
   13668:	1062016b 	beq	v1,v0,0x13c18
   1366c:	8f820020 	lw	v0,32(gp)
   13670:	0a0006d5 	j	0x8001b54
   13674:	24420001 	addiu	v0,v0,1
   13678:	14a00005 	bnez	a1,0x13690
   1367c:	00000000 	nop
   13680:	00000000 	nop
   13684:	0000000d 	break
   13688:	00000000 	nop
   1368c:	24000250 	li	zero,592
   13690:	8f420178 	lw	v0,376(k0)
   13694:	0440fffe 	bltz	v0,0x13690
   13698:	00000000 	nop
   1369c:	0e00023b 	jal	0x80008ec
   136a0:	27a40010 	addiu	a0,sp,16
   136a4:	14400005 	bnez	v0,0x136bc
   136a8:	00408021 	move	s0,v0
   136ac:	00000000 	nop
   136b0:	0000000d 	break
   136b4:	00000000 	nop
   136b8:	24000257 	li	zero,599
   136bc:	8e020000 	lw	v0,0(s0)
   136c0:	10400005 	beqz	v0,0x136d8
   136c4:	00000000 	nop
   136c8:	00000000 	nop
   136cc:	0000000d 	break
   136d0:	00000000 	nop
   136d4:	2400025a 	li	zero,602
   136d8:	8f62000c 	lw	v0,12(k1)
   136dc:	04430003 	bgezl	v0,0x136ec
   136e0:	24020001 	li	v0,1
   136e4:	0a00055d 	j	0x8001574
   136e8:	ae000000 	sw	zero,0(s0)
   136ec:	ae020000 	sw	v0,0(s0)
   136f0:	8f820038 	lw	v0,56(gp)
   136f4:	8c450008 	lw	a1,8(v0)
   136f8:	a2000007 	sb	zero,7(s0)
   136fc:	8f65000c 	lw	a1,12(k1)
   13700:	8f640004 	lw	a0,4(k1)
   13704:	30a3ffff 	andi	v1,a1,0xffff
   13708:	00042402 	srl	a0,a0,0x10
   1370c:	00852023 	subu	a0,a0,a1
   13710:	308200ff 	andi	v0,a0,0xff
   13714:	00431021 	addu	v0,v0,v1
   13718:	24420005 	addiu	v0,v0,5
   1371c:	00028883 	sra	s1,v0,0x2
   13720:	2e220081 	sltiu	v0,s1,129
   13724:	a605000a 	sh	a1,10(s0)
   13728:	14400005 	bnez	v0,0x13740
   1372c:	a2040004 	sb	a0,4(s0)
   13730:	00000000 	nop
   13734:	0000000d 	break
   13738:	00000000 	nop
   1373c:	24000272 	li	zero,626
   13740:	3c070800 	lui	a3,0x800
   13744:	8ce71d80 	lw	a3,7552(a3)
   13748:	8fa80010 	lw	t0,16(sp)
   1374c:	2409ffff 	li	t1,-1
   13750:	00005021 	move	t2,zero
   13754:	10e00013 	beqz	a3,0x137a4
   13758:	00003021 	move	a2,zero
   1375c:	3c0c0800 	lui	t4,0x800
   13760:	258c1d9c 	addiu	t4,t4,7580
   13764:	01802821 	move	a1,t4
   13768:	00001821 	move	v1,zero
   1376c:	8ca2fffc 	lw	v0,-4(a1)
   13770:	5102002f 	beql	t0,v0,0x13830
   13774:	006c1821 	addu	v1,v1,t4
   13778:	8ca40000 	lw	a0,0(a1)
   1377c:	24630208 	addiu	v1,v1,520
   13780:	0089102b 	sltu	v0,a0,t1
   13784:	10400003 	beqz	v0,0x13794
   13788:	24a50208 	addiu	a1,a1,520
   1378c:	00804821 	move	t1,a0
   13790:	00c05021 	move	t2,a2
   13794:	24c60001 	addiu	a2,a2,1
   13798:	00c7102b 	sltu	v0,a2,a3
   1379c:	5440fff4 	bnezl	v0,0x13770
   137a0:	8ca2fffc 	lw	v0,-4(a1)
   137a4:	3c050800 	lui	a1,0x800
   137a8:	8ca51d80 	lw	a1,7552(a1)
   137ac:	3c020800 	lui	v0,0x800
   137b0:	8c421d7c 	lw	v0,7548(v0)
   137b4:	3c090800 	lui	t1,0x800
   137b8:	25291c60 	addiu	t1,t1,7264
   137bc:	3c030800 	lui	v1,0x800
   137c0:	24631d98 	addiu	v1,v1,7576
   137c4:	00a2102b 	sltu	v0,a1,v0
   137c8:	3c0c0800 	lui	t4,0x800
   137cc:	258c1d9c 	addiu	t4,t4,7580
   137d0:	3c040800 	lui	a0,0x800
   137d4:	8c841d84 	lw	a0,7556(a0)
   137d8:	3c0b0800 	lui	t3,0x800
   137dc:	256b1da0 	addiu	t3,t3,7584
   137e0:	1040001a 	beqz	v0,0x1384c
   137e4:	00083140 	sll	a2,t0,0x5
   137e8:	00051180 	sll	v0,a1,0x6
   137ec:	00451021 	addu	v0,v0,a1
   137f0:	000210c0 	sll	v0,v0,0x3
   137f4:	00c93821 	addu	a3,a2,t1
   137f8:	24840001 	addiu	a0,a0,1
   137fc:	004b3021 	addu	a2,v0,t3
   13800:	00431821 	addu	v1,v0,v1
   13804:	24a50001 	addiu	a1,a1,1
   13808:	004c1021 	addu	v0,v0,t4
   1380c:	ac680000 	sw	t0,0(v1)
   13810:	ace60018 	sw	a2,24(a3)
   13814:	3c010800 	lui	at,0x800
   13818:	ac241d84 	sw	a0,7556(at)
   1381c:	ac440000 	sw	a0,0(v0)
   13820:	3c010800 	lui	at,0x800
   13824:	ac251d80 	sw	a1,7552(at)
   13828:	0a0004a8 	j	0x80012a0
   1382c:	8e04001c 	lw	a0,28(s0)
   13830:	3c020800 	lui	v0,0x800
   13834:	8c421d84 	lw	v0,7556(v0)
   13838:	24420001 	addiu	v0,v0,1
   1383c:	3c010800 	lui	at,0x800
   13840:	ac221d84 	sw	v0,7556(at)
   13844:	0a0004a7 	j	0x800129c
   13848:	ac620000 	sw	v0,0(v1)
   1384c:	000a1180 	sll	v0,t2,0x6
   13850:	004a1021 	addu	v0,v0,t2
   13854:	000210c0 	sll	v0,v0,0x3
   13858:	00432821 	addu	a1,v0,v1
   1385c:	8ca30000 	lw	v1,0(a1)
   13860:	004c3821 	addu	a3,v0,t4
   13864:	24840001 	addiu	a0,a0,1
   13868:	00031940 	sll	v1,v1,0x5
   1386c:	00c93021 	addu	a2,a2,t1
   13870:	00691821 	addu	v1,v1,t1
   13874:	004b1021 	addu	v0,v0,t3
   13878:	aca80000 	sw	t0,0(a1)
   1387c:	ac600018 	sw	zero,24(v1)
   13880:	3c010800 	lui	at,0x800
   13884:	ac241d84 	sw	a0,7556(at)
   13888:	acc20018 	sw	v0,24(a2)
   1388c:	ace40000 	sw	a0,0(a3)
   13890:	8e04001c 	lw	a0,28(s0)
   13894:	8f850038 	lw	a1,56(gp)
   13898:	0e0006e7 	jal	0x8001b9c
   1389c:	02203021 	move	a2,s1
   138a0:	8f620004 	lw	v0,4(k1)
   138a4:	8f430108 	lw	v1,264(k0)
   138a8:	a6020008 	sh	v0,8(s0)
   138ac:	3c021000 	lui	v0,0x1000
   138b0:	00621824 	and	v1,v1,v0
   138b4:	10600008 	beqz	v1,0x138d8
   138b8:	00000000 	nop
   138bc:	97420104 	lhu	v0,260(k0)
   138c0:	92030007 	lbu	v1,7(s0)
   138c4:	2442ffec 	addiu	v0,v0,-20
   138c8:	34630002 	ori	v1,v1,0x2
   138cc:	3045ffff 	andi	a1,v0,0xffff
   138d0:	0a0004bc 	j	0x80012f0
   138d4:	a2030007 	sb	v1,7(s0)
   138d8:	97420104 	lhu	v0,260(k0)
   138dc:	2442fff0 	addiu	v0,v0,-16
   138e0:	3045ffff 	andi	a1,v0,0xffff
   138e4:	96060008 	lhu	a2,8(s0)
   138e8:	2cc20013 	sltiu	v0,a2,19
   138ec:	54400005 	bnezl	v0,0x13904
   138f0:	92030007 	lbu	v1,7(s0)
   138f4:	92020007 	lbu	v0,7(s0)
   138f8:	34420001 	ori	v0,v0,0x1
   138fc:	a2020007 	sb	v0,7(s0)
   13900:	92030007 	lbu	v1,7(s0)
   13904:	24020001 	li	v0,1
   13908:	10620005 	beq	v1,v0,0x13920
   1390c:	24020003 	li	v0,3
   13910:	1062000b 	beq	v1,v0,0x13940
   13914:	30c7ffff 	andi	a3,a2,0xffff
   13918:	0a0004db 	j	0x800136c
   1391c:	24e20002 	addiu	v0,a3,2
   13920:	8f820038 	lw	v0,56(gp)
   13924:	3c04ffff 	lui	a0,0xffff
   13928:	8c43000c 	lw	v1,12(v0)
   1392c:	00641824 	and	v1,v1,a0
   13930:	00651825 	or	v1,v1,a1
   13934:	ac43000c 	sw	v1,12(v0)
   13938:	0a0004da 	j	0x8001368
   1393c:	30c7ffff 	andi	a3,a2,0xffff
   13940:	8f820038 	lw	v0,56(gp)
   13944:	3c04ffff 	lui	a0,0xffff
   13948:	8c430010 	lw	v1,16(v0)
   1394c:	00641824 	and	v1,v1,a0
   13950:	00651825 	or	v1,v1,a1
   13954:	ac430010 	sw	v1,16(v0)
   13958:	30c7ffff 	andi	a3,a2,0xffff
   1395c:	24e20002 	addiu	v0,a3,2
   13960:	00021083 	sra	v0,v0,0x2
   13964:	a2020005 	sb	v0,5(s0)
   13968:	8f830038 	lw	v1,56(gp)
   1396c:	304200ff 	andi	v0,v0,0xff
   13970:	00021080 	sll	v0,v0,0x2
   13974:	00433021 	addu	a2,v0,v1
   13978:	8cc50000 	lw	a1,0(a2)
   1397c:	8cc20000 	lw	v0,0(a2)
   13980:	24030004 	li	v1,4
   13984:	00021702 	srl	v0,v0,0x1c
   13988:	14430013 	bne	v0,v1,0x139d8
   1398c:	00000000 	nop
   13990:	97420104 	lhu	v0,260(k0)
   13994:	3c03ffff 	lui	v1,0xffff
   13998:	00a31824 	and	v1,a1,v1
   1399c:	3042ffff 	andi	v0,v0,0xffff
   139a0:	00471023 	subu	v0,v0,a3
   139a4:	2442fffe 	addiu	v0,v0,-2
   139a8:	00622825 	or	a1,v1,v0
   139ac:	acc50000 	sw	a1,0(a2)
   139b0:	92040005 	lbu	a0,5(s0)
   139b4:	8e03001c 	lw	v1,28(s0)
   139b8:	308200ff 	andi	v0,a0,0xff
   139bc:	00021080 	sll	v0,v0,0x2
   139c0:	00431021 	addu	v0,v0,v1
   139c4:	90420000 	lbu	v0,0(v0)
   139c8:	3042000f 	andi	v0,v0,0xf
   139cc:	00441021 	addu	v0,v0,a0
   139d0:	0a000510 	j	0x8001440
   139d4:	a2020006 	sb	v0,6(s0)
   139d8:	8cc40004 	lw	a0,4(a2)
   139dc:	97420104 	lhu	v0,260(k0)
   139e0:	9603000a 	lhu	v1,10(s0)
   139e4:	3085ffff 	andi	a1,a0,0xffff
   139e8:	3042ffff 	andi	v0,v0,0xffff
   139ec:	00471023 	subu	v0,v0,a3
   139f0:	2442ffd6 	addiu	v0,v0,-42
   139f4:	00021400 	sll	v0,v0,0x10
   139f8:	00a22825 	or	a1,a1,v0
   139fc:	acc50004 	sw	a1,4(a2)
   13a00:	92020007 	lbu	v0,7(s0)
   13a04:	92040005 	lbu	a0,5(s0)
   13a08:	24630028 	addiu	v1,v1,40
   13a0c:	00031883 	sra	v1,v1,0x2
   13a10:	00641821 	addu	v1,v1,a0
   13a14:	34420004 	ori	v0,v0,0x4
   13a18:	a2030006 	sb	v1,6(s0)
   13a1c:	a2020007 	sb	v0,7(s0)
   13a20:	8f820004 	lw	v0,4(gp)
   13a24:	2403fffb 	li	v1,-5
   13a28:	34420002 	ori	v0,v0,0x2
   13a2c:	00431024 	and	v0,v0,v1
   13a30:	af820004 	sw	v0,4(gp)
   13a34:	92030006 	lbu	v1,6(s0)
   13a38:	8e07001c 	lw	a3,28(s0)
   13a3c:	8f860038 	lw	a2,56(gp)
   13a40:	00031880 	sll	v1,v1,0x2
   13a44:	00671021 	addu	v0,v1,a3
   13a48:	8c44000c 	lw	a0,12(v0)
   13a4c:	3c02fff6 	lui	v0,0xfff6
   13a50:	3442ffff 	ori	v0,v0,0xffff
   13a54:	00822824 	and	a1,a0,v0
   13a58:	00661821 	addu	v1,v1,a2
   13a5c:	ae04000c 	sw	a0,12(s0)
   13a60:	ac65000c 	sw	a1,12(v1)
   13a64:	92030006 	lbu	v1,6(s0)
   13a68:	8e04000c 	lw	a0,12(s0)
   13a6c:	3c02ff7f 	lui	v0,0xff7f
   13a70:	3442ffff 	ori	v0,v0,0xffff
   13a74:	00031880 	sll	v1,v1,0x2
   13a78:	00a22824 	and	a1,a1,v0
   13a7c:	00822024 	and	a0,a0,v0
   13a80:	00671821 	addu	v1,v1,a3
   13a84:	ae04000c 	sw	a0,12(s0)
   13a88:	ac65000c 	sw	a1,12(v1)
   13a8c:	92020006 	lbu	v0,6(s0)
   13a90:	00021080 	sll	v0,v0,0x2
   13a94:	00471021 	addu	v0,v0,a3
   13a98:	94450012 	lhu	a1,18(v0)
   13a9c:	ac450010 	sw	a1,16(v0)
   13aa0:	92020006 	lbu	v0,6(s0)
   13aa4:	00021080 	sll	v0,v0,0x2
   13aa8:	00461021 	addu	v0,v0,a2
   13aac:	ac450010 	sw	a1,16(v0)
   13ab0:	8fa20010 	lw	v0,16(sp)
   13ab4:	92030005 	lbu	v1,5(s0)
   13ab8:	00021140 	sll	v0,v0,0x5
   13abc:	00031880 	sll	v1,v1,0x2
   13ac0:	00671821 	addu	v1,v1,a3
   13ac4:	00532021 	addu	a0,v0,s3
   13ac8:	8c620004 	lw	v0,4(v1)
   13acc:	8c830018 	lw	v1,24(a0)
   13ad0:	1460000e 	bnez	v1,0x13b0c
   13ad4:	ae020014 	sw	v0,20(s0)
   13ad8:	3c030800 	lui	v1,0x800
   13adc:	8c631d8c 	lw	v1,7564(v1)
   13ae0:	ac830018 	sw	v1,24(a0)
   13ae4:	3c020800 	lui	v0,0x800
   13ae8:	8c421d90 	lw	v0,7568(v0)
   13aec:	0062102b 	sltu	v0,v1,v0
   13af0:	10400019 	beqz	v0,0x13b58
   13af4:	00000000 	nop
   13af8:	3c020800 	lui	v0,0x800
   13afc:	8c421d94 	lw	v0,7572(v0)
   13b00:	00621021 	addu	v0,v1,v0
   13b04:	3c010800 	lui	at,0x800
   13b08:	ac221d8c 	sw	v0,7564(at)
   13b0c:	8e020018 	lw	v0,24(s0)
   13b10:	8f480020 	lw	t0,32(k0)
   13b14:	00003021 	move	a2,zero
   13b18:	000211c0 	sll	v0,v0,0x7
   13b1c:	1220000b 	beqz	s1,0x13b4c
   13b20:	af420020 	sw	v0,32(k0)
   13b24:	3c020008 	lui	v0,0x8
   13b28:	03422821 	addu	a1,k0,v0
   13b2c:	00e02021 	move	a0,a3
   13b30:	8c820000 	lw	v0,0(a0)
   13b34:	24c60001 	addiu	a2,a2,1
   13b38:	00d1182b 	sltu	v1,a2,s1
   13b3c:	aca20000 	sw	v0,0(a1)
   13b40:	24840004 	addiu	a0,a0,4
   13b44:	1460fffa 	bnez	v1,0x13b30
   13b48:	24a50004 	addiu	a1,a1,4
   13b4c:	af480020 	sw	t0,32(k0)
   13b50:	0a00055e 	j	0x8001578
   13b54:	24020010 	li	v0,16
   13b58:	00000000 	nop
   13b5c:	0000000d 	break
   13b60:	00000000 	nop
   13b64:	240002d4 	li	zero,724
   13b68:	24020010 	li	v0,16
   13b6c:	a7420140 	sh	v0,320(k0)
   13b70:	24020002 	li	v0,2
   13b74:	a7400142 	sh	zero,322(k0)
   13b78:	a7400144 	sh	zero,324(k0)
   13b7c:	a7420146 	sh	v0,326(k0)
   13b80:	97420104 	lhu	v0,260(k0)
   13b84:	3c040008 	lui	a0,0x8
   13b88:	2442fffe 	addiu	v0,v0,-2
   13b8c:	a7420148 	sh	v0,328(k0)
   13b90:	24020001 	li	v0,1
   13b94:	0e00020a 	jal	0x8000828
   13b98:	a742014a 	sh	v0,330(k0)
   13b9c:	9603000a 	lhu	v1,10(s0)
   13ba0:	92020004 	lbu	v0,4(s0)
   13ba4:	00431021 	addu	v0,v0,v1
   13ba8:	24420002 	addiu	v0,v0,2
   13bac:	30420007 	andi	v0,v0,0x7
   13bb0:	00021023 	negu	v0,v0
   13bb4:	30420007 	andi	v0,v0,0x7
   13bb8:	0e000233 	jal	0x80008cc
   13bbc:	ae020010 	sw	v0,16(s0)
   13bc0:	8f620000 	lw	v0,0(k1)
   13bc4:	3c030800 	lui	v1,0x800
   13bc8:	8c630444 	lw	v1,1092(v1)
   13bcc:	24040010 	li	a0,16
   13bd0:	af820008 	sw	v0,8(gp)
   13bd4:	97420104 	lhu	v0,260(k0)
   13bd8:	3042ffff 	andi	v0,v0,0xffff
   13bdc:	2442fffe 	addiu	v0,v0,-2
   13be0:	00403821 	move	a3,v0
   13be4:	000237c3 	sra	a2,v0,0x1f
   13be8:	3c020800 	lui	v0,0x800
   13bec:	8c420440 	lw	v0,1088(v0)
   13bf0:	00671821 	addu	v1,v1,a3
   13bf4:	0067282b 	sltu	a1,v1,a3
   13bf8:	00461021 	addu	v0,v0,a2
   13bfc:	00451021 	addu	v0,v0,a1
   13c00:	3c010800 	lui	at,0x800
   13c04:	ac230444 	sw	v1,1092(at)
   13c08:	3c010800 	lui	at,0x800
   13c0c:	ac220440 	sw	v0,1088(at)
   13c10:	0a000662 	j	0x8001988
   13c14:	00000000 	nop
   13c18:	14a00005 	bnez	a1,0x13c30
   13c1c:	00000000 	nop
   13c20:	00000000 	nop
   13c24:	0000000d 	break
   13c28:	00000000 	nop
   13c2c:	24000304 	li	zero,772
   13c30:	8f420178 	lw	v0,376(k0)
   13c34:	0440fffe 	bltz	v0,0x13c30
   13c38:	00000000 	nop
   13c3c:	0e00023b 	jal	0x80008ec
   13c40:	27a40014 	addiu	a0,sp,20
   13c44:	14400005 	bnez	v0,0x13c5c
   13c48:	00408021 	move	s0,v0
   13c4c:	00000000 	nop
   13c50:	0000000d 	break
   13c54:	00000000 	nop
   13c58:	2400030b 	li	zero,779
   13c5c:	92060004 	lbu	a2,4(s0)
   13c60:	8fa40014 	lw	a0,20(sp)
   13c64:	27a50018 	addiu	a1,sp,24
   13c68:	00063082 	srl	a2,a2,0x2
   13c6c:	0e00025c 	jal	0x8000970
   13c70:	afa00018 	sw	zero,24(sp)
   13c74:	50400006 	beqzl	v0,0x13c90
   13c78:	8e020000 	lw	v0,0(s0)
   13c7c:	00000000 	nop
   13c80:	0000000d 	break
   13c84:	00000000 	nop
   13c88:	24000311 	li	zero,785
   13c8c:	8e020000 	lw	v0,0(s0)
   13c90:	54400006 	bnezl	v0,0x13cac
   13c94:	92020007 	lbu	v0,7(s0)
   13c98:	00000000 	nop
   13c9c:	0000000d 	break
   13ca0:	00000000 	nop
   13ca4:	24000316 	li	zero,790
   13ca8:	92020007 	lbu	v0,7(s0)
   13cac:	30420004 	andi	v0,v0,0x4
   13cb0:	10400005 	beqz	v0,0x13cc8
   13cb4:	8f820004 	lw	v0,4(gp)
   13cb8:	2403fffb 	li	v1,-5
   13cbc:	34420002 	ori	v0,v0,0x2
   13cc0:	00431024 	and	v0,v0,v1
   13cc4:	af820004 	sw	v0,4(gp)
   13cc8:	8f620004 	lw	v0,4(k1)
   13ccc:	04430009 	bgezl	v0,0x13cf4
   13cd0:	92020007 	lbu	v0,7(s0)
   13cd4:	92020006 	lbu	v0,6(s0)
   13cd8:	8e03001c 	lw	v1,28(s0)
   13cdc:	8e04000c 	lw	a0,12(s0)
   13ce0:	00021080 	sll	v0,v0,0x2
   13ce4:	00431021 	addu	v0,v0,v1
   13ce8:	ac44000c 	sw	a0,12(v0)
   13cec:	ae000000 	sw	zero,0(s0)
   13cf0:	92020007 	lbu	v0,7(s0)
   13cf4:	30420004 	andi	v0,v0,0x4
   13cf8:	5440000b 	bnezl	v0,0x13d28
   13cfc:	92030004 	lbu	v1,4(s0)
   13d00:	92030005 	lbu	v1,5(s0)
   13d04:	8e040014 	lw	a0,20(s0)
   13d08:	8e05001c 	lw	a1,28(s0)
   13d0c:	00031880 	sll	v1,v1,0x2
   13d10:	3c020001 	lui	v0,0x1
   13d14:	00822021 	addu	a0,a0,v0
   13d18:	00651821 	addu	v1,v1,a1
   13d1c:	ae040014 	sw	a0,20(s0)
   13d20:	ac640004 	sw	a0,4(v1)
   13d24:	92030004 	lbu	v1,4(s0)
   13d28:	9602000a 	lhu	v0,10(s0)
   13d2c:	00621021 	addu	v0,v1,v0
   13d30:	24420005 	addiu	v0,v0,5
   13d34:	00029083 	sra	s2,v0,0x2
   13d38:	8fa20018 	lw	v0,24(sp)
   13d3c:	1040000d 	beqz	v0,0x13d74
   13d40:	27710008 	addiu	s1,k1,8
   13d44:	8fa40014 	lw	a0,20(sp)
   13d48:	00031082 	srl	v0,v1,0x2
   13d4c:	02423023 	subu	a2,s2,v0
   13d50:	27a50018 	addiu	a1,sp,24
   13d54:	0e00025c 	jal	0x8000970
   13d58:	afa20018 	sw	v0,24(sp)
   13d5c:	50400006 	beqzl	v0,0x13d78
   13d60:	8e05001c 	lw	a1,28(s0)
   13d64:	00000000 	nop
   13d68:	0000000d 	break
   13d6c:	00000000 	nop
   13d70:	2400033f 	li	zero,831
   13d74:	8e05001c 	lw	a1,28(s0)
   13d78:	02202021 	move	a0,s1
   13d7c:	0e0006e7 	jal	0x8001b9c
   13d80:	02403021 	move	a2,s2
   13d84:	92040006 	lbu	a0,6(s0)
   13d88:	8f650004 	lw	a1,4(k1)
   13d8c:	3c027fff 	lui	v0,0x7fff
   13d90:	00042080 	sll	a0,a0,0x2
   13d94:	00912021 	addu	a0,a0,s1
   13d98:	8c830004 	lw	v1,4(a0)
   13d9c:	3442ffff 	ori	v0,v0,0xffff
   13da0:	00a22824 	and	a1,a1,v0
   13da4:	00651821 	addu	v1,v1,a1
   13da8:	ac830004 	sw	v1,4(a0)
   13dac:	92020007 	lbu	v0,7(s0)
   13db0:	92030004 	lbu	v1,4(s0)
   13db4:	92050005 	lbu	a1,5(s0)
   13db8:	30420004 	andi	v0,v0,0x4
   13dbc:	10400014 	beqz	v0,0x13e10
   13dc0:	96070008 	lhu	a3,8(s0)
   13dc4:	30a500ff 	andi	a1,a1,0xff
   13dc8:	00052880 	sll	a1,a1,0x2
   13dcc:	00b12821 	addu	a1,a1,s1
   13dd0:	8ca40004 	lw	a0,4(a1)
   13dd4:	97420104 	lhu	v0,260(k0)
   13dd8:	9606000a 	lhu	a2,10(s0)
   13ddc:	306300ff 	andi	v1,v1,0xff
   13de0:	3042ffff 	andi	v0,v0,0xffff
   13de4:	00431021 	addu	v0,v0,v1
   13de8:	00461021 	addu	v0,v0,a2
   13dec:	30e3ffff 	andi	v1,a3,0xffff
   13df0:	00431023 	subu	v0,v0,v1
   13df4:	2442ffd8 	addiu	v0,v0,-40
   13df8:	3084ffff 	andi	a0,a0,0xffff
   13dfc:	00021400 	sll	v0,v0,0x10
   13e00:	00822025 	or	a0,a0,v0
   13e04:	aca40004 	sw	a0,4(a1)
   13e08:	0a000616 	j	0x8001858
   13e0c:	92030007 	lbu	v1,7(s0)
   13e10:	30a500ff 	andi	a1,a1,0xff
   13e14:	00052880 	sll	a1,a1,0x2
   13e18:	00b12821 	addu	a1,a1,s1
   13e1c:	8ca40000 	lw	a0,0(a1)
   13e20:	97420104 	lhu	v0,260(k0)
   13e24:	306300ff 	andi	v1,v1,0xff
   13e28:	3042ffff 	andi	v0,v0,0xffff
   13e2c:	00431021 	addu	v0,v0,v1
   13e30:	00471023 	subu	v0,v0,a3
   13e34:	3c03ffff 	lui	v1,0xffff
   13e38:	00832024 	and	a0,a0,v1
   13e3c:	3042ffff 	andi	v0,v0,0xffff
   13e40:	00822025 	or	a0,a0,v0
   13e44:	aca40000 	sw	a0,0(a1)
   13e48:	92030007 	lbu	v1,7(s0)
   13e4c:	24020001 	li	v0,1
   13e50:	10620006 	beq	v1,v0,0x13e6c
   13e54:	00000000 	nop
   13e58:	24020003 	li	v0,3
   13e5c:	10620011 	beq	v1,v0,0x13ea4
   13e60:	00000000 	nop
   13e64:	0a000639 	j	0x80018e4
   13e68:	8e030010 	lw	v1,16(s0)
   13e6c:	97420104 	lhu	v0,260(k0)
   13e70:	92030004 	lbu	v1,4(s0)
   13e74:	9605000a 	lhu	a1,10(s0)
   13e78:	8e24000c 	lw	a0,12(s1)
   13e7c:	00431021 	addu	v0,v0,v1
   13e80:	00451021 	addu	v0,v0,a1
   13e84:	2442fff2 	addiu	v0,v0,-14
   13e88:	3c03ffff 	lui	v1,0xffff
   13e8c:	00832024 	and	a0,a0,v1
   13e90:	3042ffff 	andi	v0,v0,0xffff
   13e94:	00822025 	or	a0,a0,v0
   13e98:	ae24000c 	sw	a0,12(s1)
   13e9c:	0a000639 	j	0x80018e4
   13ea0:	8e030010 	lw	v1,16(s0)
   13ea4:	97420104 	lhu	v0,260(k0)
   13ea8:	92030004 	lbu	v1,4(s0)
   13eac:	9605000a 	lhu	a1,10(s0)
   13eb0:	8e240010 	lw	a0,16(s1)
   13eb4:	00431021 	addu	v0,v0,v1
   13eb8:	00451021 	addu	v0,v0,a1
   13ebc:	2442ffee 	addiu	v0,v0,-18
   13ec0:	3c03ffff 	lui	v1,0xffff
   13ec4:	00832024 	and	a0,a0,v1
   13ec8:	3042ffff 	andi	v0,v0,0xffff
   13ecc:	00822025 	or	a0,a0,v0
   13ed0:	ae240010 	sw	a0,16(s1)
   13ed4:	8e030010 	lw	v1,16(s0)
   13ed8:	2402000a 	li	v0,10
   13edc:	a7420140 	sh	v0,320(k0)
   13ee0:	a7430142 	sh	v1,322(k0)
   13ee4:	9603000a 	lhu	v1,10(s0)
   13ee8:	92020004 	lbu	v0,4(s0)
   13eec:	3c040040 	lui	a0,0x40
   13ef0:	00431021 	addu	v0,v0,v1
   13ef4:	a7420144 	sh	v0,324(k0)
   13ef8:	a7400146 	sh	zero,326(k0)
   13efc:	97420104 	lhu	v0,260(k0)
   13f00:	a7420148 	sh	v0,328(k0)
   13f04:	24020001 	li	v0,1
   13f08:	0e00020a 	jal	0x8000828
   13f0c:	a742014a 	sh	v0,330(k0)
   13f10:	0e000233 	jal	0x80008cc
   13f14:	00000000 	nop
   13f18:	8f620000 	lw	v0,0(k1)
   13f1c:	92030004 	lbu	v1,4(s0)
   13f20:	00002021 	move	a0,zero
   13f24:	af820008 	sw	v0,8(gp)
   13f28:	97420104 	lhu	v0,260(k0)
   13f2c:	9606000a 	lhu	a2,10(s0)
   13f30:	3042ffff 	andi	v0,v0,0xffff
   13f34:	00621821 	addu	v1,v1,v0
   13f38:	00602821 	move	a1,v1
   13f3c:	3c030800 	lui	v1,0x800
   13f40:	8c630444 	lw	v1,1092(v1)
   13f44:	3c020800 	lui	v0,0x800
   13f48:	8c420440 	lw	v0,1088(v0)
   13f4c:	00651821 	addu	v1,v1,a1
   13f50:	00441021 	addu	v0,v0,a0
   13f54:	0065382b 	sltu	a3,v1,a1
   13f58:	00471021 	addu	v0,v0,a3
   13f5c:	3c010800 	lui	at,0x800
   13f60:	ac230444 	sw	v1,1092(at)
   13f64:	3c010800 	lui	at,0x800
   13f68:	ac220440 	sw	v0,1088(at)
   13f6c:	92040004 	lbu	a0,4(s0)
   13f70:	00862021 	addu	a0,a0,a2
   13f74:	2484000a 	addiu	a0,a0,10
   13f78:	3084ffff 	andi	a0,a0,0xffff
   13f7c:	0e0001e7 	jal	0x800079c
   13f80:	00000000 	nop
   13f84:	97440104 	lhu	a0,260(k0)
   13f88:	3084ffff 	andi	a0,a0,0xffff
   13f8c:	0e0001f5 	jal	0x80007d4
   13f90:	00000000 	nop
   13f94:	3c021000 	lui	v0,0x1000
   13f98:	af420178 	sw	v0,376(k0)
   13f9c:	0a0006d4 	j	0x8001b50
   13fa0:	8f820020 	lw	v0,32(gp)
   13fa4:	14820027 	bne	a0,v0,0x14044
   13fa8:	30620006 	andi	v0,v1,0x6
   13fac:	97420104 	lhu	v0,260(k0)
   13fb0:	10400067 	beqz	v0,0x14150
   13fb4:	3c024000 	lui	v0,0x4000
   13fb8:	30624000 	andi	v0,v1,0x4000
   13fbc:	10400005 	beqz	v0,0x13fd4
   13fc0:	00000000 	nop
   13fc4:	00000000 	nop
   13fc8:	0000000d 	break
   13fcc:	00000000 	nop
   13fd0:	2400041a 	li	zero,1050
   13fd4:	8f420178 	lw	v0,376(k0)
   13fd8:	0440fffe 	bltz	v0,0x13fd4
   13fdc:	24020800 	li	v0,2048
   13fe0:	af420178 	sw	v0,376(k0)
   13fe4:	24020008 	li	v0,8
   13fe8:	a7420140 	sh	v0,320(k0)
   13fec:	a7400142 	sh	zero,322(k0)
   13ff0:	8f820004 	lw	v0,4(gp)
   13ff4:	97430104 	lhu	v1,260(k0)
   13ff8:	30420001 	andi	v0,v0,0x1
   13ffc:	10400007 	beqz	v0,0x1401c
   14000:	3070ffff 	andi	s0,v1,0xffff
   14004:	2603fffe 	addiu	v1,s0,-2
   14008:	24020002 	li	v0,2
   1400c:	a7420146 	sh	v0,326(k0)
   14010:	a7430148 	sh	v1,328(k0)
   14014:	0a00068c 	j	0x8001a30
   14018:	2402000d 	li	v0,13
   1401c:	a7400146 	sh	zero,326(k0)
   14020:	2402000d 	li	v0,13
   14024:	a742014a 	sh	v0,330(k0)
   14028:	8f620000 	lw	v0,0(k1)
   1402c:	24040008 	li	a0,8
   14030:	af820008 	sw	v0,8(gp)
   14034:	0e0001e7 	jal	0x800079c
   14038:	00000000 	nop
   1403c:	0a000666 	j	0x8001998
   14040:	02002021 	move	a0,s0
   14044:	10400042 	beqz	v0,0x14150
   14048:	3c024000 	lui	v0,0x4000
   1404c:	93620000 	lbu	v0,0(k1)
   14050:	304300f0 	andi	v1,v0,0xf0
   14054:	24020010 	li	v0,16
   14058:	10620005 	beq	v1,v0,0x14070
   1405c:	24020070 	li	v0,112
   14060:	10620035 	beq	v1,v0,0x14138
   14064:	8f820020 	lw	v0,32(gp)
   14068:	0a0006d5 	j	0x8001b54
   1406c:	24420001 	addiu	v0,v0,1
   14070:	8f620000 	lw	v0,0(k1)
   14074:	97430104 	lhu	v1,260(k0)
   14078:	3050ffff 	andi	s0,v0,0xffff
   1407c:	3071ffff 	andi	s1,v1,0xffff
   14080:	8f420178 	lw	v0,376(k0)
   14084:	0440fffe 	bltz	v0,0x14080
   14088:	32020007 	andi	v0,s0,0x7
   1408c:	00021023 	negu	v0,v0
   14090:	30420007 	andi	v0,v0,0x7
   14094:	2403000a 	li	v1,10
   14098:	2604fffe 	addiu	a0,s0,-2
   1409c:	a7430140 	sh	v1,320(k0)
   140a0:	a7420142 	sh	v0,322(k0)
   140a4:	a7440144 	sh	a0,324(k0)
   140a8:	a7400146 	sh	zero,326(k0)
   140ac:	a7510148 	sh	s1,328(k0)
   140b0:	8f420108 	lw	v0,264(k0)
   140b4:	30420020 	andi	v0,v0,0x20
   140b8:	14400002 	bnez	v0,0x140c4
   140bc:	24030009 	li	v1,9
   140c0:	24030001 	li	v1,1
   140c4:	a743014a 	sh	v1,330(k0)
   140c8:	0e00020a 	jal	0x8000828
   140cc:	3c040040 	lui	a0,0x40
   140d0:	0e000233 	jal	0x80008cc
   140d4:	00000000 	nop
   140d8:	3c070800 	lui	a3,0x800
   140dc:	8ce70444 	lw	a3,1092(a3)
   140e0:	02111021 	addu	v0,s0,s1
   140e4:	2442fffe 	addiu	v0,v0,-2
   140e8:	3c060800 	lui	a2,0x800
   140ec:	8cc60440 	lw	a2,1088(a2)
   140f0:	00401821 	move	v1,v0
   140f4:	00e33821 	addu	a3,a3,v1
   140f8:	00001021 	move	v0,zero
   140fc:	8f650000 	lw	a1,0(k1)
   14100:	00e3402b 	sltu	t0,a3,v1
   14104:	00c23021 	addu	a2,a2,v0
   14108:	26040008 	addiu	a0,s0,8
   1410c:	00c83021 	addu	a2,a2,t0
   14110:	3084ffff 	andi	a0,a0,0xffff
   14114:	af850008 	sw	a1,8(gp)
   14118:	3c010800 	lui	at,0x800
   1411c:	ac270444 	sw	a3,1092(at)
   14120:	3c010800 	lui	at,0x800
   14124:	ac260440 	sw	a2,1088(at)
   14128:	0e0001e7 	jal	0x800079c
   1412c:	00000000 	nop
   14130:	0a000666 	j	0x8001998
   14134:	02202021 	move	a0,s1
   14138:	0e000139 	jal	0x80004e4
   1413c:	00000000 	nop
   14140:	8f820020 	lw	v0,32(gp)
   14144:	24420001 	addiu	v0,v0,1
   14148:	af820020 	sw	v0,32(gp)
   1414c:	3c024000 	lui	v0,0x4000
   14150:	af420138 	sw	v0,312(k0)
   14154:	0a000336 	j	0x8000cd8
   14158:	00000000 	nop
   1415c:	3084ffff 	andi	a0,a0,0xffff
   14160:	30a5ffff 	andi	a1,a1,0xffff
   14164:	00001821 	move	v1,zero
   14168:	10800007 	beqz	a0,0x14188
   1416c:	00000000 	nop
   14170:	30820001 	andi	v0,a0,0x1
   14174:	10400002 	beqz	v0,0x14180
   14178:	00042042 	srl	a0,a0,0x1
   1417c:	00651821 	addu	v1,v1,a1
   14180:	0a0006dd 	j	0x8001b74
   14184:	00052840 	sll	a1,a1,0x1
   14188:	03e00008 	jr	ra
   1418c:	00601021 	move	v0,v1
   14190:	10c00006 	beqz	a2,0x141ac
   14194:	24c6ffff 	addiu	a2,a2,-1
   14198:	8ca20000 	lw	v0,0(a1)
   1419c:	24a50004 	addiu	a1,a1,4
   141a0:	ac820000 	sw	v0,0(a0)
   141a4:	0a0006e7 	j	0x8001b9c
   141a8:	24840004 	addiu	a0,a0,4
   141ac:	03e00008 	jr	ra
   141b0:	00000000 	nop
   141b4:	10a00008 	beqz	a1,0x141d8
   141b8:	24a3ffff 	addiu	v1,a1,-1
   141bc:	ac860000 	sw	a2,0(a0)
	...
   141c8:	2402ffff 	li	v0,-1
   141cc:	2463ffff 	addiu	v1,v1,-1
   141d0:	1462fffa 	bne	v1,v0,0x141bc
   141d4:	24840004 	addiu	a0,a0,4
   141d8:	03e00008 	jr	ra
   141dc:	00000000 	nop
   141e0:	00000001 	.word	0x1
   141e4:	0a00002a 	j	0x80000a8
   141e8:	00000000 	nop
   141ec:	00000000 	nop
   141f0:	0000000d 	break
   141f4:	74787035 	jalx	0x1e1c0d5
   141f8:	2e302e30 	sltiu	s0,s1,11824
   141fc:	6a313500 	ldl	s1,13568(s1)
   14200:	05000000 	bltz	t0,0x14204
   14204:	0000000a 	.word	0xa
   14208:	00000136 	tne	zero,zero,0x4
   1420c:	0000ea60 	.word	0xea60
	...
   14244:	00000016 	dsrlv	zero,zero,zero
	...
   1427c:	00001388 	.word	0x1388
   14280:	00000000 	nop
   14284:	000005dc 	.word	0x5dc
	...
   14290:	10000003 	b	0x142a0
   14294:	00000000 	nop
   14298:	0000000d 	break
   1429c:	0000000d 	break
   142a0:	3c020800 	lui	v0,0x800
   142a4:	24423920 	addiu	v0,v0,14624
   142a8:	3c030800 	lui	v1,0x800
   142ac:	24633bd4 	addiu	v1,v1,15316
   142b0:	ac400000 	sw	zero,0(v0)
   142b4:	0043202b 	sltu	a0,v0,v1
   142b8:	1480fffd 	bnez	a0,0x142b0
   142bc:	24420004 	addiu	v0,v0,4
   142c0:	3c1d0800 	lui	sp,0x800
   142c4:	37bd7ffc 	ori	sp,sp,0x7ffc
   142c8:	03a0f021 	move	s8,sp
   142cc:	3c100800 	lui	s0,0x800
   142d0:	261000a8 	addiu	s0,s0,168
   142d4:	3c1c0800 	lui	gp,0x800
   142d8:	279c3920 	addiu	gp,gp,14624
   142dc:	0e000407 	jal	0x800101c
   142e0:	00000000 	nop
   142e4:	0000000d 	break
   142e8:	8f86003c 	lw	a2,60(gp)
   142ec:	3c039000 	lui	v1,0x9000
   142f0:	3c028000 	lui	v0,0x8000
   142f4:	00862825 	or	a1,a0,a2
   142f8:	00a32025 	or	a0,a1,v1
   142fc:	ac440020 	sw	a0,32(v0)
   14300:	3c038000 	lui	v1,0x8000
   14304:	8c670020 	lw	a3,32(v1)
   14308:	04e0fffe 	bltz	a3,0x14304
   1430c:	00000000 	nop
   14310:	03e00008 	jr	ra
   14314:	00000000 	nop
   14318:	0a000041 	j	0x8000104
   1431c:	24040001 	li	a0,1
   14320:	8f85003c 	lw	a1,60(gp)
   14324:	3c048000 	lui	a0,0x8000
   14328:	34830001 	ori	v1,a0,0x1
   1432c:	00a31025 	or	v0,a1,v1
   14330:	03e00008 	jr	ra
   14334:	ac820020 	sw	v0,32(a0)
   14338:	03e00008 	jr	ra
   1433c:	00001021 	move	v0,zero
   14340:	3084ffff 	andi	a0,a0,0xffff
   14344:	30a5ffff 	andi	a1,a1,0xffff
   14348:	10800007 	beqz	a0,0x14368
   1434c:	00001821 	move	v1,zero
   14350:	30820001 	andi	v0,a0,0x1
   14354:	10400002 	beqz	v0,0x14360
   14358:	00042042 	srl	a0,a0,0x1
   1435c:	00651821 	addu	v1,v1,a1
   14360:	1480fffb 	bnez	a0,0x14350
   14364:	00052840 	sll	a1,a1,0x1
   14368:	03e00008 	jr	ra
   1436c:	00601021 	move	v0,v1
   14370:	10c00007 	beqz	a2,0x14390
   14374:	00000000 	nop
   14378:	8ca20000 	lw	v0,0(a1)
   1437c:	24c6ffff 	addiu	a2,a2,-1
   14380:	24a50004 	addiu	a1,a1,4
   14384:	ac820000 	sw	v0,0(a0)
   14388:	14c0fffb 	bnez	a2,0x14378
   1438c:	24840004 	addiu	a0,a0,4
   14390:	03e00008 	jr	ra
   14394:	00000000 	nop
   14398:	10a00008 	beqz	a1,0x143bc
   1439c:	24a3ffff 	addiu	v1,a1,-1
   143a0:	ac860000 	sw	a2,0(a0)
	...
   143ac:	2402ffff 	li	v0,-1
   143b0:	2463ffff 	addiu	v1,v1,-1
   143b4:	1462fffa 	bne	v1,v0,0x143a0
   143b8:	24840004 	addiu	a0,a0,4
   143bc:	03e00008 	jr	ra
   143c0:	00000000 	nop
   143c4:	90aa0031 	lbu	t2,49(a1)
   143c8:	8fab0010 	lw	t3,16(sp)
   143cc:	8cac0040 	lw	t4,64(a1)
   143d0:	3c0300ff 	lui	v1,0xff
   143d4:	8d680004 	lw	t0,4(t3)
   143d8:	ad6c0020 	sw	t4,32(t3)
   143dc:	8cad0044 	lw	t5,68(a1)
   143e0:	00e06021 	move	t4,a3
   143e4:	3462ffff 	ori	v0,v1,0xffff
   143e8:	ad6d0024 	sw	t5,36(t3)
   143ec:	8ca70048 	lw	a3,72(a1)
   143f0:	3c09ff00 	lui	t1,0xff00
   143f4:	0109c024 	and	t8,t0,t1
   143f8:	ad670028 	sw	a3,40(t3)
   143fc:	8cae004c 	lw	t6,76(a1)
   14400:	0182c824 	and	t9,t4,v0
   14404:	03197825 	or	t7,t8,t9
   14408:	ad6f0004 	sw	t7,4(t3)
   1440c:	ad6e002c 	sw	t6,44(t3)
   14410:	8cad0038 	lw	t5,56(a1)
   14414:	314a00ff 	andi	t2,t2,0xff
   14418:	ad6d001c 	sw	t5,28(t3)
   1441c:	94a90032 	lhu	t1,50(a1)
   14420:	3128ffff 	andi	t0,t1,0xffff
   14424:	ad680010 	sw	t0,16(t3)
   14428:	90a70030 	lbu	a3,48(a1)
   1442c:	a5600002 	sh	zero,2(t3)
   14430:	a1600004 	sb	zero,4(t3)
   14434:	a1670000 	sb	a3,0(t3)
   14438:	90a30032 	lbu	v1,50(a1)
   1443c:	306200ff 	andi	v0,v1,0xff
   14440:	00021982 	srl	v1,v0,0x6
   14444:	10600005 	beqz	v1,0x1445c
   14448:	24050001 	li	a1,1
   1444c:	1065000e 	beq	v1,a1,0x14488
   14450:	00000000 	nop
   14454:	03e00008 	jr	ra
   14458:	a16a0001 	sb	t2,1(t3)
   1445c:	8cd80028 	lw	t8,40(a2)
   14460:	354a0080 	ori	t2,t2,0x80
   14464:	ad780018 	sw	t8,24(t3)
   14468:	8ccf0014 	lw	t7,20(a2)
   1446c:	ad6f0014 	sw	t7,20(t3)
   14470:	8cce0030 	lw	t6,48(a2)
   14474:	ad6e0008 	sw	t6,8(t3)
   14478:	8cc4002c 	lw	a0,44(a2)
   1447c:	a16a0001 	sb	t2,1(t3)
   14480:	03e00008 	jr	ra
   14484:	ad64000c 	sw	a0,12(t3)
   14488:	8ccd001c 	lw	t5,28(a2)
   1448c:	ad6d0018 	sw	t5,24(t3)
   14490:	8cc90014 	lw	t1,20(a2)
   14494:	ad690014 	sw	t1,20(t3)
   14498:	8cc80024 	lw	t0,36(a2)
   1449c:	ad680008 	sw	t0,8(t3)
   144a0:	8cc70020 	lw	a3,32(a2)
   144a4:	ad67000c 	sw	a3,12(t3)
   144a8:	8cc20014 	lw	v0,20(a2)
   144ac:	8c830070 	lw	v1,112(a0)
   144b0:	0043c82b 	sltu	t9,v0,v1
   144b4:	13200007 	beqz	t9,0x144d4
   144b8:	00000000 	nop
   144bc:	8cc20014 	lw	v0,20(a2)
   144c0:	144cffe4 	bne	v0,t4,0x14454
   144c4:	00000000 	nop
   144c8:	354a0080 	ori	t2,t2,0x80
   144cc:	03e00008 	jr	ra
   144d0:	a16a0001 	sb	t2,1(t3)
   144d4:	8c820070 	lw	v0,112(a0)
   144d8:	0a0000b7 	j	0x80002dc
   144dc:	00000000 	nop
   144e0:	90890030 	lbu	t1,48(a0)
   144e4:	27bdfff8 	addiu	sp,sp,-8
   144e8:	8fa8001c 	lw	t0,28(sp)
   144ec:	a3a90000 	sb	t1,0(sp)
   144f0:	8fa30000 	lw	v1,0(sp)
   144f4:	3c0dff80 	lui	t5,0xff80
   144f8:	35a2ffff 	ori	v0,t5,0xffff
   144fc:	8cac002c 	lw	t4,44(a1)
   14500:	00625824 	and	t3,v1,v0
   14504:	afab0000 	sw	t3,0(sp)
   14508:	a1000004 	sb	zero,4(t0)
   1450c:	00c05821 	move	t3,a2
   14510:	a7a00002 	sh	zero,2(sp)
   14514:	8d060004 	lw	a2,4(t0)
   14518:	00a04821 	move	t1,a1
   1451c:	0167c821 	addu	t9,t3,a3
   14520:	8fa50000 	lw	a1,0(sp)
   14524:	00805021 	move	t2,a0
   14528:	3c18ff7f 	lui	t8,0xff7f
   1452c:	032c2026 	xor	a0,t9,t4
   14530:	3c0e00ff 	lui	t6,0xff
   14534:	2c8c0001 	sltiu	t4,a0,1
   14538:	370fffff 	ori	t7,t8,0xffff
   1453c:	35cdffff 	ori	t5,t6,0xffff
   14540:	3c02ff00 	lui	v0,0xff00
   14544:	00afc824 	and	t9,a1,t7
   14548:	00edc024 	and	t8,a3,t5
   1454c:	00c27824 	and	t7,a2,v0
   14550:	000c1dc0 	sll	v1,t4,0x17
   14554:	03236825 	or	t5,t9,v1
   14558:	01f87025 	or	t6,t7,t8
   1455c:	ad0d0000 	sw	t5,0(t0)
   14560:	ad0e0004 	sw	t6,4(t0)
   14564:	8d240024 	lw	a0,36(t1)
   14568:	afad0000 	sw	t5,0(sp)
   1456c:	ad040008 	sw	a0,8(t0)
   14570:	8d2c0020 	lw	t4,32(t1)
   14574:	2404ffff 	li	a0,-1
   14578:	ad0c000c 	sw	t4,12(t0)
   1457c:	95470032 	lhu	a3,50(t2)
   14580:	30e6ffff 	andi	a2,a3,0xffff
   14584:	ad060010 	sw	a2,16(t0)
   14588:	91450048 	lbu	a1,72(t2)
   1458c:	30a200ff 	andi	v0,a1,0xff
   14590:	000219c2 	srl	v1,v0,0x7
   14594:	50600001 	beqzl	v1,0x1459c
   14598:	8d240034 	lw	a0,52(t1)
   1459c:	ad040014 	sw	a0,20(t0)
   145a0:	8d470038 	lw	a3,56(t2)
   145a4:	8faa0018 	lw	t2,24(sp)
   145a8:	27bd0008 	addiu	sp,sp,8
   145ac:	ad0b0028 	sw	t3,40(t0)
   145b0:	ad0a0024 	sw	t2,36(t0)
   145b4:	ad07001c 	sw	a3,28(t0)
   145b8:	ad00002c 	sw	zero,44(t0)
   145bc:	ad000018 	sw	zero,24(t0)
   145c0:	03e00008 	jr	ra
   145c4:	ad000020 	sw	zero,32(t0)
   145c8:	27bdffe0 	addiu	sp,sp,-32
   145cc:	afb20018 	sw	s2,24(sp)
   145d0:	afb10014 	sw	s1,20(sp)
   145d4:	afb00010 	sw	s0,16(sp)
   145d8:	afbf001c 	sw	ra,28(sp)
   145dc:	90980030 	lbu	t8,48(a0)
   145e0:	00c08821 	move	s1,a2
   145e4:	3c0d00ff 	lui	t5,0xff
   145e8:	330f007f 	andi	t7,t8,0x7f
   145ec:	a0cf0000 	sb	t7,0(a2)
   145f0:	908e0031 	lbu	t6,49(a0)
   145f4:	35acffff 	ori	t4,t5,0xffff
   145f8:	3c0aff00 	lui	t2,0xff00
   145fc:	a0ce0001 	sb	t6,1(a2)
   14600:	94a6001e 	lhu	a2,30(a1)
   14604:	a2200004 	sb	zero,4(s1)
   14608:	8cab0014 	lw	t3,20(a1)
   1460c:	8e290004 	lw	t1,4(s1)
   14610:	00a08021 	move	s0,a1
   14614:	016c2824 	and	a1,t3,t4
   14618:	012a4024 	and	t0,t1,t2
   1461c:	00809021 	move	s2,a0
   14620:	01052025 	or	a0,t0,a1
   14624:	a6260002 	sh	a2,2(s1)
   14628:	ae240004 	sw	a0,4(s1)
   1462c:	26050020 	addiu	a1,s0,32
   14630:	26240008 	addiu	a0,s1,8
   14634:	0e000063 	jal	0x800018c
   14638:	24060002 	li	a2,2
   1463c:	92470030 	lbu	a3,48(s2)
   14640:	26050028 	addiu	a1,s0,40
   14644:	26240014 	addiu	a0,s1,20
   14648:	00071e00 	sll	v1,a3,0x18
   1464c:	00031603 	sra	v0,v1,0x18
   14650:	24060004 	li	a2,4
   14654:	04400003 	bltz	v0,0x14664
   14658:	2403ffff 	li	v1,-1
   1465c:	96590032 	lhu	t9,50(s2)
   14660:	3323ffff 	andi	v1,t9,0xffff
   14664:	0e000063 	jal	0x800018c
   14668:	ae230010 	sw	v1,16(s1)
   1466c:	26240024 	addiu	a0,s1,36
   14670:	8fbf001c 	lw	ra,28(sp)
   14674:	8fb20018 	lw	s2,24(sp)
   14678:	8fb10014 	lw	s1,20(sp)
   1467c:	8fb00010 	lw	s0,16(sp)
   14680:	24050003 	li	a1,3
   14684:	00003021 	move	a2,zero
   14688:	0a00006d 	j	0x80001b4
   1468c:	27bd0020 	addiu	sp,sp,32
   14690:	27bdffd8 	addiu	sp,sp,-40
   14694:	afb1001c 	sw	s1,28(sp)
   14698:	afb00018 	sw	s0,24(sp)
   1469c:	afbf0020 	sw	ra,32(sp)
   146a0:	90a90030 	lbu	t1,48(a1)
   146a4:	24020001 	li	v0,1
   146a8:	00e05021 	move	t2,a3
   146ac:	3123003f 	andi	v1,t1,0x3f
   146b0:	00a04021 	move	t0,a1
   146b4:	8fb00040 	lw	s0,64(sp)
   146b8:	00808821 	move	s1,a0
   146bc:	00c04821 	move	t1,a2
   146c0:	10620014 	beq	v1,v0,0x14714
   146c4:	8fa70038 	lw	a3,56(sp)
   146c8:	240b0005 	li	t3,5
   146cc:	00a02021 	move	a0,a1
   146d0:	00c02821 	move	a1,a2
   146d4:	106b0013 	beq	v1,t3,0x14724
   146d8:	02003021 	move	a2,s0
   146dc:	0e0000f9 	jal	0x80003e4
   146e0:	00000000 	nop
   146e4:	9225007c 	lbu	a1,124(s1)
   146e8:	30a40002 	andi	a0,a1,0x2
   146ec:	10800003 	beqz	a0,0x146fc
   146f0:	26030030 	addiu	v1,s0,48
   146f4:	ae000030 	sw	zero,48(s0)
   146f8:	26030034 	addiu	v1,s0,52
   146fc:	8fbf0020 	lw	ra,32(sp)
   14700:	8fb1001c 	lw	s1,28(sp)
   14704:	8fb00018 	lw	s0,24(sp)
   14708:	00601021 	move	v0,v1
   1470c:	03e00008 	jr	ra
   14710:	27bd0028 	addiu	sp,sp,40
   14714:	0e000078 	jal	0x80001e0
   14718:	afb00010 	sw	s0,16(sp)
   1471c:	0a000140 	j	0x8000500
   14720:	00000000 	nop
   14724:	8fa3003c 	lw	v1,60(sp)
   14728:	01002021 	move	a0,t0
   1472c:	01202821 	move	a1,t1
   14730:	01403021 	move	a2,t2
   14734:	afa30010 	sw	v1,16(sp)
   14738:	0e0000bf 	jal	0x80002fc
   1473c:	afb00014 	sw	s0,20(sp)
   14740:	0a000140 	j	0x8000500
   14744:	00000000 	nop
   14748:	3c058000 	lui	a1,0x8000
   1474c:	8ca30e10 	lw	v1,3600(a1)
   14750:	8f840044 	lw	a0,68(gp)
   14754:	ac830020 	sw	v1,32(a0)
   14758:	8ca20e18 	lw	v0,3608(a1)
   1475c:	03e00008 	jr	ra
   14760:	ac820024 	sw	v0,36(a0)
   14764:	3c058000 	lui	a1,0x8000
   14768:	8ca30e14 	lw	v1,3604(a1)
   1476c:	8f840044 	lw	a0,68(gp)
   14770:	ac830020 	sw	v1,32(a0)
   14774:	8ca20e1c 	lw	v0,3612(a1)
   14778:	03e00008 	jr	ra
   1477c:	ac820024 	sw	v0,36(a0)
   14780:	9382000c 	lbu	v0,12(gp)
   14784:	1040001b 	beqz	v0,0x147f4
   14788:	2483000f 	addiu	v1,a0,15
   1478c:	2404fff0 	li	a0,-16
   14790:	00643824 	and	a3,v1,a0
   14794:	10e00019 	beqz	a3,0x147fc
   14798:	978b0010 	lhu	t3,16(gp)
   1479c:	9784000e 	lhu	a0,14(gp)
   147a0:	9389000d 	lbu	t1,13(gp)
   147a4:	3c0a601c 	lui	t2,0x601c
   147a8:	0a00017b 	j	0x80005ec
   147ac:	01644023 	subu	t0,t3,a0
   147b0:	01037021 	addu	t6,t0,v1
   147b4:	00642823 	subu	a1,v1,a0
   147b8:	11260002 	beq	t1,a2,0x147c4
   147bc:	31c2ffff 	andi	v0,t6,0xffff
   147c0:	30a2ffff 	andi	v0,a1,0xffff
   147c4:	0047302b 	sltu	a2,v0,a3
   147c8:	50c0000e 	beqzl	a2,0x14804
   147cc:	00e44821 	addu	t1,a3,a0
   147d0:	8d4d000c 	lw	t5,12(t2)
   147d4:	31a3ffff 	andi	v1,t5,0xffff
   147d8:	00036400 	sll	t4,v1,0x10
   147dc:	000c2c03 	sra	a1,t4,0x10
   147e0:	04a1fff3 	bgez	a1,0x147b0
   147e4:	00003021 	move	a2,zero
   147e8:	30637fff 	andi	v1,v1,0x7fff
   147ec:	0a000173 	j	0x80005cc
   147f0:	24060001 	li	a2,1
   147f4:	03e00008 	jr	ra
   147f8:	00000000 	nop
   147fc:	9784000e 	lhu	a0,14(gp)
   14800:	00e44821 	addu	t1,a3,a0
   14804:	3123ffff 	andi	v1,t1,0xffff
   14808:	3168ffff 	andi	t0,t3,0xffff
   1480c:	0068382b 	sltu	a3,v1,t0
   14810:	54e0fff8 	bnezl	a3,0x147f4
   14814:	a783000e 	sh	v1,14(gp)
   14818:	938a000d 	lbu	t2,13(gp)
   1481c:	11400005 	beqz	t2,0x14834
   14820:	240f0001 	li	t7,1
   14824:	006bc023 	subu	t8,v1,t3
   14828:	a380000d 	sb	zero,13(gp)
   1482c:	03e00008 	jr	ra
   14830:	a798000e 	sh	t8,14(gp)
   14834:	006bc023 	subu	t8,v1,t3
   14838:	a38f000d 	sb	t7,13(gp)
   1483c:	03e00008 	jr	ra
   14840:	a798000e 	sh	t8,14(gp)
   14844:	03e00008 	jr	ra
   14848:	00000000 	nop
   1484c:	27bdffe8 	addiu	sp,sp,-24
   14850:	afb00010 	sw	s0,16(sp)
   14854:	3084ffff 	andi	a0,a0,0xffff
   14858:	3c108000 	lui	s0,0x8000
   1485c:	93a8002b 	lbu	t0,43(sp)
   14860:	afbf0014 	sw	ra,20(sp)
   14864:	a6040144 	sh	a0,324(s0)
   14868:	960a0e16 	lhu	t2,3606(s0)
   1486c:	30c600ff 	andi	a2,a2,0xff
   14870:	8fa90030 	lw	t1,48(sp)
   14874:	a60a0146 	sh	t2,326(s0)
   14878:	ae050148 	sw	a1,328(s0)
   1487c:	a2060152 	sb	a2,338(s0)
   14880:	a608015a 	sh	t0,346(s0)
   14884:	ae070160 	sw	a3,352(s0)
   14888:	8fa3002c 	lw	v1,44(sp)
   1488c:	a6090158 	sh	t1,344(s0)
   14890:	01202021 	move	a0,t1
   14894:	0e000167 	jal	0x800059c
   14898:	ae030154 	sw	v1,340(s0)
   1489c:	3c021000 	lui	v0,0x1000
   148a0:	ae020178 	sw	v0,376(s0)
   148a4:	8fbf0014 	lw	ra,20(sp)
   148a8:	8fb00010 	lw	s0,16(sp)
   148ac:	03e00008 	jr	ra
   148b0:	27bd0018 	addiu	sp,sp,24
   148b4:	8f850000 	lw	a1,0(gp)
   148b8:	24840007 	addiu	a0,a0,7
   148bc:	27bdfff8 	addiu	sp,sp,-8
   148c0:	3084fff8 	andi	a0,a0,0xfff8
   148c4:	3c068000 	lui	a2,0x8000
   148c8:	94cb008a 	lhu	t3,138(a2)
   148cc:	316affff 	andi	t2,t3,0xffff
   148d0:	afaa0000 	sw	t2,0(sp)
   148d4:	8fa90000 	lw	t1,0(sp)
   148d8:	01254023 	subu	t0,t1,a1
   148dc:	2507ffff 	addiu	a3,t0,-1
   148e0:	30e31fff 	andi	v1,a3,0x1fff
   148e4:	0064102b 	sltu	v0,v1,a0
   148e8:	1440fff7 	bnez	v0,0x148c8
   148ec:	00056882 	srl	t5,a1,0x2
   148f0:	000d2880 	sll	a1,t5,0x2
   148f4:	34cc4000 	ori	t4,a2,0x4000
   148f8:	00ac1021 	addu	v0,a1,t4
   148fc:	03e00008 	jr	ra
   14900:	27bd0008 	addiu	sp,sp,8
   14904:	8f820000 	lw	v0,0(gp)
   14908:	24860007 	addiu	a2,a0,7
   1490c:	30c5fff8 	andi	a1,a2,0xfff8
   14910:	00a21821 	addu	v1,a1,v0
   14914:	30641fff 	andi	a0,v1,0x1fff
   14918:	03e00008 	jr	ra
   1491c:	af840000 	sw	a0,0(gp)
   14920:	8f850044 	lw	a1,68(gp)
   14924:	8f8a003c 	lw	t2,60(gp)
   14928:	27bdffb0 	addiu	sp,sp,-80
   1492c:	3c048000 	lui	a0,0x8000
   14930:	afb70044 	sw	s7,68(sp)
   14934:	afb40038 	sw	s4,56(sp)
   14938:	afb1002c 	sw	s1,44(sp)
   1493c:	afbf0048 	sw	ra,72(sp)
   14940:	afb60040 	sw	s6,64(sp)
   14944:	afb5003c 	sw	s5,60(sp)
   14948:	afb30034 	sw	s3,52(sp)
   1494c:	afb20030 	sw	s2,48(sp)
   14950:	afb00028 	sw	s0,40(sp)
   14954:	8c870104 	lw	a3,260(a0)
   14958:	8ca90024 	lw	t1,36(a1)
   1495c:	ac8a0080 	sw	t2,128(a0)
   14960:	8ca80020 	lw	t0,32(a1)
   14964:	00e98823 	subu	s1,a3,t1
   14968:	0000b821 	move	s7,zero
   1496c:	ac880e10 	sw	t0,3600(a0)
   14970:	8ca60024 	lw	a2,36(a1)
   14974:	0000a021 	move	s4,zero
   14978:	ac860e18 	sw	a2,3608(a0)
   1497c:	8c820e10 	lw	v0,3600(a0)
   14980:	ac820e14 	sw	v0,3604(a0)
   14984:	8c830e18 	lw	v1,3608(a0)
   14988:	ac830e1c 	sw	v1,3612(a0)
   1498c:	122000fb 	beqz	s1,0x14d7c
   14990:	3c168000 	lui	s6,0x8000
   14994:	936b0008 	lbu	t3,8(k1)
   14998:	116000f1 	beqz	t3,0x14d60
   1499c:	00000000 	nop
   149a0:	976e0010 	lhu	t6,16(k1)
   149a4:	31cdffff 	andi	t5,t6,0xffff
   149a8:	022d602b 	sltu	t4,s1,t5
   149ac:	158000ec 	bnez	t4,0x14d60
   149b0:	00000000 	nop
   149b4:	97700010 	lhu	s0,16(k1)
   149b8:	320fffff 	andi	t7,s0,0xffff
   149bc:	aecf0e00 	sw	t7,3584(s6)
   149c0:	3c058000 	lui	a1,0x8000
   149c4:	8cb30000 	lw	s3,0(a1)
   149c8:	32720008 	andi	s2,s3,0x8
   149cc:	1240fffd 	beqz	s2,0x149c4
   149d0:	00000000 	nop
   149d4:	94b50e08 	lhu	s5,3592(a1)
   149d8:	8ca70e04 	lw	a3,3588(a1)
   149dc:	32a5ffff 	andi	a1,s5,0xffff
   149e0:	30b40001 	andi	s4,a1,0x1
   149e4:	128000e1 	beqz	s4,0x14d6c
   149e8:	00000000 	nop
   149ec:	0000000d 	break
   149f0:	30b9a040 	andi	t9,a1,0xa040
   149f4:	24180040 	li	t8,64
   149f8:	13380117 	beq	t9,t8,0x14e58
   149fc:	30b4a000 	andi	s4,a1,0xa000
   14a00:	128000dc 	beqz	s4,0x14d74
   14a04:	00000000 	nop
   14a08:	93730008 	lbu	s3,8(k1)
   14a0c:	12600008 	beqz	s3,0x14a30
   14a10:	00000000 	nop
   14a14:	97690010 	lhu	t1,16(k1)
   14a18:	3122ffff 	andi	v0,t1,0xffff
   14a1c:	00e2202b 	sltu	a0,a3,v0
   14a20:	10800003 	beqz	a0,0x14a30
   14a24:	30a60040 	andi	a2,a1,0x40
   14a28:	10c000d2 	beqz	a2,0x14d74
   14a2c:	00000000 	nop
   14a30:	a7850040 	sh	a1,64(gp)
   14a34:	af870038 	sw	a3,56(gp)
   14a38:	936a0008 	lbu	t2,8(k1)
   14a3c:	02203821 	move	a3,s1
   14a40:	afb10020 	sw	s1,32(sp)
   14a44:	154000f1 	bnez	t2,0x14e0c
   14a48:	27b40020 	addiu	s4,sp,32
   14a4c:	af60000c 	sw	zero,12(k1)
   14a50:	97850040 	lhu	a1,64(gp)
   14a54:	30b14000 	andi	s1,a1,0x4000
   14a58:	16200002 	bnez	s1,0x14a64
   14a5c:	24030016 	li	v1,22
   14a60:	2403000e 	li	v1,14
   14a64:	24154007 	li	s5,16391
   14a68:	a363000a 	sb	v1,10(k1)
   14a6c:	af750014 	sw	s5,20(k1)
   14a70:	93900042 	lbu	s0,66(gp)
   14a74:	8f6f0014 	lw	t7,20(k1)
   14a78:	32190001 	andi	t9,s0,0x1
   14a7c:	0019c240 	sll	t8,t9,0x9
   14a80:	01f84025 	or	t0,t7,t8
   14a84:	af680014 	sw	t0,20(k1)
   14a88:	97870040 	lhu	a3,64(gp)
   14a8c:	8f630014 	lw	v1,20(k1)
   14a90:	30ee0010 	andi	t6,a3,0x10
   14a94:	006e6825 	or	t5,v1,t6
   14a98:	af6d0014 	sw	t5,20(k1)
   14a9c:	978c0040 	lhu	t4,64(gp)
   14aa0:	318b0008 	andi	t3,t4,0x8
   14aa4:	11600165 	beqz	t3,0x1503c
   14aa8:	00000000 	nop
   14aac:	8f650014 	lw	a1,20(k1)
   14ab0:	3c0b1000 	lui	t3,0x1000
   14ab4:	3c0a8000 	lui	t2,0x8000
   14ab8:	00ab8825 	or	s1,a1,t3
   14abc:	af710014 	sw	s1,20(k1)
   14ac0:	95460e0a 	lhu	a2,3594(t2)
   14ac4:	3c098100 	lui	t1,0x8100
   14ac8:	2413000e 	li	s3,14
   14acc:	30c2ffff 	andi	v0,a2,0xffff
   14ad0:	00492025 	or	a0,v0,t1
   14ad4:	af640004 	sw	a0,4(k1)
   14ad8:	a3730002 	sb	s3,2(k1)
   14adc:	937f000a 	lbu	ra,10(k1)
   14ae0:	3406fffc 	li	a2,0xfffc
   14ae4:	27f20004 	addiu	s2,ra,4
   14ae8:	a372000a 	sb	s2,10(k1)
   14aec:	978d0040 	lhu	t5,64(gp)
   14af0:	31ac2000 	andi	t4,t5,0x2000
   14af4:	11800157 	beqz	t4,0x15054
   14af8:	00000000 	nop
   14afc:	3c078000 	lui	a3,0x8000
   14b00:	978d0040 	lhu	t5,64(gp)
   14b04:	94ec0e0c 	lhu	t4,3596(a3)
   14b08:	97910040 	lhu	s1,64(gp)
   14b0c:	000d5842 	srl	t3,t5,0x1
   14b10:	3185c000 	andi	a1,t4,0xc000
   14b14:	316a0003 	andi	t2,t3,0x3
   14b18:	00051303 	sra	v0,a1,0xc
   14b1c:	32291000 	andi	t1,s1,0x1000
   14b20:	01429825 	or	s3,t2,v0
   14b24:	00092203 	sra	a0,t1,0x8
   14b28:	0264f825 	or	ra,s3,a0
   14b2c:	001f90c0 	sll	s2,ra,0x3
   14b30:	a7720012 	sh	s2,18(k1)
   14b34:	97950040 	lhu	s5,64(gp)
   14b38:	9379000a 	lbu	t9,10(k1)
   14b3c:	00158182 	srl	s0,s5,0x6
   14b40:	3218003c 	andi	t8,s0,0x3c
   14b44:	03197821 	addu	t7,t8,t9
   14b48:	25e8003c 	addiu	t0,t7,60
   14b4c:	a3680009 	sb	t0,9(k1)
   14b50:	94ee0e0c 	lhu	t6,3596(a3)
   14b54:	31c33fff 	andi	v1,t6,0x3fff
   14b58:	a7630010 	sh	v1,16(k1)
   14b5c:	97630012 	lhu	v1,18(k1)
   14b60:	93670009 	lbu	a3,9(k1)
   14b64:	00e37021 	addu	t6,a3,v1
   14b68:	25cd0002 	addiu	t5,t6,2
   14b6c:	31ac0007 	andi	t4,t5,0x7
   14b70:	000c5823 	negu	t3,t4
   14b74:	31650007 	andi	a1,t3,0x7
   14b78:	a365000b 	sb	a1,11(k1)
   14b7c:	93710009 	lbu	s1,9(k1)
   14b80:	97640012 	lhu	a0,18(k1)
   14b84:	976a0010 	lhu	t2,16(k1)
   14b88:	322200ff 	andi	v0,s1,0xff
   14b8c:	8f910038 	lw	s1,56(gp)
   14b90:	979f0040 	lhu	ra,64(gp)
   14b94:	00444821 	addu	t1,v0,a0
   14b98:	012a9821 	addu	s3,t1,t2
   14b9c:	02669021 	addu	s2,s3,a2
   14ba0:	33f50040 	andi	s5,ra,0x40
   14ba4:	12a00005 	beqz	s5,0x14bbc
   14ba8:	3246ffff 	andi	a2,s2,0xffff
   14bac:	00d1402b 	sltu	t0,a2,s1
   14bb0:	3c128000 	lui	s2,0x8000
   14bb4:	11000016 	beqz	t0,0x14c10
   14bb8:	00009821 	move	s3,zero
   14bbc:	0226782b 	sltu	t7,s1,a2
   14bc0:	15e00136 	bnez	t7,0x1509c
   14bc4:	8fa70020 	lw	a3,32(sp)
   14bc8:	3c188000 	lui	t8,0x8000
   14bcc:	8f100e14 	lw	s0,3604(t8)
   14bd0:	3c058000 	lui	a1,0x8000
   14bd4:	af100e10 	sw	s0,3600(t8)
   14bd8:	8f190e1c 	lw	t9,3612(t8)
   14bdc:	af190e18 	sw	t9,3608(t8)
   14be0:	af060e00 	sw	a2,3584(t8)
   14be4:	8cb20000 	lw	s2,0(a1)
   14be8:	32550008 	andi	s5,s2,0x8
   14bec:	12a0fffd 	beqz	s5,0x14be4
   14bf0:	00000000 	nop
   14bf4:	94bf0e08 	lhu	ra,3592(a1)
   14bf8:	00c08821 	move	s1,a2
   14bfc:	00009021 	move	s2,zero
   14c00:	a79f0040 	sh	ra,64(gp)
   14c04:	8ca60e04 	lw	a2,3588(a1)
   14c08:	24130001 	li	s3,1
   14c0c:	af860038 	sw	a2,56(gp)
   14c10:	97690010 	lhu	t1,16(k1)
   14c14:	3135ffff 	andi	s5,t1,0xffff
   14c18:	8e8c0000 	lw	t4,0(s4)
   14c1c:	01912023 	subu	a0,t4,s1
   14c20:	10800118 	beqz	a0,0x15084
   14c24:	ae840000 	sw	a0,0(s4)
   14c28:	93670008 	lbu	a3,8(k1)
   14c2c:	14e000d8 	bnez	a3,0x14f90
   14c30:	00000000 	nop
   14c34:	0e0001b4 	jal	0x80006d0
   14c38:	24040010 	li	a0,16
   14c3c:	8f8e0048 	lw	t6,72(gp)
   14c40:	3c033200 	lui	v1,0x3200
   14c44:	00402821 	move	a1,v0
   14c48:	31c600ff 	andi	a2,t6,0xff
   14c4c:	00063c00 	sll	a3,a2,0x10
   14c50:	00e36025 	or	t4,a3,v1
   14c54:	25cd0001 	addiu	t5,t6,1
   14c58:	af8d0048 	sw	t5,72(gp)
   14c5c:	ac4c0000 	sw	t4,0(v0)
   14c60:	93620009 	lbu	v0,9(k1)
   14c64:	97640012 	lhu	a0,18(k1)
   14c68:	937f000a 	lbu	ra,10(k1)
   14c6c:	304a00ff 	andi	t2,v0,0xff
   14c70:	308bffff 	andi	t3,a0,0xffff
   14c74:	014b4821 	addu	t1,t2,t3
   14c78:	0009cc00 	sll	t9,t1,0x10
   14c7c:	33f000ff 	andi	s0,ra,0xff
   14c80:	0330c025 	or	t8,t9,s0
   14c84:	acb80004 	sw	t8,4(a1)
   14c88:	8f8f0048 	lw	t7,72(gp)
   14c8c:	97880040 	lhu	t0,64(gp)
   14c90:	31032000 	andi	v1,t0,0x2000
   14c94:	10600103 	beqz	v1,0x150a4
   14c98:	acaf0008 	sw	t7,8(a1)
   14c9c:	976f0012 	lhu	t7,18(k1)
   14ca0:	31e8ffff 	andi	t0,t7,0xffff
   14ca4:	06400101 	bltz	s2,0x150ac
   14ca8:	aca8000c 	sw	t0,12(a1)
   14cac:	97900040 	lhu	s0,64(gp)
   14cb0:	32050008 	andi	a1,s0,0x8
   14cb4:	14a00002 	bnez	a1,0x14cc0
   14cb8:	26280006 	addiu	t0,s1,6
   14cbc:	26280002 	addiu	t0,s1,2
   14cc0:	3c048000 	lui	a0,0x8000
   14cc4:	948b0e14 	lhu	t3,3604(a0)
   14cc8:	8c850e1c 	lw	a1,3612(a0)
   14ccc:	8f670004 	lw	a3,4(k1)
   14cd0:	936a0002 	lbu	t2,2(k1)
   14cd4:	3164ffff 	andi	a0,t3,0xffff
   14cd8:	314900ff 	andi	t1,t2,0xff
   14cdc:	afa90010 	sw	t1,16(sp)
   14ce0:	8f7f0014 	lw	ra,20(k1)
   14ce4:	afa80018 	sw	t0,24(sp)
   14ce8:	afbf0014 	sw	ra,20(sp)
   14cec:	0e00019a 	jal	0x8000668
   14cf0:	00000000 	nop
   14cf4:	24040010 	li	a0,16
   14cf8:	0e0001c8 	jal	0x8000720
   14cfc:	00000000 	nop
   14d00:	8e920000 	lw	s2,0(s4)
   14d04:	16400005 	bnez	s2,0x14d1c
   14d08:	00000000 	nop
   14d0c:	8f790014 	lw	t9,20(k1)
   14d10:	2405ffbf 	li	a1,-65
   14d14:	0325a024 	and	s4,t9,a1
   14d18:	af740014 	sw	s4,20(k1)
   14d1c:	8f69000c 	lw	t1,12(k1)
   14d20:	0135f821 	addu	ra,t1,s5
   14d24:	af7f000c 	sw	ra,12(k1)
   14d28:	93750008 	lbu	s5,8(k1)
   14d2c:	16a00008 	bnez	s5,0x14d50
   14d30:	00000000 	nop
   14d34:	12600006 	beqz	s3,0x14d50
   14d38:	00000000 	nop
   14d3c:	8f6b0014 	lw	t3,20(k1)
   14d40:	3c0cefff 	lui	t4,0xefff
   14d44:	3584fffe 	ori	a0,t4,0xfffe
   14d48:	01645024 	and	t2,t3,a0
   14d4c:	af6a0014 	sw	t2,20(k1)
   14d50:	a3730008 	sb	s3,8(k1)
   14d54:	8fa70020 	lw	a3,32(sp)
   14d58:	0a000316 	j	0x8000c58
   14d5c:	02202021 	move	a0,s1
   14d60:	aed10e00 	sw	s1,3584(s6)
   14d64:	0a0001f8 	j	0x80007e0
   14d68:	3c058000 	lui	a1,0x8000
   14d6c:	14e0ff21 	bnez	a3,0x149f4
   14d70:	30b9a040 	andi	t9,a1,0xa040
   14d74:	0e000160 	jal	0x8000580
   14d78:	0000a021 	move	s4,zero
   14d7c:	2e910001 	sltiu	s1,s4,1
   14d80:	0237b025 	or	s6,s1,s7
   14d84:	12c00017 	beqz	s6,0x14de4
   14d88:	8fbf0048 	lw	ra,72(sp)
   14d8c:	8f85003c 	lw	a1,60(gp)
   14d90:	24170f00 	li	s7,3840
   14d94:	10b700cd 	beq	a1,s7,0x150cc
   14d98:	3c048000 	lui	a0,0x8000
   14d9c:	8c990178 	lw	t9,376(a0)
   14da0:	0720fffe 	bltz	t9,0x14d9c
   14da4:	24150f00 	li	s5,3840
   14da8:	50b500eb 	beql	a1,s5,0x15158
   14dac:	3c048000 	lui	a0,0x8000
   14db0:	8c890e14 	lw	t1,3604(a0)
   14db4:	24050240 	li	a1,576
   14db8:	3c141000 	lui	s4,0x1000
   14dbc:	ac890144 	sw	t1,324(a0)
   14dc0:	8c9f0e1c 	lw	ra,3612(a0)
   14dc4:	ac9f0148 	sw	ra,328(a0)
   14dc8:	a0800152 	sb	zero,338(a0)
   14dcc:	a480015a 	sh	zero,346(a0)
   14dd0:	ac800160 	sw	zero,352(a0)
   14dd4:	a4800158 	sh	zero,344(a0)
   14dd8:	ac850154 	sw	a1,340(a0)
   14ddc:	ac940178 	sw	s4,376(a0)
   14de0:	8fbf0048 	lw	ra,72(sp)
   14de4:	8fb70044 	lw	s7,68(sp)
   14de8:	8fb60040 	lw	s6,64(sp)
   14dec:	8fb5003c 	lw	s5,60(sp)
   14df0:	8fb40038 	lw	s4,56(sp)
   14df4:	8fb30034 	lw	s3,52(sp)
   14df8:	8fb20030 	lw	s2,48(sp)
   14dfc:	8fb1002c 	lw	s1,44(sp)
   14e00:	8fb00028 	lw	s0,40(sp)
   14e04:	03e00008 	jr	ra
   14e08:	27bd0050 	addiu	sp,sp,80
   14e0c:	8f910038 	lw	s1,56(gp)
   14e10:	97930040 	lhu	s3,64(gp)
   14e14:	3c128000 	lui	s2,0x8000
   14e18:	0220a821 	move	s5,s1
   14e1c:	326a0040 	andi	t2,s3,0x40
   14e20:	1540ff7d 	bnez	t2,0x14c18
   14e24:	00009821 	move	s3,zero
   14e28:	976b0010 	lhu	t3,16(k1)
   14e2c:	8f850038 	lw	a1,56(gp)
   14e30:	3162ffff 	andi	v0,t3,0xffff
   14e34:	104500a2 	beq	v0,a1,0x150c0
   14e38:	00002021 	move	a0,zero
   14e3c:	0080a021 	move	s4,a0
   14e40:	108000e5 	beqz	a0,0x151d8
   14e44:	00e08821 	move	s1,a3
   14e48:	1620fed2 	bnez	s1,0x14994
   14e4c:	00000000 	nop
   14e50:	0a0002e7 	j	0x8000b9c
   14e54:	2e910001 	sltiu	s1,s4,1
   14e58:	3c038000 	lui	v1,0x8000
   14e5c:	8c7f0178 	lw	ra,376(v1)
   14e60:	07e0fffe 	bltz	ra,0x14e5c
   14e64:	24040800 	li	a0,2048
   14e68:	8f860000 	lw	a2,0(gp)
   14e6c:	ac640178 	sw	a0,376(v1)
   14e70:	3c038000 	lui	v1,0x8000
   14e74:	946c008a 	lhu	t4,138(v1)
   14e78:	318bffff 	andi	t3,t4,0xffff
   14e7c:	01665023 	subu	t2,t3,a2
   14e80:	2549ffff 	addiu	t1,t2,-1
   14e84:	31281fff 	andi	t0,t1,0x1fff
   14e88:	2d020008 	sltiu	v0,t0,8
   14e8c:	1440fff9 	bnez	v0,0x14e74
   14e90:	00000000 	nop
   14e94:	8f8e0048 	lw	t6,72(gp)
   14e98:	346f4000 	ori	t7,v1,0x4000
   14e9c:	8f83003c 	lw	v1,60(gp)
   14ea0:	00e0a021 	move	s4,a3
   14ea4:	240d0f00 	li	t5,3840
   14ea8:	25c70001 	addiu	a3,t6,1
   14eac:	af870048 	sw	a3,72(gp)
   14eb0:	00cf3021 	addu	a2,a2,t7
   14eb4:	02348823 	subu	s1,s1,s4
   14eb8:	3c088000 	lui	t0,0x8000
   14ebc:	31d500ff 	andi	s5,t6,0xff
   14ec0:	106d0005 	beq	v1,t5,0x14ed8
   14ec4:	24070001 	li	a3,1
   14ec8:	93930042 	lbu	s3,66(gp)
   14ecc:	32720001 	andi	s2,s3,0x1
   14ed0:	00128240 	sll	s0,s2,0x9
   14ed4:	36070001 	ori	a3,s0,0x1
   14ed8:	00151400 	sll	v0,s5,0x10
   14edc:	3c090100 	lui	t1,0x100
   14ee0:	00492025 	or	a0,v0,t1
   14ee4:	acc40000 	sw	a0,0(a2)
   14ee8:	8f9f0048 	lw	ra,72(gp)
   14eec:	30b90036 	andi	t9,a1,0x36
   14ef0:	30b80008 	andi	t8,a1,0x8
   14ef4:	acdf0004 	sw	ra,4(a2)
   14ef8:	13000090 	beqz	t8,0x1513c
   14efc:	00f99825 	or	s3,a3,t9
   14f00:	95070e0a 	lhu	a3,3594(t0)
   14f04:	8f8e0000 	lw	t6,0(gp)
   14f08:	3c038100 	lui	v1,0x8100
   14f0c:	30edffff 	andi	t5,a3,0xffff
   14f10:	25cb0008 	addiu	t3,t6,8
   14f14:	01a32825 	or	a1,t5,v1
   14f18:	3c0c1000 	lui	t4,0x1000
   14f1c:	316a1fff 	andi	t2,t3,0x1fff
   14f20:	26920006 	addiu	s2,s4,6
   14f24:	2406000e 	li	a2,14
   14f28:	ad050160 	sw	a1,352(t0)
   14f2c:	026c9825 	or	s3,s3,t4
   14f30:	a506015a 	sh	a2,346(t0)
   14f34:	af8a0000 	sw	t2,0(gp)
   14f38:	a5120158 	sh	s2,344(t0)
   14f3c:	16200008 	bnez	s1,0x14f60
   14f40:	3c108000 	lui	s0,0x8000
   14f44:	8f99003c 	lw	t9,60(gp)
   14f48:	24180f00 	li	t8,3840
   14f4c:	53380002 	beql	t9,t8,0x14f58
   14f50:	24170001 	li	s7,1
   14f54:	36730040 	ori	s3,s3,0x40
   14f58:	0e000159 	jal	0x8000564
   14f5c:	3c108000 	lui	s0,0x8000
   14f60:	8e1f0e14 	lw	ra,3604(s0)
   14f64:	02402021 	move	a0,s2
   14f68:	ae1f0144 	sw	ra,324(s0)
   14f6c:	8e120e1c 	lw	s2,3612(s0)
   14f70:	ae120148 	sw	s2,328(s0)
   14f74:	a2150152 	sb	s5,338(s0)
   14f78:	ae130154 	sw	s3,340(s0)
   14f7c:	0e000167 	jal	0x800059c
   14f80:	3c151000 	lui	s5,0x1000
   14f84:	ae150178 	sw	s5,376(s0)
   14f88:	0a000319 	j	0x8000c64
   14f8c:	00000000 	nop
   14f90:	93780009 	lbu	t8,9(k1)
   14f94:	97630012 	lhu	v1,18(k1)
   14f98:	9368000b 	lbu	t0,11(k1)
   14f9c:	330f00ff 	andi	t7,t8,0xff
   14fa0:	01e33821 	addu	a3,t7,v1
   14fa4:	310200ff 	andi	v0,t0,0xff
   14fa8:	00e27021 	addu	t6,a3,v0
   14fac:	25d0000a 	addiu	s0,t6,10
   14fb0:	3210ffff 	andi	s0,s0,0xffff
   14fb4:	0e0001b4 	jal	0x80006d0
   14fb8:	02002021 	move	a0,s0
   14fbc:	8f860048 	lw	a2,72(gp)
   14fc0:	3c194100 	lui	t9,0x4100
   14fc4:	3c078000 	lui	a3,0x8000
   14fc8:	24cd0001 	addiu	t5,a2,1
   14fcc:	af8d0048 	sw	t5,72(gp)
   14fd0:	936c0009 	lbu	t4,9(k1)
   14fd4:	97640012 	lhu	a0,18(k1)
   14fd8:	30c600ff 	andi	a2,a2,0xff
   14fdc:	318a00ff 	andi	t2,t4,0xff
   14fe0:	308bffff 	andi	t3,a0,0xffff
   14fe4:	014b4821 	addu	t1,t2,t3
   14fe8:	00062c00 	sll	a1,a2,0x10
   14fec:	253f0002 	addiu	ra,t1,2
   14ff0:	00bfc025 	or	t8,a1,ra
   14ff4:	03197825 	or	t7,t8,t9
   14ff8:	ac4f0000 	sw	t7,0(v0)
   14ffc:	8f68000c 	lw	t0,12(k1)
   15000:	94ee0e14 	lhu	t6,3604(a3)
   15004:	01121825 	or	v1,t0,s2
   15008:	ac430004 	sw	v1,4(v0)
   1500c:	8ce50e1c 	lw	a1,3612(a3)
   15010:	8f670004 	lw	a3,4(k1)
   15014:	936d0002 	lbu	t5,2(k1)
   15018:	31c4ffff 	andi	a0,t6,0xffff
   1501c:	31ac00ff 	andi	t4,t5,0xff
   15020:	afac0010 	sw	t4,16(sp)
   15024:	8f620014 	lw	v0,20(k1)
   15028:	afb10018 	sw	s1,24(sp)
   1502c:	0e00019a 	jal	0x8000668
   15030:	afa20014 	sw	v0,20(sp)
   15034:	0a0002c5 	j	0x8000b14
   15038:	02002021 	move	a0,s0
   1503c:	af600004 	sw	zero,4(k1)
   15040:	a3600002 	sb	zero,2(k1)
   15044:	978d0040 	lhu	t5,64(gp)
   15048:	31ac2000 	andi	t4,t5,0x2000
   1504c:	1580feab 	bnez	t4,0x14afc
   15050:	00003021 	move	a2,zero
   15054:	a7600012 	sh	zero,18(k1)
   15058:	97900040 	lhu	s0,64(gp)
   1505c:	9378000a 	lbu	t8,10(k1)
   15060:	3c038000 	lui	v1,0x8000
   15064:	32191f00 	andi	t9,s0,0x1f00
   15068:	00197983 	sra	t7,t9,0x6
   1506c:	01f84021 	addu	t0,t7,t8
   15070:	25070028 	addiu	a3,t0,40
   15074:	a3670009 	sb	a3,9(k1)
   15078:	946e0e0c 	lhu	t6,3596(v1)
   1507c:	0a00025e 	j	0x8000978
   15080:	a76e0010 	sh	t6,16(k1)
   15084:	8f6e0014 	lw	t6,20(k1)
   15088:	35cd0040 	ori	t5,t6,0x40
   1508c:	0e000159 	jal	0x8000564
   15090:	af6d0014 	sw	t5,20(k1)
   15094:	0a000291 	j	0x8000a44
   15098:	00000000 	nop
   1509c:	0a000316 	j	0x8000c58
   150a0:	00002021 	move	a0,zero
   150a4:	0641ff01 	bgez	s2,0x14cac
   150a8:	aca0000c 	sw	zero,12(a1)
   150ac:	8cb8000c 	lw	t8,12(a1)
   150b0:	3c198000 	lui	t9,0x8000
   150b4:	03199025 	or	s2,t8,t9
   150b8:	0a0002b2 	j	0x8000ac8
   150bc:	acb2000c 	sw	s2,12(a1)
   150c0:	00009021 	move	s2,zero
   150c4:	0a00028d 	j	0x8000a34
   150c8:	24130001 	li	s3,1
   150cc:	12800005 	beqz	s4,0x150e4
   150d0:	3c0d8000 	lui	t5,0x8000
   150d4:	95a60e08 	lhu	a2,3592(t5)
   150d8:	30d30040 	andi	s3,a2,0x40
   150dc:	12600042 	beqz	s3,0x151e8
   150e0:	00000000 	nop
   150e4:	8c900178 	lw	s0,376(a0)
   150e8:	0600fffe 	bltz	s0,0x150e4
   150ec:	00000000 	nop
   150f0:	94920e10 	lhu	s2,3600(a0)
   150f4:	3c030500 	lui	v1,0x500
   150f8:	24072000 	li	a3,8192
   150fc:	3258ffff 	andi	t8,s2,0xffff
   15100:	03037825 	or	t7,t8,v1
   15104:	ac8f014c 	sw	t7,332(a0)
   15108:	8c880e14 	lw	t0,3604(a0)
   1510c:	3c0e1000 	lui	t6,0x1000
   15110:	ac880144 	sw	t0,324(a0)
   15114:	8c820e1c 	lw	v0,3612(a0)
   15118:	ac820148 	sw	v0,328(a0)
   1511c:	a0800152 	sb	zero,338(a0)
   15120:	a480015a 	sh	zero,346(a0)
   15124:	ac800160 	sw	zero,352(a0)
   15128:	a4800158 	sh	zero,344(a0)
   1512c:	ac870154 	sw	a3,340(a0)
   15130:	ac8e0178 	sw	t6,376(a0)
   15134:	0a0002ee 	j	0x8000bb8
   15138:	3c048000 	lui	a0,0x8000
   1513c:	8f900000 	lw	s0,0(gp)
   15140:	26920002 	addiu	s2,s4,2
   15144:	a5120158 	sh	s2,344(t0)
   15148:	260f0008 	addiu	t7,s0,8
   1514c:	31e81fff 	andi	t0,t7,0x1fff
   15150:	0a000356 	j	0x8000d58
   15154:	af880000 	sw	t0,0(gp)
   15158:	ac80014c 	sw	zero,332(a0)
   1515c:	12800019 	beqz	s4,0x151c4
   15160:	00000000 	nop
   15164:	8c8a0e10 	lw	t2,3600(a0)
   15168:	ac8a0144 	sw	t2,324(a0)
   1516c:	8c830e18 	lw	v1,3608(a0)
   15170:	3c0c8000 	lui	t4,0x8000
   15174:	24160040 	li	s6,64
   15178:	ac830148 	sw	v1,328(a0)
   1517c:	8fbf0048 	lw	ra,72(sp)
   15180:	a1800152 	sb	zero,338(t4)
   15184:	8fb70044 	lw	s7,68(sp)
   15188:	a580015a 	sh	zero,346(t4)
   1518c:	8fb5003c 	lw	s5,60(sp)
   15190:	ad800160 	sw	zero,352(t4)
   15194:	8fb40038 	lw	s4,56(sp)
   15198:	a5800158 	sh	zero,344(t4)
   1519c:	8fb30034 	lw	s3,52(sp)
   151a0:	ad960154 	sw	s6,340(t4)
   151a4:	8fb20030 	lw	s2,48(sp)
   151a8:	8fb60040 	lw	s6,64(sp)
   151ac:	8fb1002c 	lw	s1,44(sp)
   151b0:	8fb00028 	lw	s0,40(sp)
   151b4:	3c041000 	lui	a0,0x1000
   151b8:	27bd0050 	addiu	sp,sp,80
   151bc:	03e00008 	jr	ra
   151c0:	ad840178 	sw	a0,376(t4)
   151c4:	8c8b0e14 	lw	t3,3604(a0)
   151c8:	ac8b0144 	sw	t3,324(a0)
   151cc:	8c830e1c 	lw	v1,3612(a0)
   151d0:	0a0003e4 	j	0x8000f90
   151d4:	3c0c8000 	lui	t4,0x8000
   151d8:	0e000160 	jal	0x8000580
   151dc:	2e910001 	sltiu	s1,s4,1
   151e0:	0a0002e8 	j	0x8000ba0
   151e4:	0237b025 	or	s6,s1,s7
   151e8:	00000000 	nop
   151ec:	0000000d 	break
   151f0:	00000000 	nop
   151f4:	2400033a 	li	zero,826
   151f8:	0a0003c0 	j	0x8000f00
   151fc:	3c048000 	lui	a0,0x8000
   15200:	27bdffe0 	addiu	sp,sp,-32
   15204:	afbf001c 	sw	ra,28(sp)
   15208:	3c1f20ff 	lui	ra,0x20ff
   1520c:	3c076000 	lui	a3,0x6000
   15210:	3c098000 	lui	t1,0x8000
   15214:	24020010 	li	v0,16
   15218:	37f9fffd 	ori	t9,ra,0xfffd
   1521c:	ace23008 	sw	v0,12296(a3)
   15220:	afb20018 	sw	s2,24(sp)
   15224:	afb10014 	sw	s1,20(sp)
   15228:	afb00010 	sw	s0,16(sp)
   1522c:	ad390e00 	sw	t9,3584(t1)
	...
   15244:	3c1800ff 	lui	t8,0xff
   15248:	3712fffd 	ori	s2,t8,0xfffd
   1524c:	ad320e00 	sw	s2,3584(t1)
   15250:	3c0b6004 	lui	t3,0x6004
   15254:	8d705000 	lw	s0,20480(t3)
   15258:	2411ff7f 	li	s1,-129
   1525c:	3c0e0002 	lui	t6,0x2
   15260:	02117824 	and	t7,s0,s1
   15264:	35ec380c 	ori	t4,t7,0x380c
   15268:	35cd0109 	ori	t5,t6,0x109
   1526c:	aced4c18 	sw	t5,19480(a3)
   15270:	240a0009 	li	t2,9
   15274:	ad6c5000 	sw	t4,20480(t3)
   15278:	8ce80438 	lw	t0,1080(a3)
   1527c:	ad2a0008 	sw	t2,8(t1)
   15280:	ad200014 	sw	zero,20(t1)
   15284:	8ce54c1c 	lw	a1,19484(a3)
   15288:	3106ffff 	andi	a2,t0,0xffff
   1528c:	38c42f71 	xori	a0,a2,0x2f71
   15290:	00051e02 	srl	v1,a1,0x18
   15294:	3062000f 	andi	v0,v1,0xf
   15298:	2486c0b3 	addiu	a2,a0,-16205
   1529c:	10400007 	beqz	v0,0x152bc
   152a0:	af820008 	sw	v0,8(gp)
   152a4:	8ce54c1c 	lw	a1,19484(a3)
   152a8:	3c09001f 	lui	t1,0x1f
   152ac:	3528fc00 	ori	t0,t1,0xfc00
   152b0:	00a81824 	and	v1,a1,t0
   152b4:	000321c2 	srl	a0,v1,0x7
   152b8:	af840004 	sw	a0,4(gp)
   152bc:	8cf10808 	lw	s1,2056(a3)
   152c0:	3c0f5709 	lui	t7,0x5709
   152c4:	2412f000 	li	s2,-4096
   152c8:	02327024 	and	t6,s1,s2
   152cc:	35f00010 	ori	s0,t7,0x10
   152d0:	01d06026 	xor	t4,t6,s0
   152d4:	01cf6826 	xor	t5,t6,t7
   152d8:	2daa0001 	sltiu	t2,t5,1
   152dc:	2d8b0001 	sltiu	t3,t4,1
   152e0:	014b3825 	or	a3,t2,t3
   152e4:	50e00009 	beqzl	a3,0x1530c
   152e8:	a380000c 	sb	zero,12(gp)
   152ec:	3c02601c 	lui	v0,0x601c
   152f0:	8c590008 	lw	t9,8(v0)
   152f4:	241f0001 	li	ra,1
   152f8:	a39f000c 	sb	ra,12(gp)
   152fc:	33387c00 	andi	t8,t9,0x7c00
   15300:	a7980010 	sh	t8,16(gp)
   15304:	a780000e 	sh	zero,14(gp)
   15308:	a380000d 	sb	zero,13(gp)
   1530c:	af800048 	sw	zero,72(gp)
   15310:	14c00003 	bnez	a2,0x15320
   15314:	af800000 	sw	zero,0(gp)
   15318:	3c066000 	lui	a2,0x6000
   1531c:	acc0442c 	sw	zero,17452(a2)
   15320:	0e0004b6 	jal	0x80012d8
   15324:	3c108000 	lui	s0,0x8000
   15328:	0e000e0e 	jal	0x8003838
   1532c:	00000000 	nop
   15330:	3c110800 	lui	s1,0x800
   15334:	26313988 	addiu	s1,s1,14728
   15338:	3c120800 	lui	s2,0x800
   1533c:	26523a08 	addiu	s2,s2,14856
   15340:	8e050000 	lw	a1,0(s0)
   15344:	38a30001 	xori	v1,a1,0x1
   15348:	30640001 	andi	a0,v1,0x1
   1534c:	1480fffc 	bnez	a0,0x15340
   15350:	00000000 	nop
   15354:	8e060100 	lw	a2,256(s0)
   15358:	3c0c800a 	lui	t4,0x800a
   1535c:	240aff80 	li	t2,-128
   15360:	24c70240 	addiu	a3,a2,576
   15364:	30eb007f 	andi	t3,a3,0x7f
   15368:	016c4821 	addu	t1,t3,t4
   1536c:	00ea4024 	and	t0,a3,t2
   15370:	ae060020 	sw	a2,32(s0)
   15374:	af890044 	sw	t1,68(gp)
   15378:	ae080024 	sw	t0,36(s0)
   1537c:	3c038000 	lui	v1,0x8000
   15380:	af86003c 	sw	a2,60(gp)
   15384:	8c6d0178 	lw	t5,376(v1)
   15388:	05a0fffe 	bltz	t5,0x15384
   1538c:	24190800 	li	t9,2048
   15390:	ac790178 	sw	t9,376(v1)
   15394:	90780108 	lbu	t8,264(v1)
   15398:	a3980042 	sb	t8,66(gp)
   1539c:	938f0042 	lbu	t7,66(gp)
   153a0:	31ee0001 	andi	t6,t7,0x1
   153a4:	11c0000f 	beqz	t6,0x153e4
   153a8:	240d0d00 	li	t5,3328
   153ac:	24c2f800 	addiu	v0,a2,-2048
   153b0:	2c5f0301 	sltiu	ra,v0,769
   153b4:	13e0001c 	beqz	ra,0x15428
   153b8:	000629c2 	srl	a1,a2,0x7
   153bc:	24a3fff0 	addiu	v1,a1,-16
   153c0:	00032042 	srl	a0,v1,0x1
   153c4:	00043140 	sll	a2,a0,0x5
   153c8:	0e0001cf 	jal	0x800073c
   153cc:	00d1d821 	addu	k1,a2,s1
   153d0:	3c044000 	lui	a0,0x4000
   153d4:	3c068000 	lui	a2,0x8000
   153d8:	acc40138 	sw	a0,312(a2)
   153dc:	0a000457 	j	0x800115c
   153e0:	00000000 	nop
   153e4:	10cd0026 	beq	a2,t5,0x15480
   153e8:	240e0f00 	li	t6,3840
   153ec:	10ce002a 	beq	a2,t6,0x15498
   153f0:	3c028008 	lui	v0,0x8008
   153f4:	345f0080 	ori	ra,v0,0x80
   153f8:	93f90000 	lbu	t9,0(ra)
   153fc:	240f0050 	li	t7,80
   15400:	333800ff 	andi	t8,t9,0xff
   15404:	170ffff3 	bne	t8,t7,0x153d4
   15408:	3c044000 	lui	a0,0x4000
   1540c:	0e00092f 	jal	0x80024bc
   15410:	00000000 	nop
   15414:	3c044000 	lui	a0,0x4000
   15418:	3c068000 	lui	a2,0x8000
   1541c:	acc40138 	sw	a0,312(a2)
   15420:	0a000457 	j	0x800115c
   15424:	00000000 	nop
   15428:	8f830004 	lw	v1,4(gp)
   1542c:	00a3402b 	sltu	t0,a1,v1
   15430:	1500000b 	bnez	t0,0x15460
   15434:	8f8b0008 	lw	t3,8(gp)
   15438:	006b5021 	addu	t2,v1,t3
   1543c:	2547ffff 	addiu	a3,t2,-1
   15440:	00e5482b 	sltu	t1,a3,a1
   15444:	15200006 	bnez	t1,0x15460
   15448:	00a36023 	subu	t4,a1,v1
   1544c:	000c2940 	sll	a1,t4,0x5
   15450:	0e0001cf 	jal	0x800073c
   15454:	00b2d821 	addu	k1,a1,s2
   15458:	0a00047c 	j	0x80011f0
   1545c:	3c044000 	lui	a0,0x4000
   15460:	00000000 	nop
   15464:	0000000d 	break
   15468:	00000000 	nop
   1546c:	240003ad 	li	zero,941
   15470:	0e0001cf 	jal	0x800073c
   15474:	00000000 	nop
   15478:	0a00047c 	j	0x80011f0
   1547c:	3c044000 	lui	a0,0x4000
   15480:	3c1b0800 	lui	k1,0x800
   15484:	277b3b08 	addiu	k1,k1,15112
   15488:	0e0001cf 	jal	0x800073c
   1548c:	00000000 	nop
   15490:	0a00047c 	j	0x80011f0
   15494:	3c044000 	lui	a0,0x4000
   15498:	3c1b0800 	lui	k1,0x800
   1549c:	277b3b28 	addiu	k1,k1,15144
   154a0:	0e0001cf 	jal	0x800073c
   154a4:	00000000 	nop
   154a8:	0a00047c 	j	0x80011f0
   154ac:	3c044000 	lui	a0,0x4000
   154b0:	000411c0 	sll	v0,a0,0x7
   154b4:	03e00008 	jr	ra
   154b8:	24420240 	addiu	v0,v0,576
   154bc:	3c040800 	lui	a0,0x800
   154c0:	24843b6c 	addiu	a0,a0,15212
   154c4:	2405001a 	li	a1,26
   154c8:	0a00006d 	j	0x80001b4
   154cc:	00003021 	move	a2,zero
   154d0:	27bdffe0 	addiu	sp,sp,-32
   154d4:	afbf001c 	sw	ra,28(sp)
   154d8:	afb20018 	sw	s2,24(sp)
   154dc:	afb10014 	sw	s1,20(sp)
   154e0:	afb00010 	sw	s0,16(sp)
   154e4:	3c108000 	lui	s0,0x8000
   154e8:	920b0109 	lbu	t3,265(s0)
   154ec:	2412ff80 	li	s2,-128
   154f0:	0e0004b3 	jal	0x80012cc
   154f4:	3164007f 	andi	a0,t3,0x7f
   154f8:	8f91003c 	lw	s1,60(gp)
   154fc:	00515021 	addu	t2,v0,s1
   15500:	01524024 	and	t0,t2,s2
   15504:	ae080024 	sw	t0,36(s0)
   15508:	92030109 	lbu	v1,265(s0)
   1550c:	0e0004b3 	jal	0x80012cc
   15510:	3064007f 	andi	a0,v1,0x7f
   15514:	24060080 	li	a2,128
   15518:	240700c0 	li	a3,192
   1551c:	24040040 	li	a0,64
   15520:	ae000810 	sw	zero,2064(s0)
   15524:	ae040814 	sw	a0,2068(s0)
   15528:	ae060818 	sw	a2,2072(s0)
   1552c:	ae07081c 	sw	a3,2076(s0)
   15530:	920c0109 	lbu	t4,265(s0)
   15534:	0051f821 	addu	ra,v0,s1
   15538:	33f8007f 	andi	t8,ra,0x7f
   1553c:	3c19800a 	lui	t9,0x800a
   15540:	03191021 	addu	v0,t8,t9
   15544:	3184007f 	andi	a0,t4,0x7f
   15548:	0e0004b3 	jal	0x80012cc
   1554c:	af820044 	sw	v0,68(gp)
   15550:	8e110100 	lw	s1,256(s0)
   15554:	3c0c0080 	lui	t4,0x80
   15558:	35850001 	ori	a1,t4,0x1
   1555c:	02227821 	addu	t7,s1,v0
   15560:	01f24824 	and	t1,t7,s2
   15564:	ae090804 	sw	t1,2052(s0)
   15568:	8e0e0100 	lw	t6,256(s0)
   1556c:	35980002 	ori	t8,t4,0x2
   15570:	36090900 	ori	t1,s0,0x900
   15574:	01c26821 	addu	t5,t6,v0
   15578:	31ab0078 	andi	t3,t5,0x78
   1557c:	01655025 	or	t2,t3,a1
   15580:	ae0a0820 	sw	t2,2080(s0)
   15584:	8e050100 	lw	a1,256(s0)
   15588:	8e080100 	lw	t0,256(s0)
   1558c:	36050980 	ori	a1,s0,0x980
   15590:	01021821 	addu	v1,t0,v0
   15594:	24640040 	addiu	a0,v1,64
   15598:	00923024 	and	a2,a0,s2
   1559c:	ae060808 	sw	a2,2056(s0)
   155a0:	8e070100 	lw	a3,256(s0)
   155a4:	00e2f821 	addu	ra,a3,v0
   155a8:	27f90040 	addiu	t9,ra,64
   155ac:	33320078 	andi	s2,t9,0x78
   155b0:	02588825 	or	s1,s2,t8
   155b4:	ae110824 	sw	s1,2084(s0)
   155b8:	8e040100 	lw	a0,256(s0)
   155bc:	952f000c 	lhu	t7,12(t1)
   155c0:	8fbf001c 	lw	ra,28(sp)
   155c4:	8fb20018 	lw	s2,24(sp)
   155c8:	31eeffff 	andi	t6,t7,0xffff
   155cc:	000e69c0 	sll	t5,t6,0x7
   155d0:	ae0d0800 	sw	t5,2048(s0)
   155d4:	ae0c0828 	sw	t4,2088(s0)
   155d8:	952b000c 	lhu	t3,12(t1)
   155dc:	8fb10014 	lw	s1,20(sp)
   155e0:	316affff 	andi	t2,t3,0xffff
   155e4:	000a41c0 	sll	t0,t2,0x7
   155e8:	ae08002c 	sw	t0,44(s0)
   155ec:	8ca30050 	lw	v1,80(a1)
   155f0:	8fb00010 	lw	s0,16(sp)
   155f4:	8ca2003c 	lw	v0,60(a1)
   155f8:	8d240004 	lw	a0,4(t1)
   155fc:	8ca6001c 	lw	a2,28(a1)
   15600:	8ca70038 	lw	a3,56(a1)
   15604:	27bd0020 	addiu	sp,sp,32
   15608:	af830060 	sw	v1,96(gp)
   1560c:	af820050 	sw	v0,80(gp)
   15610:	af84004c 	sw	a0,76(gp)
   15614:	af860058 	sw	a2,88(gp)
   15618:	03e00008 	jr	ra
   1561c:	af87005c 	sw	a3,92(gp)
   15620:	3c098000 	lui	t1,0x8000
   15624:	35230900 	ori	v1,t1,0x900
   15628:	9128010b 	lbu	t0,267(t1)
   1562c:	906a0011 	lbu	t2,17(v1)
   15630:	24020028 	li	v0,40
   15634:	00804821 	move	t1,a0
   15638:	314700ff 	andi	a3,t2,0xff
   1563c:	00a07021 	move	t6,a1
   15640:	00c06821 	move	t5,a2
   15644:	31080040 	andi	t0,t0,0x40
   15648:	10e20002 	beq	a3,v0,0x15654
   1564c:	340c86dd 	li	t4,0x86dd
   15650:	240c0800 	li	t4,2048
   15654:	3c0a8000 	lui	t2,0x8000
   15658:	35420a9a 	ori	v0,t2,0xa9a
   1565c:	94470000 	lhu	a3,0(v0)
   15660:	354b0a9c 	ori	t3,t2,0xa9c
   15664:	35460aa0 	ori	a2,t2,0xaa0
   15668:	30f9ffff 	andi	t9,a3,0xffff
   1566c:	ad390000 	sw	t9,0(t1)
   15670:	8d780000 	lw	t8,0(t3)
   15674:	354b0a80 	ori	t3,t2,0xa80
   15678:	24040001 	li	a0,1
   1567c:	ad380004 	sw	t8,4(t1)
   15680:	8ccf0000 	lw	t7,0(a2)
   15684:	ad2f0008 	sw	t7,8(t1)
   15688:	91650019 	lbu	a1,25(t3)
   1568c:	30a30003 	andi	v1,a1,0x3
   15690:	1064008e 	beq	v1,a0,0x158cc
   15694:	28640002 	slti	a0,v1,2
   15698:	148000ad 	bnez	a0,0x15950
   1569c:	24050002 	li	a1,2
   156a0:	1065009c 	beq	v1,a1,0x15914
   156a4:	240f0003 	li	t7,3
   156a8:	106f00b2 	beq	v1,t7,0x15974
   156ac:	35450aa4 	ori	a1,t2,0xaa4
   156b0:	240a0800 	li	t2,2048
   156b4:	118a0047 	beq	t4,t2,0x157d4
   156b8:	00000000 	nop
   156bc:	5100003c 	beqzl	t0,0x157b0
   156c0:	3c0b8000 	lui	t3,0x8000
   156c4:	3c048000 	lui	a0,0x8000
   156c8:	34830900 	ori	v1,a0,0x900
   156cc:	90670012 	lbu	a3,18(v1)
   156d0:	30e200ff 	andi	v0,a3,0xff
   156d4:	004d7821 	addu	t7,v0,t5
   156d8:	000fc880 	sll	t9,t7,0x2
   156dc:	27240001 	addiu	a0,t9,1
   156e0:	3c0a8000 	lui	t2,0x8000
   156e4:	354f0900 	ori	t7,t2,0x900
   156e8:	91e50019 	lbu	a1,25(t7)
   156ec:	354c0980 	ori	t4,t2,0x980
   156f0:	8d870028 	lw	a3,40(t4)
   156f4:	30a300ff 	andi	v1,a1,0xff
   156f8:	00031500 	sll	v0,v1,0x14
   156fc:	00475825 	or	t3,v0,a3
   15700:	0004c400 	sll	t8,a0,0x10
   15704:	3c196000 	lui	t9,0x6000
   15708:	01793025 	or	a2,t3,t9
   1570c:	370806ff 	ori	t0,t8,0x6ff
   15710:	ad260000 	sw	a2,0(t1)
   15714:	ad280004 	sw	t0,4(t1)
   15718:	8dea002c 	lw	t2,44(t7)
   1571c:	25280028 	addiu	t0,t1,40
   15720:	ad2a0008 	sw	t2,8(t1)
   15724:	8dec0030 	lw	t4,48(t7)
   15728:	ad2c000c 	sw	t4,12(t1)
   1572c:	8de50034 	lw	a1,52(t7)
   15730:	ad250010 	sw	a1,16(t1)
   15734:	8de40038 	lw	a0,56(t7)
   15738:	ad240014 	sw	a0,20(t1)
   1573c:	8de3001c 	lw	v1,28(t7)
   15740:	ad230018 	sw	v1,24(t1)
   15744:	8de70020 	lw	a3,32(t7)
   15748:	3c038000 	lui	v1,0x8000
   1574c:	ad27001c 	sw	a3,28(t1)
   15750:	8de20024 	lw	v0,36(t7)
   15754:	ad220020 	sw	v0,32(t1)
   15758:	8df90028 	lw	t9,40(t7)
   1575c:	3462093c 	ori	v0,v1,0x93c
   15760:	ad390024 	sw	t9,36(t1)
   15764:	8c450000 	lw	a1,0(v0)
   15768:	ad0e0004 	sw	t6,4(t0)
   1576c:	34790900 	ori	t9,v1,0x900
   15770:	ad050000 	sw	a1,0(t0)
   15774:	8c67010c 	lw	a3,268(v1)
   15778:	25020014 	addiu	v0,t0,20
   1577c:	ad070008 	sw	a3,8(t0)
   15780:	932b0012 	lbu	t3,18(t9)
   15784:	3c040800 	lui	a0,0x800
   15788:	90843b90 	lbu	a0,15248(a0)
   1578c:	ad000010 	sw	zero,16(t0)
   15790:	317800ff 	andi	t8,t3,0xff
   15794:	030d3021 	addu	a2,t8,t5
   15798:	00064f00 	sll	t1,a2,0x1c
   1579c:	00047c00 	sll	t7,a0,0x10
   157a0:	012f7025 	or	t6,t1,t7
   157a4:	35cdffff 	ori	t5,t6,0xffff
   157a8:	03e00008 	jr	ra
   157ac:	ad0d000c 	sw	t5,12(t0)
   157b0:	35780900 	ori	t8,t3,0x900
   157b4:	93060012 	lbu	a2,18(t8)
   157b8:	3c050800 	lui	a1,0x800
   157bc:	94a53b80 	lhu	a1,15232(a1)
   157c0:	30c800ff 	andi	t0,a2,0xff
   157c4:	010d5021 	addu	t2,t0,t5
   157c8:	000a6080 	sll	t4,t2,0x2
   157cc:	0a00053f 	j	0x80014fc
   157d0:	01852021 	addu	a0,t4,a1
   157d4:	1500005a 	bnez	t0,0x15940
   157d8:	00000000 	nop
   157dc:	3c080800 	lui	t0,0x800
   157e0:	95083b86 	lhu	t0,15238(t0)
   157e4:	3c060800 	lui	a2,0x800
   157e8:	94c63b80 	lhu	a2,15232(a2)
   157ec:	01061021 	addu	v0,t0,a2
   157f0:	3c0b8000 	lui	t3,0x8000
   157f4:	35790900 	ori	t9,t3,0x900
   157f8:	93380011 	lbu	t8,17(t9)
   157fc:	932a0019 	lbu	t2,25(t9)
   15800:	35660a80 	ori	a2,t3,0xa80
   15804:	330800ff 	andi	t0,t8,0xff
   15808:	94cf002a 	lhu	t7,42(a2)
   1580c:	00086082 	srl	t4,t0,0x2
   15810:	314500ff 	andi	a1,t2,0xff
   15814:	978a0054 	lhu	t2,84(gp)
   15818:	000c1e00 	sll	v1,t4,0x18
   1581c:	00052400 	sll	a0,a1,0x10
   15820:	3047ffff 	andi	a3,v0,0xffff
   15824:	00641025 	or	v0,v1,a0
   15828:	0047c025 	or	t8,v0,a3
   1582c:	01ea3021 	addu	a2,t7,t2
   15830:	3c0b4000 	lui	t3,0x4000
   15834:	030b4025 	or	t0,t8,t3
   15838:	00066400 	sll	t4,a2,0x10
   1583c:	ad280000 	sw	t0,0(t1)
   15840:	ad2c0004 	sw	t4,4(t1)
   15844:	93250018 	lbu	a1,24(t9)
   15848:	3c030006 	lui	v1,0x6
   1584c:	25280014 	addiu	t0,t1,20
   15850:	00053e00 	sll	a3,a1,0x18
   15854:	00e31025 	or	v0,a3,v1
   15858:	ad220008 	sw	v0,8(t1)
   1585c:	8f24002c 	lw	a0,44(t9)
   15860:	3c038000 	lui	v1,0x8000
   15864:	3462093c 	ori	v0,v1,0x93c
   15868:	ad24000c 	sw	a0,12(t1)
   1586c:	8f38001c 	lw	t8,28(t9)
   15870:	254f0001 	addiu	t7,t2,1
   15874:	31eb7fff 	andi	t3,t7,0x7fff
   15878:	ad380010 	sw	t8,16(t1)
   1587c:	8c450000 	lw	a1,0(v0)
   15880:	ad0e0004 	sw	t6,4(t0)
   15884:	34790900 	ori	t9,v1,0x900
   15888:	ad050000 	sw	a1,0(t0)
   1588c:	8c67010c 	lw	a3,268(v1)
   15890:	a78b0054 	sh	t3,84(gp)
   15894:	25020014 	addiu	v0,t0,20
   15898:	ad070008 	sw	a3,8(t0)
   1589c:	932b0012 	lbu	t3,18(t9)
   158a0:	3c040800 	lui	a0,0x800
   158a4:	90843b90 	lbu	a0,15248(a0)
   158a8:	ad000010 	sw	zero,16(t0)
   158ac:	317800ff 	andi	t8,t3,0xff
   158b0:	030d3021 	addu	a2,t8,t5
   158b4:	00064f00 	sll	t1,a2,0x1c
   158b8:	00047c00 	sll	t7,a0,0x10
   158bc:	012f7025 	or	t6,t1,t7
   158c0:	35cdffff 	ori	t5,t6,0xffff
   158c4:	03e00008 	jr	ra
   158c8:	ad0d000c 	sw	t5,12(t0)
   158cc:	3c020800 	lui	v0,0x800
   158d0:	94423b8a 	lhu	v0,15242(v0)
   158d4:	3c050800 	lui	a1,0x800
   158d8:	94a53b80 	lhu	a1,15232(a1)
   158dc:	35440aa4 	ori	a0,t2,0xaa4
   158e0:	3c070800 	lui	a3,0x800
   158e4:	94e73b7c 	lhu	a3,15228(a3)
   158e8:	948b0000 	lhu	t3,0(a0)
   158ec:	0045c821 	addu	t9,v0,a1
   158f0:	0327c023 	subu	t8,t9,a3
   158f4:	000b1c00 	sll	v1,t3,0x10
   158f8:	2706fff2 	addiu	a2,t8,-14
   158fc:	00665025 	or	t2,v1,a2
   15900:	ad2a000c 	sw	t2,12(t1)
   15904:	ad200010 	sw	zero,16(t1)
   15908:	ad2c0014 	sw	t4,20(t1)
   1590c:	0a000533 	j	0x80014cc
   15910:	25290018 	addiu	t1,t1,24
   15914:	354f0aa4 	ori	t7,t2,0xaa4
   15918:	95e50000 	lhu	a1,0(t7)
   1591c:	95640028 	lhu	a0,40(t3)
   15920:	00051400 	sll	v0,a1,0x10
   15924:	00043c00 	sll	a3,a0,0x10
   15928:	34598100 	ori	t9,v0,0x8100
   1592c:	00ec5825 	or	t3,a3,t4
   15930:	ad39000c 	sw	t9,12(t1)
   15934:	ad2b0010 	sw	t3,16(t1)
   15938:	0a000533 	j	0x80014cc
   1593c:	25290014 	addiu	t1,t1,20
   15940:	3c0c0800 	lui	t4,0x800
   15944:	958c3b86 	lhu	t4,15238(t4)
   15948:	0a000583 	j	0x800160c
   1594c:	25820001 	addiu	v0,t4,1
   15950:	5460ff58 	bnezl	v1,0x156b4
   15954:	240a0800 	li	t2,2048
   15958:	35580aa4 	ori	t8,t2,0xaa4
   1595c:	97060000 	lhu	a2,0(t8)
   15960:	00061c00 	sll	v1,a2,0x10
   15964:	006c5025 	or	t2,v1,t4
   15968:	ad2a000c 	sw	t2,12(t1)
   1596c:	0a000533 	j	0x80014cc
   15970:	25290010 	addiu	t1,t1,16
   15974:	3c030800 	lui	v1,0x800
   15978:	94633b8a 	lhu	v1,15242(v1)
   1597c:	3c070800 	lui	a3,0x800
   15980:	94e73b80 	lhu	a3,15232(a3)
   15984:	3c0f0800 	lui	t7,0x800
   15988:	95ef3b7c 	lhu	t7,15228(t7)
   1598c:	94a40000 	lhu	a0,0(a1)
   15990:	95790028 	lhu	t9,40(t3)
   15994:	00671021 	addu	v0,v1,a3
   15998:	004f5823 	subu	t3,v0,t7
   1599c:	00041c00 	sll	v1,a0,0x10
   159a0:	00193400 	sll	a2,t9,0x10
   159a4:	2578ffee 	addiu	t8,t3,-18
   159a8:	00d87825 	or	t7,a2,t8
   159ac:	346a8100 	ori	t2,v1,0x8100
   159b0:	ad2a000c 	sw	t2,12(t1)
   159b4:	ad2f0010 	sw	t7,16(t1)
   159b8:	ad200014 	sw	zero,20(t1)
   159bc:	ad2c0018 	sw	t4,24(t1)
   159c0:	0a000533 	j	0x80014cc
   159c4:	2529001c 	addiu	t1,t1,28
   159c8:	03e00008 	jr	ra
   159cc:	240207d0 	li	v0,2000
   159d0:	27bdffe0 	addiu	sp,sp,-32
   159d4:	afb20018 	sw	s2,24(sp)
   159d8:	afb10014 	sw	s1,20(sp)
   159dc:	afb00010 	sw	s0,16(sp)
   159e0:	afbf001c 	sw	ra,28(sp)
   159e4:	0e00004d 	jal	0x8000134
   159e8:	00808821 	move	s1,a0
   159ec:	8f880050 	lw	t0,80(gp)
   159f0:	8f87004c 	lw	a3,76(gp)
   159f4:	3c058008 	lui	a1,0x8008
   159f8:	34b20080 	ori	s2,a1,0x80
   159fc:	01112821 	addu	a1,t0,s1
   15a00:	3c108000 	lui	s0,0x8000
   15a04:	24020080 	li	v0,128
   15a08:	240300c0 	li	v1,192
   15a0c:	00a72023 	subu	a0,a1,a3
   15a10:	ae020818 	sw	v0,2072(s0)
   15a14:	3c068008 	lui	a2,0x8008
   15a18:	ae03081c 	sw	v1,2076(s0)
   15a1c:	18800004 	blez	a0,0x15a30
   15a20:	af850050 	sw	a1,80(gp)
   15a24:	acc50004 	sw	a1,4(a2)
   15a28:	8cc90004 	lw	t1,4(a2)
   15a2c:	af89004c 	sw	t1,76(gp)
   15a30:	12200009 	beqz	s1,0x15a58
   15a34:	36040980 	ori	a0,s0,0x980
   15a38:	0e0005f9 	jal	0x80017e4
   15a3c:	00000000 	nop
   15a40:	924c0027 	lbu	t4,39(s2)
   15a44:	8e0b0074 	lw	t3,116(s0)
   15a48:	01825004 	sllv	t2,v0,t4
   15a4c:	014b3021 	addu	a2,t2,t3
   15a50:	ae46000c 	sw	a2,12(s2)
   15a54:	36040980 	ori	a0,s0,0x980
   15a58:	8c8e001c 	lw	t6,28(a0)
   15a5c:	8f8f0058 	lw	t7,88(gp)
   15a60:	01cf6823 	subu	t5,t6,t7
   15a64:	19a00004 	blez	t5,0x15a78
   15a68:	8fbf001c 	lw	ra,28(sp)
   15a6c:	8c90001c 	lw	s0,28(a0)
   15a70:	af900058 	sw	s0,88(gp)
   15a74:	8fbf001c 	lw	ra,28(sp)
   15a78:	8fb20018 	lw	s2,24(sp)
   15a7c:	8fb10014 	lw	s1,20(sp)
   15a80:	8fb00010 	lw	s0,16(sp)
   15a84:	0a00004f 	j	0x800013c
   15a88:	27bd0020 	addiu	sp,sp,32
   15a8c:	8f860060 	lw	a2,96(gp)
   15a90:	8f830050 	lw	v1,80(gp)
   15a94:	8f82004c 	lw	v0,76(gp)
   15a98:	3c058008 	lui	a1,0x8008
   15a9c:	34a40080 	ori	a0,a1,0x80
   15aa0:	ac860050 	sw	a2,80(a0)
   15aa4:	ac83003c 	sw	v1,60(a0)
   15aa8:	03e00008 	jr	ra
   15aac:	aca20004 	sw	v0,4(a1)
   15ab0:	3c030800 	lui	v1,0x800
   15ab4:	8c630054 	lw	v1,84(v1)
   15ab8:	27bdfff8 	addiu	sp,sp,-8
   15abc:	308400ff 	andi	a0,a0,0xff
   15ac0:	24620001 	addiu	v0,v1,1
   15ac4:	30a500ff 	andi	a1,a1,0xff
   15ac8:	3c010800 	lui	at,0x800
   15acc:	ac220054 	sw	v0,84(at)
   15ad0:	30c600ff 	andi	a2,a2,0xff
   15ad4:	3c078000 	lui	a3,0x8000
   15ad8:	8ce80178 	lw	t0,376(a3)
   15adc:	0500fffe 	bltz	t0,0x15ad8
   15ae0:	3c0a7fff 	lui	t2,0x7fff
   15ae4:	a3a40003 	sb	a0,3(sp)
   15ae8:	8fa40000 	lw	a0,0(sp)
   15aec:	3549ffff 	ori	t1,t2,0xffff
   15af0:	00891824 	and	v1,a0,t1
   15af4:	000647c0 	sll	t0,a2,0x1f
   15af8:	00681025 	or	v0,v1,t0
   15afc:	afa20000 	sw	v0,0(sp)
   15b00:	90f9010a 	lbu	t9,266(a3)
   15b04:	a3a00002 	sb	zero,2(sp)
   15b08:	3c1880ff 	lui	t8,0x80ff
   15b0c:	a3b90001 	sb	t9,1(sp)
   15b10:	8fae0000 	lw	t6,0(sp)
   15b14:	30ad007f 	andi	t5,a1,0x7f
   15b18:	370fffff 	ori	t7,t8,0xffff
   15b1c:	01cf5824 	and	t3,t6,t7
   15b20:	000d6600 	sll	t4,t5,0x18
   15b24:	3c090020 	lui	t1,0x20
   15b28:	016c5025 	or	t2,t3,t4
   15b2c:	35262000 	ori	a2,t1,0x2000
   15b30:	2405ff80 	li	a1,-128
   15b34:	3c041000 	lui	a0,0x1000
   15b38:	27bd0008 	addiu	sp,sp,8
   15b3c:	acea014c 	sw	t2,332(a3)
   15b40:	ace60154 	sw	a2,340(a3)
   15b44:	a4e00158 	sh	zero,344(a3)
   15b48:	a0e50152 	sb	a1,338(a3)
   15b4c:	03e00008 	jr	ra
   15b50:	ace40178 	sw	a0,376(a3)
   15b54:	308800ff 	andi	t0,a0,0xff
   15b58:	3c038000 	lui	v1,0x8000
   15b5c:	30a400ff 	andi	a0,a1,0xff
   15b60:	8c620178 	lw	v0,376(v1)
   15b64:	0440fffe 	bltz	v0,0x15b60
   15b68:	00000000 	nop
   15b6c:	3c038000 	lui	v1,0x8000
   15b70:	34660a00 	ori	a2,v1,0xa00
   15b74:	8cca0020 	lw	t2,32(a2)
   15b78:	34670980 	ori	a3,v1,0x980
   15b7c:	0004482b 	sltu	t1,zero,a0
   15b80:	ac6a0144 	sw	t2,324(v1)
   15b84:	8cc50024 	lw	a1,36(a2)
   15b88:	00091540 	sll	v0,t1,0x15
   15b8c:	ac650148 	sw	a1,328(v1)
   15b90:	a0680150 	sb	t0,336(v1)
   15b94:	90e4004c 	lbu	a0,76(a3)
   15b98:	a064016d 	sb	a0,365(v1)
   15b9c:	03e00008 	jr	ra
   15ba0:	a4600158 	sh	zero,344(v1)
   15ba4:	27bdffe8 	addiu	sp,sp,-24
   15ba8:	308400ff 	andi	a0,a0,0xff
   15bac:	afbf0010 	sw	ra,16(sp)
   15bb0:	0e00065c 	jal	0x8001970
   15bb4:	30a500ff 	andi	a1,a1,0xff
   15bb8:	8f830050 	lw	v1,80(gp)
   15bbc:	8fbf0010 	lw	ra,16(sp)
   15bc0:	3c058000 	lui	a1,0x8000
   15bc4:	34460040 	ori	a2,v0,0x40
   15bc8:	2404ff90 	li	a0,-112
   15bcc:	3c021000 	lui	v0,0x1000
   15bd0:	27bd0018 	addiu	sp,sp,24
   15bd4:	aca3014c 	sw	v1,332(a1)
   15bd8:	a0a40152 	sb	a0,338(a1)
   15bdc:	aca60154 	sw	a2,340(a1)
   15be0:	03e00008 	jr	ra
   15be4:	aca20178 	sw	v0,376(a1)
   15be8:	27bdffe0 	addiu	sp,sp,-32
   15bec:	3c088008 	lui	t0,0x8008
   15bf0:	afbf001c 	sw	ra,28(sp)
   15bf4:	afb20018 	sw	s2,24(sp)
   15bf8:	afb10014 	sw	s1,20(sp)
   15bfc:	afb00010 	sw	s0,16(sp)
   15c00:	35100080 	ori	s0,t0,0x80
   15c04:	8e060018 	lw	a2,24(s0)
   15c08:	3c078000 	lui	a3,0x8000
   15c0c:	309200ff 	andi	s2,a0,0xff
   15c10:	00c72025 	or	a0,a2,a3
   15c14:	ae040018 	sw	a0,24(s0)
   15c18:	0e00004d 	jal	0x8000134
   15c1c:	30b100ff 	andi	s1,a1,0xff
   15c20:	92030005 	lbu	v1,5(s0)
   15c24:	34620008 	ori	v0,v1,0x8
   15c28:	0e00004f 	jal	0x800013c
   15c2c:	a2020005 	sb	v0,5(s0)
   15c30:	02402021 	move	a0,s2
   15c34:	0e000670 	jal	0x80019c0
   15c38:	02202821 	move	a1,s1
   15c3c:	02402021 	move	a0,s2
   15c40:	8fbf001c 	lw	ra,28(sp)
   15c44:	8fb20018 	lw	s2,24(sp)
   15c48:	8fb10014 	lw	s1,20(sp)
   15c4c:	8fb00010 	lw	s0,16(sp)
   15c50:	24050005 	li	a1,5
   15c54:	24060001 	li	a2,1
   15c58:	0a000633 	j	0x80018cc
   15c5c:	27bd0020 	addiu	sp,sp,32
   15c60:	3c058000 	lui	a1,0x8000
   15c64:	34a30980 	ori	v1,a1,0x980
   15c68:	90660008 	lbu	a2,8(v1)
   15c6c:	30c20008 	andi	v0,a2,0x8
   15c70:	1040000f 	beqz	v0,0x15cb0
   15c74:	3c0a0101 	lui	t2,0x101
   15c78:	3549080a 	ori	t1,t2,0x80a
   15c7c:	ac890000 	sw	t1,0(a0)
   15c80:	8ca80074 	lw	t0,116(a1)
   15c84:	ac880004 	sw	t0,4(a0)
   15c88:	3c070800 	lui	a3,0x800
   15c8c:	90e73b90 	lbu	a3,15248(a3)
   15c90:	30e50010 	andi	a1,a3,0x10
   15c94:	50a00008 	beqzl	a1,0x15cb8
   15c98:	ac800008 	sw	zero,8(a0)
   15c9c:	3c0d8008 	lui	t5,0x8008
   15ca0:	35ac0080 	ori	t4,t5,0x80
   15ca4:	8d8b0058 	lw	t3,88(t4)
   15ca8:	ac8b0008 	sw	t3,8(a0)
   15cac:	2484000c 	addiu	a0,a0,12
   15cb0:	03e00008 	jr	ra
   15cb4:	00801021 	move	v0,a0
   15cb8:	0a0006b3 	j	0x8001acc
   15cbc:	2484000c 	addiu	a0,a0,12
   15cc0:	27bdffe8 	addiu	sp,sp,-24
   15cc4:	3c088000 	lui	t0,0x8000
   15cc8:	afb00010 	sw	s0,16(sp)
   15ccc:	afbf0014 	sw	ra,20(sp)
   15cd0:	35060980 	ori	a2,t0,0x980
   15cd4:	90c70009 	lbu	a3,9(a2)
   15cd8:	24020006 	li	v0,6
   15cdc:	35090900 	ori	t1,t0,0x900
   15ce0:	30e300ff 	andi	v1,a3,0xff
   15ce4:	00808021 	move	s0,a0
   15ce8:	00a06021 	move	t4,a1
   15cec:	240b0004 	li	t3,4
   15cf0:	10620079 	beq	v1,v0,0x15ed8
   15cf4:	24070002 	li	a3,2
   15cf8:	94cf005c 	lhu	t7,92(a2)
   15cfc:	3c0e0204 	lui	t6,0x204
   15d00:	31edffff 	andi	t5,t7,0xffff
   15d04:	01ae5025 	or	t2,t5,t6
   15d08:	ae0a0000 	sw	t2,0(s0)
   15d0c:	90c50008 	lbu	a1,8(a2)
   15d10:	30a40020 	andi	a0,a1,0x20
   15d14:	10800008 	beqz	a0,0x15d38
   15d18:	00000000 	nop
   15d1c:	90c2004e 	lbu	v0,78(a2)
   15d20:	3c1f0103 	lui	ra,0x103
   15d24:	37f90300 	ori	t9,ra,0x300
   15d28:	305800ff 	andi	t8,v0,0xff
   15d2c:	03193025 	or	a2,t8,t9
   15d30:	240b0008 	li	t3,8
   15d34:	ae060004 	sw	a2,4(s0)
   15d38:	91390011 	lbu	t9,17(t1)
   15d3c:	91260012 	lbu	a2,18(t1)
   15d40:	91240011 	lbu	a0,17(t1)
   15d44:	333800ff 	andi	t8,t9,0xff
   15d48:	00187082 	srl	t6,t8,0x2
   15d4c:	30cf00ff 	andi	t7,a2,0xff
   15d50:	01cf5021 	addu	t2,t6,t7
   15d54:	014c6821 	addu	t5,t2,t4
   15d58:	308800ff 	andi	t0,a0,0xff
   15d5c:	31aaffff 	andi	t2,t5,0xffff
   15d60:	39030028 	xori	v1,t0,0x28
   15d64:	000a2880 	sll	a1,t2,0x2
   15d68:	1460002b 	bnez	v1,0x15e18
   15d6c:	02054023 	subu	t0,s0,a1
   15d70:	91240012 	lbu	a0,18(t1)
   15d74:	3c0e8000 	lui	t6,0x8000
   15d78:	35d90980 	ori	t9,t6,0x980
   15d7c:	308500ff 	andi	a1,a0,0xff
   15d80:	00ac1821 	addu	v1,a1,t4
   15d84:	00031080 	sll	v0,v1,0x2
   15d88:	004bf821 	addu	ra,v0,t3
   15d8c:	001f8400 	sll	s0,ra,0x10
   15d90:	360906ff 	ori	t1,s0,0x6ff
   15d94:	ad090004 	sw	t1,4(t0)
   15d98:	35c90900 	ori	t1,t6,0x900
   15d9c:	91260011 	lbu	a2,17(t1)
   15da0:	912f0012 	lbu	t7,18(t1)
   15da4:	000bc082 	srl	t8,t3,0x2
   15da8:	8f2b0034 	lw	t3,52(t9)
   15dac:	31ed00ff 	andi	t5,t7,0xff
   15db0:	8dc4010c 	lw	a0,268(t6)
   15db4:	01ac2821 	addu	a1,t5,t4
   15db8:	00b81021 	addu	v0,a1,t8
   15dbc:	0164f823 	subu	ra,t3,a0
   15dc0:	00078400 	sll	s0,a3,0x10
   15dc4:	00021f00 	sll	v1,v0,0x1c
   15dc8:	0070c825 	or	t9,v1,s0
   15dcc:	33e9ffff 	andi	t1,ra,0xffff
   15dd0:	30cf00fc 	andi	t7,a2,0xfc
   15dd4:	03297025 	or	t6,t9,t1
   15dd8:	01582021 	addu	a0,t2,t8
   15ddc:	01e86821 	addu	t5,t7,t0
   15de0:	00045080 	sll	t2,a0,0x2
   15de4:	adae000c 	sw	t6,12(t5)
   15de8:	0e00004d 	jal	0x8000134
   15dec:	010a8021 	addu	s0,t0,t2
   15df0:	3c078008 	lui	a3,0x8008
   15df4:	240c0004 	li	t4,4
   15df8:	34eb0080 	ori	t3,a3,0x80
   15dfc:	0e00004f 	jal	0x800013c
   15e00:	a16c0009 	sb	t4,9(t3)
   15e04:	02001021 	move	v0,s0
   15e08:	8fbf0014 	lw	ra,20(sp)
   15e0c:	8fb00010 	lw	s0,16(sp)
   15e10:	03e00008 	jr	ra
   15e14:	27bd0018 	addiu	sp,sp,24
   15e18:	91250011 	lbu	a1,17(t1)
   15e1c:	91230019 	lbu	v1,25(t1)
   15e20:	3c180800 	lui	t8,0x800
   15e24:	97183b86 	lhu	t8,15238(t8)
   15e28:	30a200ff 	andi	v0,a1,0xff
   15e2c:	0002f882 	srl	ra,v0,0x2
   15e30:	307000ff 	andi	s0,v1,0xff
   15e34:	001fce00 	sll	t9,ra,0x18
   15e38:	00104c00 	sll	t1,s0,0x10
   15e3c:	03293025 	or	a2,t9,t1
   15e40:	00d87025 	or	t6,a2,t8
   15e44:	3c0f4000 	lui	t7,0x4000
   15e48:	01cf6825 	or	t5,t6,t7
   15e4c:	3c0e8000 	lui	t6,0x8000
   15e50:	ad0d0000 	sw	t5,0(t0)
   15e54:	35c90900 	ori	t1,t6,0x900
   15e58:	91260011 	lbu	a2,17(t1)
   15e5c:	912f0012 	lbu	t7,18(t1)
   15e60:	35d90980 	ori	t9,t6,0x980
   15e64:	000bc082 	srl	t8,t3,0x2
   15e68:	31ed00ff 	andi	t5,t7,0xff
   15e6c:	8f2b0034 	lw	t3,52(t9)
   15e70:	8dc4010c 	lw	a0,268(t6)
   15e74:	01ac2821 	addu	a1,t5,t4
   15e78:	00b81021 	addu	v0,a1,t8
   15e7c:	0164f823 	subu	ra,t3,a0
   15e80:	00078400 	sll	s0,a3,0x10
   15e84:	00021f00 	sll	v1,v0,0x1c
   15e88:	0070c825 	or	t9,v1,s0
   15e8c:	33e9ffff 	andi	t1,ra,0xffff
   15e90:	30cf00fc 	andi	t7,a2,0xfc
   15e94:	03297025 	or	t6,t9,t1
   15e98:	01582021 	addu	a0,t2,t8
   15e9c:	01e86821 	addu	t5,t7,t0
   15ea0:	00045080 	sll	t2,a0,0x2
   15ea4:	adae000c 	sw	t6,12(t5)
   15ea8:	0e00004d 	jal	0x8000134
   15eac:	010a8021 	addu	s0,t0,t2
   15eb0:	3c078008 	lui	a3,0x8008
   15eb4:	240c0004 	li	t4,4
   15eb8:	34eb0080 	ori	t3,a3,0x80
   15ebc:	0e00004f 	jal	0x800013c
   15ec0:	a16c0009 	sb	t4,9(t3)
   15ec4:	02001021 	move	v0,s0
   15ec8:	8fbf0014 	lw	ra,20(sp)
   15ecc:	8fb00010 	lw	s0,16(sp)
   15ed0:	03e00008 	jr	ra
   15ed4:	27bd0018 	addiu	sp,sp,24
   15ed8:	0a0006c5 	j	0x8001b14
   15edc:	24070012 	li	a3,18
   15ee0:	27bdffd0 	addiu	sp,sp,-48
   15ee4:	afb60028 	sw	s6,40(sp)
   15ee8:	afb50024 	sw	s5,36(sp)
   15eec:	afb40020 	sw	s4,32(sp)
   15ef0:	afb10014 	sw	s1,20(sp)
   15ef4:	afbf002c 	sw	ra,44(sp)
   15ef8:	afb3001c 	sw	s3,28(sp)
   15efc:	afb20018 	sw	s2,24(sp)
   15f00:	afb00010 	sw	s0,16(sp)
   15f04:	3c068000 	lui	a2,0x8000
   15f08:	90c3010b 	lbu	v1,267(a2)
   15f0c:	309400ff 	andi	s4,a0,0xff
   15f10:	30b500ff 	andi	s5,a1,0xff
   15f14:	30620030 	andi	v0,v1,0x30
   15f18:	0000b021 	move	s6,zero
   15f1c:	1040009d 	beqz	v0,0x16194
   15f20:	00008821 	move	s1,zero
   15f24:	34c40980 	ori	a0,a2,0x980
   15f28:	90880008 	lbu	t0,8(a0)
   15f2c:	00083e00 	sll	a3,t0,0x18
   15f30:	00072e03 	sra	a1,a3,0x18
   15f34:	04a000c4 	bltz	a1,0x16248
   15f38:	24040004 	li	a0,4
   15f3c:	8f870050 	lw	a3,80(gp)
   15f40:	3c010800 	lui	at,0x800
   15f44:	a0243b90 	sb	a0,15248(at)
   15f48:	3c0c8000 	lui	t4,0x8000
   15f4c:	ad800048 	sw	zero,72(t4)
   15f50:	3c038000 	lui	v1,0x8000
   15f54:	906d010b 	lbu	t5,267(v1)
   15f58:	31a50020 	andi	a1,t5,0x20
   15f5c:	10a00007 	beqz	a1,0x15f7c
   15f60:	3c0b8000 	lui	t3,0x8000
   15f64:	34720980 	ori	s2,v1,0x980
   15f68:	92500008 	lbu	s0,8(s2)
   15f6c:	00107e00 	sll	t7,s0,0x18
   15f70:	000f7603 	sra	t6,t7,0x18
   15f74:	05c000c9 	bltz	t6,0x1629c
   15f78:	3c198008 	lui	t9,0x8008
   15f7c:	9169010b 	lbu	t1,267(t3)
   15f80:	356a0980 	ori	t2,t3,0x980
   15f84:	91480008 	lbu	t0,8(t2)
   15f88:	31240040 	andi	a0,t1,0x40
   15f8c:	0004102b 	sltu	v0,zero,a0
   15f90:	31030008 	andi	v1,t0,0x8
   15f94:	24120003 	li	s2,3
   15f98:	14600002 	bnez	v1,0x15fa4
   15f9c:	00e29823 	subu	s3,a3,v0
   15fa0:	00009021 	move	s2,zero
   15fa4:	3c108000 	lui	s0,0x8000
   15fa8:	360e0a80 	ori	t6,s0,0xa80
   15fac:	36080900 	ori	t0,s0,0x900
   15fb0:	95c7002c 	lhu	a3,44(t6)
   15fb4:	91030011 	lbu	v1,17(t0)
   15fb8:	91020012 	lbu	v0,18(t0)
   15fbc:	91c50018 	lbu	a1,24(t6)
   15fc0:	307800ff 	andi	t8,v1,0xff
   15fc4:	305f00ff 	andi	ra,v0,0xff
   15fc8:	025fc821 	addu	t9,s2,ra
   15fcc:	00197880 	sll	t7,t9,0x2
   15fd0:	91cc0018 	lbu	t4,24(t6)
   15fd4:	01f86821 	addu	t5,t7,t8
   15fd8:	01b13021 	addu	a2,t5,s1
   15fdc:	30b100ff 	andi	s1,a1,0xff
   15fe0:	00d11821 	addu	v1,a2,s1
   15fe4:	a7870054 	sh	a3,84(gp)
   15fe8:	3c010800 	lui	at,0x800
   15fec:	a4263b86 	sh	a2,15238(at)
   15ff0:	3c010800 	lui	at,0x800
   15ff4:	a4233b88 	sh	v1,15240(at)
   15ff8:	15800002 	bnez	t4,0x16004
   15ffc:	00000000 	nop
   16000:	0000000d 	break
   16004:	9204010b 	lbu	a0,267(s0)
   16008:	3065ffff 	andi	a1,v1,0xffff
   1600c:	3c010800 	lui	at,0x800
   16010:	a4233b8a 	sh	v1,15242(at)
   16014:	30890040 	andi	t1,a0,0x40
   16018:	3c010800 	lui	at,0x800
   1601c:	a4203b80 	sh	zero,15232(at)
   16020:	3c010800 	lui	at,0x800
   16024:	a4203b7c 	sh	zero,15228(at)
   16028:	11200002 	beqz	t1,0x16034
   1602c:	24a4000a 	addiu	a0,a1,10
   16030:	24a4000b 	addiu	a0,a1,11
   16034:	3091ffff 	andi	s1,a0,0xffff
   16038:	0e0001b4 	jal	0x80006d0
   1603c:	02202021 	move	a0,s1
   16040:	9219010b 	lbu	t9,267(s0)
   16044:	3c0e0800 	lui	t6,0x800
   16048:	95ce3b8a 	lhu	t6,15242(t6)
   1604c:	3c0d0800 	lui	t5,0x800
   16050:	91ad3b91 	lbu	t5,15249(t5)
   16054:	0019c182 	srl	t8,t9,0x6
   16058:	330f0001 	andi	t7,t8,0x1
   1605c:	01cf2821 	addu	a1,t6,t7
   16060:	000d3400 	sll	a2,t5,0x10
   16064:	24a70002 	addiu	a3,a1,2
   16068:	00c75825 	or	t3,a2,a3
   1606c:	3c0c1100 	lui	t4,0x1100
   16070:	016c5025 	or	t2,t3,t4
   16074:	ac4a0000 	sw	t2,0(v0)
   16078:	24440008 	addiu	a0,v0,8
   1607c:	02602821 	move	a1,s3
   16080:	02403021 	move	a2,s2
   16084:	0e00050f 	jal	0x800143c
   16088:	ac400004 	sw	zero,4(v0)
   1608c:	0e00069f 	jal	0x8001a7c
   16090:	00402021 	move	a0,v0
   16094:	16c00068 	bnez	s6,0x16238
   16098:	00402021 	move	a0,v0
   1609c:	9212010b 	lbu	s2,267(s0)
   160a0:	32560040 	andi	s6,s2,0x40
   160a4:	12c00005 	beqz	s6,0x160bc
   160a8:	3c0200ff 	lui	v0,0xff
   160ac:	8c930000 	lw	s3,0(a0)
   160b0:	345fffff 	ori	ra,v0,0xffff
   160b4:	027f8024 	and	s0,s3,ra
   160b8:	ac900000 	sw	s0,0(a0)
   160bc:	0e0001c8 	jal	0x8000720
   160c0:	02202021 	move	a0,s1
   160c4:	3c030800 	lui	v1,0x800
   160c8:	90633b90 	lbu	v1,15248(v1)
   160cc:	30710003 	andi	s1,v1,0x3
   160d0:	12200016 	beqz	s1,0x1612c
   160d4:	3c108008 	lui	s0,0x8008
   160d8:	8f8c0050 	lw	t4,80(gp)
   160dc:	3c0b8008 	lui	t3,0x8008
   160e0:	35640080 	ori	a0,t3,0x80
   160e4:	258a0001 	addiu	t2,t4,1
   160e8:	ac8a003c 	sw	t2,60(a0)
   160ec:	3c058008 	lui	a1,0x8008
   160f0:	8ca90004 	lw	t1,4(a1)
   160f4:	01402021 	move	a0,t2
   160f8:	012a4023 	subu	t0,t1,t2
   160fc:	19000002 	blez	t0,0x16108
   16100:	af8a0050 	sw	t2,80(gp)
   16104:	8ca40004 	lw	a0,4(a1)
   16108:	0e0005f9 	jal	0x80017e4
   1610c:	aca40004 	sw	a0,4(a1)
   16110:	3c0e8000 	lui	t6,0x8000
   16114:	8dcd0074 	lw	t5,116(t6)
   16118:	3c058008 	lui	a1,0x8008
   1611c:	34a60080 	ori	a2,a1,0x80
   16120:	004d3821 	addu	a3,v0,t5
   16124:	acc7000c 	sw	a3,12(a2)
   16128:	3c108008 	lui	s0,0x8008
   1612c:	36120080 	ori	s2,s0,0x80
   16130:	02802021 	move	a0,s4
   16134:	02a02821 	move	a1,s5
   16138:	a240006b 	sb	zero,107(s2)
   1613c:	0e00065c 	jal	0x8001970
   16140:	3c148000 	lui	s4,0x8000
   16144:	8f960050 	lw	s6,80(gp)
   16148:	3c151000 	lui	s5,0x1000
   1614c:	ae96014c 	sw	s6,332(s4)
   16150:	8f980048 	lw	t8,72(gp)
   16154:	344f0006 	ori	t7,v0,0x6
   16158:	8fbf002c 	lw	ra,44(sp)
   1615c:	27190001 	addiu	t9,t8,1
   16160:	af990048 	sw	t9,72(gp)
   16164:	8fb60028 	lw	s6,40(sp)
   16168:	a2980152 	sb	t8,338(s4)
   1616c:	8fb3001c 	lw	s3,28(sp)
   16170:	ae8f0154 	sw	t7,340(s4)
   16174:	8fb20018 	lw	s2,24(sp)
   16178:	ae950178 	sw	s5,376(s4)
   1617c:	8fb10014 	lw	s1,20(sp)
   16180:	8fb50024 	lw	s5,36(sp)
   16184:	8fb40020 	lw	s4,32(sp)
   16188:	8fb00010 	lw	s0,16(sp)
   1618c:	03e00008 	jr	ra
   16190:	27bd0030 	addiu	sp,sp,48
   16194:	34c30980 	ori	v1,a2,0x980
   16198:	906f0008 	lbu	t7,8(v1)
   1619c:	000f7600 	sll	t6,t7,0x18
   161a0:	000e6e03 	sra	t5,t6,0x18
   161a4:	05a00033 	bltz	t5,0x16274
   161a8:	34df0900 	ori	ra,a2,0x900
   161ac:	93f8001b 	lbu	t8,27(ra)
   161b0:	24190010 	li	t9,16
   161b4:	3c010800 	lui	at,0x800
   161b8:	a0393b90 	sb	t9,15248(at)
   161bc:	33130002 	andi	s3,t8,0x2
   161c0:	1260ff63 	beqz	s3,0x15f50
   161c4:	8f870050 	lw	a3,80(gp)
   161c8:	8f82005c 	lw	v0,92(gp)
   161cc:	1447ff61 	bne	v0,a3,0x15f54
   161d0:	3c038000 	lui	v1,0x8000
   161d4:	0e00004d 	jal	0x8000134
   161d8:	00000000 	nop
   161dc:	3c048008 	lui	a0,0x8008
   161e0:	34850080 	ori	a1,a0,0x80
   161e4:	90a80009 	lbu	t0,9(a1)
   161e8:	24070016 	li	a3,22
   161ec:	310300ff 	andi	v1,t0,0xff
   161f0:	1067000d 	beq	v1,a3,0x16228
   161f4:	00000000 	nop
   161f8:	90ab0009 	lbu	t3,9(a1)
   161fc:	3c060800 	lui	a2,0x800
   16200:	90c63b90 	lbu	a2,15248(a2)
   16204:	24090008 	li	t1,8
   16208:	316400ff 	andi	a0,t3,0xff
   1620c:	34ca0001 	ori	t2,a2,0x1
   16210:	3c010800 	lui	at,0x800
   16214:	a02a3b90 	sb	t2,15248(at)
   16218:	1089002f 	beq	a0,t1,0x162d8
   1621c:	240c000a 	li	t4,10
   16220:	108c0028 	beq	a0,t4,0x162c4
   16224:	2402000c 	li	v0,12
   16228:	0e00004f 	jal	0x800013c
   1622c:	00000000 	nop
   16230:	0a00075b 	j	0x8001d6c
   16234:	8f870050 	lw	a3,80(gp)
   16238:	0e0006b7 	jal	0x8001adc
   1623c:	02402821 	move	a1,s2
   16240:	0a0007ae 	j	0x8001eb8
   16244:	00402021 	move	a0,v0
   16248:	3c0b8008 	lui	t3,0x8008
   1624c:	356a0080 	ori	t2,t3,0x80
   16250:	8d470054 	lw	a3,84(t2)
   16254:	8cc9010c 	lw	t1,268(a2)
   16258:	1120ff39 	beqz	t1,0x15f40
   1625c:	af870050 	sw	a3,80(gp)
   16260:	24060014 	li	a2,20
   16264:	3c010800 	lui	at,0x800
   16268:	a0263b90 	sb	a2,15248(at)
   1626c:	0a00075a 	j	0x8001d68
   16270:	3c0c8000 	lui	t4,0x8000
   16274:	90710008 	lbu	s1,8(v1)
   16278:	24120002 	li	s2,2
   1627c:	3c010800 	lui	at,0x800
   16280:	a0323b90 	sb	s2,15248(at)
   16284:	32300020 	andi	s0,s1,0x20
   16288:	1200000b 	beqz	s0,0x162b8
   1628c:	24160001 	li	s6,1
   16290:	8f870050 	lw	a3,80(gp)
   16294:	0a00075b 	j	0x8001d6c
   16298:	24110008 	li	s1,8
   1629c:	37330080 	ori	s3,t9,0x80
   162a0:	8e7f0038 	lw	ra,56(s3)
   162a4:	af3f0004 	sw	ra,4(t9)
   162a8:	8f380004 	lw	t8,4(t9)
   162ac:	ae78003c 	sw	t8,60(s3)
   162b0:	0a000766 	j	0x8001d98
   162b4:	3c0b8000 	lui	t3,0x8000
   162b8:	8f870050 	lw	a3,80(gp)
   162bc:	0a00075b 	j	0x8001d6c
   162c0:	24110004 	li	s1,4
   162c4:	a0a20009 	sb	v0,9(a1)
   162c8:	0e00004f 	jal	0x800013c
   162cc:	00000000 	nop
   162d0:	0a00075b 	j	0x8001d6c
   162d4:	8f870050 	lw	a3,80(gp)
   162d8:	24020014 	li	v0,20
   162dc:	0a000839 	j	0x80020e4
   162e0:	a0a20009 	sb	v0,9(a1)
   162e4:	27bdffe8 	addiu	sp,sp,-24
   162e8:	afbf0014 	sw	ra,20(sp)
   162ec:	afb00010 	sw	s0,16(sp)
   162f0:	3c108000 	lui	s0,0x8000
   162f4:	92020109 	lbu	v0,265(s0)
   162f8:	24050001 	li	a1,1
   162fc:	0e00065c 	jal	0x8001970
   16300:	304400ff 	andi	a0,v0,0xff
   16304:	3c1f8008 	lui	ra,0x8008
   16308:	93f8000e 	lbu	t8,14(ra)
   1630c:	37e30080 	ori	v1,ra,0x80
   16310:	93f9000f 	lbu	t9,15(ra)
   16314:	906e0026 	lbu	t6,38(v1)
   16318:	93e9000a 	lbu	t1,10(ra)
   1631c:	332f00ff 	andi	t7,t9,0xff
   16320:	00186600 	sll	t4,t8,0x18
   16324:	000f6c00 	sll	t5,t7,0x10
   16328:	31cb00ff 	andi	t3,t6,0xff
   1632c:	018d5025 	or	t2,t4,t5
   16330:	000b3200 	sll	a2,t3,0x8
   16334:	01463825 	or	a3,t2,a2
   16338:	312800ff 	andi	t0,t1,0xff
   1633c:	34456000 	ori	a1,v0,0x6000
   16340:	00e82025 	or	a0,a3,t0
   16344:	2402ff81 	li	v0,-127
   16348:	3c031000 	lui	v1,0x1000
   1634c:	ae04014c 	sw	a0,332(s0)
   16350:	8fbf0014 	lw	ra,20(sp)
   16354:	ae050154 	sw	a1,340(s0)
   16358:	a2020152 	sb	v0,338(s0)
   1635c:	ae030178 	sw	v1,376(s0)
   16360:	8fb00010 	lw	s0,16(sp)
   16364:	03e00008 	jr	ra
   16368:	27bd0018 	addiu	sp,sp,24
   1636c:	27bdffe8 	addiu	sp,sp,-24
   16370:	308400ff 	andi	a0,a0,0xff
   16374:	afbf0010 	sw	ra,16(sp)
   16378:	0e00065c 	jal	0x8001970
   1637c:	30a500ff 	andi	a1,a1,0xff
   16380:	34460040 	ori	a2,v0,0x40
   16384:	3c048000 	lui	a0,0x8000
   16388:	2405ff92 	li	a1,-110
   1638c:	ac860154 	sw	a2,340(a0)
   16390:	a0850152 	sb	a1,338(a0)
   16394:	8f830050 	lw	v1,80(gp)
   16398:	8fbf0010 	lw	ra,16(sp)
   1639c:	3c021000 	lui	v0,0x1000
   163a0:	27bd0018 	addiu	sp,sp,24
   163a4:	ac83014c 	sw	v1,332(a0)
   163a8:	03e00008 	jr	ra
   163ac:	ac820178 	sw	v0,376(a0)
   163b0:	27bdffd8 	addiu	sp,sp,-40
   163b4:	afb20018 	sw	s2,24(sp)
   163b8:	afb10014 	sw	s1,20(sp)
   163bc:	afb00010 	sw	s0,16(sp)
   163c0:	afbf0020 	sw	ra,32(sp)
   163c4:	afb3001c 	sw	s3,28(sp)
   163c8:	3c078000 	lui	a3,0x8000
   163cc:	90e20109 	lbu	v0,265(a3)
   163d0:	308600ff 	andi	a2,a0,0xff
   163d4:	30b000ff 	andi	s0,a1,0xff
   163d8:	000618c2 	srl	v1,a2,0x3
   163dc:	32040002 	andi	a0,s0,0x2
   163e0:	30710001 	andi	s1,v1,0x1
   163e4:	14800007 	bnez	a0,0x16404
   163e8:	305200ff 	andi	s2,v0,0xff
   163ec:	3c098008 	lui	t1,0x8008
   163f0:	35330080 	ori	s3,t1,0x80
   163f4:	92680005 	lbu	t0,5(s3)
   163f8:	31050008 	andi	a1,t0,0x8
   163fc:	10a0000c 	beqz	a1,0x16430
   16400:	30ca0010 	andi	t2,a2,0x10
   16404:	02402021 	move	a0,s2
   16408:	0e000681 	jal	0x8001a04
   1640c:	02202821 	move	a1,s1
   16410:	24020001 	li	v0,1
   16414:	8fbf0020 	lw	ra,32(sp)
   16418:	8fb3001c 	lw	s3,28(sp)
   1641c:	8fb20018 	lw	s2,24(sp)
   16420:	8fb10014 	lw	s1,20(sp)
   16424:	8fb00010 	lw	s0,16(sp)
   16428:	03e00008 	jr	ra
   1642c:	27bd0028 	addiu	sp,sp,40
   16430:	15400030 	bnez	t2,0x164f4
   16434:	34e50a00 	ori	a1,a3,0xa00
   16438:	8cb90024 	lw	t9,36(a1)
   1643c:	8cb80008 	lw	t8,8(a1)
   16440:	13380047 	beq	t9,t8,0x16560
   16444:	00004021 	move	t0,zero
   16448:	3c0e8008 	lui	t6,0x8008
   1644c:	35d30080 	ori	s3,t6,0x80
   16450:	926d0068 	lbu	t5,104(s3)
   16454:	240b0002 	li	t3,2
   16458:	31ac00ff 	andi	t4,t5,0xff
   1645c:	118b0080 	beq	t4,t3,0x16660
   16460:	3c068000 	lui	a2,0x8000
   16464:	927f004c 	lbu	ra,76(s3)
   16468:	90c40109 	lbu	a0,265(a2)
   1646c:	509f0004 	beql	a0,ra,0x16480
   16470:	3213007c 	andi	s3,s0,0x7c
   16474:	11000067 	beqz	t0,0x16614
   16478:	00000000 	nop
   1647c:	3213007c 	andi	s3,s0,0x7c
   16480:	1660005a 	bnez	s3,0x165ec
   16484:	02402021 	move	a0,s2
   16488:	16200008 	bnez	s1,0x164ac
   1648c:	320c0001 	andi	t4,s0,0x1
   16490:	3c078000 	lui	a3,0x8000
   16494:	34eb0a00 	ori	t3,a3,0xa00
   16498:	8d650024 	lw	a1,36(t3)
   1649c:	8ce80104 	lw	t0,260(a3)
   164a0:	14a8ffdc 	bne	a1,t0,0x16414
   164a4:	00001021 	move	v0,zero
   164a8:	320c0001 	andi	t4,s0,0x1
   164ac:	1180000d 	beqz	t4,0x164e4
   164b0:	02402021 	move	a0,s2
   164b4:	3c108000 	lui	s0,0x8000
   164b8:	8e0e010c 	lw	t6,268(s0)
   164bc:	8f8d0060 	lw	t5,96(gp)
   164c0:	11cd0008 	beq	t6,t5,0x164e4
   164c4:	00000000 	nop
   164c8:	0e00073f 	jal	0x8001cfc
   164cc:	02202821 	move	a1,s1
   164d0:	8e0f010c 	lw	t7,268(s0)
   164d4:	3c188008 	lui	t8,0x8008
   164d8:	37100080 	ori	s0,t8,0x80
   164dc:	ae0f0050 	sw	t7,80(s0)
   164e0:	02402021 	move	a0,s2
   164e4:	0e000670 	jal	0x80019c0
   164e8:	02202821 	move	a1,s1
   164ec:	0a00088c 	j	0x8002230
   164f0:	24020001 	li	v0,1
   164f4:	3c070800 	lui	a3,0x800
   164f8:	8ce70064 	lw	a3,100(a3)
   164fc:	24e60001 	addiu	a2,a3,1
   16500:	3c010800 	lui	at,0x800
   16504:	ac260064 	sw	a2,100(at)
   16508:	1600000d 	bnez	s0,0x16540
   1650c:	00000000 	nop
   16510:	02202821 	move	a1,s1
   16514:	0e000670 	jal	0x80019c0
   16518:	02402021 	move	a0,s2
   1651c:	926f0068 	lbu	t7,104(s3)
   16520:	240d0002 	li	t5,2
   16524:	31ee00ff 	andi	t6,t7,0xff
   16528:	11cd0022 	beq	t6,t5,0x165b4
   1652c:	02402021 	move	a0,s2
   16530:	0e000840 	jal	0x8002100
   16534:	00000000 	nop
   16538:	0a00088c 	j	0x8002230
   1653c:	24020001 	li	v0,1
   16540:	0e000041 	jal	0x8000104
   16544:	24040001 	li	a0,1
   16548:	926c0025 	lbu	t4,37(s3)
   1654c:	020c5825 	or	t3,s0,t4
   16550:	0e00004f 	jal	0x800013c
   16554:	a26b0025 	sb	t3,37(s3)
   16558:	0a0008cc 	j	0x8002330
   1655c:	02202821 	move	a1,s1
   16560:	8e630018 	lw	v1,24(s3)
   16564:	8ce40104 	lw	a0,260(a3)
   16568:	8cbf0024 	lw	ra,36(a1)
   1656c:	00031602 	srl	v0,v1,0x18
   16570:	149fffb5 	bne	a0,ra,0x16448
   16574:	3045007f 	andi	a1,v0,0x7f
   16578:	9269004c 	lbu	t1,76(s3)
   1657c:	26440001 	addiu	a0,s2,1
   16580:	3093007f 	andi	s3,a0,0x7f
   16584:	12650040 	beq	s3,a1,0x16688
   16588:	312300ff 	andi	v1,t1,0xff
   1658c:	1464ffaf 	bne	v1,a0,0x1644c
   16590:	3c0e8008 	lui	t6,0x8008
   16594:	26480001 	addiu	t0,s2,1
   16598:	3111007f 	andi	s1,t0,0x7f
   1659c:	310200ff 	andi	v0,t0,0xff
   165a0:	1225000b 	beq	s1,a1,0x165d0
   165a4:	24080001 	li	t0,1
   165a8:	00409021 	move	s2,v0
   165ac:	0a000899 	j	0x8002264
   165b0:	24110001 	li	s1,1
   165b4:	24050004 	li	a1,4
   165b8:	0e000633 	jal	0x80018cc
   165bc:	24060001 	li	a2,1
   165c0:	0e000840 	jal	0x8002100
   165c4:	00000000 	nop
   165c8:	0a00088c 	j	0x8002230
   165cc:	24020001 	li	v0,1
   165d0:	2407ff80 	li	a3,-128
   165d4:	02472824 	and	a1,s2,a3
   165d8:	00a79026 	xor	s2,a1,a3
   165dc:	324200ff 	andi	v0,s2,0xff
   165e0:	00409021 	move	s2,v0
   165e4:	0a000899 	j	0x8002264
   165e8:	24110001 	li	s1,1
   165ec:	0e00073f 	jal	0x8001cfc
   165f0:	02202821 	move	a1,s1
   165f4:	32060030 	andi	a2,s0,0x30
   165f8:	10c0ffa3 	beqz	a2,0x16488
   165fc:	32100082 	andi	s0,s0,0x82
   16600:	02402021 	move	a0,s2
   16604:	0e000681 	jal	0x8001a04
   16608:	02202821 	move	a1,s1
   1660c:	0a00088c 	j	0x8002230
   16610:	24020001 	li	v0,1
   16614:	8e630018 	lw	v1,24(s3)
   16618:	02402021 	move	a0,s2
   1661c:	02202821 	move	a1,s1
   16620:	00661025 	or	v0,v1,a2
   16624:	0e000862 	jal	0x8002188
   16628:	ae620018 	sw	v0,24(s3)
   1662c:	9264004c 	lbu	a0,76(s3)
   16630:	24050003 	li	a1,3
   16634:	24060001 	li	a2,1
   16638:	0e000633 	jal	0x80018cc
   1663c:	308400ff 	andi	a0,a0,0xff
   16640:	0e000041 	jal	0x8000104
   16644:	24040001 	li	a0,1
   16648:	926a0025 	lbu	t2,37(s3)
   1664c:	020a4825 	or	t1,s0,t2
   16650:	0e00004f 	jal	0x800013c
   16654:	a2690025 	sb	t1,37(s3)
   16658:	0a00088c 	j	0x8002230
   1665c:	24020001 	li	v0,1
   16660:	8e780018 	lw	t8,24(s3)
   16664:	3c198000 	lui	t9,0x8000
   16668:	02402021 	move	a0,s2
   1666c:	03197825 	or	t7,t8,t9
   16670:	02202821 	move	a1,s1
   16674:	0e000670 	jal	0x80019c0
   16678:	ae6f0018 	sw	t7,24(s3)
   1667c:	9264004c 	lbu	a0,76(s3)
   16680:	0a000914 	j	0x8002450
   16684:	24050004 	li	a1,4
   16688:	32460080 	andi	a2,s2,0x80
   1668c:	38ca0080 	xori	t2,a2,0x80
   16690:	146aff6e 	bne	v1,t2,0x1644c
   16694:	3c0e8008 	lui	t6,0x8008
   16698:	0a0008ed 	j	0x80023b4
   1669c:	26480001 	addiu	t0,s2,1
   166a0:	27bdffc0 	addiu	sp,sp,-64
   166a4:	afb00018 	sw	s0,24(sp)
   166a8:	3c108000 	lui	s0,0x8000
   166ac:	afbf0038 	sw	ra,56(sp)
   166b0:	afb70034 	sw	s7,52(sp)
   166b4:	afb60030 	sw	s6,48(sp)
   166b8:	afb5002c 	sw	s5,44(sp)
   166bc:	afb40028 	sw	s4,40(sp)
   166c0:	afb30024 	sw	s3,36(sp)
   166c4:	afb20020 	sw	s2,32(sp)
   166c8:	0e0004bb 	jal	0x80012ec
   166cc:	afb1001c 	sw	s1,28(sp)
   166d0:	92040108 	lbu	a0,264(s0)
   166d4:	9205010b 	lbu	a1,267(s0)
   166d8:	308400ff 	andi	a0,a0,0xff
   166dc:	0e000873 	jal	0x80021cc
   166e0:	30a500ff 	andi	a1,a1,0xff
   166e4:	144000e5 	bnez	v0,0x16a7c
   166e8:	8fbf0038 	lw	ra,56(sp)
   166ec:	3c098008 	lui	t1,0x8008
   166f0:	35280080 	ori	t0,t1,0x80
   166f4:	a100006b 	sb	zero,107(t0)
   166f8:	36070980 	ori	a3,s0,0x980
   166fc:	90e60000 	lbu	a2,0(a3)
   16700:	24020050 	li	v0,80
   16704:	3c170800 	lui	s7,0x800
   16708:	26f73b48 	addiu	s7,s7,15176
   1670c:	30c300ff 	andi	v1,a2,0xff
   16710:	3c130800 	lui	s3,0x800
   16714:	26733b58 	addiu	s3,s3,15192
   16718:	10620003 	beq	v1,v0,0x16728
   1671c:	3c108000 	lui	s0,0x8000
   16720:	0000b821 	move	s7,zero
   16724:	00009821 	move	s3,zero
   16728:	241f0010 	li	ra,16
   1672c:	36110a00 	ori	s1,s0,0xa00
   16730:	36140980 	ori	s4,s0,0x980
   16734:	8e160104 	lw	s6,260(s0)
   16738:	8f8d0050 	lw	t5,80(gp)
   1673c:	8e380024 	lw	t8,36(s1)
   16740:	36190a80 	ori	t9,s0,0xa80
   16744:	8e920020 	lw	s2,32(s4)
   16748:	3c010800 	lui	at,0x800
   1674c:	a03f3b90 	sb	ra,15248(at)
   16750:	972c002c 	lhu	t4,44(t9)
   16754:	8ef50000 	lw	s5,0(s7)
   16758:	932b0018 	lbu	t3,24(t9)
   1675c:	024d7023 	subu	t6,s2,t5
   16760:	02d87823 	subu	t7,s6,t8
   16764:	3c010800 	lui	at,0x800
   16768:	ac2f3b6c 	sw	t7,15212(at)
   1676c:	3c010800 	lui	at,0x800
   16770:	ac2e3b70 	sw	t6,15216(at)
   16774:	3c010800 	lui	at,0x800
   16778:	ac2d3b94 	sw	t5,15252(at)
   1677c:	a78c0054 	sh	t4,84(gp)
   16780:	02a0f809 	jalr	s5
   16784:	317200ff 	andi	s2,t3,0xff
   16788:	304a0002 	andi	t2,v0,0x2
   1678c:	154000e8 	bnez	t2,0x16b30
   16790:	30450001 	andi	a1,v0,0x1
   16794:	10a000c3 	beqz	a1,0x16aa4
   16798:	00000000 	nop
   1679c:	928a0008 	lbu	t2,8(s4)
   167a0:	31500008 	andi	s0,t2,0x8
   167a4:	16000002 	bnez	s0,0x167b0
   167a8:	24140003 	li	s4,3
   167ac:	0000a021 	move	s4,zero
   167b0:	3c068000 	lui	a2,0x8000
   167b4:	34c40900 	ori	a0,a2,0x900
   167b8:	34c30a00 	ori	v1,a2,0xa00
   167bc:	8c6e0024 	lw	t6,36(v1)
   167c0:	90850011 	lbu	a1,17(a0)
   167c4:	90820012 	lbu	v0,18(a0)
   167c8:	90990011 	lbu	t9,17(a0)
   167cc:	30b800ff 	andi	t8,a1,0xff
   167d0:	305100ff 	andi	s1,v0,0xff
   167d4:	0291f821 	addu	ra,s4,s1
   167d8:	001fb080 	sll	s6,ra,0x2
   167dc:	332f00ff 	andi	t7,t9,0xff
   167e0:	02d85821 	addu	t3,s6,t8
   167e4:	024fa821 	addu	s5,s2,t7
   167e8:	26ac0010 	addiu	t4,s5,16
   167ec:	01726821 	addu	t5,t3,s2
   167f0:	3c158000 	lui	s5,0x8000
   167f4:	3c010800 	lui	at,0x800
   167f8:	ac2e3b98 	sw	t6,15256(at)
   167fc:	3c010800 	lui	at,0x800
   16800:	a42d3b88 	sh	t5,15240(at)
   16804:	3c010800 	lui	at,0x800
   16808:	a42c3b84 	sh	t4,15236(at)
   1680c:	3c010800 	lui	at,0x800
   16810:	a42b3b86 	sh	t3,15238(at)
   16814:	36b60980 	ori	s6,s5,0x980
   16818:	8f870050 	lw	a3,80(gp)
   1681c:	8f890058 	lw	t1,88(gp)
   16820:	8ed20020 	lw	s2,32(s6)
   16824:	24080006 	li	t0,6
   16828:	01273023 	subu	a2,t1,a3
   1682c:	02472823 	subu	a1,s2,a3
   16830:	3c010800 	lui	at,0x800
   16834:	ac283b8c 	sw	t0,15244(at)
   16838:	04c000b5 	bltz	a2,0x16b10
   1683c:	00009021 	move	s2,zero
   16840:	04a000b3 	bltz	a1,0x16b10
   16844:	00c5802b 	sltu	s0,a2,a1
   16848:	120000b5 	beqz	s0,0x16b20
   1684c:	00000000 	nop
   16850:	3c010800 	lui	at,0x800
   16854:	ac263b70 	sw	a2,15216(at)
   16858:	8e710000 	lw	s1,0(s3)
   1685c:	0220f809 	jalr	s1
   16860:	00000000 	nop
   16864:	304a0002 	andi	t2,v0,0x2
   16868:	15400074 	bnez	t2,0x16a3c
   1686c:	00408021 	move	s0,v0
   16870:	304b0001 	andi	t3,v0,0x1
   16874:	55600011 	bnezl	t3,0x168bc
   16878:	8e710004 	lw	s1,4(s3)
   1687c:	3c0d0800 	lui	t5,0x800
   16880:	8dad3b74 	lw	t5,15220(t5)
   16884:	3c0ec000 	lui	t6,0xc000
   16888:	3c048000 	lui	a0,0x8000
   1688c:	01ae6025 	or	t4,t5,t6
   16890:	aeac0e00 	sw	t4,3584(s5)
   16894:	8c980000 	lw	t8,0(a0)
   16898:	330f0008 	andi	t7,t8,0x8
   1689c:	11e0fffd 	beqz	t7,0x16894
   168a0:	00000000 	nop
   168a4:	949f0e08 	lhu	ra,3592(a0)
   168a8:	24120001 	li	s2,1
   168ac:	a79f0040 	sh	ra,64(gp)
   168b0:	8c990e04 	lw	t9,3588(a0)
   168b4:	af990038 	sw	t9,56(gp)
   168b8:	8e710004 	lw	s1,4(s3)
   168bc:	0220f809 	jalr	s1
   168c0:	00000000 	nop
   168c4:	02028025 	or	s0,s0,v0
   168c8:	32020002 	andi	v0,s0,0x2
   168cc:	144000b4 	bnez	v0,0x16ba0
   168d0:	00000000 	nop
   168d4:	3c080800 	lui	t0,0x800
   168d8:	95083b7c 	lhu	t0,15228(t0)
   168dc:	3c110800 	lui	s1,0x800
   168e0:	96313b88 	lhu	s1,15240(s1)
   168e4:	3c090800 	lui	t1,0x800
   168e8:	95293b7e 	lhu	t1,15230(t1)
   168ec:	3c030800 	lui	v1,0x800
   168f0:	8c633b74 	lw	v1,15220(v1)
   168f4:	01116821 	addu	t5,t0,s1
   168f8:	3c1f0800 	lui	ra,0x800
   168fc:	8fff3b98 	lw	ra,15256(ra)
   16900:	3c070800 	lui	a3,0x800
   16904:	94e73b92 	lhu	a3,15250(a3)
   16908:	3c118000 	lui	s1,0x8000
   1690c:	01a92021 	addu	a0,t5,t1
   16910:	8e38010c 	lw	t8,268(s1)
   16914:	00682821 	addu	a1,v1,t0
   16918:	24990002 	addiu	t9,a0,2
   1691c:	00a77021 	addu	t6,a1,a3
   16920:	03e37821 	addu	t7,ra,v1
   16924:	af980060 	sw	t8,96(gp)
   16928:	3c010800 	lui	at,0x800
   1692c:	ac2f3b98 	sw	t7,15256(at)
   16930:	3c010800 	lui	at,0x800
   16934:	a42e3b80 	sh	t6,15232(at)
   16938:	3c010800 	lui	at,0x800
   1693c:	a42d3b8a 	sh	t5,15242(at)
   16940:	0e0001b4 	jal	0x80006d0
   16944:	3324ffff 	andi	a0,t9,0xffff
   16948:	8f8c0048 	lw	t4,72(gp)
   1694c:	00402021 	move	a0,v0
   16950:	3c010800 	lui	at,0x800
   16954:	a02c3b91 	sb	t4,15249(at)
   16958:	8e620008 	lw	v0,8(s3)
   1695c:	258b0001 	addiu	t3,t4,1
   16960:	af8b0048 	sw	t3,72(gp)
   16964:	0040f809 	jalr	v0
   16968:	00000000 	nop
   1696c:	8f850050 	lw	a1,80(gp)
   16970:	02803021 	move	a2,s4
   16974:	0e00050f 	jal	0x800143c
   16978:	00402021 	move	a0,v0
   1697c:	0e00069f 	jal	0x8001a7c
   16980:	00402021 	move	a0,v0
   16984:	8e6a000c 	lw	t2,12(s3)
   16988:	0140f809 	jalr	t2
   1698c:	00402021 	move	a0,v0
   16990:	3c080800 	lui	t0,0x800
   16994:	95083b8a 	lhu	t0,15242(t0)
   16998:	3c090800 	lui	t1,0x800
   1699c:	95293b7e 	lhu	t1,15230(t1)
   169a0:	01093821 	addu	a3,t0,t1
   169a4:	24e60002 	addiu	a2,a3,2
   169a8:	0e0001c8 	jal	0x8000720
   169ac:	30c4ffff 	andi	a0,a2,0xffff
   169b0:	3c040800 	lui	a0,0x800
   169b4:	8c843b6c 	lw	a0,15212(a0)
   169b8:	3c030800 	lui	v1,0x800
   169bc:	8c633b74 	lw	v1,15220(v1)
   169c0:	00832823 	subu	a1,a0,v1
   169c4:	3c010800 	lui	at,0x800
   169c8:	ac253b6c 	sw	a1,15212(at)
   169cc:	14a00006 	bnez	a1,0x169e8
   169d0:	00000000 	nop
   169d4:	3c0a0800 	lui	t2,0x800
   169d8:	8d4a3b8c 	lw	t2,15244(t2)
   169dc:	35460040 	ori	a2,t2,0x40
   169e0:	3c010800 	lui	at,0x800
   169e4:	ac263b8c 	sw	a2,15244(at)
   169e8:	12400043 	beqz	s2,0x16af8
   169ec:	8f8c0044 	lw	t4,68(gp)
   169f0:	8e2b0e10 	lw	t3,3600(s1)
   169f4:	8f920044 	lw	s2,68(gp)
   169f8:	ae4b0020 	sw	t3,32(s2)
   169fc:	8e220e18 	lw	v0,3608(s1)
   16a00:	ae420024 	sw	v0,36(s2)
   16a04:	3c040800 	lui	a0,0x800
   16a08:	94843b80 	lhu	a0,15232(a0)
   16a0c:	0e0005fb 	jal	0x80017ec
   16a10:	00000000 	nop
   16a14:	8f990050 	lw	t9,80(gp)
   16a18:	8e780010 	lw	t8,16(s3)
   16a1c:	3c010800 	lui	at,0x800
   16a20:	ac393b94 	sw	t9,15252(at)
   16a24:	0300f809 	jalr	t8
   16a28:	00000000 	nop
   16a2c:	3c0f0800 	lui	t7,0x800
   16a30:	8def3b6c 	lw	t7,15212(t7)
   16a34:	15e0ff79 	bnez	t7,0x1681c
   16a38:	8f870050 	lw	a3,80(gp)
   16a3c:	97940054 	lhu	s4,84(gp)
   16a40:	3c13800e 	lui	s3,0x800e
   16a44:	32150100 	andi	s5,s0,0x100
   16a48:	0e00062a 	jal	0x80018a8
   16a4c:	a674002c 	sh	s4,44(s3)
   16a50:	16a00046 	bnez	s5,0x16b6c
   16a54:	32030010 	andi	v1,s0,0x10
   16a58:	5460004d 	bnezl	v1,0x16b90
   16a5c:	8ee50004 	lw	a1,4(s7)
   16a60:	32070040 	andi	a3,s0,0x40
   16a64:	54e0001d 	bnezl	a3,0x16adc
   16a68:	8ef00008 	lw	s0,8(s7)
   16a6c:	8ee4000c 	lw	a0,12(s7)
   16a70:	0080f809 	jalr	a0
   16a74:	00000000 	nop
   16a78:	8fbf0038 	lw	ra,56(sp)
   16a7c:	8fb70034 	lw	s7,52(sp)
   16a80:	8fb60030 	lw	s6,48(sp)
   16a84:	8fb5002c 	lw	s5,44(sp)
   16a88:	8fb40028 	lw	s4,40(sp)
   16a8c:	8fb30024 	lw	s3,36(sp)
   16a90:	8fb20020 	lw	s2,32(sp)
   16a94:	8fb1001c 	lw	s1,28(sp)
   16a98:	8fb00018 	lw	s0,24(sp)
   16a9c:	03e00008 	jr	ra
   16aa0:	27bd0040 	addiu	sp,sp,64
   16aa4:	92090109 	lbu	t1,265(s0)
   16aa8:	8f88003c 	lw	t0,60(gp)
   16aac:	00093e00 	sll	a3,t1,0x18
   16ab0:	00e83025 	or	a2,a3,t0
   16ab4:	ae060080 	sw	a2,128(s0)
   16ab8:	8e230020 	lw	v1,32(s1)
   16abc:	8e240024 	lw	a0,36(s1)
   16ac0:	afa30010 	sw	v1,16(sp)
   16ac4:	ae030e14 	sw	v1,3604(s0)
   16ac8:	8fa20010 	lw	v0,16(sp)
   16acc:	ae020e10 	sw	v0,3600(s0)
   16ad0:	ae040e1c 	sw	a0,3612(s0)
   16ad4:	0a00096e 	j	0x80025b8
   16ad8:	ae040e18 	sw	a0,3608(s0)
   16adc:	0200f809 	jalr	s0
   16ae0:	00000000 	nop
   16ae4:	8ee4000c 	lw	a0,12(s7)
   16ae8:	0080f809 	jalr	a0
   16aec:	00000000 	nop
   16af0:	0a000a26 	j	0x8002898
   16af4:	8fbf0038 	lw	ra,56(sp)
   16af8:	240e0001 	li	t6,1
   16afc:	240d0001 	li	t5,1
   16b00:	a5800020 	sh	zero,32(t4)
   16b04:	a58e0022 	sh	t6,34(t4)
   16b08:	0a000a08 	j	0x8002820
   16b0c:	ad8d0024 	sw	t5,36(t4)
   16b10:	3c010800 	lui	at,0x800
   16b14:	ac203b70 	sw	zero,15216(at)
   16b18:	0a00099e 	j	0x8002678
   16b1c:	8e710000 	lw	s1,0(s3)
   16b20:	3c010800 	lui	at,0x800
   16b24:	ac253b70 	sw	a1,15216(at)
   16b28:	0a00099e 	j	0x8002678
   16b2c:	8e710000 	lw	s1,0(s3)
   16b30:	92110109 	lbu	s1,265(s0)
   16b34:	00002821 	move	a1,zero
   16b38:	0e000670 	jal	0x80019c0
   16b3c:	322400ff 	andi	a0,s1,0xff
   16b40:	8fbf0038 	lw	ra,56(sp)
   16b44:	8fb70034 	lw	s7,52(sp)
   16b48:	8fb60030 	lw	s6,48(sp)
   16b4c:	8fb5002c 	lw	s5,44(sp)
   16b50:	8fb40028 	lw	s4,40(sp)
   16b54:	8fb30024 	lw	s3,36(sp)
   16b58:	8fb20020 	lw	s2,32(sp)
   16b5c:	8fb1001c 	lw	s1,28(sp)
   16b60:	8fb00018 	lw	s0,24(sp)
   16b64:	03e00008 	jr	ra
   16b68:	27bd0040 	addiu	sp,sp,64
   16b6c:	3c1f8000 	lui	ra,0x8000
   16b70:	93f60109 	lbu	s6,265(ra)
   16b74:	00002821 	move	a1,zero
   16b78:	0e00073f 	jal	0x8001cfc
   16b7c:	32c400ff 	andi	a0,s6,0xff
   16b80:	32030010 	andi	v1,s0,0x10
   16b84:	5060ffb7 	beqzl	v1,0x16a64
   16b88:	32070040 	andi	a3,s0,0x40
   16b8c:	8ee50004 	lw	a1,4(s7)
   16b90:	00a0f809 	jalr	a1
   16b94:	00000000 	nop
   16b98:	0a000a20 	j	0x8002880
   16b9c:	32070040 	andi	a3,s0,0x40
   16ba0:	5240ffa7 	beqzl	s2,0x16a40
   16ba4:	97940054 	lhu	s4,84(gp)
   16ba8:	8eb60e14 	lw	s6,3604(s5)
   16bac:	8f930044 	lw	s3,68(gp)
   16bb0:	ae760020 	sw	s6,32(s3)
   16bb4:	8eb40e1c 	lw	s4,3612(s5)
   16bb8:	ae740024 	sw	s4,36(s3)
   16bbc:	0a000a17 	j	0x800285c
   16bc0:	97940054 	lhu	s4,84(gp)
   16bc4:	8f820014 	lw	v0,20(gp)
   16bc8:	00042180 	sll	a0,a0,0x6
   16bcc:	03e00008 	jr	ra
   16bd0:	00821021 	addu	v0,a0,v0
   16bd4:	3c078008 	lui	a3,0x8008
   16bd8:	34e20080 	ori	v0,a3,0x80
   16bdc:	90430069 	lbu	v1,105(v0)
   16be0:	00804021 	move	t0,a0
   16be4:	10600009 	beqz	v1,0x16c0c
   16be8:	3c040100 	lui	a0,0x100
   16bec:	3c070800 	lui	a3,0x800
   16bf0:	8ce73b94 	lw	a3,15252(a3)
   16bf4:	8f830030 	lw	v1,48(gp)
   16bf8:	00e32023 	subu	a0,a3,v1
   16bfc:	04800008 	bltz	a0,0x16c20
   16c00:	9389001c 	lbu	t1,28(gp)
   16c04:	14e30003 	bne	a3,v1,0x16c14
   16c08:	01002021 	move	a0,t0
   16c0c:	03e00008 	jr	ra
   16c10:	00801021 	move	v0,a0
   16c14:	3c040100 	lui	a0,0x100
   16c18:	03e00008 	jr	ra
   16c1c:	00801021 	move	v0,a0
   16c20:	1120000b 	beqz	t1,0x16c50
   16c24:	00673823 	subu	a3,v1,a3
   16c28:	3c0d8000 	lui	t5,0x8000
   16c2c:	35ac0980 	ori	t4,t5,0x980
   16c30:	918b007c 	lbu	t3,124(t4)
   16c34:	316a0002 	andi	t2,t3,0x2
   16c38:	11400020 	beqz	t2,0x16cbc
   16c3c:	24090034 	li	t1,52
   16c40:	00e9702b 	sltu	t6,a3,t1
   16c44:	15c0fff1 	bnez	t6,0x16c0c
   16c48:	01002021 	move	a0,t0
   16c4c:	00e93823 	subu	a3,a3,t1
   16c50:	2403fffc 	li	v1,-4
   16c54:	00a3c824 	and	t9,a1,v1
   16c58:	00e3c024 	and	t8,a3,v1
   16c5c:	00f9782b 	sltu	t7,a3,t9
   16c60:	15e0ffea 	bnez	t7,0x16c0c
   16c64:	03082021 	addu	a0,t8,t0
   16c68:	30c40003 	andi	a0,a2,0x3
   16c6c:	00041023 	negu	v0,a0
   16c70:	14c00014 	bnez	a2,0x16cc4
   16c74:	30490003 	andi	t1,v0,0x3
   16c78:	00003021 	move	a2,zero
   16c7c:	00a97821 	addu	t7,a1,t1
   16c80:	01e67021 	addu	t6,t7,a2
   16c84:	00ee682b 	sltu	t5,a3,t6
   16c88:	11a0ffe0 	beqz	t5,0x16c0c
   16c8c:	3c040100 	lui	a0,0x100
   16c90:	2d380001 	sltiu	t8,t1,1
   16c94:	0006c82b 	sltu	t9,zero,a2
   16c98:	01054821 	addu	t1,t0,a1
   16c9c:	03193824 	and	a3,t8,t9
   16ca0:	14e0ffda 	bnez	a3,0x16c0c
   16ca4:	2524fffc 	addiu	a0,t1,-4
   16ca8:	2402fffc 	li	v0,-4
   16cac:	00a21824 	and	v1,a1,v0
   16cb0:	00682021 	addu	a0,v1,t0
   16cb4:	03e00008 	jr	ra
   16cb8:	00801021 	move	v0,a0
   16cbc:	0a000a97 	j	0x8002a5c
   16cc0:	24090030 	li	t1,48
   16cc4:	3c0c8000 	lui	t4,0x8000
   16cc8:	35860980 	ori	a2,t4,0x980
   16ccc:	90cb007c 	lbu	t3,124(a2)
   16cd0:	316a0004 	andi	t2,t3,0x4
   16cd4:	1540ffe9 	bnez	t2,0x16c7c
   16cd8:	24060004 	li	a2,4
   16cdc:	0a000aa6 	j	0x8002a98
   16ce0:	00003021 	move	a2,zero
   16ce4:	3c030800 	lui	v1,0x800
   16ce8:	8c63005c 	lw	v1,92(v1)
   16cec:	8f820018 	lw	v0,24(gp)
   16cf0:	27bdffe8 	addiu	sp,sp,-24
   16cf4:	afbf0014 	sw	ra,20(sp)
   16cf8:	10620005 	beq	v1,v0,0x16d10
   16cfc:	afb00010 	sw	s0,16(sp)
   16d00:	000329c0 	sll	a1,v1,0x7
   16d04:	24a40280 	addiu	a0,a1,640
   16d08:	af840014 	sw	a0,20(gp)
   16d0c:	af830018 	sw	v1,24(gp)
   16d10:	3c108000 	lui	s0,0x8000
   16d14:	36030a00 	ori	v1,s0,0xa00
   16d18:	94650032 	lhu	a1,50(v1)
   16d1c:	0e000a78 	jal	0x80029e0
   16d20:	30a43fff 	andi	a0,a1,0x3fff
   16d24:	8e040100 	lw	a0,256(s0)
   16d28:	3c180080 	lui	t8,0x80
   16d2c:	370f0003 	ori	t7,t8,0x3
   16d30:	0082c821 	addu	t9,a0,v0
   16d34:	2402ff80 	li	v0,-128
   16d38:	03226024 	and	t4,t9,v0
   16d3c:	3329007f 	andi	t1,t9,0x7f
   16d40:	000cf940 	sll	ra,t4,0x5
   16d44:	03e94025 	or	t0,ra,t1
   16d48:	332e0078 	andi	t6,t9,0x78
   16d4c:	3c0d1000 	lui	t5,0x1000
   16d50:	010d5025 	or	t2,t0,t5
   16d54:	01cf5825 	or	t3,t6,t7
   16d58:	ae0c0028 	sw	t4,40(s0)
   16d5c:	36080980 	ori	t0,s0,0x980
   16d60:	ae0c080c 	sw	t4,2060(s0)
   16d64:	ae0b082c 	sw	t3,2092(s0)
   16d68:	ae0a0830 	sw	t2,2096(s0)
   16d6c:	91030069 	lbu	v1,105(t0)
   16d70:	3c06800c 	lui	a2,0x800c
   16d74:	01263821 	addu	a3,t1,a2
   16d78:	10600006 	beqz	v1,0x16d94
   16d7c:	af870034 	sw	a3,52(gp)
   16d80:	8d09003c 	lw	t1,60(t0)
   16d84:	8d06006c 	lw	a2,108(t0)
   16d88:	01263823 	subu	a3,t1,a2
   16d8c:	18e0007f 	blez	a3,0x16f8c
   16d90:	00000000 	nop
   16d94:	3c0c8008 	lui	t4,0x8008
   16d98:	358b0080 	ori	t3,t4,0x80
   16d9c:	3c0a8000 	lui	t2,0x8000
   16da0:	a1600069 	sb	zero,105(t3)
   16da4:	35500980 	ori	s0,t2,0x980
   16da8:	8e020038 	lw	v0,56(s0)
   16dac:	3c068000 	lui	a2,0x8000
   16db0:	34c50a00 	ori	a1,a2,0xa00
   16db4:	90ad003c 	lbu	t5,60(a1)
   16db8:	31a80020 	andi	t0,t5,0x20
   16dbc:	11000019 	beqz	t0,0x16e24
   16dc0:	af820030 	sw	v0,48(gp)
   16dc4:	240e0001 	li	t6,1
   16dc8:	3c198000 	lui	t9,0x8000
   16dcc:	37300a00 	ori	s0,t9,0xa00
   16dd0:	a38e001c 	sb	t6,28(gp)
   16dd4:	af800024 	sw	zero,36(gp)
   16dd8:	8e040024 	lw	a0,36(s0)
   16ddc:	8f850024 	lw	a1,36(gp)
   16de0:	24180008 	li	t8,8
   16de4:	af800020 	sw	zero,32(gp)
   16de8:	af800028 	sw	zero,40(gp)
   16dec:	3c010800 	lui	at,0x800
   16df0:	a4383b7e 	sh	t8,15230(at)
   16df4:	3c010800 	lui	at,0x800
   16df8:	a4203b92 	sh	zero,15250(at)
   16dfc:	0e000a7c 	jal	0x80029f0
   16e00:	00003021 	move	a2,zero
   16e04:	920f003c 	lbu	t7,60(s0)
   16e08:	8fbf0014 	lw	ra,20(sp)
   16e0c:	8fb00010 	lw	s0,16(sp)
   16e10:	000f7142 	srl	t6,t7,0x5
   16e14:	af82002c 	sw	v0,44(gp)
   16e18:	27bd0018 	addiu	sp,sp,24
   16e1c:	03e00008 	jr	ra
   16e20:	31c20001 	andi	v0,t6,0x1
   16e24:	90b90032 	lbu	t9,50(a1)
   16e28:	240f0001 	li	t7,1
   16e2c:	333800ff 	andi	t8,t9,0xff
   16e30:	00182182 	srl	a0,t8,0x6
   16e34:	108f003f 	beq	a0,t7,0x16f34
   16e38:	241f0002 	li	ra,2
   16e3c:	109f0062 	beq	a0,ra,0x16fc8
   16e40:	34c20ac0 	ori	v0,a2,0xac0
   16e44:	3c038000 	lui	v1,0x8000
   16e48:	34640a00 	ori	a0,v1,0xa00
   16e4c:	8c990024 	lw	t9,36(a0)
   16e50:	1720001d 	bnez	t9,0x16ec8
   16e54:	34660900 	ori	a2,v1,0x900
   16e58:	90830030 	lbu	v1,48(a0)
   16e5c:	241f0005 	li	ra,5
   16e60:	3062003f 	andi	v0,v1,0x3f
   16e64:	105f004c 	beq	v0,ra,0x16f98
   16e68:	24050001 	li	a1,1
   16e6c:	8f860020 	lw	a2,32(gp)
   16e70:	a385001c 	sb	a1,28(gp)
   16e74:	af860028 	sw	a2,40(gp)
   16e78:	af860024 	sw	a2,36(gp)
   16e7c:	3c198000 	lui	t9,0x8000
   16e80:	37300a00 	ori	s0,t9,0xa00
   16e84:	8e040024 	lw	a0,36(s0)
   16e88:	8f850024 	lw	a1,36(gp)
   16e8c:	24180008 	li	t8,8
   16e90:	3c010800 	lui	at,0x800
   16e94:	a4383b7e 	sh	t8,15230(at)
   16e98:	3c010800 	lui	at,0x800
   16e9c:	a4203b92 	sh	zero,15250(at)
   16ea0:	0e000a7c 	jal	0x80029f0
   16ea4:	00000000 	nop
   16ea8:	920f003c 	lbu	t7,60(s0)
   16eac:	8fbf0014 	lw	ra,20(sp)
   16eb0:	8fb00010 	lw	s0,16(sp)
   16eb4:	000f7142 	srl	t6,t7,0x5
   16eb8:	af82002c 	sw	v0,44(gp)
   16ebc:	27bd0018 	addiu	sp,sp,24
   16ec0:	03e00008 	jr	ra
   16ec4:	31c20001 	andi	v0,t6,0x1
   16ec8:	8c880008 	lw	t0,8(a0)
   16ecc:	8c8d0024 	lw	t5,36(a0)
   16ed0:	8ccb0064 	lw	t3,100(a2)
   16ed4:	3c198000 	lui	t9,0x8000
   16ed8:	37300a00 	ori	s0,t9,0xa00
   16edc:	af8b0024 	sw	t3,36(gp)
   16ee0:	a380001c 	sb	zero,28(gp)
   16ee4:	8e040024 	lw	a0,36(s0)
   16ee8:	8f860020 	lw	a2,32(gp)
   16eec:	8f850024 	lw	a1,36(gp)
   16ef0:	010d6023 	subu	t4,t0,t5
   16ef4:	24180008 	li	t8,8
   16ef8:	af8c0028 	sw	t4,40(gp)
   16efc:	3c010800 	lui	at,0x800
   16f00:	a4383b7e 	sh	t8,15230(at)
   16f04:	3c010800 	lui	at,0x800
   16f08:	a4203b92 	sh	zero,15250(at)
   16f0c:	0e000a7c 	jal	0x80029f0
   16f10:	00000000 	nop
   16f14:	920f003c 	lbu	t7,60(s0)
   16f18:	8fbf0014 	lw	ra,20(sp)
   16f1c:	8fb00010 	lw	s0,16(sp)
   16f20:	000f7142 	srl	t6,t7,0x5
   16f24:	af82002c 	sw	v0,44(gp)
   16f28:	27bd0018 	addiu	sp,sp,24
   16f2c:	03e00008 	jr	ra
   16f30:	31c20001 	andi	v0,t6,0x1
   16f34:	90a70030 	lbu	a3,48(a1)
   16f38:	30e3003f 	andi	v1,a3,0x3f
   16f3c:	50640028 	beql	v1,a0,0x16fe0
   16f40:	34c50ac0 	ori	a1,a2,0xac0
   16f44:	8caa0024 	lw	t2,36(a1)
   16f48:	15400022 	bnez	t2,0x16fd4
   16f4c:	34c80900 	ori	t0,a2,0x900
   16f50:	8cab0048 	lw	t3,72(a1)
   16f54:	3c0c7fff 	lui	t4,0x7fff
   16f58:	3585ffff 	ori	a1,t4,0xffff
   16f5c:	01651024 	and	v0,t3,a1
   16f60:	3c188000 	lui	t8,0x8000
   16f64:	af820020 	sw	v0,32(gp)
   16f68:	37050900 	ori	a1,t8,0x900
   16f6c:	8f8e0020 	lw	t6,32(gp)
   16f70:	8caf0060 	lw	t7,96(a1)
   16f74:	01cf682b 	sltu	t5,t6,t7
   16f78:	15a00002 	bnez	t5,0x16f84
   16f7c:	01c02021 	move	a0,t6
   16f80:	8ca40060 	lw	a0,96(a1)
   16f84:	0a000b18 	j	0x8002c60
   16f88:	af840020 	sw	a0,32(gp)
   16f8c:	8d02006c 	lw	v0,108(t0)
   16f90:	0a000af3 	j	0x8002bcc
   16f94:	3c068000 	lui	a2,0x8000
   16f98:	8c890048 	lw	t1,72(a0)
   16f9c:	8f860020 	lw	a2,32(gp)
   16fa0:	3c0a7fff 	lui	t2,0x7fff
   16fa4:	3550ffff 	ori	s0,t2,0xffff
   16fa8:	01303824 	and	a3,t1,s0
   16fac:	3c048008 	lui	a0,0x8008
   16fb0:	24050001 	li	a1,1
   16fb4:	af870028 	sw	a3,40(gp)
   16fb8:	ac80006c 	sw	zero,108(a0)
   16fbc:	a385001c 	sb	a1,28(gp)
   16fc0:	0a000b26 	j	0x8002c98
   16fc4:	af860024 	sw	a2,36(gp)
   16fc8:	8c440014 	lw	a0,20(v0)
   16fcc:	0a000b18 	j	0x8002c60
   16fd0:	af840020 	sw	a0,32(gp)
   16fd4:	8d020068 	lw	v0,104(t0)
   16fd8:	0a000b60 	j	0x8002d80
   16fdc:	3c188000 	lui	t8,0x8000
   16fe0:	34c40980 	ori	a0,a2,0x980
   16fe4:	8c860070 	lw	a2,112(a0)
   16fe8:	8cb00014 	lw	s0,20(a1)
   16fec:	00d0482b 	sltu	t1,a2,s0
   16ff0:	11200004 	beqz	t1,0x17004
   16ff4:	00000000 	nop
   16ff8:	8c820070 	lw	v0,112(a0)
   16ffc:	0a000b60 	j	0x8002d80
   17000:	3c188000 	lui	t8,0x8000
   17004:	8ca20014 	lw	v0,20(a1)
   17008:	0a000b60 	j	0x8002d80
   1700c:	3c188000 	lui	t8,0x8000
   17010:	8f850024 	lw	a1,36(gp)
   17014:	27bdffe0 	addiu	sp,sp,-32
   17018:	afbf0018 	sw	ra,24(sp)
   1701c:	afb10014 	sw	s1,20(sp)
   17020:	14a00008 	bnez	a1,0x17044
   17024:	afb00010 	sw	s0,16(sp)
   17028:	3c048000 	lui	a0,0x8000
   1702c:	34870a00 	ori	a3,a0,0xa00
   17030:	90e60030 	lbu	a2,48(a3)
   17034:	24020005 	li	v0,5
   17038:	30c3003f 	andi	v1,a2,0x3f
   1703c:	106200be 	beq	v1,v0,0x17338
   17040:	34840900 	ori	a0,a0,0x900
   17044:	8f910020 	lw	s1,32(gp)
   17048:	00a08021 	move	s0,a1
   1704c:	3c048000 	lui	a0,0x8000
   17050:	348e0a00 	ori	t6,a0,0xa00
   17054:	8dcd0004 	lw	t5,4(t6)
   17058:	3c060800 	lui	a2,0x800
   1705c:	8cc63b70 	lw	a2,15216(a2)
   17060:	31a73fff 	andi	a3,t5,0x3fff
   17064:	00e6602b 	sltu	t4,a3,a2
   17068:	55800001 	bnezl	t4,0x17070
   1706c:	00e03021 	move	a2,a3
   17070:	938f001c 	lbu	t7,28(gp)
   17074:	11e00076 	beqz	t7,0x17250
   17078:	00d0102b 	sltu	v0,a2,s0
   1707c:	34990980 	ori	t9,a0,0x980
   17080:	9338007c 	lbu	t8,124(t9)
   17084:	33040002 	andi	a0,t8,0x2
   17088:	10800077 	beqz	a0,0x17268
   1708c:	24030034 	li	v1,52
   17090:	00c3f82b 	sltu	ra,a2,v1
   17094:	17e000dd 	bnez	ra,0x1740c
   17098:	00c33023 	subu	a2,a2,v1
   1709c:	00d0102b 	sltu	v0,a2,s0
   170a0:	3c010800 	lui	at,0x800
   170a4:	a4233b7c 	sh	v1,15228(at)
   170a8:	1440006d 	bnez	v0,0x17260
   170ac:	02001821 	move	v1,s0
   170b0:	3c040800 	lui	a0,0x800
   170b4:	8c843b6c 	lw	a0,15212(a0)
   170b8:	0064282b 	sltu	a1,v1,a0
   170bc:	54a00001 	bnezl	a1,0x170c4
   170c0:	00602021 	move	a0,v1
   170c4:	3c058000 	lui	a1,0x8000
   170c8:	34a90a00 	ori	t1,a1,0xa00
   170cc:	9128003c 	lbu	t0,60(t1)
   170d0:	3c010800 	lui	at,0x800
   170d4:	ac243b74 	sw	a0,15220(at)
   170d8:	31030020 	andi	v1,t0,0x20
   170dc:	14600002 	bnez	v1,0x170e8
   170e0:	00004821 	move	t1,zero
   170e4:	8ca90e18 	lw	t1,3608(a1)
   170e8:	8f88002c 	lw	t0,44(gp)
   170ec:	0128502b 	sltu	t2,t1,t0
   170f0:	1140005f 	beqz	t2,0x17270
   170f4:	00000000 	nop
   170f8:	3c050800 	lui	a1,0x800
   170fc:	8ca53b74 	lw	a1,15220(a1)
   17100:	00a96021 	addu	t4,a1,t1
   17104:	010c582b 	sltu	t3,t0,t4
   17108:	1160005c 	beqz	t3,0x1727c
   1710c:	00b0682b 	sltu	t5,a1,s0
   17110:	01093823 	subu	a3,t0,t1
   17114:	00e02821 	move	a1,a3
   17118:	3c010800 	lui	at,0x800
   1711c:	ac273b74 	sw	a3,15220(at)
   17120:	12000003 	beqz	s0,0x17130
   17124:	2403fffc 	li	v1,-4
   17128:	10b00093 	beq	a1,s0,0x17378
   1712c:	322b0003 	andi	t3,s1,0x3
   17130:	00a31024 	and	v0,a1,v1
   17134:	3c010800 	lui	at,0x800
   17138:	a4203b92 	sh	zero,15250(at)
   1713c:	3c010800 	lui	at,0x800
   17140:	ac223b74 	sw	v0,15220(at)
   17144:	00402821 	move	a1,v0
   17148:	8f840024 	lw	a0,36(gp)
   1714c:	12040006 	beq	s0,a0,0x17168
   17150:	3c0a8008 	lui	t2,0x8008
   17154:	8d4b006c 	lw	t3,108(t2)
   17158:	02002021 	move	a0,s0
   1715c:	af910020 	sw	s1,32(gp)
   17160:	25700001 	addiu	s0,t3,1
   17164:	ad50006c 	sw	s0,108(t2)
   17168:	8f8c0028 	lw	t4,40(gp)
   1716c:	00858823 	subu	s1,a0,a1
   17170:	af910024 	sw	s1,36(gp)
   17174:	01852023 	subu	a0,t4,a1
   17178:	af840028 	sw	a0,40(gp)
   1717c:	12200002 	beqz	s1,0x17188
   17180:	24070018 	li	a3,24
   17184:	24070010 	li	a3,16
   17188:	3c0f8008 	lui	t7,0x8008
   1718c:	35e60080 	ori	a2,t7,0x80
   17190:	90ce0068 	lbu	t6,104(a2)
   17194:	3c010800 	lui	at,0x800
   17198:	a0273b90 	sb	a3,15248(at)
   1719c:	24070001 	li	a3,1
   171a0:	31cd00ff 	andi	t5,t6,0xff
   171a4:	11a7004a 	beq	t5,a3,0x172d0
   171a8:	00000000 	nop
   171ac:	14800018 	bnez	a0,0x17210
   171b0:	00002821 	move	a1,zero
   171b4:	3c0c8000 	lui	t4,0x8000
   171b8:	91850109 	lbu	a1,265(t4)
   171bc:	35910980 	ori	s1,t4,0x980
   171c0:	8e2b0018 	lw	t3,24(s1)
   171c4:	30a500ff 	andi	a1,a1,0xff
   171c8:	24a30001 	addiu	v1,a1,1
   171cc:	000b8602 	srl	s0,t3,0x18
   171d0:	3206007f 	andi	a2,s0,0x7f
   171d4:	306a007f 	andi	t2,v1,0x7f
   171d8:	11460085 	beq	t2,a2,0x173f0
   171dc:	2407ff80 	li	a3,-128
   171e0:	3c048008 	lui	a0,0x8008
   171e4:	34890080 	ori	t1,a0,0x80
   171e8:	a123004c 	sb	v1,76(t1)
   171ec:	3c080800 	lui	t0,0x800
   171f0:	8d083b8c 	lw	t0,15244(t0)
   171f4:	240f0002 	li	t7,2
   171f8:	3c010800 	lui	at,0x800
   171fc:	a02f3bd1 	sb	t7,15313(at)
   17200:	350e0008 	ori	t6,t0,0x8
   17204:	3c010800 	lui	at,0x800
   17208:	ac2e3b8c 	sw	t6,15244(at)
   1720c:	24050010 	li	a1,16
   17210:	3c028000 	lui	v0,0x8000
   17214:	345f0a00 	ori	ra,v0,0xa00
   17218:	93f9003c 	lbu	t9,60(ra)
   1721c:	33380020 	andi	t8,t9,0x20
   17220:	13000005 	beqz	t8,0x17238
   17224:	00a02021 	move	a0,a1
   17228:	24030001 	li	v1,1
   1722c:	3c010800 	lui	at,0x800
   17230:	ac233b74 	sw	v1,15220(at)
   17234:	34a40001 	ori	a0,a1,0x1
   17238:	8fbf0018 	lw	ra,24(sp)
   1723c:	8fb10014 	lw	s1,20(sp)
   17240:	8fb00010 	lw	s0,16(sp)
   17244:	00801021 	move	v0,a0
   17248:	03e00008 	jr	ra
   1724c:	27bd0020 	addiu	sp,sp,32
   17250:	3c010800 	lui	at,0x800
   17254:	a4203b7c 	sh	zero,15228(at)
   17258:	1040ff95 	beqz	v0,0x170b0
   1725c:	02001821 	move	v1,s0
   17260:	0a000bb3 	j	0x8002ecc
   17264:	00c01821 	move	v1,a2
   17268:	0a000bab 	j	0x8002eac
   1726c:	24030030 	li	v1,48
   17270:	3c050800 	lui	a1,0x800
   17274:	8ca53b74 	lw	a1,15220(a1)
   17278:	00b0682b 	sltu	t5,a1,s0
   1727c:	11a0ffa8 	beqz	t5,0x17120
   17280:	00000000 	nop
   17284:	3c040800 	lui	a0,0x800
   17288:	94843b7c 	lhu	a0,15228(a0)
   1728c:	00857821 	addu	t7,a0,a1
   17290:	01e7702b 	sltu	t6,t7,a3
   17294:	11c00024 	beqz	t6,0x17328
   17298:	2ca30004 	sltiu	v1,a1,4
   1729c:	3c1f6000 	lui	ra,0x6000
   172a0:	8ff95404 	lw	t9,21508(ra)
   172a4:	3338003f 	andi	t8,t9,0x3f
   172a8:	1300001f 	beqz	t8,0x17328
   172ac:	00000000 	nop
   172b0:	3c020800 	lui	v0,0x800
   172b4:	8c4200a4 	lw	v0,164(v0)
   172b8:	1040ffdf 	beqz	v0,0x17238
   172bc:	24040042 	li	a0,66
   172c0:	14a00019 	bnez	a1,0x17328
   172c4:	8fbf0018 	lw	ra,24(sp)
   172c8:	0a000c16 	j	0x8003058
   172cc:	00000000 	nop
   172d0:	1528ffb6 	bne	t1,t0,0x171ac
   172d4:	00000000 	nop
   172d8:	8cc30018 	lw	v1,24(a2)
   172dc:	3c198000 	lui	t9,0x8000
   172e0:	241f0002 	li	ra,2
   172e4:	00791025 	or	v0,v1,t9
   172e8:	acc20018 	sw	v0,24(a2)
   172ec:	37380a00 	ori	t8,t9,0xa00
   172f0:	a0df0068 	sb	ra,104(a2)
   172f4:	9309003c 	lbu	t1,60(t8)
   172f8:	24040004 	li	a0,4
   172fc:	00a01021 	move	v0,a1
   17300:	31280020 	andi	t0,t1,0x20
   17304:	3c010800 	lui	at,0x800
   17308:	a0243bd1 	sb	a0,15313(at)
   1730c:	11000002 	beqz	t0,0x17318
   17310:	24050010 	li	a1,16
   17314:	24020001 	li	v0,1
   17318:	3c010800 	lui	at,0x800
   1731c:	ac223b6c 	sw	v0,15212(at)
   17320:	0a000c0c 	j	0x8003030
   17324:	3c028000 	lui	v0,0x8000
   17328:	1060ff7d 	beqz	v1,0x17120
   1732c:	24040042 	li	a0,66
   17330:	0a000c16 	j	0x8003058
   17334:	8fbf0018 	lw	ra,24(sp)
   17338:	8f880028 	lw	t0,40(gp)
   1733c:	8c890060 	lw	t1,96(a0)
   17340:	0109282b 	sltu	a1,t0,t1
   17344:	14a00002 	bnez	a1,0x17350
   17348:	01008821 	move	s1,t0
   1734c:	8c910060 	lw	s1,96(a0)
   17350:	3c0b8000 	lui	t3,0x8000
   17354:	8d640e18 	lw	a0,3608(t3)
   17358:	240a0001 	li	t2,1
   1735c:	02202821 	move	a1,s1
   17360:	02203021 	move	a2,s1
   17364:	a38a001c 	sb	t2,28(gp)
   17368:	0e000a7c 	jal	0x80029f0
   1736c:	02208021 	move	s0,s1
   17370:	0a000b9a 	j	0x8002e68
   17374:	af82002c 	sw	v0,44(gp)
   17378:	000b5023 	negu	t2,t3
   1737c:	12200007 	beqz	s1,0x1739c
   17380:	31440003 	andi	a0,t2,0x3
   17384:	3c0e8000 	lui	t6,0x8000
   17388:	35cd0980 	ori	t5,t6,0x980
   1738c:	91a7007c 	lbu	a3,124(t5)
   17390:	30ec0004 	andi	t4,a3,0x4
   17394:	15800019 	bnez	t4,0x173fc
   17398:	248f0004 	addiu	t7,a0,4
   1739c:	3c010800 	lui	at,0x800
   173a0:	a4243b92 	sh	a0,15250(at)
   173a4:	3c190800 	lui	t9,0x800
   173a8:	97393b92 	lhu	t9,15250(t9)
   173ac:	0325c021 	addu	t8,t9,a1
   173b0:	00d8202b 	sltu	a0,a2,t8
   173b4:	1080ff65 	beqz	a0,0x1714c
   173b8:	8f840024 	lw	a0,36(gp)
   173bc:	2ca60005 	sltiu	a2,a1,5
   173c0:	14c0ff9d 	bnez	a2,0x17238
   173c4:	24040042 	li	a0,66
   173c8:	30bf0003 	andi	ra,a1,0x3
   173cc:	17e00002 	bnez	ra,0x173d8
   173d0:	00bf1823 	subu	v1,a1,ra
   173d4:	24a3fffc 	addiu	v1,a1,-4
   173d8:	3c010800 	lui	at,0x800
   173dc:	ac233b74 	sw	v1,15220(at)
   173e0:	3c010800 	lui	at,0x800
   173e4:	a4203b92 	sh	zero,15250(at)
   173e8:	0a000bd9 	j	0x8002f64
   173ec:	00602821 	move	a1,v1
   173f0:	00a76824 	and	t5,a1,a3
   173f4:	0a000bff 	j	0x8002ffc
   173f8:	01a71826 	xor	v1,t5,a3
   173fc:	3c010800 	lui	at,0x800
   17400:	a42f3b92 	sh	t7,15250(at)
   17404:	0a000c70 	j	0x80031c0
   17408:	00000000 	nop
   1740c:	3c010800 	lui	at,0x800
   17410:	ac203b74 	sw	zero,15220(at)
   17414:	0a000c15 	j	0x8003054
   17418:	24040042 	li	a0,66
   1741c:	8f830028 	lw	v1,40(gp)
   17420:	3c0b8000 	lui	t3,0x8000
   17424:	356a0a00 	ori	t2,t3,0xa00
   17428:	14600006 	bnez	v1,0x17444
   1742c:	00001021 	move	v0,zero
   17430:	91460030 	lbu	a2,48(t2)
   17434:	24050005 	li	a1,5
   17438:	30c400ff 	andi	a0,a2,0xff
   1743c:	10850003 	beq	a0,a1,0x1744c
   17440:	00000000 	nop
   17444:	03e00008 	jr	ra
   17448:	00000000 	nop
   1744c:	91490048 	lbu	t1,72(t2)
   17450:	312800ff 	andi	t0,t1,0xff
   17454:	000839c2 	srl	a3,t0,0x7
   17458:	14e0fffa 	bnez	a3,0x17444
   1745c:	3c048008 	lui	a0,0x8008
   17460:	3c060800 	lui	a2,0x800
   17464:	94c63b7c 	lhu	a2,15228(a2)
   17468:	3c030800 	lui	v1,0x800
   1746c:	8c633b94 	lw	v1,15252(v1)
   17470:	3c050800 	lui	a1,0x800
   17474:	8ca53b74 	lw	a1,15220(a1)
   17478:	3c180800 	lui	t8,0x800
   1747c:	97183b92 	lhu	t8,15250(t8)
   17480:	0066c821 	addu	t9,v1,a2
   17484:	8c8e0004 	lw	t6,4(a0)
   17488:	03257821 	addu	t7,t9,a1
   1748c:	01f86821 	addu	t5,t7,t8
   17490:	01ae6023 	subu	t4,t5,t6
   17494:	1980001d 	blez	t4,0x1750c
   17498:	00000000 	nop
   1749c:	9158004c 	lbu	t8,76(t2)
   174a0:	8f8d0034 	lw	t5,52(gp)
   174a4:	956e0e10 	lhu	t6,3600(t3)
   174a8:	330f00ff 	andi	t7,t8,0xff
   174ac:	8da90004 	lw	t1,4(t5)
   174b0:	01cf3023 	subu	a2,t6,t7
   174b4:	8daa0000 	lw	t2,0(t5)
   174b8:	30cfffff 	andi	t7,a2,0xffff
   174bc:	000f6100 	sll	t4,t7,0x4
   174c0:	012c2821 	addu	a1,t1,t4
   174c4:	00003821 	move	a3,zero
   174c8:	01472021 	addu	a0,t2,a3
   174cc:	00ac182b 	sltu	v1,a1,t4
   174d0:	0083c821 	addu	t9,a0,v1
   174d4:	ada50004 	sw	a1,4(t5)
   174d8:	adb90000 	sw	t9,0(t5)
   174dc:	91b8000a 	lbu	t8,10(t5)
   174e0:	01f87021 	addu	t6,t7,t8
   174e4:	a1ae000a 	sb	t6,10(t5)
   174e8:	956c0e12 	lhu	t4,3602(t3)
   174ec:	8f8a0034 	lw	t2,52(gp)
   174f0:	a54c0008 	sh	t4,8(t2)
   174f4:	95490038 	lhu	t1,56(t2)
   174f8:	25280001 	addiu	t0,t1,1
   174fc:	a5480038 	sh	t0,56(t2)
   17500:	9147000d 	lbu	a3,13(t2)
   17504:	34eb0008 	ori	t3,a3,0x8
   17508:	a14b000d 	sb	t3,13(t2)
   1750c:	03e00008 	jr	ra
   17510:	00000000 	nop
   17514:	27bdffd8 	addiu	sp,sp,-40
   17518:	afb00018 	sw	s0,24(sp)
   1751c:	938f001c 	lbu	t7,28(gp)
   17520:	8fb00014 	lw	s0,20(sp)
   17524:	3c087fff 	lui	t0,0x7fff
   17528:	8f870024 	lw	a3,36(gp)
   1752c:	3c0c8000 	lui	t4,0x8000
   17530:	3518ffff 	ori	t8,t0,0xffff
   17534:	afbf0020 	sw	ra,32(sp)
   17538:	afb1001c 	sw	s1,28(sp)
   1753c:	35990a00 	ori	t9,t4,0xa00
   17540:	02181824 	and	v1,s0,t8
   17544:	932a003c 	lbu	t2,60(t9)
   17548:	000f5fc0 	sll	t3,t7,0x1f
   1754c:	3c02bfff 	lui	v0,0xbfff
   17550:	2cf00001 	sltiu	s0,a3,1
   17554:	3449ffff 	ori	t1,v0,0xffff
   17558:	006bf825 	or	ra,v1,t3
   1755c:	3c080800 	lui	t0,0x800
   17560:	8d083b94 	lw	t0,15252(t0)
   17564:	8f990030 	lw	t9,48(gp)
   17568:	3c180800 	lui	t8,0x800
   1756c:	97183b8a 	lhu	t8,15242(t8)
   17570:	03e95824 	and	t3,ra,t1
   17574:	00107f80 	sll	t7,s0,0x1e
   17578:	3c07efff 	lui	a3,0xefff
   1757c:	3c05f0ff 	lui	a1,0xf0ff
   17580:	016f1825 	or	v1,t3,t7
   17584:	3c118000 	lui	s1,0x8000
   17588:	31490020 	andi	t1,t2,0x20
   1758c:	34e2ffff 	ori	v0,a3,0xffff
   17590:	34adffff 	ori	t5,a1,0xffff
   17594:	362e0980 	ori	t6,s1,0x980
   17598:	27a50010 	addiu	a1,sp,16
   1759c:	24060002 	li	a2,2
   175a0:	01194023 	subu	t0,t0,t9
   175a4:	270a0002 	addiu	t2,t8,2
   175a8:	00621824 	and	v1,v1,v0
   175ac:	00808021 	move	s0,a0
   175b0:	15200002 	bnez	t1,0x175bc
   175b4:	00005821 	move	t3,zero
   175b8:	8d8b0e1c 	lw	t3,3612(t4)
   175bc:	a7aa0012 	sh	t2,18(sp)
   175c0:	0500003a 	bltz	t0,0x176ac
   175c4:	24070000 	li	a3,0
   175c8:	30ef00ff 	andi	t7,a3,0xff
   175cc:	000f3f00 	sll	a3,t7,0x1c
   175d0:	00674025 	or	t0,v1,a3
   175d4:	3c028008 	lui	v0,0x8008
   175d8:	afa80014 	sw	t0,20(sp)
   175dc:	344b0080 	ori	t3,v0,0x80
   175e0:	916a0068 	lbu	t2,104(t3)
   175e4:	3c0f0800 	lui	t7,0x800
   175e8:	91ef3b91 	lbu	t7,15249(t7)
   175ec:	3c09dfff 	lui	t1,0xdfff
   175f0:	353fffff 	ori	ra,t1,0xffff
   175f4:	000a602b 	sltu	t4,zero,t2
   175f8:	3c020800 	lui	v0,0x800
   175fc:	94423b84 	lhu	v0,15236(v0)
   17600:	a3af0011 	sb	t7,17(sp)
   17604:	011fc024 	and	t8,t0,ra
   17608:	000ccf40 	sll	t9,t4,0x1d
   1760c:	03191825 	or	v1,t8,t9
   17610:	8fa70010 	lw	a3,16(sp)
   17614:	afa30014 	sw	v1,20(sp)
   17618:	3c1f0800 	lui	ra,0x800
   1761c:	93ff3b93 	lbu	ra,15251(ra)
   17620:	a7a20016 	sh	v0,22(sp)
   17624:	8fa80014 	lw	t0,20(sp)
   17628:	00ed4824 	and	t1,a3,t5
   1762c:	3c0b0100 	lui	t3,0x100
   17630:	3c0a0fff 	lui	t2,0xfff
   17634:	012bc825 	or	t9,t1,t3
   17638:	33f80003 	andi	t8,ra,0x3
   1763c:	354cffff 	ori	t4,t2,0xffff
   17640:	010d7824 	and	t7,t0,t5
   17644:	3c027000 	lui	v0,0x7000
   17648:	032c3824 	and	a3,t9,t4
   1764c:	00181e00 	sll	v1,t8,0x18
   17650:	00e24825 	or	t1,a3,v0
   17654:	01e35825 	or	t3,t7,v1
   17658:	afab0014 	sw	t3,20(sp)
   1765c:	afa90010 	sw	t1,16(sp)
   17660:	91df007c 	lbu	ra,124(t6)
   17664:	a3bf0015 	sb	ra,21(sp)
   17668:	0e000063 	jal	0x800018c
   1766c:	00000000 	nop
   17670:	362d0a00 	ori	t5,s1,0xa00
   17674:	91a6003c 	lbu	a2,60(t5)
   17678:	30c40020 	andi	a0,a2,0x20
   1767c:	10800006 	beqz	a0,0x17698
   17680:	26020008 	addiu	v0,s0,8
   17684:	3c110800 	lui	s1,0x800
   17688:	96313b80 	lhu	s1,15232(s1)
   1768c:	262effff 	addiu	t6,s1,-1
   17690:	3c010800 	lui	at,0x800
   17694:	a42e3b80 	sh	t6,15232(at)
   17698:	8fbf0020 	lw	ra,32(sp)
   1769c:	8fb1001c 	lw	s1,28(sp)
   176a0:	8fb00018 	lw	s0,24(sp)
   176a4:	03e00008 	jr	ra
   176a8:	27bd0028 	addiu	sp,sp,40
   176ac:	8f8a002c 	lw	t2,44(gp)
   176b0:	016a602b 	sltu	t4,t3,t2
   176b4:	5580ffc4 	bnezl	t4,0x175c8
   176b8:	24070001 	li	a3,1
   176bc:	0a000cfa 	j	0x80033e8
   176c0:	30ef00ff 	andi	t7,a3,0xff
   176c4:	9383001c 	lbu	v1,28(gp)
   176c8:	3c028000 	lui	v0,0x8000
   176cc:	27bdffd8 	addiu	sp,sp,-40
   176d0:	34480a00 	ori	t0,v0,0xa00
   176d4:	00805021 	move	t2,a0
   176d8:	afbf0020 	sw	ra,32(sp)
   176dc:	34460ac0 	ori	a2,v0,0xac0
   176e0:	01002821 	move	a1,t0
   176e4:	1060000e 	beqz	v1,0x17720
   176e8:	34440980 	ori	a0,v0,0x980
   176ec:	91070030 	lbu	a3,48(t0)
   176f0:	240b0005 	li	t3,5
   176f4:	8f890020 	lw	t1,32(gp)
   176f8:	30ec003f 	andi	t4,a3,0x3f
   176fc:	118b000b 	beq	t4,t3,0x1772c
   17700:	00003821 	move	a3,zero
   17704:	afa90010 	sw	t1,16(sp)
   17708:	3c0b8008 	lui	t3,0x8008
   1770c:	8d69006c 	lw	t1,108(t3)
   17710:	afaa0018 	sw	t2,24(sp)
   17714:	0e00012b 	jal	0x80004ac
   17718:	afa90014 	sw	t1,20(sp)
   1771c:	a380001c 	sb	zero,28(gp)
   17720:	8fbf0020 	lw	ra,32(sp)
   17724:	03e00008 	jr	ra
   17728:	27bd0028 	addiu	sp,sp,40
   1772c:	8d1f0048 	lw	ra,72(t0)
   17730:	3c180800 	lui	t8,0x800
   17734:	8f183b74 	lw	t8,15220(t8)
   17738:	8f990028 	lw	t9,40(gp)
   1773c:	3c027fff 	lui	v0,0x7fff
   17740:	8d080044 	lw	t0,68(t0)
   17744:	3443ffff 	ori	v1,v0,0xffff
   17748:	afa90010 	sw	t1,16(sp)
   1774c:	3c0b8008 	lui	t3,0x8008
   17750:	8d69006c 	lw	t1,108(t3)
   17754:	03e37024 	and	t6,ra,v1
   17758:	03197821 	addu	t7,t8,t9
   1775c:	01cf6823 	subu	t5,t6,t7
   17760:	01a83821 	addu	a3,t5,t0
   17764:	afaa0018 	sw	t2,24(sp)
   17768:	0e00012b 	jal	0x80004ac
   1776c:	afa90014 	sw	t1,20(sp)
   17770:	0a000d4f 	j	0x800353c
   17774:	a380001c 	sb	zero,28(gp)
   17778:	3c058000 	lui	a1,0x8000
   1777c:	34a60a00 	ori	a2,a1,0xa00
   17780:	90c7003c 	lbu	a3,60(a2)
   17784:	3c060800 	lui	a2,0x800
   17788:	94c63b92 	lhu	a2,15250(a2)
   1778c:	3c020800 	lui	v0,0x800
   17790:	8c423b8c 	lw	v0,15244(v0)
   17794:	30e30020 	andi	v1,a3,0x20
   17798:	00062400 	sll	a0,a2,0x10
   1779c:	1060001e 	beqz	v1,0x17818
   177a0:	00443825 	or	a3,v0,a0
   177a4:	3c088008 	lui	t0,0x8008
   177a8:	35050080 	ori	a1,t0,0x80
   177ac:	90a30068 	lbu	v1,104(a1)
   177b0:	00003021 	move	a2,zero
   177b4:	24080001 	li	t0,1
   177b8:	00002021 	move	a0,zero
   177bc:	24030001 	li	v1,1
   177c0:	3c058000 	lui	a1,0x8000
   177c4:	8cac0178 	lw	t4,376(a1)
   177c8:	0580fffe 	bltz	t4,0x177c4
   177cc:	00000000 	nop
   177d0:	aca80148 	sw	t0,328(a1)
   177d4:	a4a40144 	sh	a0,324(a1)
   177d8:	a4a30146 	sh	v1,326(a1)
   177dc:	3c030800 	lui	v1,0x800
   177e0:	8c633b94 	lw	v1,15252(v1)
   177e4:	3c188008 	lui	t8,0x8008
   177e8:	370f0080 	ori	t7,t8,0x80
   177ec:	aca3014c 	sw	v1,332(a1)
   177f0:	3c190800 	lui	t9,0x800
   177f4:	93393b91 	lbu	t9,15249(t9)
   177f8:	3c0d1000 	lui	t5,0x1000
   177fc:	a0b90152 	sb	t9,338(a1)
   17800:	aca70154 	sw	a3,340(a1)
   17804:	a4a60158 	sh	a2,344(a1)
   17808:	91ee004c 	lbu	t6,76(t7)
   1780c:	a0ae016d 	sb	t6,365(a1)
   17810:	03e00008 	jr	ra
   17814:	acad0178 	sw	t5,376(a1)
   17818:	8ca80e1c 	lw	t0,3612(a1)
   1781c:	3c0b0800 	lui	t3,0x800
   17820:	8d6b3b74 	lw	t3,15220(t3)
   17824:	94aa0e16 	lhu	t2,3606(a1)
   17828:	94a90e14 	lhu	t1,3604(a1)
   1782c:	01663021 	addu	a2,t3,a2
   17830:	3143ffff 	andi	v1,t2,0xffff
   17834:	0a000d77 	j	0x80035dc
   17838:	3124ffff 	andi	a0,t1,0xffff
   1783c:	3c048000 	lui	a0,0x8000
   17840:	34830a00 	ori	v1,a0,0xa00
   17844:	9065003c 	lbu	a1,60(v1)
   17848:	30a20020 	andi	v0,a1,0x20
   1784c:	1040001c 	beqz	v0,0x178c0
   17850:	00000000 	nop
   17854:	00003021 	move	a2,zero
   17858:	00002021 	move	a0,zero
   1785c:	00001821 	move	v1,zero
   17860:	3c058000 	lui	a1,0x8000
   17864:	8ca90178 	lw	t1,376(a1)
   17868:	0520fffe 	bltz	t1,0x17864
   1786c:	00000000 	nop
   17870:	aca60148 	sw	a2,328(a1)
   17874:	3c0e0800 	lui	t6,0x800
   17878:	8dce3b94 	lw	t6,15252(t6)
   1787c:	240dff91 	li	t5,-111
   17880:	240c0040 	li	t4,64
   17884:	3c0b8008 	lui	t3,0x8008
   17888:	a4a30144 	sh	v1,324(a1)
   1788c:	356a0080 	ori	t2,t3,0x80
   17890:	a4a40146 	sh	a0,326(a1)
   17894:	acae014c 	sw	t6,332(a1)
   17898:	a0ad0152 	sb	t5,338(a1)
   1789c:	acac0154 	sw	t4,340(a1)
   178a0:	a4a00158 	sh	zero,344(a1)
   178a4:	90a30109 	lbu	v1,265(a1)
   178a8:	9144004c 	lbu	a0,76(t2)
   178ac:	90a60109 	lbu	a2,265(a1)
   178b0:	3c041000 	lui	a0,0x1000
   178b4:	a0a6016d 	sb	a2,365(a1)
   178b8:	03e00008 	jr	ra
   178bc:	aca40178 	sw	a0,376(a1)
   178c0:	8c860e18 	lw	a2,3608(a0)
   178c4:	94880e12 	lhu	t0,3602(a0)
   178c8:	94870e10 	lhu	a3,3600(a0)
   178cc:	3104ffff 	andi	a0,t0,0xffff
   178d0:	0a000d9f 	j	0x800367c
   178d4:	30e3ffff 	andi	v1,a3,0xffff
   178d8:	3c048000 	lui	a0,0x8000
   178dc:	34830a00 	ori	v1,a0,0xa00
   178e0:	9065003c 	lbu	a1,60(v1)
   178e4:	30a20020 	andi	v0,a1,0x20
   178e8:	10400026 	beqz	v0,0x17984
   178ec:	27bdfff8 	addiu	sp,sp,-8
   178f0:	24090001 	li	t1,1
   178f4:	00003821 	move	a3,zero
   178f8:	24080001 	li	t0,1
   178fc:	3c068000 	lui	a2,0x8000
   17900:	8cc40178 	lw	a0,376(a2)
   17904:	0480fffe 	bltz	a0,0x17900
   17908:	00000000 	nop
   1790c:	90ca0109 	lbu	t2,265(a2)
   17910:	3c040800 	lui	a0,0x800
   17914:	90843bd1 	lbu	a0,15313(a0)
   17918:	3c1880ff 	lui	t8,0x80ff
   1791c:	a3aa0003 	sb	t2,3(sp)
   17920:	8fa30000 	lw	v1,0(sp)
   17924:	3085007f 	andi	a1,a0,0x7f
   17928:	370fffff 	ori	t7,t8,0xffff
   1792c:	00661025 	or	v0,v1,a2
   17930:	afa20000 	sw	v0,0(sp)
   17934:	90d9010a 	lbu	t9,266(a2)
   17938:	a3a00002 	sb	zero,2(sp)
   1793c:	00056e00 	sll	t5,a1,0x18
   17940:	a3b90001 	sb	t9,1(sp)
   17944:	8fae0000 	lw	t6,0(sp)
   17948:	240a3000 	li	t2,12288
   1794c:	27bd0008 	addiu	sp,sp,8
   17950:	01cf6024 	and	t4,t6,t7
   17954:	018d5825 	or	t3,t4,t5
   17958:	accb014c 	sw	t3,332(a2)
   1795c:	acca0154 	sw	t2,340(a2)
   17960:	a4c00158 	sh	zero,344(a2)
   17964:	acc90148 	sw	t1,328(a2)
   17968:	a4c70144 	sh	a3,324(a2)
   1796c:	2409ff80 	li	t1,-128
   17970:	a4c80146 	sh	t0,326(a2)
   17974:	3c081000 	lui	t0,0x1000
   17978:	a0c90152 	sb	t1,338(a2)
   1797c:	03e00008 	jr	ra
   17980:	acc80178 	sw	t0,376(a2)
   17984:	8c890e18 	lw	t1,3608(a0)
   17988:	94870e12 	lhu	a3,3602(a0)
   1798c:	94860e10 	lhu	a2,3600(a0)
   17990:	30e8ffff 	andi	t0,a3,0xffff
   17994:	0a000dc6 	j	0x8003718
   17998:	30c7ffff 	andi	a3,a2,0xffff
   1799c:	27bdffe8 	addiu	sp,sp,-24
   179a0:	afb00010 	sw	s0,16(sp)
   179a4:	3c108000 	lui	s0,0x8000
   179a8:	afbf0014 	sw	ra,20(sp)
   179ac:	36180a00 	ori	t8,s0,0xa00
   179b0:	970f0032 	lhu	t7,50(t8)
   179b4:	0e000a78 	jal	0x80029e0
   179b8:	31e43fff 	andi	a0,t7,0x3fff
   179bc:	8e0e0100 	lw	t6,256(s0)
   179c0:	240dff80 	li	t5,-128
   179c4:	3c042000 	lui	a0,0x2000
   179c8:	01c25821 	addu	t3,t6,v0
   179cc:	016d6024 	and	t4,t3,t5
   179d0:	000c4940 	sll	t1,t4,0x5
   179d4:	316a007f 	andi	t2,t3,0x7f
   179d8:	012a4025 	or	t0,t1,t2
   179dc:	01043825 	or	a3,t0,a0
   179e0:	3c048008 	lui	a0,0x8008
   179e4:	ae070830 	sw	a3,2096(s0)
   179e8:	34860080 	ori	a2,a0,0x80
   179ec:	90c50068 	lbu	a1,104(a2)
   179f0:	24030002 	li	v1,2
   179f4:	30a200ff 	andi	v0,a1,0xff
   179f8:	10430004 	beq	v0,v1,0x17a0c
   179fc:	8f9f0020 	lw	ra,32(gp)
   17a00:	8f990024 	lw	t9,36(gp)
   17a04:	ac9f0068 	sw	ra,104(a0)
   17a08:	ac990064 	sw	t9,100(a0)
   17a0c:	8fbf0014 	lw	ra,20(sp)
   17a10:	8fb00010 	lw	s0,16(sp)
   17a14:	03e00008 	jr	ra
   17a18:	27bd0018 	addiu	sp,sp,24
   17a1c:	3c0a0800 	lui	t2,0x800
   17a20:	254a3658 	addiu	t2,t2,13912
   17a24:	3c090800 	lui	t1,0x800
   17a28:	252936f4 	addiu	t1,t1,14068
   17a2c:	3c080800 	lui	t0,0x800
   17a30:	25082b00 	addiu	t0,t0,11008
   17a34:	3c070800 	lui	a3,0x800
   17a38:	24e737b8 	addiu	a3,a3,14264
   17a3c:	3c060800 	lui	a2,0x800
   17a40:	24c634e0 	addiu	a2,a2,13536
   17a44:	3c050800 	lui	a1,0x800
   17a48:	24a53238 	addiu	a1,a1,12856
   17a4c:	3c040800 	lui	a0,0x800
   17a50:	24842e2c 	addiu	a0,a0,11820
   17a54:	3c030800 	lui	v1,0x800
   17a58:	24633594 	addiu	v1,v1,13716
   17a5c:	3c020800 	lui	v0,0x800
   17a60:	24423330 	addiu	v0,v0,13104
   17a64:	3c010800 	lui	at,0x800
   17a68:	ac2a3b50 	sw	t2,15184(at)
   17a6c:	3c010800 	lui	at,0x800
   17a70:	ac293b4c 	sw	t1,15180(at)
   17a74:	3c010800 	lui	at,0x800
   17a78:	ac283b48 	sw	t0,15176(at)
   17a7c:	3c010800 	lui	at,0x800
   17a80:	ac273b54 	sw	a3,15188(at)
   17a84:	3c010800 	lui	at,0x800
   17a88:	ac263b64 	sw	a2,15204(at)
   17a8c:	3c010800 	lui	at,0x800
   17a90:	ac253b5c 	sw	a1,15196(at)
   17a94:	3c010800 	lui	at,0x800
   17a98:	ac243b58 	sw	a0,15192(at)
   17a9c:	3c010800 	lui	at,0x800
   17aa0:	ac233b68 	sw	v1,15208(at)
   17aa4:	3c010800 	lui	at,0x800
   17aa8:	ac223b60 	sw	v0,15200(at)
   17aac:	03e00008 	jr	ra
   17ab0:	00000000 	nop
   17ab4:	80000940 	lb	zero,2368(zero)
   17ab8:	80000900 	lb	zero,2304(zero)
   17abc:	80080100 	lb	t0,256(zero)
   17ac0:	80080080 	lb	t0,128(zero)
   17ac4:	80080000 	lb	t0,0(zero)
   17ac8:	800e0000 	lb	t6,0(zero)
   17acc:	80080080 	lb	t0,128(zero)
   17ad0:	80080000 	lb	t0,0(zero)
   17ad4:	80000a80 	lb	zero,2688(zero)
   17ad8:	80000a00 	lb	zero,2560(zero)
   17adc:	80000980 	lb	zero,2432(zero)
   17ae0:	80000900 	lb	zero,2304(zero)