../git/linux-firmware/./bnx2/bnx2-mips-09-4.6.17.fw:     file format binary


Disassembly of section .data:

00000000 <.data>:
       0:	080000f8 	j	0x3e0
       4:	08000000 	j	0x0
       8:	00004ac8 	.word	0x4ac8
       c:	000000c8 	.word	0xc8
	...
      1c:	08004ac8 	j	0x12b20
      20:	00000030 	tge	zero,zero
      24:	00004b90 	.word	0x4b90
      28:	08000080 	j	0x200
      2c:	08000000 	j	0x0
      30:	000053a8 	.word	0x53a8
      34:	00004bc0 	sll	t1,zero,0xf
      38:	08005540 	j	0x15500
      3c:	00000084 	.word	0x84
      40:	00009f68 	.word	0x9f68
      44:	080053a8 	j	0x14ea0
      48:	0000016c 	.word	0x16c
      4c:	00009fec 	.word	0x9fec
      50:	080031d8 	j	0xc760
      54:	08000000 	j	0x0
      58:	00007908 	.word	0x7908
      5c:	0000a158 	.word	0xa158
	...
      6c:	08007908 	j	0x1e420
      70:	00000124 	.word	0x124
      74:	00011a60 	.word	0x11a60
      78:	08000488 	j	0x1220
      7c:	08000400 	j	0x1000
      80:	000013a4 	.word	0x13a4
      84:	00011b84 	.word	0x11b84
	...
      94:	080017a4 	j	0x5e90
      98:	00000004 	sllv	zero,zero,zero
      9c:	00012f28 	.word	0x12f28
      a0:	08000098 	j	0x260
      a4:	08000000 	j	0x0
      a8:	00003afc 	dsll32	a3,zero,0xb
      ac:	00012f2c 	.word	0x12f2c
	...
      bc:	08003afc 	j	0xebf0
      c0:	00000030 	tge	zero,zero
      c4:	00016a28 	.word	0x16a28
      c8:	0a00003e 	j	0x80000f8
      cc:	00000000 	nop
      d0:	00000000 	nop
      d4:	0000000d 	break
      d8:	636f6d34 	daddi	t7,k1,27956
      dc:	2e362e31 	sltiu	s6,s1,11825
      e0:	36000000 	ori	zero,s0,0x0
      e4:	04061002 	.word	0x4061002
      e8:	00000000 	nop
      ec:	00000003 	sra	zero,zero,0x0
      f0:	00000014 	dsllv	zero,zero,zero
      f4:	00000032 	tlt	zero,zero
      f8:	00000003 	sra	zero,zero,0x0
	...
     110:	00000010 	mfhi	zero
     114:	00000136 	tne	zero,zero,0x4
     118:	0000ea60 	.word	0xea60
     11c:	00000001 	.word	0x1
	...
     12c:	00000008 	jr	zero
     130:	00000000 	nop
	...
     160:	00000002 	srl	zero,zero,0x0
	...
     188:	00000010 	mfhi	zero
	...
     1c4:	10000003 	b	0x1d4
     1c8:	00000000 	nop
     1cc:	0000000d 	break
     1d0:	0000000d 	break
     1d4:	3c020800 	lui	v0,0x800
     1d8:	24424b20 	addiu	v0,v0,19232
     1dc:	3c030800 	lui	v1,0x800
     1e0:	24634c18 	addiu	v1,v1,19480
     1e4:	ac400000 	sw	zero,0(v0)
     1e8:	0043202b 	sltu	a0,v0,v1
     1ec:	1480fffd 	bnez	a0,0x1e4
     1f0:	24420004 	addiu	v0,v0,4
     1f4:	3c1d0800 	lui	sp,0x800
     1f8:	37bd9ffc 	ori	sp,sp,0x9ffc
     1fc:	03a0f021 	move	s8,sp
     200:	3c100800 	lui	s0,0x800
     204:	261000f8 	addiu	s0,s0,248
     208:	3c1c0800 	lui	gp,0x800
     20c:	279c4b20 	addiu	gp,gp,19232
     210:	0e000273 	jal	0x80009cc
     214:	00000000 	nop
     218:	0000000d 	break
     21c:	27bdffe8 	addiu	sp,sp,-24
     220:	3c028000 	lui	v0,0x8000
     224:	afb00010 	sw	s0,16(sp)
     228:	afbf0014 	sw	ra,20(sp)
     22c:	34500100 	ori	s0,v0,0x100
     230:	92020009 	lbu	v0,9(s0)
     234:	1040001a 	beqz	v0,0x2a0
     238:	24030001 	li	v1,1
     23c:	3c020800 	lui	v0,0x800
     240:	8c420020 	lw	v0,32(v0)
     244:	10400016 	beqz	v0,0x2a0
     248:	00001821 	move	v1,zero
     24c:	0e000d71 	jal	0x80035c4
     250:	00000000 	nop
     254:	96030008 	lhu	v1,8(s0)
     258:	3c060800 	lui	a2,0x800
     25c:	94c64bfe 	lhu	a2,19454(a2)
     260:	8e040018 	lw	a0,24(s0)
     264:	8f82002c 	lw	v0,44(gp)
     268:	9605000c 	lhu	a1,12(s0)
     26c:	00031c00 	sll	v1,v1,0x10
     270:	00661825 	or	v1,v1,a2
     274:	ac440000 	sw	a0,0(v0)
     278:	ac450004 	sw	a1,4(v0)
     27c:	24040001 	li	a0,1
     280:	ac400008 	sw	zero,8(v0)
     284:	ac40000c 	sw	zero,12(v0)
     288:	ac400010 	sw	zero,16(v0)
     28c:	ac400014 	sw	zero,20(v0)
     290:	ac400018 	sw	zero,24(v0)
     294:	0e000d98 	jal	0x8003660
     298:	ac43001c 	sw	v1,28(v0)
     29c:	00001821 	move	v1,zero
     2a0:	8fbf0014 	lw	ra,20(sp)
     2a4:	8fb00010 	lw	s0,16(sp)
     2a8:	00601021 	move	v0,v1
     2ac:	03e00008 	jr	ra
     2b0:	27bd0018 	addiu	sp,sp,24
     2b4:	27bdffe8 	addiu	sp,sp,-24
     2b8:	afbf0010 	sw	ra,16(sp)
     2bc:	3c028000 	lui	v0,0x8000
     2c0:	94420108 	lhu	v0,264(v0)
     2c4:	30437000 	andi	v1,v0,0x7000
     2c8:	24022000 	li	v0,8192
     2cc:	1062000a 	beq	v1,v0,0x2f8
     2d0:	28642001 	slti	a0,v1,8193
     2d4:	54800012 	bnezl	a0,0x320
     2d8:	8fbf0010 	lw	ra,16(sp)
     2dc:	24024000 	li	v0,16384
     2e0:	10620008 	beq	v1,v0,0x304
     2e4:	24026000 	li	v0,24576
     2e8:	1062000a 	beq	v1,v0,0x314
     2ec:	8fbf0010 	lw	ra,16(sp)
     2f0:	0a000097 	j	0x800025c
     2f4:	00001021 	move	v0,zero
     2f8:	8fbf0010 	lw	ra,16(sp)
     2fc:	0a000055 	j	0x8000154
     300:	27bd0018 	addiu	sp,sp,24
     304:	0e000433 	jal	0x80010cc
     308:	00000000 	nop
     30c:	0a000096 	j	0x8000258
     310:	8fbf0010 	lw	ra,16(sp)
     314:	0e000c81 	jal	0x8003204
     318:	00000000 	nop
     31c:	8fbf0010 	lw	ra,16(sp)
     320:	00001021 	move	v0,zero
     324:	03e00008 	jr	ra
     328:	27bd0018 	addiu	sp,sp,24
     32c:	3c020800 	lui	v0,0x800
     330:	8c420020 	lw	v0,32(v0)
     334:	27bdffe8 	addiu	sp,sp,-24
     338:	10400028 	beqz	v0,0x3dc
     33c:	afbf0010 	sw	ra,16(sp)
     340:	0e000d71 	jal	0x80035c4
     344:	00000000 	nop
     348:	3c058000 	lui	a1,0x8000
     34c:	94a20108 	lhu	v0,264(a1)
     350:	94a3010c 	lhu	v1,268(a1)
     354:	8f86002c 	lw	a2,44(gp)
     358:	3042003e 	andi	v0,v0,0x3e
     35c:	3063ffff 	andi	v1,v1,0xffff
     360:	00021400 	sll	v0,v0,0x10
     364:	00431025 	or	v0,v0,v1
     368:	acc20000 	sw	v0,0(a2)
     36c:	8ca20100 	lw	v0,256(a1)
     370:	3c070800 	lui	a3,0x800
     374:	94e74bfe 	lhu	a3,19454(a3)
     378:	8fbf0010 	lw	ra,16(sp)
     37c:	acc20004 	sw	v0,4(a2)
     380:	94a30116 	lhu	v1,278(a1)
     384:	94a4010e 	lhu	a0,270(a1)
     388:	3c022000 	lui	v0,0x2000
     38c:	00031c00 	sll	v1,v1,0x10
     390:	3084ffff 	andi	a0,a0,0xffff
     394:	00641825 	or	v1,v1,a0
     398:	acc30008 	sw	v1,8(a2)
     39c:	00e23825 	or	a3,a3,v0
     3a0:	94a20110 	lhu	v0,272(a1)
     3a4:	94a30112 	lhu	v1,274(a1)
     3a8:	24040001 	li	a0,1
     3ac:	00021400 	sll	v0,v0,0x10
     3b0:	3063ffff 	andi	v1,v1,0xffff
     3b4:	00431025 	or	v0,v0,v1
     3b8:	acc2000c 	sw	v0,12(a2)
     3bc:	94a20114 	lhu	v0,276(a1)
     3c0:	27bd0018 	addiu	sp,sp,24
     3c4:	3042ffff 	andi	v0,v0,0xffff
     3c8:	acc20010 	sw	v0,16(a2)
     3cc:	acc00014 	sw	zero,20(a2)
     3d0:	acc00018 	sw	zero,24(a2)
     3d4:	0a000d98 	j	0x8003660
     3d8:	acc7001c 	sw	a3,28(a2)
     3dc:	8fbf0010 	lw	ra,16(sp)
     3e0:	03e00008 	jr	ra
     3e4:	27bd0018 	addiu	sp,sp,24
     3e8:	3c068000 	lui	a2,0x8000
     3ec:	8cc202b8 	lw	v0,696(a2)
     3f0:	24030001 	li	v1,1
     3f4:	04410008 	bgez	v0,0x418
     3f8:	00802821 	move	a1,a0
     3fc:	3c020800 	lui	v0,0x800
     400:	8c420060 	lw	v0,96(v0)
     404:	24420001 	addiu	v0,v0,1
     408:	3c010800 	lui	at,0x800
     40c:	ac220060 	sw	v0,96(at)
     410:	03e00008 	jr	ra
     414:	00601021 	move	v0,v1
     418:	8c830020 	lw	v1,32(a0)
     41c:	94820016 	lhu	v0,22(a0)
     420:	acc30280 	sw	v1,640(a2)
     424:	2442fffc 	addiu	v0,v0,-4
     428:	a4c20284 	sh	v0,644(a2)
     42c:	3c020800 	lui	v0,0x800
     430:	8c42005c 	lw	v0,92(v0)
     434:	8c840004 	lw	a0,4(a0)
     438:	94a3000e 	lhu	v1,14(a1)
     43c:	24420001 	addiu	v0,v0,1
     440:	3c010800 	lui	at,0x800
     444:	ac22005c 	sw	v0,92(at)
     448:	3c021000 	lui	v0,0x1000
     44c:	a4c30286 	sh	v1,646(a2)
     450:	acc40288 	sw	a0,648(a2)
     454:	00001821 	move	v1,zero
     458:	acc202b8 	sw	v0,696(a2)
     45c:	03e00008 	jr	ra
     460:	00601021 	move	v0,v1
     464:	3c020800 	lui	v0,0x800
     468:	8c420020 	lw	v0,32(v0)
     46c:	27bdffe8 	addiu	sp,sp,-24
     470:	1040002b 	beqz	v0,0x520
     474:	afbf0010 	sw	ra,16(sp)
     478:	0e000d71 	jal	0x80035c4
     47c:	00000000 	nop
     480:	3c058000 	lui	a1,0x8000
     484:	94a20108 	lhu	v0,264(a1)
     488:	94a3010c 	lhu	v1,268(a1)
     48c:	8f86002c 	lw	a2,44(gp)
     490:	3042003e 	andi	v0,v0,0x3e
     494:	3063ffff 	andi	v1,v1,0xffff
     498:	00021400 	sll	v0,v0,0x10
     49c:	00431025 	or	v0,v0,v1
     4a0:	acc20000 	sw	v0,0(a2)
     4a4:	8ca20100 	lw	v0,256(a1)
     4a8:	3c070800 	lui	a3,0x800
     4ac:	94e74bfe 	lhu	a3,19454(a3)
     4b0:	8fbf0010 	lw	ra,16(sp)
     4b4:	acc20004 	sw	v0,4(a2)
     4b8:	94a30116 	lhu	v1,278(a1)
     4bc:	94a4010e 	lhu	a0,270(a1)
     4c0:	3c022000 	lui	v0,0x2000
     4c4:	00031c00 	sll	v1,v1,0x10
     4c8:	3084ffff 	andi	a0,a0,0xffff
     4cc:	00641825 	or	v1,v1,a0
     4d0:	acc30008 	sw	v1,8(a2)
     4d4:	00e23825 	or	a3,a3,v0
     4d8:	94a20110 	lhu	v0,272(a1)
     4dc:	94a30112 	lhu	v1,274(a1)
     4e0:	24040001 	li	a0,1
     4e4:	00021400 	sll	v0,v0,0x10
     4e8:	3063ffff 	andi	v1,v1,0xffff
     4ec:	00431025 	or	v0,v0,v1
     4f0:	acc2000c 	sw	v0,12(a2)
     4f4:	94a20114 	lhu	v0,276(a1)
     4f8:	27bd0018 	addiu	sp,sp,24
     4fc:	3042ffff 	andi	v0,v0,0xffff
     500:	acc20010 	sw	v0,16(a2)
     504:	8ca20118 	lw	v0,280(a1)
     508:	acc20014 	sw	v0,20(a2)
     50c:	90a2010b 	lbu	v0,267(a1)
     510:	304200ff 	andi	v0,v0,0xff
     514:	acc20018 	sw	v0,24(a2)
     518:	0a000d98 	j	0x8003660
     51c:	acc7001c 	sw	a3,28(a2)
     520:	8fbf0010 	lw	ra,16(sp)
     524:	03e00008 	jr	ra
     528:	27bd0018 	addiu	sp,sp,24
     52c:	27bdffe0 	addiu	sp,sp,-32
     530:	afb00010 	sw	s0,16(sp)
     534:	3c108000 	lui	s0,0x8000
     538:	afb20018 	sw	s2,24(sp)
     53c:	afbf001c 	sw	ra,28(sp)
     540:	afb10014 	sw	s1,20(sp)
     544:	36120100 	ori	s2,s0,0x100
     548:	9243000b 	lbu	v1,11(s2)
     54c:	2402001a 	li	v0,26
     550:	96510008 	lhu	s1,8(s2)
     554:	1462005b 	bne	v1,v0,0x6c4
     558:	00002821 	move	a1,zero
     55c:	32220001 	andi	v0,s1,0x1
     560:	10400018 	beqz	v0,0x5c4
     564:	00000000 	nop
     568:	8e420000 	lw	v0,0(s2)
     56c:	00022340 	sll	a0,v0,0xd
     570:	3c02003f 	lui	v0,0x3f
     574:	3442ffff 	ori	v0,v0,0xffff
     578:	0044102b 	sltu	v0,v0,a0
     57c:	10400004 	beqz	v0,0x590
     580:	3c030040 	lui	v1,0x40
     584:	96420014 	lhu	v0,20(s2)
     588:	0a00013b 	j	0x80004ec
     58c:	00832021 	addu	a0,a0,v1
     590:	8e030100 	lw	v1,256(s0)
     594:	24020100 	li	v0,256
     598:	54620006 	bnel	v1,v0,0x5b4
     59c:	96420014 	lhu	v0,20(s2)
     5a0:	3c028008 	lui	v0,0x8008
     5a4:	94420004 	lhu	v0,4(v0)
     5a8:	3042000f 	andi	v0,v0,0xf
     5ac:	00022500 	sll	a0,v0,0x14
     5b0:	96420014 	lhu	v0,20(s2)
     5b4:	00821025 	or	v0,a0,v0
     5b8:	ae020080 	sw	v0,128(s0)
     5bc:	0a00016f 	j	0x80005bc
     5c0:	00000000 	nop
     5c4:	3c020800 	lui	v0,0x800
     5c8:	8c420020 	lw	v0,32(v0)
     5cc:	10400028 	beqz	v0,0x670
     5d0:	00000000 	nop
     5d4:	0e000d71 	jal	0x80035c4
     5d8:	00000000 	nop
     5dc:	96020108 	lhu	v0,264(s0)
     5e0:	9603010c 	lhu	v1,268(s0)
     5e4:	8f85002c 	lw	a1,44(gp)
     5e8:	3042003e 	andi	v0,v0,0x3e
     5ec:	3063ffff 	andi	v1,v1,0xffff
     5f0:	00021400 	sll	v0,v0,0x10
     5f4:	00431025 	or	v0,v0,v1
     5f8:	aca20000 	sw	v0,0(a1)
     5fc:	8e020100 	lw	v0,256(s0)
     600:	3c060800 	lui	a2,0x800
     604:	94c64bfe 	lhu	a2,19454(a2)
     608:	aca20004 	sw	v0,4(a1)
     60c:	96030116 	lhu	v1,278(s0)
     610:	9604010e 	lhu	a0,270(s0)
     614:	3c022000 	lui	v0,0x2000
     618:	00031c00 	sll	v1,v1,0x10
     61c:	3084ffff 	andi	a0,a0,0xffff
     620:	00641825 	or	v1,v1,a0
     624:	aca30008 	sw	v1,8(a1)
     628:	00c23025 	or	a2,a2,v0
     62c:	96020110 	lhu	v0,272(s0)
     630:	96030112 	lhu	v1,274(s0)
     634:	24040001 	li	a0,1
     638:	00021400 	sll	v0,v0,0x10
     63c:	3063ffff 	andi	v1,v1,0xffff
     640:	00431025 	or	v0,v0,v1
     644:	aca2000c 	sw	v0,12(a1)
     648:	96020114 	lhu	v0,276(s0)
     64c:	3042ffff 	andi	v0,v0,0xffff
     650:	aca20010 	sw	v0,16(a1)
     654:	8e020118 	lw	v0,280(s0)
     658:	aca20014 	sw	v0,20(a1)
     65c:	9202010b 	lbu	v0,267(s0)
     660:	304200ff 	andi	v0,v0,0xff
     664:	aca20018 	sw	v0,24(a1)
     668:	0e000d98 	jal	0x8003660
     66c:	aca6001c 	sw	a2,28(a1)
     670:	3c020800 	lui	v0,0x800
     674:	8c420040 	lw	v0,64(v0)
     678:	24420001 	addiu	v0,v0,1
     67c:	3c010800 	lui	at,0x800
     680:	ac220040 	sw	v0,64(at)
     684:	3c030800 	lui	v1,0x800
     688:	8c630044 	lw	v1,68(v1)
     68c:	32220002 	andi	v0,s1,0x2
     690:	32240004 	andi	a0,s1,0x4
     694:	24630001 	addiu	v1,v1,1
     698:	3c010800 	lui	at,0x800
     69c:	ac230044 	sw	v1,68(at)
     6a0:	10800008 	beqz	a0,0x6c4
     6a4:	0002282b 	sltu	a1,zero,v0
     6a8:	02402021 	move	a0,s2
     6ac:	8fbf001c 	lw	ra,28(sp)
     6b0:	8fb20018 	lw	s2,24(sp)
     6b4:	8fb10014 	lw	s1,20(sp)
     6b8:	8fb00010 	lw	s0,16(sp)
     6bc:	0a0000c8 	j	0x8000320
     6c0:	27bd0020 	addiu	sp,sp,32
     6c4:	8fbf001c 	lw	ra,28(sp)
     6c8:	8fb20018 	lw	s2,24(sp)
     6cc:	8fb10014 	lw	s1,20(sp)
     6d0:	8fb00010 	lw	s0,16(sp)
     6d4:	00a01021 	move	v0,a1
     6d8:	03e00008 	jr	ra
     6dc:	27bd0020 	addiu	sp,sp,32
     6e0:	27bdffe0 	addiu	sp,sp,-32
     6e4:	3c058000 	lui	a1,0x8000
     6e8:	afb10014 	sw	s1,20(sp)
     6ec:	afbf0018 	sw	ra,24(sp)
     6f0:	afb00010 	sw	s0,16(sp)
     6f4:	34b10100 	ori	s1,a1,0x100
     6f8:	9223000b 	lbu	v1,11(s1)
     6fc:	24020003 	li	v0,3
     700:	14620043 	bne	v1,v0,0x810
     704:	96300008 	lhu	s0,8(s1)
     708:	32020001 	andi	v0,s0,0x1
     70c:	10400016 	beqz	v0,0x768
     710:	3c02003f 	lui	v0,0x3f
     714:	8e230000 	lw	v1,0(s1)
     718:	3442ffff 	ori	v0,v0,0xffff
     71c:	00032340 	sll	a0,v1,0xd
     720:	0044102b 	sltu	v0,v0,a0
     724:	50400005 	beqzl	v0,0x73c
     728:	24020100 	li	v0,256
     72c:	96220014 	lhu	v0,20(s1)
     730:	3c030040 	lui	v1,0x40
     734:	0a0001a4 	j	0x8000690
     738:	00832021 	addu	a0,a0,v1
     73c:	54620006 	bnel	v1,v0,0x758
     740:	96220014 	lhu	v0,20(s1)
     744:	3c028008 	lui	v0,0x8008
     748:	94420004 	lhu	v0,4(v0)
     74c:	3042000f 	andi	v0,v0,0xf
     750:	00022500 	sll	a0,v0,0x14
     754:	96220014 	lhu	v0,20(s1)
     758:	00821025 	or	v0,a0,v0
     75c:	aca20080 	sw	v0,128(a1)
     760:	0a0001af 	j	0x80006bc
     764:	00000000 	nop
     768:	0e000099 	jal	0x8000264
     76c:	00000000 	nop
     770:	3c020800 	lui	v0,0x800
     774:	8c420040 	lw	v0,64(v0)
     778:	24420001 	addiu	v0,v0,1
     77c:	3c010800 	lui	at,0x800
     780:	ac220040 	sw	v0,64(at)
     784:	3c020800 	lui	v0,0x800
     788:	8c420044 	lw	v0,68(v0)
     78c:	32030004 	andi	v1,s0,0x4
     790:	24420001 	addiu	v0,v0,1
     794:	3c010800 	lui	at,0x800
     798:	ac220044 	sw	v0,68(at)
     79c:	10600007 	beqz	v1,0x7bc
     7a0:	32020002 	andi	v0,s0,0x2
     7a4:	02202021 	move	a0,s1
     7a8:	8fbf0018 	lw	ra,24(sp)
     7ac:	8fb10014 	lw	s1,20(sp)
     7b0:	8fb00010 	lw	s0,16(sp)
     7b4:	0a0000c8 	j	0x8000320
     7b8:	27bd0020 	addiu	sp,sp,32
     7bc:	10400015 	beqz	v0,0x814
     7c0:	8fbf0018 	lw	ra,24(sp)
     7c4:	3c048000 	lui	a0,0x8000
     7c8:	8c830104 	lw	v1,260(a0)
     7cc:	3c026020 	lui	v0,0x6020
     7d0:	ac430014 	sw	v1,20(v0)
     7d4:	8c420004 	lw	v0,4(v0)
     7d8:	240301fe 	li	v1,510
     7dc:	304203ff 	andi	v0,v0,0x3ff
     7e0:	1443000c 	bne	v0,v1,0x814
     7e4:	8fbf0018 	lw	ra,24(sp)
     7e8:	8c820100 	lw	v0,256(a0)
     7ec:	000219c2 	srl	v1,v0,0x7
     7f0:	2462fffc 	addiu	v0,v1,-4
     7f4:	2c420008 	sltiu	v0,v0,8
     7f8:	10400003 	beqz	v0,0x808
     7fc:	24040002 	li	a0,2
     800:	2462fffd 	addiu	v0,v1,-3
     804:	00442004 	sllv	a0,a0,v0
     808:	3c026000 	lui	v0,0x6000
     80c:	ac446914 	sw	a0,26900(v0)
     810:	8fbf0018 	lw	ra,24(sp)
     814:	8fb10014 	lw	s1,20(sp)
     818:	8fb00010 	lw	s0,16(sp)
     81c:	00001021 	move	v0,zero
     820:	03e00008 	jr	ra
     824:	27bd0020 	addiu	sp,sp,32
     828:	3c048000 	lui	a0,0x8000
     82c:	8c830100 	lw	v1,256(a0)
     830:	24020100 	li	v0,256
     834:	50620003 	beql	v1,v0,0x844
     838:	3c028008 	lui	v0,0x8008
     83c:	0000000d 	break
     840:	3c028008 	lui	v0,0x8008
     844:	94430004 	lhu	v1,4(v0)
     848:	00001021 	move	v0,zero
     84c:	3063000f 	andi	v1,v1,0xf
     850:	00031d00 	sll	v1,v1,0x14
     854:	03e00008 	jr	ra
     858:	ac830080 	sw	v1,128(a0)
     85c:	3c028008 	lui	v0,0x8008
     860:	34420080 	ori	v0,v0,0x80
     864:	90420000 	lbu	v0,0(v0)
     868:	03e00008 	jr	ra
     86c:	af800000 	sw	zero,0(gp)
     870:	03e00008 	jr	ra
     874:	00001021 	move	v0,zero
     878:	27bdffe8 	addiu	sp,sp,-24
     87c:	3c028000 	lui	v0,0x8000
     880:	afbf0014 	sw	ra,20(sp)
     884:	afb00010 	sw	s0,16(sp)
     888:	8c430100 	lw	v1,256(v0)
     88c:	ac430020 	sw	v1,32(v0)
     890:	8c430104 	lw	v1,260(v0)
     894:	ac4300a8 	sw	v1,168(v0)
     898:	9050010b 	lbu	s0,267(v0)
     89c:	0e0001e5 	jal	0x8000794
     8a0:	321000ff 	andi	s0,s0,0xff
     8a4:	3c020800 	lui	v0,0x800
     8a8:	24424b58 	addiu	v0,v0,19288
     8ac:	00101880 	sll	v1,s0,0x2
     8b0:	2e10001d 	sltiu	s0,s0,29
     8b4:	16000005 	bnez	s0,0x8cc
     8b8:	00621021 	addu	v0,v1,v0
     8bc:	0e0001ea 	jal	0x80007a8
     8c0:	00401821 	move	v1,v0
     8c4:	0a000205 	j	0x8000814
     8c8:	00000000 	nop
     8cc:	8c420000 	lw	v0,0(v0)
     8d0:	0040f809 	jalr	v0
     8d4:	00000000 	nop
     8d8:	00401821 	move	v1,v0
     8dc:	3c020800 	lui	v0,0x800
     8e0:	8c420034 	lw	v0,52(v0)
     8e4:	10600005 	beqz	v1,0x8fc
     8e8:	24440001 	addiu	a0,v0,1
     8ec:	3c028000 	lui	v0,0x8000
     8f0:	8c430104 	lw	v1,260(v0)
     8f4:	3c026020 	lui	v0,0x6020
     8f8:	ac430014 	sw	v1,20(v0)
     8fc:	8fbf0014 	lw	ra,20(sp)
     900:	8fb00010 	lw	s0,16(sp)
     904:	3c034000 	lui	v1,0x4000
     908:	3c028000 	lui	v0,0x8000
     90c:	27bd0018 	addiu	sp,sp,24
     910:	ac430138 	sw	v1,312(v0)
     914:	3c010800 	lui	at,0x800
     918:	ac240034 	sw	a0,52(at)
     91c:	03e00008 	jr	ra
     920:	00000000 	nop
     924:	27bdffe8 	addiu	sp,sp,-24
     928:	afbf0014 	sw	ra,20(sp)
     92c:	afb00010 	sw	s0,16(sp)
     930:	3c108000 	lui	s0,0x8000
     934:	8e020140 	lw	v0,320(s0)
     938:	0e0001e5 	jal	0x8000794
     93c:	ae020020 	sw	v0,32(s0)
     940:	0e000399 	jal	0x8000e64
     944:	00000000 	nop
     948:	3c040800 	lui	a0,0x800
     94c:	24840038 	addiu	a0,a0,56
     950:	8c820000 	lw	v0,0(a0)
     954:	3c034000 	lui	v1,0x4000
     958:	ae030178 	sw	v1,376(s0)
     95c:	8fbf0014 	lw	ra,20(sp)
     960:	8fb00010 	lw	s0,16(sp)
     964:	24420001 	addiu	v0,v0,1
     968:	27bd0018 	addiu	sp,sp,24
     96c:	03e00008 	jr	ra
     970:	ac820000 	sw	v0,0(a0)
     974:	27bdffe8 	addiu	sp,sp,-24
     978:	afb00010 	sw	s0,16(sp)
     97c:	afbf0014 	sw	ra,20(sp)
     980:	3c108000 	lui	s0,0x8000
     984:	8e020180 	lw	v0,384(s0)
     988:	0e0001e5 	jal	0x8000794
     98c:	ae020020 	sw	v0,32(s0)
     990:	8e030180 	lw	v1,384(s0)
     994:	24020f00 	li	v0,3840
     998:	54620008 	bnel	v1,v0,0x9bc
     99c:	3c028008 	lui	v0,0x8008
     9a0:	8e020188 	lw	v0,392(s0)
     9a4:	3c0300e0 	lui	v1,0xe0
     9a8:	3042ffff 	andi	v0,v0,0xffff
     9ac:	00431025 	or	v0,v0,v1
     9b0:	ae020080 	sw	v0,128(s0)
     9b4:	0a00024a 	j	0x8000928
     9b8:	3c028000 	lui	v0,0x8000
     9bc:	34420080 	ori	v0,v0,0x80
     9c0:	90420000 	lbu	v0,0(v0)
     9c4:	24030050 	li	v1,80
     9c8:	304200ff 	andi	v0,v0,0xff
     9cc:	14430008 	bne	v0,v1,0x9f0
     9d0:	3c028000 	lui	v0,0x8000
     9d4:	0e000379 	jal	0x8000de4
     9d8:	00000000 	nop
     9dc:	14400004 	bnez	v0,0x9f0
     9e0:	3c028000 	lui	v0,0x8000
     9e4:	0e000967 	jal	0x800259c
     9e8:	00000000 	nop
     9ec:	3c028000 	lui	v0,0x8000
     9f0:	3c034000 	lui	v1,0x4000
     9f4:	ac4301b8 	sw	v1,440(v0)
     9f8:	3c020800 	lui	v0,0x800
     9fc:	8c42003c 	lw	v0,60(v0)
     a00:	8fbf0014 	lw	ra,20(sp)
     a04:	8fb00010 	lw	s0,16(sp)
     a08:	24420001 	addiu	v0,v0,1
     a0c:	3c010800 	lui	at,0x800
     a10:	ac22003c 	sw	v0,60(at)
     a14:	03e00008 	jr	ra
     a18:	27bd0018 	addiu	sp,sp,24
     a1c:	03e00008 	jr	ra
     a20:	00001021 	move	v0,zero
     a24:	3c058000 	lui	a1,0x8000
     a28:	34a40100 	ori	a0,a1,0x100
     a2c:	94820008 	lhu	v0,8(a0)
     a30:	30430002 	andi	v1,v0,0x2
     a34:	30420004 	andi	v0,v0,0x4
     a38:	10400003 	beqz	v0,0xa48
     a3c:	00000000 	nop
     a40:	0a0000c8 	j	0x8000320
     a44:	00000000 	nop
     a48:	10600005 	beqz	v1,0xa60
     a4c:	24040001 	li	a0,1
     a50:	3c020800 	lui	v0,0x800
     a54:	8c420084 	lw	v0,132(v0)
     a58:	0a00026f 	j	0x80009bc
     a5c:	24420001 	addiu	v0,v0,1
     a60:	8ca30104 	lw	v1,260(a1)
     a64:	8f82000c 	lw	v0,12(gp)
     a68:	10430008 	beq	v0,v1,0xa8c
     a6c:	00002021 	move	a0,zero
     a70:	8ca30104 	lw	v1,260(a1)
     a74:	3c020800 	lui	v0,0x800
     a78:	8c420084 	lw	v0,132(v0)
     a7c:	af83000c 	sw	v1,12(gp)
     a80:	24420001 	addiu	v0,v0,1
     a84:	3c010800 	lui	at,0x800
     a88:	ac220084 	sw	v0,132(at)
     a8c:	03e00008 	jr	ra
     a90:	00801021 	move	v0,a0
     a94:	27bdffe8 	addiu	sp,sp,-24
     a98:	3c036010 	lui	v1,0x6010
     a9c:	afbf0014 	sw	ra,20(sp)
     aa0:	afb00010 	sw	s0,16(sp)
     aa4:	8c655000 	lw	a1,20480(v1)
     aa8:	2402ff7f 	li	v0,-129
     aac:	3c048000 	lui	a0,0x8000
     ab0:	00a22824 	and	a1,a1,v0
     ab4:	34a5380c 	ori	a1,a1,0x380c
     ab8:	24020037 	li	v0,55
     abc:	ac655000 	sw	a1,20480(v1)
     ac0:	ac820008 	sw	v0,8(a0)
     ac4:	24020c80 	li	v0,3200
     ac8:	ac820024 	sw	v0,36(a0)
     acc:	3c060800 	lui	a2,0x800
     ad0:	24c607a8 	addiu	a2,a2,1960
     ad4:	3c020800 	lui	v0,0x800
     ad8:	24424b58 	addiu	v0,v0,19288
     adc:	2405001c 	li	a1,28
     ae0:	24a5ffff 	addiu	a1,a1,-1
     ae4:	ac460000 	sw	a2,0(v0)
     ae8:	04a1fffd 	bgez	a1,0xae0
     aec:	24420004 	addiu	v0,v0,4
     af0:	3c020800 	lui	v0,0x800
     af4:	244201ec 	addiu	v0,v0,492
     af8:	3c010800 	lui	at,0x800
     afc:	ac224b60 	sw	v0,19296(at)
     b00:	3c020800 	lui	v0,0x800
     b04:	24420618 	addiu	v0,v0,1560
     b08:	3c010800 	lui	at,0x800
     b0c:	ac224b64 	sw	v0,19300(at)
     b10:	3c020800 	lui	v0,0x800
     b14:	24420d10 	addiu	v0,v0,3344
     b18:	3c010800 	lui	at,0x800
     b1c:	ac224ba0 	sw	v0,19360(at)
     b20:	3c020800 	lui	v0,0x800
     b24:	24420464 	addiu	v0,v0,1124
     b28:	3c030800 	lui	v1,0x800
     b2c:	24630954 	addiu	v1,v1,2388
     b30:	3c040800 	lui	a0,0x800
     b34:	2484095c 	addiu	a0,a0,2396
     b38:	3c050800 	lui	a1,0x800
     b3c:	24a52c94 	addiu	a1,a1,11412
     b40:	3c010800 	lui	at,0x800
     b44:	ac224bc0 	sw	v0,19392(at)
     b48:	3c020800 	lui	v0,0x800
     b4c:	24420760 	addiu	v0,v0,1888
     b50:	3c010800 	lui	at,0x800
     b54:	ac264ba8 	sw	a2,19368(at)
     b58:	3c010800 	lui	at,0x800
     b5c:	ac254bb4 	sw	a1,19380(at)
     b60:	3c010800 	lui	at,0x800
     b64:	ac234bbc 	sw	v1,19388(at)
     b68:	3c010800 	lui	at,0x800
     b6c:	ac244bc4 	sw	a0,19396(at)
     b70:	3c010800 	lui	at,0x800
     b74:	ac224bc8 	sw	v0,19400(at)
     b78:	3c010800 	lui	at,0x800
     b7c:	ac234b5c 	sw	v1,19292(at)
     b80:	3c010800 	lui	at,0x800
     b84:	ac204b68 	sw	zero,19304(at)
     b88:	3c010800 	lui	at,0x800
     b8c:	ac204b6c 	sw	zero,19308(at)
     b90:	3c010800 	lui	at,0x800
     b94:	ac204b70 	sw	zero,19312(at)
     b98:	3c010800 	lui	at,0x800
     b9c:	ac204b74 	sw	zero,19316(at)
     ba0:	3c010800 	lui	at,0x800
     ba4:	ac204b78 	sw	zero,19320(at)
     ba8:	3c010800 	lui	at,0x800
     bac:	ac204b7c 	sw	zero,19324(at)
     bb0:	3c010800 	lui	at,0x800
     bb4:	ac204b80 	sw	zero,19328(at)
     bb8:	3c010800 	lui	at,0x800
     bbc:	ac244b84 	sw	a0,19332(at)
     bc0:	3c010800 	lui	at,0x800
     bc4:	ac204b88 	sw	zero,19336(at)
     bc8:	3c010800 	lui	at,0x800
     bcc:	ac204b8c 	sw	zero,19340(at)
     bd0:	3c010800 	lui	at,0x800
     bd4:	ac204b90 	sw	zero,19344(at)
     bd8:	3c010800 	lui	at,0x800
     bdc:	ac204b94 	sw	zero,19348(at)
     be0:	3c010800 	lui	at,0x800
     be4:	ac204b98 	sw	zero,19352(at)
     be8:	3c010800 	lui	at,0x800
     bec:	ac264b9c 	sw	a2,19356(at)
     bf0:	3c010800 	lui	at,0x800
     bf4:	ac264ba4 	sw	a2,19364(at)
     bf8:	3c010800 	lui	at,0x800
     bfc:	ac204bac 	sw	zero,19372(at)
     c00:	3c010800 	lui	at,0x800
     c04:	ac254bb0 	sw	a1,19376(at)
     c08:	3c010800 	lui	at,0x800
     c0c:	ac234bb8 	sw	v1,19384(at)
     c10:	0e00055a 	jal	0x8001568
     c14:	00000000 	nop
     c18:	3c028000 	lui	v0,0x8000
     c1c:	34420070 	ori	v0,v0,0x70
     c20:	8c420000 	lw	v0,0(v0)
     c24:	af820010 	sw	v0,16(gp)
     c28:	3c030800 	lui	v1,0x800
     c2c:	8c630020 	lw	v1,32(v1)
     c30:	8f820004 	lw	v0,4(gp)
     c34:	10430004 	beq	v0,v1,0xc48
     c38:	3c058000 	lui	a1,0x8000
     c3c:	0e000d37 	jal	0x80034dc
     c40:	af830004 	sw	v1,4(gp)
     c44:	3c058000 	lui	a1,0x8000
     c48:	34a90070 	ori	t1,a1,0x70
     c4c:	8d280000 	lw	t0,0(t1)
     c50:	8f840010 	lw	a0,16(gp)
     c54:	3c070800 	lui	a3,0x800
     c58:	8ce700bc 	lw	a3,188(a3)
     c5c:	3c060800 	lui	a2,0x800
     c60:	8cc600b8 	lw	a2,184(a2)
     c64:	01042023 	subu	a0,t0,a0
     c68:	00001021 	move	v0,zero
     c6c:	00e43821 	addu	a3,a3,a0
     c70:	00c23021 	addu	a2,a2,v0
     c74:	00e4202b 	sltu	a0,a3,a0
     c78:	00c43021 	addu	a2,a2,a0
     c7c:	3c010800 	lui	at,0x800
     c80:	ac2700bc 	sw	a3,188(at)
     c84:	3c010800 	lui	at,0x800
     c88:	ac2600b8 	sw	a2,184(at)
     c8c:	8cb00000 	lw	s0,0(a1)
     c90:	32020007 	andi	v0,s0,0x7
     c94:	1040ffe4 	beqz	v0,0xc28
     c98:	af880010 	sw	t0,16(gp)
     c9c:	8d260000 	lw	a2,0(t1)
     ca0:	3c050800 	lui	a1,0x800
     ca4:	8ca500bc 	lw	a1,188(a1)
     ca8:	3c040800 	lui	a0,0x800
     cac:	8c8400b8 	lw	a0,184(a0)
     cb0:	00c83023 	subu	a2,a2,t0
     cb4:	00a62821 	addu	a1,a1,a2
     cb8:	00001021 	move	v0,zero
     cbc:	00a6302b 	sltu	a2,a1,a2
     cc0:	00822021 	addu	a0,a0,v0
     cc4:	00862021 	addu	a0,a0,a2
     cc8:	32070001 	andi	a3,s0,0x1
     ccc:	3c010800 	lui	at,0x800
     cd0:	ac2500bc 	sw	a1,188(at)
     cd4:	3c010800 	lui	at,0x800
     cd8:	ac2400b8 	sw	a0,184(at)
     cdc:	10e00004 	beqz	a3,0xcf0
     ce0:	32020002 	andi	v0,s0,0x2
     ce4:	0e0001ec 	jal	0x80007b0
     ce8:	00000000 	nop
     cec:	32020002 	andi	v0,s0,0x2
     cf0:	10400004 	beqz	v0,0xd04
     cf4:	32020004 	andi	v0,s0,0x4
     cf8:	0e000217 	jal	0x800085c
     cfc:	00000000 	nop
     d00:	32020004 	andi	v0,s0,0x4
     d04:	5040ffc5 	beqzl	v0,0xc1c
     d08:	3c028000 	lui	v0,0x8000
     d0c:	0e00022b 	jal	0x80008ac
     d10:	00000000 	nop
     d14:	0a0002d5 	j	0x8000b54
     d18:	3c028000 	lui	v0,0x8000
     d1c:	3c029000 	lui	v0,0x9000
     d20:	34420001 	ori	v0,v0,0x1
     d24:	00822025 	or	a0,a0,v0
     d28:	3c028000 	lui	v0,0x8000
     d2c:	ac440020 	sw	a0,32(v0)
     d30:	3c038000 	lui	v1,0x8000
     d34:	8c620020 	lw	v0,32(v1)
     d38:	0440fffe 	bltz	v0,0xd34
     d3c:	00000000 	nop
     d40:	03e00008 	jr	ra
     d44:	00000000 	nop
     d48:	3c028000 	lui	v0,0x8000
     d4c:	34430001 	ori	v1,v0,0x1
     d50:	00832025 	or	a0,a0,v1
     d54:	03e00008 	jr	ra
     d58:	ac440020 	sw	a0,32(v0)
     d5c:	27bdffe0 	addiu	sp,sp,-32
     d60:	afb10014 	sw	s1,20(sp)
     d64:	afb00010 	sw	s0,16(sp)
     d68:	00808821 	move	s1,a0
     d6c:	afbf0018 	sw	ra,24(sp)
     d70:	0e000315 	jal	0x8000c54
     d74:	30b000ff 	andi	s0,a1,0xff
     d78:	8f83ffac 	lw	v1,-84(gp)
     d7c:	02202021 	move	a0,s1
     d80:	90620025 	lbu	v0,37(v1)
     d84:	02028025 	or	s0,s0,v0
     d88:	a0700025 	sb	s0,37(v1)
     d8c:	8c700018 	lw	s0,24(v1)
     d90:	3c028000 	lui	v0,0x8000
     d94:	0e000320 	jal	0x8000c80
     d98:	02028024 	and	s0,s0,v0
     d9c:	1600000a 	bnez	s0,0xdc8
     da0:	8fbf0018 	lw	ra,24(sp)
     da4:	3c038000 	lui	v1,0x8000
     da8:	8c6201f8 	lw	v0,504(v1)
     dac:	0440fffe 	bltz	v0,0xda8
     db0:	24020002 	li	v0,2
     db4:	ac7101c0 	sw	s1,448(v1)
     db8:	a06201c4 	sb	v0,452(v1)
     dbc:	3c021000 	lui	v0,0x1000
     dc0:	ac6201f8 	sw	v0,504(v1)
     dc4:	8fbf0018 	lw	ra,24(sp)
     dc8:	8fb10014 	lw	s1,20(sp)
     dcc:	8fb00010 	lw	s0,16(sp)
     dd0:	03e00008 	jr	ra
     dd4:	27bd0020 	addiu	sp,sp,32
     dd8:	27bdffb8 	addiu	sp,sp,-72
     ddc:	afbf0044 	sw	ra,68(sp)
     de0:	afb00040 	sw	s0,64(sp)
     de4:	3c078000 	lui	a3,0x8000
     de8:	8ce60104 	lw	a2,260(a3)
     dec:	8f82ffa8 	lw	v0,-88(gp)
     df0:	afa60028 	sw	a2,40(sp)
     df4:	8c450020 	lw	a1,32(v0)
     df8:	afa5002c 	sw	a1,44(sp)
     dfc:	8c44003c 	lw	a0,60(v0)
     e00:	afa40030 	sw	a0,48(sp)
     e04:	8c430040 	lw	v1,64(v0)
     e08:	afa30034 	sw	v1,52(sp)
     e0c:	8c42004c 	lw	v0,76(v0)
     e10:	afa60010 	sw	a2,16(sp)
     e14:	afa50014 	sw	a1,20(sp)
     e18:	afa20020 	sw	v0,32(sp)
     e1c:	afa20038 	sw	v0,56(sp)
     e20:	3c020800 	lui	v0,0x800
     e24:	8c420020 	lw	v0,32(v0)
     e28:	afa40018 	sw	a0,24(sp)
     e2c:	afa3001c 	sw	v1,28(sp)
     e30:	8cf00100 	lw	s0,256(a3)
     e34:	10400019 	beqz	v0,0xe9c
     e38:	8fbf0044 	lw	ra,68(sp)
     e3c:	0e000d71 	jal	0x80035c4
     e40:	00000000 	nop
     e44:	8f83002c 	lw	v1,44(gp)
     e48:	3c050800 	lui	a1,0x800
     e4c:	94a54bfe 	lhu	a1,19454(a1)
     e50:	3c024018 	lui	v0,0x4018
     e54:	ac700000 	sw	s0,0(v1)
     e58:	00a22825 	or	a1,a1,v0
     e5c:	8fa20010 	lw	v0,16(sp)
     e60:	24040001 	li	a0,1
     e64:	ac620004 	sw	v0,4(v1)
     e68:	8fa20014 	lw	v0,20(sp)
     e6c:	ac620008 	sw	v0,8(v1)
     e70:	8fa20018 	lw	v0,24(sp)
     e74:	ac62000c 	sw	v0,12(v1)
     e78:	8fa2001c 	lw	v0,28(sp)
     e7c:	ac620010 	sw	v0,16(v1)
     e80:	8fa20020 	lw	v0,32(sp)
     e84:	ac620014 	sw	v0,20(v1)
     e88:	8fa20024 	lw	v0,36(sp)
     e8c:	ac620018 	sw	v0,24(v1)
     e90:	0e000d98 	jal	0x8003660
     e94:	ac65001c 	sw	a1,28(v1)
     e98:	8fbf0044 	lw	ra,68(sp)
     e9c:	8fb00040 	lw	s0,64(sp)
     ea0:	00001021 	move	v0,zero
     ea4:	03e00008 	jr	ra
     ea8:	27bd0048 	addiu	sp,sp,72
     eac:	27bdffe8 	addiu	sp,sp,-24
     eb0:	afbf0010 	sw	ra,16(sp)
     eb4:	3c038000 	lui	v1,0x8000
     eb8:	94620184 	lhu	v0,388(v1)
     ebc:	30420200 	andi	v0,v0,0x200
     ec0:	10400005 	beqz	v0,0xed8
     ec4:	00002021 	move	a0,zero
     ec8:	0e000fe3 	jal	0x8003f8c
     ecc:	00000000 	nop
     ed0:	0a00038f 	j	0x8000e3c
     ed4:	24040001 	li	a0,1
     ed8:	8c620188 	lw	v0,392(v1)
     edc:	0440000a 	bltz	v0,0xf08
     ee0:	8fbf0010 	lw	ra,16(sp)
     ee4:	8c620188 	lw	v0,392(v1)
     ee8:	3c03ff00 	lui	v1,0xff00
     eec:	00431024 	and	v0,v0,v1
     ef0:	3c030400 	lui	v1,0x400
     ef4:	14430004 	bne	v0,v1,0xf08
     ef8:	24040001 	li	a0,1
     efc:	8f82ffac 	lw	v0,-84(gp)
     f00:	90420008 	lbu	v0,8(v0)
     f04:	8fbf0010 	lw	ra,16(sp)
     f08:	00801021 	move	v0,a0
     f0c:	03e00008 	jr	ra
     f10:	27bd0018 	addiu	sp,sp,24
     f14:	8f82ffb0 	lw	v0,-80(gp)
     f18:	24050001 	li	a1,1
     f1c:	a040001a 	sb	zero,26(v0)
     f20:	3c028000 	lui	v0,0x8000
     f24:	0a000325 	j	0x8000c94
     f28:	8c440140 	lw	a0,320(v0)
     f2c:	27bdffe0 	addiu	sp,sp,-32
     f30:	afb10014 	sw	s1,20(sp)
     f34:	8f91ffac 	lw	s1,-84(gp)
     f38:	afbf001c 	sw	ra,28(sp)
     f3c:	afb20018 	sw	s2,24(sp)
     f40:	afb00010 	sw	s0,16(sp)
     f44:	92220000 	lbu	v0,0(s1)
     f48:	24030020 	li	v1,32
     f4c:	304200ff 	andi	v0,v0,0xff
     f50:	1043000c 	beq	v0,v1,0xf84
     f54:	3c028000 	lui	v0,0x8000
     f58:	92220000 	lbu	v0,0(s1)
     f5c:	24030030 	li	v1,48
     f60:	304200ff 	andi	v0,v0,0xff
     f64:	10430007 	beq	v0,v1,0xf84
     f68:	3c028000 	lui	v0,0x8000
     f6c:	92220000 	lbu	v0,0(s1)
     f70:	24030050 	li	v1,80
     f74:	304200ff 	andi	v0,v0,0xff
     f78:	14430081 	bne	v0,v1,0x1180
     f7c:	8fbf001c 	lw	ra,28(sp)
     f80:	3c028000 	lui	v0,0x8000
     f84:	90420148 	lbu	v0,328(v0)
     f88:	304200ff 	andi	v0,v0,0xff
     f8c:	2443ffff 	addiu	v1,v0,-1
     f90:	2c620005 	sltiu	v0,v1,5
     f94:	1040007a 	beqz	v0,0x1180
     f98:	8fbf001c 	lw	ra,28(sp)
     f9c:	00031080 	sll	v0,v1,0x2
     fa0:	3c030800 	lui	v1,0x800
     fa4:	24634ad8 	addiu	v1,v1,19160
     fa8:	00431021 	addu	v0,v0,v1
     fac:	8c420000 	lw	v0,0(v0)
     fb0:	00400008 	jr	v0
     fb4:	00000000 	nop
     fb8:	3c118000 	lui	s1,0x8000
     fbc:	8e240140 	lw	a0,320(s1)
     fc0:	0e000315 	jal	0x8000c54
     fc4:	8f92ffac 	lw	s2,-84(gp)
     fc8:	8e50000c 	lw	s0,12(s2)
     fcc:	8e220144 	lw	v0,324(s1)
     fd0:	16020002 	bne	s0,v0,0xfdc
     fd4:	24020001 	li	v0,1
     fd8:	ae42000c 	sw	v0,12(s2)
     fdc:	0e000320 	jal	0x8000c80
     fe0:	8e240140 	lw	a0,320(s1)
     fe4:	8e220144 	lw	v0,324(s1)
     fe8:	14500006 	bne	v0,s0,0x1004
     fec:	8fbf001c 	lw	ra,28(sp)
     ff0:	8fb20018 	lw	s2,24(sp)
     ff4:	8fb10014 	lw	s1,20(sp)
     ff8:	8fb00010 	lw	s0,16(sp)
     ffc:	0a000f51 	j	0x8003d44
    1000:	27bd0020 	addiu	sp,sp,32
    1004:	8e42000c 	lw	v0,12(s2)
    1008:	0a000427 	j	0x800109c
    100c:	00000000 	nop
    1010:	96220010 	lhu	v0,16(s1)
    1014:	3c048000 	lui	a0,0x8000
    1018:	8c830144 	lw	v1,324(a0)
    101c:	3042ffff 	andi	v0,v0,0xffff
    1020:	14620009 	bne	v1,v0,0x1048
    1024:	00000000 	nop
    1028:	24020001 	li	v0,1
    102c:	a6220010 	sh	v0,16(s1)
    1030:	8c820140 	lw	v0,320(a0)
    1034:	ac820200 	sw	v0,512(a0)
    1038:	3c021000 	lui	v0,0x1000
    103c:	ac820238 	sw	v0,568(a0)
    1040:	0a00042e 	j	0x80010b8
    1044:	8fbf001c 	lw	ra,28(sp)
    1048:	96220010 	lhu	v0,16(s1)
    104c:	0a000427 	j	0x800109c
    1050:	00000000 	nop
    1054:	92220000 	lbu	v0,0(s1)
    1058:	24030020 	li	v1,32
    105c:	304200ff 	andi	v0,v0,0xff
    1060:	1443000b 	bne	v0,v1,0x1090
    1064:	3c128000 	lui	s2,0x8000
    1068:	96220012 	lhu	v0,18(s1)
    106c:	3c038000 	lui	v1,0x8000
    1070:	8c630144 	lw	v1,324(v1)
    1074:	3042ffff 	andi	v0,v0,0xffff
    1078:	14620018 	bne	v1,v0,0x10dc
    107c:	00000000 	nop
    1080:	24020001 	li	v0,1
    1084:	a6220012 	sh	v0,18(s1)
    1088:	0a000400 	j	0x8001000
    108c:	8fbf001c 	lw	ra,28(sp)
    1090:	8e440140 	lw	a0,320(s2)
    1094:	0e000315 	jal	0x8000c54
    1098:	00000000 	nop
    109c:	96220012 	lhu	v0,18(s1)
    10a0:	8e430144 	lw	v1,324(s2)
    10a4:	3050ffff 	andi	s0,v0,0xffff
    10a8:	16030002 	bne	s0,v1,0x10b4
    10ac:	24020001 	li	v0,1
    10b0:	a6220012 	sh	v0,18(s1)
    10b4:	0e000320 	jal	0x8000c80
    10b8:	8e440140 	lw	a0,320(s2)
    10bc:	8e420144 	lw	v0,324(s2)
    10c0:	16020006 	bne	s0,v0,0x10dc
    10c4:	8fbf001c 	lw	ra,28(sp)
    10c8:	8fb20018 	lw	s2,24(sp)
    10cc:	8fb10014 	lw	s1,20(sp)
    10d0:	8fb00010 	lw	s0,16(sp)
    10d4:	0a000393 	j	0x8000e4c
    10d8:	27bd0020 	addiu	sp,sp,32
    10dc:	96220012 	lhu	v0,18(s1)
    10e0:	0a000427 	j	0x800109c
    10e4:	00000000 	nop
    10e8:	96220014 	lhu	v0,20(s1)
    10ec:	3c038000 	lui	v1,0x8000
    10f0:	8c630144 	lw	v1,324(v1)
    10f4:	3042ffff 	andi	v0,v0,0xffff
    10f8:	14620009 	bne	v1,v0,0x1120
    10fc:	00000000 	nop
    1100:	24020001 	li	v0,1
    1104:	a6220014 	sh	v0,20(s1)
    1108:	8fbf001c 	lw	ra,28(sp)
    110c:	8fb20018 	lw	s2,24(sp)
    1110:	8fb10014 	lw	s1,20(sp)
    1114:	8fb00010 	lw	s0,16(sp)
    1118:	0a001268 	j	0x80049a0
    111c:	27bd0020 	addiu	sp,sp,32
    1120:	96220014 	lhu	v0,20(s1)
    1124:	0a000427 	j	0x800109c
    1128:	00000000 	nop
    112c:	96220016 	lhu	v0,22(s1)
    1130:	3c038000 	lui	v1,0x8000
    1134:	8c630144 	lw	v1,324(v1)
    1138:	3042ffff 	andi	v0,v0,0xffff
    113c:	14620008 	bne	v1,v0,0x1160
    1140:	24020001 	li	v0,1
    1144:	a6220016 	sh	v0,22(s1)
    1148:	8fbf001c 	lw	ra,28(sp)
    114c:	8fb20018 	lw	s2,24(sp)
    1150:	8fb10014 	lw	s1,20(sp)
    1154:	8fb00010 	lw	s0,16(sp)
    1158:	0a000b0b 	j	0x8002c2c
    115c:	27bd0020 	addiu	sp,sp,32
    1160:	96220016 	lhu	v0,22(s1)
    1164:	14400006 	bnez	v0,0x1180
    1168:	8fbf001c 	lw	ra,28(sp)
    116c:	3c020800 	lui	v0,0x800
    1170:	8c420070 	lw	v0,112(v0)
    1174:	24420001 	addiu	v0,v0,1
    1178:	3c010800 	lui	at,0x800
    117c:	ac220070 	sw	v0,112(at)
    1180:	8fb20018 	lw	s2,24(sp)
    1184:	8fb10014 	lw	s1,20(sp)
    1188:	8fb00010 	lw	s0,16(sp)
    118c:	03e00008 	jr	ra
    1190:	27bd0020 	addiu	sp,sp,32
    1194:	27bdffe0 	addiu	sp,sp,-32
    1198:	3c028000 	lui	v0,0x8000
    119c:	afb10014 	sw	s1,20(sp)
    11a0:	afbf001c 	sw	ra,28(sp)
    11a4:	afb20018 	sw	s2,24(sp)
    11a8:	afb00010 	sw	s0,16(sp)
    11ac:	34510100 	ori	s1,v0,0x100
    11b0:	92230009 	lbu	v1,9(s1)
    11b4:	8c500100 	lw	s0,256(v0)
    11b8:	2402001f 	li	v0,31
    11bc:	106200aa 	beq	v1,v0,0x1468
    11c0:	28620020 	slti	v0,v1,32
    11c4:	10400018 	beqz	v0,0x1228
    11c8:	24020038 	li	v0,56
    11cc:	2862000a 	slti	v0,v1,10
    11d0:	1040000c 	beqz	v0,0x1204
    11d4:	2402000b 	li	v0,11
    11d8:	28620008 	slti	v0,v1,8
    11dc:	1040002c 	beqz	v0,0x1290
    11e0:	00000000 	nop
    11e4:	04600100 	bltz	v1,0x15e8
    11e8:	28620002 	slti	v0,v1,2
    11ec:	14400028 	bnez	v0,0x1290
    11f0:	24020006 	li	v0,6
    11f4:	10620026 	beq	v1,v0,0x1290
    11f8:	8fbf001c 	lw	ra,28(sp)
    11fc:	0a00054a 	j	0x8001528
    1200:	8fb20018 	lw	s2,24(sp)
    1204:	10620060 	beq	v1,v0,0x1388
    1208:	2862000b 	slti	v0,v1,11
    120c:	144000f7 	bnez	v0,0x15ec
    1210:	8fbf001c 	lw	ra,28(sp)
    1214:	2402000e 	li	v0,14
    1218:	10620077 	beq	v1,v0,0x13f8
    121c:	8fb20018 	lw	s2,24(sp)
    1220:	0a00054a 	j	0x8001528
    1224:	00000000 	nop
    1228:	106200d3 	beq	v1,v0,0x1578
    122c:	28620039 	slti	v0,v1,57
    1230:	1040000a 	beqz	v0,0x125c
    1234:	24020080 	li	v0,128
    1238:	24020036 	li	v0,54
    123c:	106200e3 	beq	v1,v0,0x15cc
    1240:	28620037 	slti	v0,v1,55
    1244:	104000c5 	beqz	v0,0x155c
    1248:	24020035 	li	v0,53
    124c:	106200d8 	beq	v1,v0,0x15b0
    1250:	8fbf001c 	lw	ra,28(sp)
    1254:	0a00054a 	j	0x8001528
    1258:	8fb20018 	lw	s2,24(sp)
    125c:	1062002d 	beq	v1,v0,0x1314
    1260:	28620081 	slti	v0,v1,129
    1264:	10400006 	beqz	v0,0x1280
    1268:	240200c8 	li	v0,200
    126c:	24020039 	li	v0,57
    1270:	106200c9 	beq	v1,v0,0x1598
    1274:	8fbf001c 	lw	ra,28(sp)
    1278:	0a00054a 	j	0x8001528
    127c:	8fb20018 	lw	s2,24(sp)
    1280:	106200a2 	beq	v1,v0,0x150c
    1284:	8fbf001c 	lw	ra,28(sp)
    1288:	0a00054a 	j	0x8001528
    128c:	8fb20018 	lw	s2,24(sp)
    1290:	3c020800 	lui	v0,0x800
    1294:	8c420020 	lw	v0,32(v0)
    1298:	104000d4 	beqz	v0,0x15ec
    129c:	8fbf001c 	lw	ra,28(sp)
    12a0:	0e000d71 	jal	0x80035c4
    12a4:	00000000 	nop
    12a8:	3c028000 	lui	v0,0x8000
    12ac:	34420100 	ori	v0,v0,0x100
    12b0:	8c440000 	lw	a0,0(v0)
    12b4:	8f83002c 	lw	v1,44(gp)
    12b8:	94470008 	lhu	a3,8(v0)
    12bc:	3c050800 	lui	a1,0x800
    12c0:	94a54bfe 	lhu	a1,19454(a1)
    12c4:	ac640000 	sw	a0,0(v1)
    12c8:	8c440004 	lw	a0,4(v0)
    12cc:	00073c00 	sll	a3,a3,0x10
    12d0:	00e53825 	or	a3,a3,a1
    12d4:	ac640004 	sw	a0,4(v1)
    12d8:	8c440018 	lw	a0,24(v0)
    12dc:	9446000c 	lhu	a2,12(v0)
    12e0:	ac640008 	sw	a0,8(v1)
    12e4:	8c45001c 	lw	a1,28(v0)
    12e8:	00063400 	sll	a2,a2,0x10
    12ec:	24040001 	li	a0,1
    12f0:	ac65000c 	sw	a1,12(v1)
    12f4:	9042000a 	lbu	v0,10(v0)
    12f8:	00c23025 	or	a2,a2,v0
    12fc:	ac660010 	sw	a2,16(v1)
    1300:	ac600014 	sw	zero,20(v1)
    1304:	ac600018 	sw	zero,24(v1)
    1308:	ac67001c 	sw	a3,28(v1)
    130c:	0a00050c 	j	0x8001430
    1310:	8fbf001c 	lw	ra,28(sp)
    1314:	3c020800 	lui	v0,0x800
    1318:	8c420020 	lw	v0,32(v0)
    131c:	104000b3 	beqz	v0,0x15ec
    1320:	8fbf001c 	lw	ra,28(sp)
    1324:	0e000d71 	jal	0x80035c4
    1328:	00000000 	nop
    132c:	96240008 	lhu	a0,8(s1)
    1330:	3c030800 	lui	v1,0x800
    1334:	94634bfe 	lhu	v1,19454(v1)
    1338:	9625000c 	lhu	a1,12(s1)
    133c:	00042202 	srl	a0,a0,0x8
    1340:	9626000e 	lhu	a2,14(s1)
    1344:	8f82002c 	lw	v0,44(gp)
    1348:	00042600 	sll	a0,a0,0x18
    134c:	00832025 	or	a0,a0,v1
    1350:	00052c00 	sll	a1,a1,0x10
    1354:	3c030080 	lui	v1,0x80
    1358:	00a62825 	or	a1,a1,a2
    135c:	00832025 	or	a0,a0,v1
    1360:	ac400000 	sw	zero,0(v0)
    1364:	ac400004 	sw	zero,4(v0)
    1368:	ac400008 	sw	zero,8(v0)
    136c:	ac40000c 	sw	zero,12(v0)
    1370:	ac450010 	sw	a1,16(v0)
    1374:	ac400014 	sw	zero,20(v0)
    1378:	ac400018 	sw	zero,24(v0)
    137c:	ac44001c 	sw	a0,28(v0)
    1380:	0a00050b 	j	0x800142c
    1384:	24040001 	li	a0,1
    1388:	9622000c 	lhu	v0,12(s1)
    138c:	14400017 	bnez	v0,0x13ec
    1390:	8f91ffac 	lw	s1,-84(gp)
    1394:	92220005 	lbu	v0,5(s1)
    1398:	30420010 	andi	v0,v0,0x10
    139c:	14400013 	bnez	v0,0x13ec
    13a0:	00000000 	nop
    13a4:	0e000315 	jal	0x8000c54
    13a8:	02002021 	move	a0,s0
    13ac:	92220005 	lbu	v0,5(s1)
    13b0:	02002021 	move	a0,s0
    13b4:	34420010 	ori	v0,v0,0x10
    13b8:	0e000320 	jal	0x8000c80
    13bc:	a2220005 	sb	v0,5(s1)
    13c0:	92220000 	lbu	v0,0(s1)
    13c4:	24030020 	li	v1,32
    13c8:	304200ff 	andi	v0,v0,0xff
    13cc:	10430086 	beq	v0,v1,0x15e8
    13d0:	02002021 	move	a0,s0
    13d4:	8fbf001c 	lw	ra,28(sp)
    13d8:	8fb20018 	lw	s2,24(sp)
    13dc:	8fb10014 	lw	s1,20(sp)
    13e0:	8fb00010 	lw	s0,16(sp)
    13e4:	0a00104c 	j	0x8004130
    13e8:	27bd0020 	addiu	sp,sp,32
    13ec:	0000000d 	break
    13f0:	0a000549 	j	0x8001524
    13f4:	8fbf001c 	lw	ra,28(sp)
    13f8:	3c020800 	lui	v0,0x800
    13fc:	8c420020 	lw	v0,32(v0)
    1400:	1040007a 	beqz	v0,0x15ec
    1404:	8fbf001c 	lw	ra,28(sp)
    1408:	0e000d71 	jal	0x80035c4
    140c:	00000000 	nop
    1410:	8e220004 	lw	v0,4(s1)
    1414:	8f83002c 	lw	v1,44(gp)
    1418:	9624000c 	lhu	a0,12(s1)
    141c:	3c050800 	lui	a1,0x800
    1420:	94a54bfe 	lhu	a1,19454(a1)
    1424:	ac620000 	sw	v0,0(v1)
    1428:	3c028008 	lui	v0,0x8008
    142c:	9442002c 	lhu	v0,44(v0)
    1430:	00042400 	sll	a0,a0,0x10
    1434:	3042ffff 	andi	v0,v0,0xffff
    1438:	00822025 	or	a0,a0,v0
    143c:	3c02400e 	lui	v0,0x400e
    1440:	00a22825 	or	a1,a1,v0
    1444:	ac640004 	sw	a0,4(v1)
    1448:	ac600008 	sw	zero,8(v1)
    144c:	ac60000c 	sw	zero,12(v1)
    1450:	ac600010 	sw	zero,16(v1)
    1454:	ac600014 	sw	zero,20(v1)
    1458:	ac600018 	sw	zero,24(v1)
    145c:	ac65001c 	sw	a1,28(v1)
    1460:	0a00050b 	j	0x800142c
    1464:	24040001 	li	a0,1
    1468:	0e000315 	jal	0x8000c54
    146c:	02002021 	move	a0,s0
    1470:	8f92ffb0 	lw	s2,-80(gp)
    1474:	02002021 	move	a0,s0
    1478:	0e000320 	jal	0x8000c80
    147c:	a640000c 	sh	zero,12(s2)
    1480:	02002021 	move	a0,s0
    1484:	0e000325 	jal	0x8000c94
    1488:	24050001 	li	a1,1
    148c:	3c020800 	lui	v0,0x800
    1490:	8c420020 	lw	v0,32(v0)
    1494:	10400055 	beqz	v0,0x15ec
    1498:	8fbf001c 	lw	ra,28(sp)
    149c:	0e000d71 	jal	0x80035c4
    14a0:	00000000 	nop
    14a4:	9622000c 	lhu	v0,12(s1)
    14a8:	8f83002c 	lw	v1,44(gp)
    14ac:	8f84ffac 	lw	a0,-84(gp)
    14b0:	00021400 	sll	v0,v0,0x10
    14b4:	ac700000 	sw	s0,0(v1)
    14b8:	ac620004 	sw	v0,4(v1)
    14bc:	ac600008 	sw	zero,8(v1)
    14c0:	8c820038 	lw	v0,56(a0)
    14c4:	3c050800 	lui	a1,0x800
    14c8:	94a54bfe 	lhu	a1,19454(a1)
    14cc:	ac62000c 	sw	v0,12(v1)
    14d0:	8c86003c 	lw	a2,60(a0)
    14d4:	3c02401f 	lui	v0,0x401f
    14d8:	00a22825 	or	a1,a1,v0
    14dc:	ac660010 	sw	a2,16(v1)
    14e0:	8e420004 	lw	v0,4(s2)
    14e4:	24040001 	li	a0,1
    14e8:	ac620014 	sw	v0,20(v1)
    14ec:	ac600018 	sw	zero,24(v1)
    14f0:	ac65001c 	sw	a1,28(v1)
    14f4:	8fbf001c 	lw	ra,28(sp)
    14f8:	8fb20018 	lw	s2,24(sp)
    14fc:	8fb10014 	lw	s1,20(sp)
    1500:	8fb00010 	lw	s0,16(sp)
    1504:	0a000d98 	j	0x8003660
    1508:	27bd0020 	addiu	sp,sp,32
    150c:	8f82ffac 	lw	v0,-84(gp)
    1510:	24030020 	li	v1,32
    1514:	90420000 	lbu	v0,0(v0)
    1518:	304200ff 	andi	v0,v0,0xff
    151c:	10430033 	beq	v0,v1,0x15ec
    1520:	8fbf001c 	lw	ra,28(sp)
    1524:	0e000f37 	jal	0x8003cdc
    1528:	00000000 	nop
    152c:	1040002f 	beqz	v0,0x15ec
    1530:	8fbf001c 	lw	ra,28(sp)
    1534:	3c038000 	lui	v1,0x8000
    1538:	8c6201f8 	lw	v0,504(v1)
    153c:	0440fffe 	bltz	v0,0x1538
    1540:	24020002 	li	v0,2
    1544:	ac7001c0 	sw	s0,448(v1)
    1548:	a06201c4 	sb	v0,452(v1)
    154c:	3c021000 	lui	v0,0x1000
    1550:	ac6201f8 	sw	v0,504(v1)
    1554:	0a000549 	j	0x8001524
    1558:	8fbf001c 	lw	ra,28(sp)
    155c:	02002021 	move	a0,s0
    1560:	8fbf001c 	lw	ra,28(sp)
    1564:	8fb20018 	lw	s2,24(sp)
    1568:	8fb10014 	lw	s1,20(sp)
    156c:	8fb00010 	lw	s0,16(sp)
    1570:	0a000e80 	j	0x8003a00
    1574:	27bd0020 	addiu	sp,sp,32
    1578:	9625000c 	lhu	a1,12(s1)
    157c:	02002021 	move	a0,s0
    1580:	8fbf001c 	lw	ra,28(sp)
    1584:	8fb20018 	lw	s2,24(sp)
    1588:	8fb10014 	lw	s1,20(sp)
    158c:	8fb00010 	lw	s0,16(sp)
    1590:	0a000ea5 	j	0x8003a94
    1594:	27bd0020 	addiu	sp,sp,32
    1598:	02002021 	move	a0,s0
    159c:	8fb20018 	lw	s2,24(sp)
    15a0:	8fb10014 	lw	s1,20(sp)
    15a4:	8fb00010 	lw	s0,16(sp)
    15a8:	0a000ed0 	j	0x8003b40
    15ac:	27bd0020 	addiu	sp,sp,32
    15b0:	9225000d 	lbu	a1,13(s1)
    15b4:	02002021 	move	a0,s0
    15b8:	8fb20018 	lw	s2,24(sp)
    15bc:	8fb10014 	lw	s1,20(sp)
    15c0:	8fb00010 	lw	s0,16(sp)
    15c4:	0a000f21 	j	0x8003c84
    15c8:	27bd0020 	addiu	sp,sp,32
    15cc:	02002021 	move	a0,s0
    15d0:	8fbf001c 	lw	ra,28(sp)
    15d4:	8fb20018 	lw	s2,24(sp)
    15d8:	8fb10014 	lw	s1,20(sp)
    15dc:	8fb00010 	lw	s0,16(sp)
    15e0:	0a000ef8 	j	0x8003be0
    15e4:	27bd0020 	addiu	sp,sp,32
    15e8:	8fbf001c 	lw	ra,28(sp)
    15ec:	8fb20018 	lw	s2,24(sp)
    15f0:	8fb10014 	lw	s1,20(sp)
    15f4:	8fb00010 	lw	s0,16(sp)
    15f8:	03e00008 	jr	ra
    15fc:	27bd0020 	addiu	sp,sp,32
    1600:	3c038000 	lui	v1,0x8000
    1604:	8c620278 	lw	v0,632(v1)
    1608:	0440fffe 	bltz	v0,0x1604
    160c:	24020002 	li	v0,2
    1610:	ac640240 	sw	a0,576(v1)
    1614:	a0620244 	sb	v0,580(v1)
    1618:	3c021000 	lui	v0,0x1000
    161c:	03e00008 	jr	ra
    1620:	ac620278 	sw	v0,632(v1)
    1624:	000411c0 	sll	v0,a0,0x7
    1628:	03e00008 	jr	ra
    162c:	24420240 	addiu	v0,v0,576
    1630:	a3800018 	sb	zero,24(gp)
    1634:	03e00008 	jr	ra
    1638:	a3800019 	sb	zero,25(gp)
    163c:	3c038000 	lui	v1,0x8000
    1640:	8c620278 	lw	v0,632(v1)
    1644:	0440fffe 	bltz	v0,0x1640
    1648:	8f82001c 	lw	v0,28(gp)
    164c:	ac620240 	sw	v0,576(v1)
    1650:	24020002 	li	v0,2
    1654:	a0620244 	sb	v0,580(v1)
    1658:	3c021000 	lui	v0,0x1000
    165c:	03e00008 	jr	ra
    1660:	ac620278 	sw	v0,632(v1)
    1664:	03e00008 	jr	ra
    1668:	00000000 	nop
    166c:	90830030 	lbu	v1,48(a0)
    1670:	24020005 	li	v0,5
    1674:	00804021 	move	t0,a0
    1678:	3063003f 	andi	v1,v1,0x3f
    167c:	00004821 	move	t1,zero
    1680:	14620005 	bne	v1,v0,0x1698
    1684:	00005021 	move	t2,zero
    1688:	9082004c 	lbu	v0,76(a0)
    168c:	9483004e 	lhu	v1,78(a0)
    1690:	304900ff 	andi	t1,v0,0xff
    1694:	306affff 	andi	t2,v1,0xffff
    1698:	ad00000c 	sw	zero,12(t0)
    169c:	ad000010 	sw	zero,16(t0)
    16a0:	ad000024 	sw	zero,36(t0)
    16a4:	95020014 	lhu	v0,20(t0)
    16a8:	8d05001c 	lw	a1,28(t0)
    16ac:	8d040018 	lw	a0,24(t0)
    16b0:	3042ffff 	andi	v0,v0,0xffff
    16b4:	00491023 	subu	v0,v0,t1
    16b8:	00021100 	sll	v0,v0,0x4
    16bc:	000237c3 	sra	a2,v0,0x1f
    16c0:	00403821 	move	a3,v0
    16c4:	00862023 	subu	a0,a0,a2
    16c8:	00a2102b 	sltu	v0,a1,v0
    16cc:	00822023 	subu	a0,a0,v0
    16d0:	00a72823 	subu	a1,a1,a3
    16d4:	ad05001c 	sw	a1,28(t0)
    16d8:	ad040018 	sw	a0,24(t0)
    16dc:	a5090014 	sh	t1,20(t0)
    16e0:	a5090020 	sh	t1,32(t0)
    16e4:	a50a0016 	sh	t2,22(t0)
    16e8:	03e00008 	jr	ra
    16ec:	a50a0022 	sh	t2,34(t0)
    16f0:	03e00008 	jr	ra
    16f4:	00000000 	nop
    16f8:	27bdffd8 	addiu	sp,sp,-40
    16fc:	afb20018 	sw	s2,24(sp)
    1700:	3c128008 	lui	s2,0x8008
    1704:	afb40020 	sw	s4,32(sp)
    1708:	afb3001c 	sw	s3,28(sp)
    170c:	afb10014 	sw	s1,20(sp)
    1710:	afbf0024 	sw	ra,36(sp)
    1714:	afb00010 	sw	s0,16(sp)
    1718:	36510100 	ori	s1,s2,0x100
    171c:	9222000c 	lbu	v0,12(s1)
    1720:	3c140800 	lui	s4,0x800
    1724:	929400f7 	lbu	s4,247(s4)
    1728:	304300ff 	andi	v1,v0,0xff
    172c:	24020001 	li	v0,1
    1730:	10620031 	beq	v1,v0,0x17f8
    1734:	00809821 	move	s3,a0
    1738:	24020002 	li	v0,2
    173c:	14620034 	bne	v1,v0,0x1810
    1740:	36500080 	ori	s0,s2,0x80
    1744:	0e001242 	jal	0x8004908
    1748:	00000000 	nop
    174c:	9204004c 	lbu	a0,76(s0)
    1750:	0e000557 	jal	0x800155c
    1754:	3084007f 	andi	a0,a0,0x7f
    1758:	02621021 	addu	v0,s3,v0
    175c:	2403ff80 	li	v1,-128
    1760:	00431824 	and	v1,v0,v1
    1764:	3c048000 	lui	a0,0x8000
    1768:	ac830094 	sw	v1,148(a0)
    176c:	92450008 	lbu	a1,8(s2)
    1770:	9204004c 	lbu	a0,76(s0)
    1774:	3042007f 	andi	v0,v0,0x7f
    1778:	3c038006 	lui	v1,0x8006
    177c:	14850007 	bne	a0,a1,0x179c
    1780:	00438021 	addu	s0,v0,v1
    1784:	2402ffff 	li	v0,-1
    1788:	a2220011 	sb	v0,17(s1)
    178c:	2402ffff 	li	v0,-1
    1790:	a6220012 	sh	v0,18(s1)
    1794:	0a0005ba 	j	0x80016e8
    1798:	2402ffff 	li	v0,-1
    179c:	96020020 	lhu	v0,32(s0)
    17a0:	a2220011 	sb	v0,17(s1)
    17a4:	96020022 	lhu	v0,34(s0)
    17a8:	a6220012 	sh	v0,18(s1)
    17ac:	8e020024 	lw	v0,36(s0)
    17b0:	3c048008 	lui	a0,0x8008
    17b4:	ae220014 	sw	v0,20(s1)
    17b8:	34850080 	ori	a1,a0,0x80
    17bc:	90a2004c 	lbu	v0,76(a1)
    17c0:	34830100 	ori	v1,a0,0x100
    17c4:	a0620010 	sb	v0,16(v1)
    17c8:	8ca2003c 	lw	v0,60(a1)
    17cc:	ac620018 	sw	v0,24(v1)
    17d0:	8c820068 	lw	v0,104(a0)
    17d4:	ac6200e4 	sw	v0,228(v1)
    17d8:	8c820064 	lw	v0,100(a0)
    17dc:	ac6200e0 	sw	v0,224(v1)
    17e0:	8c82006c 	lw	v0,108(a0)
    17e4:	ac6200e8 	sw	v0,232(v1)
    17e8:	24020001 	li	v0,1
    17ec:	a0a20068 	sb	v0,104(a1)
    17f0:	0a0005d6 	j	0x8001758
    17f4:	3c048008 	lui	a0,0x8008
    17f8:	0e00125b 	jal	0x800496c
    17fc:	00000000 	nop
    1800:	36420080 	ori	v0,s2,0x80
    1804:	a0400068 	sb	zero,104(v0)
    1808:	0a0005d6 	j	0x8001758
    180c:	3c048008 	lui	a0,0x8008
    1810:	a2000068 	sb	zero,104(s0)
    1814:	a2000069 	sb	zero,105(s0)
    1818:	0a000612 	j	0x8001848
    181c:	3c028008 	lui	v0,0x8008
    1820:	34830080 	ori	v1,a0,0x80
    1824:	8c620038 	lw	v0,56(v1)
    1828:	34850100 	ori	a1,a0,0x100
    182c:	ac62006c 	sw	v0,108(v1)
    1830:	24020001 	li	v0,1
    1834:	a0620069 	sb	v0,105(v1)
    1838:	90a200c5 	lbu	v0,197(a1)
    183c:	90830008 	lbu	v1,8(a0)
    1840:	305100ff 	andi	s1,v0,0xff
    1844:	3072007f 	andi	s2,v1,0x7f
    1848:	1232001b 	beq	s1,s2,0x18b8
    184c:	3c088008 	lui	t0,0x8008
    1850:	0e000557 	jal	0x800155c
    1854:	02202021 	move	a0,s1
    1858:	02621021 	addu	v0,s3,v0
    185c:	2403ff80 	li	v1,-128
    1860:	00431824 	and	v1,v0,v1
    1864:	3c048000 	lui	a0,0x8000
    1868:	ac830094 	sw	v1,148(a0)
    186c:	3042007f 	andi	v0,v0,0x7f
    1870:	3c038006 	lui	v1,0x8006
    1874:	00438021 	addu	s0,v0,v1
    1878:	8e02000c 	lw	v0,12(s0)
    187c:	1040000d 	beqz	v0,0x18b4
    1880:	02002021 	move	a0,s0
    1884:	0e000569 	jal	0x80015a4
    1888:	00000000 	nop
    188c:	26220001 	addiu	v0,s1,1
    1890:	305100ff 	andi	s1,v0,0xff
    1894:	9203003c 	lbu	v1,60(s0)
    1898:	02341026 	xor	v0,s1,s4
    189c:	0002102b 	sltu	v0,zero,v0
    18a0:	00021023 	negu	v0,v0
    18a4:	3063007f 	andi	v1,v1,0x7f
    18a8:	02228824 	and	s1,s1,v0
    18ac:	0a0005e0 	j	0x8001780
    18b0:	a203003c 	sb	v1,60(s0)
    18b4:	3c088008 	lui	t0,0x8008
    18b8:	35040100 	ori	a0,t0,0x100
    18bc:	8c8200d0 	lw	v0,208(a0)
    18c0:	35070080 	ori	a3,t0,0x80
    18c4:	ace2003c 	sw	v0,60(a3)
    18c8:	8c8200d0 	lw	v0,208(a0)
    18cc:	ad020000 	sw	v0,0(t0)
    18d0:	90e5004c 	lbu	a1,76(a3)
    18d4:	908600c5 	lbu	a2,197(a0)
    18d8:	90e3004c 	lbu	v1,76(a3)
    18dc:	908400c5 	lbu	a0,197(a0)
    18e0:	2402ff80 	li	v0,-128
    18e4:	00a22824 	and	a1,a1,v0
    18e8:	3063007f 	andi	v1,v1,0x7f
    18ec:	308400ff 	andi	a0,a0,0xff
    18f0:	00a62825 	or	a1,a1,a2
    18f4:	0064182a 	slt	v1,v1,a0
    18f8:	10600002 	beqz	v1,0x1904
    18fc:	30a500ff 	andi	a1,a1,0xff
    1900:	38a50080 	xori	a1,a1,0x80
    1904:	a0e5004c 	sb	a1,76(a3)
    1908:	a1050009 	sb	a1,9(t0)
    190c:	3c028008 	lui	v0,0x8008
    1910:	9043000e 	lbu	v1,14(v0)
    1914:	34440080 	ori	a0,v0,0x80
    1918:	3c058000 	lui	a1,0x8000
    191c:	a043000a 	sb	v1,10(v0)
    1920:	8c830018 	lw	v1,24(a0)
    1924:	3c027fff 	lui	v0,0x7fff
    1928:	3442ffff 	ori	v0,v0,0xffff
    192c:	00621824 	and	v1,v1,v0
    1930:	ac830018 	sw	v1,24(a0)
    1934:	8ca201f8 	lw	v0,504(a1)
    1938:	0440fffe 	bltz	v0,0x1934
    193c:	00000000 	nop
    1940:	acb301c0 	sw	s3,448(a1)
    1944:	8fbf0024 	lw	ra,36(sp)
    1948:	8fb40020 	lw	s4,32(sp)
    194c:	8fb3001c 	lw	s3,28(sp)
    1950:	8fb20018 	lw	s2,24(sp)
    1954:	8fb10014 	lw	s1,20(sp)
    1958:	8fb00010 	lw	s0,16(sp)
    195c:	24020002 	li	v0,2
    1960:	a0a201c4 	sb	v0,452(a1)
    1964:	27bd0028 	addiu	sp,sp,40
    1968:	3c021000 	lui	v0,0x1000
    196c:	03e00008 	jr	ra
    1970:	aca201f8 	sw	v0,504(a1)
    1974:	90a20000 	lbu	v0,0(a1)
    1978:	27bdffe0 	addiu	sp,sp,-32
    197c:	afb20018 	sw	s2,24(sp)
    1980:	24420001 	addiu	v0,v0,1
    1984:	a0a20000 	sb	v0,0(a1)
    1988:	3c030800 	lui	v1,0x800
    198c:	8c6300f4 	lw	v1,244(v1)
    1990:	304200ff 	andi	v0,v0,0xff
    1994:	afb10014 	sw	s1,20(sp)
    1998:	afbf001c 	sw	ra,28(sp)
    199c:	afb00010 	sw	s0,16(sp)
    19a0:	00a08821 	move	s1,a1
    19a4:	14430002 	bne	v0,v1,0x19b0
    19a8:	00809021 	move	s2,a0
    19ac:	a0a00000 	sb	zero,0(a1)
    19b0:	0e000557 	jal	0x800155c
    19b4:	92240000 	lbu	a0,0(s1)
    19b8:	8f90001c 	lw	s0,28(gp)
    19bc:	2403ff80 	li	v1,-128
    19c0:	02021021 	addu	v0,s0,v0
    19c4:	00431024 	and	v0,v0,v1
    19c8:	3c038000 	lui	v1,0x8000
    19cc:	ac620024 	sw	v0,36(v1)
    19d0:	0e000557 	jal	0x800155c
    19d4:	92240000 	lbu	a0,0(s1)
    19d8:	02028021 	addu	s0,s0,v0
    19dc:	3210007f 	andi	s0,s0,0x7f
    19e0:	3c02800a 	lui	v0,0x800a
    19e4:	02028021 	addu	s0,s0,v0
    19e8:	ae500000 	sw	s0,0(s2)
    19ec:	8fbf001c 	lw	ra,28(sp)
    19f0:	8fb20018 	lw	s2,24(sp)
    19f4:	8fb10014 	lw	s1,20(sp)
    19f8:	8fb00010 	lw	s0,16(sp)
    19fc:	03e00008 	jr	ra
    1a00:	27bd0020 	addiu	sp,sp,32
    1a04:	94820006 	lhu	v0,6(a0)
    1a08:	90830005 	lbu	v1,5(a0)
    1a0c:	8c85000c 	lw	a1,12(a0)
    1a10:	8c860010 	lw	a2,16(a0)
    1a14:	8c870018 	lw	a3,24(a0)
    1a18:	8c88001c 	lw	t0,28(a0)
    1a1c:	8c840020 	lw	a0,32(a0)
    1a20:	3c010800 	lui	at,0x800
    1a24:	a4224bd2 	sh	v0,19410(at)
    1a28:	3c010800 	lui	at,0x800
    1a2c:	a0234bd1 	sb	v1,19409(at)
    1a30:	3c010800 	lui	at,0x800
    1a34:	ac254bd8 	sw	a1,19416(at)
    1a38:	3c010800 	lui	at,0x800
    1a3c:	ac264bdc 	sw	a2,19420(at)
    1a40:	3c010800 	lui	at,0x800
    1a44:	ac274be4 	sw	a3,19428(at)
    1a48:	3c010800 	lui	at,0x800
    1a4c:	ac284be8 	sw	t0,19432(at)
    1a50:	3c010800 	lui	at,0x800
    1a54:	ac244bec 	sw	a0,19436(at)
    1a58:	03e00008 	jr	ra
    1a5c:	00000000 	nop
    1a60:	3c028008 	lui	v0,0x8008
    1a64:	34420100 	ori	v0,v0,0x100
    1a68:	8c440034 	lw	a0,52(v0)
    1a6c:	3c038000 	lui	v1,0x8000
    1a70:	34650400 	ori	a1,v1,0x400
    1a74:	ac640038 	sw	a0,56(v1)
    1a78:	8c420038 	lw	v0,56(v0)
    1a7c:	af850030 	sw	a1,48(gp)
    1a80:	ac62003c 	sw	v0,60(v1)
    1a84:	3c020005 	lui	v0,0x5
    1a88:	ac620030 	sw	v0,48(v1)
	...
    1a94:	03e00008 	jr	ra
    1a98:	00000000 	nop
    1a9c:	3c020006 	lui	v0,0x6
    1aa0:	308400ff 	andi	a0,a0,0xff
    1aa4:	00822025 	or	a0,a0,v0
    1aa8:	3c028000 	lui	v0,0x8000
    1aac:	ac440030 	sw	a0,48(v0)
	...
    1abc:	3c038000 	lui	v1,0x8000
    1ac0:	8c620000 	lw	v0,0(v1)
    1ac4:	30420010 	andi	v0,v0,0x10
    1ac8:	1040fffd 	beqz	v0,0x1ac0
    1acc:	34620400 	ori	v0,v1,0x400
    1ad0:	03e00008 	jr	ra
    1ad4:	af820030 	sw	v0,48(gp)
    1ad8:	94c20000 	lhu	v0,0(a2)
    1adc:	3c080800 	lui	t0,0x800
    1ae0:	950800ca 	lhu	t0,202(t0)
    1ae4:	30e7ffff 	andi	a3,a3,0xffff
    1ae8:	00804821 	move	t1,a0
    1aec:	01021021 	addu	v0,t0,v0
    1af0:	a4c20000 	sh	v0,0(a2)
    1af4:	94c20000 	lhu	v0,0(a2)
    1af8:	3042ffff 	andi	v0,v0,0xffff
    1afc:	00e2102b 	sltu	v0,a3,v0
    1b00:	54400001 	bnezl	v0,0x1b08
    1b04:	a4c70000 	sh	a3,0(a2)
    1b08:	94a20000 	lhu	v0,0(a1)
    1b0c:	3c030800 	lui	v1,0x800
    1b10:	8c6300cc 	lw	v1,204(v1)
    1b14:	24420001 	addiu	v0,v0,1
    1b18:	a4a20000 	sh	v0,0(a1)
    1b1c:	94a20000 	lhu	v0,0(a1)
    1b20:	3042ffff 	andi	v0,v0,0xffff
    1b24:	14430007 	bne	v0,v1,0x1b44
    1b28:	3c028008 	lui	v0,0x8008
    1b2c:	0107102b 	sltu	v0,t0,a3
    1b30:	a4a00000 	sh	zero,0(a1)
    1b34:	54400001 	bnezl	v0,0x1b3c
    1b38:	01003821 	move	a3,t0
    1b3c:	a4c70000 	sh	a3,0(a2)
    1b40:	3c028008 	lui	v0,0x8008
    1b44:	34460100 	ori	a2,v0,0x100
    1b48:	8cc30028 	lw	v1,40(a2)
    1b4c:	94a20000 	lhu	v0,0(a1)
    1b50:	3c048000 	lui	a0,0x8000
    1b54:	3042fffe 	andi	v0,v0,0xfffe
    1b58:	000210c0 	sll	v0,v0,0x3
    1b5c:	00621021 	addu	v0,v1,v0
    1b60:	ac82003c 	sw	v0,60(a0)
    1b64:	8c82003c 	lw	v0,60(a0)
    1b68:	00621823 	subu	v1,v1,v0
    1b6c:	18600004 	blez	v1,0x1b80
    1b70:	00000000 	nop
    1b74:	8cc20024 	lw	v0,36(a2)
    1b78:	0a0006af 	j	0x8001abc
    1b7c:	24420001 	addiu	v0,v0,1
    1b80:	8cc20024 	lw	v0,36(a2)
    1b84:	ac820038 	sw	v0,56(a0)
    1b88:	3c020050 	lui	v0,0x50
    1b8c:	34420010 	ori	v0,v0,0x10
    1b90:	3c038000 	lui	v1,0x8000
    1b94:	ac620030 	sw	v0,48(v1)
	...
    1ba4:	8c620000 	lw	v0,0(v1)
    1ba8:	30420020 	andi	v0,v0,0x20
    1bac:	1040fffd 	beqz	v0,0x1ba4
    1bb0:	00000000 	nop
    1bb4:	94a20000 	lhu	v0,0(a1)
    1bb8:	3c048000 	lui	a0,0x8000
    1bbc:	30420001 	andi	v0,v0,0x1
    1bc0:	000210c0 	sll	v0,v0,0x3
    1bc4:	00441021 	addu	v0,v0,a0
    1bc8:	8c430400 	lw	v1,1024(v0)
    1bcc:	ad230000 	sw	v1,0(t1)
    1bd0:	8c420404 	lw	v0,1028(v0)
    1bd4:	ad220004 	sw	v0,4(t1)
    1bd8:	3c020020 	lui	v0,0x20
    1bdc:	03e00008 	jr	ra
    1be0:	ac820030 	sw	v0,48(a0)
    1be4:	27bdffe0 	addiu	sp,sp,-32
    1be8:	afb20018 	sw	s2,24(sp)
    1bec:	afb10014 	sw	s1,20(sp)
    1bf0:	afb00010 	sw	s0,16(sp)
    1bf4:	afbf001c 	sw	ra,28(sp)
    1bf8:	94c20000 	lhu	v0,0(a2)
    1bfc:	00c08021 	move	s0,a2
    1c00:	3c120800 	lui	s2,0x800
    1c04:	965200c6 	lhu	s2,198(s2)
    1c08:	24420001 	addiu	v0,v0,1
    1c0c:	a6020000 	sh	v0,0(s0)
    1c10:	96030000 	lhu	v1,0(s0)
    1c14:	94e20000 	lhu	v0,0(a3)
    1c18:	00e03021 	move	a2,a3
    1c1c:	14430005 	bne	v0,v1,0x1c34
    1c20:	8fb10030 	lw	s1,48(sp)
    1c24:	0e000684 	jal	0x8001a10
    1c28:	02403821 	move	a3,s2
    1c2c:	0a0006e6 	j	0x8001b98
    1c30:	00000000 	nop
    1c34:	8c830004 	lw	v1,4(a0)
    1c38:	8c820004 	lw	v0,4(a0)
    1c3c:	24420040 	addiu	v0,v0,64
    1c40:	04610007 	bgez	v1,0x1c60
    1c44:	ac820004 	sw	v0,4(a0)
    1c48:	8c820004 	lw	v0,4(a0)
    1c4c:	04400004 	bltz	v0,0x1c60
    1c50:	00000000 	nop
    1c54:	8c820000 	lw	v0,0(a0)
    1c58:	24420001 	addiu	v0,v0,1
    1c5c:	ac820000 	sw	v0,0(a0)
    1c60:	96020000 	lhu	v0,0(s0)
    1c64:	3042ffff 	andi	v0,v0,0xffff
    1c68:	50520001 	beql	v0,s2,0x1c70
    1c6c:	a6000000 	sh	zero,0(s0)
    1c70:	96220000 	lhu	v0,0(s1)
    1c74:	24420001 	addiu	v0,v0,1
    1c78:	a6220000 	sh	v0,0(s1)
    1c7c:	3c028008 	lui	v0,0x8008
    1c80:	34420100 	ori	v0,v0,0x100
    1c84:	96230000 	lhu	v1,0(s1)
    1c88:	9442003c 	lhu	v0,60(v0)
    1c8c:	14430004 	bne	v0,v1,0x1ca0
    1c90:	8fbf001c 	lw	ra,28(sp)
    1c94:	24020001 	li	v0,1
    1c98:	a6220000 	sh	v0,0(s1)
    1c9c:	8fbf001c 	lw	ra,28(sp)
    1ca0:	8fb20018 	lw	s2,24(sp)
    1ca4:	8fb10014 	lw	s1,20(sp)
    1ca8:	8fb00010 	lw	s0,16(sp)
    1cac:	03e00008 	jr	ra
    1cb0:	27bd0020 	addiu	sp,sp,32
    1cb4:	27bdffe0 	addiu	sp,sp,-32
    1cb8:	3c028008 	lui	v0,0x8008
    1cbc:	afbf0018 	sw	ra,24(sp)
    1cc0:	34420100 	ori	v0,v0,0x100
    1cc4:	8c480034 	lw	t0,52(v0)
    1cc8:	3c038000 	lui	v1,0x8000
    1ccc:	34690400 	ori	t1,v1,0x400
    1cd0:	ac680038 	sw	t0,56(v1)
    1cd4:	8c420038 	lw	v0,56(v0)
    1cd8:	30e700ff 	andi	a3,a3,0xff
    1cdc:	af890030 	sw	t1,48(gp)
    1ce0:	ac62003c 	sw	v0,60(v1)
    1ce4:	3c020005 	lui	v0,0x5
    1ce8:	ac620030 	sw	v0,48(v1)
	...
    1d04:	8c82000c 	lw	v0,12(a0)
    1d08:	8c82000c 	lw	v0,12(a0)
    1d0c:	97830016 	lhu	v1,22(gp)
    1d10:	ad220000 	sw	v0,0(t1)
    1d14:	8c820010 	lw	v0,16(a0)
    1d18:	00604021 	move	t0,v1
    1d1c:	ad220004 	sw	v0,4(t1)
    1d20:	8c820018 	lw	v0,24(a0)
    1d24:	ad220008 	sw	v0,8(t1)
    1d28:	8c82001c 	lw	v0,28(a0)
    1d2c:	ad22000c 	sw	v0,12(t1)
    1d30:	8ca20014 	lw	v0,20(a1)
    1d34:	ad220010 	sw	v0,16(t1)
    1d38:	8c820020 	lw	v0,32(a0)
    1d3c:	ad220014 	sw	v0,20(t1)
    1d40:	90820005 	lbu	v0,5(a0)
    1d44:	304200ff 	andi	v0,v0,0xff
    1d48:	00021200 	sll	v0,v0,0x8
    1d4c:	ad220018 	sw	v0,24(t1)
    1d50:	8ca20018 	lw	v0,24(a1)
    1d54:	ad22001c 	sw	v0,28(t1)
    1d58:	8ca2000c 	lw	v0,12(a1)
    1d5c:	ad220020 	sw	v0,32(t1)
    1d60:	8ca20010 	lw	v0,16(a1)
    1d64:	ad220024 	sw	v0,36(t1)
    1d68:	8ca2001c 	lw	v0,28(a1)
    1d6c:	ad220028 	sw	v0,40(t1)
    1d70:	8ca20020 	lw	v0,32(a1)
    1d74:	ad22002c 	sw	v0,44(t1)
    1d78:	3402ffff 	li	v0,0xffff
    1d7c:	ad260030 	sw	a2,48(t1)
    1d80:	ad200034 	sw	zero,52(t1)
    1d84:	50620001 	beql	v1,v0,0x1d8c
    1d88:	3408ffff 	li	t0,0xffff
    1d8c:	ad280038 	sw	t0,56(t1)
    1d90:	50e00011 	beqzl	a3,0x1dd8
    1d94:	3c028008 	lui	v0,0x8008
    1d98:	3c048008 	lui	a0,0x8008
    1d9c:	34840100 	ori	a0,a0,0x100
    1da0:	94820050 	lhu	v0,80(a0)
    1da4:	3042ffff 	andi	v0,v0,0xffff
    1da8:	ad22003c 	sw	v0,60(t1)
    1dac:	94830044 	lhu	v1,68(a0)
    1db0:	94850044 	lhu	a1,68(a0)
    1db4:	24020001 	li	v0,1
    1db8:	3063ffff 	andi	v1,v1,0xffff
    1dbc:	000318c2 	srl	v1,v1,0x3
    1dc0:	00641821 	addu	v1,v1,a0
    1dc4:	90640054 	lbu	a0,84(v1)
    1dc8:	30a50007 	andi	a1,a1,0x7
    1dcc:	00a21004 	sllv	v0,v0,a1
    1dd0:	0a000751 	j	0x8001d44
    1dd4:	00441025 	or	v0,v0,a0
    1dd8:	34420100 	ori	v0,v0,0x100
    1ddc:	ad20003c 	sw	zero,60(t1)
    1de0:	94430044 	lhu	v1,68(v0)
    1de4:	94440044 	lhu	a0,68(v0)
    1de8:	3063ffff 	andi	v1,v1,0xffff
    1dec:	000318c2 	srl	v1,v1,0x3
    1df0:	00621821 	addu	v1,v1,v0
    1df4:	30840007 	andi	a0,a0,0x7
    1df8:	90650054 	lbu	a1,84(v1)
    1dfc:	24020001 	li	v0,1
    1e00:	00821004 	sllv	v0,v0,a0
    1e04:	00021027 	nor	v0,zero,v0
    1e08:	00451024 	and	v0,v0,a1
    1e0c:	a0620054 	sb	v0,84(v1)
	...
    1e1c:	3c020006 	lui	v0,0x6
    1e20:	34420040 	ori	v0,v0,0x40
    1e24:	3c038000 	lui	v1,0x8000
    1e28:	ac620030 	sw	v0,48(v1)
	...
    1e38:	8c620000 	lw	v0,0(v1)
    1e3c:	30420010 	andi	v0,v0,0x10
    1e40:	1040fffd 	beqz	v0,0x1e38
    1e44:	3c068008 	lui	a2,0x8008
    1e48:	34c20150 	ori	v0,a2,0x150
    1e4c:	34630400 	ori	v1,v1,0x400
    1e50:	34c7014a 	ori	a3,a2,0x14a
    1e54:	34c40134 	ori	a0,a2,0x134
    1e58:	34c50140 	ori	a1,a2,0x140
    1e5c:	34c60144 	ori	a2,a2,0x144
    1e60:	afa20010 	sw	v0,16(sp)
    1e64:	0e0006c7 	jal	0x8001b1c
    1e68:	af830030 	sw	v1,48(gp)
    1e6c:	8fbf0018 	lw	ra,24(sp)
    1e70:	03e00008 	jr	ra
    1e74:	27bd0020 	addiu	sp,sp,32
    1e78:	8f830014 	lw	v1,20(gp)
    1e7c:	3c050800 	lui	a1,0x800
    1e80:	8ca500e8 	lw	a1,232(a1)
    1e84:	8f82001c 	lw	v0,28(gp)
    1e88:	30633fff 	andi	v1,v1,0x3fff
    1e8c:	00031980 	sll	v1,v1,0x6
    1e90:	00451021 	addu	v0,v0,a1
    1e94:	00431021 	addu	v0,v0,v1
    1e98:	2403ff80 	li	v1,-128
    1e9c:	00431824 	and	v1,v0,v1
    1ea0:	3c058000 	lui	a1,0x8000
    1ea4:	aca30028 	sw	v1,40(a1)
    1ea8:	3042007f 	andi	v0,v0,0x7f
    1eac:	3c03800c 	lui	v1,0x800c
    1eb0:	00433021 	addu	a2,v0,v1
    1eb4:	90c2000d 	lbu	v0,13(a2)
    1eb8:	00003821 	move	a3,zero
    1ebc:	34420010 	ori	v0,v0,0x10
    1ec0:	a0c2000d 	sb	v0,13(a2)
    1ec4:	8f890014 	lw	t1,20(gp)
    1ec8:	3c028008 	lui	v0,0x8008
    1ecc:	34420100 	ori	v0,v0,0x100
    1ed0:	94430044 	lhu	v1,68(v0)
    1ed4:	00091382 	srl	v0,t1,0xe
    1ed8:	30480003 	andi	t0,v0,0x3
    1edc:	24020001 	li	v0,1
    1ee0:	a4c3000e 	sh	v1,14(a2)
    1ee4:	1102000b 	beq	t0,v0,0x1f14
    1ee8:	29020002 	slti	v0,t0,2
    1eec:	10400005 	beqz	v0,0x1f04
    1ef0:	24020002 	li	v0,2
    1ef4:	1100000c 	beqz	t0,0x1f28
    1ef8:	24030001 	li	v1,1
    1efc:	0a000798 	j	0x8001e60
    1f00:	00001821 	move	v1,zero
    1f04:	11020006 	beq	t0,v0,0x1f20
    1f08:	00000000 	nop
    1f0c:	0a000798 	j	0x8001e60
    1f10:	00001821 	move	v1,zero
    1f14:	8cc2002c 	lw	v0,44(a2)
    1f18:	0a000798 	j	0x8001e60
    1f1c:	24430001 	addiu	v1,v0,1
    1f20:	8cc20014 	lw	v0,20(a2)
    1f24:	24430001 	addiu	v1,v0,1
    1f28:	8cc20018 	lw	v0,24(a2)
    1f2c:	0043102b 	sltu	v0,v0,v1
    1f30:	14400003 	bnez	v0,0x1f40
    1f34:	3c038008 	lui	v1,0x8008
    1f38:	0a0007a2 	j	0x8001e88
    1f3c:	24070001 	li	a3,1
    1f40:	34630100 	ori	v1,v1,0x100
    1f44:	9462004c 	lhu	v0,76(v1)
    1f48:	24420001 	addiu	v0,v0,1
    1f4c:	a462004c 	sh	v0,76(v1)
    1f50:	00091382 	srl	v0,t1,0xe
    1f54:	30430003 	andi	v1,v0,0x3
    1f58:	2c620002 	sltiu	v0,v1,2
    1f5c:	10400009 	beqz	v0,0x1f84
    1f60:	00802821 	move	a1,a0
    1f64:	14600004 	bnez	v1,0x1f78
    1f68:	00000000 	nop
    1f6c:	94c20034 	lhu	v0,52(a2)
    1f70:	0a0007b2 	j	0x8001ec8
    1f74:	3046ffff 	andi	a2,v0,0xffff
    1f78:	8cc60038 	lw	a2,56(a2)
    1f7c:	0a0007b2 	j	0x8001ec8
    1f80:	00802821 	move	a1,a0
    1f84:	00003021 	move	a2,zero
    1f88:	3c040800 	lui	a0,0x800
    1f8c:	24844bcc 	addiu	a0,a0,19404
    1f90:	0a0006fb 	j	0x8001bec
    1f94:	00000000 	nop
    1f98:	27bdff90 	addiu	sp,sp,-112
    1f9c:	afb60068 	sw	s6,104(sp)
    1fa0:	afb50064 	sw	s5,100(sp)
    1fa4:	afb40060 	sw	s4,96(sp)
    1fa8:	afb3005c 	sw	s3,92(sp)
    1fac:	afb20058 	sw	s2,88(sp)
    1fb0:	afb10054 	sw	s1,84(sp)
    1fb4:	afbf006c 	sw	ra,108(sp)
    1fb8:	afb00050 	sw	s0,80(sp)
    1fbc:	8c900000 	lw	s0,0(a0)
    1fc0:	0080b021 	move	s6,a0
    1fc4:	3c020800 	lui	v0,0x800
    1fc8:	8c4200e8 	lw	v0,232(v0)
    1fcc:	96040032 	lhu	a0,50(s0)
    1fd0:	8f83001c 	lw	v1,28(gp)
    1fd4:	2414ff80 	li	s4,-128
    1fd8:	30843fff 	andi	a0,a0,0x3fff
    1fdc:	00621821 	addu	v1,v1,v0
    1fe0:	00042180 	sll	a0,a0,0x6
    1fe4:	00641821 	addu	v1,v1,a0
    1fe8:	00741024 	and	v0,v1,s4
    1fec:	3c138000 	lui	s3,0x8000
    1ff0:	00a09021 	move	s2,a1
    1ff4:	90a50000 	lbu	a1,0(a1)
    1ff8:	ae620028 	sw	v0,40(s3)
    1ffc:	92040032 	lbu	a0,50(s0)
    2000:	3c02800c 	lui	v0,0x800c
    2004:	3063007f 	andi	v1,v1,0x7f
    2008:	00628821 	addu	s1,v1,v0
    200c:	308400c0 	andi	a0,a0,0xc0
    2010:	24020040 	li	v0,64
    2014:	1482002d 	bne	a0,v0,0x20cc
    2018:	0000a821 	move	s5,zero
    201c:	8e350038 	lw	s5,56(s1)
    2020:	8e220018 	lw	v0,24(s1)
    2024:	14400002 	bnez	v0,0x2030
    2028:	24020001 	li	v0,1
    202c:	ae220018 	sw	v0,24(s1)
    2030:	9202003c 	lbu	v0,60(s0)
    2034:	30420020 	andi	v0,v0,0x20
    2038:	1440000f 	bnez	v0,0x2078
    203c:	00000000 	nop
    2040:	0e000557 	jal	0x800155c
    2044:	00a02021 	move	a0,a1
    2048:	8f83001c 	lw	v1,28(gp)
    204c:	00621821 	addu	v1,v1,v0
    2050:	30640078 	andi	a0,v1,0x78
    2054:	3c020080 	lui	v0,0x80
    2058:	00822025 	or	a0,a0,v0
    205c:	00741824 	and	v1,v1,s4
    2060:	ae630800 	sw	v1,2048(s3)
    2064:	ae640810 	sw	a0,2064(s3)
    2068:	8e220018 	lw	v0,24(s1)
    206c:	8e030008 	lw	v1,8(s0)
    2070:	00431021 	addu	v0,v0,v1
    2074:	ae220018 	sw	v0,24(s1)
    2078:	8e22002c 	lw	v0,44(s1)
    207c:	8e230018 	lw	v1,24(s1)
    2080:	24420001 	addiu	v0,v0,1
    2084:	0062182b 	sltu	v1,v1,v0
    2088:	1060003d 	beqz	v1,0x2180
    208c:	00000000 	nop
    2090:	92420000 	lbu	v0,0(s2)
    2094:	24420001 	addiu	v0,v0,1
    2098:	a2420000 	sb	v0,0(s2)
    209c:	3c030800 	lui	v1,0x800
    20a0:	8c6300f4 	lw	v1,244(v1)
    20a4:	304200ff 	andi	v0,v0,0xff
    20a8:	50430001 	beql	v0,v1,0x20b0
    20ac:	a2400000 	sb	zero,0(s2)
    20b0:	0e000557 	jal	0x800155c
    20b4:	92440000 	lbu	a0,0(s2)
    20b8:	8f90001c 	lw	s0,28(gp)
    20bc:	02021021 	addu	v0,s0,v0
    20c0:	00541024 	and	v0,v0,s4
    20c4:	0a0008b8 	j	0x80022e0
    20c8:	ae620024 	sw	v0,36(s3)
    20cc:	92030032 	lbu	v1,50(s0)
    20d0:	2402ffc0 	li	v0,-64
    20d4:	00431024 	and	v0,v0,v1
    20d8:	304200ff 	andi	v0,v0,0xff
    20dc:	14400005 	bnez	v0,0x20f4
    20e0:	24020001 	li	v0,1
    20e4:	ae220018 	sw	v0,24(s1)
    20e8:	96220034 	lhu	v0,52(s1)
    20ec:	0a00082e 	j	0x80020b8
    20f0:	3055ffff 	andi	s5,v0,0xffff
    20f4:	8e220014 	lw	v0,20(s1)
    20f8:	24420001 	addiu	v0,v0,1
    20fc:	ae220018 	sw	v0,24(s1)
    2100:	92020030 	lbu	v0,48(s0)
    2104:	00021600 	sll	v0,v0,0x18
    2108:	00021603 	sra	v0,v0,0x18
    210c:	0441001c 	bgez	v0,0x2180
    2110:	00000000 	nop
    2114:	96020032 	lhu	v0,50(s0)
    2118:	27a40010 	addiu	a0,sp,16
    211c:	00802821 	move	a1,a0
    2120:	a7a20016 	sh	v0,22(sp)
    2124:	96020032 	lhu	v0,50(s0)
    2128:	00003021 	move	a2,zero
    212c:	24070001 	li	a3,1
    2130:	3042ffff 	andi	v0,v0,0xffff
    2134:	af820014 	sw	v0,20(gp)
    2138:	0e0006fb 	jal	0x8001bec
    213c:	afa0001c 	sw	zero,28(sp)
    2140:	96020032 	lhu	v0,50(s0)
    2144:	8f83001c 	lw	v1,28(gp)
    2148:	3c040800 	lui	a0,0x800
    214c:	8c8400e8 	lw	a0,232(a0)
    2150:	30423fff 	andi	v0,v0,0x3fff
    2154:	00021180 	sll	v0,v0,0x6
    2158:	00641821 	addu	v1,v1,a0
    215c:	00621821 	addu	v1,v1,v0
    2160:	00741024 	and	v0,v1,s4
    2164:	ae62002c 	sw	v0,44(s3)
    2168:	3063007f 	andi	v1,v1,0x7f
    216c:	3c02800e 	lui	v0,0x800e
    2170:	00621821 	addu	v1,v1,v0
    2174:	9062000d 	lbu	v0,13(v1)
    2178:	3042007f 	andi	v0,v0,0x7f
    217c:	a062000d 	sb	v0,13(v1)
    2180:	9222000d 	lbu	v0,13(s1)
    2184:	30420010 	andi	v0,v0,0x10
    2188:	50400078 	beqzl	v0,0x236c
    218c:	92420000 	lbu	v0,0(s2)
    2190:	3c028008 	lui	v0,0x8008
    2194:	34440100 	ori	a0,v0,0x100
    2198:	9482004c 	lhu	v0,76(a0)
    219c:	8ec30000 	lw	v1,0(s6)
    21a0:	3c130800 	lui	s3,0x800
    21a4:	967300c6 	lhu	s3,198(s3)
    21a8:	2442ffff 	addiu	v0,v0,-1
    21ac:	a482004c 	sh	v0,76(a0)
    21b0:	94620032 	lhu	v0,50(v1)
    21b4:	9623000e 	lhu	v1,14(s1)
    21b8:	3054ffff 	andi	s4,v0,0xffff
    21bc:	3070ffff 	andi	s0,v1,0xffff
    21c0:	3c030800 	lui	v1,0x800
    21c4:	8c6300d0 	lw	v1,208(v1)
    21c8:	00701807 	srav	v1,s0,v1
    21cc:	a7a30038 	sh	v1,56(sp)
    21d0:	9482003e 	lhu	v0,62(a0)
    21d4:	3063ffff 	andi	v1,v1,0xffff
    21d8:	3042ffff 	andi	v0,v0,0xffff
    21dc:	14620007 	bne	v1,v0,0x21fc
    21e0:	00000000 	nop
    21e4:	8c820030 	lw	v0,48(a0)
    21e8:	3c038000 	lui	v1,0x8000
    21ec:	24420030 	addiu	v0,v0,48
    21f0:	ac62003c 	sw	v0,60(v1)
    21f4:	0a000856 	j	0x8002158
    21f8:	8c82002c 	lw	v0,44(a0)
    21fc:	94820040 	lhu	v0,64(a0)
    2200:	3042ffff 	andi	v0,v0,0xffff
    2204:	54620009 	bnel	v1,v0,0x222c
    2208:	27a40040 	addiu	a0,sp,64
    220c:	8c820038 	lw	v0,56(a0)
    2210:	3c038000 	lui	v1,0x8000
    2214:	24420030 	addiu	v0,v0,48
    2218:	ac62003c 	sw	v0,60(v1)
    221c:	8c820034 	lw	v0,52(a0)
    2220:	ac620038 	sw	v0,56(v1)
    2224:	0a000865 	j	0x8002194
    2228:	3c038000 	lui	v1,0x8000
    222c:	27a50038 	addiu	a1,sp,56
    2230:	27a60048 	addiu	a2,sp,72
    2234:	02603821 	move	a3,s3
    2238:	0e000684 	jal	0x8001a10
    223c:	a7a00048 	sh	zero,72(sp)
    2240:	8fa30040 	lw	v1,64(sp)
    2244:	3c028000 	lui	v0,0x8000
    2248:	24630030 	addiu	v1,v1,48
    224c:	ac430038 	sw	v1,56(v0)
    2250:	8fa30044 	lw	v1,68(sp)
    2254:	ac43003c 	sw	v1,60(v0)
    2258:	3c038000 	lui	v1,0x8000
    225c:	3c020005 	lui	v0,0x5
    2260:	ac620030 	sw	v0,48(v1)
    2264:	3c028008 	lui	v0,0x8008
    2268:	34440100 	ori	a0,v0,0x100
    226c:	94820042 	lhu	v0,66(a0)
    2270:	34630400 	ori	v1,v1,0x400
    2274:	3042ffff 	andi	v0,v0,0xffff
    2278:	0202102b 	sltu	v0,s0,v0
    227c:	14400007 	bnez	v0,0x229c
    2280:	af830030 	sw	v1,48(gp)
    2284:	9482004e 	lhu	v0,78(a0)
    2288:	94830042 	lhu	v1,66(a0)
    228c:	02021021 	addu	v0,s0,v0
    2290:	00431023 	subu	v0,v0,v1
    2294:	0a00087b 	j	0x80021ec
    2298:	3043ffff 	andi	v1,v0,0xffff
    229c:	9483004e 	lhu	v1,78(a0)
    22a0:	94820042 	lhu	v0,66(a0)
    22a4:	02631821 	addu	v1,s3,v1
    22a8:	00501023 	subu	v0,v0,s0
    22ac:	00621823 	subu	v1,v1,v0
    22b0:	3063ffff 	andi	v1,v1,0xffff
    22b4:	3c028008 	lui	v0,0x8008
    22b8:	34440100 	ori	a0,v0,0x100
    22bc:	9482003c 	lhu	v0,60(a0)
    22c0:	3042ffff 	andi	v0,v0,0xffff
    22c4:	14430003 	bne	v0,v1,0x22d4
    22c8:	00000000 	nop
    22cc:	0a00088b 	j	0x800222c
    22d0:	24030001 	li	v1,1
    22d4:	9482003c 	lhu	v0,60(a0)
    22d8:	3042ffff 	andi	v0,v0,0xffff
    22dc:	0062102b 	sltu	v0,v1,v0
    22e0:	14400005 	bnez	v0,0x22f8
    22e4:	8f820030 	lw	v0,48(gp)
    22e8:	9482003c 	lhu	v0,60(a0)
    22ec:	00621023 	subu	v0,v1,v0
    22f0:	3043ffff 	andi	v1,v0,0xffff
    22f4:	8f820030 	lw	v0,48(gp)
    22f8:	ac550000 	sw	s5,0(v0)
    22fc:	ac400004 	sw	zero,4(v0)
    2300:	ac540008 	sw	s4,8(v0)
    2304:	ac43000c 	sw	v1,12(v0)
    2308:	3c020006 	lui	v0,0x6
    230c:	34420010 	ori	v0,v0,0x10
    2310:	3c038000 	lui	v1,0x8000
    2314:	ac620030 	sw	v0,48(v1)
	...
    2324:	8c620000 	lw	v0,0(v1)
    2328:	30420010 	andi	v0,v0,0x10
    232c:	1040fffd 	beqz	v0,0x2324
    2330:	3c048008 	lui	a0,0x8008
    2334:	34840100 	ori	a0,a0,0x100
    2338:	001018c2 	srl	v1,s0,0x3
    233c:	00641821 	addu	v1,v1,a0
    2340:	90650054 	lbu	a1,84(v1)
    2344:	32020007 	andi	v0,s0,0x7
    2348:	24060001 	li	a2,1
    234c:	00461004 	sllv	v0,a2,v0
    2350:	00451025 	or	v0,v0,a1
    2354:	a0620054 	sb	v0,84(v1)
    2358:	94830042 	lhu	v1,66(a0)
    235c:	9622000e 	lhu	v0,14(s1)
    2360:	50430001 	beql	v0,v1,0x2368
    2364:	a3860018 	sb	a2,24(gp)
    2368:	92420000 	lbu	v0,0(s2)
    236c:	24420001 	addiu	v0,v0,1
    2370:	a2420000 	sb	v0,0(s2)
    2374:	3c030800 	lui	v1,0x800
    2378:	8c6300f4 	lw	v1,244(v1)
    237c:	304200ff 	andi	v0,v0,0xff
    2380:	50430001 	beql	v0,v1,0x2388
    2384:	a2400000 	sb	zero,0(s2)
    2388:	0e000557 	jal	0x800155c
    238c:	92440000 	lbu	a0,0(s2)
    2390:	8f90001c 	lw	s0,28(gp)
    2394:	2403ff80 	li	v1,-128
    2398:	02021021 	addu	v0,s0,v0
    239c:	00431024 	and	v0,v0,v1
    23a0:	3c038000 	lui	v1,0x8000
    23a4:	ac620024 	sw	v0,36(v1)
    23a8:	0e000557 	jal	0x800155c
    23ac:	92440000 	lbu	a0,0(s2)
    23b0:	02028021 	addu	s0,s0,v0
    23b4:	3210007f 	andi	s0,s0,0x7f
    23b8:	3c02800a 	lui	v0,0x800a
    23bc:	02028021 	addu	s0,s0,v0
    23c0:	aed00000 	sw	s0,0(s6)
    23c4:	8fbf006c 	lw	ra,108(sp)
    23c8:	8fb60068 	lw	s6,104(sp)
    23cc:	8fb50064 	lw	s5,100(sp)
    23d0:	8fb40060 	lw	s4,96(sp)
    23d4:	8fb3005c 	lw	s3,92(sp)
    23d8:	8fb20058 	lw	s2,88(sp)
    23dc:	8fb10054 	lw	s1,84(sp)
    23e0:	8fb00050 	lw	s0,80(sp)
    23e4:	03e00008 	jr	ra
    23e8:	27bd0070 	addiu	sp,sp,112
    23ec:	27bdffd8 	addiu	sp,sp,-40
    23f0:	afb3001c 	sw	s3,28(sp)
    23f4:	afb20018 	sw	s2,24(sp)
    23f8:	afb10014 	sw	s1,20(sp)
    23fc:	afb00010 	sw	s0,16(sp)
    2400:	afbf0020 	sw	ra,32(sp)
    2404:	00809821 	move	s3,a0
    2408:	00e08021 	move	s0,a3
    240c:	30b1ffff 	andi	s1,a1,0xffff
    2410:	0e000d71 	jal	0x80035c4
    2414:	30d200ff 	andi	s2,a2,0xff
	...
    2424:	8f82002c 	lw	v0,44(gp)
    2428:	ac510000 	sw	s1,0(v0)
    242c:	ac520004 	sw	s2,4(v0)
    2430:	ac530008 	sw	s3,8(v0)
    2434:	ac40000c 	sw	zero,12(v0)
    2438:	ac400010 	sw	zero,16(v0)
    243c:	ac400014 	sw	zero,20(v0)
    2440:	ac400018 	sw	zero,24(v0)
    2444:	3c030800 	lui	v1,0x800
    2448:	94634bfe 	lhu	v1,19454(v1)
    244c:	02038025 	or	s0,s0,v1
    2450:	ac50001c 	sw	s0,28(v0)
	...
    2460:	24040001 	li	a0,1
    2464:	8fbf0020 	lw	ra,32(sp)
    2468:	8fb3001c 	lw	s3,28(sp)
    246c:	8fb20018 	lw	s2,24(sp)
    2470:	8fb10014 	lw	s1,20(sp)
    2474:	8fb00010 	lw	s0,16(sp)
    2478:	0a000d98 	j	0x8003660
    247c:	27bd0028 	addiu	sp,sp,40
    2480:	30a5ffff 	andi	a1,a1,0xffff
    2484:	30c600ff 	andi	a2,a2,0xff
    2488:	24030c80 	li	v1,3200
    248c:	3c028000 	lui	v0,0x8000
    2490:	ac430024 	sw	v1,36(v0)
	...
    24a8:	0a0008c9 	j	0x8002324
    24ac:	00000000 	nop
    24b0:	3c028008 	lui	v0,0x8008
    24b4:	34430100 	ori	v1,v0,0x100
    24b8:	9462000e 	lhu	v0,14(v1)
    24bc:	3c080800 	lui	t0,0x800
    24c0:	950800c6 	lhu	t0,198(t0)
    24c4:	3046ffff 	andi	a2,v0,0xffff
    24c8:	14c00004 	bnez	a2,0x24dc
    24cc:	3402ffff 	li	v0,0xffff
    24d0:	946500da 	lhu	a1,218(v1)
    24d4:	0a00091f 	j	0x800247c
    24d8:	8f84001c 	lw	a0,28(gp)
    24dc:	10c20027 	beq	a2,v0,0x257c
    24e0:	00000000 	nop
    24e4:	9462004e 	lhu	v0,78(v1)
    24e8:	9464003c 	lhu	a0,60(v1)
    24ec:	3045ffff 	andi	a1,v0,0xffff
    24f0:	00a61023 	subu	v0,a1,a2
    24f4:	00a6182b 	sltu	v1,a1,a2
    24f8:	3087ffff 	andi	a3,a0,0xffff
    24fc:	10600004 	beqz	v1,0x2510
    2500:	3044ffff 	andi	a0,v0,0xffff
    2504:	00c51023 	subu	v0,a2,a1
    2508:	00e21023 	subu	v0,a3,v0
    250c:	3044ffff 	andi	a0,v0,0xffff
    2510:	0088102b 	sltu	v0,a0,t0
    2514:	1040000e 	beqz	v0,0x2550
    2518:	00e81023 	subu	v0,a3,t0
    251c:	3c028008 	lui	v0,0x8008
    2520:	34440100 	ori	a0,v0,0x100
    2524:	24030001 	li	v1,1
    2528:	34420080 	ori	v0,v0,0x80
    252c:	a4430016 	sh	v1,22(v0)
    2530:	2402ffff 	li	v0,-1
    2534:	a482000e 	sh	v0,14(a0)
    2538:	948500da 	lhu	a1,218(a0)
    253c:	8f84001c 	lw	a0,28(gp)
    2540:	00003021 	move	a2,zero
    2544:	30a5ffff 	andi	a1,a1,0xffff
    2548:	0a0008ee 	j	0x80023b8
    254c:	3c076020 	lui	a3,0x6020
    2550:	0044102a 	slt	v0,v0,a0
    2554:	10400009 	beqz	v0,0x257c
    2558:	3c028008 	lui	v0,0x8008
    255c:	34430080 	ori	v1,v0,0x80
    2560:	94620016 	lhu	v0,22(v1)
    2564:	30420001 	andi	v0,v0,0x1
    2568:	10400004 	beqz	v0,0x257c
    256c:	3c028000 	lui	v0,0x8000
    2570:	9442007e 	lhu	v0,126(v0)
    2574:	24420014 	addiu	v0,v0,20
    2578:	a4620016 	sh	v0,22(v1)
    257c:	03e00008 	jr	ra
    2580:	00000000 	nop
    2584:	27bdffe0 	addiu	sp,sp,-32
    2588:	3c028008 	lui	v0,0x8008
    258c:	afbf001c 	sw	ra,28(sp)
    2590:	afb00018 	sw	s0,24(sp)
    2594:	34420100 	ori	v0,v0,0x100
    2598:	94430042 	lhu	v1,66(v0)
    259c:	9442004c 	lhu	v0,76(v0)
    25a0:	10400019 	beqz	v0,0x2608
    25a4:	3068ffff 	andi	t0,v1,0xffff
    25a8:	93830018 	lbu	v1,24(gp)
    25ac:	24020001 	li	v0,1
    25b0:	14620029 	bne	v1,v0,0x2658
    25b4:	8fbf001c 	lw	ra,28(sp)
    25b8:	3c068008 	lui	a2,0x8008
    25bc:	34d00100 	ori	s0,a2,0x100
    25c0:	000810c2 	srl	v0,t0,0x3
    25c4:	00501021 	addu	v0,v0,s0
    25c8:	90420054 	lbu	v0,84(v0)
    25cc:	31030007 	andi	v1,t0,0x7
    25d0:	34c70148 	ori	a3,a2,0x148
    25d4:	304200ff 	andi	v0,v0,0xff
    25d8:	00621007 	srav	v0,v0,v1
    25dc:	30420001 	andi	v0,v0,0x1
    25e0:	34c9014e 	ori	t1,a2,0x14e
    25e4:	34c4012c 	ori	a0,a2,0x12c
    25e8:	34c5013e 	ori	a1,a2,0x13e
    25ec:	10400016 	beqz	v0,0x2648
    25f0:	34c60142 	ori	a2,a2,0x142
    25f4:	0e0006c7 	jal	0x8001b1c
    25f8:	afa90010 	sw	t1,16(sp)
    25fc:	96020042 	lhu	v0,66(s0)
    2600:	0a00093c 	j	0x80024f0
    2604:	3048ffff 	andi	t0,v0,0xffff
    2608:	3c028008 	lui	v0,0x8008
    260c:	34440100 	ori	a0,v0,0x100
    2610:	94830044 	lhu	v1,68(a0)
    2614:	94820042 	lhu	v0,66(a0)
    2618:	1043000f 	beq	v0,v1,0x2658
    261c:	8fbf001c 	lw	ra,28(sp)
    2620:	94820044 	lhu	v0,68(a0)
    2624:	a4820042 	sh	v0,66(a0)
    2628:	94820050 	lhu	v0,80(a0)
    262c:	a482004e 	sh	v0,78(a0)
    2630:	8c820038 	lw	v0,56(a0)
    2634:	ac820030 	sw	v0,48(a0)
    2638:	94820040 	lhu	v0,64(a0)
    263c:	a482003e 	sh	v0,62(a0)
    2640:	9482004a 	lhu	v0,74(a0)
    2644:	a4820048 	sh	v0,72(a0)
    2648:	8fbf001c 	lw	ra,28(sp)
    264c:	8fb00018 	lw	s0,24(sp)
    2650:	0a0008fa 	j	0x80023e8
    2654:	27bd0020 	addiu	sp,sp,32
    2658:	8fb00018 	lw	s0,24(sp)
    265c:	03e00008 	jr	ra
    2660:	27bd0020 	addiu	sp,sp,32
    2664:	27bdffa0 	addiu	sp,sp,-96
    2668:	afb1004c 	sw	s1,76(sp)
    266c:	3c118000 	lui	s1,0x8000
    2670:	afbf0058 	sw	ra,88(sp)
    2674:	afb30054 	sw	s3,84(sp)
    2678:	afb20050 	sw	s2,80(sp)
    267c:	afb00048 	sw	s0,72(sp)
    2680:	36260188 	ori	a2,s1,0x188
    2684:	90c20003 	lbu	v0,3(a2)
    2688:	3044007f 	andi	a0,v0,0x7f
    268c:	a3a40010 	sb	a0,16(sp)
    2690:	8e320180 	lw	s2,384(s1)
    2694:	90c20000 	lbu	v0,0(a2)
    2698:	3043007f 	andi	v1,v0,0x7f
    269c:	24020003 	li	v0,3
    26a0:	1062003b 	beq	v1,v0,0x2790
    26a4:	af92001c 	sw	s2,28(gp)
    26a8:	28620004 	slti	v0,v1,4
    26ac:	10400006 	beqz	v0,0x26c8
    26b0:	24020004 	li	v0,4
    26b4:	24020002 	li	v0,2
    26b8:	10620009 	beq	v1,v0,0x26e0
    26bc:	8fbf0058 	lw	ra,88(sp)
    26c0:	0a000b03 	j	0x8002c0c
    26c4:	8fb30054 	lw	s3,84(sp)
    26c8:	1062004b 	beq	v1,v0,0x27f8
    26cc:	24020005 	li	v0,5
    26d0:	1062014c 	beq	v1,v0,0x2c04
    26d4:	8fbf0058 	lw	ra,88(sp)
    26d8:	0a000b03 	j	0x8002c0c
    26dc:	8fb30054 	lw	s3,84(sp)
    26e0:	000411c0 	sll	v0,a0,0x7
    26e4:	02421021 	addu	v0,s2,v0
    26e8:	2404ff80 	li	a0,-128
    26ec:	24420240 	addiu	v0,v0,576
    26f0:	00441024 	and	v0,v0,a0
    26f4:	26430040 	addiu	v1,s2,64
    26f8:	ae220024 	sw	v0,36(s1)
    26fc:	3063007f 	andi	v1,v1,0x7f
    2700:	3c02800a 	lui	v0,0x800a
    2704:	00621821 	addu	v1,v1,v0
    2708:	9062003c 	lbu	v0,60(v1)
    270c:	afa3003c 	sw	v1,60(sp)
    2710:	00441025 	or	v0,v0,a0
    2714:	a062003c 	sb	v0,60(v1)
    2718:	8fa3003c 	lw	v1,60(sp)
    271c:	9062003c 	lbu	v0,60(v1)
    2720:	30420040 	andi	v0,v0,0x40
    2724:	1040016a 	beqz	v0,0x2cd0
    2728:	8fbf0058 	lw	ra,88(sp)
    272c:	3c108008 	lui	s0,0x8008
    2730:	a3800018 	sb	zero,24(gp)
    2734:	36100100 	ori	s0,s0,0x100
    2738:	8e0200d0 	lw	v0,208(s0)
    273c:	8c630034 	lw	v1,52(v1)
    2740:	27a4003c 	addiu	a0,sp,60
    2744:	27a50010 	addiu	a1,sp,16
    2748:	00431021 	addu	v0,v0,v1
    274c:	0e0007b4 	jal	0x8001ed0
    2750:	ae0200d0 	sw	v0,208(s0)
    2754:	93a20010 	lbu	v0,16(sp)
    2758:	3c038000 	lui	v1,0x8000
    275c:	a20200c5 	sb	v0,197(s0)
    2760:	8c620278 	lw	v0,632(v1)
    2764:	0440fffe 	bltz	v0,0x2760
    2768:	8f82001c 	lw	v0,28(gp)
    276c:	ac620240 	sw	v0,576(v1)
    2770:	24020002 	li	v0,2
    2774:	a0620244 	sb	v0,580(v1)
    2778:	3c021000 	lui	v0,0x1000
    277c:	ac620278 	sw	v0,632(v1)
    2780:	0e00092f 	jal	0x80024bc
    2784:	00000000 	nop
    2788:	0a000b02 	j	0x8002c08
    278c:	8fbf0058 	lw	ra,88(sp)
    2790:	3c058008 	lui	a1,0x8008
    2794:	90c30001 	lbu	v1,1(a2)
    2798:	90a2000b 	lbu	v0,11(a1)
    279c:	1443014c 	bne	v0,v1,0x2cd0
    27a0:	8fbf0058 	lw	ra,88(sp)
    27a4:	34a40080 	ori	a0,a1,0x80
    27a8:	8c820018 	lw	v0,24(a0)
    27ac:	9082004c 	lbu	v0,76(a0)
    27b0:	90a20008 	lbu	v0,8(a1)
    27b4:	8c830018 	lw	v1,24(a0)
    27b8:	3c027fff 	lui	v0,0x7fff
    27bc:	3442ffff 	ori	v0,v0,0xffff
    27c0:	00621824 	and	v1,v1,v0
    27c4:	3c020800 	lui	v0,0x800
    27c8:	8c4200b4 	lw	v0,180(v0)
    27cc:	ac830018 	sw	v1,24(a0)
    27d0:	3c038000 	lui	v1,0x8000
    27d4:	24420001 	addiu	v0,v0,1
    27d8:	3c010800 	lui	at,0x800
    27dc:	ac2200b4 	sw	v0,180(at)
    27e0:	8c6201f8 	lw	v0,504(v1)
    27e4:	0440fffe 	bltz	v0,0x27e0
    27e8:	8f82001c 	lw	v0,28(gp)
    27ec:	ac6201c0 	sw	v0,448(v1)
    27f0:	0a000aca 	j	0x8002b28
    27f4:	24020002 	li	v0,2
    27f8:	3c108008 	lui	s0,0x8008
    27fc:	90c30001 	lbu	v1,1(a2)
    2800:	9202000b 	lbu	v0,11(s0)
    2804:	14430132 	bne	v0,v1,0x2cd0
    2808:	8fbf0058 	lw	ra,88(sp)
    280c:	36050110 	ori	a1,s0,0x110
    2810:	27a40018 	addiu	a0,sp,24
    2814:	0e000e20 	jal	0x8003880
    2818:	24060003 	li	a2,3
    281c:	27a40028 	addiu	a0,sp,40
    2820:	360501e0 	ori	a1,s0,0x1e0
    2824:	0e000e20 	jal	0x8003880
    2828:	24060003 	li	a2,3
    282c:	8fa20028 	lw	v0,40(sp)
    2830:	36030100 	ori	v1,s0,0x100
    2834:	ae020064 	sw	v0,100(s0)
    2838:	8fa2002c 	lw	v0,44(sp)
    283c:	ae020068 	sw	v0,104(s0)
    2840:	8fa20030 	lw	v0,48(sp)
    2844:	ae02006c 	sw	v0,108(s0)
    2848:	93a40018 	lbu	a0,24(sp)
    284c:	906300c5 	lbu	v1,197(v1)
    2850:	2402ff80 	li	v0,-128
    2854:	00821024 	and	v0,a0,v0
    2858:	00431025 	or	v0,v0,v1
    285c:	305000ff 	andi	s0,v0,0xff
    2860:	3084007f 	andi	a0,a0,0x7f
    2864:	3202007f 	andi	v0,s0,0x7f
    2868:	0082102a 	slt	v0,a0,v0
    286c:	54400001 	bnezl	v0,0x2874
    2870:	3a100080 	xori	s0,s0,0x80
    2874:	0e000557 	jal	0x800155c
    2878:	00000000 	nop
    287c:	02421021 	addu	v0,s2,v0
    2880:	2403ff80 	li	v1,-128
    2884:	00431024 	and	v0,v0,v1
    2888:	ae220094 	sw	v0,148(s1)
    288c:	93a40018 	lbu	a0,24(sp)
    2890:	3c130800 	lui	s3,0x800
    2894:	927300f7 	lbu	s3,247(s3)
    2898:	0e000557 	jal	0x800155c
    289c:	3084007f 	andi	a0,a0,0x7f
    28a0:	02421021 	addu	v0,s2,v0
    28a4:	3042007f 	andi	v0,v0,0x7f
    28a8:	3c038006 	lui	v1,0x8006
    28ac:	00434021 	addu	t0,v0,v1
    28b0:	8fa3001c 	lw	v1,28(sp)
    28b4:	2402ffff 	li	v0,-1
    28b8:	10620034 	beq	v1,v0,0x298c
    28bc:	afa80040 	sw	t0,64(sp)
    28c0:	93a20019 	lbu	v0,25(sp)
    28c4:	95030014 	lhu	v1,20(t0)
    28c8:	304400ff 	andi	a0,v0,0xff
    28cc:	3063ffff 	andi	v1,v1,0xffff
    28d0:	0064182b 	sltu	v1,v1,a0
    28d4:	10600010 	beqz	v1,0x2918
    28d8:	00000000 	nop
    28dc:	95040014 	lhu	a0,20(t0)
    28e0:	8d07001c 	lw	a3,28(t0)
    28e4:	8d060018 	lw	a2,24(t0)
    28e8:	3084ffff 	andi	a0,a0,0xffff
    28ec:	00442023 	subu	a0,v0,a0
    28f0:	00042100 	sll	a0,a0,0x4
    28f4:	00e43821 	addu	a3,a3,a0
    28f8:	00001021 	move	v0,zero
    28fc:	00e4202b 	sltu	a0,a3,a0
    2900:	00c23021 	addu	a2,a2,v0
    2904:	00c43021 	addu	a2,a2,a0
    2908:	ad07001c 	sw	a3,28(t0)
    290c:	ad060018 	sw	a2,24(t0)
    2910:	0a000a23 	j	0x800288c
    2914:	93a20019 	lbu	v0,25(sp)
    2918:	95040014 	lhu	a0,20(t0)
    291c:	8d07001c 	lw	a3,28(t0)
    2920:	8d060018 	lw	a2,24(t0)
    2924:	3084ffff 	andi	a0,a0,0xffff
    2928:	00822023 	subu	a0,a0,v0
    292c:	00042100 	sll	a0,a0,0x4
    2930:	00001021 	move	v0,zero
    2934:	00801821 	move	v1,a0
    2938:	00c23023 	subu	a2,a2,v0
    293c:	00e4202b 	sltu	a0,a3,a0
    2940:	00c43023 	subu	a2,a2,a0
    2944:	00e33823 	subu	a3,a3,v1
    2948:	ad07001c 	sw	a3,28(t0)
    294c:	ad060018 	sw	a2,24(t0)
    2950:	93a20019 	lbu	v0,25(sp)
    2954:	8fa30040 	lw	v1,64(sp)
    2958:	a4620014 	sh	v0,20(v1)
    295c:	97a2001a 	lhu	v0,26(sp)
    2960:	a4620016 	sh	v0,22(v1)
    2964:	8fa2001c 	lw	v0,28(sp)
    2968:	ac620010 	sw	v0,16(v1)
    296c:	8fa2001c 	lw	v0,28(sp)
    2970:	ac62000c 	sw	v0,12(v1)
    2974:	93a20019 	lbu	v0,25(sp)
    2978:	a4620020 	sh	v0,32(v1)
    297c:	97a2001a 	lhu	v0,26(sp)
    2980:	a4620022 	sh	v0,34(v1)
    2984:	8fa2001c 	lw	v0,28(sp)
    2988:	ac620024 	sw	v0,36(v1)
    298c:	3c048008 	lui	a0,0x8008
    2990:	34830080 	ori	v1,a0,0x80
    2994:	8c620038 	lw	v0,56(v1)
    2998:	8fa20020 	lw	v0,32(sp)
    299c:	02008821 	move	s1,s0
    29a0:	ac62003c 	sw	v0,60(v1)
    29a4:	8fa20020 	lw	v0,32(sp)
    29a8:	ac820000 	sw	v0,0(a0)
    29ac:	93a20018 	lbu	v0,24(sp)
    29b0:	a062004c 	sb	v0,76(v1)
    29b4:	93a20018 	lbu	v0,24(sp)
    29b8:	a0820009 	sb	v0,9(a0)
    29bc:	a0600068 	sb	zero,104(v1)
    29c0:	93a20018 	lbu	v0,24(sp)
    29c4:	10510052 	beq	v0,s1,0x2b10
    29c8:	93a40018 	lbu	a0,24(sp)
    29cc:	3230007f 	andi	s0,s1,0x7f
    29d0:	0e000557 	jal	0x800155c
    29d4:	02002021 	move	a0,s0
    29d8:	02421021 	addu	v0,s2,v0
    29dc:	2407ff80 	li	a3,-128
    29e0:	3046007f 	andi	a2,v0,0x7f
    29e4:	3c038000 	lui	v1,0x8000
    29e8:	00471024 	and	v0,v0,a3
    29ec:	ac620094 	sw	v0,148(v1)
    29f0:	3c028006 	lui	v0,0x8006
    29f4:	00c23021 	addu	a2,a2,v0
    29f8:	90c2003c 	lbu	v0,60(a2)
    29fc:	afa60040 	sw	a2,64(sp)
    2a00:	00002021 	move	a0,zero
    2a04:	00471025 	or	v0,v0,a3
    2a08:	a0c2003c 	sb	v0,60(a2)
    2a0c:	8fa80040 	lw	t0,64(sp)
    2a10:	95020002 	lhu	v0,2(t0)
    2a14:	95030014 	lhu	v1,20(t0)
    2a18:	8d07001c 	lw	a3,28(t0)
    2a1c:	3042ffff 	andi	v0,v0,0xffff
    2a20:	3063ffff 	andi	v1,v1,0xffff
    2a24:	8d060018 	lw	a2,24(t0)
    2a28:	00431023 	subu	v0,v0,v1
    2a2c:	00021100 	sll	v0,v0,0x4
    2a30:	00e23821 	addu	a3,a3,v0
    2a34:	00e2102b 	sltu	v0,a3,v0
    2a38:	00c43021 	addu	a2,a2,a0
    2a3c:	00c23021 	addu	a2,a2,v0
    2a40:	ad07001c 	sw	a3,28(t0)
    2a44:	ad060018 	sw	a2,24(t0)
    2a48:	95020002 	lhu	v0,2(t0)
    2a4c:	a5020014 	sh	v0,20(t0)
    2a50:	a5000016 	sh	zero,22(t0)
    2a54:	8d020008 	lw	v0,8(t0)
    2a58:	ad020010 	sw	v0,16(t0)
    2a5c:	8d020008 	lw	v0,8(t0)
    2a60:	ad02000c 	sw	v0,12(t0)
    2a64:	95020002 	lhu	v0,2(t0)
    2a68:	a5020020 	sh	v0,32(t0)
    2a6c:	a5000022 	sh	zero,34(t0)
    2a70:	8d020008 	lw	v0,8(t0)
    2a74:	ad020024 	sw	v0,36(t0)
    2a78:	9102003c 	lbu	v0,60(t0)
    2a7c:	30420040 	andi	v0,v0,0x40
    2a80:	1040001a 	beqz	v0,0x2aec
    2a84:	26220001 	addiu	v0,s1,1
    2a88:	a3b00038 	sb	s0,56(sp)
    2a8c:	3c108008 	lui	s0,0x8008
    2a90:	a3800018 	sb	zero,24(gp)
    2a94:	36100100 	ori	s0,s0,0x100
    2a98:	8e0200d0 	lw	v0,208(s0)
    2a9c:	8d030034 	lw	v1,52(t0)
    2aa0:	27a40040 	addiu	a0,sp,64
    2aa4:	27a50038 	addiu	a1,sp,56
    2aa8:	00431021 	addu	v0,v0,v1
    2aac:	0e0007b4 	jal	0x8001ed0
    2ab0:	ae0200d0 	sw	v0,208(s0)
    2ab4:	93a20038 	lbu	v0,56(sp)
    2ab8:	3c038000 	lui	v1,0x8000
    2abc:	a20200c5 	sb	v0,197(s0)
    2ac0:	8c620278 	lw	v0,632(v1)
    2ac4:	0440fffe 	bltz	v0,0x2ac0
    2ac8:	8f82001c 	lw	v0,28(gp)
    2acc:	ac620240 	sw	v0,576(v1)
    2ad0:	24020002 	li	v0,2
    2ad4:	a0620244 	sb	v0,580(v1)
    2ad8:	3c021000 	lui	v0,0x1000
    2adc:	ac620278 	sw	v0,632(v1)
    2ae0:	0e00092f 	jal	0x80024bc
    2ae4:	00000000 	nop
    2ae8:	26220001 	addiu	v0,s1,1
    2aec:	3043007f 	andi	v1,v0,0x7f
    2af0:	14730004 	bne	v1,s3,0x2b04
    2af4:	00402021 	move	a0,v0
    2af8:	2403ff80 	li	v1,-128
    2afc:	02231024 	and	v0,s1,v1
    2b00:	00432026 	xor	a0,v0,v1
    2b04:	93a20018 	lbu	v0,24(sp)
    2b08:	0a000a3f 	j	0x80028fc
    2b0c:	309100ff 	andi	s1,a0,0xff
    2b10:	8fa3001c 	lw	v1,28(sp)
    2b14:	2402ffff 	li	v0,-1
    2b18:	1062000a 	beq	v1,v0,0x2b44
    2b1c:	309000ff 	andi	s0,a0,0xff
    2b20:	24820001 	addiu	v0,a0,1
    2b24:	24830001 	addiu	v1,a0,1
    2b28:	3042007f 	andi	v0,v0,0x7f
    2b2c:	14530005 	bne	v0,s3,0x2b44
    2b30:	307000ff 	andi	s0,v1,0xff
    2b34:	2403ff80 	li	v1,-128
    2b38:	00831024 	and	v0,a0,v1
    2b3c:	00431026 	xor	v0,v0,v1
    2b40:	305000ff 	andi	s0,v0,0xff
    2b44:	3c028008 	lui	v0,0x8008
    2b48:	90420008 	lbu	v0,8(v0)
    2b4c:	02008821 	move	s1,s0
    2b50:	305000ff 	andi	s0,v0,0xff
    2b54:	12300019 	beq	s1,s0,0x2bbc
    2b58:	3222007f 	andi	v0,s1,0x7f
    2b5c:	000211c0 	sll	v0,v0,0x7
    2b60:	02421021 	addu	v0,s2,v0
    2b64:	24420240 	addiu	v0,v0,576
    2b68:	2403ff80 	li	v1,-128
    2b6c:	00431824 	and	v1,v0,v1
    2b70:	3c048000 	lui	a0,0x8000
    2b74:	ac830094 	sw	v1,148(a0)
    2b78:	3042007f 	andi	v0,v0,0x7f
    2b7c:	3c038006 	lui	v1,0x8006
    2b80:	00431021 	addu	v0,v0,v1
    2b84:	8c43000c 	lw	v1,12(v0)
    2b88:	00402021 	move	a0,v0
    2b8c:	1060000b 	beqz	v1,0x2bbc
    2b90:	afa20040 	sw	v0,64(sp)
    2b94:	0e000569 	jal	0x80015a4
    2b98:	00000000 	nop
    2b9c:	26230001 	addiu	v1,s1,1
    2ba0:	2405ff80 	li	a1,-128
    2ba4:	3062007f 	andi	v0,v1,0x7f
    2ba8:	14530002 	bne	v0,s3,0x2bb4
    2bac:	02252024 	and	a0,s1,a1
    2bb0:	00851826 	xor	v1,a0,a1
    2bb4:	0a000aa3 	j	0x8002a8c
    2bb8:	307100ff 	andi	s1,v1,0xff
    2bbc:	3c048008 	lui	a0,0x8008
    2bc0:	34840080 	ori	a0,a0,0x80
    2bc4:	8c830018 	lw	v1,24(a0)
    2bc8:	3c027fff 	lui	v0,0x7fff
    2bcc:	3442ffff 	ori	v0,v0,0xffff
    2bd0:	00621824 	and	v1,v1,v0
    2bd4:	ac830018 	sw	v1,24(a0)
    2bd8:	3c038000 	lui	v1,0x8000
    2bdc:	8c6201f8 	lw	v0,504(v1)
    2be0:	0440fffe 	bltz	v0,0x2bdc
    2be4:	00000000 	nop
    2be8:	ac7201c0 	sw	s2,448(v1)
    2bec:	24020002 	li	v0,2
    2bf0:	a06201c4 	sb	v0,452(v1)
    2bf4:	3c021000 	lui	v0,0x1000
    2bf8:	ac6201f8 	sw	v0,504(v1)
    2bfc:	0a000b02 	j	0x8002c08
    2c00:	8fbf0058 	lw	ra,88(sp)
    2c04:	3c048008 	lui	a0,0x8008
    2c08:	90c30001 	lbu	v1,1(a2)
    2c0c:	9082000b 	lbu	v0,11(a0)
    2c10:	1443002f 	bne	v0,v1,0x2cd0
    2c14:	8fbf0058 	lw	ra,88(sp)
    2c18:	34900080 	ori	s0,a0,0x80
    2c1c:	92020008 	lbu	v0,8(s0)
    2c20:	30420040 	andi	v0,v0,0x40
    2c24:	10400020 	beqz	v0,0x2ca8
    2c28:	00000000 	nop
    2c2c:	92020008 	lbu	v0,8(s0)
    2c30:	00021600 	sll	v0,v0,0x18
    2c34:	00021603 	sra	v0,v0,0x18
    2c38:	04410005 	bgez	v0,0x2c50
    2c3c:	02402021 	move	a0,s2
    2c40:	0e000ea5 	jal	0x8003a94
    2c44:	24050093 	li	a1,147
    2c48:	0a000b02 	j	0x8002c08
    2c4c:	8fbf0058 	lw	ra,88(sp)
    2c50:	92020009 	lbu	v0,9(s0)
    2c54:	24030018 	li	v1,24
    2c58:	304200ff 	andi	v0,v0,0xff
    2c5c:	1443000d 	bne	v0,v1,0x2c94
    2c60:	02402021 	move	a0,s2
    2c64:	24050039 	li	a1,57
    2c68:	0e000e3d 	jal	0x80038f4
    2c6c:	00003021 	move	a2,zero
    2c70:	0e000315 	jal	0x8000c54
    2c74:	8f84001c 	lw	a0,28(gp)
    2c78:	8f82ffac 	lw	v0,-84(gp)
    2c7c:	24030012 	li	v1,18
    2c80:	a0430009 	sb	v1,9(v0)
    2c84:	0e000320 	jal	0x8000c80
    2c88:	8f84001c 	lw	a0,28(gp)
    2c8c:	0a000b02 	j	0x8002c08
    2c90:	8fbf0058 	lw	ra,88(sp)
    2c94:	24050036 	li	a1,54
    2c98:	0e000e3d 	jal	0x80038f4
    2c9c:	00003021 	move	a2,zero
    2ca0:	0a000b02 	j	0x8002c08
    2ca4:	8fbf0058 	lw	ra,88(sp)
    2ca8:	0e000315 	jal	0x8000c54
    2cac:	02402021 	move	a0,s2
    2cb0:	92020005 	lbu	v0,5(s0)
    2cb4:	8f84001c 	lw	a0,28(gp)
    2cb8:	34420020 	ori	v0,v0,0x20
    2cbc:	0e000320 	jal	0x8000c80
    2cc0:	a2020005 	sb	v0,5(s0)
    2cc4:	0e00104c 	jal	0x8004130
    2cc8:	8f84001c 	lw	a0,28(gp)
    2ccc:	8fbf0058 	lw	ra,88(sp)
    2cd0:	8fb30054 	lw	s3,84(sp)
    2cd4:	8fb20050 	lw	s2,80(sp)
    2cd8:	8fb1004c 	lw	s1,76(sp)
    2cdc:	8fb00048 	lw	s0,72(sp)
    2ce0:	24030c80 	li	v1,3200
    2ce4:	3c028000 	lui	v0,0x8000
    2ce8:	27bd0060 	addiu	sp,sp,96
    2cec:	03e00008 	jr	ra
    2cf0:	ac430024 	sw	v1,36(v0)
    2cf4:	27bdffe8 	addiu	sp,sp,-24
    2cf8:	3c028008 	lui	v0,0x8008
    2cfc:	afb00010 	sw	s0,16(sp)
    2d00:	afbf0014 	sw	ra,20(sp)
    2d04:	34450100 	ori	a1,v0,0x100
    2d08:	3c108000 	lui	s0,0x8000
    2d0c:	8e020140 	lw	v0,320(s0)
    2d10:	94a3000e 	lhu	v1,14(a1)
    2d14:	00003021 	move	a2,zero
    2d18:	00402021 	move	a0,v0
    2d1c:	af82001c 	sw	v0,28(gp)
    2d20:	3063ffff 	andi	v1,v1,0xffff
    2d24:	3402ffff 	li	v0,0xffff
    2d28:	10620006 	beq	v1,v0,0x2d44
    2d2c:	3c076020 	lui	a3,0x6020
    2d30:	2402ffff 	li	v0,-1
    2d34:	a4a2000e 	sh	v0,14(a1)
    2d38:	94a500da 	lhu	a1,218(a1)
    2d3c:	0e0008ee 	jal	0x80023b8
    2d40:	30a5ffff 	andi	a1,a1,0xffff
    2d44:	24020c80 	li	v0,3200
    2d48:	ae020024 	sw	v0,36(s0)
    2d4c:	8fbf0014 	lw	ra,20(sp)
    2d50:	8fb00010 	lw	s0,16(sp)
    2d54:	03e00008 	jr	ra
    2d58:	27bd0018 	addiu	sp,sp,24
    2d5c:	27bdffc0 	addiu	sp,sp,-64
    2d60:	3c098000 	lui	t1,0x8000
    2d64:	3c058008 	lui	a1,0x8008
    2d68:	afb70034 	sw	s7,52(sp)
    2d6c:	afb20020 	sw	s2,32(sp)
    2d70:	afbf0038 	sw	ra,56(sp)
    2d74:	afb60030 	sw	s6,48(sp)
    2d78:	afb5002c 	sw	s5,44(sp)
    2d7c:	afb40028 	sw	s4,40(sp)
    2d80:	afb30024 	sw	s3,36(sp)
    2d84:	afb1001c 	sw	s1,28(sp)
    2d88:	afb00018 	sw	s0,24(sp)
    2d8c:	35320100 	ori	s2,t1,0x100
    2d90:	34a80100 	ori	t0,a1,0x100
    2d94:	8d270100 	lw	a3,256(t1)
    2d98:	8e420014 	lw	v0,20(s2)
    2d9c:	8d0300d4 	lw	v1,212(t0)
    2da0:	0000b821 	move	s7,zero
    2da4:	a3800018 	sb	zero,24(gp)
    2da8:	00431023 	subu	v0,v0,v1
    2dac:	18400055 	blez	v0,0x2f04
    2db0:	af87001c 	sw	a3,28(gp)
    2db4:	8e420014 	lw	v0,20(s2)
    2db8:	2403ff80 	li	v1,-128
    2dbc:	24e40040 	addiu	a0,a3,64
    2dc0:	ad0200d4 	sw	v0,212(t0)
    2dc4:	90a60008 	lbu	a2,8(a1)
    2dc8:	910500c5 	lbu	a1,197(t0)
    2dcc:	3084007f 	andi	a0,a0,0x7f
    2dd0:	30d3007f 	andi	s3,a2,0x7f
    2dd4:	30a200ff 	andi	v0,a1,0xff
    2dd8:	000211c0 	sll	v0,v0,0x7
    2ddc:	00e21021 	addu	v0,a3,v0
    2de0:	24420240 	addiu	v0,v0,576
    2de4:	a3a50010 	sb	a1,16(sp)
    2de8:	00431024 	and	v0,v0,v1
    2dec:	8d1400d0 	lw	s4,208(t0)
    2df0:	8d1500d4 	lw	s5,212(t0)
    2df4:	ad220024 	sw	v0,36(t1)
    2df8:	93a30010 	lbu	v1,16(sp)
    2dfc:	3c02800a 	lui	v0,0x800a
    2e00:	00822021 	addu	a0,a0,v0
    2e04:	afa40014 	sw	a0,20(sp)
    2e08:	10730033 	beq	v1,s3,0x2ed8
    2e0c:	0000b021 	move	s6,zero
    2e10:	8fa30014 	lw	v1,20(sp)
    2e14:	27a40014 	addiu	a0,sp,20
    2e18:	27a50010 	addiu	a1,sp,16
    2e1c:	8c620034 	lw	v0,52(v1)
    2e20:	02828021 	addu	s0,s4,v0
    2e24:	02b01023 	subu	v0,s5,s0
    2e28:	0440002b 	bltz	v0,0x2ed8
    2e2c:	2411ff80 	li	s1,-128
    2e30:	9062003c 	lbu	v0,60(v1)
    2e34:	02221024 	and	v0,s1,v0
    2e38:	304200ff 	andi	v0,v0,0xff
    2e3c:	1440001b 	bnez	v0,0x2eac
    2e40:	0200a021 	move	s4,s0
    2e44:	9062003c 	lbu	v0,60(v1)
    2e48:	34420040 	ori	v0,v0,0x40
    2e4c:	a062003c 	sb	v0,60(v1)
    2e50:	93a20010 	lbu	v0,16(sp)
    2e54:	24420001 	addiu	v0,v0,1
    2e58:	304300ff 	andi	v1,v0,0xff
    2e5c:	a3a20010 	sb	v0,16(sp)
    2e60:	3c020800 	lui	v0,0x800
    2e64:	8c4200f4 	lw	v0,244(v0)
    2e68:	50620001 	beql	v1,v0,0x2e70
    2e6c:	a3a00010 	sb	zero,16(sp)
    2e70:	0e000557 	jal	0x800155c
    2e74:	93a40010 	lbu	a0,16(sp)
    2e78:	8f90001c 	lw	s0,28(gp)
    2e7c:	3c038000 	lui	v1,0x8000
    2e80:	02021021 	addu	v0,s0,v0
    2e84:	00511024 	and	v0,v0,s1
    2e88:	ac620024 	sw	v0,36(v1)
    2e8c:	0e000557 	jal	0x800155c
    2e90:	93a40010 	lbu	a0,16(sp)
    2e94:	02028021 	addu	s0,s0,v0
    2e98:	3210007f 	andi	s0,s0,0x7f
    2e9c:	3c02800a 	lui	v0,0x800a
    2ea0:	02028021 	addu	s0,s0,v0
    2ea4:	0a000b81 	j	0x8002e04
    2ea8:	afb00014 	sw	s0,20(sp)
    2eac:	0e0007b4 	jal	0x8001ed0
    2eb0:	00000000 	nop
    2eb4:	3c028008 	lui	v0,0x8008
    2eb8:	34420100 	ori	v0,v0,0x100
    2ebc:	ac5000d0 	sw	s0,208(v0)
    2ec0:	93a30010 	lbu	v1,16(sp)
    2ec4:	24160001 	li	s6,1
    2ec8:	a04300c5 	sb	v1,197(v0)
    2ecc:	93a20010 	lbu	v0,16(sp)
    2ed0:	1453ffd0 	bne	v0,s3,0x2e14
    2ed4:	8fa30014 	lw	v1,20(sp)
    2ed8:	24020001 	li	v0,1
    2edc:	16c20009 	bne	s6,v0,0x2f04
    2ee0:	3c038000 	lui	v1,0x8000
    2ee4:	8c620278 	lw	v0,632(v1)
    2ee8:	0440fffe 	bltz	v0,0x2ee4
    2eec:	8f82001c 	lw	v0,28(gp)
    2ef0:	ac620240 	sw	v0,576(v1)
    2ef4:	24020002 	li	v0,2
    2ef8:	a0620244 	sb	v0,580(v1)
    2efc:	3c021000 	lui	v0,0x1000
    2f00:	ac620278 	sw	v0,632(v1)
    2f04:	9242000b 	lbu	v0,11(s2)
    2f08:	24030002 	li	v1,2
    2f0c:	304200ff 	andi	v0,v0,0xff
    2f10:	14430072 	bne	v0,v1,0x30dc
    2f14:	00000000 	nop
    2f18:	96420008 	lhu	v0,8(s2)
    2f1c:	304300ff 	andi	v1,v0,0xff
    2f20:	24020082 	li	v0,130
    2f24:	14620040 	bne	v1,v0,0x3028
    2f28:	24020084 	li	v0,132
    2f2c:	3c028000 	lui	v0,0x8000
    2f30:	34490100 	ori	t1,v0,0x100
    2f34:	8d22000c 	lw	v0,12(t1)
    2f38:	95230006 	lhu	v1,6(t1)
    2f3c:	00021602 	srl	v0,v0,0x18
    2f40:	3063ffff 	andi	v1,v1,0xffff
    2f44:	3044003f 	andi	a0,v0,0x3f
    2f48:	24020027 	li	v0,39
    2f4c:	1082000f 	beq	a0,v0,0x2f8c
    2f50:	af830014 	sw	v1,20(gp)
    2f54:	28820028 	slti	v0,a0,40
    2f58:	10400008 	beqz	v0,0x2f7c
    2f5c:	24020031 	li	v0,49
    2f60:	24020021 	li	v0,33
    2f64:	10820009 	beq	a0,v0,0x2f8c
    2f68:	24020025 	li	v0,37
    2f6c:	10820007 	beq	a0,v0,0x2f8c
    2f70:	93820019 	lbu	v0,25(gp)
    2f74:	0a000bc0 	j	0x8002f00
    2f78:	00000000 	nop
    2f7c:	10820007 	beq	a0,v0,0x2f9c
    2f80:	93820019 	lbu	v0,25(gp)
    2f84:	0a000bc0 	j	0x8002f00
    2f88:	00000000 	nop
    2f8c:	0e00076c 	jal	0x8001db0
    2f90:	01202021 	move	a0,t1
    2f94:	0a000c40 	j	0x8003100
    2f98:	00000000 	nop
    2f9c:	3c038000 	lui	v1,0x8000
    2fa0:	8c620278 	lw	v0,632(v1)
    2fa4:	0440fffe 	bltz	v0,0x2fa0
    2fa8:	8f82001c 	lw	v0,28(gp)
    2fac:	ac620240 	sw	v0,576(v1)
    2fb0:	24020002 	li	v0,2
    2fb4:	a0620244 	sb	v0,580(v1)
    2fb8:	3c021000 	lui	v0,0x1000
    2fbc:	ac620278 	sw	v0,632(v1)
    2fc0:	0a000c40 	j	0x8003100
    2fc4:	00000000 	nop
    2fc8:	95230006 	lhu	v1,6(t1)
    2fcc:	91240005 	lbu	a0,5(t1)
    2fd0:	8d25000c 	lw	a1,12(t1)
    2fd4:	8d260010 	lw	a2,16(t1)
    2fd8:	8d270018 	lw	a3,24(t1)
    2fdc:	8d28001c 	lw	t0,28(t1)
    2fe0:	8d290020 	lw	t1,32(t1)
    2fe4:	24420001 	addiu	v0,v0,1
    2fe8:	3c010800 	lui	at,0x800
    2fec:	a4234bd2 	sh	v1,19410(at)
    2ff0:	3c010800 	lui	at,0x800
    2ff4:	a0244bd1 	sb	a0,19409(at)
    2ff8:	3c010800 	lui	at,0x800
    2ffc:	ac254bd8 	sw	a1,19416(at)
    3000:	3c010800 	lui	at,0x800
    3004:	ac264bdc 	sw	a2,19420(at)
    3008:	3c010800 	lui	at,0x800
    300c:	ac274be4 	sw	a3,19428(at)
    3010:	3c010800 	lui	at,0x800
    3014:	ac284be8 	sw	t0,19432(at)
    3018:	3c010800 	lui	at,0x800
    301c:	ac294bec 	sw	t1,19436(at)
    3020:	0a000c40 	j	0x8003100
    3024:	a3820019 	sb	v0,25(gp)
    3028:	1462000a 	bne	v1,v0,0x3054
    302c:	24020081 	li	v0,129
    3030:	3c028008 	lui	v0,0x8008
    3034:	34420100 	ori	v0,v0,0x100
    3038:	944500da 	lhu	a1,218(v0)
    303c:	92460005 	lbu	a2,5(s2)
    3040:	8f84001c 	lw	a0,28(gp)
    3044:	30a5ffff 	andi	a1,a1,0xffff
    3048:	30c600ff 	andi	a2,a2,0xff
    304c:	0a000c01 	j	0x8003004
    3050:	3c076021 	lui	a3,0x6021
    3054:	1462005c 	bne	v1,v0,0x31c8
    3058:	00000000 	nop
    305c:	9242000a 	lbu	v0,10(s2)
    3060:	304300ff 	andi	v1,v0,0xff
    3064:	30620020 	andi	v0,v1,0x20
    3068:	10400007 	beqz	v0,0x3088
    306c:	30620040 	andi	v0,v1,0x40
    3070:	3c028008 	lui	v0,0x8008
    3074:	34420100 	ori	v0,v0,0x100
    3078:	944500da 	lhu	a1,218(v0)
    307c:	8f84001c 	lw	a0,28(gp)
    3080:	0a000bff 	j	0x8002ffc
    3084:	24060040 	li	a2,64
    3088:	10400007 	beqz	v0,0x30a8
    308c:	00031600 	sll	v0,v1,0x18
    3090:	3c028008 	lui	v0,0x8008
    3094:	34420100 	ori	v0,v0,0x100
    3098:	944500da 	lhu	a1,218(v0)
    309c:	8f84001c 	lw	a0,28(gp)
    30a0:	0a000bff 	j	0x8002ffc
    30a4:	24060041 	li	a2,65
    30a8:	00021603 	sra	v0,v0,0x18
    30ac:	04410046 	bgez	v0,0x31c8
    30b0:	3c028008 	lui	v0,0x8008
    30b4:	34420100 	ori	v0,v0,0x100
    30b8:	944500da 	lhu	a1,218(v0)
    30bc:	8f84001c 	lw	a0,28(gp)
    30c0:	24060042 	li	a2,66
    30c4:	30a5ffff 	andi	a1,a1,0xffff
    30c8:	3c076019 	lui	a3,0x6019
    30cc:	0e0008ee 	jal	0x80023b8
    30d0:	00000000 	nop
    30d4:	0a000c40 	j	0x8003100
    30d8:	00000000 	nop
    30dc:	9242000b 	lbu	v0,11(s2)
    30e0:	24040016 	li	a0,22
    30e4:	304200ff 	andi	v0,v0,0xff
    30e8:	10440006 	beq	v0,a0,0x3104
    30ec:	3c068000 	lui	a2,0x8000
    30f0:	9242000b 	lbu	v0,11(s2)
    30f4:	24030017 	li	v1,23
    30f8:	304200ff 	andi	v0,v0,0xff
    30fc:	14430032 	bne	v0,v1,0x31c8
    3100:	00000000 	nop
    3104:	34c50100 	ori	a1,a2,0x100
    3108:	90a2000b 	lbu	v0,11(a1)
    310c:	304200ff 	andi	v0,v0,0xff
    3110:	1444000b 	bne	v0,a0,0x3140
    3114:	00008021 	move	s0,zero
    3118:	8ca20020 	lw	v0,32(a1)
    311c:	8ca40020 	lw	a0,32(a1)
    3120:	2403ff80 	li	v1,-128
    3124:	00431024 	and	v0,v0,v1
    3128:	00021140 	sll	v0,v0,0x5
    312c:	3084007f 	andi	a0,a0,0x7f
    3130:	00441025 	or	v0,v0,a0
    3134:	3c032000 	lui	v1,0x2000
    3138:	00431025 	or	v0,v0,v1
    313c:	acc20830 	sw	v0,2096(a2)
    3140:	94a20008 	lhu	v0,8(a1)
    3144:	00021400 	sll	v0,v0,0x10
    3148:	00021403 	sra	v0,v0,0x10
    314c:	04420001 	bltzl	v0,0x3154
    3150:	24100001 	li	s0,1
    3154:	94a20008 	lhu	v0,8(a1)
    3158:	30420080 	andi	v0,v0,0x80
    315c:	5040001a 	beqzl	v0,0x31c8
    3160:	0200b821 	move	s7,s0
    3164:	94a20008 	lhu	v0,8(a1)
    3168:	30422000 	andi	v0,v0,0x2000
    316c:	50400016 	beqzl	v0,0x31c8
    3170:	0200b821 	move	s7,s0
    3174:	8ca30018 	lw	v1,24(a1)
    3178:	3c021c2d 	lui	v0,0x1c2d
    317c:	344219ed 	ori	v0,v0,0x19ed
    3180:	10620011 	beq	v1,v0,0x31c8
    3184:	0200b821 	move	s7,s0
    3188:	3c020800 	lui	v0,0x800
    318c:	8c4200d4 	lw	v0,212(v0)
    3190:	10400005 	beqz	v0,0x31a8
    3194:	3c028008 	lui	v0,0x8008
    3198:	24030004 	li	v1,4
    319c:	34420100 	ori	v0,v0,0x100
    31a0:	a04300ec 	sb	v1,236(v0)
    31a4:	3c028008 	lui	v0,0x8008
    31a8:	34420100 	ori	v0,v0,0x100
    31ac:	944500da 	lhu	a1,218(v0)
    31b0:	8f84001c 	lw	a0,28(gp)
    31b4:	24060006 	li	a2,6
    31b8:	30a5ffff 	andi	a1,a1,0xffff
    31bc:	0e0008ee 	jal	0x80023b8
    31c0:	3c076021 	lui	a3,0x6021
    31c4:	0200b821 	move	s7,s0
    31c8:	0e00092f 	jal	0x80024bc
    31cc:	00000000 	nop
    31d0:	9242000a 	lbu	v0,10(s2)
    31d4:	30420008 	andi	v0,v0,0x8
    31d8:	10400004 	beqz	v0,0x31ec
    31dc:	3c028000 	lui	v0,0x8000
    31e0:	0e00121f 	jal	0x800487c
    31e4:	00000000 	nop
    31e8:	3c028000 	lui	v0,0x8000
    31ec:	24030c80 	li	v1,3200
    31f0:	ac430024 	sw	v1,36(v0)
    31f4:	8fbf0038 	lw	ra,56(sp)
    31f8:	02e01021 	move	v0,s7
    31fc:	8fb60030 	lw	s6,48(sp)
    3200:	8fb70034 	lw	s7,52(sp)
    3204:	8fb5002c 	lw	s5,44(sp)
    3208:	8fb40028 	lw	s4,40(sp)
    320c:	8fb30024 	lw	s3,36(sp)
    3210:	8fb20020 	lw	s2,32(sp)
    3214:	8fb1001c 	lw	s1,28(sp)
    3218:	8fb00018 	lw	s0,24(sp)
    321c:	03e00008 	jr	ra
    3220:	27bd0040 	addiu	sp,sp,64
    3224:	2402ff80 	li	v0,-128
    3228:	00822024 	and	a0,a0,v0
    322c:	3c029000 	lui	v0,0x9000
    3230:	34420007 	ori	v0,v0,0x7
    3234:	00822025 	or	a0,a0,v0
    3238:	3c028000 	lui	v0,0x8000
    323c:	ac440020 	sw	a0,32(v0)
    3240:	3c038000 	lui	v1,0x8000
    3244:	8c620020 	lw	v0,32(v1)
    3248:	0440fffe 	bltz	v0,0x3244
    324c:	00000000 	nop
    3250:	03e00008 	jr	ra
    3254:	00000000 	nop
    3258:	3c038000 	lui	v1,0x8000
    325c:	2402ff80 	li	v0,-128
    3260:	00822024 	and	a0,a0,v0
    3264:	34620007 	ori	v0,v1,0x7
    3268:	00822025 	or	a0,a0,v0
    326c:	ac640020 	sw	a0,32(v1)
    3270:	8c620020 	lw	v0,32(v1)
    3274:	0440fffe 	bltz	v0,0x3270
    3278:	00000000 	nop
    327c:	03e00008 	jr	ra
    3280:	00000000 	nop
    3284:	3c028008 	lui	v0,0x8008
    3288:	24030005 	li	v1,5
    328c:	34420100 	ori	v0,v0,0x100
    3290:	a04300ec 	sb	v1,236(v0)
    3294:	3c028000 	lui	v0,0x8000
    3298:	8c420100 	lw	v0,256(v0)
    329c:	3c038000 	lui	v1,0x8000
    32a0:	af82001c 	sw	v0,28(gp)
    32a4:	8c620278 	lw	v0,632(v1)
    32a8:	0440fffe 	bltz	v0,0x32a4
    32ac:	8f82001c 	lw	v0,28(gp)
    32b0:	ac620240 	sw	v0,576(v1)
    32b4:	24020002 	li	v0,2
    32b8:	a0620244 	sb	v0,580(v1)
    32bc:	3c021000 	lui	v0,0x1000
    32c0:	ac620278 	sw	v0,632(v1)
    32c4:	03e00008 	jr	ra
    32c8:	00000000 	nop
    32cc:	27bdffe8 	addiu	sp,sp,-24
    32d0:	3c068000 	lui	a2,0x8000
    32d4:	afbf0010 	sw	ra,16(sp)
    32d8:	34c50100 	ori	a1,a2,0x100
    32dc:	94a20008 	lhu	v0,8(a1)
    32e0:	304400ff 	andi	a0,v0,0xff
    32e4:	38830082 	xori	v1,a0,0x82
    32e8:	38820084 	xori	v0,a0,0x84
    32ec:	2c630001 	sltiu	v1,v1,1
    32f0:	2c420001 	sltiu	v0,v0,1
    32f4:	00621825 	or	v1,v1,v0
    32f8:	10600030 	beqz	v1,0x33bc
    32fc:	24020083 	li	v0,131
    3300:	93820019 	lbu	v0,25(gp)
    3304:	50400039 	beqzl	v0,0x33ec
    3308:	8fbf0010 	lw	ra,16(sp)
    330c:	3c020800 	lui	v0,0x800
    3310:	90424bd8 	lbu	v0,19416(v0)
    3314:	8cc40100 	lw	a0,256(a2)
    3318:	3c070800 	lui	a3,0x800
    331c:	94e74bd2 	lhu	a3,19410(a3)
    3320:	3046003f 	andi	a2,v0,0x3f
    3324:	38c30032 	xori	v1,a2,0x32
    3328:	38c2003f 	xori	v0,a2,0x3f
    332c:	2c630001 	sltiu	v1,v1,1
    3330:	2c420001 	sltiu	v0,v0,1
    3334:	00621825 	or	v1,v1,v0
    3338:	af84001c 	sw	a0,28(gp)
    333c:	af870014 	sw	a3,20(gp)
    3340:	a3800019 	sb	zero,25(gp)
    3344:	14600006 	bnez	v1,0x3360
    3348:	00a02021 	move	a0,a1
    334c:	24020020 	li	v0,32
    3350:	14c20011 	bne	a2,v0,0x3398
    3354:	3402ffff 	li	v0,0xffff
    3358:	14e2000f 	bne	a3,v0,0x3398
    335c:	00000000 	nop
    3360:	24020020 	li	v0,32
    3364:	14c20005 	bne	a2,v0,0x337c
    3368:	00000000 	nop
    336c:	8ca30014 	lw	v1,20(a1)
    3370:	2402ffff 	li	v0,-1
    3374:	1062000a 	beq	v1,v0,0x33a0
    3378:	00000000 	nop
    337c:	3c040800 	lui	a0,0x800
    3380:	24844bcc 	addiu	a0,a0,19404
    3384:	00003021 	move	a2,zero
    3388:	0e0006fb 	jal	0x8001bec
    338c:	24070001 	li	a3,1
    3390:	0a000cb6 	j	0x80032d8
    3394:	00000000 	nop
    3398:	0e00076c 	jal	0x8001db0
    339c:	00000000 	nop
    33a0:	0e00092f 	jal	0x80024bc
    33a4:	00000000 	nop
    33a8:	24030c80 	li	v1,3200
    33ac:	3c028000 	lui	v0,0x8000
    33b0:	ac430024 	sw	v1,36(v0)
    33b4:	0a000cef 	j	0x80033bc
    33b8:	8fbf0010 	lw	ra,16(sp)
    33bc:	14820006 	bne	a0,v0,0x33d8
    33c0:	2482ff80 	addiu	v0,a0,-128
    33c4:	8cc30104 	lw	v1,260(a2)
    33c8:	3c026020 	lui	v0,0x6020
    33cc:	ac430014 	sw	v1,20(v0)
    33d0:	0a000cef 	j	0x80033bc
    33d4:	8fbf0010 	lw	ra,16(sp)
    33d8:	304200ff 	andi	v0,v0,0xff
    33dc:	2c420002 	sltiu	v0,v0,2
    33e0:	10400004 	beqz	v0,0x33f4
    33e4:	24020022 	li	v0,34
    33e8:	8fbf0010 	lw	ra,16(sp)
    33ec:	0a000b25 	j	0x8002c94
    33f0:	27bd0018 	addiu	sp,sp,24
    33f4:	14820003 	bne	a0,v0,0x3404
    33f8:	8fbf0010 	lw	ra,16(sp)
    33fc:	0a000c6f 	j	0x80031bc
    3400:	27bd0018 	addiu	sp,sp,24
    3404:	3c020800 	lui	v0,0x800
    3408:	8c420020 	lw	v0,32(v0)
    340c:	1040001d 	beqz	v0,0x3484
    3410:	24020018 	li	v0,24
    3414:	90a30009 	lbu	v1,9(a1)
    3418:	14620003 	bne	v1,v0,0x3428
    341c:	24020016 	li	v0,22
    3420:	0a000cdb 	j	0x800336c
    3424:	24030008 	li	v1,8
    3428:	14620007 	bne	v1,v0,0x3448
    342c:	24020017 	li	v0,23
    3430:	24030012 	li	v1,18
    3434:	3c028008 	lui	v0,0x8008
    3438:	34420080 	ori	v0,v0,0x80
    343c:	a0430009 	sb	v1,9(v0)
    3440:	0a000ce8 	j	0x80033a0
    3444:	94a70008 	lhu	a3,8(a1)
    3448:	54620007 	bnel	v1,v0,0x3468
    344c:	94a70008 	lhu	a3,8(a1)
    3450:	8f82ffac 	lw	v0,-84(gp)
    3454:	2404fffe 	li	a0,-2
    3458:	90430005 	lbu	v1,5(v0)
    345c:	00641824 	and	v1,v1,a0
    3460:	a0430005 	sb	v1,5(v0)
    3464:	94a70008 	lhu	a3,8(a1)
    3468:	90a6001b 	lbu	a2,27(a1)
    346c:	8ca40000 	lw	a0,0(a1)
    3470:	94a50006 	lhu	a1,6(a1)
    3474:	8fbf0010 	lw	ra,16(sp)
    3478:	00073c00 	sll	a3,a3,0x10
    347c:	0a0008c9 	j	0x8002324
    3480:	27bd0018 	addiu	sp,sp,24
    3484:	03e00008 	jr	ra
    3488:	27bd0018 	addiu	sp,sp,24
    348c:	3c050800 	lui	a1,0x800
    3490:	94a54c0a 	lhu	a1,19466(a1)
    3494:	3c030800 	lui	v1,0x800
    3498:	8c634c14 	lw	v1,19476(v1)
    349c:	3c048000 	lui	a0,0x8000
    34a0:	30a2ffff 	andi	v0,a1,0xffff
    34a4:	000230c0 	sll	a2,v0,0x3
    34a8:	2402fff0 	li	v0,-16
    34ac:	00c21024 	and	v0,a2,v0
    34b0:	00621821 	addu	v1,v1,v0
    34b4:	ac83003c 	sw	v1,60(a0)
    34b8:	3c020800 	lui	v0,0x800
    34bc:	8c424c10 	lw	v0,19472(v0)
    34c0:	3c038000 	lui	v1,0x8000
    34c4:	ac820038 	sw	v0,56(a0)
    34c8:	3c020050 	lui	v0,0x50
    34cc:	34420010 	ori	v0,v0,0x10
    34d0:	ac620030 	sw	v0,48(v1)
	...
    34e0:	8c620000 	lw	v0,0(v1)
    34e4:	30420020 	andi	v0,v0,0x20
    34e8:	1040fffd 	beqz	v0,0x34e0
    34ec:	30c20008 	andi	v0,a2,0x8
    34f0:	10400009 	beqz	v0,0x3518
    34f4:	3c028000 	lui	v0,0x8000
    34f8:	8c620408 	lw	v0,1032(v1)
    34fc:	8c63040c 	lw	v1,1036(v1)
    3500:	3c010800 	lui	at,0x800
    3504:	ac224c00 	sw	v0,19456(at)
    3508:	3c010800 	lui	at,0x800
    350c:	ac234c04 	sw	v1,19460(at)
    3510:	0a000d1b 	j	0x800346c
    3514:	3c030020 	lui	v1,0x20
    3518:	8c430400 	lw	v1,1024(v0)
    351c:	8c420404 	lw	v0,1028(v0)
    3520:	3c010800 	lui	at,0x800
    3524:	ac234c00 	sw	v1,19456(at)
    3528:	3c010800 	lui	at,0x800
    352c:	ac224c04 	sw	v0,19460(at)
    3530:	3c030020 	lui	v1,0x20
    3534:	3c028000 	lui	v0,0x8000
    3538:	ac430030 	sw	v1,48(v0)
    353c:	3c078000 	lui	a3,0x8000
    3540:	8ce20030 	lw	v0,48(a3)
    3544:	00431024 	and	v0,v0,v1
    3548:	1440fffd 	bnez	v0,0x3540
    354c:	00000000 	nop
    3550:	3c030800 	lui	v1,0x800
    3554:	94634c08 	lhu	v1,19464(v1)
    3558:	3c020800 	lui	v0,0x800
    355c:	94424c0c 	lhu	v0,19468(v0)
    3560:	3c060800 	lui	a2,0x800
    3564:	94c64c0e 	lhu	a2,19470(a2)
    3568:	24a50001 	addiu	a1,a1,1
    356c:	00621821 	addu	v1,v1,v0
    3570:	30a4ffff 	andi	a0,a1,0xffff
    3574:	3c020040 	lui	v0,0x40
    3578:	ace20030 	sw	v0,48(a3)
    357c:	3c010800 	lui	at,0x800
    3580:	a4234c08 	sh	v1,19464(at)
    3584:	3c010800 	lui	at,0x800
    3588:	a4254c0a 	sh	a1,19466(at)
    358c:	14860003 	bne	a0,a2,0x359c
    3590:	00000000 	nop
    3594:	3c010800 	lui	at,0x800
    3598:	a4204c0a 	sh	zero,19466(at)
    359c:	03e00008 	jr	ra
    35a0:	00000000 	nop
    35a4:	27bdffe8 	addiu	sp,sp,-24
    35a8:	3c040800 	lui	a0,0x800
    35ac:	24844bf0 	addiu	a0,a0,19440
    35b0:	3c05800a 	lui	a1,0x800a
    35b4:	afbf0010 	sw	ra,16(sp)
    35b8:	0e000e20 	jal	0x8003880
    35bc:	2406000a 	li	a2,10
    35c0:	3c020800 	lui	v0,0x800
    35c4:	94424bf2 	lhu	v0,19442(v0)
    35c8:	3c030800 	lui	v1,0x800
    35cc:	94634c0e 	lhu	v1,19470(v1)
    35d0:	3042000f 	andi	v0,v0,0xf
    35d4:	24420003 	addiu	v0,v0,3
    35d8:	00431804 	sllv	v1,v1,v0
    35dc:	24027fff 	li	v0,32767
    35e0:	0043102b 	sltu	v0,v0,v1
    35e4:	10400002 	beqz	v0,0x35f0
    35e8:	af830028 	sw	v1,40(gp)
    35ec:	0000000d 	break
    35f0:	0e000cf1 	jal	0x80033c4
    35f4:	00000000 	nop
    35f8:	3c020800 	lui	v0,0x800
    35fc:	94424bf4 	lhu	v0,19444(v0)
    3600:	3c030800 	lui	v1,0x800
    3604:	94634bfa 	lhu	v1,19450(v1)
    3608:	8fbf0010 	lw	ra,16(sp)
    360c:	3042000f 	andi	v0,v0,0xf
    3610:	00021500 	sll	v0,v0,0x14
    3614:	00621825 	or	v1,v1,v0
    3618:	27bd0018 	addiu	sp,sp,24
    361c:	3c028000 	lui	v0,0x8000
    3620:	03e00008 	jr	ra
    3624:	ac4300a0 	sw	v1,160(v0)
    3628:	3c02800a 	lui	v0,0x800a
    362c:	94430006 	lhu	v1,6(v0)
    3630:	3c020800 	lui	v0,0x800
    3634:	94424bfa 	lhu	v0,19450(v0)
    3638:	3c010800 	lui	at,0x800
    363c:	a4234bf6 	sh	v1,19446(at)
    3640:	00431023 	subu	v0,v0,v1
    3644:	8f830028 	lw	v1,40(gp)
    3648:	3042ffff 	andi	v0,v0,0xffff
    364c:	0043102b 	sltu	v0,v0,v1
    3650:	03e00008 	jr	ra
    3654:	38420001 	xori	v0,v0,0x1
    3658:	27bdffe8 	addiu	sp,sp,-24
    365c:	afbf0010 	sw	ra,16(sp)
    3660:	3c02800a 	lui	v0,0x800a
    3664:	94420006 	lhu	v0,6(v0)
    3668:	3c010800 	lui	at,0x800
    366c:	a4224bf6 	sh	v0,19446(at)
    3670:	0e000d58 	jal	0x8003560
    3674:	00000000 	nop
    3678:	5440fffa 	bnezl	v0,0x3664
    367c:	3c02800a 	lui	v0,0x800a
    3680:	8fbf0010 	lw	ra,16(sp)
    3684:	03e00008 	jr	ra
    3688:	27bd0018 	addiu	sp,sp,24
    368c:	27bdffe8 	addiu	sp,sp,-24
    3690:	afbf0010 	sw	ra,16(sp)
    3694:	0e000d58 	jal	0x8003560
    3698:	00000000 	nop
    369c:	10400003 	beqz	v0,0x36ac
    36a0:	00000000 	nop
    36a4:	0e000d64 	jal	0x8003590
    36a8:	00000000 	nop
    36ac:	3c020800 	lui	v0,0x800
    36b0:	8c424c00 	lw	v0,19456(v0)
    36b4:	3c038000 	lui	v1,0x8000
    36b8:	8fbf0010 	lw	ra,16(sp)
    36bc:	ac620038 	sw	v0,56(v1)
    36c0:	3c020800 	lui	v0,0x800
    36c4:	8c424c04 	lw	v0,19460(v0)
    36c8:	34640400 	ori	a0,v1,0x400
    36cc:	27bd0018 	addiu	sp,sp,24
    36d0:	ac62003c 	sw	v0,60(v1)
    36d4:	3c020005 	lui	v0,0x5
    36d8:	ac620030 	sw	v0,48(v1)
    36dc:	af84002c 	sw	a0,44(gp)
    36e0:	03e00008 	jr	ra
    36e4:	af800024 	sw	zero,36(gp)
    36e8:	8f820024 	lw	v0,36(gp)
    36ec:	3c030006 	lui	v1,0x6
    36f0:	00021140 	sll	v0,v0,0x5
    36f4:	00431025 	or	v0,v0,v1
    36f8:	3c038000 	lui	v1,0x8000
    36fc:	ac620030 	sw	v0,48(v1)
	...
    370c:	8c620000 	lw	v0,0(v1)
    3710:	30420010 	andi	v0,v0,0x10
    3714:	1040fffd 	beqz	v0,0x370c
    3718:	34620400 	ori	v0,v1,0x400
    371c:	af82002c 	sw	v0,44(gp)
    3720:	03e00008 	jr	ra
    3724:	af800024 	sw	zero,36(gp)
    3728:	3c060800 	lui	a2,0x800
    372c:	8cc64c04 	lw	a2,19460(a2)
    3730:	8f850024 	lw	a1,36(gp)
    3734:	8f83002c 	lw	v1,44(gp)
    3738:	3c020800 	lui	v0,0x800
    373c:	94424bfa 	lhu	v0,19450(v0)
    3740:	27bdffe0 	addiu	sp,sp,-32
    3744:	24a50001 	addiu	a1,a1,1
    3748:	24630020 	addiu	v1,v1,32
    374c:	24420001 	addiu	v0,v0,1
    3750:	24c70020 	addiu	a3,a2,32
    3754:	afb10014 	sw	s1,20(sp)
    3758:	afb00010 	sw	s0,16(sp)
    375c:	afbf0018 	sw	ra,24(sp)
    3760:	af850024 	sw	a1,36(gp)
    3764:	af83002c 	sw	v1,44(gp)
    3768:	3c010800 	lui	at,0x800
    376c:	a4224bfa 	sh	v0,19450(at)
    3770:	309000ff 	andi	s0,a0,0xff
    3774:	3c010800 	lui	at,0x800
    3778:	ac274c04 	sw	a3,19460(at)
    377c:	04c10008 	bgez	a2,0x37a0
    3780:	00008821 	move	s1,zero
    3784:	04e00006 	bltz	a3,0x37a0
    3788:	00000000 	nop
    378c:	3c020800 	lui	v0,0x800
    3790:	8c424c00 	lw	v0,19456(v0)
    3794:	24420001 	addiu	v0,v0,1
    3798:	3c010800 	lui	at,0x800
    379c:	ac224c00 	sw	v0,19456(at)
    37a0:	3c040800 	lui	a0,0x800
    37a4:	94844c08 	lhu	a0,19464(a0)
    37a8:	3c020800 	lui	v0,0x800
    37ac:	94424bfa 	lhu	v0,19450(v0)
    37b0:	2e030001 	sltiu	v1,s0,1
    37b4:	00441026 	xor	v0,v0,a0
    37b8:	2c440001 	sltiu	a0,v0,1
    37bc:	00831824 	and	v1,a0,v1
    37c0:	10600004 	beqz	v1,0x37d4
    37c4:	0010102b 	sltu	v0,zero,s0
    37c8:	24020001 	li	v0,1
    37cc:	af820020 	sw	v0,32(gp)
    37d0:	0010102b 	sltu	v0,zero,s0
    37d4:	00821025 	or	v0,a0,v0
    37d8:	14400006 	bnez	v0,0x37f4
    37dc:	8f820020 	lw	v0,32(gp)
    37e0:	14400004 	bnez	v0,0x37f4
    37e4:	8f830024 	lw	v1,36(gp)
    37e8:	24020010 	li	v0,16
    37ec:	1462000f 	bne	v1,v0,0x382c
    37f0:	00000000 	nop
    37f4:	0e000d88 	jal	0x8003620
    37f8:	24110001 	li	s1,1
    37fc:	3c030800 	lui	v1,0x800
    3800:	94634bfa 	lhu	v1,19450(v1)
    3804:	3c020800 	lui	v0,0x800
    3808:	94424c08 	lhu	v0,19464(v0)
    380c:	14620003 	bne	v1,v0,0x381c
    3810:	00000000 	nop
    3814:	0e000cf1 	jal	0x80033c4
    3818:	00000000 	nop
    381c:	16000003 	bnez	s0,0x382c
    3820:	00000000 	nop
    3824:	0e000d71 	jal	0x80035c4
    3828:	00000000 	nop
    382c:	3c030800 	lui	v1,0x800
    3830:	94634bfe 	lhu	v1,19454(v1)
    3834:	3c020800 	lui	v0,0x800
    3838:	94424bfc 	lhu	v0,19452(v0)
    383c:	24630001 	addiu	v1,v1,1
    3840:	3064ffff 	andi	a0,v1,0xffff
    3844:	3c010800 	lui	at,0x800
    3848:	a4234bfe 	sh	v1,19454(at)
    384c:	14820003 	bne	a0,v0,0x385c
    3850:	00000000 	nop
    3854:	3c010800 	lui	at,0x800
    3858:	a4204bfe 	sh	zero,19454(at)
    385c:	1200000b 	beqz	s0,0x388c
    3860:	00000000 	nop
    3864:	3c020800 	lui	v0,0x800
    3868:	94424bf4 	lhu	v0,19444(v0)
    386c:	3c030800 	lui	v1,0x800
    3870:	94634bfa 	lhu	v1,19450(v1)
    3874:	00021500 	sll	v0,v0,0x14
    3878:	00621825 	or	v1,v1,v0
    387c:	3c028000 	lui	v0,0x8000
    3880:	ac4300a0 	sw	v1,160(v0)
    3884:	0a000df7 	j	0x80037dc
    3888:	af800020 	sw	zero,32(gp)
    388c:	0e000d58 	jal	0x8003560
    3890:	00000000 	nop
    3894:	10400004 	beqz	v0,0x38a8
    3898:	02201021 	move	v0,s1
    389c:	0e000d64 	jal	0x8003590
    38a0:	00000000 	nop
    38a4:	02201021 	move	v0,s1
    38a8:	8fbf0018 	lw	ra,24(sp)
    38ac:	8fb10014 	lw	s1,20(sp)
    38b0:	8fb00010 	lw	s0,16(sp)
    38b4:	03e00008 	jr	ra
    38b8:	27bd0020 	addiu	sp,sp,32
    38bc:	03e00008 	jr	ra
    38c0:	00000000 	nop
    38c4:	8f820034 	lw	v0,52(gp)
    38c8:	3c030006 	lui	v1,0x6
    38cc:	00021140 	sll	v0,v0,0x5
    38d0:	00431025 	or	v0,v0,v1
    38d4:	3c038000 	lui	v1,0x8000
    38d8:	ac620030 	sw	v0,48(v1)
	...
    38e8:	8c620000 	lw	v0,0(v1)
    38ec:	30420010 	andi	v0,v0,0x10
    38f0:	1040fffd 	beqz	v0,0x38e8
    38f4:	34620400 	ori	v0,v1,0x400
    38f8:	af820030 	sw	v0,48(gp)
    38fc:	03e00008 	jr	ra
    3900:	af800034 	sw	zero,52(gp)
    3904:	03e00008 	jr	ra
    3908:	00001021 	move	v0,zero
    390c:	03e00008 	jr	ra
    3910:	00000000 	nop
    3914:	3084ffff 	andi	a0,a0,0xffff
    3918:	30a5ffff 	andi	a1,a1,0xffff
    391c:	00001821 	move	v1,zero
    3920:	10800007 	beqz	a0,0x3940
    3924:	00000000 	nop
    3928:	30820001 	andi	v0,a0,0x1
    392c:	10400002 	beqz	v0,0x3938
    3930:	00042042 	srl	a0,a0,0x1
    3934:	00651821 	addu	v1,v1,a1
    3938:	0a000e16 	j	0x8003858
    393c:	00052840 	sll	a1,a1,0x1
    3940:	03e00008 	jr	ra
    3944:	00601021 	move	v0,v1
    3948:	10c00006 	beqz	a2,0x3964
    394c:	24c6ffff 	addiu	a2,a2,-1
    3950:	8ca20000 	lw	v0,0(a1)
    3954:	24a50004 	addiu	a1,a1,4
    3958:	ac820000 	sw	v0,0(a0)
    395c:	0a000e20 	j	0x8003880
    3960:	24840004 	addiu	a0,a0,4
    3964:	03e00008 	jr	ra
    3968:	00000000 	nop
    396c:	10a00008 	beqz	a1,0x3990
    3970:	24a3ffff 	addiu	v1,a1,-1
    3974:	ac860000 	sw	a2,0(a0)
	...
    3980:	2402ffff 	li	v0,-1
    3984:	2463ffff 	addiu	v1,v1,-1
    3988:	1462fffa 	bne	v1,v0,0x3974
    398c:	24840004 	addiu	a0,a0,4
    3990:	03e00008 	jr	ra
    3994:	00000000 	nop
    3998:	3c028008 	lui	v0,0x8008
    399c:	34420080 	ori	v0,v0,0x80
    39a0:	24030001 	li	v1,1
    39a4:	ac43000c 	sw	v1,12(v0)
    39a8:	a4430010 	sh	v1,16(v0)
    39ac:	a4430012 	sh	v1,18(v0)
    39b0:	a4430014 	sh	v1,20(v0)
    39b4:	03e00008 	jr	ra
    39b8:	a4430016 	sh	v1,22(v0)
    39bc:	27bdffd8 	addiu	sp,sp,-40
    39c0:	24820080 	addiu	v0,a0,128
    39c4:	2407ff80 	li	a3,-128
    39c8:	3043007f 	andi	v1,v0,0x7f
    39cc:	afb00010 	sw	s0,16(sp)
    39d0:	00808021 	move	s0,a0
    39d4:	00472024 	and	a0,v0,a3
    39d8:	3c020800 	lui	v0,0x800
    39dc:	8c420020 	lw	v0,32(v0)
    39e0:	3c08800e 	lui	t0,0x800e
    39e4:	afb3001c 	sw	s3,28(sp)
    39e8:	afb20018 	sw	s2,24(sp)
    39ec:	afb10014 	sw	s1,20(sp)
    39f0:	afbf0020 	sw	ra,32(sp)
    39f4:	3c098000 	lui	t1,0x8000
    39f8:	00681821 	addu	v1,v1,t0
    39fc:	30b100ff 	andi	s1,a1,0xff
    3a00:	30d200ff 	andi	s2,a2,0xff
    3a04:	10400029 	beqz	v0,0x3aac
    3a08:	00009821 	move	s3,zero
    3a0c:	26020100 	addiu	v0,s0,256
    3a10:	ad24002c 	sw	a0,44(t1)
    3a14:	00472824 	and	a1,v0,a3
    3a18:	3042007f 	andi	v0,v0,0x7f
    3a1c:	00482021 	addu	a0,v0,t0
    3a20:	90620000 	lbu	v0,0(v1)
    3a24:	24030050 	li	v1,80
    3a28:	304200ff 	andi	v0,v0,0xff
    3a2c:	14430004 	bne	v0,v1,0x3a40
    3a30:	00000000 	nop
    3a34:	ad25002c 	sw	a1,44(t1)
    3a38:	948200da 	lhu	v0,218(a0)
    3a3c:	3053ffff 	andi	s3,v0,0xffff
    3a40:	0e000d71 	jal	0x80035c4
    3a44:	00000000 	nop
    3a48:	3c030800 	lui	v1,0x800
    3a4c:	94634bfe 	lhu	v1,19454(v1)
    3a50:	8f82002c 	lw	v0,44(gp)
    3a54:	00112c00 	sll	a1,s1,0x10
    3a58:	00a32825 	or	a1,a1,v1
    3a5c:	00122400 	sll	a0,s2,0x10
    3a60:	3c034000 	lui	v1,0x4000
    3a64:	34840001 	ori	a0,a0,0x1
    3a68:	00a32825 	or	a1,a1,v1
    3a6c:	ac500000 	sw	s0,0(v0)
    3a70:	8fbf0020 	lw	ra,32(sp)
    3a74:	ac400004 	sw	zero,4(v0)
    3a78:	8fb20018 	lw	s2,24(sp)
    3a7c:	ac530008 	sw	s3,8(v0)
    3a80:	8fb10014 	lw	s1,20(sp)
    3a84:	ac40000c 	sw	zero,12(v0)
    3a88:	8fb3001c 	lw	s3,28(sp)
    3a8c:	ac440010 	sw	a0,16(v0)
    3a90:	8fb00010 	lw	s0,16(sp)
    3a94:	ac400014 	sw	zero,20(v0)
    3a98:	24040001 	li	a0,1
    3a9c:	ac400018 	sw	zero,24(v0)
    3aa0:	27bd0028 	addiu	sp,sp,40
    3aa4:	0a000d98 	j	0x8003660
    3aa8:	ac45001c 	sw	a1,28(v0)
    3aac:	8fbf0020 	lw	ra,32(sp)
    3ab0:	8fb3001c 	lw	s3,28(sp)
    3ab4:	8fb20018 	lw	s2,24(sp)
    3ab8:	8fb10014 	lw	s1,20(sp)
    3abc:	8fb00010 	lw	s0,16(sp)
    3ac0:	03e00008 	jr	ra
    3ac4:	27bd0028 	addiu	sp,sp,40
    3ac8:	3c068000 	lui	a2,0x8000
    3acc:	34c20100 	ori	v0,a2,0x100
    3ad0:	9043000f 	lbu	v1,15(v0)
    3ad4:	24020010 	li	v0,16
    3ad8:	1062000e 	beq	v1,v0,0x3b14
    3adc:	28650011 	slti	a1,v1,17
    3ae0:	10a00007 	beqz	a1,0x3b00
    3ae4:	24020012 	li	v0,18
    3ae8:	24020008 	li	v0,8
    3aec:	2405003a 	li	a1,58
    3af0:	10620006 	beq	v1,v0,0x3b0c
    3af4:	00003021 	move	a2,zero
    3af8:	03e00008 	jr	ra
    3afc:	00000000 	nop
    3b00:	24050035 	li	a1,53
    3b04:	1462fffc 	bne	v1,v0,0x3af8
    3b08:	00003021 	move	a2,zero
    3b0c:	0a000e3d 	j	0x80038f4
    3b10:	00000000 	nop
    3b14:	8cc20074 	lw	v0,116(a2)
    3b18:	8f83ffac 	lw	v1,-84(gp)
    3b1c:	24420fa0 	addiu	v0,v0,4000
    3b20:	03e00008 	jr	ra
    3b24:	ac62000c 	sw	v0,12(v1)
    3b28:	27bdffe8 	addiu	sp,sp,-24
    3b2c:	afbf0010 	sw	ra,16(sp)
    3b30:	0e000325 	jal	0x8000c94
    3b34:	24050001 	li	a1,1
    3b38:	3c048008 	lui	a0,0x8008
    3b3c:	8fbf0010 	lw	ra,16(sp)
    3b40:	24020001 	li	v0,1
    3b44:	34830080 	ori	v1,a0,0x80
    3b48:	a4620012 	sh	v0,18(v1)
    3b4c:	27bd0018 	addiu	sp,sp,24
    3b50:	24020001 	li	v0,1
    3b54:	03e00008 	jr	ra
    3b58:	a080001a 	sb	zero,26(a0)
    3b5c:	27bdffe0 	addiu	sp,sp,-32
    3b60:	afb20018 	sw	s2,24(sp)
    3b64:	afb10014 	sw	s1,20(sp)
    3b68:	afb00010 	sw	s0,16(sp)
    3b6c:	afbf001c 	sw	ra,28(sp)
    3b70:	30b2ffff 	andi	s2,a1,0xffff
    3b74:	0e000315 	jal	0x8000c54
    3b78:	00808821 	move	s1,a0
    3b7c:	3c028008 	lui	v0,0x8008
    3b80:	34500080 	ori	s0,v0,0x80
    3b84:	92020009 	lbu	v0,9(s0)
    3b88:	24030004 	li	v1,4
    3b8c:	304200ff 	andi	v0,v0,0xff
    3b90:	1443000c 	bne	v0,v1,0x3bc4
    3b94:	3c028008 	lui	v0,0x8008
    3b98:	12400008 	beqz	s2,0x3bbc
    3b9c:	2402000a 	li	v0,10
    3ba0:	0e000e34 	jal	0x80038d0
    3ba4:	00000000 	nop
    3ba8:	92020005 	lbu	v0,5(s0)
    3bac:	2403fffe 	li	v1,-2
    3bb0:	00431024 	and	v0,v0,v1
    3bb4:	a2020005 	sb	v0,5(s0)
    3bb8:	24020012 	li	v0,18
    3bbc:	a2020009 	sb	v0,9(s0)
    3bc0:	3c028008 	lui	v0,0x8008
    3bc4:	34420080 	ori	v0,v0,0x80
    3bc8:	02202021 	move	a0,s1
    3bcc:	0e000320 	jal	0x8000c80
    3bd0:	a0400027 	sb	zero,39(v0)
    3bd4:	16400003 	bnez	s2,0x3be4
    3bd8:	02202021 	move	a0,s1
    3bdc:	0e000e98 	jal	0x8003a60
    3be0:	00000000 	nop
    3be4:	02202021 	move	a0,s1
    3be8:	324600ff 	andi	a2,s2,0xff
    3bec:	8fbf001c 	lw	ra,28(sp)
    3bf0:	8fb20018 	lw	s2,24(sp)
    3bf4:	8fb10014 	lw	s1,20(sp)
    3bf8:	8fb00010 	lw	s0,16(sp)
    3bfc:	24050038 	li	a1,56
    3c00:	0a000e3d 	j	0x80038f4
    3c04:	27bd0020 	addiu	sp,sp,32
    3c08:	27bdffe0 	addiu	sp,sp,-32
    3c0c:	afbf001c 	sw	ra,28(sp)
    3c10:	afb20018 	sw	s2,24(sp)
    3c14:	afb10014 	sw	s1,20(sp)
    3c18:	afb00010 	sw	s0,16(sp)
    3c1c:	0e000315 	jal	0x8000c54
    3c20:	00808021 	move	s0,a0
    3c24:	0e000e34 	jal	0x80038d0
    3c28:	00000000 	nop
    3c2c:	3c028008 	lui	v0,0x8008
    3c30:	34450080 	ori	a1,v0,0x80
    3c34:	90a20009 	lbu	v0,9(a1)
    3c38:	24120018 	li	s2,24
    3c3c:	305100ff 	andi	s1,v0,0xff
    3c40:	12320003 	beq	s1,s2,0x3c50
    3c44:	02002021 	move	a0,s0
    3c48:	24020012 	li	v0,18
    3c4c:	a0a20009 	sb	v0,9(a1)
    3c50:	90a20005 	lbu	v0,5(a1)
    3c54:	2403fffe 	li	v1,-2
    3c58:	00431024 	and	v0,v0,v1
    3c5c:	0e000320 	jal	0x8000c80
    3c60:	a0a20005 	sb	v0,5(a1)
    3c64:	02002021 	move	a0,s0
    3c68:	24050020 	li	a1,32
    3c6c:	16320007 	bne	s1,s2,0x3c8c
    3c70:	00003021 	move	a2,zero
    3c74:	8fbf001c 	lw	ra,28(sp)
    3c78:	8fb20018 	lw	s2,24(sp)
    3c7c:	8fb10014 	lw	s1,20(sp)
    3c80:	8fb00010 	lw	s0,16(sp)
    3c84:	0a000325 	j	0x8000c94
    3c88:	27bd0020 	addiu	sp,sp,32
    3c8c:	8fbf001c 	lw	ra,28(sp)
    3c90:	8fb20018 	lw	s2,24(sp)
    3c94:	8fb10014 	lw	s1,20(sp)
    3c98:	8fb00010 	lw	s0,16(sp)
    3c9c:	24050039 	li	a1,57
    3ca0:	0a000e3d 	j	0x80038f4
    3ca4:	27bd0020 	addiu	sp,sp,32
    3ca8:	27bdffe8 	addiu	sp,sp,-24
    3cac:	3c028000 	lui	v0,0x8000
    3cb0:	afb00010 	sw	s0,16(sp)
    3cb4:	afbf0014 	sw	ra,20(sp)
    3cb8:	34420100 	ori	v0,v0,0x100
    3cbc:	9442000c 	lhu	v0,12(v0)
    3cc0:	24050036 	li	a1,54
    3cc4:	00808021 	move	s0,a0
    3cc8:	14400012 	bnez	v0,0x3d14
    3ccc:	304600ff 	andi	a2,v0,0xff
    3cd0:	0e000315 	jal	0x8000c54
    3cd4:	00000000 	nop
    3cd8:	3c028008 	lui	v0,0x8008
    3cdc:	34420080 	ori	v0,v0,0x80
    3ce0:	24030012 	li	v1,18
    3ce4:	a0430009 	sb	v1,9(v0)
    3ce8:	90430005 	lbu	v1,5(v0)
    3cec:	34630010 	ori	v1,v1,0x10
    3cf0:	0e000e34 	jal	0x80038d0
    3cf4:	a0430005 	sb	v1,5(v0)
    3cf8:	0e000320 	jal	0x8000c80
    3cfc:	02002021 	move	a0,s0
    3d00:	02002021 	move	a0,s0
    3d04:	0e000325 	jal	0x8000c94
    3d08:	24050020 	li	a1,32
    3d0c:	0a000f15 	j	0x8003c54
    3d10:	00000000 	nop
    3d14:	0e000e3d 	jal	0x80038f4
    3d18:	00000000 	nop
    3d1c:	0e000315 	jal	0x8000c54
    3d20:	02002021 	move	a0,s0
    3d24:	3c028008 	lui	v0,0x8008
    3d28:	9043001b 	lbu	v1,27(v0)
    3d2c:	2405ff9f 	li	a1,-97
    3d30:	02002021 	move	a0,s0
    3d34:	00651824 	and	v1,v1,a1
    3d38:	8fbf0014 	lw	ra,20(sp)
    3d3c:	8fb00010 	lw	s0,16(sp)
    3d40:	a043001b 	sb	v1,27(v0)
    3d44:	0a000320 	j	0x8000c80
    3d48:	27bd0018 	addiu	sp,sp,24
    3d4c:	27bdffe0 	addiu	sp,sp,-32
    3d50:	afbf0018 	sw	ra,24(sp)
    3d54:	afb10014 	sw	s1,20(sp)
    3d58:	afb00010 	sw	s0,16(sp)
    3d5c:	30b100ff 	andi	s1,a1,0xff
    3d60:	0e000315 	jal	0x8000c54
    3d64:	00808021 	move	s0,a0
    3d68:	3c028008 	lui	v0,0x8008
    3d6c:	24030012 	li	v1,18
    3d70:	34420080 	ori	v0,v0,0x80
    3d74:	0e000e34 	jal	0x80038d0
    3d78:	a0430009 	sb	v1,9(v0)
    3d7c:	0e000320 	jal	0x8000c80
    3d80:	02002021 	move	a0,s0
    3d84:	02002021 	move	a0,s0
    3d88:	02203021 	move	a2,s1
    3d8c:	8fbf0018 	lw	ra,24(sp)
    3d90:	8fb10014 	lw	s1,20(sp)
    3d94:	8fb00010 	lw	s0,16(sp)
    3d98:	24050035 	li	a1,53
    3d9c:	0a000e3d 	j	0x80038f4
    3da0:	27bd0020 	addiu	sp,sp,32
    3da4:	3c048008 	lui	a0,0x8008
    3da8:	9083000e 	lbu	v1,14(a0)
    3dac:	9082000a 	lbu	v0,10(a0)
    3db0:	1443000b 	bne	v0,v1,0x3de0
    3db4:	00002821 	move	a1,zero
    3db8:	8f82ffac 	lw	v0,-84(gp)
    3dbc:	24030050 	li	v1,80
    3dc0:	24050001 	li	a1,1
    3dc4:	90420000 	lbu	v0,0(v0)
    3dc8:	304200ff 	andi	v0,v0,0xff
    3dcc:	14430004 	bne	v0,v1,0x3de0
    3dd0:	00000000 	nop
    3dd4:	9082000e 	lbu	v0,14(a0)
    3dd8:	24420001 	addiu	v0,v0,1
    3ddc:	a082000e 	sb	v0,14(a0)
    3de0:	03e00008 	jr	ra
    3de4:	00a01021 	move	v0,a1
    3de8:	3c038000 	lui	v1,0x8000
    3dec:	8c6201f8 	lw	v0,504(v1)
    3df0:	0440fffe 	bltz	v0,0x3dec
    3df4:	24020002 	li	v0,2
    3df8:	ac6401c0 	sw	a0,448(v1)
    3dfc:	a06201c4 	sb	v0,452(v1)
    3e00:	3c021000 	lui	v0,0x1000
    3e04:	03e00008 	jr	ra
    3e08:	ac6201f8 	sw	v0,504(v1)
    3e0c:	27bdffe0 	addiu	sp,sp,-32
    3e10:	afb20018 	sw	s2,24(sp)
    3e14:	3c128008 	lui	s2,0x8008
    3e18:	afb10014 	sw	s1,20(sp)
    3e1c:	afbf001c 	sw	ra,28(sp)
    3e20:	afb00010 	sw	s0,16(sp)
    3e24:	36510080 	ori	s1,s2,0x80
    3e28:	92220009 	lbu	v0,9(s1)
    3e2c:	2403000a 	li	v1,10
    3e30:	304200ff 	andi	v0,v0,0xff
    3e34:	1443003a 	bne	v0,v1,0x3f20
    3e38:	00000000 	nop
    3e3c:	8e430004 	lw	v1,4(s2)
    3e40:	8e220038 	lw	v0,56(s1)
    3e44:	5062007e 	beql	v1,v0,0x4040
    3e48:	8fbf001c 	lw	ra,28(sp)
    3e4c:	92220000 	lbu	v0,0(s1)
    3e50:	24030050 	li	v1,80
    3e54:	304200ff 	andi	v0,v0,0xff
    3e58:	14430025 	bne	v0,v1,0x3ef0
    3e5c:	3c028000 	lui	v0,0x8000
    3e60:	8c420140 	lw	v0,320(v0)
    3e64:	8e430004 	lw	v1,4(s2)
    3e68:	36420100 	ori	v0,s2,0x100
    3e6c:	02202821 	move	a1,s1
    3e70:	ac43001c 	sw	v1,28(v0)
    3e74:	9622005c 	lhu	v0,92(s1)
    3e78:	8e230038 	lw	v1,56(s1)
    3e7c:	3042ffff 	andi	v0,v0,0xffff
    3e80:	00021040 	sll	v0,v0,0x1
    3e84:	00621821 	addu	v1,v1,v0
    3e88:	ae23001c 	sw	v1,28(s1)
    3e8c:	8e430004 	lw	v1,4(s2)
    3e90:	8e240038 	lw	a0,56(s1)
    3e94:	9622005c 	lhu	v0,92(s1)
    3e98:	00641823 	subu	v1,v1,a0
    3e9c:	3042ffff 	andi	v0,v0,0xffff
    3ea0:	00031843 	sra	v1,v1,0x1
    3ea4:	00021040 	sll	v0,v0,0x1
    3ea8:	0043102a 	slt	v0,v0,v1
    3eac:	10400006 	beqz	v0,0x3ec8
    3eb0:	00000000 	nop
    3eb4:	8e420004 	lw	v0,4(s2)
    3eb8:	8e230038 	lw	v1,56(s1)
    3ebc:	00431023 	subu	v0,v0,v1
    3ec0:	0a000f83 	j	0x8003e0c
    3ec4:	00022043 	sra	a0,v0,0x1
    3ec8:	9622005c 	lhu	v0,92(s1)
    3ecc:	3042ffff 	andi	v0,v0,0xffff
    3ed0:	00022040 	sll	a0,v0,0x1
    3ed4:	3c028008 	lui	v0,0x8008
    3ed8:	34430100 	ori	v1,v0,0x100
    3edc:	34420080 	ori	v0,v0,0x80
    3ee0:	aca4002c 	sw	a0,44(a1)
    3ee4:	a0400024 	sb	zero,36(v0)
    3ee8:	24020001 	li	v0,1
    3eec:	a062000c 	sb	v0,12(v1)
    3ef0:	0e000f37 	jal	0x8003cdc
    3ef4:	00000000 	nop
    3ef8:	10400051 	beqz	v0,0x4040
    3efc:	8fbf001c 	lw	ra,28(sp)
    3f00:	3c028000 	lui	v0,0x8000
    3f04:	8c440140 	lw	a0,320(v0)
    3f08:	8fbf001c 	lw	ra,28(sp)
    3f0c:	8fb20018 	lw	s2,24(sp)
    3f10:	8fb10014 	lw	s1,20(sp)
    3f14:	8fb00010 	lw	s0,16(sp)
    3f18:	0a000f48 	j	0x8003d20
    3f1c:	27bd0020 	addiu	sp,sp,32
    3f20:	92220009 	lbu	v0,9(s1)
    3f24:	24030010 	li	v1,16
    3f28:	304200ff 	andi	v0,v0,0xff
    3f2c:	14430004 	bne	v0,v1,0x3f40
    3f30:	3c028000 	lui	v0,0x8000
    3f34:	8c440140 	lw	a0,320(v0)
    3f38:	0a000fc5 	j	0x8003f14
    3f3c:	00002821 	move	a1,zero
    3f40:	92220009 	lbu	v0,9(s1)
    3f44:	24030016 	li	v1,22
    3f48:	304200ff 	andi	v0,v0,0xff
    3f4c:	14430006 	bne	v0,v1,0x3f68
    3f50:	24020014 	li	v0,20
    3f54:	a2220009 	sb	v0,9(s1)
    3f58:	3c028000 	lui	v0,0x8000
    3f5c:	8c440140 	lw	a0,320(v0)
    3f60:	0a000fd8 	j	0x8003f60
    3f64:	8fbf001c 	lw	ra,28(sp)
    3f68:	8e220038 	lw	v0,56(s1)
    3f6c:	8e23003c 	lw	v1,60(s1)
    3f70:	00431023 	subu	v0,v0,v1
    3f74:	04410032 	bgez	v0,0x4040
    3f78:	8fbf001c 	lw	ra,28(sp)
    3f7c:	92220027 	lbu	v0,39(s1)
    3f80:	24420001 	addiu	v0,v0,1
    3f84:	a2220027 	sb	v0,39(s1)
    3f88:	92220027 	lbu	v0,39(s1)
    3f8c:	3c030800 	lui	v1,0x800
    3f90:	8c630048 	lw	v1,72(v1)
    3f94:	304200ff 	andi	v0,v0,0xff
    3f98:	14430016 	bne	v0,v1,0x3ff4
    3f9c:	3c108000 	lui	s0,0x8000
    3fa0:	92220009 	lbu	v0,9(s1)
    3fa4:	24030004 	li	v1,4
    3fa8:	304200ff 	andi	v0,v0,0xff
    3fac:	14430009 	bne	v0,v1,0x3fd4
    3fb0:	3c028000 	lui	v0,0x8000
    3fb4:	8c440140 	lw	a0,320(v0)
    3fb8:	8fbf001c 	lw	ra,28(sp)
    3fbc:	8fb20018 	lw	s2,24(sp)
    3fc0:	8fb10014 	lw	s1,20(sp)
    3fc4:	8fb00010 	lw	s0,16(sp)
    3fc8:	24050093 	li	a1,147
    3fcc:	0a000ea5 	j	0x8003a94
    3fd0:	27bd0020 	addiu	sp,sp,32
    3fd4:	8c440140 	lw	a0,320(v0)
    3fd8:	24050093 	li	a1,147
    3fdc:	8fbf001c 	lw	ra,28(sp)
    3fe0:	8fb20018 	lw	s2,24(sp)
    3fe4:	8fb10014 	lw	s1,20(sp)
    3fe8:	8fb00010 	lw	s0,16(sp)
    3fec:	0a000f21 	j	0x8003c84
    3ff0:	27bd0020 	addiu	sp,sp,32
    3ff4:	8e040140 	lw	a0,320(s0)
    3ff8:	0e000315 	jal	0x8000c54
    3ffc:	00000000 	nop
    4000:	8e420004 	lw	v0,4(s2)
    4004:	2442ffff 	addiu	v0,v0,-1
    4008:	ae420004 	sw	v0,4(s2)
    400c:	8e22003c 	lw	v0,60(s1)
    4010:	2442ffff 	addiu	v0,v0,-1
    4014:	ae22003c 	sw	v0,60(s1)
    4018:	0e000320 	jal	0x8000c80
    401c:	8e040140 	lw	a0,320(s0)
    4020:	8e040140 	lw	a0,320(s0)
    4024:	8fbf001c 	lw	ra,28(sp)
    4028:	8fb20018 	lw	s2,24(sp)
    402c:	8fb10014 	lw	s1,20(sp)
    4030:	8fb00010 	lw	s0,16(sp)
    4034:	24050004 	li	a1,4
    4038:	0a000325 	j	0x8000c94
    403c:	27bd0020 	addiu	sp,sp,32
    4040:	8fb20018 	lw	s2,24(sp)
    4044:	8fb10014 	lw	s1,20(sp)
    4048:	8fb00010 	lw	s0,16(sp)
    404c:	03e00008 	jr	ra
    4050:	27bd0020 	addiu	sp,sp,32
    4054:	3c068000 	lui	a2,0x8000
    4058:	8cc20188 	lw	v0,392(a2)
    405c:	3c038008 	lui	v1,0x8008
    4060:	34650080 	ori	a1,v1,0x80
    4064:	9063000e 	lbu	v1,14(v1)
    4068:	00021402 	srl	v0,v0,0x10
    406c:	304400ff 	andi	a0,v0,0xff
    4070:	306300ff 	andi	v1,v1,0xff
    4074:	1464000e 	bne	v1,a0,0x40b0
    4078:	3c028008 	lui	v0,0x8008
    407c:	90a20026 	lbu	v0,38(a1)
    4080:	304200ff 	andi	v0,v0,0xff
    4084:	10440009 	beq	v0,a0,0x40ac
    4088:	8f82ffac 	lw	v0,-84(gp)
    408c:	a0a40026 	sb	a0,38(a1)
    4090:	24030050 	li	v1,80
    4094:	90420000 	lbu	v0,0(v0)
    4098:	304200ff 	andi	v0,v0,0xff
    409c:	14430006 	bne	v0,v1,0x40b8
    40a0:	00000000 	nop
    40a4:	0a00058c 	j	0x8001630
    40a8:	8cc40180 	lw	a0,384(a2)
    40ac:	3c028008 	lui	v0,0x8008
    40b0:	34420080 	ori	v0,v0,0x80
    40b4:	a0440026 	sb	a0,38(v0)
    40b8:	03e00008 	jr	ra
    40bc:	00000000 	nop
    40c0:	27bdffe0 	addiu	sp,sp,-32
    40c4:	30e700ff 	andi	a3,a3,0xff
    40c8:	afb20018 	sw	s2,24(sp)
    40cc:	afbf001c 	sw	ra,28(sp)
    40d0:	afb10014 	sw	s1,20(sp)
    40d4:	afb00010 	sw	s0,16(sp)
    40d8:	00809021 	move	s2,a0
    40dc:	14e00006 	bnez	a3,0x40f8
    40e0:	30c600ff 	andi	a2,a2,0xff
    40e4:	00000000 	nop
    40e8:	0000000d 	break
    40ec:	00000000 	nop
    40f0:	0a001037 	j	0x80040dc
    40f4:	24000117 	li	zero,279
    40f8:	3c038008 	lui	v1,0x8008
    40fc:	9062000e 	lbu	v0,14(v1)
    4100:	304200ff 	andi	v0,v0,0xff
    4104:	14460023 	bne	v0,a2,0x4194
    4108:	34620080 	ori	v0,v1,0x80
    410c:	90420026 	lbu	v0,38(v0)
    4110:	304200ff 	andi	v0,v0,0xff
    4114:	1446001f 	bne	v0,a2,0x4194
    4118:	00000000 	nop
    411c:	9062000f 	lbu	v0,15(v1)
    4120:	304200ff 	andi	v0,v0,0xff
    4124:	1446001b 	bne	v0,a2,0x4194
    4128:	00000000 	nop
    412c:	9062000a 	lbu	v0,10(v1)
    4130:	304200ff 	andi	v0,v0,0xff
    4134:	14460003 	bne	v0,a2,0x4144
    4138:	8f90ffac 	lw	s0,-84(gp)
    413c:	0000000d 	break
    4140:	8f90ffac 	lw	s0,-84(gp)
    4144:	8f82ffb0 	lw	v0,-80(gp)
    4148:	3c118000 	lui	s1,0x8000
    414c:	ae05003c 	sw	a1,60(s0)
    4150:	ac450000 	sw	a1,0(v0)
    4154:	a066000a 	sb	a2,10(v1)
    4158:	0e000315 	jal	0x8000c54
    415c:	8e240100 	lw	a0,256(s1)
    4160:	a2000024 	sb	zero,36(s0)
    4164:	0e000320 	jal	0x8000c80
    4168:	8e240100 	lw	a0,256(s1)
    416c:	3c038000 	lui	v1,0x8000
    4170:	8c6201f8 	lw	v0,504(v1)
    4174:	0440fffe 	bltz	v0,0x4170
    4178:	24020002 	li	v0,2
    417c:	ac7201c0 	sw	s2,448(v1)
    4180:	a06201c4 	sb	v0,452(v1)
    4184:	3c021000 	lui	v0,0x1000
    4188:	ac6201f8 	sw	v0,504(v1)
    418c:	0a001038 	j	0x80040e0
    4190:	8fbf001c 	lw	ra,28(sp)
    4194:	00000000 	nop
    4198:	0000000d 	break
    419c:	00000000 	nop
    41a0:	24000140 	li	zero,320
    41a4:	8fbf001c 	lw	ra,28(sp)
    41a8:	8fb20018 	lw	s2,24(sp)
    41ac:	8fb10014 	lw	s1,20(sp)
    41b0:	8fb00010 	lw	s0,16(sp)
    41b4:	03e00008 	jr	ra
    41b8:	27bd0020 	addiu	sp,sp,32
    41bc:	8f83ffac 	lw	v1,-84(gp)
    41c0:	3c028000 	lui	v0,0x8000
    41c4:	8c440100 	lw	a0,256(v0)
    41c8:	34420100 	ori	v0,v0,0x100
    41cc:	8c65003c 	lw	a1,60(v1)
    41d0:	9046001b 	lbu	a2,27(v0)
    41d4:	0a000ffe 	j	0x8003ff8
    41d8:	24070001 	li	a3,1
    41dc:	3c028008 	lui	v0,0x8008
    41e0:	9043000e 	lbu	v1,14(v0)
    41e4:	9042000a 	lbu	v0,10(v0)
    41e8:	00431026 	xor	v0,v0,v1
    41ec:	304200ff 	andi	v0,v0,0xff
    41f0:	03e00008 	jr	ra
    41f4:	0002102b 	sltu	v0,zero,v0
    41f8:	27bdffe0 	addiu	sp,sp,-32
    41fc:	3c028008 	lui	v0,0x8008
    4200:	afb10014 	sw	s1,20(sp)
    4204:	afb00010 	sw	s0,16(sp)
    4208:	afbf0018 	sw	ra,24(sp)
    420c:	34500080 	ori	s0,v0,0x80
    4210:	92020005 	lbu	v0,5(s0)
    4214:	24030030 	li	v1,48
    4218:	30420030 	andi	v0,v0,0x30
    421c:	14430084 	bne	v0,v1,0x4430
    4220:	00808821 	move	s1,a0
    4224:	3c020800 	lui	v0,0x800
    4228:	8c420020 	lw	v0,32(v0)
    422c:	10400081 	beqz	v0,0x4434
    4230:	8fbf0018 	lw	ra,24(sp)
    4234:	0e000d71 	jal	0x80035c4
    4238:	00000000 	nop
    423c:	8f86002c 	lw	a2,44(gp)
    4240:	acd10000 	sw	s1,0(a2)
    4244:	92020008 	lbu	v0,8(s0)
    4248:	92030009 	lbu	v1,9(s0)
    424c:	304200ff 	andi	v0,v0,0xff
    4250:	00021200 	sll	v0,v0,0x8
    4254:	306300ff 	andi	v1,v1,0xff
    4258:	00431025 	or	v0,v0,v1
    425c:	acc20004 	sw	v0,4(a2)
    4260:	9202004d 	lbu	v0,77(s0)
    4264:	00021600 	sll	v0,v0,0x18
    4268:	00021603 	sra	v0,v0,0x18
    426c:	04410005 	bgez	v0,0x4284
    4270:	00000000 	nop
    4274:	3c030800 	lui	v1,0x800
    4278:	8c630048 	lw	v1,72(v1)
    427c:	0a001076 	j	0x80041d8
    4280:	3c108008 	lui	s0,0x8008
    4284:	92020008 	lbu	v0,8(s0)
    4288:	30420040 	andi	v0,v0,0x40
    428c:	14400003 	bnez	v0,0x429c
    4290:	00001821 	move	v1,zero
    4294:	92020027 	lbu	v0,39(s0)
    4298:	304300ff 	andi	v1,v0,0xff
    429c:	3c108008 	lui	s0,0x8008
    42a0:	36110080 	ori	s1,s0,0x80
    42a4:	9222004d 	lbu	v0,77(s1)
    42a8:	00031e00 	sll	v1,v1,0x18
    42ac:	3c050800 	lui	a1,0x800
    42b0:	94a54bfe 	lhu	a1,19454(a1)
    42b4:	304200ff 	andi	v0,v0,0xff
    42b8:	00021400 	sll	v0,v0,0x10
    42bc:	00621825 	or	v1,v1,v0
    42c0:	acc30008 	sw	v1,8(a2)
    42c4:	8e230030 	lw	v1,48(s1)
    42c8:	3c02c00b 	lui	v0,0xc00b
    42cc:	00a22825 	or	a1,a1,v0
    42d0:	acc3000c 	sw	v1,12(a2)
    42d4:	8e220034 	lw	v0,52(s1)
    42d8:	00002021 	move	a0,zero
    42dc:	acc20010 	sw	v0,16(a2)
    42e0:	8e220038 	lw	v0,56(s1)
    42e4:	acc20014 	sw	v0,20(a2)
    42e8:	8e22003c 	lw	v0,60(s1)
    42ec:	acc20018 	sw	v0,24(a2)
    42f0:	0e000d98 	jal	0x8003660
    42f4:	acc5001c 	sw	a1,28(a2)
    42f8:	8e020004 	lw	v0,4(s0)
    42fc:	8f84002c 	lw	a0,44(gp)
    4300:	3c058000 	lui	a1,0x8000
    4304:	ac820000 	sw	v0,0(a0)
    4308:	8e220020 	lw	v0,32(s1)
    430c:	ac820004 	sw	v0,4(a0)
    4310:	8e22001c 	lw	v0,28(s1)
    4314:	ac820008 	sw	v0,8(a0)
    4318:	8e220058 	lw	v0,88(s1)
    431c:	8ca30074 	lw	v1,116(a1)
    4320:	00431021 	addu	v0,v0,v1
    4324:	ac82000c 	sw	v0,12(a0)
    4328:	8e22002c 	lw	v0,44(s1)
    432c:	ac820010 	sw	v0,16(a0)
    4330:	8e220040 	lw	v0,64(s1)
    4334:	8e230044 	lw	v1,68(s1)
    4338:	00021400 	sll	v0,v0,0x10
    433c:	00431025 	or	v0,v0,v1
    4340:	ac820014 	sw	v0,20(a0)
    4344:	9222004d 	lbu	v0,77(s1)
    4348:	24030080 	li	v1,128
    434c:	304200ff 	andi	v0,v0,0xff
    4350:	14430003 	bne	v0,v1,0x4360
    4354:	00000000 	nop
    4358:	0a0010b8 	j	0x80042e0
    435c:	ac800018 	sw	zero,24(a0)
    4360:	8e23000c 	lw	v1,12(s1)
    4364:	24020001 	li	v0,1
    4368:	1062000e 	beq	v1,v0,0x43a4
    436c:	2402ffff 	li	v0,-1
    4370:	92220008 	lbu	v0,8(s1)
    4374:	30420040 	andi	v0,v0,0x40
    4378:	1440000a 	bnez	v0,0x43a4
    437c:	2402ffff 	li	v0,-1
    4380:	8e23000c 	lw	v1,12(s1)
    4384:	8ca20074 	lw	v0,116(a1)
    4388:	00621823 	subu	v1,v1,v0
    438c:	3c020800 	lui	v0,0x800
    4390:	00621024 	and	v0,v1,v0
    4394:	14400002 	bnez	v0,0x43a0
    4398:	00002821 	move	a1,zero
    439c:	00602821 	move	a1,v1
    43a0:	00051043 	sra	v0,a1,0x1
    43a4:	ac820018 	sw	v0,24(a0)
    43a8:	3c020800 	lui	v0,0x800
    43ac:	94424bfe 	lhu	v0,19454(v0)
    43b0:	3c03c00c 	lui	v1,0xc00c
    43b4:	00002021 	move	a0,zero
    43b8:	00431025 	or	v0,v0,v1
    43bc:	8f83002c 	lw	v1,44(gp)
    43c0:	0e000d98 	jal	0x8003660
    43c4:	ac62001c 	sw	v0,28(v1)
    43c8:	3c048008 	lui	a0,0x8008
    43cc:	34820100 	ori	v0,a0,0x100
    43d0:	8c420000 	lw	v0,0(v0)
    43d4:	8f83002c 	lw	v1,44(gp)
    43d8:	34840080 	ori	a0,a0,0x80
    43dc:	3c060800 	lui	a2,0x800
    43e0:	94c64bfe 	lhu	a2,19454(a2)
    43e4:	ac620000 	sw	v0,0(v1)
    43e8:	ac600004 	sw	zero,4(v1)
    43ec:	8c850048 	lw	a1,72(a0)
    43f0:	3c02400d 	lui	v0,0x400d
    43f4:	00c23025 	or	a2,a2,v0
    43f8:	ac650008 	sw	a1,8(v1)
    43fc:	ac60000c 	sw	zero,12(v1)
    4400:	ac600010 	sw	zero,16(v1)
    4404:	90820005 	lbu	v0,5(a0)
    4408:	8fbf0018 	lw	ra,24(sp)
    440c:	8fb10014 	lw	s1,20(sp)
    4410:	00021600 	sll	v0,v0,0x18
    4414:	ac620014 	sw	v0,20(v1)
    4418:	8fb00010 	lw	s0,16(sp)
    441c:	ac600018 	sw	zero,24(v1)
    4420:	24040001 	li	a0,1
    4424:	ac66001c 	sw	a2,28(v1)
    4428:	0a000d98 	j	0x8003660
    442c:	27bd0020 	addiu	sp,sp,32
    4430:	8fbf0018 	lw	ra,24(sp)
    4434:	8fb10014 	lw	s1,20(sp)
    4438:	8fb00010 	lw	s0,16(sp)
    443c:	03e00008 	jr	ra
    4440:	27bd0020 	addiu	sp,sp,32
    4444:	3c028000 	lui	v0,0x8000
    4448:	9443007c 	lhu	v1,124(v0)
    444c:	3c028008 	lui	v0,0x8008
    4450:	34460100 	ori	a2,v0,0x100
    4454:	308400ff 	andi	a0,a0,0xff
    4458:	3065ffff 	andi	a1,v1,0xffff
    445c:	24020005 	li	v0,5
    4460:	24a34650 	addiu	v1,a1,18000
    4464:	a0c4000c 	sb	a0,12(a2)
    4468:	5482000c 	bnel	a0,v0,0x449c
    446c:	3065ffff 	andi	a1,v1,0xffff
    4470:	90c2000d 	lbu	v0,13(a2)
    4474:	2c420007 	sltiu	v0,v0,7
    4478:	10400007 	beqz	v0,0x4498
    447c:	24a30a00 	addiu	v1,a1,2560
    4480:	90c3000d 	lbu	v1,13(a2)
    4484:	24020014 	li	v0,20
    4488:	00621004 	sllv	v0,v0,v1
    448c:	00a21021 	addu	v0,a1,v0
    4490:	0a0010f5 	j	0x80043d4
    4494:	3045ffff 	andi	a1,v0,0xffff
    4498:	3065ffff 	andi	a1,v1,0xffff
    449c:	3c028008 	lui	v0,0x8008
    44a0:	34420080 	ori	v0,v0,0x80
    44a4:	03e00008 	jr	ra
    44a8:	a4450014 	sh	a1,20(v0)
    44ac:	3c038008 	lui	v1,0x8008
    44b0:	34680080 	ori	t0,v1,0x80
    44b4:	ad050038 	sw	a1,56(t0)
    44b8:	34670100 	ori	a3,v1,0x100
    44bc:	8ce2001c 	lw	v0,28(a3)
    44c0:	308400ff 	andi	a0,a0,0xff
    44c4:	00a21023 	subu	v0,a1,v0
    44c8:	18400003 	blez	v0,0x44d8
    44cc:	30c600ff 	andi	a2,a2,0xff
    44d0:	24a2fffc 	addiu	v0,a1,-4
    44d4:	ace2001c 	sw	v0,28(a3)
    44d8:	30820001 	andi	v0,a0,0x1
    44dc:	50400008 	beqzl	v0,0x4500
    44e0:	3c038008 	lui	v1,0x8008
    44e4:	8d02003c 	lw	v0,60(t0)
    44e8:	00a21023 	subu	v0,a1,v0
    44ec:	04410012 	bgez	v0,0x4538
    44f0:	24040005 	li	a0,5
    44f4:	8c620004 	lw	v0,4(v1)
    44f8:	10a2000f 	beq	a1,v0,0x4538
    44fc:	3c038008 	lui	v1,0x8008
    4500:	8c620004 	lw	v0,4(v1)
    4504:	14a20018 	bne	a1,v0,0x4568
    4508:	00000000 	nop
    450c:	3c020800 	lui	v0,0x800
    4510:	8c4200d8 	lw	v0,216(v0)
    4514:	30420020 	andi	v0,v0,0x20
    4518:	10400009 	beqz	v0,0x4540
    451c:	3c028008 	lui	v0,0x8008
    4520:	34620080 	ori	v0,v1,0x80
    4524:	90630008 	lbu	v1,8(v1)
    4528:	9042004c 	lbu	v0,76(v0)
    452c:	14430004 	bne	v0,v1,0x4540
    4530:	3c028008 	lui	v0,0x8008
    4534:	24040004 	li	a0,4
    4538:	0a0010df 	j	0x800437c
    453c:	00000000 	nop
    4540:	34430080 	ori	v1,v0,0x80
    4544:	34420100 	ori	v0,v0,0x100
    4548:	a040000c 	sb	zero,12(v0)
    454c:	24020001 	li	v0,1
    4550:	a4620014 	sh	v0,20(v1)
    4554:	10c00004 	beqz	a2,0x4568
    4558:	3c028000 	lui	v0,0x8000
    455c:	8c440100 	lw	a0,256(v0)
    4560:	0a000f48 	j	0x8003d20
    4564:	00000000 	nop
    4568:	03e00008 	jr	ra
    456c:	00000000 	nop
    4570:	27bdffe8 	addiu	sp,sp,-24
    4574:	00a61823 	subu	v1,a1,a2
    4578:	afbf0010 	sw	ra,16(sp)
    457c:	1860004e 	blez	v1,0x46b8
    4580:	308800ff 	andi	t0,a0,0xff
    4584:	3c028008 	lui	v0,0x8008
    4588:	34470080 	ori	a3,v0,0x80
    458c:	a0e00024 	sb	zero,36(a3)
    4590:	34440100 	ori	a0,v0,0x100
    4594:	a0e00027 	sb	zero,39(a3)
    4598:	8c82001c 	lw	v0,28(a0)
    459c:	00a21023 	subu	v0,a1,v0
    45a0:	0440002b 	bltz	v0,0x4650
    45a4:	00000000 	nop
    45a8:	8ce2003c 	lw	v0,60(a3)
    45ac:	94e3005c 	lhu	v1,92(a3)
    45b0:	8ce4002c 	lw	a0,44(a3)
    45b4:	00453023 	subu	a2,v0,a1
    45b8:	3063ffff 	andi	v1,v1,0xffff
    45bc:	00c31821 	addu	v1,a2,v1
    45c0:	0083202b 	sltu	a0,a0,v1
    45c4:	10800004 	beqz	a0,0x45d8
    45c8:	00e01821 	move	v1,a3
    45cc:	8ce2002c 	lw	v0,44(a3)
    45d0:	0a001148 	j	0x8004520
    45d4:	00a21021 	addu	v0,a1,v0
    45d8:	94e2005c 	lhu	v0,92(a3)
    45dc:	3042ffff 	andi	v0,v0,0xffff
    45e0:	00c21021 	addu	v0,a2,v0
    45e4:	00a21021 	addu	v0,a1,v0
    45e8:	ac62001c 	sw	v0,28(v1)
    45ec:	3c028008 	lui	v0,0x8008
    45f0:	34470080 	ori	a3,v0,0x80
    45f4:	94e2005c 	lhu	v0,92(a3)
    45f8:	8ce3001c 	lw	v1,28(a3)
    45fc:	3042ffff 	andi	v0,v0,0xffff
    4600:	00021040 	sll	v0,v0,0x1
    4604:	00a21021 	addu	v0,a1,v0
    4608:	0043102b 	sltu	v0,v0,v1
    460c:	10400003 	beqz	v0,0x461c
    4610:	00000000 	nop
    4614:	0a001159 	j	0x8004564
    4618:	8ce2001c 	lw	v0,28(a3)
    461c:	94e2005c 	lhu	v0,92(a3)
    4620:	3042ffff 	andi	v0,v0,0xffff
    4624:	00021040 	sll	v0,v0,0x1
    4628:	00a21021 	addu	v0,a1,v0
    462c:	ace2001c 	sw	v0,28(a3)
    4630:	3c028008 	lui	v0,0x8008
    4634:	34420100 	ori	v0,v0,0x100
    4638:	8fbf0010 	lw	ra,16(sp)
    463c:	01002021 	move	a0,t0
    4640:	24060001 	li	a2,1
    4644:	a040000c 	sb	zero,12(v0)
    4648:	0a0010f9 	j	0x80043e4
    464c:	27bd0018 	addiu	sp,sp,24
    4650:	8ce2001c 	lw	v0,28(a3)
    4654:	00461023 	subu	v0,v0,a2
    4658:	0043102b 	sltu	v0,v0,v1
    465c:	54400001 	bnezl	v0,0x4664
    4660:	ace5001c 	sw	a1,28(a3)
    4664:	94e2005c 	lhu	v0,92(a3)
    4668:	3042ffff 	andi	v0,v0,0xffff
    466c:	0062102b 	sltu	v0,v1,v0
    4670:	14400007 	bnez	v0,0x4690
    4674:	24020002 	li	v0,2
    4678:	94e2005c 	lhu	v0,92(a3)
    467c:	8ce3001c 	lw	v1,28(a3)
    4680:	3042ffff 	andi	v0,v0,0xffff
    4684:	00621821 	addu	v1,v1,v0
    4688:	ace3001c 	sw	v1,28(a3)
    468c:	24020002 	li	v0,2
    4690:	ace50038 	sw	a1,56(a3)
    4694:	0e000f37 	jal	0x8003cdc
    4698:	a082000c 	sb	v0,12(a0)
    469c:	10400018 	beqz	v0,0x4700
    46a0:	8fbf0010 	lw	ra,16(sp)
    46a4:	3c028000 	lui	v0,0x8000
    46a8:	8c440100 	lw	a0,256(v0)
    46ac:	8fbf0010 	lw	ra,16(sp)
    46b0:	0a000f48 	j	0x8003d20
    46b4:	27bd0018 	addiu	sp,sp,24
    46b8:	31020010 	andi	v0,t0,0x10
    46bc:	10400010 	beqz	v0,0x4700
    46c0:	8fbf0010 	lw	ra,16(sp)
    46c4:	3c028008 	lui	v0,0x8008
    46c8:	34450080 	ori	a1,v0,0x80
    46cc:	8ca3001c 	lw	v1,28(a1)
    46d0:	94a2005c 	lhu	v0,92(a1)
    46d4:	00661823 	subu	v1,v1,a2
    46d8:	3042ffff 	andi	v0,v0,0xffff
    46dc:	00621821 	addu	v1,v1,v0
    46e0:	3c023fff 	lui	v0,0x3fff
    46e4:	3444ffff 	ori	a0,v0,0xffff
    46e8:	0083102b 	sltu	v0,a0,v1
    46ec:	54400001 	bnezl	v0,0x46f4
    46f0:	00801821 	move	v1,a0
    46f4:	00c31021 	addu	v0,a2,v1
    46f8:	aca2001c 	sw	v0,28(a1)
    46fc:	8fbf0010 	lw	ra,16(sp)
    4700:	03e00008 	jr	ra
    4704:	27bd0018 	addiu	sp,sp,24
    4708:	27bdffe8 	addiu	sp,sp,-24
    470c:	00c04021 	move	t0,a2
    4710:	00a63023 	subu	a2,a1,a2
    4714:	afbf0010 	sw	ra,16(sp)
    4718:	18c00026 	blez	a2,0x47b4
    471c:	308a00ff 	andi	t2,a0,0xff
    4720:	3c028008 	lui	v0,0x8008
    4724:	34490080 	ori	t1,v0,0x80
    4728:	8d24001c 	lw	a0,28(t1)
    472c:	8d23002c 	lw	v1,44(t1)
    4730:	00882023 	subu	a0,a0,t0
    4734:	0064182b 	sltu	v1,v1,a0
    4738:	1060000f 	beqz	v1,0x4778
    473c:	34470100 	ori	a3,v0,0x100
    4740:	8ce20020 	lw	v0,32(a3)
    4744:	00461021 	addu	v0,v0,a2
    4748:	ace20020 	sw	v0,32(a3)
    474c:	8ce20020 	lw	v0,32(a3)
    4750:	0044102b 	sltu	v0,v0,a0
    4754:	1440000b 	bnez	v0,0x4784
    4758:	3c023fff 	lui	v0,0x3fff
    475c:	8ce20020 	lw	v0,32(a3)
    4760:	00441023 	subu	v0,v0,a0
    4764:	ace20020 	sw	v0,32(a3)
    4768:	9522005c 	lhu	v0,92(t1)
    476c:	3042ffff 	andi	v0,v0,0xffff
    4770:	0a0011ae 	j	0x80046b8
    4774:	00822021 	addu	a0,a0,v0
    4778:	ace00020 	sw	zero,32(a3)
    477c:	00862021 	addu	a0,a0,a2
    4780:	3c023fff 	lui	v0,0x3fff
    4784:	3443ffff 	ori	v1,v0,0xffff
    4788:	0064102b 	sltu	v0,v1,a0
    478c:	54400001 	bnezl	v0,0x4794
    4790:	00602021 	move	a0,v1
    4794:	3c028008 	lui	v0,0x8008
    4798:	34420080 	ori	v0,v0,0x80
    479c:	00851821 	addu	v1,a0,a1
    47a0:	ac43001c 	sw	v1,28(v0)
    47a4:	a0400024 	sb	zero,36(v0)
    47a8:	a0400027 	sb	zero,39(v0)
    47ac:	0a0011fd 	j	0x80047f4
    47b0:	8fbf0010 	lw	ra,16(sp)
    47b4:	31420010 	andi	v0,t2,0x10
    47b8:	10400040 	beqz	v0,0x48bc
    47bc:	8fbf0010 	lw	ra,16(sp)
    47c0:	3c068008 	lui	a2,0x8008
    47c4:	34c40080 	ori	a0,a2,0x80
    47c8:	8c82003c 	lw	v0,60(a0)
    47cc:	00481023 	subu	v0,v0,t0
    47d0:	5840003b 	blezl	v0,0x48c0
    47d4:	01402021 	move	a0,t2
    47d8:	90820024 	lbu	v0,36(a0)
    47dc:	24420001 	addiu	v0,v0,1
    47e0:	a0820024 	sb	v0,36(a0)
    47e4:	90820024 	lbu	v0,36(a0)
    47e8:	3c030800 	lui	v1,0x800
    47ec:	8c630024 	lw	v1,36(v1)
    47f0:	304200ff 	andi	v0,v0,0xff
    47f4:	0043102b 	sltu	v0,v0,v1
    47f8:	54400034 	bnezl	v0,0x48cc
    47fc:	8fbf0010 	lw	ra,16(sp)
    4800:	34c20100 	ori	v0,a2,0x100
    4804:	8c42001c 	lw	v0,28(v0)
    4808:	00a21023 	subu	v0,a1,v0
    480c:	1840002f 	blez	v0,0x48cc
    4810:	8fbf0010 	lw	ra,16(sp)
    4814:	8cc30004 	lw	v1,4(a2)
    4818:	9482005c 	lhu	v0,92(a0)
    481c:	00681823 	subu	v1,v1,t0
    4820:	3042ffff 	andi	v0,v0,0xffff
    4824:	00031843 	sra	v1,v1,0x1
    4828:	00021040 	sll	v0,v0,0x1
    482c:	0043102a 	slt	v0,v0,v1
    4830:	10400005 	beqz	v0,0x4848
    4834:	00000000 	nop
    4838:	8cc20004 	lw	v0,4(a2)
    483c:	00481023 	subu	v0,v0,t0
    4840:	0a0011e3 	j	0x800478c
    4844:	00021043 	sra	v0,v0,0x1
    4848:	9482005c 	lhu	v0,92(a0)
    484c:	3042ffff 	andi	v0,v0,0xffff
    4850:	00021040 	sll	v0,v0,0x1
    4854:	3c068008 	lui	a2,0x8008
    4858:	ac82002c 	sw	v0,44(a0)
    485c:	34c50080 	ori	a1,a2,0x80
    4860:	94a2005c 	lhu	v0,92(a1)
    4864:	8ca4002c 	lw	a0,44(a1)
    4868:	94a3005c 	lhu	v1,92(a1)
    486c:	3042ffff 	andi	v0,v0,0xffff
    4870:	00021040 	sll	v0,v0,0x1
    4874:	00822021 	addu	a0,a0,v0
    4878:	3063ffff 	andi	v1,v1,0xffff
    487c:	00832021 	addu	a0,a0,v1
    4880:	01041021 	addu	v0,t0,a0
    4884:	aca2001c 	sw	v0,28(a1)
    4888:	8cc20004 	lw	v0,4(a2)
    488c:	34c60100 	ori	a2,a2,0x100
    4890:	acc2001c 	sw	v0,28(a2)
    4894:	24020002 	li	v0,2
    4898:	0e000f37 	jal	0x8003cdc
    489c:	a0c2000c 	sb	v0,12(a2)
    48a0:	1040000a 	beqz	v0,0x48cc
    48a4:	8fbf0010 	lw	ra,16(sp)
    48a8:	3c028000 	lui	v0,0x8000
    48ac:	8c440100 	lw	a0,256(v0)
    48b0:	8fbf0010 	lw	ra,16(sp)
    48b4:	0a000f48 	j	0x8003d20
    48b8:	27bd0018 	addiu	sp,sp,24
    48bc:	01402021 	move	a0,t2
    48c0:	24060001 	li	a2,1
    48c4:	0a0010f9 	j	0x80043e4
    48c8:	27bd0018 	addiu	sp,sp,24
    48cc:	03e00008 	jr	ra
    48d0:	27bd0018 	addiu	sp,sp,24
    48d4:	3c098008 	lui	t1,0x8008
    48d8:	352a0080 	ori	t2,t1,0x80
    48dc:	8d42003c 	lw	v0,60(t2)
    48e0:	308300ff 	andi	v1,a0,0xff
    48e4:	352b0100 	ori	t3,t1,0x100
    48e8:	00461023 	subu	v0,v0,a2
    48ec:	30e700ff 	andi	a3,a3,0xff
    48f0:	18400006 	blez	v0,0x490c
    48f4:	00602021 	move	a0,v1
    48f8:	24020001 	li	v0,1
    48fc:	a160000c 	sb	zero,12(t3)
    4900:	a160000d 	sb	zero,13(t3)
    4904:	0a001190 	j	0x8004640
    4908:	a5420014 	sh	v0,20(t2)
    490c:	24020005 	li	v0,5
    4910:	35290100 	ori	t1,t1,0x100
    4914:	00003021 	move	a2,zero
    4918:	14e20008 	bne	a3,v0,0x493c
    491c:	a1400027 	sb	zero,39(t2)
    4920:	9122000d 	lbu	v0,13(t1)
    4924:	2c420006 	sltiu	v0,v0,6
    4928:	10400004 	beqz	v0,0x493c
    492c:	00000000 	nop
    4930:	9122000d 	lbu	v0,13(t1)
    4934:	24420001 	addiu	v0,v0,1
    4938:	a122000d 	sb	v0,13(t1)
    493c:	0a0010f9 	j	0x80043e4
    4940:	00000000 	nop
    4944:	3c038008 	lui	v1,0x8008
    4948:	3c028000 	lui	v0,0x8000
    494c:	34420100 	ori	v0,v0,0x100
    4950:	34640080 	ori	a0,v1,0x80
    4954:	34630100 	ori	v1,v1,0x100
    4958:	9045000a 	lbu	a1,10(v0)
    495c:	8c480014 	lw	t0,20(v0)
    4960:	8c890038 	lw	t1,56(a0)
    4964:	9062000c 	lbu	v0,12(v1)
    4968:	30aa00ff 	andi	t2,a1,0xff
    496c:	01281823 	subu	v1,t1,t0
    4970:	304700ff 	andi	a3,v0,0xff
    4974:	1c60000e 	bgtz	v1,0x49b0
    4978:	2ce40006 	sltiu	a0,a3,6
    497c:	24020001 	li	v0,1
    4980:	00e21004 	sllv	v0,v0,a3
    4984:	1080000a 	beqz	a0,0x49b0
    4988:	30430003 	andi	v1,v0,0x3
    498c:	01402021 	move	a0,t2
    4990:	01002821 	move	a1,t0
    4994:	01203021 	move	a2,t1
    4998:	14600007 	bnez	v1,0x49b8
    499c:	304b000c 	andi	t3,v0,0xc
    49a0:	15600007 	bnez	t3,0x49c0
    49a4:	30420030 	andi	v0,v0,0x30
    49a8:	14400007 	bnez	v0,0x49c8
    49ac:	00000000 	nop
    49b0:	03e00008 	jr	ra
    49b4:	00000000 	nop
    49b8:	0a001190 	j	0x8004640
    49bc:	00000000 	nop
    49c0:	0a00112a 	j	0x80044a8
    49c4:	00000000 	nop
    49c8:	0a001203 	j	0x800480c
    49cc:	00000000 	nop
    49d0:	3c038008 	lui	v1,0x8008
    49d4:	34640100 	ori	a0,v1,0x100
    49d8:	24020003 	li	v0,3
    49dc:	a082000c 	sb	v0,12(a0)
    49e0:	8c620004 	lw	v0,4(v1)
    49e4:	03e00008 	jr	ra
    49e8:	ac82001c 	sw	v0,28(a0)
    49ec:	3c058008 	lui	a1,0x8008
    49f0:	34a30080 	ori	v1,a1,0x80
    49f4:	90620027 	lbu	v0,39(v1)
    49f8:	34a50100 	ori	a1,a1,0x100
    49fc:	24060043 	li	a2,67
    4a00:	24420001 	addiu	v0,v0,1
    4a04:	a0620027 	sb	v0,39(v1)
    4a08:	90630027 	lbu	v1,39(v1)
    4a0c:	3c020800 	lui	v0,0x800
    4a10:	8c420048 	lw	v0,72(v0)
    4a14:	306300ff 	andi	v1,v1,0xff
    4a18:	14620004 	bne	v1,v0,0x4a2c
    4a1c:	3c076021 	lui	a3,0x6021
    4a20:	94a500da 	lhu	a1,218(a1)
    4a24:	0a0008ee 	j	0x80023b8
    4a28:	30a5ffff 	andi	a1,a1,0xffff
    4a2c:	03e00008 	jr	ra
    4a30:	00000000 	nop
    4a34:	27bdffe8 	addiu	sp,sp,-24
    4a38:	afbf0010 	sw	ra,16(sp)
    4a3c:	3c028000 	lui	v0,0x8000
    4a40:	0e001249 	jal	0x8004924
    4a44:	8c440180 	lw	a0,384(v0)
    4a48:	3c028008 	lui	v0,0x8008
    4a4c:	34430100 	ori	v1,v0,0x100
    4a50:	a060000c 	sb	zero,12(v1)
    4a54:	8c420004 	lw	v0,4(v0)
    4a58:	8fbf0010 	lw	ra,16(sp)
    4a5c:	27bd0018 	addiu	sp,sp,24
    4a60:	03e00008 	jr	ra
    4a64:	ac62001c 	sw	v0,28(v1)
    4a68:	27bdffe0 	addiu	sp,sp,-32
    4a6c:	3c028008 	lui	v0,0x8008
    4a70:	afbf0018 	sw	ra,24(sp)
    4a74:	afb10014 	sw	s1,20(sp)
    4a78:	afb00010 	sw	s0,16(sp)
    4a7c:	34450080 	ori	a1,v0,0x80
    4a80:	34460100 	ori	a2,v0,0x100
    4a84:	3c088000 	lui	t0,0x8000
    4a88:	8d090140 	lw	t1,320(t0)
    4a8c:	90c3000c 	lbu	v1,12(a2)
    4a90:	8ca4003c 	lw	a0,60(a1)
    4a94:	8ca20038 	lw	v0,56(a1)
    4a98:	14820038 	bne	a0,v0,0x4b7c
    4a9c:	306700ff 	andi	a3,v1,0xff
    4aa0:	9502007c 	lhu	v0,124(t0)
    4aa4:	90a30027 	lbu	v1,39(a1)
    4aa8:	14600009 	bnez	v1,0x4ad0
    4aac:	3045ffff 	andi	a1,v0,0xffff
    4ab0:	24020005 	li	v0,5
    4ab4:	54e20008 	bnel	a3,v0,0x4ad8
    4ab8:	3c048008 	lui	a0,0x8008
    4abc:	90c2000d 	lbu	v0,13(a2)
    4ac0:	24420001 	addiu	v0,v0,1
    4ac4:	a0c2000d 	sb	v0,13(a2)
    4ac8:	0a001284 	j	0x8004a10
    4acc:	3c048008 	lui	a0,0x8008
    4ad0:	a0c0000d 	sb	zero,13(a2)
    4ad4:	3c048008 	lui	a0,0x8008
    4ad8:	34820100 	ori	v0,a0,0x100
    4adc:	9042000c 	lbu	v0,12(v0)
    4ae0:	24030005 	li	v1,5
    4ae4:	304200ff 	andi	v0,v0,0xff
    4ae8:	1443000a 	bne	v0,v1,0x4b14
    4aec:	24a205dc 	addiu	v0,a1,1500
    4af0:	34830080 	ori	v1,a0,0x80
    4af4:	90620027 	lbu	v0,39(v1)
    4af8:	2c420007 	sltiu	v0,v0,7
    4afc:	50400005 	beqzl	v0,0x4b14
    4b00:	24a20a00 	addiu	v0,a1,2560
    4b04:	90630027 	lbu	v1,39(v1)
    4b08:	24020014 	li	v0,20
    4b0c:	00621004 	sllv	v0,v0,v1
    4b10:	00a21021 	addu	v0,a1,v0
    4b14:	3c108008 	lui	s0,0x8008
    4b18:	36100080 	ori	s0,s0,0x80
    4b1c:	3045ffff 	andi	a1,v0,0xffff
    4b20:	01202021 	move	a0,t1
    4b24:	0e001249 	jal	0x8004924
    4b28:	a6050014 	sh	a1,20(s0)
    4b2c:	9602005c 	lhu	v0,92(s0)
    4b30:	8e030038 	lw	v1,56(s0)
    4b34:	3c118000 	lui	s1,0x8000
    4b38:	3042ffff 	andi	v0,v0,0xffff
    4b3c:	00021040 	sll	v0,v0,0x1
    4b40:	00621821 	addu	v1,v1,v0
    4b44:	ae03001c 	sw	v1,28(s0)
    4b48:	0e000315 	jal	0x8000c54
    4b4c:	8e240140 	lw	a0,320(s1)
    4b50:	92020025 	lbu	v0,37(s0)
    4b54:	34420040 	ori	v0,v0,0x40
    4b58:	a2020025 	sb	v0,37(s0)
    4b5c:	0e000320 	jal	0x8000c80
    4b60:	8e240140 	lw	a0,320(s1)
    4b64:	8e240140 	lw	a0,320(s1)
    4b68:	8fbf0018 	lw	ra,24(sp)
    4b6c:	8fb10014 	lw	s1,20(sp)
    4b70:	8fb00010 	lw	s0,16(sp)
    4b74:	0a000f48 	j	0x8003d20
    4b78:	27bd0020 	addiu	sp,sp,32
    4b7c:	8fbf0018 	lw	ra,24(sp)
    4b80:	8fb10014 	lw	s1,20(sp)
    4b84:	8fb00010 	lw	s0,16(sp)
    4b88:	03e00008 	jr	ra
    4b8c:	27bd0020 	addiu	sp,sp,32
    4b90:	80080100 	lb	t0,256(zero)
    4b94:	80080080 	lb	t0,128(zero)
    4b98:	80080000 	lb	t0,0(zero)
    4b9c:	80080240 	lb	t0,576(zero)
    4ba0:	08000ef0 	j	0x3bc0
    4ba4:	08000f48 	j	0x3d20
    4ba8:	08000f8c 	j	0x3e30
    4bac:	08001020 	j	0x4080
    4bb0:	08001064 	j	0x4190
    4bb4:	80080100 	lb	t0,256(zero)
    4bb8:	80080080 	lb	t0,128(zero)
    4bbc:	80080000 	lb	t0,0(zero)
    4bc0:	0a000020 	j	0x8000080
    4bc4:	00000000 	nop
    4bc8:	00000000 	nop
    4bcc:	0000000d 	break
    4bd0:	6370342e 	daddi	s0,k1,13358
    4bd4:	362e3137 	ori	t6,s1,0x3137
    4bd8:	00000000 	nop
    4bdc:	04061104 	.word	0x4061104
	...
    4bf4:	38003c00 	xori	zero,zero,0x3c00
	...
    4c08:	00000020 	add	zero,zero,zero
	...
    4c34:	21003800 	addi	zero,t0,14336
    4c38:	00000001 	.word	0x1
    4c3c:	0000002b 	sltu	zero,zero,zero
    4c40:	00000000 	nop
    4c44:	10000003 	b	0x4c54
    4c48:	00000000 	nop
    4c4c:	0000000d 	break
    4c50:	0000000d 	break
    4c54:	3c020800 	lui	v0,0x800
    4c58:	244255c4 	addiu	v0,v0,21956
    4c5c:	3c030800 	lui	v1,0x800
    4c60:	246357f4 	addiu	v1,v1,22516
    4c64:	ac400000 	sw	zero,0(v0)
    4c68:	0043202b 	sltu	a0,v0,v1
    4c6c:	1480fffd 	bnez	a0,0x4c64
    4c70:	24420004 	addiu	v0,v0,4
    4c74:	3c1d0800 	lui	sp,0x800
    4c78:	37bd9ffc 	ori	sp,sp,0x9ffc
    4c7c:	03a0f021 	move	s8,sp
    4c80:	3c100800 	lui	s0,0x800
    4c84:	26100080 	addiu	s0,s0,128
    4c88:	3c1c0800 	lui	gp,0x800
    4c8c:	279c55c4 	addiu	gp,gp,21956
    4c90:	0e00026a 	jal	0x80009a8
    4c94:	00000000 	nop
    4c98:	0000000d 	break
    4c9c:	00a01821 	move	v1,a1
    4ca0:	00801021 	move	v0,a0
    4ca4:	00802821 	move	a1,a0
    4ca8:	3c046000 	lui	a0,0x6000
    4cac:	3c076000 	lui	a3,0x6000
    4cb0:	24060008 	li	a2,8
    4cb4:	10600006 	beqz	v1,0x4cd0
    4cb8:	34842078 	ori	a0,a0,0x2078
    4cbc:	8c420000 	lw	v0,0(v0)
    4cc0:	ace22008 	sw	v0,8200(a3)
    4cc4:	8c630000 	lw	v1,0(v1)
    4cc8:	03e00008 	jr	ra
    4ccc:	ace3200c 	sw	v1,8204(a3)
    4cd0:	0a000e1c 	j	0x8003870
    4cd4:	00000000 	nop
    4cd8:	24030040 	li	v1,64
    4cdc:	3c026000 	lui	v0,0x6000
    4ce0:	03e00008 	jr	ra
    4ce4:	ac432000 	sw	v1,8192(v0)
    4ce8:	3c076000 	lui	a3,0x6000
    4cec:	8f860000 	lw	a2,0(gp)
    4cf0:	8ce52074 	lw	a1,8308(a3)
    4cf4:	00861021 	addu	v0,a0,a2
    4cf8:	00a2182b 	sltu	v1,a1,v0
    4cfc:	14600007 	bnez	v1,0x4d1c
    4d00:	00002821 	move	a1,zero
    4d04:	8f8afdec 	lw	t2,-532(gp)
    4d08:	24050001 	li	a1,1
    4d0c:	a1440013 	sb	a0,19(t2)
    4d10:	8f890000 	lw	t1,0(gp)
    4d14:	01244021 	addu	t0,t1,a0
    4d18:	af880000 	sw	t0,0(gp)
    4d1c:	03e00008 	jr	ra
    4d20:	00a01021 	move	v0,a1
    4d24:	8f84fdec 	lw	a0,-532(gp)
    4d28:	8f850000 	lw	a1,0(gp)
    4d2c:	90860013 	lbu	a2,19(a0)
    4d30:	30c300ff 	andi	v1,a2,0xff
    4d34:	00a31023 	subu	v0,a1,v1
    4d38:	af820000 	sw	v0,0(gp)
    4d3c:	03e00008 	jr	ra
    4d40:	a0800013 	sb	zero,19(a0)
    4d44:	8f84fdec 	lw	a0,-532(gp)
    4d48:	27bdffe8 	addiu	sp,sp,-24
    4d4c:	afb00010 	sw	s0,16(sp)
    4d50:	afbf0014 	sw	ra,20(sp)
    4d54:	90890011 	lbu	t1,17(a0)
    4d58:	90870011 	lbu	a3,17(a0)
    4d5c:	24020028 	li	v0,40
    4d60:	312800ff 	andi	t0,t1,0xff
    4d64:	39060028 	xori	a2,t0,0x28
    4d68:	30e300ff 	andi	v1,a3,0xff
    4d6c:	2485002c 	addiu	a1,a0,44
    4d70:	2cd00001 	sltiu	s0,a2,1
    4d74:	10620016 	beq	v1,v0,0x4dd0
    4d78:	2484001c 	addiu	a0,a0,28
    4d7c:	0e000037 	jal	0x80000dc
    4d80:	00000000 	nop
    4d84:	8f8ffdec 	lw	t7,-532(gp)
    4d88:	3c056000 	lui	a1,0x6000
    4d8c:	24020204 	li	v0,516
    4d90:	95ee003e 	lhu	t6,62(t7)
    4d94:	95ed003c 	lhu	t5,60(t7)
    4d98:	000e5c00 	sll	t3,t6,0x10
    4d9c:	31acffff 	andi	t4,t5,0xffff
    4da0:	016c5025 	or	t2,t3,t4
    4da4:	acaa2010 	sw	t2,8208(a1)
    4da8:	52000001 	beqzl	s0,0x4db0
    4dac:	24020004 	li	v0,4
    4db0:	aca22000 	sw	v0,8192(a1)
	...
    4dc0:	8fbf0014 	lw	ra,20(sp)
    4dc4:	8fb00010 	lw	s0,16(sp)
    4dc8:	03e00008 	jr	ra
    4dcc:	27bd0018 	addiu	sp,sp,24
    4dd0:	0a00006f 	j	0x80001bc
    4dd4:	00002821 	move	a1,zero
    4dd8:	8f85fdec 	lw	a1,-532(gp)
    4ddc:	27bdffd8 	addiu	sp,sp,-40
    4de0:	afbf0020 	sw	ra,32(sp)
    4de4:	afb3001c 	sw	s3,28(sp)
    4de8:	afb20018 	sw	s2,24(sp)
    4dec:	afb10014 	sw	s1,20(sp)
    4df0:	afb00010 	sw	s0,16(sp)
    4df4:	00809821 	move	s3,a0
    4df8:	90a40011 	lbu	a0,17(a1)
    4dfc:	24b0001c 	addiu	s0,a1,28
    4e00:	24b1002c 	addiu	s1,a1,44
    4e04:	308300ff 	andi	v1,a0,0xff
    4e08:	38620028 	xori	v0,v1,0x28
    4e0c:	0e000059 	jal	0x8000164
    4e10:	2c520001 	sltiu	s2,v0,1
    4e14:	0e000061 	jal	0x8000184
    4e18:	00000000 	nop
    4e1c:	02002021 	move	a0,s0
    4e20:	12400002 	beqz	s2,0x4e2c
    4e24:	02202821 	move	a1,s1
    4e28:	00002821 	move	a1,zero
    4e2c:	0e000037 	jal	0x80000dc
    4e30:	00000000 	nop
    4e34:	8f8dfdec 	lw	t5,-532(gp)
    4e38:	3c088000 	lui	t0,0x8000
    4e3c:	3c056000 	lui	a1,0x6000
    4e40:	95ac003e 	lhu	t4,62(t5)
    4e44:	95ab003c 	lhu	t3,60(t5)
    4e48:	02683025 	or	a2,s3,t0
    4e4c:	000c4c00 	sll	t1,t4,0x10
    4e50:	316affff 	andi	t2,t3,0xffff
    4e54:	012a3825 	or	a3,t1,t2
    4e58:	aca72010 	sw	a3,8208(a1)
    4e5c:	24020202 	li	v0,514
    4e60:	aca62014 	sw	a2,8212(a1)
    4e64:	52400001 	beqzl	s2,0x4e6c
    4e68:	24020002 	li	v0,2
    4e6c:	8fbf0020 	lw	ra,32(sp)
    4e70:	8fb3001c 	lw	s3,28(sp)
    4e74:	8fb20018 	lw	s2,24(sp)
    4e78:	8fb10014 	lw	s1,20(sp)
    4e7c:	8fb00010 	lw	s0,16(sp)
    4e80:	27bd0028 	addiu	sp,sp,40
    4e84:	03e00008 	jr	ra
    4e88:	aca22000 	sw	v0,8192(a1)
    4e8c:	27bdffe0 	addiu	sp,sp,-32
    4e90:	afb20018 	sw	s2,24(sp)
    4e94:	afb10014 	sw	s1,20(sp)
    4e98:	afb00010 	sw	s0,16(sp)
    4e9c:	afbf001c 	sw	ra,28(sp)
    4ea0:	3c116000 	lui	s1,0x6000
    4ea4:	8e232074 	lw	v1,8308(s1)
    4ea8:	8f820000 	lw	v0,0(gp)
    4eac:	30d0ffff 	andi	s0,a2,0xffff
    4eb0:	30f2ffff 	andi	s2,a3,0xffff
    4eb4:	1062000c 	beq	v1,v0,0x4ee8
    4eb8:	2406008f 	li	a2,143
    4ebc:	0e000037 	jal	0x80000dc
    4ec0:	00000000 	nop
    4ec4:	3c06801f 	lui	a2,0x801f
    4ec8:	00104400 	sll	t0,s0,0x10
    4ecc:	34c5ff00 	ori	a1,a2,0xff00
    4ed0:	01123825 	or	a3,t0,s2
    4ed4:	24040002 	li	a0,2
    4ed8:	ae272010 	sw	a3,8208(s1)
    4edc:	00003021 	move	a2,zero
    4ee0:	ae252014 	sw	a1,8212(s1)
    4ee4:	ae242000 	sw	a0,8192(s1)
    4ee8:	8fbf001c 	lw	ra,28(sp)
    4eec:	8fb20018 	lw	s2,24(sp)
    4ef0:	8fb10014 	lw	s1,20(sp)
    4ef4:	8fb00010 	lw	s0,16(sp)
    4ef8:	00c01021 	move	v0,a2
    4efc:	03e00008 	jr	ra
    4f00:	27bd0020 	addiu	sp,sp,32
    4f04:	27bdffe0 	addiu	sp,sp,-32
    4f08:	afb00010 	sw	s0,16(sp)
    4f0c:	30d0ffff 	andi	s0,a2,0xffff
    4f10:	afbf0018 	sw	ra,24(sp)
    4f14:	afb10014 	sw	s1,20(sp)
    4f18:	0e000037 	jal	0x80000dc
    4f1c:	30f1ffff 	andi	s1,a3,0xffff
    4f20:	00102400 	sll	a0,s0,0x10
    4f24:	00918025 	or	s0,a0,s1
    4f28:	3c036000 	lui	v1,0x6000
    4f2c:	ac702010 	sw	s0,8208(v1)
    4f30:	8fbf0018 	lw	ra,24(sp)
    4f34:	8fb10014 	lw	s1,20(sp)
    4f38:	8fb00010 	lw	s0,16(sp)
    4f3c:	24020004 	li	v0,4
    4f40:	ac622000 	sw	v0,8192(v1)
    4f44:	27bd0020 	addiu	sp,sp,32
    4f48:	03e00008 	jr	ra
    4f4c:	00001021 	move	v0,zero
    4f50:	27bdffe8 	addiu	sp,sp,-24
    4f54:	3c0c6018 	lui	t4,0x6018
    4f58:	afbf0010 	sw	ra,16(sp)
    4f5c:	8d985000 	lw	t8,20480(t4)
    4f60:	2419ff7f 	li	t9,-129
    4f64:	3c088000 	lui	t0,0x8000
    4f68:	03197824 	and	t7,t8,t9
    4f6c:	35ee380c 	ori	t6,t7,0x380c
    4f70:	340d8071 	li	t5,0x8071
    4f74:	240a0031 	li	t2,49
    4f78:	24090c00 	li	t1,3072
    4f7c:	ad8e5000 	sw	t6,20480(t4)
    4f80:	3c0b800a 	lui	t3,0x800a
    4f84:	ad8d53bc 	sw	t5,21436(t4)
    4f88:	ad0a0008 	sw	t2,8(t0)
    4f8c:	ad090024 	sw	t1,36(t0)
    4f90:	0e00048d 	jal	0x8001234
    4f94:	af8b002c 	sw	t3,44(gp)
    4f98:	0e00044b 	jal	0x800112c
    4f9c:	00000000 	nop
    4fa0:	0e000046 	jal	0x8000118
    4fa4:	00000000 	nop
    4fa8:	3c076000 	lui	a3,0x6000
    4fac:	8ce50808 	lw	a1,2056(a3)
    4fb0:	2406fff0 	li	a2,-16
    4fb4:	3c035709 	lui	v1,0x5709
    4fb8:	00a62024 	and	a0,a1,a2
    4fbc:	3462f000 	ori	v0,v1,0xf000
    4fc0:	10820048 	beq	a0,v0,0x50e4
    4fc4:	241f0001 	li	ra,1
    4fc8:	af800038 	sw	zero,56(gp)
    4fcc:	0e000bae 	jal	0x8002eb8
    4fd0:	00000000 	nop
    4fd4:	3c066016 	lui	a2,0x6016
    4fd8:	8cc70000 	lw	a3,0(a2)
    4fdc:	3c086014 	lui	t0,0x6014
    4fe0:	8d0500a0 	lw	a1,160(t0)
    4fe4:	3c03ffff 	lui	v1,0xffff
    4fe8:	00e32024 	and	a0,a3,v1
    4fec:	3c025353 	lui	v0,0x5353
    4ff0:	00051fc2 	srl	v1,a1,0x1f
    4ff4:	10820035 	beq	a0,v0,0x50cc
    4ff8:	34c57c00 	ori	a1,a2,0x7c00
    4ffc:	94a201f2 	lhu	v0,498(a1)
    5000:	a7800050 	sh	zero,80(gp)
    5004:	10400003 	beqz	v0,0x5014
    5008:	a7800060 	sh	zero,96(gp)
    500c:	384c1e1e 	xori	t4,v0,0x1e1e
    5010:	a78c0050 	sh	t4,80(gp)
    5014:	94a201f8 	lhu	v0,504(a1)
    5018:	10400004 	beqz	v0,0x502c
    501c:	8f8e0038 	lw	t6,56(gp)
    5020:	384d1e1e 	xori	t5,v0,0x1e1e
    5024:	a78d0060 	sh	t5,96(gp)
    5028:	8f8e0038 	lw	t6,56(gp)
    502c:	11c00004 	beqz	t6,0x5040
    5030:	97840060 	lhu	a0,96(gp)
    5034:	240f0020 	li	t7,32
    5038:	a78f0050 	sh	t7,80(gp)
    503c:	97840060 	lhu	a0,96(gp)
    5040:	2c980081 	sltiu	t8,a0,129
    5044:	53000001 	beqzl	t8,0x504c
    5048:	24040080 	li	a0,128
    504c:	97850050 	lhu	a1,80(gp)
    5050:	2cb90401 	sltiu	t9,a1,1025
    5054:	53200001 	beqzl	t9,0x505c
    5058:	24050400 	li	a1,1024
    505c:	3c036000 	lui	v1,0x6000
    5060:	8c670438 	lw	a3,1080(v1)
    5064:	241f103c 	li	ra,4156
    5068:	30e2ffff 	andi	v0,a3,0xffff
    506c:	105f0003 	beq	v0,ra,0x507c
    5070:	3088ffff 	andi	t0,a0,0xffff
    5074:	5100000b 	beqzl	t0,0x50a4
    5078:	24060050 	li	a2,80
    507c:	a3800062 	sb	zero,98(gp)
    5080:	93890062 	lbu	t1,98(gp)
    5084:	1120000b 	beqz	t1,0x50b4
    5088:	8fbf0010 	lw	ra,16(sp)
    508c:	27bd0018 	addiu	sp,sp,24
    5090:	a7800060 	sh	zero,96(gp)
    5094:	a7800050 	sh	zero,80(gp)
    5098:	a7800058 	sh	zero,88(gp)
    509c:	03e00008 	jr	ra
    50a0:	a7800076 	sh	zero,118(gp)
    50a4:	a3860062 	sb	a2,98(gp)
    50a8:	93890062 	lbu	t1,98(gp)
    50ac:	1520fff7 	bnez	t1,0x508c
    50b0:	8fbf0010 	lw	ra,16(sp)
    50b4:	27bd0018 	addiu	sp,sp,24
    50b8:	a7840060 	sh	a0,96(gp)
    50bc:	a7850050 	sh	a1,80(gp)
    50c0:	a7800058 	sh	zero,88(gp)
    50c4:	03e00008 	jr	ra
    50c8:	a7800076 	sh	zero,118(gp)
    50cc:	00035880 	sll	t3,v1,0x2
    50d0:	01665021 	addu	t2,t3,a2
    50d4:	8d490004 	lw	t1,4(t2)
    50d8:	3c066000 	lui	a2,0x6000
    50dc:	0a00010f 	j	0x800043c
    50e0:	01262821 	addu	a1,t1,a2
    50e4:	0a000103 	j	0x800040c
    50e8:	af9f0038 	sw	ra,56(gp)
    50ec:	3083ffff 	andi	v1,a0,0xffff
    50f0:	8f88002c 	lw	t0,44(gp)
    50f4:	8f870028 	lw	a3,40(gp)
    50f8:	00032140 	sll	a0,v1,0x5
    50fc:	3c058000 	lui	a1,0x8000
    5100:	3c020050 	lui	v0,0x50
    5104:	00824825 	or	t1,a0,v0
    5108:	3c066000 	lui	a2,0x6000
    510c:	3c0a0100 	lui	t2,0x100
    5110:	34ac0400 	ori	t4,a1,0x400
    5114:	8ccd08e0 	lw	t5,2272(a2)
    5118:	01aa5824 	and	t3,t5,t2
    511c:	11600005 	beqz	t3,0x5134
    5120:	00000000 	nop
    5124:	8ccf08e0 	lw	t7,2272(a2)
    5128:	24e70001 	addiu	a3,a3,1
    512c:	01ea7025 	or	t6,t7,t2
    5130:	acce08e0 	sw	t6,2272(a2)
    5134:	8d190010 	lw	t9,16(t0)
    5138:	01805821 	move	t3,t4
    513c:	acb90038 	sw	t9,56(a1)
    5140:	8d180014 	lw	t8,20(t0)
    5144:	acb8003c 	sw	t8,60(a1)
    5148:	aca90030 	sw	t1,48(a1)
	...
    516c:	3c038000 	lui	v1,0x8000
    5170:	8c640000 	lw	a0,0(v1)
    5174:	30820020 	andi	v0,a0,0x20
    5178:	1040fffd 	beqz	v0,0x5170
    517c:	3c0f6000 	lui	t7,0x6000
    5180:	8ded08e0 	lw	t5,2272(t7)
    5184:	3c0e0100 	lui	t6,0x100
    5188:	01ae1824 	and	v1,t5,t6
    518c:	1460ffe1 	bnez	v1,0x5114
    5190:	00000000 	nop
    5194:	af870028 	sw	a3,40(gp)
    5198:	03e00008 	jr	ra
    519c:	af8b003c 	sw	t3,60(gp)
    51a0:	8f85002c 	lw	a1,44(gp)
    51a4:	240bfff0 	li	t3,-16
    51a8:	3c068000 	lui	a2,0x8000
    51ac:	94a7001a 	lhu	a3,26(a1)
    51b0:	8ca90024 	lw	t1,36(a1)
    51b4:	30ecffff 	andi	t4,a3,0xffff
    51b8:	000c38c0 	sll	a3,t4,0x3
    51bc:	00eb5024 	and	t2,a3,t3
    51c0:	012a4021 	addu	t0,t1,t2
    51c4:	acc8003c 	sw	t0,60(a2)
    51c8:	8ca40024 	lw	a0,36(a1)
    51cc:	8cc3003c 	lw	v1,60(a2)
    51d0:	00831023 	subu	v0,a0,v1
    51d4:	18400033 	blez	v0,0x52a4
    51d8:	00000000 	nop
    51dc:	8cad0020 	lw	t5,32(a1)
    51e0:	25a20001 	addiu	v0,t5,1
    51e4:	3c0f0050 	lui	t7,0x50
    51e8:	acc20038 	sw	v0,56(a2)
    51ec:	35ee0010 	ori	t6,t7,0x10
    51f0:	3c068000 	lui	a2,0x8000
    51f4:	acce0030 	sw	t6,48(a2)
	...
    5218:	3c048000 	lui	a0,0x8000
    521c:	8c990000 	lw	t9,0(a0)
    5220:	33380020 	andi	t8,t9,0x20
    5224:	1300fffd 	beqz	t8,0x521c
    5228:	30e20008 	andi	v0,a3,0x8
    522c:	10400017 	beqz	v0,0x528c
    5230:	3c098000 	lui	t1,0x8000
    5234:	8c880408 	lw	t0,1032(a0)
    5238:	aca80010 	sw	t0,16(a1)
    523c:	8c83040c 	lw	v1,1036(a0)
    5240:	aca30014 	sw	v1,20(a1)
    5244:	3c190020 	lui	t9,0x20
    5248:	3c188000 	lui	t8,0x8000
    524c:	af190030 	sw	t9,48(t8)
    5250:	94ae0018 	lhu	t6,24(a1)
    5254:	94af001c 	lhu	t7,28(a1)
    5258:	01cf3021 	addu	a2,t6,t7
    525c:	a4a60018 	sh	a2,24(a1)
    5260:	94ad001a 	lhu	t5,26(a1)
    5264:	25a70001 	addiu	a3,t5,1
    5268:	a4a7001a 	sh	a3,26(a1)
    526c:	94ab001a 	lhu	t3,26(a1)
    5270:	94ac001e 	lhu	t4,30(a1)
    5274:	118b0003 	beq	t4,t3,0x5284
    5278:	00000000 	nop
    527c:	03e00008 	jr	ra
    5280:	00000000 	nop
    5284:	03e00008 	jr	ra
    5288:	a4a0001a 	sh	zero,26(a1)
    528c:	8d2a0400 	lw	t2,1024(t1)
    5290:	acaa0010 	sw	t2,16(a1)
    5294:	8d240404 	lw	a0,1028(t1)
    5298:	aca40014 	sw	a0,20(a1)
    529c:	0a0001a2 	j	0x8000688
    52a0:	3c190020 	lui	t9,0x20
    52a4:	8ca20020 	lw	v0,32(a1)
    52a8:	0a00018a 	j	0x8000628
    52ac:	3c0f0050 	lui	t7,0x50
    52b0:	0a000178 	j	0x80005e0
    52b4:	00000000 	nop
    52b8:	3c030800 	lui	v1,0x800
    52bc:	8c630020 	lw	v1,32(v1)
    52c0:	8f820034 	lw	v0,52(gp)
    52c4:	27bdffe8 	addiu	sp,sp,-24
    52c8:	10620008 	beq	v1,v0,0x52ec
    52cc:	afbf0010 	sw	ra,16(sp)
    52d0:	0e0001bc 	jal	0x80006f0
    52d4:	af830034 	sw	v1,52(gp)
    52d8:	3c030800 	lui	v1,0x800
    52dc:	8c630020 	lw	v1,32(v1)
    52e0:	24040001 	li	a0,1
    52e4:	10640004 	beq	v1,a0,0x52f8
    52e8:	8f8c002c 	lw	t4,44(gp)
    52ec:	8fbf0010 	lw	ra,16(sp)
    52f0:	03e00008 	jr	ra
    52f4:	27bd0018 	addiu	sp,sp,24
    52f8:	8fbf0010 	lw	ra,16(sp)
    52fc:	3c058000 	lui	a1,0x8000
    5300:	a580000a 	sh	zero,10(t4)
    5304:	958b000a 	lhu	t3,10(t4)
    5308:	958a0004 	lhu	t2,4(t4)
    530c:	27bd0018 	addiu	sp,sp,24
    5310:	3167ffff 	andi	a3,t3,0xffff
    5314:	3149000f 	andi	t1,t2,0xf
    5318:	00094500 	sll	t0,t1,0x14
    531c:	00e83025 	or	a2,a3,t0
    5320:	03e00008 	jr	ra
    5324:	aca60080 	sw	a2,128(a1)
    5328:	3c020800 	lui	v0,0x800
    532c:	8c420020 	lw	v0,32(v0)
    5330:	27bdffc8 	addiu	sp,sp,-56
    5334:	afbf0034 	sw	ra,52(sp)
    5338:	afbe0030 	sw	s8,48(sp)
    533c:	afb7002c 	sw	s7,44(sp)
    5340:	afb60028 	sw	s6,40(sp)
    5344:	afb50024 	sw	s5,36(sp)
    5348:	afb40020 	sw	s4,32(sp)
    534c:	afb3001c 	sw	s3,28(sp)
    5350:	afb20018 	sw	s2,24(sp)
    5354:	afb10014 	sw	s1,20(sp)
    5358:	10400053 	beqz	v0,0x54a8
    535c:	afb00010 	sw	s0,16(sp)
    5360:	8f84002c 	lw	a0,44(gp)
    5364:	94860006 	lhu	a2,6(a0)
    5368:	9483000a 	lhu	v1,10(a0)
    536c:	00c32823 	subu	a1,a2,v1
    5370:	30b6ffff 	andi	s6,a1,0xffff
    5374:	12c0004d 	beqz	s6,0x54ac
    5378:	8fbf0034 	lw	ra,52(sp)
    537c:	94890018 	lhu	t1,24(a0)
    5380:	948a000a 	lhu	t2,10(a0)
    5384:	012a4023 	subu	t0,t1,t2
    5388:	3102ffff 	andi	v0,t0,0xffff
    538c:	02c2382b 	sltu	a3,s6,v0
    5390:	14e00002 	bnez	a3,0x539c
    5394:	02c02021 	move	a0,s6
    5398:	00402021 	move	a0,v0
    539c:	2c8c0005 	sltiu	t4,a0,5
    53a0:	15800002 	bnez	t4,0x53ac
    53a4:	0080a021 	move	s4,a0
    53a8:	24140004 	li	s4,4
    53ac:	0e00014b 	jal	0x800052c
    53b0:	02802021 	move	a0,s4
    53b4:	8f87002c 	lw	a3,44(gp)
    53b8:	02809821 	move	s3,s4
    53bc:	af800030 	sw	zero,48(gp)
    53c0:	94ed000a 	lhu	t5,10(a3)
    53c4:	02808821 	move	s1,s4
    53c8:	12800051 	beqz	s4,0x5510
    53cc:	31b2ffff 	andi	s2,t5,0xffff
    53d0:	3c177000 	lui	s7,0x7000
    53d4:	3c154000 	lui	s5,0x4000
    53d8:	3c1e6000 	lui	s8,0x6000
    53dc:	8f8f003c 	lw	t7,60(gp)
    53e0:	8dee0000 	lw	t6,0(t7)
    53e4:	01d71824 	and	v1,t6,s7
    53e8:	50750053 	beql	v1,s5,0x5538
    53ec:	02202021 	move	a0,s1
    53f0:	02a3802b 	sltu	s0,s5,v1
    53f4:	16000038 	bnez	s0,0x54d8
    53f8:	3c182000 	lui	t8,0x2000
    53fc:	1078004a 	beq	v1,t8,0x5528
    5400:	00000000 	nop
    5404:	24100001 	li	s0,1
    5408:	8f830030 	lw	v1,48(gp)
    540c:	1460003c 	bnez	v1,0x5500
    5410:	02915823 	subu	t3,s4,s1
    5414:	0230f823 	subu	ra,s1,s0
    5418:	0250c821 	addu	t9,s2,s0
    541c:	33f1ffff 	andi	s1,ra,0xffff
    5420:	1620ffee 	bnez	s1,0x53dc
    5424:	3332ffff 	andi	s2,t9,0xffff
    5428:	8f87002c 	lw	a3,44(gp)
    542c:	3c120020 	lui	s2,0x20
    5430:	3c118000 	lui	s1,0x8000
    5434:	ae320030 	sw	s2,48(s1)
    5438:	94ea000a 	lhu	t2,10(a3)
    543c:	3c178000 	lui	s7,0x8000
    5440:	026a4821 	addu	t1,s3,t2
    5444:	a4e9000a 	sh	t1,10(a3)
    5448:	94e3000a 	lhu	v1,10(a3)
    544c:	94e80004 	lhu	t0,4(a3)
    5450:	3065ffff 	andi	a1,v1,0xffff
    5454:	3106000f 	andi	a2,t0,0xf
    5458:	00061500 	sll	v0,a2,0x14
    545c:	00a2f025 	or	s8,a1,v0
    5460:	aefe0080 	sw	s8,128(s7)
    5464:	94f4000a 	lhu	s4,10(a3)
    5468:	94f50018 	lhu	s5,24(a3)
    546c:	12b4003a 	beq	s5,s4,0x5558
    5470:	0013c940 	sll	t9,s3,0x5
    5474:	8cf80014 	lw	t8,20(a3)
    5478:	8cee0010 	lw	t6,16(a3)
    547c:	03195821 	addu	t3,t8,t9
    5480:	00007821 	move	t7,zero
    5484:	0179682b 	sltu	t5,t3,t9
    5488:	01cf6021 	addu	t4,t6,t7
    548c:	018d2021 	addu	a0,t4,t5
    5490:	aceb0014 	sw	t3,20(a3)
    5494:	ace40010 	sw	a0,16(a3)
    5498:	02d33823 	subu	a3,s6,s3
    549c:	30f6ffff 	andi	s6,a3,0xffff
    54a0:	16c0ffb6 	bnez	s6,0x537c
    54a4:	8f84002c 	lw	a0,44(gp)
    54a8:	8fbf0034 	lw	ra,52(sp)
    54ac:	8fbe0030 	lw	s8,48(sp)
    54b0:	8fb7002c 	lw	s7,44(sp)
    54b4:	8fb60028 	lw	s6,40(sp)
    54b8:	8fb50024 	lw	s5,36(sp)
    54bc:	8fb40020 	lw	s4,32(sp)
    54c0:	8fb3001c 	lw	s3,28(sp)
    54c4:	8fb20018 	lw	s2,24(sp)
    54c8:	8fb10014 	lw	s1,20(sp)
    54cc:	8fb00010 	lw	s0,16(sp)
    54d0:	03e00008 	jr	ra
    54d4:	27bd0038 	addiu	sp,sp,56
    54d8:	107e001b 	beq	v1,s8,0x5548
    54dc:	00000000 	nop
    54e0:	1477ffc9 	bne	v1,s7,0x5408
    54e4:	24100001 	li	s0,1
    54e8:	0e0014e0 	jal	0x8005380
    54ec:	00000000 	nop
    54f0:	8f830030 	lw	v1,48(gp)
    54f4:	1060ffc8 	beqz	v1,0x5418
    54f8:	0230f823 	subu	ra,s1,s0
    54fc:	02915823 	subu	t3,s4,s1
    5500:	8f87002c 	lw	a3,44(gp)
    5504:	01702021 	addu	a0,t3,s0
    5508:	0a000255 	j	0x8000954
    550c:	3093ffff 	andi	s3,a0,0xffff
    5510:	8f830030 	lw	v1,48(gp)
    5514:	1460ffc8 	bnez	v1,0x5438
    5518:	3c120020 	lui	s2,0x20
    551c:	3c118000 	lui	s1,0x8000
    5520:	0a00021e 	j	0x8000878
    5524:	ae320030 	sw	s2,48(s1)
    5528:	0e0003ce 	jal	0x8000f38
    552c:	02202021 	move	a0,s1
    5530:	0a000212 	j	0x8000848
    5534:	00408021 	move	s0,v0
    5538:	0e0007c6 	jal	0x8001f18
    553c:	02402821 	move	a1,s2
    5540:	0a000212 	j	0x8000848
    5544:	00408021 	move	s0,v0
    5548:	0e000d7d 	jal	0x80035f4
    554c:	02202021 	move	a0,s1
    5550:	0a000212 	j	0x8000848
    5554:	00408021 	move	s0,v0
    5558:	0e000178 	jal	0x80005e0
    555c:	00000000 	nop
    5560:	0a000237 	j	0x80008dc
    5564:	02d33823 	subu	a3,s6,s3
    5568:	27bdffd0 	addiu	sp,sp,-48
    556c:	afb50024 	sw	s5,36(sp)
    5570:	afb40020 	sw	s4,32(sp)
    5574:	afb3001c 	sw	s3,28(sp)
    5578:	afb20018 	sw	s2,24(sp)
    557c:	afb10014 	sw	s1,20(sp)
    5580:	afb00010 	sw	s0,16(sp)
    5584:	afbf0028 	sw	ra,40(sp)
    5588:	0e0000e4 	jal	0x8000390
    558c:	3c148000 	lui	s4,0x8000
    5590:	3c028008 	lui	v0,0x8008
    5594:	3c032000 	lui	v1,0x2000
    5598:	3c010800 	lui	at,0x800
    559c:	ac200070 	sw	zero,112(at)
    55a0:	34550080 	ori	s5,v0,0x80
    55a4:	34720003 	ori	s2,v1,0x3
    55a8:	24130001 	li	s3,1
    55ac:	36900070 	ori	s0,s4,0x70
    55b0:	2411ff80 	li	s1,-128
    55b4:	0a000285 	j	0x8000a14
    55b8:	8e060000 	lw	a2,0(s0)
    55bc:	3c198000 	lui	t9,0x8000
    55c0:	8f380000 	lw	t8,0(t9)
    55c4:	3b0f0001 	xori	t7,t8,0x1
    55c8:	31e20001 	andi	v0,t7,0x1
    55cc:	10400025 	beqz	v0,0x5664
    55d0:	8f860084 	lw	a2,132(gp)
    55d4:	8e070000 	lw	a3,0(s0)
    55d8:	3c0d0800 	lui	t5,0x800
    55dc:	8dad003c 	lw	t5,60(t5)
    55e0:	3c0a0800 	lui	t2,0x800
    55e4:	8d4a0038 	lw	t2,56(t2)
    55e8:	00e67023 	subu	t6,a3,a2
    55ec:	01ae4021 	addu	t0,t5,t6
    55f0:	00005821 	move	t3,zero
    55f4:	010e302b 	sltu	a2,t0,t6
    55f8:	014b4821 	addu	t1,t2,t3
    55fc:	01262021 	addu	a0,t1,a2
    5600:	3c010800 	lui	at,0x800
    5604:	ac28003c 	sw	t0,60(at)
    5608:	af870084 	sw	a3,132(gp)
    560c:	3c010800 	lui	at,0x800
    5610:	ac240038 	sw	a0,56(at)
    5614:	0e0001be 	jal	0x80006f8
    5618:	00000000 	nop
    561c:	3c050800 	lui	a1,0x800
    5620:	8ca50070 	lw	a1,112(a1)
    5624:	10a0ffe5 	beqz	a1,0x55bc
    5628:	00a02021 	move	a0,a1
    562c:	3c050800 	lui	a1,0x800
    5630:	8ca50068 	lw	a1,104(a1)
    5634:	3c060800 	lui	a2,0x800
    5638:	8cc6006c 	lw	a2,108(a2)
    563c:	0e001483 	jal	0x800520c
    5640:	00000000 	nop
    5644:	3c010800 	lui	at,0x800
    5648:	ac200070 	sw	zero,112(at)
    564c:	3c198000 	lui	t9,0x8000
    5650:	8f380000 	lw	t8,0(t9)
    5654:	3b0f0001 	xori	t7,t8,0x1
    5658:	31e20001 	andi	v0,t7,0x1
    565c:	1440ffdd 	bnez	v0,0x55d4
    5660:	8f860084 	lw	a2,132(gp)
    5664:	8e0c0000 	lw	t4,0(s0)
    5668:	8f8d0084 	lw	t5,132(gp)
    566c:	3c070800 	lui	a3,0x800
    5670:	8ce7003c 	lw	a3,60(a3)
    5674:	3c060800 	lui	a2,0x800
    5678:	8cc60038 	lw	a2,56(a2)
    567c:	018d5823 	subu	t3,t4,t5
    5680:	00eb2821 	addu	a1,a3,t3
    5684:	00ab202b 	sltu	a0,a1,t3
    5688:	00c24821 	addu	t1,a2,v0
    568c:	01241021 	addu	v0,t1,a0
    5690:	3c010800 	lui	at,0x800
    5694:	ac25003c 	sw	a1,60(at)
    5698:	3c088000 	lui	t0,0x8000
    569c:	3c010800 	lui	at,0x800
    56a0:	ac220038 	sw	v0,56(at)
    56a4:	8d030100 	lw	v1,256(t0)
    56a8:	241f0c00 	li	ra,3072
    56ac:	107f0026 	beq	v1,ra,0x5748
    56b0:	00000000 	nop
    56b4:	8d180100 	lw	t8,256(t0)
    56b8:	240e0020 	li	t6,32
    56bc:	ad180020 	sw	t8,32(t0)
    56c0:	92af0000 	lbu	t7,0(s5)
    56c4:	31e300ff 	andi	v1,t7,0xff
    56c8:	106e0023 	beq	v1,t6,0x5758
    56cc:	24190050 	li	t9,80
    56d0:	10790026 	beq	v1,t9,0x576c
    56d4:	00000000 	nop
    56d8:	3c048000 	lui	a0,0x8000
    56dc:	8c880100 	lw	t0,256(a0)
    56e0:	15000003 	bnez	t0,0x56f0
    56e4:	00000000 	nop
    56e8:	56600014 	bnezl	s3,0x573c
    56ec:	3c044000 	lui	a0,0x4000
    56f0:	8c990100 	lw	t9,256(a0)
    56f4:	8c8f0100 	lw	t7,256(a0)
    56f8:	00009821 	move	s3,zero
    56fc:	0331c024 	and	t8,t9,s1
    5700:	00186940 	sll	t5,t8,0x5
    5704:	31ee007f 	andi	t6,t7,0x7f
    5708:	01ae6025 	or	t4,t5,t6
    570c:	01925825 	or	t3,t4,s2
    5710:	ac8b0830 	sw	t3,2096(a0)
    5714:	8c870100 	lw	a3,256(a0)
    5718:	8c890100 	lw	t1,256(a0)
    571c:	24ea0100 	addiu	t2,a3,256
    5720:	01513024 	and	a2,t2,s1
    5724:	00062940 	sll	a1,a2,0x5
    5728:	3123007f 	andi	v1,t1,0x7f
    572c:	00a31025 	or	v0,a1,v1
    5730:	0052f825 	or	ra,v0,s2
    5734:	ac9f0830 	sw	ra,2096(a0)
    5738:	3c044000 	lui	a0,0x4000
    573c:	ae840138 	sw	a0,312(s4)
    5740:	0a00027d 	j	0x80009f4
    5744:	00000000 	nop
    5748:	0e0001da 	jal	0x8000768
    574c:	00000000 	nop
    5750:	0a0002c7 	j	0x8000b1c
    5754:	3c048000 	lui	a0,0x8000
    5758:	8d040100 	lw	a0,256(t0)
    575c:	0e00077f 	jal	0x8001dfc
    5760:	00000000 	nop
    5764:	0a0002c7 	j	0x8000b1c
    5768:	3c048000 	lui	a0,0x8000
    576c:	8d040100 	lw	a0,256(t0)
    5770:	0e00139b 	jal	0x8004e6c
    5774:	00000000 	nop
    5778:	0a0002c7 	j	0x8000b1c
    577c:	3c048000 	lui	a0,0x8000
    5780:	00a4102b 	sltu	v0,a1,a0
    5784:	24030001 	li	v1,1
    5788:	10400009 	beqz	v0,0x57b0
    578c:	00003021 	move	a2,zero
    5790:	00052840 	sll	a1,a1,0x1
    5794:	00a4102b 	sltu	v0,a1,a0
    5798:	04a00003 	bltz	a1,0x57a8
    579c:	00031840 	sll	v1,v1,0x1
    57a0:	5440fffc 	bnezl	v0,0x5794
    57a4:	00052840 	sll	a1,a1,0x1
    57a8:	5060000a 	beqzl	v1,0x57d4
    57ac:	0004182b 	sltu	v1,zero,a0
    57b0:	0085382b 	sltu	a3,a0,a1
    57b4:	54e00004 	bnezl	a3,0x57c8
    57b8:	00031842 	srl	v1,v1,0x1
    57bc:	00c33025 	or	a2,a2,v1
    57c0:	00852023 	subu	a0,a0,a1
    57c4:	00031842 	srl	v1,v1,0x1
    57c8:	1460fff9 	bnez	v1,0x57b0
    57cc:	00052842 	srl	a1,a1,0x1
    57d0:	0004182b 	sltu	v1,zero,a0
    57d4:	03e00008 	jr	ra
    57d8:	00c31021 	addu	v0,a2,v1
    57dc:	3084ffff 	andi	a0,a0,0xffff
    57e0:	30c600ff 	andi	a2,a2,0xff
    57e4:	3c078000 	lui	a3,0x8000
    57e8:	8ce201b8 	lw	v0,440(a3)
    57ec:	0440fffe 	bltz	v0,0x57e8
    57f0:	00064c00 	sll	t1,a2,0x10
    57f4:	01243025 	or	a2,t1,a0
    57f8:	3c082000 	lui	t0,0x2000
    57fc:	00c82025 	or	a0,a2,t0
    5800:	3c031000 	lui	v1,0x1000
    5804:	ace00180 	sw	zero,384(a3)
    5808:	ace50184 	sw	a1,388(a3)
    580c:	ace40188 	sw	a0,392(a3)
    5810:	03e00008 	jr	ra
    5814:	ace301b8 	sw	v1,440(a3)
    5818:	3c066000 	lui	a2,0x6000
    581c:	8cc5201c 	lw	a1,8220(a2)
    5820:	2402fff0 	li	v0,-16
    5824:	30830200 	andi	v1,a0,0x200
    5828:	30860100 	andi	a2,a0,0x100
    582c:	1060000e 	beqz	v1,0x5868
    5830:	00a22824 	and	a1,a1,v0
    5834:	34a50001 	ori	a1,a1,0x1
    5838:	30873000 	andi	a3,a0,0x3000
    583c:	10e00005 	beqz	a3,0x5854
    5840:	30830c00 	andi	v1,a0,0xc00
    5844:	34a50004 	ori	a1,a1,0x4
    5848:	3c046000 	lui	a0,0x6000
    584c:	03e00008 	jr	ra
    5850:	ac85201c 	sw	a1,8220(a0)
    5854:	1060fffd 	beqz	v1,0x584c
    5858:	3c046000 	lui	a0,0x6000
    585c:	34a50008 	ori	a1,a1,0x8
    5860:	03e00008 	jr	ra
    5864:	ac85201c 	sw	a1,8220(a0)
    5868:	54c0fff3 	bnezl	a2,0x5838
    586c:	34a50002 	ori	a1,a1,0x2
    5870:	0a00031f 	j	0x8000c7c
    5874:	30873000 	andi	a3,a0,0x3000
    5878:	27bdffe8 	addiu	sp,sp,-24
    587c:	afb00010 	sw	s0,16(sp)
    5880:	afbf0014 	sw	ra,20(sp)
    5884:	3c076000 	lui	a3,0x6000
    5888:	24060002 	li	a2,2
    588c:	10800011 	beqz	a0,0x58d4
    5890:	00a08021 	move	s0,a1
    5894:	8f83003c 	lw	v1,60(gp)
    5898:	0e000316 	jal	0x8000c58
    589c:	8c640018 	lw	a0,24(v1)
    58a0:	8f82003c 	lw	v0,60(gp)
    58a4:	00002021 	move	a0,zero
    58a8:	24060001 	li	a2,1
    58ac:	8c45000c 	lw	a1,12(v0)
    58b0:	0e000307 	jal	0x8000c1c
    58b4:	00000000 	nop
    58b8:	16000002 	bnez	s0,0x58c4
    58bc:	24020003 	li	v0,3
    58c0:	00001021 	move	v0,zero
    58c4:	8fbf0014 	lw	ra,20(sp)
    58c8:	8fb00010 	lw	s0,16(sp)
    58cc:	03e00008 	jr	ra
    58d0:	27bd0018 	addiu	sp,sp,24
    58d4:	8ce8201c 	lw	t0,8220(a3)
    58d8:	2409fff0 	li	t1,-16
    58dc:	01092824 	and	a1,t0,t1
    58e0:	ace5201c 	sw	a1,8220(a3)
    58e4:	8f87003c 	lw	a3,60(gp)
    58e8:	0a00033c 	j	0x8000cf0
    58ec:	8ce5000c 	lw	a1,12(a3)
    58f0:	3c02600e 	lui	v0,0x600e
    58f4:	00804021 	move	t0,a0
    58f8:	34460100 	ori	a2,v0,0x100
    58fc:	24090018 	li	t1,24
	...
    590c:	3c0a0050 	lui	t2,0x50
    5910:	3c038000 	lui	v1,0x8000
    5914:	35470200 	ori	a3,t2,0x200
    5918:	ac680038 	sw	t0,56(v1)
    591c:	34640400 	ori	a0,v1,0x400
    5920:	ac65003c 	sw	a1,60(v1)
    5924:	ac670030 	sw	a3,48(v1)
    5928:	8c6c0000 	lw	t4,0(v1)
    592c:	318b0020 	andi	t3,t4,0x20
    5930:	1160fffd 	beqz	t3,0x5928
    5934:	2407ffff 	li	a3,-1
    5938:	2403007f 	li	v1,127
    593c:	8c8d0000 	lw	t5,0(a0)
    5940:	2463ffff 	addiu	v1,v1,-1
    5944:	24840004 	addiu	a0,a0,4
    5948:	accd0000 	sw	t5,0(a2)
    594c:	1467fffb 	bne	v1,a3,0x593c
    5950:	24c60004 	addiu	a2,a2,4
	...
    5960:	24a40200 	addiu	a0,a1,512
    5964:	0085282b 	sltu	a1,a0,a1
    5968:	3c030020 	lui	v1,0x20
    596c:	3c0e8000 	lui	t6,0x8000
    5970:	2529ffff 	addiu	t1,t1,-1
    5974:	01054021 	addu	t0,t0,a1
    5978:	adc30030 	sw	v1,48(t6)
    597c:	1520ffe0 	bnez	t1,0x5900
    5980:	00802821 	move	a1,a0
    5984:	03e00008 	jr	ra
    5988:	00000000 	nop
    598c:	8f82003c 	lw	v0,60(gp)
    5990:	27bdffd8 	addiu	sp,sp,-40
    5994:	afb3001c 	sw	s3,28(sp)
    5998:	afbf0020 	sw	ra,32(sp)
    599c:	afb20018 	sw	s2,24(sp)
    59a0:	afb10014 	sw	s1,20(sp)
    59a4:	afb00010 	sw	s0,16(sp)
    59a8:	94460002 	lhu	a2,2(v0)
    59ac:	00809821 	move	s3,a0
    59b0:	8c520018 	lw	s2,24(v0)
    59b4:	2cc30081 	sltiu	v1,a2,129
    59b8:	8c480004 	lw	t0,4(v0)
    59bc:	8c470008 	lw	a3,8(v0)
    59c0:	8c51000c 	lw	s1,12(v0)
    59c4:	8c490010 	lw	t1,16(v0)
    59c8:	10600007 	beqz	v1,0x59e8
    59cc:	8c4a0014 	lw	t2,20(v0)
    59d0:	2cc40004 	sltiu	a0,a2,4
    59d4:	14800013 	bnez	a0,0x5a24
    59d8:	30eb0007 	andi	t3,a3,0x7
    59dc:	30c50003 	andi	a1,a2,0x3
    59e0:	10a00010 	beqz	a1,0x5a24
    59e4:	00000000 	nop
    59e8:	2410008b 	li	s0,139
    59ec:	02002021 	move	a0,s0
    59f0:	02202821 	move	a1,s1
    59f4:	0e000307 	jal	0x8000c1c
    59f8:	24060003 	li	a2,3
    59fc:	16600002 	bnez	s3,0x5a08
    5a00:	24020003 	li	v0,3
    5a04:	00001021 	move	v0,zero
    5a08:	8fbf0020 	lw	ra,32(sp)
    5a0c:	8fb3001c 	lw	s3,28(sp)
    5a10:	8fb20018 	lw	s2,24(sp)
    5a14:	8fb10014 	lw	s1,20(sp)
    5a18:	8fb00010 	lw	s0,16(sp)
    5a1c:	03e00008 	jr	ra
    5a20:	27bd0028 	addiu	sp,sp,40
    5a24:	1560fff1 	bnez	t3,0x59ec
    5a28:	2410008b 	li	s0,139
    5a2c:	3c0c8000 	lui	t4,0x8000
    5a30:	3c030020 	lui	v1,0x20
    5a34:	241f0001 	li	ra,1
    5a38:	ad830030 	sw	v1,48(t4)
    5a3c:	af9f0030 	sw	ra,48(gp)
	...
    5a4c:	2419fff0 	li	t9,-16
    5a50:	24d8000f 	addiu	t8,a2,15
    5a54:	03197824 	and	t7,t8,t9
    5a58:	3c1000d0 	lui	s0,0xd0
    5a5c:	ad880038 	sw	t0,56(t4)
    5a60:	01f07025 	or	t6,t7,s0
    5a64:	24cd0003 	addiu	t5,a2,3
    5a68:	3c08600e 	lui	t0,0x600e
    5a6c:	ad87003c 	sw	a3,60(t4)
    5a70:	35850400 	ori	a1,t4,0x400
    5a74:	ad8e0030 	sw	t6,48(t4)
    5a78:	000d3882 	srl	a3,t5,0x2
    5a7c:	3504003c 	ori	a0,t0,0x3c
    5a80:	3c038000 	lui	v1,0x8000
    5a84:	8c6b0000 	lw	t3,0(v1)
    5a88:	31620020 	andi	v0,t3,0x20
    5a8c:	1040fffd 	beqz	v0,0x5a84
    5a90:	00000000 	nop
    5a94:	10e00008 	beqz	a3,0x5ab8
    5a98:	24e3ffff 	addiu	v1,a3,-1
    5a9c:	2407ffff 	li	a3,-1
    5aa0:	8ca80000 	lw	t0,0(a1)
    5aa4:	2463ffff 	addiu	v1,v1,-1
    5aa8:	24a50004 	addiu	a1,a1,4
    5aac:	ac880000 	sw	t0,0(a0)
    5ab0:	1467fffb 	bne	v1,a3,0x5aa0
    5ab4:	24840004 	addiu	a0,a0,4
    5ab8:	3c04600e 	lui	a0,0x600e
    5abc:	ac860038 	sw	a2,56(a0)
	...
    5acc:	3c070020 	lui	a3,0x20
    5ad0:	3c068000 	lui	a2,0x8000
    5ad4:	01202021 	move	a0,t1
    5ad8:	01402821 	move	a1,t2
    5adc:	acc70030 	sw	a3,48(a2)
    5ae0:	0e00034c 	jal	0x8000d30
    5ae4:	00008021 	move	s0,zero
    5ae8:	0e000316 	jal	0x8000c58
    5aec:	02402021 	move	a0,s2
    5af0:	0a00038c 	j	0x8000e30
    5af4:	02002021 	move	a0,s0
    5af8:	27bdffd8 	addiu	sp,sp,-40
    5afc:	afb20018 	sw	s2,24(sp)
    5b00:	3092ffff 	andi	s2,a0,0xffff
    5b04:	afb10014 	sw	s1,20(sp)
    5b08:	afbf0020 	sw	ra,32(sp)
    5b0c:	afb3001c 	sw	s3,28(sp)
    5b10:	afb00010 	sw	s0,16(sp)
    5b14:	1240002d 	beqz	s2,0x5bcc
    5b18:	00008821 	move	s1,zero
    5b1c:	0a0003e2 	j	0x8000f88
    5b20:	24130003 	li	s3,3
    5b24:	50b30042 	beql	a1,s3,0x5c30
    5b28:	8ce5000c 	lw	a1,12(a3)
    5b2c:	0000000d 	break
    5b30:	26390001 	addiu	t9,s1,1
    5b34:	3331ffff 	andi	s1,t9,0xffff
    5b38:	24f80020 	addiu	t8,a3,32
    5b3c:	0232382b 	sltu	a3,s1,s2
    5b40:	10e00022 	beqz	a3,0x5bcc
    5b44:	af98003c 	sw	t8,60(gp)
    5b48:	8f820030 	lw	v0,48(gp)
    5b4c:	1440001f 	bnez	v0,0x5bcc
    5b50:	8f87003c 	lw	a3,60(gp)
    5b54:	3c067000 	lui	a2,0x7000
    5b58:	3c032000 	lui	v1,0x2000
    5b5c:	8ce40000 	lw	a0,0(a3)
    5b60:	00862824 	and	a1,a0,a2
    5b64:	14a30019 	bne	a1,v1,0x5bcc
    5b68:	8f850044 	lw	a1,68(gp)
    5b6c:	00044402 	srl	t0,a0,0x10
    5b70:	3c098000 	lui	t1,0x8000
    5b74:	00898024 	and	s0,a0,t1
    5b78:	14a0ffea 	bnez	a1,0x5b24
    5b7c:	310600ff 	andi	a2,t0,0xff
    5b80:	240a0002 	li	t2,2
    5b84:	10ca0030 	beq	a2,t2,0x5c48
    5b88:	28cb0003 	slti	t3,a2,3
    5b8c:	11600017 	beqz	t3,0x5bec
    5b90:	00000000 	nop
    5b94:	24040001 	li	a0,1
    5b98:	14c4ffe6 	bne	a2,a0,0x5b34
    5b9c:	26390001 	addiu	t9,s1,1
    5ba0:	02002821 	move	a1,s0
    5ba4:	0e00032e 	jal	0x8000cb8
    5ba8:	24040001 	li	a0,1
    5bac:	8f87003c 	lw	a3,60(gp)
    5bb0:	af820044 	sw	v0,68(gp)
    5bb4:	26390001 	addiu	t9,s1,1
    5bb8:	3331ffff 	andi	s1,t9,0xffff
    5bbc:	24f80020 	addiu	t8,a3,32
    5bc0:	0232382b 	sltu	a3,s1,s2
    5bc4:	14e0ffe0 	bnez	a3,0x5b48
    5bc8:	af98003c 	sw	t8,60(gp)
    5bcc:	02201021 	move	v0,s1
    5bd0:	8fbf0020 	lw	ra,32(sp)
    5bd4:	8fb3001c 	lw	s3,28(sp)
    5bd8:	8fb20018 	lw	s2,24(sp)
    5bdc:	8fb10014 	lw	s1,20(sp)
    5be0:	8fb00010 	lw	s0,16(sp)
    5be4:	03e00008 	jr	ra
    5be8:	27bd0028 	addiu	sp,sp,40
    5bec:	10d3001b 	beq	a2,s3,0x5c5c
    5bf0:	240c0004 	li	t4,4
    5bf4:	14ccffcf 	bne	a2,t4,0x5b34
    5bf8:	26390001 	addiu	t9,s1,1
    5bfc:	308dffff 	andi	t5,a0,0xffff
    5c00:	000d19c0 	sll	v1,t5,0x7
    5c04:	3c048000 	lui	a0,0x8000
    5c08:	8c8e01b8 	lw	t6,440(a0)
    5c0c:	05c0fffe 	bltz	t6,0x5c08
    5c10:	3c0f1000 	lui	t7,0x1000
    5c14:	3c102004 	lui	s0,0x2004
    5c18:	ac830180 	sw	v1,384(a0)
    5c1c:	ac800184 	sw	zero,388(a0)
    5c20:	ac900188 	sw	s0,392(a0)
    5c24:	ac8f01b8 	sw	t7,440(a0)
    5c28:	0a0003dd 	j	0x8000f74
    5c2c:	26390001 	addiu	t9,s1,1
    5c30:	0e000307 	jal	0x8000c1c
    5c34:	24040084 	li	a0,132
    5c38:	1600ffbd 	bnez	s0,0x5b30
    5c3c:	8f87003c 	lw	a3,60(gp)
    5c40:	0a0003dc 	j	0x8000f70
    5c44:	af800044 	sw	zero,68(gp)
    5c48:	02002821 	move	a1,s0
    5c4c:	0e00032e 	jal	0x8000cb8
    5c50:	00002021 	move	a0,zero
    5c54:	0a0003fc 	j	0x8000ff0
    5c58:	8f87003c 	lw	a3,60(gp)
    5c5c:	0e000373 	jal	0x8000dcc
    5c60:	02002021 	move	a0,s0
    5c64:	8f87003c 	lw	a3,60(gp)
    5c68:	0a0003fd 	j	0x8000ff4
    5c6c:	af820044 	sw	v0,68(gp)
    5c70:	000449c2 	srl	t1,a0,0x7
    5c74:	3127003f 	andi	a3,t1,0x3f
    5c78:	00044342 	srl	t0,a0,0xd
    5c7c:	3c028000 	lui	v0,0x8000
    5c80:	00082040 	sll	a0,t0,0x1
    5c84:	24031680 	li	v1,5760
    5c88:	2ce60020 	sltiu	a2,a3,32
    5c8c:	ac43002c 	sw	v1,44(v0)
    5c90:	24eaffe0 	addiu	t2,a3,-32
    5c94:	24820001 	addiu	v0,a0,1
    5c98:	14c00003 	bnez	a2,0x5ca8
    5c9c:	30a900ff 	andi	t1,a1,0xff
    5ca0:	00801021 	move	v0,a0
    5ca4:	314700ff 	andi	a3,t2,0xff
    5ca8:	00026080 	sll	t4,v0,0x2
    5cac:	3c0d8000 	lui	t5,0x8000
    5cb0:	240a0001 	li	t2,1
    5cb4:	018d2021 	addu	a0,t4,t5
    5cb8:	3c0b000e 	lui	t3,0xe
    5cbc:	00ea2804 	sllv	a1,t2,a3
    5cc0:	008b3021 	addu	a2,a0,t3
    5cc4:	11200005 	beqz	t1,0x5cdc
    5cc8:	00053827 	nor	a3,zero,a1
    5ccc:	8cce0000 	lw	t6,0(a2)
    5cd0:	01c53825 	or	a3,t6,a1
    5cd4:	03e00008 	jr	ra
    5cd8:	acc70000 	sw	a3,0(a2)
    5cdc:	8cd80000 	lw	t8,0(a2)
    5ce0:	03077824 	and	t7,t8,a3
    5ce4:	03e00008 	jr	ra
    5ce8:	accf0000 	sw	t7,0(a2)
    5cec:	27bdffe0 	addiu	sp,sp,-32
    5cf0:	afb10014 	sw	s1,20(sp)
    5cf4:	afb00010 	sw	s0,16(sp)
    5cf8:	afbf0018 	sw	ra,24(sp)
    5cfc:	3c076000 	lui	a3,0x6000
    5d00:	8ce40808 	lw	a0,2056(a3)
    5d04:	3402f000 	li	v0,0xf000
    5d08:	3c116000 	lui	s1,0x6000
    5d0c:	3083f000 	andi	v1,a0,0xf000
    5d10:	240501c0 	li	a1,448
    5d14:	3c04800e 	lui	a0,0x800e
    5d18:	00003021 	move	a2,zero
    5d1c:	10620006 	beq	v1,v0,0x5d38
    5d20:	24100001 	li	s0,1
    5d24:	8cea0808 	lw	t2,2056(a3)
    5d28:	3149f000 	andi	t1,t2,0xf000
    5d2c:	3928e000 	xori	t0,t1,0xe000
    5d30:	0008382b 	sltu	a3,zero,t0
    5d34:	00078040 	sll	s0,a3,0x1
    5d38:	3c0d0200 	lui	t5,0x200
    5d3c:	ae2d0814 	sw	t5,2068(s1)
    5d40:	240c1680 	li	t4,5760
    5d44:	3c0b8000 	lui	t3,0x8000
    5d48:	8e274400 	lw	a3,17408(s1)
    5d4c:	0e000e26 	jal	0x8003898
    5d50:	ad6c002c 	sw	t4,44(t3)
    5d54:	12000004 	beqz	s0,0x5d68
    5d58:	3c021691 	lui	v0,0x1691
    5d5c:	24050001 	li	a1,1
    5d60:	12050010 	beq	s0,a1,0x5da4
    5d64:	3c023d6c 	lui	v0,0x3d6c
    5d68:	345800e0 	ori	t8,v0,0xe0
    5d6c:	ae384408 	sw	t8,17416(s1)
    5d70:	3c110800 	lui	s1,0x800
    5d74:	8e31007c 	lw	s1,124(s1)
    5d78:	8fbf0018 	lw	ra,24(sp)
    5d7c:	3c066000 	lui	a2,0x6000
    5d80:	00118540 	sll	s0,s1,0x15
    5d84:	360f1680 	ori	t7,s0,0x1680
    5d88:	8fb10014 	lw	s1,20(sp)
    5d8c:	8fb00010 	lw	s0,16(sp)
    5d90:	3c0e0200 	lui	t6,0x200
    5d94:	27bd0020 	addiu	sp,sp,32
    5d98:	accf4420 	sw	t7,17440(a2)
    5d9c:	03e00008 	jr	ra
    5da0:	acce0810 	sw	t6,2064(a2)
    5da4:	3c0218da 	lui	v0,0x18da
    5da8:	345800e0 	ori	t8,v0,0xe0
    5dac:	ae384408 	sw	t8,17416(s1)
    5db0:	3c110800 	lui	s1,0x800
    5db4:	8e31007c 	lw	s1,124(s1)
    5db8:	8fbf0018 	lw	ra,24(sp)
    5dbc:	3c066000 	lui	a2,0x6000
    5dc0:	00118540 	sll	s0,s1,0x15
    5dc4:	360f1680 	ori	t7,s0,0x1680
    5dc8:	8fb10014 	lw	s1,20(sp)
    5dcc:	8fb00010 	lw	s0,16(sp)
    5dd0:	3c0e0200 	lui	t6,0x200
    5dd4:	27bd0020 	addiu	sp,sp,32
    5dd8:	accf4420 	sw	t7,17440(a2)
    5ddc:	03e00008 	jr	ra
    5de0:	acce0810 	sw	t6,2064(a2)
    5de4:	0a00042c 	j	0x80010b0
    5de8:	24050001 	li	a1,1
    5dec:	0a00042c 	j	0x80010b0
    5df0:	00002821 	move	a1,zero
    5df4:	24020400 	li	v0,1024
    5df8:	a782000c 	sh	v0,12(gp)
    5dfc:	a7800004 	sh	zero,4(gp)
    5e00:	00002021 	move	a0,zero
    5e04:	3c060800 	lui	a2,0x800
    5e08:	24c65658 	addiu	a2,a2,22104
    5e0c:	2405ffff 	li	a1,-1
    5e10:	24890001 	addiu	t1,a0,1
    5e14:	00044080 	sll	t0,a0,0x2
    5e18:	3124ffff 	andi	a0,t1,0xffff
    5e1c:	01061821 	addu	v1,t0,a2
    5e20:	2c870020 	sltiu	a3,a0,32
    5e24:	14e0fffa 	bnez	a3,0x5e10
    5e28:	ac650000 	sw	a1,0(v1)
    5e2c:	24040400 	li	a0,1024
    5e30:	a784000e 	sh	a0,14(gp)
    5e34:	a7800006 	sh	zero,6(gp)
    5e38:	00002021 	move	a0,zero
    5e3c:	3c060800 	lui	a2,0x800
    5e40:	24c656d8 	addiu	a2,a2,22232
    5e44:	2405ffff 	li	a1,-1
    5e48:	248d0001 	addiu	t5,a0,1
    5e4c:	00046080 	sll	t4,a0,0x2
    5e50:	31a4ffff 	andi	a0,t5,0xffff
    5e54:	01865821 	addu	t3,t4,a2
    5e58:	2c8a0020 	sltiu	t2,a0,32
    5e5c:	1540fffa 	bnez	t2,0x5e48
    5e60:	ad650000 	sw	a1,0(t3)
    5e64:	a7800010 	sh	zero,16(gp)
    5e68:	a7800008 	sh	zero,8(gp)
    5e6c:	a780000a 	sh	zero,10(gp)
    5e70:	00002021 	move	a0,zero
    5e74:	3c060800 	lui	a2,0x800
    5e78:	24c65758 	addiu	a2,a2,22360
    5e7c:	2405ffff 	li	a1,-1
    5e80:	24990001 	addiu	t9,a0,1
    5e84:	0004c080 	sll	t8,a0,0x2
    5e88:	3324ffff 	andi	a0,t9,0xffff
    5e8c:	03067821 	addu	t7,t8,a2
    5e90:	2c8e0004 	sltiu	t6,a0,4
    5e94:	15c0fffa 	bnez	t6,0x5e80
    5e98:	ade50000 	sw	a1,0(t7)
    5e9c:	3c056000 	lui	a1,0x6000
    5ea0:	8ca73d00 	lw	a3,15616(a1)
    5ea4:	2403e08f 	li	v1,-8049
    5ea8:	00e31024 	and	v0,a3,v1
    5eac:	34460140 	ori	a2,v0,0x140
    5eb0:	03e00008 	jr	ra
    5eb4:	aca63d00 	sw	a2,15616(a1)
    5eb8:	2487007f 	addiu	a3,a0,127
    5ebc:	000731c2 	srl	a2,a3,0x7
    5ec0:	24c5ffff 	addiu	a1,a2,-1
    5ec4:	000518c2 	srl	v1,a1,0x3
    5ec8:	24640001 	addiu	a0,v1,1
    5ecc:	3082ffff 	andi	v0,a0,0xffff
    5ed0:	000238c0 	sll	a3,v0,0x3
    5ed4:	a7840018 	sh	a0,24(gp)
    5ed8:	3c010800 	lui	at,0x800
    5edc:	ac270030 	sw	a3,48(at)
    5ee0:	af800014 	sw	zero,20(gp)
    5ee4:	00002821 	move	a1,zero
    5ee8:	00002021 	move	a0,zero
    5eec:	00003021 	move	a2,zero
    5ef0:	24890001 	addiu	t1,a0,1
    5ef4:	00a72821 	addu	a1,a1,a3
    5ef8:	3124ffff 	andi	a0,t1,0xffff
    5efc:	2ca81701 	sltiu	t0,a1,5889
    5f00:	11000003 	beqz	t0,0x5f10
    5f04:	2c830080 	sltiu	v1,a0,128
    5f08:	1460fff9 	bnez	v1,0x5ef0
    5f0c:	24c60001 	addiu	a2,a2,1
    5f10:	00c02821 	move	a1,a2
    5f14:	af860014 	sw	a2,20(gp)
    5f18:	10c0001d 	beqz	a2,0x5f90
    5f1c:	a7860012 	sh	a2,18(gp)
    5f20:	24caffff 	addiu	t2,a2,-1
    5f24:	000a1142 	srl	v0,t2,0x5
    5f28:	3c080800 	lui	t0,0x800
    5f2c:	25085758 	addiu	t0,t0,22360
    5f30:	1040000a 	beqz	v0,0x5f5c
    5f34:	00002021 	move	a0,zero
    5f38:	00403021 	move	a2,v0
    5f3c:	2407ffff 	li	a3,-1
    5f40:	248e0001 	addiu	t6,a0,1
    5f44:	00046880 	sll	t5,a0,0x2
    5f48:	31c4ffff 	andi	a0,t6,0xffff
    5f4c:	01a86021 	addu	t4,t5,t0
    5f50:	0086582b 	sltu	t3,a0,a2
    5f54:	1560fffa 	bnez	t3,0x5f40
    5f58:	ad870000 	sw	a3,0(t4)
    5f5c:	30a2001f 	andi	v0,a1,0x1f
    5f60:	50400008 	beqzl	v0,0x5f84
    5f64:	00043080 	sll	a2,a0,0x2
    5f68:	24030001 	li	v1,1
    5f6c:	0043c804 	sllv	t9,v1,v0
    5f70:	00041080 	sll	v0,a0,0x2
    5f74:	00487821 	addu	t7,v0,t0
    5f78:	2738ffff 	addiu	t8,t9,-1
    5f7c:	03e00008 	jr	ra
    5f80:	adf80000 	sw	t8,0(t7)
    5f84:	00c82021 	addu	a0,a2,t0
    5f88:	2405ffff 	li	a1,-1
    5f8c:	ac850000 	sw	a1,0(a0)
    5f90:	03e00008 	jr	ra
    5f94:	00000000 	nop
    5f98:	30a5ffff 	andi	a1,a1,0xffff
    5f9c:	30c6ffff 	andi	a2,a2,0xffff
    5fa0:	30a8001f 	andi	t0,a1,0x1f
    5fa4:	00806021 	move	t4,a0
    5fa8:	30e700ff 	andi	a3,a3,0xff
    5fac:	00052942 	srl	a1,a1,0x5
    5fb0:	00005021 	move	t2,zero
    5fb4:	10c0001d 	beqz	a2,0x602c
    5fb8:	24090001 	li	t1,1
    5fbc:	240b0001 	li	t3,1
    5fc0:	25180001 	addiu	t8,t0,1
    5fc4:	010b2004 	sllv	a0,t3,t0
    5fc8:	330800ff 	andi	t0,t8,0xff
    5fcc:	01267826 	xor	t7,t1,a2
    5fd0:	390e0020 	xori	t6,t0,0x20
    5fd4:	2ded0001 	sltiu	t5,t7,1
    5fd8:	2dc20001 	sltiu	v0,t6,1
    5fdc:	01a21825 	or	v1,t5,v0
    5fe0:	1060000d 	beqz	v1,0x6018
    5fe4:	01445025 	or	t2,t2,a0
    5fe8:	0005c880 	sll	t9,a1,0x2
    5fec:	032c4021 	addu	t0,t9,t4
    5ff0:	01001821 	move	v1,t0
    5ff4:	10e0000f 	beqz	a3,0x6034
    5ff8:	000a2027 	nor	a0,zero,t2
    5ffc:	8d040000 	lw	a0,0(t0)
    6000:	008a1825 	or	v1,a0,t2
    6004:	ad030000 	sw	v1,0(t0)
    6008:	24ad0001 	addiu	t5,a1,1
    600c:	00004021 	move	t0,zero
    6010:	00005021 	move	t2,zero
    6014:	31a5ffff 	andi	a1,t5,0xffff
    6018:	252e0001 	addiu	t6,t1,1
    601c:	31c9ffff 	andi	t1,t6,0xffff
    6020:	00c9102b 	sltu	v0,a2,t1
    6024:	1040ffe7 	beqz	v0,0x5fc4
    6028:	25180001 	addiu	t8,t0,1
    602c:	03e00008 	jr	ra
    6030:	00000000 	nop
    6034:	8d0a0000 	lw	t2,0(t0)
    6038:	01444024 	and	t0,t2,a0
    603c:	0a000512 	j	0x8001448
    6040:	ac680000 	sw	t0,0(v1)
    6044:	27bdffe8 	addiu	sp,sp,-24
    6048:	30a5ffff 	andi	a1,a1,0xffff
    604c:	30c6ffff 	andi	a2,a2,0xffff
    6050:	afb00010 	sw	s0,16(sp)
    6054:	afbf0014 	sw	ra,20(sp)
    6058:	30e7ffff 	andi	a3,a3,0xffff
    605c:	00005021 	move	t2,zero
    6060:	3410ffff 	li	s0,0xffff
    6064:	00006021 	move	t4,zero
    6068:	24af001f 	addiu	t7,a1,31
    606c:	00c04821 	move	t1,a2
    6070:	24180001 	li	t8,1
    6074:	24190020 	li	t9,32
    6078:	05e00016 	bltz	t7,0x60d4
    607c:	01e01021 	move	v0,t7
    6080:	0002f943 	sra	ra,v0,0x5
    6084:	019f682a 	slt	t5,t4,ra
    6088:	0009702b 	sltu	t6,zero,t1
    608c:	01ae4024 	and	t0,t5,t6
    6090:	11000017 	beqz	t0,0x60f0
    6094:	000c1880 	sll	v1,t4,0x2
    6098:	00641021 	addu	v0,v1,a0
    609c:	10e00005 	beqz	a3,0x60b4
    60a0:	8c4b0000 	lw	t3,0(v0)
    60a4:	00f84004 	sllv	t0,t8,a3
    60a8:	00083823 	negu	a3,t0
    60ac:	01675824 	and	t3,t3,a3
    60b0:	00003821 	move	a3,zero
    60b4:	15400041 	bnez	t2,0x61bc
    60b8:	00004021 	move	t0,zero
    60bc:	55600016 	bnezl	t3,0x6118
    60c0:	3169ffff 	andi	t1,t3,0xffff
    60c4:	258b0001 	addiu	t3,t4,1
    60c8:	316cffff 	andi	t4,t3,0xffff
    60cc:	05e1ffec 	bgez	t7,0x6080
    60d0:	01e01021 	move	v0,t7
    60d4:	24a2003e 	addiu	v0,a1,62
    60d8:	0002f943 	sra	ra,v0,0x5
    60dc:	019f682a 	slt	t5,t4,ra
    60e0:	0009702b 	sltu	t6,zero,t1
    60e4:	01ae4024 	and	t0,t5,t6
    60e8:	1500ffeb 	bnez	t0,0x6098
    60ec:	000c1880 	sll	v1,t4,0x2
    60f0:	15460005 	bne	t2,a2,0x6108
    60f4:	3402ffff 	li	v0,0xffff
    60f8:	02002821 	move	a1,s0
    60fc:	0e0004f6 	jal	0x80013d8
    6100:	00003821 	move	a3,zero
    6104:	02001021 	move	v0,s0
    6108:	8fbf0014 	lw	ra,20(sp)
    610c:	8fb00010 	lw	s0,16(sp)
    6110:	03e00008 	jr	ra
    6114:	27bd0018 	addiu	sp,sp,24
    6118:	15200003 	bnez	t1,0x6128
    611c:	01601821 	move	v1,t3
    6120:	000b1c02 	srl	v1,t3,0x10
    6124:	24080010 	li	t0,16
    6128:	306a00ff 	andi	t2,v1,0xff
    612c:	15400005 	bnez	t2,0x6144
    6130:	306e000f 	andi	t6,v1,0xf
    6134:	250d0008 	addiu	t5,t0,8
    6138:	00031a02 	srl	v1,v1,0x8
    613c:	31a800ff 	andi	t0,t5,0xff
    6140:	306e000f 	andi	t6,v1,0xf
    6144:	15c00005 	bnez	t6,0x615c
    6148:	307f0003 	andi	ra,v1,0x3
    614c:	25100004 	addiu	s0,t0,4
    6150:	00031902 	srl	v1,v1,0x4
    6154:	320800ff 	andi	t0,s0,0xff
    6158:	307f0003 	andi	ra,v1,0x3
    615c:	17e00005 	bnez	ra,0x6174
    6160:	38690001 	xori	t1,v1,0x1
    6164:	25020002 	addiu	v0,t0,2
    6168:	00031882 	srl	v1,v1,0x2
    616c:	304800ff 	andi	t0,v0,0xff
    6170:	38690001 	xori	t1,v1,0x1
    6174:	31230001 	andi	v1,t1,0x1
    6178:	10600004 	beqz	v1,0x618c
    617c:	310300ff 	andi	v1,t0,0xff
    6180:	250a0001 	addiu	t2,t0,1
    6184:	314800ff 	andi	t0,t2,0xff
    6188:	310300ff 	andi	v1,t0,0xff
    618c:	000c6940 	sll	t5,t4,0x5
    6190:	01a34021 	addu	t0,t5,v1
    6194:	240a0001 	li	t2,1
    6198:	10caffd5 	beq	a2,t2,0x60f0
    619c:	3110ffff 	andi	s0,t0,0xffff
    61a0:	246e0001 	addiu	t6,v1,1
    61a4:	31c800ff 	andi	t0,t6,0xff
    61a8:	1119ffc6 	beq	t0,t9,0x60c4
    61ac:	38c90001 	xori	t1,a2,0x1
    61b0:	2d1f0020 	sltiu	ra,t0,32
    61b4:	53e0001c 	beqzl	ra,0x6228
    61b8:	258b0001 	addiu	t3,t4,1
    61bc:	240d0001 	li	t5,1
    61c0:	0a000589 	j	0x8001624
    61c4:	240e0020 	li	t6,32
    61c8:	51460017 	beql	t2,a2,0x6228
    61cc:	258b0001 	addiu	t3,t4,1
    61d0:	25090001 	addiu	t1,t0,1
    61d4:	312800ff 	andi	t0,t1,0xff
    61d8:	2d090020 	sltiu	t1,t0,32
    61dc:	51200012 	beqzl	t1,0x6228
    61e0:	258b0001 	addiu	t3,t4,1
    61e4:	25430001 	addiu	v1,t2,1
    61e8:	010d5004 	sllv	t2,t5,t0
    61ec:	014b1024 	and	v0,t2,t3
    61f0:	25090001 	addiu	t1,t0,1
    61f4:	1440fff4 	bnez	v0,0x61c8
    61f8:	306affff 	andi	t2,v1,0xffff
    61fc:	3127ffff 	andi	a3,t1,0xffff
    6200:	10ee000c 	beq	a3,t6,0x6234
    6204:	2582ffff 	addiu	v0,t4,-1
    6208:	304cffff 	andi	t4,v0,0xffff
    620c:	00005021 	move	t2,zero
    6210:	3410ffff 	li	s0,0xffff
    6214:	312800ff 	andi	t0,t1,0xff
    6218:	2d090020 	sltiu	t1,t0,32
    621c:	5520fff2 	bnezl	t1,0x61e8
    6220:	25430001 	addiu	v1,t2,1
    6224:	258b0001 	addiu	t3,t4,1
    6228:	01464826 	xor	t1,t2,a2
    622c:	0a000543 	j	0x800150c
    6230:	316cffff 	andi	t4,t3,0xffff
    6234:	00003821 	move	a3,zero
    6238:	00005021 	move	t2,zero
    623c:	0a000595 	j	0x8001654
    6240:	3410ffff 	li	s0,0xffff
    6244:	27bdffd8 	addiu	sp,sp,-40
    6248:	afb00010 	sw	s0,16(sp)
    624c:	30f0ffff 	andi	s0,a3,0xffff
    6250:	afb10014 	sw	s1,20(sp)
    6254:	00103942 	srl	a3,s0,0x5
    6258:	3211ffe0 	andi	s1,s0,0xffe0
    625c:	00071080 	sll	v0,a3,0x2
    6260:	afb3001c 	sw	s3,28(sp)
    6264:	00b12823 	subu	a1,a1,s1
    6268:	30d3ffff 	andi	s3,a2,0xffff
    626c:	afb20018 	sw	s2,24(sp)
    6270:	30a5ffff 	andi	a1,a1,0xffff
    6274:	00809021 	move	s2,a0
    6278:	02603021 	move	a2,s3
    627c:	00442021 	addu	a0,v0,a0
    6280:	afbf0020 	sw	ra,32(sp)
    6284:	0e000521 	jal	0x8001484
    6288:	3207001f 	andi	a3,s0,0x1f
    628c:	02228821 	addu	s1,s1,v0
    6290:	3403ffff 	li	v1,0xffff
    6294:	02402021 	move	a0,s2
    6298:	02002821 	move	a1,s0
    629c:	02603021 	move	a2,s3
    62a0:	00003821 	move	a3,zero
    62a4:	10430009 	beq	v0,v1,0x62cc
    62a8:	3231ffff 	andi	s1,s1,0xffff
    62ac:	02201021 	move	v0,s1
    62b0:	8fbf0020 	lw	ra,32(sp)
    62b4:	8fb3001c 	lw	s3,28(sp)
    62b8:	8fb20018 	lw	s2,24(sp)
    62bc:	8fb10014 	lw	s1,20(sp)
    62c0:	8fb00010 	lw	s0,16(sp)
    62c4:	03e00008 	jr	ra
    62c8:	27bd0028 	addiu	sp,sp,40
    62cc:	0e000521 	jal	0x8001484
    62d0:	00000000 	nop
    62d4:	00408821 	move	s1,v0
    62d8:	02201021 	move	v0,s1
    62dc:	8fbf0020 	lw	ra,32(sp)
    62e0:	8fb3001c 	lw	s3,28(sp)
    62e4:	8fb20018 	lw	s2,24(sp)
    62e8:	8fb10014 	lw	s1,20(sp)
    62ec:	8fb00010 	lw	s0,16(sp)
    62f0:	03e00008 	jr	ra
    62f4:	27bd0028 	addiu	sp,sp,40
    62f8:	00042400 	sll	a0,a0,0x10
    62fc:	3c036000 	lui	v1,0x6000
    6300:	ac603d08 	sw	zero,15624(v1)
    6304:	10a00002 	beqz	a1,0x6310
    6308:	34821006 	ori	v0,a0,0x1006
    630c:	34821016 	ori	v0,a0,0x1016
    6310:	03e00008 	jr	ra
    6314:	ac623d04 	sw	v0,15620(v1)
    6318:	27bdffe0 	addiu	sp,sp,-32
    631c:	afb00010 	sw	s0,16(sp)
    6320:	309000ff 	andi	s0,a0,0xff
    6324:	2e020006 	sltiu	v0,s0,6
    6328:	afbf0018 	sw	ra,24(sp)
    632c:	10400008 	beqz	v0,0x6350
    6330:	afb10014 	sw	s1,20(sp)
    6334:	00103080 	sll	a2,s0,0x2
    6338:	3c030800 	lui	v1,0x800
    633c:	246353b4 	addiu	v1,v1,21428
    6340:	00c32821 	addu	a1,a2,v1
    6344:	8ca40000 	lw	a0,0(a1)
    6348:	00800008 	jr	a0
    634c:	00000000 	nop
    6350:	00002021 	move	a0,zero
    6354:	8fbf0018 	lw	ra,24(sp)
    6358:	8fb10014 	lw	s1,20(sp)
    635c:	8fb00010 	lw	s0,16(sp)
    6360:	00801021 	move	v0,a0
    6364:	03e00008 	jr	ra
    6368:	27bd0020 	addiu	sp,sp,32
    636c:	97910012 	lhu	s1,18(gp)
    6370:	16200051 	bnez	s1,0x64b8
    6374:	00002021 	move	a0,zero
    6378:	3c020800 	lui	v0,0x800
    637c:	90420033 	lbu	v0,51(v0)
    6380:	0a0005fc 	j	0x80017f0
    6384:	00000000 	nop
    6388:	978d000e 	lhu	t5,14(gp)
    638c:	15a00031 	bnez	t5,0x6454
    6390:	00002021 	move	a0,zero
    6394:	0a0005fc 	j	0x80017f0
    6398:	24020008 	li	v0,8
    639c:	9787000c 	lhu	a3,12(gp)
    63a0:	14e0001a 	bnez	a3,0x640c
    63a4:	00001821 	move	v1,zero
    63a8:	00602021 	move	a0,v1
    63ac:	24020001 	li	v0,1
    63b0:	1080ffe9 	beqz	a0,0x6358
    63b4:	8fbf0018 	lw	ra,24(sp)
    63b8:	000429c2 	srl	a1,a0,0x7
    63bc:	00453021 	addu	a2,v0,a1
    63c0:	00a6582b 	sltu	t3,a1,a2
    63c4:	1160ffe4 	beqz	t3,0x6358
    63c8:	3c088000 	lui	t0,0x8000
    63cc:	3c072000 	lui	a3,0x2000
    63d0:	000569c0 	sll	t5,a1,0x7
    63d4:	01a76025 	or	t4,t5,a3
    63d8:	ad0c0020 	sw	t4,32(t0)
    63dc:	3c038008 	lui	v1,0x8008
    63e0:	2402001f 	li	v0,31
    63e4:	2442ffff 	addiu	v0,v0,-1
    63e8:	ac600000 	sw	zero,0(v1)
    63ec:	0441fffd 	bgez	v0,0x63e4
    63f0:	24630004 	addiu	v1,v1,4
    63f4:	24a50001 	addiu	a1,a1,1
    63f8:	00a6702b 	sltu	t6,a1,a2
    63fc:	15c0fff5 	bnez	t6,0x63d4
    6400:	000569c0 	sll	t5,a1,0x7
    6404:	0a0005e6 	j	0x8001798
    6408:	8fbf0018 	lw	ra,24(sp)
    640c:	97870004 	lhu	a3,4(gp)
    6410:	3c040800 	lui	a0,0x800
    6414:	24845658 	addiu	a0,a0,22104
    6418:	24050400 	li	a1,1024
    641c:	0e0005a1 	jal	0x8001684
    6420:	24060001 	li	a2,1
    6424:	978b000c 	lhu	t3,12(gp)
    6428:	24440001 	addiu	a0,v0,1
    642c:	308affff 	andi	t2,a0,0xffff
    6430:	2569ffff 	addiu	t1,t3,-1
    6434:	2d480400 	sltiu	t0,t2,1024
    6438:	00402821 	move	a1,v0
    643c:	15000040 	bnez	t0,0x6540
    6440:	a789000c 	sh	t1,12(gp)
    6444:	24ac3800 	addiu	t4,a1,14336
    6448:	000c19c0 	sll	v1,t4,0x7
    644c:	0a0005fa 	j	0x80017e8
    6450:	a7800004 	sh	zero,4(gp)
    6454:	97870006 	lhu	a3,6(gp)
    6458:	3c040800 	lui	a0,0x800
    645c:	248456d8 	addiu	a0,a0,22232
    6460:	24050400 	li	a1,1024
    6464:	0e0005a1 	jal	0x8001684
    6468:	24060001 	li	a2,1
    646c:	9799000e 	lhu	t9,14(gp)
    6470:	24440001 	addiu	a0,v0,1
    6474:	3098ffff 	andi	t8,a0,0xffff
    6478:	272fffff 	addiu	t7,t9,-1
    647c:	2f0e0400 	sltiu	t6,t8,1024
    6480:	00408821 	move	s1,v0
    6484:	15c0002c 	bnez	t6,0x6538
    6488:	a78f000e 	sh	t7,14(gp)
    648c:	a7800006 	sh	zero,6(gp)
    6490:	3a020003 	xori	v0,s0,0x3
    6494:	26240100 	addiu	a0,s1,256
    6498:	3084ffff 	andi	a0,a0,0xffff
    649c:	0e0005ce 	jal	0x8001738
    64a0:	2c450001 	sltiu	a1,v0,1
    64a4:	0011f8c0 	sll	ra,s1,0x3
    64a8:	27f00100 	addiu	s0,ra,256
    64ac:	001021c0 	sll	a0,s0,0x7
    64b0:	0a0005fc 	j	0x80017f0
    64b4:	24020008 	li	v0,8
    64b8:	97850016 	lhu	a1,22(gp)
    64bc:	9787000a 	lhu	a3,10(gp)
    64c0:	3c040800 	lui	a0,0x800
    64c4:	24845758 	addiu	a0,a0,22360
    64c8:	0e0005a1 	jal	0x8001684
    64cc:	24060001 	li	a2,1
    64d0:	97870012 	lhu	a3,18(gp)
    64d4:	8f890014 	lw	t1,20(gp)
    64d8:	24450001 	addiu	a1,v0,1
    64dc:	30a8ffff 	andi	t0,a1,0xffff
    64e0:	24e3ffff 	addiu	v1,a3,-1
    64e4:	0109302b 	sltu	a2,t0,t1
    64e8:	00408021 	move	s0,v0
    64ec:	14c00018 	bnez	a2,0x6550
    64f0:	a7830012 	sh	v1,18(gp)
    64f4:	a780000a 	sh	zero,10(gp)
    64f8:	97850018 	lhu	a1,24(gp)
    64fc:	0e000e10 	jal	0x8003840
    6500:	02002021 	move	a0,s0
    6504:	244a0500 	addiu	t2,v0,1280
    6508:	3144ffff 	andi	a0,t2,0xffff
    650c:	0e0005ce 	jal	0x8001738
    6510:	24050001 	li	a1,1
    6514:	3c050800 	lui	a1,0x800
    6518:	94a50032 	lhu	a1,50(a1)
    651c:	0e000e10 	jal	0x8003840
    6520:	02002021 	move	a0,s0
    6524:	24452100 	addiu	a1,v0,8448
    6528:	3c020800 	lui	v0,0x800
    652c:	90420033 	lbu	v0,51(v0)
    6530:	0a0005fc 	j	0x80017f0
    6534:	000521c0 	sll	a0,a1,0x7
    6538:	0a000634 	j	0x80018d0
    653c:	a7840006 	sh	a0,6(gp)
    6540:	24ac3800 	addiu	t4,a1,14336
    6544:	000c19c0 	sll	v1,t4,0x7
    6548:	0a0005fa 	j	0x80017e8
    654c:	a7840004 	sh	a0,4(gp)
    6550:	0a00064e 	j	0x8001938
    6554:	a785000a 	sh	a1,10(gp)
    6558:	308400ff 	andi	a0,a0,0xff
    655c:	27bdffe8 	addiu	sp,sp,-24
    6560:	2c820006 	sltiu	v0,a0,6
    6564:	afbf0014 	sw	ra,20(sp)
    6568:	afb00010 	sw	s0,16(sp)
    656c:	10400015 	beqz	v0,0x65c4
    6570:	00a03821 	move	a3,a1
    6574:	00044080 	sll	t0,a0,0x2
    6578:	3c030800 	lui	v1,0x800
    657c:	246353cc 	addiu	v1,v1,21452
    6580:	01032821 	addu	a1,t0,v1
    6584:	8ca40000 	lw	a0,0(a1)
    6588:	00800008 	jr	a0
    658c:	00000000 	nop
    6590:	24cc007f 	addiu	t4,a2,127
    6594:	000751c2 	srl	t2,a3,0x7
    6598:	000c59c2 	srl	t3,t4,0x7
    659c:	3170ffff 	andi	s0,t3,0xffff
    65a0:	2547c400 	addiu	a3,t2,-15360
    65a4:	30e5ffff 	andi	a1,a3,0xffff
    65a8:	27840004 	addiu	a0,gp,4
    65ac:	02003021 	move	a2,s0
    65b0:	0e0004f6 	jal	0x80013d8
    65b4:	24070001 	li	a3,1
    65b8:	97860010 	lhu	a2,16(gp)
    65bc:	02062021 	addu	a0,s0,a2
    65c0:	a7840010 	sh	a0,16(gp)
    65c4:	8fbf0014 	lw	ra,20(sp)
    65c8:	8fb00010 	lw	s0,16(sp)
    65cc:	03e00008 	jr	ra
    65d0:	27bd0018 	addiu	sp,sp,24
    65d4:	3c050800 	lui	a1,0x800
    65d8:	8ca50030 	lw	a1,48(a1)
    65dc:	000779c2 	srl	t7,a3,0x7
    65e0:	0e0002f0 	jal	0x8000bc0
    65e4:	25e4df00 	addiu	a0,t7,-8448
    65e8:	3045ffff 	andi	a1,v0,0xffff
    65ec:	3c040800 	lui	a0,0x800
    65f0:	24845758 	addiu	a0,a0,22360
    65f4:	24060001 	li	a2,1
    65f8:	0e0004f6 	jal	0x80013d8
    65fc:	24070001 	li	a3,1
    6600:	978e0012 	lhu	t6,18(gp)
    6604:	8fbf0014 	lw	ra,20(sp)
    6608:	8fb00010 	lw	s0,16(sp)
    660c:	25cd0001 	addiu	t5,t6,1
    6610:	27bd0018 	addiu	sp,sp,24
    6614:	03e00008 	jr	ra
    6618:	a78d0012 	sh	t5,18(gp)
    661c:	0007c9c2 	srl	t9,a3,0x7
    6620:	2738ff00 	addiu	t8,t9,-256
    6624:	001878c2 	srl	t7,t8,0x3
    6628:	31f0ffff 	andi	s0,t7,0xffff
    662c:	3c040800 	lui	a0,0x800
    6630:	248456d8 	addiu	a0,a0,22232
    6634:	02002821 	move	a1,s0
    6638:	24060001 	li	a2,1
    663c:	0e0004f6 	jal	0x80013d8
    6640:	24070001 	li	a3,1
    6644:	978d000e 	lhu	t5,14(gp)
    6648:	260e0100 	addiu	t6,s0,256
    664c:	000e8400 	sll	s0,t6,0x10
    6650:	25ac0001 	addiu	t4,t5,1
    6654:	3c0b6000 	lui	t3,0x6000
    6658:	a78c000e 	sh	t4,14(gp)
    665c:	ad603d08 	sw	zero,15624(t3)
    6660:	36040006 	ori	a0,s0,0x6
    6664:	00003021 	move	a2,zero
    6668:	3c076000 	lui	a3,0x6000
    666c:	8ce23d04 	lw	v0,15620(a3)
    6670:	305f0006 	andi	ra,v0,0x6
    6674:	17e0fffd 	bnez	ra,0x666c
    6678:	24c90001 	addiu	t1,a2,1
    667c:	00061b00 	sll	v1,a2,0xc
    6680:	312600ff 	andi	a2,t1,0xff
    6684:	00644025 	or	t0,v1,a0
    6688:	2cc50004 	sltiu	a1,a2,4
    668c:	ace83d04 	sw	t0,15620(a3)
    6690:	14a0fff6 	bnez	a1,0x666c
    6694:	8fbf0014 	lw	ra,20(sp)
    6698:	8fb00010 	lw	s0,16(sp)
    669c:	03e00008 	jr	ra
    66a0:	27bd0018 	addiu	sp,sp,24
    66a4:	000751c2 	srl	t2,a3,0x7
    66a8:	2549c800 	addiu	t1,t2,-14336
    66ac:	24060001 	li	a2,1
    66b0:	24070001 	li	a3,1
    66b4:	3c040800 	lui	a0,0x800
    66b8:	24845658 	addiu	a0,a0,22104
    66bc:	0e0004f6 	jal	0x80013d8
    66c0:	3125ffff 	andi	a1,t1,0xffff
    66c4:	9787000c 	lhu	a3,12(gp)
    66c8:	8fbf0014 	lw	ra,20(sp)
    66cc:	8fb00010 	lw	s0,16(sp)
    66d0:	24e60001 	addiu	a2,a3,1
    66d4:	27bd0018 	addiu	sp,sp,24
    66d8:	03e00008 	jr	ra
    66dc:	a786000c 	sh	a2,12(gp)
    66e0:	3084ffff 	andi	a0,a0,0xffff
    66e4:	30a5ffff 	andi	a1,a1,0xffff
    66e8:	3c068000 	lui	a2,0x8000
    66ec:	8cc201b8 	lw	v0,440(a2)
    66f0:	0440fffe 	bltz	v0,0x66ec
    66f4:	3c084080 	lui	t0,0x4080
    66f8:	00883825 	or	a3,a0,t0
    66fc:	3c031000 	lui	v1,0x1000
    6700:	acc00180 	sw	zero,384(a2)
    6704:	acc50184 	sw	a1,388(a2)
    6708:	acc70188 	sw	a3,392(a2)
    670c:	03e00008 	jr	ra
    6710:	acc301b8 	sw	v1,440(a2)
    6714:	3084ffff 	andi	a0,a0,0xffff
    6718:	3c068000 	lui	a2,0x8000
    671c:	8cc201b8 	lw	v0,440(a2)
    6720:	0440fffe 	bltz	v0,0x671c
    6724:	3c084038 	lui	t0,0x4038
    6728:	8ca70000 	lw	a3,0(a1)
    672c:	00882825 	or	a1,a0,t0
    6730:	3c031000 	lui	v1,0x1000
    6734:	acc70180 	sw	a3,384(a2)
    6738:	acc50188 	sw	a1,392(a2)
    673c:	03e00008 	jr	ra
    6740:	acc301b8 	sw	v1,440(a2)
    6744:	8f83005c 	lw	v1,92(gp)
    6748:	8f860054 	lw	a2,84(gp)
    674c:	1066000b 	beq	v1,a2,0x677c
    6750:	00804021 	move	t0,a0
    6754:	3c070800 	lui	a3,0x800
    6758:	24e75768 	addiu	a3,a3,22376
    675c:	000328c0 	sll	a1,v1,0x3
    6760:	00a71021 	addu	v0,a1,a3
    6764:	8c440000 	lw	a0,0(v0)
    6768:	24630001 	addiu	v1,v1,1
    676c:	10880005 	beq	a0,t0,0x6784
    6770:	3063000f 	andi	v1,v1,0xf
    6774:	5466fffa 	bnel	v1,a2,0x6760
    6778:	000328c0 	sll	a1,v1,0x3
    677c:	03e00008 	jr	ra
    6780:	00001021 	move	v0,zero
    6784:	3c070800 	lui	a3,0x800
    6788:	24e7576c 	addiu	a3,a3,22380
    678c:	00a73021 	addu	a2,a1,a3
    6790:	03e00008 	jr	ra
    6794:	8cc20000 	lw	v0,0(a2)
    6798:	3c039000 	lui	v1,0x9000
    679c:	34620001 	ori	v0,v1,0x1
    67a0:	00822025 	or	a0,a0,v0
    67a4:	3c038000 	lui	v1,0x8000
    67a8:	ac640020 	sw	a0,32(v1)
    67ac:	8c650020 	lw	a1,32(v1)
    67b0:	04a0fffe 	bltz	a1,0x67ac
    67b4:	00000000 	nop
    67b8:	03e00008 	jr	ra
    67bc:	00000000 	nop
    67c0:	3c028000 	lui	v0,0x8000
    67c4:	34430001 	ori	v1,v0,0x1
    67c8:	00832025 	or	a0,a0,v1
    67cc:	03e00008 	jr	ra
    67d0:	ac440020 	sw	a0,32(v0)
    67d4:	27bdffe0 	addiu	sp,sp,-32
    67d8:	afb10014 	sw	s1,20(sp)
    67dc:	3091ffff 	andi	s1,a0,0xffff
    67e0:	afb00010 	sw	s0,16(sp)
    67e4:	afbf0018 	sw	ra,24(sp)
    67e8:	12200012 	beqz	s1,0x6834
    67ec:	00a08021 	move	s0,a1
    67f0:	8ca50000 	lw	a1,0(a1)
    67f4:	14a00011 	bnez	a1,0x683c
    67f8:	24040002 	li	a0,2
    67fc:	3c068000 	lui	a2,0x8000
    6800:	8cc201b8 	lw	v0,440(a2)
    6804:	0440fffe 	bltz	v0,0x6800
    6808:	3c074000 	lui	a3,0x4000
    680c:	02272025 	or	a0,s1,a3
    6810:	8fbf0018 	lw	ra,24(sp)
    6814:	8fb10014 	lw	s1,20(sp)
    6818:	8fb00010 	lw	s0,16(sp)
    681c:	3c031000 	lui	v1,0x1000
    6820:	27bd0020 	addiu	sp,sp,32
    6824:	acc50180 	sw	a1,384(a2)
    6828:	acc40188 	sw	a0,392(a2)
    682c:	03e00008 	jr	ra
    6830:	acc301b8 	sw	v1,440(a2)
    6834:	0a00070f 	j	0x8001c3c
    6838:	8ca50000 	lw	a1,0(a1)
    683c:	0e000666 	jal	0x8001998
    6840:	24060200 	li	a2,512
    6844:	00002821 	move	a1,zero
    6848:	0a00070f 	j	0x8001c3c
    684c:	ae000000 	sw	zero,0(s0)
    6850:	3087ffff 	andi	a3,a0,0xffff
    6854:	3c068000 	lui	a2,0x8000
    6858:	8cc201b8 	lw	v0,440(a2)
    685c:	0440fffe 	bltz	v0,0x6858
    6860:	3c0a4006 	lui	t2,0x4006
    6864:	8ca90000 	lw	t1,0(a1)
    6868:	00ea4025 	or	t0,a3,t2
    686c:	acc90180 	sw	t1,384(a2)
    6870:	8ca40004 	lw	a0,4(a1)
    6874:	3c031000 	lui	v1,0x1000
    6878:	acc40184 	sw	a0,388(a2)
    687c:	acc80188 	sw	t0,392(a2)
    6880:	03e00008 	jr	ra
    6884:	acc301b8 	sw	v1,440(a2)
    6888:	8f83fde8 	lw	v1,-536(gp)
    688c:	27bdffe8 	addiu	sp,sp,-24
    6890:	afbf0014 	sw	ra,20(sp)
    6894:	afb00010 	sw	s0,16(sp)
    6898:	90670008 	lbu	a3,8(v1)
    689c:	00801021 	move	v0,a0
    68a0:	00802821 	move	a1,a0
    68a4:	30e60040 	andi	a2,a3,0x40
    68a8:	00002021 	move	a0,zero
    68ac:	10c00008 	beqz	a2,0x68d0
    68b0:	8c500000 	lw	s0,0(v0)
    68b4:	0e000086 	jal	0x8000218
    68b8:	02002021 	move	a0,s0
    68bc:	02002021 	move	a0,s0
    68c0:	8fbf0014 	lw	ra,20(sp)
    68c4:	8fb00010 	lw	s0,16(sp)
    68c8:	0a000489 	j	0x8001224
    68cc:	27bd0018 	addiu	sp,sp,24
    68d0:	0e000724 	jal	0x8001c90
    68d4:	00000000 	nop
    68d8:	0e000086 	jal	0x8000218
    68dc:	02002021 	move	a0,s0
    68e0:	02002021 	move	a0,s0
    68e4:	8fbf0014 	lw	ra,20(sp)
    68e8:	8fb00010 	lw	s0,16(sp)
    68ec:	0a000489 	j	0x8001224
    68f0:	27bd0018 	addiu	sp,sp,24
    68f4:	27bdffe0 	addiu	sp,sp,-32
    68f8:	afb00010 	sw	s0,16(sp)
    68fc:	8f90fde8 	lw	s0,-536(gp)
    6900:	afbf001c 	sw	ra,28(sp)
    6904:	afb20018 	sw	s2,24(sp)
    6908:	afb10014 	sw	s1,20(sp)
    690c:	92060001 	lbu	a2,1(s0)
    6910:	00808821 	move	s1,a0
    6914:	0e0006f6 	jal	0x8001bd8
    6918:	30d20004 	andi	s2,a2,0x4
    691c:	92040005 	lbu	a0,5(s0)
    6920:	001129c2 	srl	a1,s1,0x7
    6924:	a6050000 	sh	a1,0(s0)
    6928:	34830040 	ori	v1,a0,0x40
    692c:	a2030005 	sb	v1,5(s0)
    6930:	0e000700 	jal	0x8001c00
    6934:	02202021 	move	a0,s1
    6938:	0e00048b 	jal	0x800122c
    693c:	02202021 	move	a0,s1
    6940:	24020001 	li	v0,1
    6944:	ae02000c 	sw	v0,12(s0)
    6948:	02202821 	move	a1,s1
    694c:	a6020010 	sh	v0,16(s0)
    6950:	24040002 	li	a0,2
    6954:	a6020012 	sh	v0,18(s0)
    6958:	24060200 	li	a2,512
    695c:	a6020014 	sh	v0,20(s0)
    6960:	0e000666 	jal	0x8001998
    6964:	a6020016 	sh	v0,22(s0)
    6968:	1640000f 	bnez	s2,0x69a8
    696c:	8fbf001c 	lw	ra,28(sp)
    6970:	978c0058 	lhu	t4,88(gp)
    6974:	3c0b0800 	lui	t3,0x800
    6978:	8d6b0078 	lw	t3,120(t3)
    697c:	2588ffff 	addiu	t0,t4,-1
    6980:	3109ffff 	andi	t1,t0,0xffff
    6984:	256a0001 	addiu	t2,t3,1
    6988:	012a382b 	sltu	a3,t1,t2
    698c:	10e00006 	beqz	a3,0x69a8
    6990:	a7880058 	sh	t0,88(gp)
    6994:	3c0f6006 	lui	t7,0x6006
    6998:	240e0016 	li	t6,22
    699c:	35ed0010 	ori	t5,t7,0x10
    69a0:	adae0050 	sw	t6,80(t5)
    69a4:	8fbf001c 	lw	ra,28(sp)
    69a8:	8fb20018 	lw	s2,24(sp)
    69ac:	8fb10014 	lw	s1,20(sp)
    69b0:	8fb00010 	lw	s0,16(sp)
    69b4:	03e00008 	jr	ra
    69b8:	27bd0020 	addiu	sp,sp,32
    69bc:	27bdffe0 	addiu	sp,sp,-32
    69c0:	afbf0018 	sw	ra,24(sp)
    69c4:	afb10014 	sw	s1,20(sp)
    69c8:	afb00010 	sw	s0,16(sp)
    69cc:	0e0006f6 	jal	0x8001bd8
    69d0:	00808821 	move	s1,a0
    69d4:	8f85fde8 	lw	a1,-536(gp)
    69d8:	02202021 	move	a0,s1
    69dc:	90a30005 	lbu	v1,5(a1)
    69e0:	0e000700 	jal	0x8001c00
    69e4:	307000ff 	andi	s0,v1,0xff
    69e8:	2402003e 	li	v0,62
    69ec:	12020005 	beq	s0,v0,0x6a04
    69f0:	8fbf0018 	lw	ra,24(sp)
    69f4:	8fb10014 	lw	s1,20(sp)
    69f8:	8fb00010 	lw	s0,16(sp)
    69fc:	03e00008 	jr	ra
    6a00:	27bd0020 	addiu	sp,sp,32
    6a04:	3c058000 	lui	a1,0x8000
    6a08:	8ca40178 	lw	a0,376(a1)
    6a0c:	0480fffe 	bltz	a0,0x6a08
    6a10:	24070007 	li	a3,7
    6a14:	3c061000 	lui	a2,0x1000
    6a18:	acb10140 	sw	s1,320(a1)
    6a1c:	02202021 	move	a0,s1
    6a20:	a0a70144 	sb	a3,324(a1)
    6a24:	8fbf0018 	lw	ra,24(sp)
    6a28:	8fb10014 	lw	s1,20(sp)
    6a2c:	8fb00010 	lw	s0,16(sp)
    6a30:	aca60178 	sw	a2,376(a1)
    6a34:	0a00074d 	j	0x8001d34
    6a38:	27bd0020 	addiu	sp,sp,32
    6a3c:	27bdffe0 	addiu	sp,sp,-32
    6a40:	afb00010 	sw	s0,16(sp)
    6a44:	afbf0018 	sw	ra,24(sp)
    6a48:	afb10014 	sw	s1,20(sp)
    6a4c:	3c108000 	lui	s0,0x8000
    6a50:	8e110020 	lw	s1,32(s0)
    6a54:	00000000 	nop
    6a58:	0e00048b 	jal	0x800122c
    6a5c:	ae040020 	sw	a0,32(s0)
    6a60:	ae110020 	sw	s1,32(s0)
    6a64:	8fbf0018 	lw	ra,24(sp)
    6a68:	8fb10014 	lw	s1,20(sp)
    6a6c:	8fb00010 	lw	s0,16(sp)
    6a70:	03e00008 	jr	ra
    6a74:	27bd0020 	addiu	sp,sp,32
    6a78:	3084ffff 	andi	a0,a0,0xffff
    6a7c:	3c068000 	lui	a2,0x8000
    6a80:	8cc201b8 	lw	v0,440(a2)
    6a84:	0440fffe 	bltz	v0,0x6a80
    6a88:	3c084035 	lui	t0,0x4035
    6a8c:	00883825 	or	a3,a0,t0
    6a90:	3c031000 	lui	v1,0x1000
    6a94:	acc50180 	sw	a1,384(a2)
    6a98:	acc00184 	sw	zero,388(a2)
    6a9c:	acc70188 	sw	a3,392(a2)
    6aa0:	03e00008 	jr	ra
    6aa4:	acc301b8 	sw	v1,440(a2)
    6aa8:	3084ffff 	andi	a0,a0,0xffff
    6aac:	3c068000 	lui	a2,0x8000
    6ab0:	8cc201b8 	lw	v0,440(a2)
    6ab4:	0440fffe 	bltz	v0,0x6ab0
    6ab8:	3c084036 	lui	t0,0x4036
    6abc:	00883825 	or	a3,a0,t0
    6ac0:	3c031000 	lui	v1,0x1000
    6ac4:	acc50180 	sw	a1,384(a2)
    6ac8:	acc00184 	sw	zero,388(a2)
    6acc:	acc70188 	sw	a3,392(a2)
    6ad0:	03e00008 	jr	ra
    6ad4:	acc301b8 	sw	v1,440(a2)
    6ad8:	27bdffd0 	addiu	sp,sp,-48
    6adc:	afb50024 	sw	s5,36(sp)
    6ae0:	3095ffff 	andi	s5,a0,0xffff
    6ae4:	afb60028 	sw	s6,40(sp)
    6ae8:	afb40020 	sw	s4,32(sp)
    6aec:	afbf002c 	sw	ra,44(sp)
    6af0:	afb3001c 	sw	s3,28(sp)
    6af4:	afb20018 	sw	s2,24(sp)
    6af8:	afb10014 	sw	s1,20(sp)
    6afc:	afb00010 	sw	s0,16(sp)
    6b00:	30b6ffff 	andi	s6,a1,0xffff
    6b04:	12a00027 	beqz	s5,0x6ba4
    6b08:	0000a021 	move	s4,zero
    6b0c:	8f92003c 	lw	s2,60(gp)
    6b10:	8e430000 	lw	v1,0(s2)
    6b14:	3c068000 	lui	a2,0x8000
    6b18:	24020040 	li	v0,64
    6b1c:	00033e02 	srl	a3,v1,0x18
    6b20:	00032c02 	srl	a1,v1,0x10
    6b24:	30e4007f 	andi	a0,a3,0x7f
    6b28:	00669824 	and	s3,v1,a2
    6b2c:	1482001d 	bne	a0,v0,0x6ba4
    6b30:	30a500ff 	andi	a1,a1,0xff
    6b34:	8f83004c 	lw	v1,76(gp)
    6b38:	2c68000a 	sltiu	t0,v1,10
    6b3c:	51000010 	beqzl	t0,0x6b80
    6b40:	8f860030 	lw	a2,48(gp)
    6b44:	00035880 	sll	t3,v1,0x2
    6b48:	3c0c0800 	lui	t4,0x800
    6b4c:	258c53e8 	addiu	t4,t4,21480
    6b50:	016c5021 	addu	t2,t3,t4
    6b54:	8d490000 	lw	t1,0(t2)
    6b58:	01200008 	jr	t1
    6b5c:	00000000 	nop
    6b60:	02d44821 	addu	t1,s6,s4
    6b64:	3125ffff 	andi	a1,t1,0xffff
    6b68:	0e0006c8 	jal	0x8001b20
    6b6c:	24040084 	li	a0,132
    6b70:	16600002 	bnez	s3,0x6b7c
    6b74:	8f92003c 	lw	s2,60(gp)
    6b78:	af80004c 	sw	zero,76(gp)
    6b7c:	8f860030 	lw	a2,48(gp)
    6b80:	26580020 	addiu	t8,s2,32
    6b84:	268f0001 	addiu	t7,s4,1
    6b88:	03009021 	move	s2,t8
    6b8c:	31f4ffff 	andi	s4,t7,0xffff
    6b90:	14c00004 	bnez	a2,0x6ba4
    6b94:	af98003c 	sw	t8,60(gp)
    6b98:	0295282b 	sltu	a1,s4,s5
    6b9c:	14a0ffdc 	bnez	a1,0x6b10
    6ba0:	00000000 	nop
    6ba4:	02801021 	move	v0,s4
    6ba8:	8fbf002c 	lw	ra,44(sp)
    6bac:	8fb60028 	lw	s6,40(sp)
    6bb0:	8fb50024 	lw	s5,36(sp)
    6bb4:	8fb40020 	lw	s4,32(sp)
    6bb8:	8fb3001c 	lw	s3,28(sp)
    6bbc:	8fb20018 	lw	s2,24(sp)
    6bc0:	8fb10014 	lw	s1,20(sp)
    6bc4:	8fb00010 	lw	s0,16(sp)
    6bc8:	03e00008 	jr	ra
    6bcc:	27bd0030 	addiu	sp,sp,48
    6bd0:	24070034 	li	a3,52
    6bd4:	14a70146 	bne	a1,a3,0x70f0
    6bd8:	00000000 	nop
    6bdc:	9247000e 	lbu	a3,14(s2)
    6be0:	8f99fdec 	lw	t9,-532(gp)
    6be4:	8f90fde8 	lw	s0,-536(gp)
    6be8:	24181600 	li	t8,5632
    6bec:	a3270019 	sb	a3,25(t9)
    6bf0:	924a000d 	lbu	t2,13(s2)
    6bf4:	3c088000 	lui	t0,0x8000
    6bf8:	3c07800c 	lui	a3,0x800c
    6bfc:	a32a0018 	sb	t2,24(t9)
    6c00:	96440012 	lhu	a0,18(s2)
    6c04:	3c0f6000 	lui	t7,0x6000
    6c08:	3c117fff 	lui	s1,0x7fff
    6c0c:	a604005c 	sh	a0,92(s0)
    6c10:	965f0010 	lhu	ra,16(s2)
    6c14:	3622ffff 	ori	v0,s1,0xffff
    6c18:	240a0005 	li	t2,5
    6c1c:	33e5ffff 	andi	a1,ra,0xffff
    6c20:	ae050054 	sw	a1,84(s0)
    6c24:	8e46001c 	lw	a2,28(s2)
    6c28:	ad180028 	sw	t8,40(t0)
    6c2c:	8ce90000 	lw	t1,0(a3)
    6c30:	8dee4448 	lw	t6,17480(t7)
    6c34:	01266826 	xor	t5,t1,a2
    6c38:	01cd3021 	addu	a2,t6,t5
    6c3c:	ae060038 	sw	a2,56(s0)
    6c40:	8e030038 	lw	v1,56(s0)
    6c44:	24cb0001 	addiu	t3,a2,1
    6c48:	3c0e7f00 	lui	t6,0x7f00
    6c4c:	ae03003c 	sw	v1,60(s0)
    6c50:	8e0c003c 	lw	t4,60(s0)
    6c54:	af2c0004 	sw	t4,4(t9)
    6c58:	ae0b0020 	sw	t3,32(s0)
    6c5c:	8e130020 	lw	s3,32(s0)
    6c60:	ae13001c 	sw	s3,28(s0)
    6c64:	a320001b 	sb	zero,27(t9)
    6c68:	ae02002c 	sw	v0,44(s0)
    6c6c:	a32a0012 	sb	t2,18(t9)
    6c70:	8e440014 	lw	a0,20(s2)
    6c74:	24130050 	li	s3,80
    6c78:	ae040034 	sw	a0,52(s0)
    6c7c:	8e1f0034 	lw	ra,52(s0)
    6c80:	af3f0014 	sw	ra,20(t9)
    6c84:	8e450018 	lw	a1,24(s2)
    6c88:	ae050048 	sw	a1,72(s0)
    6c8c:	9258000c 	lbu	t8,12(s2)
    6c90:	a218004e 	sb	t8,78(s0)
    6c94:	920f0008 	lbu	t7,8(s0)
    6c98:	35e90020 	ori	t1,t7,0x20
    6c9c:	a2090008 	sb	t1,8(s0)
    6ca0:	8e0d0018 	lw	t5,24(s0)
    6ca4:	01ae1824 	and	v1,t5,t6
    6ca8:	346c4000 	ori	t4,v1,0x4000
    6cac:	ae0c0018 	sw	t4,24(s0)
    6cb0:	920b0000 	lbu	t3,0(s0)
    6cb4:	317200ff 	andi	s2,t3,0xff
    6cb8:	125302ad 	beq	s2,s3,0x7770
    6cbc:	2413ff80 	li	s3,-128
    6cc0:	3c040800 	lui	a0,0x800
    6cc4:	248457e8 	addiu	a0,a0,22504
    6cc8:	0e000732 	jal	0x8001cc8
    6ccc:	00000000 	nop
    6cd0:	24030004 	li	v1,4
    6cd4:	24080001 	li	t0,1
    6cd8:	3c050800 	lui	a1,0x800
    6cdc:	8ca557e8 	lw	a1,22504(a1)
    6ce0:	3c048000 	lui	a0,0x8000
    6ce4:	a2030025 	sb	v1,37(s0)
    6ce8:	a2080005 	sb	t0,5(s0)
    6cec:	8c900178 	lw	s0,376(a0)
    6cf0:	0600fffe 	bltz	s0,0x6cec
    6cf4:	8f92003c 	lw	s2,60(gp)
    6cf8:	240e0002 	li	t6,2
    6cfc:	3c0d1000 	lui	t5,0x1000
    6d00:	ac850140 	sw	a1,320(a0)
    6d04:	a08e0144 	sb	t6,324(a0)
    6d08:	ac8d0178 	sw	t5,376(a0)
    6d0c:	0a0007ef 	j	0x8001fbc
    6d10:	af80004c 	sw	zero,76(gp)
    6d14:	2cad0037 	sltiu	t5,a1,55
    6d18:	11a0ff99 	beqz	t5,0x6b80
    6d1c:	8f860030 	lw	a2,48(gp)
    6d20:	00058080 	sll	s0,a1,0x2
    6d24:	3c110800 	lui	s1,0x800
    6d28:	26315410 	addiu	s1,s1,21520
    6d2c:	02117821 	addu	t7,s0,s1
    6d30:	8dee0000 	lw	t6,0(t7)
    6d34:	01c00008 	jr	t6
    6d38:	00000000 	nop
    6d3c:	24100004 	li	s0,4
    6d40:	14b0008e 	bne	a1,s0,0x6f7c
    6d44:	3c078000 	lui	a3,0x8000
    6d48:	3c0c0800 	lui	t4,0x800
    6d4c:	8d8c57e8 	lw	t4,22504(t4)
    6d50:	8f86fde8 	lw	a2,-536(gp)
    6d54:	acec0020 	sw	t4,32(a3)
    6d58:	8e4b0008 	lw	t3,8(s2)
    6d5c:	8f98fdec 	lw	t8,-532(gp)
    6d60:	24090050 	li	t1,80
    6d64:	accb0030 	sw	t3,48(a2)
    6d68:	8e430008 	lw	v1,8(s2)
    6d6c:	acc30050 	sw	v1,80(a2)
    6d70:	8e42000c 	lw	v0,12(s2)
    6d74:	acc20034 	sw	v0,52(a2)
    6d78:	8e4a0010 	lw	t2,16(s2)
    6d7c:	acca0038 	sw	t2,56(a2)
    6d80:	8e440010 	lw	a0,16(s2)
    6d84:	acc40054 	sw	a0,84(a2)
    6d88:	8e5f0014 	lw	ra,20(s2)
    6d8c:	acdf003c 	sw	ra,60(a2)
    6d90:	8e590018 	lw	t9,24(s2)
    6d94:	af190004 	sw	t9,4(t8)
    6d98:	8e4f001c 	lw	t7,28(s2)
    6d9c:	accf0020 	sw	t7,32(a2)
    6da0:	90d10000 	lbu	s1,0(a2)
    6da4:	322500ff 	andi	a1,s1,0xff
    6da8:	10a9027d 	beq	a1,t1,0x77a0
    6dac:	00000000 	nop
    6db0:	8cd10034 	lw	s1,52(a2)
    6db4:	8ccf0030 	lw	t7,48(a2)
    6db8:	022f3023 	subu	a2,s1,t7
    6dbc:	04c000f3 	bltz	a2,0x718c
    6dc0:	2404008c 	li	a0,140
    6dc4:	126000f0 	beqz	s3,0x7188
    6dc8:	24020003 	li	v0,3
    6dcc:	0a0007ef 	j	0x8001fbc
    6dd0:	af82004c 	sw	v0,76(gp)
    6dd4:	24180005 	li	t8,5
    6dd8:	14b80068 	bne	a1,t8,0x6f7c
    6ddc:	3c0b8000 	lui	t3,0x8000
    6de0:	3c0c0800 	lui	t4,0x800
    6de4:	8d8c57e8 	lw	t4,22504(t4)
    6de8:	8f86fde8 	lw	a2,-536(gp)
    6dec:	ad6c0020 	sw	t4,32(t3)
    6df0:	8e430004 	lw	v1,4(s2)
    6df4:	8f9ffdec 	lw	ra,-532(gp)
    6df8:	24072000 	li	a3,8192
    6dfc:	acc3001c 	sw	v1,28(a2)
    6e00:	92420008 	lbu	v0,8(s2)
    6e04:	24120008 	li	s2,8
    6e08:	a3e20019 	sb	v0,25(ra)
    6e0c:	8f8a003c 	lw	t2,60(gp)
    6e10:	91440009 	lbu	a0,9(t2)
    6e14:	a3e40018 	sb	a0,24(ra)
    6e18:	8f85003c 	lw	a1,60(gp)
    6e1c:	90b9000a 	lbu	t9,10(a1)
    6e20:	332400ff 	andi	a0,t9,0xff
    6e24:	10920010 	beq	a0,s2,0x6e68
    6e28:	28880009 	slti	t0,a0,9
    6e2c:	150000bc 	bnez	t0,0x7120
    6e30:	240d0002 	li	t5,2
    6e34:	24090020 	li	t1,32
    6e38:	1089000b 	beq	a0,t1,0x6e68
    6e3c:	34078000 	li	a3,0x8000
    6e40:	28910021 	slti	s1,a0,33
    6e44:	16200008 	bnez	s1,0x6e68
    6e48:	24074000 	li	a3,16384
    6e4c:	240f0040 	li	t7,64
    6e50:	108f0005 	beq	a0,t7,0x6e68
    6e54:	3c070001 	lui	a3,0x1
    6e58:	24180080 	li	t8,128
    6e5c:	10980002 	beq	a0,t8,0x6e68
    6e60:	3c070002 	lui	a3,0x2
    6e64:	24074000 	li	a3,16384
    6e68:	8cc40018 	lw	a0,24(a2)
    6e6c:	3c0aff00 	lui	t2,0xff00
    6e70:	008af824 	and	ra,a0,t2
    6e74:	03e7c825 	or	t9,ra,a3
    6e78:	acd90018 	sw	t9,24(a2)
    6e7c:	90b2000b 	lbu	s2,11(a1)
    6e80:	a0d20027 	sb	s2,39(a2)
    6e84:	8f83003c 	lw	v1,60(gp)
    6e88:	9465000c 	lhu	a1,12(v1)
    6e8c:	10a00231 	beqz	a1,0x7754
    6e90:	00000000 	nop
    6e94:	9467000c 	lhu	a3,12(v1)
    6e98:	3c1f8000 	lui	ra,0x8000
    6e9c:	a4c7005c 	sh	a3,92(a2)
    6ea0:	9062000e 	lbu	v0,14(v1)
    6ea4:	2403ffbf 	li	v1,-65
    6ea8:	24070004 	li	a3,4
    6eac:	a0c20008 	sb	v0,8(a2)
    6eb0:	8f8a003c 	lw	t2,60(gp)
    6eb4:	9144000f 	lbu	a0,15(t2)
    6eb8:	a0c40009 	sb	a0,9(a2)
    6ebc:	8f88003c 	lw	t0,60(gp)
    6ec0:	8d120010 	lw	s2,16(t0)
    6ec4:	8ff90074 	lw	t9,116(ra)
    6ec8:	02592823 	subu	a1,s2,t9
    6ecc:	acc50058 	sw	a1,88(a2)
    6ed0:	8d180014 	lw	t8,20(t0)
    6ed4:	acd8002c 	sw	t8,44(a2)
    6ed8:	950f0018 	lhu	t7,24(t0)
    6edc:	31f1ffff 	andi	s1,t7,0xffff
    6ee0:	acd10040 	sw	s1,64(a2)
    6ee4:	9509001a 	lhu	t1,26(t0)
    6ee8:	3130ffff 	andi	s0,t1,0xffff
    6eec:	acd00044 	sw	s0,68(a2)
    6ef0:	8d0e001c 	lw	t6,28(t0)
    6ef4:	acce0048 	sw	t6,72(a2)
    6ef8:	950d0002 	lhu	t5,2(t0)
    6efc:	a4cd0078 	sh	t5,120(a2)
    6f00:	910c000e 	lbu	t4,14(t0)
    6f04:	a0cc0008 	sb	t4,8(a2)
    6f08:	90cb0008 	lbu	t3,8(a2)
    6f0c:	01631024 	and	v0,t3,v1
    6f10:	126001d7 	beqz	s3,0x7670
    6f14:	a0c20008 	sb	v0,8(a2)
    6f18:	8f92003c 	lw	s2,60(gp)
    6f1c:	0a0007ef 	j	0x8001fbc
    6f20:	af87004c 	sw	a3,76(gp)
    6f24:	24060006 	li	a2,6
    6f28:	14a60014 	bne	a1,a2,0x6f7c
    6f2c:	3c0e8000 	lui	t6,0x8000
    6f30:	3c100800 	lui	s0,0x800
    6f34:	8e1057e8 	lw	s0,22504(s0)
    6f38:	8f8cfde4 	lw	t4,-540(gp)
    6f3c:	add00020 	sw	s0,32(t6)
    6f40:	8e4d0018 	lw	t5,24(s2)
    6f44:	8f86fde8 	lw	a2,-536(gp)
    6f48:	8f8bfdec 	lw	t3,-532(gp)
    6f4c:	ad8d0000 	sw	t5,0(t4)
    6f50:	8cc80038 	lw	t0,56(a2)
    6f54:	24040005 	li	a0,5
    6f58:	ad880004 	sw	t0,4(t4)
    6f5c:	8cc3003c 	lw	v1,60(a2)
    6f60:	12600081 	beqz	s3,0x7168
    6f64:	ad630000 	sw	v1,0(t3)
    6f68:	0a0007ef 	j	0x8001fbc
    6f6c:	af84004c 	sw	a0,76(gp)
    6f70:	24090007 	li	t1,7
    6f74:	10a9004b 	beq	a1,t1,0x70a4
    6f78:	24040006 	li	a0,6
    6f7c:	3c050800 	lui	a1,0x800
    6f80:	24a557e8 	addiu	a1,a1,22504
    6f84:	0e000705 	jal	0x8001c14
    6f88:	24040081 	li	a0,129
    6f8c:	8f92003c 	lw	s2,60(gp)
    6f90:	0013102b 	sltu	v0,zero,s3
    6f94:	0a0007ef 	j	0x8001fbc
    6f98:	af82004c 	sw	v0,76(gp)
    6f9c:	241f0023 	li	ra,35
    6fa0:	14bffff6 	bne	a1,ra,0x6f7c
    6fa4:	3c0c8000 	lui	t4,0x8000
    6fa8:	3c030800 	lui	v1,0x800
    6fac:	8c6357e8 	lw	v1,22504(v1)
    6fb0:	8f8bfdec 	lw	t3,-532(gp)
    6fb4:	ad830020 	sw	v1,32(t4)
    6fb8:	8f91fde8 	lw	s1,-536(gp)
    6fbc:	8e460004 	lw	a2,4(s2)
    6fc0:	25640020 	addiu	a0,t3,32
    6fc4:	26450014 	addiu	a1,s2,20
    6fc8:	ae260028 	sw	a2,40(s1)
    6fcc:	24060003 	li	a2,3
    6fd0:	0e000e1c 	jal	0x8003870
    6fd4:	25700030 	addiu	s0,t3,48
    6fd8:	8f87003c 	lw	a3,60(gp)
    6fdc:	02002021 	move	a0,s0
    6fe0:	24060003 	li	a2,3
    6fe4:	0e000e1c 	jal	0x8003870
    6fe8:	24e50008 	addiu	a1,a3,8
    6fec:	3c040800 	lui	a0,0x800
    6ff0:	248457e8 	addiu	a0,a0,22504
    6ff4:	0e000732 	jal	0x8001cc8
    6ff8:	00000000 	nop
    6ffc:	92220000 	lbu	v0,0(s1)
    7000:	24040050 	li	a0,80
    7004:	304a00ff 	andi	t2,v0,0xff
    7008:	5544ffe1 	bnel	t2,a0,0x6f90
    700c:	8f92003c 	lw	s2,60(gp)
    7010:	0e000e07 	jal	0x800381c
    7014:	00000000 	nop
    7018:	0a0008f4 	j	0x80023d0
    701c:	8f92003c 	lw	s2,60(gp)
    7020:	24080033 	li	t0,51
    7024:	14a80032 	bne	a1,t0,0x70f0
    7028:	3c028000 	lui	v0,0x8000
    702c:	3c110800 	lui	s1,0x800
    7030:	8e3157e8 	lw	s1,22504(s1)
    7034:	8f89fdec 	lw	t1,-532(gp)
    7038:	ac510020 	sw	s1,32(v0)
    703c:	8e4a0008 	lw	t2,8(s2)
    7040:	240f0028 	li	t7,40
    7044:	8f8dfde8 	lw	t5,-536(gp)
    7048:	ad2a0030 	sw	t2,48(t1)
    704c:	8e44000c 	lw	a0,12(s2)
    7050:	24060009 	li	a2,9
    7054:	ad240034 	sw	a0,52(t1)
    7058:	8e5f0010 	lw	ra,16(s2)
    705c:	ad3f0038 	sw	ra,56(t1)
    7060:	8e590014 	lw	t9,20(s2)
    7064:	ad390020 	sw	t9,32(t1)
    7068:	8e450018 	lw	a1,24(s2)
    706c:	ad250024 	sw	a1,36(t1)
    7070:	8e58001c 	lw	t8,28(s2)
    7074:	ad380028 	sw	t8,40(t1)
    7078:	a12f0011 	sb	t7,17(t1)
    707c:	8e4e0004 	lw	t6,4(s2)
    7080:	12600031 	beqz	s3,0x7148
    7084:	adae0028 	sw	t6,40(t5)
    7088:	8f92003c 	lw	s2,60(gp)
    708c:	0a0007ef 	j	0x8001fbc
    7090:	af86004c 	sw	a2,76(gp)
    7094:	24110022 	li	s1,34
    7098:	14b1ffb8 	bne	a1,s1,0x6f7c
    709c:	00000000 	nop
    70a0:	24040007 	li	a0,7
    70a4:	3c180800 	lui	t8,0x800
    70a8:	8f1857e8 	lw	t8,22504(t8)
    70ac:	3c0f8000 	lui	t7,0x8000
    70b0:	adf80020 	sw	t8,32(t7)
    70b4:	5660feb1 	bnezl	s3,0x6b7c
    70b8:	af84004c 	sw	a0,76(gp)
    70bc:	3c040800 	lui	a0,0x800
    70c0:	248457e8 	addiu	a0,a0,22504
    70c4:	0e000732 	jal	0x8001cc8
    70c8:	24130050 	li	s3,80
    70cc:	8f99fde8 	lw	t9,-536(gp)
    70d0:	93320000 	lbu	s2,0(t9)
    70d4:	324500ff 	andi	a1,s2,0xff
    70d8:	10b3016c 	beq	a1,s3,0x768c
    70dc:	00000000 	nop
    70e0:	8f92003c 	lw	s2,60(gp)
    70e4:	00002021 	move	a0,zero
    70e8:	0a0007ef 	j	0x8001fbc
    70ec:	af84004c 	sw	a0,76(gp)
    70f0:	3c050800 	lui	a1,0x800
    70f4:	24a557e8 	addiu	a1,a1,22504
    70f8:	0e0006d5 	jal	0x8001b54
    70fc:	24040081 	li	a0,129
    7100:	0a0008f4 	j	0x80023d0
    7104:	8f92003c 	lw	s2,60(gp)
    7108:	02d49821 	addu	s3,s6,s4
    710c:	3265ffff 	andi	a1,s3,0xffff
    7110:	0e0006c8 	jal	0x8001b20
    7114:	24040084 	li	a0,132
    7118:	0a0007ef 	j	0x8001fbc
    711c:	8f92003c 	lw	s2,60(gp)
    7120:	108dff51 	beq	a0,t5,0x6e68
    7124:	24070400 	li	a3,1024
    7128:	28870003 	slti	a3,a0,3
    712c:	10e001aa 	beqz	a3,0x77d8
    7130:	24100004 	li	s0,4
    7134:	240e0001 	li	t6,1
    7138:	548eff4b 	bnel	a0,t6,0x6e68
    713c:	24074000 	li	a3,16384
    7140:	0a0008aa 	j	0x80022a8
    7144:	24070100 	li	a3,256
    7148:	3c050800 	lui	a1,0x800
    714c:	24a557e8 	addiu	a1,a1,22504
    7150:	0e000724 	jal	0x8001c90
    7154:	24040082 	li	a0,130
    7158:	8f92003c 	lw	s2,60(gp)
    715c:	00003021 	move	a2,zero
    7160:	0a0007ef 	j	0x8001fbc
    7164:	af86004c 	sw	a2,76(gp)
    7168:	3c040800 	lui	a0,0x800
    716c:	248457e8 	addiu	a0,a0,22504
    7170:	8cc20038 	lw	v0,56(a2)
    7174:	0e000732 	jal	0x8001cc8
    7178:	8cc3003c 	lw	v1,60(a2)
    717c:	8f92003c 	lw	s2,60(gp)
    7180:	0a00094a 	j	0x8002528
    7184:	00002021 	move	a0,zero
    7188:	24040082 	li	a0,130
    718c:	3c050800 	lui	a1,0x800
    7190:	24a557e8 	addiu	a1,a1,22504
    7194:	0e000724 	jal	0x8001c90
    7198:	00000000 	nop
    719c:	8f92003c 	lw	s2,60(gp)
    71a0:	00001021 	move	v0,zero
    71a4:	0a0007ef 	j	0x8001fbc
    71a8:	af82004c 	sw	v0,76(gp)
    71ac:	8e500004 	lw	s0,4(s2)
    71b0:	8f91fde8 	lw	s1,-536(gp)
    71b4:	3c0a8000 	lui	t2,0x8000
    71b8:	ad500020 	sw	s0,32(t2)
    71bc:	92220005 	lbu	v0,5(s1)
    71c0:	02002821 	move	a1,s0
    71c4:	30460002 	andi	a2,v0,0x2
    71c8:	14c00187 	bnez	a2,0x77e8
    71cc:	2404008a 	li	a0,138
    71d0:	8f92fdec 	lw	s2,-532(gp)
    71d4:	02002821 	move	a1,s0
    71d8:	2404008d 	li	a0,141
    71dc:	924b001b 	lbu	t3,27(s2)
    71e0:	31630020 	andi	v1,t3,0x20
    71e4:	14600180 	bnez	v1,0x77e8
    71e8:	00000000 	nop
    71ec:	922d0009 	lbu	t5,9(s1)
    71f0:	240c0012 	li	t4,18
    71f4:	31a800ff 	andi	t0,t5,0xff
    71f8:	110c017b 	beq	t0,t4,0x77e8
    71fc:	24040081 	li	a0,129
    7200:	0e0006f6 	jal	0x8001bd8
    7204:	02002021 	move	a0,s0
    7208:	9245001b 	lbu	a1,27(s2)
    720c:	240e0004 	li	t6,4
    7210:	02002021 	move	a0,s0
    7214:	34a90042 	ori	t1,a1,0x42
    7218:	a249001b 	sb	t1,27(s2)
    721c:	0e000700 	jal	0x8001c00
    7220:	a22e0025 	sb	t6,37(s1)
    7224:	3c048000 	lui	a0,0x8000
    7228:	8c910178 	lw	s1,376(a0)
    722c:	0620fffe 	bltz	s1,0x7228
    7230:	24180002 	li	t8,2
    7234:	ac900140 	sw	s0,320(a0)
    7238:	a0980144 	sb	t8,324(a0)
    723c:	8f92003c 	lw	s2,60(gp)
    7240:	3c0f1000 	lui	t7,0x1000
    7244:	ac8f0178 	sw	t7,376(a0)
    7248:	0a0008f5 	j	0x80023d4
    724c:	0013102b 	sltu	v0,zero,s3
    7250:	8e500004 	lw	s0,4(s2)
    7254:	8f91fde8 	lw	s1,-536(gp)
    7258:	3c1f8000 	lui	ra,0x8000
    725c:	aff00020 	sw	s0,32(ra)
    7260:	92390005 	lbu	t9,5(s1)
    7264:	02002821 	move	a1,s0
    7268:	33270002 	andi	a3,t9,0x2
    726c:	14e0001a 	bnez	a3,0x72d8
    7270:	2404008a 	li	a0,138
    7274:	92260009 	lbu	a2,9(s1)
    7278:	24120012 	li	s2,18
    727c:	30c400ff 	andi	a0,a2,0xff
    7280:	10920111 	beq	a0,s2,0x76c8
    7284:	00000000 	nop
    7288:	92230009 	lbu	v1,9(s1)
    728c:	240a0004 	li	t2,4
    7290:	306200ff 	andi	v0,v1,0xff
    7294:	104a010c 	beq	v0,t2,0x76c8
    7298:	00000000 	nop
    729c:	0e0006f6 	jal	0x8001bd8
    72a0:	02002021 	move	a0,s0
    72a4:	8f88fdec 	lw	t0,-532(gp)
    72a8:	240cfffe 	li	t4,-2
    72ac:	02002021 	move	a0,s0
    72b0:	910e001b 	lbu	t6,27(t0)
    72b4:	35cd0020 	ori	t5,t6,0x20
    72b8:	a10d001b 	sb	t5,27(t0)
    72bc:	a2320009 	sb	s2,9(s1)
    72c0:	922b0005 	lbu	t3,5(s1)
    72c4:	016c9024 	and	s2,t3,t4
    72c8:	0e000700 	jal	0x8001c00
    72cc:	a2320005 	sb	s2,5(s1)
    72d0:	02002821 	move	a1,s0
    72d4:	00002021 	move	a0,zero
    72d8:	0e0007ba 	jal	0x8001ee8
    72dc:	00000000 	nop
    72e0:	0a0008f4 	j	0x80023d0
    72e4:	8f92003c 	lw	s2,60(gp)
    72e8:	8e510004 	lw	s1,4(s2)
    72ec:	3c028000 	lui	v0,0x8000
    72f0:	3c100800 	lui	s0,0x800
    72f4:	261057e8 	addiu	s0,s0,22504
    72f8:	ac510020 	sw	s1,32(v0)
    72fc:	3c010800 	lui	at,0x800
    7300:	ac3157e8 	sw	s1,22504(at)
    7304:	92460003 	lbu	a2,3(s2)
    7308:	30c40004 	andi	a0,a2,0x4
    730c:	10800169 	beqz	a0,0x78b4
    7310:	8f84fde8 	lw	a0,-536(gp)
    7314:	24020006 	li	v0,6
    7318:	a0820009 	sb	v0,9(a0)
    731c:	924d001b 	lbu	t5,27(s2)
    7320:	2408ffc0 	li	t0,-64
    7324:	31ac003f 	andi	t4,t5,0x3f
    7328:	01885825 	or	t3,t4,t0
    732c:	a08b0008 	sb	t3,8(a0)
    7330:	92430003 	lbu	v1,3(s2)
    7334:	306a0001 	andi	t2,v1,0x1
    7338:	15400160 	bnez	t2,0x78bc
    733c:	00000000 	nop
    7340:	8e420008 	lw	v0,8(s2)
    7344:	ae020008 	sw	v0,8(s0)
    7348:	3c020800 	lui	v0,0x800
    734c:	8c4257f0 	lw	v0,22512(v0)
    7350:	1040015f 	beqz	v0,0x78d0
    7354:	8f8efdec 	lw	t6,-532(gp)
    7358:	000281c2 	srl	s0,v0,0x7
    735c:	8f85fde8 	lw	a1,-536(gp)
    7360:	a5d0000c 	sh	s0,12(t6)
    7364:	8e5f000c 	lw	ra,12(s2)
    7368:	240f0001 	li	t7,1
    736c:	24090014 	li	t1,20
    7370:	addf002c 	sw	ra,44(t6)
    7374:	8e590010 	lw	t9,16(s2)
    7378:	add9001c 	sw	t9,28(t6)
    737c:	96470016 	lhu	a3,22(s2)
    7380:	a5c7003c 	sh	a3,60(t6)
    7384:	96580014 	lhu	t8,20(s2)
    7388:	a5d8003e 	sh	t8,62(t6)
    738c:	acaf000c 	sw	t7,12(a1)
    7390:	a4af0010 	sh	t7,16(a1)
    7394:	a4af0012 	sh	t7,18(a1)
    7398:	a4af0014 	sh	t7,20(a1)
    739c:	a4af0016 	sh	t7,22(a1)
    73a0:	12600163 	beqz	s3,0x7930
    73a4:	a1c90011 	sb	t1,17(t6)
    73a8:	92440003 	lbu	a0,3(s2)
    73ac:	30920002 	andi	s2,a0,0x2
    73b0:	2e530001 	sltiu	s3,s2,1
    73b4:	8f92003c 	lw	s2,60(gp)
    73b8:	26620008 	addiu	v0,s3,8
    73bc:	0a0007ef 	j	0x8001fbc
    73c0:	af82004c 	sw	v0,76(gp)
    73c4:	8e460004 	lw	a2,4(s2)
    73c8:	3c058000 	lui	a1,0x8000
    73cc:	3c048008 	lui	a0,0x8008
    73d0:	aca60020 	sw	a2,32(a1)
    73d4:	8e470008 	lw	a3,8(s2)
    73d8:	90890000 	lbu	t1,0(a0)
    73dc:	24110050 	li	s1,80
    73e0:	312200ff 	andi	v0,t1,0xff
    73e4:	105100bc 	beq	v0,s1,0x76d8
    73e8:	24050088 	li	a1,136
    73ec:	3c048000 	lui	a0,0x8000
    73f0:	8c8f01b8 	lw	t7,440(a0)
    73f4:	05e0fffe 	bltz	t7,0x73f0
    73f8:	0013802b 	sltu	s0,zero,s3
    73fc:	3c184009 	lui	t8,0x4009
    7400:	00b81025 	or	v0,a1,t8
    7404:	af90004c 	sw	s0,76(gp)
    7408:	3c101000 	lui	s0,0x1000
    740c:	ac860180 	sw	a2,384(a0)
    7410:	ac870184 	sw	a3,388(a0)
    7414:	ac820188 	sw	v0,392(a0)
    7418:	ac9001b8 	sw	s0,440(a0)
    741c:	0a0007f0 	j	0x8001fc0
    7420:	8f860030 	lw	a2,48(gp)
    7424:	8e450004 	lw	a1,4(s2)
    7428:	3c068000 	lui	a2,0x8000
    742c:	3c098008 	lui	t1,0x8008
    7430:	acc50020 	sw	a1,32(a2)
    7434:	913f0000 	lbu	ra,0(t1)
    7438:	24040050 	li	a0,80
    743c:	33f900ff 	andi	t9,ra,0xff
    7440:	132400b4 	beq	t9,a0,0x7714
    7444:	24060088 	li	a2,136
    7448:	3c048000 	lui	a0,0x8000
    744c:	8c8a01b8 	lw	t2,440(a0)
    7450:	0540fffe 	bltz	t2,0x744c
    7454:	3c0e400e 	lui	t6,0x400e
    7458:	00ce6825 	or	t5,a2,t6
    745c:	3c081000 	lui	t0,0x1000
    7460:	ac850180 	sw	a1,384(a0)
    7464:	ac800184 	sw	zero,388(a0)
    7468:	ac8d0188 	sw	t5,392(a0)
    746c:	ac8801b8 	sw	t0,440(a0)
    7470:	912b0000 	lbu	t3,0(t1)
    7474:	240cff80 	li	t4,-128
    7478:	24040004 	li	a0,4
    747c:	016c1825 	or	v1,t3,t4
    7480:	24060030 	li	a2,48
    7484:	0e000666 	jal	0x8001998
    7488:	a1230000 	sb	v1,0(t1)
    748c:	0a0008f4 	j	0x80023d0
    7490:	8f92003c 	lw	s2,60(gp)
    7494:	8e500004 	lw	s0,4(s2)
    7498:	8f91fdec 	lw	s1,-532(gp)
    749c:	3c0f8000 	lui	t7,0x8000
    74a0:	adf00020 	sw	s0,32(t7)
    74a4:	9225001b 	lbu	a1,27(s1)
    74a8:	30a90010 	andi	t1,a1,0x10
    74ac:	1120007c 	beqz	t1,0x76a0
    74b0:	24030081 	li	v1,129
    74b4:	3c048000 	lui	a0,0x8000
    74b8:	8c8701b8 	lw	a3,440(a0)
    74bc:	04e0fffe 	bltz	a3,0x74b8
    74c0:	3c1f401f 	lui	ra,0x401f
    74c4:	ac900180 	sw	s0,384(a0)
    74c8:	007f1025 	or	v0,v1,ra
    74cc:	0013c82b 	sltu	t9,zero,s3
    74d0:	3c101000 	lui	s0,0x1000
    74d4:	ac800184 	sw	zero,388(a0)
    74d8:	af99004c 	sw	t9,76(gp)
    74dc:	ac820188 	sw	v0,392(a0)
    74e0:	ac9001b8 	sw	s0,440(a0)
    74e4:	0a0007f0 	j	0x8001fc0
    74e8:	8f860030 	lw	a2,48(gp)
    74ec:	8e44001c 	lw	a0,28(s2)
    74f0:	0e0006e1 	jal	0x8001b84
    74f4:	00000000 	nop
    74f8:	104000fc 	beqz	v0,0x78ec
    74fc:	00403821 	move	a3,v0
    7500:	8f92003c 	lw	s2,60(gp)
    7504:	24060089 	li	a2,137
    7508:	3c058000 	lui	a1,0x8000
    750c:	8cae01b8 	lw	t6,440(a1)
    7510:	05c0fffe 	bltz	t6,0x750c
    7514:	00000000 	nop
    7518:	aca70180 	sw	a3,384(a1)
    751c:	8e50001c 	lw	s0,28(s2)
    7520:	3c114001 	lui	s1,0x4001
    7524:	0013782b 	sltu	t7,zero,s3
    7528:	00d13825 	or	a3,a2,s1
    752c:	3c131000 	lui	s3,0x1000
    7530:	acb00184 	sw	s0,388(a1)
    7534:	af8f004c 	sw	t7,76(gp)
    7538:	aca70188 	sw	a3,392(a1)
    753c:	acb301b8 	sw	s3,440(a1)
    7540:	0a0007f0 	j	0x8001fc0
    7544:	8f860030 	lw	a2,48(gp)
    7548:	96590002 	lhu	t9,2(s2)
    754c:	3c100800 	lui	s0,0x800
    7550:	261057e8 	addiu	s0,s0,22504
    7554:	33380004 	andi	t8,t9,0x4
    7558:	130000a7 	beqz	t8,0x77f8
    755c:	3c046000 	lui	a0,0x6000
    7560:	8e5f001c 	lw	ra,28(s2)
    7564:	3c068000 	lui	a2,0x8000
    7568:	acdf0020 	sw	ra,32(a2)
    756c:	3c010800 	lui	at,0x800
    7570:	ac3f57e8 	sw	ra,22504(at)
    7574:	964f0002 	lhu	t7,2(s2)
    7578:	31e70001 	andi	a3,t7,0x1
    757c:	14e000e7 	bnez	a3,0x791c
    7580:	00000000 	nop
    7584:	8e420004 	lw	v0,4(s2)
    7588:	ae020008 	sw	v0,8(s0)
    758c:	3c100800 	lui	s0,0x800
    7590:	8e1057f0 	lw	s0,22512(s0)
    7594:	120000dd 	beqz	s0,0x790c
    7598:	3c068000 	lui	a2,0x8000
    759c:	8f85fde8 	lw	a1,-536(gp)
    75a0:	24100001 	li	s0,1
    75a4:	8cbf0018 	lw	ra,24(a1)
    75a8:	8f91fdec 	lw	s1,-532(gp)
    75ac:	8f89fde4 	lw	t1,-540(gp)
    75b0:	03e6c825 	or	t9,ra,a2
    75b4:	acb90018 	sw	t9,24(a1)
    75b8:	a0a00005 	sb	zero,5(a1)
    75bc:	acb0000c 	sw	s0,12(a1)
    75c0:	3c180800 	lui	t8,0x800
    75c4:	8f1857f0 	lw	t8,22512(t8)
    75c8:	8f87003c 	lw	a3,60(gp)
    75cc:	a4b00010 	sh	s0,16(a1)
    75d0:	001879c2 	srl	t7,t8,0x7
    75d4:	a4b00012 	sh	s0,18(a1)
    75d8:	a4b00014 	sh	s0,20(a1)
    75dc:	a4b00016 	sh	s0,22(a1)
    75e0:	a62f000c 	sh	t7,12(s1)
    75e4:	8cee0008 	lw	t6,8(a3)
    75e8:	8f8d003c 	lw	t5,60(gp)
    75ec:	8f8c003c 	lw	t4,60(gp)
    75f0:	ae2e002c 	sw	t6,44(s1)
    75f4:	8da8000c 	lw	t0,12(t5)
    75f8:	24070002 	li	a3,2
    75fc:	ae28001c 	sw	t0,28(s1)
    7600:	918b0010 	lbu	t3,16(t4)
    7604:	a22b0011 	sb	t3,17(s1)
    7608:	8f83003c 	lw	v1,60(gp)
    760c:	906a0011 	lbu	t2,17(v1)
    7610:	a12a0008 	sb	t2,8(t1)
    7614:	8f82003c 	lw	v0,60(gp)
    7618:	90440012 	lbu	a0,18(v0)
    761c:	a0a4004e 	sb	a0,78(a1)
    7620:	8f92003c 	lw	s2,60(gp)
    7624:	92460013 	lbu	a2,19(s2)
    7628:	a2260012 	sb	a2,18(s1)
    762c:	8f92003c 	lw	s2,60(gp)
    7630:	965f0014 	lhu	ra,20(s2)
    7634:	a63f003c 	sh	ra,60(s1)
    7638:	96590016 	lhu	t9,22(s2)
    763c:	a639003e 	sh	t9,62(s1)
    7640:	8e580018 	lw	t8,24(s2)
    7644:	ae380014 	sw	t8,20(s1)
    7648:	5660fd4c 	bnezl	s3,0x6b7c
    764c:	af87004c 	sw	a3,76(gp)
    7650:	3c050800 	lui	a1,0x800
    7654:	24a557e8 	addiu	a1,a1,22504
    7658:	0e000705 	jal	0x8001c14
    765c:	00002021 	move	a0,zero
    7660:	8f92003c 	lw	s2,60(gp)
    7664:	00003821 	move	a3,zero
    7668:	0a0007ef 	j	0x8001fbc
    766c:	af87004c 	sw	a3,76(gp)
    7670:	3c050800 	lui	a1,0x800
    7674:	24a557e8 	addiu	a1,a1,22504
    7678:	0e000724 	jal	0x8001c90
    767c:	24040082 	li	a0,130
    7680:	8f92003c 	lw	s2,60(gp)
    7684:	0a0008d7 	j	0x800235c
    7688:	00003821 	move	a3,zero
    768c:	0e000e07 	jal	0x800381c
    7690:	00000000 	nop
    7694:	8f92003c 	lw	s2,60(gp)
    7698:	0a00094a 	j	0x8002528
    769c:	00002021 	move	a0,zero
    76a0:	0e0006f6 	jal	0x8001bd8
    76a4:	02002021 	move	a0,s0
    76a8:	9232001b 	lbu	s2,27(s1)
    76ac:	02002021 	move	a0,s0
    76b0:	36580010 	ori	t8,s2,0x10
    76b4:	0e000700 	jal	0x8001c00
    76b8:	a238001b 	sb	t8,27(s1)
    76bc:	8f92003c 	lw	s2,60(gp)
    76c0:	0a000a3d 	j	0x80028f4
    76c4:	00001821 	move	v1,zero
    76c8:	0e0007ba 	jal	0x8001ee8
    76cc:	24040081 	li	a0,129
    76d0:	0a0008f4 	j	0x80023d0
    76d4:	8f92003c 	lw	s2,60(gp)
    76d8:	9243000c 	lbu	v1,12(s2)
    76dc:	306a0001 	andi	t2,v1,0x1
    76e0:	11400003 	beqz	t2,0x76f0
    76e4:	00000000 	nop
    76e8:	964b000e 	lhu	t3,14(s2)
    76ec:	a48b002c 	sh	t3,44(a0)
    76f0:	9248000c 	lbu	t0,12(s2)
    76f4:	310c0002 	andi	t4,t0,0x2
    76f8:	1180ff3c 	beqz	t4,0x73ec
    76fc:	00002821 	move	a1,zero
    7700:	964e0012 	lhu	t6,18(s2)
    7704:	8e4d0014 	lw	t5,20(s2)
    7708:	a48e001a 	sh	t6,26(a0)
    770c:	0a000a0b 	j	0x800282c
    7710:	ac8d001c 	sw	t5,28(a0)
    7714:	8f83005c 	lw	v1,92(gp)
    7718:	8f870054 	lw	a3,84(gp)
    771c:	1067ff4a 	beq	v1,a3,0x7448
    7720:	00003021 	move	a2,zero
    7724:	3c080800 	lui	t0,0x800
    7728:	2508576c 	addiu	t0,t0,22380
    772c:	000320c0 	sll	a0,v1,0x3
    7730:	00883021 	addu	a2,a0,t0
    7734:	8cd10000 	lw	s1,0(a2)
    7738:	122500c8 	beq	s1,a1,0x7a5c
    773c:	24620001 	addiu	v0,v1,1
    7740:	3043000f 	andi	v1,v0,0xf
    7744:	1467fffa 	bne	v1,a3,0x7730
    7748:	000320c0 	sll	a0,v1,0x3
    774c:	0a000a22 	j	0x8002888
    7750:	00003021 	move	a2,zero
    7754:	3c050800 	lui	a1,0x800
    7758:	24a557e8 	addiu	a1,a1,22504
    775c:	0e000724 	jal	0x8001c90
    7760:	2404008b 	li	a0,139
    7764:	8f92003c 	lw	s2,60(gp)
    7768:	0a0008d7 	j	0x800235c
    776c:	0013382b 	sltu	a3,zero,s3
    7770:	3c0c0800 	lui	t4,0x800
    7774:	8d8c57e8 	lw	t4,22504(t4)
    7778:	24d9fffe 	addiu	t9,a2,-2
    777c:	25910100 	addiu	s1,t4,256
    7780:	322b007f 	andi	t3,s1,0x7f
    7784:	01679021 	addu	s2,t3,a3
    7788:	02331024 	and	v0,s1,s3
    778c:	ad020028 	sw	v0,40(t0)
    7790:	ae4600d0 	sw	a2,208(s2)
    7794:	ae4000d4 	sw	zero,212(s2)
    7798:	0a000840 	j	0x8002100
    779c:	ae59001c 	sw	t9,28(s2)
    77a0:	acc00054 	sw	zero,84(a2)
    77a4:	3c090800 	lui	t1,0x800
    77a8:	8d2957e8 	lw	t1,22504(t1)
    77ac:	3c05800c 	lui	a1,0x800c
    77b0:	34a80100 	ori	t0,a1,0x100
    77b4:	ace90028 	sw	t1,40(a3)
    77b8:	8e500014 	lw	s0,20(s2)
    77bc:	ad1000d0 	sw	s0,208(t0)
    77c0:	8e4e0014 	lw	t6,20(s2)
    77c4:	ad0e00d4 	sw	t6,212(t0)
    77c8:	8e4d0010 	lw	t5,16(s2)
    77cc:	25a7fffe 	addiu	a3,t5,-2
    77d0:	0a00087c 	j	0x80021f0
    77d4:	ad07001c 	sw	a3,28(t0)
    77d8:	5490fda3 	bnel	a0,s0,0x6e68
    77dc:	24074000 	li	a3,16384
    77e0:	0a0008aa 	j	0x80022a8
    77e4:	24071000 	li	a3,4096
    77e8:	0e0007ae 	jal	0x8001eb8
    77ec:	00000000 	nop
    77f0:	0a0008f4 	j	0x80023d0
    77f4:	8f92003c 	lw	s2,60(gp)
    77f8:	8c83442c 	lw	v1,17452(a0)
    77fc:	3c05dead 	lui	a1,0xdead
    7800:	34b2beef 	ori	s2,a1,0xbeef
    7804:	3c010800 	lui	at,0x800
    7808:	ac2057e8 	sw	zero,22504(at)
    780c:	1072004f 	beq	v1,s2,0x794c
    7810:	00000000 	nop
    7814:	3c046c62 	lui	a0,0x6c62
    7818:	34827970 	ori	v0,a0,0x7970
    781c:	14620008 	bne	v1,v0,0x7840
    7820:	24040002 	li	a0,2
    7824:	978a0058 	lhu	t2,88(gp)
    7828:	97830050 	lhu	v1,80(gp)
    782c:	02002821 	move	a1,s0
    7830:	0143482b 	sltu	t1,t2,v1
    7834:	11200019 	beqz	t1,0x789c
    7838:	24040092 	li	a0,146
    783c:	24040002 	li	a0,2
    7840:	0e0005d6 	jal	0x8001758
    7844:	24050200 	li	a1,512
    7848:	3c0b8000 	lui	t3,0x8000
    784c:	ad620020 	sw	v0,32(t3)
    7850:	3c010800 	lui	at,0x800
    7854:	ac2257e8 	sw	v0,22504(at)
    7858:	1040000d 	beqz	v0,0x7890
    785c:	8f8e003c 	lw	t6,60(gp)
    7860:	240c0028 	li	t4,40
    7864:	24040003 	li	a0,3
    7868:	91cd0010 	lbu	t5,16(t6)
    786c:	31a800ff 	andi	t0,t5,0xff
    7870:	550c0001 	bnel	t0,t4,0x7878
    7874:	24040001 	li	a0,1
    7878:	0e00004a 	jal	0x8000128
    787c:	00000000 	nop
    7880:	10400004 	beqz	v0,0x7894
    7884:	24040083 	li	a0,131
    7888:	0a000a6d 	j	0x80029b4
    788c:	8f92003c 	lw	s2,60(gp)
    7890:	24040083 	li	a0,131
    7894:	3c050800 	lui	a1,0x800
    7898:	24a557e8 	addiu	a1,a1,22504
    789c:	0e000705 	jal	0x8001c14
    78a0:	00000000 	nop
    78a4:	8f92003c 	lw	s2,60(gp)
    78a8:	0013382b 	sltu	a3,zero,s3
    78ac:	0a0007ef 	j	0x8001fbc
    78b0:	af87004c 	sw	a3,76(gp)
    78b4:	0a0009d6 	j	0x8002758
    78b8:	24020012 	li	v0,18
    78bc:	8e440008 	lw	a0,8(s2)
    78c0:	0e0006e1 	jal	0x8001b84
    78c4:	00000000 	nop
    78c8:	0a0009e2 	j	0x8002788
    78cc:	ae020008 	sw	v0,8(s0)
    78d0:	3c050800 	lui	a1,0x800
    78d4:	24a557e8 	addiu	a1,a1,22504
    78d8:	0e0006d5 	jal	0x8001b54
    78dc:	24040087 	li	a0,135
    78e0:	8f92003c 	lw	s2,60(gp)
    78e4:	0a0009ff 	j	0x80027fc
    78e8:	0013102b 	sltu	v0,zero,s3
    78ec:	24040004 	li	a0,4
    78f0:	0e0005d6 	jal	0x8001758
    78f4:	24050030 	li	a1,48
    78f8:	14400017 	bnez	v0,0x7958
    78fc:	00403821 	move	a3,v0
    7900:	8f92003c 	lw	s2,60(gp)
    7904:	0a000a52 	j	0x8002948
    7908:	24060083 	li	a2,131
    790c:	3c050800 	lui	a1,0x800
    7910:	24a557e8 	addiu	a1,a1,22504
    7914:	0a000b37 	j	0x8002cdc
    7918:	24040087 	li	a0,135
    791c:	8e440004 	lw	a0,4(s2)
    7920:	0e0006e1 	jal	0x8001b84
    7924:	00000000 	nop
    7928:	0a000a73 	j	0x80029cc
    792c:	ae020008 	sw	v0,8(s0)
    7930:	3c050800 	lui	a1,0x800
    7934:	24a557e8 	addiu	a1,a1,22504
    7938:	0e000724 	jal	0x8001c90
    793c:	24040082 	li	a0,130
    7940:	8f92003c 	lw	s2,60(gp)
    7944:	0a0009ff 	j	0x80027fc
    7948:	00001021 	move	v0,zero
    794c:	8c83442c 	lw	v1,17452(a0)
    7950:	0a000b16 	j	0x8002c58
    7954:	3c046c62 	lui	a0,0x6c62
    7958:	8f92003c 	lw	s2,60(gp)
    795c:	3c088008 	lui	t0,0x8008
    7960:	3c0c8000 	lui	t4,0x8000
    7964:	240b0050 	li	t3,80
    7968:	240a0001 	li	t2,1
    796c:	ad820020 	sw	v0,32(t4)
    7970:	a10b0000 	sb	t3,0(t0)
    7974:	a10a0001 	sb	t2,1(t0)
    7978:	92490004 	lbu	t1,4(s2)
    797c:	a1090018 	sb	t1,24(t0)
    7980:	92440005 	lbu	a0,5(s2)
    7984:	a1040019 	sb	a0,25(t0)
    7988:	92430006 	lbu	v1,6(s2)
    798c:	3c040800 	lui	a0,0x800
    7990:	2484576c 	addiu	a0,a0,22380
    7994:	a103001a 	sb	v1,26(t0)
    7998:	92420007 	lbu	v0,7(s2)
    799c:	3c030800 	lui	v1,0x800
    79a0:	24635768 	addiu	v1,v1,22376
    79a4:	a102001b 	sb	v0,27(t0)
    79a8:	92450008 	lbu	a1,8(s2)
    79ac:	a105001c 	sb	a1,28(t0)
    79b0:	92460009 	lbu	a2,9(s2)
    79b4:	a106001d 	sb	a2,29(t0)
    79b8:	925f000a 	lbu	ra,10(s2)
    79bc:	a11f001e 	sb	ra,30(t0)
    79c0:	9259000b 	lbu	t9,11(s2)
    79c4:	a119001f 	sb	t9,31(t0)
    79c8:	9258000c 	lbu	t8,12(s2)
    79cc:	a1180020 	sb	t8,32(t0)
    79d0:	9251000d 	lbu	s1,13(s2)
    79d4:	a1110021 	sb	s1,33(t0)
    79d8:	9250000e 	lbu	s0,14(s2)
    79dc:	a1100022 	sb	s0,34(t0)
    79e0:	924f000f 	lbu	t7,15(s2)
    79e4:	a10f0023 	sb	t7,35(t0)
    79e8:	924e0010 	lbu	t6,16(s2)
    79ec:	a10e0024 	sb	t6,36(t0)
    79f0:	924d0011 	lbu	t5,17(s2)
    79f4:	a10d0025 	sb	t5,37(t0)
    79f8:	964c0014 	lhu	t4,20(s2)
    79fc:	a50c0028 	sh	t4,40(t0)
    7a00:	964b0016 	lhu	t3,22(s2)
    7a04:	8f8a0054 	lw	t2,84(gp)
    7a08:	8f98005c 	lw	t8,92(gp)
    7a0c:	a50b002a 	sh	t3,42(t0)
    7a10:	96490018 	lhu	t1,24(s2)
    7a14:	000a10c0 	sll	v0,t2,0x3
    7a18:	25450001 	addiu	a1,t2,1
    7a1c:	a509002c 	sh	t1,44(t0)
    7a20:	8e46001c 	lw	a2,28(s2)
    7a24:	0044c821 	addu	t9,v0,a0
    7a28:	0043f821 	addu	ra,v0,v1
    7a2c:	30a5000f 	andi	a1,a1,0xf
    7a30:	afe60000 	sw	a2,0(ra)
    7a34:	af270000 	sw	a3,0(t9)
    7a38:	10b80003 	beq	a1,t8,0x7a48
    7a3c:	af850054 	sw	a1,84(gp)
    7a40:	0a000a52 	j	0x8002948
    7a44:	00003021 	move	a2,zero
    7a48:	24ad0001 	addiu	t5,a1,1
    7a4c:	31a8000f 	andi	t0,t5,0xf
    7a50:	00003021 	move	a2,zero
    7a54:	0a000a52 	j	0x8002948
    7a58:	af88005c 	sw	t0,92(gp)
    7a5c:	3c070800 	lui	a3,0x800
    7a60:	24e75768 	addiu	a3,a3,22376
    7a64:	00879021 	addu	s2,a0,a3
    7a68:	acc00000 	sw	zero,0(a2)
    7a6c:	00003021 	move	a2,zero
    7a70:	0a000a22 	j	0x8002888
    7a74:	ae400000 	sw	zero,0(s2)
    7a78:	3c048201 	lui	a0,0x8201
    7a7c:	3c036000 	lui	v1,0x6000
    7a80:	34820e02 	ori	v0,a0,0xe02
    7a84:	ac603d68 	sw	zero,15720(v1)
    7a88:	af80007c 	sw	zero,124(gp)
    7a8c:	03e00008 	jr	ra
    7a90:	ac623d6c 	sw	v0,15724(v1)
    7a94:	27bdffe8 	addiu	sp,sp,-24
    7a98:	afb00010 	sw	s0,16(sp)
    7a9c:	3090ffff 	andi	s0,a0,0xffff
    7aa0:	00101842 	srl	v1,s0,0x1
    7aa4:	2c620041 	sltiu	v0,v1,65
    7aa8:	afbf0014 	sw	ra,20(sp)
    7aac:	14400002 	bnez	v0,0x7ab8
    7ab0:	24040080 	li	a0,128
    7ab4:	24030040 	li	v1,64
    7ab8:	3c010800 	lui	at,0x800
    7abc:	ac300060 	sw	s0,96(at)
    7ac0:	3c010800 	lui	at,0x800
    7ac4:	ac230064 	sw	v1,100(at)
    7ac8:	0e000e10 	jal	0x8003840
    7acc:	00602821 	move	a1,v1
    7ad0:	244802bf 	addiu	t0,v0,703
    7ad4:	2409ff80 	li	t1,-128
    7ad8:	01092824 	and	a1,t0,t1
    7adc:	00103980 	sll	a3,s0,0x6
    7ae0:	00103040 	sll	a2,s0,0x1
    7ae4:	8fbf0014 	lw	ra,20(sp)
    7ae8:	8fb00010 	lw	s0,16(sp)
    7aec:	00a72021 	addu	a0,a1,a3
    7af0:	00861821 	addu	v1,a0,a2
    7af4:	af830064 	sw	v1,100(gp)
    7af8:	3c010800 	lui	at,0x800
    7afc:	ac250058 	sw	a1,88(at)
    7b00:	3c010800 	lui	at,0x800
    7b04:	ac24005c 	sw	a0,92(at)
    7b08:	03e00008 	jr	ra
    7b0c:	27bd0018 	addiu	sp,sp,24
    7b10:	308300ff 	andi	v1,a0,0xff
    7b14:	30c6ffff 	andi	a2,a2,0xffff
    7b18:	30e400ff 	andi	a0,a3,0xff
    7b1c:	3c088000 	lui	t0,0x8000
    7b20:	8d0201b8 	lw	v0,440(t0)
    7b24:	0440fffe 	bltz	v0,0x7b20
    7b28:	00035400 	sll	t2,v1,0x10
    7b2c:	01443825 	or	a3,t2,a0
    7b30:	3c096000 	lui	t1,0x6000
    7b34:	00e92025 	or	a0,a3,t1
    7b38:	3c031000 	lui	v1,0x1000
    7b3c:	ad050180 	sw	a1,384(t0)
    7b40:	ad060184 	sw	a2,388(t0)
    7b44:	ad040188 	sw	a0,392(t0)
    7b48:	03e00008 	jr	ra
    7b4c:	ad0301b8 	sw	v1,440(t0)
    7b50:	8f86003c 	lw	a2,60(gp)
    7b54:	3c096012 	lui	t1,0x6012
    7b58:	35270010 	ori	a3,t1,0x10
    7b5c:	8ccb0004 	lw	t3,4(a2)
    7b60:	3c0c600e 	lui	t4,0x600e
    7b64:	35850010 	ori	a1,t4,0x10
    7b68:	316a0006 	andi	t2,t3,0x6
    7b6c:	2d480001 	sltiu	t0,t2,1
    7b70:	ace800c4 	sw	t0,196(a3)
    7b74:	8cc40004 	lw	a0,4(a2)
    7b78:	aca43180 	sw	a0,12672(a1)
    7b7c:	8cc20008 	lw	v0,8(a2)
    7b80:	94c30002 	lhu	v1,2(a2)
    7b84:	aca23184 	sw	v0,12676(a1)
    7b88:	03e00008 	jr	ra
    7b8c:	a7830074 	sh	v1,116(gp)
    7b90:	8f85003c 	lw	a1,60(gp)
    7b94:	8f87ff40 	lw	a3,-192(gp)
    7b98:	8f86ff48 	lw	a2,-184(gp)
    7b9c:	8cae0004 	lw	t6,4(a1)
    7ba0:	3c0f6012 	lui	t7,0x6012
    7ba4:	35e80010 	ori	t0,t7,0x10
    7ba8:	acee0068 	sw	t6,104(a3)
    7bac:	8cad0008 	lw	t5,8(a1)
    7bb0:	aced006c 	sw	t5,108(a3)
    7bb4:	8cac0010 	lw	t4,16(a1)
    7bb8:	accc004c 	sw	t4,76(a2)
    7bbc:	8cab000c 	lw	t3,12(a1)
    7bc0:	accb0048 	sw	t3,72(a2)
    7bc4:	94ca0054 	lhu	t2,84(a2)
    7bc8:	3c020800 	lui	v0,0x800
    7bcc:	8c420044 	lw	v0,68(v0)
    7bd0:	25490001 	addiu	t1,t2,1
    7bd4:	a4c90054 	sh	t1,84(a2)
    7bd8:	94c40054 	lhu	a0,84(a2)
    7bdc:	3083ffff 	andi	v1,a0,0xffff
    7be0:	10620017 	beq	v1,v0,0x7c40
    7be4:	00000000 	nop
    7be8:	3c020800 	lui	v0,0x800
    7bec:	8c420040 	lw	v0,64(v0)
    7bf0:	a4c20052 	sh	v0,82(a2)
    7bf4:	8ca30018 	lw	v1,24(a1)
    7bf8:	ace30030 	sw	v1,48(a3)
    7bfc:	8ca20014 	lw	v0,20(a1)
    7c00:	ace2002c 	sw	v0,44(a3)
    7c04:	8cb90018 	lw	t9,24(a1)
    7c08:	acf90038 	sw	t9,56(a3)
    7c0c:	8cb80014 	lw	t8,20(a1)
    7c10:	24050001 	li	a1,1
    7c14:	acf80034 	sw	t8,52(a3)
    7c18:	8d0600bc 	lw	a2,188(t0)
    7c1c:	50c50019 	beql	a2,a1,0x7c84
    7c20:	8d0200b4 	lw	v0,180(t0)
    7c24:	8d0200b8 	lw	v0,184(t0)
    7c28:	a4e20048 	sh	v0,72(a3)
    7c2c:	94e40048 	lhu	a0,72(a3)
    7c30:	a4e4004a 	sh	a0,74(a3)
    7c34:	94e800da 	lhu	t0,218(a3)
    7c38:	03e00008 	jr	ra
    7c3c:	3102ffff 	andi	v0,t0,0xffff
    7c40:	3c020800 	lui	v0,0x800
    7c44:	8c420024 	lw	v0,36(v0)
    7c48:	a4c00054 	sh	zero,84(a2)
    7c4c:	a4c20052 	sh	v0,82(a2)
    7c50:	8ca30018 	lw	v1,24(a1)
    7c54:	ace30030 	sw	v1,48(a3)
    7c58:	8ca20014 	lw	v0,20(a1)
    7c5c:	ace2002c 	sw	v0,44(a3)
    7c60:	8cb90018 	lw	t9,24(a1)
    7c64:	acf90038 	sw	t9,56(a3)
    7c68:	8cb80014 	lw	t8,20(a1)
    7c6c:	24050001 	li	a1,1
    7c70:	acf80034 	sw	t8,52(a3)
    7c74:	8d0600bc 	lw	a2,188(t0)
    7c78:	54c5ffeb 	bnel	a2,a1,0x7c28
    7c7c:	8d0200b8 	lw	v0,184(t0)
    7c80:	8d0200b4 	lw	v0,180(t0)
    7c84:	a4e20048 	sh	v0,72(a3)
    7c88:	94e40048 	lhu	a0,72(a3)
    7c8c:	a4e4004a 	sh	a0,74(a3)
    7c90:	94e800da 	lhu	t0,218(a3)
    7c94:	03e00008 	jr	ra
    7c98:	3102ffff 	andi	v0,t0,0xffff
    7c9c:	8f86003c 	lw	a2,60(gp)
    7ca0:	3c048000 	lui	a0,0x8000
    7ca4:	8cc90008 	lw	t1,8(a2)
    7ca8:	8cc80008 	lw	t0,8(a2)
    7cac:	000929c0 	sll	a1,t1,0x7
    7cb0:	000839c0 	sll	a3,t0,0x7
    7cb4:	ac870020 	sw	a3,32(a0)
    7cb8:	90c30007 	lbu	v1,7(a2)
    7cbc:	30620004 	andi	v0,v1,0x4
    7cc0:	1040003a 	beqz	v0,0x7dac
    7cc4:	af850078 	sw	a1,120(gp)
    7cc8:	90cb0007 	lbu	t3,7(a2)
    7ccc:	316a0008 	andi	t2,t3,0x8
    7cd0:	11400039 	beqz	t2,0x7db8
    7cd4:	8f87ff44 	lw	a3,-188(gp)
    7cd8:	8ccd000c 	lw	t5,12(a2)
    7cdc:	8cce0014 	lw	t6,20(a2)
    7ce0:	01ae602b 	sltu	t4,t5,t6
    7ce4:	11800032 	beqz	t4,0x7db0
    7ce8:	00000000 	nop
    7cec:	8cc2000c 	lw	v0,12(a2)
    7cf0:	ace20070 	sw	v0,112(a3)
    7cf4:	8ccb0018 	lw	t3,24(a2)
    7cf8:	8f85ff40 	lw	a1,-192(gp)
    7cfc:	8f88ff48 	lw	t0,-184(gp)
    7d00:	aceb0074 	sw	t3,116(a3)
    7d04:	8cca0010 	lw	t2,16(a2)
    7d08:	2402fff8 	li	v0,-8
    7d0c:	acaa00c8 	sw	t2,200(a1)
    7d10:	8cc9000c 	lw	t1,12(a2)
    7d14:	ad090060 	sw	t1,96(t0)
    7d18:	8cc4001c 	lw	a0,28(a2)
    7d1c:	aca400c0 	sw	a0,192(a1)
    7d20:	90e3007c 	lbu	v1,124(a3)
    7d24:	0062c824 	and	t9,v1,v0
    7d28:	a0f9007c 	sb	t9,124(a3)
    7d2c:	90d80007 	lbu	t8,7(a2)
    7d30:	330f0008 	andi	t7,t8,0x8
    7d34:	11e00004 	beqz	t7,0x7d48
    7d38:	00000000 	nop
    7d3c:	90ed007c 	lbu	t5,124(a3)
    7d40:	35ac0001 	ori	t4,t5,0x1
    7d44:	a0ec007c 	sb	t4,124(a3)
    7d48:	90cf0007 	lbu	t7,7(a2)
    7d4c:	31ee0001 	andi	t6,t7,0x1
    7d50:	11c00009 	beqz	t6,0x7d78
    7d54:	00000000 	nop
    7d58:	90e4007c 	lbu	a0,124(a3)
    7d5c:	24180002 	li	t8,2
    7d60:	34820002 	ori	v0,a0,0x2
    7d64:	a0e2007c 	sb	v0,124(a3)
    7d68:	90a300ec 	lbu	v1,236(a1)
    7d6c:	307900ff 	andi	t9,v1,0xff
    7d70:	13380013 	beq	t9,t8,0x7dc0
    7d74:	24080034 	li	t0,52
    7d78:	90c90007 	lbu	t1,7(a2)
    7d7c:	31260002 	andi	a2,t1,0x2
    7d80:	10c00004 	beqz	a2,0x7d94
    7d84:	00000000 	nop
    7d88:	90eb007c 	lbu	t3,124(a3)
    7d8c:	356a0004 	ori	t2,t3,0x4
    7d90:	a0ea007c 	sb	t2,124(a3)
    7d94:	90ed007d 	lbu	t5,125(a3)
    7d98:	31ac003f 	andi	t4,t5,0x3f
    7d9c:	a0ec007d 	sb	t4,125(a3)
    7da0:	94a700da 	lhu	a3,218(a1)
    7da4:	03e00008 	jr	ra
    7da8:	30e2ffff 	andi	v0,a3,0xffff
    7dac:	8f87ff44 	lw	a3,-188(gp)
    7db0:	0a000c4c 	j	0x8003130
    7db4:	8cc20014 	lw	v0,20(a2)
    7db8:	0a000c4d 	j	0x8003134
    7dbc:	ace00070 	sw	zero,112(a3)
    7dc0:	0a000c6e 	j	0x80031b8
    7dc4:	aca800cc 	sw	t0,204(a1)
    7dc8:	8f8c003c 	lw	t4,60(gp)
    7dcc:	27bdffd8 	addiu	sp,sp,-40
    7dd0:	afb3001c 	sw	s3,28(sp)
    7dd4:	afb20018 	sw	s2,24(sp)
    7dd8:	afb00010 	sw	s0,16(sp)
    7ddc:	afbf0020 	sw	ra,32(sp)
    7de0:	afb10014 	sw	s1,20(sp)
    7de4:	918f0015 	lbu	t7,21(t4)
    7de8:	3c13600e 	lui	s3,0x600e
    7dec:	36730010 	ori	s3,s3,0x10
    7df0:	31eb000f 	andi	t3,t7,0xf
    7df4:	a38b0080 	sb	t3,128(gp)
    7df8:	8d8f0004 	lw	t7,4(t4)
    7dfc:	8d8b0008 	lw	t3,8(t4)
    7e00:	959f0012 	lhu	ra,18(t4)
    7e04:	95990010 	lhu	t9,16(t4)
    7e08:	9584001a 	lhu	a0,26(t4)
    7e0c:	9598001e 	lhu	t8,30(t4)
    7e10:	958e001c 	lhu	t6,28(t4)
    7e14:	33edffff 	andi	t5,ra,0xffff
    7e18:	332affff 	andi	t2,t9,0xffff
    7e1c:	3089ffff 	andi	t1,a0,0xffff
    7e20:	3308ffff 	andi	t0,t8,0xffff
    7e24:	31c7ffff 	andi	a3,t6,0xffff
    7e28:	3c010800 	lui	at,0x800
    7e2c:	ac2d0024 	sw	t5,36(at)
    7e30:	3c010800 	lui	at,0x800
    7e34:	ac290044 	sw	t1,68(at)
    7e38:	3c010800 	lui	at,0x800
    7e3c:	ac2a0040 	sw	t2,64(at)
    7e40:	ae683178 	sw	t0,12664(s3)
    7e44:	ae67317c 	sw	a3,12668(s3)
    7e48:	91850015 	lbu	a1,21(t4)
    7e4c:	95910016 	lhu	s1,22(t4)
    7e50:	3c126012 	lui	s2,0x6012
    7e54:	36520010 	ori	s2,s2,0x10
    7e58:	30a200ff 	andi	v0,a1,0xff
    7e5c:	3230ffff 	andi	s0,s1,0xffff
    7e60:	ae623188 	sw	v0,12680(s3)
    7e64:	ae5000b4 	sw	s0,180(s2)
    7e68:	91830014 	lbu	v1,20(t4)
    7e6c:	959f0018 	lhu	ra,24(t4)
    7e70:	24060001 	li	a2,1
    7e74:	0066c804 	sllv	t9,a2,v1
    7e78:	33f8ffff 	andi	t8,ra,0xffff
    7e7c:	ae5900b8 	sw	t9,184(s2)
    7e80:	ae5800bc 	sw	t8,188(s2)
    7e84:	918e0014 	lbu	t6,20(t4)
    7e88:	af8f0068 	sw	t7,104(gp)
    7e8c:	3c086006 	lui	t0,0x6006
    7e90:	31cd00ff 	andi	t5,t6,0xff
    7e94:	ae4d00c0 	sw	t5,192(s2)
    7e98:	918a0015 	lbu	t2,21(t4)
    7e9c:	9584000e 	lhu	a0,14(t4)
    7ea0:	3c07600a 	lui	a3,0x600a
    7ea4:	314900ff 	andi	t1,t2,0xff
    7ea8:	af8b006c 	sw	t3,108(gp)
    7eac:	3084ffff 	andi	a0,a0,0xffff
    7eb0:	ae4900c8 	sw	t1,200(s2)
    7eb4:	35110010 	ori	s1,t0,0x10
    7eb8:	0e000bb5 	jal	0x8002ed4
    7ebc:	34f00410 	ori	s0,a3,0x410
    7ec0:	3c020800 	lui	v0,0x800
    7ec4:	8c420060 	lw	v0,96(v0)
    7ec8:	3c030800 	lui	v1,0x800
    7ecc:	8c630064 	lw	v1,100(v1)
    7ed0:	3c060800 	lui	a2,0x800
    7ed4:	8cc60058 	lw	a2,88(a2)
    7ed8:	3c050800 	lui	a1,0x800
    7edc:	8ca5005c 	lw	a1,92(a1)
    7ee0:	8f840064 	lw	a0,100(gp)
    7ee4:	8fbf0020 	lw	ra,32(sp)
    7ee8:	ae23004c 	sw	v1,76(s1)
    7eec:	ae65319c 	sw	a1,12700(s3)
    7ef0:	ae030054 	sw	v1,84(s0)
    7ef4:	ae4500dc 	sw	a1,220(s2)
    7ef8:	ae6231a0 	sw	v0,12704(s3)
    7efc:	ae6331a4 	sw	v1,12708(s3)
    7f00:	ae663198 	sw	a2,12696(s3)
    7f04:	ae220048 	sw	v0,72(s1)
    7f08:	8fb3001c 	lw	s3,28(sp)
    7f0c:	ae020050 	sw	v0,80(s0)
    7f10:	8fb10014 	lw	s1,20(sp)
    7f14:	ae4200e0 	sw	v0,224(s2)
    7f18:	ae4300e4 	sw	v1,228(s2)
    7f1c:	ae4600d8 	sw	a2,216(s2)
    7f20:	8fb00010 	lw	s0,16(sp)
    7f24:	8fb20018 	lw	s2,24(sp)
    7f28:	0a0004be 	j	0x80012f8
    7f2c:	27bd0028 	addiu	sp,sp,40
    7f30:	97850076 	lhu	a1,118(gp)
    7f34:	97830060 	lhu	v1,96(gp)
    7f38:	27bdffe8 	addiu	sp,sp,-24
    7f3c:	afb00010 	sw	s0,16(sp)
    7f40:	00a3102b 	sltu	v0,a1,v1
    7f44:	afbf0014 	sw	ra,20(sp)
    7f48:	24040005 	li	a0,5
    7f4c:	8f90003c 	lw	s0,60(gp)
    7f50:	10400055 	beqz	v0,0x80a8
    7f54:	24090002 	li	t1,2
    7f58:	0e0005d6 	jal	0x8001758
    7f5c:	8f850064 	lw	a1,100(gp)
    7f60:	af820078 	sw	v0,120(gp)
    7f64:	24040003 	li	a0,3
    7f68:	1040004f 	beqz	v0,0x80a8
    7f6c:	24090002 	li	t1,2
    7f70:	3c068000 	lui	a2,0x8000
    7f74:	0e00004a 	jal	0x8000128
    7f78:	acc20020 	sw	v0,32(a2)
    7f7c:	24070001 	li	a3,1
    7f80:	24082000 	li	t0,8192
    7f84:	1040004d 	beqz	v0,0x80bc
    7f88:	24040005 	li	a0,5
    7f8c:	978e0076 	lhu	t6,118(gp)
    7f90:	8f8aff44 	lw	t2,-188(gp)
    7f94:	24090050 	li	t1,80
    7f98:	25c50001 	addiu	a1,t6,1
    7f9c:	a7850076 	sh	a1,118(gp)
    7fa0:	a1490000 	sb	t1,0(t2)
    7fa4:	3c0d0800 	lui	t5,0x800
    7fa8:	8dad0064 	lw	t5,100(t5)
    7fac:	24038000 	li	v1,-32768
    7fb0:	8f84ff40 	lw	a0,-192(gp)
    7fb4:	000d6600 	sll	t4,t5,0x18
    7fb8:	ad4c0018 	sw	t4,24(t2)
    7fbc:	a5400006 	sh	zero,6(t2)
    7fc0:	954b000a 	lhu	t3,10(t2)
    7fc4:	8f85ff48 	lw	a1,-184(gp)
    7fc8:	2402ff80 	li	v0,-128
    7fcc:	01633024 	and	a2,t3,v1
    7fd0:	a546000a 	sh	a2,10(t2)
    7fd4:	915f000a 	lbu	ra,10(t2)
    7fd8:	00004821 	move	t1,zero
    7fdc:	03e2c825 	or	t9,ra,v0
    7fe0:	a159000a 	sb	t9,10(t2)
    7fe4:	a0a00008 	sb	zero,8(a1)
    7fe8:	a140004c 	sb	zero,76(t2)
    7fec:	a08000c5 	sb	zero,197(a0)
    7ff0:	96180002 	lhu	t8,2(s0)
    7ff4:	97830074 	lhu	v1,116(gp)
    7ff8:	3c020004 	lui	v0,0x4
    7ffc:	a49800da 	sh	t8,218(a0)
    8000:	960f0002 	lhu	t7,2(s0)
    8004:	2418ffbf 	li	t8,-65
    8008:	25ee2401 	addiu	t6,t7,9217
    800c:	a48e00ae 	sh	t6,174(a0)
    8010:	8e0d0004 	lw	t5,4(s0)
    8014:	acad0044 	sw	t5,68(a1)
    8018:	8e0c0008 	lw	t4,8(s0)
    801c:	acac0040 	sw	t4,64(a1)
    8020:	a4a00050 	sh	zero,80(a1)
    8024:	a4a00054 	sh	zero,84(a1)
    8028:	8e0b000c 	lw	t3,12(s0)
    802c:	240c0030 	li	t4,48
    8030:	ac8b0028 	sw	t3,40(a0)
    8034:	8e060010 	lw	a2,16(s0)
    8038:	ac860024 	sw	a2,36(a0)
    803c:	a480003e 	sh	zero,62(a0)
    8040:	a487004e 	sh	a3,78(a0)
    8044:	a4870050 	sh	a3,80(a0)
    8048:	a483003c 	sh	v1,60(a0)
    804c:	ad420074 	sw	v0,116(t2)
    8050:	ac8800c8 	sw	t0,200(a0)
    8054:	aca80060 	sw	t0,96(a1)
    8058:	a08700ec 	sb	a3,236(a0)
    805c:	909f00c4 	lbu	ra,196(a0)
    8060:	33f9007f 	andi	t9,ra,0x7f
    8064:	a09900c4 	sb	t9,196(a0)
    8068:	909000c4 	lbu	s0,196(a0)
    806c:	02187824 	and	t7,s0,t8
    8070:	a08f00c4 	sb	t7,196(a0)
    8074:	914e007c 	lbu	t6,124(t2)
    8078:	35cd0001 	ori	t5,t6,0x1
    807c:	a14d007c 	sb	t5,124(t2)
    8080:	938b0080 	lbu	t3,128(gp)
    8084:	ad480070 	sw	t0,112(t2)
    8088:	ac8c00cc 	sw	t4,204(a0)
    808c:	a08b00c6 	sb	t3,198(a0)
    8090:	8f88006c 	lw	t0,108(gp)
    8094:	8f870068 	lw	a3,104(gp)
    8098:	ac8800b4 	sw	t0,180(a0)
    809c:	ac8700b8 	sw	a3,184(a0)
    80a0:	a5400078 	sh	zero,120(t2)
    80a4:	a540007a 	sh	zero,122(t2)
    80a8:	8fbf0014 	lw	ra,20(sp)
    80ac:	8fb00010 	lw	s0,16(sp)
    80b0:	01201021 	move	v0,t1
    80b4:	03e00008 	jr	ra
    80b8:	27bd0018 	addiu	sp,sp,24
    80bc:	8f850078 	lw	a1,120(gp)
    80c0:	0e000666 	jal	0x8001998
    80c4:	8f860064 	lw	a2,100(gp)
    80c8:	0a000d3a 	j	0x80034e8
    80cc:	24090002 	li	t1,2
    80d0:	27bdffe0 	addiu	sp,sp,-32
    80d4:	afb00010 	sw	s0,16(sp)
    80d8:	8f90003c 	lw	s0,60(gp)
    80dc:	afb10014 	sw	s1,20(sp)
    80e0:	afbf0018 	sw	ra,24(sp)
    80e4:	8e090004 	lw	t1,4(s0)
    80e8:	0e00048b 	jal	0x800122c
    80ec:	000921c0 	sll	a0,t1,0x7
    80f0:	8e080004 	lw	t0,4(s0)
    80f4:	8f84ff40 	lw	a0,-192(gp)
    80f8:	8f82ff48 	lw	v0,-184(gp)
    80fc:	000839c0 	sll	a3,t0,0x7
    8100:	3c068000 	lui	a2,0x8000
    8104:	acc70020 	sw	a3,32(a2)
    8108:	948500da 	lhu	a1,218(a0)
    810c:	90430013 	lbu	v1,19(v0)
    8110:	1460001c 	bnez	v1,0x8184
    8114:	30b1ffff 	andi	s1,a1,0xffff
    8118:	8f8cff44 	lw	t4,-188(gp)
    811c:	918b0008 	lbu	t3,8(t4)
    8120:	316a0040 	andi	t2,t3,0x40
    8124:	1540000b 	bnez	t2,0x8154
    8128:	00000000 	nop
    812c:	8e0d0004 	lw	t5,4(s0)
    8130:	02203021 	move	a2,s1
    8134:	8fbf0018 	lw	ra,24(sp)
    8138:	8fb10014 	lw	s1,20(sp)
    813c:	8fb00010 	lw	s0,16(sp)
    8140:	24040022 	li	a0,34
    8144:	00003821 	move	a3,zero
    8148:	000d29c0 	sll	a1,t5,0x7
    814c:	0a000bd4 	j	0x8002f50
    8150:	27bd0020 	addiu	sp,sp,32
    8154:	0e000061 	jal	0x8000184
    8158:	00000000 	nop
    815c:	8e0d0004 	lw	t5,4(s0)
    8160:	02203021 	move	a2,s1
    8164:	8fbf0018 	lw	ra,24(sp)
    8168:	8fb10014 	lw	s1,20(sp)
    816c:	8fb00010 	lw	s0,16(sp)
    8170:	24040022 	li	a0,34
    8174:	00003821 	move	a3,zero
    8178:	000d29c0 	sll	a1,t5,0x7
    817c:	0a000bd4 	j	0x8002f50
    8180:	27bd0020 	addiu	sp,sp,32
    8184:	0e000059 	jal	0x8000164
    8188:	00000000 	nop
    818c:	8e0d0004 	lw	t5,4(s0)
    8190:	02203021 	move	a2,s1
    8194:	8fbf0018 	lw	ra,24(sp)
    8198:	8fb10014 	lw	s1,20(sp)
    819c:	8fb00010 	lw	s0,16(sp)
    81a0:	24040022 	li	a0,34
    81a4:	00003821 	move	a3,zero
    81a8:	000d29c0 	sll	a1,t5,0x7
    81ac:	0a000bd4 	j	0x8002f50
    81b0:	27bd0020 	addiu	sp,sp,32
    81b4:	27bdffe0 	addiu	sp,sp,-32
    81b8:	afb20018 	sw	s2,24(sp)
    81bc:	3092ffff 	andi	s2,a0,0xffff
    81c0:	afb00010 	sw	s0,16(sp)
    81c4:	afbf001c 	sw	ra,28(sp)
    81c8:	afb10014 	sw	s1,20(sp)
    81cc:	1240001e 	beqz	s2,0x8248
    81d0:	00008021 	move	s0,zero
    81d4:	8f86003c 	lw	a2,60(gp)
    81d8:	8cc50000 	lw	a1,0(a2)
    81dc:	24030006 	li	v1,6
    81e0:	00053f02 	srl	a3,a1,0x1c
    81e4:	00051402 	srl	v0,a1,0x10
    81e8:	30e40007 	andi	a0,a3,0x7
    81ec:	14830016 	bne	a0,v1,0x8248
    81f0:	304500ff 	andi	a1,v0,0xff
    81f4:	2ca80006 	sltiu	t0,a1,6
    81f8:	11000040 	beqz	t0,0x82fc
    81fc:	00055880 	sll	t3,a1,0x2
    8200:	3c0c0800 	lui	t4,0x800
    8204:	258c54ec 	addiu	t4,t4,21740
    8208:	016c5021 	addu	t2,t3,t4
    820c:	8d490000 	lw	t1,0(t2)
    8210:	01200008 	jr	t1
    8214:	00000000 	nop
    8218:	8f8e007c 	lw	t6,124(gp)
    821c:	240d0001 	li	t5,1
    8220:	11cd0050 	beq	t6,t5,0x8364
    8224:	24020002 	li	v0,2
    8228:	af82007c 	sw	v0,124(gp)
    822c:	26090001 	addiu	t1,s0,1
    8230:	3130ffff 	andi	s0,t1,0xffff
    8234:	24c80020 	addiu	t0,a2,32
    8238:	0212202b 	sltu	a0,s0,s2
    823c:	01003021 	move	a2,t0
    8240:	1480ffe5 	bnez	a0,0x81d8
    8244:	af88003c 	sw	t0,60(gp)
    8248:	02001021 	move	v0,s0
    824c:	8fbf001c 	lw	ra,28(sp)
    8250:	8fb20018 	lw	s2,24(sp)
    8254:	8fb10014 	lw	s1,20(sp)
    8258:	8fb00010 	lw	s0,16(sp)
    825c:	03e00008 	jr	ra
    8260:	27bd0020 	addiu	sp,sp,32
    8264:	93870062 	lbu	a3,98(gp)
    8268:	54e00034 	bnezl	a3,0x833c
    826c:	00003021 	move	a2,zero
    8270:	0e000c82 	jal	0x8003208
    8274:	00000000 	nop
    8278:	8f86003c 	lw	a2,60(gp)
    827c:	0a000d9a 	j	0x8003668
    8280:	24020001 	li	v0,1
    8284:	8f87007c 	lw	a3,124(gp)
    8288:	24050002 	li	a1,2
    828c:	10e50031 	beq	a3,a1,0x8354
    8290:	24040013 	li	a0,19
    8294:	00002821 	move	a1,zero
    8298:	00003021 	move	a2,zero
    829c:	24070001 	li	a3,1
    82a0:	0e000bd4 	jal	0x8002f50
    82a4:	00000000 	nop
    82a8:	0a000d9b 	j	0x800366c
    82ac:	8f86003c 	lw	a2,60(gp)
    82b0:	8f83007c 	lw	v1,124(gp)
    82b4:	24020002 	li	v0,2
    82b8:	1462fff6 	bne	v1,v0,0x8294
    82bc:	24040012 	li	a0,18
    82c0:	0e000c37 	jal	0x80030dc
    82c4:	00000000 	nop
    82c8:	8f850078 	lw	a1,120(gp)
    82cc:	00403021 	move	a2,v0
    82d0:	24040012 	li	a0,18
    82d4:	0e000bd4 	jal	0x8002f50
    82d8:	00003821 	move	a3,zero
    82dc:	0a000d9b 	j	0x800366c
    82e0:	8f86003c 	lw	a2,60(gp)
    82e4:	8f83007c 	lw	v1,124(gp)
    82e8:	24110003 	li	s1,3
    82ec:	10710029 	beq	v1,s1,0x8394
    82f0:	241f0002 	li	ra,2
    82f4:	107fffce 	beq	v1,ra,0x8230
    82f8:	26090001 	addiu	t1,s0,1
    82fc:	24040010 	li	a0,16
    8300:	00002821 	move	a1,zero
    8304:	00003021 	move	a2,zero
    8308:	0a000db8 	j	0x80036e0
    830c:	24070001 	li	a3,1
    8310:	8f91007c 	lw	s1,124(gp)
    8314:	24060002 	li	a2,2
    8318:	1626fff9 	bne	s1,a2,0x8300
    831c:	24040010 	li	a0,16
    8320:	0e000cdc 	jal	0x8003370
    8324:	00000000 	nop
    8328:	14400023 	bnez	v0,0x83b8
    832c:	8f98003c 	lw	t8,60(gp)
    8330:	8f86003c 	lw	a2,60(gp)
    8334:	0a000d9a 	j	0x8003668
    8338:	24020003 	li	v0,3
    833c:	24040014 	li	a0,20
    8340:	0e000bd4 	jal	0x8002f50
    8344:	00002821 	move	a1,zero
    8348:	8f86003c 	lw	a2,60(gp)
    834c:	0a000d9a 	j	0x8003668
    8350:	24020002 	li	v0,2
    8354:	0e000d44 	jal	0x8003510
    8358:	00000000 	nop
    835c:	0a000d9b 	j	0x800366c
    8360:	8f86003c 	lw	a2,60(gp)
    8364:	0e000be4 	jal	0x8002f90
    8368:	00000000 	nop
    836c:	24190002 	li	t9,2
    8370:	24040014 	li	a0,20
    8374:	00002821 	move	a1,zero
    8378:	00003021 	move	a2,zero
    837c:	00003821 	move	a3,zero
    8380:	af99007c 	sw	t9,124(gp)
    8384:	0e000bd4 	jal	0x8002f50
    8388:	00000000 	nop
    838c:	0a000d9b 	j	0x800366c
    8390:	8f86003c 	lw	a2,60(gp)
    8394:	0e000bf4 	jal	0x8002fd0
    8398:	00000000 	nop
    839c:	8f850078 	lw	a1,120(gp)
    83a0:	24190002 	li	t9,2
    83a4:	00403021 	move	a2,v0
    83a8:	24040010 	li	a0,16
    83ac:	00003821 	move	a3,zero
    83b0:	0a000df1 	j	0x80037c4
    83b4:	af99007c 	sw	t9,124(gp)
    83b8:	00403821 	move	a3,v0
    83bc:	24040010 	li	a0,16
    83c0:	970f0002 	lhu	t7,2(t8)
    83c4:	00002821 	move	a1,zero
    83c8:	0e000bd4 	jal	0x8002f50
    83cc:	31e6ffff 	andi	a2,t7,0xffff
    83d0:	8f86003c 	lw	a2,60(gp)
    83d4:	0a000d9b 	j	0x800366c
    83d8:	af91007c 	sw	s1,124(gp)
    83dc:	8f84ff44 	lw	a0,-188(gp)
    83e0:	3c077fff 	lui	a3,0x7fff
    83e4:	34e6ffff 	ori	a2,a3,0xffff
    83e8:	8c850018 	lw	a1,24(a0)
    83ec:	24020001 	li	v0,1
    83f0:	00a61824 	and	v1,a1,a2
    83f4:	ac830018 	sw	v1,24(a0)
    83f8:	03e00008 	jr	ra
    83fc:	a0820005 	sb	v0,5(a0)
    8400:	3084ffff 	andi	a0,a0,0xffff
    8404:	30a5ffff 	andi	a1,a1,0xffff
    8408:	10800007 	beqz	a0,0x8428
    840c:	00001821 	move	v1,zero
    8410:	30820001 	andi	v0,a0,0x1
    8414:	10400002 	beqz	v0,0x8420
    8418:	00042042 	srl	a0,a0,0x1
    841c:	00651821 	addu	v1,v1,a1
    8420:	1480fffb 	bnez	a0,0x8410
    8424:	00052840 	sll	a1,a1,0x1
    8428:	03e00008 	jr	ra
    842c:	00601021 	move	v0,v1
    8430:	10c00007 	beqz	a2,0x8450
    8434:	00000000 	nop
    8438:	8ca20000 	lw	v0,0(a1)
    843c:	24c6ffff 	addiu	a2,a2,-1
    8440:	24a50004 	addiu	a1,a1,4
    8444:	ac820000 	sw	v0,0(a0)
    8448:	14c0fffb 	bnez	a2,0x8438
    844c:	24840004 	addiu	a0,a0,4
    8450:	03e00008 	jr	ra
    8454:	00000000 	nop
    8458:	10a00008 	beqz	a1,0x847c
    845c:	24a3ffff 	addiu	v1,a1,-1
    8460:	ac860000 	sw	a2,0(a0)
	...
    846c:	2402ffff 	li	v0,-1
    8470:	2463ffff 	addiu	v1,v1,-1
    8474:	1462fffa 	bne	v1,v0,0x8460
    8478:	24840004 	addiu	a0,a0,4
    847c:	03e00008 	jr	ra
    8480:	00000000 	nop
    8484:	000411c0 	sll	v0,a0,0x7
    8488:	03e00008 	jr	ra
    848c:	24420240 	addiu	v0,v0,576
    8490:	27bdffe8 	addiu	sp,sp,-24
    8494:	afb00010 	sw	s0,16(sp)
    8498:	00808021 	move	s0,a0
    849c:	afbf0014 	sw	ra,20(sp)
    84a0:	0e000e31 	jal	0x80038c4
    84a4:	00a02021 	move	a0,a1
    84a8:	00504821 	addu	t1,v0,s0
    84ac:	240aff80 	li	t2,-128
    84b0:	8fbf0014 	lw	ra,20(sp)
    84b4:	8fb00010 	lw	s0,16(sp)
    84b8:	012a3024 	and	a2,t1,t2
    84bc:	3127007f 	andi	a3,t1,0x7f
    84c0:	3c08800a 	lui	t0,0x800a
    84c4:	3c042100 	lui	a0,0x2100
    84c8:	00e81021 	addu	v0,a3,t0
    84cc:	00c42825 	or	a1,a2,a0
    84d0:	3c038000 	lui	v1,0x8000
    84d4:	27bd0018 	addiu	sp,sp,24
    84d8:	ac650024 	sw	a1,36(v1)
    84dc:	af820020 	sw	v0,32(gp)
    84e0:	ac400000 	sw	zero,0(v0)
    84e4:	ac650024 	sw	a1,36(v1)
    84e8:	03e00008 	jr	ra
    84ec:	ac400040 	sw	zero,64(v0)
    84f0:	3c0d0800 	lui	t5,0x800
    84f4:	8dad0058 	lw	t5,88(t5)
    84f8:	00056180 	sll	t4,a1,0x6
    84fc:	240aff80 	li	t2,-128
    8500:	01a45821 	addu	t3,t5,a0
    8504:	016c4821 	addu	t1,t3,t4
    8508:	012a3024 	and	a2,t1,t2
    850c:	3127007f 	andi	a3,t1,0x7f
    8510:	3c08800c 	lui	t0,0x800c
    8514:	3c042100 	lui	a0,0x2100
    8518:	00e81021 	addu	v0,a3,t0
    851c:	00c42825 	or	a1,a2,a0
    8520:	3c038000 	lui	v1,0x8000
    8524:	ac650028 	sw	a1,40(v1)
    8528:	af82001c 	sw	v0,28(gp)
    852c:	03e00008 	jr	ra
    8530:	ac400024 	sw	zero,36(v0)
    8534:	30a5ffff 	andi	a1,a1,0xffff
    8538:	3c068000 	lui	a2,0x8000
    853c:	8cc201b8 	lw	v0,440(a2)
    8540:	0440fffe 	bltz	v0,0x853c
    8544:	3c086015 	lui	t0,0x6015
    8548:	00a83825 	or	a3,a1,t0
    854c:	3c031000 	lui	v1,0x1000
    8550:	acc40180 	sw	a0,384(a2)
    8554:	acc00184 	sw	zero,388(a2)
    8558:	acc70188 	sw	a3,392(a2)
    855c:	03e00008 	jr	ra
    8560:	acc301b8 	sw	v1,440(a2)
    8564:	3c0d0800 	lui	t5,0x800
    8568:	8dad0058 	lw	t5,88(t5)
    856c:	00056180 	sll	t4,a1,0x6
    8570:	240aff80 	li	t2,-128
    8574:	01a45821 	addu	t3,t5,a0
    8578:	016c4021 	addu	t0,t3,t4
    857c:	010a4824 	and	t1,t0,t2
    8580:	00093140 	sll	a2,t1,0x5
    8584:	3107007f 	andi	a3,t0,0x7f
    8588:	00c72825 	or	a1,a2,a3
    858c:	3c042000 	lui	a0,0x2000
    8590:	00a41825 	or	v1,a1,a0
    8594:	3c028000 	lui	v0,0x8000
    8598:	ac430830 	sw	v1,2096(v0)
    859c:	03e00008 	jr	ra
    85a0:	af80001c 	sw	zero,28(gp)
    85a4:	27bdffe8 	addiu	sp,sp,-24
    85a8:	afb00010 	sw	s0,16(sp)
    85ac:	00808021 	move	s0,a0
    85b0:	afbf0014 	sw	ra,20(sp)
    85b4:	0e000e31 	jal	0x80038c4
    85b8:	00a02021 	move	a0,a1
    85bc:	00504821 	addu	t1,v0,s0
    85c0:	240bff80 	li	t3,-128
    85c4:	012b5024 	and	t2,t1,t3
    85c8:	000a3940 	sll	a3,t2,0x5
    85cc:	3128007f 	andi	t0,t1,0x7f
    85d0:	3c062000 	lui	a2,0x2000
    85d4:	8fbf0014 	lw	ra,20(sp)
    85d8:	8fb00010 	lw	s0,16(sp)
    85dc:	00e82825 	or	a1,a3,t0
    85e0:	34c20001 	ori	v0,a2,0x1
    85e4:	00a21825 	or	v1,a1,v0
    85e8:	3c048000 	lui	a0,0x8000
    85ec:	27bd0018 	addiu	sp,sp,24
    85f0:	ac830830 	sw	v1,2096(a0)
    85f4:	03e00008 	jr	ra
    85f8:	af800020 	sw	zero,32(gp)
    85fc:	3c058008 	lui	a1,0x8008
    8600:	8ca70060 	lw	a3,96(a1)
    8604:	3c068008 	lui	a2,0x8008
    8608:	0087102b 	sltu	v0,a0,a3
    860c:	14400011 	bnez	v0,0x8654
    8610:	2c834000 	sltiu	v1,a0,16384
    8614:	8ca80060 	lw	t0,96(a1)
    8618:	2d034000 	sltiu	v1,t0,16384
    861c:	1060000f 	beqz	v1,0x865c
    8620:	24034000 	li	v1,16384
    8624:	8cc90060 	lw	t1,96(a2)
    8628:	0089282b 	sltu	a1,a0,t1
    862c:	14a00002 	bnez	a1,0x8638
    8630:	00801821 	move	v1,a0
    8634:	8cc30060 	lw	v1,96(a2)
    8638:	00035a42 	srl	t3,v1,0x9
    863c:	000b3080 	sll	a2,t3,0x2
    8640:	3c0a0800 	lui	t2,0x800
    8644:	254a5540 	addiu	t2,t2,21824
    8648:	00ca2021 	addu	a0,a2,t2
    864c:	03e00008 	jr	ra
    8650:	8c820000 	lw	v0,0(a0)
    8654:	1460fff3 	bnez	v1,0x8624
    8658:	24034000 	li	v1,16384
    865c:	00035a42 	srl	t3,v1,0x9
    8660:	000b3080 	sll	a2,t3,0x2
    8664:	3c0a0800 	lui	t2,0x800
    8668:	254a5540 	addiu	t2,t2,21824
    866c:	00ca2021 	addu	a0,a2,t2
    8670:	03e00008 	jr	ra
    8674:	8c820000 	lw	v0,0(a0)
    8678:	3c058008 	lui	a1,0x8008
    867c:	90a60008 	lbu	a2,8(a1)
    8680:	93840090 	lbu	a0,144(gp)
    8684:	24c20001 	addiu	v0,a2,1
    8688:	304200ff 	andi	v0,v0,0xff
    868c:	3043007f 	andi	v1,v0,0x7f
    8690:	1064000c 	beq	v1,a0,0x86c4
    8694:	00023827 	nor	a3,zero,v0
    8698:	a0a20008 	sb	v0,8(a1)
    869c:	3c048000 	lui	a0,0x8000
    86a0:	8c850178 	lw	a1,376(a0)
    86a4:	04a0fffe 	bltz	a1,0x86a0
    86a8:	8f8a0088 	lw	t2,136(gp)
    86ac:	24090002 	li	t1,2
    86b0:	3c081000 	lui	t0,0x1000
    86b4:	ac8a0140 	sw	t2,320(a0)
    86b8:	a0890144 	sb	t1,324(a0)
    86bc:	03e00008 	jr	ra
    86c0:	ac880178 	sw	t0,376(a0)
    86c4:	0a000eb6 	j	0x8003ad8
    86c8:	30e20080 	andi	v0,a3,0x80
    86cc:	27bdffc8 	addiu	sp,sp,-56
    86d0:	3c058008 	lui	a1,0x8008
    86d4:	34a40080 	ori	a0,a1,0x80
    86d8:	afbf0034 	sw	ra,52(sp)
    86dc:	afbe0030 	sw	s8,48(sp)
    86e0:	afb7002c 	sw	s7,44(sp)
    86e4:	afb60028 	sw	s6,40(sp)
    86e8:	afb50024 	sw	s5,36(sp)
    86ec:	afb40020 	sw	s4,32(sp)
    86f0:	afb3001c 	sw	s3,28(sp)
    86f4:	afb20018 	sw	s2,24(sp)
    86f8:	afb10014 	sw	s1,20(sp)
    86fc:	afb00010 	sw	s0,16(sp)
    8700:	94830078 	lhu	v1,120(a0)
    8704:	9482007a 	lhu	v0,122(a0)
    8708:	104300cd 	beq	v0,v1,0x8a40
    870c:	2405ffff 	li	a1,-1
    8710:	3c1e8008 	lui	s8,0x8008
    8714:	0080b821 	move	s7,a0
    8718:	0a000f92 	j	0x8003e48
    871c:	3c168000 	lui	s6,0x8000
    8720:	108a00c8 	beq	a0,t2,0x8a44
    8724:	8fbf0034 	lw	ra,52(sp)
    8728:	8f840088 	lw	a0,136(gp)
    872c:	3c0b0800 	lui	t3,0x800
    8730:	8d6b005c 	lw	t3,92(t3)
    8734:	240aff80 	li	t2,-128
    8738:	3c07800e 	lui	a3,0x800e
    873c:	01644021 	addu	t0,t3,a0
    8740:	010a4824 	and	t1,t0,t2
    8744:	aec9002c 	sw	t1,44(s6)
    8748:	96e6007a 	lhu	a2,122(s7)
    874c:	3102007f 	andi	v0,t0,0x7f
    8750:	00471821 	addu	v1,v0,a3
    8754:	30c57fff 	andi	a1,a2,0x7fff
    8758:	00058040 	sll	s0,a1,0x1
    875c:	0203a821 	addu	s5,s0,v1
    8760:	96bf0000 	lhu	ra,0(s5)
    8764:	3c190800 	lui	t9,0x800
    8768:	8f390058 	lw	t9,88(t9)
    876c:	240fff80 	li	t7,-128
    8770:	33f53fff 	andi	s5,ra,0x3fff
    8774:	03248821 	addu	s1,t9,a0
    8778:	0015c180 	sll	t8,s5,0x6
    877c:	02389021 	addu	s2,s1,t8
    8780:	024f5824 	and	t3,s2,t7
    8784:	3c0c0100 	lui	t4,0x100
    8788:	016c5025 	or	t2,t3,t4
    878c:	324e007f 	andi	t6,s2,0x7f
    8790:	3c0d800c 	lui	t5,0x800c
    8794:	01cd9021 	addu	s2,t6,t5
    8798:	02802821 	move	a1,s4
    879c:	0e000e34 	jal	0x80038d0
    87a0:	aeca0028 	sw	t2,40(s6)
    87a4:	8e480010 	lw	t0,16(s2)
    87a8:	8e490030 	lw	t1,48(s2)
    87ac:	8f860020 	lw	a2,32(gp)
    87b0:	24020002 	li	v0,2
    87b4:	01093823 	subu	a3,t0,t1
    87b8:	ae470010 	sw	a3,16(s2)
    87bc:	a0c20000 	sb	v0,0(a2)
    87c0:	96e3005c 	lhu	v1,92(s7)
    87c4:	8e440030 	lw	a0,48(s2)
    87c8:	8f910020 	lw	s1,32(gp)
    87cc:	0e000e8f 	jal	0x8003a3c
    87d0:	3070ffff 	andi	s0,v1,0xffff
    87d4:	00022b80 	sll	a1,v0,0xe
    87d8:	0205c825 	or	t9,s0,a1
    87dc:	3c1f4200 	lui	ra,0x4200
    87e0:	033fc025 	or	t8,t9,ra
    87e4:	ae380004 	sw	t8,4(s1)
    87e8:	8e510004 	lw	s1,4(s2)
    87ec:	8f870020 	lw	a3,32(gp)
    87f0:	8e4f0000 	lw	t7,0(s2)
    87f4:	24080008 	li	t0,8
    87f8:	acf1001c 	sw	s1,28(a3)
    87fc:	acef0018 	sw	t7,24(a3)
    8800:	ace0000c 	sw	zero,12(a3)
    8804:	ace00010 	sw	zero,16(a3)
    8808:	9250000a 	lbu	s0,10(s2)
    880c:	24060005 	li	a2,5
    8810:	2405c000 	li	a1,-16384
    8814:	320e00ff 	andi	t6,s0,0xff
    8818:	a4ee0014 	sh	t6,20(a3)
    881c:	964d0008 	lhu	t5,8(s2)
    8820:	02e09821 	move	s3,s7
    8824:	a4ed0016 	sh	t5,22(a3)
    8828:	924c000a 	lbu	t4,10(s2)
    882c:	3c0d8008 	lui	t5,0x8008
    8830:	318b00ff 	andi	t3,t4,0xff
    8834:	a4eb0020 	sh	t3,32(a3)
    8838:	96440008 	lhu	a0,8(s2)
    883c:	35ac0100 	ori	t4,t5,0x100
    8840:	a4e40022 	sh	a0,34(a3)
    8844:	ace00024 	sw	zero,36(a3)
    8848:	924a000b 	lbu	t2,11(s2)
    884c:	314900ff 	andi	t1,t2,0xff
    8850:	a4e90002 	sh	t1,2(a3)
    8854:	a0e80001 	sb	t0,1(a3)
    8858:	8e420030 	lw	v0,48(s2)
    885c:	8f830020 	lw	v1,32(gp)
    8860:	2408ffbf 	li	t0,-65
    8864:	ac620008 	sw	v0,8(v1)
    8868:	a0660030 	sb	a2,48(v1)
    886c:	8f8e0020 	lw	t6,32(gp)
    8870:	2403ffdf 	li	v1,-33
    8874:	95df0032 	lhu	ra,50(t6)
    8878:	03e5c824 	and	t9,ra,a1
    887c:	0335c025 	or	t8,t9,s5
    8880:	a5d80032 	sh	t8,50(t6)
    8884:	91d10032 	lbu	s1,50(t6)
    8888:	322f003f 	andi	t7,s1,0x3f
    888c:	35f00040 	ori	s0,t7,0x40
    8890:	a1d00032 	sb	s0,50(t6)
    8894:	8f890020 	lw	t1,32(gp)
    8898:	ad200034 	sw	zero,52(t1)
    889c:	8d8b00c0 	lw	t3,192(t4)
    88a0:	ad2b0038 	sw	t3,56(t1)
    88a4:	9124003c 	lbu	a0,60(t1)
    88a8:	3c0b7fff 	lui	t3,0x7fff
    88ac:	308a007f 	andi	t2,a0,0x7f
    88b0:	a12a003c 	sb	t2,60(t1)
    88b4:	8f860020 	lw	a2,32(gp)
    88b8:	3564ffff 	ori	a0,t3,0xffff
    88bc:	90c7003c 	lbu	a3,60(a2)
    88c0:	00e81024 	and	v0,a3,t0
    88c4:	a0c2003c 	sb	v0,60(a2)
    88c8:	8f990020 	lw	t9,32(gp)
    88cc:	9325003c 	lbu	a1,60(t9)
    88d0:	00a3f824 	and	ra,a1,v1
    88d4:	a33f003c 	sb	ra,60(t9)
    88d8:	8e580034 	lw	t8,52(s2)
    88dc:	8f8c0020 	lw	t4,32(gp)
    88e0:	ad980040 	sw	t8,64(t4)
    88e4:	8e4f002c 	lw	t7,44(s2)
    88e8:	8e510030 	lw	s1,48(s2)
    88ec:	01f18023 	subu	s0,t7,s1
    88f0:	ad900044 	sw	s0,68(t4)
    88f4:	918e0048 	lbu	t6,72(t4)
    88f8:	31cd007f 	andi	t5,t6,0x7f
    88fc:	a18d0048 	sb	t5,72(t4)
    8900:	8f850020 	lw	a1,32(gp)
    8904:	8e4a0030 	lw	t2,48(s2)
    8908:	8ca90048 	lw	t1,72(a1)
    890c:	01444024 	and	t0,t2,a0
    8910:	01363824 	and	a3,t1,s6
    8914:	00e83025 	or	a2,a3,t0
    8918:	aca60048 	sw	a2,72(a1)
    891c:	9242000a 	lbu	v0,10(s2)
    8920:	a0a2004c 	sb	v0,76(a1)
    8924:	96430008 	lhu	v1,8(s2)
    8928:	8f9f0020 	lw	ra,32(gp)
    892c:	a7e3004e 	sh	v1,78(ra)
    8930:	8e500030 	lw	s0,48(s2)
    8934:	8e440030 	lw	a0,48(s2)
    8938:	0e0002f0 	jal	0x8000bc0
    893c:	8fc50060 	lw	a1,96(s8)
    8940:	92f1007c 	lbu	s1,124(s7)
    8944:	0002c140 	sll	t8,v0,0x5
    8948:	0002c900 	sll	t9,v0,0x4
    894c:	03197821 	addu	t7,t8,t9
    8950:	322e0002 	andi	t6,s1,0x2
    8954:	00402821 	move	a1,v0
    8958:	11c00003 	beqz	t6,0x8968
    895c:	020f8021 	addu	s0,s0,t7
    8960:	00022080 	sll	a0,v0,0x2
    8964:	02048021 	addu	s0,s0,a0
    8968:	926d007c 	lbu	t5,124(s3)
    896c:	31ac0004 	andi	t4,t5,0x4
    8970:	11800002 	beqz	t4,0x897c
    8974:	00057080 	sll	t6,a1,0x2
    8978:	020e8021 	addu	s0,s0,t6
    897c:	8e440030 	lw	a0,48(s2)
    8980:	8f870020 	lw	a3,32(gp)
    8984:	24058000 	li	a1,-32768
    8988:	308b0003 	andi	t3,a0,0x3
    898c:	000b5023 	negu	t2,t3
    8990:	31490003 	andi	t1,t2,0x3
    8994:	02094021 	addu	t0,s0,t1
    8998:	ace80034 	sw	t0,52(a3)
    899c:	9664007a 	lhu	a0,122(s3)
    89a0:	9662007a 	lhu	v0,122(s3)
    89a4:	9670007a 	lhu	s0,122(s3)
    89a8:	30467fff 	andi	a2,v0,0x7fff
    89ac:	24c30001 	addiu	v1,a2,1
    89b0:	307f7fff 	andi	ra,v1,0x7fff
    89b4:	0205c824 	and	t9,s0,a1
    89b8:	033fc025 	or	t8,t9,ra
    89bc:	a678007a 	sh	t8,122(s3)
    89c0:	9671007a 	lhu	s1,122(s3)
    89c4:	3c120800 	lui	s2,0x800
    89c8:	8e520060 	lw	s2,96(s2)
    89cc:	322f7fff 	andi	t7,s1,0x7fff
    89d0:	11f20028 	beq	t7,s2,0x8a74
    89d4:	00000000 	nop
    89d8:	8f840088 	lw	a0,136(gp)
    89dc:	0e000e69 	jal	0x80039a4
    89e0:	02a02821 	move	a1,s5
    89e4:	8f840088 	lw	a0,136(gp)
    89e8:	0e000e79 	jal	0x80039e4
    89ec:	02802821 	move	a1,s4
    89f0:	0e000eae 	jal	0x8003ab8
    89f4:	00000000 	nop
    89f8:	96f30078 	lhu	s3,120(s7)
    89fc:	96f4007a 	lhu	s4,122(s7)
    8a00:	1293000f 	beq	s4,s3,0x8a40
    8a04:	00002821 	move	a1,zero
    8a08:	3c098008 	lui	t1,0x8008
    8a0c:	35240100 	ori	a0,t1,0x100
    8a10:	93c80008 	lbu	t0,8(s8)
    8a14:	908700c5 	lbu	a3,197(a0)
    8a18:	3114007f 	andi	s4,t0,0x7f
    8a1c:	30e400ff 	andi	a0,a3,0xff
    8a20:	0284302b 	sltu	a2,s4,a0
    8a24:	14c0ff3e 	bnez	a2,0x8720
    8a28:	268a0001 	addiu	t2,s4,1
    8a2c:	938d0090 	lbu	t5,144(gp)
    8a30:	268b0001 	addiu	t3,s4,1
    8a34:	008d6021 	addu	t4,a0,t5
    8a38:	158bff3c 	bne	t4,t3,0x872c
    8a3c:	8f840088 	lw	a0,136(gp)
    8a40:	8fbf0034 	lw	ra,52(sp)
    8a44:	8fbe0030 	lw	s8,48(sp)
    8a48:	8fb7002c 	lw	s7,44(sp)
    8a4c:	8fb60028 	lw	s6,40(sp)
    8a50:	8fb50024 	lw	s5,36(sp)
    8a54:	8fb40020 	lw	s4,32(sp)
    8a58:	8fb3001c 	lw	s3,28(sp)
    8a5c:	8fb20018 	lw	s2,24(sp)
    8a60:	8fb10014 	lw	s1,20(sp)
    8a64:	8fb00010 	lw	s0,16(sp)
    8a68:	00a01021 	move	v0,a1
    8a6c:	03e00008 	jr	ra
    8a70:	27bd0038 	addiu	sp,sp,56
    8a74:	967f007a 	lhu	ra,122(s3)
    8a78:	03e5c824 	and	t9,ra,a1
    8a7c:	a679007a 	sh	t9,122(s3)
    8a80:	9278007a 	lbu	t8,122(s3)
    8a84:	926e007a 	lbu	t6,122(s3)
    8a88:	331100ff 	andi	s1,t8,0xff
    8a8c:	001179c2 	srl	t7,s1,0x7
    8a90:	000f9027 	nor	s2,zero,t7
    8a94:	001269c0 	sll	t5,s2,0x7
    8a98:	31cc007f 	andi	t4,t6,0x7f
    8a9c:	018d2825 	or	a1,t4,t5
    8aa0:	a265007a 	sb	a1,122(s3)
    8aa4:	0a000f87 	j	0x8003e1c
    8aa8:	8f840088 	lw	a0,136(gp)
    8aac:	3c038000 	lui	v1,0x8000
    8ab0:	3084ffff 	andi	a0,a0,0xffff
    8ab4:	30a5ffff 	andi	a1,a1,0xffff
    8ab8:	ac640018 	sw	a0,24(v1)
    8abc:	ac65001c 	sw	a1,28(v1)
    8ac0:	03e00008 	jr	ra
    8ac4:	8c620014 	lw	v0,20(v1)
    8ac8:	27bdffa8 	addiu	sp,sp,-88
    8acc:	3c068008 	lui	a2,0x8008
    8ad0:	afbf0054 	sw	ra,84(sp)
    8ad4:	afbe0050 	sw	s8,80(sp)
    8ad8:	afb7004c 	sw	s7,76(sp)
    8adc:	afb60048 	sw	s6,72(sp)
    8ae0:	afb50044 	sw	s5,68(sp)
    8ae4:	afb40040 	sw	s4,64(sp)
    8ae8:	afb3003c 	sw	s3,60(sp)
    8aec:	afb20038 	sw	s2,56(sp)
    8af0:	afb10034 	sw	s1,52(sp)
    8af4:	afb00030 	sw	s0,48(sp)
    8af8:	34c80100 	ori	t0,a2,0x100
    8afc:	910500c5 	lbu	a1,197(t0)
    8b00:	90c70008 	lbu	a3,8(a2)
    8b04:	3084ffff 	andi	a0,a0,0xffff
    8b08:	30a500ff 	andi	a1,a1,0xff
    8b0c:	30e2007f 	andi	v0,a3,0x7f
    8b10:	0045182a 	slt	v1,v0,a1
    8b14:	afa40010 	sw	a0,16(sp)
    8b18:	a7a00018 	sh	zero,24(sp)
    8b1c:	1060009c 	beqz	v1,0x8d90
    8b20:	afa00014 	sw	zero,20(sp)
    8b24:	90ca0008 	lbu	t2,8(a2)
    8b28:	3149007f 	andi	t1,t2,0x7f
    8b2c:	00a93023 	subu	a2,a1,t1
    8b30:	24d4ffff 	addiu	s4,a2,-1
    8b34:	0014882b 	sltu	s1,zero,s4
    8b38:	8fb30010 	lw	s3,16(sp)
    8b3c:	0013902b 	sltu	s2,zero,s3
    8b40:	02328024 	and	s0,s1,s2
    8b44:	52000085 	beqzl	s0,0x8d5c
    8b48:	8fb40014 	lw	s4,20(sp)
    8b4c:	3c038008 	lui	v1,0x8008
    8b50:	94790052 	lhu	t9,82(v1)
    8b54:	947e0050 	lhu	s8,80(v1)
    8b58:	8fb60010 	lw	s6,16(sp)
    8b5c:	033ec023 	subu	t8,t9,s8
    8b60:	0018bc00 	sll	s7,t8,0x10
    8b64:	00171403 	sra	v0,s7,0x10
    8b68:	0016fc00 	sll	ra,s6,0x10
    8b6c:	02c2a82a 	slt	s5,s6,v0
    8b70:	16a00002 	bnez	s5,0x8b7c
    8b74:	001f2c03 	sra	a1,ra,0x10
    8b78:	00402821 	move	a1,v0
    8b7c:	00143c00 	sll	a3,s4,0x10
    8b80:	00072403 	sra	a0,a3,0x10
    8b84:	00a4102a 	slt	v0,a1,a0
    8b88:	54400001 	bnezl	v0,0x8b90
    8b8c:	00a02021 	move	a0,a1
    8b90:	28850009 	slti	a1,a0,9
    8b94:	14a00002 	bnez	a1,0x8ba0
    8b98:	0080b021 	move	s6,a0
    8b9c:	24160008 	li	s6,8
    8ba0:	3c0c8008 	lui	t4,0x8008
    8ba4:	8d860048 	lw	a2,72(t4)
    8ba8:	00165980 	sll	t3,s6,0x6
    8bac:	8d88004c 	lw	t0,76(t4)
    8bb0:	3c038000 	lui	v1,0x8000
    8bb4:	3169ffff 	andi	t1,t3,0xffff
    8bb8:	3c0a0010 	lui	t2,0x10
    8bbc:	012a2025 	or	a0,t1,t2
    8bc0:	34700400 	ori	s0,v1,0x400
    8bc4:	ac660038 	sw	a2,56(v1)
    8bc8:	af90008c 	sw	s0,140(gp)
    8bcc:	ac68003c 	sw	t0,60(v1)
    8bd0:	ac640030 	sw	a0,48(v1)
	...
    8bf4:	8c6e0000 	lw	t6,0(v1)
    8bf8:	31cd0020 	andi	t5,t6,0x20
    8bfc:	11a0fffd 	beqz	t5,0x8bf4
    8c00:	0016902a 	slt	s2,zero,s6
    8c04:	02517824 	and	t7,s2,s1
    8c08:	11e00036 	beqz	t7,0x8ce4
    8c0c:	0000b821 	move	s7,zero
    8c10:	3c158000 	lui	s5,0x8000
    8c14:	3c118008 	lui	s1,0x8008
    8c18:	92220008 	lbu	v0,8(s1)
    8c1c:	8ea40100 	lw	a0,256(s5)
    8c20:	00008821 	move	s1,zero
    8c24:	305e007f 	andi	s8,v0,0x7f
    8c28:	0e000e34 	jal	0x80038d0
    8c2c:	03c02821 	move	a1,s8
    8c30:	8e1f0010 	lw	ra,16(s0)
    8c34:	8ea40100 	lw	a0,256(s5)
    8c38:	33f93fff 	andi	t9,ra,0x3fff
    8c3c:	03202821 	move	a1,t9
    8c40:	0e000e4c 	jal	0x8003930
    8c44:	afb9001c 	sw	t9,28(sp)
    8c48:	92180000 	lbu	t8,0(s0)
    8c4c:	3302003f 	andi	v0,t8,0x3f
    8c50:	2c530008 	sltiu	s3,v0,8
    8c54:	5260000d 	beqzl	s3,0x8c8c
    8c58:	00008021 	move	s0,zero
    8c5c:	24050001 	li	a1,1
    8c60:	00451804 	sllv	v1,a1,v0
    8c64:	3067005d 	andi	a3,v1,0x5d
    8c68:	14e000b1 	bnez	a3,0x8f30
    8c6c:	8f92008c 	lw	s2,140(gp)
    8c70:	30640002 	andi	a0,v1,0x2
    8c74:	1480014d 	bnez	a0,0x91ac
    8c78:	8f86008c 	lw	a2,140(gp)
    8c7c:	30680080 	andi	t0,v1,0x80
    8c80:	5500004a 	bnezl	t0,0x8dac
    8c84:	96180012 	lhu	t8,18(s0)
    8c88:	00008021 	move	s0,zero
    8c8c:	8ea40100 	lw	a0,256(s5)
    8c90:	0e000e69 	jal	0x80039a4
    8c94:	8fa5001c 	lw	a1,28(sp)
    8c98:	8ea40100 	lw	a0,256(s5)
    8c9c:	0e000e79 	jal	0x80039e4
    8ca0:	03c02821 	move	a1,s8
    8ca4:	1200004f 	beqz	s0,0x8de4
    8ca8:	3c078008 	lui	a3,0x8008
    8cac:	26e40001 	addiu	a0,s7,1
    8cb0:	8f8c008c 	lw	t4,140(gp)
    8cb4:	0004bc00 	sll	s7,a0,0x10
    8cb8:	0291a023 	subu	s4,s4,s1
    8cbc:	0017bc03 	sra	s7,s7,0x10
    8cc0:	02f6302a 	slt	a2,s7,s6
    8cc4:	0014882b 	sltu	s1,zero,s4
    8cc8:	259f0040 	addiu	ra,t4,64
    8ccc:	24120001 	li	s2,1
    8cd0:	00d1f024 	and	s8,a2,s1
    8cd4:	03e08021 	move	s0,ra
    8cd8:	af9f008c 	sw	ra,140(gp)
    8cdc:	17c0ffcd 	bnez	s8,0x8c14
    8ce0:	afb20014 	sw	s2,20(sp)
    8ce4:	3c078008 	lui	a3,0x8008
    8ce8:	94e80050 	lhu	t0,80(a3)
    8cec:	8fb30010 	lw	s3,16(sp)
    8cf0:	3c058000 	lui	a1,0x8000
    8cf4:	02e81021 	addu	v0,s7,t0
    8cf8:	3c0d0020 	lui	t5,0x20
    8cfc:	a4e20050 	sh	v0,80(a3)
    8d00:	acad0030 	sw	t5,48(a1)
    8d04:	94f50050 	lhu	s5,80(a3)
    8d08:	94f60052 	lhu	s6,82(a3)
    8d0c:	02775023 	subu	t2,s3,s7
    8d10:	3149ffff 	andi	t1,t2,0xffff
    8d14:	12d50041 	beq	s6,s5,0x8e1c
    8d18:	afa90010 	sw	t1,16(sp)
    8d1c:	8cf6004c 	lw	s6,76(a3)
    8d20:	00174980 	sll	t1,s7,0x6
    8d24:	8cf70048 	lw	s7,72(a3)
    8d28:	02c9f821 	addu	ra,s6,t1
    8d2c:	00002021 	move	a0,zero
    8d30:	03e9302b 	sltu	a2,ra,t1
    8d34:	02e46021 	addu	t4,s7,a0
    8d38:	01868021 	addu	s0,t4,a2
    8d3c:	acff004c 	sw	ra,76(a3)
    8d40:	acf00048 	sw	s0,72(a3)
    8d44:	8fb30010 	lw	s3,16(sp)
    8d48:	0013902b 	sltu	s2,zero,s3
    8d4c:	02328024 	and	s0,s1,s2
    8d50:	1600ff7f 	bnez	s0,0x8b50
    8d54:	3c038008 	lui	v1,0x8008
    8d58:	8fb40014 	lw	s4,20(sp)
    8d5c:	8fbf0054 	lw	ra,84(sp)
    8d60:	8fbe0050 	lw	s8,80(sp)
    8d64:	3a820001 	xori	v0,s4,0x1
    8d68:	8fb7004c 	lw	s7,76(sp)
    8d6c:	8fb60048 	lw	s6,72(sp)
    8d70:	8fb50044 	lw	s5,68(sp)
    8d74:	8fb40040 	lw	s4,64(sp)
    8d78:	8fb3003c 	lw	s3,60(sp)
    8d7c:	8fb20038 	lw	s2,56(sp)
    8d80:	8fb10034 	lw	s1,52(sp)
    8d84:	8fb00030 	lw	s0,48(sp)
    8d88:	03e00008 	jr	ra
    8d8c:	27bd0058 	addiu	sp,sp,88
    8d90:	90cf0008 	lbu	t7,8(a2)
    8d94:	938c0090 	lbu	t4,144(gp)
    8d98:	31ee007f 	andi	t6,t7,0x7f
    8d9c:	00ae6823 	subu	t5,a1,t6
    8da0:	018d5821 	addu	t3,t4,t5
    8da4:	0a000fdd 	j	0x8003f74
    8da8:	2574ffff 	addiu	s4,t3,-1
    8dac:	8f840088 	lw	a0,136(gp)
    8db0:	24100001 	li	s0,1
    8db4:	a7b80018 	sh	t8,24(sp)
    8db8:	0e000e5d 	jal	0x8003974
    8dbc:	97a50018 	lhu	a1,24(sp)
    8dc0:	8ea40100 	lw	a0,256(s5)
    8dc4:	0e000e69 	jal	0x80039a4
    8dc8:	8fa5001c 	lw	a1,28(sp)
    8dcc:	8ea40100 	lw	a0,256(s5)
    8dd0:	0e000e79 	jal	0x80039e4
    8dd4:	03c02821 	move	a1,s8
    8dd8:	1600ffb5 	bnez	s0,0x8cb0
    8ddc:	26e40001 	addiu	a0,s7,1
    8de0:	3c078008 	lui	a3,0x8008
    8de4:	94e80050 	lhu	t0,80(a3)
    8de8:	8fb30010 	lw	s3,16(sp)
    8dec:	3c058000 	lui	a1,0x8000
    8df0:	02e81021 	addu	v0,s7,t0
    8df4:	3c0d0020 	lui	t5,0x20
    8df8:	a4e20050 	sh	v0,80(a3)
    8dfc:	acad0030 	sw	t5,48(a1)
    8e00:	94f50050 	lhu	s5,80(a3)
    8e04:	94f60052 	lhu	s6,82(a3)
    8e08:	02775023 	subu	t2,s3,s7
    8e0c:	3149ffff 	andi	t1,t2,0xffff
    8e10:	0014882b 	sltu	s1,zero,s4
    8e14:	16d5ffc1 	bne	s6,s5,0x8d1c
    8e18:	afa90010 	sw	t1,16(sp)
    8e1c:	94fe0054 	lhu	s8,84(a3)
    8e20:	8cf00044 	lw	s0,68(a3)
    8e24:	33d8fffe 	andi	t8,s8,0xfffe
    8e28:	001878c0 	sll	t7,t8,0x3
    8e2c:	020f7021 	addu	t6,s0,t7
    8e30:	acae003c 	sw	t6,60(a1)
    8e34:	8cf90044 	lw	t9,68(a3)
    8e38:	8ca3003c 	lw	v1,60(a1)
    8e3c:	03235823 	subu	t3,t9,v1
    8e40:	196002ea 	blez	t3,0x99ec
    8e44:	00000000 	nop
    8e48:	8cf20040 	lw	s2,64(a3)
    8e4c:	26420001 	addiu	v0,s2,1
    8e50:	aca20038 	sw	v0,56(a1)
    8e54:	3c050050 	lui	a1,0x50
    8e58:	34a70010 	ori	a3,a1,0x10
    8e5c:	3c038000 	lui	v1,0x8000
    8e60:	ac670030 	sw	a3,48(v1)
	...
    8e84:	8c7f0000 	lw	ra,0(v1)
    8e88:	33e60020 	andi	a2,ra,0x20
    8e8c:	10c0fffd 	beqz	a2,0x8e84
    8e90:	3c108008 	lui	s0,0x8008
    8e94:	960d0054 	lhu	t5,84(s0)
    8e98:	3c178000 	lui	s7,0x8000
    8e9c:	3c068008 	lui	a2,0x8008
    8ea0:	31b30001 	andi	s3,t5,0x1
    8ea4:	001350c0 	sll	t2,s3,0x3
    8ea8:	0157b021 	addu	s6,t2,s7
    8eac:	8ec90400 	lw	t1,1024(s6)
    8eb0:	3c070800 	lui	a3,0x800
    8eb4:	8ce70044 	lw	a3,68(a3)
    8eb8:	3c040020 	lui	a0,0x20
    8ebc:	acc90048 	sw	t1,72(a2)
    8ec0:	8ed50404 	lw	s5,1028(s6)
    8ec4:	240c0001 	li	t4,1
    8ec8:	acd5004c 	sw	s5,76(a2)
    8ecc:	10ec02d0 	beq	a3,t4,0x9a10
    8ed0:	aee40030 	sw	a0,48(s7)
    8ed4:	96180052 	lhu	t8,82(s0)
    8ed8:	3c050800 	lui	a1,0x800
    8edc:	8ca50040 	lw	a1,64(a1)
    8ee0:	00b87821 	addu	t7,a1,t8
    8ee4:	a60f0052 	sh	t7,82(s0)
    8ee8:	960e0054 	lhu	t6,84(s0)
    8eec:	25c30001 	addiu	v1,t6,1
    8ef0:	a6030054 	sh	v1,84(s0)
    8ef4:	96190054 	lhu	t9,84(s0)
    8ef8:	3324ffff 	andi	a0,t9,0xffff
    8efc:	5487ff0f 	bnel	a0,a3,0x8b3c
    8f00:	8fb30010 	lw	s3,16(sp)
    8f04:	30a5ffff 	andi	a1,a1,0xffff
    8f08:	0e000fbb 	jal	0x8003eec
    8f0c:	a6000054 	sh	zero,84(s0)
    8f10:	3c050800 	lui	a1,0x800
    8f14:	8ca50024 	lw	a1,36(a1)
    8f18:	96120052 	lhu	s2,82(s0)
    8f1c:	00453823 	subu	a3,v0,a1
    8f20:	0247f023 	subu	s8,s2,a3
    8f24:	a61e0052 	sh	s8,82(s0)
    8f28:	0a000fdf 	j	0x8003f7c
    8f2c:	8fb30010 	lw	s3,16(sp)
    8f30:	8f93001c 	lw	s3,28(gp)
    8f34:	3c070080 	lui	a3,0x80
    8f38:	8e440028 	lw	a0,40(s2)
    8f3c:	3c1fffef 	lui	ra,0xffef
    8f40:	37f9ffff 	ori	t9,ra,0xffff
    8f44:	ae640000 	sw	a0,0(s3)
    8f48:	8e420024 	lw	v0,36(s2)
    8f4c:	a260000a 	sb	zero,10(s3)
    8f50:	3c0fff9f 	lui	t7,0xff9f
    8f54:	ae620004 	sw	v0,4(s3)
    8f58:	9245002c 	lbu	a1,44(s2)
    8f5c:	35eeffff 	ori	t6,t7,0xffff
    8f60:	3c0c0040 	lui	t4,0x40
    8f64:	a265000c 	sb	a1,12(s3)
    8f68:	8e71000c 	lw	s1,12(s3)
    8f6c:	a265000b 	sb	a1,11(s3)
    8f70:	3c0600ff 	lui	a2,0xff
    8f74:	0227c025 	or	t8,s1,a3
    8f78:	03196824 	and	t5,t8,t9
    8f7c:	01ae5824 	and	t3,t5,t6
    8f80:	016c5025 	or	t2,t3,t4
    8f84:	ae6a000c 	sw	t2,12(s3)
    8f88:	8e490004 	lw	t1,4(s2)
    8f8c:	ae600018 	sw	zero,24(s3)
    8f90:	34d0ffff 	ori	s0,a2,0xffff
    8f94:	ae690014 	sw	t1,20(s3)
    8f98:	8e48002c 	lw	t0,44(s2)
    8f9c:	8f820088 	lw	v0,136(gp)
    8fa0:	a6600008 	sh	zero,8(s3)
    8fa4:	01102024 	and	a0,t0,s0
    8fa8:	ae640010 	sw	a0,16(s3)
    8fac:	8e510008 	lw	s1,8(s2)
    8fb0:	96470012 	lhu	a3,18(s2)
    8fb4:	ae710020 	sw	s1,32(s3)
    8fb8:	8e58000c 	lw	t8,12(s2)
    8fbc:	30e33fff 	andi	v1,a3,0x3fff
    8fc0:	00032980 	sll	a1,v1,0x6
    8fc4:	ae780024 	sw	t8,36(s3)
    8fc8:	8e4c0014 	lw	t4,20(s2)
    8fcc:	00a2f821 	addu	ra,a1,v0
    8fd0:	30f90001 	andi	t9,a3,0x1
    8fd4:	ae6c0028 	sw	t4,40(s3)
    8fd8:	8e4b0018 	lw	t3,24(s2)
    8fdc:	001f71c2 	srl	t6,ra,0x7
    8fe0:	00197b80 	sll	t7,t9,0xe
    8fe4:	ae6b002c 	sw	t3,44(s3)
    8fe8:	8e49001c 	lw	t1,28(s2)
    8fec:	01cf6821 	addu	t5,t6,t7
    8ff0:	a66d001c 	sh	t5,28(s3)
    8ff4:	ae690030 	sw	t1,48(s3)
    8ff8:	964a0002 	lhu	t2,2(s2)
    8ffc:	8e460020 	lw	a2,32(s2)
    9000:	a66a001e 	sh	t2,30(s3)
    9004:	ae660034 	sw	a2,52(s3)
    9008:	92430033 	lbu	v1,51(s2)
    900c:	30700004 	andi	s0,v1,0x4
    9010:	56000006 	bnezl	s0,0x902c
    9014:	924b0000 	lbu	t3,0(s2)
    9018:	3c068008 	lui	a2,0x8008
    901c:	34d00100 	ori	s0,a2,0x100
    9020:	8e0800c0 	lw	t0,192(s0)
    9024:	ae680030 	sw	t0,48(s3)
    9028:	924b0000 	lbu	t3,0(s2)
    902c:	8f8a0020 	lw	t2,32(gp)
    9030:	a14b0030 	sb	t3,48(t2)
    9034:	92490033 	lbu	t1,51(s2)
    9038:	31230002 	andi	v1,t1,0x2
    903c:	50600007 	beqzl	v1,0x905c
    9040:	92440001 	lbu	a0,1(s2)
    9044:	8f8c0020 	lw	t4,32(gp)
    9048:	240fff80 	li	t7,-128
    904c:	918e0030 	lbu	t6,48(t4)
    9050:	01cf6825 	or	t5,t6,t7
    9054:	a18d0030 	sb	t5,48(t4)
    9058:	92440001 	lbu	a0,1(s2)
    905c:	8f820020 	lw	v0,32(gp)
    9060:	2418ffbf 	li	t8,-65
    9064:	240affdf 	li	t2,-33
    9068:	a0440031 	sb	a0,49(v0)
    906c:	8f990020 	lw	t9,32(gp)
    9070:	3c088008 	lui	t0,0x8008
    9074:	35040080 	ori	a0,t0,0x80
    9078:	9331003c 	lbu	s1,60(t9)
    907c:	323f007f 	andi	ra,s1,0x7f
    9080:	a33f003c 	sb	ra,60(t9)
    9084:	8f8d0020 	lw	t5,32(gp)
    9088:	91af003c 	lbu	t7,60(t5)
    908c:	01f87024 	and	t6,t7,t8
    9090:	a1ae003c 	sb	t6,60(t5)
    9094:	8f870020 	lw	a3,32(gp)
    9098:	8e6c0014 	lw	t4,20(s3)
    909c:	90e3003c 	lbu	v1,60(a3)
    90a0:	2d8b0001 	sltiu	t3,t4,1
    90a4:	000b4940 	sll	t1,t3,0x5
    90a8:	006a3024 	and	a2,v1,t2
    90ac:	00c98025 	or	s0,a2,t1
    90b0:	a0f0003c 	sb	s0,60(a3)
    90b4:	96450012 	lhu	a1,18(s2)
    90b8:	8f870020 	lw	a3,32(gp)
    90bc:	a4e50032 	sh	a1,50(a3)
    90c0:	8e450004 	lw	a1,4(s2)
    90c4:	909f007c 	lbu	ra,124(a0)
    90c8:	30a20003 	andi	v0,a1,0x3
    90cc:	00028823 	negu	s1,v0
    90d0:	32390003 	andi	t9,s1,0x3
    90d4:	00b91021 	addu	v0,a1,t9
    90d8:	33f80002 	andi	t8,ra,0x2
    90dc:	17000002 	bnez	t8,0x90e8
    90e0:	24440034 	addiu	a0,v0,52
    90e4:	24440030 	addiu	a0,v0,48
    90e8:	3c038008 	lui	v1,0x8008
    90ec:	34660080 	ori	a2,v1,0x80
    90f0:	90c9007c 	lbu	t1,124(a2)
    90f4:	00a98024 	and	s0,a1,t1
    90f8:	32080004 	andi	t0,s0,0x4
    90fc:	15000002 	bnez	t0,0x9108
    9100:	24830004 	addiu	v1,a0,4
    9104:	00801821 	move	v1,a0
    9108:	8f840020 	lw	a0,32(gp)
    910c:	24080002 	li	t0,2
    9110:	ace30034 	sw	v1,52(a3)
    9114:	a0880000 	sb	t0,0(a0)
    9118:	9242003f 	lbu	v0,63(s2)
    911c:	8f9f0020 	lw	ra,32(gp)
    9120:	3c188008 	lui	t8,0x8008
    9124:	370f0080 	ori	t7,t8,0x80
    9128:	a3e20001 	sb	v0,1(ra)
    912c:	8f910020 	lw	s1,32(gp)
    9130:	9259003f 	lbu	t9,63(s2)
    9134:	8e440004 	lw	a0,4(s2)
    9138:	a6390002 	sh	t9,2(s1)
    913c:	95ee005c 	lhu	t6,92(t7)
    9140:	0e000e8f 	jal	0x8003a3c
    9144:	31d0ffff 	andi	s0,t6,0xffff
    9148:	00026b80 	sll	t5,v0,0xe
    914c:	020d5825 	or	t3,s0,t5
    9150:	3c0c4200 	lui	t4,0x4200
    9154:	016c2825 	or	a1,t3,t4
    9158:	ae250004 	sw	a1,4(s1)
    915c:	8e4a0038 	lw	t2,56(s2)
    9160:	8f850020 	lw	a1,32(gp)
    9164:	acaa0018 	sw	t2,24(a1)
    9168:	8e470034 	lw	a3,52(s2)
    916c:	aca7001c 	sw	a3,28(a1)
    9170:	aca0000c 	sw	zero,12(a1)
    9174:	aca00010 	sw	zero,16(a1)
    9178:	a4a00014 	sh	zero,20(a1)
    917c:	a4a00016 	sh	zero,22(a1)
    9180:	a4a00020 	sh	zero,32(a1)
    9184:	a4a00022 	sh	zero,34(a1)
    9188:	aca00024 	sw	zero,36(a1)
    918c:	8e620014 	lw	v0,20(s3)
    9190:	50400001 	beqzl	v0,0x9198
    9194:	24020001 	li	v0,1
    9198:	aca20008 	sw	v0,8(a1)
    919c:	0e000eae 	jal	0x8003ab8
    91a0:	24110001 	li	s1,1
    91a4:	0a001033 	j	0x80040cc
    91a8:	24100001 	li	s0,1
    91ac:	90d30001 	lbu	s3,1(a2)
    91b0:	32720020 	andi	s2,s3,0x20
    91b4:	1240018a 	beqz	s2,0x97e0
    91b8:	24100001 	li	s0,1
    91bc:	3c0a8008 	lui	t2,0x8008
    91c0:	35470080 	ori	a3,t2,0x80
    91c4:	90e3007c 	lbu	v1,124(a3)
    91c8:	8f93001c 	lw	s3,28(gp)
    91cc:	afa00024 	sw	zero,36(sp)
    91d0:	30690001 	andi	t1,v1,0x1
    91d4:	11200011 	beqz	t1,0x921c
    91d8:	afb00020 	sw	s0,32(sp)
    91dc:	3c058008 	lui	a1,0x8008
    91e0:	8ccb0014 	lw	t3,20(a2)
    91e4:	8cac0060 	lw	t4,96(a1)
    91e8:	016c882b 	sltu	s1,t3,t4
    91ec:	16200003 	bnez	s1,0x91fc
    91f0:	01602821 	move	a1,t3
    91f4:	3c108008 	lui	s0,0x8008
    91f8:	8e050060 	lw	a1,96(s0)
    91fc:	3c0f8008 	lui	t7,0x8008
    9200:	35e30080 	ori	v1,t7,0x80
    9204:	8c6e0070 	lw	t6,112(v1)
    9208:	00ae682b 	sltu	t5,a1,t6
    920c:	15a00002 	bnez	t5,0x9218
    9210:	00a02021 	move	a0,a1
    9214:	8c640070 	lw	a0,112(v1)
    9218:	afa40024 	sw	a0,36(sp)
    921c:	8f82ff4c 	lw	v0,-180(gp)
    9220:	8cc40014 	lw	a0,20(a2)
    9224:	8c590070 	lw	t9,112(v0)
    9228:	0099c02b 	sltu	t8,a0,t9
    922c:	53000001 	beqzl	t8,0x9234
    9230:	8c440070 	lw	a0,112(v0)
    9234:	8fa20024 	lw	v0,36(sp)
    9238:	0082f823 	subu	ra,a0,v0
    923c:	13e00003 	beqz	ra,0x924c
    9240:	afbf0028 	sw	ra,40(sp)
    9244:	24040002 	li	a0,2
    9248:	afa40020 	sw	a0,32(sp)
    924c:	8fb20020 	lw	s2,32(sp)
    9250:	0292402b 	sltu	t0,s4,s2
    9254:	1500015b 	bnez	t0,0x97c4
    9258:	00001821 	move	v1,zero
    925c:	8cc50038 	lw	a1,56(a2)
    9260:	8e6b000c 	lw	t3,12(s3)
    9264:	3c0c0080 	lui	t4,0x80
    9268:	ae650000 	sw	a1,0(s3)
    926c:	8cc90034 	lw	t1,52(a2)
    9270:	3c11ff9f 	lui	s1,0xff9f
    9274:	016c5025 	or	t2,t3,t4
    9278:	ae690004 	sw	t1,4(s3)
    927c:	90c8003f 	lbu	t0,63(a2)
    9280:	3623ffff 	ori	v1,s1,0xffff
    9284:	01431024 	and	v0,t2,v1
    9288:	3c120020 	lui	s2,0x20
    928c:	3c04ffef 	lui	a0,0xffef
    9290:	a268000b 	sb	t0,11(s3)
    9294:	00523825 	or	a3,v0,s2
    9298:	349fffff 	ori	ra,a0,0xffff
    929c:	00ffc024 	and	t8,a3,ra
    92a0:	3c190008 	lui	t9,0x8
    92a4:	8f87008c 	lw	a3,140(gp)
    92a8:	03197825 	or	t7,t8,t9
    92ac:	ae6f000c 	sw	t7,12(s3)
    92b0:	8ced0014 	lw	t5,20(a3)
    92b4:	ae600018 	sw	zero,24(s3)
    92b8:	8fb10024 	lw	s1,36(sp)
    92bc:	ae6d0014 	sw	t5,20(s3)
    92c0:	8cf00018 	lw	s0,24(a3)
    92c4:	8fae0028 	lw	t6,40(sp)
    92c8:	ae70001c 	sw	s0,28(s3)
    92cc:	8ce50008 	lw	a1,8(a3)
    92d0:	022e6021 	addu	t4,s1,t6
    92d4:	ae650024 	sw	a1,36(s3)
    92d8:	8ceb000c 	lw	t3,12(a3)
    92dc:	a6600038 	sh	zero,56(s3)
    92e0:	a660003a 	sh	zero,58(s3)
    92e4:	ae6c002c 	sw	t4,44(s3)
    92e8:	ae600028 	sw	zero,40(s3)
    92ec:	ae6b0020 	sw	t3,32(s3)
    92f0:	8cea0014 	lw	t2,20(a3)
    92f4:	8fa30028 	lw	v1,40(sp)
    92f8:	01514823 	subu	t1,t2,s1
    92fc:	01233023 	subu	a2,t1,v1
    9300:	10c00011 	beqz	a2,0x9348
    9304:	ae660010 	sw	a2,16(s3)
    9308:	90e9003d 	lbu	t1,61(a3)
    930c:	8e620004 	lw	v0,4(s3)
    9310:	8e7f0000 	lw	ra,0(s3)
    9314:	00099100 	sll	s2,t1,0x4
    9318:	00527821 	addu	t7,v0,s2
    931c:	00002021 	move	a0,zero
    9320:	01f2c82b 	sltu	t9,t7,s2
    9324:	03e4c021 	addu	t8,ra,a0
    9328:	03197021 	addu	t6,t8,t9
    932c:	ae6f0004 	sw	t7,4(s3)
    9330:	ae6e0000 	sw	t6,0(s3)
    9334:	90ed003d 	lbu	t5,61(a3)
    9338:	a26d000a 	sb	t5,10(s3)
    933c:	8f90008c 	lw	s0,140(gp)
    9340:	96060006 	lhu	a2,6(s0)
    9344:	a6660008 	sh	a2,8(s3)
    9348:	8f980020 	lw	t8,32(gp)
    934c:	24190002 	li	t9,2
    9350:	3c0f8008 	lui	t7,0x8008
    9354:	8fa40024 	lw	a0,36(sp)
    9358:	35ee0080 	ori	t6,t7,0x80
    935c:	a3190000 	sb	t9,0(t8)
    9360:	95cd005c 	lhu	t5,92(t6)
    9364:	8f920020 	lw	s2,32(gp)
    9368:	0e000e8f 	jal	0x8003a3c
    936c:	31b0ffff 	andi	s0,t5,0xffff
    9370:	00022b80 	sll	a1,v0,0xe
    9374:	02056025 	or	t4,s0,a1
    9378:	3c064200 	lui	a2,0x4200
    937c:	8f85008c 	lw	a1,140(gp)
    9380:	01865825 	or	t3,t4,a2
    9384:	ae4b0004 	sw	t3,4(s2)
    9388:	8f840020 	lw	a0,32(gp)
    938c:	8cb10038 	lw	s1,56(a1)
    9390:	ac910018 	sw	s1,24(a0)
    9394:	8ca30034 	lw	v1,52(a1)
    9398:	ac83001c 	sw	v1,28(a0)
    939c:	ac80000c 	sw	zero,12(a0)
    93a0:	ac800010 	sw	zero,16(a0)
    93a4:	a4800014 	sh	zero,20(a0)
    93a8:	a4800016 	sh	zero,22(a0)
    93ac:	a4800020 	sh	zero,32(a0)
    93b0:	a4800022 	sh	zero,34(a0)
    93b4:	ac800024 	sw	zero,36(a0)
    93b8:	90aa003f 	lbu	t2,63(a1)
    93bc:	8fa70024 	lw	a3,36(sp)
    93c0:	a48a0002 	sh	t2,2(a0)
    93c4:	10e0000c 	beqz	a3,0x93f8
    93c8:	24090001 	li	t1,1
    93cc:	8fbf0028 	lw	ra,40(sp)
    93d0:	53e00188 	beqzl	ra,0x99f4
    93d4:	90a2003d 	lbu	v0,61(a1)
    93d8:	90a2003e 	lbu	v0,62(a1)
    93dc:	24480001 	addiu	t0,v0,1
    93e0:	a0880001 	sb	t0,1(a0)
    93e4:	8f850020 	lw	a1,32(gp)
    93e8:	8fa40024 	lw	a0,36(sp)
    93ec:	aca40008 	sw	a0,8(a1)
    93f0:	0a001213 	j	0x800484c
    93f4:	3c118008 	lui	s1,0x8008
    93f8:	a0890001 	sb	t1,1(a0)
    93fc:	8f850020 	lw	a1,32(gp)
    9400:	24020001 	li	v0,1
    9404:	aca20008 	sw	v0,8(a1)
    9408:	3c118008 	lui	s1,0x8008
    940c:	36230080 	ori	v1,s1,0x80
    9410:	906a007c 	lbu	t2,124(v1)
    9414:	31470002 	andi	a3,t2,0x2
    9418:	14e00002 	bnez	a3,0x9424
    941c:	24060034 	li	a2,52
    9420:	24060030 	li	a2,48
    9424:	8f8d008c 	lw	t5,140(gp)
    9428:	3c0f8008 	lui	t7,0x8008
    942c:	35ee0080 	ori	t6,t7,0x80
    9430:	91ac0000 	lbu	t4,0(t5)
    9434:	91c8007c 	lbu	t0,124(t6)
    9438:	8fb00024 	lw	s0,36(sp)
    943c:	a0ac0030 	sb	t4,48(a1)
    9440:	8f91008c 	lw	s1,140(gp)
    9444:	8f820020 	lw	v0,32(gp)
    9448:	8faa0024 	lw	t2,36(sp)
    944c:	92270001 	lbu	a3,1(s1)
    9450:	32120003 	andi	s2,s0,0x3
    9454:	240b0004 	li	t3,4
    9458:	a0470031 	sb	a3,49(v0)
    945c:	01721823 	subu	v1,t3,s2
    9460:	8f84008c 	lw	a0,140(gp)
    9464:	8f8b0020 	lw	t3,32(gp)
    9468:	241fc000 	li	ra,-16384
    946c:	94980012 	lhu	t8,18(a0)
    9470:	95790032 	lhu	t9,50(t3)
    9474:	30690003 	andi	t1,v1,0x3
    9478:	330f3fff 	andi	t7,t8,0x3fff
    947c:	033f7024 	and	t6,t9,ra
    9480:	01cf6825 	or	t5,t6,t7
    9484:	a56d0032 	sh	t5,50(t3)
    9488:	91650032 	lbu	a1,50(t3)
    948c:	00ca3021 	addu	a2,a2,t2
    9490:	00c93021 	addu	a2,a2,t1
    9494:	30b0003f 	andi	s0,a1,0x3f
    9498:	360c0040 	ori	t4,s0,0x40
    949c:	a16c0032 	sb	t4,50(t3)
    94a0:	8fb20024 	lw	s2,36(sp)
    94a4:	31070004 	andi	a3,t0,0x4
    94a8:	12400002 	beqz	s2,0x94b4
    94ac:	8f850020 	lw	a1,32(gp)
    94b0:	00c73021 	addu	a2,a2,a3
    94b4:	3c048008 	lui	a0,0x8008
    94b8:	aca60034 	sw	a2,52(a1)
    94bc:	34880100 	ori	t0,a0,0x100
    94c0:	8d1900c0 	lw	t9,192(t0)
    94c4:	8fbf0024 	lw	ra,36(sp)
    94c8:	240dffbf 	li	t5,-65
    94cc:	acb90038 	sw	t9,56(a1)
    94d0:	90af003c 	lbu	t7,60(a1)
    94d4:	2ff80001 	sltiu	t8,ra,1
    94d8:	2412ffdf 	li	s2,-33
    94dc:	31ee007f 	andi	t6,t7,0x7f
    94e0:	a0ae003c 	sb	t6,60(a1)
    94e4:	8f8b0020 	lw	t3,32(gp)
    94e8:	00188940 	sll	s1,t8,0x5
    94ec:	9170003c 	lbu	s0,60(t3)
    94f0:	020d6024 	and	t4,s0,t5
    94f4:	a16c003c 	sb	t4,60(t3)
    94f8:	8f870020 	lw	a3,32(gp)
    94fc:	90e3003c 	lbu	v1,60(a3)
    9500:	00725024 	and	t2,v1,s2
    9504:	01511025 	or	v0,t2,s1
    9508:	a0e2003c 	sb	v0,60(a3)
    950c:	8f88008c 	lw	t0,140(gp)
    9510:	8f990020 	lw	t9,32(gp)
    9514:	8d090020 	lw	t1,32(t0)
    9518:	af290040 	sw	t1,64(t9)
    951c:	8d060024 	lw	a2,36(t0)
    9520:	af260044 	sw	a2,68(t9)
    9524:	8d040028 	lw	a0,40(t0)
    9528:	af240048 	sw	a0,72(t9)
    952c:	8d1f002c 	lw	ra,44(t0)
    9530:	af3f004c 	sw	ra,76(t9)
    9534:	0e000eae 	jal	0x8003ab8
    9538:	00000000 	nop
    953c:	8fb80020 	lw	t8,32(sp)
    9540:	24050002 	li	a1,2
    9544:	5705009f 	bnel	t8,a1,0x97c4
    9548:	8fa30020 	lw	v1,32(sp)
    954c:	3c1f8000 	lui	ra,0x8000
    9550:	3c128008 	lui	s2,0x8008
    9554:	8fe40100 	lw	a0,256(ra)
    9558:	92580008 	lbu	t8,8(s2)
    955c:	8f92ff4c 	lw	s2,-180(gp)
    9560:	0e000e34 	jal	0x80038d0
    9564:	3305007f 	andi	a1,t8,0x7f
    9568:	8f8e0020 	lw	t6,32(gp)
    956c:	8faf0020 	lw	t7,32(sp)
    9570:	8fa40028 	lw	a0,40(sp)
    9574:	a1cf0000 	sb	t7,0(t6)
    9578:	9659005c 	lhu	t9,92(s2)
    957c:	8f910020 	lw	s1,32(gp)
    9580:	0e000e8f 	jal	0x8003a3c
    9584:	3330ffff 	andi	s0,t9,0xffff
    9588:	00025b80 	sll	t3,v0,0xe
    958c:	020b6825 	or	t5,s0,t3
    9590:	3c084200 	lui	t0,0x4200
    9594:	8f8b008c 	lw	t3,140(gp)
    9598:	01a83025 	or	a2,t5,t0
    959c:	ae260004 	sw	a2,4(s1)
    95a0:	8d700038 	lw	s0,56(t3)
    95a4:	8f860020 	lw	a2,32(gp)
    95a8:	00002821 	move	a1,zero
    95ac:	00051100 	sll	v0,a1,0x4
    95b0:	acd00018 	sw	s0,24(a2)
    95b4:	8d6c0034 	lw	t4,52(t3)
    95b8:	3c047fff 	lui	a0,0x7fff
    95bc:	3488ffff 	ori	t0,a0,0xffff
    95c0:	accc001c 	sw	t4,28(a2)
    95c4:	9171003e 	lbu	s1,62(t3)
    95c8:	8cca001c 	lw	t2,28(a2)
    95cc:	8cdf0018 	lw	ra,24(a2)
    95d0:	00113900 	sll	a3,s1,0x4
    95d4:	00111f02 	srl	v1,s1,0x1c
    95d8:	01477021 	addu	t6,t2,a3
    95dc:	00434825 	or	t1,v0,v1
    95e0:	01c7c02b 	sltu	t8,t6,a3
    95e4:	03e97821 	addu	t7,ra,t1
    95e8:	01f8c821 	addu	t9,t7,t8
    95ec:	acce001c 	sw	t6,28(a2)
    95f0:	acd90018 	sw	t9,24(a2)
    95f4:	acc0000c 	sw	zero,12(a2)
    95f8:	acc00010 	sw	zero,16(a2)
    95fc:	916d003e 	lbu	t5,62(t3)
    9600:	8faa0028 	lw	t2,40(sp)
    9604:	24070005 	li	a3,5
    9608:	a4cd0014 	sh	t5,20(a2)
    960c:	95700004 	lhu	s0,4(t3)
    9610:	2418c000 	li	t8,-16384
    9614:	0148c824 	and	t9,t2,t0
    9618:	a4d00016 	sh	s0,22(a2)
    961c:	916c003e 	lbu	t4,62(t3)
    9620:	01402021 	move	a0,t2
    9624:	a4cc0020 	sh	t4,32(a2)
    9628:	95650004 	lhu	a1,4(t3)
    962c:	a4c50022 	sh	a1,34(a2)
    9630:	acc00024 	sw	zero,36(a2)
    9634:	9163003f 	lbu	v1,63(t3)
    9638:	a4c30002 	sh	v1,2(a2)
    963c:	9171003d 	lbu	s1,61(t3)
    9640:	26220001 	addiu	v0,s1,1
    9644:	a0c20001 	sb	v0,1(a2)
    9648:	8f890020 	lw	t1,32(gp)
    964c:	3c028008 	lui	v0,0x8008
    9650:	34460100 	ori	a2,v0,0x100
    9654:	ad2a0008 	sw	t2,8(t1)
    9658:	a1270030 	sb	a3,48(t1)
    965c:	8f910020 	lw	s1,32(gp)
    9660:	8f9f008c 	lw	ra,140(gp)
    9664:	2402ff80 	li	v0,-128
    9668:	962f0032 	lhu	t7,50(s1)
    966c:	97ee0012 	lhu	t6,18(ra)
    9670:	030f8024 	and	s0,t8,t7
    9674:	31cd3fff 	andi	t5,t6,0x3fff
    9678:	020d6025 	or	t4,s0,t5
    967c:	a62c0032 	sh	t4,50(s1)
    9680:	92250032 	lbu	a1,50(s1)
    9684:	2418ffbf 	li	t8,-65
    9688:	2410ffdf 	li	s0,-33
    968c:	30ab003f 	andi	t3,a1,0x3f
    9690:	35630040 	ori	v1,t3,0x40
    9694:	a2230032 	sb	v1,50(s1)
    9698:	8f9f0020 	lw	ra,32(gp)
    969c:	2403ffff 	li	v1,-1
    96a0:	afe00034 	sw	zero,52(ra)
    96a4:	8cca00c0 	lw	t2,192(a2)
    96a8:	afea0038 	sw	t2,56(ra)
    96ac:	93e7003c 	lbu	a3,60(ra)
    96b0:	30e9007f 	andi	t1,a3,0x7f
    96b4:	a3e9003c 	sb	t1,60(ra)
    96b8:	8f8d0020 	lw	t5,32(gp)
    96bc:	3c098000 	lui	t1,0x8000
    96c0:	91af003c 	lbu	t7,60(t5)
    96c4:	01f87024 	and	t6,t7,t8
    96c8:	a1ae003c 	sb	t6,60(t5)
    96cc:	8f8b0020 	lw	t3,32(gp)
    96d0:	916c003c 	lbu	t4,60(t3)
    96d4:	01902824 	and	a1,t4,s0
    96d8:	a165003c 	sb	a1,60(t3)
    96dc:	8f870020 	lw	a3,32(gp)
    96e0:	ace30040 	sw	v1,64(a3)
    96e4:	8fb10024 	lw	s1,36(sp)
    96e8:	3c038008 	lui	v1,0x8008
    96ec:	acf10044 	sw	s1,68(a3)
    96f0:	90ea0048 	lbu	t2,72(a3)
    96f4:	01423025 	or	a2,t2,v0
    96f8:	a0e60048 	sb	a2,72(a3)
    96fc:	8f900020 	lw	s0,32(gp)
    9700:	8f8e008c 	lw	t6,140(gp)
    9704:	8e1f0048 	lw	ra,72(s0)
    9708:	03e9c024 	and	t8,ra,t1
    970c:	03197825 	or	t7,t8,t9
    9710:	ae0f0048 	sw	t7,72(s0)
    9714:	91cd003e 	lbu	t5,62(t6)
    9718:	a20d004c 	sb	t5,76(s0)
    971c:	8f8c008c 	lw	t4,140(gp)
    9720:	8f8b0020 	lw	t3,32(gp)
    9724:	95850004 	lhu	a1,4(t4)
    9728:	a565004e 	sh	a1,78(t3)
    972c:	0e0002f0 	jal	0x8000bc0
    9730:	8c650060 	lw	a1,96(v1)
    9734:	924a007c 	lbu	t2,124(s2)
    9738:	00402821 	move	a1,v0
    973c:	8fa60028 	lw	a2,40(sp)
    9740:	00021140 	sll	v0,v0,0x5
    9744:	00058900 	sll	s1,a1,0x4
    9748:	00513821 	addu	a3,v0,s1
    974c:	31490002 	andi	t1,t2,0x2
    9750:	11200003 	beqz	t1,0x9760
    9754:	00c71821 	addu	v1,a2,a3
    9758:	00052080 	sll	a0,a1,0x2
    975c:	00641821 	addu	v1,v1,a0
    9760:	3c028008 	lui	v0,0x8008
    9764:	344a0080 	ori	t2,v0,0x80
    9768:	9147007c 	lbu	a3,124(t2)
    976c:	30e90004 	andi	t1,a3,0x4
    9770:	11200003 	beqz	t1,0x9780
    9774:	8fb90028 	lw	t9,40(sp)
    9778:	00056080 	sll	t4,a1,0x2
    977c:	006c1821 	addu	v1,v1,t4
    9780:	240b0004 	li	t3,4
    9784:	8f910020 	lw	s1,32(gp)
    9788:	33300003 	andi	s0,t9,0x3
    978c:	01704023 	subu	t0,t3,s0
    9790:	310d0003 	andi	t5,t0,0x3
    9794:	006d3021 	addu	a2,v1,t5
    9798:	ae260034 	sw	a2,52(s1)
    979c:	3c038008 	lui	v1,0x8008
    97a0:	a6650038 	sh	a1,56(s3)
    97a4:	3c058000 	lui	a1,0x8000
    97a8:	8ca40100 	lw	a0,256(a1)
    97ac:	90730008 	lbu	s3,8(v1)
    97b0:	0e000e79 	jal	0x80039e4
    97b4:	3265007f 	andi	a1,s3,0x7f
    97b8:	0e000eae 	jal	0x8003ab8
    97bc:	00000000 	nop
    97c0:	8fa30020 	lw	v1,32(sp)
    97c4:	0003782b 	sltu	t7,zero,v1
    97c8:	000f8023 	negu	s0,t7
    97cc:	0290a024 	and	s4,s4,s0
    97d0:	00608021 	move	s0,v1
    97d4:	00608821 	move	s1,v1
    97d8:	0a001033 	j	0x80040cc
    97dc:	0010802b 	sltu	s0,zero,s0
    97e0:	8f91001c 	lw	s1,28(gp)
    97e4:	8cd80038 	lw	t8,56(a2)
    97e8:	24190003 	li	t9,3
    97ec:	a6200008 	sh	zero,8(s1)
    97f0:	ae380000 	sw	t8,0(s1)
    97f4:	8ccf0034 	lw	t7,52(a2)
    97f8:	a220000a 	sb	zero,10(s1)
    97fc:	8f8e008c 	lw	t6,140(gp)
    9800:	ae2f0004 	sw	t7,4(s1)
    9804:	3c050080 	lui	a1,0x80
    9808:	91cb003f 	lbu	t3,63(t6)
    980c:	a239000c 	sb	t9,12(s1)
    9810:	8e28000c 	lw	t0,12(s1)
    9814:	3c0dff9f 	lui	t5,0xff9f
    9818:	a22b000b 	sb	t3,11(s1)
    981c:	01051025 	or	v0,t0,a1
    9820:	35a3ffff 	ori	v1,t5,0xffff
    9824:	3c13ffef 	lui	s3,0xffef
    9828:	8f8e008c 	lw	t6,140(gp)
    982c:	00433824 	and	a3,v0,v1
    9830:	366affff 	ori	t2,s3,0xffff
    9834:	00ea4824 	and	t1,a3,t2
    9838:	ae29000c 	sw	t1,12(s1)
    983c:	8dc40014 	lw	a0,20(t6)
    9840:	95d80012 	lhu	t8,18(t6)
    9844:	8f860088 	lw	a2,136(gp)
    9848:	ae240010 	sw	a0,16(s1)
    984c:	8dcc0014 	lw	t4,20(t6)
    9850:	ae200018 	sw	zero,24(s1)
    9854:	ae200020 	sw	zero,32(s1)
    9858:	ae2c0014 	sw	t4,20(s1)
    985c:	ae200024 	sw	zero,36(s1)
    9860:	8ddf0018 	lw	ra,24(t6)
    9864:	330c3fff 	andi	t4,t8,0x3fff
    9868:	000c9180 	sll	s2,t4,0x6
    986c:	ae3f0028 	sw	ra,40(s1)
    9870:	8dcf0008 	lw	t7,8(t6)
    9874:	0246c821 	addu	t9,s2,a2
    9878:	330b0001 	andi	t3,t8,0x1
    987c:	ae2f0030 	sw	t7,48(s1)
    9880:	8dc3000c 	lw	v1,12(t6)
    9884:	8f930020 	lw	s3,32(gp)
    9888:	001941c2 	srl	t0,t9,0x7
    988c:	000b2b80 	sll	a1,t3,0xe
    9890:	01056821 	addu	t5,t0,a1
    9894:	24020002 	li	v0,2
    9898:	3c0a8008 	lui	t2,0x8008
    989c:	a62d001c 	sh	t5,28(s1)
    98a0:	a6200034 	sh	zero,52(s1)
    98a4:	ae23002c 	sw	v1,44(s1)
    98a8:	35470080 	ori	a3,t2,0x80
    98ac:	a2620000 	sb	v0,0(s3)
    98b0:	94e9005c 	lhu	t1,92(a3)
    98b4:	8f990020 	lw	t9,32(gp)
    98b8:	3c044200 	lui	a0,0x4200
    98bc:	313fffff 	andi	ra,t1,0xffff
    98c0:	03e43025 	or	a2,ra,a0
    98c4:	af260004 	sw	a2,4(t9)
    98c8:	8f98008c 	lw	t8,140(gp)
    98cc:	240e0001 	li	t6,1
    98d0:	2402c000 	li	v0,-16384
    98d4:	8f120038 	lw	s2,56(t8)
    98d8:	24060034 	li	a2,52
    98dc:	af320018 	sw	s2,24(t9)
    98e0:	8f0f0034 	lw	t7,52(t8)
    98e4:	3c128008 	lui	s2,0x8008
    98e8:	36580080 	ori	t8,s2,0x80
    98ec:	af2f001c 	sw	t7,28(t9)
    98f0:	af20000c 	sw	zero,12(t9)
    98f4:	af200010 	sw	zero,16(t9)
    98f8:	a7200014 	sh	zero,20(t9)
    98fc:	a7200016 	sh	zero,22(t9)
    9900:	a7200020 	sh	zero,32(t9)
    9904:	a7200022 	sh	zero,34(t9)
    9908:	af200024 	sw	zero,36(t9)
    990c:	a7300002 	sh	s0,2(t9)
    9910:	a32e0001 	sb	t6,1(t9)
    9914:	8f8d0020 	lw	t5,32(gp)
    9918:	8f8b008c 	lw	t3,140(gp)
    991c:	adb00008 	sw	s0,8(t5)
    9920:	91680000 	lbu	t0,0(t3)
    9924:	a1a80030 	sb	t0,48(t5)
    9928:	8f91008c 	lw	s1,140(gp)
    992c:	8f830020 	lw	v1,32(gp)
    9930:	92250001 	lbu	a1,1(s1)
    9934:	a0650031 	sb	a1,49(v1)
    9938:	8f9f0020 	lw	ra,32(gp)
    993c:	97f30032 	lhu	s3,50(ra)
    9940:	02625024 	and	t2,s3,v0
    9944:	014c3825 	or	a3,t2,t4
    9948:	a7e70032 	sh	a3,50(ra)
    994c:	93e90032 	lbu	t1,50(ra)
    9950:	3124003f 	andi	a0,t1,0x3f
    9954:	a3e40032 	sb	a0,50(ra)
    9958:	930f007c 	lbu	t7,124(t8)
    995c:	31ee0002 	andi	t6,t7,0x2
    9960:	15c00002 	bnez	t6,0x996c
    9964:	8f840020 	lw	a0,32(gp)
    9968:	24060030 	li	a2,48
    996c:	3c0e8008 	lui	t6,0x8008
    9970:	ac860034 	sw	a2,52(a0)
    9974:	35d10100 	ori	s1,t6,0x100
    9978:	8e3900c0 	lw	t9,192(s1)
    997c:	2403ffbf 	li	v1,-65
    9980:	02008821 	move	s1,s0
    9984:	ac990038 	sw	t9,56(a0)
    9988:	908b003c 	lbu	t3,60(a0)
    998c:	0010802b 	sltu	s0,zero,s0
    9990:	3165007f 	andi	a1,t3,0x7f
    9994:	a085003c 	sb	a1,60(a0)
    9998:	8f8d0020 	lw	t5,32(gp)
    999c:	91a8003c 	lbu	t0,60(t5)
    99a0:	01031024 	and	v0,t0,v1
    99a4:	a1a2003c 	sb	v0,60(t5)
    99a8:	8f870020 	lw	a3,32(gp)
    99ac:	90f3003c 	lbu	s3,60(a3)
    99b0:	366a0020 	ori	t2,s3,0x20
    99b4:	a0ea003c 	sb	t2,60(a3)
    99b8:	8f9f008c 	lw	ra,140(gp)
    99bc:	8f920020 	lw	s2,32(gp)
    99c0:	8fe90020 	lw	t1,32(ra)
    99c4:	ae490040 	sw	t1,64(s2)
    99c8:	8fe40024 	lw	a0,36(ra)
    99cc:	ae440044 	sw	a0,68(s2)
    99d0:	8fec0028 	lw	t4,40(ra)
    99d4:	ae4c0048 	sw	t4,72(s2)
    99d8:	8fe6002c 	lw	a2,44(ra)
    99dc:	0e000eae 	jal	0x8003ab8
    99e0:	ae46004c 	sw	a2,76(s2)
    99e4:	0a001033 	j	0x80040cc
    99e8:	00000000 	nop
    99ec:	0a0010a4 	j	0x8004290
    99f0:	8ce20040 	lw	v0,64(a3)
    99f4:	24480001 	addiu	t0,v0,1
    99f8:	a0880001 	sb	t0,1(a0)
    99fc:	8f850020 	lw	a1,32(gp)
    9a00:	8fa40024 	lw	a0,36(sp)
    9a04:	aca40008 	sw	a0,8(a1)
    9a08:	0a001213 	j	0x800484c
    9a0c:	3c118008 	lui	s1,0x8008
    9a10:	94cb0052 	lhu	t3,82(a2)
    9a14:	3c080800 	lui	t0,0x800
    9a18:	8d080024 	lw	t0,36(t0)
    9a1c:	010b1021 	addu	v0,t0,t3
    9a20:	a4c20052 	sh	v0,82(a2)
    9a24:	0a000fdf 	j	0x8003f7c
    9a28:	8fb30010 	lw	s3,16(sp)
    9a2c:	27bdffe0 	addiu	sp,sp,-32
    9a30:	3c0d8008 	lui	t5,0x8008
    9a34:	afb20018 	sw	s2,24(sp)
    9a38:	afb00010 	sw	s0,16(sp)
    9a3c:	afbf001c 	sw	ra,28(sp)
    9a40:	afb10014 	sw	s1,20(sp)
    9a44:	35b20080 	ori	s2,t5,0x80
    9a48:	8e4c0018 	lw	t4,24(s2)
    9a4c:	35a80100 	ori	t0,t5,0x100
    9a50:	964b0006 	lhu	t3,6(s2)
    9a54:	95a70050 	lhu	a3,80(t5)
    9a58:	910900ec 	lbu	t1,236(t0)
    9a5c:	000c5602 	srl	t2,t4,0x18
    9a60:	01672823 	subu	a1,t3,a3
    9a64:	3143007f 	andi	v1,t2,0x7f
    9a68:	312600ff 	andi	a2,t1,0xff
    9a6c:	24020003 	li	v0,3
    9a70:	a3830090 	sb	v1,144(gp)
    9a74:	af840088 	sw	a0,136(gp)
    9a78:	10c2001b 	beq	a2,v0,0x9ae8
    9a7c:	30b0ffff 	andi	s0,a1,0xffff
    9a80:	910600ec 	lbu	a2,236(t0)
    9a84:	24120005 	li	s2,5
    9a88:	30c200ff 	andi	v0,a2,0xff
    9a8c:	10520033 	beq	v0,s2,0x9b5c
    9a90:	00000000 	nop
    9a94:	16000009 	bnez	s0,0x9abc
    9a98:	8fbf001c 	lw	ra,28(sp)
    9a9c:	8fb20018 	lw	s2,24(sp)
    9aa0:	8fb10014 	lw	s1,20(sp)
    9aa4:	8fb00010 	lw	s0,16(sp)
    9aa8:	240d0c00 	li	t5,3072
    9aac:	3c0c8000 	lui	t4,0x8000
    9ab0:	27bd0020 	addiu	sp,sp,32
    9ab4:	03e00008 	jr	ra
    9ab8:	ad8d0024 	sw	t5,36(t4)
    9abc:	0e000fc2 	jal	0x8003f08
    9ac0:	02002021 	move	a0,s0
    9ac4:	8fbf001c 	lw	ra,28(sp)
    9ac8:	8fb20018 	lw	s2,24(sp)
    9acc:	8fb10014 	lw	s1,20(sp)
    9ad0:	8fb00010 	lw	s0,16(sp)
    9ad4:	240d0c00 	li	t5,3072
    9ad8:	3c0c8000 	lui	t4,0x8000
    9adc:	27bd0020 	addiu	sp,sp,32
    9ae0:	03e00008 	jr	ra
    9ae4:	ad8d0024 	sw	t5,36(t4)
    9ae8:	96580078 	lhu	t8,120(s2)
    9aec:	9651007a 	lhu	s1,122(s2)
    9af0:	924e007d 	lbu	t6,125(s2)
    9af4:	02387826 	xor	t7,s1,t8
    9af8:	31e8ffff 	andi	t0,t7,0xffff
    9afc:	31c400c0 	andi	a0,t6,0xc0
    9b00:	14800009 	bnez	a0,0x9b28
    9b04:	2d110001 	sltiu	s1,t0,1
    9b08:	16000037 	bnez	s0,0x9be8
    9b0c:	00000000 	nop
    9b10:	5620ffe2 	bnezl	s1,0x9a9c
    9b14:	8fbf001c 	lw	ra,28(sp)
    9b18:	0e000ec3 	jal	0x8003b0c
    9b1c:	00000000 	nop
    9b20:	0a0013b7 	j	0x8004edc
    9b24:	8fbf001c 	lw	ra,28(sp)
    9b28:	1620ffda 	bnez	s1,0x9a94
    9b2c:	00000000 	nop
    9b30:	0e000ec3 	jal	0x8003b0c
    9b34:	00000000 	nop
    9b38:	1440ffd8 	bnez	v0,0x9a9c
    9b3c:	8fbf001c 	lw	ra,28(sp)
    9b40:	16000022 	bnez	s0,0x9bcc
    9b44:	00000000 	nop
    9b48:	925f007d 	lbu	ra,125(s2)
    9b4c:	33e2003f 	andi	v0,ra,0x3f
    9b50:	a242007d 	sb	v0,125(s2)
    9b54:	0a0013b7 	j	0x8004edc
    9b58:	8fbf001c 	lw	ra,28(sp)
    9b5c:	950900da 	lhu	t1,218(t0)
    9b60:	8f860064 	lw	a2,100(gp)
    9b64:	00802821 	move	a1,a0
    9b68:	24040005 	li	a0,5
    9b6c:	0e000666 	jal	0x8001998
    9b70:	3130ffff 	andi	s0,t1,0xffff
    9b74:	97830076 	lhu	v1,118(gp)
    9b78:	3c048000 	lui	a0,0x8000
    9b7c:	2465ffff 	addiu	a1,v1,-1
    9b80:	a7850076 	sh	a1,118(gp)
    9b84:	8c8a01b8 	lw	t2,440(a0)
    9b88:	0540fffe 	bltz	t2,0x9b84
    9b8c:	00000000 	nop
    9b90:	ac800180 	sw	zero,384(a0)
    9b94:	8fbf001c 	lw	ra,28(sp)
    9b98:	ac900184 	sw	s0,388(a0)
    9b9c:	8fb20018 	lw	s2,24(sp)
    9ba0:	8fb10014 	lw	s1,20(sp)
    9ba4:	8fb00010 	lw	s0,16(sp)
    9ba8:	3c076013 	lui	a3,0x6013
    9bac:	3c0b1000 	lui	t3,0x1000
    9bb0:	240d0c00 	li	t5,3072
    9bb4:	3c0c8000 	lui	t4,0x8000
    9bb8:	27bd0020 	addiu	sp,sp,32
    9bbc:	ac870188 	sw	a3,392(a0)
    9bc0:	ac8b01b8 	sw	t3,440(a0)
    9bc4:	03e00008 	jr	ra
    9bc8:	ad8d0024 	sw	t5,36(t4)
    9bcc:	0e000fc2 	jal	0x8003f08
    9bd0:	02002021 	move	a0,s0
    9bd4:	5040ffb1 	beqzl	v0,0x9a9c
    9bd8:	8fbf001c 	lw	ra,28(sp)
    9bdc:	925f007d 	lbu	ra,125(s2)
    9be0:	0a0013e4 	j	0x8004f90
    9be4:	33e2003f 	andi	v0,ra,0x3f
    9be8:	0e000fc2 	jal	0x8003f08
    9bec:	02002021 	move	a0,s0
    9bf0:	1440ffaa 	bnez	v0,0x9a9c
    9bf4:	8fbf001c 	lw	ra,28(sp)
    9bf8:	12200007 	beqz	s1,0x9c18
    9bfc:	00000000 	nop
    9c00:	9259007d 	lbu	t9,125(s2)
    9c04:	3330003f 	andi	s0,t9,0x3f
    9c08:	36020040 	ori	v0,s0,0x40
    9c0c:	a242007d 	sb	v0,125(s2)
    9c10:	0a0013b7 	j	0x8004edc
    9c14:	8fbf001c 	lw	ra,28(sp)
    9c18:	0e000ec3 	jal	0x8003b0c
    9c1c:	00000000 	nop
    9c20:	5040ff9e 	beqzl	v0,0x9a9c
    9c24:	8fbf001c 	lw	ra,28(sp)
    9c28:	9259007d 	lbu	t9,125(s2)
    9c2c:	3330003f 	andi	s0,t9,0x3f
    9c30:	0a001413 	j	0x800504c
    9c34:	36020040 	ori	v0,s0,0x40
    9c38:	000411c0 	sll	v0,a0,0x7
    9c3c:	03e00008 	jr	ra
    9c40:	24420240 	addiu	v0,v0,576
    9c44:	3c050006 	lui	a1,0x6
    9c48:	00851025 	or	v0,a0,a1
    9c4c:	3c038000 	lui	v1,0x8000
    9c50:	ac620030 	sw	v0,48(v1)
	...
    9c60:	3c058000 	lui	a1,0x8000
    9c64:	8ca70000 	lw	a3,0(a1)
    9c68:	30e60010 	andi	a2,a3,0x10
    9c6c:	10c0fffd 	beqz	a2,0x9c64
    9c70:	00000000 	nop
    9c74:	8cab003c 	lw	t3,60(a1)
    9c78:	8caa003c 	lw	t2,60(a1)
    9c7c:	01644821 	addu	t1,t3,a0
    9c80:	012a402b 	sltu	t0,t1,t2
    9c84:	11000004 	beqz	t0,0x9c98
    9c88:	3c068000 	lui	a2,0x8000
    9c8c:	8cad0038 	lw	t5,56(a1)
    9c90:	25ac0001 	addiu	t4,t5,1
    9c94:	acac0038 	sw	t4,56(a1)
    9c98:	8ccf003c 	lw	t7,60(a2)
    9c9c:	01e47021 	addu	t6,t7,a0
    9ca0:	03e00008 	jr	ra
    9ca4:	acce003c 	sw	t6,60(a2)
    9ca8:	27bdffd0 	addiu	sp,sp,-48
    9cac:	afb20018 	sw	s2,24(sp)
    9cb0:	afb00010 	sw	s0,16(sp)
    9cb4:	afbf0028 	sw	ra,40(sp)
    9cb8:	afb50024 	sw	s5,36(sp)
    9cbc:	afb40020 	sw	s4,32(sp)
    9cc0:	afb3001c 	sw	s3,28(sp)
    9cc4:	afb10014 	sw	s1,20(sp)
    9cc8:	00a09021 	move	s2,a1
    9ccc:	14a00012 	bnez	a1,0x9d18
    9cd0:	00808021 	move	s0,a0
    9cd4:	8f820024 	lw	v0,36(gp)
    9cd8:	00021880 	sll	v1,v0,0x2
    9cdc:	14600037 	bnez	v1,0x9dbc
    9ce0:	24040010 	li	a0,16
    9ce4:	0e001421 	jal	0x8005084
    9ce8:	00000000 	nop
    9cec:	8fbf0028 	lw	ra,40(sp)
    9cf0:	8fb50024 	lw	s5,36(sp)
    9cf4:	8fb40020 	lw	s4,32(sp)
    9cf8:	8fb3001c 	lw	s3,28(sp)
    9cfc:	8fb20018 	lw	s2,24(sp)
    9d00:	8fb10014 	lw	s1,20(sp)
    9d04:	8fb00010 	lw	s0,16(sp)
    9d08:	00001021 	move	v0,zero
    9d0c:	27bd0030 	addiu	sp,sp,48
    9d10:	03e00008 	jr	ra
    9d14:	af800024 	sw	zero,36(gp)
    9d18:	10a0001e 	beqz	a1,0x9d94
    9d1c:	00008821 	move	s1,zero
    9d20:	3c138000 	lui	s3,0x8000
    9d24:	24140020 	li	s4,32
    9d28:	0a001460 	j	0x8005180
    9d2c:	3c150005 	lui	s5,0x5
    9d30:	26310004 	addiu	s1,s1,4
    9d34:	0232502b 	sltu	t2,s1,s2
    9d38:	11400017 	beqz	t2,0x9d98
    9d3c:	02401021 	move	v0,s2
    9d40:	8f880024 	lw	t0,36(gp)
    9d44:	8e070000 	lw	a3,0(s0)
    9d48:	24040080 	li	a0,128
    9d4c:	00084880 	sll	t1,t0,0x2
    9d50:	01331821 	addu	v1,t1,s3
    9d54:	25060001 	addiu	a2,t0,1
    9d58:	ac670400 	sw	a3,1024(v1)
    9d5c:	26100004 	addiu	s0,s0,4
    9d60:	14d4fff3 	bne	a2,s4,0x9d30
    9d64:	af860024 	sw	a2,36(gp)
    9d68:	0e001421 	jal	0x8005084
    9d6c:	00000000 	nop
    9d70:	ae750030 	sw	s5,48(s3)
	...
    9d84:	26310004 	addiu	s1,s1,4
    9d88:	0232502b 	sltu	t2,s1,s2
    9d8c:	1540ffec 	bnez	t2,0x9d40
    9d90:	af800024 	sw	zero,36(gp)
    9d94:	02401021 	move	v0,s2
    9d98:	8fbf0028 	lw	ra,40(sp)
    9d9c:	8fb50024 	lw	s5,36(sp)
    9da0:	8fb40020 	lw	s4,32(sp)
    9da4:	8fb3001c 	lw	s3,28(sp)
    9da8:	8fb20018 	lw	s2,24(sp)
    9dac:	8fb10014 	lw	s1,20(sp)
    9db0:	8fb00010 	lw	s0,16(sp)
    9db4:	03e00008 	jr	ra
    9db8:	27bd0030 	addiu	sp,sp,48
    9dbc:	00032023 	negu	a0,v1
    9dc0:	3085000f 	andi	a1,a0,0xf
    9dc4:	0a001449 	j	0x8005124
    9dc8:	00652021 	addu	a0,v1,a1
    9dcc:	27bdffd8 	addiu	sp,sp,-40
    9dd0:	3c038000 	lui	v1,0x8000
    9dd4:	00a03821 	move	a3,a1
    9dd8:	ac670038 	sw	a3,56(v1)
    9ddc:	afb10014 	sw	s1,20(sp)
    9de0:	ac66003c 	sw	a2,60(v1)
    9de4:	00808821 	move	s1,a0
    9de8:	3c060022 	lui	a2,0x22
    9dec:	ac660030 	sw	a2,48(v1)
    9df0:	afb00010 	sw	s0,16(sp)
    9df4:	ac710028 	sw	s1,40(v1)
    9df8:	3c10800c 	lui	s0,0x800c
    9dfc:	3c04800c 	lui	a0,0x800c
    9e00:	24050070 	li	a1,112
    9e04:	afbf0024 	sw	ra,36(sp)
    9e08:	afb40020 	sw	s4,32(sp)
    9e0c:	afb3001c 	sw	s3,28(sp)
    9e10:	0e00143a 	jal	0x80050e8
    9e14:	afb20018 	sw	s2,24(sp)
    9e18:	26040080 	addiu	a0,s0,128
    9e1c:	0e00143a 	jal	0x80050e8
    9e20:	24050080 	li	a1,128
    9e24:	26040100 	addiu	a0,s0,256
    9e28:	0e00143a 	jal	0x80050e8
    9e2c:	240500f0 	li	a1,240
    9e30:	3c020800 	lui	v0,0x800
    9e34:	8c420064 	lw	v0,100(v0)
    9e38:	10400013 	beqz	v0,0x9e88
    9e3c:	00008021 	move	s0,zero
    9e40:	3c148000 	lui	s4,0x8000
    9e44:	2413ff80 	li	s3,-128
    9e48:	3c12800c 	lui	s2,0x800c
    9e4c:	0e00141e 	jal	0x8005078
    9e50:	02002021 	move	a0,s0
    9e54:	00514821 	addu	t1,v0,s1
    9e58:	312a007f 	andi	t2,t1,0x7f
    9e5c:	01334024 	and	t0,t1,s3
    9e60:	01522021 	addu	a0,t2,s2
    9e64:	24050050 	li	a1,80
    9e68:	ae880028 	sw	t0,40(s4)
    9e6c:	0e00143a 	jal	0x80050e8
    9e70:	26100001 	addiu	s0,s0,1
    9e74:	3c050800 	lui	a1,0x800
    9e78:	8ca50064 	lw	a1,100(a1)
    9e7c:	0205202b 	sltu	a0,s0,a1
    9e80:	1480fff2 	bnez	a0,0x9e4c
    9e84:	00000000 	nop
    9e88:	3c060800 	lui	a2,0x800
    9e8c:	8cc60060 	lw	a2,96(a2)
    9e90:	10c00015 	beqz	a2,0x9ee8
    9e94:	00008021 	move	s0,zero
    9e98:	3c148000 	lui	s4,0x8000
    9e9c:	2413ff80 	li	s3,-128
    9ea0:	3c12800c 	lui	s2,0x800c
    9ea4:	3c190800 	lui	t9,0x800
    9ea8:	8f390058 	lw	t9,88(t9)
    9eac:	0010c180 	sll	t8,s0,0x6
    9eb0:	24050040 	li	a1,64
    9eb4:	03317821 	addu	t7,t9,s1
    9eb8:	01f86821 	addu	t5,t7,t8
    9ebc:	31ae007f 	andi	t6,t5,0x7f
    9ec0:	01b36024 	and	t4,t5,s3
    9ec4:	01d22021 	addu	a0,t6,s2
    9ec8:	ae8c0028 	sw	t4,40(s4)
    9ecc:	0e00143a 	jal	0x80050e8
    9ed0:	26100001 	addiu	s0,s0,1
    9ed4:	3c060800 	lui	a2,0x800
    9ed8:	8cc60060 	lw	a2,96(a2)
    9edc:	0206582b 	sltu	t3,s0,a2
    9ee0:	1560fff0 	bnez	t3,0x9ea4
    9ee4:	00000000 	nop
    9ee8:	3c100800 	lui	s0,0x800
    9eec:	8e10005c 	lw	s0,92(s0)
    9ef0:	2414ff80 	li	s4,-128
    9ef4:	3c1f800c 	lui	ra,0x800c
    9ef8:	02119821 	addu	s3,s0,s1
    9efc:	02749024 	and	s2,s3,s4
    9f00:	3262007f 	andi	v0,s3,0x7f
    9f04:	3c118000 	lui	s1,0x8000
    9f08:	005f2021 	addu	a0,v0,ra
    9f0c:	ae320028 	sw	s2,40(s1)
    9f10:	0e00143a 	jal	0x80050e8
    9f14:	00062840 	sll	a1,a2,0x1
    9f18:	8fbf0024 	lw	ra,36(sp)
    9f1c:	8fb40020 	lw	s4,32(sp)
    9f20:	8fb3001c 	lw	s3,28(sp)
    9f24:	8fb20018 	lw	s2,24(sp)
    9f28:	8fb10014 	lw	s1,20(sp)
    9f2c:	8fb00010 	lw	s0,16(sp)
    9f30:	00002021 	move	a0,zero
    9f34:	00002821 	move	a1,zero
    9f38:	0a00143a 	j	0x80050e8
    9f3c:	27bd0028 	addiu	sp,sp,40
    9f40:	8f83003c 	lw	v1,60(gp)
    9f44:	8c620004 	lw	v0,4(v1)
    9f48:	10400003 	beqz	v0,0x9f58
    9f4c:	00000000 	nop
    9f50:	03e00008 	jr	ra
    9f54:	00000000 	nop
    9f58:	8c640010 	lw	a0,16(v1)
    9f5c:	8c650008 	lw	a1,8(v1)
    9f60:	0a001483 	j	0x800520c
    9f64:	8c66000c 	lw	a2,12(v1)
    9f68:	00000000 	nop
    9f6c:	0000001b 	divu	zero,zero,zero
    9f70:	0000000f 	sync
    9f74:	0000000a 	.word	0xa
    9f78:	00000008 	jr	zero
    9f7c:	00000006 	srlv	zero,zero,zero
    9f80:	00000005 	.word	0x5
    9f84:	00000005 	.word	0x5
    9f88:	00000004 	sllv	zero,zero,zero
    9f8c:	00000004 	sllv	zero,zero,zero
    9f90:	00000003 	sra	zero,zero,0x0
    9f94:	00000003 	sra	zero,zero,0x0
    9f98:	00000003 	sra	zero,zero,0x0
    9f9c:	00000003 	sra	zero,zero,0x0
    9fa0:	00000003 	sra	zero,zero,0x0
    9fa4:	00000002 	srl	zero,zero,0x0
    9fa8:	00000002 	srl	zero,zero,0x0
    9fac:	00000002 	srl	zero,zero,0x0
    9fb0:	00000002 	srl	zero,zero,0x0
    9fb4:	00000002 	srl	zero,zero,0x0
    9fb8:	00000002 	srl	zero,zero,0x0
    9fbc:	00000002 	srl	zero,zero,0x0
    9fc0:	00000002 	srl	zero,zero,0x0
    9fc4:	00000002 	srl	zero,zero,0x0
    9fc8:	00000002 	srl	zero,zero,0x0
    9fcc:	00000002 	srl	zero,zero,0x0
    9fd0:	00000002 	srl	zero,zero,0x0
    9fd4:	00000002 	srl	zero,zero,0x0
    9fd8:	00000002 	srl	zero,zero,0x0
    9fdc:	00000002 	srl	zero,zero,0x0
    9fe0:	00000001 	.word	0x1
    9fe4:	00000001 	.word	0x1
    9fe8:	00000001 	.word	0x1
    9fec:	80080100 	lb	t0,256(zero)
    9ff0:	80080080 	lb	t0,128(zero)
    9ff4:	80080000 	lb	t0,0(zero)
    9ff8:	08001790 	j	0x5e40
    9ffc:	08001790 	j	0x5e40
    a000:	080017c8 	j	0x5f20
    a004:	080017c8 	j	0x5f20
    a008:	080017dc 	j	0x5f70
    a00c:	080017ac 	j	0x5eb0
    a010:	08001a04 	j	0x6810
    a014:	080019d0 	j	0x6740
    a018:	08001a5c 	j	0x6970
    a01c:	08001a5c 	j	0x6970
    a020:	08001ae4 	j	0x6b90
    a024:	08001a14 	j	0x6850
    a028:	80080240 	lb	t0,576(zero)
    a02c:	08002154 	j	0x8550
    a030:	08001fa0 	j	0x7e80
    a034:	0800217c 	j	0x85f0
    a038:	08002214 	j	0x8850
    a03c:	08002364 	j	0x8d90
    a040:	080023b0 	j	0x8ec0
    a044:	080024d4 	j	0x9350
    a048:	080023dc 	j	0x8f70
    a04c:	08002460 	j	0x9180
    a050:	08002010 	j	0x8040
    a054:	08002988 	j	0xa620
    a058:	0800292c 	j	0xa4b0
    a05c:	08001fbc 	j	0x7ef0
    a060:	08001fbc 	j	0x7ef0
    a064:	08001fbc 	j	0x7ef0
    a068:	08002548 	j	0x9520
    a06c:	08002548 	j	0x9520
    a070:	08001fbc 	j	0x7ef0
    a074:	08001fbc 	j	0x7ef0
    a078:	08002804 	j	0xa010
    a07c:	08001fbc 	j	0x7ef0
    a080:	08001fbc 	j	0x7ef0
    a084:	08001fbc 	j	0x7ef0
    a088:	08001fbc 	j	0x7ef0
    a08c:	08002864 	j	0xa190
    a090:	08001fbc 	j	0x7ef0
    a094:	08001fbc 	j	0x7ef0
    a098:	08001fbc 	j	0x7ef0
    a09c:	08001fbc 	j	0x7ef0
    a0a0:	08001fbc 	j	0x7ef0
    a0a4:	08001fbc 	j	0x7ef0
    a0a8:	08001fbc 	j	0x7ef0
    a0ac:	08001fbc 	j	0x7ef0
    a0b0:	08001fbc 	j	0x7ef0
    a0b4:	08001fbc 	j	0x7ef0
    a0b8:	08001fbc 	j	0x7ef0
    a0bc:	08001fbc 	j	0x7ef0
    a0c0:	08001fbc 	j	0x7ef0
    a0c4:	08001fbc 	j	0x7ef0
    a0c8:	080023d0 	j	0x8f40
    a0cc:	08001fbc 	j	0x7ef0
    a0d0:	08001fbc 	j	0x7ef0
    a0d4:	080028d4 	j	0xa350
    a0d8:	08001fbc 	j	0x7ef0
    a0dc:	08001fbc 	j	0x7ef0
    a0e0:	08001fbc 	j	0x7ef0
    a0e4:	08001fbc 	j	0x7ef0
    a0e8:	08001fbc 	j	0x7ef0
    a0ec:	08001fbc 	j	0x7ef0
    a0f0:	08001fbc 	j	0x7ef0
    a0f4:	08001fbc 	j	0x7ef0
    a0f8:	08001fbc 	j	0x7ef0
    a0fc:	08001fbc 	j	0x7ef0
    a100:	08001fbc 	j	0x7ef0
    a104:	08001fbc 	j	0x7ef0
    a108:	08001fbc 	j	0x7ef0
    a10c:	08001fbc 	j	0x7ef0
    a110:	08001fbc 	j	0x7ef0
    a114:	08001fbc 	j	0x7ef0
    a118:	08001fbc 	j	0x7ef0
    a11c:	08002728 	j	0x9ca0
    a120:	08001fbc 	j	0x7ef0
    a124:	08001fbc 	j	0x7ef0
    a128:	08002690 	j	0x9a40
    a12c:	080025ec 	j	0x97b0
    a130:	08003750 	j	0xdd40
    a134:	08003724 	j	0xdc90
    a138:	080036f0 	j	0xdbc0
    a13c:	080036c4 	j	0xdb10
    a140:	080036a4 	j	0xda90
    a144:	08003658 	j	0xd960
    a148:	80080100 	lb	t0,256(zero)
    a14c:	80080080 	lb	t0,128(zero)
    a150:	80080000 	lb	t0,0(zero)
    a154:	80080080 	lb	t0,128(zero)
    a158:	0a000c76 	j	0x80031d8
    a15c:	00000000 	nop
    a160:	00000000 	nop
    a164:	0000000d 	break
    a168:	72787034 	.word	0x72787034
    a16c:	2e362e31 	sltiu	s6,s1,11825
    a170:	36000000 	ori	zero,s0,0x0
    a174:	04061003 	.word	0x4061003
    a178:	00000000 	nop
    a17c:	00000001 	.word	0x1
	...
    d334:	10000003 	b	0xd344
    d338:	00000000 	nop
    d33c:	0000000d 	break
    d340:	0000000d 	break
    d344:	3c020800 	lui	v0,0x800
    d348:	24427a60 	addiu	v0,v0,31328
    d34c:	3c030800 	lui	v1,0x800
    d350:	24637ad8 	addiu	v1,v1,31448
    d354:	ac400000 	sw	zero,0(v0)
    d358:	0043202b 	sltu	a0,v0,v1
    d35c:	1480fffd 	bnez	a0,0xd354
    d360:	24420004 	addiu	v0,v0,4
    d364:	3c1d0800 	lui	sp,0x800
    d368:	37bd9ffc 	ori	sp,sp,0x9ffc
    d36c:	03a0f021 	move	s8,sp
    d370:	3c100800 	lui	s0,0x800
    d374:	261031d8 	addiu	s0,s0,12760
    d378:	3c1c0800 	lui	gp,0x800
    d37c:	279c7a60 	addiu	gp,gp,31328
    d380:	0e001253 	jal	0x800494c
    d384:	00000000 	nop
    d388:	0000000d 	break
    d38c:	3c028000 	lui	v0,0x8000
    d390:	30a5ffff 	andi	a1,a1,0xffff
    d394:	30c600ff 	andi	a2,a2,0xff
    d398:	34430180 	ori	v1,v0,0x180
    d39c:	3c088000 	lui	t0,0x8000
    d3a0:	8d0901b8 	lw	t1,440(t0)
    d3a4:	0520fffe 	bltz	t1,0xd3a0
    d3a8:	00000000 	nop
    d3ac:	ac640000 	sw	a0,0(v1)
    d3b0:	24040002 	li	a0,2
    d3b4:	a4650008 	sh	a1,8(v1)
    d3b8:	a066000a 	sb	a2,10(v1)
    d3bc:	a064000b 	sb	a0,11(v1)
    d3c0:	ac670018 	sw	a3,24(v1)
    d3c4:	3c031000 	lui	v1,0x1000
    d3c8:	03e00008 	jr	ra
    d3cc:	ad0301b8 	sw	v1,440(t0)
    d3d0:	3c056000 	lui	a1,0x6000
    d3d4:	8ca24ff8 	lw	v0,20472(a1)
    d3d8:	0440fffe 	bltz	v0,0xd3d4
    d3dc:	00000000 	nop
    d3e0:	aca44fc0 	sw	a0,20416(a1)
    d3e4:	3c031000 	lui	v1,0x1000
    d3e8:	3c040200 	lui	a0,0x200
    d3ec:	aca44fc4 	sw	a0,20420(a1)
    d3f0:	03e00008 	jr	ra
    d3f4:	aca34ff8 	sw	v1,20472(a1)
    d3f8:	27bdffe8 	addiu	sp,sp,-24
    d3fc:	afbf0014 	sw	ra,20(sp)
    d400:	afb00010 	sw	s0,16(sp)
    d404:	0e0012a5 	jal	0x8004a94
    d408:	00808021 	move	s0,a0
    d40c:	3c048008 	lui	a0,0x8008
    d410:	34850080 	ori	a1,a0,0x80
    d414:	90a60005 	lbu	a2,5(a1)
    d418:	2403fffe 	li	v1,-2
    d41c:	02002021 	move	a0,s0
    d420:	00c31024 	and	v0,a2,v1
    d424:	8fbf0014 	lw	ra,20(sp)
    d428:	8fb00010 	lw	s0,16(sp)
    d42c:	a0a20005 	sb	v0,5(a1)
    d430:	0a0012af 	j	0x8004abc
    d434:	27bd0018 	addiu	sp,sp,24
    d438:	27bdffe8 	addiu	sp,sp,-24
    d43c:	afb00010 	sw	s0,16(sp)
    d440:	afbf0014 	sw	ra,20(sp)
    d444:	0e000ed6 	jal	0x8003b58
    d448:	00808021 	move	s0,a0
    d44c:	3c068008 	lui	a2,0x8008
    d450:	34c50080 	ori	a1,a2,0x80
    d454:	90a40000 	lbu	a0,0(a1)
    d458:	24020050 	li	v0,80
    d45c:	308300ff 	andi	v1,a0,0xff
    d460:	10620007 	beq	v1,v0,0xd480
    d464:	3c098000 	lui	t1,0x8000
    d468:	02002021 	move	a0,s0
    d46c:	8fbf0014 	lw	ra,20(sp)
    d470:	8fb00010 	lw	s0,16(sp)
    d474:	ad200180 	sw	zero,384(t1)
    d478:	0a000fc5 	j	0x8003f14
    d47c:	27bd0018 	addiu	sp,sp,24
    d480:	24080100 	li	t0,256
    d484:	3c078000 	lui	a3,0x8000
    d488:	02002021 	move	a0,s0
    d48c:	8fbf0014 	lw	ra,20(sp)
    d490:	8fb00010 	lw	s0,16(sp)
    d494:	ace80180 	sw	t0,384(a3)
    d498:	0a000fc5 	j	0x8003f14
    d49c:	27bd0018 	addiu	sp,sp,24
    d4a0:	27bdff88 	addiu	sp,sp,-120
    d4a4:	3c088008 	lui	t0,0x8008
    d4a8:	afbe0070 	sw	s8,112(sp)
    d4ac:	afb60068 	sw	s6,104(sp)
    d4b0:	afb40060 	sw	s4,96(sp)
    d4b4:	afb00050 	sw	s0,80(sp)
    d4b8:	afbf0074 	sw	ra,116(sp)
    d4bc:	afb7006c 	sw	s7,108(sp)
    d4c0:	afb50064 	sw	s5,100(sp)
    d4c4:	afb3005c 	sw	s3,92(sp)
    d4c8:	afb20058 	sw	s2,88(sp)
    d4cc:	afb10054 	sw	s1,84(sp)
    d4d0:	35050080 	ori	a1,t0,0x80
    d4d4:	3c078000 	lui	a3,0x8000
    d4d8:	8cf10128 	lw	s1,296(a3)
    d4dc:	90a40009 	lbu	a0,9(a1)
    d4e0:	ace00084 	sw	zero,132(a3)
    d4e4:	90a60005 	lbu	a2,5(a1)
    d4e8:	309000ff 	andi	s0,a0,0xff
    d4ec:	0000a021 	move	s4,zero
    d4f0:	00061827 	nor	v1,zero,a2
    d4f4:	30620001 	andi	v0,v1,0x1
    d4f8:	0000b021 	move	s6,zero
    d4fc:	14400067 	bnez	v0,0xd69c
    d500:	0000f021 	move	s8,zero
    d504:	90a90000 	lbu	t1,0(a1)
    d508:	24050020 	li	a1,32
    d50c:	312400ff 	andi	a0,t1,0xff
    d510:	10850016 	beq	a0,a1,0xd56c
    d514:	240a0050 	li	t2,80
    d518:	108a008d 	beq	a0,t2,0xd750
    d51c:	00000000 	nop
    d520:	3c0c0800 	lui	t4,0x800
    d524:	8d8c00dc 	lw	t4,220(t4)
    d528:	258b0001 	addiu	t3,t4,1
    d52c:	3c010800 	lui	at,0x800
    d530:	ac2b00dc 	sw	t3,220(at)
    d534:	0e00139b 	jal	0x8004e6c
    d538:	00000000 	nop
    d53c:	8fbf0074 	lw	ra,116(sp)
    d540:	8fbe0070 	lw	s8,112(sp)
    d544:	8fb7006c 	lw	s7,108(sp)
    d548:	8fb60068 	lw	s6,104(sp)
    d54c:	8fb50064 	lw	s5,100(sp)
    d550:	8fb40060 	lw	s4,96(sp)
    d554:	8fb3005c 	lw	s3,92(sp)
    d558:	8fb20058 	lw	s2,88(sp)
    d55c:	8fb10054 	lw	s1,84(sp)
    d560:	8fb00050 	lw	s0,80(sp)
    d564:	03e00008 	jr	ra
    d568:	27bd0078 	addiu	sp,sp,120
    d56c:	0000000d 	break
    d570:	3c158000 	lui	s5,0x8000
    d574:	afa00030 	sw	zero,48(sp)
    d578:	96a20116 	lhu	v0,278(s5)
    d57c:	8eb90104 	lw	t9,260(s5)
    d580:	3c1f0020 	lui	ra,0x20
    d584:	36b20c00 	ori	s2,s5,0xc00
    d588:	033fc024 	and	t8,t9,ra
    d58c:	0018b82b 	sltu	s7,zero,t8
    d590:	00173140 	sll	a2,s7,0x5
    d594:	afa60030 	sw	a2,48(sp)
    d598:	8eae0104 	lw	t6,260(s5)
    d59c:	3053ffff 	andi	s3,v0,0xffff
    d5a0:	3c0f0040 	lui	t7,0x40
    d5a4:	02723821 	addu	a3,s3,s2
    d5a8:	01cf6824 	and	t5,t6,t7
    d5ac:	90f2000d 	lbu	s2,13(a3)
    d5b0:	11a00048 	beqz	t5,0xd6d4
    d5b4:	34c40040 	ori	a0,a2,0x40
    d5b8:	32430020 	andi	v1,s2,0x20
    d5bc:	14600002 	bnez	v1,0xd5c8
    d5c0:	34860080 	ori	a2,a0,0x80
    d5c4:	00803021 	move	a2,a0
    d5c8:	14c00094 	bnez	a2,0xd81c
    d5cc:	afa60030 	sw	a2,48(sp)
    d5d0:	3c098008 	lui	t1,0x8008
    d5d4:	35250080 	ori	a1,t1,0x80
    d5d8:	90a80008 	lbu	t0,8(a1)
    d5dc:	31060040 	andi	a2,t0,0x40
    d5e0:	50c00006 	beqzl	a2,0xd5fc
    d5e4:	3c088008 	lui	t0,0x8008
    d5e8:	240a0004 	li	t2,4
    d5ec:	120a00a3 	beq	s0,t2,0xd87c
    d5f0:	240b0012 	li	t3,18
    d5f4:	120b0029 	beq	s0,t3,0xd69c
    d5f8:	3c088008 	lui	t0,0x8008
    d5fc:	35150100 	ori	s5,t0,0x100
    d600:	3c178000 	lui	s7,0x8000
    d604:	96f3011a 	lhu	s3,282(s7)
    d608:	94ee000e 	lhu	t6,14(a3)
    d60c:	92af0008 	lbu	t7,8(s5)
    d610:	324c0004 	andi	t4,s2,0x4
    d614:	3275ffff 	andi	s5,s3,0xffff
    d618:	01ee6804 	sllv	t5,t6,t7
    d61c:	afad003c 	sw	t5,60(sp)
    d620:	8cf30004 	lw	s3,4(a3)
    d624:	11800031 	beqz	t4,0xd6ec
    d628:	8cf70008 	lw	s7,8(a3)
    d62c:	35030080 	ori	v1,t0,0x80
    d630:	90780008 	lbu	t8,8(v1)
    d634:	33070040 	andi	a3,t8,0x40
    d638:	14e00028 	bnez	a3,0xd6dc
    d63c:	00000000 	nop
    d640:	8c720050 	lw	s2,80(v1)
    d644:	02728823 	subu	s1,s3,s2
    d648:	06200006 	bltz	s1,0xd664
    d64c:	3c068000 	lui	a2,0x8000
    d650:	8c7f0034 	lw	ra,52(v1)
    d654:	027fc823 	subu	t9,s3,ra
    d658:	07220084 	bltzl	t9,0xd86c
    d65c:	8e820008 	lw	v0,8(s4)
    d660:	3c068000 	lui	a2,0x8000
    d664:	acc00044 	sw	zero,68(a2)
    d668:	24020001 	li	v0,1
    d66c:	8fbf0074 	lw	ra,116(sp)
    d670:	8fbe0070 	lw	s8,112(sp)
    d674:	8fb7006c 	lw	s7,108(sp)
    d678:	8fb60068 	lw	s6,104(sp)
    d67c:	8fb50064 	lw	s5,100(sp)
    d680:	8fb40060 	lw	s4,96(sp)
    d684:	8fb3005c 	lw	s3,92(sp)
    d688:	8fb20058 	lw	s2,88(sp)
    d68c:	8fb10054 	lw	s1,84(sp)
    d690:	8fb00050 	lw	s0,80(sp)
    d694:	03e00008 	jr	ra
    d698:	27bd0078 	addiu	sp,sp,120
    d69c:	0e000cb8 	jal	0x80032e0
    d6a0:	00002021 	move	a0,zero
    d6a4:	8fbf0074 	lw	ra,116(sp)
    d6a8:	8fbe0070 	lw	s8,112(sp)
    d6ac:	8fb7006c 	lw	s7,108(sp)
    d6b0:	8fb60068 	lw	s6,104(sp)
    d6b4:	8fb50064 	lw	s5,100(sp)
    d6b8:	8fb40060 	lw	s4,96(sp)
    d6bc:	8fb3005c 	lw	s3,92(sp)
    d6c0:	8fb20058 	lw	s2,88(sp)
    d6c4:	8fb10054 	lw	s1,84(sp)
    d6c8:	8fb00050 	lw	s0,80(sp)
    d6cc:	03e00008 	jr	ra
    d6d0:	27bd0078 	addiu	sp,sp,120
    d6d4:	0a000d18 	j	0x8003460
    d6d8:	00c02021 	move	a0,a2
    d6dc:	0e00146c 	jal	0x80051b0
    d6e0:	02602021 	move	a0,s3
    d6e4:	1440ffdf 	bnez	v0,0xd664
    d6e8:	3c068000 	lui	a2,0x8000
    d6ec:	3c038008 	lui	v1,0x8008
    d6f0:	34630080 	ori	v1,v1,0x80
    d6f4:	8c640034 	lw	a0,52(v1)
    d6f8:	02641023 	subu	v0,s3,a0
    d6fc:	04400018 	bltz	v0,0xd760
    d700:	00000000 	nop
    d704:	3c140800 	lui	s4,0x800
    d708:	8e943100 	lw	s4,12544(s4)
    d70c:	26900001 	addiu	s0,s4,1
    d710:	3c010800 	lui	at,0x800
    d714:	ac303100 	sw	s0,12544(at)
    d718:	0e0012a5 	jal	0x8004a94
    d71c:	02202021 	move	a0,s1
    d720:	3c048008 	lui	a0,0x8008
    d724:	349f0080 	ori	ra,a0,0x80
    d728:	93fe0025 	lbu	s8,37(ra)
    d72c:	02202021 	move	a0,s1
    d730:	37c90004 	ori	t1,s8,0x4
    d734:	a3e90025 	sb	t1,37(ra)
    d738:	0e0012af 	jal	0x8004abc
    d73c:	00000000 	nop
    d740:	0e000c9e 	jal	0x8003278
    d744:	02202021 	move	a0,s1
    d748:	0a000d45 	j	0x8003514
    d74c:	24020001 	li	v0,1
    d750:	3c140800 	lui	s4,0x800
    d754:	26947ac8 	addiu	s4,s4,31432
    d758:	0a000d07 	j	0x800341c
    d75c:	3c158000 	lui	s5,0x8000
    d760:	8c680030 	lw	t0,48(v1)
    d764:	02683023 	subu	a2,s3,t0
    d768:	18c00008 	blez	a2,0xd78c
    d76c:	240b000c 	li	t3,12
    d770:	3c090800 	lui	t1,0x800
    d774:	8d293100 	lw	t1,12544(t1)
    d778:	325200fc 	andi	s2,s2,0xfc
    d77c:	0000a821 	move	s5,zero
    d780:	25250001 	addiu	a1,t1,1
    d784:	3c010800 	lui	at,0x800
    d788:	ac253100 	sw	a1,12544(at)
    d78c:	afab0030 	sw	t3,48(sp)
    d790:	8c6a0030 	lw	t2,48(v1)
    d794:	01534023 	subu	t0,t2,s3
    d798:	190000e0 	blez	t0,0xdb1c
    d79c:	02a8602a 	slt	t4,s5,t0
    d7a0:	1580ffdd 	bnez	t4,0xd718
    d7a4:	00000000 	nop
    d7a8:	12a8002a 	beq	s5,t0,0xd854
    d7ac:	02a87823 	subu	t7,s5,t0
    d7b0:	02689821 	addu	s3,s3,t0
    d7b4:	31f5ffff 	andi	s5,t7,0xffff
    d7b8:	32470002 	andi	a3,s2,0x2
    d7bc:	10e00034 	beqz	a3,0xd890
    d7c0:	32590010 	andi	t9,s2,0x10
    d7c4:	3c138008 	lui	s3,0x8008
    d7c8:	36700080 	ori	s0,s3,0x80
    d7cc:	921e0008 	lbu	s8,8(s0)
    d7d0:	33d60040 	andi	s6,s8,0x40
    d7d4:	52c000d3 	beqzl	s6,0xdb24
    d7d8:	8e820008 	lw	v0,8(s4)
    d7dc:	02202021 	move	a0,s1
    d7e0:	0e0012a5 	jal	0x8004a94
    d7e4:	24120018 	li	s2,24
    d7e8:	a2120009 	sb	s2,9(s0)
    d7ec:	92170005 	lbu	s7,5(s0)
    d7f0:	2418fffe 	li	t8,-2
    d7f4:	02202021 	move	a0,s1
    d7f8:	02f8a824 	and	s5,s7,t8
    d7fc:	0e0012af 	jal	0x8004abc
    d800:	a2150005 	sb	s5,5(s0)
    d804:	24040039 	li	a0,57
    d808:	00002821 	move	a1,zero
    d80c:	0e001447 	jal	0x800511c
    d810:	24060018 	li	a2,24
    d814:	0a000d45 	j	0x8003514
    d818:	24020001 	li	v0,1
    d81c:	9296000c 	lbu	s6,12(s4)
    d820:	3c048008 	lui	a0,0x8008
    d824:	349e0080 	ori	s8,a0,0x80
    d828:	8fc70038 	lw	a3,56(s8)
    d82c:	0016a300 	sll	s4,s6,0xc
    d830:	36900081 	ori	s0,s4,0x81
    d834:	30c600ff 	andi	a2,a2,0xff
    d838:	02202021 	move	a0,s1
    d83c:	0e000c8d 	jal	0x8003234
    d840:	3205f081 	andi	a1,s0,0xf081
    d844:	3c068000 	lui	a2,0x8000
    d848:	acc00044 	sw	zero,68(a2)
    d84c:	0a000d45 	j	0x8003514
    d850:	24020001 	li	v0,1
    d854:	3a4e0001 	xori	t6,s2,0x1
    d858:	31cd0001 	andi	t5,t6,0x1
    d85c:	15a0ffae 	bnez	t5,0xd718
    d860:	02689821 	addu	s3,s3,t0
    d864:	0a000d97 	j	0x800365c
    d868:	00000000 	nop
    d86c:	0040f809 	jalr	v0
    d870:	24040016 	li	a0,22
    d874:	0a000d45 	j	0x8003514
    d878:	24020001 	li	v0,1
    d87c:	02202021 	move	a0,s1
    d880:	0e001529 	jal	0x80054a4
    d884:	00e02821 	move	a1,a3
    d888:	0a000cfa 	j	0x80033e8
    d88c:	8fbf0074 	lw	ra,116(sp)
    d890:	1320ff73 	beqz	t9,0xd660
    d894:	3c048008 	lui	a0,0x8008
    d898:	34890080 	ori	t1,a0,0x80
    d89c:	8d230038 	lw	v1,56(t1)
    d8a0:	8c820004 	lw	v0,4(a0)
    d8a4:	02e2f823 	subu	ra,s7,v0
    d8a8:	1fe0ff6e 	bgtz	ra,0xd664
    d8ac:	3c068000 	lui	a2,0x8000
    d8b0:	02e33023 	subu	a2,s7,v1
    d8b4:	04c20001 	bltzl	a2,0xd8bc
    d8b8:	0060b821 	move	s7,v1
    d8bc:	afa80018 	sw	t0,24(sp)
    d8c0:	3c198000 	lui	t9,0x8000
    d8c4:	afb30010 	sw	s3,16(sp)
    d8c8:	afb50014 	sw	s5,20(sp)
    d8cc:	97260120 	lhu	a2,288(t9)
    d8d0:	8d2a0030 	lw	t2,48(t1)
    d8d4:	9524005c 	lhu	a0,92(t1)
    d8d8:	8fb8003c 	lw	t8,60(sp)
    d8dc:	8fad0030 	lw	t5,48(sp)
    d8e0:	3087ffff 	andi	a3,a0,0xffff
    d8e4:	30dfffff 	andi	ra,a2,0xffff
    d8e8:	03e87021 	addu	t6,ra,t0
    d8ec:	372f4000 	ori	t7,t9,0x4000
    d8f0:	0307282b 	sltu	a1,t8,a3
    d8f4:	8e820004 	lw	v0,4(s4)
    d8f8:	01cf6021 	addu	t4,t6,t7
    d8fc:	01a55825 	or	t3,t5,a1
    d900:	afa90048 	sw	t1,72(sp)
    d904:	afac0020 	sw	t4,32(sp)
    d908:	afaa0028 	sw	t2,40(sp)
    d90c:	afab0030 	sw	t3,48(sp)
    d910:	afaa0024 	sw	t2,36(sp)
    d914:	afa0002c 	sw	zero,44(sp)
    d918:	afb70034 	sw	s7,52(sp)
    d91c:	0040f809 	jalr	v0
    d920:	27a40010 	addiu	a0,sp,16
    d924:	8fa80030 	lw	t0,48(sp)
    d928:	31030002 	andi	v1,t0,0x2
    d92c:	10600002 	beqz	v1,0xd938
    d930:	8fa90048 	lw	t1,72(sp)
    d934:	325200fe 	andi	s2,s2,0xfe
    d938:	91230008 	lbu	v1,8(t1)
    d93c:	30690040 	andi	t1,v1,0x40
    d940:	51200013 	beqzl	t1,0xd990
    d944:	8fa40024 	lw	a0,36(sp)
    d948:	3c028008 	lui	v0,0x8008
    d94c:	8c480004 	lw	t0,4(v0)
    d950:	111700a4 	beq	t0,s7,0xdbe4
    d954:	240a0014 	li	t2,20
    d958:	32580001 	andi	t8,s2,0x1
    d95c:	5300000c 	beqzl	t8,0xd990
    d960:	8fa40024 	lw	a0,36(sp)
    d964:	2419000c 	li	t9,12
    d968:	121900c0 	beq	s0,t9,0xdc6c
    d96c:	2a1f000d 	slti	ra,s0,13
    d970:	13e000ba 	beqz	ra,0xdc5c
    d974:	2406000e 	li	a2,14
    d978:	2404000a 	li	a0,10
    d97c:	52040001 	beql	s0,a0,0xd984
    d980:	24160008 	li	s6,8
    d984:	8fa90024 	lw	t1,36(sp)
    d988:	25240001 	addiu	a0,t1,1
    d98c:	afa40024 	sw	a0,36(sp)
    d990:	3c188008 	lui	t8,0x8008
    d994:	37050080 	ori	a1,t8,0x80
    d998:	8fa70014 	lw	a3,20(sp)
    d99c:	8caf0030 	lw	t7,48(a1)
    d9a0:	340cffff 	li	t4,0xffff
    d9a4:	00877021 	addu	t6,a0,a3
    d9a8:	acae0030 	sw	t6,48(a1)
    d9ac:	afaf0038 	sw	t7,56(sp)
    d9b0:	90ad004e 	lbu	t5,78(a1)
    d9b4:	8cab0030 	lw	t3,48(a1)
    d9b8:	8fa8003c 	lw	t0,60(sp)
    d9bc:	01ac1004 	sllv	v0,t4,t5
    d9c0:	01625021 	addu	t2,t3,v0
    d9c4:	acaa0034 	sw	t2,52(a1)
    d9c8:	8fa60030 	lw	a2,48(sp)
    d9cc:	02e82021 	addu	a0,s7,t0
    d9d0:	30c30008 	andi	v1,a2,0x8
    d9d4:	1060000b 	beqz	v1,0xda04
    d9d8:	afa40040 	sw	a0,64(sp)
    d9dc:	8cb90020 	lw	t9,32(a1)
    d9e0:	1324008f 	beq	t9,a0,0xdc20
    d9e4:	30c600ff 	andi	a2,a2,0xff
    d9e8:	9289000c 	lbu	t1,12(s4)
    d9ec:	8fa70034 	lw	a3,52(sp)
    d9f0:	00098300 	sll	s0,t1,0xc
    d9f4:	36040080 	ori	a0,s0,0x80
    d9f8:	3085f080 	andi	a1,a0,0xf080
    d9fc:	0e000c8d 	jal	0x8003234
    da00:	02202021 	move	a0,s1
    da04:	3c0a8008 	lui	t2,0x8008
    da08:	35500080 	ori	s0,t2,0x80
    da0c:	8e030030 	lw	v1,48(s0)
    da10:	8fa80038 	lw	t0,56(sp)
    da14:	00683023 	subu	a2,v1,t0
    da18:	18c00065 	blez	a2,0xdbb0
    da1c:	262f0080 	addiu	t7,s1,128
    da20:	3c0e0800 	lui	t6,0x800
    da24:	8dce3198 	lw	t6,12696(t6)
    da28:	2407ff80 	li	a3,-128
    da2c:	01e76824 	and	t5,t7,a3
    da30:	31ec007f 	andi	t4,t7,0x7f
    da34:	3c068000 	lui	a2,0x8000
    da38:	3c028004 	lui	v0,0x8004
    da3c:	31cb0010 	andi	t3,t6,0x10
    da40:	accd0090 	sw	t5,144(a2)
    da44:	1160003b 	beqz	t3,0xdb34
    da48:	01822821 	addu	a1,t4,v0
    da4c:	90b8006b 	lbu	t8,107(a1)
    da50:	57000039 	bnezl	t8,0xdb38
    da54:	3c048008 	lui	a0,0x8008
    da58:	241f0001 	li	ra,1
    da5c:	a0bf006b 	sb	ra,107(a1)
    da60:	94c5007a 	lhu	a1,122(a2)
    da64:	24b9000a 	addiu	t9,a1,10
    da68:	a6190012 	sh	t9,18(s0)
    da6c:	3c0a8008 	lui	t2,0x8008
    da70:	35450080 	ori	a1,t2,0x80
    da74:	90a80008 	lbu	t0,8(a1)
    da78:	31100040 	andi	s0,t0,0x40
    da7c:	16000004 	bnez	s0,0xda90
    da80:	3c038008 	lui	v1,0x8008
    da84:	324b0001 	andi	t3,s2,0x1
    da88:	1560006b 	bnez	t3,0xdc38
    da8c:	00000000 	nop
    da90:	34640080 	ori	a0,v1,0x80
    da94:	8c8c0020 	lw	t4,32(a0)
    da98:	8fb20040 	lw	s2,64(sp)
    da9c:	11920009 	beq	t4,s2,0xdac4
    daa0:	34630100 	ori	v1,v1,0x100
    daa4:	8c6d0000 	lw	t5,0(v1)
    daa8:	026d1023 	subu	v0,s3,t5
    daac:	18400012 	blez	v0,0xdaf8
    dab0:	8fb80040 	lw	t8,64(sp)
    dab4:	241e0001 	li	s8,1
    dab8:	ac980020 	sw	t8,32(a0)
    dabc:	ac730000 	sw	s3,0(v1)
    dac0:	ac770004 	sw	s7,4(v1)
    dac4:	16c0002d 	bnez	s6,0xdb7c
    dac8:	00000000 	nop
    dacc:	17c00027 	bnez	s8,0xdb6c
    dad0:	00000000 	nop
    dad4:	12a00005 	beqz	s5,0xdaec
    dad8:	00001821 	move	v1,zero
    dadc:	8fa50030 	lw	a1,48(sp)
    dae0:	30b50004 	andi	s5,a1,0x4
    dae4:	52a0fe95 	beqzl	s5,0xd53c
    dae8:	00601021 	move	v0,v1
    daec:	24030001 	li	v1,1
    daf0:	0a000cf9 	j	0x80033e4
    daf4:	00601021 	move	v0,v1
    daf8:	8c6e0000 	lw	t6,0(v1)
    dafc:	15d3fff1 	bne	t6,s3,0xdac4
    db00:	00000000 	nop
    db04:	8c670004 	lw	a3,4(v1)
    db08:	02e77823 	subu	t7,s7,a3
    db0c:	05e1ffe9 	bgez	t7,0xdab4
    db10:	8fb80040 	lw	t8,64(sp)
    db14:	0a000e5b 	j	0x800396c
    db18:	00000000 	nop
    db1c:	0a000d98 	j	0x8003660
    db20:	00004021 	move	t0,zero
    db24:	0040f809 	jalr	v0
    db28:	24040017 	li	a0,23
    db2c:	0a000d45 	j	0x8003514
    db30:	24020001 	li	v0,1
    db34:	3c048008 	lui	a0,0x8008
    db38:	34900080 	ori	s0,a0,0x80
    db3c:	241e0001 	li	s8,1
    db40:	02202021 	move	a0,s1
    db44:	0e0012a5 	jal	0x8004a94
    db48:	a61e0012 	sh	s8,18(s0)
    db4c:	92090025 	lbu	t1,37(s0)
    db50:	02202021 	move	a0,s1
    db54:	241e0001 	li	s8,1
    db58:	35220001 	ori	v0,t1,0x1
    db5c:	0e0012af 	jal	0x8004abc
    db60:	a2020025 	sb	v0,37(s0)
    db64:	0a000e46 	j	0x8003918
    db68:	3c0a8008 	lui	t2,0x8008
    db6c:	0e000c9e 	jal	0x8003278
    db70:	02202021 	move	a0,s1
    db74:	0a000e5f 	j	0x800397c
    db78:	00000000 	nop
    db7c:	0e0012a5 	jal	0x8004a94
    db80:	02202021 	move	a0,s1
    db84:	3c198008 	lui	t9,0x8008
    db88:	37370080 	ori	s7,t9,0x80
    db8c:	02202021 	move	a0,s1
    db90:	0e0012af 	jal	0x8004abc
    db94:	a2f60009 	sb	s6,9(s7)
    db98:	02c03021 	move	a2,s6
    db9c:	24040037 	li	a0,55
    dba0:	0e001447 	jal	0x800511c
    dba4:	00002821 	move	a1,zero
    dba8:	0a000e5d 	j	0x8003974
    dbac:	00000000 	nop
    dbb0:	8fa60018 	lw	a2,24(sp)
    dbb4:	58c0ffae 	blezl	a2,0xda70
    dbb8:	3c0a8008 	lui	t2,0x8008
    dbbc:	0e0012a5 	jal	0x8004a94
    dbc0:	02202021 	move	a0,s1
    dbc4:	92030025 	lbu	v1,37(s0)
    dbc8:	02202021 	move	a0,s1
    dbcc:	241e0001 	li	s8,1
    dbd0:	34620004 	ori	v0,v1,0x4
    dbd4:	0e0012af 	jal	0x8004abc
    dbd8:	a2020025 	sb	v0,37(s0)
    dbdc:	0a000e46 	j	0x8003918
    dbe0:	3c0a8008 	lui	t2,0x8008
    dbe4:	120a0030 	beq	s0,t2,0xdca8
    dbe8:	2a0b0015 	slti	t3,s0,21
    dbec:	11600024 	beqz	t3,0xdc80
    dbf0:	240d0016 	li	t5,22
    dbf4:	240c000c 	li	t4,12
    dbf8:	560cff58 	bnel	s0,t4,0xd95c
    dbfc:	32580001 	andi	t8,s2,0x1
    dc00:	3c058008 	lui	a1,0x8008
    dc04:	90af001b 	lbu	t7,27(a1)
    dc08:	2407ffbd 	li	a3,-67
    dc0c:	2416000e 	li	s6,14
    dc10:	01e77024 	and	t6,t7,a3
    dc14:	a0ae001b 	sb	t6,27(a1)
    dc18:	0a000e01 	j	0x8003804
    dc1c:	32580001 	andi	t8,s2,0x1
    dc20:	3c1f8000 	lui	ra,0x8000
    dc24:	97e5011a 	lhu	a1,282(ra)
    dc28:	50a0ff6f 	beqzl	a1,0xd9e8
    dc2c:	34c60010 	ori	a2,a2,0x10
    dc30:	0a000e25 	j	0x8003894
    dc34:	9289000c 	lbu	t1,12(s4)
    dc38:	8cb30030 	lw	s3,48(a1)
    dc3c:	8e960008 	lw	s6,8(s4)
    dc40:	24040018 	li	a0,24
    dc44:	26740001 	addiu	s4,s3,1
    dc48:	02c0f809 	jalr	s6
    dc4c:	acb40030 	sw	s4,48(a1)
    dc50:	8fb10030 	lw	s1,48(sp)
    dc54:	0a000cf9 	j	0x80033e4
    dc58:	32220004 	andi	v0,s1,0x4
    dc5c:	1606ff4a 	bne	s0,a2,0xd988
    dc60:	8fa90024 	lw	t1,36(sp)
    dc64:	0a000e0c 	j	0x8003830
    dc68:	24160010 	li	s6,16
    dc6c:	2410000e 	li	s0,14
    dc70:	52d0ff44 	beql	s6,s0,0xd984
    dc74:	24160010 	li	s6,16
    dc78:	0a000e0b 	j	0x800382c
    dc7c:	24160016 	li	s6,22
    dc80:	560dff36 	bnel	s0,t5,0xd95c
    dc84:	32580001 	andi	t8,s2,0x1
    dc88:	3c058008 	lui	a1,0x8008
    dc8c:	90af001b 	lbu	t7,27(a1)
    dc90:	2407ffbd 	li	a3,-67
    dc94:	24160010 	li	s6,16
    dc98:	01e77024 	and	t6,t7,a3
    dc9c:	a0ae001b 	sb	t6,27(a1)
    dca0:	0a000e01 	j	0x8003804
    dca4:	32580001 	andi	t8,s2,0x1
    dca8:	0a000e00 	j	0x8003800
    dcac:	24160012 	li	s6,18
    dcb0:	3c038000 	lui	v1,0x8000
    dcb4:	8c6201b8 	lw	v0,440(v1)
    dcb8:	0440fffe 	bltz	v0,0xdcb4
    dcbc:	24040800 	li	a0,2048
    dcc0:	ac6401b8 	sw	a0,440(v1)
    dcc4:	03e00008 	jr	ra
    dcc8:	00000000 	nop
    dccc:	3c058008 	lui	a1,0x8008
    dcd0:	94a20048 	lhu	v0,72(a1)
    dcd4:	3084ffff 	andi	a0,a0,0xffff
    dcd8:	10400019 	beqz	v0,0xdd40
    dcdc:	24840012 	addiu	a0,a0,18
    dce0:	94a90048 	lhu	t1,72(a1)
    dce4:	3c038000 	lui	v1,0x8000
    dce8:	3128ffff 	andi	t0,t1,0xffff
    dcec:	0104382a 	slt	a3,t0,a0
    dcf0:	10e00013 	beqz	a3,0xdd40
    dcf4:	34660180 	ori	a2,v1,0x180
    dcf8:	946d0120 	lhu	t5,288(v1)
    dcfc:	8f8c0004 	lw	t4,4(gp)
    dd00:	240b001a 	li	t3,26
    dd04:	31aaffff 	andi	t2,t5,0xffff
    dd08:	31834000 	andi	v1,t4,0x4000
    dd0c:	a0cb000b 	sb	t3,11(a2)
    dd10:	10600010 	beqz	v1,0xdd54
    dd14:	2544fffe 	addiu	a0,t2,-2
    dd18:	94af0048 	lhu	t7,72(a1)
    dd1c:	31eeffff 	andi	t6,t7,0xffff
    dd20:	01c4282b 	sltu	a1,t6,a0
    dd24:	14a0000c 	bnez	a1,0xdd58
    dd28:	8f98000c 	lw	t8,12(gp)
    dd2c:	a4c40014 	sh	a0,20(a2)
    dd30:	8f86000c 	lw	a2,12(gp)
    dd34:	34c20001 	ori	v0,a2,0x1
    dd38:	03e00008 	jr	ra
    dd3c:	af82000c 	sw	v0,12(gp)
    dd40:	3c078000 	lui	a3,0x8000
    dd44:	24040003 	li	a0,3
    dd48:	34e20180 	ori	v0,a3,0x180
    dd4c:	03e00008 	jr	ra
    dd50:	a044000b 	sb	a0,11(v0)
    dd54:	8f98000c 	lw	t8,12(gp)
    dd58:	2419fffe 	li	t9,-2
    dd5c:	03191024 	and	v0,t8,t9
    dd60:	03e00008 	jr	ra
    dd64:	af82000c 	sw	v0,12(gp)
    dd68:	27bdffd8 	addiu	sp,sp,-40
    dd6c:	afb40020 	sw	s4,32(sp)
    dd70:	afb3001c 	sw	s3,28(sp)
    dd74:	afb20018 	sw	s2,24(sp)
    dd78:	afb10014 	sw	s1,20(sp)
    dd7c:	afbf0024 	sw	ra,36(sp)
    dd80:	afb00010 	sw	s0,16(sp)
    dd84:	00801821 	move	v1,a0
    dd88:	30b3ffff 	andi	s3,a1,0xffff
    dd8c:	30d2ffff 	andi	s2,a2,0xffff
    dd90:	30f4ffff 	andi	s4,a3,0xffff
    dd94:	3c118000 	lui	s1,0x8000
    dd98:	8e2201b8 	lw	v0,440(s1)
    dd9c:	0440fffe 	bltz	v0,0xdd98
    dda0:	36300180 	ori	s0,s1,0x180
    dda4:	ae030000 	sw	v1,0(s0)
    dda8:	02402021 	move	a0,s2
    ddac:	0e000edd 	jal	0x8003b74
    ddb0:	ae230020 	sw	v1,32(s1)
    ddb4:	8f86000c 	lw	a2,12(gp)
    ddb8:	8f850004 	lw	a1,4(gp)
    ddbc:	8f830000 	lw	v1,0(gp)
    ddc0:	30c48000 	andi	a0,a2,0x8000
    ddc4:	a613000c 	sh	s3,12(s0)
    ddc8:	a612000e 	sh	s2,14(s0)
    ddcc:	a6050010 	sh	a1,16(s0)
    ddd0:	ae030028 	sw	v1,40(s0)
    ddd4:	a6140008 	sh	s4,8(s0)
    ddd8:	1080000e 	beqz	a0,0xde14
    dddc:	3c0f8000 	lui	t7,0x8000
    dde0:	962c0116 	lhu	t4,278(s1)
    dde4:	318bfffc 	andi	t3,t4,0xfffc
    dde8:	256a0004 	addiu	t2,t3,4
    ddec:	01514821 	addu	t1,t2,s1
    ddf0:	8d284000 	lw	t0,16384(t1)
    ddf4:	3107ffff 	andi	a3,t0,0xffff
    ddf8:	14e00007 	bnez	a3,0xde18
    ddfc:	2414bfff 	li	s4,-16385
    de00:	3c0effff 	lui	t6,0xffff
    de04:	35cd7fff 	ori	t5,t6,0x7fff
    de08:	00cd3024 	and	a2,a2,t5
    de0c:	af86000c 	sw	a2,12(gp)
    de10:	3c0f8000 	lui	t7,0x8000
    de14:	2414bfff 	li	s4,-16385
    de18:	35f10180 	ori	s1,t7,0x180
    de1c:	00d49824 	and	s3,a2,s4
    de20:	a6330026 	sh	s3,38(s1)
    de24:	8df20104 	lw	s2,260(t7)
    de28:	ae32002c 	sw	s2,44(s1)
    de2c:	3c061000 	lui	a2,0x1000
    de30:	ade601b8 	sw	a2,440(t7)
    de34:	8fbf0024 	lw	ra,36(sp)
    de38:	8fb40020 	lw	s4,32(sp)
    de3c:	8fb3001c 	lw	s3,28(sp)
    de40:	8fb20018 	lw	s2,24(sp)
    de44:	8fb10014 	lw	s1,20(sp)
    de48:	8fb00010 	lw	s0,16(sp)
    de4c:	03e00008 	jr	ra
    de50:	27bd0028 	addiu	sp,sp,40
    de54:	27bdffd8 	addiu	sp,sp,-40
    de58:	afb10014 	sw	s1,20(sp)
    de5c:	3c118000 	lui	s1,0x8000
    de60:	00804021 	move	t0,a0
    de64:	afb40020 	sw	s4,32(sp)
    de68:	afb00010 	sw	s0,16(sp)
    de6c:	30d4ffff 	andi	s4,a2,0xffff
    de70:	36300180 	ori	s0,s1,0x180
    de74:	02802021 	move	a0,s4
    de78:	ae080000 	sw	t0,0(s0)
    de7c:	ae280020 	sw	t0,32(s1)
    de80:	afb3001c 	sw	s3,28(sp)
    de84:	afb20018 	sw	s2,24(sp)
    de88:	30f3ffff 	andi	s3,a3,0xffff
    de8c:	afbf0024 	sw	ra,36(sp)
    de90:	0e000edd 	jal	0x8003b74
    de94:	30b2ffff 	andi	s2,a1,0xffff
    de98:	8f85000c 	lw	a1,12(gp)
    de9c:	8f830004 	lw	v1,4(gp)
    dea0:	2406bfff 	li	a2,-16385
    dea4:	00a62024 	and	a0,a1,a2
    dea8:	a612000c 	sh	s2,12(s0)
    deac:	a614000e 	sh	s4,14(s0)
    deb0:	a6130008 	sh	s3,8(s0)
    deb4:	a6040026 	sh	a0,38(s0)
    deb8:	a6030010 	sh	v1,16(s0)
    debc:	3c021000 	lui	v0,0x1000
    dec0:	ae2201b8 	sw	v0,440(s1)
    dec4:	8fbf0024 	lw	ra,36(sp)
    dec8:	8fb40020 	lw	s4,32(sp)
    decc:	8fb3001c 	lw	s3,28(sp)
    ded0:	8fb20018 	lw	s2,24(sp)
    ded4:	8fb10014 	lw	s1,20(sp)
    ded8:	8fb00010 	lw	s0,16(sp)
    dedc:	03e00008 	jr	ra
    dee0:	27bd0028 	addiu	sp,sp,40
    dee4:	3c028000 	lui	v0,0x8000
    dee8:	34450180 	ori	a1,v0,0x180
    deec:	3c048000 	lui	a0,0x8000
    def0:	8c8301b8 	lw	v1,440(a0)
    def4:	0460fffe 	bltz	v1,0xdef0
    def8:	24072000 	li	a3,8192
    defc:	24060002 	li	a2,2
    df00:	a4a70008 	sh	a3,8(a1)
    df04:	a0a6000b 	sb	a2,11(a1)
    df08:	a4a00010 	sh	zero,16(a1)
    df0c:	3c051000 	lui	a1,0x1000
    df10:	ac8501b8 	sw	a1,440(a0)
    df14:	03e00008 	jr	ra
    df18:	00000000 	nop
    df1c:	3c058000 	lui	a1,0x8000
    df20:	34a40070 	ori	a0,a1,0x70
    df24:	8c8a0000 	lw	t2,0(a0)
    df28:	90a60112 	lbu	a2,274(a1)
    df2c:	8f840004 	lw	a0,4(gp)
    df30:	27bdfff0 	addiu	sp,sp,-16
    df34:	30c300ff 	andi	v1,a2,0xff
    df38:	00031882 	srl	v1,v1,0x2
    df3c:	30820100 	andi	v0,a0,0x100
    df40:	00003821 	move	a3,zero
    df44:	10400039 	beqz	v0,0xe02c
    df48:	24660003 	addiu	a2,v1,3
    df4c:	30874000 	andi	a3,a0,0x4000
    df50:	50e00039 	beqzl	a3,0xe038
    df54:	30882000 	andi	t0,a0,0x2000
    df58:	00061080 	sll	v0,a2,0x2
    df5c:	0045c821 	addu	t9,v0,a1
    df60:	8f2f4000 	lw	t7,16384(t9)
    df64:	24780004 	addiu	t8,v1,4
    df68:	00187080 	sll	t6,t8,0x2
    df6c:	afaf0000 	sw	t7,0(sp)
    df70:	01c56821 	addu	t5,t6,a1
    df74:	8dac4000 	lw	t4,16384(t5)
    df78:	afac0004 	sw	t4,4(sp)
    df7c:	94ab0116 	lhu	t3,278(a1)
    df80:	3169fffc 	andi	t1,t3,0xfffc
    df84:	01254021 	addu	t0,t1,a1
    df88:	8d054000 	lw	a1,16384(t0)
    df8c:	afa50008 	sw	a1,8(sp)
    df90:	8fa90008 	lw	t1,8(sp)
    df94:	00003021 	move	a2,zero
    df98:	00002821 	move	a1,zero
    df9c:	3c070800 	lui	a3,0x800
    dfa0:	24e70100 	addiu	a3,a3,256
    dfa4:	0a000f9e 	j	0x8003e78
    dfa8:	24080008 	li	t0,8
    dfac:	90420000 	lbu	v0,0(v0)
    dfb0:	24a50001 	addiu	a1,a1,1
    dfb4:	2cad000c 	sltiu	t5,a1,12
    dfb8:	0062c821 	addu	t9,v1,v0
    dfbc:	0019c080 	sll	t8,t9,0x2
    dfc0:	03077821 	addu	t7,t8,a3
    dfc4:	8dee0000 	lw	t6,0(t7)
    dfc8:	11a00006 	beqz	t5,0xdfe4
    dfcc:	00ce3026 	xor	a2,a2,t6
    dfd0:	03a51021 	addu	v0,sp,a1
    dfd4:	14a8fff5 	bne	a1,t0,0xdfac
    dfd8:	00051a00 	sll	v1,a1,0x8
    dfdc:	5520fff4 	bnezl	t1,0xdfb0
    dfe0:	90420000 	lbu	v0,0(v0)
    dfe4:	3c048000 	lui	a0,0x8000
    dfe8:	34870070 	ori	a3,a0,0x70
    dfec:	3c050800 	lui	a1,0x800
    dff0:	8ca53104 	lw	a1,12548(a1)
    dff4:	8ce30000 	lw	v1,0(a3)
    dff8:	2ca80020 	sltiu	t0,a1,32
    dffc:	11000009 	beqz	t0,0xe024
    e000:	006a3823 	subu	a3,v1,t2
    e004:	00055880 	sll	t3,a1,0x2
    e008:	3c0c0800 	lui	t4,0x800
    e00c:	258c3108 	addiu	t4,t4,12552
    e010:	016c4821 	addu	t1,t3,t4
    e014:	24aa0001 	addiu	t2,a1,1
    e018:	ad270000 	sw	a3,0(t1)
    e01c:	3c010800 	lui	at,0x800
    e020:	ac2a3104 	sw	t2,12548(at)
    e024:	af860000 	sw	a2,0(gp)
    e028:	24070001 	li	a3,1
    e02c:	00e01021 	move	v0,a3
    e030:	03e00008 	jr	ra
    e034:	27bd0010 	addiu	sp,sp,16
    e038:	1100fffc 	beqz	t0,0xe02c
    e03c:	00003821 	move	a3,zero
    e040:	00066080 	sll	t4,a2,0x2
    e044:	01855821 	addu	t3,t4,a1
    e048:	8d644000 	lw	a0,16384(t3)
    e04c:	24690004 	addiu	t1,v1,4
    e050:	00093880 	sll	a3,t1,0x2
    e054:	afa40000 	sw	a0,0(sp)
    e058:	00e51821 	addu	v1,a3,a1
    e05c:	8c664000 	lw	a2,16384(v1)
    e060:	afa00008 	sw	zero,8(sp)
    e064:	0a000f8e 	j	0x8003e38
    e068:	afa60004 	sw	a2,4(sp)
    e06c:	3c020800 	lui	v0,0x800
    e070:	8c420038 	lw	v0,56(v0)
    e074:	27bdffd8 	addiu	sp,sp,-40
    e078:	afb40020 	sw	s4,32(sp)
    e07c:	afb20018 	sw	s2,24(sp)
    e080:	afbf0024 	sw	ra,36(sp)
    e084:	afb3001c 	sw	s3,28(sp)
    e088:	afb10014 	sw	s1,20(sp)
    e08c:	afb00010 	sw	s0,16(sp)
    e090:	3c140800 	lui	s4,0x800
    e094:	26940038 	addiu	s4,s4,56
    e098:	14400002 	bnez	v0,0xe0a4
    e09c:	2452ffff 	addiu	s2,v0,-1
    e0a0:	00009021 	move	s2,zero
    e0a4:	8f850004 	lw	a1,4(gp)
    e0a8:	30a34000 	andi	v1,a1,0x4000
    e0ac:	1060000f 	beqz	v1,0xe0ec
    e0b0:	30a98000 	andi	t1,a1,0x8000
    e0b4:	3c060020 	lui	a2,0x20
    e0b8:	00a62024 	and	a0,a1,a2
    e0bc:	1080000b 	beqz	a0,0xe0ec
    e0c0:	8f87000c 	lw	a3,12(gp)
    e0c4:	2408bfff 	li	t0,-16385
    e0c8:	00a82824 	and	a1,a1,t0
    e0cc:	34e31000 	ori	v1,a3,0x1000
    e0d0:	af850004 	sw	a1,4(gp)
    e0d4:	30af2000 	andi	t7,a1,0x2000
    e0d8:	15e0000a 	bnez	t7,0xe104
    e0dc:	3c110004 	lui	s1,0x4
    e0e0:	2413ffbf 	li	s3,-65
    e0e4:	0a000fef 	j	0x8003fbc
    e0e8:	00731024 	and	v0,v1,s3
    e0ec:	15200062 	bnez	t1,0xe278
    e0f0:	3c0b0020 	lui	t3,0x20
    e0f4:	30af2000 	andi	t7,a1,0x2000
    e0f8:	11e0fff9 	beqz	t7,0xe0e0
    e0fc:	8f83000c 	lw	v1,12(gp)
    e100:	3c110004 	lui	s1,0x4
    e104:	00b18024 	and	s0,a1,s1
    e108:	1200fff6 	beqz	s0,0xe0e4
    e10c:	2413ffbf 	li	s3,-65
    e110:	34620040 	ori	v0,v1,0x40
    e114:	30b80100 	andi	t8,a1,0x100
    e118:	1300000f 	beqz	t8,0xe158
    e11c:	af82000c 	sw	v0,12(gp)
    e120:	3c1f0020 	lui	ra,0x20
    e124:	00bfc824 	and	t9,a1,ra
    e128:	13200005 	beqz	t9,0xe140
    e12c:	3c0a8000 	lui	t2,0x8000
    e130:	3c030004 	lui	v1,0x4
    e134:	00a31024 	and	v0,a1,v1
    e138:	104000c8 	beqz	v0,0xe45c
    e13c:	00000000 	nop
    e140:	9549011e 	lhu	t1,286(t2)
    e144:	9548011c 	lhu	t0,284(t2)
    e148:	3126ffff 	andi	a2,t1,0xffff
    e14c:	00083c00 	sll	a3,t0,0x10
    e150:	00c72025 	or	a0,a2,a3
    e154:	af840000 	sw	a0,0(gp)
    e158:	3c0d8000 	lui	t5,0x8000
    e15c:	95ac010c 	lhu	t4,268(t5)
    e160:	30ab1000 	andi	t3,a1,0x1000
    e164:	11600008 	beqz	t3,0xe188
    e168:	3186ffff 	andi	a2,t4,0xffff
    e16c:	30ae0020 	andi	t6,a1,0x20
    e170:	15c00006 	bnez	t6,0xe18c
    e174:	24110005 	li	s1,5
    e178:	3c101000 	lui	s0,0x1000
    e17c:	00b07824 	and	t7,a1,s0
    e180:	15e00073 	bnez	t7,0xe350
    e184:	3c1f0c00 	lui	ra,0xc00
    e188:	24110001 	li	s1,1
    e18c:	30a20100 	andi	v0,a1,0x100
    e190:	54400009 	bnezl	v0,0xe1b8
    e194:	3c0c0001 	lui	t4,0x1
    e198:	8f830014 	lw	v1,20(gp)
    e19c:	54600006 	bnezl	v1,0xe1b8
    e1a0:	3c0c0001 	lui	t4,0x1
    e1a4:	8f87000c 	lw	a3,12(gp)
    e1a8:	30e44000 	andi	a0,a3,0x4000
    e1ac:	1080009a 	beqz	a0,0xe418
    e1b0:	3c0a1f01 	lui	t2,0x1f01
    e1b4:	3c0c0001 	lui	t4,0x1
    e1b8:	00ac3024 	and	a2,a1,t4
    e1bc:	14c0006c 	bnez	a2,0xe370
    e1c0:	3c108000 	lui	s0,0x8000
    e1c4:	8f84000c 	lw	a0,12(gp)
    e1c8:	30934000 	andi	s3,a0,0x4000
    e1cc:	12600006 	beqz	s3,0xe1e8
    e1d0:	3c031000 	lui	v1,0x1000
    e1d4:	3c190f00 	lui	t9,0xf00
    e1d8:	00b9c024 	and	t8,a1,t9
    e1dc:	1300008b 	beqz	t8,0xe40c
    e1e0:	3c1f8000 	lui	ra,0x8000
    e1e4:	3c031000 	lui	v1,0x1000
    e1e8:	00a31024 	and	v0,a1,v1
    e1ec:	1040002c 	beqz	v0,0xe2a0
    e1f0:	3c068000 	lui	a2,0x8000
    e1f4:	3c070800 	lui	a3,0x800
    e1f8:	8ce70030 	lw	a3,48(a3)
    e1fc:	14e00073 	bnez	a3,0xe3cc
    e200:	30884000 	andi	t0,a0,0x4000
    e204:	30a60100 	andi	a2,a1,0x100
    e208:	10c00098 	beqz	a2,0xe46c
    e20c:	3c0e0f00 	lui	t6,0xf00
    e210:	00ae6824 	and	t5,a1,t6
    e214:	3c0c0200 	lui	t4,0x200
    e218:	11ac0094 	beq	t5,t4,0xe46c
    e21c:	8f930000 	lw	s3,0(gp)
    e220:	02728024 	and	s0,s3,s2
    e224:	02147821 	addu	t7,s0,s4
    e228:	91f40004 	lbu	s4,4(t7)
    e22c:	26920004 	addiu	s2,s4,4
    e230:	001221c0 	sll	a0,s2,0x7
    e234:	3c0e8000 	lui	t6,0x8000
    e238:	95c6010e 	lhu	a2,270(t6)
    e23c:	36270002 	ori	a3,s1,0x2
    e240:	24d40004 	addiu	s4,a2,4
    e244:	3286ffff 	andi	a2,s4,0xffff
    e248:	24050002 	li	a1,2
    e24c:	0e000f04 	jal	0x8003c10
    e250:	00000000 	nop
    e254:	8fbf0024 	lw	ra,36(sp)
    e258:	8fb40020 	lw	s4,32(sp)
    e25c:	8fb3001c 	lw	s3,28(sp)
    e260:	8fb20018 	lw	s2,24(sp)
    e264:	8fb10014 	lw	s1,20(sp)
    e268:	8fb00010 	lw	s0,16(sp)
    e26c:	00001021 	move	v0,zero
    e270:	03e00008 	jr	ra
    e274:	27bd0028 	addiu	sp,sp,40
    e278:	00ab5024 	and	t2,a1,t3
    e27c:	1140ff9e 	beqz	t2,0xe0f8
    e280:	30af2000 	andi	t7,a1,0x2000
    e284:	8f8c000c 	lw	t4,12(gp)
    e288:	3c0effff 	lui	t6,0xffff
    e28c:	35cd7fff 	ori	t5,t6,0x7fff
    e290:	00ad2824 	and	a1,a1,t5
    e294:	35838000 	ori	v1,t4,0x8000
    e298:	0a000fdf 	j	0x8003f7c
    e29c:	af850004 	sw	a1,4(gp)
    e2a0:	8cd04000 	lw	s0,16384(a2)
    e2a4:	320f0100 	andi	t7,s0,0x100
    e2a8:	11e0003c 	beqz	t7,0xe39c
    e2ac:	30b80100 	andi	t8,a1,0x100
    e2b0:	3c100800 	lui	s0,0x800
    e2b4:	8e100024 	lw	s0,36(s0)
    e2b8:	13000014 	beqz	t8,0xe30c
    e2bc:	32330004 	andi	s3,s1,0x4
    e2c0:	3c020f00 	lui	v0,0xf00
    e2c4:	00a2f824 	and	ra,a1,v0
    e2c8:	3c190200 	lui	t9,0x200
    e2cc:	13f9000f 	beq	ra,t9,0xe30c
    e2d0:	8f830000 	lw	v1,0(gp)
    e2d4:	94c9010e 	lhu	t1,270(a2)
    e2d8:	02203821 	move	a3,s1
    e2dc:	00725824 	and	t3,v1,s2
    e2e0:	01745021 	addu	t2,t3,s4
    e2e4:	91480004 	lbu	t0,4(t2)
    e2e8:	25240004 	addiu	a0,t1,4
    e2ec:	3086ffff 	andi	a2,a0,0xffff
    e2f0:	25140004 	addiu	s4,t0,4
    e2f4:	001421c0 	sll	a0,s4,0x7
    e2f8:	24050002 	li	a1,2
    e2fc:	0e000f04 	jal	0x8003c10
    e300:	2412fffe 	li	s2,-2
    e304:	02128024 	and	s0,s0,s2
    e308:	3231fffb 	andi	s1,s1,0xfffb
    e30c:	24070001 	li	a3,1
    e310:	1207006f 	beq	s0,a3,0xe4d0
    e314:	32060001 	andi	a2,s0,0x1
    e318:	14c00090 	bnez	a2,0xe55c
    e31c:	3c0e8000 	lui	t6,0x8000
    e320:	320f0004 	andi	t7,s0,0x4
    e324:	11e00004 	beqz	t7,0xe338
    e328:	8f980004 	lw	t8,4(gp)
    e32c:	33100800 	andi	s0,t8,0x800
    e330:	16000078 	bnez	s0,0xe514
    e334:	3c1f8000 	lui	ra,0x8000
    e338:	5660ffc7 	bnezl	s3,0xe258
    e33c:	8fbf0024 	lw	ra,36(sp)
    e340:	0e000f63 	jal	0x8003d8c
    e344:	00000000 	nop
    e348:	0a001040 	j	0x8004100
    e34c:	8fbf0024 	lw	ra,36(sp)
    e350:	3c190bff 	lui	t9,0xbff
    e354:	00bfc024 	and	t8,a1,ra
    e358:	3733ffff 	ori	s3,t9,0xffff
    e35c:	0278882b 	sltu	s1,s3,t8
    e360:	5220ff8a 	beqzl	s1,0xe18c
    e364:	24110001 	li	s1,1
    e368:	0a00100d 	j	0x8004034
    e36c:	24110005 	li	s1,5
    e370:	3c0e0800 	lui	t6,0x800
    e374:	8dce00d8 	lw	t6,216(t6)
    e378:	960f010e 	lhu	t7,270(s0)
    e37c:	24040080 	li	a0,128
    e380:	25cd0001 	addiu	t5,t6,1
    e384:	31e6ffff 	andi	a2,t7,0xffff
    e388:	24050002 	li	a1,2
    e38c:	3c010800 	lui	at,0x800
    e390:	ac2d00d8 	sw	t5,216(at)
    e394:	0a00103d 	j	0x80040f4
    e398:	24070003 	li	a3,3
    e39c:	3c120800 	lui	s2,0x800
    e3a0:	8e520024 	lw	s2,36(s2)
    e3a4:	32420001 	andi	v0,s2,0x1
    e3a8:	1040ffab 	beqz	v0,0xe258
    e3ac:	8fbf0024 	lw	ra,36(sp)
    e3b0:	94c6010e 	lhu	a2,270(a2)
    e3b4:	36270002 	ori	a3,s1,0x2
    e3b8:	00002021 	move	a0,zero
    e3bc:	24d40004 	addiu	s4,a2,4
    e3c0:	3286ffff 	andi	a2,s4,0xffff
    e3c4:	0a00103d 	j	0x80040f4
    e3c8:	24050002 	li	a1,2
    e3cc:	1100ff8e 	beqz	t0,0xe208
    e3d0:	30a60100 	andi	a2,a1,0x100
    e3d4:	3c0b0f00 	lui	t3,0xf00
    e3d8:	00ab5024 	and	t2,a1,t3
    e3dc:	3c090100 	lui	t1,0x100
    e3e0:	012a202b 	sltu	a0,t1,t2
    e3e4:	1480ff88 	bnez	a0,0xe208
    e3e8:	00000000 	nop
    e3ec:	3c058000 	lui	a1,0x8000
    e3f0:	94a6010e 	lhu	a2,270(a1)
    e3f4:	36270002 	ori	a3,s1,0x2
    e3f8:	24040080 	li	a0,128
    e3fc:	24d40004 	addiu	s4,a2,4
    e400:	3286ffff 	andi	a2,s4,0xffff
    e404:	0a00103d 	j	0x80040f4
    e408:	24050002 	li	a1,2
    e40c:	97e30116 	lhu	v1,278(ra)
    e410:	0a001024 	j	0x8004090
    e414:	3c031000 	lui	v1,0x1000
    e418:	00aa4824 	and	t1,a1,t2
    e41c:	3c081000 	lui	t0,0x1000
    e420:	1528ff65 	bne	t1,t0,0xe1b8
    e424:	3c0c0001 	lui	t4,0x1
    e428:	30cb0200 	andi	t3,a2,0x200
    e42c:	1560ff63 	bnez	t3,0xe1bc
    e430:	00ac3024 	and	a2,a1,t4
    e434:	3c148000 	lui	s4,0x8000
    e438:	9692010e 	lhu	s2,270(s4)
    e43c:	36270002 	ori	a3,s1,0x2
    e440:	00002021 	move	a0,zero
    e444:	26450004 	addiu	a1,s2,4
    e448:	30a6ffff 	andi	a2,a1,0xffff
    e44c:	0e000f3f 	jal	0x8003cfc
    e450:	24050002 	li	a1,2
    e454:	0a001040 	j	0x8004100
    e458:	8fbf0024 	lw	ra,36(sp)
    e45c:	0e000f71 	jal	0x8003dc4
    e460:	00000000 	nop
    e464:	0a001000 	j	0x8004000
    e468:	8f850004 	lw	a1,4(gp)
    e46c:	00000000 	nop
    e470:	3c060800 	lui	a2,0x800
    e474:	8cc600d0 	lw	a2,208(a2)
    e478:	00051602 	srl	v0,a1,0x18
    e47c:	3050000f 	andi	s0,v0,0xf
    e480:	38df0001 	xori	ra,a2,0x1
    e484:	2ff90001 	sltiu	t9,ra,1
    e488:	2e03000c 	sltiu	v1,s0,12
    e48c:	0323c024 	and	t8,t9,v1
    e490:	1700ff68 	bnez	t8,0xe234
    e494:	001021c0 	sll	a0,s0,0x7
    e498:	2608fffc 	addiu	t0,s0,-4
    e49c:	2d070004 	sltiu	a3,t0,4
    e4a0:	14e00007 	bnez	a3,0xe4c0
    e4a4:	3c0e8000 	lui	t6,0x8000
    e4a8:	38ca0002 	xori	t2,a2,0x2
    e4ac:	2d490001 	sltiu	t1,t2,1
    e4b0:	01232024 	and	a0,t1,v1
    e4b4:	5080000e 	beqzl	a0,0xe4f0
    e4b8:	00053242 	srl	a2,a1,0x9
    e4bc:	3c0e8000 	lui	t6,0x8000
    e4c0:	95c6010e 	lhu	a2,270(t6)
    e4c4:	00002021 	move	a0,zero
    e4c8:	0a00103a 	j	0x80040e8
    e4cc:	36270002 	ori	a3,s1,0x2
    e4d0:	32330004 	andi	s3,s1,0x4
    e4d4:	52600001 	beqzl	s3,0xe4dc
    e4d8:	36310002 	ori	s1,s1,0x2
    e4dc:	3c0c8000 	lui	t4,0x8000
    e4e0:	9586010e 	lhu	a2,270(t4)
    e4e4:	02203821 	move	a3,s1
    e4e8:	0a001099 	j	0x8004264
    e4ec:	00002021 	move	a0,zero
    e4f0:	0010182b 	sltu	v1,zero,s0
    e4f4:	00c35824 	and	t3,a2,v1
    e4f8:	1560000f 	bnez	t3,0xe538
    e4fc:	3c058000 	lui	a1,0x8000
    e500:	001021c0 	sll	a0,s0,0x7
    e504:	3c0e8000 	lui	t6,0x8000
    e508:	95c6010e 	lhu	a2,270(t6)
    e50c:	0a00103a 	j	0x80040e8
    e510:	36270002 	ori	a3,s1,0x2
    e514:	97f9010e 	lhu	t9,270(ra)
    e518:	02203821 	move	a3,s1
    e51c:	24040100 	li	a0,256
    e520:	27310004 	addiu	s1,t9,4
    e524:	3226ffff 	andi	a2,s1,0xffff
    e528:	0e000f04 	jal	0x8003c10
    e52c:	24050002 	li	a1,2
    e530:	0a001078 	j	0x80041e0
    e534:	00000000 	nop
    e538:	94ad010e 	lhu	t5,270(a1)
    e53c:	00002021 	move	a0,zero
    e540:	24050002 	li	a1,2
    e544:	25ac0004 	addiu	t4,t5,4
    e548:	3186ffff 	andi	a2,t4,0xffff
    e54c:	0e000f04 	jal	0x8003c10
    e550:	3227fffb 	andi	a3,s1,0xfffb
    e554:	0a0010eb 	j	0x80043ac
    e558:	001021c0 	sll	a0,s0,0x7
    e55c:	95c5010e 	lhu	a1,270(t6)
    e560:	02203821 	move	a3,s1
    e564:	00002021 	move	a0,zero
    e568:	24ad0004 	addiu	t5,a1,4
    e56c:	31a6ffff 	andi	a2,t5,0xffff
    e570:	0e000f04 	jal	0x8003c10
    e574:	24050002 	li	a1,2
    e578:	0a001072 	j	0x80041c8
    e57c:	3231fffb 	andi	s1,s1,0xfffb
    e580:	3c058000 	lui	a1,0x8000
    e584:	8ca70148 	lw	a3,328(a1)
    e588:	24030004 	li	v1,4
    e58c:	34a60180 	ori	a2,a1,0x180
    e590:	00072402 	srl	a0,a3,0x10
    e594:	308200ff 	andi	v0,a0,0xff
    e598:	10430010 	beq	v0,v1,0xe5dc
    e59c:	3c048000 	lui	a0,0x8000
    e5a0:	8c8901b8 	lw	t1,440(a0)
    e5a4:	0520fffe 	bltz	t1,0xe5a0
    e5a8:	00000000 	nop
    e5ac:	8c8f0148 	lw	t7,328(a0)
    e5b0:	240d0002 	li	t5,2
    e5b4:	3c0a1000 	lui	t2,0x1000
    e5b8:	000f7402 	srl	t6,t7,0x10
    e5bc:	a4ce0008 	sh	t6,8(a2)
    e5c0:	a0cd000b 	sb	t5,11(a2)
    e5c4:	8c8c0148 	lw	t4,328(a0)
    e5c8:	a4cc0010 	sh	t4,16(a2)
    e5cc:	8c8b0144 	lw	t3,324(a0)
    e5d0:	accb0024 	sw	t3,36(a2)
    e5d4:	03e00008 	jr	ra
    e5d8:	ac8a01b8 	sw	t2,440(a0)
    e5dc:	8ca40140 	lw	a0,320(a1)
    e5e0:	3c038000 	lui	v1,0x8000
    e5e4:	00c02821 	move	a1,a2
    e5e8:	8c6601b8 	lw	a2,440(v1)
    e5ec:	04c0fffe 	bltz	a2,0xe5e8
    e5f0:	2408001c 	li	t0,28
    e5f4:	aca40000 	sw	a0,0(a1)
    e5f8:	a0a8000b 	sb	t0,11(a1)
    e5fc:	3c051000 	lui	a1,0x1000
    e600:	ac6501b8 	sw	a1,440(v1)
    e604:	03e00008 	jr	ra
    e608:	00000000 	nop
    e60c:	27bdffe8 	addiu	sp,sp,-24
    e610:	afb00010 	sw	s0,16(sp)
    e614:	afbf0014 	sw	ra,20(sp)
    e618:	3c10600c 	lui	s0,0x600c
    e61c:	8e0d5000 	lw	t5,20480(s0)
    e620:	240eff7f 	li	t6,-129
    e624:	24060003 	li	a2,3
    e628:	01ae6024 	and	t4,t5,t6
    e62c:	3588380c 	ori	t0,t4,0x380c
    e630:	3c058000 	lui	a1,0x8000
    e634:	ae085000 	sw	t0,20480(s0)
    e638:	aca60008 	sw	a2,8(a1)
    e63c:	3c010800 	lui	at,0x800
    e640:	ac200020 	sw	zero,32(at)
    e644:	0e001555 	jal	0x8005554
    e648:	00000000 	nop
    e64c:	3c086016 	lui	t0,0x6016
    e650:	8d0a0000 	lw	t2,0(t0)
    e654:	3c0bffff 	lui	t3,0xffff
    e658:	3c090010 	lui	t1,0x10
    e65c:	35238051 	ori	v1,t1,0x8051
    e660:	3c046000 	lui	a0,0x6000
    e664:	014b3824 	and	a3,t2,t3
    e668:	3c025353 	lui	v0,0x5353
    e66c:	ae03537c 	sw	v1,21372(s0)
    e670:	34842020 	ori	a0,a0,0x2020
    e674:	3c050800 	lui	a1,0x800
    e678:	24a57908 	addiu	a1,a1,30984
    e67c:	2406000a 	li	a2,10
    e680:	10e20009 	beq	a3,v0,0xe6a8
    e684:	35037c00 	ori	v1,t0,0x7c00
    e688:	8c7f007c 	lw	ra,124(v1)
    e68c:	8c790078 	lw	t9,120(v1)
    e690:	8fb00010 	lw	s0,16(sp)
    e694:	af9f0010 	sw	ra,16(gp)
    e698:	8fbf0014 	lw	ra,20(sp)
    e69c:	27bd0018 	addiu	sp,sp,24
    e6a0:	0a0013b1 	j	0x8004ec4
    e6a4:	af990008 	sw	t9,8(gp)
    e6a8:	8d0f0004 	lw	t7,4(t0)
    e6ac:	3c186000 	lui	t8,0x6000
    e6b0:	8fb00010 	lw	s0,16(sp)
    e6b4:	01f81821 	addu	v1,t7,t8
    e6b8:	8c7f007c 	lw	ra,124(v1)
    e6bc:	8c790078 	lw	t9,120(v1)
    e6c0:	af9f0010 	sw	ra,16(gp)
    e6c4:	8fbf0014 	lw	ra,20(sp)
    e6c8:	27bd0018 	addiu	sp,sp,24
    e6cc:	0a0013b1 	j	0x8004ec4
    e6d0:	af990008 	sw	t9,8(gp)
    e6d4:	3c048000 	lui	a0,0x8000
    e6d8:	8c834000 	lw	v1,16384(a0)
    e6dc:	3402ffff 	li	v0,0xffff
    e6e0:	1062003a 	beq	v1,v0,0xe7cc
    e6e4:	00000000 	nop
    e6e8:	8c874000 	lw	a3,16384(a0)
    e6ec:	30e50100 	andi	a1,a3,0x100
    e6f0:	10a00021 	beqz	a1,0xe778
    e6f4:	00000000 	nop
    e6f8:	9487010e 	lhu	a3,270(a0)
    e6fc:	3c020800 	lui	v0,0x800
    e700:	8c4200ec 	lw	v0,236(v0)
    e704:	9485010e 	lhu	a1,270(a0)
    e708:	3c0d0800 	lui	t5,0x800
    e70c:	8dad31cc 	lw	t5,12748(t5)
    e710:	30e3ffff 	andi	v1,a3,0xffff
    e714:	3c180800 	lui	t8,0x800
    e718:	8f1800e8 	lw	t8,232(t8)
    e71c:	3c090800 	lui	t1,0x800
    e720:	8d2931c8 	lw	t1,12744(t1)
    e724:	00436021 	addu	t4,v0,v1
    e728:	30abffff 	andi	t3,a1,0xffff
    e72c:	0183782b 	sltu	t7,t4,v1
    e730:	0000c821 	move	t9,zero
    e734:	01ab1821 	addu	v1,t5,t3
    e738:	00005021 	move	t2,zero
    e73c:	03197021 	addu	t6,t8,t9
    e740:	006b302b 	sltu	a2,v1,t3
    e744:	012a4021 	addu	t0,t1,t2
    e748:	01cf2021 	addu	a0,t6,t7
    e74c:	01061021 	addu	v0,t0,a2
    e750:	3c010800 	lui	at,0x800
    e754:	ac2c00ec 	sw	t4,236(at)
    e758:	3c010800 	lui	at,0x800
    e75c:	ac2400e8 	sw	a0,232(at)
    e760:	3c010800 	lui	at,0x800
    e764:	ac2331cc 	sw	v1,12748(at)
    e768:	3c010800 	lui	at,0x800
    e76c:	ac2231c8 	sw	v0,12744(at)
    e770:	03e00008 	jr	ra
    e774:	00000000 	nop
    e778:	8c884000 	lw	t0,16384(a0)
    e77c:	8f8c0008 	lw	t4,8(gp)
    e780:	110c0032 	beq	t0,t4,0xe84c
    e784:	3c0d8000 	lui	t5,0x8000
    e788:	95ab010e 	lhu	t3,270(t5)
    e78c:	3c0a0800 	lui	t2,0x800
    e790:	8d4a00e4 	lw	t2,228(t2)
    e794:	3c080800 	lui	t0,0x800
    e798:	8d0800e0 	lw	t0,224(t0)
    e79c:	3169ffff 	andi	t1,t3,0xffff
    e7a0:	01492821 	addu	a1,t2,t1
    e7a4:	00003021 	move	a2,zero
    e7a8:	00a9602b 	sltu	t4,a1,t1
    e7ac:	01063821 	addu	a3,t0,a2
    e7b0:	00ec1021 	addu	v0,a3,t4
    e7b4:	3c010800 	lui	at,0x800
    e7b8:	ac2500e4 	sw	a1,228(at)
    e7bc:	3c010800 	lui	at,0x800
    e7c0:	ac2200e0 	sw	v0,224(at)
    e7c4:	03e00008 	jr	ra
    e7c8:	00000000 	nop
    e7cc:	9483010e 	lhu	v1,270(a0)
    e7d0:	9482010e 	lhu	v0,270(a0)
    e7d4:	3c190800 	lui	t9,0x800
    e7d8:	8f3900f4 	lw	t9,244(t9)
    e7dc:	3c090800 	lui	t1,0x800
    e7e0:	8d2931cc 	lw	t1,12748(t1)
    e7e4:	3c0e0800 	lui	t6,0x800
    e7e8:	8dce00f0 	lw	t6,240(t6)
    e7ec:	3c080800 	lui	t0,0x800
    e7f0:	8d0831c8 	lw	t0,12744(t0)
    e7f4:	3078ffff 	andi	t8,v1,0xffff
    e7f8:	304bffff 	andi	t3,v0,0xffff
    e7fc:	03382821 	addu	a1,t9,t8
    e800:	012b1821 	addu	v1,t1,t3
    e804:	00007821 	move	t7,zero
    e808:	00005021 	move	t2,zero
    e80c:	00b8682b 	sltu	t5,a1,t8
    e810:	01cf6021 	addu	t4,t6,t7
    e814:	006b302b 	sltu	a2,v1,t3
    e818:	010a3821 	addu	a3,t0,t2
    e81c:	018d2021 	addu	a0,t4,t5
    e820:	00e61021 	addu	v0,a3,a2
    e824:	3c010800 	lui	at,0x800
    e828:	ac2500f4 	sw	a1,244(at)
    e82c:	3c010800 	lui	at,0x800
    e830:	ac2400f0 	sw	a0,240(at)
    e834:	3c010800 	lui	at,0x800
    e838:	ac2331cc 	sw	v1,12748(at)
    e83c:	3c010800 	lui	at,0x800
    e840:	ac2231c8 	sw	v0,12744(at)
    e844:	03e00008 	jr	ra
    e848:	00000000 	nop
    e84c:	8c894004 	lw	t1,16388(a0)
    e850:	8f860010 	lw	a2,16(gp)
    e854:	1526ffcc 	bne	t1,a2,0xe788
    e858:	3c0d8000 	lui	t5,0x8000
    e85c:	9483010e 	lhu	v1,270(a0)
    e860:	3c190800 	lui	t9,0x800
    e864:	8f3931bc 	lw	t9,12732(t9)
    e868:	3c0e0800 	lui	t6,0x800
    e86c:	8dce31b8 	lw	t6,12728(t6)
    e870:	3078ffff 	andi	t8,v1,0xffff
    e874:	03385821 	addu	t3,t9,t8
    e878:	00007821 	move	t7,zero
    e87c:	0178202b 	sltu	a0,t3,t8
    e880:	01cf6821 	addu	t5,t6,t7
    e884:	01a45021 	addu	t2,t5,a0
    e888:	3c010800 	lui	at,0x800
    e88c:	ac2b31bc 	sw	t3,12732(at)
    e890:	3c010800 	lui	at,0x800
    e894:	ac2a31b8 	sw	t2,12728(at)
    e898:	03e00008 	jr	ra
    e89c:	00000000 	nop
    e8a0:	27bdffe8 	addiu	sp,sp,-24
    e8a4:	3c058000 	lui	a1,0x8000
    e8a8:	afbf0014 	sw	ra,20(sp)
    e8ac:	afb00010 	sw	s0,16(sp)
    e8b0:	8cb00128 	lw	s0,296(a1)
    e8b4:	acb00020 	sw	s0,32(a1)
    e8b8:	8ca30104 	lw	v1,260(a1)
    e8bc:	8ca40100 	lw	a0,256(a1)
    e8c0:	af830004 	sw	v1,4(gp)
    e8c4:	0e000ed6 	jal	0x8003b58
    e8c8:	af84000c 	sw	a0,12(gp)
    e8cc:	0e00115f 	jal	0x800457c
    e8d0:	00000000 	nop
    e8d4:	3c020800 	lui	v0,0x800
    e8d8:	8c4200c0 	lw	v0,192(v0)
    e8dc:	10400026 	beqz	v0,0xe978
    e8e0:	8f840004 	lw	a0,4(gp)
    e8e4:	3c070800 	lui	a3,0x800
    e8e8:	8ce700c4 	lw	a3,196(a3)
    e8ec:	24e60001 	addiu	a2,a3,1
    e8f0:	3c010800 	lui	at,0x800
    e8f4:	ac2600c4 	sw	a2,196(at)
    e8f8:	3c028000 	lui	v0,0x8000
    e8fc:	8c440124 	lw	a0,292(v0)
    e900:	3c1f6020 	lui	ra,0x6020
    e904:	afe40014 	sw	a0,20(ra)
    e908:	00000000 	nop
    e90c:	3c068000 	lui	a2,0x8000
    e910:	3c034000 	lui	v1,0x4000
    e914:	acc30138 	sw	v1,312(a2)
    e918:	00000000 	nop
    e91c:	12000013 	beqz	s0,0xe96c
    e920:	8fbf0014 	lw	ra,20(sp)
    e924:	260f0140 	addiu	t7,s0,320
    e928:	26190080 	addiu	t9,s0,128
    e92c:	2404ff80 	li	a0,-128
    e930:	01e4c024 	and	t8,t7,a0
    e934:	0324f824 	and	ra,t9,a0
    e938:	001f6940 	sll	t5,ra,0x5
    e93c:	332e007f 	andi	t6,t9,0x7f
    e940:	00185940 	sll	t3,t8,0x5
    e944:	31ec007f 	andi	t4,t7,0x7f
    e948:	3c0a2000 	lui	t2,0x2000
    e94c:	35480002 	ori	t0,t2,0x2
    e950:	01ae3825 	or	a3,t5,t6
    e954:	016c4825 	or	t1,t3,t4
    e958:	01288025 	or	s0,t1,t0
    e95c:	00e82825 	or	a1,a3,t0
    e960:	acc50830 	sw	a1,2096(a2)
    e964:	acd00830 	sw	s0,2096(a2)
    e968:	8fbf0014 	lw	ra,20(sp)
    e96c:	8fb00010 	lw	s0,16(sp)
    e970:	03e00008 	jr	ra
    e974:	27bd0018 	addiu	sp,sp,24
    e978:	3c090010 	lui	t1,0x10
    e97c:	00894024 	and	t0,a0,t1
    e980:	1100000f 	beqz	t0,0xe9c0
    e984:	8f83000c 	lw	v1,12(gp)
    e988:	240dbfff 	li	t5,-16385
    e98c:	006d6024 	and	t4,v1,t5
    e990:	11800007 	beqz	t4,0xe9b0
    e994:	240f87ff 	li	t7,-30721
    e998:	006f7024 	and	t6,v1,t7
    e99c:	15c00013 	bnez	t6,0xe9ec
    e9a0:	3c190060 	lui	t9,0x60
    e9a4:	0099c024 	and	t8,a0,t9
    e9a8:	13000010 	beqz	t8,0xe9ec
    e9ac:	00000000 	nop
    e9b0:	0e000cd2 	jal	0x8003348
    e9b4:	00000000 	nop
    e9b8:	0a001221 	j	0x8004884
    e9bc:	00000000 	nop
    e9c0:	3c0b0800 	lui	t3,0x800
    e9c4:	8d6b0020 	lw	t3,32(t3)
    e9c8:	256a0001 	addiu	t2,t3,1
    e9cc:	3c010800 	lui	at,0x800
    e9d0:	ac2a0020 	sw	t2,32(at)
    e9d4:	0e000fc5 	jal	0x8003f14
    e9d8:	00002021 	move	a0,zero
    e9dc:	1040ffcc 	beqz	v0,0xe910
    e9e0:	3c068000 	lui	a2,0x8000
    e9e4:	0a0011e9 	j	0x80047a4
    e9e8:	3c028000 	lui	v0,0x8000
    e9ec:	0e00128e 	jal	0x8004a38
    e9f0:	00000000 	nop
    e9f4:	0a001221 	j	0x8004884
    e9f8:	00000000 	nop
    e9fc:	27bdffe8 	addiu	sp,sp,-24
    ea00:	3c028000 	lui	v0,0x8000
    ea04:	afbf0010 	sw	ra,16(sp)
    ea08:	8c460140 	lw	a2,320(v0)
    ea0c:	3c037000 	lui	v1,0x7000
    ea10:	3c054000 	lui	a1,0x4000
    ea14:	ac460020 	sw	a2,32(v0)
    ea18:	8c440148 	lw	a0,328(v0)
    ea1c:	00832024 	and	a0,a0,v1
    ea20:	10850013 	beq	a0,a1,0xea70
    ea24:	00a4102b 	sltu	v0,a1,a0
    ea28:	1040000b 	beqz	v0,0xea58
    ea2c:	3c072000 	lui	a3,0x2000
    ea30:	3c086000 	lui	t0,0x6000
    ea34:	10880017 	beq	a0,t0,0xea94
    ea38:	00000000 	nop
    ea3c:	3c0a4000 	lui	t2,0x4000
    ea40:	3c098000 	lui	t1,0x8000
    ea44:	ad2a0178 	sw	t2,376(t1)
    ea48:	00000000 	nop
    ea4c:	8fbf0010 	lw	ra,16(sp)
    ea50:	03e00008 	jr	ra
    ea54:	27bd0018 	addiu	sp,sp,24
    ea58:	5487fff9 	bnel	a0,a3,0xea40
    ea5c:	3c0a4000 	lui	t2,0x4000
    ea60:	0e00110a 	jal	0x8004428
    ea64:	00000000 	nop
    ea68:	0a00123a 	j	0x80048e8
    ea6c:	3c0a4000 	lui	t2,0x4000
    ea70:	0e0012b4 	jal	0x8004ad0
    ea74:	00000000 	nop
    ea78:	3c0a4000 	lui	t2,0x4000
    ea7c:	3c098000 	lui	t1,0x8000
    ea80:	ad2a0178 	sw	t2,376(t1)
    ea84:	00000000 	nop
    ea88:	8fbf0010 	lw	ra,16(sp)
    ea8c:	03e00008 	jr	ra
    ea90:	27bd0018 	addiu	sp,sp,24
    ea94:	0e001d6f 	jal	0x80075bc
    ea98:	00000000 	nop
    ea9c:	0a00123a 	j	0x80048e8
    eaa0:	3c0a4000 	lui	t2,0x4000
    eaa4:	27bdffe0 	addiu	sp,sp,-32
    eaa8:	afb20018 	sw	s2,24(sp)
    eaac:	3c128000 	lui	s2,0x8000
    eab0:	afb10014 	sw	s1,20(sp)
    eab4:	afbf001c 	sw	ra,28(sp)
    eab8:	afb00010 	sw	s0,16(sp)
    eabc:	0e00112d 	jal	0x80044b4
    eac0:	36510070 	ori	s1,s2,0x70
    eac4:	8e260000 	lw	a2,0(s1)
    eac8:	af860018 	sw	a2,24(gp)
    eacc:	8e280000 	lw	t0,0(s1)
    ead0:	3c0b0800 	lui	t3,0x800
    ead4:	8d6b00fc 	lw	t3,252(t3)
    ead8:	3c070800 	lui	a3,0x800
    eadc:	8ce700f8 	lw	a3,248(a3)
    eae0:	01066023 	subu	t4,t0,a2
    eae4:	016c2821 	addu	a1,t3,t4
    eae8:	00004821 	move	t1,zero
    eaec:	00ac302b 	sltu	a2,a1,t4
    eaf0:	00e91821 	addu	v1,a3,t1
    eaf4:	00662021 	addu	a0,v1,a2
    eaf8:	3c010800 	lui	at,0x800
    eafc:	ac2500fc 	sw	a1,252(at)
    eb00:	3c010800 	lui	at,0x800
    eb04:	ac2400f8 	sw	a0,248(at)
    eb08:	8e500000 	lw	s0,0(s2)
    eb0c:	32020003 	andi	v0,s0,0x3
    eb10:	1040ffee 	beqz	v0,0xeacc
    eb14:	01003021 	move	a2,t0
    eb18:	8e260000 	lw	a2,0(s1)
    eb1c:	3c050800 	lui	a1,0x800
    eb20:	8ca500fc 	lw	a1,252(a1)
    eb24:	3c1f0800 	lui	ra,0x800
    eb28:	8fff00f8 	lw	ra,248(ra)
    eb2c:	00c81823 	subu	v1,a2,t0
    eb30:	00a37821 	addu	t7,a1,v1
    eb34:	00001021 	move	v0,zero
    eb38:	01e3c82b 	sltu	t9,t7,v1
    eb3c:	03e2c021 	addu	t8,ra,v0
    eb40:	03197021 	addu	t6,t8,t9
    eb44:	320d0001 	andi	t5,s0,0x1
    eb48:	3c010800 	lui	at,0x800
    eb4c:	ac2f00fc 	sw	t7,252(at)
    eb50:	af880018 	sw	t0,24(gp)
    eb54:	3c010800 	lui	at,0x800
    eb58:	ac2e00f8 	sw	t6,248(at)
    eb5c:	15a00008 	bnez	t5,0xeb80
    eb60:	00000000 	nop
    eb64:	32080002 	andi	t0,s0,0x2
    eb68:	1100ffd6 	beqz	t0,0xeac4
    eb6c:	00000000 	nop
    eb70:	0e001229 	jal	0x80048a4
    eb74:	00000000 	nop
    eb78:	0a00125b 	j	0x800496c
    eb7c:	00000000 	nop
    eb80:	0e0011d2 	jal	0x8004748
    eb84:	00000000 	nop
    eb88:	0a001284 	j	0x8004a10
    eb8c:	32080002 	andi	t0,s0,0x2
    eb90:	3c038000 	lui	v1,0x8000
    eb94:	8c640100 	lw	a0,256(v1)
    eb98:	3082003e 	andi	v0,a0,0x3e
    eb9c:	14400008 	bnez	v0,0xebc0
    eba0:	00000000 	nop
    eba4:	ac600048 	sw	zero,72(v1)
    eba8:	8c660100 	lw	a2,256(v1)
    ebac:	30c507c0 	andi	a1,a2,0x7c0
    ebb0:	10a00005 	beqz	a1,0xebc8
    ebb4:	00000000 	nop
    ebb8:	ac60004c 	sw	zero,76(v1)
    ebbc:	ac600050 	sw	zero,80(v1)
    ebc0:	03e00008 	jr	ra
    ebc4:	24020001 	li	v0,1
    ebc8:	ac600054 	sw	zero,84(v1)
    ebcc:	ac600040 	sw	zero,64(v1)
    ebd0:	8c680100 	lw	t0,256(v1)
    ebd4:	31073800 	andi	a3,t0,0x3800
    ebd8:	10e0fff9 	beqz	a3,0xebc0
    ebdc:	00000000 	nop
    ebe0:	24020001 	li	v0,1
    ebe4:	03e00008 	jr	ra
    ebe8:	ac600044 	sw	zero,68(v1)
    ebec:	3c039000 	lui	v1,0x9000
    ebf0:	34620001 	ori	v0,v1,0x1
    ebf4:	00822025 	or	a0,a0,v0
    ebf8:	3c038000 	lui	v1,0x8000
    ebfc:	ac640020 	sw	a0,32(v1)
    ec00:	8c650020 	lw	a1,32(v1)
    ec04:	04a0fffe 	bltz	a1,0xec00
    ec08:	00000000 	nop
    ec0c:	03e00008 	jr	ra
    ec10:	00000000 	nop
    ec14:	3c028000 	lui	v0,0x8000
    ec18:	34430001 	ori	v1,v0,0x1
    ec1c:	00832025 	or	a0,a0,v1
    ec20:	03e00008 	jr	ra
    ec24:	ac440020 	sw	a0,32(v0)
    ec28:	27bdffd8 	addiu	sp,sp,-40
    ec2c:	afb10014 	sw	s1,20(sp)
    ec30:	3c048000 	lui	a0,0x8000
    ec34:	afbf0020 	sw	ra,32(sp)
    ec38:	afb3001c 	sw	s3,28(sp)
    ec3c:	afb20018 	sw	s2,24(sp)
    ec40:	afb00010 	sw	s0,16(sp)
    ec44:	8c920140 	lw	s2,320(a0)
    ec48:	8c900148 	lw	s0,328(a0)
    ec4c:	2402000e 	li	v0,14
    ec50:	00108c02 	srl	s1,s0,0x10
    ec54:	322300ff 	andi	v1,s1,0xff
    ec58:	10620059 	beq	v1,v0,0xedc0
    ec5c:	02042824 	and	a1,s0,a0
    ec60:	2866000f 	slti	a2,v1,15
    ec64:	10c00013 	beqz	a2,0xecb4
    ec68:	286a0037 	slti	t2,v1,55
    ec6c:	24070006 	li	a3,6
    ec70:	1067008e 	beq	v1,a3,0xeeac
    ec74:	28680007 	slti	t0,v1,7
    ec78:	5100002d 	beqzl	t0,0xed30
    ec7c:	24040009 	li	a0,9
    ec80:	10600078 	beqz	v1,0xee64
    ec84:	3c068000 	lui	a2,0x8000
    ec88:	24090001 	li	t1,1
    ec8c:	106900b0 	beq	v1,t1,0xef50
    ec90:	00000000 	nop
    ec94:	0000000d 	break
    ec98:	8fbf0020 	lw	ra,32(sp)
    ec9c:	8fb3001c 	lw	s3,28(sp)
    eca0:	8fb20018 	lw	s2,24(sp)
    eca4:	8fb10014 	lw	s1,20(sp)
    eca8:	8fb00010 	lw	s0,16(sp)
    ecac:	03e00008 	jr	ra
    ecb0:	27bd0028 	addiu	sp,sp,40
    ecb4:	11400059 	beqz	t2,0xee1c
    ecb8:	240d0038 	li	t5,56
    ecbc:	286b0035 	slti	t3,v1,53
    ecc0:	11600005 	beqz	t3,0xecd8
    ecc4:	3c058000 	lui	a1,0x8000
    ecc8:	240c001f 	li	t4,31
    eccc:	146cfff1 	bne	v1,t4,0xec94
    ecd0:	00000000 	nop
    ecd4:	3c058000 	lui	a1,0x8000
    ecd8:	8cb801b8 	lw	t8,440(a1)
    ecdc:	0700fffe 	bltz	t8,0xecd8
    ece0:	34b90180 	ori	t9,a1,0x180
    ece4:	af320000 	sw	s2,0(t9)
    ece8:	241f0001 	li	ra,1
    ecec:	24120002 	li	s2,2
    ecf0:	3c021000 	lui	v0,0x1000
    ecf4:	af200004 	sw	zero,4(t9)
    ecf8:	a7310008 	sh	s1,8(t9)
    ecfc:	a33f000a 	sb	ra,10(t9)
    ed00:	a332000b 	sb	s2,11(t9)
    ed04:	a7300010 	sh	s0,16(t9)
    ed08:	af200024 	sw	zero,36(t9)
    ed0c:	af200028 	sw	zero,40(t9)
    ed10:	aca201b8 	sw	v0,440(a1)
    ed14:	8fbf0020 	lw	ra,32(sp)
    ed18:	8fb3001c 	lw	s3,28(sp)
    ed1c:	8fb20018 	lw	s2,24(sp)
    ed20:	8fb10014 	lw	s1,20(sp)
    ed24:	8fb00010 	lw	s0,16(sp)
    ed28:	03e00008 	jr	ra
    ed2c:	27bd0028 	addiu	sp,sp,40
    ed30:	10640023 	beq	v1,a0,0xedc0
    ed34:	2405000b 	li	a1,11
    ed38:	1465ffd6 	bne	v1,a1,0xec94
    ed3c:	3218ffff 	andi	t8,s0,0xffff
    ed40:	17000020 	bnez	t8,0xedc4
    ed44:	3c058000 	lui	a1,0x8000
    ed48:	8f93fed4 	lw	s3,-300(gp)
    ed4c:	927f0005 	lbu	ra,5(s3)
    ed50:	33f90004 	andi	t9,ra,0x4
    ed54:	1720ffcf 	bnez	t9,0xec94
    ed58:	00000000 	nop
    ed5c:	0e0012a5 	jal	0x8004a94
    ed60:	02402021 	move	a0,s2
    ed64:	92690005 	lbu	t1,5(s3)
    ed68:	02402021 	move	a0,s2
    ed6c:	35280004 	ori	t0,t1,0x4
    ed70:	0e0012af 	jal	0x8004abc
    ed74:	a2680005 	sb	t0,5(s3)
    ed78:	92670005 	lbu	a3,5(s3)
    ed7c:	30e20004 	andi	v0,a3,0x4
    ed80:	14400002 	bnez	v0,0xed8c
    ed84:	00000000 	nop
    ed88:	0000000d 	break
    ed8c:	926b0000 	lbu	t3,0(s3)
    ed90:	24060020 	li	a2,32
    ed94:	316a00ff 	andi	t2,t3,0xff
    ed98:	1546000a 	bne	t2,a2,0xedc4
    ed9c:	3c058000 	lui	a1,0x8000
    eda0:	8ca401b8 	lw	a0,440(a1)
    eda4:	0480fffe 	bltz	a0,0xeda0
    eda8:	34ad0180 	ori	t5,a1,0x180
    edac:	240e0005 	li	t6,5
    edb0:	3c0c1000 	lui	t4,0x1000
    edb4:	adb20000 	sw	s2,0(t5)
    edb8:	a1ae000b 	sb	t6,11(t5)
    edbc:	acac01b8 	sw	t4,440(a1)
    edc0:	3c058000 	lui	a1,0x8000
    edc4:	8ca301b8 	lw	v1,440(a1)
    edc8:	0460fffe 	bltz	v1,0xedc4
    edcc:	34af0180 	ori	t7,a1,0x180
    edd0:	24130002 	li	s3,2
    edd4:	ade00000 	sw	zero,0(t7)
    edd8:	adf20004 	sw	s2,4(t7)
    eddc:	a5f10008 	sh	s1,8(t7)
    ede0:	a1f3000a 	sb	s3,10(t7)
    ede4:	a1f3000b 	sb	s3,11(t7)
    ede8:	a5f00010 	sh	s0,16(t7)
    edec:	ade00024 	sw	zero,36(t7)
    edf0:	8cb10144 	lw	s1,324(a1)
    edf4:	3c101000 	lui	s0,0x1000
    edf8:	adf10028 	sw	s1,40(t7)
    edfc:	acb001b8 	sw	s0,440(a1)
    ee00:	8fbf0020 	lw	ra,32(sp)
    ee04:	8fb3001c 	lw	s3,28(sp)
    ee08:	8fb20018 	lw	s2,24(sp)
    ee0c:	8fb10014 	lw	s1,20(sp)
    ee10:	8fb00010 	lw	s0,16(sp)
    ee14:	03e00008 	jr	ra
    ee18:	27bd0028 	addiu	sp,sp,40
    ee1c:	106dffad 	beq	v1,t5,0xecd4
    ee20:	240e0080 	li	t6,128
    ee24:	146eff9b 	bne	v1,t6,0xec94
    ee28:	00000000 	nop
    ee2c:	3c058000 	lui	a1,0x8000
    ee30:	8ca301b8 	lw	v1,440(a1)
    ee34:	0460fffe 	bltz	v1,0xee30
    ee38:	34af0180 	ori	t7,a1,0x180
    ee3c:	24120002 	li	s2,2
    ee40:	a1f2000b 	sb	s2,11(t7)
    ee44:	a5f10008 	sh	s1,8(t7)
    ee48:	a5f00010 	sh	s0,16(t7)
    ee4c:	8cb30144 	lw	s3,324(a1)
    ee50:	3c021000 	lui	v0,0x1000
    ee54:	a5f30012 	sh	s3,18(t7)
    ee58:	aca201b8 	sw	v0,440(a1)
    ee5c:	0a0012f0 	j	0x8004bc0
    ee60:	8fbf0020 	lw	ra,32(sp)
    ee64:	8cc301b8 	lw	v1,440(a2)
    ee68:	0460fffe 	bltz	v1,0xee64
    ee6c:	34d30180 	ori	s3,a2,0x180
    ee70:	ae720000 	sw	s2,0(s3)
    ee74:	ae600004 	sw	zero,4(s3)
    ee78:	24120001 	li	s2,1
    ee7c:	a6710008 	sh	s1,8(s3)
    ee80:	24110002 	li	s1,2
    ee84:	a272000a 	sb	s2,10(s3)
    ee88:	a271000b 	sb	s1,11(s3)
    ee8c:	a6700010 	sh	s0,16(s3)
    ee90:	8cd00144 	lw	s0,324(a2)
    ee94:	3c0f1000 	lui	t7,0x1000
    ee98:	ae700024 	sw	s0,36(s3)
    ee9c:	ae600028 	sw	zero,40(s3)
    eea0:	accf01b8 	sw	t7,440(a2)
    eea4:	0a00132b 	j	0x8004cac
    eea8:	8fbf0020 	lw	ra,32(sp)
    eeac:	3c038000 	lui	v1,0x8000
    eeb0:	8c6601b8 	lw	a2,440(v1)
    eeb4:	04c0fffe 	bltz	a2,0xeeb0
    eeb8:	34620180 	ori	v0,v1,0x180
    eebc:	3c060800 	lui	a2,0x800
    eec0:	90c67ab8 	lbu	a2,31416(a2)
    eec4:	ac520000 	sw	s2,0(v0)
    eec8:	10c00003 	beqz	a2,0xeed8
    eecc:	00003821 	move	a3,zero
    eed0:	3c070800 	lui	a3,0x800
    eed4:	8ce77ac0 	lw	a3,31424(a3)
    eed8:	3c058000 	lui	a1,0x8000
    eedc:	34aa0180 	ori	t2,a1,0x180
    eee0:	24040002 	li	a0,2
    eee4:	34cc0001 	ori	t4,a2,0x1
    eee8:	ac470004 	sw	a3,4(v0)
    eeec:	a5510008 	sh	s1,8(t2)
    eef0:	a14c000a 	sb	t4,10(t2)
    eef4:	a144000b 	sb	a0,11(t2)
    eef8:	a5500010 	sh	s0,16(t2)
    eefc:	8cab0144 	lw	t3,324(a1)
    ef00:	00002021 	move	a0,zero
    ef04:	01402821 	move	a1,t2
    ef08:	ad4b0024 	sw	t3,36(t2)
    ef0c:	10c00003 	beqz	a2,0xef1c
    ef10:	8fbf0020 	lw	ra,32(sp)
    ef14:	3c040800 	lui	a0,0x800
    ef18:	8c847abc 	lw	a0,31420(a0)
    ef1c:	8fb3001c 	lw	s3,28(sp)
    ef20:	8fb20018 	lw	s2,24(sp)
    ef24:	8fb10014 	lw	s1,20(sp)
    ef28:	8fb00010 	lw	s0,16(sp)
    ef2c:	3c0e1000 	lui	t6,0x1000
    ef30:	3c0d8000 	lui	t5,0x8000
    ef34:	27bd0028 	addiu	sp,sp,40
    ef38:	aca40028 	sw	a0,40(a1)
    ef3c:	adae01b8 	sw	t6,440(t5)
    ef40:	3c010800 	lui	at,0x800
    ef44:	a0207ab8 	sb	zero,31416(at)
    ef48:	03e00008 	jr	ra
    ef4c:	00000000 	nop
    ef50:	10a0000b 	beqz	a1,0xef80
    ef54:	3c068000 	lui	a2,0x8000
    ef58:	8c980144 	lw	t8,324(a0)
    ef5c:	24190002 	li	t9,2
    ef60:	3c010800 	lui	at,0x800
    ef64:	a0397ab8 	sb	t9,31416(at)
    ef68:	3c010800 	lui	at,0x800
    ef6c:	ac327ac0 	sw	s2,31424(at)
    ef70:	3c010800 	lui	at,0x800
    ef74:	ac387abc 	sw	t8,31420(at)
    ef78:	0a00132b 	j	0x8004cac
    ef7c:	8fbf0020 	lw	ra,32(sp)
    ef80:	8cdf01b8 	lw	ra,440(a2)
    ef84:	07e0fffe 	bltz	ra,0xef80
    ef88:	34c70180 	ori	a3,a2,0x180
    ef8c:	24090002 	li	t1,2
    ef90:	ace00000 	sw	zero,0(a3)
    ef94:	acf20004 	sw	s2,4(a3)
    ef98:	a4f10008 	sh	s1,8(a3)
    ef9c:	a0e9000a 	sb	t1,10(a3)
    efa0:	a0e9000b 	sb	t1,11(a3)
    efa4:	a4f00010 	sh	s0,16(a3)
    efa8:	ace00024 	sw	zero,36(a3)
    efac:	8cc80144 	lw	t0,324(a2)
    efb0:	3c021000 	lui	v0,0x1000
    efb4:	ace80028 	sw	t0,40(a3)
    efb8:	acc201b8 	sw	v0,440(a2)
    efbc:	0a00132b 	j	0x8004cac
    efc0:	8fbf0020 	lw	ra,32(sp)
    efc4:	27bdffe8 	addiu	sp,sp,-24
    efc8:	afbf0010 	sw	ra,16(sp)
    efcc:	0e000ed6 	jal	0x8003b58
    efd0:	00000000 	nop
    efd4:	3c028000 	lui	v0,0x8000
    efd8:	8fbf0010 	lw	ra,16(sp)
    efdc:	00002021 	move	a0,zero
    efe0:	ac400180 	sw	zero,384(v0)
    efe4:	0a000fc5 	j	0x8003f14
    efe8:	27bd0018 	addiu	sp,sp,24
    efec:	3084ffff 	andi	a0,a0,0xffff
    eff0:	30a5ffff 	andi	a1,a1,0xffff
    eff4:	10800007 	beqz	a0,0xf014
    eff8:	00001821 	move	v1,zero
    effc:	30820001 	andi	v0,a0,0x1
    f000:	10400002 	beqz	v0,0xf00c
    f004:	00042042 	srl	a0,a0,0x1
    f008:	00651821 	addu	v1,v1,a1
    f00c:	1480fffb 	bnez	a0,0xeffc
    f010:	00052840 	sll	a1,a1,0x1
    f014:	03e00008 	jr	ra
    f018:	00601021 	move	v0,v1
    f01c:	10c00007 	beqz	a2,0xf03c
    f020:	00000000 	nop
    f024:	8ca20000 	lw	v0,0(a1)
    f028:	24c6ffff 	addiu	a2,a2,-1
    f02c:	24a50004 	addiu	a1,a1,4
    f030:	ac820000 	sw	v0,0(a0)
    f034:	14c0fffb 	bnez	a2,0xf024
    f038:	24840004 	addiu	a0,a0,4
    f03c:	03e00008 	jr	ra
    f040:	00000000 	nop
    f044:	10a00008 	beqz	a1,0xf068
    f048:	24a3ffff 	addiu	v1,a1,-1
    f04c:	ac860000 	sw	a2,0(a0)
	...
    f058:	2402ffff 	li	v0,-1
    f05c:	2463ffff 	addiu	v1,v1,-1
    f060:	1462fffa 	bne	v1,v0,0xf04c
    f064:	24840004 	addiu	a0,a0,4
    f068:	03e00008 	jr	ra
    f06c:	00000000 	nop
    f070:	27bdffe0 	addiu	sp,sp,-32
    f074:	afb20018 	sw	s2,24(sp)
    f078:	afb10014 	sw	s1,20(sp)
    f07c:	afb00010 	sw	s0,16(sp)
    f080:	afbf001c 	sw	ra,28(sp)
    f084:	9486000c 	lhu	a2,12(a0)
    f088:	00a09021 	move	s2,a1
    f08c:	24900014 	addiu	s0,a0,20
    f090:	00061b02 	srl	v1,a2,0xc
    f094:	00031080 	sll	v0,v1,0x2
    f098:	00448821 	addu	s1,v0,a0
    f09c:	00003021 	move	a2,zero
    f0a0:	00a02021 	move	a0,a1
    f0a4:	0e0013bb 	jal	0x8004eec
    f0a8:	24050005 	li	a1,5
    f0ac:	0211202b 	sltu	a0,s0,s1
    f0b0:	10800012 	beqz	a0,0xf0fc
    f0b4:	00001021 	move	v0,zero
    f0b8:	92030000 	lbu	v1,0(s0)
    f0bc:	2c650009 	sltiu	a1,v1,9
    f0c0:	50a00009 	beqzl	a1,0xf0e8
    f0c4:	92020001 	lbu	v0,1(s0)
    f0c8:	00034880 	sll	t1,v1,0x2
    f0cc:	3c0a0800 	lui	t2,0x800
    f0d0:	254a793c 	addiu	t2,t2,31036
    f0d4:	012a4021 	addu	t0,t1,t2
    f0d8:	8d070000 	lw	a3,0(t0)
    f0dc:	00e00008 	jr	a3
    f0e0:	00000000 	nop
    f0e4:	92020001 	lbu	v0,1(s0)
    f0e8:	02028021 	addu	s0,s0,v0
    f0ec:	0211202b 	sltu	a0,s0,s1
    f0f0:	5480fff2 	bnezl	a0,0xf0bc
    f0f4:	92030000 	lbu	v1,0(s0)
    f0f8:	00001021 	move	v0,zero
    f0fc:	8fbf001c 	lw	ra,28(sp)
    f100:	8fb20018 	lw	s2,24(sp)
    f104:	8fb10014 	lw	s1,20(sp)
    f108:	8fb00010 	lw	s0,16(sp)
    f10c:	03e00008 	jr	ra
    f110:	27bd0020 	addiu	sp,sp,32
    f114:	0a0013d5 	j	0x8004f54
    f118:	26100001 	addiu	s0,s0,1
    f11c:	920c0001 	lbu	t4,1(s0)
    f120:	240b000c 	li	t3,12
    f124:	158b0040 	bne	t4,t3,0xf228
    f128:	02307023 	subu	t6,s1,s0
    f12c:	2dcd000a 	sltiu	t5,t6,10
    f130:	15a0003d 	bnez	t5,0xf228
    f134:	26080006 	addiu	t0,s0,6
    f138:	8e430000 	lw	v1,0(s2)
    f13c:	26020002 	addiu	v0,s0,2
    f140:	34640100 	ori	a0,v1,0x100
    f144:	ae440000 	sw	a0,0(s2)
    f148:	921f0002 	lbu	ra,2(s0)
    f14c:	90590001 	lbu	t9,1(v0)
    f150:	904e0002 	lbu	t6,2(v0)
    f154:	904b0003 	lbu	t3,3(v0)
    f158:	001f7e00 	sll	t7,ra,0x18
    f15c:	0019c400 	sll	t8,t9,0x10
    f160:	01f86025 	or	t4,t7,t8
    f164:	000e6a00 	sll	t5,t6,0x8
    f168:	018d5025 	or	t2,t4,t5
    f16c:	014b4825 	or	t1,t2,t3
    f170:	ae490004 	sw	t1,4(s2)
    f174:	92070006 	lbu	a3,6(s0)
    f178:	91050001 	lbu	a1,1(t0)
    f17c:	91040002 	lbu	a0,2(t0)
    f180:	91190003 	lbu	t9,3(t0)
    f184:	00071e00 	sll	v1,a3,0x18
    f188:	00053400 	sll	a2,a1,0x10
    f18c:	0066f825 	or	ra,v1,a2
    f190:	00041200 	sll	v0,a0,0x8
    f194:	03e2c025 	or	t8,ra,v0
    f198:	03197825 	or	t7,t8,t9
    f19c:	2610000a 	addiu	s0,s0,10
    f1a0:	0a0013d5 	j	0x8004f54
    f1a4:	ae4f0008 	sw	t7,8(s2)
    f1a8:	921f0001 	lbu	ra,1(s0)
    f1ac:	26040002 	addiu	a0,s0,2
    f1b0:	24100002 	li	s0,2
    f1b4:	57f00001 	bnel	ra,s0,0xf1bc
    f1b8:	02202021 	move	a0,s1
    f1bc:	0a0013d5 	j	0x8004f54
    f1c0:	00808021 	move	s0,a0
    f1c4:	920e0001 	lbu	t6,1(s0)
    f1c8:	240d0003 	li	t5,3
    f1cc:	15cdffcb 	bne	t6,t5,0xf0fc
    f1d0:	24020001 	li	v0,1
    f1d4:	8e590000 	lw	t9,0(s2)
    f1d8:	92180002 	lbu	t8,2(s0)
    f1dc:	26100003 	addiu	s0,s0,3
    f1e0:	372f0008 	ori	t7,t9,0x8
    f1e4:	a2580010 	sb	t8,16(s2)
    f1e8:	0a0013d5 	j	0x8004f54
    f1ec:	ae4f0000 	sw	t7,0(s2)
    f1f0:	92050001 	lbu	a1,1(s0)
    f1f4:	24060004 	li	a2,4
    f1f8:	14a6ffc0 	bne	a1,a2,0xf0fc
    f1fc:	24020001 	li	v0,1
    f200:	920c0002 	lbu	t4,2(s0)
    f204:	920b0003 	lbu	t3,3(s0)
    f208:	8e490000 	lw	t1,0(s2)
    f20c:	000c5200 	sll	t2,t4,0x8
    f210:	014b4025 	or	t0,t2,t3
    f214:	35270004 	ori	a3,t1,0x4
    f218:	26100004 	addiu	s0,s0,4
    f21c:	ae48000c 	sw	t0,12(s2)
    f220:	0a0013d5 	j	0x8004f54
    f224:	ae470000 	sw	a3,0(s2)
    f228:	0a0013e9 	j	0x8004fa4
    f22c:	24020001 	li	v0,1
    f230:	27bdffe8 	addiu	sp,sp,-24
    f234:	afbf0014 	sw	ra,20(sp)
    f238:	afb00010 	sw	s0,16(sp)
    f23c:	0e0012a5 	jal	0x8004a94
    f240:	00808021 	move	s0,a0
    f244:	3c048008 	lui	a0,0x8008
    f248:	34830080 	ori	v1,a0,0x80
    f24c:	90650025 	lbu	a1,37(v1)
    f250:	02002021 	move	a0,s0
    f254:	34a20020 	ori	v0,a1,0x20
    f258:	0e0012af 	jal	0x8004abc
    f25c:	a0620025 	sb	v0,37(v1)
    f260:	02002021 	move	a0,s0
    f264:	8fbf0014 	lw	ra,20(sp)
    f268:	8fb00010 	lw	s0,16(sp)
    f26c:	0a000c9e 	j	0x8003278
    f270:	27bd0018 	addiu	sp,sp,24
    f274:	3c038000 	lui	v1,0x8000
    f278:	27bdfff8 	addiu	sp,sp,-8
    f27c:	34620180 	ori	v0,v1,0x180
    f280:	afa20000 	sw	v0,0(sp)
    f284:	308c00ff 	andi	t4,a0,0xff
    f288:	30ad00ff 	andi	t5,a1,0xff
    f28c:	30ce00ff 	andi	t6,a2,0xff
    f290:	3c0b8000 	lui	t3,0x8000
    f294:	8d6401b8 	lw	a0,440(t3)
    f298:	0480fffe 	bltz	a0,0xf294
    f29c:	00000000 	nop
    f2a0:	8fa90000 	lw	t1,0(sp)
    f2a4:	8d680128 	lw	t0,296(t3)
    f2a8:	8faa0000 	lw	t2,0(sp)
    f2ac:	8fa70000 	lw	a3,0(sp)
    f2b0:	8fa40000 	lw	a0,0(sp)
    f2b4:	24050001 	li	a1,1
    f2b8:	24020002 	li	v0,2
    f2bc:	a085000a 	sb	a1,10(a0)
    f2c0:	8fa30000 	lw	v1,0(sp)
    f2c4:	35994000 	ori	t9,t4,0x4000
    f2c8:	3c051000 	lui	a1,0x1000
    f2cc:	a062000b 	sb	v0,11(v1)
    f2d0:	8fb80000 	lw	t8,0(sp)
    f2d4:	8fac0000 	lw	t4,0(sp)
    f2d8:	8fa60000 	lw	a2,0(sp)
    f2dc:	8faf0000 	lw	t7,0(sp)
    f2e0:	27bd0008 	addiu	sp,sp,8
    f2e4:	ad280000 	sw	t0,0(t1)
    f2e8:	ad400004 	sw	zero,4(t2)
    f2ec:	ad800024 	sw	zero,36(t4)
    f2f0:	acc00028 	sw	zero,40(a2)
    f2f4:	a4f90008 	sh	t9,8(a3)
    f2f8:	a70d0010 	sh	t5,16(t8)
    f2fc:	a5ee0012 	sh	t6,18(t7)
    f300:	03e00008 	jr	ra
    f304:	ad6501b8 	sw	a1,440(t3)
    f308:	3c068008 	lui	a2,0x8008
    f30c:	27bdffe8 	addiu	sp,sp,-24
    f310:	34c50080 	ori	a1,a2,0x80
    f314:	afbf0010 	sw	ra,16(sp)
    f318:	90a70009 	lbu	a3,9(a1)
    f31c:	24020012 	li	v0,18
    f320:	30e300ff 	andi	v1,a3,0xff
    f324:	1062000b 	beq	v1,v0,0xf354
    f328:	00803021 	move	a2,a0
    f32c:	8ca80050 	lw	t0,80(a1)
    f330:	00882023 	subu	a0,a0,t0
    f334:	04800008 	bltz	a0,0xf358
    f338:	8fbf0010 	lw	ra,16(sp)
    f33c:	8caa0034 	lw	t2,52(a1)
    f340:	24040039 	li	a0,57
    f344:	00002821 	move	a1,zero
    f348:	00ca4823 	subu	t1,a2,t2
    f34c:	05200005 	bltz	t1,0xf364
    f350:	24060012 	li	a2,18
    f354:	8fbf0010 	lw	ra,16(sp)
    f358:	24020001 	li	v0,1
    f35c:	03e00008 	jr	ra
    f360:	27bd0018 	addiu	sp,sp,24
    f364:	0e001447 	jal	0x800511c
    f368:	00000000 	nop
    f36c:	8fbf0010 	lw	ra,16(sp)
    f370:	24020001 	li	v0,1
    f374:	03e00008 	jr	ra
    f378:	27bd0018 	addiu	sp,sp,24
    f37c:	27bdffc8 	addiu	sp,sp,-56
    f380:	afb1002c 	sw	s1,44(sp)
    f384:	00a08821 	move	s1,a1
    f388:	afb20030 	sw	s2,48(sp)
    f38c:	27a50010 	addiu	a1,sp,16
    f390:	00809021 	move	s2,a0
    f394:	02202021 	move	a0,s1
    f398:	afbf0034 	sw	ra,52(sp)
    f39c:	0e0013c6 	jal	0x8004f18
    f3a0:	afb00028 	sw	s0,40(sp)
    f3a4:	14400081 	bnez	v0,0xf5ac
    f3a8:	3c0c8008 	lui	t4,0x8008
    f3ac:	918b0011 	lbu	t3,17(t4)
    f3b0:	918a0012 	lbu	t2,18(t4)
    f3b4:	35860080 	ori	a2,t4,0x80
    f3b8:	8cc80054 	lw	t0,84(a2)
    f3bc:	316500ff 	andi	a1,t3,0xff
    f3c0:	314900ff 	andi	t1,t2,0xff
    f3c4:	00a92821 	addu	a1,a1,t1
    f3c8:	00a8382b 	sltu	a3,a1,t0
    f3cc:	14e0004f 	bnez	a3,0xf50c
    f3d0:	8fa30010 	lw	v1,16(sp)
    f3d4:	94df005c 	lhu	ra,92(a2)
    f3d8:	30660004 	andi	a2,v1,0x4
    f3dc:	10c00056 	beqz	a2,0xf538
    f3e0:	33e4ffff 	andi	a0,ra,0xffff
    f3e4:	8fa2001c 	lw	v0,28(sp)
    f3e8:	0082102b 	sltu	v0,a0,v0
    f3ec:	54400005 	bnezl	v0,0xf404
    f3f0:	2c830080 	sltiu	v1,a0,128
    f3f4:	30670004 	andi	a3,v1,0x4
    f3f8:	14e0007e 	bnez	a3,0xf5f4
    f3fc:	24040218 	li	a0,536
    f400:	2c830080 	sltiu	v1,a0,128
    f404:	10600002 	beqz	v1,0xf410
    f408:	00808021 	move	s0,a0
    f40c:	24100080 	li	s0,128
    f410:	0e0012a5 	jal	0x8004a94
    f414:	02402021 	move	a0,s2
    f418:	3c038008 	lui	v1,0x8008
    f41c:	34660080 	ori	a2,v1,0x80
    f420:	24070001 	li	a3,1
    f424:	acc7000c 	sw	a3,12(a2)
    f428:	90c20008 	lbu	v0,8(a2)
    f42c:	00106040 	sll	t4,s0,0x1
    f430:	34670100 	ori	a3,v1,0x100
    f434:	305f007f 	andi	ra,v0,0x7f
    f438:	a0df0008 	sb	ra,8(a2)
    f43c:	8e390004 	lw	t9,4(s1)
    f440:	27380001 	addiu	t8,t9,1
    f444:	acd80030 	sw	t8,48(a2)
    f448:	a4d0005c 	sh	s0,92(a2)
    f44c:	8cce003c 	lw	t6,60(a2)
    f450:	962f000e 	lhu	t7,14(s1)
    f454:	01cf6821 	addu	t5,t6,t7
    f458:	accd0020 	sw	t5,32(a2)
    f45c:	8ccb003c 	lw	t3,60(a2)
    f460:	016c5021 	addu	t2,t3,t4
    f464:	acca001c 	sw	t2,28(a2)
    f468:	8e290004 	lw	t1,4(s1)
    f46c:	ace90000 	sw	t1,0(a3)
    f470:	8e250008 	lw	a1,8(s1)
    f474:	ace50004 	sw	a1,4(a3)
    f478:	8fa80010 	lw	t0,16(sp)
    f47c:	31040008 	andi	a0,t0,0x8
    f480:	5480002f 	bnezl	a0,0xf540
    f484:	93a60020 	lbu	a2,32(sp)
    f488:	a0c0004e 	sb	zero,78(a2)
    f48c:	90c5004e 	lbu	a1,78(a2)
    f490:	2408ffdf 	li	t0,-33
    f494:	3c188008 	lui	t8,0x8008
    f498:	a0e50008 	sb	a1,8(a3)
    f49c:	90c40008 	lbu	a0,8(a2)
    f4a0:	370c0080 	ori	t4,t8,0x80
    f4a4:	24090050 	li	t1,80
    f4a8:	00888024 	and	s0,a0,t0
    f4ac:	a0d00008 	sb	s0,8(a2)
    f4b0:	8e390008 	lw	t9,8(s1)
    f4b4:	ad990038 	sw	t9,56(t4)
    f4b8:	8f0e0014 	lw	t6,20(t8)
    f4bc:	8d8f0030 	lw	t7,48(t4)
    f4c0:	01cf6821 	addu	t5,t6,t7
    f4c4:	ad8d0034 	sw	t5,52(t4)
    f4c8:	918b0000 	lbu	t3,0(t4)
    f4cc:	316a00ff 	andi	t2,t3,0xff
    f4d0:	11490029 	beq	t2,t1,0xf578
    f4d4:	26480100 	addiu	t0,s2,256
    f4d8:	0e0012af 	jal	0x8004abc
    f4dc:	02402021 	move	a0,s2
    f4e0:	24040038 	li	a0,56
    f4e4:	00002821 	move	a1,zero
    f4e8:	0e001447 	jal	0x800511c
    f4ec:	2406000a 	li	a2,10
    f4f0:	8fbf0034 	lw	ra,52(sp)
    f4f4:	8fb20030 	lw	s2,48(sp)
    f4f8:	8fb1002c 	lw	s1,44(sp)
    f4fc:	8fb00028 	lw	s0,40(sp)
    f500:	24020001 	li	v0,1
    f504:	03e00008 	jr	ra
    f508:	27bd0038 	addiu	sp,sp,56
    f50c:	94d8005c 	lhu	t8,92(a2)
    f510:	8cd00054 	lw	s0,84(a2)
    f514:	330effff 	andi	t6,t8,0xffff
    f518:	02057823 	subu	t7,s0,a1
    f51c:	01cf682b 	sltu	t5,t6,t7
    f520:	15a0ffac 	bnez	t5,0xf3d4
    f524:	8fa30010 	lw	v1,16(sp)
    f528:	8cd90054 	lw	t9,84(a2)
    f52c:	30660004 	andi	a2,v1,0x4
    f530:	14c0ffac 	bnez	a2,0xf3e4
    f534:	03252023 	subu	a0,t9,a1
    f538:	0a0014a5 	j	0x8005294
    f53c:	2c820218 	sltiu	v0,a0,536
    f540:	3c188008 	lui	t8,0x8008
    f544:	370c0080 	ori	t4,t8,0x80
    f548:	a0e60008 	sb	a2,8(a3)
    f54c:	8e390008 	lw	t9,8(s1)
    f550:	24090050 	li	t1,80
    f554:	ad990038 	sw	t9,56(t4)
    f558:	8f0e0014 	lw	t6,20(t8)
    f55c:	8d8f0030 	lw	t7,48(t4)
    f560:	01cf6821 	addu	t5,t6,t7
    f564:	ad8d0034 	sw	t5,52(t4)
    f568:	918b0000 	lbu	t3,0(t4)
    f56c:	316a00ff 	andi	t2,t3,0xff
    f570:	1549ffd9 	bne	t2,t1,0xf4d8
    f574:	26480100 	addiu	t0,s2,256
    f578:	2406ff80 	li	a2,-128
    f57c:	01062824 	and	a1,t0,a2
    f580:	3c048000 	lui	a0,0x8000
    f584:	ac850028 	sw	a1,40(a0)
    f588:	8e270008 	lw	a3,8(s1)
    f58c:	3103007f 	andi	v1,t0,0x7f
    f590:	3c10800c 	lui	s0,0x800c
    f594:	0070f821 	addu	ra,v1,s0
    f598:	afe700d0 	sw	a3,208(ra)
    f59c:	8e220008 	lw	v0,8(s1)
    f5a0:	af9f0024 	sw	ra,36(gp)
    f5a4:	0a0014e0 	j	0x8005380
    f5a8:	afe200d4 	sw	v0,212(ra)
    f5ac:	8e230008 	lw	v1,8(s1)
    f5b0:	3c048008 	lui	a0,0x8008
    f5b4:	34820080 	ori	v0,a0,0x80
    f5b8:	ac430054 	sw	v1,84(v0)
    f5bc:	02402021 	move	a0,s2
    f5c0:	0e001436 	jal	0x80050d8
    f5c4:	ac400030 	sw	zero,48(v0)
    f5c8:	24040038 	li	a0,56
    f5cc:	2405008d 	li	a1,141
    f5d0:	0e001447 	jal	0x800511c
    f5d4:	24060012 	li	a2,18
    f5d8:	8fbf0034 	lw	ra,52(sp)
    f5dc:	8fb20030 	lw	s2,48(sp)
    f5e0:	8fb1002c 	lw	s1,44(sp)
    f5e4:	8fb00028 	lw	s0,40(sp)
    f5e8:	24020001 	li	v0,1
    f5ec:	03e00008 	jr	ra
    f5f0:	27bd0038 	addiu	sp,sp,56
    f5f4:	0a0014aa 	j	0x80052a8
    f5f8:	8fa4001c 	lw	a0,28(sp)
    f5fc:	27bdffe8 	addiu	sp,sp,-24
    f600:	afbf0010 	sw	ra,16(sp)
    f604:	90a6000d 	lbu	a2,13(a1)
    f608:	30c70010 	andi	a3,a2,0x10
    f60c:	10e0000c 	beqz	a3,0xf640
    f610:	00804021 	move	t0,a0
    f614:	3c028008 	lui	v0,0x8008
    f618:	8c440004 	lw	a0,4(v0)
    f61c:	8ca30008 	lw	v1,8(a1)
    f620:	10640008 	beq	v1,a0,0xf644
    f624:	30c90004 	andi	t1,a2,0x4
    f628:	30c50004 	andi	a1,a2,0x4
    f62c:	10a0001c 	beqz	a1,0xf6a0
    f630:	8fbf0010 	lw	ra,16(sp)
    f634:	24020001 	li	v0,1
    f638:	03e00008 	jr	ra
    f63c:	27bd0018 	addiu	sp,sp,24
    f640:	30c90004 	andi	t1,a2,0x4
    f644:	11200010 	beqz	t1,0xf688
    f648:	30cb0012 	andi	t3,a2,0x12
    f64c:	10e0fff9 	beqz	a3,0xf634
    f650:	8fbf0010 	lw	ra,16(sp)
    f654:	3c088008 	lui	t0,0x8008
    f658:	8ca70008 	lw	a3,8(a1)
    f65c:	8d060004 	lw	a2,4(t0)
    f660:	14e6fff5 	bne	a3,a2,0xf638
    f664:	24020001 	li	v0,1
    f668:	24040038 	li	a0,56
    f66c:	2405008d 	li	a1,141
    f670:	0e001447 	jal	0x800511c
    f674:	24060012 	li	a2,18
    f678:	8fbf0010 	lw	ra,16(sp)
    f67c:	24020001 	li	v0,1
    f680:	03e00008 	jr	ra
    f684:	27bd0018 	addiu	sp,sp,24
    f688:	240a0012 	li	t2,18
    f68c:	156affe9 	bne	t3,t2,0xf634
    f690:	8fbf0010 	lw	ra,16(sp)
    f694:	01002021 	move	a0,t0
    f698:	0a001489 	j	0x8005224
    f69c:	27bd0018 	addiu	sp,sp,24
    f6a0:	00002021 	move	a0,zero
    f6a4:	0a000cb8 	j	0x80032e0
    f6a8:	27bd0018 	addiu	sp,sp,24
    f6ac:	3c050800 	lui	a1,0x800
    f6b0:	24a55598 	addiu	a1,a1,21912
    f6b4:	3c040800 	lui	a0,0x800
    f6b8:	24847358 	addiu	a0,a0,29528
    f6bc:	3c020800 	lui	v0,0x800
    f6c0:	244255a0 	addiu	v0,v0,21920
    f6c4:	24030006 	li	v1,6
    f6c8:	3c010800 	lui	at,0x800
    f6cc:	ac257ac8 	sw	a1,31432(at)
    f6d0:	3c010800 	lui	at,0x800
    f6d4:	ac247acc 	sw	a0,31436(at)
    f6d8:	3c010800 	lui	at,0x800
    f6dc:	ac227ad0 	sw	v0,31440(at)
    f6e0:	3c010800 	lui	at,0x800
    f6e4:	a0237ad4 	sb	v1,31444(at)
    f6e8:	03e00008 	jr	ra
    f6ec:	00000000 	nop
    f6f0:	03e00008 	jr	ra
    f6f4:	24020001 	li	v0,1
    f6f8:	3c028000 	lui	v0,0x8000
    f6fc:	308800ff 	andi	t0,a0,0xff
    f700:	34470180 	ori	a3,v0,0x180
    f704:	3c068000 	lui	a2,0x8000
    f708:	8cc301b8 	lw	v1,440(a2)
    f70c:	0460fffe 	bltz	v1,0xf708
    f710:	00000000 	nop
    f714:	8cc50128 	lw	a1,296(a2)
    f718:	2418ff80 	li	t8,-128
    f71c:	3c0d800a 	lui	t5,0x800a
    f720:	24af0100 	addiu	t7,a1,256
    f724:	01f87024 	and	t6,t7,t8
    f728:	31ec007f 	andi	t4,t7,0x7f
    f72c:	acce0024 	sw	t6,36(a2)
    f730:	018d2021 	addu	a0,t4,t5
    f734:	ace50000 	sw	a1,0(a3)
    f738:	948b00da 	lhu	t3,218(a0)
    f73c:	35096000 	ori	t1,t0,0x6000
    f740:	24080002 	li	t0,2
    f744:	316affff 	andi	t2,t3,0xffff
    f748:	acea0004 	sw	t2,4(a3)
    f74c:	24020001 	li	v0,1
    f750:	a4e90008 	sh	t1,8(a3)
    f754:	a0e8000b 	sb	t0,11(a3)
    f758:	ace00024 	sw	zero,36(a3)
    f75c:	3c071000 	lui	a3,0x1000
    f760:	acc701b8 	sw	a3,440(a2)
    f764:	af840024 	sw	a0,36(gp)
    f768:	03e00008 	jr	ra
    f76c:	af850054 	sw	a1,84(gp)
    f770:	8c990004 	lw	t9,4(a0)
    f774:	8f8d0024 	lw	t5,36(gp)
    f778:	2409ffbf 	li	t1,-65
    f77c:	0325c023 	subu	t8,t9,a1
    f780:	ac980004 	sw	t8,4(a0)
    f784:	91af00c4 	lbu	t7,196(t5)
    f788:	2403ffef 	li	v1,-17
    f78c:	31ee007f 	andi	t6,t7,0x7f
    f790:	a1ae00c4 	sb	t6,196(t5)
    f794:	8c8c0020 	lw	t4,32(a0)
    f798:	938b0030 	lbu	t3,48(gp)
    f79c:	8f860024 	lw	a2,36(gp)
    f7a0:	358a0002 	ori	t2,t4,0x2
    f7a4:	af8b0048 	sw	t3,72(gp)
    f7a8:	a7800044 	sh	zero,68(gp)
    f7ac:	ac8a0020 	sw	t2,32(a0)
    f7b0:	a4c000ac 	sh	zero,172(a2)
    f7b4:	90c800c4 	lbu	t0,196(a2)
    f7b8:	01093824 	and	a3,t0,t1
    f7bc:	a0c700c4 	sb	a3,196(a2)
    f7c0:	8f840024 	lw	a0,36(gp)
    f7c4:	ac8000dc 	sw	zero,220(a0)
    f7c8:	908500c4 	lbu	a1,196(a0)
    f7cc:	00a31024 	and	v0,a1,v1
    f7d0:	03e00008 	jr	ra
    f7d4:	a08200c4 	sb	v0,196(a0)
    f7d8:	3c028000 	lui	v0,0x8000
    f7dc:	34450180 	ori	a1,v0,0x180
    f7e0:	3c048000 	lui	a0,0x8000
    f7e4:	8c8301b8 	lw	v1,440(a0)
    f7e8:	0460fffe 	bltz	v1,0xf7e4
    f7ec:	8f890054 	lw	t1,84(gp)
    f7f0:	24076083 	li	a3,24707
    f7f4:	24060002 	li	a2,2
    f7f8:	aca90000 	sw	t1,0(a1)
    f7fc:	8c880124 	lw	t0,292(a0)
    f800:	aca80004 	sw	t0,4(a1)
    f804:	a4a70008 	sh	a3,8(a1)
    f808:	a0a6000b 	sb	a2,11(a1)
    f80c:	3c051000 	lui	a1,0x1000
    f810:	03e00008 	jr	ra
    f814:	ac8501b8 	sw	a1,440(a0)
    f818:	93880030 	lbu	t0,48(gp)
    f81c:	8f890048 	lw	t1,72(gp)
    f820:	8f820024 	lw	v0,36(gp)
    f824:	30c600ff 	andi	a2,a2,0xff
    f828:	01093823 	subu	a3,t0,t1
    f82c:	30e900ff 	andi	t1,a3,0xff
    f830:	01221821 	addu	v1,t1,v0
    f834:	30a500ff 	andi	a1,a1,0xff
    f838:	24680078 	addiu	t0,v1,120
    f83c:	10c00002 	beqz	a2,0xf848
    f840:	01243821 	addu	a3,t1,a0
    f844:	00803821 	move	a3,a0
    f848:	30e40003 	andi	a0,a3,0x3
    f84c:	14800003 	bnez	a0,0xf85c
    f850:	30aa0003 	andi	t2,a1,0x3
    f854:	1140000d 	beqz	t2,0xf88c
    f858:	312b0003 	andi	t3,t1,0x3
    f85c:	10a00009 	beqz	a1,0xf884
    f860:	00001021 	move	v0,zero
    f864:	90ed0000 	lbu	t5,0(a3)
    f868:	244e0001 	addiu	t6,v0,1
    f86c:	31c200ff 	andi	v0,t6,0xff
    f870:	0045602b 	sltu	t4,v0,a1
    f874:	a10d0000 	sb	t5,0(t0)
    f878:	24e70001 	addiu	a3,a3,1
    f87c:	1580fff9 	bnez	t4,0xf864
    f880:	25080001 	addiu	t0,t0,1
    f884:	03e00008 	jr	ra
    f888:	00000000 	nop
    f88c:	1560fff3 	bnez	t3,0xf85c
    f890:	00000000 	nop
    f894:	10a0fffb 	beqz	a1,0xf884
    f898:	00001021 	move	v0,zero
    f89c:	8cf80000 	lw	t8,0(a3)
    f8a0:	24590004 	addiu	t9,v0,4
    f8a4:	332200ff 	andi	v0,t9,0xff
    f8a8:	0045782b 	sltu	t7,v0,a1
    f8ac:	ad180000 	sw	t8,0(t0)
    f8b0:	24e70004 	addiu	a3,a3,4
    f8b4:	15e0fff9 	bnez	t7,0xf89c
    f8b8:	25080004 	addiu	t0,t0,4
    f8bc:	03e00008 	jr	ra
    f8c0:	00000000 	nop
    f8c4:	93850030 	lbu	a1,48(gp)
    f8c8:	93880040 	lbu	t0,64(gp)
    f8cc:	8f870048 	lw	a3,72(gp)
    f8d0:	00043200 	sll	a2,a0,0x8
    f8d4:	3103007f 	andi	v1,t0,0x7f
    f8d8:	00e5102b 	sltu	v0,a3,a1
    f8dc:	30c47f00 	andi	a0,a2,0x7f00
    f8e0:	1040000f 	beqz	v0,0xf920
    f8e4:	00642825 	or	a1,v1,a0
    f8e8:	8f840024 	lw	a0,36(gp)
    f8ec:	3c098000 	lui	t1,0x8000
    f8f0:	8c8a00dc 	lw	t2,220(a0)
    f8f4:	ad2a00a4 	sw	t2,164(t1)
    f8f8:	3c038000 	lui	v1,0x8000
    f8fc:	00a35825 	or	t3,a1,v1
    f900:	ac6b00a0 	sw	t3,160(v1)
    f904:	8c6c00a0 	lw	t4,160(v1)
    f908:	0580fffe 	bltz	t4,0xf904
    f90c:	00000000 	nop
    f910:	8c6d00ac 	lw	t5,172(v1)
    f914:	ac8d00dc 	sw	t5,220(a0)
    f918:	03e00008 	jr	ra
    f91c:	8c6200a8 	lw	v0,168(v1)
    f920:	0a0015e8 	j	0x80057a0
    f924:	8f840024 	lw	a0,36(gp)
    f928:	93880041 	lbu	t0,65(gp)
    f92c:	3c028000 	lui	v0,0x8000
    f930:	00805021 	move	t2,a0
    f934:	310300fe 	andi	v1,t0,0xfe
    f938:	a3830041 	sb	v1,65(gp)
    f93c:	30abffff 	andi	t3,a1,0xffff
    f940:	30cc00ff 	andi	t4,a2,0xff
    f944:	30e7ffff 	andi	a3,a3,0xffff
    f948:	34480180 	ori	t0,v0,0x180
    f94c:	3c098000 	lui	t1,0x8000
    f950:	8d2401b8 	lw	a0,440(t1)
    f954:	0480fffe 	bltz	a0,0xf950
    f958:	8f8d0054 	lw	t5,84(gp)
    f95c:	24180016 	li	t8,22
    f960:	ad0d0000 	sw	t5,0(t0)
    f964:	8d220124 	lw	v0,292(t1)
    f968:	8f8d0024 	lw	t5,36(gp)
    f96c:	ad020004 	sw	v0,4(t0)
    f970:	8d590020 	lw	t9,32(t2)
    f974:	a5070008 	sh	a3,8(t0)
    f978:	240201b4 	li	v0,436
    f97c:	a119000a 	sb	t9,10(t0)
    f980:	a118000b 	sb	t8,11(t0)
    f984:	952f0120 	lhu	t7,288(t1)
    f988:	8d4e0008 	lw	t6,8(t2)
    f98c:	8d470004 	lw	a3,4(t2)
    f990:	97830044 	lhu	v1,68(gp)
    f994:	8d590024 	lw	t9,36(t2)
    f998:	01cf3021 	addu	a2,t6,t7
    f99c:	00c72821 	addu	a1,a2,a3
    f9a0:	00a32023 	subu	a0,a1,v1
    f9a4:	2418ffff 	li	t8,-1
    f9a8:	a504000c 	sh	a0,12(t0)
    f9ac:	a50b000e 	sh	t3,14(t0)
    f9b0:	a5020010 	sh	v0,16(t0)
    f9b4:	a50c0012 	sh	t4,18(t0)
    f9b8:	ad190018 	sw	t9,24(t0)
    f9bc:	ad180024 	sw	t8,36(t0)
    f9c0:	95af00d8 	lhu	t7,216(t5)
    f9c4:	3c0b1000 	lui	t3,0x1000
    f9c8:	2407fff7 	li	a3,-9
    f9cc:	31eeffff 	andi	t6,t7,0xffff
    f9d0:	ad0e0028 	sw	t6,40(t0)
    f9d4:	8dac0074 	lw	t4,116(t5)
    f9d8:	ad0c002c 	sw	t4,44(t0)
    f9dc:	ad2b01b8 	sw	t3,440(t1)
    f9e0:	8d460020 	lw	a2,32(t2)
    f9e4:	00c72824 	and	a1,a2,a3
    f9e8:	03e00008 	jr	ra
    f9ec:	ad450020 	sw	a1,32(t2)
    f9f0:	8f880024 	lw	t0,36(gp)
    f9f4:	00805821 	move	t3,a0
    f9f8:	30e7ffff 	andi	a3,a3,0xffff
    f9fc:	910900c6 	lbu	t1,198(t0)
    fa00:	3c028000 	lui	v0,0x8000
    fa04:	30a5ffff 	andi	a1,a1,0xffff
    fa08:	312400ff 	andi	a0,t1,0xff
    fa0c:	00041a00 	sll	v1,a0,0x8
    fa10:	00675025 	or	t2,v1,a3
    fa14:	30c600ff 	andi	a2,a2,0xff
    fa18:	34470180 	ori	a3,v0,0x180
    fa1c:	3c098000 	lui	t1,0x8000
    fa20:	8d2c01b8 	lw	t4,440(t1)
    fa24:	0580fffe 	bltz	t4,0xfa20
    fa28:	8f820054 	lw	v0,84(gp)
    fa2c:	240f0017 	li	t7,23
    fa30:	ace20000 	sw	v0,0(a3)
    fa34:	8d390124 	lw	t9,292(t1)
    fa38:	acf90004 	sw	t9,4(a3)
    fa3c:	8d780020 	lw	t8,32(t3)
    fa40:	a4ea0008 	sh	t2,8(a3)
    fa44:	241901b4 	li	t9,436
    fa48:	a0f8000a 	sb	t8,10(a3)
    fa4c:	a0ef000b 	sb	t7,11(a3)
    fa50:	95230120 	lhu	v1,288(t1)
    fa54:	8d6e0008 	lw	t6,8(t3)
    fa58:	8d6d0004 	lw	t5,4(t3)
    fa5c:	97840044 	lhu	a0,68(gp)
    fa60:	01c35021 	addu	t2,t6,v1
    fa64:	014d6021 	addu	t4,t2,t5
    fa68:	01841023 	subu	v0,t4,a0
    fa6c:	a4e2000c 	sh	v0,12(a3)
    fa70:	a4e5000e 	sh	a1,14(a3)
    fa74:	a4f90010 	sh	t9,16(a3)
    fa78:	a4e60012 	sh	a2,18(a3)
    fa7c:	ace00014 	sw	zero,20(a3)
    fa80:	8d780024 	lw	t8,36(t3)
    fa84:	240dffff 	li	t5,-1
    fa88:	acf80018 	sw	t8,24(a3)
    fa8c:	8d0f006c 	lw	t7,108(t0)
    fa90:	acef001c 	sw	t7,28(a3)
    fa94:	8d0e0068 	lw	t6,104(t0)
    fa98:	3c0f1000 	lui	t7,0x1000
    fa9c:	acee0020 	sw	t6,32(a3)
    faa0:	aced0024 	sw	t5,36(a3)
    faa4:	950a00ae 	lhu	t2,174(t0)
    faa8:	240dfff7 	li	t5,-9
    faac:	3146ffff 	andi	a2,t2,0xffff
    fab0:	ace60028 	sw	a2,40(a3)
    fab4:	950c0070 	lhu	t4,112(t0)
    fab8:	95040072 	lhu	a0,114(t0)
    fabc:	31837fff 	andi	v1,t4,0x7fff
    fac0:	0003ca00 	sll	t9,v1,0x8
    fac4:	3082ffff 	andi	v0,a0,0xffff
    fac8:	0322c021 	addu	t8,t9,v0
    facc:	acf8002c 	sw	t8,44(a3)
    fad0:	ad2f01b8 	sw	t7,440(t1)
    fad4:	950e0072 	lhu	t6,114(t0)
    fad8:	8d6a0020 	lw	t2,32(t3)
    fadc:	00ae3021 	addu	a2,a1,t6
    fae0:	014d2824 	and	a1,t2,t5
    fae4:	a5060072 	sh	a2,114(t0)
    fae8:	03e00008 	jr	ra
    faec:	ad650020 	sw	a1,32(t3)
    faf0:	3c028000 	lui	v0,0x8000
    faf4:	34460180 	ori	a2,v0,0x180
    faf8:	3c058000 	lui	a1,0x8000
    fafc:	8ca301b8 	lw	v1,440(a1)
    fb00:	0460fffe 	bltz	v1,0xfafc
    fb04:	24090018 	li	t1,24
    fb08:	acc40000 	sw	a0,0(a2)
    fb0c:	a0c9000b 	sb	t1,11(a2)
    fb10:	8f880024 	lw	t0,36(gp)
    fb14:	3c041000 	lui	a0,0x1000
    fb18:	950700ae 	lhu	a3,174(t0)
    fb1c:	a4c70010 	sh	a3,16(a2)
    fb20:	acc00030 	sw	zero,48(a2)
    fb24:	03e00008 	jr	ra
    fb28:	aca401b8 	sw	a0,440(a1)
    fb2c:	3c028000 	lui	v0,0x8000
    fb30:	34450180 	ori	a1,v0,0x180
    fb34:	3c048000 	lui	a0,0x8000
    fb38:	8c8301b8 	lw	v1,440(a0)
    fb3c:	0460fffe 	bltz	v1,0xfb38
    fb40:	8f8a002c 	lw	t2,44(gp)
    fb44:	24060019 	li	a2,25
    fb48:	9549001c 	lhu	t1,28(t2)
    fb4c:	3128ffff 	andi	t0,t1,0xffff
    fb50:	000839c0 	sll	a3,t0,0x7
    fb54:	aca70000 	sw	a3,0(a1)
    fb58:	a0a6000b 	sb	a2,11(a1)
    fb5c:	3c051000 	lui	a1,0x1000
    fb60:	03e00008 	jr	ra
    fb64:	ac8501b8 	sw	a1,440(a0)
    fb68:	8f870034 	lw	a3,52(gp)
    fb6c:	00804021 	move	t0,a0
    fb70:	30c400ff 	andi	a0,a2,0xff
    fb74:	3c068000 	lui	a2,0x8000
    fb78:	8cc201b8 	lw	v0,440(a2)
    fb7c:	0440fffe 	bltz	v0,0xfb78
    fb80:	8f890054 	lw	t1,84(gp)
    fb84:	93830050 	lbu	v1,80(gp)
    fb88:	34996000 	ori	t9,a0,0x6000
    fb8c:	aca90000 	sw	t1,0(a1)
    fb90:	a0a30005 	sb	v1,5(a1)
    fb94:	8ce20010 	lw	v0,16(a3)
    fb98:	240f0002 	li	t7,2
    fb9c:	2403fff7 	li	v1,-9
    fba0:	a4a20006 	sh	v0,6(a1)
    fba4:	a4b90008 	sh	t9,8(a1)
    fba8:	8d180020 	lw	t8,32(t0)
    fbac:	a0b8000a 	sb	t8,10(a1)
    fbb0:	a0af000b 	sb	t7,11(a1)
    fbb4:	8cee0000 	lw	t6,0(a3)
    fbb8:	acae0010 	sw	t6,16(a1)
    fbbc:	8ced0004 	lw	t5,4(a3)
    fbc0:	acad0014 	sw	t5,20(a1)
    fbc4:	8cec001c 	lw	t4,28(a3)
    fbc8:	acac0024 	sw	t4,36(a1)
    fbcc:	8ceb0020 	lw	t3,32(a3)
    fbd0:	acab0028 	sw	t3,40(a1)
    fbd4:	8cea002c 	lw	t2,44(a3)
    fbd8:	3c071000 	lui	a3,0x1000
    fbdc:	acaa002c 	sw	t2,44(a1)
    fbe0:	8d090024 	lw	t1,36(t0)
    fbe4:	aca90018 	sw	t1,24(a1)
    fbe8:	acc701b8 	sw	a3,440(a2)
    fbec:	8d050020 	lw	a1,32(t0)
    fbf0:	00a32024 	and	a0,a1,v1
    fbf4:	03e00008 	jr	ra
    fbf8:	ad040020 	sw	a0,32(t0)
    fbfc:	93850050 	lbu	a1,80(gp)
    fc00:	24030001 	li	v1,1
    fc04:	27bdffe8 	addiu	sp,sp,-24
    fc08:	00a33004 	sllv	a2,v1,a1
    fc0c:	2ca20020 	sltiu	v0,a1,32
    fc10:	afb00010 	sw	s0,16(sp)
    fc14:	afbf0014 	sw	ra,20(sp)
    fc18:	00c01821 	move	v1,a2
    fc1c:	10400013 	beqz	v0,0xfc6c
    fc20:	2410fffe 	li	s0,-2
    fc24:	3c070800 	lui	a3,0x800
    fc28:	8ce73190 	lw	a3,12688(a3)
    fc2c:	00e61024 	and	v0,a3,a2
    fc30:	3c088000 	lui	t0,0x8000
    fc34:	35050180 	ori	a1,t0,0x180
    fc38:	14400005 	bnez	v0,0xfc50
    fc3c:	24060084 	li	a2,132
    fc40:	8f890024 	lw	t1,36(gp)
    fc44:	240a0004 	li	t2,4
    fc48:	2410ffff 	li	s0,-1
    fc4c:	a12a00ec 	sb	t2,236(t1)
    fc50:	0e001684 	jal	0x8005a10
    fc54:	00000000 	nop
    fc58:	02001021 	move	v0,s0
    fc5c:	8fbf0014 	lw	ra,20(sp)
    fc60:	8fb00010 	lw	s0,16(sp)
    fc64:	03e00008 	jr	ra
    fc68:	27bd0018 	addiu	sp,sp,24
    fc6c:	3c060800 	lui	a2,0x800
    fc70:	8cc63194 	lw	a2,12692(a2)
    fc74:	0a0016b6 	j	0x8005ad8
    fc78:	00c31024 	and	v0,a2,v1
    fc7c:	8f87002c 	lw	a3,44(gp)
    fc80:	27bdffe0 	addiu	sp,sp,-32
    fc84:	afb20018 	sw	s2,24(sp)
    fc88:	afb10014 	sw	s1,20(sp)
    fc8c:	afb00010 	sw	s0,16(sp)
    fc90:	afbf001c 	sw	ra,28(sp)
    fc94:	30d000ff 	andi	s0,a2,0xff
    fc98:	90e6000d 	lbu	a2,13(a3)
    fc9c:	00a08821 	move	s1,a1
    fca0:	00809021 	move	s2,a0
    fca4:	30c5007f 	andi	a1,a2,0x7f
    fca8:	a0e5000d 	sb	a1,13(a3)
    fcac:	8f850024 	lw	a1,36(gp)
    fcb0:	8e230018 	lw	v1,24(s1)
    fcb4:	8ca200c0 	lw	v0,192(a1)
    fcb8:	1062002e 	beq	v1,v0,0xfd74
    fcbc:	240a000e 	li	t2,14
    fcc0:	0e0016a9 	jal	0x8005aa4
    fcc4:	a38a0050 	sb	t2,80(gp)
    fcc8:	2409ffff 	li	t1,-1
    fccc:	10490022 	beq	v0,t1,0xfd58
    fcd0:	2404ffff 	li	a0,-1
    fcd4:	52000020 	beqzl	s0,0xfd58
    fcd8:	00002021 	move	a0,zero
    fcdc:	8e260000 	lw	a2,0(s1)
    fce0:	3c0c0010 	lui	t4,0x10
    fce4:	00cc5824 	and	t3,a2,t4
    fce8:	15600039 	bnez	t3,0xfdd0
    fcec:	3c0e0008 	lui	t6,0x8
    fcf0:	00ce6824 	and	t5,a2,t6
    fcf4:	55a0003f 	bnezl	t5,0xfdf4
    fcf8:	02402021 	move	a0,s2
    fcfc:	3c180002 	lui	t8,0x2
    fd00:	00d88024 	and	s0,a2,t8
    fd04:	1200001f 	beqz	s0,0xfd84
    fd08:	3c0a0004 	lui	t2,0x4
    fd0c:	8f87002c 	lw	a3,44(gp)
    fd10:	8ce20014 	lw	v0,20(a3)
    fd14:	8ce30010 	lw	v1,16(a3)
    fd18:	8ce50014 	lw	a1,20(a3)
    fd1c:	0043f823 	subu	ra,v0,v1
    fd20:	03e5c82b 	sltu	t9,ra,a1
    fd24:	13200005 	beqz	t9,0xfd3c
    fd28:	02402021 	move	a0,s2
    fd2c:	8e24002c 	lw	a0,44(s1)
    fd30:	8cf10010 	lw	s1,16(a3)
    fd34:	10910031 	beq	a0,s1,0xfdfc
    fd38:	02402021 	move	a0,s2
    fd3c:	24020012 	li	v0,18
    fd40:	a3820050 	sb	v0,80(gp)
    fd44:	0e0016a9 	jal	0x8005aa4
    fd48:	2412ffff 	li	s2,-1
    fd4c:	10520002 	beq	v0,s2,0xfd58
    fd50:	2404ffff 	li	a0,-1
    fd54:	00002021 	move	a0,zero
    fd58:	8fbf001c 	lw	ra,28(sp)
    fd5c:	8fb20018 	lw	s2,24(sp)
    fd60:	8fb10014 	lw	s1,20(sp)
    fd64:	8fb00010 	lw	s0,16(sp)
    fd68:	00801021 	move	v0,a0
    fd6c:	03e00008 	jr	ra
    fd70:	27bd0020 	addiu	sp,sp,32
    fd74:	90a800c4 	lbu	t0,196(a1)
    fd78:	35040020 	ori	a0,t0,0x20
    fd7c:	0a0016df 	j	0x8005b7c
    fd80:	a0a400c4 	sb	a0,196(a1)
    fd84:	00ca4824 	and	t1,a2,t2
    fd88:	1520000b 	bnez	t1,0xfdb8
    fd8c:	8f8b002c 	lw	t3,44(gp)
    fd90:	8f8d002c 	lw	t5,44(gp)
    fd94:	8dac0010 	lw	t4,16(t5)
    fd98:	1580000b 	bnez	t4,0xfdc8
    fd9c:	02402021 	move	a0,s2
    fda0:	8e2e002c 	lw	t6,44(s1)
    fda4:	51c0ffec 	beqzl	t6,0xfd58
    fda8:	00002021 	move	a0,zero
    fdac:	02402021 	move	a0,s2
    fdb0:	0a0016fa 	j	0x8005be8
    fdb4:	24020017 	li	v0,23
    fdb8:	8d660010 	lw	a2,16(t3)
    fdbc:	50c0ffe6 	beqzl	a2,0xfd58
    fdc0:	00002021 	move	a0,zero
    fdc4:	02402021 	move	a0,s2
    fdc8:	0a0016fa 	j	0x8005be8
    fdcc:	24020011 	li	v0,17
    fdd0:	02402021 	move	a0,s2
    fdd4:	24020015 	li	v0,21
    fdd8:	0e0016a9 	jal	0x8005aa4
    fddc:	a3820050 	sb	v0,80(gp)
    fde0:	240fffff 	li	t7,-1
    fde4:	104fffdc 	beq	v0,t7,0xfd58
    fde8:	2404ffff 	li	a0,-1
    fdec:	0a0016e9 	j	0x8005ba4
    fdf0:	8e260000 	lw	a2,0(s1)
    fdf4:	0a001720 	j	0x8005c80
    fdf8:	24020014 	li	v0,20
    fdfc:	3c080004 	lui	t0,0x4
    fe00:	00c83824 	and	a3,a2,t0
    fe04:	50e0ffd4 	beqzl	a3,0xfd58
    fe08:	00002021 	move	a0,zero
    fe0c:	02402021 	move	a0,s2
    fe10:	0a0016fa 	j	0x8005be8
    fe14:	24020013 	li	v0,19
    fe18:	8f860024 	lw	a2,36(gp)
    fe1c:	27bdffe0 	addiu	sp,sp,-32
    fe20:	afb10014 	sw	s1,20(sp)
    fe24:	afbf0018 	sw	ra,24(sp)
    fe28:	afb00010 	sw	s0,16(sp)
    fe2c:	90c300c4 	lbu	v1,196(a2)
    fe30:	30a500ff 	andi	a1,a1,0xff
    fe34:	30620020 	andi	v0,v1,0x20
    fe38:	10400008 	beqz	v0,0xfe5c
    fe3c:	00808821 	move	s1,a0
    fe40:	8ccb00c0 	lw	t3,192(a2)
    fe44:	2409ffdf 	li	t1,-33
    fe48:	256a0001 	addiu	t2,t3,1
    fe4c:	acca00c0 	sw	t2,192(a2)
    fe50:	90c800c4 	lbu	t0,196(a2)
    fe54:	01093824 	and	a3,t0,t1
    fe58:	a0c700c4 	sb	a3,196(a2)
    fe5c:	14a00040 	bnez	a1,0xff60
    fe60:	3c0c8000 	lui	t4,0x8000
    fe64:	8f840024 	lw	a0,36(gp)
    fe68:	908700c4 	lbu	a3,196(a0)
    fe6c:	2418ffbf 	li	t8,-65
    fe70:	2406ffef 	li	a2,-17
    fe74:	30e3007f 	andi	v1,a3,0x7f
    fe78:	a08300c4 	sb	v1,196(a0)
    fe7c:	979f0044 	lhu	ra,68(gp)
    fe80:	8f820048 	lw	v0,72(gp)
    fe84:	8f8d0024 	lw	t5,36(gp)
    fe88:	03e2c823 	subu	t9,ra,v0
    fe8c:	a7990044 	sh	t9,68(gp)
    fe90:	a5a000ac 	sh	zero,172(t5)
    fe94:	91af00c4 	lbu	t7,196(t5)
    fe98:	01f87024 	and	t6,t7,t8
    fe9c:	a1ae00c4 	sb	t6,196(t5)
    fea0:	8f8c0024 	lw	t4,36(gp)
    fea4:	a18000c7 	sb	zero,199(t4)
    fea8:	8f8a0024 	lw	t2,36(gp)
    feac:	a5400072 	sh	zero,114(t2)
    feb0:	ad4000dc 	sw	zero,220(t2)
    feb4:	914500c4 	lbu	a1,196(t2)
    feb8:	00a65824 	and	t3,a1,a2
    febc:	a14b00c4 	sb	t3,196(t2)
    fec0:	8f900020 	lw	s0,32(gp)
    fec4:	8f840048 	lw	a0,72(gp)
    fec8:	97860044 	lhu	a2,68(gp)
    fecc:	02042821 	addu	a1,s0,a0
    fed0:	10c0000f 	beqz	a2,0xff10
    fed4:	af850020 	sw	a1,32(gp)
    fed8:	a3800040 	sb	zero,64(gp)
    fedc:	3c078000 	lui	a3,0x8000
    fee0:	8e2c0008 	lw	t4,8(s1)
    fee4:	94ed0120 	lhu	t5,288(a3)
    fee8:	8e2b0004 	lw	t3,4(s1)
    feec:	018d5021 	addu	t2,t4,t5
    fef0:	014b8021 	addu	s0,t2,t3
    fef4:	02062023 	subu	a0,s0,a2
    fef8:	3086ffff 	andi	a2,a0,0xffff
    fefc:	30c8000f 	andi	t0,a2,0xf
    ff00:	39090001 	xori	t1,t0,0x1
    ff04:	31310001 	andi	s1,t1,0x1
    ff08:	16200009 	bnez	s1,0xff30
    ff0c:	a3880040 	sb	t0,64(gp)
    ff10:	93860030 	lbu	a2,48(gp)
    ff14:	8fbf0018 	lw	ra,24(sp)
    ff18:	8fb10014 	lw	s1,20(sp)
    ff1c:	8fb00010 	lw	s0,16(sp)
    ff20:	27bd0020 	addiu	sp,sp,32
    ff24:	af85004c 	sw	a1,76(gp)
    ff28:	03e00008 	jr	ra
    ff2c:	af860048 	sw	a2,72(gp)
    ff30:	00c87023 	subu	t6,a2,t0
    ff34:	8fbf0018 	lw	ra,24(sp)
    ff38:	93860030 	lbu	a2,48(gp)
    ff3c:	8fb10014 	lw	s1,20(sp)
    ff40:	8fb00010 	lw	s0,16(sp)
    ff44:	34ef0c00 	ori	t7,a3,0xc00
    ff48:	010f2821 	addu	a1,t0,t7
    ff4c:	27bd0020 	addiu	sp,sp,32
    ff50:	acee0084 	sw	t6,132(a3)
    ff54:	af85004c 	sw	a1,76(gp)
    ff58:	03e00008 	jr	ra
    ff5c:	af860048 	sw	a2,72(gp)
    ff60:	35900180 	ori	s0,t4,0x180
    ff64:	02002821 	move	a1,s0
    ff68:	0e001684 	jal	0x8005a10
    ff6c:	24060082 	li	a2,130
    ff70:	8f840024 	lw	a0,36(gp)
    ff74:	908600c4 	lbu	a2,196(a0)
    ff78:	30c50040 	andi	a1,a2,0x40
    ff7c:	50a0ffba 	beqzl	a1,0xfe68
    ff80:	a3800050 	sb	zero,80(gp)
    ff84:	8f850034 	lw	a1,52(gp)
    ff88:	3c068000 	lui	a2,0x8000
    ff8c:	8ccd01b8 	lw	t5,440(a2)
    ff90:	05a0fffe 	bltz	t5,0xff8c
    ff94:	8f890054 	lw	t1,84(gp)
    ff98:	24086082 	li	t0,24706
    ff9c:	24070002 	li	a3,2
    ffa0:	ae090000 	sw	t1,0(s0)
    ffa4:	a6080008 	sh	t0,8(s0)
    ffa8:	a207000b 	sb	a3,11(s0)
    ffac:	8ca30008 	lw	v1,8(a1)
    ffb0:	3c0e1000 	lui	t6,0x1000
    ffb4:	ae030010 	sw	v1,16(s0)
    ffb8:	8ca2000c 	lw	v0,12(a1)
    ffbc:	ae020014 	sw	v0,20(s0)
    ffc0:	8cbf0014 	lw	ra,20(a1)
    ffc4:	ae1f0018 	sw	ra,24(s0)
    ffc8:	8cb90018 	lw	t9,24(a1)
    ffcc:	ae190024 	sw	t9,36(s0)
    ffd0:	8cb80024 	lw	t8,36(a1)
    ffd4:	ae180028 	sw	t8,40(s0)
    ffd8:	8caf0028 	lw	t7,40(a1)
    ffdc:	ae0f002c 	sw	t7,44(s0)
    ffe0:	acce01b8 	sw	t6,440(a2)
    ffe4:	0a001744 	j	0x8005d10
    ffe8:	a3800050 	sb	zero,80(gp)
    ffec:	8f8a0024 	lw	t2,36(gp)
    fff0:	27bdffe0 	addiu	sp,sp,-32
    fff4:	afb10014 	sw	s1,20(sp)
    fff8:	afb00010 	sw	s0,16(sp)
    fffc:	8f880048 	lw	t0,72(gp)
   10000:	afbf0018 	sw	ra,24(sp)
   10004:	93890028 	lbu	t1,40(gp)
   10008:	954200ac 	lhu	v0,172(t2)
   1000c:	30d100ff 	andi	s1,a2,0xff
   10010:	0109182b 	sltu	v1,t0,t1
   10014:	00808021 	move	s0,a0
   10018:	30ac00ff 	andi	t4,a1,0xff
   1001c:	3047ffff 	andi	a3,v0,0xffff
   10020:	00005821 	move	t3,zero
   10024:	14600003 	bnez	v1,0x10034
   10028:	310600ff 	andi	a2,t0,0xff
   1002c:	01203021 	move	a2,t1
   10030:	01095823 	subu	t3,t0,t1
   10034:	97830044 	lhu	v1,68(gp)
   10038:	0068202b 	sltu	a0,v1,t0
   1003c:	1480001b 	bnez	a0,0x100ac
   10040:	00000000 	nop
   10044:	10680043 	beq	v1,t0,0x10154
   10048:	240a0001 	li	t2,1
   1004c:	118a0048 	beq	t4,t2,0x10170
   10050:	34e70880 	ori	a3,a3,0x880
   10054:	3165ffff 	andi	a1,t3,0xffff
   10058:	0e001626 	jal	0x8005898
   1005c:	02002021 	move	a0,s0
   10060:	0e001666 	jal	0x8005998
   10064:	8f840054 	lw	a0,84(gp)
   10068:	8f840024 	lw	a0,36(gp)
   1006c:	948d0070 	lhu	t5,112(a0)
   10070:	25ac0001 	addiu	t4,t5,1
   10074:	a48c0070 	sh	t4,112(a0)
   10078:	948b0070 	lhu	t3,112(a0)
   1007c:	3c060800 	lui	a2,0x800
   10080:	8cc63188 	lw	a2,12680(a2)
   10084:	31677fff 	andi	a3,t3,0x7fff
   10088:	10e6004f 	beq	a3,a2,0x101c8
   1008c:	00000000 	nop
   10090:	02002021 	move	a0,s0
   10094:	02202821 	move	a1,s1
   10098:	8fbf0018 	lw	ra,24(sp)
   1009c:	8fb10014 	lw	s1,20(sp)
   100a0:	8fb00010 	lw	s0,16(sp)
   100a4:	0a001730 	j	0x8005cc0
   100a8:	27bd0020 	addiu	sp,sp,32
   100ac:	914400c4 	lbu	a0,196(t2)
   100b0:	2406ff80 	li	a2,-128
   100b4:	00868825 	or	s1,a0,a2
   100b8:	a15100c4 	sb	s1,196(t2)
   100bc:	97840044 	lhu	a0,68(gp)
   100c0:	3088ffff 	andi	t0,a0,0xffff
   100c4:	1100001c 	beqz	t0,0x10138
   100c8:	93890028 	lbu	t1,40(gp)
   100cc:	8f8e0024 	lw	t6,36(gp)
   100d0:	2419efff 	li	t9,-4097
   100d4:	008bf823 	subu	ra,a0,t3
   100d8:	95d800ac 	lhu	t8,172(t6)
   100dc:	0168682b 	sltu	t5,t3,t0
   100e0:	33e900ff 	andi	t1,ra,0xff
   100e4:	03197824 	and	t7,t8,t9
   100e8:	a5cf00ac 	sh	t7,172(t6)
   100ec:	51a0002a 	beqzl	t5,0x10198
   100f0:	01005821 	move	t3,t0
   100f4:	8e050020 	lw	a1,32(s0)
   100f8:	2408fffb 	li	t0,-5
   100fc:	24030001 	li	v1,1
   10100:	00a81024 	and	v0,a1,t0
   10104:	ae020020 	sw	v0,32(s0)
   10108:	11830025 	beq	t4,v1,0x101a0
   1010c:	34e78000 	ori	a3,a3,0x8000
   10110:	02002021 	move	a0,s0
   10114:	3165ffff 	andi	a1,t3,0xffff
   10118:	0e001626 	jal	0x8005898
   1011c:	01203021 	move	a2,t1
   10120:	978b0044 	lhu	t3,68(gp)
   10124:	8f870048 	lw	a3,72(gp)
   10128:	a7800044 	sh	zero,68(gp)
   1012c:	00eb8023 	subu	s0,a3,t3
   10130:	af900048 	sw	s0,72(gp)
   10134:	93890028 	lbu	t1,40(gp)
   10138:	8f8c0024 	lw	t4,36(gp)
   1013c:	8fbf0018 	lw	ra,24(sp)
   10140:	8fb10014 	lw	s1,20(sp)
   10144:	8fb00010 	lw	s0,16(sp)
   10148:	27bd0020 	addiu	sp,sp,32
   1014c:	03e00008 	jr	ra
   10150:	a18900c7 	sb	t1,199(t4)
   10154:	8e080020 	lw	t0,32(s0)
   10158:	2409fffb 	li	t1,-5
   1015c:	34e78000 	ori	a3,a3,0x8000
   10160:	01092824 	and	a1,t0,t1
   10164:	ae050020 	sw	a1,32(s0)
   10168:	158affba 	bne	t4,t2,0x10054
   1016c:	34e70880 	ori	a3,a3,0x880
   10170:	02002021 	move	a0,s0
   10174:	0e0015f4 	jal	0x80057d0
   10178:	3165ffff 	andi	a1,t3,0xffff
   1017c:	02002021 	move	a0,s0
   10180:	02202821 	move	a1,s1
   10184:	8fbf0018 	lw	ra,24(sp)
   10188:	8fb10014 	lw	s1,20(sp)
   1018c:	8fb00010 	lw	s0,16(sp)
   10190:	0a001730 	j	0x8005cc0
   10194:	27bd0020 	addiu	sp,sp,32
   10198:	0a0017e7 	j	0x8005f9c
   1019c:	00004821 	move	t1,zero
   101a0:	02002021 	move	a0,s0
   101a4:	3165ffff 	andi	a1,t3,0xffff
   101a8:	0e0015f4 	jal	0x80057d0
   101ac:	01203021 	move	a2,t1
   101b0:	978b0044 	lhu	t3,68(gp)
   101b4:	8f870048 	lw	a3,72(gp)
   101b8:	a7800044 	sh	zero,68(gp)
   101bc:	00eb8023 	subu	s0,a3,t3
   101c0:	0a0017f7 	j	0x8005fdc
   101c4:	af900048 	sw	s0,72(gp)
   101c8:	94890070 	lhu	t1,112(a0)
   101cc:	240a8000 	li	t2,-32768
   101d0:	012a4024 	and	t0,t1,t2
   101d4:	a4880070 	sh	t0,112(a0)
   101d8:	90850070 	lbu	a1,112(a0)
   101dc:	90990070 	lbu	t9,112(a0)
   101e0:	30a200ff 	andi	v0,a1,0xff
   101e4:	000219c2 	srl	v1,v0,0x7
   101e8:	0003f827 	nor	ra,zero,v1
   101ec:	001fc1c0 	sll	t8,ra,0x7
   101f0:	332f007f 	andi	t7,t9,0x7f
   101f4:	01f87025 	or	t6,t7,t8
   101f8:	a08e0070 	sb	t6,112(a0)
   101fc:	0a0017cf 	j	0x8005f3c
   10200:	02002021 	move	a0,s0
   10204:	8f880024 	lw	t0,36(gp)
   10208:	24030001 	li	v1,1
   1020c:	910a0078 	lbu	t2,120(t0)
   10210:	910500c7 	lbu	a1,199(t0)
   10214:	25090078 	addiu	t1,t0,120
   10218:	3147003f 	andi	a3,t2,0x3f
   1021c:	24e6ffe0 	addiu	a2,a3,-32
   10220:	00c31804 	sllv	v1,v1,a2
   10224:	2cc20020 	sltiu	v0,a2,32
   10228:	30670019 	andi	a3,v1,0x19
   1022c:	a3850028 	sb	a1,40(gp)
   10230:	1040001a 	beqz	v0,0x1029c
   10234:	af890034 	sw	t1,52(gp)
   10238:	3c0a8000 	lui	t2,0x8000
   1023c:	354b0002 	ori	t3,t2,0x2
   10240:	24050001 	li	a1,1
   10244:	24060001 	li	a2,1
   10248:	14e00016 	bnez	a3,0x102a4
   1024c:	006b1024 	and	v0,v1,t3
   10250:	00002821 	move	a1,zero
   10254:	1440000f 	bnez	v0,0x10294
   10258:	30630020 	andi	v1,v1,0x20
   1025c:	1060000f 	beqz	v1,0x1029c
   10260:	24050001 	li	a1,1
   10264:	8d060074 	lw	a2,116(t0)
   10268:	8d190074 	lw	t9,116(t0)
   1026c:	2403ff80 	li	v1,-128
   10270:	00c31024 	and	v0,a2,v1
   10274:	00027940 	sll	t7,v0,0x5
   10278:	3338007f 	andi	t8,t9,0x7f
   1027c:	01f86825 	or	t5,t7,t8
   10280:	3c0e1000 	lui	t6,0x1000
   10284:	01ae6025 	or	t4,t5,t6
   10288:	ad4c0830 	sw	t4,2096(t2)
   1028c:	91280001 	lbu	t0,1(t1)
   10290:	31060001 	andi	a2,t0,0x1
   10294:	0a0017a5 	j	0x8005e94
   10298:	00000000 	nop
   1029c:	03e00008 	jr	ra
   102a0:	00000000 	nop
   102a4:	8d0f0074 	lw	t7,116(t0)
   102a8:	8d0d0074 	lw	t5,116(t0)
   102ac:	2418ff80 	li	t8,-128
   102b0:	01f87024 	and	t6,t7,t8
   102b4:	000e4140 	sll	t0,t6,0x5
   102b8:	31ac007f 	andi	t4,t5,0x7f
   102bc:	010c5025 	or	t2,t0,t4
   102c0:	3c0b1000 	lui	t3,0x1000
   102c4:	014b3825 	or	a3,t2,t3
   102c8:	3c098000 	lui	t1,0x8000
   102cc:	0a0017a5 	j	0x8005e94
   102d0:	ad270830 	sw	a3,2096(t1)
   102d4:	27bdffd8 	addiu	sp,sp,-40
   102d8:	afb00010 	sw	s0,16(sp)
   102dc:	8f900034 	lw	s0,52(gp)
   102e0:	afb40020 	sw	s4,32(sp)
   102e4:	afb10014 	sw	s1,20(sp)
   102e8:	afbf0024 	sw	ra,36(sp)
   102ec:	afb3001c 	sw	s3,28(sp)
   102f0:	afb20018 	sw	s2,24(sp)
   102f4:	8e050010 	lw	a1,16(s0)
   102f8:	3c020800 	lui	v0,0x800
   102fc:	8c4231b0 	lw	v0,12720(v0)
   10300:	8f860038 	lw	a2,56(gp)
   10304:	30a73fff 	andi	a3,a1,0x3fff
   10308:	00e2182b 	sltu	v1,a3,v0
   1030c:	8cd20014 	lw	s2,20(a2)
   10310:	00808821 	move	s1,a0
   10314:	8cd30020 	lw	s3,32(a2)
   10318:	10600007 	beqz	v1,0x10338
   1031c:	0000a021 	move	s4,zero
   10320:	90cb000d 	lbu	t3,13(a2)
   10324:	240aff80 	li	t2,-128
   10328:	014b4824 	and	t1,t2,t3
   1032c:	312800ff 	andi	t0,t1,0xff
   10330:	1500000c 	bnez	t0,0x10364
   10334:	00056382 	srl	t4,a1,0xe
   10338:	02202021 	move	a0,s1
   1033c:	2411000d 	li	s1,13
   10340:	a3910050 	sb	s1,80(gp)
   10344:	8fbf0024 	lw	ra,36(sp)
   10348:	8fb40020 	lw	s4,32(sp)
   1034c:	8fb3001c 	lw	s3,28(sp)
   10350:	8fb20018 	lw	s2,24(sp)
   10354:	8fb10014 	lw	s1,20(sp)
   10358:	8fb00010 	lw	s0,16(sp)
   1035c:	0a0016a9 	j	0x8005aa4
   10360:	27bd0028 	addiu	sp,sp,40
   10364:	31850003 	andi	a1,t4,0x3
   10368:	54a0fff4 	bnezl	a1,0x1033c
   1036c:	02202021 	move	a0,s1
   10370:	94cf001c 	lhu	t7,28(a2)
   10374:	8f8e0024 	lw	t6,36(gp)
   10378:	8e070028 	lw	a3,40(s0)
   1037c:	a5cf00d8 	sh	t7,216(t6)
   10380:	8ccd0010 	lw	t5,16(a2)
   10384:	024d3023 	subu	a2,s2,t5
   10388:	10e6005c 	beq	a3,a2,0x104fc
   1038c:	2402001f 	li	v0,31
   10390:	0e0016a9 	jal	0x8005aa4
   10394:	a3820050 	sb	v0,80(gp)
   10398:	241fffff 	li	ra,-1
   1039c:	105f004e 	beq	v0,ra,0x104d8
   103a0:	2404ffff 	li	a0,-1
   103a4:	8f83003c 	lw	v1,60(gp)
   103a8:	8f88002c 	lw	t0,44(gp)
   103ac:	02639821 	addu	s3,s3,v1
   103b0:	8d090010 	lw	t1,16(t0)
   103b4:	01231023 	subu	v0,t1,v1
   103b8:	8f83001c 	lw	v1,28(gp)
   103bc:	ad020010 	sw	v0,16(t0)
   103c0:	ad130020 	sw	s3,32(t0)
   103c4:	8c670074 	lw	a3,116(v1)
   103c8:	00f3202b 	sltu	a0,a3,s3
   103cc:	14800062 	bnez	a0,0x10558
   103d0:	02202021 	move	a0,s1
   103d4:	8f860038 	lw	a2,56(gp)
   103d8:	8e0c0024 	lw	t4,36(s0)
   103dc:	8cc50024 	lw	a1,36(a2)
   103e0:	11850007 	beq	t4,a1,0x10400
   103e4:	02202021 	move	a0,s1
   103e8:	240e001c 	li	t6,28
   103ec:	0e0016a9 	jal	0x8005aa4
   103f0:	a38e0050 	sb	t6,80(gp)
   103f4:	240dffff 	li	t5,-1
   103f8:	104d0037 	beq	v0,t5,0x104d8
   103fc:	2404ffff 	li	a0,-1
   10400:	8f84002c 	lw	a0,44(gp)
   10404:	8c980024 	lw	t8,36(a0)
   10408:	270f0001 	addiu	t7,t8,1
   1040c:	ac8f0024 	sw	t7,36(a0)
   10410:	12720044 	beq	s3,s2,0x10524
   10414:	8f99001c 	lw	t9,28(gp)
   10418:	8f320074 	lw	s2,116(t9)
   1041c:	12530041 	beq	s2,s3,0x10524
   10420:	3c0a0080 	lui	t2,0x80
   10424:	8e090000 	lw	t1,0(s0)
   10428:	012a1024 	and	v0,t1,t2
   1042c:	1440003a 	bnez	v0,0x10518
   10430:	00000000 	nop
   10434:	8e040014 	lw	a0,20(s0)
   10438:	2412ffff 	li	s2,-1
   1043c:	10920006 	beq	a0,s2,0x10458
   10440:	240b001b 	li	t3,27
   10444:	02202021 	move	a0,s1
   10448:	0e0016a9 	jal	0x8005aa4
   1044c:	a38b0050 	sb	t3,80(gp)
   10450:	10520021 	beq	v0,s2,0x104d8
   10454:	2404ffff 	li	a0,-1
   10458:	8e030000 	lw	v1,0(s0)
   1045c:	3c0c0001 	lui	t4,0x1
   10460:	006c2824 	and	a1,v1,t4
   10464:	10a00013 	beqz	a1,0x104b4
   10468:	3c060080 	lui	a2,0x80
   1046c:	0066a024 	and	s4,v1,a2
   10470:	16800009 	bnez	s4,0x10498
   10474:	02002821 	move	a1,s0
   10478:	02202021 	move	a0,s1
   1047c:	240e001a 	li	t6,26
   10480:	0e0016a9 	jal	0x8005aa4
   10484:	a38e0050 	sb	t6,80(gp)
   10488:	240dffff 	li	t5,-1
   1048c:	104d0012 	beq	v0,t5,0x104d8
   10490:	2404ffff 	li	a0,-1
   10494:	02002821 	move	a1,s0
   10498:	02202021 	move	a0,s1
   1049c:	0e0016c9 	jal	0x8005b24
   104a0:	24060001 	li	a2,1
   104a4:	2410ffff 	li	s0,-1
   104a8:	2404ffff 	li	a0,-1
   104ac:	1050000a 	beq	v0,s0,0x104d8
   104b0:	24140001 	li	s4,1
   104b4:	8f8f002c 	lw	t7,44(gp)
   104b8:	02202021 	move	a0,s1
   104bc:	02803021 	move	a2,s4
   104c0:	95f20034 	lhu	s2,52(t7)
   104c4:	24050001 	li	a1,1
   104c8:	26580001 	addiu	t8,s2,1
   104cc:	0e0017a5 	jal	0x8005e94
   104d0:	a5f80034 	sh	t8,52(t7)
   104d4:	00002021 	move	a0,zero
   104d8:	8fbf0024 	lw	ra,36(sp)
   104dc:	8fb40020 	lw	s4,32(sp)
   104e0:	8fb3001c 	lw	s3,28(sp)
   104e4:	8fb20018 	lw	s2,24(sp)
   104e8:	8fb10014 	lw	s1,20(sp)
   104ec:	8fb00010 	lw	s0,16(sp)
   104f0:	00801021 	move	v0,a0
   104f4:	03e00008 	jr	ra
   104f8:	27bd0028 	addiu	sp,sp,40
   104fc:	8f83003c 	lw	v1,60(gp)
   10500:	00e3c821 	addu	t9,a3,v1
   10504:	0259c02b 	sltu	t8,s2,t9
   10508:	1300ffa8 	beqz	t8,0x103ac
   1050c:	8f88002c 	lw	t0,44(gp)
   10510:	0a00188e 	j	0x8006238
   10514:	24020018 	li	v0,24
   10518:	ac800020 	sw	zero,32(a0)
   1051c:	0a0018b8 	j	0x80062e0
   10520:	8e040014 	lw	a0,20(s0)
   10524:	8e1f0000 	lw	ra,0(s0)
   10528:	3c070080 	lui	a3,0x80
   1052c:	03e79824 	and	s3,ra,a3
   10530:	1660fff9 	bnez	s3,0x10518
   10534:	2408001a 	li	t0,26
   10538:	02202021 	move	a0,s1
   1053c:	0e0016a9 	jal	0x8005aa4
   10540:	a3880050 	sb	t0,80(gp)
   10544:	2403ffff 	li	v1,-1
   10548:	1443ffba 	bne	v0,v1,0x10434
   1054c:	2404ffff 	li	a0,-1
   10550:	0a0018e1 	j	0x8006384
   10554:	8fbf0024 	lw	ra,36(sp)
   10558:	240b001d 	li	t3,29
   1055c:	0e0016a9 	jal	0x8005aa4
   10560:	a38b0050 	sb	t3,80(gp)
   10564:	240affff 	li	t2,-1
   10568:	144aff9a 	bne	v0,t2,0x103d4
   1056c:	2404ffff 	li	a0,-1
   10570:	0a0018e1 	j	0x8006384
   10574:	8fbf0024 	lw	ra,36(sp)
   10578:	8f850024 	lw	a1,36(gp)
   1057c:	27bdffd8 	addiu	sp,sp,-40
   10580:	afb3001c 	sw	s3,28(sp)
   10584:	afb20018 	sw	s2,24(sp)
   10588:	afb10014 	sw	s1,20(sp)
   1058c:	afb00010 	sw	s0,16(sp)
   10590:	afbf0020 	sw	ra,32(sp)
   10594:	90a700c4 	lbu	a3,196(a1)
   10598:	8f900034 	lw	s0,52(gp)
   1059c:	2412ffff 	li	s2,-1
   105a0:	34e20040 	ori	v0,a3,0x40
   105a4:	92060000 	lbu	a2,0(s0)
   105a8:	a0a200c4 	sb	v0,196(a1)
   105ac:	8e030010 	lw	v1,16(s0)
   105b0:	00809821 	move	s3,a0
   105b4:	10720006 	beq	v1,s2,0x105d0
   105b8:	30d1003f 	andi	s1,a2,0x3f
   105bc:	2408000d 	li	t0,13
   105c0:	0e0016a9 	jal	0x8005aa4
   105c4:	a3880050 	sb	t0,80(gp)
   105c8:	10520026 	beq	v0,s2,0x10664
   105cc:	2406ffff 	li	a2,-1
   105d0:	8f8a0024 	lw	t2,36(gp)
   105d4:	8e090018 	lw	t1,24(s0)
   105d8:	8d4400c0 	lw	a0,192(t2)
   105dc:	11240007 	beq	t1,a0,0x105fc
   105e0:	240c000e 	li	t4,14
   105e4:	02602021 	move	a0,s3
   105e8:	0e0016a9 	jal	0x8005aa4
   105ec:	a38c0050 	sb	t4,80(gp)
   105f0:	240bffff 	li	t3,-1
   105f4:	104b001b 	beq	v0,t3,0x10664
   105f8:	2406ffff 	li	a2,-1
   105fc:	24040020 	li	a0,32
   10600:	12240004 	beq	s1,a0,0x10614
   10604:	8f8d0024 	lw	t5,36(gp)
   10608:	91af00c4 	lbu	t7,196(t5)
   1060c:	35ee0020 	ori	t6,t7,0x20
   10610:	a1ae00c4 	sb	t6,196(t5)
   10614:	8f85003c 	lw	a1,60(gp)
   10618:	10a0001a 	beqz	a1,0x10684
   1061c:	00000000 	nop
   10620:	1224004b 	beq	s1,a0,0x10750
   10624:	8f980024 	lw	t8,36(gp)
   10628:	8f92fed4 	lw	s2,-300(gp)
   1062c:	2406fffd 	li	a2,-3
   10630:	97100070 	lhu	s0,112(t8)
   10634:	9651000a 	lhu	s1,10(s2)
   10638:	1230000b 	beq	s1,s0,0x10668
   1063c:	8fbf0020 	lw	ra,32(sp)
   10640:	3c1f0800 	lui	ra,0x800
   10644:	8fff318c 	lw	ra,12684(ra)
   10648:	03e5c82b 	sltu	t9,ra,a1
   1064c:	1720001e 	bnez	t9,0x106c8
   10650:	02602021 	move	a0,s3
   10654:	00002821 	move	a1,zero
   10658:	0e0017a5 	jal	0x8005e94
   1065c:	24060001 	li	a2,1
   10660:	00003021 	move	a2,zero
   10664:	8fbf0020 	lw	ra,32(sp)
   10668:	8fb3001c 	lw	s3,28(sp)
   1066c:	8fb20018 	lw	s2,24(sp)
   10670:	8fb10014 	lw	s1,20(sp)
   10674:	8fb00010 	lw	s0,16(sp)
   10678:	00c01021 	move	v0,a2
   1067c:	03e00008 	jr	ra
   10680:	27bd0028 	addiu	sp,sp,40
   10684:	5224002a 	beql	s1,a0,0x10730
   10688:	8e030014 	lw	v1,20(s0)
   1068c:	8f840024 	lw	a0,36(gp)
   10690:	94890070 	lhu	t1,112(a0)
   10694:	25280001 	addiu	t0,t1,1
   10698:	a4880070 	sh	t0,112(a0)
   1069c:	94870070 	lhu	a3,112(a0)
   106a0:	3c050800 	lui	a1,0x800
   106a4:	8ca53188 	lw	a1,12680(a1)
   106a8:	30e27fff 	andi	v0,a3,0x7fff
   106ac:	1045000e 	beq	v0,a1,0x106e8
   106b0:	00000000 	nop
   106b4:	02602021 	move	a0,s3
   106b8:	0e001730 	jal	0x8005cc0
   106bc:	24050001 	li	a1,1
   106c0:	0a001943 	j	0x800650c
   106c4:	00003021 	move	a2,zero
   106c8:	2402002d 	li	v0,45
   106cc:	a3820050 	sb	v0,80(gp)
   106d0:	0e0016a9 	jal	0x8005aa4
   106d4:	2413ffff 	li	s3,-1
   106d8:	1453ffe1 	bne	v0,s3,0x10660
   106dc:	2406ffff 	li	a2,-1
   106e0:	0a001944 	j	0x8006510
   106e4:	8fbf0020 	lw	ra,32(sp)
   106e8:	94980070 	lhu	t8,112(a0)
   106ec:	24198000 	li	t9,-32768
   106f0:	24050001 	li	a1,1
   106f4:	03199024 	and	s2,t8,t9
   106f8:	a4920070 	sh	s2,112(a0)
   106fc:	90910070 	lbu	s1,112(a0)
   10700:	908d0070 	lbu	t5,112(a0)
   10704:	323000ff 	andi	s0,s1,0xff
   10708:	001079c2 	srl	t7,s0,0x7
   1070c:	000f7027 	nor	t6,zero,t7
   10710:	000e61c0 	sll	t4,t6,0x7
   10714:	31ab007f 	andi	t3,t5,0x7f
   10718:	016c5025 	or	t2,t3,t4
   1071c:	a08a0070 	sb	t2,112(a0)
   10720:	0e001730 	jal	0x8005cc0
   10724:	02602021 	move	a0,s3
   10728:	0a001943 	j	0x800650c
   1072c:	00003021 	move	a2,zero
   10730:	2406ffff 	li	a2,-1
   10734:	1466ffd6 	bne	v1,a2,0x10690
   10738:	8f840024 	lw	a0,36(gp)
   1073c:	02602021 	move	a0,s3
   10740:	0e001730 	jal	0x8005cc0
   10744:	24050001 	li	a1,1
   10748:	0a001943 	j	0x800650c
   1074c:	00003021 	move	a2,zero
   10750:	02602021 	move	a0,s3
   10754:	0a00195d 	j	0x8006574
   10758:	2402000a 	li	v0,10
   1075c:	8f880024 	lw	t0,36(gp)
   10760:	27bdffe8 	addiu	sp,sp,-24
   10764:	afb00010 	sw	s0,16(sp)
   10768:	afbf0014 	sw	ra,20(sp)
   1076c:	910a00c4 	lbu	t2,196(t0)
   10770:	8f870034 	lw	a3,52(gp)
   10774:	00808021 	move	s0,a0
   10778:	35490040 	ori	t1,t2,0x40
   1077c:	8ce60010 	lw	a2,16(a3)
   10780:	a10900c4 	sb	t1,196(t0)
   10784:	3c020800 	lui	v0,0x800
   10788:	8c4231b0 	lw	v0,12720(v0)
   1078c:	30c53fff 	andi	a1,a2,0x3fff
   10790:	00a2182b 	sltu	v1,a1,v0
   10794:	10600007 	beqz	v1,0x107b4
   10798:	8f850038 	lw	a1,56(gp)
   1079c:	240dff80 	li	t5,-128
   107a0:	90ae000d 	lbu	t6,13(a1)
   107a4:	01ae6024 	and	t4,t5,t6
   107a8:	318b00ff 	andi	t3,t4,0xff
   107ac:	15600008 	bnez	t3,0x107d0
   107b0:	0006c382 	srl	t8,a2,0xe
   107b4:	02002021 	move	a0,s0
   107b8:	2403000d 	li	v1,13
   107bc:	8fbf0014 	lw	ra,20(sp)
   107c0:	8fb00010 	lw	s0,16(sp)
   107c4:	27bd0018 	addiu	sp,sp,24
   107c8:	0a0016a9 	j	0x8005aa4
   107cc:	a3830050 	sb	v1,80(gp)
   107d0:	33060003 	andi	a2,t8,0x3
   107d4:	240f0002 	li	t7,2
   107d8:	54cffff7 	bnel	a2,t7,0x107b8
   107dc:	02002021 	move	a0,s0
   107e0:	94a2001c 	lhu	v0,28(a1)
   107e4:	8f850024 	lw	a1,36(gp)
   107e8:	24190023 	li	t9,35
   107ec:	a4a200d8 	sh	v0,216(a1)
   107f0:	8ce80000 	lw	t0,0(a3)
   107f4:	00081e02 	srl	v1,t0,0x18
   107f8:	307f003f 	andi	ra,v1,0x3f
   107fc:	13f90035 	beq	ra,t9,0x108d4
   10800:	3c0a0083 	lui	t2,0x83
   10804:	8ce80018 	lw	t0,24(a3)
   10808:	8ca600c0 	lw	a2,192(a1)
   1080c:	11060008 	beq	t0,a2,0x10830
   10810:	00000000 	nop
   10814:	2405000e 	li	a1,14
   10818:	0e0016a9 	jal	0x8005aa4
   1081c:	a3850050 	sb	a1,80(gp)
   10820:	2407ffff 	li	a3,-1
   10824:	10470018 	beq	v0,a3,0x10888
   10828:	2404ffff 	li	a0,-1
   1082c:	8f850024 	lw	a1,36(gp)
   10830:	90a900c4 	lbu	t1,196(a1)
   10834:	35240020 	ori	a0,t1,0x20
   10838:	a0a400c4 	sb	a0,196(a1)
   1083c:	8f8c002c 	lw	t4,44(gp)
   10840:	918e000d 	lbu	t6,13(t4)
   10844:	31cd007f 	andi	t5,t6,0x7f
   10848:	a18d000d 	sb	t5,13(t4)
   1084c:	8f83003c 	lw	v1,60(gp)
   10850:	1060001c 	beqz	v1,0x108c4
   10854:	02002021 	move	a0,s0
   10858:	8f840038 	lw	a0,56(gp)
   1085c:	8c980010 	lw	t8,16(a0)
   10860:	0303782b 	sltu	t7,t8,v1
   10864:	11e0000d 	beqz	t7,0x1089c
   10868:	24190018 	li	t9,24
   1086c:	02002021 	move	a0,s0
   10870:	a3990050 	sb	t9,80(gp)
   10874:	0e0016a9 	jal	0x8005aa4
   10878:	2410ffff 	li	s0,-1
   1087c:	10500002 	beq	v0,s0,0x10888
   10880:	2404ffff 	li	a0,-1
   10884:	00002021 	move	a0,zero
   10888:	8fbf0014 	lw	ra,20(sp)
   1088c:	8fb00010 	lw	s0,16(sp)
   10890:	00801021 	move	v0,a0
   10894:	03e00008 	jr	ra
   10898:	27bd0018 	addiu	sp,sp,24
   1089c:	8c860010 	lw	a2,16(a0)
   108a0:	8f9f002c 	lw	ra,44(gp)
   108a4:	02002021 	move	a0,s0
   108a8:	00c31023 	subu	v0,a2,v1
   108ac:	afe20010 	sw	v0,16(ra)
   108b0:	24050001 	li	a1,1
   108b4:	0e0017a5 	jal	0x8005e94
   108b8:	24060001 	li	a2,1
   108bc:	0a0019cc 	j	0x8006730
   108c0:	00002021 	move	a0,zero
   108c4:	0e001730 	jal	0x8005cc0
   108c8:	24050001 	li	a1,1
   108cc:	0a0019cc 	j	0x8006730
   108d0:	00002021 	move	a0,zero
   108d4:	010a5824 	and	t3,t0,t2
   108d8:	156affd9 	bne	t3,t2,0x10840
   108dc:	8f8c002c 	lw	t4,44(gp)
   108e0:	a0a600ec 	sb	a2,236(a1)
   108e4:	0a0019b9 	j	0x80066e4
   108e8:	a3860042 	sb	a2,66(gp)
   108ec:	27bdffd8 	addiu	sp,sp,-40
   108f0:	afb00010 	sw	s0,16(sp)
   108f4:	8f900034 	lw	s0,52(gp)
   108f8:	afb20018 	sw	s2,24(sp)
   108fc:	afbf0020 	sw	ra,32(sp)
   10900:	afb3001c 	sw	s3,28(sp)
   10904:	afb10014 	sw	s1,20(sp)
   10908:	8e110010 	lw	s1,16(s0)
   1090c:	3c030800 	lui	v1,0x800
   10910:	8c6331b0 	lw	v1,12720(v1)
   10914:	32253fff 	andi	a1,s1,0x3fff
   10918:	00a3102b 	sltu	v0,a1,v1
   1091c:	10400008 	beqz	v0,0x10940
   10920:	00809021 	move	s2,a0
   10924:	8f860038 	lw	a2,56(gp)
   10928:	2409ff80 	li	t1,-128
   1092c:	90ca000d 	lbu	t2,13(a2)
   10930:	012a4024 	and	t0,t1,t2
   10934:	310700ff 	andi	a3,t0,0xff
   10938:	14e0000b 	bnez	a3,0x10968
   1093c:	00116b82 	srl	t5,s1,0xe
   10940:	02402021 	move	a0,s2
   10944:	2412000d 	li	s2,13
   10948:	a3920050 	sb	s2,80(gp)
   1094c:	8fbf0020 	lw	ra,32(sp)
   10950:	8fb3001c 	lw	s3,28(sp)
   10954:	8fb20018 	lw	s2,24(sp)
   10958:	8fb10014 	lw	s1,20(sp)
   1095c:	8fb00010 	lw	s0,16(sp)
   10960:	0a0016a9 	j	0x8005aa4
   10964:	27bd0028 	addiu	sp,sp,40
   10968:	31ac0003 	andi	t4,t5,0x3
   1096c:	240b0001 	li	t3,1
   10970:	558bfff4 	bnel	t4,t3,0x10944
   10974:	02402021 	move	a0,s2
   10978:	90cf000d 	lbu	t7,13(a2)
   1097c:	31ee0008 	andi	t6,t7,0x8
   10980:	11c00060 	beqz	t6,0x10b04
   10984:	8f93003c 	lw	s3,60(gp)
   10988:	16600009 	bnez	s3,0x109b0
   1098c:	24020027 	li	v0,39
   10990:	8e19000c 	lw	t9,12(s0)
   10994:	8cd80020 	lw	t8,32(a2)
   10998:	17380005 	bne	t9,t8,0x109b0
   1099c:	24020020 	li	v0,32
   109a0:	8e020008 	lw	v0,8(s0)
   109a4:	8cdf0024 	lw	ra,36(a2)
   109a8:	105f0040 	beq	v0,ra,0x10aac
   109ac:	24020020 	li	v0,32
   109b0:	0e0016a9 	jal	0x8005aa4
   109b4:	a3820050 	sb	v0,80(gp)
   109b8:	2406ffff 	li	a2,-1
   109bc:	10460033 	beq	v0,a2,0x10a8c
   109c0:	2404ffff 	li	a0,-1
   109c4:	8f99002c 	lw	t9,44(gp)
   109c8:	240afff7 	li	t2,-9
   109cc:	3c13800e 	lui	s3,0x800e
   109d0:	9329000d 	lbu	t1,13(t9)
   109d4:	2404ff80 	li	a0,-128
   109d8:	3c0d8000 	lui	t5,0x8000
   109dc:	012af824 	and	ra,t1,t2
   109e0:	a33f000d 	sb	ra,13(t9)
   109e4:	8f99001c 	lw	t9,28(gp)
   109e8:	3c080800 	lui	t0,0x800
   109ec:	8d0831ac 	lw	t0,12716(t0)
   109f0:	8f830054 	lw	v1,84(gp)
   109f4:	97270078 	lhu	a3,120(t9)
   109f8:	8f9f002c 	lw	ra,44(gp)
   109fc:	01031021 	addu	v0,t0,v1
   10a00:	30e57fff 	andi	a1,a3,0x7fff
   10a04:	00053040 	sll	a2,a1,0x1
   10a08:	00467821 	addu	t7,v0,a2
   10a0c:	31f8007f 	andi	t8,t7,0x7f
   10a10:	03136021 	addu	t4,t8,s3
   10a14:	01e47024 	and	t6,t7,a0
   10a18:	adae002c 	sw	t6,44(t5)
   10a1c:	a5910000 	sh	s1,0(t4)
   10a20:	8feb0028 	lw	t3,40(ra)
   10a24:	256a0001 	addiu	t2,t3,1
   10a28:	afea0028 	sw	t2,40(ra)
   10a2c:	8fe3002c 	lw	v1,44(ra)
   10a30:	8e09002c 	lw	t1,44(s0)
   10a34:	00694021 	addu	t0,v1,t1
   10a38:	afe8002c 	sw	t0,44(ra)
   10a3c:	8e07002c 	lw	a3,44(s0)
   10a40:	afe70030 	sw	a3,48(ra)
   10a44:	8e050014 	lw	a1,20(s0)
   10a48:	afe50034 	sw	a1,52(ra)
   10a4c:	97e6003a 	lhu	a2,58(ra)
   10a50:	24c20001 	addiu	v0,a2,1
   10a54:	a7e2003a 	sh	v0,58(ra)
   10a58:	97330078 	lhu	s3,120(t9)
   10a5c:	3c100800 	lui	s0,0x800
   10a60:	8e1031b0 	lw	s0,12720(s0)
   10a64:	26630001 	addiu	v1,s3,1
   10a68:	30717fff 	andi	s1,v1,0x7fff
   10a6c:	12300027 	beq	s1,s0,0x10b0c
   10a70:	00603021 	move	a2,v1
   10a74:	8f8f001c 	lw	t7,28(gp)
   10a78:	02402021 	move	a0,s2
   10a7c:	24050001 	li	a1,1
   10a80:	0e001730 	jal	0x8005cc0
   10a84:	a5e60078 	sh	a2,120(t7)
   10a88:	00002021 	move	a0,zero
   10a8c:	8fbf0020 	lw	ra,32(sp)
   10a90:	8fb3001c 	lw	s3,28(sp)
   10a94:	8fb20018 	lw	s2,24(sp)
   10a98:	8fb10014 	lw	s1,20(sp)
   10a9c:	8fb00010 	lw	s0,16(sp)
   10aa0:	00801021 	move	v0,a0
   10aa4:	03e00008 	jr	ra
   10aa8:	27bd0028 	addiu	sp,sp,40
   10aac:	8e050014 	lw	a1,20(s0)
   10ab0:	2413ffff 	li	s3,-1
   10ab4:	10b3001d 	beq	a1,s3,0x10b2c
   10ab8:	8f830024 	lw	v1,36(gp)
   10abc:	8e080018 	lw	t0,24(s0)
   10ac0:	8c6700c0 	lw	a3,192(v1)
   10ac4:	15070009 	bne	t0,a3,0x10aec
   10ac8:	2402000e 	li	v0,14
   10acc:	8e0a0024 	lw	t2,36(s0)
   10ad0:	8cc90028 	lw	t1,40(a2)
   10ad4:	15490005 	bne	t2,t1,0x10aec
   10ad8:	24020021 	li	v0,33
   10adc:	8e070028 	lw	a3,40(s0)
   10ae0:	8ccb002c 	lw	t3,44(a2)
   10ae4:	10eb0013 	beq	a3,t3,0x10b34
   10ae8:	2402001f 	li	v0,31
   10aec:	0e0016a9 	jal	0x8005aa4
   10af0:	a3820050 	sb	v0,80(gp)
   10af4:	1453ffb3 	bne	v0,s3,0x109c4
   10af8:	2404ffff 	li	a0,-1
   10afc:	0a001a4e 	j	0x8006938
   10b00:	8fbf0020 	lw	ra,32(sp)
   10b04:	0a001a16 	j	0x8006858
   10b08:	24020024 	li	v0,36
   10b0c:	240e8000 	li	t6,-32768
   10b10:	006e6824 	and	t5,v1,t6
   10b14:	31acffff 	andi	t4,t5,0xffff
   10b18:	000c5bc2 	srl	t3,t4,0xf
   10b1c:	317100ff 	andi	s1,t3,0xff
   10b20:	00118027 	nor	s0,zero,s1
   10b24:	0a001a47 	j	0x800691c
   10b28:	001033c0 	sll	a2,s0,0xf
   10b2c:	0a001a65 	j	0x8006994
   10b30:	24020025 	li	v0,37
   10b34:	8e05002c 	lw	a1,44(s0)
   10b38:	10a0ffec 	beqz	a1,0x10aec
   10b3c:	24020023 	li	v0,35
   10b40:	8f8e001c 	lw	t6,28(gp)
   10b44:	8dcd0074 	lw	t5,116(t6)
   10b48:	01a5602b 	sltu	t4,t5,a1
   10b4c:	1580ffe7 	bnez	t4,0x10aec
   10b50:	24020026 	li	v0,38
   10b54:	8ccf0014 	lw	t7,20(a2)
   10b58:	00a7c021 	addu	t8,a1,a3
   10b5c:	01f8202b 	sltu	a0,t7,t8
   10b60:	1080ff99 	beqz	a0,0x109c8
   10b64:	8f99002c 	lw	t9,44(gp)
   10b68:	02402021 	move	a0,s2
   10b6c:	0a001a65 	j	0x8006994
   10b70:	24020022 	li	v0,34
   10b74:	27bdffe0 	addiu	sp,sp,-32
   10b78:	afb00010 	sw	s0,16(sp)
   10b7c:	8f900034 	lw	s0,52(gp)
   10b80:	afb10014 	sw	s1,20(sp)
   10b84:	afbf0018 	sw	ra,24(sp)
   10b88:	8e050010 	lw	a1,16(s0)
   10b8c:	3c030800 	lui	v1,0x800
   10b90:	8c6331b0 	lw	v1,12720(v1)
   10b94:	00808821 	move	s1,a0
   10b98:	30a43fff 	andi	a0,a1,0x3fff
   10b9c:	0083102b 	sltu	v0,a0,v1
   10ba0:	10400007 	beqz	v0,0x10bc0
   10ba4:	8f860038 	lw	a2,56(gp)
   10ba8:	2409ff80 	li	t1,-128
   10bac:	90ca000d 	lbu	t2,13(a2)
   10bb0:	012a4024 	and	t0,t1,t2
   10bb4:	310700ff 	andi	a3,t0,0xff
   10bb8:	14e00009 	bnez	a3,0x10be0
   10bbc:	8f8b003c 	lw	t3,60(gp)
   10bc0:	2410000d 	li	s0,13
   10bc4:	02202021 	move	a0,s1
   10bc8:	a3900050 	sb	s0,80(gp)
   10bcc:	8fbf0018 	lw	ra,24(sp)
   10bd0:	8fb10014 	lw	s1,20(sp)
   10bd4:	8fb00010 	lw	s0,16(sp)
   10bd8:	0a0016a9 	j	0x8005aa4
   10bdc:	27bd0020 	addiu	sp,sp,32
   10be0:	11600008 	beqz	t3,0x10c04
   10be4:	0005c382 	srl	t8,a1,0xe
   10be8:	8f8f0024 	lw	t7,36(gp)
   10bec:	8f8efed4 	lw	t6,-300(gp)
   10bf0:	2407fffd 	li	a3,-3
   10bf4:	95ec0070 	lhu	t4,112(t7)
   10bf8:	95cd000a 	lhu	t5,10(t6)
   10bfc:	11ac0038 	beq	t5,t4,0x10ce0
   10c00:	8fbf0018 	lw	ra,24(sp)
   10c04:	33050003 	andi	a1,t8,0x3
   10c08:	14a00010 	bnez	a1,0x10c4c
   10c0c:	00000000 	nop
   10c10:	92190002 	lbu	t9,2(s0)
   10c14:	13200041 	beqz	t9,0x10d1c
   10c18:	00000000 	nop
   10c1c:	8e060024 	lw	a2,36(s0)
   10c20:	50c0000f 	beqzl	a2,0x10c60
   10c24:	92040003 	lbu	a0,3(s0)
   10c28:	02202021 	move	a0,s1
   10c2c:	2402000f 	li	v0,15
   10c30:	0e0016a9 	jal	0x8005aa4
   10c34:	a3820050 	sb	v0,80(gp)
   10c38:	2408ffff 	li	t0,-1
   10c3c:	14480007 	bne	v0,t0,0x10c5c
   10c40:	2407ffff 	li	a3,-1
   10c44:	0a001ae2 	j	0x8006b88
   10c48:	8fbf0018 	lw	ra,24(sp)
   10c4c:	90c3000d 	lbu	v1,13(a2)
   10c50:	30640008 	andi	a0,v1,0x8
   10c54:	10800037 	beqz	a0,0x10d34
   10c58:	02202021 	move	a0,s1
   10c5c:	92040003 	lbu	a0,3(s0)
   10c60:	24070002 	li	a3,2
   10c64:	308900ff 	andi	t1,a0,0xff
   10c68:	15270005 	bne	t1,a3,0x10c80
   10c6c:	308f00ff 	andi	t7,a0,0xff
   10c70:	8f8a003c 	lw	t2,60(gp)
   10c74:	11400031 	beqz	t2,0x10d3c
   10c78:	240c002c 	li	t4,44
   10c7c:	308f00ff 	andi	t7,a0,0xff
   10c80:	39e50010 	xori	a1,t7,0x10
   10c84:	2cad0001 	sltiu	t5,a1,1
   10c88:	2dee0001 	sltiu	t6,t7,1
   10c8c:	02002821 	move	a1,s0
   10c90:	01cd3025 	or	a2,t6,t5
   10c94:	0e0016c9 	jal	0x8005b24
   10c98:	02202021 	move	a0,s1
   10c9c:	2410ffff 	li	s0,-1
   10ca0:	1050000e 	beq	v0,s0,0x10cdc
   10ca4:	2407ffff 	li	a3,-1
   10ca8:	8f83003c 	lw	v1,60(gp)
   10cac:	10600017 	beqz	v1,0x10d0c
   10cb0:	02202021 	move	a0,s1
   10cb4:	3c190800 	lui	t9,0x800
   10cb8:	8f39318c 	lw	t9,12684(t9)
   10cbc:	0323c02b 	sltu	t8,t9,v1
   10cc0:	5700000c 	bnezl	t8,0x10cf4
   10cc4:	2411002d 	li	s1,45
   10cc8:	02202021 	move	a0,s1
   10ccc:	00002821 	move	a1,zero
   10cd0:	0e0017a5 	jal	0x8005e94
   10cd4:	24060001 	li	a2,1
   10cd8:	00003821 	move	a3,zero
   10cdc:	8fbf0018 	lw	ra,24(sp)
   10ce0:	8fb10014 	lw	s1,20(sp)
   10ce4:	8fb00010 	lw	s0,16(sp)
   10ce8:	00e01021 	move	v0,a3
   10cec:	03e00008 	jr	ra
   10cf0:	27bd0020 	addiu	sp,sp,32
   10cf4:	0e0016a9 	jal	0x8005aa4
   10cf8:	a3910050 	sb	s1,80(gp)
   10cfc:	1450fff6 	bne	v0,s0,0x10cd8
   10d00:	2407ffff 	li	a3,-1
   10d04:	0a001ae2 	j	0x8006b88
   10d08:	8fbf0018 	lw	ra,24(sp)
   10d0c:	0e001730 	jal	0x8005cc0
   10d10:	24050001 	li	a1,1
   10d14:	0a001ae1 	j	0x8006b84
   10d18:	00003821 	move	a3,zero
   10d1c:	8cdf0024 	lw	ra,36(a2)
   10d20:	8e020024 	lw	v0,36(s0)
   10d24:	545fffc1 	bnel	v0,ra,0x10c2c
   10d28:	02202021 	move	a0,s1
   10d2c:	0a001ac2 	j	0x8006b08
   10d30:	92040003 	lbu	a0,3(s0)
   10d34:	0a001ab6 	j	0x8006ad8
   10d38:	24020010 	li	v0,16
   10d3c:	02202021 	move	a0,s1
   10d40:	0e0016a9 	jal	0x8005aa4
   10d44:	a38c0050 	sb	t4,80(gp)
   10d48:	240bffff 	li	t3,-1
   10d4c:	104bffe3 	beq	v0,t3,0x10cdc
   10d50:	2407ffff 	li	a3,-1
   10d54:	0a001ac9 	j	0x8006b24
   10d58:	92040003 	lbu	a0,3(s0)
   10d5c:	30a500ff 	andi	a1,a1,0xff
   10d60:	24060001 	li	a2,1
   10d64:	24a90001 	addiu	t1,a1,1
   10d68:	00c9102b 	sltu	v0,a2,t1
   10d6c:	1040000c 	beqz	v0,0x10da0
   10d70:	00004021 	move	t0,zero
   10d74:	240a0001 	li	t2,1
   10d78:	00a61823 	subu	v1,a1,a2
   10d7c:	308b0001 	andi	t3,a0,0x1
   10d80:	24c60001 	addiu	a2,a2,1
   10d84:	006a3804 	sllv	a3,t2,v1
   10d88:	00042042 	srl	a0,a0,0x1
   10d8c:	11600002 	beqz	t3,0x10d98
   10d90:	00c9182b 	sltu	v1,a2,t1
   10d94:	01074025 	or	t0,t0,a3
   10d98:	1460fff8 	bnez	v1,0x10d7c
   10d9c:	00a61823 	subu	v1,a1,a2
   10da0:	03e00008 	jr	ra
   10da4:	01001021 	move	v0,t0
   10da8:	27bdffd8 	addiu	sp,sp,-40
   10dac:	afb00018 	sw	s0,24(sp)
   10db0:	8f900034 	lw	s0,52(gp)
   10db4:	afb1001c 	sw	s1,28(sp)
   10db8:	afbf0020 	sw	ra,32(sp)
   10dbc:	2403ffff 	li	v1,-1
   10dc0:	2411002f 	li	s1,47
   10dc4:	afa30010 	sw	v1,16(sp)
   10dc8:	92060000 	lbu	a2,0(s0)
   10dcc:	24050008 	li	a1,8
   10dd0:	26100001 	addiu	s0,s0,1
   10dd4:	00662026 	xor	a0,v1,a2
   10dd8:	0e001b01 	jal	0x8006c04
   10ddc:	308400ff 	andi	a0,a0,0xff
   10de0:	00021e00 	sll	v1,v0,0x18
   10de4:	3c021edc 	lui	v0,0x1edc
   10de8:	34466f41 	ori	a2,v0,0x6f41
   10dec:	0a001b29 	j	0x8006ca4
   10df0:	00001021 	move	v0,zero
   10df4:	10a00009 	beqz	a1,0x10e1c
   10df8:	00801821 	move	v1,a0
   10dfc:	24450001 	addiu	a1,v0,1
   10e00:	30a2ffff 	andi	v0,a1,0xffff
   10e04:	2c450008 	sltiu	a1,v0,8
   10e08:	0461fffa 	bgez	v1,0x10df4
   10e0c:	00032040 	sll	a0,v1,0x1
   10e10:	00862026 	xor	a0,a0,a2
   10e14:	14a0fff9 	bnez	a1,0x10dfc
   10e18:	00801821 	move	v1,a0
   10e1c:	0e001b01 	jal	0x8006c04
   10e20:	24050020 	li	a1,32
   10e24:	8fa30010 	lw	v1,16(sp)
   10e28:	2629ffff 	addiu	t1,s1,-1
   10e2c:	313100ff 	andi	s1,t1,0xff
   10e30:	00034202 	srl	t0,v1,0x8
   10e34:	240700ff 	li	a3,255
   10e38:	1627ffe2 	bne	s1,a3,0x10dc4
   10e3c:	01021826 	xor	v1,t0,v0
   10e40:	00035027 	nor	t2,zero,v1
   10e44:	afaa0014 	sw	t2,20(sp)
   10e48:	afaa0010 	sw	t2,16(sp)
   10e4c:	00003021 	move	a2,zero
   10e50:	27a80010 	addiu	t0,sp,16
   10e54:	27a70014 	addiu	a3,sp,20
   10e58:	00e67823 	subu	t7,a3,a2
   10e5c:	91ed0003 	lbu	t5,3(t7)
   10e60:	24ce0001 	addiu	t6,a2,1
   10e64:	00c86021 	addu	t4,a2,t0
   10e68:	31c600ff 	andi	a2,t6,0xff
   10e6c:	2ccb0004 	sltiu	t3,a2,4
   10e70:	1560fff9 	bnez	t3,0x10e58
   10e74:	a18d0000 	sb	t5,0(t4)
   10e78:	8fa20010 	lw	v0,16(sp)
   10e7c:	8fbf0020 	lw	ra,32(sp)
   10e80:	8fb1001c 	lw	s1,28(sp)
   10e84:	8fb00018 	lw	s0,24(sp)
   10e88:	03e00008 	jr	ra
   10e8c:	27bd0028 	addiu	sp,sp,40
   10e90:	93830030 	lbu	v1,48(gp)
   10e94:	27bdffe0 	addiu	sp,sp,-32
   10e98:	24020034 	li	v0,52
   10e9c:	afb10014 	sw	s1,20(sp)
   10ea0:	afb00010 	sw	s0,16(sp)
   10ea4:	afbf001c 	sw	ra,28(sp)
   10ea8:	afb20018 	sw	s2,24(sp)
   10eac:	00808821 	move	s1,a0
   10eb0:	10620062 	beq	v1,v0,0x1103c
   10eb4:	00a08021 	move	s0,a1
   10eb8:	92040004 	lbu	a0,4(s0)
   10ebc:	14800045 	bnez	a0,0x10fd4
   10ec0:	8f880024 	lw	t0,36(gp)
   10ec4:	a3800028 	sb	zero,40(gp)
   10ec8:	8e050004 	lw	a1,4(s0)
   10ecc:	8d0600c8 	lw	a2,200(t0)
   10ed0:	3c0700ff 	lui	a3,0xff
   10ed4:	34e3ffff 	ori	v1,a3,0xffff
   10ed8:	00a32824 	and	a1,a1,v1
   10edc:	00c5102b 	sltu	v0,a2,a1
   10ee0:	1440004d 	bnez	v0,0x11018
   10ee4:	af85003c 	sw	a1,60(gp)
   10ee8:	978a0044 	lhu	t2,68(gp)
   10eec:	8f870048 	lw	a3,72(gp)
   10ef0:	01471023 	subu	v0,t2,a3
   10ef4:	10a00032 	beqz	a1,0x10fc0
   10ef8:	a7820044 	sh	v0,68(gp)
   10efc:	8f98001c 	lw	t8,28(gp)
   10f00:	304cffff 	andi	t4,v0,0xffff
   10f04:	9312007c 	lbu	s2,124(t8)
   10f08:	00127882 	srl	t7,s2,0x2
   10f0c:	31f10001 	andi	s1,t7,0x1
   10f10:	00117080 	sll	t6,s1,0x2
   10f14:	01c56821 	addu	t5,t6,a1
   10f18:	018d582b 	sltu	t3,t4,t5
   10f1c:	11600061 	beqz	t3,0x110a4
   10f20:	8f860024 	lw	a2,36(gp)
   10f24:	8f890020 	lw	t1,32(gp)
   10f28:	8f84004c 	lw	a0,76(gp)
   10f2c:	1089005e 	beq	a0,t1,0x110a8
   10f30:	3c023f01 	lui	v0,0x3f01
   10f34:	8e1f0000 	lw	ra,0(s0)
   10f38:	3c102500 	lui	s0,0x2500
   10f3c:	03e2c824 	and	t9,ra,v0
   10f40:	1730007a 	bne	t9,s0,0x1112c
   10f44:	8f840034 	lw	a0,52(gp)
   10f48:	8f870034 	lw	a3,52(gp)
   10f4c:	8f860024 	lw	a2,36(gp)
   10f50:	8ce30000 	lw	v1,0(a3)
   10f54:	acc30078 	sw	v1,120(a2)
   10f58:	8ce50010 	lw	a1,16(a3)
   10f5c:	acc50088 	sw	a1,136(a2)
   10f60:	8f870048 	lw	a3,72(gp)
   10f64:	8f85003c 	lw	a1,60(gp)
   10f68:	938d0028 	lbu	t5,40(gp)
   10f6c:	30ae0003 	andi	t6,a1,0x3
   10f70:	000e4023 	negu	t0,t6
   10f74:	310a0003 	andi	t2,t0,0x3
   10f78:	014d4021 	addu	t0,t2,t5
   10f7c:	a3880028 	sb	t0,40(gp)
   10f80:	94cb00ac 	lhu	t3,172(a2)
   10f84:	01276021 	addu	t4,t1,a3
   10f88:	af8c0020 	sw	t4,32(gp)
   10f8c:	35691000 	ori	t1,t3,0x1000
   10f90:	a4c900ac 	sh	t1,172(a2)
   10f94:	16200051 	bnez	s1,0x110dc
   10f98:	01452021 	addu	a0,t2,a1
   10f9c:	af840048 	sw	a0,72(gp)
   10fa0:	00002021 	move	a0,zero
   10fa4:	8fbf001c 	lw	ra,28(sp)
   10fa8:	8fb20018 	lw	s2,24(sp)
   10fac:	8fb10014 	lw	s1,20(sp)
   10fb0:	8fb00010 	lw	s0,16(sp)
   10fb4:	00801021 	move	v0,a0
   10fb8:	03e00008 	jr	ra
   10fbc:	27bd0020 	addiu	sp,sp,32
   10fc0:	8f840020 	lw	a0,32(gp)
   10fc4:	af800048 	sw	zero,72(gp)
   10fc8:	00873021 	addu	a2,a0,a3
   10fcc:	0a001b92 	j	0x8006e48
   10fd0:	af860020 	sw	a2,32(gp)
   10fd4:	241f000c 	li	ra,12
   10fd8:	a39f0050 	sb	ra,80(gp)
   10fdc:	0e0016a9 	jal	0x8005aa4
   10fe0:	02202021 	move	a0,s1
   10fe4:	2419ffff 	li	t9,-1
   10fe8:	1059ffee 	beq	v0,t9,0x10fa4
   10fec:	2404ffff 	li	a0,-1
   10ff0:	8f880024 	lw	t0,36(gp)
   10ff4:	a3800028 	sb	zero,40(gp)
   10ff8:	8e050004 	lw	a1,4(s0)
   10ffc:	8d0600c8 	lw	a2,200(t0)
   11000:	3c0700ff 	lui	a3,0xff
   11004:	34e3ffff 	ori	v1,a3,0xffff
   11008:	00a32824 	and	a1,a1,v1
   1100c:	00c5102b 	sltu	v0,a2,a1
   11010:	1040ffb5 	beqz	v0,0x10ee8
   11014:	af85003c 	sw	a1,60(gp)
   11018:	02202021 	move	a0,s1
   1101c:	24090019 	li	t1,25
   11020:	a3890050 	sb	t1,80(gp)
   11024:	0e0016a9 	jal	0x8005aa4
   11028:	2411ffff 	li	s1,-1
   1102c:	1051ffdd 	beq	v0,s1,0x10fa4
   11030:	2404ffff 	li	a0,-1
   11034:	0a001b64 	j	0x8006d90
   11038:	8f85003c 	lw	a1,60(gp)
   1103c:	8f840024 	lw	a0,36(gp)
   11040:	8f870034 	lw	a3,52(gp)
   11044:	8cf20030 	lw	s2,48(a3)
   11048:	908600c4 	lbu	a2,196(a0)
   1104c:	30c50010 	andi	a1,a2,0x10
   11050:	14a00010 	bnez	a1,0x11094
   11054:	8f830048 	lw	v1,72(gp)
   11058:	2c680005 	sltiu	t0,v1,5
   1105c:	15000028 	bnez	t0,0x11100
   11060:	00000000 	nop
   11064:	908a00c4 	lbu	t2,196(a0)
   11068:	246bfffc 	addiu	t3,v1,-4
   1106c:	31490010 	andi	t1,t2,0x10
   11070:	15200008 	bnez	t1,0x11094
   11074:	316400ff 	andi	a0,t3,0xff
   11078:	8f8d004c 	lw	t5,76(gp)
   1107c:	8f8c0020 	lw	t4,32(gp)
   11080:	11ac0004 	beq	t5,t4,0x11094
   11084:	388f0001 	xori	t7,a0,0x1
   11088:	31ee0001 	andi	t6,t7,0x1
   1108c:	15c0002f 	bnez	t6,0x1114c
   11090:	00000000 	nop
   11094:	0e001b14 	jal	0x8006c50
   11098:	00000000 	nop
   1109c:	0a001beb 	j	0x8006fac
   110a0:	00000000 	nop
   110a4:	8f890020 	lw	t1,32(gp)
   110a8:	938d0028 	lbu	t5,40(gp)
   110ac:	30ae0003 	andi	t6,a1,0x3
   110b0:	000e4023 	negu	t0,t6
   110b4:	310a0003 	andi	t2,t0,0x3
   110b8:	014d4021 	addu	t0,t2,t5
   110bc:	a3880028 	sb	t0,40(gp)
   110c0:	94cb00ac 	lhu	t3,172(a2)
   110c4:	01276021 	addu	t4,t1,a3
   110c8:	af8c0020 	sw	t4,32(gp)
   110cc:	35691000 	ori	t1,t3,0x1000
   110d0:	a4c900ac 	sh	t1,172(a2)
   110d4:	1220ffb1 	beqz	s1,0x10f9c
   110d8:	01452021 	addu	a0,t2,a1
   110dc:	25180004 	addiu	t8,t0,4
   110e0:	a3980028 	sb	t8,40(gp)
   110e4:	94cf00ac 	lhu	t7,172(a2)
   110e8:	24920004 	addiu	s2,a0,4
   110ec:	af920048 	sw	s2,72(gp)
   110f0:	35f12000 	ori	s1,t7,0x2000
   110f4:	a4d100ac 	sh	s1,172(a2)
   110f8:	0a001b93 	j	0x8006e4c
   110fc:	00002021 	move	a0,zero
   11100:	8c8200dc 	lw	v0,220(a0)
   11104:	1242ff6c 	beq	s2,v0,0x10eb8
   11108:	02202021 	move	a0,s1
   1110c:	24180005 	li	t8,5
   11110:	a3980050 	sb	t8,80(gp)
   11114:	0e0016a9 	jal	0x8005aa4
   11118:	2412ffff 	li	s2,-1
   1111c:	1452ff66 	bne	v0,s2,0x10eb8
   11120:	2404ffff 	li	a0,-1
   11124:	0a001b94 	j	0x8006e50
   11128:	8fbf001c 	lw	ra,28(sp)
   1112c:	30e500ff 	andi	a1,a3,0xff
   11130:	0e0015b0 	jal	0x80056c0
   11134:	00003021 	move	a2,zero
   11138:	8f860024 	lw	a2,36(gp)
   1113c:	8f870048 	lw	a3,72(gp)
   11140:	8f890020 	lw	t1,32(gp)
   11144:	0a001b84 	j	0x8006e10
   11148:	8f85003c 	lw	a1,60(gp)
   1114c:	0e0015db 	jal	0x800576c
   11150:	00000000 	nop
   11154:	0a001beb 	j	0x8006fac
   11158:	00000000 	nop
   1115c:	93830042 	lbu	v1,66(gp)
   11160:	27bdffe0 	addiu	sp,sp,-32
   11164:	24020002 	li	v0,2
   11168:	afb20018 	sw	s2,24(sp)
   1116c:	afb10014 	sw	s1,20(sp)
   11170:	afbf001c 	sw	ra,28(sp)
   11174:	00808821 	move	s1,a0
   11178:	afb00010 	sw	s0,16(sp)
   1117c:	00009021 	move	s2,zero
   11180:	10620055 	beq	v1,v0,0x112d8
   11184:	2404fffd 	li	a0,-3
   11188:	97830044 	lhu	v1,68(gp)
   1118c:	8f850048 	lw	a1,72(gp)
   11190:	3066ffff 	andi	a2,v1,0xffff
   11194:	00c5202b 	sltu	a0,a2,a1
   11198:	1480005b 	bnez	a0,0x11308
   1119c:	93870030 	lbu	a3,48(gp)
   111a0:	3c088000 	lui	t0,0x8000
   111a4:	95040120 	lhu	a0,288(t0)
   111a8:	10e50052 	beq	a3,a1,0x112f4
   111ac:	8f8a0020 	lw	t2,32(gp)
   111b0:	8f84004c 	lw	a0,76(gp)
   111b4:	30a500ff 	andi	a1,a1,0xff
   111b8:	0e0015b0 	jal	0x80056c0
   111bc:	24060001 	li	a2,1
   111c0:	8f9f0054 	lw	ra,84(gp)
   111c4:	3c058000 	lui	a1,0x8000
   111c8:	3c194080 	lui	t9,0x4080
   111cc:	27ed0178 	addiu	t5,ra,376
   111d0:	31b00078 	andi	s0,t5,0x78
   111d4:	240eff80 	li	t6,-128
   111d8:	02195825 	or	t3,s0,t9
   111dc:	34af0900 	ori	t7,a1,0x900
   111e0:	31b80007 	andi	t8,t5,0x7
   111e4:	01ae6024 	and	t4,t5,t6
   111e8:	acac0800 	sw	t4,2048(a1)
   111ec:	030f8021 	addu	s0,t8,t7
   111f0:	acab0810 	sw	t3,2064(a1)
   111f4:	02202021 	move	a0,s1
   111f8:	02002821 	move	a1,s0
   111fc:	0e001b4e 	jal	0x8006d38
   11200:	af900034 	sw	s0,52(gp)
   11204:	2403ffff 	li	v1,-1
   11208:	10430033 	beq	v0,v1,0x112d8
   1120c:	2404ffff 	li	a0,-1
   11210:	8e0c0010 	lw	t4,16(s0)
   11214:	3c070800 	lui	a3,0x800
   11218:	8ce731b0 	lw	a3,12720(a3)
   1121c:	92060000 	lbu	a2,0(s0)
   11220:	31843fff 	andi	a0,t4,0x3fff
   11224:	0087102b 	sltu	v0,a0,a3
   11228:	10400023 	beqz	v0,0x112b8
   1122c:	30cd003f 	andi	t5,a2,0x3f
   11230:	8f980054 	lw	t8,84(gp)
   11234:	00047180 	sll	t6,a0,0x6
   11238:	3c040800 	lui	a0,0x800
   1123c:	8c8431a8 	lw	a0,12712(a0)
   11240:	2409ff80 	li	t1,-128
   11244:	93900041 	lbu	s0,65(gp)
   11248:	00984021 	addu	t0,a0,t8
   1124c:	010e2021 	addu	a0,t0,t6
   11250:	00897024 	and	t6,a0,t1
   11254:	000e5140 	sll	t2,t6,0x5
   11258:	3c098000 	lui	t1,0x8000
   1125c:	3099007f 	andi	t9,a0,0x7f
   11260:	3c0f0080 	lui	t7,0x80
   11264:	8f880024 	lw	t0,36(gp)
   11268:	35250940 	ori	a1,t1,0x940
   1126c:	35e20001 	ori	v0,t7,0x1
   11270:	01593825 	or	a3,t2,t9
   11274:	308b0078 	andi	t3,a0,0x78
   11278:	30860007 	andi	a2,a0,0x7
   1127c:	3c031000 	lui	v1,0x1000
   11280:	3c1f800c 	lui	ra,0x800c
   11284:	00c5c021 	addu	t8,a2,a1
   11288:	01625825 	or	t3,t3,v0
   1128c:	00e35025 	or	t2,a3,v1
   11290:	033f7821 	addu	t7,t9,ra
   11294:	36050001 	ori	a1,s0,0x1
   11298:	ad2e0804 	sw	t6,2052(t1)
   1129c:	af980038 	sw	t8,56(gp)
   112a0:	ad2b0814 	sw	t3,2068(t1)
   112a4:	af8f002c 	sw	t7,44(gp)
   112a8:	ad2e0028 	sw	t6,40(t1)
   112ac:	ad040074 	sw	a0,116(t0)
   112b0:	ad2a0830 	sw	t2,2096(t1)
   112b4:	a3850041 	sb	a1,65(gp)
   112b8:	93830042 	lbu	v1,66(gp)
   112bc:	24100003 	li	s0,3
   112c0:	50700027 	beql	v1,s0,0x11360
   112c4:	25a3ffe0 	addiu	v1,t5,-32
   112c8:	240c0001 	li	t4,1
   112cc:	106c001c 	beq	v1,t4,0x11340
   112d0:	24060023 	li	a2,35
   112d4:	02402021 	move	a0,s2
   112d8:	8fbf001c 	lw	ra,28(sp)
   112dc:	8fb20018 	lw	s2,24(sp)
   112e0:	8fb10014 	lw	s1,20(sp)
   112e4:	8fb00010 	lw	s0,16(sp)
   112e8:	00801021 	move	v0,a0
   112ec:	03e00008 	jr	ra
   112f0:	27bd0020 	addiu	sp,sp,32
   112f4:	31490003 	andi	t1,t2,0x3
   112f8:	5520ffae 	bnezl	t1,0x111b4
   112fc:	8f84004c 	lw	a0,76(gp)
   11300:	0a001c27 	j	0x800709c
   11304:	8f90004c 	lw	s0,76(gp)
   11308:	8f84004c 	lw	a0,76(gp)
   1130c:	306500ff 	andi	a1,v1,0xff
   11310:	0e0015b0 	jal	0x80056c0
   11314:	24060001 	li	a2,1
   11318:	938b0030 	lbu	t3,48(gp)
   1131c:	24050034 	li	a1,52
   11320:	11650018 	beq	t3,a1,0x11384
   11324:	97830044 	lhu	v1,68(gp)
   11328:	8f850048 	lw	a1,72(gp)
   1132c:	3062ffff 	andi	v0,v1,0xffff
   11330:	00a25823 	subu	t3,a1,v0
   11334:	af8b0048 	sw	t3,72(gp)
   11338:	0a001c5f 	j	0x800717c
   1133c:	a7800044 	sh	zero,68(gp)
   11340:	11a60037 	beq	t5,a2,0x11420
   11344:	00000000 	nop
   11348:	02202021 	move	a0,s1
   1134c:	2411000b 	li	s1,11
   11350:	0e0016a9 	jal	0x8005aa4
   11354:	a3910050 	sb	s1,80(gp)
   11358:	0a001c5f 	j	0x800717c
   1135c:	00409021 	move	s2,v0
   11360:	2c720020 	sltiu	s2,v1,32
   11364:	1240fff8 	beqz	s2,0x11348
   11368:	0003f880 	sll	ra,v1,0x2
   1136c:	3c070800 	lui	a3,0x800
   11370:	24e77960 	addiu	a3,a3,31072
   11374:	03e7c821 	addu	t9,ra,a3
   11378:	8f2d0000 	lw	t5,0(t9)
   1137c:	01a00008 	jr	t5
   11380:	00000000 	nop
   11384:	8f850048 	lw	a1,72(gp)
   11388:	2ca20005 	sltiu	v0,a1,5
   1138c:	5440001d 	bnezl	v0,0x11404
   11390:	a7800044 	sh	zero,68(gp)
   11394:	978a0044 	lhu	t2,68(gp)
   11398:	3148ffff 	andi	t0,t2,0xffff
   1139c:	00a84823 	subu	t1,a1,t0
   113a0:	2d2f0005 	sltiu	t7,t1,5
   113a4:	11e00003 	beqz	t7,0x113b4
   113a8:	314400ff 	andi	a0,t2,0xff
   113ac:	24aefffc 	addiu	t6,a1,-4
   113b0:	31c400ff 	andi	a0,t6,0xff
   113b4:	8f90004c 	lw	s0,76(gp)
   113b8:	8f980020 	lw	t8,32(gp)
   113bc:	12180004 	beq	s0,t8,0x113d0
   113c0:	38990001 	xori	t9,a0,0x1
   113c4:	332d0001 	andi	t5,t9,0x1
   113c8:	15a00029 	bnez	t5,0x11470
   113cc:	00000000 	nop
   113d0:	8f910024 	lw	s1,36(gp)
   113d4:	922500c4 	lbu	a1,196(s1)
   113d8:	34a30010 	ori	v1,a1,0x10
   113dc:	a22300c4 	sb	v1,196(s1)
   113e0:	97830044 	lhu	v1,68(gp)
   113e4:	8f850048 	lw	a1,72(gp)
   113e8:	8f840024 	lw	a0,36(gp)
   113ec:	3062ffff 	andi	v0,v1,0xffff
   113f0:	00a25823 	subu	t3,a1,v0
   113f4:	ac8000dc 	sw	zero,220(a0)
   113f8:	a7800044 	sh	zero,68(gp)
   113fc:	0a001c5f 	j	0x800717c
   11400:	af8b0048 	sw	t3,72(gp)
   11404:	3062ffff 	andi	v0,v1,0xffff
   11408:	00a25823 	subu	t3,a1,v0
   1140c:	0a001c5f 	j	0x800717c
   11410:	af8b0048 	sw	t3,72(gp)
   11414:	2403ffff 	li	v1,-1
   11418:	11830005 	beq	t4,v1,0x11430
   1141c:	00000000 	nop
   11420:	0e001981 	jal	0x8006604
   11424:	02202021 	move	a0,s1
   11428:	0a001c5f 	j	0x800717c
   1142c:	00409021 	move	s2,v0
   11430:	0e001908 	jal	0x8006420
   11434:	02202021 	move	a0,s1
   11438:	0a001c5f 	j	0x800717c
   1143c:	00409021 	move	s2,v0
   11440:	0e0019e5 	jal	0x8006794
   11444:	02202021 	move	a0,s1
   11448:	0a001c5f 	j	0x800717c
   1144c:	00409021 	move	s2,v0
   11450:	0e00185f 	jal	0x800617c
   11454:	02202021 	move	a0,s1
   11458:	0a001c5f 	j	0x800717c
   1145c:	00409021 	move	s2,v0
   11460:	0e001a87 	jal	0x8006a1c
   11464:	02202021 	move	a0,s1
   11468:	0a001c5f 	j	0x800717c
   1146c:	00409021 	move	s2,v0
   11470:	0e0015db 	jal	0x800576c
   11474:	00000000 	nop
   11478:	97830044 	lhu	v1,68(gp)
   1147c:	8f850048 	lw	a1,72(gp)
   11480:	306cffff 	andi	t4,v1,0xffff
   11484:	00ac3823 	subu	a3,a1,t4
   11488:	2cff0005 	sltiu	ra,a3,5
   1148c:	53e0ffa8 	beqzl	ra,0x11330
   11490:	3062ffff 	andi	v0,v1,0xffff
   11494:	8f860024 	lw	a2,36(gp)
   11498:	a7800044 	sh	zero,68(gp)
   1149c:	acc200dc 	sw	v0,220(a2)
   114a0:	3062ffff 	andi	v0,v1,0xffff
   114a4:	00a25823 	subu	t3,a1,v0
   114a8:	0a001c5f 	j	0x800717c
   114ac:	af8b0048 	sw	t3,72(gp)
   114b0:	27bdffd0 	addiu	sp,sp,-48
   114b4:	afb20018 	sw	s2,24(sp)
   114b8:	afb00010 	sw	s0,16(sp)
   114bc:	afbf0028 	sw	ra,40(sp)
   114c0:	afb50024 	sw	s5,36(sp)
   114c4:	afb40020 	sw	s4,32(sp)
   114c8:	afb3001c 	sw	s3,28(sp)
   114cc:	afb10014 	sw	s1,20(sp)
   114d0:	3c0c8000 	lui	t4,0x8000
   114d4:	8d880128 	lw	t0,296(t4)
   114d8:	240fff80 	li	t7,-128
   114dc:	3c07800a 	lui	a3,0x800a
   114e0:	25100100 	addiu	s0,t0,256
   114e4:	250b0080 	addiu	t3,t0,128
   114e8:	020f6824 	and	t5,s0,t7
   114ec:	3205007f 	andi	a1,s0,0x7f
   114f0:	016f7024 	and	t6,t3,t7
   114f4:	ad8e0090 	sw	t6,144(t4)
   114f8:	00a72821 	addu	a1,a1,a3
   114fc:	ad8d0024 	sw	t5,36(t4)
   11500:	90a700ec 	lbu	a3,236(a1)
   11504:	3169007f 	andi	t1,t3,0x7f
   11508:	3c0a8004 	lui	t2,0x8004
   1150c:	012a1821 	addu	v1,t1,t2
   11510:	a3870042 	sb	a3,66(gp)
   11514:	9066007c 	lbu	a2,124(v1)
   11518:	00809021 	move	s2,a0
   1151c:	af83001c 	sw	v1,28(gp)
   11520:	30c20002 	andi	v0,a2,0x2
   11524:	af880054 	sw	t0,84(gp)
   11528:	af850024 	sw	a1,36(gp)
   1152c:	00a01821 	move	v1,a1
   11530:	14400002 	bnez	v0,0x1153c
   11534:	24040034 	li	a0,52
   11538:	24040030 	li	a0,48
   1153c:	a3840030 	sb	a0,48(gp)
   11540:	8c6600cc 	lw	a2,204(v1)
   11544:	30f100ff 	andi	s1,a3,0xff
   11548:	24040004 	li	a0,4
   1154c:	af860048 	sw	a2,72(gp)
   11550:	12240004 	beq	s1,a0,0x11564
   11554:	a3800050 	sb	zero,80(gp)
   11558:	8e530004 	lw	s3,4(s2)
   1155c:	1660001d 	bnez	s3,0x115d4
   11560:	3c088000 	lui	t0,0x8000
   11564:	93870041 	lbu	a3,65(gp)
   11568:	30f20001 	andi	s2,a3,0x1
   1156c:	1240000f 	beqz	s2,0x115ac
   11570:	8fbf0028 	lw	ra,40(sp)
   11574:	8cb80074 	lw	t8,116(a1)
   11578:	8ca40074 	lw	a0,116(a1)
   1157c:	2419ff80 	li	t9,-128
   11580:	03198824 	and	s1,t8,t9
   11584:	00117140 	sll	t6,s1,0x5
   11588:	308f007f 	andi	t7,a0,0x7f
   1158c:	01cf6025 	or	t4,t6,t7
   11590:	3c0d2000 	lui	t5,0x2000
   11594:	018d5825 	or	t3,t4,t5
   11598:	30f500fe 	andi	s5,a3,0xfe
   1159c:	3c0a8000 	lui	t2,0x8000
   115a0:	ad4b0830 	sw	t3,2096(t2)
   115a4:	a3950041 	sb	s5,65(gp)
   115a8:	8fbf0028 	lw	ra,40(sp)
   115ac:	8fb50024 	lw	s5,36(sp)
   115b0:	8fb40020 	lw	s4,32(sp)
   115b4:	8fb3001c 	lw	s3,28(sp)
   115b8:	8fb20018 	lw	s2,24(sp)
   115bc:	8fb10014 	lw	s1,20(sp)
   115c0:	8fb00010 	lw	s0,16(sp)
   115c4:	24020001 	li	v0,1
   115c8:	27bd0030 	addiu	sp,sp,48
   115cc:	03e00008 	jr	ra
   115d0:	aca600cc 	sw	a2,204(a1)
   115d4:	8e590008 	lw	t9,8(s2)
   115d8:	951f0120 	lhu	ra,288(t0)
   115dc:	8e460010 	lw	a2,16(s2)
   115e0:	033fc021 	addu	t8,t9,ra
   115e4:	3307ffff 	andi	a3,t8,0xffff
   115e8:	30f5000f 	andi	s5,a3,0xf
   115ec:	32b40001 	andi	s4,s5,0x1
   115f0:	af860020 	sw	a2,32(gp)
   115f4:	1680003b 	bnez	s4,0x116e4
   115f8:	a3950040 	sb	s5,64(gp)
   115fc:	35060c00 	ori	a2,t0,0xc00
   11600:	02a61021 	addu	v0,s5,a2
   11604:	00f51823 	subu	v1,a3,s5
   11608:	ad030084 	sw	v1,132(t0)
   1160c:	af82004c 	sw	v0,76(gp)
   11610:	8e490004 	lw	t1,4(s2)
   11614:	3128ffff 	andi	t0,t1,0xffff
   11618:	1100002b 	beqz	t0,0x116c8
   1161c:	a7890044 	sh	t1,68(gp)
   11620:	2410ff80 	li	s0,-128
   11624:	3c158000 	lui	s5,0x8000
   11628:	3c142000 	lui	s4,0x2000
   1162c:	0a001d4d 	j	0x8007534
   11630:	2413fffe 	li	s3,-2
   11634:	90ae00c4 	lbu	t6,196(a1)
   11638:	020e6824 	and	t5,s0,t6
   1163c:	31ac00ff 	andi	t4,t5,0xff
   11640:	1580002a 	bnez	t4,0x116ec
   11644:	02402021 	move	a0,s2
   11648:	93840041 	lbu	a0,65(gp)
   1164c:	97860044 	lhu	a2,68(gp)
   11650:	308f0001 	andi	t7,a0,0x1
   11654:	11e0000b 	beqz	t7,0x11684
   11658:	02642824 	and	a1,s3,a0
   1165c:	8f890024 	lw	t1,36(gp)
   11660:	8d230074 	lw	v1,116(t1)
   11664:	8d280074 	lw	t0,116(t1)
   11668:	a3850041 	sb	a1,65(gp)
   1166c:	00701024 	and	v0,v1,s0
   11670:	0002c940 	sll	t9,v0,0x5
   11674:	311f007f 	andi	ra,t0,0x7f
   11678:	033fc025 	or	t8,t9,ra
   1167c:	03148825 	or	s1,t8,s4
   11680:	aeb10830 	sw	s1,2096(s5)
   11684:	10c00010 	beqz	a2,0x116c8
   11688:	8f850024 	lw	a1,36(gp)
   1168c:	90a700c4 	lbu	a3,196(a1)
   11690:	02075824 	and	t3,s0,a3
   11694:	316a00ff 	andi	t2,t3,0xff
   11698:	1540ffe6 	bnez	t2,0x11634
   1169c:	02402021 	move	a0,s2
   116a0:	0e001c01 	jal	0x8007004
   116a4:	97910044 	lhu	s1,68(gp)
   116a8:	1040ffe8 	beqz	v0,0x1164c
   116ac:	93840041 	lbu	a0,65(gp)
   116b0:	2405fffd 	li	a1,-3
   116b4:	54450005 	bnel	v0,a1,0x116cc
   116b8:	8e430020 	lw	v1,32(s2)
   116bc:	02202821 	move	a1,s1
   116c0:	0e001586 	jal	0x8005618
   116c4:	02402021 	move	a0,s2
   116c8:	8e430020 	lw	v1,32(s2)
   116cc:	30700004 	andi	s0,v1,0x4
   116d0:	1600000a 	bnez	s0,0x116fc
   116d4:	2414fffb 	li	s4,-5
   116d8:	8f850024 	lw	a1,36(gp)
   116dc:	0a001d03 	j	0x800740c
   116e0:	8f860048 	lw	a2,72(gp)
   116e4:	0a001d2e 	j	0x80074b8
   116e8:	af86004c 	sw	a2,76(gp)
   116ec:	0e00182b 	jal	0x80060ac
   116f0:	00000000 	nop
   116f4:	0a001d3d 	j	0x80074f4
   116f8:	93840041 	lbu	a0,65(gp)
   116fc:	00749824 	and	s3,v1,s4
   11700:	0e0015a0 	jal	0x8005680
   11704:	ae530020 	sw	s3,32(s2)
   11708:	8f850024 	lw	a1,36(gp)
   1170c:	0a001d03 	j	0x800740c
   11710:	8f860048 	lw	a2,72(gp)
   11714:	27bdffd8 	addiu	sp,sp,-40
   11718:	afb3001c 	sw	s3,28(sp)
   1171c:	afb10014 	sw	s1,20(sp)
   11720:	afbf0020 	sw	ra,32(sp)
   11724:	afb20018 	sw	s2,24(sp)
   11728:	afb00010 	sw	s0,16(sp)
   1172c:	3c028000 	lui	v0,0x8000
   11730:	8c520140 	lw	s2,320(v0)
   11734:	8c4b0148 	lw	t3,328(v0)
   11738:	3c048000 	lui	a0,0x8000
   1173c:	000b8c02 	srl	s1,t3,0x10
   11740:	322300ff 	andi	v1,s1,0xff
   11744:	317300ff 	andi	s3,t3,0xff
   11748:	8c8501b8 	lw	a1,440(a0)
   1174c:	04a0fffe 	bltz	a1,0x11748
   11750:	34900180 	ori	s0,a0,0x180
   11754:	ae120000 	sw	s2,0(s0)
   11758:	8c870144 	lw	a3,324(a0)
   1175c:	2464fff0 	addiu	a0,v1,-16
   11760:	24060002 	li	a2,2
   11764:	2c830013 	sltiu	v1,a0,19
   11768:	ae070004 	sw	a3,4(s0)
   1176c:	a6110008 	sh	s1,8(s0)
   11770:	a206000b 	sb	a2,11(s0)
   11774:	ae130024 	sw	s3,36(s0)
   11778:	1060004f 	beqz	v1,0x118b8
   1177c:	8fbf0020 	lw	ra,32(sp)
   11780:	00044880 	sll	t1,a0,0x2
   11784:	3c0a0800 	lui	t2,0x800
   11788:	254a79e0 	addiu	t2,t2,31200
   1178c:	012a4021 	addu	t0,t1,t2
   11790:	8d040000 	lw	a0,0(t0)
   11794:	00800008 	jr	a0
   11798:	00000000 	nop
   1179c:	3c100800 	lui	s0,0x800
   117a0:	8e1031a8 	lw	s0,12712(s0)
   117a4:	31733fff 	andi	s3,t3,0x3fff
   117a8:	00138980 	sll	s1,s3,0x6
   117ac:	02122821 	addu	a1,s0,s2
   117b0:	240cff80 	li	t4,-128
   117b4:	00b12021 	addu	a0,a1,s1
   117b8:	264d0100 	addiu	t5,s2,256
   117bc:	26470080 	addiu	a3,s2,128
   117c0:	3c0f8000 	lui	t7,0x8000
   117c4:	3c038004 	lui	v1,0x8004
   117c8:	31a8007f 	andi	t0,t5,0x7f
   117cc:	30e9007f 	andi	t1,a3,0x7f
   117d0:	308a007f 	andi	t2,a0,0x7f
   117d4:	3c0e800a 	lui	t6,0x800a
   117d8:	3c02800c 	lui	v0,0x800c
   117dc:	008cc024 	and	t8,a0,t4
   117e0:	01ac3024 	and	a2,t5,t4
   117e4:	00ecc824 	and	t9,a3,t4
   117e8:	01239821 	addu	s3,t1,v1
   117ec:	01428021 	addu	s0,t2,v0
   117f0:	ade60024 	sw	a2,36(t7)
   117f4:	010ef821 	addu	ra,t0,t6
   117f8:	adf90090 	sw	t9,144(t7)
   117fc:	adf80028 	sw	t8,40(t7)
   11800:	af90002c 	sw	s0,44(gp)
   11804:	af9f0024 	sw	ra,36(gp)
   11808:	af93001c 	sw	s3,28(gp)
   1180c:	0e001675 	jal	0x80059d4
   11810:	01608021 	move	s0,t3
   11814:	3c038000 	lui	v1,0x8000
   11818:	8c6b01b8 	lw	t3,440(v1)
   1181c:	0560fffe 	bltz	t3,0x11818
   11820:	8f87002c 	lw	a3,44(gp)
   11824:	8f860024 	lw	a2,36(gp)
   11828:	34650180 	ori	a1,v1,0x180
   1182c:	90f9000d 	lbu	t9,13(a3)
   11830:	acb20000 	sw	s2,0(a1)
   11834:	24c20078 	addiu	v0,a2,120
   11838:	0019c600 	sll	t8,t9,0x18
   1183c:	00187e03 	sra	t7,t8,0x18
   11840:	000f9027 	nor	s2,zero,t7
   11844:	001227c2 	srl	a0,s2,0x1f
   11848:	a4b00006 	sh	s0,6(a1)
   1184c:	10800070 	beqz	a0,0x11a10
   11850:	240e6082 	li	t6,24706
   11854:	a4ae0008 	sh	t6,8(a1)
   11858:	a0a00005 	sb	zero,5(a1)
   1185c:	240f0002 	li	t7,2
   11860:	a0af000b 	sb	t7,11(a1)
   11864:	0004c400 	sll	t8,a0,0x10
   11868:	8f8b001c 	lw	t3,28(gp)
   1186c:	3c192700 	lui	t9,0x2700
   11870:	03199025 	or	s2,t8,t9
   11874:	acb20010 	sw	s2,16(a1)
   11878:	aca00014 	sw	zero,20(a1)
   1187c:	aca00024 	sw	zero,36(a1)
   11880:	aca00028 	sw	zero,40(a1)
   11884:	aca0002c 	sw	zero,44(a1)
   11888:	8d730038 	lw	s3,56(t3)
   1188c:	2411ff80 	li	s1,-128
   11890:	acb30018 	sw	s3,24(a1)
   11894:	90f0000d 	lbu	s0,13(a3)
   11898:	02302824 	and	a1,s1,s0
   1189c:	30a400ff 	andi	a0,a1,0xff
   118a0:	10800005 	beqz	a0,0x118b8
   118a4:	8fbf0020 	lw	ra,32(sp)
   118a8:	90ec000d 	lbu	t4,13(a3)
   118ac:	319f007f 	andi	ra,t4,0x7f
   118b0:	a0ff000d 	sb	ra,13(a3)
   118b4:	8fbf0020 	lw	ra,32(sp)
   118b8:	8fb3001c 	lw	s3,28(sp)
   118bc:	8fb20018 	lw	s2,24(sp)
   118c0:	8fb10014 	lw	s1,20(sp)
   118c4:	8fb00010 	lw	s0,16(sp)
   118c8:	3c0a1000 	lui	t2,0x1000
   118cc:	3c0d8000 	lui	t5,0x8000
   118d0:	27bd0028 	addiu	sp,sp,40
   118d4:	03e00008 	jr	ra
   118d8:	adaa01b8 	sw	t2,440(t5)
   118dc:	265f0100 	addiu	ra,s2,256
   118e0:	2405ff80 	li	a1,-128
   118e4:	33f8007f 	andi	t8,ra,0x7f
   118e8:	3c068000 	lui	a2,0x8000
   118ec:	03e57824 	and	t7,ra,a1
   118f0:	3c19800a 	lui	t9,0x800a
   118f4:	03192021 	addu	a0,t8,t9
   118f8:	accf0024 	sw	t7,36(a2)
   118fc:	908e00c4 	lbu	t6,196(a0)
   11900:	00ae6824 	and	t5,a1,t6
   11904:	31ac00ff 	andi	t4,t5,0xff
   11908:	1180ffea 	beqz	t4,0x118b4
   1190c:	af840024 	sw	a0,36(gp)
   11910:	248e0078 	addiu	t6,a0,120
   11914:	95cd0012 	lhu	t5,18(t6)
   11918:	3c0c0800 	lui	t4,0x800
   1191c:	8d8c31a8 	lw	t4,12712(t4)
   11920:	3c03800c 	lui	v1,0x800c
   11924:	31ab3fff 	andi	t3,t5,0x3fff
   11928:	01924821 	addu	t1,t4,s2
   1192c:	000b5180 	sll	t2,t3,0x6
   11930:	012a4021 	addu	t0,t1,t2
   11934:	3104007f 	andi	a0,t0,0x7f
   11938:	01051024 	and	v0,t0,a1
   1193c:	00833821 	addu	a3,a0,v1
   11940:	acc20028 	sw	v0,40(a2)
   11944:	0e001675 	jal	0x80059d4
   11948:	af87002c 	sw	a3,44(gp)
   1194c:	3c038000 	lui	v1,0x8000
   11950:	8c6501b8 	lw	a1,440(v1)
   11954:	04a0fffe 	bltz	a1,0x11950
   11958:	00000000 	nop
   1195c:	ae120000 	sw	s2,0(s0)
   11960:	8c720144 	lw	s2,324(v1)
   11964:	ae120004 	sw	s2,4(s0)
   11968:	a6110008 	sh	s1,8(s0)
   1196c:	24110002 	li	s1,2
   11970:	a211000b 	sb	s1,11(s0)
   11974:	ae130024 	sw	s3,36(s0)
   11978:	0a001dd8 	j	0x8007760
   1197c:	8fbf0020 	lw	ra,32(sp)
   11980:	3c126000 	lui	s2,0x6000
   11984:	8e452c08 	lw	a1,11272(s2)
   11988:	3c03f003 	lui	v1,0xf003
   1198c:	3462ffff 	ori	v0,v1,0xffff
   11990:	00a2f824 	and	ra,a1,v0
   11994:	ae5f2c08 	sw	ra,11272(s2)
   11998:	8e582c08 	lw	t8,11272(s2)
   1199c:	3c1901b0 	lui	t9,0x1b0
   119a0:	03199825 	or	s3,t8,t9
   119a4:	ae532c08 	sw	s3,11272(s2)
   119a8:	0a001dd8 	j	0x8007760
   119ac:	8fbf0020 	lw	ra,32(sp)
   119b0:	264d0100 	addiu	t5,s2,256
   119b4:	31af007f 	andi	t7,t5,0x7f
   119b8:	3c10800a 	lui	s0,0x800a
   119bc:	240eff80 	li	t6,-128
   119c0:	01f02821 	addu	a1,t7,s0
   119c4:	01ae6024 	and	t4,t5,t6
   119c8:	3c0b8000 	lui	t3,0x8000
   119cc:	ad6c0024 	sw	t4,36(t3)
   119d0:	1660ffb8 	bnez	s3,0x118b4
   119d4:	af850024 	sw	a1,36(gp)
   119d8:	24110003 	li	s1,3
   119dc:	a0b100ec 	sb	s1,236(a1)
   119e0:	0a001dd8 	j	0x8007760
   119e4:	8fbf0020 	lw	ra,32(sp)
   119e8:	26480100 	addiu	t0,s2,256
   119ec:	310a007f 	andi	t2,t0,0x7f
   119f0:	3c0b800a 	lui	t3,0x800a
   119f4:	2409ff80 	li	t1,-128
   119f8:	014b3021 	addu	a2,t2,t3
   119fc:	01092024 	and	a0,t0,t1
   11a00:	3c078000 	lui	a3,0x8000
   11a04:	ace40024 	sw	a0,36(a3)
   11a08:	0a001dd7 	j	0x800775c
   11a0c:	af860024 	sw	a2,36(gp)
   11a10:	944d0012 	lhu	t5,18(v0)
   11a14:	321f3fff 	andi	ra,s0,0x3fff
   11a18:	31ac3fff 	andi	t4,t5,0x3fff
   11a1c:	159fff8d 	bne	t4,ra,0x11854
   11a20:	240e6082 	li	t6,24706
   11a24:	90c300c4 	lbu	v1,196(a2)
   11a28:	2409ff80 	li	t1,-128
   11a2c:	01231024 	and	v0,t1,v1
   11a30:	304a00ff 	andi	t2,v0,0xff
   11a34:	1140ff87 	beqz	t2,0x11854
   11a38:	00000000 	nop
   11a3c:	24070004 	li	a3,4
   11a40:	a0c700ec 	sb	a3,236(a2)
   11a44:	8f87002c 	lw	a3,44(gp)
   11a48:	24086084 	li	t0,24708
   11a4c:	2406000d 	li	a2,13
   11a50:	a4a80008 	sh	t0,8(a1)
   11a54:	a0a60005 	sb	a2,5(a1)
   11a58:	0a001dc2 	j	0x8007708
   11a5c:	240f0002 	li	t7,2
   11a60:	5f865437 	.word	0x5f865437
   11a64:	e4ac62cc 	swc1	$f12,25292(a1)
   11a68:	50103a45 	beql	zero,s0,0x20380
   11a6c:	36621985 	ori	v0,s3,0x1985
   11a70:	bf14c0e8 	cache	0x14,-16152(t8)
   11a74:	1bc27a1e 	.word	0x1bc27a1e
   11a78:	84f4b556 	lh	s4,-19114(a3)
   11a7c:	094ea6fe 	j	0x53a9bf8
   11a80:	7dda01e7 	.word	0x7dda01e7
   11a84:	c04d7481 	ll	t5,29825(v0)
   11a88:	80080100 	lb	t0,256(zero)
   11a8c:	80080080 	lb	t0,128(zero)
   11a90:	80080000 	lb	t0,0(zero)
   11a94:	08004fbc 	j	0x13ef0
   11a98:	08004fbc 	j	0x13ef0
   11a9c:	08005098 	j	0x14260
   11aa0:	0800506c 	j	0x141b0
   11aa4:	08005050 	j	0x14140
   11aa8:	08004f8c 	j	0x13e30
   11aac:	08004f8c 	j	0x13e30
   11ab0:	08004f8c 	j	0x13e30
   11ab4:	08004fc4 	j	0x13f10
   11ab8:	080072bc 	j	0x1caf0
   11abc:	08007308 	j	0x1cc20
   11ac0:	080072c8 	j	0x1cb20
   11ac4:	080071f0 	j	0x1c7c0
   11ac8:	080072c8 	j	0x1cb20
   11acc:	080072f8 	j	0x1cbe0
   11ad0:	080072c8 	j	0x1cb20
   11ad4:	080071f0 	j	0x1c7c0
   11ad8:	080071f0 	j	0x1c7c0
   11adc:	080071f0 	j	0x1c7c0
   11ae0:	080071f0 	j	0x1c7c0
   11ae4:	080071f0 	j	0x1c7c0
   11ae8:	080071f0 	j	0x1c7c0
   11aec:	080071f0 	j	0x1c7c0
   11af0:	080071f0 	j	0x1c7c0
   11af4:	080071f0 	j	0x1c7c0
   11af8:	080071f0 	j	0x1c7c0
   11afc:	080072e8 	j	0x1cba0
   11b00:	080072d8 	j	0x1cb60
   11b04:	080071f0 	j	0x1c7c0
   11b08:	080071f0 	j	0x1c7c0
   11b0c:	080071f0 	j	0x1c7c0
   11b10:	080071f0 	j	0x1c7c0
   11b14:	080071f0 	j	0x1c7c0
   11b18:	080071f0 	j	0x1c7c0
   11b1c:	080071f0 	j	0x1c7c0
   11b20:	080071f0 	j	0x1c7c0
   11b24:	080071f0 	j	0x1c7c0
   11b28:	080071f0 	j	0x1c7c0
   11b2c:	080071f0 	j	0x1c7c0
   11b30:	080071f0 	j	0x1c7c0
   11b34:	080072d8 	j	0x1cb60
   11b38:	08007890 	j	0x1e240
   11b3c:	0800775c 	j	0x1dd70
   11b40:	08007858 	j	0x1e160
   11b44:	0800775c 	j	0x1dd70
   11b48:	08007828 	j	0x1e0a0
   11b4c:	08007644 	j	0x1d910
   11b50:	0800775c 	j	0x1dd70
   11b54:	0800775c 	j	0x1dd70
   11b58:	0800775c 	j	0x1dd70
   11b5c:	0800775c 	j	0x1dd70
   11b60:	0800775c 	j	0x1dd70
   11b64:	0800775c 	j	0x1dd70
   11b68:	0800775c 	j	0x1dd70
   11b6c:	0800775c 	j	0x1dd70
   11b70:	0800775c 	j	0x1dd70
   11b74:	0800775c 	j	0x1dd70
   11b78:	0800775c 	j	0x1dd70
   11b7c:	0800775c 	j	0x1dd70
   11b80:	08007784 	j	0x1de10
   11b84:	0a000122 	j	0x8000488
   11b88:	00000000 	nop
   11b8c:	00000000 	nop
   11b90:	0000000d 	break
   11b94:	74706134 	jalx	0x1c184d1
   11b98:	2e362e31 	sltiu	s6,s1,11825
   11b9c:	35000000 	ori	zero,t0,0x0
   11ba0:	04060f01 	.word	0x4060f01
	...
   11c10:	10000003 	b	0x11c20
   11c14:	00000000 	nop
   11c18:	0000000d 	break
   11c1c:	0000000d 	break
   11c20:	3c020800 	lui	v0,0x800
   11c24:	244217c0 	addiu	v0,v0,6080
   11c28:	3c030800 	lui	v1,0x800
   11c2c:	24632ab4 	addiu	v1,v1,10932
   11c30:	ac400000 	sw	zero,0(v0)
   11c34:	0043202b 	sltu	a0,v0,v1
   11c38:	1480fffd 	bnez	a0,0x11c30
   11c3c:	24420004 	addiu	v0,v0,4
   11c40:	3c1d0800 	lui	sp,0x800
   11c44:	37bd2ffc 	ori	sp,sp,0x2ffc
   11c48:	03a0f021 	move	s8,sp
   11c4c:	3c100800 	lui	s0,0x800
   11c50:	26100488 	addiu	s0,s0,1160
   11c54:	3c1c0800 	lui	gp,0x800
   11c58:	279c17c0 	addiu	gp,gp,6080
   11c5c:	0e00025e 	jal	0x8000978
   11c60:	00000000 	nop
   11c64:	0000000d 	break
   11c68:	2402ff80 	li	v0,-128
   11c6c:	27bdffe0 	addiu	sp,sp,-32
   11c70:	00821024 	and	v0,a0,v0
   11c74:	afb00010 	sw	s0,16(sp)
   11c78:	af420020 	sw	v0,32(k0)
   11c7c:	afbf0018 	sw	ra,24(sp)
   11c80:	afb10014 	sw	s1,20(sp)
   11c84:	93650004 	lbu	a1,4(k1)
   11c88:	3084007f 	andi	a0,a0,0x7f
   11c8c:	03441821 	addu	v1,k0,a0
   11c90:	3c020008 	lui	v0,0x8
   11c94:	00621821 	addu	v1,v1,v0
   11c98:	30a50020 	andi	a1,a1,0x20
   11c9c:	03608021 	move	s0,k1
   11ca0:	3c080111 	lui	t0,0x111
   11ca4:	277b0008 	addiu	k1,k1,8
   11ca8:	14a00002 	bnez	a1,0x11cb4
   11cac:	2466005c 	addiu	a2,v1,92
   11cb0:	24660058 	addiu	a2,v1,88
   11cb4:	92020004 	lbu	v0,4(s0)
   11cb8:	97430104 	lhu	v1,260(k0)
   11cbc:	92040004 	lbu	a0,4(s0)
   11cc0:	3047000f 	andi	a3,v0,0xf
   11cc4:	3063ffff 	andi	v1,v1,0xffff
   11cc8:	30840040 	andi	a0,a0,0x40
   11ccc:	00672823 	subu	a1,v1,a3
   11cd0:	10800009 	beqz	a0,0x11cf8
   11cd4:	00004821 	move	t1,zero
   11cd8:	92020005 	lbu	v0,5(s0)
   11cdc:	30420004 	andi	v0,v0,0x4
   11ce0:	10400005 	beqz	v0,0x11cf8
   11ce4:	00000000 	nop
   11ce8:	10a00003 	beqz	a1,0x11cf8
   11cec:	00000000 	nop
   11cf0:	24a5fffc 	addiu	a1,a1,-4
   11cf4:	24090004 	li	t1,4
   11cf8:	92020005 	lbu	v0,5(s0)
   11cfc:	30420004 	andi	v0,v0,0x4
   11d00:	10400012 	beqz	v0,0x11d4c
   11d04:	00000000 	nop
   11d08:	10a00010 	beqz	a1,0x11d4c
   11d0c:	00000000 	nop
   11d10:	96020002 	lhu	v0,2(s0)
   11d14:	00a72021 	addu	a0,a1,a3
   11d18:	01044025 	or	t0,t0,a0
   11d1c:	2442fffe 	addiu	v0,v0,-2
   11d20:	a7421016 	sh	v0,4118(k0)
   11d24:	92030004 	lbu	v1,4(s0)
   11d28:	2402ff80 	li	v0,-128
   11d2c:	00431024 	and	v0,v0,v1
   11d30:	304200ff 	andi	v0,v0,0xff
   11d34:	10400003 	beqz	v0,0x11d44
   11d38:	3c020400 	lui	v0,0x400
   11d3c:	0a000172 	j	0x80005c8
   11d40:	01024025 	or	t0,t0,v0
   11d44:	8cc20000 	lw	v0,0(a2)
   11d48:	af421018 	sw	v0,4120(k0)
   11d4c:	8f420178 	lw	v0,376(k0)
   11d50:	0440fffe 	bltz	v0,0x11d4c
   11d54:	2402000a 	li	v0,10
   11d58:	a7420140 	sh	v0,320(k0)
   11d5c:	96020002 	lhu	v0,2(s0)
   11d60:	24040009 	li	a0,9
   11d64:	30420007 	andi	v0,v0,0x7
   11d68:	00021023 	negu	v0,v0
   11d6c:	30420007 	andi	v0,v0,0x7
   11d70:	a7420142 	sh	v0,322(k0)
   11d74:	96020002 	lhu	v0,2(s0)
   11d78:	2442fffe 	addiu	v0,v0,-2
   11d7c:	a7420144 	sh	v0,324(k0)
   11d80:	a7400146 	sh	zero,326(k0)
   11d84:	97420104 	lhu	v0,260(k0)
   11d88:	a7420148 	sh	v0,328(k0)
   11d8c:	8f420108 	lw	v0,264(k0)
   11d90:	30420020 	andi	v0,v0,0x20
   11d94:	50400001 	beqzl	v0,0x11d9c
   11d98:	24040001 	li	a0,1
   11d9c:	92020004 	lbu	v0,4(s0)
   11da0:	30420010 	andi	v0,v0,0x10
   11da4:	14400002 	bnez	v0,0x11db0
   11da8:	34830010 	ori	v1,a0,0x10
   11dac:	00801821 	move	v1,a0
   11db0:	a743014a 	sh	v1,330(k0)
	...
   11dc4:	af481000 	sw	t0,4096(k0)
	...
   11dd8:	8f421000 	lw	v0,4096(k0)
   11ddc:	0441fffe 	bgez	v0,0x11dd8
   11de0:	3102ffff 	andi	v0,t0,0xffff
   11de4:	10400007 	beqz	v0,0x11e04
   11de8:	00000000 	nop
   11dec:	92020004 	lbu	v0,4(s0)
   11df0:	30420040 	andi	v0,v0,0x40
   11df4:	14400003 	bnez	v0,0x11e04
   11df8:	00000000 	nop
   11dfc:	8f421018 	lw	v0,4120(k0)
   11e00:	acc20000 	sw	v0,0(a2)
   11e04:	96020006 	lhu	v0,6(s0)
   11e08:	3042ffff 	andi	v0,v0,0xffff
   11e0c:	24420002 	addiu	v0,v0,2
   11e10:	00021043 	sra	v0,v0,0x1
   11e14:	00021040 	sll	v0,v0,0x1
   11e18:	03628821 	addu	s1,k1,v0
   11e1c:	96220000 	lhu	v0,0(s1)
   11e20:	1120000d 	beqz	t1,0x11e58
   11e24:	3044ffff 	andi	a0,v0,0xffff
   11e28:	00a71021 	addu	v0,a1,a3
   11e2c:	8f83003c 	lw	v1,60(gp)
   11e30:	8f45101c 	lw	a1,4124(k0)
   11e34:	00021082 	srl	v0,v0,0x2
   11e38:	00021080 	sll	v0,v0,0x2
   11e3c:	00431021 	addu	v0,v0,v1
   11e40:	ac450000 	sw	a1,0(v0)
   11e44:	30a6ffff 	andi	a2,a1,0xffff
   11e48:	0e0005b7 	jal	0x80016dc
   11e4c:	00052c02 	srl	a1,a1,0x10
   11e50:	00402021 	move	a0,v0
   11e54:	a6220000 	sh	v0,0(s1)
   11e58:	92030004 	lbu	v1,4(s0)
   11e5c:	2402ff80 	li	v0,-128
   11e60:	00431024 	and	v0,v0,v1
   11e64:	304200ff 	andi	v0,v0,0xff
   11e68:	1040001f 	beqz	v0,0x11ee8
   11e6c:	00000000 	nop
   11e70:	92020005 	lbu	v0,5(s0)
   11e74:	30420002 	andi	v0,v0,0x2
   11e78:	1040001b 	beqz	v0,0x11ee8
   11e7c:	00000000 	nop
   11e80:	9742100c 	lhu	v0,4108(k0)
   11e84:	2442fffe 	addiu	v0,v0,-2
   11e88:	a7421016 	sh	v0,4118(k0)
   11e8c:	00000000 	nop
   11e90:	3c020400 	lui	v0,0x400
   11e94:	34420030 	ori	v0,v0,0x30
   11e98:	af421000 	sw	v0,4096(k0)
	...
   11eac:	8f421000 	lw	v0,4096(k0)
   11eb0:	0441fffe 	bgez	v0,0x11eac
   11eb4:	00000000 	nop
   11eb8:	9742100c 	lhu	v0,4108(k0)
   11ebc:	8f45101c 	lw	a1,4124(k0)
   11ec0:	3042ffff 	andi	v0,v0,0xffff
   11ec4:	24420030 	addiu	v0,v0,48
   11ec8:	00021082 	srl	v0,v0,0x2
   11ecc:	00021080 	sll	v0,v0,0x2
   11ed0:	005b1021 	addu	v0,v0,k1
   11ed4:	ac450000 	sw	a1,0(v0)
   11ed8:	30a6ffff 	andi	a2,a1,0xffff
   11edc:	0e0005b7 	jal	0x80016dc
   11ee0:	00052c02 	srl	a1,a1,0x10
   11ee4:	a6220000 	sh	v0,0(s1)
   11ee8:	96040002 	lhu	a0,2(s0)
   11eec:	24840008 	addiu	a0,a0,8
   11ef0:	0e0001e7 	jal	0x800079c
   11ef4:	3084ffff 	andi	a0,a0,0xffff
   11ef8:	97440104 	lhu	a0,260(k0)
   11efc:	0e0001f5 	jal	0x80007d4
   11f00:	3084ffff 	andi	a0,a0,0xffff
   11f04:	8fbf0018 	lw	ra,24(sp)
   11f08:	8fb10014 	lw	s1,20(sp)
   11f0c:	8fb00010 	lw	s0,16(sp)
   11f10:	3c021000 	lui	v0,0x1000
   11f14:	27bd0020 	addiu	sp,sp,32
   11f18:	03e00008 	jr	ra
   11f1c:	af420178 	sw	v0,376(k0)
   11f20:	3084ffff 	andi	a0,a0,0xffff
   11f24:	30820007 	andi	v0,a0,0x7
   11f28:	8f850024 	lw	a1,36(gp)
   11f2c:	10400002 	beqz	v0,0x11f38
   11f30:	24830007 	addiu	v1,a0,7
   11f34:	3064fff8 	andi	a0,v1,0xfff8
   11f38:	00a41021 	addu	v0,a1,a0
   11f3c:	30421fff 	andi	v0,v0,0x1fff
   11f40:	03421821 	addu	v1,k0,v0
   11f44:	247b4000 	addiu	k1,v1,16384
   11f48:	af850028 	sw	a1,40(gp)
   11f4c:	af820024 	sw	v0,36(gp)
   11f50:	03e00008 	jr	ra
   11f54:	af420084 	sw	v0,132(k0)
   11f58:	3084ffff 	andi	a0,a0,0xffff
   11f5c:	3082000f 	andi	v0,a0,0xf
   11f60:	8f85002c 	lw	a1,44(gp)
   11f64:	8f860034 	lw	a2,52(gp)
   11f68:	10400002 	beqz	v0,0x11f74
   11f6c:	2483000f 	addiu	v1,a0,15
   11f70:	3064fff0 	andi	a0,v1,0xfff0
   11f74:	00a41021 	addu	v0,a1,a0
   11f78:	0046182b 	sltu	v1,v0,a2
   11f7c:	af850030 	sw	a1,48(gp)
   11f80:	00462023 	subu	a0,v0,a2
   11f84:	14600002 	bnez	v1,0x11f90
   11f88:	af82002c 	sw	v0,44(gp)
   11f8c:	af84002c 	sw	a0,44(gp)
   11f90:	8f82002c 	lw	v0,44(gp)
   11f94:	34048000 	li	a0,0x8000
   11f98:	03421821 	addu	v1,k0,v0
   11f9c:	00641821 	addu	v1,v1,a0
   11fa0:	af83003c 	sw	v1,60(gp)
   11fa4:	03e00008 	jr	ra
   11fa8:	af420080 	sw	v0,128(k0)
   11fac:	8f820014 	lw	v0,20(gp)
   11fb0:	10400008 	beqz	v0,0x11fd4
   11fb4:	8f820004 	lw	v0,4(gp)
   11fb8:	8f82ffe4 	lw	v0,-28(gp)
   11fbc:	14400005 	bnez	v0,0x11fd4
   11fc0:	8f820004 	lw	v0,4(gp)
   11fc4:	3c02ffbf 	lui	v0,0xffbf
   11fc8:	3442ffff 	ori	v0,v0,0xffff
   11fcc:	00822024 	and	a0,a0,v0
   11fd0:	8f820004 	lw	v0,4(gp)
   11fd4:	30430006 	andi	v1,v0,0x6
   11fd8:	24020002 	li	v0,2
   11fdc:	1062000f 	beq	v1,v0,0x1201c
   11fe0:	3c020101 	lui	v0,0x101
   11fe4:	2c620003 	sltiu	v0,v1,3
   11fe8:	50400005 	beqzl	v0,0x12000
   11fec:	24020004 	li	v0,4
   11ff0:	1060000f 	beqz	v1,0x12030
   11ff4:	3c020001 	lui	v0,0x1
   11ff8:	0a00022e 	j	0x80008b8
   11ffc:	00000000 	nop
   12000:	10620005 	beq	v1,v0,0x12018
   12004:	24020006 	li	v0,6
   12008:	1462000c 	bne	v1,v0,0x1203c
   1200c:	3c020111 	lui	v0,0x111
   12010:	0a000227 	j	0x800089c
   12014:	00821025 	or	v0,a0,v0
   12018:	3c020011 	lui	v0,0x11
   1201c:	00821025 	or	v0,a0,v0
   12020:	af421000 	sw	v0,4096(k0)
   12024:	24020001 	li	v0,1
   12028:	0a00022e 	j	0x80008b8
   1202c:	af82000c 	sw	v0,12(gp)
   12030:	00821025 	or	v0,a0,v0
   12034:	af421000 	sw	v0,4096(k0)
   12038:	af80000c 	sw	zero,12(gp)
	...
   12048:	03e00008 	jr	ra
   1204c:	00000000 	nop
   12050:	8f82000c 	lw	v0,12(gp)
   12054:	10400004 	beqz	v0,0x12068
   12058:	00000000 	nop
   1205c:	8f421000 	lw	v0,4096(k0)
   12060:	0441fffe 	bgez	v0,0x1205c
   12064:	00000000 	nop
   12068:	03e00008 	jr	ra
   1206c:	00000000 	nop
   12070:	8f820010 	lw	v0,16(gp)
   12074:	000229c2 	srl	a1,v0,0x7
   12078:	24a3fff0 	addiu	v1,a1,-16
   1207c:	00031842 	srl	v1,v1,0x1
   12080:	2444f800 	addiu	a0,v0,-2048
   12084:	00031140 	sll	v0,v1,0x5
   12088:	00431021 	addu	v0,v0,v1
   1208c:	00021080 	sll	v0,v0,0x2
   12090:	00431021 	addu	v0,v0,v1
   12094:	00021080 	sll	v0,v0,0x2
   12098:	3c030800 	lui	v1,0x800
   1209c:	24631800 	addiu	v1,v1,6144
   120a0:	2c840301 	sltiu	a0,a0,769
   120a4:	14800013 	bnez	a0,0x120f4
   120a8:	00433021 	addu	a2,v0,v1
   120ac:	8f840018 	lw	a0,24(gp)
   120b0:	00a4102b 	sltu	v0,a1,a0
   120b4:	1440000f 	bnez	v0,0x120f4
   120b8:	00003021 	move	a2,zero
   120bc:	00a41023 	subu	v0,a1,a0
   120c0:	00021940 	sll	v1,v0,0x5
   120c4:	00621821 	addu	v1,v1,v0
   120c8:	00031880 	sll	v1,v1,0x2
   120cc:	00621821 	addu	v1,v1,v0
   120d0:	8f82001c 	lw	v0,28(gp)
   120d4:	00821021 	addu	v0,a0,v0
   120d8:	2442ffff 	addiu	v0,v0,-1
   120dc:	0045102b 	sltu	v0,v0,a1
   120e0:	14400004 	bnez	v0,0x120f4
   120e4:	00031880 	sll	v1,v1,0x2
   120e8:	3c020800 	lui	v0,0x800
   120ec:	24421a14 	addiu	v0,v0,6676
   120f0:	00623021 	addu	a2,v1,v0
   120f4:	03e00008 	jr	ra
   120f8:	00c01021 	move	v0,a2
   120fc:	27bdffe0 	addiu	sp,sp,-32
   12100:	afbf0018 	sw	ra,24(sp)
   12104:	afb10014 	sw	s1,20(sp)
   12108:	afb00010 	sw	s0,16(sp)
   1210c:	3c046008 	lui	a0,0x6008
   12110:	8c825000 	lw	v0,20480(a0)
   12114:	2403ff7f 	li	v1,-129
   12118:	3c066000 	lui	a2,0x6000
   1211c:	00431024 	and	v0,v0,v1
   12120:	3442380c 	ori	v0,v0,0x380c
   12124:	ac825000 	sw	v0,20480(a0)
   12128:	8cc24c1c 	lw	v0,19484(a2)
   1212c:	3c1a8000 	lui	k0,0x8000
   12130:	00021602 	srl	v0,v0,0x18
   12134:	3042000f 	andi	v0,v0,0xf
   12138:	10400007 	beqz	v0,0x12158
   1213c:	af82001c 	sw	v0,28(gp)
   12140:	8cc34c1c 	lw	v1,19484(a2)
   12144:	3c02001f 	lui	v0,0x1f
   12148:	3442fc00 	ori	v0,v0,0xfc00
   1214c:	00621824 	and	v1,v1,v0
   12150:	000319c2 	srl	v1,v1,0x7
   12154:	af830018 	sw	v1,24(gp)
   12158:	8f420008 	lw	v0,8(k0)
   1215c:	275b4000 	addiu	k1,k0,16384
   12160:	34420001 	ori	v0,v0,0x1
   12164:	af420008 	sw	v0,8(k0)
   12168:	af800024 	sw	zero,36(gp)
   1216c:	3c02601c 	lui	v0,0x601c
   12170:	af400080 	sw	zero,128(k0)
   12174:	af400084 	sw	zero,132(k0)
   12178:	8c450008 	lw	a1,8(v0)
   1217c:	8cc30808 	lw	v1,2056(a2)
   12180:	34028000 	li	v0,0x8000
   12184:	03422021 	addu	a0,k0,v0
   12188:	2402fff0 	li	v0,-16
   1218c:	00621824 	and	v1,v1,v0
   12190:	3c020080 	lui	v0,0x80
   12194:	3c010800 	lui	at,0x800
   12198:	ac220420 	sw	v0,1056(at)
   1219c:	3c025709 	lui	v0,0x5709
   121a0:	af84003c 	sw	a0,60(gp)
   121a4:	14620004 	bne	v1,v0,0x121b8
   121a8:	af850034 	sw	a1,52(gp)
   121ac:	24020001 	li	v0,1
   121b0:	0a00028e 	j	0x8000a38
   121b4:	af820014 	sw	v0,20(gp)
   121b8:	af800014 	sw	zero,20(gp)
   121bc:	3c028000 	lui	v0,0x8000
   121c0:	34440070 	ori	a0,v0,0x70
   121c4:	8c830000 	lw	v1,0(a0)
   121c8:	8f420000 	lw	v0,0(k0)
   121cc:	38420001 	xori	v0,v0,0x1
   121d0:	30420001 	andi	v0,v0,0x1
   121d4:	10400018 	beqz	v0,0x12238
   121d8:	af830038 	sw	v1,56(gp)
   121dc:	00804021 	move	t0,a0
   121e0:	00603021 	move	a2,v1
   121e4:	8d070000 	lw	a3,0(t0)
   121e8:	3c050800 	lui	a1,0x800
   121ec:	8ca5045c 	lw	a1,1116(a1)
   121f0:	3c040800 	lui	a0,0x800
   121f4:	8c840458 	lw	a0,1112(a0)
   121f8:	00e63023 	subu	a2,a3,a2
   121fc:	00001021 	move	v0,zero
   12200:	00a62821 	addu	a1,a1,a2
   12204:	00a6302b 	sltu	a2,a1,a2
   12208:	00822021 	addu	a0,a0,v0
   1220c:	00862021 	addu	a0,a0,a2
   12210:	3c010800 	lui	at,0x800
   12214:	ac25045c 	sw	a1,1116(at)
   12218:	3c010800 	lui	at,0x800
   1221c:	ac240458 	sw	a0,1112(at)
   12220:	8f420000 	lw	v0,0(k0)
   12224:	38420001 	xori	v0,v0,0x1
   12228:	30420001 	andi	v0,v0,0x1
   1222c:	1440ffed 	bnez	v0,0x121e4
   12230:	00e03021 	move	a2,a3
   12234:	af870038 	sw	a3,56(gp)
   12238:	3c028000 	lui	v0,0x8000
   1223c:	34420070 	ori	v0,v0,0x70
   12240:	8c470000 	lw	a3,0(v0)
   12244:	8f860038 	lw	a2,56(gp)
   12248:	3c050800 	lui	a1,0x800
   1224c:	8ca5045c 	lw	a1,1116(a1)
   12250:	3c040800 	lui	a0,0x800
   12254:	8c840458 	lw	a0,1112(a0)
   12258:	00e63823 	subu	a3,a3,a2
   1225c:	00001021 	move	v0,zero
   12260:	00a72821 	addu	a1,a1,a3
   12264:	00822021 	addu	a0,a0,v0
   12268:	8f820014 	lw	v0,20(gp)
   1226c:	00a7302b 	sltu	a2,a1,a3
   12270:	00862021 	addu	a0,a0,a2
   12274:	3c010800 	lui	at,0x800
   12278:	ac25045c 	sw	a1,1116(at)
   1227c:	3c010800 	lui	at,0x800
   12280:	ac240458 	sw	a0,1112(at)
   12284:	10400016 	beqz	v0,0x122e0
   12288:	00000000 	nop
   1228c:	97420104 	lhu	v0,260(k0)
   12290:	10400005 	beqz	v0,0x122a8
   12294:	8f830000 	lw	v1,0(gp)
   12298:	14600007 	bnez	v1,0x122b8
   1229c:	2462ffff 	addiu	v0,v1,-1
   122a0:	0a0002d0 	j	0x8000b40
   122a4:	2c62000a 	sltiu	v0,v1,10
   122a8:	2c620010 	sltiu	v0,v1,16
   122ac:	50400004 	beqzl	v0,0x122c0
   122b0:	8f830000 	lw	v1,0(gp)
   122b4:	24620001 	addiu	v0,v1,1
   122b8:	af820000 	sw	v0,0(gp)
   122bc:	8f830000 	lw	v1,0(gp)
   122c0:	2c62000a 	sltiu	v0,v1,10
   122c4:	14400003 	bnez	v0,0x122d4
   122c8:	2c620007 	sltiu	v0,v1,7
   122cc:	0a0002d7 	j	0x8000b5c
   122d0:	af80ffe4 	sw	zero,-28(gp)
   122d4:	10400002 	beqz	v0,0x122e0
   122d8:	24020001 	li	v0,1
   122dc:	af82ffe4 	sw	v0,-28(gp)
   122e0:	8f430108 	lw	v1,264(k0)
   122e4:	8f440100 	lw	a0,256(k0)
   122e8:	30622000 	andi	v0,v1,0x2000
   122ec:	af830004 	sw	v1,4(gp)
   122f0:	10400008 	beqz	v0,0x12314
   122f4:	af840010 	sw	a0,16(gp)
   122f8:	3c020800 	lui	v0,0x800
   122fc:	8c42042c 	lw	v0,1068(v0)
   12300:	24420001 	addiu	v0,v0,1
   12304:	3c010800 	lui	at,0x800
   12308:	ac22042c 	sw	v0,1068(at)
   1230c:	0a0005b3 	j	0x80016cc
   12310:	3c024000 	lui	v0,0x4000
   12314:	30650200 	andi	a1,v1,0x200
   12318:	14a00003 	bnez	a1,0x12328
   1231c:	24020f00 	li	v0,3840
   12320:	14820260 	bne	a0,v0,0x12ca4
   12324:	24020d00 	li	v0,3328
   12328:	97420104 	lhu	v0,260(k0)
   1232c:	104002c8 	beqz	v0,0x12e50
   12330:	3c024000 	lui	v0,0x4000
   12334:	30624000 	andi	v0,v1,0x4000
   12338:	144000ad 	bnez	v0,0x125f0
   1233c:	8f82003c 	lw	v0,60(gp)
   12340:	8c440008 	lw	a0,8(v0)
   12344:	8f420178 	lw	v0,376(k0)
   12348:	0440fffe 	bltz	v0,0x12344
   1234c:	24020800 	li	v0,2048
   12350:	af420178 	sw	v0,376(k0)
   12354:	24020008 	li	v0,8
   12358:	a7420140 	sh	v0,320(k0)
   1235c:	a7400142 	sh	zero,322(k0)
   12360:	97420104 	lhu	v0,260(k0)
   12364:	8f840004 	lw	a0,4(gp)
   12368:	3051ffff 	andi	s1,v0,0xffff
   1236c:	30820001 	andi	v0,a0,0x1
   12370:	10400007 	beqz	v0,0x12390
   12374:	02208021 	move	s0,s1
   12378:	2623fffe 	addiu	v1,s1,-2
   1237c:	24020002 	li	v0,2
   12380:	3070ffff 	andi	s0,v1,0xffff
   12384:	a7420146 	sh	v0,326(k0)
   12388:	0a000304 	j	0x8000c10
   1238c:	a7430148 	sh	v1,328(k0)
   12390:	a7400146 	sh	zero,326(k0)
   12394:	3c020800 	lui	v0,0x800
   12398:	8c42043c 	lw	v0,1084(v0)
   1239c:	1440000d 	bnez	v0,0x123d4
   123a0:	8f830010 	lw	v1,16(gp)
   123a4:	30820020 	andi	v0,a0,0x20
   123a8:	14400002 	bnez	v0,0x123b4
   123ac:	24030009 	li	v1,9
   123b0:	24030001 	li	v1,1
   123b4:	00602021 	move	a0,v1
   123b8:	8f830010 	lw	v1,16(gp)
   123bc:	24020900 	li	v0,2304
   123c0:	50620001 	beql	v1,v0,0x123c8
   123c4:	34840004 	ori	a0,a0,0x4
   123c8:	a744014a 	sh	a0,330(k0)
   123cc:	0a00031f 	j	0x8000c7c
   123d0:	00000000 	nop
   123d4:	24020f00 	li	v0,3840
   123d8:	14620005 	bne	v1,v0,0x123f0
   123dc:	30820020 	andi	v0,a0,0x20
   123e0:	14400006 	bnez	v0,0x123fc
   123e4:	2403000d 	li	v1,13
   123e8:	0a00031e 	j	0x8000c78
   123ec:	24030005 	li	v1,5
   123f0:	14400002 	bnez	v0,0x123fc
   123f4:	24030009 	li	v1,9
   123f8:	24030001 	li	v1,1
   123fc:	a743014a 	sh	v1,330(k0)
   12400:	3c020800 	lui	v0,0x800
   12404:	8c420420 	lw	v0,1056(v0)
   12408:	3c040048 	lui	a0,0x48
   1240c:	0e00020a 	jal	0x8000828
   12410:	00442025 	or	a0,v0,a0
   12414:	0e000233 	jal	0x80008cc
   12418:	00000000 	nop
   1241c:	8f82000c 	lw	v0,12(gp)
   12420:	1040003e 	beqz	v0,0x1251c
   12424:	00000000 	nop
   12428:	8f421000 	lw	v0,4096(k0)
   1242c:	3c030020 	lui	v1,0x20
   12430:	00431024 	and	v0,v0,v1
   12434:	10400039 	beqz	v0,0x1251c
   12438:	8f820004 	lw	v0,4(gp)
   1243c:	30420002 	andi	v0,v0,0x2
   12440:	10400036 	beqz	v0,0x1251c
   12444:	00000000 	nop
   12448:	97421014 	lhu	v0,4116(k0)
   1244c:	14400033 	bnez	v0,0x1251c
   12450:	00000000 	nop
   12454:	97421008 	lhu	v0,4104(k0)
   12458:	8f88003c 	lw	t0,60(gp)
   1245c:	3042ffff 	andi	v0,v0,0xffff
   12460:	24420006 	addiu	v0,v0,6
   12464:	00021882 	srl	v1,v0,0x2
   12468:	00033880 	sll	a3,v1,0x2
   1246c:	00e83021 	addu	a2,a3,t0
   12470:	30430001 	andi	v1,v0,0x1
   12474:	8cc40000 	lw	a0,0(a2)
   12478:	10600004 	beqz	v1,0x1248c
   1247c:	30420003 	andi	v0,v0,0x3
   12480:	0000000d 	break
   12484:	0a000360 	j	0x8000d80
   12488:	00e81021 	addu	v0,a3,t0
   1248c:	54400010 	bnezl	v0,0x124d0
   12490:	3084ffff 	andi	a0,a0,0xffff
   12494:	3c05ffff 	lui	a1,0xffff
   12498:	00852024 	and	a0,a0,a1
   1249c:	00851826 	xor	v1,a0,a1
   124a0:	0003182b 	sltu	v1,zero,v1
   124a4:	0004102b 	sltu	v0,zero,a0
   124a8:	00431024 	and	v0,v0,v1
   124ac:	10400005 	beqz	v0,0x124c4
   124b0:	00000000 	nop
   124b4:	00000000 	nop
   124b8:	0000000d 	break
   124bc:	00000000 	nop
   124c0:	240001cb 	li	zero,459
   124c4:	8cc20000 	lw	v0,0(a2)
   124c8:	0a00035f 	j	0x8000d7c
   124cc:	00452025 	or	a0,v0,a1
   124d0:	3883ffff 	xori	v1,a0,0xffff
   124d4:	0003182b 	sltu	v1,zero,v1
   124d8:	0004102b 	sltu	v0,zero,a0
   124dc:	00431024 	and	v0,v0,v1
   124e0:	10400005 	beqz	v0,0x124f8
   124e4:	00000000 	nop
   124e8:	00000000 	nop
   124ec:	0000000d 	break
   124f0:	00000000 	nop
   124f4:	240001d4 	li	zero,468
   124f8:	8cc20000 	lw	v0,0(a2)
   124fc:	3444ffff 	ori	a0,v0,0xffff
   12500:	00e81021 	addu	v0,a3,t0
   12504:	ac440000 	sw	a0,0(v0)
   12508:	3c020800 	lui	v0,0x800
   1250c:	8c420430 	lw	v0,1072(v0)
   12510:	24420001 	addiu	v0,v0,1
   12514:	3c010800 	lui	at,0x800
   12518:	ac220430 	sw	v0,1072(at)
   1251c:	8f620000 	lw	v0,0(k1)
   12520:	8f84003c 	lw	a0,60(gp)
   12524:	af820008 	sw	v0,8(gp)
   12528:	8c830000 	lw	v1,0(a0)
   1252c:	3402ffff 	li	v0,0xffff
   12530:	1462000f 	bne	v1,v0,0x12570
   12534:	00001021 	move	v0,zero
   12538:	3c050800 	lui	a1,0x800
   1253c:	8ca50454 	lw	a1,1108(a1)
   12540:	3c040800 	lui	a0,0x800
   12544:	8c840450 	lw	a0,1104(a0)
   12548:	00b02821 	addu	a1,a1,s0
   1254c:	00b0302b 	sltu	a2,a1,s0
   12550:	00822021 	addu	a0,a0,v0
   12554:	00862021 	addu	a0,a0,a2
   12558:	3c010800 	lui	at,0x800
   1255c:	ac250454 	sw	a1,1108(at)
   12560:	3c010800 	lui	at,0x800
   12564:	ac240450 	sw	a0,1104(at)
   12568:	0a0005a9 	j	0x80016a4
   1256c:	24040008 	li	a0,8
   12570:	8c820000 	lw	v0,0(a0)
   12574:	30420100 	andi	v0,v0,0x100
   12578:	1040000f 	beqz	v0,0x125b8
   1257c:	00001021 	move	v0,zero
   12580:	3c050800 	lui	a1,0x800
   12584:	8ca5044c 	lw	a1,1100(a1)
   12588:	3c040800 	lui	a0,0x800
   1258c:	8c840448 	lw	a0,1096(a0)
   12590:	00b02821 	addu	a1,a1,s0
   12594:	00b0302b 	sltu	a2,a1,s0
   12598:	00822021 	addu	a0,a0,v0
   1259c:	00862021 	addu	a0,a0,a2
   125a0:	3c010800 	lui	at,0x800
   125a4:	ac25044c 	sw	a1,1100(at)
   125a8:	3c010800 	lui	at,0x800
   125ac:	ac240448 	sw	a0,1096(at)
   125b0:	0a0005a9 	j	0x80016a4
   125b4:	24040008 	li	a0,8
   125b8:	3c050800 	lui	a1,0x800
   125bc:	8ca50444 	lw	a1,1092(a1)
   125c0:	3c040800 	lui	a0,0x800
   125c4:	8c840440 	lw	a0,1088(a0)
   125c8:	00b02821 	addu	a1,a1,s0
   125cc:	00b0302b 	sltu	a2,a1,s0
   125d0:	00822021 	addu	a0,a0,v0
   125d4:	00862021 	addu	a0,a0,a2
   125d8:	3c010800 	lui	at,0x800
   125dc:	ac250444 	sw	a1,1092(at)
   125e0:	3c010800 	lui	at,0x800
   125e4:	ac240440 	sw	a0,1088(at)
   125e8:	0a0005a9 	j	0x80016a4
   125ec:	24040008 	li	a0,8
   125f0:	8f620008 	lw	v0,8(k1)
   125f4:	8f620000 	lw	v0,0(k1)
   125f8:	00021602 	srl	v0,v0,0x18
   125fc:	304300f0 	andi	v1,v0,0xf0
   12600:	24020030 	li	v0,48
   12604:	10620005 	beq	v1,v0,0x1261c
   12608:	24020040 	li	v0,64
   1260c:	106200e0 	beq	v1,v0,0x12990
   12610:	8f820020 	lw	v0,32(gp)
   12614:	0a0005b1 	j	0x80016c4
   12618:	24420001 	addiu	v0,v0,1
   1261c:	14a00005 	bnez	a1,0x12634
   12620:	00000000 	nop
   12624:	00000000 	nop
   12628:	0000000d 	break
   1262c:	00000000 	nop
   12630:	240001fe 	li	zero,510
   12634:	8f420178 	lw	v0,376(k0)
   12638:	0440fffe 	bltz	v0,0x12634
   1263c:	00000000 	nop
   12640:	0e00023b 	jal	0x80008ec
   12644:	00000000 	nop
   12648:	14400005 	bnez	v0,0x12660
   1264c:	00408021 	move	s0,v0
   12650:	00000000 	nop
   12654:	0000000d 	break
   12658:	00000000 	nop
   1265c:	24000205 	li	zero,517
   12660:	8e020000 	lw	v0,0(s0)
   12664:	10400005 	beqz	v0,0x1267c
   12668:	00000000 	nop
   1266c:	00000000 	nop
   12670:	0000000d 	break
   12674:	00000000 	nop
   12678:	24000208 	li	zero,520
   1267c:	8f62000c 	lw	v0,12(k1)
   12680:	04430003 	bgezl	v0,0x12690
   12684:	24020001 	li	v0,1
   12688:	0a000457 	j	0x800115c
   1268c:	ae000000 	sw	zero,0(s0)
   12690:	ae020000 	sw	v0,0(s0)
   12694:	8f82003c 	lw	v0,60(gp)
   12698:	8c480008 	lw	t0,8(v0)
   1269c:	a2000007 	sb	zero,7(s0)
   126a0:	8f65000c 	lw	a1,12(k1)
   126a4:	8f640004 	lw	a0,4(k1)
   126a8:	30a3ffff 	andi	v1,a1,0xffff
   126ac:	00042402 	srl	a0,a0,0x10
   126b0:	00852023 	subu	a0,a0,a1
   126b4:	308200ff 	andi	v0,a0,0xff
   126b8:	00431021 	addu	v0,v0,v1
   126bc:	24420005 	addiu	v0,v0,5
   126c0:	00023083 	sra	a2,v0,0x2
   126c4:	2cc20081 	sltiu	v0,a2,129
   126c8:	a605000a 	sh	a1,10(s0)
   126cc:	14400005 	bnez	v0,0x126e4
   126d0:	a2040004 	sb	a0,4(s0)
   126d4:	00000000 	nop
   126d8:	0000000d 	break
   126dc:	00000000 	nop
   126e0:	24000220 	li	zero,544
   126e4:	8f85003c 	lw	a1,60(gp)
   126e8:	0e0005d5 	jal	0x8001754
   126ec:	26040014 	addiu	a0,s0,20
   126f0:	8f620004 	lw	v0,4(k1)
   126f4:	8f430108 	lw	v1,264(k0)
   126f8:	a6020008 	sh	v0,8(s0)
   126fc:	3c021000 	lui	v0,0x1000
   12700:	00621824 	and	v1,v1,v0
   12704:	10600008 	beqz	v1,0x12728
   12708:	00000000 	nop
   1270c:	97420104 	lhu	v0,260(k0)
   12710:	92030007 	lbu	v1,7(s0)
   12714:	2442ffec 	addiu	v0,v0,-20
   12718:	34630002 	ori	v1,v1,0x2
   1271c:	3045ffff 	andi	a1,v0,0xffff
   12720:	0a0003ec 	j	0x8000fb0
   12724:	a2030007 	sb	v1,7(s0)
   12728:	97420104 	lhu	v0,260(k0)
   1272c:	2442fff0 	addiu	v0,v0,-16
   12730:	3045ffff 	andi	a1,v0,0xffff
   12734:	96060008 	lhu	a2,8(s0)
   12738:	2cc20013 	sltiu	v0,a2,19
   1273c:	54400005 	bnezl	v0,0x12754
   12740:	92030007 	lbu	v1,7(s0)
   12744:	92020007 	lbu	v0,7(s0)
   12748:	34420001 	ori	v0,v0,0x1
   1274c:	a2020007 	sb	v0,7(s0)
   12750:	92030007 	lbu	v1,7(s0)
   12754:	24020001 	li	v0,1
   12758:	10620005 	beq	v1,v0,0x12770
   1275c:	24020003 	li	v0,3
   12760:	1062000b 	beq	v1,v0,0x12790
   12764:	8f82003c 	lw	v0,60(gp)
   12768:	0a000409 	j	0x8001024
   1276c:	30c6ffff 	andi	a2,a2,0xffff
   12770:	8f82003c 	lw	v0,60(gp)
   12774:	3c04ffff 	lui	a0,0xffff
   12778:	8c43000c 	lw	v1,12(v0)
   1277c:	00641824 	and	v1,v1,a0
   12780:	00651825 	or	v1,v1,a1
   12784:	ac43000c 	sw	v1,12(v0)
   12788:	0a000409 	j	0x8001024
   1278c:	30c6ffff 	andi	a2,a2,0xffff
   12790:	3c04ffff 	lui	a0,0xffff
   12794:	8c430010 	lw	v1,16(v0)
   12798:	00641824 	and	v1,v1,a0
   1279c:	00651825 	or	v1,v1,a1
   127a0:	ac430010 	sw	v1,16(v0)
   127a4:	30c6ffff 	andi	a2,a2,0xffff
   127a8:	24c20002 	addiu	v0,a2,2
   127ac:	00021083 	sra	v0,v0,0x2
   127b0:	a2020005 	sb	v0,5(s0)
   127b4:	8f83003c 	lw	v1,60(gp)
   127b8:	304200ff 	andi	v0,v0,0xff
   127bc:	00021080 	sll	v0,v0,0x2
   127c0:	00432821 	addu	a1,v0,v1
   127c4:	8ca80000 	lw	t0,0(a1)
   127c8:	8ca20000 	lw	v0,0(a1)
   127cc:	24030004 	li	v1,4
   127d0:	00021702 	srl	v0,v0,0x1c
   127d4:	14430012 	bne	v0,v1,0x12820
   127d8:	00000000 	nop
   127dc:	97420104 	lhu	v0,260(k0)
   127e0:	3c03ffff 	lui	v1,0xffff
   127e4:	01031824 	and	v1,t0,v1
   127e8:	3042ffff 	andi	v0,v0,0xffff
   127ec:	00461023 	subu	v0,v0,a2
   127f0:	2442fffe 	addiu	v0,v0,-2
   127f4:	00624025 	or	t0,v1,v0
   127f8:	aca80000 	sw	t0,0(a1)
   127fc:	92030005 	lbu	v1,5(s0)
   12800:	306200ff 	andi	v0,v1,0xff
   12804:	00021080 	sll	v0,v0,0x2
   12808:	00501021 	addu	v0,v0,s0
   1280c:	90420014 	lbu	v0,20(v0)
   12810:	3042000f 	andi	v0,v0,0xf
   12814:	00431021 	addu	v0,v0,v1
   12818:	0a00043e 	j	0x80010f8
   1281c:	a2020006 	sb	v0,6(s0)
   12820:	8ca40004 	lw	a0,4(a1)
   12824:	97420104 	lhu	v0,260(k0)
   12828:	9603000a 	lhu	v1,10(s0)
   1282c:	3088ffff 	andi	t0,a0,0xffff
   12830:	3042ffff 	andi	v0,v0,0xffff
   12834:	00461023 	subu	v0,v0,a2
   12838:	2442ffd6 	addiu	v0,v0,-42
   1283c:	00021400 	sll	v0,v0,0x10
   12840:	01024025 	or	t0,t0,v0
   12844:	aca80004 	sw	t0,4(a1)
   12848:	92020007 	lbu	v0,7(s0)
   1284c:	92040005 	lbu	a0,5(s0)
   12850:	24630028 	addiu	v1,v1,40
   12854:	00031883 	sra	v1,v1,0x2
   12858:	00641821 	addu	v1,v1,a0
   1285c:	34420004 	ori	v0,v0,0x4
   12860:	a2030006 	sb	v1,6(s0)
   12864:	a2020007 	sb	v0,7(s0)
   12868:	8f820004 	lw	v0,4(gp)
   1286c:	2403fffb 	li	v1,-5
   12870:	34420002 	ori	v0,v0,0x2
   12874:	00431024 	and	v0,v0,v1
   12878:	af820004 	sw	v0,4(gp)
   1287c:	92030006 	lbu	v1,6(s0)
   12880:	8f87003c 	lw	a3,60(gp)
   12884:	00031880 	sll	v1,v1,0x2
   12888:	00701021 	addu	v0,v1,s0
   1288c:	8c440020 	lw	a0,32(v0)
   12890:	3c02fff6 	lui	v0,0xfff6
   12894:	3442ffff 	ori	v0,v0,0xffff
   12898:	00824024 	and	t0,a0,v0
   1289c:	00671821 	addu	v1,v1,a3
   128a0:	ae04000c 	sw	a0,12(s0)
   128a4:	ac68000c 	sw	t0,12(v1)
   128a8:	92050006 	lbu	a1,6(s0)
   128ac:	3c03ff7f 	lui	v1,0xff7f
   128b0:	8e02000c 	lw	v0,12(s0)
   128b4:	00052880 	sll	a1,a1,0x2
   128b8:	00b02021 	addu	a0,a1,s0
   128bc:	3463ffff 	ori	v1,v1,0xffff
   128c0:	01033024 	and	a2,t0,v1
   128c4:	94880026 	lhu	t0,38(a0)
   128c8:	00a72821 	addu	a1,a1,a3
   128cc:	00431024 	and	v0,v0,v1
   128d0:	ae02000c 	sw	v0,12(s0)
   128d4:	ac860020 	sw	a2,32(a0)
   128d8:	ac880024 	sw	t0,36(a0)
   128dc:	aca80010 	sw	t0,16(a1)
   128e0:	24020010 	li	v0,16
   128e4:	a7420140 	sh	v0,320(k0)
   128e8:	24020002 	li	v0,2
   128ec:	a7400142 	sh	zero,322(k0)
   128f0:	a7400144 	sh	zero,324(k0)
   128f4:	a7420146 	sh	v0,326(k0)
   128f8:	97420104 	lhu	v0,260(k0)
   128fc:	3c040008 	lui	a0,0x8
   12900:	2442fffe 	addiu	v0,v0,-2
   12904:	a7420148 	sh	v0,328(k0)
   12908:	24020001 	li	v0,1
   1290c:	0e00020a 	jal	0x8000828
   12910:	a742014a 	sh	v0,330(k0)
   12914:	9603000a 	lhu	v1,10(s0)
   12918:	92020004 	lbu	v0,4(s0)
   1291c:	00431021 	addu	v0,v0,v1
   12920:	24420002 	addiu	v0,v0,2
   12924:	30420007 	andi	v0,v0,0x7
   12928:	00021023 	negu	v0,v0
   1292c:	30420007 	andi	v0,v0,0x7
   12930:	0e000233 	jal	0x80008cc
   12934:	ae020010 	sw	v0,16(s0)
   12938:	8f620000 	lw	v0,0(k1)
   1293c:	3c030800 	lui	v1,0x800
   12940:	8c630444 	lw	v1,1092(v1)
   12944:	24040010 	li	a0,16
   12948:	af820008 	sw	v0,8(gp)
   1294c:	97420104 	lhu	v0,260(k0)
   12950:	3042ffff 	andi	v0,v0,0xffff
   12954:	2442fffe 	addiu	v0,v0,-2
   12958:	00403821 	move	a3,v0
   1295c:	000237c3 	sra	a2,v0,0x1f
   12960:	3c020800 	lui	v0,0x800
   12964:	8c420440 	lw	v0,1088(v0)
   12968:	00671821 	addu	v1,v1,a3
   1296c:	0067282b 	sltu	a1,v1,a3
   12970:	00461021 	addu	v0,v0,a2
   12974:	00451021 	addu	v0,v0,a1
   12978:	3c010800 	lui	at,0x800
   1297c:	ac230444 	sw	v1,1092(at)
   12980:	3c010800 	lui	at,0x800
   12984:	ac220440 	sw	v0,1088(at)
   12988:	0a00053e 	j	0x80014f8
   1298c:	00000000 	nop
   12990:	14a00005 	bnez	a1,0x129a8
   12994:	00000000 	nop
   12998:	00000000 	nop
   1299c:	0000000d 	break
   129a0:	00000000 	nop
   129a4:	2400029e 	li	zero,670
   129a8:	8f420178 	lw	v0,376(k0)
   129ac:	0440fffe 	bltz	v0,0x129a8
   129b0:	00000000 	nop
   129b4:	0e00023b 	jal	0x80008ec
   129b8:	00000000 	nop
   129bc:	14400005 	bnez	v0,0x129d4
   129c0:	00408021 	move	s0,v0
   129c4:	00000000 	nop
   129c8:	0000000d 	break
   129cc:	00000000 	nop
   129d0:	240002a5 	li	zero,677
   129d4:	8e020000 	lw	v0,0(s0)
   129d8:	54400006 	bnezl	v0,0x129f4
   129dc:	92020007 	lbu	v0,7(s0)
   129e0:	00000000 	nop
   129e4:	0000000d 	break
   129e8:	00000000 	nop
   129ec:	240002a8 	li	zero,680
   129f0:	92020007 	lbu	v0,7(s0)
   129f4:	30420004 	andi	v0,v0,0x4
   129f8:	10400005 	beqz	v0,0x12a10
   129fc:	8f820004 	lw	v0,4(gp)
   12a00:	2403fffb 	li	v1,-5
   12a04:	34420002 	ori	v0,v0,0x2
   12a08:	00431024 	and	v0,v0,v1
   12a0c:	af820004 	sw	v0,4(gp)
   12a10:	8f620004 	lw	v0,4(k1)
   12a14:	04430008 	bgezl	v0,0x12a38
   12a18:	92020007 	lbu	v0,7(s0)
   12a1c:	92020006 	lbu	v0,6(s0)
   12a20:	8e03000c 	lw	v1,12(s0)
   12a24:	ae000000 	sw	zero,0(s0)
   12a28:	00021080 	sll	v0,v0,0x2
   12a2c:	00501021 	addu	v0,v0,s0
   12a30:	ac430020 	sw	v1,32(v0)
   12a34:	92020007 	lbu	v0,7(s0)
   12a38:	30420004 	andi	v0,v0,0x4
   12a3c:	54400009 	bnezl	v0,0x12a64
   12a40:	9602000a 	lhu	v0,10(s0)
   12a44:	92020005 	lbu	v0,5(s0)
   12a48:	3c030001 	lui	v1,0x1
   12a4c:	00021080 	sll	v0,v0,0x2
   12a50:	00501021 	addu	v0,v0,s0
   12a54:	8c460018 	lw	a2,24(v0)
   12a58:	00c33021 	addu	a2,a2,v1
   12a5c:	ac460018 	sw	a2,24(v0)
   12a60:	9602000a 	lhu	v0,10(s0)
   12a64:	92060004 	lbu	a2,4(s0)
   12a68:	27710008 	addiu	s1,k1,8
   12a6c:	02202021 	move	a0,s1
   12a70:	00c23021 	addu	a2,a2,v0
   12a74:	24c60005 	addiu	a2,a2,5
   12a78:	26050014 	addiu	a1,s0,20
   12a7c:	0e0005d5 	jal	0x8001754
   12a80:	00063082 	srl	a2,a2,0x2
   12a84:	92040006 	lbu	a0,6(s0)
   12a88:	8f650004 	lw	a1,4(k1)
   12a8c:	3c027fff 	lui	v0,0x7fff
   12a90:	00042080 	sll	a0,a0,0x2
   12a94:	00912021 	addu	a0,a0,s1
   12a98:	8c830004 	lw	v1,4(a0)
   12a9c:	3442ffff 	ori	v0,v0,0xffff
   12aa0:	00a22824 	and	a1,a1,v0
   12aa4:	00651821 	addu	v1,v1,a1
   12aa8:	ac830004 	sw	v1,4(a0)
   12aac:	92020007 	lbu	v0,7(s0)
   12ab0:	92040005 	lbu	a0,5(s0)
   12ab4:	92030004 	lbu	v1,4(s0)
   12ab8:	30420004 	andi	v0,v0,0x4
   12abc:	10400014 	beqz	v0,0x12b10
   12ac0:	96070008 	lhu	a3,8(s0)
   12ac4:	308400ff 	andi	a0,a0,0xff
   12ac8:	00042080 	sll	a0,a0,0x2
   12acc:	00912021 	addu	a0,a0,s1
   12ad0:	8c860004 	lw	a2,4(a0)
   12ad4:	97420104 	lhu	v0,260(k0)
   12ad8:	9605000a 	lhu	a1,10(s0)
   12adc:	306300ff 	andi	v1,v1,0xff
   12ae0:	3042ffff 	andi	v0,v0,0xffff
   12ae4:	00431021 	addu	v0,v0,v1
   12ae8:	00451021 	addu	v0,v0,a1
   12aec:	30e3ffff 	andi	v1,a3,0xffff
   12af0:	00431023 	subu	v0,v0,v1
   12af4:	2442ffd8 	addiu	v0,v0,-40
   12af8:	30c6ffff 	andi	a2,a2,0xffff
   12afc:	00021400 	sll	v0,v0,0x10
   12b00:	00c23025 	or	a2,a2,v0
   12b04:	ac860004 	sw	a2,4(a0)
   12b08:	0a0004f2 	j	0x80013c8
   12b0c:	92030007 	lbu	v1,7(s0)
   12b10:	308500ff 	andi	a1,a0,0xff
   12b14:	00052880 	sll	a1,a1,0x2
   12b18:	00b12821 	addu	a1,a1,s1
   12b1c:	8ca40000 	lw	a0,0(a1)
   12b20:	97420104 	lhu	v0,260(k0)
   12b24:	306300ff 	andi	v1,v1,0xff
   12b28:	3042ffff 	andi	v0,v0,0xffff
   12b2c:	00431021 	addu	v0,v0,v1
   12b30:	00471023 	subu	v0,v0,a3
   12b34:	3c03ffff 	lui	v1,0xffff
   12b38:	00832024 	and	a0,a0,v1
   12b3c:	3042ffff 	andi	v0,v0,0xffff
   12b40:	00822025 	or	a0,a0,v0
   12b44:	aca40000 	sw	a0,0(a1)
   12b48:	92030007 	lbu	v1,7(s0)
   12b4c:	24020001 	li	v0,1
   12b50:	10620006 	beq	v1,v0,0x12b6c
   12b54:	00000000 	nop
   12b58:	24020003 	li	v0,3
   12b5c:	10620011 	beq	v1,v0,0x12ba4
   12b60:	00000000 	nop
   12b64:	0a000515 	j	0x8001454
   12b68:	8e030010 	lw	v1,16(s0)
   12b6c:	97420104 	lhu	v0,260(k0)
   12b70:	92030004 	lbu	v1,4(s0)
   12b74:	9605000a 	lhu	a1,10(s0)
   12b78:	8e24000c 	lw	a0,12(s1)
   12b7c:	00431021 	addu	v0,v0,v1
   12b80:	00451021 	addu	v0,v0,a1
   12b84:	2442fff2 	addiu	v0,v0,-14
   12b88:	3c03ffff 	lui	v1,0xffff
   12b8c:	00832024 	and	a0,a0,v1
   12b90:	3042ffff 	andi	v0,v0,0xffff
   12b94:	00822025 	or	a0,a0,v0
   12b98:	ae24000c 	sw	a0,12(s1)
   12b9c:	0a000515 	j	0x8001454
   12ba0:	8e030010 	lw	v1,16(s0)
   12ba4:	97420104 	lhu	v0,260(k0)
   12ba8:	92030004 	lbu	v1,4(s0)
   12bac:	9605000a 	lhu	a1,10(s0)
   12bb0:	8e240010 	lw	a0,16(s1)
   12bb4:	00431021 	addu	v0,v0,v1
   12bb8:	00451021 	addu	v0,v0,a1
   12bbc:	2442ffee 	addiu	v0,v0,-18
   12bc0:	3c03ffff 	lui	v1,0xffff
   12bc4:	00832024 	and	a0,a0,v1
   12bc8:	3042ffff 	andi	v0,v0,0xffff
   12bcc:	00822025 	or	a0,a0,v0
   12bd0:	ae240010 	sw	a0,16(s1)
   12bd4:	8e030010 	lw	v1,16(s0)
   12bd8:	2402000a 	li	v0,10
   12bdc:	a7420140 	sh	v0,320(k0)
   12be0:	a7430142 	sh	v1,322(k0)
   12be4:	9603000a 	lhu	v1,10(s0)
   12be8:	92020004 	lbu	v0,4(s0)
   12bec:	3c040040 	lui	a0,0x40
   12bf0:	00431021 	addu	v0,v0,v1
   12bf4:	a7420144 	sh	v0,324(k0)
   12bf8:	a7400146 	sh	zero,326(k0)
   12bfc:	97420104 	lhu	v0,260(k0)
   12c00:	a7420148 	sh	v0,328(k0)
   12c04:	24020001 	li	v0,1
   12c08:	0e00020a 	jal	0x8000828
   12c0c:	a742014a 	sh	v0,330(k0)
   12c10:	0e000233 	jal	0x80008cc
   12c14:	00000000 	nop
   12c18:	8f620000 	lw	v0,0(k1)
   12c1c:	92030004 	lbu	v1,4(s0)
   12c20:	00002021 	move	a0,zero
   12c24:	af820008 	sw	v0,8(gp)
   12c28:	97420104 	lhu	v0,260(k0)
   12c2c:	9606000a 	lhu	a2,10(s0)
   12c30:	3042ffff 	andi	v0,v0,0xffff
   12c34:	00621821 	addu	v1,v1,v0
   12c38:	00602821 	move	a1,v1
   12c3c:	3c030800 	lui	v1,0x800
   12c40:	8c630444 	lw	v1,1092(v1)
   12c44:	3c020800 	lui	v0,0x800
   12c48:	8c420440 	lw	v0,1088(v0)
   12c4c:	00651821 	addu	v1,v1,a1
   12c50:	00441021 	addu	v0,v0,a0
   12c54:	0065382b 	sltu	a3,v1,a1
   12c58:	00471021 	addu	v0,v0,a3
   12c5c:	3c010800 	lui	at,0x800
   12c60:	ac230444 	sw	v1,1092(at)
   12c64:	3c010800 	lui	at,0x800
   12c68:	ac220440 	sw	v0,1088(at)
   12c6c:	92040004 	lbu	a0,4(s0)
   12c70:	00862021 	addu	a0,a0,a2
   12c74:	2484000a 	addiu	a0,a0,10
   12c78:	3084ffff 	andi	a0,a0,0xffff
   12c7c:	0e0001e7 	jal	0x800079c
   12c80:	00000000 	nop
   12c84:	97440104 	lhu	a0,260(k0)
   12c88:	3084ffff 	andi	a0,a0,0xffff
   12c8c:	0e0001f5 	jal	0x80007d4
   12c90:	00000000 	nop
   12c94:	3c021000 	lui	v0,0x1000
   12c98:	af420178 	sw	v0,376(k0)
   12c9c:	0a0005b0 	j	0x80016c0
   12ca0:	8f820020 	lw	v0,32(gp)
   12ca4:	14820027 	bne	a0,v0,0x12d44
   12ca8:	30620006 	andi	v0,v1,0x6
   12cac:	97420104 	lhu	v0,260(k0)
   12cb0:	10400067 	beqz	v0,0x12e50
   12cb4:	3c024000 	lui	v0,0x4000
   12cb8:	30624000 	andi	v0,v1,0x4000
   12cbc:	10400005 	beqz	v0,0x12cd4
   12cc0:	00000000 	nop
   12cc4:	00000000 	nop
   12cc8:	0000000d 	break
   12ccc:	00000000 	nop
   12cd0:	24000396 	li	zero,918
   12cd4:	8f420178 	lw	v0,376(k0)
   12cd8:	0440fffe 	bltz	v0,0x12cd4
   12cdc:	24020800 	li	v0,2048
   12ce0:	af420178 	sw	v0,376(k0)
   12ce4:	24020008 	li	v0,8
   12ce8:	a7420140 	sh	v0,320(k0)
   12cec:	a7400142 	sh	zero,322(k0)
   12cf0:	8f820004 	lw	v0,4(gp)
   12cf4:	97430104 	lhu	v1,260(k0)
   12cf8:	30420001 	andi	v0,v0,0x1
   12cfc:	10400007 	beqz	v0,0x12d1c
   12d00:	3070ffff 	andi	s0,v1,0xffff
   12d04:	2603fffe 	addiu	v1,s0,-2
   12d08:	24020002 	li	v0,2
   12d0c:	a7420146 	sh	v0,326(k0)
   12d10:	a7430148 	sh	v1,328(k0)
   12d14:	0a000568 	j	0x80015a0
   12d18:	2402000d 	li	v0,13
   12d1c:	a7400146 	sh	zero,326(k0)
   12d20:	2402000d 	li	v0,13
   12d24:	a742014a 	sh	v0,330(k0)
   12d28:	8f620000 	lw	v0,0(k1)
   12d2c:	24040008 	li	a0,8
   12d30:	af820008 	sw	v0,8(gp)
   12d34:	0e0001e7 	jal	0x800079c
   12d38:	00000000 	nop
   12d3c:	0a000542 	j	0x8001508
   12d40:	02002021 	move	a0,s0
   12d44:	10400042 	beqz	v0,0x12e50
   12d48:	3c024000 	lui	v0,0x4000
   12d4c:	93620000 	lbu	v0,0(k1)
   12d50:	304300f0 	andi	v1,v0,0xf0
   12d54:	24020010 	li	v0,16
   12d58:	10620005 	beq	v1,v0,0x12d70
   12d5c:	24020070 	li	v0,112
   12d60:	10620035 	beq	v1,v0,0x12e38
   12d64:	00000000 	nop
   12d68:	0a0005b0 	j	0x80016c0
   12d6c:	8f820020 	lw	v0,32(gp)
   12d70:	8f620000 	lw	v0,0(k1)
   12d74:	97430104 	lhu	v1,260(k0)
   12d78:	3050ffff 	andi	s0,v0,0xffff
   12d7c:	3071ffff 	andi	s1,v1,0xffff
   12d80:	8f420178 	lw	v0,376(k0)
   12d84:	0440fffe 	bltz	v0,0x12d80
   12d88:	32020007 	andi	v0,s0,0x7
   12d8c:	00021023 	negu	v0,v0
   12d90:	30420007 	andi	v0,v0,0x7
   12d94:	2403000a 	li	v1,10
   12d98:	2604fffe 	addiu	a0,s0,-2
   12d9c:	a7430140 	sh	v1,320(k0)
   12da0:	a7420142 	sh	v0,322(k0)
   12da4:	a7440144 	sh	a0,324(k0)
   12da8:	a7400146 	sh	zero,326(k0)
   12dac:	a7510148 	sh	s1,328(k0)
   12db0:	8f420108 	lw	v0,264(k0)
   12db4:	30420020 	andi	v0,v0,0x20
   12db8:	14400002 	bnez	v0,0x12dc4
   12dbc:	24030009 	li	v1,9
   12dc0:	24030001 	li	v1,1
   12dc4:	a743014a 	sh	v1,330(k0)
   12dc8:	0e00020a 	jal	0x8000828
   12dcc:	3c040040 	lui	a0,0x40
   12dd0:	0e000233 	jal	0x80008cc
   12dd4:	00000000 	nop
   12dd8:	3c070800 	lui	a3,0x800
   12ddc:	8ce70444 	lw	a3,1092(a3)
   12de0:	02111021 	addu	v0,s0,s1
   12de4:	2442fffe 	addiu	v0,v0,-2
   12de8:	3c060800 	lui	a2,0x800
   12dec:	8cc60440 	lw	a2,1088(a2)
   12df0:	00401821 	move	v1,v0
   12df4:	00e33821 	addu	a3,a3,v1
   12df8:	00001021 	move	v0,zero
   12dfc:	8f650000 	lw	a1,0(k1)
   12e00:	00e3402b 	sltu	t0,a3,v1
   12e04:	00c23021 	addu	a2,a2,v0
   12e08:	26040008 	addiu	a0,s0,8
   12e0c:	00c83021 	addu	a2,a2,t0
   12e10:	3084ffff 	andi	a0,a0,0xffff
   12e14:	af850008 	sw	a1,8(gp)
   12e18:	3c010800 	lui	at,0x800
   12e1c:	ac270444 	sw	a3,1092(at)
   12e20:	3c010800 	lui	at,0x800
   12e24:	ac260440 	sw	a2,1088(at)
   12e28:	0e0001e7 	jal	0x800079c
   12e2c:	00000000 	nop
   12e30:	0a000542 	j	0x8001508
   12e34:	02202021 	move	a0,s1
   12e38:	0e000139 	jal	0x80004e4
   12e3c:	00000000 	nop
   12e40:	8f820020 	lw	v0,32(gp)
   12e44:	24420001 	addiu	v0,v0,1
   12e48:	af820020 	sw	v0,32(gp)
   12e4c:	3c024000 	lui	v0,0x4000
   12e50:	af420138 	sw	v0,312(k0)
   12e54:	00000000 	nop
   12e58:	0a00028f 	j	0x8000a3c
   12e5c:	3c028000 	lui	v0,0x8000
   12e60:	3084ffff 	andi	a0,a0,0xffff
   12e64:	30c6ffff 	andi	a2,a2,0xffff
   12e68:	00052c00 	sll	a1,a1,0x10
   12e6c:	00a62825 	or	a1,a1,a2
   12e70:	3882ffff 	xori	v0,a0,0xffff
   12e74:	00451021 	addu	v0,v0,a1
   12e78:	0045282b 	sltu	a1,v0,a1
   12e7c:	00451021 	addu	v0,v0,a1
   12e80:	00021c02 	srl	v1,v0,0x10
   12e84:	3042ffff 	andi	v0,v0,0xffff
   12e88:	00431021 	addu	v0,v0,v1
   12e8c:	00021c02 	srl	v1,v0,0x10
   12e90:	3042ffff 	andi	v0,v0,0xffff
   12e94:	00431021 	addu	v0,v0,v1
   12e98:	3842ffff 	xori	v0,v0,0xffff
   12e9c:	03e00008 	jr	ra
   12ea0:	3042ffff 	andi	v0,v0,0xffff
   12ea4:	3084ffff 	andi	a0,a0,0xffff
   12ea8:	30a5ffff 	andi	a1,a1,0xffff
   12eac:	00001821 	move	v1,zero
   12eb0:	10800007 	beqz	a0,0x12ed0
   12eb4:	00000000 	nop
   12eb8:	30820001 	andi	v0,a0,0x1
   12ebc:	10400002 	beqz	v0,0x12ec8
   12ec0:	00042042 	srl	a0,a0,0x1
   12ec4:	00651821 	addu	v1,v1,a1
   12ec8:	0a0005cb 	j	0x800172c
   12ecc:	00052840 	sll	a1,a1,0x1
   12ed0:	03e00008 	jr	ra
   12ed4:	00601021 	move	v0,v1
   12ed8:	10c00006 	beqz	a2,0x12ef4
   12edc:	24c6ffff 	addiu	a2,a2,-1
   12ee0:	8ca20000 	lw	v0,0(a1)
   12ee4:	24a50004 	addiu	a1,a1,4
   12ee8:	ac820000 	sw	v0,0(a0)
   12eec:	0a0005d5 	j	0x8001754
   12ef0:	24840004 	addiu	a0,a0,4
   12ef4:	03e00008 	jr	ra
   12ef8:	00000000 	nop
   12efc:	10a00008 	beqz	a1,0x12f20
   12f00:	24a3ffff 	addiu	v1,a1,-1
   12f04:	ac860000 	sw	a2,0(a0)
	...
   12f10:	2402ffff 	li	v0,-1
   12f14:	2463ffff 	addiu	v1,v1,-1
   12f18:	1462fffa 	bne	v1,v0,0x12f04
   12f1c:	24840004 	addiu	a0,a0,4
   12f20:	03e00008 	jr	ra
   12f24:	00000000 	nop
   12f28:	00000001 	.word	0x1
   12f2c:	0a000026 	j	0x8000098
   12f30:	00000000 	nop
   12f34:	00000000 	nop
   12f38:	0000000d 	break
   12f3c:	74787034 	jalx	0x1e1c0d1
   12f40:	2e362e31 	sltiu	s6,s1,11825
   12f44:	36000000 	ori	zero,s0,0x0
   12f48:	04061000 	.word	0x4061000
   12f4c:	0000000a 	.word	0xa
   12f50:	00000136 	tne	zero,zero,0x4
   12f54:	0000ea60 	.word	0xea60
	...
   12f8c:	0000001d 	dmultu	zero,zero
	...
   12fc8:	10000003 	b	0x12fd8
   12fcc:	00000000 	nop
   12fd0:	0000000d 	break
   12fd4:	0000000d 	break
   12fd8:	3c020800 	lui	v0,0x800
   12fdc:	24423b60 	addiu	v0,v0,15200
   12fe0:	3c030800 	lui	v1,0x800
   12fe4:	24633e18 	addiu	v1,v1,15896
   12fe8:	ac400000 	sw	zero,0(v0)
   12fec:	0043202b 	sltu	a0,v0,v1
   12ff0:	1480fffd 	bnez	a0,0x12fe8
   12ff4:	24420004 	addiu	v0,v0,4
   12ff8:	3c1d0800 	lui	sp,0x800
   12ffc:	37bd7ffc 	ori	sp,sp,0x7ffc
   13000:	03a0f021 	move	s8,sp
   13004:	3c100800 	lui	s0,0x800
   13008:	26100098 	addiu	s0,s0,152
   1300c:	3c1c0800 	lui	gp,0x800
   13010:	279c3b60 	addiu	gp,gp,15200
   13014:	0e0004ae 	jal	0x80012b8
   13018:	00000000 	nop
   1301c:	0000000d 	break
   13020:	3c058000 	lui	a1,0x8000
   13024:	8f830030 	lw	v1,48(gp)
   13028:	34a80070 	ori	t0,a1,0x70
   1302c:	8d070000 	lw	a3,0(t0)
   13030:	00833025 	or	a2,a0,v1
   13034:	3c029000 	lui	v0,0x9000
   13038:	00c22025 	or	a0,a2,v0
   1303c:	aca40020 	sw	a0,32(a1)
   13040:	af870024 	sw	a3,36(gp)
   13044:	3c048000 	lui	a0,0x8000
   13048:	8c890020 	lw	t1,32(a0)
   1304c:	0520fffe 	bltz	t1,0x13048
   13050:	00000000 	nop
   13054:	34840070 	ori	a0,a0,0x70
   13058:	8c850000 	lw	a1,0(a0)
   1305c:	3c180800 	lui	t8,0x800
   13060:	8f18007c 	lw	t8,124(t8)
   13064:	3c0d0800 	lui	t5,0x800
   13068:	8dad0078 	lw	t5,120(t5)
   1306c:	00a7c823 	subu	t9,a1,a3
   13070:	03195021 	addu	t2,t8,t9
   13074:	00007021 	move	t6,zero
   13078:	0159602b 	sltu	t4,t2,t9
   1307c:	01ae5821 	addu	t3,t5,t6
   13080:	016c3821 	addu	a3,t3,t4
   13084:	3c010800 	lui	at,0x800
   13088:	ac2a007c 	sw	t2,124(at)
   1308c:	3c010800 	lui	at,0x800
   13090:	ac270078 	sw	a3,120(at)
   13094:	03e00008 	jr	ra
   13098:	00000000 	nop
   1309c:	0a00003d 	j	0x80000f4
   130a0:	24040001 	li	a0,1
   130a4:	8f850030 	lw	a1,48(gp)
   130a8:	3c048000 	lui	a0,0x8000
   130ac:	34830001 	ori	v1,a0,0x1
   130b0:	00a31025 	or	v0,a1,v1
   130b4:	03e00008 	jr	ra
   130b8:	ac820020 	sw	v0,32(a0)
   130bc:	03e00008 	jr	ra
   130c0:	00001021 	move	v0,zero
   130c4:	3084ffff 	andi	a0,a0,0xffff
   130c8:	30a5ffff 	andi	a1,a1,0xffff
   130cc:	10800007 	beqz	a0,0x130ec
   130d0:	00001821 	move	v1,zero
   130d4:	30820001 	andi	v0,a0,0x1
   130d8:	10400002 	beqz	v0,0x130e4
   130dc:	00042042 	srl	a0,a0,0x1
   130e0:	00651821 	addu	v1,v1,a1
   130e4:	1480fffb 	bnez	a0,0x130d4
   130e8:	00052840 	sll	a1,a1,0x1
   130ec:	03e00008 	jr	ra
   130f0:	00601021 	move	v0,v1
   130f4:	10c00007 	beqz	a2,0x13114
   130f8:	00000000 	nop
   130fc:	8ca20000 	lw	v0,0(a1)
   13100:	24c6ffff 	addiu	a2,a2,-1
   13104:	24a50004 	addiu	a1,a1,4
   13108:	ac820000 	sw	v0,0(a0)
   1310c:	14c0fffb 	bnez	a2,0x130fc
   13110:	24840004 	addiu	a0,a0,4
   13114:	03e00008 	jr	ra
   13118:	00000000 	nop
   1311c:	10a00008 	beqz	a1,0x13140
   13120:	24a3ffff 	addiu	v1,a1,-1
   13124:	ac860000 	sw	a2,0(a0)
	...
   13130:	2402ffff 	li	v0,-1
   13134:	2463ffff 	addiu	v1,v1,-1
   13138:	1462fffa 	bne	v1,v0,0x13124
   1313c:	24840004 	addiu	a0,a0,4
   13140:	03e00008 	jr	ra
   13144:	00000000 	nop
   13148:	90aa0031 	lbu	t2,49(a1)
   1314c:	8fab0010 	lw	t3,16(sp)
   13150:	8cac0040 	lw	t4,64(a1)
   13154:	3c0300ff 	lui	v1,0xff
   13158:	8d680004 	lw	t0,4(t3)
   1315c:	ad6c0020 	sw	t4,32(t3)
   13160:	8cad0044 	lw	t5,68(a1)
   13164:	00e06021 	move	t4,a3
   13168:	3462ffff 	ori	v0,v1,0xffff
   1316c:	ad6d0024 	sw	t5,36(t3)
   13170:	8ca70048 	lw	a3,72(a1)
   13174:	3c09ff00 	lui	t1,0xff00
   13178:	0109c024 	and	t8,t0,t1
   1317c:	ad670028 	sw	a3,40(t3)
   13180:	8cae004c 	lw	t6,76(a1)
   13184:	0182c824 	and	t9,t4,v0
   13188:	03197825 	or	t7,t8,t9
   1318c:	ad6f0004 	sw	t7,4(t3)
   13190:	ad6e002c 	sw	t6,44(t3)
   13194:	8cad0038 	lw	t5,56(a1)
   13198:	314a00ff 	andi	t2,t2,0xff
   1319c:	ad6d001c 	sw	t5,28(t3)
   131a0:	94a90032 	lhu	t1,50(a1)
   131a4:	3128ffff 	andi	t0,t1,0xffff
   131a8:	ad680010 	sw	t0,16(t3)
   131ac:	90a70030 	lbu	a3,48(a1)
   131b0:	a5600002 	sh	zero,2(t3)
   131b4:	a1600004 	sb	zero,4(t3)
   131b8:	a1670000 	sb	a3,0(t3)
   131bc:	90a30032 	lbu	v1,50(a1)
   131c0:	306200ff 	andi	v0,v1,0xff
   131c4:	00021982 	srl	v1,v0,0x6
   131c8:	10600005 	beqz	v1,0x131e0
   131cc:	24050001 	li	a1,1
   131d0:	1065000e 	beq	v1,a1,0x1320c
   131d4:	00000000 	nop
   131d8:	03e00008 	jr	ra
   131dc:	a16a0001 	sb	t2,1(t3)
   131e0:	8cd80028 	lw	t8,40(a2)
   131e4:	354a0080 	ori	t2,t2,0x80
   131e8:	ad780018 	sw	t8,24(t3)
   131ec:	8ccf0014 	lw	t7,20(a2)
   131f0:	ad6f0014 	sw	t7,20(t3)
   131f4:	8cce0030 	lw	t6,48(a2)
   131f8:	ad6e0008 	sw	t6,8(t3)
   131fc:	8cc4002c 	lw	a0,44(a2)
   13200:	a16a0001 	sb	t2,1(t3)
   13204:	03e00008 	jr	ra
   13208:	ad64000c 	sw	a0,12(t3)
   1320c:	8ccd001c 	lw	t5,28(a2)
   13210:	ad6d0018 	sw	t5,24(t3)
   13214:	8cc90014 	lw	t1,20(a2)
   13218:	ad690014 	sw	t1,20(t3)
   1321c:	8cc80024 	lw	t0,36(a2)
   13220:	ad680008 	sw	t0,8(t3)
   13224:	8cc70020 	lw	a3,32(a2)
   13228:	ad67000c 	sw	a3,12(t3)
   1322c:	8cc20014 	lw	v0,20(a2)
   13230:	8c830070 	lw	v1,112(a0)
   13234:	0043c82b 	sltu	t9,v0,v1
   13238:	13200007 	beqz	t9,0x13258
   1323c:	00000000 	nop
   13240:	8cc20014 	lw	v0,20(a2)
   13244:	144cffe4 	bne	v0,t4,0x131d8
   13248:	00000000 	nop
   1324c:	354a0080 	ori	t2,t2,0x80
   13250:	03e00008 	jr	ra
   13254:	a16a0001 	sb	t2,1(t3)
   13258:	8c820070 	lw	v0,112(a0)
   1325c:	0a0000c6 	j	0x8000318
   13260:	00000000 	nop
   13264:	90890030 	lbu	t1,48(a0)
   13268:	27bdfff8 	addiu	sp,sp,-8
   1326c:	8fa8001c 	lw	t0,28(sp)
   13270:	a3a90000 	sb	t1,0(sp)
   13274:	8fa30000 	lw	v1,0(sp)
   13278:	3c0dff80 	lui	t5,0xff80
   1327c:	35a2ffff 	ori	v0,t5,0xffff
   13280:	8cac002c 	lw	t4,44(a1)
   13284:	00625824 	and	t3,v1,v0
   13288:	afab0000 	sw	t3,0(sp)
   1328c:	a1000004 	sb	zero,4(t0)
   13290:	00c05821 	move	t3,a2
   13294:	a7a00002 	sh	zero,2(sp)
   13298:	8d060004 	lw	a2,4(t0)
   1329c:	00a04821 	move	t1,a1
   132a0:	0167c821 	addu	t9,t3,a3
   132a4:	8fa50000 	lw	a1,0(sp)
   132a8:	00805021 	move	t2,a0
   132ac:	3c18ff7f 	lui	t8,0xff7f
   132b0:	032c2026 	xor	a0,t9,t4
   132b4:	3c0e00ff 	lui	t6,0xff
   132b8:	2c8c0001 	sltiu	t4,a0,1
   132bc:	370fffff 	ori	t7,t8,0xffff
   132c0:	35cdffff 	ori	t5,t6,0xffff
   132c4:	3c02ff00 	lui	v0,0xff00
   132c8:	00afc824 	and	t9,a1,t7
   132cc:	00edc024 	and	t8,a3,t5
   132d0:	00c27824 	and	t7,a2,v0
   132d4:	000c1dc0 	sll	v1,t4,0x17
   132d8:	03236825 	or	t5,t9,v1
   132dc:	01f87025 	or	t6,t7,t8
   132e0:	ad0d0000 	sw	t5,0(t0)
   132e4:	ad0e0004 	sw	t6,4(t0)
   132e8:	8d240024 	lw	a0,36(t1)
   132ec:	afad0000 	sw	t5,0(sp)
   132f0:	ad040008 	sw	a0,8(t0)
   132f4:	8d2c0020 	lw	t4,32(t1)
   132f8:	2404ffff 	li	a0,-1
   132fc:	ad0c000c 	sw	t4,12(t0)
   13300:	95470032 	lhu	a3,50(t2)
   13304:	30e6ffff 	andi	a2,a3,0xffff
   13308:	ad060010 	sw	a2,16(t0)
   1330c:	91450048 	lbu	a1,72(t2)
   13310:	30a200ff 	andi	v0,a1,0xff
   13314:	000219c2 	srl	v1,v0,0x7
   13318:	50600001 	beqzl	v1,0x13320
   1331c:	8d240034 	lw	a0,52(t1)
   13320:	ad040014 	sw	a0,20(t0)
   13324:	8d470038 	lw	a3,56(t2)
   13328:	8faa0018 	lw	t2,24(sp)
   1332c:	27bd0008 	addiu	sp,sp,8
   13330:	ad0b0028 	sw	t3,40(t0)
   13334:	ad0a0024 	sw	t2,36(t0)
   13338:	ad07001c 	sw	a3,28(t0)
   1333c:	ad00002c 	sw	zero,44(t0)
   13340:	ad000018 	sw	zero,24(t0)
   13344:	03e00008 	jr	ra
   13348:	ad000020 	sw	zero,32(t0)
   1334c:	27bdffe0 	addiu	sp,sp,-32
   13350:	afb20018 	sw	s2,24(sp)
   13354:	afb10014 	sw	s1,20(sp)
   13358:	afb00010 	sw	s0,16(sp)
   1335c:	afbf001c 	sw	ra,28(sp)
   13360:	90980030 	lbu	t8,48(a0)
   13364:	00c08821 	move	s1,a2
   13368:	3c0d00ff 	lui	t5,0xff
   1336c:	330f007f 	andi	t7,t8,0x7f
   13370:	a0cf0000 	sb	t7,0(a2)
   13374:	908e0031 	lbu	t6,49(a0)
   13378:	35acffff 	ori	t4,t5,0xffff
   1337c:	3c0aff00 	lui	t2,0xff00
   13380:	a0ce0001 	sb	t6,1(a2)
   13384:	94a6001e 	lhu	a2,30(a1)
   13388:	a2200004 	sb	zero,4(s1)
   1338c:	8cab0014 	lw	t3,20(a1)
   13390:	8e290004 	lw	t1,4(s1)
   13394:	00a08021 	move	s0,a1
   13398:	016c2824 	and	a1,t3,t4
   1339c:	012a4024 	and	t0,t1,t2
   133a0:	00809021 	move	s2,a0
   133a4:	01052025 	or	a0,t0,a1
   133a8:	a6260002 	sh	a2,2(s1)
   133ac:	ae240004 	sw	a0,4(s1)
   133b0:	26050020 	addiu	a1,s0,32
   133b4:	26240008 	addiu	a0,s1,8
   133b8:	0e000072 	jal	0x80001c8
   133bc:	24060002 	li	a2,2
   133c0:	92470030 	lbu	a3,48(s2)
   133c4:	26050028 	addiu	a1,s0,40
   133c8:	26240014 	addiu	a0,s1,20
   133cc:	00071e00 	sll	v1,a3,0x18
   133d0:	00031603 	sra	v0,v1,0x18
   133d4:	24060004 	li	a2,4
   133d8:	04400003 	bltz	v0,0x133e8
   133dc:	2403ffff 	li	v1,-1
   133e0:	96590032 	lhu	t9,50(s2)
   133e4:	3323ffff 	andi	v1,t9,0xffff
   133e8:	0e000072 	jal	0x80001c8
   133ec:	ae230010 	sw	v1,16(s1)
   133f0:	26240024 	addiu	a0,s1,36
   133f4:	8fbf001c 	lw	ra,28(sp)
   133f8:	8fb20018 	lw	s2,24(sp)
   133fc:	8fb10014 	lw	s1,20(sp)
   13400:	8fb00010 	lw	s0,16(sp)
   13404:	24050003 	li	a1,3
   13408:	00003021 	move	a2,zero
   1340c:	0a00007c 	j	0x80001f0
   13410:	27bd0020 	addiu	sp,sp,32
   13414:	27bdffd8 	addiu	sp,sp,-40
   13418:	afb1001c 	sw	s1,28(sp)
   1341c:	afb00018 	sw	s0,24(sp)
   13420:	afbf0020 	sw	ra,32(sp)
   13424:	90a90030 	lbu	t1,48(a1)
   13428:	24020001 	li	v0,1
   1342c:	00e05021 	move	t2,a3
   13430:	3123003f 	andi	v1,t1,0x3f
   13434:	00a04021 	move	t0,a1
   13438:	8fb00040 	lw	s0,64(sp)
   1343c:	00808821 	move	s1,a0
   13440:	00c04821 	move	t1,a2
   13444:	10620014 	beq	v1,v0,0x13498
   13448:	8fa70038 	lw	a3,56(sp)
   1344c:	240b0005 	li	t3,5
   13450:	00a02021 	move	a0,a1
   13454:	00c02821 	move	a1,a2
   13458:	106b0013 	beq	v1,t3,0x134a8
   1345c:	02003021 	move	a2,s0
   13460:	0e000108 	jal	0x8000420
   13464:	00000000 	nop
   13468:	9225007c 	lbu	a1,124(s1)
   1346c:	30a40002 	andi	a0,a1,0x2
   13470:	10800003 	beqz	a0,0x13480
   13474:	26030030 	addiu	v1,s0,48
   13478:	ae000030 	sw	zero,48(s0)
   1347c:	26030034 	addiu	v1,s0,52
   13480:	8fbf0020 	lw	ra,32(sp)
   13484:	8fb1001c 	lw	s1,28(sp)
   13488:	8fb00018 	lw	s0,24(sp)
   1348c:	00601021 	move	v0,v1
   13490:	03e00008 	jr	ra
   13494:	27bd0028 	addiu	sp,sp,40
   13498:	0e000087 	jal	0x800021c
   1349c:	afb00010 	sw	s0,16(sp)
   134a0:	0a00014f 	j	0x800053c
   134a4:	00000000 	nop
   134a8:	8fa3003c 	lw	v1,60(sp)
   134ac:	01002021 	move	a0,t0
   134b0:	01202821 	move	a1,t1
   134b4:	01403021 	move	a2,t2
   134b8:	afa30010 	sw	v1,16(sp)
   134bc:	0e0000ce 	jal	0x8000338
   134c0:	afb00014 	sw	s0,20(sp)
   134c4:	0a00014f 	j	0x800053c
   134c8:	00000000 	nop
   134cc:	8f820050 	lw	v0,80(gp)
   134d0:	24430001 	addiu	v1,v0,1
   134d4:	304200ff 	andi	v0,v0,0xff
   134d8:	af830050 	sw	v1,80(gp)
   134dc:	03e00008 	jr	ra
   134e0:	00000000 	nop
   134e4:	3c058000 	lui	a1,0x8000
   134e8:	8ca30e10 	lw	v1,3600(a1)
   134ec:	8f840044 	lw	a0,68(gp)
   134f0:	ac830020 	sw	v1,32(a0)
   134f4:	8ca20e18 	lw	v0,3608(a1)
   134f8:	03e00008 	jr	ra
   134fc:	ac820024 	sw	v0,36(a0)
   13500:	3c058000 	lui	a1,0x8000
   13504:	8ca30e14 	lw	v1,3604(a1)
   13508:	8f840044 	lw	a0,68(gp)
   1350c:	ac830020 	sw	v1,32(a0)
   13510:	8ca20e1c 	lw	v0,3612(a1)
   13514:	03e00008 	jr	ra
   13518:	ac820024 	sw	v0,36(a0)
   1351c:	93820038 	lbu	v0,56(gp)
   13520:	1040001b 	beqz	v0,0x13590
   13524:	2483000f 	addiu	v1,a0,15
   13528:	2404fff0 	li	a0,-16
   1352c:	00643824 	and	a3,v1,a0
   13530:	10e00019 	beqz	a3,0x13598
   13534:	978b002c 	lhu	t3,44(gp)
   13538:	9784004c 	lhu	a0,76(gp)
   1353c:	9389002e 	lbu	t1,46(gp)
   13540:	3c0a601c 	lui	t2,0x601c
   13544:	0a000190 	j	0x8000640
   13548:	01644023 	subu	t0,t3,a0
   1354c:	01037021 	addu	t6,t0,v1
   13550:	00642823 	subu	a1,v1,a0
   13554:	11260002 	beq	t1,a2,0x13560
   13558:	31c2ffff 	andi	v0,t6,0xffff
   1355c:	30a2ffff 	andi	v0,a1,0xffff
   13560:	0047302b 	sltu	a2,v0,a3
   13564:	50c0000e 	beqzl	a2,0x135a0
   13568:	00e44821 	addu	t1,a3,a0
   1356c:	8d4d000c 	lw	t5,12(t2)
   13570:	31a3ffff 	andi	v1,t5,0xffff
   13574:	00036400 	sll	t4,v1,0x10
   13578:	000c2c03 	sra	a1,t4,0x10
   1357c:	04a1fff3 	bgez	a1,0x1354c
   13580:	00003021 	move	a2,zero
   13584:	30637fff 	andi	v1,v1,0x7fff
   13588:	0a000188 	j	0x8000620
   1358c:	24060001 	li	a2,1
   13590:	03e00008 	jr	ra
   13594:	00000000 	nop
   13598:	9784004c 	lhu	a0,76(gp)
   1359c:	00e44821 	addu	t1,a3,a0
   135a0:	3123ffff 	andi	v1,t1,0xffff
   135a4:	3168ffff 	andi	t0,t3,0xffff
   135a8:	0068382b 	sltu	a3,v1,t0
   135ac:	54e0fff8 	bnezl	a3,0x13590
   135b0:	a783004c 	sh	v1,76(gp)
   135b4:	938a002e 	lbu	t2,46(gp)
   135b8:	11400005 	beqz	t2,0x135d0
   135bc:	240f0001 	li	t7,1
   135c0:	006bc023 	subu	t8,v1,t3
   135c4:	a380002e 	sb	zero,46(gp)
   135c8:	03e00008 	jr	ra
   135cc:	a798004c 	sh	t8,76(gp)
   135d0:	006bc023 	subu	t8,v1,t3
   135d4:	a38f002e 	sb	t7,46(gp)
   135d8:	03e00008 	jr	ra
   135dc:	a798004c 	sh	t8,76(gp)
   135e0:	03e00008 	jr	ra
   135e4:	00000000 	nop
   135e8:	27bdffe8 	addiu	sp,sp,-24
   135ec:	afb00010 	sw	s0,16(sp)
   135f0:	3084ffff 	andi	a0,a0,0xffff
   135f4:	3c108000 	lui	s0,0x8000
   135f8:	93a8002b 	lbu	t0,43(sp)
   135fc:	afbf0014 	sw	ra,20(sp)
   13600:	a6040144 	sh	a0,324(s0)
   13604:	960a0e16 	lhu	t2,3606(s0)
   13608:	30c600ff 	andi	a2,a2,0xff
   1360c:	8fa90030 	lw	t1,48(sp)
   13610:	a60a0146 	sh	t2,326(s0)
   13614:	ae050148 	sw	a1,328(s0)
   13618:	a2060152 	sb	a2,338(s0)
   1361c:	a608015a 	sh	t0,346(s0)
   13620:	ae070160 	sw	a3,352(s0)
   13624:	8fa3002c 	lw	v1,44(sp)
   13628:	a6090158 	sh	t1,344(s0)
   1362c:	01202021 	move	a0,t1
   13630:	0e00017c 	jal	0x80005f0
   13634:	ae030154 	sw	v1,340(s0)
   13638:	3c021000 	lui	v0,0x1000
   1363c:	ae020178 	sw	v0,376(s0)
   13640:	8fbf0014 	lw	ra,20(sp)
   13644:	8fb00010 	lw	s0,16(sp)
   13648:	03e00008 	jr	ra
   1364c:	27bd0018 	addiu	sp,sp,24
   13650:	3c038000 	lui	v1,0x8000
   13654:	34620070 	ori	v0,v1,0x70
   13658:	8c490000 	lw	t1,0(v0)
   1365c:	8f87003c 	lw	a3,60(gp)
   13660:	24840007 	addiu	a0,a0,7
   13664:	27bdfff8 	addiu	sp,sp,-8
   13668:	3084fff8 	andi	a0,a0,0xfff8
   1366c:	af890024 	sw	t1,36(gp)
   13670:	3c088000 	lui	t0,0x8000
   13674:	950e008a 	lhu	t6,138(t0)
   13678:	31cdffff 	andi	t5,t6,0xffff
   1367c:	afad0000 	sw	t5,0(sp)
   13680:	8fac0000 	lw	t4,0(sp)
   13684:	01875823 	subu	t3,t4,a3
   13688:	256affff 	addiu	t2,t3,-1
   1368c:	31461fff 	andi	a2,t2,0x1fff
   13690:	00c4282b 	sltu	a1,a2,a0
   13694:	14a0fff7 	bnez	a1,0x13674
   13698:	350d0070 	ori	t5,t0,0x70
   1369c:	8dac0000 	lw	t4,0(t5)
   136a0:	3c050800 	lui	a1,0x800
   136a4:	8ca50084 	lw	a1,132(a1)
   136a8:	3c0a0800 	lui	t2,0x800
   136ac:	8d4a0080 	lw	t2,128(t2)
   136b0:	01895823 	subu	t3,t4,t1
   136b4:	00001021 	move	v0,zero
   136b8:	00abc021 	addu	t8,a1,t3
   136bc:	0007c882 	srl	t9,a3,0x2
   136c0:	01422021 	addu	a0,t2,v0
   136c4:	030b302b 	sltu	a2,t8,t3
   136c8:	00193880 	sll	a3,t9,0x2
   136cc:	35094000 	ori	t1,t0,0x4000
   136d0:	00867821 	addu	t7,a0,a2
   136d4:	00e91021 	addu	v0,a3,t1
   136d8:	27bd0008 	addiu	sp,sp,8
   136dc:	3c010800 	lui	at,0x800
   136e0:	ac380084 	sw	t8,132(at)
   136e4:	3c010800 	lui	at,0x800
   136e8:	ac2f0080 	sw	t7,128(at)
   136ec:	03e00008 	jr	ra
   136f0:	00000000 	nop
   136f4:	8f82003c 	lw	v0,60(gp)
   136f8:	24860007 	addiu	a2,a0,7
   136fc:	30c5fff8 	andi	a1,a2,0xfff8
   13700:	00a21821 	addu	v1,a1,v0
   13704:	30641fff 	andi	a0,v1,0x1fff
   13708:	03e00008 	jr	ra
   1370c:	af84003c 	sw	a0,60(gp)
   13710:	3c0320ff 	lui	v1,0x20ff
   13714:	27bdffe8 	addiu	sp,sp,-24
   13718:	3c076000 	lui	a3,0x6000
   1371c:	3c088000 	lui	t0,0x8000
   13720:	24050010 	li	a1,16
   13724:	3464fffd 	ori	a0,v1,0xfffd
   13728:	ace53008 	sw	a1,12296(a3)
   1372c:	afbf0010 	sw	ra,16(sp)
   13730:	ad040e00 	sw	a0,3584(t0)
	...
   13748:	3c0200ff 	lui	v0,0xff
   1374c:	345ffffd 	ori	ra,v0,0xfffd
   13750:	ad1f0e00 	sw	ra,3584(t0)
   13754:	3c0b6004 	lui	t3,0x6004
   13758:	8d785000 	lw	t8,20480(t3)
   1375c:	2419ff7f 	li	t9,-129
   13760:	3c0e0002 	lui	t6,0x2
   13764:	03197824 	and	t7,t8,t9
   13768:	35ec380c 	ori	t4,t7,0x380c
   1376c:	35cd0109 	ori	t5,t6,0x109
   13770:	aced4c18 	sw	t5,19480(a3)
   13774:	24060009 	li	a2,9
   13778:	ad6c5000 	sw	t4,20480(t3)
   1377c:	8cea0438 	lw	t2,1080(a3)
   13780:	ad060008 	sw	a2,8(t0)
   13784:	ad000014 	sw	zero,20(t0)
   13788:	8ce94c1c 	lw	t1,19484(a3)
   1378c:	3145ffff 	andi	a1,t2,0xffff
   13790:	3c065709 	lui	a2,0x5709
   13794:	00091e02 	srl	v1,t1,0x18
   13798:	38a42f71 	xori	a0,a1,0x2f71
   1379c:	3062000f 	andi	v0,v1,0xf
   137a0:	34c80010 	ori	t0,a2,0x10
   137a4:	af820048 	sw	v0,72(gp)
   137a8:	10400007 	beqz	v0,0x137c8
   137ac:	2485c0b3 	addiu	a1,a0,-16205
   137b0:	8ceb4c1c 	lw	t3,19484(a3)
   137b4:	3c0d001f 	lui	t5,0x1f
   137b8:	35acfc00 	ori	t4,t5,0xfc00
   137bc:	016c5024 	and	t2,t3,t4
   137c0:	000a49c2 	srl	t1,t2,0x7
   137c4:	af890034 	sw	t1,52(gp)
   137c8:	8cf90808 	lw	t9,2056(a3)
   137cc:	241ff000 	li	ra,-4096
   137d0:	033fc024 	and	t8,t9,ra
   137d4:	03087026 	xor	t6,t8,t0
   137d8:	03067826 	xor	t7,t8,a2
   137dc:	2de80001 	sltiu	t0,t7,1
   137e0:	2dc60001 	sltiu	a2,t6,1
   137e4:	01063825 	or	a3,t0,a2
   137e8:	50e00009 	beqzl	a3,0x13810
   137ec:	a3800038 	sb	zero,56(gp)
   137f0:	3c09601c 	lui	t1,0x601c
   137f4:	8d240008 	lw	a0,8(t1)
   137f8:	24030001 	li	v1,1
   137fc:	a3830038 	sb	v1,56(gp)
   13800:	30827c00 	andi	v0,a0,0x7c00
   13804:	a780004c 	sh	zero,76(gp)
   13808:	a380002e 	sb	zero,46(gp)
   1380c:	a782002c 	sh	v0,44(gp)
   13810:	af800050 	sw	zero,80(gp)
   13814:	14a00003 	bnez	a1,0x13824
   13818:	af80003c 	sw	zero,60(gp)
   1381c:	3c056000 	lui	a1,0x6000
   13820:	aca0442c 	sw	zero,17452(a1)
   13824:	0e000559 	jal	0x8001564
   13828:	00000000 	nop
   1382c:	8fbf0010 	lw	ra,16(sp)
   13830:	0a000e99 	j	0x8003a64
   13834:	27bd0018 	addiu	sp,sp,24
   13838:	27bdffc8 	addiu	sp,sp,-56
   1383c:	afb3002c 	sw	s3,44(sp)
   13840:	afb20028 	sw	s2,40(sp)
   13844:	afbf0030 	sw	ra,48(sp)
   13848:	afb10024 	sw	s1,36(sp)
   1384c:	afb00020 	sw	s0,32(sp)
   13850:	93620008 	lbu	v0,8(k1)
   13854:	00809821 	move	s3,a0
   13858:	00a09021 	move	s2,a1
   1385c:	14400035 	bnez	v0,0x13934
   13860:	24040010 	li	a0,16
   13864:	0e0001c9 	jal	0x8000724
   13868:	00000000 	nop
   1386c:	0e000168 	jal	0x80005a0
   13870:	00408021 	move	s0,v0
   13874:	0002c400 	sll	t8,v0,0x10
   13878:	3c193200 	lui	t9,0x3200
   1387c:	03198825 	or	s1,t8,t9
   13880:	ae110000 	sw	s1,0(s0)
   13884:	936f0009 	lbu	t7,9(k1)
   13888:	976e0012 	lhu	t6,18(k1)
   1388c:	936a000a 	lbu	t2,10(k1)
   13890:	31ec00ff 	andi	t4,t7,0xff
   13894:	31cdffff 	andi	t5,t6,0xffff
   13898:	018d5821 	addu	t3,t4,t5
   1389c:	000b4400 	sll	t0,t3,0x10
   138a0:	314900ff 	andi	t1,t2,0xff
   138a4:	01093825 	or	a3,t0,t1
   138a8:	ae070004 	sw	a3,4(s0)
   138ac:	8f850050 	lw	a1,80(gp)
   138b0:	97840040 	lhu	a0,64(gp)
   138b4:	00403021 	move	a2,v0
   138b8:	30832000 	andi	v1,a0,0x2000
   138bc:	1460004d 	bnez	v1,0x139f4
   138c0:	ae050008 	sw	a1,8(s0)
   138c4:	ae00000c 	sw	zero,12(s0)
   138c8:	3c058000 	lui	a1,0x8000
   138cc:	97840040 	lhu	a0,64(gp)
   138d0:	0662004f 	bltzl	s3,0x13a10
   138d4:	8e03000c 	lw	v1,12(s0)
   138d8:	30900008 	andi	s0,a0,0x8
   138dc:	16000002 	bnez	s0,0x138e8
   138e0:	26480006 	addiu	t0,s2,6
   138e4:	26480002 	addiu	t0,s2,2
   138e8:	94a40e14 	lhu	a0,3604(a1)
   138ec:	8ca50e1c 	lw	a1,3612(a1)
   138f0:	8f670004 	lw	a3,4(k1)
   138f4:	936a0002 	lbu	t2,2(k1)
   138f8:	3084ffff 	andi	a0,a0,0xffff
   138fc:	314900ff 	andi	t1,t2,0xff
   13900:	afa90010 	sw	t1,16(sp)
   13904:	8f720014 	lw	s2,20(k1)
   13908:	afa80018 	sw	t0,24(sp)
   1390c:	0e0001af 	jal	0x80006bc
   13910:	afb20014 	sw	s2,20(sp)
   13914:	8fbf0030 	lw	ra,48(sp)
   13918:	8fb3002c 	lw	s3,44(sp)
   1391c:	8fb20028 	lw	s2,40(sp)
   13920:	8fb10024 	lw	s1,36(sp)
   13924:	8fb00020 	lw	s0,32(sp)
   13928:	24040010 	li	a0,16
   1392c:	0a0001f2 	j	0x80007c8
   13930:	27bd0038 	addiu	sp,sp,56
   13934:	93650009 	lbu	a1,9(k1)
   13938:	97710012 	lhu	s1,18(k1)
   1393c:	936c000b 	lbu	t4,11(k1)
   13940:	30ad00ff 	andi	t5,a1,0xff
   13944:	01b13021 	addu	a2,t5,s1
   13948:	318b00ff 	andi	t3,t4,0xff
   1394c:	00cb8021 	addu	s0,a2,t3
   13950:	2602000a 	addiu	v0,s0,10
   13954:	3050ffff 	andi	s0,v0,0xffff
   13958:	0e0001c9 	jal	0x8000724
   1395c:	02002021 	move	a0,s0
   13960:	0e000168 	jal	0x80005a0
   13964:	00408821 	move	s1,v0
   13968:	93680009 	lbu	t0,9(k1)
   1396c:	97640012 	lhu	a0,18(k1)
   13970:	0002fc00 	sll	ra,v0,0x10
   13974:	310900ff 	andi	t1,t0,0xff
   13978:	308affff 	andi	t2,a0,0xffff
   1397c:	012a3821 	addu	a3,t1,t2
   13980:	24e30002 	addiu	v1,a3,2
   13984:	03e3c025 	or	t8,ra,v1
   13988:	3c194100 	lui	t9,0x4100
   1398c:	03197825 	or	t7,t8,t9
   13990:	ae2f0000 	sw	t7,0(s1)
   13994:	8f6e000c 	lw	t6,12(k1)
   13998:	3c0d8000 	lui	t5,0x8000
   1399c:	95ac0e14 	lhu	t4,3604(t5)
   139a0:	01d32825 	or	a1,t6,s3
   139a4:	ae250004 	sw	a1,4(s1)
   139a8:	8da50e1c 	lw	a1,3612(t5)
   139ac:	8f670004 	lw	a3,4(k1)
   139b0:	936b0002 	lbu	t3,2(k1)
   139b4:	3184ffff 	andi	a0,t4,0xffff
   139b8:	316600ff 	andi	a2,t3,0xff
   139bc:	afa60010 	sw	a2,16(sp)
   139c0:	8f680014 	lw	t0,20(k1)
   139c4:	00403021 	move	a2,v0
   139c8:	afb20018 	sw	s2,24(sp)
   139cc:	0e0001af 	jal	0x80006bc
   139d0:	afa80014 	sw	t0,20(sp)
   139d4:	02002021 	move	a0,s0
   139d8:	8fbf0030 	lw	ra,48(sp)
   139dc:	8fb3002c 	lw	s3,44(sp)
   139e0:	8fb20028 	lw	s2,40(sp)
   139e4:	8fb10024 	lw	s1,36(sp)
   139e8:	8fb00020 	lw	s0,32(sp)
   139ec:	0a0001f2 	j	0x80007c8
   139f0:	27bd0038 	addiu	sp,sp,56
   139f4:	97620012 	lhu	v0,18(k1)
   139f8:	3c058000 	lui	a1,0x8000
   139fc:	97840040 	lhu	a0,64(gp)
   13a00:	305fffff 	andi	ra,v0,0xffff
   13a04:	0661ffb4 	bgez	s3,0x138d8
   13a08:	ae1f000c 	sw	ra,12(s0)
   13a0c:	8e03000c 	lw	v1,12(s0)
   13a10:	3c078000 	lui	a3,0x8000
   13a14:	00679825 	or	s3,v1,a3
   13a18:	0a00026b 	j	0x80009ac
   13a1c:	ae13000c 	sw	s3,12(s0)
   13a20:	27bdffd8 	addiu	sp,sp,-40
   13a24:	afb40020 	sw	s4,32(sp)
   13a28:	afbf0024 	sw	ra,36(sp)
   13a2c:	afb3001c 	sw	s3,28(sp)
   13a30:	afb20018 	sw	s2,24(sp)
   13a34:	afb10014 	sw	s1,20(sp)
   13a38:	afb00010 	sw	s0,16(sp)
   13a3c:	93620008 	lbu	v0,8(k1)
   13a40:	14400094 	bnez	v0,0x13c94
   13a44:	0080a021 	move	s4,a0
   13a48:	af60000c 	sw	zero,12(k1)
   13a4c:	97850040 	lhu	a1,64(gp)
   13a50:	30a44000 	andi	a0,a1,0x4000
   13a54:	1080009e 	beqz	a0,0x13cd0
   13a58:	24030016 	li	v1,22
   13a5c:	24104007 	li	s0,16391
   13a60:	a363000a 	sb	v1,10(k1)
   13a64:	af700014 	sw	s0,20(k1)
   13a68:	938f0042 	lbu	t7,66(gp)
   13a6c:	8f6c0014 	lw	t4,20(k1)
   13a70:	31ee0001 	andi	t6,t7,0x1
   13a74:	000e6a40 	sll	t5,t6,0x9
   13a78:	018d5825 	or	t3,t4,t5
   13a7c:	af6b0014 	sw	t3,20(k1)
   13a80:	978a0040 	lhu	t2,64(gp)
   13a84:	8f680014 	lw	t0,20(k1)
   13a88:	31490010 	andi	t1,t2,0x10
   13a8c:	01093825 	or	a3,t0,t1
   13a90:	af670014 	sw	a3,20(k1)
   13a94:	97860040 	lhu	a2,64(gp)
   13a98:	30c30008 	andi	v1,a2,0x8
   13a9c:	1060009f 	beqz	v1,0x13d1c
   13aa0:	00000000 	nop
   13aa4:	8f660014 	lw	a2,20(k1)
   13aa8:	3c031000 	lui	v1,0x1000
   13aac:	3c048000 	lui	a0,0x8000
   13ab0:	00c32825 	or	a1,a2,v1
   13ab4:	af650014 	sw	a1,20(k1)
   13ab8:	94820e0a 	lhu	v0,3594(a0)
   13abc:	3c1f8100 	lui	ra,0x8100
   13ac0:	2413000e 	li	s3,14
   13ac4:	3059ffff 	andi	t9,v0,0xffff
   13ac8:	033fc025 	or	t8,t9,ra
   13acc:	af780004 	sw	t8,4(k1)
   13ad0:	a3730002 	sb	s3,2(k1)
   13ad4:	9372000a 	lbu	s2,10(k1)
   13ad8:	3406fffc 	li	a2,0xfffc
   13adc:	26510004 	addiu	s1,s2,4
   13ae0:	a371000a 	sb	s1,10(k1)
   13ae4:	97880040 	lhu	t0,64(gp)
   13ae8:	31072000 	andi	a3,t0,0x2000
   13aec:	10e00091 	beqz	a3,0x13d34
   13af0:	00000000 	nop
   13af4:	3c0b8000 	lui	t3,0x8000
   13af8:	97890040 	lhu	t1,64(gp)
   13afc:	95680e0c 	lhu	t0,3596(t3)
   13b00:	97840040 	lhu	a0,64(gp)
   13b04:	00091842 	srl	v1,t1,0x1
   13b08:	3107c000 	andi	a3,t0,0xc000
   13b0c:	30650003 	andi	a1,v1,0x3
   13b10:	00071303 	sra	v0,a3,0xc
   13b14:	309f1000 	andi	ra,a0,0x1000
   13b18:	00a2c025 	or	t8,a1,v0
   13b1c:	001fca03 	sra	t9,ra,0x8
   13b20:	03199825 	or	s3,t8,t9
   13b24:	001390c0 	sll	s2,s3,0x3
   13b28:	a7720012 	sh	s2,18(k1)
   13b2c:	97910040 	lhu	s1,64(gp)
   13b30:	936f000a 	lbu	t7,10(k1)
   13b34:	00118182 	srl	s0,s1,0x6
   13b38:	320e003c 	andi	t6,s0,0x3c
   13b3c:	01cf6821 	addu	t5,t6,t7
   13b40:	25ac003c 	addiu	t4,t5,60
   13b44:	a36c0009 	sb	t4,9(k1)
   13b48:	956a0e0c 	lhu	t2,3596(t3)
   13b4c:	31493fff 	andi	t1,t2,0x3fff
   13b50:	a7690010 	sh	t1,16(k1)
   13b54:	976d0012 	lhu	t5,18(k1)
   13b58:	936c0009 	lbu	t4,9(k1)
   13b5c:	018d5821 	addu	t3,t4,t5
   13b60:	256a0002 	addiu	t2,t3,2
   13b64:	31490007 	andi	t1,t2,0x7
   13b68:	00094023 	negu	t0,t1
   13b6c:	31030007 	andi	v1,t0,0x7
   13b70:	a363000b 	sb	v1,11(k1)
   13b74:	93670009 	lbu	a3,9(k1)
   13b78:	97640012 	lhu	a0,18(k1)
   13b7c:	97650010 	lhu	a1,16(k1)
   13b80:	30e200ff 	andi	v0,a3,0xff
   13b84:	8f900028 	lw	s0,40(gp)
   13b88:	97980040 	lhu	t8,64(gp)
   13b8c:	0044f821 	addu	ra,v0,a0
   13b90:	03e5c821 	addu	t9,ra,a1
   13b94:	03269821 	addu	s3,t9,a2
   13b98:	33120040 	andi	s2,t8,0x40
   13b9c:	12400005 	beqz	s2,0x13bb4
   13ba0:	3266ffff 	andi	a2,s3,0xffff
   13ba4:	00d0702b 	sltu	t6,a2,s0
   13ba8:	3c118000 	lui	s1,0x8000
   13bac:	11c00016 	beqz	t6,0x13c08
   13bb0:	00009021 	move	s2,zero
   13bb4:	0206782b 	sltu	t7,s0,a2
   13bb8:	15e0002d 	bnez	t7,0x13c70
   13bbc:	00002021 	move	a0,zero
   13bc0:	3c108000 	lui	s0,0x8000
   13bc4:	8e120e14 	lw	s2,3604(s0)
   13bc8:	3c058000 	lui	a1,0x8000
   13bcc:	ae120e10 	sw	s2,3600(s0)
   13bd0:	8e110e1c 	lw	s1,3612(s0)
   13bd4:	ae110e18 	sw	s1,3608(s0)
   13bd8:	ae060e00 	sw	a2,3584(s0)
   13bdc:	8cb80000 	lw	t8,0(a1)
   13be0:	33130008 	andi	s3,t8,0x8
   13be4:	1260fffd 	beqz	s3,0x13bdc
   13be8:	00000000 	nop
   13bec:	94b90e08 	lhu	t9,3592(a1)
   13bf0:	00c08021 	move	s0,a2
   13bf4:	00008821 	move	s1,zero
   13bf8:	a7990040 	sh	t9,64(gp)
   13bfc:	8ca60e04 	lw	a2,3588(a1)
   13c00:	24120001 	li	s2,1
   13c04:	af860028 	sw	a2,40(gp)
   13c08:	977f0010 	lhu	ra,16(k1)
   13c0c:	33f3ffff 	andi	s3,ra,0xffff
   13c10:	8e890000 	lw	t1,0(s4)
   13c14:	01302023 	subu	a0,t1,s0
   13c18:	10800058 	beqz	a0,0x13d7c
   13c1c:	ae840000 	sw	a0,0(s4)
   13c20:	02202021 	move	a0,s1
   13c24:	0e000243 	jal	0x800090c
   13c28:	02002821 	move	a1,s0
   13c2c:	8e8c0000 	lw	t4,0(s4)
   13c30:	15800005 	bnez	t4,0x13c48
   13c34:	00000000 	nop
   13c38:	8f6d0014 	lw	t5,20(k1)
   13c3c:	240effbf 	li	t6,-65
   13c40:	01aea024 	and	s4,t5,t6
   13c44:	af740014 	sw	s4,20(k1)
   13c48:	8f78000c 	lw	t8,12(k1)
   13c4c:	03138821 	addu	s1,t8,s3
   13c50:	af71000c 	sw	s1,12(k1)
   13c54:	936f0008 	lbu	t7,8(k1)
   13c58:	15e00003 	bnez	t7,0x13c68
   13c5c:	00000000 	nop
   13c60:	16400040 	bnez	s2,0x13d64
   13c64:	00000000 	nop
   13c68:	a3720008 	sb	s2,8(k1)
   13c6c:	02002021 	move	a0,s0
   13c70:	8fbf0024 	lw	ra,36(sp)
   13c74:	8fb40020 	lw	s4,32(sp)
   13c78:	8fb3001c 	lw	s3,28(sp)
   13c7c:	8fb20018 	lw	s2,24(sp)
   13c80:	8fb10014 	lw	s1,20(sp)
   13c84:	8fb00010 	lw	s0,16(sp)
   13c88:	00801021 	move	v0,a0
   13c8c:	03e00008 	jr	ra
   13c90:	27bd0028 	addiu	sp,sp,40
   13c94:	8f900028 	lw	s0,40(gp)
   13c98:	97820040 	lhu	v0,64(gp)
   13c9c:	3c118000 	lui	s1,0x8000
   13ca0:	02009821 	move	s3,s0
   13ca4:	30450040 	andi	a1,v0,0x40
   13ca8:	14a0ffd9 	bnez	a1,0x13c10
   13cac:	00009021 	move	s2,zero
   13cb0:	97680010 	lhu	t0,16(k1)
   13cb4:	8f870028 	lw	a3,40(gp)
   13cb8:	3103ffff 	andi	v1,t0,0xffff
   13cbc:	1467ffec 	bne	v1,a3,0x13c70
   13cc0:	00002021 	move	a0,zero
   13cc4:	00008821 	move	s1,zero
   13cc8:	0a000339 	j	0x8000ce4
   13ccc:	24120001 	li	s2,1
   13cd0:	2403000e 	li	v1,14
   13cd4:	24104007 	li	s0,16391
   13cd8:	a363000a 	sb	v1,10(k1)
   13cdc:	af700014 	sw	s0,20(k1)
   13ce0:	938f0042 	lbu	t7,66(gp)
   13ce4:	8f6c0014 	lw	t4,20(k1)
   13ce8:	31ee0001 	andi	t6,t7,0x1
   13cec:	000e6a40 	sll	t5,t6,0x9
   13cf0:	018d5825 	or	t3,t4,t5
   13cf4:	af6b0014 	sw	t3,20(k1)
   13cf8:	978a0040 	lhu	t2,64(gp)
   13cfc:	8f680014 	lw	t0,20(k1)
   13d00:	31490010 	andi	t1,t2,0x10
   13d04:	01093825 	or	a3,t0,t1
   13d08:	af670014 	sw	a3,20(k1)
   13d0c:	97860040 	lhu	a2,64(gp)
   13d10:	30c30008 	andi	v1,a2,0x8
   13d14:	1460ff63 	bnez	v1,0x13aa4
   13d18:	00000000 	nop
   13d1c:	af600004 	sw	zero,4(k1)
   13d20:	a3600002 	sb	zero,2(k1)
   13d24:	97880040 	lhu	t0,64(gp)
   13d28:	31072000 	andi	a3,t0,0x2000
   13d2c:	14e0ff71 	bnez	a3,0x13af4
   13d30:	00003021 	move	a2,zero
   13d34:	a7600012 	sh	zero,18(k1)
   13d38:	97910040 	lhu	s1,64(gp)
   13d3c:	936f000a 	lbu	t7,10(k1)
   13d40:	3c0b8000 	lui	t3,0x8000
   13d44:	32301f00 	andi	s0,s1,0x1f00
   13d48:	00107183 	sra	t6,s0,0x6
   13d4c:	01cf6821 	addu	t5,t6,t7
   13d50:	25ac0028 	addiu	t4,t5,40
   13d54:	a36c0009 	sb	t4,9(k1)
   13d58:	956a0e0c 	lhu	t2,3596(t3)
   13d5c:	0a00030a 	j	0x8000c28
   13d60:	a76a0010 	sh	t2,16(k1)
   13d64:	8f660014 	lw	a2,20(k1)
   13d68:	3c1fefff 	lui	ra,0xefff
   13d6c:	37f9fffe 	ori	t9,ra,0xfffe
   13d70:	00d99824 	and	s3,a2,t9
   13d74:	0a00034f 	j	0x8000d3c
   13d78:	af730014 	sw	s3,20(k1)
   13d7c:	8f6b0014 	lw	t3,20(k1)
   13d80:	356a0040 	ori	t2,t3,0x40
   13d84:	0e00016e 	jal	0x80005b8
   13d88:	af6a0014 	sw	t2,20(k1)
   13d8c:	0a00033e 	j	0x8000cf8
   13d90:	02202021 	move	a0,s1
   13d94:	8f850044 	lw	a1,68(gp)
   13d98:	8f8a0030 	lw	t2,48(gp)
   13d9c:	27bdffc0 	addiu	sp,sp,-64
   13da0:	3c048000 	lui	a0,0x8000
   13da4:	afb70034 	sw	s7,52(sp)
   13da8:	afb40028 	sw	s4,40(sp)
   13dac:	afb1001c 	sw	s1,28(sp)
   13db0:	afbf0038 	sw	ra,56(sp)
   13db4:	afb60030 	sw	s6,48(sp)
   13db8:	afb5002c 	sw	s5,44(sp)
   13dbc:	afb30024 	sw	s3,36(sp)
   13dc0:	afb20020 	sw	s2,32(sp)
   13dc4:	afb00018 	sw	s0,24(sp)
   13dc8:	8c870104 	lw	a3,260(a0)
   13dcc:	8ca90024 	lw	t1,36(a1)
   13dd0:	ac8a0080 	sw	t2,128(a0)
   13dd4:	8ca80020 	lw	t0,32(a1)
   13dd8:	00e98823 	subu	s1,a3,t1
   13ddc:	0000b821 	move	s7,zero
   13de0:	ac880e10 	sw	t0,3600(a0)
   13de4:	8ca60024 	lw	a2,36(a1)
   13de8:	0000a021 	move	s4,zero
   13dec:	ac860e18 	sw	a2,3608(a0)
   13df0:	8c820e10 	lw	v0,3600(a0)
   13df4:	ac820e14 	sw	v0,3604(a0)
   13df8:	8c830e18 	lw	v1,3608(a0)
   13dfc:	ac830e1c 	sw	v1,3612(a0)
   13e00:	12200033 	beqz	s1,0x13ed0
   13e04:	3c168000 	lui	s6,0x8000
   13e08:	936b0008 	lbu	t3,8(k1)
   13e0c:	11600054 	beqz	t3,0x13f60
   13e10:	00000000 	nop
   13e14:	976e0010 	lhu	t6,16(k1)
   13e18:	31cdffff 	andi	t5,t6,0xffff
   13e1c:	022d602b 	sltu	t4,s1,t5
   13e20:	1580004f 	bnez	t4,0x13f60
   13e24:	00000000 	nop
   13e28:	97700010 	lhu	s0,16(k1)
   13e2c:	320fffff 	andi	t7,s0,0xffff
   13e30:	aecf0e00 	sw	t7,3584(s6)
   13e34:	3c058000 	lui	a1,0x8000
   13e38:	8cb30000 	lw	s3,0(a1)
   13e3c:	32720008 	andi	s2,s3,0x8
   13e40:	1240fffd 	beqz	s2,0x13e38
   13e44:	00000000 	nop
   13e48:	94b50e08 	lhu	s5,3592(a1)
   13e4c:	8ca50e04 	lw	a1,3588(a1)
   13e50:	32b0ffff 	andi	s0,s5,0xffff
   13e54:	32140001 	andi	s4,s0,0x1
   13e58:	12800044 	beqz	s4,0x13f6c
   13e5c:	00000000 	nop
   13e60:	0000000d 	break
   13e64:	3219a040 	andi	t9,s0,0xa040
   13e68:	24180040 	li	t8,64
   13e6c:	13380045 	beq	t9,t8,0x13f84
   13e70:	3214a000 	andi	s4,s0,0xa000
   13e74:	1280003f 	beqz	s4,0x13f74
   13e78:	00000000 	nop
   13e7c:	93730008 	lbu	s3,8(k1)
   13e80:	12600009 	beqz	s3,0x13ea8
   13e84:	27a40010 	addiu	a0,sp,16
   13e88:	97620010 	lhu	v0,16(k1)
   13e8c:	305fffff 	andi	ra,v0,0xffff
   13e90:	00bfc82b 	sltu	t9,a1,ra
   13e94:	53200005 	beqzl	t9,0x13eac
   13e98:	afb10010 	sw	s1,16(sp)
   13e9c:	32080040 	andi	t0,s0,0x40
   13ea0:	11000034 	beqz	t0,0x13f74
   13ea4:	00000000 	nop
   13ea8:	afb10010 	sw	s1,16(sp)
   13eac:	a7900040 	sh	s0,64(gp)
   13eb0:	af850028 	sw	a1,40(gp)
   13eb4:	0e0002bd 	jal	0x8000af4
   13eb8:	00000000 	nop
   13ebc:	0040a021 	move	s4,v0
   13ec0:	104000be 	beqz	v0,0x141bc
   13ec4:	8fb10010 	lw	s1,16(sp)
   13ec8:	1620ffcf 	bnez	s1,0x13e08
   13ecc:	00000000 	nop
   13ed0:	2e960001 	sltiu	s6,s4,1
   13ed4:	02d78825 	or	s1,s6,s7
   13ed8:	12200017 	beqz	s1,0x13f38
   13edc:	8fbf0038 	lw	ra,56(sp)
   13ee0:	8f850030 	lw	a1,48(gp)
   13ee4:	24170f00 	li	s7,3840
   13ee8:	10b70071 	beq	a1,s7,0x140b0
   13eec:	3c048000 	lui	a0,0x8000
   13ef0:	8c8f0178 	lw	t7,376(a0)
   13ef4:	05e0fffe 	bltz	t7,0x13ef0
   13ef8:	24180f00 	li	t8,3840
   13efc:	50b8008f 	beql	a1,t8,0x1413c
   13f00:	3c048000 	lui	a0,0x8000
   13f04:	8c990e14 	lw	t9,3604(a0)
   13f08:	24140240 	li	s4,576
   13f0c:	3c051000 	lui	a1,0x1000
   13f10:	ac990144 	sw	t9,324(a0)
   13f14:	8c930e1c 	lw	s3,3612(a0)
   13f18:	ac930148 	sw	s3,328(a0)
   13f1c:	a0800152 	sb	zero,338(a0)
   13f20:	a480015a 	sh	zero,346(a0)
   13f24:	ac800160 	sw	zero,352(a0)
   13f28:	a4800158 	sh	zero,344(a0)
   13f2c:	ac940154 	sw	s4,340(a0)
   13f30:	ac850178 	sw	a1,376(a0)
   13f34:	8fbf0038 	lw	ra,56(sp)
   13f38:	8fb70034 	lw	s7,52(sp)
   13f3c:	8fb60030 	lw	s6,48(sp)
   13f40:	8fb5002c 	lw	s5,44(sp)
   13f44:	8fb40028 	lw	s4,40(sp)
   13f48:	8fb30024 	lw	s3,36(sp)
   13f4c:	8fb20020 	lw	s2,32(sp)
   13f50:	8fb1001c 	lw	s1,28(sp)
   13f54:	8fb00018 	lw	s0,24(sp)
   13f58:	03e00008 	jr	ra
   13f5c:	27bd0040 	addiu	sp,sp,64
   13f60:	aed10e00 	sw	s1,3584(s6)
   13f64:	0a0003c3 	j	0x8000f0c
   13f68:	3c058000 	lui	a1,0x8000
   13f6c:	14a0ffbe 	bnez	a1,0x13e68
   13f70:	3219a040 	andi	t9,s0,0xa040
   13f74:	0e000175 	jal	0x80005d4
   13f78:	0000a021 	move	s4,zero
   13f7c:	0a0003ea 	j	0x8000fa8
   13f80:	2e960001 	sltiu	s6,s4,1
   13f84:	3c038000 	lui	v1,0x8000
   13f88:	8c7f0178 	lw	ra,376(v1)
   13f8c:	07e0fffe 	bltz	ra,0x13f88
   13f90:	24020800 	li	v0,2048
   13f94:	8f84003c 	lw	a0,60(gp)
   13f98:	ac620178 	sw	v0,376(v1)
   13f9c:	3c038000 	lui	v1,0x8000
   13fa0:	946b008a 	lhu	t3,138(v1)
   13fa4:	316affff 	andi	t2,t3,0xffff
   13fa8:	01443823 	subu	a3,t2,a0
   13fac:	24e9ffff 	addiu	t1,a3,-1
   13fb0:	31281fff 	andi	t0,t1,0x1fff
   13fb4:	2d060008 	sltiu	a2,t0,8
   13fb8:	14c0fff9 	bnez	a2,0x13fa0
   13fbc:	346c4000 	ori	t4,v1,0x4000
   13fc0:	00a0a021 	move	s4,a1
   13fc4:	0e000168 	jal	0x80005a0
   13fc8:	008c9021 	addu	s2,a0,t4
   13fcc:	8f830030 	lw	v1,48(gp)
   13fd0:	24040f00 	li	a0,3840
   13fd4:	0040a821 	move	s5,v0
   13fd8:	02348823 	subu	s1,s1,s4
   13fdc:	3c068000 	lui	a2,0x8000
   13fe0:	10640005 	beq	v1,a0,0x13ff8
   13fe4:	24050001 	li	a1,1
   13fe8:	938e0042 	lbu	t6,66(gp)
   13fec:	31c50001 	andi	a1,t6,0x1
   13ff0:	00056a40 	sll	t5,a1,0x9
   13ff4:	35a50001 	ori	a1,t5,0x1
   13ff8:	0015fc00 	sll	ra,s5,0x10
   13ffc:	3c020100 	lui	v0,0x100
   14000:	03e2c825 	or	t9,ra,v0
   14004:	ae590000 	sw	t9,0(s2)
   14008:	8f930050 	lw	s3,80(gp)
   1400c:	32180036 	andi	t8,s0,0x36
   14010:	320f0008 	andi	t7,s0,0x8
   14014:	ae530004 	sw	s3,4(s2)
   14018:	11e00041 	beqz	t7,0x14120
   1401c:	00b89825 	or	s3,a1,t8
   14020:	94c30e0a 	lhu	v1,3594(a2)
   14024:	8f84003c 	lw	a0,60(gp)
   14028:	3c0b8100 	lui	t3,0x8100
   1402c:	306affff 	andi	t2,v1,0xffff
   14030:	24920008 	addiu	s2,a0,8
   14034:	32481fff 	andi	t0,s2,0x1fff
   14038:	014b4825 	or	t1,t2,t3
   1403c:	3c071000 	lui	a3,0x1000
   14040:	26920006 	addiu	s2,s4,6
   14044:	2410000e 	li	s0,14
   14048:	acc90160 	sw	t1,352(a2)
   1404c:	02679825 	or	s3,s3,a3
   14050:	a4d0015a 	sh	s0,346(a2)
   14054:	af88003c 	sw	t0,60(gp)
   14058:	a4d20158 	sh	s2,344(a2)
   1405c:	16200008 	bnez	s1,0x14080
   14060:	3c108000 	lui	s0,0x8000
   14064:	8f8e0030 	lw	t6,48(gp)
   14068:	24050f00 	li	a1,3840
   1406c:	51c50002 	beql	t6,a1,0x14078
   14070:	24170001 	li	s7,1
   14074:	36730040 	ori	s3,s3,0x40
   14078:	0e00016e 	jal	0x80005b8
   1407c:	3c108000 	lui	s0,0x8000
   14080:	8e180e14 	lw	t8,3604(s0)
   14084:	02402021 	move	a0,s2
   14088:	ae180144 	sw	t8,324(s0)
   1408c:	8e0f0e1c 	lw	t7,3612(s0)
   14090:	ae0f0148 	sw	t7,328(s0)
   14094:	a2150152 	sb	s5,338(s0)
   14098:	ae130154 	sw	s3,340(s0)
   1409c:	0e00017c 	jal	0x80005f0
   140a0:	3c151000 	lui	s5,0x1000
   140a4:	ae150178 	sw	s5,376(s0)
   140a8:	0a0003e7 	j	0x8000f9c
   140ac:	00000000 	nop
   140b0:	12800005 	beqz	s4,0x140c8
   140b4:	3c078000 	lui	a3,0x8000
   140b8:	94f20e08 	lhu	s2,3592(a3)
   140bc:	32490040 	andi	t1,s2,0x40
   140c0:	11200042 	beqz	t1,0x141cc
   140c4:	00000000 	nop
   140c8:	8c8a0178 	lw	t2,376(a0)
   140cc:	0540fffe 	bltz	t2,0x140c8
   140d0:	00000000 	nop
   140d4:	94950e10 	lhu	s5,3600(a0)
   140d8:	3c100500 	lui	s0,0x500
   140dc:	24032000 	li	v1,8192
   140e0:	32aeffff 	andi	t6,s5,0xffff
   140e4:	01d06825 	or	t5,t6,s0
   140e8:	ac8d014c 	sw	t5,332(a0)
   140ec:	8c8c0e14 	lw	t4,3604(a0)
   140f0:	3c0b1000 	lui	t3,0x1000
   140f4:	ac8c0144 	sw	t4,324(a0)
   140f8:	8c860e1c 	lw	a2,3612(a0)
   140fc:	ac860148 	sw	a2,328(a0)
   14100:	a0800152 	sb	zero,338(a0)
   14104:	a480015a 	sh	zero,346(a0)
   14108:	ac800160 	sw	zero,352(a0)
   1410c:	a4800158 	sh	zero,344(a0)
   14110:	ac830154 	sw	v1,340(a0)
   14114:	ac8b0178 	sw	t3,376(a0)
   14118:	0a0003f1 	j	0x8000fc4
   1411c:	3c048000 	lui	a0,0x8000
   14120:	8f8d003c 	lw	t5,60(gp)
   14124:	26920002 	addiu	s2,s4,2
   14128:	a4d20158 	sh	s2,344(a2)
   1412c:	25ac0008 	addiu	t4,t5,8
   14130:	31861fff 	andi	a2,t4,0x1fff
   14134:	0a00044c 	j	0x8001130
   14138:	af86003c 	sw	a2,60(gp)
   1413c:	ac80014c 	sw	zero,332(a0)
   14140:	12800019 	beqz	s4,0x141a8
   14144:	00000000 	nop
   14148:	8c9f0e10 	lw	ra,3600(a0)
   1414c:	ac9f0144 	sw	ra,324(a0)
   14150:	8c830e18 	lw	v1,3608(a0)
   14154:	3c088000 	lui	t0,0x8000
   14158:	24110040 	li	s1,64
   1415c:	ac830148 	sw	v1,328(a0)
   14160:	8fbf0038 	lw	ra,56(sp)
   14164:	a1000152 	sb	zero,338(t0)
   14168:	8fb70034 	lw	s7,52(sp)
   1416c:	a500015a 	sh	zero,346(t0)
   14170:	8fb60030 	lw	s6,48(sp)
   14174:	ad000160 	sw	zero,352(t0)
   14178:	8fb5002c 	lw	s5,44(sp)
   1417c:	a5000158 	sh	zero,344(t0)
   14180:	8fb40028 	lw	s4,40(sp)
   14184:	ad110154 	sw	s1,340(t0)
   14188:	8fb30024 	lw	s3,36(sp)
   1418c:	8fb20020 	lw	s2,32(sp)
   14190:	8fb1001c 	lw	s1,28(sp)
   14194:	8fb00018 	lw	s0,24(sp)
   14198:	3c041000 	lui	a0,0x1000
   1419c:	27bd0040 	addiu	sp,sp,64
   141a0:	03e00008 	jr	ra
   141a4:	ad040178 	sw	a0,376(t0)
   141a8:	8c820e14 	lw	v0,3604(a0)
   141ac:	ac820144 	sw	v0,324(a0)
   141b0:	8c830e1c 	lw	v1,3612(a0)
   141b4:	0a00048b 	j	0x800122c
   141b8:	3c088000 	lui	t0,0x8000
   141bc:	0e000175 	jal	0x80005d4
   141c0:	2e960001 	sltiu	s6,s4,1
   141c4:	0a0003eb 	j	0x8000fac
   141c8:	02d78825 	or	s1,s6,s7
   141cc:	00000000 	nop
   141d0:	0000000d 	break
   141d4:	00000000 	nop
   141d8:	2400033a 	li	zero,826
   141dc:	0a000467 	j	0x800119c
   141e0:	3c048000 	lui	a0,0x8000
   141e4:	27bdffd8 	addiu	sp,sp,-40
   141e8:	afb10014 	sw	s1,20(sp)
   141ec:	3c118000 	lui	s1,0x8000
   141f0:	afb00010 	sw	s0,16(sp)
   141f4:	afb40020 	sw	s4,32(sp)
   141f8:	afb3001c 	sw	s3,28(sp)
   141fc:	afb20018 	sw	s2,24(sp)
   14200:	afbf0024 	sw	ra,36(sp)
   14204:	3c130800 	lui	s3,0x800
   14208:	26733c34 	addiu	s3,s3,15412
   1420c:	0e0001f9 	jal	0x80007e4
   14210:	36300070 	ori	s0,s1,0x70
   14214:	3c140800 	lui	s4,0x800
   14218:	26943cb4 	addiu	s4,s4,15540
   1421c:	02009021 	move	s2,s0
   14220:	8e080000 	lw	t0,0(s0)
   14224:	8e240000 	lw	a0,0(s1)
   14228:	38830001 	xori	v1,a0,0x1
   1422c:	30620001 	andi	v0,v1,0x1
   14230:	10400016 	beqz	v0,0x1428c
   14234:	3c0a8000 	lui	t2,0x8000
   14238:	02404821 	move	t1,s2
   1423c:	8d270000 	lw	a3,0(t1)
   14240:	3c1f0800 	lui	ra,0x800
   14244:	8fff006c 	lw	ra,108(ra)
   14248:	3c0f0800 	lui	t7,0x800
   1424c:	8def0068 	lw	t7,104(t7)
   14250:	00e81023 	subu	v0,a3,t0
   14254:	03e26021 	addu	t4,ra,v0
   14258:	0000c021 	move	t8,zero
   1425c:	0182702b 	sltu	t6,t4,v0
   14260:	01f86821 	addu	t5,t7,t8
   14264:	01ae4021 	addu	t0,t5,t6
   14268:	3c010800 	lui	at,0x800
   1426c:	ac2c006c 	sw	t4,108(at)
   14270:	3c010800 	lui	at,0x800
   14274:	ac280068 	sw	t0,104(at)
   14278:	8d4b0000 	lw	t3,0(t2)
   1427c:	39660001 	xori	a2,t3,0x1
   14280:	30c50001 	andi	a1,a2,0x1
   14284:	14a0ffed 	bnez	a1,0x1423c
   14288:	00e04021 	move	t0,a3
   1428c:	8e1f0000 	lw	ra,0(s0)
   14290:	3c180800 	lui	t8,0x800
   14294:	8f18006c 	lw	t8,108(t8)
   14298:	3c0d0800 	lui	t5,0x800
   1429c:	8dad0068 	lw	t5,104(t5)
   142a0:	03e8c823 	subu	t9,ra,t0
   142a4:	03193821 	addu	a3,t8,t9
   142a8:	00007021 	move	t6,zero
   142ac:	00f9602b 	sltu	t4,a3,t9
   142b0:	01ae4021 	addu	t0,t5,t6
   142b4:	010c5821 	addu	t3,t0,t4
   142b8:	3c010800 	lui	at,0x800
   142bc:	ac27006c 	sw	a3,108(at)
   142c0:	3c010800 	lui	at,0x800
   142c4:	ac2b0068 	sw	t3,104(at)
   142c8:	8e280100 	lw	t0,256(s1)
   142cc:	2406ff80 	li	a2,-128
   142d0:	3c04800a 	lui	a0,0x800a
   142d4:	25050240 	addiu	a1,t0,576
   142d8:	00a64824 	and	t1,a1,a2
   142dc:	ae280020 	sw	t0,32(s1)
   142e0:	ae290024 	sw	t1,36(s1)
   142e4:	8e090000 	lw	t1,0(s0)
   142e8:	30a3007f 	andi	v1,a1,0x7f
   142ec:	00645021 	addu	t2,v1,a0
   142f0:	3c078000 	lui	a3,0x8000
   142f4:	af8a0044 	sw	t2,68(gp)
   142f8:	af880030 	sw	t0,48(gp)
   142fc:	af890024 	sw	t1,36(gp)
   14300:	8ce20178 	lw	v0,376(a3)
   14304:	0440fffe 	bltz	v0,0x14300
   14308:	00000000 	nop
   1430c:	8e1f0000 	lw	ra,0(s0)
   14310:	3c180800 	lui	t8,0x800
   14314:	8f180074 	lw	t8,116(t8)
   14318:	3c0d0800 	lui	t5,0x800
   1431c:	8dad0070 	lw	t5,112(t5)
   14320:	03e9c823 	subu	t9,ra,t1
   14324:	03195821 	addu	t3,t8,t9
   14328:	00007021 	move	t6,zero
   1432c:	0179302b 	sltu	a2,t3,t9
   14330:	01ae6021 	addu	t4,t5,t6
   14334:	01864821 	addu	t1,t4,a2
   14338:	24050800 	li	a1,2048
   1433c:	3c010800 	lui	at,0x800
   14340:	ac2b0074 	sw	t3,116(at)
   14344:	3c010800 	lui	at,0x800
   14348:	ac290070 	sw	t1,112(at)
   1434c:	ace50178 	sw	a1,376(a3)
   14350:	90e40108 	lbu	a0,264(a3)
   14354:	a3840042 	sb	a0,66(gp)
   14358:	93830042 	lbu	v1,66(gp)
   1435c:	306a0001 	andi	t2,v1,0x1
   14360:	1140000f 	beqz	t2,0x143a0
   14364:	240e0d00 	li	t6,3328
   14368:	2502f800 	addiu	v0,t0,-2048
   1436c:	2c470301 	sltiu	a3,v0,769
   14370:	10e0001c 	beqz	a3,0x143e4
   14374:	000819c2 	srl	v1,t0,0x7
   14378:	2464fff0 	addiu	a0,v1,-16
   1437c:	00045042 	srl	t2,a0,0x1
   14380:	000a4140 	sll	t0,t2,0x5
   14384:	0e00039a 	jal	0x8000e68
   14388:	0113d821 	addu	k1,t0,s3
   1438c:	3c0a4000 	lui	t2,0x4000
   14390:	3c088000 	lui	t0,0x8000
   14394:	ad0a0138 	sw	t2,312(t0)
   14398:	0a0004bd 	j	0x80012f4
   1439c:	00000000 	nop
   143a0:	110e0026 	beq	t0,t6,0x1443c
   143a4:	240f0f00 	li	t7,3840
   143a8:	110f002a 	beq	t0,t7,0x14454
   143ac:	3c028008 	lui	v0,0x8008
   143b0:	34470080 	ori	a3,v0,0x80
   143b4:	90ff0000 	lbu	ra,0(a3)
   143b8:	24180050 	li	t8,80
   143bc:	33f900ff 	andi	t9,ra,0xff
   143c0:	1738fff3 	bne	t9,t8,0x14390
   143c4:	3c0a4000 	lui	t2,0x4000
   143c8:	0e0009a3 	jal	0x800268c
   143cc:	00000000 	nop
   143d0:	3c0a4000 	lui	t2,0x4000
   143d4:	3c088000 	lui	t0,0x8000
   143d8:	ad0a0138 	sw	t2,312(t0)
   143dc:	0a0004bd 	j	0x80012f4
   143e0:	00000000 	nop
   143e4:	8f840034 	lw	a0,52(gp)
   143e8:	0064282b 	sltu	a1,v1,a0
   143ec:	14a0000b 	bnez	a1,0x1441c
   143f0:	8f860048 	lw	a2,72(gp)
   143f4:	00866021 	addu	t4,a0,a2
   143f8:	258bffff 	addiu	t3,t4,-1
   143fc:	0163482b 	sltu	t1,t3,v1
   14400:	15200006 	bnez	t1,0x1441c
   14404:	00646823 	subu	t5,v1,a0
   14408:	000d1940 	sll	v1,t5,0x5
   1440c:	0e00039a 	jal	0x8000e68
   14410:	0074d821 	addu	k1,v1,s4
   14414:	0a000519 	j	0x8001464
   14418:	3c0a4000 	lui	t2,0x4000
   1441c:	00000000 	nop
   14420:	0000000d 	break
   14424:	00000000 	nop
   14428:	240003ad 	li	zero,941
   1442c:	0e00039a 	jal	0x8000e68
   14430:	00000000 	nop
   14434:	0a000519 	j	0x8001464
   14438:	3c0a4000 	lui	t2,0x4000
   1443c:	3c1b0800 	lui	k1,0x800
   14440:	277b3db4 	addiu	k1,k1,15796
   14444:	0e00039a 	jal	0x8000e68
   14448:	00000000 	nop
   1444c:	0a000519 	j	0x8001464
   14450:	3c0a4000 	lui	t2,0x4000
   14454:	3c1b0800 	lui	k1,0x800
   14458:	277b3dd4 	addiu	k1,k1,15828
   1445c:	0e00039a 	jal	0x8000e68
   14460:	00000000 	nop
   14464:	0a000519 	j	0x8001464
   14468:	3c0a4000 	lui	t2,0x4000
   1446c:	8f820050 	lw	v0,80(gp)
   14470:	24430001 	addiu	v1,v0,1
   14474:	304200ff 	andi	v0,v0,0xff
   14478:	af830050 	sw	v1,80(gp)
   1447c:	03e00008 	jr	ra
   14480:	00000000 	nop
   14484:	000411c0 	sll	v0,a0,0x7
   14488:	03e00008 	jr	ra
   1448c:	24420240 	addiu	v0,v0,576
   14490:	3c040800 	lui	a0,0x800
   14494:	24843bcc 	addiu	a0,a0,15308
   14498:	2405001a 	li	a1,26
   1449c:	0a00007c 	j	0x80001f0
   144a0:	00003021 	move	a2,zero
   144a4:	27bdffe0 	addiu	sp,sp,-32
   144a8:	afbf001c 	sw	ra,28(sp)
   144ac:	afb20018 	sw	s2,24(sp)
   144b0:	afb10014 	sw	s1,20(sp)
   144b4:	afb00010 	sw	s0,16(sp)
   144b8:	3c108000 	lui	s0,0x8000
   144bc:	920b0109 	lbu	t3,265(s0)
   144c0:	2412ff80 	li	s2,-128
   144c4:	0e000556 	jal	0x8001558
   144c8:	3164007f 	andi	a0,t3,0x7f
   144cc:	8f910030 	lw	s1,48(gp)
   144d0:	00515021 	addu	t2,v0,s1
   144d4:	01524024 	and	t0,t2,s2
   144d8:	ae080024 	sw	t0,36(s0)
   144dc:	92030109 	lbu	v1,265(s0)
   144e0:	0e000556 	jal	0x8001558
   144e4:	3064007f 	andi	a0,v1,0x7f
   144e8:	24060080 	li	a2,128
   144ec:	240700c0 	li	a3,192
   144f0:	24040040 	li	a0,64
   144f4:	ae000810 	sw	zero,2064(s0)
   144f8:	ae040814 	sw	a0,2068(s0)
   144fc:	ae060818 	sw	a2,2072(s0)
   14500:	ae07081c 	sw	a3,2076(s0)
   14504:	920c0109 	lbu	t4,265(s0)
   14508:	0051f821 	addu	ra,v0,s1
   1450c:	33f8007f 	andi	t8,ra,0x7f
   14510:	3c19800a 	lui	t9,0x800a
   14514:	03191021 	addu	v0,t8,t9
   14518:	3184007f 	andi	a0,t4,0x7f
   1451c:	0e000556 	jal	0x8001558
   14520:	af820044 	sw	v0,68(gp)
   14524:	8e110100 	lw	s1,256(s0)
   14528:	3c0c0080 	lui	t4,0x80
   1452c:	35850001 	ori	a1,t4,0x1
   14530:	02227821 	addu	t7,s1,v0
   14534:	01f24824 	and	t1,t7,s2
   14538:	ae090804 	sw	t1,2052(s0)
   1453c:	8e0e0100 	lw	t6,256(s0)
   14540:	35980002 	ori	t8,t4,0x2
   14544:	36090900 	ori	t1,s0,0x900
   14548:	01c26821 	addu	t5,t6,v0
   1454c:	31ab0078 	andi	t3,t5,0x78
   14550:	01655025 	or	t2,t3,a1
   14554:	ae0a0820 	sw	t2,2080(s0)
   14558:	8e050100 	lw	a1,256(s0)
   1455c:	8e080100 	lw	t0,256(s0)
   14560:	36050980 	ori	a1,s0,0x980
   14564:	01021821 	addu	v1,t0,v0
   14568:	24640040 	addiu	a0,v1,64
   1456c:	00923024 	and	a2,a0,s2
   14570:	ae060808 	sw	a2,2056(s0)
   14574:	8e070100 	lw	a3,256(s0)
   14578:	00e2f821 	addu	ra,a3,v0
   1457c:	27f90040 	addiu	t9,ra,64
   14580:	33320078 	andi	s2,t9,0x78
   14584:	02588825 	or	s1,s2,t8
   14588:	ae110824 	sw	s1,2084(s0)
   1458c:	8e040100 	lw	a0,256(s0)
   14590:	952f000c 	lhu	t7,12(t1)
   14594:	8fbf001c 	lw	ra,28(sp)
   14598:	8fb20018 	lw	s2,24(sp)
   1459c:	31eeffff 	andi	t6,t7,0xffff
   145a0:	000e69c0 	sll	t5,t6,0x7
   145a4:	ae0d0800 	sw	t5,2048(s0)
   145a8:	ae0c0828 	sw	t4,2088(s0)
   145ac:	952b000c 	lhu	t3,12(t1)
   145b0:	8fb10014 	lw	s1,20(sp)
   145b4:	316affff 	andi	t2,t3,0xffff
   145b8:	000a41c0 	sll	t0,t2,0x7
   145bc:	ae08002c 	sw	t0,44(s0)
   145c0:	8ca30050 	lw	v1,80(a1)
   145c4:	8fb00010 	lw	s0,16(sp)
   145c8:	8ca2003c 	lw	v0,60(a1)
   145cc:	8d240004 	lw	a0,4(t1)
   145d0:	8ca6001c 	lw	a2,28(a1)
   145d4:	8ca70038 	lw	a3,56(a1)
   145d8:	27bd0020 	addiu	sp,sp,32
   145dc:	af830068 	sw	v1,104(gp)
   145e0:	af820058 	sw	v0,88(gp)
   145e4:	af840054 	sw	a0,84(gp)
   145e8:	af860060 	sw	a2,96(gp)
   145ec:	03e00008 	jr	ra
   145f0:	af870064 	sw	a3,100(gp)
   145f4:	3c0a0800 	lui	t2,0x800
   145f8:	914a3bf1 	lbu	t2,15345(t2)
   145fc:	3c090800 	lui	t1,0x800
   14600:	95293bea 	lhu	t1,15338(t1)
   14604:	3c051100 	lui	a1,0x1100
   14608:	000a3c00 	sll	a3,t2,0x10
   1460c:	25280002 	addiu	t0,t1,2
   14610:	00e83025 	or	a2,a3,t0
   14614:	00c51825 	or	v1,a2,a1
   14618:	24820008 	addiu	v0,a0,8
   1461c:	ac830000 	sw	v1,0(a0)
   14620:	03e00008 	jr	ra
   14624:	ac800004 	sw	zero,4(a0)
   14628:	3c088000 	lui	t0,0x8000
   1462c:	35070900 	ori	a3,t0,0x900
   14630:	90e60011 	lbu	a2,17(a3)
   14634:	24020028 	li	v0,40
   14638:	00805021 	move	t2,a0
   1463c:	30c300ff 	andi	v1,a2,0xff
   14640:	00a06021 	move	t4,a1
   14644:	10620002 	beq	v1,v0,0x14650
   14648:	340b86dd 	li	t3,0x86dd
   1464c:	240b0800 	li	t3,2048
   14650:	3c078000 	lui	a3,0x8000
   14654:	34e20a9a 	ori	v0,a3,0xa9a
   14658:	94590000 	lhu	t9,0(v0)
   1465c:	34ef0a9c 	ori	t7,a3,0xa9c
   14660:	34ed0aa0 	ori	t5,a3,0xaa0
   14664:	3338ffff 	andi	t8,t9,0xffff
   14668:	ad580000 	sw	t8,0(t2)
   1466c:	8dee0000 	lw	t6,0(t7)
   14670:	34e80a80 	ori	t0,a3,0xa80
   14674:	24040001 	li	a0,1
   14678:	ad4e0004 	sw	t6,4(t2)
   1467c:	8da90000 	lw	t1,0(t5)
   14680:	ad490008 	sw	t1,8(t2)
   14684:	91050019 	lbu	a1,25(t0)
   14688:	30a30003 	andi	v1,a1,0x3
   1468c:	10640043 	beq	v1,a0,0x1479c
   14690:	28660002 	slti	a2,v1,2
   14694:	14c000b0 	bnez	a2,0x14958
   14698:	24040002 	li	a0,2
   1469c:	1064008b 	beq	v1,a0,0x148cc
   146a0:	24050003 	li	a1,3
   146a4:	10650096 	beq	v1,a1,0x14900
   146a8:	34e60aa4 	ori	a2,a3,0xaa4
   146ac:	3c090800 	lui	t1,0x800
   146b0:	95293be0 	lhu	t1,15328(t1)
   146b4:	24020800 	li	v0,2048
   146b8:	5162004d 	beql	t3,v0,0x147f0
   146bc:	3c0e8000 	lui	t6,0x8000
   146c0:	3c0e8000 	lui	t6,0x8000
   146c4:	35c50900 	ori	a1,t6,0x900
   146c8:	90a60012 	lbu	a2,18(a1)
   146cc:	90b90019 	lbu	t9,25(a1)
   146d0:	35cb0980 	ori	t3,t6,0x980
   146d4:	8d680028 	lw	t0,40(t3)
   146d8:	30c700ff 	andi	a3,a2,0xff
   146dc:	00077880 	sll	t7,a3,0x2
   146e0:	3138ffff 	andi	t8,t1,0xffff
   146e4:	332300ff 	andi	v1,t9,0xff
   146e8:	01f81021 	addu	v0,t7,t8
   146ec:	00032500 	sll	a0,v1,0x14
   146f0:	00887025 	or	t6,a0,t0
   146f4:	00025c00 	sll	t3,v0,0x10
   146f8:	3c0d6000 	lui	t5,0x6000
   146fc:	01cd3025 	or	a2,t6,t5
   14700:	356906ff 	ori	t1,t3,0x6ff
   14704:	ad490004 	sw	t1,4(t2)
   14708:	ad460000 	sw	a2,0(t2)
   1470c:	8ca7002c 	lw	a3,44(a1)
   14710:	25490028 	addiu	t1,t2,40
   14714:	ad470008 	sw	a3,8(t2)
   14718:	8cb90030 	lw	t9,48(a1)
   1471c:	ad59000c 	sw	t9,12(t2)
   14720:	8cb80034 	lw	t8,52(a1)
   14724:	ad580010 	sw	t8,16(t2)
   14728:	8caf0038 	lw	t7,56(a1)
   1472c:	ad4f0014 	sw	t7,20(t2)
   14730:	8ca3001c 	lw	v1,28(a1)
   14734:	ad430018 	sw	v1,24(t2)
   14738:	8ca80020 	lw	t0,32(a1)
   1473c:	3c038000 	lui	v1,0x8000
   14740:	3462093c 	ori	v0,v1,0x93c
   14744:	ad48001c 	sw	t0,28(t2)
   14748:	8ca40024 	lw	a0,36(a1)
   1474c:	346f0900 	ori	t7,v1,0x900
   14750:	ad440020 	sw	a0,32(t2)
   14754:	8cad0028 	lw	t5,40(a1)
   14758:	ad4d0024 	sw	t5,36(t2)
   1475c:	8c590000 	lw	t9,0(v0)
   14760:	ad2c0004 	sw	t4,4(t1)
   14764:	25220014 	addiu	v0,t1,20
   14768:	ad390000 	sw	t9,0(t1)
   1476c:	8c78010c 	lw	t8,268(v1)
   14770:	ad380008 	sw	t8,8(t1)
   14774:	91e80012 	lbu	t0,18(t7)
   14778:	3c040800 	lui	a0,0x800
   1477c:	90843bf0 	lbu	a0,15344(a0)
   14780:	ad200010 	sw	zero,16(t1)
   14784:	00082f00 	sll	a1,t0,0x1c
   14788:	00046c00 	sll	t5,a0,0x10
   1478c:	00ad6025 	or	t4,a1,t5
   14790:	358affff 	ori	t2,t4,0xffff
   14794:	03e00008 	jr	ra
   14798:	ad2a000c 	sw	t2,12(t1)
   1479c:	3c090800 	lui	t1,0x800
   147a0:	95293be0 	lhu	t1,15328(t1)
   147a4:	3c0f0800 	lui	t7,0x800
   147a8:	95ef3bea 	lhu	t7,15338(t7)
   147ac:	34f90aa4 	ori	t9,a3,0xaa4
   147b0:	3c0e0800 	lui	t6,0x800
   147b4:	95ce3bdc 	lhu	t6,15324(t6)
   147b8:	97280000 	lhu	t0,0(t9)
   147bc:	3138ffff 	andi	t8,t1,0xffff
   147c0:	01f86821 	addu	t5,t7,t8
   147c4:	01ae3823 	subu	a3,t5,t6
   147c8:	00082c00 	sll	a1,t0,0x10
   147cc:	24e3fff2 	addiu	v1,a3,-14
   147d0:	00a32025 	or	a0,a1,v1
   147d4:	24020800 	li	v0,2048
   147d8:	ad44000c 	sw	a0,12(t2)
   147dc:	ad400010 	sw	zero,16(t2)
   147e0:	ad4b0014 	sw	t3,20(t2)
   147e4:	1562ffb6 	bne	t3,v0,0x146c0
   147e8:	254a0018 	addiu	t2,t2,24
   147ec:	3c0e8000 	lui	t6,0x8000
   147f0:	35cd0900 	ori	t5,t6,0x900
   147f4:	91a20011 	lbu	v0,17(t5)
   147f8:	91a70019 	lbu	a3,25(t5)
   147fc:	3c050800 	lui	a1,0x800
   14800:	94a53be6 	lhu	a1,15334(a1)
   14804:	304600ff 	andi	a2,v0,0xff
   14808:	35cb0a80 	ori	t3,t6,0xa80
   1480c:	956e002a 	lhu	t6,42(t3)
   14810:	0006c882 	srl	t9,a2,0x2
   14814:	30f800ff 	andi	t8,a3,0xff
   14818:	9787005c 	lhu	a3,92(gp)
   1481c:	00191e00 	sll	v1,t9,0x18
   14820:	00187c00 	sll	t7,t8,0x10
   14824:	3128ffff 	andi	t0,t1,0xffff
   14828:	00a82021 	addu	a0,a1,t0
   1482c:	006f4825 	or	t1,v1,t7
   14830:	01241025 	or	v0,t1,a0
   14834:	01c73021 	addu	a2,t6,a3
   14838:	3c0b4000 	lui	t3,0x4000
   1483c:	004bc825 	or	t9,v0,t3
   14840:	0006c400 	sll	t8,a2,0x10
   14844:	ad590000 	sw	t9,0(t2)
   14848:	ad580004 	sw	t8,4(t2)
   1484c:	91af0018 	lbu	t7,24(t5)
   14850:	3c030006 	lui	v1,0x6
   14854:	24e90001 	addiu	t1,a3,1
   14858:	000f4600 	sll	t0,t7,0x18
   1485c:	01037025 	or	t6,t0,v1
   14860:	ad4e0008 	sw	t6,8(t2)
   14864:	8da5002c 	lw	a1,44(t5)
   14868:	3c038000 	lui	v1,0x8000
   1486c:	3462093c 	ori	v0,v1,0x93c
   14870:	ad45000c 	sw	a1,12(t2)
   14874:	8dab001c 	lw	t3,28(t5)
   14878:	31247fff 	andi	a0,t1,0x7fff
   1487c:	25490014 	addiu	t1,t2,20
   14880:	ad4b0010 	sw	t3,16(t2)
   14884:	8c590000 	lw	t9,0(v0)
   14888:	ad2c0004 	sw	t4,4(t1)
   1488c:	346f0900 	ori	t7,v1,0x900
   14890:	ad390000 	sw	t9,0(t1)
   14894:	8c78010c 	lw	t8,268(v1)
   14898:	a784005c 	sh	a0,92(gp)
   1489c:	25220014 	addiu	v0,t1,20
   148a0:	ad380008 	sw	t8,8(t1)
   148a4:	91e80012 	lbu	t0,18(t7)
   148a8:	3c040800 	lui	a0,0x800
   148ac:	90843bf0 	lbu	a0,15344(a0)
   148b0:	ad200010 	sw	zero,16(t1)
   148b4:	00082f00 	sll	a1,t0,0x1c
   148b8:	00046c00 	sll	t5,a0,0x10
   148bc:	00ad6025 	or	t4,a1,t5
   148c0:	358affff 	ori	t2,t4,0xffff
   148c4:	03e00008 	jr	ra
   148c8:	ad2a000c 	sw	t2,12(t1)
   148cc:	34e20aa4 	ori	v0,a3,0xaa4
   148d0:	94460000 	lhu	a2,0(v0)
   148d4:	95190028 	lhu	t9,40(t0)
   148d8:	3c090800 	lui	t1,0x800
   148dc:	95293be0 	lhu	t1,15328(t1)
   148e0:	0006c400 	sll	t8,a2,0x10
   148e4:	00197c00 	sll	t7,t9,0x10
   148e8:	370e8100 	ori	t6,t8,0x8100
   148ec:	01eb6825 	or	t5,t7,t3
   148f0:	ad4e000c 	sw	t6,12(t2)
   148f4:	ad4d0010 	sw	t5,16(t2)
   148f8:	0a0005e2 	j	0x8001788
   148fc:	254a0014 	addiu	t2,t2,20
   14900:	3c090800 	lui	t1,0x800
   14904:	95293be0 	lhu	t1,15328(t1)
   14908:	3c180800 	lui	t8,0x800
   1490c:	97183bea 	lhu	t8,15338(t8)
   14910:	3c0f0800 	lui	t7,0x800
   14914:	95ef3bdc 	lhu	t7,15324(t7)
   14918:	94ce0000 	lhu	t6,0(a2)
   1491c:	3139ffff 	andi	t9,t1,0xffff
   14920:	950d0028 	lhu	t5,40(t0)
   14924:	03194021 	addu	t0,t8,t9
   14928:	010f3823 	subu	a3,t0,t7
   1492c:	000e2400 	sll	a0,t6,0x10
   14930:	000d2c00 	sll	a1,t5,0x10
   14934:	24e3ffee 	addiu	v1,a3,-18
   14938:	00a33025 	or	a2,a1,v1
   1493c:	34828100 	ori	v0,a0,0x8100
   14940:	ad42000c 	sw	v0,12(t2)
   14944:	ad460010 	sw	a2,16(t2)
   14948:	ad400014 	sw	zero,20(t2)
   1494c:	ad4b0018 	sw	t3,24(t2)
   14950:	0a0005e2 	j	0x8001788
   14954:	254a001c 	addiu	t2,t2,28
   14958:	1460ff54 	bnez	v1,0x146ac
   1495c:	34e90aa4 	ori	t1,a3,0xaa4
   14960:	95280000 	lhu	t0,0(t1)
   14964:	3c090800 	lui	t1,0x800
   14968:	95293be0 	lhu	t1,15328(t1)
   1496c:	00083c00 	sll	a3,t0,0x10
   14970:	00eb1825 	or	v1,a3,t3
   14974:	ad43000c 	sw	v1,12(t2)
   14978:	0a0005e2 	j	0x8001788
   1497c:	254a0010 	addiu	t2,t2,16
   14980:	03e00008 	jr	ra
   14984:	240207d0 	li	v0,2000
   14988:	27bdffe0 	addiu	sp,sp,-32
   1498c:	afb20018 	sw	s2,24(sp)
   14990:	afb10014 	sw	s1,20(sp)
   14994:	afb00010 	sw	s0,16(sp)
   14998:	afbf001c 	sw	ra,28(sp)
   1499c:	0e00005c 	jal	0x8000170
   149a0:	00808821 	move	s1,a0
   149a4:	8f880058 	lw	t0,88(gp)
   149a8:	8f870054 	lw	a3,84(gp)
   149ac:	3c058008 	lui	a1,0x8008
   149b0:	34b20080 	ori	s2,a1,0x80
   149b4:	01112821 	addu	a1,t0,s1
   149b8:	3c108000 	lui	s0,0x8000
   149bc:	24020080 	li	v0,128
   149c0:	240300c0 	li	v1,192
   149c4:	00a72023 	subu	a0,a1,a3
   149c8:	ae020818 	sw	v0,2072(s0)
   149cc:	3c068008 	lui	a2,0x8008
   149d0:	ae03081c 	sw	v1,2076(s0)
   149d4:	18800004 	blez	a0,0x149e8
   149d8:	af850058 	sw	a1,88(gp)
   149dc:	acc50004 	sw	a1,4(a2)
   149e0:	8cc90004 	lw	t1,4(a2)
   149e4:	af890054 	sw	t1,84(gp)
   149e8:	12200009 	beqz	s1,0x14a10
   149ec:	36040980 	ori	a0,s0,0x980
   149f0:	0e000695 	jal	0x8001a54
   149f4:	00000000 	nop
   149f8:	924c0027 	lbu	t4,39(s2)
   149fc:	8e0b0074 	lw	t3,116(s0)
   14a00:	01825004 	sllv	t2,v0,t4
   14a04:	014b3021 	addu	a2,t2,t3
   14a08:	ae46000c 	sw	a2,12(s2)
   14a0c:	36040980 	ori	a0,s0,0x980
   14a10:	8c8e001c 	lw	t6,28(a0)
   14a14:	8f8f0060 	lw	t7,96(gp)
   14a18:	01cf6823 	subu	t5,t6,t7
   14a1c:	19a00004 	blez	t5,0x14a30
   14a20:	8fbf001c 	lw	ra,28(sp)
   14a24:	8c90001c 	lw	s0,28(a0)
   14a28:	af900060 	sw	s0,96(gp)
   14a2c:	8fbf001c 	lw	ra,28(sp)
   14a30:	8fb20018 	lw	s2,24(sp)
   14a34:	8fb10014 	lw	s1,20(sp)
   14a38:	8fb00010 	lw	s0,16(sp)
   14a3c:	0a00005e 	j	0x8000178
   14a40:	27bd0020 	addiu	sp,sp,32
   14a44:	8f860068 	lw	a2,104(gp)
   14a48:	8f830058 	lw	v1,88(gp)
   14a4c:	8f820054 	lw	v0,84(gp)
   14a50:	3c058008 	lui	a1,0x8008
   14a54:	34a40080 	ori	a0,a1,0x80
   14a58:	ac860050 	sw	a2,80(a0)
   14a5c:	ac83003c 	sw	v1,60(a0)
   14a60:	03e00008 	jr	ra
   14a64:	aca20004 	sw	v0,4(a1)
   14a68:	3c038000 	lui	v1,0x8000
   14a6c:	34670070 	ori	a3,v1,0x70
   14a70:	8ce30000 	lw	v1,0(a3)
   14a74:	308700ff 	andi	a3,a0,0xff
   14a78:	3c040800 	lui	a0,0x800
   14a7c:	8c840054 	lw	a0,84(a0)
   14a80:	27bdfff8 	addiu	sp,sp,-8
   14a84:	30aa00ff 	andi	t2,a1,0xff
   14a88:	24820001 	addiu	v0,a0,1
   14a8c:	3c010800 	lui	at,0x800
   14a90:	ac220054 	sw	v0,84(at)
   14a94:	30c800ff 	andi	t0,a2,0xff
   14a98:	af830024 	sw	v1,36(gp)
   14a9c:	3c098000 	lui	t1,0x8000
   14aa0:	8d250178 	lw	a1,376(t1)
   14aa4:	04a0fffe 	bltz	a1,0x14aa0
   14aa8:	352b0070 	ori	t3,t1,0x70
   14aac:	8d650000 	lw	a1,0(t3)
   14ab0:	a3a70003 	sb	a3,3(sp)
   14ab4:	3c180800 	lui	t8,0x800
   14ab8:	8f180074 	lw	t8,116(t8)
   14abc:	8fb90000 	lw	t9,0(sp)
   14ac0:	3c0d0800 	lui	t5,0x800
   14ac4:	8dad0070 	lw	t5,112(t5)
   14ac8:	00a33823 	subu	a3,a1,v1
   14acc:	3c047fff 	lui	a0,0x7fff
   14ad0:	00e07821 	move	t7,a3
   14ad4:	3482ffff 	ori	v0,a0,0xffff
   14ad8:	03073821 	addu	a3,t8,a3
   14adc:	00007021 	move	t6,zero
   14ae0:	03225824 	and	t3,t9,v0
   14ae4:	01ae3021 	addu	a2,t5,t6
   14ae8:	00ef602b 	sltu	t4,a3,t7
   14aec:	000847c0 	sll	t0,t0,0x1f
   14af0:	00cc1821 	addu	v1,a2,t4
   14af4:	01682825 	or	a1,t3,t0
   14af8:	afa50000 	sw	a1,0(sp)
   14afc:	3c010800 	lui	at,0x800
   14b00:	ac270074 	sw	a3,116(at)
   14b04:	3c010800 	lui	at,0x800
   14b08:	ac230070 	sw	v1,112(at)
   14b0c:	9124010a 	lbu	a0,266(t1)
   14b10:	a3a00002 	sb	zero,2(sp)
   14b14:	3c0280ff 	lui	v0,0x80ff
   14b18:	a3a40001 	sb	a0,1(sp)
   14b1c:	8fb80000 	lw	t8,0(sp)
   14b20:	314f007f 	andi	t7,t2,0x7f
   14b24:	3459ffff 	ori	t9,v0,0xffff
   14b28:	03196824 	and	t5,t8,t9
   14b2c:	000f7600 	sll	t6,t7,0x18
   14b30:	3c0b0020 	lui	t3,0x20
   14b34:	01ae6025 	or	t4,t5,t6
   14b38:	356a2000 	ori	t2,t3,0x2000
   14b3c:	2408ff80 	li	t0,-128
   14b40:	3c061000 	lui	a2,0x1000
   14b44:	27bd0008 	addiu	sp,sp,8
   14b48:	ad2c014c 	sw	t4,332(t1)
   14b4c:	ad2a0154 	sw	t2,340(t1)
   14b50:	a5200158 	sh	zero,344(t1)
   14b54:	a1280152 	sb	t0,338(t1)
   14b58:	03e00008 	jr	ra
   14b5c:	ad260178 	sw	a2,376(t1)
   14b60:	3c038000 	lui	v1,0x8000
   14b64:	34620070 	ori	v0,v1,0x70
   14b68:	8c480000 	lw	t0,0(v0)
   14b6c:	308a00ff 	andi	t2,a0,0xff
   14b70:	30a900ff 	andi	t1,a1,0xff
   14b74:	af880024 	sw	t0,36(gp)
   14b78:	3c048000 	lui	a0,0x8000
   14b7c:	8c850178 	lw	a1,376(a0)
   14b80:	04a0fffe 	bltz	a1,0x14b7c
   14b84:	34870070 	ori	a3,a0,0x70
   14b88:	8ceb0000 	lw	t3,0(a3)
   14b8c:	3c050800 	lui	a1,0x800
   14b90:	8ca50074 	lw	a1,116(a1)
   14b94:	3c190800 	lui	t9,0x800
   14b98:	8f390070 	lw	t9,112(t9)
   14b9c:	01682023 	subu	a0,t3,t0
   14ba0:	00a47021 	addu	t6,a1,a0
   14ba4:	00001021 	move	v0,zero
   14ba8:	01c4c02b 	sltu	t8,t6,a0
   14bac:	03227821 	addu	t7,t9,v0
   14bb0:	3c078000 	lui	a3,0x8000
   14bb4:	01f86821 	addu	t5,t7,t8
   14bb8:	3c010800 	lui	at,0x800
   14bbc:	ac2e0074 	sw	t6,116(at)
   14bc0:	34e60a00 	ori	a2,a3,0xa00
   14bc4:	3c010800 	lui	at,0x800
   14bc8:	ac2d0070 	sw	t5,112(at)
   14bcc:	8ccc0020 	lw	t4,32(a2)
   14bd0:	0009582b 	sltu	t3,zero,t1
   14bd4:	34e80980 	ori	t0,a3,0x980
   14bd8:	acec0144 	sw	t4,324(a3)
   14bdc:	8cc90024 	lw	t1,36(a2)
   14be0:	000b1540 	sll	v0,t3,0x15
   14be4:	ace90148 	sw	t1,328(a3)
   14be8:	a0ea0150 	sb	t2,336(a3)
   14bec:	9104004c 	lbu	a0,76(t0)
   14bf0:	a0e4016d 	sb	a0,365(a3)
   14bf4:	03e00008 	jr	ra
   14bf8:	a4e00158 	sh	zero,344(a3)
   14bfc:	27bdffe8 	addiu	sp,sp,-24
   14c00:	308400ff 	andi	a0,a0,0xff
   14c04:	afbf0010 	sw	ra,16(sp)
   14c08:	0e00070d 	jal	0x8001c34
   14c0c:	30a500ff 	andi	a1,a1,0xff
   14c10:	8f830058 	lw	v1,88(gp)
   14c14:	8fbf0010 	lw	ra,16(sp)
   14c18:	3c058000 	lui	a1,0x8000
   14c1c:	34460040 	ori	a2,v0,0x40
   14c20:	2404ff90 	li	a0,-112
   14c24:	3c021000 	lui	v0,0x1000
   14c28:	27bd0018 	addiu	sp,sp,24
   14c2c:	aca3014c 	sw	v1,332(a1)
   14c30:	a0a40152 	sb	a0,338(a1)
   14c34:	aca60154 	sw	a2,340(a1)
   14c38:	03e00008 	jr	ra
   14c3c:	aca20178 	sw	v0,376(a1)
   14c40:	27bdffe0 	addiu	sp,sp,-32
   14c44:	3c088008 	lui	t0,0x8008
   14c48:	afbf001c 	sw	ra,28(sp)
   14c4c:	afb20018 	sw	s2,24(sp)
   14c50:	afb10014 	sw	s1,20(sp)
   14c54:	afb00010 	sw	s0,16(sp)
   14c58:	35100080 	ori	s0,t0,0x80
   14c5c:	8e060018 	lw	a2,24(s0)
   14c60:	3c078000 	lui	a3,0x8000
   14c64:	309200ff 	andi	s2,a0,0xff
   14c68:	00c72025 	or	a0,a2,a3
   14c6c:	ae040018 	sw	a0,24(s0)
   14c70:	0e00005c 	jal	0x8000170
   14c74:	30b100ff 	andi	s1,a1,0xff
   14c78:	92030005 	lbu	v1,5(s0)
   14c7c:	34620008 	ori	v0,v1,0x8
   14c80:	0e00005e 	jal	0x8000178
   14c84:	a2020005 	sb	v0,5(s0)
   14c88:	02402021 	move	a0,s2
   14c8c:	0e000734 	jal	0x8001cd0
   14c90:	02202821 	move	a1,s1
   14c94:	02402021 	move	a0,s2
   14c98:	8fbf001c 	lw	ra,28(sp)
   14c9c:	8fb20018 	lw	s2,24(sp)
   14ca0:	8fb10014 	lw	s1,20(sp)
   14ca4:	8fb00010 	lw	s0,16(sp)
   14ca8:	24050005 	li	a1,5
   14cac:	24060001 	li	a2,1
   14cb0:	0a0006cf 	j	0x8001b3c
   14cb4:	27bd0020 	addiu	sp,sp,32
   14cb8:	3c088000 	lui	t0,0x8000
   14cbc:	27bdffe8 	addiu	sp,sp,-24
   14cc0:	afb00010 	sw	s0,16(sp)
   14cc4:	35050980 	ori	a1,t0,0x980
   14cc8:	afbf0014 	sw	ra,20(sp)
   14ccc:	90a70009 	lbu	a3,9(a1)
   14cd0:	24020006 	li	v0,6
   14cd4:	35060900 	ori	a2,t0,0x900
   14cd8:	30e300ff 	andi	v1,a3,0xff
   14cdc:	24100004 	li	s0,4
   14ce0:	10620072 	beq	v1,v0,0x14eac
   14ce4:	24080002 	li	t0,2
   14ce8:	94ae005c 	lhu	t6,92(a1)
   14cec:	3c0d0204 	lui	t5,0x204
   14cf0:	31ccffff 	andi	t4,t6,0xffff
   14cf4:	018d5825 	or	t3,t4,t5
   14cf8:	ac8b0000 	sw	t3,0(a0)
   14cfc:	90aa0008 	lbu	t2,8(a1)
   14d00:	31490020 	andi	t1,t2,0x20
   14d04:	11200008 	beqz	t1,0x14d28
   14d08:	00000000 	nop
   14d0c:	90bf004e 	lbu	ra,78(a1)
   14d10:	3c190103 	lui	t9,0x103
   14d14:	37380300 	ori	t8,t9,0x300
   14d18:	33ef00ff 	andi	t7,ra,0xff
   14d1c:	01f82825 	or	a1,t7,t8
   14d20:	24100008 	li	s0,8
   14d24:	ac850004 	sw	a1,4(a0)
   14d28:	90cc0011 	lbu	t4,17(a2)
   14d2c:	90c90011 	lbu	t1,17(a2)
   14d30:	318a00ff 	andi	t2,t4,0xff
   14d34:	000a5882 	srl	t3,t2,0x2
   14d38:	312700ff 	andi	a3,t1,0xff
   14d3c:	256a0005 	addiu	t2,t3,5
   14d40:	000a1080 	sll	v0,t2,0x2
   14d44:	38e30028 	xori	v1,a3,0x28
   14d48:	14600029 	bnez	v1,0x14df0
   14d4c:	00824823 	subu	t1,a0,v0
   14d50:	90cf0012 	lbu	t7,18(a2)
   14d54:	3c198000 	lui	t9,0x8000
   14d58:	37220900 	ori	v0,t9,0x900
   14d5c:	31e500ff 	andi	a1,t7,0xff
   14d60:	00057080 	sll	t6,a1,0x2
   14d64:	01d06821 	addu	t5,t6,s0
   14d68:	000d3400 	sll	a2,t5,0x10
   14d6c:	34c406ff 	ori	a0,a2,0x6ff
   14d70:	ad240004 	sw	a0,4(t1)
   14d74:	904c0011 	lbu	t4,17(v0)
   14d78:	90580012 	lbu	t8,18(v0)
   14d7c:	373f0980 	ori	ra,t9,0x980
   14d80:	8fe40034 	lw	a0,52(ra)
   14d84:	8f2f010c 	lw	t7,268(t9)
   14d88:	00105882 	srl	t3,s0,0x2
   14d8c:	330500ff 	andi	a1,t8,0xff
   14d90:	00ab7021 	addu	t6,a1,t3
   14d94:	00083400 	sll	a2,t0,0x10
   14d98:	008f1823 	subu	v1,a0,t7
   14d9c:	000e6f00 	sll	t5,t6,0x1c
   14da0:	01a61025 	or	v0,t5,a2
   14da4:	319f00fc 	andi	ra,t4,0xfc
   14da8:	3067ffff 	andi	a3,v1,0xffff
   14dac:	03e9c021 	addu	t8,ra,t1
   14db0:	0047c825 	or	t9,v0,a3
   14db4:	014b7821 	addu	t7,t2,t3
   14db8:	000f2880 	sll	a1,t7,0x2
   14dbc:	af19000c 	sw	t9,12(t8)
   14dc0:	0e00005c 	jal	0x8000170
   14dc4:	01258021 	addu	s0,t1,a1
   14dc8:	3c0a8008 	lui	t2,0x8008
   14dcc:	24090004 	li	t1,4
   14dd0:	35480080 	ori	t0,t2,0x80
   14dd4:	0e00005e 	jal	0x8000178
   14dd8:	a1090009 	sb	t1,9(t0)
   14ddc:	02001021 	move	v0,s0
   14de0:	8fbf0014 	lw	ra,20(sp)
   14de4:	8fb00010 	lw	s0,16(sp)
   14de8:	03e00008 	jr	ra
   14dec:	27bd0018 	addiu	sp,sp,24
   14df0:	90ce0011 	lbu	t6,17(a2)
   14df4:	90cd0019 	lbu	t5,25(a2)
   14df8:	3c070800 	lui	a3,0x800
   14dfc:	94e73be6 	lhu	a3,15334(a3)
   14e00:	31c600ff 	andi	a2,t6,0xff
   14e04:	00062082 	srl	a0,a2,0x2
   14e08:	31ac00ff 	andi	t4,t5,0xff
   14e0c:	00045e00 	sll	t3,a0,0x18
   14e10:	000c1c00 	sll	v1,t4,0x10
   14e14:	01631025 	or	v0,t3,v1
   14e18:	0047c825 	or	t9,v0,a3
   14e1c:	3c1f4000 	lui	ra,0x4000
   14e20:	033fc025 	or	t8,t9,ra
   14e24:	3c198000 	lui	t9,0x8000
   14e28:	ad380000 	sw	t8,0(t1)
   14e2c:	37220900 	ori	v0,t9,0x900
   14e30:	904c0011 	lbu	t4,17(v0)
   14e34:	90580012 	lbu	t8,18(v0)
   14e38:	373f0980 	ori	ra,t9,0x980
   14e3c:	8fe40034 	lw	a0,52(ra)
   14e40:	8f2f010c 	lw	t7,268(t9)
   14e44:	00105882 	srl	t3,s0,0x2
   14e48:	330500ff 	andi	a1,t8,0xff
   14e4c:	00ab7021 	addu	t6,a1,t3
   14e50:	00083400 	sll	a2,t0,0x10
   14e54:	008f1823 	subu	v1,a0,t7
   14e58:	000e6f00 	sll	t5,t6,0x1c
   14e5c:	01a61025 	or	v0,t5,a2
   14e60:	319f00fc 	andi	ra,t4,0xfc
   14e64:	3067ffff 	andi	a3,v1,0xffff
   14e68:	03e9c021 	addu	t8,ra,t1
   14e6c:	0047c825 	or	t9,v0,a3
   14e70:	014b7821 	addu	t7,t2,t3
   14e74:	000f2880 	sll	a1,t7,0x2
   14e78:	af19000c 	sw	t9,12(t8)
   14e7c:	0e00005c 	jal	0x8000170
   14e80:	01258021 	addu	s0,t1,a1
   14e84:	3c0a8008 	lui	t2,0x8008
   14e88:	24090004 	li	t1,4
   14e8c:	35480080 	ori	t0,t2,0x80
   14e90:	0e00005e 	jal	0x8000178
   14e94:	a1090009 	sb	t1,9(t0)
   14e98:	02001021 	move	v0,s0
   14e9c:	8fbf0014 	lw	ra,20(sp)
   14ea0:	8fb00010 	lw	s0,16(sp)
   14ea4:	03e00008 	jr	ra
   14ea8:	27bd0018 	addiu	sp,sp,24
   14eac:	0a00076f 	j	0x8001dbc
   14eb0:	24080012 	li	t0,18
   14eb4:	27bdffd8 	addiu	sp,sp,-40
   14eb8:	afb40020 	sw	s4,32(sp)
   14ebc:	afb3001c 	sw	s3,28(sp)
   14ec0:	afb20018 	sw	s2,24(sp)
   14ec4:	afb10014 	sw	s1,20(sp)
   14ec8:	afbf0024 	sw	ra,36(sp)
   14ecc:	afb00010 	sw	s0,16(sp)
   14ed0:	3c068000 	lui	a2,0x8000
   14ed4:	90c3010b 	lbu	v1,267(a2)
   14ed8:	309200ff 	andi	s2,a0,0xff
   14edc:	30b300ff 	andi	s3,a1,0xff
   14ee0:	30620030 	andi	v0,v1,0x30
   14ee4:	0000a021 	move	s4,zero
   14ee8:	10400070 	beqz	v0,0x150ac
   14eec:	00008821 	move	s1,zero
   14ef0:	34c40980 	ori	a0,a2,0x980
   14ef4:	90880008 	lbu	t0,8(a0)
   14ef8:	00083e00 	sll	a3,t0,0x18
   14efc:	00072e03 	sra	a1,a3,0x18
   14f00:	04a00097 	bltz	a1,0x15160
   14f04:	24040004 	li	a0,4
   14f08:	8f880058 	lw	t0,88(gp)
   14f0c:	3c010800 	lui	at,0x800
   14f10:	a0243bf0 	sb	a0,15344(at)
   14f14:	3c0c8000 	lui	t4,0x8000
   14f18:	ad800048 	sw	zero,72(t4)
   14f1c:	3c038000 	lui	v1,0x8000
   14f20:	906e010b 	lbu	t6,267(v1)
   14f24:	31c50020 	andi	a1,t6,0x20
   14f28:	10a00007 	beqz	a1,0x14f48
   14f2c:	3c028000 	lui	v0,0x8000
   14f30:	34790980 	ori	t9,v1,0x980
   14f34:	93380008 	lbu	t8,8(t9)
   14f38:	00188600 	sll	s0,t8,0x18
   14f3c:	00107e03 	sra	t7,s0,0x18
   14f40:	05e2009c 	bltzl	t7,0x151b4
   14f44:	3c028008 	lui	v0,0x8008
   14f48:	34500900 	ori	s0,v0,0x900
   14f4c:	34470a80 	ori	a3,v0,0xa80
   14f50:	904d010b 	lbu	t5,267(v0)
   14f54:	94eb002c 	lhu	t3,44(a3)
   14f58:	92030011 	lbu	v1,17(s0)
   14f5c:	921f0012 	lbu	ra,18(s0)
   14f60:	90e50018 	lbu	a1,24(a3)
   14f64:	307800ff 	andi	t8,v1,0xff
   14f68:	33f900ff 	andi	t9,ra,0xff
   14f6c:	00197880 	sll	t7,t9,0x2
   14f70:	01f87021 	addu	t6,t7,t8
   14f74:	01d15021 	addu	t2,t6,s1
   14f78:	30b100ff 	andi	s1,a1,0xff
   14f7c:	01514821 	addu	t1,t2,s1
   14f80:	2524000a 	addiu	a0,t1,10
   14f84:	31ac0040 	andi	t4,t5,0x40
   14f88:	3091ffff 	andi	s1,a0,0xffff
   14f8c:	000c302b 	sltu	a2,zero,t4
   14f90:	02202021 	move	a0,s1
   14f94:	a78b005c 	sh	t3,92(gp)
   14f98:	3c010800 	lui	at,0x800
   14f9c:	a42a3be6 	sh	t2,15334(at)
   14fa0:	3c010800 	lui	at,0x800
   14fa4:	a4293be8 	sh	t1,15336(at)
   14fa8:	3c010800 	lui	at,0x800
   14fac:	a4293bea 	sh	t1,15338(at)
   14fb0:	3c010800 	lui	at,0x800
   14fb4:	a4203be0 	sh	zero,15328(at)
   14fb8:	3c010800 	lui	at,0x800
   14fbc:	a4203bdc 	sh	zero,15324(at)
   14fc0:	0e0001c9 	jal	0x8000724
   14fc4:	01068023 	subu	s0,t0,a2
   14fc8:	0e0005b2 	jal	0x80016c8
   14fcc:	00402021 	move	a0,v0
   14fd0:	00402021 	move	a0,v0
   14fd4:	0e0005bf 	jal	0x80016fc
   14fd8:	02002821 	move	a1,s0
   14fdc:	1680005c 	bnez	s4,0x15150
   14fe0:	00000000 	nop
   14fe4:	0e0001f2 	jal	0x80007c8
   14fe8:	02202021 	move	a0,s1
   14fec:	3c080800 	lui	t0,0x800
   14ff0:	91083bf0 	lbu	t0,15344(t0)
   14ff4:	31140003 	andi	s4,t0,0x3
   14ff8:	12800016 	beqz	s4,0x15054
   14ffc:	3c1f8008 	lui	ra,0x8008
   15000:	8f840058 	lw	a0,88(gp)
   15004:	3c0c8008 	lui	t4,0x8008
   15008:	35860080 	ori	a2,t4,0x80
   1500c:	248b0001 	addiu	t3,a0,1
   15010:	accb003c 	sw	t3,60(a2)
   15014:	3c058008 	lui	a1,0x8008
   15018:	8caa0004 	lw	t2,4(a1)
   1501c:	01602021 	move	a0,t3
   15020:	014b4823 	subu	t1,t2,t3
   15024:	19200002 	blez	t1,0x15030
   15028:	af8b0058 	sw	t3,88(gp)
   1502c:	8ca40004 	lw	a0,4(a1)
   15030:	0e000695 	jal	0x8001a54
   15034:	aca40004 	sw	a0,4(a1)
   15038:	3c0f8000 	lui	t7,0x8000
   1503c:	8dee0074 	lw	t6,116(t7)
   15040:	3c058008 	lui	a1,0x8008
   15044:	34ad0080 	ori	t5,a1,0x80
   15048:	004e8821 	addu	s1,v0,t6
   1504c:	adb1000c 	sw	s1,12(t5)
   15050:	3c1f8008 	lui	ra,0x8008
   15054:	37f90080 	ori	t9,ra,0x80
   15058:	02402021 	move	a0,s2
   1505c:	02602821 	move	a1,s3
   15060:	a320006b 	sb	zero,107(t9)
   15064:	0e00070d 	jal	0x8001c34
   15068:	3c128000 	lui	s2,0x8000
   1506c:	8f980058 	lw	t8,88(gp)
   15070:	34500006 	ori	s0,v0,0x6
   15074:	ae58014c 	sw	t8,332(s2)
   15078:	0e000550 	jal	0x8001540
   1507c:	3c131000 	lui	s3,0x1000
   15080:	a2420152 	sb	v0,338(s2)
   15084:	8fbf0024 	lw	ra,36(sp)
   15088:	ae500154 	sw	s0,340(s2)
   1508c:	8fb40020 	lw	s4,32(sp)
   15090:	ae530178 	sw	s3,376(s2)
   15094:	8fb10014 	lw	s1,20(sp)
   15098:	8fb3001c 	lw	s3,28(sp)
   1509c:	8fb20018 	lw	s2,24(sp)
   150a0:	8fb00010 	lw	s0,16(sp)
   150a4:	03e00008 	jr	ra
   150a8:	27bd0028 	addiu	sp,sp,40
   150ac:	34c30980 	ori	v1,a2,0x980
   150b0:	906f0008 	lbu	t7,8(v1)
   150b4:	000f7600 	sll	t6,t7,0x18
   150b8:	000e6e03 	sra	t5,t6,0x18
   150bc:	05a00033 	bltz	t5,0x1518c
   150c0:	34c20900 	ori	v0,a2,0x900
   150c4:	9059001b 	lbu	t9,27(v0)
   150c8:	241f0010 	li	ra,16
   150cc:	3c010800 	lui	at,0x800
   150d0:	a03f3bf0 	sb	ra,15344(at)
   150d4:	33380002 	andi	t8,t9,0x2
   150d8:	1300ff90 	beqz	t8,0x14f1c
   150dc:	8f880058 	lw	t0,88(gp)
   150e0:	8f830064 	lw	v1,100(gp)
   150e4:	1468ff8e 	bne	v1,t0,0x14f20
   150e8:	3c038000 	lui	v1,0x8000
   150ec:	0e00005c 	jal	0x8000170
   150f0:	00000000 	nop
   150f4:	3c098008 	lui	t1,0x8008
   150f8:	35250080 	ori	a1,t1,0x80
   150fc:	90a40009 	lbu	a0,9(a1)
   15100:	24070016 	li	a3,22
   15104:	308800ff 	andi	t0,a0,0xff
   15108:	1107000d 	beq	t0,a3,0x15140
   1510c:	00000000 	nop
   15110:	90a60009 	lbu	a2,9(a1)
   15114:	3c0c0800 	lui	t4,0x800
   15118:	918c3bf0 	lbu	t4,15344(t4)
   1511c:	240a0008 	li	t2,8
   15120:	30c400ff 	andi	a0,a2,0xff
   15124:	358b0001 	ori	t3,t4,0x1
   15128:	3c010800 	lui	at,0x800
   1512c:	a02b3bf0 	sb	t3,15344(at)
   15130:	108a002f 	beq	a0,t2,0x151f0
   15134:	240d000a 	li	t5,10
   15138:	108d0028 	beq	a0,t5,0x151dc
   1513c:	2402000c 	li	v0,12
   15140:	0e00005e 	jal	0x8000178
   15144:	00000000 	nop
   15148:	0a0007fc 	j	0x8001ff0
   1514c:	8f880058 	lw	t0,88(gp)
   15150:	0e000763 	jal	0x8001d8c
   15154:	00402021 	move	a0,v0
   15158:	0a00082e 	j	0x80020b8
   1515c:	00000000 	nop
   15160:	3c0b8008 	lui	t3,0x8008
   15164:	356a0080 	ori	t2,t3,0x80
   15168:	8d480054 	lw	t0,84(t2)
   1516c:	8cc9010c 	lw	t1,268(a2)
   15170:	1120ff66 	beqz	t1,0x14f0c
   15174:	af880058 	sw	t0,88(gp)
   15178:	24060014 	li	a2,20
   1517c:	3c010800 	lui	at,0x800
   15180:	a0263bf0 	sb	a2,15344(at)
   15184:	0a0007fb 	j	0x8001fec
   15188:	3c0c8000 	lui	t4,0x8000
   1518c:	90710008 	lbu	s1,8(v1)
   15190:	24140002 	li	s4,2
   15194:	3c010800 	lui	at,0x800
   15198:	a0343bf0 	sb	s4,15344(at)
   1519c:	32300020 	andi	s0,s1,0x20
   151a0:	1200000b 	beqz	s0,0x151d0
   151a4:	24140001 	li	s4,1
   151a8:	8f880058 	lw	t0,88(gp)
   151ac:	0a0007fc 	j	0x8001ff0
   151b0:	24110008 	li	s1,8
   151b4:	345f0080 	ori	ra,v0,0x80
   151b8:	8fe70038 	lw	a3,56(ra)
   151bc:	ac470004 	sw	a3,4(v0)
   151c0:	8c430004 	lw	v1,4(v0)
   151c4:	afe3003c 	sw	v1,60(ra)
   151c8:	0a000807 	j	0x800201c
   151cc:	3c028000 	lui	v0,0x8000
   151d0:	8f880058 	lw	t0,88(gp)
   151d4:	0a0007fc 	j	0x8001ff0
   151d8:	24110004 	li	s1,4
   151dc:	a0a20009 	sb	v0,9(a1)
   151e0:	0e00005e 	jal	0x8000178
   151e4:	00000000 	nop
   151e8:	0a0007fc 	j	0x8001ff0
   151ec:	8f880058 	lw	t0,88(gp)
   151f0:	24020014 	li	v0,20
   151f4:	0a0008ad 	j	0x80022b4
   151f8:	a0a20009 	sb	v0,9(a1)
   151fc:	27bdffe8 	addiu	sp,sp,-24
   15200:	afbf0014 	sw	ra,20(sp)
   15204:	afb00010 	sw	s0,16(sp)
   15208:	3c108000 	lui	s0,0x8000
   1520c:	92020109 	lbu	v0,265(s0)
   15210:	24050001 	li	a1,1
   15214:	0e00070d 	jal	0x8001c34
   15218:	304400ff 	andi	a0,v0,0xff
   1521c:	3c1f8008 	lui	ra,0x8008
   15220:	93f8000e 	lbu	t8,14(ra)
   15224:	37e30080 	ori	v1,ra,0x80
   15228:	93f9000f 	lbu	t9,15(ra)
   1522c:	906e0026 	lbu	t6,38(v1)
   15230:	93e9000a 	lbu	t1,10(ra)
   15234:	332f00ff 	andi	t7,t9,0xff
   15238:	00186600 	sll	t4,t8,0x18
   1523c:	000f6c00 	sll	t5,t7,0x10
   15240:	31cb00ff 	andi	t3,t6,0xff
   15244:	018d5025 	or	t2,t4,t5
   15248:	000b3200 	sll	a2,t3,0x8
   1524c:	01463825 	or	a3,t2,a2
   15250:	312800ff 	andi	t0,t1,0xff
   15254:	34456000 	ori	a1,v0,0x6000
   15258:	00e82025 	or	a0,a3,t0
   1525c:	2402ff81 	li	v0,-127
   15260:	3c031000 	lui	v1,0x1000
   15264:	ae04014c 	sw	a0,332(s0)
   15268:	8fbf0014 	lw	ra,20(sp)
   1526c:	ae050154 	sw	a1,340(s0)
   15270:	a2020152 	sb	v0,338(s0)
   15274:	ae030178 	sw	v1,376(s0)
   15278:	8fb00010 	lw	s0,16(sp)
   1527c:	03e00008 	jr	ra
   15280:	27bd0018 	addiu	sp,sp,24
   15284:	27bdffe8 	addiu	sp,sp,-24
   15288:	308400ff 	andi	a0,a0,0xff
   1528c:	afbf0010 	sw	ra,16(sp)
   15290:	0e00070d 	jal	0x8001c34
   15294:	30a500ff 	andi	a1,a1,0xff
   15298:	34460040 	ori	a2,v0,0x40
   1529c:	3c048000 	lui	a0,0x8000
   152a0:	2405ff92 	li	a1,-110
   152a4:	ac860154 	sw	a2,340(a0)
   152a8:	a0850152 	sb	a1,338(a0)
   152ac:	8f830058 	lw	v1,88(gp)
   152b0:	8fbf0010 	lw	ra,16(sp)
   152b4:	3c021000 	lui	v0,0x1000
   152b8:	27bd0018 	addiu	sp,sp,24
   152bc:	ac83014c 	sw	v1,332(a0)
   152c0:	03e00008 	jr	ra
   152c4:	ac820178 	sw	v0,376(a0)
   152c8:	27bdffd8 	addiu	sp,sp,-40
   152cc:	afb20018 	sw	s2,24(sp)
   152d0:	afb10014 	sw	s1,20(sp)
   152d4:	afb00010 	sw	s0,16(sp)
   152d8:	afbf0020 	sw	ra,32(sp)
   152dc:	afb3001c 	sw	s3,28(sp)
   152e0:	3c078000 	lui	a3,0x8000
   152e4:	90e20109 	lbu	v0,265(a3)
   152e8:	308600ff 	andi	a2,a0,0xff
   152ec:	30b000ff 	andi	s0,a1,0xff
   152f0:	000618c2 	srl	v1,a2,0x3
   152f4:	32040002 	andi	a0,s0,0x2
   152f8:	30710001 	andi	s1,v1,0x1
   152fc:	14800007 	bnez	a0,0x1531c
   15300:	305200ff 	andi	s2,v0,0xff
   15304:	3c098008 	lui	t1,0x8008
   15308:	35330080 	ori	s3,t1,0x80
   1530c:	92680005 	lbu	t0,5(s3)
   15310:	31050008 	andi	a1,t0,0x8
   15314:	10a0000c 	beqz	a1,0x15348
   15318:	30ca0010 	andi	t2,a2,0x10
   1531c:	02402021 	move	a0,s2
   15320:	0e000745 	jal	0x8001d14
   15324:	02202821 	move	a1,s1
   15328:	24020001 	li	v0,1
   1532c:	8fbf0020 	lw	ra,32(sp)
   15330:	8fb3001c 	lw	s3,28(sp)
   15334:	8fb20018 	lw	s2,24(sp)
   15338:	8fb10014 	lw	s1,20(sp)
   1533c:	8fb00010 	lw	s0,16(sp)
   15340:	03e00008 	jr	ra
   15344:	27bd0028 	addiu	sp,sp,40
   15348:	15400030 	bnez	t2,0x1540c
   1534c:	34e50a00 	ori	a1,a3,0xa00
   15350:	8cb90024 	lw	t9,36(a1)
   15354:	8cb80008 	lw	t8,8(a1)
   15358:	13380047 	beq	t9,t8,0x15478
   1535c:	00004021 	move	t0,zero
   15360:	3c0e8008 	lui	t6,0x8008
   15364:	35d30080 	ori	s3,t6,0x80
   15368:	926d0068 	lbu	t5,104(s3)
   1536c:	240b0002 	li	t3,2
   15370:	31ac00ff 	andi	t4,t5,0xff
   15374:	118b0080 	beq	t4,t3,0x15578
   15378:	3c068000 	lui	a2,0x8000
   1537c:	927f004c 	lbu	ra,76(s3)
   15380:	90c40109 	lbu	a0,265(a2)
   15384:	509f0004 	beql	a0,ra,0x15398
   15388:	3213007c 	andi	s3,s0,0x7c
   1538c:	11000067 	beqz	t0,0x1552c
   15390:	00000000 	nop
   15394:	3213007c 	andi	s3,s0,0x7c
   15398:	1660005a 	bnez	s3,0x15504
   1539c:	02402021 	move	a0,s2
   153a0:	16200008 	bnez	s1,0x153c4
   153a4:	320c0001 	andi	t4,s0,0x1
   153a8:	3c078000 	lui	a3,0x8000
   153ac:	34eb0a00 	ori	t3,a3,0xa00
   153b0:	8d650024 	lw	a1,36(t3)
   153b4:	8ce80104 	lw	t0,260(a3)
   153b8:	14a8ffdc 	bne	a1,t0,0x1532c
   153bc:	00001021 	move	v0,zero
   153c0:	320c0001 	andi	t4,s0,0x1
   153c4:	1180000d 	beqz	t4,0x153fc
   153c8:	02402021 	move	a0,s2
   153cc:	3c108000 	lui	s0,0x8000
   153d0:	8e0e010c 	lw	t6,268(s0)
   153d4:	8f8d0068 	lw	t5,104(gp)
   153d8:	11cd0008 	beq	t6,t5,0x153fc
   153dc:	00000000 	nop
   153e0:	0e0007e2 	jal	0x8001f88
   153e4:	02202821 	move	a1,s1
   153e8:	8e0f010c 	lw	t7,268(s0)
   153ec:	3c188008 	lui	t8,0x8008
   153f0:	37100080 	ori	s0,t8,0x80
   153f4:	ae0f0050 	sw	t7,80(s0)
   153f8:	02402021 	move	a0,s2
   153fc:	0e000734 	jal	0x8001cd0
   15400:	02202821 	move	a1,s1
   15404:	0a000900 	j	0x8002400
   15408:	24020001 	li	v0,1
   1540c:	3c070800 	lui	a3,0x800
   15410:	8ce70064 	lw	a3,100(a3)
   15414:	24e60001 	addiu	a2,a3,1
   15418:	3c010800 	lui	at,0x800
   1541c:	ac260064 	sw	a2,100(at)
   15420:	1600000d 	bnez	s0,0x15458
   15424:	00000000 	nop
   15428:	02202821 	move	a1,s1
   1542c:	0e000734 	jal	0x8001cd0
   15430:	02402021 	move	a0,s2
   15434:	926f0068 	lbu	t7,104(s3)
   15438:	240d0002 	li	t5,2
   1543c:	31ee00ff 	andi	t6,t7,0xff
   15440:	11cd0022 	beq	t6,t5,0x154cc
   15444:	02402021 	move	a0,s2
   15448:	0e0008b4 	jal	0x80022d0
   1544c:	00000000 	nop
   15450:	0a000900 	j	0x8002400
   15454:	24020001 	li	v0,1
   15458:	0e00003d 	jal	0x80000f4
   1545c:	24040001 	li	a0,1
   15460:	926c0025 	lbu	t4,37(s3)
   15464:	020c5825 	or	t3,s0,t4
   15468:	0e00005e 	jal	0x8000178
   1546c:	a26b0025 	sb	t3,37(s3)
   15470:	0a000940 	j	0x8002500
   15474:	02202821 	move	a1,s1
   15478:	8e630018 	lw	v1,24(s3)
   1547c:	8ce40104 	lw	a0,260(a3)
   15480:	8cbf0024 	lw	ra,36(a1)
   15484:	00031602 	srl	v0,v1,0x18
   15488:	149fffb5 	bne	a0,ra,0x15360
   1548c:	3045007f 	andi	a1,v0,0x7f
   15490:	9269004c 	lbu	t1,76(s3)
   15494:	26440001 	addiu	a0,s2,1
   15498:	3093007f 	andi	s3,a0,0x7f
   1549c:	12650040 	beq	s3,a1,0x155a0
   154a0:	312300ff 	andi	v1,t1,0xff
   154a4:	1464ffaf 	bne	v1,a0,0x15364
   154a8:	3c0e8008 	lui	t6,0x8008
   154ac:	26480001 	addiu	t0,s2,1
   154b0:	3111007f 	andi	s1,t0,0x7f
   154b4:	310200ff 	andi	v0,t0,0xff
   154b8:	1225000b 	beq	s1,a1,0x154e8
   154bc:	24080001 	li	t0,1
   154c0:	00409021 	move	s2,v0
   154c4:	0a00090d 	j	0x8002434
   154c8:	24110001 	li	s1,1
   154cc:	24050004 	li	a1,4
   154d0:	0e0006cf 	jal	0x8001b3c
   154d4:	24060001 	li	a2,1
   154d8:	0e0008b4 	jal	0x80022d0
   154dc:	00000000 	nop
   154e0:	0a000900 	j	0x8002400
   154e4:	24020001 	li	v0,1
   154e8:	2407ff80 	li	a3,-128
   154ec:	02472824 	and	a1,s2,a3
   154f0:	00a79026 	xor	s2,a1,a3
   154f4:	324200ff 	andi	v0,s2,0xff
   154f8:	00409021 	move	s2,v0
   154fc:	0a00090d 	j	0x8002434
   15500:	24110001 	li	s1,1
   15504:	0e0007e2 	jal	0x8001f88
   15508:	02202821 	move	a1,s1
   1550c:	32060030 	andi	a2,s0,0x30
   15510:	10c0ffa3 	beqz	a2,0x153a0
   15514:	32100082 	andi	s0,s0,0x82
   15518:	02402021 	move	a0,s2
   1551c:	0e000745 	jal	0x8001d14
   15520:	02202821 	move	a1,s1
   15524:	0a000900 	j	0x8002400
   15528:	24020001 	li	v0,1
   1552c:	8e630018 	lw	v1,24(s3)
   15530:	02402021 	move	a0,s2
   15534:	02202821 	move	a1,s1
   15538:	00661025 	or	v0,v1,a2
   1553c:	0e0008d6 	jal	0x8002358
   15540:	ae620018 	sw	v0,24(s3)
   15544:	9264004c 	lbu	a0,76(s3)
   15548:	24050003 	li	a1,3
   1554c:	24060001 	li	a2,1
   15550:	0e0006cf 	jal	0x8001b3c
   15554:	308400ff 	andi	a0,a0,0xff
   15558:	0e00003d 	jal	0x80000f4
   1555c:	24040001 	li	a0,1
   15560:	926a0025 	lbu	t2,37(s3)
   15564:	020a4825 	or	t1,s0,t2
   15568:	0e00005e 	jal	0x8000178
   1556c:	a2690025 	sb	t1,37(s3)
   15570:	0a000900 	j	0x8002400
   15574:	24020001 	li	v0,1
   15578:	8e780018 	lw	t8,24(s3)
   1557c:	3c198000 	lui	t9,0x8000
   15580:	02402021 	move	a0,s2
   15584:	03197825 	or	t7,t8,t9
   15588:	02202821 	move	a1,s1
   1558c:	0e000734 	jal	0x8001cd0
   15590:	ae6f0018 	sw	t7,24(s3)
   15594:	9264004c 	lbu	a0,76(s3)
   15598:	0a000988 	j	0x8002620
   1559c:	24050004 	li	a1,4
   155a0:	32460080 	andi	a2,s2,0x80
   155a4:	38ca0080 	xori	t2,a2,0x80
   155a8:	146aff6e 	bne	v1,t2,0x15364
   155ac:	3c0e8008 	lui	t6,0x8008
   155b0:	0a000961 	j	0x8002584
   155b4:	26480001 	addiu	t0,s2,1
   155b8:	27bdffc0 	addiu	sp,sp,-64
   155bc:	afb00018 	sw	s0,24(sp)
   155c0:	3c108000 	lui	s0,0x8000
   155c4:	afbf0038 	sw	ra,56(sp)
   155c8:	afb70034 	sw	s7,52(sp)
   155cc:	afb60030 	sw	s6,48(sp)
   155d0:	afb5002c 	sw	s5,44(sp)
   155d4:	afb40028 	sw	s4,40(sp)
   155d8:	afb30024 	sw	s3,36(sp)
   155dc:	afb20020 	sw	s2,32(sp)
   155e0:	0e00055e 	jal	0x8001578
   155e4:	afb1001c 	sw	s1,28(sp)
   155e8:	92040108 	lbu	a0,264(s0)
   155ec:	9205010b 	lbu	a1,267(s0)
   155f0:	308400ff 	andi	a0,a0,0xff
   155f4:	0e0008e7 	jal	0x800239c
   155f8:	30a500ff 	andi	a1,a1,0xff
   155fc:	144000d6 	bnez	v0,0x15958
   15600:	8fbf0038 	lw	ra,56(sp)
   15604:	3c098008 	lui	t1,0x8008
   15608:	35280080 	ori	t0,t1,0x80
   1560c:	a100006b 	sb	zero,107(t0)
   15610:	36070980 	ori	a3,s0,0x980
   15614:	90e60000 	lbu	a2,0(a3)
   15618:	24020050 	li	v0,80
   1561c:	3c170800 	lui	s7,0x800
   15620:	26f73df4 	addiu	s7,s7,15860
   15624:	30c300ff 	andi	v1,a2,0xff
   15628:	3c140800 	lui	s4,0x800
   1562c:	26943e04 	addiu	s4,s4,15876
   15630:	10620003 	beq	v1,v0,0x15640
   15634:	3c108000 	lui	s0,0x8000
   15638:	0000b821 	move	s7,zero
   1563c:	0000a021 	move	s4,zero
   15640:	241f0010 	li	ra,16
   15644:	36110a00 	ori	s1,s0,0xa00
   15648:	36130980 	ori	s3,s0,0x980
   1564c:	8e160104 	lw	s6,260(s0)
   15650:	8f8d0058 	lw	t5,88(gp)
   15654:	8e380024 	lw	t8,36(s1)
   15658:	36190a80 	ori	t9,s0,0xa80
   1565c:	8e720020 	lw	s2,32(s3)
   15660:	3c010800 	lui	at,0x800
   15664:	a03f3bf0 	sb	ra,15344(at)
   15668:	972c002c 	lhu	t4,44(t9)
   1566c:	8ef50000 	lw	s5,0(s7)
   15670:	932b0018 	lbu	t3,24(t9)
   15674:	024d7023 	subu	t6,s2,t5
   15678:	02d87823 	subu	t7,s6,t8
   1567c:	3c010800 	lui	at,0x800
   15680:	ac2f3bcc 	sw	t7,15308(at)
   15684:	3c010800 	lui	at,0x800
   15688:	ac2e3bd0 	sw	t6,15312(at)
   1568c:	3c010800 	lui	at,0x800
   15690:	ac2d3bf4 	sw	t5,15348(at)
   15694:	a78c005c 	sh	t4,92(gp)
   15698:	02a0f809 	jalr	s5
   1569c:	317200ff 	andi	s2,t3,0xff
   156a0:	304a0002 	andi	t2,v0,0x2
   156a4:	154000da 	bnez	t2,0x15a10
   156a8:	30450001 	andi	a1,v0,0x1
   156ac:	10a000b4 	beqz	a1,0x15980
   156b0:	00000000 	nop
   156b4:	36050900 	ori	a1,s0,0x900
   156b8:	8e2b0024 	lw	t3,36(s1)
   156bc:	90bf0011 	lbu	ra,17(a1)
   156c0:	90b90012 	lbu	t9,18(a1)
   156c4:	90b60011 	lbu	s6,17(a1)
   156c8:	33ef00ff 	andi	t7,ra,0xff
   156cc:	333800ff 	andi	t8,t9,0xff
   156d0:	32cd00ff 	andi	t5,s6,0xff
   156d4:	00187080 	sll	t6,t8,0x2
   156d8:	01cf8021 	addu	s0,t6,t7
   156dc:	024d6021 	addu	t4,s2,t5
   156e0:	0212a821 	addu	s5,s0,s2
   156e4:	258a0010 	addiu	t2,t4,16
   156e8:	3c010800 	lui	at,0x800
   156ec:	a4353be8 	sh	s5,15336(at)
   156f0:	3c010800 	lui	at,0x800
   156f4:	ac2b3bf8 	sw	t3,15352(at)
   156f8:	3c010800 	lui	at,0x800
   156fc:	a42a3be4 	sh	t2,15332(at)
   15700:	3c010800 	lui	at,0x800
   15704:	a4303be6 	sh	s0,15334(at)
   15708:	0260b021 	move	s6,s3
   1570c:	3c158000 	lui	s5,0x8000
   15710:	8f920058 	lw	s2,88(gp)
   15714:	8f840060 	lw	a0,96(gp)
   15718:	8ed30020 	lw	s3,32(s6)
   1571c:	24110006 	li	s1,6
   15720:	00923023 	subu	a2,a0,s2
   15724:	02722823 	subu	a1,s3,s2
   15728:	3c010800 	lui	at,0x800
   1572c:	ac313bec 	sw	s1,15340(at)
   15730:	04c000af 	bltz	a2,0x159f0
   15734:	00009821 	move	s3,zero
   15738:	04a000ad 	bltz	a1,0x159f0
   1573c:	00c5102b 	sltu	v0,a2,a1
   15740:	104000af 	beqz	v0,0x15a00
   15744:	00000000 	nop
   15748:	3c010800 	lui	at,0x800
   1574c:	ac263bd0 	sw	a2,15312(at)
   15750:	8e900000 	lw	s0,0(s4)
   15754:	0200f809 	jalr	s0
   15758:	00000000 	nop
   1575c:	30430002 	andi	v1,v0,0x2
   15760:	1460006f 	bnez	v1,0x15920
   15764:	00408821 	move	s1,v0
   15768:	30460001 	andi	a2,v0,0x1
   1576c:	54c00011 	bnezl	a2,0x157b4
   15770:	8e920004 	lw	s2,4(s4)
   15774:	3c080800 	lui	t0,0x800
   15778:	8d083bd4 	lw	t0,15316(t0)
   1577c:	3c09c000 	lui	t1,0xc000
   15780:	3c048000 	lui	a0,0x8000
   15784:	01093825 	or	a3,t0,t1
   15788:	aea70e00 	sw	a3,3584(s5)
   1578c:	8c8b0000 	lw	t3,0(a0)
   15790:	316a0008 	andi	t2,t3,0x8
   15794:	1140fffd 	beqz	t2,0x1578c
   15798:	00000000 	nop
   1579c:	948d0e08 	lhu	t5,3592(a0)
   157a0:	24130001 	li	s3,1
   157a4:	a78d0040 	sh	t5,64(gp)
   157a8:	8c8c0e04 	lw	t4,3588(a0)
   157ac:	af8c0028 	sw	t4,40(gp)
   157b0:	8e920004 	lw	s2,4(s4)
   157b4:	0240f809 	jalr	s2
   157b8:	00000000 	nop
   157bc:	02228825 	or	s1,s1,v0
   157c0:	322e0002 	andi	t6,s1,0x2
   157c4:	15c000a5 	bnez	t6,0x15a5c
   157c8:	00000000 	nop
   157cc:	3c180800 	lui	t8,0x800
   157d0:	97183bdc 	lhu	t8,15324(t8)
   157d4:	3c120800 	lui	s2,0x800
   157d8:	96523be8 	lhu	s2,15336(s2)
   157dc:	3c190800 	lui	t9,0x800
   157e0:	97393bde 	lhu	t9,15326(t9)
   157e4:	3c070800 	lui	a3,0x800
   157e8:	8ce73bd4 	lw	a3,15316(a3)
   157ec:	03124021 	addu	t0,t8,s2
   157f0:	3c0b0800 	lui	t3,0x800
   157f4:	8d6b3bf8 	lw	t3,15352(t3)
   157f8:	3c0e0800 	lui	t6,0x800
   157fc:	95ce3bf2 	lhu	t6,15346(t6)
   15800:	3c128000 	lui	s2,0x8000
   15804:	01197821 	addu	t7,t0,t9
   15808:	8e46010c 	lw	a2,268(s2)
   1580c:	00f86821 	addu	t5,a3,t8
   15810:	25ec0002 	addiu	t4,t7,2
   15814:	01ae4821 	addu	t1,t5,t6
   15818:	01675021 	addu	t2,t3,a3
   1581c:	af860068 	sw	a2,104(gp)
   15820:	3c010800 	lui	at,0x800
   15824:	ac2a3bf8 	sw	t2,15352(at)
   15828:	3c010800 	lui	at,0x800
   1582c:	a4293be0 	sh	t1,15328(at)
   15830:	3c010800 	lui	at,0x800
   15834:	a4283bea 	sh	t0,15338(at)
   15838:	0e0001c9 	jal	0x8000724
   1583c:	3184ffff 	andi	a0,t4,0xffff
   15840:	0e000550 	jal	0x8001540
   15844:	00408021 	move	s0,v0
   15848:	3c010800 	lui	at,0x800
   1584c:	a0223bf1 	sb	v0,15345(at)
   15850:	8e820008 	lw	v0,8(s4)
   15854:	0040f809 	jalr	v0
   15858:	02002021 	move	a0,s0
   1585c:	8f850058 	lw	a1,88(gp)
   15860:	0e0005bf 	jal	0x80016fc
   15864:	00402021 	move	a0,v0
   15868:	8e90000c 	lw	s0,12(s4)
   1586c:	0200f809 	jalr	s0
   15870:	00402021 	move	a0,v0
   15874:	3c030800 	lui	v1,0x800
   15878:	94633bea 	lhu	v1,15338(v1)
   1587c:	3c020800 	lui	v0,0x800
   15880:	94423bde 	lhu	v0,15326(v0)
   15884:	00622021 	addu	a0,v1,v0
   15888:	24850002 	addiu	a1,a0,2
   1588c:	0e0001f2 	jal	0x80007c8
   15890:	30a4ffff 	andi	a0,a1,0xffff
   15894:	3c190800 	lui	t9,0x800
   15898:	8f393bcc 	lw	t9,15308(t9)
   1589c:	3c1f0800 	lui	ra,0x800
   158a0:	8fff3bd4 	lw	ra,15316(ra)
   158a4:	033fc023 	subu	t8,t9,ra
   158a8:	3c010800 	lui	at,0x800
   158ac:	ac383bcc 	sw	t8,15308(at)
   158b0:	17000006 	bnez	t8,0x158cc
   158b4:	00000000 	nop
   158b8:	3c050800 	lui	a1,0x800
   158bc:	8ca53bec 	lw	a1,15340(a1)
   158c0:	34bf0040 	ori	ra,a1,0x40
   158c4:	3c010800 	lui	at,0x800
   158c8:	ac3f3bec 	sw	ra,15340(at)
   158cc:	12600042 	beqz	s3,0x159d8
   158d0:	8f820044 	lw	v0,68(gp)
   158d4:	8e430e10 	lw	v1,3600(s2)
   158d8:	8f930044 	lw	s3,68(gp)
   158dc:	ae630020 	sw	v1,32(s3)
   158e0:	8e440e18 	lw	a0,3608(s2)
   158e4:	ae640024 	sw	a0,36(s3)
   158e8:	3c040800 	lui	a0,0x800
   158ec:	94843be0 	lhu	a0,15328(a0)
   158f0:	0e000697 	jal	0x8001a5c
   158f4:	00000000 	nop
   158f8:	8f860058 	lw	a2,88(gp)
   158fc:	8e8a0010 	lw	t2,16(s4)
   15900:	3c010800 	lui	at,0x800
   15904:	ac263bf4 	sw	a2,15348(at)
   15908:	0140f809 	jalr	t2
   1590c:	00000000 	nop
   15910:	3c090800 	lui	t1,0x800
   15914:	8d293bcc 	lw	t1,15308(t1)
   15918:	1520ff7e 	bnez	t1,0x15714
   1591c:	8f920058 	lw	s2,88(gp)
   15920:	9796005c 	lhu	s6,92(gp)
   15924:	3c14800e 	lui	s4,0x800e
   15928:	32350010 	andi	s5,s1,0x10
   1592c:	0e0006c6 	jal	0x8001b18
   15930:	a696002c 	sh	s6,44(s4)
   15934:	56a00045 	bnezl	s5,0x15a4c
   15938:	8eeb0004 	lw	t3,4(s7)
   1593c:	32270040 	andi	a3,s1,0x40
   15940:	54e0001e 	bnezl	a3,0x159bc
   15944:	8ef10008 	lw	s1,8(s7)
   15948:	8eec000c 	lw	t4,12(s7)
   1594c:	0180f809 	jalr	t4
   15950:	00000000 	nop
   15954:	8fbf0038 	lw	ra,56(sp)
   15958:	8fb70034 	lw	s7,52(sp)
   1595c:	8fb60030 	lw	s6,48(sp)
   15960:	8fb5002c 	lw	s5,44(sp)
   15964:	8fb40028 	lw	s4,40(sp)
   15968:	8fb30024 	lw	s3,36(sp)
   1596c:	8fb20020 	lw	s2,32(sp)
   15970:	8fb1001c 	lw	s1,28(sp)
   15974:	8fb00018 	lw	s0,24(sp)
   15978:	03e00008 	jr	ra
   1597c:	27bd0040 	addiu	sp,sp,64
   15980:	92090109 	lbu	t1,265(s0)
   15984:	8f880030 	lw	t0,48(gp)
   15988:	00093e00 	sll	a3,t1,0x18
   1598c:	00e83025 	or	a2,a3,t0
   15990:	ae060080 	sw	a2,128(s0)
   15994:	8e230020 	lw	v1,32(s1)
   15998:	8e240024 	lw	a0,36(s1)
   1599c:	afa30010 	sw	v1,16(sp)
   159a0:	ae030e14 	sw	v1,3604(s0)
   159a4:	8fa20010 	lw	v0,16(sp)
   159a8:	ae020e10 	sw	v0,3600(s0)
   159ac:	ae040e1c 	sw	a0,3612(s0)
   159b0:	ae040e18 	sw	a0,3608(s0)
   159b4:	0a0009e3 	j	0x800278c
   159b8:	36050900 	ori	a1,s0,0x900
   159bc:	0220f809 	jalr	s1
   159c0:	00000000 	nop
   159c4:	8eec000c 	lw	t4,12(s7)
   159c8:	0180f809 	jalr	t4
   159cc:	00000000 	nop
   159d0:	0a000a8b 	j	0x8002a2c
   159d4:	8fbf0038 	lw	ra,56(sp)
   159d8:	24080001 	li	t0,1
   159dc:	24100001 	li	s0,1
   159e0:	a4400020 	sh	zero,32(v0)
   159e4:	a4480022 	sh	t0,34(v0)
   159e8:	0a000a6f 	j	0x80029bc
   159ec:	ac500024 	sw	s0,36(v0)
   159f0:	3c010800 	lui	at,0x800
   159f4:	ac203bd0 	sw	zero,15312(at)
   159f8:	0a000a0a 	j	0x8002828
   159fc:	8e900000 	lw	s0,0(s4)
   15a00:	3c010800 	lui	at,0x800
   15a04:	ac253bd0 	sw	a1,15312(at)
   15a08:	0a000a0a 	j	0x8002828
   15a0c:	8e900000 	lw	s0,0(s4)
   15a10:	92110109 	lbu	s1,265(s0)
   15a14:	00002821 	move	a1,zero
   15a18:	0e000734 	jal	0x8001cd0
   15a1c:	322400ff 	andi	a0,s1,0xff
   15a20:	8fbf0038 	lw	ra,56(sp)
   15a24:	8fb70034 	lw	s7,52(sp)
   15a28:	8fb60030 	lw	s6,48(sp)
   15a2c:	8fb5002c 	lw	s5,44(sp)
   15a30:	8fb40028 	lw	s4,40(sp)
   15a34:	8fb30024 	lw	s3,36(sp)
   15a38:	8fb20020 	lw	s2,32(sp)
   15a3c:	8fb1001c 	lw	s1,28(sp)
   15a40:	8fb00018 	lw	s0,24(sp)
   15a44:	03e00008 	jr	ra
   15a48:	27bd0040 	addiu	sp,sp,64
   15a4c:	0160f809 	jalr	t3
   15a50:	00000000 	nop
   15a54:	0a000a85 	j	0x8002a14
   15a58:	32270040 	andi	a3,s1,0x40
   15a5c:	5260ffb1 	beqzl	s3,0x15924
   15a60:	9796005c 	lhu	s6,92(gp)
   15a64:	8eb60e14 	lw	s6,3604(s5)
   15a68:	8f940044 	lw	s4,68(gp)
   15a6c:	ae960020 	sw	s6,32(s4)
   15a70:	8eaf0e1c 	lw	t7,3612(s5)
   15a74:	ae8f0024 	sw	t7,36(s4)
   15a78:	0a000a7e 	j	0x80029f8
   15a7c:	9796005c 	lhu	s6,92(gp)
   15a80:	8f820000 	lw	v0,0(gp)
   15a84:	00042180 	sll	a0,a0,0x6
   15a88:	03e00008 	jr	ra
   15a8c:	00821021 	addu	v0,a0,v0
   15a90:	3c078008 	lui	a3,0x8008
   15a94:	34e20080 	ori	v0,a3,0x80
   15a98:	90430069 	lbu	v1,105(v0)
   15a9c:	00804021 	move	t0,a0
   15aa0:	10600009 	beqz	v1,0x15ac8
   15aa4:	3c040100 	lui	a0,0x100
   15aa8:	3c070800 	lui	a3,0x800
   15aac:	8ce73bf4 	lw	a3,15348(a3)
   15ab0:	8f83001c 	lw	v1,28(gp)
   15ab4:	00e32023 	subu	a0,a3,v1
   15ab8:	04800008 	bltz	a0,0x15adc
   15abc:	93890008 	lbu	t1,8(gp)
   15ac0:	14e30003 	bne	a3,v1,0x15ad0
   15ac4:	01002021 	move	a0,t0
   15ac8:	03e00008 	jr	ra
   15acc:	00801021 	move	v0,a0
   15ad0:	3c040100 	lui	a0,0x100
   15ad4:	03e00008 	jr	ra
   15ad8:	00801021 	move	v0,a0
   15adc:	1120000b 	beqz	t1,0x15b0c
   15ae0:	00673823 	subu	a3,v1,a3
   15ae4:	3c0d8000 	lui	t5,0x8000
   15ae8:	35ac0980 	ori	t4,t5,0x980
   15aec:	918b007c 	lbu	t3,124(t4)
   15af0:	316a0002 	andi	t2,t3,0x2
   15af4:	11400020 	beqz	t2,0x15b78
   15af8:	24090034 	li	t1,52
   15afc:	00e9702b 	sltu	t6,a3,t1
   15b00:	15c0fff1 	bnez	t6,0x15ac8
   15b04:	01002021 	move	a0,t0
   15b08:	00e93823 	subu	a3,a3,t1
   15b0c:	2403fffc 	li	v1,-4
   15b10:	00a3c824 	and	t9,a1,v1
   15b14:	00e3c024 	and	t8,a3,v1
   15b18:	00f9782b 	sltu	t7,a3,t9
   15b1c:	15e0ffea 	bnez	t7,0x15ac8
   15b20:	03082021 	addu	a0,t8,t0
   15b24:	30c40003 	andi	a0,a2,0x3
   15b28:	00041023 	negu	v0,a0
   15b2c:	14c00014 	bnez	a2,0x15b80
   15b30:	30490003 	andi	t1,v0,0x3
   15b34:	00003021 	move	a2,zero
   15b38:	00a97821 	addu	t7,a1,t1
   15b3c:	01e67021 	addu	t6,t7,a2
   15b40:	00ee682b 	sltu	t5,a3,t6
   15b44:	11a0ffe0 	beqz	t5,0x15ac8
   15b48:	3c040100 	lui	a0,0x100
   15b4c:	2d380001 	sltiu	t8,t1,1
   15b50:	0006c82b 	sltu	t9,zero,a2
   15b54:	01054821 	addu	t1,t0,a1
   15b58:	03193824 	and	a3,t8,t9
   15b5c:	14e0ffda 	bnez	a3,0x15ac8
   15b60:	2524fffc 	addiu	a0,t1,-4
   15b64:	2402fffc 	li	v0,-4
   15b68:	00a21824 	and	v1,a1,v0
   15b6c:	00682021 	addu	a0,v1,t0
   15b70:	03e00008 	jr	ra
   15b74:	00801021 	move	v0,a0
   15b78:	0a000af4 	j	0x8002bd0
   15b7c:	24090030 	li	t1,48
   15b80:	3c0c8000 	lui	t4,0x8000
   15b84:	35860980 	ori	a2,t4,0x980
   15b88:	90cb007c 	lbu	t3,124(a2)
   15b8c:	316a0004 	andi	t2,t3,0x4
   15b90:	1540ffe9 	bnez	t2,0x15b38
   15b94:	24060004 	li	a2,4
   15b98:	0a000b03 	j	0x8002c0c
   15b9c:	00003021 	move	a2,zero
   15ba0:	3c030800 	lui	v1,0x800
   15ba4:	8c63005c 	lw	v1,92(v1)
   15ba8:	8f820004 	lw	v0,4(gp)
   15bac:	27bdffe8 	addiu	sp,sp,-24
   15bb0:	afbf0014 	sw	ra,20(sp)
   15bb4:	10620005 	beq	v1,v0,0x15bcc
   15bb8:	afb00010 	sw	s0,16(sp)
   15bbc:	000329c0 	sll	a1,v1,0x7
   15bc0:	24a40280 	addiu	a0,a1,640
   15bc4:	af840000 	sw	a0,0(gp)
   15bc8:	af830004 	sw	v1,4(gp)
   15bcc:	3c108000 	lui	s0,0x8000
   15bd0:	36030a00 	ori	v1,s0,0xa00
   15bd4:	94650032 	lhu	a1,50(v1)
   15bd8:	0e000ad5 	jal	0x8002b54
   15bdc:	30a43fff 	andi	a0,a1,0x3fff
   15be0:	8e040100 	lw	a0,256(s0)
   15be4:	3c180080 	lui	t8,0x80
   15be8:	370f0003 	ori	t7,t8,0x3
   15bec:	0082c821 	addu	t9,a0,v0
   15bf0:	2402ff80 	li	v0,-128
   15bf4:	03226024 	and	t4,t9,v0
   15bf8:	3329007f 	andi	t1,t9,0x7f
   15bfc:	000cf940 	sll	ra,t4,0x5
   15c00:	03e94025 	or	t0,ra,t1
   15c04:	332e0078 	andi	t6,t9,0x78
   15c08:	3c0d1000 	lui	t5,0x1000
   15c0c:	010d5025 	or	t2,t0,t5
   15c10:	01cf5825 	or	t3,t6,t7
   15c14:	ae0c0028 	sw	t4,40(s0)
   15c18:	36080980 	ori	t0,s0,0x980
   15c1c:	ae0c080c 	sw	t4,2060(s0)
   15c20:	ae0b082c 	sw	t3,2092(s0)
   15c24:	ae0a0830 	sw	t2,2096(s0)
   15c28:	91030069 	lbu	v1,105(t0)
   15c2c:	3c06800c 	lui	a2,0x800c
   15c30:	01263821 	addu	a3,t1,a2
   15c34:	10600006 	beqz	v1,0x15c50
   15c38:	af870020 	sw	a3,32(gp)
   15c3c:	8d09003c 	lw	t1,60(t0)
   15c40:	8d06006c 	lw	a2,108(t0)
   15c44:	01263823 	subu	a3,t1,a2
   15c48:	18e0007f 	blez	a3,0x15e48
   15c4c:	00000000 	nop
   15c50:	3c0c8008 	lui	t4,0x8008
   15c54:	358b0080 	ori	t3,t4,0x80
   15c58:	3c0a8000 	lui	t2,0x8000
   15c5c:	a1600069 	sb	zero,105(t3)
   15c60:	35500980 	ori	s0,t2,0x980
   15c64:	8e020038 	lw	v0,56(s0)
   15c68:	3c068000 	lui	a2,0x8000
   15c6c:	34c50a00 	ori	a1,a2,0xa00
   15c70:	90ad003c 	lbu	t5,60(a1)
   15c74:	31a80020 	andi	t0,t5,0x20
   15c78:	11000019 	beqz	t0,0x15ce0
   15c7c:	af82001c 	sw	v0,28(gp)
   15c80:	240e0001 	li	t6,1
   15c84:	3c198000 	lui	t9,0x8000
   15c88:	37300a00 	ori	s0,t9,0xa00
   15c8c:	a38e0008 	sb	t6,8(gp)
   15c90:	af800010 	sw	zero,16(gp)
   15c94:	8e040024 	lw	a0,36(s0)
   15c98:	8f850010 	lw	a1,16(gp)
   15c9c:	24180008 	li	t8,8
   15ca0:	af80000c 	sw	zero,12(gp)
   15ca4:	af800014 	sw	zero,20(gp)
   15ca8:	3c010800 	lui	at,0x800
   15cac:	a4383bde 	sh	t8,15326(at)
   15cb0:	3c010800 	lui	at,0x800
   15cb4:	a4203bf2 	sh	zero,15346(at)
   15cb8:	0e000ad9 	jal	0x8002b64
   15cbc:	00003021 	move	a2,zero
   15cc0:	920f003c 	lbu	t7,60(s0)
   15cc4:	8fbf0014 	lw	ra,20(sp)
   15cc8:	8fb00010 	lw	s0,16(sp)
   15ccc:	000f7142 	srl	t6,t7,0x5
   15cd0:	af820018 	sw	v0,24(gp)
   15cd4:	27bd0018 	addiu	sp,sp,24
   15cd8:	03e00008 	jr	ra
   15cdc:	31c20001 	andi	v0,t6,0x1
   15ce0:	90b90032 	lbu	t9,50(a1)
   15ce4:	240f0001 	li	t7,1
   15ce8:	333800ff 	andi	t8,t9,0xff
   15cec:	00182182 	srl	a0,t8,0x6
   15cf0:	108f003f 	beq	a0,t7,0x15df0
   15cf4:	241f0002 	li	ra,2
   15cf8:	109f0062 	beq	a0,ra,0x15e84
   15cfc:	34c20ac0 	ori	v0,a2,0xac0
   15d00:	3c038000 	lui	v1,0x8000
   15d04:	34640a00 	ori	a0,v1,0xa00
   15d08:	8c990024 	lw	t9,36(a0)
   15d0c:	1720001d 	bnez	t9,0x15d84
   15d10:	34660900 	ori	a2,v1,0x900
   15d14:	90830030 	lbu	v1,48(a0)
   15d18:	241f0005 	li	ra,5
   15d1c:	3062003f 	andi	v0,v1,0x3f
   15d20:	105f004c 	beq	v0,ra,0x15e54
   15d24:	24050001 	li	a1,1
   15d28:	8f86000c 	lw	a2,12(gp)
   15d2c:	a3850008 	sb	a1,8(gp)
   15d30:	af860014 	sw	a2,20(gp)
   15d34:	af860010 	sw	a2,16(gp)
   15d38:	3c198000 	lui	t9,0x8000
   15d3c:	37300a00 	ori	s0,t9,0xa00
   15d40:	8e040024 	lw	a0,36(s0)
   15d44:	8f850010 	lw	a1,16(gp)
   15d48:	24180008 	li	t8,8
   15d4c:	3c010800 	lui	at,0x800
   15d50:	a4383bde 	sh	t8,15326(at)
   15d54:	3c010800 	lui	at,0x800
   15d58:	a4203bf2 	sh	zero,15346(at)
   15d5c:	0e000ad9 	jal	0x8002b64
   15d60:	00000000 	nop
   15d64:	920f003c 	lbu	t7,60(s0)
   15d68:	8fbf0014 	lw	ra,20(sp)
   15d6c:	8fb00010 	lw	s0,16(sp)
   15d70:	000f7142 	srl	t6,t7,0x5
   15d74:	af820018 	sw	v0,24(gp)
   15d78:	27bd0018 	addiu	sp,sp,24
   15d7c:	03e00008 	jr	ra
   15d80:	31c20001 	andi	v0,t6,0x1
   15d84:	8c880008 	lw	t0,8(a0)
   15d88:	8c8d0024 	lw	t5,36(a0)
   15d8c:	8ccb0064 	lw	t3,100(a2)
   15d90:	3c198000 	lui	t9,0x8000
   15d94:	37300a00 	ori	s0,t9,0xa00
   15d98:	af8b0010 	sw	t3,16(gp)
   15d9c:	a3800008 	sb	zero,8(gp)
   15da0:	8e040024 	lw	a0,36(s0)
   15da4:	8f86000c 	lw	a2,12(gp)
   15da8:	8f850010 	lw	a1,16(gp)
   15dac:	010d6023 	subu	t4,t0,t5
   15db0:	24180008 	li	t8,8
   15db4:	af8c0014 	sw	t4,20(gp)
   15db8:	3c010800 	lui	at,0x800
   15dbc:	a4383bde 	sh	t8,15326(at)
   15dc0:	3c010800 	lui	at,0x800
   15dc4:	a4203bf2 	sh	zero,15346(at)
   15dc8:	0e000ad9 	jal	0x8002b64
   15dcc:	00000000 	nop
   15dd0:	920f003c 	lbu	t7,60(s0)
   15dd4:	8fbf0014 	lw	ra,20(sp)
   15dd8:	8fb00010 	lw	s0,16(sp)
   15ddc:	000f7142 	srl	t6,t7,0x5
   15de0:	af820018 	sw	v0,24(gp)
   15de4:	27bd0018 	addiu	sp,sp,24
   15de8:	03e00008 	jr	ra
   15dec:	31c20001 	andi	v0,t6,0x1
   15df0:	90a70030 	lbu	a3,48(a1)
   15df4:	30e3003f 	andi	v1,a3,0x3f
   15df8:	50640028 	beql	v1,a0,0x15e9c
   15dfc:	34c50ac0 	ori	a1,a2,0xac0
   15e00:	8caa0024 	lw	t2,36(a1)
   15e04:	15400022 	bnez	t2,0x15e90
   15e08:	34c80900 	ori	t0,a2,0x900
   15e0c:	8cab0048 	lw	t3,72(a1)
   15e10:	3c0c7fff 	lui	t4,0x7fff
   15e14:	3585ffff 	ori	a1,t4,0xffff
   15e18:	01651024 	and	v0,t3,a1
   15e1c:	3c188000 	lui	t8,0x8000
   15e20:	af82000c 	sw	v0,12(gp)
   15e24:	37050900 	ori	a1,t8,0x900
   15e28:	8f8e000c 	lw	t6,12(gp)
   15e2c:	8caf0060 	lw	t7,96(a1)
   15e30:	01cf682b 	sltu	t5,t6,t7
   15e34:	15a00002 	bnez	t5,0x15e40
   15e38:	01c02021 	move	a0,t6
   15e3c:	8ca40060 	lw	a0,96(a1)
   15e40:	0a000b75 	j	0x8002dd4
   15e44:	af84000c 	sw	a0,12(gp)
   15e48:	8d02006c 	lw	v0,108(t0)
   15e4c:	0a000b50 	j	0x8002d40
   15e50:	3c068000 	lui	a2,0x8000
   15e54:	8c890048 	lw	t1,72(a0)
   15e58:	8f86000c 	lw	a2,12(gp)
   15e5c:	3c0a7fff 	lui	t2,0x7fff
   15e60:	3550ffff 	ori	s0,t2,0xffff
   15e64:	01303824 	and	a3,t1,s0
   15e68:	3c048008 	lui	a0,0x8008
   15e6c:	24050001 	li	a1,1
   15e70:	af870014 	sw	a3,20(gp)
   15e74:	ac80006c 	sw	zero,108(a0)
   15e78:	a3850008 	sb	a1,8(gp)
   15e7c:	0a000b83 	j	0x8002e0c
   15e80:	af860010 	sw	a2,16(gp)
   15e84:	8c440014 	lw	a0,20(v0)
   15e88:	0a000b75 	j	0x8002dd4
   15e8c:	af84000c 	sw	a0,12(gp)
   15e90:	8d020068 	lw	v0,104(t0)
   15e94:	0a000bbd 	j	0x8002ef4
   15e98:	3c188000 	lui	t8,0x8000
   15e9c:	34c40980 	ori	a0,a2,0x980
   15ea0:	8c860070 	lw	a2,112(a0)
   15ea4:	8cb00014 	lw	s0,20(a1)
   15ea8:	00d0482b 	sltu	t1,a2,s0
   15eac:	11200004 	beqz	t1,0x15ec0
   15eb0:	00000000 	nop
   15eb4:	8c820070 	lw	v0,112(a0)
   15eb8:	0a000bbd 	j	0x8002ef4
   15ebc:	3c188000 	lui	t8,0x8000
   15ec0:	8ca20014 	lw	v0,20(a1)
   15ec4:	0a000bbd 	j	0x8002ef4
   15ec8:	3c188000 	lui	t8,0x8000
   15ecc:	8f850010 	lw	a1,16(gp)
   15ed0:	27bdffe0 	addiu	sp,sp,-32
   15ed4:	afbf0018 	sw	ra,24(sp)
   15ed8:	afb10014 	sw	s1,20(sp)
   15edc:	14a00008 	bnez	a1,0x15f00
   15ee0:	afb00010 	sw	s0,16(sp)
   15ee4:	3c048000 	lui	a0,0x8000
   15ee8:	34870a00 	ori	a3,a0,0xa00
   15eec:	90e60030 	lbu	a2,48(a3)
   15ef0:	24020005 	li	v0,5
   15ef4:	30c3003f 	andi	v1,a2,0x3f
   15ef8:	106200b7 	beq	v1,v0,0x161d8
   15efc:	34840900 	ori	a0,a0,0x900
   15f00:	8f91000c 	lw	s1,12(gp)
   15f04:	00a08021 	move	s0,a1
   15f08:	3c048000 	lui	a0,0x8000
   15f0c:	348e0a00 	ori	t6,a0,0xa00
   15f10:	8dcd0004 	lw	t5,4(t6)
   15f14:	3c060800 	lui	a2,0x800
   15f18:	8cc63bd0 	lw	a2,15312(a2)
   15f1c:	31a73fff 	andi	a3,t5,0x3fff
   15f20:	00e6602b 	sltu	t4,a3,a2
   15f24:	55800001 	bnezl	t4,0x15f2c
   15f28:	00e03021 	move	a2,a3
   15f2c:	938f0008 	lbu	t7,8(gp)
   15f30:	11e00076 	beqz	t7,0x1610c
   15f34:	00d0102b 	sltu	v0,a2,s0
   15f38:	34990980 	ori	t9,a0,0x980
   15f3c:	9338007c 	lbu	t8,124(t9)
   15f40:	33040002 	andi	a0,t8,0x2
   15f44:	10800077 	beqz	a0,0x16124
   15f48:	24030034 	li	v1,52
   15f4c:	00c3f82b 	sltu	ra,a2,v1
   15f50:	17e000d6 	bnez	ra,0x162ac
   15f54:	00c33023 	subu	a2,a2,v1
   15f58:	00d0102b 	sltu	v0,a2,s0
   15f5c:	3c010800 	lui	at,0x800
   15f60:	a4233bdc 	sh	v1,15324(at)
   15f64:	1440006d 	bnez	v0,0x1611c
   15f68:	02001821 	move	v1,s0
   15f6c:	3c040800 	lui	a0,0x800
   15f70:	8c843bcc 	lw	a0,15308(a0)
   15f74:	0064282b 	sltu	a1,v1,a0
   15f78:	54a00001 	bnezl	a1,0x15f80
   15f7c:	00602021 	move	a0,v1
   15f80:	3c058000 	lui	a1,0x8000
   15f84:	34a90a00 	ori	t1,a1,0xa00
   15f88:	9128003c 	lbu	t0,60(t1)
   15f8c:	3c010800 	lui	at,0x800
   15f90:	ac243bd4 	sw	a0,15316(at)
   15f94:	31030020 	andi	v1,t0,0x20
   15f98:	14600002 	bnez	v1,0x15fa4
   15f9c:	00004821 	move	t1,zero
   15fa0:	8ca90e18 	lw	t1,3608(a1)
   15fa4:	8f880018 	lw	t0,24(gp)
   15fa8:	0128502b 	sltu	t2,t1,t0
   15fac:	1140005f 	beqz	t2,0x1612c
   15fb0:	00000000 	nop
   15fb4:	3c050800 	lui	a1,0x800
   15fb8:	8ca53bd4 	lw	a1,15316(a1)
   15fbc:	00a96021 	addu	t4,a1,t1
   15fc0:	010c582b 	sltu	t3,t0,t4
   15fc4:	1160005c 	beqz	t3,0x16138
   15fc8:	00b0682b 	sltu	t5,a1,s0
   15fcc:	01093823 	subu	a3,t0,t1
   15fd0:	00e02821 	move	a1,a3
   15fd4:	3c010800 	lui	at,0x800
   15fd8:	ac273bd4 	sw	a3,15316(at)
   15fdc:	12000003 	beqz	s0,0x15fec
   15fe0:	2402fffc 	li	v0,-4
   15fe4:	10b0008c 	beq	a1,s0,0x16218
   15fe8:	322a0003 	andi	t2,s1,0x3
   15fec:	00a2f824 	and	ra,a1,v0
   15ff0:	3c010800 	lui	at,0x800
   15ff4:	a4203bf2 	sh	zero,15346(at)
   15ff8:	3c010800 	lui	at,0x800
   15ffc:	ac3f3bd4 	sw	ra,15316(at)
   16000:	03e02821 	move	a1,ra
   16004:	8f840010 	lw	a0,16(gp)
   16008:	12040006 	beq	s0,a0,0x16024
   1600c:	3c038008 	lui	v1,0x8008
   16010:	8c6a006c 	lw	t2,108(v1)
   16014:	02002021 	move	a0,s0
   16018:	af91000c 	sw	s1,12(gp)
   1601c:	25500001 	addiu	s0,t2,1
   16020:	ac70006c 	sw	s0,108(v1)
   16024:	8f8b0014 	lw	t3,20(gp)
   16028:	00858823 	subu	s1,a0,a1
   1602c:	af910010 	sw	s1,16(gp)
   16030:	01652023 	subu	a0,t3,a1
   16034:	af840014 	sw	a0,20(gp)
   16038:	12200002 	beqz	s1,0x16044
   1603c:	24070018 	li	a3,24
   16040:	24070010 	li	a3,16
   16044:	3c0e8008 	lui	t6,0x8008
   16048:	35c60080 	ori	a2,t6,0x80
   1604c:	90cd0068 	lbu	t5,104(a2)
   16050:	240c0001 	li	t4,1
   16054:	3c010800 	lui	at,0x800
   16058:	a0273bf0 	sb	a3,15344(at)
   1605c:	31a700ff 	andi	a3,t5,0xff
   16060:	10ec0047 	beq	a3,t4,0x16180
   16064:	00000000 	nop
   16068:	14800018 	bnez	a0,0x160cc
   1606c:	00002821 	move	a1,zero
   16070:	3c0b8000 	lui	t3,0x8000
   16074:	91650109 	lbu	a1,265(t3)
   16078:	35710980 	ori	s1,t3,0x980
   1607c:	8e230018 	lw	v1,24(s1)
   16080:	30a500ff 	andi	a1,a1,0xff
   16084:	00035602 	srl	t2,v1,0x18
   16088:	24a30001 	addiu	v1,a1,1
   1608c:	3146007f 	andi	a2,t2,0x7f
   16090:	3070007f 	andi	s0,v1,0x7f
   16094:	1206007e 	beq	s0,a2,0x16290
   16098:	240cff80 	li	t4,-128
   1609c:	3c0f8008 	lui	t7,0x8008
   160a0:	35e90080 	ori	t1,t7,0x80
   160a4:	a123004c 	sb	v1,76(t1)
   160a8:	3c080800 	lui	t0,0x800
   160ac:	8d083bec 	lw	t0,15340(t0)
   160b0:	240e0002 	li	t6,2
   160b4:	3c010800 	lui	at,0x800
   160b8:	a02e3c31 	sb	t6,15409(at)
   160bc:	350d0008 	ori	t5,t0,0x8
   160c0:	3c010800 	lui	at,0x800
   160c4:	ac2d3bec 	sw	t5,15340(at)
   160c8:	24050010 	li	a1,16
   160cc:	3c1f8000 	lui	ra,0x8000
   160d0:	37e40a00 	ori	a0,ra,0xa00
   160d4:	9099003c 	lbu	t9,60(a0)
   160d8:	33380020 	andi	t8,t9,0x20
   160dc:	13000005 	beqz	t8,0x160f4
   160e0:	00a02021 	move	a0,a1
   160e4:	24020001 	li	v0,1
   160e8:	3c010800 	lui	at,0x800
   160ec:	ac223bd4 	sw	v0,15316(at)
   160f0:	34a40001 	ori	a0,a1,0x1
   160f4:	8fbf0018 	lw	ra,24(sp)
   160f8:	8fb10014 	lw	s1,20(sp)
   160fc:	8fb00010 	lw	s0,16(sp)
   16100:	00801021 	move	v0,a0
   16104:	03e00008 	jr	ra
   16108:	27bd0020 	addiu	sp,sp,32
   1610c:	3c010800 	lui	at,0x800
   16110:	a4203bdc 	sh	zero,15324(at)
   16114:	1040ff95 	beqz	v0,0x15f6c
   16118:	02001821 	move	v1,s0
   1611c:	0a000c10 	j	0x8003040
   16120:	00c01821 	move	v1,a2
   16124:	0a000c08 	j	0x8003020
   16128:	24030030 	li	v1,48
   1612c:	3c050800 	lui	a1,0x800
   16130:	8ca53bd4 	lw	a1,15316(a1)
   16134:	00b0682b 	sltu	t5,a1,s0
   16138:	11a0ffa8 	beqz	t5,0x15fdc
   1613c:	00000000 	nop
   16140:	3c040800 	lui	a0,0x800
   16144:	94843bdc 	lhu	a0,15324(a0)
   16148:	00857821 	addu	t7,a0,a1
   1614c:	01e7702b 	sltu	t6,t7,a3
   16150:	11c00007 	beqz	t6,0x16170
   16154:	2ca20004 	sltiu	v0,a1,4
   16158:	3c1f6000 	lui	ra,0x6000
   1615c:	8ff95404 	lw	t9,21508(ra)
   16160:	3338003f 	andi	t8,t9,0x3f
   16164:	1700ffe3 	bnez	t8,0x160f4
   16168:	24040042 	li	a0,66
   1616c:	2ca20004 	sltiu	v0,a1,4
   16170:	1040ff9a 	beqz	v0,0x15fdc
   16174:	24040042 	li	a0,66
   16178:	0a000c73 	j	0x80031cc
   1617c:	8fbf0018 	lw	ra,24(sp)
   16180:	1528ffb9 	bne	t1,t0,0x16068
   16184:	00000000 	nop
   16188:	8cc20018 	lw	v0,24(a2)
   1618c:	3c188000 	lui	t8,0x8000
   16190:	24190002 	li	t9,2
   16194:	0058f825 	or	ra,v0,t8
   16198:	acdf0018 	sw	ra,24(a2)
   1619c:	37040a00 	ori	a0,t8,0xa00
   161a0:	a0d90068 	sb	t9,104(a2)
   161a4:	9089003c 	lbu	t1,60(a0)
   161a8:	240f0004 	li	t7,4
   161ac:	00a01021 	move	v0,a1
   161b0:	31280020 	andi	t0,t1,0x20
   161b4:	3c010800 	lui	at,0x800
   161b8:	a02f3c31 	sb	t7,15409(at)
   161bc:	11000002 	beqz	t0,0x161c8
   161c0:	24050010 	li	a1,16
   161c4:	24020001 	li	v0,1
   161c8:	3c010800 	lui	at,0x800
   161cc:	ac223bcc 	sw	v0,15308(at)
   161d0:	0a000c69 	j	0x80031a4
   161d4:	3c1f8000 	lui	ra,0x8000
   161d8:	8f880014 	lw	t0,20(gp)
   161dc:	8c890060 	lw	t1,96(a0)
   161e0:	0109282b 	sltu	a1,t0,t1
   161e4:	14a00002 	bnez	a1,0x161f0
   161e8:	01008821 	move	s1,t0
   161ec:	8c910060 	lw	s1,96(a0)
   161f0:	3c0b8000 	lui	t3,0x8000
   161f4:	8d640e18 	lw	a0,3608(t3)
   161f8:	240a0001 	li	t2,1
   161fc:	02202821 	move	a1,s1
   16200:	02203021 	move	a2,s1
   16204:	a38a0008 	sb	t2,8(gp)
   16208:	0e000ad9 	jal	0x8002b64
   1620c:	02208021 	move	s0,s1
   16210:	0a000bf7 	j	0x8002fdc
   16214:	af820018 	sw	v0,24(gp)
   16218:	000a1823 	negu	v1,t2
   1621c:	12200007 	beqz	s1,0x1623c
   16220:	30640003 	andi	a0,v1,0x3
   16224:	3c0d8000 	lui	t5,0x8000
   16228:	35a70980 	ori	a3,t5,0x980
   1622c:	90ec007c 	lbu	t4,124(a3)
   16230:	318b0004 	andi	t3,t4,0x4
   16234:	15600019 	bnez	t3,0x1629c
   16238:	248e0004 	addiu	t6,a0,4
   1623c:	3c010800 	lui	at,0x800
   16240:	a4243bf2 	sh	a0,15346(at)
   16244:	3c180800 	lui	t8,0x800
   16248:	97183bf2 	lhu	t8,15346(t8)
   1624c:	03052021 	addu	a0,t8,a1
   16250:	00c4782b 	sltu	t7,a2,a0
   16254:	11e0ff6c 	beqz	t7,0x16008
   16258:	8f840010 	lw	a0,16(gp)
   1625c:	2ca60005 	sltiu	a2,a1,5
   16260:	14c0ffa4 	bnez	a2,0x160f4
   16264:	24040042 	li	a0,66
   16268:	30b90003 	andi	t9,a1,0x3
   1626c:	17200002 	bnez	t9,0x16278
   16270:	00b91823 	subu	v1,a1,t9
   16274:	24a3fffc 	addiu	v1,a1,-4
   16278:	3c010800 	lui	at,0x800
   1627c:	ac233bd4 	sw	v1,15316(at)
   16280:	3c010800 	lui	at,0x800
   16284:	a4203bf2 	sh	zero,15346(at)
   16288:	0a000c36 	j	0x80030d8
   1628c:	00602821 	move	a1,v1
   16290:	00ac3824 	and	a3,a1,t4
   16294:	0a000c5c 	j	0x8003170
   16298:	00ec1826 	xor	v1,a3,t4
   1629c:	3c010800 	lui	at,0x800
   162a0:	a42e3bf2 	sh	t6,15346(at)
   162a4:	0a000cc6 	j	0x8003318
   162a8:	00000000 	nop
   162ac:	3c010800 	lui	at,0x800
   162b0:	ac203bd4 	sw	zero,15316(at)
   162b4:	0a000c72 	j	0x80031c8
   162b8:	24040042 	li	a0,66
   162bc:	8f830014 	lw	v1,20(gp)
   162c0:	3c0b8000 	lui	t3,0x8000
   162c4:	356a0a00 	ori	t2,t3,0xa00
   162c8:	14600006 	bnez	v1,0x162e4
   162cc:	00001021 	move	v0,zero
   162d0:	91460030 	lbu	a2,48(t2)
   162d4:	24050005 	li	a1,5
   162d8:	30c400ff 	andi	a0,a2,0xff
   162dc:	10850003 	beq	a0,a1,0x162ec
   162e0:	00000000 	nop
   162e4:	03e00008 	jr	ra
   162e8:	00000000 	nop
   162ec:	91490048 	lbu	t1,72(t2)
   162f0:	312800ff 	andi	t0,t1,0xff
   162f4:	000839c2 	srl	a3,t0,0x7
   162f8:	14e0fffa 	bnez	a3,0x162e4
   162fc:	3c048008 	lui	a0,0x8008
   16300:	3c060800 	lui	a2,0x800
   16304:	94c63bdc 	lhu	a2,15324(a2)
   16308:	3c030800 	lui	v1,0x800
   1630c:	8c633bf4 	lw	v1,15348(v1)
   16310:	3c050800 	lui	a1,0x800
   16314:	8ca53bd4 	lw	a1,15316(a1)
   16318:	3c180800 	lui	t8,0x800
   1631c:	97183bf2 	lhu	t8,15346(t8)
   16320:	0066c821 	addu	t9,v1,a2
   16324:	8c8e0004 	lw	t6,4(a0)
   16328:	03257821 	addu	t7,t9,a1
   1632c:	01f86821 	addu	t5,t7,t8
   16330:	01ae6023 	subu	t4,t5,t6
   16334:	1980001d 	blez	t4,0x163ac
   16338:	00000000 	nop
   1633c:	9158004c 	lbu	t8,76(t2)
   16340:	8f8d0020 	lw	t5,32(gp)
   16344:	956e0e10 	lhu	t6,3600(t3)
   16348:	330f00ff 	andi	t7,t8,0xff
   1634c:	8da90004 	lw	t1,4(t5)
   16350:	01cf3023 	subu	a2,t6,t7
   16354:	8daa0000 	lw	t2,0(t5)
   16358:	30cfffff 	andi	t7,a2,0xffff
   1635c:	000f6100 	sll	t4,t7,0x4
   16360:	012c2821 	addu	a1,t1,t4
   16364:	00003821 	move	a3,zero
   16368:	01472021 	addu	a0,t2,a3
   1636c:	00ac182b 	sltu	v1,a1,t4
   16370:	0083c821 	addu	t9,a0,v1
   16374:	ada50004 	sw	a1,4(t5)
   16378:	adb90000 	sw	t9,0(t5)
   1637c:	91b8000a 	lbu	t8,10(t5)
   16380:	01f87021 	addu	t6,t7,t8
   16384:	a1ae000a 	sb	t6,10(t5)
   16388:	956c0e12 	lhu	t4,3602(t3)
   1638c:	8f8a0020 	lw	t2,32(gp)
   16390:	a54c0008 	sh	t4,8(t2)
   16394:	95490038 	lhu	t1,56(t2)
   16398:	25280001 	addiu	t0,t1,1
   1639c:	a5480038 	sh	t0,56(t2)
   163a0:	9147000d 	lbu	a3,13(t2)
   163a4:	34eb0008 	ori	t3,a3,0x8
   163a8:	a14b000d 	sb	t3,13(t2)
   163ac:	03e00008 	jr	ra
   163b0:	00000000 	nop
   163b4:	27bdffd8 	addiu	sp,sp,-40
   163b8:	afb00018 	sw	s0,24(sp)
   163bc:	938f0008 	lbu	t7,8(gp)
   163c0:	8fb00014 	lw	s0,20(sp)
   163c4:	3c087fff 	lui	t0,0x7fff
   163c8:	8f870010 	lw	a3,16(gp)
   163cc:	3c0c8000 	lui	t4,0x8000
   163d0:	3518ffff 	ori	t8,t0,0xffff
   163d4:	afbf0020 	sw	ra,32(sp)
   163d8:	afb1001c 	sw	s1,28(sp)
   163dc:	35990a00 	ori	t9,t4,0xa00
   163e0:	02181824 	and	v1,s0,t8
   163e4:	932a003c 	lbu	t2,60(t9)
   163e8:	000f5fc0 	sll	t3,t7,0x1f
   163ec:	3c02bfff 	lui	v0,0xbfff
   163f0:	2cf00001 	sltiu	s0,a3,1
   163f4:	3449ffff 	ori	t1,v0,0xffff
   163f8:	006bf825 	or	ra,v1,t3
   163fc:	3c080800 	lui	t0,0x800
   16400:	8d083bf4 	lw	t0,15348(t0)
   16404:	8f99001c 	lw	t9,28(gp)
   16408:	3c180800 	lui	t8,0x800
   1640c:	97183bea 	lhu	t8,15338(t8)
   16410:	03e95824 	and	t3,ra,t1
   16414:	00107f80 	sll	t7,s0,0x1e
   16418:	3c07efff 	lui	a3,0xefff
   1641c:	3c05f0ff 	lui	a1,0xf0ff
   16420:	016f1825 	or	v1,t3,t7
   16424:	3c118000 	lui	s1,0x8000
   16428:	31490020 	andi	t1,t2,0x20
   1642c:	34e2ffff 	ori	v0,a3,0xffff
   16430:	34adffff 	ori	t5,a1,0xffff
   16434:	362e0980 	ori	t6,s1,0x980
   16438:	27a50010 	addiu	a1,sp,16
   1643c:	24060002 	li	a2,2
   16440:	01194023 	subu	t0,t0,t9
   16444:	270a0002 	addiu	t2,t8,2
   16448:	00621824 	and	v1,v1,v0
   1644c:	00808021 	move	s0,a0
   16450:	15200002 	bnez	t1,0x1645c
   16454:	00005821 	move	t3,zero
   16458:	8d8b0e1c 	lw	t3,3612(t4)
   1645c:	a7aa0012 	sh	t2,18(sp)
   16460:	0500003a 	bltz	t0,0x1654c
   16464:	24070000 	li	a3,0
   16468:	30ef00ff 	andi	t7,a3,0xff
   1646c:	000f3f00 	sll	a3,t7,0x1c
   16470:	00674025 	or	t0,v1,a3
   16474:	3c028008 	lui	v0,0x8008
   16478:	afa80014 	sw	t0,20(sp)
   1647c:	344b0080 	ori	t3,v0,0x80
   16480:	916a0068 	lbu	t2,104(t3)
   16484:	3c0f0800 	lui	t7,0x800
   16488:	91ef3bf1 	lbu	t7,15345(t7)
   1648c:	3c09dfff 	lui	t1,0xdfff
   16490:	353fffff 	ori	ra,t1,0xffff
   16494:	000a602b 	sltu	t4,zero,t2
   16498:	3c020800 	lui	v0,0x800
   1649c:	94423be4 	lhu	v0,15332(v0)
   164a0:	a3af0011 	sb	t7,17(sp)
   164a4:	011fc024 	and	t8,t0,ra
   164a8:	000ccf40 	sll	t9,t4,0x1d
   164ac:	03191825 	or	v1,t8,t9
   164b0:	8fa70010 	lw	a3,16(sp)
   164b4:	afa30014 	sw	v1,20(sp)
   164b8:	3c1f0800 	lui	ra,0x800
   164bc:	93ff3bf3 	lbu	ra,15347(ra)
   164c0:	a7a20016 	sh	v0,22(sp)
   164c4:	8fa80014 	lw	t0,20(sp)
   164c8:	00ed4824 	and	t1,a3,t5
   164cc:	3c0b0100 	lui	t3,0x100
   164d0:	3c0a0fff 	lui	t2,0xfff
   164d4:	012bc825 	or	t9,t1,t3
   164d8:	33f80003 	andi	t8,ra,0x3
   164dc:	354cffff 	ori	t4,t2,0xffff
   164e0:	010d7824 	and	t7,t0,t5
   164e4:	3c027000 	lui	v0,0x7000
   164e8:	032c3824 	and	a3,t9,t4
   164ec:	00181e00 	sll	v1,t8,0x18
   164f0:	00e24825 	or	t1,a3,v0
   164f4:	01e35825 	or	t3,t7,v1
   164f8:	afab0014 	sw	t3,20(sp)
   164fc:	afa90010 	sw	t1,16(sp)
   16500:	91df007c 	lbu	ra,124(t6)
   16504:	a3bf0015 	sb	ra,21(sp)
   16508:	0e000072 	jal	0x80001c8
   1650c:	00000000 	nop
   16510:	362d0a00 	ori	t5,s1,0xa00
   16514:	91a6003c 	lbu	a2,60(t5)
   16518:	30c40020 	andi	a0,a2,0x20
   1651c:	10800006 	beqz	a0,0x16538
   16520:	26020008 	addiu	v0,s0,8
   16524:	3c110800 	lui	s1,0x800
   16528:	96313be0 	lhu	s1,15328(s1)
   1652c:	262effff 	addiu	t6,s1,-1
   16530:	3c010800 	lui	at,0x800
   16534:	a42e3be0 	sh	t6,15328(at)
   16538:	8fbf0020 	lw	ra,32(sp)
   1653c:	8fb1001c 	lw	s1,28(sp)
   16540:	8fb00018 	lw	s0,24(sp)
   16544:	03e00008 	jr	ra
   16548:	27bd0028 	addiu	sp,sp,40
   1654c:	8f8a0018 	lw	t2,24(gp)
   16550:	016a602b 	sltu	t4,t3,t2
   16554:	5580ffc4 	bnezl	t4,0x16468
   16558:	24070001 	li	a3,1
   1655c:	0a000d50 	j	0x8003540
   16560:	30ef00ff 	andi	t7,a3,0xff
   16564:	93830008 	lbu	v1,8(gp)
   16568:	3c028000 	lui	v0,0x8000
   1656c:	27bdffd8 	addiu	sp,sp,-40
   16570:	34480a00 	ori	t0,v0,0xa00
   16574:	00805021 	move	t2,a0
   16578:	afbf0020 	sw	ra,32(sp)
   1657c:	34460ac0 	ori	a2,v0,0xac0
   16580:	01002821 	move	a1,t0
   16584:	1060000e 	beqz	v1,0x165c0
   16588:	34440980 	ori	a0,v0,0x980
   1658c:	91070030 	lbu	a3,48(t0)
   16590:	240b0005 	li	t3,5
   16594:	8f89000c 	lw	t1,12(gp)
   16598:	30ec003f 	andi	t4,a3,0x3f
   1659c:	118b000b 	beq	t4,t3,0x165cc
   165a0:	00003821 	move	a3,zero
   165a4:	afa90010 	sw	t1,16(sp)
   165a8:	3c0b8008 	lui	t3,0x8008
   165ac:	8d69006c 	lw	t1,108(t3)
   165b0:	afaa0018 	sw	t2,24(sp)
   165b4:	0e00013a 	jal	0x80004e8
   165b8:	afa90014 	sw	t1,20(sp)
   165bc:	a3800008 	sb	zero,8(gp)
   165c0:	8fbf0020 	lw	ra,32(sp)
   165c4:	03e00008 	jr	ra
   165c8:	27bd0028 	addiu	sp,sp,40
   165cc:	8d1f0048 	lw	ra,72(t0)
   165d0:	3c180800 	lui	t8,0x800
   165d4:	8f183bd4 	lw	t8,15316(t8)
   165d8:	8f990014 	lw	t9,20(gp)
   165dc:	3c027fff 	lui	v0,0x7fff
   165e0:	8d080044 	lw	t0,68(t0)
   165e4:	3443ffff 	ori	v1,v0,0xffff
   165e8:	afa90010 	sw	t1,16(sp)
   165ec:	3c0b8008 	lui	t3,0x8008
   165f0:	8d69006c 	lw	t1,108(t3)
   165f4:	03e37024 	and	t6,ra,v1
   165f8:	03197821 	addu	t7,t8,t9
   165fc:	01cf6823 	subu	t5,t6,t7
   16600:	01a83821 	addu	a3,t5,t0
   16604:	afaa0018 	sw	t2,24(sp)
   16608:	0e00013a 	jal	0x80004e8
   1660c:	afa90014 	sw	t1,20(sp)
   16610:	0a000da5 	j	0x8003694
   16614:	a3800008 	sb	zero,8(gp)
   16618:	3c058000 	lui	a1,0x8000
   1661c:	34a60a00 	ori	a2,a1,0xa00
   16620:	90c7003c 	lbu	a3,60(a2)
   16624:	3c060800 	lui	a2,0x800
   16628:	94c63bf2 	lhu	a2,15346(a2)
   1662c:	3c020800 	lui	v0,0x800
   16630:	8c423bec 	lw	v0,15340(v0)
   16634:	30e30020 	andi	v1,a3,0x20
   16638:	00062400 	sll	a0,a2,0x10
   1663c:	10600031 	beqz	v1,0x16704
   16640:	00444825 	or	t1,v0,a0
   16644:	3c088008 	lui	t0,0x8008
   16648:	35050080 	ori	a1,t0,0x80
   1664c:	90a30068 	lbu	v1,104(a1)
   16650:	00006821 	move	t5,zero
   16654:	240c0001 	li	t4,1
   16658:	00005021 	move	t2,zero
   1665c:	240b0001 	li	t3,1
   16660:	3c188000 	lui	t8,0x8000
   16664:	370f0070 	ori	t7,t8,0x70
   16668:	8de80000 	lw	t0,0(t7)
   1666c:	3c078000 	lui	a3,0x8000
   16670:	af880024 	sw	t0,36(gp)
   16674:	8cf90178 	lw	t9,376(a3)
   16678:	0720fffe 	bltz	t9,0x16674
   1667c:	34e50070 	ori	a1,a3,0x70
   16680:	8ca20000 	lw	v0,0(a1)
   16684:	3c030800 	lui	v1,0x800
   16688:	8c630074 	lw	v1,116(v1)
   1668c:	3c0f0800 	lui	t7,0x800
   16690:	8def0070 	lw	t7,112(t7)
   16694:	00482023 	subu	a0,v0,t0
   16698:	00642821 	addu	a1,v1,a0
   1669c:	0000c021 	move	t8,zero
   166a0:	00a4302b 	sltu	a2,a1,a0
   166a4:	01f87021 	addu	t6,t7,t8
   166a8:	01c64021 	addu	t0,t6,a2
   166ac:	3c010800 	lui	at,0x800
   166b0:	ac250074 	sw	a1,116(at)
   166b4:	3c010800 	lui	at,0x800
   166b8:	ac280070 	sw	t0,112(at)
   166bc:	acec0148 	sw	t4,328(a3)
   166c0:	3c020800 	lui	v0,0x800
   166c4:	8c423bf4 	lw	v0,15348(v0)
   166c8:	a4ea0144 	sh	t2,324(a3)
   166cc:	a4eb0146 	sh	t3,326(a3)
   166d0:	ace2014c 	sw	v0,332(a3)
   166d4:	3c040800 	lui	a0,0x800
   166d8:	90843bf1 	lbu	a0,15345(a0)
   166dc:	3c038008 	lui	v1,0x8008
   166e0:	a0e40152 	sb	a0,338(a3)
   166e4:	ace90154 	sw	t1,340(a3)
   166e8:	a4ed0158 	sh	t5,344(a3)
   166ec:	346d0080 	ori	t5,v1,0x80
   166f0:	91ac004c 	lbu	t4,76(t5)
   166f4:	3c091000 	lui	t1,0x1000
   166f8:	a0ec016d 	sb	t4,365(a3)
   166fc:	03e00008 	jr	ra
   16700:	ace90178 	sw	t1,376(a3)
   16704:	8cac0e1c 	lw	t4,3612(a1)
   16708:	3c0b0800 	lui	t3,0x800
   1670c:	8d6b3bd4 	lw	t3,15316(t3)
   16710:	94aa0e16 	lhu	t2,3606(a1)
   16714:	94ae0e14 	lhu	t6,3604(a1)
   16718:	01666821 	addu	t5,t3,a2
   1671c:	314bffff 	andi	t3,t2,0xffff
   16720:	0a000dcd 	j	0x8003734
   16724:	31caffff 	andi	t2,t6,0xffff
   16728:	3c048000 	lui	a0,0x8000
   1672c:	34830a00 	ori	v1,a0,0xa00
   16730:	9065003c 	lbu	a1,60(v1)
   16734:	30a20020 	andi	v0,a1,0x20
   16738:	1040002b 	beqz	v0,0x167e8
   1673c:	00000000 	nop
   16740:	00005821 	move	t3,zero
   16744:	00005021 	move	t2,zero
   16748:	00004821 	move	t1,zero
   1674c:	3c088000 	lui	t0,0x8000
   16750:	35040070 	ori	a0,t0,0x70
   16754:	8c880000 	lw	t0,0(a0)
   16758:	3c078000 	lui	a3,0x8000
   1675c:	af880024 	sw	t0,36(gp)
   16760:	8cec0178 	lw	t4,376(a3)
   16764:	0580fffe 	bltz	t4,0x16760
   16768:	34ee0070 	ori	t6,a3,0x70
   1676c:	8dcd0000 	lw	t5,0(t6)
   16770:	3c050800 	lui	a1,0x800
   16774:	8ca50074 	lw	a1,116(a1)
   16778:	3c040800 	lui	a0,0x800
   1677c:	8c840070 	lw	a0,112(a0)
   16780:	01a86023 	subu	t4,t5,t0
   16784:	00acc021 	addu	t8,a1,t4
   16788:	00001021 	move	v0,zero
   1678c:	030c302b 	sltu	a2,t8,t4
   16790:	0082c821 	addu	t9,a0,v0
   16794:	03267821 	addu	t7,t9,a2
   16798:	3c010800 	lui	at,0x800
   1679c:	ac380074 	sw	t8,116(at)
   167a0:	3c010800 	lui	at,0x800
   167a4:	ac2f0070 	sw	t7,112(at)
   167a8:	aceb0148 	sw	t3,328(a3)
   167ac:	3c0e0800 	lui	t6,0x800
   167b0:	8dce3bf4 	lw	t6,15348(t6)
   167b4:	240dff91 	li	t5,-111
   167b8:	240b0040 	li	t3,64
   167bc:	a4e90144 	sh	t1,324(a3)
   167c0:	a4ea0146 	sh	t2,326(a3)
   167c4:	acee014c 	sw	t6,332(a3)
   167c8:	a0ed0152 	sb	t5,338(a3)
   167cc:	aceb0154 	sw	t3,340(a3)
   167d0:	a4e00158 	sh	zero,344(a3)
   167d4:	90ea0109 	lbu	t2,265(a3)
   167d8:	3c091000 	lui	t1,0x1000
   167dc:	a0ea016d 	sb	t2,365(a3)
   167e0:	03e00008 	jr	ra
   167e4:	ace90178 	sw	t1,376(a3)
   167e8:	8c8b0e18 	lw	t3,3608(a0)
   167ec:	94870e12 	lhu	a3,3602(a0)
   167f0:	94860e10 	lhu	a2,3600(a0)
   167f4:	30eaffff 	andi	t2,a3,0xffff
   167f8:	0a000e08 	j	0x8003820
   167fc:	30c9ffff 	andi	t1,a2,0xffff
   16800:	3c048000 	lui	a0,0x8000
   16804:	34830a00 	ori	v1,a0,0xa00
   16808:	9065003c 	lbu	a1,60(v1)
   1680c:	30a20020 	andi	v0,a1,0x20
   16810:	10400039 	beqz	v0,0x168f8
   16814:	27bdfff8 	addiu	sp,sp,-8
   16818:	240c0001 	li	t4,1
   1681c:	00005021 	move	t2,zero
   16820:	240b0001 	li	t3,1
   16824:	3c088000 	lui	t0,0x8000
   16828:	35040070 	ori	a0,t0,0x70
   1682c:	8c890000 	lw	t1,0(a0)
   16830:	3c088000 	lui	t0,0x8000
   16834:	af890024 	sw	t1,36(gp)
   16838:	8d0d0178 	lw	t5,376(t0)
   1683c:	05a0fffe 	bltz	t5,0x16838
   16840:	350e0070 	ori	t6,t0,0x70
   16844:	8dc70000 	lw	a3,0(t6)
   16848:	3c050800 	lui	a1,0x800
   1684c:	8ca50074 	lw	a1,116(a1)
   16850:	3c040800 	lui	a0,0x800
   16854:	8c840070 	lw	a0,112(a0)
   16858:	00e96823 	subu	t5,a3,t1
   1685c:	00adc021 	addu	t8,a1,t5
   16860:	00001021 	move	v0,zero
   16864:	030d302b 	sltu	a2,t8,t5
   16868:	0082c821 	addu	t9,a0,v0
   1686c:	03267821 	addu	t7,t9,a2
   16870:	3c010800 	lui	at,0x800
   16874:	ac380074 	sw	t8,116(at)
   16878:	3c010800 	lui	at,0x800
   1687c:	ac2f0070 	sw	t7,112(at)
   16880:	91090109 	lbu	t1,265(t0)
   16884:	3c0e0800 	lui	t6,0x800
   16888:	91ce3c31 	lbu	t6,15409(t6)
   1688c:	3c0380ff 	lui	v1,0x80ff
   16890:	a3a90003 	sb	t1,3(sp)
   16894:	8fad0000 	lw	t5,0(sp)
   16898:	31c7007f 	andi	a3,t6,0x7f
   1689c:	3462ffff 	ori	v0,v1,0xffff
   168a0:	01a82025 	or	a0,t5,t0
   168a4:	afa40000 	sw	a0,0(sp)
   168a8:	9106010a 	lbu	a2,266(t0)
   168ac:	a3a00002 	sb	zero,2(sp)
   168b0:	0007ce00 	sll	t9,a3,0x18
   168b4:	a3a60001 	sb	a2,1(sp)
   168b8:	8fa50000 	lw	a1,0(sp)
   168bc:	240e3000 	li	t6,12288
   168c0:	3c091000 	lui	t1,0x1000
   168c4:	00a2c024 	and	t8,a1,v0
   168c8:	03197825 	or	t7,t8,t9
   168cc:	ad0f014c 	sw	t7,332(t0)
   168d0:	27bd0008 	addiu	sp,sp,8
   168d4:	ad0e0154 	sw	t6,340(t0)
   168d8:	a5000158 	sh	zero,344(t0)
   168dc:	ad0c0148 	sw	t4,328(t0)
   168e0:	a50a0144 	sh	t2,324(t0)
   168e4:	240aff80 	li	t2,-128
   168e8:	a50b0146 	sh	t3,326(t0)
   168ec:	a10a0152 	sb	t2,338(t0)
   168f0:	03e00008 	jr	ra
   168f4:	ad090178 	sw	t1,376(t0)
   168f8:	8c8c0e18 	lw	t4,3608(a0)
   168fc:	94870e12 	lhu	a3,3602(a0)
   16900:	94860e10 	lhu	a2,3600(a0)
   16904:	30ebffff 	andi	t3,a3,0xffff
   16908:	0a000e3e 	j	0x80038f8
   1690c:	30caffff 	andi	t2,a2,0xffff
   16910:	27bdffe8 	addiu	sp,sp,-24
   16914:	afb00010 	sw	s0,16(sp)
   16918:	3c108000 	lui	s0,0x8000
   1691c:	afbf0014 	sw	ra,20(sp)
   16920:	36180a00 	ori	t8,s0,0xa00
   16924:	970f0032 	lhu	t7,50(t8)
   16928:	0e000ad5 	jal	0x8002b54
   1692c:	31e43fff 	andi	a0,t7,0x3fff
   16930:	8e0e0100 	lw	t6,256(s0)
   16934:	240dff80 	li	t5,-128
   16938:	3c042000 	lui	a0,0x2000
   1693c:	01c25821 	addu	t3,t6,v0
   16940:	016d6024 	and	t4,t3,t5
   16944:	000c4940 	sll	t1,t4,0x5
   16948:	316a007f 	andi	t2,t3,0x7f
   1694c:	012a4025 	or	t0,t1,t2
   16950:	01043825 	or	a3,t0,a0
   16954:	3c048008 	lui	a0,0x8008
   16958:	ae070830 	sw	a3,2096(s0)
   1695c:	34860080 	ori	a2,a0,0x80
   16960:	90c50068 	lbu	a1,104(a2)
   16964:	24030002 	li	v1,2
   16968:	30a200ff 	andi	v0,a1,0xff
   1696c:	10430004 	beq	v0,v1,0x16980
   16970:	8f9f000c 	lw	ra,12(gp)
   16974:	8f990010 	lw	t9,16(gp)
   16978:	ac9f0068 	sw	ra,104(a0)
   1697c:	ac990064 	sw	t9,100(a0)
   16980:	8fbf0014 	lw	ra,20(sp)
   16984:	8fb00010 	lw	s0,16(sp)
   16988:	03e00008 	jr	ra
   1698c:	27bd0018 	addiu	sp,sp,24
   16990:	3c0a0800 	lui	t2,0x800
   16994:	254a37fc 	addiu	t2,t2,14332
   16998:	3c090800 	lui	t1,0x800
   1699c:	252938d4 	addiu	t1,t1,14548
   169a0:	3c080800 	lui	t0,0x800
   169a4:	25082c74 	addiu	t0,t0,11380
   169a8:	3c070800 	lui	a3,0x800
   169ac:	24e739e4 	addiu	a3,a3,14820
   169b0:	3c060800 	lui	a2,0x800
   169b4:	24c63638 	addiu	a2,a2,13880
   169b8:	3c050800 	lui	a1,0x800
   169bc:	24a53390 	addiu	a1,a1,13200
   169c0:	3c040800 	lui	a0,0x800
   169c4:	24842fa0 	addiu	a0,a0,12192
   169c8:	3c030800 	lui	v1,0x800
   169cc:	246336ec 	addiu	v1,v1,14060
   169d0:	3c020800 	lui	v0,0x800
   169d4:	24423488 	addiu	v0,v0,13448
   169d8:	3c010800 	lui	at,0x800
   169dc:	ac2a3dfc 	sw	t2,15868(at)
   169e0:	3c010800 	lui	at,0x800
   169e4:	ac293df8 	sw	t1,15864(at)
   169e8:	3c010800 	lui	at,0x800
   169ec:	ac283df4 	sw	t0,15860(at)
   169f0:	3c010800 	lui	at,0x800
   169f4:	ac273e00 	sw	a3,15872(at)
   169f8:	3c010800 	lui	at,0x800
   169fc:	ac263e10 	sw	a2,15888(at)
   16a00:	3c010800 	lui	at,0x800
   16a04:	ac253e08 	sw	a1,15880(at)
   16a08:	3c010800 	lui	at,0x800
   16a0c:	ac243e04 	sw	a0,15876(at)
   16a10:	3c010800 	lui	at,0x800
   16a14:	ac233e14 	sw	v1,15892(at)
   16a18:	3c010800 	lui	at,0x800
   16a1c:	ac223e0c 	sw	v0,15884(at)
   16a20:	03e00008 	jr	ra
   16a24:	00000000 	nop
   16a28:	80000940 	lb	zero,2368(zero)
   16a2c:	80000900 	lb	zero,2304(zero)
   16a30:	80080100 	lb	t0,256(zero)
   16a34:	80080080 	lb	t0,128(zero)
   16a38:	80080000 	lb	t0,0(zero)
   16a3c:	800e0000 	lb	t6,0(zero)
   16a40:	80080080 	lb	t0,128(zero)
   16a44:	80080000 	lb	t0,0(zero)
   16a48:	80000a80 	lb	zero,2688(zero)
   16a4c:	80000a00 	lb	zero,2560(zero)
   16a50:	80000980 	lb	zero,2432(zero)
   16a54:	80000900 	lb	zero,2304(zero)