../git/linux-firmware/./ar3k/AthrBT_0x41020000.dfu:     file format binary


Disassembly of section .data:

00000000 <.data>:
       0:	5b4800        	excw
       3:	600000        	neg	a0, a0
       6:	009b      	addi.n	a0, a0, 9
       8:	7af8      	l32i.n	a15, a10, 28
       a:	350000        	extui	a0, a0, 16, 4
       d:	0d75a5        	excw
      10:	000004        	excw
	...
      1f:	600000        	neg	a0, a0
      22:	009b      	addi.n	a0, a0, 9
	...
      2c:	5b4e40        	excw
      2f:	736c00        	excw
      32:	005a      	add.n	a0, a0, a5
      34:	604c      	movi.n	a0, 70
      36:	009b      	addi.n	a0, a0, 9
      38:	4e3c      	movi.n	a14, 52
      3a:	005b      	addi.n	a0, a0, 5
      3c:	c2f8      	l32i.n	a15, a2, 48
      3e:	005b      	addi.n	a0, a0, 5
      40:	8308      	l32i.n	a0, a3, 32
      42:	005a      	add.n	a0, a0, a5
      44:	5a6330        	excw
      47:	541000        	extui	a1, a0, 0, 6
      4a:	005b      	addi.n	a0, a0, 5
      4c:	5a1490        	excw
      4f:	608c00        	excw
      52:	009b      	addi.n	a0, a0, 9
      54:	4cf8      	l32i.n	a15, a12, 16
      56:	005b      	addi.n	a0, a0, 5
      58:	5a0214        	excw
      5b:	209800        	or	a9, a8, a0
      5e:	005a      	add.n	a0, a0, a5
      60:	5ec837        	bnall	a8, a3, 0xc2
      63:	0c03a1        	l32r	a10, 0xfffc3070
      66:	440000        	extui	a0, a0, 0, 5
      69:	7e          	.byte 0x7e
      6a:	005a      	add.n	a0, a0, a5
      6c:	030600        	excw
      6f:	74ec00        	extui	a14, a0, 12, 8
      72:	005a      	add.n	a0, a0, a5
      74:	5a5f30        	excw
      77:	541400        	extui	a1, a0, 4, 6
      7a:	005b      	addi.n	a0, a0, 5
      7c:	a758      	l32i.n	a5, a7, 40
      7e:	005a      	add.n	a0, a0, a5
      80:	a4d8      	l32i.n	a13, a4, 40
      82:	005a      	add.n	a0, a0, a5
      84:	5a0200        	excw
      87:	020800        	excw
      8a:	005a      	add.n	a0, a0, a5
      8c:	a558      	l32i.n	a5, a5, 40
      8e:	005a      	add.n	a0, a0, a5
      90:	020a      	add.n	a0, a2, a0
      92:	005a      	add.n	a0, a0, a5
      94:	0209      	s32i.n	a0, a2, 0
      96:	005a      	add.n	a0, a0, a5
      98:	a3d8      	l32i.n	a13, a3, 40
      9a:	005a      	add.n	a0, a0, a5
      9c:	5b5400        	excw
      9f:	300400        	xor	a0, a4, a0
      a2:	d00cf3        	excw
      a5:	005aa2        	s16i	a10, a10, 0
      a8:	001e00        	excw
      ab:	129000        	excw
      ae:	005a      	add.n	a0, a0, a5
      b0:	a5d8      	l32i.n	a13, a5, 40
      b2:	005a      	add.n	a0, a0, a5
      b4:	f30006        	j	0xffffccb8
      b7:	030c      	movi.n	a3, 0
      b9:	0cf330        	excw
      bc:	5a0114        	excw
      bf:	61e000        	excw
      c2:	009b      	addi.n	a0, a0, 9
      c4:	9b6224        	excw
      c7:	632800        	excw
      ca:	009b      	addi.n	a0, a0, 9
      cc:	9b63c0        	excw
      cf:	63d400        	excw
      d2:	009b      	addi.n	a0, a0, 9
      d4:	9b6720        	excw
      d7:	60b400        	excw
      da:	009b      	addi.n	a0, a0, 9
      dc:	9b63f4        	excw
      df:	678800        	excw
      e2:	009b      	addi.n	a0, a0, 9
      e4:	5a1600        	excw
      e7:	658c00        	extui	a8, a0, 28, 7
      ea:	005a      	add.n	a0, a0, a5
      ec:	5a6354        	excw
      ef:	6d5400        	excw
      f2:	005a      	add.n	a0, a0, a5
      f4:	5438      	l32i.n	a3, a4, 20
      f6:	005b      	addi.n	a0, a0, 5
      f8:	9b69e3        	excw
      fb:	ffff00        	excw
      fe:	ff          	.byte 0xff
      ff:	fe          	.byte 0xfe
     100:	ff          	.byte 0xff
     101:	ff          	.byte 0xff
     102:	fe          	.byte 0xfe
     103:	ff          	.byte 0xff
     104:	010000        	slli	a0, a0, 32
     107:	dfff00        	excw
     10a:	ff          	.byte 0xff
     10b:	ff          	.byte 0xff
     10c:	007530        	excw
     10f:	4d0000        	excw
     112:	005b      	addi.n	a0, a0, 5
     114:	5b4d20        	excw
     117:	180000        	excw
     11a:	005a      	add.n	a0, a0, a5
     11c:	4d3c      	movi.n	a13, 52
     11e:	005b      	addi.n	a0, a0, 5
     120:	5a7154        	excw
     123:	71d400        	excw
     126:	005a      	add.n	a0, a0, a5
     128:	5a1c00        	excw
     12b:	4d5c00        	excw
     12e:	005b      	addi.n	a0, a0, 5
     130:	5a7054        	excw
     133:	4d7400        	excw
     136:	005b      	addi.n	a0, a0, 5
     138:	5a2384        	excw
     13b:	4dac00        	excw
     13e:	005b      	addi.n	a0, a0, 5
     140:	4d8c      	beqz.n	a13, 0x148
     142:	005b      	addi.n	a0, a0, 5
     144:	5b4dd0        	excw
     147:	f00000        	subx8	a0, a0, a0
     14a:	e40000        	extui	a0, a0, 0, 15
     14d:	2f          	.byte 0x2f
     14e:	005a      	add.n	a0, a0, a5
     150:	5a0910        	excw
     153:	ffdf00        	excw
     156:	ff0000        	excw
     159:	ff          	.byte 0xff
     15a:	fffc      	bnez.n	a15, 0x19d
     15c:	ff          	.byte 0xff
     15d:	fffff7        	bbsi	a15, 31, 0x160
     160:	ff          	.byte 0xff
     161:	ff          	.byte 0xff
     162:	ff          	.byte 0xff
     163:	bf          	.byte 0xbf
     164:	ff          	.byte 0xff
     165:	ff          	.byte 0xff
     166:	fffd      	excw
     168:	71f8      	l32i.n	a15, a1, 28
     16a:	009b      	addi.n	a0, a0, 9
     16c:	9b7330        	excw
     16f:	717c00        	excw
     172:	009b      	addi.n	a0, a0, 9
     174:	9b71a4        	excw
     177:	723c00        	excw
     17a:	009b      	addi.n	a0, a0, 9
     17c:	73a8      	l32i.n	a10, a3, 28
     17e:	009b      	addi.n	a0, a0, 9
     180:	6828      	l32i.n	a2, a8, 24
     182:	009b      	addi.n	a0, a0, 9
     184:	70ac      	beqz.n	a0, 0x1af
     186:	009b      	addi.n	a0, a0, 9
     188:	69bc      	beqz.n	a9, 0x1c2
     18a:	009b      	addi.n	a0, a0, 9
     18c:	73ec      	bnez.n	a3, 0x1b7
     18e:	009b      	addi.n	a0, a0, 9
     190:	9b75a0        	excw
     193:	306000        	xor	a6, a0, a0
     196:	005a      	add.n	a0, a0, a5
     198:	3788      	l32i.n	a8, a7, 12
     19a:	005a      	add.n	a0, a0, a5
     19c:	004000        	break	0, 0
     19f:	4cf800        	excw
     1a2:	005b      	addi.n	a0, a0, 5
     1a4:	5a5ae0        	excw
     1a7:	38fa00        	excw
     1aa:	005a      	add.n	a0, a0, a5
     1ac:	5a5660        	excw
     1af:	37d400        	excw
     1b2:	005a      	add.n	a0, a0, a5
     1b4:	200000        	or	a0, a0, a0
     1b7:	000000        	ill
     1ba:	000040        	excw
     1bd:	fe          	.byte 0xfe
     1be:	fc0000        	excw
     1c1:	5a38      	l32i.n	a3, a10, 20
     1c3:	31e000        	srai	a14, a0, 16
     1c6:	005a      	add.n	a0, a0, a5
     1c8:	000000        	ill
     1cb:	545020        	extui	a5, a2, 0, 6
     1ce:	005b      	addi.n	a0, a0, 5
     1d0:	5a5760        	excw
     1d3:	a1f800        	sll	a15, a8
     1d6:	005a      	add.n	a0, a0, a5
     1d8:	5a8090        	excw
     1db:	0b1000        	excw
     1de:	005a      	add.n	a0, a0, a5
     1e0:	5b5452        	s16i	a5, a4, 182
     1e3:	ffff00        	excw
     1e6:	ff          	.byte 0xff
     1e7:	df          	.byte 0xdf
     1e8:	3a2d      	excw
     1ea:	005a      	add.n	a0, a0, a5
     1ec:	5a0f10        	excw
     1ef:	392c00        	excw
     1f2:	005a      	add.n	a0, a0, a5
     1f4:	000000        	ill
     1f7:	396040        	excw
     1fa:	005a      	add.n	a0, a0, a5
     1fc:	0918      	l32i.n	a1, a9, 0
     1fe:	080000        	excw
     201:	5a9b      	addi.n	a5, a10, 9
     203:	326000        	excw
     206:	005a      	add.n	a0, a0, a5
     208:	5a38e0        	excw
     20b:	080000        	excw
     20e:	c80000        	excw
     211:	5a9a      	add.n	a5, a10, a9
     213:	020000        	excw
     216:	f80001        	l32r	a0, 0xffffe218
     219:	9f          	.byte 0x9f
     21a:	005a      	add.n	a0, a0, a5
     21c:	5a9a70        	excw
     21f:	9e7800        	excw
     222:	005a      	add.n	a0, a0, a5
     224:	5a5a60        	excw
     227:	0c8000        	excw
     22a:	ff0000        	excw
     22d:	ff          	.byte 0xff
     22e:	ff          	.byte 0xff
     22f:	ffff03        	excw
     232:	000000        	ill
     235:	000380        	ret
     238:	e00000        	subx4	a0, a0, a0
     23b:	1f          	.byte 0x1f
     23c:	000000        	ill
     23f:	200060        	or	a0, a0, a6
     242:	200000        	or	a0, a0, a0
     245:	5a7d      	excw
     247:	ffff00        	excw
     24a:	ff          	.byte 0xff
     24b:	fffe07        	bbsi	a14, 16, 0x24e
     24e:	ff          	.byte 0xff
     24f:	fc0007        	bnone	a0, a0, 0x24f
     252:	ff          	.byte 0xff
     253:	300003        	excw
     256:	000000        	ill
     259:	800000        	add	a0, a0, a0
     25c:	03c000        	rsr.depc	a0
     25f:	c00000        	sub	a0, a0, a0
     262:	ff          	.byte 0xff
     263:	1f          	.byte 0x1f
     264:	0f0000        	excw
     267:	000000        	ill
     26a:	000010        	excw
     26d:	000080        	ret
     270:	ff          	.byte 0xff
     271:	ff          	.byte 0xff
     272:	ef          	.byte 0xef
     273:	ff          	.byte 0xff
     274:	003fc0        	excw
     277:	000000        	ill
     27a:	0ffc      	bnez.n	a15, 0x2ae
     27c:	5a30e0        	excw
     27f:	3a2e00        	excw
     282:	005a      	add.n	a0, a0, a5
     284:	5b4ce4        	excw
     287:	811000        	src	a1, a0, a0
     28a:	005a      	add.n	a0, a0, a5
     28c:	3f          	.byte 0x3f
     28d:	ffffc0        	excw
     290:	1c0000        	excw
     293:	3ff000        	excw
     296:	000000        	ill
     299:	008000        	excw
     29c:	053000        	extui	a3, a0, 16, 1
     29f:	253000        	extui	a3, a0, 16, 3
     2a2:	005a      	add.n	a0, a0, a5
     2a4:	5a3160        	excw
     2a7:	c00000        	sub	a0, a0, a0
     2aa:	000000        	ill
     2ad:	1e0000        	excw
     2b0:	5b5406        	j	0x17004
     2b3:	5e0000        	excw
     2b6:	210001        	l32r	a0, 0xfffc86b8
     2b9:	5a39      	s32i.n	a3, a10, 20
     2bb:	319a00        	srai	a9, a0, 26
     2be:	005a      	add.n	a0, a0, a5
     2c0:	180e00        	excw
     2c3:	390e00        	excw
     2c6:	005a      	add.n	a0, a0, a5
     2c8:	5a59e0        	excw
     2cb:	09c800        	excw
     2ce:	130000        	excw
     2d1:	5a39      	s32i.n	a3, a10, 20
     2d3:	2d1000        	excw
     2d6:	005a      	add.n	a0, a0, a5
     2d8:	0698      	l32i.n	a9, a6, 0
     2da:	005a      	add.n	a0, a0, a5
     2dc:	5a31c7        	bltu	a1, a12, 0x33a
     2df:	56e000        	excw
     2e2:	005a      	add.n	a0, a0, a5
     2e4:	5a8290        	excw
     2e7:	22fc00        	excw
     2ea:	005a      	add.n	a0, a0, a5
     2ec:	5a5c60        	excw
     2ef:	56f600        	excw
     2f2:	005b      	addi.n	a0, a0, 5
     2f4:	5a5b60        	excw
     2f7:	5be000        	excw
     2fa:	005a      	add.n	a0, a0, a5
     2fc:	ff          	.byte 0xff
     2fd:	ff          	.byte 0xff
     2fe:	00fe03        	excw
     301:	01fc00        	slli	a15, a12, 32
     304:	5b5704        	excw
     307:	3a4e00        	excw
     30a:	005a      	add.n	a0, a0, a5
     30c:	9bed      	excw
     30e:	009b      	addi.n	a0, a0, 9
     310:	361c      	movi.n	a6, 19
     312:	005a      	add.n	a0, a0, a5
     314:	016600        	slli	a6, a6, 32
     317:	bfff00        	excw
     31a:	ff          	.byte 0xff
     31b:	ff          	.byte 0xff
     31c:	ff          	.byte 0xff
     31d:	ef          	.byte 0xef
     31e:	ff          	.byte 0xff
     31f:	ff          	.byte 0xff
     320:	319b      	addi.n	a3, a1, 9
     322:	005a      	add.n	a0, a0, a5
     324:	38fb      	addi.n	a3, a8, 15
     326:	005a      	add.n	a0, a0, a5
     328:	5a1160        	excw
     32b:	7bec00        	excw
     32e:	009b      	addi.n	a0, a0, 9
     330:	9b9ae0        	excw
     333:	79d000        	excw
     336:	009b      	addi.n	a0, a0, 9
     338:	9b7980        	excw
     33b:	8a9c00        	excw
     33e:	009b      	addi.n	a0, a0, 9
     340:	9b9a40        	excw
     343:	79fc00        	excw
     346:	009b      	addi.n	a0, a0, 9
     348:	90bc      	beqz.n	a0, 0x385
     34a:	009b      	addi.n	a0, a0, 9
     34c:	9f3c      	movi.n	a15, 57
     34e:	009b      	addi.n	a0, a0, 9
     350:	79dc      	bnez.n	a9, 0x36b
     352:	009b      	addi.n	a0, a0, 9
     354:	9b8a54        	excw
     357:	993c00        	excw
     35a:	009b      	addi.n	a0, a0, 9
     35c:	9b8a30        	excw
     35f:	8a8000        	excw
     362:	009b      	addi.n	a0, a0, 9
     364:	9b98e4        	excw
     367:	048c00        	extui	a8, a0, 12, 1
     36a:	510001        	l32r	a0, 0xfffd476c
     36d:	5a3a      	add.n	a5, a10, a3
     36f:	050c00        	extui	a0, a0, 28, 1
     372:	100001        	l32r	a0, 0xfffc4374
     375:	000105        	call0	0x388
     378:	0f          	.byte 0xf
     379:	000027        	bnone	a0, a2, 0x37d
     37c:	5a9f14        	excw
     37f:	e00000        	subx4	a0, a0, a0
     382:	ff          	.byte 0xff
     383:	ff          	.byte 0xff
     384:	9ef8      	l32i.n	a15, a14, 36
     386:	005a      	add.n	a0, a0, a5
     388:	000000        	ill
     38b:	ff          	.byte 0xff
     38c:	001000        	excw
     38f:	9c7800        	excw
     392:	005a      	add.n	a0, a0, a5
     394:	9cf8      	l32i.n	a15, a12, 36
     396:	005a      	add.n	a0, a0, a5
     398:	5a9d84        	excw
     39b:	38f900        	excw
     39e:	005a      	add.n	a0, a0, a5
     3a0:	4de8      	l32i.n	a14, a13, 16
     3a2:	005b      	addi.n	a0, a0, 5
     3a4:	5b4df0        	excw
     3a7:	4df800        	excw
     3aa:	005b      	addi.n	a0, a0, 5
     3ac:	5b4e00        	excw
     3af:	4e0800        	excw
     3b2:	005b      	addi.n	a0, a0, 5
     3b4:	5a3a50        	excw
     3b7:	3a0000        	excw
     3ba:	005a      	add.n	a0, a0, a5
     3bc:	5b5470        	excw
     3bf:	3a0c00        	excw
     3c2:	005a      	add.n	a0, a0, a5
     3c4:	3908      	l32i.n	a0, a9, 12
     3c6:	005a      	add.n	a0, a0, a5
     3c8:	ff0000        	excw
     3cb:	ff          	.byte 0xff
     3cc:	5b5404        	excw
     3cf:	000000        	ill
     3d2:	781000        	excw
     3d5:	005aa0        	excw
     3d8:	5a7f90        	excw
     3db:	56a000        	excw
     3de:	005b      	addi.n	a0, a0, 5
     3e0:	4cf8      	l32i.n	a15, a12, 16
     3e2:	005b      	addi.n	a0, a0, 5
     3e4:	5b54a0        	excw
     3e7:	a27800        	excw
     3ea:	005a      	add.n	a0, a0, a5
     3ec:	9d78      	l32i.n	a7, a13, 36
     3ee:	005a      	add.n	a0, a0, a5
     3f0:	5a9c94        	excw
     3f3:	9e0000        	excw
     3f6:	000000        	ill
     3f9:	be          	.byte 0xbe
     3fa:	840001        	l32r	a0, 0xfffe13fc
     3fd:	5a5c      	movi.n	a10, 85
     3ff:	9f7800        	excw
     402:	005a      	add.n	a0, a0, a5
     404:	5b4e10        	excw
     407:	4e2400        	excw
     40a:	005b      	addi.n	a0, a0, 5
     40c:	9a08      	l32i.n	a0, a10, 36
     40e:	005a      	add.n	a0, a0, a5
     410:	9ba090        	excw
     413:	a68800        	excw
     416:	009b      	addi.n	a0, a0, 9
     418:	aa8c      	beqz.n	a10, 0x426
     41a:	009b      	addi.n	a0, a0, 9
     41c:	a118      	l32i.n	a1, a1, 40
     41e:	009b      	addi.n	a0, a0, 9
     420:	9ba120        	excw
     423:	a3f800        	movltz	a15, a8, a0
     426:	009b      	addi.n	a0, a0, 9
     428:	9ba400        	excw
     42b:	a49c00        	extui	a9, a0, 12, 11
     42e:	009b      	addi.n	a0, a0, 9
     430:	a6bc      	beqz.n	a6, 0x46e
     432:	009b      	addi.n	a0, a0, 9
     434:	9ba7f0        	excw
     437:	a8fc00        	excw
     43a:	009b      	addi.n	a0, a0, 9
     43c:	9baea4        	excw
     43f:	b07c00        	addx8	a7, a12, a0
     442:	009b      	addi.n	a0, a0, 9
     444:	9bb120        	excw
     447:	b12800        	excw
     44a:	009b      	addi.n	a0, a0, 9
     44c:	ab08      	l32i.n	a0, a11, 40
     44e:	009b      	addi.n	a0, a0, 9
     450:	acc8      	l32i.n	a12, a12, 40
     452:	009b      	addi.n	a0, a0, 9
     454:	5b56f0        	excw
     457:	cc2600        	excw
     45a:	270000        	excw
     45d:	00cc      	bnez.n	a0, 0x461
     45f:	cc2800        	excw
     462:	290000        	excw
     465:	00cc      	bnez.n	a0, 0x469
     467:	cc3000        	excw
     46a:	d80000        	excw
     46d:	009bb5        	excw
     470:	fcac      	beqz.n	a12, 0x4a3
     472:	140000        	extui	a0, a0, 0, 2
     475:	005b57        	bbc	a11, a5, 0x479
     478:	5ddc      	bnez.n	a13, 0x491
     47a:	005a      	add.n	a0, a0, a5
     47c:	5e5c      	movi.n	a14, 85
     47e:	005a      	add.n	a0, a0, a5
     480:	5408      	l32i.n	a0, a4, 20
     482:	005b      	addi.n	a0, a0, 5
     484:	5a3a30        	excw
     487:	125000        	excw
     48a:	005a      	add.n	a0, a0, a5
     48c:	b7cc      	bnez.n	a7, 0x49b
     48e:	009b      	addi.n	a0, a0, 9
     490:	b848      	l32i.n	a4, a8, 44
     492:	009b      	addi.n	a0, a0, 9
     494:	b87c      	movi.n	a8, -5
     496:	009b      	addi.n	a0, a0, 9
     498:	4cf8      	l32i.n	a15, a12, 16
     49a:	005b      	addi.n	a0, a0, 5
     49c:	755c      	movi.n	a5, 87
     49e:	005a      	add.n	a0, a0, a5
     4a0:	d40000        	extui	a0, a0, 0, 14
     4a3:	320030        	excw
     4a6:	1c0001        	l32r	a0, 0xfffc74a8
     4a9:	005b57        	bbc	a11, a5, 0x4ad
     4ac:	4cf8      	l32i.n	a15, a12, 16
     4ae:	005b      	addi.n	a0, a0, 5
     4b0:	5a7de0        	excw
     4b3:	570800        	excw
     4b6:	005b      	addi.n	a0, a0, 5
     4b8:	bc4c      	movi.n	a12, 75
     4ba:	009b      	addi.n	a0, a0, 9
     4bc:	9bbcb0        	excw
     4bf:	bda000        	excw
     4c2:	009b      	addi.n	a0, a0, 9
     4c4:	00fc81        	l32r	a8, 0xfffc08b4
     4c7:	201e00        	or	a1, a14, a0
     4ca:	f80000        	excw
     4cd:	5b4c      	movi.n	a11, 69
     4cf:	2fd800        	excw
     4d2:	005a      	add.n	a0, a0, a5
     4d4:	2fdc      	bnez.n	a15, 0x4ea
     4d6:	005a      	add.n	a0, a0, a5
     4d8:	2dec      	bnez.n	a13, 0x4fe
     4da:	005a      	add.n	a0, a0, a5
     4dc:	5a2d90        	excw
     4df:	9e0000        	excw
     4e2:	100001        	l32r	a0, 0xfffc44e4
     4e5:	5a2c      	movi.n	a10, 37
     4e7:	7fff00        	excw
     4ea:	980000        	excw
     4ed:	005a07        	bbc	a10, a0, 0x4f1
     4f0:	9bbe00        	excw
     4f3:	bf4800        	excw
     4f6:	009b      	addi.n	a0, a0, 9
	...
     50c:	535341        	l32r	a4, 0xfffd5258
     50f:	545245        	call0	0x54a34
     512:	4c0000        	excw
     515:	504d      	excw
     517:	5f          	.byte 0x5f
     518:	727245        	call0	0x72c40
     51b:	6f          	.byte 0x6f
     51c:	545f72        	s16i	a7, a15, 168
     51f:	6e6172        	s32i	a7, a1, 0x1b8
     522:	636173        	excw
     525:	6f6974        	excw
     528:	6e          	.byte 0x6e
     529:	5f          	.byte 0x5f
     52a:	6c6f43        	excw
     52d:	696c      	movi.n	a9, -26
     52f:	6f6973        	excw
     532:	6e          	.byte 0x6e
     533:	4d4c00        	excw
     536:	532050        	excw
     539:	746174        	excw
     53c:	207375        	excw
     53f:	203d21        	l32r	a2, 0xfffc8634
     542:	4d5242        	s16i	a4, a2, 154
     545:	555320        	extui	a5, a2, 19, 6
     548:	454343        	excw
     54b:	0a5353        	excw
     54e:	500000        	excw
     551:	636f72        	s32i	a7, a15, 0x18c
     554:	737365        	excw
     557:	5f          	.byte 0x5f
     558:	6d4c      	movi.n	a13, 70
     55a:	415f70        	srli	a5, a7, 15
     55d:	656363        	excw
     560:	657470        	extui	a7, a7, 20, 7
     563:	702064        	excw
     566:	744c      	movi.n	a4, 71
     568:	554e20        	extui	a4, a2, 30, 6
     56b:	4c4c      	movi.n	a12, 68
     56d:	000a      	add.n	a0, a0, a0
     56f:	435300        	excw
     572:	4f          	.byte 0x4f
     573:	522020        	excw
     576:	656a65        	excw
     579:	207463        	excw
     57c:	6e6920        	excw
     57f:	644920        	extui	a4, a2, 9, 7
     582:	656c      	movi.n	a5, -26
     584:	006e20        	rsil	a2, 14
     587:	6f4e00        	excw
     58a:	755320        	extui	a5, a2, 19, 8
     58d:	206863        	excw
     590:	4d4c      	movi.n	a13, 68
     592:	612050        	excw
     595:	636363        	excw
     598:	747065        	excw
     59b:	206465        	excw
     59e:	6e          	.byte 0x6e
     59f:	4d4c00        	excw
     5a2:	412050        	srli	a2, a5, 0
     5a5:	656363        	excw
     5a8:	207470        	or	a7, a4, a7
     5ab:	726f66        	bnei	a15, 6, 0x621
     5ae:	6e7520        	excw
     5b1:	6e6b      	addi.n	a6, a14, 6
     5b3:	6f          	.byte 0x6f
     5b4:	206e77        	bbci	a14, 7, 0x5d8
     5b7:	646d43        	excw
     5ba:	782520        	excw
     5bd:	000a      	add.n	a0, a0, a0
     5bf:	4d4c00        	excw
     5c2:	615f50        	excw
     5c5:	656363        	excw
     5c8:	657470        	extui	a7, a7, 20, 7
     5cb:	665f64        	excw
     5ce:	636e75        	excw
     5d1:	6e5520        	excw
     5d4:	6e6b      	addi.n	a6, a14, 6
     5d6:	6f          	.byte 0x6f
     5d7:	206e77        	bbci	a14, 7, 0x5fb
     5da:	6f          	.byte 0x6f
     5db:	6f6370        	excw
     5de:	0a6564        	excw
     5e1:	000000        	ill
     5e4:	4d4c      	movi.n	a13, 68
     5e6:	615f50        	excw
     5e9:	656363        	excw
     5ec:	657470        	extui	a7, a7, 20, 7
     5ef:	655f64        	excw
     5f2:	7478      	l32i.n	a7, a4, 28
     5f4:	5f          	.byte 0x5f
     5f5:	6e7566        	bnei	a5, 7, 0x667
     5f8:	000a63        	excw
     5fb:	655200        	extui	a5, a0, 18, 7
     5fe:	004e63        	excw
     601:	000000        	ill
     604:	636552        	s32i	a5, a5, 0x18c
     607:	004c      	movi.n	a0, 64
     609:	000000        	ill
     60c:	636552        	s32i	a5, a5, 0x18c
     60f:	000054        	excw
     612:	490000        	excw
     615:	6448      	l32i.n	a4, a4, 24
     617:	000072        	l8ui	a7, a0, 0
     61a:	490000        	excw
     61d:	4d5047        	bbc	a0, a4, 0x66e
     620:	000000        	ill
     623:	480a00        	excw
     626:	252057        	blt	a0, a5, 0x64f
     629:	2078      	l32i.n	a7, a0, 8
     62b:	207825        	excw
     62e:	207825        	excw
     631:	207825        	excw
     634:	000000        	ill
     637:	4e0a00        	excw
     63a:	6f          	.byte 0x6f
     63b:	615620        	excw
     63e:	696c      	movi.n	a9, -26
     640:	672064        	excw
     643:	206d70        	or	a6, a13, a7
     646:	756f66        	bnei	a15, 6, 0x6bf
     649:	6e          	.byte 0x6e
     64a:	000a64        	excw
     64d:	000000        	ill
     650:	5c0000        	excw
     653:	541000        	extui	a1, a0, 0, 6
     656:	005b      	addi.n	a0, a0, 5
     658:	5b5720        	excw
	...
     c13:	00ff00        	excw
     c16:	010000        	slli	a0, a0, 32
     c19:	00ff02        	excw
     c1c:	ff          	.byte 0xff
     c1d:	ff          	.byte 0xff
     c1e:	ff          	.byte 0xff
     c1f:	ff          	.byte 0xff
	...
    1814:	004136        	excw
    1817:	8e06b1        	l32r	a11, 0xfffe5030
    181a:	1ba8      	l32i.n	a10, a11, 4
    181c:	0bb8      	l32i.n	a11, a11, 0
    181e:	12bba7        	bgeu	a11, a10, 0x1834
    1821:	0b9d      	mov.n	a9, a11
    1823:	c0cab0        	sub	a12, a10, a11
    1826:	0a0c      	movi.n	a10, 0
    1828:	cc3b      	addi.n	a12, a12, 3
    182a:	41c2c0        	srli	a12, a12, 2
    182d:	039c76        	excw
    1830:	09a9      	s32i.n	a10, a9, 0
    1832:	994b      	addi.n	a9, a9, 4
    1834:	8e07e1        	l32r	a14, 0xfffe5050
    1837:	8e08d1        	l32r	a13, 0xfffe5058
    183a:	1a6ed2        	s32i	a13, a14, 104
    183d:	057525        	excw
    1840:	017065        	excw
    1843:	000725        	excw
    1846:	03fd65        	excw
    1849:	05bce5        	excw
    184c:	007825        	excw
    184f:	0609a5        	excw
    1852:	05da25        	excw
    1855:	0608a5        	excw
    1858:	060725        	excw
    185b:	054c25        	excw
    185e:	f01d      	excw
    1860:	004136        	excw
    1863:	8e0941        	l32r	a4, 0xfffe5088
    1866:	8e0a51        	l32r	a5, 0xfffe5090
    1869:	0259      	s32i.n	a5, a2, 0
    186b:	0448      	l32i.n	a4, a4, 0
    186d:	0349      	s32i.n	a4, a3, 0
    186f:	f01d      	excw
    1871:	000000        	ill
    1874:	004136        	excw
    1877:	8e0b81        	l32r	a8, 0xfffe50a4
    187a:	1a2882        	l32i	a8, a8, 104
    187d:	02ad      	mov.n	a10, a2
    187f:	0008e0        	excw
    1882:	0add      	mov.n	a13, a10
    1884:	4a9c      	beqz.n	a10, 0x189c
    1886:	239c      	beqz.n	a3, 0x189c
    1888:	bd4b      	addi.n	a11, a13, 4
    188a:	011a22        	l16ui	a2, a10, 2
    188d:	03ad      	mov.n	a10, a3
    188f:	632240        	excw
    1892:	f42020        	extui	a2, a2, 0, 16
    1895:	02cd      	mov.n	a12, a2
    1897:	061025        	excw
    189a:	f01d      	excw
    189c:	020c      	movi.n	a2, 0
    189e:	f01d      	excw
    18a0:	004136        	excw
    18a3:	8e0ca1        	l32r	a10, 0xfffe50d4
    18a6:	8e0d81        	l32r	a8, 0xfffe50dc
    18a9:	493c      	movi.n	a9, 52
    18ab:	0888      	l32i.n	a8, a8, 0
    18ad:	7a99      	s32i.n	a9, a10, 28
    18af:	0008e0        	excw
    18b2:	f01d      	excw
    18b4:	004136        	excw
    18b7:	8e0f21        	l32r	a2, 0xfffe50f4
    18ba:	8e0e31        	l32r	a3, 0xfffe50f4
    18bd:	8e0d81        	l32r	a8, 0xfffe50f4
    18c0:	0348      	l32i.n	a4, a3, 0
    18c2:	0849      	s32i.n	a4, a8, 0
    18c4:	0329      	s32i.n	a2, a3, 0
    18c6:	f01d      	excw
    18c8:	004136        	excw
    18cb:	300392        	l8ui	a9, a3, 48
    18ce:	e8a342        	movi	a4, 0x3e8
    18d1:	398c      	beqz.n	a9, 0x18d8
    18d3:	890b      	addi.n	a8, a9, -1
    18d5:	304382        	s8i	a8, a3, 48
    18d8:	0d0392        	l8ui	a9, a3, 13
    18db:	8e0751        	l32r	a5, 0xfffe50f8
    18de:	349090        	extui	a9, a9, 0, 4
    18e1:	f9dc      	bnez.n	a9, 0x1904
    18e3:	624a      	add.n	a6, a2, a4
    18e5:	1926a2        	l32i	a10, a6, 100
    18e8:	0ab8      	l32i.n	a11, a10, 0
    18ea:	9bcc      	bnez.n	a11, 0x18f7
    18ec:	8e10a1        	l32r	a10, 0xfffe512c
    18ef:	0b0c      	movi.n	a11, 0
    18f1:	98de25        	excw
    18f4:	1926a2        	l32i	a10, a6, 100
    18f7:	152582        	l32i	a8, a5, 84
    18fa:	0008e0        	excw
    18fd:	0a5d      	mov.n	a5, a10
    18ff:	1c0c      	movi.n	a12, 1
    1901:	000f06        	j	0x1941
    1904:	8e1161        	l32r	a6, 0xfffe5148
    1907:	642682        	l32i	a8, a6, 0x190
    190a:	1a0c      	movi.n	a10, 1
    190c:	0008e0        	excw
    190f:	5b2682        	l32i	a8, a6, 0x16c
    1912:	0008e0        	excw
    1915:	0d03b2        	l8ui	a11, a3, 13
    1918:	624a      	add.n	a6, a2, a4
    191a:	34b0b0        	extui	a11, a11, 0, 4
    191d:	1c9ab7        	bne	a10, a11, 0x193d
    1920:	1e26a2        	l32i	a10, a6, 120
    1923:	0ac8      	l32i.n	a12, a10, 0
    1925:	9ccc      	bnez.n	a12, 0x1932
    1927:	8e10a1        	l32r	a10, 0xfffe5168
    192a:	0b0c      	movi.n	a11, 0
    192c:	98da65        	excw
    192f:	1e26a2        	l32i	a10, a6, 120
    1932:	152582        	l32i	a8, a5, 84
    1935:	0008e0        	excw
    1938:	0a5d      	mov.n	a5, a10
    193a:	000046        	j	0x193f
    193d:	050c      	movi.n	a5, 0
    193f:	2c0c      	movi.n	a12, 2
    1941:	8e1271        	l32r	a7, 0xfffe518c
    1944:	0798      	l32i.n	a9, a7, 0
    1946:	8e1361        	l32r	a6, 0xfffe5194
    1949:	e998      	l32i.n	a9, a9, 56
    194b:	7a1967        	beq	a9, a6, 0x19c9
    194e:	0d03b2        	l8ui	a11, a3, 13
    1951:	34b0b0        	extui	a11, a11, 0, 4
    1954:	07eb56        	bnez	a11, 0x19d6
    1957:	0215d2        	l16ui	a13, a5, 4
    195a:	44a1c2        	movi	a12, 0x144
    195d:	ddcb      	addi.n	a13, a13, 12
    195f:	07bcd7        	bgeu	a12, a13, 0x196a
    1962:	8e10a1        	l32r	a10, 0xfffe51a4
    1965:	0b0c      	movi.n	a11, 0
    1967:	98d6e5        	excw
    196a:	0a05e2        	l8ui	a14, a5, 10
    196d:	8e14f1        	l32r	a15, 0xfffe51c0
    1970:	ee5a      	add.n	a14, a14, a5
    1972:	0d0e82        	l8ui	a8, a14, 13
    1975:	0c0ee2        	l8ui	a14, a14, 12
    1978:	118880        	slli	a8, a8, 8
    197b:	ee8a      	add.n	a14, a14, a8
    197d:	f4e0e0        	extui	a14, a14, 0, 16
    1980:	549ef7        	bne	a14, a15, 0x19d8
    1983:	8e1581        	l32r	a8, 0xfffe51d8
    1986:	482882        	l32i	a8, a8, 0x120
    1989:	0008e0        	excw
    198c:	048a16        	beqz	a10, 0x19d8
    198f:	07d8      	l32i.n	a13, a7, 0
    1991:	ed69      	s32i.n	a6, a13, 56
    1993:	0302b2        	l8ui	a11, a2, 3
    1996:	1c0c      	movi.n	a12, 1
    1998:	20bbc0        	or	a11, a11, a12
    199b:	0342b2        	s8i	a11, a2, 3
    199e:	0d03a2        	l8ui	a10, a3, 13
    19a1:	8e16b1        	l32r	a11, 0xfffe51fc
    19a4:	34a0a0        	extui	a10, a10, 0, 4
    19a7:	11aab0        	slli	a10, a10, 5
    19aa:	aaba      	add.n	a10, a10, a11
    19ac:	0020c0        	memw
    19af:	c22a92        	l32i	a9, a10, 0x308
    19b2:	2b0c      	movi.n	a11, 2
    19b4:	2099b0        	or	a9, a9, a11
    19b7:	0020c0        	memw
    19ba:	8e1781        	l32r	a8, 0xfffe5218
    19bd:	c26a92        	s32i	a9, a10, 0x308
    19c0:	a888      	l32i.n	a8, a8, 40
    19c2:	da0c      	movi.n	a10, 13
    19c4:	0008e0        	excw
    19c7:	f01d      	excw
    19c9:	8e1881        	l32r	a8, 0xfffe522c
    19cc:	0cad      	mov.n	a10, a12
    19ce:	382882        	l32i	a8, a8, 224
    19d1:	05bd      	mov.n	a11, a5
    19d3:	0008e0        	excw
    19d6:	f01d      	excw
    19d8:	924a      	add.n	a9, a2, a4
    19da:	980992        	l8ui	a9, a9, 152
    19dd:	f5e927        	bbsi	a9, 2, 0x19d6
    19e0:	05cd      	mov.n	a12, a5
    19e2:	8e0e81        	l32r	a8, 0xfffe521c
    19e5:	ba0c      	movi.n	a10, 11
    19e7:	8888      	l32i.n	a8, a8, 32
    19e9:	00a1b2        	movi	a11, 0x100
    19ec:	0008e0        	excw
    19ef:	f01d      	excw
    19f1:	000000        	ill
    19f4:	004136        	excw
    19f7:	0313c2        	l16ui	a12, a3, 6
    19fa:	8e11d1        	l32r	a13, 0xfffe5240
    19fd:	8cac      	beqz.n	a12, 0x1a29
    19ff:	300482        	l8ui	a8, a4, 48
    1a02:	8e1291        	l32r	a9, 0xfffe524c
    1a05:	88cc      	bnez.n	a8, 0x1a11
    1a07:	0998      	l32i.n	a9, a9, 0
    1a09:	8e13a1        	l32r	a10, 0xfffe5258
    1a0c:	e998      	l32i.n	a9, a9, 56
    1a0e:	1719a7        	beq	a9, a10, 0x1a29
    1a11:	04bd      	mov.n	a11, a4
    1a13:	8e1991        	l32r	a9, 0xfffe5278
    1a16:	04d2a2        	addmi	a10, a2, 0x400
    1a19:	004ac2        	s8i	a12, a10, 0
    1a1c:	0059c2        	s16i	a12, a9, 0
    1a1f:	332d82        	l32i	a8, a13, 204
    1a22:	02ad      	mov.n	a10, a2
    1a24:	0008e0        	excw
    1a27:	f01d      	excw
    1a29:	02ad      	mov.n	a10, a2
    1a2b:	03bd      	mov.n	a11, a3
    1a2d:	1b2d82        	l32i	a8, a13, 108
    1a30:	04cd      	mov.n	a12, a4
    1a32:	0008e0        	excw
    1a35:	f01d      	excw
    1a37:	613600        	excw
    1a3a:	077100        	excw
    1a3d:	8e          	.byte 0x8e
    1a3e:	8e1141        	l32r	a4, 0xfffe5284
    1a41:	090c      	movi.n	a9, 0
    1a43:	0199      	s32i.n	a9, a1, 0
    1a45:	025192        	s16i	a9, a1, 4
    1a48:	0d0382        	l8ui	a8, a3, 13
    1a4b:	58a252        	movi	a5, 0x258
    1a4e:	348080        	extui	a8, a8, 0, 4
    1a51:	18ec      	bnez.n	a8, 0x1a76
    1a53:	152782        	l32i	a8, a7, 84
    1a56:	8e1991        	l32r	a9, 0xfffe52bc
    1a59:	625a      	add.n	a6, a2, a5
    1a5b:	7d26a2        	l32i	a10, a6, 0x1f4
    1a5e:	001952        	l16ui	a5, a9, 0
    1a61:	0008e0        	excw
    1a64:	0abd      	mov.n	a11, a10
    1a66:	162782        	l32i	a8, a7, 88
    1a69:	7d26a2        	l32i	a10, a6, 0x1f4
    1a6c:	0b6d      	mov.n	a6, a11
    1a6e:	0008e0        	excw
    1a71:	1d0c      	movi.n	a13, 1
    1a73:	000e46        	j	0x1ab0
    1a76:	642482        	l32i	a8, a4, 0x190
    1a79:	1a0c      	movi.n	a10, 1
    1a7b:	0008e0        	excw
    1a7e:	5b2482        	l32i	a8, a4, 0x16c
    1a81:	0008e0        	excw
    1a84:	0d0392        	l8ui	a9, a3, 13
    1a87:	349090        	extui	a9, a9, 0, 4
    1a8a:	c09a90        	sub	a9, a10, a9
    1a8d:	07f956        	bnez	a9, 0x1b10
    1a90:	152782        	l32i	a8, a7, 84
    1a93:	625a      	add.n	a6, a2, a5
    1a95:	121352        	l16ui	a5, a3, 36
    1a98:	8226a2        	l32i	a10, a6, 0x208
    1a9b:	0008e0        	excw
    1a9e:	0abd      	mov.n	a11, a10
    1aa0:	162782        	l32i	a8, a7, 88
    1aa3:	8226a2        	l32i	a10, a6, 0x208
    1aa6:	0b6d      	mov.n	a6, a11
    1aa8:	0008e0        	excw
    1aab:	ffffc6        	j	0x1aae
    1aae:	2d0c      	movi.n	a13, 2
    1ab0:	04d516        	beqz	a5, 0x1b01
    1ab3:	06ad      	mov.n	a10, a6
    1ab5:	05cd      	mov.n	a12, a5
    1ab7:	8e1881        	l32r	a8, 0xfffe5318
    1aba:	01bd      	mov.n	a11, a1
    1abc:	3c2882        	l32i	a8, a8, 240
    1abf:	e14b      	addi.n	a14, a1, 4
    1ac1:	0008e0        	excw
    1ac4:	3003c2        	l8ui	a12, a3, 48
    1ac7:	1d1a66        	bnei	a10, 1, 0x1ae8
    1aca:	0c5d      	mov.n	a5, a12
    1acc:	02ad      	mov.n	a10, a2
    1ace:	382482        	l32i	a8, a4, 224
    1ad1:	03bd      	mov.n	a11, a3
    1ad3:	0008e0        	excw
    1ad6:	300392        	l8ui	a9, a3, 48
    1ad9:	19bc      	beqz.n	a9, 0x1b0e
    1adb:	2f1526        	beqi	a5, 1, 0x1b0e
    1ade:	322482        	l32i	a8, a4, 200
    1ae1:	03ad      	mov.n	a10, a3
    1ae3:	0008e0        	excw
    1ae6:	f01d      	excw
    1ae8:	2cac      	beqz.n	a12, 0x1b0e
    1aea:	03ad      	mov.n	a10, a3
    1aec:	01b8      	l32i.n	a11, a1, 0
    1aee:	502482        	l32i	a8, a4, 0x140
    1af1:	0211c2        	l16ui	a12, a1, 4
    1af4:	0008e0        	excw
    1af7:	2d2482        	l32i	a8, a4, 180
    1afa:	03ad      	mov.n	a10, a3
    1afc:	0008e0        	excw
    1aff:	f01d      	excw
    1b01:	300392        	l8ui	a9, a3, 48
    1b04:	698c      	beqz.n	a9, 0x1b0e
    1b06:	322482        	l32i	a8, a4, 200
    1b09:	03ad      	mov.n	a10, a3
    1b0b:	0008e0        	excw
    1b0e:	f01d      	excw
    1b10:	642482        	l32i	a8, a4, 0x190
    1b13:	3a0c      	movi.n	a10, 3
    1b15:	0008e0        	excw
    1b18:	5b2482        	l32i	a8, a4, 0x16c
    1b1b:	0008e0        	excw
    1b1e:	0d0392        	l8ui	a9, a3, 13
    1b21:	060c      	movi.n	a6, 0
    1b23:	349090        	extui	a9, a9, 0, 4
    1b26:	c09a90        	sub	a9, a10, a9
    1b29:	f81956        	bnez	a9, 0x1aae
    1b2c:	3003a2        	l8ui	a10, a3, 48
    1b2f:	fdba16        	beqz	a10, 0x1b0e
    1b32:	322482        	l32i	a8, a4, 200
    1b35:	03ad      	mov.n	a10, a3
    1b37:	0008e0        	excw
    1b3a:	f01d      	excw
    1b3c:	004136        	excw
    1b3f:	44a242        	movi	a4, 0x244
    1b42:	424a      	add.n	a4, a2, a4
    1b44:	702482        	l32i	a8, a4, 0x1c0
    1b47:	8e1151        	l32r	a5, 0xfffe538c
    1b4a:	48cc      	bnez.n	a8, 0x1b52
    1b4c:	1f2582        	l32i	a8, a5, 124
    1b4f:	706482        	s32i	a8, a4, 0x1c0
    1b52:	0d03a2        	l8ui	a10, a3, 13
    1b55:	f90c      	movi.n	a9, 15
    1b57:	0709a7        	bnone	a9, a10, 0x1b62
    1b5a:	8e10a1        	l32r	a10, 0xfffe539c
    1b5d:	0b0c      	movi.n	a11, 0
    1b5f:	98b765        	excw
    1b62:	8e12b1        	l32r	a11, 0xfffe53ac
    1b65:	060c      	movi.n	a6, 0
    1b67:	0bb8      	l32i.n	a11, a11, 0
    1b69:	8e13c1        	l32r	a12, 0xfffe53b8
    1b6c:	ebb8      	l32i.n	a11, a11, 56
    1b6e:	8e0771        	l32r	a7, 0xfffe538c
    1b71:	181bc7        	beq	a11, a12, 0x1b8d
    1b74:	38a1d2        	movi	a13, 0x138
    1b77:	1e0c      	movi.n	a14, 1
    1b79:	bca2c2        	movi	a12, 0x2bc
    1b7c:	22ca      	add.n	a2, a2, a12
    1b7e:	3043e2        	s8i	a14, a3, 48
    1b81:	1e6462        	s32i	a6, a4, 120
    1b84:	824462        	s8i	a6, a4, 130
    1b87:	3e54d2        	s16i	a13, a4, 124
    1b8a:	000646        	j	0x1ba7
    1b8d:	8224a2        	l32i	a10, a4, 0x208
    1b90:	0af8      	l32i.n	a15, a10, 0
    1b92:	9fcc      	bnez.n	a15, 0x1b9f
    1b94:	8e10a1        	l32r	a10, 0xfffe53d4
    1b97:	06bd      	mov.n	a11, a6
    1b99:	98b3a5        	excw
    1b9c:	8224a2        	l32i	a10, a4, 0x208
    1b9f:	152782        	l32i	a8, a7, 84
    1ba2:	0008e0        	excw
    1ba5:	0a2d      	mov.n	a2, a10
    1ba7:	8224a2        	l32i	a10, a4, 0x208
    1baa:	162782        	l32i	a8, a7, 88
    1bad:	02bd      	mov.n	a11, a2
    1baf:	0008e0        	excw
    1bb2:	03ad      	mov.n	a10, a3
    1bb4:	502582        	l32i	a8, a5, 0x140
    1bb7:	8e19c1        	l32r	a12, 0xfffe541c
    1bba:	0a02b2        	l8ui	a11, a2, 10
    1bbd:	001cc2        	l16ui	a12, a12, 0
    1bc0:	bb2a      	add.n	a11, a11, a2
    1bc2:	bbcb      	addi.n	a11, a11, 12
    1bc4:	0008e0        	excw
    1bc7:	03ad      	mov.n	a10, a3
    1bc9:	232582        	l32i	a8, a5, 140
    1bcc:	a369      	s32i.n	a6, a3, 40
    1bce:	0008e0        	excw
    1bd1:	f01d      	excw
    1bd3:	413600        	srli	a3, a0, 6
    1bd6:	192100        	excw
    1bd9:	8e          	.byte 0x8e
    1bda:	5288      	l32i.n	a8, a2, 20
    1bdc:	0008e0        	excw
    1bdf:	090c      	movi.n	a9, 0
    1be1:	005292        	s16i	a9, a2, 0
    1be4:	f01d      	excw
    1be6:	360000        	excw
    1be9:	5c0041        	l32r	a4, 0xfffd8bec
    1bec:	b109      	s32i.n	a0, a1, 44
    1bee:	8e19      	s32i.n	a1, a14, 32
    1bf0:	031282        	l16ui	a8, a2, 6
    1bf3:	6bb8      	l32i.n	a11, a11, 24
    1bf5:	069897        	bne	a8, a9, 0x1bff
    1bf8:	02ad      	mov.n	a10, a2
    1bfa:	000be0        	excw
    1bfd:	f01d      	excw
    1bff:	02ad      	mov.n	a10, a2
    1c01:	000be0        	excw
    1c04:	f01d      	excw
    1c06:	360000        	excw
    1c09:	0c0061        	l32r	a6, 0xfffc4c0c
    1c0c:	0ca8      	l32i.n	a10, a12, 0
    1c0e:	1aa104        	excw
    1c11:	8e          	.byte 0x8e
    1c12:	401200        	ssl	a2
    1c15:	01a072        	movi	a7, 1
    1c18:	a1b700        	sll	a11, a7
    1c1b:	380a92        	l8ui	a9, a10, 56
    1c1e:	34b0b0        	extui	a11, a11, 0, 4
    1c21:	2099b0        	or	a9, a9, a11
    1c24:	384a92        	s8i	a9, a10, 56
    1c27:	8e1b91        	l32r	a9, 0xfffe5494
    1c2a:	20a440        	or	a10, a4, a4
    1c2d:	564942        	s8i	a4, a9, 86
    1c30:	544942        	s8i	a4, a9, 84
    1c33:	554942        	s8i	a4, a9, 85
    1c36:	fed922        	addmi	a2, a9, 0xfffffe00
    1c39:	10a876        	excw
    1c3c:	f0baa0        	subx8	a11, a10, a10
    1c3f:	aa1b      	addi.n	a10, a10, 1
    1c41:	b0bb20        	addx8	a11, a11, a2
    1c44:	314b42        	s8i	a4, a11, 49
    1c47:	166b42        	s32i	a4, a11, 88
    1c4a:	74a0a0        	extui	a10, a10, 0, 8
    1c4d:	0a0c      	movi.n	a10, 0
    1c4f:	8e1151        	l32r	a5, 0xfffe5494
    1c52:	0b0c      	movi.n	a11, 0
    1c54:	582582        	l32i	a8, a5, 0x160
    1c57:	8e1cc1        	l32r	a12, 0xfffe54c8
    1c5a:	0008e0        	excw
    1c5d:	f3a092        	movi	a9, 243
    1c60:	0b1c      	movi.n	a11, 16
    1c62:	8e1d81        	l32r	a8, 0xfffe54d8
    1c65:	8e1ff1        	l32r	a15, 0xfffe54e4
    1c68:	8e20e1        	l32r	a14, 0xfffe54e8
    1c6b:	0a4c      	movi.n	a10, 64
    1c6d:	8e21d1        	l32r	a13, 0xfffe54f4
    1c70:	8e1e61        	l32r	a6, 0xfffe54e8
    1c73:	2c1c      	movi.n	a12, 18
    1c75:	154672        	s8i	a7, a6, 21
    1c78:	174672        	s8i	a7, a6, 23
    1c7b:	1a4672        	s8i	a7, a6, 26
    1c7e:	204672        	s8i	a7, a6, 32
    1c81:	214642        	s8i	a4, a6, 33
    1c84:	254672        	s8i	a7, a6, 37
    1c87:	1446c2        	s8i	a12, a6, 20
    1c8a:	646d32        	s32i	a3, a13, 0x190
    1c8d:	1b46a2        	s8i	a10, a6, 27
    1c90:	000ee2        	l8ui	a14, a14, 0
    1c93:	000ff2        	l8ui	a15, a15, 0
    1c96:	000882        	l8ui	a8, a8, 0
    1c99:	1646b2        	s8i	a11, a6, 22
    1c9c:	1c4692        	s8i	a9, a6, 28
    1c9f:	0b0c      	movi.n	a11, 0
    1ca1:	8e2291        	l32r	a9, 0xfffe552c
    1ca4:	224682        	s8i	a8, a6, 34
    1ca7:	2446f2        	s8i	a15, a6, 36
    1caa:	2346e2        	s8i	a14, a6, 35
    1cad:	2a0c      	movi.n	a10, 2
    1caf:	efa0d2        	movi	a13, 239
    1cb2:	1846d2        	s8i	a13, a6, 24
    1cb5:	1946a2        	s8i	a10, a6, 25
    1cb8:	0e3c      	movi.n	a14, 48
    1cba:	4f0c      	movi.n	a15, 4
    1cbc:	c80c      	movi.n	a8, 12
    1cbe:	1d4682        	s8i	a8, a6, 29
    1cc1:	1e46f2        	s8i	a15, a6, 30
    1cc4:	0009c2        	l8ui	a12, a9, 0
    1cc7:	1f46e2        	s8i	a14, a6, 31
    1cca:	081c66        	bnei	a12, 1, 0x1cd6
    1ccd:	004942        	s8i	a4, a9, 0
    1cd0:	2046a2        	s8i	a10, a6, 32
    1cd3:	214642        	s8i	a4, a6, 33
    1cd6:	8e1291        	l32r	a9, 0xfffe5520
    1cd9:	1ab316        	beqz	a3, 0x1e88
    1cdc:	2146b2        	s8i	a11, a6, 33
    1cdf:	c30b      	addi.n	a12, a3, -1
    1ce1:	1cdc16        	beqz	a12, 0x1eb2
    1ce4:	fec3d2        	addi	a13, a3, -2
    1ce7:	1e6d16        	beqz	a13, 0x1ed1
    1cea:	fdc3e2        	addi	a14, a3, -3
    1ced:	15ae16        	beqz	a14, 0x1e4b
    1cf0:	8e10a1        	l32r	a10, 0xfffe5530
    1cf3:	0b0c      	movi.n	a11, 0
    1cf5:	989de5        	excw
    1cf8:	2a0c      	movi.n	a10, 2
    1cfa:	5b0c      	movi.n	a11, 5
    1cfc:	8e2391        	l32r	a9, 0xfffe5588
    1cff:	ffa0c2        	movi	a12, 255
    1d02:	e0a032        	movi	a3, 224
    1d05:	fb0b      	addi.n	a15, a11, -1
    1d07:	0c1f56        	bnez	a15, 0x1dcc
    1d0a:	194642        	s8i	a4, a6, 25
    1d0d:	1a4642        	s8i	a4, a6, 26
    1d10:	1846c2        	s8i	a12, a6, 24
    1d13:	264642        	s8i	a4, a6, 38
    1d16:	283c      	movi.n	a8, 50
    1d18:	1e4692        	s8i	a9, a6, 30
    1d1b:	41b890        	srli	a11, a9, 8
    1d1e:	75c890        	extui	a12, a9, 24, 8
    1d21:	f5d090        	extui	a13, a9, 16, 16
    1d24:	1c46d2        	s8i	a13, a6, 28
    1d27:	1d46c2        	s8i	a12, a6, 29
    1d2a:	1f46b2        	s8i	a11, a6, 31
    1d2d:	a42292        	l32i	a9, a2, 0x290
    1d30:	274682        	s8i	a8, a6, 39
    1d33:	172916        	beqz	a9, 0x1ea9
    1d36:	0249b6        	bltui	a9, 4, 0x1d3c
    1d39:	0040c6        	j	0x1e40
    1d3c:	100916        	beqz	a9, 0x1e40
    1d3f:	8e1581        	l32r	a8, 0xfffe5594
    1d42:	472882        	l32i	a8, a8, 0x11c
    1d45:	0008e0        	excw
    1d48:	c0a092        	movi	a9, 192
    1d4b:	8393a0        	moveqz	a9, a3, a10
    1d4e:	264692        	s8i	a9, a6, 38
    1d51:	a42292        	l32i	a9, a2, 0x290
    1d54:	7b0c      	movi.n	a11, 7
    1d56:	183966        	bnei	a9, 3, 0x1d72
    1d59:	8e20e1        	l32r	a14, 0xfffe55dc
    1d5c:	ba0c      	movi.n	a10, 11
    1d5e:	8e24c1        	l32r	a12, 0xfffe55f0
    1d61:	8d0c      	movi.n	a13, 8
    1d63:	024cb2        	s8i	a11, a12, 2
    1d66:	004cd2        	s8i	a13, a12, 0
    1d69:	014ca2        	s8i	a10, a12, 1
    1d6c:	000ee2        	l8ui	a14, a14, 0
    1d6f:	074ce2        	s8i	a14, a12, 7
    1d72:	173916        	beqz	a9, 0x1ee9
    1d75:	f90b      	addi.n	a15, a9, -1
    1d77:	17ef16        	beqz	a15, 0x1ef9
    1d7a:	fec982        	addi	a8, a9, -2
    1d7d:	18f816        	beqz	a8, 0x1f10
    1d80:	023966        	bnei	a9, 3, 0x1d86
    1d83:	002406        	j	0x1e17
    1d86:	8e10a1        	l32r	a10, 0xfffe55c8
    1d89:	0b0c      	movi.n	a11, 0
    1d8b:	9894a5        	excw
    1d8e:	8e2591        	l32r	a9, 0xfffe5624
    1d91:	0020c0        	memw
    1d94:	9b2992        	l32i	a9, a9, 0x26c
    1d97:	249090        	extui	a9, a9, 0, 3
    1d9a:	094926        	beqi	a9, 4, 0x1da7
    1d9d:	4588      	l32i.n	a8, a5, 16
    1d9f:	02ad      	mov.n	a10, a2
    1da1:	0008e0        	excw
    1da4:	000186        	j	0x1dae
    1da7:	3588      	l32i.n	a8, a5, 12
    1da9:	02ad      	mov.n	a10, a2
    1dab:	0008e0        	excw
    1dae:	8e2681        	l32r	a8, 0xfffe5648
    1db1:	1888      	l32i.n	a8, a8, 4
    1db3:	0008e0        	excw
    1db6:	0adc      	bnez.n	a10, 0x1dca
    1db8:	3b2582        	l32i	a8, a5, 236
    1dbb:	0008e0        	excw
    1dbe:	3f2582        	l32i	a8, a5, 252
    1dc1:	0008e0        	excw
    1dc4:	8e2791        	l32r	a9, 0xfffe5660
    1dc7:	616942        	s32i	a4, a9, 0x184
    1dca:	f01d      	excw
    1dcc:	272b66        	bnei	a11, 2, 0x1df7
    1dcf:	8e1bb1        	l32r	a11, 0xfffe563c
    1dd2:	01c9      	s32i.n	a12, a1, 0
    1dd4:	af2bb2        	l32i	a11, a11, 0x2bc
    1dd7:	1199      	s32i.n	a9, a1, 4
    1dd9:	9b8c      	beqz.n	a11, 0x1de6
    1ddb:	2a0c      	movi.n	a10, 2
    1ddd:	04fbe5        	excw
    1de0:	1198      	l32i.n	a9, a1, 4
    1de2:	01b8      	l32i.n	a11, a1, 0
    1de4:	0acc      	bnez.n	a10, 0x1de8
    1de6:	03bd      	mov.n	a11, a3
    1de8:	1846b2        	s8i	a11, a6, 24
    1deb:	194672        	s8i	a7, a6, 25
    1dee:	1a4672        	s8i	a7, a6, 26
    1df1:	194672        	s8i	a7, a6, 25
    1df4:	ffc6c6        	j	0x1d13
    1df7:	0b3b66        	bnei	a11, 3, 0x1e06
    1dfa:	1946a2        	s8i	a10, a6, 25
    1dfd:	1a4672        	s8i	a7, a6, 26
    1e00:	efa0c2        	movi	a12, 239
    1e03:	ffc246        	j	0x1d10
    1e06:	fccbc2        	addi	a12, a11, -4
    1e09:	f06c56        	bnez	a12, 0x1d13
    1e0c:	184642        	s8i	a4, a6, 24
    1e0f:	1a4642        	s8i	a4, a6, 26
    1e12:	047d      	mov.n	a7, a4
    1e14:	fff646        	j	0x1df1
    1e17:	8e12d1        	l32r	a13, 0xfffe5660
    1e1a:	0dd8      	l32i.n	a13, a13, 0
    1e1c:	332dd2        	l32i	a13, a13, 204
    1e1f:	6dcc      	bnez.n	a13, 0x1e29
    1e21:	8e1be1        	l32r	a14, 0xfffe5690
    1e24:	af2ee2        	l32i	a14, a14, 0x2bc
    1e27:	4e8c      	beqz.n	a14, 0x1e2f
    1e29:	732582        	l32i	a8, a5, 0x1cc
    1e2c:	0008e0        	excw
    1e2f:	632582        	l32i	a8, a5, 0x18c
    1e32:	0008e0        	excw
    1e35:	02ad      	mov.n	a10, a2
    1e37:	001425        	excw
    1e3a:	ffd406        	j	0x1d8e
    1e3d:	000000        	ill
    1e40:	8e10a1        	l32r	a10, 0xfffe5680
    1e43:	0b0c      	movi.n	a11, 0
    1e45:	9888e5        	excw
    1e48:	ffc146        	j	0x1d51
    1e4b:	09c8      	l32i.n	a12, a9, 0
    1e4d:	3b0c      	movi.n	a11, 3
    1e4f:	332ce2        	l32i	a14, a12, 204
    1e52:	232cd2        	l32i	a13, a12, 140
    1e55:	83bae0        	moveqz	a11, a10, a14
    1e58:	6d8c      	beqz.n	a13, 0x1e62
    1e5a:	040d26        	beqi	a13, -1, 0x1e62
    1e5d:	0d9d      	mov.n	a9, a13
    1e5f:	000306        	j	0x1e6f
    1e62:	142cd2        	l32i	a13, a12, 80
    1e65:	0bed16        	beqz	a13, 0x1f27
    1e68:	fd1b      	addi.n	a15, a13, 1
    1e6a:	0b9f16        	beqz	a15, 0x1f27
    1e6d:	0d9d      	mov.n	a9, a13
    1e6f:	8e1b81        	l32r	a8, 0xfffe56dc
    1e72:	af2882        	l32i	a8, a8, 0x2bc
    1e75:	e86816        	beqz	a8, 0x1cff
    1e78:	152cd2        	l32i	a13, a12, 84
    1e7b:	064d16        	beqz	a13, 0x1ee3
    1e7e:	610d26        	beqi	a13, -1, 0x1ee3
    1e81:	0d9d      	mov.n	a9, a13
    1e83:	4b0c      	movi.n	a11, 4
    1e85:	ff9d86        	j	0x1cff
    1e88:	224642        	s8i	a4, a6, 34
    1e8b:	234642        	s8i	a4, a6, 35
    1e8e:	244642        	s8i	a4, a6, 36
    1e91:	204642        	s8i	a4, a6, 32
    1e94:	09d8      	l32i.n	a13, a9, 0
    1e96:	2146a2        	s8i	a10, a6, 33
    1e99:	132dd2        	l32i	a13, a13, 76
    1e9c:	06ad16        	beqz	a13, 0x1f0a
    1e9f:	670d26        	beqi	a13, -1, 0x1f0a
    1ea2:	0d9d      	mov.n	a9, a13
    1ea4:	1b0c      	movi.n	a11, 1
    1ea6:	ff9546        	j	0x1cff
    1ea9:	80a0e2        	movi	a14, 128
    1eac:	2646e2        	s8i	a14, a6, 38
    1eaf:	ffa846        	j	0x1d54
    1eb2:	09c8      	l32i.n	a12, a9, 0
    1eb4:	232cd2        	l32i	a13, a12, 140
    1eb7:	6d8c      	beqz.n	a13, 0x1ec1
    1eb9:	040d26        	beqi	a13, -1, 0x1ec1
    1ebc:	0d9d      	mov.n	a9, a13
    1ebe:	000286        	j	0x1ecc
    1ec1:	142cd2        	l32i	a13, a12, 80
    1ec4:	065d16        	beqz	a13, 0x1f2d
    1ec7:	620d26        	beqi	a13, -1, 0x1f2d
    1eca:	0d9d      	mov.n	a9, a13
    1ecc:	2b0c      	movi.n	a11, 2
    1ece:	ff8b46        	j	0x1cff
    1ed1:	09d8      	l32i.n	a13, a9, 0
    1ed3:	152dd2        	l32i	a13, a13, 84
    1ed6:	047d16        	beqz	a13, 0x1f21
    1ed9:	440d26        	beqi	a13, -1, 0x1f21
    1edc:	0d9d      	mov.n	a9, a13
    1ede:	4b0c      	movi.n	a11, 4
    1ee0:	ff86c6        	j	0x1cff
    1ee3:	8e2891        	l32r	a9, 0xfffe5784
    1ee6:	ffe646        	j	0x1e83
    1ee9:	8d2582        	l32i	a8, a5, 0x234
    1eec:	0008e0        	excw
    1eef:	5588      	l32i.n	a8, a5, 20
    1ef1:	02ad      	mov.n	a10, a2
    1ef3:	0008e0        	excw
    1ef6:	ffa506        	j	0x1d8e
    1ef9:	632582        	l32i	a8, a5, 0x18c
    1efc:	0008e0        	excw
    1eff:	02ad      	mov.n	a10, a2
    1f01:	000765        	excw
    1f04:	ffa186        	j	0x1d8e
    1f07:	000000        	ill
    1f0a:	8e2991        	l32r	a9, 0xfffe57b0
    1f0d:	ffe4c6        	j	0x1ea4
    1f10:	732582        	l32i	a8, a5, 0x1cc
    1f13:	0008e0        	excw
    1f16:	02ad      	mov.n	a10, a2
    1f18:	0005e5        	excw
    1f1b:	ff9bc6        	j	0x1d8e
    1f1e:	000000        	ill
    1f21:	8e2891        	l32r	a9, 0xfffe57c4
    1f24:	ffed86        	j	0x1ede
    1f27:	8e2391        	l32r	a9, 0xfffe57b4
    1f2a:	ffd046        	j	0x1e6f
    1f2d:	8e2391        	l32r	a9, 0xfffe57bc
    1f30:	ffe606        	j	0x1ecc
    1f33:	413600        	srli	a3, a0, 6
    1f36:	038200        	excw
    1f39:	986601        	l32r	a0, 0xfffe80d4
    1f3c:	a12a      	add.n	a10, a1, a2
    1f3e:	318e22        	excw
    1f41:	0c8e11        	l32r	a1, 0xfffc517c
    1f44:	8219      	s32i.n	a1, a2, 32
    1f46:	923b23        	excw
    1f49:	004a      	add.n	a0, a0, a4
    1f4b:	0008e0        	excw
    1f4e:	8e1721        	l32r	a2, 0xfffe57ac
    1f51:	6288      	l32i.n	a8, a2, 24
    1f53:	e8a3a2        	movi	a10, 0x3e8
    1f56:	0008e0        	excw
    1f59:	3c2382        	l32i	a8, a3, 240
    1f5c:	0008e0        	excw
    1f5f:	a288      	l32i.n	a8, a2, 40
    1f61:	ca0c      	movi.n	a10, 12
    1f63:	0008e0        	excw
    1f66:	f01d      	excw
    1f68:	8e1981        	l32r	a8, 0xfffe57cc
    1f6b:	02ad      	mov.n	a10, a2
    1f6d:	8888      	l32i.n	a8, a8, 32
    1f6f:	03bd      	mov.n	a11, a3
    1f71:	0008e0        	excw
    1f74:	f01d      	excw
    1f76:	360000        	excw
    1f79:	0c0041        	l32r	a4, 0xfffc4f7c
    1f7c:	090c13        	excw
    1f7f:	a4a142        	movi	a4, 0x1a4
    1f82:	90a482        	movi	a8, 0x490
    1f85:	828a      	add.n	a8, a2, a8
    1f87:	424a      	add.n	a4, a2, a4
    1f89:	bd6492        	s32i	a9, a4, 0x2f4
    1f8c:	bc6492        	s32i	a9, a4, 0x2f0
    1f8f:	bb6492        	s32i	a9, a4, 0x2ec
    1f92:	aa6282        	s32i	a8, a2, 0x2a8
    1f95:	be6432        	s32i	a3, a4, 0x2f8
    1f98:	f01d      	excw
    1f9a:	360000        	excw
    1f9d:	210041        	l32r	a4, 0xfffca3a0
    1fa0:	8e19      	s32i.n	a1, a14, 32
    1fa2:	8e2a31        	l32r	a3, 0xfffe584c
    1fa5:	22d8      	l32i.n	a13, a2, 8
    1fa7:	ad63d2        	s32i	a13, a3, 0x2b4
    1faa:	7248      	l32i.n	a4, a2, 28
    1fac:	8288      	l32i.n	a8, a2, 32
    1fae:	6298      	l32i.n	a9, a2, 24
    1fb0:	52a8      	l32i.n	a10, a2, 20
    1fb2:	42b8      	l32i.n	a11, a2, 16
    1fb4:	32c8      	l32i.n	a12, a2, 12
    1fb6:	5f63c2        	s32i	a12, a3, 0x17c
    1fb9:	7363b2        	s32i	a11, a3, 0x1cc
    1fbc:	a363a2        	s32i	a10, a3, 0x28c
    1fbf:	416392        	s32i	a9, a3, 0x104
    1fc2:	836382        	s32i	a8, a3, 0x20c
    1fc5:	426342        	s32i	a4, a3, 0x108
    1fc8:	1228      	l32i.n	a2, a2, 4
    1fca:	786322        	s32i	a2, a3, 0x1e0
    1fcd:	f01d      	excw
    1fcf:	413600        	srli	a3, a0, 6
    1fd2:	2be100        	excw
    1fd5:	8e          	.byte 0x8e
    1fd6:	8e2a31        	l32r	a3, 0xfffe5880
    1fd9:	8e1921        	l32r	a2, 0xfffe5840
    1fdc:	412392        	l32i	a9, a3, 0x104
    1fdf:	a323a2        	l32i	a10, a3, 0x28c
    1fe2:	7323b2        	l32i	a11, a3, 0x1cc
    1fe5:	5f23c2        	l32i	a12, a3, 0x17c
    1fe8:	4223f2        	l32i	a15, a3, 0x108
    1feb:	782342        	l32i	a4, a3, 0x1e0
    1fee:	ad23d2        	l32i	a13, a3, 0x2b4
    1ff1:	832382        	l32i	a8, a3, 0x20c
    1ff4:	8289      	s32i.n	a8, a2, 32
    1ff6:	8e3181        	l32r	a8, 0xfffe58bc
    1ff9:	ad63e2        	s32i	a14, a3, 0x2b4
    1ffc:	786382        	s32i	a8, a3, 0x1e0
    1fff:	72f9      	s32i.n	a15, a2, 28
    2001:	22d9      	s32i.n	a13, a2, 8
    2003:	1249      	s32i.n	a4, a2, 4
    2005:	32c9      	s32i.n	a12, a2, 12
    2007:	42b9      	s32i.n	a11, a2, 16
    2009:	6299      	s32i.n	a9, a2, 24
    200b:	52a9      	s32i.n	a10, a2, 20
    200d:	8e3091        	l32r	a9, 0xfffe58d0
    2010:	8e2fa1        	l32r	a10, 0xfffe58cc
    2013:	8e2eb1        	l32r	a11, 0xfffe58cc
    2016:	8e2dc1        	l32r	a12, 0xfffe58cc
    2019:	8e3241        	l32r	a4, 0xfffe58e4
    201c:	8e2cd1        	l32r	a13, 0xfffe58cc
    201f:	5f63d2        	s32i	a13, a3, 0x17c
    2022:	426342        	s32i	a4, a3, 0x108
    2025:	7363c2        	s32i	a12, a3, 0x1cc
    2028:	a363b2        	s32i	a11, a3, 0x28c
    202b:	4163a2        	s32i	a10, a3, 0x104
    202e:	836392        	s32i	a9, a3, 0x20c
    2031:	8e3321        	l32r	a2, 0xfffe5900
    2034:	d46322        	s32i	a2, a3, 0x350
    2037:	f01d      	excw
    2039:	000000        	ill
    203c:	008136        	excw
    203f:	8e3461        	l32r	a6, 0xfffe5910
    2042:	cc2682        	l32i	a8, a6, 0x330
    2045:	02ad      	mov.n	a10, a2
    2047:	0008e0        	excw
    204a:	03bd      	mov.n	a11, a3
    204c:	04cd      	mov.n	a12, a4
    204e:	41a9      	s32i.n	a10, a1, 16
    2050:	5e2682        	l32i	a8, a6, 0x178
    2053:	02ad      	mov.n	a10, a2
    2055:	0008e0        	excw
    2058:	97c292        	addi	a9, a2, -105
    205b:	15c916        	beqz	a9, 0x21bb
    205e:	b2a4a2        	movi	a10, 0x4b2
    2061:	c0a2a0        	sub	a10, a2, a10
    2064:	153a16        	beqz	a10, 0x21bb
    2067:	b6a4b2        	movi	a11, 0x4b6
    206a:	c0b2b0        	sub	a11, a2, a11
    206d:	14ab16        	beqz	a11, 0x21bb
    2070:	04cd      	mov.n	a12, a4
    2072:	02ad      	mov.n	a10, a2
    2074:	5e2682        	l32i	a8, a6, 0x178
    2077:	03bd      	mov.n	a11, a3
    2079:	0008e0        	excw
    207c:	0a4d      	mov.n	a4, a10
    207e:	060a66        	bnei	a10, -1, 0x2088
    2081:	2d0c      	movi.n	a13, 2
    2083:	41d9      	s32i.n	a13, a1, 16
    2085:	001806        	j	0x20e9
    2088:	75a0e2        	movi	a14, 117
    208b:	0f0c      	movi.n	a15, 0
    208d:	8e3581        	l32r	a8, 0xfffe5964
    2090:	d0a072        	movi	a7, 208
    2093:	d17a70        	mul16s	a7, a10, a7
    2096:	5179      	s32i.n	a7, a1, 20
    2098:	778a      	add.n	a7, a7, a8
    209a:	7e07a2        	l8ui	a10, a7, 126
    209d:	fd2c      	movi.n	a13, 47
    209f:	16bda7        	bgeu	a13, a10, 0x20b9
    20a2:	783c      	movi.n	a8, 55
    20a4:	1138a7        	bltu	a8, a10, 0x20b9
    20a7:	0e92e7        	bne	a2, a14, 0x20b9
    20aa:	0fad      	mov.n	a10, a15
    20ac:	41f9      	s32i.n	a15, a1, 16
    20ae:	e22682        	l32i	a8, a6, 0x388
    20b1:	02bd      	mov.n	a11, a2
    20b3:	0008e0        	excw
    20b6:	000b46        	j	0x20e7
    20b9:	d93c      	movi.n	a9, 61
    20bb:	02b9a7        	bgeu	a9, a10, 0x20c1
    20be:	0038c6        	j	0x21a5
    20c1:	8e36c1        	l32r	a12, 0xfffe599c
    20c4:	6aa082        	movi	a8, 106
    20c7:	399287        	bne	a2, a8, 0x2104
    20ca:	74a040        	extui	a10, a4, 0, 8
    20cd:	10c1e2        	addi	a14, a1, 16
    20d0:	3f0c      	movi.n	a15, 3
    20d2:	512682        	l32i	a8, a6, 0x144
    20d5:	51b8      	l32i.n	a11, a1, 20
    20d7:	aca2d2        	movi	a13, 0x2ac
    20da:	ccda      	add.n	a12, a12, a13
    20dc:	bbca      	add.n	a11, a11, a12
    20de:	03dd      	mov.n	a13, a3
    20e0:	02cd      	mov.n	a12, a2
    20e2:	0008e0        	excw
    20e5:	41a9      	s32i.n	a10, a1, 16
    20e7:	41d8      	l32i.n	a13, a1, 16
    20e9:	8e37e1        	l32r	a14, 0xfffe59c8
    20ec:	652ee2        	l32i	a14, a14, 0x194
    20ef:	069e56        	bnez	a14, 0x215c
    20f2:	02ad      	mov.n	a10, a2
    20f4:	03cd      	mov.n	a12, a3
    20f6:	622682        	l32i	a8, a6, 0x188
    20f9:	74b0d0        	extui	a11, a13, 0, 8
    20fc:	0008e0        	excw
    20ff:	41d8      	l32i.n	a13, a1, 16
    2101:	0015c6        	j	0x215c
    2104:	4f27d2        	l32i	a13, a7, 0x13c
    2107:	192c      	movi.n	a9, 33
    2109:	056d16        	beqz	a13, 0x2163
    210c:	04b9a7        	bgeu	a9, a10, 0x2114
    210f:	fb2c      	movi.n	a11, 47
    2111:	05bba7        	bgeu	a11, a10, 0x211a
    2114:	2c6df2        	s32i	a15, a13, 176
    2117:	4f27d2        	l32i	a13, a7, 0x13c
    211a:	2c2dc2        	l32i	a12, a13, 176
    211d:	fcbc      	beqz.n	a12, 0x2160
    211f:	04ad      	mov.n	a10, a4
    2121:	10c1e2        	addi	a14, a1, 16
    2124:	05fd      	mov.n	a15, a5
    2126:	c52682        	l32i	a8, a6, 0x314
    2129:	51b8      	l32i.n	a11, a1, 20
    212b:	8e36c1        	l32r	a12, 0xfffe5a04
    212e:	aca2d2        	movi	a13, 0x2ac
    2131:	ccda      	add.n	a12, a12, a13
    2133:	bbca      	add.n	a11, a11, a12
    2135:	03dd      	mov.n	a13, a3
    2137:	02cd      	mov.n	a12, a2
    2139:	0008e0        	excw
    213c:	75a0e2        	movi	a14, 117
    213f:	0add      	mov.n	a13, a10
    2141:	41a9      	s32i.n	a10, a1, 16
    2143:	9adc      	bnez.n	a10, 0x2160
    2145:	8e37e1        	l32r	a14, 0xfffe5a24
    2148:	652ee2        	l32i	a14, a14, 0x194
    214b:	decc      	bnez.n	a14, 0x215c
    214d:	02ad      	mov.n	a10, a2
    214f:	03cd      	mov.n	a12, a3
    2151:	622682        	l32i	a8, a6, 0x188
    2154:	74b0d0        	extui	a11, a13, 0, 8
    2157:	0008e0        	excw
    215a:	41d8      	l32i.n	a13, a1, 16
    215c:	0d2d      	mov.n	a2, a13
    215e:	f01d      	excw
    2160:	7e07a2        	l8ui	a10, a7, 126
    2163:	74a092        	movi	a9, 116
    2166:	471297        	beq	a2, a9, 0x21b1
    2169:	4412e7        	beq	a2, a14, 0x21b1
    216c:	9b0c      	movi.n	a11, 9
    216e:	221ab7        	beq	a10, a11, 0x2194
    2171:	1f9a26        	beqi	a10, 10, 0x2194
    2174:	04bd      	mov.n	a11, a4
    2176:	10c1f2        	addi	a15, a1, 16
    2179:	51c8      	l32i.n	a12, a1, 20
    217b:	aca2e2        	movi	a14, 0x2ac
    217e:	8e36d1        	l32r	a13, 0xfffe5a58
    2181:	0159      	s32i.n	a5, a1, 0
    2183:	762682        	l32i	a8, a6, 0x1d8
    2186:	ddea      	add.n	a13, a13, a14
    2188:	ccda      	add.n	a12, a12, a13
    218a:	03ed      	mov.n	a14, a3
    218c:	02dd      	mov.n	a13, a2
    218e:	0008e0        	excw
    2191:	ffd406        	j	0x20e5
    2194:	f2a3f2        	movi	a15, 0x3f2
    2197:	0512f7        	beq	a2, a15, 0x21a0
    219a:	f8a382        	movi	a8, 0x3f8
    219d:	d39287        	bne	a2, a8, 0x2174
    21a0:	4d4c      	movi.n	a13, 68
    21a2:	ffed86        	j	0x215c
    21a5:	0a0c      	movi.n	a10, 0
    21a7:	1b0c      	movi.n	a11, 1
    21a9:	9852a5        	excw
    21ac:	3a0c      	movi.n	a10, 3
    21ae:	ffccc6        	j	0x20e5
    21b1:	b93c      	movi.n	a9, 59
    21b3:	b51a97        	beq	a10, a9, 0x216c
    21b6:	3d4c      	movi.n	a13, 67
    21b8:	ffe806        	j	0x215c
    21bb:	02ad      	mov.n	a10, a2
    21bd:	03bd      	mov.n	a11, a3
    21bf:	8e3881        	l32r	a8, 0xfffe5aa0
    21c2:	04cd      	mov.n	a12, a4
    21c4:	0888      	l32i.n	a8, a8, 0
    21c6:	05dd      	mov.n	a13, a5
    21c8:	0008e0        	excw
    21cb:	0add      	mov.n	a13, a10
    21cd:	ffe2c6        	j	0x215c
    21d0:	006136        	excw
    21d3:	8e3481        	l32r	a8, 0xfffe5aa4
    21d6:	0129      	s32i.n	a2, a1, 0
    21d8:	cc2882        	l32i	a8, a8, 0x330
    21db:	05ad      	mov.n	a10, a5
    21dd:	0008e0        	excw
    21e0:	0a2d      	mov.n	a2, a10
    21e2:	01a8      	l32i.n	a10, a1, 0
    21e4:	ec3c      	movi.n	a12, 62
    21e6:	023ac7        	bltu	a10, a12, 0x21ec
    21e9:	0036c6        	j	0x22c8
    21ec:	8e39e1        	l32r	a14, 0xfffe5ad0
    21ef:	90daa0        	addx2	a13, a10, a10
    21f2:	ddea      	add.n	a13, a13, a14
    21f4:	000da0        	jx	a13
    21f7:	0033c6        	j	0x22ca
    21fa:	002cc6        	j	0x22b1
    21fd:	01a946        	j	0x28a6
    2200:	01a246        	j	0x288d
    2203:	019b46        	j	0x2874
    2206:	019446        	j	0x285b
    2209:	018d46        	j	0x2842
    220c:	018646        	j	0x2829
    220f:	017f46        	j	0x2810
    2212:	017846        	j	0x27f7
    2215:	017146        	j	0x27de
    2218:	016a46        	j	0x27c5
    221b:	016346        	j	0x27ac
    221e:	015c46        	j	0x2793
    2221:	015546        	j	0x277a
    2224:	014e46        	j	0x2761
    2227:	014746        	j	0x2748
    222a:	014046        	j	0x272f
    222d:	013946        	j	0x2716
    2230:	013246        	j	0x26fd
    2233:	012b46        	j	0x26e4
    2236:	012446        	j	0x26cb
    2239:	011d46        	j	0x26b2
    223c:	011646        	j	0x2699
    223f:	010f46        	j	0x2680
    2242:	010846        	j	0x2667
    2245:	010146        	j	0x264e
    2248:	00fa46        	j	0x2635
    224b:	00f346        	j	0x261c
    224e:	00ec46        	j	0x2603
    2251:	00e546        	j	0x25ea
    2254:	00de46        	j	0x25d1
    2257:	00d746        	j	0x25b8
    225a:	00d046        	j	0x259f
    225d:	00c946        	j	0x2586
    2260:	00c246        	j	0x256d
    2263:	00bb46        	j	0x2554
    2266:	00b446        	j	0x253b
    2269:	00ad46        	j	0x2522
    226c:	00a646        	j	0x2509
    226f:	009f46        	j	0x24f0
    2272:	009846        	j	0x24d7
    2275:	009146        	j	0x24be
    2278:	008a46        	j	0x24a5
    227b:	008346        	j	0x248c
    227e:	007c46        	j	0x2473
    2281:	007546        	j	0x245a
    2284:	006e46        	j	0x2441
    2287:	006746        	j	0x2428
    228a:	006046        	j	0x240f
    228d:	005946        	j	0x23f6
    2290:	005246        	j	0x23dd
    2293:	004b46        	j	0x23c4
    2296:	004446        	j	0x23ab
    2299:	003d46        	j	0x2392
    229c:	003646        	j	0x2379
    229f:	002f46        	j	0x2360
    22a2:	002846        	j	0x2347
    22a5:	002146        	j	0x232e
    22a8:	001a46        	j	0x2315
    22ab:	001346        	j	0x22fc
    22ae:	000c46        	j	0x22e3
    22b1:	03ad      	mov.n	a10, a3
    22b3:	04bd      	mov.n	a11, a4
    22b5:	05cd      	mov.n	a12, a5
    22b7:	06dd      	mov.n	a13, a6
    22b9:	8e3481        	l32r	a8, 0xfffe5b8c
    22bc:	07ed      	mov.n	a14, a7
    22be:	782882        	l32i	a8, a8, 0x1e0
    22c1:	c1f8      	l32i.n	a15, a1, 48
    22c3:	0008e0        	excw
    22c6:	0a2d      	mov.n	a2, a10
    22c8:	f01d      	excw
    22ca:	03ad      	mov.n	a10, a3
    22cc:	04bd      	mov.n	a11, a4
    22ce:	05cd      	mov.n	a12, a5
    22d0:	06dd      	mov.n	a13, a6
    22d2:	8e3481        	l32r	a8, 0xfffe5ba4
    22d5:	07ed      	mov.n	a14, a7
    22d7:	772882        	l32i	a8, a8, 0x1dc
    22da:	c1f8      	l32i.n	a15, a1, 48
    22dc:	0008e0        	excw
    22df:	0a2d      	mov.n	a2, a10
    22e1:	f01d      	excw
    22e3:	03ad      	mov.n	a10, a3
    22e5:	04bd      	mov.n	a11, a4
    22e7:	05cd      	mov.n	a12, a5
    22e9:	06dd      	mov.n	a13, a6
    22eb:	8e3481        	l32r	a8, 0xfffe5bbc
    22ee:	07ed      	mov.n	a14, a7
    22f0:	9d2882        	l32i	a8, a8, 0x274
    22f3:	c1f8      	l32i.n	a15, a1, 48
    22f5:	0008e0        	excw
    22f8:	0a2d      	mov.n	a2, a10
    22fa:	f01d      	excw
    22fc:	03ad      	mov.n	a10, a3
    22fe:	04bd      	mov.n	a11, a4
    2300:	05cd      	mov.n	a12, a5
    2302:	06dd      	mov.n	a13, a6
    2304:	8e3481        	l32r	a8, 0xfffe5bd4
    2307:	07ed      	mov.n	a14, a7
    2309:	9c2882        	l32i	a8, a8, 0x270
    230c:	c1f8      	l32i.n	a15, a1, 48
    230e:	0008e0        	excw
    2311:	0a2d      	mov.n	a2, a10
    2313:	f01d      	excw
    2315:	03ad      	mov.n	a10, a3
    2317:	04bd      	mov.n	a11, a4
    2319:	05cd      	mov.n	a12, a5
    231b:	06dd      	mov.n	a13, a6
    231d:	8e3481        	l32r	a8, 0xfffe5bf0
    2320:	07ed      	mov.n	a14, a7
    2322:	9b2882        	l32i	a8, a8, 0x26c
    2325:	c1f8      	l32i.n	a15, a1, 48
    2327:	0008e0        	excw
    232a:	0a2d      	mov.n	a2, a10
    232c:	f01d      	excw
    232e:	03ad      	mov.n	a10, a3
    2330:	04bd      	mov.n	a11, a4
    2332:	05cd      	mov.n	a12, a5
    2334:	06dd      	mov.n	a13, a6
    2336:	8e3481        	l32r	a8, 0xfffe5c08
    2339:	07ed      	mov.n	a14, a7
    233b:	9a2882        	l32i	a8, a8, 0x268
    233e:	c1f8      	l32i.n	a15, a1, 48
    2340:	0008e0        	excw
    2343:	0a2d      	mov.n	a2, a10
    2345:	f01d      	excw
    2347:	03ad      	mov.n	a10, a3
    2349:	04bd      	mov.n	a11, a4
    234b:	05cd      	mov.n	a12, a5
    234d:	06dd      	mov.n	a13, a6
    234f:	8e3481        	l32r	a8, 0xfffe5c20
    2352:	07ed      	mov.n	a14, a7
    2354:	992882        	l32i	a8, a8, 0x264
    2357:	c1f8      	l32i.n	a15, a1, 48
    2359:	0008e0        	excw
    235c:	0a2d      	mov.n	a2, a10
    235e:	f01d      	excw
    2360:	03ad      	mov.n	a10, a3
    2362:	04bd      	mov.n	a11, a4
    2364:	05cd      	mov.n	a12, a5
    2366:	06dd      	mov.n	a13, a6
    2368:	8e3481        	l32r	a8, 0xfffe5c38
    236b:	07ed      	mov.n	a14, a7
    236d:	982882        	l32i	a8, a8, 0x260
    2370:	c1f8      	l32i.n	a15, a1, 48
    2372:	0008e0        	excw
    2375:	0a2d      	mov.n	a2, a10
    2377:	f01d      	excw
    2379:	03ad      	mov.n	a10, a3
    237b:	04bd      	mov.n	a11, a4
    237d:	05cd      	mov.n	a12, a5
    237f:	06dd      	mov.n	a13, a6
    2381:	8e3481        	l32r	a8, 0xfffe5c54
    2384:	07ed      	mov.n	a14, a7
    2386:	972882        	l32i	a8, a8, 0x25c
    2389:	c1f8      	l32i.n	a15, a1, 48
    238b:	0008e0        	excw
    238e:	0a2d      	mov.n	a2, a10
    2390:	f01d      	excw
    2392:	03ad      	mov.n	a10, a3
    2394:	04bd      	mov.n	a11, a4
    2396:	05cd      	mov.n	a12, a5
    2398:	06dd      	mov.n	a13, a6
    239a:	8e3481        	l32r	a8, 0xfffe5c6c
    239d:	07ed      	mov.n	a14, a7
    239f:	962882        	l32i	a8, a8, 0x258
    23a2:	c1f8      	l32i.n	a15, a1, 48
    23a4:	0008e0        	excw
    23a7:	0a2d      	mov.n	a2, a10
    23a9:	f01d      	excw
    23ab:	03ad      	mov.n	a10, a3
    23ad:	04bd      	mov.n	a11, a4
    23af:	05cd      	mov.n	a12, a5
    23b1:	06dd      	mov.n	a13, a6
    23b3:	8e3481        	l32r	a8, 0xfffe5c84
    23b6:	07ed      	mov.n	a14, a7
    23b8:	952882        	l32i	a8, a8, 0x254
    23bb:	c1f8      	l32i.n	a15, a1, 48
    23bd:	0008e0        	excw
    23c0:	0a2d      	mov.n	a2, a10
    23c2:	f01d      	excw
    23c4:	03ad      	mov.n	a10, a3
    23c6:	04bd      	mov.n	a11, a4
    23c8:	05cd      	mov.n	a12, a5
    23ca:	06dd      	mov.n	a13, a6
    23cc:	8e3481        	l32r	a8, 0xfffe5c9c
    23cf:	07ed      	mov.n	a14, a7
    23d1:	942882        	l32i	a8, a8, 0x250
    23d4:	c1f8      	l32i.n	a15, a1, 48
    23d6:	0008e0        	excw
    23d9:	0a2d      	mov.n	a2, a10
    23db:	f01d      	excw
    23dd:	03ad      	mov.n	a10, a3
    23df:	04bd      	mov.n	a11, a4
    23e1:	05cd      	mov.n	a12, a5
    23e3:	06dd      	mov.n	a13, a6
    23e5:	8e3481        	l32r	a8, 0xfffe5cb8
    23e8:	07ed      	mov.n	a14, a7
    23ea:	932882        	l32i	a8, a8, 0x24c
    23ed:	c1f8      	l32i.n	a15, a1, 48
    23ef:	0008e0        	excw
    23f2:	0a2d      	mov.n	a2, a10
    23f4:	f01d      	excw
    23f6:	03ad      	mov.n	a10, a3
    23f8:	04bd      	mov.n	a11, a4
    23fa:	05cd      	mov.n	a12, a5
    23fc:	06dd      	mov.n	a13, a6
    23fe:	8e3481        	l32r	a8, 0xfffe5cd0
    2401:	07ed      	mov.n	a14, a7
    2403:	922882        	l32i	a8, a8, 0x248
    2406:	c1f8      	l32i.n	a15, a1, 48
    2408:	0008e0        	excw
    240b:	0a2d      	mov.n	a2, a10
    240d:	f01d      	excw
    240f:	03ad      	mov.n	a10, a3
    2411:	04bd      	mov.n	a11, a4
    2413:	05cd      	mov.n	a12, a5
    2415:	06dd      	mov.n	a13, a6
    2417:	8e3481        	l32r	a8, 0xfffe5ce8
    241a:	07ed      	mov.n	a14, a7
    241c:	912882        	l32i	a8, a8, 0x244
    241f:	c1f8      	l32i.n	a15, a1, 48
    2421:	0008e0        	excw
    2424:	0a2d      	mov.n	a2, a10
    2426:	f01d      	excw
    2428:	03ad      	mov.n	a10, a3
    242a:	04bd      	mov.n	a11, a4
    242c:	05cd      	mov.n	a12, a5
    242e:	06dd      	mov.n	a13, a6
    2430:	8e3481        	l32r	a8, 0xfffe5d00
    2433:	07ed      	mov.n	a14, a7
    2435:	902882        	l32i	a8, a8, 0x240
    2438:	c1f8      	l32i.n	a15, a1, 48
    243a:	0008e0        	excw
    243d:	0a2d      	mov.n	a2, a10
    243f:	f01d      	excw
    2441:	03ad      	mov.n	a10, a3
    2443:	04bd      	mov.n	a11, a4
    2445:	05cd      	mov.n	a12, a5
    2447:	06dd      	mov.n	a13, a6
    2449:	8e3481        	l32r	a8, 0xfffe5d1c
    244c:	07ed      	mov.n	a14, a7
    244e:	c02882        	l32i	a8, a8, 0x300
    2451:	c1f8      	l32i.n	a15, a1, 48
    2453:	0008e0        	excw
    2456:	0a2d      	mov.n	a2, a10
    2458:	f01d      	excw
    245a:	03ad      	mov.n	a10, a3
    245c:	04bd      	mov.n	a11, a4
    245e:	05cd      	mov.n	a12, a5
    2460:	06dd      	mov.n	a13, a6
    2462:	8e3481        	l32r	a8, 0xfffe5d34
    2465:	07ed      	mov.n	a14, a7
    2467:	c42882        	l32i	a8, a8, 0x310
    246a:	c1f8      	l32i.n	a15, a1, 48
    246c:	0008e0        	excw
    246f:	0a2d      	mov.n	a2, a10
    2471:	f01d      	excw
    2473:	03ad      	mov.n	a10, a3
    2475:	04bd      	mov.n	a11, a4
    2477:	05cd      	mov.n	a12, a5
    2479:	06dd      	mov.n	a13, a6
    247b:	8e3481        	l32r	a8, 0xfffe5d4c
    247e:	07ed      	mov.n	a14, a7
    2480:	c32882        	l32i	a8, a8, 0x30c
    2483:	c1f8      	l32i.n	a15, a1, 48
    2485:	0008e0        	excw
    2488:	0a2d      	mov.n	a2, a10
    248a:	f01d      	excw
    248c:	03ad      	mov.n	a10, a3
    248e:	04bd      	mov.n	a11, a4
    2490:	05cd      	mov.n	a12, a5
    2492:	06dd      	mov.n	a13, a6
    2494:	8e3481        	l32r	a8, 0xfffe5d64
    2497:	07ed      	mov.n	a14, a7
    2499:	c22882        	l32i	a8, a8, 0x308
    249c:	c1f8      	l32i.n	a15, a1, 48
    249e:	0008e0        	excw
    24a1:	0a2d      	mov.n	a2, a10
    24a3:	f01d      	excw
    24a5:	03ad      	mov.n	a10, a3
    24a7:	04bd      	mov.n	a11, a4
    24a9:	05cd      	mov.n	a12, a5
    24ab:	06dd      	mov.n	a13, a6
    24ad:	8e3481        	l32r	a8, 0xfffe5d80
    24b0:	07ed      	mov.n	a14, a7
    24b2:	c12882        	l32i	a8, a8, 0x304
    24b5:	c1f8      	l32i.n	a15, a1, 48
    24b7:	0008e0        	excw
    24ba:	0a2d      	mov.n	a2, a10
    24bc:	f01d      	excw
    24be:	03ad      	mov.n	a10, a3
    24c0:	04bd      	mov.n	a11, a4
    24c2:	05cd      	mov.n	a12, a5
    24c4:	06dd      	mov.n	a13, a6
    24c6:	8e3481        	l32r	a8, 0xfffe5d98
    24c9:	07ed      	mov.n	a14, a7
    24cb:	bf2882        	l32i	a8, a8, 0x2fc
    24ce:	c1f8      	l32i.n	a15, a1, 48
    24d0:	0008e0        	excw
    24d3:	0a2d      	mov.n	a2, a10
    24d5:	f01d      	excw
    24d7:	03ad      	mov.n	a10, a3
    24d9:	04bd      	mov.n	a11, a4
    24db:	05cd      	mov.n	a12, a5
    24dd:	06dd      	mov.n	a13, a6
    24df:	8e3481        	l32r	a8, 0xfffe5db0
    24e2:	07ed      	mov.n	a14, a7
    24e4:	be2882        	l32i	a8, a8, 0x2f8
    24e7:	c1f8      	l32i.n	a15, a1, 48
    24e9:	0008e0        	excw
    24ec:	0a2d      	mov.n	a2, a10
    24ee:	f01d      	excw
    24f0:	03ad      	mov.n	a10, a3
    24f2:	04bd      	mov.n	a11, a4
    24f4:	05cd      	mov.n	a12, a5
    24f6:	06dd      	mov.n	a13, a6
    24f8:	8e3481        	l32r	a8, 0xfffe5dc8
    24fb:	07ed      	mov.n	a14, a7
    24fd:	bc2882        	l32i	a8, a8, 0x2f0
    2500:	c1f8      	l32i.n	a15, a1, 48
    2502:	0008e0        	excw
    2505:	0a2d      	mov.n	a2, a10
    2507:	f01d      	excw
    2509:	03ad      	mov.n	a10, a3
    250b:	04bd      	mov.n	a11, a4
    250d:	05cd      	mov.n	a12, a5
    250f:	06dd      	mov.n	a13, a6
    2511:	8e3481        	l32r	a8, 0xfffe5de4
    2514:	07ed      	mov.n	a14, a7
    2516:	bd2882        	l32i	a8, a8, 0x2f4
    2519:	c1f8      	l32i.n	a15, a1, 48
    251b:	0008e0        	excw
    251e:	0a2d      	mov.n	a2, a10
    2520:	f01d      	excw
    2522:	03ad      	mov.n	a10, a3
    2524:	04bd      	mov.n	a11, a4
    2526:	05cd      	mov.n	a12, a5
    2528:	06dd      	mov.n	a13, a6
    252a:	8e3481        	l32r	a8, 0xfffe5dfc
    252d:	07ed      	mov.n	a14, a7
    252f:	bb2882        	l32i	a8, a8, 0x2ec
    2532:	c1f8      	l32i.n	a15, a1, 48
    2534:	0008e0        	excw
    2537:	0a2d      	mov.n	a2, a10
    2539:	f01d      	excw
    253b:	03ad      	mov.n	a10, a3
    253d:	04bd      	mov.n	a11, a4
    253f:	05cd      	mov.n	a12, a5
    2541:	06dd      	mov.n	a13, a6
    2543:	8e3481        	l32r	a8, 0xfffe5e14
    2546:	07ed      	mov.n	a14, a7
    2548:	ba2882        	l32i	a8, a8, 0x2e8
    254b:	c1f8      	l32i.n	a15, a1, 48
    254d:	0008e0        	excw
    2550:	0a2d      	mov.n	a2, a10
    2552:	f01d      	excw
    2554:	03ad      	mov.n	a10, a3
    2556:	04bd      	mov.n	a11, a4
    2558:	05cd      	mov.n	a12, a5
    255a:	06dd      	mov.n	a13, a6
    255c:	8e3481        	l32r	a8, 0xfffe5e2c
    255f:	07ed      	mov.n	a14, a7
    2561:	b92882        	l32i	a8, a8, 0x2e4
    2564:	c1f8      	l32i.n	a15, a1, 48
    2566:	0008e0        	excw
    2569:	0a2d      	mov.n	a2, a10
    256b:	f01d      	excw
    256d:	03ad      	mov.n	a10, a3
    256f:	04bd      	mov.n	a11, a4
    2571:	05cd      	mov.n	a12, a5
    2573:	06dd      	mov.n	a13, a6
    2575:	8e3481        	l32r	a8, 0xfffe5e48
    2578:	07ed      	mov.n	a14, a7
    257a:	b82882        	l32i	a8, a8, 0x2e0
    257d:	c1f8      	l32i.n	a15, a1, 48
    257f:	0008e0        	excw
    2582:	0a2d      	mov.n	a2, a10
    2584:	f01d      	excw
    2586:	03ad      	mov.n	a10, a3
    2588:	04bd      	mov.n	a11, a4
    258a:	05cd      	mov.n	a12, a5
    258c:	06dd      	mov.n	a13, a6
    258e:	8e3481        	l32r	a8, 0xfffe5e60
    2591:	07ed      	mov.n	a14, a7
    2593:	b72882        	l32i	a8, a8, 0x2dc
    2596:	c1f8      	l32i.n	a15, a1, 48
    2598:	0008e0        	excw
    259b:	0a2d      	mov.n	a2, a10
    259d:	f01d      	excw
    259f:	03ad      	mov.n	a10, a3
    25a1:	04bd      	mov.n	a11, a4
    25a3:	05cd      	mov.n	a12, a5
    25a5:	06dd      	mov.n	a13, a6
    25a7:	8e3481        	l32r	a8, 0xfffe5e78
    25aa:	07ed      	mov.n	a14, a7
    25ac:	a52882        	l32i	a8, a8, 0x294
    25af:	c1f8      	l32i.n	a15, a1, 48
    25b1:	0008e0        	excw
    25b4:	0a2d      	mov.n	a2, a10
    25b6:	f01d      	excw
    25b8:	03ad      	mov.n	a10, a3
    25ba:	04bd      	mov.n	a11, a4
    25bc:	05cd      	mov.n	a12, a5
    25be:	06dd      	mov.n	a13, a6
    25c0:	8e3481        	l32r	a8, 0xfffe5e90
    25c3:	07ed      	mov.n	a14, a7
    25c5:	a52882        	l32i	a8, a8, 0x294
    25c8:	c1f8      	l32i.n	a15, a1, 48
    25ca:	0008e0        	excw
    25cd:	0a2d      	mov.n	a2, a10
    25cf:	f01d      	excw
    25d1:	03ad      	mov.n	a10, a3
    25d3:	04bd      	mov.n	a11, a4
    25d5:	05cd      	mov.n	a12, a5
    25d7:	06dd      	mov.n	a13, a6
    25d9:	8e3481        	l32r	a8, 0xfffe5eac
    25dc:	07ed      	mov.n	a14, a7
    25de:	a62882        	l32i	a8, a8, 0x298
    25e1:	c1f8      	l32i.n	a15, a1, 48
    25e3:	0008e0        	excw
    25e6:	0a2d      	mov.n	a2, a10
    25e8:	f01d      	excw
    25ea:	03ad      	mov.n	a10, a3
    25ec:	04bd      	mov.n	a11, a4
    25ee:	05cd      	mov.n	a12, a5
    25f0:	06dd      	mov.n	a13, a6
    25f2:	8e3481        	l32r	a8, 0xfffe5ec4
    25f5:	07ed      	mov.n	a14, a7
    25f7:	a42882        	l32i	a8, a8, 0x290
    25fa:	c1f8      	l32i.n	a15, a1, 48
    25fc:	0008e0        	excw
    25ff:	0a2d      	mov.n	a2, a10
    2601:	f01d      	excw
    2603:	03ad      	mov.n	a10, a3
    2605:	04bd      	mov.n	a11, a4
    2607:	05cd      	mov.n	a12, a5
    2609:	06dd      	mov.n	a13, a6
    260b:	8e3481        	l32r	a8, 0xfffe5edc
    260e:	07ed      	mov.n	a14, a7
    2610:	a32882        	l32i	a8, a8, 0x28c
    2613:	c1f8      	l32i.n	a15, a1, 48
    2615:	0008e0        	excw
    2618:	0a2d      	mov.n	a2, a10
    261a:	f01d      	excw
    261c:	03ad      	mov.n	a10, a3
    261e:	04bd      	mov.n	a11, a4
    2620:	05cd      	mov.n	a12, a5
    2622:	06dd      	mov.n	a13, a6
    2624:	8e3481        	l32r	a8, 0xfffe5ef4
    2627:	07ed      	mov.n	a14, a7
    2629:	a22882        	l32i	a8, a8, 0x288
    262c:	c1f8      	l32i.n	a15, a1, 48
    262e:	0008e0        	excw
    2631:	0a2d      	mov.n	a2, a10
    2633:	f01d      	excw
    2635:	03ad      	mov.n	a10, a3
    2637:	04bd      	mov.n	a11, a4
    2639:	05cd      	mov.n	a12, a5
    263b:	06dd      	mov.n	a13, a6
    263d:	8e3481        	l32r	a8, 0xfffe5f10
    2640:	07ed      	mov.n	a14, a7
    2642:	8f2882        	l32i	a8, a8, 0x23c
    2645:	c1f8      	l32i.n	a15, a1, 48
    2647:	0008e0        	excw
    264a:	0a2d      	mov.n	a2, a10
    264c:	f01d      	excw
    264e:	03ad      	mov.n	a10, a3
    2650:	04bd      	mov.n	a11, a4
    2652:	05cd      	mov.n	a12, a5
    2654:	06dd      	mov.n	a13, a6
    2656:	8e3481        	l32r	a8, 0xfffe5f28
    2659:	07ed      	mov.n	a14, a7
    265b:	8e2882        	l32i	a8, a8, 0x238
    265e:	c1f8      	l32i.n	a15, a1, 48
    2660:	0008e0        	excw
    2663:	0a2d      	mov.n	a2, a10
    2665:	f01d      	excw
    2667:	03ad      	mov.n	a10, a3
    2669:	04bd      	mov.n	a11, a4
    266b:	05cd      	mov.n	a12, a5
    266d:	06dd      	mov.n	a13, a6
    266f:	8e3481        	l32r	a8, 0xfffe5f40
    2672:	07ed      	mov.n	a14, a7
    2674:	8d2882        	l32i	a8, a8, 0x234
    2677:	c1f8      	l32i.n	a15, a1, 48
    2679:	0008e0        	excw
    267c:	0a2d      	mov.n	a2, a10
    267e:	f01d      	excw
    2680:	03ad      	mov.n	a10, a3
    2682:	04bd      	mov.n	a11, a4
    2684:	05cd      	mov.n	a12, a5
    2686:	06dd      	mov.n	a13, a6
    2688:	8e3481        	l32r	a8, 0xfffe5f58
    268b:	07ed      	mov.n	a14, a7
    268d:	8c2882        	l32i	a8, a8, 0x230
    2690:	c1f8      	l32i.n	a15, a1, 48
    2692:	0008e0        	excw
    2695:	0a2d      	mov.n	a2, a10
    2697:	f01d      	excw
    2699:	03ad      	mov.n	a10, a3
    269b:	04bd      	mov.n	a11, a4
    269d:	05cd      	mov.n	a12, a5
    269f:	06dd      	mov.n	a13, a6
    26a1:	8e3481        	l32r	a8, 0xfffe5f74
    26a4:	07ed      	mov.n	a14, a7
    26a6:	8b2882        	l32i	a8, a8, 0x22c
    26a9:	c1f8      	l32i.n	a15, a1, 48
    26ab:	0008e0        	excw
    26ae:	0a2d      	mov.n	a2, a10
    26b0:	f01d      	excw
    26b2:	03ad      	mov.n	a10, a3
    26b4:	04bd      	mov.n	a11, a4
    26b6:	05cd      	mov.n	a12, a5
    26b8:	06dd      	mov.n	a13, a6
    26ba:	8e3481        	l32r	a8, 0xfffe5f8c
    26bd:	07ed      	mov.n	a14, a7
    26bf:	8b2882        	l32i	a8, a8, 0x22c
    26c2:	c1f8      	l32i.n	a15, a1, 48
    26c4:	0008e0        	excw
    26c7:	0a2d      	mov.n	a2, a10
    26c9:	f01d      	excw
    26cb:	03ad      	mov.n	a10, a3
    26cd:	04bd      	mov.n	a11, a4
    26cf:	05cd      	mov.n	a12, a5
    26d1:	06dd      	mov.n	a13, a6
    26d3:	8e3481        	l32r	a8, 0xfffe5fa4
    26d6:	07ed      	mov.n	a14, a7
    26d8:	8a2882        	l32i	a8, a8, 0x228
    26db:	c1f8      	l32i.n	a15, a1, 48
    26dd:	0008e0        	excw
    26e0:	0a2d      	mov.n	a2, a10
    26e2:	f01d      	excw
    26e4:	03ad      	mov.n	a10, a3
    26e6:	04bd      	mov.n	a11, a4
    26e8:	05cd      	mov.n	a12, a5
    26ea:	06dd      	mov.n	a13, a6
    26ec:	8e3481        	l32r	a8, 0xfffe5fbc
    26ef:	07ed      	mov.n	a14, a7
    26f1:	892882        	l32i	a8, a8, 0x224
    26f4:	c1f8      	l32i.n	a15, a1, 48
    26f6:	0008e0        	excw
    26f9:	0a2d      	mov.n	a2, a10
    26fb:	f01d      	excw
    26fd:	03ad      	mov.n	a10, a3
    26ff:	04bd      	mov.n	a11, a4
    2701:	05cd      	mov.n	a12, a5
    2703:	06dd      	mov.n	a13, a6
    2705:	8e3481        	l32r	a8, 0xfffe5fd8
    2708:	07ed      	mov.n	a14, a7
    270a:	862882        	l32i	a8, a8, 0x218
    270d:	c1f8      	l32i.n	a15, a1, 48
    270f:	0008e0        	excw
    2712:	0a2d      	mov.n	a2, a10
    2714:	f01d      	excw
    2716:	03ad      	mov.n	a10, a3
    2718:	04bd      	mov.n	a11, a4
    271a:	05cd      	mov.n	a12, a5
    271c:	06dd      	mov.n	a13, a6
    271e:	8e3481        	l32r	a8, 0xfffe5ff0
    2721:	07ed      	mov.n	a14, a7
    2723:	882882        	l32i	a8, a8, 0x220
    2726:	c1f8      	l32i.n	a15, a1, 48
    2728:	0008e0        	excw
    272b:	0a2d      	mov.n	a2, a10
    272d:	f01d      	excw
    272f:	03ad      	mov.n	a10, a3
    2731:	04bd      	mov.n	a11, a4
    2733:	05cd      	mov.n	a12, a5
    2735:	06dd      	mov.n	a13, a6
    2737:	8e3481        	l32r	a8, 0xfffe6008
    273a:	07ed      	mov.n	a14, a7
    273c:	872882        	l32i	a8, a8, 0x21c
    273f:	c1f8      	l32i.n	a15, a1, 48
    2741:	0008e0        	excw
    2744:	0a2d      	mov.n	a2, a10
    2746:	f01d      	excw
    2748:	03ad      	mov.n	a10, a3
    274a:	04bd      	mov.n	a11, a4
    274c:	05cd      	mov.n	a12, a5
    274e:	06dd      	mov.n	a13, a6
    2750:	8e3481        	l32r	a8, 0xfffe6020
    2753:	07ed      	mov.n	a14, a7
    2755:	852882        	l32i	a8, a8, 0x214
    2758:	c1f8      	l32i.n	a15, a1, 48
    275a:	0008e0        	excw
    275d:	0a2d      	mov.n	a2, a10
    275f:	f01d      	excw
    2761:	03ad      	mov.n	a10, a3
    2763:	04bd      	mov.n	a11, a4
    2765:	05cd      	mov.n	a12, a5
    2767:	06dd      	mov.n	a13, a6
    2769:	8e3481        	l32r	a8, 0xfffe603c
    276c:	07ed      	mov.n	a14, a7
    276e:	862882        	l32i	a8, a8, 0x218
    2771:	c1f8      	l32i.n	a15, a1, 48
    2773:	0008e0        	excw
    2776:	0a2d      	mov.n	a2, a10
    2778:	f01d      	excw
    277a:	03ad      	mov.n	a10, a3
    277c:	04bd      	mov.n	a11, a4
    277e:	05cd      	mov.n	a12, a5
    2780:	06dd      	mov.n	a13, a6
    2782:	8e3481        	l32r	a8, 0xfffe6054
    2785:	07ed      	mov.n	a14, a7
    2787:	842882        	l32i	a8, a8, 0x210
    278a:	c1f8      	l32i.n	a15, a1, 48
    278c:	0008e0        	excw
    278f:	0a2d      	mov.n	a2, a10
    2791:	f01d      	excw
    2793:	03ad      	mov.n	a10, a3
    2795:	04bd      	mov.n	a11, a4
    2797:	05cd      	mov.n	a12, a5
    2799:	06dd      	mov.n	a13, a6
    279b:	8e3481        	l32r	a8, 0xfffe606c
    279e:	07ed      	mov.n	a14, a7
    27a0:	832882        	l32i	a8, a8, 0x20c
    27a3:	c1f8      	l32i.n	a15, a1, 48
    27a5:	0008e0        	excw
    27a8:	0a2d      	mov.n	a2, a10
    27aa:	f01d      	excw
    27ac:	03ad      	mov.n	a10, a3
    27ae:	04bd      	mov.n	a11, a4
    27b0:	05cd      	mov.n	a12, a5
    27b2:	06dd      	mov.n	a13, a6
    27b4:	8e3481        	l32r	a8, 0xfffe6084
    27b7:	07ed      	mov.n	a14, a7
    27b9:	822882        	l32i	a8, a8, 0x208
    27bc:	c1f8      	l32i.n	a15, a1, 48
    27be:	0008e0        	excw
    27c1:	0a2d      	mov.n	a2, a10
    27c3:	f01d      	excw
    27c5:	03ad      	mov.n	a10, a3
    27c7:	04bd      	mov.n	a11, a4
    27c9:	05cd      	mov.n	a12, a5
    27cb:	06dd      	mov.n	a13, a6
    27cd:	8e3481        	l32r	a8, 0xfffe60a0
    27d0:	07ed      	mov.n	a14, a7
    27d2:	812882        	l32i	a8, a8, 0x204
    27d5:	c1f8      	l32i.n	a15, a1, 48
    27d7:	0008e0        	excw
    27da:	0a2d      	mov.n	a2, a10
    27dc:	f01d      	excw
    27de:	03ad      	mov.n	a10, a3
    27e0:	04bd      	mov.n	a11, a4
    27e2:	05cd      	mov.n	a12, a5
    27e4:	06dd      	mov.n	a13, a6
    27e6:	8e3481        	l32r	a8, 0xfffe60b8
    27e9:	07ed      	mov.n	a14, a7
    27eb:	802882        	l32i	a8, a8, 0x200
    27ee:	c1f8      	l32i.n	a15, a1, 48
    27f0:	0008e0        	excw
    27f3:	0a2d      	mov.n	a2, a10
    27f5:	f01d      	excw
    27f7:	03ad      	mov.n	a10, a3
    27f9:	04bd      	mov.n	a11, a4
    27fb:	05cd      	mov.n	a12, a5
    27fd:	06dd      	mov.n	a13, a6
    27ff:	8e3481        	l32r	a8, 0xfffe60d0
    2802:	07ed      	mov.n	a14, a7
    2804:	802882        	l32i	a8, a8, 0x200
    2807:	c1f8      	l32i.n	a15, a1, 48
    2809:	0008e0        	excw
    280c:	0a2d      	mov.n	a2, a10
    280e:	f01d      	excw
    2810:	03ad      	mov.n	a10, a3
    2812:	04bd      	mov.n	a11, a4
    2814:	05cd      	mov.n	a12, a5
    2816:	06dd      	mov.n	a13, a6
    2818:	8e3481        	l32r	a8, 0xfffe60e8
    281b:	07ed      	mov.n	a14, a7
    281d:	7f2882        	l32i	a8, a8, 0x1fc
    2820:	c1f8      	l32i.n	a15, a1, 48
    2822:	0008e0        	excw
    2825:	0a2d      	mov.n	a2, a10
    2827:	f01d      	excw
    2829:	03ad      	mov.n	a10, a3
    282b:	04bd      	mov.n	a11, a4
    282d:	05cd      	mov.n	a12, a5
    282f:	06dd      	mov.n	a13, a6
    2831:	8e3481        	l32r	a8, 0xfffe6104
    2834:	07ed      	mov.n	a14, a7
    2836:	7e2882        	l32i	a8, a8, 0x1f8
    2839:	c1f8      	l32i.n	a15, a1, 48
    283b:	0008e0        	excw
    283e:	0a2d      	mov.n	a2, a10
    2840:	f01d      	excw
    2842:	03ad      	mov.n	a10, a3
    2844:	04bd      	mov.n	a11, a4
    2846:	05cd      	mov.n	a12, a5
    2848:	06dd      	mov.n	a13, a6
    284a:	8e3481        	l32r	a8, 0xfffe611c
    284d:	07ed      	mov.n	a14, a7
    284f:	7d2882        	l32i	a8, a8, 0x1f4
    2852:	c1f8      	l32i.n	a15, a1, 48
    2854:	0008e0        	excw
    2857:	0a2d      	mov.n	a2, a10
    2859:	f01d      	excw
    285b:	03ad      	mov.n	a10, a3
    285d:	04bd      	mov.n	a11, a4
    285f:	05cd      	mov.n	a12, a5
    2861:	06dd      	mov.n	a13, a6
    2863:	8e3481        	l32r	a8, 0xfffe6134
    2866:	07ed      	mov.n	a14, a7
    2868:	7c2882        	l32i	a8, a8, 0x1f0
    286b:	c1f8      	l32i.n	a15, a1, 48
    286d:	0008e0        	excw
    2870:	0a2d      	mov.n	a2, a10
    2872:	f01d      	excw
    2874:	03ad      	mov.n	a10, a3
    2876:	04bd      	mov.n	a11, a4
    2878:	05cd      	mov.n	a12, a5
    287a:	06dd      	mov.n	a13, a6
    287c:	8e3481        	l32r	a8, 0xfffe614c
    287f:	07ed      	mov.n	a14, a7
    2881:	7b2882        	l32i	a8, a8, 0x1ec
    2884:	c1f8      	l32i.n	a15, a1, 48
    2886:	0008e0        	excw
    2889:	0a2d      	mov.n	a2, a10
    288b:	f01d      	excw
    288d:	03ad      	mov.n	a10, a3
    288f:	04bd      	mov.n	a11, a4
    2891:	05cd      	mov.n	a12, a5
    2893:	06dd      	mov.n	a13, a6
    2895:	8e3481        	l32r	a8, 0xfffe6168
    2898:	07ed      	mov.n	a14, a7
    289a:	7a2882        	l32i	a8, a8, 0x1e8
    289d:	c1f8      	l32i.n	a15, a1, 48
    289f:	0008e0        	excw
    28a2:	0a2d      	mov.n	a2, a10
    28a4:	f01d      	excw
    28a6:	03ad      	mov.n	a10, a3
    28a8:	04bd      	mov.n	a11, a4
    28aa:	05cd      	mov.n	a12, a5
    28ac:	06dd      	mov.n	a13, a6
    28ae:	8e3481        	l32r	a8, 0xfffe6180
    28b1:	07ed      	mov.n	a14, a7
    28b3:	792882        	l32i	a8, a8, 0x1e4
    28b6:	c1f8      	l32i.n	a15, a1, 48
    28b8:	0008e0        	excw
    28bb:	0a2d      	mov.n	a2, a10
    28bd:	f01d      	excw
    28bf:	613600        	excw
    28c2:	a38200        	movltz	a8, a2, a0
    28c5:	9487f2        	excw
    28c8:	72e652        	excw
    28cb:	4f          	.byte 0x4f
    28cc:	02bd      	mov.n	a11, a2
    28ce:	a12b      	addi.n	a10, a1, 2
    28d0:	8e3481        	l32r	a8, 0xfffe61a0
    28d3:	090c      	movi.n	a9, 0
    28d5:	005192        	s16i	a9, a1, 0
    28d8:	132882        	l32i	a8, a8, 76
    28db:	005a92        	s16i	a9, a10, 0
    28de:	0a03c2        	l8ui	a12, a3, 10
    28e1:	2a0c      	movi.n	a10, 2
    28e3:	0008e0        	excw
    28e6:	f3f8      	l32i.n	a15, a3, 60
    28e8:	487f87        	bbci	a15, 24, 0x2934
    28eb:	02ad      	mov.n	a10, a2
    28ed:	05cd      	mov.n	a12, a5
    28ef:	06dd      	mov.n	a13, a6
    28f1:	07ed      	mov.n	a14, a7
    28f3:	03bd      	mov.n	a11, a3
    28f5:	8e3a91        	l32r	a9, 0xfffe61e0
    28f8:	8e3441        	l32r	a4, 0xfffe61c8
    28fb:	109f90        	and	a9, a15, a9
    28fe:	3a2482        	l32i	a8, a4, 232
    2901:	f399      	s32i.n	a9, a3, 60
    2903:	0008e0        	excw
    2906:	5a0c      	movi.n	a10, 5
    2908:	ea2482        	l32i	a8, a4, 0x3a8
    290b:	03bd      	mov.n	a11, a3
    290d:	0008e0        	excw
    2910:	3d2482        	l32i	a8, a4, 244
    2913:	03ad      	mov.n	a10, a3
    2915:	0008e0        	excw
    2918:	520c      	movi.n	a2, 5
    291a:	f01d      	excw
    291c:	02ad      	mov.n	a10, a2
    291e:	03bd      	mov.n	a11, a3
    2920:	04cd      	mov.n	a12, a4
    2922:	05dd      	mov.n	a13, a5
    2924:	8e3881        	l32r	a8, 0xfffe6204
    2927:	06ed      	mov.n	a14, a6
    2929:	1888      	l32i.n	a8, a8, 4
    292b:	07fd      	mov.n	a15, a7
    292d:	0008e0        	excw
    2930:	0a2d      	mov.n	a2, a10
    2932:	f01d      	excw
    2934:	07ed      	mov.n	a14, a7
    2936:	2c0c      	movi.n	a12, 2
    2938:	8e3ba1        	l32r	a10, 0xfffe6224
    293b:	005142        	s16i	a4, a1, 0
    293e:	142392        	l32i	a9, a3, 80
    2941:	8e3451        	l32r	a5, 0xfffe6214
    2944:	3b2c      	movi.n	a11, 35
    2946:	06d582        	addmi	a8, a5, 0x600
    2949:	0151b2        	s16i	a11, a1, 2
    294c:	0003d2        	l8ui	a13, a3, 0
    294f:	01bd      	mov.n	a11, a1
    2951:	1099a0        	and	a9, a9, a10
    2954:	3888      	l32i.n	a8, a8, 12
    2956:	eba3a2        	movi	a10, 0x3eb
    2959:	146392        	s32i	a9, a3, 80
    295c:	0008e0        	excw
    295f:	d3ab      	addi.n	a13, a3, 10
    2961:	8e3ec1        	l32r	a12, 0xfffe625c
    2964:	9e1c      	movi.n	a14, 25
    2966:	1d2582        	l32i	a8, a5, 116
    2969:	8e3cb1        	l32r	a11, 0xfffe625c
    296c:	142392        	l32i	a9, a3, 80
    296f:	8e3da1        	l32r	a10, 0xfffe6264
    2972:	2099b0        	or	a9, a9, a11
    2975:	02bd      	mov.n	a11, a2
    2977:	1099a0        	and	a9, a9, a10
    297a:	146392        	s32i	a9, a3, 80
    297d:	2a0c      	movi.n	a10, 2
    297f:	0008e0        	excw
    2982:	2a3c      	movi.n	a10, 50
    2984:	8e3fb1        	l32r	a11, 0xfffe6280
    2987:	0011e5        	excw
    298a:	020c      	movi.n	a2, 0
    298c:	f01d      	excw
    298e:	360000        	excw
    2991:	8c0041        	l32r	a4, 0xfffe5994
    2994:	2a3ca4        	excw
    2997:	8e40b1        	l32r	a11, 0xfffe6298
    299a:	0010a5        	excw
    299d:	921c      	movi.n	a2, 25
    299f:	f01d      	excw
    29a1:	02ad      	mov.n	a10, a2
    29a3:	03bd      	mov.n	a11, a3
    29a5:	04cd      	mov.n	a12, a4
    29a7:	8e3881        	l32r	a8, 0xfffe6288
    29aa:	05dd      	mov.n	a13, a5
    29ac:	2888      	l32i.n	a8, a8, 8
    29ae:	06ed      	mov.n	a14, a6
    29b0:	0008e0        	excw
    29b3:	0a2d      	mov.n	a2, a10
    29b5:	f01d      	excw
    29b7:	613600        	excw
    29ba:	05ad00        	extui	a10, a0, 29, 1
    29bd:	8e4181        	l32r	a8, 0xfffe62c4
    29c0:	01bd      	mov.n	a11, a1
    29c2:	f22882        	l32i	a8, a8, 0x3c8
    29c5:	1179      	s32i.n	a7, a1, 4
    29c7:	0008e0        	excw
    29ca:	0a7d      	mov.n	a7, a10
    29cc:	aacc      	bnez.n	a10, 0x29da
    29ce:	2a3c      	movi.n	a10, 50
    29d0:	8e42b1        	l32r	a11, 0xfffe62d8
    29d3:	000d25        	excw
    29d6:	921c      	movi.n	a2, 25
    29d8:	f01d      	excw
    29da:	8e4181        	l32r	a8, 0xfffe62e0
    29dd:	ff2882        	l32i	a8, a8, 0x3fc
    29e0:	03ad      	mov.n	a10, a3
    29e2:	0008e0        	excw
    29e5:	0a3d      	mov.n	a3, a10
    29e7:	feba16        	beqz	a10, 0x29d6
    29ea:	11a8      	l32i.n	a10, a1, 4
    29ec:	8e4181        	l32r	a8, 0xfffe62f0
    29ef:	1427b2        	l32i	a11, a7, 80
    29f2:	ee2882        	l32i	a8, a8, 0x3b8
    29f5:	03cd      	mov.n	a12, a3
    29f7:	0008e0        	excw
    29fa:	fd8a16        	beqz	a10, 0x29d6
    29fd:	02ad      	mov.n	a10, a2
    29ff:	04bd      	mov.n	a11, a4
    2a01:	05cd      	mov.n	a12, a5
    2a03:	06dd      	mov.n	a13, a6
    2a05:	0003e0        	excw
    2a08:	0a2d      	mov.n	a2, a10
    2a0a:	f01d      	excw
    2a0c:	004136        	excw
    2a0f:	8e43c1        	l32r	a12, 0xfffe631c
    2a12:	2e2cc2        	l32i	a12, a12, 184
    2a15:	010cc2        	l8ui	a12, a12, 1
    2a18:	5cec      	bnez.n	a12, 0x2a41
    2a1a:	3a0c      	movi.n	a10, 3
    2a1c:	8e44b1        	l32r	a11, 0xfffe632c
    2a1f:	8e3481        	l32r	a8, 0xfffe62f0
    2a22:	500bb2        	l8ui	a11, a11, 80
    2a25:	132882        	l32i	a8, a8, 76
    2a28:	23bb00        	excw
    2a2b:	0008e0        	excw
    2a2e:	8e4581        	l32r	a8, 0xfffe6344
    2a31:	842882        	l32i	a8, a8, 0x210
    2a34:	0008e0        	excw
    2a37:	2a3c      	movi.n	a10, 50
    2a39:	8e46b1        	l32r	a11, 0xfffe6354
    2a3c:	000665        	excw
    2a3f:	f01d      	excw
    2a41:	8e3881        	l32r	a8, 0xfffe6324
    2a44:	02ad      	mov.n	a10, a2
    2a46:	3888      	l32i.n	a8, a8, 12
    2a48:	03bd      	mov.n	a11, a3
    2a4a:	0008e0        	excw
    2a4d:	f01d      	excw
    2a4f:	413600        	srli	a3, a0, 6
    2a52:	029200        	excw
    2a55:	34cc00        	extui	a12, a0, 12, 4
    2a58:	09bd      	mov.n	a11, a9
    2a5a:	000286        	j	0x2a68
    2a5d:	0102b2        	l8ui	a11, a2, 1
    2a60:	11bb80        	slli	a11, a11, 8
    2a63:	b9ba      	add.n	a11, a9, a11
    2a65:	f4b0b0        	extui	a11, a11, 0, 16
    2a68:	8e4791        	l32r	a9, 0xfffe6384
    2a6b:	0a0c      	movi.n	a10, 0
    2a6d:	d019d2        	l16ui	a13, a9, 0x1a0
    2a70:	6729c2        	l32i	a12, a9, 0x19c
    2a73:	1dac      	beqz.n	a13, 0x2a98
    2a75:	90eaa0        	addx2	a14, a10, a10
    2a78:	90eec0        	addx2	a14, a14, a12
    2a7b:	011ef2        	l16ui	a15, a14, 2
    2a7e:	aa1b      	addi.n	a10, a10, 1
    2a80:	0e9fb7        	bne	a15, a11, 0x2a92
    2a83:	1f0c      	movi.n	a15, 1
    2a85:	021e82        	l16ui	a8, a14, 4
    2a88:	020c      	movi.n	a2, 0
    2a8a:	c08830        	sub	a8, a8, a3
    2a8d:	832f80        	moveqz	a2, a15, a8
    2a90:	f01d      	excw
    2a92:	74a0a0        	extui	a10, a10, 0, 8
    2a95:	dc3ad7        	bltu	a10, a13, 0x2a75
    2a98:	2a3c      	movi.n	a10, 50
    2a9a:	8e48b1        	l32r	a11, 0xfffe63bc
    2a9d:	000065        	excw
    2aa0:	020c      	movi.n	a2, 0
    2aa2:	f01d      	excw
    2aa4:	028136        	excw
    2aa7:	01ad      	mov.n	a10, a1
    2aa9:	0b0c      	movi.n	a11, 0
    2aab:	f0a0c2        	movi	a12, 240
    2aae:	426142        	s32i	a4, a1, 0x108
    2ab1:	436152        	s32i	a5, a1, 0x10c
    2ab4:	446162        	s32i	a6, a1, 0x110
    2ab7:	456172        	s32i	a7, a1, 0x114
    2aba:	04ffe5        	excw
    2abd:	03bd      	mov.n	a11, a3
    2abf:	01ad      	mov.n	a10, a1
    2ac1:	20a1f2        	movi	a15, 0x120
    2ac4:	01d182        	addmi	a8, a1, 0x100
    2ac7:	7fc1e2        	addi	a14, a1, 127
    2aca:	890c      	movi.n	a9, 8
    2acc:	3e6192        	s32i	a9, a1, 248
    2acf:	71cee2        	addi	a14, a14, 113
    2ad2:	3d6182        	s32i	a8, a1, 244
    2ad5:	f1fa      	add.n	a15, a1, a15
    2ad7:	8e4981        	l32r	a8, 0xfffe63fc
    2ada:	3c61f2        	s32i	a15, a1, 240
    2add:	0ec8      	l32i.n	a12, a14, 0
    2adf:	1ed8      	l32i.n	a13, a14, 4
    2ae1:	e888      	l32i.n	a8, a8, 56
    2ae3:	2ee8      	l32i.n	a14, a14, 8
    2ae5:	0008e0        	excw
    2ae8:	ffa0a2        	movi	a10, 255
    2aeb:	8e3481        	l32r	a8, 0xfffe63bc
    2aee:	f4a0b2        	movi	a11, 244
    2af1:	c62882        	l32i	a8, a8, 0x318
    2af4:	f4a0c2        	movi	a12, 244
    2af7:	0008e0        	excw
    2afa:	01bd      	mov.n	a11, a1
    2afc:	0a3d      	mov.n	a3, a10
    2afe:	f0a0c2        	movi	a12, 240
    2b01:	0a0aa2        	l8ui	a10, a10, 10
    2b04:	c1a0d2        	movi	a13, 193
    2b07:	aa3a      	add.n	a10, a10, a3
    2b09:	0d4a22        	s8i	a2, a10, 13
    2b0c:	0c4ad2        	s8i	a13, a10, 12
    2b0f:	aaeb      	addi.n	a10, a10, 14
    2b11:	04e865        	excw
    2b14:	8e12b1        	l32r	a11, 0xfffe635c
    2b17:	0bb8      	l32i.n	a11, a11, 0
    2b19:	8e13c1        	l32r	a12, 0xfffe6368
    2b1c:	ebb8      	l32i.n	a11, a11, 56
    2b1e:	0d1bc7        	beq	a11, a12, 0x2b2f
    2b21:	8e1881        	l32r	a8, 0xfffe6384
    2b24:	112882        	l32i	a8, a8, 68
    2b27:	03ad      	mov.n	a10, a3
    2b29:	0008e0        	excw
    2b2c:	000346        	j	0x2b3d
    2b2f:	03cd      	mov.n	a12, a3
    2b31:	8e0e81        	l32r	a8, 0xfffe636c
    2b34:	3a0c      	movi.n	a10, 3
    2b36:	8888      	l32i.n	a8, a8, 32
    2b38:	5b1c      	movi.n	a11, 21
    2b3a:	0008e0        	excw
    2b3d:	020c      	movi.n	a2, 0
    2b3f:	f01d      	excw
    2b41:	000000        	ill
    2b44:	004136        	excw
    2b47:	4f6417        	bbci	a4, 1, 0x2b9a
    2b4a:	e7a382        	movi	a8, 0x3e7
    2b4d:	0103d2        	l8ui	a13, a3, 1
    2b50:	0003c2        	l8ui	a12, a3, 0
    2b53:	11dd80        	slli	a13, a13, 8
    2b56:	ccda      	add.n	a12, a12, a13
    2b58:	f4c0c0        	extui	a12, a12, 0, 16
    2b5b:	51b8c7        	bgeu	a8, a12, 0x2bb0
    2b5e:	3ea4e2        	movi	a14, 0x43e
    2b61:	4b3ec7        	bltu	a14, a12, 0x2bb0
    2b64:	8e4791        	l32r	a9, 0xfffe6480
    2b67:	0a0c      	movi.n	a10, 0
    2b69:	d019e2        	l16ui	a14, a9, 0x1a0
    2b6c:	6729b2        	l32i	a11, a9, 0x19c
    2b6f:	8e9c      	beqz.n	a14, 0x2b8b
    2b71:	90daa0        	addx2	a13, a10, a10
    2b74:	90ddb0        	addx2	a13, a13, a11
    2b77:	021df2        	l16ui	a15, a13, 4
    2b7a:	aa1b      	addi.n	a10, a10, 1
    2b7c:	059fc7        	bne	a15, a12, 0x2b85
    2b7f:	011d92        	l16ui	a9, a13, 2
    2b82:	0001c6        	j	0x2b8d
    2b85:	74a0a0        	extui	a10, a10, 0, 8
    2b88:	e53ae7        	bltu	a10, a14, 0x2b71
    2b8b:	090c      	movi.n	a9, 0
    2b8d:	99cc      	bnez.n	a9, 0x2b9a
    2b8f:	2a3c      	movi.n	a10, 50
    2b91:	8e4ab1        	l32r	a11, 0xfffe64bc
    2b94:	fff0e5        	excw
    2b97:	000746        	j	0x2bb8
    2b9a:	02ad      	mov.n	a10, a2
    2b9c:	03bd      	mov.n	a11, a3
    2b9e:	04cd      	mov.n	a12, a4
    2ba0:	8e3881        	l32r	a8, 0xfffe6480
    2ba3:	05dd      	mov.n	a13, a5
    2ba5:	4888      	l32i.n	a8, a8, 16
    2ba7:	06ed      	mov.n	a14, a6
    2ba9:	0008e0        	excw
    2bac:	0a2d      	mov.n	a2, a10
    2bae:	f01d      	excw
    2bb0:	2a3c      	movi.n	a10, 50
    2bb2:	8e4bb1        	l32r	a11, 0xfffe64e0
    2bb5:	ffeee5        	excw
    2bb8:	921c      	movi.n	a2, 25
    2bba:	f01d      	excw
    2bbc:	004136        	excw
    2bbf:	196417        	bbci	a4, 1, 0x2bdc
    2bc2:	e7a382        	movi	a8, 0x3e7
    2bc5:	0103b2        	l8ui	a11, a3, 1
    2bc8:	0003a2        	l8ui	a10, a3, 0
    2bcb:	11bb80        	slli	a11, a11, 8
    2bce:	aaba      	add.n	a10, a10, a11
    2bd0:	f4a0a0        	extui	a10, a10, 0, 16
    2bd3:	1bb8a7        	bgeu	a8, a10, 0x2bf2
    2bd6:	3ea4c2        	movi	a12, 0x43e
    2bd9:	153ca7        	bltu	a12, a10, 0x2bf2
    2bdc:	02ad      	mov.n	a10, a2
    2bde:	03bd      	mov.n	a11, a3
    2be0:	04cd      	mov.n	a12, a4
    2be2:	8e3881        	l32r	a8, 0xfffe64c4
    2be5:	05dd      	mov.n	a13, a5
    2be7:	5888      	l32i.n	a8, a8, 20
    2be9:	06ed      	mov.n	a14, a6
    2beb:	0008e0        	excw
    2bee:	0a2d      	mov.n	a2, a10
    2bf0:	f01d      	excw
    2bf2:	2a3c      	movi.n	a10, 50
    2bf4:	8e4cb1        	l32r	a11, 0xfffe6524
    2bf7:	ffeae5        	excw
    2bfa:	921c      	movi.n	a2, 25
    2bfc:	f01d      	excw
    2bfe:	360000        	excw
    2c01:	0c00e1        	l32r	a14, 0xfffc5c04
    2c04:	0e          	.byte 0xe
    2c05:	304122        	s8i	a2, a1, 48
    2c08:	f2a382        	movi	a8, 0x3f2
    2c0b:	05ad      	mov.n	a10, a5
    2c0d:	f4d040        	extui	a13, a4, 0, 16
    2c10:	8e3451        	l32r	a5, 0xfffe64e0
    2c13:	1c51d2        	s16i	a13, a1, 56
    2c16:	81a9      	s32i.n	a10, a1, 32
    2c18:	261d87        	beq	a13, a8, 0x2c42
    2c1b:	f8a3a2        	movi	a10, 0x3f8
    2c1e:	3c1da7        	beq	a13, a10, 0x2c5e
    2c21:	8e4db1        	l32r	a11, 0xfffe6558
    2c24:	031db7        	beq	a13, a11, 0x2c2b
    2c27:	0628      	l32i.n	a2, a6, 0
    2c29:	f01d      	excw
    2c2b:	03ad      	mov.n	a10, a3
    2c2d:	06cd      	mov.n	a12, a6
    2c2f:	2d2c      	movi.n	a13, 34
    2c31:	06d9      	s32i.n	a13, a6, 0
    2c33:	3001b2        	l8ui	a11, a1, 48
    2c36:	522582        	l32i	a8, a5, 0x148
    2c39:	23bb00        	excw
    2c3c:	0008e0        	excw
    2c3f:	fff906        	j	0x2c27
    2c42:	03bd      	mov.n	a11, a3
    2c44:	07ed      	mov.n	a14, a7
    2c46:	06dd      	mov.n	a13, a6
    2c48:	0acd      	mov.n	a12, a10
    2c4a:	080c      	movi.n	a8, 0
    2c4c:	0689      	s32i.n	a8, a6, 0
    2c4e:	3001a2        	l8ui	a10, a1, 48
    2c51:	3a2582        	l32i	a8, a5, 232
    2c54:	23aa00        	excw
    2c57:	0008e0        	excw
    2c5a:	020c      	movi.n	a2, 0
    2c5c:	f01d      	excw
    2c5e:	2a0c      	movi.n	a10, 2
    2c60:	132582        	l32i	a8, a5, 76
    2c63:	06e9      	s32i.n	a14, a6, 0
    2c65:	3001b2        	l8ui	a11, a1, 48
    2c68:	0a03c2        	l8ui	a12, a3, 10
    2c6b:	23bb00        	excw
    2c6e:	0008e0        	excw
    2c71:	2a0c      	movi.n	a10, 2
    2c73:	e588      	l32i.n	a8, a5, 56
    2c75:	03bd      	mov.n	a11, a3
    2c77:	0008e0        	excw
    2c7a:	81b8      	l32i.n	a11, a1, 32
    2c7c:	0c1c      	movi.n	a12, 16
    2c7e:	04d1a5        	excw
    2c81:	2a0c      	movi.n	a10, 2
    2c83:	e588      	l32i.n	a8, a5, 56
    2c85:	03bd      	mov.n	a11, a3
    2c87:	0008e0        	excw
    2c8a:	01dd      	mov.n	a13, a1
    2c8c:	0abd      	mov.n	a11, a10
    2c8e:	88a0c2        	movi	a12, 136
    2c91:	8e4e21        	l32r	a2, 0xfffe65cc
    2c94:	c3ca      	add.n	a12, a3, a12
    2c96:	1b2282        	l32i	a8, a2, 108
    2c99:	78c3a2        	addi	a10, a3, 120
    2c9c:	0008e0        	excw
    2c9f:	01ad      	mov.n	a10, a1
    2ca1:	10c1b2        	addi	a11, a1, 16
    2ca4:	6288      	l32i.n	a8, a2, 24
    2ca6:	1003c2        	l8ui	a12, a3, 16
    2ca9:	0008e0        	excw
    2cac:	8e4f21        	l32r	a2, 0xfffe65e8
    2caf:	0003a2        	l8ui	a10, a3, 0
    2cb2:	3f2282        	l32i	a8, a2, 252
    2cb5:	10c1b2        	addi	a11, a1, 16
    2cb8:	0008e0        	excw
    2cbb:	0003a2        	l8ui	a10, a3, 0
    2cbe:	1b0c      	movi.n	a11, 1
    2cc0:	0c43b2        	s8i	a11, a3, 12
    2cc3:	412282        	l32i	a8, a2, 0x104
    2cc6:	1c0c      	movi.n	a12, 1
    2cc8:	0008e0        	excw
    2ccb:	07ed      	mov.n	a14, a7
    2ccd:	38c1b2        	addi	a11, a1, 56
    2cd0:	eaa3a2        	movi	a10, 0x3ea
    2cd3:	8e4581        	l32r	a8, 0xfffe65e8
    2cd6:	2c0c      	movi.n	a12, 2
    2cd8:	2888      	l32i.n	a8, a8, 8
    2cda:	0003d2        	l8ui	a13, a3, 0
    2cdd:	0008e0        	excw
    2ce0:	03ad      	mov.n	a10, a3
    2ce2:	4b0c      	movi.n	a11, 4
    2ce4:	8e50c1        	l32r	a12, 0xfffe6624
    2ce7:	151392        	l16ui	a9, a3, 42
    2cea:	712582        	l32i	a8, a5, 0x1c4
    2ced:	1099c0        	and	a9, a9, a12
    2cf0:	155392        	s16i	a9, a3, 42
    2cf3:	0008e0        	excw
    2cf6:	03ad      	mov.n	a10, a3
    2cf8:	712582        	l32i	a8, a5, 0x1c4
    2cfb:	00a1b2        	movi	a11, 0x100
    2cfe:	0008e0        	excw
    2d01:	080392        	l8ui	a9, a3, 8
    2d04:	8e51b1        	l32r	a11, 0xfffe6648
    2d07:	1423a2        	l32i	a10, a3, 80
    2d0a:	00a4c2        	movi	a12, 0x400
    2d0d:	20aac0        	or	a10, a10, a12
    2d10:	10aab0        	and	a10, a10, a11
    2d13:	1463a2        	s32i	a10, a3, 80
    2d16:	2a3926        	beqi	a9, 3, 0x2d44
    2d19:	274926        	beqi	a9, 4, 0x2d44
    2d1c:	3001b2        	l8ui	a11, a1, 48
    2d1f:	f3d8      	l32i.n	a13, a3, 60
    2d21:	23bb00        	excw
    2d24:	0a6d17        	bbci	a13, 1, 0x2d32
    2d27:	582582        	l32i	a8, a5, 0x160
    2d2a:	03ad      	mov.n	a10, a3
    2d2c:	0008e0        	excw
    2d2f:	ffc9c6        	j	0x2c5a
    2d32:	d3ab      	addi.n	a13, a3, 10
    2d34:	2a0c      	movi.n	a10, 2
    2d36:	8e3ec1        	l32r	a12, 0xfffe6630
    2d39:	1d2582        	l32i	a8, a5, 116
    2d3c:	fe0c      	movi.n	a14, 15
    2d3e:	0008e0        	excw
    2d41:	ffc546        	j	0x2c5a
    2d44:	3d2582        	l32i	a8, a5, 244
    2d47:	03ad      	mov.n	a10, a3
    2d49:	0008e0        	excw
    2d4c:	03bd      	mov.n	a11, a3
    2d4e:	0c03c2        	l8ui	a12, a3, 12
    2d51:	e52582        	l32i	a8, a5, 0x394
    2d54:	142392        	l32i	a9, a3, 80
    2d57:	ffaba2        	movi	a10, 0xfffffbff
    2d5a:	1099a0        	and	a9, a9, a10
    2d5d:	146392        	s32i	a9, a3, 80
    2d60:	0a0c      	movi.n	a10, 0
    2d62:	0008e0        	excw
    2d65:	f3b8      	l32i.n	a11, a3, 60
    2d67:	1e6bb7        	bbci	a11, 11, 0x2d89
    2d6a:	06a8      	l32i.n	a10, a6, 0
    2d6c:	f12582        	l32i	a8, a5, 0x3c4
    2d6f:	03bd      	mov.n	a11, a3
    2d71:	0008e0        	excw
    2d74:	0006a2        	l8ui	a10, a6, 0
    2d77:	442582        	l32i	a8, a5, 0x110
    2d7a:	03bd      	mov.n	a11, a3
    2d7c:	0008e0        	excw
    2d7f:	8e52a1        	l32r	a10, 0xfffe66c8
    2d82:	f398      	l32i.n	a9, a3, 60
    2d84:	1099a0        	and	a9, a9, a10
    2d87:	f399      	s32i.n	a9, a3, 60
    2d89:	1423e2        	l32i	a14, a3, 80
    2d8c:	05bee0        	extui	a11, a14, 30, 1
    2d8f:	ec7b16        	beqz	a11, 0x2c5a
    2d92:	0003c2        	l8ui	a12, a3, 0
    2d95:	dca5a2        	movi	a10, 0x5dc
    2d98:	3d0c      	movi.n	a13, 3
    2d9a:	30c1b2        	addi	a11, a1, 48
    2d9d:	8e53f1        	l32r	a15, 0xfffe66ec
    2da0:	8e4181        	l32r	a8, 0xfffe66a4
    2da3:	10eef0        	and	a14, a14, a15
    2da6:	ca2882        	l32i	a8, a8, 0x328
    2da9:	1463e2        	s32i	a14, a3, 80
    2dac:	0008e0        	excw
    2daf:	ffa9c6        	j	0x2c5a
    2db2:	360000        	excw
    2db5:	710081        	l32r	a8, 0xfffdf1b8
    2db8:	228e34        	excw
    2dbb:	820041        	l32r	a4, 0xfffe35bc
    2dbe:	80eaa3        	excw
    2dc1:	16c084        	excw
    2dc4:	0b48      	l32i.n	a4, a11, 0
    2dc6:	eba392        	movi	a9, 0x3eb
    2dc9:	1c1497        	beq	a4, a9, 0x2de9
    2dcc:	8e4da1        	l32r	a10, 0xfffe6700
    2dcf:	4e94a7        	bne	a4, a10, 0x2e21
    2dd2:	03ad      	mov.n	a10, a3
    2dd4:	06cd      	mov.n	a12, a6
    2dd6:	2e2c      	movi.n	a14, 34
    2dd8:	06e9      	s32i.n	a14, a6, 0
    2dda:	0001b2        	l8ui	a11, a1, 0
    2ddd:	522782        	l32i	a8, a7, 0x148
    2de0:	23bb00        	excw
    2de3:	0008e0        	excw
    2de6:	000dc6        	j	0x2e21
    2de9:	05ad      	mov.n	a10, a5
    2deb:	f8a3b2        	movi	a11, 0x3f8
    2dee:	02d782        	addmi	a8, a7, 0x200
    2df1:	f12882        	l32i	a8, a8, 0x3c4
    2df4:	0c0c      	movi.n	a12, 0
    2df6:	0008e0        	excw
    2df9:	133a16        	beqz	a10, 0x2f30
    2dfc:	2a0c      	movi.n	a10, 2
    2dfe:	0a03c2        	l8ui	a12, a3, 10
    2e01:	0001b2        	l8ui	a11, a1, 0
    2e04:	132782        	l32i	a8, a7, 76
    2e07:	23bb00        	excw
    2e0a:	0008e0        	excw
    2e0d:	03ad      	mov.n	a10, a3
    2e0f:	522782        	l32i	a8, a7, 0x148
    2e12:	5c2c      	movi.n	a12, 37
    2e14:	06c9      	s32i.n	a12, a6, 0
    2e16:	0001b2        	l8ui	a11, a1, 0
    2e19:	06cd      	mov.n	a12, a6
    2e1b:	23bb00        	excw
    2e1e:	0008e0        	excw
    2e21:	0628      	l32i.n	a2, a6, 0
    2e23:	f01d      	excw
    2e25:	3d2782        	l32i	a8, a7, 244
    2e28:	03ad      	mov.n	a10, a3
    2e2a:	0008e0        	excw
    2e2d:	102392        	l32i	a9, a3, 64
    2e30:	116947        	bbci	a9, 4, 0x2e45
    2e33:	8e52b1        	l32r	a11, 0xfffe677c
    2e36:	f3a8      	l32i.n	a10, a3, 60
    2e38:	fc6c      	movi.n	a12, -17
    2e3a:	10c9c0        	and	a12, a9, a12
    2e3d:	1063c2        	s32i	a12, a3, 64
    2e40:	10aab0        	and	a10, a10, a11
    2e43:	f3a9      	s32i.n	a10, a3, 60
    2e45:	1423e2        	l32i	a14, a3, 80
    2e48:	0f6ea7        	bbci	a14, 10, 0x2e5b
    2e4b:	0a0c      	movi.n	a10, 0
    2e4d:	03bd      	mov.n	a11, a3
    2e4f:	e52782        	l32i	a8, a7, 0x394
    2e52:	0c03c2        	l8ui	a12, a3, 12
    2e55:	0008e0        	excw
    2e58:	1423e2        	l32i	a14, a3, 80
    2e5b:	187ee7        	bbci	a14, 30, 0x2e77
    2e5e:	0003c2        	l8ui	a12, a3, 0
    2e61:	dca5a2        	movi	a10, 0x5dc
    2e64:	3d0c      	movi.n	a13, 3
    2e66:	01bd      	mov.n	a11, a1
    2e68:	8e53f1        	l32r	a15, 0xfffe67b4
    2e6b:	ca2282        	l32i	a8, a2, 0x328
    2e6e:	10eef0        	and	a14, a14, a15
    2e71:	1463e2        	s32i	a14, a3, 80
    2e74:	0008e0        	excw
    2e77:	020c      	movi.n	a2, 0
    2e79:	f01d      	excw
    2e7b:	05ad      	mov.n	a10, a5
    2e7d:	f8a3b2        	movi	a11, 0x3f8
    2e80:	0c0c      	movi.n	a12, 0
    2e82:	02d722        	addmi	a2, a7, 0x200
    2e85:	f12282        	l32i	a8, a2, 0x3c4
    2e88:	06c9      	s32i.n	a12, a6, 0
    2e8a:	0008e0        	excw
    2e8d:	09fa16        	beqz	a10, 0x2f30
    2e90:	2a0c      	movi.n	a10, 2
    2e92:	0a03c2        	l8ui	a12, a3, 10
    2e95:	0001b2        	l8ui	a11, a1, 0
    2e98:	132782        	l32i	a8, a7, 76
    2e9b:	23bb00        	excw
    2e9e:	0008e0        	excw
    2ea1:	8e4f81        	l32r	a8, 0xfffe67e0
    2ea4:	00a4a2        	movi	a10, 0x400
    2ea7:	142392        	l32i	a9, a3, 80
    2eaa:	0d03c2        	l8ui	a12, a3, 13
    2ead:	0c43c2        	s8i	a12, a3, 12
    2eb0:	0cbd      	mov.n	a11, a12
    2eb2:	2099a0        	or	a9, a9, a10
    2eb5:	412882        	l32i	a8, a8, 0x104
    2eb8:	0003a2        	l8ui	a10, a3, 0
    2ebb:	146392        	s32i	a9, a3, 80
    2ebe:	0008e0        	excw
    2ec1:	03ad      	mov.n	a10, a3
    2ec3:	4b0c      	movi.n	a11, 4
    2ec5:	712782        	l32i	a8, a7, 0x1c4
    2ec8:	8e54d1        	l32r	a13, 0xfffe6818
    2ecb:	8e50e1        	l32r	a14, 0xfffe680c
    2ece:	151392        	l16ui	a9, a3, 42
    2ed1:	1423c2        	l32i	a12, a3, 80
    2ed4:	1099e0        	and	a9, a9, a14
    2ed7:	10ccd0        	and	a12, a12, a13
    2eda:	1463c2        	s32i	a12, a3, 80
    2edd:	155392        	s16i	a9, a3, 42
    2ee0:	0008e0        	excw
    2ee3:	03ad      	mov.n	a10, a3
    2ee5:	712782        	l32i	a8, a7, 0x1c4
    2ee8:	00a1b2        	movi	a11, 0x100
    2eeb:	0008e0        	excw
    2eee:	080392        	l8ui	a9, a3, 8
    2ef1:	fdc9a2        	addi	a10, a9, -3
    2ef4:	f2da16        	beqz	a10, 0x2e25
    2ef7:	fcc9b2        	addi	a11, a9, -4
    2efa:	f27b16        	beqz	a11, 0x2e25
    2efd:	572782        	l32i	a8, a7, 0x15c
    2f00:	03ad      	mov.n	a10, a3
    2f02:	0008e0        	excw
    2f05:	16a4a2        	movi	a10, 0x416
    2f08:	0b0c      	movi.n	a11, 0
    2f0a:	2c0c      	movi.n	a12, 2
    2f0c:	8e4581        	l32r	a8, 0xfffe6820
    2f0f:	0003d2        	l8ui	a13, a3, 0
    2f12:	2d2882        	l32i	a8, a8, 180
    2f15:	3e0c      	movi.n	a14, 3
    2f17:	0008e0        	excw
    2f1a:	0001b2        	l8ui	a11, a1, 0
    2f1d:	f398      	l32i.n	a9, a3, 60
    2f1f:	23bb00        	excw
    2f22:	0e6917        	bbci	a9, 1, 0x2f34
    2f25:	582782        	l32i	a8, a7, 0x160
    2f28:	03ad      	mov.n	a10, a3
    2f2a:	0008e0        	excw
    2f2d:	ffd186        	j	0x2e77
    2f30:	c20c      	movi.n	a2, 12
    2f32:	f01d      	excw
    2f34:	d3ab      	addi.n	a13, a3, 10
    2f36:	2a0c      	movi.n	a10, 2
    2f38:	8e3ec1        	l32r	a12, 0xfffe6830
    2f3b:	1d2782        	l32i	a8, a7, 116
    2f3e:	3e1c      	movi.n	a14, 19
    2f40:	0008e0        	excw
    2f43:	ffcc06        	j	0x2e77
    2f46:	360000        	excw
    2f49:	f10041        	l32r	a4, 0xfffff34c
    2f4c:	918e57        	bany	a14, a5, 0x2ee1
    2f4f:	d18e56        	bnez	a14, 0x2c6b
    2f52:	318e55        	excw
    2f55:	418e34        	excw
    2f58:	8e38      	l32i.n	a3, a14, 32
    2f5a:	8d2322        	l32i	a2, a3, 0x234
    2f5d:	1429      	s32i.n	a2, a4, 4
    2f5f:	02d382        	addmi	a8, a3, 0x200
    2f62:	06d3a2        	addmi	a10, a3, 0x600
    2f65:	632352        	l32i	a5, a3, 0x18c
    2f68:	0459      	s32i.n	a5, a4, 0
    2f6a:	392ab2        	l32i	a11, a10, 228
    2f6d:	fa2882        	l32i	a8, a8, 0x3e8
    2f70:	2ac8      	l32i.n	a12, a10, 8
    2f72:	702ae2        	l32i	a14, a10, 0x1c0
    2f75:	8e5f21        	l32r	a2, 0xfffe68f4
    2f78:	976322        	s32i	a2, a3, 0x25c
    2f7b:	706ad2        	s32i	a13, a10, 0x1c0
    2f7e:	2a99      	s32i.n	a9, a10, 8
    2f80:	2489      	s32i.n	a8, a4, 8
    2f82:	34e9      	s32i.n	a14, a4, 12
    2f84:	44c9      	s32i.n	a12, a4, 16
    2f86:	54b9      	s32i.n	a11, a4, 20
    2f88:	8e5d51        	l32r	a5, 0xfffe68fc
    2f8b:	766352        	s32i	a5, a3, 0x1d8
    2f8e:	05d3b2        	addmi	a11, a3, 0x500
    2f91:	8e59c1        	l32r	a12, 0xfffe68f8
    2f94:	8e58e1        	l32r	a14, 0xfffe68f4
    2f97:	8e5c81        	l32r	a8, 0xfffe6908
    2f9a:	8e5b91        	l32r	a9, 0xfffe6908
    2f9d:	04d3d2        	addmi	a13, a3, 0x400
    2fa0:	7a6df2        	s32i	a15, a13, 0x1e8
    2fa3:	636392        	s32i	a9, a3, 0x18c
    2fa6:	8d6382        	s32i	a8, a3, 0x234
    2fa9:	6f6de2        	s32i	a14, a13, 0x1bc
    2fac:	716dc2        	s32i	a12, a13, 0x1c4
    2faf:	8e5e41        	l32r	a4, 0xfffe6928
    2fb2:	8e5aa1        	l32r	a10, 0xfffe691c
    2fb5:	796ba2        	s32i	a10, a11, 0x1e4
    2fb8:	956342        	s32i	a4, a3, 0x254
    2fbb:	f01d      	excw
    2fbd:	000000        	ill
    2fc0:	004136        	excw
    2fc3:	8e6091        	l32r	a9, 0xfffe6944
    2fc6:	a08220        	addx4	a8, a2, a2
    2fc9:	b08890        	addx8	a8, a8, a9
    2fcc:	681832        	l16ui	a3, a8, 208
    2fcf:	691822        	l16ui	a2, a8, 210
    2fd2:	076347        	bbci	a3, 4, 0x2fdd
    2fd5:	1122f0        	slli	a2, a2, 1
    2fd8:	f42020        	extui	a2, a2, 0, 16
    2fdb:	f01d      	excw
    2fdd:	f01d      	excw
    2fdf:	413600        	srli	a3, a0, 6
    2fe2:	822000        	mull	a2, a0, a0
    2fe5:	613190        	excw
    2fe8:	8e          	.byte 0x8e
    2fe9:	118890        	slli	a8, a8, 7
    2fec:	238a      	add.n	a2, a3, a8
    2fee:	8e6231        	l32r	a3, 0xfffe6978
    2ff1:	7f2292        	l32i	a9, a2, 0x1fc
    2ff4:	10a930        	and	a10, a9, a3
    2ff7:	1069d7        	bbci	a9, 13, 0x300b
    2ffa:	0d69e7        	bbci	a9, 14, 0x300b
    2ffd:	8e63a1        	l32r	a10, 0xfffe698c
    3000:	0b0c      	movi.n	a11, 0
    3002:	976d25        	excw
    3005:	7f2292        	l32i	a9, a2, 0x1fc
    3008:	10a930        	and	a10, a9, a3
    300b:	1acc      	bnez.n	a10, 0x3010
    300d:	037907        	bbci	a9, 16, 0x3014
    3010:	120c      	movi.n	a2, 1
    3012:	f01d      	excw
    3014:	020c      	movi.n	a2, 0
    3016:	f01d      	excw
    3018:	004136        	excw
    301b:	8e6481        	l32r	a8, 0xfffe69ac
    301e:	8c0882        	l8ui	a8, a8, 140
    3021:	238800        	excw
    3024:	0718e6        	bgei	a8, 1, 0x302f
    3027:	8e63a1        	l32r	a10, 0xfffe69b4
    302a:	0b0c      	movi.n	a11, 0
    302c:	976a65        	excw
    302f:	ffa092        	movi	a9, 255
    3032:	079297        	bne	a2, a9, 0x303d
    3035:	8e63a1        	l32r	a10, 0xfffe69c4
    3038:	0b0c      	movi.n	a11, 0
    303a:	9769a5        	excw
    303d:	8e6531        	l32r	a3, 0xfffe69d4
    3040:	908220        	addx2	a8, a2, a2
    3043:	118890        	slli	a8, a8, 7
    3046:	338a      	add.n	a3, a3, a8
    3048:	7f03a2        	l8ui	a10, a3, 127
    304b:	6acc      	bnez.n	a10, 0x3055
    304d:	8e63a1        	l32r	a10, 0xfffe69dc
    3050:	0b0c      	movi.n	a11, 0
    3052:	976825        	excw
    3055:	8003a2        	l8ui	a10, a3, 128
    3058:	164ab6        	bltui	a10, 4, 0x3072
    305b:	084a66        	bnei	a10, 4, 0x3067
    305e:	8e6691        	l32r	a9, 0xfffe69f8
    3061:	462992        	l32i	a9, a9, 0x118
    3064:	0ab297        	bgeu	a2, a9, 0x3072
    3067:	8e63a1        	l32r	a10, 0xfffe69f4
    306a:	0b0c      	movi.n	a11, 0
    306c:	976665        	excw
    306f:	8003a2        	l8ui	a10, a3, 128
    3072:	8e6021        	l32r	a2, 0xfffe69f4
    3075:	a02a20        	addx4	a2, a10, a2
    3078:	1228      	l32i.n	a2, a2, 4
    307a:	f01d      	excw
    307c:	004136        	excw
    307f:	023d      	mov.n	a3, a2
    3081:	0752b6        	bltui	a2, 5, 0x308c
    3084:	8e63a1        	l32r	a10, 0xfffe6a10
    3087:	0b0c      	movi.n	a11, 0
    3089:	9764a5        	excw
    308c:	8e6021        	l32r	a2, 0xfffe6a0c
    308f:	902320        	addx2	a2, a3, a2
    3092:	0c1222        	l16ui	a2, a2, 24
    3095:	f01d      	excw
    3097:	413600        	srli	a3, a0, 6
    309a:	675100        	excw
    309d:	8e          	.byte 0x8e
    309e:	906220        	addx2	a6, a2, a2
    30a1:	116690        	slli	a6, a6, 7
    30a4:	556a      	add.n	a5, a5, a6
    30a6:	6c2522        	l32i	a2, a5, 0x1b0
    30a9:	860c      	movi.n	a6, 8
    30ab:	106260        	and	a6, a2, a6
    30ae:	02e237        	bbsi	a2, 3, 0x30b4
    30b1:	426247        	bbci	a2, 4, 0x30f7
    30b4:	b68c      	beqz.n	a6, 0x30c3
    30b6:	8e6891        	l32r	a9, 0xfffe6a58
    30b9:	0388      	l32i.n	a8, a3, 0
    30bb:	208890        	or	a8, a8, a9
    30be:	0389      	s32i.n	a8, a3, 0
    30c0:	6c2522        	l32i	a2, a5, 0x1b0
    30c3:	8e6ad1        	l32r	a13, 0xfffe6a6c
    30c6:	096247        	bbci	a2, 4, 0x30d3
    30c9:	8e69b1        	l32r	a11, 0xfffe6a70
    30cc:	03a8      	l32i.n	a10, a3, 0
    30ce:	20aab0        	or	a10, a10, a11
    30d1:	03a9      	s32i.n	a10, a3, 0
    30d3:	8f2522        	l32i	a2, a5, 0x23c
    30d6:	0020c0        	memw
    30d9:	986d22        	s32i	a2, a13, 0x260
    30dc:	9025f2        	l32i	a15, a5, 0x240
    30df:	0020c0        	memw
    30e2:	996df2        	s32i	a15, a13, 0x264
    30e5:	9125e2        	l32i	a14, a5, 0x244
    30e8:	0020c0        	memw
    30eb:	9a6de2        	s32i	a14, a13, 0x268
    30ee:	9225c2        	l32i	a12, a5, 0x248
    30f1:	0020c0        	memw
    30f4:	9b6dc2        	s32i	a12, a13, 0x26c
    30f7:	f01d      	excw
    30f9:	000000        	ill
    30fc:	004136        	excw
    30ff:	8e6ba1        	l32r	a10, 0xfffe6aac
    3102:	90b220        	addx2	a11, a2, a2
    3105:	11bb90        	slli	a11, a11, 7
    3108:	aaba      	add.n	a10, a10, a11
    310a:	222a82        	l32i	a8, a10, 136
    310d:	8e6cc1        	l32r	a12, 0xfffe6ac0
    3110:	1b6877        	bbci	a8, 7, 0x312f
    3113:	7e0aa2        	l8ui	a10, a10, 126
    3116:	d90cc2        	l8ui	a12, a12, 217
    3119:	081ca7        	beq	a12, a10, 0x3125
    311c:	8e4f81        	l32r	a8, 0xfffe6a58
    311f:	6f2882        	l32i	a8, a8, 0x1bc
    3122:	0008e0        	excw
    3125:	8e6da1        	l32r	a10, 0xfffe6adc
    3128:	0398      	l32i.n	a9, a3, 0
    312a:	2099a0        	or	a9, a9, a10
    312d:	0399      	s32i.n	a9, a3, 0
    312f:	f01d      	excw
    3131:	000000        	ill
    3134:	004136        	excw
    3137:	ffa082        	movi	a8, 255
    313a:	079287        	bne	a2, a8, 0x3145
    313d:	8e63a1        	l32r	a10, 0xfffe6acc
    3140:	0b0c      	movi.n	a11, 0
    3142:	975925        	excw
    3145:	34a020        	extui	a10, a2, 0, 4
    3148:	025ae6        	bgei	a10, 5, 0x314e
    314b:	113ae6        	bgei	a10, 3, 0x3160
    314e:	02aae6        	bgei	a10, 12, 0x3154
    3151:	0b8ae6        	bgei	a10, 8, 0x3160
    3154:	04bae6        	bgei	a10, 16, 0x315c
    3157:	e90c      	movi.n	a9, 14
    3159:	03aa97        	bge	a10, a9, 0x3160
    315c:	020c      	movi.n	a2, 0
    315e:	f01d      	excw
    3160:	120c      	movi.n	a2, 1
    3162:	f01d      	excw
    3164:	004136        	excw
    3167:	02cbe5        	excw
    316a:	1f2ab6        	bltui	a10, 2, 0x318d
    316d:	8e6ea1        	l32r	a10, 0xfffe6b28
    3170:	8e6fc1        	l32r	a12, 0xfffe6b2c
    3173:	011ab2        	l16ui	a11, a10, 2
    3176:	021aa2        	l16ui	a10, a10, 4
    3179:	0b2d      	mov.n	a2, a11
    317b:	0a9c      	beqz.n	a10, 0x318f
    317d:	2f1cc2        	l16ui	a12, a12, 94
    3180:	0bbca7        	bgeu	a12, a10, 0x318f
    3183:	c02ac0        	sub	a2, a10, a12
    3186:	2b2a      	add.n	a2, a11, a2
    3188:	f42020        	extui	a2, a2, 0, 16
    318b:	f01d      	excw
    318d:	020c      	movi.n	a2, 0
    318f:	f01d      	excw
    3191:	000000        	ill
    3194:	004136        	excw
    3197:	8e7081        	l32r	a8, 0xfffe6b58
    319a:	8e6f61        	l32r	a6, 0xfffe6b58
    319d:	c00882        	l8ui	a8, a8, 192
    31a0:	8e6e51        	l32r	a5, 0xfffe6b58
    31a3:	221866        	bnei	a8, 1, 0x31c9
    31a6:	001592        	l16ui	a9, a5, 0
    31a9:	05a4b2        	movi	a11, 0x405
    31ac:	1999b7        	bne	a9, a11, 0x31c9
    31af:	fffb65        	excw
    31b2:	3016c2        	l16ui	a12, a6, 96
    31b5:	8e71d1        	l32r	a13, 0xfffe6b7c
    31b8:	caca      	add.n	a12, a10, a12
    31ba:	899dd2        	l16si	a13, a13, 0x112
    31bd:	2f56c2        	s16i	a12, a6, 94
    31c0:	c0ccd0        	sub	a12, a12, a13
    31c3:	2d56c2        	s16i	a12, a6, 90
    31c6:	0002c6        	j	0x31d5
    31c9:	8e7281        	l32r	a8, 0xfffe6b94
    31cc:	882882        	l32i	a8, a8, 0x220
    31cf:	3016a2        	l16ui	a10, a6, 96
    31d2:	0008e0        	excw
    31d5:	02ad      	mov.n	a10, a2
    31d7:	03bd      	mov.n	a11, a3
    31d9:	2588      	l32i.n	a8, a5, 8
    31db:	04cd      	mov.n	a12, a4
    31dd:	0008e0        	excw
    31e0:	0a2d      	mov.n	a2, a10
    31e2:	f01d      	excw
    31e4:	004136        	excw
    31e7:	8e6f21        	l32r	a2, 0xfffe6ba4
    31ea:	301222        	l16ui	a2, a2, 96
    31ed:	f01d      	excw
    31ef:	413600        	srli	a3, a0, 6
    31f2:	6e8100        	excw
    31f5:	8e          	.byte 0x8e
    31f6:	3888      	l32i.n	a8, a8, 12
    31f8:	0008e0        	excw
    31fb:	7aa0a2        	movi	a10, 122
    31fe:	8e0b81        	l32r	a8, 0xfffe6a2c
    3201:	8e73b1        	l32r	a11, 0xfffe6bd0
    3204:	4888      	l32i.n	a8, a8, 16
    3206:	4c0c      	movi.n	a12, 4
    3208:	0008e0        	excw
    320b:	f01d      	excw
    320d:	000000        	ill
    3210:	006136        	excw
    3213:	906220        	addx2	a6, a2, a2
    3216:	8e6051        	l32r	a5, 0xfffe6b98
    3219:	116690        	slli	a6, a6, 7
    321c:	09d542        	addmi	a4, a5, 0x900
    321f:	464a      	add.n	a4, a6, a4
    3221:	330482        	l8ui	a8, a4, 51
    3224:	1578      	l32i.n	a7, a5, 4
    3226:	238800        	excw
    3229:	0518e6        	bgei	a8, 1, 0x3232
    322c:	750572        	l8ui	a7, a5, 117
    322f:	0002c6        	j	0x323e
    3232:	a41482        	l16ui	a8, a4, 0x148
    3235:	e47170        	extui	a7, a7, 1, 15
    3238:	c07780        	sub	a7, a7, a8
    323b:	e47070        	extui	a7, a7, 0, 15
    323e:	02ad      	mov.n	a10, a2
    3240:	ffd9e5        	excw
    3243:	8e75e1        	l32r	a14, 0xfffe6c18
    3246:	eacc      	bnez.n	a10, 0x3258
    3248:	8e74b1        	l32r	a11, 0xfffe6c18
    324b:	9488      	l32i.n	a8, a4, 36
    324d:	8e5391        	l32r	a9, 0xfffe6b9c
    3250:	1088b0        	and	a8, a8, a11
    3253:	108890        	and	a8, a8, a9
    3256:	9489      	s32i.n	a8, a4, 36
    3258:	66ea      	add.n	a6, a6, a14
    325a:	8006c2        	l8ui	a12, a6, 128
    325d:	8e76f1        	l32r	a15, 0xfffe6c38
    3260:	077c16        	beqz	a12, 0x32db
    3263:	a41492        	l16ui	a9, a4, 0x148
    3266:	fadf82        	addmi	a8, a15, 0xfffffa00
    3269:	41a130        	srli	a10, a3, 1
    326c:	21a9      	s32i.n	a10, a1, 8
    326e:	6b2882        	l32i	a8, a8, 0x1ac
    3271:	c099a0        	sub	a9, a9, a10
    3274:	e49090        	extui	a9, a9, 0, 15
    3277:	a45492        	s16i	a9, a4, 0x148
    327a:	0008e0        	excw
    327d:	0e9a16        	beqz	a10, 0x336a
    3280:	8e6ca1        	l32r	a10, 0xfffe6c30
    3283:	4315d2        	l16ui	a13, a5, 134
    3286:	c70aa2        	l8ui	a10, a10, 199
    3289:	8e77b1        	l32r	a11, 0xfffe6c68
    328c:	90caa0        	addx2	a12, a10, a10
    328f:	11cc90        	slli	a12, a12, 7
    3292:	bbca      	add.n	a11, a11, a12
    3294:	452b92        	l32i	a9, a11, 0x114
    3297:	7e1bc2        	l16ui	a12, a11, 252
    329a:	049190        	extui	a9, a9, 1, 1
    329d:	0e1916        	beqz	a9, 0x3382
    32a0:	023cd7        	bltu	a12, a13, 0x32a6
    32a3:	0036c6        	j	0x3382
    32a6:	8e7681        	l32r	a8, 0xfffe6c80
    32a9:	1b2882        	l32i	a8, a8, 108
    32ac:	0008e0        	excw
    32af:	0a9c      	beqz.n	a10, 0x32c3
    32b1:	8e7681        	l32r	a8, 0xfffe6c8c
    32b4:	8e6ca1        	l32r	a10, 0xfffe6c64
    32b7:	1c2882        	l32i	a8, a8, 112
    32ba:	c70aa2        	l8ui	a10, a10, 199
    32bd:	0008e0        	excw
    32c0:	136a16        	beqz	a10, 0x33fa
    32c3:	190c      	movi.n	a9, 1
    32c5:	0028c6        	j	0x336c
    32c8:	800692        	l8ui	a9, a6, 128
    32cb:	7505a2        	l8ui	a10, a5, 117
    32ce:	998c      	beqz.n	a9, 0x32db
    32d0:	0737a7        	bltu	a7, a10, 0x32db
    32d3:	94b8      	l32i.n	a11, a4, 36
    32d5:	04b0b0        	extui	a11, a11, 0, 1
    32d8:	0a2b16        	beqz	a11, 0x337e
    32db:	3824c2        	l32i	a12, a4, 224
    32de:	c805d2        	l8ui	a13, a5, 200
    32e1:	04c1c0        	extui	a12, a12, 1, 1
    32e4:	096c56        	bnez	a12, 0x337e
    32e7:	04d0d0        	extui	a13, a13, 0, 1
    32ea:	090d56        	bnez	a13, 0x337e
    32ed:	0293b6        	bltui	a3, 10, 0x32f3
    32f0:	002286        	j	0x337e
    32f3:	8e7681        	l32r	a8, 0xfffe6ccc
    32f6:	8e6ca1        	l32r	a10, 0xfffe6ca8
    32f9:	762882        	l32i	a8, a8, 0x1d8
    32fc:	c70aa2        	l8ui	a10, a10, 199
    32ff:	0008e0        	excw
    3302:	9b0592        	l8ui	a9, a5, 155
    3305:	75ba97        	bgeu	a10, a9, 0x337e
    3308:	5304a2        	l8ui	a10, a4, 83
    330b:	093a16        	beqz	a10, 0x33a2
    330e:	8e4181        	l32r	a8, 0xfffe6c14
    3311:	02ad      	mov.n	a10, a2
    3313:	f22882        	l32i	a8, a8, 0x3c8
    3316:	01bd      	mov.n	a11, a1
    3318:	0008e0        	excw
    331b:	263c      	movi.n	a6, 50
    331d:	530472        	l8ui	a7, a4, 83
    3320:	0a5d      	mov.n	a5, a10
    3322:	5d04d2        	l8ui	a13, a4, 93
    3325:	5704c2        	l8ui	a12, a4, 87
    3328:	64a0b2        	movi	a11, 100
    332b:	acda      	add.n	a10, a12, a13
    332d:	82aab0        	mull	a10, a10, a11
    3330:	07bd      	mov.n	a11, a7
    3332:	045be5        	excw
    3335:	11a9      	s32i.n	a10, a1, 4
    3337:	5e04d2        	l8ui	a13, a4, 94
    333a:	5804c2        	l8ui	a12, a4, 88
    333d:	64a0b2        	movi	a11, 100
    3340:	acda      	add.n	a10, a12, a13
    3342:	82aab0        	mull	a10, a10, a11
    3345:	07bd      	mov.n	a11, a7
    3347:	045aa5        	excw
    334a:	08b6a7        	bgeu	a6, a10, 0x3356
    334d:	0563f6        	bgeui	a3, 6, 0x3356
    3350:	1505e2        	l8ui	a14, a5, 21
    3353:	0f5e26        	beqi	a14, 5, 0x3366
    3356:	11b8      	l32i.n	a11, a1, 4
    3358:	bbaa      	add.n	a11, a11, a10
    335a:	29b6b7        	bgeu	a6, a11, 0x3387
    335d:	2643f6        	bgeui	a3, 4, 0x3387
    3360:	1505c2        	l8ui	a12, a5, 21
    3363:	203cb6        	bltui	a12, 3, 0x3387
    3366:	020c      	movi.n	a2, 0
    3368:	f01d      	excw
    336a:	090c      	movi.n	a9, 0
    336c:	21f8      	l32i.n	a15, a1, 8
    336e:	a414e2        	l16ui	a14, a4, 0x148
    3371:	d90b      	addi.n	a13, a9, -1
    3373:	eefa      	add.n	a14, a14, a15
    3375:	e4e0e0        	extui	a14, a14, 0, 15
    3378:	a454e2        	s16i	a14, a4, 0x148
    337b:	f49d56        	bnez	a13, 0x32c8
    337e:	120c      	movi.n	a2, 1
    3380:	f01d      	excw
    3382:	090c      	movi.n	a9, 0
    3384:	fff906        	j	0x336c
    3387:	0bb6a7        	bgeu	a6, a10, 0x3396
    338a:	150582        	l8ui	a8, a5, 21
    338d:	055866        	bnei	a8, 5, 0x3396
    3390:	fcc332        	addi	a3, a3, -4
    3393:	0002c6        	j	0x33a2
    3396:	08b6b7        	bgeu	a6, a11, 0x33a2
    3399:	150592        	l8ui	a9, a5, 21
    339c:	0239b6        	bltui	a9, 3, 0x33a2
    339f:	fec332        	addi	a3, a3, -2
    33a2:	3304a2        	l8ui	a10, a4, 51
    33a5:	23aa00        	excw
    33a8:	2d1aa6        	blti	a10, 1, 0x33d9
    33ab:	02ad      	mov.n	a10, a2
    33ad:	ffc325        	excw
    33b0:	4304c2        	l8ui	a12, a4, 67
    33b3:	8e7681        	l32r	a8, 0xfffe6d8c
    33b6:	4204b2        	l8ui	a11, a4, 66
    33b9:	8888      	l32i.n	a8, a8, 32
    33bb:	93bca0        	movnez	a11, a12, a10
    33be:	74b0b0        	extui	a11, a11, 0, 8
    33c1:	02ad      	mov.n	a10, a2
    33c3:	0008e0        	excw
    33c6:	1b04d2        	l8ui	a13, a4, 27
    33c9:	4dcc      	bnez.n	a13, 0x33d1
    33cb:	9733b6        	bltui	a3, 3, 0x3366
    33ce:	fec332        	addi	a3, a3, -2
    33d1:	11eaf0        	slli	a14, a10, 1
    33d4:	ee1b      	addi.n	a14, a14, 1
    33d6:	8c33e7        	bltu	a3, a14, 0x3366
    33d9:	02ad      	mov.n	a10, a2
    33db:	ffc065        	excw
    33de:	f9ca56        	bnez	a10, 0x337e
    33e1:	0c43f6        	bgeui	a3, 4, 0x33f1
    33e4:	8e6d91        	l32r	a9, 0xfffe6d98
    33e7:	94f8      	l32i.n	a15, a4, 36
    33e9:	20ff90        	or	a15, a15, a9
    33ec:	94f9      	s32i.n	a15, a4, 36
    33ee:	ffe306        	j	0x337e
    33f1:	8963f6        	bgeui	a3, 6, 0x337e
    33f4:	8e7891        	l32r	a9, 0xfffe6dd4
    33f7:	fffb06        	j	0x33e7
    33fa:	090c      	movi.n	a9, 0
    33fc:	ffdb06        	j	0x336c
    33ff:	413600        	srli	a3, a0, 6
    3402:	037d01        	l32r	a0, 0xfffc41f8
    3405:	8e7a81        	l32r	a8, 0xfffe6df0
    3408:	8e7951        	l32r	a5, 0xfffe6dec
    340b:	74e020        	extui	a14, a2, 0, 8
    340e:	7041e2        	s8i	a14, a1, 112
    3411:	904ee0        	addx2	a4, a14, a14
    3414:	114490        	slli	a4, a4, 7
    3417:	f7d562        	addmi	a6, a5, 0xfffff700
    341a:	868a      	add.n	a8, a6, a8
    341c:	245a      	add.n	a2, a4, a5
    341e:	9238      	l32i.n	a3, a2, 36
    3420:	448a      	add.n	a4, a4, a8
    3422:	190222        	l8ui	a2, a2, 25
    3425:	043030        	extui	a3, a3, 0, 1
    3428:	116132        	s32i	a3, a1, 68
    342b:	030c      	movi.n	a3, 0
    342d:	0139      	s32i.n	a3, a1, 0
    342f:	0a3226        	beqi	a2, 3, 0x343d
    3432:	8e63a1        	l32r	a10, 0xfffe6dc0
    3435:	03bd      	mov.n	a11, a3
    3437:	9729e5        	excw
    343a:	7001e2        	l8ui	a14, a1, 112
    343d:	8e7b21        	l32r	a2, 0xfffe6e2c
    3440:	07bd      	mov.n	a11, a7
    3442:	e288      	l32i.n	a8, a2, 56
    3444:	0ead      	mov.n	a10, a14
    3446:	0008e0        	excw
    3449:	1d9a56        	bnez	a10, 0x3626
    344c:	8e7621        	l32r	a2, 0xfffe6e24
    344f:	07bd      	mov.n	a11, a7
    3451:	752282        	l32i	a8, a2, 0x1d4
    3454:	7001a2        	l8ui	a10, a1, 112
    3457:	0008e0        	excw
    345a:	8e7cd1        	l32r	a13, 0xfffe6e4c
    345d:	7001e2        	l8ui	a14, a1, 112
    3460:	1c6a56        	bnez	a10, 0x362a
    3463:	4b0df2        	l8ui	a15, a13, 75
    3466:	021fe7        	beq	a15, a14, 0x346c
    3469:	031ec6        	j	0x40e8
    346c:	4a0d82        	l8ui	a8, a13, 74
    346f:	021826        	beqi	a8, 1, 0x3475
    3472:	031c86        	j	0x40e8
    3475:	1b0da2        	l8ui	a10, a13, 27
    3478:	029a26        	beqi	a10, 10, 0x347e
    347b:	031a46        	j	0x40e8
    347e:	909ee0        	addx2	a9, a14, a14
    3481:	119990        	slli	a9, a9, 7
    3484:	959a      	add.n	a9, a5, a9
    3486:	1b0992        	l8ui	a9, a9, 27
    3489:	198c      	beqz.n	a9, 0x348e
    348b:	031646        	j	0x40e8
    348e:	440db2        	l8ui	a11, a13, 68
    3491:	02eb07        	bbsi	a11, 0, 0x3497
    3494:	031406        	j	0x40e8
    3497:	8e7dc1        	l32r	a12, 0xfffe6e8c
    349a:	530cc2        	l8ui	a12, a12, 83
    349d:	1ccc      	bnez.n	a12, 0x34a2
    349f:	031146        	j	0x40e8
    34a2:	1f0c      	movi.n	a15, 1
    34a4:	464df2        	s8i	a15, a13, 70
    34a7:	006086        	j	0x362d
    34aa:	8e7281        	l32r	a8, 0xfffe6e74
    34ad:	2104a2        	l8ui	a10, a4, 33
    34b0:	ac2882        	l32i	a8, a8, 0x2b0
    34b3:	0b0c      	movi.n	a11, 0
    34b5:	0008e0        	excw
    34b8:	7001c2        	l8ui	a12, a1, 112
    34bb:	90ccc0        	addx2	a12, a12, a12
    34be:	11cc90        	slli	a12, a12, 7
    34c1:	c5ca      	add.n	a12, a5, a12
    34c3:	9ca8      	l32i.n	a10, a12, 36
    34c5:	116a67        	bbci	a10, 6, 0x34da
    34c8:	8e7ee1        	l32r	a14, 0xfffe6ec0
    34cb:	71d8      	l32i.n	a13, a1, 28
    34cd:	bfaff2        	movi	a15, -65
    34d0:	10faf0        	and	a15, a10, a15
    34d3:	9cf9      	s32i.n	a15, a12, 36
    34d5:	20dde0        	or	a13, a13, a14
    34d8:	71d9      	s32i.n	a13, a1, 28
    34da:	8e7f81        	l32r	a8, 0xfffe6ed8
    34dd:	d888      	l32i.n	a8, a8, 52
    34df:	06ad      	mov.n	a10, a6
    34e1:	0008e0        	excw
    34e4:	132192        	l32i	a9, a1, 76
    34e7:	8e1581        	l32r	a8, 0xfffe6d3c
    34ea:	209a90        	or	a9, a10, a9
    34ed:	392882        	l32i	a8, a8, 228
    34f0:	136192        	s32i	a9, a1, 76
    34f3:	0008e0        	excw
    34f6:	8e7fc1        	l32r	a12, 0xfffe6ef4
    34f9:	03acb2        	movi	a11, 0xfffffc03
    34fc:	132192        	l32i	a9, a1, 76
    34ff:	00a2e2        	movi	a14, 0x200
    3502:	10b9b0        	and	a11, a9, a11
    3505:	20bbe0        	or	a11, a11, a14
    3508:	839ba0        	moveqz	a9, a11, a10
    350b:	8e80a1        	l32r	a10, 0xfffe6f0c
    350e:	0020c0        	memw
    3511:	836a92        	s32i	a9, a10, 0x20c
    3514:	2b5666        	bnei	a6, 5, 0x3543
    3517:	2b04b2        	l8ui	a11, a4, 43
    351a:	4d1c      	movi.n	a13, 20
    351c:	029bd7        	bne	a11, a13, 0x3522
    351f:	033986        	j	0x4209
    3522:	ae1c      	movi.n	a14, 26
    3524:	029be7        	bne	a11, a14, 0x352a
    3527:	033786        	j	0x4209
    352a:	ef1c      	movi.n	a15, 30
    352c:	029bf7        	bne	a11, a15, 0x3532
    352f:	033586        	j	0x4209
    3532:	881c      	movi.n	a8, 24
    3534:	091b87        	beq	a11, a8, 0x3541
    3537:	b91c      	movi.n	a9, 27
    3539:	041b97        	beq	a11, a9, 0x3541
    353c:	fa1c      	movi.n	a10, 31
    353e:	019ba7        	bne	a11, a10, 0x3543
    3541:	162c      	movi.n	a6, 33
    3543:	8148      	l32i.n	a4, a1, 32
    3545:	7001a2        	l8ui	a10, a1, 112
    3548:	ec88      	l32i.n	a8, a12, 56
    354a:	06bd      	mov.n	a11, a6
    354c:	0008e0        	excw
    354f:	06bd      	mov.n	a11, a6
    3551:	8e7b81        	l32r	a8, 0xfffe6f40
    3554:	204a40        	or	a4, a10, a4
    3557:	2888      	l32i.n	a8, a8, 8
    3559:	7001a2        	l8ui	a10, a1, 112
    355c:	0008e0        	excw
    355f:	8e8191        	l32r	a9, 0xfffe6f64
    3562:	8e4f61        	l32r	a6, 0xfffe6ea0
    3565:	2009b2        	l8ui	a11, a9, 32
    3568:	0add      	mov.n	a13, a10
    356a:	072b16        	beqz	a11, 0x35e0
    356d:	8e82c1        	l32r	a12, 0xfffe6f78
    3570:	152cc2        	l32i	a12, a12, 84
    3573:	1761a2        	s32i	a10, a1, 92
    3576:	666c67        	bbci	a12, 6, 0x35e0
    3579:	234972        	s8i	a7, a9, 35
    357c:	8e7b81        	l32r	a8, 0xfffe6f68
    357f:	7001a2        	l8ui	a10, a1, 112
    3582:	412882        	l32i	a8, a8, 0x104
    3585:	90aaa0        	addx2	a10, a10, a10
    3588:	11aa90        	slli	a10, a10, 7
    358b:	a5aa      	add.n	a10, a5, a10
    358d:	1a0aa2        	l8ui	a10, a10, 26
    3590:	0008e0        	excw
    3593:	8e7bd1        	l32r	a13, 0xfffe6f80
    3596:	8e81e1        	l32r	a14, 0xfffe6f9c
    3599:	1e6237        	bbci	a2, 3, 0x35bb
    359c:	8e83f1        	l32r	a15, 0xfffe6fa8
    359f:	8e60c1        	l32r	a12, 0xfffe6f20
    35a2:	122182        	l32i	a8, a1, 72
    35a5:	8c2cc2        	l32i	a12, a12, 0x230
    35a8:	8149      	s32i.n	a4, a1, 32
    35aa:	02b8c7        	bgeu	a8, a12, 0x35b0
    35ad:	031bc6        	j	0x4220
    35b0:	8148      	l32i.n	a4, a1, 32
    35b2:	71a282        	movi	a8, 0x271
    35b5:	828c80        	mull	a8, a12, a8
    35b8:	6e6f82        	s32i	a8, a15, 0x1b8
    35bb:	1121a2        	l32i	a10, a1, 68
    35be:	d198      	l32i.n	a9, a1, 52
    35c0:	11aac0        	slli	a10, a10, 4
    35c3:	2099a0        	or	a9, a9, a10
    35c6:	254e92        	s8i	a9, a14, 37
    35c9:	0723b6        	bltui	a3, 2, 0x35d4
    35cc:	f1b8      	l32i.n	a11, a1, 60
    35ce:	030bb2        	l8ui	a11, a11, 3
    35d1:	274eb2        	s8i	a11, a14, 39
    35d4:	452d82        	l32i	a8, a13, 0x114
    35d7:	7001a2        	l8ui	a10, a1, 112
    35da:	0008e0        	excw
    35dd:	1721d2        	l32i	a13, a1, 92
    35e0:	8e6c31        	l32r	a3, 0xfffe6f90
    35e3:	0020c0        	memw
    35e6:	8e80c1        	l32r	a12, 0xfffe6fe8
    35e9:	886c42        	s32i	a4, a12, 0x220
    35ec:	0020c0        	memw
    35ef:	70c1b2        	addi	a11, a1, 112
    35f2:	1cc1a2        	addi	a10, a1, 28
    35f5:	8a6cd2        	s32i	a13, a12, 0x228
    35f8:	662682        	l32i	a8, a6, 0x198
    35fb:	01cd      	mov.n	a12, a1
    35fd:	0008e0        	excw
    3600:	71e8      	l32i.n	a14, a1, 28
    3602:	0020c0        	memw
    3605:	8e6af1        	l32r	a15, 0xfffe6fb0
    3608:	886fe2        	s32i	a14, a15, 0x220
    360b:	9b03d2        	l8ui	a13, a3, 155
    360e:	0a9d66        	bnei	a13, 10, 0x361c
    3611:	7001a2        	l8ui	a10, a1, 112
    3614:	6e2682        	l32i	a8, a6, 0x1b8
    3617:	0b1c      	movi.n	a11, 16
    3619:	0008e0        	excw
    361c:	8e7cb1        	l32r	a11, 0xfffe700c
    361f:	1521c2        	l32i	a12, a1, 84
    3622:	9bc9      	s32i.n	a12, a11, 36
    3624:	ab29      	s32i.n	a2, a11, 40
    3626:	120c      	movi.n	a2, 1
    3628:	f01d      	excw
    362a:	1b0da2        	l8ui	a10, a13, 27
    362d:	4e4632        	s8i	a3, a6, 78
    3630:	1139      	s32i.n	a3, a1, 4
    3632:	2139      	s32i.n	a3, a1, 8
    3634:	58c4f2        	addi	a15, a4, 88
    3637:	8e84c1        	l32r	a12, 0xfffe7048
    363a:	484c      	movi.n	a8, 68
    363c:	8b2c      	movi.n	a11, 40
    363e:	0651b2        	s16i	a11, a1, 12
    3641:	c18e80        	mul16u	a8, a14, a8
    3644:	fcdc72        	addmi	a7, a12, 0xfffffc00
    3647:	502772        	l32i	a7, a7, 0x140
    364a:	1461f2        	s32i	a15, a1, 80
    364d:	778a      	add.n	a7, a7, a8
    364f:	f179      	s32i.n	a7, a1, 60
    3651:	8e7871        	l32r	a7, 0xfffe7034
    3654:	519a66        	bnei	a10, 10, 0x36a9
    3657:	ca0f92        	l8ui	a9, a15, 202
    365a:	0d6927        	bbci	a9, 2, 0x366b
    365d:	1c0c      	movi.n	a12, 1
    365f:	fba0e2        	movi	a14, 251
    3662:	10e9e0        	and	a14, a9, a14
    3665:	ca4fe2        	s8i	a14, a15, 202
    3668:	464dc2        	s8i	a12, a13, 70
    366b:	0651b2        	s16i	a11, a1, 12
    366e:	2139      	s32i.n	a3, a1, 8
    3670:	102282        	l32i	a8, a2, 64
    3673:	1139      	s32i.n	a3, a1, 4
    3675:	0008e0        	excw
    3678:	8e7cd1        	l32r	a13, 0xfffe7068
    367b:	0aed      	mov.n	a14, a10
    367d:	1261a2        	s32i	a10, a1, 72
    3680:	5a3ab6        	bltui	a10, 3, 0x36de
    3683:	460da2        	l8ui	a10, a13, 70
    3686:	054a56        	bnez	a10, 0x36de
    3689:	0c0c      	movi.n	a12, 0
    368b:	7001a2        	l8ui	a10, a1, 112
    368e:	192282        	l32i	a8, a2, 100
    3691:	21d8      	l32i.n	a13, a1, 8
    3693:	8e85b1        	l32r	a11, 0xfffe70a8
    3696:	20dd70        	or	a13, a13, a7
    3699:	63beb0        	excw
    369c:	1261b2        	s32i	a11, a1, 72
    369f:	21d9      	s32i.n	a13, a1, 8
    36a1:	0008e0        	excw
    36a4:	0a2d      	mov.n	a2, a10
    36a6:	000d86        	j	0x36e0
    36a9:	142cb2        	l32i	a11, a12, 80
    36ac:	243bb6        	bltui	a11, 3, 0x36d4
    36af:	2179      	s32i.n	a7, a1, 8
    36b1:	ec7c      	movi.n	a12, -2
    36b3:	02bcb7        	bgeu	a12, a11, 0x36b9
    36b6:	020cc6        	j	0x3eed
    36b9:	0ead      	mov.n	a10, a14
    36bb:	192282        	l32i	a8, a2, 100
    36be:	0c0c      	movi.n	a12, 0
    36c0:	0008e0        	excw
    36c3:	8e7cd1        	l32r	a13, 0xfffe70b4
    36c6:	0a2d      	mov.n	a2, a10
    36c8:	28dd92        	addmi	a9, a13, 0x2800
    36cb:	142992        	l32i	a9, a9, 80
    36ce:	126192        	s32i	a9, a1, 72
    36d1:	0207c6        	j	0x3ef4
    36d4:	020c      	movi.n	a2, 0
    36d6:	0a0c      	movi.n	a10, 0
    36d8:	1261a2        	s32i	a10, a1, 72
    36db:	000046        	j	0x36e0
    36de:	020c      	movi.n	a2, 0
    36e0:	070c      	movi.n	a7, 0
    36e2:	7001e2        	l8ui	a14, a1, 112
    36e5:	90cee0        	addx2	a12, a14, a14
    36e8:	11cc90        	slli	a12, a12, 7
    36eb:	c5ca      	add.n	a12, a5, a12
    36ed:	382cf2        	l32i	a15, a12, 224
    36f0:	5f6f17        	bbci	a15, 1, 0x3753
    36f3:	1698      	l32i.n	a9, a6, 4
    36f5:	04b4f0        	extui	a11, a15, 4, 1
    36f8:	1a0c      	movi.n	a10, 1
    36fa:	8e7681        	l32r	a8, 0xfffe70d4
    36fd:	2d0c      	movi.n	a13, 2
    36ff:	4f2882        	l32i	a8, a8, 0x13c
    3702:	93dab0        	movnez	a13, a10, a11
    3705:	1421b2        	l32i	a11, a1, 80
    3708:	419190        	srli	a9, a9, 1
    370b:	302bc2        	l32i	a12, a11, 192
    370e:	0ead      	mov.n	a10, a14
    3710:	c099c0        	sub	a9, a9, a12
    3713:	8e86c1        	l32r	a12, 0xfffe712c
    3716:	2c1bb2        	l16ui	a11, a11, 88
    3719:	1099c0        	and	a9, a9, a12
    371c:	c70b      	addi.n	a12, a7, -1
    371e:	1199f0        	slli	a9, a9, 1
    3721:	93b9c0        	movnez	a11, a9, a12
    3724:	1661b2        	s32i	a11, a1, 88
    3727:	c1cb      	addi.n	a12, a1, 12
    3729:	0008e0        	excw
    372c:	01a9      	s32i.n	a10, a1, 0
    372e:	052a26        	beqi	a10, 2, 0x3737
    3731:	024a26        	beqi	a10, 4, 0x3737
    3734:	0d5a66        	bnei	a10, 5, 0x3745
    3737:	8e7681        	l32r	a8, 0xfffe7110
    373a:	b0a0a2        	movi	a10, 176
    373d:	452882        	l32i	a8, a8, 0x114
    3740:	a4aa      	add.n	a10, a4, a10
    3742:	0008e0        	excw
    3745:	7001c2        	l8ui	a12, a1, 112
    3748:	90ccc0        	addx2	a12, a12, a12
    374b:	11cc90        	slli	a12, a12, 7
    374e:	c5ca      	add.n	a12, a5, a12
    3750:	000106        	j	0x3758
    3753:	0e0c      	movi.n	a14, 0
    3755:	1661e2        	s32i	a14, a1, 88
    3758:	1b0c82        	l8ui	a8, a12, 27
    375b:	ba0c      	movi.n	a10, 11
    375d:	082856        	bnez	a8, 0x37e3
    3760:	2a0c      	movi.n	a10, 2
    3762:	16b8      	l32i.n	a11, a6, 4
    3764:	4624e2        	l32i	a14, a4, 0x118
    3767:	41b1b0        	srli	a11, a11, 1
    376a:	c0bbe0        	sub	a11, a11, a14
    376d:	8e86e1        	l32r	a14, 0xfffe7188
    3770:	382c92        	l32i	a9, a12, 224
    3773:	10bbe0        	and	a11, a11, a14
    3776:	11bbf0        	slli	a11, a11, 1
    3779:	c1b9      	s32i.n	a11, a1, 48
    377b:	1661b2        	s32i	a11, a1, 88
    377e:	0289a7        	bany	a9, a10, 0x3784
    3781:	029406        	j	0x41d5
    3784:	0198      	l32i.n	a9, a1, 0
    3786:	0229f6        	bgeui	a9, 2, 0x378c
    3789:	029206        	j	0x41d5
    378c:	023966        	bnei	a9, 3, 0x3792
    378f:	029086        	j	0x41d5
    3792:	0611f2        	l16ui	a15, a1, 12
    3795:	4139      	s32i.n	a3, a1, 16
    3797:	c1b8      	l32i.n	a11, a1, 48
    3799:	10c1c2        	addi	a12, a1, 16
    379c:	14c1d2        	addi	a13, a1, 20
    379f:	8e4f81        	l32r	a8, 0xfffe70dc
    37a2:	18c1e2        	addi	a14, a1, 24
    37a5:	7e2882        	l32i	a8, a8, 0x1f8
    37a8:	0fad      	mov.n	a10, a15
    37aa:	0008e0        	excw
    37ad:	7001e2        	l8ui	a14, a1, 112
    37b0:	909ee0        	addx2	a9, a14, a14
    37b3:	119990        	slli	a9, a9, 7
    37b6:	959a      	add.n	a9, a5, a9
    37b8:	382992        	l32i	a9, a9, 224
    37bb:	196917        	bbci	a9, 1, 0x37d8
    37be:	01f8      	l32i.n	a15, a1, 0
    37c0:	145f66        	bnei	a15, 5, 0x37d8
    37c3:	14c1a2        	addi	a10, a1, 20
    37c6:	8e7681        	l32r	a8, 0xfffe71a0
    37c9:	18c1b2        	addi	a11, a1, 24
    37cc:	442882        	l32i	a8, a8, 0x110
    37cf:	10c1c2        	addi	a12, a1, 16
    37d2:	0008e0        	excw
    37d5:	7001e2        	l8ui	a14, a1, 112
    37d8:	90cee0        	addx2	a12, a14, a14
    37db:	11cc90        	slli	a12, a12, 7
    37de:	c5ca      	add.n	a12, a5, a12
    37e0:	000146        	j	0x37e9
    37e3:	41a9      	s32i.n	a10, a1, 16
    37e5:	5139      	s32i.n	a3, a1, 20
    37e7:	6139      	s32i.n	a3, a1, 24
    37e9:	8e4f81        	l32r	a8, 0xfffe7128
    37ec:	400ca2        	l8ui	a10, a12, 64
    37ef:	842882        	l32i	a8, a8, 0x210
    37f2:	fb0c      	movi.n	a11, 15
    37f4:	0008e0        	excw
    37f7:	7001e2        	l8ui	a14, a1, 112
    37fa:	2704a2        	l8ui	a10, a4, 39
    37fd:	90cee0        	addx2	a12, a14, a14
    3800:	11cc90        	slli	a12, a12, 7
    3803:	cc5a      	add.n	a12, a12, a5
    3805:	1b0c92        	l8ui	a9, a12, 27
    3808:	2a04b2        	l8ui	a11, a4, 42
    380b:	09dc      	bnez.n	a9, 0x381f
    380d:	2604f2        	l8ui	a15, a4, 38
    3810:	0b1fa7        	beq	a15, a10, 0x381f
    3813:	290c      	movi.n	a9, 2
    3815:	9c88      	l32i.n	a8, a12, 36
    3817:	194432        	s8i	a3, a4, 25
    381a:	208890        	or	a8, a8, a9
    381d:	9c89      	s32i.n	a8, a12, 36
    381f:	2b04c2        	l8ui	a12, a4, 43
    3822:	2644a2        	s8i	a10, a4, 38
    3825:	029bc7        	bne	a11, a12, 0x382b
    3828:	0020c6        	j	0x38af
    382b:	0ead      	mov.n	a10, a14
    382d:	ff7b25        	excw
    3830:	07ba56        	bnez	a10, 0x38af
    3833:	2a04b2        	l8ui	a11, a4, 42
    3836:	2b44b2        	s8i	a11, a4, 43
    3839:	024b66        	bnei	a11, 4, 0x383f
    383c:	027986        	j	0x4226
    383f:	029b66        	bnei	a11, 10, 0x3845
    3842:	027806        	j	0x4226
    3845:	be0c      	movi.n	a14, 11
    3847:	029be7        	bne	a11, a14, 0x384d
    384a:	027606        	j	0x4226
    384d:	ef0c      	movi.n	a15, 14
    384f:	029bf7        	bne	a11, a15, 0x3855
    3852:	027406        	j	0x4226
    3855:	f80c      	movi.n	a8, 15
    3857:	029b87        	bne	a11, a8, 0x385d
    385a:	027206        	j	0x4226
    385d:	7001c2        	l8ui	a12, a1, 112
    3860:	90ccc0        	addx2	a12, a12, a12
    3863:	11cc90        	slli	a12, a12, 7
    3866:	c5ca      	add.n	a12, a5, a12
    3868:	9ca8      	l32i.n	a10, a12, 36
    386a:	4d1c      	movi.n	a13, 20
    386c:	091bd7        	beq	a11, a13, 0x3879
    386f:	ae1c      	movi.n	a14, 26
    3871:	041be7        	beq	a11, a14, 0x3879
    3874:	ef1c      	movi.n	a15, 30
    3876:	029bf7        	bne	a11, a15, 0x387c
    3879:	1afa87        	bbsi	a10, 24, 0x3897
    387c:	881c      	movi.n	a8, 24
    387e:	121b87        	beq	a11, a8, 0x3894
    3881:	b91c      	movi.n	a9, 27
    3883:	0d1b97        	beq	a11, a9, 0x3894
    3886:	fd1c      	movi.n	a13, 31
    3888:	081bd7        	beq	a11, a13, 0x3894
    388b:	ffabe2        	movi	a14, 0xfffffbff
    388e:	10aae0        	and	a10, a10, a14
    3891:	000206        	j	0x389d
    3894:	f37a97        	bbci	a10, 25, 0x388b
    3897:	00a4f2        	movi	a15, 0x400
    389a:	20aaf0        	or	a10, a10, a15
    389d:	b90c      	movi.n	a9, 11
    389f:	2b0482        	l8ui	a8, a4, 43
    38a2:	9ca9      	s32i.n	a10, a12, 36
    38a4:	079897        	bne	a8, a9, 0x38af
    38a7:	00a4b2        	movi	a11, 0x400
    38aa:	20bab0        	or	a11, a10, a11
    38ad:	9cb9      	s32i.n	a11, a12, 36
    38af:	1421a2        	l32i	a10, a1, 80
    38b2:	161aa2        	l16ui	a10, a10, 44
    38b5:	baac      	beqz.n	a10, 0x38e4
    38b7:	1421c2        	l32i	a12, a1, 80
    38ba:	8e87b1        	l32r	a11, 0xfffe72d8
    38bd:	171cc2        	l16ui	a12, a12, 46
    38c0:	201cb7        	beq	a12, a11, 0x38e4
    38c3:	16e8      	l32i.n	a14, a6, 4
    38c5:	41d1a0        	srli	a13, a10, 1
    38c8:	e4e1e0        	extui	a14, a14, 1, 15
    38cb:	c0eec0        	sub	a14, a14, a12
    38ce:	e4e0e0        	extui	a14, a14, 0, 15
    38d1:	0fbde7        	bgeu	a13, a14, 0x38e4
    38d4:	3b0c      	movi.n	a11, 3
    38d6:	8e4f81        	l32r	a8, 0xfffe7214
    38d9:	0c0c      	movi.n	a12, 0
    38db:	bb2882        	l32i	a8, a8, 0x2ec
    38de:	7001a2        	l8ui	a10, a1, 112
    38e1:	0008e0        	excw
    38e4:	7001c2        	l8ui	a12, a1, 112
    38e7:	90ccc0        	addx2	a12, a12, a12
    38ea:	11cc90        	slli	a12, a12, 7
    38ed:	c5ca      	add.n	a12, a5, a12
    38ef:	9ca8      	l32i.n	a10, a12, 36
    38f1:	8e3c91        	l32r	a9, 0xfffe71e4
    38f4:	0a7a17        	bbci	a10, 17, 0x3902
    38f7:	07fa07        	bbsi	a10, 16, 0x3902
    38fa:	194432        	s8i	a3, a4, 25
    38fd:	20da90        	or	a13, a10, a9
    3900:	9cd9      	s32i.n	a13, a12, 36
    3902:	302cd2        	l32i	a13, a12, 192
    3905:	8e6ac1        	l32r	a12, 0xfffe72b0
    3908:	0020c0        	memw
    390b:	906cd2        	s32i	a13, a12, 0x240
    390e:	70c1b2        	addi	a11, a1, 112
    3911:	70c1d2        	addi	a13, a1, 112
    3914:	000bb2        	l8ui	a11, a11, 0
    3917:	000dd2        	l8ui	a13, a13, 0
    391a:	90bbd0        	addx2	a11, a11, a13
    391d:	11bb90        	slli	a11, a11, 7
    3920:	b5ba      	add.n	a11, a5, a11
    3922:	302bd2        	l32i	a13, a11, 192
    3925:	312bb2        	l32i	a11, a11, 196
    3928:	0020c0        	memw
    392b:	916cb2        	s32i	a11, a12, 0x244
    392e:	70c1a2        	addi	a10, a1, 112
    3931:	b14b      	addi.n	a11, a1, 4
    3933:	000aa2        	l8ui	a10, a10, 0
    3936:	ff7625        	excw
    3939:	7001a2        	l8ui	a10, a1, 112
    393c:	0704b2        	l8ui	a11, a4, 7
    393f:	2004c2        	l8ui	a12, a4, 32
    3942:	8e88d1        	l32r	a13, 0xfffe7364
    3945:	11cc10        	slli	a12, a12, 15
    3948:	10ccd0        	and	a12, a12, a13
    394b:	8e89d1        	l32r	a13, 0xfffe7370
    394e:	01bbb0        	slli	a11, a11, 21
    3951:	10bbd0        	and	a11, a11, a13
    3954:	20bbc0        	or	a11, a11, a12
    3957:	a1b9      	s32i.n	a11, a1, 40
    3959:	b18b      	addi.n	a11, a1, 8
    395b:	ff7a25        	excw
    395e:	7001e2        	l8ui	a14, a1, 112
    3961:	90cee0        	addx2	a12, a14, a14
    3964:	11cc90        	slli	a12, a12, 7
    3967:	c5ca      	add.n	a12, a5, a12
    3969:	1b0cd2        	l8ui	a13, a12, 27
    396c:	191d66        	bnei	a13, 1, 0x3989
    396f:	2304f2        	l8ui	a15, a4, 35
    3972:	021f66        	bnei	a15, 1, 0x3978
    3975:	022546        	j	0x420e
    3978:	142182        	l32i	a8, a1, 80
    397b:	d00882        	l8ui	a8, a8, 208
    397e:	021866        	bnei	a8, 1, 0x3984
    3981:	022246        	j	0x420e
    3984:	030c      	movi.n	a3, 0
    3986:	000046        	j	0x398b
    3989:	030c      	movi.n	a3, 0
    398b:	9c88      	l32i.n	a8, a12, 36
    398d:	267807        	bbci	a8, 16, 0x39b7
    3990:	8e53c1        	l32r	a12, 0xfffe72dc
    3993:	21b8      	l32i.n	a11, a1, 8
    3995:	0d0c      	movi.n	a13, 0
    3997:	460c      	movi.n	a6, 4
    3999:	0e0c      	movi.n	a14, 0
    399b:	8e8af1        	l32r	a15, 0xfffe73c4
    399e:	1561f2        	s32i	a15, a1, 84
    39a1:	e1e9      	s32i.n	a14, a1, 56
    39a3:	202260        	or	a2, a2, a6
    39a6:	1361d2        	s32i	a13, a1, 76
    39a9:	560c      	movi.n	a6, 5
    39ab:	10bbc0        	and	a11, a11, a12
    39ae:	21b9      	s32i.n	a11, a1, 8
    39b0:	070c      	movi.n	a7, 0
    39b2:	330c      	movi.n	a3, 3
    39b4:	003846        	j	0x3a99
    39b7:	201d66        	bnei	a13, 1, 0x39db
    39ba:	230482        	l8ui	a8, a4, 35
    39bd:	1a28b6        	bltui	a8, 2, 0x39db
    39c0:	382c92        	l32i	a9, a12, 224
    39c3:	14e917        	bbsi	a9, 1, 0x39db
    39c6:	e60c      	movi.n	a6, 14
    39c8:	130c      	movi.n	a3, 1
    39ca:	0b0c      	movi.n	a11, 0
    39cc:	0c0c      	movi.n	a12, 0
    39ce:	0d0c      	movi.n	a13, 0
    39d0:	1561d2        	s32i	a13, a1, 84
    39d3:	e1c9      	s32i.n	a12, a1, 56
    39d5:	1361b2        	s32i	a11, a1, 76
    39d8:	002f46        	j	0x3a99
    39db:	320cf2        	l8ui	a15, a12, 50
    39de:	23ff00        	excw
    39e1:	021fe6        	bgei	a15, 1, 0x39e7
    39e4:	012d06        	j	0x3e9c
    39e7:	0ead      	mov.n	a10, a14
    39e9:	ff5f65        	excw
    39ec:	7001e2        	l8ui	a14, a1, 112
    39ef:	90cee0        	addx2	a12, a14, a14
    39f2:	11cc90        	slli	a12, a12, 7
    39f5:	c5ca      	add.n	a12, a5, a12
    39f7:	4a1a56        	bnez	a10, 0x3e9c
    39fa:	8e8b81        	l32r	a8, 0xfffe7428
    39fd:	9cf8      	l32i.n	a15, a12, 36
    39ff:	20ff80        	or	a15, a15, a8
    3a02:	9cf9      	s32i.n	a15, a12, 36
    3a04:	476f27        	bbci	a15, 2, 0x3a4f
    3a07:	f198      	l32i.n	a9, a1, 60
    3a09:	210982        	l8ui	a8, a9, 33
    3a0c:	238800        	excw
    3a0f:	a08890        	addx4	a8, a8, a9
    3a12:	9888      	l32i.n	a8, a8, 36
    3a14:	0a0832        	l8ui	a3, a8, 10
    3a17:	4a3c      	movi.n	a10, 52
    3a19:	338a      	add.n	a3, a3, a8
    3a1b:	0c0392        	l8ui	a9, a3, 12
    3a1e:	33cb      	addi.n	a3, a3, 12
    3a20:	419190        	srli	a9, a9, 1
    3a23:	0a19a7        	beq	a9, a10, 0x3a31
    3a26:	8e63a1        	l32r	a10, 0xfffe73b4
    3a29:	0b0c      	movi.n	a11, 0
    3a2b:	96caa5        	excw
    3a2e:	7001e2        	l8ui	a14, a1, 112
    3a31:	8e7281        	l32r	a8, 0xfffe73fc
    3a34:	d32882        	l32i	a8, a8, 0x34c
    3a37:	0ead      	mov.n	a10, a14
    3a39:	0008e0        	excw
    3a3c:	8e53b1        	l32r	a11, 0xfffe7388
    3a3f:	0143a2        	s8i	a10, a3, 1
    3a42:	41d8a0        	srli	a13, a10, 8
    3a45:	0243d2        	s8i	a13, a3, 2
    3a48:	2198      	l32i.n	a9, a1, 8
    3a4a:	1099b0        	and	a9, a9, a11
    3a4d:	2199      	s32i.n	a9, a1, 8
    3a4f:	f198      	l32i.n	a9, a1, 60
    3a51:	280c      	movi.n	a8, 2
    3a53:	060c      	movi.n	a6, 0
    3a55:	0e0c      	movi.n	a14, 0
    3a57:	0f2c      	movi.n	a15, 32
    3a59:	4b0c      	movi.n	a11, 4
    3a5b:	2022b0        	or	a2, a2, a11
    3a5e:	e1f9      	s32i.n	a15, a1, 56
    3a60:	1361e2        	s32i	a14, a1, 76
    3a63:	156162        	s32i	a6, a1, 84
    3a66:	034982        	s8i	a8, a9, 3
    3a69:	660c      	movi.n	a6, 6
    3a6b:	ffd046        	j	0x39b0
    3a6e:	560c      	movi.n	a6, 5
    3a70:	382cf2        	l32i	a15, a12, 224
    3a73:	096f17        	bbci	a15, 1, 0x3a80
    3a76:	04d4f0        	extui	a13, a15, 4, 1
    3a79:	ac0c      	movi.n	a12, 10
    3a7b:	b60c      	movi.n	a6, 11
    3a7d:	936cd0        	movnez	a6, a12, a13
    3a80:	070c      	movi.n	a7, 0
    3a82:	048aa0        	extui	a8, a10, 10, 1
    3a85:	0e0c      	movi.n	a14, 0
    3a87:	090c      	movi.n	a9, 0
    3a89:	8e3cf1        	l32r	a15, 0xfffe737c
    3a8c:	156192        	s32i	a9, a1, 84
    3a8f:	93ef80        	movnez	a14, a15, a8
    3a92:	1361e2        	s32i	a14, a1, 76
    3a95:	0b0c      	movi.n	a11, 0
    3a97:	e1b9      	s32i.n	a11, a1, 56
    3a99:	8e1581        	l32r	a8, 0xfffe72f0
    3a9c:	472882        	l32i	a8, a8, 0x11c
    3a9f:	0008e0        	excw
    3aa2:	0d1c      	movi.n	a13, 16
    3aa4:	8e8291        	l32r	a9, 0xfffe74ac
    3aa7:	7001e2        	l8ui	a14, a1, 112
    3aaa:	050a56        	bnez	a10, 0x3afe
    3aad:	2404f2        	l8ui	a15, a4, 36
    3ab0:	90aee0        	addx2	a10, a14, a14
    3ab3:	11aa90        	slli	a10, a10, 7
    3ab6:	a5aa      	add.n	a10, a5, a10
    3ab8:	4a1f66        	bnei	a15, 1, 0x3b06
    3abb:	9ab8      	l32i.n	a11, a10, 36
    3abd:	45ebc7        	bbsi	a11, 12, 0x3b06
    3ac0:	8e60c1        	l32r	a12, 0xfffe7440
    3ac3:	221cc2        	l16ui	a12, a12, 68
    3ac6:	ccfc      	bnez.n	a12, 0x3b06
    3ac8:	8e6cf1        	l32r	a15, 0xfffe7478
    3acb:	c60ff2        	l8ui	a15, a15, 198
    3ace:	4ffc      	bnez.n	a15, 0x3b06
    3ad0:	040982        	l8ui	a8, a9, 4
    3ad3:	f8ec      	bnez.n	a8, 0x3b06
    3ad5:	1421b2        	l32i	a11, a1, 80
    3ad8:	8e6091        	l32r	a9, 0xfffe7458
    3adb:	661bb2        	l16ui	a11, a11, 204
    3ade:	770992        	l8ui	a9, a9, 119
    3ae1:	21b9b7        	bgeu	a9, a11, 0x3b06
    3ae4:	8e6cc1        	l32r	a12, 0xfffe7494
    3ae7:	9b0cc2        	l8ui	a12, a12, 155
    3aea:	9f0c      	movi.n	a15, 9
    3aec:	019cf7        	bne	a12, a15, 0x3af1
    3aef:	379c      	beqz.n	a7, 0x3b06
    3af1:	2604f2        	l8ui	a15, a4, 38
    3af4:	ef8c      	beqz.n	a15, 0x3b06
    3af6:	250482        	l8ui	a8, a4, 37
    3af9:	e8dc      	bnez.n	a8, 0x3b1b
    3afb:	0001c6        	j	0x3b06
    3afe:	90aee0        	addx2	a10, a14, a14
    3b01:	11aa90        	slli	a10, a10, 7
    3b04:	a5aa      	add.n	a10, a5, a10
    3b06:	8e84b1        	l32r	a11, 0xfffe7518
    3b09:	142bb2        	l32i	a11, a11, 80
    3b0c:	0b3bf6        	bgeui	a11, 3, 0x3b1b
    3b0f:	8e53f1        	l32r	a15, 0xfffe745c
    3b12:	21c8      	l32i.n	a12, a1, 8
    3b14:	070c      	movi.n	a7, 0
    3b16:	10ccf0        	and	a12, a12, a15
    3b19:	21c9      	s32i.n	a12, a1, 8
    3b1b:	382a82        	l32i	a8, a10, 224
    3b1e:	10c8d0        	and	a12, a8, a13
    3b21:	0988d7        	bany	a8, a13, 0x3b2e
    3b24:	4198      	l32i.n	a9, a1, 16
    3b26:	04b9f6        	bgeui	a9, 16, 0x3b2e
    3b29:	51b8      	l32i.n	a11, a1, 20
    3b2b:	11fb16        	beqz	a11, 0x3c4e
    3b2e:	075c16        	beqz	a12, 0x3ba7
    3b31:	2e24d2        	l32i	a13, a4, 184
    3b34:	1b0ac2        	l8ui	a12, a10, 27
    3b37:	1061d2        	s32i	a13, a1, 64
    3b3a:	05ec56        	bnez	a12, 0x3b9c
    3b3d:	f70b      	addi.n	a15, a7, -1
    3b3f:	5b6f56        	bnez	a15, 0x40f9
    3b42:	581482        	l16ui	a8, a4, 176
    3b45:	166182        	s32i	a8, a1, 88
    3b48:	018206        	j	0x4154
    3b4b:	09ad      	mov.n	a10, a9
    3b4d:	162192        	l32i	a9, a1, 88
    3b50:	16ba97        	bgeu	a10, a9, 0x3b6a
    3b53:	8e8c81        	l32r	a8, 0xfffe7584
    3b56:	a888      	l32i.n	a8, a8, 40
    3b58:	2524a2        	l32i	a10, a4, 148
    3b5b:	0008e0        	excw
    3b5e:	0abd      	mov.n	a11, a10
    3b60:	4198      	l32i.n	a9, a1, 16
    3b62:	e2a4a2        	movi	a10, 0x4e2
    3b65:	939ab0        	movnez	a9, a10, a11
    3b68:	4199      	s32i.n	a9, a1, 16
    3b6a:	0611a2        	l16ui	a10, a1, 12
    3b6d:	1621b2        	l32i	a11, a1, 88
    3b70:	10c1c2        	addi	a12, a1, 16
    3b73:	8e4f81        	l32r	a8, 0xfffe74b0
    3b76:	14c1d2        	addi	a13, a1, 20
    3b79:	7e2882        	l32i	a8, a8, 0x1f8
    3b7c:	18c1e2        	addi	a14, a1, 24
    3b7f:	0008e0        	excw
    3b82:	0198      	l32i.n	a9, a1, 0
    3b84:	115966        	bnei	a9, 5, 0x3b99
    3b87:	14c1a2        	addi	a10, a1, 20
    3b8a:	8e7681        	l32r	a8, 0xfffe7564
    3b8d:	18c1b2        	addi	a11, a1, 24
    3b90:	442882        	l32i	a8, a8, 0x110
    3b93:	10c1c2        	addi	a12, a1, 16
    3b96:	0008e0        	excw
    3b99:	7001e2        	l8ui	a14, a1, 112
    3b9c:	90cee0        	addx2	a12, a14, a14
    3b9f:	11cc90        	slli	a12, a12, 7
    3ba2:	c5ca      	add.n	a12, a5, a12
    3ba4:	001946        	j	0x3c0d
    3ba7:	0204a2        	l8ui	a10, a4, 2
    3baa:	ff4d25        	excw
    3bad:	61d8      	l32i.n	a13, a1, 24
    3baf:	41b8      	l32i.n	a11, a1, 16
    3bb1:	0acd      	mov.n	a12, a10
    3bb3:	8e4f21        	l32r	a2, 0xfffe74f0
    3bb6:	51a8      	l32i.n	a10, a1, 20
    3bb8:	7f2282        	l32i	a8, a2, 0x1fc
    3bbb:	bbda      	add.n	a11, a11, a13
    3bbd:	0008e0        	excw
    3bc0:	b1a9      	s32i.n	a10, a1, 44
    3bc2:	7001a2        	l8ui	a10, a1, 112
    3bc5:	ff4525        	excw
    3bc8:	8e8df1        	l32r	a15, 0xfffe75fc
    3bcb:	b1e8      	l32i.n	a14, a1, 44
    3bcd:	7001c2        	l8ui	a12, a1, 112
    3bd0:	eeaa      	add.n	a14, a14, a10
    3bd2:	90ccc0        	addx2	a12, a12, a12
    3bd5:	11cc90        	slli	a12, a12, 7
    3bd8:	ee2b      	addi.n	a14, a14, 2
    3bda:	10eef0        	and	a14, a14, a15
    3bdd:	c5ca      	add.n	a12, a5, a12
    3bdf:	382cd2        	l32i	a13, a12, 224
    3be2:	1061e2        	s32i	a14, a1, 64
    3be5:	226d17        	bbci	a13, 1, 0x3c0b
    3be8:	5a14d2        	l16ui	a13, a4, 180
    3beb:	2e24a2        	l32i	a10, a4, 184
    3bee:	8e8d81        	l32r	a8, 0xfffe7624
    3bf1:	c0fea0        	sub	a15, a14, a10
    3bf4:	10ff80        	and	a15, a15, a8
    3bf7:	118df0        	slli	a8, a13, 1
    3bfa:	0d3f87        	bltu	a15, a8, 0x3c0b
    3bfd:	8e8d91        	l32r	a9, 0xfffe7634
    3c00:	8d0b      	addi.n	a8, a13, -1
    3c02:	9088a0        	addx2	a8, a8, a10
    3c05:	108890        	and	a8, a8, a9
    3c08:	106182        	s32i	a8, a1, 64
    3c0b:	020c      	movi.n	a2, 0
    3c0d:	1b0cd2        	l8ui	a13, a12, 27
    3c10:	0a1d66        	bnei	a13, 1, 0x3c1e
    3c13:	0198      	l32i.n	a9, a1, 0
    3c15:	1b2926        	beqi	a9, 2, 0x3c34
    3c18:	184926        	beqi	a9, 4, 0x3c34
    3c1b:	155926        	beqi	a9, 5, 0x3c34
    3c1e:	8e8ec1        	l32r	a12, 0xfffe7658
    3c21:	1021b2        	l32i	a11, a1, 64
    3c24:	21a8      	l32i.n	a10, a1, 8
    3c26:	10bbc0        	and	a11, a11, a12
    3c29:	20aab0        	or	a10, a10, a11
    3c2c:	1b0c      	movi.n	a11, 1
    3c2e:	20aab0        	or	a10, a10, a11
    3c31:	0003c6        	j	0x3c44
    3c34:	1421e2        	l32i	a14, a1, 80
    3c37:	920ee2        	l8ui	a14, a14, 146
    3c3a:	fe0e16        	beqz	a14, 0x3c1e
    3c3d:	21a8      	l32i.n	a10, a1, 8
    3c3f:	eb7c      	movi.n	a11, -2
    3c41:	10aab0        	and	a10, a10, a11
    3c44:	21a9      	s32i.n	a10, a1, 8
    3c46:	56f716        	beqz	a7, 0x41b9
    3c49:	190c      	movi.n	a9, 1
    3c4b:	000046        	j	0x3c50
    3c4e:	190c      	movi.n	a9, 1
    3c50:	8e8fd1        	l32r	a13, 0xfffe768c
    3c53:	0020c0        	memw
    3c56:	8e6aa1        	l32r	a10, 0xfffe7600
    3c59:	8f6a92        	s32i	a9, a10, 0x23c
    3c5c:	0020c0        	memw
    3c5f:	0b7c      	movi.n	a11, -16
    3c61:	70c1e2        	addi	a14, a1, 112
    3c64:	70c1c2        	addi	a12, a1, 112
    3c67:	000cc2        	l8ui	a12, a12, 0
    3c6a:	000ee2        	l8ui	a14, a14, 0
    3c6d:	862aa2        	l32i	a10, a10, 0x218
    3c70:	90cce0        	addx2	a12, a12, a14
    3c73:	11cc90        	slli	a12, a12, 7
    3c76:	c5ca      	add.n	a12, a5, a12
    3c78:	1b0cc2        	l8ui	a12, a12, 27
    3c7b:	10aab0        	and	a10, a10, a11
    3c7e:	cc0b      	addi.n	a12, a12, -1
    3c80:	207c56        	bnez	a12, 0x3e8b
    3c83:	8e60f1        	l32r	a15, 0xfffe7604
    3c86:	7c0c      	movi.n	a12, 7
    3c88:	400f92        	l8ui	a9, a15, 64
    3c8b:	410ff2        	l8ui	a15, a15, 65
    3c8e:	20cac0        	or	a12, a10, a12
    3c91:	11af80        	slli	a10, a15, 8
    3c94:	0b4c      	movi.n	a11, 64
    3c96:	2089a0        	or	a8, a9, a10
    3c99:	118860        	slli	a8, a8, 10
    3c9c:	8e9091        	l32r	a9, 0xfffe76dc
    3c9f:	1088d0        	and	a8, a8, a13
    3ca2:	0020c0        	memw
    3ca5:	8e6af1        	l32r	a15, 0xfffe7650
    3ca8:	866fc2        	s32i	a12, a15, 0x218
    3cab:	0020c0        	memw
    3cae:	1121e2        	l32i	a14, a1, 68
    3cb1:	8e6f82        	s32i	a8, a15, 0x238
    3cb4:	8e6281        	l32r	a8, 0xfffe763c
    3cb7:	11ee20        	slli	a14, a14, 14
    3cba:	10ee80        	and	a14, a14, a8
    3cbd:	0020c0        	memw
    3cc0:	9d6fe2        	s32i	a14, a15, 0x274
    3cc3:	030482        	l8ui	a8, a4, 3
    3cc6:	0204f2        	l8ui	a15, a4, 2
    3cc9:	70c1e2        	addi	a14, a1, 112
    3ccc:	000ee2        	l8ui	a14, a14, 0
    3ccf:	11ff40        	slli	a15, a15, 12
    3cd2:	1188a0        	slli	a8, a8, 6
    3cd5:	1088b0        	and	a8, a8, a11
    3cd8:	10ff90        	and	a15, a15, a9
    3cdb:	34b070        	extui	a11, a7, 0, 4
    3cde:	119e90        	slli	a9, a14, 7
    3ce1:	2088b0        	or	a8, a8, a11
    3ce4:	80a7b2        	movi	a11, 0x780
    3ce7:	1099b0        	and	a9, a9, a11
    3cea:	20ff90        	or	a15, a15, a9
    3ced:	b70b      	addi.n	a11, a7, -1
    3cef:	182192        	l32i	a9, a1, 96
    3cf2:	20ff80        	or	a15, a15, a8
    3cf5:	71f9      	s32i.n	a15, a1, 28
    3cf7:	346b16        	beqz	a11, 0x4041
    3cfa:	090c      	movi.n	a9, 0
    3cfc:	9199      	s32i.n	a9, a1, 36
    3cfe:	06ad      	mov.n	a10, a6
    3d00:	2198      	l32i.n	a9, a1, 8
    3d02:	8e91c1        	l32r	a12, 0xfffe7748
    3d05:	8e60b1        	l32r	a11, 0xfffe7688
    3d08:	8e7f81        	l32r	a8, 0xfffe7704
    3d0b:	4c0bb2        	l8ui	a11, a11, 76
    3d0e:	c888      	l32i.n	a8, a8, 48
    3d10:	01bb10        	slli	a11, a11, 31
    3d13:	10bbc0        	and	a11, a11, a12
    3d16:	2099b0        	or	a9, a9, a11
    3d19:	2199      	s32i.n	a9, a1, 8
    3d1b:	0008e0        	excw
    3d1e:	8e6ac1        	l32r	a12, 0xfffe76c8
    3d21:	e198      	l32i.n	a9, a1, 56
    3d23:	8e9281        	l32r	a8, 0xfffe776c
    3d26:	51e8      	l32i.n	a14, a1, 20
    3d28:	11f8      	l32i.n	a15, a1, 4
    3d2a:	61b8      	l32i.n	a11, a1, 24
    3d2c:	41d8      	l32i.n	a13, a1, 16
    3d2e:	a4b0b0        	extui	a11, a11, 0, 11
    3d31:	a4d0d0        	extui	a13, a13, 0, 11
    3d34:	20ffa0        	or	a15, a15, a10
    3d37:	11ee20        	slli	a14, a14, 14
    3d3a:	10ee80        	and	a14, a14, a8
    3d3d:	11f9      	s32i.n	a15, a1, 4
    3d3f:	2099e0        	or	a9, a9, a14
    3d42:	a1e8      	l32i.n	a14, a1, 40
    3d44:	8e6c81        	l32r	a8, 0xfffe76f4
    3d47:	20eed0        	or	a14, a14, a13
    3d4a:	91d8      	l32i.n	a13, a1, 36
    3d4c:	c60882        	l8ui	a8, a8, 198
    3d4f:	20ddb0        	or	a13, a13, a11
    3d52:	78ac      	beqz.n	a8, 0x3d7d
    3d54:	a1e9      	s32i.n	a14, a1, 40
    3d56:	8e6cb1        	l32r	a11, 0xfffe7708
    3d59:	91d9      	s32i.n	a13, a1, 36
    3d5b:	9b0bb2        	l8ui	a11, a11, 155
    3d5e:	e199      	s32i.n	a9, a1, 56
    3d60:	199b66        	bnei	a11, 10, 0x3d7d
    3d63:	8e1581        	l32r	a8, 0xfffe75b8
    3d66:	472882        	l32i	a8, a8, 0x11c
    3d69:	0008e0        	excw
    3d6c:	8e6ac1        	l32r	a12, 0xfffe7714
    3d6f:	91d8      	l32i.n	a13, a1, 36
    3d71:	49ea56        	bnez	a10, 0x4213
    3d74:	030c      	movi.n	a3, 0
    3d76:	092c      	movi.n	a9, 32
    3d78:	8199      	s32i.n	a9, a1, 32
    3d7a:	012646        	j	0x4217
    3d7d:	0a0c      	movi.n	a10, 0
    3d7f:	81a9      	s32i.n	a10, a1, 32
    3d81:	0723f6        	bgeui	a3, 2, 0x3d8c
    3d84:	8e6081        	l32r	a8, 0xfffe7704
    3d87:	1b0c      	movi.n	a11, 1
    3d89:	4e48b2        	s8i	a11, a8, 78
    3d8c:	0020c0        	memw
    3d8f:	8c6cf2        	s32i	a15, a12, 0x230
    3d92:	0020c0        	memw
    3d95:	8b6c92        	s32i	a9, a12, 0x22c
    3d98:	0020c0        	memw
    3d9b:	8a6ce2        	s32i	a14, a12, 0x228
    3d9e:	21a8      	l32i.n	a10, a1, 8
    3da0:	0020c0        	memw
    3da3:	896ca2        	s32i	a10, a12, 0x224
    3da6:	331766        	bnei	a7, 1, 0x3ddd
    3da9:	0814e2        	l16ui	a14, a4, 16
    3dac:	deac      	beqz.n	a14, 0x3ddd
    3dae:	1621b2        	l32i	a11, a1, 88
    3db1:	91d9      	s32i.n	a13, a1, 36
    3db3:	0fbeb7        	bgeu	a14, a11, 0x3dc6
    3db6:	8e63a1        	l32r	a10, 0xfffe7744
    3db9:	0b0c      	movi.n	a11, 0
    3dbb:	9691a5        	excw
    3dbe:	8e6ac1        	l32r	a12, 0xfffe7768
    3dc1:	91d8      	l32i.n	a13, a1, 36
    3dc3:	0814e2        	l16ui	a14, a4, 16
    3dc6:	71f8      	l32i.n	a15, a1, 28
    3dc8:	1621a2        	l32i	a10, a1, 88
    3dcb:	e4fef0        	extui	a15, a15, 14, 15
    3dce:	c0aea0        	sub	a10, a14, a10
    3dd1:	41a1a0        	srli	a10, a10, 1
    3dd4:	223fa7        	bltu	a15, a10, 0x3dfa
    3dd7:	41a1e0        	srli	a10, a14, 1
    3dda:	000706        	j	0x3dfa
    3ddd:	1621e2        	l32i	a14, a1, 88
    3de0:	dfa1b2        	movi	a11, 0x1df
    3de3:	0b3be7        	bltu	a11, a14, 0x3df2
    3de6:	e0a1a2        	movi	a10, 0x1e0
    3de9:	c0aae0        	sub	a10, a10, a14
    3dec:	41a1a0        	srli	a10, a10, 1
    3def:	000046        	j	0x3df4
    3df2:	4a1c      	movi.n	a10, 20
    3df4:	8e69e1        	l32r	a14, 0xfffe7798
    3df7:	2022e0        	or	a2, a2, a14
    3dfa:	8e90e1        	l32r	a14, 0xfffe783c
    3dfd:	8e9381        	l32r	a8, 0xfffe784c
    3e00:	11fa20        	slli	a15, a10, 14
    3e03:	10ff80        	and	a15, a15, a8
    3e06:	20ddf0        	or	a13, a13, a15
    3e09:	21f8      	l32i.n	a15, a1, 8
    3e0b:	20dde0        	or	a13, a13, a14
    3e0e:	107fe7        	bbci	a15, 30, 0x3e22
    3e11:	8e60b1        	l32r	a11, 0xfffe7794
    3e14:	1a0c      	movi.n	a10, 1
    3e16:	4d4ba2        	s8i	a10, a11, 77
    3e19:	462492        	l32i	a9, a4, 0x118
    3e1c:	0020c0        	memw
    3e1f:	ac6c92        	s32i	a9, a12, 0x2b0
    3e22:	1521a2        	l32i	a10, a1, 84
    3e25:	8e9581        	l32r	a8, 0xfffe787c
    3e28:	112192        	l32i	a9, a1, 68
    3e2b:	34b030        	extui	a11, a3, 0, 4
    3e2e:	8e94e1        	l32r	a14, 0xfffe7880
    3e31:	d1b9      	s32i.n	a11, a1, 52
    3e33:	11bb00        	slli	a11, a11, 16
    3e36:	10bbe0        	and	a11, a11, a14
    3e39:	2604e2        	l8ui	a14, a4, 38
    3e3c:	8e62f1        	l32r	a15, 0xfffe77c4
    3e3f:	11ee20        	slli	a14, a14, 14
    3e42:	10eef0        	and	a14, a14, a15
    3e45:	01f9c0        	slli	a15, a9, 20
    3e48:	10ff80        	and	a15, a15, a8
    3e4b:	20eef0        	or	a14, a14, a15
    3e4e:	20bbe0        	or	a11, a11, a14
    3e51:	8e96e1        	l32r	a14, 0xfffe78ac
    3e54:	20bab0        	or	a11, a10, a11
    3e57:	20abe0        	or	a10, a11, a14
    3e5a:	1561a2        	s32i	a10, a1, 84
    3e5d:	0020c0        	memw
    3e60:	aa6c22        	s32i	a2, a12, 0x2a8
    3e63:	0020c0        	memw
    3e66:	8d6cd2        	s32i	a13, a12, 0x234
    3e69:	0020c0        	memw
    3e6c:	9c6ca2        	s32i	a10, a12, 0x270
    3e6f:	19cc      	bnez.n	a9, 0x3e74
    3e71:	fd8d46        	j	0x34aa
    3e74:	0243f6        	bgeui	a3, 4, 0x3e7a
    3e77:	fd8bc6        	j	0x34aa
    3e7a:	8e7281        	l32r	a8, 0xfffe7844
    3e7d:	2104a2        	l8ui	a10, a4, 33
    3e80:	ac2882        	l32i	a8, a8, 0x2b0
    3e83:	1b0c      	movi.n	a11, 1
    3e85:	0008e0        	excw
    3e88:	fd8b06        	j	0x34b8
    3e8b:	ac0c      	movi.n	a12, 10
    3e8d:	090492        	l8ui	a9, a4, 9
    3e90:	20cac0        	or	a12, a10, a12
    3e93:	11a980        	slli	a10, a9, 8
    3e96:	080492        	l8ui	a9, a4, 8
    3e99:	ff7dc6        	j	0x3c94
    3e9c:	2404d2        	l8ui	a13, a4, 36
    3e9f:	561d26        	beqi	a13, 1, 0x3ef9
    3ea2:	9ca8      	l32i.n	a10, a12, 36
    3ea4:	51ea97        	bbsi	a10, 9, 0x3ef9
    3ea7:	04f1a0        	extui	a15, a10, 1, 1
    3eaa:	0c1f16        	beqz	a15, 0x3f6f
    3ead:	0ead      	mov.n	a10, a14
    3eaf:	ff1325        	excw
    3eb2:	7001e2        	l8ui	a14, a1, 112
    3eb5:	90cee0        	addx2	a12, a14, a14
    3eb8:	11cc90        	slli	a12, a12, 7
    3ebb:	c5ca      	add.n	a12, a5, a12
    3ebd:	0aea56        	bnez	a10, 0x3f6f
    3ec0:	560c      	movi.n	a6, 5
    3ec2:	070c      	movi.n	a7, 0
    3ec4:	330c      	movi.n	a3, 3
    3ec6:	2198      	l32i.n	a9, a1, 8
    3ec8:	0f0c      	movi.n	a15, 0
    3eca:	8e3cb1        	l32r	a11, 0xfffe77bc
    3ecd:	9c88      	l32i.n	a8, a12, 36
    3ecf:	8e8ad1        	l32r	a13, 0xfffe78f8
    3ed2:	4e0c      	movi.n	a14, 4
    3ed4:	2022e0        	or	a2, a2, a14
    3ed7:	1561d2        	s32i	a13, a1, 84
    3eda:	2088b0        	or	a8, a8, a11
    3edd:	8e53b1        	l32r	a11, 0xfffe782c
    3ee0:	9c89      	s32i.n	a8, a12, 36
    3ee2:	1944f2        	s8i	a15, a4, 25
    3ee5:	1099b0        	and	a9, a9, a11
    3ee8:	2199      	s32i.n	a9, a1, 8
    3eea:	002e06        	j	0x3fa6
    3eed:	020c      	movi.n	a2, 0
    3eef:	0f0c      	movi.n	a15, 0
    3ef1:	1261f2        	s32i	a15, a1, 72
    3ef4:	170c      	movi.n	a7, 1
    3ef6:	fdfa06        	j	0x36e2
    3ef9:	330c82        	l8ui	a8, a12, 51
    3efc:	238800        	excw
    3eff:	1618e6        	bgei	a8, 1, 0x3f19
    3f02:	0ead      	mov.n	a10, a14
    3f04:	ff0da5        	excw
    3f07:	eacc      	bnez.n	a10, 0x3f19
    3f09:	7001e2        	l8ui	a14, a1, 112
    3f0c:	90cee0        	addx2	a12, a14, a14
    3f0f:	11cc90        	slli	a12, a12, 7
    3f12:	c5ca      	add.n	a12, a5, a12
    3f14:	9ca8      	l32i.n	a10, a12, 36
    3f16:	ffe346        	j	0x3ea7
    3f19:	2504f2        	l8ui	a15, a4, 37
    3f1c:	fe9f16        	beqz	a15, 0x3f09
    3f1f:	240482        	l8ui	a8, a4, 36
    3f22:	8e4f71        	l32r	a7, 0xfffe7860
    3f25:	171826        	beqi	a8, 1, 0x3f40
    3f28:	700192        	l8ui	a9, a1, 112
    3f2b:	909990        	addx2	a9, a9, a9
    3f2e:	119990        	slli	a9, a9, 7
    3f31:	959a      	add.n	a9, a5, a9
    3f33:	9998      	l32i.n	a9, a9, 36
    3f35:	07e997        	bbsi	a9, 9, 0x3f40
    3f38:	8e63a1        	l32r	a10, 0xfffe78c4
    3f3b:	0b0c      	movi.n	a11, 0
    3f3d:	967965        	excw
    3f40:	2b04b2        	l8ui	a11, a4, 43
    3f43:	0a3bf6        	bgeui	a11, 3, 0x3f51
    3f46:	8e63a1        	l32r	a10, 0xfffe78d4
    3f49:	0b0c      	movi.n	a11, 0
    3f4b:	9678a5        	excw
    3f4e:	2b04b2        	l8ui	a11, a4, 43
    3f51:	7001a2        	l8ui	a10, a1, 112
    3f54:	90aaa0        	addx2	a10, a10, a10
    3f57:	11aa90        	slli	a10, a10, 7
    3f5a:	a5aa      	add.n	a10, a5, a10
    3f5c:	9aa8      	l32i.n	a10, a10, 36
    3f5e:	0b3d      	mov.n	a3, a11
    3f60:	4a7ad7        	bbci	a10, 29, 0x3fae
    3f63:	c788      	l32i.n	a8, a7, 48
    3f65:	1a0c      	movi.n	a10, 1
    3f67:	0008e0        	excw
    3f6a:	0a3d      	mov.n	a3, a10
    3f6c:	001286        	j	0x3fba
    3f6f:	382cf2        	l32i	a15, a12, 224
    3f72:	1c6f17        	bbci	a15, 1, 0x3f92
    3f75:	19ef27        	bbsi	a15, 2, 0x3f92
    3f78:	190c      	movi.n	a9, 1
    3f7a:	743030        	extui	a3, a3, 0, 8
    3f7d:	04d4f0        	extui	a13, a15, 4, 1
    3f80:	ab0c      	movi.n	a11, 10
    3f82:	1b0ca2        	l8ui	a10, a12, 27
    3f85:	b60c      	movi.n	a6, 11
    3f87:	aa0b      	addi.n	a10, a10, -1
    3f89:	936bd0        	movnez	a6, a11, a13
    3f8c:	8339a0        	moveqz	a3, a9, a10
    3f8f:	000046        	j	0x3f94
    3f92:	f60c      	movi.n	a6, 15
    3f94:	8e4f81        	l32r	a8, 0xfffe78d0
    3f97:	0ead      	mov.n	a10, a14
    3f99:	6e2882        	l32i	a8, a8, 0x1b8
    3f9c:	6b0c      	movi.n	a11, 6
    3f9e:	0008e0        	excw
    3fa1:	090c      	movi.n	a9, 0
    3fa3:	156192        	s32i	a9, a1, 84
    3fa6:	0b0c      	movi.n	a11, 0
    3fa8:	1361b2        	s32i	a11, a1, 76
    3fab:	feb986        	j	0x3a95
    3fae:	087ae7        	bbci	a10, 30, 0x3fba
    3fb1:	c788      	l32i.n	a8, a7, 48
    3fb3:	3a0c      	movi.n	a10, 3
    3fb5:	0008e0        	excw
    3fb8:	0a3d      	mov.n	a3, a10
    3fba:	f1e8      	l32i.n	a14, a1, 60
    3fbc:	700182        	l8ui	a8, a1, 112
    3fbf:	8e6291        	l32r	a9, 0xfffe7948
    3fc2:	908880        	addx2	a8, a8, a8
    3fc5:	118890        	slli	a8, a8, 7
    3fc8:	858a      	add.n	a8, a5, a8
    3fca:	98f8      	l32i.n	a15, a8, 36
    3fcc:	0d0c      	movi.n	a13, 0
    3fce:	20ff90        	or	a15, a15, a9
    3fd1:	98f9      	s32i.n	a15, a8, 36
    3fd3:	034ed2        	s8i	a13, a14, 3
    3fd6:	7001c2        	l8ui	a12, a1, 112
    3fd9:	90ccc0        	addx2	a12, a12, a12
    3fdc:	11cc90        	slli	a12, a12, 7
    3fdf:	c5ca      	add.n	a12, a5, a12
    3fe1:	9ca8      	l32i.n	a10, a12, 36
    3fe3:	2eea17        	bbsi	a10, 1, 0x4015
    3fe6:	2b04e2        	l8ui	a14, a4, 43
    3fe9:	2a04d2        	l8ui	a13, a4, 42
    3fec:	259de7        	bne	a13, a14, 0x4015
    3fef:	320cf2        	l8ui	a15, a12, 50
    3ff2:	23ff00        	excw
    3ff5:	1c1fe6        	bgei	a15, 1, 0x4015
    3ff8:	19ea97        	bbsi	a10, 9, 0x4015
    3ffb:	810482        	l8ui	a8, a4, 129
    3ffe:	38dc      	bnez.n	a8, 0x4015
    4000:	8e53b1        	l32r	a11, 0xfffe794c
    4003:	8e97d1        	l32r	a13, 0xfffe7a60
    4006:	2198      	l32i.n	a9, a1, 8
    4008:	10aad0        	and	a10, a10, a13
    400b:	9ca9      	s32i.n	a10, a12, 36
    400d:	1099b0        	and	a9, a9, a11
    4010:	2199      	s32i.n	a9, a1, 8
    4012:	000106        	j	0x401a
    4015:	4e0c      	movi.n	a14, 4
    4017:	2022e0        	or	a2, a2, a14
    401a:	330cf2        	l8ui	a15, a12, 51
    401d:	23ff00        	excw
    4020:	021fa6        	blti	a15, 1, 0x4026
    4023:	fe91c6        	j	0x3a6e
    4026:	f60c      	movi.n	a6, 15
    4028:	8e53d1        	l32r	a13, 0xfffe7974
    402b:	21b8      	l32i.n	a11, a1, 8
    402d:	180c      	movi.n	a8, 1
    402f:	1b0c92        	l8ui	a9, a12, 27
    4032:	030c      	movi.n	a3, 0
    4034:	990b      	addi.n	a9, a9, -1
    4036:	833890        	moveqz	a3, a8, a9
    4039:	10bbd0        	and	a11, a11, a13
    403c:	21b9      	s32i.n	a11, a1, 8
    403e:	fe8b86        	j	0x3a70
    4041:	90aee0        	addx2	a10, a14, a14
    4044:	11aa90        	slli	a10, a10, 7
    4047:	a5aa      	add.n	a10, a5, a10
    4049:	382aa2        	l32i	a10, a10, 224
    404c:	07ea47        	bbsi	a10, 4, 0x4057
    404f:	8e63a1        	l32r	a10, 0xfffe79dc
    4052:	0b0c      	movi.n	a11, 0
    4054:	9667e5        	excw
    4057:	8e86d1        	l32r	a13, 0xfffe7a70
    405a:	2e24c2        	l32i	a12, a4, 184
    405d:	21a8      	l32i.n	a10, a1, 8
    405f:	41c1c0        	srli	a12, a12, 1
    4062:	41b1a0        	srli	a11, a10, 1
    4065:	10bbd0        	and	a11, a11, a13
    4068:	091bc7        	beq	a11, a12, 0x4075
    406b:	8e63a1        	l32r	a10, 0xfffe79f8
    406e:	0b0c      	movi.n	a11, 0
    4070:	966625        	excw
    4073:	21a8      	l32i.n	a10, a1, 8
    4075:	07fae7        	bbsi	a10, 30, 0x4080
    4078:	8e63a1        	l32r	a10, 0xfffe7a04
    407b:	0b0c      	movi.n	a11, 0
    407d:	966565        	excw
    4080:	7001c2        	l8ui	a12, a1, 112
    4083:	90ccc0        	addx2	a12, a12, a12
    4086:	11cc90        	slli	a12, a12, 7
    4089:	c5ca      	add.n	a12, a5, a12
    408b:	382ce2        	l32i	a14, a12, 224
    408e:	641c92        	l16ui	a9, a12, 200
    4091:	056e37        	bbci	a14, 3, 0x409a
    4094:	da0cd2        	l8ui	a13, a12, 218
    4097:	c19d90        	mul16u	a9, a13, a9
    409a:	51d8      	l32i.n	a13, a1, 20
    409c:	61b8      	l32i.n	a11, a1, 24
    409e:	71e8      	l32i.n	a14, a1, 28
    40a0:	8e9361        	l32r	a6, 0xfffe7aec
    40a3:	41c8      	l32i.n	a12, a1, 16
    40a5:	ba0c      	movi.n	a10, 11
    40a7:	5b1482        	l16ui	a8, a4, 182
    40aa:	21f190        	srai	a15, a9, 1
    40ad:	1188a0        	slli	a8, a8, 6
    40b0:	41a9      	s32i.n	a10, a1, 16
    40b2:	11ff20        	slli	a15, a15, 14
    40b5:	10ff60        	and	a15, a15, a6
    40b8:	8e98a1        	l32r	a10, 0xfffe7b18
    40bb:	5a1462        	l16ui	a6, a4, 180
    40be:	20eef0        	or	a14, a14, a15
    40c1:	83bcd0        	moveqz	a11, a12, a13
    40c4:	61b9      	s32i.n	a11, a1, 24
    40c6:	e1f8      	l32i.n	a15, a1, 56
    40c8:	1088a0        	and	a8, a8, a10
    40cb:	71e9      	s32i.n	a14, a1, 28
    40cd:	8e99a1        	l32r	a10, 0xfffe7b34
    40d0:	0166e0        	slli	a6, a6, 18
    40d3:	8e7ee1        	l32r	a14, 0xfffe7acc
    40d6:	91e9      	s32i.n	a14, a1, 36
    40d8:	1066a0        	and	a6, a6, a10
    40db:	206680        	or	a6, a6, a8
    40de:	20ff60        	or	a15, a15, a6
    40e1:	e1f9      	s32i.n	a15, a1, 56
    40e3:	d60c      	movi.n	a6, 13
    40e5:	ff0546        	j	0x3cfe
    40e8:	8e6ca1        	l32r	a10, 0xfffe7a98
    40eb:	ba0aa2        	l8ui	a10, a10, 186
    40ee:	0288      	l32i.n	a8, a2, 0
    40f0:	90aa70        	addx2	a10, a10, a7
    40f3:	0008e0        	excw
    40f6:	fd4b06        	j	0x3626
    40f9:	8e64b1        	l32r	a11, 0xfffe7a8c
    40fc:	8c0bb2        	l8ui	a11, a11, 140
    40ff:	23bb00        	excw
    4102:	0a1be6        	bgei	a11, 1, 0x4110
    4105:	8e63a1        	l32r	a10, 0xfffe7a94
    4108:	0b0c      	movi.n	a11, 0
    410a:	965ca5        	excw
    410d:	7001e2        	l8ui	a14, a1, 112
    4110:	0ead      	mov.n	a10, a14
    4112:	fef065        	excw
    4115:	8e8dc1        	l32r	a12, 0xfffe7b4c
    4118:	7001b2        	l8ui	a11, a1, 112
    411b:	8e6091        	l32r	a9, 0xfffe7a9c
    411e:	90bbb0        	addx2	a11, a11, a11
    4121:	11bb90        	slli	a11, a11, 7
    4124:	b5ba      	add.n	a11, a5, a11
    4126:	342bb2        	l32i	a11, a11, 208
    4129:	1998      	l32i.n	a9, a9, 4
    412b:	c0bba0        	sub	a11, a11, a10
    412e:	10bbc0        	and	a11, a11, a12
    4131:	99ba      	add.n	a9, a9, a11
    4133:	4624c2        	l32i	a12, a4, 0x118
    4136:	8e86b1        	l32r	a11, 0xfffe7b50
    4139:	419190        	srli	a9, a9, 1
    413c:	1099b0        	and	a9, a9, a11
    413f:	c099c0        	sub	a9, a9, a12
    4142:	1099b0        	and	a9, a9, a11
    4145:	1199f0        	slli	a9, a9, 1
    4148:	166192        	s32i	a9, a1, 88
    414b:	0539b6        	bltui	a9, 3, 0x4154
    414e:	fec9c2        	addi	a12, a9, -2
    4151:	1661c2        	s32i	a12, a1, 88
    4154:	0198      	l32i.n	a9, a1, 0
    4156:	0229b6        	bltui	a9, 2, 0x415c
    4159:	293966        	bnei	a9, 3, 0x4186
    415c:	8e6091        	l32r	a9, 0xfffe7adc
    415f:	2b1992        	l16ui	a9, a9, 86
    4162:	065192        	s16i	a9, a1, 12
    4165:	09fd      	mov.n	a15, a9
    4167:	161726        	beqi	a7, 1, 0x4181
    416a:	8e8c81        	l32r	a8, 0xfffe7b9c
    416d:	a888      	l32i.n	a8, a8, 40
    416f:	2524a2        	l32i	a10, a4, 148
    4172:	0008e0        	excw
    4175:	0611f2        	l16ui	a15, a1, 12
    4178:	0c0a16        	beqz	a10, 0x423c
    417b:	8e6091        	l32r	a9, 0xfffe7afc
    417e:	2b1992        	l16ui	a9, a9, 86
    4181:	99fa      	add.n	a9, a9, a15
    4183:	065192        	s16i	a9, a1, 12
    4186:	8e1581        	l32r	a8, 0xfffe79dc
    4189:	090c      	movi.n	a9, 0
    418b:	2d2882        	l32i	a8, a8, 180
    418e:	4199      	s32i.n	a9, a1, 16
    4190:	0008e0        	excw
    4193:	9d3a56        	bnez	a10, 0x3b6a
    4196:	7001c2        	l8ui	a12, a1, 112
    4199:	90ccc0        	addx2	a12, a12, a12
    419c:	11cc90        	slli	a12, a12, 7
    419f:	c5ca      	add.n	a12, a5, a12
    41a1:	382ca2        	l32i	a10, a12, 224
    41a4:	641c92        	l16ui	a9, a12, 200
    41a7:	04a3a0        	extui	a10, a10, 3, 1
    41aa:	99da16        	beqz	a10, 0x3b4b
    41ad:	da0ca2        	l8ui	a10, a12, 218
    41b0:	c1aa90        	mul16u	a10, a10, a9
    41b3:	f4a0a0        	extui	a10, a10, 0, 16
    41b6:	fe64c6        	j	0x3b4d
    41b9:	8e53b1        	l32r	a11, 0xfffe7b08
    41bc:	10bab0        	and	a11, a10, a11
    41bf:	21b9      	s32i.n	a11, a1, 8
    41c1:	bdcc      	bnez.n	a13, 0x41d0
    41c3:	8e60c1        	l32r	a12, 0xfffe7b44
    41c6:	c30cc2        	l8ui	a12, a12, 195
    41c9:	3c8c      	beqz.n	a12, 0x41d0
    41cb:	090c      	movi.n	a9, 0
    41cd:	fe9fc6        	j	0x3c50
    41d0:	190c      	movi.n	a9, 1
    41d2:	fe9e86        	j	0x3c50
    41d5:	2524a2        	l32i	a10, a4, 148
    41d8:	2b16b2        	l16ui	a11, a6, 86
    41db:	491c      	movi.n	a9, 20
    41dd:	8e8c81        	l32r	a8, 0xfffe7c10
    41e0:	9cc8      	l32i.n	a12, a12, 36
    41e2:	a888      	l32i.n	a8, a8, 40
    41e4:	04cbc0        	extui	a12, a12, 11, 1
    41e7:	939bc0        	movnez	a9, a11, a12
    41ea:	065192        	s16i	a9, a1, 12
    41ed:	0008e0        	excw
    41f0:	0a9d      	mov.n	a9, a10
    41f2:	0611a2        	l16ui	a10, a1, 12
    41f5:	2b16f2        	l16ui	a15, a6, 86
    41f8:	14ca82        	addi	a8, a10, 20
    41fb:	ffaa      	add.n	a15, a15, a10
    41fd:	83f890        	moveqz	a15, a8, a9
    4200:	f4f0f0        	extui	a15, a15, 0, 16
    4203:	0651f2        	s16i	a15, a1, 12
    4206:	fd62c6        	j	0x3795
    4209:	062c      	movi.n	a6, 32
    420b:	fccd06        	j	0x3543
    420e:	130c      	movi.n	a3, 1
    4210:	fdddc6        	j	0x398b
    4213:	0b0c      	movi.n	a11, 0
    4215:	81b9      	s32i.n	a11, a1, 32
    4217:	e198      	l32i.n	a9, a1, 56
    4219:	a1e8      	l32i.n	a14, a1, 40
    421b:	11f8      	l32i.n	a15, a1, 4
    421d:	fed806        	j	0x3d81
    4220:	1221c2        	l32i	a12, a1, 72
    4223:	fce246        	j	0x35b0
    4226:	7001c2        	l8ui	a12, a1, 112
    4229:	90ccc0        	addx2	a12, a12, a12
    422c:	11cc90        	slli	a12, a12, 7
    422f:	c5ca      	add.n	a12, a5, a12
    4231:	9ca8      	l32i.n	a10, a12, 36
    4233:	02fa77        	bbsi	a10, 23, 0x4239
    4236:	fd8c06        	j	0x386a
    4239:	fd9686        	j	0x3897
    423c:	14cf92        	addi	a9, a15, 20
    423f:	ffd006        	j	0x4183
    4242:	360000        	excw
    4245:	7c0041        	l32r	a4, 0xfffe3248
    4248:	6641f5        	excw
    424b:	8e          	.byte 0x8e
    424c:	305250        	xor	a5, a2, a5
    424f:	522432        	l32i	a3, a4, 0x148
    4252:	103350        	and	a3, a3, a5
    4255:	8e8051        	l32r	a5, 0xfffe7c58
    4258:	0020c0        	memw
    425b:	416532        	s32i	a3, a5, 0x104
    425e:	01d442        	addmi	a4, a4, 0x100
    4261:	126432        	s32i	a3, a4, 72
    4264:	f01d      	excw
    4266:	360000        	excw
    4269:	ec0041        	l32r	a4, 0xfffff26c
    426c:	6e8112        	excw
    426f:	8e          	.byte 0x8e
    4270:	4888      	l32i.n	a8, a8, 16
    4272:	02ad      	mov.n	a10, a2
    4274:	0008e0        	excw
    4277:	2b0c      	movi.n	a11, 2
    4279:	5e0c      	movi.n	a14, 5
    427b:	8e9ad1        	l32r	a13, 0xfffe7ce4
    427e:	0c0c      	movi.n	a12, 0
    4280:	0f4dc2        	s8i	a12, a13, 15
    4283:	80cda2        	addi	a10, a13, -128
    4286:	0d98      	l32i.n	a9, a13, 0
    4288:	774ae2        	s8i	a14, a10, 119
    428b:	2099b0        	or	a9, a9, a11
    428e:	0d99      	s32i.n	a9, a13, 0
    4290:	f01d      	excw
    4292:	360000        	excw
    4295:	0c0041        	l32r	a4, 0xfffc7298
    4298:	9b6115        	excw
    429b:	8e          	.byte 0x8e
    429c:	908220        	addx2	a8, a2, a2
    429f:	118890        	slli	a8, a8, 7
    42a2:	668a      	add.n	a6, a6, a8
    42a4:	425632        	s16i	a3, a6, 132
    42a7:	435642        	s16i	a4, a6, 134
    42aa:	7f4652        	s8i	a5, a6, 127
    42ad:	f01d      	excw
    42af:	013600        	slli	a3, a6, 32
    42b2:	01ad01        	l32r	a0, 0xfffc4968
    42b5:	8e9cb1        	l32r	a11, 0xfffe7d28
    42b8:	4c1c      	movi.n	a12, 20
    42ba:	036de5        	excw
    42bd:	8e7941        	l32r	a4, 0xfffe7ca4
    42c0:	908220        	addx2	a8, a2, a2
    42c3:	118890        	slli	a8, a8, 7
    42c6:	448a      	add.n	a4, a4, a8
    42c8:	4104e2        	l8ui	a14, a4, 65
    42cb:	9e8c      	beqz.n	a14, 0x42d8
    42cd:	8e63a1        	l32r	a10, 0xfffe7c5c
    42d0:	0b0c      	movi.n	a11, 0
    42d2:	964025        	excw
    42d5:	4104e2        	l8ui	a14, a4, 65
    42d8:	4b4c      	movi.n	a11, 68
    42da:	2f0c      	movi.n	a15, 2
    42dc:	8e6691        	l32r	a9, 0xfffe7c74
    42df:	0c0c      	movi.n	a12, 0
    42e1:	a0eee0        	addx4	a14, a14, a14
    42e4:	51c9      	s32i.n	a12, a1, 20
    42e6:	61c9      	s32i.n	a12, a1, 24
    42e8:	71c9      	s32i.n	a12, a1, 28
    42ea:	dad982        	addmi	a8, a9, 0xffffda00
    42ed:	b0ee80        	addx8	a14, a14, a8
    42f0:	681ed2        	l16ui	a13, a14, 208
    42f3:	21c1c2        	addi	a12, a1, 33
    42f6:	20ddf0        	or	a13, a13, a15
    42f9:	685ed2        	s16i	a13, a14, 208
    42fc:	22c1d2        	addi	a13, a1, 34
    42ff:	502992        	l32i	a9, a9, 0x140
    4302:	4004a2        	l8ui	a10, a4, 64
    4305:	410472        	l8ui	a7, a4, 65
    4308:	c1aab0        	mul16u	a10, a10, a11
    430b:	a06770        	addx4	a6, a7, a7
    430e:	20c1b2        	addi	a11, a1, 32
    4311:	b06680        	addx8	a6, a6, a8
    4314:	d90652        	l8ui	a5, a6, 217
    4317:	8e7681        	l32r	a8, 0xfffe7cf0
    431a:	99aa      	add.n	a9, a9, a10
    431c:	166192        	s32i	a9, a1, 88
    431f:	07ad      	mov.n	a10, a7
    4321:	691692        	l16ui	a9, a6, 210
    4324:	2e2882        	l32i	a8, a8, 184
    4327:	126192        	s32i	a9, a1, 72
    432a:	0008e0        	excw
    432d:	d179      	s32i.n	a7, a1, 52
    432f:	2001b2        	l8ui	a11, a1, 32
    4332:	2101c2        	l8ui	a12, a1, 33
    4335:	c159      	s32i.n	a5, a1, 48
    4337:	fcba      	add.n	a15, a12, a11
    4339:	16b3f7        	bgeu	a3, a15, 0x4353
    433c:	0ab3b7        	bgeu	a3, a11, 0x434a
    433f:	8e63a1        	l32r	a10, 0xfffe7ccc
    4342:	0b0c      	movi.n	a11, 0
    4344:	9638e5        	excw
    4347:	2001b2        	l8ui	a11, a1, 32
    434a:	c0c3b0        	sub	a12, a3, a11
    434d:	74c0c0        	extui	a12, a12, 0, 8
    4350:	2141c2        	s8i	a12, a1, 33
    4353:	80a7a2        	movi	a10, 0x780
    4356:	8e88e1        	l32r	a14, 0xfffe7d78
    4359:	8e9a81        	l32r	a8, 0xfffe7dc4
    435c:	7198      	l32i.n	a9, a1, 28
    435e:	4a48c2        	s8i	a12, a8, 74
    4361:	6816f2        	l16ui	a15, a6, 208
    4364:	3804d2        	l8ui	a13, a4, 56
    4367:	04f3f0        	extui	a15, a15, 3, 1
    436a:	0fff16        	beqz	a15, 0x446d
    436d:	8e9131        	l32r	a3, 0xfffe7db4
    4370:	220172        	l8ui	a7, a1, 34
    4373:	9488      	l32i.n	a8, a4, 36
    4375:	77ca      	add.n	a7, a7, a12
    4377:	01f810        	slli	a15, a8, 31
    437a:	ccba      	add.n	a12, a12, a11
    437c:	217170        	srai	a7, a7, 1
    437f:	10ff30        	and	a15, a15, a3
    4382:	048080        	extui	a8, a8, 0, 1
    4385:	8e7831        	l32r	a3, 0xfffe7d68
    4388:	018820        	slli	a8, a8, 30
    438b:	108830        	and	a8, a8, a3
    438e:	2088f0        	or	a8, a8, a15
    4391:	8e99f1        	l32r	a15, 0xfffe7df8
    4394:	0177e0        	slli	a7, a7, 18
    4397:	1077f0        	and	a7, a7, a15
    439a:	34f020        	extui	a15, a2, 0, 4
    439d:	2077f0        	or	a7, a7, a15
    43a0:	8e9df1        	l32r	a15, 0xfffe7e14
    43a3:	e4c1c0        	extui	a12, a12, 1, 15
    43a6:	800ff2        	l8ui	a15, a15, 128
    43a9:	207780        	or	a7, a7, a8
    43ac:	9f8c      	beqz.n	a15, 0x43b9
    43ae:	071f66        	bnei	a15, 1, 0x43b9
    43b1:	084c      	movi.n	a8, 64
    43b3:	207780        	or	a7, a7, a8
    43b6:	000146        	j	0x43bf
    43b9:	8e9ef1        	l32r	a15, 0xfffe7e34
    43bc:	1077f0        	and	a7, a7, a15
    43bf:	8e9f81        	l32r	a8, 0xfffe7e3c
    43c2:	015de0        	slli	a5, a13, 18
    43c5:	ef06f2        	l8ui	a15, a6, 239
    43c8:	ed06d2        	l8ui	a13, a6, 237
    43cb:	11ff10        	slli	a15, a15, 15
    43ce:	105580        	and	a5, a5, a8
    43d1:	10ffe0        	and	a15, a15, a14
    43d4:	20ff50        	or	a15, a15, a5
    43d7:	1761f2        	s32i	a15, a1, 92
    43da:	150c      	movi.n	a5, 1
    43dc:	93b5b0        	movnez	a11, a5, a11
    43df:	90fdd0        	addx2	a15, a13, a13
    43e2:	11ff90        	slli	a15, a15, 7
    43e5:	da0652        	l8ui	a5, a6, 218
    43e8:	11dd90        	slli	a13, a13, 7
    43eb:	018b20        	slli	a8, a11, 30
    43ee:	108830        	and	a8, a8, a3
    43f1:	10dda0        	and	a13, a13, a10
    43f4:	043450        	extui	a3, a5, 4, 1
    43f7:	2088d0        	or	a8, a8, a13
    43fa:	113320        	slli	a3, a3, 14
    43fd:	8e62d1        	l32r	a13, 0xfffe7d88
    4400:	345050        	extui	a5, a5, 0, 4
    4403:	1033d0        	and	a3, a3, a13
    4406:	203350        	or	a3, a3, a5
    4409:	d80652        	l8ui	a5, a6, 216
    440c:	8e93d1        	l32r	a13, 0xfffe7e58
    440f:	415150        	srli	a5, a5, 1
    4412:	115520        	slli	a5, a5, 14
    4415:	1055d0        	and	a5, a5, a13
    4418:	6a16d2        	l16ui	a13, a6, 212
    441b:	205580        	or	a5, a5, a8
    441e:	209950        	or	a9, a9, a5
    4421:	8ea081        	l32r	a8, 0xfffe7ea4
    4424:	122152        	l32i	a5, a1, 72
    4427:	11ddc0        	slli	a13, a13, 4
    442a:	10dd80        	and	a13, a13, a8
    442d:	20dd30        	or	a13, a13, a3
    4430:	1155c0        	slli	a5, a5, 4
    4433:	1561d2        	s32i	a13, a1, 84
    4436:	0d2c      	movi.n	a13, 32
    4438:	2099d0        	or	a9, a9, a13
    443b:	8e61d1        	l32r	a13, 0xfffe7dc0
    443e:	105580        	and	a5, a5, a8
    4441:	ddfa      	add.n	a13, a13, a15
    4443:	7f2db2        	l32i	a11, a13, 0x1fc
    4446:	7199      	s32i.n	a9, a1, 28
    4448:	106b67        	bbci	a11, 6, 0x445c
    444b:	8e7ea1        	l32r	a10, 0xfffe7e44
    444e:	bfafe2        	movi	a14, -65
    4451:	10ebe0        	and	a14, a11, a14
    4454:	7f6de2        	s32i	a14, a13, 0x1fc
    4457:	20a9a0        	or	a10, a9, a10
    445a:	71a9      	s32i.n	a10, a1, 28
    445c:	8ea181        	l32r	a8, 0xfffe7ee0
    445f:	31f8      	l32i.n	a15, a1, 12
    4461:	890c      	movi.n	a9, 8
    4463:	e199      	s32i.n	a9, a1, 56
    4465:	20ff80        	or	a15, a15, a8
    4468:	31f9      	s32i.n	a15, a1, 12
    446a:	0009c6        	j	0x4495
    446d:	050c      	movi.n	a5, 0
    446f:	070c      	movi.n	a7, 0
    4471:	0f1c      	movi.n	a15, 16
    4473:	118d10        	slli	a8, a13, 15
    4476:	7c0c      	movi.n	a12, 7
    4478:	0b0c      	movi.n	a11, 0
    447a:	1561b2        	s32i	a11, a1, 84
    447d:	e1c9      	s32i.n	a12, a1, 56
    447f:	1088e0        	and	a8, a8, a14
    4482:	0c0c      	movi.n	a12, 0
    4484:	176182        	s32i	a8, a1, 92
    4487:	11b290        	slli	a11, a2, 7
    448a:	10bba0        	and	a11, a11, a10
    448d:	20b9b0        	or	a11, a9, a11
    4490:	20bbf0        	or	a11, a11, a15
    4493:	71b9      	s32i.n	a11, a1, 28
    4495:	8e6a31        	l32r	a3, 0xfffe7e40
    4498:	8e4f81        	l32r	a8, 0xfffe7dd4
    449b:	0020c0        	memw
    449e:	db1c      	movi.n	a11, 29
    44a0:	8f63c2        	s32i	a12, a3, 0x23c
    44a3:	842882        	l32i	a8, a8, 0x210
    44a6:	db06a2        	l8ui	a10, a6, 219
    44a9:	0008e0        	excw
    44ac:	1b0492        	l8ui	a9, a4, 27
    44af:	051956        	bnez	a9, 0x4504
    44b2:	3b04b2        	l8ui	a11, a4, 59
    44b5:	4b1b66        	bnei	a11, 1, 0x4504
    44b8:	8a2c      	movi.n	a10, 40
    44ba:	2cc1e2        	addi	a14, a1, 44
    44bd:	4c24d2        	l32i	a13, a4, 0x130
    44c0:	8e60b1        	l32r	a11, 0xfffe7e40
    44c3:	8e4f81        	l32r	a8, 0xfffe7e00
    44c6:	0c0c      	movi.n	a12, 0
    44c8:	91c9      	s32i.n	a12, a1, 36
    44ca:	7e2882        	l32i	a8, a8, 0x1f8
    44cd:	1bb8      	l32i.n	a11, a11, 4
    44cf:	8e86c1        	l32r	a12, 0xfffe7ee8
    44d2:	41b1b0        	srli	a11, a11, 1
    44d5:	c0bbd0        	sub	a11, a11, a13
    44d8:	28c1d2        	addi	a13, a1, 40
    44db:	10bbc0        	and	a11, a11, a12
    44de:	11bbf0        	slli	a11, a11, 1
    44e1:	24c1c2        	addi	a12, a1, 36
    44e4:	0008e0        	excw
    44e7:	a1c8      	l32i.n	a12, a1, 40
    44e9:	91d8      	l32i.n	a13, a1, 36
    44eb:	f4a1e2        	movi	a14, 0x1f4
    44ee:	013ed7        	bltu	a14, a13, 0x44f3
    44f1:	ac8c      	beqz.n	a12, 0x44ff
    44f3:	6816f2        	l16ui	a15, a6, 208
    44f6:	00a282        	movi	a8, 0x200
    44f9:	20ff80        	or	a15, a15, a8
    44fc:	6856f2        	s16i	a15, a6, 208
    44ff:	b198      	l32i.n	a9, a1, 44
    4501:	0002c6        	j	0x4510
    4504:	090c      	movi.n	a9, 0
    4506:	0c0c      	movi.n	a12, 0
    4508:	bd0c      	movi.n	a13, 11
    450a:	91d9      	s32i.n	a13, a1, 36
    450c:	a1c9      	s32i.n	a12, a1, 40
    450e:	b199      	s32i.n	a9, a1, 44
    4510:	8ea2e1        	l32r	a14, 0xfffe7f98
    4513:	8e9281        	l32r	a8, 0xfffe7f5c
    4516:	11fc20        	slli	a15, a12, 14
    4519:	1721a2        	l32i	a10, a1, 92
    451c:	a4b0d0        	extui	a11, a13, 0, 11
    451f:	20aab0        	or	a10, a10, a11
    4522:	1761a2        	s32i	a10, a1, 92
    4525:	a4b090        	extui	a11, a9, 0, 11
    4528:	10ff80        	and	a15, a15, a8
    452b:	2077f0        	or	a7, a7, a15
    452e:	20bbe0        	or	a11, a11, a14
    4531:	0020c0        	memw
    4534:	8e60a1        	l32r	a10, 0xfffe7eb4
    4537:	8d63b2        	s32i	a11, a3, 0x234
    453a:	700aa2        	l8ui	a10, a10, 112
    453d:	0a8a56        	bnez	a10, 0x45e9
    4540:	4b4c      	movi.n	a11, 68
    4542:	db06a2        	l8ui	a10, a6, 219
    4545:	8e6691        	l32r	a9, 0xfffe7ee0
    4548:	c1aab0        	mul16u	a10, a10, a11
    454b:	502992        	l32i	a9, a9, 0x140
    454e:	99aa      	add.n	a9, a9, a10
    4550:	69c8      	l32i.n	a12, a9, 24
    4552:	093c56        	bnez	a12, 0x45e9
    4555:	79a8      	l32i.n	a10, a9, 28
    4557:	08ea56        	bnez	a10, 0x45e9
    455a:	8e0781        	l32r	a8, 0xfffe7d78
    455d:	8ea3a1        	l32r	a10, 0xfffe7fec
    4560:	152882        	l32i	a8, a8, 84
    4563:	132aa2        	l32i	a10, a10, 76
    4566:	0008e0        	excw
    4569:	1161a2        	s32i	a10, a1, 68
    456c:	da9c      	beqz.n	a10, 0x458d
    456e:	8e4f81        	l32r	a8, 0xfffe7eac
    4571:	d1a8      	l32i.n	a10, a1, 52
    4573:	562882        	l32i	a8, a8, 0x158
    4576:	1121b2        	l32i	a11, a1, 68
    4579:	0008e0        	excw
    457c:	069a16        	beqz	a10, 0x45e9
    457f:	8e0781        	l32r	a8, 0xfffe7d9c
    4582:	8888      	l32i.n	a8, a8, 32
    4584:	1121a2        	l32i	a10, a1, 68
    4587:	0008e0        	excw
    458a:	0016c6        	j	0x45e9
    458d:	d1a8      	l32i.n	a10, a1, 52
    458f:	fea325        	excw
    4592:	0abd      	mov.n	a11, a10
    4594:	8e0781        	l32r	a8, 0xfffe7db0
    4597:	1061a2        	s32i	a10, a1, 64
    459a:	7888      	l32i.n	a8, a8, 28
    459c:	aa0c      	movi.n	a10, 10
    459e:	0008e0        	excw
    45a1:	f1a9      	s32i.n	a10, a1, 60
    45a3:	6abc      	beqz.n	a10, 0x45dd
    45a5:	0abd      	mov.n	a11, a10
    45a7:	0a0aa2        	l8ui	a10, a10, 10
    45aa:	1021c2        	l32i	a12, a1, 64
    45ad:	aaba      	add.n	a10, a10, a11
    45af:	aacb      	addi.n	a10, a10, 12
    45b1:	0b0c      	movi.n	a11, 0
    45b3:	035065        	excw
    45b6:	f1b8      	l32i.n	a11, a1, 60
    45b8:	8ea4a1        	l32r	a10, 0xfffe8048
    45bb:	8e6091        	l32r	a9, 0xfffe7f3c
    45be:	8e4f81        	l32r	a8, 0xfffe7efc
    45c1:	811992        	l16ui	a9, a9, 0x102
    45c4:	562882        	l32i	a8, a8, 0x158
    45c7:	991b      	addi.n	a9, a9, 1
    45c9:	015a92        	s16i	a9, a10, 2
    45cc:	d1a8      	l32i.n	a10, a1, 52
    45ce:	0008e0        	excw
    45d1:	8a8c      	beqz.n	a10, 0x45dd
    45d3:	8e0781        	l32r	a8, 0xfffe7df0
    45d6:	8888      	l32i.n	a8, a8, 32
    45d8:	f1a8      	l32i.n	a10, a1, 60
    45da:	0008e0        	excw
    45dd:	f1a8      	l32i.n	a10, a1, 60
    45df:	6acc      	bnez.n	a10, 0x45e9
    45e1:	8e63a1        	l32r	a10, 0xfffe7f70
    45e4:	0b0c      	movi.n	a11, 0
    45e6:	960ee5        	excw
    45e9:	3024d2        	l32i	a13, a4, 192
    45ec:	0020c0        	memw
    45ef:	9063d2        	s32i	a13, a3, 0x240
    45f2:	3024c2        	l32i	a12, a4, 192
    45f5:	3124b2        	l32i	a11, a4, 196
    45f8:	0020c0        	memw
    45fb:	9163b2        	s32i	a11, a3, 0x244
    45fe:	02ad      	mov.n	a10, a2
    4600:	14c1b2        	addi	a11, a1, 20
    4603:	fea965        	excw
    4606:	02ad      	mov.n	a10, a2
    4608:	18c1b2        	addi	a11, a1, 24
    460b:	feaf25        	excw
    460e:	2001e2        	l8ui	a14, a1, 32
    4611:	8e8ec1        	l32r	a12, 0xfffe804c
    4614:	2a6e16        	beqz	a14, 0x48be
    4617:	3326a2        	l32i	a10, a6, 204
    461a:	61b8      	l32i.n	a11, a1, 24
    461c:	10dac0        	and	a13, a10, a12
    461f:	20bbd0        	or	a11, a11, a13
    4622:	1d0c      	movi.n	a13, 1
    4624:	20bbd0        	or	a11, a11, a13
    4627:	61b9      	s32i.n	a11, a1, 24
    4629:	0020c0        	memw
    462c:	172182        	l32i	a8, a1, 92
    462f:	8963b2        	s32i	a11, a3, 0x224
    4632:	1f0492        	l8ui	a9, a4, 31
    4635:	8e89b1        	l32r	a11, 0xfffe805c
    4638:	0199b0        	slli	a9, a9, 21
    463b:	1099b0        	and	a9, a9, a11
    463e:	208890        	or	a8, a8, a9
    4641:	0020c0        	memw
    4644:	8a6382        	s32i	a8, a3, 0x228
    4647:	da06f2        	l8ui	a15, a6, 218
    464a:	0d5f66        	bnei	a15, 5, 0x465b
    464d:	8e4f81        	l32r	a8, 0xfffe7f8c
    4650:	4004a2        	l8ui	a10, a4, 64
    4653:	842882        	l32i	a8, a8, 0x210
    4656:	fb0c      	movi.n	a11, 15
    4658:	0008e0        	excw
    465b:	c198      	l32i.n	a9, a1, 48
    465d:	4d0c      	movi.n	a13, 4
    465f:	4a5966        	bnei	a9, 5, 0x46ad
    4662:	8e7681        	l32r	a8, 0xfffe803c
    4665:	02ad      	mov.n	a10, a2
    4667:	322882        	l32i	a8, a8, 200
    466a:	01bd      	mov.n	a11, a1
    466c:	0008e0        	excw
    466f:	100192        	l8ui	a9, a1, 16
    4672:	4d0c      	movi.n	a13, 4
    4674:	3529b6        	bltui	a9, 2, 0x46ad
    4677:	8e0c      	movi.n	a14, 8
    4679:	c1b8      	l32i.n	a11, a1, 48
    467b:	11a8      	l32i.n	a10, a1, 4
    467d:	6816c2        	l16ui	a12, a6, 208
    4680:	14a4a0        	extui	a10, a10, 4, 2
    4683:	10fcd0        	and	a15, a12, a13
    4686:	93bef0        	movnez	a11, a14, a15
    4689:	c1b9      	s32i.n	a11, a1, 48
    468b:	1e2a66        	bnei	a10, 2, 0x46ad
    468e:	162192        	l32i	a9, a1, 88
    4691:	210982        	l8ui	a8, a9, 33
    4694:	238800        	excw
    4697:	a08890        	addx4	a8, a8, a9
    469a:	9888      	l32i.n	a8, a8, 36
    469c:	021882        	l16ui	a8, a8, 4
    469f:	0298f6        	bgeui	a8, 10, 0x46a5
    46a2:	078cd7        	bany	a12, a13, 0x46ad
    46a5:	390c      	movi.n	a9, 3
    46a7:	6a0c      	movi.n	a10, 6
    46a9:	e1a9      	s32i.n	a10, a1, 56
    46ab:	c199      	s32i.n	a9, a1, 48
    46ad:	9498      	l32i.n	a9, a4, 36
    46af:	09e9d7        	bbsi	a9, 13, 0x46bc
    46b2:	1b04b2        	l8ui	a11, a4, 27
    46b5:	dbcc      	bnez.n	a11, 0x46c6
    46b7:	c1c8      	l32i.n	a12, a1, 48
    46b9:	098c66        	bnei	a12, 8, 0x46c6
    46bc:	31c8      	l32i.n	a12, a1, 12
    46be:	20ccd0        	or	a12, a12, a13
    46c1:	31c9      	s32i.n	a12, a1, 12
    46c3:	000046        	j	0x46c8
    46c6:	31c8      	l32i.n	a12, a1, 12
    46c8:	8e8fb1        	l32r	a11, 0xfffe8104
    46cb:	177907        	bbci	a9, 16, 0x46e6
    46ce:	6816e2        	l16ui	a14, a6, 208
    46d1:	8f0c      	movi.n	a15, 8
    46d3:	0f8ef7        	bany	a14, a15, 0x46e6
    46d6:	8e8a81        	l32r	a8, 0xfffe8100
    46d9:	20ccd0        	or	a12, a12, a13
    46dc:	d90692        	l8ui	a9, a6, 217
    46df:	c199      	s32i.n	a9, a1, 48
    46e1:	31c9      	s32i.n	a12, a1, 12
    46e3:	205580        	or	a5, a5, a8
    46e6:	e168      	l32i.n	a6, a1, 56
    46e8:	0020c0        	memw
    46eb:	1621e2        	l32i	a14, a1, 88
    46ee:	aa63c2        	s32i	a12, a3, 0x2a8
    46f1:	030ee2        	l8ui	a14, a14, 3
    46f4:	0f3c      	movi.n	a15, 48
    46f6:	11eec0        	slli	a14, a14, 4
    46f9:	10eef0        	and	a14, a14, a15
    46fc:	20e7e0        	or	a14, a7, a14
    46ff:	0020c0        	memw
    4702:	8b63e2        	s32i	a14, a3, 0x22c
    4705:	0020c0        	memw
    4708:	0e7c      	movi.n	a14, -16
    470a:	8623a2        	l32i	a10, a3, 0x218
    470d:	1b04d2        	l8ui	a13, a4, 27
    4710:	10aae0        	and	a10, a10, a14
    4713:	dd0b      	addi.n	a13, a13, -1
    4715:	0a9d56        	bnez	a13, 0x47c2
    4718:	c178      	l32i.n	a7, a1, 48
    471a:	8e60e1        	l32r	a14, 0xfffe809c
    471d:	7d0c      	movi.n	a13, 7
    471f:	400ec2        	l8ui	a12, a14, 64
    4722:	410ee2        	l8ui	a14, a14, 65
    4725:	20dad0        	or	a13, a10, a13
    4728:	11ee80        	slli	a14, a14, 8
    472b:	209ce0        	or	a9, a12, a14
    472e:	8e7f81        	l32r	a8, 0xfffe812c
    4731:	119960        	slli	a9, a9, 10
    4734:	1099b0        	and	a9, a9, a11
    4737:	0020c0        	memw
    473a:	8663d2        	s32i	a13, a3, 0x218
    473d:	0020c0        	memw
    4740:	8e6392        	s32i	a9, a3, 0x238
    4743:	c888      	l32i.n	a8, a8, 48
    4745:	06ad      	mov.n	a10, a6
    4747:	0008e0        	excw
    474a:	5198      	l32i.n	a9, a1, 20
    474c:	2099a0        	or	a9, a9, a10
    474f:	5199      	s32i.n	a9, a1, 20
    4751:	0020c0        	memw
    4754:	8e7f81        	l32r	a8, 0xfffe8150
    4757:	8c6392        	s32i	a9, a3, 0x230
    475a:	d888      	l32i.n	a8, a8, 52
    475c:	06ad      	mov.n	a10, a6
    475e:	0008e0        	excw
    4761:	8e1581        	l32r	a8, 0xfffe7fb8
    4764:	392882        	l32i	a8, a8, 228
    4767:	1361a2        	s32i	a10, a1, 76
    476a:	0008e0        	excw
    476d:	8e80c1        	l32r	a12, 0xfffe8170
    4770:	03acd2        	movi	a13, 0xfffffc03
    4773:	1321b2        	l32i	a11, a1, 76
    4776:	00a2f2        	movi	a15, 0x200
    4779:	10dbd0        	and	a13, a11, a13
    477c:	20ddf0        	or	a13, a13, a15
    477f:	83bda0        	moveqz	a11, a13, a10
    4782:	0020c0        	memw
    4785:	8ea581        	l32r	a8, 0xfffe821c
    4788:	34a070        	extui	a10, a7, 0, 4
    478b:	049470        	extui	a9, a7, 4, 1
    478e:	836cb2        	s32i	a11, a12, 0x20c
    4791:	3904d2        	l8ui	a13, a4, 57
    4794:	0199c0        	slli	a9, a9, 20
    4797:	8e94b1        	l32r	a11, 0xfffe81e8
    479a:	11aa00        	slli	a10, a10, 16
    479d:	8e72c1        	l32r	a12, 0xfffe8168
    47a0:	10aab0        	and	a10, a10, a11
    47a3:	8e95b1        	l32r	a11, 0xfffe81f8
    47a6:	ac2cc2        	l32i	a12, a12, 0x2b0
    47a9:	1099b0        	and	a9, a9, a11
    47ac:	2099a0        	or	a9, a9, a10
    47af:	205590        	or	a5, a5, a9
    47b2:	205580        	or	a5, a5, a8
    47b5:	2b6747        	bbci	a7, 4, 0x47e4
    47b8:	0dad      	mov.n	a10, a13
    47ba:	1b0c      	movi.n	a11, 1
    47bc:	000ce0        	excw
    47bf:	001046        	j	0x4804
    47c2:	c178      	l32i.n	a7, a1, 48
    47c4:	2004c2        	l8ui	a12, a4, 32
    47c7:	ad0c      	movi.n	a13, 10
    47c9:	1001e2        	l8ui	a14, a1, 16
    47cc:	8ea6f1        	l32r	a15, 0xfffe8264
    47cf:	01ee70        	slli	a14, a14, 25
    47d2:	10eef0        	and	a14, a14, a15
    47d5:	2055e0        	or	a5, a5, a14
    47d8:	2104e2        	l8ui	a14, a4, 33
    47db:	20dad0        	or	a13, a10, a13
    47de:	11ee80        	slli	a14, a14, 8
    47e1:	ffd186        	j	0x472b
    47e4:	8e70f1        	l32r	a15, 0xfffe81a4
    47e7:	c00ff2        	l8ui	a15, a15, 192
    47ea:	ff8c      	beqz.n	a15, 0x47fd
    47ec:	8ea7a1        	l32r	a10, 0xfffe8288
    47ef:	000aa2        	l8ui	a10, a10, 0
    47f2:	0b0c      	movi.n	a11, 0
    47f4:	63aad0        	excw
    47f7:	000ce0        	excw
    47fa:	000186        	j	0x4804
    47fd:	0dad      	mov.n	a10, a13
    47ff:	0b0c      	movi.n	a11, 0
    4801:	000ce0        	excw
    4804:	0020c0        	memw
    4807:	9c6352        	s32i	a5, a3, 0x270
    480a:	0020c0        	memw
    480d:	1cc1a2        	addi	a10, a1, 28
    4810:	8e90d1        	l32r	a13, 0xfffe8250
    4813:	0e4c      	movi.n	a14, 64
    4815:	8e7681        	l32r	a8, 0xfffe81f0
    4818:	1521c2        	l32i	a12, a1, 84
    481b:	242882        	l32i	a8, a8, 144
    481e:	9d63c2        	s32i	a12, a3, 0x274
    4821:	7198      	l32i.n	a9, a1, 28
    4823:	1a04b2        	l8ui	a11, a4, 26
    4826:	1b04c2        	l8ui	a12, a4, 27
    4829:	11bb40        	slli	a11, a11, 12
    482c:	11cca0        	slli	a12, a12, 6
    482f:	10cce0        	and	a12, a12, a14
    4832:	10bbd0        	and	a11, a11, a13
    4835:	20bbc0        	or	a11, a11, a12
    4838:	2099b0        	or	a9, a9, a11
    483b:	7199      	s32i.n	a9, a1, 28
    483d:	0008e0        	excw
    4840:	8e7f81        	l32r	a8, 0xfffe823c
    4843:	02ad      	mov.n	a10, a2
    4845:	e888      	l32i.n	a8, a8, 56
    4847:	06bd      	mov.n	a11, a6
    4849:	0008e0        	excw
    484c:	06bd      	mov.n	a11, a6
    484e:	8e7b81        	l32r	a8, 0xfffe823c
    4851:	1461a2        	s32i	a10, a1, 80
    4854:	1888      	l32i.n	a8, a8, 4
    4856:	02ad      	mov.n	a10, a2
    4858:	0008e0        	excw
    485b:	8e8191        	l32r	a9, 0xfffe8260
    485e:	2009b2        	l8ui	a11, a9, 32
    4861:	0a6d      	mov.n	a6, a10
    4863:	0bbc      	beqz.n	a11, 0x4897
    4865:	8e82c1        	l32r	a12, 0xfffe8270
    4868:	152cc2        	l32i	a12, a12, 84
    486b:	286c67        	bbci	a12, 6, 0x4897
    486e:	09ad      	mov.n	a10, a9
    4870:	8e7b81        	l32r	a8, 0xfffe825c
    4873:	090c      	movi.n	a9, 0
    4875:	234a92        	s8i	a9, a10, 35
    4878:	412882        	l32i	a8, a8, 0x104
    487b:	1a04a2        	l8ui	a10, a4, 26
    487e:	0008e0        	excw
    4881:	8e7b81        	l32r	a8, 0xfffe8270
    4884:	8e8191        	l32r	a9, 0xfffe8288
    4887:	1a0c      	movi.n	a10, 1
    4889:	254972        	s8i	a7, a9, 37
    488c:	2749a2        	s8i	a10, a9, 39
    488f:	452882        	l32i	a8, a8, 0x114
    4892:	02ad      	mov.n	a10, a2
    4894:	0008e0        	excw
    4897:	8e7cb1        	l32r	a11, 0xfffe8288
    489a:	0020c0        	memw
    489d:	8e80e1        	l32r	a14, 0xfffe82a0
    48a0:	1421f2        	l32i	a15, a1, 80
    48a3:	886ef2        	s32i	a15, a14, 0x220
    48a6:	0020c0        	memw
    48a9:	8a6e62        	s32i	a6, a14, 0x228
    48ac:	71d8      	l32i.n	a13, a1, 28
    48ae:	0020c0        	memw
    48b1:	120c      	movi.n	a2, 1
    48b3:	8863d2        	s32i	a13, a3, 0x220
    48b6:	9b59      	s32i.n	a5, a11, 36
    48b8:	31c8      	l32i.n	a12, a1, 12
    48ba:	abc9      	s32i.n	a12, a11, 40
    48bc:	f01d      	excw
    48be:	8e7681        	l32r	a8, 0xfffe8298
    48c1:	c888      	l32i.n	a8, a8, 48
    48c3:	02ad      	mov.n	a10, a2
    48c5:	0008e0        	excw
    48c8:	8e8ec1        	l32r	a12, 0xfffe8300
    48cb:	ff52c6        	j	0x461a
    48ce:	360000        	excw
    48d1:	220161        	l32r	a6, 0xfffcd0d8
    48d4:	411b61        	l32r	a6, 0xfffd4d40
    48d7:	8e6c      	movi.n	a14, -24
    48d9:	190c      	movi.n	a9, 1
    48db:	ffa032        	movi	a3, 255
    48de:	f57c      	movi.n	a5, -1
    48e0:	5159      	s32i.n	a5, a1, 20
    48e2:	6159      	s32i.n	a5, a1, 24
    48e4:	104132        	s8i	a3, a1, 16
    48e7:	1c4132        	s8i	a3, a1, 28
    48ea:	8159      	s32i.n	a5, a1, 32
    48ec:	9159      	s32i.n	a5, a1, 36
    48ee:	a199      	s32i.n	a9, a1, 40
    48f0:	2c4132        	s8i	a3, a1, 44
    48f3:	c159      	s32i.n	a5, a1, 48
    48f5:	9b0482        	l8ui	a8, a4, 155
    48f8:	d159      	s32i.n	a5, a1, 52
    48fa:	079837        	bne	a8, a3, 0x4905
    48fd:	8e63a1        	l32r	a10, 0xfffe828c
    4900:	0b0c      	movi.n	a11, 0
    4902:	95dd25        	excw
    4905:	8e6071        	l32r	a7, 0xfffe8288
    4908:	8e7661        	l32r	a6, 0xfffe82e0
    490b:	17a8      	l32i.n	a10, a7, 4
    490d:	1a2682        	l32i	a8, a6, 104
    4910:	41a1a0        	srli	a10, a10, 1
    4913:	0008e0        	excw
    4916:	2e1c      	movi.n	a14, 18
    4918:	8e7c51        	l32r	a5, 0xfffe8308
    491b:	020c      	movi.n	a2, 0
    491d:	cc04f2        	l8ui	a15, a4, 204
    4920:	1661f2        	s32i	a15, a1, 88
    4923:	1c5522        	s16i	a2, a5, 56
    4926:	3a4522        	s8i	a2, a5, 58
    4929:	4c45e2        	s8i	a14, a5, 76
    492c:	8e80d1        	l32r	a13, 0xfffe832c
    492f:	8e6aa1        	l32r	a10, 0xfffe82d8
    4932:	cd0422        	l8ui	a2, a4, 205
    4935:	0020c0        	memw
    4938:	422dd2        	l32i	a13, a13, 0x108
    493b:	e1d9      	s32i.n	a13, a1, 56
    493d:	0020c0        	memw
    4940:	9e2ac2        	l32i	a12, a10, 0x278
    4943:	f1c9      	s32i.n	a12, a1, 60
    4945:	0020c0        	memw
    4948:	9f2ab2        	l32i	a11, a10, 0x27c
    494b:	1061b2        	s32i	a11, a1, 64
    494e:	0020c0        	memw
    4951:	952aa2        	l32i	a10, a10, 0x254
    4954:	64a7a0        	extui	a10, a10, 7, 7
    4957:	4441a2        	s8i	a10, a1, 68
    495a:	8ea891        	l32r	a9, 0xfffe83fc
    495d:	0020c0        	memw
    4960:	8e1581        	l32r	a8, 0xfffe81b4
    4963:	812992        	l32i	a9, a9, 0x204
    4966:	472882        	l32i	a8, a8, 0x11c
    4969:	454192        	s8i	a9, a1, 69
    496c:	0008e0        	excw
    496f:	9b0c      	movi.n	a11, 9
    4971:	8e4f61        	l32r	a6, 0xfffe82b0
    4974:	056a16        	beqz	a10, 0x49ce
    4977:	ca0482        	l8ui	a8, a4, 202
    497a:	5098b7        	bne	a8, a11, 0x49ce
    497d:	cb04a2        	l8ui	a10, a4, 203
    4980:	4a1a37        	beq	a10, a3, 0x49ce
    4983:	8e7ab1        	l32r	a11, 0xfffe836c
    4986:	8ea991        	l32r	a9, 0xfffe842c
    4989:	90aaa0        	addx2	a10, a10, a10
    498c:	11aa90        	slli	a10, a10, 7
    498f:	9a9a      	add.n	a9, a10, a9
    4991:	800992        	l8ui	a9, a9, 128
    4994:	b7ba      	add.n	a11, a7, a11
    4996:	a09990        	addx4	a9, a9, a9
    4999:	b09970        	addx8	a9, a9, a7
    499c:	681992        	l16ui	a9, a9, 208
    499f:	aaba      	add.n	a10, a10, a11
    49a1:	296937        	bbci	a9, 3, 0x49ce
    49a4:	bc04b2        	l8ui	a11, a4, 188
    49a7:	fc0c      	movi.n	a12, 15
    49a9:	219bc7        	bne	a11, a12, 0x49ce
    49ac:	f1d8      	l32i.n	a13, a1, 60
    49ae:	1461a2        	s32i	a10, a1, 80
    49b1:	19edb7        	bbsi	a13, 11, 0x49ce
    49b4:	8e1781        	l32r	a8, 0xfffe8210
    49b7:	6888      	l32i.n	a8, a8, 24
    49b9:	4a1c      	movi.n	a10, 20
    49bb:	0008e0        	excw
    49be:	0b0c      	movi.n	a11, 0
    49c0:	1c0c      	movi.n	a12, 1
    49c2:	1421a2        	l32i	a10, a1, 80
    49c5:	f12682        	l32i	a8, a6, 0x3c4
    49c8:	290aa2        	l8ui	a10, a10, 41
    49cb:	0008e0        	excw
    49ce:	136122        	s32i	a2, a1, 76
    49d1:	8e6181        	l32r	a8, 0xfffe8358
    49d4:	8eaa61        	l32r	a6, 0xfffe847c
    49d7:	9b04f2        	l8ui	a15, a4, 155
    49da:	38c1d2        	addi	a13, a1, 56
    49dd:	1db8      	l32i.n	a11, a13, 4
    49df:	1761f2        	s32i	a15, a1, 92
    49e2:	2dc8      	l32i.n	a12, a13, 8
    49e4:	b0ff60        	addx8	a15, a15, a6
    49e7:	810fe2        	l8ui	a14, a15, 129
    49ea:	1e61e2        	s32i	a14, a1, 120
    49ed:	7f0ff2        	l8ui	a15, a15, 127
    49f0:	909ee0        	addx2	a9, a14, a14
    49f3:	119990        	slli	a9, a9, 7
    49f6:	889a      	add.n	a8, a8, a9
    49f8:	8e6291        	l32r	a9, 0xfffe8380
    49fb:	7f2882        	l32i	a8, a8, 0x1fc
    49fe:	c0ae30        	sub	a10, a14, a3
    4a01:	108890        	and	a8, a8, a9
    4a04:	090c      	movi.n	a9, 0
    4a06:	8389a0        	moveqz	a8, a9, a10
    4a09:	1b2192        	l32i	a9, a1, 108
    4a0c:	1a6182        	s32i	a8, a1, 104
    4a0f:	0da8      	l32i.n	a10, a13, 0
    4a11:	8e7b81        	l32r	a8, 0xfffe8400
    4a14:	3dd8      	l32i.n	a13, a13, 12
    4a16:	0199      	s32i.n	a9, a1, 0
    4a18:	572882        	l32i	a8, a8, 0x15c
    4a1b:	1f61f2        	s32i	a15, a1, 124
    4a1e:	0008e0        	excw
    4a21:	8eabc1        	l32r	a12, 0xfffe84d0
    4a24:	1b21b2        	l32i	a11, a1, 108
    4a27:	8e8421        	l32r	a2, 0xfffe8438
    4a2a:	1f2182        	l32i	a8, a1, 124
    4a2d:	862292        	l32i	a9, a2, 0x218
    4a30:	908880        	addx2	a8, a8, a8
    4a33:	10bbc0        	and	a11, a11, a12
    4a36:	11a8e0        	slli	a10, a8, 2
    4a39:	1961a2        	s32i	a10, a1, 100
    4a3c:	a08890        	addx4	a8, a8, a9
    4a3f:	1888      	l32i.n	a8, a8, 4
    4a41:	1e21a2        	l32i	a10, a1, 120
    4a44:	0008e0        	excw
    4a47:	1e21e2        	l32i	a14, a1, 120
    4a4a:	8e7b81        	l32r	a8, 0xfffe8438
    4a4d:	1b2192        	l32i	a9, a1, 108
    4a50:	38c1a2        	addi	a10, a1, 56
    4a53:	3ad8      	l32i.n	a13, a10, 12
    4a55:	2ac8      	l32i.n	a12, a10, 8
    4a57:	1ab8      	l32i.n	a11, a10, 4
    4a59:	0aa8      	l32i.n	a10, a10, 0
    4a5b:	0199      	s32i.n	a9, a1, 0
    4a5d:	582882        	l32i	a8, a8, 0x160
    4a60:	1f21f2        	l32i	a15, a1, 124
    4a63:	0008e0        	excw
    4a66:	8e72b1        	l32r	a11, 0xfffe8430
    4a69:	8e7d61        	l32r	a6, 0xfffe8460
    4a6c:	bc04c2        	l8ui	a12, a4, 188
    4a6f:	9b0492        	l8ui	a9, a4, 155
    4a72:	e1c9      	s32i.n	a12, a1, 56
    4a74:	0b89f6        	bgeui	a9, 8, 0x4a83
    4a77:	ff2b82        	l32i	a8, a11, 0x3fc
    4a7a:	1721a2        	l32i	a10, a1, 92
    4a7d:	0008e0        	excw
    4a80:	0001c6        	j	0x4a8b
    4a83:	049966        	bnei	a9, 10, 0x4a8b
    4a86:	090c      	movi.n	a9, 0
    4a88:	444692        	s8i	a9, a6, 68
    4a8b:	1b4532        	s8i	a3, a5, 27
    4a8e:	4406c2        	l8ui	a12, a6, 68
    4a91:	0b0c      	movi.n	a11, 0
    4a93:	1e21d2        	l32i	a13, a1, 120
    4a96:	1f21e2        	l32i	a14, a1, 124
    4a99:	4a45e2        	s8i	a14, a5, 74
    4a9c:	4b45d2        	s8i	a13, a5, 75
    4a9f:	95b9      	s32i.n	a11, a5, 36
    4aa1:	4645b2        	s8i	a11, a5, 70
    4aa4:	0dec56        	bnez	a12, 0x4b86
    4aa7:	4706f2        	l8ui	a15, a6, 71
    4aaa:	059f37        	bne	a15, a3, 0x4ab3
    4aad:	4a0682        	l8ui	a8, a6, 74
    4ab0:	0f1837        	beq	a8, a3, 0x4ac3
    4ab3:	f1b8      	l32i.n	a11, a1, 60
    4ab5:	8e4f81        	l32r	a8, 0xfffe83f4
    4ab8:	17a8      	l32i.n	a10, a7, 4
    4aba:	6d2882        	l32i	a8, a8, 0x1b4
    4abd:	41a1a0        	srli	a10, a10, 1
    4ac0:	0008e0        	excw
    4ac3:	c80792        	l8ui	a9, a7, 200
    4ac6:	4c6907        	bbci	a9, 0, 0x4b16
    4ac9:	2cc1a2        	addi	a10, a1, 44
    4acc:	8e7681        	l32r	a8, 0xfffe84a4
    4acf:	30c1b2        	addi	a11, a1, 48
    4ad2:	2f2882        	l32i	a8, a8, 188
    4ad5:	34c1c2        	addi	a12, a1, 52
    4ad8:	0008e0        	excw
    4adb:	2c01f2        	l8ui	a15, a1, 44
    4ade:	2161a2        	s32i	a10, a1, 132
    4ae1:	c09f30        	sub	a9, a15, a3
    4ae4:	492916        	beqz	a9, 0x4f7a
    4ae7:	0fad      	mov.n	a10, a15
    4ae9:	6b0c      	movi.n	a11, 6
    4aeb:	8eacc1        	l32r	a12, 0xfffe859c
    4aee:	8e7b81        	l32r	a8, 0xfffe84dc
    4af1:	90dff0        	addx2	a13, a15, a15
    4af4:	11dd90        	slli	a13, a13, 7
    4af7:	152882        	l32i	a8, a8, 84
    4afa:	ccda      	add.n	a12, a12, a13
    4afc:	930cc2        	l8ui	a12, a12, 147
    4aff:	cca0d2        	movi	a13, 204
    4b02:	a0ccc0        	addx4	a12, a12, a12
    4b05:	b0cc70        	addx8	a12, a12, a7
    4b08:	ccda      	add.n	a12, a12, a13
    4b0a:	1c61c2        	s32i	a12, a1, 112
    4b0d:	14ccc2        	addi	a12, a12, 20
    4b10:	0008e0        	excw
    4b13:	000246        	j	0x4b20
    4b16:	f97c      	movi.n	a9, -1
    4b18:	0b0c      	movi.n	a11, 0
    4b1a:	1c61b2        	s32i	a11, a1, 112
    4b1d:	216192        	s32i	a9, a1, 132
    4b20:	8eadc1        	l32r	a12, 0xfffe85d4
    4b23:	d40cc2        	l8ui	a12, a12, 212
    4b26:	c0cc30        	sub	a12, a12, a3
    4b29:	0c5c16        	beqz	a12, 0x4bf2
    4b2c:	1cc1a2        	addi	a10, a1, 28
    4b2f:	20c1b2        	addi	a11, a1, 32
    4b32:	8e7681        	l32r	a8, 0xfffe850c
    4b35:	24c1c2        	addi	a12, a1, 36
    4b38:	5b2882        	l32i	a8, a8, 0x16c
    4b3b:	0d0c      	movi.n	a13, 0
    4b3d:	0008e0        	excw
    4b40:	8e7681        	l32r	a8, 0xfffe8518
    4b43:	0a6d      	mov.n	a6, a10
    4b45:	1b2882        	l32i	a8, a8, 108
    4b48:	1c01a2        	l8ui	a10, a1, 28
    4b4b:	0008e0        	excw
    4b4e:	4b0c      	movi.n	a11, 4
    4b50:	28c1c2        	addi	a12, a1, 40
    4b53:	8e7b81        	l32r	a8, 0xfffe8540
    4b56:	a1a9      	s32i.n	a10, a1, 40
    4b58:	152882        	l32i	a8, a8, 84
    4b5b:	1c01a2        	l8ui	a10, a1, 28
    4b5e:	0008e0        	excw
    4b61:	1c2192        	l32i	a9, a1, 112
    4b64:	1c01b2        	l8ui	a11, a1, 28
    4b67:	8eaec1        	l32r	a12, 0xfffe8620
    4b6a:	90bbb0        	addx2	a11, a11, a11
    4b6d:	11bb90        	slli	a11, a11, 7
    4b70:	b7ba      	add.n	a11, a7, a11
    4b72:	bbca      	add.n	a11, a11, a12
    4b74:	1d61b2        	s32i	a11, a1, 116
    4b77:	06f916        	beqz	a9, 0x4bea
    4b7a:	001ba2        	l16ui	a10, a11, 0
    4b7d:	0c09b2        	l8ui	a11, a9, 12
    4b80:	02d6e5        	excw
    4b83:	001946        	j	0x4bec
    4b86:	4806f2        	l8ui	a15, a6, 72
    4b89:	109f37        	bne	a15, a3, 0x4b9d
    4b8c:	4606b2        	l8ui	a11, a6, 70
    4b8f:	c0cb30        	sub	a12, a11, a3
    4b92:	f2dc16        	beqz	a12, 0x4ac3
    4b95:	049f37        	bne	a15, a3, 0x4b9d
    4b98:	03fd      	mov.n	a15, a3
    4b9a:	93fbc0        	movnez	a15, a11, a12
    4b9d:	c0ef30        	sub	a14, a15, a3
    4ba0:	f1fe16        	beqz	a14, 0x4ac3
    4ba3:	8e7581        	l32r	a8, 0xfffe8578
    4ba6:	90fff0        	addx2	a15, a15, a15
    4ba9:	11ff90        	slli	a15, a15, 7
    4bac:	8f8a      	add.n	a8, a15, a8
    4bae:	800882        	l8ui	a8, a8, 128
    4bb1:	f0e816        	beqz	a8, 0x4ac3
    4bb4:	960792        	l8ui	a9, a7, 150
    4bb7:	be0782        	l8ui	a8, a7, 190
    4bba:	023897        	bltu	a8, a9, 0x4bc0
    4bbd:	ffc086        	j	0x4ac3
    4bc0:	8f07b2        	l8ui	a11, a7, 143
    4bc3:	efcb16        	beqz	a11, 0x4ac3
    4bc6:	8eafc1        	l32r	a12, 0xfffe8684
    4bc9:	cfca      	add.n	a12, a15, a12
    4bcb:	800cc2        	l8ui	a12, a12, 128
    4bce:	23cc00        	excw
    4bd1:	022bc7        	blt	a11, a12, 0x4bd7
    4bd4:	ffbac6        	j	0x4ac3
    4bd7:	1a0c      	movi.n	a10, 1
    4bd9:	8e7681        	l32r	a8, 0xfffe85b4
    4bdc:	ffa0b2        	movi	a11, 255
    4bdf:	152882        	l32i	a8, a8, 84
    4be2:	9c1c      	movi.n	a12, 25
    4be4:	0008e0        	excw
    4be7:	ffb606        	j	0x4ac3
    4bea:	0a0c      	movi.n	a10, 0
    4bec:	1861a2        	s32i	a10, a1, 96
    4bef:	0002c6        	j	0x4bfe
    4bf2:	f67c      	movi.n	a6, -1
    4bf4:	0b0c      	movi.n	a11, 0
    4bf6:	0c0c      	movi.n	a12, 0
    4bf8:	1d61c2        	s32i	a12, a1, 116
    4bfb:	1861b2        	s32i	a11, a1, 96
    4bfe:	8eb0d1        	l32r	a13, 0xfffe86c0
    4c01:	f10dd2        	l8ui	a13, a13, 241
    4c04:	2a1d37        	beq	a13, a3, 0x4c32
    4c07:	10c1a2        	addi	a10, a1, 16
    4c0a:	14c1b2        	addi	a11, a1, 20
    4c0d:	8eb181        	l32r	a8, 0xfffe86d4
    4c10:	18c1c2        	addi	a12, a1, 24
    4c13:	372882        	l32i	a8, a8, 220
    4c16:	0d0c      	movi.n	a13, 0
    4c18:	0008e0        	excw
    4c1b:	8e7681        	l32r	a8, 0xfffe85f4
    4c1e:	1261a2        	s32i	a10, a1, 72
    4c21:	1d2882        	l32i	a8, a8, 116
    4c24:	1001a2        	l8ui	a10, a1, 16
    4c27:	0008e0        	excw
    4c2a:	0acd      	mov.n	a12, a10
    4c2c:	1221e2        	l32i	a14, a1, 72
    4c2f:	0000c6        	j	0x4c36
    4c32:	0c0c      	movi.n	a12, 0
    4c34:	fe7c      	movi.n	a14, -1
    4c36:	212192        	l32i	a9, a1, 132
    4c39:	8e6bd1        	l32r	a13, 0xfffe85e8
    4c3c:	991b      	addi.n	a9, a9, 1
    4c3e:	0a0916        	beqz	a9, 0x4ce2
    4c41:	2121b2        	l32i	a11, a1, 132
    4c44:	d1f8      	l32i.n	a15, a1, 52
    4c46:	c188      	l32i.n	a8, a1, 48
    4c48:	b589      	s32i.n	a8, a5, 44
    4c4a:	d5f9      	s32i.n	a15, a5, 52
    4c4c:	c5b9      	s32i.n	a11, a5, 48
    4c4e:	2c01f2        	l8ui	a15, a1, 44
    4c51:	4745f2        	s8i	a15, a5, 71
    4c54:	085b56        	bnez	a11, 0x4cdd
    4c57:	1c01a2        	l8ui	a10, a1, 28
    4c5a:	c09a30        	sub	a9, a10, a3
    4c5d:	2f6916        	beqz	a9, 0x4f57
    4c60:	1c21b2        	l32i	a11, a1, 112
    4c63:	8a0782        	l8ui	a8, a7, 138
    4c66:	140bb2        	l8ui	a11, a11, 20
    4c69:	073b87        	bltu	a11, a8, 0x4c74
    4c6c:	a188      	l32i.n	a8, a1, 40
    4c6e:	fec882        	addi	a8, a8, -2
    4c71:	33f816        	beqz	a8, 0x4fb4
    4c74:	8b0792        	l8ui	a9, a7, 139
    4c77:	073b97        	bltu	a11, a9, 0x4c82
    4c7a:	a1b8      	l32i.n	a11, a1, 40
    4c7c:	fdcbb2        	addi	a11, a11, -3
    4c7f:	331b16        	beqz	a11, 0x4fb4
    4c82:	8eac81        	l32r	a8, 0xfffe8734
    4c85:	909ff0        	addx2	a9, a15, a15
    4c88:	119990        	slli	a9, a9, 7
    4c8b:	889a      	add.n	a8, a8, a9
    4c8d:	930882        	l8ui	a8, a8, 147
    4c90:	a08880        	addx4	a8, a8, a8
    4c93:	b08870        	addx8	a8, a8, a7
    4c96:	681882        	l16ui	a8, a8, 208
    4c99:	00a492        	movi	a9, 0x400
    4c9c:	020897        	bnone	a8, a9, 0x4ca2
    4c9f:	00c446        	j	0x4fb4
    4ca2:	0f0c      	movi.n	a15, 0
    4ca4:	1d2182        	l32i	a8, a1, 116
    4ca7:	4417b2        	l16ui	a11, a7, 136
    4caa:	1e1882        	l16ui	a8, a8, 60
    4cad:	153b87        	bltu	a11, a8, 0x4cc6
    4cb0:	1d2192        	l32i	a9, a1, 116
    4cb3:	1f1992        	l16ui	a9, a9, 62
    4cb6:	e98c      	beqz.n	a9, 0x4cc8
    4cb8:	90baa0        	addx2	a11, a10, a10
    4cbb:	11bb90        	slli	a11, a11, 7
    4cbe:	bdba      	add.n	a11, a13, a11
    4cc0:	512bb2        	l32i	a11, a11, 0x144
    4cc3:	016ba7        	bbci	a11, 10, 0x4cc8
    4cc6:	0f0c      	movi.n	a15, 0
    4cc8:	336f16        	beqz	a15, 0x5002
    4ccb:	4745a2        	s8i	a10, a5, 71
    4cce:	c569      	s32i.n	a6, a5, 48
    4cd0:	8188      	l32i.n	a8, a1, 32
    4cd2:	91f8      	l32i.n	a15, a1, 36
    4cd4:	d5f9      	s32i.n	a15, a5, 52
    4cd6:	b589      	s32i.n	a8, a5, 44
    4cd8:	9f0c      	movi.n	a15, 9
    4cda:	009ec6        	j	0x4f59
    4cdd:	8f0c      	movi.n	a15, 8
    4cdf:	000046        	j	0x4ce4
    4ce2:	7f0c      	movi.n	a15, 7
    4ce4:	2f0e26        	beqi	a14, -1, 0x4d17
    4ce7:	212192        	l32i	a9, a1, 132
    4cea:	29be97        	bgeu	a14, a9, 0x4d17
    4ced:	c5e9      	s32i.n	a14, a5, 48
    4cef:	61b8      	l32i.n	a11, a1, 24
    4cf1:	51f8      	l32i.n	a15, a1, 20
    4cf3:	100182        	l8ui	a8, a1, 16
    4cf6:	474582        	s8i	a8, a5, 71
    4cf9:	b5f9      	s32i.n	a15, a5, 44
    4cfb:	d5b9      	s32i.n	a11, a5, 52
    4cfd:	4cdc      	bnez.n	a12, 0x4d15
    4cff:	0d96e7        	bne	a6, a14, 0x4d10
    4d02:	a198      	l32i.n	a9, a1, 40
    4d04:	fec9b2        	addi	a11, a9, -2
    4d07:	2fcb16        	beqz	a11, 0x5007
    4d0a:	fdc9f2        	addi	a15, a9, -3
    4d0d:	2f6f16        	beqz	a15, 0x5007
    4d10:	bf0c      	movi.n	a15, 11
    4d12:	000046        	j	0x4d17
    4d15:	bf0c      	movi.n	a15, 11
    4d17:	861b      	addi.n	a8, a6, 1
    4d19:	0c0816        	beqz	a8, 0x4ddd
    4d1c:	212192        	l32i	a9, a1, 132
    4d1f:	023697        	bltu	a6, a9, 0x4d25
    4d22:	002dc6        	j	0x4ddd
    4d25:	0236e7        	bltu	a6, a14, 0x4d2b
    4d28:	002c46        	j	0x4ddd
    4d2b:	1561c2        	s32i	a12, a1, 84
    4d2e:	8e7db1        	l32r	a11, 0xfffe8724
    4d31:	1261e2        	s32i	a14, a1, 72
    4d34:	440bb2        	l8ui	a11, a11, 68
    4d37:	2261f2        	s32i	a15, a1, 136
    4d3a:	ebbc      	beqz.n	a11, 0x4d7c
    4d3c:	8e4f81        	l32r	a8, 0xfffe8678
    4d3f:	6b2882        	l32i	a8, a8, 0x1ac
    4d42:	0008e0        	excw
    4d45:	1221e2        	l32i	a14, a1, 72
    4d48:	1521c2        	l32i	a12, a1, 84
    4d4b:	8e6bd1        	l32r	a13, 0xfffe86f8
    4d4e:	aaac      	beqz.n	a10, 0x4d7c
    4d50:	1c01a2        	l8ui	a10, a1, 28
    4d53:	4317b2        	l16ui	a11, a7, 134
    4d56:	909aa0        	addx2	a9, a10, a10
    4d59:	119990        	slli	a9, a9, 7
    4d5c:	9d9a      	add.n	a9, a13, a9
    4d5e:	961992        	l16ui	a9, a9, 0x12c
    4d61:	17b9b7        	bgeu	a9, a11, 0x4d7c
    4d64:	8e7681        	l32r	a8, 0xfffe873c
    4d67:	1c2882        	l32i	a8, a8, 112
    4d6a:	0008e0        	excw
    4d6d:	2221f2        	l32i	a15, a1, 136
    4d70:	1221e2        	l32i	a14, a1, 72
    4d73:	1521c2        	l32i	a12, a1, 84
    4d76:	8e6bd1        	l32r	a13, 0xfffe8724
    4d79:	060a56        	bnez	a10, 0x4ddd
    4d7c:	c569      	s32i.n	a6, a5, 48
    4d7e:	212192        	l32i	a9, a1, 132
    4d81:	81b8      	l32i.n	a11, a1, 32
    4d83:	91a8      	l32i.n	a10, a1, 36
    4d85:	d5a9      	s32i.n	a10, a5, 52
    4d87:	b5b9      	s32i.n	a11, a5, 44
    4d89:	1c01a2        	l8ui	a10, a1, 28
    4d8c:	4745a2        	s8i	a10, a5, 71
    4d8f:	482966        	bnei	a9, 2, 0x4ddb
    4d92:	1d21f2        	l32i	a15, a1, 116
    4d95:	132ff2        	l32i	a15, a15, 76
    4d98:	3f2f66        	bnei	a15, 2, 0x4ddb
    4d9b:	8eac81        	l32r	a8, 0xfffe884c
    4d9e:	2c01f2        	l8ui	a15, a1, 44
    4da1:	90baa0        	addx2	a11, a10, a10
    4da4:	11bb90        	slli	a11, a11, 7
    4da7:	bdba      	add.n	a11, a13, a11
    4da9:	909ff0        	addx2	a9, a15, a15
    4dac:	119990        	slli	a9, a9, 7
    4daf:	889a      	add.n	a8, a8, a9
    4db1:	7e0b92        	l8ui	a9, a11, 126
    4db4:	6c0882        	l8ui	a8, a8, 108
    4db7:	201897        	beq	a8, a9, 0x4ddb
    4dba:	512b92        	l32i	a9, a11, 0x144
    4dbd:	00a682        	movi	a8, 0x600
    4dc0:	028897        	bany	a8, a9, 0x4dc6
    4dc3:	00c906        	j	0x50eb
    4dc6:	2121a2        	l32i	a10, a1, 132
    4dc9:	4745f2        	s8i	a15, a5, 71
    4dcc:	d1b8      	l32i.n	a11, a1, 52
    4dce:	d5b9      	s32i.n	a11, a5, 52
    4dd0:	c1f8      	l32i.n	a15, a1, 48
    4dd2:	c5a9      	s32i.n	a10, a5, 48
    4dd4:	b5f9      	s32i.n	a15, a5, 44
    4dd6:	8f0c      	movi.n	a15, 8
    4dd8:	000046        	j	0x4ddd
    4ddb:	9f0c      	movi.n	a15, 9
    4ddd:	0f7f66        	bnei	a15, 7, 0x4df0
    4de0:	474532        	s8i	a3, a5, 71
    4de3:	fb7c      	movi.n	a11, -1
    4de5:	f87c      	movi.n	a8, -1
    4de7:	b589      	s32i.n	a8, a5, 44
    4de9:	d589      	s32i.n	a8, a5, 52
    4deb:	c5b9      	s32i.n	a11, a5, 48
    4ded:	000086        	j	0x4df3
    4df0:	8c27b2        	l32i	a11, a7, 0x230
    4df3:	0b2d      	mov.n	a2, a11
    4df5:	051b56        	bnez	a11, 0x4e4a
    4df8:	8eb2a1        	l32r	a10, 0xfffe88c0
    4dfb:	9a0492        	l8ui	a9, a4, 154
    4dfe:	d3ca82        	addi	a8, a10, -45
    4e01:	b08f80        	addx8	a8, a15, a8
    4e04:	b099a0        	addx8	a9, a9, a10
    4e07:	530992        	l8ui	a9, a9, 83
    4e0a:	800882        	l8ui	a8, a8, 128
    4e0d:	39b897        	bgeu	a8, a9, 0x4e4a
    4e10:	f8cf92        	addi	a9, a15, -8
    4e13:	16b916        	beqz	a9, 0x4f82
    4e16:	f7cfa2        	addi	a10, a15, -9
    4e19:	223a16        	beqz	a10, 0x5040
    4e1c:	ba0c      	movi.n	a10, 11
    4e1e:	f5cfc2        	addi	a12, a15, -11
    4e21:	18ac56        	bnez	a12, 0x4faf
    4e24:	0b0c      	movi.n	a11, 0
    4e26:	8e7681        	l32r	a8, 0xfffe8800
    4e29:	100192        	l8ui	a9, a1, 16
    4e2c:	2888      	l32i.n	a8, a8, 8
    4e2e:	134592        	s8i	a9, a5, 19
    4e31:	0008e0        	excw
    4e34:	212192        	l32i	a9, a1, 132
    4e37:	220c      	movi.n	a2, 2
    4e39:	639960        	excw
    4e3c:	0a29b6        	bltui	a9, 2, 0x4e4a
    4e3f:	092d      	mov.n	a2, a9
    4e41:	000146        	j	0x4e4a
    4e44:	1c2122        	l32i	a2, a1, 112
    4e47:	0c0222        	l8ui	a2, a2, 12
    4e4a:	9a0462        	l8ui	a6, a4, 154
    4e4d:	0aa6b6        	bltui	a6, 12, 0x4e5b
    4e50:	8e63a1        	l32r	a10, 0xfffe87dc
    4e53:	0b0c      	movi.n	a11, 0
    4e55:	9587e5        	excw
    4e58:	9a0462        	l8ui	a6, a4, 154
    4e5b:	02bd      	mov.n	a11, a2
    4e5d:	8eaa81        	l32r	a8, 0xfffe8908
    4e60:	1b4562        	s8i	a6, a5, 27
    4e63:	b08680        	addx8	a8, a6, a8
    4e66:	7e0892        	l8ui	a9, a8, 126
    4e69:	1a4592        	s8i	a9, a5, 26
    4e6c:	810862        	l8ui	a6, a8, 129
    4e6f:	8e8491        	l32r	a9, 0xfffe8880
    4e72:	7f0882        	l8ui	a8, a8, 127
    4e75:	206182        	s32i	a8, a1, 128
    4e78:	862992        	l32i	a9, a9, 0x218
    4e7b:	908880        	addx2	a8, a8, a8
    4e7e:	a08890        	addx4	a8, a8, a9
    4e81:	0888      	l32i.n	a8, a8, 0
    4e83:	06ad      	mov.n	a10, a6
    4e85:	0008e0        	excw
    4e88:	2c01f2        	l8ui	a15, a1, 44
    4e8b:	8eac91        	l32r	a9, 0xfffe893c
    4e8e:	411f37        	beq	a15, a3, 0x4ed3
    4e91:	90bff0        	addx2	a11, a15, a15
    4e94:	11bb90        	slli	a11, a11, 7
    4e97:	99ba      	add.n	a9, a9, a11
    4e99:	6d0992        	l8ui	a9, a9, 109
    4e9c:	8eb3e1        	l32r	a14, 0xfffe8968
    4e9f:	09fc      	bnez.n	a9, 0x4ed3
    4ea1:	d00ee2        	l8ui	a14, a14, 208
    4ea4:	2b1e37        	beq	a14, a3, 0x4ed3
    4ea7:	2816e7        	beq	a6, a14, 0x4ed3
    4eaa:	2596f7        	bne	a6, a15, 0x4ed3
    4ead:	8e6681        	l32r	a8, 0xfffe8848
    4eb0:	8e6ff1        	l32r	a15, 0xfffe886c
    4eb3:	5a2882        	l32i	a8, a8, 0x168
    4eb6:	2d9ff2        	l16si	a15, a15, 90
    4eb9:	8e3691        	l32r	a9, 0xfffe8794
    4ebc:	13bf87        	bgeu	a15, a8, 0x4ed3
    4ebf:	180992        	l8ui	a9, a9, 24
    4ec2:	8eb3b1        	l32r	a11, 0xfffe8990
    4ec5:	0ae927        	bbsi	a9, 2, 0x4ed3
    4ec8:	d80bb2        	l8ui	a11, a11, 216
    4ecb:	8e6fc1        	l32r	a12, 0xfffe8888
    4ece:	bb1b      	addi.n	a11, a11, 1
    4ed0:	584cb2        	s8i	a11, a12, 88
    4ed3:	5acc      	bnez.n	a10, 0x4edc
    4ed5:	0a0c      	movi.n	a10, 0
    4ed7:	1b0c      	movi.n	a11, 1
    4ed9:	957fa5        	excw
    4edc:	9b04c2        	l8ui	a12, a4, 155
    4edf:	029c37        	bne	a12, a3, 0x4ee5
    4ee2:	ffd906        	j	0x4e4a
    4ee5:	8e7b81        	l32r	a8, 0xfffe88d4
    4ee8:	06ad      	mov.n	a10, a6
    4eea:	592882        	l32i	a8, a8, 0x164
    4eed:	2021b2        	l32i	a11, a1, 128
    4ef0:	0008e0        	excw
    4ef3:	8e8431        	l32r	a3, 0xfffe8904
    4ef6:	162162        	l32i	a6, a1, 88
    4ef9:	1f21b2        	l32i	a11, a1, 124
    4efc:	1a21d2        	l32i	a13, a1, 104
    4eff:	38c1a2        	addi	a10, a1, 56
    4f02:	8e7281        	l32r	a8, 0xfffe88cc
    4f05:	1e2122        	l32i	a2, a1, 120
    4f08:	8f2882        	l32i	a8, a8, 0x23c
    4f0b:	02cd      	mov.n	a12, a2
    4f0d:	0008e0        	excw
    4f10:	d80492        	l8ui	a9, a4, 216
    4f13:	0d6907        	bbci	a9, 0, 0x4f24
    4f16:	8e4f81        	l32r	a8, 0xfffe8854
    4f19:	17a8      	l32i.n	a10, a7, 4
    4f1b:	8e2882        	l32i	a8, a8, 0x238
    4f1e:	41a1a0        	srli	a10, a10, 1
    4f21:	0008e0        	excw
    4f24:	8727b2        	l32i	a11, a7, 0x21c
    4f27:	120b26        	beqi	a11, -1, 0x4f3d
    4f2a:	192192        	l32i	a9, a1, 100
    4f2d:	862382        	l32i	a8, a3, 0x218
    4f30:	02ad      	mov.n	a10, a2
    4f32:	889a      	add.n	a8, a8, a9
    4f34:	2888      	l32i.n	a8, a8, 8
    4f36:	f47c      	movi.n	a4, -1
    4f38:	0008e0        	excw
    4f3b:	7549      	s32i.n	a4, a5, 28
    4f3d:	2a1c      	movi.n	a10, 18
    4f3f:	1216a7        	beq	a6, a10, 0x4f55
    4f42:	1321a2        	l32i	a10, a1, 76
    4f45:	862392        	l32i	a9, a3, 0x218
    4f48:	908660        	addx2	a8, a6, a6
    4f4b:	a08890        	addx4	a8, a8, a9
    4f4e:	2888      	l32i.n	a8, a8, 8
    4f50:	fb7c      	movi.n	a11, -1
    4f52:	0008e0        	excw
    4f55:	f01d      	excw
    4f57:	8f0c      	movi.n	a15, 8
    4f59:	2121b2        	l32i	a11, a1, 132
    4f5c:	c0bbe0        	sub	a11, a11, a14
    4f5f:	d81b56        	bnez	a11, 0x4ce4
    4f62:	d7ec16        	beqz	a12, 0x4ce4
    4f65:	c5e9      	s32i.n	a14, a5, 48
    4f67:	5188      	l32i.n	a8, a1, 20
    4f69:	61f8      	l32i.n	a15, a1, 24
    4f6b:	100192        	l8ui	a9, a1, 16
    4f6e:	474592        	s8i	a9, a5, 71
    4f71:	d5f9      	s32i.n	a15, a5, 52
    4f73:	b589      	s32i.n	a8, a5, 44
    4f75:	bf0c      	movi.n	a15, 11
    4f77:	ff5a46        	j	0x4ce4
    4f7a:	0b0c      	movi.n	a11, 0
    4f7c:	1c61b2        	s32i	a11, a1, 112
    4f7f:	fee746        	j	0x4b20
    4f82:	1561c2        	s32i	a12, a1, 84
    4f85:	8eb381        	l32r	a8, 0xfffe8a54
    4f88:	8e71f1        	l32r	a15, 0xfffe894c
    4f8b:	d80882        	l8ui	a8, a8, 216
    4f8e:	8a9ff2        	l16si	a15, a15, 0x114
    4f91:	1261e2        	s32i	a14, a1, 72
    4f94:	022f87        	blt	a15, a8, 0x4f9a
    4f97:	002e86        	j	0x5055
    4f9a:	474532        	s8i	a3, a5, 71
    4f9d:	8e6fb1        	l32r	a11, 0xfffe895c
    4fa0:	0a0c      	movi.n	a10, 0
    4fa2:	f97c      	movi.n	a9, -1
    4fa4:	b599      	s32i.n	a9, a5, 44
    4fa6:	d599      	s32i.n	a9, a5, 52
    4fa8:	584ba2        	s8i	a10, a11, 88
    4fab:	fb7c      	movi.n	a11, -1
    4fad:	c5b9      	s32i.n	a11, a5, 48
    4faf:	0b2d      	mov.n	a2, a11
    4fb1:	ffa546        	j	0x4e4a
    4fb4:	212182        	l32i	a8, a1, 132
    4fb7:	049867        	bne	a8, a6, 0x4fbf
    4fba:	1f0c      	movi.n	a15, 1
    4fbc:	ff3906        	j	0x4ca4
    4fbf:	262626        	beqi	a6, 2, 0x4fe9
    4fc2:	3756f6        	bgeui	a6, 5, 0x4ffd
    4fc5:	8eacb1        	l32r	a11, 0xfffe8a78
    4fc8:	908ff0        	addx2	a8, a15, a15
    4fcb:	118890        	slli	a8, a8, 7
    4fce:	bb8a      	add.n	a11, a11, a8
    4fd0:	6d0b92        	l8ui	a9, a11, 109
    4fd3:	69ec      	bnez.n	a9, 0x4ffd
    4fd5:	930b92        	l8ui	a9, a11, 147
    4fd8:	a09990        	addx4	a9, a9, a9
    4fdb:	b09970        	addx8	a9, a9, a7
    4fde:	681992        	l16ui	a9, a9, 208
    4fe1:	880c      	movi.n	a8, 8
    4fe3:	028987        	bany	a9, a8, 0x4fe9
    4fe6:	004186        	j	0x50f0
    4fe9:	1d21b2        	l32i	a11, a1, 116
    4fec:	021bb2        	l16ui	a11, a11, 4
    4fef:	291b26        	beqi	a11, 1, 0x501c
    4ff2:	182182        	l32i	a8, a1, 96
    4ff5:	2368f6        	bgeui	a8, 6, 0x501c
    4ff8:	0f0c      	movi.n	a15, 0
    4ffa:	ff2986        	j	0x4ca4
    4ffd:	0f0c      	movi.n	a15, 0
    4fff:	ff2846        	j	0x4ca4
    5002:	8f0c      	movi.n	a15, 8
    5004:	ffd446        	j	0x4f59
    5007:	c569      	s32i.n	a6, a5, 48
    5009:	9198      	l32i.n	a9, a1, 36
    500b:	1c01f2        	l8ui	a15, a1, 28
    500e:	81b8      	l32i.n	a11, a1, 32
    5010:	b5b9      	s32i.n	a11, a5, 44
    5012:	4745f2        	s8i	a15, a5, 71
    5015:	d599      	s32i.n	a9, a5, 52
    5017:	9f0c      	movi.n	a15, 9
    5019:	ff3e86        	j	0x4d17
    501c:	909aa0        	addx2	a9, a10, a10
    501f:	908ff0        	addx2	a8, a15, a15
    5022:	118890        	slli	a8, a8, 7
    5025:	8eacf1        	l32r	a15, 0xfffe8ad8
    5028:	119990        	slli	a9, a9, 7
    502b:	9d9a      	add.n	a9, a13, a9
    502d:	7e0992        	l8ui	a9, a9, 126
    5030:	ff8a      	add.n	a15, a15, a8
    5032:	6c0ff2        	l8ui	a15, a15, 108
    5035:	180c      	movi.n	a8, 1
    5037:	c0ff90        	sub	a15, a15, a9
    503a:	93f8f0        	movnez	a15, a8, a15
    503d:	ff18c6        	j	0x4ca4
    5040:	9a0c      	movi.n	a10, 9
    5042:	0b0c      	movi.n	a11, 0
    5044:	8e7681        	l32r	a8, 0xfffe8a1c
    5047:	1c0192        	l8ui	a9, a1, 28
    504a:	2888      	l32i.n	a8, a8, 8
    504c:	034592        	s8i	a9, a5, 3
    504f:	0008e0        	excw
    5052:	ff7d06        	j	0x4e4a
    5055:	8a0c      	movi.n	a10, 8
    5057:	0b0c      	movi.n	a11, 0
    5059:	8e7681        	l32r	a8, 0xfffe8a34
    505c:	2c0192        	l8ui	a9, a1, 44
    505f:	2888      	l32i.n	a8, a8, 8
    5061:	7b4492        	s8i	a9, a4, 123
    5064:	0008e0        	excw
    5067:	1c21b2        	l32i	a11, a1, 112
    506a:	8b07f2        	l8ui	a15, a7, 139
    506d:	140bb2        	l8ui	a11, a11, 20
    5070:	3a3bf7        	bltu	a11, a15, 0x50ae
    5073:	264666        	bnei	a6, 4, 0x509d
    5076:	8eacc1        	l32r	a12, 0xfffe8b28
    5079:	2c01d2        	l8ui	a13, a1, 44
    507c:	1c01e2        	l8ui	a14, a1, 28
    507f:	90ddd0        	addx2	a13, a13, a13
    5082:	90eee0        	addx2	a14, a14, a14
    5085:	11ee90        	slli	a14, a14, 7
    5088:	11dd90        	slli	a13, a13, 7
    508b:	ccda      	add.n	a12, a12, a13
    508d:	8e6bd1        	l32r	a13, 0xfffe8a3c
    5090:	6c0cc2        	l8ui	a12, a12, 108
    5093:	ddea      	add.n	a13, a13, a14
    5095:	7e0dd2        	l8ui	a13, a13, 126
    5098:	011cd7        	beq	a12, a13, 0x509d
    509b:	260c      	movi.n	a6, 2
    509d:	062d      	mov.n	a2, a6
    509f:	0b3bf7        	bltu	a11, a15, 0x50ae
    50a2:	1221e2        	l32i	a14, a1, 72
    50a5:	1521f2        	l32i	a15, a1, 84
    50a8:	63e6e0        	excw
    50ab:	932ef0        	movnez	a2, a14, a15
    50ae:	8c27f2        	l32i	a15, a7, 0x230
    50b1:	821b      	addi.n	a8, a2, 1
    50b3:	832f80        	moveqz	a2, a15, a8
    50b6:	d90256        	bnez	a2, 0x4e4a
    50b9:	c09260        	sub	a9, a2, a6
    50bc:	d84956        	bnez	a9, 0x4e44
    50bf:	1d2192        	l32i	a9, a1, 116
    50c2:	132992        	l32i	a9, a9, 76
    50c5:	081966        	bnei	a9, 1, 0x50d1
    50c8:	1d21a2        	l32i	a10, a1, 116
    50cb:	021aa2        	l16ui	a10, a10, 4
    50ce:	142af6        	bgeui	a10, 2, 0x50e6
    50d1:	fec9b2        	addi	a11, a9, -2
    50d4:	d6cb56        	bnez	a11, 0x4e44
    50d7:	1d21c2        	l32i	a12, a1, 116
    50da:	021cd2        	l16ui	a13, a12, 4
    50dd:	1f1cc2        	l16ui	a12, a12, 62
    50e0:	023cd7        	bltu	a12, a13, 0x50e6
    50e3:	ff5746        	j	0x4e44
    50e6:	220c      	movi.n	a2, 2
    50e8:	ff5786        	j	0x4e4a
    50eb:	9f0c      	movi.n	a15, 9
    50ed:	ff3b06        	j	0x4ddd
    50f0:	0f0c      	movi.n	a15, 0
    50f2:	feeb86        	j	0x4ca4
    50f5:	000000        	ill
    50f8:	004136        	excw
    50fb:	8e9d81        	l32r	a8, 0xfffe8b70
    50fe:	8e6091        	l32r	a9, 0xfffe8a80
    5101:	c00882        	l8ui	a8, a8, 192
    5104:	bc09a2        	l8ui	a10, a9, 188
    5107:	326807        	bbci	a8, 0, 0x513d
    510a:	2f3a66        	bnei	a10, 3, 0x513d
    510d:	2bd9b2        	addmi	a11, a9, 0x2b00
    5110:	891bb2        	l16ui	a11, a11, 0x112
    5113:	8eb491        	l32r	a9, 0xfffe8be4
    5116:	3bec      	bnez.n	a11, 0x513d
    5118:	1819c2        	l16ui	a12, a9, 48
    511b:	320992        	l8ui	a9, a9, 50
    511e:	1d6c07        	bbci	a12, 0, 0x513f
    5121:	64a0b2        	movi	a11, 100
    5124:	d1b9b0        	mul16s	a11, a9, a11
    5127:	9a0c      	movi.n	a10, 9
    5129:	8eb581        	l32r	a8, 0xfffe8c00
    512c:	0c0c      	movi.n	a12, 0
    512e:	7888      	l32i.n	a8, a8, 28
    5130:	0d0c      	movi.n	a13, 0
    5132:	0008e0        	excw
    5135:	8eb691        	l32r	a9, 0xfffe8c10
    5138:	0959a2        	s16i	a10, a9, 18
    513b:	f01d      	excw
    513d:	f01d      	excw
    513f:	8eb791        	l32r	a9, 0xfffe8c1c
    5142:	0009a2        	l8ui	a10, a9, 0
    5145:	010992        	l8ui	a9, a9, 1
    5148:	db6a07        	bbci	a10, 0, 0x5127
    514b:	fff486        	j	0x5121
    514e:	360000        	excw
    5151:	820041        	l32r	a4, 0xfffe5954
    5154:	b10312        	l8ui	a1, a3, 177
    5157:	8eb8      	l32i.n	a11, a14, 32
    5159:	b0c882        	addi	a8, a8, -80
    515c:	0cf856        	bnez	a8, 0x522f
    515f:	891bb2        	l16ui	a11, a11, 0x112
    5162:	0812a2        	l16ui	a10, a2, 16
    5165:	c0aab0        	sub	a10, a10, a11
    5168:	0b7a56        	bnez	a10, 0x5223
    516b:	8eb741        	l32r	a4, 0xfffe8c48
    516e:	8eb451        	l32r	a5, 0xfffe8c40
    5171:	8e8c61        	l32r	a6, 0xfffe8ba4
    5174:	80c572        	addi	a7, a5, -128
    5177:	2d2682        	l32i	a8, a6, 180
    517a:	320592        	l8ui	a9, a5, 50
    517d:	1815a2        	l16ui	a10, a5, 48
    5180:	010432        	l8ui	a3, a4, 1
    5183:	04a0a0        	extui	a10, a10, 0, 1
    5186:	9339a0        	movnez	a3, a9, a10
    5189:	1a0c      	movi.n	a10, 1
    518b:	0008e0        	excw
    518e:	2e2682        	l32i	a8, a6, 184
    5191:	0008e0        	excw
    5194:	0a6d      	mov.n	a6, a10
    5196:	6f0a26        	beqi	a10, -1, 0x5209
    5199:	000492        	l8ui	a9, a4, 0
    519c:	7b6c      	movi.n	a11, -25
    519e:	506907        	bbci	a9, 0, 0x51f2
    51a1:	8e9dd1        	l32r	a13, 0xfffe8c18
    51a4:	8eb9c1        	l32r	a12, 0xfffe8c88
    51a7:	c50dd2        	l8ui	a13, a13, 197
    51aa:	910cc2        	l8ui	a12, a12, 145
    51ad:	23dd00        	excw
    51b0:	23cc00        	excw
    51b3:	c0ccd0        	sub	a12, a12, a13
    51b6:	c0cac0        	sub	a12, a10, a12
    51b9:	23cc00        	excw
    51bc:	7bacb7        	bge	a12, a11, 0x523b
    51bf:	020492        	l8ui	a9, a4, 2
    51c2:	0002c6        	j	0x51d1
    51c5:	acab      	addi.n	a10, a12, 10
    51c7:	ab0c      	movi.n	a11, 10
    51c9:	027265        	excw
    51cc:	9a4a      	add.n	a9, a10, a4
    51ce:	040992        	l8ui	a9, a9, 4
    51d1:	8ea8b1        	l32r	a11, 0xfffe8c74
    51d4:	0020c0        	memw
    51d7:	8ebbe1        	l32r	a14, 0xfffe8cc4
    51da:	8ebad1        	l32r	a13, 0xfffe8cc4
    51dd:	a12bc2        	l32i	a12, a11, 0x284
    51e0:	01a9e0        	slli	a10, a9, 18
    51e3:	10ccd0        	and	a12, a12, a13
    51e6:	10aae0        	and	a10, a10, a14
    51e9:	20aac0        	or	a10, a10, a12
    51ec:	0020c0        	memw
    51ef:	a16ba2        	s32i	a10, a11, 0x284
    51f2:	1815f2        	l16ui	a15, a5, 48
    51f5:	106f07        	bbci	a15, 0, 0x5209
    51f8:	8e7281        	l32r	a8, 0xfffe8bc0
    51fb:	af2882        	l32i	a8, a8, 0x2bc
    51fe:	06ad      	mov.n	a10, a6
    5200:	0008e0        	excw
    5203:	b30792        	l8ui	a9, a7, 179
    5206:	9339a0        	movnez	a3, a9, a10
    5209:	9a0c      	movi.n	a10, 9
    520b:	0c0c      	movi.n	a12, 0
    520d:	0d0c      	movi.n	a13, 0
    520f:	8eb581        	l32r	a8, 0xfffe8ce4
    5212:	64a0b2        	movi	a11, 100
    5215:	7888      	l32i.n	a8, a8, 28
    5217:	c1b3b0        	mul16u	a11, a3, a11
    521a:	0008e0        	excw
    521d:	8eb6c1        	l32r	a12, 0xfffe8cf8
    5220:	095ca2        	s16i	a10, a12, 18
    5223:	8e0e81        	l32r	a8, 0xfffe8a5c
    5226:	5888      	l32i.n	a8, a8, 20
    5228:	02ad      	mov.n	a10, a2
    522a:	0008e0        	excw
    522d:	f01d      	excw
    522f:	8e6e81        	l32r	a8, 0xfffe8be8
    5232:	5888      	l32i.n	a8, a8, 20
    5234:	02ad      	mov.n	a10, a2
    5236:	0008e0        	excw
    5239:	f01d      	excw
    523b:	f94c      	movi.n	a9, 79
    523d:	05a9c7        	bge	a9, a12, 0x5246
    5240:	0d0492        	l8ui	a9, a4, 13
    5243:	ffe286        	j	0x51d1
    5246:	6a7c      	movi.n	a10, -10
    5248:	022ca7        	blt	a12, a10, 0x524e
    524b:	ffdd86        	j	0x51c5
    524e:	030492        	l8ui	a9, a4, 3
    5251:	ffdf06        	j	0x51d1
    5254:	004136        	excw
    5257:	8ebcc1        	l32r	a12, 0xfffe8d48
    525a:	8eb641        	l32r	a4, 0xfffe8d34
    525d:	000c92        	l8ui	a9, a12, 0
    5260:	8e9d31        	l32r	a3, 0xfffe8cd4
    5263:	6ce907        	bbsi	a9, 0, 0x52d3
    5266:	8eb481        	l32r	a8, 0xfffe8d38
    5269:	4a0c      	movi.n	a10, 4
    526b:	181882        	l16ui	a8, a8, 48
    526e:	10a9a0        	and	a10, a9, a10
    5271:	02e817        	bbsi	a8, 1, 0x5277
    5274:	5b6927        	bbci	a9, 2, 0x52d3
    5277:	7a8c      	beqz.n	a10, 0x5282
    5279:	030c22        	l8ui	a2, a12, 3
    527c:	020cb2        	l8ui	a11, a12, 2
    527f:	000546        	j	0x5298
    5282:	8e1221        	l32r	a2, 0xfffe8acc
    5285:	0228      	l32i.n	a2, a2, 0
    5287:	010c82        	l8ui	a8, a12, 1
    528a:	6502b2        	l8ui	a11, a2, 101
    528d:	800222        	l8ui	a2, a2, 128
    5290:	046917        	bbci	a9, 1, 0x5298
    5293:	282a      	add.n	a2, a8, a2
    5295:	742020        	extui	a2, a2, 0, 8
    5298:	ebac      	beqz.n	a11, 0x52ca
    529a:	ffa0a2        	movi	a10, 255
    529d:	291ba7        	beq	a11, a10, 0x52ca
    52a0:	62ac      	beqz.n	a2, 0x52ca
    52a2:	2412a7        	beq	a2, a10, 0x52ca
    52a5:	8e8c51        	l32r	a5, 0xfffe8cd8
    52a8:	2e2582        	l32i	a8, a5, 184
    52ab:	f4a0b0        	extui	a10, a11, 0, 16
    52ae:	0008e0        	excw
    52b1:	2e2582        	l32i	a8, a5, 184
    52b4:	0a5d      	mov.n	a5, a10
    52b6:	f4a020        	extui	a10, a2, 0, 16
    52b9:	0008e0        	excw
    52bc:	c50392        	l8ui	a9, a3, 197
    52bf:	c0a5a0        	sub	a10, a5, a10
    52c2:	239900        	excw
    52c5:	99aa      	add.n	a9, a9, a10
    52c7:	000386        	j	0x52d9
    52ca:	c50392        	l8ui	a9, a3, 197
    52cd:	239900        	excw
    52d0:	000146        	j	0x52d9
    52d3:	c50392        	l8ui	a9, a3, 197
    52d6:	239900        	excw
    52d9:	114492        	s8i	a9, a4, 17
    52dc:	1d0c      	movi.n	a13, 1
    52de:	6c03c2        	l8ui	a12, a3, 108
    52e1:	8e66b1        	l32r	a11, 0xfffe8c7c
    52e4:	0a0c      	movi.n	a10, 0
    52e6:	7b6ba2        	s32i	a10, a11, 0x1ec
    52e9:	7c6ba2        	s32i	a10, a11, 0x1f0
    52ec:	93cdc0        	movnez	a12, a13, a12
    52ef:	7d6bc2        	s32i	a12, a11, 0x1f4
    52f2:	f01d      	excw
    52f4:	00a136        	excw
    52f7:	0b0c      	movi.n	a11, 0
    52f9:	039d      	mov.n	a9, a3
    52fb:	90a220        	addx2	a10, a2, a2
    52fe:	8e6031        	l32r	a3, 0xfffe8c80
    5301:	11aa90        	slli	a10, a10, 7
    5304:	09d342        	addmi	a4, a3, 0x900
    5307:	4d03c2        	l8ui	a12, a3, 77
    530a:	4d43b2        	s8i	a11, a3, 77
    530d:	4a4a      	add.n	a4, a10, a4
    530f:	1904d2        	l8ui	a13, a4, 25
    5312:	8e4f71        	l32r	a7, 0xfffe8c50
    5315:	098d66        	bnei	a13, 8, 0x5322
    5318:	742782        	l32i	a8, a7, 0x1d0
    531b:	02ad      	mov.n	a10, a2
    531d:	0008e0        	excw
    5320:	f01d      	excw
    5322:	91c9      	s32i.n	a12, a1, 36
    5324:	61a9      	s32i.n	a10, a1, 24
    5326:	5199      	s32i.n	a9, a1, 20
    5328:	093d26        	beqi	a13, 3, 0x5335
    532b:	8e63a1        	l32r	a10, 0xfffe8cb8
    532e:	0b0c      	movi.n	a11, 0
    5330:	953a25        	excw
    5333:	91c8      	l32i.n	a12, a1, 36
    5335:	8e6aa1        	l32r	a10, 0xfffe8ce0
    5338:	8e8051        	l32r	a5, 0xfffe8d38
    533b:	0020c0        	memw
    533e:	422552        	l32i	a5, a5, 0x108
    5341:	0020c0        	memw
    5344:	9e2a62        	l32i	a6, a10, 0x278
    5347:	0020c0        	memw
    534a:	1b0492        	l8ui	a9, a4, 27
    534d:	0b1c      	movi.n	a11, 16
    534f:	345050        	extui	a5, a5, 0, 4
    5352:	8e66d1        	l32r	a13, 0xfffe8cec
    5355:	952ae2        	l32i	a14, a10, 0x254
    5358:	512dd2        	l32i	a13, a13, 0x144
    535b:	64e7e0        	extui	a14, a14, 7, 7
    535e:	21e9      	s32i.n	a14, a1, 8
    5360:	05d5d0        	extui	a13, a13, 21, 1
    5363:	935bd0        	movnez	a5, a11, a13
    5366:	041966        	bnei	a9, 1, 0x536e
    5369:	016566        	bnei	a5, 6, 0x536e
    536c:	051c      	movi.n	a5, 16
    536e:	060c16        	beqz	a12, 0x53d2
    5371:	0020c0        	memw
    5374:	ac2ac2        	l32i	a12, a10, 0x2b0
    5377:	40a682        	movi	a8, 0x640
    537a:	8e86b1        	l32r	a11, 0xfffe8d94
    537d:	1398      	l32i.n	a9, a3, 4
    537f:	4c24d2        	l32i	a13, a4, 0x130
    5382:	419190        	srli	a9, a9, 1
    5385:	c099d0        	sub	a9, a9, a13
    5388:	8e64d1        	l32r	a13, 0xfffe8d18
    538b:	1099b0        	and	a9, a9, a11
    538e:	1199f0        	slli	a9, a9, 1
    5391:	04b897        	bgeu	a8, a9, 0x5399
    5394:	1b0c      	movi.n	a11, 1
    5396:	9e54b2        	s16i	a11, a4, 0x13c
    5399:	8c0dd2        	l8ui	a13, a13, 140
    539c:	81c9      	s32i.n	a12, a1, 32
    539e:	23dd00        	excw
    53a1:	0c1de6        	bgei	a13, 1, 0x53b1
    53a4:	8e63a1        	l32r	a10, 0xfffe8d30
    53a7:	0b0c      	movi.n	a11, 0
    53a9:	9532a5        	excw
    53ac:	8e6aa1        	l32r	a10, 0xfffe8d54
    53af:	81c8      	l32i.n	a12, a1, 32
    53b1:	13e8      	l32i.n	a14, a3, 4
    53b3:	41e1e0        	srli	a14, a14, 1
    53b6:	181ce7        	beq	a12, a14, 0x53d2
    53b9:	0020c0        	memw
    53bc:	a12af2        	l32i	a15, a10, 0x284
    53bf:	0f1fc7        	beq	a15, a12, 0x53d2
    53c2:	4c64c2        	s32i	a12, a4, 0x130
    53c5:	051c      	movi.n	a5, 16
    53c7:	87af82        	movi	a8, -121
    53ca:	090c      	movi.n	a9, 0
    53cc:	3b4492        	s8i	a9, a4, 59
    53cf:	106680        	and	a6, a6, a8
    53d2:	00a4d2        	movi	a13, 0x400
    53d5:	8ebde1        	l32r	a14, 0xfffe8ecc
    53d8:	8ead91        	l32r	a9, 0xfffe8e8c
    53db:	8e3dc1        	l32r	a12, 0xfffe8cd0
    53de:	d80992        	l8ui	a9, a9, 216
    53e1:	181c      	movi.n	a8, 17
    53e3:	07e927        	bbsi	a9, 2, 0x53ee
    53e6:	066917        	bbci	a9, 1, 0x53f0
    53e9:	3804b2        	l8ui	a11, a4, 56
    53ec:	0bcc      	bnez.n	a11, 0x53f0
    53ee:	051c      	movi.n	a5, 16
    53f0:	023587        	bltu	a5, a8, 0x53f6
    53f3:	003ec6        	j	0x54f2
    53f6:	8ebe81        	l32r	a8, 0xfffe8ef0
    53f9:	90b550        	addx2	a11, a5, a5
    53fc:	bb8a      	add.n	a11, a11, a8
    53fe:	000ba0        	jx	a11
    5401:	000bc6        	j	0x5434
    5404:	000b06        	j	0x5434
    5407:	0039c6        	j	0x54f2
    540a:	00bb86        	j	0x56fc
    540d:	009446        	j	0x5662
    5410:	0068c6        	j	0x55b7
    5413:	0054c6        	j	0x556a
    5416:	003886        	j	0x54fc
    5419:	005346        	j	0x556a
    541c:	005286        	j	0x556a
    541f:	0033c6        	j	0x54f2
    5422:	006146        	j	0x55ab
    5425:	003246        	j	0x54f2
    5428:	003186        	j	0x54f2
    542b:	0030c6        	j	0x54f2
    542e:	004bc6        	j	0x5561
    5431:	002f46        	j	0x54f2
    5434:	8e1581        	l32r	a8, 0xfffe8c88
    5437:	392882        	l32i	a8, a8, 228
    543a:	0008e0        	excw
    543d:	0b1a56        	bnez	a10, 0x54f2
    5440:	2188      	l32i.n	a8, a1, 8
    5442:	8ebf61        	l32r	a6, 0xfffe8f40
    5445:	1a04a2        	l8ui	a10, a4, 26
    5448:	cca0e2        	movi	a14, 204
    544b:	c1aae0        	mul16u	a10, a10, a14
    544e:	bca5f2        	movi	a15, 0x5bc
    5451:	9a6a      	add.n	a9, a10, a6
    5453:	a00992        	l8ui	a9, a9, 160
    5456:	aa3a      	add.n	a10, a10, a3
    5458:	a099a0        	addx4	a9, a9, a10
    545b:	99fa      	add.n	a9, a9, a15
    545d:	604982        	s8i	a8, a9, 96
    5460:	1a04d2        	l8ui	a13, a4, 26
    5463:	c1dde0        	mul16u	a13, a13, a14
    5466:	8ec091        	l32r	a9, 0xfffe8f68
    5469:	cd6a      	add.n	a12, a13, a6
    546b:	a00cc2        	l8ui	a12, a12, 160
    546e:	dd3a      	add.n	a13, a13, a3
    5470:	a0ccd0        	addx4	a12, a12, a13
    5473:	ccfa      	add.n	a12, a12, a15
    5475:	0020c0        	memw
    5478:	8029a2        	l32i	a10, a9, 0x200
    547b:	04afa0        	extui	a10, a10, 15, 1
    547e:	2c0a16        	beqz	a10, 0x5742
    5481:	f0a0b2        	movi	a11, 240
    5484:	0020c0        	memw
    5487:	8029a2        	l32i	a10, a9, 0x200
    548a:	34aca0        	extui	a10, a10, 12, 4
    548d:	20aab0        	or	a10, a10, a11
    5490:	614ca2        	s8i	a10, a12, 97
    5493:	1a04e2        	l8ui	a14, a4, 26
    5496:	cca0b2        	movi	a11, 204
    5499:	c1eeb0        	mul16u	a14, a14, a11
    549c:	8ea881        	l32r	a8, 0xfffe8f3c
    549f:	de6a      	add.n	a13, a14, a6
    54a1:	a00dd2        	l8ui	a13, a13, 160
    54a4:	ee3a      	add.n	a14, a14, a3
    54a6:	a0dde0        	addx4	a13, a13, a14
    54a9:	ddfa      	add.n	a13, a13, a15
    54ab:	0020c0        	memw
    54ae:	812882        	l32i	a8, a8, 0x204
    54b1:	624d82        	s8i	a8, a13, 98
    54b4:	1a04e2        	l8ui	a14, a4, 26
    54b7:	c1eeb0        	mul16u	a14, a14, a11
    54ba:	de6a      	add.n	a13, a14, a6
    54bc:	a00dd2        	l8ui	a13, a13, 160
    54bf:	ee3a      	add.n	a14, a14, a3
    54c1:	a0dde0        	addx4	a13, a13, a14
    54c4:	ddfa      	add.n	a13, a13, a15
    54c6:	0020c0        	memw
    54c9:	852982        	l32i	a8, a9, 0x214
    54cc:	634d82        	s8i	a8, a13, 99
    54cf:	1a04e2        	l8ui	a14, a4, 26
    54d2:	c1eeb0        	mul16u	a14, a14, a11
    54d5:	e6ea      	add.n	a14, a6, a14
    54d7:	a00ed2        	l8ui	a13, a14, 160
    54da:	dd1b      	addi.n	a13, a13, 1
    54dc:	a04ed2        	s8i	a13, a14, 160
    54df:	1a0492        	l8ui	a9, a4, 26
    54e2:	c199b0        	mul16u	a9, a9, a11
    54e5:	969a      	add.n	a9, a6, a9
    54e7:	a009b2        	l8ui	a11, a9, 160
    54ea:	04bb66        	bnei	a11, 16, 0x54f2
    54ed:	0f0c      	movi.n	a15, 0
    54ef:	a049f2        	s8i	a15, a9, 160
    54f2:	02ad      	mov.n	a10, a2
    54f4:	6e2782        	l32i	a8, a7, 0x1b8
    54f7:	ab0c      	movi.n	a11, 10
    54f9:	0008e0        	excw
    54fc:	060c      	movi.n	a6, 0
    54fe:	090c      	movi.n	a9, 0
    5500:	7199      	s32i.n	a9, a1, 28
    5502:	3304a2        	l8ui	a10, a4, 51
    5505:	94e8      	l32i.n	a14, a4, 36
    5507:	23aa00        	excw
    550a:	2adc      	bnez.n	a10, 0x5520
    550c:	9498      	l32i.n	a9, a4, 36
    550e:	4e03b2        	l8ui	a11, a3, 78
    5511:	09ed      	mov.n	a14, a9
    5513:	9b8c      	beqz.n	a11, 0x5520
    5515:	8ec1e1        	l32r	a14, 0xfffe901c
    5518:	10e9e0        	and	a14, a9, a14
    551b:	94e9      	s32i.n	a14, a4, 36
    551d:	ffffc6        	j	0x5520
    5520:	0e6e97        	bbci	a14, 9, 0x5532
    5523:	02ad      	mov.n	a10, a2
    5525:	fdaba5        	excw
    5528:	6acc      	bnez.n	a10, 0x5532
    552a:	b72782        	l32i	a8, a7, 0x2dc
    552d:	02ad      	mov.n	a10, a2
    552f:	0008e0        	excw
    5532:	7198      	l32i.n	a9, a1, 28
    5534:	f98c      	beqz.n	a9, 0x5547
    5536:	0d6526        	beqi	a5, 6, 0x5547
    5539:	4004a2        	l8ui	a10, a4, 64
    553c:	842782        	l32i	a8, a7, 0x210
    553f:	cb1c      	movi.n	a11, 28
    5541:	0008e0        	excw
    5544:	000286        	j	0x5552
    5547:	4004a2        	l8ui	a10, a4, 64
    554a:	842782        	l32i	a8, a7, 0x210
    554d:	0b1c      	movi.n	a11, 16
    554f:	0008e0        	excw
    5552:	8e7681        	l32r	a8, 0xfffe8f2c
    5555:	06bd      	mov.n	a11, a6
    5557:	a888      	l32i.n	a8, a8, 40
    5559:	74a050        	extui	a10, a5, 0, 8
    555c:	0008e0        	excw
    555f:	f01d      	excw
    5561:	61a8      	l32i.n	a10, a1, 24
    5563:	090c      	movi.n	a9, 0
    5565:	aaea      	add.n	a10, a10, a14
    5567:	a34a92        	s8i	a9, a10, 163
    556a:	34a360        	extui	a10, a6, 3, 4
    556d:	41a9      	s32i.n	a10, a1, 16
    556f:	fdbc65        	excw
    5572:	31a9      	s32i.n	a10, a1, 12
    5574:	2213b2        	l16ui	a11, a3, 68
    5577:	71a9      	s32i.n	a10, a1, 28
    5579:	9b8c      	beqz.n	a11, 0x5586
    557b:	8e7681        	l32r	a8, 0xfffe8f54
    557e:	6f2882        	l32i	a8, a8, 0x1bc
    5581:	02ad      	mov.n	a10, a2
    5583:	0008e0        	excw
    5586:	3198      	l32i.n	a9, a1, 12
    5588:	d98c      	beqz.n	a9, 0x5599
    558a:	1a04a2        	l8ui	a10, a4, 26
    558d:	80a0b2        	movi	a11, 128
    5590:	622782        	l32i	a8, a7, 0x188
    5593:	10b6b0        	and	a11, a6, a11
    5596:	0008e0        	excw
    5599:	31d8      	l32i.n	a13, a1, 12
    559b:	6e27c2        	l32i	a12, a7, 0x1b8
    559e:	05bd16        	beqz	a13, 0x55fd
    55a1:	02ad      	mov.n	a10, a2
    55a3:	9b0c      	movi.n	a11, 9
    55a5:	000ce0        	excw
    55a8:	001606        	j	0x5604
    55ab:	6188      	l32i.n	a8, a1, 24
    55ad:	88ea      	add.n	a8, a8, a14
    55af:	a308f2        	l8ui	a15, a8, 163
    55b2:	ff1b      	addi.n	a15, a15, 1
    55b4:	a348f2        	s8i	a15, a8, 163
    55b7:	5198      	l32i.n	a9, a1, 20
    55b9:	10f9d0        	and	a15, a9, a13
    55bc:	1589d7        	bany	a9, a13, 0x55d5
    55bf:	1b04a2        	l8ui	a10, a4, 27
    55c2:	021a66        	bnei	a10, 1, 0x55c8
    55c5:	0ce677        	bbsi	a6, 7, 0x55d5
    55c8:	3304b2        	l8ui	a11, a4, 51
    55cb:	23bb00        	excw
    55ce:	dbcc      	bnez.n	a11, 0x55df
    55d0:	4e03d2        	l8ui	a13, a3, 78
    55d3:	8d8c      	beqz.n	a13, 0x55df
    55d5:	8ec181        	l32r	a8, 0xfffe90dc
    55d8:	94e8      	l32i.n	a14, a4, 36
    55da:	10ee80        	and	a14, a14, a8
    55dd:	94e9      	s32i.n	a14, a4, 36
    55df:	6fcc      	bnez.n	a15, 0x55e9
    55e1:	320492        	l8ui	a9, a4, 50
    55e4:	239900        	excw
    55e7:	59cc      	bnez.n	a9, 0x55f0
    55e9:	94a8      	l32i.n	a10, a4, 36
    55eb:	10aac0        	and	a10, a10, a12
    55ee:	94a9      	s32i.n	a10, a4, 36
    55f0:	02ad      	mov.n	a10, a2
    55f2:	6e2782        	l32i	a8, a7, 0x1b8
    55f5:	eb0c      	movi.n	a11, 14
    55f7:	0008e0        	excw
    55fa:	ffbf86        	j	0x54fc
    55fd:	02ad      	mov.n	a10, a2
    55ff:	bb0c      	movi.n	a11, 11
    5601:	000ce0        	excw
    5604:	00a4e2        	movi	a14, 0x400
    5607:	51c8      	l32i.n	a12, a1, 20
    5609:	3104d2        	l8ui	a13, a4, 49
    560c:	10cce0        	and	a12, a12, a14
    560f:	06dd16        	beqz	a13, 0x5680
    5612:	51f8      	l32i.n	a15, a1, 20
    5614:	680fe7        	bnone	a15, a14, 0x5680
    5617:	a1c9      	s32i.n	a12, a1, 40
    5619:	09e677        	bbsi	a6, 7, 0x5626
    561c:	8e63a1        	l32r	a10, 0xfffe8fa8
    561f:	0b0c      	movi.n	a11, 0
    5621:	950b25        	excw
    5624:	a1c8      	l32i.n	a12, a1, 40
    5626:	94e8      	l32i.n	a14, a4, 36
    5628:	066e17        	bbci	a14, 1, 0x5632
    562b:	d87c      	movi.n	a8, -3
    562d:	10ee80        	and	a14, a14, a8
    5630:	94e9      	s32i.n	a14, a4, 36
    5632:	1e7e17        	bbci	a14, 17, 0x5654
    5635:	a1c9      	s32i.n	a12, a1, 40
    5637:	177e07        	bbci	a14, 16, 0x5652
    563a:	862782        	l32i	a8, a7, 0x218
    563d:	8e9591        	l32r	a9, 0xfffe9094
    5640:	8e54a1        	l32r	a10, 0xfffe8f90
    5643:	209e90        	or	a9, a14, a9
    5646:	1099a0        	and	a9, a9, a10
    5649:	9499      	s32i.n	a9, a4, 36
    564b:	02ad      	mov.n	a10, a2
    564d:	0008e0        	excw
    5650:	a1c8      	l32i.n	a12, a1, 40
    5652:	94e8      	l32i.n	a14, a4, 36
    5654:	8e3ba1        	l32r	a10, 0xfffe8f40
    5657:	3104d2        	l8ui	a13, a4, 49
    565a:	10aea0        	and	a10, a14, a10
    565d:	94a9      	s32i.n	a10, a4, 36
    565f:	000746        	j	0x5680
    5662:	02ad      	mov.n	a10, a2
    5664:	6e2782        	l32i	a8, a7, 0x1b8
    5667:	9b0c      	movi.n	a11, 9
    5669:	0008e0        	excw
    566c:	00a4d2        	movi	a13, 0x400
    566f:	51c8      	l32i.n	a12, a1, 20
    5671:	090c      	movi.n	a9, 0
    5673:	34a360        	extui	a10, a6, 3, 4
    5676:	41a9      	s32i.n	a10, a1, 16
    5678:	7199      	s32i.n	a9, a1, 28
    567a:	10ccd0        	and	a12, a12, a13
    567d:	3104d2        	l8ui	a13, a4, 49
    5680:	1b0492        	l8ui	a9, a4, 27
    5683:	41e8      	l32i.n	a14, a1, 16
    5685:	fd1b      	addi.n	a15, a13, 1
    5687:	3144f2        	s8i	a15, a4, 49
    568a:	74e0e0        	extui	a14, a14, 0, 8
    568d:	11e9      	s32i.n	a14, a1, 4
    568f:	1cdc      	bnez.n	a12, 0x56a4
    5691:	021966        	bnei	a9, 1, 0x5697
    5694:	0ce677        	bbsi	a6, 7, 0x56a4
    5697:	330482        	l8ui	a8, a4, 51
    569a:	238800        	excw
    569d:	d8cc      	bnez.n	a8, 0x56ae
    569f:	4e03a2        	l8ui	a10, a3, 78
    56a2:	8a8c      	beqz.n	a10, 0x56ae
    56a4:	8ec1d1        	l32r	a13, 0xfffe91a8
    56a7:	94b8      	l32i.n	a11, a4, 36
    56a9:	10bbd0        	and	a11, a11, a13
    56ac:	94b9      	s32i.n	a11, a4, 36
    56ae:	6ccc      	bnez.n	a12, 0x56b8
    56b0:	3204e2        	l8ui	a14, a4, 50
    56b3:	23ee00        	excw
    56b6:	8ecc      	bnez.n	a14, 0x56c2
    56b8:	8e3d81        	l32r	a8, 0xfffe8fac
    56bb:	94f8      	l32i.n	a15, a4, 36
    56bd:	10ff80        	and	a15, a15, a8
    56c0:	94f9      	s32i.n	a15, a4, 36
    56c2:	d9cc      	bnez.n	a9, 0x56d3
    56c4:	0b6677        	bbci	a6, 7, 0x56d3
    56c7:	8ebdb1        	l32r	a11, 0xfffe91bc
    56ca:	61a8      	l32i.n	a10, a1, 24
    56cc:	090c      	movi.n	a9, 0
    56ce:	aaba      	add.n	a10, a10, a11
    56d0:	5d4a92        	s8i	a9, a10, 93
    56d3:	94e8      	l32i.n	a14, a4, 36
    56d5:	1168      	l32i.n	a6, a1, 4
    56d7:	04cce0        	extui	a12, a14, 12, 1
    56da:	e24c16        	beqz	a12, 0x5502
    56dd:	004122        	s8i	a2, a1, 0
    56e0:	2a0c      	movi.n	a10, 2
    56e2:	0ca2b2        	movi	a11, 0x20c
    56e5:	01cd      	mov.n	a12, a1
    56e7:	1d0c      	movi.n	a13, 1
    56e9:	8ec291        	l32r	a9, 0xfffe91f4
    56ec:	8e0e81        	l32r	a8, 0xfffe8f24
    56ef:	109e90        	and	a9, a14, a9
    56f2:	7888      	l32i.n	a8, a8, 28
    56f4:	9499      	s32i.n	a9, a4, 36
    56f6:	0008e0        	excw
    56f9:	ff8146        	j	0x5502
    56fc:	51a8      	l32i.n	a10, a1, 20
    56fe:	10fad0        	and	a15, a10, a13
    5701:	15eaa7        	bbsi	a10, 10, 0x571a
    5704:	1b04b2        	l8ui	a11, a4, 27
    5707:	021b66        	bnei	a11, 1, 0x570d
    570a:	0ce677        	bbsi	a6, 7, 0x571a
    570d:	3304d2        	l8ui	a13, a4, 51
    5710:	23dd00        	excw
    5713:	ddcc      	bnez.n	a13, 0x5724
    5715:	4e03e2        	l8ui	a14, a3, 78
    5718:	8e8c      	beqz.n	a14, 0x5724
    571a:	8ec191        	l32r	a9, 0xfffe9220
    571d:	9488      	l32i.n	a8, a4, 36
    571f:	108890        	and	a8, a8, a9
    5722:	9489      	s32i.n	a8, a4, 36
    5724:	6fcc      	bnez.n	a15, 0x572e
    5726:	3204a2        	l8ui	a10, a4, 50
    5729:	23aa00        	excw
    572c:	5acc      	bnez.n	a10, 0x5735
    572e:	94b8      	l32i.n	a11, a4, 36
    5730:	10bbc0        	and	a11, a11, a12
    5733:	94b9      	s32i.n	a11, a4, 36
    5735:	02ad      	mov.n	a10, a2
    5737:	6e2782        	l32i	a8, a7, 0x1b8
    573a:	eb0c      	movi.n	a11, 14
    573c:	0008e0        	excw
    573f:	ff6e46        	j	0x54fc
    5742:	0020c0        	memw
    5745:	8029a2        	l32i	a10, a9, 0x200
    5748:	34aca0        	extui	a10, a10, 12, 4
    574b:	ff5046        	j	0x5490
    574e:	360000        	excw
    5751:	410041        	l32r	a4, 0xfffd5b54
    5754:	8e7c      	movi.n	a14, -8
    5756:	f80c      	movi.n	a8, 15
    5758:	3b4432        	s8i	a3, a4, 59
    575b:	3c4422        	s8i	a2, a4, 60
    575e:	071287        	beq	a2, a8, 0x5769
    5761:	048226        	beqi	a2, 8, 0x5769
    5764:	014226        	beqi	a2, 4, 0x5769
    5767:	f01d      	excw
    5769:	8e6c21        	l32r	a2, 0xfffe911c
    576c:	9b02a2        	l8ui	a10, a2, 155
    576f:	ffa092        	movi	a9, 255
    5772:	0d9a97        	bne	a10, a9, 0x5783
    5775:	8e63a1        	l32r	a10, 0xfffe9104
    5778:	0b0c      	movi.n	a11, 0
    577a:	94f5a5        	excw
    577d:	9b02a2        	l8ui	a10, a2, 155
    5780:	bb0232        	l8ui	a3, a2, 187
    5783:	1c0c      	movi.n	a12, 1
    5785:	0b0c      	movi.n	a11, 0
    5787:	0223e6        	bgei	a3, 2, 0x578d
    578a:	0203d6        	bgez	a3, 0x57ae
    578d:	0293e6        	bgei	a3, 10, 0x5793
    5790:	1123e6        	bgei	a3, 2, 0x57a5
    5793:	dd0c      	movi.n	a13, 13
    5795:	022d37        	blt	a13, a3, 0x579b
    5798:	7593e6        	bgei	a3, 10, 0x5811
    579b:	06b3e6        	bgei	a3, 16, 0x57a5
    579e:	ee0c      	movi.n	a14, 14
    57a0:	0123e7        	blt	a3, a14, 0x57a5
    57a3:	2b0c      	movi.n	a11, 2
    57a5:	3a44b2        	s8i	a11, a4, 58
    57a8:	5ea1b2        	movi	a11, 0x15e
    57ab:	000086        	j	0x57b1
    57ae:	3a44b2        	s8i	a11, a4, 58
    57b1:	8ec3c1        	l32r	a12, 0xfffe92c0
    57b4:	1c54b2        	s16i	a11, a4, 56
    57b7:	b0aac0        	addx8	a10, a10, a12
    57ba:	800aa2        	l8ui	a10, a10, 128
    57bd:	8ec4f1        	l32r	a15, 0xfffe92d0
    57c0:	908aa0        	addx2	a8, a10, a10
    57c3:	118890        	slli	a8, a8, 7
    57c6:	ff8a      	add.n	a15, a15, a8
    57c8:	800ff2        	l8ui	a15, a15, 128
    57cb:	8e66c1        	l32r	a12, 0xfffe9164
    57ce:	951f26        	beqi	a15, 1, 0x5767
    57d1:	512cd2        	l32i	a13, a12, 0x144
    57d4:	71a292        	movi	a9, 0x271
    57d7:	31eda7        	bbsi	a13, 10, 0x580c
    57da:	dadcd2        	addmi	a13, a12, 0xffffda00
    57dd:	892dd2        	l32i	a13, a13, 0x224
    57e0:	35c0d0        	extui	a12, a13, 16, 4
    57e3:	0cac      	beqz.n	a12, 0x5807
    57e5:	8e7681        	l32r	a8, 0xfffe91c0
    57e8:	05b4d0        	extui	a11, a13, 20, 1
    57eb:	11bbc0        	slli	a11, a11, 4
    57ee:	20bcb0        	or	a11, a12, a11
    57f1:	8888      	l32i.n	a8, a8, 32
    57f3:	74b0b0        	extui	a11, a11, 0, 8
    57f6:	0008e0        	excw
    57f9:	ba02c2        	l8ui	a12, a2, 186
    57fc:	cfa392        	movi	a9, 0x3cf
    57ff:	ccaa      	add.n	a12, a12, a10
    5801:	3a44c2        	s8i	a12, a4, 58
    5804:	000106        	j	0x580c
    5807:	93b930        	movnez	a11, a9, a3
    580a:	0b9d      	mov.n	a9, a11
    580c:	1c5492        	s16i	a9, a4, 56
    580f:	f01d      	excw
    5811:	3a44c2        	s8i	a12, a4, 58
    5814:	5ea1b2        	movi	a11, 0x15e
    5817:	ffe586        	j	0x57b1
    581a:	360000        	excw
    581d:	c10041        	l32r	a4, 0xffff5c20
    5820:	8ecc      	bnez.n	a14, 0x582c
    5822:	8ec891        	l32r	a9, 0xfffe9344
    5825:	8e6e51        	l32r	a5, 0xfffe91e0
    5828:	8ecbd1        	l32r	a13, 0xfffe9354
    582b:	8ec7a1        	l32r	a10, 0xfffe9348
    582e:	8ecaf1        	l32r	a15, 0xfffe9358
    5831:	8ec521        	l32r	a2, 0xfffe9348
    5834:	8e4f31        	l32r	a3, 0xfffe9170
    5837:	8ec6b1        	l32r	a11, 0xfffe9350
    583a:	7263b2        	s32i	a11, a3, 0x1c8
    583d:	1b62f2        	s32i	a15, a2, 108
    5840:	42a9      	s32i.n	a10, a2, 16
    5842:	7363a2        	s32i	a10, a3, 0x1cc
    5845:	02d382        	addmi	a8, a3, 0x200
    5848:	3348      	l32i.n	a4, a3, 12
    584a:	1368      	l32i.n	a6, a3, 4
    584c:	5f2372        	l32i	a7, a3, 0x17c
    584f:	32b9      	s32i.n	a11, a2, 12
    5851:	05d3e2        	addmi	a14, a3, 0x500
    5854:	4ed9      	s32i.n	a13, a14, 16
    5856:	706ef2        	s32i	a15, a14, 0x1c0
    5859:	8ecdb1        	l32r	a11, 0xfffe9390
    585c:	3579      	s32i.n	a7, a5, 12
    585e:	4569      	s32i.n	a6, a5, 16
    5860:	5549      	s32i.n	a4, a5, 20
    5862:	862882        	l32i	a8, a8, 0x218
    5865:	2589      	s32i.n	a8, a5, 8
    5867:	04d3a2        	addmi	a10, a3, 0x400
    586a:	8ed341        	l32r	a4, 0xfffe93b8
    586d:	8ed161        	l32r	a6, 0xfffe93b4
    5870:	8ed071        	l32r	a7, 0xfffe93b0
    5873:	1379      	s32i.n	a7, a3, 4
    5875:	3369      	s32i.n	a6, a3, 12
    5877:	766342        	s32i	a4, a3, 0x1d8
    587a:	9a99      	s32i.n	a9, a10, 36
    587c:	8ecf81        	l32r	a8, 0xfffe93b8
    587f:	8ed421        	l32r	a2, 0xfffe93d0
    5882:	5d6322        	s32i	a2, a3, 0x174
    5885:	5f6382        	s32i	a8, a3, 0x17c
    5888:	8ec991        	l32r	a9, 0xfffe93ac
    588b:	6a99      	s32i.n	a9, a10, 24
    588d:	8ed251        	l32r	a5, 0xfffe93d8
    5890:	e66352        	s32i	a5, a3, 0x398
    5893:	8ece91        	l32r	a9, 0xfffe93cc
    5896:	06d3a2        	addmi	a10, a3, 0x600
    5899:	756ac2        	s32i	a12, a10, 0x1d4
    589c:	1e6ab2        	s32i	a11, a10, 120
    589f:	aa99      	s32i.n	a9, a10, 40
    58a1:	f01d      	excw
    58a3:	613600        	excw
    58a6:	819100        	src	a9, a1, a0
    58a9:	8e          	.byte 0x8e
    58aa:	200982        	l8ui	a8, a9, 32
    58ad:	2809a2        	l8ui	a10, a9, 40
    58b0:	075816        	beqz	a8, 0x5929
    58b3:	072a56        	bnez	a10, 0x5929
    58b6:	8ec4a1        	l32r	a10, 0xfffe93c8
    58b9:	90b220        	addx2	a11, a2, a2
    58bc:	8e66c1        	l32r	a12, 0xfffe9254
    58bf:	11bb90        	slli	a11, a11, 7
    58c2:	462cc2        	l32i	a12, a12, 0x118
    58c5:	abaa      	add.n	a10, a11, a10
    58c7:	15b2c7        	bgeu	a2, a12, 0x58e0
    58ca:	8ed6e1        	l32r	a14, 0xfffe9424
    58cd:	7f0ac2        	l8ui	a12, a10, 127
    58d0:	8ed5d1        	l32r	a13, 0xfffe9424
    58d3:	11cce0        	slli	a12, a12, 2
    58d6:	ccda      	add.n	a12, a12, a13
    58d8:	abea      	add.n	a10, a11, a14
    58da:	800aa2        	l8ui	a10, a10, 128
    58dd:	000606        	j	0x58f9
    58e0:	8ed7d1        	l32r	a13, 0xfffe943c
    58e3:	8ed8c1        	l32r	a12, 0xfffe9444
    58e6:	800ae2        	l8ui	a14, a10, 128
    58e9:	8eb0a1        	l32r	a10, 0xfffe93ac
    58ec:	ee0b      	addi.n	a14, a14, -1
    58ee:	2e2aa2        	l32i	a10, a10, 184
    58f1:	83cde0        	moveqz	a12, a13, a14
    58f4:	aaba      	add.n	a10, a10, a11
    58f6:	be0aa2        	l8ui	a10, a10, 190
    58f9:	15cc      	bnez.n	a5, 0x58fe
    58fb:	2a13a7        	beq	a3, a10, 0x5929
    58fe:	0020c0        	memw
    5901:	8e7b81        	l32r	a8, 0xfffe92f0
    5904:	ca0c      	movi.n	a10, 12
    5906:	690c      	movi.n	a9, 6
    5908:	0cb8      	l32i.n	a11, a12, 0
    590a:	074122        	s8i	a2, a1, 7
    590d:	064142        	s8i	a4, a1, 6
    5910:	084132        	s8i	a3, a1, 8
    5913:	094162        	s8i	a6, a1, 9
    5916:	01b9      	s32i.n	a11, a1, 0
    5918:	054192        	s8i	a9, a1, 5
    591b:	01bd      	mov.n	a11, a1
    591d:	0441a2        	s8i	a10, a1, 4
    5920:	282882        	l32i	a8, a8, 160
    5923:	80a0a2        	movi	a10, 128
    5926:	0008e0        	excw
    5929:	f01d      	excw
    592b:	413600        	srli	a3, a0, 6
    592e:	f01d00        	subx8	a1, a13, a0
    5931:	000000        	ill
    5934:	004136        	excw
    5937:	745020        	extui	a5, a2, 0, 8
    593a:	0e5c      	movi.n	a14, 80
    593c:	60a0f2        	movi	a15, 96
    593f:	70a0d2        	movi	a13, 112
    5942:	a0a0a2        	movi	a10, 160
    5945:	c0a0c2        	movi	a12, 192
    5948:	ffa0b2        	movi	a11, 255
    594b:	8e8041        	l32r	a4, 0xfffe934c
    594e:	160c      	movi.n	a6, 1
    5950:	03e670        	rsr.ps	a7
    5953:	290c      	movi.n	a9, 2
    5955:	348070        	extui	a8, a7, 0, 4
    5958:	022987        	blt	a9, a8, 0x595e
    595b:	006270        	rsil	a7, 2
    595e:	0020c0        	memw
    5961:	a12422        	l32i	a2, a4, 0x284
    5964:	2062c7        	bbci	a2, 12, 0x5988
    5967:	1415e7        	beq	a5, a14, 0x597f
    596a:	1115f7        	beq	a5, a15, 0x597f
    596d:	1715d7        	beq	a5, a13, 0x5988
    5970:	80c582        	addi	a8, a5, -128
    5973:	087816        	beqz	a8, 0x59fe
    5976:	0e15a7        	beq	a5, a10, 0x5988
    5979:	0b15c7        	beq	a5, a12, 0x5988
    597c:	0815b7        	beq	a5, a11, 0x5988
    597f:	13e670        	wsr.ps	a7
    5982:	002010        	rsync
    5985:	002206        	j	0x5a11
    5988:	1195e7        	bne	a5, a14, 0x599d
    598b:	8e8291        	l32r	a9, 0xfffe9394
    598e:	152992        	l32i	a9, a9, 84
    5991:	08e9a7        	bbsi	a9, 10, 0x599d
    5994:	13e670        	wsr.ps	a7
    5997:	002010        	rsync
    599a:	001cc6        	j	0x5a11
    599d:	8e8121        	l32r	a2, 0xfffe93a4
    59a0:	0a0c      	movi.n	a10, 0
    59a2:	2102b2        	l8ui	a11, a2, 33
    59a5:	8ed9c1        	l32r	a12, 0xfffe950c
    59a8:	fbdc      	bnez.n	a11, 0x59cb
    59aa:	049ac7        	bne	a10, a12, 0x59b2
    59ad:	1b0c      	movi.n	a11, 1
    59af:	2142b2        	s8i	a11, a2, 33
    59b2:	0020c0        	memw
    59b5:	9a2482        	l32i	a8, a4, 0x268
    59b8:	0a6807        	bbci	a8, 0, 0x59c6
    59bb:	0020c0        	memw
    59be:	9a6462        	s32i	a6, a4, 0x268
    59c1:	1b0c      	movi.n	a11, 1
    59c3:	2142b2        	s8i	a11, a2, 33
    59c6:	aa1b      	addi.n	a10, a10, 1
    59c8:	fdeb16        	beqz	a11, 0x59aa
    59cb:	8edaa1        	l32r	a10, 0xfffe9534
    59ce:	8edb61        	l32r	a6, 0xfffe953c
    59d1:	4025d7        	blt	a5, a13, 0x5a15
    59d4:	5d2d57        	blt	a13, a5, 0x5a35
    59d7:	0020c0        	memw
    59da:	902492        	l32i	a9, a4, 0x240
    59dd:	109960        	and	a9, a9, a6
    59e0:	209590        	or	a9, a5, a9
    59e3:	0020c0        	memw
    59e6:	906492        	s32i	a9, a4, 0x240
    59e9:	8edca1        	l32r	a10, 0xfffe955c
    59ec:	0b0c      	movi.n	a11, 0
    59ee:	2142b2        	s8i	a11, a2, 33
    59f1:	184a52        	s8i	a5, a10, 24
    59f4:	13e670        	wsr.ps	a7
    59f7:	002010        	rsync
    59fa:	120c      	movi.n	a2, 1
    59fc:	f01d      	excw
    59fe:	8e7b81        	l32r	a8, 0xfffe93ec
    5a01:	05ad      	mov.n	a10, a5
    5a03:	1f2882        	l32i	a8, a8, 124
    5a06:	03bd      	mov.n	a11, a3
    5a08:	0008e0        	excw
    5a0b:	13e670        	wsr.ps	a7
    5a0e:	002010        	rsync
    5a11:	020c      	movi.n	a2, 0
    5a13:	f01d      	excw
    5a15:	00a4b2        	movi	a11, 0x400
    5a18:	3dd5a6        	blti	a5, 64, 0x5a59
    5a1b:	094c      	movi.n	a9, 64
    5a1d:	5b2957        	blt	a9, a5, 0x5a7c
    5a20:	0020c0        	memw
    5a23:	9024a2        	l32i	a10, a4, 0x240
    5a26:	10aa60        	and	a10, a10, a6
    5a29:	20a5a0        	or	a10, a5, a10
    5a2c:	0020c0        	memw
    5a2f:	9064a2        	s32i	a10, a4, 0x240
    5a32:	ffecc6        	j	0x59e9
    5a35:	c0a0b2        	movi	a11, 192
    5a38:	7625b7        	blt	a5, a11, 0x5ab2
    5a3b:	c0a0c2        	movi	a12, 192
    5a3e:	02ac57        	bge	a12, a5, 0x5a44
    5a41:	002e06        	j	0x5afd
    5a44:	0020c0        	memw
    5a47:	9024d2        	l32i	a13, a4, 0x240
    5a4a:	10dd60        	and	a13, a13, a6
    5a4d:	20d5d0        	or	a13, a5, a13
    5a50:	0020c0        	memw
    5a53:	9064d2        	s32i	a13, a4, 0x240
    5a56:	ffe3c6        	j	0x59e9
    5a59:	02c5e6        	bgei	a5, 32, 0x5a5f
    5a5c:	002086        	j	0x5ae2
    5a5f:	0e2c      	movi.n	a14, 32
    5a61:	02ae57        	bge	a14, a5, 0x5a67
    5a64:	003446        	j	0x5b39
    5a67:	0020c0        	memw
    5a6a:	9024f2        	l32i	a15, a4, 0x240
    5a6d:	10ff60        	and	a15, a15, a6
    5a70:	20f5f0        	or	a15, a5, a15
    5a73:	0020c0        	memw
    5a76:	9064f2        	s32i	a15, a4, 0x240
    5a79:	ffdb06        	j	0x59e9
    5a7c:	02a5f7        	bge	a5, a15, 0x5a82
    5a7f:	004346        	j	0x5b90
    5a82:	02af57        	bge	a15, a5, 0x5a88
    5a85:	ffd806        	j	0x59e9
    5a88:	03bd      	mov.n	a11, a3
    5a8a:	4c0c      	movi.n	a12, 4
    5a8c:	01f0a5        	excw
    5a8f:	0398      	l32i.n	a9, a3, 0
    5a91:	0020c0        	memw
    5a94:	9c6492        	s32i	a9, a4, 0x270
    5a97:	0020c0        	memw
    5a9a:	902482        	l32i	a8, a4, 0x240
    5a9d:	00a492        	movi	a9, 0x400
    5aa0:	108860        	and	a8, a8, a6
    5aa3:	208580        	or	a8, a5, a8
    5aa6:	208890        	or	a8, a8, a9
    5aa9:	0020c0        	memw
    5aac:	906482        	s32i	a8, a4, 0x240
    5aaf:	ffcd86        	j	0x59e9
    5ab2:	90a0b2        	movi	a11, 144
    5ab5:	02a5b7        	bge	a5, a11, 0x5abb
    5ab8:	002846        	j	0x5b5d
    5abb:	02ab57        	bge	a11, a5, 0x5ac1
    5abe:	004046        	j	0x5bc3
    5ac1:	0020c0        	memw
    5ac4:	916432        	s32i	a3, a4, 0x244
    5ac7:	00a1b2        	movi	a11, 0x100
    5aca:	0020c0        	memw
    5acd:	9024a2        	l32i	a10, a4, 0x240
    5ad0:	10aa60        	and	a10, a10, a6
    5ad3:	20a5a0        	or	a10, a5, a10
    5ad6:	20aab0        	or	a10, a10, a11
    5ad9:	0020c0        	memw
    5adc:	9064a2        	s32i	a10, a4, 0x240
    5adf:	ffc186        	j	0x59e9
    5ae2:	f0c5b2        	addi	a11, a5, -16
    5ae5:	f00b56        	bnez	a11, 0x59e9
    5ae8:	0020c0        	memw
    5aeb:	9024c2        	l32i	a12, a4, 0x240
    5aee:	10cc60        	and	a12, a12, a6
    5af1:	20c5c0        	or	a12, a5, a12
    5af4:	0020c0        	memw
    5af7:	9064c2        	s32i	a12, a4, 0x240
    5afa:	ffbac6        	j	0x59e9
    5afd:	ffa0d2        	movi	a13, 255
    5b00:	02a5d7        	bge	a5, a13, 0x5b06
    5b03:	003686        	j	0x5be1
    5b06:	02f5a6        	blti	a5, 0x100, 0x5b0c
    5b09:	ffb706        	j	0x59e9
    5b0c:	03bd      	mov.n	a11, a3
    5b0e:	0c1c      	movi.n	a12, 16
    5b10:	01e865        	excw
    5b13:	8eddf1        	l32r	a15, 0xfffe9688
    5b16:	f3fa      	add.n	a15, a3, a15
    5b18:	0020c0        	memw
    5b1b:	9164f2        	s32i	a15, a4, 0x244
    5b1e:	0020c0        	memw
    5b21:	9024e2        	l32i	a14, a4, 0x240
    5b24:	8edef1        	l32r	a15, 0xfffe969c
    5b27:	10ee60        	and	a14, a14, a6
    5b2a:	20e5e0        	or	a14, a5, a14
    5b2d:	20eef0        	or	a14, a14, a15
    5b30:	0020c0        	memw
    5b33:	9064e2        	s32i	a14, a4, 0x240
    5b36:	ffabc6        	j	0x59e9
    5b39:	d0c582        	addi	a8, a5, -48
    5b3c:	ea9856        	bnez	a8, 0x59e9
    5b3f:	0020c0        	memw
    5b42:	916432        	s32i	a3, a4, 0x244
    5b45:	0020c0        	memw
    5b48:	902492        	l32i	a9, a4, 0x240
    5b4b:	109960        	and	a9, a9, a6
    5b4e:	209590        	or	a9, a5, a9
    5b51:	2099b0        	or	a9, a9, a11
    5b54:	0020c0        	memw
    5b57:	906492        	s32i	a9, a4, 0x240
    5b5a:	ffa2c6        	j	0x59e9
    5b5d:	80c5b2        	addi	a11, a5, -128
    5b60:	e85b56        	bnez	a11, 0x59e9
    5b63:	03bd      	mov.n	a11, a3
    5b65:	0c1c      	movi.n	a12, 16
    5b67:	01e325        	excw
    5b6a:	8eddd1        	l32r	a13, 0xfffe96e0
    5b6d:	d3da      	add.n	a13, a3, a13
    5b6f:	0020c0        	memw
    5b72:	9164d2        	s32i	a13, a4, 0x244
    5b75:	0020c0        	memw
    5b78:	9024c2        	l32i	a12, a4, 0x240
    5b7b:	8eded1        	l32r	a13, 0xfffe96f4
    5b7e:	10cc60        	and	a12, a12, a6
    5b81:	20c5c0        	or	a12, a5, a12
    5b84:	20ccd0        	or	a12, a12, a13
    5b87:	0020c0        	memw
    5b8a:	9064c2        	s32i	a12, a4, 0x240
    5b8d:	ff9606        	j	0x59e9
    5b90:	c0f5e0        	sub	a15, a5, a14
    5b93:	e52f56        	bnez	a15, 0x59e9
    5b96:	03bd      	mov.n	a11, a3
    5b98:	0c1c      	movi.n	a12, 16
    5b9a:	01dfe5        	excw
    5b9d:	8edd91        	l32r	a9, 0xfffe9714
    5ba0:	939a      	add.n	a9, a3, a9
    5ba2:	0020c0        	memw
    5ba5:	916492        	s32i	a9, a4, 0x244
    5ba8:	0020c0        	memw
    5bab:	902482        	l32i	a8, a4, 0x240
    5bae:	8ede91        	l32r	a9, 0xfffe9728
    5bb1:	108860        	and	a8, a8, a6
    5bb4:	208580        	or	a8, a5, a8
    5bb7:	208890        	or	a8, a8, a9
    5bba:	0020c0        	memw
    5bbd:	906482        	s32i	a8, a4, 0x240
    5bc0:	ff8946        	j	0x59e9
    5bc3:	a0a0a2        	movi	a10, 160
    5bc6:	c0a5a0        	sub	a10, a5, a10
    5bc9:	e1ca56        	bnez	a10, 0x59e9
    5bcc:	0020c0        	memw
    5bcf:	9024b2        	l32i	a11, a4, 0x240
    5bd2:	10bb60        	and	a11, a11, a6
    5bd5:	20b5b0        	or	a11, a5, a11
    5bd8:	0020c0        	memw
    5bdb:	9064b2        	s32i	a11, a4, 0x240
    5bde:	ff81c6        	j	0x59e9
    5be1:	fea0c2        	movi	a12, 254
    5be4:	c0c5c0        	sub	a12, a5, a12
    5be7:	dfec56        	bnez	a12, 0x59e9
    5bea:	0020c0        	memw
    5bed:	916432        	s32i	a3, a4, 0x244
    5bf0:	00a2e2        	movi	a14, 0x200
    5bf3:	0020c0        	memw
    5bf6:	9024d2        	l32i	a13, a4, 0x240
    5bf9:	10dd60        	and	a13, a13, a6
    5bfc:	20d5d0        	or	a13, a5, a13
    5bff:	20dde0        	or	a13, a13, a14
    5c02:	0020c0        	memw
    5c05:	9064d2        	s32i	a13, a4, 0x240
    5c08:	ff7746        	j	0x59e9
    5c0b:	413600        	srli	a3, a0, 6
    5c0e:	f01d00        	subx8	a1, a13, a0
    5c11:	000000        	ill
    5c14:	004136        	excw
    5c17:	742020        	extui	a2, a2, 0, 8
    5c1a:	02e226        	beqi	a2, 128, 0x5c20
    5c1d:	002286        	j	0x5cab
    5c20:	040382        	l8ui	a8, a3, 4
    5c23:	050392        	l8ui	a9, a3, 5
    5c26:	64a866        	bnei	a8, 12, 0x5c8e
    5c29:	616966        	bnei	a9, 6, 0x5c8e
    5c2c:	03e6c0        	rsr.ps	a12
    5c2f:	02a0d2        	movi	a13, 2
    5c32:	34b0c0        	extui	a11, a12, 0, 4
    5c35:	022db7        	blt	a13, a11, 0x5c3b
    5c38:	0062c0        	rsil	a12, 2
    5c3b:	0b0c      	movi.n	a11, 0
    5c3d:	8ee0d1        	l32r	a13, 0xfffe97c0
    5c40:	8edfa1        	l32r	a10, 0xfffe97bc
    5c43:	940dd2        	l8ui	a13, a13, 148
    5c46:	432aa2        	l32i	a10, a10, 0x10c
    5c49:	3b9d76        	excw
    5c4c:	040ae2        	l8ui	a14, a10, 4
    5c4f:	bb1b      	addi.n	a11, a11, 1
    5c51:	31ae66        	bnei	a14, 12, 0x5c86
    5c54:	050af2        	l8ui	a15, a10, 5
    5c57:	060a82        	l8ui	a8, a10, 6
    5c5a:	286f66        	bnei	a15, 6, 0x5c86
    5c5d:	251866        	bnei	a8, 1, 0x5c86
    5c60:	0603d2        	l8ui	a13, a3, 6
    5c63:	1f1d66        	bnei	a13, 1, 0x5c86
    5c66:	0703e2        	l8ui	a14, a3, 7
    5c69:	070a92        	l8ui	a9, a10, 7
    5c6c:	1699e7        	bne	a9, a14, 0x5c86
    5c6f:	090382        	l8ui	a8, a3, 9
    5c72:	0803f2        	l8ui	a15, a3, 8
    5c75:	064ad2        	s8i	a13, a10, 6
    5c78:	084af2        	s8i	a15, a10, 8
    5c7b:	094a82        	s8i	a8, a10, 9
    5c7e:	13e6c0        	wsr.ps	a12
    5c81:	002010        	rsync
    5c84:	f01d      	excw
    5c86:	4aa8      	l32i.n	a10, a10, 16
    5c88:	13e6c0        	wsr.ps	a12
    5c8b:	002010        	rsync
    5c8e:	8e7b21        	l32r	a2, 0xfffe967c
    5c91:	8288      	l32i.n	a8, a2, 32
    5c93:	0008e0        	excw
    5c96:	0a4d      	mov.n	a4, a10
    5c98:	fa8c      	beqz.n	a10, 0x5cab
    5c9a:	03bd      	mov.n	a11, a3
    5c9c:	0c1c      	movi.n	a12, 16
    5c9e:	01cfa5        	excw
    5ca1:	04ad      	mov.n	a10, a4
    5ca3:	b288      	l32i.n	a8, a2, 44
    5ca5:	8ee1b1        	l32r	a11, 0xfffe982c
    5ca8:	0008e0        	excw
    5cab:	f01d      	excw
    5cad:	000000        	ill
    5cb0:	006136        	excw
    5cb3:	8e8191        	l32r	a9, 0xfffe96b8
    5cb6:	200982        	l8ui	a8, a9, 32
    5cb9:	2809a2        	l8ui	a10, a9, 40
    5cbc:	0d2816        	beqz	a8, 0x5d92
    5cbf:	0cfa56        	bnez	a10, 0x5d92
    5cc2:	8e7b41        	l32r	a4, 0xfffe96b0
    5cc5:	04b020        	extui	a11, a2, 0, 1
    5cc8:	01b9      	s32i.n	a11, a1, 0
    5cca:	02e207        	bbsi	a2, 0, 0x5cd0
    5ccd:	7b6217        	bbci	a2, 1, 0x5d4c
    5cd0:	8e66a1        	l32r	a10, 0xfffe9668
    5cd3:	030c      	movi.n	a3, 0
    5cd5:	462aa2        	l32i	a10, a10, 0x118
    5cd8:	060c      	movi.n	a6, 0
    5cda:	0b6a16        	beqz	a10, 0x5d94
    5cdd:	8ee271        	l32r	a7, 0xfffe9868
    5ce0:	909330        	addx2	a9, a3, a3
    5ce3:	119990        	slli	a9, a9, 7
    5ce6:	f97a      	add.n	a15, a9, a7
    5ce8:	800ff2        	l8ui	a15, a15, 128
    5ceb:	8ed651        	l32r	a5, 0xfffe9844
    5cee:	04ff16        	beqz	a15, 0x5d41
    5cf1:	595a      	add.n	a5, a9, a5
    5cf3:	7f05a2        	l8ui	a10, a5, 127
    5cf6:	ea9c      	beqz.n	a10, 0x5d18
    5cf8:	03ad      	mov.n	a10, a3
    5cfa:	112482        	l32i	a8, a4, 68
    5cfd:	1b0c      	movi.n	a11, 1
    5cff:	0008e0        	excw
    5d02:	8005b2        	l8ui	a11, a5, 128
    5d05:	2bbc      	beqz.n	a11, 0x5d3b
    5d07:	03ad      	mov.n	a10, a3
    5d09:	1c0c      	movi.n	a12, 1
    5d0b:	1d0c      	movi.n	a13, 1
    5d0d:	132482        	l32i	a8, a4, 76
    5d10:	06ed      	mov.n	a14, a6
    5d12:	0008e0        	excw
    5d15:	000886        	j	0x5d3b
    5d18:	041f26        	beqi	a15, 1, 0x5d20
    5d1b:	1c6f66        	bnei	a15, 6, 0x5d3b
    5d1e:	260c      	movi.n	a6, 2
    5d20:	8005b2        	l8ui	a11, a5, 128
    5d23:	0c0c      	movi.n	a12, 0
    5d25:	1d0c      	movi.n	a13, 1
    5d27:	132482        	l32i	a8, a4, 76
    5d2a:	af0b      	addi.n	a10, a15, -1
    5d2c:	190c      	movi.n	a9, 1
    5d2e:	74e060        	extui	a14, a6, 0, 8
    5d31:	83e9a0        	moveqz	a14, a9, a10
    5d34:	0e6d      	mov.n	a6, a14
    5d36:	03ad      	mov.n	a10, a3
    5d38:	0008e0        	excw
    5d3b:	8e66a1        	l32r	a10, 0xfffe96d4
    5d3e:	462aa2        	l32i	a10, a10, 0x118
    5d41:	331b      	addi.n	a3, a3, 1
    5d43:	743030        	extui	a3, a3, 0, 8
    5d46:	9633a7        	bltu	a3, a10, 0x5ce0
    5d49:	0011c6        	j	0x5d94
    5d4c:	0188      	l32i.n	a8, a1, 0
    5d4e:	18cc      	bnez.n	a8, 0x5d53
    5d50:	3e6227        	bbci	a2, 2, 0x5d92
    5d53:	8ee3a1        	l32r	a10, 0xfffe98e0
    5d56:	8edf21        	l32r	a2, 0xfffe98d4
    5d59:	162482        	l32i	a8, a4, 88
    5d5c:	b222b2        	l32i	a11, a2, 0x2c8
    5d5f:	0008e0        	excw
    5d62:	8ee4a1        	l32r	a10, 0xfffe98f4
    5d65:	162482        	l32i	a8, a4, 88
    5d68:	b322b2        	l32i	a11, a2, 0x2cc
    5d6b:	0008e0        	excw
    5d6e:	8ee5a1        	l32r	a10, 0xfffe9904
    5d71:	162482        	l32i	a8, a4, 88
    5d74:	b522b2        	l32i	a11, a2, 0x2d4
    5d77:	0008e0        	excw
    5d7a:	8ee6a1        	l32r	a10, 0xfffe9914
    5d7d:	162482        	l32i	a8, a4, 88
    5d80:	af22b2        	l32i	a11, a2, 0x2bc
    5d83:	0008e0        	excw
    5d86:	b122b2        	l32i	a11, a2, 0x2c4
    5d89:	162482        	l32i	a8, a4, 88
    5d8c:	8ee7a1        	l32r	a10, 0xfffe9928
    5d8f:	0008e0        	excw
    5d92:	f01d      	excw
    5d94:	8eb061        	l32r	a6, 0xfffe9854
    5d97:	d70c      	movi.n	a7, 13
    5d99:	000692        	l8ui	a9, a6, 0
    5d9c:	010632        	l8ui	a3, a6, 1
    5d9f:	a919a6        	blti	a9, 1, 0x5d4c
    5da2:	2e26b2        	l32i	a11, a6, 184
    5da5:	905330        	addx2	a5, a3, a3
    5da8:	115590        	slli	a5, a5, 7
    5dab:	bb5a      	add.n	a11, a11, a5
    5dad:	010ba2        	l8ui	a10, a11, 1
    5db0:	1b9a77        	bne	a10, a7, 0x5dcf
    5db3:	be0bb2        	l8ui	a11, a11, 190
    5db6:	151b66        	bnei	a11, 1, 0x5dcf
    5db9:	03ad      	mov.n	a10, a3
    5dbb:	1c0c      	movi.n	a12, 1
    5dbd:	1d0c      	movi.n	a13, 1
    5dbf:	132482        	l32i	a8, a4, 76
    5dc2:	0e0c      	movi.n	a14, 0
    5dc4:	0008e0        	excw
    5dc7:	2e26a2        	l32i	a10, a6, 184
    5dca:	aa5a      	add.n	a10, a10, a5
    5dcc:	010aa2        	l8ui	a10, a10, 1
    5dcf:	20aa66        	bnei	a10, 12, 0x5df3
    5dd2:	2a16c2        	l16ui	a12, a6, 84
    5dd5:	2916b2        	l16ui	a11, a6, 82
    5dd8:	179bc7        	bne	a11, a12, 0x5df3
    5ddb:	03ad      	mov.n	a10, a3
    5ddd:	1b0c      	movi.n	a11, 1
    5ddf:	0c0c      	movi.n	a12, 0
    5de1:	1d0c      	movi.n	a13, 1
    5de3:	132482        	l32i	a8, a4, 76
    5de6:	0e0c      	movi.n	a14, 0
    5de8:	0008e0        	excw
    5deb:	2e26a2        	l32i	a10, a6, 184
    5dee:	aa5a      	add.n	a10, a10, a5
    5df0:	010aa2        	l8ui	a10, a10, 1
    5df3:	189a66        	bnei	a10, 10, 0x5e0f
    5df6:	3416c2        	l16ui	a12, a6, 104
    5df9:	3316b2        	l16ui	a11, a6, 102
    5dfc:	0f9bc7        	bne	a11, a12, 0x5e0f
    5dff:	03ad      	mov.n	a10, a3
    5e01:	1b0c      	movi.n	a11, 1
    5e03:	0c0c      	movi.n	a12, 0
    5e05:	1d0c      	movi.n	a13, 1
    5e07:	132482        	l32i	a8, a4, 76
    5e0a:	0e0c      	movi.n	a14, 0
    5e0c:	0008e0        	excw
    5e0f:	0106a2        	l8ui	a10, a6, 1
    5e12:	331b      	addi.n	a3, a3, 1
    5e14:	000692        	l8ui	a9, a6, 0
    5e17:	743030        	extui	a3, a3, 0, 8
    5e1a:	99aa      	add.n	a9, a9, a10
    5e1c:	822397        	blt	a3, a9, 0x5da2
    5e1f:	ffca46        	j	0x5d4c
    5e22:	360000        	excw
    5e25:	410041        	l32r	a4, 0xfffd6228
    5e28:	0c8e66        	bnei	a14, 8, 0x5e38
    5e2b:	244205        	call0	0x2a24c
    5e2e:	026d46        	j	0x67e7
    5e31:	34ac      	beqz.n	a4, 0x5e58
    5e33:	8ee871        	l32r	a7, 0xfffe99d4
    5e36:	00a022        	movi	a2, 0
    5e39:	199476        	excw
    5e3c:	908550        	addx2	a8, a5, a5
    5e3f:	551b      	addi.n	a5, a5, 1
    5e41:	118890        	slli	a8, a8, 7
    5e44:	878a      	add.n	a8, a7, a8
    5e46:	800882        	l8ui	a8, a8, 128
    5e49:	745050        	extui	a5, a5, 0, 8
    5e4c:	049867        	bne	a8, a6, 0x5e54
    5e4f:	221b      	addi.n	a2, a2, 1
    5e51:	742020        	extui	a2, a2, 0, 8
    5e54:	f03d      	nop.n
    5e56:	f01d      	excw
    5e58:	020c      	movi.n	a2, 0
    5e5a:	f01d      	excw
    5e5c:	004136        	excw
    5e5f:	8e6651        	l32r	a5, 0xfffe97f8
    5e62:	040c      	movi.n	a4, 0
    5e64:	462552        	l32i	a5, a5, 0x118
    5e67:	020c      	movi.n	a2, 0
    5e69:	95ac      	beqz.n	a5, 0x5e96
    5e6b:	8ee961        	l32r	a6, 0xfffe9a10
    5e6e:	229576        	excw
    5e71:	905440        	addx2	a5, a4, a4
    5e74:	441b      	addi.n	a4, a4, 1
    5e76:	115590        	slli	a5, a5, 7
    5e79:	565a      	add.n	a5, a6, a5
    5e7b:	d00582        	l8ui	a8, a5, 208
    5e7e:	744040        	extui	a4, a4, 0, 8
    5e81:	0d3866        	bnei	a8, 3, 0x5e92
    5e84:	102582        	l32i	a8, a5, 64
    5e87:	161532        	l16ui	a3, a5, 44
    5e8a:	046817        	bbci	a8, 1, 0x5e92
    5e8d:	232a      	add.n	a2, a3, a2
    5e8f:	742020        	extui	a2, a2, 0, 8
    5e92:	f03d      	nop.n
    5e94:	f01d      	excw
    5e96:	020c      	movi.n	a2, 0
    5e98:	f01d      	excw
    5e9a:	360000        	excw
    5e9d:	410041        	l32r	a4, 0xfffd62a0
    5ea0:	8eea      	add.n	a8, a14, a14
    5ea2:	02ad      	mov.n	a10, a2
    5ea4:	9488      	l32i.n	a8, a4, 36
    5ea6:	03bd      	mov.n	a11, a3
    5ea8:	0008e0        	excw
    5eab:	e3cc      	bnez.n	a3, 0x5ebd
    5ead:	090c      	movi.n	a9, 0
    5eaf:	8ee8a1        	l32r	a10, 0xfffe9a50
    5eb2:	90b220        	addx2	a11, a2, a2
    5eb5:	11bb90        	slli	a11, a11, 7
    5eb8:	aaba      	add.n	a10, a10, a11
    5eba:	804a92        	s8i	a9, a10, 128
    5ebd:	3a0c      	movi.n	a10, 3
    5ebf:	fff665        	excw
    5ec2:	2244a2        	s8i	a10, a4, 34
    5ec5:	2a0c      	movi.n	a10, 2
    5ec7:	fff5e5        	excw
    5eca:	2344a2        	s8i	a10, a4, 35
    5ecd:	f01d      	excw
    5ecf:	413600        	srli	a3, a0, 6
    5ed2:	eb5100        	excw
    5ed5:	8e          	.byte 0x8e
    5ed6:	906220        	addx2	a6, a2, a2
    5ed9:	116690        	slli	a6, a6, 7
    5edc:	565a      	add.n	a5, a6, a5
    5ede:	c40592        	l8ui	a9, a5, 196
    5ee1:	744030        	extui	a4, a3, 0, 8
    5ee4:	181926        	beqi	a9, 1, 0x5f00
    5ee7:	8eea31        	l32r	a3, 0xfffe9a90
    5eea:	8eecb1        	l32r	a11, 0xfffe9a9c
    5eed:	f70c      	movi.n	a7, 15
    5eef:	492926        	beqi	a9, 2, 0x5f3c
    5ef2:	fdc982        	addi	a8, a9, -3
    5ef5:	08f816        	beqz	a8, 0x5f88
    5ef8:	064966        	bnei	a9, 4, 0x5f02
    5efb:	841c      	movi.n	a4, 24
    5efd:	000046        	j	0x5f02
    5f00:	741c      	movi.n	a4, 23
    5f02:	030c      	movi.n	a3, 0
    5f04:	0694b6        	bltui	a4, 10, 0x5f0e
    5f07:	d90c      	movi.n	a9, 13
    5f09:	013947        	bltu	a9, a4, 0x5f0e
    5f0c:	a41c      	movi.n	a4, 26
    5f0e:	c505c2        	l8ui	a12, a5, 197
    5f11:	8e7b61        	l32r	a6, 0xfffe9900
    5f14:	02ad      	mov.n	a10, a2
    5f16:	6688      	l32i.n	a8, a6, 24
    5f18:	04bd      	mov.n	a11, a4
    5f1a:	0008e0        	excw
    5f1d:	04bd      	mov.n	a11, a4
    5f1f:	0a5d      	mov.n	a5, a10
    5f21:	7688      	l32i.n	a8, a6, 28
    5f23:	02ad      	mov.n	a10, a2
    5f25:	0008e0        	excw
    5f28:	2025a0        	or	a2, a5, a10
    5f2b:	0b1366        	bnei	a3, 1, 0x5f3a
    5f2e:	8eed91        	l32r	a9, 0xfffe9ae4
    5f31:	02a282        	movi	a8, 0x202
    5f34:	102290        	and	a2, a2, a9
    5f37:	202280        	or	a2, a2, a8
    5f3a:	f01d      	excw
    5f3c:	b6ba      	add.n	a11, a6, a11
    5f3e:	730ba2        	l8ui	a10, a11, 115
    5f41:	211a66        	bnei	a10, 1, 0x5f66
    5f44:	f1c4c2        	addi	a12, a4, -15
    5f47:	09dc56        	bnez	a12, 0x5fe8
    5f4a:	8b0bd2        	l8ui	a13, a11, 139
    5f4d:	23dd00        	excw
    5f50:	094d56        	bnez	a13, 0x5fe8
    5f53:	200392        	l8ui	a9, a3, 32
    5f56:	0229b6        	bltui	a9, 2, 0x5f5c
    5f59:	002746        	j	0x5ffa
    5f5c:	040c      	movi.n	a4, 0
    5f5e:	e91b      	addi.n	a14, a9, 1
    5f60:	2043e2        	s8i	a14, a3, 32
    5f63:	ffe6c6        	j	0x5f02
    5f66:	795426        	beqi	a4, 5, 0x5fe3
    5f69:	76c426        	beqi	a4, 32, 0x5fe3
    5f6c:	1f2c      	movi.n	a15, 33
    5f6e:	7114f7        	beq	a4, a15, 0x5fe3
    5f71:	0a0c      	movi.n	a10, 0
    5f73:	064a16        	beqz	a10, 0x5fdb
    5f76:	8b0b82        	l8ui	a8, a11, 139
    5f79:	238800        	excw
    5f7c:	5e28e6        	bgei	a8, 2, 0x5fde
    5f7f:	058a16        	beqz	a10, 0x5fdb
    5f82:	9347a0        	movnez	a4, a7, a10
    5f85:	ffde46        	j	0x5f02
    5f88:	8eeea1        	l32r	a10, 0xfffe9b40
    5f8b:	8e70c1        	l32r	a12, 0xfffe994c
    5f8e:	000a92        	l8ui	a9, a10, 0
    5f91:	c00cc2        	l8ui	a12, a12, 192
    5f94:	c9bc      	beqz.n	a9, 0x5fd4
    5f96:	acbc      	beqz.n	a12, 0x5fd4
    5f98:	010ad2        	l8ui	a13, a10, 1
    5f9b:	2203a2        	l8ui	a10, a3, 34
    5f9e:	0b3ad7        	bltu	a10, a13, 0x5fad
    5fa1:	ffeba5        	excw
    5fa4:	8eecb1        	l32r	a11, 0xfffe9b54
    5fa7:	144af6        	bgeui	a10, 4, 0x5fbf
    5faa:	2203a2        	l8ui	a10, a3, 34
    5fad:	3aac      	beqz.n	a10, 0x5fd4
    5faf:	8e60e1        	l32r	a14, 0xfffe9930
    5fb2:	c80ee2        	l8ui	a14, a14, 200
    5fb5:	06ee07        	bbsi	a14, 0, 0x5fbf
    5fb8:	8a9c      	beqz.n	a10, 0x5fd4
    5fba:	2303f2        	l8ui	a15, a3, 35
    5fbd:	3f9c      	beqz.n	a15, 0x5fd4
    5fbf:	86ba      	add.n	a8, a6, a11
    5fc1:	921882        	l16ui	a8, a8, 0x124
    5fc4:	0c28b6        	bltui	a8, 2, 0x5fd4
    5fc7:	b90c      	movi.n	a9, 11
    5fc9:	201497        	beq	a4, a9, 0x5fed
    5fcc:	d5a8      	l32i.n	a10, a5, 52
    5fce:	026a17        	bbci	a10, 1, 0x5fd4
    5fd1:	181477        	beq	a4, a7, 0x5fed
    5fd4:	030c      	movi.n	a3, 0
    5fd6:	941c      	movi.n	a4, 25
    5fd8:	ffca06        	j	0x5f04
    5fdb:	a31477        	beq	a4, a7, 0x5f82
    5fde:	641c      	movi.n	a4, 22
    5fe0:	ffc786        	j	0x5f02
    5fe3:	1a0c      	movi.n	a10, 1
    5fe5:	ffe286        	j	0x5f73
    5fe8:	641c      	movi.n	a4, 22
    5fea:	ffc506        	j	0x5f02
    5fed:	c505b2        	l8ui	a11, a5, 197
    5ff0:	e01b26        	beqi	a11, 1, 0x5fd4
    5ff3:	130c      	movi.n	a3, 1
    5ff5:	040c      	movi.n	a4, 0
    5ff7:	ffc246        	j	0x5f04
    5ffa:	641c      	movi.n	a4, 22
    5ffc:	0c0c      	movi.n	a12, 0
    5ffe:	2043c2        	s8i	a12, a3, 32
    6001:	ffbf46        	j	0x5f02
    6004:	008136        	excw
    6007:	2149      	s32i.n	a4, a1, 8
    6009:	0129      	s32i.n	a2, a1, 0
    600b:	8e81b1        	l32r	a11, 0xfffe9a10
    600e:	1139      	s32i.n	a3, a1, 4
    6010:	200b82        	l8ui	a8, a11, 32
    6013:	3159      	s32i.n	a5, a1, 12
    6015:	04c816        	beqz	a8, 0x6065
    6018:	8e82a1        	l32r	a10, 0xfffe9a20
    601b:	152aa2        	l32i	a10, a10, 84
    601e:	150c      	movi.n	a5, 1
    6020:	416a67        	bbci	a10, 6, 0x6065
    6023:	e7bc      	beqz.n	a7, 0x6065
    6025:	ffa0c2        	movi	a12, 255
    6028:	3916c7        	beq	a6, a12, 0x6065
    602b:	8e7b41        	l32r	a4, 0xfffe9a18
    602e:	9d0c      	movi.n	a13, 9
    6030:	3397d7        	bne	a7, a13, 0x6067
    6033:	8ec4e1        	l32r	a14, 0xfffe9b44
    6036:	90f660        	addx2	a15, a6, a6
    6039:	11ff90        	slli	a15, a15, 7
    603c:	eefa      	add.n	a14, a14, a15
    603e:	800ee2        	l8ui	a14, a14, 128
    6041:	349020        	extui	a9, a2, 0, 4
    6044:	1f1e26        	beqi	a14, 1, 0x6067
    6047:	f1c982        	addi	a8, a9, -15
    604a:	0a0816        	beqz	a8, 0x60ee
    604d:	f8c9a2        	addi	a10, a9, -8
    6050:	09aa16        	beqz	a10, 0x60ee
    6053:	fcc9c2        	addi	a12, a9, -4
    6056:	094c16        	beqz	a12, 0x60ee
    6059:	0829f6        	bgeui	a9, 2, 0x6065
    605c:	250bd2        	l8ui	a13, a11, 37
    605f:	f8cdd2        	addi	a13, a13, -8
    6062:	088d56        	bnez	a13, 0x60ee
    6065:	f01d      	excw
    6067:	8e6a21        	l32r	a2, 0xfffe9a10
    606a:	1021e2        	l32i	a14, a1, 64
    606d:	8e83f1        	l32r	a15, 0xfffe9a7c
    6070:	327ec7        	bbci	a14, 28, 0x60a6
    6073:	6b6f52        	s32i	a5, a15, 0x1ac
    6076:	01b8      	l32i.n	a11, a1, 0
    6078:	11c8      	l32i.n	a12, a1, 4
    607a:	21d8      	l32i.n	a13, a1, 8
    607c:	31e8      	l32i.n	a14, a1, 12
    607e:	462482        	l32i	a8, a4, 0x118
    6081:	06ad      	mov.n	a10, a6
    6083:	0008e0        	excw
    6086:	0b0c      	movi.n	a11, 0
    6088:	06ad      	mov.n	a10, a6
    608a:	0020c0        	memw
    608d:	0d0c      	movi.n	a13, 0
    608f:	372482        	l32i	a8, a4, 220
    6092:	9d22e2        	l32i	a14, a2, 0x274
    6095:	34c330        	extui	a12, a3, 3, 4
    6098:	04eee0        	extui	a14, a14, 14, 1
    609b:	11eec0        	slli	a14, a14, 4
    609e:	20cce0        	or	a12, a12, a14
    60a1:	0008e0        	excw
    60a4:	f01d      	excw
    60a6:	8e8071        	l32r	a7, 0xfffe9aa8
    60a9:	0020c0        	memw
    60ac:	402782        	l32i	a8, a7, 0x100
    60af:	b278c7        	bbci	a8, 28, 0x6065
    60b2:	0020c0        	memw
    60b5:	01b8      	l32i.n	a11, a1, 0
    60b7:	11c8      	l32i.n	a12, a1, 4
    60b9:	21d8      	l32i.n	a13, a1, 8
    60bb:	31e8      	l32i.n	a14, a1, 12
    60bd:	06ad      	mov.n	a10, a6
    60bf:	8eef81        	l32r	a8, 0xfffe9c7c
    60c2:	406782        	s32i	a8, a7, 0x100
    60c5:	462482        	l32i	a8, a4, 0x118
    60c8:	6b6f52        	s32i	a5, a15, 0x1ac
    60cb:	0008e0        	excw
    60ce:	0b0c      	movi.n	a11, 0
    60d0:	06ad      	mov.n	a10, a6
    60d2:	0020c0        	memw
    60d5:	0d0c      	movi.n	a13, 0
    60d7:	372482        	l32i	a8, a4, 220
    60da:	9d22e2        	l32i	a14, a2, 0x274
    60dd:	34c330        	extui	a12, a3, 3, 4
    60e0:	04eee0        	extui	a14, a14, 14, 1
    60e3:	11eec0        	slli	a14, a14, 4
    60e6:	20cce0        	or	a12, a12, a14
    60e9:	0008e0        	excw
    60ec:	f01d      	excw
    60ee:	06ad      	mov.n	a10, a6
    60f0:	01b8      	l32i.n	a11, a1, 0
    60f2:	11c8      	l32i.n	a12, a1, 4
    60f4:	21d8      	l32i.n	a13, a1, 8
    60f6:	462482        	l32i	a8, a4, 0x118
    60f9:	31e8      	l32i.n	a14, a1, 12
    60fb:	0008e0        	excw
    60fe:	06ad      	mov.n	a10, a6
    6100:	0b0c      	movi.n	a11, 0
    6102:	0c0c      	movi.n	a12, 0
    6104:	372482        	l32i	a8, a4, 220
    6107:	1d0c      	movi.n	a13, 1
    6109:	0008e0        	excw
    610c:	f01d      	excw
    610e:	360000        	excw
    6111:	290081        	l32r	a8, 0xfffd0514
    6114:	214901        	l32r	a0, 0xfffce638
    6117:	07cd      	mov.n	a12, a7
    6119:	8e8171        	l32r	a7, 0xfffe9b20
    611c:	3159      	s32i.n	a5, a1, 12
    611e:	200782        	l8ui	a8, a7, 32
    6121:	1139      	s32i.n	a3, a1, 4
    6123:	0c2816        	beqz	a8, 0x61e9
    6126:	8e82a1        	l32r	a10, 0xfffe9b30
    6129:	1f0c      	movi.n	a15, 1
    612b:	152aa2        	l32i	a10, a10, 84
    612e:	ffa022        	movi	a2, 255
    6131:	04a6a0        	extui	a10, a10, 6, 1
    6134:	0b1a16        	beqz	a10, 0x61e9
    6137:	8edfa1        	l32r	a10, 0xfffe9cb4
    613a:	9d0c      	movi.n	a13, 9
    613c:	02dab2        	addmi	a11, a10, 0x200
    613f:	621cd7        	beq	a12, a13, 0x61a5
    6142:	05fc16        	beqz	a12, 0x61a5
    6145:	5c1627        	beq	a6, a2, 0x61a5
    6148:	8e7b41        	l32r	a4, 0xfffe9b34
    614b:	fd0c      	movi.n	a13, 15
    614d:	8e6a51        	l32r	a5, 0xfffe9af8
    6150:	8e80e1        	l32r	a14, 0xfffe9b50
    6153:	0020c0        	memw
    6156:	402ee2        	l32i	a14, a14, 0x100
    6159:	05ece0        	extui	a14, a14, 28, 1
    615c:	08be16        	beqz	a14, 0x61eb
    615f:	0020c0        	memw
    6162:	01b8      	l32i.n	a11, a1, 0
    6164:	11c8      	l32i.n	a12, a1, 4
    6166:	21d8      	l32i.n	a13, a1, 8
    6168:	31e8      	l32i.n	a14, a1, 12
    616a:	8e8381        	l32r	a8, 0xfffe9b78
    616d:	8e80a1        	l32r	a10, 0xfffe9b70
    6170:	8eef91        	l32r	a9, 0xfffe9d2c
    6173:	406a92        	s32i	a9, a10, 0x100
    6176:	6b68f2        	s32i	a15, a8, 0x1ac
    6179:	462482        	l32i	a8, a4, 0x118
    617c:	06ad      	mov.n	a10, a6
    617e:	0008e0        	excw
    6181:	06ad      	mov.n	a10, a6
    6183:	0b0c      	movi.n	a11, 0
    6185:	0020c0        	memw
    6188:	0d0c      	movi.n	a13, 0
    618a:	372482        	l32i	a8, a4, 220
    618d:	9d25e2        	l32i	a14, a5, 0x274
    6190:	34c330        	extui	a12, a3, 3, 4
    6193:	04eee0        	extui	a14, a14, 14, 1
    6196:	11eec0        	slli	a14, a14, 4
    6199:	20cce0        	or	a12, a12, a14
    619c:	0008e0        	excw
    619f:	8edfa1        	l32r	a10, 0xfffe9d1c
    61a2:	02dab2        	addmi	a11, a10, 0x200
    61a5:	254722        	s8i	a2, a7, 37
    61a8:	274722        	s8i	a2, a7, 39
    61ab:	ee2a82        	l32i	a8, a10, 0x3b8
    61ae:	8ef0d1        	l32r	a13, 0xfffe9d70
    61b1:	8e7091        	l32r	a9, 0xfffe9b74
    61b4:	0c0c      	movi.n	a12, 0
    61b6:	2307e2        	l8ui	a14, a7, 35
    61b9:	2447e2        	s8i	a14, a7, 36
    61bc:	234722        	s8i	a2, a7, 35
    61bf:	6b6bc2        	s32i	a12, a11, 0x1ac
    61c2:	6c6bc2        	s32i	a12, a11, 0x1b0
    61c5:	2c4922        	s8i	a2, a9, 44
    61c8:	364922        	s8i	a2, a9, 54
    61cb:	6c6dc2        	s32i	a12, a13, 0x1b0
    61ce:	6e6dc2        	s32i	a12, a13, 0x1b8
    61d1:	6f6dc2        	s32i	a12, a13, 0x1bc
    61d4:	706dc2        	s32i	a12, a13, 0x1c0
    61d7:	716dc2        	s32i	a12, a13, 0x1c4
    61da:	6e6bc2        	s32i	a12, a11, 0x1b8
    61dd:	3449c2        	s8i	a12, a9, 52
    61e0:	3549c2        	s8i	a12, a9, 53
    61e3:	93c880        	movnez	a12, a8, a8
    61e6:	6f6bc2        	s32i	a12, a11, 0x1bc
    61e9:	f01d      	excw
    61eb:	2307f2        	l8ui	a15, a7, 35
    61ee:	fb3f56        	bnez	a15, 0x61a5
    61f1:	8ec481        	l32r	a8, 0xfffe9d04
    61f4:	909660        	addx2	a9, a6, a6
    61f7:	119990        	slli	a9, a9, 7
    61fa:	889a      	add.n	a8, a8, a9
    61fc:	800882        	l8ui	a8, a8, 128
    61ff:	eb2ac2        	l32i	a12, a10, 0x3ac
    6202:	9f1826        	beqi	a8, 1, 0x61a5
    6205:	f9cc56        	bnez	a12, 0x61a5
    6208:	8e6cc1        	l32r	a12, 0xfffe9bb8
    620b:	bc0cc2        	l8ui	a12, a12, 188
    620e:	051cd7        	beq	a12, a13, 0x6217
    6211:	028c26        	beqi	a12, 8, 0x6217
    6214:	8d4c66        	bnei	a12, 4, 0x61a5
    6217:	06ad      	mov.n	a10, a6
    6219:	01b8      	l32i.n	a11, a1, 0
    621b:	11c8      	l32i.n	a12, a1, 4
    621d:	21d8      	l32i.n	a13, a1, 8
    621f:	462482        	l32i	a8, a4, 0x118
    6222:	31e8      	l32i.n	a14, a1, 12
    6224:	0008e0        	excw
    6227:	0b0c      	movi.n	a11, 0
    6229:	06ad      	mov.n	a10, a6
    622b:	0020c0        	memw
    622e:	0d0c      	movi.n	a13, 0
    6230:	372482        	l32i	a8, a4, 220
    6233:	9d25e2        	l32i	a14, a5, 0x274
    6236:	34c330        	extui	a12, a3, 3, 4
    6239:	04eee0        	extui	a14, a14, 14, 1
    623c:	11eec0        	slli	a14, a14, 4
    623f:	20cce0        	or	a12, a12, a14
    6242:	0008e0        	excw
    6245:	8edfa1        	l32r	a10, 0xfffe9dc4
    6248:	02dab2        	addmi	a11, a10, 0x200
    624b:	ffd586        	j	0x61a5
    624e:	360000        	excw
    6251:	410041        	l32r	a4, 0xfffd6654
    6254:	328ef1        	l32r	a15, 0xfffd2c8c
    6257:	320002        	l8ui	a0, a0, 50
    625a:	1d0b44        	excw
    625d:	0000f0        	excw
    6260:	006136        	excw
    6263:	8e8191        	l32r	a9, 0xfffe9c68
    6266:	200982        	l8ui	a8, a9, 32
    6269:	2809a2        	l8ui	a10, a9, 40
    626c:	c8ac      	beqz.n	a8, 0x629c
    626e:	aaec      	bnez.n	a10, 0x629c
    6270:	8e80c1        	l32r	a12, 0xfffe9c70
    6273:	0020c0        	memw
    6276:	8ef1b1        	l32r	a11, 0xfffe9e3c
    6279:	ca0c      	movi.n	a10, 12
    627b:	8e7b81        	l32r	a8, 0xfffe9c68
    627e:	291c      	movi.n	a9, 18
    6280:	a32cc2        	l32i	a12, a12, 0x28c
    6283:	01c9      	s32i.n	a12, a1, 0
    6285:	054192        	s8i	a9, a1, 5
    6288:	282882        	l32i	a8, a8, 160
    628b:	0441a2        	s8i	a10, a1, 4
    628e:	0b0bb2        	l8ui	a11, a11, 11
    6291:	0641b2        	s8i	a11, a1, 6
    6294:	80a0a2        	movi	a10, 128
    6297:	01bd      	mov.n	a11, a1
    6299:	0008e0        	excw
    629c:	f01d      	excw
    629e:	360000        	excw
    62a1:	810041        	l32r	a4, 0xfffe66a4
    62a4:	918e82        	excw
    62a7:	828e81        	l32r	a8, 0xfffe6ce0
    62aa:	0408      	l32i.n	a0, a4, 0
    62ac:	200992        	l8ui	a9, a9, 32
    62af:	2a3866        	bnei	a8, 3, 0x62dd
    62b2:	79ac      	beqz.n	a9, 0x62dd
    62b4:	0402a2        	l8ui	a10, a2, 4
    62b7:	fb0c      	movi.n	a11, 15
    62b9:	16aa66        	bnei	a10, 12, 0x62d3
    62bc:	0502a2        	l8ui	a10, a2, 5
    62bf:	1c9ab7        	bne	a10, a11, 0x62df
    62c2:	8eeed1        	l32r	a13, 0xfffe9e7c
    62c5:	0602e2        	l8ui	a14, a2, 6
    62c8:	004de2        	s8i	a14, a13, 0
    62cb:	0702c2        	l8ui	a12, a2, 7
    62ce:	014dc2        	s8i	a12, a13, 1
    62d1:	f01d      	excw
    62d3:	8eea81        	l32r	a8, 0xfffe9e7c
    62d6:	a888      	l32i.n	a8, a8, 40
    62d8:	02ad      	mov.n	a10, a2
    62da:	0008e0        	excw
    62dd:	f01d      	excw
    62df:	06ba66        	bnei	a10, 16, 0x62e9
    62e2:	a26b      	addi.n	a10, a2, 6
    62e4:	fff6a5        	excw
    62e7:	f01d      	excw
    62e9:	191c      	movi.n	a9, 17
    62eb:	049a97        	bne	a10, a9, 0x62f3
    62ee:	fff725        	excw
    62f1:	f01d      	excw
    62f3:	db0c      	movi.n	a11, 13
    62f5:	da9ab7        	bne	a10, a11, 0x62d3
    62f8:	090292        	l8ui	a9, a2, 9
    62fb:	0312f2        	l16ui	a15, a2, 6
    62fe:	d199f6        	bgeui	a9, 10, 0x62d3
    6301:	8e60e1        	l32r	a14, 0xfffe9c84
    6304:	8ef2d1        	l32r	a13, 0xfffe9ecc
    6307:	1ee8      	l32i.n	a14, a14, 4
    6309:	b0d9d0        	addx8	a13, a9, a13
    630c:	015df2        	s16i	a15, a13, 2
    630f:	41e1e0        	srli	a14, a14, 1
    6312:	1de9      	s32i.n	a14, a13, 4
    6314:	0802c2        	l8ui	a12, a2, 8
    6317:	004dc2        	s8i	a12, a13, 0
    631a:	f01d      	excw
    631c:	00e136        	excw
    631f:	1a0c      	movi.n	a10, 1
    6321:	8ef0b1        	l32r	a11, 0xfffe9ee4
    6324:	2e0c      	movi.n	a14, 2
    6326:	070c      	movi.n	a7, 0
    6328:	01e9      	s32i.n	a14, a1, 0
    632a:	03e690        	rsr.ps	a9
    632d:	2d0c      	movi.n	a13, 2
    632f:	34c090        	extui	a12, a9, 0, 4
    6332:	022dc7        	blt	a13, a12, 0x6338
    6335:	006290        	rsil	a9, 2
    6338:	696ba2        	s32i	a10, a11, 0x1a4
    633b:	13e690        	wsr.ps	a9
    633e:	002010        	rsync
    6341:	00a092        	movi	a9, 0
    6344:	8e80a1        	l32r	a10, 0xfffe9d44
    6347:	10c162        	addi	a6, a1, 16
    634a:	04a082        	movi	a8, 4
    634d:	12a876        	excw
    6350:	a0c960        	addx4	a12, a9, a6
    6353:	a0b9a0        	addx4	a11, a9, a10
    6356:	0020c0        	memw
    6359:	991b      	addi.n	a9, a9, 1
    635b:	a32bb2        	l32i	a11, a11, 0x28c
    635e:	0cb9      	s32i.n	a11, a12, 0
    6360:	749090        	extui	a9, a9, 0, 8
    6363:	8e8341        	l32r	a4, 0xfffe9d70
    6366:	8e7b51        	l32r	a5, 0xfffe9d54
    6369:	0020c0        	memw
    636c:	c42ac2        	l32i	a12, a10, 0x310
    636f:	81c9      	s32i.n	a12, a1, 32
    6371:	03e680        	rsr.ps	a8
    6374:	2b0c      	movi.n	a11, 2
    6376:	349080        	extui	a9, a8, 0, 4
    6379:	022b97        	blt	a11, a9, 0x637f
    637c:	006280        	rsil	a8, 2
    637f:	e32442        	l32i	a4, a4, 0x38c
    6382:	106182        	s32i	a8, a1, 64
    6385:	08a416        	beqz	a4, 0x6413
    6388:	8e65b1        	l32r	a11, 0xfffe9d1c
    638b:	027c      	movi.n	a2, -16
    638d:	24d8      	l32i.n	a13, a4, 8
    638f:	043d      	mov.n	a3, a4
    6391:	35f6d0        	extui	a15, a13, 22, 4
    6394:	90fff0        	addx2	a15, a15, a15
    6397:	11ff90        	slli	a15, a15, 7
    639a:	fbfa      	add.n	a15, a11, a15
    639c:	800ff2        	l8ui	a15, a15, 128
    639f:	14c8      	l32i.n	a12, a4, 4
    63a1:	a0ff60        	addx4	a15, a15, a6
    63a4:	0ff8      	l32i.n	a15, a15, 0
    63a6:	8e8381        	l32r	a8, 0xfffe9db4
    63a9:	2fbcf7        	bgeu	a12, a15, 0x63dc
    63ac:	e32882        	l32i	a8, a8, 0x38c
    63af:	44a8      	l32i.n	a10, a4, 16
    63b1:	c08840        	sub	a8, a8, a4
    63b4:	0a4d      	mov.n	a4, a10
    63b6:	0a0856        	bnez	a8, 0x645a
    63b9:	8ef091        	l32r	a9, 0xfffe9f7c
    63bc:	6369a2        	s32i	a10, a9, 0x18c
    63bf:	0c6a16        	beqz	a10, 0x6489
    63c2:	2ac8      	l32i.n	a12, a10, 8
    63c4:	34d0c0        	extui	a13, a12, 0, 4
    63c7:	10cc20        	and	a12, a12, a2
    63ca:	dd0b      	addi.n	a13, a13, -1
    63cc:	34d0d0        	extui	a13, a13, 0, 4
    63cf:	20ccd0        	or	a12, a12, a13
    63d2:	2ac9      	s32i.n	a12, a10, 8
    63d4:	4aa8      	l32i.n	a10, a10, 16
    63d6:	fe8a56        	bnez	a10, 0x63c2
    63d9:	002b06        	j	0x6489
    63dc:	64e8      	l32i.n	a14, a4, 24
    63de:	aeac      	beqz.n	a14, 0x640c
    63e0:	04b8      	l32i.n	a11, a4, 0
    63e2:	34e8      	l32i.n	a14, a4, 12
    63e4:	3f2582        	l32i	a8, a5, 252
    63e7:	30c1a2        	addi	a10, a1, 48
    63ea:	0008e0        	excw
    63ed:	0a5c      	movi.n	a10, 80
    63ef:	282582        	l32i	a8, a5, 160
    63f2:	30c1b2        	addi	a11, a1, 48
    63f5:	0008e0        	excw
    63f8:	8e65b1        	l32r	a11, 0xfffe9d8c
    63fb:	9acc      	bnez.n	a10, 0x6408
    63fd:	102192        	l32i	a9, a1, 64
    6400:	13e690        	wsr.ps	a9
    6403:	002010        	rsync
    6406:	f01d      	excw
    6408:	0a0c      	movi.n	a10, 0
    640a:	64a9      	s32i.n	a10, a4, 24
    640c:	4348      	l32i.n	a4, a3, 16
    640e:	037d      	mov.n	a7, a3
    6410:	f79456        	bnez	a4, 0x638d
    6413:	1021e2        	l32i	a14, a1, 64
    6416:	13e6e0        	wsr.ps	a14
    6419:	002010        	rsync
    641c:	03e620        	rsr.ps	a2
    641f:	2d0c      	movi.n	a13, 2
    6421:	34c020        	extui	a12, a2, 0, 4
    6424:	022dc7        	blt	a13, a12, 0x642a
    6427:	006220        	rsil	a2, 2
    642a:	8e82b1        	l32r	a11, 0xfffe9e34
    642d:	152bb2        	l32i	a11, a11, 84
    6430:	136b97        	bbci	a11, 9, 0x6447
    6433:	8e81f1        	l32r	a15, 0xfffe9e38
    6436:	220ff2        	l8ui	a15, a15, 34
    6439:	0a1f66        	bnei	a15, 1, 0x6447
    643c:	60a0a2        	movi	a10, 96
    643f:	282582        	l32i	a8, a5, 160
    6442:	01bd      	mov.n	a11, a1
    6444:	0008e0        	excw
    6447:	8ef0a1        	l32r	a10, 0xfffea008
    644a:	090c      	movi.n	a9, 0
    644c:	686a92        	s32i	a9, a10, 0x1a0
    644f:	696a92        	s32i	a9, a10, 0x1a4
    6452:	13e620        	wsr.ps	a2
    6455:	002010        	rsync
    6458:	f01d      	excw
    645a:	47a9      	s32i.n	a10, a7, 16
    645c:	2adc      	bnez.n	a10, 0x6472
    645e:	8e83c1        	l32r	a12, 0xfffe9e6c
    6461:	e52cc2        	l32i	a12, a12, 0x394
    6464:	8ef0d1        	l32r	a13, 0xfffea024
    6467:	059c37        	bne	a12, a3, 0x6470
    646a:	656d72        	s32i	a7, a13, 0x194
    646d:	000606        	j	0x6489
    6470:	5a9c      	beqz.n	a10, 0x6489
    6472:	2ae8      	l32i.n	a14, a10, 8
    6474:	34f0e0        	extui	a15, a14, 0, 4
    6477:	10ee20        	and	a14, a14, a2
    647a:	ff0b      	addi.n	a15, a15, -1
    647c:	34f0f0        	extui	a15, a15, 0, 4
    647f:	20eef0        	or	a14, a14, a15
    6482:	2ae9      	s32i.n	a14, a10, 8
    6484:	4aa8      	l32i.n	a10, a10, 16
    6486:	fe8a56        	bnez	a10, 0x6472
    6489:	03ad      	mov.n	a10, a3
    648b:	0b0c      	movi.n	a11, 0
    648d:	0c1c      	movi.n	a12, 16
    648f:	0162a5        	excw
    6492:	ea0c      	movi.n	a10, 14
    6494:	8ef0c1        	l32r	a12, 0xfffea054
    6497:	8e70b1        	l32r	a11, 0xfffe9e58
    649a:	402582        	l32i	a8, a5, 0x100
    649d:	8e83d1        	l32r	a13, 0xfffe9eac
    64a0:	0e0c      	movi.n	a14, 0
    64a2:	e42dd2        	l32i	a13, a13, 0x390
    64a5:	63e9      	s32i.n	a14, a3, 24
    64a7:	53e9      	s32i.n	a14, a3, 20
    64a9:	43d9      	s32i.n	a13, a3, 16
    64ab:	1c0b92        	l8ui	a9, a11, 28
    64ae:	646c32        	s32i	a3, a12, 0x190
    64b1:	239900        	excw
    64b4:	990b      	addi.n	a9, a9, -1
    64b6:	1c4b92        	s8i	a9, a11, 28
    64b9:	0008e0        	excw
    64bc:	8e70e1        	l32r	a14, 0xfffe9e7c
    64bf:	1c0ee2        	l8ui	a14, a14, 28
    64c2:	8e65b1        	l32r	a11, 0xfffe9e58
    64c5:	04e7e0        	extui	a14, a14, 7, 1
    64c8:	f44e16        	beqz	a14, 0x6410
    64cb:	8ef3a1        	l32r	a10, 0xfffea098
    64ce:	0b0c      	movi.n	a11, 0
    64d0:	942025        	excw
    64d3:	8e65b1        	l32r	a11, 0xfffe9e68
    64d6:	ffcd86        	j	0x6410
    64d9:	000000        	ill
    64dc:	00e136        	excw
    64df:	190c      	movi.n	a9, 1
    64e1:	8ef0b1        	l32r	a11, 0xfffea0a4
    64e4:	2e0c      	movi.n	a14, 2
    64e6:	070c      	movi.n	a7, 0
    64e8:	01e9      	s32i.n	a14, a1, 0
    64ea:	03e6a0        	rsr.ps	a10
    64ed:	2d0c      	movi.n	a13, 2
    64ef:	34c0a0        	extui	a12, a10, 0, 4
    64f2:	022dc7        	blt	a13, a12, 0x64f8
    64f5:	0062a0        	rsil	a10, 2
    64f8:	6a6b92        	s32i	a9, a11, 0x1a8
    64fb:	13e6a0        	wsr.ps	a10
    64fe:	002010        	rsync
    6501:	00a0a2        	movi	a10, 0
    6504:	8e80b1        	l32r	a11, 0xfffe9f04
    6507:	10c162        	addi	a6, a1, 16
    650a:	04a082        	movi	a8, 4
    650d:	12a876        	excw
    6510:	a0da60        	addx4	a13, a10, a6
    6513:	a0cab0        	addx4	a12, a10, a11
    6516:	0020c0        	memw
    6519:	aa1b      	addi.n	a10, a10, 1
    651b:	a32cc2        	l32i	a12, a12, 0x28c
    651e:	0dc9      	s32i.n	a12, a13, 0
    6520:	74a0a0        	extui	a10, a10, 0, 8
    6523:	8e83a1        	l32r	a10, 0xfffe9f30
    6526:	0020c0        	memw
    6529:	c42b32        	l32i	a3, a11, 0x310
    652c:	8139      	s32i.n	a3, a1, 32
    652e:	03e6d0        	rsr.ps	a13
    6531:	2f0c      	movi.n	a15, 2
    6533:	34e0d0        	extui	a14, a13, 0, 4
    6536:	022fe7        	blt	a15, a14, 0x653c
    6539:	0062d0        	rsil	a13, 2
    653c:	e32a32        	l32i	a3, a10, 0x38c
    653f:	1061d2        	s32i	a13, a1, 64
    6542:	059316        	beqz	a3, 0x659f
    6545:	8e65b1        	l32r	a11, 0xfffe9edc
    6548:	027c      	movi.n	a2, -16
    654a:	23e8      	l32i.n	a14, a3, 8
    654c:	035d      	mov.n	a5, a3
    654e:	35e6e0        	extui	a14, a14, 22, 4
    6551:	90eee0        	addx2	a14, a14, a14
    6554:	11ee90        	slli	a14, a14, 7
    6557:	ebea      	add.n	a14, a11, a14
    6559:	800ee2        	l8ui	a14, a14, 128
    655c:	13d8      	l32i.n	a13, a3, 4
    655e:	a0ee60        	addx4	a14, a14, a6
    6561:	0ee8      	l32i.n	a14, a14, 0
    6563:	4348      	l32i.n	a4, a3, 16
    6565:	2fbde7        	bgeu	a13, a14, 0x6598
    6568:	04cd      	mov.n	a12, a4
    656a:	e32af2        	l32i	a15, a10, 0x38c
    656d:	043d      	mov.n	a3, a4
    656f:	021f57        	beq	a15, a5, 0x6575
    6572:	002086        	j	0x65f8
    6575:	8ef081        	l32r	a8, 0xfffea138
    6578:	636842        	s32i	a4, a8, 0x18c
    657b:	0a5416        	beqz	a4, 0x6624
    657e:	2c98      	l32i.n	a9, a12, 8
    6580:	34d090        	extui	a13, a9, 0, 4
    6583:	109920        	and	a9, a9, a2
    6586:	dd0b      	addi.n	a13, a13, -1
    6588:	34d0d0        	extui	a13, a13, 0, 4
    658b:	2099d0        	or	a9, a9, a13
    658e:	2c99      	s32i.n	a9, a12, 8
    6590:	4cc8      	l32i.n	a12, a12, 16
    6592:	fe8c56        	bnez	a12, 0x657e
    6595:	0022c6        	j	0x6624
    6598:	037d      	mov.n	a7, a3
    659a:	043d      	mov.n	a3, a4
    659c:	faa456        	bnez	a4, 0x654a
    659f:	102122        	l32i	a2, a1, 64
    65a2:	13e620        	wsr.ps	a2
    65a5:	002010        	rsync
    65a8:	03e620        	rsr.ps	a2
    65ab:	2f0c      	movi.n	a15, 2
    65ad:	34e020        	extui	a14, a2, 0, 4
    65b0:	022fe7        	blt	a15, a14, 0x65b6
    65b3:	006220        	rsil	a2, 2
    65b6:	e32a32        	l32i	a3, a10, 0x38c
    65b9:	0c0316        	beqz	a3, 0x667d
    65bc:	5388      	l32i.n	a8, a3, 20
    65be:	e8ec      	bnez.n	a8, 0x65f0
    65c0:	03b8      	l32i.n	a11, a3, 0
    65c2:	13c8      	l32i.n	a12, a3, 4
    65c4:	23d8      	l32i.n	a13, a3, 8
    65c6:	8e7b81        	l32r	a8, 0xfffe9fb4
    65c9:	33e8      	l32i.n	a14, a3, 12
    65cb:	3f2882        	l32i	a8, a8, 252
    65ce:	30c1a2        	addi	a10, a1, 48
    65d1:	0008e0        	excw
    65d4:	8e7b81        	l32r	a8, 0xfffe9fc0
    65d7:	0a5c      	movi.n	a10, 80
    65d9:	282882        	l32i	a8, a8, 160
    65dc:	30c1b2        	addi	a11, a1, 48
    65df:	0008e0        	excw
    65e2:	6acc      	bnez.n	a10, 0x65ec
    65e4:	13e620        	wsr.ps	a2
    65e7:	002010        	rsync
    65ea:	f01d      	excw
    65ec:	190c      	movi.n	a9, 1
    65ee:	5399      	s32i.n	a9, a3, 20
    65f0:	4338      	l32i.n	a3, a3, 16
    65f2:	fc6356        	bnez	a3, 0x65bc
    65f5:	002106        	j	0x667d
    65f8:	4749      	s32i.n	a4, a7, 16
    65fa:	f4cc      	bnez.n	a4, 0x660d
    65fc:	e52ad2        	l32i	a13, a10, 0x394
    65ff:	8ef0e1        	l32r	a14, 0xfffea1c0
    6602:	059d57        	bne	a13, a5, 0x660b
    6605:	656e72        	s32i	a7, a14, 0x194
    6608:	000606        	j	0x6624
    660b:	549c      	beqz.n	a4, 0x6624
    660d:	2cf8      	l32i.n	a15, a12, 8
    660f:	3480f0        	extui	a8, a15, 0, 4
    6612:	10ff20        	and	a15, a15, a2
    6615:	880b      	addi.n	a8, a8, -1
    6617:	348080        	extui	a8, a8, 0, 4
    661a:	20ff80        	or	a15, a15, a8
    661d:	2cf9      	s32i.n	a15, a12, 8
    661f:	4cc8      	l32i.n	a12, a12, 16
    6621:	fe8c56        	bnez	a12, 0x660d
    6624:	05ad      	mov.n	a10, a5
    6626:	0b0c      	movi.n	a11, 0
    6628:	0c1c      	movi.n	a12, 16
    662a:	0148e5        	excw
    662d:	da0c      	movi.n	a10, 13
    662f:	8ef0c1        	l32r	a12, 0xfffea1f0
    6632:	8e70b1        	l32r	a11, 0xfffe9ff4
    6635:	0e0c      	movi.n	a14, 0
    6637:	8e83d1        	l32r	a13, 0xfffea044
    663a:	8e7b81        	l32r	a8, 0xfffea028
    663d:	e42dd2        	l32i	a13, a13, 0x390
    6640:	402882        	l32i	a8, a8, 0x100
    6643:	65e9      	s32i.n	a14, a5, 24
    6645:	55e9      	s32i.n	a14, a5, 20
    6647:	45d9      	s32i.n	a13, a5, 16
    6649:	1c0b92        	l8ui	a9, a11, 28
    664c:	646c52        	s32i	a5, a12, 0x190
    664f:	239900        	excw
    6652:	990b      	addi.n	a9, a9, -1
    6654:	1c4b92        	s8i	a9, a11, 28
    6657:	0008e0        	excw
    665a:	8e7091        	l32r	a9, 0xfffea01c
    665d:	8e83a1        	l32r	a10, 0xfffea06c
    6660:	1c0992        	l8ui	a9, a9, 28
    6663:	8e65b1        	l32r	a11, 0xfffe9ff8
    6666:	049790        	extui	a9, a9, 7, 1
    6669:	f2f916        	beqz	a9, 0x659c
    666c:	8ef3a1        	l32r	a10, 0xfffea238
    666f:	0b0c      	movi.n	a11, 0
    6671:	940625        	excw
    6674:	8e83a1        	l32r	a10, 0xfffea080
    6677:	8e65b1        	l32r	a11, 0xfffea00c
    667a:	ffc786        	j	0x659c
    667d:	13e620        	wsr.ps	a2
    6680:	002010        	rsync
    6683:	03e620        	rsr.ps	a2
    6686:	2c0c      	movi.n	a12, 2
    6688:	34b020        	extui	a11, a2, 0, 4
    668b:	022cb7        	blt	a12, a11, 0x6691
    668e:	006220        	rsil	a2, 2
    6691:	8e82a1        	l32r	a10, 0xfffea09c
    6694:	152aa2        	l32i	a10, a10, 84
    6697:	0d6a97        	bbci	a10, 9, 0x66a8
    669a:	8e7b81        	l32r	a8, 0xfffea088
    669d:	60a0a2        	movi	a10, 96
    66a0:	282882        	l32i	a8, a8, 160
    66a3:	01bd      	mov.n	a11, a1
    66a5:	0008e0        	excw
    66a8:	8ef0a1        	l32r	a10, 0xfffea268
    66ab:	090c      	movi.n	a9, 0
    66ad:	6a6a92        	s32i	a9, a10, 0x1a8
    66b0:	13e620        	wsr.ps	a2
    66b3:	002010        	rsync
    66b6:	f01d      	excw
    66b8:	006136        	excw
    66bb:	0b0c      	movi.n	a11, 0
    66bd:	8edf71        	l32r	a7, 0xfffea23c
    66c0:	54a6c2        	movi	a12, 0x654
    66c3:	07ad      	mov.n	a10, a7
    66c5:	013f25        	excw
    66c8:	fea0b2        	movi	a11, 254
    66cb:	8ef461        	l32r	a6, 0xfffea29c
    66ce:	00a2c2        	movi	a12, 0x200
    66d1:	06ad      	mov.n	a10, a6
    66d3:	013e65        	excw
    66d6:	79a0a2        	movi	a10, 121
    66d9:	01bd      	mov.n	a11, a1
    66db:	cc0c      	movi.n	a12, 12
    66dd:	8e0b81        	l32r	a8, 0xfffe9f0c
    66e0:	ffa042        	movi	a4, 255
    66e3:	4888      	l32i.n	a8, a8, 16
    66e5:	084142        	s8i	a4, a1, 8
    66e8:	0008e0        	excw
    66eb:	150c      	movi.n	a5, 1
    66ed:	020c      	movi.n	a2, 0
    66ef:	8ef531        	l32r	a3, 0xfffea2c4
    66f2:	8eea91        	l32r	a9, 0xfffea29c
    66f5:	046a16        	beqz	a10, 0x673f
    66f8:	0601a2        	l8ui	a10, a1, 6
    66fb:	0701b2        	l8ui	a11, a1, 7
    66fe:	0401c2        	l8ui	a12, a1, 4
    6701:	0301d2        	l8ui	a13, a1, 3
    6704:	0201e2        	l8ui	a14, a1, 2
    6707:	0101f2        	l8ui	a15, a1, 1
    670a:	000182        	l8ui	a8, a1, 0
    670d:	284382        	s8i	a8, a3, 40
    6710:	2943f2        	s8i	a15, a3, 41
    6713:	2a43e2        	s8i	a14, a3, 42
    6716:	2b43d2        	s8i	a13, a3, 43
    6719:	2e43c2        	s8i	a12, a3, 46
    671c:	11bb80        	slli	a11, a11, 8
    671f:	20aab0        	or	a10, a10, a11
    6722:	1f53a2        	s16i	a10, a3, 62
    6725:	0501b2        	l8ui	a11, a1, 5
    6728:	0801a2        	l8ui	a10, a1, 8
    672b:	2f43b2        	s8i	a11, a3, 47
    672e:	23aa00        	excw
    6731:	0a49a2        	s8i	a10, a9, 10
    6734:	250a66        	bnei	a10, -1, 0x675d
    6737:	ca7c      	movi.n	a10, -4
    6739:	0a49a2        	s8i	a10, a9, 10
    673c:	000746        	j	0x675d
    673f:	2a4352        	s8i	a5, a3, 42
    6742:	2b4322        	s8i	a2, a3, 43
    6745:	2e4352        	s8i	a5, a3, 46
    6748:	2f4352        	s8i	a5, a3, 47
    674b:	1f5322        	s16i	a2, a3, 62
    674e:	ca7c      	movi.n	a10, -4
    6750:	ec1c      	movi.n	a12, 30
    6752:	5d0c      	movi.n	a13, 5
    6754:	2843d2        	s8i	a13, a3, 40
    6757:	2943c2        	s8i	a12, a3, 41
    675a:	0a49a2        	s8i	a10, a9, 10
    675d:	8e7281        	l32r	a8, 0xfffea128
    6760:	aa2882        	l32i	a8, a8, 0x2a8
    6763:	0008e0        	excw
    6766:	e329      	s32i.n	a2, a3, 56
    6768:	1e5322        	s16i	a2, a3, 60
    676b:	d329      	s32i.n	a2, a3, 52
    676d:	185322        	s16i	a2, a3, 48
    6770:	195322        	s16i	a2, a3, 50
    6773:	2d4352        	s8i	a5, a3, 45
    6776:	2c4352        	s8i	a5, a3, 44
    6779:	0d2c      	movi.n	a13, 32
    677b:	8ef6c1        	l32r	a12, 0xfffea354
    677e:	8eeee1        	l32r	a14, 0xfffea338
    6781:	2c69      	s32i.n	a6, a12, 8
    6783:	024ea2        	s8i	a10, a14, 2
    6786:	8e8161        	l32r	a6, 0xfffea18c
    6789:	005cd2        	s16i	a13, a12, 0
    678c:	294642        	s8i	a4, a6, 41
    678f:	8e25b1        	l32r	a11, 0xfffea024
    6792:	01dcd2        	addmi	a13, a12, 0x100
    6795:	0020c0        	memw
    6798:	adcc92        	addi	a9, a12, -83
    679b:	ff0c      	movi.n	a15, 15
    679d:	8edc81        	l32r	a8, 0xfffea310
    67a0:	0a1c      	movi.n	a10, 16
    67a2:	942bb2        	l32i	a11, a11, 0x250
    67a5:	2a4622        	s8i	a2, a6, 42
    67a8:	214652        	s8i	a5, a6, 33
    67ab:	224622        	s8i	a2, a6, 34
    67ae:	706db2        	s32i	a11, a13, 0x1c0
    67b1:	284622        	s8i	a2, a6, 40
    67b4:	0b0c      	movi.n	a11, 0
    67b6:	07aa76        	excw
    67b9:	8049b2        	s8i	a11, a9, 128
    67bc:	18c992        	addi	a9, a9, 24
    67bf:	bb1b      	addi.n	a11, a11, 1
    67c1:	234642        	s8i	a4, a6, 35
    67c4:	184822        	s8i	a2, a8, 24
    67c7:	00afa2        	movi	a10, 0xffffff00
    67ca:	fb7c      	movi.n	a11, -1
    67cc:	766cb2        	s32i	a11, a12, 0x1d8
    67cf:	776cb2        	s32i	a11, a12, 0x1dc
    67d2:	786cb2        	s32i	a11, a12, 0x1e0
    67d5:	796ca2        	s32i	a10, a12, 0x1e4
    67d8:	8ef0c1        	l32r	a12, 0xfffea398
    67db:	8ef7a1        	l32r	a10, 0xfffea3b8
    67de:	636c22        	s32i	a2, a12, 0x18c
    67e1:	cccc92        	addi	a9, a12, -52
    67e4:	656c22        	s32i	a2, a12, 0x194
    67e7:	646c92        	s32i	a9, a12, 0x190
    67ea:	e8cc92        	addi	a9, a12, -24
    67ed:	08af76        	excw
    67f0:	f06a92        	s32i	a9, a10, 0x3c0
    67f3:	1ccaa2        	addi	a10, a10, 28
    67f6:	1cc992        	addi	a9, a9, 28
    67f9:	666c22        	s32i	a2, a12, 0x198
    67fc:	606c22        	s32i	a2, a12, 0x180
    67ff:	8ef8a1        	l32r	a10, 0xfffea3e0
    6802:	8e80d1        	l32r	a13, 0xfffea204
    6805:	422792        	l32i	a9, a7, 0x108
    6808:	0020c0        	memw
    680b:	986d92        	s32i	a9, a13, 0x260
    680e:	801782        	l16ui	a8, a7, 0x100
    6811:	0020c0        	memw
    6814:	8e82f1        	l32r	a15, 0xfffea21c
    6817:	996d82        	s32i	a8, a13, 0x264
    681a:	152ff2        	l32i	a15, a15, 84
    681d:	14fdf0        	extui	a15, a15, 13, 2
    6820:	0020c0        	memw
    6823:	946df2        	s32i	a15, a13, 0x250
    6826:	0020c0        	memw
    6829:	936d52        	s32i	a5, a13, 0x24c
    682c:	0020c0        	memw
    682f:	8eede1        	l32r	a14, 0xfffea3e4
    6832:	952dc2        	l32i	a12, a13, 0x254
    6835:	10cce0        	and	a12, a12, a14
    6838:	0020c0        	memw
    683b:	956dc2        	s32i	a12, a13, 0x254
    683e:	0020c0        	memw
    6841:	a42a92        	l32i	a9, a10, 0x290
    6844:	1b7c      	movi.n	a11, -15
    6846:	1099b0        	and	a9, a9, a11
    6849:	2b0c      	movi.n	a11, 2
    684b:	2099b0        	or	a9, a9, a11
    684e:	0020c0        	memw
    6851:	8e7b81        	l32r	a8, 0xfffea240
    6854:	252882        	l32i	a8, a8, 148
    6857:	a46a92        	s32i	a9, a10, 0x290
    685a:	0008e0        	excw
    685d:	146322        	s32i	a2, a3, 80
    6860:	404322        	s8i	a2, a3, 64
    6863:	244642        	s8i	a4, a6, 36
    6866:	264642        	s8i	a4, a6, 38
    6869:	8e6ab1        	l32r	a11, 0xfffea214
    686c:	0020c0        	memw
    686f:	842bb2        	l32i	a11, a11, 0x210
    6872:	95b6b0        	extui	a11, a11, 22, 10
    6875:	bb0b      	addi.n	a11, a11, -1
    6877:	3446b2        	s8i	a11, a6, 52
    687a:	8ef9a1        	l32r	a10, 0xfffea460
    687d:	0020c0        	memw
    6880:	842aa2        	l32i	a10, a10, 0x210
    6883:	e5a1a0        	extui	a10, a10, 17, 15
    6886:	aa0b      	addi.n	a10, a10, -1
    6888:	3546a2        	s8i	a10, a6, 53
    688b:	f01d      	excw
    688d:	000000        	ill
    6890:	006136        	excw
    6893:	8e8281        	l32r	a8, 0xfffea29c
    6896:	040882        	l8ui	a8, a8, 4
    6899:	433866        	bnei	a8, 3, 0x68e0
    689c:	8ef2d1        	l32r	a13, 0xfffea464
    689f:	8e86f1        	l32r	a15, 0xfffea2b8
    68a2:	b0d2d0        	addx8	a13, a2, a13
    68a5:	000d92        	l8ui	a9, a13, 0
    68a8:	1d88      	l32i.n	a8, a13, 4
    68aa:	29bc      	beqz.n	a9, 0x68e0
    68ac:	8e6ba1        	l32r	a10, 0xfffea258
    68af:	8e60c1        	l32r	a12, 0xfffea230
    68b2:	90b220        	addx2	a11, a2, a2
    68b5:	11bb90        	slli	a11, a11, 7
    68b8:	1ce8      	l32i.n	a14, a12, 4
    68ba:	aaba      	add.n	a10, a10, a11
    68bc:	652a92        	l32i	a9, a10, 0x194
    68bf:	41e1e0        	srli	a14, a14, 1
    68c2:	738890        	excw
    68c5:	c0ee80        	sub	a14, a14, a8
    68c8:	10eef0        	and	a14, a14, a15
    68cb:	011df2        	l16ui	a15, a13, 2
    68ce:	11eef0        	slli	a14, a14, 1
    68d1:	0b2ef7        	blt	a14, a15, 0x68e0
    68d4:	ffa0e2        	movi	a14, 255
    68d7:	0792e7        	bne	a2, a14, 0x68e2
    68da:	8ed5c1        	l32r	a12, 0xfffea430
    68dd:	000986        	j	0x6907
    68e0:	f01d      	excw
    68e2:	26dcf2        	addmi	a15, a12, 0x2600
    68e5:	462ff2        	l32i	a15, a15, 0x118
    68e8:	7e0ac2        	l8ui	a12, a10, 126
    68eb:	0ab2f7        	bgeu	a2, a15, 0x68f9
    68ee:	8ed5e1        	l32r	a14, 0xfffea444
    68f1:	11cce0        	slli	a12, a12, 2
    68f4:	ccea      	add.n	a12, a12, a14
    68f6:	000346        	j	0x6907
    68f9:	8ed7e1        	l32r	a14, 0xfffea458
    68fc:	7f0af2        	l8ui	a15, a10, 127
    68ff:	8ed8c1        	l32r	a12, 0xfffea460
    6902:	ff0b      	addi.n	a15, a15, -1
    6904:	83cef0        	moveqz	a12, a14, a15
    6907:	090c      	movi.n	a9, 0
    6909:	ca0c      	movi.n	a10, 12
    690b:	0020c0        	memw
    690e:	8e7b81        	l32r	a8, 0xfffea2fc
    6911:	0cb8      	l32i.n	a11, a12, 0
    6913:	064122        	s8i	a2, a1, 6
    6916:	004d92        	s8i	a9, a13, 0
    6919:	074192        	s8i	a9, a1, 7
    691c:	2139      	s32i.n	a3, a1, 8
    691e:	0441a2        	s8i	a10, a1, 4
    6921:	01b9      	s32i.n	a11, a1, 0
    6923:	0541a2        	s8i	a10, a1, 5
    6926:	01bd      	mov.n	a11, a1
    6928:	282882        	l32i	a8, a8, 160
    692b:	80a0a2        	movi	a10, 128
    692e:	0008e0        	excw
    6931:	f01d      	excw
    6933:	413600        	srli	a3, a0, 6
    6936:	f01d00        	subx8	a1, a13, a0
    6939:	000000        	ill
    693c:	00a136        	excw
    693f:	8e8031        	l32r	a3, 0xfffea340
    6942:	0020c0        	memw
    6945:	9b2382        	l32i	a8, a3, 0x26c
    6948:	0020c0        	memw
    694b:	9f2392        	l32i	a9, a3, 0x27c
    694e:	18cc      	bnez.n	a8, 0x6953
    6950:	25a916        	beqz	a9, 0x6bae
    6953:	0020c0        	memw
    6956:	9e2392        	l32i	a9, a3, 0x278
    6959:	0020c0        	memw
    695c:	9a2372        	l32i	a7, a3, 0x268
    695f:	24b716        	beqz	a7, 0x6bae
    6962:	2199      	s32i.n	a9, a1, 8
    6964:	8e0e51        	l32r	a5, 0xfffea19c
    6967:	8e8121        	l32r	a2, 0xfffea36c
    696a:	0020c0        	memw
    696d:	9e6392        	s32i	a9, a3, 0x278
    6970:	ea7c      	movi.n	a10, -2
    6972:	10a7a0        	and	a10, a7, a10
    6975:	0020c0        	memw
    6978:	9a63a2        	s32i	a10, a3, 0x268
    697b:	5a67a7        	bbci	a7, 10, 0x69d9
    697e:	0020c0        	memw
    6981:	140c      	movi.n	a4, 1
    6983:	a123f2        	l32i	a15, a3, 0x284
    6986:	090c      	movi.n	a9, 0
    6988:	048cf0        	extui	a8, a15, 12, 1
    698b:	839480        	moveqz	a9, a4, a8
    698e:	220242        	l8ui	a4, a2, 34
    6991:	224292        	s8i	a9, a2, 34
    6994:	15efc7        	bbsi	a15, 12, 0x69ad
    6997:	8ef5a1        	l32r	a10, 0xfffea56c
    699a:	8aa8      	l32i.n	a10, a10, 32
    699c:	0d1a66        	bnei	a10, 1, 0x69ad
    699f:	8e7b81        	l32r	a8, 0xfffea38c
    69a2:	262882        	l32i	a8, a8, 152
    69a5:	2a0c      	movi.n	a10, 2
    69a7:	0008e0        	excw
    69aa:	220292        	l8ui	a9, a2, 34
    69ad:	281966        	bnei	a9, 1, 0x69d9
    69b0:	54ec      	bnez.n	a4, 0x69d9
    69b2:	7588      	l32i.n	a8, a5, 28
    69b4:	8efac1        	l32r	a12, 0xfffea59c
    69b7:	8efba1        	l32r	a10, 0xfffea5a4
    69ba:	8e82d1        	l32r	a13, 0xfffea3c4
    69bd:	190c      	movi.n	a9, 1
    69bf:	5dd8      	l32i.n	a13, a13, 20
    69c1:	1a6a92        	s32i	a9, a10, 104
    69c4:	000cb2        	l8ui	a11, a12, 0
    69c7:	9a0c      	movi.n	a10, 9
    69c9:	93b9d0        	movnez	a11, a9, a13
    69cc:	004cb2        	s8i	a11, a12, 0
    69cf:	0d0c      	movi.n	a13, 0
    69d1:	16a2b2        	movi	a11, 0x216
    69d4:	0c0c      	movi.n	a12, 0
    69d6:	0008e0        	excw
    69d9:	0b6717        	bbci	a7, 1, 0x69e8
    69dc:	0020c0        	memw
    69df:	a023e2        	l32i	a14, a3, 0x280
    69e2:	0020c0        	memw
    69e5:	a063e2        	s32i	a14, a3, 0x280
    69e8:	8ef641        	l32r	a4, 0xfffea5c0
    69eb:	ffd462        	addmi	a6, a4, 0xffffff00
    69ee:	206787        	bbci	a7, 8, 0x6a12
    69f1:	8edcc1        	l32r	a12, 0xfffea564
    69f4:	6b24f2        	l32i	a15, a4, 0x1ac
    69f7:	180c      	movi.n	a8, 1
    69f9:	214282        	s8i	a8, a2, 33
    69fc:	ff1b      	addi.n	a15, a15, 1
    69fe:	180ca2        	l8ui	a10, a12, 24
    6a01:	6b64f2        	s32i	a15, a4, 0x1ac
    6a04:	aa8c      	beqz.n	a10, 0x6a12
    6a06:	8e7b81        	l32r	a8, 0xfffea3f4
    6a09:	1f2882        	l32i	a8, a8, 124
    6a0c:	1cccb2        	addi	a11, a12, 28
    6a0f:	0008e0        	excw
    6a12:	196737        	bbci	a7, 3, 0x6a2f
    6a15:	8ef591        	l32r	a9, 0xfffea5ec
    6a18:	8998      	l32i.n	a9, a9, 32
    6a1a:	19dc      	bnez.n	a9, 0x6a2f
    6a1c:	1a0c      	movi.n	a10, 1
    6a1e:	af2692        	l32i	a9, a6, 0x2bc
    6a21:	8e7b81        	l32r	a8, 0xfffea410
    6a24:	991b      	addi.n	a9, a9, 1
    6a26:	262882        	l32i	a8, a8, 152
    6a29:	6f6492        	s32i	a9, a4, 0x1bc
    6a2c:	0008e0        	excw
    6a2f:	049970        	extui	a9, a7, 9, 1
    6a32:	154916        	beqz	a9, 0x6b8a
    6a35:	0020c0        	memw
    6a38:	21b8      	l32i.n	a11, a1, 8
    6a3a:	9f23a2        	l32i	a10, a3, 0x27c
    6a3d:	10aab0        	and	a10, a10, a11
    6a40:	41a9      	s32i.n	a10, a1, 16
    6a42:	1d6a07        	bbci	a10, 0, 0x6a63
    6a45:	8ef5c1        	l32r	a12, 0xfffea61c
    6a48:	8cc8      	l32i.n	a12, a12, 32
    6a4a:	0a1c66        	bnei	a12, 1, 0x6a58
    6a4d:	8e7b81        	l32r	a8, 0xfffea43c
    6a50:	262882        	l32i	a8, a8, 152
    6a53:	3a0c      	movi.n	a10, 3
    6a55:	0008e0        	excw
    6a58:	8e7b81        	l32r	a8, 0xfffea444
    6a5b:	2c2882        	l32i	a8, a8, 176
    6a5e:	0a0c      	movi.n	a10, 0
    6a60:	0008e0        	excw
    6a63:	4198      	l32i.n	a9, a1, 16
    6a65:	6b6957        	bbci	a9, 5, 0x6ad4
    6a68:	0020c0        	memw
    6a6b:	8eedb1        	l32r	a11, 0xfffea620
    6a6e:	a123c2        	l32i	a12, a3, 0x284
    6a71:	1a0c      	movi.n	a10, 1
    6a73:	34c8c0        	extui	a12, a12, 8, 4
    6a76:	401c00        	ssl	a12
    6a79:	a1aa00        	sll	a10, a10
    6a7c:	11a9      	s32i.n	a10, a1, 4
    6a7e:	119a00        	slli	a9, a10, 16
    6a81:	1099b0        	and	a9, a9, a11
    6a84:	9199      	s32i.n	a9, a1, 36
    6a86:	0020c0        	memw
    6a89:	9723c2        	l32i	a12, a3, 0x25c
    6a8c:	20cc90        	or	a12, a12, a9
    6a8f:	0020c0        	memw
    6a92:	9763c2        	s32i	a12, a3, 0x25c
    6a95:	0020c0        	memw
    6a98:	9723b2        	l32i	a11, a3, 0x25c
    6a9b:	10aab0        	and	a10, a10, a11
    6a9e:	f4a0a0        	extui	a10, a10, 0, 16
    6aa1:	badc      	bnez.n	a10, 0x6ac0
    6aa3:	8e1781        	l32r	a8, 0xfffea300
    6aa6:	6888      	l32i.n	a8, a8, 24
    6aa8:	1a0c      	movi.n	a10, 1
    6aaa:	0008e0        	excw
    6aad:	0020c0        	memw
    6ab0:	9723a2        	l32i	a10, a3, 0x25c
    6ab3:	1198      	l32i.n	a9, a1, 4
    6ab5:	1099a0        	and	a9, a9, a10
    6ab8:	f49090        	extui	a9, a9, 0, 16
    6abb:	fe4916        	beqz	a9, 0x6aa3
    6abe:	9198      	l32i.n	a9, a1, 36
    6ac0:	fc7c      	movi.n	a12, -1
    6ac2:	30c9c0        	xor	a12, a9, a12
    6ac5:	0020c0        	memw
    6ac8:	9723b2        	l32i	a11, a3, 0x25c
    6acb:	10bbc0        	and	a11, a11, a12
    6ace:	0020c0        	memw
    6ad1:	9763b2        	s32i	a11, a3, 0x25c
    6ad4:	41d8      	l32i.n	a13, a1, 16
    6ad6:	02ed87        	bbsi	a13, 8, 0x6adc
    6ad9:	002306        	j	0x6b69
    6adc:	0020c0        	memw
    6adf:	992342        	l32i	a4, a3, 0x264
    6ae2:	8ef5e1        	l32r	a14, 0xfffea6b8
    6ae5:	f54040        	extui	a4, a4, 16, 16
    6ae8:	8ee8      	l32i.n	a14, a14, 32
    6aea:	7149      	s32i.n	a4, a1, 28
    6aec:	06ee56        	bnez	a14, 0x6b5e
    6aef:	fea052        	movi	a5, 254
    6af2:	2902a2        	l8ui	a10, a2, 41
    6af5:	ffa0f2        	movi	a15, 255
    6af8:	c0faf0        	sub	a15, a10, a15
    6afb:	150f56        	bnez	a15, 0x6c4f
    6afe:	7149      	s32i.n	a4, a1, 28
    6b00:	05a416        	beqz	a4, 0x6b5e
    6b03:	040c      	movi.n	a4, 0
    6b05:	8e8281        	l32r	a8, 0xfffea510
    6b08:	11d4c0        	slli	a13, a4, 4
    6b0b:	4226c2        	l32i	a12, a6, 0x108
    6b0e:	152882        	l32i	a8, a8, 84
    6b11:	ccda      	add.n	a12, a12, a13
    6b13:	058080        	extui	a8, a8, 16, 1
    6b16:	116816        	beqz	a8, 0x6c30
    6b19:	040c92        	l8ui	a9, a12, 4
    6b1c:	3c4b      	addi.n	a3, a12, 4
    6b1e:	029957        	bne	a9, a5, 0x6b24
    6b21:	002546        	j	0x6bba
    6b24:	9a0c      	movi.n	a10, 9
    6b26:	8e0e81        	l32r	a8, 0xfffea360
    6b29:	1ea2b2        	movi	a11, 0x21e
    6b2c:	7888      	l32i.n	a8, a8, 28
    6b2e:	0d1c      	movi.n	a13, 16
    6b30:	0008e0        	excw
    6b33:	004352        	s8i	a5, a3, 0
    6b36:	004146        	j	0x6c3f
    6b39:	9a0c      	movi.n	a10, 9
    6b3b:	8e0e81        	l32r	a8, 0xfffea374
    6b3e:	1ea2b2        	movi	a11, 0x21e
    6b41:	7888      	l32i.n	a8, a8, 28
    6b43:	0d1c      	movi.n	a13, 16
    6b45:	0008e0        	excw
    6b48:	8e82d1        	l32r	a13, 0xfffea550
    6b4b:	8e81e1        	l32r	a14, 0xfffea550
    6b4e:	3198      	l32i.n	a9, a1, 12
    6b50:	01a8      	l32i.n	a10, a1, 0
    6b52:	991b      	addi.n	a9, a9, 1
    6b54:	3199      	s32i.n	a9, a1, 12
    6b56:	02b9a7        	bgeu	a9, a10, 0x6b5c
    6b59:	004246        	j	0x6c66
    6b5c:	7149      	s32i.n	a4, a1, 28
    6b5e:	8e0e51        	l32r	a5, 0xfffea398
    6b61:	8e81c1        	l32r	a12, 0xfffea568
    6b64:	71b8      	l32i.n	a11, a1, 28
    6b66:	294cb2        	s8i	a11, a12, 41
    6b69:	41d8      	l32i.n	a13, a1, 16
    6b6b:	8ef641        	l32r	a4, 0xfffea744
    6b6e:	186dc7        	bbci	a13, 12, 0x6b8a
    6b71:	8e7b81        	l32r	a8, 0xfffea560
    6b74:	2c2882        	l32i	a8, a8, 176
    6b77:	1a0c      	movi.n	a10, 1
    6b79:	0008e0        	excw
    6b7c:	0a1c      	movi.n	a10, 16
    6b7e:	86a3b2        	movi	a11, 0x386
    6b81:	0c0c      	movi.n	a12, 0
    6b83:	7588      	l32i.n	a8, a5, 28
    6b85:	0d0c      	movi.n	a13, 0
    6b87:	0008e0        	excw
    6b8a:	076727        	bbci	a7, 2, 0x6b95
    6b8d:	b02692        	l32i	a9, a6, 0x2c0
    6b90:	991b      	addi.n	a9, a9, 1
    6b92:	706492        	s32i	a9, a4, 0x1c0
    6b95:	076777        	bbci	a7, 7, 0x6ba0
    6b98:	ac26a2        	l32i	a10, a6, 0x2b0
    6b9b:	aa1b      	addi.n	a10, a10, 1
    6b9d:	6c64a2        	s32i	a10, a4, 0x1b0
    6ba0:	076757        	bbci	a7, 5, 0x6bab
    6ba3:	ad26b2        	l32i	a11, a6, 0x2b4
    6ba6:	bb1b      	addi.n	a11, a11, 1
    6ba8:	6d64b2        	s32i	a11, a4, 0x1b4
    6bab:	01e747        	bbsi	a7, 4, 0x6bb0
    6bae:	f01d      	excw
    6bb0:	ae26c2        	l32i	a12, a6, 0x2b8
    6bb3:	cc1b      	addi.n	a12, a12, 1
    6bb5:	6e64c2        	s32i	a12, a4, 0x1b8
    6bb8:	f01d      	excw
    6bba:	020c      	movi.n	a2, 0
    6bbc:	040c      	movi.n	a4, 0
    6bbe:	b126d2        	l32i	a13, a6, 0x2c4
    6bc1:	0e0c      	movi.n	a14, 0
    6bc3:	81e9      	s32i.n	a14, a1, 32
    6bc5:	8ef6e1        	l32r	a14, 0xfffea7a0
    6bc8:	dd1b      	addi.n	a13, a13, 1
    6bca:	716ed2        	s32i	a13, a14, 0x1c4
    6bcd:	422632        	l32i	a3, a6, 0x108
    6bd0:	332a      	add.n	a3, a3, a2
    6bd2:	0403b2        	l8ui	a11, a3, 4
    6bd5:	334b      	addi.n	a3, a3, 4
    6bd7:	2e1b57        	beq	a11, a5, 0x6c09
    6bda:	8efca1        	l32r	a10, 0xfffea7cc
    6bdd:	04cd      	mov.n	a12, a4
    6bdf:	71d8      	l32i.n	a13, a1, 28
    6be1:	8e4981        	l32r	a8, 0xfffea508
    6be4:	8e81e1        	l32r	a14, 0xfffea5e8
    6be7:	d888      	l32i.n	a8, a8, 52
    6be9:	290ee2        	l8ui	a14, a14, 41
    6bec:	0008e0        	excw
    6bef:	9a0c      	movi.n	a10, 9
    6bf1:	1ea2b2        	movi	a11, 0x21e
    6bf4:	0d1c      	movi.n	a13, 16
    6bf6:	8e0e81        	l32r	a8, 0xfffea430
    6bf9:	4226c2        	l32i	a12, a6, 0x108
    6bfc:	7888      	l32i.n	a8, a8, 28
    6bfe:	cc2a      	add.n	a12, a12, a2
    6c00:	0008e0        	excw
    6c03:	8198      	l32i.n	a9, a1, 32
    6c05:	991b      	addi.n	a9, a9, 1
    6c07:	8199      	s32i.n	a9, a1, 32
    6c09:	004352        	s8i	a5, a3, 0
    6c0c:	10c222        	addi	a2, a2, 16
    6c0f:	441b      	addi.n	a4, a4, 1
    6c11:	b8c466        	bnei	a4, 32, 0x6bcd
    6c14:	81a8      	l32i.n	a10, a1, 32
    6c16:	1adc      	bnez.n	a10, 0x6c2b
    6c18:	8e4981        	l32r	a8, 0xfffea53c
    6c1b:	d888      	l32i.n	a8, a8, 52
    6c1d:	8efda1        	l32r	a10, 0xfffea814
    6c20:	0008e0        	excw
    6c23:	8ef3a1        	l32r	a10, 0xfffea7f0
    6c26:	0b0c      	movi.n	a11, 0
    6c28:	93aaa5        	excw
    6c2b:	042c      	movi.n	a4, 32
    6c2d:	000386        	j	0x6c3f
    6c30:	9a0c      	movi.n	a10, 9
    6c32:	8e0e81        	l32r	a8, 0xfffea46c
    6c35:	1ea2b2        	movi	a11, 0x21e
    6c38:	7888      	l32i.n	a8, a8, 28
    6c3a:	0d1c      	movi.n	a13, 16
    6c3c:	0008e0        	excw
    6c3f:	8e8281        	l32r	a8, 0xfffea648
    6c42:	7198      	l32i.n	a9, a1, 28
    6c44:	441b      	addi.n	a4, a4, 1
    6c46:	02b497        	bgeu	a4, a9, 0x6c4c
    6c49:	ffaec6        	j	0x6b08
    6c4c:	ffc386        	j	0x6b5e
    6c4f:	7149      	s32i.n	a4, a1, 28
    6c51:	c0b4a0        	sub	a11, a4, a10
    6c54:	0c0c      	movi.n	a12, 0
    6c56:	31c9      	s32i.n	a12, a1, 12
    6c58:	44b0b0        	extui	a11, a11, 0, 5
    6c5b:	01b9      	s32i.n	a11, a1, 0
    6c5d:	efdb16        	beqz	a11, 0x6b5e
    6c60:	8e82d1        	l32r	a13, 0xfffea668
    6c63:	8e81e1        	l32r	a14, 0xfffea668
    6c66:	4226c2        	l32i	a12, a6, 0x108
    6c69:	31f8      	l32i.n	a15, a1, 12
    6c6b:	152dd2        	l32i	a13, a13, 84
    6c6e:	290ee2        	l8ui	a14, a14, 41
    6c71:	05d0d0        	extui	a13, a13, 16, 1
    6c74:	eefa      	add.n	a14, a14, a15
    6c76:	44e0e0        	extui	a14, a14, 0, 5
    6c79:	11eec0        	slli	a14, a14, 4
    6c7c:	ccea      	add.n	a12, a12, a14
    6c7e:	eb7d16        	beqz	a13, 0x6b39
    6c81:	040ce2        	l8ui	a14, a12, 4
    6c84:	3c4b      	addi.n	a3, a12, 4
    6c86:	141e57        	beq	a14, a5, 0x6c9e
    6c89:	9a0c      	movi.n	a10, 9
    6c8b:	8e0e81        	l32r	a8, 0xfffea4c4
    6c8e:	1ea2b2        	movi	a11, 0x21e
    6c91:	7888      	l32i.n	a8, a8, 28
    6c93:	0d1c      	movi.n	a13, 16
    6c95:	0008e0        	excw
    6c98:	004352        	s8i	a5, a3, 0
    6c9b:	ffaa46        	j	0x6b48
    6c9e:	020c      	movi.n	a2, 0
    6ca0:	b12692        	l32i	a9, a6, 0x2c4
    6ca3:	0a0c      	movi.n	a10, 0
    6ca5:	51a9      	s32i.n	a10, a1, 20
    6ca7:	8ef6a1        	l32r	a10, 0xfffea880
    6caa:	991b      	addi.n	a9, a9, 1
    6cac:	716a92        	s32i	a9, a10, 0x1c4
    6caf:	422632        	l32i	a3, a6, 0x108
    6cb2:	448020        	extui	a8, a2, 0, 5
    6cb5:	1188c0        	slli	a8, a8, 4
    6cb8:	6189      	s32i.n	a8, a1, 24
    6cba:	338a      	add.n	a3, a3, a8
    6cbc:	0403b2        	l8ui	a11, a3, 4
    6cbf:	334b      	addi.n	a3, a3, 4
    6cc1:	301b57        	beq	a11, a5, 0x6cf5
    6cc4:	8efca1        	l32r	a10, 0xfffea8b4
    6cc7:	02cd      	mov.n	a12, a2
    6cc9:	04dd      	mov.n	a13, a4
    6ccb:	8e4981        	l32r	a8, 0xfffea5f0
    6cce:	8e81e1        	l32r	a14, 0xfffea6d4
    6cd1:	d888      	l32i.n	a8, a8, 52
    6cd3:	290ee2        	l8ui	a14, a14, 41
    6cd6:	0008e0        	excw
    6cd9:	9a0c      	movi.n	a10, 9
    6cdb:	1ea2b2        	movi	a11, 0x21e
    6cde:	0d1c      	movi.n	a13, 16
    6ce0:	61e8      	l32i.n	a14, a1, 24
    6ce2:	8e0e81        	l32r	a8, 0xfffea51c
    6ce5:	4226c2        	l32i	a12, a6, 0x108
    6ce8:	7888      	l32i.n	a8, a8, 28
    6cea:	ccea      	add.n	a12, a12, a14
    6cec:	0008e0        	excw
    6cef:	5198      	l32i.n	a9, a1, 20
    6cf1:	991b      	addi.n	a9, a9, 1
    6cf3:	5199      	s32i.n	a9, a1, 20
    6cf5:	004352        	s8i	a5, a3, 0
    6cf8:	221b      	addi.n	a2, a2, 1
    6cfa:	b1c266        	bnei	a2, 32, 0x6caf
    6cfd:	0b2c      	movi.n	a11, 32
    6cff:	51a8      	l32i.n	a10, a1, 20
    6d01:	31b9      	s32i.n	a11, a1, 12
    6d03:	e41a56        	bnez	a10, 0x6b48
    6d06:	8e4981        	l32r	a8, 0xfffea62c
    6d09:	d888      	l32i.n	a8, a8, 52
    6d0b:	8efda1        	l32r	a10, 0xfffea900
    6d0e:	0008e0        	excw
    6d11:	8ef3a1        	l32r	a10, 0xfffea8e0
    6d14:	0b0c      	movi.n	a11, 0
    6d16:	939be5        	excw
    6d19:	ff8ac6        	j	0x6b48
    6d1c:	004136        	excw
    6d1f:	8f01a1        	l32r	a10, 0xfffea924
    6d22:	8f00b1        	l32r	a11, 0xfffea924
    6d25:	8f0291        	l32r	a9, 0xfffea930
    6d28:	8eeae1        	l32r	a14, 0xfffea8d0
    6d2b:	8effc1        	l32r	a12, 0xfffea928
    6d2e:	8f0381        	l32r	a8, 0xfffea93c
    6d31:	8efe31        	l32r	a3, 0xfffea92c
    6d34:	8f0441        	l32r	a4, 0xfffea944
    6d37:	5e23d2        	l32i	a13, a3, 0x178
    6d3a:	5123f2        	l32i	a15, a3, 0x144
    6d3d:	456342        	s32i	a4, a3, 0x114
    6d40:	686382        	s32i	a8, a3, 0x1a0
    6d43:	532322        	l32i	a2, a3, 0x14c
    6d46:	5363c2        	s32i	a12, a3, 0x14c
    6d49:	7e29      	s32i.n	a2, a14, 28
    6d4b:	8f0521        	l32r	a2, 0xfffea960
    6d4e:	5f6322        	s32i	a2, a3, 0x17c
    6d51:	596392        	s32i	a9, a3, 0x164
    6d54:	5163b2        	s32i	a11, a3, 0x144
    6d57:	9ef9      	s32i.n	a15, a14, 36
    6d59:	5e63a2        	s32i	a10, a3, 0x178
    6d5c:	aed9      	s32i.n	a13, a14, 40
    6d5e:	8f0f21        	l32r	a2, 0xfffea99c
    6d61:	8f09c1        	l32r	a12, 0xfffea988
    6d64:	8f0e41        	l32r	a4, 0xfffea99c
    6d67:	8f0d81        	l32r	a8, 0xfffea99c
    6d6a:	6d6382        	s32i	a8, a3, 0x1b4
    6d6d:	746342        	s32i	a4, a3, 0x1d0
    6d70:	9863c2        	s32i	a12, a3, 0x260
    6d73:	756322        	s32i	a2, a3, 0x1d4
    6d76:	8f08d1        	l32r	a13, 0xfffea998
    6d79:	8f0ba1        	l32r	a10, 0xfffea9a8
    6d7c:	8f06f1        	l32r	a15, 0xfffea994
    6d7f:	8f0ab1        	l32r	a11, 0xfffea9a8
    6d82:	8f0c91        	l32r	a9, 0xfffea9b4
    6d85:	566392        	s32i	a9, a3, 0x158
    6d88:	6b63b2        	s32i	a11, a3, 0x1ac
    6d8b:	5463f2        	s32i	a15, a3, 0x150
    6d8e:	5d63a2        	s32i	a10, a3, 0x174
    6d91:	9763d2        	s32i	a13, a3, 0x25c
    6d94:	8f07e1        	l32r	a14, 0xfffea9b0
    6d97:	4263e2        	s32i	a14, a3, 0x108
    6d9a:	f01d      	excw
    6d9c:	004136        	excw
    6d9f:	8f1081        	l32r	a8, 0xfffea9e0
    6da2:	0888      	l32i.n	a8, a8, 0
    6da4:	130c      	movi.n	a3, 1
    6da6:	102820        	and	a2, a8, a2
    6da9:	932320        	movnez	a2, a3, a2
    6dac:	f01d      	excw
    6dae:	360000        	excw
    6db1:	620041        	l32r	a4, 0xfffdf5b4
    6db4:	710612        	l8ui	a1, a6, 113
    6db7:	8c8f10        	excw
    6dba:	150cd6        	bgez	a12, 0x6f0e
    6dbd:	061666        	bnei	a6, 1, 0x6dc7
    6dc0:	0748      	l32i.n	a4, a7, 0
    6dc2:	204340        	or	a4, a3, a4
    6dc5:	0749      	s32i.n	a4, a7, 0
    6dc7:	0002c6        	j	0x6dd6
    6dca:	050c      	movi.n	a5, 0
    6dcc:	861b      	addi.n	a8, a6, 1
    6dce:	119300        	slli	a9, a3, 16
    6dd1:	0799      	s32i.n	a9, a7, 0
    6dd3:	065282        	s16i	a8, a2, 12
    6dd6:	052d      	mov.n	a2, a5
    6dd8:	f01d      	excw
    6dda:	360000        	excw
    6ddd:	210041        	l32r	a4, 0xfffcf1e0
    6de0:	328f10        	excw
    6de3:	0c0252        	l8ui	a5, a2, 12
    6de6:	f01d12        	l16ui	a1, a13, 0x1e0
    6de9:	000000        	ill
    6dec:	004136        	excw
    6def:	8f10e1        	l32r	a14, 0xfffeaa30
    6df2:	3f3c      	movi.n	a15, 51
    6df4:	253c      	movi.n	a5, 50
    6df6:	1c3c      	movi.n	a12, 49
    6df8:	0d3c      	movi.n	a13, 48
    6dfa:	0002a2        	l8ui	a10, a2, 0
    6dfd:	fb2c      	movi.n	a11, 47
    6dff:	186a66        	bnei	a10, 6, 0x6e1b
    6e02:	8f1181        	l32r	a8, 0xfffeaa48
    6e05:	0a0c      	movi.n	a10, 0
    6e07:	c08380        	sub	a8, a3, a8
    6e0a:	0aa816        	beqz	a8, 0x6eb8
    6e0d:	8f1291        	l32r	a9, 0xfffeaa58
    6e10:	c09390        	sub	a9, a3, a9
    6e13:	086956        	bnez	a9, 0x6e9d
    6e16:	0dbd      	mov.n	a11, a13
    6e18:	002706        	j	0x6eb8
    6e1b:	8e1541        	l32r	a4, 0xfffea670
    6e1e:	129ab7        	bne	a10, a11, 0x6e34
    6e21:	02ad      	mov.n	a10, a2
    6e23:	03bd      	mov.n	a11, a3
    6e25:	fff8a5        	excw
    6e28:	0abd      	mov.n	a11, a10
    6e2a:	222482        	l32i	a8, a4, 136
    6e2d:	02ad      	mov.n	a10, a2
    6e2f:	0008e0        	excw
    6e32:	f01d      	excw
    6e34:	129ad7        	bne	a10, a13, 0x6e4a
    6e37:	02ad      	mov.n	a10, a2
    6e39:	03bd      	mov.n	a11, a3
    6e3b:	fffa25        	excw
    6e3e:	0abd      	mov.n	a11, a10
    6e40:	222482        	l32i	a8, a4, 136
    6e43:	02ad      	mov.n	a10, a2
    6e45:	0008e0        	excw
    6e48:	f01d      	excw
    6e4a:	159ac7        	bne	a10, a12, 0x6e63
    6e4d:	20a220        	or	a10, a2, a2
    6e50:	20b330        	or	a11, a3, a3
    6e53:	000825        	excw
    6e56:	20baa0        	or	a11, a10, a10
    6e59:	222482        	l32i	a8, a4, 136
    6e5c:	02ad      	mov.n	a10, a2
    6e5e:	0008e0        	excw
    6e61:	f01d      	excw
    6e63:	159a57        	bne	a10, a5, 0x6e7c
    6e66:	20a220        	or	a10, a2, a2
    6e69:	20b330        	or	a11, a3, a3
    6e6c:	000b65        	excw
    6e6f:	20baa0        	or	a11, a10, a10
    6e72:	222482        	l32i	a8, a4, 136
    6e75:	02ad      	mov.n	a10, a2
    6e77:	0008e0        	excw
    6e7a:	f01d      	excw
    6e7c:	129af7        	bne	a10, a15, 0x6e92
    6e7f:	02ad      	mov.n	a10, a2
    6e81:	03bd      	mov.n	a11, a3
    6e83:	000da5        	excw
    6e86:	0abd      	mov.n	a11, a10
    6e88:	222482        	l32i	a8, a4, 136
    6e8b:	02ad      	mov.n	a10, a2
    6e8d:	0008e0        	excw
    6e90:	f01d      	excw
    6e92:	02ad      	mov.n	a10, a2
    6e94:	8e88      	l32i.n	a8, a14, 32
    6e96:	03bd      	mov.n	a11, a3
    6e98:	0008e0        	excw
    6e9b:	f01d      	excw
    6e9d:	8f1391        	l32r	a9, 0xfffeaaec
    6ea0:	8f14b1        	l32r	a11, 0xfffeaaf0
    6ea3:	041397        	beq	a3, a9, 0x6eab
    6ea6:	0693b7        	bne	a3, a11, 0x6eb0
    6ea9:	05cd      	mov.n	a12, a5
    6eab:	0cbd      	mov.n	a11, a12
    6ead:	0001c6        	j	0x6eb8
    6eb0:	8f15c1        	l32r	a12, 0xfffeab04
    6eb3:	0fbd      	mov.n	a11, a15
    6eb5:	0d93c7        	bne	a3, a12, 0x6ec6
    6eb8:	0042b2        	s8i	a11, a2, 0
    6ebb:	0142a2        	s8i	a10, a2, 1
    6ebe:	0752a2        	s16i	a10, a2, 14
    6ec1:	0652a2        	s16i	a10, a2, 12
    6ec4:	f01d      	excw
    6ec6:	02ad      	mov.n	a10, a2
    6ec8:	8e88      	l32i.n	a8, a14, 32
    6eca:	03bd      	mov.n	a11, a3
    6ecc:	0008e0        	excw
    6ecf:	f01d      	excw
    6ed1:	000000        	ill
    6ed4:	004136        	excw
    6ed7:	026d      	mov.n	a6, a2
    6ed9:	061252        	l16ui	a5, a2, 12
    6edc:	0b0c      	movi.n	a11, 0
    6ede:	75ac      	beqz.n	a5, 0x6f09
    6ee0:	1b75f6        	bgeui	a5, 7, 0x6eff
    6ee3:	1185f0        	slli	a8, a5, 1
    6ee6:	8eb721        	l32r	a2, 0xfffea9c4
    6ee9:	415830        	srli	a5, a3, 8
    6eec:	828a      	add.n	a8, a2, a8
    6eee:	014852        	s8i	a5, a8, 1
    6ef1:	061642        	l16ui	a4, a6, 12
    6ef4:	1144f0        	slli	a4, a4, 1
    6ef7:	224a      	add.n	a2, a2, a4
    6ef9:	004232        	s8i	a3, a2, 0
    6efc:	061652        	l16ui	a5, a6, 12
    6eff:	120c      	movi.n	a2, 1
    6f01:	1265f6        	bgeui	a5, 6, 0x6f17
    6f04:	020c      	movi.n	a2, 0
    6f06:	000346        	j	0x6f17
    6f09:	020c      	movi.n	a2, 0
    6f0b:	8f1091        	l32r	a9, 0xfffeab4c
    6f0e:	41a830        	srli	a10, a3, 8
    6f11:	0749a2        	s8i	a10, a9, 7
    6f14:	064932        	s8i	a3, a9, 6
    6f17:	d20b      	addi.n	a13, a2, -1
    6f19:	c51b      	addi.n	a12, a5, 1
    6f1b:	93bcd0        	movnez	a11, a12, a13
    6f1e:	0656b2        	s16i	a11, a6, 12
    6f21:	f01d      	excw
    6f23:	413600        	srli	a3, a0, 6
    6f26:	025d00        	excw
    6f29:	8f1071        	l32r	a7, 0xfffeab6c
    6f2c:	061262        	l16ui	a6, a2, 12
    6f2f:	090c      	movi.n	a9, 0
    6f31:	a61b      	addi.n	a10, a6, 1
    6f33:	f68c      	beqz.n	a6, 0x6f46
    6f35:	120c      	movi.n	a2, 1
    6f37:	081666        	bnei	a6, 1, 0x6f43
    6f3a:	164732        	s8i	a3, a7, 22
    6f3d:	414830        	srli	a4, a3, 8
    6f40:	174742        	s8i	a4, a7, 23
    6f43:	000286        	j	0x6f51
    6f46:	144732        	s8i	a3, a7, 20
    6f49:	020c      	movi.n	a2, 0
    6f4b:	418830        	srli	a8, a3, 8
    6f4e:	154782        	s8i	a8, a7, 21
    6f51:	b20b      	addi.n	a11, a2, -1
    6f53:	939ab0        	movnez	a9, a10, a11
    6f56:	065592        	s16i	a9, a5, 12
    6f59:	f01d      	excw
    6f5b:	413600        	srli	a3, a0, 6
    6f5e:	026d00        	excw
    6f61:	061252        	l16ui	a5, a2, 12
    6f64:	8f1021        	l32r	a2, 0xfffeaba4
    6f67:	451b      	addi.n	a4, a5, 1
    6f69:	559c      	beqz.n	a5, 0x6f82
    6f6b:	191526        	beqi	a5, 1, 0x6f88
    6f6e:	022566        	bnei	a5, 2, 0x6f74
    6f71:	0e5232        	s16i	a3, a2, 28
    6f74:	120c      	movi.n	a2, 1
    6f76:	720b      	addi.n	a7, a2, -1
    6f78:	030c      	movi.n	a3, 0
    6f7a:	933470        	movnez	a3, a4, a7
    6f7d:	065632        	s16i	a3, a6, 12
    6f80:	f01d      	excw
    6f82:	184232        	s8i	a3, a2, 24
    6f85:	000086        	j	0x6f8b
    6f88:	0d5232        	s16i	a3, a2, 26
    6f8b:	020c      	movi.n	a2, 0
    6f8d:	fff946        	j	0x6f76
    6f90:	004136        	excw
    6f93:	8f1621        	l32r	a2, 0xfffeabec
    6f96:	8e1531        	l32r	a3, 0xfffea7ec
    6f99:	8f1081        	l32r	a8, 0xfffeabdc
    6f9c:	232342        	l32i	a4, a3, 140
    6f9f:	8849      	s32i.n	a4, a8, 32
    6fa1:	236322        	s32i	a2, a3, 140
    6fa4:	f01d      	excw
    6fa6:	360000        	excw
    6fa9:	810041        	l32r	a4, 0xfffe73ac
    6fac:	828e34        	excw
    6faf:	c728      	l32i.n	a2, a7, 48
    6fb1:	fa0c      	movi.n	a10, 15
    6fb3:	0008e0        	excw
    6fb6:	5b1c      	movi.n	a11, 21
    6fb8:	8e0e81        	l32r	a8, 0xfffea7f0
    6fbb:	419830        	srli	a9, a3, 8
    6fbe:	0aed      	mov.n	a14, a10
    6fc0:	1d0c      	movi.n	a13, 1
    6fc2:	0a0aa2        	l8ui	a10, a10, 10
    6fc5:	0ecd      	mov.n	a12, a14
    6fc7:	aaea      	add.n	a10, a10, a14
    6fc9:	0d4ad2        	s8i	a13, a10, 13
    6fcc:	0c4a22        	s8i	a2, a10, 12
    6fcf:	0e4a32        	s8i	a3, a10, 14
    6fd2:	0f4a92        	s8i	a9, a10, 15
    6fd5:	8888      	l32i.n	a8, a8, 32
    6fd7:	3a0c      	movi.n	a10, 3
    6fd9:	0008e0        	excw
    6fdc:	020c      	movi.n	a2, 0
    6fde:	f01d      	excw
    6fe0:	044136        	excw
    6fe3:	0a02b2        	l8ui	a11, a2, 10
    6fe6:	8f1781        	l32r	a8, 0xfffeac44
    6fe9:	bb2a      	add.n	a11, a11, a2
    6feb:	0d0b92        	l8ui	a9, a11, 13
    6fee:	0c0b42        	l8ui	a4, a11, 12
    6ff1:	119980        	slli	a9, a9, 8
    6ff4:	449a      	add.n	a4, a4, a9
    6ff6:	f44040        	extui	a4, a4, 0, 16
    6ff9:	0e1487        	beq	a4, a8, 0x700b
    6ffc:	8f1881        	l32r	a8, 0xfffeac5c
    6fff:	0888      	l32i.n	a8, a8, 0
    7001:	02ad      	mov.n	a10, a2
    7003:	0008e0        	excw
    7006:	0a3d      	mov.n	a3, a10
    7008:	000d06        	j	0x7040
    700b:	0e0b92        	l8ui	a9, a11, 14
    700e:	231c      	movi.n	a3, 18
    7010:	307926        	beqi	a9, 7, 0x7044
    7013:	000346        	j	0x7024
    7016:	f91966        	bnei	a9, 1, 0x7013
    7019:	6c2c82        	l32i	a8, a12, 0x1b0
    701c:	10cba2        	addi	a10, a11, 16
    701f:	0008e0        	excw
    7022:	0a3d      	mov.n	a3, a10
    7024:	74b030        	extui	a11, a3, 0, 8
    7027:	0c0c      	movi.n	a12, 0
    7029:	04ad      	mov.n	a10, a4
    702b:	8f1941        	l32r	a4, 0xfffeac90
    702e:	01dd      	mov.n	a13, a1
    7030:	542482        	l32i	a8, a4, 0x150
    7033:	0e0c      	movi.n	a14, 0
    7035:	0008e0        	excw
    7038:	4d2482        	l32i	a8, a4, 0x134
    703b:	02ad      	mov.n	a10, a2
    703d:	0008e0        	excw
    7040:	032d      	mov.n	a2, a3
    7042:	f01d      	excw
    7044:	0f0b92        	l8ui	a9, a11, 15
    7047:	8e18c1        	l32r	a12, 0xfffea8a8
    704a:	fc8956        	bnez	a9, 0x7016
    704d:	6b2c82        	l32i	a8, a12, 0x1ac
    7050:	10cba2        	addi	a10, a11, 16
    7053:	0008e0        	excw
    7056:	0a3d      	mov.n	a3, a10
    7058:	fff206        	j	0x7024
    705b:	413600        	srli	a3, a0, 6
    705e:	02ad00        	excw
    7061:	0a02b2        	l8ui	a11, a2, 10
    7064:	05a482        	movi	a8, 0x405
    7067:	bb2a      	add.n	a11, a11, a2
    7069:	0d0bc2        	l8ui	a12, a11, 13
    706c:	0c0bb2        	l8ui	a11, a11, 12
    706f:	11cc80        	slli	a12, a12, 8
    7072:	bbca      	add.n	a11, a11, a12
    7074:	f4b0b0        	extui	a11, a11, 0, 16
    7077:	051b87        	beq	a11, a8, 0x7080
    707a:	19a4c2        	movi	a12, 0x419
    707d:	059bc7        	bne	a11, a12, 0x7086
    7080:	8e6ed1        	l32r	a13, 0xfffeaa38
    7083:	005db2        	s16i	a11, a13, 0
    7086:	8f1881        	l32r	a8, 0xfffeace8
    7089:	1888      	l32i.n	a8, a8, 4
    708b:	0008e0        	excw
    708e:	f01d      	excw
    7090:	006136        	excw
    7093:	03bd      	mov.n	a11, a3
    7095:	01ad      	mov.n	a10, a1
    7097:	0c1c      	movi.n	a12, 16
    7099:	008fe5        	excw
    709c:	0011a2        	l16ui	a10, a1, 0
    709f:	c80c      	movi.n	a8, 12
    70a1:	028af6        	bgeui	a10, 8, 0x70a7
    70a4:	0063c6        	j	0x7237
    70a7:	02b8a7        	bgeu	a8, a10, 0x70ad
    70aa:	006246        	j	0x7237
    70ad:	011192        	l16ui	a9, a1, 2
    70b0:	990b      	addi.n	a9, a9, -1
    70b2:	181956        	bnez	a9, 0x7237
    70b5:	8e3431        	l32r	a3, 0xfffea988
    70b8:	352382        	l32i	a8, a3, 212
    70bb:	02ad      	mov.n	a10, a2
    70bd:	0008e0        	excw
    70c0:	0a2d      	mov.n	a2, a10
    70c2:	1b0c      	movi.n	a11, 1
    70c4:	8f1a61        	l32r	a6, 0xfffead2c
    70c7:	0401e2        	l8ui	a14, a1, 4
    70ca:	8f1bd1        	l32r	a13, 0xfffead38
    70cd:	fece92        	addi	a9, a14, -2
    70d0:	129916        	beqz	a9, 0x71fd
    70d3:	8e9d51        	l32r	a5, 0xfffeab48
    70d6:	8f1cc1        	l32r	a12, 0xfffead48
    70d9:	8e4f31        	l32r	a3, 0xfffeaa18
    70dc:	070c      	movi.n	a7, 0
    70de:	8e7c91        	l32r	a9, 0xfffeaad0
    70e1:	fdce82        	addi	a8, a14, -3
    70e4:	80c9a2        	addi	a10, a9, -128
    70e7:	14e816        	beqz	a8, 0x7239
    70ea:	028ea6        	blti	a14, 8, 0x70f0
    70ed:	005186        	j	0x7237
    70f0:	026ee6        	bgei	a14, 6, 0x70f6
    70f3:	005006        	j	0x7237
    70f6:	0011d2        	l16ui	a13, a1, 0
    70f9:	f8cdd2        	addi	a13, a13, -8
    70fc:	137d56        	bnez	a13, 0x7237
    70ff:	0311f2        	l16ui	a15, a1, 6
    7102:	fccff2        	addi	a15, a15, -4
    7105:	12ef56        	bnez	a15, 0x7237
    7108:	934b40        	movnez	a4, a11, a4
    710b:	051192        	l16ui	a9, a1, 10
    710e:	face82        	addi	a8, a14, -6
    7111:	0411e2        	l16ui	a14, a1, 8
    7114:	17a856        	bnez	a8, 0x7292
    7117:	939e40        	movnez	a9, a14, a4
    711a:	904220        	addx2	a4, a2, a2
    711d:	114490        	slli	a4, a4, 7
    7120:	4c4a      	add.n	a4, a12, a4
    7122:	7d04b2        	l8ui	a11, a4, 125
    7125:	f46090        	extui	a6, a9, 0, 16
    7128:	04ab16        	beqz	a11, 0x7176
    712b:	411482        	l16ui	a8, a4, 130
    712e:	449867        	bne	a8, a6, 0x7176
    7131:	772382        	l32i	a8, a3, 0x1dc
    7134:	02ad      	mov.n	a10, a2
    7136:	0008e0        	excw
    7139:	8e36a1        	l32r	a10, 0xfffeaa14
    713c:	ffa0c2        	movi	a12, 255
    713f:	8e7cb1        	l32r	a11, 0xfffeab30
    7142:	8eb491        	l32r	a9, 0xfffeac14
    7145:	4e4b72        	s8i	a7, a11, 78
    7148:	1f1992        	l16ui	a9, a9, 62
    714b:	1f4ac2        	s8i	a12, a10, 31
    714e:	1e4a72        	s8i	a7, a10, 30
    7151:	504bc2        	s8i	a12, a11, 80
    7154:	4f0ba2        	l8ui	a10, a11, 79
    7157:	fea0c2        	movi	a12, 254
    715a:	10aac0        	and	a10, a10, a12
    715d:	fba0c2        	movi	a12, 251
    7160:	10aac0        	and	a10, a10, a12
    7163:	4f4ba2        	s8i	a10, a11, 79
    7166:	0ce957        	bbsi	a9, 5, 0x7176
    7169:	8e3481        	l32r	a8, 0xfffeaa3c
    716c:	02ad      	mov.n	a10, a2
    716e:	6a2882        	l32i	a8, a8, 0x1a8
    7171:	5b0c      	movi.n	a11, 5
    7173:	0008e0        	excw
    7176:	7e0492        	l8ui	a9, a4, 126
    7179:	c98c      	beqz.n	a9, 0x7189
    717b:	4314a2        	l16ui	a10, a4, 134
    717e:	079a67        	bne	a10, a6, 0x7189
    7181:	792382        	l32i	a8, a3, 0x1e4
    7184:	02ad      	mov.n	a10, a2
    7186:	0008e0        	excw
    7189:	7f0492        	l8ui	a9, a4, 127
    718c:	c98c      	beqz.n	a9, 0x719c
    718e:	4414a2        	l16ui	a10, a4, 136
    7191:	079a67        	bne	a10, a6, 0x719c
    7194:	7b2382        	l32i	a8, a3, 0x1ec
    7197:	02ad      	mov.n	a10, a2
    7199:	0008e0        	excw
    719c:	800492        	l8ui	a9, a4, 128
    719f:	c98c      	beqz.n	a9, 0x71af
    71a1:	4514a2        	l16ui	a10, a4, 138
    71a4:	079a67        	bne	a10, a6, 0x71af
    71a7:	7d2382        	l32i	a8, a3, 0x1f4
    71aa:	02ad      	mov.n	a10, a2
    71ac:	0008e0        	excw
    71af:	860592        	l8ui	a9, a5, 134
    71b2:	081916        	beqz	a9, 0x7237
    71b5:	7f04a2        	l8ui	a10, a4, 127
    71b8:	081a66        	bnei	a10, 1, 0x71c4
    71bb:	8705b2        	l8ui	a11, a5, 135
    71be:	04b0b0        	extui	a11, a11, 0, 1
    71c1:	0e0b56        	bnez	a11, 0x72a5
    71c4:	7d04c2        	l8ui	a12, a4, 125
    71c7:	081c66        	bnei	a12, 1, 0x71d3
    71ca:	8705d2        	l8ui	a13, a5, 135
    71cd:	04d2d0        	extui	a13, a13, 2, 1
    71d0:	0d1d56        	bnez	a13, 0x72a5
    71d3:	8004e2        	l8ui	a14, a4, 128
    71d6:	081e66        	bnei	a14, 1, 0x71e2
    71d9:	8705f2        	l8ui	a15, a5, 135
    71dc:	04f4f0        	extui	a15, a15, 4, 1
    71df:	0c2f56        	bnez	a15, 0x72a5
    71e2:	7e0482        	l8ui	a8, a4, 126
    71e5:	081866        	bnei	a8, 1, 0x71f1
    71e8:	870592        	l8ui	a9, a5, 135
    71eb:	049190        	extui	a9, a9, 1, 1
    71ee:	0b3956        	bnez	a9, 0x72a5
    71f1:	02ad      	mov.n	a10, a2
    71f3:	5c2382        	l32i	a8, a3, 0x170
    71f6:	0b0c      	movi.n	a11, 0
    71f8:	0008e0        	excw
    71fb:	f01d      	excw
    71fd:	001192        	l16ui	a9, a1, 0
    7200:	338966        	bnei	a9, 8, 0x7237
    7203:	0311a2        	l16ui	a10, a1, 6
    7206:	2d4a66        	bnei	a10, 4, 0x7237
    7209:	0411e2        	l16ui	a14, a1, 8
    720c:	271e26        	beqi	a14, 1, 0x7237
    720f:	023e66        	bnei	a14, 3, 0x7215
    7212:	002106        	j	0x729a
    7215:	f1cec2        	addi	a12, a14, -15
    7218:	1e3c16        	beqz	a12, 0x73ff
    721b:	efcef2        	addi	a15, a14, -17
    721e:	1c6f16        	beqz	a15, 0x73e8
    7221:	edce82        	addi	a8, a14, -19
    7224:	1c0816        	beqz	a8, 0x73e8
    7227:	791c      	movi.n	a9, 23
    7229:	0a1e97        	beq	a14, a9, 0x7237
    722c:	e7cea2        	addi	a10, a14, -25
    722f:	1d7a16        	beqz	a10, 0x740a
    7232:	bc1c      	movi.n	a12, 27
    7234:	629ec7        	bne	a14, a12, 0x729a
    7237:	f01d      	excw
    7239:	0011e2        	l16ui	a14, a1, 0
    723c:	f7ae66        	bnei	a14, 12, 0x7237
    723f:	0311f2        	l16ui	a15, a1, 6
    7242:	f18f66        	bnei	a15, 8, 0x7237
    7245:	061182        	l16ui	a8, a1, 12
    7248:	feb856        	bnez	a8, 0x7237
    724b:	2e0692        	l8ui	a9, a6, 46
    724e:	80c6c2        	addi	a12, a6, -128
    7251:	05c916        	beqz	a9, 0x72b1
    7254:	0501f2        	l8ui	a15, a1, 5
    7257:	010de2        	l8ui	a14, a13, 1
    725a:	539ef7        	bne	a14, a15, 0x72b1
    725d:	02ad      	mov.n	a10, a2
    725f:	7a2382        	l32i	a8, a3, 0x1e8
    7262:	0511c2        	l16ui	a12, a1, 10
    7265:	0411d2        	l16ui	a13, a1, 8
    7268:	1e0c      	movi.n	a14, 1
    726a:	934e40        	movnez	a4, a14, a4
    726d:	0dbd      	mov.n	a11, a13
    726f:	93bc40        	movnez	a11, a12, a4
    7272:	f4b0b0        	extui	a11, a11, 0, 16
    7275:	93cd40        	movnez	a12, a13, a4
    7278:	f4c0c0        	extui	a12, a12, 0, 16
    727b:	0008e0        	excw
    727e:	8e7281        	l32r	a8, 0xfffeac48
    7281:	02ad      	mov.n	a10, a2
    7283:	a92882        	l32i	a8, a8, 0x2a4
    7286:	8f1db1        	l32r	a11, 0xfffeaefc
    7289:	0008e0        	excw
    728c:	2e4672        	s8i	a7, a6, 46
    728f:	004206        	j	0x739b
    7292:	93e940        	movnez	a14, a9, a4
    7295:	0e9d      	mov.n	a9, a14
    7297:	ff9fc6        	j	0x711a
    729a:	2e46b2        	s8i	a11, a6, 46
    729d:	050192        	l8ui	a9, a1, 5
    72a0:	014d92        	s8i	a9, a13, 1
    72a3:	f01d      	excw
    72a5:	02ad      	mov.n	a10, a2
    72a7:	5c2382        	l32i	a8, a3, 0x170
    72aa:	1b0c      	movi.n	a11, 1
    72ac:	0008e0        	excw
    72af:	f01d      	excw
    72b1:	af0c92        	l8ui	a9, a12, 175
    72b4:	e9ac      	beqz.n	a9, 0x72e6
    72b6:	0501f2        	l8ui	a15, a1, 5
    72b9:	030de2        	l8ui	a14, a13, 3
    72bc:	269ef7        	bne	a14, a15, 0x72e6
    72bf:	02ad      	mov.n	a10, a2
    72c1:	782382        	l32i	a8, a3, 0x1e0
    72c4:	0511c2        	l16ui	a12, a1, 10
    72c7:	0411d2        	l16ui	a13, a1, 8
    72ca:	1e0c      	movi.n	a14, 1
    72cc:	934e40        	movnez	a4, a14, a4
    72cf:	0dbd      	mov.n	a11, a13
    72d1:	93bc40        	movnez	a11, a12, a4
    72d4:	f4b0b0        	extui	a11, a11, 0, 16
    72d7:	93cd40        	movnez	a12, a13, a4
    72da:	f4c0c0        	extui	a12, a12, 0, 16
    72dd:	0008e0        	excw
    72e0:	2f4672        	s8i	a7, a6, 47
    72e3:	002d06        	j	0x739b
    72e6:	b00cf2        	l8ui	a15, a12, 176
    72e9:	efac      	beqz.n	a15, 0x731b
    72eb:	050192        	l8ui	a9, a1, 5
    72ee:	020d82        	l8ui	a8, a13, 2
    72f1:	269897        	bne	a8, a9, 0x731b
    72f4:	02ad      	mov.n	a10, a2
    72f6:	7c2382        	l32i	a8, a3, 0x1f0
    72f9:	0511c2        	l16ui	a12, a1, 10
    72fc:	0411d2        	l16ui	a13, a1, 8
    72ff:	1e0c      	movi.n	a14, 1
    7301:	934e40        	movnez	a4, a14, a4
    7304:	0dbd      	mov.n	a11, a13
    7306:	93bc40        	movnez	a11, a12, a4
    7309:	f4b0b0        	extui	a11, a11, 0, 16
    730c:	93cd40        	movnez	a12, a13, a4
    730f:	f4c0c0        	extui	a12, a12, 0, 16
    7312:	0008e0        	excw
    7315:	304672        	s8i	a7, a6, 48
    7318:	001fc6        	j	0x739b
    731b:	b10cf2        	l8ui	a15, a12, 177
    731e:	079f16        	beqz	a15, 0x739b
    7321:	050192        	l8ui	a9, a1, 5
    7324:	000d82        	l8ui	a8, a13, 0
    7327:	709897        	bne	a8, a9, 0x739b
    732a:	cf0ac2        	l8ui	a12, a10, 207
    732d:	31ec07        	bbsi	a12, 0, 0x7362
    7330:	02ad      	mov.n	a10, a2
    7332:	762382        	l32i	a8, a3, 0x1d8
    7335:	0511c2        	l16ui	a12, a1, 10
    7338:	0411d2        	l16ui	a13, a1, 8
    733b:	1e0c      	movi.n	a14, 1
    733d:	934e40        	movnez	a4, a14, a4
    7340:	0dbd      	mov.n	a11, a13
    7342:	93bc40        	movnez	a11, a12, a4
    7345:	f4b0b0        	extui	a11, a11, 0, 16
    7348:	93cd40        	movnez	a12, a13, a4
    734b:	f4c0c0        	extui	a12, a12, 0, 16
    734e:	0008e0        	excw
    7351:	8e6cf1        	l32r	a15, 0xfffead04
    7354:	cf0ff2        	l8ui	a15, a15, 207
    7357:	180c      	movi.n	a8, 1
    7359:	20ff80        	or	a15, a15, a8
    735c:	8e7c81        	l32r	a8, 0xfffead4c
    735f:	4f48f2        	s8i	a15, a8, 79
    7362:	8e7b81        	l32r	a8, 0xfffead50
    7365:	02ad      	mov.n	a10, a2
    7367:	f888      	l32i.n	a8, a8, 60
    7369:	2b0c      	movi.n	a11, 2
    736b:	0008e0        	excw
    736e:	314672        	s8i	a7, a6, 49
    7371:	8eb491        	l32r	a9, 0xfffeae44
    7374:	8e36a1        	l32r	a10, 0xfffeac4c
    7377:	8e7cc1        	l32r	a12, 0xfffead68
    737a:	1b0c      	movi.n	a11, 1
    737c:	4e4cb2        	s8i	a11, a12, 78
    737f:	504c22        	s8i	a2, a12, 80
    7382:	1e4ab2        	s8i	a11, a10, 30
    7385:	1f1992        	l16ui	a9, a9, 62
    7388:	1f4a22        	s8i	a2, a10, 31
    738b:	0ce957        	bbsi	a9, 5, 0x739b
    738e:	8e3481        	l32r	a8, 0xfffeac60
    7391:	02ad      	mov.n	a10, a2
    7393:	6a2882        	l32i	a8, a8, 0x1a8
    7396:	1b0c      	movi.n	a11, 1
    7398:	0008e0        	excw
    739b:	860592        	l8ui	a9, a5, 134
    739e:	e95916        	beqz	a9, 0x7237
    73a1:	8f1c91        	l32r	a9, 0xfffeb014
    73a4:	90a220        	addx2	a10, a2, a2
    73a7:	11aa90        	slli	a10, a10, 7
    73aa:	99aa      	add.n	a9, a9, a10
    73ac:	7f09a2        	l8ui	a10, a9, 127
    73af:	051a66        	bnei	a10, 1, 0x73b8
    73b2:	8705b2        	l8ui	a11, a5, 135
    73b5:	3aeb07        	bbsi	a11, 0, 0x73f3
    73b8:	7d09c2        	l8ui	a12, a9, 125
    73bb:	051c66        	bnei	a12, 1, 0x73c4
    73be:	8705d2        	l8ui	a13, a5, 135
    73c1:	2eed27        	bbsi	a13, 2, 0x73f3
    73c4:	8009e2        	l8ui	a14, a9, 128
    73c7:	051e66        	bnei	a14, 1, 0x73d0
    73ca:	8705f2        	l8ui	a15, a5, 135
    73cd:	22ef47        	bbsi	a15, 4, 0x73f3
    73d0:	7e0982        	l8ui	a8, a9, 126
    73d3:	051866        	bnei	a8, 1, 0x73dc
    73d6:	870592        	l8ui	a9, a5, 135
    73d9:	16e917        	bbsi	a9, 1, 0x73f3
    73dc:	02ad      	mov.n	a10, a2
    73de:	5c2382        	l32i	a8, a3, 0x170
    73e1:	0b0c      	movi.n	a11, 0
    73e3:	0008e0        	excw
    73e6:	f01d      	excw
    73e8:	2f46b2        	s8i	a11, a6, 47
    73eb:	050192        	l8ui	a9, a1, 5
    73ee:	034d92        	s8i	a9, a13, 3
    73f1:	f01d      	excw
    73f3:	02ad      	mov.n	a10, a2
    73f5:	5c2382        	l32i	a8, a3, 0x170
    73f8:	1b0c      	movi.n	a11, 1
    73fa:	0008e0        	excw
    73fd:	f01d      	excw
    73ff:	3046b2        	s8i	a11, a6, 48
    7402:	050192        	l8ui	a9, a1, 5
    7405:	024d92        	s8i	a9, a13, 2
    7408:	f01d      	excw
    740a:	3146b2        	s8i	a11, a6, 49
    740d:	0501a2        	l8ui	a10, a1, 5
    7410:	004da2        	s8i	a10, a13, 0
    7413:	f01d      	excw
    7415:	000000        	ill
    7418:	004136        	excw
    741b:	8f1eb1        	l32r	a11, 0xfffeb094
    741e:	8f1f91        	l32r	a9, 0xfffeb09c
    7421:	8f18d1        	l32r	a13, 0xfffeb084
    7424:	8e1221        	l32r	a2, 0xfffeac6c
    7427:	8e18a1        	l32r	a10, 0xfffeac88
    742a:	0288      	l32i.n	a8, a2, 0
    742c:	162ac2        	l32i	a12, a10, 88
    742f:	972ae2        	l32i	a14, a10, 0x25c
    7432:	0de9      	s32i.n	a14, a13, 0
    7434:	1dc9      	s32i.n	a12, a13, 4
    7436:	166a92        	s32i	a9, a10, 88
    7439:	976ab2        	s32i	a11, a10, 0x25c
    743c:	8f2091        	l32r	a9, 0xfffeb0bc
    743f:	322882        	l32i	a8, a8, 200
    7442:	2a6a92        	s32i	a9, a10, 168
    7445:	58dc      	bnez.n	a8, 0x745e
    7447:	8f21a1        	l32r	a10, 0xfffeb0cc
    744a:	0b0c      	movi.n	a11, 0
    744c:	932865        	excw
    744f:	02f8      	l32i.n	a15, a2, 0
    7451:	322ff2        	l32i	a15, a15, 200
    7454:	6fcc      	bnez.n	a15, 0x745e
    7456:	8f21a1        	l32r	a10, 0xfffeb0dc
    7459:	0b0c      	movi.n	a11, 0
    745b:	9327a5        	excw
    745e:	f01d      	excw
    7460:	004136        	excw
    7463:	8f2221        	l32r	a2, 0xfffeb0ec
    7466:	2288      	l32i.n	a8, a2, 8
    7468:	2c68b7        	bbci	a8, 11, 0x7498
    746b:	8e4f81        	l32r	a8, 0xfffeada8
    746e:	5888      	l32i.n	a8, a8, 20
    7470:	0008e0        	excw
    7473:	1aac      	beqz.n	a10, 0x7498
    7475:	22b8      	l32i.n	a11, a2, 8
    7477:	1490b0        	extui	a9, a11, 0, 2
    747a:	a9dc      	bnez.n	a9, 0x7498
    747c:	8f23a1        	l32r	a10, 0xfffeb108
    747f:	8e1731        	l32r	a3, 0xfffeacdc
    7482:	e490b0        	extui	a9, a11, 0, 15
    7485:	162382        	l32i	a8, a3, 88
    7488:	2099a0        	or	a9, a9, a10
    748b:	2299      	s32i.n	a9, a2, 8
    748d:	2a0c      	movi.n	a10, 2
    748f:	0008e0        	excw
    7492:	122382        	l32i	a8, a3, 72
    7495:	0008e0        	excw
    7498:	8f2431        	l32r	a3, 0xfffeb128
    749b:	0020c0        	memw
    749e:	8e7891        	l32r	a9, 0xfffeae80
    74a1:	222322        	l32i	a2, a3, 136
    74a4:	209290        	or	a9, a2, a9
    74a7:	0020c0        	memw
    74aa:	8f2581        	l32r	a8, 0xfffeb140
    74ad:	0888      	l32i.n	a8, a8, 0
    74af:	226392        	s32i	a9, a3, 136
    74b2:	0008e0        	excw
    74b5:	0020c0        	memw
    74b8:	2223a2        	l32i	a10, a3, 136
    74bb:	0020c0        	memw
    74be:	226322        	s32i	a2, a3, 136
    74c1:	f01d      	excw
    74c3:	413600        	srli	a3, a0, 6
    74c6:	e64000        	excw
    74c9:	2a0c03        	excw
    74cc:	349040        	extui	a9, a4, 0, 4
    74cf:	022a97        	blt	a10, a9, 0x74d5
    74d2:	006240        	rsil	a4, 2
    74d5:	082c      	movi.n	a8, 32
    74d7:	07b827        	bgeu	a8, a2, 0x74e2
    74da:	8f26a1        	l32r	a10, 0xfffeb174
    74dd:	0b0c      	movi.n	a11, 0
    74df:	931f65        	excw
    74e2:	ff7c      	movi.n	a15, -1
    74e4:	401200        	ssl	a2
    74e7:	8f27e1        	l32r	a14, 0xfffeb184
    74ea:	1d0c      	movi.n	a13, 1
    74ec:	2ec8      	l32i.n	a12, a14, 8
    74ee:	a1bd00        	sll	a11, a13
    74f1:	30fbf0        	xor	a15, a11, a15
    74f4:	10fcf0        	and	a15, a12, a15
    74f7:	20bbc0        	or	a11, a11, a12
    74fa:	83bf30        	moveqz	a11, a15, a3
    74fd:	2eb9      	s32i.n	a11, a14, 8
    74ff:	c0ccb0        	sub	a12, a12, a11
    7502:	08ac16        	beqz	a12, 0x7590
    7505:	8eb421        	l32r	a2, 0xfffeafd8
    7508:	8e4f51        	l32r	a5, 0xfffeae44
    750b:	8eb731        	l32r	a3, 0xfffeafe8
    750e:	8e25a1        	l32r	a10, 0xfffeada4
    7511:	8e8191        	l32r	a9, 0xfffeaf18
    7514:	8e80c1        	l32r	a12, 0xfffeaf14
    7517:	200992        	l8ui	a9, a9, 32
    751a:	046b56        	bnez	a11, 0x7564
    751d:	099c      	beqz.n	a9, 0x7531
    751f:	ffabd2        	movi	a13, 0xfffffbff
    7522:	0020c0        	memw
    7525:	9b2cb2        	l32i	a11, a12, 0x26c
    7528:	10bbd0        	and	a11, a11, a13
    752b:	0020c0        	memw
    752e:	9b6cb2        	s32i	a11, a12, 0x26c
    7531:	0f0c      	movi.n	a15, 0
    7533:	0020c0        	memw
    7536:	8f22e1        	l32r	a14, 0xfffeb1c0
    7539:	9c6af2        	s32i	a15, a10, 0x270
    753c:	2ee8      	l32i.n	a14, a14, 8
    753e:	14e0e0        	extui	a14, a14, 0, 2
    7541:	059e56        	bnez	a14, 0x759e
    7544:	8e9d91        	l32r	a9, 0xfffeafb8
    7547:	960992        	l8ui	a9, a9, 150
    754a:	506907        	bbci	a9, 0, 0x759e
    754d:	04a690        	extui	a10, a9, 6, 1
    7550:	026977        	bbci	a9, 7, 0x7556
    7553:	476967        	bbci	a9, 6, 0x759e
    7556:	8e8cb1        	l32r	a11, 0xfffeaf88
    7559:	babc      	beqz.n	a10, 0x7598
    755b:	212b82        	l32i	a8, a11, 132
    755e:	0008e0        	excw
    7561:	000e46        	j	0x759e
    7564:	099c      	beqz.n	a9, 0x7578
    7566:	00a4b2        	movi	a11, 0x400
    7569:	0020c0        	memw
    756c:	9b2c92        	l32i	a9, a12, 0x26c
    756f:	2099b0        	or	a9, a9, a11
    7572:	0020c0        	memw
    7575:	9b6c92        	s32i	a9, a12, 0x26c
    7578:	0020c0        	memw
    757b:	1812c2        	l16ui	a12, a2, 48
    757e:	9c6ad2        	s32i	a13, a10, 0x270
    7581:	05ec07        	bbsi	a12, 0, 0x758a
    7584:	0003d2        	l8ui	a13, a3, 0
    7587:	056d07        	bbci	a13, 0, 0x7590
    758a:	5d2582        	l32i	a8, a5, 0x174
    758d:	0008e0        	excw
    7590:	13e640        	wsr.ps	a4
    7593:	002010        	rsync
    7596:	f01d      	excw
    7598:	202b82        	l32i	a8, a11, 128
    759b:	0008e0        	excw
    759e:	181292        	l16ui	a9, a2, 48
    75a1:	0003a2        	l8ui	a10, a3, 0
    75a4:	02e907        	bbsi	a9, 0, 0x75aa
    75a7:	e56a07        	bbci	a10, 0, 0x7590
    75aa:	5e2582        	l32i	a8, a5, 0x178
    75ad:	0008e0        	excw
    75b0:	fff706        	j	0x7590
    75b3:	413600        	srli	a3, a0, 6
    75b6:	22cc00        	excw
    75b9:	f27c      	movi.n	a2, -1
    75bb:	f01d      	excw
    75bd:	8f2841        	l32r	a4, 0xfffeb260
    75c0:	000432        	l8ui	a3, a4, 0
    75c3:	019482        	l16si	a8, a4, 2
    75c6:	0f6307        	bbci	a3, 0, 0x75d9
    75c9:	828820        	mull	a8, a8, a2
    75cc:	029422        	l16si	a2, a4, 4
    75cf:	214780        	srai	a4, a8, 7
    75d2:	224a      	add.n	a2, a2, a4
    75d4:	232200        	excw
    75d7:	f01d      	excw
    75d9:	8ef181        	l32r	a8, 0xfffeb1a0
    75dc:	300842        	l8ui	a4, a8, 48
    75df:	310882        	l8ui	a8, a8, 49
    75e2:	234400        	excw
    75e5:	824420        	mull	a4, a4, a2
    75e8:	232800        	excw
    75eb:	214740        	srai	a4, a4, 7
    75ee:	fff806        	j	0x75d2
    75f1:	000000        	ill
    75f4:	004136        	excw
    75f7:	8f2a41        	l32r	a4, 0xfffeb2a0
    75fa:	8f2981        	l32r	a8, 0xfffeb2a0
    75fd:	8f25a1        	l32r	a10, 0xfffeb294
    7600:	8e8c31        	l32r	a3, 0xfffeb030
    7603:	8f2b21        	l32r	a2, 0xfffeb2b0
    7606:	2e6322        	s32i	a2, a3, 184
    7609:	3398      	l32i.n	a9, a3, 12
    760b:	0a99      	s32i.n	a9, a10, 0
    760d:	3389      	s32i.n	a8, a3, 12
    760f:	4349      	s32i.n	a4, a3, 16
    7611:	f01d      	excw
    7613:	413600        	srli	a3, a0, 6
    7616:	638c00        	excw
    7619:	000492        	l8ui	a9, a4, 0
    761c:	782c      	movi.n	a8, 39
    761e:	03b897        	bgeu	a8, a9, 0x7625
    7621:	221c      	movi.n	a2, 18
    7623:	f01d      	excw
    7625:	562c      	movi.n	a6, 37
    7627:	8f2da1        	l32r	a10, 0xfffeb2dc
    762a:	8f2c51        	l32r	a5, 0xfffeb2dc
    762d:	0212a7        	beq	a2, a10, 0x7633
    7630:	1a9257        	bne	a2, a5, 0x764e
    7633:	ea33b6        	bltui	a3, 3, 0x7621
    7636:	0104a2        	l8ui	a10, a4, 1
    7639:	0204b2        	l8ui	a11, a4, 2
    763c:	e136a7        	bltu	a6, a10, 0x7621
    763f:	de8bf6        	bgeui	a11, 8, 0x7621
    7642:	089257        	bne	a2, a5, 0x764e
    7645:	d843b6        	bltui	a3, 4, 0x7621
    7648:	0304c2        	l8ui	a12, a4, 3
    764b:	d22cf6        	bgeui	a12, 2, 0x7621
    764e:	8eb071        	l32r	a7, 0xfffeb110
    7651:	dc07e2        	l8ui	a14, a7, 220
    7654:	ffa0d2        	movi	a13, 255
    7657:	4a1ed7        	beq	a14, a13, 0x76a5
    765a:	c20c      	movi.n	a2, 12
    765c:	f01d      	excw
    765e:	0dad      	mov.n	a10, a13
    7660:	2c2682        	l32i	a8, a6, 176
    7663:	2c0c      	movi.n	a12, 2
    7665:	0008e0        	excw
    7668:	6a8c      	beqz.n	a10, 0x7672
    766a:	8f2ea1        	l32r	a10, 0xfffeb324
    766d:	0b0c      	movi.n	a11, 0
    766f:	930665        	excw
    7672:	8f2f91        	l32r	a9, 0xfffeb330
    7675:	8f30a1        	l32r	a10, 0xfffeb338
    7678:	0998      	l32i.n	a9, a9, 0
    767a:	0a99      	s32i.n	a9, a10, 0
    767c:	8ef9a1        	l32r	a10, 0xfffeb260
    767f:	0020c0        	memw
    7682:	842a92        	l32i	a9, a10, 0x210
    7685:	eb7c      	movi.n	a11, -2
    7687:	1099b0        	and	a9, a9, a11
    768a:	0020c0        	memw
    768d:	ec1c      	movi.n	a12, 30
    768f:	0d0c      	movi.n	a13, 0
    7691:	846a92        	s32i	a9, a10, 0x210
    7694:	8e7681        	l32r	a8, 0xfffeb06c
    7697:	dc07b2        	l8ui	a11, a7, 220
    769a:	3888      	l32i.n	a8, a8, 12
    769c:	fa0c      	movi.n	a10, 15
    769e:	0008e0        	excw
    76a1:	020c      	movi.n	a2, 0
    76a3:	f01d      	excw
    76a5:	8f31a1        	l32r	a10, 0xfffeb36c
    76a8:	0b0c      	movi.n	a11, 0
    76aa:	0c1c      	movi.n	a12, 16
    76ac:	0040a5        	excw
    76af:	8f3231        	l32r	a3, 0xfffeb378
    76b2:	1c0c      	movi.n	a12, 1
    76b4:	5d43c2        	s8i	a12, a3, 93
    76b7:	0004a2        	l8ui	a10, a4, 0
    76ba:	5e43a2        	s8i	a10, a3, 94
    76bd:	2a9c      	beqz.n	a10, 0x76d3
    76bf:	6b2c      	movi.n	a11, 38
    76c1:	04aa66        	bnei	a10, 12, 0x76c9
    76c4:	0b6d      	mov.n	a6, a11
    76c6:	000246        	j	0x76d3
    76c9:	02aab6        	bltui	a10, 12, 0x76cf
    76cc:	002086        	j	0x7752
    76cf:	9a0b      	addi.n	a9, a10, -1
    76d1:	096d      	mov.n	a6, a9
    76d3:	5e4362        	s8i	a6, a3, 94
    76d6:	8eb161        	l32r	a6, 0xfffeb19c
    76d9:	da0c      	movi.n	a10, 13
    76db:	162682        	l32i	a8, a6, 88
    76de:	1b0c      	movi.n	a11, 1
    76e0:	0008e0        	excw
    76e3:	5c43a2        	s8i	a10, a3, 92
    76e6:	ffa0b2        	movi	a11, 255
    76e9:	611ab7        	beq	a10, a11, 0x774e
    76ec:	8f2d91        	l32r	a9, 0xfffeb3a0
    76ef:	0a0c      	movi.n	a10, 0
    76f1:	021297        	beq	a2, a9, 0x76f7
    76f4:	849257        	bne	a2, a5, 0x767c
    76f7:	5d43a2        	s8i	a10, a3, 93
    76fa:	0104b2        	l8ui	a11, a4, 1
    76fd:	5f43b2        	s8i	a11, a3, 95
    7700:	0204a2        	l8ui	a10, a4, 2
    7703:	6043a2        	s8i	a10, a3, 96
    7706:	229257        	bne	a2, a5, 0x772c
    7709:	8f33a1        	l32r	a10, 0xfffeb3d8
    770c:	690c      	movi.n	a9, 6
    770e:	0304d2        	l8ui	a13, a4, 3
    7711:	2b0c      	movi.n	a11, 2
    7713:	3c0c      	movi.n	a12, 3
    7715:	83cbd0        	moveqz	a12, a11, a13
    7718:	5d43c2        	s8i	a12, a3, 93
    771b:	012cf6        	bgeui	a12, 2, 0x7720
    771e:	0b9d      	mov.n	a9, a11
    7720:	0020c0        	memw
    7723:	816a92        	s32i	a9, a10, 0x204
    7726:	e007a2        	l8ui	a10, a7, 224
    7729:	df07b2        	l8ui	a11, a7, 223
    772c:	622682        	l32i	a8, a6, 0x188
    772f:	0008e0        	excw
    7732:	0abd      	mov.n	a11, a10
    7734:	8f3491        	l32r	a9, 0xfffeb404
    7737:	dc07d2        	l8ui	a13, a7, 220
    773a:	7a69a2        	s32i	a10, a9, 0x1e8
    773d:	f1da56        	bnez	a10, 0x765e
    7740:	172682        	l32i	a8, a6, 92
    7743:	0dad      	mov.n	a10, a13
    7745:	0008e0        	excw
    7748:	ffa092        	movi	a9, 255
    774b:	5c4392        	s8i	a9, a3, 92
    774e:	720c      	movi.n	a2, 7
    7750:	f01d      	excw
    7752:	803ba7        	bltu	a11, a10, 0x76d6
    7755:	feca92        	addi	a9, a10, -2
    7758:	ffdd46        	j	0x76d1
    775b:	413600        	srli	a3, a0, 6
    775e:	ca0c00        	excw
    7761:	8e0781        	l32r	a8, 0xfffeaf80
    7764:	f43030        	extui	a3, a3, 0, 16
    7767:	7888      	l32i.n	a8, a8, 28
    7769:	03bd      	mov.n	a11, a3
    776b:	0008e0        	excw
    776e:	3acc      	bnez.n	a10, 0x7775
    7770:	0a0c      	movi.n	a10, 0
    7772:	002546        	j	0x780b
    7775:	0a0ae2        	l8ui	a14, a10, 10
    7778:	0f0c      	movi.n	a15, 0
    777a:	eeaa      	add.n	a14, a14, a10
    777c:	eecb      	addi.n	a14, a14, 12
    777e:	b2bc      	beqz.n	a2, 0x77bd
    7780:	021266        	bnei	a2, 1, 0x7786
    7783:	002206        	j	0x780f
    7786:	fec282        	addi	a8, a2, -2
    7789:	097816        	beqz	a8, 0x7824
    778c:	fdc292        	addi	a9, a2, -3
    778f:	0a6916        	beqz	a9, 0x7839
    7792:	fcc2b2        	addi	a11, a2, -4
    7795:	0f1b16        	beqz	a11, 0x788a
    7798:	fbc2c2        	addi	a12, a2, -5
    779b:	101c16        	beqz	a12, 0x78a0
    779e:	fac2d2        	addi	a13, a2, -6
    77a1:	110d16        	beqz	a13, 0x78b5
    77a4:	637266        	bnei	a2, 7, 0x780b
    77a7:	060316        	beqz	a3, 0x780b
    77aa:	aaa0b2        	movi	a11, 170
    77ad:	004eb2        	s8i	a11, a14, 0
    77b0:	ff1b      	addi.n	a15, a15, 1
    77b2:	ee1b      	addi.n	a14, a14, 1
    77b4:	f4f0f0        	extui	a15, a15, 0, 16
    77b7:	f23f37        	bltu	a15, a3, 0x77ad
    77ba:	001346        	j	0x780b
    77bd:	04a316        	beqz	a3, 0x780b
    77c0:	040c      	movi.n	a4, 0
    77c2:	ffa1c2        	movi	a12, 0x1ff
    77c5:	090c      	movi.n	a9, 0
    77c7:	0b0c      	movi.n	a11, 0
    77c9:	0f2d      	mov.n	a2, a15
    77cb:	52ea      	add.n	a5, a2, a14
    77cd:	0045f2        	s8i	a15, a5, 0
    77d0:	221b      	addi.n	a2, a2, 1
    77d2:	441b      	addi.n	a4, a4, 1
    77d4:	f44040        	extui	a4, a4, 0, 16
    77d7:	0484c0        	extui	a8, a12, 4, 1
    77da:	401900        	ssl	a9
    77dd:	04d0c0        	extui	a13, a12, 0, 1
    77e0:	991b      	addi.n	a9, a9, 1
    77e2:	f49090        	extui	a9, a9, 0, 16
    77e5:	41c1c0        	srli	a12, a12, 1
    77e8:	8d8a      	add.n	a8, a13, a8
    77ea:	048080        	extui	a8, a8, 0, 1
    77ed:	a1dd00        	sll	a13, a13
    77f0:	20bbd0        	or	a11, a11, a13
    77f3:	118880        	slli	a8, a8, 8
    77f6:	20cc80        	or	a12, a12, a8
    77f9:	f4c0c0        	extui	a12, a12, 0, 16
    77fc:	d789b6        	bltui	a9, 8, 0x77d7
    77ff:	0045b2        	s8i	a11, a5, 0
    7802:	090c      	movi.n	a9, 0
    7804:	0b0c      	movi.n	a11, 0
    7806:	52ea      	add.n	a5, a2, a14
    7808:	c13437        	bltu	a4, a3, 0x77cd
    780b:	0a2d      	mov.n	a2, a10
    780d:	f01d      	excw
    780f:	ff8316        	beqz	a3, 0x780b
    7812:	fb0c      	movi.n	a11, 15
    7814:	004eb2        	s8i	a11, a14, 0
    7817:	ff1b      	addi.n	a15, a15, 1
    7819:	ee1b      	addi.n	a14, a14, 1
    781b:	f4f0f0        	extui	a15, a15, 0, 16
    781e:	f23f37        	bltu	a15, a3, 0x7814
    7821:	fff986        	j	0x780b
    7824:	fe3316        	beqz	a3, 0x780b
    7827:	5b5c      	movi.n	a11, 85
    7829:	004eb2        	s8i	a11, a14, 0
    782c:	ff1b      	addi.n	a15, a15, 1
    782e:	ee1b      	addi.n	a14, a14, 1
    7830:	f4f0f0        	extui	a15, a15, 0, 16
    7833:	f23f37        	bltu	a15, a3, 0x7829
    7836:	fff446        	j	0x780b
    7839:	8f35c1        	l32r	a12, 0xfffeb510
    783c:	fcb316        	beqz	a3, 0x780b
    783f:	040c      	movi.n	a4, 0
    7841:	090c      	movi.n	a9, 0
    7843:	0b0c      	movi.n	a11, 0
    7845:	0f2d      	mov.n	a2, a15
    7847:	52ea      	add.n	a5, a2, a14
    7849:	0045f2        	s8i	a15, a5, 0
    784c:	221b      	addi.n	a2, a2, 1
    784e:	441b      	addi.n	a4, a4, 1
    7850:	f44040        	extui	a4, a4, 0, 16
    7853:	0484c0        	extui	a8, a12, 4, 1
    7856:	401900        	ssl	a9
    7859:	04d0c0        	extui	a13, a12, 0, 1
    785c:	991b      	addi.n	a9, a9, 1
    785e:	f49090        	extui	a9, a9, 0, 16
    7861:	41c1c0        	srli	a12, a12, 1
    7864:	8d8a      	add.n	a8, a13, a8
    7866:	048080        	extui	a8, a8, 0, 1
    7869:	a1dd00        	sll	a13, a13
    786c:	20bbd0        	or	a11, a11, a13
    786f:	118880        	slli	a8, a8, 8
    7872:	20cc80        	or	a12, a12, a8
    7875:	f4c0c0        	extui	a12, a12, 0, 16
    7878:	d789b6        	bltui	a9, 8, 0x7853
    787b:	0045b2        	s8i	a11, a5, 0
    787e:	090c      	movi.n	a9, 0
    7880:	0b0c      	movi.n	a11, 0
    7882:	52ea      	add.n	a5, a2, a14
    7884:	c13437        	bltu	a4, a3, 0x7849
    7887:	ffe006        	j	0x780b
    788a:	f7d316        	beqz	a3, 0x780b
    788d:	ffa0b2        	movi	a11, 255
    7890:	004eb2        	s8i	a11, a14, 0
    7893:	ff1b      	addi.n	a15, a15, 1
    7895:	ee1b      	addi.n	a14, a14, 1
    7897:	f4f0f0        	extui	a15, a15, 0, 16
    789a:	f23f37        	bltu	a15, a3, 0x7890
    789d:	ffda86        	j	0x780b
    78a0:	f67316        	beqz	a3, 0x780b
    78a3:	0fbd      	mov.n	a11, a15
    78a5:	004ef2        	s8i	a15, a14, 0
    78a8:	bb1b      	addi.n	a11, a11, 1
    78aa:	ee1b      	addi.n	a14, a14, 1
    78ac:	f4b0b0        	extui	a11, a11, 0, 16
    78af:	f23b37        	bltu	a11, a3, 0x78a5
    78b2:	ffd546        	j	0x780b
    78b5:	f52316        	beqz	a3, 0x780b
    78b8:	f0a0b2        	movi	a11, 240
    78bb:	004eb2        	s8i	a11, a14, 0
    78be:	ff1b      	addi.n	a15, a15, 1
    78c0:	ee1b      	addi.n	a14, a14, 1
    78c2:	f4f0f0        	extui	a15, a15, 0, 16
    78c5:	f23f37        	bltu	a15, a3, 0x78bb
    78c8:	ffcfc6        	j	0x780b
    78cb:	413600        	srli	a3, a0, 6
    78ce:	378100        	excw
    78d1:	8f          	.byte 0x8f
    78d2:	8f3631        	l32r	a3, 0xfffeb5ac
    78d5:	8f3821        	l32r	a2, 0xfffeb5b8
    78d8:	226322        	s32i	a2, a3, 136
    78db:	1f6382        	s32i	a8, a3, 124
    78de:	f01d      	excw
    78e0:	004136        	excw
    78e3:	f01d      	excw
    78e5:	000000        	ill
    78e8:	004136        	excw
    78eb:	f01d      	excw
    78ed:	000000        	ill
    78f0:	002136        	excw
    78f3:	307230        	xor	a7, a2, a3
    78f6:	606120        	abs	a6, a2
    78f9:	603130        	abs	a3, a3
    78fc:	3423b6        	bltui	a3, 2, 0x7934
    78ff:	415160        	srli	a5, a6, 1
    7902:	3a3537        	bltu	a5, a3, 0x7940
    7905:	40f650        	nsau	a5, a6
    7908:	40f340        	nsau	a4, a3
    790b:	c04450        	sub	a4, a4, a5
    790e:	401400        	ssl	a4
    7911:	a13300        	sll	a3, a3
    7914:	020c      	movi.n	a2, 0
    7916:	0d9476        	excw
    7919:	043637        	bltu	a6, a3, 0x7921
    791c:	c06630        	sub	a6, a6, a3
    791f:	221b      	addi.n	a2, a2, 1
    7921:	1122f0        	slli	a2, a2, 1
    7924:	413130        	srli	a3, a3, 1
    7927:	013637        	bltu	a6, a3, 0x792c
    792a:	221b      	addi.n	a2, a2, 1
    792c:	605020        	neg	a5, a2
    792f:	a32570        	movltz	a2, a5, a7
    7932:	f01d      	excw
    7934:	539c      	beqz.n	a3, 0x794d
    7936:	602060        	neg	a2, a6
    7939:	b32670        	movgez	a2, a6, a7
    793c:	f01d      	excw
    793e:	370000        	excw
    7941:	0c1036        	excw
    7944:	f47c12        	excw
    7947:	a32470        	movltz	a2, a4, a7
    794a:	f01d      	excw
    794c:	000000        	ill
    794f:	494400        	excw
    7952:	0c3056        	bnez	a0, 0x7a19
    7955:	f01d02        	l16ui	a0, a13, 0x1e0
    7958:	947600        	extui	a7, a0, 6, 10
    795b:	6209      	s32i.n	a0, a2, 24
    795d:	1b0003        	excw
    7960:	456233        	excw
    7963:	551b00        	extui	a1, a0, 27, 6
    7966:	f01d      	excw
    7968:	ed74b6        	bltui	a4, 7, 0x7959
    796b:	000362        	l8ui	a6, a3, 0
    796e:	331b      	addi.n	a3, a3, 1
    7970:	ffc442        	addi	a4, a4, -1
    7973:	004562        	s8i	a6, a5, 0
    7976:	01c552        	addi	a5, a5, 1
    7979:	276517        	bbci	a5, 1, 0x79a4
    797c:	d964b6        	bltui	a4, 6, 0x7959
    797f:	000362        	l8ui	a6, a3, 0
    7982:	010372        	l8ui	a7, a3, 1
    7985:	332b      	addi.n	a3, a3, 2
    7987:	fec442        	addi	a4, a4, -2
    798a:	004562        	s8i	a6, a5, 0
    798d:	014572        	s8i	a7, a5, 1
    7990:	552b      	addi.n	a5, a5, 2
    7992:	000386        	j	0x79a4
    7995:	000000        	ill
    7998:	002136        	excw
    799b:	205220        	or	a5, a2, a2
    799e:	c6e207        	bbsi	a2, 0, 0x7968
    79a1:	d7e217        	bbsi	a2, 1, 0x797c
    79a4:	417440        	srli	a7, a4, 4
    79a7:	03a082        	movi	a8, 3
    79aa:	5a8387        	bany	a3, a8, 0x7a08
    79ad:	159776        	excw
    79b0:	0368      	l32i.n	a6, a3, 0
    79b2:	1378      	l32i.n	a7, a3, 4
    79b4:	0569      	s32i.n	a6, a5, 0
    79b6:	2368      	l32i.n	a6, a3, 8
    79b8:	1579      	s32i.n	a7, a5, 4
    79ba:	3378      	l32i.n	a7, a3, 12
    79bc:	2569      	s32i.n	a6, a5, 8
    79be:	10c332        	addi	a3, a3, 16
    79c1:	3579      	s32i.n	a7, a5, 12
    79c3:	10c552        	addi	a5, a5, 16
    79c6:	0b6437        	bbci	a4, 3, 0x79d5
    79c9:	0368      	l32i.n	a6, a3, 0
    79cb:	1378      	l32i.n	a7, a3, 4
    79cd:	338b      	addi.n	a3, a3, 8
    79cf:	0569      	s32i.n	a6, a5, 0
    79d1:	1579      	s32i.n	a7, a5, 4
    79d3:	558b      	addi.n	a5, a5, 8
    79d5:	07e427        	bbsi	a4, 2, 0x79e0
    79d8:	14e417        	bbsi	a4, 1, 0x79f0
    79db:	21e407        	bbsi	a4, 0, 0x7a00
    79de:	f01d      	excw
    79e0:	0368      	l32i.n	a6, a3, 0
    79e2:	334b      	addi.n	a3, a3, 4
    79e4:	0569      	s32i.n	a6, a5, 0
    79e6:	554b      	addi.n	a5, a5, 4
    79e8:	04e417        	bbsi	a4, 1, 0x79f0
    79eb:	11e407        	bbsi	a4, 0, 0x7a00
    79ee:	f01d      	excw
    79f0:	001362        	l16ui	a6, a3, 0
    79f3:	332b      	addi.n	a3, a3, 2
    79f5:	005562        	s16i	a6, a5, 0
    79f8:	552b      	addi.n	a5, a5, 2
    79fa:	02e407        	bbsi	a4, 0, 0x7a00
    79fd:	f01d      	excw
    79ff:	036200        	excw
    7a02:	456200        	extui	a6, a0, 18, 5
    7a05:	f01d00        	subx8	a1, a13, a0
    7a08:	ffa416        	beqz	a4, 0x7a06
    7a0b:	402300        	ssa8l	a3
    7a0e:	10b380        	and	a11, a3, a8
    7a11:	c033b0        	sub	a3, a3, a11
    7a14:	0368      	l32i.n	a6, a3, 0
    7a16:	219776        	excw
    7a19:	1378      	l32i.n	a7, a3, 4
    7a1b:	2388      	l32i.n	a8, a3, 8
    7a1d:	816760        	src	a6, a7, a6
    7a20:	0569      	s32i.n	a6, a5, 0
    7a22:	3398      	l32i.n	a9, a3, 12
    7a24:	817870        	src	a7, a8, a7
    7a27:	1579      	s32i.n	a7, a5, 4
    7a29:	4368      	l32i.n	a6, a3, 16
    7a2b:	818980        	src	a8, a9, a8
    7a2e:	2589      	s32i.n	a8, a5, 8
    7a30:	10c332        	addi	a3, a3, 16
    7a33:	819690        	src	a9, a6, a9
    7a36:	3599      	s32i.n	a9, a5, 12
    7a38:	10c552        	addi	a5, a5, 16
    7a3b:	156437        	bbci	a4, 3, 0x7a54
    7a3e:	1378      	l32i.n	a7, a3, 4
    7a40:	2388      	l32i.n	a8, a3, 8
    7a42:	816760        	src	a6, a7, a6
    7a45:	0569      	s32i.n	a6, a5, 0
    7a47:	338b      	addi.n	a3, a3, 8
    7a49:	817870        	src	a7, a8, a7
    7a4c:	1579      	s32i.n	a7, a5, 4
    7a4e:	08c552        	addi	a5, a5, 8
    7a51:	206880        	or	a6, a8, a8
    7a54:	0c6427        	bbci	a4, 2, 0x7a64
    7a57:	1378      	l32i.n	a7, a3, 4
    7a59:	334b      	addi.n	a3, a3, 4
    7a5b:	816760        	src	a6, a7, a6
    7a5e:	0569      	s32i.n	a6, a5, 0
    7a60:	554b      	addi.n	a5, a5, 4
    7a62:	076d      	mov.n	a6, a7
    7a64:	33ba      	add.n	a3, a3, a11
    7a66:	06e417        	bbsi	a4, 1, 0x7a70
    7a69:	18e407        	bbsi	a4, 0, 0x7a85
    7a6c:	f01d      	excw
    7a6e:	620000        	excw
    7a71:	720003        	excw
    7a74:	2b0103        	excw
    7a77:	456233        	excw
    7a7a:	457200        	extui	a7, a0, 18, 5
    7a7d:	552b01        	l32r	a0, 0xfffdcf2c
    7a80:	01e407        	bbsi	a4, 0, 0x7a85
    7a83:	f01d      	excw
    7a85:	000362        	l8ui	a6, a3, 0
    7a88:	004562        	s8i	a6, a5, 0
    7a8b:	f01d      	excw
    7a8d:	000000        	ill
    7a90:	947600        	extui	a7, a0, 6, 10
    7a93:	453204        	excw
    7a96:	551b00        	extui	a1, a0, 27, 6
    7a99:	f01d      	excw
    7a9b:	84b600        	extui	a11, a0, 6, 9
    7a9e:	4532f1        	l32r	a15, 0xfffd8f68
    7aa1:	551b00        	extui	a1, a0, 27, 6
    7aa4:	440b      	addi.n	a4, a4, -1
    7aa6:	286517        	bbci	a5, 1, 0x7ad2
    7aa9:	e484b6        	bltui	a4, 8, 0x7a91
    7aac:	005532        	s16i	a3, a5, 0
    7aaf:	552b      	addi.n	a5, a5, 2
    7ab1:	fec442        	addi	a4, a4, -2
    7ab4:	000686        	j	0x7ad2
    7ab7:	213600        	srai	a3, a0, 6
    7aba:	303000        	xor	a3, a0, a0
    7abd:	738074        	excw
    7ac0:	337011        	l32r	a1, 0xfffd4880
    7ac3:	730020        	excw
    7ac6:	337011        	l32r	a1, 0xfffd4888
    7ac9:	025d20        	excw
    7acc:	cce207        	bbsi	a2, 0, 0x7a9c
    7acf:	d6e217        	bbsi	a2, 1, 0x7aa9
    7ad2:	417440        	srli	a7, a4, 4
    7ad5:	0a9776        	excw
    7ad8:	0539      	s32i.n	a3, a5, 0
    7ada:	1539      	s32i.n	a3, a5, 4
    7adc:	2539      	s32i.n	a3, a5, 8
    7ade:	3539      	s32i.n	a3, a5, 12
    7ae0:	10c552        	addi	a5, a5, 16
    7ae3:	066437        	bbci	a4, 3, 0x7aed
    7ae6:	0539      	s32i.n	a3, a5, 0
    7ae8:	1539      	s32i.n	a3, a5, 4
    7aea:	08c552        	addi	a5, a5, 8
    7aed:	036427        	bbci	a4, 2, 0x7af4
    7af0:	0539      	s32i.n	a3, a5, 0
    7af2:	554b      	addi.n	a5, a5, 4
    7af4:	046417        	bbci	a4, 1, 0x7afc
    7af7:	005532        	s16i	a3, a5, 0
    7afa:	552b      	addi.n	a5, a5, 2
    7afc:	026407        	bbci	a4, 0, 0x7b02
    7aff:	004532        	s8i	a3, a5, 0
    7b02:	f01d      	excw
    7b04:	020000        	excw
    7b07:	003441        	l32r	a4, 0xfffc7bd8
	...