../git/linux-firmware/./ar3k/AthrBT_0x01020001.dfu:     file format binary


Disassembly of section .data:

00000000 <.data>:
       0:	592400        	excw
       3:	400000        	ssr	a0
       6:	0099      	s32i.n	a9, a0, 0
       8:	d7b8      	l32i.n	a11, a7, 52
       a:	6a0000        	excw
       d:	48dc      	bnez.n	a8, 0x25
       f:	000411        	l32r	a1, 0xfffc0020
	...
      1e:	000000        	ill
      21:	009940        	excw
	...
      2c:	592cc0        	excw
      2f:	6e9c00        	excw
      32:	0058      	l32i.n	a5, a0, 0
      34:	994054        	excw
      37:	2cbc00        	excw
      3a:	0059      	s32i.n	a5, a0, 0
      3c:	fbb8      	l32i.n	a11, a11, 60
      3e:	0059      	s32i.n	a5, a0, 0
      40:	56bc      	beqz.n	a6, 0x79
      42:	0058      	l32i.n	a5, a0, 0
      44:	593170        	excw
      47:	790400        	excw
      4a:	0058      	l32i.n	a5, a0, 0
      4c:	0b98      	l32i.n	a9, a11, 0
      4e:	0058      	l32i.n	a5, a0, 0
      50:	592cb4        	excw
      53:	16d800        	excw
      56:	0058      	l32i.n	a5, a0, 0
      58:	580900        	excw
      5b:	406800        	rer
      5e:	0099      	s32i.n	a9, a0, 0
      60:	407c      	movi.n	a0, -12
      62:	0099      	s32i.n	a9, a0, 0
      64:	587d54        	excw
      67:	c83700        	excw
      6a:	5e          	.byte 0x5e
      6b:	0280a1        	l32r	a10, 0xfffc0a6c
      6e:	0058      	l32i.n	a5, a0, 0
      70:	585300        	excw
      73:	544800        	extui	a4, a0, 8, 6
      76:	0058      	l32i.n	a5, a0, 0
      78:	586f34        	excw
      7b:	538000        	excw
      7e:	0058      	l32i.n	a5, a0, 0
      80:	4948      	l32i.n	a4, a9, 16
      82:	0058      	l32i.n	a5, a0, 0
      84:	5856e0        	excw
      87:	7bd400        	excw
      8a:	0058      	l32i.n	a5, a0, 0
      8c:	5820b4        	excw
      8f:	18d800        	excw
      92:	0058      	l32i.n	a5, a0, 0
      94:	5ffc      	bnez.n	a15, 0xcd
      96:	0058      	l32i.n	a5, a0, 0
      98:	5348      	l32i.n	a4, a3, 20
      9a:	0058      	l32i.n	a5, a0, 0
      9c:	4278      	l32i.n	a7, a2, 16
      9e:	0099      	s32i.n	a9, a0, 0
      a0:	592cb4        	excw
      a3:	520000        	excw
      a6:	0058      	l32i.n	a5, a0, 0
      a8:	4198      	l32i.n	a9, a1, 16
      aa:	0099      	s32i.n	a9, a0, 0
      ac:	9940e0        	excw
      af:	1dc800        	excw
      b2:	0058      	l32i.n	a5, a0, 0
      b4:	004000        	break	0, 0
      b7:	2cb400        	excw
      ba:	0059      	s32i.n	a5, a0, 0
      bc:	4758      	l32i.n	a5, a7, 16
      be:	0058      	l32i.n	a5, a0, 0
      c0:	1f3a      	add.n	a1, a15, a3
      c2:	0058      	l32i.n	a5, a0, 0
      c4:	3cd8      	l32i.n	a13, a12, 12
      c6:	0058      	l32i.n	a5, a0, 0
      c8:	1858      	l32i.n	a5, a8, 4
      ca:	0058      	l32i.n	a5, a0, 0
      cc:	17e9      	s32i.n	a14, a7, 4
      ce:	0058      	l32i.n	a5, a0, 0
      d0:	4f48      	l32i.n	a4, a15, 16
      d2:	0058      	l32i.n	a5, a0, 0
      d4:	581fb4        	excw
      d7:	092d00        	excw
      da:	050000        	extui	a0, a0, 16, 1
      dd:	005820        	excw
      e0:	4b48      	l32i.n	a4, a11, 16
      e2:	0058      	l32i.n	a5, a0, 0
      e4:	3028      	l32i.n	a2, a0, 12
      e6:	0059      	s32i.n	a5, a0, 0
      e8:	593030        	excw
      eb:	425800        	excw
      ee:	0058      	l32i.n	a5, a0, 0
      f0:	031000        	excw
      f3:	17d800        	excw
      f6:	0058      	l32i.n	a5, a0, 0
      f8:	3f58      	l32i.n	a5, a15, 12
      fa:	0058      	l32i.n	a5, a0, 0
      fc:	020000        	excw
      ff:	17eb60        	excw
     102:	0058      	l32i.n	a5, a0, 0
     104:	1f58      	l32i.n	a5, a15, 4
     106:	0058      	l32i.n	a5, a0, 0
     108:	4e          	.byte 0x4e
     109:	1f          	.byte 0x1f
     10a:	0058      	l32i.n	a5, a0, 0
     10c:	020000        	excw
     10f:	100020        	and	a0, a0, a2
     112:	142000        	extui	a2, a0, 0, 2
     115:	5878      	l32i.n	a7, a8, 20
     117:	7a5400        	excw
     11a:	0058      	l32i.n	a5, a0, 0
     11c:	025e00        	excw
     11f:	ffff00        	excw
     122:	ff          	.byte 0xff
     123:	000000        	ill
     126:	ffff00        	excw
     129:	fffc03        	excw
     12c:	03fc00        	excw
     12f:	3ef000        	excw
     132:	0058      	l32i.n	a5, a0, 0
     134:	3e18      	l32i.n	a1, a14, 12
     136:	0058      	l32i.n	a5, a0, 0
     138:	026600        	excw
     13b:	000000        	ill
     13e:	ff8000        	excw
     141:	ff          	.byte 0xff
     142:	ff          	.byte 0xff
     143:	7f          	.byte 0x7f
     144:	ff0000        	excw
     147:	1f          	.byte 0x1f
     148:	00fc00        	excw
     14b:	ffffe0        	excw
     14e:	ef          	.byte 0xef
     14f:	ff          	.byte 0xff
     150:	100000        	and	a0, a0, a0
     153:	3e0000        	excw
     156:	800000        	add	a0, a0, a0
     159:	005931        	l32r	a3, 0xfffc02c0
     15c:	700000        	excw
     15f:	ffff00        	excw
     162:	8f          	.byte 0x8f
     163:	ff          	.byte 0xff
     164:	7f8000        	excw
     167:	7fff00        	excw
     16a:	80ff80        	add	a15, a15, a8
     16d:	3f          	.byte 0x3f
     16e:	7f0000        	excw
     171:	ffffc0        	excw
     174:	01fe00        	slli	a15, a14, 32
     177:	189300        	excw
     17a:	0058      	l32i.n	a5, a0, 0
     17c:	1f39      	s32i.n	a3, a15, 4
     17e:	0058      	l32i.n	a5, a0, 0
     180:	5820b2        	l32i	a11, a0, 0x160
     183:	3fd800        	excw
     186:	0058      	l32i.n	a5, a0, 0
     188:	be          	.byte 0xbe
     189:	587c      	movi.n	a8, -11
     18b:	08e000        	excw
     18e:	9c0000        	excw
     191:	1f          	.byte 0x1f
     192:	0058      	l32i.n	a5, a0, 0
     194:	592bb0        	excw
     197:	19be00        	excw
     19a:	0058      	l32i.n	a5, a0, 0
     19c:	3f          	.byte 0x3f
     19d:	5819      	s32i.n	a1, a8, 20
     19f:	09a400        	excw
     1a2:	080000        	excw
     1a5:	005930        	excw
     1a8:	020200        	excw
     1ab:	000200        	excw
     1ae:	7c0020        	excw
     1b1:	005820        	excw
     1b4:	1f4c      	movi.n	a15, 65
     1b6:	0058      	l32i.n	a5, a0, 0
     1b8:	ff          	.byte 0xff
     1b9:	ff          	.byte 0xff
     1ba:	ff          	.byte 0xff
     1bb:	205807        	bbc	a8, a0, 0x1df
     1be:	0058      	l32i.n	a5, a0, 0
     1c0:	581c60        	excw
     1c3:	31d000        	srai	a13, a0, 16
     1c6:	0059      	s32i.n	a5, a0, 0
     1c8:	ff          	.byte 0xff
     1c9:	ff          	.byte 0xff
     1ca:	fffd      	excw
     1cc:	ff          	.byte 0xff
     1cd:	ff          	.byte 0xff
     1ce:	fe          	.byte 0xfe
     1cf:	ff          	.byte 0xff
     1d0:	ff          	.byte 0xff
     1d1:	bf          	.byte 0xbf
     1d2:	ff          	.byte 0xff
     1d3:	ff          	.byte 0xff
     1d4:	ff          	.byte 0xff
     1d5:	df          	.byte 0xdf
     1d6:	ff          	.byte 0xff
     1d7:	ff          	.byte 0xff
     1d8:	2068      	l32i.n	a6, a0, 8
     1da:	0058      	l32i.n	a5, a0, 0
     1dc:	0009f0        	excw
     1df:	ffff00        	excw
     1e2:	ff          	.byte 0xff
     1e3:	080003        	excw
     1e6:	3c0000        	excw
     1e9:	1f          	.byte 0x1f
     1ea:	0058      	l32i.n	a5, a0, 0
     1ec:	582072        	l32i	a7, a0, 0x160
     1ef:	1f3b00        	excw
     1f2:	0058      	l32i.n	a5, a0, 0
     1f4:	582084        	excw
     1f7:	205f00        	or	a5, a15, a0
     1fa:	0058      	l32i.n	a5, a0, 0
     1fc:	1758      	l32i.n	a5, a7, 4
     1fe:	0058      	l32i.n	a5, a0, 0
     200:	1eb000        	excw
     203:	100004        	excw
     206:	180001        	l32r	a0, 0xfffc6208
     209:	005870        	excw
     20c:	17ea      	add.n	a1, a7, a14
     20e:	0058      	l32i.n	a5, a0, 0
     210:	000000        	ill
     213:	48d810        	excw
     216:	0058      	l32i.n	a5, a0, 0
     218:	180e00        	excw
     21b:	155000        	extui	a5, a0, 16, 2
     21e:	0058      	l32i.n	a5, a0, 0
     220:	0f          	.byte 0xf
     221:	5818      	l32i.n	a1, a8, 20
     223:	050800        	extui	a0, a0, 24, 1
     226:	0058      	l32i.n	a5, a0, 0
     228:	5820b0        	excw
     22b:	1fce00        	excw
     22e:	0058      	l32i.n	a5, a0, 0
     230:	5931c0        	excw
     233:	31f000        	srai	a15, a0, 16
     236:	0059      	s32i.n	a5, a0, 0
     238:	581f50        	excw
     23b:	47d800        	excw
     23e:	0058      	l32i.n	a5, a0, 0
     240:	4858      	l32i.n	a5, a8, 16
     242:	0058      	l32i.n	a5, a0, 0
     244:	1fb8      	l32i.n	a11, a15, 4
     246:	0058      	l32i.n	a5, a0, 0
     248:	206c      	movi.n	a0, -30
     24a:	0058      	l32i.n	a5, a0, 0
     24c:	5931a0        	excw
     24f:	7d0000        	excw
     252:	ff0000        	excw
     255:	ff          	.byte 0xff
     256:	100000        	and	a0, a0, a0
     259:	000033        	excw
     25c:	582080        	excw
     25f:	31e000        	srai	a14, a0, 16
     262:	0059      	s32i.n	a5, a0, 0
     264:	40d8      	l32i.n	a13, a0, 16
     266:	0058      	l32i.n	a5, a0, 0
     268:	000c80        	ret
     26b:	000000        	ill
     26e:	000001        	l32r	a0, 0xfffc0270
     271:	002000        	isync
     274:	400000        	ssr	a0
     277:	800000        	add	a0, a0, a0
     27a:	000003        	excw
     27d:	1fe000        	excw
     280:	000000        	ill
     283:	ffff20        	excw
     286:	ff          	.byte 0xff
     287:	bf          	.byte 0xbf
     288:	000000        	ill
     28b:	f7ff60        	excw
     28e:	ff          	.byte 0xff
     28f:	ff          	.byte 0xff
     290:	c00000        	sub	a0, a0, a0
     293:	fffe00        	excw
     296:	ff          	.byte 0xff
     297:	fc0007        	bnone	a0, a0, 0x297
     29a:	ff          	.byte 0xff
     29b:	300003        	excw
     29e:	000000        	ill
     2a1:	0003c0        	callx0	a3
     2a4:	00c000        	excw
     2a7:	c00000        	sub	a0, a0, a0
     2aa:	ff          	.byte 0xff
     2ab:	1f          	.byte 0x1f
     2ac:	0f0000        	excw
     2af:	800000        	add	a0, a0, a0
     2b2:	c00000        	sub	a0, a0, a0
     2b5:	0f          	.byte 0xf
     2b6:	000000        	ill
     2b9:	400000        	ssr	a0
     2bc:	002000        	isync
     2bf:	3fc000        	excw
     2c2:	000000        	ill
     2c5:	0ffc00        	excw
     2c8:	000000        	ill
     2cb:	000a      	add.n	a0, a0, a0
     2cd:	060000        	excw
     2d0:	000000        	ill
     2d3:	1f7002        	excw
     2d6:	0058      	l32i.n	a5, a0, 0
     2d8:	7dfc      	bnez.n	a13, 0x313
     2da:	0099      	s32i.n	a9, a0, 0
     2dc:	af          	.byte 0xaf
     2dd:	005820        	excw
     2e0:	ff          	.byte 0xff
     2e1:	ef          	.byte 0xef
     2e2:	ff          	.byte 0xff
     2e3:	ff          	.byte 0xff
     2e4:	186a      	add.n	a1, a8, a6
     2e6:	d80000        	excw
     2e9:	1e          	.byte 0x1e
     2ea:	0058      	l32i.n	a5, a0, 0
     2ec:	581f53        	excw
     2ef:	1dd800        	excw
     2f2:	0058      	l32i.n	a5, a0, 0
     2f4:	20a8      	l32i.n	a10, a0, 8
     2f6:	0058      	l32i.n	a5, a0, 0
     2f8:	1f4b      	addi.n	a1, a15, 4
     2fa:	0058      	l32i.n	a5, a0, 0
     2fc:	1f78      	l32i.n	a7, a15, 4
     2fe:	0058      	l32i.n	a5, a0, 0
     300:	1f4a      	add.n	a1, a15, a4
     302:	0058      	l32i.n	a5, a0, 0
     304:	20ab      	addi.n	a2, a0, 10
     306:	0058      	l32i.n	a5, a0, 0
     308:	0e5c      	movi.n	a14, 80
     30a:	0058      	l32i.n	a5, a0, 0
     30c:	209d      	excw
     30e:	0058      	l32i.n	a5, a0, 0
     310:	9e          	.byte 0x9e
     311:	005820        	excw
     314:	1cd8      	l32i.n	a13, a12, 4
     316:	0058      	l32i.n	a5, a0, 0
     318:	4c48      	l32i.n	a4, a12, 16
     31a:	0058      	l32i.n	a5, a0, 0
     31c:	5931b0        	excw
     31f:	540000        	extui	a0, a0, 0, 6
     322:	0099      	s32i.n	a9, a0, 0
     324:	995230        	excw
     327:	46b400        	excw
     32a:	0099      	s32i.n	a9, a0, 0
     32c:	9952e0        	excw
     32f:	537800        	excw
     332:	0099      	s32i.n	a9, a0, 0
     334:	4f08      	l32i.n	a0, a15, 16
     336:	0099      	s32i.n	a9, a0, 0
     338:	4e98      	l32i.n	a9, a14, 16
     33a:	0099      	s32i.n	a9, a0, 0
     33c:	994d84        	excw
     33f:	4cb400        	excw
     342:	0099      	s32i.n	a9, a0, 0
     344:	4a3c      	movi.n	a10, 52
     346:	0099      	s32i.n	a9, a0, 0
     348:	49bc      	beqz.n	a9, 0x380
     34a:	0099      	s32i.n	a9, a0, 0
     34c:	994870        	excw
     34f:	7c6800        	excw
     352:	0099      	s32i.n	a9, a0, 0
     354:	6c58      	l32i.n	a5, a12, 24
     356:	0099      	s32i.n	a9, a0, 0
     358:	5428      	l32i.n	a2, a4, 20
     35a:	0099      	s32i.n	a9, a0, 0
     35c:	9958b4        	excw
     35f:	5b7800        	excw
     362:	0099      	s32i.n	a9, a0, 0
     364:	5c8c      	beqz.n	a12, 0x36d
     366:	0099      	s32i.n	a9, a0, 0
     368:	4c38      	l32i.n	a3, a12, 16
     36a:	0099      	s32i.n	a9, a0, 0
     36c:	996290        	excw
     36f:	824c00        	mull	a4, a12, a0
     372:	0099      	s32i.n	a9, a0, 0
     374:	6b28      	l32i.n	a2, a11, 24
     376:	0099      	s32i.n	a9, a0, 0
     378:	6918      	l32i.n	a1, a9, 24
     37a:	0099      	s32i.n	a9, a0, 0
     37c:	832c      	movi.n	a3, 40
     37e:	0099      	s32i.n	a9, a0, 0
     380:	888c      	beqz.n	a8, 0x38c
     382:	0099      	s32i.n	a9, a0, 0
     384:	5048      	l32i.n	a4, a0, 20
     386:	0058      	l32i.n	a5, a0, 0
     388:	6128      	l32i.n	a2, a1, 24
     38a:	0099      	s32i.n	a9, a0, 0
     38c:	586026        	beqi	a0, 6, 0x3e8
     38f:	606e00        	excw
     392:	0058      	l32i.n	a5, a0, 0
     394:	3e          	.byte 0x3e
     395:	005860        	excw
     398:	8f7c      	movi.n	a15, -8
     39a:	200090        	or	a0, a0, a9
     39d:	005932        	s16i	a3, a9, 0
     3a0:	5858e0        	excw
     3a3:	69fc00        	excw
     3a6:	0058      	l32i.n	a5, a0, 0
     3a8:	592cb4        	excw
     3ab:	100900        	and	a0, a9, a0
     3ae:	e40000        	extui	a0, a0, 0, 15
     3b1:	005861        	l32r	a6, 0xfffc0514
     3b4:	002710        	excw
     3b7:	86a000        	excw
     3ba:	600001        	l32r	a0, 0xfffd83bc
     3bd:	580a      	add.n	a5, a8, a0
     3bf:	6c7c00        	excw
     3c2:	0058      	l32i.n	a5, a0, 0
     3c4:	580a80        	excw
     3c7:	61ec00        	xsr.icount	a0
     3ca:	0058      	l32i.n	a5, a0, 0
     3cc:	007530        	excw
     3cf:	61d800        	excw
     3d2:	0058      	l32i.n	a5, a0, 0
     3d4:	69f9      	s32i.n	a15, a9, 24
     3d6:	0058      	l32i.n	a5, a0, 0
     3d8:	593260        	excw
     3db:	117f00        	slli	a7, a15, 16
     3de:	ff0000        	excw
     3e1:	ff          	.byte 0xff
     3e2:	df          	.byte 0xdf
     3e3:	ff          	.byte 0xff
     3e4:	7f          	.byte 0x7f
     3e5:	000d      	mov.n	a0, a0
     3e7:	5ce000        	excw
     3ea:	0058      	l32i.n	a5, a0, 0
     3ec:	5861e0        	excw
     3ef:	2c0000        	excw
     3f2:	0059      	s32i.n	a5, a0, 0
     3f4:	592c10        	excw
     3f7:	622c00        	excw
     3fa:	0058      	l32i.n	a5, a0, 0
     3fc:	586085        	call0	0x58a08
     3ff:	60fc00        	excw
     402:	0058      	l32i.n	a5, a0, 0
     404:	607c      	movi.n	a0, -10
     406:	0058      	l32i.n	a5, a0, 0
     408:	586080        	excw
     40b:	625800        	excw
     40e:	0058      	l32i.n	a5, a0, 0
     410:	66fc      	bnez.n	a6, 0x44a
     412:	0058      	l32i.n	a5, a0, 0
     414:	5efc      	bnez.n	a14, 0x44d
     416:	0058      	l32i.n	a5, a0, 0
     418:	586240        	excw
     41b:	61b600        	excw
     41e:	0058      	l32i.n	a5, a0, 0
     420:	01be00        	slli	a11, a14, 32
     423:	8c7800        	excw
     426:	0058      	l32i.n	a5, a0, 0
     428:	6d7c      	movi.n	a13, -10
     42a:	0058      	l32i.n	a5, a0, 0
     42c:	6bfc      	bnez.n	a11, 0x466
     42e:	0058      	l32i.n	a5, a0, 0
     430:	6cfc      	bnez.n	a12, 0x46a
     432:	0058      	l32i.n	a5, a0, 0
     434:	800000        	add	a0, a0, a0
     437:	808800        	add	a8, a8, a0
     43a:	0058      	l32i.n	a5, a0, 0
     43c:	593040        	excw
     43f:	ffef00        	excw
     442:	ff          	.byte 0xff
     443:	0f          	.byte 0xf
     444:	6a7c      	movi.n	a10, -10
     446:	0058      	l32i.n	a5, a0, 0
     448:	1f59      	s32i.n	a5, a15, 4
     44a:	0058      	l32i.n	a5, a0, 0
     44c:	8e          	.byte 0x8e
     44d:	005931        	l32r	a3, 0xfffc05b4
     450:	0a7c      	movi.n	a10, -16
     452:	a80000        	excw
     455:	000a      	add.n	a0, a0, a0
     457:	5be000        	excw
     45a:	0058      	l32i.n	a5, a0, 0
     45c:	9996d4        	excw
     45f:	916400        	excw
     462:	0099      	s32i.n	a9, a0, 0
     464:	9468      	l32i.n	a6, a4, 36
     466:	0099      	s32i.n	a9, a0, 0
     468:	a4e8      	l32i.n	a14, a4, 40
     46a:	0099      	s32i.n	a9, a0, 0
     46c:	a638      	l32i.n	a3, a6, 40
     46e:	0099      	s32i.n	a9, a0, 0
     470:	998fe0        	excw
     473:	94a000        	extui	a10, a0, 0, 10
     476:	0099      	s32i.n	a9, a0, 0
     478:	aa48      	l32i.n	a4, a10, 40
     47a:	0099      	s32i.n	a9, a0, 0
     47c:	a3a8      	l32i.n	a10, a3, 40
     47e:	0099      	s32i.n	a9, a0, 0
     480:	95fc      	bnez.n	a5, 0x4bd
     482:	0099      	s32i.n	a9, a0, 0
     484:	999540        	excw
     487:	970400        	excw
     48a:	0099      	s32i.n	a9, a0, 0
     48c:	a438      	l32i.n	a3, a4, 40
     48e:	0099      	s32i.n	a9, a0, 0
     490:	999904        	excw
     493:	997400        	excw
     496:	0099      	s32i.n	a9, a0, 0
     498:	999a64        	excw
     49b:	a19000        	sll	a9, a0
     49e:	0099      	s32i.n	a9, a0, 0
     4a0:	999520        	excw
     4a3:	974400        	excw
     4a6:	0099      	s32i.n	a9, a0, 0
     4a8:	9b7c      	movi.n	a11, -7
     4aa:	0099      	s32i.n	a9, a0, 0
     4ac:	99a144        	excw
     4af:	a1d000        	sll	a13, a0
     4b2:	0099      	s32i.n	a9, a0, 0
     4b4:	a238      	l32i.n	a3, a2, 40
     4b6:	0099      	s32i.n	a9, a0, 0
     4b8:	a49c      	beqz.n	a4, 0x4d6
     4ba:	0099      	s32i.n	a9, a0, 0
     4bc:	ab28      	l32i.n	a2, a11, 40
     4be:	0099      	s32i.n	a9, a0, 0
     4c0:	999780        	excw
     4c3:	9be400        	excw
     4c6:	0099      	s32i.n	a9, a0, 0
     4c8:	99a2a0        	excw
     4cb:	abec00        	excw
     4ce:	0099      	s32i.n	a9, a0, 0
     4d0:	99a9e0        	excw
     4d3:	060000        	excw
     4d6:	000003        	excw
     4d9:	fe          	.byte 0xfe
     4da:	000002        	l8ui	a0, a0, 0
     4dd:	480000        	excw
     4e0:	588cf0        	excw
     4e3:	000000        	ill
     4e6:	0008      	l32i.n	a0, a0, 0
     4e8:	f7ff80        	excw
     4eb:	ff          	.byte 0xff
     4ec:	ff          	.byte 0xff
     4ed:	ff          	.byte 0xff
     4ee:	3f          	.byte 0x3f
     4ef:	000000        	ill
     4f2:	708400        	excw
     4f5:	588d      	excw
     4f7:	ffff00        	excw
     4fa:	000007        	bnone	a0, a0, 0x4fe
     4fd:	1ff800        	excw
     500:	080000        	excw
     503:	8df020        	excw
     506:	0058      	l32i.n	a5, a0, 0
     508:	588ff0        	excw
     50b:	220000        	excw
     50e:	300000        	xor	a0, a0, a0
     511:	592c      	movi.n	a9, 37
     513:	2c8000        	excw
     516:	0059      	s32i.n	a5, a0, 0
     518:	002100        	excw
     51b:	c27b00        	excw
     51e:	840056        	bnez	a0, 0xfffffd62
     521:	0056c2        	s16i	a12, a6, 0
     524:	8fcc      	bnez.n	a15, 0x530
     526:	0058      	l32i.n	a5, a0, 0
     528:	593070        	excw
     52b:	042000        	extui	a2, a0, 0, 1
     52e:	0058      	l32i.n	a5, a0, 0
     530:	580410        	excw
     533:	022d00        	excw
     536:	0058      	l32i.n	a5, a0, 0
     538:	580224        	excw
     53b:	020000        	excw
     53e:	0058      	l32i.n	a5, a0, 0
     540:	580212        	l8ui	a1, a2, 88
     543:	917800        	excw
     546:	0058      	l32i.n	a5, a0, 0
     548:	580850        	excw
     54b:	90f000        	addx2	a15, a0, a0
     54e:	0058      	l32i.n	a5, a0, 0
     550:	5804b0        	excw
     553:	312000        	srai	a2, a0, 16
     556:	0059      	s32i.n	a5, a0, 0
     558:	5804a0        	excw
     55b:	03f000        	rsr.ccompare0	a0
     55e:	0058      	l32i.n	a5, a0, 0
     560:	580400        	excw
     563:	000000        	ill
     566:	ff0030        	excw
     569:	ff          	.byte 0xff
     56a:	cf          	.byte 0xcf
     56b:	ff          	.byte 0xff
     56c:	588f70        	excw
     56f:	30a000        	xor	a10, a0, a0
     572:	0059      	s32i.n	a5, a0, 0
     574:	592cb4        	excw
     577:	000000        	ill
     57a:	700003        	excw
     57d:	005890        	excw
     580:	3288      	l32i.n	a8, a2, 12
     582:	0059      	s32i.n	a5, a0, 0
     584:	7568      	l32i.n	a6, a5, 28
     586:	0058      	l32i.n	a5, a0, 0
     588:	030a00        	excw
     58b:	03e800        	rsr.exccause	a0
     58e:	0058      	l32i.n	a5, a0, 0
     590:	588ef0        	excw
     593:	8da400        	excw
     596:	a00056        	bnez	a0, 0xffffff9a
     599:	568d      	excw
     59b:	56d800        	excw
     59e:	0058      	l32i.n	a5, a0, 0
     5a0:	8ffc      	bnez.n	a15, 0x5dc
     5a2:	0058      	l32i.n	a5, a0, 0
     5a4:	faad      	excw
     5a6:	ceed      	excw
     5a8:	f33007        	bltu	a0, a0, 0x59f
     5ab:	040c      	movi.n	a4, 0
     5ad:	7f          	.byte 0x7f
     5ae:	0058      	l32i.n	a5, a0, 0
     5b0:	010101        	l32r	a0, 0xfffc09b4
     5b3:	018001        	l32r	a0, 0xfffc0bb4
     5b6:	0058      	l32i.n	a5, a0, 0
     5b8:	99b520        	excw
     5bb:	b07000        	addx8	a7, a0, a0
     5be:	0099      	s32i.n	a9, a0, 0
     5c0:	afbc      	beqz.n	a15, 0x5fe
     5c2:	0099      	s32i.n	a9, a0, 0
     5c4:	99b844        	excw
     5c7:	b7fc00        	excw
     5ca:	0099      	s32i.n	a9, a0, 0
     5cc:	99bbf4        	excw
     5cf:	b2ec00        	excw
     5d2:	0099      	s32i.n	a9, a0, 0
     5d4:	99af80        	excw
     5d7:	be7400        	excw
     5da:	0099      	s32i.n	a9, a0, 0
     5dc:	99bec0        	excw
     5df:	c82c00        	excw
     5e2:	0099      	s32i.n	a9, a0, 0
     5e4:	c018      	l32i.n	a1, a0, 48
     5e6:	0099      	s32i.n	a9, a0, 0
     5e8:	c028      	l32i.n	a2, a0, 48
     5ea:	0099      	s32i.n	a9, a0, 0
     5ec:	c0ac      	beqz.n	a0, 0x61c
     5ee:	0099      	s32i.n	a9, a0, 0
     5f0:	be18      	l32i.n	a1, a14, 44
     5f2:	0099      	s32i.n	a9, a0, 0
     5f4:	c168      	l32i.n	a6, a1, 48
     5f6:	0099      	s32i.n	a9, a0, 0
     5f8:	c37c      	movi.n	a3, -4
     5fa:	0099      	s32i.n	a9, a0, 0
     5fc:	99c484        	excw
     5ff:	c55400        	extui	a5, a0, 20, 13
     602:	0099      	s32i.n	a9, a0, 0
     604:	99c694        	excw
     607:	c73800        	excw
     60a:	0099      	s32i.n	a9, a0, 0
     60c:	c7ac      	beqz.n	a7, 0x63c
     60e:	0099      	s32i.n	a9, a0, 0
     610:	c8bc      	beqz.n	a8, 0x650
     612:	0099      	s32i.n	a9, a0, 0
     614:	8e          	.byte 0x8e
     615:	587c      	movi.n	a8, -11
     617:	7c5400        	excw
     61a:	0058      	l32i.n	a5, a0, 0
     61c:	cb3b      	addi.n	a12, a11, 3
     61e:	0099      	s32i.n	a9, a0, 0
     620:	5932b4        	excw
     623:	cdfc00        	excw
     626:	0099      	s32i.n	a9, a0, 0
     628:	99ca14        	excw
     62b:	fada00        	excw
     62e:	ceda      	add.n	a12, a14, a13
     630:	32bc      	beqz.n	a2, 0x667
     632:	0059      	s32i.n	a5, a0, 0
     634:	592000        	excw
     637:	27ff00        	excw
     63a:	c40000        	extui	a0, a0, 0, 13
     63d:	587d      	excw
     63f:	485200        	excw
     642:	244154        	excw
     645:	5889      	s32i.n	a8, a8, 20
     647:	ce3400        	excw
     64a:	0099      	s32i.n	a9, a0, 0
     64c:	99cf20        	excw
     64f:	ce6c00        	excw
     652:	0099      	s32i.n	a9, a0, 0
     654:	cee8      	l32i.n	a14, a14, 48
     656:	0099      	s32i.n	a9, a0, 0
     658:	592cb4        	excw
     65b:	78a800        	excw
     65e:	0058      	l32i.n	a5, a0, 0
     660:	7c0a      	add.n	a7, a12, a0
     662:	0058      	l32i.n	a5, a0, 0
     664:	588ab0        	excw
     667:	38f000        	excw
     66a:	0059      	s32i.n	a5, a0, 0
     66c:	580e10        	excw
     66f:	000000        	ill
     672:	ff          	.byte 0xff
     673:	ff          	.byte 0xff
     674:	707c      	movi.n	a0, -9
     676:	0058      	l32i.n	a5, a0, 0
     678:	587c51        	l32r	a5, 0xfffd6868
     67b:	ff0000        	excw
     67e:	ff0000        	excw
     681:	fffe00        	excw
     684:	01ff00        	slli	a15, a15, 32
     687:	7b5400        	excw
     68a:	0058      	l32i.n	a5, a0, 0
     68c:	ff          	.byte 0xff
     68d:	ff          	.byte 0xff
     68e:	7f          	.byte 0x7f
     68f:	100000        	and	a0, a0, a0
     692:	5e          	.byte 0x5e
     693:	5f          	.byte 0x5f
     694:	dc9380        	excw
     697:	e00014        	excw
     69a:	ff          	.byte 0xff
     69b:	ff          	.byte 0xff
     69c:	587714        	excw
     69f:	cfbc00        	excw
     6a2:	0099      	s32i.n	a9, a0, 0
     6a4:	d18c      	beqz.n	a1, 0x6b5
     6a6:	0099      	s32i.n	a9, a0, 0
     6a8:	d2b8      	l32i.n	a11, a2, 52
     6aa:	0099      	s32i.n	a9, a0, 0
     6ac:	d358      	l32i.n	a5, a3, 52
     6ae:	0099      	s32i.n	a9, a0, 0
     6b0:	99d380        	excw
     6b3:	d03800        	subx2	a3, a8, a0
     6b6:	0099      	s32i.n	a9, a0, 0
     6b8:	99d530        	excw
     6bb:	2cb400        	excw
     6be:	0059      	s32i.n	a5, a0, 0
     6c0:	5933a0        	excw
     6c3:	9c4000        	excw
     6c6:	500000        	excw
     6c9:	005816        	beqz	a8, 0x6d2
     6cc:	32e8      	l32i.n	a14, a2, 12
     6ce:	0059      	s32i.n	a5, a0, 0
     6d0:	5932d0        	excw
     6d3:	156800        	extui	a6, a0, 24, 2
     6d6:	0058      	l32i.n	a5, a0, 0
     6d8:	ff          	.byte 0xff
     6d9:	fe          	.byte 0xfe
     6da:	000000        	ill
     6dd:	be          	.byte 0xbe
     6de:	000002        	l8ui	a0, a0, 0
     6e1:	00ff00        	excw
     6e4:	593150        	excw
     6e7:	04c000        	extui	a12, a0, 0, 1
     6ea:	0058      	l32i.n	a5, a0, 0
     6ec:	fffff0        	excw
     6ef:	3f          	.byte 0x3f
     6f0:	7e0000        	excw
     6f3:	fffe00        	excw
     6f6:	000000        	ill
     6f9:	003c      	movi.n	a0, 48
     6fb:	7cd400        	excw
     6fe:	0058      	l32i.n	a5, a0, 0
     700:	007c00        	waiti	12
     703:	800000        	add	a0, a0, a0
     706:	ff          	.byte 0xff
     707:	ffff01        	l32r	a0, 0x704 (0x1ff8000)
     70a:	ffff00        	excw
     70d:	7f          	.byte 0x7f
     70e:	000000        	ill
     711:	9e          	.byte 0x9e
     712:	1f0002        	l8ui	a0, a0, 31
     715:	0099f3        	excw
     718:	9f          	.byte 0x9f
     719:	ff          	.byte 0xff
     71a:	d00000        	subx2	a0, a0, a0
     71d:	005815        	excw
     720:	e7dc      	bnez.n	a7, 0x742
     722:	0099      	s32i.n	a9, a0, 0
     724:	eaec      	bnez.n	a10, 0x756
     726:	0099      	s32i.n	a9, a0, 0
     728:	99dc64        	excw
     72b:	dcc000        	excw
     72e:	0099      	s32i.n	a9, a0, 0
     730:	e7bc      	beqz.n	a7, 0x772
     732:	0099      	s32i.n	a9, a0, 0
     734:	99dcf0        	excw
     737:	dd5400        	excw
     73a:	0099      	s32i.n	a9, a0, 0
     73c:	de48      	l32i.n	a4, a14, 52
     73e:	0099      	s32i.n	a9, a0, 0
     740:	99ded0        	excw
     743:	df2800        	excw
     746:	0099      	s32i.n	a9, a0, 0
     748:	99df80        	excw
     74b:	dfcc00        	excw
     74e:	0099      	s32i.n	a9, a0, 0
     750:	99e0a4        	excw
     753:	e10000        	excw
     756:	0099      	s32i.n	a9, a0, 0
     758:	99e164        	excw
     75b:	e1ec00        	excw
     75e:	0099      	s32i.n	a9, a0, 0
     760:	e258      	l32i.n	a5, a2, 56
     762:	0099      	s32i.n	a9, a0, 0
     764:	e3bc      	beqz.n	a3, 0x7a6
     766:	0099      	s32i.n	a9, a0, 0
     768:	99e4b4        	excw
     76b:	e57400        	extui	a7, a0, 20, 15
     76e:	0099      	s32i.n	a9, a0, 0
     770:	99e5f0        	excw
     773:	e78800        	excw
     776:	0099      	s32i.n	a9, a0, 0
     778:	99ebe0        	excw
     77b:	ef1400        	excw
     77e:	0099      	s32i.n	a9, a0, 0
     780:	ef78      	l32i.n	a7, a15, 56
     782:	0099      	s32i.n	a9, a0, 0
     784:	99f014        	excw
     787:	f0ac00        	subx8	a10, a12, a0
     78a:	0099      	s32i.n	a9, a0, 0
     78c:	f3dc      	bnez.n	a3, 0x7af
     78e:	0099      	s32i.n	a9, a0, 0
     790:	99f1e4        	excw
     793:	f2fc00        	excw
     796:	0099      	s32i.n	a9, a0, 0
     798:	99f500        	excw
     79b:	928000        	excw
     79e:	ac0090        	excw
     7a1:	009095        	excw
     7a4:	5e3c      	movi.n	a14, 53
     7a6:	180090        	excw
     7a9:	99ed      	excw
     7ab:	2cb400        	excw
     7ae:	0059      	s32i.n	a5, a0, 0
     7b0:	99f744        	excw
     7b3:	f79c00        	excw
     7b6:	0099      	s32i.n	a9, a0, 0
     7b8:	593160        	excw
	...
     833:	050700        	extui	a0, a0, 23, 1
     836:	080384        	excw
     839:	070100        	excw
     83c:	038505        	call0	0x4090
     83f:	010004        	excw
     842:	050000        	extui	a0, a0, 16, 1
     845:	060901        	l32r	a0, 0xfffc206c
     848:	0501a1        	l32r	a10, 0xfffc1c4c
     84b:	e01907        	beq	a9, a0, 0x82f
     84e:	e729      	s32i.n	a2, a7, 56
     850:	250015        	excw
     853:	017501        	l32r	a0, 0xfffc0e28
     856:	810895        	excw
     859:	019502        	l16si	a0, a5, 2
     85c:	810875        	excw
     85f:	039501        	l32r	a0, 0xfffc16b4
     862:	050175        	excw
     865:	1908      	l32i.n	a0, a9, 4
     867:	032901        	l32r	a0, 0xfffc150c
     86a:	950291        	l32r	a9, 0xfffe5c74
     86d:	057501        	l32r	a0, 0xfffc1e44
     870:	950191        	l32r	a9, 0xfffe5c74
     873:	087506        	j	0x2a4b
     876:	260015        	excw
     879:	ff          	.byte 0xff
     87a:	070500        	excw
     87d:	0019      	s32i.n	a1, a0, 0
     87f:	ff2a      	add.n	a15, a15, a2
     881:	008100        	excw
     884:	0000c0        	callx0	a0
	...
     893:	010500        	slli	a0, a5, 32
     896:	0209      	s32i.n	a0, a2, 0
     898:	0901a1        	l32r	a10, 0xfffc2c9c
     89b:	00a101        	l32r	a0, 0xfffc0b20
     89e:	190905        	call0	0x19930
     8a1:	032901        	l32r	a0, 0xfffc1548
     8a4:	250015        	excw
     8a7:	017501        	l32r	a0, 0xfffc0e7c
     8aa:	810395        	excw
     8ad:	057502        	excw
     8b0:	810195        	excw
     8b3:	010501        	l32r	a0, 0xfffc0cc8
     8b6:	3009      	s32i.n	a0, a0, 12
     8b8:	3109      	s32i.n	a0, a1, 12
     8ba:	3809      	s32i.n	a0, a8, 12
     8bc:	258115        	excw
     8bf:	7f          	.byte 0x7f
     8c0:	950875        	excw
     8c3:	068103        	excw
     8c6:	41c0c0        	srli	a12, a12, 0
     8c9:	455353        	excw
     8cc:	005452        	s16i	a5, a4, 0
     8cf:	000000        	ill
     8d2:	005c      	movi.n	a0, 80
     8d4:	593170        	excw
     8d7:	390000        	excw
     8da:	0059      	s32i.n	a5, a0, 0
	...
     c14:	3eba      	add.n	a3, a14, a11
     c16:	0039      	s32i.n	a3, a0, 0
     c18:	00ad      	mov.n	a10, a0
     c1a:	ff0000        	excw
     c1d:	373723        	excw
     c20:	1e          	.byte 0x1e
     c21:	2d2d      	excw
     c23:	ff          	.byte 0xff
     c24:	ff          	.byte 0xff
     c25:	ff          	.byte 0xff
     c26:	4b4641        	l32r	a4, 0xfffd3940
     c29:	322d32        	l32i	a3, a13, 200
     c2c:	ff0504        	excw
     c2f:	ff          	.byte 0xff
     c30:	111111        	l32r	a1, 0xfffc5074
     c33:	111111        	l32r	a1, 0xfffc5078
     c36:	190001        	l32r	a0, 0xfffc7038
     c39:	000000        	ill
     c3c:	020100        	excw
     c3f:	030202        	l8ui	a0, a2, 3
     c42:	000303        	excw
     c45:	491506        	j	0x1309d
     c48:	215a      	add.n	a2, a1, a5
     c4a:	6e          	.byte 0x6e
     c4b:	0088      	l32i.n	a8, a0, 0
	...
     c81:	000000        	ill
     c84:	100112        	l8ui	a1, a1, 16
     c87:	000001        	l32r	a0, 0xfffc0c88
     c8a:	f34000        	excw
     c8d:	060c      	movi.n	a6, 0
     c8f:	000100        	excw
     c92:	000000        	ill
     c95:	040901        	l32r	a0, 0xfffc1cbc
     c98:	010002        	l8ui	a0, a0, 1
     c9b:	ff          	.byte 0xff
     c9c:	000000        	ill
     c9f:	030507        	bnone	a5, a0, 0xca6
     ca2:	004002        	s8i	a0, a0, 0
	...
     cb1:	000000        	ill
     cb4:	010501        	l32r	a0, 0xfffc10c8
     cb7:	0b0f05        	call0	0xbda8
     cba:	1b1807        	beq	a8, a0, 0xcd9
	...
     cc5:	040003        	excw
     cc8:	0d0a07        	bnone	a10, a0, 0xcd9
     ccb:	001310        	excw
     cce:	000000        	ill
     cd1:	000000        	ill
     cd4:	580236        	excw
     cd7:	c20000        	excw
     cda:	070056        	bnez	a0, 0xd4e
     cdd:	0056c2        	s16i	a12, a6, 0
     ce0:	0e          	.byte 0xe
     ce1:	0056c2        	s16i	a12, a6, 0
     ce4:	3f          	.byte 0x3f
     ce5:	005802        	s16i	a0, a8, 0
     ce8:	56c215        	excw
     ceb:	c21c00        	excw
     cee:	480056        	bnez	a0, 0x1172
     cf1:	005802        	s16i	a0, a8, 0
     cf4:	56c223        	excw
     cf7:	c22a00        	excw
     cfa:	510056        	bnez	a0, 0x120e
     cfd:	005802        	s16i	a0, a8, 0
     d00:	56c231        	l32r	a3, 0xfffd6808
     d03:	c23800        	excw
     d06:	5a0056        	bnez	a0, 0x12aa
     d09:	005802        	s16i	a0, a8, 0
     d0c:	3f          	.byte 0x3f
     d0d:	0056c2        	s16i	a12, a6, 0
     d10:	56c246        	j	0x1681d
     d13:	026300        	excw
     d16:	0058      	l32i.n	a5, a0, 0
     d18:	c24d      	excw
     d1a:	540056        	bnez	a0, 0x125e
     d1d:	0056c2        	s16i	a12, a6, 0
     d20:	026c      	movi.n	a2, -32
     d22:	0058      	l32i.n	a5, a0, 0
     d24:	c25b      	addi.n	a12, a2, 5
     d26:	620056        	bnez	a0, 0x134a
     d29:	0056c2        	s16i	a12, a6, 0
	...
     d34:	c269      	s32i.n	a6, a2, 48
     d36:	7b0056        	bnez	a0, 0x14ea
     d39:	0056c2        	s16i	a12, a6, 0
     d3c:	592c20        	excw
     d3f:	c27200        	excw
     d42:	840056        	bnez	a0, 0x586
     d45:	0056c2        	s16i	a12, a6, 0
     d48:	592c27        	blt	a12, a2, 0xda5
     d4b:	308200        	xor	a8, a2, a0
     d4e:	0059      	s32i.n	a5, a0, 0
     d50:	308b      	addi.n	a3, a0, 8
     d52:	0059      	s32i.n	a5, a0, 0
	...
     d64:	fa01f4        	excw
     d67:	009600        	excw
     d6a:	4b0064        	excw
     d6d:	003200        	rfde
     d70:	1e          	.byte 0x1e
     d71:	001400        	excw
     d74:	180c60        	excw
     d77:	301830        	xor	a1, a8, a3
     d7a:	3018      	l32i.n	a1, a0, 12
     d7c:	000001        	l32r	a0, 0xfffc0d7c
	...
    1c13:	413600        	srli	a3, a0, 6
    1c16:	06b100        	excw
    1c19:	a8b9      	s32i.n	a11, a8, 40
    1c1b:	b81b      	addi.n	a11, a8, 1
    1c1d:	a70b      	addi.n	a10, a7, -1
    1c1f:	12bb      	addi.n	a1, a2, 11
    1c21:	0b9d      	mov.n	a9, a11
    1c23:	c0cab0        	sub	a12, a10, a11
    1c26:	0a0c      	movi.n	a10, 0
    1c28:	cc3b      	addi.n	a12, a12, 3
    1c2a:	41c2c0        	srli	a12, a12, 2
    1c2d:	039c76        	excw
    1c30:	09a9      	s32i.n	a10, a9, 0
    1c32:	994b      	addi.n	a9, a9, 4
    1c34:	b907e1        	l32r	a14, 0xffff0050
    1c37:	b908d1        	l32r	a13, 0xffff0058
    1c3a:	1a6ed2        	s32i	a13, a14, 104
    1c3d:	000965        	excw
    1c40:	005065        	excw
    1c43:	04eaa5        	excw
    1c46:	06be65        	excw
    1c49:	08de25        	excw
    1c4c:	0890a5        	excw
    1c4f:	08f565        	excw
    1c52:	095d25        	excw
    1c55:	0b5f65        	excw
    1c58:	0b7f25        	excw
    1c5b:	0b81a5        	excw
    1c5e:	0b81e5        	excw
    1c61:	0b8225        	excw
    1c64:	f01d      	excw
    1c66:	360000        	excw
    1c69:	410041        	l32r	a4, 0xfffd206c
    1c6c:	b909      	s32i.n	a0, a9, 44
    1c6e:	b90a51        	l32r	a5, 0xffff0098
    1c71:	0259      	s32i.n	a5, a2, 0
    1c73:	0448      	l32i.n	a4, a4, 0
    1c75:	0349      	s32i.n	a4, a3, 0
    1c77:	f01d      	excw
    1c79:	000000        	ill
    1c7c:	004136        	excw
    1c7f:	b90ba1        	l32r	a10, 0xffff00ac
    1c82:	b90c81        	l32r	a8, 0xffff00b4
    1c85:	792c      	movi.n	a9, 39
    1c87:	0888      	l32i.n	a8, a8, 0
    1c89:	7a99      	s32i.n	a9, a10, 28
    1c8b:	0008e0        	excw
    1c8e:	f01d      	excw
    1c90:	004136        	excw
    1c93:	b90c81        	l32r	a8, 0xffff00c4
    1c96:	1888      	l32i.n	a8, a8, 4
    1c98:	0008e0        	excw
    1c9b:	b90d81        	l32r	a8, 0xffff00d0
    1c9e:	472882        	l32i	a8, a8, 0x11c
    1ca1:	0008e0        	excw
    1ca4:	9aac      	beqz.n	a10, 0x1cd1
    1ca6:	b90e21        	l32r	a2, 0xffff00e0
    1ca9:	0298      	l32i.n	a9, a2, 0
    1cab:	2e2992        	l32i	a9, a9, 184
    1cae:	b9cc      	bnez.n	a9, 0x1cbd
    1cb0:	b90fa1        	l32r	a10, 0xffff00ec
    1cb3:	0b0c      	movi.n	a11, 0
    1cb5:	b239e5        	excw
    1cb8:	0298      	l32i.n	a9, a2, 0
    1cba:	2e2992        	l32i	a9, a9, 184
    1cbd:	1a0c      	movi.n	a10, 1
    1cbf:	042926        	beqi	a9, 2, 0x1cc7
    1cc2:	013926        	beqi	a9, 3, 0x1cc7
    1cc5:	0a0c      	movi.n	a10, 0
    1cc7:	6a8c      	beqz.n	a10, 0x1cd1
    1cc9:	b910b1        	l32r	a11, 0xffff010c
    1ccc:	ea1c      	movi.n	a10, 30
    1cce:	1f6ba2        	s32i	a10, a11, 124
    1cd1:	f01d      	excw
    1cd3:	413600        	srli	a3, a0, 6
    1cd6:	124100        	excw
    1cd9:	21b9      	s32i.n	a11, a1, 8
    1cdb:	31b913        	excw
    1cde:	91b911        	l32r	a1, 0xfffe63c4
    1ce1:	b90c      	movi.n	a9, 11
    1ce3:	03a8      	l32i.n	a10, a3, 0
    1ce5:	1388      	l32i.n	a8, a3, 4
    1ce7:	1989      	s32i.n	a8, a9, 4
    1ce9:	1329      	s32i.n	a2, a3, 4
    1ceb:	09a9      	s32i.n	a10, a9, 0
    1ced:	0349      	s32i.n	a4, a3, 0
    1cef:	f01d      	excw
    1cf1:	000000        	ill
    1cf4:	006136        	excw
    1cf7:	01ad      	mov.n	a10, a1
    1cf9:	0b0c      	movi.n	a11, 0
    1cfb:	0c1c      	movi.n	a12, 16
    1cfd:	0ba7a5        	excw
    1d00:	b91531        	l32r	a3, 0xffff0154
    1d03:	b90e51        	l32r	a5, 0xffff013c
    1d06:	b91481        	l32r	a8, 0xffff0158
    1d09:	2a0c      	movi.n	a10, 2
    1d0b:	341882        	l16ui	a8, a8, 104
    1d0e:	01a9      	s32i.n	a10, a1, 0
    1d10:	0d6827        	bbci	a8, 2, 0x1d21
    1d13:	05b8      	l32i.n	a11, a5, 0
    1d15:	abb8      	l32i.n	a11, a11, 40
    1d17:	190c      	movi.n	a9, 1
    1d19:	c0bb30        	sub	a11, a11, a3
    1d1c:	939ab0        	movnez	a9, a10, a11
    1d1f:	0199      	s32i.n	a9, a1, 0
    1d21:	b91681        	l32r	a8, 0xffff017c
    1d24:	2888      	l32i.n	a8, a8, 8
    1d26:	01ad      	mov.n	a10, a1
    1d28:	0008e0        	excw
    1d2b:	b91721        	l32r	a2, 0xffff0188
    1d2e:	322282        	l32i	a8, a2, 200
    1d31:	7a0c      	movi.n	a10, 7
    1d33:	0008e0        	excw
    1d36:	b90741        	l32r	a4, 0xffff0154
    1d39:	0abd      	mov.n	a11, a10
    1d3b:	b488      	l32i.n	a8, a4, 44
    1d3d:	7a0c      	movi.n	a10, 7
    1d3f:	0008e0        	excw
    1d42:	322282        	l32i	a8, a2, 200
    1d45:	3a0c      	movi.n	a10, 3
    1d47:	0008e0        	excw
    1d4a:	0abd      	mov.n	a11, a10
    1d4c:	b488      	l32i.n	a8, a4, 44
    1d4e:	3a0c      	movi.n	a10, 3
    1d50:	0008e0        	excw
    1d53:	322282        	l32i	a8, a2, 200
    1d56:	4a0c      	movi.n	a10, 4
    1d58:	0008e0        	excw
    1d5b:	0abd      	mov.n	a11, a10
    1d5d:	b488      	l32i.n	a8, a4, 44
    1d5f:	4a0c      	movi.n	a10, 4
    1d61:	0008e0        	excw
    1d64:	0598      	l32i.n	a9, a5, 0
    1d66:	a998      	l32i.n	a9, a9, 40
    1d68:	329937        	bne	a9, a3, 0x1d9e
    1d6b:	322282        	l32i	a8, a2, 200
    1d6e:	6a0c      	movi.n	a10, 6
    1d70:	0008e0        	excw
    1d73:	0abd      	mov.n	a11, a10
    1d75:	b488      	l32i.n	a8, a4, 44
    1d77:	6a0c      	movi.n	a10, 6
    1d79:	0008e0        	excw
    1d7c:	322282        	l32i	a8, a2, 200
    1d7f:	ba0c      	movi.n	a10, 11
    1d81:	0008e0        	excw
    1d84:	0abd      	mov.n	a11, a10
    1d86:	b488      	l32i.n	a8, a4, 44
    1d88:	ba0c      	movi.n	a10, 11
    1d8a:	0008e0        	excw
    1d8d:	322282        	l32i	a8, a2, 200
    1d90:	ca0c      	movi.n	a10, 12
    1d92:	0008e0        	excw
    1d95:	0abd      	mov.n	a11, a10
    1d97:	b488      	l32i.n	a8, a4, 44
    1d99:	ca0c      	movi.n	a10, 12
    1d9b:	0008e0        	excw
    1d9e:	462282        	l32i	a8, a2, 0x118
    1da1:	0008e0        	excw
    1da4:	472282        	l32i	a8, a2, 0x11c
    1da7:	0008e0        	excw
    1daa:	f01d      	excw
    1dac:	004136        	excw
    1daf:	746040        	extui	a6, a4, 0, 8
    1db2:	b91771        	l32r	a7, 0xffff0210
    1db5:	ce3c      	movi.n	a14, 60
    1db7:	74d030        	extui	a13, a3, 0, 8
    1dba:	c1dde0        	mul16u	a13, a13, a14
    1dbd:	2f27c2        	l32i	a12, a7, 188
    1dc0:	e8a852        	movi	a5, 0xfffff8e8
    1dc3:	ccda      	add.n	a12, a12, a13
    1dc5:	5c5a      	add.n	a5, a12, a5
    1dc7:	22fc      	bnez.n	a2, 0x1dfd
    1dc9:	0c2626        	beqi	a6, 2, 0x1dd9
    1dcc:	091626        	beqi	a6, 1, 0x1dd9
    1dcf:	0a0c      	movi.n	a10, 0
    1dd1:	1b0c      	movi.n	a11, 1
    1dd3:	b22825        	excw
    1dd6:	0008c6        	j	0x1dfd
    1dd9:	ca0c      	movi.n	a10, 12
    1ddb:	b90781        	l32r	a8, 0xffff01f8
    1dde:	f9dcb2        	addmi	a11, a12, 0xfffff900
    1de1:	7888      	l32i.n	a8, a8, 28
    1de3:	061bb2        	l16ui	a11, a11, 12
    1de6:	0008e0        	excw
    1de9:	0a2d      	mov.n	a2, a10
    1deb:	098a16        	beqz	a10, 0x1e87
    1dee:	0b0c      	movi.n	a11, 0
    1df0:	0a0aa2        	l8ui	a10, a10, 10
    1df3:	1215c2        	l16ui	a12, a5, 36
    1df6:	aa2a      	add.n	a10, a10, a2
    1df8:	aacb      	addi.n	a10, a10, 12
    1dfa:	0b97e5        	excw
    1dfd:	b91881        	l32r	a8, 0xffff0260
    1e00:	432882        	l32i	a8, a8, 0x10c
    1e03:	05ad      	mov.n	a10, a5
    1e05:	0008e0        	excw
    1e08:	dacc      	bnez.n	a10, 0x1e19
    1e0a:	079216        	beqz	a2, 0x1e87
    1e0d:	b90781        	l32r	a8, 0xffff022c
    1e10:	8888      	l32i.n	a8, a8, 32
    1e12:	02ad      	mov.n	a10, a2
    1e14:	0008e0        	excw
    1e17:	f01d      	excw
    1e19:	05a216        	beqz	a2, 0x1e77
    1e1c:	1215a2        	l16ui	a10, a5, 36
    1e1f:	b91991        	l32r	a9, 0xffff0284
    1e22:	aa2a      	add.n	a10, a10, a2
    1e24:	0c4a62        	s8i	a6, a10, 12
    1e27:	2f27b2        	l32i	a11, a7, 188
    1e2a:	641992        	l16ui	a9, a9, 200
    1e2d:	020ba2        	l8ui	a10, a11, 2
    1e30:	fec992        	addi	a9, a9, -2
    1e33:	11a9a7        	bge	a9, a10, 0x1e48
    1e36:	02ad      	mov.n	a10, a2
    1e38:	4b98      	l32i.n	a9, a11, 16
    1e3a:	b90781        	l32r	a8, 0xffff0258
    1e3d:	990b      	addi.n	a9, a9, -1
    1e3f:	8888      	l32i.n	a8, a8, 32
    1e41:	4b99      	s32i.n	a9, a11, 16
    1e43:	0008e0        	excw
    1e46:	f01d      	excw
    1e48:	03e6b0        	rsr.ps	a11
    1e4b:	2a0c      	movi.n	a10, 2
    1e4d:	3490b0        	extui	a9, a11, 0, 4
    1e50:	022a97        	blt	a10, a9, 0x1e56
    1e53:	0062b0        	rsil	a11, 2
    1e56:	c5a8      	l32i.n	a10, a5, 48
    1e58:	2f27d2        	l32i	a13, a7, 188
    1e5b:	1a98      	l32i.n	a9, a10, 4
    1e5d:	0e0c      	movi.n	a14, 0
    1e5f:	f99c      	beqz.n	a9, 0x1e82
    1e61:	0929      	s32i.n	a2, a9, 0
    1e63:	1a29      	s32i.n	a2, a10, 4
    1e65:	02e9      	s32i.n	a14, a2, 0
    1e67:	020dc2        	l8ui	a12, a13, 2
    1e6a:	cc1b      	addi.n	a12, a12, 1
    1e6c:	024dc2        	s8i	a12, a13, 2
    1e6f:	13e6b0        	wsr.ps	a11
    1e72:	002010        	rsync
    1e75:	f01d      	excw
    1e77:	2f2782        	l32i	a8, a7, 188
    1e7a:	58f8      	l32i.n	a15, a8, 20
    1e7c:	ff1b      	addi.n	a15, a15, 1
    1e7e:	58f9      	s32i.n	a15, a8, 20
    1e80:	f01d      	excw
    1e82:	0a9d      	mov.n	a9, a10
    1e84:	fff646        	j	0x1e61
    1e87:	f01d      	excw
    1e89:	000000        	ill
    1e8c:	006136        	excw
    1e8f:	03bd      	mov.n	a11, a3
    1e91:	01ad      	mov.n	a10, a1
    1e93:	0c1c      	movi.n	a12, 16
    1e95:	0b7c25        	excw
    1e98:	0011d2        	l16ui	a13, a1, 0
    1e9b:	c80c      	movi.n	a8, 12
    1e9d:	028df6        	bgeui	a13, 8, 0x1ea3
    1ea0:	005306        	j	0x1ff0
    1ea3:	02b8d7        	bgeu	a8, a13, 0x1ea9
    1ea6:	005186        	j	0x1ff0
    1ea9:	011192        	l16ui	a9, a1, 2
    1eac:	990b      	addi.n	a9, a9, -1
    1eae:	13e956        	bnez	a9, 0x1ff0
    1eb1:	160c      	movi.n	a6, 1
    1eb3:	0401e2        	l8ui	a14, a1, 4
    1eb6:	b91a51        	l32r	a5, 0xffff0320
    1eb9:	fecea2        	addi	a10, a14, -2
    1ebc:	132a16        	beqz	a10, 0x1ff2
    1ebf:	b91d71        	l32r	a7, 0xffff0334
    1ec2:	b91c31        	l32r	a3, 0xffff0334
    1ec5:	b91b41        	l32r	a4, 0xffff0334
    1ec8:	090c      	movi.n	a9, 0
    1eca:	fdcef2        	addi	a15, a14, -3
    1ecd:	14cf16        	beqz	a15, 0x201d
    1ed0:	028ea6        	blti	a14, 8, 0x1ed6
    1ed3:	004646        	j	0x1ff0
    1ed6:	026ee6        	bgei	a14, 6, 0x1edc
    1ed9:	0044c6        	j	0x1ff0
    1edc:	f8cd82        	addi	a8, a13, -8
    1edf:	10d856        	bnez	a8, 0x1ff0
    1ee2:	0311a2        	l16ui	a10, a1, 6
    1ee5:	fccaa2        	addi	a10, a10, -4
    1ee8:	104a56        	bnez	a10, 0x1ff0
    1eeb:	352382        	l32i	a8, a3, 212
    1eee:	02ad      	mov.n	a10, a2
    1ef0:	0008e0        	excw
    1ef3:	b91e51        	l32r	a5, 0xffff036c
    1ef6:	98a192        	movi	a9, 0x198
    1ef9:	c19a90        	mul16u	a9, a10, a9
    1efc:	959a      	add.n	a9, a5, a9
    1efe:	7d0992        	l8ui	a9, a9, 125
    1f01:	501966        	bnei	a9, 1, 0x1f55
    1f04:	352382        	l32i	a8, a3, 212
    1f07:	02ad      	mov.n	a10, a2
    1f09:	0008e0        	excw
    1f0c:	98a192        	movi	a9, 0x198
    1f0f:	c19a90        	mul16u	a9, a10, a9
    1f12:	0511a2        	l16ui	a10, a1, 10
    1f15:	959a      	add.n	a9, a5, a9
    1f17:	800992        	l8ui	a9, a9, 128
    1f1a:	3799a7        	bne	a9, a10, 0x1f55
    1f1d:	060c      	movi.n	a6, 0
    1f1f:	722482        	l32i	a8, a4, 0x1c8
    1f22:	02ad      	mov.n	a10, a2
    1f24:	0008e0        	excw
    1f27:	b91491        	l32r	a9, 0xffff0378
    1f2a:	b920a1        	l32r	a10, 0xffff03ac
    1f2d:	b91fb1        	l32r	a11, 0xffff03ac
    1f30:	ffa0c2        	movi	a12, 255
    1f33:	1d4bc2        	s8i	a12, a11, 29
    1f36:	1f4ac2        	s8i	a12, a10, 31
    1f39:	1c4b62        	s8i	a6, a11, 28
    1f3c:	271992        	l16ui	a9, a9, 78
    1f3f:	1e4a62        	s8i	a6, a10, 30
    1f42:	0fe957        	bbsi	a9, 5, 0x1f55
    1f45:	352382        	l32i	a8, a3, 212
    1f48:	02ad      	mov.n	a10, a2
    1f4a:	0008e0        	excw
    1f4d:	692382        	l32i	a8, a3, 0x1a4
    1f50:	5b0c      	movi.n	a11, 5
    1f52:	0008e0        	excw
    1f55:	352382        	l32i	a8, a3, 212
    1f58:	02ad      	mov.n	a10, a2
    1f5a:	0008e0        	excw
    1f5d:	98a192        	movi	a9, 0x198
    1f60:	c19a90        	mul16u	a9, a10, a9
    1f63:	959a      	add.n	a9, a5, a9
    1f65:	7e0992        	l8ui	a9, a9, 126
    1f68:	201966        	bnei	a9, 1, 0x1f8c
    1f6b:	352382        	l32i	a8, a3, 212
    1f6e:	02ad      	mov.n	a10, a2
    1f70:	0008e0        	excw
    1f73:	98a192        	movi	a9, 0x198
    1f76:	c19a90        	mul16u	a9, a10, a9
    1f79:	0511a2        	l16ui	a10, a1, 10
    1f7c:	959a      	add.n	a9, a5, a9
    1f7e:	810992        	l8ui	a9, a9, 129
    1f81:	0799a7        	bne	a9, a10, 0x1f8c
    1f84:	742482        	l32i	a8, a4, 0x1d0
    1f87:	02ad      	mov.n	a10, a2
    1f89:	0008e0        	excw
    1f8c:	352382        	l32i	a8, a3, 212
    1f8f:	02ad      	mov.n	a10, a2
    1f91:	0008e0        	excw
    1f94:	98a192        	movi	a9, 0x198
    1f97:	c19a90        	mul16u	a9, a10, a9
    1f9a:	959a      	add.n	a9, a5, a9
    1f9c:	7f0992        	l8ui	a9, a9, 127
    1f9f:	201966        	bnei	a9, 1, 0x1fc3
    1fa2:	352382        	l32i	a8, a3, 212
    1fa5:	02ad      	mov.n	a10, a2
    1fa7:	0008e0        	excw
    1faa:	98a192        	movi	a9, 0x198
    1fad:	c19a90        	mul16u	a9, a10, a9
    1fb0:	0511a2        	l16ui	a10, a1, 10
    1fb3:	959a      	add.n	a9, a5, a9
    1fb5:	820992        	l8ui	a9, a9, 130
    1fb8:	0799a7        	bne	a9, a10, 0x1fc3
    1fbb:	762482        	l32i	a8, a4, 0x1d8
    1fbe:	02ad      	mov.n	a10, a2
    1fc0:	0008e0        	excw
    1fc3:	352382        	l32i	a8, a3, 212
    1fc6:	02ad      	mov.n	a10, a2
    1fc8:	0008e0        	excw
    1fcb:	98a192        	movi	a9, 0x198
    1fce:	c19a90        	mul16u	a9, a10, a9
    1fd1:	959a      	add.n	a9, a5, a9
    1fd3:	830992        	l8ui	a9, a9, 131
    1fd6:	161966        	bnei	a9, 1, 0x1ff0
    1fd9:	9e07a2        	l8ui	a10, a7, 158
    1fdc:	0a9c      	beqz.n	a10, 0x1ff0
    1fde:	352382        	l32i	a8, a3, 212
    1fe1:	02ad      	mov.n	a10, a2
    1fe3:	0008e0        	excw
    1fe6:	5b2482        	l32i	a8, a4, 0x16c
    1fe9:	0b0c      	movi.n	a11, 0
    1feb:	0008e0        	excw
    1fee:	f01d      	excw
    1ff0:	f01d      	excw
    1ff2:	fa8d66        	bnei	a13, 8, 0x1ff0
    1ff5:	031192        	l16ui	a9, a1, 6
    1ff8:	f44966        	bnei	a9, 4, 0x1ff0
    1ffb:	0411a2        	l16ui	a10, a1, 8
    1ffe:	2c4562        	s8i	a6, a5, 44
    2001:	583a26        	beqi	a10, 3, 0x205d
    2004:	fb0c      	movi.n	a11, 15
    2006:	6a1ab7        	beq	a10, a11, 0x2074
    2009:	1c1c      	movi.n	a12, 17
    200b:	531ac7        	beq	a10, a12, 0x2062
    200e:	3d1c      	movi.n	a13, 19
    2010:	4e1ad7        	beq	a10, a13, 0x2062
    2013:	9e1c      	movi.n	a14, 25
    2015:	449ae7        	bne	a10, a14, 0x205d
    2018:	314562        	s8i	a6, a5, 49
    201b:	f01d      	excw
    201d:	cfad66        	bnei	a13, 12, 0x1ff0
    2020:	0311f2        	l16ui	a15, a1, 6
    2023:	c98f66        	bnei	a15, 8, 0x1ff0
    2026:	2c0582        	l8ui	a8, a5, 44
    2029:	c31866        	bnei	a8, 1, 0x1ff0
    202c:	0611b2        	l16ui	a11, a1, 12
    202f:	2c4592        	s8i	a9, a5, 44
    2032:	ba2bf6        	bgeui	a11, 2, 0x1ff0
    2035:	352382        	l32i	a8, a3, 212
    2038:	02ad      	mov.n	a10, a2
    203a:	0008e0        	excw
    203d:	b91791        	l32r	a9, 0xffff049c
    2040:	ae09b2        	l8ui	a11, a9, 174
    2043:	2bbc      	beqz.n	a11, 0x2079
    2045:	9e07c2        	l8ui	a12, a7, 158
    2048:	020c      	movi.n	a2, 0
    204a:	9c9c      	beqz.n	a12, 0x2067
    204c:	9f07d2        	l8ui	a13, a7, 159
    204f:	146d07        	bbci	a13, 0, 0x2067
    2052:	5b2482        	l32i	a8, a4, 0x16c
    2055:	1b0c      	movi.n	a11, 1
    2057:	0008e0        	excw
    205a:	000446        	j	0x206f
    205d:	2e4562        	s8i	a6, a5, 46
    2060:	f01d      	excw
    2062:	2f4562        	s8i	a6, a5, 47
    2065:	f01d      	excw
    2067:	5b2482        	l32i	a8, a4, 0x16c
    206a:	0b0c      	movi.n	a11, 0
    206c:	0008e0        	excw
    206f:	2e4522        	s8i	a2, a5, 46
    2072:	f01d      	excw
    2074:	304562        	s8i	a6, a5, 48
    2077:	f01d      	excw
    2079:	af09b2        	l8ui	a11, a9, 175
    207c:	ebac      	beqz.n	a11, 0x20ae
    207e:	9e07c2        	l8ui	a12, a7, 158
    2081:	fc8c      	beqz.n	a12, 0x2094
    2083:	9f07d2        	l8ui	a13, a7, 159
    2086:	0a6d17        	bbci	a13, 1, 0x2094
    2089:	5b2482        	l32i	a8, a4, 0x16c
    208c:	1b0c      	movi.n	a11, 1
    208e:	0008e0        	excw
    2091:	0001c6        	j	0x209c
    2094:	5b2482        	l32i	a8, a4, 0x16c
    2097:	0b0c      	movi.n	a11, 0
    2099:	0008e0        	excw
    209c:	030c      	movi.n	a3, 0
    209e:	02ad      	mov.n	a10, a2
    20a0:	732482        	l32i	a8, a4, 0x1cc
    20a3:	0511b2        	l16ui	a11, a1, 10
    20a6:	0008e0        	excw
    20a9:	2f4532        	s8i	a3, a5, 47
    20ac:	f01d      	excw
    20ae:	b009b2        	l8ui	a11, a9, 176
    20b1:	8b9c      	beqz.n	a11, 0x20cd
    20b3:	5b2482        	l32i	a8, a4, 0x16c
    20b6:	0b0c      	movi.n	a11, 0
    20b8:	0008e0        	excw
    20bb:	02ad      	mov.n	a10, a2
    20bd:	752482        	l32i	a8, a4, 0x1d4
    20c0:	0511b2        	l16ui	a11, a1, 10
    20c3:	0008e0        	excw
    20c6:	090c      	movi.n	a9, 0
    20c8:	304592        	s8i	a9, a5, 48
    20cb:	f01d      	excw
    20cd:	b109b2        	l8ui	a11, a9, 177
    20d0:	f1cb16        	beqz	a11, 0x1ff0
    20d3:	9e07c2        	l8ui	a12, a7, 158
    20d6:	fc8c      	beqz.n	a12, 0x20e9
    20d8:	9f07d2        	l8ui	a13, a7, 159
    20db:	0a6d27        	bbci	a13, 2, 0x20e9
    20de:	5b2482        	l32i	a8, a4, 0x16c
    20e1:	1b0c      	movi.n	a11, 1
    20e3:	0008e0        	excw
    20e6:	0001c6        	j	0x20f1
    20e9:	5b2482        	l32i	a8, a4, 0x16c
    20ec:	0b0c      	movi.n	a11, 0
    20ee:	0008e0        	excw
    20f1:	02ad      	mov.n	a10, a2
    20f3:	712482        	l32i	a8, a4, 0x1c4
    20f6:	0511b2        	l16ui	a11, a1, 10
    20f9:	0008e0        	excw
    20fc:	352382        	l32i	a8, a3, 212
    20ff:	b91f91        	l32r	a9, 0xffff057c
    2102:	0a0c      	movi.n	a10, 0
    2104:	3145a2        	s8i	a10, a5, 49
    2107:	1c4962        	s8i	a6, a9, 28
    210a:	02ad      	mov.n	a10, a2
    210c:	0008e0        	excw
    210f:	352382        	l32i	a8, a3, 212
    2112:	b91fb1        	l32r	a11, 0xffff0590
    2115:	b92091        	l32r	a9, 0xffff0598
    2118:	1d4ba2        	s8i	a10, a11, 29
    211b:	1e4962        	s8i	a6, a9, 30
    211e:	02ad      	mov.n	a10, a2
    2120:	0008e0        	excw
    2123:	b914c1        	l32r	a12, 0xffff0574
    2126:	b920d1        	l32r	a13, 0xffff05a8
    2129:	271cc2        	l16ui	a12, a12, 78
    212c:	1f4da2        	s8i	a10, a13, 31
    212f:	04c5c0        	extui	a12, a12, 5, 1
    2132:	ebac56        	bnez	a12, 0x1ff0
    2135:	352382        	l32i	a8, a3, 212
    2138:	02ad      	mov.n	a10, a2
    213a:	0008e0        	excw
    213d:	692382        	l32i	a8, a3, 0x1a4
    2140:	1b0c      	movi.n	a11, 1
    2142:	0008e0        	excw
    2145:	f01d      	excw
    2147:	413600        	srli	a3, a0, 6
    214a:	0e2100        	excw
    214d:	a1b9      	s32i.n	a11, a1, 40
    214f:	98b921        	l32r	a2, 0xfffe8434
    2152:	228102        	excw
    2155:	92b9      	s32i.n	a11, a2, 36
    2157:	2e29      	s32i.n	a2, a14, 8
    2159:	696a82        	s32i	a8, a10, 0x1a4
    215c:	b9cc      	bnez.n	a9, 0x216b
    215e:	b923a1        	l32r	a10, 0xffff05ec
    2161:	0b0c      	movi.n	a11, 0
    2163:	b1ef25        	excw
    2166:	0298      	l32i.n	a9, a2, 0
    2168:	2e2992        	l32i	a9, a9, 184
    216b:	1a0c      	movi.n	a10, 1
    216d:	042926        	beqi	a9, 2, 0x2175
    2170:	013926        	beqi	a9, 3, 0x2175
    2173:	0a0c      	movi.n	a10, 0
    2175:	fadc      	bnez.n	a10, 0x2198
    2177:	b9cc      	bnez.n	a9, 0x2186
    2179:	b923a1        	l32r	a10, 0xffff0608
    217c:	0b0c      	movi.n	a11, 0
    217e:	b1ed65        	excw
    2181:	0298      	l32i.n	a9, a2, 0
    2183:	2e2992        	l32i	a9, a9, 184
    2186:	0e1966        	bnei	a9, 1, 0x2198
    2189:	b926a1        	l32r	a10, 0xffff0624
    218c:	b924b1        	l32r	a11, 0xffff061c
    218f:	b925c1        	l32r	a12, 0xffff0624
    2192:	7d6bc2        	s32i	a12, a11, 0x1f4
    2195:	886ba2        	s32i	a10, a11, 0x220
    2198:	f01d      	excw
    219a:	360000        	excw
    219d:	810041        	l32r	a4, 0xfffe25a0
    21a0:	92b927        	bgeu	a9, a2, 0x2136
    21a3:	9098a1        	l32r	a10, 0xfffe6404
    21a6:	31c192        	addi	a9, a1, 49
    21a9:	b928      	l32i.n	a2, a9, 44
    21ab:	289a      	add.n	a2, a8, a9
    21ad:	7f2292        	l32i	a9, a2, 0x1fc
    21b0:	10a930        	and	a10, a9, a3
    21b3:	1069d7        	bbci	a9, 13, 0x21c7
    21b6:	0d69e7        	bbci	a9, 14, 0x21c7
    21b9:	b929a1        	l32r	a10, 0xffff0660
    21bc:	0b0c      	movi.n	a11, 0
    21be:	b1e965        	excw
    21c1:	7f2292        	l32i	a9, a2, 0x1fc
    21c4:	10a930        	and	a10, a9, a3
    21c7:	1acc      	bnez.n	a10, 0x21cc
    21c9:	037907        	bbci	a9, 16, 0x21d0
    21cc:	120c      	movi.n	a2, 1
    21ce:	f01d      	excw
    21d0:	020c      	movi.n	a2, 0
    21d2:	f01d      	excw
    21d4:	004136        	excw
    21d7:	b92a81        	l32r	a8, 0xffff0680
    21da:	dc0882        	l8ui	a8, a8, 220
    21dd:	238800        	excw
    21e0:	0718e6        	bgei	a8, 1, 0x21eb
    21e3:	b929a1        	l32r	a10, 0xffff0688
    21e6:	0b0c      	movi.n	a11, 0
    21e8:	b1e6a5        	excw
    21eb:	ffa092        	movi	a9, 255
    21ee:	079297        	bne	a2, a9, 0x21f9
    21f1:	b929a1        	l32r	a10, 0xffff0698
    21f4:	0b0c      	movi.n	a11, 0
    21f6:	b1e5e5        	excw
    21f9:	b92b31        	l32r	a3, 0xffff06a8
    21fc:	98a182        	movi	a8, 0x198
    21ff:	c18280        	mul16u	a8, a2, a8
    2202:	338a      	add.n	a3, a3, a8
    2204:	7f03a2        	l8ui	a10, a3, 127
    2207:	6acc      	bnez.n	a10, 0x2211
    2209:	b929a1        	l32r	a10, 0xffff06b0
    220c:	0b0c      	movi.n	a11, 0
    220e:	b1e465        	excw
    2211:	8003a2        	l8ui	a10, a3, 128
    2214:	164ab6        	bltui	a10, 4, 0x222e
    2217:	084a66        	bnei	a10, 4, 0x2223
    221a:	b92c91        	l32r	a9, 0xffff06cc
    221d:	b02992        	l32i	a9, a9, 0x2c0
    2220:	0ab297        	bgeu	a2, a9, 0x222e
    2223:	b929a1        	l32r	a10, 0xffff06c8
    2226:	0b0c      	movi.n	a11, 0
    2228:	b1e2a5        	excw
    222b:	8003a2        	l8ui	a10, a3, 128
    222e:	b91021        	l32r	a2, 0xffff0670
    2231:	a02a20        	addx4	a2, a10, a2
    2234:	1228      	l32i.n	a2, a2, 4
    2236:	f01d      	excw
    2238:	004136        	excw
    223b:	023d      	mov.n	a3, a2
    223d:	0752b6        	bltui	a2, 5, 0x2248
    2240:	b929a1        	l32r	a10, 0xffff06e4
    2243:	0b0c      	movi.n	a11, 0
    2245:	b1e0e5        	excw
    2248:	b91021        	l32r	a2, 0xffff0688
    224b:	902320        	addx2	a2, a3, a2
    224e:	0c1222        	l16ui	a2, a2, 24
    2251:	f01d      	excw
    2253:	413600        	srli	a3, a0, 6
    2256:	2d2100        	excw
    2259:	a2b9      	s32i.n	a11, a2, 40
    225b:	827302        	excw
    225e:	87ffa0        	excw
    2261:	0a9a      	add.n	a0, a10, a9
    2263:	b929a1        	l32r	a10, 0xffff0708
    2266:	0b0c      	movi.n	a11, 0
    2268:	b1dea5        	excw
    226b:	7302a2        	l8ui	a10, a2, 115
    226e:	b92e21        	l32r	a2, 0xffff0728
    2271:	b02a20        	addx8	a2, a10, a2
    2274:	800222        	l8ui	a2, a2, 128
    2277:	f01d      	excw
    2279:	000000        	ill
    227c:	004136        	excw
    227f:	aa0c      	movi.n	a10, 10
    2281:	0b0c      	movi.n	a11, 0
    2283:	b92d91        	l32r	a9, 0xffff0738
    2286:	b92f81        	l32r	a8, 0xffff0744
    2289:	634922        	s8i	a2, a9, 99
    228c:	1f2882        	l32i	a8, a8, 124
    228f:	624932        	s8i	a3, a9, 98
    2292:	0008e0        	excw
    2295:	f01d      	excw
    2297:	413600        	srli	a3, a0, 6
    229a:	a08200        	addx4	a8, a2, a0
    229d:	ff          	.byte 0xff
    229e:	079287        	bne	a2, a8, 0x22a9
    22a1:	b929a1        	l32r	a10, 0xffff0748
    22a4:	0b0c      	movi.n	a11, 0
    22a6:	b1dae5        	excw
    22a9:	34a020        	extui	a10, a2, 0, 4
    22ac:	025ae6        	bgei	a10, 5, 0x22b2
    22af:	113ae6        	bgei	a10, 3, 0x22c4
    22b2:	02aae6        	bgei	a10, 12, 0x22b8
    22b5:	0b8ae6        	bgei	a10, 8, 0x22c4
    22b8:	04bae6        	bgei	a10, 16, 0x22c0
    22bb:	e90c      	movi.n	a9, 14
    22bd:	03aa97        	bge	a10, a9, 0x22c4
    22c0:	020c      	movi.n	a2, 0
    22c2:	f01d      	excw
    22c4:	120c      	movi.n	a2, 1
    22c6:	f01d      	excw
    22c8:	006136        	excw
    22cb:	ffa0d2        	movi	a13, 255
    22ce:	1294d7        	bne	a4, a13, 0x22e4
    22d1:	054d      	mov.n	a4, a5
    22d3:	c085d0        	sub	a8, a5, a13
    22d6:	184816        	beqz	a8, 0x245e
    22d9:	b94c      	movi.n	a9, 75
    22db:	05b957        	bgeu	a9, a5, 0x22e4
    22de:	fec3a2        	addi	a10, a3, -2
    22e1:	179a16        	beqz	a10, 0x245e
    22e4:	64a052        	movi	a5, 100
    22e7:	10b547        	bgeu	a5, a4, 0x22fb
    22ea:	b929a1        	l32r	a10, 0xffff0790
    22ed:	0b0c      	movi.n	a11, 0
    22ef:	b1d665        	excw
    22f2:	ffa0d2        	movi	a13, 255
    22f5:	02b547        	bgeu	a5, a4, 0x22fb
    22f8:	005886        	j	0x245e
    22fb:	b93061        	l32r	a6, 0xffff07bc
    22fe:	98a172        	movi	a7, 0x198
    2301:	c17270        	mul16u	a7, a2, a7
    2304:	080c      	movi.n	a8, 0
    2306:	676a      	add.n	a6, a7, a6
    2308:	b906a2        	l8ui	a10, a6, 185
    230b:	0d96b2        	l16si	a11, a6, 26
    230e:	be06c2        	l8ui	a12, a6, 190
    2311:	21b8b0        	srai	a11, a11, 8
    2314:	23bb00        	excw
    2317:	08b3c7        	bgeu	a3, a12, 0x2323
    231a:	bd4642        	s8i	a4, a6, 189
    231d:	bc46b2        	s8i	a11, a6, 188
    2320:	605682        	s16i	a8, a6, 192
    2323:	1c0c      	movi.n	a12, 1
    2325:	be46a2        	s8i	a10, a6, 190
    2328:	050c      	movi.n	a5, 0
    232a:	0f1c      	movi.n	a15, 16
    232c:	6016e2        	l16ui	a14, a6, 192
    232f:	e20692        	l8ui	a9, a6, 226
    2332:	11eef0        	slli	a14, a14, 1
    2335:	013947        	bltu	a9, a4, 0x233a
    2338:	0c0c      	movi.n	a12, 0
    233a:	20cce0        	or	a12, a12, a14
    233d:	00a092        	movi	a9, 0
    2340:	ba06e2        	l8ui	a14, a6, 186
    2343:	f4c0c0        	extui	a12, a12, 0, 16
    2346:	6056c2        	s16i	a12, a6, 192
    2349:	12af76        	excw
    234c:	400900        	ssr	a9
    234f:	b180c0        	sra	a8, a12
    2352:	991b      	addi.n	a9, a9, 1
    2354:	749090        	extui	a9, a9, 0, 8
    2357:	048080        	extui	a8, a8, 0, 1
    235a:	558a      	add.n	a5, a5, a8
    235c:	745050        	extui	a5, a5, 0, 8
    235f:	b910f1        	l32r	a15, 0xffff07a0
    2362:	b931c1        	l32r	a12, 0xffff0828
    2365:	07bae7        	bgeu	a10, a14, 0x2370
    2368:	312692        	l32i	a9, a6, 196
    236b:	991b      	addi.n	a9, a9, 1
    236d:	316692        	s32i	a9, a6, 196
    2370:	0273b6        	bltui	a3, 7, 0x2376
    2373:	002886        	j	0x2419
    2376:	87fa      	add.n	a8, a7, a15
    2378:	838a      	add.n	a8, a3, a8
    237a:	88ca      	add.n	a8, a8, a12
    237c:	890882        	l8ui	a8, a8, 137
    237f:	937a      	add.n	a9, a3, a7
    2381:	02b857        	bgeu	a8, a5, 0x2387
    2384:	002446        	j	0x2419
    2387:	b93281        	l32r	a8, 0xffff0850
    238a:	998a      	add.n	a9, a9, a8
    238c:	0199      	s32i.n	a9, a1, 0
    238e:	770992        	l8ui	a9, a9, 119
    2391:	11b9      	s32i.n	a11, a1, 4
    2393:	1899d7        	bne	a9, a13, 0x23af
    2396:	b929a1        	l32r	a10, 0xffff083c
    2399:	0b0c      	movi.n	a11, 0
    239b:	b1cba5        	excw
    239e:	b931c1        	l32r	a12, 0xffff0864
    23a1:	ffa0d2        	movi	a13, 255
    23a4:	11b8      	l32i.n	a11, a1, 4
    23a6:	b906a2        	l8ui	a10, a6, 185
    23a9:	ba06e2        	l8ui	a14, a6, 186
    23ac:	b910f1        	l32r	a15, 0xffff07ec
    23af:	233ea7        	bltu	a14, a10, 0x23d6
    23b2:	3126a2        	l32i	a10, a6, 196
    23b5:	392692        	l32i	a9, a6, 228
    23b8:	1a39a7        	bltu	a9, a10, 0x23d6
    23bb:	bd0682        	l8ui	a8, a6, 189
    23be:	d906e2        	l8ui	a14, a6, 217
    23c1:	c08840        	sub	a8, a8, a4
    23c4:	0e2e87        	blt	a14, a8, 0x23d6
    23c7:	bc06a2        	l8ui	a10, a6, 188
    23ca:	d80692        	l8ui	a9, a6, 216
    23cd:	23aa00        	excw
    23d0:	c0aba0        	sub	a10, a11, a10
    23d3:	42a9a7        	bge	a9, a10, 0x2419
    23d6:	b93381        	l32r	a8, 0xffff08a4
    23d9:	03ad      	mov.n	a10, a3
    23db:	be2882        	l32i	a8, a8, 0x2f8
    23de:	02bd      	mov.n	a11, a2
    23e0:	0008e0        	excw
    23e3:	b931c1        	l32r	a12, 0xffff08a8
    23e6:	ffa0d2        	movi	a13, 255
    23e9:	b910f1        	l32r	a15, 0xffff082c
    23ec:	0abd      	mov.n	a11, a10
    23ee:	2713a7        	beq	a3, a10, 0x2419
    23f1:	0198      	l32i.n	a9, a1, 0
    23f3:	770992        	l8ui	a9, a9, 119
    23f6:	1fb497        	bgeu	a4, a9, 0x2419
    23f9:	b934a1        	l32r	a10, 0xffff08cc
    23fc:	ebaa      	add.n	a14, a11, a10
    23fe:	000ee2        	l8ui	a14, a14, 0
    2401:	6e3e66        	bnei	a14, 3, 0x2473
    2404:	0d9682        	l16si	a8, a6, 26
    2407:	d8ca92        	addi	a9, a10, -40
    240a:	040992        	l8ui	a9, a9, 4
    240d:	218880        	srai	a8, a8, 8
    2410:	239900        	excw
    2413:	238800        	excw
    2416:	59a897        	bge	a8, a9, 0x2473
    2419:	4123b6        	bltui	a3, 2, 0x245e
    241c:	67fa      	add.n	a6, a7, a15
    241e:	636a      	add.n	a6, a3, a6
    2420:	66ca      	add.n	a6, a6, a12
    2422:	7f06a2        	l8ui	a10, a6, 127
    2425:	079ad7        	bne	a10, a13, 0x2430
    2428:	b929a1        	l32r	a10, 0xffff08cc
    242b:	0b0c      	movi.n	a11, 0
    242d:	b1c265        	excw
    2430:	b93381        	l32r	a8, 0xffff08fc
    2433:	03ad      	mov.n	a10, a3
    2435:	bd2882        	l32i	a8, a8, 0x2f4
    2438:	02bd      	mov.n	a11, a2
    243a:	0008e0        	excw
    243d:	0abd      	mov.n	a11, a10
    243f:	1b13a7        	beq	a3, a10, 0x245e
    2442:	7f0692        	l8ui	a9, a6, 127
    2445:	8906a2        	l8ui	a10, a6, 137
    2448:	163947        	bltu	a9, a4, 0x2462
    244b:	133a57        	bltu	a10, a5, 0x2462
    244e:	b935d1        	l32r	a13, 0xffff0924
    2451:	c3da      	add.n	a12, a3, a13
    2453:	000cc2        	l8ui	a12, a12, 0
    2456:	dbda      	add.n	a13, a11, a13
    2458:	000dd2        	l8ui	a13, a13, 0
    245b:	033cd7        	bltu	a12, a13, 0x2462
    245e:	020c      	movi.n	a2, 0
    2460:	f01d      	excw
    2462:	b93381        	l32r	a8, 0xffff0930
    2465:	02ad      	mov.n	a10, a2
    2467:	bf2882        	l32i	a8, a8, 0x2fc
    246a:	0c0c      	movi.n	a12, 0
    246c:	0008e0        	excw
    246f:	0a2d      	mov.n	a2, a10
    2471:	f01d      	excw
    2473:	b93381        	l32r	a8, 0xffff0940
    2476:	02ad      	mov.n	a10, a2
    2478:	bf2882        	l32i	a8, a8, 0x2fc
    247b:	0c0c      	movi.n	a12, 0
    247d:	0008e0        	excw
    2480:	0a2d      	mov.n	a2, a10
    2482:	f01d      	excw
    2484:	004136        	excw
    2487:	0f7257        	bbci	a2, 21, 0x249a
    248a:	b93681        	l32r	a8, 0xffff0964
    248d:	a20882        	l8ui	a8, a8, 162
    2490:	020c      	movi.n	a2, 0
    2492:	0228f6        	bgeui	a8, 2, 0x2498
    2495:	002306        	j	0x2525
    2498:	f01d      	excw
    249a:	b93791        	l32r	a9, 0xffff0978
    249d:	b91031        	l32r	a3, 0xffff08e0
    24a0:	310927        	bnone	a9, a2, 0x24d5
    24a3:	0762c7        	bbci	a2, 12, 0x24ae
    24a6:	7113b2        	l16ui	a11, a3, 226
    24a9:	bb1b      	addi.n	a11, a11, 1
    24ab:	7153b2        	s16i	a11, a3, 226
    24ae:	077207        	bbci	a2, 16, 0x24b9
    24b1:	6b13c2        	l16ui	a12, a3, 214
    24b4:	cc1b      	addi.n	a12, a12, 1
    24b6:	6b53c2        	s16i	a12, a3, 214
    24b9:	077217        	bbci	a2, 17, 0x24c4
    24bc:	6c13d2        	l16ui	a13, a3, 216
    24bf:	dd1b      	addi.n	a13, a13, 1
    24c1:	6c53d2        	s16i	a13, a3, 216
    24c4:	ffd8e5        	excw
    24c7:	b92d41        	l32r	a4, 0xffff097c
    24ca:	950c      	movi.n	a5, 9
    24cc:	591a57        	beq	a10, a5, 0x2529
    24cf:	9804f2        	l8ui	a15, a4, 152
    24d2:	531f57        	beq	a15, a5, 0x2529
    24d5:	b938a1        	l32r	a10, 0xffff09b8
    24d8:	0c6217        	bbci	a2, 1, 0x24e8
    24db:	951382        	l16ui	a8, a3, 0x12a
    24de:	190c      	movi.n	a9, 1
    24e0:	881b      	addi.n	a8, a8, 1
    24e2:	155a82        	s16i	a8, a10, 42
    24e5:	000046        	j	0x24ea
    24e8:	090c      	movi.n	a9, 0
    24ea:	2572f7        	bbci	a2, 31, 0x2513
    24ed:	9613d2        	l16ui	a13, a3, 0x12c
    24f0:	b939b1        	l32r	a11, 0xffff09d4
    24f3:	dd1b      	addi.n	a13, a13, 1
    24f5:	740bc2        	l8ui	a12, a11, 116
    24f8:	165ad2        	s16i	a13, a10, 44
    24fb:	ac1b      	addi.n	a10, a12, 1
    24fd:	74a0a0        	extui	a10, a10, 0, 8
    2500:	744ba2        	s8i	a10, a11, 116
    2503:	0c2ab6        	bltui	a10, 2, 0x2513
    2506:	076ab6        	bltui	a10, 6, 0x2511
    2509:	b929a1        	l32r	a10, 0xffff09b0
    250c:	0b0c      	movi.n	a11, 0
    250e:	b1b465        	excw
    2511:	190c      	movi.n	a9, 1
    2513:	092d      	mov.n	a2, a9
    2515:	f01d      	excw
    2517:	b93ae1        	l32r	a14, 0xffff0a00
    251a:	b792e7        	bne	a2, a14, 0x24d5
    251d:	7913f2        	l16ui	a15, a3, 242
    2520:	ff1b      	addi.n	a15, a15, 1
    2522:	7953f2        	s16i	a15, a3, 242
    2525:	120c      	movi.n	a2, 1
    2527:	f01d      	excw
    2529:	ffd2a5        	excw
    252c:	1f9a57        	bne	a10, a5, 0x254f
    252f:	7304a2        	l8ui	a10, a4, 115
    2532:	ffa082        	movi	a8, 255
    2535:	0a9a87        	bne	a10, a8, 0x2543
    2538:	b929a1        	l32r	a10, 0xffff09dc
    253b:	0b0c      	movi.n	a11, 0
    253d:	b1b165        	excw
    2540:	7304a2        	l8ui	a10, a4, 115
    2543:	b93b41        	l32r	a4, 0xffff0a30
    2546:	b04a40        	addx8	a4, a10, a4
    2549:	800442        	l8ui	a4, a4, 128
    254c:	000086        	j	0x2552
    254f:	990442        	l8ui	a4, a4, 153
    2552:	6c0382        	l8ui	a8, a3, 108
    2555:	0b2866        	bnei	a8, 2, 0x2564
    2558:	b93c91        	l32r	a9, 0xffff0a48
    255b:	3c0992        	l8ui	a9, a9, 60
    255e:	0f6926        	beqi	a9, 6, 0x2571
    2561:	0c8926        	beqi	a9, 8, 0x2571
    2564:	b92f81        	l32r	a8, 0xffff0a20
    2567:	04ad      	mov.n	a10, a4
    2569:	442882        	l32i	a8, a8, 0x110
    256c:	02bd      	mov.n	a11, a2
    256e:	0008e0        	excw
    2571:	b93d91        	l32r	a9, 0xffff0a68
    2574:	98a1a2        	movi	a10, 0x198
    2577:	c1a4a0        	mul16u	a10, a4, a10
    257a:	99aa      	add.n	a9, a9, a10
    257c:	9209a2        	l8ui	a10, a9, 146
    257f:	90aaa0        	addx2	a10, a10, a10
    2582:	b0aa30        	addx8	a10, a10, a3
    2585:	5e1aa2        	l16ui	a10, a10, 188
    2588:	6d0992        	l8ui	a9, a9, 109
    258b:	106a37        	bbci	a10, 3, 0x259f
    258e:	231966        	bnei	a9, 1, 0x25b5
    2591:	8262c7        	bbci	a2, 12, 0x2517
    2594:	7913b2        	l16ui	a11, a3, 242
    2597:	bb1b      	addi.n	a11, a11, 1
    2599:	7953b2        	s16i	a11, a3, 242
    259c:	ffe146        	j	0x2525
    259f:	c90b      	addi.n	a12, a9, -1
    25a1:	f30c56        	bnez	a12, 0x24d5
    25a4:	04dc20        	extui	a13, a2, 12, 1
    25a7:	f2ad16        	beqz	a13, 0x24d5
    25aa:	7913e2        	l16ui	a14, a3, 242
    25ad:	ee1b      	addi.n	a14, a14, 1
    25af:	7953e2        	s16i	a14, a3, 242
    25b2:	ffdbc6        	j	0x2525
    25b5:	b93e81        	l32r	a8, 0xffff0ab0
    25b8:	10f280        	and	a15, a2, a8
    25bb:	c0ff80        	sub	a15, a15, a8
    25be:	f5bf16        	beqz	a15, 0x251d
    25c1:	b93f91        	l32r	a9, 0xffff0ac0
    25c4:	c09290        	sub	a9, a2, a9
    25c7:	f0a956        	bnez	a9, 0x24d5
    25ca:	ffd3c6        	j	0x251d
    25cd:	000000        	ill
    25d0:	004136        	excw
    25d3:	b94081        	l32r	a8, 0xffff0ad4
    25d6:	222882        	l32i	a8, a8, 136
    25d9:	1a0c      	movi.n	a10, 1
    25db:	0008e0        	excw
    25de:	060a16        	beqz	a10, 0x2642
    25e1:	b942d1        	l32r	a13, 0xffff0aec
    25e4:	b910b1        	l32r	a11, 0xffff0a24
    25e7:	b94191        	l32r	a9, 0xffff0aec
    25ea:	030bb2        	l8ui	a11, a11, 3
    25ed:	4809c2        	l8ui	a12, a9, 72
    25f0:	490992        	l8ui	a9, a9, 73
    25f3:	23cc00        	excw
    25f6:	d1cca0        	mul16s	a12, a12, a10
    25f9:	239900        	excw
    25fc:	21c7c0        	srai	a12, a12, 7
    25ff:	99ca      	add.n	a9, a9, a12
    2601:	011b66        	bnei	a11, 1, 0x2606
    2604:	997b      	addi.n	a9, a9, 7
    2606:	0020c0        	memw
    2609:	b943c1        	l32r	a12, 0xffff0b18
    260c:	9f2da2        	l32i	a10, a13, 0x27c
    260f:	b944e1        	l32r	a14, 0xffff0b20
    2612:	01b980        	slli	a11, a9, 24
    2615:	10bbe0        	and	a11, a11, a14
    2618:	10aac0        	and	a10, a10, a12
    261b:	20aab0        	or	a10, a10, a11
    261e:	0020c0        	memw
    2621:	9f6da2        	s32i	a10, a13, 0x27c
    2624:	0020c0        	memw
    2627:	b94681        	l32r	a8, 0xffff0b40
    262a:	b945f1        	l32r	a15, 0xffff0b40
    262d:	b12de2        	l32i	a14, a13, 0x2c4
    2630:	11c960        	slli	a12, a9, 10
    2633:	10eef0        	and	a14, a14, a15
    2636:	10cc80        	and	a12, a12, a8
    2639:	20cce0        	or	a12, a12, a14
    263c:	0020c0        	memw
    263f:	b16dc2        	s32i	a12, a13, 0x2c4
    2642:	b92f81        	l32r	a8, 0xffff0b00
    2645:	312882        	l32i	a8, a8, 196
    2648:	6a0c      	movi.n	a10, 6
    264a:	0008e0        	excw
    264d:	f01d      	excw
    264f:	413600        	srli	a3, a0, 6
    2652:	0d5100        	excw
    2655:	82b9      	s32i.n	a11, a2, 32
    2657:	e02825        	excw
    265a:	0008      	l32i.n	a0, a0, 0
    265c:	090a56        	bnez	a10, 0x26f0
    265f:	b91d71        	l32r	a7, 0xffff0ad4
    2662:	b941a1        	l32r	a10, 0xffff0b68
    2665:	0007c2        	l8ui	a12, a7, 0
    2668:	281ab2        	l16ui	a11, a10, 80
    266b:	fec3d2        	addi	a13, a3, -2
    266e:	83bcd0        	moveqz	a11, a12, a13
    2671:	d807c2        	l8ui	a12, a7, 216
    2674:	fecbb2        	addi	a11, a11, -2
    2677:	74b0b0        	extui	a11, a11, 0, 8
    267a:	6322b0        	excw
    267d:	88c7b2        	addi	a11, a7, -120
    2680:	a09220        	addx4	a9, a2, a2
    2683:	a099a0        	addx4	a9, a9, a10
    2686:	6409a2        	l8ui	a10, a9, 100
    2689:	656c07        	bbci	a12, 0, 0x26f2
    268c:	0a6d      	mov.n	a6, a10
    268e:	b947f1        	l32r	a15, 0xffff0bac
    2691:	e30b      	addi.n	a14, a3, -1
    2693:	a0a2f0        	addx4	a10, a2, a15
    2696:	702a42        	l32i	a4, a10, 0x1c0
    2699:	1a0e16        	beqz	a14, 0x283d
    269c:	762366        	bnei	a3, 2, 0x2716
    269f:	8e2a42        	l32i	a4, a10, 0x238
    26a2:	906220        	addx2	a6, a2, a2
    26a5:	a066b0        	addx4	a6, a6, a11
    26a8:	7d0662        	l8ui	a6, a6, 125
    26ab:	0019c6        	j	0x2716
    26ae:	0020c0        	memw
    26b1:	632282        	l32i	a8, a2, 0x18c
    26b4:	10a940        	and	a10, a9, a4
    26b7:	108870        	and	a8, a8, a7
    26ba:	2088a0        	or	a8, a8, a10
    26bd:	0020c0        	memw
    26c0:	636282        	s32i	a8, a2, 0x18c
    26c3:	b942a1        	l32r	a10, 0xffff0bcc
    26c6:	df2bd2        	l32i	a13, a11, 0x37c
    26c9:	0020c0        	memw
    26cc:	6462d2        	s32i	a13, a2, 0x190
    26cf:	e02bc2        	l32i	a12, a11, 0x380
    26d2:	0020c0        	memw
    26d5:	6562c2        	s32i	a12, a2, 0x194
    26d8:	e12b92        	l32i	a9, a11, 0x384
    26db:	0020c0        	memw
    26de:	666292        	s32i	a9, a2, 0x198
    26e1:	0b46f6        	bgeui	a6, 4, 0x26f0
    26e4:	b914f1        	l32r	a15, 0xffff0b34
    26e7:	2a1fe2        	l16ui	a14, a15, 84
    26ea:	b94dd1        	l32r	a13, 0xffff0c20
    26ed:	79ee07        	bbsi	a14, 0, 0x276a
    26f0:	f01d      	excw
    26f2:	162942        	l32i	a4, a9, 88
    26f5:	0a6d      	mov.n	a6, a10
    26f7:	111326        	beqi	a3, 1, 0x270c
    26fa:	182366        	bnei	a3, 2, 0x2716
    26fd:	906220        	addx2	a6, a2, a2
    2700:	a066b0        	addx4	a6, a6, a11
    2703:	202642        	l32i	a4, a6, 128
    2706:	7d0662        	l8ui	a6, a6, 125
    2709:	000246        	j	0x2716
    270c:	1729a2        	l32i	a10, a9, 92
    270f:	3a8c      	beqz.n	a10, 0x2716
    2711:	0a4d      	mov.n	a4, a10
    2713:	650962        	l8ui	a6, a9, 101
    2716:	64cc      	bnez.n	a4, 0x2720
    2718:	b929a1        	l32r	a10, 0xffff0bbc
    271b:	0b0c      	movi.n	a11, 0
    271d:	b19365        	excw
    2720:	b942a1        	l32r	a10, 0xffff0c28
    2723:	0020c0        	memw
    2726:	956a42        	s32i	a4, a10, 0x254
    2729:	780782        	l8ui	a8, a7, 120
    272c:	b93991        	l32r	a9, 0xffff0c10
    272f:	ae6807        	bbci	a8, 0, 0x26e1
    2732:	ac0992        	l8ui	a9, a9, 172
    2735:	fa8916        	beqz	a9, 0x26e1
    2738:	b94921        	l32r	a2, 0xffff0c5c
    273b:	b94831        	l32r	a3, 0xffff0c5c
    273e:	148d40        	extui	a8, a4, 13, 2
    2741:	1188c0        	slli	a8, a8, 4
    2744:	338a      	add.n	a3, a3, a8
    2746:	7e2392        	l32i	a9, a3, 0x1f8
    2749:	0020c0        	memw
    274c:	282582        	l32i	a8, a5, 160
    274f:	5f6292        	s32i	a9, a2, 0x17c
    2752:	0008e0        	excw
    2755:	b94a71        	l32r	a7, 0xffff0c80
    2758:	b94b41        	l32r	a4, 0xffff0c84
    275b:	7f2392        	l32i	a9, a3, 0x1fc
    275e:	070a56        	bnez	a10, 0x27d2
    2761:	0020c0        	memw
    2764:	606292        	s32i	a9, a2, 0x180
    2767:	001f06        	j	0x27e7
    276a:	b94ce1        	l32r	a14, 0xffff0c9c
    276d:	0020c0        	memw
    2770:	982ac2        	l32i	a12, a10, 0x260
    2773:	d8cf92        	addi	a9, a15, -40
    2776:	a09690        	addx4	a9, a6, a9
    2779:	10ccd0        	and	a12, a12, a13
    277c:	8009b2        	l8ui	a11, a9, 128
    277f:	7e0982        	l8ui	a8, a9, 126
    2782:	23bb00        	excw
    2785:	01bbe0        	slli	a11, a11, 18
    2788:	238800        	excw
    278b:	10bbe0        	and	a11, a11, a14
    278e:	20bbc0        	or	a11, a11, a12
    2791:	00a1c2        	movi	a12, 0x100
    2794:	a088c0        	addx4	a8, a8, a12
    2797:	948080        	extui	a8, a8, 0, 10
    279a:	20bb80        	or	a11, a11, a8
    279d:	0020c0        	memw
    27a0:	986ab2        	s32i	a11, a10, 0x260
    27a3:	0020c0        	memw
    27a6:	7f09b2        	l8ui	a11, a9, 127
    27a9:	810992        	l8ui	a9, a9, 129
    27ac:	23bb00        	excw
    27af:	239900        	excw
    27b2:	a0bbc0        	addx4	a11, a11, a12
    27b5:	94b0b0        	extui	a11, a11, 0, 10
    27b8:	992ac2        	l32i	a12, a10, 0x264
    27bb:	0199e0        	slli	a9, a9, 18
    27be:	1099e0        	and	a9, a9, a14
    27c1:	10ccd0        	and	a12, a12, a13
    27c4:	2099c0        	or	a9, a9, a12
    27c7:	2099b0        	or	a9, a9, a11
    27ca:	0020c0        	memw
    27cd:	996a92        	s32i	a9, a10, 0x264
    27d0:	f01d      	excw
    27d2:	0020c0        	memw
    27d5:	6022c2        	l32i	a12, a2, 0x180
    27d8:	10b940        	and	a11, a9, a4
    27db:	10cc70        	and	a12, a12, a7
    27de:	20bbc0        	or	a11, a11, a12
    27e1:	0020c0        	memw
    27e4:	6062b2        	s32i	a11, a2, 0x180
    27e7:	802392        	l32i	a9, a3, 0x200
    27ea:	0020c0        	memw
    27ed:	282582        	l32i	a8, a5, 160
    27f0:	616292        	s32i	a9, a2, 0x184
    27f3:	0008e0        	excw
    27f6:	812392        	l32i	a9, a3, 0x204
    27f9:	7acc      	bnez.n	a10, 0x2804
    27fb:	0020c0        	memw
    27fe:	626292        	s32i	a9, a2, 0x188
    2801:	000806        	j	0x2825
    2804:	0020c0        	memw
    2807:	b94fd1        	l32r	a13, 0xffff0d44
    280a:	b94eb1        	l32r	a11, 0xffff0d44
    280d:	6222c2        	l32i	a12, a2, 0x188
    2810:	10b9b0        	and	a11, a9, a11
    2813:	05c4c0        	extui	a12, a12, 20, 1
    2816:	01ccc0        	slli	a12, a12, 20
    2819:	10ccd0        	and	a12, a12, a13
    281c:	20bbc0        	or	a11, a11, a12
    281f:	0020c0        	memw
    2822:	6262b2        	s32i	a11, a2, 0x188
    2825:	282582        	l32i	a8, a5, 160
    2828:	0008e0        	excw
    282b:	b92cb1        	l32r	a11, 0xffff0cdc
    282e:	de2b92        	l32i	a9, a11, 0x378
    2831:	e79a56        	bnez	a10, 0x26ae
    2834:	0020c0        	memw
    2837:	636292        	s32i	a9, a2, 0x18c
    283a:	ffa146        	j	0x26c3
    283d:	1729b2        	l32i	a11, a9, 92
    2840:	ed2b16        	beqz	a11, 0x2716
    2843:	7f2a42        	l32i	a4, a10, 0x1fc
    2846:	650962        	l8ui	a6, a9, 101
    2849:	ffb246        	j	0x2716
    284c:	004136        	excw
    284f:	030c      	movi.n	a3, 0
    2851:	b95041        	l32r	a4, 0xffff0d94
    2854:	077c      	movi.n	a7, -16
    2856:	03e650        	rsr.ps	a5
    2859:	2a0c      	movi.n	a10, 2
    285b:	349050        	extui	a9, a5, 0, 4
    285e:	022a97        	blt	a10, a9, 0x2864
    2861:	006250        	rsil	a5, 2
    2864:	0020c0        	memw
    2867:	862422        	l32i	a2, a4, 0x218
    286a:	348020        	extui	a8, a2, 0, 4
    286d:	e8cc      	bnez.n	a8, 0x287f
    286f:	230c      	movi.n	a3, 2
    2871:	102270        	and	a2, a2, a7
    2874:	202230        	or	a2, a2, a3
    2877:	130c      	movi.n	a3, 1
    2879:	0020c0        	memw
    287c:	866422        	s32i	a2, a4, 0x218
    287f:	b95181        	l32r	a8, 0xffff0dc4
    2882:	b93961        	l32r	a6, 0xffff0d68
    2885:	0888      	l32i.n	a8, a8, 0
    2887:	ac0662        	l8ui	a6, a6, 172
    288a:	0008e0        	excw
    288d:	b91091        	l32r	a9, 0xffff0cd0
    2890:	a90992        	l8ui	a9, a9, 169
    2893:	1e3966        	bnei	a9, 3, 0x28b5
    2896:	b6dc      	bnez.n	a6, 0x28b5
    2898:	b94061        	l32r	a6, 0xffff0d98
    289b:	222682        	l32i	a8, a6, 136
    289e:	1a0c      	movi.n	a10, 1
    28a0:	0008e0        	excw
    28a3:	232682        	l32i	a8, a6, 140
    28a6:	0008e0        	excw
    28a9:	080a26        	beqi	a10, -1, 0x28b5
    28ac:	b93381        	l32r	a8, 0xffff0d78
    28af:	cc2882        	l32i	a8, a8, 0x330
    28b2:	0008e0        	excw
    28b5:	738c      	beqz.n	a3, 0x28c0
    28b7:	109270        	and	a9, a2, a7
    28ba:	0020c0        	memw
    28bd:	866492        	s32i	a9, a4, 0x218
    28c0:	13e650        	wsr.ps	a5
    28c3:	002010        	rsync
    28c6:	f01d      	excw
    28c8:	004136        	excw
    28cb:	190c      	movi.n	a9, 1
    28cd:	020c      	movi.n	a2, 0
    28cf:	b910a1        	l32r	a10, 0xffff0d10
    28d2:	b95181        	l32r	a8, 0xffff0e18
    28d5:	030aa2        	l8ui	a10, a10, 3
    28d8:	4888      	l32i.n	a8, a8, 16
    28da:	aa0b      	addi.n	a10, a10, -1
    28dc:	8329a0        	moveqz	a2, a9, a10
    28df:	0008e0        	excw
    28e2:	b942c1        	l32r	a12, 0xffff0dec
    28e5:	0020c0        	memw
    28e8:	9e2c82        	l32i	a8, a12, 0x278
    28eb:	b952b1        	l32r	a11, 0xffff0e34
    28ee:	259480        	extui	a9, a8, 20, 3
    28f1:	11a9f0        	slli	a10, a9, 1
    28f4:	419190        	srli	a9, a9, 1
    28f7:	839a20        	moveqz	a9, a10, a2
    28fa:	b953a1        	l32r	a10, 0xffff0e48
    28fd:	0199c0        	slli	a9, a9, 20
    2900:	1099b0        	and	a9, a9, a11
    2903:	1088a0        	and	a8, a8, a10
    2906:	208890        	or	a8, a8, a9
    2909:	0020c0        	memw
    290c:	9e6c82        	s32i	a8, a12, 0x278
    290f:	0020c0        	memw
    2912:	9f2ce2        	l32i	a14, a12, 0x27c
    2915:	b95491        	l32r	a9, 0xffff0e68
    2918:	74ffe0        	extui	a15, a14, 15, 8
    291b:	8f3b      	addi.n	a8, a15, 3
    291d:	fdcff2        	addi	a15, a15, -3
    2920:	83f820        	moveqz	a15, a8, a2
    2923:	b95581        	l32r	a8, 0xffff0e78
    2926:	11ff10        	slli	a15, a15, 15
    2929:	10ff90        	and	a15, a15, a9
    292c:	10ee80        	and	a14, a14, a8
    292f:	20eef0        	or	a14, a14, a15
    2932:	b94491        	l32r	a9, 0xffff0e44
    2935:	75f8e0        	extui	a15, a14, 24, 8
    2938:	f9cf82        	addi	a8, a15, -7
    293b:	ff7b      	addi.n	a15, a15, 7
    293d:	83f820        	moveqz	a15, a8, a2
    2940:	b94381        	l32r	a8, 0xffff0e4c
    2943:	01ff80        	slli	a15, a15, 24
    2946:	10ff90        	and	a15, a15, a9
    2949:	10ee80        	and	a14, a14, a8
    294c:	20eef0        	or	a14, a14, a15
    294f:	0020c0        	memw
    2952:	9f6ce2        	s32i	a14, a12, 0x27c
    2955:	0020c0        	memw
    2958:	a22cb2        	l32i	a11, a12, 0x288
    295b:	b956f1        	l32r	a15, 0xffff0eb4
    295e:	64d7b0        	extui	a13, a11, 7, 7
    2961:	facde2        	addi	a14, a13, -6
    2964:	dd6b      	addi.n	a13, a13, 6
    2966:	83de20        	moveqz	a13, a14, a2
    2969:	b957e1        	l32r	a14, 0xffff0ec8
    296c:	11dd90        	slli	a13, a13, 7
    296f:	10ddf0        	and	a13, a13, a15
    2972:	10bbe0        	and	a11, a11, a14
    2975:	20bbd0        	or	a11, a11, a13
    2978:	64d0b0        	extui	a13, a11, 0, 7
    297b:	facde2        	addi	a14, a13, -6
    297e:	dd6b      	addi.n	a13, a13, 6
    2980:	83de20        	moveqz	a13, a14, a2
    2983:	80afe2        	movi	a14, -128
    2986:	64d0d0        	extui	a13, a13, 0, 7
    2989:	10bbe0        	and	a11, a11, a14
    298c:	20bbd0        	or	a11, a11, a13
    298f:	0020c0        	memw
    2992:	a26cb2        	s32i	a11, a12, 0x288
    2995:	f01d      	excw
    2997:	813600        	src	a3, a6, a0
    299a:	1b2100        	excw
    299d:	31b9      	s32i.n	a11, a1, 12
    299f:	1f          	.byte 0x1f
    29a0:	b1b9      	s32i.n	a11, a1, 44
    29a2:	b958      	l32i.n	a5, a9, 44
    29a4:	80c342        	addi	a4, a3, -128
    29a7:	0020c0        	memw
    29aa:	a12bb2        	l32i	a11, a11, 0x284
    29ad:	a80492        	l8ui	a9, a4, 168
    29b0:	b3b9      	s32i.n	a11, a3, 44
    29b2:	048690        	extui	a8, a9, 6, 1
    29b5:	0e7856        	bnez	a8, 0x2aa0
    29b8:	b91051        	l32r	a5, 0xffff0df8
    29bb:	0005c2        	l8ui	a12, a5, 0
    29be:	f6ccc2        	addi	a12, a12, -10
    29c1:	0dbc16        	beqz	a12, 0x2aa0
    29c4:	04d190        	extui	a13, a9, 1, 1
    29c7:	0c1d16        	beqz	a13, 0x2a8c
    29ca:	a52282        	l32i	a8, a2, 0x294
    29cd:	0008e0        	excw
    29d0:	a80492        	l8ui	a9, a4, 168
    29d3:	166947        	bbci	a9, 4, 0x29ed
    29d6:	992282        	l32i	a8, a2, 0x264
    29d9:	0a0c      	movi.n	a10, 0
    29db:	0008e0        	excw
    29de:	a80492        	l8ui	a9, a4, 168
    29e1:	08e927        	bbsi	a9, 2, 0x29ed
    29e4:	efa0b2        	movi	a11, 239
    29e7:	10b9b0        	and	a11, a9, a11
    29ea:	2843b2        	s8i	a11, a3, 40
    29ed:	b405c2        	l8ui	a12, a5, 180
    29f0:	0d6c07        	bbci	a12, 0, 0x2a01
    29f3:	a22282        	l32i	a8, a2, 0x288
    29f6:	0008e0        	excw
    29f9:	4a8c      	beqz.n	a10, 0x2a01
    29fb:	a72282        	l32i	a8, a2, 0x29c
    29fe:	0008e0        	excw
    2a01:	942282        	l32i	a8, a2, 0x250
    2a04:	0008e0        	excw
    2a07:	972282        	l32i	a8, a2, 0x25c
    2a0a:	0008e0        	excw
    2a0d:	922282        	l32i	a8, a2, 0x248
    2a10:	01ad      	mov.n	a10, a1
    2a12:	0008e0        	excw
    2a15:	0a4d      	mov.n	a4, a10
    2a17:	952282        	l32i	a8, a2, 0x254
    2a1a:	01ad      	mov.n	a10, a1
    2a1c:	0008e0        	excw
    2a1f:	962282        	l32i	a8, a2, 0x258
    2a22:	a18b      	addi.n	a10, a1, 8
    2a24:	0008e0        	excw
    2a27:	0c0c      	movi.n	a12, 0
    2a29:	0a0c      	movi.n	a10, 0
    2a2b:	b959f1        	l32r	a15, 0xffff0f90
    2a2e:	d18b      	addi.n	a13, a1, 8
    2a30:	090c      	movi.n	a9, 0
    2a32:	bcda      	add.n	a11, a12, a13
    2a34:	8cfa      	add.n	a8, a12, a15
    2a36:	800882        	l8ui	a8, a8, 128
    2a39:	000bb2        	l8ui	a11, a11, 0
    2a3c:	08a0e2        	movi	a14, 8
    2a3f:	30bb80        	xor	a11, a11, a8
    2a42:	74b0b0        	extui	a11, a11, 0, 8
    2a45:	4cae76        	excw
    2a48:	400900        	ssr	a9
    2a4b:	b1e0b0        	sra	a14, a11
    2a4e:	3c6e07        	bbci	a14, 0, 0x2a8e
    2a51:	aa1b      	addi.n	a10, a10, 1
    2a53:	393ab6        	bltui	a10, 3, 0x2a90
    2a56:	9a2282        	l32i	a8, a2, 0x268
    2a59:	4a0c      	movi.n	a10, 4
    2a5b:	0008e0        	excw
    2a5e:	9d2282        	l32i	a8, a2, 0x274
    2a61:	a18b      	addi.n	a10, a1, 8
    2a63:	0008e0        	excw
    2a66:	b93851        	l32r	a5, 0xffff0f48
    2a69:	0b24f6        	bgeui	a4, 2, 0x2a78
    2a6c:	b94191        	l32r	a9, 0xffff0f70
    2a6f:	ee15a2        	l16ui	a10, a5, 0x1dc
    2a72:	ef1992        	l16ui	a9, a9, 0x1de
    2a75:	0ab9a7        	bgeu	a9, a10, 0x2a83
    2a78:	992282        	l32i	a8, a2, 0x264
    2a7b:	0a0c      	movi.n	a10, 0
    2a7d:	0008e0        	excw
    2a80:	ee15a2        	l16ui	a10, a5, 0x1dc
    2a83:	a62282        	l32i	a8, a2, 0x298
    2a86:	6f53a2        	s16i	a10, a3, 222
    2a89:	0008e0        	excw
    2a8c:	f01d      	excw
    2a8e:	0a0c      	movi.n	a10, 0
    2a90:	991b      	addi.n	a9, a9, 1
    2a92:	749090        	extui	a9, a9, 0, 8
    2a95:	cc1b      	addi.n	a12, a12, 1
    2a97:	74c0c0        	extui	a12, a12, 0, 8
    2a9a:	929c66        	bnei	a12, 10, 0x2a30
    2a9d:	fff146        	j	0x2a66
    2aa0:	992282        	l32i	a8, a2, 0x264
    2aa3:	0a0c      	movi.n	a10, 0
    2aa5:	0008e0        	excw
    2aa8:	f01d      	excw
    2aaa:	360000        	excw
    2aad:	e10041        	l32r	a4, 0xffffaeb0
    2ab0:	b92c      	movi.n	a9, 43
    2ab2:	090c      	movi.n	a9, 0
    2ab4:	b02ee2        	l32i	a14, a14, 0x2c0
    2ab7:	0d0c      	movi.n	a13, 0
    2ab9:	ee9c      	beqz.n	a14, 0x2adb
    2abb:	b95ac1        	l32r	a12, 0xffff1024
    2abe:	169e76        	excw
    2ac1:	98a1f2        	movi	a15, 0x198
    2ac4:	c1f9f0        	mul16u	a15, a9, a15
    2ac7:	fcfa      	add.n	a15, a12, a15
    2ac9:	800ff2        	l8ui	a15, a15, 128
    2acc:	033f66        	bnei	a15, 3, 0x2ad3
    2acf:	dd1b      	addi.n	a13, a13, 1
    2ad1:	09ed      	mov.n	a14, a9
    2ad3:	991b      	addi.n	a9, a9, 1
    2ad5:	749090        	extui	a9, a9, 0, 8
    2ad8:	000046        	j	0x2add
    2adb:	0d0c      	movi.n	a13, 0
    2add:	241d66        	bnei	a13, 1, 0x2b05
    2ae0:	b95b91        	l32r	a9, 0xffff104c
    2ae3:	98a1a2        	movi	a10, 0x198
    2ae6:	c1aea0        	mul16u	a10, a14, a10
    2ae9:	99aa      	add.n	a9, a9, a10
    2aeb:	7f09a2        	l8ui	a10, a9, 127
    2aee:	8009b2        	l8ui	a11, a9, 128
    2af1:	101a26        	beqi	a10, 1, 0x2b05
    2af4:	0d1b26        	beqi	a11, 1, 0x2b05
    2af7:	b936c1        	l32r	a12, 0xffff0fd0
    2afa:	4e0cc2        	l8ui	a12, a12, 78
    2afd:	dca722        	movi	a2, 0x7dc
    2b00:	116c17        	bbci	a12, 1, 0x2b15
    2b03:	f01d      	excw
    2b05:	b95181        	l32r	a8, 0xffff104c
    2b08:	02ad      	mov.n	a10, a2
    2b0a:	5888      	l32i.n	a8, a8, 20
    2b0c:	03bd      	mov.n	a11, a3
    2b0e:	0008e0        	excw
    2b11:	0a2d      	mov.n	a2, a10
    2b13:	f01d      	excw
    2b15:	eea722        	movi	a2, 0x7ee
    2b18:	f01d      	excw
    2b1a:	360000        	excw
    2b1d:	2900c1        	l32r	a12, 0xfffccf20
    2b20:	47c1a1        	l32r	a10, 0xfffd4a24
    2b23:	d1b9      	s32i.n	a11, a1, 52
    2b25:	b95c      	movi.n	a9, 91
    2b27:	b91d41        	l32r	a4, 0xffff0f9c
    2b2a:	81afe2        	movi	a14, -127
    2b2d:	d904f2        	l8ui	a15, a4, 217
    2b30:	d40442        	l8ui	a4, a4, 212
    2b33:	23ff00        	excw
    2b36:	14b340        	extui	a11, a4, 3, 2
    2b39:	3612e7        	beq	a2, a14, 0x2b73
    2b3c:	8fab      	addi.n	a8, a15, 10
    2b3e:	05a287        	bge	a2, a8, 0x2b47
    2b41:	f6cf92        	addi	a9, a15, -10
    2b44:	2b2927        	blt	a9, a2, 0x2b73
    2b47:	b91df1        	l32r	a15, 0xffff0fbc
    2b4a:	d80ff2        	l8ui	a15, a15, 216
    2b4d:	0480f0        	extui	a8, a15, 0, 1
    2b50:	200816        	beqz	a8, 0x2d54
    2b53:	b941d1        	l32r	a13, 0xffff1058
    2b56:	070c      	movi.n	a7, 0
    2b58:	281dd2        	l16ui	a13, a13, 80
    2b5b:	2494f0        	extui	a9, a15, 4, 3
    2b5e:	fecdd2        	addi	a13, a13, -2
    2b61:	74d0d0        	extui	a13, a13, 0, 8
    2b64:	746f77        	bbci	a15, 7, 0x2bdc
    2b67:	608090        	neg	a8, a9
    2b6a:	238800        	excw
    2b6d:	7189      	s32i.n	a8, a1, 28
    2b6f:	001ac6        	j	0x2bde
    2b72:	419100        	srli	a9, a0, 1
    2b75:	b1b9      	s32i.n	a11, a1, 44
    2b77:	92b941        	l32r	a4, 0xfffe765c
    2b7a:	2819      	s32i.n	a1, a8, 8
    2b7c:	b94131        	l32r	a3, 0xffff1080
    2b7f:	fec992        	addi	a9, a9, -2
    2b82:	749090        	extui	a9, a9, 0, 8
    2b85:	a91b      	addi.n	a10, a9, 1
    2b87:	0c9d      	mov.n	a9, a12
    2b89:	10aa76        	excw
    2b8c:	172b82        	l32i	a8, a11, 92
    2b8f:	162ba2        	l32i	a10, a11, 88
    2b92:	14cbb2        	addi	a11, a11, 20
    2b95:	7069a2        	s32i	a10, a9, 0x1c0
    2b98:	7f6982        	s32i	a8, a9, 0x1fc
    2b9b:	994b      	addi.n	a9, a9, 4
    2b9d:	0c9d      	mov.n	a9, a12
    2b9f:	a188      	l32i.n	a8, a1, 40
    2ba1:	b91db1        	l32r	a11, 0xffff1018
    2ba4:	7fc882        	addi	a8, a8, 127
    2ba7:	000bb2        	l8ui	a11, a11, 0
    2baa:	83fe80        	moveqz	a15, a14, a8
    2bad:	fecbb2        	addi	a11, a11, -2
    2bb0:	74b0b0        	extui	a11, a11, 0, 8
    2bb3:	bb1b      	addi.n	a11, a11, 1
    2bb5:	09ab76        	excw
    2bb8:	6223c2        	l32i	a12, a3, 0x188
    2bbb:	8e69c2        	s32i	a12, a9, 0x238
    2bbe:	33cb      	addi.n	a3, a3, 12
    2bc0:	994b      	addi.n	a9, a9, 4
    2bc2:	2e4df2        	s8i	a15, a13, 46
    2bc5:	116407        	bbci	a4, 0, 0x2bda
    2bc8:	a198      	l32i.n	a9, a1, 40
    2bca:	0c19e7        	beq	a9, a14, 0x2bda
    2bcd:	b92f81        	l32r	a8, 0xffff108c
    2bd0:	6a0c      	movi.n	a10, 6
    2bd2:	322882        	l32i	a8, a8, 200
    2bd5:	8b1c      	movi.n	a11, 24
    2bd7:	0008e0        	excw
    2bda:	f01d      	excw
    2bdc:	7199      	s32i.n	a9, a1, 28
    2bde:	b95d91        	l32r	a9, 0xffff1154
    2be1:	178d96        	bltz	a13, 0x2d5d
    2be4:	050c      	movi.n	a5, 0
    2be6:	b94131        	l32r	a3, 0xffff10ec
    2be9:	0c4d      	mov.n	a4, a12
    2beb:	b1b9      	s32i.n	a11, a1, 44
    2bed:	8199      	s32i.n	a9, a1, 32
    2bef:	abcb      	addi.n	a10, a11, 12
    2bf1:	91a9      	s32i.n	a10, a1, 36
    2bf3:	a1a8      	l32i.n	a10, a1, 40
    2bf5:	81d8      	l32i.n	a13, a1, 32
    2bf7:	05ed      	mov.n	a14, a5
    2bf9:	3093c2        	l16si	a12, a3, 96
    2bfc:	b91d61        	l32r	a6, 0xffff1070
    2bff:	10c122        	addi	a2, a1, 16
    2c02:	d906b2        	l8ui	a11, a6, 217
    2c05:	0129      	s32i.n	a2, a1, 0
    2c07:	b93321        	l32r	a2, 0xffff10d4
    2c0a:	0f0c      	movi.n	a15, 0
    2c0c:	cd2282        	l32i	a8, a2, 0x334
    2c0f:	23bb00        	excw
    2c12:	0008e0        	excw
    2c15:	0abd      	mov.n	a11, a10
    2c17:	7188      	l32i.n	a8, a1, 28
    2c19:	91c8      	l32i.n	a12, a1, 36
    2c1b:	13aa87        	bge	a10, a8, 0x2c32
    2c1e:	b94191        	l32r	a9, 0xffff1124
    2c21:	281992        	l16ui	a9, a9, 80
    2c24:	1b2362        	l32i	a6, a3, 108
    2c27:	fec992        	addi	a9, a9, -2
    2c2a:	749090        	extui	a9, a9, 0, 8
    2c2d:	079797        	bne	a7, a9, 0x2c38
    2c30:	46cc      	bnez.n	a6, 0x2c38
    2c32:	162362        	l32i	a6, a3, 88
    2c35:	000186        	j	0x2c3f
    2c38:	0891b2        	l16si	a11, a1, 16
    2c3b:	bbaa      	add.n	a11, a11, a10
    2c3d:	bb8b      	addi.n	a11, a11, 8
    2c3f:	348560        	extui	a8, a6, 5, 4
    2c42:	242060        	extui	a2, a6, 0, 3
    2c45:	902220        	addx2	a2, a2, a2
    2c48:	a02280        	addx4	a2, a2, a8
    2c4b:	2b2a      	add.n	a2, a11, a2
    2c4d:	16ac27        	bge	a12, a2, 0x2c67
    2c50:	02ad      	mov.n	a10, a2
    2c52:	cb0c      	movi.n	a11, 12
    2c54:	0a8365        	excw
    2c57:	e1a9      	s32i.n	a10, a1, 56
    2c59:	cb0c      	movi.n	a11, 12
    2c5b:	02ad      	mov.n	a10, a2
    2c5d:	0a8965        	excw
    2c60:	0a2d      	mov.n	a2, a10
    2c62:	e198      	l32i.n	a9, a1, 56
    2c64:	000046        	j	0x2c69
    2c67:	090c      	movi.n	a9, 0
    2c69:	172382        	l32i	a8, a3, 92
    2c6c:	24a090        	extui	a10, a9, 0, 3
    2c6f:	e0a1d2        	movi	a13, 0x1e0
    2c72:	11b2b0        	slli	a11, a2, 5
    2c75:	18aec2        	movi	a12, 0xfffffe18
    2c78:	10c6c0        	and	a12, a6, a12
    2c7b:	10bbd0        	and	a11, a11, a13
    2c7e:	20bbc0        	or	a11, a11, a12
    2c81:	20aab0        	or	a10, a10, a11
    2c84:	7064a2        	s32i	a10, a4, 0x1c0
    2c87:	095816        	beqz	a8, 0x2d20
    2c8a:	b94121        	l32r	a2, 0xffff1190
    2c8d:	a1a8      	l32i.n	a10, a1, 40
    2c8f:	81d8      	l32i.n	a13, a1, 32
    2c91:	05ed      	mov.n	a14, a5
    2c93:	1f0c      	movi.n	a15, 1
    2c95:	b93381        	l32r	a8, 0xffff1164
    2c98:	3193c2        	l16si	a12, a3, 98
    2c9b:	b91db1        	l32r	a11, 0xffff1110
    2c9e:	10c192        	addi	a9, a1, 16
    2ca1:	d90bb2        	l8ui	a11, a11, 217
    2ca4:	0199      	s32i.n	a9, a1, 0
    2ca6:	cd2882        	l32i	a8, a8, 0x334
    2ca9:	23bb00        	excw
    2cac:	0008e0        	excw
    2caf:	0abd      	mov.n	a11, a10
    2cb1:	281262        	l16ui	a6, a2, 80
    2cb4:	71c8      	l32i.n	a12, a1, 28
    2cb6:	fec662        	addi	a6, a6, -2
    2cb9:	746060        	extui	a6, a6, 0, 8
    2cbc:	07aac7        	bge	a10, a12, 0x2cc7
    2cbf:	1c2322        	l32i	a2, a3, 112
    2cc2:	079767        	bne	a7, a6, 0x2ccd
    2cc5:	42cc      	bnez.n	a2, 0x2ccd
    2cc7:	172322        	l32i	a2, a3, 92
    2cca:	000186        	j	0x2cd4
    2ccd:	0891b2        	l16si	a11, a1, 16
    2cd0:	bbaa      	add.n	a11, a11, a10
    2cd2:	bb8b      	addi.n	a11, a11, 8
    2cd4:	91c8      	l32i.n	a12, a1, 36
    2cd6:	34e520        	extui	a14, a2, 5, 4
    2cd9:	24d020        	extui	a13, a2, 0, 3
    2cdc:	90ddd0        	addx2	a13, a13, a13
    2cdf:	a0dde0        	addx4	a13, a13, a14
    2ce2:	bbda      	add.n	a11, a11, a13
    2ce4:	61b9      	s32i.n	a11, a1, 24
    2ce6:	14acb7        	bge	a12, a11, 0x2cfe
    2ce9:	0bad      	mov.n	a10, a11
    2ceb:	cb0c      	movi.n	a11, 12
    2ced:	0a79e5        	excw
    2cf0:	d1a9      	s32i.n	a10, a1, 52
    2cf2:	cb0c      	movi.n	a11, 12
    2cf4:	61a8      	l32i.n	a10, a1, 24
    2cf6:	0a7fe5        	excw
    2cf9:	d198      	l32i.n	a9, a1, 52
    2cfb:	0000c6        	j	0x2d02
    2cfe:	090c      	movi.n	a9, 0
    2d00:	0bad      	mov.n	a10, a11
    2d02:	24e090        	extui	a14, a9, 0, 3
    2d05:	e0a1b2        	movi	a11, 0x1e0
    2d08:	11fab0        	slli	a15, a10, 5
    2d0b:	18ae82        	movi	a8, 0xfffffe18
    2d0e:	108280        	and	a8, a2, a8
    2d11:	10ffb0        	and	a15, a15, a11
    2d14:	20ff80        	or	a15, a15, a8
    2d17:	20eef0        	or	a14, a14, a15
    2d1a:	7f64e2        	s32i	a14, a4, 0x1fc
    2d1d:	0002c6        	j	0x2d2c
    2d20:	b94161        	l32r	a6, 0xffff1224
    2d23:	281662        	l16ui	a6, a6, 80
    2d26:	fec662        	addi	a6, a6, -2
    2d29:	746060        	extui	a6, a6, 0, 8
    2d2c:	444b      	addi.n	a4, a4, 4
    2d2e:	14c332        	addi	a3, a3, 20
    2d31:	771b      	addi.n	a7, a7, 1
    2d33:	551b      	addi.n	a5, a5, 1
    2d35:	235580        	excw
    2d38:	022677        	blt	a6, a7, 0x2d3e
    2d3b:	ffad06        	j	0x2bf3
    2d3e:	b1b8      	l32i.n	a11, a1, 44
    2d40:	b947c1        	l32r	a12, 0xffff125c
    2d43:	81afe2        	movi	a14, -127
    2d46:	b95d91        	l32r	a9, 0xffff12bc
    2d49:	000406        	j	0x2d5d
    2d4c:	b95c91        	l32r	a9, 0xffff12bc
    2d4f:	a188      	l32i.n	a8, a1, 40
    2d51:	2e4982        	s8i	a8, a9, 46
    2d54:	b91d41        	l32r	a4, 0xffff11c8
    2d57:	d40442        	l8ui	a4, a4, 212
    2d5a:	ff99c6        	j	0x2bc5
    2d5d:	b91d81        	l32r	a8, 0xffff11d4
    2d60:	000882        	l8ui	a8, a8, 0
    2d63:	060c      	movi.n	a6, 0
    2d65:	fec882        	addi	a8, a8, -2
    2d68:	748080        	extui	a8, a8, 0, 8
    2d6b:	fdd896        	bltz	a8, 0x2d4c
    2d6e:	040c      	movi.n	a4, 0
    2d70:	b94131        	l32r	a3, 0xffff1274
    2d73:	51c9      	s32i.n	a12, a1, 20
    2d75:	8199      	s32i.n	a9, a1, 32
    2d77:	abcb      	addi.n	a10, a11, 12
    2d79:	91a9      	s32i.n	a10, a1, 36
    2d7b:	a1a8      	l32i.n	a10, a1, 40
    2d7d:	81d8      	l32i.n	a13, a1, 32
    2d7f:	04ed      	mov.n	a14, a4
    2d81:	1f0c      	movi.n	a15, 1
    2d83:	b93381        	l32r	a8, 0xffff1250
    2d86:	c693c2        	l16si	a12, a3, 0x18c
    2d89:	b91db1        	l32r	a11, 0xffff1200
    2d8c:	10c192        	addi	a9, a1, 16
    2d8f:	d90bb2        	l8ui	a11, a11, 217
    2d92:	0199      	s32i.n	a9, a1, 0
    2d94:	cd2882        	l32i	a8, a8, 0x334
    2d97:	23bb00        	excw
    2d9a:	0008e0        	excw
    2d9d:	b91d71        	l32r	a7, 0xffff1214
    2da0:	0abd      	mov.n	a11, a10
    2da2:	000772        	l8ui	a7, a7, 0
    2da5:	71c8      	l32i.n	a12, a1, 28
    2da7:	fec772        	addi	a7, a7, -2
    2daa:	747070        	extui	a7, a7, 0, 8
    2dad:	07aac7        	bge	a10, a12, 0x2db8
    2db0:	652352        	l32i	a5, a3, 0x194
    2db3:	079677        	bne	a6, a7, 0x2dbe
    2db6:	45cc      	bnez.n	a5, 0x2dbe
    2db8:	622352        	l32i	a5, a3, 0x188
    2dbb:	000186        	j	0x2dc5
    2dbe:	0891b2        	l16si	a11, a1, 16
    2dc1:	bbaa      	add.n	a11, a11, a10
    2dc3:	bb8b      	addi.n	a11, a11, 8
    2dc5:	91c8      	l32i.n	a12, a1, 36
    2dc7:	348550        	extui	a8, a5, 5, 4
    2dca:	242050        	extui	a2, a5, 0, 3
    2dcd:	902220        	addx2	a2, a2, a2
    2dd0:	a02280        	addx4	a2, a2, a8
    2dd3:	2b2a      	add.n	a2, a11, a2
    2dd5:	16ac27        	bge	a12, a2, 0x2def
    2dd8:	02ad      	mov.n	a10, a2
    2dda:	cb0c      	movi.n	a11, 12
    2ddc:	0a6ae5        	excw
    2ddf:	c1a9      	s32i.n	a10, a1, 48
    2de1:	cb0c      	movi.n	a11, 12
    2de3:	02ad      	mov.n	a10, a2
    2de5:	0a70e5        	excw
    2de8:	0a2d      	mov.n	a2, a10
    2dea:	c1b8      	l32i.n	a11, a1, 48
    2dec:	000046        	j	0x2df1
    2def:	0b0c      	movi.n	a11, 0
    2df1:	33cb      	addi.n	a3, a3, 12
    2df3:	661b      	addi.n	a6, a6, 1
    2df5:	5188      	l32i.n	a8, a1, 20
    2df7:	2490b0        	extui	a9, a11, 0, 3
    2dfa:	e0a1d2        	movi	a13, 0x1e0
    2dfd:	11a2b0        	slli	a10, a2, 5
    2e00:	18aec2        	movi	a12, 0xfffffe18
    2e03:	441b      	addi.n	a4, a4, 1
    2e05:	234480        	excw
    2e08:	10c5c0        	and	a12, a5, a12
    2e0b:	10aad0        	and	a10, a10, a13
    2e0e:	20aac0        	or	a10, a10, a12
    2e11:	2099a0        	or	a9, a9, a10
    2e14:	8e6892        	s32i	a9, a8, 0x238
    2e17:	884b      	addi.n	a8, a8, 4
    2e19:	5189      	s32i.n	a8, a1, 20
    2e1b:	022767        	blt	a7, a6, 0x2e21
    2e1e:	ffd646        	j	0x2d7b
    2e21:	81afe2        	movi	a14, -127
    2e24:	ffc906        	j	0x2d4c
    2e27:	413600        	srli	a3, a0, 6
    2e2a:	92f600        	excw
    2e2d:	a02204        	excw
    2e30:	ff          	.byte 0xff
    2e31:	f01d      	excw
    2e33:	02bd      	mov.n	a11, a2
    2e35:	64a0a2        	movi	a10, 100
    2e38:	c1a3a0        	mul16u	a10, a3, a10
    2e3b:	0a6525        	excw
    2e3e:	7420a0        	extui	a2, a10, 0, 8
    2e41:	f01d      	excw
    2e43:	613600        	excw
    2e46:	02b200        	excw
    2e49:	0f          	.byte 0xf
    2e4a:	b95e81        	l32r	a8, 0xffff13c4
    2e4d:	b91031        	l32r	a3, 0xffff1290
    2e50:	0c0292        	l8ui	a9, a2, 12
    2e53:	98a1a2        	movi	a10, 0x198
    2e56:	c199a0        	mul16u	a9, a9, a10
    2e59:	0e02a2        	l8ui	a10, a2, 14
    2e5c:	339a      	add.n	a3, a3, a9
    2e5e:	338a      	add.n	a3, a3, a8
    2e60:	fffc65        	excw
    2e63:	0041a2        	s8i	a10, a1, 0
    2e66:	1002a2        	l8ui	a10, a2, 16
    2e69:	1302b2        	l8ui	a11, a2, 19
    2e6c:	fffba5        	excw
    2e6f:	0141a2        	s8i	a10, a1, 1
    2e72:	1102a2        	l8ui	a10, a2, 17
    2e75:	1402b2        	l8ui	a11, a2, 20
    2e78:	fffae5        	excw
    2e7b:	0241a2        	s8i	a10, a1, 2
    2e7e:	1202a2        	l8ui	a10, a2, 18
    2e81:	1502b2        	l8ui	a11, a2, 21
    2e84:	fffa25        	excw
    2e87:	0341a2        	s8i	a10, a1, 3
    2e8a:	1602a2        	l8ui	a10, a2, 22
    2e8d:	1902b2        	l8ui	a11, a2, 25
    2e90:	fff965        	excw
    2e93:	0441a2        	s8i	a10, a1, 4
    2e96:	1702a2        	l8ui	a10, a2, 23
    2e99:	1a02b2        	l8ui	a11, a2, 26
    2e9c:	fff8a5        	excw
    2e9f:	0541a2        	s8i	a10, a1, 5
    2ea2:	1802a2        	l8ui	a10, a2, 24
    2ea5:	1b02b2        	l8ui	a11, a2, 27
    2ea8:	fff7e5        	excw
    2eab:	010392        	l8ui	a9, a3, 1
    2eae:	0641a2        	s8i	a10, a1, 6
    2eb1:	3c8926        	beqi	a9, 8, 0x2ef1
    2eb4:	99bc      	beqz.n	a9, 0x2ef1
    2eb6:	b95fb1        	l32r	a11, 0xffff1434
    2eb9:	0c02a2        	l8ui	a10, a2, 12
    2ebc:	98a192        	movi	a9, 0x198
    2ebf:	c19a90        	mul16u	a9, a10, a9
    2ec2:	9b9a      	add.n	a9, a11, a9
    2ec4:	d309c2        	l8ui	a12, a9, 211
    2ec7:	26ec17        	bbsi	a12, 1, 0x2ef1
    2eca:	bccbc2        	addi	a12, a11, -68
    2ecd:	3c0cc2        	l8ui	a12, a12, 60
    2ed0:	a9e8      	l32i.n	a14, a9, 40
    2ed2:	1b9c26        	beqi	a12, 10, 0x2ef1
    2ed5:	b933d1        	l32r	a13, 0xffff13a4
    2ed8:	0b6e07        	bbci	a14, 0, 0x2ee7
    2edb:	1b0c      	movi.n	a11, 1
    2edd:	bb2d82        	l32i	a8, a13, 0x2ec
    2ee0:	01cd      	mov.n	a12, a1
    2ee2:	0008e0        	excw
    2ee5:	f01d      	excw
    2ee7:	1b0c      	movi.n	a11, 1
    2ee9:	b42d82        	l32i	a8, a13, 0x2d0
    2eec:	01cd      	mov.n	a12, a1
    2eee:	0008e0        	excw
    2ef1:	f01d      	excw
    2ef3:	e13600        	excw
    2ef6:	01ad00        	slli	a10, a13, 32
    2ef9:	b960b1        	l32r	a11, 0xffff147c
    2efc:	fc4c      	movi.n	a12, 79
    2efe:	0a75a5        	excw
    2f01:	01ad      	mov.n	a10, a1
    2f03:	b961b1        	l32r	a11, 0xffff1488
    2f06:	fc4c      	movi.n	a12, 79
    2f08:	0a74e5        	excw
    2f0b:	0c0c      	movi.n	a12, 0
    2f0d:	0b0c      	movi.n	a11, 0
    2f0f:	0a0c      	movi.n	a10, 0
    2f11:	01fd      	mov.n	a15, a1
    2f13:	b91de1        	l32r	a14, 0xffff1388
    2f16:	81af22        	movi	a2, -127
    2f19:	4e0ee2        	l8ui	a14, a14, 78
    2f1c:	f84c      	movi.n	a8, 79
    2f1e:	23ee00        	excw
    2f21:	1ba876        	excw
    2f24:	dcfa      	add.n	a13, a12, a15
    2f26:	cc1b      	addi.n	a12, a12, 1
    2f28:	000dd2        	l8ui	a13, a13, 0
    2f2b:	74c0c0        	extui	a12, a12, 0, 8
    2f2e:	23dd00        	excw
    2f31:	091d27        	beq	a13, a2, 0x2f3e
    2f34:	06ade7        	bge	a13, a14, 0x2f3e
    2f37:	adaa      	add.n	a10, a13, a10
    2f39:	bb1b      	addi.n	a11, a11, 1
    2f3b:	74b0b0        	extui	a11, a11, 0, 8
    2f3e:	f03d      	nop.n
    2f40:	7b9c      	beqz.n	a11, 0x2f5b
    2f42:	0a54a5        	excw
    2f45:	81c1b2        	addi	a11, a1, -127
    2f48:	fd4c      	movi.n	a13, 79
    2f4a:	0dad76        	excw
    2f4d:	7f0be2        	l8ui	a14, a11, 127
    2f50:	23ee00        	excw
    2f53:	029e27        	bne	a14, a2, 0x2f59
    2f56:	7f4ba2        	s8i	a10, a11, 127
    2f59:	bb1b      	addi.n	a11, a11, 1
    2f5b:	82c122        	addi	a2, a1, -126
    2f5e:	cfc142        	addi	a4, a1, -49
    2f61:	b96231        	l32r	a3, 0xffff14ec
    2f64:	8002a2        	l8ui	a10, a2, 128
    2f67:	7f02c2        	l8ui	a12, a2, 127
    2f6a:	7e02b2        	l8ui	a11, a2, 126
    2f6d:	23cc00        	excw
    2f70:	23bb00        	excw
    2f73:	23aa00        	excw
    2f76:	bbca      	add.n	a11, a11, a12
    2f78:	aaba      	add.n	a10, a10, a11
    2f7a:	3b0c      	movi.n	a11, 3
    2f7c:	0a50e5        	excw
    2f7f:	8043a2        	s8i	a10, a3, 128
    2f82:	221b      	addi.n	a2, a2, 1
    2f84:	331b      	addi.n	a3, a3, 1
    2f86:	da9247        	bne	a2, a4, 0x2f64
    2f89:	f01d      	excw
    2f8b:	413600        	srli	a3, a0, 6
    2f8e:	02ad00        	excw
    2f91:	ffa0b2        	movi	a11, 255
    2f94:	ac0c      	movi.n	a12, 10
    2f96:	0a7e25        	excw
    2f99:	030c      	movi.n	a3, 0
    2f9b:	f54c      	movi.n	a5, 79
    2f9d:	160c      	movi.n	a6, 1
    2f9f:	0c0c      	movi.n	a12, 0
    2fa1:	f80c      	movi.n	a8, 15
    2fa3:	b92d41        	l32r	a4, 0xffff1458
    2fa6:	ea0c      	movi.n	a10, 14
    2fa8:	45c4f2        	addi	a15, a4, 69
    2fab:	41e330        	srli	a14, a3, 3
    2fae:	24d030        	extui	a13, a3, 0, 3
    2fb1:	b004b2        	l8ui	a11, a4, 176
    2fb4:	331b      	addi.n	a3, a3, 1
    2fb6:	9b0b      	addi.n	a9, a11, -1
    2fb8:	93a9b0        	movnez	a10, a9, a11
    2fbb:	743030        	extui	a3, a3, 0, 8
    2fbe:	f90c      	movi.n	a9, 15
    2fc0:	0b0c      	movi.n	a11, 0
    2fc2:	28a876        	excw
    2fc5:	e70c      	movi.n	a7, 14
    2fc7:	a08aa0        	addx4	a8, a10, a10
    2fca:	9088e0        	addx2	a8, a8, a14
    2fcd:	8f8a      	add.n	a8, a15, a8
    2fcf:	800882        	l8ui	a8, a8, 128
    2fd2:	400d00        	ssr	a13
    2fd5:	b18080        	sra	a8, a8
    2fd8:	046807        	bbci	a8, 0, 0x2fe0
    2fdb:	cc9a      	add.n	a12, a12, a9
    2fdd:	000046        	j	0x2fe2
    2fe0:	bb9a      	add.n	a11, a11, a9
    2fe2:	8a0b      	addi.n	a8, a10, -1
    2fe4:	990b      	addi.n	a9, a9, -1
    2fe6:	749090        	extui	a9, a9, 0, 8
    2fe9:	9378a0        	movnez	a7, a8, a10
    2fec:	07ad      	mov.n	a10, a7
    2fee:	abab      	addi.n	a10, a11, 10
    2ff0:	15aca7        	bge	a12, a10, 0x3009
    2ff3:	f97c      	movi.n	a9, -1
    2ff5:	401d00        	ssl	a13
    2ff8:	ce2a      	add.n	a12, a14, a2
    2ffa:	000cb2        	l8ui	a11, a12, 0
    2ffd:	a18600        	sll	a8, a6
    3000:	308890        	xor	a8, a8, a9
    3003:	10bb80        	and	a11, a11, a8
    3006:	004cb2        	s8i	a11, a12, 0
    3009:	0c0c      	movi.n	a12, 0
    300b:	f80c      	movi.n	a8, 15
    300d:	ea0c      	movi.n	a10, 14
    300f:	989357        	bne	a3, a5, 0x2fab
    3012:	f01d      	excw
    3014:	004136        	excw
    3017:	b95181        	l32r	a8, 0xffff155c
    301a:	6888      	l32i.n	a8, a8, 24
    301c:	02ad      	mov.n	a10, a2
    301e:	0008e0        	excw
    3021:	b910a1        	l32r	a10, 0xffff1464
    3024:	98a1c2        	movi	a12, 0x198
    3027:	c1c2c0        	mul16u	a12, a2, a12
    302a:	b963b1        	l32r	a11, 0xffff15b8
    302d:	aaca      	add.n	a10, a10, a12
    302f:	aaba      	add.n	a10, a10, a11
    3031:	0c2c      	movi.n	a12, 32
    3033:	b964b1        	l32r	a11, 0xffff15c4
    3036:	0a6225        	excw
    3039:	f01d      	excw
    303b:	a13600        	sll	a3, a6
    303e:	10c100        	and	a12, a1, a0
    3041:	0cb9      	s32i.n	a11, a12, 0
    3043:	520d      	excw
    3045:	2adc      	bnez.n	a10, 0x305b
    3047:	4d0c62        	l8ui	a6, a12, 77
    304a:	4d4cd2        	s8i	a13, a12, 77
    304d:	7c65d2        	s32i	a13, a5, 0x1f0
    3050:	03ad      	mov.n	a10, a3
    3052:	b96541        	l32r	a4, 0xffff15e8
    3055:	b95831        	l32r	a3, 0xffff15b8
    3058:	0020c0        	memw
    305b:	422442        	l32i	a4, a4, 0x108
    305e:	344040        	extui	a4, a4, 0, 4
    3061:	0020c0        	memw
    3064:	11a9      	s32i.n	a10, a1, 4
    3066:	b96681        	l32r	a8, 0xffff1600
    3069:	b96751        	l32r	a5, 0xffff1608
    306c:	9523b2        	l32i	a11, a3, 0x254
    306f:	98a172        	movi	a7, 0x198
    3072:	26dc92        	addmi	a9, a12, 0x2600
    3075:	bb2992        	l32i	a9, a9, 0x2ec
    3078:	c17270        	mul16u	a7, a2, a7
    307b:	64b7b0        	extui	a11, a11, 7, 7
    307e:	31b9      	s32i.n	a11, a1, 12
    3080:	575a      	add.n	a5, a7, a5
    3082:	0d8897        	bany	a8, a9, 0x3093
    3085:	630582        	l8ui	a8, a5, 99
    3088:	094c      	movi.n	a9, 64
    308a:	208890        	or	a8, a8, a9
    308d:	634582        	s8i	a8, a5, 99
    3090:	000046        	j	0x3095
    3093:	041c      	movi.n	a4, 16
    3095:	076466        	bnei	a4, 6, 0x30a0
    3098:	b929a1        	l32r	a10, 0xffff153c
    309b:	0b0c      	movi.n	a11, 0
    309d:	b0fb65        	excw
    30a0:	b968c1        	l32r	a12, 0xffff1640
    30a3:	0c8616        	beqz	a6, 0x316f
    30a6:	0020c0        	memw
    30a9:	b910b1        	l32r	a11, 0xffff14ec
    30ac:	67ca      	add.n	a6, a7, a12
    30ae:	1bb8      	l32i.n	a11, a11, 4
    30b0:	ac23c2        	l32i	a12, a3, 0x2b0
    30b3:	41b1b0        	srli	a11, a11, 1
    30b6:	1e1cb7        	beq	a12, a11, 0x30d8
    30b9:	81c9      	s32i.n	a12, a1, 32
    30bb:	0020c0        	memw
    30be:	a123d2        	l32i	a13, a3, 0x284
    30c1:	099dc7        	bne	a13, a12, 0x30ce
    30c4:	b929a1        	l32r	a10, 0xffff1568
    30c7:	0b0c      	movi.n	a11, 0
    30c9:	b0f8a5        	excw
    30cc:	81c8      	l32i.n	a12, a1, 32
    30ce:	7266c2        	s32i	a12, a6, 0x1c8
    30d1:	041c      	movi.n	a4, 16
    30d3:	0e0c      	movi.n	a14, 0
    30d5:	8e46e2        	s8i	a14, a6, 142
    30d8:	02ad      	mov.n	a10, a2
    30da:	ff0fa5        	excw
    30dd:	0c0c      	movi.n	a12, 0
    30df:	01dd      	mov.n	a13, a1
    30e1:	b92f81        	l32r	a8, 0xffff15a0
    30e4:	0abd      	mov.n	a11, a10
    30e6:	492882        	l32i	a8, a8, 0x124
    30e9:	02ad      	mov.n	a10, a2
    30eb:	0008e0        	excw
    30ee:	07fa16        	beqz	a10, 0x3171
    30f1:	02ad      	mov.n	a10, a2
    30f3:	ff0e25        	excw
    30f6:	b969b1        	l32r	a11, 0xffff169c
    30f9:	1525c2        	l32i	a12, a5, 84
    30fc:	51c9      	s32i.n	a12, a1, 20
    30fe:	c0aac0        	sub	a10, a10, a12
    3101:	10aab0        	and	a10, a10, a11
    3104:	2615b2        	l16ui	a11, a5, 76
    3107:	41b9      	s32i.n	a11, a1, 16
    3109:	0a4365        	excw
    310c:	41f8      	l32i.n	a15, a1, 16
    310e:	51e8      	l32i.n	a14, a1, 20
    3110:	82ffa0        	mull	a15, a15, a10
    3113:	0acd      	mov.n	a12, a10
    3115:	eefa      	add.n	a14, a14, a15
    3117:	b969f1        	l32r	a15, 0xffff16bc
    311a:	5f05d2        	l8ui	a13, a5, 95
    311d:	10eef0        	and	a14, a14, a15
    3120:	1565e2        	s32i	a14, a5, 84
    3123:	adbc      	beqz.n	a13, 0x3161
    3125:	3095a2        	l16si	a10, a5, 96
    3128:	5e05b2        	l8ui	a11, a5, 94
    312b:	aaca      	add.n	a10, a10, a12
    312d:	0a4625        	excw
    3130:	b96ac1        	l32r	a12, 0xffff16d8
    3133:	3055a2        	s16i	a10, a5, 96
    3136:	80ccd2        	addi	a13, a12, -128
    3139:	d7da      	add.n	a13, a7, a13
    313b:	c7ca      	add.n	a12, a7, a12
    313d:	820cf2        	l8ui	a15, a12, 130
    3140:	829de2        	l16si	a14, a13, 0x104
    3143:	830cb2        	l8ui	a11, a12, 131
    3146:	eefa      	add.n	a14, a14, a15
    3148:	152be7        	blt	a11, a14, 0x3161
    314b:	5e0592        	l8ui	a9, a5, 94
    314e:	820c82        	l8ui	a8, a12, 130
    3151:	aa9a      	add.n	a10, a10, a9
    3153:	3055a2        	s16i	a10, a5, 96
    3156:	829df2        	l16si	a15, a13, 0x104
    3159:	830ce2        	l8ui	a14, a12, 131
    315c:	ff8a      	add.n	a15, a15, a8
    315e:	e9aef7        	bge	a14, a15, 0x314b
    3161:	6305b2        	l8ui	a11, a5, 99
    3164:	4c0c      	movi.n	a12, 4
    3166:	20bbc0        	or	a11, a11, a12
    3169:	6345b2        	s8i	a11, a5, 99
    316c:	000046        	j	0x3171
    316f:	67ca      	add.n	a6, a7, a12
    3171:	b91b71        	l32r	a7, 0xffff15e0
    3174:	6d06d2        	l8ui	a13, a6, 109
    3177:	630592        	l8ui	a9, a5, 99
    317a:	efa0b2        	movi	a11, 239
    317d:	1099b0        	and	a9, a9, a11
    3180:	634592        	s8i	a9, a5, 99
    3183:	098d66        	bnei	a13, 8, 0x3190
    3186:	6f2782        	l32i	a8, a7, 0x1bc
    3189:	02ad      	mov.n	a10, a2
    318b:	0008e0        	excw
    318e:	f01d      	excw
    3190:	16e917        	bbsi	a9, 1, 0x31aa
    3193:	06d782        	addmi	a8, a7, 0x600
    3196:	692882        	l32i	a8, a8, 0x1a4
    3199:	02ad      	mov.n	a10, a2
    319b:	0008e0        	excw
    319e:	02ad      	mov.n	a10, a2
    31a0:	6e2782        	l32i	a8, a7, 0x1b8
    31a3:	11b8      	l32i.n	a11, a1, 4
    31a5:	0008e0        	excw
    31a8:	f01d      	excw
    31aa:	0224b6        	bltui	a4, 2, 0x31b0
    31ad:	003206        	j	0x3279
    31b0:	b90d81        	l32r	a8, 0xffff15e4
    31b3:	392882        	l32i	a8, a8, 228
    31b6:	0008e0        	excw
    31b9:	0e3a56        	bnez	a10, 0x32a0
    31bc:	3198      	l32i.n	a9, a1, 12
    31be:	88a5e2        	movi	a14, 0x588
    31c1:	b96bf1        	l32r	a15, 0xffff1770
    31c4:	6e06b2        	l8ui	a11, a6, 110
    31c7:	cca082        	movi	a8, 204
    31ca:	c1bb80        	mul16u	a11, a11, a8
    31cd:	b910d1        	l32r	a13, 0xffff1610
    31d0:	abfa      	add.n	a10, a11, a15
    31d2:	a00aa2        	l8ui	a10, a10, 160
    31d5:	bbda      	add.n	a11, a11, a13
    31d7:	a0aab0        	addx4	a10, a10, a11
    31da:	aaea      	add.n	a10, a10, a14
    31dc:	604a92        	s8i	a9, a10, 96
    31df:	6e06c2        	l8ui	a12, a6, 110
    31e2:	c1cc80        	mul16u	a12, a12, a8
    31e5:	b94991        	l32r	a9, 0xffff170c
    31e8:	bcfa      	add.n	a11, a12, a15
    31ea:	a00bb2        	l8ui	a11, a11, 160
    31ed:	ccda      	add.n	a12, a12, a13
    31ef:	a0bbc0        	addx4	a11, a11, a12
    31f2:	bbea      	add.n	a11, a11, a14
    31f4:	0020c0        	memw
    31f7:	8029a2        	l32i	a10, a9, 0x200
    31fa:	04afa0        	extui	a10, a10, 15, 1
    31fd:	2bba16        	beqz	a10, 0x34bc
    3200:	f0a0c2        	movi	a12, 240
    3203:	0020c0        	memw
    3206:	8029a2        	l32i	a10, a9, 0x200
    3209:	34aca0        	extui	a10, a10, 12, 4
    320c:	20aac0        	or	a10, a10, a12
    320f:	614ba2        	s8i	a10, a11, 97
    3212:	6e0682        	l8ui	a8, a6, 110
    3215:	cca0a2        	movi	a10, 204
    3218:	c188a0        	mul16u	a8, a8, a10
    321b:	b910d1        	l32r	a13, 0xffff165c
    321e:	c8fa      	add.n	a12, a8, a15
    3220:	a00cc2        	l8ui	a12, a12, 160
    3223:	88da      	add.n	a8, a8, a13
    3225:	a0cc80        	addx4	a12, a12, a8
    3228:	ccea      	add.n	a12, a12, a14
    322a:	b94281        	l32r	a8, 0xffff1734
    322d:	0020c0        	memw
    3230:	812882        	l32i	a8, a8, 0x204
    3233:	624c82        	s8i	a8, a12, 98
    3236:	6e06c2        	l8ui	a12, a6, 110
    3239:	c1cca0        	mul16u	a12, a12, a10
    323c:	dcda      	add.n	a13, a12, a13
    323e:	ccfa      	add.n	a12, a12, a15
    3240:	a00cc2        	l8ui	a12, a12, 160
    3243:	a0ccd0        	addx4	a12, a12, a13
    3246:	ccea      	add.n	a12, a12, a14
    3248:	0020c0        	memw
    324b:	852982        	l32i	a8, a9, 0x214
    324e:	634c82        	s8i	a8, a12, 99
    3251:	6e06d2        	l8ui	a13, a6, 110
    3254:	c1dda0        	mul16u	a13, a13, a10
    3257:	dfda      	add.n	a13, a15, a13
    3259:	a00dc2        	l8ui	a12, a13, 160
    325c:	cc1b      	addi.n	a12, a12, 1
    325e:	a04dc2        	s8i	a12, a13, 160
    3261:	6e0692        	l8ui	a9, a6, 110
    3264:	c199a0        	mul16u	a9, a9, a10
    3267:	9f9a      	add.n	a9, a15, a9
    3269:	a009c2        	l8ui	a12, a9, 160
    326c:	91a8      	l32i.n	a10, a1, 36
    326e:	2ebc66        	bnei	a12, 16, 0x32a0
    3271:	0a0c      	movi.n	a10, 0
    3273:	a049a2        	s8i	a10, a9, 160
    3276:	000986        	j	0x32a0
    3279:	232426        	beqi	a4, 2, 0x32a0
    327c:	fdc4b2        	addi	a11, a4, -3
    327f:	20db16        	beqz	a11, 0x3490
    3282:	fcc4c2        	addi	a12, a4, -4
    3285:	18ac16        	beqz	a12, 0x3413
    3288:	fbc4d2        	addi	a13, a4, -5
    328b:	214d16        	beqz	a13, 0x34a3
    328e:	187426        	beqi	a4, 7, 0x32aa
    3291:	0594f6        	bgeui	a4, 10, 0x329a
    3294:	0284b6        	bltui	a4, 8, 0x329a
    3297:	002786        	j	0x3339
    329a:	f1c4e2        	addi	a14, a4, -15
    329d:	098e16        	beqz	a14, 0x3339
    32a0:	02ad      	mov.n	a10, a2
    32a2:	692782        	l32i	a8, a7, 0x1a4
    32a5:	ab0c      	movi.n	a11, 10
    32a7:	0008e0        	excw
    32aa:	030c      	movi.n	a3, 0
    32ac:	090c      	movi.n	a9, 0
    32ae:	7199      	s32i.n	a9, a1, 28
    32b0:	261592        	l16ui	a9, a5, 76
    32b3:	0f24b6        	bltui	a4, 2, 0x32c6
    32b6:	0294f6        	bgeui	a4, 10, 0x32bc
    32b9:	0974f6        	bgeui	a4, 7, 0x32c6
    32bc:	0a1c      	movi.n	a10, 16
    32be:	213a47        	bltu	a10, a4, 0x32e3
    32c1:	fb0c      	movi.n	a11, 15
    32c3:	1c34b7        	bltu	a4, a11, 0x32e3
    32c6:	b92dc1        	l32r	a12, 0xffff177c
    32c9:	9e0cc2        	l8ui	a12, a12, 158
    32cc:	131c66        	bnei	a12, 1, 0x32e3
    32cf:	0d0c      	movi.n	a13, 0
    32d1:	b96c81        	l32r	a8, 0xffff1884
    32d4:	1f0c      	movi.n	a15, 1
    32d6:	f0c8e2        	addi	a14, a8, -16
    32d9:	e2ea      	add.n	a14, a2, a14
    32db:	828a      	add.n	a8, a2, a8
    32dd:	0048f2        	s8i	a15, a8, 0
    32e0:	004ed2        	s8i	a13, a14, 0
    32e3:	899c      	beqz.n	a9, 0x32ff
    32e5:	1b25b2        	l32i	a11, a5, 108
    32e8:	1525a2        	l32i	a10, a5, 84
    32eb:	109ab7        	bne	a10, a11, 0x32ff
    32ee:	6305c2        	l8ui	a12, a5, 99
    32f1:	0a6c27        	bbci	a12, 2, 0x32ff
    32f4:	b92f51        	l32r	a5, 0xffff17b0
    32f7:	572582        	l32i	a8, a5, 0x15c
    32fa:	02ad      	mov.n	a10, a2
    32fc:	0008e0        	excw
    32ff:	1e2692        	l32i	a9, a6, 120
    3302:	b92f51        	l32r	a5, 0xffff17c0
    3305:	0e6997        	bbci	a9, 9, 0x3317
    3308:	02ad      	mov.n	a10, a2
    330a:	fee925        	excw
    330d:	6acc      	bnez.n	a10, 0x3317
    330f:	d92782        	l32i	a8, a7, 0x364
    3312:	02ad      	mov.n	a10, a2
    3314:	0008e0        	excw
    3317:	9306a2        	l8ui	a10, a6, 147
    331a:	7d27c2        	l32i	a12, a7, 0x1f4
    331d:	638c      	beqz.n	a3, 0x3327
    331f:	cb1c      	movi.n	a11, 28
    3321:	000ce0        	excw
    3324:	000106        	j	0x332c
    3327:	0b1c      	movi.n	a11, 16
    3329:	000ce0        	excw
    332c:	74a040        	extui	a10, a4, 0, 8
    332f:	252582        	l32i	a8, a5, 148
    3332:	71b8      	l32i.n	a11, a1, 28
    3334:	0008e0        	excw
    3337:	f01d      	excw
    3339:	0020c0        	memw
    333c:	9e23a2        	l32i	a10, a3, 0x278
    333f:	61a9      	s32i.n	a10, a1, 24
    3341:	34a3a0        	extui	a10, a10, 3, 4
    3344:	71a9      	s32i.n	a10, a1, 28
    3346:	fef525        	excw
    3349:	b910b1        	l32r	a11, 0xffff178c
    334c:	221bb2        	l16ui	a11, a11, 68
    334f:	0a3d      	mov.n	a3, a10
    3351:	9b8c      	beqz.n	a11, 0x335e
    3353:	b92f81        	l32r	a8, 0xffff1810
    3356:	852882        	l32i	a8, a8, 0x214
    3359:	02ad      	mov.n	a10, a2
    335b:	0008e0        	excw
    335e:	83ac      	beqz.n	a3, 0x338a
    3360:	6e06a2        	l8ui	a10, a6, 110
    3363:	80a0c2        	movi	a12, 128
    3366:	61b8      	l32i.n	a11, a1, 24
    3368:	612782        	l32i	a8, a7, 0x184
    336b:	10bbc0        	and	a11, a11, a12
    336e:	0008e0        	excw
    3371:	539c      	beqz.n	a3, 0x338a
    3373:	02ad      	mov.n	a10, a2
    3375:	fee5e5        	excw
    3378:	1665a2        	s32i	a10, a5, 88
    337b:	6305d2        	l8ui	a13, a5, 99
    337e:	f7a0e2        	movi	a14, 247
    3381:	10dde0        	and	a13, a13, a14
    3384:	6345d2        	s8i	a13, a5, 99
    3387:	0007c6        	j	0x33aa
    338a:	61f8      	l32i.n	a15, a1, 24
    338c:	04ef77        	bbsi	a15, 7, 0x3394
    338f:	6f0682        	l8ui	a8, a6, 111
    3392:	48dc      	bnez.n	a8, 0x33aa
    3394:	b910a1        	l32r	a10, 0xffff17d4
    3397:	7f2aa2        	l32i	a10, a10, 0x1fc
    339a:	35a0a0        	extui	a10, a10, 16, 4
    339d:	feefa5        	excw
    33a0:	6a8c      	beqz.n	a10, 0x33aa
    33a2:	02ad      	mov.n	a10, a2
    33a4:	fee2e5        	excw
    33a7:	6266a2        	s32i	a10, a6, 0x188
    33aa:	8506b2        	l8ui	a11, a6, 133
    33ad:	11a8      	l32i.n	a10, a1, 4
    33af:	00a4c2        	movi	a12, 0x400
    33b2:	10dac0        	and	a13, a10, a12
    33b5:	21d9      	s32i.n	a13, a1, 8
    33b7:	046b16        	beqz	a11, 0x3401
    33ba:	430ac7        	bnone	a10, a12, 0x3401
    33bd:	61e8      	l32i.n	a14, a1, 24
    33bf:	07ee77        	bbsi	a14, 7, 0x33ca
    33c2:	b929a1        	l32r	a10, 0xffff1868
    33c5:	0b0c      	movi.n	a11, 0
    33c7:	b0c8e5        	excw
    33ca:	1e26c2        	l32i	a12, a6, 120
    33cd:	076c17        	bbci	a12, 1, 0x33d8
    33d0:	df7c      	movi.n	a15, -3
    33d2:	10ccf0        	and	a12, a12, a15
    33d5:	1e66c2        	s32i	a12, a6, 120
    33d8:	1c7c17        	bbci	a12, 17, 0x33f8
    33db:	167c07        	bbci	a12, 16, 0x33f5
    33de:	7f2782        	l32i	a8, a7, 0x1fc
    33e1:	b94f91        	l32r	a9, 0xffff1920
    33e4:	b96da1        	l32r	a10, 0xffff1998
    33e7:	209c90        	or	a9, a12, a9
    33ea:	1099a0        	and	a9, a9, a10
    33ed:	1e6692        	s32i	a9, a6, 120
    33f0:	02ad      	mov.n	a10, a2
    33f2:	0008e0        	excw
    33f5:	1e26c2        	l32i	a12, a6, 120
    33f8:	b96ea1        	l32r	a10, 0xffff19b0
    33fb:	10aca0        	and	a10, a12, a10
    33fe:	1e66a2        	s32i	a10, a6, 120
    3401:	6927c2        	l32i	a12, a7, 0x1a4
    3404:	0a8316        	beqz	a3, 0x34b0
    3407:	02ad      	mov.n	a10, a2
    3409:	9b0c      	movi.n	a11, 9
    340b:	000ce0        	excw
    340e:	2198      	l32i.n	a9, a1, 8
    3410:	0008c6        	j	0x3437
    3413:	02ad      	mov.n	a10, a2
    3415:	fedbe5        	excw
    3418:	9b0c      	movi.n	a11, 9
    341a:	1665a2        	s32i	a10, a5, 88
    341d:	692782        	l32i	a8, a7, 0x1a4
    3420:	02ad      	mov.n	a10, a2
    3422:	0008e0        	excw
    3425:	030c      	movi.n	a3, 0
    3427:	00a4a2        	movi	a10, 0x400
    342a:	1198      	l32i.n	a9, a1, 4
    342c:	0b0c      	movi.n	a11, 0
    342e:	61b9      	s32i.n	a11, a1, 24
    3430:	1099a0        	and	a9, a9, a10
    3433:	0a0c      	movi.n	a10, 0
    3435:	71a9      	s32i.n	a10, a1, 28
    3437:	8506b2        	l8ui	a11, a6, 133
    343a:	bb1b      	addi.n	a11, a11, 1
    343c:	8546b2        	s8i	a11, a6, 133
    343f:	e9cc      	bnez.n	a9, 0x3451
    3441:	8706c2        	l8ui	a12, a6, 135
    3444:	23cc00        	excw
    3447:	2cdc      	bnez.n	a12, 0x345d
    3449:	b910d1        	l32r	a13, 0xffff188c
    344c:	4e0dd2        	l8ui	a13, a13, 78
    344f:	ad8c      	beqz.n	a13, 0x345d
    3451:	b96ff1        	l32r	a15, 0xffff1a10
    3454:	1e26e2        	l32i	a14, a6, 120
    3457:	10eef0        	and	a14, a14, a15
    345a:	1e66e2        	s32i	a14, a6, 120
    345d:	69cc      	bnez.n	a9, 0x3467
    345f:	860682        	l8ui	a8, a6, 134
    3462:	238800        	excw
    3465:	a8cc      	bnez.n	a8, 0x3473
    3467:	b970a1        	l32r	a10, 0xffff1a28
    346a:	1e2692        	l32i	a9, a6, 120
    346d:	1099a0        	and	a9, a9, a10
    3470:	1e6692        	s32i	a9, a6, 120
    3473:	6f06b2        	l8ui	a11, a6, 111
    3476:	8bcc      	bnez.n	a11, 0x3482
    3478:	61c8      	l32i.n	a12, a1, 24
    347a:	046c77        	bbci	a12, 7, 0x3482
    347d:	0d0c      	movi.n	a13, 0
    347f:	b345d2        	s8i	a13, a5, 179
    3482:	6305e2        	l8ui	a14, a5, 99
    3485:	4f0c      	movi.n	a15, 4
    3487:	20eef0        	or	a14, a14, a15
    348a:	6345e2        	s8i	a14, a5, 99
    348d:	ff87c6        	j	0x32b0
    3490:	02ad      	mov.n	a10, a2
    3492:	692782        	l32i	a8, a7, 0x1a4
    3495:	eb0c      	movi.n	a11, 14
    3497:	0008e0        	excw
    349a:	030c      	movi.n	a3, 0
    349c:	090c      	movi.n	a9, 0
    349e:	7199      	s32i.n	a9, a1, 28
    34a0:	fff786        	j	0x3482
    34a3:	02ad      	mov.n	a10, a2
    34a5:	692782        	l32i	a8, a7, 0x1a4
    34a8:	eb0c      	movi.n	a11, 14
    34aa:	0008e0        	excw
    34ad:	ff7e46        	j	0x32aa
    34b0:	02ad      	mov.n	a10, a2
    34b2:	bb0c      	movi.n	a11, 11
    34b4:	000ce0        	excw
    34b7:	2198      	l32i.n	a9, a1, 8
    34b9:	ffde86        	j	0x3437
    34bc:	0020c0        	memw
    34bf:	8029a2        	l32i	a10, a9, 0x200
    34c2:	34aca0        	extui	a10, a10, 12, 4
    34c5:	ff5186        	j	0x320f
    34c8:	008136        	excw
    34cb:	b96851        	l32r	a5, 0xffff1a6c
    34ce:	b97131        	l32r	a3, 0xffff1a94
    34d1:	b92d81        	l32r	a8, 0xffff1988
    34d4:	b91ba1        	l32r	a10, 0xffff1940
    34d7:	98a142        	movi	a4, 0x198
    34da:	c14240        	mul16u	a4, a2, a4
    34dd:	06da72        	addmi	a7, a10, 0x600
    34e0:	80c8b2        	addi	a11, a8, -128
    34e3:	ffdb62        	addmi	a6, a11, 0xffffff00
    34e6:	343a      	add.n	a3, a4, a3
    34e8:	9e0882        	l8ui	a8, a8, 158
    34eb:	545a      	add.n	a5, a4, a5
    34ed:	6125c2        	l32i	a12, a5, 0x184
    34f0:	51c9      	s32i.n	a12, a1, 20
    34f2:	58fc      	bnez.n	a8, 0x352b
    34f4:	770382        	l8ui	a8, a3, 119
    34f7:	1c0c      	movi.n	a12, 1
    34f9:	048680        	extui	a8, a8, 6, 1
    34fc:	1c5856        	bnez	a8, 0x36c5
    34ff:	0e1bc2        	l16ui	a12, a11, 28
    3502:	cc1b      	addi.n	a12, a12, 1
    3504:	0e5bc2        	s16i	a12, a11, 28
    3507:	770392        	l8ui	a9, a3, 119
    350a:	80a0a2        	movi	a10, 128
    350d:	2099a0        	or	a9, a9, a10
    3510:	774392        	s8i	a9, a3, 119
    3513:	007206        	j	0x36df
    3516:	41d2a0        	srli	a13, a10, 2
    3519:	0e3bd7        	bltu	a11, a13, 0x352b
    351c:	3e13a2        	l16ui	a10, a3, 124
    351f:	64a0c2        	movi	a12, 100
    3522:	c1aac0        	mul16u	a10, a10, a12
    3525:	0a01a5        	excw
    3528:	9f43a2        	s8i	a10, a3, 159
    352b:	02ad      	mov.n	a10, a2
    352d:	4d2782        	l32i	a8, a7, 0x134
    3530:	090c      	movi.n	a9, 0
    3532:	764392        	s8i	a9, a3, 118
    3535:	9c4392        	s8i	a9, a3, 156
    3538:	0008e0        	excw
    353b:	02ad      	mov.n	a10, a2
    353d:	b972b1        	l32r	a11, 0xffff1b08
    3540:	4f2782        	l32i	a8, a7, 0x13c
    3543:	b6ba      	add.n	a11, a6, a11
    3545:	b4ba      	add.n	a11, a4, a11
    3547:	0008e0        	excw
    354a:	7703c2        	l8ui	a12, a3, 119
    354d:	c895a2        	l16si	a10, a5, 0x190
    3550:	106c37        	bbci	a12, 3, 0x3564
    3553:	051aa6        	blti	a10, 1, 0x355c
    3556:	7303d2        	l8ui	a13, a3, 115
    3559:	07ada7        	bge	a13, a10, 0x3564
    355c:	b929a1        	l32r	a10, 0xffff1a00
    355f:	0b0c      	movi.n	a11, 0
    3561:	b0af25        	excw
    3564:	b92a41        	l32r	a4, 0xffff1a0c
    3567:	dc04e2        	l8ui	a14, a4, 220
    356a:	23ee00        	excw
    356d:	071ee6        	bgei	a14, 1, 0x3578
    3570:	b929a1        	l32r	a10, 0xffff1a14
    3573:	0b0c      	movi.n	a11, 0
    3575:	b0ade5        	excw
    3578:	02ad      	mov.n	a10, a2
    357a:	fec5a5        	excw
    357d:	be1582        	l16ui	a8, a5, 0x17c
    3580:	b973f1        	l32r	a15, 0xffff1b4c
    3583:	16b8      	l32i.n	a11, a6, 4
    3585:	6125c2        	l32i	a12, a5, 0x184
    3588:	b969e1        	l32r	a14, 0xffff1b2c
    358b:	c0cca0        	sub	a12, a12, a10
    358e:	10cce0        	and	a12, a12, a14
    3591:	bbca      	add.n	a11, a11, a12
    3593:	7225c2        	l32i	a12, a5, 0x1c8
    3596:	41b1b0        	srli	a11, a11, 1
    3599:	10bbf0        	and	a11, a11, a15
    359c:	c0bbc0        	sub	a11, a11, a12
    359f:	10bbf0        	and	a11, a11, a15
    35a2:	11bbf0        	slli	a11, a11, 1
    35a5:	02bb87        	bgeu	a11, a8, 0x35ab
    35a8:	3013b2        	l16ui	a11, a3, 96
    35ab:	41b9      	s32i.n	a11, a1, 16
    35ad:	02ad      	mov.n	a10, a2
    35af:	c12b      	addi.n	a12, a1, 2
    35b1:	602782        	l32i	a8, a7, 0x180
    35b4:	0d0c      	movi.n	a13, 0
    35b6:	0008e0        	excw
    35b9:	6f0592        	l8ui	a9, a5, 111
    35bc:	0a4d      	mov.n	a4, a10
    35be:	073956        	bnez	a9, 0x3635
    35c1:	022ab6        	bltui	a10, 2, 0x35c7
    35c4:	103a66        	bnei	a10, 3, 0x35d8
    35c7:	2b16b2        	l16ui	a11, a6, 86
    35ca:	4c06d2        	l8ui	a13, a6, 76
    35cd:	cbba      	add.n	a12, a11, a11
    35cf:	14cbb2        	addi	a11, a11, 20
    35d2:	83bcd0        	moveqz	a11, a12, a13
    35d5:	0151b2        	s16i	a11, a1, 2
    35d8:	b90d81        	l32r	a8, 0xffff1a0c
    35db:	090c      	movi.n	a9, 0
    35dd:	2a2882        	l32i	a8, a8, 168
    35e0:	1199      	s32i.n	a9, a1, 4
    35e2:	0008e0        	excw
    35e5:	0adc      	bnez.n	a10, 0x35f9
    35e7:	41a8      	l32i.n	a10, a1, 16
    35e9:	301392        	l16ui	a9, a3, 96
    35ec:	09b9a7        	bgeu	a9, a10, 0x35f9
    35ef:	4c06b2        	l8ui	a11, a6, 76
    35f2:	3bcc      	bnez.n	a11, 0x35f9
    35f4:	e2a4c2        	movi	a12, 0x4e2
    35f7:	11c9      	s32i.n	a12, a1, 4
    35f9:	41b8      	l32i.n	a11, a1, 16
    35fb:	0111a2        	l16ui	a10, a1, 2
    35fe:	c14b      	addi.n	a12, a1, 4
    3600:	b91b81        	l32r	a8, 0xffff1a6c
    3603:	d18b      	addi.n	a13, a1, 8
    3605:	772882        	l32i	a8, a8, 0x1dc
    3608:	e1cb      	addi.n	a14, a1, 12
    360a:	0008e0        	excw
    360d:	0b5466        	bnei	a4, 5, 0x361c
    3610:	a18b      	addi.n	a10, a1, 8
    3612:	b1cb      	addi.n	a11, a1, 12
    3614:	552782        	l32i	a8, a7, 0x154
    3617:	c14b      	addi.n	a12, a1, 4
    3619:	0008e0        	excw
    361c:	21a8      	l32i.n	a10, a1, 8
    361e:	31c8      	l32i.n	a12, a1, 12
    3620:	11b8      	l32i.n	a11, a1, 4
    3622:	b91b81        	l32r	a8, 0xffff1a90
    3625:	bbca      	add.n	a11, a11, a12
    3627:	782882        	l32i	a8, a8, 0x1e0
    362a:	4c4c      	movi.n	a12, 68
    362c:	0008e0        	excw
    362f:	7643a2        	s8i	a10, a3, 118
    3632:	001446        	j	0x3687
    3635:	052a26        	beqi	a10, 2, 0x363e
    3638:	024a26        	beqi	a10, 4, 0x363e
    363b:	485a66        	bnei	a10, 5, 0x3687
    363e:	b92a91        	l32r	a9, 0xffff1ae8
    3641:	dc0992        	l8ui	a9, a9, 220
    3644:	239900        	excw
    3647:	0719e6        	bgei	a9, 1, 0x3652
    364a:	b929a1        	l32r	a10, 0xffff1af0
    364d:	0b0c      	movi.n	a11, 0
    364f:	b0a065        	excw
    3652:	02ad      	mov.n	a10, a2
    3654:	feb7e5        	excw
    3657:	0111b2        	l16ui	a11, a1, 2
    365a:	612782        	l32i	a8, a7, 0x184
    365d:	16c8      	l32i.n	a12, a6, 4
    365f:	1a23d2        	l32i	a13, a3, 104
    3662:	b969e1        	l32r	a14, 0xffff1c08
    3665:	c0dda0        	sub	a13, a13, a10
    3668:	02ad      	mov.n	a10, a2
    366a:	10dde0        	and	a13, a13, a14
    366d:	ccda      	add.n	a12, a12, a13
    366f:	2b23e2        	l32i	a14, a3, 172
    3672:	b973d1        	l32r	a13, 0xffff1c40
    3675:	41c1c0        	srli	a12, a12, 1
    3678:	10ccd0        	and	a12, a12, a13
    367b:	c0cce0        	sub	a12, a12, a14
    367e:	10ccd0        	and	a12, a12, a13
    3681:	11ccf0        	slli	a12, a12, 1
    3684:	0008e0        	excw
    3687:	7703e2        	l8ui	a14, a3, 119
    368a:	b974a1        	l32r	a10, 0xffff1c5c
    368d:	0aee27        	bbsi	a14, 2, 0x369b
    3690:	8f16f2        	l16ui	a15, a6, 0x11e
    3693:	b93881        	l32r	a8, 0xffff1b74
    3696:	ff1b      	addi.n	a15, a15, 1
    3698:	0f58f2        	s16i	a15, a8, 30
    369b:	1e2592        	l32i	a9, a5, 120
    369e:	5188      	l32i.n	a8, a1, 20
    36a0:	2099a0        	or	a9, a9, a10
    36a3:	1e6592        	s32i	a9, a5, 120
    36a6:	fba0a2        	movi	a10, 251
    36a9:	770392        	l8ui	a9, a3, 119
    36ac:	1a2322        	l32i	a2, a3, 104
    36af:	1099a0        	and	a9, a9, a10
    36b2:	c02280        	sub	a2, a2, a8
    36b5:	bfa0a2        	movi	a10, 191
    36b8:	180c      	movi.n	a8, 1
    36ba:	932820        	movnez	a2, a8, a2
    36bd:	1099a0        	and	a9, a9, a10
    36c0:	774392        	s8i	a9, a3, 119
    36c3:	f01d      	excw
    36c5:	3c13b2        	l16ui	a11, a3, 120
    36c8:	7a03f2        	l8ui	a15, a3, 122
    36cb:	3e13e2        	l16ui	a14, a3, 124
    36ce:	401f00        	ssl	a15
    36d1:	ee1b      	addi.n	a14, a14, 1
    36d3:	3e53e2        	s16i	a14, a3, 124
    36d6:	a1dc00        	sll	a13, a12
    36d9:	20bbd0        	or	a11, a11, a13
    36dc:	3c53b2        	s16i	a11, a3, 120
    36df:	3c13a2        	l16ui	a10, a3, 120
    36e2:	502782        	l32i	a8, a7, 0x140
    36e5:	7a03b2        	l8ui	a11, a3, 122
    36e8:	3f13c2        	l16ui	a12, a3, 126
    36eb:	bb1b      	addi.n	a11, a11, 1
    36ed:	cc1b      	addi.n	a12, a12, 1
    36ef:	3f53c2        	s16i	a12, a3, 126
    36f2:	74b0b0        	extui	a11, a11, 0, 8
    36f5:	7a43b2        	s8i	a11, a3, 122
    36f8:	0008e0        	excw
    36fb:	7b43a2        	s8i	a10, a3, 123
    36fe:	7a03c2        	l8ui	a12, a3, 122
    3701:	3f13b2        	l16ui	a11, a3, 126
    3704:	079cb6        	bltui	a12, 10, 0x370f
    3707:	0d0c      	movi.n	a13, 0
    3709:	7a43d2        	s8i	a13, a3, 122
    370c:	3c53d2        	s16i	a13, a3, 120
    370f:	4116a2        	l16ui	a10, a6, 130
    3712:	02bba7        	bgeu	a11, a10, 0x3718
    3715:	ff7f46        	j	0x3516
    3718:	3e13a2        	l16ui	a10, a3, 124
    371b:	64a0c2        	movi	a12, 100
    371e:	c1aac0        	mul16u	a10, a10, a12
    3721:	09e1e5        	excw
    3724:	74d0a0        	extui	a13, a10, 0, 8
    3727:	9f43d2        	s8i	a13, a3, 159
    372a:	8606e2        	l8ui	a14, a6, 134
    372d:	50bde7        	bgeu	a13, a14, 0x3781
    3730:	b406f2        	l8ui	a15, a6, 180
    3733:	4a6f07        	bbci	a15, 0, 0x3781
    3736:	b91b81        	l32r	a8, 0xffff1ba4
    3739:	7888      	l32i.n	a8, a8, 28
    373b:	01ad      	mov.n	a10, a1
    373d:	0008e0        	excw
    3740:	000192        	l8ui	a9, a1, 0
    3743:	909990        	addx2	a9, a9, a9
    3746:	b09960        	addx8	a9, a9, a6
    3749:	c20992        	l8ui	a9, a9, 194
    374c:	311927        	beq	a9, a2, 0x3781
    374f:	2a0c      	movi.n	a10, 2
    3751:	b91181        	l32r	a8, 0xffff1b98
    3754:	19a2b2        	movi	a11, 0x219
    3757:	6888      	l32i.n	a8, a8, 24
    3759:	1c0c      	movi.n	a12, 1
    375b:	0008e0        	excw
    375e:	0abd      	mov.n	a11, a10
    3760:	61a9      	s32i.n	a10, a1, 24
    3762:	8acc      	bnez.n	a10, 0x376e
    3764:	b929a1        	l32r	a10, 0xffff1c08
    3767:	0b0c      	movi.n	a11, 0
    3769:	b08ea5        	excw
    376c:	61b8      	l32i.n	a11, a1, 24
    376e:	fb8c      	beqz.n	a11, 0x3781
    3770:	b90ba1        	l32r	a10, 0xffff1b9c
    3773:	b90781        	l32r	a8, 0xffff1b90
    3776:	0c4b22        	s8i	a2, a11, 12
    3779:	142882        	l32i	a8, a8, 80
    377c:	0aa8      	l32i.n	a10, a10, 0
    377e:	0008e0        	excw
    3781:	090c      	movi.n	a9, 0
    3783:	3e5392        	s16i	a9, a3, 124
    3786:	3f5392        	s16i	a9, a3, 126
    3789:	ff6786        	j	0x352b
    378c:	008136        	excw
    378f:	4149      	s32i.n	a4, a1, 16
    3791:	02ad      	mov.n	a10, a2
    3793:	fea425        	excw
    3796:	0b0c      	movi.n	a11, 0
    3798:	b96991        	l32r	a9, 0xffff1d3c
    379b:	b97571        	l32r	a7, 0xffff1d70
    379e:	b97651        	l32r	a5, 0xffff1d78
    37a1:	8a3a      	add.n	a8, a10, a3
    37a3:	98a142        	movi	a4, 0x198
    37a6:	c14240        	mul16u	a4, a2, a4
    37a9:	b92da1        	l32r	a10, 0xffff1c60
    37ac:	545a      	add.n	a5, a4, a5
    37ae:	747a      	add.n	a7, a4, a7
    37b0:	108890        	and	a8, a8, a9
    37b3:	656782        	s32i	a8, a7, 0x194
    37b6:	6945b2        	s8i	a11, a5, 105
    37b9:	9e0aa2        	l8ui	a10, a10, 158
    37bc:	b91091        	l32r	a9, 0xffff1bfc
    37bf:	2aec      	bnez.n	a10, 0x37e5
    37c1:	7045b2        	s8i	a11, a5, 112
    37c4:	3755b2        	s16i	a11, a5, 110
    37c7:	64a0d2        	movi	a13, 100
    37ca:	7145d2        	s8i	a13, a5, 113
    37cd:	4119c2        	l16ui	a12, a9, 130
    37d0:	41c1c0        	srli	a12, a12, 1
    37d3:	3955c2        	s16i	a12, a5, 114
    37d6:	4119a2        	l16ui	a10, a9, 130
    37d9:	41a1a0        	srli	a10, a10, 1
    37dc:	3a55a2        	s16i	a10, a5, 116
    37df:	810982        	l8ui	a8, a9, 129
    37e2:	954582        	s8i	a8, a5, 149
    37e5:	b92f61        	l32r	a6, 0xffff1ca4
    37e8:	512682        	l32i	a8, a6, 0x144
    37eb:	02ad      	mov.n	a10, a2
    37ed:	0008e0        	excw
    37f0:	fba0a2        	movi	a10, 251
    37f3:	6d0592        	l8ui	a9, a5, 109
    37f6:	4d2682        	l32i	a8, a6, 0x134
    37f9:	1099a0        	and	a9, a9, a10
    37fc:	f7a0a2        	movi	a10, 247
    37ff:	1099a0        	and	a9, a9, a10
    3802:	6d4592        	s8i	a9, a5, 109
    3805:	02ad      	mov.n	a10, a2
    3807:	0008e0        	excw
    380a:	02ad      	mov.n	a10, a2
    380c:	b972c1        	l32r	a12, 0xffff1dd4
    380f:	b910b1        	l32r	a11, 0xffff1c50
    3812:	4f2682        	l32i	a8, a6, 0x13c
    3815:	bbca      	add.n	a11, a11, a12
    3817:	b4ba      	add.n	a11, a4, a11
    3819:	0008e0        	excw
    381c:	41d8      	l32i.n	a13, a1, 16
    381e:	0a0c      	movi.n	a10, 0
    3820:	fdcc      	bnez.n	a13, 0x3833
    3822:	02ad      	mov.n	a10, a2
    3824:	03bd      	mov.n	a11, a3
    3826:	01cd      	mov.n	a12, a1
    3828:	602682        	l32i	a8, a6, 0x180
    382b:	0d0c      	movi.n	a13, 0
    382d:	0008e0        	excw
    3830:	ffffc6        	j	0x3833
    3833:	7f0792        	l8ui	a9, a7, 127
    3836:	0b0c      	movi.n	a11, 0
    3838:	09ec      	bnez.n	a9, 0x385c
    383a:	11b9      	s32i.n	a11, a1, 4
    383c:	022ab6        	bltui	a10, 2, 0x3842
    383f:	313a66        	bnei	a10, 3, 0x3874
    3842:	b910c1        	l32r	a12, 0xffff1c84
    3845:	2b1ca2        	l16ui	a10, a12, 86
    3848:	4c0cc2        	l8ui	a12, a12, 76
    384b:	baaa      	add.n	a11, a10, a10
    384d:	14caa2        	addi	a10, a10, 20
    3850:	83abc0        	moveqz	a10, a11, a12
    3853:	f4a0a0        	extui	a10, a10, 0, 16
    3856:	0051a2        	s16i	a10, a1, 0
    3859:	000686        	j	0x3877
    385c:	052a26        	beqi	a10, 2, 0x3865
    385f:	024a26        	beqi	a10, 4, 0x3865
    3862:	0c5a66        	bnei	a10, 5, 0x3872
    3865:	02ad      	mov.n	a10, a2
    3867:	03cd      	mov.n	a12, a3
    3869:	612682        	l32i	a8, a6, 0x184
    386c:	0011b2        	l16ui	a11, a1, 0
    386f:	0008e0        	excw
    3872:	f01d      	excw
    3874:	0011a2        	l16ui	a10, a1, 0
    3877:	03bd      	mov.n	a11, a3
    3879:	c14b      	addi.n	a12, a1, 4
    387b:	b91b21        	l32r	a2, 0xffff1ce8
    387e:	d18b      	addi.n	a13, a1, 8
    3880:	772282        	l32i	a8, a2, 0x1dc
    3883:	e1cb      	addi.n	a14, a1, 12
    3885:	0008e0        	excw
    3888:	21a8      	l32i.n	a10, a1, 8
    388a:	31c8      	l32i.n	a12, a1, 12
    388c:	11b8      	l32i.n	a11, a1, 4
    388e:	782282        	l32i	a8, a2, 0x1e0
    3891:	bbca      	add.n	a11, a11, a12
    3893:	4c4c      	movi.n	a12, 68
    3895:	0008e0        	excw
    3898:	6c45a2        	s8i	a10, a5, 108
    389b:	f01d      	excw
    389d:	000000        	ill
    38a0:	00e136        	excw
    38a3:	9139      	s32i.n	a3, a1, 36
    38a5:	050c      	movi.n	a5, 0
    38a7:	8129      	s32i.n	a2, a1, 32
    38a9:	0d0c      	movi.n	a13, 0
    38ab:	0e0c      	movi.n	a14, 0
    38ad:	0f0c      	movi.n	a15, 0
    38af:	7149      	s32i.n	a4, a1, 28
    38b1:	fb7c      	movi.n	a11, -1
    38b3:	f1b9      	s32i.n	a11, a1, 60
    38b5:	01b9      	s32i.n	a11, a1, 0
    38b7:	040c      	movi.n	a4, 0
    38b9:	b1f9      	s32i.n	a15, a1, 44
    38bb:	a1e9      	s32i.n	a14, a1, 40
    38bd:	21d9      	s32i.n	a13, a1, 8
    38bf:	020c      	movi.n	a2, 0
    38c1:	e159      	s32i.n	a5, a1, 56
    38c3:	030c      	movi.n	a3, 0
    38c5:	b91051        	l32r	a5, 0xffff1d08
    38c8:	c139      	s32i.n	a3, a1, 48
    38ca:	d129      	s32i.n	a2, a1, 52
    38cc:	030c      	movi.n	a3, 0
    38ce:	b97221        	l32r	a2, 0xffff1e98
    38d1:	b936c1        	l32r	a12, 0xffff1dac
    38d4:	b977e1        	l32r	a14, 0xffff1eb0
    38d7:	740c62        	l8ui	a6, a12, 116
    38da:	ffa0b2        	movi	a11, 255
    38dd:	c0d6b0        	sub	a13, a6, a11
    38e0:	2bdd16        	beqz	a13, 0x3ba1
    38e3:	98a192        	movi	a9, 0x198
    38e6:	c19690        	mul16u	a9, a6, a9
    38e9:	752a      	add.n	a7, a5, a2
    38eb:	e9ea      	add.n	a14, a9, a14
    38ed:	800ee2        	l8ui	a14, a14, 128
    38f0:	797a      	add.n	a7, a9, a7
    38f2:	201e66        	bnei	a14, 1, 0x3916
    38f5:	b978b1        	l32r	a11, 0xffff1ed8
    38f8:	b9ba      	add.n	a11, a9, a11
    38fa:	800bb2        	l8ui	a11, a11, 128
    38fd:	5b9c      	beqz.n	a11, 0x3916
    38ff:	b92f81        	l32r	a8, 0xffff1dbc
    3902:	5f2882        	l32i	a8, a8, 0x17c
    3905:	06ad      	mov.n	a10, a6
    3907:	0008e0        	excw
    390a:	b798      	l32i.n	a9, a7, 44
    390c:	140c      	movi.n	a4, 1
    390e:	041926        	beqi	a9, 1, 0x3916
    3911:	012926        	beqi	a9, 2, 0x3916
    3914:	040c      	movi.n	a4, 0
    3916:	1b0c      	movi.n	a11, 1
    3918:	090c      	movi.n	a9, 0
    391a:	839b40        	moveqz	a9, a11, a4
    391d:	17c916        	beqz	a9, 0x3a9d
    3920:	b92f31        	l32r	a3, 0xffff1ddc
    3923:	272382        	l32i	a8, a3, 156
    3926:	06ad      	mov.n	a10, a6
    3928:	0008e0        	excw
    392b:	c14b      	addi.n	a12, a1, 4
    392d:	01dd      	mov.n	a13, a1
    392f:	0abd      	mov.n	a11, a10
    3931:	1061a2        	s32i	a10, a1, 64
    3934:	492382        	l32i	a8, a3, 0x124
    3937:	06ad      	mov.n	a10, a6
    3939:	0008e0        	excw
    393c:	0a3d      	mov.n	a3, a10
    393e:	022ab6        	bltui	a10, 2, 0x3944
    3941:	009cc6        	j	0x3bb8
    3944:	b92d91        	l32r	a9, 0xffff1df8
    3947:	b92dd1        	l32r	a13, 0xffff1dfc
    394a:	9e0992        	l8ui	a9, a9, 158
    394d:	950dd2        	l8ui	a13, a13, 149
    3950:	284956        	bnez	a9, 0x3bd8
    3953:	ffa0a2        	movi	a10, 255
    3956:	321da7        	beq	a13, a10, 0x398c
    3959:	0b0c      	movi.n	a11, 0
    395b:	90cbb0        	addx2	a12, a11, a11
    395e:	b0cc50        	addx8	a12, a12, a5
    3961:	5e1ce2        	l16ui	a14, a12, 188
    3964:	056e07        	bbci	a14, 0, 0x396d
    3967:	c20ce2        	l8ui	a14, a12, 194
    396a:	071ed7        	beq	a14, a13, 0x3975
    396d:	bb1b      	addi.n	a11, a11, 1
    396f:	74b0b0        	extui	a11, a11, 0, 8
    3972:	fe5b16        	beqz	a11, 0x395b
    3975:	131b26        	beqi	a11, 1, 0x398c
    3978:	8225d2        	l32i	a13, a5, 0x208
    397b:	6e0c      	movi.n	a14, 6
    397d:	ad05f2        	l8ui	a15, a5, 173
    3980:	4c0c      	movi.n	a12, 4
    3982:	93cef0        	movnez	a12, a14, a15
    3985:	033cd7        	bltu	a12, a13, 0x398c
    3988:	180c      	movi.n	a8, 1
    398a:	2189      	s32i.n	a8, a1, 8
    398c:	06ad      	mov.n	a10, a6
    398e:	fe8465        	excw
    3991:	1f0c      	movi.n	a15, 1
    3993:	160792        	l8ui	a9, a7, 22
    3996:	27b8      	l32i.n	a11, a7, 8
    3998:	b969c1        	l32r	a12, 0xffff1f3c
    399b:	c0bba0        	sub	a11, a11, a10
    399e:	10bbc0        	and	a11, a11, a12
    39a1:	f1b9      	s32i.n	a11, a1, 60
    39a3:	1c0c      	movi.n	a12, 1
    39a5:	e1c9      	s32i.n	a12, a1, 56
    39a7:	03b9b7        	bgeu	a9, a11, 0x39ae
    39aa:	0d0c      	movi.n	a13, 0
    39ac:	e1d9      	s32i.n	a13, a1, 56
    39ae:	e188      	l32i.n	a8, a1, 56
    39b0:	0e0c      	movi.n	a14, 0
    39b2:	83ef80        	moveqz	a14, a15, a8
    39b5:	092e16        	beqz	a14, 0x3a4b
    39b8:	346356        	bnez	a3, 0x3d02
    39bb:	06ad      	mov.n	a10, a6
    39bd:	fe8165        	excw
    39c0:	41a9      	s32i.n	a10, a1, 16
    39c2:	1607f2        	l8ui	a15, a7, 22
    39c5:	27d8      	l32i.n	a13, a7, 8
    39c7:	3c07e2        	l8ui	a14, a7, 60
    39ca:	c0ddf0        	sub	a13, a13, a15
    39cd:	06ad      	mov.n	a10, a6
    39cf:	b92f81        	l32r	a8, 0xffff1e8c
    39d2:	c0cde0        	sub	a12, a13, a14
    39d5:	71a2b2        	movi	a11, 0x271
    39d8:	d1bfb0        	mul16s	a11, a15, a11
    39db:	41d8      	l32i.n	a13, a1, 16
    39dd:	282882        	l32i	a8, a8, 160
    39e0:	c0ccd0        	sub	a12, a12, a13
    39e3:	bbbb      	addi.n	a11, a11, 11
    39e5:	b969d1        	l32r	a13, 0xffff1f8c
    39e8:	f4b0b0        	extui	a11, a11, 0, 16
    39eb:	10ccd0        	and	a12, a12, a13
    39ee:	0008e0        	excw
    39f1:	61a9      	s32i.n	a10, a1, 24
    39f3:	f1a9      	s32i.n	a10, a1, 60
    39f5:	1e0c      	movi.n	a14, 1
    39f7:	0d0c      	movi.n	a13, 0
    39f9:	83dea0        	moveqz	a13, a14, a10
    39fc:	c1d9      	s32i.n	a13, a1, 48
    39fe:	049a16        	beqz	a10, 0x3a4b
    3a01:	06ad      	mov.n	a10, a6
    3a03:	90a192        	movi	a9, 0x190
    3a06:	b92d81        	l32r	a8, 0xffff1ebc
    3a09:	81f8      	l32i.n	a15, a1, 32
    3a0b:	720882        	l8ui	a8, a8, 114
    3a0e:	004f62        	s8i	a6, a15, 0
    3a11:	b08850        	addx8	a8, a8, a5
    3a14:	889a      	add.n	a8, a8, a9
    3a16:	3189      	s32i.n	a8, a1, 12
    3a18:	fe7ba5        	excw
    3a1b:	61c8      	l32i.n	a12, a1, 24
    3a1d:	baca      	add.n	a11, a10, a12
    3a1f:	b969c1        	l32r	a12, 0xffff1fc4
    3a22:	61d8      	l32i.n	a13, a1, 24
    3a24:	10bbc0        	and	a11, a11, a12
    3a27:	91c8      	l32i.n	a12, a1, 36
    3a29:	2198      	l32i.n	a9, a1, 8
    3a2b:	0cb9      	s32i.n	a11, a12, 0
    3a2d:	2eb916        	beqz	a9, 0x3d1c
    3a30:	175df6        	bgeui	a13, 5, 0x3a4b
    3a33:	8105e2        	l8ui	a14, a5, 129
    3a36:	3f07b2        	l8ui	a11, a7, 63
    3a39:	8705f2        	l8ui	a15, a5, 135
    3a3c:	5d3be7        	bltu	a11, a14, 0x3a9d
    3a3f:	08bbf7        	bgeu	a11, a15, 0x3a4b
    3a42:	001792        	l16ui	a9, a7, 0
    3a45:	421582        	l16ui	a8, a5, 132
    3a48:	513897        	bltu	a8, a9, 0x3a9d
    3a4b:	1c0c      	movi.n	a12, 1
    3a4d:	e1d8      	l32i.n	a13, a1, 56
    3a4f:	0b0c      	movi.n	a11, 0
    3a51:	83bcd0        	moveqz	a11, a12, a13
    3a54:	045b16        	beqz	a11, 0x3a9d
    3a57:	c1e8      	l32i.n	a14, a1, 48
    3a59:	d1f8      	l32i.n	a15, a1, 52
    3a5b:	eefc      	bnez.n	a14, 0x3a9d
    3a5d:	cffc      	bnez.n	a15, 0x3a9d
    3a5f:	b188      	l32i.n	a8, a1, 44
    3a61:	a198      	l32i.n	a9, a1, 40
    3a63:	68fc      	bnez.n	a8, 0x3a9d
    3a65:	49fc      	bnez.n	a9, 0x3a9d
    3a67:	004a86        	j	0x3b95
    3a6a:	b92f81        	l32r	a8, 0xffff1f28
    3a6d:	272882        	l32i	a8, a8, 156
    3a70:	06ad      	mov.n	a10, a6
    3a72:	0008e0        	excw
    3a75:	0c0c      	movi.n	a12, 0
    3a77:	01dd      	mov.n	a13, a1
    3a79:	0abd      	mov.n	a11, a10
    3a7b:	b92f81        	l32r	a8, 0xffff1f38
    3a7e:	1061a2        	s32i	a10, a1, 64
    3a81:	492882        	l32i	a8, a8, 0x124
    3a84:	4007a2        	l8ui	a10, a7, 64
    3a87:	0008e0        	excw
    3a8a:	0a3d      	mov.n	a3, a10
    3a8c:	514ab6        	bltui	a10, 4, 0x3ae1
    3a8f:	400792        	l8ui	a9, a7, 64
    3a92:	ffa0b2        	movi	a11, 255
    3a95:	0219b7        	beq	a9, a11, 0x3a9b
    3a98:	ce3326        	beqi	a3, 3, 0x3a6a
    3a9b:	330c      	movi.n	a3, 3
    3a9d:	040c      	movi.n	a4, 0
    3a9f:	91c8      	l32i.n	a12, a1, 36
    3aa1:	1021b2        	l32i	a11, a1, 64
    3aa4:	81d8      	l32i.n	a13, a1, 32
    3aa6:	0e0c      	movi.n	a14, 0
    3aa8:	0f0c      	movi.n	a15, 0
    3aaa:	080c      	movi.n	a8, 0
    3aac:	090c      	movi.n	a9, 0
    3aae:	e199      	s32i.n	a9, a1, 56
    3ab0:	c189      	s32i.n	a8, a1, 48
    3ab2:	d1f9      	s32i.n	a15, a1, 52
    3ab4:	b1e9      	s32i.n	a14, a1, 44
    3ab6:	004d62        	s8i	a6, a13, 0
    3ab9:	0d0c      	movi.n	a13, 0
    3abb:	0cb9      	s32i.n	a11, a12, 0
    3abd:	71c8      	l32i.n	a12, a1, 28
    3abf:	a1d9      	s32i.n	a13, a1, 40
    3ac1:	0ccc56        	bnez	a12, 0x3b91
    3ac4:	b7e8      	l32i.n	a14, a7, 44
    3ac6:	2a2e66        	bnei	a14, 2, 0x3af4
    3ac9:	06ad      	mov.n	a10, a6
    3acb:	fe70a5        	excw
    3ace:	b96991        	l32r	a9, 0xffff2074
    3ad1:	8a2b      	addi.n	a8, a10, 2
    3ad3:	2f0c      	movi.n	a15, 2
    3ad5:	108890        	and	a8, a8, a9
    3ad8:	9198      	l32i.n	a9, a1, 36
    3ada:	f1f9      	s32i.n	a15, a1, 60
    3adc:	0989      	s32i.n	a8, a9, 0
    3ade:	002cc6        	j	0x3b95
    3ae1:	faaa16        	beqz	a10, 0x3a8f
    3ae4:	400762        	l8ui	a6, a7, 64
    3ae7:	98a172        	movi	a7, 0x198
    3aea:	c17670        	mul16u	a7, a6, a7
    3aed:	757a      	add.n	a7, a5, a7
    3aef:	772a      	add.n	a7, a7, a2
    3af1:	ffe686        	j	0x3a8f
    3af4:	130782        	l8ui	a8, a7, 19
    3af7:	0a97a2        	l16si	a10, a7, 20
    3afa:	1c2816        	beqz	a8, 0x3cc0
    3afd:	021ae6        	bgei	a10, 1, 0x3b03
    3b00:	006f06        	j	0x3cc0
    3b03:	120792        	l8ui	a9, a7, 18
    3b06:	b979e1        	l32r	a14, 0xffff20ec
    3b09:	399a97        	bne	a10, a9, 0x3b46
    3b0c:	98a1f2        	movi	a15, 0x198
    3b0f:	c1f6f0        	mul16u	a15, a6, a15
    3b12:	eefa      	add.n	a14, a14, a15
    3b14:	800ed2        	l8ui	a13, a14, 128
    3b17:	2bed57        	bbsi	a13, 5, 0x3b46
    3b1a:	2a0c      	movi.n	a10, 2
    3b1c:	0ea2b2        	movi	a11, 0x20e
    3b1f:	1c0c      	movi.n	a12, 1
    3b21:	092c      	movi.n	a9, 32
    3b23:	b91181        	l32r	a8, 0xffff1f68
    3b26:	209d90        	or	a9, a13, a9
    3b29:	6888      	l32i.n	a8, a8, 24
    3b2b:	804e92        	s8i	a9, a14, 128
    3b2e:	0008e0        	excw
    3b31:	0abd      	mov.n	a11, a10
    3b33:	0c4a62        	s8i	a6, a10, 12
    3b36:	ca8c      	beqz.n	a10, 0x3b46
    3b38:	b90781        	l32r	a8, 0xffff1f54
    3b3b:	b90ba1        	l32r	a10, 0xffff1f68
    3b3e:	142882        	l32i	a8, a8, 80
    3b41:	0aa8      	l32i.n	a10, a10, 0
    3b43:	0008e0        	excw
    3b46:	37b8      	l32i.n	a11, a7, 12
    3b48:	1021a2        	l32i	a10, a1, 64
    3b4b:	b979e1        	l32r	a14, 0xffff2130
    3b4e:	c0aab0        	sub	a10, a10, a11
    3b51:	b969b1        	l32r	a11, 0xffff20f8
    3b54:	081792        	l16ui	a9, a7, 16
    3b57:	10aab0        	and	a10, a10, a11
    3b5a:	15b9a7        	bgeu	a9, a10, 0x3b73
    3b5d:	98a1f2        	movi	a15, 0x198
    3b60:	c1f6f0        	mul16u	a15, a6, a15
    3b63:	eefa      	add.n	a14, a14, a15
    3b65:	800ed2        	l8ui	a13, a14, 128
    3b68:	880c      	movi.n	a8, 8
    3b6a:	056d57        	bbci	a13, 5, 0x3b73
    3b6d:	208d80        	or	a8, a13, a8
    3b70:	804e82        	s8i	a8, a14, 128
    3b73:	b92f81        	l32r	a8, 0xffff2030
    3b76:	6b2882        	l32i	a8, a8, 0x1ac
    3b79:	06ad      	mov.n	a10, a6
    3b7b:	0008e0        	excw
    3b7e:	12ea56        	bnez	a10, 0x3cb0
    3b81:	b92f81        	l32r	a8, 0xffff2040
    3b84:	622882        	l32i	a8, a8, 0x188
    3b87:	06ad      	mov.n	a10, a6
    3b89:	0008e0        	excw
    3b8c:	490c      	movi.n	a9, 4
    3b8e:	9339a0        	movnez	a3, a9, a10
    3b91:	0c0c      	movi.n	a12, 0
    3b93:	f1c9      	s32i.n	a12, a1, 60
    3b95:	fcc3d2        	addi	a13, a3, -4
    3b98:	d35d16        	beqz	a13, 0x38d1
    3b9b:	fbc3e2        	addi	a14, a3, -5
    3b9e:	d2fe16        	beqz	a14, 0x38d1
    3ba1:	b92f81        	l32r	a8, 0xffff2060
    3ba4:	4a2882        	l32i	a8, a8, 0x128
    3ba7:	0008e0        	excw
    3baa:	6acc      	bnez.n	a10, 0x3bb4
    3bac:	b929a1        	l32r	a10, 0xffff2050
    3baf:	0b0c      	movi.n	a11, 0
    3bb1:	b04a25        	excw
    3bb4:	f128      	l32i.n	a2, a1, 60
    3bb6:	f01d      	excw
    3bb8:	feca92        	addi	a9, a10, -2
    3bbb:	ede916        	beqz	a9, 0x3a9d
    3bbe:	fdcab2        	addi	a11, a10, -3
    3bc1:	ecab16        	beqz	a11, 0x3a8f
    3bc4:	cd6af6        	bgeui	a10, 6, 0x3b95
    3bc7:	ca4ab6        	bltui	a10, 4, 0x3b95
    3bca:	b92f81        	l32r	a8, 0xffff2088
    3bcd:	622882        	l32i	a8, a8, 0x188
    3bd0:	06ad      	mov.n	a10, a6
    3bd2:	0008e0        	excw
    3bd5:	ffef06        	j	0x3b95
    3bd8:	06ad      	mov.n	a10, a6
    3bda:	fe5fa5        	excw
    3bdd:	1f0c      	movi.n	a15, 1
    3bdf:	160792        	l8ui	a9, a7, 22
    3be2:	27b8      	l32i.n	a11, a7, 8
    3be4:	b969c1        	l32r	a12, 0xffff2188
    3be7:	c0bba0        	sub	a11, a11, a10
    3bea:	10bbc0        	and	a11, a11, a12
    3bed:	f1b9      	s32i.n	a11, a1, 60
    3bef:	1c0c      	movi.n	a12, 1
    3bf1:	d1c9      	s32i.n	a12, a1, 52
    3bf3:	03b9b7        	bgeu	a9, a11, 0x3bfa
    3bf6:	0d0c      	movi.n	a13, 0
    3bf8:	d1d9      	s32i.n	a13, a1, 52
    3bfa:	d188      	l32i.n	a8, a1, 52
    3bfc:	0e0c      	movi.n	a14, 0
    3bfe:	83ef80        	moveqz	a14, a15, a8
    3c01:	e46e16        	beqz	a14, 0x3a4b
    3c04:	06ad      	mov.n	a10, a6
    3c06:	fe5ce5        	excw
    3c09:	bb0c      	movi.n	a11, 11
    3c0b:	1607d2        	l8ui	a13, a7, 22
    3c0e:	b92f81        	l32r	a8, 0xffff20cc
    3c11:	27c8      	l32i.n	a12, a7, 8
    3c13:	282882        	l32i	a8, a8, 160
    3c16:	c0ccd0        	sub	a12, a12, a13
    3c19:	c0cca0        	sub	a12, a12, a10
    3c1c:	b969d1        	l32r	a13, 0xffff21c0
    3c1f:	06ad      	mov.n	a10, a6
    3c21:	10ccd0        	and	a12, a12, a13
    3c24:	0008e0        	excw
    3c27:	51a9      	s32i.n	a10, a1, 20
    3c29:	f1a9      	s32i.n	a10, a1, 60
    3c2b:	180c      	movi.n	a8, 1
    3c2d:	0f0c      	movi.n	a15, 0
    3c2f:	83f8a0        	moveqz	a15, a8, a10
    3c32:	b1f9      	s32i.n	a15, a1, 44
    3c34:	e13a16        	beqz	a10, 0x3a4b
    3c37:	b93bb1        	l32r	a11, 0xffff2124
    3c3a:	b92f81        	l32r	a8, 0xffff20f8
    3c3d:	b92da1        	l32r	a10, 0xffff20f4
    3c40:	90a1c2        	movi	a12, 0x190
    3c43:	c5ca      	add.n	a12, a5, a12
    3c45:	720aa2        	l8ui	a10, a10, 114
    3c48:	242882        	l32i	a8, a8, 144
    3c4b:	b0cac0        	addx8	a12, a10, a12
    3c4e:	31c9      	s32i.n	a12, a1, 12
    3c50:	b0aab0        	addx8	a10, a10, a11
    3c53:	800aa2        	l8ui	a10, a10, 128
    3c56:	0008e0        	excw
    3c59:	51c8      	l32i.n	a12, a1, 20
    3c5b:	fecab2        	addi	a11, a10, -2
    3c5e:	1d0c      	movi.n	a13, 1
    3c60:	a1d9      	s32i.n	a13, a1, 40
    3c62:	01b9      	s32i.n	a11, a1, 0
    3c64:	023bc7        	bltu	a11, a12, 0x3c6a
    3c67:	ff7806        	j	0x3a4b
    3c6a:	0d0c      	movi.n	a13, 0
    3c6c:	51c8      	l32i.n	a12, a1, 20
    3c6e:	a1d9      	s32i.n	a13, a1, 40
    3c70:	023bc7        	bltu	a11, a12, 0x3c76
    3c73:	ff7506        	j	0x3a4b
    3c76:	06ad      	mov.n	a10, a6
    3c78:	81e8      	l32i.n	a14, a1, 32
    3c7a:	c0fcb0        	sub	a15, a12, a11
    3c7d:	f1f9      	s32i.n	a15, a1, 60
    3c7f:	004e62        	s8i	a6, a14, 0
    3c82:	fe5525        	excw
    3c85:	f188      	l32i.n	a8, a1, 60
    3c87:	b969b1        	l32r	a11, 0xffff222c
    3c8a:	9a8a      	add.n	a9, a10, a8
    3c8c:	1099b0        	and	a9, a9, a11
    3c8f:	91b8      	l32i.n	a11, a1, 36
    3c91:	0b99      	s32i.n	a9, a11, 0
    3c93:	0238b6        	bltui	a8, 3, 0x3c99
    3c96:	ff6c46        	j	0x3a4b
    3c99:	3198      	l32i.n	a9, a1, 12
    3c9b:	010992        	l8ui	a9, a9, 1
    3c9e:	fbc9b2        	addi	a11, a9, -5
    3ca1:	df8b16        	beqz	a11, 0x3a9d
    3ca4:	fdc9b2        	addi	a11, a9, -3
    3ca7:	df2b16        	beqz	a11, 0x3a9d
    3caa:	d9d956        	bnez	a9, 0x3a4b
    3cad:	ff7b06        	j	0x3a9d
    3cb0:	1207b2        	l8ui	a11, a7, 18
    3cb3:	0a97a2        	l16si	a10, a7, 20
    3cb6:	0983e5        	excw
    3cb9:	3acc      	bnez.n	a10, 0x3cc0
    3cbb:	0c0c      	movi.n	a12, 0
    3cbd:	0a57c2        	s16i	a12, a7, 20
    3cc0:	1c0c      	movi.n	a12, 1
    3cc2:	b979e1        	l32r	a14, 0xffff22a8
    3cc5:	98a1f2        	movi	a15, 0x198
    3cc8:	c1f6f0        	mul16u	a15, a6, a15
    3ccb:	b92db1        	l32r	a11, 0xffff2180
    3cce:	eefa      	add.n	a14, a14, a15
    3cd0:	800ed2        	l8ui	a13, a14, 128
    3cd3:	3c23f6        	bgeui	a3, 2, 0x3d13
    3cd6:	091c      	movi.n	a9, 16
    3cd8:	209d90        	or	a9, a13, a9
    3cdb:	b951d1        	l32r	a13, 0xffff2220
    3cde:	804e92        	s8i	a9, a14, 128
    3ce1:	9e0bb2        	l8ui	a11, a11, 158
    3ce4:	0c4dc2        	s8i	a12, a13, 12
    3ce7:	bb0b      	addi.n	a11, a11, -1
    3ce9:	ea4b56        	bnez	a11, 0x3b91
    3cec:	30cdc2        	addi	a12, a13, 48
    3cef:	20cde2        	addi	a14, a13, 32
    3cf2:	e6ea      	add.n	a14, a6, a14
    3cf4:	c6ca      	add.n	a12, a6, a12
    3cf6:	000cd2        	l8ui	a13, a12, 0
    3cf9:	004ed2        	s8i	a13, a14, 0
    3cfc:	004c32        	s8i	a3, a12, 0
    3cff:	ffa386        	j	0x3b91
    3d02:	06ad      	mov.n	a10, a6
    3d04:	fe4ce5        	excw
    3d07:	41a9      	s32i.n	a10, a1, 16
    3d09:	1607f2        	l8ui	a15, a7, 22
    3d0c:	27d8      	l32i.n	a13, a7, 8
    3d0e:	0fed      	mov.n	a14, a15
    3d10:	ff2e46        	j	0x39cd
    3d13:	efa092        	movi	a9, 239
    3d16:	109d90        	and	a9, a13, a9
    3d19:	ffef86        	j	0x3cdb
    3d1c:	61b8      	l32i.n	a11, a1, 24
    3d1e:	3198      	l32i.n	a9, a1, 12
    3d20:	023bb6        	bltui	a11, 3, 0x3d26
    3d23:	ff4906        	j	0x3a4b
    3d26:	010992        	l8ui	a9, a9, 1
    3d29:	fbc9c2        	addi	a12, a9, -5
    3d2c:	d6dc16        	beqz	a12, 0x3a9d
    3d2f:	fdc9b2        	addi	a11, a9, -3
    3d32:	d67b16        	beqz	a11, 0x3a9d
    3d35:	d12956        	bnez	a9, 0x3a4b
    3d38:	ff5846        	j	0x3a9d
    3d3b:	813600        	src	a3, a6, a0
    3d3e:	040c00        	extui	a0, a0, 12, 1
    3d41:	0b2c      	movi.n	a11, 32
    3d43:	0c4c      	movi.n	a12, 64
    3d45:	fa7c      	movi.n	a10, -1
    3d47:	1e0c      	movi.n	a14, 1
    3d49:	2f0c      	movi.n	a15, 2
    3d4b:	060c      	movi.n	a6, 0
    3d4d:	02dd      	mov.n	a13, a2
    3d4f:	039d      	mov.n	a9, a3
    3d51:	020c      	movi.n	a2, 0
    3d53:	013d      	mov.n	a3, a1
    3d55:	31d9      	s32i.n	a13, a1, 12
    3d57:	2199      	s32i.n	a9, a1, 8
    3d59:	5169      	s32i.n	a6, a1, 20
    3d5b:	b91061        	l32r	a6, 0xffff219c
    3d5e:	a07430        	addx4	a7, a4, a3
    3d61:	905440        	addx2	a5, a4, a4
    3d64:	b05560        	addx8	a5, a5, a6
    3d67:	5e15d2        	l16ui	a13, a5, 188
    3d6a:	07a9      	s32i.n	a10, a7, 0
    3d6c:	290db7        	bnone	a13, a11, 0x3d99
    3d6f:	170dc7        	bnone	a13, a12, 0x3d8a
    3d72:	b92f51        	l32r	a5, 0xffff2230
    3d75:	3e2582        	l32i	a8, a5, 248
    3d78:	04ad      	mov.n	a10, a4
    3d7a:	0008e0        	excw
    3d7d:	fa7c      	movi.n	a10, -1
    3d7f:	0b2c      	movi.n	a11, 32
    3d81:	0c4c      	movi.n	a12, 64
    3d83:	1e0c      	movi.n	a14, 1
    3d85:	2f0c      	movi.n	a15, 2
    3d87:	000506        	j	0x3d9f
    3d8a:	07f9      	s32i.n	a15, a7, 0
    3d8c:	190c      	movi.n	a9, 1
    3d8e:	208dc0        	or	a8, a13, a12
    3d91:	5e5582        	s16i	a8, a5, 188
    3d94:	5199      	s32i.n	a9, a1, 20
    3d96:	000146        	j	0x3d9f
    3d99:	0490d0        	extui	a9, a13, 0, 1
    3d9c:	932e90        	movnez	a2, a14, a9
    3d9f:	441b      	addi.n	a4, a4, 1
    3da1:	744040        	extui	a4, a4, 0, 8
    3da4:	fb6416        	beqz	a4, 0x3d5e
    3da7:	72dc      	bnez.n	a2, 0x3dc2
    3da9:	5188      	l32i.n	a8, a1, 20
    3dab:	d8cc      	bnez.n	a8, 0x3dbc
    3dad:	b97aa1        	l32r	a10, 0xffff2398
    3db0:	b40692        	l8ui	a9, a6, 180
    3db3:	fea0b2        	movi	a11, 254
    3db6:	1099b0        	and	a9, a9, a11
    3db9:	344a92        	s8i	a9, a10, 52
    3dbc:	22cc      	bnez.n	a2, 0x3dc2
    3dbe:	f27c      	movi.n	a2, -1
    3dc0:	f01d      	excw
    3dc2:	b96931        	l32r	a3, 0xffff2368
    3dc5:	040c      	movi.n	a4, 0
    3dc7:	b92f21        	l32r	a2, 0xffff2284
    3dca:	905440        	addx2	a5, a4, a4
    3dcd:	b05560        	addx8	a5, a5, a6
    3dd0:	5e15e2        	l16ui	a14, a5, 188
    3dd3:	04e0e0        	extui	a14, a14, 0, 1
    3dd6:	099e16        	beqz	a14, 0x3e73
    3dd9:	272282        	l32i	a8, a2, 156
    3ddc:	c205a2        	l8ui	a10, a5, 194
    3ddf:	0008e0        	excw
    3de2:	b97b91        	l32r	a9, 0xffff23d0
    3de5:	2e2572        	l32i	a7, a5, 184
    3de8:	41a9      	s32i.n	a10, a1, 16
    3dea:	c0a7a0        	sub	a10, a7, a10
    3ded:	10aa30        	and	a10, a10, a3
    3df0:	39b9a7        	bgeu	a9, a10, 0x3e2d
    3df3:	41a8      	l32i.n	a10, a1, 16
    3df5:	c405b2        	l8ui	a11, a5, 196
    3df8:	61b9      	s32i.n	a11, a1, 24
    3dfa:	c0aa70        	sub	a10, a10, a7
    3dfd:	10aa30        	and	a10, a10, a3
    3e00:	11a9      	s32i.n	a10, a1, 4
    3e02:	0973e5        	excw
    3e05:	61b8      	l32i.n	a11, a1, 24
    3e07:	11d8      	l32i.n	a13, a1, 4
    3e09:	82cba0        	mull	a12, a11, a10
    3e0c:	01bcd7        	bgeu	a12, a13, 0x3e11
    3e0f:	cbca      	add.n	a12, a11, a12
    3e11:	b97cb1        	l32r	a11, 0xffff2404
    3e14:	a7ca      	add.n	a10, a7, a12
    3e16:	10aa30        	and	a10, a10, a3
    3e19:	2e65a2        	s32i	a10, a5, 184
    3e1c:	781692        	l16ui	a9, a6, 240
    3e1f:	442282        	l32i	a8, a2, 0x110
    3e22:	991b      	addi.n	a9, a9, 1
    3e24:	785692        	s16i	a9, a6, 240
    3e27:	c205a2        	l8ui	a10, a5, 194
    3e2a:	0008e0        	excw
    3e2d:	c205a2        	l8ui	a10, a5, 194
    3e30:	fe3a25        	excw
    3e33:	bb0c      	movi.n	a11, 11
    3e35:	282282        	l32i	a8, a2, 160
    3e38:	2e25c2        	l32i	a12, a5, 184
    3e3b:	017d      	mov.n	a7, a1
    3e3d:	a07470        	addx4	a7, a4, a7
    3e40:	c0cca0        	sub	a12, a12, a10
    3e43:	c205a2        	l8ui	a10, a5, 194
    3e46:	10cc30        	and	a12, a12, a3
    3e49:	07c9      	s32i.n	a12, a7, 0
    3e4b:	0008e0        	excw
    3e4e:	07a9      	s32i.n	a10, a7, 0
    3e50:	fadc      	bnez.n	a10, 0x3e73
    3e52:	00a2f2        	movi	a15, 0x200
    3e55:	2e25c2        	l32i	a12, a5, 184
    3e58:	c405b2        	l8ui	a11, a5, 196
    3e5b:	5e15e2        	l16ui	a14, a5, 188
    3e5e:	bbca      	add.n	a11, a11, a12
    3e60:	10bb30        	and	a11, a11, a3
    3e63:	2e65b2        	s32i	a11, a5, 184
    3e66:	2c0ef7        	bnone	a14, a15, 0x3e96
    3e69:	41d8      	l32i.n	a13, a1, 16
    3e6b:	c0dbd0        	sub	a13, a11, a13
    3e6e:	10dd30        	and	a13, a13, a3
    3e71:	07d9      	s32i.n	a13, a7, 0
    3e73:	441b      	addi.n	a4, a4, 1
    3e75:	744040        	extui	a4, a4, 0, 8
    3e78:	f4e416        	beqz	a4, 0x3dca
    3e7b:	3198      	l32i.n	a9, a1, 12
    3e7d:	c20682        	l8ui	a8, a6, 194
    3e80:	004982        	s8i	a8, a9, 0
    3e83:	c206a2        	l8ui	a10, a6, 194
    3e86:	fe34e5        	excw
    3e89:	0128      	l32i.n	a2, a1, 0
    3e8b:	21b8      	l32i.n	a11, a1, 8
    3e8d:	aa2a      	add.n	a10, a10, a2
    3e8f:	10aa30        	and	a10, a10, a3
    3e92:	0ba9      	s32i.n	a10, a11, 0
    3e94:	f01d      	excw
    3e96:	020c      	movi.n	a2, 0
    3e98:	b951c1        	l32r	a12, 0xffff23dc
    3e9b:	1b0c      	movi.n	a11, 1
    3e9d:	0d4cb2        	s8i	a11, a12, 13
    3ea0:	f01d      	excw
    3ea2:	360000        	excw
    3ea5:	2200e1        	l32r	a14, 0xfffcc6a8
    3ea8:	711361        	l32r	a6, 0xfffe02f4
    3eab:	2f          	.byte 0x2f
    3eac:	41b9      	s32i.n	a11, a1, 16
    3eae:	7cb910        	excw
    3eb1:	52fc      	bnez.n	a2, 0x3eea
    3eb3:	52ffa0        	excw
    3eb6:	c90041        	l32r	a4, 0xffff62b8
    3eb9:	14a811        	l32r	a1, 0xfffc915c
    3ebc:	352782        	l32i	a8, a7, 212
    3ebf:	41a1a0        	srli	a10, a10, 1
    3ec2:	0008e0        	excw
    3ec5:	b96521        	l32r	a2, 0xffff245c
    3ec8:	b95861        	l32r	a6, 0xffff2428
    3ecb:	0b1c      	movi.n	a11, 16
    3ecd:	b91f91        	l32r	a9, 0xffff234c
    3ed0:	0d0c      	movi.n	a13, 0
    3ed2:	0659d2        	s16i	a13, a9, 12
    3ed5:	0e49d2        	s8i	a13, a9, 14
    3ed8:	80c932        	addi	a3, a9, -128
    3edb:	1a09c2        	l8ui	a12, a9, 26
    3ede:	1a49b2        	s8i	a11, a9, 26
    3ee1:	f1c9      	s32i.n	a12, a1, 60
    3ee3:	1b0992        	l8ui	a9, a9, 27
    3ee6:	a199      	s32i.n	a9, a1, 40
    3ee8:	9e0c      	movi.n	a14, 9
    3eea:	ff0c      	movi.n	a15, 15
    3eec:	b93dd1        	l32r	a13, 0xffff23e0
    3eef:	0020c0        	memw
    3ef2:	422282        	l32i	a8, a2, 0x108
    3ef5:	2189      	s32i.n	a8, a1, 8
    3ef7:	0020c0        	memw
    3efa:	9e26b2        	l32i	a11, a6, 0x278
    3efd:	31b9      	s32i.n	a11, a1, 12
    3eff:	0020c0        	memw
    3f02:	9f26c2        	l32i	a12, a6, 0x27c
    3f05:	41c9      	s32i.n	a12, a1, 16
    3f07:	0020c0        	memw
    3f0a:	9526a2        	l32i	a10, a6, 0x254
    3f0d:	64a7a0        	extui	a10, a10, 7, 7
    3f10:	1441a2        	s8i	a10, a1, 20
    3f13:	b94291        	l32r	a9, 0xffff241c
    3f16:	0020c0        	memw
    3f19:	812992        	l32i	a9, a9, 0x204
    3f1c:	980382        	l8ui	a8, a3, 152
    3f1f:	154192        	s8i	a9, a1, 21
    3f22:	4898e7        	bne	a8, a14, 0x3f6e
    3f25:	9903c2        	l8ui	a12, a3, 153
    3f28:	421c57        	beq	a12, a5, 0x3f6e
    3f2b:	98a172        	movi	a7, 0x198
    3f2e:	c17c70        	mul16u	a7, a12, a7
    3f31:	b95e91        	l32r	a9, 0xffff24ac
    3f34:	87da      	add.n	a8, a7, a13
    3f36:	920882        	l8ui	a8, a8, 146
    3f39:	949a      	add.n	a9, a4, a9
    3f3b:	908880        	addx2	a8, a8, a8
    3f3e:	b08840        	addx8	a8, a8, a4
    3f41:	5e1882        	l16ui	a8, a8, 188
    3f44:	779a      	add.n	a7, a7, a9
    3f46:	246837        	bbci	a8, 3, 0x3f6e
    3f49:	900382        	l8ui	a8, a3, 144
    3f4c:	1e98f7        	bne	a8, a15, 0x3f6e
    3f4f:	1bebb7        	bbsi	a11, 11, 0x3f6e
    3f52:	b97d81        	l32r	a8, 0xffff2548
    3f55:	6888      	l32i.n	a8, a8, 24
    3f57:	4a1c      	movi.n	a10, 20
    3f59:	0008e0        	excw
    3f5c:	2807a2        	l8ui	a10, a7, 40
    3f5f:	b93381        	l32r	a8, 0xffff242c
    3f62:	0b0c      	movi.n	a11, 0
    3f64:	922882        	l32i	a8, a8, 0x248
    3f67:	1c0c      	movi.n	a12, 1
    3f69:	0008e0        	excw
    3f6c:	9e0c      	movi.n	a14, 9
    3f6e:	b927b1        	l32r	a11, 0xffff240c
    3f71:	98a1c2        	movi	a12, 0x198
    3f74:	b92aa1        	l32r	a10, 0xffff241c
    3f77:	b97e91        	l32r	a9, 0xffff2570
    3f7a:	7303f2        	l8ui	a15, a3, 115
    3f7d:	91f9      	s32i.n	a15, a1, 36
    3f7f:	b07f90        	addx8	a7, a15, a9
    3f82:	7f0782        	l8ui	a8, a7, 127
    3f85:	810772        	l8ui	a7, a7, 129
    3f88:	d80aa2        	l8ui	a10, a10, 216
    3f8b:	c1c7c0        	mul16u	a12, a7, a12
    3f8e:	126182        	s32i	a8, a1, 72
    3f91:	bbca      	add.n	a11, a11, a12
    3f93:	b928c1        	l32r	a12, 0xffff2434
    3f96:	7f2bb2        	l32i	a11, a11, 0x1fc
    3f99:	c0f750        	sub	a15, a7, a5
    3f9c:	10bbc0        	and	a11, a11, a12
    3f9f:	0c0c      	movi.n	a12, 0
    3fa1:	83bcf0        	moveqz	a11, a12, a15
    3fa4:	c1b9      	s32i.n	a11, a1, 48
    3fa6:	b97ff1        	l32r	a15, 0xffff25a4
    3fa9:	faac      	beqz.n	a10, 0x3fdc
    3fab:	132182        	l32i	a8, a1, 76
    3fae:	058c80        	extui	a8, a8, 28, 1
    3fb1:	3c6816        	beqz	a8, 0x437b
    3fb4:	0020c0        	memw
    3fb7:	402292        	l32i	a9, a2, 0x100
    3fba:	1ef9d7        	bbsi	a9, 29, 0x3fdc
    3fbd:	1321a2        	l32i	a10, a1, 76
    3fc0:	18fad7        	bbsi	a10, 29, 0x3fdc
    3fc3:	07ad      	mov.n	a10, a7
    3fc5:	0b0c      	movi.n	a11, 0
    3fc7:	0e0c      	movi.n	a14, 0
    3fc9:	31d8      	l32i.n	a13, a1, 12
    3fcb:	21c8      	l32i.n	a12, a1, 8
    3fcd:	b91b81        	l32r	a8, 0xffff243c
    3fd0:	94c5c0        	extui	a12, a12, 5, 10
    3fd3:	d02882        	l32i	a8, a8, 0x340
    3fd6:	34d3d0        	extui	a13, a13, 3, 4
    3fd9:	0008e0        	excw
    3fdc:	b981c1        	l32r	a12, 0xffff25e0
    3fdf:	1321b2        	l32i	a11, a1, 76
    3fe2:	b98061        	l32r	a6, 0xffff25e4
    3fe5:	122182        	l32i	a8, a1, 72
    3fe8:	1a2692        	l32i	a9, a6, 104
    3feb:	908880        	addx2	a8, a8, a8
    3fee:	10bbc0        	and	a11, a11, a12
    3ff1:	11a8e0        	slli	a10, a8, 2
    3ff4:	b1a9      	s32i.n	a10, a1, 44
    3ff6:	a08890        	addx4	a8, a8, a9
    3ff9:	1888      	l32i.n	a8, a8, 4
    3ffb:	07ad      	mov.n	a10, a7
    3ffd:	0008e0        	excw
    4000:	b92a91        	l32r	a9, 0xffff24a8
    4003:	d80992        	l8ui	a9, a9, 216
    4006:	89bc      	beqz.n	a9, 0x4042
    4008:	0020c0        	memw
    400b:	4022a2        	l32i	a10, a2, 0x100
    400e:	307ac7        	bbci	a10, 28, 0x4042
    4011:	0020c0        	memw
    4014:	b97fc1        	l32r	a12, 0xffff2610
    4017:	4062c2        	s32i	a12, a2, 0x100
    401a:	0020c0        	memw
    401d:	4022b2        	l32i	a11, a2, 0x100
    4020:	1efbd7        	bbsi	a11, 29, 0x4042
    4023:	1321d2        	l32i	a13, a1, 76
    4026:	18fdd7        	bbsi	a13, 29, 0x4042
    4029:	07ad      	mov.n	a10, a7
    402b:	0b0c      	movi.n	a11, 0
    402d:	0e0c      	movi.n	a14, 0
    402f:	31d8      	l32i.n	a13, a1, 12
    4031:	21c8      	l32i.n	a12, a1, 8
    4033:	b91b81        	l32r	a8, 0xffff24a0
    4036:	94c5c0        	extui	a12, a12, 5, 10
    4039:	d02882        	l32i	a8, a8, 0x340
    403c:	34d3d0        	extui	a13, a13, 3, 4
    403f:	0008e0        	excw
    4042:	020c      	movi.n	a2, 0
    4044:	9003e2        	l8ui	a14, a3, 144
    4047:	730392        	l8ui	a9, a3, 115
    404a:	21e9      	s32i.n	a14, a1, 8
    404c:	0289b6        	bltui	a9, 8, 0x4052
    404f:	00c346        	j	0x4360
    4052:	b92f81        	l32r	a8, 0xffff2510
    4055:	1c2882        	l32i	a8, a8, 112
    4058:	91a8      	l32i.n	a10, a1, 36
    405a:	0008e0        	excw
    405d:	b93691        	l32r	a9, 0xffff2538
    4060:	750992        	l8ui	a9, a9, 117
    4063:	698c      	beqz.n	a9, 0x406d
    4065:	b929a1        	l32r	a10, 0xffff250c
    4068:	0b0c      	movi.n	a11, 0
    406a:	affea5        	excw
    406d:	b504a2        	l8ui	a10, a4, 181
    4070:	6a8c      	beqz.n	a10, 0x407a
    4072:	b929a1        	l32r	a10, 0xffff2518
    4075:	0b0c      	movi.n	a11, 0
    4077:	affde5        	excw
    407a:	734352        	s8i	a5, a3, 115
    407d:	7f6422        	s32i	a2, a4, 0x1fc
    4080:	b93cb1        	l32r	a11, 0xffff2570
    4083:	b91fc1        	l32r	a12, 0xffff2500
    4086:	1221d2        	l32i	a13, a1, 72
    4089:	184cd2        	s8i	a13, a12, 24
    408c:	194c72        	s8i	a7, a12, 25
    408f:	100bb2        	l8ui	a11, a11, 16
    4092:	144c22        	s8i	a2, a12, 20
    4095:	0bec      	bnez.n	a11, 0x40b9
    4097:	b93ce1        	l32r	a14, 0xffff2588
    409a:	130ee2        	l8ui	a14, a14, 19
    409d:	089e57        	bne	a14, a5, 0x40a9
    40a0:	b93cf1        	l32r	a15, 0xffff2590
    40a3:	160ff2        	l8ui	a15, a15, 22
    40a6:	0f1f57        	beq	a15, a5, 0x40b9
    40a9:	31b8      	l32i.n	a11, a1, 12
    40ab:	b91b81        	l32r	a8, 0xffff2518
    40ae:	14a8      	l32i.n	a10, a4, 4
    40b0:	682882        	l32i	a8, a8, 0x1a0
    40b3:	41a1a0        	srli	a10, a10, 1
    40b6:	0008e0        	excw
    40b9:	b93691        	l32r	a9, 0xffff2594
    40bc:	740992        	l8ui	a9, a9, 116
    40bf:	141957        	beq	a9, a5, 0x40d7
    40c2:	01ad      	mov.n	a10, a1
    40c4:	b92f81        	l32r	a8, 0xffff2580
    40c7:	b14b      	addi.n	a11, a1, 4
    40c9:	6a2882        	l32i	a8, a8, 0x1a8
    40cc:	0c0c      	movi.n	a12, 0
    40ce:	0008e0        	excw
    40d1:	1061a2        	s32i	a10, a1, 64
    40d4:	000106        	j	0x40dc
    40d7:	f97c      	movi.n	a9, -1
    40d9:	106192        	s32i	a9, a1, 64
    40dc:	b404a2        	l8ui	a10, a4, 180
    40df:	11b8      	l32i.n	a11, a1, 4
    40e1:	0001c2        	l8ui	a12, a1, 0
    40e4:	1161c2        	s32i	a12, a1, 68
    40e7:	d1b9      	s32i.n	a11, a1, 52
    40e9:	186a07        	bbci	a10, 0, 0x4105
    40ec:	b92f81        	l32r	a8, 0xffff25a8
    40ef:	01ad      	mov.n	a10, a1
    40f1:	402882        	l32i	a8, a8, 0x100
    40f4:	b14b      	addi.n	a11, a1, 4
    40f6:	0008e0        	excw
    40f9:	0acd      	mov.n	a12, a10
    40fb:	11e8      	l32i.n	a14, a1, 4
    40fd:	000192        	l8ui	a9, a1, 0
    4100:	e199      	s32i.n	a9, a1, 56
    4102:	0000c6        	j	0x4109
    4105:	fe7c      	movi.n	a14, -1
    4107:	fc7c      	movi.n	a12, -1
    4109:	1021a2        	l32i	a10, a1, 64
    410c:	0ebca7        	bgeu	a12, a10, 0x411e
    410f:	b91fb1        	l32r	a11, 0xffff258c
    4112:	e1d8      	l32i.n	a13, a1, 56
    4114:	2bc9      	s32i.n	a12, a11, 8
    4116:	154bd2        	s8i	a13, a11, 21
    4119:	1be9      	s32i.n	a14, a11, 4
    411b:	000386        	j	0x412d
    411e:	d1f8      	l32i.n	a15, a1, 52
    4120:	b91f81        	l32r	a8, 0xffff259c
    4123:	112192        	l32i	a9, a1, 68
    4126:	28a9      	s32i.n	a10, a8, 8
    4128:	154892        	s8i	a9, a8, 21
    412b:	18f9      	s32i.n	a15, a8, 4
    412d:	b982b1        	l32r	a11, 0xffff2738
    4130:	b98381        	l32r	a8, 0xffff273c
    4133:	e90bb2        	l8ui	a11, a11, 233
    4136:	7203f2        	l8ui	a15, a3, 114
    4139:	361b57        	beq	a11, a5, 0x4173
    413c:	81e9      	s32i.n	a14, a1, 32
    413e:	71c9      	s32i.n	a12, a1, 28
    4140:	b0ff80        	addx8	a15, a15, a8
    4143:	5b0ff2        	l8ui	a15, a15, 91
    4146:	4d1c      	movi.n	a13, 20
    4148:	27bdf7        	bgeu	a13, a15, 0x4173
    414b:	01ad      	mov.n	a10, a1
    414d:	b98481        	l32r	a8, 0xffff2760
    4150:	b14b      	addi.n	a11, a1, 4
    4152:	352882        	l32i	a8, a8, 212
    4155:	0c0c      	movi.n	a12, 0
    4157:	0008e0        	excw
    415a:	71c8      	l32i.n	a12, a1, 28
    415c:	822492        	l32i	a9, a4, 0x208
    415f:	81e8      	l32i.n	a14, a1, 32
    4161:	0eba97        	bgeu	a10, a9, 0x4173
    4164:	11b8      	l32i.n	a11, a1, 4
    4166:	b91fd1        	l32r	a13, 0xffff25e4
    4169:	0001f2        	l8ui	a15, a1, 0
    416c:	2da9      	s32i.n	a10, a13, 8
    416e:	154df2        	s8i	a15, a13, 21
    4171:	1db9      	s32i.n	a11, a13, 4
    4173:	b951f1        	l32r	a15, 0xffff26b8
    4176:	b985a1        	l32r	a10, 0xffff278c
    4179:	0c0fb2        	l8ui	a11, a15, 12
    417c:	0d0f92        	l8ui	a9, a15, 13
    417f:	451b66        	bnei	a11, 1, 0x41c8
    4182:	421926        	beqi	a9, 1, 0x41c8
    4185:	6303c2        	l8ui	a12, a3, 99
    4188:	029c57        	bne	a12, a5, 0x418e
    418b:	002246        	j	0x4218
    418e:	b93d81        	l32r	a8, 0xffff2684
    4191:	98a192        	movi	a9, 0x198
    4194:	c19c90        	mul16u	a9, a12, a9
    4197:	898a      	add.n	a8, a9, a8
    4199:	6d0882        	l8ui	a8, a8, 109
    419c:	078856        	bnez	a8, 0x4218
    419f:	b9aa      	add.n	a11, a9, a10
    41a1:	810bb2        	l8ui	a11, a11, 129
    41a4:	701b66        	bnei	a11, 1, 0x4218
    41a7:	b93cc1        	l32r	a12, 0xffff2698
    41aa:	1f0cc2        	l8ui	a12, a12, 31
    41ad:	067c16        	beqz	a12, 0x4218
    41b0:	0c4f22        	s8i	a2, a15, 12
    41b3:	fd7c      	movi.n	a13, -1
    41b5:	b93681        	l32r	a8, 0xffff2690
    41b8:	b91fe1        	l32r	a14, 0xffff2634
    41bb:	754822        	s8i	a2, a8, 117
    41be:	154e52        	s8i	a5, a14, 21
    41c1:	2ed9      	s32i.n	a13, a14, 8
    41c3:	1ed9      	s32i.n	a13, a14, 4
    41c5:	001c06        	j	0x4239
    41c8:	2d0c      	movi.n	a13, 2
    41ca:	6e1966        	bnei	a9, 1, 0x423c
    41cd:	8b0b      	addi.n	a8, a11, -1
    41cf:	261816        	beqz	a8, 0x4434
    41d2:	6303c2        	l8ui	a12, a3, 99
    41d5:	c09c50        	sub	a9, a12, a5
    41d8:	216916        	beqz	a9, 0x43f2
    41db:	b93db1        	l32r	a11, 0xffff26d0
    41de:	98a192        	movi	a9, 0x198
    41e1:	c19c90        	mul16u	a9, a12, a9
    41e4:	b9ba      	add.n	a11, a9, a11
    41e6:	6d0bb2        	l8ui	a11, a11, 109
    41e9:	205b56        	bnez	a11, 0x43f2
    41ec:	b93cb1        	l32r	a11, 0xffff26dc
    41ef:	1f0bb2        	l8ui	a11, a11, 31
    41f2:	1fcb16        	beqz	a11, 0x43f2
    41f5:	c9aa      	add.n	a12, a9, a10
    41f7:	7f0cc2        	l8ui	a12, a12, 127
    41fa:	023cf6        	bgeui	a12, 3, 0x4200
    41fd:	007c46        	j	0x43f2
    4200:	0d4f22        	s8i	a2, a15, 13
    4203:	fd7c      	movi.n	a13, -1
    4205:	b97a81        	l32r	a8, 0xffff27f0
    4208:	b91fe1        	l32r	a14, 0xffff2684
    420b:	354822        	s8i	a2, a8, 53
    420e:	154e52        	s8i	a5, a14, 21
    4211:	2ed9      	s32i.n	a13, a14, 8
    4213:	1ed9      	s32i.n	a13, a14, 4
    4215:	0080c6        	j	0x441c
    4218:	9a0c      	movi.n	a10, 9
    421a:	0b0c      	movi.n	a11, 0
    421c:	b92f81        	l32r	a8, 0xffff26d8
    421f:	112192        	l32i	a9, a1, 68
    4222:	1f2882        	l32i	a8, a8, 124
    4225:	5b4392        	s8i	a9, a3, 91
    4228:	0008e0        	excw
    422b:	b936b1        	l32r	a11, 0xffff2704
    422e:	1a0c      	movi.n	a10, 1
    4230:	b951f1        	l32r	a15, 0xffff2774
    4233:	754ba2        	s8i	a10, a11, 117
    4236:	0c4f22        	s8i	a2, a15, 12
    4239:	0c4f22        	s8i	a2, a15, 12
    423c:	7203c2        	l8ui	a12, a3, 114
    423f:	0aacb6        	bltui	a12, 12, 0x424d
    4242:	b929a1        	l32r	a10, 0xffff26e8
    4245:	0b0c      	movi.n	a11, 0
    4247:	afe0e5        	excw
    424a:	7203c2        	l8ui	a12, a3, 114
    424d:	8224b2        	l32i	a11, a4, 0x208
    4250:	b98091        	l32r	a9, 0xffff2850
    4253:	b97e21        	l32r	a2, 0xffff284c
    4256:	7343c2        	s8i	a12, a3, 115
    4259:	b02c20        	addx8	a2, a12, a2
    425c:	7e0262        	l8ui	a6, a2, 126
    425f:	724362        	s8i	a6, a3, 114
    4262:	810262        	l8ui	a6, a2, 129
    4265:	7f0222        	l8ui	a2, a2, 127
    4268:	1a2992        	l32i	a9, a9, 104
    426b:	908220        	addx2	a8, a2, a2
    426e:	a08890        	addx4	a8, a8, a9
    4271:	0888      	l32i.n	a8, a8, 0
    4273:	06ad      	mov.n	a10, a6
    4275:	0008e0        	excw
    4278:	5acc      	bnez.n	a10, 0x4281
    427a:	0a0c      	movi.n	a10, 0
    427c:	1b0c      	movi.n	a11, 1
    427e:	afdd65        	excw
    4281:	730382        	l8ui	a8, a3, 115
    4284:	b41857        	beq	a8, a5, 0x423c
    4287:	b92a91        	l32r	a9, 0xffff2730
    428a:	d80992        	l8ui	a9, a9, 216
    428d:	9a0c      	movi.n	a10, 9
    428f:	06f916        	beqz	a9, 0x4302
    4292:	2e92a7        	bne	a2, a10, 0x42c4
    4295:	0c0c      	movi.n	a12, 0
    4297:	1b0c      	movi.n	a11, 1
    4299:	06ad      	mov.n	a10, a6
    429b:	0020c0        	memw
    429e:	b958d1        	l32r	a13, 0xffff2800
    42a1:	9c2df2        	l32i	a15, a13, 0x270
    42a4:	05f4f0        	extui	a15, a15, 20, 1
    42a7:	11ffc0        	slli	a15, a15, 4
    42aa:	0020c0        	memw
    42ad:	1e0c      	movi.n	a14, 1
    42af:	9c2dd2        	l32i	a13, a13, 0x270
    42b2:	b91b81        	l32r	a8, 0xffff2720
    42b5:	35d0d0        	extui	a13, a13, 16, 4
    42b8:	d02882        	l32i	a8, a8, 0x340
    42bb:	20ddf0        	or	a13, a13, a15
    42be:	0008e0        	excw
    42c1:	000f46        	j	0x4302
    42c4:	0020c0        	memw
    42c7:	b95881        	l32r	a8, 0xffff2828
    42ca:	882882        	l32i	a8, a8, 0x220
    42cd:	348080        	extui	a8, a8, 0, 4
    42d0:	2e68f6        	bgeui	a8, 6, 0x4302
    42d3:	06ad      	mov.n	a10, a6
    42d5:	0020c0        	memw
    42d8:	b958c1        	l32r	a12, 0xffff2838
    42db:	9c2cd2        	l32i	a13, a12, 0x270
    42de:	05d4d0        	extui	a13, a13, 20, 1
    42e1:	11ddc0        	slli	a13, a13, 4
    42e4:	0020c0        	memw
    42e7:	9c2cb2        	l32i	a11, a12, 0x270
    42ea:	35b0b0        	extui	a11, a11, 16, 4
    42ed:	20bbd0        	or	a11, a11, a13
    42f0:	0020c0        	memw
    42f3:	b91b81        	l32r	a8, 0xffff2760
    42f6:	8b2cc2        	l32i	a12, a12, 0x22c
    42f9:	d12882        	l32i	a8, a8, 0x344
    42fc:	14c4c0        	extui	a12, a12, 4, 2
    42ff:	0008e0        	excw
    4302:	1221b2        	l32i	a11, a1, 72
    4305:	c1d8      	l32i.n	a13, a1, 48
    4307:	b93381        	l32r	a8, 0xffff27d4
    430a:	a18b      	addi.n	a10, a1, 8
    430c:	ac2882        	l32i	a8, a8, 0x2b0
    430f:	07cd      	mov.n	a12, a7
    4311:	0008e0        	excw
    4314:	a80392        	l8ui	a9, a3, 168
    4317:	0d6907        	bbci	a9, 0, 0x4328
    431a:	b91b81        	l32r	a8, 0xffff2788
    431d:	14a8      	l32i.n	a10, a4, 4
    431f:	872882        	l32i	a8, a8, 0x21c
    4322:	41a1a0        	srli	a10, a10, 1
    4325:	0008e0        	excw
    4328:	7d24b2        	l32i	a11, a4, 0x1f4
    432b:	150b26        	beqi	a11, -1, 0x4344
    432e:	b98081        	l32r	a8, 0xffff2930
    4331:	b198      	l32i.n	a9, a1, 44
    4333:	1a2882        	l32i	a8, a8, 104
    4336:	889a      	add.n	a8, a8, a9
    4338:	2888      	l32i.n	a8, a8, 8
    433a:	07ad      	mov.n	a10, a7
    433c:	0008e0        	excw
    433f:	f97c      	movi.n	a9, -1
    4341:	7d6492        	s32i	a9, a4, 0x1f4
    4344:	f1a8      	l32i.n	a10, a1, 60
    4346:	14ba26        	beqi	a10, 16, 0x435e
    4349:	b98091        	l32r	a9, 0xffff294c
    434c:	fb7c      	movi.n	a11, -1
    434e:	1a2992        	l32i	a9, a9, 104
    4351:	908aa0        	addx2	a8, a10, a10
    4354:	a08890        	addx4	a8, a8, a9
    4357:	2888      	l32i.n	a8, a8, 8
    4359:	a1a8      	l32i.n	a10, a1, 40
    435b:	0008e0        	excw
    435e:	f01d      	excw
    4360:	f8c9a2        	addi	a10, a9, -8
    4363:	0bba16        	beqz	a10, 0x4422
    4366:	f7c9b2        	addi	a11, a9, -9
    4369:	0beb16        	beqz	a11, 0x442b
    436c:	f6c9c2        	addi	a12, a9, -10
    436f:	ceac56        	bnez	a12, 0x405d
    4372:	b93cd1        	l32r	a13, 0xffff2864
    4375:	104d22        	s8i	a2, a13, 16
    4378:	ff3846        	j	0x405d
    437b:	0020c0        	memw
    437e:	402282        	l32i	a8, a2, 0x100
    4381:	3678c7        	bbci	a8, 28, 0x43bb
    4384:	0020c0        	memw
    4387:	4062f2        	s32i	a15, a2, 0x100
    438a:	0020c0        	memw
    438d:	402292        	l32i	a9, a2, 0x100
    4390:	059d90        	extui	a9, a9, 29, 1
    4393:	c45956        	bnez	a9, 0x3fdc
    4396:	1321a2        	l32i	a10, a1, 76
    4399:	05ada0        	extui	a10, a10, 29, 1
    439c:	c3ca56        	bnez	a10, 0x3fdc
    439f:	07ad      	mov.n	a10, a7
    43a1:	0b0c      	movi.n	a11, 0
    43a3:	0e0c      	movi.n	a14, 0
    43a5:	31d8      	l32i.n	a13, a1, 12
    43a7:	21c8      	l32i.n	a12, a1, 8
    43a9:	b91b81        	l32r	a8, 0xffff2818
    43ac:	94c5c0        	extui	a12, a12, 5, 10
    43af:	d02882        	l32i	a8, a8, 0x340
    43b2:	34d3d0        	extui	a13, a13, 3, 4
    43b5:	0008e0        	excw
    43b8:	ff0806        	j	0x3fdc
    43bb:	122182        	l32i	a8, a1, 72
    43be:	c088e0        	sub	a8, a8, a14
    43c1:	c17856        	bnez	a8, 0x3fdc
    43c4:	0020c0        	memw
    43c7:	402292        	l32i	a9, a2, 0x100
    43ca:	059d90        	extui	a9, a9, 29, 1
    43cd:	c0b956        	bnez	a9, 0x3fdc
    43d0:	1321a2        	l32i	a10, a1, 76
    43d3:	05ada0        	extui	a10, a10, 29, 1
    43d6:	c02a56        	bnez	a10, 0x3fdc
    43d9:	07ad      	mov.n	a10, a7
    43db:	0b0c      	movi.n	a11, 0
    43dd:	0c0c      	movi.n	a12, 0
    43df:	1e0c      	movi.n	a14, 1
    43e1:	b91b81        	l32r	a8, 0xffff2850
    43e4:	31d8      	l32i.n	a13, a1, 12
    43e6:	d02882        	l32i	a8, a8, 0x340
    43e9:	34d3d0        	extui	a13, a13, 3, 4
    43ec:	0008e0        	excw
    43ef:	fefa46        	j	0x3fdc
    43f2:	8a0c      	movi.n	a10, 8
    43f4:	0b0c      	movi.n	a11, 0
    43f6:	b92f81        	l32r	a8, 0xffff28b4
    43f9:	5e1492        	l16ui	a9, a4, 188
    43fc:	c204c2        	l8ui	a12, a4, 194
    43ff:	5343c2        	s8i	a12, a3, 83
    4402:	2099d0        	or	a9, a9, a13
    4405:	1f2882        	l32i	a8, a8, 124
    4408:	5e5492        	s16i	a9, a4, 188
    440b:	0008e0        	excw
    440e:	b97aa1        	l32r	a10, 0xffff29f8
    4411:	190c      	movi.n	a9, 1
    4413:	b951f1        	l32r	a15, 0xffff2958
    4416:	354a92        	s8i	a9, a10, 53
    4419:	0d4f22        	s8i	a2, a15, 13
    441c:	0d4f22        	s8i	a2, a15, 13
    441f:	ff8646        	j	0x423c
    4422:	b97ab1        	l32r	a11, 0xffff2a0c
    4425:	354b22        	s8i	a2, a11, 53
    4428:	ff0c46        	j	0x405d
    442b:	b936c1        	l32r	a12, 0xffff2904
    442e:	754c22        	s8i	a2, a12, 117
    4431:	ff0a06        	j	0x405d
    4434:	890b      	addi.n	a8, a9, -1
    4436:	e02856        	bnez	a8, 0x423c
    4439:	9b0b      	addi.n	a9, a11, -1
    443b:	dfd956        	bnez	a9, 0x423c
    443e:	81e9      	s32i.n	a14, a1, 32
    4440:	0c4f22        	s8i	a2, a15, 12
    4443:	0d4f22        	s8i	a2, a15, 13
    4446:	71c9      	s32i.n	a12, a1, 28
    4448:	b92ff1        	l32r	a15, 0xffff2904
    444b:	9e03a2        	l8ui	a10, a3, 158
    444e:	1f2ff2        	l32i	a15, a15, 124
    4451:	faec      	bnez.n	a10, 0x4484
    4453:	8a0c      	movi.n	a10, 8
    4455:	0b0c      	movi.n	a11, 0
    4457:	5e1482        	l16ui	a8, a4, 188
    445a:	c20492        	l8ui	a9, a4, 194
    445d:	534392        	s8i	a9, a3, 83
    4460:	2088d0        	or	a8, a8, a13
    4463:	5e5482        	s16i	a8, a4, 188
    4466:	000fe0        	excw
    4469:	b97ab1        	l32r	a11, 0xffff2a54
    446c:	1a0c      	movi.n	a10, 1
    446e:	354ba2        	s8i	a10, a11, 53
    4471:	81c8      	l32i.n	a12, a1, 32
    4473:	e1e8      	l32i.n	a14, a1, 56
    4475:	b91fd1        	l32r	a13, 0xffff28f4
    4478:	71f8      	l32i.n	a15, a1, 28
    447a:	2df9      	s32i.n	a15, a13, 8
    447c:	154de2        	s8i	a14, a13, 21
    447f:	1dc9      	s32i.n	a12, a13, 4
    4481:	ff6dc6        	j	0x423c
    4484:	b96c91        	l32r	a9, 0xffff2a34
    4487:	112182        	l32i	a8, a1, 68
    448a:	889a      	add.n	a8, a8, a9
    448c:	6189      	s32i.n	a8, a1, 24
    448e:	000882        	l8ui	a8, a8, 0
    4491:	6f1866        	bnei	a8, 1, 0x4504
    4494:	8a0c      	movi.n	a10, 8
    4496:	0b0c      	movi.n	a11, 0
    4498:	5e14c2        	l16ui	a12, a4, 188
    449b:	c204e2        	l8ui	a14, a4, 194
    449e:	5343e2        	s8i	a14, a3, 83
    44a1:	20ccd0        	or	a12, a12, a13
    44a4:	5e54c2        	s16i	a12, a4, 188
    44a7:	000fe0        	excw
    44aa:	98a1a2        	movi	a10, 0x198
    44ad:	112192        	l32i	a9, a1, 68
    44b0:	8188      	l32i.n	a8, a1, 32
    44b2:	71d8      	l32i.n	a13, a1, 28
    44b4:	b91fe1        	l32r	a14, 0xffff2930
    44b7:	e1f8      	l32i.n	a15, a1, 56
    44b9:	b97ac1        	l32r	a12, 0xffff2aa4
    44bc:	1b0c      	movi.n	a11, 1
    44be:	354cb2        	s8i	a11, a12, 53
    44c1:	154ef2        	s8i	a15, a14, 21
    44c4:	2ed9      	s32i.n	a13, a14, 8
    44c6:	1e89      	s32i.n	a8, a14, 4
    44c8:	c1a9a0        	mul16u	a10, a9, a10
    44cb:	b98681        	l32r	a8, 0xffff2ae4
    44ce:	b987e1        	l32r	a14, 0xffff2aec
    44d1:	88aa      	add.n	a8, a8, a10
    44d3:	99ea      	add.n	a9, a9, a14
    44d5:	0009f2        	l8ui	a15, a9, 0
    44d8:	7f1882        	l16ui	a8, a8, 254
    44db:	ff1b      	addi.n	a15, a15, 1
    44dd:	74f0f0        	extui	a15, a15, 0, 8
    44e0:	0049f2        	s8i	a15, a9, 0
    44e3:	02bf87        	bgeu	a15, a8, 0x44e9
    44e6:	ff5486        	j	0x423c
    44e9:	112192        	l32i	a9, a1, 68
    44ec:	f0cea2        	addi	a10, a14, -16
    44ef:	99aa      	add.n	a9, a9, a10
    44f1:	000992        	l8ui	a9, a9, 0
    44f4:	042926        	beqi	a9, 2, 0x44fc
    44f7:	b90b      	addi.n	a11, a9, -1
    44f9:	d3fb56        	bnez	a11, 0x423c
    44fc:	61c8      	l32i.n	a12, a1, 24
    44fe:	004c22        	s8i	a2, a12, 0
    4501:	ff4dc6        	j	0x423c
    4504:	9a0c      	movi.n	a10, 9
    4506:	0b0c      	movi.n	a11, 0
    4508:	1121d2        	l32i	a13, a1, 68
    450b:	5b43d2        	s8i	a13, a3, 91
    450e:	000fe0        	excw
    4511:	b936a1        	l32r	a10, 0xffff29ec
    4514:	190c      	movi.n	a9, 1
    4516:	d1e8      	l32i.n	a14, a1, 52
    4518:	1121f2        	l32i	a15, a1, 68
    451b:	102182        	l32i	a8, a1, 64
    451e:	7189      	s32i.n	a8, a1, 28
    4520:	e1f9      	s32i.n	a15, a1, 56
    4522:	81e9      	s32i.n	a14, a1, 32
    4524:	754a92        	s8i	a9, a10, 117
    4527:	ffd186        	j	0x4471
    452a:	360000        	excw
    452d:	a10041        	l32r	a4, 0xfffec930
    4530:	b988      	l32i.n	a8, a9, 44
    4532:	0b0c      	movi.n	a11, 0
    4534:	8c2c      	movi.n	a12, 40
    4536:	092425        	excw
    4539:	b951c1        	l32r	a12, 0xffff2a80
    453c:	b941a1        	l32r	a10, 0xffff2a40
    453f:	0d0c      	movi.n	a13, 0
    4541:	281ab2        	l16ui	a11, a10, 80
    4544:	0e4cd2        	s8i	a13, a12, 14
    4547:	fecbb2        	addi	a11, a11, -2
    454a:	74b0b0        	extui	a11, a11, 0, 8
    454d:	8b1b      	addi.n	a8, a11, 1
    454f:	a09bb0        	addx4	a9, a11, a11
    4552:	a099a0        	addx4	a9, a9, a10
    4555:	48a876        	excw
    4558:	5409e2        	l8ui	a14, a9, 84
    455b:	ecc992        	addi	a9, a9, -20
    455e:	23ee00        	excw
    4561:	3a5ee6        	bgei	a14, 5, 0x459f
    4564:	0e4cb2        	s8i	a11, a12, 14
    4567:	1c88      	l32i.n	a8, a12, 4
    4569:	02ad      	mov.n	a10, a2
    456b:	0008e0        	excw
    456e:	b90e21        	l32r	a2, 0xffff29a8
    4571:	0298      	l32i.n	a9, a2, 0
    4573:	2e2992        	l32i	a9, a9, 184
    4576:	b9cc      	bnez.n	a9, 0x4585
    4578:	b929a1        	l32r	a10, 0xffff2a1c
    457b:	0b0c      	movi.n	a11, 0
    457d:	afad65        	excw
    4580:	0298      	l32i.n	a9, a2, 0
    4582:	2e2992        	l32i	a9, a9, 184
    4585:	141966        	bnei	a9, 1, 0x459d
    4588:	b936a1        	l32r	a10, 0xffff2a60
    458b:	9b0c      	movi.n	a11, 9
    458d:	a20aa2        	l8ui	a10, a10, 162
    4590:	b910c1        	l32r	a12, 0xffff29d0
    4593:	6a8c      	beqz.n	a10, 0x459d
    4595:	1f6cb2        	s32i	a11, a12, 124
    4598:	3d0c      	movi.n	a13, 3
    459a:	734cd2        	s8i	a13, a12, 115
    459d:	f01d      	excw
    459f:	bb0b      	addi.n	a11, a11, -1
    45a1:	fff086        	j	0x4567
    45a4:	008136        	excw
    45a7:	03e670        	rsr.ps	a7
    45aa:	2a0c      	movi.n	a10, 2
    45ac:	349070        	extui	a9, a7, 0, 4
    45af:	022a97        	blt	a10, a9, 0x45b5
    45b2:	006270        	rsil	a7, 2
    45b5:	b91b81        	l32r	a8, 0xffff2a24
    45b8:	382882        	l32i	a8, a8, 224
    45bb:	0001a2        	l8ui	a10, a1, 0
    45be:	0008e0        	excw
    45c1:	b92c61        	l32r	a6, 0xffff2a74
    45c4:	030c      	movi.n	a3, 0
    45c6:	b026a2        	l32i	a10, a6, 0x2c0
    45c9:	b98941        	l32r	a4, 0xffff2bf0
    45cc:	144a16        	beqz	a10, 0x4714
    45cf:	b979c1        	l32r	a12, 0xffff2bb4
    45d2:	98a1b2        	movi	a11, 0x198
    45d5:	c1b3b0        	mul16u	a11, a3, a11
    45d8:	5b4a      	add.n	a5, a11, a4
    45da:	690592        	l8ui	a9, a5, 105
    45dd:	055926        	beqi	a9, 5, 0x45e6
    45e0:	fdc9d2        	addi	a13, a9, -3
    45e3:	11fd56        	bnez	a13, 0x4706
    45e6:	ebca      	add.n	a14, a11, a12
    45e8:	800ee2        	l8ui	a14, a14, 128
    45eb:	736e17        	bbci	a14, 1, 0x4662
    45ee:	0002d2        	l8ui	a13, a2, 0
    45f1:	0c0c      	movi.n	a12, 0
    45f3:	90ddd0        	addx2	a13, a13, a13
    45f6:	b0dd20        	addx8	a13, a13, a2
    45f9:	054dc2        	s8i	a12, a13, 5
    45fc:	0002b2        	l8ui	a11, a2, 0
    45ff:	6a05a2        	l8ui	a10, a5, 106
    4602:	90bbb0        	addx2	a11, a11, a11
    4605:	b0bb20        	addx8	a11, a11, a2
    4608:	044ba2        	s8i	a10, a11, 4
    460b:	6025a2        	l32i	a10, a5, 0x180
    460e:	000292        	l8ui	a9, a2, 0
    4611:	be1582        	l16ui	a8, a5, 0x17c
    4614:	909990        	addx2	a9, a9, a9
    4617:	b09920        	addx8	a9, a9, a2
    461a:	055982        	s16i	a8, a9, 10
    461d:	0002f2        	l8ui	a15, a2, 0
    4620:	bc15b2        	l16ui	a11, a5, 0x178
    4623:	21b9      	s32i.n	a11, a1, 8
    4625:	31f9      	s32i.n	a15, a1, 12
    4627:	08f6a5        	excw
    462a:	2188      	l32i.n	a8, a1, 8
    462c:	0a9d      	mov.n	a9, a10
    462e:	31a8      	l32i.n	a10, a1, 12
    4630:	419190        	srli	a9, a9, 1
    4633:	90aaa0        	addx2	a10, a10, a10
    4636:	b0aa20        	addx8	a10, a10, a2
    4639:	035a92        	s16i	a9, a10, 6
    463c:	000292        	l8ui	a9, a2, 0
    463f:	418180        	srli	a8, a8, 1
    4642:	909990        	addx2	a9, a9, a9
    4645:	b09920        	addx8	a9, a9, a2
    4648:	045982        	s16i	a8, a9, 8
    464b:	0002f2        	l8ui	a15, a2, 0
    464e:	90fff0        	addx2	a15, a15, a15
    4651:	b0ff20        	addx8	a15, a15, a2
    4654:	184f32        	s8i	a3, a15, 24
    4657:	0002e2        	l8ui	a14, a2, 0
    465a:	b979c1        	l32r	a12, 0xffff2c40
    465d:	ee1b      	addi.n	a14, a14, 1
    465f:	0042e2        	s8i	a14, a2, 0
    4662:	900592        	l8ui	a9, a5, 144
    4665:	09a956        	bnez	a9, 0x4703
    4668:	b910e1        	l32r	a14, 0xffff2aa8
    466b:	90d990        	addx2	a13, a9, a9
    466e:	b0dde0        	addx8	a13, a13, a14
    4671:	5e1de2        	l16ui	a14, a13, 188
    4674:	41d9      	s32i.n	a13, a1, 16
    4676:	0cee07        	bbsi	a14, 0, 0x4686
    4679:	b929a1        	l32r	a10, 0xffff2b20
    467c:	0b0c      	movi.n	a11, 0
    467e:	af9d65        	excw
    4681:	41d8      	l32i.n	a13, a1, 16
    4683:	5e1de2        	l16ui	a14, a13, 188
    4686:	2c0c      	movi.n	a12, 2
    4688:	1a0c      	movi.n	a10, 1
    468a:	0002b2        	l8ui	a11, a2, 0
    468d:	8f0c      	movi.n	a15, 8
    468f:	10eef0        	and	a14, a14, a15
    4692:	90bbb0        	addx2	a11, a11, a11
    4695:	b0bb20        	addx8	a11, a11, a2
    4698:	93ace0        	movnez	a10, a12, a14
    469b:	054ba2        	s8i	a10, a11, 5
    469e:	000292        	l8ui	a9, a2, 0
    46a1:	6a0582        	l8ui	a8, a5, 106
    46a4:	909990        	addx2	a9, a9, a9
    46a7:	b09920        	addx8	a9, a9, a2
    46aa:	044982        	s8i	a8, a9, 4
    46ad:	2e2da2        	l32i	a10, a13, 184
    46b0:	c90df2        	l8ui	a15, a13, 201
    46b3:	000252        	l8ui	a5, a2, 0
    46b6:	ff2b      	addi.n	a15, a15, 2
    46b8:	905550        	addx2	a5, a5, a5
    46bb:	b05520        	addx8	a5, a5, a2
    46be:	21f1f0        	srai	a15, a15, 1
    46c1:	0555f2        	s16i	a15, a5, 10
    46c4:	000252        	l8ui	a5, a2, 0
    46c7:	c40db2        	l8ui	a11, a13, 196
    46ca:	11b9      	s32i.n	a11, a1, 4
    46cc:	08ec25        	excw
    46cf:	11f8      	l32i.n	a15, a1, 4
    46d1:	4181a0        	srli	a8, a10, 1
    46d4:	909550        	addx2	a9, a5, a5
    46d7:	b09920        	addx8	a9, a9, a2
    46da:	035982        	s16i	a8, a9, 6
    46dd:	000282        	l8ui	a8, a2, 0
    46e0:	41f1f0        	srli	a15, a15, 1
    46e3:	908880        	addx2	a8, a8, a8
    46e6:	b08820        	addx8	a8, a8, a2
    46e9:	0458f2        	s16i	a15, a8, 8
    46ec:	0002e2        	l8ui	a14, a2, 0
    46ef:	90eee0        	addx2	a14, a14, a14
    46f2:	b0ee20        	addx8	a14, a14, a2
    46f5:	184e32        	s8i	a3, a14, 24
    46f8:	0002d2        	l8ui	a13, a2, 0
    46fb:	b979c1        	l32r	a12, 0xffff2ce0
    46fe:	dd1b      	addi.n	a13, a13, 1
    4700:	0042d2        	s8i	a13, a2, 0
    4703:	b026a2        	l32i	a10, a6, 0x2c0
    4706:	98a1b2        	movi	a11, 0x198
    4709:	331b      	addi.n	a3, a3, 1
    470b:	743030        	extui	a3, a3, 0, 8
    470e:	02b3a7        	bgeu	a3, a10, 0x4714
    4711:	ffb006        	j	0x45d5
    4714:	b92a81        	l32r	a8, 0xffff2bbc
    4717:	dc0882        	l8ui	a8, a8, 220
    471a:	b98aa1        	l32r	a10, 0xffff2d44
    471d:	238800        	excw
    4720:	980b      	addi.n	a9, a8, -1
    4722:	5c4a92        	s8i	a9, a10, 92
    4725:	0718e6        	bgei	a8, 1, 0x4730
    4728:	b929a1        	l32r	a10, 0xffff2bcc
    472b:	0b0c      	movi.n	a11, 0
    472d:	af9265        	excw
    4730:	13e670        	wsr.ps	a7
    4733:	002010        	rsync
    4736:	120c      	movi.n	a2, 1
    4738:	f01d      	excw
    473a:	360000        	excw
    473d:	d10061        	l32r	a6, 0xffff8b40
    4740:	b989      	s32i.n	a8, a9, 44
    4742:	b92cb1        	l32r	a11, 0xffff2bf4
    4745:	b98bc1        	l32r	a12, 0xffff2d74
    4748:	b02bb2        	l32i	a11, a11, 0x2c0
    474b:	023d      	mov.n	a3, a2
    474d:	fb9c      	beqz.n	a11, 0x4770
    474f:	00a022        	movi	a2, 0
    4752:	e40ca2        	l8ui	a10, a12, 228
    4755:	149b76        	excw
    4758:	0c1a27        	beq	a10, a2, 0x4768
    475b:	98a1e2        	movi	a14, 0x198
    475e:	c1e2e0        	mul16u	a14, a2, a14
    4761:	edea      	add.n	a14, a13, a14
    4763:	690ee2        	l8ui	a14, a14, 105
    4766:	8e8c      	beqz.n	a14, 0x4772
    4768:	221b      	addi.n	a2, a2, 1
    476a:	742020        	extui	a2, a2, 0, 8
    476d:	000046        	j	0x4772
    4770:	020c      	movi.n	a2, 0
    4772:	ffa052        	movi	a5, 255
    4775:	1e9b27        	bne	a11, a2, 0x4797
    4778:	e40ca2        	l8ui	a10, a12, 228
    477b:	101a57        	beq	a10, a5, 0x478f
    477e:	b95a81        	l32r	a8, 0xffff2ce8
    4781:	98a192        	movi	a9, 0x198
    4784:	c19a90        	mul16u	a9, a10, a9
    4787:	889a      	add.n	a8, a8, a9
    4789:	800882        	l8ui	a8, a8, 128
    478c:	832a80        	moveqz	a2, a10, a8
    478f:	049b27        	bne	a11, a2, 0x4797
    4792:	ffa022        	movi	a2, 255
    4795:	f01d      	excw
    4797:	0b0c      	movi.n	a11, 0
    4799:	b98ca1        	l32r	a10, 0xffff2dcc
    479c:	98a1c2        	movi	a12, 0x198
    479f:	c172c0        	mul16u	a7, a2, a12
    47a2:	b98d81        	l32r	a8, 0xffff2dd8
    47a5:	a7aa      	add.n	a10, a7, a10
    47a7:	47da      	add.n	a4, a7, a13
    47a9:	8f0462        	l8ui	a6, a4, 143
    47ac:	778a      	add.n	a7, a7, a8
    47ae:	0179      	s32i.n	a7, a1, 0
    47b0:	e788      	l32i.n	a8, a7, 56
    47b2:	1189      	s32i.n	a8, a1, 4
    47b4:	f778      	l32i.n	a7, a7, 60
    47b6:	08fc25        	excw
    47b9:	b98fb1        	l32r	a11, 0xffff2df8
    47bc:	6fa0e2        	movi	a14, 111
    47bf:	4d0c      	movi.n	a13, 4
    47c1:	1c0c      	movi.n	a12, 1
    47c3:	b98ea1        	l32r	a10, 0xffff2dfc
    47c6:	01f8      	l32i.n	a15, a1, 0
    47c8:	1188      	l32i.n	a8, a1, 4
    47ca:	ff79      	s32i.n	a7, a15, 60
    47cc:	ef89      	s32i.n	a8, a15, 56
    47ce:	e0ca92        	addi	a9, a10, -32
    47d1:	b99081        	l32r	a8, 0xffff2e14
    47d4:	0e0992        	l8ui	a9, a9, 14
    47d7:	8f4462        	s8i	a6, a4, 143
    47da:	904452        	s8i	a5, a4, 144
    47dd:	934452        	s8i	a5, a4, 147
    47e0:	944452        	s8i	a5, a4, 148
    47e3:	8e44c2        	s8i	a12, a4, 142
    47e6:	8c44c2        	s8i	a12, a4, 140
    47e9:	8d44c2        	s8i	a12, a4, 141
    47ec:	9144d2        	s8i	a13, a4, 145
    47ef:	9244d2        	s8i	a13, a4, 146
    47f2:	8644e2        	s8i	a14, a4, 134
    47f5:	8544e2        	s8i	a14, a4, 133
    47f8:	694432        	s8i	a3, a4, 105
    47fb:	3c54b2        	s16i	a11, a4, 120
    47fe:	b99131        	l32r	a3, 0xffff2e44
    4801:	894492        	s8i	a9, a4, 137
    4804:	40cab2        	addi	a11, a10, 64
    4807:	b2ba      	add.n	a11, a2, a11
    4809:	090c      	movi.n	a9, 0
    480b:	10cae2        	addi	a14, a10, 16
    480e:	20cad2        	addi	a13, a10, 32
    4811:	30cac2        	addi	a12, a10, 48
    4814:	d2da      	add.n	a13, a2, a13
    4816:	e2ea      	add.n	a14, a2, a14
    4818:	004e92        	s8i	a9, a14, 0
    481b:	004d92        	s8i	a9, a13, 0
    481e:	004b92        	s8i	a9, a11, 0
    4821:	c2ca      	add.n	a12, a2, a12
    4823:	a2aa      	add.n	a10, a2, a10
    4825:	004c92        	s8i	a9, a12, 0
    4828:	004a92        	s8i	a9, a10, 0
    482b:	02ad      	mov.n	a10, a2
    482d:	1b5f82        	s16i	a8, a15, 54
    4830:	3e5432        	s16i	a3, a4, 124
    4833:	b14f52        	s8i	a5, a15, 177
    4836:	b04f52        	s8i	a5, a15, 176
    4839:	b93331        	l32r	a3, 0xffff2d08
    483c:	9c4f52        	s8i	a5, a15, 156
    483f:	b02382        	l32i	a8, a3, 0x2c0
    4842:	c44f92        	s8i	a9, a15, 196
    4845:	0008e0        	excw
    4848:	b91b51        	l32r	a5, 0xffff2cb4
    484b:	02ad      	mov.n	a10, a2
    484d:	282582        	l32i	a8, a5, 160
    4850:	b991b1        	l32r	a11, 0xffff2e94
    4853:	0008e0        	excw
    4856:	7c2582        	l32i	a8, a5, 0x1f0
    4859:	8f04a2        	l8ui	a10, a4, 143
    485c:	0008e0        	excw
    485f:	902382        	l32i	a8, a3, 0x240
    4862:	02ad      	mov.n	a10, a2
    4864:	0008e0        	excw
    4867:	f01d      	excw
    4869:	000000        	ill
    486c:	016136        	excw
    486f:	b96851        	l32r	a5, 0xffff2e10
    4872:	b95e41        	l32r	a4, 0xffff2dec
    4875:	b91061        	l32r	a6, 0xffff2cb8
    4878:	98a1c2        	movi	a12, 0x198
    487b:	039d      	mov.n	a9, a3
    487d:	070c      	movi.n	a7, 0
    487f:	74e020        	extui	a14, a2, 0, 8
    4882:	8041e2        	s8i	a14, a1, 128
    4885:	0179      	s32i.n	a7, a1, 0
    4887:	6199      	s32i.n	a9, a1, 24
    4889:	c1cec0        	mul16u	a12, a14, a12
    488c:	8806b2        	l8ui	a11, a6, 136
    488f:	1d61b2        	s32i	a11, a1, 116
    4892:	464a      	add.n	a4, a6, a4
    4894:	4c4a      	add.n	a4, a12, a4
    4896:	dc5a      	add.n	a13, a12, a5
    4898:	1e2d32        	l32i	a3, a13, 120
    489b:	6d0d22        	l8ui	a2, a13, 109
    489e:	043030        	extui	a3, a3, 0, 1
    48a1:	166132        	s32i	a3, a1, 88
    48a4:	153226        	beqi	a2, 3, 0x48bd
    48a7:	b929a1        	l32r	a10, 0xffff2d4c
    48aa:	07bd      	mov.n	a11, a7
    48ac:	af7a65        	excw
    48af:	8001e2        	l8ui	a14, a1, 128
    48b2:	98a1c2        	movi	a12, 0x198
    48b5:	c1cec0        	mul16u	a12, a14, a12
    48b8:	1d21b2        	l32i	a11, a1, 116
    48bb:	dc5a      	add.n	a13, a12, a5
    48bd:	b91b31        	l32r	a3, 0xffff2d2c
    48c0:	b92c91        	l32r	a9, 0xffff2d70
    48c3:	4e4672        	s8i	a7, a6, 78
    48c6:	4f4c      	movi.n	a15, 68
    48c8:	c1fef0        	mul16u	a15, a14, a15
    48cb:	870d82        	l8ui	a8, a13, 135
    48ce:	ba2992        	l32i	a9, a9, 0x2e8
    48d1:	238800        	excw
    48d4:	99fa      	add.n	a9, a9, a15
    48d6:	b992f1        	l32r	a15, 0xffff2f20
    48d9:	7199      	s32i.n	a9, a1, 28
    48db:	fcfa      	add.n	a15, a12, a15
    48dd:	0d18a6        	blti	a8, 1, 0x48ee
    48e0:	16b8      	l32i.n	a11, a6, 4
    48e2:	561fc2        	l16ui	a12, a15, 172
    48e5:	e4b1b0        	extui	a11, a11, 1, 15
    48e8:	c0bbc0        	sub	a11, a11, a12
    48eb:	e4b0b0        	extui	a11, a11, 0, 15
    48ee:	b10f82        	l8ui	a8, a15, 177
    48f1:	06d3a2        	addmi	a10, a3, 0x600
    48f4:	f88c      	beqz.n	a8, 0x4907
    48f6:	880682        	l8ui	a8, a6, 136
    48f9:	0a3b87        	bltu	a11, a8, 0x4907
    48fc:	1e2d92        	l32i	a9, a13, 120
    48ff:	0a2d      	mov.n	a2, a10
    4901:	02e907        	bbsi	a9, 0, 0x4907
    4904:	02f3c6        	j	0x54d7
    4907:	5f0fb2        	l8ui	a11, a15, 95
    490a:	b92f21        	l32r	a2, 0xffff2dc8
    490d:	70eb17        	bbsi	a11, 1, 0x4981
    4910:	b406c2        	l8ui	a12, a6, 180
    4913:	6178      	l32i.n	a7, a1, 24
    4915:	026c07        	bbci	a12, 0, 0x491b
    4918:	02f006        	j	0x54dc
    491b:	17cc      	bnez.n	a7, 0x4920
    491d:	03b686        	j	0x57fb
    4920:	ad0c      	movi.n	a13, 10
    4922:	02bd77        	bgeu	a13, a7, 0x4928
    4925:	039c86        	j	0x579b
    4928:	b99391        	l32r	a9, 0xffff2f74
    492b:	fe9a      	add.n	a15, a14, a9
    492d:	000ff2        	l8ui	a15, a15, 0
    4930:	022fb6        	bltui	a15, 2, 0x4936
    4933:	039a46        	j	0x57a0
    4936:	10c982        	addi	a8, a9, 16
    4939:	a08e80        	addx4	a8, a14, a8
    493c:	0888      	l32i.n	a8, a8, 0
    493e:	188c      	beqz.n	a8, 0x4943
    4940:	039706        	j	0x57a0
    4943:	0ead      	mov.n	a10, a14
    4945:	fd8565        	excw
    4948:	2a04c2        	l8ui	a12, a4, 42
    494b:	2904b2        	l8ui	a11, a4, 41
    494e:	232282        	l32i	a8, a2, 140
    4951:	93bca0        	movnez	a11, a12, a10
    4954:	8001a2        	l8ui	a10, a1, 128
    4957:	74b0b0        	extui	a11, a11, 0, 8
    495a:	f1b9      	s32i.n	a11, a1, 60
    495c:	0008e0        	excw
    495f:	91a9      	s32i.n	a10, a1, 36
    4961:	d388      	l32i.n	a8, a3, 52
    4963:	f1a8      	l32i.n	a10, a1, 60
    4965:	0008e0        	excw
    4968:	91c8      	l32i.n	a12, a1, 36
    496a:	11ccf0        	slli	a12, a12, 1
    496d:	cc1b      	addi.n	a12, a12, 1
    496f:	02bca7        	bgeu	a12, a10, 0x4975
    4972:	03b306        	j	0x5842
    4975:	d388      	l32i.n	a8, a3, 52
    4977:	f1a8      	l32i.n	a10, a1, 60
    4979:	0008e0        	excw
    497c:	0acd      	mov.n	a12, a10
    497e:	03b006        	j	0x5842
    4981:	070c      	movi.n	a7, 0
    4983:	b92d91        	l32r	a9, 0xffff2e38
    4986:	7309b2        	l8ui	a11, a9, 115
    4989:	b994a1        	l32r	a10, 0xffff2fdc
    498c:	359b66        	bnei	a11, 10, 0x49c5
    498f:	2b2282        	l32i	a8, a2, 172
    4992:	0008e0        	excw
    4995:	533ab6        	bltui	a10, 3, 0x49ec
    4998:	2c0492        	l8ui	a9, a4, 44
    499b:	ffa0b2        	movi	a11, 255
    499e:	4a99b7        	bne	a9, a11, 0x49ec
    49a1:	b995d1        	l32r	a13, 0xffff2ff8
    49a4:	8001e2        	l8ui	a14, a1, 128
    49a7:	1f26c2        	l32i	a12, a6, 124
    49aa:	81a9      	s32i.n	a10, a1, 32
    49ac:	02ec47        	bbsi	a12, 4, 0x49b2
    49af:	0394c6        	j	0x5806
    49b2:	0ead      	mov.n	a10, a14
    49b4:	81b8      	l32i.n	a11, a1, 32
    49b6:	342282        	l32i	a8, a2, 208
    49b9:	63bbd0        	excw
    49bc:	0008e0        	excw
    49bf:	1c61a2        	s32i	a10, a1, 112
    49c2:	039d86        	j	0x583c
    49c5:	7c2ab2        	l32i	a11, a10, 0x1f0
    49c8:	163bb6        	bltui	a11, 3, 0x49e2
    49cb:	ec7c      	movi.n	a12, -2
    49cd:	02bcb7        	bgeu	a12, a11, 0x49d3
    49d0:	027006        	j	0x5394
    49d3:	342282        	l32i	a8, a2, 208
    49d6:	8001a2        	l8ui	a10, a1, 128
    49d9:	0008e0        	excw
    49dc:	1c61a2        	s32i	a10, a1, 112
    49df:	026d86        	j	0x5399
    49e2:	020c      	movi.n	a2, 0
    49e4:	0b0c      	movi.n	a11, 0
    49e6:	1c61b2        	s32i	a11, a1, 112
    49e9:	000186        	j	0x49f3
    49ec:	020c      	movi.n	a2, 0
    49ee:	0c0c      	movi.n	a12, 0
    49f0:	1c61c2        	s32i	a12, a1, 112
    49f3:	0d0c      	movi.n	a13, 0
    49f5:	1b61d2        	s32i	a13, a1, 108
    49f8:	b992f1        	l32r	a15, 0xffff3040
    49fb:	8001e2        	l8ui	a14, a1, 128
    49fe:	98a1c2        	movi	a12, 0x198
    4a01:	c1cec0        	mul16u	a12, a14, a12
    4a04:	fcfa      	add.n	a15, a12, a15
    4a06:	5f0ff2        	l8ui	a15, a15, 95
    4a09:	5d6f17        	bbci	a15, 1, 0x4a6a
    4a0c:	1b21c2        	l32i	a12, a1, 108
    4a0f:	04b4f0        	extui	a11, a15, 4, 1
    4a12:	1a0c      	movi.n	a10, 1
    4a14:	2d0c      	movi.n	a13, 2
    4a16:	b92f81        	l32r	a8, 0xffff2ed4
    4a19:	1698      	l32i.n	a9, a6, 4
    4a1b:	602882        	l32i	a8, a8, 0x180
    4a1e:	419190        	srli	a9, a9, 1
    4a21:	93dab0        	movnez	a13, a10, a11
    4a24:	5724b2        	l32i	a11, a4, 0x15c
    4a27:	cc0b      	addi.n	a12, a12, -1
    4a29:	c099b0        	sub	a9, a9, a11
    4a2c:	b973b1        	l32r	a11, 0xffff2ff8
    4a2f:	0ead      	mov.n	a10, a14
    4a31:	1099b0        	and	a9, a9, a11
    4a34:	8814b2        	l16ui	a11, a4, 0x110
    4a37:	1199f0        	slli	a9, a9, 1
    4a3a:	93b9c0        	movnez	a11, a9, a12
    4a3d:	1261b2        	s32i	a11, a1, 72
    4a40:	c14b      	addi.n	a12, a1, 4
    4a42:	0008e0        	excw
    4a45:	01a9      	s32i.n	a10, a1, 0
    4a47:	052a26        	beqi	a10, 2, 0x4a50
    4a4a:	024a26        	beqi	a10, 4, 0x4a50
    4a4d:	0d5a66        	bnei	a10, 5, 0x4a5e
    4a50:	b92f81        	l32r	a8, 0xffff2f0c
    4a53:	10a1a2        	movi	a10, 0x110
    4a56:	562882        	l32i	a8, a8, 0x158
    4a59:	a4aa      	add.n	a10, a4, a10
    4a5b:	0008e0        	excw
    4a5e:	8001c2        	l8ui	a12, a1, 128
    4a61:	98a1d2        	movi	a13, 0x198
    4a64:	c1ccd0        	mul16u	a12, a12, a13
    4a67:	000106        	j	0x4a6f
    4a6a:	0d0c      	movi.n	a13, 0
    4a6c:	1261d2        	s32i	a13, a1, 72
    4a6f:	dc5a      	add.n	a13, a12, a5
    4a71:	6f0df2        	l8ui	a15, a13, 111
    4a74:	be0c      	movi.n	a14, 11
    4a76:	0b3f56        	bnez	a15, 0x4b2d
    4a79:	b992b1        	l32r	a11, 0xffff30c4
    4a7c:	bcba      	add.n	a11, a12, a11
    4a7e:	5f0bb2        	l8ui	a11, a11, 95
    4a81:	280c      	movi.n	a8, 2
    4a83:	10fb80        	and	a15, a11, a8
    4a86:	338b87        	bany	a11, a8, 0x4abd
    4a89:	1e2d82        	l32i	a8, a13, 120
    4a8c:	2de8b7        	bbsi	a8, 11, 0x4abd
    4a8f:	b94081        	l32r	a8, 0xffff2f90
    4a92:	a888      	l32i.n	a8, a8, 40
    4a94:	3d24a2        	l32i	a10, a4, 244
    4a97:	0008e0        	excw
    4a9a:	be0c      	movi.n	a14, 11
    4a9c:	7acc      	bnez.n	a10, 0x4aa7
    4a9e:	220492        	l8ui	a9, a4, 34
    4aa1:	0229f6        	bgeui	a9, 2, 0x4aa7
    4aa4:	002146        	j	0x4b2d
    4aa7:	b992f1        	l32r	a15, 0xffff30f0
    4aaa:	8001c2        	l8ui	a12, a1, 128
    4aad:	98a1d2        	movi	a13, 0x198
    4ab0:	c1ccd0        	mul16u	a12, a12, a13
    4ab3:	fcfa      	add.n	a15, a12, a15
    4ab5:	5f0ff2        	l8ui	a15, a15, 95
    4ab8:	280c      	movi.n	a8, 2
    4aba:	10ff80        	and	a15, a15, a8
    4abd:	16d8      	l32i.n	a13, a6, 4
    4abf:	572482        	l32i	a8, a4, 0x15c
    4ac2:	41d1d0        	srli	a13, a13, 1
    4ac5:	c0dd80        	sub	a13, a13, a8
    4ac8:	b97381        	l32r	a8, 0xffff3094
    4acb:	10dd80        	and	a13, a13, a8
    4ace:	11ddf0        	slli	a13, a13, 1
    4ad1:	e1d9      	s32i.n	a13, a1, 56
    4ad3:	1261d2        	s32i	a13, a1, 72
    4ad6:	1fcc      	bnez.n	a15, 0x4adb
    4ad8:	033806        	j	0x57bc
    4adb:	0198      	l32i.n	a9, a1, 0
    4add:	0229f6        	bgeui	a9, 2, 0x4ae3
    4ae0:	033606        	j	0x57bc
    4ae3:	023966        	bnei	a9, 3, 0x4ae9
    4ae6:	033486        	j	0x57bc
    4ae9:	0211f2        	l16ui	a15, a1, 4
    4aec:	e1b8      	l32i.n	a11, a1, 56
    4aee:	c18b      	addi.n	a12, a1, 8
    4af0:	d1cb      	addi.n	a13, a1, 12
    4af2:	10c1e2        	addi	a14, a1, 16
    4af5:	772382        	l32i	a8, a3, 0x1dc
    4af8:	090c      	movi.n	a9, 0
    4afa:	0fad      	mov.n	a10, a15
    4afc:	2199      	s32i.n	a9, a1, 8
    4afe:	0008e0        	excw
    4b01:	b992a1        	l32r	a10, 0xffff314c
    4b04:	8001b2        	l8ui	a11, a1, 128
    4b07:	98a1c2        	movi	a12, 0x198
    4b0a:	c1bbc0        	mul16u	a11, a11, a12
    4b0d:	aaba      	add.n	a10, a10, a11
    4b0f:	5f0aa2        	l8ui	a10, a10, 95
    4b12:	1f6a17        	bbci	a10, 1, 0x4b35
    4b15:	01c8      	l32i.n	a12, a1, 0
    4b17:	1a5c66        	bnei	a12, 5, 0x4b35
    4b1a:	a1cb      	addi.n	a10, a1, 12
    4b1c:	b92f81        	l32r	a8, 0xffff2fd8
    4b1f:	10c1b2        	addi	a11, a1, 16
    4b22:	552882        	l32i	a8, a8, 0x154
    4b25:	c18b      	addi.n	a12, a1, 8
    4b27:	0008e0        	excw
    4b2a:	0001c6        	j	0x4b35
    4b2d:	21e9      	s32i.n	a14, a1, 8
    4b2f:	090c      	movi.n	a9, 0
    4b31:	3199      	s32i.n	a9, a1, 12
    4b33:	4199      	s32i.n	a9, a1, 16
    4b35:	fb0c      	movi.n	a11, 15
    4b37:	8001a2        	l8ui	a10, a1, 128
    4b3a:	98a1c2        	movi	a12, 0x198
    4b3d:	c1aac0        	mul16u	a10, a10, a12
    4b40:	7d2382        	l32i	a8, a3, 0x1f4
    4b43:	a5aa      	add.n	a10, a5, a10
    4b45:	930aa2        	l8ui	a10, a10, 147
    4b48:	0008e0        	excw
    4b4b:	8001e2        	l8ui	a14, a1, 128
    4b4e:	98a1d2        	movi	a13, 0x198
    4b51:	c1ded0        	mul16u	a13, a14, a13
    4b54:	dd5a      	add.n	a13, a13, a5
    4b56:	6f0db2        	l8ui	a11, a13, 111
    4b59:	2604c2        	l8ui	a12, a4, 38
    4b5c:	4bdc      	bnez.n	a11, 0x4b74
    4b5e:	2504f2        	l8ui	a15, a4, 37
    4b61:	0f1fc7        	beq	a15, a12, 0x4b74
    4b64:	290c      	movi.n	a9, 2
    4b66:	0a0c      	movi.n	a10, 0
    4b68:	1e2d82        	l32i	a8, a13, 120
    4b6b:	1944a2        	s8i	a10, a4, 25
    4b6e:	208890        	or	a8, a8, a9
    4b71:	1e6d82        	s32i	a8, a13, 120
    4b74:	0ead      	mov.n	a10, a14
    4b76:	2544c2        	s8i	a12, a4, 37
    4b79:	fd6225        	excw
    4b7c:	ffabf2        	movi	a15, 0xfffffbff
    4b7f:	fc0c      	movi.n	a12, 15
    4b81:	00a4b2        	movi	a11, 0x400
    4b84:	065a56        	bnez	a10, 0x4bed
    4b87:	2904e2        	l8ui	a14, a4, 41
    4b8a:	2a44e2        	s8i	a14, a4, 42
    4b8d:	024e66        	bnei	a14, 4, 0x4b93
    4b90:	030446        	j	0x57a5
    4b93:	029e66        	bnei	a14, 10, 0x4b99
    4b96:	0302c6        	j	0x57a5
    4b99:	bd0c      	movi.n	a13, 11
    4b9b:	029ed7        	bne	a14, a13, 0x4ba1
    4b9e:	0300c6        	j	0x57a5
    4ba1:	e80c      	movi.n	a8, 14
    4ba3:	029e87        	bne	a14, a8, 0x4ba9
    4ba6:	02fec6        	j	0x57a5
    4ba9:	029ec7        	bne	a14, a12, 0x4baf
    4bac:	02fd46        	j	0x57a5
    4baf:	8001d2        	l8ui	a13, a1, 128
    4bb2:	98a182        	movi	a8, 0x198
    4bb5:	c1dd80        	mul16u	a13, a13, a8
    4bb8:	d5da      	add.n	a13, a5, a13
    4bba:	1e2dc2        	l32i	a12, a13, 120
    4bbd:	481c      	movi.n	a8, 20
    4bbf:	091e87        	beq	a14, a8, 0x4bcc
    4bc2:	a91c      	movi.n	a9, 26
    4bc4:	041e97        	beq	a14, a9, 0x4bcc
    4bc7:	e81c      	movi.n	a8, 30
    4bc9:	029e87        	bne	a14, a8, 0x4bcf
    4bcc:	17fc87        	bbsi	a12, 24, 0x4be7
    4bcf:	891c      	movi.n	a9, 24
    4bd1:	0f1e97        	beq	a14, a9, 0x4be4
    4bd4:	b81c      	movi.n	a8, 27
    4bd6:	0a1e87        	beq	a14, a8, 0x4be4
    4bd9:	f91c      	movi.n	a9, 31
    4bdb:	051e97        	beq	a14, a9, 0x4be4
    4bde:	109cf0        	and	a9, a12, a15
    4be1:	000146        	j	0x4bea
    4be4:	f67c97        	bbci	a12, 25, 0x4bde
    4be7:	209cb0        	or	a9, a12, a11
    4bea:	1e6d92        	s32i	a9, a13, 120
    4bed:	2c04c2        	l8ui	a12, a4, 44
    4bf0:	ffa0b2        	movi	a11, 255
    4bf3:	1c1cb7        	beq	a12, a11, 0x4c13
    4bf6:	800182        	l8ui	a8, a1, 128
    4bf9:	98a192        	movi	a9, 0x198
    4bfc:	c18890        	mul16u	a8, a8, a9
    4bff:	858a      	add.n	a8, a5, a8
    4c01:	1e28e2        	l32i	a14, a8, 120
    4c04:	2a04d2        	l8ui	a13, a4, 42
    4c07:	10eef0        	and	a14, a14, a15
    4c0a:	1e68e2        	s32i	a14, a8, 120
    4c0d:	2b44d2        	s8i	a13, a4, 43
    4c10:	2a44c2        	s8i	a12, a4, 42
    4c13:	aca0c2        	movi	a12, 172
    4c16:	c4ca      	add.n	a12, a4, a12
    4c18:	1861c2        	s32i	a12, a1, 96
    4c1b:	7414c2        	l16ui	a12, a4, 232
    4c1e:	8cac      	beqz.n	a12, 0x4c4a
    4c20:	1821d2        	l32i	a13, a1, 96
    4c23:	b990e1        	l32r	a14, 0xffff3264
    4c26:	1f1dd2        	l16ui	a13, a13, 62
    4c29:	1d1de7        	beq	a13, a14, 0x4c4a
    4c2c:	16f8      	l32i.n	a15, a6, 4
    4c2e:	41e1c0        	srli	a14, a12, 1
    4c31:	e4f1f0        	extui	a15, a15, 1, 15
    4c34:	c0ffd0        	sub	a15, a15, a13
    4c37:	e4f0f0        	extui	a15, a15, 0, 15
    4c3a:	0cbef7        	bgeu	a14, a15, 0x4c4a
    4c3d:	3b0c      	movi.n	a11, 3
    4c3f:	0c0c      	movi.n	a12, 0
    4c41:	dd2382        	l32i	a8, a3, 0x374
    4c44:	8001a2        	l8ui	a10, a1, 128
    4c47:	0008e0        	excw
    4c4a:	8001c2        	l8ui	a12, a1, 128
    4c4d:	98a1d2        	movi	a13, 0x198
    4c50:	c1ccd0        	mul16u	a12, a12, a13
    4c53:	dc5a      	add.n	a13, a12, a5
    4c55:	1e2df2        	l32i	a15, a13, 120
    4c58:	107f17        	bbci	a15, 17, 0x4c6c
    4c5b:	0dff07        	bbsi	a15, 16, 0x4c6c
    4c5e:	080c      	movi.n	a8, 0
    4c60:	b996e1        	l32r	a14, 0xffff32b8
    4c63:	194482        	s8i	a8, a4, 25
    4c66:	20efe0        	or	a14, a15, a14
    4c69:	1e6de2        	s32i	a14, a13, 120
    4c6c:	b95831        	l32r	a3, 0xffff31cc
    4c6f:	b992f1        	l32r	a15, 0xffff32b8
    4c72:	8b0c      	movi.n	a11, 8
    4c74:	acfa      	add.n	a10, a12, a15
    4c76:	102aa2        	l32i	a10, a10, 64
    4c79:	0020c0        	memw
    4c7c:	9063a2        	s32i	a10, a3, 0x240
    4c7f:	80a082        	movi	a8, 128
    4c82:	818a      	add.n	a8, a1, a8
    4c84:	000882        	l8ui	a8, a8, 0
    4c87:	98a1c2        	movi	a12, 0x198
    4c8a:	c188c0        	mul16u	a8, a8, a12
    4c8d:	ff8a      	add.n	a15, a15, a8
    4c8f:	102f82        	l32i	a8, a15, 64
    4c92:	112ff2        	l32i	a15, a15, 68
    4c95:	0020c0        	memw
    4c98:	9163f2        	s32i	a15, a3, 0x244
    4c9b:	80a0e2        	movi	a14, 128
    4c9e:	e1ea      	add.n	a14, a1, a14
    4ca0:	000ee2        	l8ui	a14, a14, 0
    4ca3:	c1cec0        	mul16u	a12, a14, a12
    4ca6:	dc5a      	add.n	a13, a12, a5
    4ca8:	1e2df2        	l32i	a15, a13, 120
    4cab:	0a1c      	movi.n	a10, 16
    4cad:	10bfb0        	and	a11, a15, a11
    4cb0:	10afa0        	and	a10, a15, a10
    4cb3:	08ef37        	bbsi	a15, 3, 0x4cbf
    4cb6:	5acc      	bnez.n	a10, 0x4cbf
    4cb8:	0b0c      	movi.n	a11, 0
    4cba:	d1b9      	s32i.n	a11, a1, 52
    4cbc:	001306        	j	0x4d0c
    4cbf:	b998f1        	l32r	a15, 0xffff3320
    4cc2:	b99781        	l32r	a8, 0xffff3320
    4cc5:	0e0c      	movi.n	a14, 0
    4cc7:	93e8b0        	movnez	a14, a8, a11
    4cca:	20fef0        	or	a15, a14, a15
    4ccd:	93efa0        	movnez	a14, a15, a10
    4cd0:	d1e9      	s32i.n	a14, a1, 52
    4cd2:	1821f2        	l32i	a15, a1, 96
    4cd5:	132fd2        	l32i	a13, a15, 76
    4cd8:	0020c0        	memw
    4cdb:	9863d2        	s32i	a13, a3, 0x260
    4cde:	142fc2        	l32i	a12, a15, 80
    4ce1:	0020c0        	memw
    4ce4:	9963c2        	s32i	a12, a3, 0x264
    4ce7:	152f82        	l32i	a8, a15, 84
    4cea:	0020c0        	memw
    4ced:	9a6382        	s32i	a8, a3, 0x268
    4cf0:	162ff2        	l32i	a15, a15, 88
    4cf3:	0020c0        	memw
    4cf6:	9b63f2        	s32i	a15, a3, 0x26c
    4cf9:	80a0e2        	movi	a14, 128
    4cfc:	e1ea      	add.n	a14, a1, a14
    4cfe:	000ee2        	l8ui	a14, a14, 0
    4d01:	98a1c2        	movi	a12, 0x198
    4d04:	c1cec0        	mul16u	a12, a14, a12
    4d07:	dc5a      	add.n	a13, a12, a5
    4d09:	1e2df2        	l32i	a15, a13, 120
    4d0c:	070492        	l8ui	a9, a4, 7
    4d0f:	2004b2        	l8ui	a11, a4, 32
    4d12:	b99981        	l32r	a8, 0xffff3378
    4d15:	11bb10        	slli	a11, a11, 15
    4d18:	10bb80        	and	a11, a11, a8
    4d1b:	b99a81        	l32r	a8, 0xffff3384
    4d1e:	0199b0        	slli	a9, a9, 21
    4d21:	109980        	and	a9, a9, a8
    4d24:	2099b0        	or	a9, a9, a11
    4d27:	176192        	s32i	a9, a1, 92
    4d2a:	286f77        	bbci	a15, 7, 0x4d56
    4d2d:	b92dc1        	l32r	a12, 0xffff31e4
    4d30:	0204a2        	l8ui	a10, a4, 2
    4d33:	a90cc2        	l8ui	a12, a12, 169
    4d36:	0b1ca7        	beq	a12, a10, 0x4d45
    4d39:	b91b81        	l32r	a8, 0xffff31a8
    4d3c:	6a2882        	l32i	a8, a8, 0x1a8
    4d3f:	0008e0        	excw
    4d42:	8001e2        	l8ui	a14, a1, 128
    4d45:	b99bf1        	l32r	a15, 0xffff33b4
    4d48:	98a1c2        	movi	a12, 0x198
    4d4b:	c1cec0        	mul16u	a12, a14, a12
    4d4e:	2022f0        	or	a2, a2, a15
    4d51:	dc5a      	add.n	a13, a12, a5
    4d53:	1e2df2        	l32i	a15, a13, 120
    4d56:	6f0db2        	l8ui	a11, a13, 111
    4d59:	1c1b66        	bnei	a11, 1, 0x4d79
    4d5c:	220482        	l8ui	a8, a4, 34
    4d5f:	021866        	bnei	a8, 1, 0x4d65
    4d62:	02a346        	j	0x57f3
    4d65:	182192        	l32i	a9, a1, 96
    4d68:	c00992        	l8ui	a9, a9, 192
    4d6b:	021966        	bnei	a9, 1, 0x4d71
    4d6e:	02a046        	j	0x57f3
    4d71:	080c      	movi.n	a8, 0
    4d73:	136182        	s32i	a8, a1, 76
    4d76:	000106        	j	0x4d7e
    4d79:	090c      	movi.n	a9, 0
    4d7b:	136192        	s32i	a9, a1, 76
    4d7e:	b93ca1        	l32r	a10, 0xffff3270
    4d81:	280c      	movi.n	a8, 2
    4d83:	580aa2        	l8ui	a10, a10, 88
    4d86:	1061a2        	s32i	a10, a1, 64
    4d89:	10aa80        	and	a10, a10, a8
    4d8c:	0aff07        	bbsi	a15, 16, 0x4d9a
    4d8f:	1021f2        	l32i	a15, a1, 64
    4d92:	280c      	movi.n	a8, 2
    4d94:	028f87        	bany	a15, a8, 0x4d9a
    4d97:	018246        	j	0x53a4
    4d9a:	b99cb1        	l32r	a11, 0xffff340c
    4d9d:	1022b0        	and	a2, a2, a11
    4da0:	1adc      	bnez.n	a10, 0x4db5
    4da2:	4e0c      	movi.n	a14, 4
    4da4:	1c21d2        	l32i	a13, a1, 112
    4da7:	3c0c      	movi.n	a12, 3
    4da9:	1361c2        	s32i	a12, a1, 76
    4dac:	20dde0        	or	a13, a13, a14
    4daf:	1c61d2        	s32i	a13, a1, 112
    4db2:	000146        	j	0x4dbb
    4db5:	2a04f2        	l8ui	a15, a4, 42
    4db8:	1361f2        	s32i	a15, a1, 76
    4dbb:	080c      	movi.n	a8, 0
    4dbd:	590c      	movi.n	a9, 5
    4dbf:	0b0c      	movi.n	a11, 0
    4dc1:	b99dc1        	l32r	a12, 0xffff3438
    4dc4:	1a61c2        	s32i	a12, a1, 104
    4dc7:	1161b2        	s32i	a11, a1, 68
    4dca:	156192        	s32i	a9, a1, 84
    4dcd:	1b6182        	s32i	a8, a1, 108
    4dd0:	2304d2        	l8ui	a13, a4, 35
    4dd3:	b936e1        	l32r	a14, 0xffff32ac
    4dd6:	481d66        	bnei	a13, 1, 0x4e22
    4dd9:	8001f2        	l8ui	a15, a1, 128
    4ddc:	98a182        	movi	a8, 0x198
    4ddf:	c1ff80        	mul16u	a15, a15, a8
    4de2:	f5fa      	add.n	a15, a5, a15
    4de4:	1e2ff2        	l32i	a15, a15, 120
    4de7:	37efc7        	bbsi	a15, 12, 0x4e22
    4dea:	221682        	l16ui	a8, a6, 68
    4ded:	18fc      	bnez.n	a8, 0x4e22
    4def:	d6de92        	addmi	a9, a14, 0xffffd600
    4df2:	940992        	l8ui	a9, a9, 148
    4df5:	99ec      	bnez.n	a9, 0x4e22
    4df7:	a20eb2        	l8ui	a11, a14, 162
    4dfa:	4bec      	bnez.n	a11, 0x4e22
    4dfc:	1821d2        	l32i	a13, a1, 96
    4dff:	7306c2        	l8ui	a12, a6, 115
    4e02:	5e1dd2        	l16ui	a13, a13, 188
    4e05:	19bcd7        	bgeu	a12, a13, 0x4e22
    4e08:	d6dee2        	addmi	a14, a14, 0xffffd600
    4e0b:	730ee2        	l8ui	a14, a14, 115
    4e0e:	9f0c      	movi.n	a15, 9
    4e10:	049ef7        	bne	a14, a15, 0x4e18
    4e13:	1b21f2        	l32i	a15, a1, 108
    4e16:	8f8c      	beqz.n	a15, 0x4e22
    4e18:	250482        	l8ui	a8, a4, 37
    4e1b:	388c      	beqz.n	a8, 0x4e22
    4e1d:	240492        	l8ui	a9, a4, 36
    4e20:	29dc      	bnez.n	a9, 0x4e36
    4e22:	b994b1        	l32r	a11, 0xffff3474
    4e25:	7c2bb2        	l32i	a11, a11, 0x1f0
    4e28:	0a3bf6        	bgeui	a11, 3, 0x4e36
    4e2b:	0c0c      	movi.n	a12, 0
    4e2d:	b99cd1        	l32r	a13, 0xffff34a0
    4e30:	1b61c2        	s32i	a12, a1, 108
    4e33:	1022d0        	and	a2, a2, a13
    4e36:	6c06e2        	l8ui	a14, a6, 108
    4e39:	06fe16        	beqz	a14, 0x4eac
    4e3c:	b96ef1        	l32r	a15, 0xffff33f4
    4e3f:	b99c81        	l32r	a8, 0xffff34b0
    4e42:	1077f0        	and	a7, a7, a15
    4e45:	102280        	and	a2, a2, a8
    4e48:	0020c0        	memw
    4e4b:	b99ef1        	l32r	a15, 0xffff34c4
    4e4e:	b974d1        	l32r	a13, 0xffff3420
    4e51:	b965c1        	l32r	a12, 0xffff33e8
    4e54:	71e8      	l32i.n	a14, a1, 28
    4e56:	802cb2        	l32i	a11, a12, 0x200
    4e59:	030ee2        	l8ui	a14, a14, 3
    4e5c:	20dbd0        	or	a13, a11, a13
    4e5f:	fecee2        	addi	a14, a14, -2
    4e62:	10bbf0        	and	a11, a11, a15
    4e65:	93bde0        	movnez	a11, a13, a14
    4e68:	0020c0        	memw
    4e6b:	b93691        	l32r	a9, 0xffff3344
    4e6e:	806cb2        	s32i	a11, a12, 0x200
    4e71:	7c0992        	l8ui	a9, a9, 124
    4e74:	680c      	movi.n	a8, 6
    4e76:	320897        	bnone	a8, a9, 0x4eac
    4e79:	16b8      	l32i.n	a11, a6, 4
    4e7b:	b93691        	l32r	a9, 0xffff3354
    4e7e:	41b1b0        	srli	a11, a11, 1
    4e81:	5764b2        	s32i	a11, a4, 0x15c
    4e84:	7c0992        	l8ui	a9, a9, 124
    4e87:	216927        	bbci	a9, 2, 0x4eac
    4e8a:	b93c91        	l32r	a9, 0xffff337c
    4e8d:	590992        	l8ui	a9, a9, 89
    4e90:	b99fd1        	l32r	a13, 0xffff350c
    4e93:	01c9a0        	slli	a12, a9, 22
    4e96:	10ccd0        	and	a12, a12, a13
    4e99:	2077c0        	or	a7, a7, a12
    4e9c:	0739f6        	bgeui	a9, 3, 0x4ea7
    4e9f:	1c0c      	movi.n	a12, 1
    4ea1:	939c90        	movnez	a9, a12, a9
    4ea4:	166192        	s32i	a9, a1, 88
    4ea7:	6d0c      	movi.n	a13, 6
    4ea9:	1b61d2        	s32i	a13, a1, 108
    4eac:	b992f1        	l32r	a15, 0xffff34f4
    4eaf:	8001e2        	l8ui	a14, a1, 128
    4eb2:	98a1c2        	movi	a12, 0x198
    4eb5:	c1cec0        	mul16u	a12, a14, a12
    4eb8:	fcfa      	add.n	a15, a12, a15
    4eba:	5f0ff2        	l8ui	a15, a15, 95
    4ebd:	081c      	movi.n	a8, 16
    4ebf:	10df80        	and	a13, a15, a8
    4ec2:	098f87        	bany	a15, a8, 0x4ecf
    4ec5:	21f8      	l32i.n	a15, a1, 8
    4ec7:	04bff6        	bgeui	a15, 16, 0x4ecf
    4eca:	3188      	l32i.n	a8, a1, 12
    4ecc:	127816        	beqz	a8, 0x4ff7
    4ecf:	066d16        	beqz	a13, 0x4f39
    4ed2:	4624d2        	l32i	a13, a4, 0x118
    4ed5:	bc5a      	add.n	a11, a12, a5
    4ed7:	6f0bb2        	l8ui	a11, a11, 111
    4eda:	1461d2        	s32i	a13, a1, 80
    4edd:	04fb56        	bnez	a11, 0x4f30
    4ee0:	1b21c2        	l32i	a12, a1, 108
    4ee3:	cc0b      	addi.n	a12, a12, -1
    4ee5:	64bc56        	bnez	a12, 0x5534
    4ee8:	8814d2        	l16ui	a13, a4, 0x110
    4eeb:	1261d2        	s32i	a13, a1, 72
    4eee:	01a506        	j	0x5586
    4ef1:	09dd      	mov.n	a13, a9
    4ef3:	21f8      	l32i.n	a15, a1, 8
    4ef5:	1221e2        	l32i	a14, a1, 72
    4ef8:	e2a4c2        	movi	a12, 0x4e2
    4efb:	013de7        	bltu	a13, a14, 0x4f00
    4efe:	0fcd      	mov.n	a12, a15
    4f00:	21c9      	s32i.n	a12, a1, 8
    4f02:	0211a2        	l16ui	a10, a1, 4
    4f05:	1221b2        	l32i	a11, a1, 72
    4f08:	c18b      	addi.n	a12, a1, 8
    4f0a:	b91b81        	l32r	a8, 0xffff3378
    4f0d:	d1cb      	addi.n	a13, a1, 12
    4f0f:	772882        	l32i	a8, a8, 0x1dc
    4f12:	10c1e2        	addi	a14, a1, 16
    4f15:	0008e0        	excw
    4f18:	0198      	l32i.n	a9, a1, 0
    4f1a:	0f5966        	bnei	a9, 5, 0x4f2d
    4f1d:	a1cb      	addi.n	a10, a1, 12
    4f1f:	b92f81        	l32r	a8, 0xffff33dc
    4f22:	10c1b2        	addi	a11, a1, 16
    4f25:	552882        	l32i	a8, a8, 0x154
    4f28:	c18b      	addi.n	a12, a1, 8
    4f2a:	0008e0        	excw
    4f2d:	8001e2        	l8ui	a14, a1, 128
    4f30:	98a1c2        	movi	a12, 0x198
    4f33:	c1cec0        	mul16u	a12, a14, a12
    4f36:	001ac6        	j	0x4fa5
    4f39:	0204a2        	l8ui	a10, a4, 2
    4f3c:	fd2fa5        	excw
    4f3f:	41d8      	l32i.n	a13, a1, 16
    4f41:	21b8      	l32i.n	a11, a1, 8
    4f43:	0acd      	mov.n	a12, a10
    4f45:	b91b81        	l32r	a8, 0xffff33b4
    4f48:	31a8      	l32i.n	a10, a1, 12
    4f4a:	782882        	l32i	a8, a8, 0x1e0
    4f4d:	bbda      	add.n	a11, a11, a13
    4f4f:	0008e0        	excw
    4f52:	b1a9      	s32i.n	a10, a1, 44
    4f54:	8001a2        	l8ui	a10, a1, 128
    4f57:	fd27e5        	excw
    4f5a:	b969f1        	l32r	a15, 0xffff3500
    4f5d:	b1e8      	l32i.n	a14, a1, 44
    4f5f:	8001c2        	l8ui	a12, a1, 128
    4f62:	98a1d2        	movi	a13, 0x198
    4f65:	c1ccd0        	mul16u	a12, a12, a13
    4f68:	eeaa      	add.n	a14, a14, a10
    4f6a:	ee2b      	addi.n	a14, a14, 2
    4f6c:	b992d1        	l32r	a13, 0xffff35b4
    4f6f:	10eef0        	and	a14, a14, a15
    4f72:	dcda      	add.n	a13, a12, a13
    4f74:	5f0dd2        	l8ui	a13, a13, 95
    4f77:	1461e2        	s32i	a14, a1, 80
    4f7a:	226d17        	bbci	a13, 1, 0x4fa0
    4f7d:	8a14f2        	l16ui	a15, a4, 0x114
    4f80:	4624d2        	l32i	a13, a4, 0x118
    4f83:	b96991        	l32r	a9, 0xffff3528
    4f86:	c08ed0        	sub	a8, a14, a13
    4f89:	108890        	and	a8, a8, a9
    4f8c:	119ff0        	slli	a9, a15, 1
    4f8f:	0d3897        	bltu	a8, a9, 0x4fa0
    4f92:	b969a1        	l32r	a10, 0xffff3538
    4f95:	9f0b      	addi.n	a9, a15, -1
    4f97:	9099d0        	addx2	a9, a9, a13
    4f9a:	1099a0        	and	a9, a9, a10
    4f9d:	146192        	s32i	a9, a1, 80
    4fa0:	0a0c      	movi.n	a10, 0
    4fa2:	1c61a2        	s32i	a10, a1, 112
    4fa5:	bc5a      	add.n	a11, a12, a5
    4fa7:	6f0bb2        	l8ui	a11, a11, 111
    4faa:	121b66        	bnei	a11, 1, 0x4fc0
    4fad:	0198      	l32i.n	a9, a1, 0
    4faf:	052926        	beqi	a9, 2, 0x4fb8
    4fb2:	024926        	beqi	a9, 4, 0x4fb8
    4fb5:	075966        	bnei	a9, 5, 0x4fc0
    4fb8:	1821c2        	l32i	a12, a1, 96
    4fbb:	a20cc2        	l8ui	a12, a12, 162
    4fbe:	2cdc      	bnez.n	a12, 0x4fd4
    4fc0:	b9a0a1        	l32r	a10, 0xffff3640
    4fc3:	142192        	l32i	a9, a1, 80
    4fc6:	180c      	movi.n	a8, 1
    4fc8:	1099a0        	and	a9, a9, a10
    4fcb:	202290        	or	a2, a2, a9
    4fce:	202280        	or	a2, a2, a8
    4fd1:	000106        	j	0x4fd9
    4fd4:	ec7c      	movi.n	a12, -2
    4fd6:	1022c0        	and	a2, a2, a12
    4fd9:	1b21d2        	l32i	a13, a1, 108
    4fdc:	2ddc      	bnez.n	a13, 0x4ff2
    4fde:	b99ce1        	l32r	a14, 0xffff3650
    4fe1:	1022e0        	and	a2, a2, a14
    4fe4:	603b56        	bnez	a11, 0x55eb
    4fe7:	b006f2        	l8ui	a15, a6, 176
    4fea:	5fdf16        	beqz	a15, 0x55eb
    4fed:	090c      	movi.n	a9, 0
    4fef:	000186        	j	0x4ff9
    4ff2:	190c      	movi.n	a9, 1
    4ff4:	000046        	j	0x4ff9
    4ff7:	190c      	movi.n	a9, 1
    4ff9:	b9a1f1        	l32r	a15, 0xffff3680
    4ffc:	0020c0        	memw
    4fff:	8f6392        	s32i	a9, a3, 0x23c
    5002:	0020c0        	memw
    5005:	0d7c      	movi.n	a13, -16
    5007:	80a082        	movi	a8, 128
    500a:	818a      	add.n	a8, a1, a8
    500c:	000882        	l8ui	a8, a8, 0
    500f:	98a1a2        	movi	a10, 0x198
    5012:	c188a0        	mul16u	a8, a8, a10
    5015:	8623c2        	l32i	a12, a3, 0x218
    5018:	858a      	add.n	a8, a5, a8
    501a:	6f0882        	l8ui	a8, a8, 111
    501d:	10ccd0        	and	a12, a12, a13
    5020:	880b      	addi.n	a8, a8, -1
    5022:	0f7856        	bnez	a8, 0x511d
    5025:	400692        	l8ui	a9, a6, 64
    5028:	7d0c      	movi.n	a13, 7
    502a:	4106a2        	l8ui	a10, a6, 65
    502d:	20dcd0        	or	a13, a12, a13
    5030:	11ca80        	slli	a12, a10, 8
    5033:	20e9c0        	or	a14, a9, a12
    5036:	11ee60        	slli	a14, a14, 10
    5039:	10eef0        	and	a14, a14, a15
    503c:	0020c0        	memw
    503f:	8663d2        	s32i	a13, a3, 0x218
    5042:	0020c0        	memw
    5045:	1621c2        	l32i	a12, a1, 88
    5048:	b928d1        	l32r	a13, 0xffff34e8
    504b:	11cc20        	slli	a12, a12, 14
    504e:	10ccd0        	and	a12, a12, a13
    5051:	b936d1        	l32r	a13, 0xffff352c
    5054:	8e63e2        	s32i	a14, a3, 0x238
    5057:	7c0dd2        	l8ui	a13, a13, 124
    505a:	0c9d      	mov.n	a9, a12
    505c:	14ed17        	bbsi	a13, 1, 0x5074
    505f:	6c06f2        	l8ui	a15, a6, 108
    5062:	142f66        	bnei	a15, 2, 0x507a
    5065:	b93cb1        	l32r	a11, 0xffff3558
    5068:	3c0bb2        	l8ui	a11, a11, 60
    506b:	025b26        	beqi	a11, 5, 0x5071
    506e:	087b66        	bnei	a11, 7, 0x507a
    5071:	056d07        	bbci	a13, 0, 0x507a
    5074:	b99691        	l32r	a9, 0xffff36cc
    5077:	209c90        	or	a9, a12, a9
    507a:	0a4c      	movi.n	a10, 64
    507c:	b9a281        	l32r	a8, 0xffff3704
    507f:	0020c0        	memw
    5082:	1b21c2        	l32i	a12, a1, 108
    5085:	80a0e2        	movi	a14, 128
    5088:	9d6392        	s32i	a9, a3, 0x274
    508b:	0304f2        	l8ui	a15, a4, 3
    508e:	0204d2        	l8ui	a13, a4, 2
    5091:	e1ea      	add.n	a14, a1, a14
    5093:	000ee2        	l8ui	a14, a14, 0
    5096:	11dd40        	slli	a13, a13, 12
    5099:	11ffa0        	slli	a15, a15, 6
    509c:	10ffa0        	and	a15, a15, a10
    509f:	10dd80        	and	a13, a13, a8
    50a2:	80a7a2        	movi	a10, 0x780
    50a5:	118e90        	slli	a8, a14, 7
    50a8:	1088a0        	and	a8, a8, a10
    50ab:	20dd80        	or	a13, a13, a8
    50ae:	3480c0        	extui	a8, a12, 0, 4
    50b1:	20ff80        	or	a15, a15, a8
    50b4:	20ddf0        	or	a13, a13, a15
    50b7:	51d9      	s32i.n	a13, a1, 20
    50b9:	711c66        	bnei	a12, 1, 0x512e
    50bc:	b992c1        	l32r	a12, 0xffff3704
    50bf:	98a1d2        	movi	a13, 0x198
    50c2:	c1ded0        	mul16u	a13, a14, a13
    50c5:	ccda      	add.n	a12, a12, a13
    50c7:	5f0cc2        	l8ui	a12, a12, 95
    50ca:	07ec47        	bbsi	a12, 4, 0x50d5
    50cd:	b929a1        	l32r	a10, 0xffff3574
    50d0:	0b0c      	movi.n	a11, 0
    50d2:	aef825        	excw
    50d5:	41e120        	srli	a14, a2, 1
    50d8:	4624f2        	l32i	a15, a4, 0x118
    50db:	b97381        	l32r	a8, 0xffff36a8
    50de:	41f1f0        	srli	a15, a15, 1
    50e1:	10ee80        	and	a14, a14, a8
    50e4:	071ef7        	beq	a14, a15, 0x50ef
    50e7:	b929a1        	l32r	a10, 0xffff358c
    50ea:	0b0c      	movi.n	a11, 0
    50ec:	aef665        	excw
    50ef:	07f2e7        	bbsi	a2, 30, 0x50fa
    50f2:	b929a1        	l32r	a10, 0xffff3598
    50f5:	0b0c      	movi.n	a11, 0
    50f7:	aef5e5        	excw
    50fa:	b992f1        	l32r	a15, 0xffff3744
    50fd:	800182        	l8ui	a8, a1, 128
    5100:	98a192        	movi	a9, 0x198
    5103:	c18890        	mul16u	a8, a8, a9
    5106:	ff8a      	add.n	a15, a15, a8
    5108:	5f0fa2        	l8ui	a10, a15, 95
    510b:	241f92        	l16ui	a9, a15, 72
    510e:	04a3a0        	extui	a10, a10, 3, 1
    5111:	3cca16        	beqz	a10, 0x54e1
    5114:	5a0fa2        	l8ui	a10, a15, 90
    5117:	c19a90        	mul16u	a9, a10, a9
    511a:	00f0c6        	j	0x54e1
    511d:	080492        	l8ui	a9, a4, 8
    5120:	ad0c      	movi.n	a13, 10
    5122:	0904b2        	l8ui	a11, a4, 9
    5125:	20dcd0        	or	a13, a12, a13
    5128:	11cb80        	slli	a12, a11, 8
    512b:	ffc106        	j	0x5033
    512e:	0e0c      	movi.n	a14, 0
    5130:	c1e9      	s32i.n	a14, a1, 48
    5132:	b94aa1        	l32r	a10, 0xffff365c
    5135:	b91b81        	l32r	a8, 0xffff35a4
    5138:	4c0692        	l8ui	a9, a6, 76
    513b:	b52882        	l32i	a8, a8, 0x2d4
    513e:	019910        	slli	a9, a9, 31
    5141:	1099a0        	and	a9, a9, a10
    5144:	202290        	or	a2, a2, a9
    5147:	1521a2        	l32i	a10, a1, 84
    514a:	0008e0        	excw
    514d:	1b2192        	l32i	a9, a1, 108
    5150:	1321c2        	l32i	a12, a1, 76
    5153:	1221b2        	l32i	a11, a1, 72
    5156:	b9a481        	l32r	a8, 0xffff37e8
    5159:	b9a3e1        	l32r	a14, 0xffff37e8
    515c:	d1f8      	l32i.n	a15, a1, 52
    515e:	b93cd1        	l32r	a13, 0xffff3650
    5161:	20faf0        	or	a15, a10, a15
    5164:	3c0dd2        	l8ui	a13, a13, 60
    5167:	31a8      	l32i.n	a10, a1, 12
    5169:	f6cdd2        	addi	a13, a13, -10
    516c:	11aa20        	slli	a10, a10, 14
    516f:	10aae0        	and	a10, a10, a14
    5172:	938ad0        	movnez	a8, a10, a13
    5175:	1121e2        	l32i	a14, a1, 68
    5178:	1721a2        	l32i	a10, a1, 92
    517b:	21d8      	l32i.n	a13, a1, 8
    517d:	20ee80        	or	a14, a14, a8
    5180:	4188      	l32i.n	a8, a1, 16
    5182:	a4d0d0        	extui	a13, a13, 0, 11
    5185:	20aad0        	or	a10, a10, a13
    5188:	a48080        	extui	a8, a8, 0, 11
    518b:	1761a2        	s32i	a10, a1, 92
    518e:	b92da1        	l32r	a10, 0xffff3644
    5191:	c1d8      	l32i.n	a13, a1, 48
    5193:	940aa2        	l8ui	a10, a10, 148
    5196:	20dd80        	or	a13, a13, a8
    5199:	1a9c      	beqz.n	a10, 0x51ae
    519b:	b92d81        	l32r	a8, 0xffff3650
    519e:	730882        	l8ui	a8, a8, 115
    51a1:	099866        	bnei	a8, 10, 0x51ae
    51a4:	0c0c      	movi.n	a12, 0
    51a6:	0a2c      	movi.n	a10, 32
    51a8:	1961a2        	s32i	a10, a1, 100
    51ab:	000106        	j	0x51b3
    51ae:	080c      	movi.n	a8, 0
    51b0:	196182        	s32i	a8, a1, 100
    51b3:	042cf6        	bgeui	a12, 2, 0x51bb
    51b6:	1a0c      	movi.n	a10, 1
    51b8:	4e46a2        	s8i	a10, a6, 78
    51bb:	0020c0        	memw
    51be:	8c63f2        	s32i	a15, a3, 0x230
    51c1:	0020c0        	memw
    51c4:	8b63e2        	s32i	a14, a3, 0x22c
    51c7:	0020c0        	memw
    51ca:	172182        	l32i	a8, a1, 92
    51cd:	8a6382        	s32i	a8, a3, 0x228
    51d0:	0020c0        	memw
    51d3:	896322        	s32i	a2, a3, 0x224
    51d6:	331966        	bnei	a9, 1, 0x520d
    51d9:	0814e2        	l16ui	a14, a4, 16
    51dc:	deac      	beqz.n	a14, 0x520d
    51de:	c1d9      	s32i.n	a13, a1, 48
    51e0:	1361c2        	s32i	a12, a1, 76
    51e3:	12beb7        	bgeu	a14, a11, 0x51f9
    51e6:	b929a1        	l32r	a10, 0xffff368c
    51e9:	0b0c      	movi.n	a11, 0
    51eb:	aee6a5        	excw
    51ee:	1321c2        	l32i	a12, a1, 76
    51f1:	c1d8      	l32i.n	a13, a1, 48
    51f3:	1221b2        	l32i	a11, a1, 72
    51f6:	0814e2        	l16ui	a14, a4, 16
    51f9:	5198      	l32i.n	a9, a1, 20
    51fb:	c0beb0        	sub	a11, a14, a11
    51fe:	41b1b0        	srli	a11, a11, 1
    5201:	e49e90        	extui	a9, a9, 14, 15
    5204:	2539b7        	bltu	a9, a11, 0x522d
    5207:	41b1e0        	srli	a11, a14, 1
    520a:	0007c6        	j	0x522d
    520d:	dfa1e2        	movi	a14, 0x1df
    5210:	0b3eb7        	bltu	a14, a11, 0x521f
    5213:	e0a1e2        	movi	a14, 0x1e0
    5216:	c0beb0        	sub	a11, a14, a11
    5219:	41b1b0        	srli	a11, a11, 1
    521c:	000046        	j	0x5221
    521f:	4b1c      	movi.n	a11, 20
    5221:	b99881        	l32r	a8, 0xffff3884
    5224:	1c21f2        	l32i	a15, a1, 112
    5227:	20ff80        	or	a15, a15, a8
    522a:	1c61f2        	s32i	a15, a1, 112
    522d:	b9a2e1        	l32r	a14, 0xffff38b8
    5230:	b9a581        	l32r	a8, 0xffff38c4
    5233:	11fb20        	slli	a15, a11, 14
    5236:	10ff80        	and	a15, a15, a8
    5239:	20ddf0        	or	a13, a13, a15
    523c:	20dde0        	or	a13, a13, a14
    523f:	2872e7        	bbci	a2, 30, 0x526b
    5242:	1e0c      	movi.n	a14, 1
    5244:	4d46e2        	s8i	a14, a6, 77
    5247:	5724b2        	l32i	a11, a4, 0x15c
    524a:	0020c0        	memw
    524d:	c1d9      	s32i.n	a13, a1, 48
    524f:	1361c2        	s32i	a12, a1, 76
    5252:	ac63b2        	s32i	a11, a3, 0x2b0
    5255:	2c0492        	l8ui	a9, a4, 44
    5258:	ffa0a2        	movi	a10, 255
    525b:	0c19a7        	beq	a9, a10, 0x526b
    525e:	b929a1        	l32r	a10, 0xffff3704
    5261:	0b0c      	movi.n	a11, 0
    5263:	aedf25        	excw
    5266:	1321c2        	l32i	a12, a1, 76
    5269:	c1d8      	l32i.n	a13, a1, 48
    526b:	1a21e2        	l32i	a14, a1, 104
    526e:	b94fa1        	l32r	a10, 0xffff37ac
    5271:	1621b2        	l32i	a11, a1, 88
    5274:	3420c0        	extui	a2, a12, 0, 4
    5277:	b9a681        	l32r	a8, 0xffff3910
    527a:	112200        	slli	a2, a2, 16
    527d:	102280        	and	a2, a2, a8
    5280:	250482        	l8ui	a8, a4, 37
    5283:	b92891        	l32r	a9, 0xffff3724
    5286:	118820        	slli	a8, a8, 14
    5289:	108890        	and	a8, a8, a9
    528c:	019bc0        	slli	a9, a11, 20
    528f:	1099a0        	and	a9, a9, a10
    5292:	208890        	or	a8, a8, a9
    5295:	202280        	or	a2, a2, a8
    5298:	b9a781        	l32r	a8, 0xffff3934
    529b:	202e20        	or	a2, a14, a2
    529e:	20e280        	or	a14, a2, a8
    52a1:	1a61e2        	s32i	a14, a1, 104
    52a4:	152122        	l32i	a2, a1, 84
    52a7:	0020c0        	memw
    52aa:	1c21f2        	l32i	a15, a1, 112
    52ad:	aa63f2        	s32i	a15, a3, 0x2a8
    52b0:	0020c0        	memw
    52b3:	8d63d2        	s32i	a13, a3, 0x234
    52b6:	0020c0        	memw
    52b9:	9c63e2        	s32i	a14, a3, 0x270
    52bc:	5b9c      	beqz.n	a11, 0x52d5
    52be:	134cb6        	bltui	a12, 4, 0x52d5
    52c1:	b93381        	l32r	a8, 0xffff3790
    52c4:	2104a2        	l8ui	a10, a4, 33
    52c7:	c92882        	l32i	a8, a8, 0x324
    52ca:	1b0c      	movi.n	a11, 1
    52cc:	0008e0        	excw
    52cf:	b91b41        	l32r	a4, 0xffff373c
    52d2:	000406        	j	0x52e6
    52d5:	b93381        	l32r	a8, 0xffff37a4
    52d8:	2104a2        	l8ui	a10, a4, 33
    52db:	c92882        	l32i	a8, a8, 0x324
    52de:	0b0c      	movi.n	a11, 0
    52e0:	0008e0        	excw
    52e3:	b91b41        	l32r	a4, 0xffff3750
    52e6:	8001d2        	l8ui	a13, a1, 128
    52e9:	98a1e2        	movi	a14, 0x198
    52ec:	c1dde0        	mul16u	a13, a13, a14
    52ef:	d5da      	add.n	a13, a5, a13
    52f1:	1e2df2        	l32i	a15, a13, 120
    52f4:	126f67        	bbci	a15, 6, 0x530a
    52f7:	b97481        	l32r	a8, 0xffff38c8
    52fa:	51e8      	l32i.n	a14, a1, 20
    52fc:	bfaf92        	movi	a9, -65
    52ff:	109f90        	and	a9, a15, a9
    5302:	1e6d92        	s32i	a9, a13, 120
    5305:	20ee80        	or	a14, a14, a8
    5308:	51e9      	s32i.n	a14, a1, 20
    530a:	b96551        	l32r	a5, 0xffff38a0
    530d:	b62482        	l32i	a8, a4, 0x2d8
    5310:	02ad      	mov.n	a10, a2
    5312:	0008e0        	excw
    5315:	b90d81        	l32r	a8, 0xffff374c
    5318:	392882        	l32i	a8, a8, 228
    531b:	207a70        	or	a7, a10, a7
    531e:	0008e0        	excw
    5321:	0abd      	mov.n	a11, a10
    5323:	00a2c2        	movi	a12, 0x200
    5326:	03aca2        	movi	a10, 0xfffffc03
    5329:	10a7a0        	and	a10, a7, a10
    532c:	20aac0        	or	a10, a10, a12
    532f:	837ab0        	moveqz	a7, a10, a11
    5332:	0020c0        	memw
    5335:	b93691        	l32r	a9, 0xffff3810
    5338:	836572        	s32i	a7, a5, 0x20c
    533b:	a20992        	l8ui	a9, a9, 162
    533e:	103926        	beqi	a9, 3, 0x5352
    5341:	02ad      	mov.n	a10, a2
    5343:	b72482        	l32i	a8, a4, 0x2dc
    5346:	192172        	l32i	a7, a1, 100
    5349:	0008e0        	excw
    534c:	207a70        	or	a7, a10, a7
    534f:	000446        	j	0x5364
    5352:	b9a8a1        	l32r	a10, 0xffff39f4
    5355:	0020c0        	memw
    5358:	882592        	l32i	a9, a5, 0x220
    535b:	192172        	l32i	a7, a1, 100
    535e:	1099a0        	and	a9, a9, a10
    5361:	207790        	or	a7, a7, a9
    5364:	0020c0        	memw
    5367:	886572        	s32i	a7, a5, 0x220
    536a:	14c1a2        	addi	a10, a1, 20
    536d:	01cd      	mov.n	a12, a1
    536f:	80a0b2        	movi	a11, 128
    5372:	632482        	l32i	a8, a4, 0x18c
    5375:	b1ba      	add.n	a11, a1, a11
    5377:	0008e0        	excw
    537a:	51f8      	l32i.n	a15, a1, 20
    537c:	0020c0        	memw
    537f:	120c      	movi.n	a2, 1
    5381:	b91fd1        	l32r	a13, 0xffff3800
    5384:	1c21c2        	l32i	a12, a1, 112
    5387:	8863f2        	s32i	a15, a3, 0x220
    538a:	1a21e2        	l32i	a14, a1, 104
    538d:	7f66e2        	s32i	a14, a6, 0x1fc
    5390:	0dc9      	s32i.n	a12, a13, 0
    5392:	f01d      	excw
    5394:	080c      	movi.n	a8, 0
    5396:	1c6182        	s32i	a8, a1, 112
    5399:	b9a921        	l32r	a2, 0xffff3a40
    539c:	190c      	movi.n	a9, 1
    539e:	1b6192        	s32i	a9, a1, 108
    53a1:	fd94c6        	j	0x49f8
    53a4:	271b66        	bnei	a11, 1, 0x53cf
    53a7:	2204b2        	l8ui	a11, a4, 34
    53aa:	212bb6        	bltui	a11, 2, 0x53cf
    53ad:	b992f1        	l32r	a15, 0xffff39f8
    53b0:	fcfa      	add.n	a15, a12, a15
    53b2:	5f0ff2        	l8ui	a15, a15, 95
    53b5:	16ef17        	bbsi	a15, 1, 0x53cf
    53b8:	180c      	movi.n	a8, 1
    53ba:	e90c      	movi.n	a9, 14
    53bc:	0b0c      	movi.n	a11, 0
    53be:	0c0c      	movi.n	a12, 0
    53c0:	1a61c2        	s32i	a12, a1, 104
    53c3:	1161b2        	s32i	a11, a1, 68
    53c6:	156192        	s32i	a9, a1, 84
    53c9:	136182        	s32i	a8, a1, 76
    53cc:	fe8006        	j	0x4dd0
    53cf:	860df2        	l8ui	a15, a13, 134
    53d2:	23ff00        	excw
    53d5:	021fe6        	bgei	a15, 1, 0x53db
    53d8:	0025c6        	j	0x5473
    53db:	0ead      	mov.n	a10, a14
    53dd:	fcdbe5        	excw
    53e0:	8001e2        	l8ui	a14, a1, 128
    53e3:	98a1c2        	movi	a12, 0x198
    53e6:	c1cec0        	mul16u	a12, a14, a12
    53e9:	dc5a      	add.n	a13, a12, a5
    53eb:	084a56        	bnez	a10, 0x5473
    53ee:	b9aa81        	l32r	a8, 0xffff3a98
    53f1:	1e2df2        	l32i	a15, a13, 120
    53f4:	20ff80        	or	a15, a15, a8
    53f7:	1e6df2        	s32i	a15, a13, 120
    53fa:	476f27        	bbci	a15, 2, 0x5445
    53fd:	71d8      	l32i.n	a13, a1, 28
    53ff:	210dc2        	l8ui	a12, a13, 33
    5402:	23cc00        	excw
    5405:	a0ccd0        	addx4	a12, a12, a13
    5408:	9cc8      	l32i.n	a12, a12, 36
    540a:	0a0cb2        	l8ui	a11, a12, 10
    540d:	4a3c      	movi.n	a10, 52
    540f:	bbca      	add.n	a11, a11, a12
    5411:	0c0b92        	l8ui	a9, a11, 12
    5414:	bbcb      	addi.n	a11, a11, 12
    5416:	a1b9      	s32i.n	a11, a1, 40
    5418:	419190        	srli	a9, a9, 1
    541b:	0a19a7        	beq	a9, a10, 0x5429
    541e:	b929a1        	l32r	a10, 0xffff38c4
    5421:	0b0c      	movi.n	a11, 0
    5423:	aec325        	excw
    5426:	8001e2        	l8ui	a14, a1, 128
    5429:	b93381        	l32r	a8, 0xffff38f8
    542c:	f02882        	l32i	a8, a8, 0x3c0
    542f:	0ead      	mov.n	a10, a14
    5431:	0008e0        	excw
    5434:	b99cb1        	l32r	a11, 0xffff3aa4
    5437:	1022b0        	and	a2, a2, a11
    543a:	a1b8      	l32i.n	a11, a1, 40
    543c:	4198a0        	srli	a9, a10, 8
    543f:	014ba2        	s8i	a10, a11, 1
    5442:	024b92        	s8i	a9, a11, 2
    5445:	4d0c      	movi.n	a13, 4
    5447:	1c21c2        	l32i	a12, a1, 112
    544a:	71b8      	l32i.n	a11, a1, 28
    544c:	290c      	movi.n	a9, 2
    544e:	6e0c      	movi.n	a14, 6
    5450:	0f2c      	movi.n	a15, 32
    5452:	080c      	movi.n	a8, 0
    5454:	1a6182        	s32i	a8, a1, 104
    5457:	1161f2        	s32i	a15, a1, 68
    545a:	1561e2        	s32i	a14, a1, 84
    545d:	034b92        	s8i	a9, a11, 3
    5460:	20ccd0        	or	a12, a12, a13
    5463:	1c61c2        	s32i	a12, a1, 112
    5466:	0d0c      	movi.n	a13, 0
    5468:	1b61d2        	s32i	a13, a1, 108
    546b:	3c0c      	movi.n	a12, 3
    546d:	1361c2        	s32i	a12, a1, 76
    5470:	fe5706        	j	0x4dd0
    5473:	2304f2        	l8ui	a15, a4, 35
    5476:	ff0b      	addi.n	a15, a15, -1
    5478:	174f16        	beqz	a15, 0x55f0
    547b:	1e2df2        	l32i	a15, a13, 120
    547e:	0489f0        	extui	a8, a15, 9, 1
    5481:	16b856        	bnez	a8, 0x55f0
    5484:	0491f0        	extui	a9, a15, 1, 1
    5487:	236916        	beqz	a9, 0x56c1
    548a:	0ead      	mov.n	a10, a14
    548c:	fcd0e5        	excw
    548f:	8001e2        	l8ui	a14, a1, 128
    5492:	98a1c2        	movi	a12, 0x198
    5495:	c1cec0        	mul16u	a12, a14, a12
    5498:	225a56        	bnez	a10, 0x56c1
    549b:	b99c91        	l32r	a9, 0xffff3b0c
    549e:	4d0c      	movi.n	a13, 4
    54a0:	1c21b2        	l32i	a11, a1, 112
    54a3:	b99d81        	l32r	a8, 0xffff3b18
    54a6:	5f0c      	movi.n	a15, 5
    54a8:	0e0c      	movi.n	a14, 0
    54aa:	1b61e2        	s32i	a14, a1, 108
    54ad:	1561f2        	s32i	a15, a1, 84
    54b0:	1a6182        	s32i	a8, a1, 104
    54b3:	0f0c      	movi.n	a15, 0
    54b5:	20bbd0        	or	a11, a11, a13
    54b8:	102290        	and	a2, a2, a9
    54bb:	3d0c      	movi.n	a13, 3
    54bd:	1c61b2        	s32i	a11, a1, 112
    54c0:	9c5a      	add.n	a9, a12, a5
    54c2:	b996b1        	l32r	a11, 0xffff3b1c
    54c5:	1e2982        	l32i	a8, a9, 120
    54c8:	1361d2        	s32i	a13, a1, 76
    54cb:	2088b0        	or	a8, a8, a11
    54ce:	1e6982        	s32i	a8, a9, 120
    54d1:	1944f2        	s8i	a15, a4, 25
    54d4:	00aa86        	j	0x5782
    54d7:	070c      	movi.n	a7, 0
    54d9:	fd2986        	j	0x4983
    54dc:	070c      	movi.n	a7, 0
    54de:	fd2846        	j	0x4983
    54e1:	31f8      	l32i.n	a15, a1, 12
    54e3:	41d8      	l32i.n	a13, a1, 16
    54e5:	5188      	l32i.n	a8, a1, 20
    54e7:	b9a5b1        	l32r	a11, 0xffff3b7c
    54ea:	21e8      	l32i.n	a14, a1, 8
    54ec:	bc0c      	movi.n	a12, 11
    54ee:	21a190        	srai	a10, a9, 1
    54f1:	11aa20        	slli	a10, a10, 14
    54f4:	21c9      	s32i.n	a12, a1, 8
    54f6:	10aab0        	and	a10, a10, a11
    54f9:	b9abc1        	l32r	a12, 0xffff3ba8
    54fc:	2088a0        	or	a8, a8, a10
    54ff:	8b14b2        	l16ui	a11, a4, 0x116
    5502:	8a14a2        	l16ui	a10, a4, 0x114
    5505:	5189      	s32i.n	a8, a1, 20
    5507:	83def0        	moveqz	a13, a14, a15
    550a:	41d9      	s32i.n	a13, a1, 16
    550c:	112182        	l32i	a8, a1, 68
    550f:	de0c      	movi.n	a14, 13
    5511:	11bba0        	slli	a11, a11, 6
    5514:	b974f1        	l32r	a15, 0xffff3ae4
    5517:	c1f9      	s32i.n	a15, a1, 48
    5519:	10bbc0        	and	a11, a11, a12
    551c:	1561e2        	s32i	a14, a1, 84
    551f:	b9acc1        	l32r	a12, 0xffff3bd0
    5522:	01aae0        	slli	a10, a10, 18
    5525:	10aac0        	and	a10, a10, a12
    5528:	20aab0        	or	a10, a10, a11
    552b:	2088a0        	or	a8, a8, a10
    552e:	116182        	s32i	a8, a1, 68
    5531:	feff46        	j	0x5132
    5534:	b92ab1        	l32r	a11, 0xffff39dc
    5537:	dc0bb2        	l8ui	a11, a11, 220
    553a:	23bb00        	excw
    553d:	0a1be6        	bgei	a11, 1, 0x554b
    5540:	b929a1        	l32r	a10, 0xffff39e4
    5543:	0b0c      	movi.n	a11, 0
    5545:	aeb0e5        	excw
    5548:	8001e2        	l8ui	a14, a1, 128
    554b:	0ead      	mov.n	a10, a14
    554d:	fcc865        	excw
    5550:	572492        	l32i	a9, a4, 0x15c
    5553:	b99281        	l32r	a8, 0xffff3b9c
    5556:	8001b2        	l8ui	a11, a1, 128
    5559:	98a1c2        	movi	a12, 0x198
    555c:	c1bbc0        	mul16u	a11, a11, a12
    555f:	16f8      	l32i.n	a15, a6, 4
    5561:	88ba      	add.n	a8, a8, a11
    5563:	142882        	l32i	a8, a8, 80
    5566:	b969b1        	l32r	a11, 0xffff3b0c
    5569:	c088a0        	sub	a8, a8, a10
    556c:	1088b0        	and	a8, a8, a11
    556f:	ff8a      	add.n	a15, a15, a8
    5571:	b97381        	l32r	a8, 0xffff3b40
    5574:	41f1f0        	srli	a15, a15, 1
    5577:	10ff80        	and	a15, a15, a8
    557a:	c0ff90        	sub	a15, a15, a9
    557d:	10ff80        	and	a15, a15, a8
    5580:	11fff0        	slli	a15, a15, 1
    5583:	1261f2        	s32i	a15, a1, 72
    5586:	0198      	l32i.n	a9, a1, 0
    5588:	0229b6        	bltui	a9, 2, 0x558e
    558b:	263966        	bnei	a9, 3, 0x55b5
    558e:	1b21c2        	l32i	a12, a1, 108
    5591:	2b1692        	l16ui	a9, a6, 86
    5594:	025192        	s16i	a9, a1, 4
    5597:	09fd      	mov.n	a15, a9
    5599:	131c26        	beqi	a12, 1, 0x55b0
    559c:	b94081        	l32r	a8, 0xffff3a9c
    559f:	a888      	l32i.n	a8, a8, 40
    55a1:	3d24a2        	l32i	a10, a4, 244
    55a4:	0008e0        	excw
    55a7:	0211f2        	l16ui	a15, a1, 4
    55aa:	252a16        	beqz	a10, 0x5800
    55ad:	2b1692        	l16ui	a9, a6, 86
    55b0:	9f9a      	add.n	a9, a15, a9
    55b2:	025192        	s16i	a9, a1, 4
    55b5:	b90d81        	l32r	a8, 0xffff39ec
    55b8:	090c      	movi.n	a9, 0
    55ba:	2a2882        	l32i	a8, a8, 168
    55bd:	2199      	s32i.n	a9, a1, 8
    55bf:	0008e0        	excw
    55c2:	93ca56        	bnez	a10, 0x4f02
    55c5:	b992f1        	l32r	a15, 0xffff3c10
    55c8:	800182        	l8ui	a8, a1, 128
    55cb:	98a192        	movi	a9, 0x198
    55ce:	c18890        	mul16u	a8, a8, a9
    55d1:	ff8a      	add.n	a15, a15, a8
    55d3:	5f0fa2        	l8ui	a10, a15, 95
    55d6:	241f92        	l16ui	a9, a15, 72
    55d9:	04a3a0        	extui	a10, a10, 3, 1
    55dc:	911a16        	beqz	a10, 0x4ef1
    55df:	5a0fd2        	l8ui	a13, a15, 90
    55e2:	c1dd90        	mul16u	a13, a13, a9
    55e5:	f4d0d0        	extui	a13, a13, 0, 16
    55e8:	fe41c6        	j	0x4ef3
    55eb:	190c      	movi.n	a9, 1
    55ed:	fe8206        	j	0x4ff9
    55f0:	870df2        	l8ui	a15, a13, 135
    55f3:	23ff00        	excw
    55f6:	321fe6        	bgei	a15, 1, 0x562c
    55f9:	6c0682        	l8ui	a8, a6, 108
    55fc:	142866        	bnei	a8, 2, 0x5614
    55ff:	b93c91        	l32r	a9, 0xffff3af0
    5602:	580992        	l8ui	a9, a9, 88
    5605:	0b6907        	bbci	a9, 0, 0x5614
    5608:	b93cb1        	l32r	a11, 0xffff3af8
    560b:	3c0bb2        	l8ui	a11, a11, 60
    560e:	1a5b26        	beqi	a11, 5, 0x562c
    5611:	177b26        	beqi	a11, 7, 0x562c
    5614:	0ead      	mov.n	a10, a14
    5616:	fcb865        	excw
    5619:	facc      	bnez.n	a10, 0x562c
    561b:	8001e2        	l8ui	a14, a1, 128
    561e:	98a1c2        	movi	a12, 0x198
    5621:	c1cec0        	mul16u	a12, a14, a12
    5624:	fc5a      	add.n	a15, a12, a5
    5626:	1e2ff2        	l32i	a15, a15, 120
    5629:	ff95c6        	j	0x5484
    562c:	2404f2        	l8ui	a15, a4, 36
    562f:	fe8f16        	beqz	a15, 0x561b
    5632:	230482        	l8ui	a8, a4, 35
    5635:	181826        	beqi	a8, 1, 0x5651
    5638:	800192        	l8ui	a9, a1, 128
    563b:	98a1b2        	movi	a11, 0x198
    563e:	c199b0        	mul16u	a9, a9, a11
    5641:	959a      	add.n	a9, a5, a9
    5643:	1e2992        	l32i	a9, a9, 120
    5646:	07e997        	bbsi	a9, 9, 0x5651
    5649:	b929a1        	l32r	a10, 0xffff3af0
    564c:	0b0c      	movi.n	a11, 0
    564e:	aea065        	excw
    5651:	2a04e2        	l8ui	a14, a4, 42
    5654:	0a3ef6        	bgeui	a14, 3, 0x5662
    5657:	b929a1        	l32r	a10, 0xffff3afc
    565a:	0b0c      	movi.n	a11, 0
    565c:	ae9f65        	excw
    565f:	2a04e2        	l8ui	a14, a4, 42
    5662:	8001b2        	l8ui	a11, a1, 128
    5665:	98a1d2        	movi	a13, 0x198
    5668:	c1bbd0        	mul16u	a11, a11, a13
    566b:	b928f1        	l32r	a15, 0xffff3b0c
    566e:	b5ba      	add.n	a11, a5, a11
    5670:	1e2b92        	l32i	a9, a11, 120
    5673:	7188      	l32i.n	a8, a1, 28
    5675:	2099f0        	or	a9, a9, a15
    5678:	1e6b92        	s32i	a9, a11, 120
    567b:	0f0c      	movi.n	a15, 0
    567d:	0348f2        	s8i	a15, a8, 3
    5680:	8001c2        	l8ui	a12, a1, 128
    5683:	c1ccd0        	mul16u	a12, a12, a13
    5686:	dc5a      	add.n	a13, a12, a5
    5688:	1e2df2        	l32i	a15, a13, 120
    568b:	1361e2        	s32i	a14, a1, 76
    568e:	7cef17        	bbsi	a15, 1, 0x570e
    5691:	2a0482        	l8ui	a8, a4, 42
    5694:	2904e2        	l8ui	a14, a4, 41
    5697:	739e87        	bne	a14, a8, 0x570e
    569a:	860d92        	l8ui	a9, a13, 134
    569d:	239900        	excw
    56a0:	6a19e6        	bgei	a9, 1, 0x570e
    56a3:	67ef97        	bbsi	a15, 9, 0x570e
    56a6:	1821b2        	l32i	a11, a1, 96
    56a9:	390bb2        	l8ui	a11, a11, 57
    56ac:	05eb56        	bnez	a11, 0x570e
    56af:	b99c81        	l32r	a8, 0xffff3d20
    56b2:	b94ee1        	l32r	a14, 0xffff3bec
    56b5:	102280        	and	a2, a2, a8
    56b8:	10ffe0        	and	a15, a15, a14
    56bb:	1e6df2        	s32i	a15, a13, 120
    56be:	0015c6        	j	0x5719
    56c1:	b99291        	l32r	a9, 0xffff3d0c
    56c4:	9c9a      	add.n	a9, a12, a9
    56c6:	5f0992        	l8ui	a9, a9, 95
    56c9:	276917        	bbci	a9, 1, 0x56f4
    56cc:	24e927        	bbsi	a9, 2, 0x56f4
    56cf:	04b490        	extui	a11, a9, 4, 1
    56d2:	a80c      	movi.n	a8, 10
    56d4:	bf0c      	movi.n	a15, 11
    56d6:	1321a2        	l32i	a10, a1, 76
    56d9:	dc5a      	add.n	a13, a12, a5
    56db:	6f0dd2        	l8ui	a13, a13, 111
    56de:	74a0a0        	extui	a10, a10, 0, 8
    56e1:	dd0b      	addi.n	a13, a13, -1
    56e3:	93f8b0        	movnez	a15, a8, a11
    56e6:	1561f2        	s32i	a15, a1, 84
    56e9:	1b0c      	movi.n	a11, 1
    56eb:	83abd0        	moveqz	a10, a11, a13
    56ee:	1361a2        	s32i	a10, a1, 76
    56f1:	000106        	j	0x56f9
    56f4:	ff0c      	movi.n	a15, 15
    56f6:	1561f2        	s32i	a15, a1, 84
    56f9:	b91b81        	l32r	a8, 0xffff3b68
    56fc:	0ead      	mov.n	a10, a14
    56fe:	692882        	l32i	a8, a8, 0x1a4
    5701:	6b0c      	movi.n	a11, 6
    5703:	0008e0        	excw
    5706:	090c      	movi.n	a9, 0
    5708:	1a6192        	s32i	a9, a1, 104
    570b:	001cc6        	j	0x5782
    570e:	1c21b2        	l32i	a11, a1, 112
    5711:	4e0c      	movi.n	a14, 4
    5713:	20bbe0        	or	a11, a11, a14
    5716:	1c61b2        	s32i	a11, a1, 112
    5719:	870d82        	l8ui	a8, a13, 135
    571c:	238800        	excw
    571f:	7018e6        	bgei	a8, 1, 0x5793
    5722:	6c0692        	l8ui	a9, a6, 108
    5725:	142966        	bnei	a9, 2, 0x573d
    5728:	b93cb1        	l32r	a11, 0xffff3c18
    572b:	580bb2        	l8ui	a11, a11, 88
    572e:	0b6b07        	bbci	a11, 0, 0x573d
    5731:	b93cb1        	l32r	a11, 0xffff3c24
    5734:	3c0bb2        	l8ui	a11, a11, 60
    5737:	4f5b26        	beqi	a11, 5, 0x578a
    573a:	4c7b26        	beqi	a11, 7, 0x578a
    573d:	180c      	movi.n	a8, 1
    573f:	b99ce1        	l32r	a14, 0xffff3db0
    5742:	6f0d92        	l8ui	a9, a13, 111
    5745:	fb0c      	movi.n	a11, 15
    5747:	1561b2        	s32i	a11, a1, 84
    574a:	990b      	addi.n	a9, a9, -1
    574c:	1022e0        	and	a2, a2, a14
    574f:	0e0c      	movi.n	a14, 0
    5751:	83e890        	moveqz	a14, a8, a9
    5754:	1361e2        	s32i	a14, a1, 76
    5757:	b99291        	l32r	a9, 0xffff3da0
    575a:	9c9a      	add.n	a9, a12, a9
    575c:	5f0992        	l8ui	a9, a9, 95
    575f:	0c6917        	bbci	a9, 1, 0x576f
    5762:	04d490        	extui	a13, a9, 4, 1
    5765:	ac0c      	movi.n	a12, 10
    5767:	bb0c      	movi.n	a11, 11
    5769:	93bcd0        	movnez	a11, a12, a13
    576c:	1561b2        	s32i	a11, a1, 84
    576f:	056fa7        	bbci	a15, 10, 0x5778
    5772:	b996e1        	l32r	a14, 0xffff3dcc
    5775:	2077e0        	or	a7, a7, a14
    5778:	0f0c      	movi.n	a15, 0
    577a:	080c      	movi.n	a8, 0
    577c:	1a6182        	s32i	a8, a1, 104
    577f:	1b61f2        	s32i	a15, a1, 108
    5782:	090c      	movi.n	a9, 0
    5784:	116192        	s32i	a9, a1, 68
    5787:	fd9146        	j	0x4dd0
    578a:	860db2        	l8ui	a11, a13, 134
    578d:	23bb00        	excw
    5790:	a91be6        	bgei	a11, 1, 0x573d
    5793:	5d0c      	movi.n	a13, 5
    5795:	1561d2        	s32i	a13, a1, 84
    5798:	ffeec6        	j	0x5757
    579b:	070c      	movi.n	a7, 0
    579d:	fc7886        	j	0x4983
    57a0:	070c      	movi.n	a7, 0
    57a2:	fc7746        	j	0x4983
    57a5:	8001d2        	l8ui	a13, a1, 128
    57a8:	98a182        	movi	a8, 0x198
    57ab:	c1dd80        	mul16u	a13, a13, a8
    57ae:	d5da      	add.n	a13, a5, a13
    57b0:	1e2dc2        	l32i	a12, a13, 120
    57b3:	02fc77        	bbsi	a12, 23, 0x57b9
    57b6:	fd00c6        	j	0x4bbd
    57b9:	fd0a86        	j	0x4be7
    57bc:	3d24a2        	l32i	a10, a4, 244
    57bf:	2b16b2        	l16ui	a11, a6, 86
    57c2:	491c      	movi.n	a9, 20
    57c4:	b94081        	l32r	a8, 0xffff3cc4
    57c7:	cc5a      	add.n	a12, a12, a5
    57c9:	1e2cc2        	l32i	a12, a12, 120
    57cc:	a888      	l32i.n	a8, a8, 40
    57ce:	04cbc0        	extui	a12, a12, 11, 1
    57d1:	939bc0        	movnez	a9, a11, a12
    57d4:	025192        	s16i	a9, a1, 4
    57d7:	0008e0        	excw
    57da:	0a9d      	mov.n	a9, a10
    57dc:	0211a2        	l16ui	a10, a1, 4
    57df:	2b16f2        	l16ui	a15, a6, 86
    57e2:	14ca82        	addi	a8, a10, 20
    57e5:	ffaa      	add.n	a15, a15, a10
    57e7:	83f890        	moveqz	a15, a8, a9
    57ea:	f4f0f0        	extui	a15, a15, 0, 16
    57ed:	0251f2        	s16i	a15, a1, 4
    57f0:	fcbe06        	j	0x4aec
    57f3:	180c      	movi.n	a8, 1
    57f5:	136182        	s32i	a8, a1, 76
    57f8:	fd6086        	j	0x4d7e
    57fb:	070c      	movi.n	a7, 0
    57fd:	fc6086        	j	0x4983
    5800:	14cf92        	addi	a9, a15, 20
    5803:	ff6ac6        	j	0x55b2
    5806:	b992f1        	l32r	a15, 0xffff3e50
    5809:	98a1c2        	movi	a12, 0x198
    580c:	c1cec0        	mul16u	a12, a14, a12
    580f:	fcfa      	add.n	a15, a12, a15
    5811:	b20f92        	l8ui	a9, a15, 178
    5814:	c9cc      	bnez.n	a9, 0x5824
    5816:	5f0f82        	l8ui	a8, a15, 95
    5819:	07e817        	bbsi	a8, 1, 0x5824
    581c:	9c5a      	add.n	a9, a12, a5
    581e:	6f0992        	l8ui	a9, a9, 111
    5821:	071966        	bnei	a9, 1, 0x582c
    5824:	0a0c      	movi.n	a10, 0
    5826:	1c61a2        	s32i	a10, a1, 112
    5829:	0003c6        	j	0x583c
    582c:	0ead      	mov.n	a10, a14
    582e:	81b8      	l32i.n	a11, a1, 32
    5830:	342282        	l32i	a8, a2, 208
    5833:	63bbd0        	excw
    5836:	0008e0        	excw
    5839:	1c61a2        	s32i	a10, a1, 112
    583c:	b9a921        	l32r	a2, 0xffff3ee0
    583f:	fc6c06        	j	0x49f3
    5842:	f1b8      	l32i.n	a11, a1, 60
    5844:	a70b      	addi.n	a10, a7, -1
    5846:	c388      	l32i.n	a8, a3, 48
    5848:	63aca0        	excw
    584b:	c077a0        	sub	a7, a7, a10
    584e:	74a0a0        	extui	a10, a10, 0, 8
    5851:	0008e0        	excw
    5854:	2c44a2        	s8i	a10, a4, 44
    5857:	a79c      	beqz.n	a7, 0x5875
    5859:	6179      	s32i.n	a7, a1, 24
    585b:	0557b6        	bltui	a7, 5, 0x5864
    585e:	b9ad71        	l32r	a7, 0xffff3f14
    5861:	fc4786        	j	0x4983
    5864:	61c8      	l32i.n	a12, a1, 24
    5866:	b9ae71        	l32r	a7, 0xffff3f20
    5869:	023cb6        	bltui	a12, 3, 0x586f
    586c:	fc44c6        	j	0x4983
    586f:	b9af71        	l32r	a7, 0xffff3f2c
    5872:	fc4346        	j	0x4983
    5875:	b9af71        	l32r	a7, 0xffff3f34
    5878:	fc41c6        	j	0x4983
    587b:	a13600        	sll	a3, a6
    587e:	a4c200        	extui	a12, a0, 2, 11
    5881:	213900        	srai	a3, a0, 9
    5884:	ffa0d2        	movi	a13, 255
    5887:	b9b081        	l32r	a8, 0xffff3f48
    588a:	090c      	movi.n	a9, 0
    588c:	b91071        	l32r	a7, 0xffff3ccc
    588f:	98a142        	movi	a4, 0x198
    5892:	c14240        	mul16u	a4, a2, a4
    5895:	4149      	s32i.n	a4, a1, 16
    5897:	4d07b2        	l8ui	a11, a7, 77
    589a:	61b9      	s32i.n	a11, a1, 24
    589c:	4d4792        	s8i	a9, a7, 77
    589f:	448a      	add.n	a4, a4, a8
    58a1:	740482        	l8ui	a8, a4, 116
    58a4:	fb0c      	movi.n	a11, 15
    58a6:	5c18d7        	beq	a8, a13, 0x5906
    58a9:	7444d2        	s8i	a13, a4, 116
    58ac:	7304a2        	l8ui	a10, a4, 115
    58af:	7244a2        	s8i	a10, a4, 114
    58b2:	fcca82        	addi	a8, a10, -4
    58b5:	18a816        	beqz	a8, 0x5a43
    58b8:	f6ca92        	addi	a9, a10, -10
    58bb:	184916        	beqz	a9, 0x5a43
    58be:	f5cad2        	addi	a13, a10, -11
    58c1:	17ed16        	beqz	a13, 0x5a43
    58c4:	f2cae2        	addi	a14, a10, -14
    58c7:	178e16        	beqz	a14, 0x5a43
    58ca:	f1caf2        	addi	a15, a10, -15
    58cd:	172f16        	beqz	a15, 0x5a43
    58d0:	1524d2        	l32i	a13, a4, 84
    58d3:	481c      	movi.n	a8, 20
    58d5:	091a87        	beq	a10, a8, 0x58e2
    58d8:	a91c      	movi.n	a9, 26
    58da:	041a97        	beq	a10, a9, 0x58e2
    58dd:	ee1c      	movi.n	a14, 30
    58df:	029ae7        	bne	a10, a14, 0x58e5
    58e2:	1afd87        	bbsi	a13, 24, 0x5900
    58e5:	8f1c      	movi.n	a15, 24
    58e7:	121af7        	beq	a10, a15, 0x58fd
    58ea:	b81c      	movi.n	a8, 27
    58ec:	0d1a87        	beq	a10, a8, 0x58fd
    58ef:	f91c      	movi.n	a9, 31
    58f1:	081a97        	beq	a10, a9, 0x58fd
    58f4:	ffab92        	movi	a9, 0xfffffbff
    58f7:	109d90        	and	a9, a13, a9
    58fa:	000146        	j	0x5903
    58fd:	f37d97        	bbci	a13, 25, 0x58f4
    5900:	209dc0        	or	a9, a13, a12
    5903:	156492        	s32i	a9, a4, 84
    5906:	490492        	l8ui	a9, a4, 73
    5909:	b91b31        	l32r	a3, 0xffff3d78
    590c:	098966        	bnei	a9, 8, 0x5919
    590f:	6f2382        	l32i	a8, a3, 0x1bc
    5912:	02ad      	mov.n	a10, a2
    5914:	0008e0        	excw
    5917:	f01d      	excw
    5919:	0c3926        	beqi	a9, 3, 0x5929
    591c:	b929a1        	l32r	a10, 0xffff3dc0
    591f:	0b0c      	movi.n	a11, 0
    5921:	ae7325        	excw
    5924:	00a4c2        	movi	a12, 0x400
    5927:	fb0c      	movi.n	a11, 15
    5929:	b958a1        	l32r	a10, 0xffff3e8c
    592c:	b92ce1        	l32r	a14, 0xffff3ddc
    592f:	0d1c      	movi.n	a13, 16
    5931:	b96551        	l32r	a5, 0xffff3ec8
    5934:	0020c0        	memw
    5937:	422552        	l32i	a5, a5, 0x108
    593a:	0020c0        	memw
    593d:	9e2a62        	l32i	a6, a10, 0x278
    5940:	0020c0        	memw
    5943:	b92d91        	l32r	a9, 0xffff3df8
    5946:	bb2ee2        	l32i	a14, a14, 0x2ec
    5949:	345050        	extui	a5, a5, 0, 4
    594c:	05e5e0        	extui	a14, a14, 21, 1
    594f:	935de0        	movnez	a5, a13, a14
    5952:	952ad2        	l32i	a13, a10, 0x254
    5955:	940992        	l8ui	a9, a9, 148
    5958:	64d7d0        	extui	a13, a13, 7, 7
    595b:	31d9      	s32i.n	a13, a1, 12
    595d:	f98c      	beqz.n	a9, 0x5970
    595f:	0d95b7        	bne	a5, a11, 0x5970
    5962:	b929a1        	l32r	a10, 0xffff3e08
    5965:	0b0c      	movi.n	a11, 0
    5967:	ae6ee5        	excw
    596a:	b958a1        	l32r	a10, 0xffff3ecc
    596d:	00a4c2        	movi	a12, 0x400
    5970:	4b0482        	l8ui	a8, a4, 75
    5973:	6198      	l32i.n	a9, a1, 24
    5975:	041866        	bnei	a8, 1, 0x597d
    5978:	016566        	bnei	a5, 6, 0x597d
    597b:	051c      	movi.n	a5, 16
    597d:	063916        	beqz	a9, 0x59e4
    5980:	0020c0        	memw
    5983:	ac2ab2        	l32i	a11, a10, 0x2b0
    5986:	40a6d2        	movi	a13, 0x640
    5989:	b973f1        	l32r	a15, 0xffff3f58
    598c:	17e8      	l32i.n	a14, a7, 4
    598e:	692482        	l32i	a8, a4, 0x1a4
    5991:	41e1e0        	srli	a14, a14, 1
    5994:	c0ee80        	sub	a14, a14, a8
    5997:	b92a81        	l32r	a8, 0xffff3e40
    599a:	10eef0        	and	a14, a14, a15
    599d:	11eef0        	slli	a14, a14, 1
    59a0:	04bde7        	bgeu	a13, a14, 0x59a8
    59a3:	1f0c      	movi.n	a15, 1
    59a5:	d854f2        	s16i	a15, a4, 0x1b0
    59a8:	dc0882        	l8ui	a8, a8, 220
    59ab:	91b9      	s32i.n	a11, a1, 36
    59ad:	238800        	excw
    59b0:	0f18e6        	bgei	a8, 1, 0x59c3
    59b3:	b929a1        	l32r	a10, 0xffff3e58
    59b6:	0b0c      	movi.n	a11, 0
    59b8:	ae69a5        	excw
    59bb:	b958a1        	l32r	a10, 0xffff3f1c
    59be:	00a4c2        	movi	a12, 0x400
    59c1:	91b8      	l32i.n	a11, a1, 36
    59c3:	1798      	l32i.n	a9, a7, 4
    59c5:	419190        	srli	a9, a9, 1
    59c8:	181b97        	beq	a11, a9, 0x59e4
    59cb:	0020c0        	memw
    59ce:	a12ad2        	l32i	a13, a10, 0x284
    59d1:	0f1db7        	beq	a13, a11, 0x59e4
    59d4:	6964b2        	s32i	a11, a4, 0x1a4
    59d7:	051c      	movi.n	a5, 16
    59d9:	87afe2        	movi	a14, -121
    59dc:	0f0c      	movi.n	a15, 0
    59de:	6a44f2        	s8i	a15, a4, 106
    59e1:	1066e0        	and	a6, a6, a14
    59e4:	b93691        	l32r	a9, 0xffff3ebc
    59e7:	b96fe1        	l32r	a14, 0xffff3fa4
    59ea:	7c0992        	l8ui	a9, a9, 124
    59ed:	181c      	movi.n	a8, 17
    59ef:	07e927        	bbsi	a9, 2, 0x59fa
    59f2:	066917        	bbci	a9, 1, 0x59fc
    59f5:	6804d2        	l8ui	a13, a4, 104
    59f8:	0dcc      	bnez.n	a13, 0x59fc
    59fa:	051c      	movi.n	a5, 16
    59fc:	b970d1        	l32r	a13, 0xffff3fbc
    59ff:	023587        	bltu	a5, a8, 0x5a05
    5a02:	0041c6        	j	0x5b0d
    5a05:	b9b191        	l32r	a9, 0xffff40cc
    5a08:	908550        	addx2	a8, a5, a5
    5a0b:	889a      	add.n	a8, a8, a9
    5a0d:	0008a0        	jx	a8
    5a10:	000ec6        	j	0x5a4f
    5a13:	000e06        	j	0x5a4f
    5a16:	003cc6        	j	0x5b0d
    5a19:	00e446        	j	0x5dae
    5a1c:	00b186        	j	0x5ce6
    5a1f:	007306        	j	0x5bef
    5a22:	005c46        	j	0x5b97
    5a25:	003b86        	j	0x5b17
    5a28:	005ac6        	j	0x5b97
    5a2b:	005a06        	j	0x5b97
    5a2e:	0036c6        	j	0x5b0d
    5a31:	0068c6        	j	0x5bd8
    5a34:	003546        	j	0x5b0d
    5a37:	003486        	j	0x5b0d
    5a3a:	0033c6        	j	0x5b0d
    5a3d:	004f46        	j	0x5b7e
    5a40:	003246        	j	0x5b0d
    5a43:	1524d2        	l32i	a13, a4, 84
    5a46:	05e7d0        	extui	a14, a13, 23, 1
    5a49:	e86e16        	beqz	a14, 0x58d3
    5a4c:	ffac06        	j	0x5900
    5a4f:	b90d81        	l32r	a8, 0xffff3e84
    5a52:	392882        	l32i	a8, a8, 228
    5a55:	0008e0        	excw
    5a58:	0b1a56        	bnez	a10, 0x5b0d
    5a5b:	3188      	l32i.n	a8, a1, 12
    5a5d:	b96bf1        	l32r	a15, 0xffff400c
    5a60:	4a04a2        	l8ui	a10, a4, 74
    5a63:	cca0e2        	movi	a14, 204
    5a66:	c1aae0        	mul16u	a10, a10, a14
    5a69:	88a5d2        	movi	a13, 0x588
    5a6c:	9afa      	add.n	a9, a10, a15
    5a6e:	a00992        	l8ui	a9, a9, 160
    5a71:	aa7a      	add.n	a10, a10, a7
    5a73:	a099a0        	addx4	a9, a9, a10
    5a76:	99da      	add.n	a9, a9, a13
    5a78:	604982        	s8i	a8, a9, 96
    5a7b:	4a04c2        	l8ui	a12, a4, 74
    5a7e:	c1cce0        	mul16u	a12, a12, a14
    5a81:	b94991        	l32r	a9, 0xffff3fa8
    5a84:	bcfa      	add.n	a11, a12, a15
    5a86:	a00bb2        	l8ui	a11, a11, 160
    5a89:	cc7a      	add.n	a12, a12, a7
    5a8b:	a0bbc0        	addx4	a11, a11, a12
    5a8e:	bbda      	add.n	a11, a11, a13
    5a90:	0020c0        	memw
    5a93:	8029a2        	l32i	a10, a9, 0x200
    5a96:	04afa0        	extui	a10, a10, 15, 1
    5a99:	3a5a16        	beqz	a10, 0x5e42
    5a9c:	f0a0c2        	movi	a12, 240
    5a9f:	0020c0        	memw
    5aa2:	8029a2        	l32i	a10, a9, 0x200
    5aa5:	34aca0        	extui	a10, a10, 12, 4
    5aa8:	20aac0        	or	a10, a10, a12
    5aab:	614ba2        	s8i	a10, a11, 97
    5aae:	4a04e2        	l8ui	a14, a4, 74
    5ab1:	cca0c2        	movi	a12, 204
    5ab4:	c1eec0        	mul16u	a14, a14, a12
    5ab7:	8efa      	add.n	a8, a14, a15
    5ab9:	a00882        	l8ui	a8, a8, 160
    5abc:	ee7a      	add.n	a14, a14, a7
    5abe:	a088e0        	addx4	a8, a8, a14
    5ac1:	88da      	add.n	a8, a8, a13
    5ac3:	b942e1        	l32r	a14, 0xffff3fcc
    5ac6:	0020c0        	memw
    5ac9:	812ee2        	l32i	a14, a14, 0x204
    5acc:	6248e2        	s8i	a14, a8, 98
    5acf:	4a0482        	l8ui	a8, a4, 74
    5ad2:	c188c0        	mul16u	a8, a8, a12
    5ad5:	e8fa      	add.n	a14, a8, a15
    5ad7:	a00ee2        	l8ui	a14, a14, 160
    5ada:	887a      	add.n	a8, a8, a7
    5adc:	a0ee80        	addx4	a14, a14, a8
    5adf:	eeda      	add.n	a14, a14, a13
    5ae1:	0020c0        	memw
    5ae4:	852992        	l32i	a9, a9, 0x214
    5ae7:	634e92        	s8i	a9, a14, 99
    5aea:	4a0482        	l8ui	a8, a4, 74
    5aed:	c188c0        	mul16u	a8, a8, a12
    5af0:	8f8a      	add.n	a8, a15, a8
    5af2:	a008e2        	l8ui	a14, a8, 160
    5af5:	ee1b      	addi.n	a14, a14, 1
    5af7:	a048e2        	s8i	a14, a8, 160
    5afa:	4a0492        	l8ui	a9, a4, 74
    5afd:	c199c0        	mul16u	a9, a9, a12
    5b00:	9f9a      	add.n	a9, a15, a9
    5b02:	a009c2        	l8ui	a12, a9, 160
    5b05:	04bc66        	bnei	a12, 16, 0x5b0d
    5b08:	0f0c      	movi.n	a15, 0
    5b0a:	a049f2        	s8i	a15, a9, 160
    5b0d:	02ad      	mov.n	a10, a2
    5b0f:	692382        	l32i	a8, a3, 0x1a4
    5b12:	ab0c      	movi.n	a11, 10
    5b14:	0008e0        	excw
    5b17:	060c      	movi.n	a6, 0
    5b19:	090c      	movi.n	a9, 0
    5b1b:	8199      	s32i.n	a9, a1, 32
    5b1d:	1524a2        	l32i	a10, a4, 84
    5b20:	0e6a97        	bbci	a10, 9, 0x5b32
    5b23:	02ad      	mov.n	a10, a2
    5b25:	fc6765        	excw
    5b28:	6acc      	bnez.n	a10, 0x5b32
    5b2a:	d92382        	l32i	a8, a3, 0x364
    5b2d:	02ad      	mov.n	a10, a2
    5b2f:	0008e0        	excw
    5b32:	8198      	l32i.n	a9, a1, 32
    5b34:	b92f21        	l32r	a2, 0xffff3ff0
    5b37:	2be916        	beqz	a9, 0x5df9
    5b3a:	fac5a2        	addi	a10, a5, -6
    5b3d:	2b8a16        	beqz	a10, 0x5df9
    5b40:	6f04a2        	l8ui	a10, a4, 111
    5b43:	7d2382        	l32i	a8, a3, 0x1f4
    5b46:	cb1c      	movi.n	a11, 28
    5b48:	0008e0        	excw
    5b4b:	b93cb1        	l32r	a11, 0xffff403c
    5b4e:	6c07a2        	l8ui	a10, a7, 108
    5b51:	580b92        	l8ui	a9, a11, 88
    5b54:	1c0c      	movi.n	a12, 1
    5b56:	2099c0        	or	a9, a9, a12
    5b59:	584b92        	s8i	a9, a11, 88
    5b5c:	112a66        	bnei	a10, 2, 0x5b71
    5b5f:	0e6907        	bbci	a9, 0, 0x5b71
    5b62:	3c0b92        	l8ui	a9, a11, 60
    5b65:	fbc9d2        	addi	a13, a9, -5
    5b68:	218d16        	beqz	a13, 0x5d84
    5b6b:	f9c9a2        	addi	a10, a9, -7
    5b6e:	212a16        	beqz	a10, 0x5d84
    5b71:	06bd      	mov.n	a11, a6
    5b73:	252282        	l32i	a8, a2, 148
    5b76:	74a050        	extui	a10, a5, 0, 8
    5b79:	0008e0        	excw
    5b7c:	f01d      	excw
    5b7e:	b988b1        	l32r	a11, 0xffff41a0
    5b81:	a0b2b0        	addx4	a11, a2, a11
    5b84:	0b98      	l32i.n	a9, a11, 0
    5b86:	0319a6        	blti	a9, 1, 0x5b8d
    5b89:	f90b      	addi.n	a15, a9, -1
    5b8b:	0bf9      	s32i.n	a15, a11, 0
    5b8d:	b99391        	l32r	a9, 0xffff41dc
    5b90:	080c      	movi.n	a8, 0
    5b92:	929a      	add.n	a9, a2, a9
    5b94:	004982        	s8i	a8, a9, 0
    5b97:	34a360        	extui	a10, a6, 3, 4
    5b9a:	11a9      	s32i.n	a10, a1, 4
    5b9c:	fc6fa5        	excw
    5b9f:	51a9      	s32i.n	a10, a1, 20
    5ba1:	2217c2        	l16ui	a12, a7, 68
    5ba4:	81a9      	s32i.n	a10, a1, 32
    5ba6:	9c8c      	beqz.n	a12, 0x5bb3
    5ba8:	b92f81        	l32r	a8, 0xffff4064
    5bab:	852882        	l32i	a8, a8, 0x214
    5bae:	02ad      	mov.n	a10, a2
    5bb0:	0008e0        	excw
    5bb3:	5198      	l32i.n	a9, a1, 20
    5bb5:	d98c      	beqz.n	a9, 0x5bc6
    5bb7:	4a04a2        	l8ui	a10, a4, 74
    5bba:	80a0b2        	movi	a11, 128
    5bbd:	612382        	l32i	a8, a3, 0x184
    5bc0:	10b6b0        	and	a11, a6, a11
    5bc3:	0008e0        	excw
    5bc6:	51d8      	l32i.n	a13, a1, 20
    5bc8:	6923c2        	l32i	a12, a3, 0x1a4
    5bcb:	06bd16        	beqz	a13, 0x5c3a
    5bce:	02ad      	mov.n	a10, a2
    5bd0:	9b0c      	movi.n	a11, 9
    5bd2:	000ce0        	excw
    5bd5:	001a06        	j	0x5c41
    5bd8:	892c      	movi.n	a9, 40
    5bda:	b988a1        	l32r	a10, 0xffff41fc
    5bdd:	b99381        	l32r	a8, 0xffff422c
    5be0:	a0a2a0        	addx4	a10, a2, a10
    5be3:	828a      	add.n	a8, a2, a8
    5be5:	0008f2        	l8ui	a15, a8, 0
    5be8:	0a99      	s32i.n	a9, a10, 0
    5bea:	ff1b      	addi.n	a15, a15, 1
    5bec:	0048f2        	s8i	a15, a8, 0
    5bef:	21b8      	l32i.n	a11, a1, 8
    5bf1:	10fbc0        	and	a15, a11, a12
    5bf4:	71f9      	s32i.n	a15, a1, 28
    5bf6:	158bc7        	bany	a11, a12, 0x5c0f
    5bf9:	4b0482        	l8ui	a8, a4, 75
    5bfc:	021866        	bnei	a8, 1, 0x5c02
    5bff:	0ce677        	bbsi	a6, 7, 0x5c0f
    5c02:	630492        	l8ui	a9, a4, 99
    5c05:	239900        	excw
    5c08:	c9cc      	bnez.n	a9, 0x5c18
    5c0a:	4e07a2        	l8ui	a10, a7, 78
    5c0d:	7a8c      	beqz.n	a10, 0x5c18
    5c0f:	1524b2        	l32i	a11, a4, 84
    5c12:	10bbe0        	and	a11, a11, a14
    5c15:	1564b2        	s32i	a11, a4, 84
    5c18:	71c8      	l32i.n	a12, a1, 28
    5c1a:	6ccc      	bnez.n	a12, 0x5c24
    5c1c:	6204e2        	l8ui	a14, a4, 98
    5c1f:	23ee00        	excw
    5c22:	7ecc      	bnez.n	a14, 0x5c2d
    5c24:	1524f2        	l32i	a15, a4, 84
    5c27:	10ffd0        	and	a15, a15, a13
    5c2a:	1564f2        	s32i	a15, a4, 84
    5c2d:	02ad      	mov.n	a10, a2
    5c2f:	692382        	l32i	a8, a3, 0x1a4
    5c32:	eb0c      	movi.n	a11, 14
    5c34:	0008e0        	excw
    5c37:	ffb706        	j	0x5b17
    5c3a:	02ad      	mov.n	a10, a2
    5c3c:	bb0c      	movi.n	a11, 11
    5c3e:	000ce0        	excw
    5c41:	610492        	l8ui	a9, a4, 97
    5c44:	21a8      	l32i.n	a10, a1, 8
    5c46:	00a4b2        	movi	a11, 0x400
    5c49:	10aab0        	and	a10, a10, a11
    5c4c:	71a9      	s32i.n	a10, a1, 28
    5c4e:	049916        	beqz	a9, 0x5c9b
    5c51:	21c8      	l32i.n	a12, a1, 8
    5c53:	00a4d2        	movi	a13, 0x400
    5c56:	410cd7        	bnone	a12, a13, 0x5c9b
    5c59:	07e677        	bbsi	a6, 7, 0x5c64
    5c5c:	b929a1        	l32r	a10, 0xffff4100
    5c5f:	0b0c      	movi.n	a11, 0
    5c61:	ae3f25        	excw
    5c64:	1524e2        	l32i	a14, a4, 84
    5c67:	076e17        	bbci	a14, 1, 0x5c72
    5c6a:	df7c      	movi.n	a15, -3
    5c6c:	10eef0        	and	a14, a14, a15
    5c6f:	1564e2        	s32i	a14, a4, 84
    5c72:	1c7e17        	bbci	a14, 17, 0x5c92
    5c75:	167e07        	bbci	a14, 16, 0x5c8f
    5c78:	7f2382        	l32i	a8, a3, 0x1fc
    5c7b:	b94f91        	l32r	a9, 0xffff41b8
    5c7e:	b96da1        	l32r	a10, 0xffff4234
    5c81:	209e90        	or	a9, a14, a9
    5c84:	1099a0        	and	a9, a9, a10
    5c87:	156492        	s32i	a9, a4, 84
    5c8a:	02ad      	mov.n	a10, a2
    5c8c:	0008e0        	excw
    5c8f:	1524e2        	l32i	a14, a4, 84
    5c92:	b96ea1        	l32r	a10, 0xffff424c
    5c95:	10aea0        	and	a10, a14, a10
    5c98:	1564a2        	s32i	a10, a4, 84
    5c9b:	6c07b2        	l8ui	a11, a7, 108
    5c9e:	602b66        	bnei	a11, 2, 0x5d02
    5ca1:	b93c91        	l32r	a9, 0xffff4194
    5ca4:	3c0992        	l8ui	a9, a9, 60
    5ca7:	025926        	beqi	a9, 5, 0x5cad
    5caa:	547966        	bnei	a9, 7, 0x5d02
    5cad:	b97d81        	l32r	a8, 0xffff42a4
    5cb0:	6888      	l32i.n	a8, a8, 24
    5cb2:	64a0a2        	movi	a10, 100
    5cb5:	0008e0        	excw
    5cb8:	0020c0        	memw
    5cbb:	b95891        	l32r	a9, 0xffff421c
    5cbe:	51a8      	l32i.n	a10, a1, 20
    5cc0:	9e2992        	l32i	a9, a9, 0x278
    5cc3:	187a16        	beqz	a10, 0x5e4e
    5cc6:	05a890        	extui	a10, a9, 24, 1
    5cc9:	181a16        	beqz	a10, 0x5e4e
    5ccc:	05b990        	extui	a11, a9, 25, 1
    5ccf:	17bb16        	beqz	a11, 0x5e4e
    5cd2:	b93c91        	l32r	a9, 0xffff41c4
    5cd5:	580992        	l8ui	a9, a9, 88
    5cd8:	2a0c      	movi.n	a10, 2
    5cda:	2099a0        	or	a9, a9, a10
    5cdd:	b93ca1        	l32r	a10, 0xffff41d0
    5ce0:	584a92        	s8i	a9, a10, 88
    5ce3:	0006c6        	j	0x5d02
    5ce6:	02ad      	mov.n	a10, a2
    5ce8:	692382        	l32i	a8, a3, 0x1a4
    5ceb:	9b0c      	movi.n	a11, 9
    5ced:	0008e0        	excw
    5cf0:	00a4c2        	movi	a12, 0x400
    5cf3:	21b8      	l32i.n	a11, a1, 8
    5cf5:	090c      	movi.n	a9, 0
    5cf7:	0a0c      	movi.n	a10, 0
    5cf9:	81a9      	s32i.n	a10, a1, 32
    5cfb:	1199      	s32i.n	a9, a1, 4
    5cfd:	10bbc0        	and	a11, a11, a12
    5d00:	71b9      	s32i.n	a11, a1, 28
    5d02:	4b0492        	l8ui	a9, a4, 75
    5d05:	6104e2        	l8ui	a14, a4, 97
    5d08:	71d8      	l32i.n	a13, a1, 28
    5d0a:	ee1b      	addi.n	a14, a14, 1
    5d0c:	6144e2        	s8i	a14, a4, 97
    5d0f:	1ddc      	bnez.n	a13, 0x5d24
    5d11:	021966        	bnei	a9, 1, 0x5d17
    5d14:	0ce677        	bbsi	a6, 7, 0x5d24
    5d17:	6304f2        	l8ui	a15, a4, 99
    5d1a:	23ff00        	excw
    5d1d:	ffcc      	bnez.n	a15, 0x5d30
    5d1f:	4e0782        	l8ui	a8, a7, 78
    5d22:	a88c      	beqz.n	a8, 0x5d30
    5d24:	b96fb1        	l32r	a11, 0xffff42e0
    5d27:	1524a2        	l32i	a10, a4, 84
    5d2a:	10aab0        	and	a10, a10, a11
    5d2d:	1564a2        	s32i	a10, a4, 84
    5d30:	71c8      	l32i.n	a12, a1, 28
    5d32:	6ccc      	bnez.n	a12, 0x5d3c
    5d34:	6204d2        	l8ui	a13, a4, 98
    5d37:	23dd00        	excw
    5d3a:	adcc      	bnez.n	a13, 0x5d48
    5d3c:	b970f1        	l32r	a15, 0xffff42fc
    5d3f:	1524e2        	l32i	a14, a4, 84
    5d42:	10eef0        	and	a14, a14, a15
    5d45:	1564e2        	s32i	a14, a4, 84
    5d48:	d9cc      	bnez.n	a9, 0x5d59
    5d4a:	0b6677        	bbci	a6, 7, 0x5d59
    5d4d:	b9b2a1        	l32r	a10, 0xffff4418
    5d50:	4198      	l32i.n	a9, a1, 16
    5d52:	080c      	movi.n	a8, 0
    5d54:	99aa      	add.n	a9, a9, a10
    5d56:	804982        	s8i	a8, a9, 128
    5d59:	1524e2        	l32i	a14, a4, 84
    5d5c:	1168      	l32i.n	a6, a1, 4
    5d5e:	04bce0        	extui	a11, a14, 12, 1
    5d61:	db8b16        	beqz	a11, 0x5b1d
    5d64:	004122        	s8i	a2, a1, 0
    5d67:	2a0c      	movi.n	a10, 2
    5d69:	0ca2b2        	movi	a11, 0x20c
    5d6c:	01cd      	mov.n	a12, a1
    5d6e:	1d0c      	movi.n	a13, 1
    5d70:	b9b391        	l32r	a9, 0xffff443c
    5d73:	b91181        	l32r	a8, 0xffff41b8
    5d76:	109e90        	and	a9, a14, a9
    5d79:	7888      	l32i.n	a8, a8, 28
    5d7b:	156492        	s32i	a9, a4, 84
    5d7e:	0008e0        	excw
    5d81:	ff6606        	j	0x5b1d
    5d84:	fdc6a2        	addi	a10, a6, -3
    5d87:	090a16        	beqz	a10, 0x5e1b
    5d8a:	1524c2        	l32i	a12, a4, 84
    5d8d:	06bd      	mov.n	a11, a6
    5d8f:	04a0c0        	extui	a10, a12, 0, 1
    5d92:	076c07        	bbci	a12, 0, 0x5d9d
    5d95:	0b1c      	movi.n	a11, 16
    5d97:	20b6b0        	or	a11, a6, a11
    5d9a:	74b0b0        	extui	a11, a11, 0, 8
    5d9d:	7104c2        	l8ui	a12, a4, 113
    5da0:	721cb7        	beq	a12, a11, 0x5e16
    5da3:	7b2282        	l32i	a8, a2, 0x1ec
    5da6:	0008e0        	excw
    5da9:	190c      	movi.n	a9, 1
    5dab:	001b86        	j	0x5e1d
    5dae:	2198      	l32i.n	a9, a1, 8
    5db0:	10a9c0        	and	a10, a9, a12
    5db3:	71a9      	s32i.n	a10, a1, 28
    5db5:	1589c7        	bany	a9, a12, 0x5dce
    5db8:	4b04b2        	l8ui	a11, a4, 75
    5dbb:	021b66        	bnei	a11, 1, 0x5dc1
    5dbe:	0ce677        	bbsi	a6, 7, 0x5dce
    5dc1:	6304c2        	l8ui	a12, a4, 99
    5dc4:	23cc00        	excw
    5dc7:	cccc      	bnez.n	a12, 0x5dd7
    5dc9:	4e07f2        	l8ui	a15, a7, 78
    5dcc:	7f8c      	beqz.n	a15, 0x5dd7
    5dce:	152482        	l32i	a8, a4, 84
    5dd1:	1088e0        	and	a8, a8, a14
    5dd4:	156482        	s32i	a8, a4, 84
    5dd7:	7198      	l32i.n	a9, a1, 28
    5dd9:	69cc      	bnez.n	a9, 0x5de3
    5ddb:	6204a2        	l8ui	a10, a4, 98
    5dde:	23aa00        	excw
    5de1:	7acc      	bnez.n	a10, 0x5dec
    5de3:	1524b2        	l32i	a11, a4, 84
    5de6:	10bbd0        	and	a11, a11, a13
    5de9:	1564b2        	s32i	a11, a4, 84
    5dec:	02ad      	mov.n	a10, a2
    5dee:	692382        	l32i	a8, a3, 0x1a4
    5df1:	eb0c      	movi.n	a11, 14
    5df3:	0008e0        	excw
    5df6:	ff4746        	j	0x5b17
    5df9:	6f04a2        	l8ui	a10, a4, 111
    5dfc:	7d2382        	l32i	a8, a3, 0x1f4
    5dff:	0b1c      	movi.n	a11, 16
    5e01:	0008e0        	excw
    5e04:	b93ca1        	l32r	a10, 0xffff42f4
    5e07:	580a92        	l8ui	a9, a10, 88
    5e0a:	fea0b2        	movi	a11, 254
    5e0d:	1099b0        	and	a9, a9, a11
    5e10:	584a92        	s8i	a9, a10, 88
    5e13:	ff5686        	j	0x5b71
    5e16:	090c      	movi.n	a9, 0
    5e18:	000046        	j	0x5e1d
    5e1b:	090c      	movi.n	a9, 0
    5e1d:	d50956        	bnez	a9, 0x5b71
    5e20:	b939c1        	l32r	a12, 0xffff4304
    5e23:	ac0cc2        	l8ui	a12, a12, 172
    5e26:	d47c16        	beqz	a12, 0x5b71
    5e29:	b92cd1        	l32r	a13, 0xffff42dc
    5e2c:	e32dd2        	l32i	a13, a13, 0x38c
    5e2f:	fbcdd2        	addi	a13, a13, -5
    5e32:	d3bd16        	beqz	a13, 0x5b71
    5e35:	4a0c      	movi.n	a10, 4
    5e37:	322282        	l32i	a8, a2, 200
    5e3a:	1b0c      	movi.n	a11, 1
    5e3c:	0008e0        	excw
    5e3f:	ff4b86        	j	0x5b71
    5e42:	0020c0        	memw
    5e45:	8029a2        	l32i	a10, a9, 0x200
    5e48:	34aca0        	extui	a10, a10, 12, 4
    5e4b:	ff1706        	j	0x5aab
    5e4e:	b93c91        	l32r	a9, 0xffff4340
    5e51:	580992        	l8ui	a9, a9, 88
    5e54:	fda0a2        	movi	a10, 253
    5e57:	1099a0        	and	a9, a9, a10
    5e5a:	ff9fc6        	j	0x5cdd
    5e5d:	000000        	ill
    5e60:	004136        	excw
    5e63:	ffa082        	movi	a8, 255
    5e66:	079287        	bne	a2, a8, 0x5e71
    5e69:	b929a1        	l32r	a10, 0xffff4310
    5e6c:	0b0c      	movi.n	a11, 0
    5e6e:	ae1e65        	excw
    5e71:	02ad      	mov.n	a10, a2
    5e73:	fc3625        	excw
    5e76:	0a5d      	mov.n	a5, a10
    5e78:	b92d41        	l32r	a4, 0xffff432c
    5e7b:	e2a4a2        	movi	a10, 0x4e2
    5e7e:	8e0482        	l8ui	a8, a4, 142
    5e81:	461462        	l16ui	a6, a4, 140
    5e84:	d188a0        	mul16s	a8, a8, a10
    5e87:	b9b491        	l32r	a9, 0xffff4558
    5e8a:	668a      	add.n	a6, a6, a8
    5e8c:	063d      	mov.n	a3, a6
    5e8e:	07b967        	bgeu	a9, a6, 0x5e99
    5e91:	b929a1        	l32r	a10, 0xffff4338
    5e94:	0b0c      	movi.n	a11, 0
    5e96:	ae1be5        	excw
    5e99:	b91071        	l32r	a7, 0xffff42dc
    5e9c:	9804b2        	l8ui	a11, a4, 152
    5e9f:	9a0c      	movi.n	a10, 9
    5ea1:	0e1ba7        	beq	a11, a10, 0x5eb3
    5ea4:	0b1b26        	beqi	a11, 1, 0x5eb3
    5ea7:	087b26        	beqi	a11, 7, 0x5eb3
    5eaa:	058b26        	beqi	a11, 8, 0x5eb3
    5ead:	3d17b2        	l16ui	a11, a7, 122
    5eb0:	0015c6        	j	0x5f0b
    5eb3:	b92cc1        	l32r	a12, 0xffff4364
    5eb6:	9904b2        	l8ui	a11, a4, 153
    5eb9:	b02cc2        	l32i	a12, a12, 0x2c0
    5ebc:	0c3bc7        	bltu	a11, a12, 0x5ecc
    5ebf:	b929a1        	l32r	a10, 0xffff4364
    5ec2:	0b0c      	movi.n	a11, 0
    5ec4:	ae18e5        	excw
    5ec7:	9a0c      	movi.n	a10, 9
    5ec9:	9904b2        	l8ui	a11, a4, 153
    5ecc:	b977d1        	l32r	a13, 0xffff44a8
    5ecf:	98a1e2        	movi	a14, 0x198
    5ed2:	c1ebe0        	mul16u	a14, a11, a14
    5ed5:	9804f2        	l8ui	a15, a4, 152
    5ed8:	ddea      	add.n	a13, a13, a14
    5eda:	800dd2        	l8ui	a13, a13, 128
    5edd:	3d17b2        	l16ui	a11, a7, 122
    5ee0:	271d66        	bnei	a13, 1, 0x5f0b
    5ee3:	249fa7        	bne	a15, a10, 0x5f0b
    5ee6:	b92c81        	l32r	a8, 0xffff4398
    5ee9:	3d17b2        	l16ui	a11, a7, 122
    5eec:	bb2882        	l32i	a8, a8, 0x2ec
    5eef:	5ea192        	movi	a9, 0x15e
    5ef2:	417847        	bbci	a8, 20, 0x5f37
    5ef5:	129697        	bne	a6, a9, 0x5f0b
    5ef8:	b938a1        	l32r	a10, 0xffff43d8
    5efb:	36ba      	add.n	a3, a6, a11
    5efd:	861aa2        	l16ui	a10, a10, 0x10c
    5f00:	b91fc1        	l32r	a12, 0xffff437c
    5f03:	aaba      	add.n	a10, a10, a11
    5f05:	065ca2        	s16i	a10, a12, 12
    5f08:	ffffc6        	j	0x5f0b
    5f0b:	b92ba1        	l32r	a10, 0xffff43b8
    5f0e:	98a1c2        	movi	a12, 0x198
    5f11:	c1c2c0        	mul16u	a12, a2, a12
    5f14:	7333b0        	excw
    5f17:	aaca      	add.n	a10, a10, a12
    5f19:	800aa2        	l8ui	a10, a10, 128
    5f1c:	fc31a5        	excw
    5f1f:	e2a4b2        	movi	a11, 0x4e2
    5f22:	aa3a      	add.n	a10, a10, a3
    5f24:	64caa2        	addi	a10, a10, 100
    5f27:	0761a5        	excw
    5f2a:	b96981        	l32r	a8, 0xffff44d0
    5f2d:	902a50        	addx2	a2, a10, a5
    5f30:	222b      	addi.n	a2, a2, 2
    5f32:	102280        	and	a2, a2, a8
    5f35:	f01d      	excw
    5f37:	3d17b2        	l16ui	a11, a7, 122
    5f3a:	fff346        	j	0x5f0b
    5f3d:	000000        	ill
    5f40:	00a136        	excw
    5f43:	ffa052        	movi	a5, 255
    5f46:	b93c41        	l32r	a4, 0xffff4438
    5f49:	b9b571        	l32r	a7, 0xffff4620
    5f4c:	03cd      	mov.n	a12, a3
    5f4e:	02dd      	mov.n	a13, a2
    5f50:	130c      	movi.n	a3, 1
    5f52:	b91b21        	l32r	a2, 0xffff43c0
    5f55:	11c9      	s32i.n	a12, a1, 4
    5f57:	ffd7b2        	addmi	a11, a7, 0xffffff00
    5f5a:	1504a2        	l8ui	a10, a4, 21
    5f5d:	f8d762        	addmi	a6, a7, 0xfffff800
    5f60:	3f1a57        	beq	a10, a5, 0x5fa3
    5f63:	1104c2        	l8ui	a12, a4, 17
    5f66:	b973e1        	l32r	a14, 0xffff4534
    5f69:	04f0c0        	extui	a15, a12, 0, 1
    5f6c:	11ec07        	bbsi	a12, 0, 0x5f81
    5f6f:	262782        	l32i	a8, a7, 152
    5f72:	4e1792        	l16ui	a9, a7, 156
    5f75:	c08d80        	sub	a8, a13, a8
    5f78:	1088e0        	and	a8, a8, a14
    5f7b:	1188f0        	slli	a8, a8, 1
    5f7e:	212897        	blt	a8, a9, 0x5fa3
    5f81:	b9b691        	l32r	a9, 0xffff465c
    5f84:	98a182        	movi	a8, 0x198
    5f87:	c18a80        	mul16u	a8, a10, a8
    5f8a:	998a      	add.n	a9, a9, a8
    5f8c:	800992        	l8ui	a9, a9, 128
    5f8f:	239900        	excw
    5f92:	0219e6        	bgei	a9, 1, 0x5f98
    5f95:	00ae06        	j	0x6251
    5f98:	692282        	l32i	a8, a2, 0x1a4
    5f9b:	4b0c      	movi.n	a11, 4
    5f9d:	0008e0        	excw
    5fa0:	b9b7b1        	l32r	a11, 0xffff467c
    5fa3:	b951d1        	l32r	a13, 0xffff44e8
    5fa6:	b9b8f1        	l32r	a15, 0xffff4688
    5fa9:	1404a2        	l8ui	a10, a4, 20
    5fac:	b9b991        	l32r	a9, 0xffff4690
    5faf:	c08a50        	sub	a8, a10, a5
    5fb2:	109816        	beqz	a8, 0x60bf
    5fb5:	0a2d      	mov.n	a2, a10
    5fb7:	98a1c2        	movi	a12, 0x198
    5fba:	c1cac0        	mul16u	a12, a10, a12
    5fbd:	401200        	ssl	a2
    5fc0:	ec9a      	add.n	a14, a12, a9
    5fc2:	700e82        	l8ui	a8, a14, 112
    5fc5:	3189      	s32i.n	a8, a1, 12
    5fc7:	08ec      	bnez.n	a8, 0x5feb
    5fc9:	880e82        	l8ui	a8, a14, 136
    5fcc:	238800        	excw
    5fcf:	0818e6        	bgei	a8, 1, 0x5fdb
    5fd2:	870e92        	l8ui	a9, a14, 135
    5fd5:	239900        	excw
    5fd8:	0f19a6        	blti	a9, 1, 0x5feb
    5fdb:	16e8      	l32i.n	a14, a6, 4
    5fdd:	9cfa      	add.n	a9, a12, a15
    5fdf:	1b29a2        	l32i	a10, a9, 108
    5fe2:	41e1e0        	srli	a14, a14, 1
    5fe5:	c0aae0        	sub	a10, a10, a14
    5fe8:	415a16        	beqz	a10, 0x6401
    5feb:	3188      	l32i.n	a8, a1, 12
    5fed:	071866        	bnei	a8, 1, 0x5ff8
    5ff0:	9cfa      	add.n	a9, a12, a15
    5ff2:	3c19a2        	l16ui	a10, a9, 120
    5ff5:	408a16        	beqz	a10, 0x6401
    5ff8:	0c0c      	movi.n	a12, 0
    5ffa:	b9baa1        	l32r	a10, 0xffff46e4
    5ffd:	a1f300        	sll	a15, a3
    6000:	d01b82        	l16ui	a8, a11, 0x1a0
    6003:	98a1e2        	movi	a14, 0x198
    6006:	c1e2e0        	mul16u	a14, a2, a14
    6009:	2088f0        	or	a8, a8, a15
    600c:	505782        	s16i	a8, a7, 160
    600f:	aaea      	add.n	a10, a10, a14
    6011:	5b0a82        	l8ui	a8, a10, 91
    6014:	be0c      	movi.n	a14, 11
    6016:	238800        	excw
    6019:	0218e6        	bgei	a8, 1, 0x601f
    601c:	00e706        	j	0x63bc
    601f:	16e8      	l32i.n	a14, a6, 4
    6021:	da1a82        	l16ui	a8, a10, 0x1b4
    6024:	e4e1e0        	extui	a14, a14, 1, 15
    6027:	c0ee80        	sub	a14, a14, a8
    602a:	2d88      	l32i.n	a8, a13, 8
    602c:	e4e0e0        	extui	a14, a14, 0, 15
    602f:	109f80        	and	a9, a15, a8
    6032:	2199      	s32i.n	a9, a1, 8
    6034:	0e0f87        	bnone	a15, a8, 0x6046
    6037:	2d1682        	l16ui	a8, a6, 90
    603a:	08be87        	bgeu	a14, a8, 0x6046
    603d:	d11b92        	l16ui	a9, a11, 0x1a2
    6040:	2099f0        	or	a9, a9, a15
    6043:	515792        	s16i	a9, a7, 162
    6046:	b936f1        	l32r	a15, 0xffff4520
    6049:	a20ff2        	l8ui	a15, a15, 162
    604c:	8fcc      	bnez.n	a15, 0x6058
    604e:	2188      	l32i.n	a8, a1, 8
    6050:	e89c      	beqz.n	a8, 0x6072
    6052:	2d1692        	l16ui	a9, a6, 90
    6055:	19be97        	bgeu	a14, a9, 0x6072
    6058:	11f8      	l32i.n	a15, a1, 4
    605a:	0eef97        	bbsi	a15, 9, 0x606c
    605d:	5b0a92        	l8ui	a9, a10, 91
    6060:	740682        	l8ui	a8, a6, 116
    6063:	239900        	excw
    6066:	022897        	blt	a8, a9, 0x606c
    6069:	00a646        	j	0x6306
    606c:	640af2        	l8ui	a15, a10, 100
    606f:	293f16        	beqz	a15, 0x6306
    6072:	1f2622        	l32i	a2, a6, 124
    6075:	048220        	extui	a8, a2, 2, 1
    6078:	18d816        	beqz	a8, 0x6209
    607b:	2cec      	bnez.n	a12, 0x60a1
    607d:	1f04f2        	l8ui	a15, a4, 31
    6080:	2cbf16        	beqz	a15, 0x634f
    6083:	750692        	l8ui	a9, a6, 117
    6086:	023f97        	bltu	a15, a9, 0x608c
    6089:	00b086        	j	0x634f
    608c:	6c2a92        	l32i	a9, a10, 0x1b0
    608f:	f5c9f2        	addi	a15, a9, -11
    6092:	2b9f16        	beqz	a15, 0x634f
    6095:	f7c982        	addi	a8, a9, -9
    6098:	2b3816        	beqz	a8, 0x634f
    609b:	f1c9a2        	addi	a10, a9, -15
    609e:	2ada16        	beqz	a10, 0x634f
    60a1:	1404a2        	l8ui	a10, a4, 20
    60a4:	2df8      	l32i.n	a15, a13, 8
    60a6:	025fa7        	bbc	a15, a10, 0x60ac
    60a9:	00a946        	j	0x6352
    60ac:	1f04f2        	l8ui	a15, a4, 31
    60af:	3f8c      	beqz.n	a15, 0x60b6
    60b1:	ff1b      	addi.n	a15, a15, 1
    60b3:	1f44f2        	s8i	a15, a4, 31
    60b6:	93fcc0        	movnez	a15, a12, a12
    60b9:	1f44f2        	s8i	a15, a4, 31
    60bc:	000086        	j	0x60c2
    60bf:	1f2622        	l32i	a2, a6, 124
    60c2:	b9b8f1        	l32r	a15, 0xffff47a4
    60c5:	439a57        	bne	a10, a5, 0x610c
    60c8:	1204a2        	l8ui	a10, a4, 18
    60cb:	1444a2        	s8i	a10, a4, 20
    60ce:	111a57        	beq	a10, a5, 0x60e3
    60d1:	2d88      	l32i.n	a8, a13, 8
    60d3:	fc7c      	movi.n	a12, -1
    60d5:	401a00        	ssl	a10
    60d8:	a19300        	sll	a9, a3
    60db:	3099c0        	xor	a9, a9, a12
    60de:	108890        	and	a8, a8, a9
    60e1:	2d89      	s32i.n	a8, a13, 8
    60e3:	d11be2        	l16ui	a14, a11, 0x1a2
    60e6:	16c8      	l32i.n	a12, a6, 4
    60e8:	0d0c      	movi.n	a13, 0
    60ea:	1f44d2        	s8i	a13, a4, 31
    60ed:	e4c1c0        	extui	a12, a12, 1, 15
    60f0:	d01bd2        	l16ui	a13, a11, 0x1a0
    60f3:	5357c2        	s16i	a12, a7, 166
    60f6:	10eed0        	and	a14, a14, a13
    60f9:	c0dde0        	sub	a13, a13, a14
    60fc:	2a0d56        	bnez	a13, 0x63a0
    60ff:	0e0c      	movi.n	a14, 0
    6101:	5157e2        	s16i	a14, a7, 162
    6104:	5257c2        	s16i	a12, a7, 164
    6107:	0b5c      	movi.n	a11, 80
    6109:	00a9c6        	j	0x63b4
    610c:	9b1c      	movi.n	a11, 25
    610e:	048120        	extui	a8, a2, 1, 1
    6111:	0a2d      	mov.n	a2, a10
    6113:	0e5856        	bnez	a8, 0x61fc
    6116:	b9bb71        	l32r	a7, 0xffff4804
    6119:	b92cd1        	l32r	a13, 0xffff45cc
    611c:	651a57        	beq	a10, a5, 0x6185
    611f:	98a1c2        	movi	a12, 0x198
    6122:	c1cac0        	mul16u	a12, a10, a12
    6125:	e71b      	addi.n	a14, a7, 1
    6127:	ecea      	add.n	a14, a12, a14
    6129:	700e92        	l8ui	a9, a14, 112
    612c:	055956        	bnez	a9, 0x6185
    612f:	6e0e82        	l8ui	a8, a14, 110
    6132:	4f3866        	bnei	a8, 3, 0x6185
    6135:	b96591        	l32r	a9, 0xffff46cc
    6138:	0020c0        	memw
    613b:	422992        	l32i	a9, a9, 0x108
    613e:	349090        	extui	a9, a9, 0, 4
    6141:	3a29f6        	bgeui	a9, 2, 0x617f
    6144:	80dcf0        	add	a13, a12, a15
    6147:	890de2        	l8ui	a14, a13, 137
    614a:	311e66        	bnei	a14, 1, 0x617f
    614d:	b92c91        	l32r	a9, 0xffff4600
    6150:	b02992        	l32i	a9, a9, 0x2c0
    6153:	2c6916        	beqz	a9, 0x641d
    6156:	00a0c2        	movi	a12, 0
    6159:	1f9976        	excw
    615c:	171ca7        	beq	a12, a10, 0x6177
    615f:	98a192        	movi	a9, 0x198
    6162:	c19c90        	mul16u	a9, a12, a9
    6165:	979a      	add.n	a9, a7, a9
    6167:	6f09e2        	l8ui	a14, a9, 111
    616a:	093e66        	bnei	a14, 3, 0x6177
    616d:	7109e2        	l8ui	a14, a9, 113
    6170:	3ecc      	bnez.n	a14, 0x6177
    6172:	190c      	movi.n	a9, 1
    6174:	00aa46        	j	0x6421
    6177:	cc1b      	addi.n	a12, a12, 1
    6179:	74c0c0        	extui	a12, a12, 0, 8
    617c:	00a7c6        	j	0x641f
    617f:	1404a2        	l8ui	a10, a4, 20
    6182:	b92cd1        	l32r	a13, 0xffff4634
    6185:	731a57        	beq	a10, a5, 0x61fc
    6188:	b9b9e1        	l32r	a14, 0xffff486c
    618b:	98a1c2        	movi	a12, 0x198
    618e:	c1cac0        	mul16u	a12, a10, a12
    6191:	ecea      	add.n	a14, a12, a14
    6193:	700ee2        	l8ui	a14, a14, 112
    6196:	062e56        	bnez	a14, 0x61fc
    6199:	060c      	movi.n	a6, 0
    619b:	b02de2        	l32i	a14, a13, 0x2c0
    619e:	b9bcd1        	l32r	a13, 0xffff4890
    61a1:	579e76        	excw
    61a4:	4f16a7        	beq	a6, a10, 0x61f7
    61a7:	98a192        	movi	a9, 0x198
    61aa:	c19690        	mul16u	a9, a6, a9
    61ad:	e9da      	add.n	a14, a9, a13
    61af:	860e82        	l8ui	a8, a14, 134
    61b2:	997a      	add.n	a9, a9, a7
    61b4:	3f1866        	bnei	a8, 1, 0x61f7
    61b7:	6f0982        	l8ui	a8, a9, 111
    61ba:	393866        	bnei	a8, 3, 0x61f7
    61bd:	790e82        	l8ui	a8, a14, 121
    61c0:	7109e2        	l8ui	a14, a9, 113
    61c3:	301866        	bnei	a8, 1, 0x61f7
    61c6:	51b9      	s32i.n	a11, a1, 20
    61c8:	2b1e66        	bnei	a14, 1, 0x61f7
    61cb:	b9b871        	l32r	a7, 0xffff48ac
    61ce:	3b0c      	movi.n	a11, 3
    61d0:	7c7a      	add.n	a7, a12, a7
    61d2:	9007a2        	l8ui	a10, a7, 144
    61d5:	01a9      	s32i.n	a10, a1, 0
    61d7:	073ba5        	excw
    61da:	51b8      	l32i.n	a11, a1, 20
    61dc:	0acd      	mov.n	a12, a10
    61de:	750782        	l8ui	a8, a7, 117
    61e1:	0198      	l32i.n	a9, a1, 0
    61e3:	c0a850        	sub	a10, a8, a5
    61e6:	8386a0        	moveqz	a8, a6, a10
    61e9:	748080        	extui	a8, a8, 0, 8
    61ec:	8328c0        	moveqz	a2, a8, a12
    61ef:	c91b      	addi.n	a12, a9, 1
    61f1:	9047c2        	s8i	a12, a7, 144
    61f4:	000106        	j	0x61fc
    61f7:	661b      	addi.n	a6, a6, 1
    61f9:	746060        	extui	a6, a6, 0, 8
    61fc:	4f1257        	beq	a2, a5, 0x624f
    61ff:	02ad      	mov.n	a10, a2
    6201:	fc07a5        	excw
    6204:	104432        	s8i	a3, a4, 16
    6207:	f01d      	excw
    6209:	4ccc      	bnez.n	a12, 0x6211
    620b:	1f0482        	l8ui	a8, a4, 31
    620e:	200816        	beqz	a8, 0x6412
    6211:	16e8      	l32i.n	a14, a6, 4
    6213:	1404a2        	l8ui	a10, a4, 20
    6216:	2d98      	l32i.n	a9, a13, 8
    6218:	401a00        	ssl	a10
    621b:	a1f300        	sll	a15, a3
    621e:	0209f7        	bnone	a9, a15, 0x6224
    6221:	002b46        	j	0x62d2
    6224:	b9b981        	l32r	a8, 0xffff4908
    6227:	98a192        	movi	a9, 0x198
    622a:	c19a90        	mul16u	a9, a10, a9
    622d:	889a      	add.n	a8, a8, a9
    622f:	910882        	l8ui	a8, a8, 145
    6232:	e4f1e0        	extui	a15, a14, 1, 15
    6235:	09c816        	beqz	a8, 0x62d5
    6238:	d31b82        	l16ui	a8, a11, 0x1a6
    623b:	7706e2        	l8ui	a14, a6, 119
    623e:	c08f80        	sub	a8, a15, a8
    6241:	e48080        	extui	a8, a8, 0, 15
    6244:	02be87        	bgeu	a14, a8, 0x624a
    6247:	002286        	j	0x62d5
    624a:	0cfd      	mov.n	a15, a12
    624c:	ff9a46        	j	0x60b9
    624f:	f01d      	excw
    6251:	170422        	l8ui	a2, a4, 23
    6254:	049257        	bne	a2, a5, 0x625c
    6257:	1744a2        	s8i	a10, a4, 23
    625a:	0a2d      	mov.n	a2, a10
    625c:	043f56        	bnez	a15, 0x62a3
    625f:	41d9      	s32i.n	a13, a1, 16
    6261:	ce1b92        	l16ui	a9, a11, 0x19c
    6264:	2816a2        	l16ui	a10, a6, 80
    6267:	1199f0        	slli	a9, a9, 1
    626a:	f49090        	extui	a9, a9, 0, 16
    626d:	4e5792        	s16i	a9, a7, 156
    6270:	1b39a7        	bltu	a9, a10, 0x628f
    6273:	b9bd81        	l32r	a8, 0xffff4968
    6276:	1888      	l32i.n	a8, a8, 4
    6278:	4e57a2        	s16i	a10, a7, 156
    627b:	0008e0        	excw
    627e:	b9b7b1        	l32r	a11, 0xffff495c
    6281:	41d8      	l32i.n	a13, a1, 16
    6283:	b973e1        	l32r	a14, 0xffff4850
    6286:	1490a0        	extui	a9, a10, 0, 2
    6289:	1104c2        	l8ui	a12, a4, 17
    628c:	000046        	j	0x6291
    628f:	090c      	movi.n	a9, 0
    6291:	170422        	l8ui	a2, a4, 23
    6294:	c0ad90        	sub	a10, a13, a9
    6297:	20fc30        	or	a15, a12, a3
    629a:	1144f2        	s8i	a15, a4, 17
    629d:	10aae0        	and	a10, a10, a14
    62a0:	666ba2        	s32i	a10, a11, 0x198
    62a3:	a81257        	beq	a2, a5, 0x624f
    62a6:	02ad      	mov.n	a10, a2
    62a8:	0b5c      	movi.n	a11, 80
    62aa:	fbfd25        	excw
    62ad:	b9be81        	l32r	a8, 0xffff49a8
    62b0:	98a192        	movi	a9, 0x198
    62b3:	c19290        	mul16u	a9, a2, a9
    62b6:	889a      	add.n	a8, a8, a9
    62b8:	800882        	l8ui	a8, a8, 128
    62bb:	104432        	s8i	a3, a4, 16
    62be:	174482        	s8i	a8, a4, 23
    62c1:	8a9857        	bne	a8, a5, 0x624f
    62c4:	1104a2        	l8ui	a10, a4, 17
    62c7:	fea0b2        	movi	a11, 254
    62ca:	10aab0        	and	a10, a10, a11
    62cd:	1144a2        	s8i	a10, a4, 17
    62d0:	f01d      	excw
    62d2:	e4f1e0        	extui	a15, a14, 1, 15
    62d5:	251a57        	beq	a10, a5, 0x62fe
    62d8:	98a1c2        	movi	a12, 0x198
    62db:	c1cac0        	mul16u	a12, a10, a12
    62de:	b9b8a1        	l32r	a10, 0xffff49c0
    62e1:	aaca      	add.n	a10, a10, a12
    62e3:	750aa2        	l8ui	a10, a10, 117
    62e6:	1444a2        	s8i	a10, a4, 20
    62e9:	111a57        	beq	a10, a5, 0x62fe
    62ec:	2de8      	l32i.n	a14, a13, 8
    62ee:	f97c      	movi.n	a9, -1
    62f0:	401a00        	ssl	a10
    62f3:	a18300        	sll	a8, a3
    62f6:	308890        	xor	a8, a8, a9
    62f9:	10ee80        	and	a14, a14, a8
    62fc:	2de9      	s32i.n	a14, a13, 8
    62fe:	5357f2        	s16i	a15, a7, 166
    6301:	0f0c      	movi.n	a15, 0
    6303:	ff6c86        	j	0x60b9
    6306:	ab0682        	l8ui	a8, a6, 171
    6309:	7206f2        	l8ui	a15, a6, 114
    630c:	02bf87        	bgeu	a15, a8, 0x6312
    630f:	ff57c6        	j	0x6072
    6312:	430a92        	l8ui	a9, a10, 67
    6315:	990b      	addi.n	a9, a9, -1
    6317:	d57956        	bnez	a9, 0x6072
    631a:	730682        	l8ui	a8, a6, 115
    631d:	d41af2        	l16ui	a15, a10, 0x1a8
    6320:	02bf87        	bgeu	a15, a8, 0x6326
    6323:	ff52c6        	j	0x6072
    6326:	81a9      	s32i.n	a10, a1, 32
    6328:	61e9      	s32i.n	a14, a1, 24
    632a:	6c2a92        	l32i	a9, a10, 0x1b0
    632d:	71c9      	s32i.n	a12, a1, 28
    632f:	f5c992        	addi	a9, a9, -11
    6332:	d3c956        	bnez	a9, 0x6072
    6335:	b91b81        	l32r	a8, 0xffff47a4
    6338:	702882        	l32i	a8, a8, 0x1c0
    633b:	02ad      	mov.n	a10, a2
    633d:	0008e0        	excw
    6340:	b9b7b1        	l32r	a11, 0xffff4a1c
    6343:	81a8      	l32i.n	a10, a1, 32
    6345:	71c8      	l32i.n	a12, a1, 28
    6347:	b951d1        	l32r	a13, 0xffff488c
    634a:	61e8      	l32i.n	a14, a1, 24
    634c:	ff4886        	j	0x6072
    634f:	1404a2        	l8ui	a10, a4, 20
    6352:	16f8      	l32i.n	a15, a6, 4
    6354:	760692        	l8ui	a9, a6, 118
    6357:	e4f1f0        	extui	a15, a15, 1, 15
    635a:	0e3e97        	bltu	a14, a9, 0x636c
    635d:	d31b92        	l16ui	a9, a11, 0x1a6
    6360:	770682        	l8ui	a8, a6, 119
    6363:	c09f90        	sub	a9, a15, a9
    6366:	e49090        	extui	a9, a9, 0, 15
    6369:	2bb897        	bgeu	a8, a9, 0x6398
    636c:	251a57        	beq	a10, a5, 0x6395
    636f:	98a1e2        	movi	a14, 0x198
    6372:	c1eae0        	mul16u	a14, a10, a14
    6375:	b9b8a1        	l32r	a10, 0xffff4a58
    6378:	aaea      	add.n	a10, a10, a14
    637a:	750aa2        	l8ui	a10, a10, 117
    637d:	1444a2        	s8i	a10, a4, 20
    6380:	111a57        	beq	a10, a5, 0x6395
    6383:	2d88      	l32i.n	a8, a13, 8
    6385:	fe7c      	movi.n	a14, -1
    6387:	401a00        	ssl	a10
    638a:	a19300        	sll	a9, a3
    638d:	3099e0        	xor	a9, a9, a14
    6390:	108890        	and	a8, a8, a9
    6393:	2d89      	s32i.n	a8, a13, 8
    6395:	5357f2        	s16i	a15, a7, 166
    6398:	0f0c      	movi.n	a15, 0
    639a:	1f44f2        	s8i	a15, a4, 31
    639d:	ff4386        	j	0x60af
    63a0:	d21b92        	l16ui	a9, a11, 0x1a4
    63a3:	78a082        	movi	a8, 120
    63a6:	c09c90        	sub	a9, a12, a9
    63a9:	e49090        	extui	a9, a9, 0, 15
    63ac:	02b897        	bgeu	a8, a9, 0x63b2
    63af:	ff5446        	j	0x6104
    63b2:	9b1c      	movi.n	a11, 25
    63b4:	0c0c      	movi.n	a12, 0
    63b6:	5057c2        	s16i	a12, a7, 160
    63b9:	ff5446        	j	0x610e
    63bc:	730692        	l8ui	a9, a6, 115
    63bf:	d41a82        	l16ui	a8, a10, 0x1a8
    63c2:	363897        	bltu	a8, a9, 0x63fc
    63c5:	d11b92        	l16ui	a9, a11, 0x1a2
    63c8:	2099f0        	or	a9, a9, a15
    63cb:	515792        	s16i	a9, a7, 162
    63ce:	430a82        	l8ui	a8, a10, 67
    63d1:	271866        	bnei	a8, 1, 0x63fc
    63d4:	5a0af2        	l8ui	a15, a10, 90
    63d7:	23ff00        	excw
    63da:	1e1fe6        	bgei	a15, 1, 0x63fc
    63dd:	81a9      	s32i.n	a10, a1, 32
    63df:	6c2a82        	l32i	a8, a10, 0x1b0
    63e2:	71c9      	s32i.n	a12, a1, 28
    63e4:	1498e7        	bne	a8, a14, 0x63fc
    63e7:	b91b81        	l32r	a8, 0xffff4854
    63ea:	702882        	l32i	a8, a8, 0x1c0
    63ed:	02ad      	mov.n	a10, a2
    63ef:	0008e0        	excw
    63f2:	b9b7b1        	l32r	a11, 0xffff4ad0
    63f5:	81a8      	l32i.n	a10, a1, 32
    63f7:	71c8      	l32i.n	a12, a1, 28
    63f9:	b951d1        	l32r	a13, 0xffff4940
    63fc:	0e0c      	movi.n	a14, 0
    63fe:	ff1c06        	j	0x6072
    6401:	31a8      	l32i.n	a10, a1, 12
    6403:	6acc      	bnez.n	a10, 0x640d
    6405:	8709c2        	l8ui	a12, a9, 135
    6408:	cc1b      	addi.n	a12, a12, 1
    640a:	8749c2        	s8i	a12, a9, 135
    640d:	1c0c      	movi.n	a12, 1
    640f:	fef9c6        	j	0x5ffa
    6412:	16f8      	l32i.n	a15, a6, 4
    6414:	1404a2        	l8ui	a10, a4, 20
    6417:	e4f1f0        	extui	a15, a15, 1, 15
    641a:	ffadc6        	j	0x62d5
    641d:	0c0c      	movi.n	a12, 0
    641f:	090c      	movi.n	a9, 0
    6421:	b9bfe1        	l32r	a14, 0xffff4b20
    6424:	99fc      	bnez.n	a9, 0x6461
    6426:	481c      	movi.n	a8, 20
    6428:	1698      	l32i.n	a9, a6, 4
    642a:	1b2da2        	l32i	a10, a13, 108
    642d:	419190        	srli	a9, a9, 1
    6430:	c099a0        	sub	a9, a9, a10
    6433:	023897        	bltu	a8, a9, 0x6439
    6436:	ff5146        	j	0x617f
    6439:	3d1d92        	l16ui	a9, a13, 122
    643c:	991b      	addi.n	a9, a9, 1
    643e:	3d5d92        	s16i	a9, a13, 122
    6441:	1404a2        	l8ui	a10, a4, 20
    6444:	98a182        	movi	a8, 0x198
    6447:	c18a80        	mul16u	a8, a10, a8
    644a:	8e8a      	add.n	a8, a14, a8
    644c:	421882        	l16ui	a8, a8, 132
    644f:	cc3c      	movi.n	a12, 60
    6451:	02bc87        	bgeu	a12, a8, 0x6457
    6454:	ff49c6        	j	0x617f
    6457:	9b1c      	movi.n	a11, 25
    6459:	fbe225        	excw
    645c:	104432        	s8i	a3, a4, 16
    645f:	f01d      	excw
    6461:	98a1a2        	movi	a10, 0x198
    6464:	c1aca0        	mul16u	a10, a12, a10
    6467:	a7aa      	add.n	a10, a7, a10
    6469:	910aa2        	l8ui	a10, a10, 145
    646c:	aa0b      	addi.n	a10, a10, -1
    646e:	d0da16        	beqz	a10, 0x617f
    6471:	1204a2        	l8ui	a10, a4, 18
    6474:	0048a2        	s8i	a10, a8, 0
    6477:	c0da50        	sub	a13, a10, a5
    647a:	d01d16        	beqz	a13, 0x617f
    647d:	099ac7        	bne	a10, a12, 0x648a
    6480:	0cad      	mov.n	a10, a12
    6482:	9b1c      	movi.n	a11, 25
    6484:	fbdf65        	excw
    6487:	fff446        	j	0x645c
    648a:	98a1d2        	movi	a13, 0x198
    648d:	c1aad0        	mul16u	a10, a10, a13
    6490:	aeaa      	add.n	a10, a14, a10
    6492:	7f0aa2        	l8ui	a10, a10, 127
    6495:	0049a2        	s8i	a10, a9, 0
    6498:	e19a57        	bne	a10, a5, 0x647d
    649b:	ff3806        	j	0x617f
    649e:	360000        	excw
    64a1:	bd0101        	l32r	a0, 0xffff58a8
    64a4:	616206        	j	0x1ea30
    64a7:	080c14        	excw
    64aa:	106122        	s32i	a2, a1, 64
    64ad:	05ad      	mov.n	a10, a5
    64af:	000322        	l8ui	a2, a3, 0
    64b2:	020452        	l8ui	a5, a4, 2
    64b5:	004182        	s8i	a8, a1, 0
    64b8:	235500        	excw
    64bb:	a07540        	addx4	a7, a5, a4
    64be:	126172        	s32i	a7, a1, 72
    64c1:	1778      	l32i.n	a7, a7, 4
    64c3:	039d      	mov.n	a9, a3
    64c5:	5cb716        	beqz	a7, 0x6a94
    64c8:	b91031        	l32r	a3, 0xffff4908
    64cb:	3463a0        	extui	a6, a10, 3, 4
    64ce:	71a9      	s32i.n	a10, a1, 28
    64d0:	5199      	s32i.n	a9, a1, 20
    64d2:	b968e1        	l32r	a14, 0xffff4a74
    64d5:	fb7c      	movi.n	a11, -1
    64d7:	c2ab      	addi.n	a12, a2, 10
    64d9:	401200        	ssl	a2
    64dc:	24d0a0        	extui	a13, a10, 0, 3
    64df:	180c      	movi.n	a8, 1
    64e1:	b1d9      	s32i.n	a13, a1, 44
    64e3:	98a1d2        	movi	a13, 0x198
    64e6:	a1f800        	sll	a15, a8
    64e9:	f1f9      	s32i.n	a15, a1, 60
    64eb:	c1d2d0        	mul16u	a13, a2, a13
    64ee:	401c00        	ssl	a12
    64f1:	a18800        	sll	a8, a8
    64f4:	3088b0        	xor	a8, a8, a11
    64f7:	ddea      	add.n	a13, a13, a14
    64f9:	1161d2        	s32i	a13, a1, 68
    64fc:	d189      	s32i.n	a8, a1, 52
    64fe:	102192        	l32i	a9, a1, 64
    6501:	b09590        	addx8	a9, a5, a9
    6504:	19d8      	l32i.n	a13, a9, 4
    6506:	04e5d0        	extui	a14, a13, 5, 1
    6509:	584e56        	bnez	a14, 0x6a91
    650c:	0004a2        	l8ui	a10, a4, 0
    650f:	9199      	s32i.n	a9, a1, 36
    6511:	ba0b      	addi.n	a11, a10, -1
    6513:	4a8b16        	beqz	a11, 0x69bf
    6516:	fecac2        	addi	a12, a10, -2
    6519:	157c16        	beqz	a12, 0x6674
    651c:	fdcae2        	addi	a14, a10, -3
    651f:	162e16        	beqz	a14, 0x6685
    6522:	fccaf2        	addi	a15, a10, -4
    6525:	123f16        	beqz	a15, 0x664c
    6528:	615a26        	beqi	a10, 5, 0x658d
    652b:	426a26        	beqi	a10, 6, 0x6571
    652e:	0a0c      	movi.n	a10, 0
    6530:	1b0c      	movi.n	a11, 1
    6532:	adb225        	excw
    6535:	1221d2        	l32i	a13, a1, 72
    6538:	91c8      	l32i.n	a12, a1, 36
    653a:	090c      	movi.n	a9, 0
    653c:	a51b      	addi.n	a10, a5, 1
    653e:	23aa00        	excw
    6541:	095d      	mov.n	a5, a9
    6543:	1cb8      	l32i.n	a11, a12, 4
    6545:	1d99      	s32i.n	a9, a13, 4
    6547:	04b0b0        	extui	a11, a11, 0, 1
    654a:	1cb9      	s32i.n	a11, a12, 4
    654c:	0004e2        	l8ui	a14, a4, 0
    654f:	030482        	l8ui	a8, a4, 3
    6552:	facee2        	addi	a14, a14, -6
    6555:	238800        	excw
    6558:	01aa87        	bge	a10, a8, 0x655d
    655b:	0a5d      	mov.n	a5, a10
    655d:	024452        	s8i	a5, a4, 2
    6560:	a07540        	addx4	a7, a5, a4
    6563:	126172        	s32i	a7, a1, 72
    6566:	1778      	l32i.n	a7, a7, 4
    6568:	522e56        	bnez	a14, 0x6a8e
    656b:	4dc756        	bnez	a7, 0x6a4b
    656e:	0147c6        	j	0x6a91
    6571:	871382        	l16ui	a8, a3, 0x10e
    6574:	b93891        	l32r	a9, 0xffff4a54
    6577:	881b      	addi.n	a8, a8, 1
    6579:	075982        	s16i	a8, a9, 14
    657c:	112182        	l32i	a8, a1, 68
    657f:	8708f2        	l8ui	a15, a8, 135
    6582:	23ff00        	excw
    6585:	ff0b      	addi.n	a15, a15, -1
    6587:	8748f2        	s8i	a15, a8, 135
    658a:	0008c6        	j	0x65b1
    658d:	8b13a2        	l16ui	a10, a3, 0x116
    6590:	b938b1        	l32r	a11, 0xffff4a70
    6593:	aa1b      	addi.n	a10, a10, 1
    6595:	0b5ba2        	s16i	a10, a11, 22
    6598:	1121a2        	l32i	a10, a1, 68
    659b:	bc7c      	movi.n	a12, -5
    659d:	860a92        	l8ui	a9, a10, 134
    65a0:	1e2ab2        	l32i	a11, a10, 120
    65a3:	239900        	excw
    65a6:	10bbc0        	and	a11, a11, a12
    65a9:	1e6ab2        	s32i	a11, a10, 120
    65ac:	990b      	addi.n	a9, a9, -1
    65ae:	864a92        	s8i	a9, a10, 134
    65b1:	14b2d0        	extui	a11, a13, 2, 2
    65b4:	b91b81        	l32r	a8, 0xffff4a20
    65b7:	02ad      	mov.n	a10, a2
    65b9:	fd2882        	l32i	a8, a8, 0x3f4
    65bc:	07cd      	mov.n	a12, a7
    65be:	0008e0        	excw
    65c1:	112192        	l32i	a9, a1, 68
    65c4:	6d0992        	l8ui	a9, a9, 109
    65c7:	1923a2        	l32i	a10, a3, 100
    65ca:	0d7966        	bnei	a9, 7, 0x65db
    65cd:	021a77        	beq	a10, a7, 0x65d3
    65d0:	ffd846        	j	0x6535
    65d3:	0b0c      	movi.n	a11, 0
    65d5:	4b43b2        	s8i	a11, a3, 75
    65d8:	ffd646        	j	0x6535
    65db:	9198      	l32i.n	a9, a1, 36
    65dd:	1998      	l32i.n	a9, a9, 4
    65df:	149290        	extui	a9, a9, 2, 2
    65e2:	0239e6        	bgei	a9, 3, 0x65e8
    65e5:	0519e6        	bgei	a9, 1, 0x65ee
    65e8:	2a3966        	bnei	a9, 3, 0x6616
    65eb:	000c46        	j	0x6620
    65ee:	b93381        	l32r	a8, 0xffff4abc
    65f1:	07bd      	mov.n	a11, a7
    65f3:	912882        	l32i	a8, a8, 0x244
    65f6:	02ad      	mov.n	a10, a2
    65f8:	0008e0        	excw
    65fb:	b93c91        	l32r	a9, 0xffff4aec
    65fe:	b951b1        	l32r	a11, 0xffff4b44
    6601:	140992        	l8ui	a9, a9, 20
    6604:	2bc8      	l32i.n	a12, a11, 8
    6606:	c09920        	sub	a9, a9, a2
    6609:	f28956        	bnez	a9, 0x6535
    660c:	f1a8      	l32i.n	a10, a1, 60
    660e:	20aac0        	or	a10, a10, a12
    6611:	2ba9      	s32i.n	a10, a11, 8
    6613:	ffc786        	j	0x6535
    6616:	0a0c      	movi.n	a10, 0
    6618:	1b0c      	movi.n	a11, 1
    661a:	ada3a5        	excw
    661d:	ffc506        	j	0x6535
    6620:	a14b      	addi.n	a10, a1, 4
    6622:	0b0c      	movi.n	a11, 0
    6624:	8c0c      	movi.n	a12, 8
    6626:	071525        	excw
    6629:	f8a1b2        	movi	a11, 0x1f8
    662c:	c14b      	addi.n	a12, a1, 4
    662e:	8d0c      	movi.n	a13, 8
    6630:	5198      	l32i.n	a9, a1, 20
    6632:	0a0c      	movi.n	a10, 0
    6634:	b91181        	l32r	a8, 0xffff4a78
    6637:	0441a2        	s8i	a10, a1, 4
    663a:	2a0c      	movi.n	a10, 2
    663c:	7888      	l32i.n	a8, a8, 28
    663e:	000992        	l8ui	a9, a9, 0
    6641:	054192        	s8i	a9, a1, 5
    6644:	2179      	s32i.n	a7, a1, 8
    6646:	0008e0        	excw
    6649:	ffba06        	j	0x6535
    664c:	02ad      	mov.n	a10, a2
    664e:	07bd      	mov.n	a11, a7
    6650:	6a1392        	l16ui	a9, a3, 212
    6653:	b91b81        	l32r	a8, 0xffff4ac0
    6656:	991b      	addi.n	a9, a9, 1
    6658:	fc2882        	l32i	a8, a8, 0x3f0
    665b:	6a5392        	s16i	a9, a3, 212
    665e:	0008e0        	excw
    6661:	07bd      	mov.n	a11, a7
    6663:	b93381        	l32r	a8, 0xffff4b30
    6666:	51a8      	l32i.n	a10, a1, 20
    6668:	932882        	l32i	a8, a8, 0x24c
    666b:	010aa2        	l8ui	a10, a10, 1
    666e:	0008e0        	excw
    6671:	ffb006        	j	0x6535
    6674:	b9c0a1        	l32r	a10, 0xffff4d74
    6677:	d198      	l32i.n	a9, a1, 52
    6679:	aa2aa2        	l32i	a10, a10, 0x2a8
    667c:	1099a0        	and	a9, a9, a10
    667f:	b9b7a1        	l32r	a10, 0xffff4d5c
    6682:	6a6a92        	s32i	a9, a10, 0x1a8
    6685:	b93381        	l32r	a8, 0xffff4b54
    6688:	9f2882        	l32i	a8, a8, 0x27c
    668b:	0008e0        	excw
    668e:	91d8      	l32i.n	a13, a1, 36
    6690:	1dd8      	l32i.n	a13, a13, 4
    6692:	b498d0        	extui	a9, a13, 8, 12
    6695:	025792        	s16i	a9, a7, 4
    6698:	1496d0        	extui	a9, a13, 6, 2
    669b:	1b1926        	beqi	a9, 1, 0x66ba
    669e:	0d2926        	beqi	a9, 2, 0x66af
    66a1:	1d3966        	bnei	a9, 3, 0x66c2
    66a4:	7e13e2        	l16ui	a14, a3, 252
    66a7:	ee1b      	addi.n	a14, a14, 1
    66a9:	7e53e2        	s16i	a14, a3, 252
    66ac:	000486        	j	0x66c2
    66af:	7d13f2        	l16ui	a15, a3, 250
    66b2:	ff1b      	addi.n	a15, a15, 1
    66b4:	7d53f2        	s16i	a15, a3, 250
    66b7:	0001c6        	j	0x66c2
    66ba:	7c1382        	l16ui	a8, a3, 248
    66bd:	881b      	addi.n	a8, a8, 1
    66bf:	7c5382        	s16i	a8, a3, 248
    66c2:	990c      	movi.n	a9, 9
    66c4:	2b9697        	bne	a6, a9, 0x66f3
    66c7:	6c03a2        	l8ui	a10, a3, 108
    66ca:	0a9c      	beqz.n	a10, 0x66de
    66cc:	07ad      	mov.n	a10, a7
    66ce:	b92f81        	l32r	a8, 0xffff4b8c
    66d1:	1b0c      	movi.n	a11, 1
    66d3:	722882        	l32i	a8, a8, 0x1c8
    66d6:	06cd      	mov.n	a12, a6
    66d8:	0008e0        	excw
    66db:	ff9586        	j	0x6535
    66de:	07ad      	mov.n	a10, a7
    66e0:	7f1392        	l16ui	a9, a3, 254
    66e3:	b90781        	l32r	a8, 0xffff4b00
    66e6:	991b      	addi.n	a9, a9, 1
    66e8:	8888      	l32i.n	a8, a8, 32
    66ea:	7f5392        	s16i	a9, a3, 254
    66ed:	0008e0        	excw
    66f0:	ff9046        	j	0x6535
    66f3:	132666        	bnei	a6, 2, 0x670a
    66f6:	07ad      	mov.n	a10, a7
    66f8:	02bd      	mov.n	a11, a2
    66fa:	b93381        	l32r	a8, 0xffff4bc8
    66fd:	71c8      	l32i.n	a12, a1, 28
    66ff:	802882        	l32i	a8, a8, 0x200
    6702:	01dd      	mov.n	a13, a1
    6704:	0008e0        	excw
    6707:	ff8a86        	j	0x6535
    670a:	112192        	l32i	a9, a1, 68
    670d:	6d0992        	l8ui	a9, a9, 109
    6710:	716966        	bnei	a9, 6, 0x6785
    6713:	0256f6        	bgeui	a6, 5, 0x6719
    6716:	0d36f6        	bgeui	a6, 3, 0x6727
    6719:	02a6f6        	bgeui	a6, 12, 0x671f
    671c:	0796f6        	bgeui	a6, 10, 0x6727
    671f:	4db6f6        	bgeui	a6, 16, 0x6770
    6722:	ea0c      	movi.n	a10, 14
    6724:	4836a7        	bltu	a6, a10, 0x6770
    6727:	b90781        	l32r	a8, 0xffff4b44
    672a:	f888      	l32i.n	a8, a8, 60
    672c:	07ad      	mov.n	a10, a7
    672e:	0008e0        	excw
    6731:	0a07d2        	l8ui	a13, a7, 10
    6734:	efa092        	movi	a9, 239
    6737:	c0aad0        	sub	a10, a10, a13
    673a:	0c29a7        	blt	a9, a10, 0x674a
    673d:	b90781        	l32r	a8, 0xffff4b5c
    6740:	8888      	l32i.n	a8, a8, 32
    6742:	07ad      	mov.n	a10, a7
    6744:	0008e0        	excw
    6747:	ff7a86        	j	0x6535
    674a:	0b0c      	movi.n	a11, 0
    674c:	ad7a      	add.n	a10, a13, a7
    674e:	0217e2        	l16ui	a14, a7, 4
    6751:	f0a0c2        	movi	a12, 240
    6754:	c0cce0        	sub	a12, a12, a14
    6757:	aeaa      	add.n	a10, a14, a10
    6759:	aacb      	addi.n	a10, a10, 12
    675b:	0701e5        	excw
    675e:	07cd      	mov.n	a12, a7
    6760:	b91181        	l32r	a8, 0xffff4ba4
    6763:	2a0c      	movi.n	a10, 2
    6765:	8888      	l32i.n	a8, a8, 32
    6767:	f5a1b2        	movi	a11, 0x1f5
    676a:	0008e0        	excw
    676d:	ff7106        	j	0x6535
    6770:	07ad      	mov.n	a10, a7
    6772:	7f1392        	l16ui	a9, a3, 254
    6775:	b90781        	l32r	a8, 0xffff4b94
    6778:	991b      	addi.n	a9, a9, 1
    677a:	8888      	l32i.n	a8, a8, 32
    677c:	7f5392        	s16i	a9, a3, 254
    677f:	0008e0        	excw
    6782:	ff6bc6        	j	0x6535
    6785:	02ad      	mov.n	a10, a2
    6787:	07cd      	mov.n	a12, a7
    6789:	b91b81        	l32r	a8, 0xffff4bf8
    678c:	14b2d0        	extui	a11, a13, 2, 2
    678f:	fe2882        	l32i	a8, a8, 0x3f8
    6792:	61b9      	s32i.n	a11, a1, 24
    6794:	0008e0        	excw
    6797:	0217d2        	l16ui	a13, a7, 4
    679a:	61a8      	l32i.n	a10, a1, 24
    679c:	4d8c      	beqz.n	a13, 0x67a4
    679e:	ffa092        	movi	a9, 255
    67a1:	179297        	bne	a2, a9, 0x67bc
    67a4:	07ad      	mov.n	a10, a7
    67a6:	b938b1        	l32r	a11, 0xffff4c88
    67a9:	801392        	l16ui	a9, a3, 0x100
    67ac:	b90781        	l32r	a8, 0xffff4bc8
    67af:	991b      	addi.n	a9, a9, 1
    67b1:	8888      	l32i.n	a8, a8, 32
    67b3:	005b92        	s16i	a9, a11, 0
    67b6:	0008e0        	excw
    67b9:	ff5e06        	j	0x6535
    67bc:	6c03b2        	l8ui	a11, a3, 108
    67bf:	b93c91        	l32r	a9, 0xffff4cb0
    67c2:	06eb16        	beqz	a11, 0x6834
    67c5:	3c0992        	l8ui	a9, a9, 60
    67c8:	319966        	bnei	a9, 10, 0x67fd
    67cb:	c1d9      	s32i.n	a13, a1, 48
    67cd:	b90781        	l32r	a8, 0xffff4bec
    67d0:	07ad      	mov.n	a10, a7
    67d2:	9888      	l32i.n	a8, a8, 36
    67d4:	4b0c      	movi.n	a11, 4
    67d6:	0008e0        	excw
    67d9:	b91881        	l32r	a8, 0xffff4c3c
    67dc:	c1d8      	l32i.n	a13, a1, 48
    67de:	0b2c      	movi.n	a11, 32
    67e0:	591c      	movi.n	a9, 21
    67e2:	004a92        	s8i	a9, a10, 0
    67e5:	014ab2        	s8i	a11, a10, 1
    67e8:	024ad2        	s8i	a13, a10, 2
    67eb:	5b1c      	movi.n	a11, 21
    67ed:	41e8d0        	srli	a14, a13, 8
    67f0:	034ae2        	s8i	a14, a10, 3
    67f3:	7888      	l32i.n	a8, a8, 28
    67f5:	07ad      	mov.n	a10, a7
    67f7:	0008e0        	excw
    67fa:	ff4dc6        	j	0x6535
    67fd:	0a3a66        	bnei	a10, 3, 0x680b
    6800:	1f1c      	movi.n	a15, 17
    6802:	053fd7        	bltu	a15, a13, 0x680b
    6805:	2b8626        	beqi	a6, 8, 0x6834
    6808:	283626        	beqi	a6, 3, 0x6834
    680b:	07ad      	mov.n	a10, a7
    680d:	4b0c      	movi.n	a11, 4
    680f:	b938c1        	l32r	a12, 0xffff4cf0
    6812:	881392        	l16ui	a9, a3, 0x110
    6815:	b90781        	l32r	a8, 0xffff4c34
    6818:	991b      	addi.n	a9, a9, 1
    681a:	9888      	l32i.n	a8, a8, 36
    681c:	085c92        	s16i	a9, a12, 16
    681f:	0008e0        	excw
    6822:	07ad      	mov.n	a10, a7
    6824:	b92f81        	l32r	a8, 0xffff4ce0
    6827:	1b0c      	movi.n	a11, 1
    6829:	722882        	l32i	a8, a8, 0x1c8
    682c:	06cd      	mov.n	a12, a6
    682e:	0008e0        	excw
    6831:	ff4006        	j	0x6535
    6834:	653a66        	bnei	a10, 3, 0x689d
    6837:	392b66        	bnei	a11, 2, 0x6874
    683a:	b93c91        	l32r	a9, 0xffff4d2c
    683d:	3c0992        	l8ui	a9, a9, 60
    6840:	025926        	beqi	a9, 5, 0x6846
    6843:	2d7966        	bnei	a9, 7, 0x6874
    6846:	b936a1        	l32r	a10, 0xffff4d20
    6849:	7c0aa2        	l8ui	a10, a10, 124
    684c:	246a07        	bbci	a10, 0, 0x6874
    684f:	b92f81        	l32r	a8, 0xffff4d0c
    6852:	842882        	l32i	a8, a8, 0x210
    6855:	07ad      	mov.n	a10, a7
    6857:	0008e0        	excw
    685a:	6a9c      	beqz.n	a10, 0x6874
    685c:	07ad      	mov.n	a10, a7
    685e:	b938b1        	l32r	a11, 0xffff4d40
    6861:	941392        	l16ui	a9, a3, 0x128
    6864:	b90781        	l32r	a8, 0xffff4c80
    6867:	991b      	addi.n	a9, a9, 1
    6869:	8888      	l32i.n	a8, a8, 32
    686b:	145b92        	s16i	a9, a11, 40
    686e:	0008e0        	excw
    6871:	ff3006        	j	0x6535
    6874:	4179      	s32i.n	a7, a1, 16
    6876:	0d4122        	s8i	a2, a1, 13
    6879:	2a0c      	movi.n	a10, 2
    687b:	f7a1b2        	movi	a11, 0x1f7
    687e:	c1cb      	addi.n	a12, a1, 12
    6880:	8d0c      	movi.n	a13, 8
    6882:	b938e1        	l32r	a14, 0xffff4d64
    6885:	090c      	movi.n	a9, 0
    6887:	b91181        	l32r	a8, 0xffff4ccc
    688a:	0c4192        	s8i	a9, a1, 12
    688d:	8c1392        	l16ui	a9, a3, 0x118
    6890:	7888      	l32i.n	a8, a8, 28
    6892:	991b      	addi.n	a9, a9, 1
    6894:	0c5e92        	s16i	a9, a14, 24
    6897:	0008e0        	excw
    689a:	ff25c6        	j	0x6535
    689d:	022a26        	beqi	a10, 2, 0x68a3
    68a0:	1f1a66        	bnei	a10, 1, 0x68c3
    68a3:	1121b2        	l32i	a11, a1, 68
    68a6:	8f0bb2        	l8ui	a11, a11, 143
    68a9:	bbec      	bnez.n	a11, 0x68d8
    68ab:	07ad      	mov.n	a10, a7
    68ad:	b938b1        	l32r	a11, 0xffff4d90
    68b0:	811392        	l16ui	a9, a3, 0x102
    68b3:	b90781        	l32r	a8, 0xffff4cd0
    68b6:	991b      	addi.n	a9, a9, 1
    68b8:	8888      	l32i.n	a8, a8, 32
    68ba:	015b92        	s16i	a9, a11, 2
    68bd:	0008e0        	excw
    68c0:	ff1c46        	j	0x6535
    68c3:	07ad      	mov.n	a10, a7
    68c5:	7f1392        	l16ui	a9, a3, 254
    68c8:	b90781        	l32r	a8, 0xffff4ce4
    68cb:	991b      	addi.n	a9, a9, 1
    68cd:	8888      	l32i.n	a8, a8, 32
    68cf:	7f5392        	s16i	a9, a3, 254
    68d2:	0008e0        	excw
    68d5:	ff1706        	j	0x6535
    68d8:	b91c81        	l32r	a8, 0xffff4d48
    68db:	362882        	l32i	a8, a8, 216
    68de:	02ad      	mov.n	a10, a2
    68e0:	0008e0        	excw
    68e3:	81a9      	s32i.n	a10, a1, 32
    68e5:	a1a9      	s32i.n	a10, a1, 40
    68e7:	ffa092        	movi	a9, 255
    68ea:	149a97        	bne	a10, a9, 0x6902
    68ed:	07ad      	mov.n	a10, a7
    68ef:	7f1392        	l16ui	a9, a3, 254
    68f2:	b90781        	l32r	a8, 0xffff4d10
    68f5:	991b      	addi.n	a9, a9, 1
    68f7:	8888      	l32i.n	a8, a8, 32
    68f9:	7f5392        	s16i	a9, a3, 254
    68fc:	0008e0        	excw
    68ff:	ff0c86        	j	0x6535
    6902:	07ad      	mov.n	a10, a7
    6904:	4b0c      	movi.n	a11, 4
    6906:	b90781        	l32r	a8, 0xffff4d24
    6909:	021792        	l16ui	a9, a7, 4
    690c:	9888      	l32i.n	a8, a8, 36
    690e:	c199      	s32i.n	a9, a1, 48
    6910:	0008e0        	excw
    6913:	0add      	mov.n	a13, a10
    6915:	1361a2        	s32i	a10, a1, 76
    6918:	9acc      	bnez.n	a10, 0x6925
    691a:	b929a1        	l32r	a10, 0xffff4dc0
    691d:	0b0c      	movi.n	a11, 0
    691f:	ad7365        	excw
    6922:	1321d2        	l32i	a13, a1, 76
    6925:	b1a8      	l32i.n	a10, a1, 44
    6927:	081c      	movi.n	a8, 16
    6929:	cfa0f2        	movi	a15, 207
    692c:	a1e8      	l32i.n	a14, a1, 40
    692e:	6198      	l32i.n	a9, a1, 24
    6930:	c1b8      	l32i.n	a11, a1, 48
    6932:	024db2        	s8i	a11, a13, 2
    6935:	fec992        	addi	a9, a9, -2
    6938:	41e8e0        	srli	a14, a14, 8
    693b:	41c8b0        	srli	a12, a11, 8
    693e:	034dc2        	s8i	a12, a13, 3
    6941:	10eef0        	and	a14, a14, a15
    6944:	208e80        	or	a8, a14, a8
    6947:	0f2c      	movi.n	a15, 32
    6949:	20eef0        	or	a14, a14, a15
    694c:	93e890        	movnez	a14, a8, a9
    694f:	81f8      	l32i.n	a15, a1, 32
    6951:	004df2        	s8i	a15, a13, 0
    6954:	014de2        	s8i	a14, a13, 1
    6957:	5afc      	bnez.n	a10, 0x6990
    6959:	0004a2        	l8ui	a10, a4, 0
    695c:	1361d2        	s32i	a13, a1, 76
    695f:	0d2a26        	beqi	a10, 2, 0x6970
    6962:	b929a1        	l32r	a10, 0xffff4e08
    6965:	0b0c      	movi.n	a11, 0
    6967:	ad6ee5        	excw
    696a:	1321d2        	l32i	a13, a1, 76
    696d:	010de2        	l8ui	a14, a13, 1
    6970:	07ad      	mov.n	a10, a7
    6972:	b90781        	l32r	a8, 0xffff4d90
    6975:	0b4c      	movi.n	a11, 64
    6977:	5490e0        	extui	a9, a14, 0, 6
    697a:	2099b0        	or	a9, a9, a11
    697d:	014d92        	s8i	a9, a13, 1
    6980:	7f1392        	l16ui	a9, a3, 254
    6983:	8888      	l32i.n	a8, a8, 32
    6985:	991b      	addi.n	a9, a9, 1
    6987:	7f5392        	s16i	a9, a3, 254
    698a:	0008e0        	excw
    698d:	fee906        	j	0x6535
    6990:	b938e1        	l32r	a14, 0xffff4e70
    6993:	8813d2        	l16ui	a13, a3, 0x110
    6996:	b93cc1        	l32r	a12, 0xffff4e88
    6999:	dd1b      	addi.n	a13, a13, 1
    699b:	140cc2        	l8ui	a12, a12, 20
    699e:	085ed2        	s16i	a13, a14, 16
    69a1:	0b9c27        	bne	a12, a2, 0x69b0
    69a4:	b951e1        	l32r	a14, 0xffff4ee8
    69a7:	f1d8      	l32i.n	a13, a1, 60
    69a9:	2ef8      	l32i.n	a15, a14, 8
    69ab:	20ddf0        	or	a13, a13, a15
    69ae:	2ed9      	s32i.n	a13, a14, 8
    69b0:	b91881        	l32r	a8, 0xffff4e10
    69b3:	07ad      	mov.n	a10, a7
    69b5:	7888      	l32i.n	a8, a8, 28
    69b7:	a1b8      	l32i.n	a11, a1, 40
    69b9:	0008e0        	excw
    69bc:	fedd46        	j	0x6535
    69bf:	7013b2        	l16ui	a11, a3, 224
    69c2:	b4a8d0        	extui	a10, a13, 8, 12
    69c5:	bb1b      	addi.n	a11, a11, 1
    69c7:	7053b2        	s16i	a11, a3, 224
    69ca:	0257a2        	s16i	a10, a7, 4
    69cd:	6c0392        	l8ui	a9, a3, 108
    69d0:	099c      	beqz.n	a9, 0x69e4
    69d2:	07ad      	mov.n	a10, a7
    69d4:	b92f81        	l32r	a8, 0xffff4e90
    69d7:	0b0c      	movi.n	a11, 0
    69d9:	722882        	l32i	a8, a8, 0x1c8
    69dc:	0c0c      	movi.n	a12, 0
    69de:	0008e0        	excw
    69e1:	fed406        	j	0x6535
    69e4:	1496d0        	extui	a9, a13, 6, 2
    69e7:	201926        	beqi	a9, 1, 0x6a0b
    69ea:	0e3926        	beqi	a9, 3, 0x69fc
    69ed:	721392        	l16ui	a9, a3, 228
    69f0:	0a0c      	movi.n	a10, 0
    69f2:	e1a9      	s32i.n	a10, a1, 56
    69f4:	991b      	addi.n	a9, a9, 1
    69f6:	725392        	s16i	a9, a3, 228
    69f9:	000b06        	j	0x6a29
    69fc:	7413b2        	l16ui	a11, a3, 232
    69ff:	3c0c      	movi.n	a12, 3
    6a01:	e1c9      	s32i.n	a12, a1, 56
    6a03:	bb1b      	addi.n	a11, a11, 1
    6a05:	7453b2        	s16i	a11, a3, 232
    6a08:	000746        	j	0x6a29
    6a0b:	7313a2        	l16ui	a10, a3, 230
    6a0e:	5198      	l32i.n	a9, a1, 20
    6a10:	aa1b      	addi.n	a10, a10, 1
    6a12:	7353a2        	s16i	a10, a3, 230
    6a15:	010992        	l8ui	a9, a9, 1
    6a18:	99cc      	bnez.n	a9, 0x6a25
    6a1a:	1b0c      	movi.n	a11, 1
    6a1c:	90c990        	addx2	a12, a9, a9
    6a1f:	b0cc30        	addx8	a12, a12, a3
    6a22:	675cb2        	s16i	a11, a12, 206
    6a25:	1d0c      	movi.n	a13, 1
    6a27:	e1d9      	s32i.n	a13, a1, 56
    6a29:	b91b81        	l32r	a8, 0xffff4e98
    6a2c:	02ad      	mov.n	a10, a2
    6a2e:	ff2882        	l32i	a8, a8, 0x3fc
    6a31:	07bd      	mov.n	a11, a7
    6a33:	0008e0        	excw
    6a36:	07bd      	mov.n	a11, a7
    6a38:	e1c8      	l32i.n	a12, a1, 56
    6a3a:	b93381        	l32r	a8, 0xffff4f08
    6a3d:	51a8      	l32i.n	a10, a1, 20
    6a3f:	922882        	l32i	a8, a8, 0x248
    6a42:	010aa2        	l8ui	a10, a10, 1
    6a45:	0008e0        	excw
    6a48:	feba46        	j	0x6535
    6a4b:	02ad      	mov.n	a10, a2
    6a4d:	07cd      	mov.n	a12, a7
    6a4f:	0a07b2        	l8ui	a11, a7, 10
    6a52:	b91b81        	l32r	a8, 0xffff4ec0
    6a55:	bb7a      	add.n	a11, a11, a7
    6a57:	090bb2        	l8ui	a11, a11, 9
    6a5a:	dd2882        	l32i	a8, a8, 0x374
    6a5d:	14b4b0        	extui	a11, a11, 4, 2
    6a60:	0008e0        	excw
    6a63:	bc0c      	movi.n	a12, 11
    6a65:	259ac7        	bne	a10, a12, 0x6a8e
    6a68:	102192        	l32i	a9, a1, 64
    6a6b:	020482        	l8ui	a8, a4, 2
    6a6e:	51e8      	l32i.n	a14, a1, 20
    6a70:	238800        	excw
    6a73:	1ee8      	l32i.n	a14, a14, 4
    6a75:	d81b      	addi.n	a13, a8, 1
    6a77:	b08890        	addx8	a8, a8, a9
    6a7a:	04d0d0        	extui	a13, a13, 0, 1
    6a7d:	01dd50        	slli	a13, a13, 27
    6a80:	18f8      	l32i.n	a15, a8, 4
    6a82:	dfaf92        	movi	a9, -33
    6a85:	10ff90        	and	a15, a15, a9
    6a88:	18f9      	s32i.n	a15, a8, 4
    6a8a:	2ed9      	s32i.n	a13, a14, 8
    6a8c:	1ed9      	s32i.n	a13, a14, 4
    6a8e:	a6c756        	bnez	a7, 0x64fe
    6a91:	1421b2        	l32i	a11, a1, 80
    6a94:	6bbc      	beqz.n	a11, 0x6ace
    6a96:	0004a2        	l8ui	a10, a4, 0
    6a99:	181a26        	beqi	a10, 1, 0x6ab5
    6a9c:	302a26        	beqi	a10, 2, 0x6ad0
    6a9f:	3a3a26        	beqi	a10, 3, 0x6add
    6aa2:	3c4a26        	beqi	a10, 4, 0x6ae2
    6aa5:	3e5a26        	beqi	a10, 5, 0x6ae7
    6aa8:	faca82        	addi	a8, a10, -6
    6aab:	8f1c      	movi.n	a15, 24
    6aad:	1b0c      	movi.n	a11, 1
    6aaf:	83bf80        	moveqz	a11, a15, a8
    6ab2:	000046        	j	0x6ab7
    6ab5:	2b1c      	movi.n	a11, 18
    6ab7:	b968a1        	l32r	a10, 0xffff5058
    6aba:	b91b81        	l32r	a8, 0xffff4f28
    6abd:	98a1c2        	movi	a12, 0x198
    6ac0:	c1c2c0        	mul16u	a12, a2, a12
    6ac3:	7d2882        	l32i	a8, a8, 0x1f4
    6ac6:	aaca      	add.n	a10, a10, a12
    6ac8:	930aa2        	l8ui	a10, a10, 147
    6acb:	0008e0        	excw
    6ace:	f01d      	excw
    6ad0:	0001e2        	l8ui	a14, a1, 0
    6ad3:	4d1c      	movi.n	a13, 20
    6ad5:	3b1c      	movi.n	a11, 19
    6ad7:	93bde0        	movnez	a11, a13, a14
    6ada:	fff646        	j	0x6ab7
    6add:	5b1c      	movi.n	a11, 21
    6adf:	fff506        	j	0x6ab7
    6ae2:	6b1c      	movi.n	a11, 22
    6ae4:	fff3c6        	j	0x6ab7
    6ae7:	7b1c      	movi.n	a11, 23
    6ae9:	fff286        	j	0x6ab7
    6aec:	004136        	excw
    6aef:	b98061        	l32r	a6, 0xffff50f0
    6af2:	0b0c      	movi.n	a11, 0
    6af4:	ac0c      	movi.n	a12, 10
    6af6:	b9c121        	l32r	a2, 0xffff51fc
    6af9:	b951a1        	l32r	a10, 0xffff5040
    6afc:	02d272        	addmi	a7, a2, 0x200
    6aff:	fdd252        	addmi	a5, a2, 0xfffffd00
    6b02:	ffd242        	addmi	a4, a2, 0xffffff00
    6b05:	01d232        	addmi	a3, a2, 0x100
    6b08:	20caa2        	addi	a10, a10, 32
    6b0b:	03d222        	addmi	a2, a2, 0x300
    6b0e:	06c6a5        	excw
    6b11:	b9c2a1        	l32r	a10, 0xffff521c
    6b14:	0b0c      	movi.n	a11, 0
    6b16:	ac0c      	movi.n	a12, 10
    6b18:	06c5e5        	excw
    6b1b:	b987a1        	l32r	a10, 0xffff5138
    6b1e:	0b0c      	movi.n	a11, 0
    6b20:	ac0c      	movi.n	a12, 10
    6b22:	06c565        	excw
    6b25:	b96ca1        	l32r	a10, 0xffff50d8
    6b28:	0b0c      	movi.n	a11, 0
    6b2a:	ac0c      	movi.n	a12, 10
    6b2c:	06c4a5        	excw
    6b2f:	b993a1        	l32r	a10, 0xffff517c
    6b32:	0b0c      	movi.n	a11, 0
    6b34:	ac0c      	movi.n	a12, 10
    6b36:	06c425        	excw
    6b39:	b9c3b1        	l32r	a11, 0xffff5248
    6b3c:	b9c4a1        	l32r	a10, 0xffff524c
    6b3f:	b9c191        	l32r	a9, 0xffff5244
    6b42:	b9c581        	l32r	a8, 0xffff5258
    6b45:	b951d1        	l32r	a13, 0xffff508c
    6b48:	b024c2        	l32i	a12, a4, 0x2c0
    6b4b:	b9c7e1        	l32r	a14, 0xffff5268
    6b4e:	b9c6f1        	l32r	a15, 0xffff5268
    6b51:	1464f2        	s32i	a15, a4, 80
    6b54:	1664e2        	s32i	a14, a4, 88
    6b57:	b9cbf1        	l32r	a15, 0xffff5284
    6b5a:	6dc9      	s32i.n	a12, a13, 24
    6b5c:	7c6982        	s32i	a8, a9, 0x1f0
    6b5f:	7969a2        	s32i	a10, a9, 0x1e4
    6b62:	b9cce1        	l32r	a14, 0xffff5294
    6b65:	97e9      	s32i.n	a14, a7, 36
    6b67:	b9c9a1        	l32r	a10, 0xffff528c
    6b6a:	602582        	l32i	a8, a5, 0x180
    6b6d:	7069b2        	s32i	a11, a9, 0x1c0
    6b70:	b9c8c1        	l32r	a12, 0xffff5290
    6b73:	b7c9      	s32i.n	a12, a7, 44
    6b75:	1922b2        	l32i	a11, a2, 100
    6b78:	4d89      	s32i.n	a8, a13, 16
    6b7a:	6065f2        	s32i	a15, a5, 0x180
    6b7d:	1a2682        	l32i	a8, a6, 104
    6b80:	b9d1f1        	l32r	a15, 0xffff52c4
    6b83:	5db9      	s32i.n	a11, a13, 20
    6b85:	b9ca91        	l32r	a9, 0xffff52b0
    6b88:	1962a2        	s32i	a10, a2, 100
    6b8b:	b9cdc1        	l32r	a12, 0xffff52c0
    6b8e:	b9cfa1        	l32r	a10, 0xffff52cc
    6b91:	e7c9      	s32i.n	a12, a7, 56
    6b93:	186492        	s32i	a9, a4, 96
    6b96:	b9ceb1        	l32r	a11, 0xffff52d0
    6b99:	1d63b2        	s32i	a11, a3, 116
    6b9c:	b9d091        	l32r	a9, 0xffff52dc
    6b9f:	b9d2b1        	l32r	a11, 0xffff52e8
    6ba2:	1668f2        	s32i	a15, a8, 88
    6ba5:	3899      	s32i.n	a9, a8, 12
    6ba7:	48a9      	s32i.n	a10, a8, 16
    6ba9:	b9d491        	l32r	a9, 0xffff52fc
    6bac:	b9d3a1        	l32r	a10, 0xffff52f8
    6baf:	b9d6f1        	l32r	a15, 0xffff5308
    6bb2:	b9d581        	l32r	a8, 0xffff5308
    6bb5:	6262b2        	s32i	a11, a2, 0x188
    6bb8:	15c8      	l32i.n	a12, a5, 4
    6bba:	df24e2        	l32i	a14, a4, 0x37c
    6bbd:	7667f2        	s32i	a15, a7, 0x1d8
    6bc0:	0de9      	s32i.n	a14, a13, 0
    6bc2:	1dc9      	s32i.n	a12, a13, 4
    6bc4:	6862a2        	s32i	a10, a2, 0x1a0
    6bc7:	6a6292        	s32i	a9, a2, 0x1a8
    6bca:	b9dab1        	l32r	a11, 0xffff5334
    6bcd:	6865b2        	s32i	a11, a5, 0x1a0
    6bd0:	b9dc91        	l32r	a9, 0xffff5340
    6bd3:	1f6782        	s32i	a8, a7, 124
    6bd6:	b9dba1        	l32r	a10, 0xffff5344
    6bd9:	b9d9c1        	l32r	a12, 0xffff5340
    6bdc:	b9d7e1        	l32r	a14, 0xffff5338
    6bdf:	6767e2        	s32i	a14, a7, 0x19c
    6be2:	15c9      	s32i.n	a12, a5, 4
    6be4:	1463a2        	s32i	a10, a3, 80
    6be7:	b9dd81        	l32r	a8, 0xffff535c
    6bea:	b9d8d1        	l32r	a13, 0xffff534c
    6bed:	6464d2        	s32i	a13, a4, 0x190
    6bf0:	0989      	s32i.n	a8, a9, 0
    6bf2:	f01d      	excw
    6bf4:	052136        	excw
    6bf7:	b91c61        	l32r	a6, 0xffff5068
    6bfa:	3ca482        	movi	a8, 0x43c
    6bfd:	053827        	bltu	a8, a2, 0x6c06
    6c00:	e7a392        	movi	a9, 0x3e7
    6c03:	0b3927        	bltu	a9, a2, 0x6c12
    6c06:	6da0b2        	movi	a11, 109
    6c09:	0512b7        	beq	a2, a11, 0x6c12
    6c0c:	6ea0c2        	movi	a12, 110
    6c0f:	1292c7        	bne	a2, a12, 0x6c25
    6c12:	02ad      	mov.n	a10, a2
    6c14:	03bd      	mov.n	a11, a3
    6c16:	5d2682        	l32i	a8, a6, 0x174
    6c19:	04cd      	mov.n	a12, a4
    6c1b:	0008e0        	excw
    6c1e:	030a66        	bnei	a10, -1, 0x6c25
    6c21:	220c      	movi.n	a2, 2
    6c23:	f01d      	excw
    6c25:	1e0c      	movi.n	a14, 1
    6c27:	b90e71        	l32r	a7, 0xffff5060
    6c2a:	d5a0b2        	movi	a11, 213
    6c2d:	c0b2b0        	sub	a11, a2, a11
    6c30:	08cb56        	bnez	a11, 0x6cc0
    6c33:	07c8      	l32i.n	a12, a7, 0
    6c35:	b915d1        	l32r	a13, 0xffff508c
    6c38:	acc8      	l32i.n	a12, a12, 40
    6c3a:	c0ccd0        	sub	a12, a12, a13
    6c3d:	110c56        	bnez	a12, 0x6d51
    6c40:	0a0c      	movi.n	a10, 0
    6c42:	a62682        	l32i	a8, a6, 0x298
    6c45:	b9deb1        	l32r	a11, 0xffff53c0
    6c48:	0008e0        	excw
    6c4b:	0b1c      	movi.n	a11, 16
    6c4d:	b9df31        	l32r	a3, 0xffff53cc
    6c50:	542682        	l32i	a8, a6, 0x150
    6c53:	03ad      	mov.n	a10, a3
    6c55:	0008e0        	excw
    6c58:	01ad      	mov.n	a10, a1
    6c5a:	b9e041        	l32r	a4, 0xffff53dc
    6c5d:	8c1c      	movi.n	a12, 24
    6c5f:	04bd      	mov.n	a11, a4
    6c61:	069f65        	excw
    6c64:	04bd      	mov.n	a11, a4
    6c66:	18c1a2        	addi	a10, a1, 24
    6c69:	8c1c      	movi.n	a12, 24
    6c6b:	069ee5        	excw
    6c6e:	30c1a2        	addi	a10, a1, 48
    6c71:	03bd      	mov.n	a11, a3
    6c73:	0c1c      	movi.n	a12, 16
    6c75:	069e25        	excw
    6c78:	60c1b2        	addi	a11, a1, 96
    6c7b:	b9e291        	l32r	a9, 0xffff5404
    6c7e:	0a0c      	movi.n	a10, 0
    6c80:	b9e181        	l32r	a8, 0xffff5404
    6c83:	5041a2        	s8i	a10, a1, 80
    6c86:	01ad      	mov.n	a10, a1
    6c88:	0989      	s32i.n	a8, a9, 0
    6c8a:	0008e0        	excw
    6c8d:	70c1a2        	addi	a10, a1, 112
    6c90:	60c1b2        	addi	a11, a1, 96
    6c93:	0c1c      	movi.n	a12, 16
    6c95:	069c25        	excw
    6c98:	70c1a2        	addi	a10, a1, 112
    6c9b:	a32682        	l32i	a8, a6, 0x28c
    6c9e:	0b1c      	movi.n	a11, 16
    6ca0:	0008e0        	excw
    6ca3:	03bd      	mov.n	a11, a3
    6ca5:	0c1c      	movi.n	a12, 16
    6ca7:	7fc132        	addi	a3, a1, 127
    6caa:	331b      	addi.n	a3, a3, 1
    6cac:	03ad      	mov.n	a10, a3
    6cae:	069aa5        	excw
    6cb1:	03ad      	mov.n	a10, a3
    6cb3:	a32682        	l32i	a8, a6, 0x28c
    6cb6:	0b1c      	movi.n	a11, 16
    6cb8:	0008e0        	excw
    6cbb:	0c2c      	movi.n	a12, 32
    6cbd:	000f46        	j	0x6cfe
    6cc0:	e2a092        	movi	a9, 226
    6cc3:	769297        	bne	a2, a9, 0x6d3d
    6cc6:	b9e3a1        	l32r	a10, 0xffff5454
    6cc9:	0103b2        	l8ui	a11, a3, 1
    6ccc:	7041b2        	s8i	a11, a1, 112
    6ccf:	7141e2        	s8i	a14, a1, 113
    6cd2:	72c132        	addi	a3, a1, 114
    6cd5:	2bdc      	bnez.n	a11, 0x6ceb
    6cd7:	d22a82        	l32i	a8, a10, 0x348
    6cda:	0008e0        	excw
    6cdd:	0abd      	mov.n	a11, a10
    6cdf:	8c0c      	movi.n	a12, 8
    6ce1:	03ad      	mov.n	a10, a3
    6ce3:	bb2b      	addi.n	a11, a11, 2
    6ce5:	069725        	excw
    6ce8:	000406        	j	0x6cfc
    6ceb:	d32a82        	l32i	a8, a10, 0x34c
    6cee:	0008e0        	excw
    6cf1:	0abd      	mov.n	a11, a10
    6cf3:	8c0c      	movi.n	a12, 8
    6cf5:	03ad      	mov.n	a10, a3
    6cf7:	bb2b      	addi.n	a11, a11, 2
    6cf9:	0695e5        	excw
    6cfc:	ac0c      	movi.n	a12, 10
    6cfe:	02ad      	mov.n	a10, a2
    6d00:	0b0c      	movi.n	a11, 0
    6d02:	70c1d2        	addi	a13, a1, 112
    6d05:	b9e4e1        	l32r	a14, 0xffff5498
    6d08:	190c      	movi.n	a9, 1
    6d0a:	de2682        	l32i	a8, a6, 0x378
    6d0d:	1e6e92        	s32i	a9, a14, 120
    6d10:	0008e0        	excw
    6d13:	0798      	l32i.n	a9, a7, 0
    6d15:	2e2992        	l32i	a9, a9, 184
    6d18:	b9cc      	bnez.n	a9, 0x6d27
    6d1a:	b9e5a1        	l32r	a10, 0xffff54b0
    6d1d:	0b0c      	movi.n	a11, 0
    6d1f:	ad3365        	excw
    6d22:	0798      	l32i.n	a9, a7, 0
    6d24:	2e2992        	l32i	a9, a9, 184
    6d27:	0e1966        	bnei	a9, 1, 0x6d39
    6d2a:	b9e6a1        	l32r	a10, 0xffff54c4
    6d2d:	0892a7        	bne	a2, a10, 0x6d39
    6d30:	b91881        	l32r	a8, 0xffff5190
    6d33:	2f2882        	l32i	a8, a8, 188
    6d36:	0008e0        	excw
    6d39:	020c      	movi.n	a2, 0
    6d3b:	f01d      	excw
    6d3d:	02ad      	mov.n	a10, a2
    6d3f:	03bd      	mov.n	a11, a3
    6d41:	b9e281        	l32r	a8, 0xffff54cc
    6d44:	04cd      	mov.n	a12, a4
    6d46:	1888      	l32i.n	a8, a8, 4
    6d48:	05dd      	mov.n	a13, a5
    6d4a:	0008e0        	excw
    6d4d:	0a2d      	mov.n	a2, a10
    6d4f:	f01d      	excw
    6d51:	0c0c      	movi.n	a12, 0
    6d53:	ffe9c6        	j	0x6cfe
    6d56:	360000        	excw
    6d59:	ad0041        	l32r	a4, 0xffff215c
    6d5c:	03bd02        	excw
    6d5f:	067965        	excw
    6d62:	0abd      	mov.n	a11, a10
    6d64:	aa8c      	beqz.n	a10, 0x6d72
    6d66:	03ad      	mov.n	a10, a3
    6d68:	0b3d      	mov.n	a3, a11
    6d6a:	0678a5        	excw
    6d6d:	0abd      	mov.n	a11, a10
    6d6f:	ff3a56        	bnez	a10, 0x6d66
    6d72:	f42030        	extui	a2, a3, 0, 16
    6d75:	f01d      	excw
    6d77:	413600        	srli	a3, a0, 6
    6d7a:	0d8107        	bany	a1, a0, 0x6d8b
    6d7d:	82b9      	s32i.n	a11, a2, 32
    6d7f:	4728      	l32i.n	a2, a7, 16
    6d81:	0008e0        	excw
    6d84:	b91c61        	l32r	a6, 0xffff51f4
    6d87:	02d652        	addmi	a5, a6, 0x200
    6d8a:	2a9c      	beqz.n	a10, 0x6da0
    6d8c:	af2582        	l32i	a8, a5, 0x2bc
    6d8f:	0008e0        	excw
    6d92:	aacc      	bnez.n	a10, 0x6da0
    6d94:	6b2682        	l32i	a8, a6, 0x1ac
    6d97:	0008e0        	excw
    6d9a:	2acc      	bnez.n	a10, 0x6da0
    6d9c:	020c      	movi.n	a2, 0
    6d9e:	f01d      	excw
    6da0:	b9e741        	l32r	a4, 0xffff553c
    6da3:	bca082        	movi	a8, 188
    6da6:	c18380        	mul16u	a8, a3, a8
    6da9:	448a      	add.n	a4, a4, a8
    6dab:	8a0492        	l8ui	a9, a4, 138
    6dae:	ea49f6        	bgeui	a9, 4, 0x6d9c
    6db1:	b02582        	l32i	a8, a5, 0x2c0
    6db4:	02ad      	mov.n	a10, a2
    6db6:	0008e0        	excw
    6db9:	af2582        	l32i	a8, a5, 0x2bc
    6dbc:	0a3d      	mov.n	a3, a10
    6dbe:	0008e0        	excw
    6dc1:	02b3a7        	bgeu	a3, a10, 0x6dc7
    6dc4:	004a06        	j	0x6ef0
    6dc7:	0212a2        	l16ui	a10, a2, 4
    6dca:	8414b2        	l16ui	a11, a4, 0x108
    6dcd:	02bba7        	bgeu	a11, a10, 0x6dd3
    6dd0:	004706        	j	0x6ef0
    6dd3:	8314c2        	l16ui	a12, a4, 0x106
    6dd6:	02bac7        	bgeu	a10, a12, 0x6ddc
    6dd9:	0044c6        	j	0x6ef0
    6ddc:	0112e2        	l16ui	a14, a2, 2
    6ddf:	fecad2        	addi	a13, a10, -2
    6de2:	102de7        	blt	a13, a14, 0x6df6
    6de5:	af2582        	l32i	a8, a5, 0x2bc
    6de8:	0008e0        	excw
    6deb:	7acc      	bnez.n	a10, 0x6df6
    6ded:	6b2682        	l32i	a8, a6, 0x1ac
    6df0:	0008e0        	excw
    6df3:	fa5a16        	beqz	a10, 0x6d9c
    6df6:	0b0c      	movi.n	a11, 0
    6df8:	750492        	l8ui	a9, a4, 117
    6dfb:	0041b2        	s8i	a11, a1, 0
    6dfe:	0b4966        	bnei	a9, 4, 0x6e0d
    6e01:	b91b81        	l32r	a8, 0xffff5270
    6e04:	452882        	l32i	a8, a8, 0x114
    6e07:	7404a2        	l8ui	a10, a4, 116
    6e0a:	0008e0        	excw
    6e0d:	01ad      	mov.n	a10, a1
    6e0f:	fd7965        	excw
    6e12:	01ad      	mov.n	a10, a1
    6e14:	ffa0b2        	movi	a11, 255
    6e17:	0634e5        	excw
    6e1a:	000192        	l8ui	a9, a1, 0
    6e1d:	f7b916        	beqz	a9, 0x6d9c
    6e20:	0b0c      	movi.n	a11, 0
    6e22:	80a0c2        	movi	a12, 128
    6e25:	02d1a2        	addmi	a10, a1, 0x200
    6e28:	0aad      	mov.n	a10, a10
    6e2a:	0694e5        	excw
    6e2d:	021292        	l16ui	a9, a2, 4
    6e30:	0001a2        	l8ui	a10, a1, 0
    6e33:	41b190        	srli	a11, a9, 1
    6e36:	d961b2        	s32i	a11, a1, 0x364
    6e39:	0b8a16        	beqz	a10, 0x6ef5
    6e3c:	030c      	movi.n	a3, 0
    6e3e:	02d172        	addmi	a7, a1, 0x200
    6e41:	f4a190        	extui	a10, a9, 1, 16
    6e44:	d161a2        	s32i	a10, a1, 0x344
    6e47:	7fc772        	addi	a7, a7, 127
    6e4a:	61c772        	addi	a7, a7, 97
    6e4d:	d121b2        	l32i	a11, a1, 0x344
    6e50:	018d      	mov.n	a8, a1
    6e52:	906330        	addx2	a6, a3, a3
    6e55:	b06680        	addx8	a6, a6, a8
    6e58:	041652        	l16ui	a5, a6, 8
    6e5b:	031692        	l16ui	a9, a6, 6
    6e5e:	b9bd81        	l32r	a8, 0xffff5554
    6e61:	d26192        	s32i	a9, a1, 0x348
    6e64:	5888      	l32i.n	a8, a8, 20
    6e66:	05ad      	mov.n	a10, a5
    6e68:	0008e0        	excw
    6e6b:	1193e0        	slli	a9, a3, 2
    6e6e:	a0c370        	addx4	a12, a3, a7
    6e71:	0abd      	mov.n	a11, a10
    6e73:	0ca9      	s32i.n	a10, a12, 0
    6e75:	d921a2        	l32i	a10, a1, 0x364
    6e78:	d46192        	s32i	a9, a1, 0x350
    6e7b:	82aa50        	mull	a10, a10, a5
    6e7e:	066c25        	excw
    6e81:	0406d2        	l8ui	a13, a6, 4
    6e84:	d421e2        	l32i	a14, a1, 0x350
    6e87:	02d1f2        	addmi	a15, a1, 0x200
    6e8a:	7fcff2        	addi	a15, a15, 127
    6e8d:	ff1b      	addi.n	a15, a15, 1
    6e8f:	eefa      	add.n	a14, a14, a15
    6e91:	0ea9      	s32i.n	a10, a14, 0
    6e93:	9dbc      	beqz.n	a13, 0x6ed0
    6e95:	98a1d2        	movi	a13, 0x198
    6e98:	1806c2        	l8ui	a12, a6, 24
    6e9b:	b977b1        	l32r	a11, 0xffff5478
    6e9e:	c1ccd0        	mul16u	a12, a12, a13
    6ea1:	bbca      	add.n	a11, a11, a12
    6ea3:	b910c1        	l32r	a12, 0xffff52e4
    6ea6:	7f0bb2        	l8ui	a11, a11, 127
    6ea9:	d221a2        	l32i	a10, a1, 0x348
    6eac:	a0bbc0        	addx4	a11, a11, a12
    6eaf:	1cc8      	l32i.n	a12, a12, 4
    6eb1:	1bb8      	l32i.n	a11, a11, 4
    6eb3:	41c1c0        	srli	a12, a12, 1
    6eb6:	41b1b0        	srli	a11, a11, 1
    6eb9:	c0bbc0        	sub	a11, a11, a12
    6ebc:	36b9      	s32i.n	a11, a6, 12
    6ebe:	c0aab0        	sub	a10, a10, a11
    6ec1:	05bd      	mov.n	a11, a5
    6ec3:	066325        	excw
    6ec6:	aa5a      	add.n	a10, a10, a5
    6ec8:	05bd      	mov.n	a11, a5
    6eca:	0662a5        	excw
    6ecd:	0356a2        	s16i	a10, a6, 6
    6ed0:	0001a2        	l8ui	a10, a1, 0
    6ed3:	331b      	addi.n	a3, a3, 1
    6ed5:	743030        	extui	a3, a3, 0, 8
    6ed8:	02b3a7        	bgeu	a3, a10, 0x6ede
    6edb:	ffdb86        	j	0x6e4d
    6ede:	0004c6        	j	0x6ef5
    6ee1:	090c      	movi.n	a9, 0
    6ee3:	8a0482        	l8ui	a8, a4, 138
    6ee6:	f42090        	extui	a2, a9, 0, 16
    6ee9:	881b      	addi.n	a8, a8, 1
    6eeb:	8a4482        	s8i	a8, a4, 138
    6eee:	f01d      	excw
    6ef0:	b99021        	l32r	a2, 0xffff5530
    6ef3:	f01d      	excw
    6ef5:	1c0c      	movi.n	a12, 1
    6ef7:	d92192        	l32i	a9, a1, 0x364
    6efa:	0d2c      	movi.n	a13, 32
    6efc:	012d97        	blt	a13, a9, 0x6f01
    6eff:	0c0c      	movi.n	a12, 0
    6f01:	dd6142        	s32i	a4, a1, 0x374
    6f04:	d92192        	l32i	a9, a1, 0x364
    6f07:	de6122        	s32i	a2, a1, 0x378
    6f0a:	990b      	addi.n	a9, a9, -1
    6f0c:	939dc0        	movnez	a9, a13, a12
    6f0f:	0eda16        	beqz	a10, 0x7000
    6f12:	d06192        	s32i	a9, a1, 0x340
    6f15:	0219e6        	bgei	a9, 1, 0x6f1b
    6f18:	004306        	j	0x7028
    6f1b:	dd6142        	s32i	a4, a1, 0x374
    6f1e:	de6122        	s32i	a2, a1, 0x378
    6f21:	d921b2        	l32i	a11, a1, 0x364
    6f24:	d021d2        	l32i	a13, a1, 0x340
    6f27:	019d      	mov.n	a9, a1
    6f29:	908aa0        	addx2	a8, a10, a10
    6f2c:	01cd      	mov.n	a12, a1
    6f2e:	02d1f2        	addmi	a15, a1, 0x200
    6f31:	0fed      	mov.n	a14, a15
    6f33:	d761c2        	s32i	a12, a1, 0x35c
    6f36:	7fcff2        	addi	a15, a15, 127
    6f39:	b9e8c1        	l32r	a12, 0xffff56dc
    6f3c:	b08890        	addx8	a8, a8, a9
    6f3f:	a0dde0        	addx4	a13, a13, a14
    6f42:	da61d2        	s32i	a13, a1, 0x368
    6f45:	d56182        	s32i	a8, a1, 0x354
    6f48:	82bbc0        	mull	a11, a11, a12
    6f4b:	d361b2        	s32i	a11, a1, 0x34c
    6f4e:	61cf82        	addi	a8, a15, 97
    6f51:	d86182        	s32i	a8, a1, 0x360
    6f54:	ff1b      	addi.n	a15, a15, 1
    6f56:	d661f2        	s32i	a15, a1, 0x358
    6f59:	040c      	movi.n	a4, 0
    6f5b:	d72162        	l32i	a6, a1, 0x35c
    6f5e:	d82152        	l32i	a5, a1, 0x360
    6f61:	02d132        	addmi	a3, a1, 0x200
    6f64:	033d      	mov.n	a3, a3
    6f66:	0558      	l32i.n	a5, a5, 0
    6f68:	031682        	l16ui	a8, a6, 6
    6f6b:	041662        	l16ui	a6, a6, 8
    6f6e:	db6182        	s32i	a8, a1, 0x36c
    6f71:	41d160        	srli	a13, a6, 1
    6f74:	dc61d2        	s32i	a13, a1, 0x370
    6f77:	db2122        	l32i	a2, a1, 0x36c
    6f7a:	05bd      	mov.n	a11, a5
    6f7c:	c02420        	sub	a2, a4, a2
    6f7f:	02ad      	mov.n	a10, a2
    6f81:	065725        	excw
    6f84:	a5aa      	add.n	a10, a5, a10
    6f86:	05bd      	mov.n	a11, a5
    6f88:	0656a5        	excw
    6f8b:	5aec      	bnez.n	a10, 0x6fb4
    6f8d:	051567        	beq	a5, a6, 0x6f96
    6f90:	d92182        	l32i	a8, a1, 0x364
    6f93:	0b9587        	bne	a5, a8, 0x6fa2
    6f96:	b9e981        	l32r	a8, 0xffff573c
    6f99:	0378      	l32i.n	a7, a3, 0
    6f9b:	778a      	add.n	a7, a7, a8
    6f9d:	0379      	s32i.n	a7, a3, 0
    6f9f:	0004c6        	j	0x6fb6
    6fa2:	d621b2        	l32i	a11, a1, 0x358
    6fa5:	d321a2        	l32i	a10, a1, 0x34c
    6fa8:	0bb8      	l32i.n	a11, a11, 0
    6faa:	065965        	excw
    6fad:	0378      	l32i.n	a7, a3, 0
    6faf:	77aa      	add.n	a7, a7, a10
    6fb1:	fffa06        	j	0x6f9d
    6fb4:	0378      	l32i.n	a7, a3, 0
    6fb6:	02ad      	mov.n	a10, a2
    6fb8:	06bd      	mov.n	a11, a6
    6fba:	0653a5        	excw
    6fbd:	aa6a      	add.n	a10, a10, a6
    6fbf:	06bd      	mov.n	a11, a6
    6fc1:	065325        	excw
    6fc4:	441b      	addi.n	a4, a4, 1
    6fc6:	dc2192        	l32i	a9, a1, 0x370
    6fc9:	da2182        	l32i	a8, a1, 0x368
    6fcc:	c09a90        	sub	a9, a10, a9
    6fcf:	609190        	abs	a9, a9
    6fd2:	979a      	add.n	a9, a7, a9
    6fd4:	0399      	s32i.n	a9, a3, 0
    6fd6:	334b      	addi.n	a3, a3, 4
    6fd8:	9b9387        	bne	a3, a8, 0x6f77
    6fdb:	d521b2        	l32i	a11, a1, 0x354
    6fde:	d621d2        	l32i	a13, a1, 0x358
    6fe1:	d721a2        	l32i	a10, a1, 0x35c
    6fe4:	d821c2        	l32i	a12, a1, 0x360
    6fe7:	18caa2        	addi	a10, a10, 24
    6fea:	cc4b      	addi.n	a12, a12, 4
    6fec:	dd4b      	addi.n	a13, a13, 4
    6fee:	d661d2        	s32i	a13, a1, 0x358
    6ff1:	d861c2        	s32i	a12, a1, 0x360
    6ff4:	d761a2        	s32i	a10, a1, 0x35c
    6ff7:	021ab7        	beq	a10, a11, 0x6ffd
    6ffa:	ffd6c6        	j	0x6f59
    6ffd:	d02192        	l32i	a9, a1, 0x340
    7000:	de2122        	l32i	a2, a1, 0x378
    7003:	dd2142        	l32i	a4, a1, 0x374
    7006:	1e19a6        	blti	a9, 1, 0x7028
    7009:	0d0c      	movi.n	a13, 0
    700b:	b9e8e1        	l32r	a14, 0xffff57ac
    700e:	0f0c      	movi.n	a15, 0
    7010:	02d1c2        	addmi	a12, a1, 0x200
    7013:	0ccd      	mov.n	a12, a12
    7015:	0ca976        	excw
    7018:	0ca8      	l32i.n	a10, a12, 0
    701a:	cc4b      	addi.n	a12, a12, 4
    701c:	03aae7        	bge	a10, a14, 0x7023
    701f:	0aed      	mov.n	a14, a10
    7021:	0dfd      	mov.n	a15, a13
    7023:	dd1b      	addi.n	a13, a13, 1
    7025:	000046        	j	0x702a
    7028:	0f0c      	movi.n	a15, 0
    702a:	b977c1        	l32r	a12, 0xffff5608
    702d:	7404d2        	l8ui	a13, a4, 116
    7030:	98a1e2        	movi	a14, 0x198
    7033:	c1dde0        	mul16u	a13, a13, a14
    7036:	ccda      	add.n	a12, a12, a13
    7038:	800cd2        	l8ui	a13, a12, 128
    703b:	6dec      	bnez.n	a13, 0x7065
    703d:	b910b1        	l32r	a11, 0xffff5480
    7040:	7f0ca2        	l8ui	a10, a12, 127
    7043:	a0aab0        	addx4	a10, a10, a11
    7046:	1bb8      	l32i.n	a11, a11, 4
    7048:	1aa8      	l32i.n	a10, a10, 4
    704a:	41b1b0        	srli	a11, a11, 1
    704d:	41a1a0        	srli	a10, a10, 1
    7050:	c0aab0        	sub	a10, a10, a11
    7053:	afaa      	add.n	a10, a15, a10
    7055:	d921b2        	l32i	a11, a1, 0x364
    7058:	0649a5        	excw
    705b:	d921b2        	l32i	a11, a1, 0x364
    705e:	abaa      	add.n	a10, a11, a10
    7060:	064925        	excw
    7063:	0afd      	mov.n	a15, a10
    7065:	0112b2        	l16ui	a11, a2, 2
    7068:	119ff0        	slli	a9, a15, 1
    706b:	c0bb90        	sub	a11, a11, a9
    706e:	e6fb16        	beqz	a11, 0x6ee1
    7071:	015292        	s16i	a9, a2, 2
    7074:	190c      	movi.n	a9, 1
    7076:	ff9a46        	j	0x6ee3
    7079:	000000        	ill
    707c:	004136        	excw
    707f:	b9e281        	l32r	a8, 0xffff5808
    7082:	03bd      	mov.n	a11, a3
    7084:	2888      	l32i.n	a8, a8, 8
    7086:	02ad      	mov.n	a10, a2
    7088:	0008e0        	excw
    708b:	b90d81        	l32r	a8, 0xffff54c0
    708e:	472882        	l32i	a8, a8, 0x11c
    7091:	0008e0        	excw
    7094:	9a9c      	beqz.n	a10, 0x70b1
    7096:	b9e381        	l32r	a8, 0xffff5824
    7099:	af2882        	l32i	a8, a8, 0x2bc
    709c:	0008e0        	excw
    709f:	eacc      	bnez.n	a10, 0x70b1
    70a1:	b91c81        	l32r	a8, 0xffff5514
    70a4:	6b2882        	l32i	a8, a8, 0x1ac
    70a7:	0008e0        	excw
    70aa:	3acc      	bnez.n	a10, 0x70b1
    70ac:	090c      	movi.n	a9, 0
    70ae:	015292        	s16i	a9, a2, 2
    70b1:	f01d      	excw
    70b3:	413600        	srli	a3, a0, 6
    70b6:	0d4100        	excw
    70b9:	82b9      	s32i.n	a11, a2, 32
    70bb:	e04524        	excw
    70be:	0008      	l32i.n	a0, a0, 0
    70c0:	b92031        	l32r	a3, 0xffff5540
    70c3:	b9ea21        	l32r	a2, 0xffff586c
    70c6:	0abc      	beqz.n	a10, 0x70fa
    70c8:	0dd3b2        	addmi	a11, a3, 0xd00
    70cb:	b9ecd1        	l32r	a13, 0xffff587c
    70ce:	fba0e2        	movi	a14, 251
    70d1:	fea082        	movi	a8, 254
    70d4:	1802f2        	l8ui	a15, a2, 24
    70d7:	b9eb91        	l32r	a9, 0xffff5884
    70da:	4c0c      	movi.n	a12, 4
    70dc:	0043c2        	s8i	a12, a3, 0
    70df:	1243c2        	s8i	a12, a3, 18
    70e2:	a50992        	l8ui	a9, a9, 165
    70e5:	10ff80        	and	a15, a15, a8
    70e8:	1842f2        	s8i	a15, a2, 24
    70eb:	1099e0        	and	a9, a9, a14
    70ee:	090dc2        	l8ui	a12, a13, 9
    70f1:	254b92        	s8i	a9, a11, 37
    70f4:	10cce0        	and	a12, a12, a14
    70f7:	094dc2        	s8i	a12, a13, 9
    70fa:	462482        	l32i	a8, a4, 0x118
    70fd:	0008e0        	excw
    7100:	3aac      	beqz.n	a10, 0x7127
    7102:	0b0c      	movi.n	a11, 0
    7104:	1942b2        	s8i	a11, a2, 25
    7107:	1a42b2        	s8i	a11, a2, 26
    710a:	1b42b2        	s8i	a11, a2, 27
    710d:	1c42b2        	s8i	a11, a2, 28
    7110:	b9e321        	l32r	a2, 0xffff589c
    7113:	db2282        	l32i	a8, a2, 0x36c
    7116:	6a2c      	movi.n	a10, 38
    7118:	0008e0        	excw
    711b:	1a3c      	movi.n	a10, 49
    711d:	db2282        	l32i	a8, a2, 0x36c
    7120:	0b0c      	movi.n	a11, 0
    7122:	0008e0        	excw
    7125:	f01d      	excw
    7127:	6a0c      	movi.n	a10, 6
    7129:	190c      	movi.n	a9, 1
    712b:	0b5392        	s16i	a9, a3, 22
    712e:	1243a2        	s8i	a10, a3, 18
    7131:	f01d      	excw
    7133:	413600        	srli	a3, a0, 6
    7136:	0d8100        	excw
    7139:	82b9      	s32i.n	a11, a2, 32
    713b:	4728      	l32i.n	a2, a7, 16
    713d:	0008e0        	excw
    7140:	1a8c      	beqz.n	a10, 0x7145
    7142:	0bd2b6        	bltui	a2, 64, 0x7151
    7145:	b9e281        	l32r	a8, 0xffff58d0
    7148:	02ad      	mov.n	a10, a2
    714a:	3888      	l32i.n	a8, a8, 12
    714c:	03bd      	mov.n	a11, a3
    714e:	0008e0        	excw
    7151:	f01d      	excw
    7153:	613600        	excw
    7156:	a48200        	extui	a8, a0, 2, 11
    7159:	9487b4        	excw
    715c:	2a0c51        	l32r	a5, 0xfffd198c
    715f:	b91c81        	l32r	a8, 0xffff55d0
    7162:	02bd      	mov.n	a11, a2
    7164:	132882        	l32i	a8, a8, 76
    7167:	0303c2        	l8ui	a12, a3, 3
    716a:	0008e0        	excw
    716d:	03ad      	mov.n	a10, a3
    716f:	74b020        	extui	a11, a2, 0, 8
    7172:	05cd      	mov.n	a12, a5
    7174:	06dd      	mov.n	a13, a6
    7176:	b91c81        	l32r	a8, 0xffff55e8
    7179:	090c      	movi.n	a9, 0
    717b:	4a2882        	l32i	a8, a8, 0x128
    717e:	0699      	s32i.n	a9, a6, 0
    7180:	0008e0        	excw
    7183:	b91c21        	l32r	a2, 0xffff55f4
    7186:	5ca2d2        	movi	a13, 0x25c
    7189:	b92081        	l32r	a8, 0xffff560c
    718c:	b9edc1        	l32r	a12, 0xffff5940
    718f:	bca0f2        	movi	a15, 188
    7192:	d1faf0        	mul16s	a15, a10, a15
    7195:	0abd      	mov.n	a11, a10
    7197:	cfca      	add.n	a12, a15, a12
    7199:	0015a2        	l16ui	a10, a5, 0
    719c:	ff8a      	add.n	a15, a15, a8
    719e:	050a16        	beqz	a10, 0x71f2
    71a1:	282c82        	l32i	a8, a12, 160
    71a4:	1f6817        	bbci	a8, 1, 0x71c7
    71a7:	afda      	add.n	a10, a15, a13
    71a9:	924125        	excw
    71ac:	000f86        	j	0x71ee
    71af:	02ad      	mov.n	a10, a2
    71b1:	03bd      	mov.n	a11, a3
    71b3:	04cd      	mov.n	a12, a4
    71b5:	05dd      	mov.n	a13, a5
    71b7:	b9e281        	l32r	a8, 0xffff5940
    71ba:	06ed      	mov.n	a14, a6
    71bc:	4888      	l32i.n	a8, a8, 16
    71be:	07fd      	mov.n	a15, a7
    71c0:	0008e0        	excw
    71c3:	0a2d      	mov.n	a2, a10
    71c5:	f01d      	excw
    71c7:	2a0c      	movi.n	a10, 2
    71c9:	b9eec1        	l32r	a12, 0xffff5984
    71cc:	5e0c      	movi.n	a14, 5
    71ce:	5fa2d2        	movi	a13, 0x25f
    71d1:	1d2282        	l32i	a8, a2, 116
    71d4:	dfda      	add.n	a13, a15, a13
    71d6:	0008e0        	excw
    71d9:	000446        	j	0x71ee
    71dc:	03bd      	mov.n	a11, a3
    71de:	04cd      	mov.n	a12, a4
    71e0:	05dd      	mov.n	a13, a5
    71e2:	07fd      	mov.n	a15, a7
    71e4:	01a8      	l32i.n	a10, a1, 0
    71e6:	5f2282        	l32i	a8, a2, 0x17c
    71e9:	06ed      	mov.n	a14, a6
    71eb:	0008e0        	excw
    71ee:	0628      	l32i.n	a2, a6, 0
    71f0:	f01d      	excw
    71f2:	3fda      	add.n	a3, a15, a13
    71f4:	74b0b0        	extui	a11, a11, 0, 8
    71f7:	2c2c92        	l32i	a9, a12, 176
    71fa:	01b9      	s32i.n	a11, a1, 0
    71fc:	dc6977        	bbci	a9, 7, 0x71dc
    71ff:	03ad      	mov.n	a10, a3
    7201:	192c      	movi.n	a9, 33
    7203:	9d2282        	l32i	a8, a2, 0x274
    7206:	7e4c92        	s8i	a9, a12, 126
    7209:	0008e0        	excw
    720c:	fff786        	j	0x71ee
    720f:	613600        	excw
    7212:	128200        	excw
    7215:	e80714        	excw
    7218:	655602        	s16i	a0, a6, 202
    721b:	1c7104        	excw
    721e:	82b9      	s32i.n	a11, a2, 32
    7220:	e0fc27        	bbsi	a12, 18, 0x7204
    7223:	0008      	l32i.n	a0, a0, 0
    7225:	07da16        	beqz	a10, 0x72a6
    7228:	3b2782        	l32i	a8, a7, 236
    722b:	0008e0        	excw
    722e:	0a9d      	mov.n	a9, a10
    7230:	0102b2        	l8ui	a11, a2, 1
    7233:	b91b71        	l32r	a7, 0xffff56a0
    7236:	021b26        	beqi	a11, 1, 0x723c
    7239:	042b66        	bnei	a11, 2, 0x7241
    723c:	9a0b      	addi.n	a9, a10, -1
    723e:	749090        	extui	a9, a9, 0, 8
    7241:	0199      	s32i.n	a9, a1, 0
    7243:	0a73b6        	bltui	a3, 7, 0x7251
    7246:	1e2782        	l32i	a8, a7, 120
    7249:	0008e0        	excw
    724c:	0198      	l32i.n	a9, a1, 0
    724e:	54b9a7        	bgeu	a9, a10, 0x72a6
    7251:	25dc      	bnez.n	a5, 0x7267
    7253:	7b0c      	movi.n	a11, 7
    7255:	0a0c      	movi.n	a10, 0
    7257:	000406        	j	0x726b
    725a:	081416        	beqz	a4, 0x72df
    725d:	0102a2        	l8ui	a10, a2, 1
    7260:	5b3a26        	beqi	a10, 3, 0x72bf
    7263:	122c      	movi.n	a2, 33
    7265:	f01d      	excw
    7267:	7a0c      	movi.n	a10, 7
    7269:	ab0c      	movi.n	a11, 10
    726b:	2fbab7        	bgeu	a10, a11, 0x729e
    726e:	cb0b      	addi.n	a12, a11, -1
    7270:	6f3ca7        	bltu	a12, a10, 0x72e3
    7273:	b9efd1        	l32r	a13, 0xffff5a30
    7276:	ffa0e2        	movi	a14, 255
    7279:	21a092        	movi	a9, 33
    727c:	00a0c2        	movi	a12, 0
    727f:	c0fba0        	sub	a15, a11, a10
    7282:	bca0b2        	movi	a11, 188
    7285:	129f76        	excw
    7288:	c18ab0        	mul16u	a8, a10, a11
    728b:	aa1b      	addi.n	a10, a10, 1
    728d:	8d8a      	add.n	a8, a13, a8
    728f:	800882        	l8ui	a8, a8, 128
    7292:	74a0a0        	extui	a10, a10, 0, 8
    7295:	c088e0        	sub	a8, a8, a14
    7298:	839c80        	moveqz	a9, a12, a8
    729b:	000046        	j	0x72a0
    729e:	192c      	movi.n	a9, 33
    72a0:	698c      	beqz.n	a9, 0x72aa
    72a2:	092d      	mov.n	a2, a9
    72a4:	f01d      	excw
    72a6:	920c      	movi.n	a2, 9
    72a8:	f01d      	excw
    72aa:	ac0626        	beqi	a6, -1, 0x725a
    72ad:	06bd      	mov.n	a11, a6
    72af:	492782        	l32i	a8, a7, 0x124
    72b2:	0002a2        	l8ui	a10, a2, 0
    72b5:	0008e0        	excw
    72b8:	9e3af6        	bgeui	a10, 3, 0x725a
    72bb:	822c      	movi.n	a2, 40
    72bd:	f01d      	excw
    72bf:	0a0c      	movi.n	a10, 0
    72c1:	b9f0c1        	l32r	a12, 0xffff5a84
    72c4:	cb2c      	movi.n	a11, 44
    72c6:	c1bab0        	mul16u	a11, a10, a11
    72c9:	aa1b      	addi.n	a10, a10, 1
    72cb:	bcba      	add.n	a11, a12, a11
    72cd:	7f0b92        	l8ui	a9, a11, 127
    72d0:	74a0a0        	extui	a10, a10, 0, 8
    72d3:	059937        	bne	a9, a3, 0x72dc
    72d6:	800bd2        	l8ui	a13, a11, 128
    72d9:	f86d56        	bnez	a13, 0x7263
    72dc:	fe4a16        	beqz	a10, 0x72c4
    72df:	020c      	movi.n	a2, 0
    72e1:	f01d      	excw
    72e3:	192c      	movi.n	a9, 33
    72e5:	ffedc6        	j	0x72a0
    72e8:	006136        	excw
    72eb:	b91b81        	l32r	a8, 0xffff5758
    72ee:	0002a2        	l8ui	a10, a2, 0
    72f1:	0413e2        	l16ui	a14, a3, 8
    72f4:	0313d2        	l16ui	a13, a3, 6
    72f7:	0213c2        	l16ui	a12, a3, 4
    72fa:	0113b2        	l16ui	a11, a3, 2
    72fd:	000392        	l8ui	a9, a3, 0
    7300:	0199      	s32i.n	a9, a1, 0
    7302:	442882        	l32i	a8, a8, 0x110
    7305:	04fd      	mov.n	a15, a4
    7307:	0008e0        	excw
    730a:	b9e381        	l32r	a8, 0xffff5a98
    730d:	b82882        	l32i	a8, a8, 0x2e0
    7310:	03ad      	mov.n	a10, a3
    7312:	0008e0        	excw
    7315:	f01d      	excw
    7317:	413600        	srli	a3, a0, 6
    731a:	e28100        	excw
    731d:	88b9      	s32i.n	a11, a8, 32
    731f:	ad58      	l32i.n	a5, a13, 40
    7321:	08e002        	excw
    7324:	a0b200        	addx4	a11, a2, a0
    7327:	20c100        	or	a12, a1, a0
    732a:	a2b9      	s32i.n	a11, a2, 40
    732c:	925ca2        	s16i	a10, a12, 0x124
    732f:	760aa0        	excw
    7332:	11a9      	s32i.n	a10, a1, 4
    7334:	bca0d2        	movi	a13, 188
    7337:	c1dbd0        	mul16u	a13, a11, a13
    733a:	dcda      	add.n	a13, a12, a13
    733c:	ddaa      	add.n	a13, a13, a10
    733e:	0412d7        	beq	a2, a13, 0x7346
    7341:	bb1b      	addi.n	a11, a11, 1
    7343:	74b0b0        	extui	a11, a11, 0, 8
    7346:	b9f1d1        	l32r	a13, 0xffff5b0c
    7349:	0c0c      	movi.n	a12, 0
    734b:	1742c2        	s8i	a12, a2, 23
    734e:	a0dbd0        	addx4	a13, a11, a13
    7351:	0dc9      	s32i.n	a12, a13, 0
    7353:	f01d      	excw
    7355:	000000        	ill
    7358:	006136        	excw
    735b:	b9e381        	l32r	a8, 0xffff5ae8
    735e:	05ad      	mov.n	a10, a5
    7360:	ea2882        	l32i	a8, a8, 0x3a8
    7363:	01bd      	mov.n	a11, a1
    7365:	0008e0        	excw
    7368:	2a0c      	movi.n	a10, 2
    736a:	0f6417        	bbci	a4, 1, 0x737d
    736d:	b9f1c1        	l32r	a12, 0xffff5b34
    7370:	0001b2        	l8ui	a11, a1, 0
    7373:	a0bbc0        	addx4	a11, a11, a12
    7376:	0b98      	l32i.n	a9, a11, 0
    7378:	2099a0        	or	a9, a9, a10
    737b:	0b99      	s32i.n	a9, a11, 0
    737d:	02ad      	mov.n	a10, a2
    737f:	03bd      	mov.n	a11, a3
    7381:	04cd      	mov.n	a12, a4
    7383:	b9e281        	l32r	a8, 0xffff5b0c
    7386:	05dd      	mov.n	a13, a5
    7388:	6888      	l32i.n	a8, a8, 24
    738a:	06ed      	mov.n	a14, a6
    738c:	0008e0        	excw
    738f:	0a2d      	mov.n	a2, a10
    7391:	f01d      	excw
    7393:	613600        	excw
    7396:	e33100        	excw
    7399:	adb9      	s32i.n	a11, a13, 40
    739b:	238204        	excw
    739e:	bdea      	add.n	a11, a13, a14
    73a0:	08e001        	l32r	a0, 0xfffc9720
    73a3:	0a7d00        	excw
    73a6:	9acc      	bnez.n	a10, 0x73b3
    73a8:	b9e5a1        	l32r	a10, 0xffff5b3c
    73ab:	0b0c      	movi.n	a11, 0
    73ad:	acca65        	excw
    73b0:	004706        	j	0x74d0
    73b3:	0002a2        	l8ui	a10, a2, 0
    73b6:	7ba0d2        	movi	a13, 123
    73b9:	74a1a0        	extui	a10, a10, 1, 8
    73bc:	063da7        	bltu	a13, a10, 0x73c6
    73bf:	1c0c      	movi.n	a12, 1
    73c1:	0abd      	mov.n	a11, a10
    73c3:	000306        	j	0x73d3
    73c6:	0102b2        	l8ui	a11, a2, 1
    73c9:	2c0c      	movi.n	a12, 2
    73cb:	11bb80        	slli	a11, a11, 8
    73ce:	baba      	add.n	a11, a10, a11
    73d0:	f4b0b0        	extui	a11, a11, 0, 16
    73d3:	1127a2        	l32i	a10, a7, 68
    73d6:	783c      	movi.n	a8, 55
    73d8:	117a57        	bbci	a10, 21, 0x73ed
    73db:	b9f2e1        	l32r	a14, 0xffff5ba4
    73de:	0b9be7        	bne	a11, a14, 0x73ed
    73e1:	b9f3f1        	l32r	a15, 0xffff5bb0
    73e4:	10faf0        	and	a15, a10, a15
    73e7:	1167f2        	s32i	a15, a7, 68
    73ea:	003886        	j	0x74d0
    73ed:	109b87        	bne	a11, a8, 0x7401
    73f0:	b91b81        	l32r	a8, 0xffff585c
    73f3:	04ad      	mov.n	a10, a4
    73f5:	e12882        	l32i	a8, a8, 0x384
    73f8:	1817b2        	l16ui	a11, a7, 48
    73fb:	0008e0        	excw
    73fe:	003386        	j	0x74d0
    7401:	492c      	movi.n	a9, 36
    7403:	129b97        	bne	a11, a9, 0x7419
    7406:	b91b81        	l32r	a8, 0xffff5874
    7409:	04ad      	mov.n	a10, a4
    740b:	02d882        	addmi	a8, a8, 0x200
    740e:	c52882        	l32i	a8, a8, 0x314
    7411:	0b0c      	movi.n	a11, 0
    7413:	0008e0        	excw
    7416:	002d86        	j	0x74d0
    7419:	11b9      	s32i.n	a11, a1, 4
    741b:	e1cbe2        	addi	a14, a11, -31
    741e:	0b2e16        	beqz	a14, 0x74d4
    7421:	11b9      	s32i.n	a11, a1, 4
    7423:	e0cbf2        	addi	a15, a11, -32
    7426:	0aaf16        	beqz	a15, 0x74d4
    7429:	2a2782        	l32i	a8, a7, 168
    742c:	ffa0e2        	movi	a14, 255
    742f:	081882        	l16ui	a8, a8, 16
    7432:	a407a2        	l8ui	a10, a7, 164
    7435:	4d68c7        	bbci	a8, 12, 0x7486
    7438:	4a1ae7        	beq	a10, a14, 0x7486
    743b:	7fa192        	movi	a9, 0x17f
    743e:	449b97        	bne	a11, a9, 0x7486
    7441:	e2ca      	add.n	a14, a2, a12
    7443:	000ee2        	l8ui	a14, a14, 0
    7446:	043de7        	bltu	a13, a14, 0x744e
    7449:	0ecd      	mov.n	a12, a14
    744b:	000446        	j	0x7460
    744e:	cc1b      	addi.n	a12, a12, 1
    7450:	74c0c0        	extui	a12, a12, 0, 8
    7453:	c2ca      	add.n	a12, a2, a12
    7455:	000cc2        	l8ui	a12, a12, 0
    7458:	11cc80        	slli	a12, a12, 8
    745b:	ceca      	add.n	a12, a14, a12
    745d:	f4c0c0        	extui	a12, a12, 0, 16
    7460:	b9f4d1        	l32r	a13, 0xffff5c30
    7463:	11b9      	s32i.n	a11, a1, 4
    7465:	1d9cd7        	bne	a12, a13, 0x7486
    7468:	b9f581        	l32r	a8, 0xffff5c3c
    746b:	a507b2        	l8ui	a11, a7, 165
    746e:	9d2882        	l32i	a8, a8, 0x274
    7471:	0c0c      	movi.n	a12, 0
    7473:	0008e0        	excw
    7476:	11b8      	l32i.n	a11, a1, 4
    7478:	090c      	movi.n	a9, 0
    747a:	ffa0a2        	movi	a10, 255
    747d:	a447a2        	s8i	a10, a7, 164
    7480:	a54792        	s8i	a9, a7, 165
    7483:	2a6792        	s32i	a9, a7, 168
    7486:	b9f1d1        	l32r	a13, 0xffff5c4c
    7489:	0001c2        	l8ui	a12, a1, 0
    748c:	a0ccd0        	addx4	a12, a12, a13
    748f:	0ca8      	l32i.n	a10, a12, 0
    7491:	de2c      	movi.n	a14, 45
    7493:	096a17        	bbci	a10, 1, 0x74a0
    7496:	069be7        	bne	a11, a14, 0x74a0
    7499:	df7c      	movi.n	a15, -3
    749b:	10aaf0        	and	a10, a10, a15
    749e:	0ca9      	s32i.n	a10, a12, 0
    74a0:	0b6a27        	bbci	a10, 2, 0x74af
    74a3:	881c      	movi.n	a8, 24
    74a5:	069b87        	bne	a11, a8, 0x74af
    74a8:	b97c      	movi.n	a9, -5
    74aa:	109a90        	and	a9, a10, a9
    74ad:	0c99      	s32i.n	a9, a12, 0
    74af:	1707a2        	l8ui	a10, a7, 23
    74b2:	ec2c      	movi.n	a12, 46
    74b4:	6a8c      	beqz.n	a10, 0x74be
    74b6:	049bc7        	bne	a11, a12, 0x74be
    74b9:	da0b      	addi.n	a13, a10, -1
    74bb:	1747d2        	s8i	a13, a7, 23
    74be:	e58c      	beqz.n	a5, 0x74d0
    74c0:	02ad      	mov.n	a10, a2
    74c2:	04bd      	mov.n	a11, a4
    74c4:	06ed      	mov.n	a14, a6
    74c6:	0c0c      	movi.n	a12, 0
    74c8:	f22382        	l32i	a8, a3, 0x3c8
    74cb:	1d0c      	movi.n	a13, 1
    74cd:	0008e0        	excw
    74d0:	020c      	movi.n	a2, 0
    74d2:	f01d      	excw
    74d4:	b91b21        	l32r	a2, 0xffff5940
    74d7:	6c2282        	l32i	a8, a2, 0x1b0
    74da:	04ad      	mov.n	a10, a4
    74dc:	0008e0        	excw
    74df:	100792        	l8ui	a9, a7, 16
    74e2:	161966        	bnei	a9, 1, 0x74fc
    74e5:	11a8      	l32i.n	a10, a1, 4
    74e7:	11ca66        	bnei	a10, 32, 0x74fc
    74ea:	04ad      	mov.n	a10, a4
    74ec:	090c      	movi.n	a9, 0
    74ee:	104792        	s8i	a9, a7, 16
    74f1:	4e2282        	l32i	a8, a2, 0x138
    74f4:	0b0c      	movi.n	a11, 0
    74f6:	0008e0        	excw
    74f9:	100792        	l8ui	a9, a7, 16
    74fc:	d02966        	bnei	a9, 2, 0x74d0
    74ff:	11a8      	l32i.n	a10, a1, 4
    7501:	fb1c      	movi.n	a11, 31
    7503:	c99ab7        	bne	a10, a11, 0x74d0
    7506:	04ad      	mov.n	a10, a4
    7508:	090c      	movi.n	a9, 0
    750a:	104792        	s8i	a9, a7, 16
    750d:	4e2282        	l32i	a8, a2, 0x138
    7510:	0b0c      	movi.n	a11, 0
    7512:	0008e0        	excw
    7515:	ffedc6        	j	0x74d0
    7518:	006136        	excw
    751b:	030c      	movi.n	a3, 0
    751d:	b9f171        	l32r	a7, 0xffff5ce4
    7520:	b9f561        	l32r	a6, 0xffff5cf4
    7523:	b9f651        	l32r	a5, 0xffff5cfc
    7526:	fad662        	addmi	a6, a6, 0xfffffa00
    7529:	292682        	l32i	a8, a6, 164
    752c:	0008e0        	excw
    752f:	bca0b2        	movi	a11, 188
    7532:	c1b3b0        	mul16u	a11, a3, a11
    7535:	4b5a      	add.n	a4, a11, a5
    7537:	511492        	l16ui	a9, a4, 162
    753a:	8504c2        	l8ui	a12, a4, 133
    753d:	3c19a7        	beq	a9, a10, 0x757d
    7540:	391c27        	beq	a12, a2, 0x757d
    7543:	a0d370        	addx4	a13, a3, a7
    7546:	0dd8      	l32i.n	a13, a13, 0
    7548:	31ed17        	bbsi	a13, 1, 0x757d
    754b:	b9e381        	l32r	a8, 0xffff5cd8
    754e:	b920a1        	l32r	a10, 0xffff59d0
    7551:	dd2882        	l32i	a8, a8, 0x374
    7554:	abaa      	add.n	a10, a11, a10
    7556:	01a9      	s32i.n	a10, a1, 0
    7558:	5ca2b2        	movi	a11, 0x25c
    755b:	aaba      	add.n	a10, a10, a11
    755d:	0008e0        	excw
    7560:	7804d2        	l8ui	a13, a4, 120
    7563:	3e0c      	movi.n	a14, 3
    7565:	b9f581        	l32r	a8, 0xffff5d3c
    7568:	69a2c2        	movi	a12, 0x269
    756b:	8544a2        	s8i	a10, a4, 133
    756e:	01b8      	l32i.n	a11, a1, 0
    7570:	12a4a2        	movi	a10, 0x412
    7573:	bbca      	add.n	a11, a11, a12
    7575:	212882        	l32i	a8, a8, 132
    7578:	2c0c      	movi.n	a12, 2
    757a:	0008e0        	excw
    757d:	331b      	addi.n	a3, a3, 1
    757f:	743030        	extui	a3, a3, 0, 8
    7582:	a39366        	bnei	a3, 10, 0x7529
    7585:	f01d      	excw
    7587:	613600        	excw
    758a:	040c00        	extui	a0, a0, 12, 1
    758d:	b9f571        	l32r	a7, 0xffff5d64
    7590:	b9f661        	l32r	a6, 0xffff5d68
    7593:	fad772        	addmi	a7, a7, 0xfffffa00
    7596:	292782        	l32i	a8, a7, 164
    7599:	0008e0        	excw
    759c:	bca0b2        	movi	a11, 188
    759f:	c1b4b0        	mul16u	a11, a4, a11
    75a2:	5b6a      	add.n	a5, a11, a6
    75a4:	511592        	l16ui	a9, a5, 162
    75a7:	7805c2        	l8ui	a12, a5, 120
    75aa:	4519a7        	beq	a9, a10, 0x75f3
    75ad:	421c27        	beq	a12, a2, 0x75f3
    75b0:	8505d2        	l8ui	a13, a5, 133
    75b3:	b9f1e1        	l32r	a14, 0xffff5d78
    75b6:	391d37        	beq	a13, a3, 0x75f3
    75b9:	a0e4e0        	addx4	a14, a4, a14
    75bc:	0ee8      	l32i.n	a14, a14, 0
    75be:	31ee17        	bbsi	a14, 1, 0x75f3
    75c1:	b9e381        	l32r	a8, 0xffff5d50
    75c4:	b920a1        	l32r	a10, 0xffff5a44
    75c7:	dd2882        	l32i	a8, a8, 0x374
    75ca:	abaa      	add.n	a10, a11, a10
    75cc:	01a9      	s32i.n	a10, a1, 0
    75ce:	5ca2b2        	movi	a11, 0x25c
    75d1:	aaba      	add.n	a10, a10, a11
    75d3:	0008e0        	excw
    75d6:	7805d2        	l8ui	a13, a5, 120
    75d9:	3e0c      	movi.n	a14, 3
    75db:	b9f581        	l32r	a8, 0xffff5db0
    75de:	69a2c2        	movi	a12, 0x269
    75e1:	8545a2        	s8i	a10, a5, 133
    75e4:	01b8      	l32i.n	a11, a1, 0
    75e6:	12a4a2        	movi	a10, 0x412
    75e9:	bbca      	add.n	a11, a11, a12
    75eb:	212882        	l32i	a8, a8, 132
    75ee:	2c0c      	movi.n	a12, 2
    75f0:	0008e0        	excw
    75f3:	441b      	addi.n	a4, a4, 1
    75f5:	744040        	extui	a4, a4, 0, 8
    75f8:	9a9466        	bnei	a4, 10, 0x7596
    75fb:	f01d      	excw
    75fd:	000000        	ill
    7600:	006136        	excw
    7603:	040c      	movi.n	a4, 0
    7605:	b9f571        	l32r	a7, 0xffff5ddc
    7608:	b9f661        	l32r	a6, 0xffff5de0
    760b:	fad772        	addmi	a7, a7, 0xfffffa00
    760e:	292782        	l32i	a8, a7, 164
    7611:	0008e0        	excw
    7614:	bca0b2        	movi	a11, 188
    7617:	c1b4b0        	mul16u	a11, a4, a11
    761a:	5b6a      	add.n	a5, a11, a6
    761c:	511592        	l16ui	a9, a5, 162
    761f:	7805c2        	l8ui	a12, a5, 120
    7622:	4519a7        	beq	a9, a10, 0x766b
    7625:	421c27        	beq	a12, a2, 0x766b
    7628:	8505d2        	l8ui	a13, a5, 133
    762b:	b9f1e1        	l32r	a14, 0xffff5df0
    762e:	391d37        	beq	a13, a3, 0x766b
    7631:	a0e4e0        	addx4	a14, a4, a14
    7634:	0ee8      	l32i.n	a14, a14, 0
    7636:	31ee17        	bbsi	a14, 1, 0x766b
    7639:	b9e381        	l32r	a8, 0xffff5dc8
    763c:	b920a1        	l32r	a10, 0xffff5abc
    763f:	dd2882        	l32i	a8, a8, 0x374
    7642:	abaa      	add.n	a10, a11, a10
    7644:	01a9      	s32i.n	a10, a1, 0
    7646:	5ca2b2        	movi	a11, 0x25c
    7649:	aaba      	add.n	a10, a10, a11
    764b:	0008e0        	excw
    764e:	7805d2        	l8ui	a13, a5, 120
    7651:	3e0c      	movi.n	a14, 3
    7653:	b9f581        	l32r	a8, 0xffff5e28
    7656:	69a2c2        	movi	a12, 0x269
    7659:	8545a2        	s8i	a10, a5, 133
    765c:	01b8      	l32i.n	a11, a1, 0
    765e:	12a4a2        	movi	a10, 0x412
    7661:	bbca      	add.n	a11, a11, a12
    7663:	212882        	l32i	a8, a8, 132
    7666:	2c0c      	movi.n	a12, 2
    7668:	0008e0        	excw
    766b:	441b      	addi.n	a4, a4, 1
    766d:	744040        	extui	a4, a4, 0, 8
    7670:	9a9466        	bnei	a4, 10, 0x760e
    7673:	f01d      	excw
    7675:	000000        	ill
    7678:	006136        	excw
    767b:	0129      	s32i.n	a2, a1, 0
    767d:	030c      	movi.n	a3, 0
    767f:	b9e761        	l32r	a6, 0xffff5e1c
    7682:	b9f571        	l32r	a7, 0xffff5e58
    7685:	a40c      	movi.n	a4, 10
    7687:	fad772        	addmi	a7, a7, 0xfffffa00
    768a:	292782        	l32i	a8, a7, 164
    768d:	0008e0        	excw
    7690:	bca0c2        	movi	a12, 188
    7693:	c1c3c0        	mul16u	a12, a3, a12
    7696:	5c6a      	add.n	a5, a12, a6
    7698:	4f1592        	l16ui	a9, a5, 158
    769b:	c099a0        	sub	a9, a9, a10
    769e:	0df916        	beqz	a9, 0x7781
    76a1:	5015b2        	l16ui	a11, a5, 160
    76a4:	5ca292        	movi	a9, 0x25c
    76a7:	b92021        	l32r	a2, 0xffff5b28
    76aa:	b9e381        	l32r	a8, 0xffff5e38
    76ad:	2c2a      	add.n	a2, a12, a2
    76af:	892882        	l32i	a8, a8, 0x224
    76b2:	2129      	s32i.n	a2, a1, 8
    76b4:	229a      	add.n	a2, a2, a9
    76b6:	02ad      	mov.n	a10, a2
    76b8:	0008e0        	excw
    76bb:	b9f181        	l32r	a8, 0xffff5e80
    76be:	a08380        	addx4	a8, a3, a8
    76c1:	0888      	l32i.n	a8, a8, 0
    76c3:	11a9      	s32i.n	a10, a1, 4
    76c5:	026817        	bbci	a8, 1, 0x76cb
    76c8:	002206        	j	0x7754
    76cb:	02ad      	mov.n	a10, a2
    76cd:	b9e381        	l32r	a8, 0xffff5e5c
    76d0:	810592        	l8ui	a9, a5, 129
    76d3:	dd2882        	l32i	a8, a8, 0x374
    76d6:	3199      	s32i.n	a9, a1, 12
    76d8:	0008e0        	excw
    76db:	b914d1        	l32r	a13, 0xffff5b2c
    76de:	31c8      	l32i.n	a12, a1, 12
    76e0:	271dd2        	l16ui	a13, a13, 78
    76e3:	8105b2        	l8ui	a11, a5, 129
    76e6:	1f6d57        	bbci	a13, 5, 0x7709
    76e9:	671cb7        	beq	a12, a11, 0x7754
    76ec:	12a4a2        	movi	a10, 0x412
    76ef:	7405d2        	l8ui	a13, a5, 116
    76f2:	3e0c      	movi.n	a14, 3
    76f4:	69a2c2        	movi	a12, 0x269
    76f7:	21b8      	l32i.n	a11, a1, 8
    76f9:	b9f581        	l32r	a8, 0xffff5ed0
    76fc:	bbca      	add.n	a11, a11, a12
    76fe:	212882        	l32i	a8, a8, 132
    7701:	2c0c      	movi.n	a12, 2
    7703:	0008e0        	excw
    7706:	001286        	j	0x7754
    7709:	1c1cb7        	beq	a12, a11, 0x7729
    770c:	12a4a2        	movi	a10, 0x412
    770f:	7405d2        	l8ui	a13, a5, 116
    7712:	3e0c      	movi.n	a14, 3
    7714:	69a2c2        	movi	a12, 0x269
    7717:	21b8      	l32i.n	a11, a1, 8
    7719:	b9f581        	l32r	a8, 0xffff5ef0
    771c:	bbca      	add.n	a11, a11, a12
    771e:	212882        	l32i	a8, a8, 132
    7721:	2c0c      	movi.n	a12, 2
    7723:	0008e0        	excw
    7726:	000a86        	j	0x7754
    7729:	b920d1        	l32r	a13, 0xffff5bac
    772c:	b920e1        	l32r	a14, 0xffff5bac
    772f:	1e0dd2        	l8ui	a13, a13, 30
    7732:	1f0ee2        	l8ui	a14, a14, 31
    7735:	bd9c      	beqz.n	a13, 0x7754
    7737:	7405d2        	l8ui	a13, a5, 116
    773a:	161ed7        	beq	a14, a13, 0x7754
    773d:	12a4a2        	movi	a10, 0x412
    7740:	3e0c      	movi.n	a14, 3
    7742:	69a2c2        	movi	a12, 0x269
    7745:	21b8      	l32i.n	a11, a1, 8
    7747:	b9f581        	l32r	a8, 0xffff5f1c
    774a:	bbca      	add.n	a11, a11, a12
    774c:	212882        	l32i	a8, a8, 132
    774f:	2c0c      	movi.n	a12, 2
    7751:	0008e0        	excw
    7754:	01d8      	l32i.n	a13, a1, 0
    7756:	11f8      	l32i.n	a15, a1, 4
    7758:	2512d7        	beq	a2, a13, 0x7781
    775b:	8005e2        	l8ui	a14, a5, 128
    775e:	8b0582        	l8ui	a8, a5, 139
    7761:	1c1ef7        	beq	a14, a15, 0x7781
    7764:	1928f6        	bgeui	a8, 2, 0x7781
    7767:	7405d2        	l8ui	a13, a5, 116
    776a:	13a4a2        	movi	a10, 0x413
    776d:	3e0c      	movi.n	a14, 3
    776f:	68a2c2        	movi	a12, 0x268
    7772:	21b8      	l32i.n	a11, a1, 8
    7774:	b9f581        	l32r	a8, 0xffff5f48
    7777:	bbca      	add.n	a11, a11, a12
    7779:	222882        	l32i	a8, a8, 136
    777c:	2c0c      	movi.n	a12, 2
    777e:	0008e0        	excw
    7781:	440b      	addi.n	a4, a4, -1
    7783:	331b      	addi.n	a3, a3, 1
    7785:	743030        	extui	a3, a3, 0, 8
    7788:	efe456        	bnez	a4, 0x768a
    778b:	f01d      	excw
    778d:	000000        	ill
    7790:	006136        	excw
    7793:	156417        	bbci	a4, 1, 0x77ac
    7796:	02ad      	mov.n	a10, a2
    7798:	03bd      	mov.n	a11, a3
    779a:	04cd      	mov.n	a12, a4
    779c:	b9e281        	l32r	a8, 0xffff5f24
    779f:	05dd      	mov.n	a13, a5
    77a1:	7888      	l32i.n	a8, a8, 28
    77a3:	06ed      	mov.n	a14, a6
    77a5:	0008e0        	excw
    77a8:	0a2d      	mov.n	a2, a10
    77aa:	f01d      	excw
    77ac:	b9e371        	l32r	a7, 0xffff5f38
    77af:	05ad      	mov.n	a10, a5
    77b1:	ea2782        	l32i	a8, a7, 0x3a8
    77b4:	01bd      	mov.n	a11, a1
    77b6:	0008e0        	excw
    77b9:	2aac      	beqz.n	a10, 0x77df
    77bb:	110ac2        	l8ui	a12, a10, 17
    77be:	0003b2        	l8ui	a11, a3, 0
    77c1:	1d6c37        	bbci	a12, 3, 0x77e2
    77c4:	993c      	movi.n	a9, 57
    77c6:	189b97        	bne	a11, a9, 0x77e2
    77c9:	b92f81        	l32r	a8, 0xffff5c88
    77cc:	f7a092        	movi	a9, 247
    77cf:	109c90        	and	a9, a12, a9
    77d2:	114a92        	s8i	a9, a10, 17
    77d5:	702882        	l32i	a8, a8, 0x1c0
    77d8:	0008e0        	excw
    77db:	020c      	movi.n	a2, 0
    77dd:	f01d      	excw
    77df:	0003b2        	l8ui	a11, a3, 0
    77e2:	02ad      	mov.n	a10, a2
    77e4:	03cd      	mov.n	a12, a3
    77e6:	05dd      	mov.n	a13, a5
    77e8:	06ed      	mov.n	a14, a6
    77ea:	e72782        	l32i	a8, a7, 0x39c
    77ed:	04fd      	mov.n	a15, a4
    77ef:	0008e0        	excw
    77f2:	fff946        	j	0x77db
    77f5:	000000        	ill
    77f8:	018136        	excw
    77fb:	01ad      	mov.n	a10, a1
    77fd:	b9f7b1        	l32r	a11, 0xffff5fdc
    7800:	ac0c      	movi.n	a12, 10
    7802:	05e565        	excw
    7805:	10c1a2        	addi	a10, a1, 16
    7808:	b9f8b1        	l32r	a11, 0xffff5fe8
    780b:	ac0c      	movi.n	a12, 10
    780d:	05e4a5        	excw
    7810:	838c      	beqz.n	a3, 0x781c
    7812:	03bd      	mov.n	a11, a3
    7814:	48c2a2        	addi	a10, a2, 72
    7817:	ac0c      	movi.n	a12, 10
    7819:	05e3e5        	excw
    781c:	940c      	movi.n	a4, 9
    781e:	320c      	movi.n	a2, 3
    7820:	130c      	movi.n	a3, 1
    7822:	b91481        	l32r	a8, 0xffff5c74
    7825:	050c      	movi.n	a5, 0
    7827:	271882        	l16ui	a8, a8, 78
    782a:	b92071        	l32r	a7, 0xffff5cac
    782d:	048780        	extui	a8, a8, 7, 1
    7830:	1be816        	beqz	a8, 0x79f2
    7833:	056d      	mov.n	a6, a5
    7835:	0d0c      	movi.n	a13, 0
    7837:	0b0c      	movi.n	a11, 0
    7839:	eeda      	add.n	a14, a14, a13
    783b:	0a0c      	movi.n	a10, 0
    783d:	480c      	movi.n	a8, 4
    783f:	20c1f2        	addi	a15, a1, 32
    7842:	017d      	mov.n	a7, a1
    7844:	807d70        	add	a7, a13, a7
    7847:	80fdf0        	add	a15, a13, a15
    784a:	004f52        	s8i	a5, a15, 0
    784d:	33a876        	excw
    7850:	000e82        	l8ui	a8, a14, 0
    7853:	401a00        	ssl	a10
    7856:	a1c200        	sll	a12, a2
    7859:	108c80        	and	a8, a12, a8
    785c:	349c87        	bne	a12, a8, 0x7894
    785f:	000782        	l8ui	a8, a7, 0
    7862:	401a00        	ssl	a10
    7865:	a19300        	sll	a9, a3
    7868:	029d47        	bne	a13, a4, 0x786e
    786b:	046a26        	beqi	a10, 6, 0x7873
    786e:	662b      	addi.n	a6, a6, 2
    7870:	746060        	extui	a6, a6, 0, 8
    7873:	2088c0        	or	a8, a8, a12
    7876:	004782        	s8i	a8, a7, 0
    7879:	aa2b      	addi.n	a10, a10, 2
    787b:	20bb90        	or	a11, a11, a9
    787e:	004fb2        	s8i	a11, a15, 0
    7881:	74a0a0        	extui	a10, a10, 0, 8
    7884:	dd1b      	addi.n	a13, a13, 1
    7886:	74d0d0        	extui	a13, a13, 0, 8
    7889:	aa9d66        	bnei	a13, 10, 0x7837
    788c:	3e1c      	movi.n	a14, 19
    788e:	1a3e67        	bltu	a14, a6, 0x78ac
    7891:	000106        	j	0x7899
    7894:	0c9d      	mov.n	a9, a12
    7896:	fff7c6        	j	0x7879
    7899:	01ad      	mov.n	a10, a1
    789b:	fb7c      	movi.n	a11, -1
    789d:	ac0c      	movi.n	a12, 10
    789f:	05eda5        	excw
    78a2:	20c1a2        	addi	a10, a1, 32
    78a5:	5b5c      	movi.n	a11, 85
    78a7:	ac0c      	movi.n	a12, 10
    78a9:	05ece5        	excw
    78ac:	3ec1a2        	addi	a10, a1, 62
    78af:	b9f971        	l32r	a7, 0xffff6094
    78b2:	ac0c      	movi.n	a12, 10
    78b4:	07bd      	mov.n	a11, a7
    78b6:	05da25        	excw
    78b9:	b9e351        	l32r	a5, 0xffff6048
    78bc:	b92031        	l32r	a3, 0xffff5d3c
    78bf:	10c1a2        	addi	a10, a1, 16
    78c2:	b9fa41        	l32r	a4, 0xffff60ac
    78c5:	ac0c      	movi.n	a12, 10
    78c7:	04bd      	mov.n	a11, a4
    78c9:	05d8e5        	excw
    78cc:	04ad      	mov.n	a10, a4
    78ce:	de2582        	l32i	a8, a5, 0x378
    78d1:	01bd      	mov.n	a11, a1
    78d3:	0008e0        	excw
    78d6:	20c1b2        	addi	a11, a1, 32
    78d9:	0a2d      	mov.n	a2, a10
    78db:	df2582        	l32i	a8, a5, 0x37c
    78de:	07ad      	mov.n	a10, a7
    78e0:	0008e0        	excw
    78e3:	5a9c      	beqz.n	a10, 0x78fc
    78e5:	07ad      	mov.n	a10, a7
    78e7:	20c1b2        	addi	a11, a1, 32
    78ea:	ac0c      	movi.n	a12, 10
    78ec:	05d6a5        	excw
    78ef:	b9fba1        	l32r	a10, 0xffff60dc
    78f2:	462392        	l32i	a9, a3, 0x118
    78f5:	4b0c      	movi.n	a11, 4
    78f7:	2099b0        	or	a9, a9, a11
    78fa:	6a99      	s32i.n	a9, a10, 24
    78fc:	04ad      	mov.n	a10, a4
    78fe:	01bd      	mov.n	a11, a1
    7900:	ac0c      	movi.n	a12, 10
    7902:	05d565        	excw
    7905:	236122        	s32i	a2, a1, 140
    7908:	9203c2        	l8ui	a12, a3, 146
    790b:	b9fcd1        	l32r	a13, 0xffff60fc
    790e:	64c0c0        	extui	a12, a12, 0, 7
    7911:	124dc2        	s8i	a12, a13, 18
    7914:	0bd216        	beqz	a2, 0x79d5
    7917:	0a0c      	movi.n	a10, 0
    7919:	ffa062        	movi	a6, 255
    791c:	b9f1b1        	l32r	a11, 0xffff60e0
    791f:	b9ef31        	l32r	a3, 0xffff60dc
    7922:	bca0d2        	movi	a13, 188
    7925:	c1dad0        	mul16u	a13, a10, a13
    7928:	d3da      	add.n	a13, a3, a13
    792a:	800dd2        	l8ui	a13, a13, 128
    792d:	0c1d67        	beq	a13, a6, 0x793d
    7930:	a0eab0        	addx4	a14, a10, a11
    7933:	0ee8      	l32i.n	a14, a14, 0
    7935:	046e07        	bbci	a14, 0, 0x793d
    7938:	1a0c      	movi.n	a10, 1
    793a:	000246        	j	0x7947
    793d:	aa1b      	addi.n	a10, a10, 1
    793f:	74a0a0        	extui	a10, a10, 0, 8
    7942:	dc7ab6        	bltui	a10, 7, 0x7922
    7945:	0a0c      	movi.n	a10, 0
    7947:	b910c1        	l32r	a12, 0xffff5d88
    794a:	b969d1        	l32r	a13, 0xffff5ef0
    794d:	1ce8      	l32i.n	a14, a12, 4
    794f:	02dcc2        	addmi	a12, a12, 0x200
    7952:	802cc2        	l32i	a12, a12, 0x200
    7955:	ee4b      	addi.n	a14, a14, 4
    7957:	10eed0        	and	a14, a14, a13
    795a:	c0cce0        	sub	a12, a12, a14
    795d:	10bcd0        	and	a11, a12, a13
    7960:	050cd7        	bnone	a12, a13, 0x7969
    7963:	b97bd1        	l32r	a13, 0xffff5f50
    7966:	04bdb7        	bgeu	a13, a11, 0x796e
    7969:	190c      	movi.n	a9, 1
    796b:	000046        	j	0x7970
    796e:	090c      	movi.n	a9, 0
    7970:	066916        	beqz	a9, 0x79da
    7973:	236122        	s32i	a2, a1, 140
    7976:	060a56        	bnez	a10, 0x79da
    7979:	b9fe41        	l32r	a4, 0xffff6174
    797c:	020c      	movi.n	a2, 0
    797e:	b9ff71        	l32r	a7, 0xffff617c
    7981:	b9fd81        	l32r	a8, 0xffff6178
    7984:	146182        	s32i	a8, a1, 80
    7987:	8003a2        	l8ui	a10, a3, 128
    798a:	3d1a67        	beq	a10, a6, 0x79cb
    798d:	c2cc      	bnez.n	a2, 0x799d
    798f:	e12582        	l32i	a8, a5, 0x384
    7992:	0008e0        	excw
    7995:	ba0091        	l32r	a9, 0xffff6198
    7998:	120c      	movi.n	a2, 1
    799a:	6169a2        	s32i	a10, a9, 0x184
    799d:	d92582        	l32i	a8, a5, 0x364
    79a0:	ba2c      	movi.n	a10, 43
    79a2:	0008e0        	excw
    79a5:	221a66        	bnei	a10, 1, 0x79cb
    79a8:	3a2c      	movi.n	a10, 35
    79aa:	da2582        	l32i	a8, a5, 0x368
    79ad:	04bd      	mov.n	a11, a4
    79af:	0008e0        	excw
    79b2:	151a66        	bnei	a10, 1, 0x79cb
    79b5:	21a4a2        	movi	a10, 0x421
    79b8:	1421b2        	l32i	a11, a1, 80
    79bb:	2c0c      	movi.n	a12, 2
    79bd:	b9f581        	l32r	a8, 0xffff6194
    79c0:	8003d2        	l8ui	a13, a3, 128
    79c3:	302882        	l32i	a8, a8, 192
    79c6:	3e0c      	movi.n	a14, 3
    79c8:	0008e0        	excw
    79cb:	bca092        	movi	a9, 188
    79ce:	449a      	add.n	a4, a4, a9
    79d0:	339a      	add.n	a3, a3, a9
    79d2:	b19377        	bne	a3, a7, 0x7987
    79d5:	232122        	l32i	a2, a1, 140
    79d8:	f01d      	excw
    79da:	07ad      	mov.n	a10, a7
    79dc:	3ec1b2        	addi	a11, a1, 62
    79df:	ac0c      	movi.n	a12, 10
    79e1:	05c765        	excw
    79e4:	04ad      	mov.n	a10, a4
    79e6:	10c1b2        	addi	a11, a1, 16
    79e9:	ac0c      	movi.n	a12, 10
    79eb:	05c6e5        	excw
    79ee:	020c      	movi.n	a2, 0
    79f0:	f01d      	excw
    79f2:	b9e381        	l32r	a8, 0xffff6180
    79f5:	2ac1a2        	addi	a10, a1, 42
    79f8:	e02882        	l32i	a8, a8, 0x380
    79fb:	03bd      	mov.n	a11, a3
    79fd:	0008e0        	excw
    7a00:	34c1a2        	addi	a10, a1, 52
    7a03:	5b5c      	movi.n	a11, 85
    7a05:	ac0c      	movi.n	a12, 10
    7a07:	05d725        	excw
    7a0a:	462792        	l32i	a9, a7, 0x118
    7a0d:	08e917        	bbsi	a9, 1, 0x7a19
    7a10:	ba01a1        	l32r	a10, 0xffff6214
    7a13:	1961a2        	s32i	a10, a1, 100
    7a16:	000146        	j	0x7a1f
    7a19:	34c1b2        	addi	a11, a1, 52
    7a1c:	1961b2        	s32i	a11, a1, 100
    7a1f:	060c      	movi.n	a6, 0
    7a21:	20c1f2        	addi	a15, a1, 32
    7a24:	2ac172        	addi	a7, a1, 42
    7a27:	ba02c1        	l32r	a12, 0xffff6230
    7a2a:	ad0c      	movi.n	a13, 10
    7a2c:	01ed      	mov.n	a14, a1
    7a2e:	2ac182        	addi	a8, a1, 42
    7a31:	156182        	s32i	a8, a1, 84
    7a34:	1f61e2        	s32i	a14, a1, 124
    7a37:	1a61d2        	s32i	a13, a1, 104
    7a3a:	1d61c2        	s32i	a12, a1, 116
    7a3d:	1c6172        	s32i	a7, a1, 112
    7a40:	070c      	movi.n	a7, 0
    7a42:	004f52        	s8i	a5, a15, 0
    7a45:	0e0c      	movi.n	a14, 0
    7a47:	0a0c      	movi.n	a10, 0
    7a49:	490c      	movi.n	a9, 4
    7a4b:	1c21d2        	l32i	a13, a1, 112
    7a4e:	1d21b2        	l32i	a11, a1, 116
    7a51:	1921c2        	l32i	a12, a1, 100
    7a54:	800bb2        	l8ui	a11, a11, 128
    7a57:	c6ca      	add.n	a12, a6, a12
    7a59:	000dd2        	l8ui	a13, a13, 0
    7a5c:	2061d2        	s32i	a13, a1, 128
    7a5f:	1b61c2        	s32i	a12, a1, 108
    7a62:	1e61b2        	s32i	a11, a1, 120
    7a65:	64a976        	excw
    7a68:	0c0c      	movi.n	a12, 0
    7a6a:	0d0c      	movi.n	a13, 0
    7a6c:	1e2182        	l32i	a8, a1, 120
    7a6f:	401a00        	ssl	a10
    7a72:	a1b200        	sll	a11, a2
    7a75:	108b80        	and	a8, a11, a8
    7a78:	109b87        	bne	a11, a8, 0x7a8c
    7a7b:	1b2192        	l32i	a9, a1, 108
    7a7e:	000992        	l8ui	a9, a9, 0
    7a81:	a18300        	sll	a8, a3
    7a84:	109b90        	and	a9, a11, a9
    7a87:	019987        	bne	a9, a8, 0x7a8c
    7a8a:	1d0c      	movi.n	a13, 1
    7a8c:	5d9c      	beqz.n	a13, 0x7aa5
    7a8e:	401a00        	ssl	a10
    7a91:	2021d2        	l32i	a13, a1, 128
    7a94:	a18300        	sll	a8, a3
    7a97:	10dbd0        	and	a13, a11, a13
    7a9a:	051d87        	beq	a13, a8, 0x7aa3
    7a9d:	202182        	l32i	a8, a1, 128
    7aa0:	018b87        	bany	a11, a8, 0x7aa5
    7aa3:	1c0c      	movi.n	a12, 1
    7aa5:	056c16        	beqz	a12, 0x7aff
    7aa8:	1f21c2        	l32i	a12, a1, 124
    7aab:	401a00        	ssl	a10
    7aae:	000c82        	l8ui	a8, a12, 0
    7ab1:	a19300        	sll	a9, a3
    7ab4:	2088b0        	or	a8, a8, a11
    7ab7:	029647        	bne	a6, a4, 0x7abd
    7aba:	046a26        	beqi	a10, 6, 0x7ac2
    7abd:	772b      	addi.n	a7, a7, 2
    7abf:	747070        	extui	a7, a7, 0, 8
    7ac2:	004c82        	s8i	a8, a12, 0
    7ac5:	aa2b      	addi.n	a10, a10, 2
    7ac7:	20ee90        	or	a14, a14, a9
    7aca:	004fe2        	s8i	a14, a15, 0
    7acd:	661b      	addi.n	a6, a6, 1
    7acf:	ff1b      	addi.n	a15, a15, 1
    7ad1:	1f21c2        	l32i	a12, a1, 124
    7ad4:	1d21b2        	l32i	a11, a1, 116
    7ad7:	1a2192        	l32i	a9, a1, 104
    7ada:	1c21a2        	l32i	a10, a1, 112
    7add:	990b      	addi.n	a9, a9, -1
    7adf:	aa1b      	addi.n	a10, a10, 1
    7ae1:	bb1b      	addi.n	a11, a11, 1
    7ae3:	cc1b      	addi.n	a12, a12, 1
    7ae5:	1f61c2        	s32i	a12, a1, 124
    7ae8:	1d61b2        	s32i	a11, a1, 116
    7aeb:	1c61a2        	s32i	a10, a1, 112
    7aee:	1a6192        	s32i	a9, a1, 104
    7af1:	f4d956        	bnez	a9, 0x7a42
    7af4:	3d1c      	movi.n	a13, 19
    7af6:	02bd77        	bgeu	a13, a7, 0x7afc
    7af9:	ff6bc6        	j	0x78ac
    7afc:	000106        	j	0x7b04
    7aff:	0b9d      	mov.n	a9, a11
    7b01:	fff006        	j	0x7ac5
    7b04:	060c      	movi.n	a6, 0
    7b06:	01ad      	mov.n	a10, a1
    7b08:	0b0c      	movi.n	a11, 0
    7b0a:	ac0c      	movi.n	a12, 10
    7b0c:	05c6a5        	excw
    7b0f:	0d0c      	movi.n	a13, 0
    7b11:	20c1c2        	addi	a12, a1, 32
    7b14:	017d      	mov.n	a7, a1
    7b16:	ba02e1        	l32r	a14, 0xffff6320
    7b19:	1861e2        	s32i	a14, a1, 96
    7b1c:	004c52        	s8i	a5, a12, 0
    7b1f:	0f0c      	movi.n	a15, 0
    7b21:	0a0c      	movi.n	a10, 0
    7b23:	480c      	movi.n	a8, 4
    7b25:	182192        	l32i	a9, a1, 96
    7b28:	1921b2        	l32i	a11, a1, 100
    7b2b:	800992        	l8ui	a9, a9, 128
    7b2e:	bdba      	add.n	a11, a13, a11
    7b30:	1361b2        	s32i	a11, a1, 76
    7b33:	166192        	s32i	a9, a1, 88
    7b36:	4ba876        	excw
    7b39:	0e0c      	movi.n	a14, 0
    7b3b:	162182        	l32i	a8, a1, 88
    7b3e:	401a00        	ssl	a10
    7b41:	a1b200        	sll	a11, a2
    7b44:	1761b2        	s32i	a11, a1, 92
    7b47:	108b80        	and	a8, a11, a8
    7b4a:	109b87        	bne	a11, a8, 0x7b5e
    7b4d:	132192        	l32i	a9, a1, 76
    7b50:	000992        	l8ui	a9, a9, 0
    7b53:	a18300        	sll	a8, a3
    7b56:	109b90        	and	a9, a11, a9
    7b59:	019987        	bne	a9, a8, 0x7b5e
    7b5c:	1e0c      	movi.n	a14, 1
    7b5e:	be9c      	beqz.n	a14, 0x7b7d
    7b60:	172192        	l32i	a9, a1, 92
    7b63:	000782        	l8ui	a8, a7, 0
    7b66:	401a00        	ssl	a10
    7b69:	a1b300        	sll	a11, a3
    7b6c:	208890        	or	a8, a8, a9
    7b6f:	029d47        	bne	a13, a4, 0x7b75
    7b72:	046a26        	beqi	a10, 6, 0x7b7a
    7b75:	662b      	addi.n	a6, a6, 2
    7b77:	746060        	extui	a6, a6, 0, 8
    7b7a:	004782        	s8i	a8, a7, 0
    7b7d:	aa2b      	addi.n	a10, a10, 2
    7b7f:	20ffb0        	or	a15, a15, a11
    7b82:	004cf2        	s8i	a15, a12, 0
    7b85:	dd1b      	addi.n	a13, a13, 1
    7b87:	771b      	addi.n	a7, a7, 1
    7b89:	1521a2        	l32i	a10, a1, 84
    7b8c:	1821b2        	l32i	a11, a1, 96
    7b8f:	cc1b      	addi.n	a12, a12, 1
    7b91:	bb1b      	addi.n	a11, a11, 1
    7b93:	1861b2        	s32i	a11, a1, 96
    7b96:	829ca7        	bne	a12, a10, 0x7b1c
    7b99:	0b0c      	movi.n	a11, 0
    7b9b:	0d0c      	movi.n	a13, 0
    7b9d:	3e1c      	movi.n	a14, 19
    7b9f:	02be67        	bgeu	a14, a6, 0x7ba5
    7ba2:	ff4186        	j	0x78ac
    7ba5:	226162        	s32i	a6, a1, 136
    7ba8:	3f1c      	movi.n	a15, 19
    7baa:	02bfd7        	bgeu	a15, a13, 0x7bb0
    7bad:	005246        	j	0x7cfa
    7bb0:	0c0c      	movi.n	a12, 0
    7bb2:	dd1b      	addi.n	a13, a13, 1
    7bb4:	74d0d0        	extui	a13, a13, 0, 8
    7bb7:	0a0c      	movi.n	a10, 0
    7bb9:	11fcd0        	slli	a15, a12, 3
    7bbc:	20c172        	addi	a7, a1, 32
    7bbf:	7c7a      	add.n	a7, a12, a7
    7bc1:	000782        	l8ui	a8, a7, 0
    7bc4:	401a00        	ssl	a10
    7bc7:	a19300        	sll	a9, a3
    7bca:	a1e200        	sll	a14, a2
    7bcd:	1088e0        	and	a8, a8, a14
    7bd0:	0a9897        	bne	a8, a9, 0x7bde
    7bd3:	10ab56        	bnez	a11, 0x7ce1
    7bd6:	bfaa      	add.n	a11, a15, a10
    7bd8:	74b0b0        	extui	a11, a11, 0, 8
    7bdb:	004086        	j	0x7ce1
    7bde:	0ffb16        	beqz	a11, 0x7ce1
    7be1:	9faa      	add.n	a9, a15, a10
    7be3:	fec992        	addi	a9, a9, -2
    7be6:	74e090        	extui	a14, a9, 0, 8
    7be9:	c08eb0        	sub	a8, a14, a11
    7bec:	0298e6        	bgei	a8, 10, 0x7bf2
    7bef:	003b06        	j	0x7cdf
    7bf2:	126192        	s32i	a9, a1, 72
    7bf5:	216172        	s32i	a7, a1, 132
    7bf8:	742bb6        	bltui	a11, 2, 0x7c70
    7bfb:	7493b0        	extui	a9, a11, 3, 8
    7bfe:	24b0b0        	extui	a11, a11, 0, 3
    7c01:	bbec      	bnez.n	a11, 0x7c30
    7c03:	246122        	s32i	a2, a1, 144
    7c06:	a0c122        	addi	a2, a1, -96
    7c09:	292a      	add.n	a2, a9, a2
    7c0b:	7f02b2        	l8ui	a11, a2, 127
    7c0e:	084c      	movi.n	a8, 64
    7c10:	54b0b0        	extui	a11, a11, 0, 6
    7c13:	20bb80        	or	a11, a11, a8
    7c16:	7f42b2        	s8i	a11, a2, 127
    7c19:	80c182        	addi	a8, a1, -128
    7c1c:	898a      	add.n	a8, a9, a8
    7c1e:	7f0822        	l8ui	a2, a8, 127
    7c21:	c0a0b2        	movi	a11, 192
    7c24:	2022b0        	or	a2, a2, a11
    7c27:	7f4822        	s8i	a2, a8, 127
    7c2a:	242122        	l32i	a2, a1, 144
    7c2d:	000d06        	j	0x7c65
    7c30:	20c182        	addi	a8, a1, 32
    7c33:	fecb32        	addi	a3, a11, -2
    7c36:	401300        	ssl	a3
    7c39:	898a      	add.n	a8, a9, a8
    7c3b:	a1b200        	sll	a11, a2
    7c3e:	f27c      	movi.n	a2, -1
    7c40:	000832        	l8ui	a3, a8, 0
    7c43:	302b20        	xor	a2, a11, a2
    7c46:	103320        	and	a3, a3, a2
    7c49:	120c      	movi.n	a2, 1
    7c4b:	a12200        	sll	a2, a2
    7c4e:	203320        	or	a3, a3, a2
    7c51:	012d      	mov.n	a2, a1
    7c53:	004832        	s8i	a3, a8, 0
    7c56:	292a      	add.n	a2, a9, a2
    7c58:	000232        	l8ui	a3, a2, 0
    7c5b:	20bb30        	or	a11, a11, a3
    7c5e:	130c      	movi.n	a3, 1
    7c60:	0042b2        	s8i	a11, a2, 0
    7c63:	320c      	movi.n	a2, 3
    7c65:	029c47        	bne	a12, a4, 0x7c6b
    7c68:	046a26        	beqi	a10, 6, 0x7c70
    7c6b:	662b      	addi.n	a6, a6, 2
    7c6d:	746060        	extui	a6, a6, 0, 8
    7c70:	d84c      	movi.n	a8, 77
    7c72:	6138e7        	bltu	a8, a14, 0x7cd7
    7c75:	790c      	movi.n	a9, 7
    7c77:	20c172        	addi	a7, a1, 32
    7c7a:	74b3e0        	extui	a11, a14, 3, 8
    7c7d:	018d      	mov.n	a8, a1
    7c7f:	7b7a      	add.n	a7, a11, a7
    7c81:	bb8a      	add.n	a11, a11, a8
    7c83:	2d09e7        	bnone	a9, a14, 0x7cb4
    7c86:	122182        	l32i	a8, a1, 72
    7c89:	fe7c      	movi.n	a14, -1
    7c8b:	248080        	extui	a8, a8, 0, 3
    7c8e:	882b      	addi.n	a8, a8, 2
    7c90:	401800        	ssl	a8
    7c93:	a19200        	sll	a9, a2
    7c96:	000782        	l8ui	a8, a7, 0
    7c99:	30e9e0        	xor	a14, a9, a14
    7c9c:	1088e0        	and	a8, a8, a14
    7c9f:	a1e300        	sll	a14, a3
    7ca2:	2088e0        	or	a8, a8, a14
    7ca5:	000be2        	l8ui	a14, a11, 0
    7ca8:	004782        	s8i	a8, a7, 0
    7cab:	2099e0        	or	a9, a9, a14
    7cae:	004b92        	s8i	a9, a11, 0
    7cb1:	000506        	j	0x7cc9
    7cb4:	010792        	l8ui	a9, a7, 1
    7cb7:	010be2        	l8ui	a14, a11, 1
    7cba:	149090        	extui	a9, a9, 0, 2
    7cbd:	20ee20        	or	a14, a14, a2
    7cc0:	014be2        	s8i	a14, a11, 1
    7cc3:	209930        	or	a9, a9, a3
    7cc6:	014792        	s8i	a9, a7, 1
    7cc9:	212172        	l32i	a7, a1, 132
    7ccc:	029c47        	bne	a12, a4, 0x7cd2
    7ccf:	046a26        	beqi	a10, 6, 0x7cd7
    7cd2:	662b      	addi.n	a6, a6, 2
    7cd4:	746060        	extui	a6, a6, 0, 8
    7cd7:	381c      	movi.n	a8, 19
    7cd9:	02b867        	bgeu	a8, a6, 0x7cdf
    7cdc:	fef306        	j	0x78ac
    7cdf:	0b0c      	movi.n	a11, 0
    7ce1:	aa2b      	addi.n	a10, a10, 2
    7ce3:	74a0a0        	extui	a10, a10, 0, 8
    7ce6:	027af6        	bgeui	a10, 7, 0x7cec
    7ce9:	ffb506        	j	0x7bc1
    7cec:	cc1b      	addi.n	a12, a12, 1
    7cee:	74c0c0        	extui	a12, a12, 0, 8
    7cf1:	029cf6        	bgeui	a12, 10, 0x7cf7
    7cf4:	ffafc6        	j	0x7bb7
    7cf7:	ffa886        	j	0x7b9d
    7cfa:	3d1c      	movi.n	a13, 19
    7cfc:	02bd67        	bgeu	a13, a6, 0x7d02
    7cff:	feea46        	j	0x78ac
    7d02:	01ad      	mov.n	a10, a1
    7d04:	0b0c      	movi.n	a11, 0
    7d06:	ac0c      	movi.n	a12, 10
    7d08:	05a6e5        	excw
    7d0b:	ba02d1        	l32r	a13, 0xffff6514
    7d0e:	20c1b2        	addi	a11, a1, 32
    7d11:	01cd      	mov.n	a12, a1
    7d13:	004b52        	s8i	a5, a11, 0
    7d16:	0e0c      	movi.n	a14, 0
    7d18:	00a0a2        	movi	a10, 0
    7d1b:	800d42        	l8ui	a4, a13, 128
    7d1e:	04a0f2        	movi	a15, 4
    7d21:	1faf76        	excw
    7d24:	401a00        	ssl	a10
    7d27:	a1f200        	sll	a15, a2
    7d2a:	108f40        	and	a8, a15, a4
    7d2d:	229f87        	bne	a15, a8, 0x7d53
    7d30:	000c82        	l8ui	a8, a12, 0
    7d33:	a19300        	sll	a9, a3
    7d36:	2088f0        	or	a8, a8, a15
    7d39:	004c82        	s8i	a8, a12, 0
    7d3c:	aa2b      	addi.n	a10, a10, 2
    7d3e:	20ee90        	or	a14, a14, a9
    7d41:	004be2        	s8i	a14, a11, 0
    7d44:	cc1b      	addi.n	a12, a12, 1
    7d46:	dd1b      	addi.n	a13, a13, 1
    7d48:	152192        	l32i	a9, a1, 84
    7d4b:	bb1b      	addi.n	a11, a11, 1
    7d4d:	c29b97        	bne	a11, a9, 0x7d13
    7d50:	fed606        	j	0x78ac
    7d53:	0f9d      	mov.n	a9, a15
    7d55:	fff8c6        	j	0x7d3c
    7d58:	006136        	excw
    7d5b:	b9e381        	l32r	a8, 0xffff64e8
    7d5e:	05ad      	mov.n	a10, a5
    7d60:	ea2882        	l32i	a8, a8, 0x3a8
    7d63:	01bd      	mov.n	a11, a1
    7d65:	0008e0        	excw
    7d68:	226417        	bbci	a4, 1, 0x7d8e
    7d6b:	b97791        	l32r	a9, 0xffff6348
    7d6e:	98a1a2        	movi	a10, 0x198
    7d71:	c1a5a0        	mul16u	a10, a5, a10
    7d74:	99aa      	add.n	a9, a9, a10
    7d76:	800992        	l8ui	a9, a9, 128
    7d79:	111966        	bnei	a9, 1, 0x7d8e
    7d7c:	b9f1d1        	l32r	a13, 0xffff6540
    7d7f:	0001c2        	l8ui	a12, a1, 0
    7d82:	a0ccd0        	addx4	a12, a12, a13
    7d85:	0cb8      	l32i.n	a11, a12, 0
    7d87:	1d0c      	movi.n	a13, 1
    7d89:	20bbd0        	or	a11, a11, a13
    7d8c:	0cb9      	s32i.n	a11, a12, 0
    7d8e:	02ad      	mov.n	a10, a2
    7d90:	03bd      	mov.n	a11, a3
    7d92:	04cd      	mov.n	a12, a4
    7d94:	b9e281        	l32r	a8, 0xffff651c
    7d97:	05dd      	mov.n	a13, a5
    7d99:	8888      	l32i.n	a8, a8, 32
    7d9b:	06ed      	mov.n	a14, a6
    7d9d:	0008e0        	excw
    7da0:	0a2d      	mov.n	a2, a10
    7da2:	f01d      	excw
    7da4:	004136        	excw
    7da7:	b93381        	l32r	a8, 0xffff6274
    7daa:	872882        	l32i	a8, a8, 0x21c
    7dad:	fa7c      	movi.n	a10, -1
    7daf:	0008e0        	excw
    7db2:	0b0c      	movi.n	a11, 0
    7db4:	ba03c1        	l32r	a12, 0xffff65c0
    7db7:	0020c0        	memw
    7dba:	886cb2        	s32i	a11, a12, 0x220
    7dbd:	0020c0        	memw
    7dc0:	8b6cb2        	s32i	a11, a12, 0x22c
    7dc3:	03e620        	rsr.ps	a2
    7dc6:	2a0c      	movi.n	a10, 2
    7dc8:	349020        	extui	a9, a2, 0, 4
    7dcb:	022a97        	blt	a10, a9, 0x7dd1
    7dce:	006220        	rsil	a2, 2
    7dd1:	ba0481        	l32r	a8, 0xffff65e4
    7dd4:	a888      	l32i.n	a8, a8, 40
    7dd6:	0008e0        	excw
    7dd9:	13e620        	wsr.ps	a2
    7ddc:	002010        	rsync
    7ddf:	f01d      	excw
    7de1:	000000        	ill
    7de4:	004136        	excw
    7de7:	b9e4e1        	l32r	a14, 0xffff6578
    7dea:	e72ed2        	l32i	a13, a14, 0x39c
    7ded:	010d82        	l8ui	a8, a13, 1
    7df0:	495866        	bnei	a8, 5, 0x7e3d
    7df3:	3a0c      	movi.n	a10, 3
    7df5:	b91c81        	l32r	a8, 0xffff6268
    7df8:	ba0521        	l32r	a2, 0xffff660c
    7dfb:	090c      	movi.n	a9, 0
    7dfd:	eb6e92        	s32i	a9, a14, 0x3ac
    7e00:	010dc2        	l8ui	a12, a13, 1
    7e03:	3402b2        	l8ui	a11, a2, 52
    7e06:	132882        	l32i	a8, a8, 76
    7e09:	23bb00        	excw
    7e0c:	0008e0        	excw
    7e0f:	b9f531        	l32r	a3, 0xffff65e4
    7e12:	7a2382        	l32i	a8, a3, 0x1e8
    7e15:	0008e0        	excw
    7e18:	340292        	l8ui	a9, a2, 52
    7e1b:	1a0c      	movi.n	a10, 1
    7e1d:	239900        	excw
    7e20:	0179e6        	bgei	a9, 7, 0x7e25
    7e23:	0a0c      	movi.n	a10, 0
    7e25:	7a2382        	l32i	a8, a3, 0x1e8
    7e28:	3642a2        	s8i	a10, a2, 54
    7e2b:	0008e0        	excw
    7e2e:	3202a2        	l8ui	a10, a2, 50
    7e31:	6b1c      	movi.n	a11, 22
    7e33:	9d2382        	l32i	a8, a3, 0x274
    7e36:	1c0c      	movi.n	a12, 1
    7e38:	0008e0        	excw
    7e3b:	f01d      	excw
    7e3d:	b9e281        	l32r	a8, 0xffff65c8
    7e40:	9888      	l32i.n	a8, a8, 36
    7e42:	02ad      	mov.n	a10, a2
    7e44:	0008e0        	excw
    7e47:	f01d      	excw
    7e49:	000000        	ill
    7e4c:	004136        	excw
    7e4f:	b9e4e1        	l32r	a14, 0xffff65e0
    7e52:	e72ed2        	l32i	a13, a14, 0x39c
    7e55:	010d82        	l8ui	a8, a13, 1
    7e58:	495866        	bnei	a8, 5, 0x7ea5
    7e5b:	3a0c      	movi.n	a10, 3
    7e5d:	b91c81        	l32r	a8, 0xffff62d0
    7e60:	ba0521        	l32r	a2, 0xffff6674
    7e63:	090c      	movi.n	a9, 0
    7e65:	eb6e92        	s32i	a9, a14, 0x3ac
    7e68:	010dc2        	l8ui	a12, a13, 1
    7e6b:	3402b2        	l8ui	a11, a2, 52
    7e6e:	132882        	l32i	a8, a8, 76
    7e71:	23bb00        	excw
    7e74:	0008e0        	excw
    7e77:	b9f531        	l32r	a3, 0xffff664c
    7e7a:	7a2382        	l32i	a8, a3, 0x1e8
    7e7d:	0008e0        	excw
    7e80:	340292        	l8ui	a9, a2, 52
    7e83:	1a0c      	movi.n	a10, 1
    7e85:	239900        	excw
    7e88:	0179e6        	bgei	a9, 7, 0x7e8d
    7e8b:	0a0c      	movi.n	a10, 0
    7e8d:	7a2382        	l32i	a8, a3, 0x1e8
    7e90:	3642a2        	s8i	a10, a2, 54
    7e93:	0008e0        	excw
    7e96:	3202a2        	l8ui	a10, a2, 50
    7e99:	6b1c      	movi.n	a11, 22
    7e9b:	9d2382        	l32i	a8, a3, 0x274
    7e9e:	1c0c      	movi.n	a12, 1
    7ea0:	0008e0        	excw
    7ea3:	f01d      	excw
    7ea5:	b9e281        	l32r	a8, 0xffff6630
    7ea8:	02ad      	mov.n	a10, a2
    7eaa:	a888      	l32i.n	a8, a8, 40
    7eac:	03bd      	mov.n	a11, a3
    7eae:	0008e0        	excw
    7eb1:	f01d      	excw
    7eb3:	613600        	excw
    7eb6:	065100        	excw
    7eb9:	31ba      	add.n	a3, a1, a11
    7ebb:	b91c      	movi.n	a9, 27
    7ebd:	01d5c2        	addmi	a12, a5, 0x100
    7ec0:	02c2b6        	bltui	a2, 32, 0x7ec6
    7ec3:	002b06        	j	0x7f73
    7ec6:	06d372        	addmi	a7, a3, 0x600
    7ec9:	e81c      	movi.n	a8, 30
    7ecb:	0db827        	bgeu	a8, a2, 0x7edc
    7ece:	7c2782        	l32i	a8, a7, 0x1f0
    7ed1:	02ad      	mov.n	a10, a2
    7ed3:	0008e0        	excw
    7ed6:	ba07c1        	l32r	a12, 0xffff66f4
    7ed9:	096a16        	beqz	a10, 0x7f73
    7edc:	b9e441        	l32r	a4, 0xffff666c
    7edf:	ce2c      	movi.n	a14, 44
    7ee1:	e724d2        	l32i	a13, a4, 0x39c
    7ee4:	ba0561        	l32r	a6, 0xffff66f8
    7ee7:	040d92        	l8ui	a9, a13, 4
    7eea:	3206b2        	l8ui	a11, a6, 50
    7eed:	0d9927        	bne	a9, a2, 0x7efe
    7ef0:	c1bbe0        	mul16u	a11, a11, a14
    7ef3:	fdc4a2        	addi	a10, a4, -3
    7ef6:	aaba      	add.n	a10, a10, a11
    7ef8:	800aa2        	l8ui	a10, a10, 128
    7efb:	074a16        	beqz	a10, 0x7f73
    7efe:	010d92        	l8ui	a9, a13, 1
    7f01:	07c916        	beqz	a9, 0x7f81
    7f04:	791926        	beqi	a9, 1, 0x7f81
    7f07:	762926        	beqi	a9, 2, 0x7f81
    7f0a:	733926        	beqi	a9, 3, 0x7f81
    7f0d:	704926        	beqi	a9, 4, 0x7f81
    7f10:	6d5966        	bnei	a9, 5, 0x7f81
    7f13:	190c      	movi.n	a9, 1
    7f15:	180c      	movi.n	a8, 1
    7f17:	081da2        	l16ui	a10, a13, 16
    7f1a:	0f0c      	movi.n	a15, 0
    7f1c:	04eac7        	bbsi	a10, 12, 0x7f24
    7f1f:	01ead7        	bbsi	a10, 13, 0x7f24
    7f22:	090c      	movi.n	a9, 0
    7f24:	83f890        	moveqz	a15, a8, a9
    7f27:	056f16        	beqz	a15, 0x7f81
    7f2a:	dc2382        	l32i	a8, a3, 0x370
    7f2d:	581cb2        	l16ui	a11, a12, 176
    7f30:	ba0891        	l32r	a9, 0xffff6750
    7f33:	020c      	movi.n	a2, 0
    7f35:	02ad      	mov.n	a10, a2
    7f37:	ad99      	s32i.n	a9, a13, 40
    7f39:	6b6522        	s32i	a2, a5, 0x1ac
    7f3c:	0008e0        	excw
    7f3f:	3606a2        	l8ui	a10, a6, 54
    7f42:	e924e2        	l32i	a14, a4, 0x3a4
    7f45:	ea24c2        	l32i	a12, a4, 0x3a8
    7f48:	b9e3f1        	l32r	a15, 0xffff66d4
    7f4b:	e724b2        	l32i	a11, a4, 0x39c
    7f4e:	f42ff2        	l32i	a15, a15, 0x3d0
    7f51:	0d0bd2        	l8ui	a13, a11, 13
    7f54:	0041d2        	s8i	a13, a1, 0
    7f57:	030cc2        	l8ui	a12, a12, 3
    7f5a:	0141c2        	s8i	a12, a1, 1
    7f5d:	081bb2        	l16ui	a11, a11, 16
    7f60:	000ee2        	l8ui	a14, a14, 0
    7f63:	1c6b27        	bbci	a11, 2, 0x7f83
    7f66:	11a4b2        	movi	a11, 0x411
    7f69:	2c0c      	movi.n	a12, 2
    7f6b:	01dd      	mov.n	a13, a1
    7f6d:	000fe0        	excw
    7f70:	000646        	j	0x7f8d
    7f73:	581cb2        	l16ui	a11, a12, 176
    7f76:	2a1c      	movi.n	a10, 18
    7f78:	dc2382        	l32i	a8, a3, 0x370
    7f7b:	6b65a2        	s32i	a10, a5, 0x1ac
    7f7e:	0008e0        	excw
    7f81:	f01d      	excw
    7f83:	2da4b2        	movi	a11, 0x42d
    7f86:	2c0c      	movi.n	a12, 2
    7f88:	01dd      	mov.n	a13, a1
    7f8a:	000fe0        	excw
    7f8d:	b91881        	l32r	a8, 0xffff63f0
    7f90:	1888      	l32i.n	a8, a8, 4
    7f92:	0008e0        	excw
    7f95:	390c      	movi.n	a9, 3
    7f97:	0f09a7        	bnone	a9, a10, 0x7faa
    7f9a:	1a0c      	movi.n	a10, 1
    7f9c:	ba0981        	l32r	a8, 0xffff67c0
    7f9f:	e724b2        	l32i	a11, a4, 0x39c
    7fa2:	2888      	l32i.n	a8, a8, 8
    7fa4:	040bb2        	l8ui	a11, a11, 4
    7fa7:	0008e0        	excw
    7faa:	5a0c      	movi.n	a10, 5
    7fac:	732782        	l32i	a8, a7, 0x1cc
    7faf:	b9eeb1        	l32r	a11, 0xffff6768
    7fb2:	0008e0        	excw
    7fb5:	6b6522        	s32i	a2, a5, 0x1ac
    7fb8:	f01d      	excw
    7fba:	360000        	excw
    7fbd:	ad0061        	l32r	a6, 0xffff33c0
    7fc0:	05dd02        	addmi	a0, a13, 0x500
    7fc3:	06ed      	mov.n	a14, a6
    7fc5:	07fd      	mov.n	a15, a7
    7fc7:	03bd      	mov.n	a11, a3
    7fc9:	04cd      	mov.n	a12, a4
    7fcb:	84cc      	bnez.n	a4, 0x7fd7
    7fcd:	ba0a91        	l32r	a9, 0xffff67f8
    7fd0:	180c      	movi.n	a8, 1
    7fd2:	a09390        	addx4	a9, a3, a9
    7fd5:	0989      	s32i.n	a8, a9, 0
    7fd7:	b9e281        	l32r	a8, 0xffff6760
    7fda:	c198      	l32i.n	a9, a1, 48
    7fdc:	0199      	s32i.n	a9, a1, 0
    7fde:	b888      	l32i.n	a8, a8, 44
    7fe0:	0008e0        	excw
    7fe3:	f01d      	excw
    7fe5:	000000        	ill
    7fe8:	004136        	excw
    7feb:	70a082        	movi	a8, 112
    7fee:	065d      	mov.n	a5, a6
    7ff0:	032d      	mov.n	a2, a3
    7ff2:	0b0c      	movi.n	a11, 0
    7ff4:	06b9      	s32i.n	a11, a6, 0
    7ff6:	b91c31        	l32r	a3, 0xffff6468
    7ff9:	88a062        	movi	a6, 136
    7ffc:	052847        	blt	a8, a4, 0x8005
    7fff:	6fa092        	movi	a9, 111
    8002:	0da497        	bge	a4, a9, 0x8013
    8005:	74a0a2        	movi	a10, 116
    8008:	2614a7        	beq	a4, a10, 0x8032
    800b:	124c      	movi.n	a2, 65
    800d:	1b4c      	movi.n	a11, 65
    800f:	05b9      	s32i.n	a11, a5, 0
    8011:	f01d      	excw
    8013:	d298      	l32i.n	a9, a2, 52
    8015:	0d6957        	bbci	a9, 5, 0x8026
    8018:	04ad      	mov.n	a10, a4
    801a:	d26a      	add.n	a13, a2, a6
    801c:	de2382        	l32i	a8, a3, 0x378
    801f:	6c0c      	movi.n	a12, 6
    8021:	0008e0        	excw
    8024:	d298      	l32i.n	a9, a2, 52
    8026:	dfafa2        	movi	a10, -33
    8029:	10a9a0        	and	a10, a9, a10
    802c:	d2a9      	s32i.n	a10, a2, 52
    802e:	0528      	l32i.n	a2, a5, 0
    8030:	f01d      	excw
    8032:	04bd      	mov.n	a11, a4
    8034:	dc2382        	l32i	a8, a3, 0x370
    8037:	0a0c      	movi.n	a10, 0
    8039:	0008e0        	excw
    803c:	02bd      	mov.n	a11, a2
    803e:	e02382        	l32i	a8, a3, 0x380
    8041:	a26a      	add.n	a10, a2, a6
    8043:	0008e0        	excw
    8046:	fff906        	j	0x802e
    8049:	000000        	ill
    804c:	008136        	excw
    804f:	b91c81        	l32r	a8, 0xffff64c0
    8052:	05ad      	mov.n	a10, a5
    8054:	c62882        	l32i	a8, a8, 0x318
    8057:	4149      	s32i.n	a4, a1, 16
    8059:	0008e0        	excw
    805c:	102142        	l32i	a4, a1, 64
    805f:	ba0aa1        	l32r	a10, 0xffff6888
    8062:	192c      	movi.n	a9, 33
    8064:	04b927        	bgeu	a9, a2, 0x806c
    8067:	fb2c      	movi.n	a11, 47
    8069:	0bbb27        	bgeu	a11, a2, 0x8078
    806c:	090c      	movi.n	a9, 0
    806e:	a0d3a0        	addx4	a13, a3, a10
    8071:	0c0c      	movi.n	a12, 0
    8073:	0dc9      	s32i.n	a12, a13, 0
    8075:	000106        	j	0x807d
    8078:	a093a0        	addx4	a9, a3, a10
    807b:	0998      	l32i.n	a9, a9, 0
    807d:	399c      	beqz.n	a9, 0x8094
    807f:	03ad      	mov.n	a10, a3
    8081:	41b8      	l32i.n	a11, a1, 16
    8083:	05cd      	mov.n	a12, a5
    8085:	06dd      	mov.n	a13, a6
    8087:	07ed      	mov.n	a14, a7
    8089:	04fd      	mov.n	a15, a4
    808b:	fff5e5        	excw
    808e:	2acc      	bnez.n	a10, 0x8094
    8090:	0a2d      	mov.n	a2, a10
    8092:	f01d      	excw
    8094:	02ad      	mov.n	a10, a2
    8096:	03bd      	mov.n	a11, a3
    8098:	05dd      	mov.n	a13, a5
    809a:	06ed      	mov.n	a14, a6
    809c:	07fd      	mov.n	a15, a7
    809e:	b9e281        	l32r	a8, 0xffff6828
    80a1:	0149      	s32i.n	a4, a1, 0
    80a3:	c888      	l32i.n	a8, a8, 48
    80a5:	41c8      	l32i.n	a12, a1, 16
    80a7:	0008e0        	excw
    80aa:	0a2d      	mov.n	a2, a10
    80ac:	f01d      	excw
    80ae:	360000        	excw
    80b1:	710061        	l32r	a6, 0xfffe44b4
    80b4:	adb9e3        	excw
    80b7:	278205        	call0	0x2f8d8
    80ba:	bdea      	add.n	a11, a13, a14
    80bc:	08e001        	l32r	a0, 0xfffca43c
    80bf:	05ad00        	extui	a10, a0, 29, 1
    80c2:	ea2782        	l32i	a8, a7, 0x3a8
    80c5:	01bd      	mov.n	a11, a1
    80c7:	0008e0        	excw
    80ca:	186417        	bbci	a4, 1, 0x80e6
    80cd:	b9f1b1        	l32r	a11, 0xffff6894
    80d0:	0001a2        	l8ui	a10, a1, 0
    80d3:	a0aab0        	addx4	a10, a10, a11
    80d6:	0a98      	l32i.n	a9, a10, 0
    80d8:	4b0c      	movi.n	a11, 4
    80da:	036927        	bbci	a9, 2, 0x80e1
    80dd:	020c      	movi.n	a2, 0
    80df:	f01d      	excw
    80e1:	20c9b0        	or	a12, a9, a11
    80e4:	0ac9      	s32i.n	a12, a10, 0
    80e6:	02ad      	mov.n	a10, a2
    80e8:	03bd      	mov.n	a11, a3
    80ea:	04cd      	mov.n	a12, a4
    80ec:	b9e281        	l32r	a8, 0xffff6874
    80ef:	05dd      	mov.n	a13, a5
    80f1:	d888      	l32i.n	a8, a8, 52
    80f3:	06ed      	mov.n	a14, a6
    80f5:	0008e0        	excw
    80f8:	0a2d      	mov.n	a2, a10
    80fa:	f01d      	excw
    80fc:	004136        	excw
    80ff:	b9f541        	l32r	a4, 0xffff68d4
    8102:	0303b2        	l8ui	a11, a3, 3
    8105:	0203a2        	l8ui	a10, a3, 2
    8108:	080392        	l8ui	a9, a3, 8
    810b:	0403d2        	l8ui	a13, a3, 4
    810e:	0503c2        	l8ui	a12, a3, 5
    8111:	b0ddd0        	addx8	a13, a13, a13
    8114:	cc3a      	add.n	a12, a12, a3
    8116:	239900        	excw
    8119:	aaba      	add.n	a10, a10, a11
    811b:	03bd      	mov.n	a11, a3
    811d:	d199a0        	mul16s	a9, a9, a10
    8120:	ccda      	add.n	a12, a12, a13
    8122:	0d0cc2        	l8ui	a12, a12, 13
    8125:	3b43c2        	s8i	a12, a3, 59
    8128:	3e4392        	s8i	a9, a3, 62
    812b:	be2482        	l32i	a8, a4, 0x2f8
    812e:	02ad      	mov.n	a10, a2
    8130:	0008e0        	excw
    8133:	06aa16        	beqz	a10, 0x81a1
    8136:	0a2d      	mov.n	a2, a10
    8138:	f01d      	excw
    813a:	564362        	s8i	a6, a3, 86
    813d:	02ad      	mov.n	a10, a2
    813f:	bd2482        	l32i	a8, a4, 0x2f4
    8142:	03bd      	mov.n	a11, a3
    8144:	0008e0        	excw
    8147:	4298      	l32i.n	a9, a2, 16
    8149:	ba07a1        	l32r	a10, 0xffff6968
    814c:	e9ac      	beqz.n	a9, 0x817e
    814e:	0819b2        	l16ui	a11, a9, 16
    8151:	29eb27        	bbsi	a11, 2, 0x817e
    8154:	644a62        	s8i	a6, a10, 100
    8157:	0d09f2        	l8ui	a15, a9, 13
    815a:	335af2        	s16i	a15, a10, 102
    815d:	0709e2        	l8ui	a14, a9, 7
    8160:	684ae2        	s8i	a14, a10, 104
    8163:	0809d2        	l8ui	a13, a9, 8
    8166:	694ad2        	s8i	a13, a10, 105
    8169:	0002c2        	l8ui	a12, a2, 0
    816c:	091982        	l16ui	a8, a9, 18
    816f:	027cb6        	bltui	a12, 7, 0x8175
    8172:	003286        	j	0x8240
    8175:	365a82        	s16i	a8, a10, 108
    8178:	0a19b2        	l16ui	a11, a9, 20
    817b:	355ab2        	s16i	a11, a10, 106
    817e:	8403b2        	l8ui	a11, a3, 132
    8181:	db8c      	beqz.n	a11, 0x8192
    8183:	0c03c2        	l8ui	a12, a3, 12
    8186:	8ccc      	bnez.n	a12, 0x8192
    8188:	72d8      	l32i.n	a13, a2, 28
    818a:	004d52        	s8i	a5, a13, 0
    818d:	4298      	l32i.n	a9, a2, 16
    818f:	0a4962        	s8i	a6, a9, 10
    8192:	0c09e2        	l8ui	a14, a9, 12
    8195:	020c      	movi.n	a2, 0
    8197:	ee1b      	addi.n	a14, a14, 1
    8199:	0c49e2        	s8i	a14, a9, 12
    819c:	354a52        	s8i	a5, a10, 53
    819f:	f01d      	excw
    81a1:	38c3a2        	addi	a10, a3, 56
    81a4:	9b2482        	l32i	a8, a4, 0x26c
    81a7:	4cc3b2        	addi	a11, a3, 76
    81aa:	0008e0        	excw
    81ad:	150c      	movi.n	a5, 1
    81af:	4298      	l32i.n	a9, a2, 16
    81b1:	060c      	movi.n	a6, 0
    81b3:	f92916        	beqz	a9, 0x8149
    81b6:	0002a2        	l8ui	a10, a2, 0
    81b9:	117af6        	bgeui	a10, 7, 0x81ce
    81bc:	02ad      	mov.n	a10, a2
    81be:	af2482        	l32i	a8, a4, 0x2bc
    81c1:	03bd      	mov.n	a11, a3
    81c3:	0008e0        	excw
    81c6:	2a8c      	beqz.n	a10, 0x81cc
    81c8:	0a2d      	mov.n	a2, a10
    81ca:	f01d      	excw
    81cc:	4298      	l32i.n	a9, a2, 16
    81ce:	49ac      	beqz.n	a9, 0x81f6
    81d0:	3298      	l32i.n	a9, a2, 12
    81d2:	09ec      	bnez.n	a9, 0x81f6
    81d4:	22a8      	l32i.n	a10, a2, 8
    81d6:	cadc      	bnez.n	a10, 0x81f6
    81d8:	0903a2        	l8ui	a10, a3, 9
    81db:	12b8      	l32i.n	a11, a2, 4
    81dd:	23aa00        	excw
    81e0:	8bdc      	bnez.n	a11, 0x81fc
    81e2:	162a66        	bnei	a10, 2, 0x81fc
    81e5:	5403d2        	l8ui	a13, a3, 84
    81e8:	5203b2        	l8ui	a11, a3, 82
    81eb:	5303c2        	l8ui	a12, a3, 83
    81ee:	bbda      	add.n	a11, a11, a13
    81f0:	082bc7        	blt	a11, a12, 0x81fc
    81f3:	0005c6        	j	0x820e
    81f6:	0903a2        	l8ui	a10, a3, 9
    81f9:	23aa00        	excw
    81fc:	6aec      	bnez.n	a10, 0x8226
    81fe:	5403d2        	l8ui	a13, a3, 84
    8201:	5203b2        	l8ui	a11, a3, 82
    8204:	5303c2        	l8ui	a12, a3, 83
    8207:	bbda      	add.n	a11, a11, a13
    8209:	bb2b      	addi.n	a11, a11, 2
    820b:	172bc7        	blt	a11, a12, 0x8226
    820e:	1a13a2        	l16ui	a10, a3, 52
    8211:	8a2482        	l32i	a8, a4, 0x228
    8214:	62c3b2        	addi	a11, a3, 98
    8217:	0008e0        	excw
    821a:	1b13a2        	l16ui	a10, a3, 54
    821d:	8a2482        	l32i	a8, a4, 0x228
    8220:	64c3b2        	addi	a11, a3, 100
    8223:	0008e0        	excw
    8226:	2e1392        	l16ui	a9, a3, 92
    8229:	049290        	extui	a9, a9, 2, 1
    822c:	f0d956        	bnez	a9, 0x813d
    822f:	8503a2        	l8ui	a10, a3, 133
    8232:	f07a56        	bnez	a10, 0x813d
    8235:	52b8      	l32i.n	a11, a2, 20
    8237:	effb56        	bnez	a11, 0x813a
    823a:	564352        	s8i	a5, a3, 86
    823d:	ffbf06        	j	0x813d
    8240:	0a19c2        	l16ui	a12, a9, 20
    8243:	365ac2        	s16i	a12, a10, 108
    8246:	0919b2        	l16ui	a11, a9, 18
    8249:	ffcb86        	j	0x817b
    824c:	080136        	excw
    824f:	01ad      	mov.n	a10, a1
    8251:	ed6122        	s32i	a2, a1, 0x3b4
    8254:	202352        	l32i	a5, a3, 128
    8257:	3b0322        	l8ui	a2, a3, 59
    825a:	040c      	movi.n	a4, 0
    825c:	742120        	extui	a2, a2, 1, 8
    825f:	004142        	s8i	a4, a1, 0
    8262:	fc3425        	excw
    8265:	01ad      	mov.n	a10, a1
    8267:	ffa0b2        	movi	a11, 255
    826a:	04efa5        	excw
    826d:	0001c2        	l8ui	a12, a1, 0
    8270:	0bfc16        	beqz	a12, 0x8333
    8273:	000582        	l8ui	a8, a5, 0
    8276:	98a192        	movi	a9, 0x198
    8279:	c18890        	mul16u	a8, a8, a9
    827c:	b97791        	l32r	a9, 0xffff6858
    827f:	898a      	add.n	a8, a9, a8
    8281:	800882        	l8ui	a8, a8, 128
    8284:	0ab816        	beqz	a8, 0x8333
    8287:	b9e4b1        	l32r	a11, 0xffff6a18
    828a:	e72bb2        	l32i	a11, a11, 0x39c
    828d:	081bb2        	l16ui	a11, a11, 16
    8290:	04b3b0        	extui	a11, a11, 3, 1
    8293:	09cb56        	bnez	a11, 0x8333
    8296:	eb6152        	s32i	a5, a1, 0x3ac
    8299:	ea6142        	s32i	a4, a1, 0x3a8
    829c:	021ce6        	bgei	a12, 1, 0x82a2
    829f:	002746        	j	0x8340
    82a2:	014d      	mov.n	a4, a1
    82a4:	02d152        	addmi	a5, a1, 0x200
    82a7:	070c      	movi.n	a7, 0
    82a9:	f06172        	s32i	a7, a1, 0x3c0
    82ac:	60c562        	addi	a6, a5, 96
    82af:	057d      	mov.n	a7, a5
    82b1:	7fc552        	addi	a5, a5, 127
    82b4:	41c552        	addi	a5, a5, 65
    82b7:	02bd      	mov.n	a11, a2
    82b9:	b9bd81        	l32r	a8, 0xffff69b0
    82bc:	0414a2        	l16ui	a10, a4, 8
    82bf:	5888      	l32i.n	a8, a8, 20
    82c1:	ef61a2        	s32i	a10, a1, 0x3bc
    82c4:	0008e0        	excw
    82c7:	0abd      	mov.n	a11, a10
    82c9:	0414a2        	l16ui	a10, a4, 8
    82cc:	07b9      	s32i.n	a11, a7, 0
    82ce:	c1a2a0        	mul16u	a10, a2, a10
    82d1:	0526e5        	excw
    82d4:	06a9      	s32i.n	a10, a6, 0
    82d6:	0314c2        	l16ui	a12, a4, 6
    82d9:	0404b2        	l8ui	a11, a4, 4
    82dc:	05c9      	s32i.n	a12, a5, 0
    82de:	7bbc      	beqz.n	a11, 0x8319
    82e0:	98a1d2        	movi	a13, 0x198
    82e3:	1804b2        	l8ui	a11, a4, 24
    82e6:	b977a1        	l32r	a10, 0xffff68c4
    82e9:	c1bbd0        	mul16u	a11, a11, a13
    82ec:	aaba      	add.n	a10, a10, a11
    82ee:	b910b1        	l32r	a11, 0xffff6730
    82f1:	7f0aa2        	l8ui	a10, a10, 127
    82f4:	a0aab0        	addx4	a10, a10, a11
    82f7:	1bb8      	l32i.n	a11, a11, 4
    82f9:	1aa8      	l32i.n	a10, a10, 4
    82fb:	41b1b0        	srli	a11, a11, 1
    82fe:	41a1a0        	srli	a10, a10, 1
    8301:	c0aab0        	sub	a10, a10, a11
    8304:	34a9      	s32i.n	a10, a4, 12
    8306:	ef21b2        	l32i	a11, a1, 0x3bc
    8309:	c0aca0        	sub	a10, a12, a10
    830c:	051e65        	excw
    830f:	ef21b2        	l32i	a11, a1, 0x3bc
    8312:	aaba      	add.n	a10, a10, a11
    8314:	051de5        	excw
    8317:	05a9      	s32i.n	a10, a5, 0
    8319:	554b      	addi.n	a5, a5, 4
    831b:	664b      	addi.n	a6, a6, 4
    831d:	774b      	addi.n	a7, a7, 4
    831f:	18c442        	addi	a4, a4, 24
    8322:	f021e2        	l32i	a14, a1, 0x3c0
    8325:	0001f2        	l8ui	a15, a1, 0
    8328:	ee1b      	addi.n	a14, a14, 1
    832a:	f061e2        	s32i	a14, a1, 0x3c0
    832d:	862ef7        	blt	a14, a15, 0x82b7
    8330:	000306        	j	0x8340
    8333:	0103c2        	l8ui	a12, a3, 1
    8336:	0043c2        	s8i	a12, a3, 0
    8339:	3a43c2        	s8i	a12, a3, 58
    833c:	020c      	movi.n	a2, 0
    833e:	f01d      	excw
    8340:	ba0b41        	l32r	a4, 0xffff6b6c
    8343:	082c      	movi.n	a8, 32
    8345:	03d192        	addmi	a9, a1, 0x300
    8348:	20c992        	addi	a9, a9, 32
    834b:	03a876        	excw
    834e:	0949      	s32i.n	a4, a9, 0
    8350:	994b      	addi.n	a9, a9, 4
    8352:	e96122        	s32i	a2, a1, 0x3a4
    8355:	3e03c2        	l8ui	a12, a3, 62
    8358:	0503d2        	l8ui	a13, a3, 5
    835b:	0403e2        	l8ui	a14, a3, 4
    835e:	ea21f2        	l32i	a15, a1, 0x3a8
    8361:	03d1a2        	addmi	a10, a1, 0x300
    8364:	20caa2        	addi	a10, a10, 32
    8367:	0043f2        	s8i	a15, a3, 0
    836a:	b0eee0        	addx8	a14, a14, a14
    836d:	dd3a      	add.n	a13, a13, a3
    836f:	ddea      	add.n	a13, a13, a14
    8371:	0d0db2        	l8ui	a11, a13, 13
    8374:	ee61c2        	s32i	a12, a1, 0x3b8
    8377:	c0bbc0        	sub	a11, a11, a12
    837a:	0c0c      	movi.n	a12, 0
    837c:	021be6        	bgei	a11, 1, 0x8382
    837f:	0041c6        	j	0x848a
    8382:	b9e881        	l32r	a8, 0xffff6b24
    8385:	e96122        	s32i	a2, a1, 0x3a4
    8388:	d18280        	mul16s	a8, a2, a8
    838b:	ec6182        	s32i	a8, a1, 0x3b0
    838e:	3a43c2        	s8i	a12, a3, 58
    8391:	2e1392        	l16ui	a9, a3, 92
    8394:	0f0c      	movi.n	a15, 0
    8396:	22e927        	bbsi	a9, 2, 0x83bc
    8399:	8403a2        	l8ui	a10, a3, 132
    839c:	0f0c      	movi.n	a15, 0
    839e:	aadc      	bnez.n	a10, 0x83bc
    83a0:	ed2192        	l32i	a9, a1, 0x3b4
    83a3:	3998      	l32i.n	a9, a9, 12
    83a5:	399c      	beqz.n	a9, 0x83bc
    83a7:	0909a2        	l8ui	a10, a9, 9
    83aa:	ed21e2        	l32i	a14, a1, 0x3b4
    83ad:	0b2a66        	bnei	a10, 2, 0x83bc
    83b0:	4ee8      	l32i.n	a14, a14, 16
    83b2:	6e8c      	beqz.n	a14, 0x83bc
    83b4:	060e82        	l8ui	a8, a14, 6
    83b7:	0198c7        	bne	a8, a12, 0x83bc
    83ba:	1f0c      	movi.n	a15, 1
    83bc:	1a0c      	movi.n	a10, 1
    83be:	090c      	movi.n	a9, 0
    83c0:	839af0        	moveqz	a9, a10, a15
    83c3:	0a6916        	beqz	a9, 0x846d
    83c6:	b9f561        	l32r	a6, 0xffff6b9c
    83c9:	a62682        	l32i	a8, a6, 0x298
    83cc:	1b13a2        	l16ui	a10, a3, 54
    83cf:	0008e0        	excw
    83d2:	0a5d      	mov.n	a5, a10
    83d4:	a62682        	l32i	a8, a6, 0x298
    83d7:	1a13a2        	l16ui	a10, a3, 52
    83da:	0008e0        	excw
    83dd:	e7a372        	movi	a7, 0x3e7
    83e0:	71a2b2        	movi	a11, 0x271
    83e3:	0add      	mov.n	a13, a10
    83e5:	3e03c2        	l8ui	a12, a3, 62
    83e8:	ee61c2        	s32i	a12, a1, 0x3b8
    83eb:	3b03a2        	l8ui	a10, a3, 59
    83ee:	c5ca      	add.n	a12, a5, a12
    83f0:	aada      	add.n	a10, a10, a13
    83f2:	aaca      	add.n	a10, a10, a12
    83f4:	82aab0        	mull	a10, a10, a11
    83f7:	e8a3b2        	movi	a11, 0x3e8
    83fa:	aa7a      	add.n	a10, a10, a7
    83fc:	0508e5        	excw
    83ff:	0d0c      	movi.n	a13, 0
    8401:	090c      	movi.n	a9, 0
    8403:	f4c0a0        	extui	a12, a10, 0, 16
    8406:	ed21e2        	l32i	a14, a1, 0x3b4
    8409:	1a0c      	movi.n	a10, 1
    840b:	4ee8      	l32i.n	a14, a14, 16
    840d:	3d53c2        	s16i	a12, a3, 122
    8410:	9e8c      	beqz.n	a14, 0x841d
    8412:	3813f2        	l16ui	a15, a3, 112
    8415:	180c      	movi.n	a8, 1
    8417:	02bfc7        	bgeu	a15, a12, 0x841d
    841a:	93d8f0        	movnez	a13, a8, a15
    841d:	839ad0        	moveqz	a9, a10, a13
    8420:	99bc      	beqz.n	a9, 0x845d
    8422:	6e8c      	beqz.n	a14, 0x842c
    8424:	3613d2        	l16ui	a13, a3, 108
    8427:	1d8c      	beqz.n	a13, 0x842c
    8429:	1c3dc7        	bltu	a13, a12, 0x8449
    842c:	ed2192        	l32i	a9, a1, 0x3b4
    842f:	b990a1        	l32r	a10, 0xffff6a70
    8432:	1998      	l32i.n	a9, a9, 4
    8434:	ea21e2        	l32i	a14, a1, 0x3a8
    8437:	09f916        	beqz	a9, 0x84da
    843a:	0619d2        	l16ui	a13, a9, 12
    843d:	c0ada0        	sub	a10, a13, a10
    8440:	096a16        	beqz	a10, 0x84da
    8443:	023dc7        	bltu	a13, a12, 0x8449
    8446:	002406        	j	0x84da
    8449:	8403b2        	l8ui	a11, a3, 132
    844c:	db8c      	beqz.n	a11, 0x845d
    844e:	0c03c2        	l8ui	a12, a3, 12
    8451:	8ccc      	bnez.n	a12, 0x845d
    8453:	1d0c      	movi.n	a13, 1
    8455:	3e0c      	movi.n	a14, 3
    8457:	5643e2        	s8i	a14, a3, 86
    845a:	8543d2        	s8i	a13, a3, 133
    845d:	0003c2        	l8ui	a12, a3, 0
    8460:	0403e2        	l8ui	a14, a3, 4
    8463:	0503d2        	l8ui	a13, a3, 5
    8466:	b0eee0        	addx8	a14, a14, a14
    8469:	dd3a      	add.n	a13, a13, a3
    846b:	ddea      	add.n	a13, a13, a14
    846d:	ee2182        	l32i	a8, a1, 0x3b8
    8470:	cc2b      	addi.n	a12, a12, 2
    8472:	74c0c0        	extui	a12, a12, 0, 8
    8475:	0043c2        	s8i	a12, a3, 0
    8478:	0d0df2        	l8ui	a15, a13, 13
    847b:	c0ff80        	sub	a15, a15, a8
    847e:	02acf7        	bge	a12, a15, 0x8484
    8481:	ffc246        	j	0x838e
    8484:	03d1a2        	addmi	a10, a1, 0x300
    8487:	20caa2        	addi	a10, a10, 32
    848a:	e92122        	l32i	a2, a1, 0x3a4
    848d:	0d0c      	movi.n	a13, 0
    848f:	b9e8f1        	l32r	a15, 0xffff6c30
    8492:	0e0c      	movi.n	a14, 0
    8494:	20a0c2        	movi	a12, 32
    8497:	03d1b2        	addmi	a11, a1, 0x300
    849a:	20cbb2        	addi	a11, a11, 32
    849d:	1fac76        	excw
    84a0:	0bc8      	l32i.n	a12, a11, 0
    84a2:	bb4b      	addi.n	a11, a11, 4
    84a4:	161c47        	beq	a12, a4, 0x84be
    84a7:	07acf7        	bge	a12, a15, 0x84b2
    84aa:	004c96        	bltz	a12, 0x84b2
    84ad:	0cfd      	mov.n	a15, a12
    84af:	74e0d0        	extui	a14, a13, 0, 8
    84b2:	a0cea0        	addx4	a12, a14, a10
    84b5:	0cc8      	l32i.n	a12, a12, 0
    84b7:	039c47        	bne	a12, a4, 0x84be
    84ba:	b21c      	movi.n	a2, 27
    84bc:	f01d      	excw
    84be:	dd1b      	addi.n	a13, a13, 1
    84c0:	eb21d2        	l32i	a13, a1, 0x3ac
    84c3:	b977c1        	l32r	a12, 0xffff6aa0
    84c6:	000dd2        	l8ui	a13, a13, 0
    84c9:	98a1f2        	movi	a15, 0x198
    84cc:	c1ddf0        	mul16u	a13, a13, a15
    84cf:	ccda      	add.n	a12, a12, a13
    84d1:	800cd2        	l8ui	a13, a12, 128
    84d4:	101d56        	bnez	a13, 0x85d9
    84d7:	0035c6        	j	0x85b2
    84da:	0001c2        	l8ui	a12, a1, 0
    84dd:	3a0392        	l8ui	a9, a3, 58
    84e0:	03d1f2        	addmi	a15, a1, 0x300
    84e3:	0a0c      	movi.n	a10, 0
    84e5:	f661a2        	s32i	a10, a1, 0x3d8
    84e8:	20cff2        	addi	a15, a15, 32
    84eb:	749190        	extui	a9, a9, 1, 8
    84ee:	a0f9f0        	addx4	a15, a9, a15
    84f1:	f261f2        	s32i	a15, a1, 0x3c8
    84f4:	0fe9      	s32i.n	a14, a15, 0
    84f6:	021ce6        	bgei	a12, 1, 0x84fc
    84f9:	ffd806        	j	0x845d
    84fc:	e86192        	s32i	a9, a1, 0x3a0
    84ff:	012d      	mov.n	a2, a1
    8501:	90acc0        	addx2	a10, a12, a12
    8504:	02d162        	addmi	a6, a1, 0x200
    8507:	067d      	mov.n	a7, a6
    8509:	60c682        	addi	a8, a6, 96
    850c:	f46182        	s32i	a8, a1, 0x3d0
    850f:	b0aa20        	addx8	a10, a10, a2
    8512:	f161a2        	s32i	a10, a1, 0x3c4
    8515:	7fc662        	addi	a6, a6, 127
    8518:	41c662        	addi	a6, a6, 65
    851b:	06b8      	l32i.n	a11, a6, 0
    851d:	e821a2        	l32i	a10, a1, 0x3a0
    8520:	041252        	l16ui	a5, a2, 8
    8523:	c0aab0        	sub	a10, a10, a11
    8526:	f361a2        	s32i	a10, a1, 0x3cc
    8529:	07b8      	l32i.n	a11, a7, 0
    852b:	f561b2        	s32i	a11, a1, 0x3d4
    852e:	04fc65        	excw
    8531:	f521b2        	l32i	a11, a1, 0x3d4
    8534:	abaa      	add.n	a10, a11, a10
    8536:	04fbe5        	excw
    8539:	dadc      	bnez.n	a10, 0x855a
    853b:	f521c2        	l32i	a12, a1, 0x3d4
    853e:	b9e981        	l32r	a8, 0xffff6ce4
    8541:	0515c7        	beq	a5, a12, 0x854a
    8544:	e921e2        	l32i	a14, a1, 0x3a4
    8547:	519ce7        	bne	a12, a14, 0x859c
    854a:	f621f2        	l32i	a15, a1, 0x3d8
    854d:	ff8a      	add.n	a15, a15, a8
    854f:	f661f2        	s32i	a15, a1, 0x3d8
    8552:	f221a2        	l32i	a10, a1, 0x3c8
    8555:	f62192        	l32i	a9, a1, 0x3d8
    8558:	0a99      	s32i.n	a9, a10, 0
    855a:	f321a2        	l32i	a10, a1, 0x3cc
    855d:	05bd      	mov.n	a11, a5
    855f:	04f965        	excw
    8562:	a5aa      	add.n	a10, a5, a10
    8564:	05bd      	mov.n	a11, a5
    8566:	04f8e5        	excw
    8569:	664b      	addi.n	a6, a6, 4
    856b:	774b      	addi.n	a7, a7, 4
    856d:	f121b2        	l32i	a11, a1, 0x3c4
    8570:	18c222        	addi	a2, a2, 24
    8573:	f221e2        	l32i	a14, a1, 0x3c8
    8576:	f621d2        	l32i	a13, a1, 0x3d8
    8579:	f421c2        	l32i	a12, a1, 0x3d0
    857c:	f51b      	addi.n	a15, a5, 1
    857e:	b3f550        	movgez	a15, a5, a5
    8581:	21f1f0        	srai	a15, a15, 1
    8584:	cc4b      	addi.n	a12, a12, 4
    8586:	f461c2        	s32i	a12, a1, 0x3d0
    8589:	c0faf0        	sub	a15, a10, a15
    858c:	60f1f0        	abs	a15, a15
    858f:	ddfa      	add.n	a13, a13, a15
    8591:	f661d2        	s32i	a13, a1, 0x3d8
    8594:	0ed9      	s32i.n	a13, a14, 0
    8596:	8192b7        	bne	a2, a11, 0x851b
    8599:	ffb006        	j	0x845d
    859c:	f421b2        	l32i	a11, a1, 0x3d0
    859f:	ec21a2        	l32i	a10, a1, 0x3b0
    85a2:	0bb8      	l32i.n	a11, a11, 0
    85a4:	04f9a5        	excw
    85a7:	f621c2        	l32i	a12, a1, 0x3d8
    85aa:	ccaa      	add.n	a12, a12, a10
    85ac:	f661c2        	s32i	a12, a1, 0x3d8
    85af:	ffe7c6        	j	0x8552
    85b2:	b910b1        	l32r	a11, 0xffff69f4
    85b5:	7f0ca2        	l8ui	a10, a12, 127
    85b8:	a0aab0        	addx4	a10, a10, a11
    85bb:	1bb8      	l32i.n	a11, a11, 4
    85bd:	1aa8      	l32i.n	a10, a10, 4
    85bf:	41b1b0        	srli	a11, a11, 1
    85c2:	41a1a0        	srli	a10, a10, 1
    85c5:	c0aab0        	sub	a10, a10, a11
    85c8:	aeaa      	add.n	a10, a14, a10
    85ca:	02bd      	mov.n	a11, a2
    85cc:	04f265        	excw
    85cf:	aa2a      	add.n	a10, a10, a2
    85d1:	02bd      	mov.n	a11, a2
    85d3:	04f225        	excw
    85d6:	74e0a0        	extui	a14, a10, 0, 8
    85d9:	0103b2        	l8ui	a11, a3, 1
    85dc:	11cef0        	slli	a12, a14, 1
    85df:	041cb7        	beq	a12, a11, 0x85e7
    85e2:	1d0c      	movi.n	a13, 1
    85e4:	ea61d2        	s32i	a13, a1, 0x3a8
    85e7:	0043c2        	s8i	a12, a3, 0
    85ea:	ea21e2        	l32i	a14, a1, 0x3a8
    85ed:	0c43e2        	s8i	a14, a3, 12
    85f0:	ff5146        	j	0x8339
    85f3:	c13600        	mul16u	a3, a6, a0
    85f6:	c1a201        	l32r	a0, 0xffff8c80
    85f9:	a0b210        	addx4	a11, a2, a1
    85fc:	ff          	.byte 0xff
    85fd:	b98451        	l32r	a5, 0xffff6c10
    8600:	090c      	movi.n	a9, 0
    8602:	7c2582        	l32i	a8, a5, 0x1f0
    8605:	104192        	s8i	a9, a1, 16
    8608:	0008e0        	excw
    860b:	1001a2        	l8ui	a10, a1, 16
    860e:	ba0c91        	l32r	a9, 0xffff6e40
    8611:	042a16        	beqz	a10, 0x8657
    8614:	030932        	l8ui	a3, a9, 3
    8617:	020942        	l8ui	a4, a9, 2
    861a:	13cc      	bnez.n	a3, 0x861f
    861c:	030232        	l8ui	a3, a2, 3
    861f:	14cc      	bnez.n	a4, 0x8624
    8621:	020242        	l8ui	a4, a2, 2
    8624:	10c1d2        	addi	a13, a1, 16
    8627:	41c130        	srli	a12, a3, 1
    862a:	7fc1f2        	addi	a15, a1, 127
    862d:	f4b130        	extui	a11, a3, 1, 16
    8630:	0bad      	mov.n	a10, a11
    8632:	3bcfe2        	addi	a14, a15, 59
    8635:	3fcf82        	addi	a8, a15, 63
    8638:	cc0b      	addi.n	a12, a12, -1
    863a:	f4c0c0        	extui	a12, a12, 0, 16
    863d:	0189      	s32i.n	a8, a1, 0
    863f:	7b2582        	l32i	a8, a5, 0x1ec
    8642:	3dcff2        	addi	a15, a15, 61
    8645:	0008e0        	excw
    8648:	7a8c      	beqz.n	a10, 0x8653
    864a:	5e11d2        	l16ui	a13, a1, 188
    864d:	f4e140        	extui	a14, a4, 1, 16
    8650:	031de7        	beq	a13, a14, 0x8657
    8653:	b21c      	movi.n	a2, 27
    8655:	f01d      	excw
    8657:	020c      	movi.n	a2, 0
    8659:	f01d      	excw
    865b:	613600        	excw
    865e:	e37100        	excw
    8661:	adb9      	s32i.n	a11, a13, 40
    8663:	278204        	excw
    8666:	bdea      	add.n	a11, a13, a14
    8668:	08e001        	l32r	a0, 0xfffca9e8
    866b:	0a6d00        	excw
    866e:	aacc      	bnez.n	a10, 0x867c
    8670:	b9e5a1        	l32r	a10, 0xffff6e04
    8673:	0b0c      	movi.n	a11, 0
    8675:	ab9de5        	excw
    8678:	020c      	movi.n	a2, 0
    867a:	f01d      	excw
    867c:	04a492        	movi	a9, 0x404
    867f:	389297        	bne	a2, a9, 0x86bb
    8682:	d92782        	l32i	a8, a7, 0x364
    8685:	2a1c      	movi.n	a10, 18
    8687:	0008e0        	excw
    868a:	07da16        	beqz	a10, 0x870b
    868d:	d698      	l32i.n	a9, a6, 52
    868f:	e5e977        	bbsi	a9, 7, 0x8678
    8692:	06bd      	mov.n	a11, a6
    8694:	da2782        	l32i	a8, a7, 0x368
    8697:	9a0c      	movi.n	a10, 9
    8699:	0008e0        	excw
    869c:	06fa56        	bnez	a10, 0x870f
    869f:	ba0d91        	l32r	a9, 0xffff6ed4
    86a2:	ba0ea1        	l32r	a10, 0xffff6edc
    86a5:	98a1b2        	movi	a11, 0x198
    86a8:	c1b4b0        	mul16u	a11, a4, a11
    86ab:	000aa2        	l8ui	a10, a10, 0
    86ae:	99ba      	add.n	a9, a9, a11
    86b0:	800992        	l8ui	a9, a9, 128
    86b3:	5839a7        	bltu	a9, a10, 0x870f
    86b6:	7a0c      	movi.n	a10, 7
    86b8:	001806        	j	0x871c
    86bb:	05a4c2        	movi	a12, 0x405
    86be:	3592c7        	bne	a2, a12, 0x86f7
    86c1:	d92782        	l32i	a8, a7, 0x364
    86c4:	2a1c      	movi.n	a10, 18
    86c6:	0008e0        	excw
    86c9:	eabc      	beqz.n	a10, 0x870b
    86cb:	d698      	l32i.n	a9, a6, 52
    86cd:	a7e977        	bbsi	a9, 7, 0x8678
    86d0:	b91b81        	l32r	a8, 0xffff6b3c
    86d3:	04ad      	mov.n	a10, a4
    86d5:	4a2882        	l32i	a8, a8, 0x128
    86d8:	2b0c      	movi.n	a11, 2
    86da:	0008e0        	excw
    86dd:	978a66        	bnei	a10, 8, 0x8678
    86e0:	03bd      	mov.n	a11, a3
    86e2:	04dd      	mov.n	a13, a4
    86e4:	05ed      	mov.n	a14, a5
    86e6:	b9f581        	l32r	a8, 0xffff6ebc
    86e9:	07a4a2        	movi	a10, 0x407
    86ec:	162882        	l32i	a8, a8, 88
    86ef:	2c0c      	movi.n	a12, 2
    86f1:	0008e0        	excw
    86f4:	ffe006        	j	0x8678
    86f7:	02ad      	mov.n	a10, a2
    86f9:	03bd      	mov.n	a11, a3
    86fb:	b9e281        	l32r	a8, 0xffff6e84
    86fe:	04cd      	mov.n	a12, a4
    8700:	e888      	l32i.n	a8, a8, 56
    8702:	05dd      	mov.n	a13, a5
    8704:	0008e0        	excw
    8707:	0a2d      	mov.n	a2, a10
    8709:	f01d      	excw
    870b:	a21c      	movi.n	a2, 26
    870d:	f01d      	excw
    870f:	b91b81        	l32r	a8, 0xffff6b7c
    8712:	04ad      	mov.n	a10, a4
    8714:	4a2882        	l32i	a8, a8, 0x128
    8717:	1b0c      	movi.n	a11, 1
    8719:	0008e0        	excw
    871c:	f9ca92        	addi	a9, a10, -7
    871f:	f55956        	bnez	a9, 0x8678
    8722:	03bd      	mov.n	a11, a3
    8724:	04dd      	mov.n	a13, a4
    8726:	05ed      	mov.n	a14, a5
    8728:	b9f581        	l32r	a8, 0xffff6efc
    872b:	06a4a2        	movi	a10, 0x406
    872e:	152882        	l32i	a8, a8, 84
    8731:	2c0c      	movi.n	a12, 2
    8733:	0008e0        	excw
    8736:	ffcf86        	j	0x8678
    8739:	000000        	ill
    873c:	004136        	excw
    873f:	b91c81        	l32r	a8, 0xffff6bb0
    8742:	c62882        	l32i	a8, a8, 0x318
    8745:	02ad      	mov.n	a10, a2
    8747:	0008e0        	excw
    874a:	03bd      	mov.n	a11, a3
    874c:	04cd      	mov.n	a12, a4
    874e:	b91c81        	l32r	a8, 0xffff6bc0
    8751:	ba0661        	l32r	a6, 0xffff6f6c
    8754:	ba0571        	l32r	a7, 0xffff6f68
    8757:	f91c      	movi.n	a9, 31
    8759:	185722        	s16i	a2, a7, 48
    875c:	354742        	s8i	a4, a7, 53
    875f:	334792        	s8i	a9, a7, 51
    8762:	6a6632        	s32i	a3, a6, 0x1a8
    8765:	6b66a2        	s32i	a10, a6, 0x1ac
    8768:	5d2882        	l32i	a8, a8, 0x174
    876b:	0a0c      	movi.n	a10, 0
    876d:	3247a2        	s8i	a10, a7, 50
    8770:	02ad      	mov.n	a10, a2
    8772:	0008e0        	excw
    8775:	3447a2        	s8i	a10, a7, 52
    8778:	6b0a26        	beqi	a10, -1, 0x87e7
    877b:	a4add2        	movi	a13, 0xfffffda4
    877e:	b920c1        	l32r	a12, 0xffff6c00
    8781:	bca0b2        	movi	a11, 188
    8784:	d1bab0        	mul16s	a11, a10, a11
    8787:	5ca2e2        	movi	a14, 0x25c
    878a:	bcba      	add.n	a11, a12, a11
    878c:	ebea      	add.n	a14, a11, a14
    878e:	6966e2        	s32i	a14, a6, 0x1a4
    8791:	521bd7        	beq	a11, a13, 0x87e7
    8794:	ba0fa1        	l32r	a10, 0xffff6fd0
    8797:	ba10e1        	l32r	a14, 0xffff6fd8
    879a:	cf2c      	movi.n	a15, 44
    879c:	320792        	l8ui	a9, a7, 50
    879f:	b914d1        	l32r	a13, 0xffff6bf0
    87a2:	b0b990        	addx8	a11, a9, a9
    87a5:	271dd2        	l16ui	a13, a13, 78
    87a8:	c199f0        	mul16u	a9, a9, a15
    87ab:	90bbc0        	addx2	a11, a11, a12
    87ae:	bbea      	add.n	a11, a11, a14
    87b0:	6866b2        	s32i	a11, a6, 0x1a0
    87b3:	9c9a      	add.n	a9, a12, a9
    87b5:	99aa      	add.n	a9, a9, a10
    87b7:	676692        	s32i	a9, a6, 0x19c
    87ba:	146d27        	bbci	a13, 2, 0x87d2
    87bd:	081992        	l16ui	a9, a9, 16
    87c0:	10a4e2        	movi	a14, 0x410
    87c3:	02e9c7        	bbsi	a9, 12, 0x87c9
    87c6:	0869d7        	bbci	a9, 13, 0x87d2
    87c9:	2112e7        	beq	a2, a14, 0x87ee
    87cc:	2ca4f2        	movi	a15, 0x42c
    87cf:	1b12f7        	beq	a2, a15, 0x87ee
    87d2:	02ad      	mov.n	a10, a2
    87d4:	03bd      	mov.n	a11, a3
    87d6:	b9e281        	l32r	a8, 0xffff6f60
    87d9:	04cd      	mov.n	a12, a4
    87db:	f888      	l32i.n	a8, a8, 60
    87dd:	05dd      	mov.n	a13, a5
    87df:	0008e0        	excw
    87e2:	0a2d      	mov.n	a2, a10
    87e4:	000046        	j	0x87e9
    87e7:	220c      	movi.n	a2, 2
    87e9:	6b6622        	s32i	a2, a6, 0x1ac
    87ec:	f01d      	excw
    87ee:	b9f581        	l32r	a8, 0xffff6fc4
    87f1:	492c      	movi.n	a9, 36
    87f3:	6e2882        	l32i	a8, a8, 0x1b8
    87f6:	6b6692        	s32i	a9, a6, 0x1ac
    87f9:	0008e0        	excw
    87fc:	020c      	movi.n	a2, 0
    87fe:	f01d      	excw
    8800:	004136        	excw
    8803:	b9e4f1        	l32r	a15, 0xffff6f94
    8806:	e72ff2        	l32i	a15, a15, 0x39c
    8809:	a39c      	beqz.n	a3, 0x8827
    880b:	03cd      	mov.n	a12, a3
    880d:	df1b      	addi.n	a13, a15, 1
    880f:	02ed      	mov.n	a14, a2
    8811:	3a0c      	movi.n	a10, 3
    8813:	ba05b1        	l32r	a11, 0xffff7028
    8816:	b91c81        	l32r	a8, 0xffff6c88
    8819:	340bb2        	l8ui	a11, a11, 52
    881c:	1d2882        	l32i	a8, a8, 116
    881f:	23bb00        	excw
    8822:	0008e0        	excw
    8825:	f01d      	excw
    8827:	014f22        	s8i	a2, a15, 1
    882a:	f01d      	excw
    882c:	004136        	excw
    882f:	ba1861        	l32r	a6, 0xffff7090
    8832:	ba1781        	l32r	a8, 0xffff7090
    8835:	ba14d1        	l32r	a13, 0xffff7088
    8838:	ba1221        	l32r	a2, 0xffff7080
    883b:	ba13f1        	l32r	a15, 0xffff7088
    883e:	ba16a1        	l32r	a10, 0xffff7098
    8841:	ba15b1        	l32r	a11, 0xffff7098
    8844:	b90b71        	l32r	a7, 0xffff6c70
    8847:	ba1131        	l32r	a3, 0xffff708c
    884a:	4778      	l32i.n	a7, a7, 16
    884c:	fe63a2        	s32i	a10, a3, 0x3f8
    884f:	ff63b2        	s32i	a11, a3, 0x3fc
    8852:	ffd342        	addmi	a4, a3, 0xffffff00
    8855:	fed3e2        	addmi	a14, a3, 0xfffffe00
    8858:	fdd352        	addmi	a5, a3, 0xfffffd00
    885b:	b725c2        	l32i	a12, a5, 0x2dc
    885e:	796ef2        	s32i	a15, a14, 0x1e4
    8861:	716e22        	s32i	a2, a14, 0x1c4
    8864:	8e2592        	l32i	a9, a5, 0x238
    8867:	ba1921        	l32r	a2, 0xffff70cc
    886a:	e489      	s32i.n	a8, a4, 56
    886c:	b9e2f1        	l32r	a15, 0xffff6ff4
    886f:	776ed2        	s32i	a13, a14, 0x1dc
    8872:	1f99      	s32i.n	a9, a15, 4
    8874:	2fc9      	s32i.n	a12, a15, 8
    8876:	176762        	s32i	a6, a7, 92
    8879:	a12382        	l32i	a8, a3, 0x284
    887c:	6123b2        	l32i	a11, a3, 0x184
    887f:	702392        	l32i	a9, a3, 0x1c0
    8882:	3a23a2        	l32i	a10, a3, 232
    8885:	a62372        	l32i	a7, a3, 0x298
    8888:	1b23e2        	l32i	a14, a3, 108
    888b:	8d2552        	l32i	a5, a5, 0x234
    888e:	ef59      	s32i.n	a5, a15, 56
    8890:	3fe9      	s32i.n	a14, a15, 12
    8892:	d429      	s32i.n	a2, a4, 52
    8894:	af79      	s32i.n	a7, a15, 40
    8896:	7fa9      	s32i.n	a10, a15, 28
    8898:	8f99      	s32i.n	a9, a15, 32
    889a:	6fb9      	s32i.n	a11, a15, 24
    889c:	9f89      	s32i.n	a8, a15, 36
    889e:	ba1bb1        	l32r	a11, 0xffff710c
    88a1:	ba1e81        	l32r	a8, 0xffff711c
    88a4:	ba1d91        	l32r	a9, 0xffff7118
    88a7:	ba1ca1        	l32r	a10, 0xffff7118
    88aa:	ba1f71        	l32r	a7, 0xffff7128
    88ad:	4f2322        	l32i	a2, a3, 0x13c
    88b0:	fbd342        	addmi	a4, a3, 0xfffffb00
    88b3:	8f23e2        	l32i	a14, a3, 0x23c
    88b6:	ffe9      	s32i.n	a14, a15, 60
    88b8:	7e24d2        	l32i	a13, a4, 0x1f8
    88bb:	df29      	s32i.n	a2, a15, 52
    88bd:	722452        	l32i	a5, a4, 0x1c8
    88c0:	ac2462        	l32i	a6, a4, 0x2b0
    88c3:	64c8      	l32i.n	a12, a4, 24
    88c5:	686472        	s32i	a7, a4, 0x1a0
    88c8:	5fc9      	s32i.n	a12, a15, 20
    88ca:	bf69      	s32i.n	a6, a15, 44
    88cc:	cf59      	s32i.n	a5, a15, 48
    88ce:	ba2221        	l32r	a2, 0xffff7158
    88d1:	4fd9      	s32i.n	a13, a15, 16
    88d3:	ba24e1        	l32r	a14, 0xffff7164
    88d6:	6163e2        	s32i	a14, a3, 0x184
    88d9:	ba1ad1        	l32r	a13, 0xffff7144
    88dc:	7e64a2        	s32i	a10, a4, 0x1f8
    88df:	6499      	s32i.n	a9, a4, 24
    88e1:	726482        	s32i	a8, a4, 0x1c8
    88e4:	1e6422        	s32i	a2, a4, 120
    88e7:	ba2151        	l32r	a5, 0xffff716c
    88ea:	ba2061        	l32r	a6, 0xffff716c
    88ed:	fcd3c2        	addmi	a12, a3, 0xfffffc00
    88f0:	ba2b71        	l32r	a7, 0xffff719c
    88f3:	306372        	s32i	a7, a3, 192
    88f6:	8cb9      	s32i.n	a11, a12, 32
    88f8:	696462        	s32i	a6, a4, 0x1a4
    88fb:	6a6452        	s32i	a5, a4, 0x1a8
    88fe:	ba2f21        	l32r	a2, 0xffff71bc
    8901:	ba2a81        	l32r	a8, 0xffff71ac
    8904:	ba2991        	l32r	a9, 0xffff71a8
    8907:	ba28a1        	l32r	a10, 0xffff71a8
    890a:	a663a2        	s32i	a10, a3, 0x298
    890d:	4f6392        	s32i	a9, a3, 0x13c
    8910:	8f6382        	s32i	a8, a3, 0x23c
    8913:	d66322        	s32i	a2, a3, 0x358
    8916:	6c6cd2        	s32i	a13, a12, 0x1b0
    8919:	ba2d51        	l32r	a5, 0xffff71d0
    891c:	ba2c61        	l32r	a6, 0xffff71cc
    891f:	ba27b1        	l32r	a11, 0xffff71bc
    8922:	a163b2        	s32i	a11, a3, 0x284
    8925:	246362        	s32i	a6, a3, 144
    8928:	a36352        	s32i	a5, a3, 0x28c
    892b:	ba26c1        	l32r	a12, 0xffff71c4
    892e:	ba25d1        	l32r	a13, 0xffff71c4
    8931:	3a63d2        	s32i	a13, a3, 232
    8934:	7063c2        	s32i	a12, a3, 0x1c0
    8937:	ba2e41        	l32r	a4, 0xffff71f0
    893a:	ba23f1        	l32r	a15, 0xffff71c8
    893d:	1b63f2        	s32i	a15, a3, 108
    8940:	b36342        	s32i	a4, a3, 0x2cc
    8943:	f01d      	excw
    8945:	000000        	ill
    8948:	004136        	excw
    894b:	ba3031        	l32r	a3, 0xffff720c
    894e:	ba3181        	l32r	a8, 0xffff7214
    8951:	0020c0        	memw
    8954:	862852        	l32i	a5, a8, 0x218
    8957:	bfaf92        	movi	a9, -65
    895a:	105590        	and	a5, a5, a9
    895d:	0020c0        	memw
    8960:	866852        	s32i	a5, a8, 0x218
    8963:	0020c0        	memw
    8966:	812322        	l32i	a2, a3, 0x204
    8969:	00a142        	movi	a4, 0x100
    896c:	202240        	or	a2, a2, a4
    896f:	0020c0        	memw
    8972:	816322        	s32i	a2, a3, 0x204
    8975:	f01d      	excw
    8977:	413600        	srli	a3, a0, 6
    897a:	303100        	xor	a3, a1, a0
    897d:	c0ba      	add.n	a12, a0, a11
    897f:	820020        	mull	a0, a0, a2
    8982:	4c8423        	excw
    8985:	9029      	s32i.n	a2, a0, 36
    8987:	2088      	l32i.n	a8, a0, 8
    8989:	0020c0        	memw
    898c:	846382        	s32i	a8, a3, 0x210
    898f:	0020c0        	memw
    8992:	ba3241        	l32r	a4, 0xffff725c
    8995:	d02322        	l32i	a2, a3, 0x340
    8998:	202240        	or	a2, a2, a4
    899b:	0020c0        	memw
    899e:	d06322        	s32i	a2, a3, 0x340
    89a1:	f01d      	excw
    89a3:	413600        	srli	a3, a0, 6
    89a6:	309100        	xor	a9, a1, a0
    89a9:	81ba      	add.n	a8, a1, a11
    89ab:	71ba34        	excw
    89ae:	c0ba33        	excw
    89b1:	a10020        	excw
    89b4:	42ba35        	excw
    89b7:	c429      	s32i.n	a2, a4, 48
    89b9:	152762        	l32i	a6, a7, 84
    89bc:	1044a0        	and	a4, a4, a10
    89bf:	a6ec      	bnez.n	a6, 0x89ed
    89c1:	20f480        	or	a15, a4, a8
    89c4:	0020c0        	memw
    89c7:	c469f2        	s32i	a15, a9, 0x310
    89ca:	ba36e1        	l32r	a14, 0xffff72a4
    89cd:	1027d2        	l32i	a13, a7, 64
    89d0:	10dde0        	and	a13, a13, a14
    89d3:	0020c0        	memw
    89d6:	c569d2        	s32i	a13, a9, 0x314
    89d9:	0020c0        	memw
    89dc:	ba37c1        	l32r	a12, 0xffff72b8
    89df:	c029b2        	l32i	a11, a9, 0x300
    89e2:	20bbc0        	or	a11, a11, a12
    89e5:	0020c0        	memw
    89e8:	c069b2        	s32i	a11, a9, 0x300
    89eb:	f01d      	excw
    89ed:	1e1752        	l16ui	a5, a7, 60
    89f0:	0bb567        	bgeu	a5, a6, 0x89ff
    89f3:	126752        	s32i	a5, a7, 72
    89f6:	642050        	extui	a2, a5, 0, 7
    89f9:	204420        	or	a4, a4, a2
    89fc:	fff046        	j	0x89c1
    89ff:	065d      	mov.n	a5, a6
    8a01:	fffc46        	j	0x89f6
    8a04:	004136        	excw
    8a07:	ba3891        	l32r	a9, 0xffff72e8
    8a0a:	b80982        	l8ui	a8, a9, 184
    8a0d:	2129a2        	l32i	a10, a9, 132
    8a10:	07a816        	beqz	a8, 0x8a8e
    8a13:	80c942        	addi	a4, a9, -128
    8a16:	074a56        	bnez	a10, 0x8a8e
    8a19:	b94ac1        	l32r	a12, 0xffff6f44
    8a1c:	2d29b2        	l32i	a11, a9, 180
    8a1f:	ba3021        	l32r	a2, 0xffff72e0
    8a22:	8bbc      	beqz.n	a11, 0x8a5e
    8a24:	0020c0        	memw
    8a27:	8e14b2        	l16ui	a11, a4, 0x11c
    8a2a:	ba3981        	l32r	a8, 0xffff7310
    8a2d:	d42232        	l32i	a3, a2, 0x350
    8a30:	4a24a2        	l32i	a10, a4, 0x128
    8a33:	1033c0        	and	a3, a3, a12
    8a36:	108a80        	and	a8, a10, a8
    8a39:	203380        	or	a3, a3, a8
    8a3c:	abaa      	add.n	a10, a11, a10
    8a3e:	aa0b      	addi.n	a10, a10, -1
    8a40:	04afe5        	excw
    8a43:	ba3a91        	l32r	a9, 0xffff732c
    8a46:	018ad0        	slli	a8, a10, 19
    8a49:	108890        	and	a8, a8, a9
    8a4c:	b99b91        	l32r	a9, 0xffff70b8
    8a4f:	208380        	or	a8, a3, a8
    8a52:	208890        	or	a8, a8, a9
    8a55:	0020c0        	memw
    8a58:	d46282        	s32i	a8, a2, 0x350
    8a5b:	000506        	j	0x8a73
    8a5e:	0020c0        	memw
    8a61:	d422a2        	l32i	a10, a2, 0x350
    8a64:	ba3bb1        	l32r	a11, 0xffff7350
    8a67:	10aac0        	and	a10, a10, a12
    8a6a:	20aab0        	or	a10, a10, a11
    8a6d:	0020c0        	memw
    8a70:	d462a2        	s32i	a10, a2, 0x350
    8a73:	4824d2        	l32i	a13, a4, 0x120
    8a76:	0020c0        	memw
    8a79:	d562d2        	s32i	a13, a2, 0x354
    8a7c:	0020c0        	memw
    8a7f:	ba37c1        	l32r	a12, 0xffff735c
    8a82:	d022b2        	l32i	a11, a2, 0x340
    8a85:	20bbc0        	or	a11, a11, a12
    8a88:	0020c0        	memw
    8a8b:	d062b2        	s32i	a11, a2, 0x340
    8a8e:	f01d      	excw
    8a90:	004136        	excw
    8a93:	ba3391        	l32r	a9, 0xffff7360
    8a96:	580982        	l8ui	a8, a9, 88
    8a99:	99a8      	l32i.n	a10, a9, 36
    8a9b:	988c      	beqz.n	a8, 0x8aa8
    8a9d:	7acc      	bnez.n	a10, 0x8aa8
    8a9f:	c9b8      	l32i.n	a11, a9, 48
    8aa1:	3b8c      	beqz.n	a11, 0x8aa8
    8aa3:	fff025        	excw
    8aa6:	f01d      	excw
    8aa8:	f01d      	excw
    8aaa:	360000        	excw
    8aad:	410041        	l32r	a4, 0xfffd8eb0
    8ab0:	21ba30        	srai	a11, a3, 10
    8ab3:	c0ba33        	excw
    8ab6:	820020        	mull	a0, a0, a2
    8ab9:	925802        	s16i	a0, a8, 0x124
    8abc:	bcc424        	excw
    8abf:	a808      	l32i.n	a0, a8, 40
    8ac1:	caacc2        	movi	a12, 0xfffffcca
    8ac4:	152232        	l32i	a3, a2, 84
    8ac7:	055390        	extui	a5, a9, 19, 1
    8aca:	43ac      	beqz.n	a3, 0x8af2
    8acc:	227937        	bbci	a9, 19, 0x8af2
    8acf:	1e1262        	l16ui	a6, a2, 60
    8ad2:	06bd      	mov.n	a11, a6
    8ad4:	a63a      	add.n	a10, a6, a3
    8ad6:	aa0b      	addi.n	a10, a10, -1
    8ad8:	04a665        	excw
    8adb:	1122b2        	l32i	a11, a2, 68
    8ade:	c0ca50        	sub	a12, a10, a5
    8ae1:	82c6c0        	mull	a12, a6, a12
    8ae4:	1362c2        	s32i	a12, a2, 76
    8ae7:	bbca      	add.n	a11, a11, a12
    8ae9:	1062b2        	s32i	a11, a2, 64
    8aec:	c0c3c0        	sub	a12, a3, a12
    8aef:	1262c2        	s32i	a12, a2, 72
    8af2:	0020c0        	memw
    8af5:	ba38d1        	l32r	a13, 0xffff73d8
    8af8:	d42492        	l32i	a9, a4, 0x350
    8afb:	b80dd2        	l8ui	a13, a13, 184
    8afe:	4d2232        	l32i	a3, a2, 0x134
    8b01:	adac      	beqz.n	a13, 0x8b2f
    8b03:	83ac      	beqz.n	a3, 0x8b2f
    8b05:	954390        	extui	a4, a9, 19, 10
    8b08:	34ac      	beqz.n	a4, 0x8b2f
    8b0a:	8e1252        	l16ui	a5, a2, 0x11c
    8b0d:	ba3c61        	l32r	a6, 0xffff7400
    8b10:	05bd      	mov.n	a11, a5
    8b12:	a53a      	add.n	a10, a5, a3
    8b14:	aa0b      	addi.n	a10, a10, -1
    8b16:	04a2a5        	excw
    8b19:	4922c2        	l32i	a12, a2, 0x124
    8b1c:	c0da40        	sub	a13, a10, a4
    8b1f:	82d5d0        	mull	a13, a5, a13
    8b22:	b6d9      	s32i.n	a13, a6, 44
    8b24:	c0b3d0        	sub	a11, a3, a13
    8b27:	ccda      	add.n	a12, a12, a13
    8b29:	86c9      	s32i.n	a12, a6, 32
    8b2b:	a6b9      	s32i.n	a11, a6, 40
    8b2d:	d6b9      	s32i.n	a11, a6, 52
    8b2f:	b91681        	l32r	a8, 0xffff6f88
    8b32:	c888      	l32i.n	a8, a8, 48
    8b34:	0a0c      	movi.n	a10, 0
    8b36:	0008e0        	excw
    8b39:	fff565        	excw
    8b3c:	ffec65        	excw
    8b3f:	f01d      	excw
    8b41:	000000        	ill
    8b44:	004136        	excw
    8b47:	ba30a1        	l32r	a10, 0xffff7408
    8b4a:	0020c0        	memw
    8b4d:	c42a82        	l32i	a8, a10, 0x310
    8b50:	137837        	bbci	a8, 19, 0x8b67
    8b53:	0020c0        	memw
    8b56:	ba37b1        	l32r	a11, 0xffff7434
    8b59:	c02a92        	l32i	a9, a10, 0x300
    8b5c:	2099b0        	or	a9, a9, a11
    8b5f:	0020c0        	memw
    8b62:	c06a92        	s32i	a9, a10, 0x300
    8b65:	f01d      	excw
    8b67:	fff2a5        	excw
    8b6a:	f01d      	excw
    8b6c:	004136        	excw
    8b6f:	ba30a1        	l32r	a10, 0xffff7430
    8b72:	0020c0        	memw
    8b75:	c42a82        	l32i	a8, a10, 0x310
    8b78:	137837        	bbci	a8, 19, 0x8b8f
    8b7b:	0020c0        	memw
    8b7e:	ba37b1        	l32r	a11, 0xffff745c
    8b81:	d02a92        	l32i	a9, a10, 0x340
    8b84:	2099b0        	or	a9, a9, a11
    8b87:	0020c0        	memw
    8b8a:	d06a92        	s32i	a9, a10, 0x340
    8b8d:	f01d      	excw
    8b8f:	ffe765        	excw
    8b92:	f01d      	excw
    8b94:	004136        	excw
    8b97:	8288      	l32i.n	a8, a2, 32
    8b99:	2f5826        	beqi	a8, 5, 0x8bcc
    8b9c:	b91651        	l32r	a5, 0xffff6ff4
    8b9f:	4c0c      	movi.n	a12, 4
    8ba1:	24c242        	addi	a4, a2, 36
    8ba4:	c4a2b2        	movi	a11, 0x2c4
    8ba7:	b2ba      	add.n	a11, a2, a11
    8ba9:	04ad      	mov.n	a10, a4
    8bab:	82c9      	s32i.n	a12, a2, 32
    8bad:	532582        	l32i	a8, a5, 0x14c
    8bb0:	0c0c      	movi.n	a12, 0
    8bb2:	0008e0        	excw
    8bb5:	02ad      	mov.n	a10, a2
    8bb7:	c239      	s32i.n	a3, a2, 48
    8bb9:	090c      	movi.n	a9, 0
    8bbb:	172582        	l32i	a8, a5, 92
    8bbe:	146292        	s32i	a9, a2, 80
    8bc1:	0008e0        	excw
    8bc4:	242582        	l32i	a8, a5, 144
    8bc7:	04ad      	mov.n	a10, a4
    8bc9:	0008e0        	excw
    8bcc:	f01d      	excw
    8bce:	360000        	excw
    8bd1:	410041        	l32r	a4, 0xfffd8fd4
    8bd4:	30b916        	beqz	a9, 0x8ee3
    8bd7:	b67490        	excw
    8bda:	0929      	s32i.n	a2, a9, 0
    8bdc:	492482        	l32i	a8, a4, 0x124
    8bdf:	02ad      	mov.n	a10, a2
    8be1:	0008e0        	excw
    8be4:	f01d      	excw
    8be6:	450c      	movi.n	a5, 4
    8be8:	b722a2        	l32i	a10, a2, 0x2dc
    8beb:	060c      	movi.n	a6, 0
    8bed:	54a232        	movi	a3, 0x254
    8bf0:	370c      	movi.n	a7, 3
    8bf2:	b46272        	s32i	a7, a2, 0x2d0
    8bf5:	323a      	add.n	a3, a2, a3
    8bf7:	804362        	s8i	a6, a3, 128
    8bfa:	5adc      	bnez.n	a10, 0x8c13
    8bfc:	804392        	s8i	a9, a3, 128
    8bff:	075916        	beqz	a9, 0x8c78
    8c02:	b46252        	s32i	a5, a2, 0x2d0
    8c05:	02ad      	mov.n	a10, a2
    8c07:	06bd      	mov.n	a11, a6
    8c09:	2a2482        	l32i	a8, a4, 168
    8c0c:	0c0c      	movi.n	a12, 0
    8c0e:	0008e0        	excw
    8c11:	f01d      	excw
    8c13:	b9dc      	bnez.n	a9, 0x8c32
    8c15:	b97d81        	l32r	a8, 0xffff720c
    8c18:	a888      	l32i.n	a8, a8, 40
    8c1a:	ca0c      	movi.n	a10, 12
    8c1c:	0008e0        	excw
    8c1f:	1f2392        	l32i	a9, a3, 124
    8c22:	543926        	beqi	a9, 3, 0x8c7a
    8c25:	514926        	beqi	a9, 4, 0x8c7a
    8c28:	492482        	l32i	a8, a4, 0x124
    8c2b:	02ad      	mov.n	a10, a2
    8c2d:	0008e0        	excw
    8c30:	f01d      	excw
    8c32:	804392        	s8i	a9, a3, 128
    8c35:	b46252        	s32i	a5, a2, 0x2d0
    8c38:	212a66        	bnei	a10, 2, 0x8c5d
    8c3b:	b90e91        	l32r	a9, 0xffff7074
    8c3e:	0998      	l32i.n	a9, a9, 0
    8c40:	2f2992        	l32i	a9, a9, 188
    8c43:	699c      	beqz.n	a9, 0x8c5d
    8c45:	06bd      	mov.n	a11, a6
    8c47:	02ad      	mov.n	a10, a2
    8c49:	2a2482        	l32i	a8, a4, 168
    8c4c:	0c0c      	movi.n	a12, 0
    8c4e:	0008e0        	excw
    8c51:	02ad      	mov.n	a10, a2
    8c53:	0b0c      	movi.n	a11, 0
    8c55:	2a2482        	l32i	a8, a4, 168
    8c58:	1c0c      	movi.n	a12, 1
    8c5a:	0008e0        	excw
    8c5d:	b91491        	l32r	a9, 0xffff70b0
    8c60:	341992        	l16ui	a9, a9, 104
    8c63:	050957        	bnone	a9, a5, 0x8c6c
    8c66:	2223a2        	l32i	a10, a3, 136
    8c69:	0b1a66        	bnei	a10, 1, 0x8c78
    8c6c:	02ad      	mov.n	a10, a2
    8c6e:	0b0c      	movi.n	a11, 0
    8c70:	2a2482        	l32i	a8, a4, 168
    8c73:	2c0c      	movi.n	a12, 2
    8c75:	0008e0        	excw
    8c78:	f01d      	excw
    8c7a:	1f6372        	s32i	a7, a3, 124
    8c7d:	804362        	s8i	a6, a3, 128
    8c80:	f01d      	excw
    8c82:	360000        	excw
    8c85:	0c0041        	l32r	a4, 0xfffcbc88
    8c88:	a2e207        	bbsi	a2, 0, 0x8c2e
    8c8b:	03a254        	excw
    8c8e:	165101        	l32r	a0, 0xfffce5d4
    8c91:	16b9      	s32i.n	a11, a6, 4
    8c93:	23da      	add.n	a2, a3, a13
    8c95:	8a0b      	addi.n	a8, a10, -1
    8c97:	172816        	beqz	a8, 0x8e0d
    8c9a:	fdca92        	addi	a9, a10, -3
    8c9d:	182916        	beqz	a9, 0x8e23
    8ca0:	b914b1        	l32r	a11, 0xffff70f0
    8ca3:	b90ef1        	l32r	a15, 0xffff70dc
    8ca6:	ba3d61        	l32r	a6, 0xffff759c
    8ca9:	4c0c      	movi.n	a12, 4
    8cab:	facad2        	addi	a13, a10, -6
    8cae:	0e4d16        	beqz	a13, 0x8d96
    8cb1:	429a26        	beqi	a10, 10, 0x8cf7
    8cb4:	b80c      	movi.n	a8, 11
    8cb6:	0d1a87        	beq	a10, a8, 0x8cc7
    8cb9:	02ad      	mov.n	a10, a2
    8cbb:	03bd      	mov.n	a11, a3
    8cbd:	1c2582        	l32i	a8, a5, 112
    8cc0:	04cd      	mov.n	a12, a4
    8cc2:	0008e0        	excw
    8cc5:	f01d      	excw
    8cc7:	341ba2        	l16ui	a10, a11, 104
    8cca:	109ac0        	and	a9, a10, a12
    8ccd:	04d2a0        	extui	a13, a10, 2, 1
    8cd0:	08bd56        	bnez	a13, 0x8d5f
    8cd3:	b72282        	l32i	a8, a2, 0x2dc
    8cd6:	fec882        	addi	a8, a8, -2
    8cd9:	0b0856        	bnez	a8, 0x8d8d
    8cdc:	0f88      	l32i.n	a8, a15, 0
    8cde:	021392        	l16ui	a9, a3, 4
    8ce1:	2f2882        	l32i	a8, a8, 188
    8ce4:	09dd      	mov.n	a13, a9
    8ce6:	0a6856        	bnez	a8, 0x8d90
    8ce9:	d92b      	addi.n	a13, a9, 2
    8ceb:	f4d0d0        	extui	a13, a13, 0, 16
    8cee:	0253d2        	s16i	a13, a3, 4
    8cf1:	341ba2        	l16ui	a10, a11, 104
    8cf4:	002606        	j	0x8d90
    8cf7:	b42282        	l32i	a8, a2, 0x2d0
    8cfa:	b722a2        	l32i	a10, a2, 0x2dc
    8cfd:	fcc882        	addi	a8, a8, -4
    8d00:	0dd856        	bnez	a8, 0x8de1
    8d03:	021392        	l16ui	a9, a3, 4
    8d06:	09dd      	mov.n	a13, a9
    8d08:	0249b6        	bltui	a9, 4, 0x8d0e
    8d0b:	007906        	j	0x8ef3
    8d0e:	142a66        	bnei	a10, 2, 0x8d26
    8d11:	0fc8      	l32i.n	a12, a15, 0
    8d13:	2f2cc2        	l32i	a12, a12, 188
    8d16:	cccc      	bnez.n	a12, 0x8d26
    8d18:	341bf2        	l16ui	a15, a11, 104
    8d1b:	07ef27        	bbsi	a15, 2, 0x8d26
    8d1e:	d92b      	addi.n	a13, a9, 2
    8d20:	f4d0d0        	extui	a13, a13, 0, 16
    8d23:	0253d2        	s16i	a13, a3, 4
    8d26:	06bd      	mov.n	a11, a6
    8d28:	04ad      	mov.n	a10, a4
    8d2a:	9d2a      	add.n	a9, a13, a2
    8d2c:	99ea      	add.n	a9, a9, a14
    8d2e:	820992        	l8ui	a9, a9, 130
    8d31:	004692        	s8i	a9, a6, 0
    8d34:	031322        	l16ui	a2, a3, 6
    8d37:	180c      	movi.n	a8, 1
    8d39:	632280        	excw
    8d3c:	f42020        	extui	a2, a2, 0, 16
    8d3f:	532582        	l32i	a8, a5, 0x14c
    8d42:	02cd      	mov.n	a12, a2
    8d44:	0008e0        	excw
    8d47:	0b0c      	movi.n	a11, 0
    8d49:	628c      	beqz.n	a2, 0x8d53
    8d4b:	54c020        	extui	a12, a2, 0, 6
    8d4e:	1a0c      	movi.n	a10, 1
    8d50:	83bac0        	moveqz	a11, a10, a12
    8d53:	b4b9      	s32i.n	a11, a4, 44
    8d55:	242582        	l32i	a8, a5, 144
    8d58:	04ad      	mov.n	a10, a4
    8d5a:	0008e0        	excw
    8d5d:	f01d      	excw
    8d5f:	0213d2        	l16ui	a13, a3, 4
    8d62:	e98c      	beqz.n	a9, 0x8d74
    8d64:	92ea      	add.n	a9, a2, a14
    8d66:	222992        	l32i	a9, a9, 136
    8d69:	071966        	bnei	a9, 1, 0x8d74
    8d6c:	dd2b      	addi.n	a13, a13, 2
    8d6e:	f4d0d0        	extui	a13, a13, 0, 16
    8d71:	0253d2        	s16i	a13, a3, 4
    8d74:	0113b2        	l16ui	a11, a3, 2
    8d77:	0dcd      	mov.n	a12, a13
    8d79:	2a2582        	l32i	a8, a5, 168
    8d7c:	02ad      	mov.n	a10, a2
    8d7e:	0008e0        	excw
    8d81:	02ad      	mov.n	a10, a2
    8d83:	4d2582        	l32i	a8, a5, 0x134
    8d86:	1b0c      	movi.n	a11, 1
    8d88:	0008e0        	excw
    8d8b:	f01d      	excw
    8d8d:	0213d2        	l16ui	a13, a3, 4
    8d90:	109ac0        	and	a9, a10, a12
    8d93:	fff2c6        	j	0x8d62
    8d96:	b72292        	l32i	a9, a2, 0x2dc
    8d99:	4e2966        	bnei	a9, 2, 0x8deb
    8d9c:	0fa8      	l32i.n	a10, a15, 0
    8d9e:	2f2aa2        	l32i	a10, a10, 188
    8da1:	cacc      	bnez.n	a10, 0x8db1
    8da3:	341bc2        	l16ui	a12, a11, 104
    8da6:	07ec27        	bbsi	a12, 2, 0x8db1
    8da9:	0213d2        	l16ui	a13, a3, 4
    8dac:	dd2b      	addi.n	a13, a13, 2
    8dae:	0253d2        	s16i	a13, a3, 4
    8db1:	362966        	bnei	a9, 2, 0x8deb
    8db4:	ba3ea1        	l32r	a10, 0xffff76ac
    8db7:	0213d2        	l16ui	a13, a3, 4
    8dba:	174c      	movi.n	a7, 65
    8dbc:	08dd56        	bnez	a13, 0x8e4d
    8dbf:	0113f2        	l16ui	a15, a3, 2
    8dc2:	dedff2        	addmi	a15, a15, 0xffffde00
    8dc5:	084f56        	bnez	a15, 0x8e4d
    8dc8:	06ad      	mov.n	a10, a6
    8dca:	ba3fb1        	l32r	a11, 0xffff76c8
    8dcd:	031322        	l16ui	a2, a3, 6
    8dd0:	07cd      	mov.n	a12, a7
    8dd2:	632270        	excw
    8dd5:	f42020        	extui	a2, a2, 0, 16
    8dd8:	0487e5        	excw
    8ddb:	0213d2        	l16ui	a13, a3, 4
    8dde:	002386        	j	0x8e70
    8de1:	492582        	l32i	a8, a5, 0x124
    8de4:	02ad      	mov.n	a10, a2
    8de6:	0008e0        	excw
    8de9:	f01d      	excw
    8deb:	02ad      	mov.n	a10, a2
    8ded:	1b2582        	l32i	a8, a5, 108
    8df0:	03bd      	mov.n	a11, a3
    8df2:	0008e0        	excw
    8df5:	06bd      	mov.n	a11, a6
    8df7:	0acd      	mov.n	a12, a10
    8df9:	532582        	l32i	a8, a5, 0x14c
    8dfc:	04ad      	mov.n	a10, a4
    8dfe:	0008e0        	excw
    8e01:	b479      	s32i.n	a7, a4, 44
    8e03:	242582        	l32i	a8, a5, 144
    8e06:	04ad      	mov.n	a10, a4
    8e08:	0008e0        	excw
    8e0b:	f01d      	excw
    8e0d:	b72292        	l32i	a9, a2, 0x2dc
    8e10:	c2ea      	add.n	a12, a2, a14
    8e12:	39ec      	bnez.n	a9, 0x8e39
    8e14:	3c5c72        	s16i	a7, a12, 120
    8e17:	02ad      	mov.n	a10, a2
    8e19:	4d2582        	l32i	a8, a5, 0x134
    8e1c:	1b0c      	movi.n	a11, 1
    8e1e:	0008e0        	excw
    8e21:	f01d      	excw
    8e23:	b72292        	l32i	a9, a2, 0x2dc
    8e26:	c2ea      	add.n	a12, a2, a14
    8e28:	79dc      	bnez.n	a9, 0x8e43
    8e2a:	3c5c72        	s16i	a7, a12, 120
    8e2d:	02ad      	mov.n	a10, a2
    8e2f:	4d2582        	l32i	a8, a5, 0x134
    8e32:	1b0c      	movi.n	a11, 1
    8e34:	0008e0        	excw
    8e37:	f01d      	excw
    8e39:	4b2582        	l32i	a8, a5, 0x12c
    8e3c:	02ad      	mov.n	a10, a2
    8e3e:	0008e0        	excw
    8e41:	f01d      	excw
    8e43:	252582        	l32i	a8, a5, 148
    8e46:	02ad      	mov.n	a10, a2
    8e48:	0008e0        	excw
    8e4b:	f01d      	excw
    8e4d:	1d1d66        	bnei	a13, 1, 0x8e6e
    8e50:	011392        	l16ui	a9, a3, 2
    8e53:	1799a7        	bne	a9, a10, 0x8e6e
    8e56:	06ad      	mov.n	a10, a6
    8e58:	ba40b1        	l32r	a11, 0xffff7758
    8e5b:	4c3c      	movi.n	a12, 52
    8e5d:	031322        	l16ui	a2, a3, 6
    8e60:	483c      	movi.n	a8, 52
    8e62:	632280        	excw
    8e65:	f42020        	extui	a2, a2, 0, 16
    8e68:	047ee5        	excw
    8e6b:	ffdb06        	j	0x8ddb
    8e6e:	020c      	movi.n	a2, 0
    8e70:	ba41a1        	l32r	a10, 0xffff7774
    8e73:	addc      	bnez.n	a13, 0x8e91
    8e75:	011392        	l16ui	a9, a3, 2
    8e78:	1599a7        	bne	a9, a10, 0x8e91
    8e7b:	06ad      	mov.n	a10, a6
    8e7d:	ba42b1        	l32r	a11, 0xffff7788
    8e80:	031322        	l16ui	a2, a3, 6
    8e83:	9c0c      	movi.n	a12, 9
    8e85:	632270        	excw
    8e88:	f42020        	extui	a2, a2, 0, 16
    8e8b:	047ce5        	excw
    8e8e:	000746        	j	0x8eaf
    8e91:	1a1d66        	bnei	a13, 1, 0x8eaf
    8e94:	011382        	l16ui	a8, a3, 2
    8e97:	1498a7        	bne	a8, a10, 0x8eaf
    8e9a:	06ad      	mov.n	a10, a6
    8e9c:	ba43b1        	l32r	a11, 0xffff77a8
    8e9f:	9c0c      	movi.n	a12, 9
    8ea1:	031322        	l16ui	a2, a3, 6
    8ea4:	483c      	movi.n	a8, 52
    8ea6:	632280        	excw
    8ea9:	f42020        	extui	a2, a2, 0, 16
    8eac:	047aa5        	excw
    8eaf:	06bd      	mov.n	a11, a6
    8eb1:	04ad      	mov.n	a10, a4
    8eb3:	532582        	l32i	a8, a5, 0x14c
    8eb6:	02cd      	mov.n	a12, a2
    8eb8:	0008e0        	excw
    8ebb:	0b0c      	movi.n	a11, 0
    8ebd:	628c      	beqz.n	a2, 0x8ec7
    8ebf:	54a020        	extui	a10, a2, 0, 6
    8ec2:	190c      	movi.n	a9, 1
    8ec4:	83b9a0        	moveqz	a11, a9, a10
    8ec7:	b4b9      	s32i.n	a11, a4, 44
    8ec9:	242582        	l32i	a8, a5, 144
    8ecc:	04ad      	mov.n	a10, a4
    8ece:	0008e0        	excw
    8ed1:	f01d      	excw
    8ed3:	04ad      	mov.n	a10, a4
    8ed5:	532582        	l32i	a8, a5, 0x14c
    8ed8:	cca2b2        	movi	a11, 0x2cc
    8edb:	c2ea      	add.n	a12, a2, a14
    8edd:	3c5c72        	s16i	a7, a12, 120
    8ee0:	b2ba      	add.n	a11, a2, a11
    8ee2:	2c0c      	movi.n	a12, 2
    8ee4:	0008e0        	excw
    8ee7:	b479      	s32i.n	a7, a4, 44
    8ee9:	242582        	l32i	a8, a5, 144
    8eec:	04ad      	mov.n	a10, a4
    8eee:	0008e0        	excw
    8ef1:	f01d      	excw
    8ef3:	492582        	l32i	a8, a5, 0x124
    8ef6:	02ad      	mov.n	a10, a2
    8ef8:	0008e0        	excw
    8efb:	f01d      	excw
    8efd:	000000        	ill
    8f00:	004136        	excw
    8f03:	170c      	movi.n	a7, 1
    8f05:	b91651        	l32r	a5, 0xffff7360
    8f08:	060c      	movi.n	a6, 0
    8f0a:	0103d2        	l8ui	a13, a3, 1
    8f0d:	52a2c2        	movi	a12, 0x252
    8f10:	065d16        	beqz	a13, 0x8f79
    8f13:	8d0b      	addi.n	a8, a13, -1
    8f15:	095816        	beqz	a8, 0x8fae
    8f18:	fdcd92        	addi	a9, a13, -3
    8f1b:	0e4916        	beqz	a9, 0x9003
    8f1e:	fbcda2        	addi	a10, a13, -5
    8f21:	18fa16        	beqz	a10, 0x90b4
    8f24:	facdb2        	addi	a11, a13, -6
    8f27:	105b16        	beqz	a11, 0x9030
    8f2a:	f9cde2        	addi	a14, a13, -7
    8f2d:	13ce16        	beqz	a14, 0x906d
    8f30:	f8cdf2        	addi	a15, a13, -8
    8f33:	14af16        	beqz	a15, 0x9081
    8f36:	f7cd82        	addi	a8, a13, -9
    8f39:	089816        	beqz	a8, 0x8fc6
    8f3c:	02ad      	mov.n	a10, a2
    8f3e:	03bd      	mov.n	a11, a3
    8f40:	1c2582        	l32i	a8, a5, 112
    8f43:	04cd      	mov.n	a12, a4
    8f45:	0008e0        	excw
    8f48:	0103d2        	l8ui	a13, a3, 1
    8f4b:	056d26        	beqi	a13, 6, 0x8f54
    8f4e:	027d26        	beqi	a13, 7, 0x8f54
    8f51:	228d66        	bnei	a13, 8, 0x8f77
    8f54:	ba3db1        	l32r	a11, 0xffff7848
    8f57:	04ad      	mov.n	a10, a4
    8f59:	532582        	l32i	a8, a5, 0x14c
    8f5c:	06cd      	mov.n	a12, a6
    8f5e:	0008e0        	excw
    8f61:	0b0c      	movi.n	a11, 0
    8f63:	668c      	beqz.n	a6, 0x8f6d
    8f65:	54a060        	extui	a10, a6, 0, 6
    8f68:	190c      	movi.n	a9, 1
    8f6a:	83b9a0        	moveqz	a11, a9, a10
    8f6d:	b4b9      	s32i.n	a11, a4, 44
    8f6f:	242582        	l32i	a8, a5, 144
    8f72:	04ad      	mov.n	a10, a4
    8f74:	0008e0        	excw
    8f77:	f01d      	excw
    8f79:	b722a2        	l32i	a10, a2, 0x2dc
    8f7c:	92ca      	add.n	a9, a2, a12
    8f7e:	4acc      	bnez.n	a10, 0x8f86
    8f80:	3d5962        	s16i	a6, a9, 122
    8f83:	0002c6        	j	0x8f92
    8f86:	8309b2        	l8ui	a11, a9, 131
    8f89:	11bbf0        	slli	a11, a11, 1
    8f8c:	20bb70        	or	a11, a11, a7
    8f8f:	3d59b2        	s16i	a11, a9, 122
    8f92:	04ad      	mov.n	a10, a4
    8f94:	2c0c      	movi.n	a12, 2
    8f96:	cca2b2        	movi	a11, 0x2cc
    8f99:	532582        	l32i	a8, a5, 0x14c
    8f9c:	b2ba      	add.n	a11, a2, a11
    8f9e:	0008e0        	excw
    8fa1:	b469      	s32i.n	a6, a4, 44
    8fa3:	242582        	l32i	a8, a5, 144
    8fa6:	04ad      	mov.n	a10, a4
    8fa8:	0008e0        	excw
    8fab:	ffe646        	j	0x8f48
    8fae:	b72292        	l32i	a9, a2, 0x2dc
    8fb1:	043956        	bnez	a9, 0x8ff8
    8fb4:	02ad      	mov.n	a10, a2
    8fb6:	07bd      	mov.n	a11, a7
    8fb8:	92ca      	add.n	a9, a2, a12
    8fba:	4d2582        	l32i	a8, a5, 0x134
    8fbd:	3d5962        	s16i	a6, a9, 122
    8fc0:	0008e0        	excw
    8fc3:	ffe046        	j	0x8f48
    8fc6:	0003a2        	l8ui	a10, a3, 0
    8fc9:	04da56        	bnez	a10, 0x901a
    8fcc:	03e670        	rsr.ps	a7
    8fcf:	2a0c      	movi.n	a10, 2
    8fd1:	349070        	extui	a9, a7, 0, 4
    8fd4:	022a97        	blt	a10, a9, 0x8fda
    8fd7:	006270        	rsil	a7, 2
    8fda:	02ad      	mov.n	a10, a2
    8fdc:	292582        	l32i	a8, a5, 164
    8fdf:	0113b2        	l16ui	a11, a3, 2
    8fe2:	0008e0        	excw
    8fe5:	13e670        	wsr.ps	a7
    8fe8:	002010        	rsync
    8feb:	02ad      	mov.n	a10, a2
    8fed:	4d2582        	l32i	a8, a5, 0x134
    8ff0:	1b0c      	movi.n	a11, 1
    8ff2:	0008e0        	excw
    8ff5:	ffd3c6        	j	0x8f48
    8ff8:	4b2582        	l32i	a8, a5, 0x12c
    8ffb:	02ad      	mov.n	a10, a2
    8ffd:	0008e0        	excw
    9000:	ffd106        	j	0x8f48
    9003:	b72292        	l32i	a9, a2, 0x2dc
    9006:	b9dc      	bnez.n	a9, 0x9025
    9008:	02ad      	mov.n	a10, a2
    900a:	07bd      	mov.n	a11, a7
    900c:	92ca      	add.n	a9, a2, a12
    900e:	4d2582        	l32i	a8, a5, 0x134
    9011:	3d5962        	s16i	a6, a9, 122
    9014:	0008e0        	excw
    9017:	ffcb46        	j	0x8f48
    901a:	492582        	l32i	a8, a5, 0x124
    901d:	02ad      	mov.n	a10, a2
    901f:	0008e0        	excw
    9022:	ffc886        	j	0x8f48
    9025:	252582        	l32i	a8, a5, 148
    9028:	02ad      	mov.n	a10, a2
    902a:	0008e0        	excw
    902d:	ffc5c6        	j	0x8f48
    9030:	0113f2        	l16ui	a15, a3, 2
    9033:	41c8f0        	srli	a12, a15, 8
    9036:	f4e8f0        	extui	a14, a15, 8, 16
    9039:	9e0b      	addi.n	a9, a14, -1
    903b:	0aa916        	beqz	a9, 0x90e9
    903e:	fecea2        	addi	a10, a14, -2
    9041:	0d6a16        	beqz	a10, 0x911b
    9044:	793e26        	beqi	a14, 3, 0x90c1
    9047:	fb0c      	movi.n	a11, 15
    9049:	2f9eb7        	bne	a14, a11, 0x907c
    904c:	b914c1        	l32r	a12, 0xffff749c
    904f:	341cc2        	l16ui	a12, a12, 104
    9052:	266c17        	bbci	a12, 1, 0x907c
    9055:	3479      	s32i.n	a7, a4, 12
    9057:	172582        	l32i	a8, a5, 92
    905a:	02ad      	mov.n	a10, a2
    905c:	0008e0        	excw
    905f:	222582        	l32i	a8, a5, 136
    9062:	04ad      	mov.n	a10, a4
    9064:	0008e0        	excw
    9067:	0479      	s32i.n	a7, a4, 0
    9069:	8279      	s32i.n	a7, a2, 32
    906b:	f01d      	excw
    906d:	031362        	l16ui	a6, a3, 6
    9070:	2ca182        	movi	a8, 0x12c
    9073:	636680        	excw
    9076:	f46060        	extui	a6, a6, 0, 16
    9079:	ffb386        	j	0x8f4b
    907c:	060c      	movi.n	a6, 0
    907e:	ffb246        	j	0x8f4b
    9081:	000392        	l8ui	a9, a3, 0
    9084:	22e966        	bnei	a9, 128, 0x90aa
    9087:	ba3d91        	l32r	a9, 0xffff797c
    908a:	82ca      	add.n	a8, a2, a12
    908c:	820882        	l8ui	a8, a8, 130
    908f:	004982        	s8i	a8, a9, 0
    9092:	031362        	l16ui	a6, a3, 6
    9095:	636670        	excw
    9098:	f46060        	extui	a6, a6, 0, 16
    909b:	ea9656        	bnez	a6, 0x8f48
    909e:	02ad      	mov.n	a10, a2
    90a0:	4d2582        	l32i	a8, a5, 0x134
    90a3:	0b0c      	movi.n	a11, 0
    90a5:	0008e0        	excw
    90a8:	f01d      	excw
    90aa:	492582        	l32i	a8, a5, 0x124
    90ad:	02ad      	mov.n	a10, a2
    90af:	0008e0        	excw
    90b2:	f01d      	excw
    90b4:	02ad      	mov.n	a10, a2
    90b6:	4a2582        	l32i	a8, a5, 0x128
    90b9:	03bd      	mov.n	a11, a3
    90bb:	0008e0        	excw
    90be:	ffa186        	j	0x8f48
    90c1:	b72292        	l32i	a9, a2, 0x2dc
    90c4:	fb4916        	beqz	a9, 0x907c
    90c7:	eea0b2        	movi	a11, 238
    90ca:	74a0f0        	extui	a10, a15, 0, 8
    90cd:	ab9ab7        	bne	a10, a11, 0x907c
    90d0:	c279      	s32i.n	a7, a2, 48
    90d2:	222582        	l32i	a8, a5, 136
    90d5:	24c2a2        	addi	a10, a2, 36
    90d8:	0008e0        	excw
    90db:	02ad      	mov.n	a10, a2
    90dd:	9279      	s32i.n	a7, a2, 36
    90df:	172582        	l32i	a8, a5, 92
    90e2:	8279      	s32i.n	a7, a2, 32
    90e4:	0008e0        	excw
    90e7:	f01d      	excw
    90e9:	ba22b2        	l32i	a11, a2, 0x2e8
    90ec:	ba3da1        	l32r	a10, 0xffff79e0
    90ef:	031362        	l16ui	a6, a3, 6
    90f2:	281c      	movi.n	a8, 18
    90f4:	636680        	excw
    90f7:	f46060        	extui	a6, a6, 0, 16
    90fa:	06cd      	mov.n	a12, a6
    90fc:	0455a5        	excw
    90ff:	000486        	j	0x9115
    9102:	02ad      	mov.n	a10, a2
    9104:	06bd      	mov.n	a11, a6
    9106:	0113c2        	l16ui	a12, a3, 2
    9109:	272582        	l32i	a8, a5, 156
    910c:	41c8c0        	srli	a12, a12, 8
    910f:	0008e0        	excw
    9112:	f460a0        	extui	a6, a10, 0, 16
    9115:	0103d2        	l8ui	a13, a3, 1
    9118:	ff8bc6        	j	0x8f4b
    911b:	02ad      	mov.n	a10, a2
    911d:	ba3db1        	l32r	a11, 0xffff7a14
    9120:	272582        	l32i	a8, a5, 156
    9123:	0b6d      	mov.n	a6, a11
    9125:	0008e0        	excw
    9128:	0313c2        	l16ui	a12, a3, 6
    912b:	d33ac7        	bltu	a10, a12, 0x9102
    912e:	0cad      	mov.n	a10, a12
    9130:	fff786        	j	0x9112
    9133:	613600        	excw
    9136:	221600        	excw
    9139:	44a104        	excw
    913c:	0cba      	add.n	a0, a12, a11
    913e:	1c0b      	addi.n	a1, a12, -1
    9140:	650c      	movi.n	a5, 6
    9142:	0c0463        	excw
    9145:	45c115        	excw
    9148:	b1ba      	add.n	a11, a1, a11
    914a:	0e          	.byte 0xe
    914b:	61b9      	s32i.n	a11, a1, 24
    914d:	31b914        	excw
    9150:	ba3c      	movi.n	a10, 59
    9152:	0248      	l32i.n	a4, a2, 0
    9154:	12a8      	l32i.n	a10, a2, 4
    9156:	776342        	s32i	a4, a3, 0x1dc
    9159:	040c      	movi.n	a4, 0
    915b:	3aec      	bnez.n	a10, 0x9182
    915d:	0298      	l32i.n	a9, a2, 0
    915f:	50cce2        	addi	a14, a12, 80
    9162:	999c      	beqz.n	a9, 0x917f
    9164:	3416d2        	l16ui	a13, a6, 104
    9167:	ba46a1        	l32r	a10, 0xffff7a80
    916a:	890b      	addi.n	a8, a9, -1
    916c:	0ea816        	beqz	a8, 0x925a
    916f:	fec982        	addi	a8, a9, -2
    9172:	127816        	beqz	a8, 0x929d
    9175:	096d27        	bbci	a13, 2, 0x9182
    9178:	0ead      	mov.n	a10, a14
    917a:	000106        	j	0x9182
    917d:	f01d      	excw
    917f:	ba47a1        	l32r	a10, 0xffff7a9c
    9182:	7863a2        	s32i	a10, a3, 0x1e0
    9185:	2298      	l32i.n	a9, a2, 8
    9187:	e0a0d2        	movi	a13, 224
    918a:	29ec      	bnez.n	a9, 0x91b0
    918c:	0298      	l32i.n	a9, a2, 0
    918e:	2e0c      	movi.n	a14, 2
    9190:	999c      	beqz.n	a9, 0x91ad
    9192:	ba4871        	l32r	a7, 0xffff7ab4
    9195:	c0a0a2        	movi	a10, 192
    9198:	890b      	addi.n	a8, a9, -1
    919a:	01a9      	s32i.n	a10, a1, 0
    919c:	b90da1        	l32r	a10, 0xffff75d0
    919f:	1d9816        	beqz	a8, 0x937c
    91a2:	fec982        	addi	a8, a9, -2
    91a5:	1ff816        	beqz	a8, 0x93a8
    91a8:	079d      	mov.n	a9, a7
    91aa:	000086        	j	0x91b0
    91ad:	ba4991        	l32r	a9, 0xffff7ad4
    91b0:	796392        	s32i	a9, a3, 0x1e4
    91b3:	32e8      	l32i.n	a14, a2, 12
    91b5:	0298      	l32i.n	a9, a2, 0
    91b7:	eecc      	bnez.n	a14, 0x91c9
    91b9:	299c      	beqz.n	a9, 0x91cf
    91bb:	ba4ae1        	l32r	a14, 0xffff7ae4
    91be:	f90b      	addi.n	a15, a9, -1
    91c0:	09ff16        	beqz	a15, 0x9263
    91c3:	fec982        	addi	a8, a9, -2
    91c6:	107816        	beqz	a8, 0x92d1
    91c9:	7a63e2        	s32i	a14, a3, 0x1e8
    91cc:	000a46        	j	0x91f9
    91cf:	0ba8      	l32i.n	a10, a11, 0
    91d1:	ba4bb1        	l32r	a11, 0xffff7b00
    91d4:	fa98      	l32i.n	a9, a10, 60
    91d6:	7a63b2        	s32i	a11, a3, 0x1e8
    91d9:	c99c      	beqz.n	a9, 0x91f9
    91db:	1a0926        	beqi	a9, -1, 0x91f9
    91de:	f5f090        	extui	a15, a9, 16, 16
    91e1:	084bf2        	s8i	a15, a11, 8
    91e4:	fae8      	l32i.n	a14, a10, 60
    91e6:	75e8e0        	extui	a14, a14, 24, 8
    91e9:	094be2        	s8i	a14, a11, 9
    91ec:	fad8      	l32i.n	a13, a10, 60
    91ee:	0a4bd2        	s8i	a13, a11, 10
    91f1:	fac8      	l32i.n	a12, a10, 60
    91f3:	41c8c0        	srli	a12, a12, 8
    91f6:	0b4bc2        	s8i	a12, a11, 11
    91f9:	ba33a1        	l32r	a10, 0xffff7ac8
    91fc:	0288      	l32i.n	a8, a2, 0
    91fe:	b91621        	l32r	a2, 0xffff7658
    9201:	58cc      	bnez.n	a8, 0x920a
    9203:	5288      	l32i.n	a8, a2, 20
    9205:	0008e0        	excw
    9208:	f01d      	excw
    920a:	ba4cb1        	l32r	a11, 0xffff7b3c
    920d:	03dac2        	addmi	a12, a10, 0x300
    9210:	656c52        	s32i	a5, a12, 0x194
    9213:	646c42        	s32i	a4, a12, 0x190
    9216:	636c42        	s32i	a4, a12, 0x18c
    9219:	626c42        	s32i	a4, a12, 0x188
    921c:	7b63b2        	s32i	a11, a3, 0x1ec
    921f:	b95091        	l32r	a9, 0xffff7760
    9222:	0020c0        	memw
    9225:	9b2992        	l32i	a9, a9, 0x26c
    9228:	249090        	extui	a9, a9, 0, 3
    922b:	074926        	beqi	a9, 4, 0x9236
    922e:	4288      	l32i.n	a8, a2, 16
    9230:	0008e0        	excw
    9233:	000106        	j	0x923b
    9236:	3288      	l32i.n	a8, a2, 12
    9238:	0008e0        	excw
    923b:	ba4d81        	l32r	a8, 0xffff7b70
    923e:	1888      	l32i.n	a8, a8, 4
    9240:	0008e0        	excw
    9243:	f36a56        	bnez	a10, 0x917d
    9246:	3c2282        	l32i	a8, a2, 240
    9249:	0008e0        	excw
    924c:	402282        	l32i	a8, a2, 0x100
    924f:	0008e0        	excw
    9252:	ba4e91        	l32r	a9, 0xffff7b8c
    9255:	1f6942        	s32i	a4, a9, 124
    9258:	f01d      	excw
    925a:	0482d0        	extui	a8, a13, 2, 1
    925d:	0c7856        	bnez	a8, 0x9328
    9260:	ffc786        	j	0x9182
    9263:	0ba8      	l32i.n	a10, a11, 0
    9265:	1f2a92        	l32i	a9, a10, 124
    9268:	7a63e2        	s32i	a14, a3, 0x1e8
    926b:	0e7916        	beqz	a9, 0x9356
    926e:	b91b      	addi.n	a11, a9, 1
    9270:	0e2b16        	beqz	a11, 0x9356
    9273:	0a4e92        	s8i	a9, a14, 10
    9276:	75c890        	extui	a12, a9, 24, 8
    9279:	f5f090        	extui	a15, a9, 16, 16
    927c:	084ef2        	s8i	a15, a14, 8
    927f:	094ec2        	s8i	a12, a14, 9
    9282:	418890        	srli	a8, a9, 8
    9285:	0b4e82        	s8i	a8, a14, 11
    9288:	341692        	l16ui	a9, a6, 104
    928b:	049290        	extui	a9, a9, 2, 1
    928e:	f67916        	beqz	a9, 0x91f9
    9291:	044ed2        	s8i	a13, a14, 4
    9294:	054e52        	s8i	a5, a14, 5
    9297:	064e52        	s8i	a5, a14, 6
    929a:	ffd6c6        	j	0x91f9
    929d:	04e2d0        	extui	a14, a13, 2, 1
    92a0:	0a9e56        	bnez	a14, 0x934d
    92a3:	0b88      	l32i.n	a8, a11, 0
    92a5:	2f2882        	l32i	a8, a8, 188
    92a8:	7863a2        	s32i	a10, a3, 0x1e0
    92ab:	ed6856        	bnez	a8, 0x9185
    92ae:	ba4f91        	l32r	a9, 0xffff7bec
    92b1:	0209e2        	l8ui	a14, a9, 2
    92b4:	a0eea0        	addx4	a14, a14, a10
    92b7:	0ee8      	l32i.n	a14, a14, 0
    92b9:	6d0c      	movi.n	a13, 6
    92bb:	024e42        	s8i	a4, a14, 2
    92be:	0cad76        	excw
    92c1:	030982        	l8ui	a8, a9, 3
    92c4:	a088a0        	addx4	a8, a8, a10
    92c7:	0888      	l32i.n	a8, a8, 0
    92c9:	991b      	addi.n	a9, a9, 1
    92cb:	024852        	s8i	a5, a8, 2
    92ce:	ffacc6        	j	0x9185
    92d1:	0ba8      	l32i.n	a10, a11, 0
    92d3:	2f2a92        	l32i	a9, a10, 188
    92d6:	7a63e2        	s32i	a14, a3, 0x1e8
    92d9:	79cc      	bnez.n	a9, 0x92e4
    92db:	044ed2        	s8i	a13, a14, 4
    92de:	054e52        	s8i	a5, a14, 5
    92e1:	064e52        	s8i	a5, a14, 6
    92e4:	1f2a92        	l32i	a9, a10, 124
    92e7:	0fe916        	beqz	a9, 0x93e9
    92ea:	b91b      	addi.n	a11, a9, 1
    92ec:	0f9b16        	beqz	a11, 0x93e9
    92ef:	0a4e92        	s8i	a9, a14, 10
    92f2:	75d890        	extui	a13, a9, 24, 8
    92f5:	f5f090        	extui	a15, a9, 16, 16
    92f8:	084ef2        	s8i	a15, a14, 8
    92fb:	094ed2        	s8i	a13, a14, 9
    92fe:	418890        	srli	a8, a9, 8
    9301:	0b4e82        	s8i	a8, a14, 11
    9304:	341692        	l16ui	a9, a6, 104
    9307:	049290        	extui	a9, a9, 2, 1
    930a:	eeb916        	beqz	a9, 0x91f9
    930d:	7a63c2        	s32i	a12, a3, 0x1e8
    9310:	0a4c42        	s8i	a4, a12, 10
    9313:	0b1c      	movi.n	a11, 16
    9315:	5d0c      	movi.n	a13, 5
    9317:	aca0e2        	movi	a14, 172
    931a:	084ce2        	s8i	a14, a12, 8
    931d:	094cd2        	s8i	a13, a12, 9
    9320:	0b4cb2        	s8i	a11, a12, 11
    9323:	ffb486        	j	0x91f9
    9326:	920000        	excw
    9329:	40cc      	bnez.n	a0, 0x9331
    932b:	680c      	movi.n	a8, 6
    932d:	0ca876        	excw
    9330:	0309d2        	l8ui	a13, a9, 3
    9333:	a0dde0        	addx4	a13, a13, a14
    9336:	0dd8      	l32i.n	a13, a13, 0
    9338:	991b      	addi.n	a9, a9, 1
    933a:	024d52        	s8i	a5, a13, 2
    933d:	420c82        	l8ui	a8, a12, 66
    9340:	a088e0        	addx4	a8, a8, a14
    9343:	0888      	l32i.n	a8, a8, 0
    9345:	0ead      	mov.n	a10, a14
    9347:	024842        	s8i	a4, a8, 2
    934a:	ff8d06        	j	0x9182
    934d:	ba5091        	l32r	a9, 0xffff7c90
    9350:	786392        	s32i	a9, a3, 0x1e0
    9353:	ff8b86        	j	0x9185
    9356:	102a92        	l32i	a9, a10, 64
    9359:	f2b916        	beqz	a9, 0x9288
    935c:	b91b      	addi.n	a11, a9, 1
    935e:	f26b16        	beqz	a11, 0x9288
    9361:	f58090        	extui	a8, a9, 16, 16
    9364:	084e82        	s8i	a8, a14, 8
    9367:	102af2        	l32i	a15, a10, 64
    936a:	75f8f0        	extui	a15, a15, 24, 8
    936d:	094ef2        	s8i	a15, a14, 9
    9370:	102ac2        	l32i	a12, a10, 64
    9373:	0a4ec2        	s8i	a12, a14, 10
    9376:	102a92        	l32i	a9, a10, 64
    9379:	ffc146        	j	0x9282
    937c:	796372        	s32i	a7, a3, 0x1e4
    937f:	472a82        	l32i	a8, a10, 0x11c
    9382:	3416b2        	l16ui	a11, a6, 104
    9385:	040792        	l8ui	a9, a7, 4
    9388:	04b2b0        	extui	a11, a11, 2, 1
    938b:	939eb0        	movnez	a9, a14, a11
    938e:	044792        	s8i	a9, a7, 4
    9391:	0008e0        	excw
    9394:	b90eb1        	l32r	a11, 0xffff77cc
    9397:	ba45c1        	l32r	a12, 0xffff7cac
    939a:	01e8      	l32i.n	a14, a1, 0
    939c:	e0a0d2        	movi	a13, 224
    939f:	83eda0        	moveqz	a14, a13, a10
    93a2:	0747e2        	s8i	a14, a7, 7
    93a5:	ff8286        	j	0x91b3
    93a8:	472a82        	l32i	a8, a10, 0x11c
    93ab:	b90ea1        	l32r	a10, 0xffff77e4
    93ae:	0aa8      	l32i.n	a10, a10, 0
    93b0:	040792        	l8ui	a9, a7, 4
    93b3:	2f2aa2        	l32i	a10, a10, 188
    93b6:	796372        	s32i	a7, a3, 0x1e4
    93b9:	839ea0        	moveqz	a9, a14, a10
    93bc:	044792        	s8i	a9, a7, 4
    93bf:	0008e0        	excw
    93c2:	ba45c1        	l32r	a12, 0xffff7cd8
    93c5:	01b8      	l32i.n	a11, a1, 0
    93c7:	3e0c      	movi.n	a14, 3
    93c9:	480c      	movi.n	a8, 4
    93cb:	3416f2        	l16ui	a15, a6, 104
    93ce:	0407d2        	l8ui	a13, a7, 4
    93d1:	10ff80        	and	a15, a15, a8
    93d4:	93def0        	movnez	a13, a14, a15
    93d7:	0447d2        	s8i	a13, a7, 4
    93da:	e0a0d2        	movi	a13, 224
    93dd:	83bda0        	moveqz	a11, a13, a10
    93e0:	0747b2        	s8i	a11, a7, 7
    93e3:	b90eb1        	l32r	a11, 0xffff781c
    93e6:	ff7246        	j	0x91b3
    93e9:	112a92        	l32i	a9, a10, 68
    93ec:	f14916        	beqz	a9, 0x9304
    93ef:	b91b      	addi.n	a11, a9, 1
    93f1:	f0fb16        	beqz	a11, 0x9304
    93f4:	f58090        	extui	a8, a9, 16, 16
    93f7:	084e82        	s8i	a8, a14, 8
    93fa:	112af2        	l32i	a15, a10, 68
    93fd:	75f8f0        	extui	a15, a15, 24, 8
    9400:	094ef2        	s8i	a15, a14, 9
    9403:	112ad2        	l32i	a13, a10, 68
    9406:	0a4ed2        	s8i	a13, a14, 10
    9409:	112a92        	l32i	a9, a10, 68
    940c:	ffbb86        	j	0x92fe
    940f:	413600        	srli	a3, a0, 6
    9412:	228200        	excw
    9415:	02adb7        	bge	a13, a11, 0x941b
    9418:	212866        	bnei	a8, 2, 0x943d
    941b:	b90e91        	l32r	a9, 0xffff7854
    941e:	0998      	l32i.n	a9, a9, 0
    9420:	b914b1        	l32r	a11, 0xffff7870
    9423:	2f2992        	l32i	a9, a9, 188
    9426:	341bb2        	l16ui	a11, a11, 104
    9429:	09dc      	bnez.n	a9, 0x943d
    942b:	11eb27        	bbsi	a11, 2, 0x9440
    942e:	ba4fe1        	l32r	a14, 0xffff7d6c
    9431:	b822f2        	l32i	a15, a2, 0x2e0
    9434:	020ee2        	l8ui	a14, a14, 2
    9437:	a0eef0        	addx4	a14, a14, a15
    943a:	000086        	j	0x9440
    943d:	b82ae2        	l32i	a14, a10, 0x2e0
    9440:	b92ab2        	l32i	a11, a10, 0x2e4
    9443:	b91681        	l32r	a8, 0xffff789c
    9446:	03cd      	mov.n	a12, a3
    9448:	282882        	l32i	a8, a8, 160
    944b:	2ca1d2        	movi	a13, 0x12c
    944e:	0008e0        	excw
    9451:	0a2d      	mov.n	a2, a10
    9453:	014342        	s8i	a4, a3, 1
    9456:	f01d      	excw
    9458:	008136        	excw
    945b:	037d      	mov.n	a7, a3
    945d:	2e0c      	movi.n	a14, 2
    945f:	060c      	movi.n	a6, 0
    9461:	b916d1        	l32r	a13, 0xffff78bc
    9464:	c8a052        	movi	a5, 200
    9467:	b72282        	l32i	a8, a2, 0x2dc
    946a:	525a      	add.n	a5, a2, a5
    946c:	38ec      	bnez.n	a8, 0x9493
    946e:	1b5456        	bnez	a4, 0x9627
    9471:	1b2356        	bnez	a3, 0x9627
    9474:	0b4c      	movi.n	a11, 64
    9476:	526262        	s32i	a6, a2, 0x148
    9479:	4f6262        	s32i	a6, a2, 0x13c
    947c:	3ca1a2        	movi	a10, 0x13c
    947f:	a2aa      	add.n	a10, a2, a10
    9481:	7c45e2        	s8i	a14, a5, 124
    9484:	8545e2        	s8i	a14, a5, 133
    9487:	262d82        	l32i	a8, a13, 152
    948a:	aa52b2        	s16i	a11, a2, 0x154
    948d:	0008e0        	excw
    9490:	0064c6        	j	0x9627
    9493:	03bd      	mov.n	a11, a3
    9495:	02ad      	mov.n	a10, a2
    9497:	2c2d82        	l32i	a8, a13, 176
    949a:	04cd      	mov.n	a12, a4
    949c:	0008e0        	excw
    949f:	ba51c1        	l32r	a12, 0xffff7de4
    94a2:	ba52b1        	l32r	a11, 0xffff7dec
    94a5:	490c      	movi.n	a9, 4
    94a7:	ba50f1        	l32r	a15, 0xffff7de8
    94aa:	80a032        	movi	a3, 128
    94ad:	b914a1        	l32r	a10, 0xffff7900
    94b0:	3d0c      	movi.n	a13, 3
    94b2:	ba46e1        	l32r	a14, 0xffff7dcc
    94b5:	21d9      	s32i.n	a13, a1, 8
    94b7:	ba53d1        	l32r	a13, 0xffff7e04
    94ba:	07a456        	bnez	a4, 0x9538
    94bd:	94ca      	add.n	a9, a4, a12
    94bf:	000992        	l8ui	a9, a9, 0
    94c2:	341a82        	l16ui	a8, a10, 104
    94c5:	11a9e0        	slli	a10, a9, 2
    94c8:	eaea      	add.n	a14, a10, a14
    94ca:	0ee8      	l32i.n	a14, a14, 0
    94cc:	096827        	bbci	a8, 2, 0x94d9
    94cf:	8525c2        	l32i	a12, a5, 0x214
    94d2:	032c66        	bnei	a12, 2, 0x94d9
    94d5:	eafa      	add.n	a14, a10, a15
    94d7:	0ee8      	l32i.n	a14, a14, 0
    94d9:	020e82        	l8ui	a8, a14, 2
    94dc:	34c080        	extui	a12, a8, 0, 4
    94df:	10f830        	and	a15, a8, a3
    94e2:	018837        	bany	a8, a3, 0x94e7
    94e5:	0bdd      	mov.n	a13, a11
    94e7:	6cda      	add.n	a6, a12, a13
    94e9:	000662        	l8ui	a6, a6, 0
    94ec:	f06660        	subx8	a6, a6, a6
    94ef:	b06620        	addx8	a6, a6, a2
    94f2:	a698      	l32i.n	a9, a6, 40
    94f4:	12f956        	bnez	a9, 0x9627
    94f7:	2c46c2        	s8i	a12, a6, 44
    94fa:	21a8      	l32i.n	a10, a1, 8
    94fc:	190c      	movi.n	a9, 1
    94fe:	080c      	movi.n	a8, 0
    9500:	1d0c      	movi.n	a13, 1
    9502:	a6d9      	s32i.n	a13, a6, 40
    9504:	9689      	s32i.n	a8, a6, 36
    9506:	93f9f0        	movnez	a15, a9, a15
    9509:	c6f9      	s32i.n	a15, a6, 48
    950b:	83a8f0        	moveqz	a10, a8, a15
    950e:	b91681        	l32r	a8, 0xffff7968
    9511:	050ec2        	l8ui	a12, a14, 5
    9514:	040eb2        	l8ui	a11, a14, 4
    9517:	11cc80        	slli	a12, a12, 8
    951a:	20bbc0        	or	a11, a11, a12
    951d:	1e56b2        	s16i	a11, a6, 60
    9520:	030e92        	l8ui	a9, a14, 3
    9523:	3446a2        	s8i	a10, a6, 52
    9526:	149090        	extui	a9, a9, 0, 2
    9529:	354692        	s8i	a9, a6, 53
    952c:	262882        	l32i	a8, a8, 152
    952f:	24c6a2        	addi	a10, a6, 36
    9532:	0008e0        	excw
    9535:	003b86        	j	0x9627
    9538:	840b      	addi.n	a8, a4, -1
    953a:	0ed856        	bnez	a8, 0x962b
    953d:	341a82        	l16ui	a8, a10, 104
    9540:	44ca      	add.n	a4, a4, a12
    9542:	000442        	l8ui	a4, a4, 0
    9545:	1199      	s32i.n	a9, a1, 4
    9547:	11a4e0        	slli	a10, a4, 2
    954a:	eaea      	add.n	a14, a10, a14
    954c:	0ee8      	l32i.n	a14, a14, 0
    954e:	096827        	bbci	a8, 2, 0x955b
    9551:	852582        	l32i	a8, a5, 0x214
    9554:	032866        	bnei	a8, 2, 0x955b
    9557:	eafa      	add.n	a14, a10, a15
    9559:	0ee8      	l32i.n	a14, a14, 0
    955b:	020e82        	l8ui	a8, a14, 2
    955e:	34c080        	extui	a12, a8, 0, 4
    9561:	10f830        	and	a15, a8, a3
    9564:	018837        	bany	a8, a3, 0x9569
    9567:	0bdd      	mov.n	a13, a11
    9569:	6cda      	add.n	a6, a12, a13
    956b:	000662        	l8ui	a6, a6, 0
    956e:	f06660        	subx8	a6, a6, a6
    9571:	b06620        	addx8	a6, a6, a2
    9574:	a698      	l32i.n	a9, a6, 40
    9576:	0ad956        	bnez	a9, 0x9627
    9579:	2c46c2        	s8i	a12, a6, 44
    957c:	11a8      	l32i.n	a10, a1, 4
    957e:	190c      	movi.n	a9, 1
    9580:	080c      	movi.n	a8, 0
    9582:	1d0c      	movi.n	a13, 1
    9584:	a6d9      	s32i.n	a13, a6, 40
    9586:	9689      	s32i.n	a8, a6, 36
    9588:	93f9f0        	movnez	a15, a9, a15
    958b:	c6f9      	s32i.n	a15, a6, 48
    958d:	83a8f0        	moveqz	a10, a8, a15
    9590:	b91681        	l32r	a8, 0xffff79e8
    9593:	050ec2        	l8ui	a12, a14, 5
    9596:	040eb2        	l8ui	a11, a14, 4
    9599:	11cc80        	slli	a12, a12, 8
    959c:	20bbc0        	or	a11, a11, a12
    959f:	1e56b2        	s16i	a11, a6, 60
    95a2:	030e92        	l8ui	a9, a14, 3
    95a5:	3446a2        	s8i	a10, a6, 52
    95a8:	149090        	extui	a9, a9, 0, 2
    95ab:	354692        	s8i	a9, a6, 53
    95ae:	262882        	l32i	a8, a8, 152
    95b1:	24c6a2        	addi	a10, a6, 36
    95b4:	0008e0        	excw
    95b7:	001b06        	j	0x9627
    95ba:	ba5441        	l32r	a4, 0xffff7f0c
    95bd:	01a8      	l32i.n	a10, a1, 0
    95bf:	ba3121        	l32r	a2, 0xffff7e84
    95c2:	daec      	bnez.n	a10, 0x95f3
    95c4:	b91681        	l32r	a8, 0xffff7a1c
    95c7:	c888      	l32i.n	a8, a8, 48
    95c9:	2a0c      	movi.n	a10, 2
    95cb:	0008e0        	excw
    95ce:	0020c0        	memw
    95d1:	856242        	s32i	a4, a2, 0x214
    95d4:	0020c0        	memw
    95d7:	ba55a1        	l32r	a10, 0xffff7f2c
    95da:	862292        	l32i	a9, a2, 0x218
    95dd:	1099a0        	and	a9, a9, a10
    95e0:	0020c0        	memw
    95e3:	866292        	s32i	a9, a2, 0x218
    95e6:	b91881        	l32r	a8, 0xffff7a48
    95e9:	0a0c      	movi.n	a10, 0
    95eb:	3b2882        	l32i	a8, a8, 236
    95ee:	0b0c      	movi.n	a11, 0
    95f0:	0008e0        	excw
    95f3:	01b8      	l32i.n	a11, a1, 0
    95f5:	022b26        	beqi	a11, 2, 0x95fb
    95f8:	0e4b66        	bnei	a11, 4, 0x960a
    95fb:	0020c0        	memw
    95fe:	8622d2        	l32i	a13, a2, 0x218
    9601:	20dd40        	or	a13, a13, a4
    9604:	0020c0        	memw
    9607:	8662d2        	s32i	a13, a2, 0x218
    960a:	ba56f1        	l32r	a15, 0xffff7f64
    960d:	1e0c      	movi.n	a14, 1
    960f:	385f62        	s16i	a6, a15, 112
    9612:	395f62        	s16i	a6, a15, 114
    9615:	3a5f62        	s16i	a6, a15, 116
    9618:	3b5f62        	s16i	a6, a15, 118
    961b:	3c5f62        	s16i	a6, a15, 120
    961e:	3d5f62        	s16i	a6, a15, 122
    9621:	7c4fe2        	s8i	a14, a15, 124
    9624:	7d4fe2        	s8i	a14, a15, 125
    9627:	020c      	movi.n	a2, 0
    9629:	f01d      	excw
    962b:	80cfe2        	addi	a14, a15, -128
    962e:	1b2466        	bnei	a4, 2, 0x964d
    9631:	341a82        	l16ui	a8, a10, 104
    9634:	109890        	and	a9, a8, a9
    9637:	0a6827        	bbci	a8, 2, 0x9645
    963a:	8525c2        	l32i	a12, a5, 0x214
    963d:	feccc2        	addi	a12, a12, -2
    9640:	0fec16        	beqz	a12, 0x9742
    9643:	0ecd      	mov.n	a12, a14
    9645:	44ca      	add.n	a4, a4, a12
    9647:	000442        	l8ui	a4, a4, 0
    964a:	003d86        	j	0x9744
    964d:	d63466        	bnei	a4, 3, 0x9627
    9650:	0179      	s32i.n	a7, a1, 0
    9652:	341a82        	l16ui	a8, a10, 104
    9655:	a74a      	add.n	a10, a7, a4
    9657:	016827        	bbci	a8, 2, 0x965c
    965a:	0ecd      	mov.n	a12, a14
    965c:	4aca      	add.n	a4, a10, a12
    965e:	000442        	l8ui	a4, a4, 0
    9661:	742b      	addi.n	a7, a4, 2
    9663:	747070        	extui	a7, a7, 0, 8
    9666:	023477        	bltu	a4, a7, 0x966c
    9669:	ffd346        	j	0x95ba
    966c:	8625e2        	l32i	a14, a5, 0x218
    966f:	a0e4e0        	addx4	a14, a4, a14
    9672:	0ee8      	l32i.n	a14, a14, 0
    9674:	020e82        	l8ui	a8, a14, 2
    9677:	ba5291        	l32r	a9, 0xffff7fc0
    967a:	10f830        	and	a15, a8, a3
    967d:	34c080        	extui	a12, a8, 0, 4
    9680:	4e0837        	bnone	a8, a3, 0x96d2
    9683:	9cda      	add.n	a9, a12, a13
    9685:	000962        	l8ui	a6, a9, 0
    9688:	f06660        	subx8	a6, a6, a6
    968b:	b06620        	addx8	a6, a6, a2
    968e:	a688      	l32i.n	a8, a6, 40
    9690:	09e856        	bnez	a8, 0x9732
    9693:	2c46c2        	s8i	a12, a6, 44
    9696:	190c      	movi.n	a9, 1
    9698:	1b0c      	movi.n	a11, 1
    969a:	0a0c      	movi.n	a10, 0
    969c:	96a9      	s32i.n	a10, a6, 36
    969e:	a6b9      	s32i.n	a11, a6, 40
    96a0:	5846a2        	s8i	a10, a6, 88
    96a3:	93f9f0        	movnez	a15, a9, a15
    96a6:	c6f9      	s32i.n	a15, a6, 48
    96a8:	050e82        	l8ui	a8, a14, 5
    96ab:	040eb2        	l8ui	a11, a14, 4
    96ae:	118880        	slli	a8, a8, 8
    96b1:	20bb80        	or	a11, a11, a8
    96b4:	f4b0b0        	extui	a11, a11, 0, 16
    96b7:	1e56b2        	s16i	a11, a6, 60
    96ba:	030e82        	l8ui	a8, a14, 3
    96bd:	41d9      	s32i.n	a13, a1, 16
    96bf:	148080        	extui	a8, a8, 0, 2
    96c2:	354682        	s8i	a8, a6, 53
    96c5:	6f9c      	beqz.n	a15, 0x96df
    96c7:	0c3c26        	beqi	a12, 3, 0x96d7
    96ca:	0c0c      	movi.n	a12, 0
    96cc:	3446c2        	s8i	a12, a6, 52
    96cf:	000446        	j	0x96e4
    96d2:	9c9a      	add.n	a9, a12, a9
    96d4:	ffeb46        	j	0x9685
    96d7:	2a0c      	movi.n	a10, 2
    96d9:	3446a2        	s8i	a10, a6, 52
    96dc:	000106        	j	0x96e4
    96df:	0c0c      	movi.n	a12, 0
    96e1:	3446c2        	s8i	a12, a6, 52
    96e4:	24c6a2        	addi	a10, a6, 36
    96e7:	cbbc      	beqz.n	a11, 0x9727
    96e9:	31a9      	s32i.n	a10, a1, 12
    96eb:	41d9      	s32i.n	a13, a1, 16
    96ed:	df8c      	beqz.n	a15, 0x96fe
    96ef:	b91881        	l32r	a8, 0xffff7b50
    96f2:	90abb0        	addx2	a10, a11, a11
    96f5:	3b2882        	l32i	a8, a8, 236
    96f8:	f4a0a0        	extui	a10, a10, 0, 16
    96fb:	0008e0        	excw
    96fe:	b91681        	l32r	a8, 0xffff7b58
    9701:	190c      	movi.n	a9, 1
    9703:	0a0c      	movi.n	a10, 0
    9705:	1066a2        	s32i	a10, a6, 64
    9708:	1266a2        	s32i	a10, a6, 72
    970b:	1366a2        	s32i	a10, a6, 76
    970e:	1466a2        	s32i	a10, a6, 80
    9711:	1566a2        	s32i	a10, a6, 84
    9714:	1166a2        	s32i	a10, a6, 68
    9717:	584692        	s8i	a9, a6, 88
    971a:	262882        	l32i	a8, a8, 152
    971d:	31a8      	l32i.n	a10, a1, 12
    971f:	0008e0        	excw
    9722:	41d8      	l32i.n	a13, a1, 16
    9724:	000286        	j	0x9732
    9727:	b91681        	l32r	a8, 0xffff7b80
    972a:	2d2882        	l32i	a8, a8, 180
    972d:	0008e0        	excw
    9730:	41d8      	l32i.n	a13, a1, 16
    9732:	441b      	addi.n	a4, a4, 1
    9734:	744040        	extui	a4, a4, 0, 8
    9737:	02b477        	bgeu	a4, a7, 0x973d
    973a:	ffcb86        	j	0x966c
    973d:	060c      	movi.n	a6, 0
    973f:	ff9dc6        	j	0x95ba
    9742:	740c      	movi.n	a4, 7
    9744:	743b      	addi.n	a7, a4, 3
    9746:	747070        	extui	a7, a7, 0, 8
    9749:	998c      	beqz.n	a9, 0x9756
    974b:	852582        	l32i	a8, a5, 0x214
    974e:	042866        	bnei	a8, 2, 0x9756
    9751:	741b      	addi.n	a7, a4, 1
    9753:	747070        	extui	a7, a7, 0, 8
    9756:	023477        	bltu	a4, a7, 0x975c
    9759:	ffb286        	j	0x9627
    975c:	8625e2        	l32i	a14, a5, 0x218
    975f:	341a82        	l16ui	a8, a10, 104
    9762:	a0e4e0        	addx4	a14, a4, a14
    9765:	0ee8      	l32i.n	a14, a14, 0
    9767:	0d6827        	bbci	a8, 2, 0x9778
    976a:	8525f2        	l32i	a15, a5, 0x214
    976d:	072f66        	bnei	a15, 2, 0x9778
    9770:	ba50e1        	l32r	a14, 0xffff80b0
    9773:	a0e4e0        	addx4	a14, a4, a14
    9776:	0ee8      	l32i.n	a14, a14, 0
    9778:	020e82        	l8ui	a8, a14, 2
    977b:	10f830        	and	a15, a8, a3
    977e:	34c080        	extui	a12, a8, 0, 4
    9781:	4a0837        	bnone	a8, a3, 0x97cf
    9784:	9cda      	add.n	a9, a12, a13
    9786:	000962        	l8ui	a6, a9, 0
    9789:	f06660        	subx8	a6, a6, a6
    978c:	b06620        	addx8	a6, a6, a2
    978f:	a688      	l32i.n	a8, a6, 40
    9791:	062856        	bnez	a8, 0x97f7
    9794:	2c46c2        	s8i	a12, a6, 44
    9797:	180c      	movi.n	a8, 1
    9799:	090c      	movi.n	a9, 0
    979b:	9699      	s32i.n	a9, a6, 36
    979d:	93f8f0        	movnez	a15, a8, a15
    97a0:	c6f9      	s32i.n	a15, a6, 48
    97a2:	180c      	movi.n	a8, 1
    97a4:	a689      	s32i.n	a8, a6, 40
    97a6:	050e92        	l8ui	a9, a14, 5
    97a9:	040e82        	l8ui	a8, a14, 4
    97ac:	119980        	slli	a9, a9, 8
    97af:	208890        	or	a8, a8, a9
    97b2:	1e5682        	s16i	a8, a6, 60
    97b5:	030e92        	l8ui	a9, a14, 3
    97b8:	149090        	extui	a9, a9, 0, 2
    97bb:	354692        	s8i	a9, a6, 53
    97be:	190c      	movi.n	a9, 1
    97c0:	8f9c      	beqz.n	a15, 0x97dc
    97c2:	0e1c26        	beqi	a12, 1, 0x97d4
    97c5:	41d9      	s32i.n	a13, a1, 16
    97c7:	0c0c      	movi.n	a12, 0
    97c9:	3446c2        	s8i	a12, a6, 52
    97cc:	0004c6        	j	0x97e3
    97cf:	9cba      	add.n	a9, a12, a11
    97d1:	ffec46        	j	0x9786
    97d4:	344692        	s8i	a9, a6, 52
    97d7:	41d9      	s32i.n	a13, a1, 16
    97d9:	000186        	j	0x97e3
    97dc:	41d9      	s32i.n	a13, a1, 16
    97de:	0e0c      	movi.n	a14, 0
    97e0:	3446e2        	s8i	a14, a6, 52
    97e3:	b91681        	l32r	a8, 0xffff7c3c
    97e6:	262882        	l32i	a8, a8, 152
    97e9:	24c6a2        	addi	a10, a6, 36
    97ec:	0008e0        	excw
    97ef:	41d8      	l32i.n	a13, a1, 16
    97f1:	b914a1        	l32r	a10, 0xffff7c44
    97f4:	ba52b1        	l32r	a11, 0xffff813c
    97f7:	441b      	addi.n	a4, a4, 1
    97f9:	744040        	extui	a4, a4, 0, 8
    97fc:	c09740        	sub	a9, a7, a4
    97ff:	f59956        	bnez	a9, 0x975c
    9802:	ff8846        	j	0x9627
    9805:	000000        	ill
    9808:	006136        	excw
    980b:	f4d030        	extui	a13, a3, 0, 16
    980e:	ba51c1        	l32r	a12, 0xffff8154
    9811:	ba5371        	l32r	a7, 0xffff8160
    9814:	ba46b1        	l32r	a11, 0xffff812c
    9817:	f4a040        	extui	a10, a4, 0, 16
    981a:	051a56        	bnez	a10, 0x986f
    981d:	8aca      	add.n	a8, a10, a12
    981f:	000882        	l8ui	a8, a8, 0
    9822:	a088b0        	addx4	a8, a8, a11
    9825:	0888      	l32i.n	a8, a8, 0
    9827:	03e630        	rsr.ps	a3
    982a:	2d0c      	movi.n	a13, 2
    982c:	349030        	extui	a9, a3, 0, 4
    982f:	022d97        	blt	a13, a9, 0x9835
    9832:	006230        	rsil	a3, 2
    9835:	020882        	l8ui	a8, a8, 2
    9838:	349080        	extui	a9, a8, 0, 4
    983b:	02e877        	bbsi	a8, 7, 0x9841
    983e:	ba5271        	l32r	a7, 0xffff8188
    9841:	697a      	add.n	a6, a9, a7
    9843:	000662        	l8ui	a6, a6, 0
    9846:	f06660        	subx8	a6, a6, a6
    9849:	b06620        	addx8	a6, a6, a2
    984c:	a6a8      	l32i.n	a10, a6, 40
    984e:	5a9c      	beqz.n	a10, 0x9867
    9850:	b91681        	l32r	a8, 0xffff7ca8
    9853:	2d2882        	l32i	a8, a8, 180
    9856:	24c6a2        	addi	a10, a6, 36
    9859:	0008e0        	excw
    985c:	090c      	movi.n	a9, 0
    985e:	1a0c      	movi.n	a10, 1
    9860:	96a9      	s32i.n	a10, a6, 36
    9862:	a699      	s32i.n	a9, a6, 40
    9864:	584692        	s8i	a9, a6, 88
    9867:	13e630        	wsr.ps	a3
    986a:	002010        	rsync
    986d:	f01d      	excw
    986f:	511a66        	bnei	a10, 1, 0x98c4
    9872:	daca      	add.n	a13, a10, a12
    9874:	000dd2        	l8ui	a13, a13, 0
    9877:	a0ddb0        	addx4	a13, a13, a11
    987a:	0dd8      	l32i.n	a13, a13, 0
    987c:	03e630        	rsr.ps	a3
    987f:	2f0c      	movi.n	a15, 2
    9881:	34e030        	extui	a14, a3, 0, 4
    9884:	022fe7        	blt	a15, a14, 0x988a
    9887:	006230        	rsil	a3, 2
    988a:	020dd2        	l8ui	a13, a13, 2
    988d:	3490d0        	extui	a9, a13, 0, 4
    9890:	04d7d0        	extui	a13, a13, 7, 1
    9893:	18ed16        	beqz	a13, 0x9a25
    9896:	697a      	add.n	a6, a9, a7
    9898:	000662        	l8ui	a6, a6, 0
    989b:	f06660        	subx8	a6, a6, a6
    989e:	b06620        	addx8	a6, a6, a2
    98a1:	a6e8      	l32i.n	a14, a6, 40
    98a3:	5e9c      	beqz.n	a14, 0x98bc
    98a5:	b91681        	l32r	a8, 0xffff7d00
    98a8:	2d2882        	l32i	a8, a8, 180
    98ab:	24c6a2        	addi	a10, a6, 36
    98ae:	0008e0        	excw
    98b1:	090c      	movi.n	a9, 0
    98b3:	1a0c      	movi.n	a10, 1
    98b5:	96a9      	s32i.n	a10, a6, 36
    98b7:	a699      	s32i.n	a9, a6, 40
    98b9:	584692        	s8i	a9, a6, 88
    98bc:	13e630        	wsr.ps	a3
    98bf:	002010        	rsync
    98c2:	f01d      	excw
    98c4:	ba57e1        	l32r	a14, 0xffff8220
    98c7:	48a1b2        	movi	a11, 0x148
    98ca:	b91491        	l32r	a9, 0xffff7d1c
    98cd:	182a66        	bnei	a10, 2, 0x98e9
    98d0:	3419d2        	l16ui	a13, a9, 104
    98d3:	0a6d27        	bbci	a13, 2, 0x98e1
    98d6:	b722f2        	l32i	a15, a2, 0x2dc
    98d9:	fecff2        	addi	a15, a15, -2
    98dc:	0d2f16        	beqz	a15, 0x99b2
    98df:	0ecd      	mov.n	a12, a14
    98e1:	3aca      	add.n	a3, a10, a12
    98e3:	000332        	l8ui	a3, a3, 0
    98e6:	003286        	j	0x99b4
    98e9:	fdca82        	addi	a8, a10, -3
    98ec:	0c0856        	bnez	a8, 0x99b0
    98ef:	3419f2        	l16ui	a15, a9, 104
    98f2:	aada      	add.n	a10, a10, a13
    98f4:	016f27        	bbci	a15, 2, 0x98f9
    98f7:	0ecd      	mov.n	a12, a14
    98f9:	3aca      	add.n	a3, a10, a12
    98fb:	000332        	l8ui	a3, a3, 0
    98fe:	832b      	addi.n	a8, a3, 2
    9900:	745080        	extui	a5, a8, 0, 8
    9903:	03e660        	rsr.ps	a6
    9906:	2d0c      	movi.n	a13, 2
    9908:	349060        	extui	a9, a6, 0, 4
    990b:	022d97        	blt	a13, a9, 0x9911
    990e:	006260        	rsil	a6, 2
    9911:	748080        	extui	a8, a8, 0, 8
    9914:	4cb387        	bgeu	a3, a8, 0x9964
    9917:	42ba      	add.n	a4, a2, a11
    9919:	1169      	s32i.n	a6, a1, 4
    991b:	662482        	l32i	a8, a4, 0x198
    991e:	a08380        	addx4	a8, a3, a8
    9921:	0888      	l32i.n	a8, a8, 0
    9923:	020882        	l8ui	a8, a8, 2
    9926:	349080        	extui	a9, a8, 0, 4
    9929:	2f6877        	bbci	a8, 7, 0x995c
    992c:	997a      	add.n	a9, a9, a7
    992e:	000962        	l8ui	a6, a9, 0
    9931:	f06660        	subx8	a6, a6, a6
    9934:	b06620        	addx8	a6, a6, a2
    9937:	a6a8      	l32i.n	a10, a6, 40
    9939:	2a9c      	beqz.n	a10, 0x994f
    993b:	b91681        	l32r	a8, 0xffff7d94
    993e:	2d2882        	l32i	a8, a8, 180
    9941:	24c6a2        	addi	a10, a6, 36
    9944:	0008e0        	excw
    9947:	090c      	movi.n	a9, 0
    9949:	1a0c      	movi.n	a10, 1
    994b:	96a9      	s32i.n	a10, a6, 36
    994d:	a699      	s32i.n	a9, a6, 40
    994f:	331b      	addi.n	a3, a3, 1
    9951:	743030        	extui	a3, a3, 0, 8
    9954:	c33357        	bltu	a3, a5, 0x991b
    9957:	1168      	l32i.n	a6, a1, 4
    9959:	000246        	j	0x9966
    995c:	ba5281        	l32r	a8, 0xffff82a4
    995f:	998a      	add.n	a9, a9, a8
    9961:	fff246        	j	0x992e
    9964:	42ba      	add.n	a4, a2, a11
    9966:	b91681        	l32r	a8, 0xffff7dc0
    9969:	c888      	l32i.n	a8, a8, 48
    996b:	2a0c      	movi.n	a10, 2
    996d:	0008e0        	excw
    9970:	ba3191        	l32r	a9, 0xffff8234
    9973:	0020c0        	memw
    9976:	ba55c1        	l32r	a12, 0xffff82cc
    9979:	8629b2        	l32i	a11, a9, 0x218
    997c:	10bbc0        	and	a11, a11, a12
    997f:	0020c0        	memw
    9982:	8669b2        	s32i	a11, a9, 0x218
    9985:	ba54a1        	l32r	a10, 0xffff82d8
    9988:	0020c0        	memw
    998b:	8569a2        	s32i	a10, a9, 0x214
    998e:	0020c0        	memw
    9991:	862992        	l32i	a9, a9, 0x218
    9994:	0a0c      	movi.n	a10, 0
    9996:	9844a2        	s8i	a10, a4, 152
    9999:	6044a2        	s8i	a10, a4, 96
    999c:	02f957        	bbsi	a9, 21, 0x99a2
    999f:	077947        	bbci	a9, 20, 0x99aa
    99a2:	ba58a1        	l32r	a10, 0xffff8304
    99a5:	0b0c      	movi.n	a11, 0
    99a7:	aa6ae5        	excw
    99aa:	13e660        	wsr.ps	a6
    99ad:	002010        	rsync
    99b0:	f01d      	excw
    99b2:	730c      	movi.n	a3, 7
    99b4:	d33b      	addi.n	a13, a3, 3
    99b6:	7450d0        	extui	a5, a13, 0, 8
    99b9:	03e6a0        	rsr.ps	a10
    99bc:	2f0c      	movi.n	a15, 2
    99be:	34e0a0        	extui	a14, a10, 0, 4
    99c1:	022fe7        	blt	a15, a14, 0x99c7
    99c4:	0062a0        	rsil	a10, 2
    99c7:	74d0d0        	extui	a13, a13, 0, 8
    99ca:	4fb3d7        	bgeu	a3, a13, 0x9a1d
    99cd:	42ba      	add.n	a4, a2, a11
    99cf:	01a9      	s32i.n	a10, a1, 0
    99d1:	662482        	l32i	a8, a4, 0x198
    99d4:	a08380        	addx4	a8, a3, a8
    99d7:	0888      	l32i.n	a8, a8, 0
    99d9:	020882        	l8ui	a8, a8, 2
    99dc:	349080        	extui	a9, a8, 0, 4
    99df:	326877        	bbci	a8, 7, 0x9a15
    99e2:	997a      	add.n	a9, a9, a7
    99e4:	000962        	l8ui	a6, a9, 0
    99e7:	f06660        	subx8	a6, a6, a6
    99ea:	b06620        	addx8	a6, a6, a2
    99ed:	a6a8      	l32i.n	a10, a6, 40
    99ef:	5a9c      	beqz.n	a10, 0x9a08
    99f1:	b91681        	l32r	a8, 0xffff7e4c
    99f4:	2d2882        	l32i	a8, a8, 180
    99f7:	24c6a2        	addi	a10, a6, 36
    99fa:	0008e0        	excw
    99fd:	090c      	movi.n	a9, 0
    99ff:	1a0c      	movi.n	a10, 1
    9a01:	96a9      	s32i.n	a10, a6, 36
    9a03:	a699      	s32i.n	a9, a6, 40
    9a05:	584692        	s8i	a9, a6, 88
    9a08:	331b      	addi.n	a3, a3, 1
    9a0a:	743030        	extui	a3, a3, 0, 8
    9a0d:	c03357        	bltu	a3, a5, 0x99d1
    9a10:	01a8      	l32i.n	a10, a1, 0
    9a12:	0001c6        	j	0x9a1d
    9a15:	ba5281        	l32r	a8, 0xffff8360
    9a18:	998a      	add.n	a9, a9, a8
    9a1a:	fff186        	j	0x99e4
    9a1d:	13e6a0        	wsr.ps	a10
    9a20:	002010        	rsync
    9a23:	f01d      	excw
    9a25:	ba5271        	l32r	a7, 0xffff8370
    9a28:	ff9a86        	j	0x9896
    9a2b:	413600        	srli	a3, a0, 6
    9a2e:	025200        	excw
    9a31:	7108      	l32i.n	a0, a1, 28
    9a33:	ba59      	s32i.n	a5, a10, 44
    9a35:	1155b0        	slli	a5, a5, 5
    9a38:	557a      	add.n	a5, a5, a7
    9a3a:	09d552        	addmi	a5, a5, 0x900
    9a3d:	b91671        	l32r	a7, 0xffff7e98
    9a40:	0020c0        	memw
    9a43:	4558      	l32i.n	a5, a5, 16
    9a45:	c238      	l32i.n	a3, a2, 48
    9a47:	532742        	l32i	a4, a7, 0x14c
    9a4a:	53ac      	beqz.n	a3, 0x9a73
    9a4c:	0c1262        	l16ui	a6, a2, 24
    9a4f:	06bd      	mov.n	a11, a6
    9a51:	a36a      	add.n	a10, a3, a6
    9a53:	aa0b      	addi.n	a10, a10, -1
    9a55:	03aea5        	excw
    9a58:	82b8      	l32i.n	a11, a2, 32
    9a5a:	95c350        	extui	a12, a5, 19, 10
    9a5d:	c0cac0        	sub	a12, a10, a12
    9a60:	82c6c0        	mull	a12, a6, a12
    9a63:	02ad      	mov.n	a10, a2
    9a65:	bbca      	add.n	a11, a11, a12
    9a67:	c0c3c0        	sub	a12, a3, a12
    9a6a:	f4c0c0        	extui	a12, a12, 0, 16
    9a6d:	0004e0        	excw
    9a70:	000206        	j	0x9a7c
    9a73:	02ad      	mov.n	a10, a2
    9a75:	0b0c      	movi.n	a11, 0
    9a77:	0c0c      	movi.n	a12, 0
    9a79:	0004e0        	excw
    9a7c:	2e2782        	l32i	a8, a7, 184
    9a7f:	02ad      	mov.n	a10, a2
    9a81:	0008e0        	excw
    9a84:	f01d      	excw
    9a86:	360000        	excw
    9a89:	810041        	l32r	a4, 0xfffe9e8c
    9a8c:	ba5a      	add.n	a11, a10, a5
    9a8e:	02ad      	mov.n	a10, a2
    9a90:	e00882        	l8ui	a8, a8, 224
    9a93:	ba30d1        	l32r	a13, 0xffff8354
    9a96:	d8ac      	beqz.n	a8, 0x9ac7
    9a98:	ba3181        	l32r	a8, 0xffff835c
    9a9b:	0020c0        	memw
    9a9e:	8628f2        	l32i	a15, a8, 0x218
    9aa1:	bfaf92        	movi	a9, -65
    9aa4:	10ff90        	and	a15, a15, a9
    9aa7:	0020c0        	memw
    9aaa:	8668f2        	s32i	a15, a8, 0x218
    9aad:	0020c0        	memw
    9ab0:	812dc2        	l32i	a12, a13, 0x204
    9ab3:	00a1e2        	movi	a14, 0x100
    9ab6:	20cce0        	or	a12, a12, a14
    9ab9:	0020c0        	memw
    9abc:	816dc2        	s32i	a12, a13, 0x204
    9abf:	ba4eb1        	l32r	a11, 0xffff83f8
    9ac2:	090c      	movi.n	a9, 0
    9ac4:	604b92        	s8i	a9, a11, 96
    9ac7:	ba5b81        	l32r	a8, 0xffff8434
    9aca:	1888      	l32i.n	a8, a8, 4
    9acc:	0008e0        	excw
    9acf:	f01d      	excw
    9ad1:	000000        	ill
    9ad4:	004136        	excw
    9ad7:	b91631        	l32r	a3, 0xffff7f30
    9ada:	ba3161        	l32r	a6, 0xffff83a0
    9add:	0020c0        	memw
    9ae0:	852622        	l32i	a2, a6, 0x214
    9ae3:	0020c0        	memw
    9ae6:	862692        	l32i	a9, a6, 0x218
    9ae9:	3b2382        	l32i	a8, a3, 236
    9aec:	102290        	and	a2, a2, a9
    9aef:	02ad      	mov.n	a10, a2
    9af1:	0008e0        	excw
    9af4:	ba3351        	l32r	a5, 0xffff83c0
    9af7:	0762c7        	bbci	a2, 12, 0x9b02
    9afa:	102382        	l32i	a8, a3, 64
    9afd:	05ad      	mov.n	a10, a5
    9aff:	0008e0        	excw
    9b02:	0762d7        	bbci	a2, 13, 0x9b0d
    9b05:	112382        	l32i	a8, a3, 68
    9b08:	05ad      	mov.n	a10, a5
    9b0a:	0008e0        	excw
    9b0d:	ba5b41        	l32r	a4, 0xffff847c
    9b10:	070c      	movi.n	a7, 0
    9b12:	436237        	bbci	a2, 3, 0x9b59
    9b15:	080492        	l8ui	a9, a4, 8
    9b18:	0514a2        	l16ui	a10, a4, 10
    9b1b:	071966        	bnei	a9, 1, 0x9b26
    9b1e:	a91b      	addi.n	a10, a9, 1
    9b20:	0844a2        	s8i	a10, a4, 8
    9b23:	000a86        	j	0x9b51
    9b26:	9a8c      	beqz.n	a10, 0x9b33
    9b28:	ba5c81        	l32r	a8, 0xffff8498
    9b2b:	8888      	l32i.n	a8, a8, 32
    9b2d:	0008e0        	excw
    9b30:	055472        	s16i	a7, a4, 10
    9b33:	084472        	s8i	a7, a4, 8
    9b36:	0020c0        	memw
    9b39:	862692        	l32i	a9, a6, 0x218
    9b3c:	7a7c      	movi.n	a10, -9
    9b3e:	1099a0        	and	a9, a9, a10
    9b41:	0020c0        	memw
    9b44:	866692        	s32i	a9, a6, 0x218
    9b47:	05ad      	mov.n	a10, a5
    9b49:	4d2382        	l32i	a8, a3, 0x134
    9b4c:	1b0c      	movi.n	a11, 1
    9b4e:	0008e0        	excw
    9b51:	8b0c      	movi.n	a11, 8
    9b53:	0020c0        	memw
    9b56:	8566b2        	s32i	a11, a6, 0x214
    9b59:	077237        	bbci	a2, 19, 0x9b64
    9b5c:	122382        	l32i	a8, a3, 72
    9b5f:	05ad      	mov.n	a10, a5
    9b61:	0008e0        	excw
    9b64:	077227        	bbci	a2, 18, 0x9b6f
    9b67:	132382        	l32i	a8, a3, 76
    9b6a:	05ad      	mov.n	a10, a5
    9b6c:	0008e0        	excw
    9b6f:	b90e91        	l32r	a9, 0xffff7fa8
    9b72:	0998      	l32i.n	a9, a9, 0
    9b74:	b915a1        	l32r	a10, 0xffff7fc8
    9b77:	a998      	l32i.n	a9, a9, 40
    9b79:	1599a7        	bne	a9, a10, 0x9b92
    9b7c:	077257        	bbci	a2, 21, 0x9b87
    9b7f:	472382        	l32i	a8, a3, 0x11c
    9b82:	05ad      	mov.n	a10, a5
    9b84:	0008e0        	excw
    9b87:	077247        	bbci	a2, 20, 0x9b92
    9b8a:	482382        	l32i	a8, a3, 0x120
    9b8d:	05ad      	mov.n	a10, a5
    9b8f:	0008e0        	excw
    9b92:	0562b7        	bbci	a2, 11, 0x9b9b
    9b95:	152382        	l32i	a8, a3, 84
    9b98:	0008e0        	excw
    9b9b:	0572f7        	bbci	a2, 31, 0x9ba4
    9b9e:	142382        	l32i	a8, a3, 80
    9ba1:	0008e0        	excw
    9ba4:	0562a7        	bbci	a2, 10, 0x9bad
    9ba7:	432382        	l32i	a8, a3, 0x10c
    9baa:	0008e0        	excw
    9bad:	176267        	bbci	a2, 6, 0x9bc8
    9bb0:	000492        	l8ui	a9, a4, 0
    9bb3:	39dc      	bnez.n	a9, 0x9bca
    9bb5:	442382        	l32i	a8, a3, 0x110
    9bb8:	05ad      	mov.n	a10, a5
    9bba:	0008e0        	excw
    9bbd:	f01d      	excw
    9bbf:	054966        	bnei	a9, 4, 0x9bc8
    9bc2:	004472        	s8i	a7, a4, 0
    9bc5:	fed825        	excw
    9bc8:	f01d      	excw
    9bca:	f11966        	bnei	a9, 1, 0x9bbf
    9bcd:	2a0c      	movi.n	a10, 2
    9bcf:	ba3091        	l32r	a9, 0xffff8490
    9bd2:	0020c0        	memw
    9bd5:	c029b2        	l32i	a11, a9, 0x300
    9bd8:	16fbf7        	bbsi	a11, 31, 0x9bf2
    9bdb:	0020c0        	memw
    9bde:	d029c2        	l32i	a12, a9, 0x340
    9be1:	3dfcf7        	bbsi	a12, 31, 0x9c22
    9be4:	3d0c      	movi.n	a13, 3
    9be6:	0044d2        	s8i	a13, a4, 0
    9be9:	feec25        	excw
    9bec:	fed5a5        	excw
    9bef:	000946        	j	0x9c18
    9bf2:	0044a2        	s8i	a10, a4, 0
    9bf5:	0020c0        	memw
    9bf8:	842982        	l32i	a8, a9, 0x210
    9bfb:	2b4c      	movi.n	a11, 66
    9bfd:	2088b0        	or	a8, a8, a11
    9c00:	0020c0        	memw
    9c03:	846982        	s32i	a8, a9, 0x210
    9c06:	0020c0        	memw
    9c09:	ba32f1        	l32r	a15, 0xffff84d4
    9c0c:	c029e2        	l32i	a14, a9, 0x300
    9c0f:	20eef0        	or	a14, a14, a15
    9c12:	0020c0        	memw
    9c15:	c069e2        	s32i	a14, a9, 0x300
    9c18:	0c4c      	movi.n	a12, 64
    9c1a:	0020c0        	memw
    9c1d:	8566c2        	s32i	a12, a6, 0x214
    9c20:	f01d      	excw
    9c22:	0044a2        	s8i	a10, a4, 0
    9c25:	fed525        	excw
    9c28:	fffb06        	j	0x9c18
    9c2b:	413600        	srli	a3, a0, 6
    9c2e:	5b8100        	excw
    9c31:	88ba      	add.n	a8, a8, a11
    9c33:	ad38      	l32i.n	a3, a13, 40
    9c35:	08e002        	excw
    9c38:	f01d00        	subx8	a1, a13, a0
    9c3b:	613600        	excw
    9c3e:	5b3100        	excw
    9c41:	adba      	add.n	a10, a13, a11
    9c43:	8c0c01        	l32r	a0, 0xfffecc74
    9c46:	4da242        	movi	a4, 0x24d
    9c49:	424a      	add.n	a4, a2, a4
    9c4b:	77c4b2        	addi	a11, a4, 119
    9c4e:	03a0a5        	excw
    9c51:	000182        	l8ui	a8, a1, 0
    9c54:	011192        	l16ui	a9, a1, 2
    9c57:	448080        	extui	a8, a8, 0, 5
    9c5a:	059856        	bnez	a8, 0x9cb7
    9c5d:	561966        	bnei	a9, 1, 0x9cb7
    9c60:	1b0c      	movi.n	a11, 1
    9c62:	8844b2        	s8i	a11, a4, 136
    9c65:	ba30a1        	l32r	a10, 0xffff8528
    9c68:	0020c0        	memw
    9c6b:	812a92        	l32i	a9, a10, 0x204
    9c6e:	ec7c      	movi.n	a12, -2
    9c70:	086907        	bbci	a9, 0, 0x9c7c
    9c73:	10c9c0        	and	a12, a9, a12
    9c76:	0020c0        	memw
    9c79:	816ac2        	s32i	a12, a10, 0x204
    9c7c:	0843b2        	s8i	a11, a3, 8
    9c7f:	ba5c21        	l32r	a2, 0xffff85f0
    9c82:	ba31e1        	l32r	a14, 0xffff8548
    9c85:	0020c0        	memw
    9c88:	862ed2        	l32i	a13, a14, 0x218
    9c8b:	8f0c      	movi.n	a15, 8
    9c8d:	20ddf0        	or	a13, a13, a15
    9c90:	0020c0        	memw
    9c93:	0513a2        	l16ui	a10, a3, 10
    9c96:	866ed2        	s32i	a13, a14, 0x218
    9c99:	8a8c      	beqz.n	a10, 0x9ca5
    9c9b:	8288      	l32i.n	a8, a2, 32
    9c9d:	0008e0        	excw
    9ca0:	090c      	movi.n	a9, 0
    9ca2:	055392        	s16i	a9, a3, 10
    9ca5:	ca0c      	movi.n	a10, 12
    9ca7:	2b0c      	movi.n	a11, 2
    9ca9:	0c0c      	movi.n	a12, 0
    9cab:	7288      	l32i.n	a8, a2, 28
    9cad:	0d0c      	movi.n	a13, 0
    9caf:	0008e0        	excw
    9cb2:	0553a2        	s16i	a10, a3, 10
    9cb5:	f01d      	excw
    9cb7:	4388      	l32i.n	a8, a3, 16
    9cb9:	02ad      	mov.n	a10, a2
    9cbb:	0008e0        	excw
    9cbe:	f01d      	excw
    9cc0:	004136        	excw
    9cc3:	031282        	l16ui	a8, a2, 6
    9cc6:	ba5b31        	l32r	a3, 0xffff8634
    9cc9:	b0c882        	addi	a8, a8, -80
    9ccc:	08b856        	bnez	a8, 0x9d5b
    9ccf:	ba31c1        	l32r	a12, 0xffff8594
    9cd2:	0812a2        	l16ui	a10, a2, 16
    9cd5:	0513b2        	l16ui	a11, a3, 10
    9cd8:	040c      	movi.n	a4, 0
    9cda:	279ba7        	bne	a11, a10, 0x9d05
    9cdd:	084342        	s8i	a4, a3, 8
    9ce0:	0020c0        	memw
    9ce3:	862c92        	l32i	a9, a12, 0x218
    9ce6:	7a7c      	movi.n	a10, -9
    9ce8:	1099a0        	and	a9, a9, a10
    9ceb:	0020c0        	memw
    9cee:	866c92        	s32i	a9, a12, 0x218
    9cf1:	b91681        	l32r	a8, 0xffff814c
    9cf4:	ba33a1        	l32r	a10, 0xffff85c0
    9cf7:	4d2882        	l32i	a8, a8, 0x134
    9cfa:	1b0c      	movi.n	a11, 1
    9cfc:	0008e0        	excw
    9cff:	055342        	s16i	a4, a3, 10
    9d02:	001246        	j	0x9d4f
    9d05:	0113b2        	l16ui	a11, a3, 2
    9d08:	ba5a91        	l32r	a9, 0xffff8670
    9d0b:	409ba7        	bne	a11, a10, 0x9d4f
    9d0e:	e009d2        	l8ui	a13, a9, 224
    9d11:	0003e2        	l8ui	a14, a3, 0
    9d14:	04cd56        	bnez	a13, 0x9d64
    9d17:	1efc      	bnez.n	a14, 0x9d4c
    9d19:	fdd9f2        	addmi	a15, a9, 0xfffffd00
    9d1c:	b80ff2        	l8ui	a15, a15, 184
    9d1f:	1e0c      	movi.n	a14, 1
    9d21:	7fac      	beqz.n	a15, 0x9d4c
    9d23:	0043e2        	s8i	a14, a3, 0
    9d26:	ba3091        	l32r	a9, 0xffff85e8
    9d29:	0020c0        	memw
    9d2c:	862cb2        	l32i	a11, a12, 0x218
    9d2f:	0d4c      	movi.n	a13, 64
    9d31:	20bbd0        	or	a11, a11, a13
    9d34:	0020c0        	memw
    9d37:	866cb2        	s32i	a11, a12, 0x218
    9d3a:	0020c0        	memw
    9d3d:	812982        	l32i	a8, a9, 0x204
    9d40:	80a0a2        	movi	a10, 128
    9d43:	2088a0        	or	a8, a8, a10
    9d46:	0020c0        	memw
    9d49:	816982        	s32i	a8, a9, 0x204
    9d4c:	015342        	s16i	a4, a3, 2
    9d4f:	b91181        	l32r	a8, 0xffff8194
    9d52:	5888      	l32i.n	a8, a8, 20
    9d54:	02ad      	mov.n	a10, a2
    9d56:	0008e0        	excw
    9d59:	f01d      	excw
    9d5b:	5388      	l32i.n	a8, a3, 20
    9d5d:	02ad      	mov.n	a10, a2
    9d5f:	0008e0        	excw
    9d62:	f01d      	excw
    9d64:	04cd      	mov.n	a12, a4
    9d66:	ca0c      	movi.n	a10, 12
    9d68:	ba5c81        	l32r	a8, 0xffff86d8
    9d6b:	2b3c      	movi.n	a11, 50
    9d6d:	7888      	l32i.n	a8, a8, 28
    9d6f:	0d0c      	movi.n	a13, 0
    9d71:	0008e0        	excw
    9d74:	0a4d      	mov.n	a4, a10
    9d76:	fff486        	j	0x9d4c
    9d79:	000000        	ill
    9d7c:	006136        	excw
    9d7f:	ba3071        	l32r	a7, 0xffff8640
    9d82:	0020c0        	memw
    9d85:	872782        	l32i	a8, a7, 0x21c
    9d88:	0020c0        	memw
    9d8b:	862742        	l32i	a4, a7, 0x218
    9d8e:	a0a0a2        	movi	a10, 160
    9d91:	104480        	and	a4, a4, a8
    9d94:	f44040        	extui	a4, a4, 0, 16
    9d97:	1f2416        	beqz	a4, 0x9f8d
    9d9a:	0129      	s32i.n	a2, a1, 0
    9d9c:	04a182        	movi	a8, 0x104
    9d9f:	24c232        	addi	a3, a2, 36
    9da2:	a2aa      	add.n	a10, a2, a10
    9da4:	31a9      	s32i.n	a10, a1, 12
    9da6:	2139      	s32i.n	a3, a1, 8
    9da8:	828a      	add.n	a8, a2, a8
    9daa:	030c      	movi.n	a3, 0
    9dac:	1189      	s32i.n	a8, a1, 4
    9dae:	04b040        	extui	a11, a4, 0, 1
    9db1:	1cdb16        	beqz	a11, 0x9f82
    9db4:	1163b0        	slli	a6, a3, 5
    9db7:	ba5321        	l32r	a2, 0xffff8704
    9dba:	667a      	add.n	a6, a6, a7
    9dbc:	232a      	add.n	a2, a3, a2
    9dbe:	000222        	l8ui	a2, a2, 0
    9dc1:	0020c0        	memw
    9dc4:	c22682        	l32i	a8, a6, 0x308
    9dc7:	0020c0        	memw
    9dca:	842752        	l32i	a5, a7, 0x210
    9dcd:	105580        	and	a5, a5, a8
    9dd0:	596507        	bbci	a5, 0, 0x9e2d
    9dd3:	0020c0        	memw
    9dd6:	c22682        	l32i	a8, a6, 0x308
    9dd9:	190c      	movi.n	a9, 1
    9ddb:	208890        	or	a8, a8, a9
    9dde:	0020c0        	memw
    9de1:	c26682        	s32i	a8, a6, 0x308
    9de4:	13fc      	bnez.n	a3, 0x9e19
    9de6:	b91681        	l32r	a8, 0xffff8240
    9de9:	192882        	l32i	a8, a8, 100
    9dec:	01a8      	l32i.n	a10, a1, 0
    9dee:	0008e0        	excw
    9df1:	ba5691        	l32r	a9, 0xffff874c
    9df4:	7e0992        	l8ui	a9, a9, 126
    9df7:	321966        	bnei	a9, 1, 0x9e2d
    9dfa:	01a8      	l32i.n	a10, a1, 0
    9dfc:	b91681        	l32r	a8, 0xffff8254
    9dff:	f0b220        	subx8	a11, a2, a2
    9e02:	202882        	l32i	a8, a8, 128
    9e05:	b0bba0        	addx8	a11, a11, a10
    9e08:	24cbb2        	addi	a11, a11, 36
    9e0b:	0008e0        	excw
    9e0e:	ba56d1        	l32r	a13, 0xffff8768
    9e11:	0c0c      	movi.n	a12, 0
    9e13:	7e4dc2        	s8i	a12, a13, 126
    9e16:	0004c6        	j	0x9e2d
    9e19:	01a8      	l32i.n	a10, a1, 0
    9e1b:	b91681        	l32r	a8, 0xffff8274
    9e1e:	f0b220        	subx8	a11, a2, a2
    9e21:	322882        	l32i	a8, a8, 200
    9e24:	b0bba0        	addx8	a11, a11, a10
    9e27:	24cbb2        	addi	a11, a11, 36
    9e2a:	0008e0        	excw
    9e2d:	1e6527        	bbci	a5, 2, 0x9e4f
    9e30:	0020c0        	memw
    9e33:	c526e2        	l32i	a14, a6, 0x314
    9e36:	0020c0        	memw
    9e39:	c226c2        	l32i	a12, a6, 0x308
    9e3c:	4d0c      	movi.n	a13, 4
    9e3e:	20ccd0        	or	a12, a12, a13
    9e41:	0020c0        	memw
    9e44:	c266c2        	s32i	a12, a6, 0x308
    9e47:	ba58a1        	l32r	a10, 0xffff87a8
    9e4a:	0b0c      	movi.n	a11, 0
    9e4c:	aa2065        	excw
    9e4f:	106537        	bbci	a5, 3, 0x9e63
    9e52:	0020c0        	memw
    9e55:	c226f2        	l32i	a15, a6, 0x308
    9e58:	880c      	movi.n	a8, 8
    9e5a:	20ff80        	or	a15, a15, a8
    9e5d:	0020c0        	memw
    9e60:	c266f2        	s32i	a15, a6, 0x308
    9e63:	2d6567        	bbci	a5, 6, 0x9e94
    9e66:	ba5a91        	l32r	a9, 0xffff87d0
    9e69:	e00992        	l8ui	a9, a9, 224
    9e6c:	39dc      	bnez.n	a9, 0x9e83
    9e6e:	0020c0        	memw
    9e71:	c02692        	l32i	a9, a6, 0x300
    9e74:	b9a9a1        	l32r	a10, 0xffff8518
    9e77:	0879f7        	bbci	a9, 31, 0x9e83
    9e7a:	20a9a0        	or	a10, a9, a10
    9e7d:	0020c0        	memw
    9e80:	c066a2        	s32i	a10, a6, 0x300
    9e83:	0020c0        	memw
    9e86:	c226b2        	l32i	a11, a6, 0x308
    9e89:	0c4c      	movi.n	a12, 64
    9e8b:	20bbc0        	or	a11, a11, a12
    9e8e:	0020c0        	memw
    9e91:	c266b2        	s32i	a11, a6, 0x308
    9e94:	04d150        	extui	a13, a5, 1, 1
    9e97:	0e7d16        	beqz	a13, 0x9f82
    9e9a:	ba5b91        	l32r	a9, 0xffff8808
    9e9d:	000992        	l8ui	a9, a9, 0
    9ea0:	080956        	bnez	a9, 0x9f24
    9ea3:	f3ec      	bnez.n	a3, 0x9ed6
    9ea5:	b91681        	l32r	a8, 0xffff8300
    9ea8:	c888      	l32i.n	a8, a8, 48
    9eaa:	0a1c      	movi.n	a10, 16
    9eac:	0008e0        	excw
    9eaf:	b91681        	l32r	a8, 0xffff8308
    9eb2:	182882        	l32i	a8, a8, 96
    9eb5:	0008e0        	excw
    9eb8:	090c      	movi.n	a9, 0
    9eba:	f0b220        	subx8	a11, a2, a2
    9ebd:	01a8      	l32i.n	a10, a1, 0
    9ebf:	b91681        	l32r	a8, 0xffff8318
    9ec2:	1c0c      	movi.n	a12, 1
    9ec4:	172882        	l32i	a8, a8, 92
    9ec7:	8ac9      	s32i.n	a12, a10, 32
    9ec9:	b0bba0        	addx8	a11, a11, a10
    9ecc:	9bc9      	s32i.n	a12, a11, 36
    9ece:	cb99      	s32i.n	a9, a11, 48
    9ed0:	0008e0        	excw
    9ed3:	002686        	j	0x9f71
    9ed6:	022326        	beqi	a3, 2, 0x9edc
    9ed9:	002506        	j	0x9f71
    9edc:	ba5ac1        	l32r	a12, 0xffff8844
    9edf:	e00cc2        	l8ui	a12, a12, 224
    9ee2:	022c26        	beqi	a12, 2, 0x9ee8
    9ee5:	002206        	j	0x9f71
    9ee8:	b91681        	l32r	a8, 0xffff8340
    9eeb:	c888      	l32i.n	a8, a8, 48
    9eed:	0a0c      	movi.n	a10, 0
    9eef:	0008e0        	excw
    9ef2:	ba4ea1        	l32r	a10, 0xffff882c
    9ef5:	090c      	movi.n	a9, 0
    9ef7:	b91681        	l32r	a8, 0xffff8350
    9efa:	604a92        	s8i	a9, a10, 96
    9efd:	242882        	l32i	a8, a8, 144
    9f00:	21a8      	l32i.n	a10, a1, 8
    9f02:	0008e0        	excw
    9f05:	31b8      	l32i.n	a11, a1, 12
    9f07:	192bb2        	l32i	a11, a11, 100
    9f0a:	0bdc      	bnez.n	a11, 0x9f1e
    9f0c:	31c8      	l32i.n	a12, a1, 12
    9f0e:	980cc2        	l8ui	a12, a12, 152
    9f11:	9c8c      	beqz.n	a12, 0x9f1e
    9f13:	b91681        	l32r	a8, 0xffff836c
    9f16:	592882        	l32i	a8, a8, 0x164
    9f19:	11a8      	l32i.n	a10, a1, 4
    9f1b:	0008e0        	excw
    9f1e:	fea2a5        	excw
    9f21:	001306        	j	0x9f71
    9f24:	352966        	bnei	a9, 2, 0x9f5d
    9f27:	102366        	bnei	a3, 2, 0x9f3b
    9f2a:	ba5ba1        	l32r	a10, 0xffff8898
    9f2d:	390c      	movi.n	a9, 3
    9f2f:	004a92        	s8i	a9, a10, 0
    9f32:	feb7a5        	excw
    9f35:	fea125        	excw
    9f38:	000d46        	j	0x9f71
    9f3b:	23fc      	bnez.n	a3, 0x9f71
    9f3d:	0020c0        	memw
    9f40:	d027b2        	l32i	a11, a7, 0x340
    9f43:	10fbf7        	bbsi	a11, 31, 0x9f57
    9f46:	ba5bd1        	l32r	a13, 0xffff88b4
    9f49:	3c0c      	movi.n	a12, 3
    9f4b:	004dc2        	s8i	a12, a13, 0
    9f4e:	feb5e5        	excw
    9f51:	fe9f65        	excw
    9f54:	000646        	j	0x9f71
    9f57:	fea225        	excw
    9f5a:	0004c6        	j	0x9f71
    9f5d:	104966        	bnei	a9, 4, 0x9f71
    9f60:	ba5bf1        	l32r	a15, 0xffff88cc
    9f63:	0e0c      	movi.n	a14, 0
    9f65:	004fe2        	s8i	a14, a15, 0
    9f68:	febda5        	excw
    9f6b:	fec025        	excw
    9f6e:	fe9da5        	excw
    9f71:	0020c0        	memw
    9f74:	c22682        	l32i	a8, a6, 0x308
    9f77:	290c      	movi.n	a9, 2
    9f79:	208890        	or	a8, a8, a9
    9f7c:	0020c0        	memw
    9f7f:	c26682        	s32i	a8, a6, 0x308
    9f82:	414140        	srli	a4, a4, 1
    9f85:	331b      	addi.n	a3, a3, 1
    9f87:	743030        	extui	a3, a3, 0, 8
    9f8a:	e20456        	bnez	a4, 0x9dae
    9f8d:	f01d      	excw
    9f8f:	413600        	srli	a3, a0, 6
    9f92:	304100        	xor	a4, a1, a0
    9f95:	c0ba      	add.n	a12, a0, a11
    9f97:	820020        	mull	a0, a0, a2
    9f9a:	c08724        	excw
    9f9d:	420020        	excw
    9fa0:	0c8624        	excw
    9fa3:	448003        	excw
    9fa6:	404010        	ssai	16
    9fa9:	7416f5        	excw
    9fac:	0e          	.byte 0xe
    9fad:	ba5d71        	l32r	a7, 0xffff8924
    9fb0:	048040        	extui	a8, a4, 0, 1
    9fb3:	0d3816        	beqz	a8, 0xa08a
    9fb6:	b722e2        	l32i	a14, a2, 0x2dc
    9fb9:	ba5ec1        	l32r	a12, 0xffff8934
    9fbc:	ba52d1        	l32r	a13, 0xffff8904
    9fbf:	1163b0        	slli	a6, a3, 5
    9fc2:	667a      	add.n	a6, a6, a7
    9fc4:	d3da      	add.n	a13, a3, a13
    9fc6:	c3ca      	add.n	a12, a3, a12
    9fc8:	93cde0        	movnez	a12, a13, a14
    9fcb:	000cc2        	l8ui	a12, a12, 0
    9fce:	0020c0        	memw
    9fd1:	ba3081        	l32r	a8, 0xffff8894
    9fd4:	852882        	l32i	a8, a8, 0x214
    9fd7:	0020c0        	memw
    9fda:	422652        	l32i	a5, a6, 0x108
    9fdd:	105580        	and	a5, a5, a8
    9fe0:	346507        	bbci	a5, 0, 0xa018
    9fe3:	0020c0        	memw
    9fe6:	4226e2        	l32i	a14, a6, 0x108
    9fe9:	1f0c      	movi.n	a15, 1
    9feb:	20eef0        	or	a14, a14, a15
    9fee:	0020c0        	memw
    9ff1:	4266e2        	s32i	a14, a6, 0x108
    9ff4:	c3cc      	bnez.n	a3, 0xa004
    9ff6:	b91681        	l32r	a8, 0xffff8450
    9ff9:	192882        	l32i	a8, a8, 100
    9ffc:	02ad      	mov.n	a10, a2
    9ffe:	0008e0        	excw
    a001:	0004c6        	j	0xa018
    a004:	02ad      	mov.n	a10, a2
    a006:	f0bcc0        	subx8	a11, a12, a12
    a009:	b91681        	l32r	a8, 0xffff8464
    a00c:	b0bb20        	addx8	a11, a11, a2
    a00f:	322882        	l32i	a8, a8, 200
    a012:	24cbb2        	addi	a11, a11, 36
    a015:	0008e0        	excw
    a018:	1e6527        	bbci	a5, 2, 0xa03a
    a01b:	0020c0        	memw
    a01e:	4526e2        	l32i	a14, a6, 0x114
    a021:	0020c0        	memw
    a024:	4226c2        	l32i	a12, a6, 0x108
    a027:	4d0c      	movi.n	a13, 4
    a029:	20ccd0        	or	a12, a12, a13
    a02c:	0020c0        	memw
    a02f:	4266c2        	s32i	a12, a6, 0x108
    a032:	ba58a1        	l32r	a10, 0xffff8994
    a035:	0b0c      	movi.n	a11, 0
    a037:	aa01e5        	excw
    a03a:	1d6537        	bbci	a5, 3, 0xa05b
    a03d:	93cc      	bnez.n	a3, 0xa04a
    a03f:	b91681        	l32r	a8, 0xffff8498
    a042:	192882        	l32i	a8, a8, 100
    a045:	02ad      	mov.n	a10, a2
    a047:	0008e0        	excw
    a04a:	0020c0        	memw
    a04d:	422692        	l32i	a9, a6, 0x108
    a050:	8a0c      	movi.n	a10, 8
    a052:	2099a0        	or	a9, a9, a10
    a055:	0020c0        	memw
    a058:	426692        	s32i	a9, a6, 0x108
    a05b:	2b6547        	bbci	a5, 4, 0xa08a
    a05e:	b914b1        	l32r	a11, 0xffff84b0
    a061:	341bb2        	l16ui	a11, a11, 104
    a064:	11eb07        	bbsi	a11, 0, 0xa079
    a067:	0020c0        	memw
    a06a:	b997d1        	l32r	a13, 0xffff86c8
    a06d:	4026c2        	l32i	a12, a6, 0x100
    a070:	20ccd0        	or	a12, a12, a13
    a073:	0020c0        	memw
    a076:	4066c2        	s32i	a12, a6, 0x100
    a079:	0020c0        	memw
    a07c:	4226e2        	l32i	a14, a6, 0x108
    a07f:	0f1c      	movi.n	a15, 16
    a081:	20eef0        	or	a14, a14, a15
    a084:	0020c0        	memw
    a087:	4266e2        	s32i	a14, a6, 0x108
    a08a:	414140        	srli	a4, a4, 1
    a08d:	331b      	addi.n	a3, a3, 1
    a08f:	743030        	extui	a3, a3, 0, 8
    a092:	f1a456        	bnez	a4, 0x9fb0
    a095:	f01d      	excw
    a097:	613600        	excw
    a09a:	077100        	excw
    a09d:	41b9      	s32i.n	a11, a1, 16
    a09f:	0cb916        	beqz	a9, 0xa16e
    a0a2:	a20a      	add.n	a10, a2, a0
    a0a4:	a90251        	l32r	a5, 0xffff44ac
    a0a7:	039201        	l32r	a0, 0xfffcaef0
    a0aa:	6108      	l32i.n	a0, a1, 24
    a0ac:	5f          	.byte 0x5f
    a0ad:	dcba      	add.n	a13, a12, a11
    a0af:	a2f9      	s32i.n	a15, a2, 40
    a0b1:	519926        	beqi	a9, 10, 0xa106
    a0b4:	82ba56        	bnez	a10, 0x98e3
    a0b7:	521527        	beq	a5, a2, 0xa10d
    a0ba:	e07f05        	call0	0xfffea8ac
    a0bd:	0008      	l32i.n	a0, a0, 0
    a0bf:	0abd      	mov.n	a11, a10
    a0c1:	162782        	l32i	a8, a7, 88
    a0c4:	9926a2        	l32i	a10, a6, 0x264
    a0c7:	0b6d      	mov.n	a6, a11
    a0c9:	0008e0        	excw
    a0cc:	1d0c      	movi.n	a13, 1
    a0ce:	000d46        	j	0xa107
    a0d1:	1b2966        	bnei	a9, 2, 0xa0f0
    a0d4:	141352        	l16ui	a5, a3, 40
    a0d7:	152782        	l32i	a8, a7, 84
    a0da:	9c26a2        	l32i	a10, a6, 0x270
    a0dd:	0008e0        	excw
    a0e0:	0abd      	mov.n	a11, a10
    a0e2:	162782        	l32i	a8, a7, 88
    a0e5:	9c26a2        	l32i	a10, a6, 0x270
    a0e8:	0b6d      	mov.n	a6, a11
    a0ea:	0008e0        	excw
    a0ed:	000506        	j	0xa105
    a0f0:	0f3966        	bnei	a9, 3, 0xa103
    a0f3:	340392        	l8ui	a9, a3, 52
    a0f6:	06b916        	beqz	a9, 0xa165
    a0f9:	332482        	l32i	a8, a4, 204
    a0fc:	03ad      	mov.n	a10, a3
    a0fe:	0008e0        	excw
    a101:	f01d      	excw
    a103:	0a6d      	mov.n	a6, a10
    a105:	2d0c      	movi.n	a13, 2
    a107:	04d516        	beqz	a5, 0xa158
    a10a:	06ad      	mov.n	a10, a6
    a10c:	05cd      	mov.n	a12, a5
    a10e:	b91881        	l32r	a8, 0xffff8570
    a111:	01bd      	mov.n	a11, a1
    a113:	392882        	l32i	a8, a8, 228
    a116:	e14b      	addi.n	a14, a1, 4
    a118:	0008e0        	excw
    a11b:	3403c2        	l8ui	a12, a3, 52
    a11e:	1d1a66        	bnei	a10, 1, 0xa13f
    a121:	0c5d      	mov.n	a5, a12
    a123:	02ad      	mov.n	a10, a2
    a125:	392482        	l32i	a8, a4, 228
    a128:	03bd      	mov.n	a11, a3
    a12a:	0008e0        	excw
    a12d:	340392        	l8ui	a9, a3, 52
    a130:	19bc      	beqz.n	a9, 0xa165
    a132:	2f1526        	beqi	a5, 1, 0xa165
    a135:	332482        	l32i	a8, a4, 204
    a138:	03ad      	mov.n	a10, a3
    a13a:	0008e0        	excw
    a13d:	f01d      	excw
    a13f:	2cac      	beqz.n	a12, 0xa165
    a141:	03ad      	mov.n	a10, a3
    a143:	01b8      	l32i.n	a11, a1, 0
    a145:	532482        	l32i	a8, a4, 0x14c
    a148:	0211c2        	l16ui	a12, a1, 4
    a14b:	0008e0        	excw
    a14e:	2e2482        	l32i	a8, a4, 184
    a151:	03ad      	mov.n	a10, a3
    a153:	0008e0        	excw
    a156:	f01d      	excw
    a158:	340392        	l8ui	a9, a3, 52
    a15b:	698c      	beqz.n	a9, 0xa165
    a15d:	332482        	l32i	a8, a4, 204
    a160:	03ad      	mov.n	a10, a3
    a162:	0008e0        	excw
    a165:	f01d      	excw
    a167:	613600        	excw
    a16a:	070c00        	excw
    a16d:	ba3d61        	l32r	a6, 0xffff8a64
    a170:	b90e51        	l32r	a5, 0xffff85a8
    a173:	b91641        	l32r	a4, 0xffff85cc
    a176:	0103a2        	l8ui	a10, a3, 1
    a179:	980c      	movi.n	a8, 9
    a17b:	549a87        	bne	a10, a8, 0xa1d3
    a17e:	0169      	s32i.n	a6, a1, 0
    a180:	06ad      	mov.n	a10, a6
    a182:	ba60b1        	l32r	a11, 0xffff8b04
    a185:	4c0c      	movi.n	a12, 4
    a187:	034d25        	excw
    a18a:	ba61b1        	l32r	a11, 0xffff8b10
    a18d:	0168      	l32i.n	a6, a1, 0
    a18f:	4c0c      	movi.n	a12, 4
    a191:	a64b      	addi.n	a10, a6, 4
    a193:	034c65        	excw
    a196:	a68b      	addi.n	a10, a6, 8
    a198:	ba62b1        	l32r	a11, 0xffff8b20
    a19b:	4c0c      	movi.n	a12, 4
    a19d:	034ba5        	excw
    a1a0:	a8a0c2        	movi	a12, 168
    a1a3:	05b8      	l32i.n	a11, a5, 0
    a1a5:	ba63a1        	l32r	a10, 0xffff8b34
    a1a8:	bbca      	add.n	a11, a11, a12
    a1aa:	4c0c      	movi.n	a12, 4
    a1ac:	034aa5        	excw
    a1af:	06bd      	mov.n	a11, a6
    a1b1:	532482        	l32i	a8, a4, 0x14c
    a1b4:	4d1c      	movi.n	a13, 20
    a1b6:	0313c2        	l16ui	a12, a3, 6
    a1b9:	4679      	s32i.n	a7, a6, 16
    a1bb:	24c232        	addi	a3, a2, 36
    a1be:	63ccd0        	excw
    a1c1:	03ad      	mov.n	a10, a3
    a1c3:	0008e0        	excw
    a1c6:	146272        	s32i	a7, a2, 80
    a1c9:	242482        	l32i	a8, a4, 144
    a1cc:	03ad      	mov.n	a10, a3
    a1ce:	0008e0        	excw
    a1d1:	f01d      	excw
    a1d3:	645a66        	bnei	a10, 5, 0xa23b
    a1d6:	80a0a2        	movi	a10, 128
    a1d9:	dc0c      	movi.n	a12, 13
    a1db:	e90c      	movi.n	a9, 14
    a1dd:	b915e1        	l32r	a14, 0xffff8634
    a1e0:	05b8      	l32i.n	a11, a5, 0
    a1e2:	b90d81        	l32r	a8, 0xffff8618
    a1e5:	abd8      	l32i.n	a13, a11, 40
    a1e7:	532882        	l32i	a8, a8, 0x14c
    a1ea:	c0dde0        	sub	a13, a13, a14
    a1ed:	939cd0        	movnez	a9, a12, a13
    a1f0:	20a9a0        	or	a10, a9, a10
    a1f3:	004692        	s8i	a9, a6, 0
    a1f6:	dbb8      	l32i.n	a11, a11, 52
    a1f8:	649090        	extui	a9, a9, 0, 7
    a1fb:	939ab0        	movnez	a9, a10, a11
    a1fe:	004692        	s8i	a9, a6, 0
    a201:	0008e0        	excw
    a204:	ba56b1        	l32r	a11, 0xffff8b5c
    a207:	0c4c      	movi.n	a12, 64
    a209:	9acc      	bnez.n	a10, 0xa216
    a20b:	0598      	l32i.n	a9, a5, 0
    a20d:	ba64a1        	l32r	a10, 0xffff8ba0
    a210:	272992        	l32i	a9, a9, 156
    a213:	7499a7        	bne	a9, a10, 0xa28b
    a216:	800bd2        	l8ui	a13, a11, 128
    a219:	20ddc0        	or	a13, a13, a12
    a21c:	0046d2        	s8i	a13, a6, 0
    a21f:	06bd      	mov.n	a11, a6
    a221:	1c0c      	movi.n	a12, 1
    a223:	24c232        	addi	a3, a2, 36
    a226:	532482        	l32i	a8, a4, 0x14c
    a229:	03ad      	mov.n	a10, a3
    a22b:	0008e0        	excw
    a22e:	146272        	s32i	a7, a2, 80
    a231:	242482        	l32i	a8, a4, 144
    a234:	03ad      	mov.n	a10, a3
    a236:	0008e0        	excw
    a239:	f01d      	excw
    a23b:	3e9a66        	bnei	a10, 10, 0xa27d
    a23e:	05b8      	l32i.n	a11, a5, 0
    a240:	ba65c1        	l32r	a12, 0xffff8bd4
    a243:	eb98      	l32i.n	a9, a11, 56
    a245:	fba8      	l32i.n	a10, a11, 60
    a247:	2c6917        	bbci	a9, 1, 0xa277
    a24a:	9aac      	beqz.n	a10, 0xa277
    a24c:	270a26        	beqi	a10, -1, 0xa277
    a24f:	0acd      	mov.n	a12, a10
    a251:	226ba2        	s32i	a10, a11, 136
    a254:	3c2482        	l32i	a8, a4, 240
    a257:	1f6bc2        	s32i	a12, a11, 124
    a25a:	0008e0        	excw
    a25d:	b97d21        	l32r	a2, 0xffff8854
    a260:	6288      	l32i.n	a8, a2, 24
    a262:	e8a3a2        	movi	a10, 0x3e8
    a265:	0008e0        	excw
    a268:	3d2482        	l32i	a8, a4, 244
    a26b:	0008e0        	excw
    a26e:	a288      	l32i.n	a8, a2, 40
    a270:	ca0c      	movi.n	a10, 12
    a272:	0008e0        	excw
    a275:	f01d      	excw
    a277:	ba65a1        	l32r	a10, 0xffff8c0c
    a27a:	fff4c6        	j	0xa251
    a27d:	ba5b81        	l32r	a8, 0xffff8bec
    a280:	02ad      	mov.n	a10, a2
    a282:	6888      	l32i.n	a8, a8, 24
    a284:	03bd      	mov.n	a11, a3
    a286:	0008e0        	excw
    a289:	f01d      	excw
    a28b:	ba6691        	l32r	a9, 0xffff8c24
    a28e:	8e09a2        	l8ui	a10, a9, 142
    a291:	f81a56        	bnez	a10, 0xa216
    a294:	0009d2        	l8ui	a13, a9, 0
    a297:	f7bd56        	bnez	a13, 0xa216
    a29a:	800bd2        	l8ui	a13, a11, 128
    a29d:	bfa0e2        	movi	a14, 191
    a2a0:	10dde0        	and	a13, a13, a14
    a2a3:	ffdd46        	j	0xa21c
    a2a6:	360000        	excw
    a2a9:	300041        	l32r	a4, 0xfffd62ac
    a2ac:	917460        	excw
    a2af:	5f          	.byte 0x5f
    a2b0:	50ba      	add.n	a5, a0, a11
    a2b2:	0c03e6        	bgei	a3, -1, 0xa2c2
    a2b5:	502b      	addi.n	a5, a0, 2
    a2b7:	873480        	excw
    a2ba:	022b      	addi.n	a0, a2, 2
    a2bc:	006250        	rsil	a5, 2
    a2bf:	9f2932        	l32i	a3, a9, 0x27c
    a2c2:	a029c2        	l32i	a12, a9, 0x280
    a2c5:	063316        	beqz	a3, 0xa32c
    a2c8:	7c8c      	beqz.n	a12, 0xa2d3
    a2ca:	02d2d2        	addmi	a13, a2, 0x200
    a2cd:	d50dd2        	l8ui	a13, a13, 213
    a2d0:	058d16        	beqz	a13, 0xa32c
    a2d3:	b91791        	l32r	a9, 0xffff8730
    a2d6:	1629e2        	l32i	a14, a9, 88
    a2d9:	1729f2        	l32i	a15, a9, 92
    a2dc:	04ce56        	bnez	a14, 0xa32c
    a2df:	049f56        	bnez	a15, 0xa32c
    a2e2:	ba5b31        	l32r	a3, 0xffff8c50
    a2e5:	304666        	bnei	a6, 4, 0xa319
    a2e8:	0a04a2        	l8ui	a10, a4, 10
    a2eb:	fb0c      	movi.n	a11, 15
    a2ed:	aa4a      	add.n	a10, a10, a4
    a2ef:	0c0aa2        	l8ui	a10, a10, 12
    a2f2:	e80c      	movi.n	a8, 14
    a2f4:	021a87        	beq	a10, a8, 0xa2fa
    a2f7:	1e9ab7        	bne	a10, a11, 0xa319
    a2fa:	0113c2        	l16ui	a12, a3, 2
    a2fd:	8cdc      	bnez.n	a12, 0xa319
    a2ff:	c802d2        	l8ui	a13, a2, 200
    a302:	132df6        	bgeui	a13, 2, 0xa319
    a305:	ca0c      	movi.n	a10, 12
    a307:	c8a0b2        	movi	a11, 200
    a30a:	ba5c81        	l32r	a8, 0xffff8c7c
    a30d:	0c0c      	movi.n	a12, 0
    a30f:	7888      	l32i.n	a8, a8, 28
    a311:	0d0c      	movi.n	a13, 0
    a313:	0008e0        	excw
    a316:	0153a2        	s16i	a10, a3, 2
    a319:	13e650        	wsr.ps	a5
    a31c:	002010        	rsync
    a31f:	02ad      	mov.n	a10, a2
    a321:	06bd      	mov.n	a11, a6
    a323:	7388      	l32i.n	a8, a3, 28
    a325:	04cd      	mov.n	a12, a4
    a327:	0008e0        	excw
    a32a:	f01d      	excw
    a32c:	13e650        	wsr.ps	a5
    a32f:	002010        	rsync
    a332:	b91881        	l32r	a8, 0xffff8794
    a335:	962882        	l32i	a8, a8, 0x258
    a338:	0008e0        	excw
    a33b:	aacc      	bnez.n	a10, 0xa349
    a33d:	b90781        	l32r	a8, 0xffff875c
    a340:	8888      	l32i.n	a8, a8, 32
    a342:	04ad      	mov.n	a10, a4
    a344:	0008e0        	excw
    a347:	f01d      	excw
    a349:	f01d      	excw
    a34b:	413600        	srli	a3, a0, 6
    a34e:	028200        	excw
    a351:	3108      	l32i.n	a0, a1, 12
    a353:	ba5b      	addi.n	a11, a10, 5
    a355:	5c1866        	bnei	a8, 1, 0xa3b5
    a358:	ba5f81        	l32r	a8, 0xffff8cd4
    a35b:	f50c      	movi.n	a5, 15
    a35d:	9a2882        	l32i	a8, a8, 0x268
    a360:	060c      	movi.n	a6, 0
    a362:	0888      	l32i.n	a8, a8, 0
    a364:	ba5c71        	l32r	a7, 0xffff8cd4
    a367:	0a0842        	l8ui	a4, a8, 10
    a36a:	eb0c      	movi.n	a11, 14
    a36c:	448a      	add.n	a4, a4, a8
    a36e:	0c04a2        	l8ui	a10, a4, 12
    a371:	44cb      	addi.n	a4, a4, 12
    a373:	021ab7        	beq	a10, a11, 0xa379
    a376:	0e9a57        	bne	a10, a5, 0xa388
    a379:	0113a2        	l16ui	a10, a3, 2
    a37c:	8a8c      	beqz.n	a10, 0xa388
    a37e:	8788      	l32i.n	a8, a7, 32
    a380:	0008e0        	excw
    a383:	eb0c      	movi.n	a11, 14
    a385:	015362        	s16i	a6, a3, 2
    a388:	000392        	l8ui	a9, a3, 0
    a38b:	69ac      	beqz.n	a9, 0xa3b5
    a38d:	1f3966        	bnei	a9, 3, 0xa3b0
    a390:	0004a2        	l8ui	a10, a4, 0
    a393:	004362        	s8i	a6, a3, 0
    a396:	1b1ab7        	beq	a10, a11, 0xa3b5
    a399:	181a57        	beq	a10, a5, 0xa3b5
    a39c:	ca0c      	movi.n	a10, 12
    a39e:	64a0b2        	movi	a11, 100
    a3a1:	0c0c      	movi.n	a12, 0
    a3a3:	7788      	l32i.n	a8, a7, 28
    a3a5:	0d0c      	movi.n	a13, 0
    a3a7:	0008e0        	excw
    a3aa:	0153a2        	s16i	a10, a3, 2
    a3ad:	000106        	j	0xa3b5
    a3b0:	490c      	movi.n	a9, 4
    a3b2:	004392        	s8i	a9, a3, 0
    a3b5:	8388      	l32i.n	a8, a3, 32
    a3b7:	02ad      	mov.n	a10, a2
    a3b9:	0008e0        	excw
    a3bc:	f01d      	excw
    a3be:	360000        	excw
    a3c1:	880041        	l32r	a4, 0xfffec3c4
    a3c4:	5bb132        	excw
    a3c7:	16ba      	add.n	a1, a6, a11
    a3c9:	06a8      	l32i.n	a10, a6, 0
    a3cb:	b90e91        	l32r	a9, 0xffff8804
    a3ce:	0998      	l32i.n	a9, a9, 0
    a3d0:	b915a1        	l32r	a10, 0xffff8824
    a3d3:	a998      	l32i.n	a9, a9, 40
    a3d5:	5899a7        	bne	a9, a10, 0xa431
    a3d8:	ba38a1        	l32r	a10, 0xffff8cb8
    a3db:	8c0ac2        	l8ui	a12, a10, 140
    a3de:	ba3091        	l32r	a9, 0xffff8ca0
    a3e1:	11ccb0        	slli	a12, a12, 5
    a3e4:	cc9a      	add.n	a12, a12, a9
    a3e6:	0020c0        	memw
    a3e9:	c02cc2        	l32i	a12, a12, 0x300
    a3ec:	b80ad2        	l8ui	a13, a10, 184
    a3ef:	3e7cf7        	bbci	a12, 31, 0xa431
    a3f2:	bdbc      	beqz.n	a13, 0xa431
    a3f4:	ba5ae1        	l32r	a14, 0xffff8d5c
    a3f7:	e00ee2        	l8ui	a14, a14, 224
    a3fa:	000bf2        	l8ui	a15, a11, 0
    a3fd:	0efc      	bnez.n	a14, 0xa431
    a3ff:	efec      	bnez.n	a15, 0xa431
    a401:	ba4ef1        	l32r	a15, 0xffff8d3c
    a404:	1e0c      	movi.n	a14, 1
    a406:	604fe2        	s8i	a14, a15, 96
    a409:	ba31c1        	l32r	a12, 0xffff8cd0
    a40c:	0020c0        	memw
    a40f:	862cb2        	l32i	a11, a12, 0x218
    a412:	0d4c      	movi.n	a13, 64
    a414:	20bbd0        	or	a11, a11, a13
    a417:	0020c0        	memw
    a41a:	866cb2        	s32i	a11, a12, 0x218
    a41d:	0020c0        	memw
    a420:	812982        	l32i	a8, a9, 0x204
    a423:	80a0a2        	movi	a10, 128
    a426:	2088a0        	or	a8, a8, a10
    a429:	0020c0        	memw
    a42c:	816982        	s32i	a8, a9, 0x204
    a42f:	f01d      	excw
    a431:	fe5725        	excw
    a434:	f01d      	excw
    a436:	9b88      	l32i.n	a8, a11, 36
    a438:	02ad      	mov.n	a10, a2
    a43a:	0008e0        	excw
    a43d:	f01d      	excw
    a43f:	413600        	srli	a3, a0, 6
    a442:	03a200        	excw
    a445:	1a2601        	l32r	a0, 0xfffd0ce0
    a448:	2a2624        	excw
    a44b:	165121        	l32r	a2, 0xfffcfd90
    a44e:	b1b9      	s32i.n	a11, a1, 44
    a450:	ba3d      	excw
    a452:	493a26        	beqi	a10, 3, 0xa49f
    a455:	980c      	movi.n	a8, 9
    a457:	211a87        	beq	a10, a8, 0xa47c
    a45a:	359a26        	beqi	a10, 10, 0xa493
    a45d:	b90c      	movi.n	a9, 11
    a45f:	0d1a97        	beq	a10, a9, 0xa470
    a462:	02ad      	mov.n	a10, a2
    a464:	03bd      	mov.n	a11, a3
    a466:	1c2582        	l32i	a8, a5, 112
    a469:	04cd      	mov.n	a12, a4
    a46b:	0008e0        	excw
    a46e:	f01d      	excw
    a470:	02ad      	mov.n	a10, a2
    a472:	4d2582        	l32i	a8, a5, 0x134
    a475:	1b0c      	movi.n	a11, 1
    a477:	0008e0        	excw
    a47a:	f01d      	excw
    a47c:	0313c2        	l16ui	a12, a3, 6
    a47f:	acbc      	beqz.n	a12, 0xa4bd
    a481:	532582        	l32i	a8, a5, 0x14c
    a484:	04ad      	mov.n	a10, a4
    a486:	0008e0        	excw
    a489:	242582        	l32i	a8, a5, 144
    a48c:	04ad      	mov.n	a10, a4
    a48e:	0008e0        	excw
    a491:	f01d      	excw
    a493:	02ad      	mov.n	a10, a2
    a495:	4d2582        	l32i	a8, a5, 0x134
    a498:	1b0c      	movi.n	a11, 1
    a49a:	0008e0        	excw
    a49d:	f01d      	excw
    a49f:	04ad      	mov.n	a10, a4
    a4a1:	1c0c      	movi.n	a12, 1
    a4a3:	ba6791        	l32r	a9, 0xffff8e40
    a4a6:	532582        	l32i	a8, a5, 0x14c
    a4a9:	004b92        	s8i	a9, a11, 0
    a4ac:	0008e0        	excw
    a4af:	04ad      	mov.n	a10, a4
    a4b1:	090c      	movi.n	a9, 0
    a4b3:	242582        	l32i	a8, a5, 144
    a4b6:	b499      	s32i.n	a9, a4, 44
    a4b8:	0008e0        	excw
    a4bb:	f01d      	excw
    a4bd:	02ad      	mov.n	a10, a2
    a4bf:	0b0c      	movi.n	a11, 0
    a4c1:	190c      	movi.n	a9, 1
    a4c3:	312582        	l32i	a8, a5, 196
    a4c6:	b499      	s32i.n	a9, a4, 44
    a4c8:	0008e0        	excw
    a4cb:	f01d      	excw
    a4cd:	000000        	ill
    a4d0:	006136        	excw
    a4d3:	01ad      	mov.n	a10, a1
    a4d5:	8c0c      	movi.n	a12, 8
    a4d7:	c4a2b2        	movi	a11, 0x2c4
    a4da:	b2ba      	add.n	a11, a2, a11
    a4dc:	0317a5        	excw
    a4df:	0001c2        	l8ui	a12, a1, 0
    a4e2:	0211a2        	l16ui	a10, a1, 4
    a4e5:	44c0c0        	extui	a12, a12, 0, 5
    a4e8:	122c66        	bnei	a12, 2, 0xa4fe
    a4eb:	b91631        	l32r	a3, 0xffff8944
    a4ee:	3490a0        	extui	a9, a10, 0, 4
    a4f1:	1569b6        	bltui	a9, 6, 0xa50a
    a4f4:	492382        	l32i	a8, a3, 0x124
    a4f7:	02ad      	mov.n	a10, a2
    a4f9:	0008e0        	excw
    a4fc:	f01d      	excw
    a4fe:	ba5b81        	l32r	a8, 0xffff8e6c
    a501:	a888      	l32i.n	a8, a8, 40
    a503:	02ad      	mov.n	a10, a2
    a505:	0008e0        	excw
    a508:	f01d      	excw
    a50a:	3a6a77        	bbci	a10, 7, 0xa548
    a50d:	ba53a1        	l32r	a10, 0xffff8e5c
    a510:	99aa      	add.n	a9, a9, a10
    a512:	000992        	l8ui	a9, a9, 0
    a515:	f09990        	subx8	a9, a9, a9
    a518:	b09920        	addx8	a9, a9, a2
    a51b:	0111a2        	l16ui	a10, a1, 2
    a51e:	24c9b2        	addi	a11, a9, 36
    a521:	7adc      	bnez.n	a10, 0xa53c
    a523:	99c8      	l32i.n	a12, a9, 36
    a525:	9c8c      	beqz.n	a12, 0xa532
    a527:	4c2382        	l32i	a8, a3, 0x130
    a52a:	02ad      	mov.n	a10, a2
    a52c:	0008e0        	excw
    a52f:	000246        	j	0xa53c
    a532:	6acc      	bnez.n	a10, 0xa53c
    a534:	232382        	l32i	a8, a3, 140
    a537:	0bad      	mov.n	a10, a11
    a539:	0008e0        	excw
    a53c:	02ad      	mov.n	a10, a2
    a53e:	4d2382        	l32i	a8, a3, 0x134
    a541:	1b0c      	movi.n	a11, 1
    a543:	0008e0        	excw
    a546:	f01d      	excw
    a548:	ba52a1        	l32r	a10, 0xffff8e90
    a54b:	99aa      	add.n	a9, a9, a10
    a54d:	000992        	l8ui	a9, a9, 0
    a550:	f09990        	subx8	a9, a9, a9
    a553:	fff046        	j	0xa518
    a556:	360000        	excw
    a559:	a10041        	l32r	a4, 0xffff295c
    a55c:	0e          	.byte 0xe
    a55d:	31b9      	s32i.n	a11, a1, 12
    a55f:	ba68      	l32i.n	a6, a10, 44
    a561:	0aa8      	l32i.n	a10, a10, 0
    a563:	6423b2        	l32i	a11, a3, 0x190
    a566:	502382        	l32i	a8, a3, 0x140
    a569:	652322        	l32i	a2, a3, 0x194
    a56c:	512342        	l32i	a4, a3, 0x144
    a56f:	4123f2        	l32i	a15, a3, 0x104
    a572:	8523e2        	l32i	a14, a3, 0x214
    a575:	9523d2        	l32i	a13, a3, 0x254
    a578:	6123c2        	l32i	a12, a3, 0x184
    a57b:	222a92        	l32i	a9, a10, 136
    a57e:	1f6a92        	s32i	a9, a10, 124
    a581:	ba5ba1        	l32r	a10, 0xffff8ef0
    a584:	8b2392        	l32i	a9, a3, 0x22c
    a587:	5af9      	s32i.n	a15, a10, 20
    a589:	6ae9      	s32i.n	a14, a10, 24
    a58b:	7ad9      	s32i.n	a13, a10, 28
    a58d:	8ac9      	s32i.n	a12, a10, 32
    a58f:	9ab9      	s32i.n	a11, a10, 36
    a591:	aa99      	s32i.n	a9, a10, 40
    a593:	1a89      	s32i.n	a8, a10, 4
    a595:	4a29      	s32i.n	a2, a10, 16
    a597:	3a49      	s32i.n	a4, a10, 12
    a599:	ba6b21        	l32r	a2, 0xffff8f48
    a59c:	ba6a41        	l32r	a4, 0xffff8f44
    a59f:	ba6981        	l32r	a8, 0xffff8f44
    a5a2:	ba7291        	l32r	a9, 0xffff8f6c
    a5a5:	ba70b1        	l32r	a11, 0xffff8f68
    a5a8:	ba6fc1        	l32r	a12, 0xffff8f64
    a5ab:	ba6ed1        	l32r	a13, 0xffff8f64
    a5ae:	ba6de1        	l32r	a14, 0xffff8f64
    a5b1:	ba6cf1        	l32r	a15, 0xffff8f64
    a5b4:	6b63f2        	s32i	a15, a3, 0x1ac
    a5b7:	6763e2        	s32i	a14, a3, 0x19c
    a5ba:	6c63d2        	s32i	a13, a3, 0x1b0
    a5bd:	5d63c2        	s32i	a12, a3, 0x174
    a5c0:	8d63b2        	s32i	a11, a3, 0x234
    a5c3:	4f6392        	s32i	a9, a3, 0x13c
    a5c6:	426382        	s32i	a8, a3, 0x108
    a5c9:	5e6342        	s32i	a4, a3, 0x178
    a5cc:	696322        	s32i	a2, a3, 0x1a4
    a5cf:	ba7441        	l32r	a4, 0xffff8fa0
    a5d2:	ba7521        	l32r	a2, 0xffff8fa8
    a5d5:	ba7381        	l32r	a8, 0xffff8fa4
    a5d8:	ba7c91        	l32r	a9, 0xffff8fc8
    a5db:	ba7ab1        	l32r	a11, 0xffff8fc4
    a5de:	ba79c1        	l32r	a12, 0xffff8fc4
    a5e1:	ba78d1        	l32r	a13, 0xffff8fc4
    a5e4:	ba77e1        	l32r	a14, 0xffff8fc0
    a5e7:	ba76f1        	l32r	a15, 0xffff8fc0
    a5ea:	4163f2        	s32i	a15, a3, 0x104
    a5ed:	9963e2        	s32i	a14, a3, 0x264
    a5f0:	5363d2        	s32i	a13, a3, 0x14c
    a5f3:	5263c2        	s32i	a12, a3, 0x148
    a5f6:	6063b2        	s32i	a11, a3, 0x180
    a5f9:	956392        	s32i	a9, a3, 0x254
    a5fc:	826382        	s32i	a8, a3, 0x208
    a5ff:	656322        	s32i	a2, a3, 0x194
    a602:	516342        	s32i	a4, a3, 0x144
    a605:	ba7f21        	l32r	a2, 0xffff9004
    a608:	ba7e41        	l32r	a4, 0xffff9000
    a60b:	ba7d81        	l32r	a8, 0xffff9000
    a60e:	616382        	s32i	a8, a3, 0x184
    a611:	646342        	s32i	a4, a3, 0x190
    a614:	8b6322        	s32i	a2, a3, 0x22c
    a617:	ba71a1        	l32r	a10, 0xffff8fdc
    a61a:	5063a2        	s32i	a10, a3, 0x140
    a61d:	ba7ba1        	l32r	a10, 0xffff900c
    a620:	8563a2        	s32i	a10, a3, 0x214
    a623:	f01d      	excw
    a625:	000000        	ill
    a628:	004136        	excw
    a62b:	080c      	movi.n	a8, 0
    a62d:	010262        	l8ui	a6, a2, 1
    a630:	1a2c      	movi.n	a10, 33
    a632:	0fc616        	beqz	a6, 0xa732
    a635:	ba8071        	l32r	a7, 0xffff9038
    a638:	460b      	addi.n	a4, a6, -1
    a63a:	14d416        	beqz	a4, 0xa78b
    a63d:	fec692        	addi	a9, a6, -2
    a640:	16f916        	beqz	a9, 0xa7b3
    a643:	fdc6b2        	addi	a11, a6, -3
    a646:	191b16        	beqz	a11, 0xa7db
    a649:	fcc6c2        	addi	a12, a6, -4
    a64c:	1b3c16        	beqz	a12, 0xa803
    a64f:	fbc6d2        	addi	a13, a6, -5
    a652:	1d5d16        	beqz	a13, 0xa82b
    a655:	336666        	bnei	a6, 6, 0xa68c
    a658:	071252        	l16ui	a5, a2, 14
    a65b:	267516        	beqz	a5, 0xa8c6
    a65e:	2a1566        	bnei	a5, 1, 0xa68c
    a661:	0612f2        	l16ui	a15, a2, 12
    a664:	414830        	srli	a4, a3, 8
    a667:	a0ff70        	addx4	a15, a15, a7
    a66a:	e54f32        	s8i	a3, a15, 229
    a66d:	e44f42        	s8i	a4, a15, 228
    a670:	0612e2        	l16ui	a14, a2, 12
    a673:	075282        	s16i	a8, a2, 14
    a676:	ee1b      	addi.n	a14, a14, 1
    a678:	0652e2        	s16i	a14, a2, 12
    a67b:	000346        	j	0xa68c
    a67e:	355732        	s16i	a3, a7, 106
    a681:	061232        	l16ui	a3, a2, 12
    a684:	010262        	l8ui	a6, a2, 1
    a687:	331b      	addi.n	a3, a3, 1
    a689:	065232        	s16i	a3, a2, 12
    a68c:	b91d71        	l32r	a7, 0xffff8b00
    a68f:	281666        	bnei	a6, 1, 0xa6bb
    a692:	d50752        	l8ui	a5, a7, 213
    a695:	061242        	l16ui	a4, a2, 12
    a698:	1f3457        	bltu	a4, a5, 0xa6bb
    a69b:	021232        	l16ui	a3, a2, 4
    a69e:	083a37        	bltu	a10, a3, 0xa6aa
    a6a1:	0993a7        	bne	a3, a10, 0xa6ae
    a6a4:	031292        	l16ui	a9, a2, 6
    a6a7:	0399b6        	bltui	a9, 10, 0xa6ae
    a6aa:	120c      	movi.n	a2, 1
    a6ac:	f01d      	excw
    a6ae:	065282        	s16i	a8, a2, 12
    a6b1:	075282        	s16i	a8, a2, 14
    a6b4:	260c      	movi.n	a6, 2
    a6b6:	2a0c      	movi.n	a10, 2
    a6b8:	0142a2        	s8i	a10, a2, 1
    a6bb:	152666        	bnei	a6, 2, 0xa6d4
    a6be:	f707c2        	l8ui	a12, a7, 247
    a6c1:	0612b2        	l16ui	a11, a2, 12
    a6c4:	0c3bc7        	bltu	a11, a12, 0xa6d4
    a6c7:	065282        	s16i	a8, a2, 12
    a6ca:	075282        	s16i	a8, a2, 14
    a6cd:	360c      	movi.n	a6, 3
    a6cf:	3d0c      	movi.n	a13, 3
    a6d1:	0142d2        	s8i	a13, a2, 1
    a6d4:	153666        	bnei	a6, 3, 0xa6ed
    a6d7:	f807f2        	l8ui	a15, a7, 248
    a6da:	0612e2        	l16ui	a14, a2, 12
    a6dd:	0c3ef7        	bltu	a14, a15, 0xa6ed
    a6e0:	065282        	s16i	a8, a2, 12
    a6e3:	075282        	s16i	a8, a2, 14
    a6e6:	460c      	movi.n	a6, 4
    a6e8:	440c      	movi.n	a4, 4
    a6ea:	014242        	s8i	a4, a2, 1
    a6ed:	154666        	bnei	a6, 4, 0xa706
    a6f0:	f90792        	l8ui	a9, a7, 249
    a6f3:	061252        	l16ui	a5, a2, 12
    a6f6:	0c3597        	bltu	a5, a9, 0xa706
    a6f9:	065282        	s16i	a8, a2, 12
    a6fc:	075282        	s16i	a8, a2, 14
    a6ff:	560c      	movi.n	a6, 5
    a701:	5a0c      	movi.n	a10, 5
    a703:	0142a2        	s8i	a10, a2, 1
    a706:	155666        	bnei	a6, 5, 0xa71f
    a709:	f907c2        	l8ui	a12, a7, 249
    a70c:	0612b2        	l16ui	a11, a2, 12
    a70f:	0c3bc7        	bltu	a11, a12, 0xa71f
    a712:	065282        	s16i	a8, a2, 12
    a715:	075282        	s16i	a8, a2, 14
    a718:	660c      	movi.n	a6, 6
    a71a:	6d0c      	movi.n	a13, 6
    a71c:	0142d2        	s8i	a13, a2, 1
    a71f:	0b6666        	bnei	a6, 6, 0xa72e
    a722:	f807f2        	l8ui	a15, a7, 248
    a725:	0612e2        	l16ui	a14, a2, 12
    a728:	023ef7        	bltu	a14, a15, 0xa72e
    a72b:	ffdec6        	j	0xa6aa
    a72e:	020c      	movi.n	a2, 0
    a730:	f01d      	excw
    a732:	8c0c      	movi.n	a12, 8
    a734:	1b0c      	movi.n	a11, 1
    a736:	ba8171        	l32r	a7, 0xffff913c
    a739:	061292        	l16ui	a9, a2, 12
    a73c:	441c      	movi.n	a4, 20
    a73e:	023947        	bltu	a9, a4, 0xa744
    a741:	ffd1c6        	j	0xa68c
    a744:	ba82d1        	l32r	a13, 0xffff914c
    a747:	905990        	addx2	a5, a9, a9
    a74a:	55da      	add.n	a5, a5, a13
    a74c:	0005a0        	jx	a5
    a74f:	006286        	j	0xa8dd
    a752:	009e86        	j	0xa9d0
    a755:	0099c6        	j	0xa9c0
    a758:	009786        	j	0xa9ba
    a75b:	009546        	j	0xa9b4
    a75e:	009306        	j	0xa9ae
    a761:	0090c6        	j	0xa9a8
    a764:	008e86        	j	0xa9a2
    a767:	008c46        	j	0xa99c
    a76a:	008a06        	j	0xa996
    a76d:	008146        	j	0xa976
    a770:	ffc286        	j	0xa67e
    a773:	007cc6        	j	0xa96a
    a776:	007286        	j	0xa944
    a779:	007046        	j	0xa93e
    a77c:	006c86        	j	0xa932
    a77f:	006846        	j	0xa924
    a782:	006486        	j	0xa918
    a785:	006046        	j	0xa90a
    a788:	005a06        	j	0xa8f4
    a78b:	071252        	l16ui	a5, a2, 14
    a78e:	0c1516        	beqz	a5, 0xa853
    a791:	e50b      	addi.n	a14, a5, -1
    a793:	ef5e56        	bnez	a14, 0xa68c
    a796:	061242        	l16ui	a4, a2, 12
    a799:	415830        	srli	a5, a3, 8
    a79c:	a04470        	addx4	a4, a4, a7
    a79f:	454432        	s8i	a3, a4, 69
    a7a2:	444452        	s8i	a5, a4, 68
    a7a5:	0612f2        	l16ui	a15, a2, 12
    a7a8:	075282        	s16i	a8, a2, 14
    a7ab:	ff1b      	addi.n	a15, a15, 1
    a7ad:	0652f2        	s16i	a15, a2, 12
    a7b0:	ffb606        	j	0xa68c
    a7b3:	071252        	l16ui	a5, a2, 14
    a7b6:	0b0516        	beqz	a5, 0xa86a
    a7b9:	950b      	addi.n	a9, a5, -1
    a7bb:	ecd956        	bnez	a9, 0xa68c
    a7be:	0612c2        	l16ui	a12, a2, 12
    a7c1:	41d830        	srli	a13, a3, 8
    a7c4:	a0cc70        	addx4	a12, a12, a7
    a7c7:	654c32        	s8i	a3, a12, 101
    a7ca:	644cd2        	s8i	a13, a12, 100
    a7cd:	0612b2        	l16ui	a11, a2, 12
    a7d0:	075282        	s16i	a8, a2, 14
    a7d3:	bb1b      	addi.n	a11, a11, 1
    a7d5:	0652b2        	s16i	a11, a2, 12
    a7d8:	ffac06        	j	0xa68c
    a7db:	071252        	l16ui	a5, a2, 14
    a7de:	09f516        	beqz	a5, 0xa881
    a7e1:	d50b      	addi.n	a13, a5, -1
    a7e3:	ea5d56        	bnez	a13, 0xa68c
    a7e6:	0612f2        	l16ui	a15, a2, 12
    a7e9:	414830        	srli	a4, a3, 8
    a7ec:	a0ff70        	addx4	a15, a15, a7
    a7ef:	854f32        	s8i	a3, a15, 133
    a7f2:	844f42        	s8i	a4, a15, 132
    a7f5:	0612e2        	l16ui	a14, a2, 12
    a7f8:	075282        	s16i	a8, a2, 14
    a7fb:	ee1b      	addi.n	a14, a14, 1
    a7fd:	0652e2        	s16i	a14, a2, 12
    a800:	ffa206        	j	0xa68c
    a803:	071252        	l16ui	a5, a2, 14
    a806:	08e516        	beqz	a5, 0xa898
    a809:	450b      	addi.n	a4, a5, -1
    a80b:	e7d456        	bnez	a4, 0xa68c
    a80e:	061292        	l16ui	a9, a2, 12
    a811:	41b830        	srli	a11, a3, 8
    a814:	a09970        	addx4	a9, a9, a7
    a817:	a54932        	s8i	a3, a9, 165
    a81a:	a449b2        	s8i	a11, a9, 164
    a81d:	061252        	l16ui	a5, a2, 12
    a820:	075282        	s16i	a8, a2, 14
    a823:	551b      	addi.n	a5, a5, 1
    a825:	065252        	s16i	a5, a2, 12
    a828:	ff9806        	j	0xa68c
    a82b:	071252        	l16ui	a5, a2, 14
    a82e:	07d516        	beqz	a5, 0xa8af
    a831:	b50b      	addi.n	a11, a5, -1
    a833:	e55b56        	bnez	a11, 0xa68c
    a836:	0612d2        	l16ui	a13, a2, 12
    a839:	41e830        	srli	a14, a3, 8
    a83c:	a0dd70        	addx4	a13, a13, a7
    a83f:	c54d32        	s8i	a3, a13, 197
    a842:	c44de2        	s8i	a14, a13, 196
    a845:	0612c2        	l16ui	a12, a2, 12
    a848:	075282        	s16i	a8, a2, 14
    a84b:	cc1b      	addi.n	a12, a12, 1
    a84d:	0652c2        	s16i	a12, a2, 12
    a850:	ff8e06        	j	0xa68c
    a853:	e51b      	addi.n	a14, a5, 1
    a855:	0612f2        	l16ui	a15, a2, 12
    a858:	414830        	srli	a4, a3, 8
    a85b:	a0ff70        	addx4	a15, a15, a7
    a85e:	434f32        	s8i	a3, a15, 67
    a861:	424f42        	s8i	a4, a15, 66
    a864:	0752e2        	s16i	a14, a2, 14
    a867:	ff8846        	j	0xa68c
    a86a:	451b      	addi.n	a4, a5, 1
    a86c:	061292        	l16ui	a9, a2, 12
    a86f:	41b830        	srli	a11, a3, 8
    a872:	a09970        	addx4	a9, a9, a7
    a875:	634932        	s8i	a3, a9, 99
    a878:	6249b2        	s8i	a11, a9, 98
    a87b:	075242        	s16i	a4, a2, 14
    a87e:	ff8286        	j	0xa68c
    a881:	b51b      	addi.n	a11, a5, 1
    a883:	0612c2        	l16ui	a12, a2, 12
    a886:	41d830        	srli	a13, a3, 8
    a889:	a0cc70        	addx4	a12, a12, a7
    a88c:	834c32        	s8i	a3, a12, 131
    a88f:	824cd2        	s8i	a13, a12, 130
    a892:	0752b2        	s16i	a11, a2, 14
    a895:	ff7cc6        	j	0xa68c
    a898:	d51b      	addi.n	a13, a5, 1
    a89a:	0612e2        	l16ui	a14, a2, 12
    a89d:	41f830        	srli	a15, a3, 8
    a8a0:	a0ee70        	addx4	a14, a14, a7
    a8a3:	a34e32        	s8i	a3, a14, 163
    a8a6:	a24ef2        	s8i	a15, a14, 162
    a8a9:	0752d2        	s16i	a13, a2, 14
    a8ac:	ff7706        	j	0xa68c
    a8af:	f51b      	addi.n	a15, a5, 1
    a8b1:	061242        	l16ui	a4, a2, 12
    a8b4:	419830        	srli	a9, a3, 8
    a8b7:	a04470        	addx4	a4, a4, a7
    a8ba:	c34432        	s8i	a3, a4, 195
    a8bd:	c24492        	s8i	a9, a4, 194
    a8c0:	0752f2        	s16i	a15, a2, 14
    a8c3:	ff7146        	j	0xa68c
    a8c6:	951b      	addi.n	a9, a5, 1
    a8c8:	0612b2        	l16ui	a11, a2, 12
    a8cb:	41c830        	srli	a12, a3, 8
    a8ce:	a0bb70        	addx4	a11, a11, a7
    a8d1:	e34b32        	s8i	a3, a11, 227
    a8d4:	e24bc2        	s8i	a12, a11, 226
    a8d7:	075292        	s16i	a9, a2, 14
    a8da:	ff6b86        	j	0xa68c
    a8dd:	554732        	s8i	a3, a7, 85
    a8e0:	74d030        	extui	a13, a3, 0, 8
    a8e3:	41e830        	srli	a14, a3, 8
    a8e6:	5447e2        	s8i	a14, a7, 84
    a8e9:	02bcd7        	bgeu	a12, a13, 0xa8ef
    a8ec:	5547c2        	s8i	a12, a7, 85
    a8ef:	391b      	addi.n	a3, a9, 1
    a8f1:	ff6506        	j	0xa689
    a8f4:	0b6d      	mov.n	a6, a11
    a8f6:	7b4732        	s8i	a3, a7, 123
    a8f9:	41f830        	srli	a15, a3, 8
    a8fc:	7a47f2        	s8i	a15, a7, 122
    a8ff:	0142b2        	s8i	a11, a2, 1
    a902:	075282        	s16i	a8, a2, 14
    a905:	083d      	mov.n	a3, a8
    a907:	ff5f86        	j	0xa689
    a90a:	794732        	s8i	a3, a7, 121
    a90d:	414830        	srli	a4, a3, 8
    a910:	784742        	s8i	a4, a7, 120
    a913:	391b      	addi.n	a3, a9, 1
    a915:	ff5c06        	j	0xa689
    a918:	774732        	s8i	a3, a7, 119
    a91b:	41b830        	srli	a11, a3, 8
    a91e:	7647b2        	s8i	a11, a7, 118
    a921:	fffb86        	j	0xa913
    a924:	754732        	s8i	a3, a7, 117
    a927:	41c830        	srli	a12, a3, 8
    a92a:	7447c2        	s8i	a12, a7, 116
    a92d:	391b      	addi.n	a3, a9, 1
    a92f:	ff5586        	j	0xa689
    a932:	734732        	s8i	a3, a7, 115
    a935:	41d830        	srli	a13, a3, 8
    a938:	7247d2        	s8i	a13, a7, 114
    a93b:	fffb86        	j	0xa92d
    a93e:	385732        	s16i	a3, a7, 112
    a941:	fffa06        	j	0xa92d
    a944:	375732        	s16i	a3, a7, 110
    a947:	021232        	l16ui	a3, a2, 4
    a94a:	0e3a37        	bltu	a10, a3, 0xa95c
    a94d:	dfc3e2        	addi	a14, a3, -33
    a950:	093e56        	bnez	a14, 0xa9e7
    a953:	0312f2        	l16ui	a15, a2, 6
    a956:	029ff6        	bgeui	a15, 10, 0xa95c
    a959:	002286        	j	0xa9e7
    a95c:	061242        	l16ui	a4, a2, 12
    a95f:	010262        	l8ui	a6, a2, 1
    a962:	441b      	addi.n	a4, a4, 1
    a964:	065242        	s16i	a4, a2, 12
    a967:	ff4846        	j	0xa68c
    a96a:	365732        	s16i	a3, a7, 108
    a96d:	061292        	l16ui	a9, a2, 12
    a970:	010262        	l8ui	a6, a2, 1
    a973:	ffed86        	j	0xa92d
    a976:	345732        	s16i	a3, a7, 104
    a979:	021232        	l16ui	a3, a2, 4
    a97c:	083a37        	bltu	a10, a3, 0xa988
    a97f:	7293a7        	bne	a3, a10, 0xa9f5
    a982:	031252        	l16ui	a5, a2, 6
    a985:	6cbc57        	bgeu	a12, a5, 0xa9f5
    a988:	061292        	l16ui	a9, a2, 12
    a98b:	010262        	l8ui	a6, a2, 1
    a98e:	991b      	addi.n	a9, a9, 1
    a990:	065292        	s16i	a9, a2, 12
    a993:	ff3d46        	j	0xa68c
    a996:	335732        	s16i	a3, a7, 102
    a999:	ff3906        	j	0xa681
    a99c:	325732        	s16i	a3, a7, 100
    a99f:	ff3786        	j	0xa681
    a9a2:	315732        	s16i	a3, a7, 98
    a9a5:	ff3606        	j	0xa681
    a9a8:	305732        	s16i	a3, a7, 96
    a9ab:	ff3486        	j	0xa681
    a9ae:	2f5732        	s16i	a3, a7, 94
    a9b1:	ff3306        	j	0xa681
    a9b4:	2e5732        	s16i	a3, a7, 92
    a9b7:	ff3186        	j	0xa681
    a9ba:	2d5732        	s16i	a3, a7, 90
    a9bd:	ff3006        	j	0xa681
    a9c0:	594732        	s8i	a3, a7, 89
    a9c3:	591b      	addi.n	a5, a9, 1
    a9c5:	41b830        	srli	a11, a3, 8
    a9c8:	5847b2        	s8i	a11, a7, 88
    a9cb:	053d      	mov.n	a3, a5
    a9cd:	ff2e06        	j	0xa689
    a9d0:	2b5732        	s16i	a3, a7, 86
    a9d3:	021232        	l16ui	a3, a2, 4
    a9d6:	083a37        	bltu	a10, a3, 0xa9e2
    a9d9:	2693a7        	bne	a3, a10, 0xaa03
    a9dc:	0312c2        	l16ui	a12, a2, 6
    a9df:	208cb6        	bltui	a12, 8, 0xaa03
    a9e2:	591b      	addi.n	a5, a9, 1
    a9e4:	fff8c6        	j	0xa9cb
    a9e7:	0142b2        	s8i	a11, a2, 1
    a9ea:	065282        	s16i	a8, a2, 12
    a9ed:	075282        	s16i	a8, a2, 14
    a9f0:	160c      	movi.n	a6, 1
    a9f2:	ff2586        	j	0xa68c
    a9f5:	0142b2        	s8i	a11, a2, 1
    a9f8:	075282        	s16i	a8, a2, 14
    a9fb:	065282        	s16i	a8, a2, 12
    a9fe:	160c      	movi.n	a6, 1
    aa00:	ff2206        	j	0xa68c
    aa03:	0142b2        	s8i	a11, a2, 1
    aa06:	075282        	s16i	a8, a2, 14
    aa09:	085d      	mov.n	a5, a8
    aa0b:	160c      	movi.n	a6, 1
    aa0d:	ffee86        	j	0xa9cb
    aa10:	004136        	excw
    aa13:	ba8381        	l32r	a8, 0xffff9420
    aa16:	0888      	l32i.n	a8, a8, 0
    aa18:	0008e0        	excw
    aa1b:	b914a1        	l32r	a10, 0xffff8e6c
    aa1e:	221a92        	l16ui	a9, a10, 68
    aa21:	1b0c      	movi.n	a11, 1
    aa23:	2099b0        	or	a9, a9, a11
    aa26:	225a92        	s16i	a9, a10, 68
    aa29:	f01d      	excw
    aa2b:	413600        	srli	a3, a0, 6
    aa2e:	852100        	extui	a2, a0, 17, 9
    aa31:	41ba      	add.n	a4, a1, a11
    aa33:	31ba84        	excw
    aa36:	b90d      	excw
    aa38:	ba8391        	l32r	a9, 0xffff9444
    aa3b:	232382        	l32i	a8, a3, 140
    aa3e:	0989      	s32i.n	a8, a9, 0
    aa40:	236342        	s32i	a4, a3, 140
    aa43:	136322        	s32i	a2, a3, 76
    aa46:	f01d      	excw
    aa48:	004136        	excw
    aa4b:	02ad      	mov.n	a10, a2
    aa4d:	04cd      	mov.n	a12, a4
    aa4f:	ba6681        	l32r	a8, 0xffff93e8
    aa52:	03bd      	mov.n	a11, a3
    aa54:	2888      	l32i.n	a8, a8, 8
    aa56:	ba8691        	l32r	a9, 0xffff9470
    aa59:	0888      	l32i.n	a8, a8, 0
    aa5b:	05dd      	mov.n	a13, a5
    aa5d:	121897        	beq	a8, a9, 0xaa73
    aa60:	f5cc      	bnez.n	a5, 0xaa73
    aa62:	0003e2        	l8ui	a14, a3, 0
    aa65:	190c      	movi.n	a9, 1
    aa67:	401e00        	ssl	a14
    aa6a:	a19900        	sll	a9, a9
    aa6d:	f49090        	extui	a9, a9, 0, 16
    aa70:	93d9e0        	movnez	a13, a9, a14
    aa73:	ba8781        	l32r	a8, 0xffff9490
    aa76:	0888      	l32i.n	a8, a8, 0
    aa78:	0008e0        	excw
    aa7b:	0a2d      	mov.n	a2, a10
    aa7d:	f01d      	excw
    aa7f:	413600        	srli	a3, a0, 6
    aa82:	0ea100        	excw
    aa85:	91b9      	s32i.n	a11, a1, 36
    aa87:	a8ba64        	excw
    aa8a:	410a      	add.n	a4, a1, a0
    aa8c:	82ba66        	bnei	a10, 16, 0xaa12
    aa8f:	232a      	add.n	a2, a3, a2
    aa91:	24d8      	l32i.n	a13, a4, 8
    aa93:	059897        	bne	a8, a9, 0xaa9c
    aa96:	242a32        	l32i	a3, a10, 144
    aa99:	000086        	j	0xaa9f
    aa9c:	ba8831        	l32r	a3, 0xffff94bc
    aa9f:	5dbc      	beqz.n	a13, 0xaad8
    aaa1:	ba86c1        	l32r	a12, 0xffff94bc
    aaa4:	0db8      	l32i.n	a11, a13, 0
    aaa6:	031de2        	l16ui	a14, a13, 6
    aaa9:	2b9bc7        	bne	a11, a12, 0xaad8
    aaac:	ba89f1        	l32r	a15, 0xffff94d0
    aaaf:	0b0c      	movi.n	a11, 0
    aab1:	443fe7        	bltu	a15, a14, 0xaaf9
    aab4:	ad6b      	addi.n	a10, a13, 6
    aab6:	0c0c      	movi.n	a12, 0
    aab8:	ba8a81        	l32r	a8, 0xffff94e0
    aabb:	be4b      	addi.n	a11, a14, 4
    aabd:	212882        	l32i	a8, a8, 132
    aac0:	f4b0b0        	extui	a11, a11, 0, 16
    aac3:	0008e0        	excw
    aac6:	24d8      	l32i.n	a13, a4, 8
    aac8:	1c0c      	movi.n	a12, 1
    aaca:	021dd2        	l16ui	a13, a13, 4
    aacd:	0b0c      	movi.n	a11, 0
    aacf:	c0dda0        	sub	a13, a13, a10
    aad2:	83bcd0        	moveqz	a11, a12, a13
    aad5:	000046        	j	0xaada
    aad8:	0b0c      	movi.n	a11, 0
    aada:	ba8bf1        	l32r	a15, 0xffff9508
    aadd:	03e8      	l32i.n	a14, a3, 0
    aadf:	1d0c      	movi.n	a13, 1
    aae1:	079ef7        	bne	a14, a15, 0xaaec
    aae4:	2c0c      	movi.n	a12, 2
    aae6:	20bbc0        	or	a11, a11, a12
    aae9:	f4b0b0        	extui	a11, a11, 0, 16
    aaec:	10e2b0        	and	a14, a2, a11
    aaef:	c0e2e0        	sub	a14, a2, a14
    aaf2:	020c      	movi.n	a2, 0
    aaf4:	832de0        	moveqz	a2, a13, a14
    aaf7:	f01d      	excw
    aaf9:	fff746        	j	0xaada
    aafc:	004136        	excw
    aaff:	ba66e1        	l32r	a14, 0xffff9498
    ab02:	401ed2        	l16ui	a13, a14, 128
    ab05:	411e82        	l16ui	a8, a14, 130
    ab08:	dd2a      	add.n	a13, a13, a2
    ab0a:	9d4a      	add.n	a9, a13, a4
    ab0c:	12b897        	bgeu	a8, a9, 0xab22
    ab0f:	02ad      	mov.n	a10, a2
    ab11:	ba8c81        	l32r	a8, 0xffff9544
    ab14:	03bd      	mov.n	a11, a3
    ab16:	182882        	l32i	a8, a8, 96
    ab19:	04cd      	mov.n	a12, a4
    ab1b:	0008e0        	excw
    ab1e:	0a2d      	mov.n	a2, a10
    ab20:	f01d      	excw
    ab22:	03ad      	mov.n	a10, a3
    ab24:	1f2eb2        	l32i	a11, a14, 124
    ab27:	04cd      	mov.n	a12, a4
    ab29:	bbda      	add.n	a11, a11, a13
    ab2b:	02b2e5        	excw
    ab2e:	120c      	movi.n	a2, 1
    ab30:	f01d      	excw
    ab32:	360000        	excw
    ab35:	520041        	l32r	a4, 0xfffdf338
    ab38:	820302        	l8ui	a0, a3, 130
    ab3b:	0c0002        	l8ui	a0, a0, 12
    ab3e:	02e206        	j	0xb6ca
    ab41:	02d202        	addmi	a0, a2, 0x200
    ab44:	ee8001        	l32r	a0, 0x6544 (0xb01d991c)
    ab47:	ddea11        	l32r	a1, 0x22f0 (0xa0d2b1d6)
    ab4a:	f4d0d0        	extui	a13, a13, 0, 16
    ab4d:	005462        	s16i	a6, a4, 0
    ab50:	113826        	beqi	a8, 3, 0xab65
    ab53:	02ad      	mov.n	a10, a2
    ab55:	ba8781        	l32r	a8, 0xffff9574
    ab58:	03bd      	mov.n	a11, a3
    ab5a:	1888      	l32i.n	a8, a8, 4
    ab5c:	04cd      	mov.n	a12, a4
    ab5e:	0008e0        	excw
    ab61:	0a2d      	mov.n	a2, a10
    ab63:	f01d      	excw
    ab65:	0402a2        	l8ui	a10, a2, 4
    ab68:	ba8a81        	l32r	a8, 0xffff9590
    ab6b:	0702c2        	l8ui	a12, a2, 7
    ab6e:	0602b2        	l8ui	a11, a2, 6
    ab71:	01cc80        	slli	a12, a12, 24
    ab74:	11bb00        	slli	a11, a11, 16
    ab77:	bbca      	add.n	a11, a11, a12
    ab79:	0502c2        	l8ui	a12, a2, 5
    ab7c:	7888      	l32i.n	a8, a8, 28
    ab7e:	11cc80        	slli	a12, a12, 8
    ab81:	aaca      	add.n	a10, a10, a12
    ab83:	aaba      	add.n	a10, a10, a11
    ab85:	05cd      	mov.n	a12, a5
    ab87:	03bd      	mov.n	a11, a3
    ab89:	adaa      	add.n	a10, a13, a10
    ab8b:	0008e0        	excw
    ab8e:	3d0c      	movi.n	a13, 3
    ab90:	f4e0a0        	extui	a14, a10, 0, 16
    ab93:	06fd      	mov.n	a15, a6
    ab95:	93f5e0        	movnez	a15, a5, a14
    ab98:	0054f2        	s16i	a15, a4, 0
    ab9b:	836de0        	moveqz	a6, a13, a14
    ab9e:	062d      	mov.n	a2, a6
    aba0:	f01d      	excw
    aba2:	360000        	excw
    aba5:	910041        	l32r	a4, 0xfffeefa8
    aba8:	ba8d      	excw
    abaa:	ba8f41        	l32r	a4, 0xffff95e8
    abad:	ba8e81        	l32r	a8, 0xffff95e8
    abb0:	ba87b1        	l32r	a11, 0xffff95cc
    abb3:	ba8a31        	l32r	a3, 0xffff95dc
    abb6:	ba9021        	l32r	a2, 0xffff95f8
    abb9:	426322        	s32i	a2, a3, 0x108
    abbc:	1423c2        	l32i	a12, a3, 80
    abbf:	b3a8      	l32i.n	a10, a3, 44
    abc1:	1ba9      	s32i.n	a10, a11, 4
    abc3:	b389      	s32i.n	a8, a3, 44
    abc5:	116342        	s32i	a4, a3, 68
    abc8:	146392        	s32i	a9, a3, 80
    abcb:	0bc9      	s32i.n	a12, a11, 0
    abcd:	f01d      	excw
    abcf:	413600        	srli	a3, a0, 6
    abd2:	1d6100        	excw
    abd5:	82b9      	s32i.n	a11, a2, 32
    abd7:	ccb306        	j	0xffffdea7
    abda:	a168      	l32i.n	a6, a1, 40
    abdc:	0cba91        	l32r	a9, 0xfffcdec4
    abdf:	250b      	addi.n	a2, a5, -1
    abe1:	51a947        	bge	a9, a4, 0xac36
    abe4:	c2ba92        	excw
    abe7:	0c3505        	call0	0x16f38
    abea:	0e          	.byte 0xe
    abeb:	9cdc      	bnez.n	a12, 0xac08
    abed:	b94081        	l32r	a8, 0xffff90f0
    abf0:	222882        	l32i	a8, a8, 136
    abf3:	1a0c      	movi.n	a10, 1
    abf5:	0008e0        	excw
    abf8:	3605d2        	l8ui	a13, a5, 54
    abfb:	74c0a0        	extui	a12, a10, 0, 8
    abfe:	83cdc0        	moveqz	a12, a13, a12
    ac01:	74c0c0        	extui	a12, a12, 0, 8
    ac04:	0000c6        	j	0xac0b
    ac07:	45e200        	extui	a14, a0, 18, 5
    ac0a:	45c235        	excw
    ac0d:	069236        	excw
    ac10:	93d1b3        	excw
    ac13:	a6ba      	add.n	a10, a6, a11
    ac15:	1529      	s32i.n	a2, a5, 4
    ac17:	0b0c      	movi.n	a11, 0
    ac19:	0dad      	mov.n	a10, a13
    ac1b:	f90b      	addi.n	a15, a9, -1
    ac1d:	09af76        	excw
    ac20:	7e0a82        	l8ui	a8, a10, 126
    ac23:	bb1b      	addi.n	a11, a11, 1
    ac25:	093c87        	bltu	a12, a8, 0xac32
    ac28:	aa4b      	addi.n	a10, a10, 4
    ac2a:	000046        	j	0xac2f
    ac2d:	0b0c      	movi.n	a11, 0
    ac2f:	a0abd0        	addx4	a10, a11, a13
    ac32:	800ac2        	l8ui	a12, a10, 128
    ac35:	11cc50        	slli	a12, a12, 11
    ac38:	02c9      	s32i.n	a12, a2, 0
    ac3a:	810ab2        	l8ui	a11, a10, 129
    ac3d:	11bb50        	slli	a11, a11, 11
    ac40:	03b9      	s32i.n	a11, a3, 0
    ac42:	7f0a92        	l8ui	a9, a10, 127
    ac45:	004492        	s8i	a9, a4, 0
    ac48:	f01d      	excw
    ac4a:	360000        	excw
    ac4d:	510041        	l32r	a4, 0xfffdf050
    ac50:	21ba92        	excw
    ac53:	98b950        	excw
    ac56:	358865        	excw
    ac59:	991b      	addi.n	a9, a9, 1
    ac5b:	6599      	s32i.n	a9, a5, 24
    ac5d:	98cc      	bnez.n	a8, 0xac6a
    ac5f:	0a0c      	movi.n	a10, 0
    ac61:	0020c0        	memw
    ac64:	8362a2        	s32i	a10, a2, 0x20c
    ac67:	0001c6        	j	0xac72
    ac6a:	45b8      	l32i.n	a11, a5, 16
    ac6c:	0020c0        	memw
    ac6f:	8362b2        	s32i	a11, a2, 0x20c
    ac72:	b90e31        	l32r	a3, 0xffff90ac
    ac75:	0398      	l32i.n	a9, a3, 0
    ac77:	2e2992        	l32i	a9, a9, 184
    ac7a:	b9cc      	bnez.n	a9, 0xac89
    ac7c:	ba91a1        	l32r	a10, 0xffff96c0
    ac7f:	0b0c      	movi.n	a11, 0
    ac81:	a93d25        	excw
    ac84:	0398      	l32i.n	a9, a3, 0
    ac86:	2e2992        	l32i	a9, a9, 184
    ac89:	1a0c      	movi.n	a10, 1
    ac8b:	042926        	beqi	a9, 2, 0xac93
    ac8e:	013926        	beqi	a9, 3, 0xac93
    ac91:	0a0c      	movi.n	a10, 0
    ac93:	6a8c      	beqz.n	a10, 0xac9d
    ac95:	ba9481        	l32r	a8, 0xffff96e8
    ac98:	5888      	l32i.n	a8, a8, 20
    ac9a:	0008e0        	excw
    ac9d:	ba9591        	l32r	a9, 0xffff96f4
    aca0:	766c      	movi.n	a6, -25
    aca2:	0998      	l32i.n	a9, a9, 0
    aca4:	ba9631        	l32r	a3, 0xffff96fc
    aca7:	499c      	beqz.n	a9, 0xacbf
    aca9:	6388      	l32i.n	a8, a3, 24
    acab:	7a4c      	movi.n	a10, 71
    acad:	0008e0        	excw
    acb0:	5388      	l32i.n	a8, a3, 20
    acb2:	10ba60        	and	a11, a10, a6
    acb5:	0c1c      	movi.n	a12, 16
    acb7:	7a4c      	movi.n	a10, 71
    acb9:	20bbc0        	or	a11, a11, a12
    acbc:	0008e0        	excw
    acbf:	b91d41        	l32r	a4, 0xffff9134
    acc2:	d404a2        	l8ui	a10, a4, 212
    acc5:	2e6a07        	bbci	a10, 0, 0xacf7
    acc8:	2b6a27        	bbci	a10, 2, 0xacf7
    accb:	0020c0        	memw
    acce:	b722e2        	l32i	a14, a2, 0x2dc
    acd1:	0f2c      	movi.n	a15, 32
    acd3:	20eef0        	or	a14, a14, a15
    acd6:	0020c0        	memw
    acd9:	b762e2        	s32i	a14, a2, 0x2dc
    acdc:	0020c0        	memw
    acdf:	ba97f1        	l32r	a15, 0xffff973c
    ace2:	b822e2        	l32i	a14, a2, 0x2e0
    ace5:	80c4d2        	addi	a13, a4, -128
    ace8:	ab1dd2        	l16ui	a13, a13, 0x156
    aceb:	10eef0        	and	a14, a14, a15
    acee:	20dde0        	or	a13, a13, a14
    acf1:	0020c0        	memw
    acf4:	b862d2        	s32i	a13, a2, 0x2e0
    acf7:	b94071        	l32r	a7, 0xffff91f8
    acfa:	7788      	l32i.n	a8, a7, 28
    acfc:	0008e0        	excw
    acff:	d404a2        	l8ui	a10, a4, 212
    ad02:	ba9591        	l32r	a9, 0xffff9758
    ad05:	146a07        	bbci	a10, 0, 0xad1d
    ad08:	116a27        	bbci	a10, 2, 0xad1d
    ad0b:	0020c0        	memw
    ad0e:	b722a2        	l32i	a10, a2, 0x2dc
    ad11:	dfafb2        	movi	a11, -33
    ad14:	10aab0        	and	a10, a10, a11
    ad17:	0020c0        	memw
    ad1a:	b762a2        	s32i	a10, a2, 0x2dc
    ad1d:	09c8      	l32i.n	a12, a9, 0
    ad1f:	fc8c      	beqz.n	a12, 0xad32
    ad21:	6388      	l32i.n	a8, a3, 24
    ad23:	7a4c      	movi.n	a10, 71
    ad25:	0008e0        	excw
    ad28:	10ba60        	and	a11, a10, a6
    ad2b:	5388      	l32i.n	a8, a3, 20
    ad2d:	7a4c      	movi.n	a10, 71
    ad2f:	0008e0        	excw
    ad32:	ba98a1        	l32r	a10, 0xffff9794
    ad35:	2aa8      	l32i.n	a10, a10, 8
    ad37:	aa04b2        	l8ui	a11, a4, 170
    ad3a:	14a0a0        	extui	a10, a10, 0, 2
    ad3d:	6aec      	bnez.n	a10, 0xad67
    ad3f:	3e6b07        	bbci	a11, 0, 0xad81
    ad42:	b204d2        	l8ui	a13, a4, 178
    ad45:	3405c2        	l8ui	a12, a5, 52
    ad48:	359cd7        	bne	a12, a13, 0xad81
    ad4b:	0496b0        	extui	a9, a11, 6, 1
    ad4e:	0d6b77        	bbci	a11, 7, 0xad5f
    ad51:	0aeb67        	bbsi	a11, 6, 0xad5f
    ad54:	1a2782        	l32i	a8, a7, 104
    ad57:	2a0c      	movi.n	a10, 2
    ad59:	0008e0        	excw
    ad5c:	0001c6        	j	0xad67
    ad5f:	09bc      	beqz.n	a9, 0xad93
    ad61:	172782        	l32i	a8, a7, 92
    ad64:	0008e0        	excw
    ad67:	5598      	l32i.n	a9, a5, 20
    ad69:	0020c0        	memw
    ad6c:	836292        	s32i	a9, a2, 0x20c
    ad6f:	7a0c      	movi.n	a10, 7
    ad71:	1b5c      	movi.n	a11, 81
    ad73:	b91181        	l32r	a8, 0xffff91b8
    ad76:	0c0c      	movi.n	a12, 0
    ad78:	7888      	l32i.n	a8, a8, 28
    ad7a:	0d0c      	movi.n	a13, 0
    ad7c:	0008e0        	excw
    ad7f:	f01d      	excw
    ad81:	fe2a56        	bnez	a10, 0xad67
    ad84:	aa04a2        	l8ui	a10, a4, 170
    ad87:	dcea07        	bbsi	a10, 0, 0xad67
    ad8a:	1d2782        	l32i	a8, a7, 116
    ad8d:	0008e0        	excw
    ad90:	fff4c6        	j	0xad67
    ad93:	1a2782        	l32i	a8, a7, 104
    ad96:	2a0c      	movi.n	a10, 2
    ad98:	0008e0        	excw
    ad9b:	fff206        	j	0xad67
    ad9e:	360000        	excw
    ada1:	e10061        	l32r	a6, 0x31a4 (0x8e011)
    ada4:	0cb950        	excw
    ada7:	8f          	.byte 0x8f
    ada8:	10f2f0        	and	a15, a2, a15
    adab:	116237        	bbci	a2, 3, 0xadc0
    adae:	0020c0        	memw
    adb1:	b96e91        	l32r	a9, 0xffff936c
    adb4:	9e2e82        	l32i	a8, a14, 0x278
    adb7:	108890        	and	a8, a8, a9
    adba:	0020c0        	memw
    adbd:	9e6e82        	s32i	a8, a14, 0x278
    adc0:	ba9231        	l32r	a3, 0xffff9808
    adc3:	440c      	movi.n	a4, 4
    adc5:	0020c0        	memw
    adc8:	b72ed2        	l32i	a13, a14, 0x2dc
    adcb:	1fac82        	movi	a8, 0xfffffc1f
    adce:	10dd80        	and	a13, a13, a8
    add1:	0020c0        	memw
    add4:	b76ed2        	s32i	a13, a14, 0x2dc
    add7:	f580d0        	extui	a8, a13, 16, 16
    adda:	384382        	s8i	a8, a3, 56
    addd:	0020c0        	memw
    ade0:	bb2ea2        	l32i	a10, a14, 0x2ec
    ade3:	0020c0        	memw
    ade6:	104240        	and	a4, a2, a4
    ade9:	bc2e92        	l32i	a9, a14, 0x2f0
    adec:	096227        	bbci	a2, 2, 0xadf9
    adef:	75b8d0        	extui	a11, a13, 24, 8
    adf2:	3a43b2        	s8i	a11, a3, 58
    adf5:	000086        	j	0xadfb
    adf8:	0b0c00        	excw
    adfb:	df8c      	beqz.n	a15, 0xae0c
    adfd:	04cfd0        	extui	a12, a13, 15, 1
    ae00:	096c16        	beqz	a12, 0xae9a
    ae03:	4198a0        	srli	a9, a10, 8
    ae06:	3b4392        	s8i	a9, a3, 59
    ae09:	354392        	s8i	a9, a3, 53
    ae0c:	ba99c1        	l32r	a12, 0xffff9870
    ae0f:	057416        	beqz	a4, 0xae6a
    ae12:	bb9c      	beqz.n	a11, 0xae31
    ae14:	580c92        	l8ui	a9, a12, 88
    ae17:	0a0c      	movi.n	a10, 0
    ae19:	199c      	beqz.n	a9, 0xae2e
    ae1b:	0a0c      	movi.n	a10, 0
    ae1d:	0d9976        	excw
    ae20:	a08ac0        	addx4	a8, a10, a12
    ae23:	7f0882        	l8ui	a8, a8, 127
    ae26:	043b87        	bltu	a11, a8, 0xae2e
    ae29:	aa1b      	addi.n	a10, a10, 1
    ae2b:	74a0a0        	extui	a10, a10, 0, 8
    ae2e:	0041a2        	s8i	a10, a1, 0
    ae31:	54bc      	beqz.n	a4, 0xae6a
    ae33:	3bbc      	beqz.n	a11, 0xae6a
    ae35:	0020c0        	memw
    ae38:	ba9aa1        	l32r	a10, 0xffff98a0
    ae3b:	ba9781        	l32r	a8, 0xffff9898
    ae3e:	0001d2        	l8ui	a13, a1, 0
    ae41:	c02e92        	l32i	a9, a14, 0x300
    ae44:	a0ddc0        	addx4	a13, a13, a12
    ae47:	109980        	and	a9, a9, a8
    ae4a:	810d82        	l8ui	a8, a13, 129
    ae4d:	800dd2        	l8ui	a13, a13, 128
    ae50:	88ba      	add.n	a8, a8, a11
    ae52:	c0dbd0        	sub	a13, a11, a13
    ae55:	118880        	slli	a8, a8, 8
    ae58:	1088a0        	and	a8, a8, a10
    ae5b:	74d0d0        	extui	a13, a13, 0, 8
    ae5e:	20dd90        	or	a13, a13, a9
    ae61:	20dd80        	or	a13, a13, a8
    ae64:	0020c0        	memw
    ae67:	c06ed2        	s32i	a13, a14, 0x300
    ae6a:	afac      	beqz.n	a15, 0xae98
    ae6c:	b94021        	l32r	a2, 0xffff936c
    ae6f:	106df7        	bbci	a13, 15, 0xae83
    ae72:	222282        	l32i	a8, a2, 136
    ae75:	1a0c      	movi.n	a10, 1
    ae77:	0008e0        	excw
    ae7a:	74b0a0        	extui	a11, a10, 0, 8
    ae7d:	3543b2        	s8i	a11, a3, 53
    ae80:	000086        	j	0xae86
    ae83:	3503b2        	l8ui	a11, a3, 53
    ae86:	232282        	l32i	a8, a2, 140
    ae89:	f4a0b0        	extui	a10, a11, 0, 16
    ae8c:	0008e0        	excw
    ae8f:	b93381        	l32r	a8, 0xffff935c
    ae92:	cc2882        	l32i	a8, a8, 0x330
    ae95:	0008e0        	excw
    ae98:	f01d      	excw
    ae9a:	086de7        	bbci	a13, 14, 0xaea6
    ae9d:	419890        	srli	a9, a9, 8
    aea0:	3c4392        	s8i	a9, a3, 60
    aea3:	ffd886        	j	0xae09
    aea6:	056dd7        	bbci	a13, 13, 0xaeaf
    aea9:	3e4392        	s8i	a9, a3, 62
    aeac:	ffd646        	j	0xae09
    aeaf:	086dc7        	bbci	a13, 12, 0xaebb
    aeb2:	f59090        	extui	a9, a9, 16, 16
    aeb5:	3d4392        	s8i	a9, a3, 61
    aeb8:	ffd346        	j	0xae09
    aebb:	04abd0        	extui	a10, a13, 11, 1
    aebe:	f4aa16        	beqz	a10, 0xae0c
    aec1:	759890        	extui	a9, a9, 24, 8
    aec4:	3f4392        	s8i	a9, a3, 63
    aec7:	ffcf86        	j	0xae09
    aeca:	360000        	excw
    aecd:	910041        	l32r	a4, 0xfffef2d0
    aed0:	b91d      	excw
    aed2:	d40982        	l8ui	a8, a9, 212
    aed5:	1a0c      	movi.n	a10, 1
    aed7:	048080        	extui	a8, a8, 0, 1
    aeda:	089816        	beqz	a8, 0xaf67
    aedd:	ff09b2        	l8ui	a11, a9, 255
    aee0:	083b16        	beqz	a11, 0xaf67
    aee3:	b950c1        	l32r	a12, 0xffff9424
    aee6:	0020c0        	memw
    aee9:	b72c92        	l32i	a9, a12, 0x2dc
    aeec:	2099a0        	or	a9, a9, a10
    aeef:	0020c0        	memw
    aef2:	b76c92        	s32i	a9, a12, 0x2dc
    aef5:	531ba6        	blti	a11, 1, 0xaf4c
    aef8:	0a0c      	movi.n	a10, 0
    aefa:	ba9221        	l32r	a2, 0xffff9944
    aefd:	df7c      	movi.n	a15, -3
    aeff:	02a0e2        	movi	a14, 2
    af02:	10a0d2        	movi	a13, 16
    af05:	409b76        	excw
    af08:	0020c0        	memw
    af0b:	b72c92        	l32i	a9, a12, 0x2dc
    af0e:	2099e0        	or	a9, a9, a14
    af11:	0020c0        	memw
    af14:	b76c92        	s32i	a9, a12, 0x2dc
    af17:	0020c0        	memw
    af1a:	b72c82        	l32i	a8, a12, 0x2dc
    af1d:	08e847        	bbsi	a8, 4, 0xaf29
    af20:	0020c0        	memw
    af23:	b72c82        	l32i	a8, a12, 0x2dc
    af26:	f608d7        	bnone	a8, a13, 0xaf20
    af29:	0020c0        	memw
    af2c:	b72c92        	l32i	a9, a12, 0x2dc
    af2f:	1099f0        	and	a9, a9, a15
    af32:	0020c0        	memw
    af35:	b76c92        	s32i	a9, a12, 0x2dc
    af38:	0020c0        	memw
    af3b:	bb2c82        	l32i	a8, a12, 0x2ec
    af3e:	748080        	extui	a8, a8, 0, 8
    af41:	394282        	s8i	a8, a2, 57
    af44:	a8aa      	add.n	a10, a8, a10
    af46:	f4a0a0        	extui	a10, a10, 0, 16
    af49:	000046        	j	0xaf4e
    af4c:	0a0c      	movi.n	a10, 0
    af4e:	0020c0        	memw
    af51:	b72cd2        	l32i	a13, a12, 0x2dc
    af54:	ee7c      	movi.n	a14, -2
    af56:	10dde0        	and	a13, a13, a14
    af59:	0020c0        	memw
    af5c:	b76cd2        	s32i	a13, a12, 0x2dc
    af5f:	0252e5        	excw
    af62:	f420a0        	extui	a2, a10, 0, 16
    af65:	f01d      	excw
    af67:	020c      	movi.n	a2, 0
    af69:	f01d      	excw
    af6b:	413600        	srli	a3, a0, 6
    af6e:	413100        	srli	a3, a0, 1
    af71:	7cb9      	s32i.n	a11, a12, 28
    af73:	0352f4        	excw
    af76:	324a      	add.n	a3, a2, a4
    af78:	004b03        	excw
    af7b:	202355        	excw
    af7e:	008255        	excw
    af81:	502333        	excw
    af84:	5a2157        	blt	a1, a5, 0xafe2
    af87:	330033        	excw
    af8a:	432023        	excw
    af8d:	042d93        	excw
    af90:	f01d      	excw
    af92:	360000        	excw
    af95:	510041        	l32r	a4, 0xfffdf398
    af98:	b91d      	excw
    af9a:	b90e71        	l32r	a7, 0xffff93d4
    af9d:	d40582        	l8ui	a8, a5, 212
    afa0:	0778      	l32i.n	a7, a7, 0
    afa2:	048080        	extui	a8, a8, 0, 1
    afa5:	197816        	beqz	a8, 0xb140
    afa8:	b95021        	l32r	a2, 0xffff94e8
    afab:	640762        	l8ui	a6, a7, 100
    afae:	670742        	l8ui	a4, a7, 103
    afb1:	6507c2        	l8ui	a12, a7, 101
    afb4:	019480        	slli	a9, a4, 24
    afb7:	113c80        	slli	a3, a12, 8
    afba:	660772        	l8ui	a7, a7, 102
    afbd:	363a      	add.n	a3, a6, a3
    afbf:	118700        	slli	a8, a7, 16
    afc2:	889a      	add.n	a8, a8, a9
    afc4:	338a      	add.n	a3, a3, a8
    afc6:	071316        	beqz	a3, 0xb03b
    afc9:	6e0326        	beqi	a3, -1, 0xb03b
    afcc:	96a0b2        	movi	a11, 150
    afcf:	23ac00        	excw
    afd2:	aaba      	add.n	a10, a10, a11
    afd4:	23aa80        	excw
    afd7:	0020c0        	memw
    afda:	ba2232        	l32i	a3, a2, 0x2e8
    afdd:	2ca1b2        	movi	a11, 0x12c
    afe0:	90aaa0        	addx2	a10, a10, a10
    afe3:	11aaa0        	slli	a10, a10, 6
    afe6:	024a65        	excw
    afe9:	2ca1b2        	movi	a11, 0x12c
    afec:	23c400        	excw
    afef:	c2a1d2        	movi	a13, 0x1c2
    aff2:	0a4d      	mov.n	a4, a10
    aff4:	ccda      	add.n	a12, a12, a13
    aff6:	23cc80        	excw
    aff9:	90ccc0        	addx2	a12, a12, a12
    affc:	11aca0        	slli	a10, a12, 6
    afff:	0248e5        	excw
    b002:	c0b760        	sub	a11, a7, a6
    b005:	c0aa40        	sub	a10, a10, a4
    b008:	11aa80        	slli	a10, a10, 8
    b00b:	f4a0a0        	extui	a10, a10, 0, 16
    b00e:	0247e5        	excw
    b011:	ba9ce1        	l32r	a14, 0xffff9a84
    b014:	11ca80        	slli	a12, a10, 8
    b017:	ba9bd1        	l32r	a13, 0xffff9a84
    b01a:	c0b460        	sub	a11, a4, a6
    b01d:	b0cbb2        	addi	a11, a11, -80
    b020:	74b0b0        	extui	a11, a11, 0, 8
    b023:	10d3d0        	and	a13, a3, a13
    b026:	10cce0        	and	a12, a12, a14
    b029:	20ccd0        	or	a12, a12, a13
    b02c:	00afd2        	movi	a13, 0xffffff00
    b02f:	10ccd0        	and	a12, a12, a13
    b032:	20bbc0        	or	a11, a11, a12
    b035:	0020c0        	memw
    b038:	ba62b2        	s32i	a11, a2, 0x2e8
    b03b:	0b0c      	movi.n	a11, 0
    b03d:	ba9231        	l32r	a3, 0xffff9a88
    b040:	8c0c      	movi.n	a12, 8
    b042:	38c3a2        	addi	a10, a3, 56
    b045:	027325        	excw
    b048:	0020c0        	memw
    b04b:	b722f2        	l32i	a15, a2, 0x2dc
    b04e:	dfaf82        	movi	a8, -33
    b051:	10ff80        	and	a15, a15, a8
    b054:	0020c0        	memw
    b057:	b762f2        	s32i	a15, a2, 0x2dc
    b05a:	d405e2        	l8ui	a14, a5, 212
    b05d:	0a1c      	movi.n	a10, 16
    b05f:	04e2e0        	extui	a14, a14, 2, 1
    b062:	0dae16        	beqz	a14, 0xb140
    b065:	0020c0        	memw
    b068:	b722b2        	l32i	a11, a2, 0x2dc
    b06b:	3c0c      	movi.n	a12, 3
    b06d:	20bbc0        	or	a11, a11, a12
    b070:	0020c0        	memw
    b073:	b762b2        	s32i	a11, a2, 0x2dc
    b076:	0020c0        	memw
    b079:	b72292        	l32i	a9, a2, 0x2dc
    b07c:	08e947        	bbsi	a9, 4, 0xb088
    b07f:	0020c0        	memw
    b082:	b722d2        	l32i	a13, a2, 0x2dc
    b085:	f60da7        	bnone	a13, a10, 0xb07f
    b088:	ba99d1        	l32r	a13, 0xffff9aec
    b08b:	0020c0        	memw
    b08e:	b722e2        	l32i	a14, a2, 0x2dc
    b091:	cf7c      	movi.n	a15, -4
    b093:	10eef0        	and	a14, a14, a15
    b096:	0020c0        	memw
    b099:	b762e2        	s32i	a14, a2, 0x2dc
    b09c:	0020c0        	memw
    b09f:	bb22c2        	l32i	a12, a2, 0x2ec
    b0a2:	d50592        	l8ui	a9, a5, 213
    b0a5:	74c0c0        	extui	a12, a12, 0, 8
    b0a8:	3943c2        	s8i	a12, a3, 57
    b0ab:	1319a6        	blti	a9, 1, 0xb0c2
    b0ae:	0b0c      	movi.n	a11, 0
    b0b0:	0dad      	mov.n	a10, a13
    b0b2:	099976        	excw
    b0b5:	7f0a82        	l8ui	a8, a10, 127
    b0b8:	bb1b      	addi.n	a11, a11, 1
    b0ba:	093c87        	bltu	a12, a8, 0xb0c7
    b0bd:	aa4b      	addi.n	a10, a10, 4
    b0bf:	000046        	j	0xb0c4
    b0c2:	0b0c      	movi.n	a11, 0
    b0c4:	a0abd0        	addx4	a10, a11, a13
    b0c7:	ba9781        	l32r	a8, 0xffff9b24
    b0ca:	0020c0        	memw
    b0cd:	800af2        	l8ui	a15, a10, 128
    b0d0:	810a92        	l8ui	a9, a10, 129
    b0d3:	c0fcf0        	sub	a15, a12, a15
    b0d6:	99ca      	add.n	a9, a9, a12
    b0d8:	ba9aa1        	l32r	a10, 0xffff9b40
    b0db:	119980        	slli	a9, a9, 8
    b0de:	1099a0        	and	a9, a9, a10
    b0e1:	c022a2        	l32i	a10, a2, 0x300
    b0e4:	74f0f0        	extui	a15, a15, 0, 8
    b0e7:	10aa80        	and	a10, a10, a8
    b0ea:	20ffa0        	or	a15, a15, a10
    b0ed:	20ff90        	or	a15, a15, a9
    b0f0:	0020c0        	memw
    b0f3:	c062f2        	s32i	a15, a2, 0x300
    b0f6:	0020c0        	memw
    b0f9:	ba9de1        	l32r	a14, 0xffff9b70
    b0fc:	b822f2        	l32i	a15, a2, 0x2e0
    b0ff:	ab1ee2        	l16ui	a14, a14, 0x156
    b102:	10ff80        	and	a15, a15, a8
    b105:	20eef0        	or	a14, a14, a15
    b108:	0020c0        	memw
    b10b:	b862e2        	s32i	a14, a2, 0x2e0
    b10e:	0020c0        	memw
    b111:	b722b2        	l32i	a11, a2, 0x2dc
    b114:	00a4d2        	movi	a13, 0x400
    b117:	20bbd0        	or	a11, a11, a13
    b11a:	0020c0        	memw
    b11d:	b762b2        	s32i	a11, a2, 0x2dc
    b120:	0020c0        	memw
    b123:	b9a7a1        	l32r	a10, 0xffff97c0
    b126:	9e2292        	l32i	a9, a2, 0x278
    b129:	2099a0        	or	a9, a9, a10
    b12c:	0020c0        	memw
    b12f:	9e6292        	s32i	a9, a2, 0x278
    b132:	fb05a2        	l8ui	a10, a5, 251
    b135:	7a8c      	beqz.n	a10, 0xb140
    b137:	b94081        	l32r	a8, 0xffff9638
    b13a:	242882        	l32i	a8, a8, 144
    b13d:	0008e0        	excw
    b140:	f01d      	excw
    b142:	360000        	excw
    b145:	810041        	l32r	a4, 0xfffeb548
    b148:	b90d      	excw
    b14a:	272882        	l32i	a8, a8, 156
    b14d:	0008e0        	excw
    b150:	b90e61        	l32r	a6, 0xffff9588
    b153:	b95051        	l32r	a5, 0xffff9694
    b156:	0020c0        	memw
    b159:	9e25b2        	l32i	a11, a5, 0x278
    b15c:	00a2c2        	movi	a12, 0x200
    b15f:	20bbc0        	or	a11, a11, a12
    b162:	7fafc2        	movi	a12, -129
    b165:	10bbc0        	and	a11, a11, a12
    b168:	0020c0        	memw
    b16b:	9e65b2        	s32i	a11, a5, 0x278
    b16e:	0020c0        	memw
    b171:	01da92        	addmi	a9, a10, 0x100
    b174:	bc0992        	l8ui	a9, a9, 188
    b177:	ea3c      	movi.n	a10, 62
    b179:	1199f0        	slli	a9, a9, 1
    b17c:	1099a0        	and	a9, a9, a10
    b17f:	9e25a2        	l32i	a10, a5, 0x278
    b182:	1b0c      	movi.n	a11, 1
    b184:	20aab0        	or	a10, a10, a11
    b187:	c1afb2        	movi	a11, -63
    b18a:	10aab0        	and	a10, a10, a11
    b18d:	2099a0        	or	a9, a9, a10
    b190:	0020c0        	memw
    b193:	9e6592        	s32i	a9, a5, 0x278
    b196:	ba9e81        	l32r	a8, 0xffff9c10
    b199:	0020c0        	memw
    b19c:	a82532        	l32i	a3, a5, 0x2a0
    b19f:	103380        	and	a3, a3, a8
    b1a2:	0020c0        	memw
    b1a5:	ba9fa1        	l32r	a10, 0xffff9c24
    b1a8:	842522        	l32i	a2, a5, 0x210
    b1ab:	03bd      	mov.n	a11, a3
    b1ad:	412d20        	srli	a2, a2, 13
    b1b0:	0238e5        	excw
    b1b3:	24b020        	extui	a11, a2, 0, 3
    b1b6:	82aab0        	mull	a10, a10, a11
    b1b9:	b995b1        	l32r	a11, 0xffff9810
    b1bc:	90aaa0        	addx2	a10, a10, a10
    b1bf:	11aab0        	slli	a10, a10, 5
    b1c2:	0237e5        	excw
    b1c5:	0628      	l32i.n	a2, a6, 0
    b1c7:	2e2222        	l32i	a2, a2, 184
    b1ca:	0a4d      	mov.n	a4, a10
    b1cc:	b2cc      	bnez.n	a2, 0xb1db
    b1ce:	ba91a1        	l32r	a10, 0xffff9c14
    b1d1:	0b0c      	movi.n	a11, 0
    b1d3:	a8e825        	excw
    b1d6:	0628      	l32i.n	a2, a6, 0
    b1d8:	2e2222        	l32i	a2, a2, 184
    b1db:	03bd      	mov.n	a11, a3
    b1dd:	baa0a1        	l32r	a10, 0xffff9c60
    b1e0:	0235e5        	excw
    b1e3:	e20b      	addi.n	a14, a2, -1
    b1e5:	c0ca40        	sub	a12, a10, a4
    b1e8:	8ea2f2        	movi	a15, 0x28e
    b1eb:	dc4b      	addi.n	a13, a12, 4
    b1ed:	ccfa      	add.n	a12, a12, a15
    b1ef:	93cde0        	movnez	a12, a13, a14
    b1f2:	0020c0        	memw
    b1f5:	00a8d2        	movi	a13, 0xfffff800
    b1f8:	9d25b2        	l32i	a11, a5, 0x274
    b1fb:	a4c0c0        	extui	a12, a12, 0, 11
    b1fe:	10bbd0        	and	a11, a11, a13
    b201:	20bbc0        	or	a11, a11, a12
    b204:	0020c0        	memw
    b207:	9d65b2        	s32i	a11, a5, 0x274
    b20a:	0020c0        	memw
    b20d:	baa1a1        	l32r	a10, 0xffff9c94
    b210:	842592        	l32i	a9, a5, 0x210
    b213:	c48040        	extui	a8, a4, 0, 13
    b216:	1099a0        	and	a9, a9, a10
    b219:	208890        	or	a8, a8, a9
    b21c:	0020c0        	memw
    b21f:	846582        	s32i	a8, a5, 0x210
    b222:	f01d      	excw
    b224:	004136        	excw
    b227:	baa3d1        	l32r	a13, 0xffff9cb4
    b22a:	baa921        	l32r	a2, 0xffff9cd0
    b22d:	baa881        	l32r	a8, 0xffff9cd0
    b230:	baa791        	l32r	a9, 0xffff9ccc
    b233:	baa6a1        	l32r	a10, 0xffff9ccc
    b236:	baa5b1        	l32r	a11, 0xffff9ccc
    b239:	baa231        	l32r	a3, 0xffff9cc4
    b23c:	baa4c1        	l32r	a12, 0xffff9ccc
    b23f:	6063c2        	s32i	a12, a3, 0x180
    b242:	6263b2        	s32i	a11, a3, 0x188
    b245:	6363a2        	s32i	a10, a3, 0x18c
    b248:	5f6392        	s32i	a9, a3, 0x17c
    b24b:	436382        	s32i	a8, a3, 0x10c
    b24e:	5b6322        	s32i	a2, a3, 0x16c
    b251:	5863d2        	s32i	a13, a3, 0x160
    b254:	f01d      	excw
    b256:	360000        	excw
    b259:	0b0041        	l32r	a4, 0xfffcde5c
    b25c:	909094        	excw
    b25f:	49ac74        	excw
    b262:	040c      	movi.n	a4, 0
    b264:	a91b      	addi.n	a10, a9, 1
    b266:	41a1a0        	srli	a10, a10, 1
    b269:	1b9a76        	excw
    b26c:	824a      	add.n	a8, a2, a4
    b26e:	534a      	add.n	a5, a3, a4
    b270:	c06940        	sub	a6, a9, a4
    b273:	763a      	add.n	a7, a6, a3
    b275:	000552        	l8ui	a5, a5, 0
    b278:	662a      	add.n	a6, a6, a2
    b27a:	000772        	l8ui	a7, a7, 0
    b27d:	004872        	s8i	a7, a8, 0
    b280:	442b      	addi.n	a4, a4, 2
    b282:	744040        	extui	a4, a4, 0, 8
    b285:	004652        	s8i	a5, a6, 0
    b288:	f01d      	excw
    b28a:	360000        	excw
    b28d:	3d0041        	l32r	a4, 0xfffda690
    b290:	822102        	l32i	a0, a1, 0x208
    b293:	a2b9      	s32i.n	a11, a2, 40
    b295:	820102        	l8ui	a0, a1, 130
    b298:	a70002        	l8ui	a0, a0, 167
    b29b:	aa0433        	excw
    b29e:	8788      	l32i.n	a8, a7, 32
    b2a0:	a10a23        	excw
    b2a3:	baaa      	add.n	a11, a10, a10
    b2a5:	0b0c      	movi.n	a11, 0
    b2a7:	a8dae5        	excw
    b2aa:	0102a2        	l8ui	a10, a2, 1
    b2ad:	c023a0        	sub	a2, a3, a10
    b2b0:	742020        	extui	a2, a2, 0, 8
    b2b3:	f01d      	excw
    b2b5:	000000        	ill
    b2b8:	004136        	excw
    b2bb:	b92a81        	l32r	a8, 0xffff9764
    b2be:	dc0882        	l8ui	a8, a8, 220
    b2c1:	238800        	excw
    b2c4:	0718e6        	bgei	a8, 1, 0xb2cf
    b2c7:	baaaa1        	l32r	a10, 0xffff9d70
    b2ca:	0b0c      	movi.n	a11, 0
    b2cc:	a8d865        	excw
    b2cf:	ffa092        	movi	a9, 255
    b2d2:	079297        	bne	a2, a9, 0xb2dd
    b2d5:	baaaa1        	l32r	a10, 0xffff9d80
    b2d8:	0b0c      	movi.n	a11, 0
    b2da:	a8d7a5        	excw
    b2dd:	b92b31        	l32r	a3, 0xffff978c
    b2e0:	98a182        	movi	a8, 0x198
    b2e3:	c18280        	mul16u	a8, a2, a8
    b2e6:	338a      	add.n	a3, a3, a8
    b2e8:	7f03a2        	l8ui	a10, a3, 127
    b2eb:	6acc      	bnez.n	a10, 0xb2f5
    b2ed:	baaaa1        	l32r	a10, 0xffff9d98
    b2f0:	0b0c      	movi.n	a11, 0
    b2f2:	a8d625        	excw
    b2f5:	8003a2        	l8ui	a10, a3, 128
    b2f8:	164ab6        	bltui	a10, 4, 0xb312
    b2fb:	084a66        	bnei	a10, 4, 0xb307
    b2fe:	b92c91        	l32r	a9, 0xffff97b0
    b301:	b02992        	l32i	a9, a9, 0x2c0
    b304:	0ab297        	bgeu	a2, a9, 0xb312
    b307:	baaaa1        	l32r	a10, 0xffff9db0
    b30a:	0b0c      	movi.n	a11, 0
    b30c:	a8d465        	excw
    b30f:	8003a2        	l8ui	a10, a3, 128
    b312:	b91021        	l32r	a2, 0xffff9754
    b315:	a02a20        	addx4	a2, a10, a2
    b318:	1228      	l32i.n	a2, a2, 4
    b31a:	f01d      	excw
    b31c:	004136        	excw
    b31f:	b90781        	l32r	a8, 0xffff973c
    b322:	da0c      	movi.n	a10, 13
    b324:	7888      	l32i.n	a8, a8, 28
    b326:	cb0c      	movi.n	a11, 12
    b328:	0008e0        	excw
    b32b:	0a3d      	mov.n	a3, a10
    b32d:	08ba16        	beqz	a10, 0xb3bc
    b330:	2a0c      	movi.n	a10, 2
    b332:	150c      	movi.n	a5, 1
    b334:	090c      	movi.n	a9, 0
    b336:	6e0c      	movi.n	a14, 6
    b338:	b98471        	l32r	a7, 0xffff9948
    b33b:	b982c1        	l32r	a12, 0xffff9944
    b33e:	98a162        	movi	a6, 0x198
    b341:	c16260        	mul16u	a6, a2, a6
    b344:	2c2cc2        	l32i	a12, a12, 176
    b347:	882782        	l32i	a8, a7, 0x220
    b34a:	cc6a      	add.n	a12, a12, a6
    b34c:	aa0cb2        	l8ui	a11, a12, 170
    b34f:	231cd2        	l16ui	a13, a12, 70
    b352:	041cc2        	l16ui	a12, a12, 8
    b355:	90ddd0        	addx2	a13, a13, a13
    b358:	90dde0        	addx2	a13, a13, a14
    b35b:	ccda      	add.n	a12, a12, a13
    b35d:	bbca      	add.n	a11, a11, a12
    b35f:	bb2b      	addi.n	a11, a11, 2
    b361:	f4b0b0        	extui	a11, a11, 0, 16
    b364:	8395b0        	moveqz	a9, a5, a11
    b367:	93b590        	movnez	a11, a5, a9
    b36a:	0b4d      	mov.n	a4, a11
    b36c:	0008e0        	excw
    b36f:	5c0c      	movi.n	a12, 5
    b371:	0f3c      	movi.n	a15, 48
    b373:	cfa082        	movi	a8, 207
    b376:	baabb1        	l32r	a11, 0xffff9e24
    b379:	0a03e2        	l8ui	a14, a3, 10
    b37c:	494c      	movi.n	a9, 68
    b37e:	c19290        	mul16u	a9, a2, a9
    b381:	ee3a      	add.n	a14, a14, a3
    b383:	0d0ed2        	l8ui	a13, a14, 13
    b386:	bb9a      	add.n	a11, a11, a9
    b388:	10dd80        	and	a13, a13, a8
    b38b:	20ddf0        	or	a13, a13, a15
    b38e:	0d4ed2        	s8i	a13, a14, 13
    b391:	0a03a2        	l8ui	a10, a3, 10
    b394:	20cbb2        	addi	a11, a11, 32
    b397:	aa3a      	add.n	a10, a10, a3
    b399:	104a52        	s8i	a5, a10, 16
    b39c:	10ca52        	addi	a5, a10, 16
    b39f:	11caa2        	addi	a10, a10, 17
    b3a2:	022b65        	excw
    b3a5:	02ad      	mov.n	a10, a2
    b3a7:	03bd      	mov.n	a11, a3
    b3a9:	064542        	s8i	a4, a5, 6
    b3ac:	419840        	srli	a9, a4, 8
    b3af:	074592        	s8i	a9, a5, 7
    b3b2:	4d2782        	l32i	a8, a7, 0x134
    b3b5:	0c0c      	movi.n	a12, 0
    b3b7:	0008e0        	excw
    b3ba:	0a8c      	beqz.n	a10, 0xb3be
    b3bc:	f01d      	excw
    b3be:	b982a1        	l32r	a10, 0xffff99c8
    b3c1:	2c2aa2        	l32i	a10, a10, 176
    b3c4:	aa6a      	add.n	a10, a10, a6
    b3c6:	525a42        	s16i	a4, a10, 164
    b3c9:	f01d      	excw
    b3cb:	613600        	excw
    b3ce:	da0c00        	excw
    b3d1:	0b1c      	movi.n	a11, 16
    b3d3:	b90781        	l32r	a8, 0xffff97f0
    b3d6:	b98231        	l32r	a3, 0xffff99e0
    b3d9:	98a192        	movi	a9, 0x198
    b3dc:	c19290        	mul16u	a9, a2, a9
    b3df:	2c2332        	l32i	a3, a3, 176
    b3e2:	7888      	l32i.n	a8, a8, 28
    b3e4:	339a      	add.n	a3, a3, a9
    b3e6:	0008e0        	excw
    b3e9:	0a6d      	mov.n	a6, a10
    b3eb:	2acc      	bnez.n	a10, 0xb3f1
    b3ed:	124c      	movi.n	a2, 65
    b3ef:	f01d      	excw
    b3f1:	02ad      	mov.n	a10, a2
    b3f3:	6b0c      	movi.n	a11, 6
    b3f5:	baab41        	l32r	a4, 0xffff9ea4
    b3f8:	2313f2        	l16ui	a15, a3, 70
    b3fb:	b98471        	l32r	a7, 0xffff9a0c
    b3fe:	494c      	movi.n	a9, 68
    b400:	1d0c      	movi.n	a13, 1
    b402:	0dcd      	mov.n	a12, a13
    b404:	c19290        	mul16u	a9, a2, a9
    b407:	382782        	l32i	a8, a7, 224
    b40a:	90fff0        	addx2	a15, a15, a15
    b40d:	449a      	add.n	a4, a4, a9
    b40f:	90ffb0        	addx2	a15, a15, a11
    b412:	0051f2        	s16i	a15, a1, 0
    b415:	b4cb      	addi.n	a11, a4, 12
    b417:	0413e2        	l16ui	a14, a3, 8
    b41a:	aa0392        	l8ui	a9, a3, 170
    b41d:	eefa      	add.n	a14, a14, a15
    b41f:	99ea      	add.n	a9, a9, a14
    b421:	992b      	addi.n	a9, a9, 2
    b423:	f49090        	extui	a9, a9, 0, 16
    b426:	005192        	s16i	a9, a1, 0
    b429:	839d90        	moveqz	a9, a13, a9
    b42c:	005192        	s16i	a9, a1, 0
    b42f:	0008e0        	excw
    b432:	0f14d2        	l16ui	a13, a4, 30
    b435:	0c14a2        	l16ui	a10, a4, 24
    b438:	211382        	l16ui	a8, a3, 66
    b43b:	5ada      	add.n	a5, a10, a13
    b43d:	c05580        	sub	a5, a5, a8
    b440:	f45050        	extui	a5, a5, 0, 16
    b443:	0535a7        	bltu	a5, a10, 0xb44c
    b446:	c055a0        	sub	a5, a5, a10
    b449:	f45050        	extui	a5, a5, 0, 16
    b44c:	03ad      	mov.n	a10, a3
    b44e:	01bd      	mov.n	a11, a1
    b450:	852782        	l32i	a8, a7, 0x214
    b453:	2153d2        	s16i	a13, a3, 66
    b456:	0d1492        	l16ui	a9, a4, 26
    b459:	225392        	s16i	a9, a3, 68
    b45c:	0008e0        	excw
    b45f:	41e950        	srli	a14, a5, 9
    b462:	41f150        	srli	a15, a5, 1
    b465:	0c0c      	movi.n	a12, 0
    b467:	0a0692        	l8ui	a9, a6, 10
    b46a:	0a3c      	movi.n	a10, 48
    b46c:	996a      	add.n	a9, a9, a6
    b46e:	0d0982        	l8ui	a8, a9, 13
    b471:	cfa0b2        	movi	a11, 207
    b474:	1088b0        	and	a8, a8, a11
    b477:	2088a0        	or	a8, a8, a10
    b47a:	0d4982        	s8i	a8, a9, 13
    b47d:	0a06d2        	l8ui	a13, a6, 10
    b480:	180c      	movi.n	a8, 1
    b482:	dd6a      	add.n	a13, a13, a6
    b484:	104dc2        	s8i	a12, a13, 16
    b487:	114d82        	s8i	a8, a13, 17
    b48a:	124df2        	s8i	a15, a13, 18
    b48d:	134de2        	s8i	a14, a13, 19
    b490:	0c14b2        	l16ui	a11, a4, 24
    b493:	41b1b0        	srli	a11, a11, 1
    b496:	144db2        	s8i	a11, a13, 20
    b499:	0c14a2        	l16ui	a10, a4, 24
    b49c:	41a9a0        	srli	a10, a10, 9
    b49f:	154da2        	s8i	a10, a13, 21
    b4a2:	0e1492        	l16ui	a9, a4, 28
    b4a5:	164d92        	s8i	a9, a13, 22
    b4a8:	0e1482        	l16ui	a8, a4, 28
    b4ab:	418880        	srli	a8, a8, 8
    b4ae:	174d82        	s8i	a8, a13, 23
    b4b1:	0a14f2        	l16ui	a15, a4, 20
    b4b4:	184df2        	s8i	a15, a13, 24
    b4b7:	0a14e2        	l16ui	a14, a4, 20
    b4ba:	41e8e0        	srli	a14, a14, 8
    b4bd:	194de2        	s8i	a14, a13, 25
    b4c0:	0011b2        	l16ui	a11, a1, 0
    b4c3:	1a4db2        	s8i	a11, a13, 26
    b4c6:	001192        	l16ui	a9, a1, 0
    b4c9:	02ad      	mov.n	a10, a2
    b4cb:	419890        	srli	a9, a9, 8
    b4ce:	1b4d92        	s8i	a9, a13, 27
    b4d1:	4d2782        	l32i	a8, a7, 0x134
    b4d4:	06bd      	mov.n	a11, a6
    b4d6:	0008e0        	excw
    b4d9:	020c      	movi.n	a2, 0
    b4db:	4acc      	bnez.n	a10, 0xb4e3
    b4dd:	0011a2        	l16ui	a10, a1, 0
    b4e0:	5353a2        	s16i	a10, a3, 166
    b4e3:	f01d      	excw
    b4e5:	000000        	ill
    b4e8:	004136        	excw
    b4eb:	63cc      	bnez.n	a3, 0xb4f5
    b4ed:	baaaa1        	l32r	a10, 0xffff9f98
    b4f0:	0b0c      	movi.n	a11, 0
    b4f2:	a8b625        	excw
    b4f5:	baabb1        	l32r	a11, 0xffff9fa4
    b4f8:	4c4c      	movi.n	a12, 68
    b4fa:	c1c2c0        	mul16u	a12, a2, a12
    b4fd:	0a0c      	movi.n	a10, 0
    b4ff:	bbca      	add.n	a11, a11, a12
    b501:	022bb2        	l32i	a11, a11, 8
    b504:	08a0d2        	movi	a13, 8
    b507:	6b9c      	beqz.n	a11, 0xb521
    b509:	14ad76        	excw
    b50c:	400a00        	ssr	a10
    b50f:	91e0b0        	srl	a14, a11
    b512:	34e0e0        	extui	a14, a14, 0, 4
    b515:	0393e7        	bne	a3, a14, 0xb51c
    b518:	120c      	movi.n	a2, 1
    b51a:	f01d      	excw
    b51c:	aa4b      	addi.n	a10, a10, 4
    b51e:	74a0a0        	extui	a10, a10, 0, 8
    b521:	020c      	movi.n	a2, 0
    b523:	f01d      	excw
    b525:	000000        	ill
    b528:	004136        	excw
    b52b:	baabc1        	l32r	a12, 0xffff9fd8
    b52e:	4d4c      	movi.n	a13, 68
    b530:	c1d2d0        	mul16u	a13, a2, a13
    b533:	ccda      	add.n	a12, a12, a13
    b535:	040c82        	l8ui	a8, a12, 4
    b538:	2c98      	l32i.n	a9, a12, 8
    b53a:	18fc      	bnez.n	a8, 0xb56f
    b53c:	f9ac      	beqz.n	a9, 0xb56f
    b53e:	349090        	extui	a9, a9, 0, 4
    b541:	044c92        	s8i	a9, a12, 4
    b544:	09ac      	beqz.n	a9, 0xb568
    b546:	2e1926        	beqi	a9, 1, 0xb578
    b549:	322926        	beqi	a9, 2, 0xb57f
    b54c:	363926        	beqi	a9, 3, 0xb586
    b54f:	3a4926        	beqi	a9, 4, 0xb58d
    b552:	1b5926        	beqi	a9, 5, 0xb571
    b555:	0f6966        	bnei	a9, 6, 0xb568
    b558:	b98481        	l32r	a8, 0xffff9b68
    b55b:	02ad      	mov.n	a10, a2
    b55d:	462882        	l32i	a8, a8, 0x118
    b560:	410cb2        	l8ui	a11, a12, 65
    b563:	0008e0        	excw
    b566:	f01d      	excw
    b568:	0a0c      	movi.n	a10, 0
    b56a:	1b0c      	movi.n	a11, 1
    b56c:	a8ae65        	excw
    b56f:	f01d      	excw
    b571:	02ad      	mov.n	a10, a2
    b573:	002d65        	excw
    b576:	f01d      	excw
    b578:	02ad      	mov.n	a10, a2
    b57a:	ffe525        	excw
    b57d:	f01d      	excw
    b57f:	02ad      	mov.n	a10, a2
    b581:	ffd9a5        	excw
    b584:	f01d      	excw
    b586:	02ad      	mov.n	a10, a2
    b588:	001b65        	excw
    b58b:	f01d      	excw
    b58d:	02ad      	mov.n	a10, a2
    b58f:	002ce5        	excw
    b592:	f01d      	excw
    b594:	004136        	excw
    b597:	baab41        	l32r	a4, 0xffffa044
    b59a:	484c      	movi.n	a8, 68
    b59c:	c18280        	mul16u	a8, a2, a8
    b59f:	448a      	add.n	a4, a4, a8
    b5a1:	0404a2        	l8ui	a10, a4, 4
    b5a4:	24b8      	l32i.n	a11, a4, 8
    b5a6:	1b93a7        	bne	a3, a10, 0xb5c5
    b5a9:	3490b0        	extui	a9, a11, 0, 4
    b5ac:	091397        	beq	a3, a9, 0xb5b9
    b5af:	baaaa1        	l32r	a10, 0xffffa058
    b5b2:	0b0c      	movi.n	a11, 0
    b5b4:	a8a9e5        	excw
    b5b7:	24b8      	l32i.n	a11, a4, 8
    b5b9:	0a0c      	movi.n	a10, 0
    b5bb:	0c0c      	movi.n	a12, 0
    b5bd:	41d4b0        	srli	a13, a11, 4
    b5c0:	0444c2        	s8i	a12, a4, 4
    b5c3:	24d9      	s32i.n	a13, a4, 8
    b5c5:	2aec      	bnez.n	a10, 0xb5eb
    b5c7:	98a1f2        	movi	a15, 0x198
    b5ca:	b982e1        	l32r	a14, 0xffff9bd4
    b5cd:	c1f2f0        	mul16u	a15, a2, a15
    b5d0:	2c2ee2        	l32i	a14, a14, 176
    b5d3:	eefa      	add.n	a14, a14, a15
    b5d5:	031ee2        	l16ui	a14, a14, 6
    b5d8:	0fee87        	bbsi	a14, 8, 0xb5eb
    b5db:	b98481        	l32r	a8, 0xffff9bec
    b5de:	4f2882        	l32i	a8, a8, 0x13c
    b5e1:	02ad      	mov.n	a10, a2
    b5e3:	0008e0        	excw
    b5e6:	02ad      	mov.n	a10, a2
    b5e8:	fff3e5        	excw
    b5eb:	f01d      	excw
    b5ed:	000000        	ill
    b5f0:	004136        	excw
    b5f3:	02ad      	mov.n	a10, a2
    b5f5:	03bd      	mov.n	a11, a3
    b5f7:	ffef25        	excw
    b5fa:	4a9c      	beqz.n	a10, 0xb612
    b5fc:	a23c      	movi.n	a2, 58
    b5fe:	f01d      	excw
    b600:	04bd      	mov.n	a11, a4
    b602:	adcb      	addi.n	a10, a13, 12
    b604:	4c1c      	movi.n	a12, 20
    b606:	020525        	excw
    b609:	02ad      	mov.n	a10, a2
    b60b:	fff1e5        	excw
    b60e:	020c      	movi.n	a2, 0
    b610:	f01d      	excw
    b612:	090c      	movi.n	a9, 0
    b614:	baabd1        	l32r	a13, 0xffffa0c0
    b617:	4e4c      	movi.n	a14, 68
    b619:	c1e2e0        	mul16u	a14, a2, a14
    b61c:	880c      	movi.n	a8, 8
    b61e:	ddea      	add.n	a13, a13, a14
    b620:	2da8      	l32i.n	a10, a13, 8
    b622:	0b6366        	bnei	a3, 6, 0xb631
    b625:	00a0f2        	movi	a15, 0
    b628:	11aac0        	slli	a10, a10, 4
    b62b:	026da2        	s32i	a10, a13, 8
    b62e:	044df2        	s8i	a15, a13, 4
    b631:	36a876        	excw
    b634:	400900        	ssr	a9
    b637:	91b0a0        	srl	a11, a10
    b63a:	34b0b0        	extui	a11, a11, 0, 4
    b63d:	8bec      	bnez.n	a11, 0xb669
    b63f:	401900        	ssl	a9
    b642:	a1c300        	sll	a12, a3
    b645:	20cac0        	or	a12, a10, a12
    b648:	2dc9      	s32i.n	a12, a13, 8
    b64a:	b21326        	beqi	a3, 1, 0xb600
    b64d:	1d2326        	beqi	a3, 2, 0xb66e
    b650:	273326        	beqi	a3, 3, 0xb67b
    b653:	b24326        	beqi	a3, 4, 0xb609
    b656:	af5326        	beqi	a3, 5, 0xb609
    b659:	ac6366        	bnei	a3, 6, 0xb609
    b65c:	04bd      	mov.n	a11, a4
    b65e:	41cda2        	addi	a10, a13, 65
    b661:	1c0c      	movi.n	a12, 1
    b663:	01ff65        	excw
    b666:	ffe7c6        	j	0xb609
    b669:	994b      	addi.n	a9, a9, 4
    b66b:	fff6c6        	j	0xb64a
    b66e:	04bd      	mov.n	a11, a4
    b670:	20cda2        	addi	a10, a13, 32
    b673:	5c0c      	movi.n	a12, 5
    b675:	01fe25        	excw
    b678:	ffe346        	j	0xb609
    b67b:	04bd      	mov.n	a11, a4
    b67d:	25cda2        	addi	a10, a13, 37
    b680:	cc1c      	movi.n	a12, 28
    b682:	01fd65        	excw
    b685:	ffe006        	j	0xb609
    b688:	004136        	excw
    b68b:	baab81        	l32r	a8, 0xffffa138
    b68e:	494c      	movi.n	a9, 68
    b690:	c19290        	mul16u	a9, a2, a9
    b693:	889a      	add.n	a8, a8, a9
    b695:	040882        	l8ui	a8, a8, 4
    b698:	2b4866        	bnei	a8, 4, 0xb6c7
    b69b:	24dc      	bnez.n	a4, 0xb6b1
    b69d:	98a1c2        	movi	a12, 0x198
    b6a0:	b982b1        	l32r	a11, 0xffff9ca8
    b6a3:	c1c2c0        	mul16u	a12, a2, a12
    b6a6:	2c2bb2        	l32i	a11, a11, 176
    b6a9:	0003a2        	l8ui	a10, a3, 0
    b6ac:	bbca      	add.n	a11, a11, a12
    b6ae:	b24ba2        	s8i	a10, a11, 178
    b6b1:	04bd      	mov.n	a11, a4
    b6b3:	b98481        	l32r	a8, 0xffff9cc4
    b6b6:	03cd      	mov.n	a12, a3
    b6b8:	502882        	l32i	a8, a8, 0x140
    b6bb:	02ad      	mov.n	a10, a2
    b6bd:	0008e0        	excw
    b6c0:	02ad      	mov.n	a10, a2
    b6c2:	4b0c      	movi.n	a11, 4
    b6c4:	ffece5        	excw
    b6c7:	f01d      	excw
    b6c9:	000000        	ill
    b6cc:	004136        	excw
    b6cf:	b98441        	l32r	a4, 0xffff9ce0
    b6d2:	02ad      	mov.n	a10, a2
    b6d4:	752482        	l32i	a8, a4, 0x1d4
    b6d7:	cb0c      	movi.n	a11, 12
    b6d9:	0008e0        	excw
    b6dc:	2acc      	bnez.n	a10, 0xb6e2
    b6de:	320c      	movi.n	a2, 3
    b6e0:	f01d      	excw
    b6e2:	b90781        	l32r	a8, 0xffff9b00
    b6e5:	da0c      	movi.n	a10, 13
    b6e7:	7888      	l32i.n	a8, a8, 28
    b6e9:	ab0c      	movi.n	a11, 10
    b6eb:	0008e0        	excw
    b6ee:	0abd      	mov.n	a11, a10
    b6f0:	2acc      	bnez.n	a10, 0xb6f6
    b6f2:	420c      	movi.n	a2, 4
    b6f4:	f01d      	excw
    b6f6:	02ad      	mov.n	a10, a2
    b6f8:	baac91        	l32r	a9, 0xffffa1a8
    b6fb:	0c0c      	movi.n	a12, 0
    b6fd:	1e0c      	movi.n	a14, 1
    b6ff:	5f4c      	movi.n	a15, 69
    b701:	650c      	movi.n	a5, 6
    b703:	0a0b72        	l8ui	a7, a11, 10
    b706:	083c      	movi.n	a8, 48
    b708:	77ba      	add.n	a7, a7, a11
    b70a:	0d0762        	l8ui	a6, a7, 13
    b70d:	cfa0d2        	movi	a13, 207
    b710:	1066d0        	and	a6, a6, a13
    b713:	206680        	or	a6, a6, a8
    b716:	0d4762        	s8i	a6, a7, 13
    b719:	0a0bd2        	l8ui	a13, a11, 10
    b71c:	c60c      	movi.n	a6, 12
    b71e:	ddba      	add.n	a13, a13, a11
    b720:	104d62        	s8i	a6, a13, 16
    b723:	114d52        	s8i	a5, a13, 17
    b726:	124df2        	s8i	a15, a13, 18
    b729:	144de2        	s8i	a14, a13, 20
    b72c:	134dc2        	s8i	a12, a13, 19
    b72f:	154dc2        	s8i	a12, a13, 21
    b732:	4d2482        	l32i	a8, a4, 0x134
    b735:	93c930        	movnez	a12, a9, a3
    b738:	0008e0        	excw
    b73b:	0a2d      	mov.n	a2, a10
    b73d:	f01d      	excw
    b73f:	413600        	srli	a3, a0, 6
    b742:	a17200        	sll	a7, a2
    b745:	4198      	l32i.n	a9, a1, 16
    b747:	70b982        	excw
    b74a:	42c172        	addi	a7, a1, 66
    b74d:	7a2c24        	excw
    b750:	049244        	excw
    b753:	847104        	excw
    b756:	17b9      	s32i.n	a11, a7, 4
    b758:	0e69      	s32i.n	a6, a14, 0
    b75a:	0b6907        	bbci	a9, 0, 0xb769
    b75d:	762782        	l32i	a8, a7, 0x1d8
    b760:	02ad      	mov.n	a10, a2
    b762:	0008e0        	excw
    b765:	0a2d      	mov.n	a2, a10
    b767:	f01d      	excw
    b769:	0c1c      	movi.n	a12, 16
    b76b:	baab51        	l32r	a5, 0xffffa218
    b76e:	b6a0a2        	movi	a10, 182
    b771:	484c      	movi.n	a8, 68
    b773:	c18280        	mul16u	a8, a2, a8
    b776:	a4aa      	add.n	a10, a4, a10
    b778:	558a      	add.n	a5, a5, a8
    b77a:	31c5b2        	addi	a11, a5, 49
    b77d:	ffada5        	excw
    b780:	b9bd31        	l32r	a3, 0xffff9e74
    b783:	3388      	l32i.n	a8, a3, 12
    b785:	0008e0        	excw
    b788:	f5b0a0        	extui	a11, a10, 16, 16
    b78b:	3388      	l32i.n	a8, a3, 12
    b78d:	7fc492        	addi	a9, a4, 127
    b790:	4fc992        	addi	a9, a9, 79
    b793:	0059a2        	s16i	a10, a9, 0
    b796:	0159b2        	s16i	a11, a9, 2
    b799:	0008e0        	excw
    b79c:	f5b0a0        	extui	a11, a10, 16, 16
    b79f:	3388      	l32i.n	a8, a3, 12
    b7a1:	7fc492        	addi	a9, a4, 127
    b7a4:	53c992        	addi	a9, a9, 83
    b7a7:	0059a2        	s16i	a10, a9, 0
    b7aa:	0159b2        	s16i	a11, a9, 2
    b7ad:	0008e0        	excw
    b7b0:	f5b0a0        	extui	a11, a10, 16, 16
    b7b3:	b90781        	l32r	a8, 0xffff9bd0
    b7b6:	7fc492        	addi	a9, a4, 127
    b7b9:	47c992        	addi	a9, a9, 71
    b7bc:	7888      	l32i.n	a8, a8, 28
    b7be:	0059a2        	s16i	a10, a9, 0
    b7c1:	0159b2        	s16i	a11, a9, 2
    b7c4:	da0c      	movi.n	a10, 13
    b7c6:	bb1c      	movi.n	a11, 27
    b7c8:	0008e0        	excw
    b7cb:	0a3d      	mov.n	a3, a10
    b7cd:	2acc      	bnez.n	a10, 0xb7d3
    b7cf:	124c      	movi.n	a2, 65
    b7d1:	f01d      	excw
    b7d3:	27c5b2        	addi	a11, a5, 39
    b7d6:	8c0c      	movi.n	a12, 8
    b7d8:	460c      	movi.n	a6, 4
    b7da:	0404f2        	l8ui	a15, a4, 4
    b7dd:	080c      	movi.n	a8, 0
    b7df:	5489      	s32i.n	a8, a4, 20
    b7e1:	6489      	s32i.n	a8, a4, 24
    b7e3:	7489      	s32i.n	a8, a4, 28
    b7e5:	20ff60        	or	a15, a15, a6
    b7e8:	0444f2        	s8i	a15, a4, 4
    b7eb:	0a0ae2        	l8ui	a14, a10, 10
    b7ee:	cfa062        	movi	a6, 207
    b7f1:	eeaa      	add.n	a14, a14, a10
    b7f3:	0d0ed2        	l8ui	a13, a14, 13
    b7f6:	0f3c      	movi.n	a15, 48
    b7f8:	10dd60        	and	a13, a13, a6
    b7fb:	20ddf0        	or	a13, a13, a15
    b7fe:	0d4ed2        	s8i	a13, a14, 13
    b801:	0a0aa2        	l8ui	a10, a10, 10
    b804:	3d0c      	movi.n	a13, 3
    b806:	aa3a      	add.n	a10, a10, a3
    b808:	104ad2        	s8i	a13, a10, 16
    b80b:	10ca62        	addi	a6, a10, 16
    b80e:	11caa2        	addi	a10, a10, 17
    b811:	01e465        	excw
    b814:	2fc5b2        	addi	a11, a5, 47
    b817:	a69b      	addi.n	a10, a6, 9
    b819:	2c0c      	movi.n	a12, 2
    b81b:	01e3e5        	excw
    b81e:	a6bb      	addi.n	a10, a6, 11
    b820:	8c0c      	movi.n	a12, 8
    b822:	cea0b2        	movi	a11, 206
    b825:	b4ba      	add.n	a11, a4, a11
    b827:	01e325        	excw
    b82a:	13c6a2        	addi	a10, a6, 19
    b82d:	4c0c      	movi.n	a12, 4
    b82f:	c6a0b2        	movi	a11, 198
    b832:	b4ba      	add.n	a11, a4, a11
    b834:	01e225        	excw
    b837:	02ad      	mov.n	a10, a2
    b839:	03bd      	mov.n	a11, a3
    b83b:	4d2782        	l32i	a8, a7, 0x134
    b83e:	baacc1        	l32r	a12, 0xffffa2f0
    b841:	0008e0        	excw
    b844:	020c      	movi.n	a2, 0
    b846:	f01d      	excw
    b848:	004136        	excw
    b84b:	02ad      	mov.n	a10, a2
    b84d:	1b0c      	movi.n	a11, 1
    b84f:	ffe7e5        	excw
    b852:	080c      	movi.n	a8, 0
    b854:	124c      	movi.n	a2, 65
    b856:	8328a0        	moveqz	a2, a8, a10
    b859:	f01d      	excw
    b85b:	413600        	srli	a3, a0, 6
    b85e:	848100        	extui	a8, a0, 1, 9
    b861:	adb9      	s32i.n	a11, a13, 40
    b863:	288202        	excw
    b866:	1b0c51        	l32r	a5, 0xfffd2498
    b869:	0008e0        	excw
    b86c:	090c      	movi.n	a9, 0
    b86e:	124c      	movi.n	a2, 65
    b870:	8329a0        	moveqz	a2, a9, a10
    b873:	f01d      	excw
    b875:	000000        	ill
    b878:	006136        	excw
    b87b:	f81c      	movi.n	a8, 31
    b87d:	0002d2        	l8ui	a13, a2, 0
    b880:	060292        	l8ui	a9, a2, 6
    b883:	0502a2        	l8ui	a10, a2, 5
    b886:	119980        	slli	a9, a9, 8
    b889:	2099a0        	or	a9, a9, a10
    b88c:	0402a2        	l8ui	a10, a2, 4
    b88f:	119980        	slli	a9, a9, 8
    b892:	2099a0        	or	a9, a9, a10
    b895:	0302a2        	l8ui	a10, a2, 3
    b898:	119980        	slli	a9, a9, 8
    b89b:	2099a0        	or	a9, a9, a10
    b89e:	0199      	s32i.n	a9, a1, 0
    b8a0:	209d87        	bne	a13, a8, 0xb8c4
    b8a3:	401d00        	ssl	a13
    b8a6:	baadb1        	l32r	a11, 0xffffa35c
    b8a9:	1c0c      	movi.n	a12, 1
    b8ab:	2ba8      	l32i.n	a10, a11, 8
    b8ad:	a1cc00        	sll	a12, a12
    b8b0:	20aac0        	or	a10, a10, a12
    b8b3:	2ba9      	s32i.n	a10, a11, 8
    b8b5:	aaa0c2        	movi	a12, 170
    b8b8:	baaea1        	l32r	a10, 0xffffa370
    b8bb:	01bd      	mov.n	a11, a1
    b8bd:	01d9a5        	excw
    b8c0:	020c      	movi.n	a2, 0
    b8c2:	f01d      	excw
    b8c4:	baaf81        	l32r	a8, 0xffffa380
    b8c7:	0888      	l32i.n	a8, a8, 0
    b8c9:	02ad      	mov.n	a10, a2
    b8cb:	0008e0        	excw
    b8ce:	0a2d      	mov.n	a2, a10
    b8d0:	f01d      	excw
    b8d2:	360000        	excw
    b8d5:	660041        	l32r	a4, 0xfffe50d8
    b8d8:	811792        	l16ui	a9, a7, 0x102
    b8db:	82b982        	excw
    b8de:	4228      	l32i.n	a2, a2, 16
    b8e0:	0a78f7        	bbci	a8, 31, 0xb8ee
    b8e3:	03ad      	mov.n	a10, a3
    b8e5:	baaeb1        	l32r	a11, 0xffffa3a0
    b8e8:	aaa0c2        	movi	a12, 170
    b8eb:	01d6e5        	excw
    b8ee:	020c      	movi.n	a2, 0
    b8f0:	f01d      	excw
    b8f2:	baaf81        	l32r	a8, 0xffffa3b0
    b8f5:	02ad      	mov.n	a10, a2
    b8f7:	1888      	l32i.n	a8, a8, 4
    b8f9:	03bd      	mov.n	a11, a3
    b8fb:	0008e0        	excw
    b8fe:	0a2d      	mov.n	a2, a10
    b900:	f01d      	excw
    b902:	360000        	excw
    b905:	810041        	l32r	a4, 0xfffebd08
    b908:	32b984        	excw
    b90b:	880202        	l8ui	a0, a2, 136
    b90e:	a238      	l32i.n	a3, a2, 40
    b910:	e00302        	l8ui	a0, a3, 224
    b913:	0008      	l32i.n	a0, a0, 0
    b915:	ffa092        	movi	a9, 255
    b918:	461a97        	beq	a10, a9, 0xb962
    b91b:	bb1c      	movi.n	a11, 27
    b91d:	41bb37        	bgeu	a11, a3, 0xb962
    b920:	98a1b2        	movi	a11, 0x198
    b923:	b982c1        	l32r	a12, 0xffff9f2c
    b926:	c1bab0        	mul16u	a11, a10, a11
    b929:	2c2cd2        	l32i	a13, a12, 176
    b92c:	180cc2        	l8ui	a12, a12, 24
    b92f:	ddba      	add.n	a13, a13, a11
    b931:	b20dd2        	l8ui	a13, a13, 178
    b934:	0490c0        	extui	a9, a12, 0, 1
    b937:	8d8c      	beqz.n	a13, 0xb943
    b939:	090c      	movi.n	a9, 0
    b93b:	046c07        	bbci	a12, 0, 0xb943
    b93e:	016d07        	bbci	a13, 0, 0xb943
    b941:	190c      	movi.n	a9, 1
    b943:	29cc      	bnez.n	a9, 0xb949
    b945:	a21c      	movi.n	a2, 26
    b947:	f01d      	excw
    b949:	b977c1        	l32r	a12, 0xffff9f28
    b94c:	cbca      	add.n	a12, a11, a12
    b94e:	800cc2        	l8ui	a12, a12, 128
    b951:	2ccc      	bnez.n	a12, 0xb957
    b953:	c20c      	movi.n	a2, 12
    b955:	f01d      	excw
    b957:	c23b      	addi.n	a12, a2, 3
    b959:	3b0c      	movi.n	a11, 3
    b95b:	ffc965        	excw
    b95e:	0a2d      	mov.n	a2, a10
    b960:	f01d      	excw
    b962:	221c      	movi.n	a2, 18
    b964:	f01d      	excw
    b966:	360000        	excw
    b969:	610261        	l32r	a6, 0xfffe3d74
    b96c:	88b984        	excw
    b96f:	02ad36        	excw
    b972:	0008e0        	excw
    b975:	0b0c      	movi.n	a11, 0
    b977:	882682        	l32i	a8, a6, 0x220
    b97a:	b4a092        	movi	a9, 180
    b97d:	0a4d      	mov.n	a4, a10
    b97f:	b98271        	l32r	a7, 0xffff9f88
    b982:	98a122        	movi	a2, 0x198
    b985:	c12a20        	mul16u	a2, a10, a2
    b988:	2c2752        	l32i	a5, a7, 176
    b98b:	1a0c      	movi.n	a10, 1
    b98d:	552a      	add.n	a5, a5, a2
    b98f:	559a      	add.n	a5, a5, a9
    b991:	0008e0        	excw
    b994:	8a0b      	addi.n	a8, a10, -1
    b996:	0bc816        	beqz	a8, 0xba56
    b999:	ffa092        	movi	a9, 255
    b99c:	039497        	bne	a4, a9, 0xb9a3
    b99f:	221c      	movi.n	a2, 18
    b9a1:	f01d      	excw
    b9a3:	b977a1        	l32r	a10, 0xffff9f80
    b9a6:	2c27b2        	l32i	a11, a7, 176
    b9a9:	a2aa      	add.n	a10, a2, a10
    b9ab:	800aa2        	l8ui	a10, a10, 128
    b9ae:	bb2a      	add.n	a11, a11, a2
    b9b0:	1a1a26        	beqi	a10, 1, 0xb9ce
    b9b3:	040bb2        	l8ui	a11, a11, 4
    b9b6:	146b27        	bbci	a11, 2, 0xb9ce
    b9b9:	b90781        	l32r	a8, 0xffff9dd8
    b9bc:	da0c      	movi.n	a10, 13
    b9be:	7888      	l32i.n	a8, a8, 28
    b9c0:	5b0c      	movi.n	a11, 5
    b9c2:	0008e0        	excw
    b9c5:	4161a2        	s32i	a10, a1, 0x104
    b9c8:	6acc      	bnez.n	a10, 0xb9d2
    b9ca:	124c      	movi.n	a2, 65
    b9cc:	f01d      	excw
    b9ce:	c20c      	movi.n	a2, 12
    b9d0:	f01d      	excw
    b9d2:	0c1c      	movi.n	a12, 16
    b9d4:	00a1f2        	movi	a15, 0x100
    b9d7:	2c2782        	l32i	a8, a7, 176
    b9da:	03bd      	mov.n	a11, a3
    b9dc:	882a      	add.n	a8, a8, a2
    b9de:	040832        	l8ui	a3, a8, 4
    b9e1:	190c      	movi.n	a9, 1
    b9e3:	203390        	or	a3, a3, a9
    b9e6:	044832        	s8i	a3, a8, 4
    b9e9:	2c27e2        	l32i	a14, a7, 176
    b9ec:	352b      	addi.n	a3, a5, 2
    b9ee:	ee2a      	add.n	a14, a14, a2
    b9f0:	031ed2        	l16ui	a13, a14, 6
    b9f3:	03ad      	mov.n	a10, a3
    b9f5:	20ddf0        	or	a13, a13, a15
    b9f8:	035ed2        	s16i	a13, a14, 6
    b9fb:	ff85e5        	excw
    b9fe:	01ad      	mov.n	a10, a1
    ba00:	0c1c      	movi.n	a12, 16
    ba02:	1ac522        	addi	a2, a5, 26
    ba05:	02bd      	mov.n	a11, a2
    ba07:	ff8525        	excw
    ba0a:	03ad      	mov.n	a10, a3
    ba0c:	baaf31        	l32r	a3, 0xffffa4c8
    ba0f:	80a0b2        	movi	a11, 128
    ba12:	3388      	l32i.n	a8, a3, 12
    ba14:	10c1c2        	addi	a12, a1, 16
    ba17:	0008e0        	excw
    ba1a:	02bd      	mov.n	a11, a2
    ba1c:	01ad      	mov.n	a10, a1
    ba1e:	4388      	l32i.n	a8, a3, 16
    ba20:	10c1c2        	addi	a12, a1, 16
    ba23:	0008e0        	excw
    ba26:	04ad      	mov.n	a10, a4
    ba28:	4121d2        	l32i	a13, a1, 0x104
    ba2b:	083c      	movi.n	a8, 48
    ba2d:	0a0df2        	l8ui	a15, a13, 10
    ba30:	cfa092        	movi	a9, 207
    ba33:	ffda      	add.n	a15, a15, a13
    ba35:	0d0fe2        	l8ui	a14, a15, 13
    ba38:	0dbd      	mov.n	a11, a13
    ba3a:	10ee90        	and	a14, a14, a9
    ba3d:	20ee80        	or	a14, a14, a8
    ba40:	0d4fe2        	s8i	a14, a15, 13
    ba43:	0a0dc2        	l8ui	a12, a13, 10
    ba46:	590c      	movi.n	a9, 5
    ba48:	ccda      	add.n	a12, a12, a13
    ba4a:	104c92        	s8i	a9, a12, 16
    ba4d:	4d2682        	l32i	a8, a6, 0x134
    ba50:	baacc1        	l32r	a12, 0xffffa500
    ba53:	0008e0        	excw
    ba56:	020c      	movi.n	a2, 0
    ba58:	f01d      	excw
    ba5a:	360000        	excw
    ba5d:	410061        	l32r	a6, 0xfffdbe60
    ba60:	88b984        	excw
    ba63:	02ad34        	excw
    ba66:	0008e0        	excw
    ba69:	0a2d      	mov.n	a2, a10
    ba6b:	ffa092        	movi	a9, 255
    ba6e:	039a97        	bne	a10, a9, 0xba75
    ba71:	221c      	movi.n	a2, 18
    ba73:	f01d      	excw
    ba75:	98a132        	movi	a3, 0x198
    ba78:	c13a30        	mul16u	a3, a10, a3
    ba7b:	b977a1        	l32r	a10, 0xffffa058
    ba7e:	b98251        	l32r	a5, 0xffffa088
    ba81:	a3aa      	add.n	a10, a3, a10
    ba83:	800aa2        	l8ui	a10, a10, 128
    ba86:	2c2592        	l32i	a9, a5, 176
    ba89:	521a26        	beqi	a10, 1, 0xbadf
    ba8c:	993a      	add.n	a9, a9, a3
    ba8e:	040992        	l8ui	a9, a9, 4
    ba91:	4a6927        	bbci	a9, 2, 0xbadf
    ba94:	366947        	bbci	a9, 4, 0xbace
    ba97:	02ad      	mov.n	a10, a2
    ba99:	01cd      	mov.n	a12, a1
    ba9b:	620c      	movi.n	a2, 6
    ba9d:	004122        	s8i	a2, a1, 0
    baa0:	02bd      	mov.n	a11, a2
    baa2:	ffb4e5        	excw
    baa5:	1aec      	bnez.n	a10, 0xbaca
    baa7:	2c25a2        	l32i	a10, a5, 176
    baaa:	aa3a      	add.n	a10, a10, a3
    baac:	a94a22        	s8i	a2, a10, 169
    baaf:	0005c6        	j	0xbaca
    bab2:	02ad      	mov.n	a10, a2
    bab4:	3b0c      	movi.n	a11, 3
    bab6:	2c25d2        	l32i	a13, a5, 176
    bab9:	0c0c      	movi.n	a12, 0
    babb:	dd3a      	add.n	a13, a13, a3
    babd:	044dc2        	s8i	a12, a13, 4
    bac0:	ffad25        	excw
    bac3:	1488      	l32i.n	a8, a4, 4
    bac5:	02ad      	mov.n	a10, a2
    bac7:	0008e0        	excw
    baca:	020c      	movi.n	a2, 0
    bacc:	f01d      	excw
    bace:	02ad      	mov.n	a10, a2
    bad0:	472482        	l32i	a8, a4, 0x11c
    bad3:	6b0c      	movi.n	a11, 6
    bad5:	0008e0        	excw
    bad8:	fd6a16        	beqz	a10, 0xbab2
    badb:	124c      	movi.n	a2, 65
    badd:	f01d      	excw
    badf:	c20c      	movi.n	a2, 12
    bae1:	f01d      	excw
    bae3:	613600        	excw
    bae6:	848100        	extui	a8, a0, 1, 9
    bae9:	adb9      	s32i.n	a11, a13, 40
    baeb:	388802        	excw
    baee:	044132        	s8i	a3, a1, 4
    baf1:	0008e0        	excw
    baf4:	ffa0b2        	movi	a11, 255
    baf7:	039ab7        	bne	a10, a11, 0xbafe
    bafa:	221c      	movi.n	a2, 18
    bafc:	f01d      	excw
    bafe:	98a122        	movi	a2, 0x198
    bb01:	b98241        	l32r	a4, 0xffffa10c
    bb04:	c12a20        	mul16u	a2, a10, a2
    bb07:	2c24c2        	l32i	a12, a4, 176
    bb0a:	0401b2        	l8ui	a11, a1, 4
    bb0d:	cc2a      	add.n	a12, a12, a2
    bb0f:	010cc2        	l8ui	a12, a12, 1
    bb12:	dd0c      	movi.n	a13, 13
    bb14:	031cd7        	beq	a12, a13, 0xbb1b
    bb17:	220c      	movi.n	a2, 2
    bb19:	f01d      	excw
    bb1b:	631c      	movi.n	a3, 22
    bb1d:	1b8c      	beqz.n	a11, 0xbb22
    bb1f:	049b37        	bne	a11, a3, 0xbb27
    bb22:	3c1c      	movi.n	a12, 19
    bb24:	0441c2        	s8i	a12, a1, 4
    bb27:	c14b      	addi.n	a12, a1, 4
    bb29:	6b0c      	movi.n	a11, 6
    bb2b:	ffac65        	excw
    bb2e:	6acc      	bnez.n	a10, 0xbb38
    bb30:	2c24d2        	l32i	a13, a4, 176
    bb33:	dd2a      	add.n	a13, a13, a2
    bb35:	a94d32        	s8i	a3, a13, 169
    bb38:	020c      	movi.n	a2, 0
    bb3a:	f01d      	excw
    bb3c:	004136        	excw
    bb3f:	b98431        	l32r	a3, 0xffffa150
    bb42:	3388      	l32i.n	a8, a3, 12
    bb44:	02ad      	mov.n	a10, a2
    bb46:	0008e0        	excw
    bb49:	ffa092        	movi	a9, 255
    bb4c:	039a97        	bne	a10, a9, 0xbb53
    bb4f:	221c      	movi.n	a2, 18
    bb51:	f01d      	excw
    bb53:	98a1c2        	movi	a12, 0x198
    bb56:	b982b1        	l32r	a11, 0xffffa160
    bb59:	c1cac0        	mul16u	a12, a10, a12
    bb5c:	2c2bb2        	l32i	a11, a11, 176
    bb5f:	220c      	movi.n	a2, 2
    bb61:	bbca      	add.n	a11, a11, a12
    bb63:	010bc2        	l8ui	a12, a11, 1
    bb66:	dd0c      	movi.n	a13, 13
    bb68:	0c1cd7        	beq	a12, a13, 0xbb78
    bb6b:	f01d      	excw
    bb6d:	5b0c      	movi.n	a11, 5
    bb6f:	0c0c      	movi.n	a12, 0
    bb71:	ffa7e5        	excw
    bb74:	0a2d      	mov.n	a2, a10
    bb76:	f01d      	excw
    bb78:	ad0bd2        	l8ui	a13, a11, 173
    bb7b:	feed16        	beqz	a13, 0xbb6d
    bb7e:	0b0c      	movi.n	a11, 0
    bb80:	702382        	l32i	a8, a3, 0x1c0
    bb83:	0c0c      	movi.n	a12, 0
    bb85:	0008e0        	excw
    bb88:	fccaa2        	addi	a10, a10, -4
    bb8b:	090c      	movi.n	a9, 0
    bb8d:	124c      	movi.n	a2, 65
    bb8f:	9329a0        	movnez	a2, a9, a10
    bb92:	f01d      	excw
    bb94:	004136        	excw
    bb97:	b98481        	l32r	a8, 0xffffa1a8
    bb9a:	3888      	l32i.n	a8, a8, 12
    bb9c:	02ad      	mov.n	a10, a2
    bb9e:	0008e0        	excw
    bba1:	ffa092        	movi	a9, 255
    bba4:	039a97        	bne	a10, a9, 0xbbab
    bba7:	221c      	movi.n	a2, 18
    bba9:	f01d      	excw
    bbab:	98a1b2        	movi	a11, 0x198
    bbae:	b982c1        	l32r	a12, 0xffffa1b8
    bbb1:	c1bab0        	mul16u	a11, a10, a11
    bbb4:	2c2cc2        	l32i	a12, a12, 176
    bbb7:	220c      	movi.n	a2, 2
    bbb9:	ccba      	add.n	a12, a12, a11
    bbbb:	010cc2        	l8ui	a12, a12, 1
    bbbe:	dd0c      	movi.n	a13, 13
    bbc0:	0c1cd7        	beq	a12, a13, 0xbbd0
    bbc3:	f01d      	excw
    bbc5:	4b0c      	movi.n	a11, 4
    bbc7:	0c0c      	movi.n	a12, 0
    bbc9:	ffa265        	excw
    bbcc:	0a2d      	mov.n	a2, a10
    bbce:	f01d      	excw
    bbd0:	b977c1        	l32r	a12, 0xffffa1ac
    bbd3:	cbca      	add.n	a12, a11, a12
    bbd5:	800cc2        	l8ui	a12, a12, 128
    bbd8:	c20c      	movi.n	a2, 12
    bbda:	fe7c56        	bnez	a12, 0xbbc5
    bbdd:	f01d      	excw
    bbdf:	813600        	src	a3, a6, a0
    bbe2:	d40c00        	extui	a0, a0, 12, 14
    bbe5:	023437        	bltu	a4, a3, 0xbbeb
    bbe8:	0025c6        	j	0xbc83
    bbeb:	b98481        	l32r	a8, 0xffffa1fc
    bbee:	3888      	l32i.n	a8, a8, 12
    bbf0:	0002a2        	l8ui	a10, a2, 0
    bbf3:	0008e0        	excw
    bbf6:	0202d2        	l8ui	a13, a2, 2
    bbf9:	0402e2        	l8ui	a14, a2, 4
    bbfc:	0802f2        	l8ui	a15, a2, 8
    bbff:	070292        	l8ui	a9, a2, 7
    bc02:	0c0232        	l8ui	a3, a2, 12
    bc05:	0d0252        	l8ui	a5, a2, 13
    bc08:	0b0282        	l8ui	a8, a2, 11
    bc0b:	115580        	slli	a5, a5, 8
    bc0e:	118880        	slli	a8, a8, 8
    bc11:	335a      	add.n	a3, a3, a5
    bc13:	0a0252        	l8ui	a5, a2, 10
    bc16:	119980        	slli	a9, a9, 8
    bc19:	558a      	add.n	a5, a5, a8
    bc1b:	090282        	l8ui	a8, a2, 9
    bc1e:	f43030        	extui	a3, a3, 0, 16
    bc21:	118880        	slli	a8, a8, 8
    bc24:	ff8a      	add.n	a15, a15, a8
    bc26:	060282        	l8ui	a8, a2, 6
    bc29:	f45050        	extui	a5, a5, 0, 16
    bc2c:	889a      	add.n	a8, a8, a9
    bc2e:	050292        	l8ui	a9, a2, 5
    bc31:	f4f0f0        	extui	a15, a15, 0, 16
    bc34:	119980        	slli	a9, a9, 8
    bc37:	ee9a      	add.n	a14, a14, a9
    bc39:	030292        	l8ui	a9, a2, 3
    bc3c:	f4e0e0        	extui	a14, a14, 0, 16
    bc3f:	112980        	slli	a2, a9, 8
    bc42:	ffa092        	movi	a9, 255
    bc45:	dd2a      	add.n	a13, a13, a2
    bc47:	f4d0d0        	extui	a13, a13, 0, 16
    bc4a:	f42080        	extui	a2, a8, 0, 16
    bc4d:	321a97        	beq	a10, a9, 0xbc83
    bc50:	2f3ed7        	bltu	a14, a13, 0xbc83
    bc53:	2c6db6        	bltui	a13, 6, 0xbc83
    bc56:	b995b1        	l32r	a11, 0xffffa2ac
    bc59:	e8a382        	movi	a8, 0x3e8
    bc5c:	233be7        	bltu	a11, a14, 0xbc83
    bc5f:	203827        	bltu	a8, a2, 0xbc83
    bc62:	1d9fb6        	bltui	a15, 10, 0xbc83
    bc65:	1a3bf7        	bltu	a11, a15, 0xbc83
    bc68:	173357        	bltu	a3, a5, 0xbc83
    bc6b:	98a1b2        	movi	a11, 0x198
    bc6e:	b98291        	l32r	a9, 0xffffa278
    bc71:	c1bab0        	mul16u	a11, a10, a11
    bc74:	2c2992        	l32i	a9, a9, 176
    bc77:	99ba      	add.n	a9, a9, a11
    bc79:	010992        	l8ui	a9, a9, 1
    bc7c:	291947        	beq	a9, a4, 0xbca9
    bc7f:	220c      	movi.n	a2, 2
    bc81:	f01d      	excw
    bc83:	221c      	movi.n	a2, 18
    bc85:	f01d      	excw
    bc87:	0051d2        	s16i	a13, a1, 0
    bc8a:	0151e2        	s16i	a14, a1, 2
    bc8d:	025152        	s16i	a5, a1, 4
    bc90:	0451f2        	s16i	a15, a1, 8
    bc93:	055122        	s16i	a2, a1, 10
    bc96:	1b0c      	movi.n	a11, 1
    bc98:	1c0c      	movi.n	a12, 1
    bc9a:	833c30        	moveqz	a3, a12, a3
    bc9d:	035132        	s16i	a3, a1, 6
    bca0:	01cd      	mov.n	a12, a1
    bca2:	ff94e5        	excw
    bca5:	0a2d      	mov.n	a2, a10
    bca7:	f01d      	excw
    bca9:	b97781        	l32r	a8, 0xffffa288
    bcac:	8b8a      	add.n	a8, a11, a8
    bcae:	800882        	l8ui	a8, a8, 128
    bcb1:	fd2856        	bnez	a8, 0xbc87
    bcb4:	c20c      	movi.n	a2, 12
    bcb6:	f01d      	excw
    bcb8:	008136        	excw
    bcbb:	98a1a2        	movi	a10, 0x198
    bcbe:	b982d1        	l32r	a13, 0xffffa2c8
    bcc1:	c1a2a0        	mul16u	a10, a2, a10
    bcc4:	2c2dd2        	l32i	a13, a13, 176
    bcc7:	ddaa      	add.n	a13, a13, a10
    bcc9:	010d82        	l8ui	a8, a13, 1
    bccc:	d90c      	movi.n	a9, 13
    bcce:	311897        	beq	a8, a9, 0xbd03
    bcd1:	220c      	movi.n	a2, 2
    bcd3:	f01d      	excw
    bcd5:	02ad      	mov.n	a10, a2
    bcd7:	1b0c      	movi.n	a11, 1
    bcd9:	201d82        	l16ui	a8, a13, 64
    bcdc:	01cd      	mov.n	a12, a1
    bcde:	418180        	srli	a8, a8, 1
    bce1:	005182        	s16i	a8, a1, 0
    bce4:	015182        	s16i	a8, a1, 2
    bce7:	221df2        	l16ui	a15, a13, 68
    bcea:	0251f2        	s16i	a15, a1, 4
    bced:	0351f2        	s16i	a15, a1, 6
    bcf0:	241de2        	l16ui	a14, a13, 72
    bcf3:	0451e2        	s16i	a14, a1, 8
    bcf6:	231dd2        	l16ui	a13, a13, 70
    bcf9:	0551d2        	s16i	a13, a1, 10
    bcfc:	ff8f25        	excw
    bcff:	0a2d      	mov.n	a2, a10
    bd01:	f01d      	excw
    bd03:	b97791        	l32r	a9, 0xffffa2e0
    bd06:	9a9a      	add.n	a9, a10, a9
    bd08:	800992        	l8ui	a9, a9, 128
    bd0b:	fc6956        	bnez	a9, 0xbcd5
    bd0e:	c20c      	movi.n	a2, 12
    bd10:	f01d      	excw
    bd12:	360000        	excw
    bd15:	810041        	l32r	a4, 0xfffec118
    bd18:	0cb907        	bgeu	a9, a0, 0xbd28
    bd1b:	88da      	add.n	a8, a8, a13
    bd1d:	0c78      	l32i.n	a7, a12, 0
    bd1f:	e05b      	addi.n	a14, a0, 5
    bd21:	0008      	l32i.n	a0, a0, 0
    bd23:	0abd      	mov.n	a11, a10
    bd25:	2acc      	bnez.n	a10, 0xbd2b
    bd27:	124c      	movi.n	a2, 65
    bd29:	f01d      	excw
    bd2b:	02ad      	mov.n	a10, a2
    bd2d:	98a1c2        	movi	a12, 0x198
    bd30:	b98291        	l32r	a9, 0xffffa338
    bd33:	c1c2c0        	mul16u	a12, a2, a12
    bd36:	2c2992        	l32i	a9, a9, 176
    bd39:	b98481        	l32r	a8, 0xffffa34c
    bd3c:	99ca      	add.n	a9, a9, a12
    bd3e:	0409f2        	l8ui	a15, a9, 4
    bd41:	0c1c      	movi.n	a12, 16
    bd43:	20ffc0        	or	a15, a15, a12
    bd46:	0449f2        	s8i	a15, a9, 4
    bd49:	0a0be2        	l8ui	a14, a11, 10
    bd4c:	0f3c      	movi.n	a15, 48
    bd4e:	eeba      	add.n	a14, a14, a11
    bd50:	0d0ed2        	l8ui	a13, a14, 13
    bd53:	cfa092        	movi	a9, 207
    bd56:	10dd90        	and	a13, a13, a9
    bd59:	20ddf0        	or	a13, a13, a15
    bd5c:	0d4ed2        	s8i	a13, a14, 13
    bd5f:	0a0bc2        	l8ui	a12, a11, 10
    bd62:	a90c      	movi.n	a9, 10
    bd64:	ccba      	add.n	a12, a12, a11
    bd66:	104c92        	s8i	a9, a12, 16
    bd69:	4d2882        	l32i	a8, a8, 0x134
    bd6c:	baacc1        	l32r	a12, 0xffffa81c
    bd6f:	0008e0        	excw
    bd72:	020c      	movi.n	a2, 0
    bd74:	f01d      	excw
    bd76:	360000        	excw
    bd79:	0c0041        	l32r	a4, 0xfffced7c
    bd7c:	0c89      	s32i.n	a8, a12, 0
    bd7e:	0c9b      	addi.n	a0, a12, 9
    bd80:	611a      	add.n	a6, a1, a1
    bd82:	30b984        	excw
    bd85:	933a      	add.n	a9, a3, a3
    bd87:	3a0c      	movi.n	a10, 3
    bd89:	882682        	l32i	a8, a6, 0x220
    bd8c:	93b930        	movnez	a11, a9, a3
    bd8f:	0b4d      	mov.n	a4, a11
    bd91:	0008e0        	excw
    bd94:	031a66        	bnei	a10, 1, 0xbd9b
    bd97:	020c      	movi.n	a2, 0
    bd99:	f01d      	excw
    bd9b:	02ad      	mov.n	a10, a2
    bd9d:	752682        	l32i	a8, a6, 0x1d4
    bda0:	04bd      	mov.n	a11, a4
    bda2:	0008e0        	excw
    bda5:	2acc      	bnez.n	a10, 0xbdab
    bda7:	320c      	movi.n	a2, 3
    bda9:	f01d      	excw
    bdab:	b90781        	l32r	a8, 0xffffa1c8
    bdae:	da0c      	movi.n	a10, 13
    bdb0:	7888      	l32i.n	a8, a8, 28
    bdb2:	db0c      	movi.n	a11, 13
    bdb4:	0008e0        	excw
    bdb7:	0a5d      	mov.n	a5, a10
    bdb9:	2acc      	bnez.n	a10, 0xbdbf
    bdbb:	420c      	movi.n	a2, 4
    bdbd:	f01d      	excw
    bdbf:	bab0b1        	l32r	a11, 0xffffa880
    bdc2:	0a0ad2        	l8ui	a13, a10, 10
    bdc5:	0e3c      	movi.n	a14, 48
    bdc7:	ddaa      	add.n	a13, a13, a10
    bdc9:	0d0dc2        	l8ui	a12, a13, 13
    bdcc:	cfa0f2        	movi	a15, 207
    bdcf:	10ccf0        	and	a12, a12, a15
    bdd2:	20cce0        	or	a12, a12, a14
    bdd5:	0d4dc2        	s8i	a12, a13, 13
    bdd8:	0a0aa2        	l8ui	a10, a10, 10
    bddb:	8c0c      	movi.n	a12, 8
    bddd:	aa5a      	add.n	a10, a10, a5
    bddf:	104a42        	s8i	a4, a10, 16
    bde2:	11caa2        	addi	a10, a10, 17
    bde5:	018725        	excw
    bde8:	02ad      	mov.n	a10, a2
    bdea:	05bd      	mov.n	a11, a5
    bdec:	baac91        	l32r	a9, 0xffffa89c
    bdef:	0c0c      	movi.n	a12, 0
    bdf1:	4d2682        	l32i	a8, a6, 0x134
    bdf4:	93c930        	movnez	a12, a9, a3
    bdf7:	0008e0        	excw
    bdfa:	0a2d      	mov.n	a2, a10
    bdfc:	f01d      	excw
    bdfe:	360000        	excw
    be01:	a20041        	l32r	a4, 0xffff4604
    be04:	b198a1        	l32r	a10, 0xffff8464
    be07:	a0b982        	excw
    be0a:	b2c1a2        	addi	a10, a1, -78
    be0d:	2c2b      	addi.n	a2, a12, 2
    be0f:	0c1c      	movi.n	a12, 16
    be11:	bbaa      	add.n	a11, a11, a10
    be13:	031b82        	l16ui	a8, a11, 6
    be16:	010bd2        	l8ui	a13, a11, 1
    be19:	4de847        	bbsi	a8, 4, 0xbe6a
    be1c:	de0c      	movi.n	a14, 13
    be1e:	489de7        	bne	a13, a14, 0xbe6a
    be21:	baabf1        	l32r	a15, 0xffffa8d0
    be24:	484c      	movi.n	a8, 68
    be26:	c18280        	mul16u	a8, a2, a8
    be29:	ff8a      	add.n	a15, a15, a8
    be2b:	040ff2        	l8ui	a15, a15, 4
    be2e:	6d1c      	movi.n	a13, 22
    be30:	366f26        	beqi	a15, 6, 0xbe6a
    be33:	b977e1        	l32r	a14, 0xffffa410
    be36:	0a0392        	l8ui	a9, a3, 10
    be39:	eaea      	add.n	a14, a10, a14
    be3b:	993a      	add.n	a9, a9, a3
    be3d:	0d0992        	l8ui	a9, a9, 13
    be40:	a94b92        	s8i	a9, a11, 169
    be43:	749090        	extui	a9, a9, 0, 8
    be46:	0499d7        	bne	a9, a13, 0xbe4e
    be49:	3d1c      	movi.n	a13, 19
    be4b:	a94bd2        	s8i	a13, a11, 169
    be4e:	800ee2        	l8ui	a14, a14, 128
    be51:	0a1e66        	bnei	a14, 1, 0xbe5f
    be54:	031bf2        	l16ui	a15, a11, 6
    be57:	20ffc0        	or	a15, a15, a12
    be5a:	035bf2        	s16i	a15, a11, 6
    be5d:	f01d      	excw
    be5f:	b98481        	l32r	a8, 0xffffa470
    be62:	482882        	l32i	a8, a8, 0x120
    be65:	02ad      	mov.n	a10, a2
    be67:	0008e0        	excw
    be6a:	f01d      	excw
    be6c:	008136        	excw
    be6f:	4a0c      	movi.n	a10, 4
    be71:	02bd      	mov.n	a11, a2
    be73:	b98461        	l32r	a6, 0xffffa484
    be76:	b98271        	l32r	a7, 0xffffa480
    be79:	98a152        	movi	a5, 0x198
    be7c:	c15250        	mul16u	a5, a2, a5
    be7f:	2c2742        	l32i	a4, a7, 176
    be82:	882682        	l32i	a8, a6, 0x220
    be85:	445a      	add.n	a4, a4, a5
    be87:	0008e0        	excw
    be8a:	8a0b      	addi.n	a8, a10, -1
    be8c:	13d816        	beqz	a8, 0xbfcd
    be8f:	b97791        	l32r	a9, 0xffffa46c
    be92:	959a      	add.n	a9, a5, a9
    be94:	800992        	l8ui	a9, a9, 128
    be97:	450c      	movi.n	a5, 4
    be99:	451926        	beqi	a9, 1, 0xbee2
    be9c:	0404a2        	l8ui	a10, a4, 4
    be9f:	1807b2        	l8ui	a11, a7, 24
    bea2:	3cea27        	bbsi	a10, 2, 0xbee2
    bea5:	396b07        	bbci	a11, 0, 0xbee2
    bea8:	01ad      	mov.n	a10, a1
    beaa:	0a03b2        	l8ui	a11, a3, 10
    bead:	8c0c      	movi.n	a12, 8
    beaf:	bb3a      	add.n	a11, a11, a3
    beb1:	bbdb      	addi.n	a11, a11, 13
    beb3:	017a65        	excw
    beb6:	a18b      	addi.n	a10, a1, 8
    beb8:	0a03b2        	l8ui	a11, a3, 10
    bebb:	2c0c      	movi.n	a12, 2
    bebd:	bb3a      	add.n	a11, a11, a3
    bebf:	15cbb2        	addi	a11, a11, 21
    bec2:	017965        	excw
    bec5:	02ad      	mov.n	a10, a2
    bec7:	01bd      	mov.n	a11, a1
    bec9:	652682        	l32i	a8, a6, 0x194
    becc:	c18b      	addi.n	a12, a1, 8
    bece:	0008e0        	excw
    bed1:	b90c      	movi.n	a9, 11
    bed3:	179a97        	bne	a10, a9, 0xbeee
    bed6:	02ad      	mov.n	a10, a2
    bed8:	472682        	l32i	a8, a6, 0x11c
    bedb:	6b0c      	movi.n	a11, 6
    bedd:	0008e0        	excw
    bee0:	f01d      	excw
    bee2:	02ad      	mov.n	a10, a2
    bee4:	472682        	l32i	a8, a6, 0x11c
    bee7:	6b0c      	movi.n	a11, 6
    bee9:	0008e0        	excw
    beec:	f01d      	excw
    beee:	fcca92        	addi	a9, a10, -4
    bef1:	0d8916        	beqz	a9, 0xbfcd
    bef4:	6a8c      	beqz.n	a10, 0xbefe
    bef6:	baaaa1        	l32r	a10, 0xffffa9a0
    bef9:	0b0c      	movi.n	a11, 0
    befb:	a815a5        	excw
    befe:	b90781        	l32r	a8, 0xffffa31c
    bf01:	da0c      	movi.n	a10, 13
    bf03:	7888      	l32i.n	a8, a8, 28
    bf05:	1b1c      	movi.n	a11, 17
    bf07:	0008e0        	excw
    bf0a:	0a7d      	mov.n	a7, a10
    bf0c:	0bda16        	beqz	a10, 0xbfcd
    bf0f:	b9bd81        	l32r	a8, 0xffffa604
    bf12:	0404a2        	l8ui	a10, a4, 4
    bf15:	090c      	movi.n	a9, 0
    bf17:	5499      	s32i.n	a9, a4, 20
    bf19:	6499      	s32i.n	a9, a4, 24
    bf1b:	20aa50        	or	a10, a10, a5
    bf1e:	0444a2        	s8i	a10, a4, 4
    bf21:	3888      	l32i.n	a8, a8, 12
    bf23:	7499      	s32i.n	a9, a4, 28
    bf25:	0008e0        	excw
    bf28:	b9bd81        	l32r	a8, 0xffffa61c
    bf2b:	3888      	l32i.n	a8, a8, 12
    bf2d:	41a9      	s32i.n	a10, a1, 16
    bf2f:	0008e0        	excw
    bf32:	b9bd81        	l32r	a8, 0xffffa628
    bf35:	3888      	l32i.n	a8, a8, 12
    bf37:	51a9      	s32i.n	a10, a1, 20
    bf39:	0008e0        	excw
    bf3c:	8c0c      	movi.n	a12, 8
    bf3e:	cea0d2        	movi	a13, 206
    bf41:	61a9      	s32i.n	a10, a1, 24
    bf43:	0a03b2        	l8ui	a11, a3, 10
    bf46:	a4da      	add.n	a10, a4, a13
    bf48:	bb3a      	add.n	a11, a11, a3
    bf4a:	17cbb2        	addi	a11, a11, 23
    bf4d:	0170a5        	excw
    bf50:	10c1b2        	addi	a11, a1, 16
    bf53:	8c0c      	movi.n	a12, 8
    bf55:	d6a0a2        	movi	a10, 214
    bf58:	a4aa      	add.n	a10, a4, a10
    bf5a:	016fe5        	excw
    bf5d:	4c0c      	movi.n	a12, 4
    bf5f:	0a03b2        	l8ui	a11, a3, 10
    bf62:	c6a0a2        	movi	a10, 198
    bf65:	a4aa      	add.n	a10, a4, a10
    bf67:	71a9      	s32i.n	a10, a1, 28
    bf69:	bb3a      	add.n	a11, a11, a3
    bf6b:	1fcbb2        	addi	a11, a11, 31
    bf6e:	016ea5        	excw
    bf71:	7138      	l32i.n	a3, a1, 28
    bf73:	18c1b2        	addi	a11, a1, 24
    bf76:	4c0c      	movi.n	a12, 4
    bf78:	caa0a2        	movi	a10, 202
    bf7b:	a4aa      	add.n	a10, a4, a10
    bf7d:	016da5        	excw
    bf80:	03ad      	mov.n	a10, a3
    bf82:	03bd      	mov.n	a11, a3
    bf84:	8c0c      	movi.n	a12, 8
    bf86:	ff2d25        	excw
    bf89:	10c1b2        	addi	a11, a1, 16
    bf8c:	0a07d2        	l8ui	a13, a7, 10
    bf8f:	0e3c      	movi.n	a14, 48
    bf91:	dd7a      	add.n	a13, a13, a7
    bf93:	0d0dc2        	l8ui	a12, a13, 13
    bf96:	cfa0f2        	movi	a15, 207
    bf99:	10ccf0        	and	a12, a12, a15
    bf9c:	20cce0        	or	a12, a12, a14
    bf9f:	0d4dc2        	s8i	a12, a13, 13
    bfa2:	0a07a2        	l8ui	a10, a7, 10
    bfa5:	8c0c      	movi.n	a12, 8
    bfa7:	aa7a      	add.n	a10, a10, a7
    bfa9:	104a52        	s8i	a5, a10, 16
    bfac:	10ca32        	addi	a3, a10, 16
    bfaf:	11caa2        	addi	a10, a10, 17
    bfb2:	016a65        	excw
    bfb5:	a39b      	addi.n	a10, a3, 9
    bfb7:	18c1b2        	addi	a11, a1, 24
    bfba:	4c0c      	movi.n	a12, 4
    bfbc:	0169a5        	excw
    bfbf:	02ad      	mov.n	a10, a2
    bfc1:	07bd      	mov.n	a11, a7
    bfc3:	4d2682        	l32i	a8, a6, 0x134
    bfc6:	0c0c      	movi.n	a12, 0
    bfc8:	0008e0        	excw
    bfcb:	f01d      	excw
    bfcd:	f01d      	excw
    bfcf:	413600        	srli	a3, a0, 6
    bfd2:	5a0c00        	excw
    bfd5:	b98451        	l32r	a5, 0xffffa5e8
    bfd8:	b98231        	l32r	a3, 0xffffa5e0
    bfdb:	98a162        	movi	a6, 0x198
    bfde:	c16260        	mul16u	a6, a2, a6
    bfe1:	2c2332        	l32i	a3, a3, 176
    bfe4:	882582        	l32i	a8, a5, 0x220
    bfe7:	336a      	add.n	a3, a3, a6
    bfe9:	03bd      	mov.n	a11, a3
    bfeb:	0008e0        	excw
    bfee:	8a0b      	addi.n	a8, a10, -1
    bff0:	08d816        	beqz	a8, 0xc081
    bff3:	040392        	l8ui	a9, a3, 4
    bff6:	0c6927        	bbci	a9, 2, 0xc006
    bff9:	155466        	bnei	a4, 5, 0xc012
    bffc:	b977a1        	l32r	a10, 0xffffa5d8
    bfff:	a6aa      	add.n	a10, a6, a10
    c001:	800aa2        	l8ui	a10, a10, 128
    c004:	aacc      	bnez.n	a10, 0xc012
    c006:	02ad      	mov.n	a10, a2
    c008:	472582        	l32i	a8, a5, 0x11c
    c00b:	6b0c      	movi.n	a11, 6
    c00d:	0008e0        	excw
    c010:	f01d      	excw
    c012:	030392        	l8ui	a9, a3, 3
    c015:	021966        	bnei	a9, 1, 0xc01b
    c018:	085426        	beqi	a4, 5, 0xc024
    c01b:	04c956        	bnez	a9, 0xc06b
    c01e:	fac492        	addi	a9, a4, -6
    c021:	09e956        	bnez	a9, 0xc0c3
    c024:	b90781        	l32r	a8, 0xffffa440
    c027:	da0c      	movi.n	a10, 13
    c029:	7888      	l32i.n	a8, a8, 28
    c02b:	5b0c      	movi.n	a11, 5
    c02d:	0008e0        	excw
    c030:	0abd      	mov.n	a11, a10
    c032:	04ba16        	beqz	a10, 0xc081
    c035:	02ad      	mov.n	a10, a2
    c037:	0a0b82        	l8ui	a8, a11, 10
    c03a:	093c      	movi.n	a9, 48
    c03c:	88ba      	add.n	a8, a8, a11
    c03e:	0d08f2        	l8ui	a15, a8, 13
    c041:	cfa0c2        	movi	a12, 207
    c044:	10ffc0        	and	a15, a15, a12
    c047:	20ff90        	or	a15, a15, a9
    c04a:	0d48f2        	s8i	a15, a8, 13
    c04d:	0a0be2        	l8ui	a14, a11, 10
    c050:	6d0c      	movi.n	a13, 6
    c052:	eeba      	add.n	a14, a14, a11
    c054:	104ed2        	s8i	a13, a14, 16
    c057:	040392        	l8ui	a9, a3, 4
    c05a:	3c0c      	movi.n	a12, 3
    c05c:	2099c0        	or	a9, a9, a12
    c05f:	044392        	s8i	a9, a3, 4
    c062:	4d2582        	l32i	a8, a5, 0x134
    c065:	baacc1        	l32r	a12, 0xffffab18
    c068:	0008e0        	excw
    c06b:	126466        	bnei	a4, 6, 0xc081
    c06e:	040392        	l8ui	a9, a3, 4
    c071:	0e6947        	bbci	a9, 4, 0xc083
    c074:	02ad      	mov.n	a10, a2
    c076:	742582        	l32i	a8, a5, 0x1d0
    c079:	0b0c      	movi.n	a11, 0
    c07b:	0008e0        	excw
    c07e:	000346        	j	0xc08f
    c081:	f01d      	excw
    c083:	02ad      	mov.n	a10, a2
    c085:	0b0c      	movi.n	a11, 0
    c087:	732582        	l32i	a8, a5, 0x1cc
    c08a:	1c0c      	movi.n	a12, 1
    c08c:	0008e0        	excw
    c08f:	02ad      	mov.n	a10, a2
    c091:	3b0c      	movi.n	a11, 3
    c093:	bab1d1        	l32r	a13, 0xffffab58
    c096:	0313c2        	l16ui	a12, a3, 6
    c099:	040392        	l8ui	a9, a3, 4
    c09c:	eba0e2        	movi	a14, 235
    c09f:	1099e0        	and	a9, a9, a14
    c0a2:	044392        	s8i	a9, a3, 4
    c0a5:	10ccd0        	and	a12, a12, a13
    c0a8:	0353c2        	s16i	a12, a3, 6
    c0ab:	ff4ea5        	excw
    c0ae:	0403f2        	l8ui	a15, a3, 4
    c0b1:	073f26        	beqi	a15, 3, 0xc0bc
    c0b4:	baaaa1        	l32r	a10, 0xffffab5c
    c0b7:	0b0c      	movi.n	a11, 0
    c0b9:	a7f9a5        	excw
    c0bc:	1588      	l32i.n	a8, a5, 4
    c0be:	02ad      	mov.n	a10, a2
    c0c0:	0008e0        	excw
    c0c3:	f01d      	excw
    c0c5:	000000        	ill
    c0c8:	004136        	excw
    c0cb:	fda072        	movi	a7, 253
    c0ce:	b98251        	l32r	a5, 0xffffa6d8
    c0d1:	98a142        	movi	a4, 0x198
    c0d4:	c14240        	mul16u	a4, a2, a4
    c0d7:	2c2552        	l32i	a5, a5, 176
    c0da:	b97761        	l32r	a6, 0xffffa6b8
    c0dd:	554a      	add.n	a5, a5, a4
    c0df:	446a      	add.n	a4, a4, a6
    c0e1:	800492        	l8ui	a9, a4, 128
    c0e4:	b60c      	movi.n	a6, 11
    c0e6:	19cc      	bnez.n	a9, 0xc0eb
    c0e8:	079326        	beqi	a3, 10, 0xc0f3
    c0eb:	641966        	bnei	a9, 1, 0xc153
    c0ee:	011367        	beq	a3, a6, 0xc0f3
    c0f1:	f01d      	excw
    c0f3:	b90781        	l32r	a8, 0xffffa510
    c0f6:	da0c      	movi.n	a10, 13
    c0f8:	7888      	l32i.n	a8, a8, 28
    c0fa:	5b0c      	movi.n	a11, 5
    c0fc:	0008e0        	excw
    c0ff:	0abd      	mov.n	a11, a10
    c101:	feca16        	beqz	a10, 0xc0f1
    c104:	0405f2        	l8ui	a15, a5, 4
    c107:	081c      	movi.n	a8, 16
    c109:	20ff80        	or	a15, a15, a8
    c10c:	0445f2        	s8i	a15, a5, 4
    c10f:	0a0ae2        	l8ui	a14, a10, 10
    c112:	cfa082        	movi	a8, 207
    c115:	eeaa      	add.n	a14, a14, a10
    c117:	0d0ed2        	l8ui	a13, a14, 13
    c11a:	0f3c      	movi.n	a15, 48
    c11c:	10dd80        	and	a13, a13, a8
    c11f:	20ddf0        	or	a13, a13, a15
    c122:	0d4ed2        	s8i	a13, a14, 13
    c125:	0a0ac2        	l8ui	a12, a10, 10
    c128:	ccaa      	add.n	a12, a12, a10
    c12a:	104c62        	s8i	a6, a12, 16
    c12d:	040592        	l8ui	a9, a5, 4
    c130:	fea0a2        	movi	a10, 254
    c133:	1099a0        	and	a9, a9, a10
    c136:	044592        	s8i	a9, a5, 4
    c139:	8004a2        	l8ui	a10, a4, 128
    c13c:	051a66        	bnei	a10, 1, 0xc145
    c13f:	10a970        	and	a10, a9, a7
    c142:	0445a2        	s8i	a10, a5, 4
    c145:	b98481        	l32r	a8, 0xffffa758
    c148:	02ad      	mov.n	a10, a2
    c14a:	4d2882        	l32i	a8, a8, 0x134
    c14d:	baacc1        	l32r	a12, 0xffffac00
    c150:	0008e0        	excw
    c153:	9a9367        	bne	a3, a6, 0xc0f1
    c156:	040592        	l8ui	a9, a5, 4
    c159:	109970        	and	a9, a9, a7
    c15c:	044592        	s8i	a9, a5, 4
    c15f:	07b926        	beqi	a9, 16, 0xc16a
    c162:	baaaa1        	l32r	a10, 0xffffac0c
    c165:	0b0c      	movi.n	a11, 0
    c167:	a7eee5        	excw
    c16a:	8004a2        	l8ui	a10, a4, 128
    c16d:	801a66        	bnei	a10, 1, 0xc0f1
    c170:	02ad      	mov.n	a10, a2
    c172:	ff5ce5        	excw
    c175:	bfcab2        	addi	a11, a10, -65
    c178:	f75b16        	beqz	a11, 0xc0f1
    c17b:	f72a16        	beqz	a10, 0xc0f1
    c17e:	baaaa1        	l32r	a10, 0xffffac28
    c181:	0b0c      	movi.n	a11, 0
    c183:	a7ed25        	excw
    c186:	f01d      	excw
    c188:	006136        	excw
    c18b:	74a030        	extui	a10, a3, 0, 8
    c18e:	0441a2        	s8i	a10, a1, 4
    c191:	066a26        	beqi	a10, 6, 0xc19b
    c194:	a91c      	movi.n	a9, 26
    c196:	011a97        	beq	a10, a9, 0xc19b
    c199:	f01d      	excw
    c19b:	98a132        	movi	a3, 0x198
    c19e:	b98241        	l32r	a4, 0xffffa7a8
    c1a1:	c13230        	mul16u	a3, a2, a3
    c1a4:	2c24c2        	l32i	a12, a4, 176
    c1a7:	cc3a      	add.n	a12, a12, a3
    c1a9:	040ca2        	l8ui	a10, a12, 4
    c1ac:	4b1c      	movi.n	a11, 20
    c1ae:	e70ba7        	bnone	a11, a10, 0xc199
    c1b1:	186a47        	bbci	a10, 4, 0xc1cd
    c1b4:	02ad      	mov.n	a10, a2
    c1b6:	c14b      	addi.n	a12, a1, 4
    c1b8:	6b0c      	movi.n	a11, 6
    c1ba:	ff4365        	excw
    c1bd:	fd8a56        	bnez	a10, 0xc199
    c1c0:	2c24e2        	l32i	a14, a4, 176
    c1c3:	0401d2        	l8ui	a13, a1, 4
    c1c6:	ee3a      	add.n	a14, a14, a3
    c1c8:	a94ed2        	s8i	a13, a14, 169
    c1cb:	f01d      	excw
    c1cd:	3b0c      	movi.n	a11, 3
    c1cf:	0f0c      	movi.n	a15, 0
    c1d1:	bab1a1        	l32r	a10, 0xffffac98
    c1d4:	2c2482        	l32i	a8, a4, 176
    c1d7:	031c92        	l16ui	a9, a12, 6
    c1da:	883a      	add.n	a8, a8, a3
    c1dc:	1099a0        	and	a9, a9, a10
    c1df:	02ad      	mov.n	a10, a2
    c1e1:	035c92        	s16i	a9, a12, 6
    c1e4:	0448f2        	s8i	a15, a8, 4
    c1e7:	ff3ae5        	excw
    c1ea:	b98431        	l32r	a3, 0xffffa7fc
    c1ed:	1388      	l32i.n	a8, a3, 4
    c1ef:	02ad      	mov.n	a10, a2
    c1f1:	0008e0        	excw
    c1f4:	02ad      	mov.n	a10, a2
    c1f6:	0401b2        	l8ui	a11, a1, 4
    c1f9:	732382        	l32i	a8, a3, 0x1cc
    c1fc:	0c0c      	movi.n	a12, 0
    c1fe:	0008e0        	excw
    c201:	f01d      	excw
    c203:	413600        	srli	a3, a0, 6
    c206:	846100        	extui	a6, a0, 1, 9
    c209:	0cb9      	s32i.n	a11, a12, 0
    c20b:	510b      	addi.n	a5, a1, -1
    c20d:	71b907        	bgeu	a9, a0, 0xc282
    c210:	b90b      	addi.n	a11, a9, -1
    c212:	b98241        	l32r	a4, 0xffffa81c
    c215:	d3bc      	beqz.n	a3, 0xc256
    c217:	830b      	addi.n	a8, a3, -1
    c219:	099816        	beqz	a8, 0xc2b6
    c21c:	fec392        	addi	a9, a3, -2
    c21f:	091916        	beqz	a9, 0xc2b4
    c222:	0573e6        	bgei	a3, 7, 0xc22b
    c225:	0233a6        	blti	a3, 3, 0xc22b
    c228:	003846        	j	0xc30d
    c22b:	027366        	bnei	a3, 7, 0xc231
    c22e:	002086        	j	0xc2b4
    c231:	f8c3a2        	addi	a10, a3, -8
    c234:	0e1a16        	beqz	a10, 0xc319
    c237:	9b0c      	movi.n	a11, 9
    c239:	7713b7        	beq	a3, a11, 0xc2b4
    c23c:	05a3e6        	bgei	a3, 12, 0xc245
    c23f:	0293a6        	blti	a3, 10, 0xc245
    c242:	0031c6        	j	0xc30d
    c245:	6ba366        	bnei	a3, 12, 0xc2b4
    c248:	20a220        	or	a10, a2, a2
    c24b:	00a0b2        	movi	a11, 0
    c24e:	1aa0c2        	movi	a12, 26
    c251:	000fa5        	excw
    c254:	f01d      	excw
    c256:	2c2492        	l32i	a9, a4, 176
    c259:	98a132        	movi	a3, 0x198
    c25c:	c13230        	mul16u	a3, a2, a3
    c25f:	2c24a2        	l32i	a10, a4, 176
    c262:	993a      	add.n	a9, a9, a3
    c264:	5319c2        	l16ui	a12, a9, 166
    c267:	aa3a      	add.n	a10, a10, a3
    c269:	047c16        	beqz	a12, 0xc2b4
    c26c:	282aa2        	l32i	a10, a10, 160
    c26f:	5359b2        	s16i	a11, a9, 166
    c272:	4abc      	beqz.n	a10, 0xc2aa
    c274:	8588      	l32i.n	a8, a5, 32
    c276:	0008e0        	excw
    c279:	ea0c      	movi.n	a10, 14
    c27b:	c1a2b2        	movi	a11, 0x2c1
    c27e:	cc0c      	movi.n	a12, 12
    c280:	090c      	movi.n	a9, 0
    c282:	2c24d2        	l32i	a13, a4, 176
    c285:	b91181        	l32r	a8, 0xffffa6cc
    c288:	dd3a      	add.n	a13, a13, a3
    c28a:	6888      	l32i.n	a8, a8, 24
    c28c:	286d92        	s32i	a9, a13, 160
    c28f:	0008e0        	excw
    c292:	0a3d      	mov.n	a3, a10
    c294:	5acc      	bnez.n	a10, 0xc29d
    c296:	0a0c      	movi.n	a10, 0
    c298:	1b0c      	movi.n	a11, 1
    c29a:	a7dba5        	excw
    c29d:	03bd      	mov.n	a11, a3
    c29f:	104322        	s8i	a2, a3, 16
    c2a2:	142582        	l32i	a8, a5, 80
    c2a5:	07a8      	l32i.n	a10, a7, 0
    c2a7:	0008e0        	excw
    c2aa:	02ad      	mov.n	a10, a2
    c2ac:	6b2682        	l32i	a8, a6, 0x1ac
    c2af:	ab1c      	movi.n	a11, 26
    c2b1:	0008e0        	excw
    c2b4:	f01d      	excw
    c2b6:	2c2492        	l32i	a9, a4, 176
    c2b9:	98a132        	movi	a3, 0x198
    c2bc:	c13230        	mul16u	a3, a2, a3
    c2bf:	993a      	add.n	a9, a9, a3
    c2c1:	5219a2        	l16ui	a10, a9, 164
    c2c4:	feca16        	beqz	a10, 0xc2b4
    c2c7:	2c24a2        	l32i	a10, a4, 176
    c2ca:	aa3a      	add.n	a10, a10, a3
    c2cc:	272aa2        	l32i	a10, a10, 156
    c2cf:	5259b2        	s16i	a11, a9, 164
    c2d2:	fdea16        	beqz	a10, 0xc2b4
    c2d5:	8588      	l32i.n	a8, a5, 32
    c2d7:	0008e0        	excw
    c2da:	ea0c      	movi.n	a10, 14
    c2dc:	c2a2b2        	movi	a11, 0x2c2
    c2df:	cc0c      	movi.n	a12, 12
    c2e1:	090c      	movi.n	a9, 0
    c2e3:	2c24d2        	l32i	a13, a4, 176
    c2e6:	b91181        	l32r	a8, 0xffffa72c
    c2e9:	dd3a      	add.n	a13, a13, a3
    c2eb:	6888      	l32i.n	a8, a8, 24
    c2ed:	276d92        	s32i	a9, a13, 156
    c2f0:	0008e0        	excw
    c2f3:	0a3d      	mov.n	a3, a10
    c2f5:	5acc      	bnez.n	a10, 0xc2fe
    c2f7:	0a0c      	movi.n	a10, 0
    c2f9:	1b0c      	movi.n	a11, 1
    c2fb:	a7d5a5        	excw
    c2fe:	03bd      	mov.n	a11, a3
    c300:	104322        	s8i	a2, a3, 16
    c303:	142582        	l32i	a8, a5, 80
    c306:	07a8      	l32i.n	a10, a7, 0
    c308:	0008e0        	excw
    c30b:	f01d      	excw
    c30d:	02ad      	mov.n	a10, a2
    c30f:	6c2682        	l32i	a8, a6, 0x1b0
    c312:	6b0c      	movi.n	a11, 6
    c314:	0008e0        	excw
    c317:	f01d      	excw
    c319:	02ad      	mov.n	a10, a2
    c31b:	0b0c      	movi.n	a11, 0
    c31d:	ac1c      	movi.n	a12, 26
    c31f:	ff36a5        	excw
    c322:	f01d      	excw
    c324:	004136        	excw
    c327:	02ad      	mov.n	a10, a2
    c329:	b98481        	l32r	a8, 0xffffa93c
    c32c:	98a1c2        	movi	a12, 0x198
    c32f:	b982b1        	l32r	a11, 0xffffa938
    c332:	c1c2c0        	mul16u	a12, a2, a12
    c335:	2c2bb2        	l32i	a11, a11, 176
    c338:	000392        	l8ui	a9, a3, 0
    c33b:	bbca      	add.n	a11, a11, a12
    c33d:	b24b92        	s8i	a9, a11, 178
    c340:	512882        	l32i	a8, a8, 0x144
    c343:	0b0c      	movi.n	a11, 0
    c345:	0008e0        	excw
    c348:	f01d      	excw
    c34a:	360000        	excw
    c34d:	fc0041        	l32r	a4, 0xb350 (0x1cc2231c)
    c350:	82a114        	excw
    c353:	c2b9      	s32i.n	a11, a2, 48
    c355:	c098a1        	l32r	a10, 0xffffc5b8
    c358:	a2c1c2        	addi	a12, a1, -94
    c35b:	2c2a      	add.n	a2, a12, a2
    c35d:	03bd      	mov.n	a11, a3
    c35f:	aaca      	add.n	a10, a10, a12
    c361:	ada0c2        	movi	a12, 173
    c364:	aaca      	add.n	a10, a10, a12
    c366:	5c0c      	movi.n	a12, 5
    c368:	012ee5        	excw
    c36b:	baabd1        	l32r	a13, 0xffffae18
    c36e:	4e4c      	movi.n	a14, 68
    c370:	c1e2e0        	mul16u	a14, a2, a14
    c373:	ddea      	add.n	a13, a13, a14
    c375:	040dd2        	l8ui	a13, a13, 4
    c378:	085d26        	beqi	a13, 5, 0xc384
    c37b:	02ad      	mov.n	a10, a2
    c37d:	0b0c      	movi.n	a11, 0
    c37f:	ff34e5        	excw
    c382:	f01d      	excw
    c384:	04bd      	mov.n	a11, a4
    c386:	b98481        	l32r	a8, 0xffffa998
    c389:	02ad      	mov.n	a10, a2
    c38b:	702882        	l32i	a8, a8, 0x1c0
    c38e:	1c0c      	movi.n	a12, 1
    c390:	0008e0        	excw
    c393:	02ad      	mov.n	a10, a2
    c395:	5b0c      	movi.n	a11, 5
    c397:	ff1fe5        	excw
    c39a:	f01d      	excw
    c39c:	004136        	excw
    c39f:	98a152        	movi	a5, 0x198
    c3a2:	b98241        	l32r	a4, 0xffffa9ac
    c3a5:	c15250        	mul16u	a5, a2, a5
    c3a8:	2c2442        	l32i	a4, a4, 176
    c3ab:	445a      	add.n	a4, a4, a5
    c3ad:	040442        	l8ui	a4, a4, 4
    c3b0:	120c      	movi.n	a2, 1
    c3b2:	176427        	bbci	a4, 2, 0xc3cd
    c3b5:	143326        	beqi	a3, 3, 0xc3cd
    c3b8:	114326        	beqi	a3, 4, 0xc3cd
    c3bb:	0e5326        	beqi	a3, 5, 0xc3cd
    c3be:	0b6326        	beqi	a3, 6, 0xc3cd
    c3c1:	082326        	beqi	a3, 2, 0xc3cd
    c3c4:	d80c      	movi.n	a8, 13
    c3c6:	031387        	beq	a3, a8, 0xc3cd
    c3c9:	020c      	movi.n	a2, 0
    c3cb:	f01d      	excw
    c3cd:	f01d      	excw
    c3cf:	613600        	excw
    c3d2:	03bd00        	excw
    c3d5:	baaf81        	l32r	a8, 0xffffae94
    c3d8:	02ad      	mov.n	a10, a2
    c3da:	2888      	l32i.n	a8, a8, 8
    c3dc:	0129      	s32i.n	a2, a1, 0
    c3de:	0008e0        	excw
    c3e1:	b98481        	l32r	a8, 0xffffa9f4
    c3e4:	01bd      	mov.n	a11, a1
    c3e6:	882882        	l32i	a8, a8, 0x220
    c3e9:	aa0c      	movi.n	a10, 10
    c3eb:	0008e0        	excw
    c3ee:	f01d      	excw
    c3f0:	006136        	excw
    c3f3:	090c      	movi.n	a9, 0
    c3f5:	b98241        	l32r	a4, 0xffffaa00
    c3f8:	98a172        	movi	a7, 0x198
    c3fb:	c17270        	mul16u	a7, a2, a7
    c3fe:	2c2442        	l32i	a4, a4, 176
    c401:	bab251        	l32r	a5, 0xffffaecc
    c404:	447a      	add.n	a4, a4, a7
    c406:	0020c0        	memw
    c409:	896592        	s32i	a9, a5, 0x224
    c40c:	0020c0        	memw
    c40f:	8a6592        	s32i	a9, a5, 0x228
    c412:	0020c0        	memw
    c415:	8b6592        	s32i	a9, a5, 0x22c
    c418:	0020c0        	memw
    c41b:	b90781        	l32r	a8, 0xffffa838
    c41e:	916592        	s32i	a9, a5, 0x244
    c421:	d888      	l32i.n	a8, a8, 52
    c423:	4a0c      	movi.n	a10, 4
    c425:	0008e0        	excw
    c428:	ba4b      	addi.n	a11, a10, 4
    c42a:	b98481        	l32r	a8, 0xffffaa3c
    c42d:	74b0b0        	extui	a11, a11, 0, 8
    c430:	292882        	l32i	a8, a8, 164
    c433:	02ad      	mov.n	a10, a2
    c435:	0008e0        	excw
    c438:	b943f1        	l32r	a15, 0xffffa944
    c43b:	d4e8      	l32i.n	a14, a4, 52
    c43d:	10eef0        	and	a14, a14, a15
    c440:	0020c0        	memw
    c443:	8c65e2        	s32i	a14, a5, 0x230
    c446:	c4d8      	l32i.n	a13, a4, 48
    c448:	0020c0        	memw
    c44b:	2014c2        	l16ui	a12, a4, 64
    c44e:	8d65d2        	s32i	a13, a5, 0x234
    c451:	023c37        	bltu	a12, a3, 0xc457
    c454:	0723f6        	bgeui	a3, 2, 0xc45f
    c457:	baaaa1        	l32r	a10, 0xffffaf00
    c45a:	0b0c      	movi.n	a11, 0
    c45c:	a7bf65        	excw
    c45f:	2824b2        	l32i	a11, a4, 160
    c462:	fea082        	movi	a8, 254
    c465:	41a130        	srli	a10, a3, 1
    c468:	b96931        	l32r	a3, 0xffffaa0c
    c46b:	0b38a7        	bltu	a8, a10, 0xc47a
    c46e:	bab381        	l32r	a8, 0xffffaf3c
    c471:	116a00        	slli	a6, a10, 16
    c474:	106680        	and	a6, a6, a8
    c477:	000086        	j	0xc47d
    c47a:	bab361        	l32r	a6, 0xffffaf48
    c47d:	0a8b16        	beqz	a11, 0xc529
    c480:	0414c2        	l16ui	a12, a4, 8
    c483:	5314a2        	l16ui	a10, a4, 166
    c486:	b977e1        	l32r	a14, 0xffffaa64
    c489:	c0aac0        	sub	a10, a10, a12
    c48c:	f4a0a0        	extui	a10, a10, 0, 16
    c48f:	4a8c      	beqz.n	a10, 0xc497
    c491:	04dfa0        	extui	a13, a10, 15, 1
    c494:	091d16        	beqz	a13, 0xc529
    c497:	e7ea      	add.n	a14, a7, a14
    c499:	0a0bd2        	l8ui	a13, a11, 10
    c49c:	3478      	l32i.n	a7, a4, 12
    c49e:	800ee2        	l8ui	a14, a14, 128
    c4a1:	ddba      	add.n	a13, a13, a11
    c4a3:	140da2        	l8ui	a10, a13, 20
    c4a6:	100db2        	l8ui	a11, a13, 16
    c4a9:	110dc2        	l8ui	a12, a13, 17
    c4ac:	130df2        	l8ui	a15, a13, 19
    c4af:	11cc80        	slli	a12, a12, 8
    c4b2:	11ff80        	slli	a15, a15, 8
    c4b5:	bbca      	add.n	a11, a11, a12
    c4b7:	120dc2        	l8ui	a12, a13, 18
    c4ba:	11bbf0        	slli	a11, a11, 1
    c4bd:	f4b0b0        	extui	a11, a11, 0, 16
    c4c0:	ccfa      	add.n	a12, a12, a15
    c4c2:	f4c0c0        	extui	a12, a12, 0, 16
    c4c5:	150df2        	l8ui	a15, a13, 21
    c4c8:	ddcb      	addi.n	a13, a13, 12
    c4ca:	11ff80        	slli	a15, a15, 8
    c4cd:	aafa      	add.n	a10, a10, a15
    c4cf:	f4a0a0        	extui	a10, a10, 0, 16
    c4d2:	111e26        	beqi	a14, 1, 0xc4e7
    c4d5:	2414e2        	l16ui	a14, a4, 72
    c4d8:	0b9ea7        	bne	a14, a10, 0xc4e7
    c4db:	2014f2        	l16ui	a15, a4, 64
    c4de:	059fb7        	bne	a15, a11, 0xc4e7
    c4e1:	231482        	l16ui	a8, a4, 70
    c4e4:	0e18c7        	beq	a8, a12, 0xc4f6
    c4e7:	031492        	l16ui	a9, a4, 6
    c4ea:	00a2e2        	movi	a14, 0x200
    c4ed:	2099e0        	or	a9, a9, a14
    c4f0:	035492        	s16i	a9, a4, 6
    c4f3:	000086        	j	0xc4f9
    c4f6:	031492        	l16ui	a9, a4, 6
    c4f9:	010df2        	l8ui	a15, a13, 1
    c4fc:	2e0c      	movi.n	a14, 2
    c4fe:	20e9e0        	or	a14, a9, a14
    c501:	6c44f2        	s8i	a15, a4, 108
    c504:	030d82        	l8ui	a8, a13, 3
    c507:	020df2        	l8ui	a15, a13, 2
    c50a:	0354e2        	s16i	a14, a4, 6
    c50d:	2054b2        	s16i	a11, a4, 64
    c510:	2354c2        	s16i	a12, a4, 70
    c513:	2454a2        	s16i	a10, a4, 72
    c516:	118880        	slli	a8, a8, 8
    c519:	ff8a      	add.n	a15, a15, a8
    c51b:	f4f0f0        	extui	a15, a15, 0, 16
    c51e:	3554f2        	s16i	a15, a4, 106
    c521:	90ff70        	addx2	a15, a15, a7
    c524:	10ff30        	and	a15, a15, a3
    c527:	34f9      	s32i.n	a15, a4, 12
    c529:	0304f2        	l8ui	a15, a4, 3
    c52c:	570c      	movi.n	a7, 5
    c52e:	5ffc      	bnez.n	a15, 0xc567
    c530:	02ad      	mov.n	a10, a2
    c532:	fed865        	excw
    c535:	031492        	l16ui	a9, a4, 6
    c538:	44b8      	l32i.n	a11, a4, 16
    c53a:	049190        	extui	a9, a9, 1, 1
    c53d:	c0aab0        	sub	a10, a10, a11
    c540:	103a30        	and	a3, a10, a3
    c543:	1ac916        	beqz	a9, 0xc6f3
    c546:	6c04c2        	l8ui	a12, a4, 108
    c549:	8b2c      	movi.n	a11, 40
    c54b:	903c30        	addx2	a3, a12, a3
    c54e:	b94081        	l32r	a8, 0xffffaa50
    c551:	01b9      	s32i.n	a11, a1, 0
    c553:	a888      	l32i.n	a8, a8, 40
    c555:	1924a2        	l32i	a10, a4, 100
    c558:	0008e0        	excw
    c55b:	bab4f1        	l32r	a15, 0xffffb02c
    c55e:	138a56        	bnez	a10, 0xc69a
    c561:	071fe2        	l16ui	a14, a15, 14
    c564:	004f86        	j	0xc6a6
    c567:	090c      	movi.n	a9, 0
    c569:	0a0c      	movi.n	a10, 0
    c56b:	bab5b1        	l32r	a11, 0xffffb040
    c56e:	000bb2        	l8ui	a11, a11, 0
    c571:	20bba0        	or	a11, a11, a10
    c574:	0020c0        	memw
    c577:	8865b2        	s32i	a11, a5, 0x220
    c57a:	0020c0        	memw
    c57d:	2724d2        	l32i	a13, a4, 156
    c580:	896592        	s32i	a9, a5, 0x224
    c583:	049d16        	beqz	a13, 0xc5d0
    c586:	0414a2        	l16ui	a10, a4, 8
    c589:	521492        	l16ui	a9, a4, 164
    c58c:	c099a0        	sub	a9, a9, a10
    c58f:	f49090        	extui	a9, a9, 0, 16
    c592:	198c      	beqz.n	a9, 0xc597
    c594:	3869f7        	bbci	a9, 15, 0xc5d0
    c597:	6fc4a2        	addi	a10, a4, 111
    c59a:	0a0db2        	l8ui	a11, a13, 10
    c59d:	5c0c      	movi.n	a12, 5
    c59f:	bbda      	add.n	a11, a11, a13
    c5a1:	bbdb      	addi.n	a11, a11, 13
    c5a3:	010b65        	excw
    c5a6:	0a0c      	movi.n	a10, 0
    c5a8:	0b0c      	movi.n	a11, 0
    c5aa:	25a0c2        	movi	a12, 37
    c5ad:	1cac76        	excw
    c5b0:	41d3a0        	srli	a13, a10, 3
    c5b3:	d4da      	add.n	a13, a4, a13
    c5b5:	6f0dd2        	l8ui	a13, a13, 111
    c5b8:	24e0a0        	extui	a14, a10, 0, 3
    c5bb:	095de7        	bbc	a13, a14, 0xc5c8
    c5be:	c4ba      	add.n	a12, a4, a11
    c5c0:	744ca2        	s8i	a10, a12, 116
    c5c3:	bb1b      	addi.n	a11, a11, 1
    c5c5:	74b0b0        	extui	a11, a11, 0, 8
    c5c8:	aa1b      	addi.n	a10, a10, 1
    c5ca:	74a0a0        	extui	a10, a10, 0, 8
    c5cd:	a844b2        	s8i	a11, a4, 168
    c5d0:	6e04d2        	l8ui	a13, a4, 110
    c5d3:	41b3d0        	srli	a11, a13, 3
    c5d6:	b4ba      	add.n	a11, a4, a11
    c5d8:	6f0bb2        	l8ui	a11, a11, 111
    c5db:	24c0d0        	extui	a12, a13, 0, 3
    c5de:	0cdbc7        	bbs	a11, a12, 0xc5ee
    c5e1:	0dad      	mov.n	a10, a13
    c5e3:	a804b2        	l8ui	a11, a4, 168
    c5e6:	00faa5        	excw
    c5e9:	d4aa      	add.n	a13, a4, a10
    c5eb:	740dd2        	l8ui	a13, a13, 116
    c5ee:	b973b1        	l32r	a11, 0xffffabbc
    c5f1:	44e8      	l32i.n	a14, a4, 16
    c5f3:	bab7c1        	l32r	a12, 0xffffb0d0
    c5f6:	bab691        	l32r	a9, 0xffffb0d0
    c5f9:	1a0c      	movi.n	a10, 1
    c5fb:	0404f2        	l8ui	a15, a4, 4
    c5fe:	3488      	l32i.n	a8, a4, 12
    c600:	013df0        	slli	a3, a13, 17
    c603:	418180        	srli	a8, a8, 1
    c606:	04f0f0        	extui	a15, a15, 0, 1
    c609:	93faf0        	movnez	a15, a10, a15
    c60c:	1188c0        	slli	a8, a8, 4
    c60f:	108890        	and	a8, a8, a9
    c612:	20ff80        	or	a15, a15, a8
    c615:	880c      	movi.n	a8, 8
    c617:	20ff80        	or	a15, a15, a8
    c61a:	21f9      	s32i.n	a15, a1, 8
    c61c:	1033c0        	and	a3, a3, a12
    c61f:	41e1e0        	srli	a14, a14, 1
    c622:	10eeb0        	and	a14, a14, a11
    c625:	0020c0        	memw
    c628:	031492        	l16ui	a9, a4, 6
    c62b:	9b65e2        	s32i	a14, a5, 0x26c
    c62e:	0e6907        	bbci	a9, 0, 0xc640
    c631:	00a2e2        	movi	a14, 0x200
    c634:	bab8d1        	l32r	a13, 0xffffb114
    c637:	2033e0        	or	a3, a3, a14
    c63a:	10d9d0        	and	a13, a9, a13
    c63d:	0354d2        	s16i	a13, a4, 6
    c640:	02ad      	mov.n	a10, a2
    c642:	fec4a5        	excw
    c645:	0a9d      	mov.n	a9, a10
    c647:	0020c0        	memw
    c64a:	876562        	s32i	a6, a5, 0x21c
    c64d:	0020c0        	memw
    c650:	bab9b1        	l32r	a11, 0xffffb134
    c653:	21a8      	l32i.n	a10, a1, 8
    c655:	119960        	slli	a9, a9, 10
    c658:	8665a2        	s32i	a10, a5, 0x218
    c65b:	34a070        	extui	a10, a7, 0, 4
    c65e:	1099b0        	and	a9, a9, a11
    c661:	2099a0        	or	a9, a9, a10
    c664:	02ad      	mov.n	a10, a2
    c666:	209390        	or	a9, a3, a9
    c669:	0020c0        	memw
    c66c:	b98481        	l32r	a8, 0xffffac7c
    c66f:	842882        	l32i	a8, a8, 0x210
    c672:	856592        	s32i	a9, a5, 0x214
    c675:	0008e0        	excw
    c678:	b98481        	l32r	a8, 0xffffac88
    c67b:	7f2882        	l32i	a8, a8, 0x1fc
    c67e:	4a1c      	movi.n	a10, 20
    c680:	0008e0        	excw
    c683:	120c      	movi.n	a2, 1
    c685:	031492        	l16ui	a9, a4, 6
    c688:	0b2c      	movi.n	a11, 32
    c68a:	20b9b0        	or	a11, a9, a11
    c68d:	046947        	bbci	a9, 4, 0xc695
    c690:	8a0c      	movi.n	a10, 8
    c692:	0144a2        	s8i	a10, a4, 1
    c695:	0354b2        	s16i	a11, a4, 6
    c698:	f01d      	excw
    c69a:	babae1        	l32r	a14, 0xffffb184
    c69d:	d20ee2        	l8ui	a14, a14, 210
    c6a0:	90eef0        	addx2	a14, a14, a15
    c6a3:	001ee2        	l16ui	a14, a14, 0
    c6a6:	03ad      	mov.n	a10, a3
    c6a8:	c14b      	addi.n	a12, a1, 4
    c6aa:	01dd      	mov.n	a13, a1
    c6ac:	4a04b2        	l8ui	a11, a4, 74
    c6af:	b98481        	l32r	a8, 0xffffacc0
    c6b2:	90bbf0        	addx2	a11, a11, a15
    c6b5:	001bb2        	l16ui	a11, a11, 0
    c6b8:	402882        	l32i	a8, a8, 0x100
    c6bb:	bbea      	add.n	a11, a11, a14
    c6bd:	0008e0        	excw
    c6c0:	01a8      	l32i.n	a10, a1, 0
    c6c2:	11b8      	l32i.n	a11, a1, 4
    c6c4:	babbc1        	l32r	a12, 0xffffb1b0
    c6c7:	11bb60        	slli	a11, a11, 10
    c6ca:	10bbc0        	and	a11, a11, a12
    c6cd:	babcc1        	l32r	a12, 0xffffb1c0
    c6d0:	11aa10        	slli	a10, a10, 15
    c6d3:	10aac0        	and	a10, a10, a12
    c6d6:	0314c2        	l16ui	a12, a4, 6
    c6d9:	20aab0        	or	a10, a10, a11
    c6dc:	186c17        	bbci	a12, 1, 0xc6f8
    c6df:	6c0492        	l8ui	a9, a4, 108
    c6e2:	babd81        	l32r	a8, 0xffffb1d8
    c6e5:	b99671        	l32r	a7, 0xffffad40
    c6e8:	106680        	and	a6, a6, a8
    c6eb:	206670        	or	a6, a6, a7
    c6ee:	470c      	movi.n	a7, 4
    c6f0:	ff9dc6        	j	0xc56b
    c6f3:	8b0c      	movi.n	a11, 8
    c6f5:	ff9546        	j	0xc54e
    c6f8:	670c      	movi.n	a7, 6
    c6fa:	090c      	movi.n	a9, 0
    c6fc:	ff9ac6        	j	0xc56b
    c6ff:	613600        	excw
    c702:	03bd00        	excw
    c705:	b982c1        	l32r	a12, 0xffffad10
    c708:	98a182        	movi	a8, 0x198
    c70b:	c18280        	mul16u	a8, a2, a8
    c70e:	2c2c42        	l32i	a4, a12, 176
    c711:	bab291        	l32r	a9, 0xffffb1dc
    c714:	448a      	add.n	a4, a4, a8
    c716:	0020c0        	memw
    c719:	b973a1        	l32r	a10, 0xfffface8
    c71c:	9b2992        	l32i	a9, a9, 0x26c
    c71f:	4488      	l32i.n	a8, a4, 16
    c721:	1099a0        	and	a9, a9, a10
    c724:	1199f0        	slli	a9, a9, 1
    c727:	179897        	bne	a8, a9, 0xc742
    c72a:	1c98      	l32i.n	a9, a12, 4
    c72c:	7fafe2        	movi	a14, -129
    c72f:	0f6977        	bbci	a9, 7, 0xc742
    c732:	b910d1        	l32r	a13, 0xffffab74
    c735:	10e9e0        	and	a14, a9, a14
    c738:	7b1da2        	l16ui	a10, a13, 246
    c73b:	1ce9      	s32i.n	a14, a12, 4
    c73d:	aa1b      	addi.n	a10, a10, 1
    c73f:	7b5da2        	s16i	a10, a13, 246
    c742:	baaf81        	l32r	a8, 0xffffb200
    c745:	5888      	l32i.n	a8, a8, 20
    c747:	02ad      	mov.n	a10, a2
    c749:	0008e0        	excw
    c74c:	babe51        	l32r	a5, 0xffffb244
    c74f:	b91171        	l32r	a7, 0xffffab94
    c752:	b90731        	l32r	a3, 0xffffab70
    c755:	282492        	l32i	a9, a4, 160
    c758:	b90b61        	l32r	a6, 0xffffab84
    c75b:	046916        	beqz	a9, 0xc7a5
    c75e:	0414c2        	l16ui	a12, a4, 8
    c761:	5314b2        	l16ui	a11, a4, 166
    c764:	c0bbc0        	sub	a11, a11, a12
    c767:	f4b0b0        	extui	a11, a11, 0, 16
    c76a:	1b8c      	beqz.n	a11, 0xc76f
    c76c:	350bb6        	bltui	a11, 0x8000, 0xc7a5
    c76f:	ea0c      	movi.n	a10, 14
    c771:	c1a2b2        	movi	a11, 0x2c1
    c774:	6788      	l32i.n	a8, a7, 24
    c776:	cc0c      	movi.n	a12, 12
    c778:	0008e0        	excw
    c77b:	0abd      	mov.n	a11, a10
    c77d:	01a9      	s32i.n	a10, a1, 0
    c77f:	7acc      	bnez.n	a10, 0xc78a
    c781:	0a0c      	movi.n	a10, 0
    c783:	1b0c      	movi.n	a11, 1
    c785:	a78ce5        	excw
    c788:	01b8      	l32i.n	a11, a1, 0
    c78a:	104b22        	s8i	a2, a11, 16
    c78d:	142382        	l32i	a8, a3, 80
    c790:	06a8      	l32i.n	a10, a6, 0
    c792:	0008e0        	excw
    c795:	8388      	l32i.n	a8, a3, 32
    c797:	2824a2        	l32i	a10, a4, 160
    c79a:	0008e0        	excw
    c79d:	0a0c      	movi.n	a10, 0
    c79f:	2864a2        	s32i	a10, a4, 160
    c7a2:	5354a2        	s16i	a10, a4, 166
    c7a5:	272492        	l32i	a9, a4, 156
    c7a8:	5214b2        	l16ui	a11, a4, 164
    c7ab:	041916        	beqz	a9, 0xc7f0
    c7ae:	0414c2        	l16ui	a12, a4, 8
    c7b1:	c0bbc0        	sub	a11, a11, a12
    c7b4:	f4b0b0        	extui	a11, a11, 0, 16
    c7b7:	1b8c      	beqz.n	a11, 0xc7bc
    c7b9:	33b5b7        	bgeu	a5, a11, 0xc7f0
    c7bc:	ea0c      	movi.n	a10, 14
    c7be:	c2a2b2        	movi	a11, 0x2c2
    c7c1:	6788      	l32i.n	a8, a7, 24
    c7c3:	cc0c      	movi.n	a12, 12
    c7c5:	0008e0        	excw
    c7c8:	0a5d      	mov.n	a5, a10
    c7ca:	5acc      	bnez.n	a10, 0xc7d3
    c7cc:	0a0c      	movi.n	a10, 0
    c7ce:	1b0c      	movi.n	a11, 1
    c7d0:	a78825        	excw
    c7d3:	05bd      	mov.n	a11, a5
    c7d5:	104522        	s8i	a2, a5, 16
    c7d8:	142382        	l32i	a8, a3, 80
    c7db:	06a8      	l32i.n	a10, a6, 0
    c7dd:	0008e0        	excw
    c7e0:	8388      	l32i.n	a8, a3, 32
    c7e2:	2724a2        	l32i	a10, a4, 156
    c7e5:	0008e0        	excw
    c7e8:	090c      	movi.n	a9, 0
    c7ea:	276492        	s32i	a9, a4, 156
    c7ed:	525492        	s16i	a9, a4, 164
    c7f0:	f01d      	excw
    c7f2:	360000        	excw
    c7f5:	ad0041        	l32r	a4, 0xffff7bf8
    c7f8:	845102        	s16i	a0, a1, 0x108
    c7fb:	41b9      	s32i.n	a11, a1, 16
    c7fd:	72b982        	excw
    c800:	7098a1        	l32r	a10, 0xfffe8a60
    c803:	32c172        	addi	a7, a1, 50
    c806:	822c24        	excw
    c809:	7a3725        	excw
    c80c:	08e033        	excw
    c80f:	02ad00        	excw
    c812:	2c2582        	l32i	a8, a5, 176
    c815:	0b0c      	movi.n	a11, 0
    c817:	0008e0        	excw
    c81a:	2d2582        	l32i	a8, a5, 180
    c81d:	02ad      	mov.n	a10, a2
    c81f:	0008e0        	excw
    c822:	8398      	l32i.n	a9, a3, 32
    c824:	b90741        	l32r	a4, 0xffffac40
    c827:	b99c      	beqz.n	a9, 0xc846
    c829:	20c362        	addi	a6, a3, 32
    c82c:	152482        	l32i	a8, a4, 84
    c82f:	06ad      	mov.n	a10, a6
    c831:	0008e0        	excw
    c834:	8488      	l32i.n	a8, a4, 32
    c836:	0008e0        	excw
    c839:	aa03a2        	l8ui	a10, a3, 170
    c83c:	8398      	l32i.n	a9, a3, 32
    c83e:	aa0b      	addi.n	a10, a10, -1
    c840:	aa43a2        	s8i	a10, a3, 170
    c843:	fe5956        	bnez	a9, 0xc82c
    c846:	a3b8      	l32i.n	a11, a3, 40
    c848:	28c362        	addi	a6, a3, 40
    c84b:	eb9c      	beqz.n	a11, 0xc86d
    c84d:	152482        	l32i	a8, a4, 84
    c850:	06ad      	mov.n	a10, a6
    c852:	0008e0        	excw
    c855:	8488      	l32i.n	a8, a4, 32
    c857:	0008e0        	excw
    c85a:	aa0392        	l8ui	a9, a3, 170
    c85d:	a3a8      	l32i.n	a10, a3, 40
    c85f:	990b      	addi.n	a9, a9, -1
    c861:	749090        	extui	a9, a9, 0, 8
    c864:	aa4392        	s8i	a9, a3, 170
    c867:	fe2a56        	bnez	a10, 0xc84d
    c86a:	000086        	j	0xc870
    c86d:	aa0392        	l8ui	a9, a3, 170
    c870:	b98261        	l32r	a6, 0xffffae78
    c873:	698c      	beqz.n	a9, 0xc87d
    c875:	baaaa1        	l32r	a10, 0xffffb320
    c878:	0b0c      	movi.n	a11, 0
    c87a:	a77da5        	excw
    c87d:	4f2582        	l32i	a8, a5, 0x13c
    c880:	02ad      	mov.n	a10, a2
    c882:	0008e0        	excw
    c885:	2823a2        	l32i	a10, a3, 160
    c888:	3a8c      	beqz.n	a10, 0xc88f
    c88a:	8488      	l32i.n	a8, a4, 32
    c88c:	0008e0        	excw
    c88f:	2723a2        	l32i	a10, a3, 156
    c892:	3a8c      	beqz.n	a10, 0xc899
    c894:	8488      	l32i.n	a8, a4, 32
    c896:	0008e0        	excw
    c899:	02ad      	mov.n	a10, a2
    c89b:	1b0c      	movi.n	a11, 1
    c89d:	fec4a5        	excw
    c8a0:	ea8c      	beqz.n	a10, 0xc8b2
    c8a2:	02ad      	mov.n	a10, a2
    c8a4:	2c26b2        	l32i	a11, a6, 176
    c8a7:	6b2582        	l32i	a8, a5, 0x1ac
    c8aa:	bb7a      	add.n	a11, a11, a7
    c8ac:	a90bb2        	l8ui	a11, a11, 169
    c8af:	0008e0        	excw
    c8b2:	02ad      	mov.n	a10, a2
    c8b4:	3b0c      	movi.n	a11, 3
    c8b6:	fec325        	excw
    c8b9:	0a9c      	beqz.n	a10, 0xc8cd
    c8bb:	02ad      	mov.n	a10, a2
    c8bd:	0c0c      	movi.n	a12, 0
    c8bf:	2c26b2        	l32i	a11, a6, 176
    c8c2:	732582        	l32i	a8, a5, 0x1cc
    c8c5:	bb7a      	add.n	a11, a11, a7
    c8c7:	a90bb2        	l8ui	a11, a11, 169
    c8ca:	0008e0        	excw
    c8cd:	02ad      	mov.n	a10, a2
    c8cf:	4b0c      	movi.n	a11, 4
    c8d1:	fec165        	excw
    c8d4:	0a9c      	beqz.n	a10, 0xc8e8
    c8d6:	02ad      	mov.n	a10, a2
    c8d8:	0c0c      	movi.n	a12, 0
    c8da:	2c26b2        	l32i	a11, a6, 176
    c8dd:	502582        	l32i	a8, a5, 0x140
    c8e0:	bb7a      	add.n	a11, a11, a7
    c8e2:	a90bb2        	l8ui	a11, a11, 169
    c8e5:	0008e0        	excw
    c8e8:	02ad      	mov.n	a10, a2
    c8ea:	5b0c      	movi.n	a11, 5
    c8ec:	febfa5        	excw
    c8ef:	0a9c      	beqz.n	a10, 0xc903
    c8f1:	02ad      	mov.n	a10, a2
    c8f3:	1c0c      	movi.n	a12, 1
    c8f5:	2c26b2        	l32i	a11, a6, 176
    c8f8:	702582        	l32i	a8, a5, 0x1c0
    c8fb:	bb7a      	add.n	a11, a11, a7
    c8fd:	a90bb2        	l8ui	a11, a11, 169
    c900:	0008e0        	excw
    c903:	b91b81        	l32r	a8, 0xffffad70
    c906:	8f2882        	l32i	a8, a8, 0x23c
    c909:	02ad      	mov.n	a10, a2
    c90b:	0008e0        	excw
    c90e:	02ad      	mov.n	a10, a2
    c910:	0b0c      	movi.n	a11, 0
    c912:	2c26c2        	l32i	a12, a6, 176
    c915:	132582        	l32i	a8, a5, 76
    c918:	cc7a      	add.n	a12, a12, a7
    c91a:	a90cc2        	l8ui	a12, a12, 169
    c91d:	0008e0        	excw
    c920:	162582        	l32i	a8, a5, 88
    c923:	02ad      	mov.n	a10, a2
    c925:	0008e0        	excw
    c928:	f01d      	excw
    c92a:	360000        	excw
    c92d:	a20041        	l32r	a4, 0xffff5130
    c930:	310312        	l8ui	a1, a3, 49
    c933:	16b984        	excw
    c936:	09aa      	add.n	a0, a9, a10
    c938:	b98241        	l32r	a4, 0xffffaf40
    c93b:	085c      	movi.n	a8, 80
    c93d:	511a87        	beq	a10, a8, 0xc992
    c940:	b90751        	l32r	a5, 0xffffad5c
    c943:	bda292        	movi	a9, 0x2bd
    c946:	c09a90        	sub	a9, a10, a9
    c949:	1a3916        	beqz	a9, 0xcaf0
    c94c:	bea2b2        	movi	a11, 0x2be
    c94f:	c0bab0        	sub	a11, a10, a11
    c952:	089b16        	beqz	a11, 0xc9df
    c955:	bfa2c2        	movi	a12, 0x2bf
    c958:	c0cac0        	sub	a12, a10, a12
    c95b:	0a4c16        	beqz	a12, 0xca03
    c95e:	c0a2d2        	movi	a13, 0x2c0
    c961:	c0dad0        	sub	a13, a10, a13
    c964:	1a3d16        	beqz	a13, 0xcb0b
    c967:	b977b1        	l32r	a11, 0xffffaf44
    c96a:	c1a2e2        	movi	a14, 0x2c1
    c96d:	c0eae0        	sub	a14, a10, a14
    c970:	0f9e16        	beqz	a14, 0xca6d
    c973:	c2a2f2        	movi	a15, 0x2c2
    c976:	599af7        	bne	a10, a15, 0xc9d3
    c979:	1002a2        	l8ui	a10, a2, 16
    c97c:	98a182        	movi	a8, 0x198
    c97f:	c18a80        	mul16u	a8, a10, a8
    c982:	8b8a      	add.n	a8, a11, a8
    c984:	800882        	l8ui	a8, a8, 128
    c987:	481866        	bnei	a8, 1, 0xc9d3
    c98a:	2b0c      	movi.n	a11, 2
    c98c:	fec065        	excw
    c98f:	001006        	j	0xc9d3
    c992:	2c24a2        	l32i	a10, a4, 176
    c995:	3298      	l32i.n	a9, a2, 12
    c997:	98a162        	movi	a6, 0x198
    c99a:	745890        	extui	a5, a9, 8, 8
    c99d:	c16560        	mul16u	a6, a5, a6
    c9a0:	aa6a      	add.n	a10, a10, a6
    c9a2:	341aa2        	l16ui	a10, a10, 104
    c9a5:	748090        	extui	a8, a9, 0, 8
    c9a8:	7aac      	beqz.n	a10, 0xc9d3
    c9aa:	0f1826        	beqi	a8, 1, 0xc9bd
    c9ad:	baaaa1        	l32r	a10, 0xffffb458
    c9b0:	0b0c      	movi.n	a11, 0
    c9b2:	a76a25        	excw
    c9b5:	2c24a2        	l32i	a10, a4, 176
    c9b8:	aa6a      	add.n	a10, a10, a6
    c9ba:	341aa2        	l16ui	a10, a10, 104
    c9bd:	0812b2        	l16ui	a11, a2, 16
    c9c0:	071ba7        	beq	a11, a10, 0xc9cb
    c9c3:	baaaa1        	l32r	a10, 0xffffb46c
    c9c6:	0b0c      	movi.n	a11, 0
    c9c8:	a768a5        	excw
    c9cb:	4e2382        	l32i	a8, a3, 0x138
    c9ce:	05ad      	mov.n	a10, a5
    c9d0:	0008e0        	excw
    c9d3:	b91181        	l32r	a8, 0xffffae18
    c9d6:	5888      	l32i.n	a8, a8, 20
    c9d8:	02ad      	mov.n	a10, a2
    c9da:	0008e0        	excw
    c9dd:	f01d      	excw
    c9df:	2c24b2        	l32i	a11, a4, 176
    c9e2:	1002a2        	l8ui	a10, a2, 16
    c9e5:	98a1c2        	movi	a12, 0x198
    c9e8:	c1cac0        	mul16u	a12, a10, a12
    c9eb:	bbca      	add.n	a11, a11, a12
    c9ed:	010b92        	l8ui	a9, a11, 1
    c9f0:	d40482        	l8ui	a8, a4, 212
    c9f3:	f3c992        	addi	a9, a9, -13
    c9f6:	08e916        	beqz	a9, 0xca88
    c9f9:	8588      	l32i.n	a8, a5, 32
    c9fb:	32a8      	l32i.n	a10, a2, 12
    c9fd:	0008e0        	excw
    ca00:	fff3c6        	j	0xc9d3
    ca03:	140292        	l8ui	a9, a2, 20
    ca06:	0a3966        	bnei	a9, 3, 0xca14
    ca09:	432382        	l32i	a8, a3, 0x10c
    ca0c:	a2cb      	addi.n	a10, a2, 12
    ca0e:	0008e0        	excw
    ca11:	000e06        	j	0xca4d
    ca14:	69cc      	bnez.n	a9, 0xca1e
    ca16:	baaaa1        	l32r	a10, 0xffffb4c0
    ca19:	0b0c      	movi.n	a11, 0
    ca1b:	a763a5        	excw
    ca1e:	0104c2        	l8ui	a12, a4, 1
    ca21:	100232        	l8ui	a3, a2, 16
    ca24:	0733c7        	bltu	a3, a12, 0xca2f
    ca27:	000492        	l8ui	a9, a4, 0
    ca2a:	99ca      	add.n	a9, a9, a12
    ca2c:	0a2397        	blt	a3, a9, 0xca3a
    ca2f:	baaaa1        	l32r	a10, 0xffffb4d8
    ca32:	0b0c      	movi.n	a11, 0
    ca34:	a761e5        	excw
    ca37:	0104c2        	l8ui	a12, a4, 1
    ca3a:	32a8      	l32i.n	a10, a2, 12
    ca3c:	b91881        	l32r	a8, 0xffffae9c
    ca3f:	c0b3c0        	sub	a11, a3, a12
    ca42:	20cbb2        	addi	a11, a11, 32
    ca45:	5888      	l32i.n	a8, a8, 20
    ca47:	74b0b0        	extui	a11, a11, 0, 8
    ca4a:	0008e0        	excw
    ca4d:	2c24b2        	l32i	a11, a4, 176
    ca50:	1002c2        	l8ui	a12, a2, 16
    ca53:	98a1d2        	movi	a13, 0x198
    ca56:	c1ccd0        	mul16u	a12, a12, a13
    ca59:	bbca      	add.n	a11, a11, a12
    ca5b:	040bc2        	l8ui	a12, a11, 4
    ca5e:	04c1c0        	extui	a12, a12, 1, 1
    ca61:	f6ec16        	beqz	a12, 0xc9d3
    ca64:	7be8      	l32i.n	a14, a11, 28
    ca66:	ee1b      	addi.n	a14, a14, 1
    ca68:	7be9      	s32i.n	a14, a11, 28
    ca6a:	ffd946        	j	0xc9d3
    ca6d:	1002a2        	l8ui	a10, a2, 16
    ca70:	98a1f2        	movi	a15, 0x198
    ca73:	c1faf0        	mul16u	a15, a10, a15
    ca76:	fbfa      	add.n	a15, a11, a15
    ca78:	800ff2        	l8ui	a15, a15, 128
    ca7b:	ff0b      	addi.n	a15, a15, -1
    ca7d:	f52f56        	bnez	a15, 0xc9d3
    ca80:	1b0c      	movi.n	a11, 1
    ca82:	feb125        	excw
    ca85:	ffd286        	j	0xc9d3
    ca88:	ffa092        	movi	a9, 255
    ca8b:	111897        	beq	a8, a9, 0xcaa0
    ca8e:	8588      	l32i.n	a8, a5, 32
    ca90:	32a8      	l32i.n	a10, a2, 12
    ca92:	0008e0        	excw
    ca95:	6d1492        	l16ui	a9, a4, 218
    ca98:	991b      	addi.n	a9, a9, 1
    ca9a:	6d5492        	s16i	a9, a4, 218
    ca9d:	ffcc86        	j	0xc9d3
    caa0:	040bc2        	l8ui	a12, a11, 4
    caa3:	2f6c07        	bbci	a12, 0, 0xcad6
    caa6:	32b8      	l32i.n	a11, a2, 12
    caa8:	4b2382        	l32i	a8, a3, 0x12c
    caab:	1402c2        	l8ui	a12, a2, 20
    caae:	0008e0        	excw
    cab1:	1aec      	bnez.n	a10, 0xcad6
    cab3:	2c24b2        	l32i	a11, a4, 176
    cab6:	1002a2        	l8ui	a10, a2, 16
    cab9:	98a1c2        	movi	a12, 0x198
    cabc:	c1cac0        	mul16u	a12, a10, a12
    cabf:	d93c      	movi.n	a9, 61
    cac1:	bbca      	add.n	a11, a11, a12
    cac3:	a94b92        	s8i	a9, a11, 169
    cac6:	482382        	l32i	a8, a3, 0x120
    cac9:	0008e0        	excw
    cacc:	8588      	l32i.n	a8, a5, 32
    cace:	32a8      	l32i.n	a10, a2, 12
    cad0:	0008e0        	excw
    cad3:	ffbf06        	j	0xc9d3
    cad6:	140292        	l8ui	a9, a2, 20
    cad9:	a2cb      	addi.n	a10, a2, 12
    cadb:	083966        	bnei	a9, 3, 0xcae7
    cade:	452382        	l32i	a8, a3, 0x114
    cae1:	0008e0        	excw
    cae4:	ffbac6        	j	0xc9d3
    cae7:	442382        	l32i	a8, a3, 0x110
    caea:	0008e0        	excw
    caed:	ffb886        	j	0xc9d3
    caf0:	1002a2        	l8ui	a10, a2, 16
    caf3:	32b8      	l32i.n	a11, a2, 12
    caf5:	1502c2        	l8ui	a12, a2, 21
    caf8:	322382        	l32i	a8, a3, 200
    cafb:	23cc00        	excw
    cafe:	0008e0        	excw
    cb01:	8588      	l32i.n	a8, a5, 32
    cb03:	32a8      	l32i.n	a10, a2, 12
    cb05:	0008e0        	excw
    cb08:	ffb1c6        	j	0xc9d3
    cb0b:	2c24b2        	l32i	a11, a4, 176
    cb0e:	0c02a2        	l8ui	a10, a2, 12
    cb11:	98a1c2        	movi	a12, 0x198
    cb14:	c1cac0        	mul16u	a12, a10, a12
    cb17:	071292        	l16ui	a9, a2, 14
    cb1a:	bbca      	add.n	a11, a11, a12
    cb1c:	a94b92        	s8i	a9, a11, 169
    cb1f:	482382        	l32i	a8, a3, 0x120
    cb22:	0008e0        	excw
    cb25:	ffaa86        	j	0xc9d3
    cb28:	004136        	excw
    cb2b:	b98261        	l32r	a6, 0xffffb134
    cb2e:	010632        	l8ui	a3, a6, 1
    cb31:	000642        	l8ui	a4, a6, 0
    cb34:	443a      	add.n	a4, a4, a3
    cb36:	4fb347        	bgeu	a3, a4, 0xcb89
    cb39:	840b      	addi.n	a8, a4, -1
    cb3b:	4a3837        	bltu	a8, a3, 0xcb89
    cb3e:	d50c      	movi.n	a5, 13
    cb40:	b97771        	l32r	a7, 0xffffb11c
    cb43:	98a1b2        	movi	a11, 0x198
    cb46:	c1b3b0        	mul16u	a11, a3, a11
    cb49:	2c26d2        	l32i	a13, a6, 176
    cb4c:	1a0c      	movi.n	a10, 1
    cb4e:	ddba      	add.n	a13, a13, a11
    cb50:	010d92        	l8ui	a9, a13, 1
    cb53:	180c      	movi.n	a8, 1
    cb55:	099957        	bne	a9, a5, 0xcb62
    cb58:	eb7a      	add.n	a14, a11, a7
    cb5a:	800ee2        	l8ui	a14, a14, 128
    cb5d:	0c0c      	movi.n	a12, 0
    cb5f:	93ace0        	movnez	a10, a12, a14
    cb62:	0f0c      	movi.n	a15, 0
    cb64:	83f8a0        	moveqz	a15, a8, a10
    cb67:	3f9c      	beqz.n	a15, 0xcb7e
    cb69:	6fcdb2        	addi	a11, a13, 111
    cb6c:	02ad      	mov.n	a10, a2
    cb6e:	5c0c      	movi.n	a12, 5
    cb70:	00a5e5        	excw
    cb73:	7a8c      	beqz.n	a10, 0xcb7e
    cb75:	03ad      	mov.n	a10, a3
    cb77:	2b0c      	movi.n	a11, 2
    cb79:	02cd      	mov.n	a12, a2
    cb7b:	fea765        	excw
    cb7e:	98a1b2        	movi	a11, 0x198
    cb81:	331b      	addi.n	a3, a3, 1
    cb83:	743030        	extui	a3, a3, 0, 8
    cb86:	bc9437        	bne	a4, a3, 0xcb46
    cb89:	f01d      	excw
    cb8b:	613600        	excw
    cb8e:	030c00        	excw
    cb91:	b97781        	l32r	a8, 0xffffb170
    cb94:	b98241        	l32r	a4, 0xffffb19c
    cb97:	98a192        	movi	a9, 0x198
    cb9a:	c12290        	mul16u	a2, a2, a9
    cb9d:	2c24b2        	l32i	a11, a4, 176
    cba0:	828a      	add.n	a8, a2, a8
    cba2:	800882        	l8ui	a8, a8, 128
    cba5:	bb2a      	add.n	a11, a11, a2
    cba7:	18ec      	bnez.n	a8, 0xcbcc
    cba9:	192ba2        	l32i	a10, a11, 100
    cbac:	b96991        	l32r	a9, 0xffffb150
    cbaf:	4bc8      	l32i.n	a12, a11, 16
    cbb1:	b94081        	l32r	a8, 0xffffb0b4
    cbb4:	3b58      	l32i.n	a5, a11, 12
    cbb6:	a888      	l32i.n	a8, a8, 40
    cbb8:	c055c0        	sub	a5, a5, a12
    cbbb:	105590        	and	a5, a5, a9
    cbbe:	0008e0        	excw
    cbc1:	bab4f1        	l32r	a15, 0xffffb694
    cbc4:	9acc      	bnez.n	a10, 0xcbd1
    cbc6:	071fe2        	l16ui	a14, a15, 14
    cbc9:	000406        	j	0xcbdd
    cbcc:	039d      	mov.n	a9, a3
    cbce:	001386        	j	0xcc20
    cbd1:	babae1        	l32r	a14, 0xffffb6bc
    cbd4:	d20ee2        	l8ui	a14, a14, 210
    cbd7:	90eef0        	addx2	a14, a14, a15
    cbda:	001ee2        	l16ui	a14, a14, 0
    cbdd:	05ad      	mov.n	a10, a5
    cbdf:	c14b      	addi.n	a12, a1, 4
    cbe1:	01dd      	mov.n	a13, a1
    cbe3:	2c24b2        	l32i	a11, a4, 176
    cbe6:	b98481        	l32r	a8, 0xffffb1f8
    cbe9:	bb2a      	add.n	a11, a11, a2
    cbeb:	4a0bb2        	l8ui	a11, a11, 74
    cbee:	402882        	l32i	a8, a8, 0x100
    cbf1:	90bbf0        	addx2	a11, a11, a15
    cbf4:	001bb2        	l16ui	a11, a11, 0
    cbf7:	0139      	s32i.n	a3, a1, 0
    cbf9:	bbea      	add.n	a11, a11, a14
    cbfb:	0008e0        	excw
    cbfe:	11a8      	l32i.n	a10, a1, 4
    cc00:	b91b81        	l32r	a8, 0xffffb06c
    cc03:	01b8      	l32i.n	a11, a1, 0
    cc05:	782882        	l32i	a8, a8, 0x1e0
    cc08:	64a0c2        	movi	a12, 100
    cc0b:	0008e0        	excw
    cc0e:	2c24c2        	l32i	a12, a4, 176
    cc11:	cc2a      	add.n	a12, a12, a2
    cc13:	4b4ca2        	s8i	a10, a12, 75
    cc16:	2c24b2        	l32i	a11, a4, 176
    cc19:	bb2a      	add.n	a11, a11, a2
    cc1b:	4b0b92        	l8ui	a9, a11, 75
    cc1e:	992b      	addi.n	a9, a9, 2
    cc20:	4b4b92        	s8i	a9, a11, 75
    cc23:	f01d      	excw
    cc25:	000000        	ill
    cc28:	004136        	excw
    cc2b:	babf81        	l32r	a8, 0xffffb728
    cc2e:	b98241        	l32r	a4, 0xffffb238
    cc31:	027d      	mov.n	a7, a2
    cc33:	010492        	l8ui	a9, a4, 1
    cc36:	000462        	l8ui	a6, a4, 0
    cc39:	220c      	movi.n	a2, 2
    cc3b:	669a      	add.n	a6, a6, a9
    cc3d:	0020c0        	memw
    cc40:	816822        	s32i	a2, a8, 0x204
    cc43:	0020c0        	memw
    cc46:	826822        	s32i	a2, a8, 0x208
    cc49:	010422        	l8ui	a2, a4, 1
    cc4c:	2c24b2        	l32i	a11, a4, 176
    cc4f:	27b267        	bgeu	a2, a6, 0xcc7a
    cc52:	98a152        	movi	a5, 0x198
    cc55:	c15250        	mul16u	a5, a2, a5
    cc58:	a5ba      	add.n	a10, a5, a11
    cc5a:	000ac2        	l8ui	a12, a10, 0
    cc5d:	0c1c26        	beqi	a12, 1, 0xcc6d
    cc60:	baaaa1        	l32r	a10, 0xffffb708
    cc63:	0b0c      	movi.n	a11, 0
    cc65:	a73ee5        	excw
    cc68:	2c24b2        	l32i	a11, a4, 176
    cc6b:	a5ba      	add.n	a10, a5, a11
    cc6d:	010a82        	l8ui	a8, a10, 1
    cc70:	b88c      	beqz.n	a8, 0xcc7f
    cc72:	221b      	addi.n	a2, a2, 1
    cc74:	742020        	extui	a2, a2, 0, 8
    cc77:	d73267        	bltu	a2, a6, 0xcc52
    cc7a:	ffa022        	movi	a2, 255
    cc7d:	f01d      	excw
    cc7f:	0b0c      	movi.n	a11, 0
    cc81:	00a1c2        	movi	a12, 0x100
    cc84:	00af25        	excw
    cc87:	4c4c      	movi.n	a12, 68
    cc89:	baaba1        	l32r	a10, 0xffffb738
    cc8c:	c1b2c0        	mul16u	a11, a2, a12
    cc8f:	aaba      	add.n	a10, a10, a11
    cc91:	0b0c      	movi.n	a11, 0
    cc93:	00ae65        	excw
    cc96:	2c24f2        	l32i	a15, a4, 176
    cc99:	ff5a      	add.n	a15, a15, a5
    cc9b:	014f72        	s8i	a7, a15, 1
    cc9e:	2c24e2        	l32i	a14, a4, 176
    cca1:	02ad      	mov.n	a10, a2
    cca3:	ee5a      	add.n	a14, a14, a5
    cca5:	034e32        	s8i	a3, a14, 3
    cca8:	2c24d2        	l32i	a13, a4, 176
    ccab:	1c0c      	movi.n	a12, 1
    ccad:	dd5a      	add.n	a13, a13, a5
    ccaf:	004dc2        	s8i	a12, a13, 0
    ccb2:	fe5da5        	excw
    ccb5:	b98481        	l32r	a8, 0xffffb2c8
    ccb8:	282882        	l32i	a8, a8, 160
    ccbb:	0008e0        	excw
    ccbe:	f01d      	excw
    ccc0:	006136        	excw
    ccc3:	98a182        	movi	a8, 0x198
    ccc6:	b98241        	l32r	a4, 0xffffb2d0
    ccc9:	c18280        	mul16u	a8, a2, a8
    cccc:	2c2442        	l32i	a4, a4, 176
    cccf:	448a      	add.n	a4, a4, a8
    ccd1:	c488      	l32i.n	a8, a4, 48
    ccd3:	68cc      	bnez.n	a8, 0xccdd
    ccd5:	baaaa1        	l32r	a10, 0xffffb780
    ccd8:	0b0c      	movi.n	a11, 0
    ccda:	a737a5        	excw
    ccdd:	a80492        	l8ui	a9, a4, 168
    cce0:	69cc      	bnez.n	a9, 0xccea
    cce2:	baaaa1        	l32r	a10, 0xffffb78c
    cce5:	0b0c      	movi.n	a11, 0
    cce7:	a736e5        	excw
    ccea:	0c0c      	movi.n	a12, 0
    ccec:	3514b2        	l16ui	a11, a4, 106
    ccef:	b96961        	l32r	a6, 0xffffb294
    ccf2:	bb1b      	addi.n	a11, a11, 1
    ccf4:	115bf0        	slli	a5, a11, 1
    ccf7:	361366        	bnei	a3, 1, 0xcd31
    ccfa:	02ad      	mov.n	a10, a2
    ccfc:	0244c2        	s8i	a12, a4, 2
    ccff:	6c0472        	l8ui	a7, a4, 108
    cd02:	1c0c      	movi.n	a12, 1
    cd04:	0344c2        	s8i	a12, a4, 3
    cd07:	1177f0        	slli	a7, a7, 1
    cd0a:	907b70        	addx2	a7, a11, a7
    cd0d:	fe5aa5        	excw
    cd10:	11a9      	s32i.n	a10, a1, 4
    cd12:	201432        	l16ui	a3, a4, 64
    cd15:	211482        	l16ui	a8, a4, 66
    cd18:	2189      	s32i.n	a8, a1, 8
    cd1a:	03bd      	mov.n	a11, a3
    cd1c:	008725        	excw
    cd1f:	21b8      	l32i.n	a11, a1, 8
    cd21:	c0c3a0        	sub	a12, a3, a10
    cd24:	bbca      	add.n	a11, a11, a12
    cd26:	01b9      	s32i.n	a11, a1, 0
    cd28:	023b57        	bltu	a11, a5, 0xcd2e
    cd2b:	0022c6        	j	0xcdba
    cd2e:	001c86        	j	0xcda4
    cd31:	0344c2        	s8i	a12, a4, 3
    cd34:	02ad      	mov.n	a10, a2
    cd36:	4d0c      	movi.n	a13, 4
    cd38:	0244d2        	s8i	a13, a4, 2
    cd3b:	fe57e5        	excw
    cd3e:	e5aa      	add.n	a14, a5, a10
    cd40:	10ee60        	and	a14, a14, a6
    cd43:	34e9      	s32i.n	a14, a4, 12
    cd45:	02ad      	mov.n	a10, a2
    cd47:	d80c      	movi.n	a8, 13
    cd49:	6d04f2        	l8ui	a15, a4, 109
    cd4c:	6e44f2        	s8i	a15, a4, 110
    cd4f:	014482        	s8i	a8, a4, 1
    cd52:	fe5665        	excw
    cd55:	f97c      	movi.n	a9, -1
    cd57:	3d0c      	movi.n	a13, 3
    cd59:	0314c2        	l16ui	a12, a4, 6
    cd5c:	b98431        	l32r	a3, 0xffffb36c
    cd5f:	44a9      	s32i.n	a10, a4, 16
    cd61:	4b4c      	movi.n	a11, 68
    cd63:	c1b2b0        	mul16u	a11, a2, a11
    cd66:	baaba1        	l32r	a10, 0xffffb814
    cd69:	802382        	l32i	a8, a3, 0x200
    cd6c:	20ccd0        	or	a12, a12, a13
    cd6f:	0354c2        	s16i	a12, a4, 6
    cd72:	aaba      	add.n	a10, a10, a11
    cd74:	0a99      	s32i.n	a9, a10, 0
    cd76:	02ad      	mov.n	a10, a2
    cd78:	0008e0        	excw
    cd7b:	362382        	l32i	a8, a3, 216
    cd7e:	02ad      	mov.n	a10, a2
    cd80:	0008e0        	excw
    cd83:	02ad      	mov.n	a10, a2
    cd85:	0b0c      	movi.n	a11, 0
    cd87:	122382        	l32i	a8, a3, 72
    cd8a:	1c0c      	movi.n	a12, 1
    cd8c:	0008e0        	excw
    cd8f:	b91b81        	l32r	a8, 0xffffb1fc
    cd92:	8e2882        	l32i	a8, a8, 0x238
    cd95:	02ad      	mov.n	a10, a2
    cd97:	0008e0        	excw
    cd9a:	872382        	l32i	a8, a3, 0x21c
    cd9d:	02ad      	mov.n	a10, a2
    cd9f:	0008e0        	excw
    cda2:	f01d      	excw
    cda4:	c0a5b0        	sub	a10, a5, a11
    cda7:	03bd      	mov.n	a11, a3
    cda9:	a3aa      	add.n	a10, a3, a10
    cdab:	aa0b      	addi.n	a10, a10, -1
    cdad:	007925        	excw
    cdb0:	82c3a0        	mull	a12, a3, a10
    cdb3:	01b8      	l32i.n	a11, a1, 0
    cdb5:	cbca      	add.n	a12, a11, a12
    cdb7:	73bbc0        	excw
    cdba:	11a8      	l32i.n	a10, a1, 4
    cdbc:	05b7b7        	bgeu	a7, a11, 0xcdc5
    cdbf:	c0bb30        	sub	a11, a11, a3
    cdc2:	f937b7        	bltu	a7, a11, 0xcdbf
    cdc5:	35aa      	add.n	a3, a5, a10
    cdc7:	10d360        	and	a13, a3, a6
    cdca:	aaba      	add.n	a10, a10, a11
    cdcc:	10aa60        	and	a10, a10, a6
    cdcf:	34a9      	s32i.n	a10, a4, 12
    cdd1:	09bad7        	bgeu	a10, a13, 0xcdde
    cdd4:	baaaa1        	l32r	a10, 0xffffb87c
    cdd7:	0b0c      	movi.n	a11, 0
    cdd9:	a727a5        	excw
    cddc:	34a8      	l32i.n	a10, a4, 12
    cdde:	6c04b2        	l8ui	a11, a4, 108
    cde1:	90bb30        	addx2	a11, a11, a3
    cde4:	10bb60        	and	a11, a11, a6
    cde7:	023ba7        	bltu	a11, a10, 0xcded
    cdea:	ffd5c6        	j	0xcd45
    cded:	baaaa1        	l32r	a10, 0xffffb898
    cdf0:	0b0c      	movi.n	a11, 0
    cdf2:	a72625        	excw
    cdf5:	ffd306        	j	0xcd45
    cdf8:	020136        	excw
    cdfb:	b90771        	l32r	a7, 0xffffb218
    cdfe:	02a8      	l32i.n	a10, a2, 0
    ce00:	e788      	l32i.n	a8, a7, 56
    ce02:	4b0c      	movi.n	a11, 4
    ce04:	0008e0        	excw
    ce07:	98a1b2        	movi	a11, 0x198
    ce0a:	b98251        	l32r	a5, 0xffffb414
    ce0d:	0402a2        	l8ui	a10, a2, 4
    ce10:	2c2592        	l32i	a9, a5, 176
    ce13:	c1bab0        	mul16u	a11, a10, a11
    ce16:	99ba      	add.n	a9, a9, a11
    ce18:	040992        	l8ui	a9, a9, 4
    ce1b:	b98461        	l32r	a6, 0xffffb42c
    ce1e:	626917        	bbci	a9, 1, 0xce84
    ce21:	3c0c      	movi.n	a12, 3
    ce23:	01dd      	mov.n	a13, a1
    ce25:	2e0c      	movi.n	a14, 2
    ce27:	0298      	l32i.n	a9, a2, 0
    ce29:	662682        	l32i	a8, a6, 0x198
    ce2c:	09bd      	mov.n	a11, a9
    ce2e:	021942        	l16ui	a4, a9, 4
    ce31:	0a0932        	l8ui	a3, a9, 10
    ce34:	fcc442        	addi	a4, a4, -4
    ce37:	339a      	add.n	a3, a3, a9
    ce39:	33cb      	addi.n	a3, a3, 12
    ce3b:	f44040        	extui	a4, a4, 0, 16
    ce3e:	025942        	s16i	a4, a9, 4
    ce41:	0008e0        	excw
    ce44:	090c      	movi.n	a9, 0
    ce46:	01cd      	mov.n	a12, a1
    ce48:	081c      	movi.n	a8, 16
    ce4a:	638480        	excw
    ce4d:	149876        	excw
    ce50:	e91b      	addi.n	a14, a9, 1
    ce52:	b39a      	add.n	a11, a3, a9
    ce54:	d9ca      	add.n	a13, a9, a12
    ce56:	800dd2        	l8ui	a13, a13, 128
    ce59:	000ba2        	l8ui	a10, a11, 0
    ce5c:	7490e0        	extui	a9, a14, 0, 8
    ce5f:	30aad0        	xor	a10, a10, a13
    ce62:	004ba2        	s8i	a10, a11, 0
    ce65:	10a0e2        	movi	a14, 16
    ce68:	18be47        	bgeu	a14, a4, 0xce84
    ce6b:	209110        	or	a9, a1, a1
    ce6e:	f0c4f2        	addi	a15, a4, -16
    ce71:	0f9f76        	excw
    ce74:	9009a2        	l8ui	a10, a9, 144
    ce77:	100382        	l8ui	a8, a3, 16
    ce7a:	991b      	addi.n	a9, a9, 1
    ce7c:	331b      	addi.n	a3, a3, 1
    ce7e:	3088a0        	xor	a8, a8, a10
    ce81:	0f4382        	s8i	a8, a3, 15
    ce84:	02a8      	l32i.n	a10, a2, 0
    ce86:	0a0a92        	l8ui	a9, a10, 10
    ce89:	99aa      	add.n	a9, a9, a10
    ce8b:	0c0992        	l8ui	a9, a9, 12
    ce8e:	e99c      	beqz.n	a9, 0xceb0
    ce90:	4c1926        	beqi	a9, 1, 0xcee0
    ce93:	122966        	bnei	a9, 2, 0xcea9
    ce96:	0402a2        	l8ui	a10, a2, 4
    ce99:	6b0c      	movi.n	a11, 6
    ce9b:	fe6fa5        	excw
    ce9e:	482682        	l32i	a8, a6, 0x120
    cea1:	0402a2        	l8ui	a10, a2, 4
    cea4:	0008e0        	excw
    cea7:	02a8      	l32i.n	a10, a2, 0
    cea9:	8788      	l32i.n	a8, a7, 32
    ceab:	0008e0        	excw
    ceae:	f01d      	excw
    ceb0:	2c2592        	l32i	a9, a5, 176
    ceb3:	0402b2        	l8ui	a11, a2, 4
    ceb6:	98a1c2        	movi	a12, 0x198
    ceb9:	c1bbc0        	mul16u	a11, a11, a12
    cebc:	99ba      	add.n	a9, a9, a11
    cebe:	5319b2        	l16ui	a11, a9, 166
    cec1:	6bdc      	bnez.n	a11, 0xcedb
    cec3:	baaaa1        	l32r	a10, 0xffffb96c
    cec6:	0b0c      	movi.n	a11, 0
    cec8:	a718a5        	excw
    cecb:	2c2592        	l32i	a9, a5, 176
    cece:	0402b2        	l8ui	a11, a2, 4
    ced1:	98a1c2        	movi	a12, 0x198
    ced4:	c1bbc0        	mul16u	a11, a11, a12
    ced7:	02a8      	l32i.n	a10, a2, 0
    ced9:	99ba      	add.n	a9, a9, a11
    cedb:	2869a2        	s32i	a10, a9, 160
    cede:	f01d      	excw
    cee0:	2c2592        	l32i	a9, a5, 176
    cee3:	0402b2        	l8ui	a11, a2, 4
    cee6:	98a1c2        	movi	a12, 0x198
    cee9:	c1bbc0        	mul16u	a11, a11, a12
    ceec:	99ba      	add.n	a9, a9, a11
    ceee:	5219d2        	l16ui	a13, a9, 164
    cef1:	6ddc      	bnez.n	a13, 0xcf0b
    cef3:	baaaa1        	l32r	a10, 0xffffb99c
    cef6:	0b0c      	movi.n	a11, 0
    cef8:	a715a5        	excw
    cefb:	2c2592        	l32i	a9, a5, 176
    cefe:	0402b2        	l8ui	a11, a2, 4
    cf01:	98a1c2        	movi	a12, 0x198
    cf04:	c1bbc0        	mul16u	a11, a11, a12
    cf07:	02a8      	l32i.n	a10, a2, 0
    cf09:	99ba      	add.n	a9, a9, a11
    cf0b:	2769a2        	s32i	a10, a9, 156
    cf0e:	f01d      	excw
    cf10:	004136        	excw
    cf13:	02b8      	l32i.n	a11, a2, 0
    cf15:	b984d1        	l32r	a13, 0xffffb528
    cf18:	0a0be2        	l8ui	a14, a11, 10
    cf1b:	0402a2        	l8ui	a10, a2, 4
    cf1e:	ebea      	add.n	a14, a11, a14
    cf20:	0c0ec2        	l8ui	a12, a14, 12
    cf23:	e80c      	movi.n	a8, 14
    cf25:	34bc87        	bgeu	a12, a8, 0xcf5d
    cf28:	bac081        	l32r	a8, 0xffffba28
    cf2b:	90fcc0        	addx2	a15, a12, a12
    cf2e:	ff8a      	add.n	a15, a15, a8
    cf30:	000fa0        	jx	a15
    cf33:	000e86        	j	0xcf71
    cf36:	002a46        	j	0xcfe3
    cf39:	002746        	j	0xcfda
    cf3c:	002446        	j	0xcfd1
    cf3f:	002146        	j	0xcfc8
    cf42:	001e46        	j	0xcfbf
    cf45:	001d86        	j	0xcfbf
    cf48:	0019c6        	j	0xcfb3
    cf4b:	001646        	j	0xcfa8
    cf4e:	001306        	j	0xcf9e
    cf51:	000f86        	j	0xcf93
    cf54:	000ec6        	j	0xcf93
    cf57:	000b86        	j	0xcf89
    cf5a:	0007c6        	j	0xcf7d
    cf5d:	5b2d82        	l32i	a8, a13, 0x16c
    cf60:	0cbd      	mov.n	a11, a12
    cf62:	0008e0        	excw
    cf65:	b90781        	l32r	a8, 0xffffb384
    cf68:	8888      	l32i.n	a8, a8, 32
    cf6a:	02a8      	l32i.n	a10, a2, 0
    cf6c:	0008e0        	excw
    cf6f:	f01d      	excw
    cf71:	6a2d82        	l32i	a8, a13, 0x1a8
    cf74:	0008e0        	excw
    cf77:	ff4a56        	bnez	a10, 0xcf6f
    cf7a:	fff9c6        	j	0xcf65
    cf7d:	6c2d82        	l32i	a8, a13, 0x1b0
    cf80:	0d0eb2        	l8ui	a11, a14, 13
    cf83:	0008e0        	excw
    cf86:	fff6c6        	j	0xcf65
    cf89:	bedb      	addi.n	a11, a14, 13
    cf8b:	0c0c      	movi.n	a12, 0
    cf8d:	ff3be5        	excw
    cf90:	fff446        	j	0xcf65
    cf93:	772d82        	l32i	a8, a13, 0x1dc
    cf96:	0cbd      	mov.n	a11, a12
    cf98:	0008e0        	excw
    cf9b:	fff186        	j	0xcf65
    cf9e:	bedb      	addi.n	a11, a14, 13
    cfa0:	0c0c      	movi.n	a12, 0
    cfa2:	fe6e65        	excw
    cfa5:	ffef06        	j	0xcf65
    cfa8:	512d82        	l32i	a8, a13, 0x144
    cfab:	0b0c      	movi.n	a11, 0
    cfad:	0008e0        	excw
    cfb0:	ffec46        	j	0xcf65
    cfb3:	5c2d82        	l32i	a8, a13, 0x170
    cfb6:	0d0eb2        	l8ui	a11, a14, 13
    cfb9:	0008e0        	excw
    cfbc:	ffe946        	j	0xcf65
    cfbf:	592d82        	l32i	a8, a13, 0x164
    cfc2:	0008e0        	excw
    cfc5:	ffe706        	j	0xcf65
    cfc8:	582d82        	l32i	a8, a13, 0x160
    cfcb:	0008e0        	excw
    cfce:	ffe4c6        	j	0xcf65
    cfd1:	572d82        	l32i	a8, a13, 0x15c
    cfd4:	0008e0        	excw
    cfd7:	ffe286        	j	0xcf65
    cfda:	562d82        	l32i	a8, a13, 0x158
    cfdd:	0008e0        	excw
    cfe0:	ffe046        	j	0xcf65
    cfe3:	552d82        	l32i	a8, a13, 0x154
    cfe6:	0008e0        	excw
    cfe9:	f82a56        	bnez	a10, 0xcf6f
    cfec:	ffdd46        	j	0xcf65
    cfef:	613600        	excw
    cff2:	82a100        	mull	a10, a1, a0
    cff5:	62b9      	s32i.n	a11, a2, 24
    cff7:	4c98a1        	l32r	a10, 0xfffe0258
    cffa:	039d47        	bne	a13, a4, 0xd001
    cffd:	0199      	s32i.n	a9, a1, 0
    cfff:	c17270        	mul16u	a7, a2, a7
    d002:	c16260        	mul16u	a6, a2, a6
    d005:	2c2a42        	l32i	a4, a10, 176
    d008:	baab31        	l32r	a3, 0xffffbab4
    d00b:	446a      	add.n	a4, a4, a6
    d00d:	337a      	add.n	a3, a3, a7
    d00f:	0378      	l32i.n	a7, a3, 0
    d011:	0314b2        	l16ui	a11, a4, 6
    d014:	b96961        	l32r	a6, 0xffffb5b8
    d017:	246b57        	bbci	a11, 5, 0xd03f
    d01a:	190c      	movi.n	a9, 1
    d01c:	076b67        	bbci	a11, 6, 0xd027
    d01f:	231452        	l16ui	a5, a4, 70
    d022:	551b      	addi.n	a5, a5, 1
    d024:	000046        	j	0xd029
    d027:	150c      	movi.n	a5, 1
    d029:	1187e0        	slli	a8, a7, 2
    d02c:	208890        	or	a8, a8, a9
    d02f:	0389      	s32i.n	a8, a3, 0
    d031:	ab0492        	l8ui	a9, a4, 171
    d034:	045916        	beqz	a9, 0xd07d
    d037:	a90b      	addi.n	a10, a9, -1
    d039:	ab44a2        	s8i	a10, a4, 171
    d03c:	000f46        	j	0xd07d
    d03f:	34b8      	l32i.n	a11, a4, 12
    d041:	c0a9b0        	sub	a10, a9, a11
    d044:	2014b2        	l16ui	a11, a4, 64
    d047:	10aa60        	and	a10, a10, a6
    d04a:	11a9      	s32i.n	a10, a1, 4
    d04c:	21b9      	s32i.n	a11, a1, 8
    d04e:	004f25        	excw
    d051:	21c8      	l32i.n	a12, a1, 8
    d053:	11d8      	l32i.n	a13, a1, 4
    d055:	82cca0        	mull	a12, a12, a10
    d058:	0a5d      	mov.n	a5, a10
    d05a:	01bcd7        	bgeu	a12, a13, 0xd05f
    d05d:	5a1b      	addi.n	a5, a10, 1
    d05f:	1185f0        	slli	a8, a5, 1
    d062:	401800        	ssl	a8
    d065:	a1f700        	sll	a15, a7
    d068:	03f9      	s32i.n	a15, a3, 0
    d06a:	ab04e2        	l8ui	a14, a4, 171
    d06d:	ee5a      	add.n	a14, a14, a5
    d06f:	ab44e2        	s8i	a14, a4, 171
    d072:	b982e1        	l32r	a14, 0xffffb67c
    d075:	611ed2        	l16ui	a13, a14, 194
    d078:	dd1b      	addi.n	a13, a13, 1
    d07a:	615ed2        	s16i	a13, a14, 194
    d07d:	b98471        	l32r	a7, 0xffffb690
    d080:	612782        	l32i	a8, a7, 0x184
    d083:	02ad      	mov.n	a10, a2
    d085:	0008e0        	excw
    d088:	ba8c      	beqz.n	a10, 0xd097
    d08a:	02ad      	mov.n	a10, a2
    d08c:	342782        	l32i	a8, a7, 208
    d08f:	a904b2        	l8ui	a11, a4, 169
    d092:	0008e0        	excw
    d095:	f01d      	excw
    d097:	5b2c      	movi.n	a11, 37
    d099:	3488      	l32i.n	a8, a4, 12
    d09b:	6e04a2        	l8ui	a10, a4, 110
    d09e:	0414d2        	l16ui	a13, a4, 8
    d0a1:	201432        	l16ui	a3, a4, 64
    d0a4:	6d04c2        	l8ui	a12, a4, 109
    d0a7:	829350        	mull	a9, a3, a5
    d0aa:	82cc50        	mull	a12, a12, a5
    d0ad:	dd5a      	add.n	a13, a13, a5
    d0af:	0454d2        	s16i	a13, a4, 8
    d0b2:	aaca      	add.n	a10, a10, a12
    d0b4:	589a      	add.n	a5, a8, a9
    d0b6:	105560        	and	a5, a5, a6
    d0b9:	3459      	s32i.n	a5, a4, 12
    d0bb:	004d65        	excw
    d0be:	6e44a2        	s8i	a10, a4, 110
    d0c1:	01e8      	l32i.n	a14, a1, 0
    d0c3:	2314d2        	l16ui	a13, a4, 70
    d0c6:	c0e5e0        	sub	a14, a5, a14
    d0c9:	dd2b      	addi.n	a13, a13, 2
    d0cb:	82d3d0        	mull	a13, a3, a13
    d0ce:	10ee60        	and	a14, a14, a6
    d0d1:	07bde7        	bgeu	a13, a14, 0xd0dc
    d0d4:	baaaa1        	l32r	a10, 0xffffbb7c
    d0d7:	0b0c      	movi.n	a11, 0
    d0d9:	a6f7a5        	excw
    d0dc:	02ad      	mov.n	a10, a2
    d0de:	bac1b1        	l32r	a11, 0xffffbbe4
    d0e1:	031492        	l16ui	a9, a4, 6
    d0e4:	802782        	l32i	a8, a7, 0x200
    d0e7:	1099b0        	and	a9, a9, a11
    d0ea:	035492        	s16i	a9, a4, 6
    d0ed:	0008e0        	excw
    d0f0:	b982c1        	l32r	a12, 0xffffb6f8
    d0f3:	e90cc2        	l8ui	a12, a12, 233
    d0f6:	071c27        	beq	a12, a2, 0xd101
    d0f9:	baaaa1        	l32r	a10, 0xffffbba4
    d0fc:	0b0c      	movi.n	a11, 0
    d0fe:	a6f565        	excw
    d101:	bac2a1        	l32r	a10, 0xffffbc0c
    d104:	b30492        	l8ui	a9, a4, 179
    d107:	362782        	l32i	a8, a7, 216
    d10a:	694a92        	s8i	a9, a10, 105
    d10d:	02ad      	mov.n	a10, a2
    d10f:	0008e0        	excw
    d112:	f01d      	excw
    d114:	004136        	excw
    d117:	b98241        	l32r	a4, 0xffffb720
    d11a:	010492        	l8ui	a9, a4, 1
    d11d:	000482        	l8ui	a8, a4, 0
    d120:	889a      	add.n	a8, a8, a9
    d122:	072287        	blt	a2, a8, 0xd12d
    d125:	baaaa1        	l32r	a10, 0xffffbbd0
    d128:	0b0c      	movi.n	a11, 0
    d12a:	a6f2a5        	excw
    d12d:	2c24a2        	l32i	a10, a4, 176
    d130:	98a132        	movi	a3, 0x198
    d133:	c13230        	mul16u	a3, a2, a3
    d136:	aa3a      	add.n	a10, a10, a3
    d138:	000aa2        	l8ui	a10, a10, 0
    d13b:	071a26        	beqi	a10, 1, 0xd146
    d13e:	baaaa1        	l32r	a10, 0xffffbbe8
    d141:	0b0c      	movi.n	a11, 0
    d143:	a6f125        	excw
    d146:	4c4c      	movi.n	a12, 68
    d148:	baaba1        	l32r	a10, 0xffffbbf4
    d14b:	c1b2c0        	mul16u	a11, a2, a12
    d14e:	aaba      	add.n	a10, a10, a11
    d150:	0b0c      	movi.n	a11, 0
    d152:	006265        	excw
    d155:	2c24d2        	l32i	a13, a4, 176
    d158:	0c0c      	movi.n	a12, 0
    d15a:	dd3a      	add.n	a13, a13, a3
    d15c:	014dc2        	s8i	a12, a13, 1
    d15f:	f01d      	excw
    d161:	000000        	ill
    d164:	004136        	excw
    d167:	74e030        	extui	a14, a3, 0, 8
    d16a:	b982d1        	l32r	a13, 0xffffb774
    d16d:	03e650        	rsr.ps	a5
    d170:	230c      	movi.n	a3, 2
    d172:	34f050        	extui	a15, a5, 0, 4
    d175:	0223f7        	blt	a3, a15, 0xd17b
    d178:	006250        	rsil	a5, 2
    d17b:	010da2        	l8ui	a10, a13, 1
    d17e:	000dc2        	l8ui	a12, a13, 0
    d181:	030c      	movi.n	a3, 0
    d183:	ccaa      	add.n	a12, a12, a10
    d185:	022ac7        	blt	a10, a12, 0xd18b
    d188:	002946        	j	0xd231
    d18b:	d40c      	movi.n	a4, 13
    d18d:	3f0c      	movi.n	a15, 3
    d18f:	1b0c      	movi.n	a11, 1
    d191:	121ae7        	beq	a10, a14, 0xd1a7
    d194:	2c2d82        	l32i	a8, a13, 176
    d197:	98a192        	movi	a9, 0x198
    d19a:	c19a90        	mul16u	a9, a10, a9
    d19d:	889a      	add.n	a8, a8, a9
    d19f:	010882        	l8ui	a8, a8, 1
    d1a2:	019847        	bne	a8, a4, 0xd1a7
    d1a5:	0b0c      	movi.n	a11, 0
    d1a7:	190c      	movi.n	a9, 1
    d1a9:	080c      	movi.n	a8, 0
    d1ab:	8389b0        	moveqz	a8, a9, a11
    d1ae:	074816        	beqz	a8, 0xd226
    d1b1:	000292        	l8ui	a9, a2, 0
    d1b4:	98a182        	movi	a8, 0x198
    d1b7:	909990        	addx2	a9, a9, a9
    d1ba:	b09920        	addx8	a9, a9, a2
    d1bd:	044932        	s8i	a3, a9, 4
    d1c0:	0002c2        	l8ui	a12, a2, 0
    d1c3:	c18a80        	mul16u	a8, a10, a8
    d1c6:	90ccc0        	addx2	a12, a12, a12
    d1c9:	b0cc20        	addx8	a12, a12, a2
    d1cc:	054cf2        	s8i	a15, a12, 5
    d1cf:	0002b2        	l8ui	a11, a2, 0
    d1d2:	2c2dc2        	l32i	a12, a13, 176
    d1d5:	90bbb0        	addx2	a11, a11, a11
    d1d8:	cc8a      	add.n	a12, a12, a8
    d1da:	211c92        	l16ui	a9, a12, 66
    d1dd:	b0bb20        	addx8	a11, a11, a2
    d1e0:	419190        	srli	a9, a9, 1
    d1e3:	035b92        	s16i	a9, a11, 6
    d1e6:	221c82        	l16ui	a8, a12, 68
    d1e9:	000292        	l8ui	a9, a2, 0
    d1ec:	418180        	srli	a8, a8, 1
    d1ef:	909990        	addx2	a9, a9, a9
    d1f2:	b09920        	addx8	a9, a9, a2
    d1f5:	055982        	s16i	a8, a9, 10
    d1f8:	201cc2        	l16ui	a12, a12, 64
    d1fb:	000282        	l8ui	a8, a2, 0
    d1fe:	41c1c0        	srli	a12, a12, 1
    d201:	908880        	addx2	a8, a8, a8
    d204:	b08820        	addx8	a8, a8, a2
    d207:	0458c2        	s16i	a12, a8, 8
    d20a:	0002b2        	l8ui	a11, a2, 0
    d20d:	90bbb0        	addx2	a11, a11, a11
    d210:	b0bb20        	addx8	a11, a11, a2
    d213:	184ba2        	s8i	a10, a11, 24
    d216:	000292        	l8ui	a9, a2, 0
    d219:	991b      	addi.n	a9, a9, 1
    d21b:	004292        	s8i	a9, a2, 0
    d21e:	010d82        	l8ui	a8, a13, 1
    d221:	000dc2        	l8ui	a12, a13, 0
    d224:	cc8a      	add.n	a12, a12, a8
    d226:	aa1b      	addi.n	a10, a10, 1
    d228:	74a0a0        	extui	a10, a10, 0, 8
    d22b:	02aac7        	bge	a10, a12, 0xd231
    d22e:	ffd746        	j	0xd18f
    d231:	13e650        	wsr.ps	a5
    d234:	002010        	rsync
    d237:	0002c2        	l8ui	a12, a2, 0
    d23a:	5b1c      	movi.n	a11, 21
    d23c:	07bbc7        	bgeu	a11, a12, 0xd247
    d23f:	baaaa1        	l32r	a10, 0xffffbce8
    d242:	0b0c      	movi.n	a11, 0
    d244:	a6e0e5        	excw
    d247:	f01d      	excw
    d249:	000000        	ill
    d24c:	004136        	excw
    d24f:	bac531        	l32r	a3, 0xffffbd64
    d252:	bac6e1        	l32r	a14, 0xffffbd6c
    d255:	b98451        	l32r	a5, 0xffffb868
    d258:	bac471        	l32r	a7, 0xffffbd68
    d25b:	bac391        	l32r	a9, 0xffffbd68
    d25e:	baaff1        	l32r	a15, 0xffffbd1c
    d261:	b90b41        	l32r	a4, 0xffffb690
    d264:	b980a1        	l32r	a10, 0xffffb864
    d267:	0714d2        	l16ui	a13, a4, 14
    d26a:	1a2a82        	l32i	a8, a10, 104
    d26d:	5448      	l32i.n	a4, a4, 20
    d26f:	1a2aa2        	l32i	a10, a10, 104
    d272:	dd1b      	addi.n	a13, a13, 1
    d274:	282ab2        	l32i	a11, a10, 160
    d277:	5fb9      	s32i.n	a11, a15, 20
    d279:	276a92        	s32i	a9, a10, 156
    d27c:	bac7b1        	l32r	a11, 0xffffbd98
    d27f:	bac991        	l32r	a9, 0xffffbda4
    d282:	bac8a1        	l32r	a10, 0xffffbda4
    d285:	286872        	s32i	a7, a8, 160
    d288:	6265a2        	s32i	a10, a5, 0x188
    d28b:	636592        	s32i	a9, a5, 0x18c
    d28e:	822562        	l32i	a6, a5, 0x208
    d291:	882522        	l32i	a2, a5, 0x220
    d294:	bacb71        	l32r	a7, 0xffffbdc0
    d297:	baca81        	l32r	a8, 0xffffbdc0
    d29a:	7c25c2        	l32i	a12, a5, 0x1f0
    d29d:	2fc9      	s32i.n	a12, a15, 8
    d29f:	7c65b2        	s32i	a11, a5, 0x1f0
    d2a2:	646582        	s32i	a8, a5, 0x190
    d2a5:	426572        	s32i	a7, a5, 0x108
    d2a8:	1f29      	s32i.n	a2, a15, 4
    d2aa:	0f69      	s32i.n	a6, a15, 0
    d2ac:	8865e2        	s32i	a14, a5, 0x220
    d2af:	826532        	s32i	a3, a5, 0x208
    d2b2:	bad391        	l32r	a9, 0xffffbe00
    d2b5:	bad2a1        	l32r	a10, 0xffffbe00
    d2b8:	5665a2        	s32i	a10, a5, 0x158
    d2bb:	576592        	s32i	a9, a5, 0x15c
    d2be:	bacd31        	l32r	a3, 0xffffbdf4
    d2c1:	bacfe1        	l32r	a14, 0xffffbe00
    d2c4:	bacc61        	l32r	a6, 0xffffbdf4
    d2c7:	bace21        	l32r	a2, 0xffffbe00
    d2ca:	bad571        	l32r	a7, 0xffffbe20
    d2cd:	bad481        	l32r	a8, 0xffffbe20
    d2d0:	bad1b1        	l32r	a11, 0xffffbe14
    d2d3:	bad0c1        	l32r	a12, 0xffffbe14
    d2d6:	7665c2        	s32i	a12, a5, 0x1d8
    d2d9:	5165b2        	s32i	a11, a5, 0x144
    d2dc:	596582        	s32i	a8, a5, 0x164
    d2df:	776572        	s32i	a7, a5, 0x1dc
    d2e2:	676522        	s32i	a2, a5, 0x19c
    d2e5:	6f6562        	s32i	a6, a5, 0x1bc
    d2e8:	6965e2        	s32i	a14, a5, 0x1a4
    d2eb:	526532        	s32i	a3, a5, 0x148
    d2ee:	badd91        	l32r	a9, 0xffffbe64
    d2f1:	badca1        	l32r	a10, 0xffffbe64
    d2f4:	1565a2        	s32i	a10, a5, 84
    d2f7:	336592        	s32i	a9, a5, 204
    d2fa:	bad731        	l32r	a3, 0xffffbe58
    d2fd:	bad9e1        	l32r	a14, 0xffffbe64
    d300:	bad661        	l32r	a6, 0xffffbe58
    d303:	bad821        	l32r	a2, 0xffffbe64
    d306:	badf71        	l32r	a7, 0xffffbe84
    d309:	bade81        	l32r	a8, 0xffffbe84
    d30c:	badbb1        	l32r	a11, 0xffffbe78
    d30f:	badac1        	l32r	a12, 0xffffbe78
    d312:	5465c2        	s32i	a12, a5, 0x150
    d315:	8065b2        	s32i	a11, a5, 0x200
    d318:	5a6582        	s32i	a8, a5, 0x168
    d31b:	436572        	s32i	a7, a5, 0x10c
    d31e:	756522        	s32i	a2, a5, 0x1d4
    d321:	6c6562        	s32i	a6, a5, 0x1b0
    d324:	4965e2        	s32i	a14, a5, 0x124
    d327:	5c6532        	s32i	a3, a5, 0x170
    d32a:	bae3e1        	l32r	a14, 0xffffbeb8
    d32d:	bae131        	l32r	a3, 0xffffbeb4
    d330:	bae061        	l32r	a6, 0xffffbeb0
    d333:	bae221        	l32r	a2, 0xffffbebc
    d336:	3f29      	s32i.n	a2, a15, 12
    d338:	456562        	s32i	a6, a5, 0x114
    d33b:	166532        	s32i	a3, a5, 88
    d33e:	4fe9      	s32i.n	a14, a15, 16
    d340:	bae451        	l32r	a5, 0xffffbed0
    d343:	0d9d76        	excw
    d346:	1488      	l32i.n	a8, a4, 4
    d348:	069857        	bne	a8, a5, 0xd352
    d34b:	bae591        	l32r	a9, 0xffffbee0
    d34e:	1499      	s32i.n	a9, a4, 4
    d350:	f01d      	excw
    d352:	448b      	addi.n	a4, a4, 8
    d354:	f01d      	excw
    d356:	360000        	excw
    d359:	210041        	l32r	a4, 0xfffd575c
    d35c:	88ba95        	excw
    d35f:	08e012        	excw
    d362:	736c00        	excw
    d365:	0298      	l32i.n	a9, a2, 0
    d367:	ba9621        	l32r	a2, 0xffffbdc0
    d36a:	f9cc      	bnez.n	a9, 0xd37d
    d36c:	6288      	l32i.n	a8, a2, 24
    d36e:	7a4c      	movi.n	a10, 71
    d370:	0008e0        	excw
    d373:	10ba30        	and	a11, a10, a3
    d376:	5288      	l32i.n	a8, a2, 20
    d378:	7a4c      	movi.n	a10, 71
    d37a:	0008e0        	excw
    d37d:	b90e41        	l32r	a4, 0xffffb7b8
    d380:	0498      	l32i.n	a9, a4, 0
    d382:	2e2992        	l32i	a9, a9, 184
    d385:	b9cc      	bnez.n	a9, 0xd394
    d387:	bae6a1        	l32r	a10, 0xffffbf20
    d38a:	0b0c      	movi.n	a11, 0
    d38c:	a6cc65        	excw
    d38f:	0498      	l32i.n	a9, a4, 0
    d391:	2e2992        	l32i	a9, a9, 184
    d394:	151966        	bnei	a9, 1, 0xd3ad
    d397:	6288      	l32i.n	a8, a2, 24
    d399:	ba5c      	movi.n	a10, 91
    d39b:	0008e0        	excw
    d39e:	5288      	l32i.n	a8, a2, 20
    d3a0:	10ba30        	and	a11, a10, a3
    d3a3:	0c1c      	movi.n	a12, 16
    d3a5:	ba5c      	movi.n	a10, 91
    d3a7:	20bbc0        	or	a11, a11, a12
    d3aa:	0008e0        	excw
    d3ad:	f01d      	excw
    d3af:	413600        	srli	a3, a0, 6
    d3b2:	503100        	ritlb0	a0, a1
    d3b5:	c0b9      	s32i.n	a11, a0, 48
    d3b7:	a10020        	excw
    d3ba:	9f          	.byte 0x9f
    d3bb:	42ba      	add.n	a4, a2, a11
    d3bd:	bd8423        	excw
    d3c0:	4d4002        	s8i	a0, a0, 77
    d3c3:	17a541        	l32r	a4, 0xfffd3258
    d3c6:	b04000        	addx8	a4, a0, a0
    d3c9:	aab024        	excw
    d3cc:	95b182        	excw
    d3cf:	a0b9      	s32i.n	a11, a0, 40
    d3d1:	90aa      	add.n	a9, a0, a10
    d3d3:	11aab0        	slli	a10, a10, 5
    d3d6:	0016a5        	excw
    d3d9:	ba98c1        	l32r	a12, 0xffffbe3c
    d3dc:	0a4d      	mov.n	a4, a10
    d3de:	2cc8      	l32i.n	a12, a12, 8
    d3e0:	b90e61        	l32r	a6, 0xffffb818
    d3e3:	14c0c0        	extui	a12, a12, 0, 2
    d3e6:	481c26        	beqi	a12, 1, 0xd432
    d3e9:	0658      	l32i.n	a5, a6, 0
    d3eb:	2e2552        	l32i	a5, a5, 184
    d3ee:	b5cc      	bnez.n	a5, 0xd3fd
    d3f0:	bae6a1        	l32r	a10, 0xffffbf88
    d3f3:	0b0c      	movi.n	a11, 0
    d3f5:	a6c5e5        	excw
    d3f8:	0658      	l32i.n	a5, a6, 0
    d3fa:	2e2552        	l32i	a5, a5, 184
    d3fd:	02bd      	mov.n	a11, a2
    d3ff:	baa0a1        	l32r	a10, 0xffffbe80
    d402:	0013e5        	excw
    d405:	c50b      	addi.n	a12, a5, -1
    d407:	c09a40        	sub	a9, a10, a4
    d40a:	b94b      	addi.n	a11, a9, 4
    d40c:	8ea2a2        	movi	a10, 0x28e
    d40f:	99aa      	add.n	a9, a9, a10
    d411:	939bc0        	movnez	a9, a11, a12
    d414:	ffa7a2        	movi	a10, 0x7ff
    d417:	0020c0        	memw
    d41a:	9d2382        	l32i	a8, a3, 0x274
    d41d:	6399a0        	excw
    d420:	a49090        	extui	a9, a9, 0, 11
    d423:	00a8a2        	movi	a10, 0xfffff800
    d426:	1088a0        	and	a8, a8, a10
    d429:	208890        	or	a8, a8, a9
    d42c:	0020c0        	memw
    d42f:	9d6382        	s32i	a8, a3, 0x274
    d432:	0020c0        	memw
    d435:	baa1d1        	l32r	a13, 0xffffbebc
    d438:	8423c2        	l32i	a12, a3, 0x210
    d43b:	c4b040        	extui	a11, a4, 0, 13
    d43e:	10ccd0        	and	a12, a12, a13
    d441:	20bbc0        	or	a11, a11, a12
    d444:	0020c0        	memw
    d447:	8463b2        	s32i	a11, a3, 0x210
    d44a:	f01d      	excw
    d44c:	004136        	excw
    d44f:	bae891        	l32r	a9, 0xffffbff0
    d452:	140c      	movi.n	a4, 1
    d454:	ba9831        	l32r	a3, 0xffffbeb4
    d457:	bae921        	l32r	a2, 0xffffbffc
    d45a:	bae7b1        	l32r	a11, 0xffffbff8
    d45d:	b97da1        	l32r	a10, 0xffffba54
    d460:	ba9551        	l32r	a5, 0xffffbeb4
    d463:	fa88      	l32i.n	a8, a10, 60
    d465:	1589      	s32i.n	a8, a5, 4
    d467:	fab9      	s32i.n	a11, a10, 60
    d469:	1329      	s32i.n	a2, a3, 4
    d46b:	0549      	s32i.n	a4, a5, 0
    d46d:	136a92        	s32i	a9, a10, 76
    d470:	f01d      	excw
    d472:	360000        	excw
    d475:	1d0041        	l32r	a4, 0xfffd4878
    d478:	0000f0        	excw
    d47b:	413600        	srli	a3, a0, 6
    d47e:	f01d00        	subx8	a1, a13, a0
    d481:	000000        	ill
    d484:	004136        	excw
    d487:	f01d      	excw
    d489:	000000        	ill
    d48c:	002136        	excw
    d48f:	307230        	xor	a7, a2, a3
    d492:	606120        	abs	a6, a2
    d495:	603130        	abs	a3, a3
    d498:	3423b6        	bltui	a3, 2, 0xd4d0
    d49b:	415160        	srli	a5, a6, 1
    d49e:	3a3537        	bltu	a5, a3, 0xd4dc
    d4a1:	40f650        	nsau	a5, a6
    d4a4:	40f340        	nsau	a4, a3
    d4a7:	c04450        	sub	a4, a4, a5
    d4aa:	401400        	ssl	a4
    d4ad:	a13300        	sll	a3, a3
    d4b0:	020c      	movi.n	a2, 0
    d4b2:	0d9476        	excw
    d4b5:	043637        	bltu	a6, a3, 0xd4bd
    d4b8:	c06630        	sub	a6, a6, a3
    d4bb:	221b      	addi.n	a2, a2, 1
    d4bd:	1122f0        	slli	a2, a2, 1
    d4c0:	413130        	srli	a3, a3, 1
    d4c3:	013637        	bltu	a6, a3, 0xd4c8
    d4c6:	221b      	addi.n	a2, a2, 1
    d4c8:	605020        	neg	a5, a2
    d4cb:	a32570        	movltz	a2, a5, a7
    d4ce:	f01d      	excw
    d4d0:	539c      	beqz.n	a3, 0xd4e9
    d4d2:	602060        	neg	a2, a6
    d4d5:	b32670        	movgez	a2, a6, a7
    d4d8:	f01d      	excw
    d4da:	370000        	excw
    d4dd:	0c1036        	excw
    d4e0:	f47c12        	excw
    d4e3:	a32470        	movltz	a2, a4, a7
    d4e6:	f01d      	excw
    d4e8:	000000        	ill
    d4eb:	494400        	excw
    d4ee:	0c3056        	bnez	a0, 0xd5b5
    d4f1:	f01d02        	l16ui	a0, a13, 0x1e0
    d4f4:	002136        	excw
    d4f7:	207220        	or	a7, a2, a2
    d4fa:	602120        	abs	a2, a2
    d4fd:	603130        	abs	a3, a3
    d500:	2c23b6        	bltui	a3, 2, 0xd530
    d503:	40f250        	nsau	a5, a2
    d506:	40f340        	nsau	a4, a3
    d509:	14b547        	bgeu	a5, a4, 0xd521
    d50c:	c04450        	sub	a4, a4, a5
    d50f:	401400        	ssl	a4
    d512:	a13300        	sll	a3, a3
    d515:	089476        	excw
    d518:	023237        	bltu	a2, a3, 0xd51e
    d51b:	c02230        	sub	a2, a2, a3
    d51e:	413130        	srli	a3, a3, 1
    d521:	023237        	bltu	a2, a3, 0xd527
    d524:	c02230        	sub	a2, a2, a3
    d527:	0027d6        	bgez	a7, 0xd52d
    d52a:	602020        	neg	a2, a2
    d52d:	f01d      	excw
    d52f:	53cc00        	excw
    d532:	000000        	ill
    d535:	564944        	excw
    d538:	020c30        	excw
    d53b:	f01d      	excw
    d53d:	000000        	ill
    d540:	002136        	excw
    d543:	2f23b6        	bltui	a3, 2, 0xd576
    d546:	026d      	mov.n	a6, a2
    d548:	40f650        	nsau	a5, a6
    d54b:	40f340        	nsau	a4, a3
    d54e:	2ab547        	bgeu	a5, a4, 0xd57c
    d551:	c04450        	sub	a4, a4, a5
    d554:	401400        	ssl	a4
    d557:	a13300        	sll	a3, a3
    d55a:	00a022        	movi	a2, 0
    d55d:	0d9476        	excw
    d560:	043637        	bltu	a6, a3, 0xd568
    d563:	c06630        	sub	a6, a6, a3
    d566:	221b      	addi.n	a2, a2, 1
    d568:	1122f0        	slli	a2, a2, 1
    d56b:	413130        	srli	a3, a3, 1
    d56e:	023637        	bltu	a6, a3, 0xd574
    d571:	01c222        	addi	a2, a2, 1
    d574:	f01d      	excw
    d576:	b38c      	beqz.n	a3, 0xd585
    d578:	f01d      	excw
    d57a:	370000        	excw
    d57d:	0c0c36        	excw
    d580:	f01d12        	l16ui	a1, a13, 0x1e0
    d583:	000000        	ill
    d586:	440000        	extui	a0, a0, 0, 5
    d589:	5649      	s32i.n	a4, a6, 20
    d58b:	020c30        	excw
    d58e:	f01d      	excw
    d590:	002136        	excw
    d593:	2923b6        	bltui	a3, 2, 0xd5c0
    d596:	40f250        	nsau	a5, a2
    d599:	40f340        	nsau	a4, a3
    d59c:	16b547        	bgeu	a5, a4, 0xd5b6
    d59f:	c04450        	sub	a4, a4, a5
    d5a2:	401400        	ssl	a4
    d5a5:	a13300        	sll	a3, a3
    d5a8:	f03d      	nop.n
    d5aa:	089476        	excw
    d5ad:	023237        	bltu	a2, a3, 0xd5b3
    d5b0:	c02230        	sub	a2, a2, a3
    d5b3:	413130        	srli	a3, a3, 1
    d5b6:	023237        	bltu	a2, a3, 0xd5bc
    d5b9:	c02230        	sub	a2, a2, a3
    d5bc:	f01d      	excw
    d5be:	cc0000        	excw
    d5c1:	000053        	excw
    d5c4:	494400        	excw
    d5c7:	0c3056        	bnez	a0, 0xd68e
    d5ca:	f01d02        	l16ui	a0, a13, 0x1e0
    d5cd:	000000        	ill
    d5d0:	004136        	excw
    d5d3:	1b44b6        	bltui	a4, 4, 0xd5f2
    d5d6:	205320        	or	a5, a3, a2
    d5d9:	145050        	extui	a5, a5, 0, 2
    d5dc:	25dc      	bnez.n	a5, 0xd5f2
    d5de:	418240        	srli	a8, a4, 2
    d5e1:	0d9876        	excw
    d5e4:	03a8      	l32i.n	a10, a3, 0
    d5e6:	0298      	l32i.n	a9, a2, 0
    d5e8:	0699a7        	bne	a9, a10, 0xd5f2
    d5eb:	224b      	addi.n	a2, a2, 4
    d5ed:	334b      	addi.n	a3, a3, 4
    d5ef:	fcc442        	addi	a4, a4, -4
    d5f2:	046d      	mov.n	a6, a4
    d5f4:	440b      	addi.n	a4, a4, -1
    d5f6:	110426        	beqi	a4, -1, 0xd60b
    d5f9:	0e9676        	excw
    d5fc:	000372        	l8ui	a7, a3, 0
    d5ff:	000282        	l8ui	a8, a2, 0
    d602:	221b      	addi.n	a2, a2, 1
    d604:	089877        	bne	a8, a7, 0xd610
    d607:	440b      	addi.n	a4, a4, -1
    d609:	331b      	addi.n	a3, a3, 1
    d60b:	020c      	movi.n	a2, 0
    d60d:	f01d      	excw
    d60f:	287000        	excw
    d612:	f01dc0        	subx8	a1, a13, a12
    d615:	000000        	ill
    d618:	947600        	extui	a7, a0, 6, 10
    d61b:	6209      	s32i.n	a0, a2, 24
    d61d:	1b0003        	excw
    d620:	456233        	excw
    d623:	551b00        	extui	a1, a0, 27, 6
    d626:	f01d      	excw
    d628:	ed74b6        	bltui	a4, 7, 0xd619
    d62b:	000362        	l8ui	a6, a3, 0
    d62e:	331b      	addi.n	a3, a3, 1
    d630:	ffc442        	addi	a4, a4, -1
    d633:	004562        	s8i	a6, a5, 0
    d636:	01c552        	addi	a5, a5, 1
    d639:	276517        	bbci	a5, 1, 0xd664
    d63c:	d964b6        	bltui	a4, 6, 0xd619
    d63f:	000362        	l8ui	a6, a3, 0
    d642:	010372        	l8ui	a7, a3, 1
    d645:	332b      	addi.n	a3, a3, 2
    d647:	fec442        	addi	a4, a4, -2
    d64a:	004562        	s8i	a6, a5, 0
    d64d:	014572        	s8i	a7, a5, 1
    d650:	552b      	addi.n	a5, a5, 2
    d652:	000386        	j	0xd664
    d655:	000000        	ill
    d658:	002136        	excw
    d65b:	205220        	or	a5, a2, a2
    d65e:	c6e207        	bbsi	a2, 0, 0xd628
    d661:	d7e217        	bbsi	a2, 1, 0xd63c
    d664:	417440        	srli	a7, a4, 4
    d667:	03a082        	movi	a8, 3
    d66a:	5a8387        	bany	a3, a8, 0xd6c8
    d66d:	159776        	excw
    d670:	0368      	l32i.n	a6, a3, 0
    d672:	1378      	l32i.n	a7, a3, 4
    d674:	0569      	s32i.n	a6, a5, 0
    d676:	2368      	l32i.n	a6, a3, 8
    d678:	1579      	s32i.n	a7, a5, 4
    d67a:	3378      	l32i.n	a7, a3, 12
    d67c:	2569      	s32i.n	a6, a5, 8
    d67e:	10c332        	addi	a3, a3, 16
    d681:	3579      	s32i.n	a7, a5, 12
    d683:	10c552        	addi	a5, a5, 16
    d686:	0b6437        	bbci	a4, 3, 0xd695
    d689:	0368      	l32i.n	a6, a3, 0
    d68b:	1378      	l32i.n	a7, a3, 4
    d68d:	338b      	addi.n	a3, a3, 8
    d68f:	0569      	s32i.n	a6, a5, 0
    d691:	1579      	s32i.n	a7, a5, 4
    d693:	558b      	addi.n	a5, a5, 8
    d695:	07e427        	bbsi	a4, 2, 0xd6a0
    d698:	14e417        	bbsi	a4, 1, 0xd6b0
    d69b:	21e407        	bbsi	a4, 0, 0xd6c0
    d69e:	f01d      	excw
    d6a0:	0368      	l32i.n	a6, a3, 0
    d6a2:	334b      	addi.n	a3, a3, 4
    d6a4:	0569      	s32i.n	a6, a5, 0
    d6a6:	554b      	addi.n	a5, a5, 4
    d6a8:	04e417        	bbsi	a4, 1, 0xd6b0
    d6ab:	11e407        	bbsi	a4, 0, 0xd6c0
    d6ae:	f01d      	excw
    d6b0:	001362        	l16ui	a6, a3, 0
    d6b3:	332b      	addi.n	a3, a3, 2
    d6b5:	005562        	s16i	a6, a5, 0
    d6b8:	552b      	addi.n	a5, a5, 2
    d6ba:	02e407        	bbsi	a4, 0, 0xd6c0
    d6bd:	f01d      	excw
    d6bf:	036200        	excw
    d6c2:	456200        	extui	a6, a0, 18, 5
    d6c5:	f01d00        	subx8	a1, a13, a0
    d6c8:	ffa416        	beqz	a4, 0xd6c6
    d6cb:	402300        	ssa8l	a3
    d6ce:	10b380        	and	a11, a3, a8
    d6d1:	c033b0        	sub	a3, a3, a11
    d6d4:	0368      	l32i.n	a6, a3, 0
    d6d6:	219776        	excw
    d6d9:	1378      	l32i.n	a7, a3, 4
    d6db:	2388      	l32i.n	a8, a3, 8
    d6dd:	816760        	src	a6, a7, a6
    d6e0:	0569      	s32i.n	a6, a5, 0
    d6e2:	3398      	l32i.n	a9, a3, 12
    d6e4:	817870        	src	a7, a8, a7
    d6e7:	1579      	s32i.n	a7, a5, 4
    d6e9:	4368      	l32i.n	a6, a3, 16
    d6eb:	818980        	src	a8, a9, a8
    d6ee:	2589      	s32i.n	a8, a5, 8
    d6f0:	10c332        	addi	a3, a3, 16
    d6f3:	819690        	src	a9, a6, a9
    d6f6:	3599      	s32i.n	a9, a5, 12
    d6f8:	10c552        	addi	a5, a5, 16
    d6fb:	156437        	bbci	a4, 3, 0xd714
    d6fe:	1378      	l32i.n	a7, a3, 4
    d700:	2388      	l32i.n	a8, a3, 8
    d702:	816760        	src	a6, a7, a6
    d705:	0569      	s32i.n	a6, a5, 0
    d707:	338b      	addi.n	a3, a3, 8
    d709:	817870        	src	a7, a8, a7
    d70c:	1579      	s32i.n	a7, a5, 4
    d70e:	08c552        	addi	a5, a5, 8
    d711:	206880        	or	a6, a8, a8
    d714:	0c6427        	bbci	a4, 2, 0xd724
    d717:	1378      	l32i.n	a7, a3, 4
    d719:	334b      	addi.n	a3, a3, 4
    d71b:	816760        	src	a6, a7, a6
    d71e:	0569      	s32i.n	a6, a5, 0
    d720:	554b      	addi.n	a5, a5, 4
    d722:	076d      	mov.n	a6, a7
    d724:	33ba      	add.n	a3, a3, a11
    d726:	06e417        	bbsi	a4, 1, 0xd730
    d729:	18e407        	bbsi	a4, 0, 0xd745
    d72c:	f01d      	excw
    d72e:	620000        	excw
    d731:	720003        	excw
    d734:	2b0103        	excw
    d737:	456233        	excw
    d73a:	457200        	extui	a7, a0, 18, 5
    d73d:	552b01        	l32r	a0, 0xfffe2bec
    d740:	01e407        	bbsi	a4, 0, 0xd745
    d743:	f01d      	excw
    d745:	000362        	l8ui	a6, a3, 0
    d748:	004562        	s8i	a6, a5, 0
    d74b:	f01d      	excw
    d74d:	000000        	ill
    d750:	947600        	extui	a7, a0, 6, 10
    d753:	453204        	excw
    d756:	551b00        	extui	a1, a0, 27, 6
    d759:	f01d      	excw
    d75b:	84b600        	extui	a11, a0, 6, 9
    d75e:	4532f1        	l32r	a15, 0xfffdec28
    d761:	551b00        	extui	a1, a0, 27, 6
    d764:	440b      	addi.n	a4, a4, -1
    d766:	286517        	bbci	a5, 1, 0xd792
    d769:	e484b6        	bltui	a4, 8, 0xd751
    d76c:	005532        	s16i	a3, a5, 0
    d76f:	552b      	addi.n	a5, a5, 2
    d771:	fec442        	addi	a4, a4, -2
    d774:	000686        	j	0xd792
    d777:	213600        	srai	a3, a0, 6
    d77a:	303000        	xor	a3, a0, a0
    d77d:	738074        	excw
    d780:	337011        	l32r	a1, 0xfffda540
    d783:	730020        	excw
    d786:	337011        	l32r	a1, 0xfffda548
    d789:	025d20        	excw
    d78c:	cce207        	bbsi	a2, 0, 0xd75c
    d78f:	d6e217        	bbsi	a2, 1, 0xd769
    d792:	417440        	srli	a7, a4, 4
    d795:	0a9776        	excw
    d798:	0539      	s32i.n	a3, a5, 0
    d79a:	1539      	s32i.n	a3, a5, 4
    d79c:	2539      	s32i.n	a3, a5, 8
    d79e:	3539      	s32i.n	a3, a5, 12
    d7a0:	10c552        	addi	a5, a5, 16
    d7a3:	066437        	bbci	a4, 3, 0xd7ad
    d7a6:	0539      	s32i.n	a3, a5, 0
    d7a8:	1539      	s32i.n	a3, a5, 4
    d7aa:	08c552        	addi	a5, a5, 8
    d7ad:	036427        	bbci	a4, 2, 0xd7b4
    d7b0:	0539      	s32i.n	a3, a5, 0
    d7b2:	554b      	addi.n	a5, a5, 4
    d7b4:	046417        	bbci	a4, 1, 0xd7bc
    d7b7:	005532        	s16i	a3, a5, 0
    d7ba:	552b      	addi.n	a5, a5, 2
    d7bc:	026407        	bbci	a4, 0, 0xd7c2
    d7bf:	004532        	s8i	a3, a5, 0
    d7c2:	f01d      	excw
    d7c4:	020001        	l32r	a0, 0xfffcdfc4
    d7c7:	002701        	l32r	a0, 0xfffcd864
	...